	.text
	.syntax unified
	.eabi_attribute	67, "2.09"	@ Tag_conformance
	.cpu	cortex-m7
	.eabi_attribute	6, 13	@ Tag_CPU_arch
	.eabi_attribute	7, 77	@ Tag_CPU_arch_profile
	.eabi_attribute	8, 0	@ Tag_ARM_ISA_use
	.eabi_attribute	9, 2	@ Tag_THUMB_ISA_use
	.fpu	fpv5-d16
	.eabi_attribute	36, 1	@ Tag_FP_HP_extension
	.eabi_attribute	34, 1	@ Tag_CPU_unaligned_access
	.eabi_attribute	17, 1	@ Tag_ABI_PCS_GOT_use
	.eabi_attribute	20, 2	@ Tag_ABI_FP_denormal
	.eabi_attribute	21, 0	@ Tag_ABI_FP_exceptions
	.eabi_attribute	23, 1	@ Tag_ABI_FP_number_model
	.eabi_attribute	24, 1	@ Tag_ABI_align_needed
	.eabi_attribute	25, 1	@ Tag_ABI_align_preserved
	.eabi_attribute	28, 1	@ Tag_ABI_VFP_args
	.eabi_attribute	38, 1	@ Tag_ABI_FP_16bit_format
	.eabi_attribute	18, 2	@ Tag_ABI_PCS_wchar_t
	.eabi_attribute	26, 1	@ Tag_ABI_enum_size
	.eabi_attribute	14, 0	@ Tag_ABI_PCS_R9_use
	.file	"af_inet_lwip.c"
	.file	1 "E:\\STM32\\Learning\\STM32H750_ART_PI_RGBLCD" "./rt-thread/components/net/sal_socket/include\\sal.h"
	.file	2 "D:\\Keil_v5\\ARM\\ARMCLANG\\Bin\\..\\include" "stdint.h"
	.file	3 "E:\\STM32\\Learning\\STM32H750_ART_PI_RGBLCD" "./rt-thread/components/net/lwip-2.0.2/src/include\\lwip/arch.h"
	.file	4 "E:\\STM32\\Learning\\STM32H750_ART_PI_RGBLCD" "./rt-thread/components/net/lwip-2.0.2/src/include\\lwip/sockets.h"
	.file	5 "D:\\Keil_v5\\ARM\\ARMCLANG\\Bin\\..\\include" "time.h"
	.file	6 "E:\\STM32\\Learning\\STM32H750_ART_PI_RGBLCD" "./rt-thread/components/net/lwip-2.0.2/src/include\\lwip/netdb.h"
	.file	7 "E:\\STM32\\Learning\\STM32H750_ART_PI_RGBLCD" "rt-thread/components/net/sal_socket/impl/af_inet_lwip.c"
	.file	8 "E:\\STM32\\Learning\\STM32H750_ART_PI_RGBLCD" "./rt-thread/components/net/netdev/include\\netdev.h"
	.section	.text.inet_ioctlsocket,"ax",%progbits
	.hidden	inet_ioctlsocket                @ -- Begin function inet_ioctlsocket
	.globl	inet_ioctlsocket
	.p2align	3
	.type	inet_ioctlsocket,%function
	.code	16                              @ @inet_ioctlsocket
	.thumb_func
inet_ioctlsocket:
.Lfunc_begin0:
	.loc	7 227 0                         @ rt-thread/components/net/sal_socket/impl/af_inet_lwip.c:227:0
	.fnstart
	.cfi_sections .debug_frame
	.cfi_startproc
@ %bb.0:
	.save	{r7, lr}
	push	{r7, lr}
	.cfi_def_cfa_offset 8
	.cfi_offset lr, -4
	.cfi_offset r7, -8
	.pad	#16
	sub	sp, #16
	.cfi_def_cfa_offset 24
	str	r0, [sp, #8]
	str	r1, [sp, #4]
	str	r2, [sp]
.Ltmp0:
	.loc	7 228 13 prologue_end           @ rt-thread/components/net/sal_socket/impl/af_inet_lwip.c:228:13
	ldr	r0, [sp, #4]
	.loc	7 228 5 is_stmt 0               @ rt-thread/components/net/sal_socket/impl/af_inet_lwip.c:228:5
	subs	r0, #3
	cmp	r0, #1
	bhi	.LBB0_2
	b	.LBB0_1
.LBB0_1:
.Ltmp1:
	.loc	7 232 27 is_stmt 1              @ rt-thread/components/net/sal_socket/impl/af_inet_lwip.c:232:27
	ldr	r0, [sp, #8]
	.loc	7 232 35 is_stmt 0              @ rt-thread/components/net/sal_socket/impl/af_inet_lwip.c:232:35
	ldr	r1, [sp, #4]
	.loc	7 232 46                        @ rt-thread/components/net/sal_socket/impl/af_inet_lwip.c:232:46
	ldr	r2, [sp]
	.loc	7 232 16                        @ rt-thread/components/net/sal_socket/impl/af_inet_lwip.c:232:16
	bl	lwip_fcntl
	.loc	7 232 9                         @ rt-thread/components/net/sal_socket/impl/af_inet_lwip.c:232:9
	str	r0, [sp, #12]
	b	.LBB0_3
.LBB0_2:
	.loc	7 235 27 is_stmt 1              @ rt-thread/components/net/sal_socket/impl/af_inet_lwip.c:235:27
	ldr	r0, [sp, #8]
	.loc	7 235 35 is_stmt 0              @ rt-thread/components/net/sal_socket/impl/af_inet_lwip.c:235:35
	ldr	r1, [sp, #4]
	.loc	7 235 40                        @ rt-thread/components/net/sal_socket/impl/af_inet_lwip.c:235:40
	ldr	r2, [sp]
	.loc	7 235 16                        @ rt-thread/components/net/sal_socket/impl/af_inet_lwip.c:235:16
	bl	lwip_ioctl
	.loc	7 235 9                         @ rt-thread/components/net/sal_socket/impl/af_inet_lwip.c:235:9
	str	r0, [sp, #12]
	b	.LBB0_3
.Ltmp2:
.LBB0_3:
	.loc	7 237 1 is_stmt 1               @ rt-thread/components/net/sal_socket/impl/af_inet_lwip.c:237:1
	ldr	r0, [sp, #12]
	add	sp, #16
	pop	{r7, pc}
.Ltmp3:
.Lfunc_end0:
	.size	inet_ioctlsocket, .Lfunc_end0-inet_ioctlsocket
	.cfi_endproc
	.cantunwind
	.fnend
                                        @ -- End function
	.section	.text.sal_lwip_netdev_set_pf_info,"ax",%progbits
	.hidden	sal_lwip_netdev_set_pf_info     @ -- Begin function sal_lwip_netdev_set_pf_info
	.globl	sal_lwip_netdev_set_pf_info
	.p2align	3
	.type	sal_lwip_netdev_set_pf_info,%function
	.code	16                              @ @sal_lwip_netdev_set_pf_info
	.thumb_func
sal_lwip_netdev_set_pf_info:
.Lfunc_begin1:
	.loc	7 330 0                         @ rt-thread/components/net/sal_socket/impl/af_inet_lwip.c:330:0
	.fnstart
	.cfi_startproc
@ %bb.0:
	.save	{r7, lr}
	push	{r7, lr}
	.cfi_def_cfa_offset 8
	.cfi_offset lr, -4
	.cfi_offset r7, -8
	.pad	#8
	sub	sp, #8
	.cfi_def_cfa_offset 16
	str	r0, [sp, #4]
.Ltmp4:
	.loc	7 331 5 prologue_end            @ rt-thread/components/net/sal_socket/impl/af_inet_lwip.c:331:5
	ldr	r0, [sp, #4]
.Ltmp5:
	.loc	7 331 5 is_stmt 0               @ rt-thread/components/net/sal_socket/impl/af_inet_lwip.c:331:5
	cbnz	r0, .LBB1_2
	b	.LBB1_1
.LBB1_1:
.Ltmp6:
	.loc	7 331 5                         @ rt-thread/components/net/sal_socket/impl/af_inet_lwip.c:331:5
	movw	r0, :lower16:.L.str
	movt	r0, :upper16:.L.str
	movw	r1, :lower16:.L__FUNCTION__.sal_lwip_netdev_set_pf_info
	movt	r1, :upper16:.L__FUNCTION__.sal_lwip_netdev_set_pf_info
	movw	r2, #331
	bl	rt_assert_handler
	b	.LBB1_2
.Ltmp7:
.LBB1_2:
	.loc	7 333 5 is_stmt 1               @ rt-thread/components/net/sal_socket/impl/af_inet_lwip.c:333:5
	ldr	r1, [sp, #4]
	.loc	7 333 27 is_stmt 0              @ rt-thread/components/net/sal_socket/impl/af_inet_lwip.c:333:27
	movw	r0, :lower16:lwip_inet_family
	movt	r0, :upper16:lwip_inet_family
	str	r0, [r1, #60]
	movs	r0, #0
	.loc	7 334 5 is_stmt 1               @ rt-thread/components/net/sal_socket/impl/af_inet_lwip.c:334:5
	add	sp, #8
	pop	{r7, pc}
.Ltmp8:
.Lfunc_end1:
	.size	sal_lwip_netdev_set_pf_info, .Lfunc_end1-sal_lwip_netdev_set_pf_info
	.cfi_endproc
	.cantunwind
	.fnend
                                        @ -- End function
	.section	.text.inet_socket,"ax",%progbits
	.p2align	3                               @ -- Begin function inet_socket
	.type	inet_socket,%function
	.code	16                              @ @inet_socket
	.thumb_func
inet_socket:
.Lfunc_begin2:
	.loc	7 174 0                         @ rt-thread/components/net/sal_socket/impl/af_inet_lwip.c:174:0
	.fnstart
	.cfi_startproc
@ %bb.0:
	.save	{r7, lr}
	push	{r7, lr}
	.cfi_def_cfa_offset 8
	.cfi_offset lr, -4
	.cfi_offset r7, -8
	.pad	#16
	sub	sp, #16
	.cfi_def_cfa_offset 24
	str	r0, [sp, #12]
	str	r1, [sp, #8]
	str	r2, [sp, #4]
.Ltmp9:
	.loc	7 191 24 prologue_end           @ rt-thread/components/net/sal_socket/impl/af_inet_lwip.c:191:24
	ldr	r0, [sp, #12]
	.loc	7 191 32 is_stmt 0              @ rt-thread/components/net/sal_socket/impl/af_inet_lwip.c:191:32
	ldr	r1, [sp, #8]
	.loc	7 191 38                        @ rt-thread/components/net/sal_socket/impl/af_inet_lwip.c:191:38
	ldr	r2, [sp, #4]
	.loc	7 191 12                        @ rt-thread/components/net/sal_socket/impl/af_inet_lwip.c:191:12
	bl	lwip_socket
	.loc	7 191 5                         @ rt-thread/components/net/sal_socket/impl/af_inet_lwip.c:191:5
	add	sp, #16
	pop	{r7, pc}
.Ltmp10:
.Lfunc_end2:
	.size	inet_socket, .Lfunc_end2-inet_socket
	.cfi_endproc
	.cantunwind
	.fnend
                                        @ -- End function
	.section	.text.inet_accept,"ax",%progbits
	.p2align	3                               @ -- Begin function inet_accept
	.type	inet_accept,%function
	.code	16                              @ @inet_accept
	.thumb_func
inet_accept:
.Lfunc_begin3:
	.loc	7 196 0 is_stmt 1               @ rt-thread/components/net/sal_socket/impl/af_inet_lwip.c:196:0
	.fnstart
	.cfi_startproc
@ %bb.0:
	.save	{r7, lr}
	push	{r7, lr}
	.cfi_def_cfa_offset 8
	.cfi_offset lr, -4
	.cfi_offset r7, -8
	.pad	#16
	sub	sp, #16
	.cfi_def_cfa_offset 24
	str	r0, [sp, #12]
	str	r1, [sp, #8]
	str	r2, [sp, #4]
.Ltmp11:
	.loc	7 212 24 prologue_end           @ rt-thread/components/net/sal_socket/impl/af_inet_lwip.c:212:24
	ldr	r0, [sp, #12]
	.loc	7 212 32 is_stmt 0              @ rt-thread/components/net/sal_socket/impl/af_inet_lwip.c:212:32
	ldr	r1, [sp, #8]
	.loc	7 212 38                        @ rt-thread/components/net/sal_socket/impl/af_inet_lwip.c:212:38
	ldr	r2, [sp, #4]
	.loc	7 212 12                        @ rt-thread/components/net/sal_socket/impl/af_inet_lwip.c:212:12
	bl	lwip_accept
	.loc	7 212 5                         @ rt-thread/components/net/sal_socket/impl/af_inet_lwip.c:212:5
	add	sp, #16
	pop	{r7, pc}
.Ltmp12:
.Lfunc_end3:
	.size	inet_accept, .Lfunc_end3-inet_accept
	.cfi_endproc
	.cantunwind
	.fnend
                                        @ -- End function
	.section	.text.inet_getsockname,"ax",%progbits
	.p2align	3                               @ -- Begin function inet_getsockname
	.type	inet_getsockname,%function
	.code	16                              @ @inet_getsockname
	.thumb_func
inet_getsockname:
.Lfunc_begin4:
	.loc	7 217 0 is_stmt 1               @ rt-thread/components/net/sal_socket/impl/af_inet_lwip.c:217:0
	.fnstart
	.cfi_startproc
@ %bb.0:
	.save	{r7, lr}
	push	{r7, lr}
	.cfi_def_cfa_offset 8
	.cfi_offset lr, -4
	.cfi_offset r7, -8
	.pad	#16
	sub	sp, #16
	.cfi_def_cfa_offset 24
	str	r0, [sp, #12]
	str	r1, [sp, #8]
	str	r2, [sp, #4]
.Ltmp13:
	.loc	7 223 29 prologue_end           @ rt-thread/components/net/sal_socket/impl/af_inet_lwip.c:223:29
	ldr	r0, [sp, #12]
	.loc	7 223 37 is_stmt 0              @ rt-thread/components/net/sal_socket/impl/af_inet_lwip.c:223:37
	ldr	r1, [sp, #8]
	.loc	7 223 43                        @ rt-thread/components/net/sal_socket/impl/af_inet_lwip.c:223:43
	ldr	r2, [sp, #4]
	.loc	7 223 12                        @ rt-thread/components/net/sal_socket/impl/af_inet_lwip.c:223:12
	bl	lwip_getsockname
	.loc	7 223 5                         @ rt-thread/components/net/sal_socket/impl/af_inet_lwip.c:223:5
	add	sp, #16
	pop	{r7, pc}
.Ltmp14:
.Lfunc_end4:
	.size	inet_getsockname, .Lfunc_end4-inet_getsockname
	.cfi_endproc
	.cantunwind
	.fnend
                                        @ -- End function
	.type	.L.str,%object                  @ @.str
	.section	.rodata.str1.1,"aMS",%progbits,1
.L.str:
	.asciz	"netdev"
	.size	.L.str, 7

	.type	.L__FUNCTION__.sal_lwip_netdev_set_pf_info,%object @ @__FUNCTION__.sal_lwip_netdev_set_pf_info
.L__FUNCTION__.sal_lwip_netdev_set_pf_info:
	.asciz	"sal_lwip_netdev_set_pf_info"
	.size	.L__FUNCTION__.sal_lwip_netdev_set_pf_info, 28

	.type	lwip_inet_family,%object        @ @lwip_inet_family
	.section	.rodata.lwip_inet_family,"a",%progbits
	.p2align	2
lwip_inet_family:
	.long	2                               @ 0x2
	.long	0                               @ 0x0
	.long	lwip_socket_ops
	.long	lwip_netdb_ops
	.size	lwip_inet_family, 16

	.type	lwip_socket_ops,%object         @ @lwip_socket_ops
	.section	.rodata.lwip_socket_ops,"a",%progbits
	.p2align	2
lwip_socket_ops:
	.long	inet_socket
	.long	lwip_close
	.long	lwip_bind
	.long	lwip_listen
	.long	lwip_connect
	.long	inet_accept
	.long	lwip_sendto
	.long	lwip_recvfrom
	.long	lwip_getsockopt
	.long	lwip_setsockopt
	.long	lwip_shutdown
	.long	lwip_getpeername
	.long	inet_getsockname
	.long	inet_ioctlsocket
	.size	lwip_socket_ops, 56

	.type	lwip_netdb_ops,%object          @ @lwip_netdb_ops
	.section	.rodata.lwip_netdb_ops,"a",%progbits
	.p2align	2
lwip_netdb_ops:
	.long	lwip_gethostbyname
	.long	lwip_gethostbyname_r
	.long	lwip_getaddrinfo
	.long	lwip_freeaddrinfo
	.size	lwip_netdb_ops, 16

	.file	9 "E:\\STM32\\Learning\\STM32H750_ART_PI_RGBLCD" "rt-thread/include\\rtdef.h"
	.file	10 "E:\\STM32\\Learning\\STM32H750_ART_PI_RGBLCD" "./rt-thread/components/net/lwip-2.0.2/src/include\\lwip/ip4_addr.h"
	.file	11 "E:\\STM32\\Learning\\STM32H750_ART_PI_RGBLCD" "./rt-thread/components/net/lwip-2.0.2/src/include\\lwip/ip_addr.h"
	.section	".note.GNU-stack","",%progbits
	.eabi_attribute	30, 6	@ Tag_ABI_optimization_goals
	.ARM_attribute	16, 1	@ Tag_AV_eba