	.text
	.syntax unified
	.eabi_attribute	67, "2.09"	@ Tag_conformance
	.cpu	cortex-m7
	.eabi_attribute	6, 13	@ Tag_CPU_arch
	.eabi_attribute	7, 77	@ Tag_CPU_arch_profile
	.eabi_attribute	8, 0	@ Tag_ARM_ISA_use
	.eabi_attribute	9, 2	@ Tag_THUMB_ISA_use
	.fpu	fpv5-d16
	.eabi_attribute	36, 1	@ Tag_FP_HP_extension
	.eabi_attribute	34, 1	@ Tag_CPU_unaligned_access
	.eabi_attribute	17, 1	@ Tag_ABI_PCS_GOT_use
	.eabi_attribute	20, 2	@ Tag_ABI_FP_denormal
	.eabi_attribute	21, 0	@ Tag_ABI_FP_exceptions
	.eabi_attribute	23, 1	@ Tag_ABI_FP_number_model
	.eabi_attribute	24, 1	@ Tag_ABI_align_needed
	.eabi_attribute	25, 1	@ Tag_ABI_align_preserved
	.eabi_attribute	28, 1	@ Tag_ABI_VFP_args
	.eabi_attribute	38, 1	@ Tag_ABI_FP_16bit_format
	.eabi_attribute	18, 2	@ Tag_ABI_PCS_wchar_t
	.eabi_attribute	26, 1	@ Tag_ABI_enum_size
	.eabi_attribute	14, 0	@ Tag_ABI_PCS_R9_use
	.file	"api_msg.c"
	.file	1 "D:\\Keil_v5\\ARM\\ARMCLANG\\Bin\\..\\include" "stdint.h"
	.file	2 "E:\\STM32\\Learning\\STM32H750_ART_PI_RGBLCD" "./rt-thread/components/net/lwip-2.0.2/src/include\\lwip/arch.h"
	.file	3 "E:\\STM32\\Learning\\STM32H750_ART_PI_RGBLCD" "rt-thread/components/net/lwip-2.0.2/src/api/api_msg.c"
	.file	4 "E:\\STM32\\Learning\\STM32H750_ART_PI_RGBLCD" "./rt-thread/components/net/lwip-2.0.2/src/include\\lwip/api.h"
	.file	5 "E:\\STM32\\Learning\\STM32H750_ART_PI_RGBLCD" "./rt-thread/components/net/lwip-2.0.2/src/include\\lwip/tcp.h"
	.file	6 "E:\\STM32\\Learning\\STM32H750_ART_PI_RGBLCD" "./rt-thread/components/net/lwip-2.0.2/src/include\\lwip/err.h"
	.file	7 "E:\\STM32\\Learning\\STM32H750_ART_PI_RGBLCD" "./rt-thread/components/net/lwip-2.0.2/src/include\\lwip/memp.h"
	.file	8 "E:\\STM32\\Learning\\STM32H750_ART_PI_RGBLCD" "./rt-thread/components/net/lwip-2.0.2/src/include\\lwip/ip_addr.h"
	.file	9 "E:\\STM32\\Learning\\STM32H750_ART_PI_RGBLCD" "./rt-thread/components/net/lwip-2.0.2/src/include\\lwip/pbuf.h"
	.file	10 "E:\\STM32\\Learning\\STM32H750_ART_PI_RGBLCD" "./rt-thread/components/net/lwip-2.0.2/src/include\\lwip/ip4_addr.h"
	.file	11 "E:\\STM32\\Learning\\STM32H750_ART_PI_RGBLCD" "./rt-thread/components/net/lwip-2.0.2/src/include\\lwip/ip.h"
	.file	12 "E:\\STM32\\Learning\\STM32H750_ART_PI_RGBLCD" "./rt-thread/components/net/lwip-2.0.2/src/include\\lwip/udp.h"
	.file	13 "E:\\STM32\\Learning\\STM32H750_ART_PI_RGBLCD" "./rt-thread/components/net/lwip-2.0.2/src/include\\lwip/raw.h"
	.file	14 "E:\\STM32\\Learning\\STM32H750_ART_PI_RGBLCD" "rt-thread/include\\rtdef.h"
	.file	15 "E:\\STM32\\Learning\\STM32H750_ART_PI_RGBLCD" "./rt-thread/components/net/lwip-2.0.2/src/arch/include\\arch/sys_arch.h"
	.file	16 "D:\\Keil_v5\\ARM\\ARMCLANG\\Bin\\..\\include" "stdlib.h"
	.file	17 "E:\\STM32\\Learning\\STM32H750_ART_PI_RGBLCD" "./rt-thread/components/net/lwip-2.0.2/src/include\\lwip/priv/api_msg.h"
	.file	18 "E:\\STM32\\Learning\\STM32H750_ART_PI_RGBLCD" "./rt-thread/components/net/lwip-2.0.2/src/include\\lwip/netbuf.h"
	.section	.text.lwip_netconn_do_newconn,"ax",%progbits
	.hidden	lwip_netconn_do_newconn         @ -- Begin function lwip_netconn_do_newconn
	.globl	lwip_netconn_do_newconn
	.p2align	3
	.type	lwip_netconn_do_newconn,%function
	.code	16                              @ @lwip_netconn_do_newconn
	.thumb_func
lwip_netconn_do_newconn:
.Lfunc_begin0:
	.loc	3 618 0                         @ rt-thread/components/net/lwip-2.0.2/src/api/api_msg.c:618:0
	.fnstart
	.cfi_sections .debug_frame
	.cfi_startproc
@ %bb.0:
	.save	{r7, lr}
	push	{r7, lr}
	.cfi_def_cfa_offset 8
	.cfi_offset lr, -4
	.cfi_offset r7, -8
	.pad	#8
	sub	sp, #8
	.cfi_def_cfa_offset 16
	str	r0, [sp, #4]
.Ltmp0:
	.loc	3 619 42 prologue_end           @ rt-thread/components/net/lwip-2.0.2/src/api/api_msg.c:619:42
	ldr	r0, [sp, #4]
	.loc	3 619 19 is_stmt 0              @ rt-thread/components/net/lwip-2.0.2/src/api/api_msg.c:619:19
	str	r0, [sp]
	.loc	3 621 3 is_stmt 1               @ rt-thread/components/net/lwip-2.0.2/src/api/api_msg.c:621:3
	ldr	r1, [sp]
	movs	r0, #0
	.loc	3 621 12 is_stmt 0              @ rt-thread/components/net/lwip-2.0.2/src/api/api_msg.c:621:12
	strb	r0, [r1, #4]
.Ltmp1:
	.loc	3 622 7 is_stmt 1               @ rt-thread/components/net/lwip-2.0.2/src/api/api_msg.c:622:7
	ldr	r0, [sp]
	.loc	3 622 12 is_stmt 0              @ rt-thread/components/net/lwip-2.0.2/src/api/api_msg.c:622:12
	ldr	r0, [r0]
	.loc	3 622 22                        @ rt-thread/components/net/lwip-2.0.2/src/api/api_msg.c:622:22
	ldr	r0, [r0, #4]
.Ltmp2:
	.loc	3 622 7                         @ rt-thread/components/net/lwip-2.0.2/src/api/api_msg.c:622:7
	cbnz	r0, .LBB0_2
	b	.LBB0_1
.LBB0_1:
.Ltmp3:
	.loc	3 623 13 is_stmt 1              @ rt-thread/components/net/lwip-2.0.2/src/api/api_msg.c:623:13
	ldr	r0, [sp]
	.loc	3 623 5 is_stmt 0               @ rt-thread/components/net/lwip-2.0.2/src/api/api_msg.c:623:5
	bl	pcb_new
	.loc	3 624 3 is_stmt 1               @ rt-thread/components/net/lwip-2.0.2/src/api/api_msg.c:624:3
	b	.LBB0_2
.Ltmp4:
.LBB0_2:
	.loc	3 629 3                         @ rt-thread/components/net/lwip-2.0.2/src/api/api_msg.c:629:3
	b	.LBB0_3
.LBB0_3:
.Ltmp5:
	.loc	3 629 3 is_stmt 0               @ rt-thread/components/net/lwip-2.0.2/src/api/api_msg.c:629:3
	ldr	r0, [sp]
	ldr	r0, [r0]
.Ltmp6:
	.loc	3 629 3                         @ rt-thread/components/net/lwip-2.0.2/src/api/api_msg.c:629:3
	cbz	r0, .LBB0_7
	b	.LBB0_4
.LBB0_4:
.Ltmp7:
	.loc	3 629 3                         @ rt-thread/components/net/lwip-2.0.2/src/api/api_msg.c:629:3
	bl	rt_enter_critical
.Ltmp8:
	.loc	3 629 3                         @ rt-thread/components/net/lwip-2.0.2/src/api/api_msg.c:629:3
	ldr	r0, [sp]
	ldr	r0, [r0]
	ldrsb.w	r0, [r0, #8]
.Ltmp9:
	.loc	3 629 3                         @ rt-thread/components/net/lwip-2.0.2/src/api/api_msg.c:629:3
	cmn.w	r0, #12
	blt	.LBB0_6
	b	.LBB0_5
.LBB0_5:
.Ltmp10:
	.loc	3 629 3                         @ rt-thread/components/net/lwip-2.0.2/src/api/api_msg.c:629:3
	ldr	r1, [sp]
	ldrb	r0, [r1, #4]
	ldr	r1, [r1]
	strb	r0, [r1, #8]
	b	.LBB0_6
.Ltmp11:
.LBB0_6:
	.loc	3 629 3                         @ rt-thread/components/net/lwip-2.0.2/src/api/api_msg.c:629:3
	bl	rt_exit_critical
	b	.LBB0_7
.Ltmp12:
.LBB0_7:
	.loc	3 629 3                         @ rt-thread/components/net/lwip-2.0.2/src/api/api_msg.c:629:3
	b	.LBB0_8
.Ltmp13:
.LBB0_8:
	.loc	3 630 1 is_stmt 1               @ rt-thread/components/net/lwip-2.0.2/src/api/api_msg.c:630:1
	add	sp, #8
	pop	{r7, pc}
.Ltmp14:
.Lfunc_end0:
	.size	lwip_netconn_do_newconn, .Lfunc_end0-lwip_netconn_do_newconn
	.cfi_endproc
	.cantunwind
	.fnend
                                        @ -- End function
	.section	.text.pcb_new,"ax",%progbits
	.p2align	3                               @ -- Begin function pcb_new
	.type	pcb_new,%function
	.code	16                              @ @pcb_new
	.thumb_func
pcb_new:
.Lfunc_begin1:
	.loc	3 547 0                         @ rt-thread/components/net/lwip-2.0.2/src/api/api_msg.c:547:0
	.fnstart
	.cfi_startproc
@ %bb.0:
	.save	{r7, lr}
	push	{r7, lr}
	.cfi_def_cfa_offset 8
	.cfi_offset lr, -4
	.cfi_offset r7, -8
	.pad	#16
	sub	sp, #16
	.cfi_def_cfa_offset 24
	str	r0, [sp, #12]
	movs	r0, #0
.Ltmp15:
	.loc	3 548 26 prologue_end           @ rt-thread/components/net/lwip-2.0.2/src/api/api_msg.c:548:26
	strb.w	r0, [sp, #11]
	.loc	3 550 3                         @ rt-thread/components/net/lwip-2.0.2/src/api/api_msg.c:550:3
	b	.LBB1_1
.LBB1_1:
.Ltmp16:
	.loc	3 550 3 is_stmt 0               @ rt-thread/components/net/lwip-2.0.2/src/api/api_msg.c:550:3
	ldr	r0, [sp, #12]
	ldr	r0, [r0]
	ldr	r0, [r0, #4]
.Ltmp17:
	.loc	3 550 3                         @ rt-thread/components/net/lwip-2.0.2/src/api/api_msg.c:550:3
	cbz	r0, .LBB1_5
	b	.LBB1_2
.LBB1_2:
.Ltmp18:
	.loc	3 550 3                         @ rt-thread/components/net/lwip-2.0.2/src/api/api_msg.c:550:3
	b	.LBB1_3
.LBB1_3:
.Ltmp19:
	.loc	3 550 3                         @ rt-thread/components/net/lwip-2.0.2/src/api/api_msg.c:550:3
	movw	r0, :lower16:.L.str.12
	movt	r0, :upper16:.L.str.12
	bl	rt_kprintf
	movw	r0, :lower16:.L.str
	movt	r0, :upper16:.L.str
	movw	r1, #550
	bl	sys_arch_assert
	b	.LBB1_4
.Ltmp20:
.LBB1_4:
	.loc	3 550 3                         @ rt-thread/components/net/lwip-2.0.2/src/api/api_msg.c:550:3
	b	.LBB1_5
.Ltmp21:
.LBB1_5:
	.loc	3 550 3                         @ rt-thread/components/net/lwip-2.0.2/src/api/api_msg.c:550:3
	b	.LBB1_6
.Ltmp22:
.LBB1_6:
	.loc	3 560 10 is_stmt 1              @ rt-thread/components/net/lwip-2.0.2/src/api/api_msg.c:560:10
	ldr	r0, [sp, #12]
	ldr	r0, [r0]
	ldrb	r0, [r0]
	and	r0, r0, #240
	.loc	3 560 3 is_stmt 0               @ rt-thread/components/net/lwip-2.0.2/src/api/api_msg.c:560:3
	mov	r1, r0
	str	r1, [sp, #4]                    @ 4-byte Spill
	cmp	r0, #16
	beq	.LBB1_17
	b	.LBB1_7
.LBB1_7:
	ldr	r0, [sp, #4]                    @ 4-byte Reload
	cmp	r0, #32
	beq	.LBB1_12
	b	.LBB1_8
.LBB1_8:
	ldr	r0, [sp, #4]                    @ 4-byte Reload
	cmp	r0, #64
	bne	.LBB1_20
	b	.LBB1_9
.LBB1_9:
.Ltmp23:
	.loc	3 563 42 is_stmt 1              @ rt-thread/components/net/lwip-2.0.2/src/api/api_msg.c:563:42
	ldrb.w	r0, [sp, #11]
	.loc	3 563 50 is_stmt 0              @ rt-thread/components/net/lwip-2.0.2/src/api/api_msg.c:563:50
	ldr	r1, [sp, #12]
	.loc	3 563 61                        @ rt-thread/components/net/lwip-2.0.2/src/api/api_msg.c:563:61
	ldrb	r1, [r1, #8]
	.loc	3 563 26                        @ rt-thread/components/net/lwip-2.0.2/src/api/api_msg.c:563:26
	bl	raw_new_ip_type
	.loc	3 563 5                         @ rt-thread/components/net/lwip-2.0.2/src/api/api_msg.c:563:5
	ldr	r1, [sp, #12]
	.loc	3 563 10                        @ rt-thread/components/net/lwip-2.0.2/src/api/api_msg.c:563:10
	ldr	r1, [r1]
	.loc	3 563 24                        @ rt-thread/components/net/lwip-2.0.2/src/api/api_msg.c:563:24
	str	r0, [r1, #4]
.Ltmp24:
	.loc	3 564 9 is_stmt 1               @ rt-thread/components/net/lwip-2.0.2/src/api/api_msg.c:564:9
	ldr	r0, [sp, #12]
	.loc	3 564 14 is_stmt 0              @ rt-thread/components/net/lwip-2.0.2/src/api/api_msg.c:564:14
	ldr	r0, [r0]
	.loc	3 564 24                        @ rt-thread/components/net/lwip-2.0.2/src/api/api_msg.c:564:24
	ldr	r0, [r0, #4]
.Ltmp25:
	.loc	3 564 9                         @ rt-thread/components/net/lwip-2.0.2/src/api/api_msg.c:564:9
	cbz	r0, .LBB1_11
	b	.LBB1_10
.LBB1_10:
.Ltmp26:
	.loc	3 572 16 is_stmt 1              @ rt-thread/components/net/lwip-2.0.2/src/api/api_msg.c:572:16
	ldr	r0, [sp, #12]
	.loc	3 572 21 is_stmt 0              @ rt-thread/components/net/lwip-2.0.2/src/api/api_msg.c:572:21
	ldr	r2, [r0]
	.loc	3 572 31                        @ rt-thread/components/net/lwip-2.0.2/src/api/api_msg.c:572:31
	ldr	r0, [r2, #4]
	.loc	3 572 7                         @ rt-thread/components/net/lwip-2.0.2/src/api/api_msg.c:572:7
	movw	r1, :lower16:recv_raw
	movt	r1, :upper16:recv_raw
	bl	raw_recv
	.loc	3 573 5 is_stmt 1               @ rt-thread/components/net/lwip-2.0.2/src/api/api_msg.c:573:5
	b	.LBB1_11
.Ltmp27:
.LBB1_11:
	.loc	3 574 5                         @ rt-thread/components/net/lwip-2.0.2/src/api/api_msg.c:574:5
	b	.LBB1_21
.LBB1_12:
	.loc	3 578 42                        @ rt-thread/components/net/lwip-2.0.2/src/api/api_msg.c:578:42
	ldrb.w	r0, [sp, #11]
	.loc	3 578 26 is_stmt 0              @ rt-thread/components/net/lwip-2.0.2/src/api/api_msg.c:578:26
	bl	udp_new_ip_type
	.loc	3 578 5                         @ rt-thread/components/net/lwip-2.0.2/src/api/api_msg.c:578:5
	ldr	r1, [sp, #12]
	.loc	3 578 10                        @ rt-thread/components/net/lwip-2.0.2/src/api/api_msg.c:578:10
	ldr	r1, [r1]
	.loc	3 578 24                        @ rt-thread/components/net/lwip-2.0.2/src/api/api_msg.c:578:24
	str	r0, [r1, #4]
.Ltmp28:
	.loc	3 579 9 is_stmt 1               @ rt-thread/components/net/lwip-2.0.2/src/api/api_msg.c:579:9
	ldr	r0, [sp, #12]
	.loc	3 579 14 is_stmt 0              @ rt-thread/components/net/lwip-2.0.2/src/api/api_msg.c:579:14
	ldr	r0, [r0]
	.loc	3 579 24                        @ rt-thread/components/net/lwip-2.0.2/src/api/api_msg.c:579:24
	ldr	r0, [r0, #4]
.Ltmp29:
	.loc	3 579 9                         @ rt-thread/components/net/lwip-2.0.2/src/api/api_msg.c:579:9
	cbz	r0, .LBB1_16
	b	.LBB1_13
.LBB1_13:
.Ltmp30:
	.loc	3 585 11 is_stmt 1              @ rt-thread/components/net/lwip-2.0.2/src/api/api_msg.c:585:11
	ldr	r0, [sp, #12]
	ldr	r0, [r0]
	ldrb	r0, [r0]
.Ltmp31:
	.loc	3 585 11 is_stmt 0              @ rt-thread/components/net/lwip-2.0.2/src/api/api_msg.c:585:11
	cmp	r0, #34
	bne	.LBB1_15
	b	.LBB1_14
.LBB1_14:
.Ltmp32:
	.loc	3 586 9 is_stmt 1               @ rt-thread/components/net/lwip-2.0.2/src/api/api_msg.c:586:9
	ldr	r0, [sp, #12]
	ldr	r0, [r0]
	ldr	r1, [r0, #4]
	movs	r0, #1
	strb	r0, [r1, #16]
	.loc	3 587 7                         @ rt-thread/components/net/lwip-2.0.2/src/api/api_msg.c:587:7
	b	.LBB1_15
.Ltmp33:
.LBB1_15:
	.loc	3 588 16                        @ rt-thread/components/net/lwip-2.0.2/src/api/api_msg.c:588:16
	ldr	r0, [sp, #12]
	.loc	3 588 21 is_stmt 0              @ rt-thread/components/net/lwip-2.0.2/src/api/api_msg.c:588:21
	ldr	r2, [r0]
	.loc	3 588 31                        @ rt-thread/components/net/lwip-2.0.2/src/api/api_msg.c:588:31
	ldr	r0, [r2, #4]
	.loc	3 588 7                         @ rt-thread/components/net/lwip-2.0.2/src/api/api_msg.c:588:7
	movw	r1, :lower16:recv_udp
	movt	r1, :upper16:recv_udp
	bl	udp_recv
	.loc	3 589 5 is_stmt 1               @ rt-thread/components/net/lwip-2.0.2/src/api/api_msg.c:589:5
	b	.LBB1_16
.Ltmp34:
.LBB1_16:
	.loc	3 590 5                         @ rt-thread/components/net/lwip-2.0.2/src/api/api_msg.c:590:5
	b	.LBB1_21
.LBB1_17:
	.loc	3 594 42                        @ rt-thread/components/net/lwip-2.0.2/src/api/api_msg.c:594:42
	ldrb.w	r0, [sp, #11]
	.loc	3 594 26 is_stmt 0              @ rt-thread/components/net/lwip-2.0.2/src/api/api_msg.c:594:26
	bl	tcp_new_ip_type
	.loc	3 594 5                         @ rt-thread/components/net/lwip-2.0.2/src/api/api_msg.c:594:5
	ldr	r1, [sp, #12]
	.loc	3 594 10                        @ rt-thread/components/net/lwip-2.0.2/src/api/api_msg.c:594:10
	ldr	r1, [r1]
	.loc	3 594 24                        @ rt-thread/components/net/lwip-2.0.2/src/api/api_msg.c:594:24
	str	r0, [r1, #4]
.Ltmp35:
	.loc	3 595 9 is_stmt 1               @ rt-thread/components/net/lwip-2.0.2/src/api/api_msg.c:595:9
	ldr	r0, [sp, #12]
	.loc	3 595 14 is_stmt 0              @ rt-thread/components/net/lwip-2.0.2/src/api/api_msg.c:595:14
	ldr	r0, [r0]
	.loc	3 595 24                        @ rt-thread/components/net/lwip-2.0.2/src/api/api_msg.c:595:24
	ldr	r0, [r0, #4]
.Ltmp36:
	.loc	3 595 9                         @ rt-thread/components/net/lwip-2.0.2/src/api/api_msg.c:595:9
	cbz	r0, .LBB1_19
	b	.LBB1_18
.LBB1_18:
.Ltmp37:
	.loc	3 596 17 is_stmt 1              @ rt-thread/components/net/lwip-2.0.2/src/api/api_msg.c:596:17
	ldr	r0, [sp, #12]
	.loc	3 596 22 is_stmt 0              @ rt-thread/components/net/lwip-2.0.2/src/api/api_msg.c:596:22
	ldr	r0, [r0]
	.loc	3 596 7                         @ rt-thread/components/net/lwip-2.0.2/src/api/api_msg.c:596:7
	bl	setup_tcp
	.loc	3 597 5 is_stmt 1               @ rt-thread/components/net/lwip-2.0.2/src/api/api_msg.c:597:5
	b	.LBB1_19
.Ltmp38:
.LBB1_19:
	.loc	3 598 5                         @ rt-thread/components/net/lwip-2.0.2/src/api/api_msg.c:598:5
	b	.LBB1_21
.LBB1_20:
	.loc	3 602 5                         @ rt-thread/components/net/lwip-2.0.2/src/api/api_msg.c:602:5
	ldr	r1, [sp, #12]
	movs	r0, #250
	.loc	3 602 14 is_stmt 0              @ rt-thread/components/net/lwip-2.0.2/src/api/api_msg.c:602:14
	strb	r0, [r1, #4]
	.loc	3 603 5 is_stmt 1               @ rt-thread/components/net/lwip-2.0.2/src/api/api_msg.c:603:5
	b	.LBB1_23
.Ltmp39:
.LBB1_21:
	.loc	3 605 7                         @ rt-thread/components/net/lwip-2.0.2/src/api/api_msg.c:605:7
	ldr	r0, [sp, #12]
	.loc	3 605 12 is_stmt 0              @ rt-thread/components/net/lwip-2.0.2/src/api/api_msg.c:605:12
	ldr	r0, [r0]
	.loc	3 605 22                        @ rt-thread/components/net/lwip-2.0.2/src/api/api_msg.c:605:22
	ldr	r0, [r0, #4]
.Ltmp40:
	.loc	3 605 7                         @ rt-thread/components/net/lwip-2.0.2/src/api/api_msg.c:605:7
	cbnz	r0, .LBB1_23
	b	.LBB1_22
.LBB1_22:
.Ltmp41:
	.loc	3 606 5 is_stmt 1               @ rt-thread/components/net/lwip-2.0.2/src/api/api_msg.c:606:5
	ldr	r1, [sp, #12]
	movs	r0, #255
	.loc	3 606 14 is_stmt 0              @ rt-thread/components/net/lwip-2.0.2/src/api/api_msg.c:606:14
	strb	r0, [r1, #4]
	.loc	3 607 3 is_stmt 1               @ rt-thread/components/net/lwip-2.0.2/src/api/api_msg.c:607:3
	b	.LBB1_23
.Ltmp42:
.LBB1_23:
	.loc	3 608 1                         @ rt-thread/components/net/lwip-2.0.2/src/api/api_msg.c:608:1
	add	sp, #16
	pop	{r7, pc}
.Ltmp43:
.Lfunc_end1:
	.size	pcb_new, .Lfunc_end1-pcb_new
	.cfi_endproc
	.cantunwind
	.fnend
                                        @ -- End function
	.section	.text.netconn_alloc,"ax",%progbits
	.hidden	netconn_alloc                   @ -- Begin function netconn_alloc
	.globl	netconn_alloc
	.p2align	3
	.type	netconn_alloc,%function
	.code	16                              @ @netconn_alloc
	.thumb_func
netconn_alloc:
.Lfunc_begin2:
	.loc	3 643 0                         @ rt-thread/components/net/lwip-2.0.2/src/api/api_msg.c:643:0
	.fnstart
	.cfi_startproc
@ %bb.0:
	.save	{r7, lr}
	push	{r7, lr}
	.cfi_def_cfa_offset 8
	.cfi_offset lr, -4
	.cfi_offset r7, -8
	.pad	#24
	sub	sp, #24
	.cfi_def_cfa_offset 32
                                        @ kill: def $r2 killed $r0
	strb.w	r0, [sp, #19]
	str	r1, [sp, #12]
.Ltmp44:
	.loc	3 647 28 prologue_end           @ rt-thread/components/net/lwip-2.0.2/src/api/api_msg.c:647:28
	movw	r1, :lower16:.L.str
	movt	r1, :upper16:.L.str
	movs	r0, #6
	movw	r2, #647
	bl	memp_malloc_fn
	.loc	3 647 8 is_stmt 0               @ rt-thread/components/net/lwip-2.0.2/src/api/api_msg.c:647:8
	str	r0, [sp, #8]
.Ltmp45:
	.loc	3 648 7 is_stmt 1               @ rt-thread/components/net/lwip-2.0.2/src/api/api_msg.c:648:7
	ldr	r0, [sp, #8]
.Ltmp46:
	.loc	3 648 7 is_stmt 0               @ rt-thread/components/net/lwip-2.0.2/src/api/api_msg.c:648:7
	cbnz	r0, .LBB2_2
	b	.LBB2_1
.LBB2_1:
	.loc	3 0 7                           @ rt-thread/components/net/lwip-2.0.2/src/api/api_msg.c:0:7
	movs	r0, #0
.Ltmp47:
	.loc	3 649 5 is_stmt 1               @ rt-thread/components/net/lwip-2.0.2/src/api/api_msg.c:649:5
	str	r0, [sp, #20]
	b	.LBB2_19
.Ltmp48:
.LBB2_2:
	.loc	3 652 3                         @ rt-thread/components/net/lwip-2.0.2/src/api/api_msg.c:652:3
	ldr	r1, [sp, #8]
	movs	r0, #0
	.loc	3 652 18 is_stmt 0              @ rt-thread/components/net/lwip-2.0.2/src/api/api_msg.c:652:18
	strb	r0, [r1, #8]
	.loc	3 653 16 is_stmt 1              @ rt-thread/components/net/lwip-2.0.2/src/api/api_msg.c:653:16
	ldrb.w	r1, [sp, #19]
	.loc	3 653 3 is_stmt 0               @ rt-thread/components/net/lwip-2.0.2/src/api/api_msg.c:653:3
	ldr	r2, [sp, #8]
	.loc	3 653 14                        @ rt-thread/components/net/lwip-2.0.2/src/api/api_msg.c:653:14
	strb	r1, [r2]
	.loc	3 654 3 is_stmt 1               @ rt-thread/components/net/lwip-2.0.2/src/api/api_msg.c:654:3
	ldr	r1, [sp, #8]
	.loc	3 654 17 is_stmt 0              @ rt-thread/components/net/lwip-2.0.2/src/api/api_msg.c:654:17
	str	r0, [r1, #4]
	.loc	3 657 10 is_stmt 1              @ rt-thread/components/net/lwip-2.0.2/src/api/api_msg.c:657:10
	ldrb.w	r0, [sp, #19]
	and	r0, r0, #240
	.loc	3 657 3 is_stmt 0               @ rt-thread/components/net/lwip-2.0.2/src/api/api_msg.c:657:3
	mov	r1, r0
	str	r1, [sp]                        @ 4-byte Spill
	cmp	r0, #16
	beq	.LBB2_7
	b	.LBB2_3
.LBB2_3:
	ldr	r0, [sp]                        @ 4-byte Reload
	cmp	r0, #32
	beq	.LBB2_6
	b	.LBB2_4
.LBB2_4:
	ldr	r0, [sp]                        @ 4-byte Reload
	cmp	r0, #64
	bne	.LBB2_8
	b	.LBB2_5
.LBB2_5:
	.loc	3 0 3                           @ rt-thread/components/net/lwip-2.0.2/src/api/api_msg.c:0:3
	movs	r0, #1
.Ltmp49:
	.loc	3 660 10 is_stmt 1              @ rt-thread/components/net/lwip-2.0.2/src/api/api_msg.c:660:10
	str	r0, [sp, #4]
	.loc	3 661 5                         @ rt-thread/components/net/lwip-2.0.2/src/api/api_msg.c:661:5
	b	.LBB2_13
.LBB2_6:
	.loc	3 0 5 is_stmt 0                 @ rt-thread/components/net/lwip-2.0.2/src/api/api_msg.c:0:5
	movs	r0, #1
	.loc	3 665 10 is_stmt 1              @ rt-thread/components/net/lwip-2.0.2/src/api/api_msg.c:665:10
	str	r0, [sp, #4]
	.loc	3 666 5                         @ rt-thread/components/net/lwip-2.0.2/src/api/api_msg.c:666:5
	b	.LBB2_13
.LBB2_7:
	.loc	3 0 5 is_stmt 0                 @ rt-thread/components/net/lwip-2.0.2/src/api/api_msg.c:0:5
	movs	r0, #10
	.loc	3 670 10 is_stmt 1              @ rt-thread/components/net/lwip-2.0.2/src/api/api_msg.c:670:10
	str	r0, [sp, #4]
	.loc	3 671 5                         @ rt-thread/components/net/lwip-2.0.2/src/api/api_msg.c:671:5
	b	.LBB2_13
.LBB2_8:
	.loc	3 674 5                         @ rt-thread/components/net/lwip-2.0.2/src/api/api_msg.c:674:5
	b	.LBB2_9
.LBB2_9:
.Ltmp50:
	.loc	3 674 5 is_stmt 0               @ rt-thread/components/net/lwip-2.0.2/src/api/api_msg.c:674:5
	b	.LBB2_10
.LBB2_10:
.Ltmp51:
	.loc	3 674 5                         @ rt-thread/components/net/lwip-2.0.2/src/api/api_msg.c:674:5
	movw	r0, :lower16:.L.str.1
	movt	r0, :upper16:.L.str.1
	bl	rt_kprintf
	movw	r0, :lower16:.L.str
	movt	r0, :upper16:.L.str
	movw	r1, #674
	bl	sys_arch_assert
	b	.LBB2_11
.Ltmp52:
.LBB2_11:
	.loc	3 674 5                         @ rt-thread/components/net/lwip-2.0.2/src/api/api_msg.c:674:5
	b	.LBB2_12
.Ltmp53:
.LBB2_12:
	.loc	3 675 5 is_stmt 1               @ rt-thread/components/net/lwip-2.0.2/src/api/api_msg.c:675:5
	b	.LBB2_18
.Ltmp54:
.LBB2_13:
	.loc	3 678 21                        @ rt-thread/components/net/lwip-2.0.2/src/api/api_msg.c:678:21
	ldr	r0, [sp, #8]
	.loc	3 678 27 is_stmt 0              @ rt-thread/components/net/lwip-2.0.2/src/api/api_msg.c:678:27
	adds	r0, #16
	.loc	3 678 37                        @ rt-thread/components/net/lwip-2.0.2/src/api/api_msg.c:678:37
	ldr	r1, [sp, #4]
	.loc	3 678 7                         @ rt-thread/components/net/lwip-2.0.2/src/api/api_msg.c:678:7
	bl	sys_mbox_new
.Ltmp55:
	.loc	3 678 7                         @ rt-thread/components/net/lwip-2.0.2/src/api/api_msg.c:678:7
	cbz	r0, .LBB2_15
	b	.LBB2_14
.LBB2_14:
.Ltmp56:
	.loc	3 679 5 is_stmt 1               @ rt-thread/components/net/lwip-2.0.2/src/api/api_msg.c:679:5
	b	.LBB2_18
.Ltmp57:
.LBB2_15:
	.loc	3 682 20                        @ rt-thread/components/net/lwip-2.0.2/src/api/api_msg.c:682:20
	ldr	r0, [sp, #8]
	.loc	3 682 26 is_stmt 0              @ rt-thread/components/net/lwip-2.0.2/src/api/api_msg.c:682:26
	adds	r0, #12
	movs	r1, #0
	.loc	3 682 7                         @ rt-thread/components/net/lwip-2.0.2/src/api/api_msg.c:682:7
	bl	sys_sem_new
.Ltmp58:
	.loc	3 682 7                         @ rt-thread/components/net/lwip-2.0.2/src/api/api_msg.c:682:7
	cbz	r0, .LBB2_17
	b	.LBB2_16
.LBB2_16:
.Ltmp59:
	.loc	3 683 20 is_stmt 1              @ rt-thread/components/net/lwip-2.0.2/src/api/api_msg.c:683:20
	ldr	r0, [sp, #8]
	.loc	3 683 26 is_stmt 0              @ rt-thread/components/net/lwip-2.0.2/src/api/api_msg.c:683:26
	adds	r0, #16
	.loc	3 683 5                         @ rt-thread/components/net/lwip-2.0.2/src/api/api_msg.c:683:5
	bl	sys_mbox_free
	.loc	3 684 5 is_stmt 1               @ rt-thread/components/net/lwip-2.0.2/src/api/api_msg.c:684:5
	b	.LBB2_18
.Ltmp60:
.LBB2_17:
	.loc	3 689 25                        @ rt-thread/components/net/lwip-2.0.2/src/api/api_msg.c:689:25
	ldr	r0, [sp, #8]
	.loc	3 689 31 is_stmt 0              @ rt-thread/components/net/lwip-2.0.2/src/api/api_msg.c:689:31
	adds	r0, #20
	.loc	3 689 3                         @ rt-thread/components/net/lwip-2.0.2/src/api/api_msg.c:689:3
	bl	sys_mbox_set_invalid
	.loc	3 691 3 is_stmt 1               @ rt-thread/components/net/lwip-2.0.2/src/api/api_msg.c:691:3
	ldr	r1, [sp, #8]
	movs	r0, #0
	.loc	3 691 22 is_stmt 0              @ rt-thread/components/net/lwip-2.0.2/src/api/api_msg.c:691:22
	strb	r0, [r1, #1]
	.loc	3 694 3 is_stmt 1               @ rt-thread/components/net/lwip-2.0.2/src/api/api_msg.c:694:3
	ldr	r2, [sp, #8]
	mov.w	r1, #-1
	.loc	3 694 22 is_stmt 0              @ rt-thread/components/net/lwip-2.0.2/src/api/api_msg.c:694:22
	str	r1, [r2, #24]
	.loc	3 696 24 is_stmt 1              @ rt-thread/components/net/lwip-2.0.2/src/api/api_msg.c:696:24
	ldr	r1, [sp, #12]
	.loc	3 696 3 is_stmt 0               @ rt-thread/components/net/lwip-2.0.2/src/api/api_msg.c:696:3
	ldr	r2, [sp, #8]
	.loc	3 696 22                        @ rt-thread/components/net/lwip-2.0.2/src/api/api_msg.c:696:22
	str	r1, [r2, #56]
	.loc	3 698 3 is_stmt 1               @ rt-thread/components/net/lwip-2.0.2/src/api/api_msg.c:698:3
	ldr	r1, [sp, #8]
	.loc	3 698 22 is_stmt 0              @ rt-thread/components/net/lwip-2.0.2/src/api/api_msg.c:698:22
	str	r0, [r1, #52]
	.loc	3 699 3 is_stmt 1               @ rt-thread/components/net/lwip-2.0.2/src/api/api_msg.c:699:3
	ldr	r1, [sp, #8]
	.loc	3 699 22 is_stmt 0              @ rt-thread/components/net/lwip-2.0.2/src/api/api_msg.c:699:22
	str	r0, [r1, #48]
	.loc	3 702 3 is_stmt 1               @ rt-thread/components/net/lwip-2.0.2/src/api/api_msg.c:702:3
	ldr	r1, [sp, #8]
	.loc	3 702 22 is_stmt 0              @ rt-thread/components/net/lwip-2.0.2/src/api/api_msg.c:702:22
	str	r0, [r1, #28]
	.loc	3 705 3 is_stmt 1               @ rt-thread/components/net/lwip-2.0.2/src/api/api_msg.c:705:3
	ldr	r1, [sp, #8]
	.loc	3 705 22 is_stmt 0              @ rt-thread/components/net/lwip-2.0.2/src/api/api_msg.c:705:22
	str	r0, [r1, #32]
	.loc	3 708 3 is_stmt 1               @ rt-thread/components/net/lwip-2.0.2/src/api/api_msg.c:708:3
	ldr	r2, [sp, #8]
	mov.w	r1, #8192
	.loc	3 708 22 is_stmt 0              @ rt-thread/components/net/lwip-2.0.2/src/api/api_msg.c:708:22
	str	r1, [r2, #36]
	.loc	3 709 3 is_stmt 1               @ rt-thread/components/net/lwip-2.0.2/src/api/api_msg.c:709:3
	ldr	r1, [sp, #8]
	.loc	3 709 22 is_stmt 0              @ rt-thread/components/net/lwip-2.0.2/src/api/api_msg.c:709:22
	str	r0, [r1, #40]
	.loc	3 714 3 is_stmt 1               @ rt-thread/components/net/lwip-2.0.2/src/api/api_msg.c:714:3
	ldr	r1, [sp, #8]
	.loc	3 714 15 is_stmt 0              @ rt-thread/components/net/lwip-2.0.2/src/api/api_msg.c:714:15
	strb.w	r0, [r1, #44]
	.loc	3 715 10 is_stmt 1              @ rt-thread/components/net/lwip-2.0.2/src/api/api_msg.c:715:10
	ldr	r0, [sp, #8]
	.loc	3 715 3 is_stmt 0               @ rt-thread/components/net/lwip-2.0.2/src/api/api_msg.c:715:3
	str	r0, [sp, #20]
	b	.LBB2_19
.LBB2_18:
.Ltmp61:
	@DEBUG_LABEL: netconn_alloc:free_and_return
	.loc	3 717 27 is_stmt 1              @ rt-thread/components/net/lwip-2.0.2/src/api/api_msg.c:717:27
	ldr	r1, [sp, #8]
	movs	r0, #6
	.loc	3 717 3 is_stmt 0               @ rt-thread/components/net/lwip-2.0.2/src/api/api_msg.c:717:3
	bl	memp_free
	movs	r0, #0
	.loc	3 718 3 is_stmt 1               @ rt-thread/components/net/lwip-2.0.2/src/api/api_msg.c:718:3
	str	r0, [sp, #20]
	b	.LBB2_19
.LBB2_19:
	.loc	3 719 1                         @ rt-thread/components/net/lwip-2.0.2/src/api/api_msg.c:719:1
	ldr	r0, [sp, #20]
	add	sp, #24
	pop	{r7, pc}
.Ltmp62:
.Lfunc_end2:
	.size	netconn_alloc, .Lfunc_end2-netconn_alloc
	.cfi_endproc
	.cantunwind
	.fnend
                                        @ -- End function
	.section	.text.netconn_free,"ax",%progbits
	.hidden	netconn_free                    @ -- Begin function netconn_free
	.globl	netconn_free
	.p2align	3
	.type	netconn_free,%function
	.code	16                              @ @netconn_free
	.thumb_func
netconn_free:
.Lfunc_begin3:
	.loc	3 729 0                         @ rt-thread/components/net/lwip-2.0.2/src/api/api_msg.c:729:0
	.fnstart
	.cfi_startproc
@ %bb.0:
	.save	{r7, lr}
	push	{r7, lr}
	.cfi_def_cfa_offset 8
	.cfi_offset lr, -4
	.cfi_offset r7, -8
	.pad	#8
	sub	sp, #8
	.cfi_def_cfa_offset 16
	str	r0, [sp, #4]
.Ltmp63:
	.loc	3 730 3 prologue_end            @ rt-thread/components/net/lwip-2.0.2/src/api/api_msg.c:730:3
	b	.LBB3_1
.LBB3_1:
.Ltmp64:
	.loc	3 730 3 is_stmt 0               @ rt-thread/components/net/lwip-2.0.2/src/api/api_msg.c:730:3
	ldr	r0, [sp, #4]
	ldr	r0, [r0, #4]
.Ltmp65:
	.loc	3 730 3                         @ rt-thread/components/net/lwip-2.0.2/src/api/api_msg.c:730:3
	cbz	r0, .LBB3_5
	b	.LBB3_2
.LBB3_2:
.Ltmp66:
	.loc	3 730 3                         @ rt-thread/components/net/lwip-2.0.2/src/api/api_msg.c:730:3
	b	.LBB3_3
.LBB3_3:
.Ltmp67:
	.loc	3 730 3                         @ rt-thread/components/net/lwip-2.0.2/src/api/api_msg.c:730:3
	movw	r0, :lower16:.L.str.2
	movt	r0, :upper16:.L.str.2
	bl	rt_kprintf
	movw	r0, :lower16:.L.str
	movt	r0, :upper16:.L.str
	movw	r1, #730
	bl	sys_arch_assert
	b	.LBB3_4
.Ltmp68:
.LBB3_4:
	.loc	3 730 3                         @ rt-thread/components/net/lwip-2.0.2/src/api/api_msg.c:730:3
	b	.LBB3_5
.Ltmp69:
.LBB3_5:
	.loc	3 730 3                         @ rt-thread/components/net/lwip-2.0.2/src/api/api_msg.c:730:3
	b	.LBB3_6
.Ltmp70:
.LBB3_6:
	.loc	3 731 3 is_stmt 1               @ rt-thread/components/net/lwip-2.0.2/src/api/api_msg.c:731:3
	b	.LBB3_7
.LBB3_7:
.Ltmp71:
	.loc	3 731 3 is_stmt 0               @ rt-thread/components/net/lwip-2.0.2/src/api/api_msg.c:731:3
	ldr	r0, [sp, #4]
	adds	r0, #16
	bl	sys_mbox_valid
.Ltmp72:
	.loc	3 731 3                         @ rt-thread/components/net/lwip-2.0.2/src/api/api_msg.c:731:3
	cbz	r0, .LBB3_11
	b	.LBB3_8
.LBB3_8:
.Ltmp73:
	.loc	3 731 3                         @ rt-thread/components/net/lwip-2.0.2/src/api/api_msg.c:731:3
	b	.LBB3_9
.LBB3_9:
.Ltmp74:
	.loc	3 731 3                         @ rt-thread/components/net/lwip-2.0.2/src/api/api_msg.c:731:3
	movw	r0, :lower16:.L.str.3
	movt	r0, :upper16:.L.str.3
	bl	rt_kprintf
	movw	r0, :lower16:.L.str
	movt	r0, :upper16:.L.str
	mov.w	r1, #732
	bl	sys_arch_assert
	b	.LBB3_10
.Ltmp75:
.LBB3_10:
	.loc	3 731 3                         @ rt-thread/components/net/lwip-2.0.2/src/api/api_msg.c:731:3
	b	.LBB3_11
.Ltmp76:
.LBB3_11:
	.loc	3 731 3                         @ rt-thread/components/net/lwip-2.0.2/src/api/api_msg.c:731:3
	b	.LBB3_12
.Ltmp77:
.LBB3_12:
	.loc	3 734 3 is_stmt 1               @ rt-thread/components/net/lwip-2.0.2/src/api/api_msg.c:734:3
	b	.LBB3_13
.LBB3_13:
.Ltmp78:
	.loc	3 734 3 is_stmt 0               @ rt-thread/components/net/lwip-2.0.2/src/api/api_msg.c:734:3
	ldr	r0, [sp, #4]
	adds	r0, #20
	bl	sys_mbox_valid
.Ltmp79:
	.loc	3 734 3                         @ rt-thread/components/net/lwip-2.0.2/src/api/api_msg.c:734:3
	cbz	r0, .LBB3_17
	b	.LBB3_14
.LBB3_14:
.Ltmp80:
	.loc	3 734 3                         @ rt-thread/components/net/lwip-2.0.2/src/api/api_msg.c:734:3
	b	.LBB3_15
.LBB3_15:
.Ltmp81:
	.loc	3 734 3                         @ rt-thread/components/net/lwip-2.0.2/src/api/api_msg.c:734:3
	movw	r0, :lower16:.L.str.4
	movt	r0, :upper16:.L.str.4
	bl	rt_kprintf
	movw	r0, :lower16:.L.str
	movt	r0, :upper16:.L.str
	movw	r1, #735
	bl	sys_arch_assert
	b	.LBB3_16
.Ltmp82:
.LBB3_16:
	.loc	3 734 3                         @ rt-thread/components/net/lwip-2.0.2/src/api/api_msg.c:734:3
	b	.LBB3_17
.Ltmp83:
.LBB3_17:
	.loc	3 734 3                         @ rt-thread/components/net/lwip-2.0.2/src/api/api_msg.c:734:3
	b	.LBB3_18
.Ltmp84:
.LBB3_18:
	.loc	3 739 17 is_stmt 1              @ rt-thread/components/net/lwip-2.0.2/src/api/api_msg.c:739:17
	ldr	r0, [sp, #4]
	.loc	3 739 23 is_stmt 0              @ rt-thread/components/net/lwip-2.0.2/src/api/api_msg.c:739:23
	adds	r0, #12
	.loc	3 739 3                         @ rt-thread/components/net/lwip-2.0.2/src/api/api_msg.c:739:3
	bl	sys_sem_free
	.loc	3 740 24 is_stmt 1              @ rt-thread/components/net/lwip-2.0.2/src/api/api_msg.c:740:24
	ldr	r0, [sp, #4]
	.loc	3 740 30 is_stmt 0              @ rt-thread/components/net/lwip-2.0.2/src/api/api_msg.c:740:30
	adds	r0, #12
	.loc	3 740 3                         @ rt-thread/components/net/lwip-2.0.2/src/api/api_msg.c:740:3
	bl	sys_sem_set_invalid
	.loc	3 743 27 is_stmt 1              @ rt-thread/components/net/lwip-2.0.2/src/api/api_msg.c:743:27
	ldr	r1, [sp, #4]
	movs	r0, #6
	.loc	3 743 3 is_stmt 0               @ rt-thread/components/net/lwip-2.0.2/src/api/api_msg.c:743:3
	bl	memp_free
	.loc	3 744 1 is_stmt 1               @ rt-thread/components/net/lwip-2.0.2/src/api/api_msg.c:744:1
	add	sp, #8
	pop	{r7, pc}
.Ltmp85:
.Lfunc_end3:
	.size	netconn_free, .Lfunc_end3-netconn_free
	.cfi_endproc
	.cantunwind
	.fnend
                                        @ -- End function
	.section	.text.lwip_netconn_do_delconn,"ax",%progbits
	.hidden	lwip_netconn_do_delconn         @ -- Begin function lwip_netconn_do_delconn
	.globl	lwip_netconn_do_delconn
	.p2align	3
	.type	lwip_netconn_do_delconn,%function
	.code	16                              @ @lwip_netconn_do_delconn
	.thumb_func
lwip_netconn_do_delconn:
.Lfunc_begin4:
	.loc	3 1014 0                        @ rt-thread/components/net/lwip-2.0.2/src/api/api_msg.c:1014:0
	.fnstart
	.cfi_startproc
@ %bb.0:
	.save	{r7, lr}
	push	{r7, lr}
	.cfi_def_cfa_offset 8
	.cfi_offset lr, -4
	.cfi_offset r7, -8
	.pad	#24
	sub	sp, #24
	.cfi_def_cfa_offset 32
	str	r0, [sp, #20]
.Ltmp86:
	.loc	3 1015 42 prologue_end          @ rt-thread/components/net/lwip-2.0.2/src/api/api_msg.c:1015:42
	ldr	r0, [sp, #20]
	.loc	3 1015 19 is_stmt 0             @ rt-thread/components/net/lwip-2.0.2/src/api/api_msg.c:1015:19
	str	r0, [sp, #16]
	.loc	3 1017 30 is_stmt 1             @ rt-thread/components/net/lwip-2.0.2/src/api/api_msg.c:1017:30
	ldr	r0, [sp, #16]
	.loc	3 1017 35 is_stmt 0             @ rt-thread/components/net/lwip-2.0.2/src/api/api_msg.c:1017:35
	ldr	r0, [r0]
	.loc	3 1017 41                       @ rt-thread/components/net/lwip-2.0.2/src/api/api_msg.c:1017:41
	ldrb	r0, [r0, #1]
	.loc	3 1017 22                       @ rt-thread/components/net/lwip-2.0.2/src/api/api_msg.c:1017:22
	strb.w	r0, [sp, #15]
	.loc	3 1018 3 is_stmt 1              @ rt-thread/components/net/lwip-2.0.2/src/api/api_msg.c:1018:3
	b	.LBB4_1
.LBB4_1:
.Ltmp87:
	.loc	3 1018 3 is_stmt 0              @ rt-thread/components/net/lwip-2.0.2/src/api/api_msg.c:1018:3
	ldrb.w	r0, [sp, #15]
	cbz	r0, .LBB4_6
	b	.LBB4_2
.LBB4_2:
	ldr	r0, [sp, #16]
	ldr	r0, [r0]
	ldrb	r0, [r0]
	and	r0, r0, #240
.Ltmp88:
	.loc	3 1018 3                        @ rt-thread/components/net/lwip-2.0.2/src/api/api_msg.c:1018:3
	cmp	r0, #16
	beq	.LBB4_6
	b	.LBB4_3
.LBB4_3:
.Ltmp89:
	.loc	3 1018 3                        @ rt-thread/components/net/lwip-2.0.2/src/api/api_msg.c:1018:3
	b	.LBB4_4
.LBB4_4:
.Ltmp90:
	.loc	3 1018 3                        @ rt-thread/components/net/lwip-2.0.2/src/api/api_msg.c:1018:3
	movw	r0, :lower16:.L.str.5
	movt	r0, :upper16:.L.str.5
	bl	rt_kprintf
	movw	r0, :lower16:.L.str
	movt	r0, :upper16:.L.str
	movw	r1, #1019
	bl	sys_arch_assert
	b	.LBB4_5
.Ltmp91:
.LBB4_5:
	.loc	3 1018 3                        @ rt-thread/components/net/lwip-2.0.2/src/api/api_msg.c:1018:3
	b	.LBB4_6
.Ltmp92:
.LBB4_6:
	.loc	3 1018 3                        @ rt-thread/components/net/lwip-2.0.2/src/api/api_msg.c:1018:3
	b	.LBB4_7
.Ltmp93:
.LBB4_7:
	.loc	3 1038 9 is_stmt 1              @ rt-thread/components/net/lwip-2.0.2/src/api/api_msg.c:1038:9
	ldrb.w	r0, [sp, #15]
	.loc	3 1038 32 is_stmt 0             @ rt-thread/components/net/lwip-2.0.2/src/api/api_msg.c:1038:32
	cbz	r0, .LBB4_10
	b	.LBB4_8
.LBB4_8:
	.loc	3 1039 9 is_stmt 1              @ rt-thread/components/net/lwip-2.0.2/src/api/api_msg.c:1039:9
	ldrb.w	r0, [sp, #15]
	.loc	3 1039 34 is_stmt 0             @ rt-thread/components/net/lwip-2.0.2/src/api/api_msg.c:1039:34
	cmp	r0, #2
	beq	.LBB4_10
	b	.LBB4_9
.LBB4_9:
	.loc	3 1040 9 is_stmt 1              @ rt-thread/components/net/lwip-2.0.2/src/api/api_msg.c:1040:9
	ldrb.w	r0, [sp, #15]
	.loc	3 1040 36 is_stmt 0             @ rt-thread/components/net/lwip-2.0.2/src/api/api_msg.c:1040:36
	cmp	r0, #3
	bne	.LBB4_12
	b	.LBB4_10
.LBB4_10:
	.loc	3 1041 9 is_stmt 1              @ rt-thread/components/net/lwip-2.0.2/src/api/api_msg.c:1041:9
	ldrb.w	r0, [sp, #15]
	.loc	3 1041 35 is_stmt 0             @ rt-thread/components/net/lwip-2.0.2/src/api/api_msg.c:1041:35
	cmp	r0, #3
	bne	.LBB4_13
	b	.LBB4_11
.LBB4_11:
	.loc	3 1041 39                       @ rt-thread/components/net/lwip-2.0.2/src/api/api_msg.c:1041:39
	ldr	r0, [sp, #16]
	ldr	r0, [r0]
	ldrb.w	r0, [r0, #44]
.Ltmp94:
	.loc	3 1038 7 is_stmt 1              @ rt-thread/components/net/lwip-2.0.2/src/api/api_msg.c:1038:7
	lsls	r0, r0, #29
	cmp	r0, #0
	bmi	.LBB4_13
	b	.LBB4_12
.LBB4_12:
.Ltmp95:
	.loc	3 1044 5                        @ rt-thread/components/net/lwip-2.0.2/src/api/api_msg.c:1044:5
	ldr	r1, [sp, #16]
	movs	r0, #251
	.loc	3 1044 14 is_stmt 0             @ rt-thread/components/net/lwip-2.0.2/src/api/api_msg.c:1044:14
	strb	r0, [r1, #4]
	.loc	3 1045 3 is_stmt 1              @ rt-thread/components/net/lwip-2.0.2/src/api/api_msg.c:1045:3
	b	.LBB4_55
.Ltmp96:
.LBB4_13:
	.loc	3 1048 5                        @ rt-thread/components/net/lwip-2.0.2/src/api/api_msg.c:1048:5
	b	.LBB4_14
.LBB4_14:
.Ltmp97:
	.loc	3 1048 5 is_stmt 0              @ rt-thread/components/net/lwip-2.0.2/src/api/api_msg.c:1048:5
	ldrb.w	r0, [sp, #15]
	cmp	r0, #3
	bne	.LBB4_19
	b	.LBB4_15
.LBB4_15:
	ldr	r0, [sp, #16]
	ldr	r0, [r0]
	ldrb.w	r0, [r0, #44]
.Ltmp98:
	.loc	3 1048 5                        @ rt-thread/components/net/lwip-2.0.2/src/api/api_msg.c:1048:5
	lsls	r0, r0, #29
	cmp	r0, #0
	bmi	.LBB4_19
	b	.LBB4_16
.LBB4_16:
.Ltmp99:
	.loc	3 1048 5                        @ rt-thread/components/net/lwip-2.0.2/src/api/api_msg.c:1048:5
	b	.LBB4_17
.LBB4_17:
.Ltmp100:
	.loc	3 1048 5                        @ rt-thread/components/net/lwip-2.0.2/src/api/api_msg.c:1048:5
	movw	r0, :lower16:.L.str.6
	movt	r0, :upper16:.L.str.6
	bl	rt_kprintf
	movw	r0, :lower16:.L.str
	movt	r0, :upper16:.L.str
	movw	r1, #1049
	bl	sys_arch_assert
	b	.LBB4_18
.Ltmp101:
.LBB4_18:
	.loc	3 1048 5                        @ rt-thread/components/net/lwip-2.0.2/src/api/api_msg.c:1048:5
	b	.LBB4_19
.Ltmp102:
.LBB4_19:
	.loc	3 1048 5                        @ rt-thread/components/net/lwip-2.0.2/src/api/api_msg.c:1048:5
	b	.LBB4_20
.Ltmp103:
.LBB4_20:
	.loc	3 1050 5 is_stmt 1              @ rt-thread/components/net/lwip-2.0.2/src/api/api_msg.c:1050:5
	ldr	r1, [sp, #16]
	movs	r0, #0
	.loc	3 1050 14 is_stmt 0             @ rt-thread/components/net/lwip-2.0.2/src/api/api_msg.c:1050:14
	strb	r0, [r1, #4]
	.loc	3 1052 19 is_stmt 1             @ rt-thread/components/net/lwip-2.0.2/src/api/api_msg.c:1052:19
	ldr	r0, [sp, #16]
	.loc	3 1052 24 is_stmt 0             @ rt-thread/components/net/lwip-2.0.2/src/api/api_msg.c:1052:24
	ldr	r0, [r0]
	.loc	3 1052 5                        @ rt-thread/components/net/lwip-2.0.2/src/api/api_msg.c:1052:5
	bl	netconn_drain
.Ltmp104:
	.loc	3 1054 9 is_stmt 1              @ rt-thread/components/net/lwip-2.0.2/src/api/api_msg.c:1054:9
	ldr	r0, [sp, #16]
	.loc	3 1054 14 is_stmt 0             @ rt-thread/components/net/lwip-2.0.2/src/api/api_msg.c:1054:14
	ldr	r0, [r0]
	.loc	3 1054 24                       @ rt-thread/components/net/lwip-2.0.2/src/api/api_msg.c:1054:24
	ldr	r0, [r0, #4]
.Ltmp105:
	.loc	3 1054 9                        @ rt-thread/components/net/lwip-2.0.2/src/api/api_msg.c:1054:9
	cmp	r0, #0
	beq.w	.LBB4_50
	b	.LBB4_21
.LBB4_21:
.Ltmp106:
	.loc	3 1056 15 is_stmt 1             @ rt-thread/components/net/lwip-2.0.2/src/api/api_msg.c:1056:15
	ldr	r0, [sp, #16]
	ldr	r0, [r0]
	ldrb	r0, [r0]
	and	r0, r0, #240
	.loc	3 1056 7 is_stmt 0              @ rt-thread/components/net/lwip-2.0.2/src/api/api_msg.c:1056:7
	mov	r1, r0
	str	r1, [sp, #8]                    @ 4-byte Spill
	cmp	r0, #16
	beq	.LBB4_26
	b	.LBB4_22
.LBB4_22:
	ldr	r0, [sp, #8]                    @ 4-byte Reload
	cmp	r0, #32
	beq	.LBB4_25
	b	.LBB4_23
.LBB4_23:
	ldr	r0, [sp, #8]                    @ 4-byte Reload
	cmp	r0, #64
	bne.w	.LBB4_48
	b	.LBB4_24
.LBB4_24:
.Ltmp107:
	.loc	3 1059 20 is_stmt 1             @ rt-thread/components/net/lwip-2.0.2/src/api/api_msg.c:1059:20
	ldr	r0, [sp, #16]
	.loc	3 1059 25 is_stmt 0             @ rt-thread/components/net/lwip-2.0.2/src/api/api_msg.c:1059:25
	ldr	r0, [r0]
	.loc	3 1059 35                       @ rt-thread/components/net/lwip-2.0.2/src/api/api_msg.c:1059:35
	ldr	r0, [r0, #4]
	.loc	3 1059 9                        @ rt-thread/components/net/lwip-2.0.2/src/api/api_msg.c:1059:9
	bl	raw_remove
	.loc	3 1060 9 is_stmt 1              @ rt-thread/components/net/lwip-2.0.2/src/api/api_msg.c:1060:9
	b	.LBB4_49
.LBB4_25:
	.loc	3 1064 9                        @ rt-thread/components/net/lwip-2.0.2/src/api/api_msg.c:1064:9
	ldr	r0, [sp, #16]
	.loc	3 1064 14 is_stmt 0             @ rt-thread/components/net/lwip-2.0.2/src/api/api_msg.c:1064:14
	ldr	r0, [r0]
	.loc	3 1064 24                       @ rt-thread/components/net/lwip-2.0.2/src/api/api_msg.c:1064:24
	ldr	r1, [r0, #4]
	movs	r0, #0
	.loc	3 1064 38                       @ rt-thread/components/net/lwip-2.0.2/src/api/api_msg.c:1064:38
	str	r0, [r1, #36]
	.loc	3 1065 20 is_stmt 1             @ rt-thread/components/net/lwip-2.0.2/src/api/api_msg.c:1065:20
	ldr	r0, [sp, #16]
	.loc	3 1065 25 is_stmt 0             @ rt-thread/components/net/lwip-2.0.2/src/api/api_msg.c:1065:25
	ldr	r0, [r0]
	.loc	3 1065 35                       @ rt-thread/components/net/lwip-2.0.2/src/api/api_msg.c:1065:35
	ldr	r0, [r0, #4]
	.loc	3 1065 9                        @ rt-thread/components/net/lwip-2.0.2/src/api/api_msg.c:1065:9
	bl	udp_remove
	.loc	3 1066 9 is_stmt 1              @ rt-thread/components/net/lwip-2.0.2/src/api/api_msg.c:1066:9
	b	.LBB4_49
.LBB4_26:
	.loc	3 1070 9                        @ rt-thread/components/net/lwip-2.0.2/src/api/api_msg.c:1070:9
	b	.LBB4_27
.LBB4_27:
.Ltmp108:
	.loc	3 1070 9 is_stmt 0              @ rt-thread/components/net/lwip-2.0.2/src/api/api_msg.c:1070:9
	ldr	r0, [sp, #16]
	ldr	r0, [r0]
	ldr	r0, [r0, #52]
	cbnz	r0, .LBB4_29
	b	.LBB4_28
.LBB4_28:
	ldr	r0, [sp, #16]
	ldr	r0, [r0]
	ldr	r0, [r0, #48]
.Ltmp109:
	.loc	3 1070 9                        @ rt-thread/components/net/lwip-2.0.2/src/api/api_msg.c:1070:9
	cbz	r0, .LBB4_32
	b	.LBB4_29
.LBB4_29:
.Ltmp110:
	.loc	3 1070 9                        @ rt-thread/components/net/lwip-2.0.2/src/api/api_msg.c:1070:9
	b	.LBB4_30
.LBB4_30:
.Ltmp111:
	.loc	3 1070 9                        @ rt-thread/components/net/lwip-2.0.2/src/api/api_msg.c:1070:9
	movw	r0, :lower16:.L.str.7
	movt	r0, :upper16:.L.str.7
	bl	rt_kprintf
	movw	r0, :lower16:.L.str
	movt	r0, :upper16:.L.str
	movw	r1, #1071
	bl	sys_arch_assert
	b	.LBB4_31
.Ltmp112:
.LBB4_31:
	.loc	3 1070 9                        @ rt-thread/components/net/lwip-2.0.2/src/api/api_msg.c:1070:9
	b	.LBB4_32
.Ltmp113:
.LBB4_32:
	.loc	3 1070 9                        @ rt-thread/components/net/lwip-2.0.2/src/api/api_msg.c:1070:9
	b	.LBB4_33
.Ltmp114:
.LBB4_33:
	.loc	3 1072 9 is_stmt 1              @ rt-thread/components/net/lwip-2.0.2/src/api/api_msg.c:1072:9
	ldr	r0, [sp, #16]
	.loc	3 1072 14 is_stmt 0             @ rt-thread/components/net/lwip-2.0.2/src/api/api_msg.c:1072:14
	ldr	r1, [r0]
	movs	r0, #4
	.loc	3 1072 26                       @ rt-thread/components/net/lwip-2.0.2/src/api/api_msg.c:1072:26
	strb	r0, [r1, #1]
	.loc	3 1073 9 is_stmt 1              @ rt-thread/components/net/lwip-2.0.2/src/api/api_msg.c:1073:9
	ldr	r1, [sp, #16]
	movs	r0, #3
	.loc	3 1073 26 is_stmt 0             @ rt-thread/components/net/lwip-2.0.2/src/api/api_msg.c:1073:26
	strb	r0, [r1, #8]
	.loc	3 1074 34 is_stmt 1             @ rt-thread/components/net/lwip-2.0.2/src/api/api_msg.c:1074:34
	ldr	r0, [sp, #16]
	.loc	3 1074 14 is_stmt 0             @ rt-thread/components/net/lwip-2.0.2/src/api/api_msg.c:1074:14
	ldr	r1, [r0]
	.loc	3 1074 32                       @ rt-thread/components/net/lwip-2.0.2/src/api/api_msg.c:1074:32
	str	r0, [r1, #52]
.Ltmp115:
	.loc	3 1076 44 is_stmt 1             @ rt-thread/components/net/lwip-2.0.2/src/api/api_msg.c:1076:44
	ldr	r0, [sp, #16]
	.loc	3 1076 49 is_stmt 0             @ rt-thread/components/net/lwip-2.0.2/src/api/api_msg.c:1076:49
	ldr	r0, [r0]
	movs	r1, #0
	.loc	3 1076 13                       @ rt-thread/components/net/lwip-2.0.2/src/api/api_msg.c:1076:13
	bl	lwip_netconn_do_close_internal
.Ltmp116:
	.loc	3 1076 13                       @ rt-thread/components/net/lwip-2.0.2/src/api/api_msg.c:1076:13
	cmp	r0, #0
	beq	.LBB4_47
	b	.LBB4_34
.LBB4_34:
.Ltmp117:
	.loc	3 1077 11 is_stmt 1             @ rt-thread/components/net/lwip-2.0.2/src/api/api_msg.c:1077:11
	b	.LBB4_35
.LBB4_35:
.Ltmp118:
	.loc	3 1077 11 is_stmt 0             @ rt-thread/components/net/lwip-2.0.2/src/api/api_msg.c:1077:11
	ldr	r0, [sp, #16]
	ldr	r0, [r0]
	ldrb	r0, [r0, #1]
.Ltmp119:
	.loc	3 1077 11                       @ rt-thread/components/net/lwip-2.0.2/src/api/api_msg.c:1077:11
	cmp	r0, #4
	beq	.LBB4_39
	b	.LBB4_36
.LBB4_36:
.Ltmp120:
	.loc	3 1077 11                       @ rt-thread/components/net/lwip-2.0.2/src/api/api_msg.c:1077:11
	b	.LBB4_37
.LBB4_37:
.Ltmp121:
	.loc	3 1077 11                       @ rt-thread/components/net/lwip-2.0.2/src/api/api_msg.c:1077:11
	movw	r0, :lower16:.L.str.8
	movt	r0, :upper16:.L.str.8
	bl	rt_kprintf
	movw	r0, :lower16:.L.str
	movt	r0, :upper16:.L.str
	movw	r1, #1077
	bl	sys_arch_assert
	b	.LBB4_38
.Ltmp122:
.LBB4_38:
	.loc	3 1077 11                       @ rt-thread/components/net/lwip-2.0.2/src/api/api_msg.c:1077:11
	b	.LBB4_39
.Ltmp123:
.LBB4_39:
	.loc	3 1077 11                       @ rt-thread/components/net/lwip-2.0.2/src/api/api_msg.c:1077:11
	b	.LBB4_40
.Ltmp124:
.LBB4_40:
	.loc	3 1078 11 is_stmt 1             @ rt-thread/components/net/lwip-2.0.2/src/api/api_msg.c:1078:11
	movw	r0, :lower16:lock_tcpip_core
	movt	r0, :upper16:lock_tcpip_core
	str	r0, [sp, #4]                    @ 4-byte Spill
	bl	sys_mutex_unlock
	.loc	3 1079 29                       @ rt-thread/components/net/lwip-2.0.2/src/api/api_msg.c:1079:29
	ldr	r0, [sp, #16]
	ldr	r0, [r0]
	adds	r0, #12
	movs	r1, #0
	.loc	3 1079 11 is_stmt 0             @ rt-thread/components/net/lwip-2.0.2/src/api/api_msg.c:1079:11
	bl	sys_arch_sem_wait
                                        @ kill: def $r1 killed $r0
	.loc	3 1080 11 is_stmt 1             @ rt-thread/components/net/lwip-2.0.2/src/api/api_msg.c:1080:11
	ldr	r0, [sp, #4]                    @ 4-byte Reload
	bl	sys_mutex_lock
	.loc	3 1081 11                       @ rt-thread/components/net/lwip-2.0.2/src/api/api_msg.c:1081:11
	b	.LBB4_41
.LBB4_41:
.Ltmp125:
	.loc	3 1081 11 is_stmt 0             @ rt-thread/components/net/lwip-2.0.2/src/api/api_msg.c:1081:11
	ldr	r0, [sp, #16]
	ldr	r0, [r0]
	ldrb	r0, [r0, #1]
.Ltmp126:
	.loc	3 1081 11                       @ rt-thread/components/net/lwip-2.0.2/src/api/api_msg.c:1081:11
	cbz	r0, .LBB4_45
	b	.LBB4_42
.LBB4_42:
.Ltmp127:
	.loc	3 1081 11                       @ rt-thread/components/net/lwip-2.0.2/src/api/api_msg.c:1081:11
	b	.LBB4_43
.LBB4_43:
.Ltmp128:
	.loc	3 1081 11                       @ rt-thread/components/net/lwip-2.0.2/src/api/api_msg.c:1081:11
	movw	r0, :lower16:.L.str.8
	movt	r0, :upper16:.L.str.8
	bl	rt_kprintf
	movw	r0, :lower16:.L.str
	movt	r0, :upper16:.L.str
	movw	r1, #1081
	bl	sys_arch_assert
	b	.LBB4_44
.Ltmp129:
.LBB4_44:
	.loc	3 1081 11                       @ rt-thread/components/net/lwip-2.0.2/src/api/api_msg.c:1081:11
	b	.LBB4_45
.Ltmp130:
.LBB4_45:
	.loc	3 1081 11                       @ rt-thread/components/net/lwip-2.0.2/src/api/api_msg.c:1081:11
	b	.LBB4_46
.Ltmp131:
.LBB4_46:
	.loc	3 1082 9 is_stmt 1              @ rt-thread/components/net/lwip-2.0.2/src/api/api_msg.c:1082:9
	b	.LBB4_47
.Ltmp132:
.LBB4_47:
	.loc	3 1088 9                        @ rt-thread/components/net/lwip-2.0.2/src/api/api_msg.c:1088:9
	b	.LBB4_63
.LBB4_48:
	.loc	3 1091 9                        @ rt-thread/components/net/lwip-2.0.2/src/api/api_msg.c:1091:9
	b	.LBB4_49
.Ltmp133:
.LBB4_49:
	.loc	3 1093 7                        @ rt-thread/components/net/lwip-2.0.2/src/api/api_msg.c:1093:7
	ldr	r0, [sp, #16]
	.loc	3 1093 12 is_stmt 0             @ rt-thread/components/net/lwip-2.0.2/src/api/api_msg.c:1093:12
	ldr	r1, [r0]
	movs	r0, #0
	.loc	3 1093 26                       @ rt-thread/components/net/lwip-2.0.2/src/api/api_msg.c:1093:26
	str	r0, [r1, #4]
	.loc	3 1094 5 is_stmt 1              @ rt-thread/components/net/lwip-2.0.2/src/api/api_msg.c:1094:5
	b	.LBB4_50
.Ltmp134:
.LBB4_50:
	.loc	3 1099 5                        @ rt-thread/components/net/lwip-2.0.2/src/api/api_msg.c:1099:5
	ldr	r0, [sp, #16]
	ldr	r0, [r0]
	ldr	r0, [r0, #56]
.Ltmp135:
	.loc	3 1099 5 is_stmt 0              @ rt-thread/components/net/lwip-2.0.2/src/api/api_msg.c:1099:5
	cbz	r0, .LBB4_52
	b	.LBB4_51
.LBB4_51:
.Ltmp136:
	.loc	3 1099 5                        @ rt-thread/components/net/lwip-2.0.2/src/api/api_msg.c:1099:5
	ldr	r0, [sp, #16]
	ldr	r0, [r0]
	ldr	r3, [r0, #56]
	movs	r2, #0
	mov	r1, r2
	blx	r3
	b	.LBB4_52
.Ltmp137:
.LBB4_52:
	.loc	3 1100 5 is_stmt 1              @ rt-thread/components/net/lwip-2.0.2/src/api/api_msg.c:1100:5
	ldr	r0, [sp, #16]
	ldr	r0, [r0]
	ldr	r0, [r0, #56]
.Ltmp138:
	.loc	3 1100 5 is_stmt 0              @ rt-thread/components/net/lwip-2.0.2/src/api/api_msg.c:1100:5
	cbz	r0, .LBB4_54
	b	.LBB4_53
.LBB4_53:
.Ltmp139:
	.loc	3 1100 5                        @ rt-thread/components/net/lwip-2.0.2/src/api/api_msg.c:1100:5
	ldr	r0, [sp, #16]
	ldr	r0, [r0]
	ldr	r3, [r0, #56]
	movs	r1, #2
	movs	r2, #0
	blx	r3
	b	.LBB4_54
.Ltmp140:
.LBB4_54:
	.loc	3 0 5                           @ rt-thread/components/net/lwip-2.0.2/src/api/api_msg.c:0:5
	b	.LBB4_55
.LBB4_55:
.Ltmp141:
	.loc	3 1102 21 is_stmt 1             @ rt-thread/components/net/lwip-2.0.2/src/api/api_msg.c:1102:21
	ldr	r0, [sp, #16]
	ldr	r0, [r0]
	adds	r0, #12
	.loc	3 1102 7 is_stmt 0              @ rt-thread/components/net/lwip-2.0.2/src/api/api_msg.c:1102:7
	bl	sys_sem_valid
.Ltmp142:
	.loc	3 1102 7                        @ rt-thread/components/net/lwip-2.0.2/src/api/api_msg.c:1102:7
	cbz	r0, .LBB4_63
	b	.LBB4_56
.LBB4_56:
.Ltmp143:
	.loc	3 1103 5 is_stmt 1              @ rt-thread/components/net/lwip-2.0.2/src/api/api_msg.c:1103:5
	b	.LBB4_57
.LBB4_57:
.Ltmp144:
	.loc	3 1103 5 is_stmt 0              @ rt-thread/components/net/lwip-2.0.2/src/api/api_msg.c:1103:5
	ldr	r0, [sp, #16]
	ldr	r0, [r0]
.Ltmp145:
	.loc	3 1103 5                        @ rt-thread/components/net/lwip-2.0.2/src/api/api_msg.c:1103:5
	cbz	r0, .LBB4_61
	b	.LBB4_58
.LBB4_58:
.Ltmp146:
	.loc	3 1103 5                        @ rt-thread/components/net/lwip-2.0.2/src/api/api_msg.c:1103:5
	bl	rt_enter_critical
.Ltmp147:
	.loc	3 1103 5                        @ rt-thread/components/net/lwip-2.0.2/src/api/api_msg.c:1103:5
	ldr	r0, [sp, #16]
	ldr	r0, [r0]
	ldrsb.w	r0, [r0, #8]
.Ltmp148:
	.loc	3 1103 5                        @ rt-thread/components/net/lwip-2.0.2/src/api/api_msg.c:1103:5
	cmn.w	r0, #12
	blt	.LBB4_60
	b	.LBB4_59
.LBB4_59:
.Ltmp149:
	.loc	3 1103 5                        @ rt-thread/components/net/lwip-2.0.2/src/api/api_msg.c:1103:5
	ldr	r1, [sp, #16]
	ldrb	r0, [r1, #4]
	ldr	r1, [r1]
	strb	r0, [r1, #8]
	b	.LBB4_60
.Ltmp150:
.LBB4_60:
	.loc	3 1103 5                        @ rt-thread/components/net/lwip-2.0.2/src/api/api_msg.c:1103:5
	bl	rt_exit_critical
	b	.LBB4_61
.Ltmp151:
.LBB4_61:
	.loc	3 1103 5                        @ rt-thread/components/net/lwip-2.0.2/src/api/api_msg.c:1103:5
	b	.LBB4_62
.Ltmp152:
.LBB4_62:
	.loc	3 1104 3 is_stmt 1              @ rt-thread/components/net/lwip-2.0.2/src/api/api_msg.c:1104:3
	b	.LBB4_63
.Ltmp153:
.LBB4_63:
	.loc	3 1105 1                        @ rt-thread/components/net/lwip-2.0.2/src/api/api_msg.c:1105:1
	add	sp, #24
	pop	{r7, pc}
.Ltmp154:
.Lfunc_end4:
	.size	lwip_netconn_do_delconn, .Lfunc_end4-lwip_netconn_do_delconn
	.cfi_endproc
	.cantunwind
	.fnend
                                        @ -- End function
	.section	.text.netconn_drain,"ax",%progbits
	.p2align	3                               @ -- Begin function netconn_drain
	.type	netconn_drain,%function
	.code	16                              @ @netconn_drain
	.thumb_func
netconn_drain:
.Lfunc_begin5:
	.loc	3 756 0                         @ rt-thread/components/net/lwip-2.0.2/src/api/api_msg.c:756:0
	.fnstart
	.cfi_startproc
@ %bb.0:
	.save	{r7, lr}
	push	{r7, lr}
	.cfi_def_cfa_offset 8
	.cfi_offset lr, -4
	.cfi_offset r7, -8
	.pad	#16
	sub	sp, #16
	.cfi_def_cfa_offset 24
	str	r0, [sp, #12]
.Ltmp155:
	.loc	3 765 23 prologue_end           @ rt-thread/components/net/lwip-2.0.2/src/api/api_msg.c:765:23
	ldr	r0, [sp, #12]
	.loc	3 765 29 is_stmt 0              @ rt-thread/components/net/lwip-2.0.2/src/api/api_msg.c:765:29
	adds	r0, #16
	.loc	3 765 7                         @ rt-thread/components/net/lwip-2.0.2/src/api/api_msg.c:765:7
	bl	sys_mbox_valid
.Ltmp156:
	.loc	3 765 7                         @ rt-thread/components/net/lwip-2.0.2/src/api/api_msg.c:765:7
	cbz	r0, .LBB5_12
	b	.LBB5_1
.LBB5_1:
.Ltmp157:
	.loc	3 766 5 is_stmt 1               @ rt-thread/components/net/lwip-2.0.2/src/api/api_msg.c:766:5
	b	.LBB5_2
.LBB5_2:                                @ =>This Inner Loop Header: Depth=1
	.loc	3 766 12 is_stmt 0              @ rt-thread/components/net/lwip-2.0.2/src/api/api_msg.c:766:12
	ldr	r0, [sp, #12]
	adds	r0, #16
	add	r1, sp, #8
	bl	sys_arch_mbox_tryfetch
	.loc	3 766 5                         @ rt-thread/components/net/lwip-2.0.2/src/api/api_msg.c:766:5
	adds	r0, #1
	cbz	r0, .LBB5_11
	b	.LBB5_3
.LBB5_3:                                @   in Loop: Header=BB5_2 Depth=1
.Ltmp158:
	.loc	3 768 11 is_stmt 1              @ rt-thread/components/net/lwip-2.0.2/src/api/api_msg.c:768:11
	ldr	r0, [sp, #12]
	ldrb	r0, [r0]
	and	r0, r0, #240
.Ltmp159:
	.loc	3 768 11 is_stmt 0              @ rt-thread/components/net/lwip-2.0.2/src/api/api_msg.c:768:11
	cmp	r0, #16
	bne	.LBB5_9
	b	.LBB5_4
.LBB5_4:                                @   in Loop: Header=BB5_2 Depth=1
.Ltmp160:
	.loc	3 769 13 is_stmt 1              @ rt-thread/components/net/lwip-2.0.2/src/api/api_msg.c:769:13
	ldr	r0, [sp, #8]
.Ltmp161:
	.loc	3 769 13 is_stmt 0              @ rt-thread/components/net/lwip-2.0.2/src/api/api_msg.c:769:13
	cbz	r0, .LBB5_8
	b	.LBB5_5
.LBB5_5:                                @   in Loop: Header=BB5_2 Depth=1
.Ltmp162:
	.loc	3 770 29 is_stmt 1              @ rt-thread/components/net/lwip-2.0.2/src/api/api_msg.c:770:29
	ldr	r0, [sp, #8]
	.loc	3 770 13 is_stmt 0              @ rt-thread/components/net/lwip-2.0.2/src/api/api_msg.c:770:13
	str	r0, [sp, #4]
.Ltmp163:
	.loc	3 772 15 is_stmt 1              @ rt-thread/components/net/lwip-2.0.2/src/api/api_msg.c:772:15
	ldr	r0, [sp, #12]
	.loc	3 772 25 is_stmt 0              @ rt-thread/components/net/lwip-2.0.2/src/api/api_msg.c:772:25
	ldr	r0, [r0, #4]
.Ltmp164:
	.loc	3 772 15                        @ rt-thread/components/net/lwip-2.0.2/src/api/api_msg.c:772:15
	cbz	r0, .LBB5_7
	b	.LBB5_6
.LBB5_6:                                @   in Loop: Header=BB5_2 Depth=1
.Ltmp165:
	.loc	3 773 24 is_stmt 1              @ rt-thread/components/net/lwip-2.0.2/src/api/api_msg.c:773:24
	ldr	r0, [sp, #12]
	.loc	3 773 34 is_stmt 0              @ rt-thread/components/net/lwip-2.0.2/src/api/api_msg.c:773:34
	ldr	r0, [r0, #4]
	.loc	3 773 39                        @ rt-thread/components/net/lwip-2.0.2/src/api/api_msg.c:773:39
	ldr	r1, [sp, #4]
	.loc	3 773 42                        @ rt-thread/components/net/lwip-2.0.2/src/api/api_msg.c:773:42
	ldrh	r1, [r1, #8]
	.loc	3 773 13                        @ rt-thread/components/net/lwip-2.0.2/src/api/api_msg.c:773:13
	bl	tcp_recved
	.loc	3 774 11 is_stmt 1              @ rt-thread/components/net/lwip-2.0.2/src/api/api_msg.c:774:11
	b	.LBB5_7
.Ltmp166:
.LBB5_7:                                @   in Loop: Header=BB5_2 Depth=1
	.loc	3 775 21                        @ rt-thread/components/net/lwip-2.0.2/src/api/api_msg.c:775:21
	ldr	r0, [sp, #4]
	.loc	3 775 11 is_stmt 0              @ rt-thread/components/net/lwip-2.0.2/src/api/api_msg.c:775:11
	bl	pbuf_free
	.loc	3 776 9 is_stmt 1               @ rt-thread/components/net/lwip-2.0.2/src/api/api_msg.c:776:9
	b	.LBB5_8
.Ltmp167:
.LBB5_8:                                @   in Loop: Header=BB5_2 Depth=1
	.loc	3 777 7                         @ rt-thread/components/net/lwip-2.0.2/src/api/api_msg.c:777:7
	b	.LBB5_10
.Ltmp168:
.LBB5_9:                                @   in Loop: Header=BB5_2 Depth=1
	.loc	3 780 40                        @ rt-thread/components/net/lwip-2.0.2/src/api/api_msg.c:780:40
	ldr	r0, [sp, #8]
	.loc	3 780 9 is_stmt 0               @ rt-thread/components/net/lwip-2.0.2/src/api/api_msg.c:780:9
	bl	netbuf_delete
	b	.LBB5_10
.Ltmp169:
.LBB5_10:                               @   in Loop: Header=BB5_2 Depth=1
	.loc	3 766 5 is_stmt 1               @ rt-thread/components/net/lwip-2.0.2/src/api/api_msg.c:766:5
	b	.LBB5_2
.LBB5_11:
	.loc	3 783 20                        @ rt-thread/components/net/lwip-2.0.2/src/api/api_msg.c:783:20
	ldr	r0, [sp, #12]
	.loc	3 783 26 is_stmt 0              @ rt-thread/components/net/lwip-2.0.2/src/api/api_msg.c:783:26
	adds	r0, #16
	.loc	3 783 5                         @ rt-thread/components/net/lwip-2.0.2/src/api/api_msg.c:783:5
	bl	sys_mbox_free
	.loc	3 784 27 is_stmt 1              @ rt-thread/components/net/lwip-2.0.2/src/api/api_msg.c:784:27
	ldr	r0, [sp, #12]
	.loc	3 784 33 is_stmt 0              @ rt-thread/components/net/lwip-2.0.2/src/api/api_msg.c:784:33
	adds	r0, #16
	.loc	3 784 5                         @ rt-thread/components/net/lwip-2.0.2/src/api/api_msg.c:784:5
	bl	sys_mbox_set_invalid
	.loc	3 785 3 is_stmt 1               @ rt-thread/components/net/lwip-2.0.2/src/api/api_msg.c:785:3
	b	.LBB5_12
.Ltmp170:
.LBB5_12:
	.loc	3 789 23                        @ rt-thread/components/net/lwip-2.0.2/src/api/api_msg.c:789:23
	ldr	r0, [sp, #12]
	.loc	3 789 29 is_stmt 0              @ rt-thread/components/net/lwip-2.0.2/src/api/api_msg.c:789:29
	adds	r0, #20
	.loc	3 789 7                         @ rt-thread/components/net/lwip-2.0.2/src/api/api_msg.c:789:7
	bl	sys_mbox_valid
.Ltmp171:
	.loc	3 789 7                         @ rt-thread/components/net/lwip-2.0.2/src/api/api_msg.c:789:7
	cbz	r0, .LBB5_21
	b	.LBB5_13
.LBB5_13:
.Ltmp172:
	.loc	3 790 5 is_stmt 1               @ rt-thread/components/net/lwip-2.0.2/src/api/api_msg.c:790:5
	b	.LBB5_14
.LBB5_14:                               @ =>This Inner Loop Header: Depth=1
	.loc	3 790 12 is_stmt 0              @ rt-thread/components/net/lwip-2.0.2/src/api/api_msg.c:790:12
	ldr	r0, [sp, #12]
	adds	r0, #20
	add	r1, sp, #8
	bl	sys_arch_mbox_tryfetch
	.loc	3 790 5                         @ rt-thread/components/net/lwip-2.0.2/src/api/api_msg.c:790:5
	adds	r0, #1
	cbz	r0, .LBB5_20
	b	.LBB5_15
.LBB5_15:                               @   in Loop: Header=BB5_14 Depth=1
.Ltmp173:
	.loc	3 791 11 is_stmt 1              @ rt-thread/components/net/lwip-2.0.2/src/api/api_msg.c:791:11
	ldr	r0, [sp, #8]
	.loc	3 791 15 is_stmt 0              @ rt-thread/components/net/lwip-2.0.2/src/api/api_msg.c:791:15
	movw	r1, :lower16:netconn_aborted
	movt	r1, :upper16:netconn_aborted
.Ltmp174:
	.loc	3 791 11                        @ rt-thread/components/net/lwip-2.0.2/src/api/api_msg.c:791:11
	cmp	r0, r1
	beq	.LBB5_19
	b	.LBB5_16
.LBB5_16:                               @   in Loop: Header=BB5_14 Depth=1
.Ltmp175:
	.loc	3 792 53 is_stmt 1              @ rt-thread/components/net/lwip-2.0.2/src/api/api_msg.c:792:53
	ldr	r0, [sp, #8]
	.loc	3 792 25 is_stmt 0              @ rt-thread/components/net/lwip-2.0.2/src/api/api_msg.c:792:25
	str	r0, [sp]
	.loc	3 796 23 is_stmt 1              @ rt-thread/components/net/lwip-2.0.2/src/api/api_msg.c:796:23
	ldr	r0, [sp]
	.loc	3 796 9 is_stmt 0               @ rt-thread/components/net/lwip-2.0.2/src/api/api_msg.c:796:9
	bl	netconn_drain
.Ltmp176:
	.loc	3 797 13 is_stmt 1              @ rt-thread/components/net/lwip-2.0.2/src/api/api_msg.c:797:13
	ldr	r0, [sp]
	.loc	3 797 26 is_stmt 0              @ rt-thread/components/net/lwip-2.0.2/src/api/api_msg.c:797:26
	ldr	r0, [r0, #4]
.Ltmp177:
	.loc	3 797 13                        @ rt-thread/components/net/lwip-2.0.2/src/api/api_msg.c:797:13
	cbz	r0, .LBB5_18
	b	.LBB5_17
.LBB5_17:                               @   in Loop: Header=BB5_14 Depth=1
.Ltmp178:
	.loc	3 798 21 is_stmt 1              @ rt-thread/components/net/lwip-2.0.2/src/api/api_msg.c:798:21
	ldr	r0, [sp]
	.loc	3 798 34 is_stmt 0              @ rt-thread/components/net/lwip-2.0.2/src/api/api_msg.c:798:34
	ldr	r0, [r0, #4]
	.loc	3 798 11                        @ rt-thread/components/net/lwip-2.0.2/src/api/api_msg.c:798:11
	bl	tcp_abort
	.loc	3 799 11 is_stmt 1              @ rt-thread/components/net/lwip-2.0.2/src/api/api_msg.c:799:11
	ldr	r1, [sp]
	movs	r0, #0
	.loc	3 799 28 is_stmt 0              @ rt-thread/components/net/lwip-2.0.2/src/api/api_msg.c:799:28
	str	r0, [r1, #4]
	.loc	3 800 9 is_stmt 1               @ rt-thread/components/net/lwip-2.0.2/src/api/api_msg.c:800:9
	b	.LBB5_18
.Ltmp179:
.LBB5_18:                               @   in Loop: Header=BB5_14 Depth=1
	.loc	3 801 22                        @ rt-thread/components/net/lwip-2.0.2/src/api/api_msg.c:801:22
	ldr	r0, [sp]
	.loc	3 801 9 is_stmt 0               @ rt-thread/components/net/lwip-2.0.2/src/api/api_msg.c:801:9
	bl	netconn_free
	.loc	3 802 7 is_stmt 1               @ rt-thread/components/net/lwip-2.0.2/src/api/api_msg.c:802:7
	b	.LBB5_19
.Ltmp180:
.LBB5_19:                               @   in Loop: Header=BB5_14 Depth=1
	.loc	3 790 5                         @ rt-thread/components/net/lwip-2.0.2/src/api/api_msg.c:790:5
	b	.LBB5_14
.LBB5_20:
	.loc	3 804 20                        @ rt-thread/components/net/lwip-2.0.2/src/api/api_msg.c:804:20
	ldr	r0, [sp, #12]
	.loc	3 804 26 is_stmt 0              @ rt-thread/components/net/lwip-2.0.2/src/api/api_msg.c:804:26
	adds	r0, #20
	.loc	3 804 5                         @ rt-thread/components/net/lwip-2.0.2/src/api/api_msg.c:804:5
	bl	sys_mbox_free
	.loc	3 805 27 is_stmt 1              @ rt-thread/components/net/lwip-2.0.2/src/api/api_msg.c:805:27
	ldr	r0, [sp, #12]
	.loc	3 805 33 is_stmt 0              @ rt-thread/components/net/lwip-2.0.2/src/api/api_msg.c:805:33
	adds	r0, #20
	.loc	3 805 5                         @ rt-thread/components/net/lwip-2.0.2/src/api/api_msg.c:805:5
	bl	sys_mbox_set_invalid
	.loc	3 806 3 is_stmt 1               @ rt-thread/components/net/lwip-2.0.2/src/api/api_msg.c:806:3
	b	.LBB5_21
.Ltmp181:
.LBB5_21:
	.loc	3 808 1                         @ rt-thread/components/net/lwip-2.0.2/src/api/api_msg.c:808:1
	add	sp, #16
	pop	{r7, pc}
.Ltmp182:
.Lfunc_end5:
	.size	netconn_drain, .Lfunc_end5-netconn_drain
	.cfi_endproc
	.cantunwind
	.fnend
                                        @ -- End function
	.section	.text.lwip_netconn_do_close_internal,"ax",%progbits
	.p2align	3                               @ -- Begin function lwip_netconn_do_close_internal
	.type	lwip_netconn_do_close_internal,%function
	.code	16                              @ @lwip_netconn_do_close_internal
	.thumb_func
lwip_netconn_do_close_internal:
.Lfunc_begin6:
	.loc	3 820 0                         @ rt-thread/components/net/lwip-2.0.2/src/api/api_msg.c:820:0
	.fnstart
	.cfi_startproc
@ %bb.0:
	.save	{r7, lr}
	push	{r7, lr}
	.cfi_def_cfa_offset 8
	.cfi_offset lr, -4
	.cfi_offset r7, -8
	.pad	#40
	sub	sp, #40
	.cfi_def_cfa_offset 48
                                        @ kill: def $r2 killed $r1
	str	r0, [sp, #32]
	strb.w	r1, [sp, #31]
	movs	r0, #0
.Ltmp183:
	.loc	3 823 8 prologue_end            @ rt-thread/components/net/lwip-2.0.2/src/api/api_msg.c:823:8
	strb.w	r0, [sp, #25]
	.loc	3 829 3                         @ rt-thread/components/net/lwip-2.0.2/src/api/api_msg.c:829:3
	b	.LBB6_1
.LBB6_1:
.Ltmp184:
	.loc	3 829 3 is_stmt 0               @ rt-thread/components/net/lwip-2.0.2/src/api/api_msg.c:829:3
	ldr	r0, [sp, #32]
.Ltmp185:
	.loc	3 829 3                         @ rt-thread/components/net/lwip-2.0.2/src/api/api_msg.c:829:3
	cbnz	r0, .LBB6_5
	b	.LBB6_2
.LBB6_2:
.Ltmp186:
	.loc	3 829 3                         @ rt-thread/components/net/lwip-2.0.2/src/api/api_msg.c:829:3
	b	.LBB6_3
.LBB6_3:
.Ltmp187:
	.loc	3 829 3                         @ rt-thread/components/net/lwip-2.0.2/src/api/api_msg.c:829:3
	movw	r0, :lower16:.L.str.16
	movt	r0, :upper16:.L.str.16
	bl	rt_kprintf
	movw	r0, :lower16:.L.str
	movt	r0, :upper16:.L.str
	movw	r1, #829
	bl	sys_arch_assert
	b	.LBB6_4
.Ltmp188:
.LBB6_4:
	.loc	3 829 3                         @ rt-thread/components/net/lwip-2.0.2/src/api/api_msg.c:829:3
	b	.LBB6_5
.Ltmp189:
.LBB6_5:
	.loc	3 829 3                         @ rt-thread/components/net/lwip-2.0.2/src/api/api_msg.c:829:3
	b	.LBB6_6
.Ltmp190:
.LBB6_6:
	.loc	3 830 3 is_stmt 1               @ rt-thread/components/net/lwip-2.0.2/src/api/api_msg.c:830:3
	b	.LBB6_7
.LBB6_7:
.Ltmp191:
	.loc	3 830 3 is_stmt 0               @ rt-thread/components/net/lwip-2.0.2/src/api/api_msg.c:830:3
	ldr	r0, [sp, #32]
	ldrb	r0, [r0]
	and	r0, r0, #240
.Ltmp192:
	.loc	3 830 3                         @ rt-thread/components/net/lwip-2.0.2/src/api/api_msg.c:830:3
	cmp	r0, #16
	beq	.LBB6_11
	b	.LBB6_8
.LBB6_8:
.Ltmp193:
	.loc	3 830 3                         @ rt-thread/components/net/lwip-2.0.2/src/api/api_msg.c:830:3
	b	.LBB6_9
.LBB6_9:
.Ltmp194:
	.loc	3 830 3                         @ rt-thread/components/net/lwip-2.0.2/src/api/api_msg.c:830:3
	movw	r0, :lower16:.L.str.17
	movt	r0, :upper16:.L.str.17
	bl	rt_kprintf
	movw	r0, :lower16:.L.str
	movt	r0, :upper16:.L.str
	movw	r1, #830
	bl	sys_arch_assert
	b	.LBB6_10
.Ltmp195:
.LBB6_10:
	.loc	3 830 3                         @ rt-thread/components/net/lwip-2.0.2/src/api/api_msg.c:830:3
	b	.LBB6_11
.Ltmp196:
.LBB6_11:
	.loc	3 830 3                         @ rt-thread/components/net/lwip-2.0.2/src/api/api_msg.c:830:3
	b	.LBB6_12
.Ltmp197:
.LBB6_12:
	.loc	3 831 3 is_stmt 1               @ rt-thread/components/net/lwip-2.0.2/src/api/api_msg.c:831:3
	b	.LBB6_13
.LBB6_13:
.Ltmp198:
	.loc	3 831 3 is_stmt 0               @ rt-thread/components/net/lwip-2.0.2/src/api/api_msg.c:831:3
	ldr	r0, [sp, #32]
	ldrb	r0, [r0, #1]
.Ltmp199:
	.loc	3 831 3                         @ rt-thread/components/net/lwip-2.0.2/src/api/api_msg.c:831:3
	cmp	r0, #4
	beq	.LBB6_17
	b	.LBB6_14
.LBB6_14:
.Ltmp200:
	.loc	3 831 3                         @ rt-thread/components/net/lwip-2.0.2/src/api/api_msg.c:831:3
	b	.LBB6_15
.LBB6_15:
.Ltmp201:
	.loc	3 831 3                         @ rt-thread/components/net/lwip-2.0.2/src/api/api_msg.c:831:3
	movw	r0, :lower16:.L.str.18
	movt	r0, :upper16:.L.str.18
	bl	rt_kprintf
	movw	r0, :lower16:.L.str
	movt	r0, :upper16:.L.str
	movw	r1, #831
	bl	sys_arch_assert
	b	.LBB6_16
.Ltmp202:
.LBB6_16:
	.loc	3 831 3                         @ rt-thread/components/net/lwip-2.0.2/src/api/api_msg.c:831:3
	b	.LBB6_17
.Ltmp203:
.LBB6_17:
	.loc	3 831 3                         @ rt-thread/components/net/lwip-2.0.2/src/api/api_msg.c:831:3
	b	.LBB6_18
.Ltmp204:
.LBB6_18:
	.loc	3 832 3 is_stmt 1               @ rt-thread/components/net/lwip-2.0.2/src/api/api_msg.c:832:3
	b	.LBB6_19
.LBB6_19:
.Ltmp205:
	.loc	3 832 3 is_stmt 0               @ rt-thread/components/net/lwip-2.0.2/src/api/api_msg.c:832:3
	ldr	r0, [sp, #32]
	ldr	r0, [r0, #4]
.Ltmp206:
	.loc	3 832 3                         @ rt-thread/components/net/lwip-2.0.2/src/api/api_msg.c:832:3
	cbnz	r0, .LBB6_23
	b	.LBB6_20
.LBB6_20:
.Ltmp207:
	.loc	3 832 3                         @ rt-thread/components/net/lwip-2.0.2/src/api/api_msg.c:832:3
	b	.LBB6_21
.LBB6_21:
.Ltmp208:
	.loc	3 832 3                         @ rt-thread/components/net/lwip-2.0.2/src/api/api_msg.c:832:3
	movw	r0, :lower16:.L.str.19
	movt	r0, :upper16:.L.str.19
	bl	rt_kprintf
	movw	r0, :lower16:.L.str
	movt	r0, :upper16:.L.str
	mov.w	r1, #832
	bl	sys_arch_assert
	b	.LBB6_22
.Ltmp209:
.LBB6_22:
	.loc	3 832 3                         @ rt-thread/components/net/lwip-2.0.2/src/api/api_msg.c:832:3
	b	.LBB6_23
.Ltmp210:
.LBB6_23:
	.loc	3 832 3                         @ rt-thread/components/net/lwip-2.0.2/src/api/api_msg.c:832:3
	b	.LBB6_24
.Ltmp211:
.LBB6_24:
	.loc	3 833 3 is_stmt 1               @ rt-thread/components/net/lwip-2.0.2/src/api/api_msg.c:833:3
	b	.LBB6_25
.LBB6_25:
.Ltmp212:
	.loc	3 833 3 is_stmt 0               @ rt-thread/components/net/lwip-2.0.2/src/api/api_msg.c:833:3
	ldr	r0, [sp, #32]
	ldr	r0, [r0, #52]
.Ltmp213:
	.loc	3 833 3                         @ rt-thread/components/net/lwip-2.0.2/src/api/api_msg.c:833:3
	cbnz	r0, .LBB6_29
	b	.LBB6_26
.LBB6_26:
.Ltmp214:
	.loc	3 833 3                         @ rt-thread/components/net/lwip-2.0.2/src/api/api_msg.c:833:3
	b	.LBB6_27
.LBB6_27:
.Ltmp215:
	.loc	3 833 3                         @ rt-thread/components/net/lwip-2.0.2/src/api/api_msg.c:833:3
	movw	r0, :lower16:.L.str.20
	movt	r0, :upper16:.L.str.20
	bl	rt_kprintf
	movw	r0, :lower16:.L.str
	movt	r0, :upper16:.L.str
	movw	r1, #833
	bl	sys_arch_assert
	b	.LBB6_28
.Ltmp216:
.LBB6_28:
	.loc	3 833 3                         @ rt-thread/components/net/lwip-2.0.2/src/api/api_msg.c:833:3
	b	.LBB6_29
.Ltmp217:
.LBB6_29:
	.loc	3 833 3                         @ rt-thread/components/net/lwip-2.0.2/src/api/api_msg.c:833:3
	b	.LBB6_30
.Ltmp218:
.LBB6_30:
	.loc	3 835 10 is_stmt 1              @ rt-thread/components/net/lwip-2.0.2/src/api/api_msg.c:835:10
	ldr	r0, [sp, #32]
	.loc	3 835 20 is_stmt 0              @ rt-thread/components/net/lwip-2.0.2/src/api/api_msg.c:835:20
	ldr	r0, [r0, #4]
	.loc	3 835 8                         @ rt-thread/components/net/lwip-2.0.2/src/api/api_msg.c:835:8
	str	r0, [sp, #20]
	.loc	3 836 10 is_stmt 1              @ rt-thread/components/net/lwip-2.0.2/src/api/api_msg.c:836:10
	ldr	r0, [sp, #32]
	.loc	3 836 16 is_stmt 0              @ rt-thread/components/net/lwip-2.0.2/src/api/api_msg.c:836:16
	ldr	r0, [r0, #52]
	.loc	3 836 36                        @ rt-thread/components/net/lwip-2.0.2/src/api/api_msg.c:836:36
	ldrb	r0, [r0, #8]
	.loc	3 836 8                         @ rt-thread/components/net/lwip-2.0.2/src/api/api_msg.c:836:8
	strb.w	r0, [sp, #29]
	.loc	3 837 13 is_stmt 1              @ rt-thread/components/net/lwip-2.0.2/src/api/api_msg.c:837:13
	ldrb.w	r0, [sp, #29]
	.loc	3 837 18 is_stmt 0              @ rt-thread/components/net/lwip-2.0.2/src/api/api_msg.c:837:18
	and	r0, r0, #1
	.loc	3 837 11                        @ rt-thread/components/net/lwip-2.0.2/src/api/api_msg.c:837:11
	strb.w	r0, [sp, #28]
	.loc	3 838 13 is_stmt 1              @ rt-thread/components/net/lwip-2.0.2/src/api/api_msg.c:838:13
	ldrb.w	r0, [sp, #29]
	.loc	3 838 18 is_stmt 0              @ rt-thread/components/net/lwip-2.0.2/src/api/api_msg.c:838:18
	and	r0, r0, #2
	.loc	3 838 11                        @ rt-thread/components/net/lwip-2.0.2/src/api/api_msg.c:838:11
	strb.w	r0, [sp, #27]
.Ltmp219:
	.loc	3 841 7 is_stmt 1               @ rt-thread/components/net/lwip-2.0.2/src/api/api_msg.c:841:7
	ldrb.w	r0, [sp, #29]
.Ltmp220:
	.loc	3 841 7 is_stmt 0               @ rt-thread/components/net/lwip-2.0.2/src/api/api_msg.c:841:7
	cmp	r0, #3
	bne	.LBB6_32
	b	.LBB6_31
.LBB6_31:
	.loc	3 0 7                           @ rt-thread/components/net/lwip-2.0.2/src/api/api_msg.c:0:7
	movs	r0, #1
.Ltmp221:
	.loc	3 842 11 is_stmt 1              @ rt-thread/components/net/lwip-2.0.2/src/api/api_msg.c:842:11
	strb.w	r0, [sp, #26]
	.loc	3 843 3                         @ rt-thread/components/net/lwip-2.0.2/src/api/api_msg.c:843:3
	b	.LBB6_43
.Ltmp222:
.LBB6_32:
	.loc	3 843 14 is_stmt 0              @ rt-thread/components/net/lwip-2.0.2/src/api/api_msg.c:843:14
	ldrb.w	r0, [sp, #28]
	.loc	3 843 22                        @ rt-thread/components/net/lwip-2.0.2/src/api/api_msg.c:843:22
	cbz	r0, .LBB6_37
	b	.LBB6_33
.LBB6_33:
	.loc	3 844 16 is_stmt 1              @ rt-thread/components/net/lwip-2.0.2/src/api/api_msg.c:844:16
	ldr	r0, [sp, #20]
	.loc	3 844 22 is_stmt 0              @ rt-thread/components/net/lwip-2.0.2/src/api/api_msg.c:844:22
	ldrb	r0, [r0, #20]
	.loc	3 844 43                        @ rt-thread/components/net/lwip-2.0.2/src/api/api_msg.c:844:43
	cmp	r0, #5
	beq	.LBB6_36
	b	.LBB6_34
.LBB6_34:
	.loc	3 845 16 is_stmt 1              @ rt-thread/components/net/lwip-2.0.2/src/api/api_msg.c:845:16
	ldr	r0, [sp, #20]
	.loc	3 845 22 is_stmt 0              @ rt-thread/components/net/lwip-2.0.2/src/api/api_msg.c:845:22
	ldrb	r0, [r0, #20]
	.loc	3 845 43                        @ rt-thread/components/net/lwip-2.0.2/src/api/api_msg.c:845:43
	cmp	r0, #6
	beq	.LBB6_36
	b	.LBB6_35
.LBB6_35:
	.loc	3 846 16 is_stmt 1              @ rt-thread/components/net/lwip-2.0.2/src/api/api_msg.c:846:16
	ldr	r0, [sp, #20]
	.loc	3 846 22 is_stmt 0              @ rt-thread/components/net/lwip-2.0.2/src/api/api_msg.c:846:22
	ldrb	r0, [r0, #20]
.Ltmp223:
	.loc	3 843 14 is_stmt 1              @ rt-thread/components/net/lwip-2.0.2/src/api/api_msg.c:843:14
	cmp	r0, #8
	bne	.LBB6_37
	b	.LBB6_36
.LBB6_36:
	.loc	3 0 14 is_stmt 0                @ rt-thread/components/net/lwip-2.0.2/src/api/api_msg.c:0:14
	movs	r0, #1
.Ltmp224:
	.loc	3 847 11 is_stmt 1              @ rt-thread/components/net/lwip-2.0.2/src/api/api_msg.c:847:11
	strb.w	r0, [sp, #26]
	.loc	3 848 3                         @ rt-thread/components/net/lwip-2.0.2/src/api/api_msg.c:848:3
	b	.LBB6_42
.Ltmp225:
.LBB6_37:
	.loc	3 848 14 is_stmt 0              @ rt-thread/components/net/lwip-2.0.2/src/api/api_msg.c:848:14
	ldrb.w	r0, [sp, #27]
	.loc	3 848 22                        @ rt-thread/components/net/lwip-2.0.2/src/api/api_msg.c:848:22
	cbz	r0, .LBB6_40
	b	.LBB6_38
.LBB6_38:
	.loc	3 848 27                        @ rt-thread/components/net/lwip-2.0.2/src/api/api_msg.c:848:27
	ldr	r0, [sp, #20]
	ldrb	r0, [r0, #26]
.Ltmp226:
	.loc	3 848 14                        @ rt-thread/components/net/lwip-2.0.2/src/api/api_msg.c:848:14
	lsls	r0, r0, #27
	cmp	r0, #0
	bpl	.LBB6_40
	b	.LBB6_39
.LBB6_39:
	.loc	3 0 14                          @ rt-thread/components/net/lwip-2.0.2/src/api/api_msg.c:0:14
	movs	r0, #1
.Ltmp227:
	.loc	3 849 11 is_stmt 1              @ rt-thread/components/net/lwip-2.0.2/src/api/api_msg.c:849:11
	strb.w	r0, [sp, #26]
	.loc	3 850 3                         @ rt-thread/components/net/lwip-2.0.2/src/api/api_msg.c:850:3
	b	.LBB6_41
.Ltmp228:
.LBB6_40:
	.loc	3 0 3 is_stmt 0                 @ rt-thread/components/net/lwip-2.0.2/src/api/api_msg.c:0:3
	movs	r0, #0
.Ltmp229:
	.loc	3 851 11 is_stmt 1              @ rt-thread/components/net/lwip-2.0.2/src/api/api_msg.c:851:11
	strb.w	r0, [sp, #26]
	b	.LBB6_41
.Ltmp230:
.LBB6_41:
	.loc	3 0 11 is_stmt 0                @ rt-thread/components/net/lwip-2.0.2/src/api/api_msg.c:0:11
	b	.LBB6_42
.LBB6_42:
	b	.LBB6_43
.LBB6_43:
.Ltmp231:
	.loc	3 855 7 is_stmt 1               @ rt-thread/components/net/lwip-2.0.2/src/api/api_msg.c:855:7
	ldrb.w	r0, [sp, #26]
.Ltmp232:
	.loc	3 855 7 is_stmt 0               @ rt-thread/components/net/lwip-2.0.2/src/api/api_msg.c:855:7
	cbz	r0, .LBB6_45
	b	.LBB6_44
.LBB6_44:
.Ltmp233:
	.loc	3 856 13 is_stmt 1              @ rt-thread/components/net/lwip-2.0.2/src/api/api_msg.c:856:13
	ldr	r0, [sp, #20]
	movs	r1, #0
	.loc	3 856 5 is_stmt 0               @ rt-thread/components/net/lwip-2.0.2/src/api/api_msg.c:856:5
	bl	tcp_arg
	.loc	3 857 3 is_stmt 1               @ rt-thread/components/net/lwip-2.0.2/src/api/api_msg.c:857:3
	b	.LBB6_45
.Ltmp234:
.LBB6_45:
	.loc	3 858 7                         @ rt-thread/components/net/lwip-2.0.2/src/api/api_msg.c:858:7
	ldr	r0, [sp, #20]
	.loc	3 858 13 is_stmt 0              @ rt-thread/components/net/lwip-2.0.2/src/api/api_msg.c:858:13
	ldrb	r0, [r0, #20]
.Ltmp235:
	.loc	3 858 7                         @ rt-thread/components/net/lwip-2.0.2/src/api/api_msg.c:858:7
	cmp	r0, #1
	bne	.LBB6_47
	b	.LBB6_46
.LBB6_46:
.Ltmp236:
	.loc	3 859 16 is_stmt 1              @ rt-thread/components/net/lwip-2.0.2/src/api/api_msg.c:859:16
	ldr	r0, [sp, #20]
	movs	r1, #0
	.loc	3 859 5 is_stmt 0               @ rt-thread/components/net/lwip-2.0.2/src/api/api_msg.c:859:5
	bl	tcp_accept
	.loc	3 860 3 is_stmt 1               @ rt-thread/components/net/lwip-2.0.2/src/api/api_msg.c:860:3
	b	.LBB6_54
.Ltmp237:
.LBB6_47:
	.loc	3 862 9                         @ rt-thread/components/net/lwip-2.0.2/src/api/api_msg.c:862:9
	ldrb.w	r0, [sp, #28]
.Ltmp238:
	.loc	3 862 9 is_stmt 0               @ rt-thread/components/net/lwip-2.0.2/src/api/api_msg.c:862:9
	cbz	r0, .LBB6_49
	b	.LBB6_48
.LBB6_48:
.Ltmp239:
	.loc	3 863 16 is_stmt 1              @ rt-thread/components/net/lwip-2.0.2/src/api/api_msg.c:863:16
	ldr	r0, [sp, #20]
	movs	r1, #0
	.loc	3 863 7 is_stmt 0               @ rt-thread/components/net/lwip-2.0.2/src/api/api_msg.c:863:7
	str	r1, [sp, #8]                    @ 4-byte Spill
	bl	tcp_recv
	ldr	r1, [sp, #8]                    @ 4-byte Reload
	.loc	3 864 18 is_stmt 1              @ rt-thread/components/net/lwip-2.0.2/src/api/api_msg.c:864:18
	ldr	r0, [sp, #20]
	.loc	3 864 7 is_stmt 0               @ rt-thread/components/net/lwip-2.0.2/src/api/api_msg.c:864:7
	bl	tcp_accept
	.loc	3 865 5 is_stmt 1               @ rt-thread/components/net/lwip-2.0.2/src/api/api_msg.c:865:5
	b	.LBB6_49
.Ltmp240:
.LBB6_49:
	.loc	3 866 9                         @ rt-thread/components/net/lwip-2.0.2/src/api/api_msg.c:866:9
	ldrb.w	r0, [sp, #27]
.Ltmp241:
	.loc	3 866 9 is_stmt 0               @ rt-thread/components/net/lwip-2.0.2/src/api/api_msg.c:866:9
	cbz	r0, .LBB6_51
	b	.LBB6_50
.LBB6_50:
.Ltmp242:
	.loc	3 867 16 is_stmt 1              @ rt-thread/components/net/lwip-2.0.2/src/api/api_msg.c:867:16
	ldr	r0, [sp, #20]
	movs	r1, #0
	.loc	3 867 7 is_stmt 0               @ rt-thread/components/net/lwip-2.0.2/src/api/api_msg.c:867:7
	bl	tcp_sent
	.loc	3 868 5 is_stmt 1               @ rt-thread/components/net/lwip-2.0.2/src/api/api_msg.c:868:5
	b	.LBB6_51
.Ltmp243:
.LBB6_51:
	.loc	3 869 9                         @ rt-thread/components/net/lwip-2.0.2/src/api/api_msg.c:869:9
	ldrb.w	r0, [sp, #26]
.Ltmp244:
	.loc	3 869 9 is_stmt 0               @ rt-thread/components/net/lwip-2.0.2/src/api/api_msg.c:869:9
	cbz	r0, .LBB6_53
	b	.LBB6_52
.LBB6_52:
.Ltmp245:
	.loc	3 870 16 is_stmt 1              @ rt-thread/components/net/lwip-2.0.2/src/api/api_msg.c:870:16
	ldr	r0, [sp, #20]
	movs	r2, #0
	.loc	3 870 7 is_stmt 0               @ rt-thread/components/net/lwip-2.0.2/src/api/api_msg.c:870:7
	str	r2, [sp, #4]                    @ 4-byte Spill
	mov	r1, r2
	bl	tcp_poll
	ldr	r1, [sp, #4]                    @ 4-byte Reload
	.loc	3 871 15 is_stmt 1              @ rt-thread/components/net/lwip-2.0.2/src/api/api_msg.c:871:15
	ldr	r0, [sp, #20]
	.loc	3 871 7 is_stmt 0               @ rt-thread/components/net/lwip-2.0.2/src/api/api_msg.c:871:7
	bl	tcp_err
	.loc	3 872 5 is_stmt 1               @ rt-thread/components/net/lwip-2.0.2/src/api/api_msg.c:872:5
	b	.LBB6_53
.Ltmp246:
.LBB6_53:
	.loc	3 0 5 is_stmt 0                 @ rt-thread/components/net/lwip-2.0.2/src/api/api_msg.c:0:5
	b	.LBB6_54
.LBB6_54:
.Ltmp247:
	.loc	3 875 7 is_stmt 1               @ rt-thread/components/net/lwip-2.0.2/src/api/api_msg.c:875:7
	ldrb.w	r0, [sp, #26]
.Ltmp248:
	.loc	3 875 7 is_stmt 0               @ rt-thread/components/net/lwip-2.0.2/src/api/api_msg.c:875:7
	cbz	r0, .LBB6_56
	b	.LBB6_55
.LBB6_55:
.Ltmp249:
	.loc	3 905 23 is_stmt 1              @ rt-thread/components/net/lwip-2.0.2/src/api/api_msg.c:905:23
	ldr	r0, [sp, #20]
	.loc	3 905 13 is_stmt 0              @ rt-thread/components/net/lwip-2.0.2/src/api/api_msg.c:905:13
	bl	tcp_close
	.loc	3 905 11                        @ rt-thread/components/net/lwip-2.0.2/src/api/api_msg.c:905:11
	strb.w	r0, [sp, #30]
.Ltmp250:
	.loc	3 907 3 is_stmt 1               @ rt-thread/components/net/lwip-2.0.2/src/api/api_msg.c:907:3
	b	.LBB6_57
.Ltmp251:
.LBB6_56:
	.loc	3 908 24                        @ rt-thread/components/net/lwip-2.0.2/src/api/api_msg.c:908:24
	ldr	r0, [sp, #20]
	.loc	3 908 30 is_stmt 0              @ rt-thread/components/net/lwip-2.0.2/src/api/api_msg.c:908:30
	ldrb.w	r1, [sp, #28]
	.loc	3 908 39                        @ rt-thread/components/net/lwip-2.0.2/src/api/api_msg.c:908:39
	ldrb.w	r2, [sp, #27]
	.loc	3 908 11                        @ rt-thread/components/net/lwip-2.0.2/src/api/api_msg.c:908:11
	bl	tcp_shutdown
	.loc	3 908 9                         @ rt-thread/components/net/lwip-2.0.2/src/api/api_msg.c:908:9
	strb.w	r0, [sp, #30]
	b	.LBB6_57
.Ltmp252:
.LBB6_57:
	.loc	3 910 7 is_stmt 1               @ rt-thread/components/net/lwip-2.0.2/src/api/api_msg.c:910:7
	ldrsb.w	r0, [sp, #30]
.Ltmp253:
	.loc	3 910 7 is_stmt 0               @ rt-thread/components/net/lwip-2.0.2/src/api/api_msg.c:910:7
	cbnz	r0, .LBB6_59
	b	.LBB6_58
.LBB6_58:
	.loc	3 0 7                           @ rt-thread/components/net/lwip-2.0.2/src/api/api_msg.c:0:7
	movs	r0, #1
.Ltmp254:
	.loc	3 911 20 is_stmt 1              @ rt-thread/components/net/lwip-2.0.2/src/api/api_msg.c:911:20
	strb.w	r0, [sp, #25]
	.loc	3 919 3                         @ rt-thread/components/net/lwip-2.0.2/src/api/api_msg.c:919:3
	b	.LBB6_69
.Ltmp255:
.LBB6_59:
	.loc	3 920 9                         @ rt-thread/components/net/lwip-2.0.2/src/api/api_msg.c:920:9
	ldrsb.w	r0, [sp, #30]
.Ltmp256:
	.loc	3 920 9 is_stmt 0               @ rt-thread/components/net/lwip-2.0.2/src/api/api_msg.c:920:9
	adds	r0, #1
	cbnz	r0, .LBB6_67
	b	.LBB6_60
.LBB6_60:
	.loc	3 0 9                           @ rt-thread/components/net/lwip-2.0.2/src/api/api_msg.c:0:9
	movw	r0, #20000
.Ltmp257:
	.loc	3 927 13 is_stmt 1              @ rt-thread/components/net/lwip-2.0.2/src/api/api_msg.c:927:13
	str	r0, [sp, #16]
.Ltmp258:
	.loc	3 929 11                        @ rt-thread/components/net/lwip-2.0.2/src/api/api_msg.c:929:11
	ldr	r0, [sp, #32]
	.loc	3 929 17 is_stmt 0              @ rt-thread/components/net/lwip-2.0.2/src/api/api_msg.c:929:17
	ldr	r0, [r0, #28]
.Ltmp259:
	.loc	3 929 11                        @ rt-thread/components/net/lwip-2.0.2/src/api/api_msg.c:929:11
	cmp	r0, #1
	blt	.LBB6_62
	b	.LBB6_61
.LBB6_61:
.Ltmp260:
	.loc	3 930 25 is_stmt 1              @ rt-thread/components/net/lwip-2.0.2/src/api/api_msg.c:930:25
	ldr	r0, [sp, #32]
	.loc	3 930 31 is_stmt 0              @ rt-thread/components/net/lwip-2.0.2/src/api/api_msg.c:930:31
	ldr	r0, [r0, #28]
	.loc	3 930 23                        @ rt-thread/components/net/lwip-2.0.2/src/api/api_msg.c:930:23
	str	r0, [sp, #16]
	.loc	3 931 7 is_stmt 1               @ rt-thread/components/net/lwip-2.0.2/src/api/api_msg.c:931:7
	b	.LBB6_62
.Ltmp261:
.LBB6_62:
	.loc	3 939 19                        @ rt-thread/components/net/lwip-2.0.2/src/api/api_msg.c:939:19
	bl	sys_now
	.loc	3 939 31 is_stmt 0              @ rt-thread/components/net/lwip-2.0.2/src/api/api_msg.c:939:31
	ldr	r1, [sp, #32]
	.loc	3 939 37                        @ rt-thread/components/net/lwip-2.0.2/src/api/api_msg.c:939:37
	ldr	r1, [r1, #52]
	.loc	3 939 57                        @ rt-thread/components/net/lwip-2.0.2/src/api/api_msg.c:939:57
	ldr	r1, [r1, #12]
	.loc	3 939 29                        @ rt-thread/components/net/lwip-2.0.2/src/api/api_msg.c:939:29
	subs	r0, r0, r1
	.loc	3 939 74                        @ rt-thread/components/net/lwip-2.0.2/src/api/api_msg.c:939:74
	ldr	r1, [sp, #16]
.Ltmp262:
	.loc	3 939 11                        @ rt-thread/components/net/lwip-2.0.2/src/api/api_msg.c:939:11
	cmp	r0, r1
	blt	.LBB6_66
	b	.LBB6_63
.LBB6_63:
	.loc	3 0 11                          @ rt-thread/components/net/lwip-2.0.2/src/api/api_msg.c:0:11
	movs	r0, #1
.Ltmp263:
	.loc	3 943 24 is_stmt 1              @ rt-thread/components/net/lwip-2.0.2/src/api/api_msg.c:943:24
	strb.w	r0, [sp, #25]
.Ltmp264:
	.loc	3 944 13                        @ rt-thread/components/net/lwip-2.0.2/src/api/api_msg.c:944:13
	ldrb.w	r0, [sp, #26]
.Ltmp265:
	.loc	3 944 13 is_stmt 0              @ rt-thread/components/net/lwip-2.0.2/src/api/api_msg.c:944:13
	cbz	r0, .LBB6_65
	b	.LBB6_64
.LBB6_64:
.Ltmp266:
	.loc	3 946 21 is_stmt 1              @ rt-thread/components/net/lwip-2.0.2/src/api/api_msg.c:946:21
	ldr	r0, [sp, #20]
	.loc	3 946 11 is_stmt 0              @ rt-thread/components/net/lwip-2.0.2/src/api/api_msg.c:946:11
	bl	tcp_abort
	movs	r0, #0
	.loc	3 947 15 is_stmt 1              @ rt-thread/components/net/lwip-2.0.2/src/api/api_msg.c:947:15
	strb.w	r0, [sp, #30]
	.loc	3 948 9                         @ rt-thread/components/net/lwip-2.0.2/src/api/api_msg.c:948:9
	b	.LBB6_65
.Ltmp267:
.LBB6_65:
	.loc	3 949 7                         @ rt-thread/components/net/lwip-2.0.2/src/api/api_msg.c:949:7
	b	.LBB6_66
.Ltmp268:
.LBB6_66:
	.loc	3 950 5                         @ rt-thread/components/net/lwip-2.0.2/src/api/api_msg.c:950:5
	b	.LBB6_68
.Ltmp269:
.LBB6_67:
	.loc	3 0 5 is_stmt 0                 @ rt-thread/components/net/lwip-2.0.2/src/api/api_msg.c:0:5
	movs	r0, #1
.Ltmp270:
	.loc	3 952 22 is_stmt 1              @ rt-thread/components/net/lwip-2.0.2/src/api/api_msg.c:952:22
	strb.w	r0, [sp, #25]
	b	.LBB6_68
.Ltmp271:
.LBB6_68:
	.loc	3 0 22 is_stmt 0                @ rt-thread/components/net/lwip-2.0.2/src/api/api_msg.c:0:22
	b	.LBB6_69
.LBB6_69:
.Ltmp272:
	.loc	3 955 7 is_stmt 1               @ rt-thread/components/net/lwip-2.0.2/src/api/api_msg.c:955:7
	ldrb.w	r0, [sp, #25]
.Ltmp273:
	.loc	3 955 7 is_stmt 0               @ rt-thread/components/net/lwip-2.0.2/src/api/api_msg.c:955:7
	cmp	r0, #0
	beq	.LBB6_93
	b	.LBB6_70
.LBB6_70:
.Ltmp274:
	.loc	3 957 35 is_stmt 1              @ rt-thread/components/net/lwip-2.0.2/src/api/api_msg.c:957:35
	ldr	r0, [sp, #32]
	ldr	r0, [r0, #52]
	ldr	r0, [r0]
	adds	r0, #12
	.loc	3 957 16 is_stmt 0              @ rt-thread/components/net/lwip-2.0.2/src/api/api_msg.c:957:16
	str	r0, [sp, #12]
	.loc	3 958 30 is_stmt 1              @ rt-thread/components/net/lwip-2.0.2/src/api/api_msg.c:958:30
	ldrb.w	r0, [sp, #30]
	.loc	3 958 5 is_stmt 0               @ rt-thread/components/net/lwip-2.0.2/src/api/api_msg.c:958:5
	ldr	r1, [sp, #32]
	.loc	3 958 11                        @ rt-thread/components/net/lwip-2.0.2/src/api/api_msg.c:958:11
	ldr	r1, [r1, #52]
	.loc	3 958 28                        @ rt-thread/components/net/lwip-2.0.2/src/api/api_msg.c:958:28
	strb	r0, [r1, #4]
	.loc	3 959 5 is_stmt 1               @ rt-thread/components/net/lwip-2.0.2/src/api/api_msg.c:959:5
	ldr	r1, [sp, #32]
	movs	r0, #0
	.loc	3 959 23 is_stmt 0              @ rt-thread/components/net/lwip-2.0.2/src/api/api_msg.c:959:23
	str	r0, [r1, #52]
	.loc	3 960 5 is_stmt 1               @ rt-thread/components/net/lwip-2.0.2/src/api/api_msg.c:960:5
	ldr	r1, [sp, #32]
	.loc	3 960 17 is_stmt 0              @ rt-thread/components/net/lwip-2.0.2/src/api/api_msg.c:960:17
	strb	r0, [r1, #1]
.Ltmp275:
	.loc	3 961 9 is_stmt 1               @ rt-thread/components/net/lwip-2.0.2/src/api/api_msg.c:961:9
	ldrsb.w	r0, [sp, #30]
.Ltmp276:
	.loc	3 961 9 is_stmt 0               @ rt-thread/components/net/lwip-2.0.2/src/api/api_msg.c:961:9
	cbnz	r0, .LBB6_84
	b	.LBB6_71
.LBB6_71:
.Ltmp277:
	.loc	3 962 11 is_stmt 1              @ rt-thread/components/net/lwip-2.0.2/src/api/api_msg.c:962:11
	ldrb.w	r0, [sp, #26]
.Ltmp278:
	.loc	3 962 11 is_stmt 0              @ rt-thread/components/net/lwip-2.0.2/src/api/api_msg.c:962:11
	cbz	r0, .LBB6_75
	b	.LBB6_72
.LBB6_72:
.Ltmp279:
	.loc	3 964 9 is_stmt 1               @ rt-thread/components/net/lwip-2.0.2/src/api/api_msg.c:964:9
	ldr	r1, [sp, #32]
	movs	r0, #0
	.loc	3 964 23 is_stmt 0              @ rt-thread/components/net/lwip-2.0.2/src/api/api_msg.c:964:23
	str	r0, [r1, #4]
.Ltmp280:
	.loc	3 967 9 is_stmt 1               @ rt-thread/components/net/lwip-2.0.2/src/api/api_msg.c:967:9
	ldr	r0, [sp, #32]
	ldr	r0, [r0, #56]
.Ltmp281:
	.loc	3 967 9 is_stmt 0               @ rt-thread/components/net/lwip-2.0.2/src/api/api_msg.c:967:9
	cbz	r0, .LBB6_74
	b	.LBB6_73
.LBB6_73:
.Ltmp282:
	.loc	3 967 9                         @ rt-thread/components/net/lwip-2.0.2/src/api/api_msg.c:967:9
	ldr	r0, [sp, #32]
	ldr	r3, [r0, #56]
	movs	r1, #4
	movs	r2, #0
	blx	r3
	b	.LBB6_74
.Ltmp283:
.LBB6_74:
	.loc	3 968 7 is_stmt 1               @ rt-thread/components/net/lwip-2.0.2/src/api/api_msg.c:968:7
	b	.LBB6_75
.Ltmp284:
.LBB6_75:
	.loc	3 969 11                        @ rt-thread/components/net/lwip-2.0.2/src/api/api_msg.c:969:11
	ldrb.w	r0, [sp, #28]
.Ltmp285:
	.loc	3 969 11 is_stmt 0              @ rt-thread/components/net/lwip-2.0.2/src/api/api_msg.c:969:11
	cbz	r0, .LBB6_79
	b	.LBB6_76
.LBB6_76:
.Ltmp286:
	.loc	3 970 9 is_stmt 1               @ rt-thread/components/net/lwip-2.0.2/src/api/api_msg.c:970:9
	ldr	r0, [sp, #32]
	ldr	r0, [r0, #56]
.Ltmp287:
	.loc	3 970 9 is_stmt 0               @ rt-thread/components/net/lwip-2.0.2/src/api/api_msg.c:970:9
	cbz	r0, .LBB6_78
	b	.LBB6_77
.LBB6_77:
.Ltmp288:
	.loc	3 970 9                         @ rt-thread/components/net/lwip-2.0.2/src/api/api_msg.c:970:9
	ldr	r0, [sp, #32]
	ldr	r3, [r0, #56]
	movs	r2, #0
	mov	r1, r2
	blx	r3
	b	.LBB6_78
.Ltmp289:
.LBB6_78:
	.loc	3 971 7 is_stmt 1               @ rt-thread/components/net/lwip-2.0.2/src/api/api_msg.c:971:7
	b	.LBB6_79
.Ltmp290:
.LBB6_79:
	.loc	3 972 11                        @ rt-thread/components/net/lwip-2.0.2/src/api/api_msg.c:972:11
	ldrb.w	r0, [sp, #27]
.Ltmp291:
	.loc	3 972 11 is_stmt 0              @ rt-thread/components/net/lwip-2.0.2/src/api/api_msg.c:972:11
	cbz	r0, .LBB6_83
	b	.LBB6_80
.LBB6_80:
.Ltmp292:
	.loc	3 973 9 is_stmt 1               @ rt-thread/components/net/lwip-2.0.2/src/api/api_msg.c:973:9
	ldr	r0, [sp, #32]
	ldr	r0, [r0, #56]
.Ltmp293:
	.loc	3 973 9 is_stmt 0               @ rt-thread/components/net/lwip-2.0.2/src/api/api_msg.c:973:9
	cbz	r0, .LBB6_82
	b	.LBB6_81
.LBB6_81:
.Ltmp294:
	.loc	3 973 9                         @ rt-thread/components/net/lwip-2.0.2/src/api/api_msg.c:973:9
	ldr	r0, [sp, #32]
	ldr	r3, [r0, #56]
	movs	r1, #2
	movs	r2, #0
	blx	r3
	b	.LBB6_82
.Ltmp295:
.LBB6_82:
	.loc	3 974 7 is_stmt 1               @ rt-thread/components/net/lwip-2.0.2/src/api/api_msg.c:974:7
	b	.LBB6_83
.Ltmp296:
.LBB6_83:
	.loc	3 975 5                         @ rt-thread/components/net/lwip-2.0.2/src/api/api_msg.c:975:5
	b	.LBB6_84
.Ltmp297:
.LBB6_84:
	.loc	3 976 5                         @ rt-thread/components/net/lwip-2.0.2/src/api/api_msg.c:976:5
	b	.LBB6_85
.LBB6_85:
.Ltmp298:
	.loc	3 976 5 is_stmt 0               @ rt-thread/components/net/lwip-2.0.2/src/api/api_msg.c:976:5
	ldr	r0, [sp, #32]
.Ltmp299:
	.loc	3 976 5                         @ rt-thread/components/net/lwip-2.0.2/src/api/api_msg.c:976:5
	cbz	r0, .LBB6_89
	b	.LBB6_86
.LBB6_86:
.Ltmp300:
	.loc	3 976 5                         @ rt-thread/components/net/lwip-2.0.2/src/api/api_msg.c:976:5
	bl	rt_enter_critical
.Ltmp301:
	.loc	3 976 5                         @ rt-thread/components/net/lwip-2.0.2/src/api/api_msg.c:976:5
	ldr	r0, [sp, #32]
	ldrsb.w	r0, [r0, #8]
.Ltmp302:
	.loc	3 976 5                         @ rt-thread/components/net/lwip-2.0.2/src/api/api_msg.c:976:5
	cmn.w	r0, #12
	blt	.LBB6_88
	b	.LBB6_87
.LBB6_87:
.Ltmp303:
	.loc	3 976 5                         @ rt-thread/components/net/lwip-2.0.2/src/api/api_msg.c:976:5
	ldrb.w	r0, [sp, #30]
	ldr	r1, [sp, #32]
	strb	r0, [r1, #8]
	b	.LBB6_88
.Ltmp304:
.LBB6_88:
	.loc	3 976 5                         @ rt-thread/components/net/lwip-2.0.2/src/api/api_msg.c:976:5
	bl	rt_exit_critical
	b	.LBB6_89
.Ltmp305:
.LBB6_89:
	.loc	3 976 5                         @ rt-thread/components/net/lwip-2.0.2/src/api/api_msg.c:976:5
	b	.LBB6_90
.Ltmp306:
.LBB6_90:
	.loc	3 978 9 is_stmt 1               @ rt-thread/components/net/lwip-2.0.2/src/api/api_msg.c:978:9
	ldrb.w	r0, [sp, #31]
.Ltmp307:
	.loc	3 978 9 is_stmt 0               @ rt-thread/components/net/lwip-2.0.2/src/api/api_msg.c:978:9
	cbz	r0, .LBB6_92
	b	.LBB6_91
.LBB6_91:
.Ltmp308:
	.loc	3 982 22 is_stmt 1              @ rt-thread/components/net/lwip-2.0.2/src/api/api_msg.c:982:22
	ldr	r0, [sp, #12]
	.loc	3 982 7 is_stmt 0               @ rt-thread/components/net/lwip-2.0.2/src/api/api_msg.c:982:7
	bl	sys_sem_signal
	.loc	3 983 5 is_stmt 1               @ rt-thread/components/net/lwip-2.0.2/src/api/api_msg.c:983:5
	b	.LBB6_92
.Ltmp309:
.LBB6_92:
	.loc	3 0 5 is_stmt 0                 @ rt-thread/components/net/lwip-2.0.2/src/api/api_msg.c:0:5
	movs	r0, #0
	.loc	3 984 5 is_stmt 1               @ rt-thread/components/net/lwip-2.0.2/src/api/api_msg.c:984:5
	strb.w	r0, [sp, #39]
	b	.LBB6_110
.Ltmp310:
.LBB6_93:
	.loc	3 986 8                         @ rt-thread/components/net/lwip-2.0.2/src/api/api_msg.c:986:8
	ldrb.w	r0, [sp, #25]
.Ltmp311:
	.loc	3 986 7 is_stmt 0               @ rt-thread/components/net/lwip-2.0.2/src/api/api_msg.c:986:7
	cbnz	r0, .LBB6_103
	b	.LBB6_94
.LBB6_94:
.Ltmp312:
	.loc	3 989 5 is_stmt 1               @ rt-thread/components/net/lwip-2.0.2/src/api/api_msg.c:989:5
	b	.LBB6_95
.LBB6_95:
.Ltmp313:
	.loc	3 989 5 is_stmt 0               @ rt-thread/components/net/lwip-2.0.2/src/api/api_msg.c:989:5
	ldr	r0, [sp, #20]
	ldrb	r0, [r0, #20]
.Ltmp314:
	.loc	3 989 5                         @ rt-thread/components/net/lwip-2.0.2/src/api/api_msg.c:989:5
	cmp	r0, #1
	bne	.LBB6_99
	b	.LBB6_96
.LBB6_96:
.Ltmp315:
	.loc	3 989 5                         @ rt-thread/components/net/lwip-2.0.2/src/api/api_msg.c:989:5
	b	.LBB6_97
.LBB6_97:
.Ltmp316:
	.loc	3 989 5                         @ rt-thread/components/net/lwip-2.0.2/src/api/api_msg.c:989:5
	movw	r0, :lower16:.L.str.21
	movt	r0, :upper16:.L.str.21
	bl	rt_kprintf
	movw	r0, :lower16:.L.str
	movt	r0, :upper16:.L.str
	movw	r1, #989
	bl	sys_arch_assert
	b	.LBB6_98
.Ltmp317:
.LBB6_98:
	.loc	3 989 5                         @ rt-thread/components/net/lwip-2.0.2/src/api/api_msg.c:989:5
	b	.LBB6_99
.Ltmp318:
.LBB6_99:
	.loc	3 989 5                         @ rt-thread/components/net/lwip-2.0.2/src/api/api_msg.c:989:5
	b	.LBB6_100
.Ltmp319:
.LBB6_100:
	.loc	3 990 9 is_stmt 1               @ rt-thread/components/net/lwip-2.0.2/src/api/api_msg.c:990:9
	ldrb.w	r0, [sp, #27]
.Ltmp320:
	.loc	3 990 9 is_stmt 0               @ rt-thread/components/net/lwip-2.0.2/src/api/api_msg.c:990:9
	cbz	r0, .LBB6_102
	b	.LBB6_101
.LBB6_101:
.Ltmp321:
	.loc	3 991 16 is_stmt 1              @ rt-thread/components/net/lwip-2.0.2/src/api/api_msg.c:991:16
	ldr	r0, [sp, #20]
	.loc	3 991 7 is_stmt 0               @ rt-thread/components/net/lwip-2.0.2/src/api/api_msg.c:991:7
	movw	r1, :lower16:sent_tcp
	movt	r1, :upper16:sent_tcp
	bl	tcp_sent
	.loc	3 992 5 is_stmt 1               @ rt-thread/components/net/lwip-2.0.2/src/api/api_msg.c:992:5
	b	.LBB6_102
.Ltmp322:
.LBB6_102:
	.loc	3 994 14                        @ rt-thread/components/net/lwip-2.0.2/src/api/api_msg.c:994:14
	ldr	r0, [sp, #20]
	.loc	3 994 5 is_stmt 0               @ rt-thread/components/net/lwip-2.0.2/src/api/api_msg.c:994:5
	movw	r1, :lower16:poll_tcp
	movt	r1, :upper16:poll_tcp
	movs	r2, #1
	bl	tcp_poll
	.loc	3 995 13 is_stmt 1              @ rt-thread/components/net/lwip-2.0.2/src/api/api_msg.c:995:13
	ldr	r0, [sp, #20]
	.loc	3 995 5 is_stmt 0               @ rt-thread/components/net/lwip-2.0.2/src/api/api_msg.c:995:5
	movw	r1, :lower16:err_tcp
	movt	r1, :upper16:err_tcp
	bl	tcp_err
	.loc	3 996 13 is_stmt 1              @ rt-thread/components/net/lwip-2.0.2/src/api/api_msg.c:996:13
	ldr	r0, [sp, #20]
	.loc	3 996 19 is_stmt 0              @ rt-thread/components/net/lwip-2.0.2/src/api/api_msg.c:996:19
	ldr	r1, [sp, #32]
	.loc	3 996 5                         @ rt-thread/components/net/lwip-2.0.2/src/api/api_msg.c:996:5
	bl	tcp_arg
	.loc	3 998 3 is_stmt 1               @ rt-thread/components/net/lwip-2.0.2/src/api/api_msg.c:998:3
	b	.LBB6_103
.Ltmp323:
.LBB6_103:
	.loc	3 1001 3                        @ rt-thread/components/net/lwip-2.0.2/src/api/api_msg.c:1001:3
	b	.LBB6_104
.LBB6_104:
.Ltmp324:
	.loc	3 1001 3 is_stmt 0              @ rt-thread/components/net/lwip-2.0.2/src/api/api_msg.c:1001:3
	ldrsb.w	r0, [sp, #30]
.Ltmp325:
	.loc	3 1001 3                        @ rt-thread/components/net/lwip-2.0.2/src/api/api_msg.c:1001:3
	cbnz	r0, .LBB6_108
	b	.LBB6_105
.LBB6_105:
.Ltmp326:
	.loc	3 1001 3                        @ rt-thread/components/net/lwip-2.0.2/src/api/api_msg.c:1001:3
	b	.LBB6_106
.LBB6_106:
.Ltmp327:
	.loc	3 1001 3                        @ rt-thread/components/net/lwip-2.0.2/src/api/api_msg.c:1001:3
	movw	r0, :lower16:.L.str.22
	movt	r0, :upper16:.L.str.22
	bl	rt_kprintf
	movw	r0, :lower16:.L.str
	movt	r0, :upper16:.L.str
	movw	r1, #1001
	bl	sys_arch_assert
	b	.LBB6_107
.Ltmp328:
.LBB6_107:
	.loc	3 1001 3                        @ rt-thread/components/net/lwip-2.0.2/src/api/api_msg.c:1001:3
	b	.LBB6_108
.Ltmp329:
.LBB6_108:
	.loc	3 1001 3                        @ rt-thread/components/net/lwip-2.0.2/src/api/api_msg.c:1001:3
	b	.LBB6_109
.Ltmp330:
.LBB6_109:
	.loc	3 1002 10 is_stmt 1             @ rt-thread/components/net/lwip-2.0.2/src/api/api_msg.c:1002:10
	ldrb.w	r0, [sp, #30]
	.loc	3 1002 3 is_stmt 0              @ rt-thread/components/net/lwip-2.0.2/src/api/api_msg.c:1002:3
	strb.w	r0, [sp, #39]
	b	.LBB6_110
.LBB6_110:
	.loc	3 1003 1 is_stmt 1              @ rt-thread/components/net/lwip-2.0.2/src/api/api_msg.c:1003:1
	ldrsb.w	r0, [sp, #39]
	add	sp, #40
	pop	{r7, pc}
.Ltmp331:
.Lfunc_end6:
	.size	lwip_netconn_do_close_internal, .Lfunc_end6-lwip_netconn_do_close_internal
	.cfi_endproc
	.cantunwind
	.fnend
                                        @ -- End function
	.section	.text.lwip_netconn_do_bind,"ax",%progbits
	.hidden	lwip_netconn_do_bind            @ -- Begin function lwip_netconn_do_bind
	.globl	lwip_netconn_do_bind
	.p2align	3
	.type	lwip_netconn_do_bind,%function
	.code	16                              @ @lwip_netconn_do_bind
	.thumb_func
lwip_netconn_do_bind:
.Lfunc_begin7:
	.loc	3 1116 0                        @ rt-thread/components/net/lwip-2.0.2/src/api/api_msg.c:1116:0
	.fnstart
	.cfi_startproc
@ %bb.0:
	.save	{r7, lr}
	push	{r7, lr}
	.cfi_def_cfa_offset 8
	.cfi_offset lr, -4
	.cfi_offset r7, -8
	.pad	#16
	sub	sp, #16
	.cfi_def_cfa_offset 24
	str	r0, [sp, #12]
.Ltmp332:
	.loc	3 1117 42 prologue_end          @ rt-thread/components/net/lwip-2.0.2/src/api/api_msg.c:1117:42
	ldr	r0, [sp, #12]
	.loc	3 1117 19 is_stmt 0             @ rt-thread/components/net/lwip-2.0.2/src/api/api_msg.c:1117:19
	str	r0, [sp, #8]
.Ltmp333:
	.loc	3 1119 7 is_stmt 1              @ rt-thread/components/net/lwip-2.0.2/src/api/api_msg.c:1119:7
	ldr	r0, [sp, #8]
	ldr	r0, [r0]
	ldrsb.w	r0, [r0, #8]
.Ltmp334:
	.loc	3 1119 7 is_stmt 0              @ rt-thread/components/net/lwip-2.0.2/src/api/api_msg.c:1119:7
	cmn.w	r0, #13
	bgt	.LBB7_2
	b	.LBB7_1
.LBB7_1:
.Ltmp335:
	.loc	3 1120 16 is_stmt 1             @ rt-thread/components/net/lwip-2.0.2/src/api/api_msg.c:1120:16
	ldr	r1, [sp, #8]
	.loc	3 1120 21 is_stmt 0             @ rt-thread/components/net/lwip-2.0.2/src/api/api_msg.c:1120:21
	ldr	r0, [r1]
	.loc	3 1120 27                       @ rt-thread/components/net/lwip-2.0.2/src/api/api_msg.c:1120:27
	ldrb	r0, [r0, #8]
	.loc	3 1120 14                       @ rt-thread/components/net/lwip-2.0.2/src/api/api_msg.c:1120:14
	strb	r0, [r1, #4]
	.loc	3 1121 3 is_stmt 1              @ rt-thread/components/net/lwip-2.0.2/src/api/api_msg.c:1121:3
	b	.LBB7_12
.Ltmp336:
.LBB7_2:
	.loc	3 1122 5                        @ rt-thread/components/net/lwip-2.0.2/src/api/api_msg.c:1122:5
	ldr	r1, [sp, #8]
	movs	r0, #250
	.loc	3 1122 14 is_stmt 0             @ rt-thread/components/net/lwip-2.0.2/src/api/api_msg.c:1122:14
	strb	r0, [r1, #4]
.Ltmp337:
	.loc	3 1123 9 is_stmt 1              @ rt-thread/components/net/lwip-2.0.2/src/api/api_msg.c:1123:9
	ldr	r0, [sp, #8]
	.loc	3 1123 14 is_stmt 0             @ rt-thread/components/net/lwip-2.0.2/src/api/api_msg.c:1123:14
	ldr	r0, [r0]
	.loc	3 1123 24                       @ rt-thread/components/net/lwip-2.0.2/src/api/api_msg.c:1123:24
	ldr	r0, [r0, #4]
.Ltmp338:
	.loc	3 1123 9                        @ rt-thread/components/net/lwip-2.0.2/src/api/api_msg.c:1123:9
	cbz	r0, .LBB7_11
	b	.LBB7_3
.LBB7_3:
.Ltmp339:
	.loc	3 1124 15 is_stmt 1             @ rt-thread/components/net/lwip-2.0.2/src/api/api_msg.c:1124:15
	ldr	r0, [sp, #8]
	ldr	r0, [r0]
	ldrb	r0, [r0]
	and	r0, r0, #240
	.loc	3 1124 7 is_stmt 0              @ rt-thread/components/net/lwip-2.0.2/src/api/api_msg.c:1124:7
	mov	r1, r0
	str	r1, [sp, #4]                    @ 4-byte Spill
	cmp	r0, #16
	beq	.LBB7_8
	b	.LBB7_4
.LBB7_4:
	ldr	r0, [sp, #4]                    @ 4-byte Reload
	cmp	r0, #32
	beq	.LBB7_7
	b	.LBB7_5
.LBB7_5:
	ldr	r0, [sp, #4]                    @ 4-byte Reload
	cmp	r0, #64
	bne	.LBB7_9
	b	.LBB7_6
.LBB7_6:
.Ltmp340:
	.loc	3 1127 29 is_stmt 1             @ rt-thread/components/net/lwip-2.0.2/src/api/api_msg.c:1127:29
	ldr	r1, [sp, #8]
	.loc	3 1127 34 is_stmt 0             @ rt-thread/components/net/lwip-2.0.2/src/api/api_msg.c:1127:34
	ldr	r0, [r1]
	.loc	3 1127 49                       @ rt-thread/components/net/lwip-2.0.2/src/api/api_msg.c:1127:49
	ldr	r1, [r1, #8]
	.loc	3 1127 44                       @ rt-thread/components/net/lwip-2.0.2/src/api/api_msg.c:1127:44
	ldr	r0, [r0, #4]
	.loc	3 1127 20                       @ rt-thread/components/net/lwip-2.0.2/src/api/api_msg.c:1127:20
	bl	raw_bind
	.loc	3 1127 9                        @ rt-thread/components/net/lwip-2.0.2/src/api/api_msg.c:1127:9
	ldr	r1, [sp, #8]
	.loc	3 1127 18                       @ rt-thread/components/net/lwip-2.0.2/src/api/api_msg.c:1127:18
	strb	r0, [r1, #4]
	.loc	3 1128 9 is_stmt 1              @ rt-thread/components/net/lwip-2.0.2/src/api/api_msg.c:1128:9
	b	.LBB7_10
.LBB7_7:
	.loc	3 1132 29                       @ rt-thread/components/net/lwip-2.0.2/src/api/api_msg.c:1132:29
	ldr	r2, [sp, #8]
	.loc	3 1132 34 is_stmt 0             @ rt-thread/components/net/lwip-2.0.2/src/api/api_msg.c:1132:34
	ldr	r0, [r2]
	.loc	3 1132 49                       @ rt-thread/components/net/lwip-2.0.2/src/api/api_msg.c:1132:49
	ldr	r1, [r2, #8]
	.loc	3 1132 44                       @ rt-thread/components/net/lwip-2.0.2/src/api/api_msg.c:1132:44
	ldr	r0, [r0, #4]
	.loc	3 1132 95                       @ rt-thread/components/net/lwip-2.0.2/src/api/api_msg.c:1132:95
	ldrh	r2, [r2, #12]
	.loc	3 1132 20                       @ rt-thread/components/net/lwip-2.0.2/src/api/api_msg.c:1132:20
	bl	udp_bind
	.loc	3 1132 9                        @ rt-thread/components/net/lwip-2.0.2/src/api/api_msg.c:1132:9
	ldr	r1, [sp, #8]
	.loc	3 1132 18                       @ rt-thread/components/net/lwip-2.0.2/src/api/api_msg.c:1132:18
	strb	r0, [r1, #4]
	.loc	3 1133 9 is_stmt 1              @ rt-thread/components/net/lwip-2.0.2/src/api/api_msg.c:1133:9
	b	.LBB7_10
.LBB7_8:
	.loc	3 1137 29                       @ rt-thread/components/net/lwip-2.0.2/src/api/api_msg.c:1137:29
	ldr	r2, [sp, #8]
	.loc	3 1137 34 is_stmt 0             @ rt-thread/components/net/lwip-2.0.2/src/api/api_msg.c:1137:34
	ldr	r0, [r2]
	.loc	3 1137 49                       @ rt-thread/components/net/lwip-2.0.2/src/api/api_msg.c:1137:49
	ldr	r1, [r2, #8]
	.loc	3 1137 44                       @ rt-thread/components/net/lwip-2.0.2/src/api/api_msg.c:1137:44
	ldr	r0, [r0, #4]
	.loc	3 1137 95                       @ rt-thread/components/net/lwip-2.0.2/src/api/api_msg.c:1137:95
	ldrh	r2, [r2, #12]
	.loc	3 1137 20                       @ rt-thread/components/net/lwip-2.0.2/src/api/api_msg.c:1137:20
	bl	tcp_bind
	.loc	3 1137 9                        @ rt-thread/components/net/lwip-2.0.2/src/api/api_msg.c:1137:9
	ldr	r1, [sp, #8]
	.loc	3 1137 18                       @ rt-thread/components/net/lwip-2.0.2/src/api/api_msg.c:1137:18
	strb	r0, [r1, #4]
	.loc	3 1138 9 is_stmt 1              @ rt-thread/components/net/lwip-2.0.2/src/api/api_msg.c:1138:9
	b	.LBB7_10
.LBB7_9:
	.loc	3 1141 9                        @ rt-thread/components/net/lwip-2.0.2/src/api/api_msg.c:1141:9
	b	.LBB7_10
.Ltmp341:
.LBB7_10:
	.loc	3 1143 5                        @ rt-thread/components/net/lwip-2.0.2/src/api/api_msg.c:1143:5
	b	.LBB7_11
.Ltmp342:
.LBB7_11:
	.loc	3 0 5 is_stmt 0                 @ rt-thread/components/net/lwip-2.0.2/src/api/api_msg.c:0:5
	b	.LBB7_12
.LBB7_12:
	.loc	3 1145 3 is_stmt 1              @ rt-thread/components/net/lwip-2.0.2/src/api/api_msg.c:1145:3
	b	.LBB7_13
.LBB7_13:
.Ltmp343:
	.loc	3 1145 3 is_stmt 0              @ rt-thread/components/net/lwip-2.0.2/src/api/api_msg.c:1145:3
	ldr	r0, [sp, #8]
	ldr	r0, [r0]
.Ltmp344:
	.loc	3 1145 3                        @ rt-thread/components/net/lwip-2.0.2/src/api/api_msg.c:1145:3
	cbz	r0, .LBB7_17
	b	.LBB7_14
.LBB7_14:
.Ltmp345:
	.loc	3 1145 3                        @ rt-thread/components/net/lwip-2.0.2/src/api/api_msg.c:1145:3
	bl	rt_enter_critical
.Ltmp346:
	.loc	3 1145 3                        @ rt-thread/components/net/lwip-2.0.2/src/api/api_msg.c:1145:3
	ldr	r0, [sp, #8]
	ldr	r0, [r0]
	ldrsb.w	r0, [r0, #8]
.Ltmp347:
	.loc	3 1145 3                        @ rt-thread/components/net/lwip-2.0.2/src/api/api_msg.c:1145:3
	cmn.w	r0, #12
	blt	.LBB7_16
	b	.LBB7_15
.LBB7_15:
.Ltmp348:
	.loc	3 1145 3                        @ rt-thread/components/net/lwip-2.0.2/src/api/api_msg.c:1145:3
	ldr	r1, [sp, #8]
	ldrb	r0, [r1, #4]
	ldr	r1, [r1]
	strb	r0, [r1, #8]
	b	.LBB7_16
.Ltmp349:
.LBB7_16:
	.loc	3 1145 3                        @ rt-thread/components/net/lwip-2.0.2/src/api/api_msg.c:1145:3
	bl	rt_exit_critical
	b	.LBB7_17
.Ltmp350:
.LBB7_17:
	.loc	3 1145 3                        @ rt-thread/components/net/lwip-2.0.2/src/api/api_msg.c:1145:3
	b	.LBB7_18
.Ltmp351:
.LBB7_18:
	.loc	3 1146 1 is_stmt 1              @ rt-thread/components/net/lwip-2.0.2/src/api/api_msg.c:1146:1
	add	sp, #16
	pop	{r7, pc}
.Ltmp352:
.Lfunc_end7:
	.size	lwip_netconn_do_bind, .Lfunc_end7-lwip_netconn_do_bind
	.cfi_endproc
	.cantunwind
	.fnend
                                        @ -- End function
	.section	.text.lwip_netconn_do_connect,"ax",%progbits
	.hidden	lwip_netconn_do_connect         @ -- Begin function lwip_netconn_do_connect
	.globl	lwip_netconn_do_connect
	.p2align	3
	.type	lwip_netconn_do_connect,%function
	.code	16                              @ @lwip_netconn_do_connect
	.thumb_func
lwip_netconn_do_connect:
.Lfunc_begin8:
	.loc	3 1207 0                        @ rt-thread/components/net/lwip-2.0.2/src/api/api_msg.c:1207:0
	.fnstart
	.cfi_startproc
@ %bb.0:
	.save	{r7, lr}
	push	{r7, lr}
	.cfi_def_cfa_offset 8
	.cfi_offset lr, -4
	.cfi_offset r7, -8
	.pad	#24
	sub	sp, #24
	.cfi_def_cfa_offset 32
	str	r0, [sp, #20]
.Ltmp353:
	.loc	3 1208 42 prologue_end          @ rt-thread/components/net/lwip-2.0.2/src/api/api_msg.c:1208:42
	ldr	r0, [sp, #20]
	.loc	3 1208 19 is_stmt 0             @ rt-thread/components/net/lwip-2.0.2/src/api/api_msg.c:1208:19
	str	r0, [sp, #16]
.Ltmp354:
	.loc	3 1210 7 is_stmt 1              @ rt-thread/components/net/lwip-2.0.2/src/api/api_msg.c:1210:7
	ldr	r0, [sp, #16]
	.loc	3 1210 12 is_stmt 0             @ rt-thread/components/net/lwip-2.0.2/src/api/api_msg.c:1210:12
	ldr	r0, [r0]
	.loc	3 1210 22                       @ rt-thread/components/net/lwip-2.0.2/src/api/api_msg.c:1210:22
	ldr	r0, [r0, #4]
.Ltmp355:
	.loc	3 1210 7                        @ rt-thread/components/net/lwip-2.0.2/src/api/api_msg.c:1210:7
	cbnz	r0, .LBB8_2
	b	.LBB8_1
.LBB8_1:
.Ltmp356:
	.loc	3 1212 5 is_stmt 1              @ rt-thread/components/net/lwip-2.0.2/src/api/api_msg.c:1212:5
	ldr	r1, [sp, #16]
	movs	r0, #241
	.loc	3 1212 14 is_stmt 0             @ rt-thread/components/net/lwip-2.0.2/src/api/api_msg.c:1212:14
	strb	r0, [r1, #4]
	.loc	3 1213 3 is_stmt 1              @ rt-thread/components/net/lwip-2.0.2/src/api/api_msg.c:1213:3
	b	.LBB8_44
.Ltmp357:
.LBB8_2:
	.loc	3 1214 13                       @ rt-thread/components/net/lwip-2.0.2/src/api/api_msg.c:1214:13
	ldr	r0, [sp, #16]
	ldr	r0, [r0]
	ldrb	r0, [r0]
	and	r0, r0, #240
	.loc	3 1214 5 is_stmt 0              @ rt-thread/components/net/lwip-2.0.2/src/api/api_msg.c:1214:5
	mov	r1, r0
	str	r1, [sp, #8]                    @ 4-byte Spill
	cmp	r0, #16
	beq	.LBB8_7
	b	.LBB8_3
.LBB8_3:
	ldr	r0, [sp, #8]                    @ 4-byte Reload
	cmp	r0, #32
	beq	.LBB8_6
	b	.LBB8_4
.LBB8_4:
	ldr	r0, [sp, #8]                    @ 4-byte Reload
	cmp	r0, #64
	bne.w	.LBB8_36
	b	.LBB8_5
.LBB8_5:
.Ltmp358:
	.loc	3 1217 30 is_stmt 1             @ rt-thread/components/net/lwip-2.0.2/src/api/api_msg.c:1217:30
	ldr	r1, [sp, #16]
	.loc	3 1217 35 is_stmt 0             @ rt-thread/components/net/lwip-2.0.2/src/api/api_msg.c:1217:35
	ldr	r0, [r1]
	.loc	3 1217 50                       @ rt-thread/components/net/lwip-2.0.2/src/api/api_msg.c:1217:50
	ldr	r1, [r1, #8]
	.loc	3 1217 45                       @ rt-thread/components/net/lwip-2.0.2/src/api/api_msg.c:1217:45
	ldr	r0, [r0, #4]
	.loc	3 1217 18                       @ rt-thread/components/net/lwip-2.0.2/src/api/api_msg.c:1217:18
	bl	raw_connect
	.loc	3 1217 7                        @ rt-thread/components/net/lwip-2.0.2/src/api/api_msg.c:1217:7
	ldr	r1, [sp, #16]
	.loc	3 1217 16                       @ rt-thread/components/net/lwip-2.0.2/src/api/api_msg.c:1217:16
	strb	r0, [r1, #4]
	.loc	3 1218 7 is_stmt 1              @ rt-thread/components/net/lwip-2.0.2/src/api/api_msg.c:1218:7
	b	.LBB8_43
.LBB8_6:
	.loc	3 1222 30                       @ rt-thread/components/net/lwip-2.0.2/src/api/api_msg.c:1222:30
	ldr	r2, [sp, #16]
	.loc	3 1222 35 is_stmt 0             @ rt-thread/components/net/lwip-2.0.2/src/api/api_msg.c:1222:35
	ldr	r0, [r2]
	.loc	3 1222 50                       @ rt-thread/components/net/lwip-2.0.2/src/api/api_msg.c:1222:50
	ldr	r1, [r2, #8]
	.loc	3 1222 45                       @ rt-thread/components/net/lwip-2.0.2/src/api/api_msg.c:1222:45
	ldr	r0, [r0, #4]
	.loc	3 1222 96                       @ rt-thread/components/net/lwip-2.0.2/src/api/api_msg.c:1222:96
	ldrh	r2, [r2, #12]
	.loc	3 1222 18                       @ rt-thread/components/net/lwip-2.0.2/src/api/api_msg.c:1222:18
	bl	udp_connect
	.loc	3 1222 7                        @ rt-thread/components/net/lwip-2.0.2/src/api/api_msg.c:1222:7
	ldr	r1, [sp, #16]
	.loc	3 1222 16                       @ rt-thread/components/net/lwip-2.0.2/src/api/api_msg.c:1222:16
	strb	r0, [r1, #4]
	.loc	3 1223 7 is_stmt 1              @ rt-thread/components/net/lwip-2.0.2/src/api/api_msg.c:1223:7
	b	.LBB8_43
.LBB8_7:
.Ltmp359:
	.loc	3 1228 11                       @ rt-thread/components/net/lwip-2.0.2/src/api/api_msg.c:1228:11
	ldr	r0, [sp, #16]
	.loc	3 1228 16 is_stmt 0             @ rt-thread/components/net/lwip-2.0.2/src/api/api_msg.c:1228:16
	ldr	r0, [r0]
	.loc	3 1228 22                       @ rt-thread/components/net/lwip-2.0.2/src/api/api_msg.c:1228:22
	ldrb	r0, [r0, #1]
.Ltmp360:
	.loc	3 1228 11                       @ rt-thread/components/net/lwip-2.0.2/src/api/api_msg.c:1228:11
	cmp	r0, #3
	bne	.LBB8_9
	b	.LBB8_8
.LBB8_8:
.Ltmp361:
	.loc	3 1229 9 is_stmt 1              @ rt-thread/components/net/lwip-2.0.2/src/api/api_msg.c:1229:9
	ldr	r1, [sp, #16]
	movs	r0, #247
	.loc	3 1229 18 is_stmt 0             @ rt-thread/components/net/lwip-2.0.2/src/api/api_msg.c:1229:18
	strb	r0, [r1, #4]
	.loc	3 1230 7 is_stmt 1              @ rt-thread/components/net/lwip-2.0.2/src/api/api_msg.c:1230:7
	b	.LBB8_35
.Ltmp362:
.LBB8_9:
	.loc	3 1230 18 is_stmt 0             @ rt-thread/components/net/lwip-2.0.2/src/api/api_msg.c:1230:18
	ldr	r0, [sp, #16]
	.loc	3 1230 23                       @ rt-thread/components/net/lwip-2.0.2/src/api/api_msg.c:1230:23
	ldr	r0, [r0]
	.loc	3 1230 29                       @ rt-thread/components/net/lwip-2.0.2/src/api/api_msg.c:1230:29
	ldrb	r0, [r0, #1]
.Ltmp363:
	.loc	3 1230 18                       @ rt-thread/components/net/lwip-2.0.2/src/api/api_msg.c:1230:18
	cbz	r0, .LBB8_11
	b	.LBB8_10
.LBB8_10:
.Ltmp364:
	.loc	3 1231 9 is_stmt 1              @ rt-thread/components/net/lwip-2.0.2/src/api/api_msg.c:1231:9
	ldr	r1, [sp, #16]
	movs	r0, #246
	.loc	3 1231 18 is_stmt 0             @ rt-thread/components/net/lwip-2.0.2/src/api/api_msg.c:1231:18
	strb	r0, [r1, #4]
	.loc	3 1232 7 is_stmt 1              @ rt-thread/components/net/lwip-2.0.2/src/api/api_msg.c:1232:7
	b	.LBB8_34
.Ltmp365:
.LBB8_11:
	.loc	3 1233 19                       @ rt-thread/components/net/lwip-2.0.2/src/api/api_msg.c:1233:19
	ldr	r0, [sp, #16]
	.loc	3 1233 24 is_stmt 0             @ rt-thread/components/net/lwip-2.0.2/src/api/api_msg.c:1233:24
	ldr	r0, [r0]
	.loc	3 1233 9                        @ rt-thread/components/net/lwip-2.0.2/src/api/api_msg.c:1233:9
	bl	setup_tcp
	.loc	3 1234 32 is_stmt 1             @ rt-thread/components/net/lwip-2.0.2/src/api/api_msg.c:1234:32
	ldr	r2, [sp, #16]
	.loc	3 1234 37 is_stmt 0             @ rt-thread/components/net/lwip-2.0.2/src/api/api_msg.c:1234:37
	ldr	r0, [r2]
	.loc	3 1234 52                       @ rt-thread/components/net/lwip-2.0.2/src/api/api_msg.c:1234:52
	ldr	r1, [r2, #8]
	.loc	3 1234 47                       @ rt-thread/components/net/lwip-2.0.2/src/api/api_msg.c:1234:47
	ldr	r0, [r0, #4]
	.loc	3 1235 23 is_stmt 1             @ rt-thread/components/net/lwip-2.0.2/src/api/api_msg.c:1235:23
	ldrh	r2, [r2, #12]
	.loc	3 1234 20                       @ rt-thread/components/net/lwip-2.0.2/src/api/api_msg.c:1234:20
	movw	r3, :lower16:lwip_netconn_do_connected
	movt	r3, :upper16:lwip_netconn_do_connected
	bl	tcp_connect
	.loc	3 1234 9 is_stmt 0              @ rt-thread/components/net/lwip-2.0.2/src/api/api_msg.c:1234:9
	ldr	r1, [sp, #16]
	.loc	3 1234 18                       @ rt-thread/components/net/lwip-2.0.2/src/api/api_msg.c:1234:18
	strb	r0, [r1, #4]
.Ltmp366:
	.loc	3 1236 13 is_stmt 1             @ rt-thread/components/net/lwip-2.0.2/src/api/api_msg.c:1236:13
	ldr	r0, [sp, #16]
	.loc	3 1236 18 is_stmt 0             @ rt-thread/components/net/lwip-2.0.2/src/api/api_msg.c:1236:18
	ldrsb.w	r0, [r0, #4]
.Ltmp367:
	.loc	3 1236 13                       @ rt-thread/components/net/lwip-2.0.2/src/api/api_msg.c:1236:13
	cmp	r0, #0
	bne	.LBB8_33
	b	.LBB8_12
.LBB8_12:
.Ltmp368:
	.loc	3 1237 31 is_stmt 1             @ rt-thread/components/net/lwip-2.0.2/src/api/api_msg.c:1237:31
	ldr	r0, [sp, #16]
	ldr	r0, [r0]
	ldrb.w	r0, [r0, #44]
	ubfx	r0, r0, #1, #1
	.loc	3 1237 16 is_stmt 0             @ rt-thread/components/net/lwip-2.0.2/src/api/api_msg.c:1237:16
	strb.w	r0, [sp, #15]
	.loc	3 1238 11 is_stmt 1             @ rt-thread/components/net/lwip-2.0.2/src/api/api_msg.c:1238:11
	ldr	r0, [sp, #16]
	.loc	3 1238 16 is_stmt 0             @ rt-thread/components/net/lwip-2.0.2/src/api/api_msg.c:1238:16
	ldr	r1, [r0]
	movs	r0, #3
	.loc	3 1238 28                       @ rt-thread/components/net/lwip-2.0.2/src/api/api_msg.c:1238:28
	strb	r0, [r1, #1]
	.loc	3 1239 11 is_stmt 1             @ rt-thread/components/net/lwip-2.0.2/src/api/api_msg.c:1239:11
	b	.LBB8_13
.LBB8_13:
.Ltmp369:
	.loc	3 1239 11 is_stmt 0             @ rt-thread/components/net/lwip-2.0.2/src/api/api_msg.c:1239:11
	ldrb.w	r0, [sp, #15]
.Ltmp370:
	.loc	3 1239 11                       @ rt-thread/components/net/lwip-2.0.2/src/api/api_msg.c:1239:11
	cbz	r0, .LBB8_15
	b	.LBB8_14
.LBB8_14:
.Ltmp371:
	.loc	3 1239 11                       @ rt-thread/components/net/lwip-2.0.2/src/api/api_msg.c:1239:11
	ldr	r0, [sp, #16]
	ldr	r1, [r0]
	ldrb.w	r0, [r1, #44]
	orr	r0, r0, #4
	strb.w	r0, [r1, #44]
	b	.LBB8_16
.Ltmp372:
.LBB8_15:
	.loc	3 1239 11                       @ rt-thread/components/net/lwip-2.0.2/src/api/api_msg.c:1239:11
	ldr	r0, [sp, #16]
	ldr	r1, [r0]
	ldrb.w	r0, [r1, #44]
	and	r0, r0, #251
	strb.w	r0, [r1, #44]
	b	.LBB8_16
.Ltmp373:
.LBB8_16:
	.loc	3 1239 11                       @ rt-thread/components/net/lwip-2.0.2/src/api/api_msg.c:1239:11
	b	.LBB8_17
.Ltmp374:
.LBB8_17:
	.loc	3 1240 15 is_stmt 1             @ rt-thread/components/net/lwip-2.0.2/src/api/api_msg.c:1240:15
	ldrb.w	r0, [sp, #15]
.Ltmp375:
	.loc	3 1240 15 is_stmt 0             @ rt-thread/components/net/lwip-2.0.2/src/api/api_msg.c:1240:15
	cbz	r0, .LBB8_19
	b	.LBB8_18
.LBB8_18:
.Ltmp376:
	.loc	3 1241 13 is_stmt 1             @ rt-thread/components/net/lwip-2.0.2/src/api/api_msg.c:1241:13
	ldr	r1, [sp, #16]
	movs	r0, #251
	.loc	3 1241 22 is_stmt 0             @ rt-thread/components/net/lwip-2.0.2/src/api/api_msg.c:1241:22
	strb	r0, [r1, #4]
	.loc	3 1242 11 is_stmt 1             @ rt-thread/components/net/lwip-2.0.2/src/api/api_msg.c:1242:11
	b	.LBB8_32
.Ltmp377:
.LBB8_19:
	.loc	3 1243 38                       @ rt-thread/components/net/lwip-2.0.2/src/api/api_msg.c:1243:38
	ldr	r0, [sp, #16]
	.loc	3 1243 18 is_stmt 0             @ rt-thread/components/net/lwip-2.0.2/src/api/api_msg.c:1243:18
	ldr	r1, [r0]
	.loc	3 1243 36                       @ rt-thread/components/net/lwip-2.0.2/src/api/api_msg.c:1243:36
	str	r0, [r1, #52]
	.loc	3 1247 13 is_stmt 1             @ rt-thread/components/net/lwip-2.0.2/src/api/api_msg.c:1247:13
	b	.LBB8_20
.LBB8_20:
.Ltmp378:
	.loc	3 1247 13 is_stmt 0             @ rt-thread/components/net/lwip-2.0.2/src/api/api_msg.c:1247:13
	ldr	r0, [sp, #16]
	ldr	r0, [r0]
	ldrb	r0, [r0, #1]
.Ltmp379:
	.loc	3 1247 13                       @ rt-thread/components/net/lwip-2.0.2/src/api/api_msg.c:1247:13
	cmp	r0, #3
	beq	.LBB8_24
	b	.LBB8_21
.LBB8_21:
.Ltmp380:
	.loc	3 1247 13                       @ rt-thread/components/net/lwip-2.0.2/src/api/api_msg.c:1247:13
	b	.LBB8_22
.LBB8_22:
.Ltmp381:
	.loc	3 1247 13                       @ rt-thread/components/net/lwip-2.0.2/src/api/api_msg.c:1247:13
	movw	r0, :lower16:.L.str.8
	movt	r0, :upper16:.L.str.8
	bl	rt_kprintf
	movw	r0, :lower16:.L.str
	movt	r0, :upper16:.L.str
	movw	r1, #1247
	bl	sys_arch_assert
	b	.LBB8_23
.Ltmp382:
.LBB8_23:
	.loc	3 1247 13                       @ rt-thread/components/net/lwip-2.0.2/src/api/api_msg.c:1247:13
	b	.LBB8_24
.Ltmp383:
.LBB8_24:
	.loc	3 1247 13                       @ rt-thread/components/net/lwip-2.0.2/src/api/api_msg.c:1247:13
	b	.LBB8_25
.Ltmp384:
.LBB8_25:
	.loc	3 1248 13 is_stmt 1             @ rt-thread/components/net/lwip-2.0.2/src/api/api_msg.c:1248:13
	movw	r0, :lower16:lock_tcpip_core
	movt	r0, :upper16:lock_tcpip_core
	str	r0, [sp, #4]                    @ 4-byte Spill
	bl	sys_mutex_unlock
	.loc	3 1249 31                       @ rt-thread/components/net/lwip-2.0.2/src/api/api_msg.c:1249:31
	ldr	r0, [sp, #16]
	ldr	r0, [r0]
	adds	r0, #12
	movs	r1, #0
	.loc	3 1249 13 is_stmt 0             @ rt-thread/components/net/lwip-2.0.2/src/api/api_msg.c:1249:13
	bl	sys_arch_sem_wait
                                        @ kill: def $r1 killed $r0
	.loc	3 1250 13 is_stmt 1             @ rt-thread/components/net/lwip-2.0.2/src/api/api_msg.c:1250:13
	ldr	r0, [sp, #4]                    @ 4-byte Reload
	bl	sys_mutex_lock
	.loc	3 1251 13                       @ rt-thread/components/net/lwip-2.0.2/src/api/api_msg.c:1251:13
	b	.LBB8_26
.LBB8_26:
.Ltmp385:
	.loc	3 1251 13 is_stmt 0             @ rt-thread/components/net/lwip-2.0.2/src/api/api_msg.c:1251:13
	ldr	r0, [sp, #16]
	ldr	r0, [r0]
	ldrb	r0, [r0, #1]
.Ltmp386:
	.loc	3 1251 13                       @ rt-thread/components/net/lwip-2.0.2/src/api/api_msg.c:1251:13
	cmp	r0, #3
	bne	.LBB8_30
	b	.LBB8_27
.LBB8_27:
.Ltmp387:
	.loc	3 1251 13                       @ rt-thread/components/net/lwip-2.0.2/src/api/api_msg.c:1251:13
	b	.LBB8_28
.LBB8_28:
.Ltmp388:
	.loc	3 1251 13                       @ rt-thread/components/net/lwip-2.0.2/src/api/api_msg.c:1251:13
	movw	r0, :lower16:.L.str.8
	movt	r0, :upper16:.L.str.8
	bl	rt_kprintf
	movw	r0, :lower16:.L.str
	movt	r0, :upper16:.L.str
	movw	r1, #1251
	bl	sys_arch_assert
	b	.LBB8_29
.Ltmp389:
.LBB8_29:
	.loc	3 1251 13                       @ rt-thread/components/net/lwip-2.0.2/src/api/api_msg.c:1251:13
	b	.LBB8_30
.Ltmp390:
.LBB8_30:
	.loc	3 1251 13                       @ rt-thread/components/net/lwip-2.0.2/src/api/api_msg.c:1251:13
	b	.LBB8_31
.Ltmp391:
.LBB8_31:
	.loc	3 1253 13 is_stmt 1             @ rt-thread/components/net/lwip-2.0.2/src/api/api_msg.c:1253:13
	b	.LBB8_50
.Ltmp392:
.LBB8_32:
	.loc	3 1255 9                        @ rt-thread/components/net/lwip-2.0.2/src/api/api_msg.c:1255:9
	b	.LBB8_33
.Ltmp393:
.LBB8_33:
	.loc	3 0 9 is_stmt 0                 @ rt-thread/components/net/lwip-2.0.2/src/api/api_msg.c:0:9
	b	.LBB8_34
.LBB8_34:
	b	.LBB8_35
.LBB8_35:
	.loc	3 1257 7 is_stmt 1              @ rt-thread/components/net/lwip-2.0.2/src/api/api_msg.c:1257:7
	b	.LBB8_43
.LBB8_36:
	.loc	3 1260 7                        @ rt-thread/components/net/lwip-2.0.2/src/api/api_msg.c:1260:7
	b	.LBB8_37
.LBB8_37:
.Ltmp394:
	.loc	3 1260 7 is_stmt 0              @ rt-thread/components/net/lwip-2.0.2/src/api/api_msg.c:1260:7
	b	.LBB8_38
.LBB8_38:
.Ltmp395:
	.loc	3 1260 7                        @ rt-thread/components/net/lwip-2.0.2/src/api/api_msg.c:1260:7
	movw	r0, :lower16:.L.str.9
	movt	r0, :upper16:.L.str.9
	bl	rt_kprintf
	movw	r0, :lower16:.L.str
	movt	r0, :upper16:.L.str
	movw	r1, #1260
	bl	sys_arch_assert
	b	.LBB8_39
.Ltmp396:
.LBB8_39:
	.loc	3 1260 7                        @ rt-thread/components/net/lwip-2.0.2/src/api/api_msg.c:1260:7
	b	.LBB8_40
.LBB8_40:
.Ltmp397:
	.loc	3 1260 7                        @ rt-thread/components/net/lwip-2.0.2/src/api/api_msg.c:1260:7
	ldr	r1, [sp, #16]
	movs	r0, #250
	strb	r0, [r1, #4]
	b	.LBB8_41
.Ltmp398:
.LBB8_41:
	.loc	3 1260 7                        @ rt-thread/components/net/lwip-2.0.2/src/api/api_msg.c:1260:7
	b	.LBB8_42
.Ltmp399:
.LBB8_42:
	.loc	3 1261 7 is_stmt 1              @ rt-thread/components/net/lwip-2.0.2/src/api/api_msg.c:1261:7
	b	.LBB8_43
.Ltmp400:
.LBB8_43:
	.loc	3 0 7 is_stmt 0                 @ rt-thread/components/net/lwip-2.0.2/src/api/api_msg.c:0:7
	b	.LBB8_44
.LBB8_44:
	.loc	3 1266 3 is_stmt 1              @ rt-thread/components/net/lwip-2.0.2/src/api/api_msg.c:1266:3
	b	.LBB8_45
.LBB8_45:
.Ltmp401:
	.loc	3 1266 3 is_stmt 0              @ rt-thread/components/net/lwip-2.0.2/src/api/api_msg.c:1266:3
	ldr	r0, [sp, #16]
	ldr	r0, [r0]
.Ltmp402:
	.loc	3 1266 3                        @ rt-thread/components/net/lwip-2.0.2/src/api/api_msg.c:1266:3
	cbz	r0, .LBB8_49
	b	.LBB8_46
.LBB8_46:
.Ltmp403:
	.loc	3 1266 3                        @ rt-thread/components/net/lwip-2.0.2/src/api/api_msg.c:1266:3
	bl	rt_enter_critical
.Ltmp404:
	.loc	3 1266 3                        @ rt-thread/components/net/lwip-2.0.2/src/api/api_msg.c:1266:3
	ldr	r0, [sp, #16]
	ldr	r0, [r0]
	ldrsb.w	r0, [r0, #8]
.Ltmp405:
	.loc	3 1266 3                        @ rt-thread/components/net/lwip-2.0.2/src/api/api_msg.c:1266:3
	cmn.w	r0, #12
	blt	.LBB8_48
	b	.LBB8_47
.LBB8_47:
.Ltmp406:
	.loc	3 1266 3                        @ rt-thread/components/net/lwip-2.0.2/src/api/api_msg.c:1266:3
	ldr	r1, [sp, #16]
	ldrb	r0, [r1, #4]
	ldr	r1, [r1]
	strb	r0, [r1, #8]
	b	.LBB8_48
.Ltmp407:
.LBB8_48:
	.loc	3 1266 3                        @ rt-thread/components/net/lwip-2.0.2/src/api/api_msg.c:1266:3
	bl	rt_exit_critical
	b	.LBB8_49
.Ltmp408:
.LBB8_49:
	.loc	3 1266 3                        @ rt-thread/components/net/lwip-2.0.2/src/api/api_msg.c:1266:3
	b	.LBB8_50
.Ltmp409:
.LBB8_50:
	.loc	3 1267 1 is_stmt 1              @ rt-thread/components/net/lwip-2.0.2/src/api/api_msg.c:1267:1
	add	sp, #24
	pop	{r7, pc}
.Ltmp410:
.Lfunc_end8:
	.size	lwip_netconn_do_connect, .Lfunc_end8-lwip_netconn_do_connect
	.cfi_endproc
	.cantunwind
	.fnend
                                        @ -- End function
	.section	.text.setup_tcp,"ax",%progbits
	.p2align	3                               @ -- Begin function setup_tcp
	.type	setup_tcp,%function
	.code	16                              @ @setup_tcp
	.thumb_func
setup_tcp:
.Lfunc_begin9:
	.loc	3 451 0                         @ rt-thread/components/net/lwip-2.0.2/src/api/api_msg.c:451:0
	.fnstart
	.cfi_startproc
@ %bb.0:
	.save	{r7, lr}
	push	{r7, lr}
	.cfi_def_cfa_offset 8
	.cfi_offset lr, -4
	.cfi_offset r7, -8
	.pad	#8
	sub	sp, #8
	.cfi_def_cfa_offset 16
	str	r0, [sp, #4]
.Ltmp411:
	.loc	3 454 9 prologue_end            @ rt-thread/components/net/lwip-2.0.2/src/api/api_msg.c:454:9
	ldr	r0, [sp, #4]
	.loc	3 454 19 is_stmt 0              @ rt-thread/components/net/lwip-2.0.2/src/api/api_msg.c:454:19
	ldr	r0, [r0, #4]
	.loc	3 454 7                         @ rt-thread/components/net/lwip-2.0.2/src/api/api_msg.c:454:7
	str	r0, [sp]
	.loc	3 455 11 is_stmt 1              @ rt-thread/components/net/lwip-2.0.2/src/api/api_msg.c:455:11
	ldr	r0, [sp]
	.loc	3 455 16 is_stmt 0              @ rt-thread/components/net/lwip-2.0.2/src/api/api_msg.c:455:16
	ldr	r1, [sp, #4]
	.loc	3 455 3                         @ rt-thread/components/net/lwip-2.0.2/src/api/api_msg.c:455:3
	bl	tcp_arg
	.loc	3 456 12 is_stmt 1              @ rt-thread/components/net/lwip-2.0.2/src/api/api_msg.c:456:12
	ldr	r0, [sp]
	.loc	3 456 3 is_stmt 0               @ rt-thread/components/net/lwip-2.0.2/src/api/api_msg.c:456:3
	movw	r1, :lower16:recv_tcp
	movt	r1, :upper16:recv_tcp
	bl	tcp_recv
	.loc	3 457 12 is_stmt 1              @ rt-thread/components/net/lwip-2.0.2/src/api/api_msg.c:457:12
	ldr	r0, [sp]
	.loc	3 457 3 is_stmt 0               @ rt-thread/components/net/lwip-2.0.2/src/api/api_msg.c:457:3
	movw	r1, :lower16:sent_tcp
	movt	r1, :upper16:sent_tcp
	bl	tcp_sent
	.loc	3 458 12 is_stmt 1              @ rt-thread/components/net/lwip-2.0.2/src/api/api_msg.c:458:12
	ldr	r0, [sp]
	.loc	3 458 3 is_stmt 0               @ rt-thread/components/net/lwip-2.0.2/src/api/api_msg.c:458:3
	movw	r1, :lower16:poll_tcp
	movt	r1, :upper16:poll_tcp
	movs	r2, #2
	bl	tcp_poll
	.loc	3 459 11 is_stmt 1              @ rt-thread/components/net/lwip-2.0.2/src/api/api_msg.c:459:11
	ldr	r0, [sp]
	.loc	3 459 3 is_stmt 0               @ rt-thread/components/net/lwip-2.0.2/src/api/api_msg.c:459:3
	movw	r1, :lower16:err_tcp
	movt	r1, :upper16:err_tcp
	bl	tcp_err
	.loc	3 460 1 is_stmt 1               @ rt-thread/components/net/lwip-2.0.2/src/api/api_msg.c:460:1
	add	sp, #8
	pop	{r7, pc}
.Ltmp412:
.Lfunc_end9:
	.size	setup_tcp, .Lfunc_end9-setup_tcp
	.cfi_endproc
	.cantunwind
	.fnend
                                        @ -- End function
	.section	.text.lwip_netconn_do_connected,"ax",%progbits
	.p2align	3                               @ -- Begin function lwip_netconn_do_connected
	.type	lwip_netconn_do_connected,%function
	.code	16                              @ @lwip_netconn_do_connected
	.thumb_func
lwip_netconn_do_connected:
.Lfunc_begin10:
	.loc	3 1157 0                        @ rt-thread/components/net/lwip-2.0.2/src/api/api_msg.c:1157:0
	.fnstart
	.cfi_startproc
@ %bb.0:
	.save	{r7, lr}
	push	{r7, lr}
	.cfi_def_cfa_offset 8
	.cfi_offset lr, -4
	.cfi_offset r7, -8
	.pad	#32
	sub	sp, #32
	.cfi_def_cfa_offset 40
                                        @ kill: def $r3 killed $r2
	str	r0, [sp, #24]
	str	r1, [sp, #20]
	strb.w	r2, [sp, #19]
	movs	r0, #0
.Ltmp413:
	.loc	3 1160 14 prologue_end          @ rt-thread/components/net/lwip-2.0.2/src/api/api_msg.c:1160:14
	str	r0, [sp, #4]
	.loc	3 1164 28                       @ rt-thread/components/net/lwip-2.0.2/src/api/api_msg.c:1164:28
	ldr	r0, [sp, #24]
	.loc	3 1164 8 is_stmt 0              @ rt-thread/components/net/lwip-2.0.2/src/api/api_msg.c:1164:8
	str	r0, [sp, #12]
.Ltmp414:
	.loc	3 1166 7 is_stmt 1              @ rt-thread/components/net/lwip-2.0.2/src/api/api_msg.c:1166:7
	ldr	r0, [sp, #12]
.Ltmp415:
	.loc	3 1166 7 is_stmt 0              @ rt-thread/components/net/lwip-2.0.2/src/api/api_msg.c:1166:7
	cbnz	r0, .LBB10_2
	b	.LBB10_1
.LBB10_1:
	.loc	3 0 7                           @ rt-thread/components/net/lwip-2.0.2/src/api/api_msg.c:0:7
	movs	r0, #250
.Ltmp416:
	.loc	3 1167 5 is_stmt 1              @ rt-thread/components/net/lwip-2.0.2/src/api/api_msg.c:1167:5
	strb.w	r0, [sp, #31]
	b	.LBB10_42
.Ltmp417:
.LBB10_2:
	.loc	3 1170 3                        @ rt-thread/components/net/lwip-2.0.2/src/api/api_msg.c:1170:3
	b	.LBB10_3
.LBB10_3:
.Ltmp418:
	.loc	3 1170 3 is_stmt 0              @ rt-thread/components/net/lwip-2.0.2/src/api/api_msg.c:1170:3
	ldr	r0, [sp, #12]
	ldrb	r0, [r0, #1]
.Ltmp419:
	.loc	3 1170 3                        @ rt-thread/components/net/lwip-2.0.2/src/api/api_msg.c:1170:3
	cmp	r0, #3
	beq	.LBB10_7
	b	.LBB10_4
.LBB10_4:
.Ltmp420:
	.loc	3 1170 3                        @ rt-thread/components/net/lwip-2.0.2/src/api/api_msg.c:1170:3
	b	.LBB10_5
.LBB10_5:
.Ltmp421:
	.loc	3 1170 3                        @ rt-thread/components/net/lwip-2.0.2/src/api/api_msg.c:1170:3
	movw	r0, :lower16:.L.str.29
	movt	r0, :upper16:.L.str.29
	bl	rt_kprintf
	movw	r0, :lower16:.L.str
	movt	r0, :upper16:.L.str
	movw	r1, #1170
	bl	sys_arch_assert
	b	.LBB10_6
.Ltmp422:
.LBB10_6:
	.loc	3 1170 3                        @ rt-thread/components/net/lwip-2.0.2/src/api/api_msg.c:1170:3
	b	.LBB10_7
.Ltmp423:
.LBB10_7:
	.loc	3 1170 3                        @ rt-thread/components/net/lwip-2.0.2/src/api/api_msg.c:1170:3
	b	.LBB10_8
.Ltmp424:
.LBB10_8:
	.loc	3 1171 3 is_stmt 1              @ rt-thread/components/net/lwip-2.0.2/src/api/api_msg.c:1171:3
	b	.LBB10_9
.LBB10_9:
.Ltmp425:
	.loc	3 1171 3 is_stmt 0              @ rt-thread/components/net/lwip-2.0.2/src/api/api_msg.c:1171:3
	ldr	r0, [sp, #12]
	ldr	r0, [r0, #52]
	cbnz	r0, .LBB10_14
	b	.LBB10_10
.LBB10_10:
	ldr	r0, [sp, #12]
	ldrb.w	r0, [r0, #44]
.Ltmp426:
	.loc	3 1171 3                        @ rt-thread/components/net/lwip-2.0.2/src/api/api_msg.c:1171:3
	lsls	r0, r0, #29
	cmp	r0, #0
	bmi	.LBB10_14
	b	.LBB10_11
.LBB10_11:
.Ltmp427:
	.loc	3 1171 3                        @ rt-thread/components/net/lwip-2.0.2/src/api/api_msg.c:1171:3
	b	.LBB10_12
.LBB10_12:
.Ltmp428:
	.loc	3 1171 3                        @ rt-thread/components/net/lwip-2.0.2/src/api/api_msg.c:1171:3
	movw	r0, :lower16:.L.str.30
	movt	r0, :upper16:.L.str.30
	bl	rt_kprintf
	movw	r0, :lower16:.L.str
	movt	r0, :upper16:.L.str
	movw	r1, #1172
	bl	sys_arch_assert
	b	.LBB10_13
.Ltmp429:
.LBB10_13:
	.loc	3 1171 3                        @ rt-thread/components/net/lwip-2.0.2/src/api/api_msg.c:1171:3
	b	.LBB10_14
.Ltmp430:
.LBB10_14:
	.loc	3 1171 3                        @ rt-thread/components/net/lwip-2.0.2/src/api/api_msg.c:1171:3
	b	.LBB10_15
.Ltmp431:
.LBB10_15:
	.loc	3 1174 7 is_stmt 1              @ rt-thread/components/net/lwip-2.0.2/src/api/api_msg.c:1174:7
	ldr	r0, [sp, #12]
	.loc	3 1174 13 is_stmt 0             @ rt-thread/components/net/lwip-2.0.2/src/api/api_msg.c:1174:13
	ldr	r0, [r0, #52]
.Ltmp432:
	.loc	3 1174 7                        @ rt-thread/components/net/lwip-2.0.2/src/api/api_msg.c:1174:7
	cbz	r0, .LBB10_17
	b	.LBB10_16
.LBB10_16:
.Ltmp433:
	.loc	3 1175 30 is_stmt 1             @ rt-thread/components/net/lwip-2.0.2/src/api/api_msg.c:1175:30
	ldrb.w	r0, [sp, #19]
	.loc	3 1175 5 is_stmt 0              @ rt-thread/components/net/lwip-2.0.2/src/api/api_msg.c:1175:5
	ldr	r1, [sp, #12]
	.loc	3 1175 11                       @ rt-thread/components/net/lwip-2.0.2/src/api/api_msg.c:1175:11
	ldr	r1, [r1, #52]
	.loc	3 1175 28                       @ rt-thread/components/net/lwip-2.0.2/src/api/api_msg.c:1175:28
	strb	r0, [r1, #4]
	.loc	3 1176 24 is_stmt 1             @ rt-thread/components/net/lwip-2.0.2/src/api/api_msg.c:1176:24
	ldr	r0, [sp, #12]
	ldr	r0, [r0, #52]
	ldr	r0, [r0]
	adds	r0, #12
	.loc	3 1176 22 is_stmt 0             @ rt-thread/components/net/lwip-2.0.2/src/api/api_msg.c:1176:22
	str	r0, [sp, #4]
	.loc	3 1177 3 is_stmt 1              @ rt-thread/components/net/lwip-2.0.2/src/api/api_msg.c:1177:3
	b	.LBB10_17
.Ltmp434:
.LBB10_17:
	.loc	3 1178 8                        @ rt-thread/components/net/lwip-2.0.2/src/api/api_msg.c:1178:8
	ldr	r0, [sp, #12]
	ldrb	r0, [r0]
	and	r0, r0, #240
	.loc	3 1178 54 is_stmt 0             @ rt-thread/components/net/lwip-2.0.2/src/api/api_msg.c:1178:54
	cmp	r0, #16
	bne	.LBB10_20
	b	.LBB10_18
.LBB10_18:
	.loc	3 1178 58                       @ rt-thread/components/net/lwip-2.0.2/src/api/api_msg.c:1178:58
	ldrsb.w	r0, [sp, #19]
.Ltmp435:
	.loc	3 1178 7                        @ rt-thread/components/net/lwip-2.0.2/src/api/api_msg.c:1178:7
	cbnz	r0, .LBB10_20
	b	.LBB10_19
.LBB10_19:
.Ltmp436:
	.loc	3 1179 15 is_stmt 1             @ rt-thread/components/net/lwip-2.0.2/src/api/api_msg.c:1179:15
	ldr	r0, [sp, #12]
	.loc	3 1179 5 is_stmt 0              @ rt-thread/components/net/lwip-2.0.2/src/api/api_msg.c:1179:5
	bl	setup_tcp
	.loc	3 1180 3 is_stmt 1              @ rt-thread/components/net/lwip-2.0.2/src/api/api_msg.c:1180:3
	b	.LBB10_20
.Ltmp437:
.LBB10_20:
	.loc	3 1181 19                       @ rt-thread/components/net/lwip-2.0.2/src/api/api_msg.c:1181:19
	ldr	r0, [sp, #12]
	ldrb.w	r0, [r0, #44]
	and	r1, r0, #4
	movs	r0, #1
	eor.w	r0, r0, r1, lsr #2
	.loc	3 1181 16 is_stmt 0             @ rt-thread/components/net/lwip-2.0.2/src/api/api_msg.c:1181:16
	str	r0, [sp, #8]
	.loc	3 1182 3 is_stmt 1              @ rt-thread/components/net/lwip-2.0.2/src/api/api_msg.c:1182:3
	b	.LBB10_21
.LBB10_21:
.Ltmp438:
	.loc	3 1182 3 is_stmt 0              @ rt-thread/components/net/lwip-2.0.2/src/api/api_msg.c:1182:3
	ldr	r1, [sp, #12]
	ldrb.w	r0, [r1, #44]
	and	r0, r0, #251
	strb.w	r0, [r1, #44]
.Ltmp439:
	.loc	3 1182 3                        @ rt-thread/components/net/lwip-2.0.2/src/api/api_msg.c:1182:3
	b	.LBB10_22
.Ltmp440:
.LBB10_22:
	.loc	3 1183 3 is_stmt 1              @ rt-thread/components/net/lwip-2.0.2/src/api/api_msg.c:1183:3
	b	.LBB10_23
.LBB10_23:
.Ltmp441:
	.loc	3 1183 3 is_stmt 0              @ rt-thread/components/net/lwip-2.0.2/src/api/api_msg.c:1183:3
	ldr	r0, [sp, #8]
	cbz	r0, .LBB10_25
	b	.LBB10_24
.LBB10_24:
	ldr	r0, [sp, #4]
	cbnz	r0, .LBB10_30
	b	.LBB10_25
.LBB10_25:
	ldr	r0, [sp, #8]
	cbnz	r0, .LBB10_27
	b	.LBB10_26
.LBB10_26:
	ldr	r0, [sp, #4]
.Ltmp442:
	.loc	3 1183 3                        @ rt-thread/components/net/lwip-2.0.2/src/api/api_msg.c:1183:3
	cbz	r0, .LBB10_30
	b	.LBB10_27
.LBB10_27:
.Ltmp443:
	.loc	3 1183 3                        @ rt-thread/components/net/lwip-2.0.2/src/api/api_msg.c:1183:3
	b	.LBB10_28
.LBB10_28:
.Ltmp444:
	.loc	3 1183 3                        @ rt-thread/components/net/lwip-2.0.2/src/api/api_msg.c:1183:3
	movw	r0, :lower16:.L.str.31
	movt	r0, :upper16:.L.str.31
	bl	rt_kprintf
	movw	r0, :lower16:.L.str
	movt	r0, :upper16:.L.str
	movw	r1, #1185
	bl	sys_arch_assert
	b	.LBB10_29
.Ltmp445:
.LBB10_29:
	.loc	3 1183 3                        @ rt-thread/components/net/lwip-2.0.2/src/api/api_msg.c:1183:3
	b	.LBB10_30
.Ltmp446:
.LBB10_30:
	.loc	3 1183 3                        @ rt-thread/components/net/lwip-2.0.2/src/api/api_msg.c:1183:3
	b	.LBB10_31
.Ltmp447:
.LBB10_31:
	.loc	3 1186 3 is_stmt 1              @ rt-thread/components/net/lwip-2.0.2/src/api/api_msg.c:1186:3
	ldr	r1, [sp, #12]
	movs	r0, #0
	.loc	3 1186 21 is_stmt 0             @ rt-thread/components/net/lwip-2.0.2/src/api/api_msg.c:1186:21
	str	r0, [r1, #52]
	.loc	3 1187 3 is_stmt 1              @ rt-thread/components/net/lwip-2.0.2/src/api/api_msg.c:1187:3
	ldr	r1, [sp, #12]
	.loc	3 1187 15 is_stmt 0             @ rt-thread/components/net/lwip-2.0.2/src/api/api_msg.c:1187:15
	strb	r0, [r1, #1]
	.loc	3 1188 3 is_stmt 1              @ rt-thread/components/net/lwip-2.0.2/src/api/api_msg.c:1188:3
	b	.LBB10_32
.LBB10_32:
.Ltmp448:
	.loc	3 1188 3 is_stmt 0              @ rt-thread/components/net/lwip-2.0.2/src/api/api_msg.c:1188:3
	ldr	r0, [sp, #12]
.Ltmp449:
	.loc	3 1188 3                        @ rt-thread/components/net/lwip-2.0.2/src/api/api_msg.c:1188:3
	cbz	r0, .LBB10_36
	b	.LBB10_33
.LBB10_33:
.Ltmp450:
	.loc	3 1188 3                        @ rt-thread/components/net/lwip-2.0.2/src/api/api_msg.c:1188:3
	bl	rt_enter_critical
.Ltmp451:
	.loc	3 1188 3                        @ rt-thread/components/net/lwip-2.0.2/src/api/api_msg.c:1188:3
	ldr	r0, [sp, #12]
	ldrsb.w	r0, [r0, #8]
.Ltmp452:
	.loc	3 1188 3                        @ rt-thread/components/net/lwip-2.0.2/src/api/api_msg.c:1188:3
	cmn.w	r0, #12
	blt	.LBB10_35
	b	.LBB10_34
.LBB10_34:
.Ltmp453:
	.loc	3 1188 3                        @ rt-thread/components/net/lwip-2.0.2/src/api/api_msg.c:1188:3
	ldr	r1, [sp, #12]
	movs	r0, #0
	strb	r0, [r1, #8]
	b	.LBB10_35
.Ltmp454:
.LBB10_35:
	.loc	3 1188 3                        @ rt-thread/components/net/lwip-2.0.2/src/api/api_msg.c:1188:3
	bl	rt_exit_critical
	b	.LBB10_36
.Ltmp455:
.LBB10_36:
	.loc	3 1188 3                        @ rt-thread/components/net/lwip-2.0.2/src/api/api_msg.c:1188:3
	b	.LBB10_37
.Ltmp456:
.LBB10_37:
	.loc	3 1189 3 is_stmt 1              @ rt-thread/components/net/lwip-2.0.2/src/api/api_msg.c:1189:3
	ldr	r0, [sp, #12]
	ldr	r0, [r0, #56]
.Ltmp457:
	.loc	3 1189 3 is_stmt 0              @ rt-thread/components/net/lwip-2.0.2/src/api/api_msg.c:1189:3
	cbz	r0, .LBB10_39
	b	.LBB10_38
.LBB10_38:
.Ltmp458:
	.loc	3 1189 3                        @ rt-thread/components/net/lwip-2.0.2/src/api/api_msg.c:1189:3
	ldr	r0, [sp, #12]
	ldr	r3, [r0, #56]
	movs	r1, #2
	movs	r2, #0
	blx	r3
	b	.LBB10_39
.Ltmp459:
.LBB10_39:
	.loc	3 1191 7 is_stmt 1              @ rt-thread/components/net/lwip-2.0.2/src/api/api_msg.c:1191:7
	ldr	r0, [sp, #8]
.Ltmp460:
	.loc	3 1191 7 is_stmt 0              @ rt-thread/components/net/lwip-2.0.2/src/api/api_msg.c:1191:7
	cbz	r0, .LBB10_41
	b	.LBB10_40
.LBB10_40:
.Ltmp461:
	.loc	3 1192 20 is_stmt 1             @ rt-thread/components/net/lwip-2.0.2/src/api/api_msg.c:1192:20
	ldr	r0, [sp, #4]
	.loc	3 1192 5 is_stmt 0              @ rt-thread/components/net/lwip-2.0.2/src/api/api_msg.c:1192:5
	bl	sys_sem_signal
	.loc	3 1193 3 is_stmt 1              @ rt-thread/components/net/lwip-2.0.2/src/api/api_msg.c:1193:3
	b	.LBB10_41
.Ltmp462:
.LBB10_41:
	.loc	3 0 3 is_stmt 0                 @ rt-thread/components/net/lwip-2.0.2/src/api/api_msg.c:0:3
	movs	r0, #0
	.loc	3 1194 3 is_stmt 1              @ rt-thread/components/net/lwip-2.0.2/src/api/api_msg.c:1194:3
	strb.w	r0, [sp, #31]
	b	.LBB10_42
.LBB10_42:
	.loc	3 1195 1                        @ rt-thread/components/net/lwip-2.0.2/src/api/api_msg.c:1195:1
	ldrsb.w	r0, [sp, #31]
	add	sp, #32
	pop	{r7, pc}
.Ltmp463:
.Lfunc_end10:
	.size	lwip_netconn_do_connected, .Lfunc_end10-lwip_netconn_do_connected
	.cfi_endproc
	.cantunwind
	.fnend
                                        @ -- End function
	.section	.text.lwip_netconn_do_disconnect,"ax",%progbits
	.hidden	lwip_netconn_do_disconnect      @ -- Begin function lwip_netconn_do_disconnect
	.globl	lwip_netconn_do_disconnect
	.p2align	3
	.type	lwip_netconn_do_disconnect,%function
	.code	16                              @ @lwip_netconn_do_disconnect
	.thumb_func
lwip_netconn_do_disconnect:
.Lfunc_begin11:
	.loc	3 1278 0                        @ rt-thread/components/net/lwip-2.0.2/src/api/api_msg.c:1278:0
	.fnstart
	.cfi_startproc
@ %bb.0:
	.save	{r7, lr}
	push	{r7, lr}
	.cfi_def_cfa_offset 8
	.cfi_offset lr, -4
	.cfi_offset r7, -8
	.pad	#8
	sub	sp, #8
	.cfi_def_cfa_offset 16
	str	r0, [sp, #4]
.Ltmp464:
	.loc	3 1279 42 prologue_end          @ rt-thread/components/net/lwip-2.0.2/src/api/api_msg.c:1279:42
	ldr	r0, [sp, #4]
	.loc	3 1279 19 is_stmt 0             @ rt-thread/components/net/lwip-2.0.2/src/api/api_msg.c:1279:19
	str	r0, [sp]
.Ltmp465:
	.loc	3 1282 7 is_stmt 1              @ rt-thread/components/net/lwip-2.0.2/src/api/api_msg.c:1282:7
	ldr	r0, [sp]
	ldr	r0, [r0]
	ldrb	r0, [r0]
	and	r0, r0, #240
.Ltmp466:
	.loc	3 1282 7 is_stmt 0              @ rt-thread/components/net/lwip-2.0.2/src/api/api_msg.c:1282:7
	cmp	r0, #32
	bne	.LBB11_2
	b	.LBB11_1
.LBB11_1:
.Ltmp467:
	.loc	3 1283 20 is_stmt 1             @ rt-thread/components/net/lwip-2.0.2/src/api/api_msg.c:1283:20
	ldr	r0, [sp]
	.loc	3 1283 25 is_stmt 0             @ rt-thread/components/net/lwip-2.0.2/src/api/api_msg.c:1283:25
	ldr	r0, [r0]
	.loc	3 1283 35                       @ rt-thread/components/net/lwip-2.0.2/src/api/api_msg.c:1283:35
	ldr	r0, [r0, #4]
	.loc	3 1283 5                        @ rt-thread/components/net/lwip-2.0.2/src/api/api_msg.c:1283:5
	bl	udp_disconnect
	.loc	3 1284 5 is_stmt 1              @ rt-thread/components/net/lwip-2.0.2/src/api/api_msg.c:1284:5
	ldr	r1, [sp]
	movs	r0, #0
	.loc	3 1284 14 is_stmt 0             @ rt-thread/components/net/lwip-2.0.2/src/api/api_msg.c:1284:14
	strb	r0, [r1, #4]
	.loc	3 1285 3 is_stmt 1              @ rt-thread/components/net/lwip-2.0.2/src/api/api_msg.c:1285:3
	b	.LBB11_3
.Ltmp468:
.LBB11_2:
	.loc	3 1288 5                        @ rt-thread/components/net/lwip-2.0.2/src/api/api_msg.c:1288:5
	ldr	r1, [sp]
	movs	r0, #250
	.loc	3 1288 14 is_stmt 0             @ rt-thread/components/net/lwip-2.0.2/src/api/api_msg.c:1288:14
	strb	r0, [r1, #4]
	b	.LBB11_3
.Ltmp469:
.LBB11_3:
	.loc	3 1290 3 is_stmt 1              @ rt-thread/components/net/lwip-2.0.2/src/api/api_msg.c:1290:3
	b	.LBB11_4
.LBB11_4:
.Ltmp470:
	.loc	3 1290 3 is_stmt 0              @ rt-thread/components/net/lwip-2.0.2/src/api/api_msg.c:1290:3
	ldr	r0, [sp]
	ldr	r0, [r0]
.Ltmp471:
	.loc	3 1290 3                        @ rt-thread/components/net/lwip-2.0.2/src/api/api_msg.c:1290:3
	cbz	r0, .LBB11_8
	b	.LBB11_5
.LBB11_5:
.Ltmp472:
	.loc	3 1290 3                        @ rt-thread/components/net/lwip-2.0.2/src/api/api_msg.c:1290:3
	bl	rt_enter_critical
.Ltmp473:
	.loc	3 1290 3                        @ rt-thread/components/net/lwip-2.0.2/src/api/api_msg.c:1290:3
	ldr	r0, [sp]
	ldr	r0, [r0]
	ldrsb.w	r0, [r0, #8]
.Ltmp474:
	.loc	3 1290 3                        @ rt-thread/components/net/lwip-2.0.2/src/api/api_msg.c:1290:3
	cmn.w	r0, #12
	blt	.LBB11_7
	b	.LBB11_6
.LBB11_6:
.Ltmp475:
	.loc	3 1290 3                        @ rt-thread/components/net/lwip-2.0.2/src/api/api_msg.c:1290:3
	ldr	r1, [sp]
	ldrb	r0, [r1, #4]
	ldr	r1, [r1]
	strb	r0, [r1, #8]
	b	.LBB11_7
.Ltmp476:
.LBB11_7:
	.loc	3 1290 3                        @ rt-thread/components/net/lwip-2.0.2/src/api/api_msg.c:1290:3
	bl	rt_exit_critical
	b	.LBB11_8
.Ltmp477:
.LBB11_8:
	.loc	3 1290 3                        @ rt-thread/components/net/lwip-2.0.2/src/api/api_msg.c:1290:3
	b	.LBB11_9
.Ltmp478:
.LBB11_9:
	.loc	3 1291 1 is_stmt 1              @ rt-thread/components/net/lwip-2.0.2/src/api/api_msg.c:1291:1
	add	sp, #8
	pop	{r7, pc}
.Ltmp479:
.Lfunc_end11:
	.size	lwip_netconn_do_disconnect, .Lfunc_end11-lwip_netconn_do_disconnect
	.cfi_endproc
	.cantunwind
	.fnend
                                        @ -- End function
	.section	.text.lwip_netconn_do_listen,"ax",%progbits
	.hidden	lwip_netconn_do_listen          @ -- Begin function lwip_netconn_do_listen
	.globl	lwip_netconn_do_listen
	.p2align	3
	.type	lwip_netconn_do_listen,%function
	.code	16                              @ @lwip_netconn_do_listen
	.thumb_func
lwip_netconn_do_listen:
.Lfunc_begin12:
	.loc	3 1302 0                        @ rt-thread/components/net/lwip-2.0.2/src/api/api_msg.c:1302:0
	.fnstart
	.cfi_startproc
@ %bb.0:
	.save	{r7, lr}
	push	{r7, lr}
	.cfi_def_cfa_offset 8
	.cfi_offset lr, -4
	.cfi_offset r7, -8
	.pad	#16
	sub	sp, #16
	.cfi_def_cfa_offset 24
	str	r0, [sp, #12]
.Ltmp480:
	.loc	3 1303 42 prologue_end          @ rt-thread/components/net/lwip-2.0.2/src/api/api_msg.c:1303:42
	ldr	r0, [sp, #12]
	.loc	3 1303 19 is_stmt 0             @ rt-thread/components/net/lwip-2.0.2/src/api/api_msg.c:1303:19
	str	r0, [sp, #8]
.Ltmp481:
	.loc	3 1305 7 is_stmt 1              @ rt-thread/components/net/lwip-2.0.2/src/api/api_msg.c:1305:7
	ldr	r0, [sp, #8]
	ldr	r0, [r0]
	ldrsb.w	r0, [r0, #8]
.Ltmp482:
	.loc	3 1305 7 is_stmt 0              @ rt-thread/components/net/lwip-2.0.2/src/api/api_msg.c:1305:7
	cmn.w	r0, #13
	bgt	.LBB12_2
	b	.LBB12_1
.LBB12_1:
.Ltmp483:
	.loc	3 1306 16 is_stmt 1             @ rt-thread/components/net/lwip-2.0.2/src/api/api_msg.c:1306:16
	ldr	r1, [sp, #8]
	.loc	3 1306 21 is_stmt 0             @ rt-thread/components/net/lwip-2.0.2/src/api/api_msg.c:1306:21
	ldr	r0, [r1]
	.loc	3 1306 27                       @ rt-thread/components/net/lwip-2.0.2/src/api/api_msg.c:1306:27
	ldrb	r0, [r0, #8]
	.loc	3 1306 14                       @ rt-thread/components/net/lwip-2.0.2/src/api/api_msg.c:1306:14
	strb	r0, [r1, #4]
	.loc	3 1307 3 is_stmt 1              @ rt-thread/components/net/lwip-2.0.2/src/api/api_msg.c:1307:3
	b	.LBB12_26
.Ltmp484:
.LBB12_2:
	.loc	3 1308 5                        @ rt-thread/components/net/lwip-2.0.2/src/api/api_msg.c:1308:5
	ldr	r1, [sp, #8]
	movs	r0, #245
	.loc	3 1308 14 is_stmt 0             @ rt-thread/components/net/lwip-2.0.2/src/api/api_msg.c:1308:14
	strb	r0, [r1, #4]
.Ltmp485:
	.loc	3 1309 9 is_stmt 1              @ rt-thread/components/net/lwip-2.0.2/src/api/api_msg.c:1309:9
	ldr	r0, [sp, #8]
	.loc	3 1309 14 is_stmt 0             @ rt-thread/components/net/lwip-2.0.2/src/api/api_msg.c:1309:14
	ldr	r0, [r0]
	.loc	3 1309 24                       @ rt-thread/components/net/lwip-2.0.2/src/api/api_msg.c:1309:24
	ldr	r0, [r0, #4]
.Ltmp486:
	.loc	3 1309 9                        @ rt-thread/components/net/lwip-2.0.2/src/api/api_msg.c:1309:9
	cmp	r0, #0
	beq.w	.LBB12_25
	b	.LBB12_3
.LBB12_3:
.Ltmp487:
	.loc	3 1310 11 is_stmt 1             @ rt-thread/components/net/lwip-2.0.2/src/api/api_msg.c:1310:11
	ldr	r0, [sp, #8]
	ldr	r0, [r0]
	ldrb	r0, [r0]
	and	r0, r0, #240
.Ltmp488:
	.loc	3 1310 11 is_stmt 0             @ rt-thread/components/net/lwip-2.0.2/src/api/api_msg.c:1310:11
	cmp	r0, #16
	bne	.LBB12_23
	b	.LBB12_4
.LBB12_4:
.Ltmp489:
	.loc	3 1311 13 is_stmt 1             @ rt-thread/components/net/lwip-2.0.2/src/api/api_msg.c:1311:13
	ldr	r0, [sp, #8]
	.loc	3 1311 18 is_stmt 0             @ rt-thread/components/net/lwip-2.0.2/src/api/api_msg.c:1311:18
	ldr	r0, [r0]
	.loc	3 1311 24                       @ rt-thread/components/net/lwip-2.0.2/src/api/api_msg.c:1311:24
	ldrb	r0, [r0, #1]
.Ltmp490:
	.loc	3 1311 13                       @ rt-thread/components/net/lwip-2.0.2/src/api/api_msg.c:1311:13
	cmp	r0, #0
	bne	.LBB12_19
	b	.LBB12_5
.LBB12_5:
.Ltmp491:
	.loc	3 1313 15 is_stmt 1             @ rt-thread/components/net/lwip-2.0.2/src/api/api_msg.c:1313:15
	ldr	r0, [sp, #8]
	.loc	3 1313 20 is_stmt 0             @ rt-thread/components/net/lwip-2.0.2/src/api/api_msg.c:1313:20
	ldr	r0, [r0]
	.loc	3 1313 30                       @ rt-thread/components/net/lwip-2.0.2/src/api/api_msg.c:1313:30
	ldr	r0, [r0, #4]
	.loc	3 1313 35                       @ rt-thread/components/net/lwip-2.0.2/src/api/api_msg.c:1313:35
	ldrb	r0, [r0, #20]
.Ltmp492:
	.loc	3 1313 15                       @ rt-thread/components/net/lwip-2.0.2/src/api/api_msg.c:1313:15
	cbz	r0, .LBB12_7
	b	.LBB12_6
.LBB12_6:
.Ltmp493:
	.loc	3 1315 13 is_stmt 1             @ rt-thread/components/net/lwip-2.0.2/src/api/api_msg.c:1315:13
	ldr	r1, [sp, #8]
	movs	r0, #250
	.loc	3 1315 22 is_stmt 0             @ rt-thread/components/net/lwip-2.0.2/src/api/api_msg.c:1315:22
	strb	r0, [r1, #4]
	.loc	3 1316 11 is_stmt 1             @ rt-thread/components/net/lwip-2.0.2/src/api/api_msg.c:1316:11
	b	.LBB12_18
.Ltmp494:
.LBB12_7:
	.loc	3 0 11 is_stmt 0                @ rt-thread/components/net/lwip-2.0.2/src/api/api_msg.c:0:11
	movs	r0, #255
.Ltmp495:
	.loc	3 1322 21 is_stmt 1             @ rt-thread/components/net/lwip-2.0.2/src/api/api_msg.c:1322:21
	strb.w	r0, [sp, #2]
	.loc	3 1336 52                       @ rt-thread/components/net/lwip-2.0.2/src/api/api_msg.c:1336:52
	ldr	r0, [sp, #8]
	.loc	3 1336 57 is_stmt 0             @ rt-thread/components/net/lwip-2.0.2/src/api/api_msg.c:1336:57
	ldr	r0, [r0]
	.loc	3 1336 67                       @ rt-thread/components/net/lwip-2.0.2/src/api/api_msg.c:1336:67
	ldr	r0, [r0, #4]
	.loc	3 1336 72                       @ rt-thread/components/net/lwip-2.0.2/src/api/api_msg.c:1336:72
	ldrb.w	r1, [sp, #2]
	add.w	r2, sp, #3
	.loc	3 1336 20                       @ rt-thread/components/net/lwip-2.0.2/src/api/api_msg.c:1336:20
	bl	tcp_listen_with_backlog_and_err
	.loc	3 1336 18                       @ rt-thread/components/net/lwip-2.0.2/src/api/api_msg.c:1336:18
	str	r0, [sp, #4]
.Ltmp496:
	.loc	3 1338 17 is_stmt 1             @ rt-thread/components/net/lwip-2.0.2/src/api/api_msg.c:1338:17
	ldr	r0, [sp, #4]
.Ltmp497:
	.loc	3 1338 17 is_stmt 0             @ rt-thread/components/net/lwip-2.0.2/src/api/api_msg.c:1338:17
	cbnz	r0, .LBB12_9
	b	.LBB12_8
.LBB12_8:
.Ltmp498:
	.loc	3 1340 26 is_stmt 1             @ rt-thread/components/net/lwip-2.0.2/src/api/api_msg.c:1340:26
	ldrb.w	r0, [sp, #3]
	.loc	3 1340 15 is_stmt 0             @ rt-thread/components/net/lwip-2.0.2/src/api/api_msg.c:1340:15
	ldr	r1, [sp, #8]
	.loc	3 1340 24                       @ rt-thread/components/net/lwip-2.0.2/src/api/api_msg.c:1340:24
	strb	r0, [r1, #4]
	.loc	3 1341 13 is_stmt 1             @ rt-thread/components/net/lwip-2.0.2/src/api/api_msg.c:1341:13
	b	.LBB12_17
.Ltmp499:
.LBB12_9:
	.loc	3 1343 35                       @ rt-thread/components/net/lwip-2.0.2/src/api/api_msg.c:1343:35
	ldr	r0, [sp, #8]
	.loc	3 1343 40 is_stmt 0             @ rt-thread/components/net/lwip-2.0.2/src/api/api_msg.c:1343:40
	ldr	r0, [r0]
	.loc	3 1343 46                       @ rt-thread/components/net/lwip-2.0.2/src/api/api_msg.c:1343:46
	adds	r0, #16
	.loc	3 1343 19                       @ rt-thread/components/net/lwip-2.0.2/src/api/api_msg.c:1343:19
	bl	sys_mbox_valid
.Ltmp500:
	.loc	3 1343 19                       @ rt-thread/components/net/lwip-2.0.2/src/api/api_msg.c:1343:19
	cbz	r0, .LBB12_11
	b	.LBB12_10
.LBB12_10:
.Ltmp501:
	.loc	3 1345 32 is_stmt 1             @ rt-thread/components/net/lwip-2.0.2/src/api/api_msg.c:1345:32
	ldr	r0, [sp, #8]
	.loc	3 1345 37 is_stmt 0             @ rt-thread/components/net/lwip-2.0.2/src/api/api_msg.c:1345:37
	ldr	r0, [r0]
	.loc	3 1345 43                       @ rt-thread/components/net/lwip-2.0.2/src/api/api_msg.c:1345:43
	adds	r0, #16
	.loc	3 1345 17                       @ rt-thread/components/net/lwip-2.0.2/src/api/api_msg.c:1345:17
	bl	sys_mbox_free
	.loc	3 1346 39 is_stmt 1             @ rt-thread/components/net/lwip-2.0.2/src/api/api_msg.c:1346:39
	ldr	r0, [sp, #8]
	.loc	3 1346 44 is_stmt 0             @ rt-thread/components/net/lwip-2.0.2/src/api/api_msg.c:1346:44
	ldr	r0, [r0]
	.loc	3 1346 50                       @ rt-thread/components/net/lwip-2.0.2/src/api/api_msg.c:1346:50
	adds	r0, #16
	.loc	3 1346 17                       @ rt-thread/components/net/lwip-2.0.2/src/api/api_msg.c:1346:17
	bl	sys_mbox_set_invalid
	.loc	3 1347 15 is_stmt 1             @ rt-thread/components/net/lwip-2.0.2/src/api/api_msg.c:1347:15
	b	.LBB12_11
.Ltmp502:
.LBB12_11:
	.loc	3 1348 15                       @ rt-thread/components/net/lwip-2.0.2/src/api/api_msg.c:1348:15
	ldr	r1, [sp, #8]
	movs	r0, #0
	.loc	3 1348 24 is_stmt 0             @ rt-thread/components/net/lwip-2.0.2/src/api/api_msg.c:1348:24
	strb	r0, [r1, #4]
.Ltmp503:
	.loc	3 1349 36 is_stmt 1             @ rt-thread/components/net/lwip-2.0.2/src/api/api_msg.c:1349:36
	ldr	r0, [sp, #8]
	.loc	3 1349 41 is_stmt 0             @ rt-thread/components/net/lwip-2.0.2/src/api/api_msg.c:1349:41
	ldr	r0, [r0]
	.loc	3 1349 47                       @ rt-thread/components/net/lwip-2.0.2/src/api/api_msg.c:1349:47
	adds	r0, #20
	.loc	3 1349 20                       @ rt-thread/components/net/lwip-2.0.2/src/api/api_msg.c:1349:20
	bl	sys_mbox_valid
.Ltmp504:
	.loc	3 1349 19                       @ rt-thread/components/net/lwip-2.0.2/src/api/api_msg.c:1349:19
	cbnz	r0, .LBB12_13
	b	.LBB12_12
.LBB12_12:
.Ltmp505:
	.loc	3 1350 42 is_stmt 1             @ rt-thread/components/net/lwip-2.0.2/src/api/api_msg.c:1350:42
	ldr	r0, [sp, #8]
	.loc	3 1350 47 is_stmt 0             @ rt-thread/components/net/lwip-2.0.2/src/api/api_msg.c:1350:47
	ldr	r0, [r0]
	.loc	3 1350 53                       @ rt-thread/components/net/lwip-2.0.2/src/api/api_msg.c:1350:53
	adds	r0, #20
	movs	r1, #10
	.loc	3 1350 28                       @ rt-thread/components/net/lwip-2.0.2/src/api/api_msg.c:1350:28
	bl	sys_mbox_new
	.loc	3 1350 17                       @ rt-thread/components/net/lwip-2.0.2/src/api/api_msg.c:1350:17
	ldr	r1, [sp, #8]
	.loc	3 1350 26                       @ rt-thread/components/net/lwip-2.0.2/src/api/api_msg.c:1350:26
	strb	r0, [r1, #4]
	.loc	3 1351 15 is_stmt 1             @ rt-thread/components/net/lwip-2.0.2/src/api/api_msg.c:1351:15
	b	.LBB12_13
.Ltmp506:
.LBB12_13:
	.loc	3 1352 19                       @ rt-thread/components/net/lwip-2.0.2/src/api/api_msg.c:1352:19
	ldr	r0, [sp, #8]
	.loc	3 1352 24 is_stmt 0             @ rt-thread/components/net/lwip-2.0.2/src/api/api_msg.c:1352:24
	ldrsb.w	r0, [r0, #4]
.Ltmp507:
	.loc	3 1352 19                       @ rt-thread/components/net/lwip-2.0.2/src/api/api_msg.c:1352:19
	cbnz	r0, .LBB12_15
	b	.LBB12_14
.LBB12_14:
.Ltmp508:
	.loc	3 1353 17 is_stmt 1             @ rt-thread/components/net/lwip-2.0.2/src/api/api_msg.c:1353:17
	ldr	r0, [sp, #8]
	.loc	3 1353 22 is_stmt 0             @ rt-thread/components/net/lwip-2.0.2/src/api/api_msg.c:1353:22
	ldr	r1, [r0]
	movs	r0, #2
	.loc	3 1353 34                       @ rt-thread/components/net/lwip-2.0.2/src/api/api_msg.c:1353:34
	strb	r0, [r1, #1]
	.loc	3 1354 38 is_stmt 1             @ rt-thread/components/net/lwip-2.0.2/src/api/api_msg.c:1354:38
	ldr	r0, [sp, #4]
	.loc	3 1354 17 is_stmt 0             @ rt-thread/components/net/lwip-2.0.2/src/api/api_msg.c:1354:17
	ldr	r1, [sp, #8]
	.loc	3 1354 22                       @ rt-thread/components/net/lwip-2.0.2/src/api/api_msg.c:1354:22
	ldr	r1, [r1]
	.loc	3 1354 36                       @ rt-thread/components/net/lwip-2.0.2/src/api/api_msg.c:1354:36
	str	r0, [r1, #4]
	.loc	3 1355 25 is_stmt 1             @ rt-thread/components/net/lwip-2.0.2/src/api/api_msg.c:1355:25
	ldr	r0, [sp, #8]
	.loc	3 1355 30 is_stmt 0             @ rt-thread/components/net/lwip-2.0.2/src/api/api_msg.c:1355:30
	ldr	r1, [r0]
	.loc	3 1355 40                       @ rt-thread/components/net/lwip-2.0.2/src/api/api_msg.c:1355:40
	ldr	r0, [r1, #4]
	.loc	3 1355 17                       @ rt-thread/components/net/lwip-2.0.2/src/api/api_msg.c:1355:17
	bl	tcp_arg
	.loc	3 1356 28 is_stmt 1             @ rt-thread/components/net/lwip-2.0.2/src/api/api_msg.c:1356:28
	ldr	r0, [sp, #8]
	.loc	3 1356 33 is_stmt 0             @ rt-thread/components/net/lwip-2.0.2/src/api/api_msg.c:1356:33
	ldr	r0, [r0]
	.loc	3 1356 43                       @ rt-thread/components/net/lwip-2.0.2/src/api/api_msg.c:1356:43
	ldr	r0, [r0, #4]
	.loc	3 1356 17                       @ rt-thread/components/net/lwip-2.0.2/src/api/api_msg.c:1356:17
	movw	r1, :lower16:accept_function
	movt	r1, :upper16:accept_function
	bl	tcp_accept
	.loc	3 1357 15 is_stmt 1             @ rt-thread/components/net/lwip-2.0.2/src/api/api_msg.c:1357:15
	b	.LBB12_16
.Ltmp509:
.LBB12_15:
	.loc	3 1359 27                       @ rt-thread/components/net/lwip-2.0.2/src/api/api_msg.c:1359:27
	ldr	r0, [sp, #4]
	.loc	3 1359 17 is_stmt 0             @ rt-thread/components/net/lwip-2.0.2/src/api/api_msg.c:1359:17
	bl	tcp_close
	.loc	3 1360 17 is_stmt 1             @ rt-thread/components/net/lwip-2.0.2/src/api/api_msg.c:1360:17
	ldr	r0, [sp, #8]
	.loc	3 1360 22 is_stmt 0             @ rt-thread/components/net/lwip-2.0.2/src/api/api_msg.c:1360:22
	ldr	r1, [r0]
	movs	r0, #0
	.loc	3 1360 36                       @ rt-thread/components/net/lwip-2.0.2/src/api/api_msg.c:1360:36
	str	r0, [r1, #4]
	b	.LBB12_16
.Ltmp510:
.LBB12_16:
	.loc	3 0 36                          @ rt-thread/components/net/lwip-2.0.2/src/api/api_msg.c:0:36
	b	.LBB12_17
.LBB12_17:
	b	.LBB12_18
.LBB12_18:
	.loc	3 1364 9 is_stmt 1              @ rt-thread/components/net/lwip-2.0.2/src/api/api_msg.c:1364:9
	b	.LBB12_22
.Ltmp511:
.LBB12_19:
	.loc	3 1364 20 is_stmt 0             @ rt-thread/components/net/lwip-2.0.2/src/api/api_msg.c:1364:20
	ldr	r0, [sp, #8]
	.loc	3 1364 25                       @ rt-thread/components/net/lwip-2.0.2/src/api/api_msg.c:1364:25
	ldr	r0, [r0]
	.loc	3 1364 31                       @ rt-thread/components/net/lwip-2.0.2/src/api/api_msg.c:1364:31
	ldrb	r0, [r0, #1]
.Ltmp512:
	.loc	3 1364 20                       @ rt-thread/components/net/lwip-2.0.2/src/api/api_msg.c:1364:20
	cmp	r0, #2
	bne	.LBB12_21
	b	.LBB12_20
.LBB12_20:
.Ltmp513:
	.loc	3 1366 11 is_stmt 1             @ rt-thread/components/net/lwip-2.0.2/src/api/api_msg.c:1366:11
	ldr	r1, [sp, #8]
	movs	r0, #0
	.loc	3 1366 20 is_stmt 0             @ rt-thread/components/net/lwip-2.0.2/src/api/api_msg.c:1366:20
	strb	r0, [r1, #4]
	.loc	3 1368 9 is_stmt 1              @ rt-thread/components/net/lwip-2.0.2/src/api/api_msg.c:1368:9
	b	.LBB12_21
.Ltmp514:
.LBB12_21:
	.loc	3 0 9 is_stmt 0                 @ rt-thread/components/net/lwip-2.0.2/src/api/api_msg.c:0:9
	b	.LBB12_22
.LBB12_22:
	.loc	3 1369 7 is_stmt 1              @ rt-thread/components/net/lwip-2.0.2/src/api/api_msg.c:1369:7
	b	.LBB12_24
.Ltmp515:
.LBB12_23:
	.loc	3 1370 9                        @ rt-thread/components/net/lwip-2.0.2/src/api/api_msg.c:1370:9
	ldr	r1, [sp, #8]
	movs	r0, #240
	.loc	3 1370 18 is_stmt 0             @ rt-thread/components/net/lwip-2.0.2/src/api/api_msg.c:1370:18
	strb	r0, [r1, #4]
	b	.LBB12_24
.Ltmp516:
.LBB12_24:
	.loc	3 1372 5 is_stmt 1              @ rt-thread/components/net/lwip-2.0.2/src/api/api_msg.c:1372:5
	b	.LBB12_25
.Ltmp517:
.LBB12_25:
	.loc	3 0 5 is_stmt 0                 @ rt-thread/components/net/lwip-2.0.2/src/api/api_msg.c:0:5
	b	.LBB12_26
.LBB12_26:
	.loc	3 1374 3 is_stmt 1              @ rt-thread/components/net/lwip-2.0.2/src/api/api_msg.c:1374:3
	b	.LBB12_27
.LBB12_27:
.Ltmp518:
	.loc	3 1374 3 is_stmt 0              @ rt-thread/components/net/lwip-2.0.2/src/api/api_msg.c:1374:3
	ldr	r0, [sp, #8]
	ldr	r0, [r0]
.Ltmp519:
	.loc	3 1374 3                        @ rt-thread/components/net/lwip-2.0.2/src/api/api_msg.c:1374:3
	cbz	r0, .LBB12_31
	b	.LBB12_28
.LBB12_28:
.Ltmp520:
	.loc	3 1374 3                        @ rt-thread/components/net/lwip-2.0.2/src/api/api_msg.c:1374:3
	bl	rt_enter_critical
.Ltmp521:
	.loc	3 1374 3                        @ rt-thread/components/net/lwip-2.0.2/src/api/api_msg.c:1374:3
	ldr	r0, [sp, #8]
	ldr	r0, [r0]
	ldrsb.w	r0, [r0, #8]
.Ltmp522:
	.loc	3 1374 3                        @ rt-thread/components/net/lwip-2.0.2/src/api/api_msg.c:1374:3
	cmn.w	r0, #12
	blt	.LBB12_30
	b	.LBB12_29
.LBB12_29:
.Ltmp523:
	.loc	3 1374 3                        @ rt-thread/components/net/lwip-2.0.2/src/api/api_msg.c:1374:3
	ldr	r1, [sp, #8]
	ldrb	r0, [r1, #4]
	ldr	r1, [r1]
	strb	r0, [r1, #8]
	b	.LBB12_30
.Ltmp524:
.LBB12_30:
	.loc	3 1374 3                        @ rt-thread/components/net/lwip-2.0.2/src/api/api_msg.c:1374:3
	bl	rt_exit_critical
	b	.LBB12_31
.Ltmp525:
.LBB12_31:
	.loc	3 1374 3                        @ rt-thread/components/net/lwip-2.0.2/src/api/api_msg.c:1374:3
	b	.LBB12_32
.Ltmp526:
.LBB12_32:
	.loc	3 1375 1 is_stmt 1              @ rt-thread/components/net/lwip-2.0.2/src/api/api_msg.c:1375:1
	add	sp, #16
	pop	{r7, pc}
.Ltmp527:
.Lfunc_end12:
	.size	lwip_netconn_do_listen, .Lfunc_end12-lwip_netconn_do_listen
	.cfi_endproc
	.cantunwind
	.fnend
                                        @ -- End function
	.section	.text.accept_function,"ax",%progbits
	.p2align	3                               @ -- Begin function accept_function
	.type	accept_function,%function
	.code	16                              @ @accept_function
	.thumb_func
accept_function:
.Lfunc_begin13:
	.loc	3 470 0                         @ rt-thread/components/net/lwip-2.0.2/src/api/api_msg.c:470:0
	.fnstart
	.cfi_startproc
@ %bb.0:
	.save	{r7, lr}
	push	{r7, lr}
	.cfi_def_cfa_offset 8
	.cfi_offset lr, -4
	.cfi_offset r7, -8
	.pad	#32
	sub	sp, #32
	.cfi_def_cfa_offset 40
                                        @ kill: def $r3 killed $r2
	str	r0, [sp, #24]
	str	r1, [sp, #20]
	strb.w	r2, [sp, #19]
.Ltmp528:
	.loc	3 472 44 prologue_end           @ rt-thread/components/net/lwip-2.0.2/src/api/api_msg.c:472:44
	ldr	r0, [sp, #24]
	.loc	3 472 19 is_stmt 0              @ rt-thread/components/net/lwip-2.0.2/src/api/api_msg.c:472:19
	str	r0, [sp, #8]
.Ltmp529:
	.loc	3 476 7 is_stmt 1               @ rt-thread/components/net/lwip-2.0.2/src/api/api_msg.c:476:7
	ldr	r0, [sp, #8]
.Ltmp530:
	.loc	3 476 7 is_stmt 0               @ rt-thread/components/net/lwip-2.0.2/src/api/api_msg.c:476:7
	cbnz	r0, .LBB13_2
	b	.LBB13_1
.LBB13_1:
	.loc	3 0 7                           @ rt-thread/components/net/lwip-2.0.2/src/api/api_msg.c:0:7
	movs	r0, #250
.Ltmp531:
	.loc	3 477 5 is_stmt 1               @ rt-thread/components/net/lwip-2.0.2/src/api/api_msg.c:477:5
	strb.w	r0, [sp, #31]
	b	.LBB13_22
.Ltmp532:
.LBB13_2:
	.loc	3 479 24                        @ rt-thread/components/net/lwip-2.0.2/src/api/api_msg.c:479:24
	ldr	r0, [sp, #8]
	.loc	3 479 30 is_stmt 0              @ rt-thread/components/net/lwip-2.0.2/src/api/api_msg.c:479:30
	adds	r0, #20
	.loc	3 479 8                         @ rt-thread/components/net/lwip-2.0.2/src/api/api_msg.c:479:8
	bl	sys_mbox_valid
.Ltmp533:
	.loc	3 479 7                         @ rt-thread/components/net/lwip-2.0.2/src/api/api_msg.c:479:7
	cbnz	r0, .LBB13_4
	b	.LBB13_3
.LBB13_3:
	.loc	3 0 7                           @ rt-thread/components/net/lwip-2.0.2/src/api/api_msg.c:0:7
	movs	r0, #250
.Ltmp534:
	.loc	3 481 5 is_stmt 1               @ rt-thread/components/net/lwip-2.0.2/src/api/api_msg.c:481:5
	strb.w	r0, [sp, #31]
	b	.LBB13_22
.Ltmp535:
.LBB13_4:
	.loc	3 484 7                         @ rt-thread/components/net/lwip-2.0.2/src/api/api_msg.c:484:7
	ldr	r0, [sp, #20]
.Ltmp536:
	.loc	3 484 7 is_stmt 0               @ rt-thread/components/net/lwip-2.0.2/src/api/api_msg.c:484:7
	cbnz	r0, .LBB13_10
	b	.LBB13_5
.LBB13_5:
.Ltmp537:
	.loc	3 486 27 is_stmt 1              @ rt-thread/components/net/lwip-2.0.2/src/api/api_msg.c:486:27
	ldr	r0, [sp, #8]
	.loc	3 486 33 is_stmt 0              @ rt-thread/components/net/lwip-2.0.2/src/api/api_msg.c:486:33
	adds	r0, #20
	.loc	3 486 9                         @ rt-thread/components/net/lwip-2.0.2/src/api/api_msg.c:486:9
	movw	r1, :lower16:netconn_aborted
	movt	r1, :upper16:netconn_aborted
	bl	sys_mbox_trypost
.Ltmp538:
	.loc	3 486 9                         @ rt-thread/components/net/lwip-2.0.2/src/api/api_msg.c:486:9
	cbnz	r0, .LBB13_9
	b	.LBB13_6
.LBB13_6:
.Ltmp539:
	.loc	3 488 7 is_stmt 1               @ rt-thread/components/net/lwip-2.0.2/src/api/api_msg.c:488:7
	ldr	r0, [sp, #8]
	ldr	r0, [r0, #56]
.Ltmp540:
	.loc	3 488 7 is_stmt 0               @ rt-thread/components/net/lwip-2.0.2/src/api/api_msg.c:488:7
	cbz	r0, .LBB13_8
	b	.LBB13_7
.LBB13_7:
.Ltmp541:
	.loc	3 488 7                         @ rt-thread/components/net/lwip-2.0.2/src/api/api_msg.c:488:7
	ldr	r0, [sp, #8]
	ldr	r3, [r0, #56]
	movs	r2, #0
	mov	r1, r2
	blx	r3
	b	.LBB13_8
.Ltmp542:
.LBB13_8:
	.loc	3 489 5 is_stmt 1               @ rt-thread/components/net/lwip-2.0.2/src/api/api_msg.c:489:5
	b	.LBB13_9
.Ltmp543:
.LBB13_9:
	.loc	3 0 5 is_stmt 0                 @ rt-thread/components/net/lwip-2.0.2/src/api/api_msg.c:0:5
	movs	r0, #250
	.loc	3 490 5 is_stmt 1               @ rt-thread/components/net/lwip-2.0.2/src/api/api_msg.c:490:5
	strb.w	r0, [sp, #31]
	b	.LBB13_22
.Ltmp544:
.LBB13_10:
	.loc	3 495 27                        @ rt-thread/components/net/lwip-2.0.2/src/api/api_msg.c:495:27
	ldr	r1, [sp, #8]
	.loc	3 495 33 is_stmt 0              @ rt-thread/components/net/lwip-2.0.2/src/api/api_msg.c:495:33
	ldrb	r0, [r1]
	.loc	3 495 45                        @ rt-thread/components/net/lwip-2.0.2/src/api/api_msg.c:495:45
	ldr	r1, [r1, #56]
	.loc	3 495 13                        @ rt-thread/components/net/lwip-2.0.2/src/api/api_msg.c:495:13
	bl	netconn_alloc
	.loc	3 495 11                        @ rt-thread/components/net/lwip-2.0.2/src/api/api_msg.c:495:11
	str	r0, [sp, #12]
.Ltmp545:
	.loc	3 496 7 is_stmt 1               @ rt-thread/components/net/lwip-2.0.2/src/api/api_msg.c:496:7
	ldr	r0, [sp, #12]
.Ltmp546:
	.loc	3 496 7 is_stmt 0               @ rt-thread/components/net/lwip-2.0.2/src/api/api_msg.c:496:7
	cbnz	r0, .LBB13_16
	b	.LBB13_11
.LBB13_11:
.Ltmp547:
	.loc	3 498 27 is_stmt 1              @ rt-thread/components/net/lwip-2.0.2/src/api/api_msg.c:498:27
	ldr	r0, [sp, #8]
	.loc	3 498 33 is_stmt 0              @ rt-thread/components/net/lwip-2.0.2/src/api/api_msg.c:498:33
	adds	r0, #20
	.loc	3 498 9                         @ rt-thread/components/net/lwip-2.0.2/src/api/api_msg.c:498:9
	movw	r1, :lower16:netconn_aborted
	movt	r1, :upper16:netconn_aborted
	bl	sys_mbox_trypost
.Ltmp548:
	.loc	3 498 9                         @ rt-thread/components/net/lwip-2.0.2/src/api/api_msg.c:498:9
	cbnz	r0, .LBB13_15
	b	.LBB13_12
.LBB13_12:
.Ltmp549:
	.loc	3 500 7 is_stmt 1               @ rt-thread/components/net/lwip-2.0.2/src/api/api_msg.c:500:7
	ldr	r0, [sp, #8]
	ldr	r0, [r0, #56]
.Ltmp550:
	.loc	3 500 7 is_stmt 0               @ rt-thread/components/net/lwip-2.0.2/src/api/api_msg.c:500:7
	cbz	r0, .LBB13_14
	b	.LBB13_13
.LBB13_13:
.Ltmp551:
	.loc	3 500 7                         @ rt-thread/components/net/lwip-2.0.2/src/api/api_msg.c:500:7
	ldr	r0, [sp, #8]
	ldr	r3, [r0, #56]
	movs	r2, #0
	mov	r1, r2
	blx	r3
	b	.LBB13_14
.Ltmp552:
.LBB13_14:
	.loc	3 501 5 is_stmt 1               @ rt-thread/components/net/lwip-2.0.2/src/api/api_msg.c:501:5
	b	.LBB13_15
.Ltmp553:
.LBB13_15:
	.loc	3 0 5 is_stmt 0                 @ rt-thread/components/net/lwip-2.0.2/src/api/api_msg.c:0:5
	movs	r0, #255
	.loc	3 502 5 is_stmt 1               @ rt-thread/components/net/lwip-2.0.2/src/api/api_msg.c:502:5
	strb.w	r0, [sp, #31]
	b	.LBB13_22
.Ltmp554:
.LBB13_16:
	.loc	3 504 22                        @ rt-thread/components/net/lwip-2.0.2/src/api/api_msg.c:504:22
	ldr	r0, [sp, #20]
	.loc	3 504 3 is_stmt 0               @ rt-thread/components/net/lwip-2.0.2/src/api/api_msg.c:504:3
	ldr	r1, [sp, #12]
	.loc	3 504 20                        @ rt-thread/components/net/lwip-2.0.2/src/api/api_msg.c:504:20
	str	r0, [r1, #4]
	.loc	3 505 13 is_stmt 1              @ rt-thread/components/net/lwip-2.0.2/src/api/api_msg.c:505:13
	ldr	r0, [sp, #12]
	.loc	3 505 3 is_stmt 0               @ rt-thread/components/net/lwip-2.0.2/src/api/api_msg.c:505:3
	bl	setup_tcp
	.loc	3 508 23 is_stmt 1              @ rt-thread/components/net/lwip-2.0.2/src/api/api_msg.c:508:23
	ldrb.w	r0, [sp, #19]
	.loc	3 508 3 is_stmt 0               @ rt-thread/components/net/lwip-2.0.2/src/api/api_msg.c:508:3
	ldr	r1, [sp, #12]
	.loc	3 508 21                        @ rt-thread/components/net/lwip-2.0.2/src/api/api_msg.c:508:21
	strb	r0, [r1, #8]
.Ltmp555:
	.loc	3 513 25 is_stmt 1              @ rt-thread/components/net/lwip-2.0.2/src/api/api_msg.c:513:25
	ldr	r0, [sp, #8]
	.loc	3 513 31 is_stmt 0              @ rt-thread/components/net/lwip-2.0.2/src/api/api_msg.c:513:31
	adds	r0, #20
	.loc	3 513 43                        @ rt-thread/components/net/lwip-2.0.2/src/api/api_msg.c:513:43
	ldr	r1, [sp, #12]
	.loc	3 513 7                         @ rt-thread/components/net/lwip-2.0.2/src/api/api_msg.c:513:7
	bl	sys_mbox_trypost
.Ltmp556:
	.loc	3 513 7                         @ rt-thread/components/net/lwip-2.0.2/src/api/api_msg.c:513:7
	cbz	r0, .LBB13_18
	b	.LBB13_17
.LBB13_17:
.Ltmp557:
	.loc	3 517 27 is_stmt 1              @ rt-thread/components/net/lwip-2.0.2/src/api/api_msg.c:517:27
	ldr	r0, [sp, #12]
	.loc	3 517 40 is_stmt 0              @ rt-thread/components/net/lwip-2.0.2/src/api/api_msg.c:517:40
	ldr	r0, [r0, #4]
	.loc	3 517 21                        @ rt-thread/components/net/lwip-2.0.2/src/api/api_msg.c:517:21
	str	r0, [sp, #4]
	.loc	3 518 13 is_stmt 1              @ rt-thread/components/net/lwip-2.0.2/src/api/api_msg.c:518:13
	ldr	r0, [sp, #4]
	movs	r1, #0
	.loc	3 518 5 is_stmt 0               @ rt-thread/components/net/lwip-2.0.2/src/api/api_msg.c:518:5
	str	r1, [sp]                        @ 4-byte Spill
	bl	tcp_arg
	ldr	r1, [sp]                        @ 4-byte Reload
	.loc	3 519 14 is_stmt 1              @ rt-thread/components/net/lwip-2.0.2/src/api/api_msg.c:519:14
	ldr	r0, [sp, #4]
	.loc	3 519 5 is_stmt 0               @ rt-thread/components/net/lwip-2.0.2/src/api/api_msg.c:519:5
	bl	tcp_recv
	ldr	r1, [sp]                        @ 4-byte Reload
	.loc	3 520 14 is_stmt 1              @ rt-thread/components/net/lwip-2.0.2/src/api/api_msg.c:520:14
	ldr	r0, [sp, #4]
	.loc	3 520 5 is_stmt 0               @ rt-thread/components/net/lwip-2.0.2/src/api/api_msg.c:520:5
	bl	tcp_sent
	ldr	r2, [sp]                        @ 4-byte Reload
	.loc	3 521 14 is_stmt 1              @ rt-thread/components/net/lwip-2.0.2/src/api/api_msg.c:521:14
	ldr	r0, [sp, #4]
	.loc	3 521 5 is_stmt 0               @ rt-thread/components/net/lwip-2.0.2/src/api/api_msg.c:521:5
	mov	r1, r2
	bl	tcp_poll
	ldr	r1, [sp]                        @ 4-byte Reload
	.loc	3 522 13 is_stmt 1              @ rt-thread/components/net/lwip-2.0.2/src/api/api_msg.c:522:13
	ldr	r0, [sp, #4]
	.loc	3 522 5 is_stmt 0               @ rt-thread/components/net/lwip-2.0.2/src/api/api_msg.c:522:5
	bl	tcp_err
	ldr	r0, [sp]                        @ 4-byte Reload
	.loc	3 524 5 is_stmt 1               @ rt-thread/components/net/lwip-2.0.2/src/api/api_msg.c:524:5
	ldr	r1, [sp, #12]
	.loc	3 524 22 is_stmt 0              @ rt-thread/components/net/lwip-2.0.2/src/api/api_msg.c:524:22
	str	r0, [r1, #4]
	.loc	3 526 20 is_stmt 1              @ rt-thread/components/net/lwip-2.0.2/src/api/api_msg.c:526:20
	ldr	r0, [sp, #12]
	.loc	3 526 29 is_stmt 0              @ rt-thread/components/net/lwip-2.0.2/src/api/api_msg.c:526:29
	adds	r0, #16
	.loc	3 526 5                         @ rt-thread/components/net/lwip-2.0.2/src/api/api_msg.c:526:5
	bl	sys_mbox_free
	.loc	3 527 27 is_stmt 1              @ rt-thread/components/net/lwip-2.0.2/src/api/api_msg.c:527:27
	ldr	r0, [sp, #12]
	.loc	3 527 36 is_stmt 0              @ rt-thread/components/net/lwip-2.0.2/src/api/api_msg.c:527:36
	adds	r0, #16
	.loc	3 527 5                         @ rt-thread/components/net/lwip-2.0.2/src/api/api_msg.c:527:5
	bl	sys_mbox_set_invalid
	.loc	3 528 18 is_stmt 1              @ rt-thread/components/net/lwip-2.0.2/src/api/api_msg.c:528:18
	ldr	r0, [sp, #12]
	.loc	3 528 5 is_stmt 0               @ rt-thread/components/net/lwip-2.0.2/src/api/api_msg.c:528:5
	bl	netconn_free
	movs	r0, #255
	.loc	3 529 5 is_stmt 1               @ rt-thread/components/net/lwip-2.0.2/src/api/api_msg.c:529:5
	strb.w	r0, [sp, #31]
	b	.LBB13_22
.Ltmp558:
.LBB13_18:
	.loc	3 532 5                         @ rt-thread/components/net/lwip-2.0.2/src/api/api_msg.c:532:5
	ldr	r0, [sp, #8]
	ldr	r0, [r0, #56]
.Ltmp559:
	.loc	3 532 5 is_stmt 0               @ rt-thread/components/net/lwip-2.0.2/src/api/api_msg.c:532:5
	cbz	r0, .LBB13_20
	b	.LBB13_19
.LBB13_19:
.Ltmp560:
	.loc	3 532 5                         @ rt-thread/components/net/lwip-2.0.2/src/api/api_msg.c:532:5
	ldr	r0, [sp, #8]
	ldr	r3, [r0, #56]
	movs	r2, #0
	mov	r1, r2
	blx	r3
	b	.LBB13_20
.Ltmp561:
.LBB13_20:
	.loc	3 0 5                           @ rt-thread/components/net/lwip-2.0.2/src/api/api_msg.c:0:5
	b	.LBB13_21
.LBB13_21:
	movs	r0, #0
	.loc	3 535 3 is_stmt 1               @ rt-thread/components/net/lwip-2.0.2/src/api/api_msg.c:535:3
	strb.w	r0, [sp, #31]
	b	.LBB13_22
.LBB13_22:
	.loc	3 536 1                         @ rt-thread/components/net/lwip-2.0.2/src/api/api_msg.c:536:1
	ldrsb.w	r0, [sp, #31]
	add	sp, #32
	pop	{r7, pc}
.Ltmp562:
.Lfunc_end13:
	.size	accept_function, .Lfunc_end13-accept_function
	.cfi_endproc
	.cantunwind
	.fnend
                                        @ -- End function
	.section	.text.lwip_netconn_do_send,"ax",%progbits
	.hidden	lwip_netconn_do_send            @ -- Begin function lwip_netconn_do_send
	.globl	lwip_netconn_do_send
	.p2align	3
	.type	lwip_netconn_do_send,%function
	.code	16                              @ @lwip_netconn_do_send
	.thumb_func
lwip_netconn_do_send:
.Lfunc_begin14:
	.loc	3 1386 0                        @ rt-thread/components/net/lwip-2.0.2/src/api/api_msg.c:1386:0
	.fnstart
	.cfi_startproc
@ %bb.0:
	.save	{r7, lr}
	push	{r7, lr}
	.cfi_def_cfa_offset 8
	.cfi_offset lr, -4
	.cfi_offset r7, -8
	.pad	#16
	sub	sp, #16
	.cfi_def_cfa_offset 24
	str	r0, [sp, #12]
.Ltmp563:
	.loc	3 1387 42 prologue_end          @ rt-thread/components/net/lwip-2.0.2/src/api/api_msg.c:1387:42
	ldr	r0, [sp, #12]
	.loc	3 1387 19 is_stmt 0             @ rt-thread/components/net/lwip-2.0.2/src/api/api_msg.c:1387:19
	str	r0, [sp, #8]
.Ltmp564:
	.loc	3 1389 7 is_stmt 1              @ rt-thread/components/net/lwip-2.0.2/src/api/api_msg.c:1389:7
	ldr	r0, [sp, #8]
	ldr	r0, [r0]
	ldrsb.w	r0, [r0, #8]
.Ltmp565:
	.loc	3 1389 7 is_stmt 0              @ rt-thread/components/net/lwip-2.0.2/src/api/api_msg.c:1389:7
	cmn.w	r0, #13
	bgt	.LBB14_2
	b	.LBB14_1
.LBB14_1:
.Ltmp566:
	.loc	3 1390 16 is_stmt 1             @ rt-thread/components/net/lwip-2.0.2/src/api/api_msg.c:1390:16
	ldr	r1, [sp, #8]
	.loc	3 1390 21 is_stmt 0             @ rt-thread/components/net/lwip-2.0.2/src/api/api_msg.c:1390:21
	ldr	r0, [r1]
	.loc	3 1390 27                       @ rt-thread/components/net/lwip-2.0.2/src/api/api_msg.c:1390:27
	ldrb	r0, [r0, #8]
	.loc	3 1390 14                       @ rt-thread/components/net/lwip-2.0.2/src/api/api_msg.c:1390:14
	strb	r0, [r1, #4]
	.loc	3 1391 3 is_stmt 1              @ rt-thread/components/net/lwip-2.0.2/src/api/api_msg.c:1391:3
	b	.LBB14_17
.Ltmp567:
.LBB14_2:
	.loc	3 1392 5                        @ rt-thread/components/net/lwip-2.0.2/src/api/api_msg.c:1392:5
	ldr	r1, [sp, #8]
	movs	r0, #245
	.loc	3 1392 14 is_stmt 0             @ rt-thread/components/net/lwip-2.0.2/src/api/api_msg.c:1392:14
	strb	r0, [r1, #4]
.Ltmp568:
	.loc	3 1393 9 is_stmt 1              @ rt-thread/components/net/lwip-2.0.2/src/api/api_msg.c:1393:9
	ldr	r0, [sp, #8]
	.loc	3 1393 14 is_stmt 0             @ rt-thread/components/net/lwip-2.0.2/src/api/api_msg.c:1393:14
	ldr	r0, [r0]
	.loc	3 1393 24                       @ rt-thread/components/net/lwip-2.0.2/src/api/api_msg.c:1393:24
	ldr	r0, [r0, #4]
.Ltmp569:
	.loc	3 1393 9                        @ rt-thread/components/net/lwip-2.0.2/src/api/api_msg.c:1393:9
	cmp	r0, #0
	beq	.LBB14_16
	b	.LBB14_3
.LBB14_3:
.Ltmp570:
	.loc	3 1394 15 is_stmt 1             @ rt-thread/components/net/lwip-2.0.2/src/api/api_msg.c:1394:15
	ldr	r0, [sp, #8]
	ldr	r0, [r0]
	ldrb	r0, [r0]
	and	r0, r0, #240
	.loc	3 1394 7 is_stmt 0              @ rt-thread/components/net/lwip-2.0.2/src/api/api_msg.c:1394:7
	mov	r1, r0
	str	r1, [sp, #4]                    @ 4-byte Spill
	cmp	r0, #32
	beq	.LBB14_10
	b	.LBB14_4
.LBB14_4:
	ldr	r0, [sp, #4]                    @ 4-byte Reload
	cmp	r0, #64
	bne	.LBB14_14
	b	.LBB14_5
.LBB14_5:
.Ltmp571:
	.loc	3 1397 13 is_stmt 1             @ rt-thread/components/net/lwip-2.0.2/src/api/api_msg.c:1397:13
	ldr	r0, [sp, #8]
	ldr	r0, [r0, #8]
	adds	r0, #8
	cbz	r0, .LBB14_7
	b	.LBB14_6
.LBB14_6:
	ldr	r0, [sp, #8]
	ldr	r0, [r0, #8]
	ldr	r0, [r0, #8]
.Ltmp572:
	.loc	3 1397 13 is_stmt 0             @ rt-thread/components/net/lwip-2.0.2/src/api/api_msg.c:1397:13
	cbnz	r0, .LBB14_8
	b	.LBB14_7
.LBB14_7:
.Ltmp573:
	.loc	3 1398 31 is_stmt 1             @ rt-thread/components/net/lwip-2.0.2/src/api/api_msg.c:1398:31
	ldr	r1, [sp, #8]
	.loc	3 1398 36 is_stmt 0             @ rt-thread/components/net/lwip-2.0.2/src/api/api_msg.c:1398:36
	ldr	r0, [r1]
	.loc	3 1398 60                       @ rt-thread/components/net/lwip-2.0.2/src/api/api_msg.c:1398:60
	ldr	r1, [r1, #8]
	.loc	3 1398 46                       @ rt-thread/components/net/lwip-2.0.2/src/api/api_msg.c:1398:46
	ldr	r0, [r0, #4]
	.loc	3 1398 63                       @ rt-thread/components/net/lwip-2.0.2/src/api/api_msg.c:1398:63
	ldr	r1, [r1]
	.loc	3 1398 22                       @ rt-thread/components/net/lwip-2.0.2/src/api/api_msg.c:1398:22
	bl	raw_send
	.loc	3 1398 11                       @ rt-thread/components/net/lwip-2.0.2/src/api/api_msg.c:1398:11
	ldr	r1, [sp, #8]
	.loc	3 1398 20                       @ rt-thread/components/net/lwip-2.0.2/src/api/api_msg.c:1398:20
	strb	r0, [r1, #4]
	.loc	3 1399 9 is_stmt 1              @ rt-thread/components/net/lwip-2.0.2/src/api/api_msg.c:1399:9
	b	.LBB14_9
.Ltmp574:
.LBB14_8:
	.loc	3 1400 33                       @ rt-thread/components/net/lwip-2.0.2/src/api/api_msg.c:1400:33
	ldr	r1, [sp, #8]
	.loc	3 1400 38 is_stmt 0             @ rt-thread/components/net/lwip-2.0.2/src/api/api_msg.c:1400:38
	ldr	r0, [r1]
	.loc	3 1400 62                       @ rt-thread/components/net/lwip-2.0.2/src/api/api_msg.c:1400:62
	ldr	r2, [r1, #8]
	.loc	3 1400 48                       @ rt-thread/components/net/lwip-2.0.2/src/api/api_msg.c:1400:48
	ldr	r0, [r0, #4]
	.loc	3 1400 65                       @ rt-thread/components/net/lwip-2.0.2/src/api/api_msg.c:1400:65
	ldr	r1, [r2], #8
	.loc	3 1400 22                       @ rt-thread/components/net/lwip-2.0.2/src/api/api_msg.c:1400:22
	bl	raw_sendto
	.loc	3 1400 11                       @ rt-thread/components/net/lwip-2.0.2/src/api/api_msg.c:1400:11
	ldr	r1, [sp, #8]
	.loc	3 1400 20                       @ rt-thread/components/net/lwip-2.0.2/src/api/api_msg.c:1400:20
	strb	r0, [r1, #4]
	b	.LBB14_9
.Ltmp575:
.LBB14_9:
	.loc	3 1402 9 is_stmt 1              @ rt-thread/components/net/lwip-2.0.2/src/api/api_msg.c:1402:9
	b	.LBB14_15
.LBB14_10:
.Ltmp576:
	.loc	3 1416 13                       @ rt-thread/components/net/lwip-2.0.2/src/api/api_msg.c:1416:13
	ldr	r0, [sp, #8]
	ldr	r0, [r0, #8]
	ldr	r0, [r0, #8]
.Ltmp577:
	.loc	3 1416 13 is_stmt 0             @ rt-thread/components/net/lwip-2.0.2/src/api/api_msg.c:1416:13
	cbnz	r0, .LBB14_12
	b	.LBB14_11
.LBB14_11:
.Ltmp578:
	.loc	3 1417 31 is_stmt 1             @ rt-thread/components/net/lwip-2.0.2/src/api/api_msg.c:1417:31
	ldr	r1, [sp, #8]
	.loc	3 1417 36 is_stmt 0             @ rt-thread/components/net/lwip-2.0.2/src/api/api_msg.c:1417:36
	ldr	r0, [r1]
	.loc	3 1417 60                       @ rt-thread/components/net/lwip-2.0.2/src/api/api_msg.c:1417:60
	ldr	r1, [r1, #8]
	.loc	3 1417 46                       @ rt-thread/components/net/lwip-2.0.2/src/api/api_msg.c:1417:46
	ldr	r0, [r0, #4]
	.loc	3 1417 63                       @ rt-thread/components/net/lwip-2.0.2/src/api/api_msg.c:1417:63
	ldr	r1, [r1]
	.loc	3 1417 22                       @ rt-thread/components/net/lwip-2.0.2/src/api/api_msg.c:1417:22
	bl	udp_send
	.loc	3 1417 11                       @ rt-thread/components/net/lwip-2.0.2/src/api/api_msg.c:1417:11
	ldr	r1, [sp, #8]
	.loc	3 1417 20                       @ rt-thread/components/net/lwip-2.0.2/src/api/api_msg.c:1417:20
	strb	r0, [r1, #4]
	.loc	3 1418 9 is_stmt 1              @ rt-thread/components/net/lwip-2.0.2/src/api/api_msg.c:1418:9
	b	.LBB14_13
.Ltmp579:
.LBB14_12:
	.loc	3 1419 33                       @ rt-thread/components/net/lwip-2.0.2/src/api/api_msg.c:1419:33
	ldr	r1, [sp, #8]
	.loc	3 1419 38 is_stmt 0             @ rt-thread/components/net/lwip-2.0.2/src/api/api_msg.c:1419:38
	ldr	r0, [r1]
	.loc	3 1419 62                       @ rt-thread/components/net/lwip-2.0.2/src/api/api_msg.c:1419:62
	ldr	r3, [r1, #8]
	.loc	3 1419 48                       @ rt-thread/components/net/lwip-2.0.2/src/api/api_msg.c:1419:48
	ldr	r0, [r0, #4]
	.loc	3 1419 65                       @ rt-thread/components/net/lwip-2.0.2/src/api/api_msg.c:1419:65
	ldr	r1, [r3]
	.loc	3 1419 81                       @ rt-thread/components/net/lwip-2.0.2/src/api/api_msg.c:1419:81
	add.w	r2, r3, #8
	.loc	3 1419 99                       @ rt-thread/components/net/lwip-2.0.2/src/api/api_msg.c:1419:99
	ldrh	r3, [r3, #12]
	.loc	3 1419 22                       @ rt-thread/components/net/lwip-2.0.2/src/api/api_msg.c:1419:22
	bl	udp_sendto
	.loc	3 1419 11                       @ rt-thread/components/net/lwip-2.0.2/src/api/api_msg.c:1419:11
	ldr	r1, [sp, #8]
	.loc	3 1419 20                       @ rt-thread/components/net/lwip-2.0.2/src/api/api_msg.c:1419:20
	strb	r0, [r1, #4]
	b	.LBB14_13
.Ltmp580:
.LBB14_13:
	.loc	3 1422 9 is_stmt 1              @ rt-thread/components/net/lwip-2.0.2/src/api/api_msg.c:1422:9
	b	.LBB14_15
.LBB14_14:
	.loc	3 1425 9                        @ rt-thread/components/net/lwip-2.0.2/src/api/api_msg.c:1425:9
	b	.LBB14_15
.Ltmp581:
.LBB14_15:
	.loc	3 1427 5                        @ rt-thread/components/net/lwip-2.0.2/src/api/api_msg.c:1427:5
	b	.LBB14_16
.Ltmp582:
.LBB14_16:
	.loc	3 0 5 is_stmt 0                 @ rt-thread/components/net/lwip-2.0.2/src/api/api_msg.c:0:5
	b	.LBB14_17
.LBB14_17:
	.loc	3 1429 3 is_stmt 1              @ rt-thread/components/net/lwip-2.0.2/src/api/api_msg.c:1429:3
	b	.LBB14_18
.LBB14_18:
.Ltmp583:
	.loc	3 1429 3 is_stmt 0              @ rt-thread/components/net/lwip-2.0.2/src/api/api_msg.c:1429:3
	ldr	r0, [sp, #8]
	ldr	r0, [r0]
.Ltmp584:
	.loc	3 1429 3                        @ rt-thread/components/net/lwip-2.0.2/src/api/api_msg.c:1429:3
	cbz	r0, .LBB14_22
	b	.LBB14_19
.LBB14_19:
.Ltmp585:
	.loc	3 1429 3                        @ rt-thread/components/net/lwip-2.0.2/src/api/api_msg.c:1429:3
	bl	rt_enter_critical
.Ltmp586:
	.loc	3 1429 3                        @ rt-thread/components/net/lwip-2.0.2/src/api/api_msg.c:1429:3
	ldr	r0, [sp, #8]
	ldr	r0, [r0]
	ldrsb.w	r0, [r0, #8]
.Ltmp587:
	.loc	3 1429 3                        @ rt-thread/components/net/lwip-2.0.2/src/api/api_msg.c:1429:3
	cmn.w	r0, #12
	blt	.LBB14_21
	b	.LBB14_20
.LBB14_20:
.Ltmp588:
	.loc	3 1429 3                        @ rt-thread/components/net/lwip-2.0.2/src/api/api_msg.c:1429:3
	ldr	r1, [sp, #8]
	ldrb	r0, [r1, #4]
	ldr	r1, [r1]
	strb	r0, [r1, #8]
	b	.LBB14_21
.Ltmp589:
.LBB14_21:
	.loc	3 1429 3                        @ rt-thread/components/net/lwip-2.0.2/src/api/api_msg.c:1429:3
	bl	rt_exit_critical
	b	.LBB14_22
.Ltmp590:
.LBB14_22:
	.loc	3 1429 3                        @ rt-thread/components/net/lwip-2.0.2/src/api/api_msg.c:1429:3
	b	.LBB14_23
.Ltmp591:
.LBB14_23:
	.loc	3 1430 1 is_stmt 1              @ rt-thread/components/net/lwip-2.0.2/src/api/api_msg.c:1430:1
	add	sp, #16
	pop	{r7, pc}
.Ltmp592:
.Lfunc_end14:
	.size	lwip_netconn_do_send, .Lfunc_end14-lwip_netconn_do_send
	.cfi_endproc
	.cantunwind
	.fnend
                                        @ -- End function
	.section	.text.lwip_netconn_do_recv,"ax",%progbits
	.hidden	lwip_netconn_do_recv            @ -- Begin function lwip_netconn_do_recv
	.globl	lwip_netconn_do_recv
	.p2align	3
	.type	lwip_netconn_do_recv,%function
	.code	16                              @ @lwip_netconn_do_recv
	.thumb_func
lwip_netconn_do_recv:
.Lfunc_begin15:
	.loc	3 1441 0                        @ rt-thread/components/net/lwip-2.0.2/src/api/api_msg.c:1441:0
	.fnstart
	.cfi_startproc
@ %bb.0:
	.save	{r7, lr}
	push	{r7, lr}
	.cfi_def_cfa_offset 8
	.cfi_offset lr, -4
	.cfi_offset r7, -8
	.pad	#24
	sub	sp, #24
	.cfi_def_cfa_offset 32
	str	r0, [sp, #20]
.Ltmp593:
	.loc	3 1442 42 prologue_end          @ rt-thread/components/net/lwip-2.0.2/src/api/api_msg.c:1442:42
	ldr	r0, [sp, #20]
	.loc	3 1442 19 is_stmt 0             @ rt-thread/components/net/lwip-2.0.2/src/api/api_msg.c:1442:19
	str	r0, [sp, #16]
	.loc	3 1444 3 is_stmt 1              @ rt-thread/components/net/lwip-2.0.2/src/api/api_msg.c:1444:3
	ldr	r1, [sp, #16]
	movs	r0, #0
	.loc	3 1444 12 is_stmt 0             @ rt-thread/components/net/lwip-2.0.2/src/api/api_msg.c:1444:12
	strb	r0, [r1, #4]
.Ltmp594:
	.loc	3 1445 7 is_stmt 1              @ rt-thread/components/net/lwip-2.0.2/src/api/api_msg.c:1445:7
	ldr	r0, [sp, #16]
	.loc	3 1445 12 is_stmt 0             @ rt-thread/components/net/lwip-2.0.2/src/api/api_msg.c:1445:12
	ldr	r0, [r0]
	.loc	3 1445 22                       @ rt-thread/components/net/lwip-2.0.2/src/api/api_msg.c:1445:22
	ldr	r0, [r0, #4]
.Ltmp595:
	.loc	3 1445 7                        @ rt-thread/components/net/lwip-2.0.2/src/api/api_msg.c:1445:7
	cbz	r0, .LBB15_10
	b	.LBB15_1
.LBB15_1:
.Ltmp596:
	.loc	3 1446 9 is_stmt 1              @ rt-thread/components/net/lwip-2.0.2/src/api/api_msg.c:1446:9
	ldr	r0, [sp, #16]
	ldr	r0, [r0]
	ldrb	r0, [r0]
	and	r0, r0, #240
.Ltmp597:
	.loc	3 1446 9 is_stmt 0              @ rt-thread/components/net/lwip-2.0.2/src/api/api_msg.c:1446:9
	cmp	r0, #16
	bne	.LBB15_9
	b	.LBB15_2
.LBB15_2:
.Ltmp598:
	.loc	3 1447 25 is_stmt 1             @ rt-thread/components/net/lwip-2.0.2/src/api/api_msg.c:1447:25
	ldr	r0, [sp, #16]
	.loc	3 1447 36 is_stmt 0             @ rt-thread/components/net/lwip-2.0.2/src/api/api_msg.c:1447:36
	ldr	r0, [r0, #8]
	.loc	3 1447 13                       @ rt-thread/components/net/lwip-2.0.2/src/api/api_msg.c:1447:13
	str	r0, [sp, #12]
	.loc	3 1448 7 is_stmt 1              @ rt-thread/components/net/lwip-2.0.2/src/api/api_msg.c:1448:7
	b	.LBB15_3
.LBB15_3:                               @ =>This Inner Loop Header: Depth=1
.Ltmp599:
	.loc	3 1449 25                       @ rt-thread/components/net/lwip-2.0.2/src/api/api_msg.c:1449:25
	ldr	r0, [sp, #12]
	.loc	3 1449 24 is_stmt 0             @ rt-thread/components/net/lwip-2.0.2/src/api/api_msg.c:1449:24
	cmp.w	r0, #65536
	blo	.LBB15_5
	b	.LBB15_4
.LBB15_4:                               @   in Loop: Header=BB15_3 Depth=1
	.loc	3 0 24                          @ rt-thread/components/net/lwip-2.0.2/src/api/api_msg.c:0:24
	movw	r0, #65535
	.loc	3 1449 24                       @ rt-thread/components/net/lwip-2.0.2/src/api/api_msg.c:1449:24
	str	r0, [sp, #4]                    @ 4-byte Spill
	b	.LBB15_6
.LBB15_5:                               @   in Loop: Header=BB15_3 Depth=1
	.loc	3 1449 63                       @ rt-thread/components/net/lwip-2.0.2/src/api/api_msg.c:1449:63
	ldrh.w	r0, [sp, #12]
	.loc	3 1449 24                       @ rt-thread/components/net/lwip-2.0.2/src/api/api_msg.c:1449:24
	str	r0, [sp, #4]                    @ 4-byte Spill
	b	.LBB15_6
.LBB15_6:                               @   in Loop: Header=BB15_3 Depth=1
	ldr	r0, [sp, #4]                    @ 4-byte Reload
	.loc	3 1449 15                       @ rt-thread/components/net/lwip-2.0.2/src/api/api_msg.c:1449:15
	strh.w	r0, [sp, #10]
	.loc	3 1450 20 is_stmt 1             @ rt-thread/components/net/lwip-2.0.2/src/api/api_msg.c:1450:20
	ldr	r0, [sp, #16]
	.loc	3 1450 25 is_stmt 0             @ rt-thread/components/net/lwip-2.0.2/src/api/api_msg.c:1450:25
	ldr	r0, [r0]
	.loc	3 1450 35                       @ rt-thread/components/net/lwip-2.0.2/src/api/api_msg.c:1450:35
	ldr	r0, [r0, #4]
	.loc	3 1450 40                       @ rt-thread/components/net/lwip-2.0.2/src/api/api_msg.c:1450:40
	ldrh.w	r1, [sp, #10]
	.loc	3 1450 9                        @ rt-thread/components/net/lwip-2.0.2/src/api/api_msg.c:1450:9
	bl	tcp_recved
	.loc	3 1451 22 is_stmt 1             @ rt-thread/components/net/lwip-2.0.2/src/api/api_msg.c:1451:22
	ldrh.w	r1, [sp, #10]
	.loc	3 1451 19 is_stmt 0             @ rt-thread/components/net/lwip-2.0.2/src/api/api_msg.c:1451:19
	ldr	r0, [sp, #12]
	subs	r0, r0, r1
	str	r0, [sp, #12]
	.loc	3 1452 7 is_stmt 1              @ rt-thread/components/net/lwip-2.0.2/src/api/api_msg.c:1452:7
	b	.LBB15_7
.Ltmp600:
.LBB15_7:                               @   in Loop: Header=BB15_3 Depth=1
	.loc	3 1452 16 is_stmt 0             @ rt-thread/components/net/lwip-2.0.2/src/api/api_msg.c:1452:16
	ldr	r0, [sp, #12]
.Ltmp601:
	.loc	3 1452 7                        @ rt-thread/components/net/lwip-2.0.2/src/api/api_msg.c:1452:7
	cmp	r0, #0
	bne	.LBB15_3
	b	.LBB15_8
.Ltmp602:
.LBB15_8:
	.loc	3 1453 5 is_stmt 1              @ rt-thread/components/net/lwip-2.0.2/src/api/api_msg.c:1453:5
	b	.LBB15_9
.Ltmp603:
.LBB15_9:
	.loc	3 1454 3                        @ rt-thread/components/net/lwip-2.0.2/src/api/api_msg.c:1454:3
	b	.LBB15_10
.Ltmp604:
.LBB15_10:
	.loc	3 1455 3                        @ rt-thread/components/net/lwip-2.0.2/src/api/api_msg.c:1455:3
	b	.LBB15_11
.LBB15_11:
.Ltmp605:
	.loc	3 1455 3 is_stmt 0              @ rt-thread/components/net/lwip-2.0.2/src/api/api_msg.c:1455:3
	ldr	r0, [sp, #16]
	ldr	r0, [r0]
.Ltmp606:
	.loc	3 1455 3                        @ rt-thread/components/net/lwip-2.0.2/src/api/api_msg.c:1455:3
	cbz	r0, .LBB15_15
	b	.LBB15_12
.LBB15_12:
.Ltmp607:
	.loc	3 1455 3                        @ rt-thread/components/net/lwip-2.0.2/src/api/api_msg.c:1455:3
	bl	rt_enter_critical
.Ltmp608:
	.loc	3 1455 3                        @ rt-thread/components/net/lwip-2.0.2/src/api/api_msg.c:1455:3
	ldr	r0, [sp, #16]
	ldr	r0, [r0]
	ldrsb.w	r0, [r0, #8]
.Ltmp609:
	.loc	3 1455 3                        @ rt-thread/components/net/lwip-2.0.2/src/api/api_msg.c:1455:3
	cmn.w	r0, #12
	blt	.LBB15_14
	b	.LBB15_13
.LBB15_13:
.Ltmp610:
	.loc	3 1455 3                        @ rt-thread/components/net/lwip-2.0.2/src/api/api_msg.c:1455:3
	ldr	r1, [sp, #16]
	ldrb	r0, [r1, #4]
	ldr	r1, [r1]
	strb	r0, [r1, #8]
	b	.LBB15_14
.Ltmp611:
.LBB15_14:
	.loc	3 1455 3                        @ rt-thread/components/net/lwip-2.0.2/src/api/api_msg.c:1455:3
	bl	rt_exit_critical
	b	.LBB15_15
.Ltmp612:
.LBB15_15:
	.loc	3 1455 3                        @ rt-thread/components/net/lwip-2.0.2/src/api/api_msg.c:1455:3
	b	.LBB15_16
.Ltmp613:
.LBB15_16:
	.loc	3 1456 1 is_stmt 1              @ rt-thread/components/net/lwip-2.0.2/src/api/api_msg.c:1456:1
	add	sp, #24
	pop	{r7, pc}
.Ltmp614:
.Lfunc_end15:
	.size	lwip_netconn_do_recv, .Lfunc_end15-lwip_netconn_do_recv
	.cfi_endproc
	.cantunwind
	.fnend
                                        @ -- End function
	.section	.text.lwip_netconn_do_write,"ax",%progbits
	.hidden	lwip_netconn_do_write           @ -- Begin function lwip_netconn_do_write
	.globl	lwip_netconn_do_write
	.p2align	3
	.type	lwip_netconn_do_write,%function
	.code	16                              @ @lwip_netconn_do_write
	.thumb_func
lwip_netconn_do_write:
.Lfunc_begin16:
	.loc	3 1646 0                        @ rt-thread/components/net/lwip-2.0.2/src/api/api_msg.c:1646:0
	.fnstart
	.cfi_startproc
@ %bb.0:
	.save	{r7, lr}
	push	{r7, lr}
	.cfi_def_cfa_offset 8
	.cfi_offset lr, -4
	.cfi_offset r7, -8
	.pad	#16
	sub	sp, #16
	.cfi_def_cfa_offset 24
	str	r0, [sp, #12]
.Ltmp615:
	.loc	3 1647 42 prologue_end          @ rt-thread/components/net/lwip-2.0.2/src/api/api_msg.c:1647:42
	ldr	r0, [sp, #12]
	.loc	3 1647 19 is_stmt 0             @ rt-thread/components/net/lwip-2.0.2/src/api/api_msg.c:1647:19
	str	r0, [sp, #8]
.Ltmp616:
	.loc	3 1649 7 is_stmt 1              @ rt-thread/components/net/lwip-2.0.2/src/api/api_msg.c:1649:7
	ldr	r0, [sp, #8]
	ldr	r0, [r0]
	ldrsb.w	r0, [r0, #8]
.Ltmp617:
	.loc	3 1649 7 is_stmt 0              @ rt-thread/components/net/lwip-2.0.2/src/api/api_msg.c:1649:7
	cmn.w	r0, #13
	bgt	.LBB16_2
	b	.LBB16_1
.LBB16_1:
.Ltmp618:
	.loc	3 1650 16 is_stmt 1             @ rt-thread/components/net/lwip-2.0.2/src/api/api_msg.c:1650:16
	ldr	r1, [sp, #8]
	.loc	3 1650 21 is_stmt 0             @ rt-thread/components/net/lwip-2.0.2/src/api/api_msg.c:1650:21
	ldr	r0, [r1]
	.loc	3 1650 27                       @ rt-thread/components/net/lwip-2.0.2/src/api/api_msg.c:1650:27
	ldrb	r0, [r0, #8]
	.loc	3 1650 14                       @ rt-thread/components/net/lwip-2.0.2/src/api/api_msg.c:1650:14
	strb	r0, [r1, #4]
	.loc	3 1651 3 is_stmt 1              @ rt-thread/components/net/lwip-2.0.2/src/api/api_msg.c:1651:3
	b	.LBB16_39
.Ltmp619:
.LBB16_2:
	.loc	3 1652 9                        @ rt-thread/components/net/lwip-2.0.2/src/api/api_msg.c:1652:9
	ldr	r0, [sp, #8]
	ldr	r0, [r0]
	ldrb	r0, [r0]
	and	r0, r0, #240
.Ltmp620:
	.loc	3 1652 9 is_stmt 0              @ rt-thread/components/net/lwip-2.0.2/src/api/api_msg.c:1652:9
	cmp	r0, #16
	bne.w	.LBB16_37
	b	.LBB16_3
.LBB16_3:
.Ltmp621:
	.loc	3 1654 11 is_stmt 1             @ rt-thread/components/net/lwip-2.0.2/src/api/api_msg.c:1654:11
	ldr	r0, [sp, #8]
	.loc	3 1654 16 is_stmt 0             @ rt-thread/components/net/lwip-2.0.2/src/api/api_msg.c:1654:16
	ldr	r0, [r0]
	.loc	3 1654 22                       @ rt-thread/components/net/lwip-2.0.2/src/api/api_msg.c:1654:22
	ldrb	r0, [r0, #1]
.Ltmp622:
	.loc	3 1654 11                       @ rt-thread/components/net/lwip-2.0.2/src/api/api_msg.c:1654:11
	cbz	r0, .LBB16_5
	b	.LBB16_4
.LBB16_4:
.Ltmp623:
	.loc	3 1656 9 is_stmt 1              @ rt-thread/components/net/lwip-2.0.2/src/api/api_msg.c:1656:9
	ldr	r1, [sp, #8]
	movs	r0, #251
	.loc	3 1656 18 is_stmt 0             @ rt-thread/components/net/lwip-2.0.2/src/api/api_msg.c:1656:18
	strb	r0, [r1, #4]
	.loc	3 1657 7 is_stmt 1              @ rt-thread/components/net/lwip-2.0.2/src/api/api_msg.c:1657:7
	b	.LBB16_36
.Ltmp624:
.LBB16_5:
	.loc	3 1657 18 is_stmt 0             @ rt-thread/components/net/lwip-2.0.2/src/api/api_msg.c:1657:18
	ldr	r0, [sp, #8]
	.loc	3 1657 23                       @ rt-thread/components/net/lwip-2.0.2/src/api/api_msg.c:1657:23
	ldr	r0, [r0]
	.loc	3 1657 33                       @ rt-thread/components/net/lwip-2.0.2/src/api/api_msg.c:1657:33
	ldr	r0, [r0, #4]
.Ltmp625:
	.loc	3 1657 18                       @ rt-thread/components/net/lwip-2.0.2/src/api/api_msg.c:1657:18
	cmp	r0, #0
	beq.w	.LBB16_34
	b	.LBB16_6
.LBB16_6:
.Ltmp626:
	.loc	3 1658 9 is_stmt 1              @ rt-thread/components/net/lwip-2.0.2/src/api/api_msg.c:1658:9
	ldr	r0, [sp, #8]
	.loc	3 1658 14 is_stmt 0             @ rt-thread/components/net/lwip-2.0.2/src/api/api_msg.c:1658:14
	ldr	r1, [r0]
	movs	r0, #1
	.loc	3 1658 26                       @ rt-thread/components/net/lwip-2.0.2/src/api/api_msg.c:1658:26
	strb	r0, [r1, #1]
	.loc	3 1660 9 is_stmt 1              @ rt-thread/components/net/lwip-2.0.2/src/api/api_msg.c:1660:9
	b	.LBB16_7
.LBB16_7:
.Ltmp627:
	.loc	3 1660 9 is_stmt 0              @ rt-thread/components/net/lwip-2.0.2/src/api/api_msg.c:1660:9
	ldr	r0, [sp, #8]
	ldr	r0, [r0]
	ldr	r0, [r0, #52]
	cbnz	r0, .LBB16_9
	b	.LBB16_8
.LBB16_8:
	ldr	r0, [sp, #8]
	ldr	r0, [r0]
	ldr	r0, [r0, #48]
.Ltmp628:
	.loc	3 1660 9                        @ rt-thread/components/net/lwip-2.0.2/src/api/api_msg.c:1660:9
	cbz	r0, .LBB16_12
	b	.LBB16_9
.LBB16_9:
.Ltmp629:
	.loc	3 1660 9                        @ rt-thread/components/net/lwip-2.0.2/src/api/api_msg.c:1660:9
	b	.LBB16_10
.LBB16_10:
.Ltmp630:
	.loc	3 1660 9                        @ rt-thread/components/net/lwip-2.0.2/src/api/api_msg.c:1660:9
	movw	r0, :lower16:.L.str.7
	movt	r0, :upper16:.L.str.7
	bl	rt_kprintf
	movw	r0, :lower16:.L.str
	movt	r0, :upper16:.L.str
	movw	r1, #1661
	bl	sys_arch_assert
	b	.LBB16_11
.Ltmp631:
.LBB16_11:
	.loc	3 1660 9                        @ rt-thread/components/net/lwip-2.0.2/src/api/api_msg.c:1660:9
	b	.LBB16_12
.Ltmp632:
.LBB16_12:
	.loc	3 1660 9                        @ rt-thread/components/net/lwip-2.0.2/src/api/api_msg.c:1660:9
	b	.LBB16_13
.Ltmp633:
.LBB16_13:
	.loc	3 1662 9 is_stmt 1              @ rt-thread/components/net/lwip-2.0.2/src/api/api_msg.c:1662:9
	b	.LBB16_14
.LBB16_14:
.Ltmp634:
	.loc	3 1662 9 is_stmt 0              @ rt-thread/components/net/lwip-2.0.2/src/api/api_msg.c:1662:9
	ldr	r0, [sp, #8]
	ldr	r0, [r0, #12]
.Ltmp635:
	.loc	3 1662 9                        @ rt-thread/components/net/lwip-2.0.2/src/api/api_msg.c:1662:9
	cbnz	r0, .LBB16_18
	b	.LBB16_15
.LBB16_15:
.Ltmp636:
	.loc	3 1662 9                        @ rt-thread/components/net/lwip-2.0.2/src/api/api_msg.c:1662:9
	b	.LBB16_16
.LBB16_16:
.Ltmp637:
	.loc	3 1662 9                        @ rt-thread/components/net/lwip-2.0.2/src/api/api_msg.c:1662:9
	movw	r0, :lower16:.L.str.10
	movt	r0, :upper16:.L.str.10
	bl	rt_kprintf
	movw	r0, :lower16:.L.str
	movt	r0, :upper16:.L.str
	movw	r1, #1662
	bl	sys_arch_assert
	b	.LBB16_17
.Ltmp638:
.LBB16_17:
	.loc	3 1662 9                        @ rt-thread/components/net/lwip-2.0.2/src/api/api_msg.c:1662:9
	b	.LBB16_18
.Ltmp639:
.LBB16_18:
	.loc	3 1662 9                        @ rt-thread/components/net/lwip-2.0.2/src/api/api_msg.c:1662:9
	b	.LBB16_19
.Ltmp640:
.LBB16_19:
	.loc	3 1663 34 is_stmt 1             @ rt-thread/components/net/lwip-2.0.2/src/api/api_msg.c:1663:34
	ldr	r0, [sp, #8]
	.loc	3 1663 14 is_stmt 0             @ rt-thread/components/net/lwip-2.0.2/src/api/api_msg.c:1663:14
	ldr	r1, [r0]
	.loc	3 1663 32                       @ rt-thread/components/net/lwip-2.0.2/src/api/api_msg.c:1663:32
	str	r0, [r1, #52]
	.loc	3 1664 9 is_stmt 1              @ rt-thread/components/net/lwip-2.0.2/src/api/api_msg.c:1664:9
	ldr	r0, [sp, #8]
	.loc	3 1664 14 is_stmt 0             @ rt-thread/components/net/lwip-2.0.2/src/api/api_msg.c:1664:14
	ldr	r0, [r0]
	movs	r1, #0
	.loc	3 1664 33                       @ rt-thread/components/net/lwip-2.0.2/src/api/api_msg.c:1664:33
	str	r1, [r0, #48]
.Ltmp641:
	.loc	3 1666 39 is_stmt 1             @ rt-thread/components/net/lwip-2.0.2/src/api/api_msg.c:1666:39
	ldr	r0, [sp, #8]
	.loc	3 1666 44 is_stmt 0             @ rt-thread/components/net/lwip-2.0.2/src/api/api_msg.c:1666:44
	ldr	r0, [r0]
	.loc	3 1666 13                       @ rt-thread/components/net/lwip-2.0.2/src/api/api_msg.c:1666:13
	bl	lwip_netconn_do_writemore
.Ltmp642:
	.loc	3 1666 13                       @ rt-thread/components/net/lwip-2.0.2/src/api/api_msg.c:1666:13
	cmp	r0, #0
	beq	.LBB16_33
	b	.LBB16_20
.LBB16_20:
.Ltmp643:
	.loc	3 1667 11 is_stmt 1             @ rt-thread/components/net/lwip-2.0.2/src/api/api_msg.c:1667:11
	b	.LBB16_21
.LBB16_21:
.Ltmp644:
	.loc	3 1667 11 is_stmt 0             @ rt-thread/components/net/lwip-2.0.2/src/api/api_msg.c:1667:11
	ldr	r0, [sp, #8]
	ldr	r0, [r0]
	ldrb	r0, [r0, #1]
.Ltmp645:
	.loc	3 1667 11                       @ rt-thread/components/net/lwip-2.0.2/src/api/api_msg.c:1667:11
	cmp	r0, #1
	beq	.LBB16_25
	b	.LBB16_22
.LBB16_22:
.Ltmp646:
	.loc	3 1667 11                       @ rt-thread/components/net/lwip-2.0.2/src/api/api_msg.c:1667:11
	b	.LBB16_23
.LBB16_23:
.Ltmp647:
	.loc	3 1667 11                       @ rt-thread/components/net/lwip-2.0.2/src/api/api_msg.c:1667:11
	movw	r0, :lower16:.L.str.8
	movt	r0, :upper16:.L.str.8
	bl	rt_kprintf
	movw	r0, :lower16:.L.str
	movt	r0, :upper16:.L.str
	movw	r1, #1667
	bl	sys_arch_assert
	b	.LBB16_24
.Ltmp648:
.LBB16_24:
	.loc	3 1667 11                       @ rt-thread/components/net/lwip-2.0.2/src/api/api_msg.c:1667:11
	b	.LBB16_25
.Ltmp649:
.LBB16_25:
	.loc	3 1667 11                       @ rt-thread/components/net/lwip-2.0.2/src/api/api_msg.c:1667:11
	b	.LBB16_26
.Ltmp650:
.LBB16_26:
	.loc	3 1668 11 is_stmt 1             @ rt-thread/components/net/lwip-2.0.2/src/api/api_msg.c:1668:11
	movw	r0, :lower16:lock_tcpip_core
	movt	r0, :upper16:lock_tcpip_core
	str	r0, [sp, #4]                    @ 4-byte Spill
	bl	sys_mutex_unlock
	.loc	3 1669 29                       @ rt-thread/components/net/lwip-2.0.2/src/api/api_msg.c:1669:29
	ldr	r0, [sp, #8]
	ldr	r0, [r0]
	adds	r0, #12
	movs	r1, #0
	.loc	3 1669 11 is_stmt 0             @ rt-thread/components/net/lwip-2.0.2/src/api/api_msg.c:1669:11
	bl	sys_arch_sem_wait
                                        @ kill: def $r1 killed $r0
	.loc	3 1670 11 is_stmt 1             @ rt-thread/components/net/lwip-2.0.2/src/api/api_msg.c:1670:11
	ldr	r0, [sp, #4]                    @ 4-byte Reload
	bl	sys_mutex_lock
	.loc	3 1671 11                       @ rt-thread/components/net/lwip-2.0.2/src/api/api_msg.c:1671:11
	b	.LBB16_27
.LBB16_27:
.Ltmp651:
	.loc	3 1671 11 is_stmt 0             @ rt-thread/components/net/lwip-2.0.2/src/api/api_msg.c:1671:11
	ldr	r0, [sp, #8]
	ldr	r0, [r0]
	ldrb	r0, [r0, #1]
.Ltmp652:
	.loc	3 1671 11                       @ rt-thread/components/net/lwip-2.0.2/src/api/api_msg.c:1671:11
	cmp	r0, #1
	bne	.LBB16_31
	b	.LBB16_28
.LBB16_28:
.Ltmp653:
	.loc	3 1671 11                       @ rt-thread/components/net/lwip-2.0.2/src/api/api_msg.c:1671:11
	b	.LBB16_29
.LBB16_29:
.Ltmp654:
	.loc	3 1671 11                       @ rt-thread/components/net/lwip-2.0.2/src/api/api_msg.c:1671:11
	movw	r0, :lower16:.L.str.8
	movt	r0, :upper16:.L.str.8
	bl	rt_kprintf
	movw	r0, :lower16:.L.str
	movt	r0, :upper16:.L.str
	movw	r1, #1671
	bl	sys_arch_assert
	b	.LBB16_30
.Ltmp655:
.LBB16_30:
	.loc	3 1671 11                       @ rt-thread/components/net/lwip-2.0.2/src/api/api_msg.c:1671:11
	b	.LBB16_31
.Ltmp656:
.LBB16_31:
	.loc	3 1671 11                       @ rt-thread/components/net/lwip-2.0.2/src/api/api_msg.c:1671:11
	b	.LBB16_32
.Ltmp657:
.LBB16_32:
	.loc	3 1672 9 is_stmt 1              @ rt-thread/components/net/lwip-2.0.2/src/api/api_msg.c:1672:9
	b	.LBB16_33
.Ltmp658:
.LBB16_33:
	.loc	3 1678 9                        @ rt-thread/components/net/lwip-2.0.2/src/api/api_msg.c:1678:9
	b	.LBB16_45
.Ltmp659:
.LBB16_34:
	.loc	3 1680 9                        @ rt-thread/components/net/lwip-2.0.2/src/api/api_msg.c:1680:9
	ldr	r1, [sp, #8]
	movs	r0, #245
	.loc	3 1680 18 is_stmt 0             @ rt-thread/components/net/lwip-2.0.2/src/api/api_msg.c:1680:18
	strb	r0, [r1, #4]
	b	.LBB16_35
.Ltmp660:
.LBB16_35:
	.loc	3 0 18                          @ rt-thread/components/net/lwip-2.0.2/src/api/api_msg.c:0:18
	b	.LBB16_36
.LBB16_36:
	.loc	3 1686 5 is_stmt 1              @ rt-thread/components/net/lwip-2.0.2/src/api/api_msg.c:1686:5
	b	.LBB16_38
.Ltmp661:
.LBB16_37:
	.loc	3 1687 7                        @ rt-thread/components/net/lwip-2.0.2/src/api/api_msg.c:1687:7
	ldr	r1, [sp, #8]
	movs	r0, #250
	.loc	3 1687 16 is_stmt 0             @ rt-thread/components/net/lwip-2.0.2/src/api/api_msg.c:1687:16
	strb	r0, [r1, #4]
	b	.LBB16_38
.Ltmp662:
.LBB16_38:
	.loc	3 0 16                          @ rt-thread/components/net/lwip-2.0.2/src/api/api_msg.c:0:16
	b	.LBB16_39
.LBB16_39:
	.loc	3 1691 3 is_stmt 1              @ rt-thread/components/net/lwip-2.0.2/src/api/api_msg.c:1691:3
	b	.LBB16_40
.LBB16_40:
.Ltmp663:
	.loc	3 1691 3 is_stmt 0              @ rt-thread/components/net/lwip-2.0.2/src/api/api_msg.c:1691:3
	ldr	r0, [sp, #8]
	ldr	r0, [r0]
.Ltmp664:
	.loc	3 1691 3                        @ rt-thread/components/net/lwip-2.0.2/src/api/api_msg.c:1691:3
	cbz	r0, .LBB16_44
	b	.LBB16_41
.LBB16_41:
.Ltmp665:
	.loc	3 1691 3                        @ rt-thread/components/net/lwip-2.0.2/src/api/api_msg.c:1691:3
	bl	rt_enter_critical
.Ltmp666:
	.loc	3 1691 3                        @ rt-thread/components/net/lwip-2.0.2/src/api/api_msg.c:1691:3
	ldr	r0, [sp, #8]
	ldr	r0, [r0]
	ldrsb.w	r0, [r0, #8]
.Ltmp667:
	.loc	3 1691 3                        @ rt-thread/components/net/lwip-2.0.2/src/api/api_msg.c:1691:3
	cmn.w	r0, #12
	blt	.LBB16_43
	b	.LBB16_42
.LBB16_42:
.Ltmp668:
	.loc	3 1691 3                        @ rt-thread/components/net/lwip-2.0.2/src/api/api_msg.c:1691:3
	ldr	r1, [sp, #8]
	ldrb	r0, [r1, #4]
	ldr	r1, [r1]
	strb	r0, [r1, #8]
	b	.LBB16_43
.Ltmp669:
.LBB16_43:
	.loc	3 1691 3                        @ rt-thread/components/net/lwip-2.0.2/src/api/api_msg.c:1691:3
	bl	rt_exit_critical
	b	.LBB16_44
.Ltmp670:
.LBB16_44:
	.loc	3 1691 3                        @ rt-thread/components/net/lwip-2.0.2/src/api/api_msg.c:1691:3
	b	.LBB16_45
.Ltmp671:
.LBB16_45:
	.loc	3 1692 1 is_stmt 1              @ rt-thread/components/net/lwip-2.0.2/src/api/api_msg.c:1692:1
	add	sp, #16
	pop	{r7, pc}
.Ltmp672:
.Lfunc_end16:
	.size	lwip_netconn_do_write, .Lfunc_end16-lwip_netconn_do_write
	.cfi_endproc
	.cantunwind
	.fnend
                                        @ -- End function
	.section	.text.lwip_netconn_do_writemore,"ax",%progbits
	.p2align	3                               @ -- Begin function lwip_netconn_do_writemore
	.type	lwip_netconn_do_writemore,%function
	.code	16                              @ @lwip_netconn_do_writemore
	.thumb_func
lwip_netconn_do_writemore:
.Lfunc_begin17:
	.loc	3 1492 0                        @ rt-thread/components/net/lwip-2.0.2/src/api/api_msg.c:1492:0
	.fnstart
	.cfi_startproc
@ %bb.0:
	.save	{r7, lr}
	push	{r7, lr}
	.cfi_def_cfa_offset 8
	.cfi_offset lr, -4
	.cfi_offset r7, -8
	.pad	#40
	sub	sp, #40
	.cfi_def_cfa_offset 48
                                        @ kill: def $r2 killed $r1
	str	r0, [sp, #32]
	strb.w	r1, [sp, #31]
	movs	r0, #0
.Ltmp673:
	.loc	3 1496 8 prologue_end           @ rt-thread/components/net/lwip-2.0.2/src/api/api_msg.c:1496:8
	strb.w	r0, [sp, #19]
	.loc	3 1501 3                        @ rt-thread/components/net/lwip-2.0.2/src/api/api_msg.c:1501:3
	b	.LBB17_1
.LBB17_1:
.Ltmp674:
	.loc	3 1501 3 is_stmt 0              @ rt-thread/components/net/lwip-2.0.2/src/api/api_msg.c:1501:3
	ldr	r0, [sp, #32]
.Ltmp675:
	.loc	3 1501 3                        @ rt-thread/components/net/lwip-2.0.2/src/api/api_msg.c:1501:3
	cbnz	r0, .LBB17_5
	b	.LBB17_2
.LBB17_2:
.Ltmp676:
	.loc	3 1501 3                        @ rt-thread/components/net/lwip-2.0.2/src/api/api_msg.c:1501:3
	b	.LBB17_3
.LBB17_3:
.Ltmp677:
	.loc	3 1501 3                        @ rt-thread/components/net/lwip-2.0.2/src/api/api_msg.c:1501:3
	movw	r0, :lower16:.L.str.23
	movt	r0, :upper16:.L.str.23
	bl	rt_kprintf
	movw	r0, :lower16:.L.str
	movt	r0, :upper16:.L.str
	movw	r1, #1501
	bl	sys_arch_assert
	b	.LBB17_4
.Ltmp678:
.LBB17_4:
	.loc	3 1501 3                        @ rt-thread/components/net/lwip-2.0.2/src/api/api_msg.c:1501:3
	b	.LBB17_5
.Ltmp679:
.LBB17_5:
	.loc	3 1501 3                        @ rt-thread/components/net/lwip-2.0.2/src/api/api_msg.c:1501:3
	b	.LBB17_6
.Ltmp680:
.LBB17_6:
	.loc	3 1502 3 is_stmt 1              @ rt-thread/components/net/lwip-2.0.2/src/api/api_msg.c:1502:3
	b	.LBB17_7
.LBB17_7:
.Ltmp681:
	.loc	3 1502 3 is_stmt 0              @ rt-thread/components/net/lwip-2.0.2/src/api/api_msg.c:1502:3
	ldr	r0, [sp, #32]
	ldrb	r0, [r0, #1]
.Ltmp682:
	.loc	3 1502 3                        @ rt-thread/components/net/lwip-2.0.2/src/api/api_msg.c:1502:3
	cmp	r0, #1
	beq	.LBB17_11
	b	.LBB17_8
.LBB17_8:
.Ltmp683:
	.loc	3 1502 3                        @ rt-thread/components/net/lwip-2.0.2/src/api/api_msg.c:1502:3
	b	.LBB17_9
.LBB17_9:
.Ltmp684:
	.loc	3 1502 3                        @ rt-thread/components/net/lwip-2.0.2/src/api/api_msg.c:1502:3
	movw	r0, :lower16:.L.str.32
	movt	r0, :upper16:.L.str.32
	bl	rt_kprintf
	movw	r0, :lower16:.L.str
	movt	r0, :upper16:.L.str
	movw	r1, #1502
	bl	sys_arch_assert
	b	.LBB17_10
.Ltmp685:
.LBB17_10:
	.loc	3 1502 3                        @ rt-thread/components/net/lwip-2.0.2/src/api/api_msg.c:1502:3
	b	.LBB17_11
.Ltmp686:
.LBB17_11:
	.loc	3 1502 3                        @ rt-thread/components/net/lwip-2.0.2/src/api/api_msg.c:1502:3
	b	.LBB17_12
.Ltmp687:
.LBB17_12:
	.loc	3 1503 3 is_stmt 1              @ rt-thread/components/net/lwip-2.0.2/src/api/api_msg.c:1503:3
	b	.LBB17_13
.LBB17_13:
.Ltmp688:
	.loc	3 1503 3 is_stmt 0              @ rt-thread/components/net/lwip-2.0.2/src/api/api_msg.c:1503:3
	ldr	r0, [sp, #32]
	ldr	r0, [r0, #52]
.Ltmp689:
	.loc	3 1503 3                        @ rt-thread/components/net/lwip-2.0.2/src/api/api_msg.c:1503:3
	cbnz	r0, .LBB17_17
	b	.LBB17_14
.LBB17_14:
.Ltmp690:
	.loc	3 1503 3                        @ rt-thread/components/net/lwip-2.0.2/src/api/api_msg.c:1503:3
	b	.LBB17_15
.LBB17_15:
.Ltmp691:
	.loc	3 1503 3                        @ rt-thread/components/net/lwip-2.0.2/src/api/api_msg.c:1503:3
	movw	r0, :lower16:.L.str.20
	movt	r0, :upper16:.L.str.20
	bl	rt_kprintf
	movw	r0, :lower16:.L.str
	movt	r0, :upper16:.L.str
	movw	r1, #1503
	bl	sys_arch_assert
	b	.LBB17_16
.Ltmp692:
.LBB17_16:
	.loc	3 1503 3                        @ rt-thread/components/net/lwip-2.0.2/src/api/api_msg.c:1503:3
	b	.LBB17_17
.Ltmp693:
.LBB17_17:
	.loc	3 1503 3                        @ rt-thread/components/net/lwip-2.0.2/src/api/api_msg.c:1503:3
	b	.LBB17_18
.Ltmp694:
.LBB17_18:
	.loc	3 1504 3 is_stmt 1              @ rt-thread/components/net/lwip-2.0.2/src/api/api_msg.c:1504:3
	b	.LBB17_19
.LBB17_19:
.Ltmp695:
	.loc	3 1504 3 is_stmt 0              @ rt-thread/components/net/lwip-2.0.2/src/api/api_msg.c:1504:3
	ldr	r0, [sp, #32]
	ldr	r0, [r0, #4]
.Ltmp696:
	.loc	3 1504 3                        @ rt-thread/components/net/lwip-2.0.2/src/api/api_msg.c:1504:3
	cbnz	r0, .LBB17_23
	b	.LBB17_20
.LBB17_20:
.Ltmp697:
	.loc	3 1504 3                        @ rt-thread/components/net/lwip-2.0.2/src/api/api_msg.c:1504:3
	b	.LBB17_21
.LBB17_21:
.Ltmp698:
	.loc	3 1504 3                        @ rt-thread/components/net/lwip-2.0.2/src/api/api_msg.c:1504:3
	movw	r0, :lower16:.L.str.33
	movt	r0, :upper16:.L.str.33
	bl	rt_kprintf
	movw	r0, :lower16:.L.str
	movt	r0, :upper16:.L.str
	mov.w	r1, #1504
	bl	sys_arch_assert
	b	.LBB17_22
.Ltmp699:
.LBB17_22:
	.loc	3 1504 3                        @ rt-thread/components/net/lwip-2.0.2/src/api/api_msg.c:1504:3
	b	.LBB17_23
.Ltmp700:
.LBB17_23:
	.loc	3 1504 3                        @ rt-thread/components/net/lwip-2.0.2/src/api/api_msg.c:1504:3
	b	.LBB17_24
.Ltmp701:
.LBB17_24:
	.loc	3 1505 3 is_stmt 1              @ rt-thread/components/net/lwip-2.0.2/src/api/api_msg.c:1505:3
	b	.LBB17_25
.LBB17_25:
.Ltmp702:
	.loc	3 1505 3 is_stmt 0              @ rt-thread/components/net/lwip-2.0.2/src/api/api_msg.c:1505:3
	ldr	r1, [sp, #32]
	ldr	r0, [r1, #48]
	ldr	r1, [r1, #52]
	ldr	r1, [r1, #12]
.Ltmp703:
	.loc	3 1505 3                        @ rt-thread/components/net/lwip-2.0.2/src/api/api_msg.c:1505:3
	cmp	r0, r1
	blo	.LBB17_29
	b	.LBB17_26
.LBB17_26:
.Ltmp704:
	.loc	3 1505 3                        @ rt-thread/components/net/lwip-2.0.2/src/api/api_msg.c:1505:3
	b	.LBB17_27
.LBB17_27:
.Ltmp705:
	.loc	3 1505 3                        @ rt-thread/components/net/lwip-2.0.2/src/api/api_msg.c:1505:3
	movw	r0, :lower16:.L.str.34
	movt	r0, :upper16:.L.str.34
	bl	rt_kprintf
	movw	r0, :lower16:.L.str
	movt	r0, :upper16:.L.str
	movw	r1, #1506
	bl	sys_arch_assert
	b	.LBB17_28
.Ltmp706:
.LBB17_28:
	.loc	3 1505 3                        @ rt-thread/components/net/lwip-2.0.2/src/api/api_msg.c:1505:3
	b	.LBB17_29
.Ltmp707:
.LBB17_29:
	.loc	3 1505 3                        @ rt-thread/components/net/lwip-2.0.2/src/api/api_msg.c:1505:3
	b	.LBB17_30
.Ltmp708:
.LBB17_30:
	.loc	3 1508 14 is_stmt 1             @ rt-thread/components/net/lwip-2.0.2/src/api/api_msg.c:1508:14
	ldr	r0, [sp, #32]
	.loc	3 1508 20 is_stmt 0             @ rt-thread/components/net/lwip-2.0.2/src/api/api_msg.c:1508:20
	ldr	r0, [r0, #52]
	.loc	3 1508 39                       @ rt-thread/components/net/lwip-2.0.2/src/api/api_msg.c:1508:39
	ldrb	r0, [r0, #16]
	.loc	3 1508 12                       @ rt-thread/components/net/lwip-2.0.2/src/api/api_msg.c:1508:12
	strb.w	r0, [sp, #10]
	.loc	3 1509 15 is_stmt 1             @ rt-thread/components/net/lwip-2.0.2/src/api/api_msg.c:1509:15
	ldr	r0, [sp, #32]
	ldrb.w	r1, [r0, #44]
	movs	r0, #1
	.loc	3 1509 44 is_stmt 0             @ rt-thread/components/net/lwip-2.0.2/src/api/api_msg.c:1509:44
	lsls	r1, r1, #30
	cmp	r1, #0
	str	r0, [sp]                        @ 4-byte Spill
	bmi	.LBB17_32
	b	.LBB17_31
.LBB17_31:
	.loc	3 1509 48                       @ rt-thread/components/net/lwip-2.0.2/src/api/api_msg.c:1509:48
	ldrb.w	r0, [sp, #10]
	.loc	3 1509 44                       @ rt-thread/components/net/lwip-2.0.2/src/api/api_msg.c:1509:44
	ubfx	r0, r0, #2, #1
	str	r0, [sp]                        @ 4-byte Spill
	b	.LBB17_32
.LBB17_32:
	.loc	3 0 44                          @ rt-thread/components/net/lwip-2.0.2/src/api/api_msg.c:0:44
	ldr	r0, [sp]                        @ 4-byte Reload
	.loc	3 1509 15                       @ rt-thread/components/net/lwip-2.0.2/src/api/api_msg.c:1509:15
	and	r0, r0, #1
	.loc	3 1509 13                       @ rt-thread/components/net/lwip-2.0.2/src/api/api_msg.c:1509:13
	strb.w	r0, [sp, #11]
.Ltmp709:
	.loc	3 1512 8 is_stmt 1              @ rt-thread/components/net/lwip-2.0.2/src/api/api_msg.c:1512:8
	ldr	r0, [sp, #32]
	.loc	3 1512 14 is_stmt 0             @ rt-thread/components/net/lwip-2.0.2/src/api/api_msg.c:1512:14
	ldr	r0, [r0, #28]
	.loc	3 1512 33                       @ rt-thread/components/net/lwip-2.0.2/src/api/api_msg.c:1512:33
	cbz	r0, .LBB17_38
	b	.LBB17_33
.LBB17_33:
	.loc	3 1513 16 is_stmt 1             @ rt-thread/components/net/lwip-2.0.2/src/api/api_msg.c:1513:16
	bl	sys_now
	.loc	3 1513 28 is_stmt 0             @ rt-thread/components/net/lwip-2.0.2/src/api/api_msg.c:1513:28
	ldr	r2, [sp, #32]
	.loc	3 1513 76                       @ rt-thread/components/net/lwip-2.0.2/src/api/api_msg.c:1513:76
	ldr	r1, [r2, #28]
	.loc	3 1513 34                       @ rt-thread/components/net/lwip-2.0.2/src/api/api_msg.c:1513:34
	ldr	r2, [r2, #52]
	.loc	3 1513 53                       @ rt-thread/components/net/lwip-2.0.2/src/api/api_msg.c:1513:53
	ldr	r2, [r2, #20]
	.loc	3 1513 26                       @ rt-thread/components/net/lwip-2.0.2/src/api/api_msg.c:1513:26
	subs	r0, r0, r2
.Ltmp710:
	.loc	3 1512 7 is_stmt 1              @ rt-thread/components/net/lwip-2.0.2/src/api/api_msg.c:1512:7
	cmp	r0, r1
	blt	.LBB17_38
	b	.LBB17_34
.LBB17_34:
	.loc	3 0 7 is_stmt 0                 @ rt-thread/components/net/lwip-2.0.2/src/api/api_msg.c:0:7
	movs	r0, #1
.Ltmp711:
	.loc	3 1514 20 is_stmt 1             @ rt-thread/components/net/lwip-2.0.2/src/api/api_msg.c:1514:20
	strb.w	r0, [sp, #19]
.Ltmp712:
	.loc	3 1515 9                        @ rt-thread/components/net/lwip-2.0.2/src/api/api_msg.c:1515:9
	ldr	r0, [sp, #32]
	.loc	3 1515 15 is_stmt 0             @ rt-thread/components/net/lwip-2.0.2/src/api/api_msg.c:1515:15
	ldr	r0, [r0, #48]
.Ltmp713:
	.loc	3 1515 9                        @ rt-thread/components/net/lwip-2.0.2/src/api/api_msg.c:1515:9
	cbnz	r0, .LBB17_36
	b	.LBB17_35
.LBB17_35:
	.loc	3 0 9                           @ rt-thread/components/net/lwip-2.0.2/src/api/api_msg.c:0:9
	movs	r0, #249
.Ltmp714:
	.loc	3 1517 11 is_stmt 1             @ rt-thread/components/net/lwip-2.0.2/src/api/api_msg.c:1517:11
	strb.w	r0, [sp, #30]
	.loc	3 1518 7                        @ rt-thread/components/net/lwip-2.0.2/src/api/api_msg.c:1518:7
	ldr	r0, [sp, #32]
	.loc	3 1518 13 is_stmt 0             @ rt-thread/components/net/lwip-2.0.2/src/api/api_msg.c:1518:13
	ldr	r1, [r0, #52]
	movs	r0, #0
	.loc	3 1518 36                       @ rt-thread/components/net/lwip-2.0.2/src/api/api_msg.c:1518:36
	str	r0, [r1, #12]
	.loc	3 1519 5 is_stmt 1              @ rt-thread/components/net/lwip-2.0.2/src/api/api_msg.c:1519:5
	b	.LBB17_37
.Ltmp715:
.LBB17_36:
	.loc	3 0 5 is_stmt 0                 @ rt-thread/components/net/lwip-2.0.2/src/api/api_msg.c:0:5
	movs	r0, #0
.Ltmp716:
	.loc	3 1521 11 is_stmt 1             @ rt-thread/components/net/lwip-2.0.2/src/api/api_msg.c:1521:11
	strb.w	r0, [sp, #30]
	.loc	3 1522 38                       @ rt-thread/components/net/lwip-2.0.2/src/api/api_msg.c:1522:38
	ldr	r2, [sp, #32]
	.loc	3 1522 44 is_stmt 0             @ rt-thread/components/net/lwip-2.0.2/src/api/api_msg.c:1522:44
	ldr	r1, [r2, #48]
	.loc	3 1522 13                       @ rt-thread/components/net/lwip-2.0.2/src/api/api_msg.c:1522:13
	ldr	r2, [r2, #52]
	.loc	3 1522 36                       @ rt-thread/components/net/lwip-2.0.2/src/api/api_msg.c:1522:36
	str	r1, [r2, #12]
	.loc	3 1523 7 is_stmt 1              @ rt-thread/components/net/lwip-2.0.2/src/api/api_msg.c:1523:7
	ldr	r1, [sp, #32]
	.loc	3 1523 26 is_stmt 0             @ rt-thread/components/net/lwip-2.0.2/src/api/api_msg.c:1523:26
	str	r0, [r1, #48]
	b	.LBB17_37
.Ltmp717:
.LBB17_37:
	.loc	3 1525 3 is_stmt 1              @ rt-thread/components/net/lwip-2.0.2/src/api/api_msg.c:1525:3
	b	.LBB17_88
.Ltmp718:
.LBB17_38:
	.loc	3 1528 28                       @ rt-thread/components/net/lwip-2.0.2/src/api/api_msg.c:1528:28
	ldr	r0, [sp, #32]
	.loc	3 1528 69 is_stmt 0             @ rt-thread/components/net/lwip-2.0.2/src/api/api_msg.c:1528:69
	ldr	r1, [r0, #48]
	.loc	3 1528 34                       @ rt-thread/components/net/lwip-2.0.2/src/api/api_msg.c:1528:34
	ldr	r0, [r0, #52]
	.loc	3 1528 53                       @ rt-thread/components/net/lwip-2.0.2/src/api/api_msg.c:1528:53
	ldr	r0, [r0, #8]
	.loc	3 1528 61                       @ rt-thread/components/net/lwip-2.0.2/src/api/api_msg.c:1528:61
	add	r0, r1
	.loc	3 1528 13                       @ rt-thread/components/net/lwip-2.0.2/src/api/api_msg.c:1528:13
	str	r0, [sp, #24]
	.loc	3 1529 12 is_stmt 1             @ rt-thread/components/net/lwip-2.0.2/src/api/api_msg.c:1529:12
	ldr	r0, [sp, #32]
	.loc	3 1529 49 is_stmt 0             @ rt-thread/components/net/lwip-2.0.2/src/api/api_msg.c:1529:49
	ldr	r1, [r0, #48]
	.loc	3 1529 18                       @ rt-thread/components/net/lwip-2.0.2/src/api/api_msg.c:1529:18
	ldr	r0, [r0, #52]
	.loc	3 1529 37                       @ rt-thread/components/net/lwip-2.0.2/src/api/api_msg.c:1529:37
	ldr	r0, [r0, #12]
	.loc	3 1529 41                       @ rt-thread/components/net/lwip-2.0.2/src/api/api_msg.c:1529:41
	subs	r0, r0, r1
	.loc	3 1529 10                       @ rt-thread/components/net/lwip-2.0.2/src/api/api_msg.c:1529:10
	str	r0, [sp, #12]
.Ltmp719:
	.loc	3 1530 9 is_stmt 1              @ rt-thread/components/net/lwip-2.0.2/src/api/api_msg.c:1530:9
	ldr	r0, [sp, #12]
.Ltmp720:
	.loc	3 1530 9 is_stmt 0              @ rt-thread/components/net/lwip-2.0.2/src/api/api_msg.c:1530:9
	cmp.w	r0, #65536
	blo	.LBB17_40
	b	.LBB17_39
.LBB17_39:
	.loc	3 0 9                           @ rt-thread/components/net/lwip-2.0.2/src/api/api_msg.c:0:9
	movw	r0, #65535
.Ltmp721:
	.loc	3 1531 11 is_stmt 1             @ rt-thread/components/net/lwip-2.0.2/src/api/api_msg.c:1531:11
	strh.w	r0, [sp, #22]
	.loc	3 1532 16                       @ rt-thread/components/net/lwip-2.0.2/src/api/api_msg.c:1532:16
	ldrb.w	r0, [sp, #10]
	orr	r0, r0, #2
	strb.w	r0, [sp, #10]
	.loc	3 1533 5                        @ rt-thread/components/net/lwip-2.0.2/src/api/api_msg.c:1533:5
	b	.LBB17_41
.Ltmp722:
.LBB17_40:
	.loc	3 1534 20                       @ rt-thread/components/net/lwip-2.0.2/src/api/api_msg.c:1534:20
	ldr	r0, [sp, #12]
	.loc	3 1534 11 is_stmt 0             @ rt-thread/components/net/lwip-2.0.2/src/api/api_msg.c:1534:11
	strh.w	r0, [sp, #22]
	b	.LBB17_41
.Ltmp723:
.LBB17_41:
	.loc	3 1536 17 is_stmt 1             @ rt-thread/components/net/lwip-2.0.2/src/api/api_msg.c:1536:17
	ldr	r0, [sp, #32]
	ldr	r0, [r0, #4]
	ldrh.w	r0, [r0, #96]
	.loc	3 1536 15 is_stmt 0             @ rt-thread/components/net/lwip-2.0.2/src/api/api_msg.c:1536:15
	strh.w	r0, [sp, #20]
.Ltmp724:
	.loc	3 1537 9 is_stmt 1              @ rt-thread/components/net/lwip-2.0.2/src/api/api_msg.c:1537:9
	ldrh.w	r0, [sp, #20]
	.loc	3 1537 21 is_stmt 0             @ rt-thread/components/net/lwip-2.0.2/src/api/api_msg.c:1537:21
	ldrh.w	r1, [sp, #22]
.Ltmp725:
	.loc	3 1537 9                        @ rt-thread/components/net/lwip-2.0.2/src/api/api_msg.c:1537:9
	cmp	r0, r1
	bge	.LBB17_48
	b	.LBB17_42
.LBB17_42:
.Ltmp726:
	.loc	3 1539 13 is_stmt 1             @ rt-thread/components/net/lwip-2.0.2/src/api/api_msg.c:1539:13
	ldrh.w	r0, [sp, #20]
	.loc	3 1539 11 is_stmt 0             @ rt-thread/components/net/lwip-2.0.2/src/api/api_msg.c:1539:11
	strh.w	r0, [sp, #22]
.Ltmp727:
	.loc	3 1540 11 is_stmt 1             @ rt-thread/components/net/lwip-2.0.2/src/api/api_msg.c:1540:11
	ldrb.w	r0, [sp, #11]
.Ltmp728:
	.loc	3 1540 11 is_stmt 0             @ rt-thread/components/net/lwip-2.0.2/src/api/api_msg.c:1540:11
	cbz	r0, .LBB17_46
	b	.LBB17_43
.LBB17_43:
.Ltmp729:
	.loc	3 1541 14 is_stmt 1             @ rt-thread/components/net/lwip-2.0.2/src/api/api_msg.c:1541:14
	ldrh.w	r0, [sp, #22]
.Ltmp730:
	.loc	3 1541 13 is_stmt 0             @ rt-thread/components/net/lwip-2.0.2/src/api/api_msg.c:1541:13
	cbnz	r0, .LBB17_45
	b	.LBB17_44
.LBB17_44:
	.loc	3 0 13                          @ rt-thread/components/net/lwip-2.0.2/src/api/api_msg.c:0:13
	movs	r0, #249
.Ltmp731:
	.loc	3 1542 15 is_stmt 1             @ rt-thread/components/net/lwip-2.0.2/src/api/api_msg.c:1542:15
	strb.w	r0, [sp, #30]
	.loc	3 1543 11                       @ rt-thread/components/net/lwip-2.0.2/src/api/api_msg.c:1543:11
	b	.LBB17_57
.Ltmp732:
.LBB17_45:
	.loc	3 1545 7                        @ rt-thread/components/net/lwip-2.0.2/src/api/api_msg.c:1545:7
	b	.LBB17_47
.Ltmp733:
.LBB17_46:
	.loc	3 1546 18                       @ rt-thread/components/net/lwip-2.0.2/src/api/api_msg.c:1546:18
	ldrb.w	r0, [sp, #10]
	orr	r0, r0, #2
	strb.w	r0, [sp, #10]
	b	.LBB17_47
.Ltmp734:
.LBB17_47:
	.loc	3 1548 5                        @ rt-thread/components/net/lwip-2.0.2/src/api/api_msg.c:1548:5
	b	.LBB17_48
.Ltmp735:
.LBB17_48:
	.loc	3 1549 5                        @ rt-thread/components/net/lwip-2.0.2/src/api/api_msg.c:1549:5
	b	.LBB17_49
.LBB17_49:
.Ltmp736:
	.loc	3 1549 5 is_stmt 0              @ rt-thread/components/net/lwip-2.0.2/src/api/api_msg.c:1549:5
	ldr	r1, [sp, #32]
	ldrh.w	r2, [sp, #22]
	ldr	r0, [r1, #48]
	ldr	r1, [r1, #52]
	add	r0, r2
	ldr	r1, [r1, #12]
.Ltmp737:
	.loc	3 1549 5                        @ rt-thread/components/net/lwip-2.0.2/src/api/api_msg.c:1549:5
	cmp	r0, r1
	bls	.LBB17_53
	b	.LBB17_50
.LBB17_50:
.Ltmp738:
	.loc	3 1549 5                        @ rt-thread/components/net/lwip-2.0.2/src/api/api_msg.c:1549:5
	b	.LBB17_51
.LBB17_51:
.Ltmp739:
	.loc	3 1549 5                        @ rt-thread/components/net/lwip-2.0.2/src/api/api_msg.c:1549:5
	movw	r0, :lower16:.L.str.35
	movt	r0, :upper16:.L.str.35
	bl	rt_kprintf
	movw	r0, :lower16:.L.str
	movt	r0, :upper16:.L.str
	movw	r1, #1549
	bl	sys_arch_assert
	b	.LBB17_52
.Ltmp740:
.LBB17_52:
	.loc	3 1549 5                        @ rt-thread/components/net/lwip-2.0.2/src/api/api_msg.c:1549:5
	b	.LBB17_53
.Ltmp741:
.LBB17_53:
	.loc	3 1549 5                        @ rt-thread/components/net/lwip-2.0.2/src/api/api_msg.c:1549:5
	b	.LBB17_54
.Ltmp742:
.LBB17_54:
	.loc	3 1550 21 is_stmt 1             @ rt-thread/components/net/lwip-2.0.2/src/api/api_msg.c:1550:21
	ldr	r0, [sp, #32]
	.loc	3 1550 31 is_stmt 0             @ rt-thread/components/net/lwip-2.0.2/src/api/api_msg.c:1550:31
	ldr	r0, [r0, #4]
	.loc	3 1550 36                       @ rt-thread/components/net/lwip-2.0.2/src/api/api_msg.c:1550:36
	ldr	r1, [sp, #24]
	.loc	3 1550 45                       @ rt-thread/components/net/lwip-2.0.2/src/api/api_msg.c:1550:45
	ldrh.w	r2, [sp, #22]
	.loc	3 1550 50                       @ rt-thread/components/net/lwip-2.0.2/src/api/api_msg.c:1550:50
	ldrb.w	r3, [sp, #10]
	.loc	3 1550 11                       @ rt-thread/components/net/lwip-2.0.2/src/api/api_msg.c:1550:11
	bl	tcp_write
	.loc	3 1550 9                        @ rt-thread/components/net/lwip-2.0.2/src/api/api_msg.c:1550:9
	strb.w	r0, [sp, #30]
.Ltmp743:
	.loc	3 1552 10 is_stmt 1             @ rt-thread/components/net/lwip-2.0.2/src/api/api_msg.c:1552:10
	ldrsb.w	r0, [sp, #30]
	.loc	3 1552 25 is_stmt 0             @ rt-thread/components/net/lwip-2.0.2/src/api/api_msg.c:1552:25
	cbz	r0, .LBB17_56
	b	.LBB17_55
.LBB17_55:
	.loc	3 1552 29                       @ rt-thread/components/net/lwip-2.0.2/src/api/api_msg.c:1552:29
	ldrsb.w	r0, [sp, #30]
.Ltmp744:
	.loc	3 1552 9                        @ rt-thread/components/net/lwip-2.0.2/src/api/api_msg.c:1552:9
	adds	r0, #1
	cmp	r0, #0
	bne	.LBB17_69
	b	.LBB17_56
.LBB17_56:
.Ltmp745:
	.loc	3 1552 46                       @ rt-thread/components/net/lwip-2.0.2/src/api/api_msg.c:1552:46
	b	.LBB17_57
.LBB17_57:
.Ltmp746:
	@DEBUG_LABEL: err_mem
	.loc	3 1554 11 is_stmt 1             @ rt-thread/components/net/lwip-2.0.2/src/api/api_msg.c:1554:11
	ldrb.w	r0, [sp, #11]
	.loc	3 1554 21 is_stmt 0             @ rt-thread/components/net/lwip-2.0.2/src/api/api_msg.c:1554:21
	cbz	r0, .LBB17_62
	b	.LBB17_58
.LBB17_58:
	.loc	3 1554 25                       @ rt-thread/components/net/lwip-2.0.2/src/api/api_msg.c:1554:25
	ldrh.w	r0, [sp, #22]
	.loc	3 1554 31                       @ rt-thread/components/net/lwip-2.0.2/src/api/api_msg.c:1554:31
	ldr	r1, [sp, #32]
	.loc	3 1554 37                       @ rt-thread/components/net/lwip-2.0.2/src/api/api_msg.c:1554:37
	ldr	r1, [r1, #52]
	.loc	3 1554 56                       @ rt-thread/components/net/lwip-2.0.2/src/api/api_msg.c:1554:56
	ldr	r1, [r1, #12]
.Ltmp747:
	.loc	3 1554 11                       @ rt-thread/components/net/lwip-2.0.2/src/api/api_msg.c:1554:11
	cmp	r0, r1
	bhs	.LBB17_62
	b	.LBB17_59
.LBB17_59:
.Ltmp748:
	.loc	3 1557 9 is_stmt 1              @ rt-thread/components/net/lwip-2.0.2/src/api/api_msg.c:1557:9
	ldr	r0, [sp, #32]
	ldr	r0, [r0, #56]
.Ltmp749:
	.loc	3 1557 9 is_stmt 0              @ rt-thread/components/net/lwip-2.0.2/src/api/api_msg.c:1557:9
	cbz	r0, .LBB17_61
	b	.LBB17_60
.LBB17_60:
.Ltmp750:
	.loc	3 1557 9                        @ rt-thread/components/net/lwip-2.0.2/src/api/api_msg.c:1557:9
	ldr	r0, [sp, #32]
	ldr	r3, [r0, #56]
	ldrh.w	r2, [sp, #22]
	movs	r1, #3
	blx	r3
	b	.LBB17_61
.Ltmp751:
.LBB17_61:
	.loc	3 1558 9 is_stmt 1              @ rt-thread/components/net/lwip-2.0.2/src/api/api_msg.c:1558:9
	ldr	r1, [sp, #32]
	.loc	3 1558 21 is_stmt 0             @ rt-thread/components/net/lwip-2.0.2/src/api/api_msg.c:1558:21
	ldrb.w	r0, [r1, #44]
	orr	r0, r0, #16
	strb.w	r0, [r1, #44]
	.loc	3 1559 7 is_stmt 1              @ rt-thread/components/net/lwip-2.0.2/src/api/api_msg.c:1559:7
	b	.LBB17_68
.Ltmp752:
.LBB17_62:
	.loc	3 1559 19 is_stmt 0             @ rt-thread/components/net/lwip-2.0.2/src/api/api_msg.c:1559:19
	ldr	r0, [sp, #32]
	ldr	r0, [r0, #4]
	ldrh.w	r0, [r0, #96]
	movw	r1, #4099
	.loc	3 1559 62                       @ rt-thread/components/net/lwip-2.0.2/src/api/api_msg.c:1559:62
	cmp	r0, r1
	blt	.LBB17_64
	b	.LBB17_63
.LBB17_63:
	.loc	3 1560 19 is_stmt 1             @ rt-thread/components/net/lwip-2.0.2/src/api/api_msg.c:1560:19
	ldr	r0, [sp, #32]
	ldr	r0, [r0, #4]
	ldrh.w	r0, [r0, #98]
.Ltmp753:
	.loc	3 1559 18                       @ rt-thread/components/net/lwip-2.0.2/src/api/api_msg.c:1559:18
	cmp	r0, #11
	blt	.LBB17_67
	b	.LBB17_64
.LBB17_64:
.Ltmp754:
	.loc	3 1563 9                        @ rt-thread/components/net/lwip-2.0.2/src/api/api_msg.c:1563:9
	ldr	r0, [sp, #32]
	ldr	r0, [r0, #56]
.Ltmp755:
	.loc	3 1563 9 is_stmt 0              @ rt-thread/components/net/lwip-2.0.2/src/api/api_msg.c:1563:9
	cbz	r0, .LBB17_66
	b	.LBB17_65
.LBB17_65:
.Ltmp756:
	.loc	3 1563 9                        @ rt-thread/components/net/lwip-2.0.2/src/api/api_msg.c:1563:9
	ldr	r0, [sp, #32]
	ldr	r3, [r0, #56]
	ldrh.w	r2, [sp, #22]
	movs	r1, #3
	blx	r3
	b	.LBB17_66
.Ltmp757:
.LBB17_66:
	.loc	3 1564 7 is_stmt 1              @ rt-thread/components/net/lwip-2.0.2/src/api/api_msg.c:1564:7
	b	.LBB17_67
.Ltmp758:
.LBB17_67:
	.loc	3 0 7 is_stmt 0                 @ rt-thread/components/net/lwip-2.0.2/src/api/api_msg.c:0:7
	b	.LBB17_68
.LBB17_68:
	.loc	3 1565 5 is_stmt 1              @ rt-thread/components/net/lwip-2.0.2/src/api/api_msg.c:1565:5
	b	.LBB17_69
.Ltmp759:
.LBB17_69:
	.loc	3 1567 9                        @ rt-thread/components/net/lwip-2.0.2/src/api/api_msg.c:1567:9
	ldrsb.w	r0, [sp, #30]
.Ltmp760:
	.loc	3 1567 9 is_stmt 0              @ rt-thread/components/net/lwip-2.0.2/src/api/api_msg.c:1567:9
	cbnz	r0, .LBB17_77
	b	.LBB17_70
.LBB17_70:
.Ltmp761:
	.loc	3 1569 29 is_stmt 1             @ rt-thread/components/net/lwip-2.0.2/src/api/api_msg.c:1569:29
	ldrh.w	r2, [sp, #22]
	.loc	3 1569 7 is_stmt 0              @ rt-thread/components/net/lwip-2.0.2/src/api/api_msg.c:1569:7
	ldr	r1, [sp, #32]
	.loc	3 1569 26                       @ rt-thread/components/net/lwip-2.0.2/src/api/api_msg.c:1569:26
	ldr	r0, [r1, #48]
	add	r0, r2
	str	r0, [r1, #48]
.Ltmp762:
	.loc	3 1570 12 is_stmt 1             @ rt-thread/components/net/lwip-2.0.2/src/api/api_msg.c:1570:12
	ldr	r1, [sp, #32]
	.loc	3 1570 18 is_stmt 0             @ rt-thread/components/net/lwip-2.0.2/src/api/api_msg.c:1570:18
	ldr	r0, [r1, #48]
	.loc	3 1570 40                       @ rt-thread/components/net/lwip-2.0.2/src/api/api_msg.c:1570:40
	ldr	r1, [r1, #52]
	.loc	3 1570 59                       @ rt-thread/components/net/lwip-2.0.2/src/api/api_msg.c:1570:59
	ldr	r1, [r1, #12]
	.loc	3 1570 64                       @ rt-thread/components/net/lwip-2.0.2/src/api/api_msg.c:1570:64
	cmp	r0, r1
	beq	.LBB17_72
	b	.LBB17_71
.LBB17_71:
	.loc	3 1570 67                       @ rt-thread/components/net/lwip-2.0.2/src/api/api_msg.c:1570:67
	ldrb.w	r0, [sp, #11]
.Ltmp763:
	.loc	3 1570 11                       @ rt-thread/components/net/lwip-2.0.2/src/api/api_msg.c:1570:11
	cbz	r0, .LBB17_73
	b	.LBB17_72
.LBB17_72:
.Ltmp764:
	.loc	3 1572 40 is_stmt 1             @ rt-thread/components/net/lwip-2.0.2/src/api/api_msg.c:1572:40
	ldr	r1, [sp, #32]
	.loc	3 1572 46 is_stmt 0             @ rt-thread/components/net/lwip-2.0.2/src/api/api_msg.c:1572:46
	ldr	r0, [r1, #48]
	.loc	3 1572 15                       @ rt-thread/components/net/lwip-2.0.2/src/api/api_msg.c:1572:15
	ldr	r1, [r1, #52]
	.loc	3 1572 38                       @ rt-thread/components/net/lwip-2.0.2/src/api/api_msg.c:1572:38
	str	r0, [r1, #12]
	movs	r0, #1
	.loc	3 1574 24 is_stmt 1             @ rt-thread/components/net/lwip-2.0.2/src/api/api_msg.c:1574:24
	strb.w	r0, [sp, #19]
	.loc	3 1575 7                        @ rt-thread/components/net/lwip-2.0.2/src/api/api_msg.c:1575:7
	b	.LBB17_73
.Ltmp765:
.LBB17_73:
	.loc	3 1576 28                       @ rt-thread/components/net/lwip-2.0.2/src/api/api_msg.c:1576:28
	ldr	r0, [sp, #32]
	.loc	3 1576 38 is_stmt 0             @ rt-thread/components/net/lwip-2.0.2/src/api/api_msg.c:1576:38
	ldr	r0, [r0, #4]
	.loc	3 1576 17                       @ rt-thread/components/net/lwip-2.0.2/src/api/api_msg.c:1576:17
	bl	tcp_output
	.loc	3 1576 15                       @ rt-thread/components/net/lwip-2.0.2/src/api/api_msg.c:1576:15
	strb.w	r0, [sp, #9]
.Ltmp766:
	.loc	3 1577 11 is_stmt 1             @ rt-thread/components/net/lwip-2.0.2/src/api/api_msg.c:1577:11
	ldrsb.w	r0, [sp, #9]
	.loc	3 1577 33 is_stmt 0             @ rt-thread/components/net/lwip-2.0.2/src/api/api_msg.c:1577:33
	cmn.w	r0, #12
	blt	.LBB17_75
	b	.LBB17_74
.LBB17_74:
	.loc	3 1577 37                       @ rt-thread/components/net/lwip-2.0.2/src/api/api_msg.c:1577:37
	ldrsb.w	r0, [sp, #9]
.Ltmp767:
	.loc	3 1577 11                       @ rt-thread/components/net/lwip-2.0.2/src/api/api_msg.c:1577:11
	adds	r0, #4
	cbnz	r0, .LBB17_76
	b	.LBB17_75
.LBB17_75:
.Ltmp768:
	.loc	3 1581 15 is_stmt 1             @ rt-thread/components/net/lwip-2.0.2/src/api/api_msg.c:1581:15
	ldrb.w	r0, [sp, #9]
	.loc	3 1581 13 is_stmt 0             @ rt-thread/components/net/lwip-2.0.2/src/api/api_msg.c:1581:13
	strb.w	r0, [sp, #30]
	movs	r0, #1
	.loc	3 1582 24 is_stmt 1             @ rt-thread/components/net/lwip-2.0.2/src/api/api_msg.c:1582:24
	strb.w	r0, [sp, #19]
	.loc	3 1583 9                        @ rt-thread/components/net/lwip-2.0.2/src/api/api_msg.c:1583:9
	ldr	r0, [sp, #32]
	.loc	3 1583 15 is_stmt 0             @ rt-thread/components/net/lwip-2.0.2/src/api/api_msg.c:1583:15
	ldr	r1, [r0, #52]
	movs	r0, #0
	.loc	3 1583 38                       @ rt-thread/components/net/lwip-2.0.2/src/api/api_msg.c:1583:38
	str	r0, [r1, #12]
	.loc	3 1584 7 is_stmt 1              @ rt-thread/components/net/lwip-2.0.2/src/api/api_msg.c:1584:7
	b	.LBB17_76
.Ltmp769:
.LBB17_76:
	.loc	3 1585 5                        @ rt-thread/components/net/lwip-2.0.2/src/api/api_msg.c:1585:5
	b	.LBB17_87
.Ltmp770:
.LBB17_77:
	.loc	3 1585 16 is_stmt 0             @ rt-thread/components/net/lwip-2.0.2/src/api/api_msg.c:1585:16
	ldrsb.w	r0, [sp, #30]
.Ltmp771:
	.loc	3 1585 16                       @ rt-thread/components/net/lwip-2.0.2/src/api/api_msg.c:1585:16
	adds	r0, #1
	cbnz	r0, .LBB17_85
	b	.LBB17_78
.LBB17_78:
.Ltmp772:
	.loc	3 1592 34 is_stmt 1             @ rt-thread/components/net/lwip-2.0.2/src/api/api_msg.c:1592:34
	ldr	r0, [sp, #32]
	.loc	3 1592 44 is_stmt 0             @ rt-thread/components/net/lwip-2.0.2/src/api/api_msg.c:1592:44
	ldr	r0, [r0, #4]
	.loc	3 1592 23                       @ rt-thread/components/net/lwip-2.0.2/src/api/api_msg.c:1592:23
	bl	tcp_output
	.loc	3 1592 13                       @ rt-thread/components/net/lwip-2.0.2/src/api/api_msg.c:1592:13
	strb.w	r0, [sp, #8]
.Ltmp773:
	.loc	3 1593 11 is_stmt 1             @ rt-thread/components/net/lwip-2.0.2/src/api/api_msg.c:1593:11
	ldrsb.w	r0, [sp, #8]
	.loc	3 1593 33 is_stmt 0             @ rt-thread/components/net/lwip-2.0.2/src/api/api_msg.c:1593:33
	cmn.w	r0, #12
	blt	.LBB17_80
	b	.LBB17_79
.LBB17_79:
	.loc	3 1593 37                       @ rt-thread/components/net/lwip-2.0.2/src/api/api_msg.c:1593:37
	ldrsb.w	r0, [sp, #8]
.Ltmp774:
	.loc	3 1593 11                       @ rt-thread/components/net/lwip-2.0.2/src/api/api_msg.c:1593:11
	adds	r0, #4
	cbnz	r0, .LBB17_81
	b	.LBB17_80
.LBB17_80:
.Ltmp775:
	.loc	3 1597 15 is_stmt 1             @ rt-thread/components/net/lwip-2.0.2/src/api/api_msg.c:1597:15
	ldrb.w	r0, [sp, #8]
	.loc	3 1597 13 is_stmt 0             @ rt-thread/components/net/lwip-2.0.2/src/api/api_msg.c:1597:13
	strb.w	r0, [sp, #30]
	movs	r0, #1
	.loc	3 1598 24 is_stmt 1             @ rt-thread/components/net/lwip-2.0.2/src/api/api_msg.c:1598:24
	strb.w	r0, [sp, #19]
	.loc	3 1599 9                        @ rt-thread/components/net/lwip-2.0.2/src/api/api_msg.c:1599:9
	ldr	r0, [sp, #32]
	.loc	3 1599 15 is_stmt 0             @ rt-thread/components/net/lwip-2.0.2/src/api/api_msg.c:1599:15
	ldr	r1, [r0, #52]
	movs	r0, #0
	.loc	3 1599 38                       @ rt-thread/components/net/lwip-2.0.2/src/api/api_msg.c:1599:38
	str	r0, [r1, #12]
	.loc	3 1600 7 is_stmt 1              @ rt-thread/components/net/lwip-2.0.2/src/api/api_msg.c:1600:7
	b	.LBB17_84
.Ltmp776:
.LBB17_81:
	.loc	3 1600 18 is_stmt 0             @ rt-thread/components/net/lwip-2.0.2/src/api/api_msg.c:1600:18
	ldrb.w	r0, [sp, #11]
.Ltmp777:
	.loc	3 1600 18                       @ rt-thread/components/net/lwip-2.0.2/src/api/api_msg.c:1600:18
	cbz	r0, .LBB17_83
	b	.LBB17_82
.LBB17_82:
	.loc	3 0 18                          @ rt-thread/components/net/lwip-2.0.2/src/api/api_msg.c:0:18
	movs	r0, #249
.Ltmp778:
	.loc	3 1602 13 is_stmt 1             @ rt-thread/components/net/lwip-2.0.2/src/api/api_msg.c:1602:13
	strb.w	r0, [sp, #30]
	movs	r0, #1
	.loc	3 1603 24                       @ rt-thread/components/net/lwip-2.0.2/src/api/api_msg.c:1603:24
	strb.w	r0, [sp, #19]
	.loc	3 1604 9                        @ rt-thread/components/net/lwip-2.0.2/src/api/api_msg.c:1604:9
	ldr	r0, [sp, #32]
	.loc	3 1604 15 is_stmt 0             @ rt-thread/components/net/lwip-2.0.2/src/api/api_msg.c:1604:15
	ldr	r1, [r0, #52]
	movs	r0, #0
	.loc	3 1604 38                       @ rt-thread/components/net/lwip-2.0.2/src/api/api_msg.c:1604:38
	str	r0, [r1, #12]
	.loc	3 1605 7 is_stmt 1              @ rt-thread/components/net/lwip-2.0.2/src/api/api_msg.c:1605:7
	b	.LBB17_83
.Ltmp779:
.LBB17_83:
	.loc	3 0 7 is_stmt 0                 @ rt-thread/components/net/lwip-2.0.2/src/api/api_msg.c:0:7
	b	.LBB17_84
.LBB17_84:
	.loc	3 1606 5 is_stmt 1              @ rt-thread/components/net/lwip-2.0.2/src/api/api_msg.c:1606:5
	b	.LBB17_86
.Ltmp780:
.LBB17_85:
	.loc	3 0 5 is_stmt 0                 @ rt-thread/components/net/lwip-2.0.2/src/api/api_msg.c:0:5
	movs	r0, #1
.Ltmp781:
	.loc	3 1609 22 is_stmt 1             @ rt-thread/components/net/lwip-2.0.2/src/api/api_msg.c:1609:22
	strb.w	r0, [sp, #19]
	.loc	3 1610 7                        @ rt-thread/components/net/lwip-2.0.2/src/api/api_msg.c:1610:7
	ldr	r0, [sp, #32]
	.loc	3 1610 13 is_stmt 0             @ rt-thread/components/net/lwip-2.0.2/src/api/api_msg.c:1610:13
	ldr	r1, [r0, #52]
	movs	r0, #0
	.loc	3 1610 36                       @ rt-thread/components/net/lwip-2.0.2/src/api/api_msg.c:1610:36
	str	r0, [r1, #12]
	b	.LBB17_86
.Ltmp782:
.LBB17_86:
	.loc	3 0 36                          @ rt-thread/components/net/lwip-2.0.2/src/api/api_msg.c:0:36
	b	.LBB17_87
.LBB17_87:
	b	.LBB17_88
.LBB17_88:
.Ltmp783:
	.loc	3 1613 7 is_stmt 1              @ rt-thread/components/net/lwip-2.0.2/src/api/api_msg.c:1613:7
	ldrb.w	r0, [sp, #19]
.Ltmp784:
	.loc	3 1613 7 is_stmt 0              @ rt-thread/components/net/lwip-2.0.2/src/api/api_msg.c:1613:7
	cbz	r0, .LBB17_98
	b	.LBB17_89
.LBB17_89:
.Ltmp785:
	.loc	3 1616 35 is_stmt 1             @ rt-thread/components/net/lwip-2.0.2/src/api/api_msg.c:1616:35
	ldr	r0, [sp, #32]
	ldr	r0, [r0, #52]
	ldr	r0, [r0]
	adds	r0, #12
	.loc	3 1616 16 is_stmt 0             @ rt-thread/components/net/lwip-2.0.2/src/api/api_msg.c:1616:16
	str	r0, [sp, #4]
	.loc	3 1617 30 is_stmt 1             @ rt-thread/components/net/lwip-2.0.2/src/api/api_msg.c:1617:30
	ldrb.w	r0, [sp, #30]
	.loc	3 1617 5 is_stmt 0              @ rt-thread/components/net/lwip-2.0.2/src/api/api_msg.c:1617:5
	ldr	r1, [sp, #32]
	.loc	3 1617 11                       @ rt-thread/components/net/lwip-2.0.2/src/api/api_msg.c:1617:11
	ldr	r1, [r1, #52]
	.loc	3 1617 28                       @ rt-thread/components/net/lwip-2.0.2/src/api/api_msg.c:1617:28
	strb	r0, [r1, #4]
	.loc	3 1618 5 is_stmt 1              @ rt-thread/components/net/lwip-2.0.2/src/api/api_msg.c:1618:5
	ldr	r1, [sp, #32]
	movs	r0, #0
	.loc	3 1618 23 is_stmt 0             @ rt-thread/components/net/lwip-2.0.2/src/api/api_msg.c:1618:23
	str	r0, [r1, #52]
	.loc	3 1619 5 is_stmt 1              @ rt-thread/components/net/lwip-2.0.2/src/api/api_msg.c:1619:5
	ldr	r1, [sp, #32]
	.loc	3 1619 24 is_stmt 0             @ rt-thread/components/net/lwip-2.0.2/src/api/api_msg.c:1619:24
	str	r0, [r1, #48]
	.loc	3 1620 5 is_stmt 1              @ rt-thread/components/net/lwip-2.0.2/src/api/api_msg.c:1620:5
	ldr	r1, [sp, #32]
	.loc	3 1620 17 is_stmt 0             @ rt-thread/components/net/lwip-2.0.2/src/api/api_msg.c:1620:17
	strb	r0, [r1, #1]
	.loc	3 1621 5 is_stmt 1              @ rt-thread/components/net/lwip-2.0.2/src/api/api_msg.c:1621:5
	b	.LBB17_90
.LBB17_90:
.Ltmp786:
	.loc	3 1621 5 is_stmt 0              @ rt-thread/components/net/lwip-2.0.2/src/api/api_msg.c:1621:5
	ldr	r0, [sp, #32]
.Ltmp787:
	.loc	3 1621 5                        @ rt-thread/components/net/lwip-2.0.2/src/api/api_msg.c:1621:5
	cbz	r0, .LBB17_94
	b	.LBB17_91
.LBB17_91:
.Ltmp788:
	.loc	3 1621 5                        @ rt-thread/components/net/lwip-2.0.2/src/api/api_msg.c:1621:5
	bl	rt_enter_critical
.Ltmp789:
	.loc	3 1621 5                        @ rt-thread/components/net/lwip-2.0.2/src/api/api_msg.c:1621:5
	ldr	r0, [sp, #32]
	ldrsb.w	r0, [r0, #8]
.Ltmp790:
	.loc	3 1621 5                        @ rt-thread/components/net/lwip-2.0.2/src/api/api_msg.c:1621:5
	cmn.w	r0, #12
	blt	.LBB17_93
	b	.LBB17_92
.LBB17_92:
.Ltmp791:
	.loc	3 1621 5                        @ rt-thread/components/net/lwip-2.0.2/src/api/api_msg.c:1621:5
	ldrb.w	r0, [sp, #30]
	ldr	r1, [sp, #32]
	strb	r0, [r1, #8]
	b	.LBB17_93
.Ltmp792:
.LBB17_93:
	.loc	3 1621 5                        @ rt-thread/components/net/lwip-2.0.2/src/api/api_msg.c:1621:5
	bl	rt_exit_critical
	b	.LBB17_94
.Ltmp793:
.LBB17_94:
	.loc	3 1621 5                        @ rt-thread/components/net/lwip-2.0.2/src/api/api_msg.c:1621:5
	b	.LBB17_95
.Ltmp794:
.LBB17_95:
	.loc	3 1623 9 is_stmt 1              @ rt-thread/components/net/lwip-2.0.2/src/api/api_msg.c:1623:9
	ldrb.w	r0, [sp, #31]
.Ltmp795:
	.loc	3 1623 9 is_stmt 0              @ rt-thread/components/net/lwip-2.0.2/src/api/api_msg.c:1623:9
	cbz	r0, .LBB17_97
	b	.LBB17_96
.LBB17_96:
.Ltmp796:
	.loc	3 1626 22 is_stmt 1             @ rt-thread/components/net/lwip-2.0.2/src/api/api_msg.c:1626:22
	ldr	r0, [sp, #4]
	.loc	3 1626 7 is_stmt 0              @ rt-thread/components/net/lwip-2.0.2/src/api/api_msg.c:1626:7
	bl	sys_sem_signal
	.loc	3 1627 5 is_stmt 1              @ rt-thread/components/net/lwip-2.0.2/src/api/api_msg.c:1627:5
	b	.LBB17_97
.Ltmp797:
.LBB17_97:
	.loc	3 1628 3                        @ rt-thread/components/net/lwip-2.0.2/src/api/api_msg.c:1628:3
	b	.LBB17_99
.Ltmp798:
.LBB17_98:
	.loc	3 0 3 is_stmt 0                 @ rt-thread/components/net/lwip-2.0.2/src/api/api_msg.c:0:3
	movs	r0, #255
.Ltmp799:
	.loc	3 1631 5 is_stmt 1              @ rt-thread/components/net/lwip-2.0.2/src/api/api_msg.c:1631:5
	strb.w	r0, [sp, #39]
	b	.LBB17_100
.Ltmp800:
.LBB17_99:
	.loc	3 0 5 is_stmt 0                 @ rt-thread/components/net/lwip-2.0.2/src/api/api_msg.c:0:5
	movs	r0, #0
	.loc	3 1634 3 is_stmt 1              @ rt-thread/components/net/lwip-2.0.2/src/api/api_msg.c:1634:3
	strb.w	r0, [sp, #39]
	b	.LBB17_100
.LBB17_100:
	.loc	3 1635 1                        @ rt-thread/components/net/lwip-2.0.2/src/api/api_msg.c:1635:1
	ldrsb.w	r0, [sp, #39]
	add	sp, #40
	pop	{r7, pc}
.Ltmp801:
.Lfunc_end17:
	.size	lwip_netconn_do_writemore, .Lfunc_end17-lwip_netconn_do_writemore
	.cfi_endproc
	.cantunwind
	.fnend
                                        @ -- End function
	.section	.text.lwip_netconn_do_getaddr,"ax",%progbits
	.hidden	lwip_netconn_do_getaddr         @ -- Begin function lwip_netconn_do_getaddr
	.globl	lwip_netconn_do_getaddr
	.p2align	3
	.type	lwip_netconn_do_getaddr,%function
	.code	16                              @ @lwip_netconn_do_getaddr
	.thumb_func
lwip_netconn_do_getaddr:
.Lfunc_begin18:
	.loc	3 1702 0                        @ rt-thread/components/net/lwip-2.0.2/src/api/api_msg.c:1702:0
	.fnstart
	.cfi_startproc
@ %bb.0:
	.save	{r7, lr}
	push	{r7, lr}
	.cfi_def_cfa_offset 8
	.cfi_offset lr, -4
	.cfi_offset r7, -8
	.pad	#16
	sub	sp, #16
	.cfi_def_cfa_offset 24
	str	r0, [sp, #12]
.Ltmp802:
	.loc	3 1703 42 prologue_end          @ rt-thread/components/net/lwip-2.0.2/src/api/api_msg.c:1703:42
	ldr	r0, [sp, #12]
	.loc	3 1703 19 is_stmt 0             @ rt-thread/components/net/lwip-2.0.2/src/api/api_msg.c:1703:19
	str	r0, [sp, #8]
.Ltmp803:
	.loc	3 1705 7 is_stmt 1              @ rt-thread/components/net/lwip-2.0.2/src/api/api_msg.c:1705:7
	ldr	r0, [sp, #8]
	.loc	3 1705 12 is_stmt 0             @ rt-thread/components/net/lwip-2.0.2/src/api/api_msg.c:1705:12
	ldr	r0, [r0]
	.loc	3 1705 22                       @ rt-thread/components/net/lwip-2.0.2/src/api/api_msg.c:1705:22
	ldr	r0, [r0, #4]
.Ltmp804:
	.loc	3 1705 7                        @ rt-thread/components/net/lwip-2.0.2/src/api/api_msg.c:1705:7
	cmp	r0, #0
	beq.w	.LBB18_33
	b	.LBB18_1
.LBB18_1:
.Ltmp805:
	.loc	3 1706 9 is_stmt 1              @ rt-thread/components/net/lwip-2.0.2/src/api/api_msg.c:1706:9
	ldr	r0, [sp, #8]
	.loc	3 1706 21 is_stmt 0             @ rt-thread/components/net/lwip-2.0.2/src/api/api_msg.c:1706:21
	ldrb	r0, [r0, #16]
.Ltmp806:
	.loc	3 1706 9                        @ rt-thread/components/net/lwip-2.0.2/src/api/api_msg.c:1706:9
	cbz	r0, .LBB18_3
	b	.LBB18_2
.LBB18_2:
.Ltmp807:
	.loc	3 1707 7 is_stmt 1              @ rt-thread/components/net/lwip-2.0.2/src/api/api_msg.c:1707:7
	ldr	r1, [sp, #8]
	ldr	r0, [r1]
	ldr	r1, [r1, #8]
	ldr	r0, [r0, #4]
	ldr	r0, [r0]
	str	r0, [r1]
	.loc	3 1709 5                        @ rt-thread/components/net/lwip-2.0.2/src/api/api_msg.c:1709:5
	b	.LBB18_4
.Ltmp808:
.LBB18_3:
	.loc	3 1710 7                        @ rt-thread/components/net/lwip-2.0.2/src/api/api_msg.c:1710:7
	ldr	r1, [sp, #8]
	ldr	r0, [r1]
	ldr	r1, [r1, #8]
	ldr	r0, [r0, #4]
	ldr	r0, [r0, #4]
	str	r0, [r1]
	b	.LBB18_4
.Ltmp809:
.LBB18_4:
	.loc	3 1714 5                        @ rt-thread/components/net/lwip-2.0.2/src/api/api_msg.c:1714:5
	ldr	r1, [sp, #8]
	movs	r0, #0
	.loc	3 1714 14 is_stmt 0             @ rt-thread/components/net/lwip-2.0.2/src/api/api_msg.c:1714:14
	strb	r0, [r1, #4]
	.loc	3 1715 13 is_stmt 1             @ rt-thread/components/net/lwip-2.0.2/src/api/api_msg.c:1715:13
	ldr	r0, [sp, #8]
	ldr	r0, [r0]
	ldrb	r0, [r0]
	and	r0, r0, #240
	.loc	3 1715 5 is_stmt 0              @ rt-thread/components/net/lwip-2.0.2/src/api/api_msg.c:1715:5
	mov	r1, r0
	str	r1, [sp, #4]                    @ 4-byte Spill
	cmp	r0, #16
	beq	.LBB18_18
	b	.LBB18_5
.LBB18_5:
	ldr	r0, [sp, #4]                    @ 4-byte Reload
	cmp	r0, #32
	beq	.LBB18_11
	b	.LBB18_6
.LBB18_6:
	ldr	r0, [sp, #4]                    @ 4-byte Reload
	cmp	r0, #64
	bne	.LBB18_27
	b	.LBB18_7
.LBB18_7:
.Ltmp810:
	.loc	3 1718 11 is_stmt 1             @ rt-thread/components/net/lwip-2.0.2/src/api/api_msg.c:1718:11
	ldr	r0, [sp, #8]
	.loc	3 1718 23 is_stmt 0             @ rt-thread/components/net/lwip-2.0.2/src/api/api_msg.c:1718:23
	ldrb	r0, [r0, #16]
.Ltmp811:
	.loc	3 1718 11                       @ rt-thread/components/net/lwip-2.0.2/src/api/api_msg.c:1718:11
	cbz	r0, .LBB18_9
	b	.LBB18_8
.LBB18_8:
.Ltmp812:
	.loc	3 1719 44 is_stmt 1             @ rt-thread/components/net/lwip-2.0.2/src/api/api_msg.c:1719:44
	ldr	r1, [sp, #8]
	.loc	3 1719 49 is_stmt 0             @ rt-thread/components/net/lwip-2.0.2/src/api/api_msg.c:1719:49
	ldr	r0, [r1]
	.loc	3 1719 9                        @ rt-thread/components/net/lwip-2.0.2/src/api/api_msg.c:1719:9
	ldr	r1, [r1, #12]
	.loc	3 1719 59                       @ rt-thread/components/net/lwip-2.0.2/src/api/api_msg.c:1719:59
	ldr	r0, [r0, #4]
	.loc	3 1719 64                       @ rt-thread/components/net/lwip-2.0.2/src/api/api_msg.c:1719:64
	ldrb	r0, [r0, #16]
	.loc	3 1719 42                       @ rt-thread/components/net/lwip-2.0.2/src/api/api_msg.c:1719:42
	strh	r0, [r1]
	.loc	3 1720 7 is_stmt 1              @ rt-thread/components/net/lwip-2.0.2/src/api/api_msg.c:1720:7
	b	.LBB18_10
.Ltmp813:
.LBB18_9:
	.loc	3 1722 9                        @ rt-thread/components/net/lwip-2.0.2/src/api/api_msg.c:1722:9
	ldr	r1, [sp, #8]
	movs	r0, #245
	.loc	3 1722 18 is_stmt 0             @ rt-thread/components/net/lwip-2.0.2/src/api/api_msg.c:1722:18
	strb	r0, [r1, #4]
	b	.LBB18_10
.Ltmp814:
.LBB18_10:
	.loc	3 1724 7 is_stmt 1              @ rt-thread/components/net/lwip-2.0.2/src/api/api_msg.c:1724:7
	b	.LBB18_32
.LBB18_11:
.Ltmp815:
	.loc	3 1728 11                       @ rt-thread/components/net/lwip-2.0.2/src/api/api_msg.c:1728:11
	ldr	r0, [sp, #8]
	.loc	3 1728 23 is_stmt 0             @ rt-thread/components/net/lwip-2.0.2/src/api/api_msg.c:1728:23
	ldrb	r0, [r0, #16]
.Ltmp816:
	.loc	3 1728 11                       @ rt-thread/components/net/lwip-2.0.2/src/api/api_msg.c:1728:11
	cbz	r0, .LBB18_13
	b	.LBB18_12
.LBB18_12:
.Ltmp817:
	.loc	3 1729 44 is_stmt 1             @ rt-thread/components/net/lwip-2.0.2/src/api/api_msg.c:1729:44
	ldr	r1, [sp, #8]
	.loc	3 1729 49 is_stmt 0             @ rt-thread/components/net/lwip-2.0.2/src/api/api_msg.c:1729:49
	ldr	r0, [r1]
	.loc	3 1729 9                        @ rt-thread/components/net/lwip-2.0.2/src/api/api_msg.c:1729:9
	ldr	r1, [r1, #12]
	.loc	3 1729 59                       @ rt-thread/components/net/lwip-2.0.2/src/api/api_msg.c:1729:59
	ldr	r0, [r0, #4]
	.loc	3 1729 64                       @ rt-thread/components/net/lwip-2.0.2/src/api/api_msg.c:1729:64
	ldrh	r0, [r0, #18]
	.loc	3 1729 42                       @ rt-thread/components/net/lwip-2.0.2/src/api/api_msg.c:1729:42
	strh	r0, [r1]
	.loc	3 1730 7 is_stmt 1              @ rt-thread/components/net/lwip-2.0.2/src/api/api_msg.c:1730:7
	b	.LBB18_17
.Ltmp818:
.LBB18_13:
	.loc	3 1731 14                       @ rt-thread/components/net/lwip-2.0.2/src/api/api_msg.c:1731:14
	ldr	r0, [sp, #8]
	.loc	3 1731 19 is_stmt 0             @ rt-thread/components/net/lwip-2.0.2/src/api/api_msg.c:1731:19
	ldr	r0, [r0]
	.loc	3 1731 29                       @ rt-thread/components/net/lwip-2.0.2/src/api/api_msg.c:1731:29
	ldr	r0, [r0, #4]
	.loc	3 1731 14                       @ rt-thread/components/net/lwip-2.0.2/src/api/api_msg.c:1731:14
	ldrb	r0, [r0, #16]
.Ltmp819:
	.loc	3 1731 13                       @ rt-thread/components/net/lwip-2.0.2/src/api/api_msg.c:1731:13
	lsls	r0, r0, #29
	cmp	r0, #0
	bmi	.LBB18_15
	b	.LBB18_14
.LBB18_14:
.Ltmp820:
	.loc	3 1732 11 is_stmt 1             @ rt-thread/components/net/lwip-2.0.2/src/api/api_msg.c:1732:11
	ldr	r1, [sp, #8]
	movs	r0, #245
	.loc	3 1732 20 is_stmt 0             @ rt-thread/components/net/lwip-2.0.2/src/api/api_msg.c:1732:20
	strb	r0, [r1, #4]
	.loc	3 1733 9 is_stmt 1              @ rt-thread/components/net/lwip-2.0.2/src/api/api_msg.c:1733:9
	b	.LBB18_16
.Ltmp821:
.LBB18_15:
	.loc	3 1734 46                       @ rt-thread/components/net/lwip-2.0.2/src/api/api_msg.c:1734:46
	ldr	r1, [sp, #8]
	.loc	3 1734 51 is_stmt 0             @ rt-thread/components/net/lwip-2.0.2/src/api/api_msg.c:1734:51
	ldr	r0, [r1]
	.loc	3 1734 11                       @ rt-thread/components/net/lwip-2.0.2/src/api/api_msg.c:1734:11
	ldr	r1, [r1, #12]
	.loc	3 1734 61                       @ rt-thread/components/net/lwip-2.0.2/src/api/api_msg.c:1734:61
	ldr	r0, [r0, #4]
	.loc	3 1734 66                       @ rt-thread/components/net/lwip-2.0.2/src/api/api_msg.c:1734:66
	ldrh	r0, [r0, #20]
	.loc	3 1734 44                       @ rt-thread/components/net/lwip-2.0.2/src/api/api_msg.c:1734:44
	strh	r0, [r1]
	b	.LBB18_16
.Ltmp822:
.LBB18_16:
	.loc	3 0 44                          @ rt-thread/components/net/lwip-2.0.2/src/api/api_msg.c:0:44
	b	.LBB18_17
.LBB18_17:
	.loc	3 1737 7 is_stmt 1              @ rt-thread/components/net/lwip-2.0.2/src/api/api_msg.c:1737:7
	b	.LBB18_32
.LBB18_18:
.Ltmp823:
	.loc	3 1741 12                       @ rt-thread/components/net/lwip-2.0.2/src/api/api_msg.c:1741:12
	ldr	r0, [sp, #8]
	.loc	3 1741 24 is_stmt 0             @ rt-thread/components/net/lwip-2.0.2/src/api/api_msg.c:1741:24
	ldrb	r0, [r0, #16]
	.loc	3 1741 36                       @ rt-thread/components/net/lwip-2.0.2/src/api/api_msg.c:1741:36
	cbnz	r0, .LBB18_22
	b	.LBB18_19
.LBB18_19:
	.loc	3 1742 13 is_stmt 1             @ rt-thread/components/net/lwip-2.0.2/src/api/api_msg.c:1742:13
	ldr	r0, [sp, #8]
	.loc	3 1742 18 is_stmt 0             @ rt-thread/components/net/lwip-2.0.2/src/api/api_msg.c:1742:18
	ldr	r0, [r0]
	.loc	3 1742 28                       @ rt-thread/components/net/lwip-2.0.2/src/api/api_msg.c:1742:28
	ldr	r0, [r0, #4]
	.loc	3 1742 33                       @ rt-thread/components/net/lwip-2.0.2/src/api/api_msg.c:1742:33
	ldrb	r0, [r0, #20]
	.loc	3 1742 50                       @ rt-thread/components/net/lwip-2.0.2/src/api/api_msg.c:1742:50
	cbz	r0, .LBB18_21
	b	.LBB18_20
.LBB18_20:
	.loc	3 1742 54                       @ rt-thread/components/net/lwip-2.0.2/src/api/api_msg.c:1742:54
	ldr	r0, [sp, #8]
	.loc	3 1742 59                       @ rt-thread/components/net/lwip-2.0.2/src/api/api_msg.c:1742:59
	ldr	r0, [r0]
	.loc	3 1742 69                       @ rt-thread/components/net/lwip-2.0.2/src/api/api_msg.c:1742:69
	ldr	r0, [r0, #4]
	.loc	3 1742 74                       @ rt-thread/components/net/lwip-2.0.2/src/api/api_msg.c:1742:74
	ldrb	r0, [r0, #20]
.Ltmp824:
	.loc	3 1741 11 is_stmt 1             @ rt-thread/components/net/lwip-2.0.2/src/api/api_msg.c:1741:11
	cmp	r0, #1
	bne	.LBB18_22
	b	.LBB18_21
.LBB18_21:
.Ltmp825:
	.loc	3 1744 9                        @ rt-thread/components/net/lwip-2.0.2/src/api/api_msg.c:1744:9
	ldr	r1, [sp, #8]
	movs	r0, #245
	.loc	3 1744 18 is_stmt 0             @ rt-thread/components/net/lwip-2.0.2/src/api/api_msg.c:1744:18
	strb	r0, [r1, #4]
	.loc	3 1745 7 is_stmt 1              @ rt-thread/components/net/lwip-2.0.2/src/api/api_msg.c:1745:7
	b	.LBB18_26
.Ltmp826:
.LBB18_22:
	.loc	3 1746 45                       @ rt-thread/components/net/lwip-2.0.2/src/api/api_msg.c:1746:45
	ldr	r0, [sp, #8]
	.loc	3 1746 57 is_stmt 0             @ rt-thread/components/net/lwip-2.0.2/src/api/api_msg.c:1746:57
	ldrb	r0, [r0, #16]
	.loc	3 1746 45                       @ rt-thread/components/net/lwip-2.0.2/src/api/api_msg.c:1746:45
	cbz	r0, .LBB18_24
	b	.LBB18_23
.LBB18_23:
	.loc	3 1746 65                       @ rt-thread/components/net/lwip-2.0.2/src/api/api_msg.c:1746:65
	ldr	r0, [sp, #8]
	.loc	3 1746 70                       @ rt-thread/components/net/lwip-2.0.2/src/api/api_msg.c:1746:70
	ldr	r0, [r0]
	.loc	3 1746 80                       @ rt-thread/components/net/lwip-2.0.2/src/api/api_msg.c:1746:80
	ldr	r0, [r0, #4]
	.loc	3 1746 85                       @ rt-thread/components/net/lwip-2.0.2/src/api/api_msg.c:1746:85
	ldrh	r0, [r0, #22]
