	.text
	.syntax unified
	.eabi_attribute	67, "2.09"	@ Tag_conformance
	.cpu	cortex-m7
	.eabi_attribute	6, 13	@ Tag_CPU_arch
	.eabi_attribute	7, 77	@ Tag_CPU_arch_profile
	.eabi_attribute	8, 0	@ Tag_ARM_ISA_use
	.eabi_attribute	9, 2	@ Tag_THUMB_ISA_use
	.fpu	fpv5-d16
	.eabi_attribute	36, 1	@ Tag_FP_HP_extension
	.eabi_attribute	34, 1	@ Tag_CPU_unaligned_access
	.eabi_attribute	17, 1	@ Tag_ABI_PCS_GOT_use
	.eabi_attribute	20, 2	@ Tag_ABI_FP_denormal
	.eabi_attribute	21, 0	@ Tag_ABI_FP_exceptions
	.eabi_attribute	23, 1	@ Tag_ABI_FP_number_model
	.eabi_attribute	24, 1	@ Tag_ABI_align_needed
	.eabi_attribute	25, 1	@ Tag_ABI_align_preserved
	.eabi_attribute	28, 1	@ Tag_ABI_VFP_args
	.eabi_attribute	38, 1	@ Tag_ABI_FP_16bit_format
	.eabi_attribute	18, 2	@ Tag_ABI_PCS_wchar_t
	.eabi_attribute	26, 1	@ Tag_ABI_enum_size
	.eabi_attribute	14, 0	@ Tag_ABI_PCS_R9_use
	.file	"api_lib.c"
	.file	1 "E:\\Smart-access-control\\Hardware\\CODE" "./rt-thread/components/net/lwip-2.0.2/src/include\\lwip/api.h"
	.file	2 "E:\\Smart-access-control\\Hardware\\CODE" "./rt-thread/components/net/lwip-2.0.2/src/include\\lwip/tcp.h"
	.file	3 "E:\\Smart-access-control\\Hardware\\CODE" "./rt-thread/components/net/lwip-2.0.2/src/include\\lwip/err.h"
	.file	4 "E:\\Smart-access-control\\Hardware\\CODE" "./rt-thread/components/net/lwip-2.0.2/src/include\\lwip/memp.h"
	.file	5 "D:\\Keil_v5\\ARM\\ARMCLANG\\Bin\\..\\include" "stdint.h"
	.file	6 "E:\\Smart-access-control\\Hardware\\CODE" "./rt-thread/components/net/lwip-2.0.2/src/include\\lwip/arch.h"
	.file	7 "E:\\Smart-access-control\\Hardware\\CODE" "./rt-thread/components/net/lwip-2.0.2/src/include\\lwip/ip4_addr.h"
	.file	8 "E:\\Smart-access-control\\Hardware\\CODE" "./rt-thread/components/net/lwip-2.0.2/src/include\\lwip/ip_addr.h"
	.file	9 "E:\\Smart-access-control\\Hardware\\CODE" "./rt-thread/components/net/lwip-2.0.2/src/include\\lwip/ip.h"
	.file	10 "E:\\Smart-access-control\\Hardware\\CODE" "./rt-thread/components/net/lwip-2.0.2/src/include\\lwip/priv/tcp_priv.h"
	.file	11 "E:\\Smart-access-control\\Hardware\\CODE" "./rt-thread/components/net/lwip-2.0.2/src/include\\lwip/pbuf.h"
	.file	12 "E:\\Smart-access-control\\Hardware\\CODE" "./rt-thread/components/net/lwip-2.0.2/src/include\\lwip/prot/tcp.h"
	.file	13 "E:\\Smart-access-control\\Hardware\\CODE" "./rt-thread/components/net/lwip-2.0.2/src/include\\lwip/udp.h"
	.file	14 "E:\\Smart-access-control\\Hardware\\CODE" "./rt-thread/components/net/lwip-2.0.2/src/include\\lwip/raw.h"
	.file	15 "E:\\Smart-access-control\\Hardware\\CODE" "rt-thread/include\\rtdef.h"
	.file	16 "E:\\Smart-access-control\\Hardware\\CODE" "./rt-thread/components/net/lwip-2.0.2/src/arch/include\\arch/sys_arch.h"
	.file	17 "D:\\Keil_v5\\ARM\\ARMCLANG\\Bin\\..\\include" "stdlib.h"
	.file	18 "E:\\Smart-access-control\\Hardware\\CODE" "./rt-thread/components/net/lwip-2.0.2/src/include\\lwip/priv/api_msg.h"
	.file	19 "E:\\Smart-access-control\\Hardware\\CODE" "./rt-thread/components/net/lwip-2.0.2/src/include\\lwip/netbuf.h"
	.section	.text.netconn_new_with_proto_and_callback,"ax",%progbits
	.hidden	netconn_new_with_proto_and_callback @ -- Begin function netconn_new_with_proto_and_callback
	.globl	netconn_new_with_proto_and_callback
	.p2align	3
	.type	netconn_new_with_proto_and_callback,%function
	.code	16                              @ @netconn_new_with_proto_and_callback
	.thumb_func
netconn_new_with_proto_and_callback:
.Lfunc_begin0:
	.file	20 "E:\\Smart-access-control\\Hardware\\CODE" "rt-thread/components/net/lwip-2.0.2/src/api/api_lib.c"
	.loc	20 124 0                        @ rt-thread/components/net/lwip-2.0.2/src/api/api_lib.c:124:0
	.fnstart
	.cfi_sections .debug_frame
	.cfi_startproc
@ %bb.0:
	.save	{r7, lr}
	push	{r7, lr}
	.cfi_def_cfa_offset 8
	.cfi_offset lr, -4
	.cfi_offset r7, -8
	.pad	#48
	sub	sp, #48
	.cfi_def_cfa_offset 56
                                        @ kill: def $r3 killed $r1
                                        @ kill: def $r3 killed $r0
	strb.w	r0, [sp, #43]
	strb.w	r1, [sp, #42]
	str	r2, [sp, #36]
.Ltmp0:
	.loc	20 129 24 prologue_end          @ rt-thread/components/net/lwip-2.0.2/src/api/api_lib.c:129:24
	ldrb.w	r0, [sp, #43]
	.loc	20 129 27 is_stmt 0             @ rt-thread/components/net/lwip-2.0.2/src/api/api_lib.c:129:27
	ldr	r1, [sp, #36]
	.loc	20 129 10                       @ rt-thread/components/net/lwip-2.0.2/src/api/api_lib.c:129:10
	bl	netconn_alloc
	.loc	20 129 8                        @ rt-thread/components/net/lwip-2.0.2/src/api/api_lib.c:129:8
	str	r0, [sp, #32]
.Ltmp1:
	.loc	20 130 7 is_stmt 1              @ rt-thread/components/net/lwip-2.0.2/src/api/api_lib.c:130:7
	ldr	r0, [sp, #32]
.Ltmp2:
	.loc	20 130 7 is_stmt 0              @ rt-thread/components/net/lwip-2.0.2/src/api/api_lib.c:130:7
	cmp	r0, #0
	beq.w	.LBB0_28
	b	.LBB0_1
.LBB0_1:
.Ltmp3:
	.loc	20 133 40 is_stmt 1             @ rt-thread/components/net/lwip-2.0.2/src/api/api_lib.c:133:40
	ldrb.w	r0, [sp, #42]
	.loc	20 133 38 is_stmt 0             @ rt-thread/components/net/lwip-2.0.2/src/api/api_lib.c:133:38
	strb.w	r0, [sp, #16]
	.loc	20 134 33 is_stmt 1             @ rt-thread/components/net/lwip-2.0.2/src/api/api_lib.c:134:33
	ldr	r0, [sp, #32]
	.loc	20 134 31 is_stmt 0             @ rt-thread/components/net/lwip-2.0.2/src/api/api_lib.c:134:31
	str	r0, [sp, #8]
	.loc	20 135 11 is_stmt 1             @ rt-thread/components/net/lwip-2.0.2/src/api/api_lib.c:135:11
	movw	r0, :lower16:lwip_netconn_do_newconn
	movt	r0, :upper16:lwip_netconn_do_newconn
	add	r1, sp, #8
	bl	netconn_apimsg
	.loc	20 135 9 is_stmt 0              @ rt-thread/components/net/lwip-2.0.2/src/api/api_lib.c:135:9
	strb.w	r0, [sp, #7]
.Ltmp4:
	.loc	20 136 9 is_stmt 1              @ rt-thread/components/net/lwip-2.0.2/src/api/api_lib.c:136:9
	ldrsb.w	r0, [sp, #7]
.Ltmp5:
	.loc	20 136 9 is_stmt 0              @ rt-thread/components/net/lwip-2.0.2/src/api/api_lib.c:136:9
	cmp	r0, #0
	beq	.LBB0_27
	b	.LBB0_2
.LBB0_2:
.Ltmp6:
	.loc	20 137 7 is_stmt 1              @ rt-thread/components/net/lwip-2.0.2/src/api/api_lib.c:137:7
	b	.LBB0_3
.LBB0_3:
.Ltmp7:
	.loc	20 137 7 is_stmt 0              @ rt-thread/components/net/lwip-2.0.2/src/api/api_lib.c:137:7
	ldr	r0, [sp, #32]
	ldr	r0, [r0, #4]
.Ltmp8:
	.loc	20 137 7                        @ rt-thread/components/net/lwip-2.0.2/src/api/api_lib.c:137:7
	cbz	r0, .LBB0_7
	b	.LBB0_4
.LBB0_4:
.Ltmp9:
	.loc	20 137 7                        @ rt-thread/components/net/lwip-2.0.2/src/api/api_lib.c:137:7
	b	.LBB0_5
.LBB0_5:
.Ltmp10:
	.loc	20 137 7                        @ rt-thread/components/net/lwip-2.0.2/src/api/api_lib.c:137:7
	movw	r0, :lower16:.L.str
	movt	r0, :upper16:.L.str
	bl	rt_kprintf
	movw	r0, :lower16:.L.str.1
	movt	r0, :upper16:.L.str.1
	movs	r1, #137
	bl	sys_arch_assert
	b	.LBB0_6
.Ltmp11:
.LBB0_6:
	.loc	20 137 7                        @ rt-thread/components/net/lwip-2.0.2/src/api/api_lib.c:137:7
	b	.LBB0_7
.Ltmp12:
.LBB0_7:
	.loc	20 137 7                        @ rt-thread/components/net/lwip-2.0.2/src/api/api_lib.c:137:7
	b	.LBB0_8
.Ltmp13:
.LBB0_8:
	.loc	20 138 7 is_stmt 1              @ rt-thread/components/net/lwip-2.0.2/src/api/api_lib.c:138:7
	b	.LBB0_9
.LBB0_9:
.Ltmp14:
	.loc	20 138 7 is_stmt 0              @ rt-thread/components/net/lwip-2.0.2/src/api/api_lib.c:138:7
	ldr	r0, [sp, #32]
	adds	r0, #16
	bl	sys_mbox_valid
.Ltmp15:
	.loc	20 138 7                        @ rt-thread/components/net/lwip-2.0.2/src/api/api_lib.c:138:7
	cbnz	r0, .LBB0_13
	b	.LBB0_10
.LBB0_10:
.Ltmp16:
	.loc	20 138 7                        @ rt-thread/components/net/lwip-2.0.2/src/api/api_lib.c:138:7
	b	.LBB0_11
.LBB0_11:
.Ltmp17:
	.loc	20 138 7                        @ rt-thread/components/net/lwip-2.0.2/src/api/api_lib.c:138:7
	movw	r0, :lower16:.L.str.2
	movt	r0, :upper16:.L.str.2
	bl	rt_kprintf
	movw	r0, :lower16:.L.str.1
	movt	r0, :upper16:.L.str.1
	movs	r1, #138
	bl	sys_arch_assert
	b	.LBB0_12
.Ltmp18:
.LBB0_12:
	.loc	20 138 7                        @ rt-thread/components/net/lwip-2.0.2/src/api/api_lib.c:138:7
	b	.LBB0_13
.Ltmp19:
.LBB0_13:
	.loc	20 138 7                        @ rt-thread/components/net/lwip-2.0.2/src/api/api_lib.c:138:7
	b	.LBB0_14
.Ltmp20:
.LBB0_14:
	.loc	20 140 7 is_stmt 1              @ rt-thread/components/net/lwip-2.0.2/src/api/api_lib.c:140:7
	b	.LBB0_15
.LBB0_15:
.Ltmp21:
	.loc	20 140 7 is_stmt 0              @ rt-thread/components/net/lwip-2.0.2/src/api/api_lib.c:140:7
	ldr	r0, [sp, #32]
	adds	r0, #20
	bl	sys_mbox_valid
.Ltmp22:
	.loc	20 140 7                        @ rt-thread/components/net/lwip-2.0.2/src/api/api_lib.c:140:7
	cbz	r0, .LBB0_19
	b	.LBB0_16
.LBB0_16:
.Ltmp23:
	.loc	20 140 7                        @ rt-thread/components/net/lwip-2.0.2/src/api/api_lib.c:140:7
	b	.LBB0_17
.LBB0_17:
.Ltmp24:
	.loc	20 140 7                        @ rt-thread/components/net/lwip-2.0.2/src/api/api_lib.c:140:7
	movw	r0, :lower16:.L.str.3
	movt	r0, :upper16:.L.str.3
	bl	rt_kprintf
	movw	r0, :lower16:.L.str.1
	movt	r0, :upper16:.L.str.1
	movs	r1, #140
	bl	sys_arch_assert
	b	.LBB0_18
.Ltmp25:
.LBB0_18:
	.loc	20 140 7                        @ rt-thread/components/net/lwip-2.0.2/src/api/api_lib.c:140:7
	b	.LBB0_19
.Ltmp26:
.LBB0_19:
	.loc	20 140 7                        @ rt-thread/components/net/lwip-2.0.2/src/api/api_lib.c:140:7
	b	.LBB0_20
.Ltmp27:
.LBB0_20:
	.loc	20 143 7 is_stmt 1              @ rt-thread/components/net/lwip-2.0.2/src/api/api_lib.c:143:7
	b	.LBB0_21
.LBB0_21:
.Ltmp28:
	.loc	20 143 7 is_stmt 0              @ rt-thread/components/net/lwip-2.0.2/src/api/api_lib.c:143:7
	ldr	r0, [sp, #32]
	adds	r0, #12
	bl	sys_sem_valid
.Ltmp29:
	.loc	20 143 7                        @ rt-thread/components/net/lwip-2.0.2/src/api/api_lib.c:143:7
	cbnz	r0, .LBB0_25
	b	.LBB0_22
.LBB0_22:
.Ltmp30:
	.loc	20 143 7                        @ rt-thread/components/net/lwip-2.0.2/src/api/api_lib.c:143:7
	b	.LBB0_23
.LBB0_23:
.Ltmp31:
	.loc	20 143 7                        @ rt-thread/components/net/lwip-2.0.2/src/api/api_lib.c:143:7
	movw	r0, :lower16:.L.str.4
	movt	r0, :upper16:.L.str.4
	bl	rt_kprintf
	movw	r0, :lower16:.L.str.1
	movt	r0, :upper16:.L.str.1
	movs	r1, #143
	bl	sys_arch_assert
	b	.LBB0_24
.Ltmp32:
.LBB0_24:
	.loc	20 143 7                        @ rt-thread/components/net/lwip-2.0.2/src/api/api_lib.c:143:7
	b	.LBB0_25
.Ltmp33:
.LBB0_25:
	.loc	20 143 7                        @ rt-thread/components/net/lwip-2.0.2/src/api/api_lib.c:143:7
	b	.LBB0_26
.Ltmp34:
.LBB0_26:
	.loc	20 144 21 is_stmt 1             @ rt-thread/components/net/lwip-2.0.2/src/api/api_lib.c:144:21
	ldr	r0, [sp, #32]
	.loc	20 144 27 is_stmt 0             @ rt-thread/components/net/lwip-2.0.2/src/api/api_lib.c:144:27
	adds	r0, #12
	.loc	20 144 7                        @ rt-thread/components/net/lwip-2.0.2/src/api/api_lib.c:144:7
	bl	sys_sem_free
	.loc	20 146 22 is_stmt 1             @ rt-thread/components/net/lwip-2.0.2/src/api/api_lib.c:146:22
	ldr	r0, [sp, #32]
	.loc	20 146 28 is_stmt 0             @ rt-thread/components/net/lwip-2.0.2/src/api/api_lib.c:146:28
	adds	r0, #16
	.loc	20 146 7                        @ rt-thread/components/net/lwip-2.0.2/src/api/api_lib.c:146:7
	bl	sys_mbox_free
	.loc	20 147 31 is_stmt 1             @ rt-thread/components/net/lwip-2.0.2/src/api/api_lib.c:147:31
	ldr	r1, [sp, #32]
	movs	r0, #6
	.loc	20 147 7 is_stmt 0              @ rt-thread/components/net/lwip-2.0.2/src/api/api_lib.c:147:7
	bl	memp_free
	movs	r0, #0
	.loc	20 149 7 is_stmt 1              @ rt-thread/components/net/lwip-2.0.2/src/api/api_lib.c:149:7
	str	r0, [sp, #44]
	b	.LBB0_29
.Ltmp35:
.LBB0_27:
	.loc	20 151 3                        @ rt-thread/components/net/lwip-2.0.2/src/api/api_lib.c:151:3
	b	.LBB0_28
.Ltmp36:
.LBB0_28:
	.loc	20 153 10                       @ rt-thread/components/net/lwip-2.0.2/src/api/api_lib.c:153:10
	ldr	r0, [sp, #32]
	.loc	20 153 3 is_stmt 0              @ rt-thread/components/net/lwip-2.0.2/src/api/api_lib.c:153:3
	str	r0, [sp, #44]
	b	.LBB0_29
.LBB0_29:
	.loc	20 154 1 is_stmt 1              @ rt-thread/components/net/lwip-2.0.2/src/api/api_lib.c:154:1
	ldr	r0, [sp, #44]
	add	sp, #48
	pop	{r7, pc}
.Ltmp37:
.Lfunc_end0:
	.size	netconn_new_with_proto_and_callback, .Lfunc_end0-netconn_new_with_proto_and_callback
	.cfi_endproc
	.cantunwind
	.fnend
                                        @ -- End function
	.section	.text.netconn_apimsg,"ax",%progbits
	.p2align	3                               @ -- Begin function netconn_apimsg
	.type	netconn_apimsg,%function
	.code	16                              @ @netconn_apimsg
	.thumb_func
netconn_apimsg:
.Lfunc_begin1:
	.loc	20 93 0                         @ rt-thread/components/net/lwip-2.0.2/src/api/api_lib.c:93:0
	.fnstart
	.cfi_startproc
@ %bb.0:
	.save	{r7, lr}
	push	{r7, lr}
	.cfi_def_cfa_offset 8
	.cfi_offset lr, -4
	.cfi_offset r7, -8
	.pad	#16
	sub	sp, #16
	.cfi_def_cfa_offset 24
	str	r0, [sp, #8]
	str	r1, [sp, #4]
.Ltmp38:
	.loc	20 105 33 prologue_end          @ rt-thread/components/net/lwip-2.0.2/src/api/api_lib.c:105:33
	ldr	r0, [sp, #8]
	.loc	20 105 37 is_stmt 0             @ rt-thread/components/net/lwip-2.0.2/src/api/api_lib.c:105:37
	ldr	r1, [sp, #4]
	.loc	20 105 45                       @ rt-thread/components/net/lwip-2.0.2/src/api/api_lib.c:105:45
	ldr	r2, [r1]
	adds	r2, #12
	.loc	20 105 9                        @ rt-thread/components/net/lwip-2.0.2/src/api/api_lib.c:105:9
	bl	tcpip_send_msg_wait_sem
	.loc	20 105 7                        @ rt-thread/components/net/lwip-2.0.2/src/api/api_lib.c:105:7
	strb.w	r0, [sp, #3]
.Ltmp39:
	.loc	20 106 7 is_stmt 1              @ rt-thread/components/net/lwip-2.0.2/src/api/api_lib.c:106:7
	ldrsb.w	r0, [sp, #3]
.Ltmp40:
	.loc	20 106 7 is_stmt 0              @ rt-thread/components/net/lwip-2.0.2/src/api/api_lib.c:106:7
	cbnz	r0, .LBB1_2
	b	.LBB1_1
.LBB1_1:
.Ltmp41:
	.loc	20 107 12 is_stmt 1             @ rt-thread/components/net/lwip-2.0.2/src/api/api_lib.c:107:12
	ldr	r0, [sp, #4]
	.loc	20 107 20 is_stmt 0             @ rt-thread/components/net/lwip-2.0.2/src/api/api_lib.c:107:20
	ldrb	r0, [r0, #4]
	.loc	20 107 5                        @ rt-thread/components/net/lwip-2.0.2/src/api/api_lib.c:107:5
	strb.w	r0, [sp, #15]
	b	.LBB1_3
.Ltmp42:
.LBB1_2:
	.loc	20 109 10 is_stmt 1             @ rt-thread/components/net/lwip-2.0.2/src/api/api_lib.c:109:10
	ldrb.w	r0, [sp, #3]
	.loc	20 109 3 is_stmt 0              @ rt-thread/components/net/lwip-2.0.2/src/api/api_lib.c:109:3
	strb.w	r0, [sp, #15]
	b	.LBB1_3
.LBB1_3:
	.loc	20 110 1 is_stmt 1              @ rt-thread/components/net/lwip-2.0.2/src/api/api_lib.c:110:1
	ldrsb.w	r0, [sp, #15]
	add	sp, #16
	pop	{r7, pc}
.Ltmp43:
.Lfunc_end1:
	.size	netconn_apimsg, .Lfunc_end1-netconn_apimsg
	.cfi_endproc
	.cantunwind
	.fnend
                                        @ -- End function
	.section	.text.netconn_delete,"ax",%progbits
	.hidden	netconn_delete                  @ -- Begin function netconn_delete
	.globl	netconn_delete
	.p2align	3
	.type	netconn_delete,%function
	.code	16                              @ @netconn_delete
	.thumb_func
netconn_delete:
.Lfunc_begin2:
	.loc	20 167 0                        @ rt-thread/components/net/lwip-2.0.2/src/api/api_lib.c:167:0
	.fnstart
	.cfi_startproc
@ %bb.0:
	.save	{r7, lr}
	push	{r7, lr}
	.cfi_def_cfa_offset 8
	.cfi_offset lr, -4
	.cfi_offset r7, -8
	.pad	#40
	sub	sp, #40
	.cfi_def_cfa_offset 48
	str	r0, [sp, #32]
.Ltmp44:
	.loc	20 172 7 prologue_end           @ rt-thread/components/net/lwip-2.0.2/src/api/api_lib.c:172:7
	ldr	r0, [sp, #32]
.Ltmp45:
	.loc	20 172 7 is_stmt 0              @ rt-thread/components/net/lwip-2.0.2/src/api/api_lib.c:172:7
	cbnz	r0, .LBB2_2
	b	.LBB2_1
.LBB2_1:
	.loc	20 0 7                          @ rt-thread/components/net/lwip-2.0.2/src/api/api_lib.c:0:7
	movs	r0, #0
.Ltmp46:
	.loc	20 173 5 is_stmt 1              @ rt-thread/components/net/lwip-2.0.2/src/api/api_lib.c:173:5
	strb.w	r0, [sp, #39]
	b	.LBB2_5
.Ltmp47:
.LBB2_2:
	.loc	20 177 31                       @ rt-thread/components/net/lwip-2.0.2/src/api/api_lib.c:177:31
	ldr	r0, [sp, #32]
	.loc	20 177 29 is_stmt 0             @ rt-thread/components/net/lwip-2.0.2/src/api/api_lib.c:177:29
	str	r0, [sp, #4]
	.loc	20 182 46 is_stmt 1             @ rt-thread/components/net/lwip-2.0.2/src/api/api_lib.c:182:46
	bl	sys_now
	.loc	20 182 44 is_stmt 0             @ rt-thread/components/net/lwip-2.0.2/src/api/api_lib.c:182:44
	str	r0, [sp, #16]
	.loc	20 188 9 is_stmt 1              @ rt-thread/components/net/lwip-2.0.2/src/api/api_lib.c:188:9
	movw	r0, :lower16:lwip_netconn_do_delconn
	movt	r0, :upper16:lwip_netconn_do_delconn
	add	r1, sp, #4
	bl	netconn_apimsg
	.loc	20 188 7 is_stmt 0              @ rt-thread/components/net/lwip-2.0.2/src/api/api_lib.c:188:7
	strb.w	r0, [sp, #31]
.Ltmp48:
	.loc	20 191 7 is_stmt 1              @ rt-thread/components/net/lwip-2.0.2/src/api/api_lib.c:191:7
	ldrsb.w	r0, [sp, #31]
.Ltmp49:
	.loc	20 191 7 is_stmt 0              @ rt-thread/components/net/lwip-2.0.2/src/api/api_lib.c:191:7
	cbz	r0, .LBB2_4
	b	.LBB2_3
.LBB2_3:
.Ltmp50:
	.loc	20 192 12 is_stmt 1             @ rt-thread/components/net/lwip-2.0.2/src/api/api_lib.c:192:12
	ldrb.w	r0, [sp, #31]
	.loc	20 192 5 is_stmt 0              @ rt-thread/components/net/lwip-2.0.2/src/api/api_lib.c:192:5
	strb.w	r0, [sp, #39]
	b	.LBB2_5
.Ltmp51:
.LBB2_4:
	.loc	20 195 16 is_stmt 1             @ rt-thread/components/net/lwip-2.0.2/src/api/api_lib.c:195:16
	ldr	r0, [sp, #32]
	.loc	20 195 3 is_stmt 0              @ rt-thread/components/net/lwip-2.0.2/src/api/api_lib.c:195:3
	bl	netconn_free
	movs	r0, #0
	.loc	20 197 3 is_stmt 1              @ rt-thread/components/net/lwip-2.0.2/src/api/api_lib.c:197:3
	strb.w	r0, [sp, #39]
	b	.LBB2_5
.LBB2_5:
	.loc	20 198 1                        @ rt-thread/components/net/lwip-2.0.2/src/api/api_lib.c:198:1
	ldrsb.w	r0, [sp, #39]
	add	sp, #40
	pop	{r7, pc}
.Ltmp52:
.Lfunc_end2:
	.size	netconn_delete, .Lfunc_end2-netconn_delete
	.cfi_endproc
	.cantunwind
	.fnend
                                        @ -- End function
	.section	.text.netconn_getaddr,"ax",%progbits
	.hidden	netconn_getaddr                 @ -- Begin function netconn_getaddr
	.globl	netconn_getaddr
	.p2align	3
	.type	netconn_getaddr,%function
	.code	16                              @ @netconn_getaddr
	.thumb_func
netconn_getaddr:
.Lfunc_begin3:
	.loc	20 213 0                        @ rt-thread/components/net/lwip-2.0.2/src/api/api_lib.c:213:0
	.fnstart
	.cfi_startproc
@ %bb.0:
	.save	{r7, lr}
	push	{r7, lr}
	.cfi_def_cfa_offset 8
	.cfi_offset lr, -4
	.cfi_offset r7, -8
	.pad	#48
	sub	sp, #48
	.cfi_def_cfa_offset 56
                                        @ kill: def $r12 killed $r3
	str	r0, [sp, #40]
	str	r1, [sp, #36]
	str	r2, [sp, #32]
	strb.w	r3, [sp, #31]
.Ltmp53:
	.loc	20 217 3 prologue_end           @ rt-thread/components/net/lwip-2.0.2/src/api/api_lib.c:217:3
	b	.LBB3_1
.LBB3_1:
.Ltmp54:
	.loc	20 217 3 is_stmt 0              @ rt-thread/components/net/lwip-2.0.2/src/api/api_lib.c:217:3
	ldr	r0, [sp, #40]
.Ltmp55:
	.loc	20 217 3                        @ rt-thread/components/net/lwip-2.0.2/src/api/api_lib.c:217:3
	cbnz	r0, .LBB3_5
	b	.LBB3_2
.LBB3_2:
.Ltmp56:
	.loc	20 217 3                        @ rt-thread/components/net/lwip-2.0.2/src/api/api_lib.c:217:3
	b	.LBB3_3
.LBB3_3:
.Ltmp57:
	.loc	20 217 3                        @ rt-thread/components/net/lwip-2.0.2/src/api/api_lib.c:217:3
	movw	r0, :lower16:.L.str.5
	movt	r0, :upper16:.L.str.5
	bl	rt_kprintf
	movw	r0, :lower16:.L.str.1
	movt	r0, :upper16:.L.str.1
	movs	r1, #217
	bl	sys_arch_assert
	b	.LBB3_4
.Ltmp58:
.LBB3_4:
	.loc	20 0 3                          @ rt-thread/components/net/lwip-2.0.2/src/api/api_lib.c:0:3
	movs	r0, #240
	.loc	20 217 3                        @ rt-thread/components/net/lwip-2.0.2/src/api/api_lib.c:217:3
	strb.w	r0, [sp, #47]
	b	.LBB3_19
.Ltmp59:
.LBB3_5:
	.loc	20 217 3                        @ rt-thread/components/net/lwip-2.0.2/src/api/api_lib.c:217:3
	b	.LBB3_6
.Ltmp60:
.LBB3_6:
	.loc	20 218 3 is_stmt 1              @ rt-thread/components/net/lwip-2.0.2/src/api/api_lib.c:218:3
	b	.LBB3_7
.LBB3_7:
.Ltmp61:
	.loc	20 218 3 is_stmt 0              @ rt-thread/components/net/lwip-2.0.2/src/api/api_lib.c:218:3
	ldr	r0, [sp, #36]
.Ltmp62:
	.loc	20 218 3                        @ rt-thread/components/net/lwip-2.0.2/src/api/api_lib.c:218:3
	cbnz	r0, .LBB3_11
	b	.LBB3_8
.LBB3_8:
.Ltmp63:
	.loc	20 218 3                        @ rt-thread/components/net/lwip-2.0.2/src/api/api_lib.c:218:3
	b	.LBB3_9
.LBB3_9:
.Ltmp64:
	.loc	20 218 3                        @ rt-thread/components/net/lwip-2.0.2/src/api/api_lib.c:218:3
	movw	r0, :lower16:.L.str.6
	movt	r0, :upper16:.L.str.6
	bl	rt_kprintf
	movw	r0, :lower16:.L.str.1
	movt	r0, :upper16:.L.str.1
	movs	r1, #218
	bl	sys_arch_assert
	b	.LBB3_10
.Ltmp65:
.LBB3_10:
	.loc	20 0 3                          @ rt-thread/components/net/lwip-2.0.2/src/api/api_lib.c:0:3
	movs	r0, #240
	.loc	20 218 3                        @ rt-thread/components/net/lwip-2.0.2/src/api/api_lib.c:218:3
	strb.w	r0, [sp, #47]
	b	.LBB3_19
.Ltmp66:
.LBB3_11:
	.loc	20 218 3                        @ rt-thread/components/net/lwip-2.0.2/src/api/api_lib.c:218:3
	b	.LBB3_12
.Ltmp67:
.LBB3_12:
	.loc	20 219 3 is_stmt 1              @ rt-thread/components/net/lwip-2.0.2/src/api/api_lib.c:219:3
	b	.LBB3_13
.LBB3_13:
.Ltmp68:
	.loc	20 219 3 is_stmt 0              @ rt-thread/components/net/lwip-2.0.2/src/api/api_lib.c:219:3
	ldr	r0, [sp, #32]
.Ltmp69:
	.loc	20 219 3                        @ rt-thread/components/net/lwip-2.0.2/src/api/api_lib.c:219:3
	cbnz	r0, .LBB3_17
	b	.LBB3_14
.LBB3_14:
.Ltmp70:
	.loc	20 219 3                        @ rt-thread/components/net/lwip-2.0.2/src/api/api_lib.c:219:3
	b	.LBB3_15
.LBB3_15:
.Ltmp71:
	.loc	20 219 3                        @ rt-thread/components/net/lwip-2.0.2/src/api/api_lib.c:219:3
	movw	r0, :lower16:.L.str.7
	movt	r0, :upper16:.L.str.7
	bl	rt_kprintf
	movw	r0, :lower16:.L.str.1
	movt	r0, :upper16:.L.str.1
	movs	r1, #219
	bl	sys_arch_assert
	b	.LBB3_16
.Ltmp72:
.LBB3_16:
	.loc	20 0 3                          @ rt-thread/components/net/lwip-2.0.2/src/api/api_lib.c:0:3
	movs	r0, #240
	.loc	20 219 3                        @ rt-thread/components/net/lwip-2.0.2/src/api/api_lib.c:219:3
	strb.w	r0, [sp, #47]
	b	.LBB3_19
.Ltmp73:
.LBB3_17:
	.loc	20 219 3                        @ rt-thread/components/net/lwip-2.0.2/src/api/api_lib.c:219:3
	b	.LBB3_18
.Ltmp74:
.LBB3_18:
	.loc	20 222 31 is_stmt 1             @ rt-thread/components/net/lwip-2.0.2/src/api/api_lib.c:222:31
	ldr	r0, [sp, #40]
	.loc	20 222 29 is_stmt 0             @ rt-thread/components/net/lwip-2.0.2/src/api/api_lib.c:222:29
	str	r0, [sp, #4]
	.loc	20 223 39 is_stmt 1             @ rt-thread/components/net/lwip-2.0.2/src/api/api_lib.c:223:39
	ldrb.w	r0, [sp, #31]
	.loc	20 223 37 is_stmt 0             @ rt-thread/components/net/lwip-2.0.2/src/api/api_lib.c:223:37
	strb.w	r0, [sp, #20]
	.loc	20 229 23 is_stmt 1             @ rt-thread/components/net/lwip-2.0.2/src/api/api_lib.c:229:23
	ldr	r0, [sp, #36]
	.loc	20 229 21 is_stmt 0             @ rt-thread/components/net/lwip-2.0.2/src/api/api_lib.c:229:21
	str	r0, [sp, #12]
	.loc	20 230 21 is_stmt 1             @ rt-thread/components/net/lwip-2.0.2/src/api/api_lib.c:230:21
	ldr	r0, [sp, #32]
	.loc	20 230 19 is_stmt 0             @ rt-thread/components/net/lwip-2.0.2/src/api/api_lib.c:230:19
	str	r0, [sp, #16]
	.loc	20 231 9 is_stmt 1              @ rt-thread/components/net/lwip-2.0.2/src/api/api_lib.c:231:9
	movw	r0, :lower16:lwip_netconn_do_getaddr
	movt	r0, :upper16:lwip_netconn_do_getaddr
	add	r1, sp, #4
	bl	netconn_apimsg
	.loc	20 231 7 is_stmt 0              @ rt-thread/components/net/lwip-2.0.2/src/api/api_lib.c:231:7
	strb.w	r0, [sp, #3]
	.loc	20 235 10 is_stmt 1             @ rt-thread/components/net/lwip-2.0.2/src/api/api_lib.c:235:10
	ldrb.w	r0, [sp, #3]
	.loc	20 235 3 is_stmt 0              @ rt-thread/components/net/lwip-2.0.2/src/api/api_lib.c:235:3
	strb.w	r0, [sp, #47]
	b	.LBB3_19
.LBB3_19:
	.loc	20 236 1 is_stmt 1              @ rt-thread/components/net/lwip-2.0.2/src/api/api_lib.c:236:1
	ldrsb.w	r0, [sp, #47]
	add	sp, #48
	pop	{r7, pc}
.Ltmp75:
.Lfunc_end3:
	.size	netconn_getaddr, .Lfunc_end3-netconn_getaddr
	.cfi_endproc
	.cantunwind
	.fnend
                                        @ -- End function
	.section	.text.netconn_bind,"ax",%progbits
	.hidden	netconn_bind                    @ -- Begin function netconn_bind
	.globl	netconn_bind
	.p2align	3
	.type	netconn_bind,%function
	.code	16                              @ @netconn_bind
	.thumb_func
netconn_bind:
.Lfunc_begin4:
	.loc	20 251 0                        @ rt-thread/components/net/lwip-2.0.2/src/api/api_lib.c:251:0
	.fnstart
	.cfi_startproc
@ %bb.0:
	.save	{r7, lr}
	push	{r7, lr}
	.cfi_def_cfa_offset 8
	.cfi_offset lr, -4
	.cfi_offset r7, -8
	.pad	#48
	sub	sp, #48
	.cfi_def_cfa_offset 56
                                        @ kill: def $r3 killed $r2
	str	r0, [sp, #40]
	str	r1, [sp, #36]
	strh.w	r2, [sp, #34]
.Ltmp76:
	.loc	20 255 3 prologue_end           @ rt-thread/components/net/lwip-2.0.2/src/api/api_lib.c:255:3
	b	.LBB4_1
.LBB4_1:
.Ltmp77:
	.loc	20 255 3 is_stmt 0              @ rt-thread/components/net/lwip-2.0.2/src/api/api_lib.c:255:3
	ldr	r0, [sp, #40]
.Ltmp78:
	.loc	20 255 3                        @ rt-thread/components/net/lwip-2.0.2/src/api/api_lib.c:255:3
	cbnz	r0, .LBB4_5
	b	.LBB4_2
.LBB4_2:
.Ltmp79:
	.loc	20 255 3                        @ rt-thread/components/net/lwip-2.0.2/src/api/api_lib.c:255:3
	b	.LBB4_3
.LBB4_3:
.Ltmp80:
	.loc	20 255 3                        @ rt-thread/components/net/lwip-2.0.2/src/api/api_lib.c:255:3
	movw	r0, :lower16:.L.str.8
	movt	r0, :upper16:.L.str.8
	bl	rt_kprintf
	movw	r0, :lower16:.L.str.1
	movt	r0, :upper16:.L.str.1
	movs	r1, #255
	bl	sys_arch_assert
	b	.LBB4_4
.Ltmp81:
.LBB4_4:
	.loc	20 0 3                          @ rt-thread/components/net/lwip-2.0.2/src/api/api_lib.c:0:3
	movs	r0, #240
	.loc	20 255 3                        @ rt-thread/components/net/lwip-2.0.2/src/api/api_lib.c:255:3
	strb.w	r0, [sp, #47]
	b	.LBB4_9
.Ltmp82:
.LBB4_5:
	.loc	20 255 3                        @ rt-thread/components/net/lwip-2.0.2/src/api/api_lib.c:255:3
	b	.LBB4_6
.Ltmp83:
.LBB4_6:
	.loc	20 259 7 is_stmt 1              @ rt-thread/components/net/lwip-2.0.2/src/api/api_lib.c:259:7
	ldr	r0, [sp, #36]
.Ltmp84:
	.loc	20 259 7 is_stmt 0              @ rt-thread/components/net/lwip-2.0.2/src/api/api_lib.c:259:7
	cbnz	r0, .LBB4_8
	b	.LBB4_7
.LBB4_7:
.Ltmp85:
	.loc	20 260 10 is_stmt 1             @ rt-thread/components/net/lwip-2.0.2/src/api/api_lib.c:260:10
	movw	r0, :lower16:ip_addr_any
	movt	r0, :upper16:ip_addr_any
	str	r0, [sp, #36]
	.loc	20 261 3                        @ rt-thread/components/net/lwip-2.0.2/src/api/api_lib.c:261:3
	b	.LBB4_8
.Ltmp86:
.LBB4_8:
	.loc	20 275 31                       @ rt-thread/components/net/lwip-2.0.2/src/api/api_lib.c:275:31
	ldr	r0, [sp, #40]
	.loc	20 275 29 is_stmt 0             @ rt-thread/components/net/lwip-2.0.2/src/api/api_lib.c:275:29
	str	r0, [sp, #8]
	.loc	20 276 40 is_stmt 1             @ rt-thread/components/net/lwip-2.0.2/src/api/api_lib.c:276:40
	ldr	r0, [sp, #36]
	.loc	20 276 38 is_stmt 0             @ rt-thread/components/net/lwip-2.0.2/src/api/api_lib.c:276:38
	str	r0, [sp, #16]
	.loc	20 277 38 is_stmt 1             @ rt-thread/components/net/lwip-2.0.2/src/api/api_lib.c:277:38
	ldrh.w	r0, [sp, #34]
	.loc	20 277 36 is_stmt 0             @ rt-thread/components/net/lwip-2.0.2/src/api/api_lib.c:277:36
	strh.w	r0, [sp, #20]
	.loc	20 278 9 is_stmt 1              @ rt-thread/components/net/lwip-2.0.2/src/api/api_lib.c:278:9
	movw	r0, :lower16:lwip_netconn_do_bind
	movt	r0, :upper16:lwip_netconn_do_bind
	add	r1, sp, #8
	bl	netconn_apimsg
	.loc	20 278 7 is_stmt 0              @ rt-thread/components/net/lwip-2.0.2/src/api/api_lib.c:278:7
	strb.w	r0, [sp, #7]
	.loc	20 281 10 is_stmt 1             @ rt-thread/components/net/lwip-2.0.2/src/api/api_lib.c:281:10
	ldrb.w	r0, [sp, #7]
	.loc	20 281 3 is_stmt 0              @ rt-thread/components/net/lwip-2.0.2/src/api/api_lib.c:281:3
	strb.w	r0, [sp, #47]
	b	.LBB4_9
.LBB4_9:
	.loc	20 282 1 is_stmt 1              @ rt-thread/components/net/lwip-2.0.2/src/api/api_lib.c:282:1
	ldrsb.w	r0, [sp, #47]
	add	sp, #48
	pop	{r7, pc}
.Ltmp87:
.Lfunc_end4:
	.size	netconn_bind, .Lfunc_end4-netconn_bind
	.cfi_endproc
	.cantunwind
	.fnend
                                        @ -- End function
	.section	.text.netconn_connect,"ax",%progbits
	.hidden	netconn_connect                 @ -- Begin function netconn_connect
	.globl	netconn_connect
	.p2align	3
	.type	netconn_connect,%function
	.code	16                              @ @netconn_connect
	.thumb_func
netconn_connect:
.Lfunc_begin5:
	.loc	20 295 0                        @ rt-thread/components/net/lwip-2.0.2/src/api/api_lib.c:295:0
	.fnstart
	.cfi_startproc
@ %bb.0:
	.save	{r7, lr}
	push	{r7, lr}
	.cfi_def_cfa_offset 8
	.cfi_offset lr, -4
	.cfi_offset r7, -8
	.pad	#48
	sub	sp, #48
	.cfi_def_cfa_offset 56
                                        @ kill: def $r3 killed $r2
	str	r0, [sp, #40]
	str	r1, [sp, #36]
	strh.w	r2, [sp, #34]
.Ltmp88:
	.loc	20 299 3 prologue_end           @ rt-thread/components/net/lwip-2.0.2/src/api/api_lib.c:299:3
	b	.LBB5_1
.LBB5_1:
.Ltmp89:
	.loc	20 299 3 is_stmt 0              @ rt-thread/components/net/lwip-2.0.2/src/api/api_lib.c:299:3
	ldr	r0, [sp, #40]
.Ltmp90:
	.loc	20 299 3                        @ rt-thread/components/net/lwip-2.0.2/src/api/api_lib.c:299:3
	cbnz	r0, .LBB5_5
	b	.LBB5_2
.LBB5_2:
.Ltmp91:
	.loc	20 299 3                        @ rt-thread/components/net/lwip-2.0.2/src/api/api_lib.c:299:3
	b	.LBB5_3
.LBB5_3:
.Ltmp92:
	.loc	20 299 3                        @ rt-thread/components/net/lwip-2.0.2/src/api/api_lib.c:299:3
	movw	r0, :lower16:.L.str.9
	movt	r0, :upper16:.L.str.9
	bl	rt_kprintf
	movw	r0, :lower16:.L.str.1
	movt	r0, :upper16:.L.str.1
	movw	r1, #299
	bl	sys_arch_assert
	b	.LBB5_4
.Ltmp93:
.LBB5_4:
	.loc	20 0 3                          @ rt-thread/components/net/lwip-2.0.2/src/api/api_lib.c:0:3
	movs	r0, #240
	.loc	20 299 3                        @ rt-thread/components/net/lwip-2.0.2/src/api/api_lib.c:299:3
	strb.w	r0, [sp, #47]
	b	.LBB5_9
.Ltmp94:
.LBB5_5:
	.loc	20 299 3                        @ rt-thread/components/net/lwip-2.0.2/src/api/api_lib.c:299:3
	b	.LBB5_6
.Ltmp95:
.LBB5_6:
	.loc	20 303 7 is_stmt 1              @ rt-thread/components/net/lwip-2.0.2/src/api/api_lib.c:303:7
	ldr	r0, [sp, #36]
.Ltmp96:
	.loc	20 303 7 is_stmt 0              @ rt-thread/components/net/lwip-2.0.2/src/api/api_lib.c:303:7
	cbnz	r0, .LBB5_8
	b	.LBB5_7
.LBB5_7:
.Ltmp97:
	.loc	20 304 10 is_stmt 1             @ rt-thread/components/net/lwip-2.0.2/src/api/api_lib.c:304:10
	movw	r0, :lower16:ip_addr_any
	movt	r0, :upper16:ip_addr_any
	str	r0, [sp, #36]
	.loc	20 305 3                        @ rt-thread/components/net/lwip-2.0.2/src/api/api_lib.c:305:3
	b	.LBB5_8
.Ltmp98:
.LBB5_8:
	.loc	20 309 31                       @ rt-thread/components/net/lwip-2.0.2/src/api/api_lib.c:309:31
	ldr	r0, [sp, #40]
	.loc	20 309 29 is_stmt 0             @ rt-thread/components/net/lwip-2.0.2/src/api/api_lib.c:309:29
	str	r0, [sp, #8]
	.loc	20 310 40 is_stmt 1             @ rt-thread/components/net/lwip-2.0.2/src/api/api_lib.c:310:40
	ldr	r0, [sp, #36]
	.loc	20 310 38 is_stmt 0             @ rt-thread/components/net/lwip-2.0.2/src/api/api_lib.c:310:38
	str	r0, [sp, #16]
	.loc	20 311 38 is_stmt 1             @ rt-thread/components/net/lwip-2.0.2/src/api/api_lib.c:311:38
	ldrh.w	r0, [sp, #34]
	.loc	20 311 36 is_stmt 0             @ rt-thread/components/net/lwip-2.0.2/src/api/api_lib.c:311:36
	strh.w	r0, [sp, #20]
	.loc	20 312 9 is_stmt 1              @ rt-thread/components/net/lwip-2.0.2/src/api/api_lib.c:312:9
	movw	r0, :lower16:lwip_netconn_do_connect
	movt	r0, :upper16:lwip_netconn_do_connect
	add	r1, sp, #8
	bl	netconn_apimsg
	.loc	20 312 7 is_stmt 0              @ rt-thread/components/net/lwip-2.0.2/src/api/api_lib.c:312:7
	strb.w	r0, [sp, #7]
	.loc	20 315 10 is_stmt 1             @ rt-thread/components/net/lwip-2.0.2/src/api/api_lib.c:315:10
	ldrb.w	r0, [sp, #7]
	.loc	20 315 3 is_stmt 0              @ rt-thread/components/net/lwip-2.0.2/src/api/api_lib.c:315:3
	strb.w	r0, [sp, #47]
	b	.LBB5_9
.LBB5_9:
	.loc	20 316 1 is_stmt 1              @ rt-thread/components/net/lwip-2.0.2/src/api/api_lib.c:316:1
	ldrsb.w	r0, [sp, #47]
	add	sp, #48
	pop	{r7, pc}
.Ltmp99:
.Lfunc_end5:
	.size	netconn_connect, .Lfunc_end5-netconn_connect
	.cfi_endproc
	.cantunwind
	.fnend
                                        @ -- End function
	.section	.text.netconn_disconnect,"ax",%progbits
	.hidden	netconn_disconnect              @ -- Begin function netconn_disconnect
	.globl	netconn_disconnect
	.p2align	3
	.type	netconn_disconnect,%function
	.code	16                              @ @netconn_disconnect
	.thumb_func
netconn_disconnect:
.Lfunc_begin6:
	.loc	20 327 0                        @ rt-thread/components/net/lwip-2.0.2/src/api/api_lib.c:327:0
	.fnstart
	.cfi_startproc
@ %bb.0:
	.save	{r7, lr}
	push	{r7, lr}
	.cfi_def_cfa_offset 8
	.cfi_offset lr, -4
	.cfi_offset r7, -8
	.pad	#40
	sub	sp, #40
	.cfi_def_cfa_offset 48
	str	r0, [sp, #32]
.Ltmp100:
	.loc	20 331 3 prologue_end           @ rt-thread/components/net/lwip-2.0.2/src/api/api_lib.c:331:3
	b	.LBB6_1
.LBB6_1:
.Ltmp101:
	.loc	20 331 3 is_stmt 0              @ rt-thread/components/net/lwip-2.0.2/src/api/api_lib.c:331:3
	ldr	r0, [sp, #32]
.Ltmp102:
	.loc	20 331 3                        @ rt-thread/components/net/lwip-2.0.2/src/api/api_lib.c:331:3
	cbnz	r0, .LBB6_5
	b	.LBB6_2
.LBB6_2:
.Ltmp103:
	.loc	20 331 3                        @ rt-thread/components/net/lwip-2.0.2/src/api/api_lib.c:331:3
	b	.LBB6_3
.LBB6_3:
.Ltmp104:
	.loc	20 331 3                        @ rt-thread/components/net/lwip-2.0.2/src/api/api_lib.c:331:3
	movw	r0, :lower16:.L.str.10
	movt	r0, :upper16:.L.str.10
	bl	rt_kprintf
	movw	r0, :lower16:.L.str.1
	movt	r0, :upper16:.L.str.1
	movw	r1, #331
	bl	sys_arch_assert
	b	.LBB6_4
.Ltmp105:
.LBB6_4:
	.loc	20 0 3                          @ rt-thread/components/net/lwip-2.0.2/src/api/api_lib.c:0:3
	movs	r0, #240
	.loc	20 331 3                        @ rt-thread/components/net/lwip-2.0.2/src/api/api_lib.c:331:3
	strb.w	r0, [sp, #39]
	b	.LBB6_7
.Ltmp106:
.LBB6_5:
	.loc	20 331 3                        @ rt-thread/components/net/lwip-2.0.2/src/api/api_lib.c:331:3
	b	.LBB6_6
.Ltmp107:
.LBB6_6:
	.loc	20 334 31 is_stmt 1             @ rt-thread/components/net/lwip-2.0.2/src/api/api_lib.c:334:31
	ldr	r0, [sp, #32]
	.loc	20 334 29 is_stmt 0             @ rt-thread/components/net/lwip-2.0.2/src/api/api_lib.c:334:29
	str	r0, [sp, #8]
	.loc	20 335 9 is_stmt 1              @ rt-thread/components/net/lwip-2.0.2/src/api/api_lib.c:335:9
	movw	r0, :lower16:lwip_netconn_do_disconnect
	movt	r0, :upper16:lwip_netconn_do_disconnect
	add	r1, sp, #8
	bl	netconn_apimsg
	.loc	20 335 7 is_stmt 0              @ rt-thread/components/net/lwip-2.0.2/src/api/api_lib.c:335:7
	strb.w	r0, [sp, #7]
	.loc	20 338 10 is_stmt 1             @ rt-thread/components/net/lwip-2.0.2/src/api/api_lib.c:338:10
	ldrb.w	r0, [sp, #7]
	.loc	20 338 3 is_stmt 0              @ rt-thread/components/net/lwip-2.0.2/src/api/api_lib.c:338:3
	strb.w	r0, [sp, #39]
	b	.LBB6_7
.LBB6_7:
	.loc	20 339 1 is_stmt 1              @ rt-thread/components/net/lwip-2.0.2/src/api/api_lib.c:339:1
	ldrsb.w	r0, [sp, #39]
	add	sp, #40
	pop	{r7, pc}
.Ltmp108:
.Lfunc_end6:
	.size	netconn_disconnect, .Lfunc_end6-netconn_disconnect
	.cfi_endproc
	.cantunwind
	.fnend
                                        @ -- End function
	.section	.text.netconn_listen_with_backlog,"ax",%progbits
	.hidden	netconn_listen_with_backlog     @ -- Begin function netconn_listen_with_backlog
	.globl	netconn_listen_with_backlog
	.p2align	3
	.type	netconn_listen_with_backlog,%function
	.code	16                              @ @netconn_listen_with_backlog
	.thumb_func
netconn_listen_with_backlog:
.Lfunc_begin7:
	.loc	20 352 0                        @ rt-thread/components/net/lwip-2.0.2/src/api/api_lib.c:352:0
	.fnstart
	.cfi_startproc
@ %bb.0:
	.save	{r7, lr}
	push	{r7, lr}
	.cfi_def_cfa_offset 8
	.cfi_offset lr, -4
	.cfi_offset r7, -8
	.pad	#40
	sub	sp, #40
	.cfi_def_cfa_offset 48
                                        @ kill: def $r2 killed $r1
	str	r0, [sp, #32]
	strb.w	r1, [sp, #31]
.Ltmp109:
	.loc	20 360 3 prologue_end           @ rt-thread/components/net/lwip-2.0.2/src/api/api_lib.c:360:3
	b	.LBB7_1
.LBB7_1:
.Ltmp110:
	.loc	20 360 3 is_stmt 0              @ rt-thread/components/net/lwip-2.0.2/src/api/api_lib.c:360:3
	ldr	r0, [sp, #32]
.Ltmp111:
	.loc	20 360 3                        @ rt-thread/components/net/lwip-2.0.2/src/api/api_lib.c:360:3
	cbnz	r0, .LBB7_5
	b	.LBB7_2
.LBB7_2:
.Ltmp112:
	.loc	20 360 3                        @ rt-thread/components/net/lwip-2.0.2/src/api/api_lib.c:360:3
	b	.LBB7_3
.LBB7_3:
.Ltmp113:
	.loc	20 360 3                        @ rt-thread/components/net/lwip-2.0.2/src/api/api_lib.c:360:3
	movw	r0, :lower16:.L.str.11
	movt	r0, :upper16:.L.str.11
	bl	rt_kprintf
	movw	r0, :lower16:.L.str.1
	movt	r0, :upper16:.L.str.1
	mov.w	r1, #360
	bl	sys_arch_assert
	b	.LBB7_4
.Ltmp114:
.LBB7_4:
	.loc	20 0 3                          @ rt-thread/components/net/lwip-2.0.2/src/api/api_lib.c:0:3
	movs	r0, #240
	.loc	20 360 3                        @ rt-thread/components/net/lwip-2.0.2/src/api/api_lib.c:360:3
	strb.w	r0, [sp, #39]
	b	.LBB7_7
.Ltmp115:
.LBB7_5:
	.loc	20 360 3                        @ rt-thread/components/net/lwip-2.0.2/src/api/api_lib.c:360:3
	b	.LBB7_6
.Ltmp116:
.LBB7_6:
	.loc	20 363 31 is_stmt 1             @ rt-thread/components/net/lwip-2.0.2/src/api/api_lib.c:363:31
	ldr	r0, [sp, #32]
	.loc	20 363 29 is_stmt 0             @ rt-thread/components/net/lwip-2.0.2/src/api/api_lib.c:363:29
	str	r0, [sp, #4]
	.loc	20 367 9 is_stmt 1              @ rt-thread/components/net/lwip-2.0.2/src/api/api_lib.c:367:9
	movw	r0, :lower16:lwip_netconn_do_listen
	movt	r0, :upper16:lwip_netconn_do_listen
	add	r1, sp, #4
	bl	netconn_apimsg
	.loc	20 367 7 is_stmt 0              @ rt-thread/components/net/lwip-2.0.2/src/api/api_lib.c:367:7
	strb.w	r0, [sp, #3]
	.loc	20 370 10 is_stmt 1             @ rt-thread/components/net/lwip-2.0.2/src/api/api_lib.c:370:10
	ldrb.w	r0, [sp, #3]
	.loc	20 370 3 is_stmt 0              @ rt-thread/components/net/lwip-2.0.2/src/api/api_lib.c:370:3
	strb.w	r0, [sp, #39]
	b	.LBB7_7
.LBB7_7:
	.loc	20 376 1 is_stmt 1              @ rt-thread/components/net/lwip-2.0.2/src/api/api_lib.c:376:1
	ldrsb.w	r0, [sp, #39]
	add	sp, #40
	pop	{r7, pc}
.Ltmp117:
.Lfunc_end7:
	.size	netconn_listen_with_backlog, .Lfunc_end7-netconn_listen_with_backlog
	.cfi_endproc
	.cantunwind
	.fnend
                                        @ -- End function
	.section	.text.netconn_accept,"ax",%progbits
	.hidden	netconn_accept                  @ -- Begin function netconn_accept
	.globl	netconn_accept
	.p2align	3
	.type	netconn_accept,%function
	.code	16                              @ @netconn_accept
	.thumb_func
netconn_accept:
.Lfunc_begin8:
	.loc	20 389 0                        @ rt-thread/components/net/lwip-2.0.2/src/api/api_lib.c:389:0
	.fnstart
	.cfi_startproc
@ %bb.0:
	.save	{r7, lr}
	push	{r7, lr}
	.cfi_def_cfa_offset 8
	.cfi_offset lr, -4
	.cfi_offset r7, -8
	.pad	#24
	sub	sp, #24
	.cfi_def_cfa_offset 32
	str	r0, [sp, #16]
	str	r1, [sp, #12]
.Ltmp118:
	.loc	20 397 3 prologue_end           @ rt-thread/components/net/lwip-2.0.2/src/api/api_lib.c:397:3
	b	.LBB8_1
.LBB8_1:
.Ltmp119:
	.loc	20 397 3 is_stmt 0              @ rt-thread/components/net/lwip-2.0.2/src/api/api_lib.c:397:3
	ldr	r0, [sp, #12]
.Ltmp120:
	.loc	20 397 3                        @ rt-thread/components/net/lwip-2.0.2/src/api/api_lib.c:397:3
	cbnz	r0, .LBB8_5
	b	.LBB8_2
.LBB8_2:
.Ltmp121:
	.loc	20 397 3                        @ rt-thread/components/net/lwip-2.0.2/src/api/api_lib.c:397:3
	b	.LBB8_3
.LBB8_3:
.Ltmp122:
	.loc	20 397 3                        @ rt-thread/components/net/lwip-2.0.2/src/api/api_lib.c:397:3
	movw	r0, :lower16:.L.str.12
	movt	r0, :upper16:.L.str.12
	bl	rt_kprintf
	movw	r0, :lower16:.L.str.1
	movt	r0, :upper16:.L.str.1
	movw	r1, #397
	bl	sys_arch_assert
	b	.LBB8_4
.Ltmp123:
.LBB8_4:
	.loc	20 0 3                          @ rt-thread/components/net/lwip-2.0.2/src/api/api_lib.c:0:3
	movs	r0, #240
	.loc	20 397 3                        @ rt-thread/components/net/lwip-2.0.2/src/api/api_lib.c:397:3
	strb.w	r0, [sp, #23]
	b	.LBB8_31
.Ltmp124:
.LBB8_5:
	.loc	20 397 3                        @ rt-thread/components/net/lwip-2.0.2/src/api/api_lib.c:397:3
	b	.LBB8_6
.Ltmp125:
.LBB8_6:
	.loc	20 398 4 is_stmt 1              @ rt-thread/components/net/lwip-2.0.2/src/api/api_lib.c:398:4
	ldr	r1, [sp, #12]
	movs	r0, #0
	.loc	20 398 13 is_stmt 0             @ rt-thread/components/net/lwip-2.0.2/src/api/api_lib.c:398:13
	str	r0, [r1]
	.loc	20 399 3 is_stmt 1              @ rt-thread/components/net/lwip-2.0.2/src/api/api_lib.c:399:3
	b	.LBB8_7
.LBB8_7:
.Ltmp126:
	.loc	20 399 3 is_stmt 0              @ rt-thread/components/net/lwip-2.0.2/src/api/api_lib.c:399:3
	ldr	r0, [sp, #16]
.Ltmp127:
	.loc	20 399 3                        @ rt-thread/components/net/lwip-2.0.2/src/api/api_lib.c:399:3
	cbnz	r0, .LBB8_11
	b	.LBB8_8
.LBB8_8:
.Ltmp128:
	.loc	20 399 3                        @ rt-thread/components/net/lwip-2.0.2/src/api/api_lib.c:399:3
	b	.LBB8_9
.LBB8_9:
.Ltmp129:
	.loc	20 399 3                        @ rt-thread/components/net/lwip-2.0.2/src/api/api_lib.c:399:3
	movw	r0, :lower16:.L.str.13
	movt	r0, :upper16:.L.str.13
	bl	rt_kprintf
	movw	r0, :lower16:.L.str.1
	movt	r0, :upper16:.L.str.1
	movw	r1, #399
	bl	sys_arch_assert
	b	.LBB8_10
.Ltmp130:
.LBB8_10:
	.loc	20 0 3                          @ rt-thread/components/net/lwip-2.0.2/src/api/api_lib.c:0:3
	movs	r0, #240
	.loc	20 399 3                        @ rt-thread/components/net/lwip-2.0.2/src/api/api_lib.c:399:3
	strb.w	r0, [sp, #23]
	b	.LBB8_31
.Ltmp131:
.LBB8_11:
	.loc	20 399 3                        @ rt-thread/components/net/lwip-2.0.2/src/api/api_lib.c:399:3
	b	.LBB8_12
.Ltmp132:
.LBB8_12:
	.loc	20 401 7 is_stmt 1              @ rt-thread/components/net/lwip-2.0.2/src/api/api_lib.c:401:7
	ldr	r0, [sp, #16]
	ldrsb.w	r0, [r0, #8]
.Ltmp133:
	.loc	20 401 7 is_stmt 0              @ rt-thread/components/net/lwip-2.0.2/src/api/api_lib.c:401:7
	cmn.w	r0, #13
	bgt	.LBB8_14
	b	.LBB8_13
.LBB8_13:
.Ltmp134:
	.loc	20 404 12 is_stmt 1             @ rt-thread/components/net/lwip-2.0.2/src/api/api_lib.c:404:12
	ldr	r0, [sp, #16]
	.loc	20 404 18 is_stmt 0             @ rt-thread/components/net/lwip-2.0.2/src/api/api_lib.c:404:18
	ldrb	r0, [r0, #8]
	.loc	20 404 5                        @ rt-thread/components/net/lwip-2.0.2/src/api/api_lib.c:404:5
	strb.w	r0, [sp, #23]
	b	.LBB8_31
.Ltmp135:
.LBB8_14:
	.loc	20 406 24 is_stmt 1             @ rt-thread/components/net/lwip-2.0.2/src/api/api_lib.c:406:24
	ldr	r0, [sp, #16]
	.loc	20 406 30 is_stmt 0             @ rt-thread/components/net/lwip-2.0.2/src/api/api_lib.c:406:30
	adds	r0, #20
	.loc	20 406 8                        @ rt-thread/components/net/lwip-2.0.2/src/api/api_lib.c:406:8
	bl	sys_mbox_valid
.Ltmp136:
	.loc	20 406 7                        @ rt-thread/components/net/lwip-2.0.2/src/api/api_lib.c:406:7
	cbnz	r0, .LBB8_16
	b	.LBB8_15
.LBB8_15:
	.loc	20 0 7                          @ rt-thread/components/net/lwip-2.0.2/src/api/api_lib.c:0:7
	movs	r0, #241
.Ltmp137:
	.loc	20 407 5 is_stmt 1              @ rt-thread/components/net/lwip-2.0.2/src/api/api_lib.c:407:5
	strb.w	r0, [sp, #23]
	b	.LBB8_31
.Ltmp138:
.LBB8_16:
	.loc	20 415 28                       @ rt-thread/components/net/lwip-2.0.2/src/api/api_lib.c:415:28
	ldr	r1, [sp, #16]
	.loc	20 415 34 is_stmt 0             @ rt-thread/components/net/lwip-2.0.2/src/api/api_lib.c:415:34
	add.w	r0, r1, #20
	.loc	20 415 65                       @ rt-thread/components/net/lwip-2.0.2/src/api/api_lib.c:415:65
	ldr	r2, [r1, #32]
	add	r1, sp, #8
	.loc	20 415 7                        @ rt-thread/components/net/lwip-2.0.2/src/api/api_lib.c:415:7
	bl	sys_arch_mbox_fetch
.Ltmp139:
	.loc	20 415 7                        @ rt-thread/components/net/lwip-2.0.2/src/api/api_lib.c:415:7
	adds	r0, #1
	cbnz	r0, .LBB8_18
	b	.LBB8_17
.LBB8_17:
	.loc	20 0 7                          @ rt-thread/components/net/lwip-2.0.2/src/api/api_lib.c:0:7
	movs	r0, #253
.Ltmp140:
	.loc	20 419 5 is_stmt 1              @ rt-thread/components/net/lwip-2.0.2/src/api/api_lib.c:419:5
	strb.w	r0, [sp, #23]
	b	.LBB8_31
.Ltmp141:
.LBB8_18:
	.loc	20 424 31                       @ rt-thread/components/net/lwip-2.0.2/src/api/api_lib.c:424:31
	ldr	r0, [sp, #8]
	.loc	20 424 11 is_stmt 0             @ rt-thread/components/net/lwip-2.0.2/src/api/api_lib.c:424:11
	str	r0, [sp, #4]
.Ltmp142:
	.loc	20 426 3 is_stmt 1              @ rt-thread/components/net/lwip-2.0.2/src/api/api_lib.c:426:3
	ldr	r0, [sp, #16]
	ldr	r0, [r0, #56]
.Ltmp143:
	.loc	20 426 3 is_stmt 0              @ rt-thread/components/net/lwip-2.0.2/src/api/api_lib.c:426:3
	cbz	r0, .LBB8_20
	b	.LBB8_19
.LBB8_19:
.Ltmp144:
	.loc	20 426 3                        @ rt-thread/components/net/lwip-2.0.2/src/api/api_lib.c:426:3
	ldr	r0, [sp, #16]
	ldr	r3, [r0, #56]
	movs	r1, #1
	movs	r2, #0
	blx	r3
	b	.LBB8_20
.Ltmp145:
.LBB8_20:
	.loc	20 428 7 is_stmt 1              @ rt-thread/components/net/lwip-2.0.2/src/api/api_lib.c:428:7
	ldr	r0, [sp, #8]
	.loc	20 428 18 is_stmt 0             @ rt-thread/components/net/lwip-2.0.2/src/api/api_lib.c:428:18
	movw	r1, :lower16:netconn_aborted
	movt	r1, :upper16:netconn_aborted
.Ltmp146:
	.loc	20 428 7                        @ rt-thread/components/net/lwip-2.0.2/src/api/api_lib.c:428:7
	cmp	r0, r1
	bne	.LBB8_22
	b	.LBB8_21
.LBB8_21:
	.loc	20 0 7                          @ rt-thread/components/net/lwip-2.0.2/src/api/api_lib.c:0:7
	movs	r0, #243
.Ltmp147:
	.loc	20 434 5 is_stmt 1              @ rt-thread/components/net/lwip-2.0.2/src/api/api_lib.c:434:5
	strb.w	r0, [sp, #23]
	b	.LBB8_31
.Ltmp148:
.LBB8_22:
	.loc	20 436 7                        @ rt-thread/components/net/lwip-2.0.2/src/api/api_lib.c:436:7
	ldr	r0, [sp, #4]
.Ltmp149:
	.loc	20 436 7 is_stmt 0              @ rt-thread/components/net/lwip-2.0.2/src/api/api_lib.c:436:7
	cbnz	r0, .LBB8_30
	b	.LBB8_23
.LBB8_23:
.Ltmp150:
	.loc	20 441 5 is_stmt 1              @ rt-thread/components/net/lwip-2.0.2/src/api/api_lib.c:441:5
	b	.LBB8_24
.LBB8_24:
.Ltmp151:
	.loc	20 441 5 is_stmt 0              @ rt-thread/components/net/lwip-2.0.2/src/api/api_lib.c:441:5
	ldr	r0, [sp, #16]
.Ltmp152:
	.loc	20 441 5                        @ rt-thread/components/net/lwip-2.0.2/src/api/api_lib.c:441:5
	cbz	r0, .LBB8_28
	b	.LBB8_25
.LBB8_25:
.Ltmp153:
	.loc	20 441 5                        @ rt-thread/components/net/lwip-2.0.2/src/api/api_lib.c:441:5
	bl	rt_enter_critical
.Ltmp154:
	.loc	20 441 5                        @ rt-thread/components/net/lwip-2.0.2/src/api/api_lib.c:441:5
	ldr	r0, [sp, #16]
	ldrsb.w	r0, [r0, #8]
.Ltmp155:
	.loc	20 441 5                        @ rt-thread/components/net/lwip-2.0.2/src/api/api_lib.c:441:5
	cmn.w	r0, #12
	blt	.LBB8_27
	b	.LBB8_26
.LBB8_26:
.Ltmp156:
	.loc	20 441 5                        @ rt-thread/components/net/lwip-2.0.2/src/api/api_lib.c:441:5
	ldr	r1, [sp, #16]
	movs	r0, #241
	strb	r0, [r1, #8]
	b	.LBB8_27
.Ltmp157:
.LBB8_27:
	.loc	20 441 5                        @ rt-thread/components/net/lwip-2.0.2/src/api/api_lib.c:441:5
	bl	rt_exit_critical
	b	.LBB8_28
.Ltmp158:
.LBB8_28:
	.loc	20 441 5                        @ rt-thread/components/net/lwip-2.0.2/src/api/api_lib.c:441:5
	b	.LBB8_29
.Ltmp159:
.LBB8_29:
	.loc	20 0 5                          @ rt-thread/components/net/lwip-2.0.2/src/api/api_lib.c:0:5
	movs	r0, #241
	.loc	20 445 5 is_stmt 1              @ rt-thread/components/net/lwip-2.0.2/src/api/api_lib.c:445:5
	strb.w	r0, [sp, #23]
	b	.LBB8_31
.Ltmp160:
.LBB8_30:
	.loc	20 455 15                       @ rt-thread/components/net/lwip-2.0.2/src/api/api_lib.c:455:15
	ldr	r0, [sp, #4]
	.loc	20 455 4 is_stmt 0              @ rt-thread/components/net/lwip-2.0.2/src/api/api_lib.c:455:4
	ldr	r1, [sp, #12]
	.loc	20 455 13                       @ rt-thread/components/net/lwip-2.0.2/src/api/api_lib.c:455:13
	str	r0, [r1]
	movs	r0, #0
	.loc	20 457 3 is_stmt 1              @ rt-thread/components/net/lwip-2.0.2/src/api/api_lib.c:457:3
	strb.w	r0, [sp, #23]
	b	.LBB8_31
.LBB8_31:
	.loc	20 463 1                        @ rt-thread/components/net/lwip-2.0.2/src/api/api_lib.c:463:1
	ldrsb.w	r0, [sp, #23]
	add	sp, #24
	pop	{r7, pc}
.Ltmp161:
.Lfunc_end8:
	.size	netconn_accept, .Lfunc_end8-netconn_accept
	.cfi_endproc
	.cantunwind
	.fnend
                                        @ -- End function
	.section	.text.netconn_recv_tcp_pbuf,"ax",%progbits
	.hidden	netconn_recv_tcp_pbuf           @ -- Begin function netconn_recv_tcp_pbuf
	.globl	netconn_recv_tcp_pbuf
	.p2align	3
	.type	netconn_recv_tcp_pbuf,%function
	.code	16                              @ @netconn_recv_tcp_pbuf
	.thumb_func
netconn_recv_tcp_pbuf:
.Lfunc_begin9:
	.loc	20 604 0                        @ rt-thread/components/net/lwip-2.0.2/src/api/api_lib.c:604:0
	.fnstart
	.cfi_startproc
@ %bb.0:
	.save	{r7, lr}
	push	{r7, lr}
	.cfi_def_cfa_offset 8
	.cfi_offset lr, -4
	.cfi_offset r7, -8
	.pad	#16
	sub	sp, #16
	.cfi_def_cfa_offset 24
	str	r0, [sp, #8]
	str	r1, [sp, #4]
.Ltmp162:
	.loc	20 605 3 prologue_end           @ rt-thread/components/net/lwip-2.0.2/src/api/api_lib.c:605:3
	b	.LBB9_1
.LBB9_1:
.Ltmp163:
	.loc	20 605 3 is_stmt 0              @ rt-thread/components/net/lwip-2.0.2/src/api/api_lib.c:605:3
	ldr	r0, [sp, #8]
	cbz	r0, .LBB9_3
	b	.LBB9_2
.LBB9_2:
	ldr	r0, [sp, #8]
	ldrb	r0, [r0]
	and	r0, r0, #240
.Ltmp164:
	.loc	20 605 3                        @ rt-thread/components/net/lwip-2.0.2/src/api/api_lib.c:605:3
	cmp	r0, #16
	beq	.LBB9_6
	b	.LBB9_3
.LBB9_3:
.Ltmp165:
	.loc	20 605 3                        @ rt-thread/components/net/lwip-2.0.2/src/api/api_lib.c:605:3
	b	.LBB9_4
.LBB9_4:
.Ltmp166:
	.loc	20 605 3                        @ rt-thread/components/net/lwip-2.0.2/src/api/api_lib.c:605:3
	movw	r0, :lower16:.L.str.14
	movt	r0, :upper16:.L.str.14
	bl	rt_kprintf
	movw	r0, :lower16:.L.str.1
	movt	r0, :upper16:.L.str.1
	movw	r1, #606
	bl	sys_arch_assert
	b	.LBB9_5
.Ltmp167:
.LBB9_5:
	.loc	20 0 3                          @ rt-thread/components/net/lwip-2.0.2/src/api/api_lib.c:0:3
	movs	r0, #240
	.loc	20 605 3                        @ rt-thread/components/net/lwip-2.0.2/src/api/api_lib.c:605:3
	strb.w	r0, [sp, #15]
	b	.LBB9_8
.Ltmp168:
.LBB9_6:
	.loc	20 605 3                        @ rt-thread/components/net/lwip-2.0.2/src/api/api_lib.c:605:3
	b	.LBB9_7
.Ltmp169:
.LBB9_7:
	.loc	20 608 28 is_stmt 1             @ rt-thread/components/net/lwip-2.0.2/src/api/api_lib.c:608:28
	ldr	r0, [sp, #8]
	.loc	20 608 43 is_stmt 0             @ rt-thread/components/net/lwip-2.0.2/src/api/api_lib.c:608:43
	ldr	r1, [sp, #4]
	.loc	20 608 10                       @ rt-thread/components/net/lwip-2.0.2/src/api/api_lib.c:608:10
	bl	netconn_recv_data
	.loc	20 608 3                        @ rt-thread/components/net/lwip-2.0.2/src/api/api_lib.c:608:3
	strb.w	r0, [sp, #15]
	b	.LBB9_8
.LBB9_8:
	.loc	20 609 1 is_stmt 1              @ rt-thread/components/net/lwip-2.0.2/src/api/api_lib.c:609:1
	ldrsb.w	r0, [sp, #15]
	add	sp, #16
	pop	{r7, pc}
.Ltmp170:
.Lfunc_end9:
	.size	netconn_recv_tcp_pbuf, .Lfunc_end9-netconn_recv_tcp_pbuf
	.cfi_endproc
	.cantunwind
	.fnend
                                        @ -- End function
	.section	.text.netconn_recv_data,"ax",%progbits
	.p2align	3                               @ -- Begin function netconn_recv_data
	.type	netconn_recv_data,%function
	.code	16                              @ @netconn_recv_data
	.thumb_func
netconn_recv_data:
.Lfunc_begin10:
	.loc	20 477 0                        @ rt-thread/components/net/lwip-2.0.2/src/api/api_lib.c:477:0
	.fnstart
	.cfi_startproc
@ %bb.0:
	.save	{r7, lr}
	push	{r7, lr}
	.cfi_def_cfa_offset 8
	.cfi_offset lr, -4
	.cfi_offset r7, -8
	.pad	#48
	sub	sp, #48
	.cfi_def_cfa_offset 56
	str	r0, [sp, #40]
	str	r1, [sp, #36]
	movs	r0, #0
.Ltmp171:
	.loc	20 478 9 prologue_end           @ rt-thread/components/net/lwip-2.0.2/src/api/api_lib.c:478:9
	str	r0, [sp, #32]
	.loc	20 487 3                        @ rt-thread/components/net/lwip-2.0.2/src/api/api_lib.c:487:3
	b	.LBB10_1
.LBB10_1:
.Ltmp172:
	.loc	20 487 3 is_stmt 0              @ rt-thread/components/net/lwip-2.0.2/src/api/api_lib.c:487:3
	ldr	r0, [sp, #36]
.Ltmp173:
	.loc	20 487 3                        @ rt-thread/components/net/lwip-2.0.2/src/api/api_lib.c:487:3
	cbnz	r0, .LBB10_5
	b	.LBB10_2
.LBB10_2:
.Ltmp174:
	.loc	20 487 3                        @ rt-thread/components/net/lwip-2.0.2/src/api/api_lib.c:487:3
	b	.LBB10_3
.LBB10_3:
.Ltmp175:
	.loc	20 487 3                        @ rt-thread/components/net/lwip-2.0.2/src/api/api_lib.c:487:3
	movw	r0, :lower16:.L.str.15
	movt	r0, :upper16:.L.str.15
	bl	rt_kprintf
	movw	r0, :lower16:.L.str.1
	movt	r0, :upper16:.L.str.1
	movw	r1, #487
	bl	sys_arch_assert
	b	.LBB10_4
.Ltmp176:
.LBB10_4:
	.loc	20 0 3                          @ rt-thread/components/net/lwip-2.0.2/src/api/api_lib.c:0:3
	movs	r0, #240
	.loc	20 487 3                        @ rt-thread/components/net/lwip-2.0.2/src/api/api_lib.c:487:3
	strb.w	r0, [sp, #47]
	b	.LBB10_56
.Ltmp177:
.LBB10_5:
	.loc	20 487 3                        @ rt-thread/components/net/lwip-2.0.2/src/api/api_lib.c:487:3
	b	.LBB10_6
.Ltmp178:
.LBB10_6:
	.loc	20 488 4 is_stmt 1              @ rt-thread/components/net/lwip-2.0.2/src/api/api_lib.c:488:4
	ldr	r1, [sp, #36]
	movs	r0, #0
	.loc	20 488 12 is_stmt 0             @ rt-thread/components/net/lwip-2.0.2/src/api/api_lib.c:488:12
	str	r0, [r1]
	.loc	20 489 3 is_stmt 1              @ rt-thread/components/net/lwip-2.0.2/src/api/api_lib.c:489:3
	b	.LBB10_7
.LBB10_7:
.Ltmp179:
	.loc	20 489 3 is_stmt 0              @ rt-thread/components/net/lwip-2.0.2/src/api/api_lib.c:489:3
	ldr	r0, [sp, #40]
.Ltmp180:
	.loc	20 489 3                        @ rt-thread/components/net/lwip-2.0.2/src/api/api_lib.c:489:3
	cbnz	r0, .LBB10_11
	b	.LBB10_8
.LBB10_8:
.Ltmp181:
	.loc	20 489 3                        @ rt-thread/components/net/lwip-2.0.2/src/api/api_lib.c:489:3
	b	.LBB10_9
.LBB10_9:
.Ltmp182:
	.loc	20 489 3                        @ rt-thread/components/net/lwip-2.0.2/src/api/api_lib.c:489:3
	movw	r0, :lower16:.L.str.14
	movt	r0, :upper16:.L.str.14
	bl	rt_kprintf
	movw	r0, :lower16:.L.str.1
	movt	r0, :upper16:.L.str.1
	movw	r1, #489
	bl	sys_arch_assert
	b	.LBB10_10
.Ltmp183:
.LBB10_10:
	.loc	20 0 3                          @ rt-thread/components/net/lwip-2.0.2/src/api/api_lib.c:0:3
	movs	r0, #240
	.loc	20 489 3                        @ rt-thread/components/net/lwip-2.0.2/src/api/api_lib.c:489:3
	strb.w	r0, [sp, #47]
	b	.LBB10_56
.Ltmp184:
.LBB10_11:
	.loc	20 489 3                        @ rt-thread/components/net/lwip-2.0.2/src/api/api_lib.c:489:3
	b	.LBB10_12
.Ltmp185:
.LBB10_12:
	.loc	20 492 7 is_stmt 1              @ rt-thread/components/net/lwip-2.0.2/src/api/api_lib.c:492:7
	ldr	r0, [sp, #40]
	ldrb	r0, [r0]
	and	r0, r0, #240
.Ltmp186:
	.loc	20 492 7 is_stmt 0              @ rt-thread/components/net/lwip-2.0.2/src/api/api_lib.c:492:7
	cmp	r0, #16
	bne	.LBB10_16
	b	.LBB10_13
.LBB10_13:
.Ltmp187:
	.loc	20 495 26 is_stmt 1             @ rt-thread/components/net/lwip-2.0.2/src/api/api_lib.c:495:26
	ldr	r0, [sp, #40]
	.loc	20 495 32 is_stmt 0             @ rt-thread/components/net/lwip-2.0.2/src/api/api_lib.c:495:32
	adds	r0, #16
	.loc	20 495 10                       @ rt-thread/components/net/lwip-2.0.2/src/api/api_lib.c:495:10
	bl	sys_mbox_valid
.Ltmp188:
	.loc	20 495 9                        @ rt-thread/components/net/lwip-2.0.2/src/api/api_lib.c:495:9
	cbnz	r0, .LBB10_15
	b	.LBB10_14
.LBB10_14:
.Ltmp189:
	.loc	20 497 30 is_stmt 1             @ rt-thread/components/net/lwip-2.0.2/src/api/api_lib.c:497:30
	ldr	r0, [sp, #40]
	.loc	20 497 36 is_stmt 0             @ rt-thread/components/net/lwip-2.0.2/src/api/api_lib.c:497:36
	adds	r0, #20
	.loc	20 497 14                       @ rt-thread/components/net/lwip-2.0.2/src/api/api_lib.c:497:14
	bl	sys_mbox_valid
	mov	r1, r0
	mvn	r0, #14
	cmp	r1, #0
	it	ne
	mvnne	r0, #10
	.loc	20 497 7                        @ rt-thread/components/net/lwip-2.0.2/src/api/api_lib.c:497:7
	strb.w	r0, [sp, #47]
	b	.LBB10_56
.Ltmp190:
.LBB10_15:
	.loc	20 499 3 is_stmt 1              @ rt-thread/components/net/lwip-2.0.2/src/api/api_lib.c:499:3
	b	.LBB10_16
.Ltmp191:
.LBB10_16:
	.loc	20 501 3                        @ rt-thread/components/net/lwip-2.0.2/src/api/api_lib.c:501:3
	b	.LBB10_17
.LBB10_17:
.Ltmp192:
	.loc	20 501 3 is_stmt 0              @ rt-thread/components/net/lwip-2.0.2/src/api/api_lib.c:501:3
	ldr	r0, [sp, #40]
	adds	r0, #16
	bl	sys_mbox_valid
.Ltmp193:
	.loc	20 501 3                        @ rt-thread/components/net/lwip-2.0.2/src/api/api_lib.c:501:3
	cbnz	r0, .LBB10_21
	b	.LBB10_18
.LBB10_18:
.Ltmp194:
	.loc	20 501 3                        @ rt-thread/components/net/lwip-2.0.2/src/api/api_lib.c:501:3
	b	.LBB10_19
.LBB10_19:
.Ltmp195:
	.loc	20 501 3                        @ rt-thread/components/net/lwip-2.0.2/src/api/api_lib.c:501:3
	movw	r0, :lower16:.L.str.23
	movt	r0, :upper16:.L.str.23
	bl	rt_kprintf
	movw	r0, :lower16:.L.str.1
	movt	r0, :upper16:.L.str.1
	movw	r1, #501
	bl	sys_arch_assert
	b	.LBB10_20
.Ltmp196:
.LBB10_20:
	.loc	20 0 3                          @ rt-thread/components/net/lwip-2.0.2/src/api/api_lib.c:0:3
	movs	r0, #245
	.loc	20 501 3                        @ rt-thread/components/net/lwip-2.0.2/src/api/api_lib.c:501:3
	strb.w	r0, [sp, #47]
	b	.LBB10_56
.Ltmp197:
.LBB10_21:
	.loc	20 501 3                        @ rt-thread/components/net/lwip-2.0.2/src/api/api_lib.c:501:3
	b	.LBB10_22
.Ltmp198:
.LBB10_22:
	.loc	20 503 7 is_stmt 1              @ rt-thread/components/net/lwip-2.0.2/src/api/api_lib.c:503:7
	ldr	r0, [sp, #40]
	ldrsb.w	r0, [r0, #8]
.Ltmp199:
	.loc	20 503 7 is_stmt 0              @ rt-thread/components/net/lwip-2.0.2/src/api/api_lib.c:503:7
	cmn.w	r0, #13
	bgt	.LBB10_24
	b	.LBB10_23
.LBB10_23:
.Ltmp200:
	.loc	20 508 12 is_stmt 1             @ rt-thread/components/net/lwip-2.0.2/src/api/api_lib.c:508:12
	ldr	r0, [sp, #40]
	.loc	20 508 18 is_stmt 0             @ rt-thread/components/net/lwip-2.0.2/src/api/api_lib.c:508:18
	ldrb	r0, [r0, #8]
	.loc	20 508 5                        @ rt-thread/components/net/lwip-2.0.2/src/api/api_lib.c:508:5
	strb.w	r0, [sp, #47]
	b	.LBB10_56
.Ltmp201:
.LBB10_24:
	.loc	20 512 7 is_stmt 1              @ rt-thread/components/net/lwip-2.0.2/src/api/api_lib.c:512:7
	ldr	r0, [sp, #40]
	ldrb	r0, [r0]
	and	r0, r0, #240
.Ltmp202:
	.loc	20 512 7 is_stmt 0              @ rt-thread/components/net/lwip-2.0.2/src/api/api_lib.c:512:7
	cmp	r0, #16
	bne	.LBB10_26
	b	.LBB10_25
.LBB10_25:
.Ltmp203:
	.loc	20 516 3 is_stmt 1              @ rt-thread/components/net/lwip-2.0.2/src/api/api_lib.c:516:3
	b	.LBB10_26
.Ltmp204:
.LBB10_26:
	.loc	20 520 28                       @ rt-thread/components/net/lwip-2.0.2/src/api/api_lib.c:520:28
	ldr	r1, [sp, #40]
	.loc	20 520 34 is_stmt 0             @ rt-thread/components/net/lwip-2.0.2/src/api/api_lib.c:520:34
	add.w	r0, r1, #16
	.loc	20 520 56                       @ rt-thread/components/net/lwip-2.0.2/src/api/api_lib.c:520:56
	ldr	r2, [r1, #32]
	add	r1, sp, #32
	.loc	20 520 7                        @ rt-thread/components/net/lwip-2.0.2/src/api/api_lib.c:520:7
	bl	sys_arch_mbox_fetch
.Ltmp205:
	.loc	20 520 7                        @ rt-thread/components/net/lwip-2.0.2/src/api/api_lib.c:520:7
	adds	r0, #1
	cbnz	r0, .LBB10_30
	b	.LBB10_27
.LBB10_27:
.Ltmp206:
	.loc	20 523 9 is_stmt 1              @ rt-thread/components/net/lwip-2.0.2/src/api/api_lib.c:523:9
	ldr	r0, [sp, #40]
	ldrb	r0, [r0]
	and	r0, r0, #240
.Ltmp207:
	.loc	20 523 9 is_stmt 0              @ rt-thread/components/net/lwip-2.0.2/src/api/api_lib.c:523:9
	cmp	r0, #16
	bne	.LBB10_29
	b	.LBB10_28
.LBB10_28:
.Ltmp208:
	.loc	20 527 5 is_stmt 1              @ rt-thread/components/net/lwip-2.0.2/src/api/api_lib.c:527:5
	b	.LBB10_29
.Ltmp209:
.LBB10_29:
	.loc	20 0 5 is_stmt 0                @ rt-thread/components/net/lwip-2.0.2/src/api/api_lib.c:0:5
	movs	r0, #253
	.loc	20 529 5 is_stmt 1              @ rt-thread/components/net/lwip-2.0.2/src/api/api_lib.c:529:5
	strb.w	r0, [sp, #47]
	b	.LBB10_56
.Ltmp210:
.LBB10_30:
	.loc	20 537 7                        @ rt-thread/components/net/lwip-2.0.2/src/api/api_lib.c:537:7
	ldr	r0, [sp, #40]
	ldrb	r0, [r0]
	and	r0, r0, #240
.Ltmp211:
	.loc	20 537 7 is_stmt 0              @ rt-thread/components/net/lwip-2.0.2/src/api/api_lib.c:537:7
	cmp	r0, #16
	bne	.LBB10_44
	b	.LBB10_31
.LBB10_31:
.Ltmp212:
	.loc	20 543 33 is_stmt 1             @ rt-thread/components/net/lwip-2.0.2/src/api/api_lib.c:543:33
	ldr	r0, [sp, #40]
	.loc	20 543 31 is_stmt 0             @ rt-thread/components/net/lwip-2.0.2/src/api/api_lib.c:543:31
	str	r0, [sp, #4]
.Ltmp213:
	.loc	20 544 9 is_stmt 1              @ rt-thread/components/net/lwip-2.0.2/src/api/api_lib.c:544:9
	ldr	r0, [sp, #32]
.Ltmp214:
	.loc	20 544 9 is_stmt 0              @ rt-thread/components/net/lwip-2.0.2/src/api/api_lib.c:544:9
	cbz	r0, .LBB10_33
	b	.LBB10_32
.LBB10_32:
.Ltmp215:
	.loc	20 545 56 is_stmt 1             @ rt-thread/components/net/lwip-2.0.2/src/api/api_lib.c:545:56
	ldr	r0, [sp, #32]
	.loc	20 545 62 is_stmt 0             @ rt-thread/components/net/lwip-2.0.2/src/api/api_lib.c:545:62
	ldrh	r0, [r0, #8]
	.loc	20 545 38                       @ rt-thread/components/net/lwip-2.0.2/src/api/api_lib.c:545:38
	str	r0, [sp, #12]
	.loc	20 546 5 is_stmt 1              @ rt-thread/components/net/lwip-2.0.2/src/api/api_lib.c:546:5
	b	.LBB10_34
.Ltmp216:
.LBB10_33:
	.loc	20 0 5 is_stmt 0                @ rt-thread/components/net/lwip-2.0.2/src/api/api_lib.c:0:5
	movs	r0, #1
.Ltmp217:
	.loc	20 547 38 is_stmt 1             @ rt-thread/components/net/lwip-2.0.2/src/api/api_lib.c:547:38
	str	r0, [sp, #12]
	b	.LBB10_34
.Ltmp218:
.LBB10_34:
	.loc	20 551 5                        @ rt-thread/components/net/lwip-2.0.2/src/api/api_lib.c:551:5
	movw	r0, :lower16:lwip_netconn_do_recv
	movt	r0, :upper16:lwip_netconn_do_recv
	add	r1, sp, #4
	bl	netconn_apimsg
.Ltmp219:
	.loc	20 555 9                        @ rt-thread/components/net/lwip-2.0.2/src/api/api_lib.c:555:9
	ldr	r0, [sp, #32]
.Ltmp220:
	.loc	20 555 9 is_stmt 0              @ rt-thread/components/net/lwip-2.0.2/src/api/api_lib.c:555:9
	cbnz	r0, .LBB10_43
	b	.LBB10_35
.LBB10_35:
.Ltmp221:
	.loc	20 556 7 is_stmt 1              @ rt-thread/components/net/lwip-2.0.2/src/api/api_lib.c:556:7
	ldr	r0, [sp, #40]
	ldr	r0, [r0, #56]
.Ltmp222:
	.loc	20 556 7 is_stmt 0              @ rt-thread/components/net/lwip-2.0.2/src/api/api_lib.c:556:7
	cbz	r0, .LBB10_37
	b	.LBB10_36
.LBB10_36:
.Ltmp223:
	.loc	20 556 7                        @ rt-thread/components/net/lwip-2.0.2/src/api/api_lib.c:556:7
	ldr	r0, [sp, #40]
	ldr	r3, [r0, #56]
	movs	r1, #1
	movs	r2, #0
	blx	r3
	b	.LBB10_37
.Ltmp224:
.LBB10_37:
	.loc	20 557 11 is_stmt 1             @ rt-thread/components/net/lwip-2.0.2/src/api/api_lib.c:557:11
	ldr	r0, [sp, #40]
	.loc	20 557 21 is_stmt 0             @ rt-thread/components/net/lwip-2.0.2/src/api/api_lib.c:557:21
	ldr	r0, [r0, #4]
.Ltmp225:
	.loc	20 557 11                       @ rt-thread/components/net/lwip-2.0.2/src/api/api_lib.c:557:11
	cbnz	r0, .LBB10_42
	b	.LBB10_38
.LBB10_38:
.Ltmp226:
	.loc	20 559 16 is_stmt 1             @ rt-thread/components/net/lwip-2.0.2/src/api/api_lib.c:559:16
	ldr	r0, [sp, #40]
	.loc	20 559 22 is_stmt 0             @ rt-thread/components/net/lwip-2.0.2/src/api/api_lib.c:559:22
	ldrsb.w	r0, [r0, #8]
	.loc	20 559 16                       @ rt-thread/components/net/lwip-2.0.2/src/api/api_lib.c:559:16
	cbnz	r0, .LBB10_40
	b	.LBB10_39
.LBB10_39:
	.loc	20 0 16                         @ rt-thread/components/net/lwip-2.0.2/src/api/api_lib.c:0:16
	mvn	r0, #13
	.loc	20 559 16                       @ rt-thread/components/net/lwip-2.0.2/src/api/api_lib.c:559:16
	str	r0, [sp]                        @ 4-byte Spill
	b	.LBB10_41
.LBB10_40:
	.loc	20 559 53                       @ rt-thread/components/net/lwip-2.0.2/src/api/api_lib.c:559:53
	ldr	r0, [sp, #40]
	.loc	20 559 59                       @ rt-thread/components/net/lwip-2.0.2/src/api/api_lib.c:559:59
	ldrsb.w	r0, [r0, #8]
	.loc	20 559 16                       @ rt-thread/components/net/lwip-2.0.2/src/api/api_lib.c:559:16
	str	r0, [sp]                        @ 4-byte Spill
	b	.LBB10_41
.LBB10_41:
	ldr	r0, [sp]                        @ 4-byte Reload
	.loc	20 559 9                        @ rt-thread/components/net/lwip-2.0.2/src/api/api_lib.c:559:9
	strb.w	r0, [sp, #47]
	b	.LBB10_56
.Ltmp227:
.LBB10_42:
	.loc	20 562 30 is_stmt 1             @ rt-thread/components/net/lwip-2.0.2/src/api/api_lib.c:562:30
	ldr	r0, [sp, #40]
	movs	r1, #1
	.loc	20 562 7 is_stmt 0              @ rt-thread/components/net/lwip-2.0.2/src/api/api_lib.c:562:7
	bl	netconn_close_shutdown
	movs	r0, #241
	.loc	20 564 7 is_stmt 1              @ rt-thread/components/net/lwip-2.0.2/src/api/api_lib.c:564:7
	strb.w	r0, [sp, #47]
	b	.LBB10_56
.Ltmp228:
.LBB10_43:
	.loc	20 566 27                       @ rt-thread/components/net/lwip-2.0.2/src/api/api_lib.c:566:27
	ldr	r0, [sp, #32]
	.loc	20 566 33 is_stmt 0             @ rt-thread/components/net/lwip-2.0.2/src/api/api_lib.c:566:33
	ldrh	r0, [r0, #8]
	.loc	20 566 9                        @ rt-thread/components/net/lwip-2.0.2/src/api/api_lib.c:566:9
	strh.w	r0, [sp, #30]
	.loc	20 567 3 is_stmt 1              @ rt-thread/components/net/lwip-2.0.2/src/api/api_lib.c:567:3
	b	.LBB10_51
.Ltmp229:
.LBB10_44:
	.loc	20 574 5                        @ rt-thread/components/net/lwip-2.0.2/src/api/api_lib.c:574:5
	b	.LBB10_45
.LBB10_45:
.Ltmp230:
	.loc	20 574 5 is_stmt 0              @ rt-thread/components/net/lwip-2.0.2/src/api/api_lib.c:574:5
	ldr	r0, [sp, #32]
.Ltmp231:
	.loc	20 574 5                        @ rt-thread/components/net/lwip-2.0.2/src/api/api_lib.c:574:5
	cbnz	r0, .LBB10_49
	b	.LBB10_46
.LBB10_46:
.Ltmp232:
	.loc	20 574 5                        @ rt-thread/components/net/lwip-2.0.2/src/api/api_lib.c:574:5
	b	.LBB10_47
.LBB10_47:
.Ltmp233:
	.loc	20 574 5                        @ rt-thread/components/net/lwip-2.0.2/src/api/api_lib.c:574:5
	movw	r0, :lower16:.L.str.24
	movt	r0, :upper16:.L.str.24
	bl	rt_kprintf
	movw	r0, :lower16:.L.str.1
	movt	r0, :upper16:.L.str.1
	movw	r1, #574
	bl	sys_arch_assert
	b	.LBB10_48
.Ltmp234:
.LBB10_48:
	.loc	20 574 5                        @ rt-thread/components/net/lwip-2.0.2/src/api/api_lib.c:574:5
	b	.LBB10_49
.Ltmp235:
.LBB10_49:
	.loc	20 574 5                        @ rt-thread/components/net/lwip-2.0.2/src/api/api_lib.c:574:5
	b	.LBB10_50
.Ltmp236:
.LBB10_50:
	.loc	20 575 11 is_stmt 1             @ rt-thread/components/net/lwip-2.0.2/src/api/api_lib.c:575:11
	ldr	r0, [sp, #32]
	ldr	r0, [r0]
	ldrh	r0, [r0, #8]
	.loc	20 575 9 is_stmt 0              @ rt-thread/components/net/lwip-2.0.2/src/api/api_lib.c:575:9
	strh.w	r0, [sp, #30]
	b	.LBB10_51
.Ltmp237:
.LBB10_51:
	.loc	20 580 3 is_stmt 1              @ rt-thread/components/net/lwip-2.0.2/src/api/api_lib.c:580:3
	b	.LBB10_52
.LBB10_52:
.Ltmp238:
	.loc	20 580 3 is_stmt 0              @ rt-thread/components/net/lwip-2.0.2/src/api/api_lib.c:580:3
	bl	rt_enter_critical
	ldrh.w	r2, [sp, #30]
	ldr	r1, [sp, #40]
	ldr	r0, [r1, #40]
	subs	r0, r0, r2
	str	r0, [r1, #40]
	bl	rt_exit_critical
	b	.LBB10_53
.Ltmp239:
.LBB10_53:
	.loc	20 583 3 is_stmt 1              @ rt-thread/components/net/lwip-2.0.2/src/api/api_lib.c:583:3
	ldr	r0, [sp, #40]
	ldr	r0, [r0, #56]
.Ltmp240:
	.loc	20 583 3 is_stmt 0              @ rt-thread/components/net/lwip-2.0.2/src/api/api_lib.c:583:3
	cbz	r0, .LBB10_55
	b	.LBB10_54
.LBB10_54:
.Ltmp241:
	.loc	20 583 3                        @ rt-thread/components/net/lwip-2.0.2/src/api/api_lib.c:583:3
	ldr	r0, [sp, #40]
	ldr	r3, [r0, #56]
	ldrh.w	r2, [sp, #30]
	movs	r1, #1
	blx	r3
	b	.LBB10_55
.Ltmp242:
.LBB10_55:
	.loc	20 587 14 is_stmt 1             @ rt-thread/components/net/lwip-2.0.2/src/api/api_lib.c:587:14
	ldr	r0, [sp, #32]
	.loc	20 587 4 is_stmt 0              @ rt-thread/components/net/lwip-2.0.2/src/api/api_lib.c:587:4
	ldr	r1, [sp, #36]
	.loc	20 587 12                       @ rt-thread/components/net/lwip-2.0.2/src/api/api_lib.c:587:12
	str	r0, [r1]
	movs	r0, #0
	.loc	20 589 3 is_stmt 1              @ rt-thread/components/net/lwip-2.0.2/src/api/api_lib.c:589:3
	strb.w	r0, [sp, #47]
	b	.LBB10_56
.LBB10_56:
	.loc	20 590 1                        @ rt-thread/components/net/lwip-2.0.2/src/api/api_lib.c:590:1
	ldrsb.w	r0, [sp, #47]
	add	sp, #48
	pop	{r7, pc}
.Ltmp243:
.Lfunc_end10:
	.size	netconn_recv_data, .Lfunc_end10-netconn_recv_data
	.cfi_endproc
	.cantunwind
	.fnend
                                        @ -- End function
	.section	.text.netconn_recv,"ax",%progbits
	.hidden	netconn_recv                    @ -- Begin function netconn_recv
	.globl	netconn_recv
	.p2align	3
	.type	netconn_recv,%function
	.code	16                              @ @netconn_recv
	.thumb_func
netconn_recv:
.Lfunc_begin11:
	.loc	20 622 0                        @ rt-thread/components/net/lwip-2.0.2/src/api/api_lib.c:622:0
	.fnstart
	.cfi_startproc
@ %bb.0:
	.save	{r7, lr}
	push	{r7, lr}
	.cfi_def_cfa_offset 8
	.cfi_offset lr, -4
	.cfi_offset r7, -8
	.pad	#24
	sub	sp, #24
	.cfi_def_cfa_offset 32
	str	r0, [sp, #16]
	str	r1, [sp, #12]
	movs	r0, #0
.Ltmp244:
	.loc	20 624 18 prologue_end          @ rt-thread/components/net/lwip-2.0.2/src/api/api_lib.c:624:18
	str	r0, [sp, #8]
	.loc	20 628 3                        @ rt-thread/components/net/lwip-2.0.2/src/api/api_lib.c:628:3
	b	.LBB11_1
.LBB11_1:
.Ltmp245:
	.loc	20 628 3 is_stmt 0              @ rt-thread/components/net/lwip-2.0.2/src/api/api_lib.c:628:3
	ldr	r0, [sp, #12]
.Ltmp246:
	.loc	20 628 3                        @ rt-thread/components/net/lwip-2.0.2/src/api/api_lib.c:628:3
	cbnz	r0, .LBB11_5
	b	.LBB11_2
.LBB11_2:
.Ltmp247:
	.loc	20 628 3                        @ rt-thread/components/net/lwip-2.0.2/src/api/api_lib.c:628:3
	b	.LBB11_3
.LBB11_3:
.Ltmp248:
	.loc	20 628 3                        @ rt-thread/components/net/lwip-2.0.2/src/api/api_lib.c:628:3
	movw	r0, :lower16:.L.str.15
	movt	r0, :upper16:.L.str.15
	bl	rt_kprintf
	movw	r0, :lower16:.L.str.1
	movt	r0, :upper16:.L.str.1
	mov.w	r1, #628
	bl	sys_arch_assert
	b	.LBB11_4
.Ltmp249:
.LBB11_4:
	.loc	20 0 3                          @ rt-thread/components/net/lwip-2.0.2/src/api/api_lib.c:0:3
	movs	r0, #240
	.loc	20 628 3                        @ rt-thread/components/net/lwip-2.0.2/src/api/api_lib.c:628:3
	strb.w	r0, [sp, #23]
	b	.LBB11_25
.Ltmp250:
.LBB11_5:
	.loc	20 628 3                        @ rt-thread/components/net/lwip-2.0.2/src/api/api_lib.c:628:3
	b	.LBB11_6
.Ltmp251:
.LBB11_6:
	.loc	20 629 4 is_stmt 1              @ rt-thread/components/net/lwip-2.0.2/src/api/api_lib.c:629:4
	ldr	r1, [sp, #12]
	movs	r0, #0
	.loc	20 629 12 is_stmt 0             @ rt-thread/components/net/lwip-2.0.2/src/api/api_lib.c:629:12
	str	r0, [r1]
	.loc	20 630 3 is_stmt 1              @ rt-thread/components/net/lwip-2.0.2/src/api/api_lib.c:630:3
	b	.LBB11_7
.LBB11_7:
.Ltmp252:
	.loc	20 630 3 is_stmt 0              @ rt-thread/components/net/lwip-2.0.2/src/api/api_lib.c:630:3
	ldr	r0, [sp, #16]
.Ltmp253:
	.loc	20 630 3                        @ rt-thread/components/net/lwip-2.0.2/src/api/api_lib.c:630:3
	cbnz	r0, .LBB11_11
	b	.LBB11_8
.LBB11_8:
.Ltmp254:
	.loc	20 630 3                        @ rt-thread/components/net/lwip-2.0.2/src/api/api_lib.c:630:3
	b	.LBB11_9
.LBB11_9:
.Ltmp255:
	.loc	20 630 3                        @ rt-thread/components/net/lwip-2.0.2/src/api/api_lib.c:630:3
	movw	r0, :lower16:.L.str.14
	movt	r0, :upper16:.L.str.14
	bl	rt_kprintf
	movw	r0, :lower16:.L.str.1
	movt	r0, :upper16:.L.str.1
	movw	r1, #630
	bl	sys_arch_assert
	b	.LBB11_10
.Ltmp256:
.LBB11_10:
	.loc	20 0 3                          @ rt-thread/components/net/lwip-2.0.2/src/api/api_lib.c:0:3
	movs	r0, #240
	.loc	20 630 3                        @ rt-thread/components/net/lwip-2.0.2/src/api/api_lib.c:630:3
	strb.w	r0, [sp, #23]
	b	.LBB11_25
.Ltmp257:
.LBB11_11:
	.loc	20 630 3                        @ rt-thread/components/net/lwip-2.0.2/src/api/api_lib.c:630:3
	b	.LBB11_12
.Ltmp258:
.LBB11_12:
	.loc	20 634 7 is_stmt 1              @ rt-thread/components/net/lwip-2.0.2/src/api/api_lib.c:634:7
	ldr	r0, [sp, #16]
	ldrb	r0, [r0]
	and	r0, r0, #240
.Ltmp259:
	.loc	20 634 7 is_stmt 0              @ rt-thread/components/net/lwip-2.0.2/src/api/api_lib.c:634:7
	cmp	r0, #16
	bne	.LBB11_24
	b	.LBB11_13
.LBB11_13:
	.loc	20 0 7                          @ rt-thread/components/net/lwip-2.0.2/src/api/api_lib.c:0:7
	movs	r0, #0
.Ltmp260:
	.loc	20 637 18 is_stmt 1             @ rt-thread/components/net/lwip-2.0.2/src/api/api_lib.c:637:18
	str	r0, [sp]
	.loc	20 640 28                       @ rt-thread/components/net/lwip-2.0.2/src/api/api_lib.c:640:28
	movw	r1, :lower16:.L.str.1
	movt	r1, :upper16:.L.str.1
	movs	r0, #5
	mov.w	r2, #640
	bl	memp_malloc_fn
	.loc	20 640 9 is_stmt 0              @ rt-thread/components/net/lwip-2.0.2/src/api/api_lib.c:640:9
	str	r0, [sp, #8]
.Ltmp261:
	.loc	20 641 9 is_stmt 1              @ rt-thread/components/net/lwip-2.0.2/src/api/api_lib.c:641:9
	ldr	r0, [sp, #8]
.Ltmp262:
	.loc	20 641 9 is_stmt 0              @ rt-thread/components/net/lwip-2.0.2/src/api/api_lib.c:641:9
	cbnz	r0, .LBB11_15
	b	.LBB11_14
.LBB11_14:
	.loc	20 0 9                          @ rt-thread/components/net/lwip-2.0.2/src/api/api_lib.c:0:9
	movs	r0, #255
.Ltmp263:
	.loc	20 642 7 is_stmt 1              @ rt-thread/components/net/lwip-2.0.2/src/api/api_lib.c:642:7
	strb.w	r0, [sp, #23]
	b	.LBB11_25
.Ltmp264:
.LBB11_15:
	.loc	20 645 29                       @ rt-thread/components/net/lwip-2.0.2/src/api/api_lib.c:645:29
	ldr	r0, [sp, #16]
	mov	r1, sp
	.loc	20 645 11 is_stmt 0             @ rt-thread/components/net/lwip-2.0.2/src/api/api_lib.c:645:11
	bl	netconn_recv_data
	.loc	20 645 9                        @ rt-thread/components/net/lwip-2.0.2/src/api/api_lib.c:645:9
	strb.w	r0, [sp, #7]
.Ltmp265:
	.loc	20 646 9 is_stmt 1              @ rt-thread/components/net/lwip-2.0.2/src/api/api_lib.c:646:9
	ldrsb.w	r0, [sp, #7]
.Ltmp266:
	.loc	20 646 9 is_stmt 0              @ rt-thread/components/net/lwip-2.0.2/src/api/api_lib.c:646:9
	cbz	r0, .LBB11_17
	b	.LBB11_16
.LBB11_16:
.Ltmp267:
	.loc	20 647 30 is_stmt 1             @ rt-thread/components/net/lwip-2.0.2/src/api/api_lib.c:647:30
	ldr	r1, [sp, #8]
	movs	r0, #5
	.loc	20 647 7 is_stmt 0              @ rt-thread/components/net/lwip-2.0.2/src/api/api_lib.c:647:7
	bl	memp_free
	.loc	20 648 14 is_stmt 1             @ rt-thread/components/net/lwip-2.0.2/src/api/api_lib.c:648:14
	ldrb.w	r0, [sp, #7]
	.loc	20 648 7 is_stmt 0              @ rt-thread/components/net/lwip-2.0.2/src/api/api_lib.c:648:7
	strb.w	r0, [sp, #23]
	b	.LBB11_25
.Ltmp268:
.LBB11_17:
	.loc	20 650 5 is_stmt 1              @ rt-thread/components/net/lwip-2.0.2/src/api/api_lib.c:650:5
	b	.LBB11_18
.LBB11_18:
.Ltmp269:
	.loc	20 650 5 is_stmt 0              @ rt-thread/components/net/lwip-2.0.2/src/api/api_lib.c:650:5
	ldr	r0, [sp]
.Ltmp270:
	.loc	20 650 5                        @ rt-thread/components/net/lwip-2.0.2/src/api/api_lib.c:650:5
	cbnz	r0, .LBB11_22
	b	.LBB11_19
.LBB11_19:
.Ltmp271:
	.loc	20 650 5                        @ rt-thread/components/net/lwip-2.0.2/src/api/api_lib.c:650:5
	b	.LBB11_20
.LBB11_20:
.Ltmp272:
	.loc	20 650 5                        @ rt-thread/components/net/lwip-2.0.2/src/api/api_lib.c:650:5
	movw	r0, :lower16:.L.str.16
	movt	r0, :upper16:.L.str.16
	bl	rt_kprintf
	movw	r0, :lower16:.L.str.1
	movt	r0, :upper16:.L.str.1
	movw	r1, #650
	bl	sys_arch_assert
	b	.LBB11_21
.Ltmp273:
.LBB11_21:
	.loc	20 650 5                        @ rt-thread/components/net/lwip-2.0.2/src/api/api_lib.c:650:5
	b	.LBB11_22
.Ltmp274:
.LBB11_22:
	.loc	20 650 5                        @ rt-thread/components/net/lwip-2.0.2/src/api/api_lib.c:650:5
	b	.LBB11_23
.Ltmp275:
.LBB11_23:
	.loc	20 652 14 is_stmt 1             @ rt-thread/components/net/lwip-2.0.2/src/api/api_lib.c:652:14
	ldr	r0, [sp]
	.loc	20 652 5 is_stmt 0              @ rt-thread/components/net/lwip-2.0.2/src/api/api_lib.c:652:5
	ldr	r1, [sp, #8]
	.loc	20 652 12                       @ rt-thread/components/net/lwip-2.0.2/src/api/api_lib.c:652:12
	str	r0, [r1]
	.loc	20 653 16 is_stmt 1             @ rt-thread/components/net/lwip-2.0.2/src/api/api_lib.c:653:16
	ldr	r0, [sp]
	.loc	20 653 5 is_stmt 0              @ rt-thread/components/net/lwip-2.0.2/src/api/api_lib.c:653:5
	ldr	r1, [sp, #8]
	.loc	20 653 14                       @ rt-thread/components/net/lwip-2.0.2/src/api/api_lib.c:653:14
	str	r0, [r1, #4]
	.loc	20 654 5 is_stmt 1              @ rt-thread/components/net/lwip-2.0.2/src/api/api_lib.c:654:5
	ldr	r1, [sp, #8]
	movs	r0, #0
	.loc	20 654 15 is_stmt 0             @ rt-thread/components/net/lwip-2.0.2/src/api/api_lib.c:654:15
	strh	r0, [r1, #12]
	.loc	20 655 5 is_stmt 1              @ rt-thread/components/net/lwip-2.0.2/src/api/api_lib.c:655:5
	ldr	r1, [sp, #8]
	str	r0, [r1, #8]
	.loc	20 656 16                       @ rt-thread/components/net/lwip-2.0.2/src/api/api_lib.c:656:16
	ldr	r1, [sp, #8]
	.loc	20 656 6 is_stmt 0              @ rt-thread/components/net/lwip-2.0.2/src/api/api_lib.c:656:6
	ldr	r2, [sp, #12]
	.loc	20 656 14                       @ rt-thread/components/net/lwip-2.0.2/src/api/api_lib.c:656:14
	str	r1, [r2]
	.loc	20 658 5 is_stmt 1              @ rt-thread/components/net/lwip-2.0.2/src/api/api_lib.c:658:5
	strb.w	r0, [sp, #23]
	b	.LBB11_25
.Ltmp276:
.LBB11_24:
	.loc	20 666 30                       @ rt-thread/components/net/lwip-2.0.2/src/api/api_lib.c:666:30
	ldr	r0, [sp, #16]
	.loc	20 666 45 is_stmt 0             @ rt-thread/components/net/lwip-2.0.2/src/api/api_lib.c:666:45
	ldr	r1, [sp, #12]
	.loc	20 666 12                       @ rt-thread/components/net/lwip-2.0.2/src/api/api_lib.c:666:12
	bl	netconn_recv_data
	.loc	20 666 5                        @ rt-thread/components/net/lwip-2.0.2/src/api/api_lib.c:666:5
	strb.w	r0, [sp, #23]
	b	.LBB11_25
.Ltmp277:
.LBB11_25:
	.loc	20 669 1 is_stmt 1              @ rt-thread/components/net/lwip-2.0.2/src/api/api_lib.c:669:1
	ldrsb.w	r0, [sp, #23]
	add	sp, #24
	pop	{r7, pc}
.Ltmp278:
.Lfunc_end11:
	.size	netconn_recv, .Lfunc_end11-netconn_recv
	.cfi_endproc
	.cantunwind
	.fnend
                                        @ -- End function
	.section	.text.netconn_sendto,"ax",%progbits
	.hidden	netconn_sendto                  @ -- Begin function netconn_sendto
	.globl	netconn_sendto
	.p2align	3
	.type	netconn_sendto,%function
	.code	16                              @ @netconn_sendto
	.thumb_func
netconn_sendto:
.Lfunc_begin12:
	.loc	20 684 0                        @ rt-thread/components/net/lwip-2.0.2/src/api/api_lib.c:684:0
	.fnstart
	.cfi_startproc
@ %bb.0:
	.save	{r7, lr}
	push	{r7, lr}
	.cfi_def_cfa_offset 8
	.cfi_offset lr, -4
	.cfi_offset r7, -8
	.pad	#24
	sub	sp, #24
	.cfi_def_cfa_offset 32
                                        @ kill: def $r12 killed $r3
	str	r0, [sp, #16]
	str	r1, [sp, #12]
	str	r2, [sp, #8]
	strh.w	r3, [sp, #6]
.Ltmp279:
	.loc	20 685 7 prologue_end           @ rt-thread/components/net/lwip-2.0.2/src/api/api_lib.c:685:7
	ldr	r0, [sp, #12]
.Ltmp280:
	.loc	20 685 7 is_stmt 0              @ rt-thread/components/net/lwip-2.0.2/src/api/api_lib.c:685:7
	cbz	r0, .LBB12_5
	b	.LBB12_1
.LBB12_1:
.Ltmp281:
	.loc	20 686 5 is_stmt 1              @ rt-thread/components/net/lwip-2.0.2/src/api/api_lib.c:686:5
	ldr	r0, [sp, #8]
	cbnz	r0, .LBB12_3
	b	.LBB12_2
.LBB12_2:
	.loc	20 0 5 is_stmt 0                @ rt-thread/components/net/lwip-2.0.2/src/api/api_lib.c:0:5
	movs	r0, #0
	.loc	20 686 5                        @ rt-thread/components/net/lwip-2.0.2/src/api/api_lib.c:686:5
	str	r0, [sp]                        @ 4-byte Spill
	b	.LBB12_4
.LBB12_3:
	ldr	r0, [sp, #8]
	ldr	r0, [r0]
	str	r0, [sp]                        @ 4-byte Spill
	b	.LBB12_4
.LBB12_4:
	ldr	r0, [sp]                        @ 4-byte Reload
	ldr	r1, [sp, #12]
	str	r0, [r1, #8]
	.loc	20 687 17 is_stmt 1             @ rt-thread/components/net/lwip-2.0.2/src/api/api_lib.c:687:17
	ldrh.w	r0, [sp, #6]
	.loc	20 687 5 is_stmt 0              @ rt-thread/components/net/lwip-2.0.2/src/api/api_lib.c:687:5
	ldr	r1, [sp, #12]
	.loc	20 687 15                       @ rt-thread/components/net/lwip-2.0.2/src/api/api_lib.c:687:15
	strh	r0, [r1, #12]
	.loc	20 688 25 is_stmt 1             @ rt-thread/components/net/lwip-2.0.2/src/api/api_lib.c:688:25
	ldr	r0, [sp, #16]
	.loc	20 688 31 is_stmt 0             @ rt-thread/components/net/lwip-2.0.2/src/api/api_lib.c:688:31
	ldr	r1, [sp, #12]
	.loc	20 688 12                       @ rt-thread/components/net/lwip-2.0.2/src/api/api_lib.c:688:12
	bl	netconn_send
	.loc	20 688 5                        @ rt-thread/components/net/lwip-2.0.2/src/api/api_lib.c:688:5
	strb.w	r0, [sp, #23]
	b	.LBB12_6
.Ltmp282:
.LBB12_5:
	.loc	20 0 5                          @ rt-thread/components/net/lwip-2.0.2/src/api/api_lib.c:0:5
	movs	r0, #250
	.loc	20 690 3 is_stmt 1              @ rt-thread/components/net/lwip-2.0.2/src/api/api_lib.c:690:3
	strb.w	r0, [sp, #23]
	b	.LBB12_6
.LBB12_6:
	.loc	20 691 1                        @ rt-thread/components/net/lwip-2.0.2/src/api/api_lib.c:691:1
	ldrsb.w	r0, [sp, #23]
	add	sp, #24
	pop	{r7, pc}
.Ltmp283:
.Lfunc_end12:
	.size	netconn_sendto, .Lfunc_end12-netconn_sendto
	.cfi_endproc
	.cantunwind
	.fnend
                                        @ -- End function
	.section	.text.netconn_send,"ax",%progbits
	.hidden	netconn_send                    @ -- Begin function netconn_send
	.globl	netconn_send
	.p2align	3
	.type	netconn_send,%function
	.code	16                              @ @netconn_send
	.thumb_func
netconn_send:
.Lfunc_begin13:
	.loc	20 703 0                        @ rt-thread/components/net/lwip-2.0.2/src/api/api_lib.c:703:0
	.fnstart
	.cfi_startproc
@ %bb.0:
	.save	{r7, lr}
	push	{r7, lr}
	.cfi_def_cfa_offset 8
	.cfi_offset lr, -4
	.cfi_offset r7, -8
	.pad	#40
	sub	sp, #40
	.cfi_def_cfa_offset 48
	str	r0, [sp, #32]
	str	r1, [sp, #28]
.Ltmp284:
	.loc	20 707 3 prologue_end           @ rt-thread/components/net/lwip-2.0.2/src/api/api_lib.c:707:3
	b	.LBB13_1
.LBB13_1:
.Ltmp285:
	.loc	20 707 3 is_stmt 0              @ rt-thread/components/net/lwip-2.0.2/src/api/api_lib.c:707:3
	ldr	r0, [sp, #32]
.Ltmp286:
	.loc	20 707 3                        @ rt-thread/components/net/lwip-2.0.2/src/api/api_lib.c:707:3
	cbnz	r0, .LBB13_5
	b	.LBB13_2
.LBB13_2:
.Ltmp287:
	.loc	20 707 3                        @ rt-thread/components/net/lwip-2.0.2/src/api/api_lib.c:707:3
	b	.LBB13_3
.LBB13_3:
.Ltmp288:
	.loc	20 707 3                        @ rt-thread/components/net/lwip-2.0.2/src/api/api_lib.c:707:3
	movw	r0, :lower16:.L.str.17
	movt	r0, :upper16:.L.str.17
	bl	rt_kprintf
	movw	r0, :lower16:.L.str.1
	movt	r0, :upper16:.L.str.1
	movw	r1, #707
	bl	sys_arch_assert
	b	.LBB13_4
.Ltmp289:
.LBB13_4:
	.loc	20 0 3                          @ rt-thread/components/net/lwip-2.0.2/src/api/api_lib.c:0:3
	movs	r0, #240
	.loc	20 707 3                        @ rt-thread/components/net/lwip-2.0.2/src/api/api_lib.c:707:3
	strb.w	r0, [sp, #39]
	b	.LBB13_7
.Ltmp290:
.LBB13_5:
	.loc	20 707 3                        @ rt-thread/components/net/lwip-2.0.2/src/api/api_lib.c:707:3
	b	.LBB13_6
.Ltmp291:
.LBB13_6:
	.loc	20 712 31 is_stmt 1             @ rt-thread/components/net/lwip-2.0.2/src/api/api_lib.c:712:31
	ldr	r0, [sp, #32]
	.loc	20 712 29 is_stmt 0             @ rt-thread/components/net/lwip-2.0.2/src/api/api_lib.c:712:29
	str	r0, [sp, #4]
	.loc	20 713 32 is_stmt 1             @ rt-thread/components/net/lwip-2.0.2/src/api/api_lib.c:713:32
	ldr	r0, [sp, #28]
	.loc	20 713 30 is_stmt 0             @ rt-thread/components/net/lwip-2.0.2/src/api/api_lib.c:713:30
	str	r0, [sp, #12]
	.loc	20 714 9 is_stmt 1              @ rt-thread/components/net/lwip-2.0.2/src/api/api_lib.c:714:9
	movw	r0, :lower16:lwip_netconn_do_send
	movt	r0, :upper16:lwip_netconn_do_send
	add	r1, sp, #4
	bl	netconn_apimsg
	.loc	20 714 7 is_stmt 0              @ rt-thread/components/net/lwip-2.0.2/src/api/api_lib.c:714:7
	strb.w	r0, [sp, #3]
	.loc	20 717 10 is_stmt 1             @ rt-thread/components/net/lwip-2.0.2/src/api/api_lib.c:717:10
	ldrb.w	r0, [sp, #3]
	.loc	20 717 3 is_stmt 0              @ rt-thread/components/net/lwip-2.0.2/src/api/api_lib.c:717:3
	strb.w	r0, [sp, #39]
	b	.LBB13_7
.LBB13_7:
	.loc	20 718 1 is_stmt 1              @ rt-thread/components/net/lwip-2.0.2/src/api/api_lib.c:718:1
	ldrsb.w	r0, [sp, #39]
	add	sp, #40
	pop	{r7, pc}
.Ltmp292:
.Lfunc_end13:
	.size	netconn_send, .Lfunc_end13-netconn_send
	.cfi_endproc
	.cantunwind
	.fnend
                                        @ -- End function
	.section	.text.netconn_write_partly,"ax",%progbits
	.hidden	netconn_write_partly            @ -- Begin function netconn_write_partly
	.globl	netconn_write_partly
	.p2align	3
	.type	netconn_write_partly,%function
	.code	16                              @ @netconn_write_partly
	.thumb_func
netconn_write_partly:
.Lfunc_begin14:
	.loc	20 737 0                        @ rt-thread/components/net/lwip-2.0.2/src/api/api_lib.c:737:0
	.fnstart
	.cfi_startproc
@ %bb.0:
	.save	{r7, lr}
	push	{r7, lr}
	.cfi_def_cfa_offset 8
	.cfi_offset lr, -4
	.cfi_offset r7, -8
	.pad	#56
	sub	sp, #56
	.cfi_def_cfa_offset 64
	ldr.w	r12, [sp, #64]
                                        @ kill: def $r12 killed $r3
	str	r0, [sp, #48]
	str	r1, [sp, #44]
	str	r2, [sp, #40]
	strb.w	r3, [sp, #39]
.Ltmp293:
	.loc	20 742 3 prologue_end           @ rt-thread/components/net/lwip-2.0.2/src/api/api_lib.c:742:3
	b	.LBB14_1
.LBB14_1:
.Ltmp294:
	.loc	20 742 3 is_stmt 0              @ rt-thread/components/net/lwip-2.0.2/src/api/api_lib.c:742:3
	ldr	r0, [sp, #48]
.Ltmp295:
	.loc	20 742 3                        @ rt-thread/components/net/lwip-2.0.2/src/api/api_lib.c:742:3
	cbnz	r0, .LBB14_5
	b	.LBB14_2
.LBB14_2:
.Ltmp296:
	.loc	20 742 3                        @ rt-thread/components/net/lwip-2.0.2/src/api/api_lib.c:742:3
	b	.LBB14_3
.LBB14_3:
.Ltmp297:
	.loc	20 742 3                        @ rt-thread/components/net/lwip-2.0.2/src/api/api_lib.c:742:3
	movw	r0, :lower16:.L.str.18
	movt	r0, :upper16:.L.str.18
	bl	rt_kprintf
	movw	r0, :lower16:.L.str.1
	movt	r0, :upper16:.L.str.1
	movw	r1, #742
	bl	sys_arch_assert
	b	.LBB14_4
.Ltmp298:
.LBB14_4:
	.loc	20 0 3                          @ rt-thread/components/net/lwip-2.0.2/src/api/api_lib.c:0:3
	movs	r0, #240
	.loc	20 742 3                        @ rt-thread/components/net/lwip-2.0.2/src/api/api_lib.c:742:3
	strb.w	r0, [sp, #55]
	b	.LBB14_31
.Ltmp299:
.LBB14_5:
	.loc	20 742 3                        @ rt-thread/components/net/lwip-2.0.2/src/api/api_lib.c:742:3
	b	.LBB14_6
.Ltmp300:
.LBB14_6:
	.loc	20 743 3 is_stmt 1              @ rt-thread/components/net/lwip-2.0.2/src/api/api_lib.c:743:3
	b	.LBB14_7
.LBB14_7:
.Ltmp301:
	.loc	20 743 3 is_stmt 0              @ rt-thread/components/net/lwip-2.0.2/src/api/api_lib.c:743:3
	ldr	r0, [sp, #48]
	ldrb	r0, [r0]
	and	r0, r0, #240
.Ltmp302:
	.loc	20 743 3                        @ rt-thread/components/net/lwip-2.0.2/src/api/api_lib.c:743:3
	cmp	r0, #16
	beq	.LBB14_11
	b	.LBB14_8
.LBB14_8:
.Ltmp303:
	.loc	20 743 3                        @ rt-thread/components/net/lwip-2.0.2/src/api/api_lib.c:743:3
	b	.LBB14_9
.LBB14_9:
.Ltmp304:
	.loc	20 743 3                        @ rt-thread/components/net/lwip-2.0.2/src/api/api_lib.c:743:3
	movw	r0, :lower16:.L.str.19
	movt	r0, :upper16:.L.str.19
	bl	rt_kprintf
	movw	r0, :lower16:.L.str.1
	movt	r0, :upper16:.L.str.1
	movw	r1, #743
	bl	sys_arch_assert
	b	.LBB14_10
.Ltmp305:
.LBB14_10:
	.loc	20 0 3                          @ rt-thread/components/net/lwip-2.0.2/src/api/api_lib.c:0:3
	movs	r0, #250
	.loc	20 743 3                        @ rt-thread/components/net/lwip-2.0.2/src/api/api_lib.c:743:3
	strb.w	r0, [sp, #55]
	b	.LBB14_31
.Ltmp306:
.LBB14_11:
	.loc	20 743 3                        @ rt-thread/components/net/lwip-2.0.2/src/api/api_lib.c:743:3
	b	.LBB14_12
.Ltmp307:
.LBB14_12:
	.loc	20 744 7 is_stmt 1              @ rt-thread/components/net/lwip-2.0.2/src/api/api_lib.c:744:7
	ldr	r0, [sp, #40]
.Ltmp308:
	.loc	20 744 7 is_stmt 0              @ rt-thread/components/net/lwip-2.0.2/src/api/api_lib.c:744:7
	cbnz	r0, .LBB14_14
	b	.LBB14_13
.LBB14_13:
	.loc	20 0 7                          @ rt-thread/components/net/lwip-2.0.2/src/api/api_lib.c:0:7
	movs	r0, #0
.Ltmp309:
	.loc	20 745 5 is_stmt 1              @ rt-thread/components/net/lwip-2.0.2/src/api/api_lib.c:745:5
	strb.w	r0, [sp, #55]
	b	.LBB14_31
.Ltmp310:
.LBB14_14:
	.loc	20 747 15                       @ rt-thread/components/net/lwip-2.0.2/src/api/api_lib.c:747:15
	ldr	r0, [sp, #48]
	ldrb.w	r1, [r0, #44]
	movs	r0, #1
	.loc	20 747 44 is_stmt 0             @ rt-thread/components/net/lwip-2.0.2/src/api/api_lib.c:747:44
	lsls	r1, r1, #30
	cmp	r1, #0
	str	r0, [sp, #4]                    @ 4-byte Spill
	bmi	.LBB14_16
	b	.LBB14_15
.LBB14_15:
	.loc	20 747 48                       @ rt-thread/components/net/lwip-2.0.2/src/api/api_lib.c:747:48
	ldrb.w	r0, [sp, #39]
	.loc	20 747 44                       @ rt-thread/components/net/lwip-2.0.2/src/api/api_lib.c:747:44
	ubfx	r0, r0, #2, #1
	str	r0, [sp, #4]                    @ 4-byte Spill
	b	.LBB14_16
.LBB14_16:
	.loc	20 0 44                         @ rt-thread/components/net/lwip-2.0.2/src/api/api_lib.c:0:44
	ldr	r0, [sp, #4]                    @ 4-byte Reload
	.loc	20 747 15                       @ rt-thread/components/net/lwip-2.0.2/src/api/api_lib.c:747:15
	and	r0, r0, #1
	.loc	20 747 13                       @ rt-thread/components/net/lwip-2.0.2/src/api/api_lib.c:747:13
	strb.w	r0, [sp, #10]
.Ltmp311:
	.loc	20 749 7 is_stmt 1              @ rt-thread/components/net/lwip-2.0.2/src/api/api_lib.c:749:7
	ldr	r0, [sp, #48]
	.loc	20 749 13 is_stmt 0             @ rt-thread/components/net/lwip-2.0.2/src/api/api_lib.c:749:13
	ldr	r0, [r0, #28]
.Ltmp312:
	.loc	20 749 7                        @ rt-thread/components/net/lwip-2.0.2/src/api/api_lib.c:749:7
	cbz	r0, .LBB14_18
	b	.LBB14_17
.LBB14_17:
	.loc	20 0 7                          @ rt-thread/components/net/lwip-2.0.2/src/api/api_lib.c:0:7
	movs	r0, #1
.Ltmp313:
	.loc	20 750 15 is_stmt 1             @ rt-thread/components/net/lwip-2.0.2/src/api/api_lib.c:750:15
	strb.w	r0, [sp, #10]
	.loc	20 751 3                        @ rt-thread/components/net/lwip-2.0.2/src/api/api_lib.c:751:3
	b	.LBB14_18
.Ltmp314:
.LBB14_18:
	.loc	20 753 7                        @ rt-thread/components/net/lwip-2.0.2/src/api/api_lib.c:753:7
	ldrb.w	r0, [sp, #10]
	.loc	20 753 17 is_stmt 0             @ rt-thread/components/net/lwip-2.0.2/src/api/api_lib.c:753:17
	cbz	r0, .LBB14_21
	b	.LBB14_19
.LBB14_19:
	.loc	20 753 21                       @ rt-thread/components/net/lwip-2.0.2/src/api/api_lib.c:753:21
	ldr	r0, [sp, #64]
.Ltmp315:
	.loc	20 753 7                        @ rt-thread/components/net/lwip-2.0.2/src/api/api_lib.c:753:7
	cbnz	r0, .LBB14_21
	b	.LBB14_20
.LBB14_20:
	.loc	20 0 7                          @ rt-thread/components/net/lwip-2.0.2/src/api/api_lib.c:0:7
	movs	r0, #250
.Ltmp316:
	.loc	20 756 5 is_stmt 1              @ rt-thread/components/net/lwip-2.0.2/src/api/api_lib.c:756:5
	strb.w	r0, [sp, #55]
	b	.LBB14_31
.Ltmp317:
.LBB14_21:
	.loc	20 761 31                       @ rt-thread/components/net/lwip-2.0.2/src/api/api_lib.c:761:31
	ldr	r0, [sp, #48]
	.loc	20 761 29 is_stmt 0             @ rt-thread/components/net/lwip-2.0.2/src/api/api_lib.c:761:29
	str	r0, [sp, #12]
	.loc	20 762 40 is_stmt 1             @ rt-thread/components/net/lwip-2.0.2/src/api/api_lib.c:762:40
	ldr	r0, [sp, #44]
	.loc	20 762 38 is_stmt 0             @ rt-thread/components/net/lwip-2.0.2/src/api/api_lib.c:762:38
	str	r0, [sp, #20]
	.loc	20 763 41 is_stmt 1             @ rt-thread/components/net/lwip-2.0.2/src/api/api_lib.c:763:41
	ldrb.w	r0, [sp, #39]
	.loc	20 763 39 is_stmt 0             @ rt-thread/components/net/lwip-2.0.2/src/api/api_lib.c:763:39
	strb.w	r0, [sp, #28]
	.loc	20 764 36 is_stmt 1             @ rt-thread/components/net/lwip-2.0.2/src/api/api_lib.c:764:36
	ldr	r0, [sp, #40]
	.loc	20 764 34 is_stmt 0             @ rt-thread/components/net/lwip-2.0.2/src/api/api_lib.c:764:34
	str	r0, [sp, #24]
.Ltmp318:
	.loc	20 766 7 is_stmt 1              @ rt-thread/components/net/lwip-2.0.2/src/api/api_lib.c:766:7
	ldr	r0, [sp, #48]
	.loc	20 766 13 is_stmt 0             @ rt-thread/components/net/lwip-2.0.2/src/api/api_lib.c:766:13
	ldr	r0, [r0, #28]
.Ltmp319:
	.loc	20 766 7                        @ rt-thread/components/net/lwip-2.0.2/src/api/api_lib.c:766:7
	cbz	r0, .LBB14_23
	b	.LBB14_22
.LBB14_22:
.Ltmp320:
	.loc	20 769 47 is_stmt 1             @ rt-thread/components/net/lwip-2.0.2/src/api/api_lib.c:769:47
	bl	sys_now
	.loc	20 769 45 is_stmt 0             @ rt-thread/components/net/lwip-2.0.2/src/api/api_lib.c:769:45
	str	r0, [sp, #32]
	.loc	20 770 3 is_stmt 1              @ rt-thread/components/net/lwip-2.0.2/src/api/api_lib.c:770:3
	b	.LBB14_24
.Ltmp321:
.LBB14_23:
	.loc	20 0 3 is_stmt 0                @ rt-thread/components/net/lwip-2.0.2/src/api/api_lib.c:0:3
	movs	r0, #0
.Ltmp322:
	.loc	20 771 45 is_stmt 1             @ rt-thread/components/net/lwip-2.0.2/src/api/api_lib.c:771:45
	str	r0, [sp, #32]
	b	.LBB14_24
.Ltmp323:
.LBB14_24:
	.loc	20 778 9                        @ rt-thread/components/net/lwip-2.0.2/src/api/api_lib.c:778:9
	movw	r0, :lower16:lwip_netconn_do_write
	movt	r0, :upper16:lwip_netconn_do_write
	add	r1, sp, #12
	bl	netconn_apimsg
	.loc	20 778 7 is_stmt 0              @ rt-thread/components/net/lwip-2.0.2/src/api/api_lib.c:778:7
	strb.w	r0, [sp, #11]
.Ltmp324:
	.loc	20 779 8 is_stmt 1              @ rt-thread/components/net/lwip-2.0.2/src/api/api_lib.c:779:8
	ldrsb.w	r0, [sp, #11]
	.loc	20 779 23 is_stmt 0             @ rt-thread/components/net/lwip-2.0.2/src/api/api_lib.c:779:23
	cbnz	r0, .LBB14_30
	b	.LBB14_25
.LBB14_25:
	.loc	20 779 27                       @ rt-thread/components/net/lwip-2.0.2/src/api/api_lib.c:779:27
	ldr	r0, [sp, #64]
.Ltmp325:
	.loc	20 779 7                        @ rt-thread/components/net/lwip-2.0.2/src/api/api_lib.c:779:7
	cbz	r0, .LBB14_30
	b	.LBB14_26
.LBB14_26:
.Ltmp326:
	.loc	20 780 9 is_stmt 1              @ rt-thread/components/net/lwip-2.0.2/src/api/api_lib.c:780:9
	ldrb.w	r0, [sp, #10]
.Ltmp327:
	.loc	20 780 9 is_stmt 0              @ rt-thread/components/net/lwip-2.0.2/src/api/api_lib.c:780:9
	cbz	r0, .LBB14_28
	b	.LBB14_27
.LBB14_27:
.Ltmp328:
	.loc	20 782 51 is_stmt 1             @ rt-thread/components/net/lwip-2.0.2/src/api/api_lib.c:782:51
	ldr	r0, [sp, #24]
	.loc	20 782 8 is_stmt 0              @ rt-thread/components/net/lwip-2.0.2/src/api/api_lib.c:782:8
	ldr	r1, [sp, #64]
	.loc	20 782 22                       @ rt-thread/components/net/lwip-2.0.2/src/api/api_lib.c:782:22
	str	r0, [r1]
	.loc	20 783 5 is_stmt 1              @ rt-thread/components/net/lwip-2.0.2/src/api/api_lib.c:783:5
	b	.LBB14_29
.Ltmp329:
.LBB14_28:
	.loc	20 785 24                       @ rt-thread/components/net/lwip-2.0.2/src/api/api_lib.c:785:24
	ldr	r0, [sp, #40]
	.loc	20 785 8 is_stmt 0              @ rt-thread/components/net/lwip-2.0.2/src/api/api_lib.c:785:8
	ldr	r1, [sp, #64]
	.loc	20 785 22                       @ rt-thread/components/net/lwip-2.0.2/src/api/api_lib.c:785:22
	str	r0, [r1]
	b	.LBB14_29
.Ltmp330:
.LBB14_29:
	.loc	20 787 3 is_stmt 1              @ rt-thread/components/net/lwip-2.0.2/src/api/api_lib.c:787:3
	b	.LBB14_30
.Ltmp331:
.LBB14_30:
	.loc	20 790 10                       @ rt-thread/components/net/lwip-2.0.2/src/api/api_lib.c:790:10
	ldrb.w	r0, [sp, #11]
	.loc	20 790 3 is_stmt 0              @ rt-thread/components/net/lwip-2.0.2/src/api/api_lib.c:790:3
	strb.w	r0, [sp, #55]
	b	.LBB14_31
.LBB14_31:
	.loc	20 791 1 is_stmt 1              @ rt-thread/components/net/lwip-2.0.2/src/api/api_lib.c:791:1
	ldrsb.w	r0, [sp, #55]
	add	sp, #56
	pop	{r7, pc}
.Ltmp332:
.Lfunc_end14:
	.size	netconn_write_partly, .Lfunc_end14-netconn_write_partly
	.cfi_endproc
	.cantunwind
	.fnend
                                        @ -- End function
	.section	.text.netconn_close,"ax",%progbits
	.hidden	netconn_close                   @ -- Begin function netconn_close
	.globl	netconn_close
	.p2align	3
	.type	netconn_close,%function
	.code	16                              @ @netconn_close
	.thumb_func
netconn_close:
.Lfunc_begin15:
	.loc	20 839 0                        @ rt-thread/components/net/lwip-2.0.2/src/api/api_lib.c:839:0
	.fnstart
	.cfi_startproc
@ %bb.0:
	.save	{r7, lr}
	push	{r7, lr}
	.cfi_def_cfa_offset 8
	.cfi_offset lr, -4
	.cfi_offset r7, -8
	.pad	#8
	sub	sp, #8
	.cfi_def_cfa_offset 16
	str	r0, [sp, #4]
.Ltmp333:
	.loc	20 841 33 prologue_end          @ rt-thread/components/net/lwip-2.0.2/src/api/api_lib.c:841:33
	ldr	r0, [sp, #4]
	movs	r1, #3
	.loc	20 841 10 is_stmt 0             @ rt-thread/components/net/lwip-2.0.2/src/api/api_lib.c:841:10
	bl	netconn_close_shutdown
	.loc	20 841 3                        @ rt-thread/components/net/lwip-2.0.2/src/api/api_lib.c:841:3
	add	sp, #8
	pop	{r7, pc}
.Ltmp334:
.Lfunc_end15:
	.size	netconn_close, .Lfunc_end15-netconn_close
	.cfi_endproc
	.cantunwind
	.fnend
                                        @ -- End function
	.section	.text.netconn_close_shutdown,"ax",%progbits
	.p2align	3                               @ -- Begin function netconn_close_shutdown
	.type	netconn_close_shutdown,%function
	.code	16                              @ @netconn_close_shutdown
	.thumb_func
netconn_close_shutdown:
.Lfunc_begin16:
	.loc	20 803 0 is_stmt 1              @ rt-thread/components/net/lwip-2.0.2/src/api/api_lib.c:803:0
	.fnstart
	.cfi_startproc
@ %bb.0:
	.save	{r7, lr}
	push	{r7, lr}
	.cfi_def_cfa_offset 8
	.cfi_offset lr, -4
	.cfi_offset r7, -8
	.pad	#40
	sub	sp, #40
	.cfi_def_cfa_offset 48
                                        @ kill: def $r2 killed $r1
	str	r0, [sp, #32]
	strb.w	r1, [sp, #31]
.Ltmp335:
	.loc	20 808 3 prologue_end           @ rt-thread/components/net/lwip-2.0.2/src/api/api_lib.c:808:3
	b	.LBB16_1
.LBB16_1:
.Ltmp336:
	.loc	20 808 3 is_stmt 0              @ rt-thread/components/net/lwip-2.0.2/src/api/api_lib.c:808:3
	ldr	r0, [sp, #32]
.Ltmp337:
	.loc	20 808 3                        @ rt-thread/components/net/lwip-2.0.2/src/api/api_lib.c:808:3
	cbnz	r0, .LBB16_5
	b	.LBB16_2
.LBB16_2:
.Ltmp338:
	.loc	20 808 3                        @ rt-thread/components/net/lwip-2.0.2/src/api/api_lib.c:808:3
	b	.LBB16_3
.LBB16_3:
.Ltmp339:
	.loc	20 808 3                        @ rt-thread/components/net/lwip-2.0.2/src/api/api_lib.c:808:3
	movw	r0, :lower16:.L.str.25
	movt	r0, :upper16:.L.str.25
	bl	rt_kprintf
	movw	r0, :lower16:.L.str.1
	movt	r0, :upper16:.L.str.1
	mov.w	r1, #808
	bl	sys_arch_assert
	b	.LBB16_4
.Ltmp340:
.LBB16_4:
	.loc	20 0 3                          @ rt-thread/components/net/lwip-2.0.2/src/api/api_lib.c:0:3
	movs	r0, #240
	.loc	20 808 3                        @ rt-thread/components/net/lwip-2.0.2/src/api/api_lib.c:808:3
	strb.w	r0, [sp, #39]
	b	.LBB16_7
.Ltmp341:
.LBB16_5:
	.loc	20 808 3                        @ rt-thread/components/net/lwip-2.0.2/src/api/api_lib.c:808:3
	b	.LBB16_6
.Ltmp342:
.LBB16_6:
	.loc	20 811 31 is_stmt 1             @ rt-thread/components/net/lwip-2.0.2/src/api/api_lib.c:811:31
	ldr	r0, [sp, #32]
	.loc	20 811 29 is_stmt 0             @ rt-thread/components/net/lwip-2.0.2/src/api/api_lib.c:811:29
	str	r0, [sp, #4]
	.loc	20 814 38 is_stmt 1             @ rt-thread/components/net/lwip-2.0.2/src/api/api_lib.c:814:38
	ldrb.w	r0, [sp, #31]
	.loc	20 814 36 is_stmt 0             @ rt-thread/components/net/lwip-2.0.2/src/api/api_lib.c:814:36
	strb.w	r0, [sp, #12]
	.loc	20 818 46 is_stmt 1             @ rt-thread/components/net/lwip-2.0.2/src/api/api_lib.c:818:46
	bl	sys_now
	.loc	20 818 44 is_stmt 0             @ rt-thread/components/net/lwip-2.0.2/src/api/api_lib.c:818:44
	str	r0, [sp, #16]
	.loc	20 824 9 is_stmt 1              @ rt-thread/components/net/lwip-2.0.2/src/api/api_lib.c:824:9
	movw	r0, :lower16:lwip_netconn_do_close
	movt	r0, :upper16:lwip_netconn_do_close
	add	r1, sp, #4
	bl	netconn_apimsg
	.loc	20 824 7 is_stmt 0              @ rt-thread/components/net/lwip-2.0.2/src/api/api_lib.c:824:7
	strb.w	r0, [sp, #3]
	.loc	20 827 10 is_stmt 1             @ rt-thread/components/net/lwip-2.0.2/src/api/api_lib.c:827:10
	ldrb.w	r0, [sp, #3]
	.loc	20 827 3 is_stmt 0              @ rt-thread/components/net/lwip-2.0.2/src/api/api_lib.c:827:3
	strb.w	r0, [sp, #39]
	b	.LBB16_7
.LBB16_7:
	.loc	20 828 1 is_stmt 1              @ rt-thread/components/net/lwip-2.0.2/src/api/api_lib.c:828:1
	ldrsb.w	r0, [sp, #39]
	add	sp, #40
	pop	{r7, pc}
.Ltmp343:
.Lfunc_end16:
	.size	netconn_close_shutdown, .Lfunc_end16-netconn_close_shutdown
	.cfi_endproc
	.cantunwind
	.fnend
                                        @ -- End function
	.section	.text.netconn_shutdown,"ax",%progbits
	.hidden	netconn_shutdown                @ -- Begin function netconn_shutdown
	.globl	netconn_shutdown
	.p2align	3
	.type	netconn_shutdown,%function
	.code	16                              @ @netconn_shutdown
	.thumb_func
netconn_shutdown:
.Lfunc_begin17:
	.loc	20 855 0                        @ rt-thread/components/net/lwip-2.0.2/src/api/api_lib.c:855:0
	.fnstart
	.cfi_startproc
@ %bb.0:
	.save	{r7, lr}
	push	{r7, lr}
	.cfi_def_cfa_offset 8
	.cfi_offset lr, -4
	.cfi_offset r7, -8
	.pad	#8
	sub	sp, #8
	.cfi_def_cfa_offset 16
                                        @ kill: def $r3 killed $r2
                                        @ kill: def $r3 killed $r1
	str	r0, [sp, #4]
	strb.w	r1, [sp, #3]
	strb.w	r2, [sp, #2]
.Ltmp344:
	.loc	20 856 33 prologue_end          @ rt-thread/components/net/lwip-2.0.2/src/api/api_lib.c:856:33
	ldr	r0, [sp, #4]
	.loc	20 856 40 is_stmt 0             @ rt-thread/components/net/lwip-2.0.2/src/api/api_lib.c:856:40
	ldrb.w	r3, [sp, #3]
	.loc	20 856 74                       @ rt-thread/components/net/lwip-2.0.2/src/api/api_lib.c:856:74
	ldrb.w	r1, [sp, #2]
	cmp	r1, #0
	it	ne
	movne	r1, #1
	lsls	r1, r1, #1
	.loc	20 856 71                       @ rt-thread/components/net/lwip-2.0.2/src/api/api_lib.c:856:71
	adds	r2, r1, #1
	cmp	r3, #0
	it	ne
	movne	r1, r2
	.loc	20 856 10                       @ rt-thread/components/net/lwip-2.0.2/src/api/api_lib.c:856:10
	bl	netconn_close_shutdown
	.loc	20 856 3                        @ rt-thread/components/net/lwip-2.0.2/src/api/api_lib.c:856:3
	add	sp, #8
	pop	{r7, pc}
.Ltmp345:
.Lfunc_end17:
	.size	netconn_shutdown, .Lfunc_end17-netconn_shutdown
	.cfi_endproc
	.cantunwind
	.fnend
                                        @ -- End function
	.section	.text.netconn_join_leave_group,"ax",%progbits
	.hidden	netconn_join_leave_group        @ -- Begin function netconn_join_leave_group
	.globl	netconn_join_leave_group
	.p2align	3
	.type	netconn_join_leave_group,%function
	.code	16                              @ @netconn_join_leave_group
	.thumb_func
netconn_join_leave_group:
.Lfunc_begin18:
	.loc	20 876 0 is_stmt 1              @ rt-thread/components/net/lwip-2.0.2/src/api/api_lib.c:876:0
	.fnstart
	.cfi_startproc
@ %bb.0:
	.save	{r7, lr}
	push	{r7, lr}
	.cfi_def_cfa_offset 8
	.cfi_offset lr, -4
	.cfi_offset r7, -8
	.pad	#48
	sub	sp, #48
	.cfi_def_cfa_offset 56
                                        @ kill: def $r12 killed $r3
	str	r0, [sp, #40]
	str	r1, [sp, #36]
	str	r2, [sp, #32]
	strb.w	r3, [sp, #31]
.Ltmp346:
	.loc	20 880 3 prologue_end           @ rt-thread/components/net/lwip-2.0.2/src/api/api_lib.c:880:3
	b	.LBB18_1
.LBB18_1:
.Ltmp347:
	.loc	20 880 3 is_stmt 0              @ rt-thread/components/net/lwip-2.0.2/src/api/api_lib.c:880:3
	ldr	r0, [sp, #40]
.Ltmp348:
	.loc	20 880 3                        @ rt-thread/components/net/lwip-2.0.2/src/api/api_lib.c:880:3
	cbnz	r0, .LBB18_5
	b	.LBB18_2
.LBB18_2:
.Ltmp349:
	.loc	20 880 3                        @ rt-thread/components/net/lwip-2.0.2/src/api/api_lib.c:880:3
	b	.LBB18_3
.LBB18_3:
.Ltmp350:
	.loc	20 880 3                        @ rt-thread/components/net/lwip-2.0.2/src/api/api_lib.c:880:3
	movw	r0, :lower16:.L.str.20
	movt	r0, :upper16:.L.str.20
	bl	rt_kprintf
	movw	r0, :lower16:.L.str.1
	movt	r0, :upper16:.L.str.1
	mov.w	r1, #880
	bl	sys_arch_assert
	b	.LBB18_4
.Ltmp351:
.LBB18_4:
	.loc	20 0 3                          @ rt-thread/components/net/lwip-2.0.2/src/api/api_lib.c:0:3
	movs	r0, #240
	.loc	20 880 3                        @ rt-thread/components/net/lwip-2.0.2/src/api/api_lib.c:880:3
	strb.w	r0, [sp, #47]
	b	.LBB18_11
.Ltmp352:
.LBB18_5:
	.loc	20 880 3                        @ rt-thread/components/net/lwip-2.0.2/src/api/api_lib.c:880:3
	b	.LBB18_6
.Ltmp353:
.LBB18_6:
	.loc	20 886 7 is_stmt 1              @ rt-thread/components/net/lwip-2.0.2/src/api/api_lib.c:886:7
	ldr	r0, [sp, #36]
.Ltmp354:
	.loc	20 886 7 is_stmt 0              @ rt-thread/components/net/lwip-2.0.2/src/api/api_lib.c:886:7
	cbnz	r0, .LBB18_8
	b	.LBB18_7
.LBB18_7:
.Ltmp355:
	.loc	20 887 15 is_stmt 1             @ rt-thread/components/net/lwip-2.0.2/src/api/api_lib.c:887:15
	movw	r0, :lower16:ip_addr_any
	movt	r0, :upper16:ip_addr_any
	str	r0, [sp, #36]
	.loc	20 888 3                        @ rt-thread/components/net/lwip-2.0.2/src/api/api_lib.c:888:3
	b	.LBB18_8
.Ltmp356:
.LBB18_8:
	.loc	20 889 7                        @ rt-thread/components/net/lwip-2.0.2/src/api/api_lib.c:889:7
	ldr	r0, [sp, #32]
.Ltmp357:
	.loc	20 889 7 is_stmt 0              @ rt-thread/components/net/lwip-2.0.2/src/api/api_lib.c:889:7
	cbnz	r0, .LBB18_10
	b	.LBB18_9
.LBB18_9:
.Ltmp358:
	.loc	20 890 16 is_stmt 1             @ rt-thread/components/net/lwip-2.0.2/src/api/api_lib.c:890:16
	movw	r0, :lower16:ip_addr_any
	movt	r0, :upper16:ip_addr_any
	str	r0, [sp, #32]
	.loc	20 891 3                        @ rt-thread/components/net/lwip-2.0.2/src/api/api_lib.c:891:3
	b	.LBB18_10
.Ltmp359:
.LBB18_10:
	.loc	20 894 31                       @ rt-thread/components/net/lwip-2.0.2/src/api/api_lib.c:894:31
	ldr	r0, [sp, #40]
	.loc	20 894 29 is_stmt 0             @ rt-thread/components/net/lwip-2.0.2/src/api/api_lib.c:894:29
	str	r0, [sp, #4]
	.loc	20 895 43 is_stmt 1             @ rt-thread/components/net/lwip-2.0.2/src/api/api_lib.c:895:43
	ldr	r0, [sp, #36]
	.loc	20 895 41 is_stmt 0             @ rt-thread/components/net/lwip-2.0.2/src/api/api_lib.c:895:41
	str	r0, [sp, #12]
	.loc	20 896 44 is_stmt 1             @ rt-thread/components/net/lwip-2.0.2/src/api/api_lib.c:896:44
	ldr	r0, [sp, #32]
	.loc	20 896 42 is_stmt 0             @ rt-thread/components/net/lwip-2.0.2/src/api/api_lib.c:896:42
	str	r0, [sp, #16]
	.loc	20 897 47 is_stmt 1             @ rt-thread/components/net/lwip-2.0.2/src/api/api_lib.c:897:47
	ldrb.w	r0, [sp, #31]
	.loc	20 897 45 is_stmt 0             @ rt-thread/components/net/lwip-2.0.2/src/api/api_lib.c:897:45
	strb.w	r0, [sp, #20]
	.loc	20 898 9 is_stmt 1              @ rt-thread/components/net/lwip-2.0.2/src/api/api_lib.c:898:9
	movw	r0, :lower16:lwip_netconn_do_join_leave_group
	movt	r0, :upper16:lwip_netconn_do_join_leave_group
	add	r1, sp, #4
	bl	netconn_apimsg
	.loc	20 898 7 is_stmt 0              @ rt-thread/components/net/lwip-2.0.2/src/api/api_lib.c:898:7
	strb.w	r0, [sp, #3]
	.loc	20 901 10 is_stmt 1             @ rt-thread/components/net/lwip-2.0.2/src/api/api_lib.c:901:10
	ldrb.w	r0, [sp, #3]
	.loc	20 901 3 is_stmt 0              @ rt-thread/components/net/lwip-2.0.2/src/api/api_lib.c:901:3
	strb.w	r0, [sp, #47]
	b	.LBB18_11
.LBB18_11:
	.loc	20 902 1 is_stmt 1              @ rt-thread/components/net/lwip-2.0.2/src/api/api_lib.c:902:1
	ldrsb.w	r0, [sp, #47]
	add	sp, #48
	pop	{r7, pc}
.Ltmp360:
.Lfunc_end18:
	.size	netconn_join_leave_group, .Lfunc_end18-netconn_join_leave_group
	.cfi_endproc
	.cantunwind
	.fnend
                                        @ -- End function
	.section	.text.netconn_gethostbyname,"ax",%progbits
	.hidden	netconn_gethostbyname           @ -- Begin function netconn_gethostbyname
	.globl	netconn_gethostbyname
	.p2align	3
	.type	netconn_gethostbyname,%function
	.code	16                              @ @netconn_gethostbyname
	.thumb_func
netconn_gethostbyname:
.Lfunc_begin19:
	.loc	20 925 0                        @ rt-thread/components/net/lwip-2.0.2/src/api/api_lib.c:925:0
	.fnstart
	.cfi_startproc
@ %bb.0:
	.save	{r7, lr}
	push	{r7, lr}
	.cfi_def_cfa_offset 8
	.cfi_offset lr, -4
	.cfi_offset r7, -8
	.pad	#40
	sub	sp, #40
	.cfi_def_cfa_offset 48
	str	r0, [sp, #32]
	str	r1, [sp, #28]
.Ltmp361:
	.loc	20 933 3 prologue_end           @ rt-thread/components/net/lwip-2.0.2/src/api/api_lib.c:933:3
	b	.LBB19_1
.LBB19_1:
.Ltmp362:
	.loc	20 933 3 is_stmt 0              @ rt-thread/components/net/lwip-2.0.2/src/api/api_lib.c:933:3
	ldr	r0, [sp, #32]
.Ltmp363:
	.loc	20 933 3                        @ rt-thread/components/net/lwip-2.0.2/src/api/api_lib.c:933:3
	cbnz	r0, .LBB19_5
	b	.LBB19_2
.LBB19_2:
.Ltmp364:
	.loc	20 933 3                        @ rt-thread/components/net/lwip-2.0.2/src/api/api_lib.c:933:3
	b	.LBB19_3
.LBB19_3:
.Ltmp365:
	.loc	20 933 3                        @ rt-thread/components/net/lwip-2.0.2/src/api/api_lib.c:933:3
	movw	r0, :lower16:.L.str.21
	movt	r0, :upper16:.L.str.21
	bl	rt_kprintf
	movw	r0, :lower16:.L.str.1
	movt	r0, :upper16:.L.str.1
	movw	r1, #933
	bl	sys_arch_assert
	b	.LBB19_4
.Ltmp366:
.LBB19_4:
	.loc	20 0 3                          @ rt-thread/components/net/lwip-2.0.2/src/api/api_lib.c:0:3
	movs	r0, #240
	.loc	20 933 3                        @ rt-thread/components/net/lwip-2.0.2/src/api/api_lib.c:933:3
	strb.w	r0, [sp, #39]
	b	.LBB19_17
.Ltmp367:
.LBB19_5:
	.loc	20 933 3                        @ rt-thread/components/net/lwip-2.0.2/src/api/api_lib.c:933:3
	b	.LBB19_6
.Ltmp368:
.LBB19_6:
	.loc	20 934 3 is_stmt 1              @ rt-thread/components/net/lwip-2.0.2/src/api/api_lib.c:934:3
	b	.LBB19_7
.LBB19_7:
.Ltmp369:
	.loc	20 934 3 is_stmt 0              @ rt-thread/components/net/lwip-2.0.2/src/api/api_lib.c:934:3
	ldr	r0, [sp, #28]
.Ltmp370:
	.loc	20 934 3                        @ rt-thread/components/net/lwip-2.0.2/src/api/api_lib.c:934:3
	cbnz	r0, .LBB19_11
	b	.LBB19_8
.LBB19_8:
.Ltmp371:
	.loc	20 934 3                        @ rt-thread/components/net/lwip-2.0.2/src/api/api_lib.c:934:3
	b	.LBB19_9
.LBB19_9:
.Ltmp372:
	.loc	20 934 3                        @ rt-thread/components/net/lwip-2.0.2/src/api/api_lib.c:934:3
	movw	r0, :lower16:.L.str.22
	movt	r0, :upper16:.L.str.22
	bl	rt_kprintf
	movw	r0, :lower16:.L.str.1
	movt	r0, :upper16:.L.str.1
	movw	r1, #934
	bl	sys_arch_assert
	b	.LBB19_10
.Ltmp373:
.LBB19_10:
	.loc	20 0 3                          @ rt-thread/components/net/lwip-2.0.2/src/api/api_lib.c:0:3
	movs	r0, #240
	.loc	20 934 3                        @ rt-thread/components/net/lwip-2.0.2/src/api/api_lib.c:934:3
	strb.w	r0, [sp, #39]
	b	.LBB19_17
.Ltmp374:
.LBB19_11:
	.loc	20 934 3                        @ rt-thread/components/net/lwip-2.0.2/src/api/api_lib.c:934:3
	b	.LBB19_12
.Ltmp375:
.LBB19_12:
	.loc	20 0 3                          @ rt-thread/components/net/lwip-2.0.2/src/api/api_lib.c:0:3
	add.w	r0, sp, #7
	.loc	20 946 11 is_stmt 1             @ rt-thread/components/net/lwip-2.0.2/src/api/api_lib.c:946:11
	str	r0, [sp, #24]
	add	r0, sp, #8
	.loc	20 947 11                       @ rt-thread/components/net/lwip-2.0.2/src/api/api_lib.c:947:11
	str	r0, [sp, #20]
	.loc	20 948 27                       @ rt-thread/components/net/lwip-2.0.2/src/api/api_lib.c:948:27
	ldr	r0, [sp, #28]
	.loc	20 948 25 is_stmt 0             @ rt-thread/components/net/lwip-2.0.2/src/api/api_lib.c:948:25
	str	r0, [sp, #16]
	.loc	20 949 27 is_stmt 1             @ rt-thread/components/net/lwip-2.0.2/src/api/api_lib.c:949:27
	ldr	r0, [sp, #32]
	.loc	20 949 25 is_stmt 0             @ rt-thread/components/net/lwip-2.0.2/src/api/api_lib.c:949:25
	str	r0, [sp, #12]
	.loc	20 957 21 is_stmt 1             @ rt-thread/components/net/lwip-2.0.2/src/api/api_lib.c:957:21
	ldr	r0, [sp, #20]
	movs	r1, #0
	.loc	20 957 9 is_stmt 0              @ rt-thread/components/net/lwip-2.0.2/src/api/api_lib.c:957:9
	bl	sys_sem_new
	.loc	20 957 7                        @ rt-thread/components/net/lwip-2.0.2/src/api/api_lib.c:957:7
	strb.w	r0, [sp, #7]
.Ltmp376:
	.loc	20 958 7 is_stmt 1              @ rt-thread/components/net/lwip-2.0.2/src/api/api_lib.c:958:7
	ldrsb.w	r0, [sp, #7]
.Ltmp377:
	.loc	20 958 7 is_stmt 0              @ rt-thread/components/net/lwip-2.0.2/src/api/api_lib.c:958:7
	cbz	r0, .LBB19_14
	b	.LBB19_13
.LBB19_13:
.Ltmp378:
	.loc	20 960 12 is_stmt 1             @ rt-thread/components/net/lwip-2.0.2/src/api/api_lib.c:960:12
	ldrb.w	r0, [sp, #7]
	.loc	20 960 5 is_stmt 0              @ rt-thread/components/net/lwip-2.0.2/src/api/api_lib.c:960:5
	strb.w	r0, [sp, #39]
	b	.LBB19_17
.Ltmp379:
.LBB19_14:
	.loc	20 964 11 is_stmt 1             @ rt-thread/components/net/lwip-2.0.2/src/api/api_lib.c:964:11
	movw	r0, :lower16:lwip_netconn_do_gethostbyname
	movt	r0, :upper16:lwip_netconn_do_gethostbyname
	add	r1, sp, #12
	movs	r2, #1
	bl	tcpip_callback_with_block
	.loc	20 964 9 is_stmt 0              @ rt-thread/components/net/lwip-2.0.2/src/api/api_lib.c:964:9
	strb.w	r0, [sp, #6]
.Ltmp380:
	.loc	20 965 7 is_stmt 1              @ rt-thread/components/net/lwip-2.0.2/src/api/api_lib.c:965:7
	ldrsb.w	r0, [sp, #6]
.Ltmp381:
	.loc	20 965 7 is_stmt 0              @ rt-thread/components/net/lwip-2.0.2/src/api/api_lib.c:965:7
	cbz	r0, .LBB19_16
	b	.LBB19_15
.LBB19_15:
.Ltmp382:
	.loc	20 967 18 is_stmt 1             @ rt-thread/components/net/lwip-2.0.2/src/api/api_lib.c:967:18
	ldr	r0, [sp, #20]
	.loc	20 967 5 is_stmt 0              @ rt-thread/components/net/lwip-2.0.2/src/api/api_lib.c:967:5
	bl	sys_sem_free
	.loc	20 970 12 is_stmt 1             @ rt-thread/components/net/lwip-2.0.2/src/api/api_lib.c:970:12
	ldrb.w	r0, [sp, #6]
	.loc	20 970 5 is_stmt 0              @ rt-thread/components/net/lwip-2.0.2/src/api/api_lib.c:970:5
	strb.w	r0, [sp, #39]
	b	.LBB19_17
.Ltmp383:
.LBB19_16:
	.loc	20 972 3 is_stmt 1              @ rt-thread/components/net/lwip-2.0.2/src/api/api_lib.c:972:3
	ldr	r0, [sp, #20]
	movs	r1, #0
	bl	sys_arch_sem_wait
	.loc	20 974 16                       @ rt-thread/components/net/lwip-2.0.2/src/api/api_lib.c:974:16
	ldr	r0, [sp, #20]
	.loc	20 974 3 is_stmt 0              @ rt-thread/components/net/lwip-2.0.2/src/api/api_lib.c:974:3
	bl	sys_sem_free
	.loc	20 983 10 is_stmt 1             @ rt-thread/components/net/lwip-2.0.2/src/api/api_lib.c:983:10
	ldrb.w	r0, [sp, #7]
	.loc	20 983 3 is_stmt 0              @ rt-thread/components/net/lwip-2.0.2/src/api/api_lib.c:983:3
	strb.w	r0, [sp, #39]
	b	.LBB19_17
.LBB19_17:
	.loc	20 984 1 is_stmt 1              @ rt-thread/components/net/lwip-2.0.2/src/api/api_lib.c:984:1
	ldrsb.w	r0, [sp, #39]
	add	sp, #40
	pop	{r7, pc}
.Ltmp384:
.Lfunc_end19:
	.size	netconn_gethostbyname, .Lfunc_end19-netconn_gethostbyname
	.cfi_endproc
	.cantunwind
	.fnend
                                        @ -- End function
	.type	.L.str,%object                  @ @.str
	.section	.rodata.str1.1,"aMS",%progbits,1
.L.str:
	.asciz	"freeing conn without freeing pcb"
	.size	.L.str, 33

	.type	.L.str.1,%object                @ @.str.1
.L.str.1:
	.asciz	"rt-thread/components/net/lwip-2.0.2/src/api/api_lib.c"
	.size	.L.str.1, 54

	.type	.L.str.2,%object                @ @.str.2
.L.str.2:
	.asciz	"conn has no recvmbox"
	.size	.L.str.2, 21

	.type	.L.str.3,%object                @ @.str.3
.L.str.3:
	.asciz	"conn->acceptmbox shouldn't exist"
	.size	.L.str.3, 33

	.type	.L.str.4,%object                @ @.str.4
.L.str.4:
	.asciz	"conn has no op_completed"
	.size	.L.str.4, 25

	.type	.L.str.5,%object                @ @.str.5
.L.str.5:
	.asciz	"netconn_getaddr: invalid conn"
	.size	.L.str.5, 30

	.type	.L.str.6,%object                @ @.str.6
.L.str.6:
	.asciz	"netconn_getaddr: invalid addr"
	.size	.L.str.6, 30

	.type	.L.str.7,%object                @ @.str.7
.L.str.7:
	.asciz	"netconn_getaddr: invalid port"
	.size	.L.str.7, 30

	.type	.L.str.8,%object                @ @.str.8
.L.str.8:
	.asciz	"netconn_bind: invalid conn"
	.size	.L.str.8, 27

	.type	.L.str.9,%object                @ @.str.9
.L.str.9:
	.asciz	"netconn_connect: invalid conn"
	.size	.L.str.9, 30

	.type	.L.str.10,%object               @ @.str.10
.L.str.10:
	.asciz	"netconn_disconnect: invalid conn"
	.size	.L.str.10, 33

	.type	.L.str.11,%object               @ @.str.11
.L.str.11:
	.asciz	"netconn_listen: invalid conn"
	.size	.L.str.11, 29

	.type	.L.str.12,%object               @ @.str.12
.L.str.12:
	.asciz	"netconn_accept: invalid pointer"
	.size	.L.str.12, 32

	.type	.L.str.13,%object               @ @.str.13
.L.str.13:
	.asciz	"netconn_accept: invalid conn"
	.size	.L.str.13, 29

	.type	.L.str.14,%object               @ @.str.14
.L.str.14:
	.asciz	"netconn_recv: invalid conn"
	.size	.L.str.14, 27

	.type	.L.str.15,%object               @ @.str.15
.L.str.15:
	.asciz	"netconn_recv: invalid pointer"
	.size	.L.str.15, 30

	.type	.L.str.16,%object               @ @.str.16
.L.str.16:
	.asciz	"p != NULL"
	.size	.L.str.16, 10

	.type	.L.str.17,%object               @ @.str.17
.L.str.17:
	.asciz	"netconn_send: invalid conn"
	.size	.L.str.17, 27

	.type	.L.str.18,%object               @ @.str.18
.L.str.18:
	.asciz	"netconn_write: invalid conn"
	.size	.L.str.18, 28

	.type	.L.str.19,%object               @ @.str.19
.L.str.19:
	.asciz	"netconn_write: invalid conn->type"
	.size	.L.str.19, 34

	.type	.L.str.20,%object               @ @.str.20
.L.str.20:
	.asciz	"netconn_join_leave_group: invalid conn"
	.size	.L.str.20, 39

	.type	.L.str.21,%object               @ @.str.21
.L.str.21:
	.asciz	"netconn_gethostbyname: invalid name"
	.size	.L.str.21, 36

	.type	.L.str.22,%object               @ @.str.22
.L.str.22:
	.asciz	"netconn_gethostbyname: invalid addr"
	.size	.L.str.22, 36

	.type	.L.str.23,%object               @ @.str.23
.L.str.23:
	.asciz	"netconn_recv: invalid recvmbox"
	.size	.L.str.23, 31

	.type	.L.str.24,%object               @ @.str.24
.L.str.24:
	.asciz	"buf != NULL"
	.size	.L.str.24, 12

	.type	.L.str.25,%object               @ @.str.25
.L.str.25:
	.asciz	"netconn_close: invalid conn"
	.size	.L.str.25, 28

	.file	21 "E:\\Smart-access-control\\Hardware\\CODE" "./rt-thread/components/net/lwip-2.0.2/src/include\\lwip/tcpip.h"
	.section	".note.GNU-stack","",%progbits
	.eabi_attribute	30, 6	@ Tag_ABI_optimization_goals
	.ARM_attribute	16, 1	@ Tag_AV_eba