	.text
	.syntax unified
	.eabi_attribute	67, "2.09"	@ Tag_conformance
	.cpu	cortex-m7
	.eabi_attribute	6, 13	@ Tag_CPU_arch
	.eabi_attribute	7, 77	@ Tag_CPU_arch_profile
	.eabi_attribute	8, 0	@ Tag_ARM_ISA_use
	.eabi_attribute	9, 2	@ Tag_THUMB_ISA_use
	.fpu	fpv5-d16
	.eabi_attribute	36, 1	@ Tag_FP_HP_extension
	.eabi_attribute	34, 1	@ Tag_CPU_unaligned_access
	.eabi_attribute	17, 1	@ Tag_ABI_PCS_GOT_use
	.eabi_attribute	20, 2	@ Tag_ABI_FP_denormal
	.eabi_attribute	21, 0	@ Tag_ABI_FP_exceptions
	.eabi_attribute	23, 1	@ Tag_ABI_FP_number_model
	.eabi_attribute	24, 1	@ Tag_ABI_align_needed
	.eabi_attribute	25, 1	@ Tag_ABI_align_preserved
	.eabi_attribute	28, 1	@ Tag_ABI_VFP_args
	.eabi_attribute	38, 1	@ Tag_ABI_FP_16bit_format
	.eabi_attribute	18, 2	@ Tag_ABI_PCS_wchar_t
	.eabi_attribute	26, 1	@ Tag_ABI_enum_size
	.eabi_attribute	14, 0	@ Tag_ABI_PCS_R9_use
	.file	"backtrace.c"
	.file	1 "E:\\Smart-access-control\\Hardware\\CODE" "rt-thread/include\\rtdef.h"
	.section	.text.rt_hw_backtrace,"ax",%progbits
	.hidden	rt_hw_backtrace                 @ -- Begin function rt_hw_backtrace
	.globl	rt_hw_backtrace
	.p2align	3
	.type	rt_hw_backtrace,%function
	.code	16                              @ @rt_hw_backtrace
	.thumb_func
rt_hw_backtrace:
.Lfunc_begin0:
	.file	2 "E:\\Smart-access-control\\Hardware\\CODE" "rt-thread/libcpu/arm/common/backtrace.c"
	.loc	2 33 0                          @ rt-thread/libcpu/arm/common/backtrace.c:33:0
	.fnstart
	.cfi_sections .debug_frame
	.cfi_startproc
@ %bb.0:
	.save	{r7, lr}
	push	{r7, lr}
	.cfi_def_cfa_offset 8
	.cfi_offset lr, -4
	.cfi_offset r7, -8
	.pad	#24
	sub	sp, #24
	.cfi_def_cfa_offset 32
	str	r0, [sp, #20]
	str	r1, [sp, #16]
.Ltmp0:
	.loc	2 36 11 prologue_end            @ rt-thread/libcpu/arm/common/backtrace.c:36:11
	ldr	r0, [sp, #20]
	.loc	2 36 10 is_stmt 0               @ rt-thread/libcpu/arm/common/backtrace.c:36:10
	ldr	r0, [r0]
	.loc	2 36 8                          @ rt-thread/libcpu/arm/common/backtrace.c:36:8
	str	r0, [sp, #8]
	.loc	2 37 28 is_stmt 1               @ rt-thread/libcpu/arm/common/backtrace.c:37:28
	ldr	r0, [sp, #8]
	.loc	2 37 30 is_stmt 0               @ rt-thread/libcpu/arm/common/backtrace.c:37:30
	sub.w	r1, r0, #12
	.loc	2 37 5                          @ rt-thread/libcpu/arm/common/backtrace.c:37:5
	movw	r0, :lower16:.L.str
	movt	r0, :upper16:.L.str
	bl	rt_kprintf
	movs	r0, #0
.Ltmp1:
	.loc	2 39 10 is_stmt 1               @ rt-thread/libcpu/arm/common/backtrace.c:39:10
	str	r0, [sp, #12]
	.loc	2 39 9 is_stmt 0                @ rt-thread/libcpu/arm/common/backtrace.c:39:9
	b	.LBB0_1
.LBB0_1:                                @ =>This Inner Loop Header: Depth=1
.Ltmp2:
	.loc	2 39 14                         @ rt-thread/libcpu/arm/common/backtrace.c:39:14
	ldr	r0, [sp, #12]
.Ltmp3:
	.loc	2 39 5                          @ rt-thread/libcpu/arm/common/backtrace.c:39:5
	cmp	r0, #9
	bhi	.LBB0_8
	b	.LBB0_2
.LBB0_2:                                @   in Loop: Header=BB0_1 Depth=1
.Ltmp4:
	.loc	2 41 31 is_stmt 1               @ rt-thread/libcpu/arm/common/backtrace.c:41:31
	ldr	r0, [sp, #20]
	.loc	2 41 29 is_stmt 0               @ rt-thread/libcpu/arm/common/backtrace.c:41:29
	ldr	r0, [r0, #-12]
	.loc	2 41 12                         @ rt-thread/libcpu/arm/common/backtrace.c:41:12
	str	r0, [sp, #20]
	.loc	2 42 15 is_stmt 1               @ rt-thread/libcpu/arm/common/backtrace.c:42:15
	ldr	r0, [sp, #20]
	.loc	2 42 14 is_stmt 0               @ rt-thread/libcpu/arm/common/backtrace.c:42:14
	ldr	r0, [r0]
	.loc	2 42 12                         @ rt-thread/libcpu/arm/common/backtrace.c:42:12
	str	r0, [sp, #8]
	.loc	2 44 22 is_stmt 1               @ rt-thread/libcpu/arm/common/backtrace.c:44:22
	ldr	r0, [sp, #8]
	.loc	2 44 25 is_stmt 0               @ rt-thread/libcpu/arm/common/backtrace.c:44:25
	subs	r0, #12
	.loc	2 44 20                         @ rt-thread/libcpu/arm/common/backtrace.c:44:20
	str	r0, [sp, #4]
.Ltmp5:
	.loc	2 46 12 is_stmt 1               @ rt-thread/libcpu/arm/common/backtrace.c:46:12
	ldr	r0, [sp, #4]
.Ltmp6:
	.loc	2 46 12 is_stmt 0               @ rt-thread/libcpu/arm/common/backtrace.c:46:12
	cmp.w	r0, #805306368
	bhi	.LBB0_4
	b	.LBB0_3
.LBB0_3:
.Ltmp7:
	.loc	2 46 38                         @ rt-thread/libcpu/arm/common/backtrace.c:46:38
	b	.LBB0_8
.Ltmp8:
.LBB0_4:                                @   in Loop: Header=BB0_1 Depth=1
	.loc	2 48 12 is_stmt 1               @ rt-thread/libcpu/arm/common/backtrace.c:48:12
	ldr	r0, [sp, #4]
	.loc	2 48 26 is_stmt 0               @ rt-thread/libcpu/arm/common/backtrace.c:48:26
	ldr	r1, [sp, #16]
.Ltmp9:
	.loc	2 48 12                         @ rt-thread/libcpu/arm/common/backtrace.c:48:12
	cmp	r0, r1
	bne	.LBB0_6
	b	.LBB0_5
.LBB0_5:
.Ltmp10:
	.loc	2 50 45 is_stmt 1               @ rt-thread/libcpu/arm/common/backtrace.c:50:45
	ldr	r1, [sp, #4]
	.loc	2 50 13 is_stmt 0               @ rt-thread/libcpu/arm/common/backtrace.c:50:13
	movw	r0, :lower16:.L.str.1
	movt	r0, :upper16:.L.str.1
	bl	rt_kprintf
	.loc	2 52 13 is_stmt 1               @ rt-thread/libcpu/arm/common/backtrace.c:52:13
	b	.LBB0_8
.Ltmp11:
.LBB0_6:                                @   in Loop: Header=BB0_1 Depth=1
	.loc	2 55 32                         @ rt-thread/libcpu/arm/common/backtrace.c:55:32
	ldr	r1, [sp, #4]
	.loc	2 55 9 is_stmt 0                @ rt-thread/libcpu/arm/common/backtrace.c:55:9
	movw	r0, :lower16:.L.str
	movt	r0, :upper16:.L.str
	bl	rt_kprintf
	.loc	2 56 5 is_stmt 1                @ rt-thread/libcpu/arm/common/backtrace.c:56:5
	b	.LBB0_7
.Ltmp12:
.LBB0_7:                                @   in Loop: Header=BB0_1 Depth=1
	.loc	2 39 21                         @ rt-thread/libcpu/arm/common/backtrace.c:39:21
	ldr	r0, [sp, #12]
	adds	r0, #1
	str	r0, [sp, #12]
	.loc	2 39 5 is_stmt 0                @ rt-thread/libcpu/arm/common/backtrace.c:39:5
	b	.LBB0_1
.Ltmp13:
.LBB0_8:
	.loc	2 57 1 is_stmt 1                @ rt-thread/libcpu/arm/common/backtrace.c:57:1
	add	sp, #24
	pop	{r7, pc}
.Ltmp14:
.Lfunc_end0:
	.size	rt_hw_backtrace, .Lfunc_end0-rt_hw_backtrace
	.cfi_endproc
	.cantunwind
	.fnend
                                        @ -- End function
	.type	.L.str,%object                  @ @.str
	.section	.rodata.str1.1,"aMS",%progbits,1
.L.str:
	.asciz	"[0x%x]\n"
	.size	.L.str, 8

	.type	.L.str.1,%object                @ @.str.1
.L.str.1:
	.asciz	"EntryPoint:0x%x\n"
	.size	.L.str.1, 17

	.section	".note.GNU-stack","",%progbits
	.eabi_attribute	30, 6	@ Tag_ABI_optimization_goals
	.ARM_attribute	16, 1	@ Tag_AV_eba