	.text
	.syntax unified
	.eabi_attribute	67, "2.09"	@ Tag_conformance
	.cpu	cortex-m7
	.eabi_attribute	6, 13	@ Tag_CPU_arch
	.eabi_attribute	7, 77	@ Tag_CPU_arch_profile
	.eabi_attribute	8, 0	@ Tag_ARM_ISA_use
	.eabi_attribute	9, 2	@ Tag_THUMB_ISA_use
	.fpu	fpv5-d16
	.eabi_attribute	36, 1	@ Tag_FP_HP_extension
	.eabi_attribute	34, 1	@ Tag_CPU_unaligned_access
	.eabi_attribute	17, 1	@ Tag_ABI_PCS_GOT_use
	.eabi_attribute	20, 2	@ Tag_ABI_FP_denormal
	.eabi_attribute	21, 0	@ Tag_ABI_FP_exceptions
	.eabi_attribute	23, 1	@ Tag_ABI_FP_number_model
	.eabi_attribute	24, 1	@ Tag_ABI_align_needed
	.eabi_attribute	25, 1	@ Tag_ABI_align_preserved
	.eabi_attribute	28, 1	@ Tag_ABI_VFP_args
	.eabi_attribute	38, 1	@ Tag_ABI_FP_16bit_format
	.eabi_attribute	18, 2	@ Tag_ABI_PCS_wchar_t
	.eabi_attribute	26, 1	@ Tag_ABI_enum_size
	.eabi_attribute	14, 0	@ Tag_ABI_PCS_R9_use
	.file	"block_dev.c"
	.file	1 "E:\\Smart-access-control\\Hardware\\CODE" "rt-thread/include\\rtdef.h"
	.file	2 "E:\\Smart-access-control\\Hardware\\CODE" "rt-thread/components/drivers/sdio/block_dev.c"
	.file	3 "E:\\Smart-access-control\\Hardware\\CODE" "rt-thread/components/drivers/include\\drivers/mmcsd_host.h"
	.file	4 "E:\\Smart-access-control\\Hardware\\CODE" "rt-thread/components/drivers/include\\drivers/mmcsd_core.h"
	.file	5 "E:\\Smart-access-control\\Hardware\\CODE" "rt-thread/components/drivers/include\\drivers/mmcsd_card.h"
	.file	6 "D:\\Keil_v5\\ARM\\ARMCLANG\\Bin\\..\\include" "stdint.h"
	.file	7 "E:\\Smart-access-control\\Hardware\\CODE" "rt-thread/components/dfs/include\\dfs_fs.h"
	.file	8 "E:\\Smart-access-control\\Hardware\\CODE" "rt-thread/include/rtlibc.h"
	.file	9 "D:\\Keil_v5\\ARM\\ARMCLANG\\Bin\\..\\include" "time.h"
	.section	.text.mmcsd_num_wr_blocks,"ax",%progbits
	.hidden	mmcsd_num_wr_blocks             @ -- Begin function mmcsd_num_wr_blocks
	.globl	mmcsd_num_wr_blocks
	.p2align	3
	.type	mmcsd_num_wr_blocks,%function
	.code	16                              @ @mmcsd_num_wr_blocks
	.thumb_func
mmcsd_num_wr_blocks:
.Lfunc_begin0:
	.loc	2 43 0                          @ rt-thread/components/drivers/sdio/block_dev.c:43:0
	.fnstart
	.cfi_sections .debug_frame
	.cfi_startproc
@ %bb.0:
	.save	{r7, lr}
	push	{r7, lr}
	.cfi_def_cfa_offset 8
	.cfi_offset lr, -4
	.cfi_offset r7, -8
	.pad	#136
	sub	sp, #136
	.cfi_def_cfa_offset 144
	str	r0, [sp, #128]
	add	r0, sp, #64
	str	r0, [sp, #12]                   @ 4-byte Spill
	movs	r1, #0
	str	r1, [sp, #16]                   @ 4-byte Spill
	movs	r2, #44
.Ltmp0:
	.loc	2 52 5 prologue_end             @ rt-thread/components/drivers/sdio/block_dev.c:52:5
	bl	rt_memset
	ldr	r1, [sp, #12]                   @ 4-byte Reload
	ldr	r2, [sp, #16]                   @ 4-byte Reload
	movs	r0, #55
	.loc	2 54 18                         @ rt-thread/components/drivers/sdio/block_dev.c:54:18
	str	r0, [sp, #64]
	.loc	2 55 15                         @ rt-thread/components/drivers/sdio/block_dev.c:55:15
	ldr	r0, [sp, #128]
	.loc	2 55 21 is_stmt 0               @ rt-thread/components/drivers/sdio/block_dev.c:55:21
	ldr	r0, [r0, #4]
	.loc	2 55 25                         @ rt-thread/components/drivers/sdio/block_dev.c:55:25
	lsls	r0, r0, #16
	.loc	2 55 13                         @ rt-thread/components/drivers/sdio/block_dev.c:55:13
	str	r0, [sp, #68]
	movs	r0, #65
	.loc	2 56 15 is_stmt 1               @ rt-thread/components/drivers/sdio/block_dev.c:56:15
	str	r0, [sp, #88]
	.loc	2 58 26                         @ rt-thread/components/drivers/sdio/block_dev.c:58:26
	ldr	r0, [sp, #128]
	.loc	2 58 32 is_stmt 0               @ rt-thread/components/drivers/sdio/block_dev.c:58:32
	ldr	r0, [r0]
	.loc	2 58 11                         @ rt-thread/components/drivers/sdio/block_dev.c:58:11
	bl	mmcsd_send_cmd
	.loc	2 58 9                          @ rt-thread/components/drivers/sdio/block_dev.c:58:9
	str	r0, [sp, #124]
.Ltmp1:
	.loc	2 59 9 is_stmt 1                @ rt-thread/components/drivers/sdio/block_dev.c:59:9
	ldr	r0, [sp, #124]
.Ltmp2:
	.loc	2 59 9 is_stmt 0                @ rt-thread/components/drivers/sdio/block_dev.c:59:9
	cbz	r0, .LBB0_2
	b	.LBB0_1
.LBB0_1:
	.loc	2 0 9                           @ rt-thread/components/drivers/sdio/block_dev.c:0:9
	mov.w	r0, #-1
.Ltmp3:
	.loc	2 60 9 is_stmt 1                @ rt-thread/components/drivers/sdio/block_dev.c:60:9
	str	r0, [sp, #132]
	b	.LBB0_11
.Ltmp4:
.LBB0_2:
	.loc	2 61 10                         @ rt-thread/components/drivers/sdio/block_dev.c:61:10
	ldr	r0, [sp, #128]
	ldr	r0, [r0]
	.loc	2 61 40 is_stmt 0               @ rt-thread/components/drivers/sdio/block_dev.c:61:40
	ldrb.w	r0, [r0, #32]
	lsls	r0, r0, #28
	cmp	r0, #0
	bmi	.LBB0_5
	b	.LBB0_3
.Ltmp5:
.LBB0_3:
	.loc	2 61 9                          @ rt-thread/components/drivers/sdio/block_dev.c:61:9
	ldrb.w	r0, [sp, #72]
	lsls	r0, r0, #26
	cmp	r0, #0
	bmi	.LBB0_5
	b	.LBB0_4
.LBB0_4:
	.loc	2 0 9                           @ rt-thread/components/drivers/sdio/block_dev.c:0:9
	mov.w	r0, #-1
.Ltmp6:
	.loc	2 62 9 is_stmt 1                @ rt-thread/components/drivers/sdio/block_dev.c:62:9
	str	r0, [sp, #132]
	b	.LBB0_11
.Ltmp7:
.LBB0_5:
	.loc	2 0 9 is_stmt 0                 @ rt-thread/components/drivers/sdio/block_dev.c:0:9
	add	r0, sp, #64
	movs	r1, #0
	str	r1, [sp, #8]                    @ 4-byte Spill
	movs	r2, #44
	.loc	2 64 5 is_stmt 1                @ rt-thread/components/drivers/sdio/block_dev.c:64:5
	bl	rt_memset
	ldr	r1, [sp, #8]                    @ 4-byte Reload
	movs	r0, #22
	.loc	2 66 18                         @ rt-thread/components/drivers/sdio/block_dev.c:66:18
	str	r0, [sp, #64]
	.loc	2 67 13                         @ rt-thread/components/drivers/sdio/block_dev.c:67:13
	str	r1, [sp, #68]
	movs	r0, #81
	.loc	2 68 15                         @ rt-thread/components/drivers/sdio/block_dev.c:68:15
	str	r0, [sp, #88]
	add	r0, sp, #24
	movs	r2, #40
	.loc	2 70 5                          @ rt-thread/components/drivers/sdio/block_dev.c:70:5
	bl	rt_memset
	.loc	2 72 23                         @ rt-thread/components/drivers/sdio/block_dev.c:72:23
	ldr	r0, [sp, #128]
	.loc	2 72 29 is_stmt 0               @ rt-thread/components/drivers/sdio/block_dev.c:72:29
	ldr	r0, [r0, #52]
	movs	r1, #100
	.loc	2 72 37                         @ rt-thread/components/drivers/sdio/block_dev.c:72:37
	muls	r0, r1, r0
	.loc	2 72 21                         @ rt-thread/components/drivers/sdio/block_dev.c:72:21
	str	r0, [sp, #56]
	.loc	2 73 25 is_stmt 1               @ rt-thread/components/drivers/sdio/block_dev.c:73:25
	ldr	r0, [sp, #128]
	.loc	2 73 31 is_stmt 0               @ rt-thread/components/drivers/sdio/block_dev.c:73:31
	ldrh	r0, [r0, #48]
	.loc	2 73 41                         @ rt-thread/components/drivers/sdio/block_dev.c:73:41
	muls	r0, r1, r0
	.loc	2 73 23                         @ rt-thread/components/drivers/sdio/block_dev.c:73:23
	str	r0, [sp, #60]
	.loc	2 75 23 is_stmt 1               @ rt-thread/components/drivers/sdio/block_dev.c:75:23
	ldr	r0, [sp, #56]
	movw	r2, #19923
	movt	r2, #4194
	.loc	2 75 34 is_stmt 0               @ rt-thread/components/drivers/sdio/block_dev.c:75:34
	umull	r1, r0, r0, r2
	lsrs	r0, r0, #6
	.loc	2 75 16                         @ rt-thread/components/drivers/sdio/block_dev.c:75:16
	str	r0, [sp, #20]
	.loc	2 76 24 is_stmt 1               @ rt-thread/components/drivers/sdio/block_dev.c:76:24
	ldr	r0, [sp, #60]
	mov.w	r1, #1000
	.loc	2 76 37 is_stmt 0               @ rt-thread/components/drivers/sdio/block_dev.c:76:37
	muls	r0, r1, r0
	.loc	2 77 10 is_stmt 1               @ rt-thread/components/drivers/sdio/block_dev.c:77:10
	ldr	r1, [sp, #128]
	.loc	2 77 16 is_stmt 0               @ rt-thread/components/drivers/sdio/block_dev.c:77:16
	ldr	r1, [r1]
	.loc	2 77 29                         @ rt-thread/components/drivers/sdio/block_dev.c:77:29
	ldr	r1, [r1, #16]
	.loc	2 77 35                         @ rt-thread/components/drivers/sdio/block_dev.c:77:35
	umull	r2, r1, r1, r2
	lsrs	r1, r1, #6
	.loc	2 76 44 is_stmt 1               @ rt-thread/components/drivers/sdio/block_dev.c:76:44
	udiv	r1, r0, r1
	.loc	2 76 16 is_stmt 0               @ rt-thread/components/drivers/sdio/block_dev.c:76:16
	ldr	r0, [sp, #20]
	add	r0, r1
	str	r0, [sp, #20]
.Ltmp8:
	.loc	2 79 9 is_stmt 1                @ rt-thread/components/drivers/sdio/block_dev.c:79:9
	ldr	r0, [sp, #20]
	movw	r1, #34465
	movt	r1, #1
.Ltmp9:
	.loc	2 79 9 is_stmt 0                @ rt-thread/components/drivers/sdio/block_dev.c:79:9
	cmp	r0, r1
	blo	.LBB0_7
	b	.LBB0_6
.LBB0_6:
	.loc	2 0 9                           @ rt-thread/components/drivers/sdio/block_dev.c:0:9
	movw	r0, #57600
	movt	r0, #1525
.Ltmp10:
	.loc	2 81 25 is_stmt 1               @ rt-thread/components/drivers/sdio/block_dev.c:81:25
	str	r0, [sp, #56]
	movs	r0, #0
	.loc	2 82 27                         @ rt-thread/components/drivers/sdio/block_dev.c:82:27
	str	r0, [sp, #60]
	.loc	2 83 5                          @ rt-thread/components/drivers/sdio/block_dev.c:83:5
	b	.LBB0_7
.Ltmp11:
.LBB0_7:
	.loc	2 0 5 is_stmt 0                 @ rt-thread/components/drivers/sdio/block_dev.c:0:5
	movs	r0, #4
	.loc	2 85 18 is_stmt 1               @ rt-thread/components/drivers/sdio/block_dev.c:85:18
	str	r0, [sp, #24]
	movs	r0, #1
	.loc	2 86 15                         @ rt-thread/components/drivers/sdio/block_dev.c:86:15
	str	r0, [sp, #28]
	movs	r0, #2
	.loc	2 87 16                         @ rt-thread/components/drivers/sdio/block_dev.c:87:16
	str	r0, [sp, #40]
	add	r0, sp, #120
	.loc	2 88 14                         @ rt-thread/components/drivers/sdio/block_dev.c:88:14
	str	r0, [sp, #32]
	add	r0, sp, #108
	str	r0, [sp, #4]                    @ 4-byte Spill
	movs	r1, #0
	movs	r2, #12
	.loc	2 90 5                          @ rt-thread/components/drivers/sdio/block_dev.c:90:5
	bl	rt_memset
	ldr	r1, [sp, #4]                    @ 4-byte Reload
	add	r0, sp, #64
	.loc	2 92 13                         @ rt-thread/components/drivers/sdio/block_dev.c:92:13
	str	r0, [sp, #112]
	add	r0, sp, #24
	.loc	2 93 14                         @ rt-thread/components/drivers/sdio/block_dev.c:93:14
	str	r0, [sp, #108]
	.loc	2 95 24                         @ rt-thread/components/drivers/sdio/block_dev.c:95:24
	ldr	r0, [sp, #128]
	.loc	2 95 30 is_stmt 0               @ rt-thread/components/drivers/sdio/block_dev.c:95:30
	ldr	r0, [r0]
	.loc	2 95 5                          @ rt-thread/components/drivers/sdio/block_dev.c:95:5
	bl	mmcsd_send_request
.Ltmp12:
	.loc	2 97 13 is_stmt 1               @ rt-thread/components/drivers/sdio/block_dev.c:97:13
	ldr	r0, [sp, #96]
	.loc	2 97 17 is_stmt 0               @ rt-thread/components/drivers/sdio/block_dev.c:97:17
	cbnz	r0, .LBB0_9
	b	.LBB0_8
.LBB0_8:
	.loc	2 97 25                         @ rt-thread/components/drivers/sdio/block_dev.c:97:25
	ldr	r0, [sp, #36]
.Ltmp13:
	.loc	2 97 9                          @ rt-thread/components/drivers/sdio/block_dev.c:97:9
	cbz	r0, .LBB0_10
	b	.LBB0_9
.LBB0_9:
	.loc	2 0 9                           @ rt-thread/components/drivers/sdio/block_dev.c:0:9
	mov.w	r0, #-1
.Ltmp14:
	.loc	2 98 9 is_stmt 1                @ rt-thread/components/drivers/sdio/block_dev.c:98:9
	str	r0, [sp, #132]
	b	.LBB0_11
.Ltmp15:
.LBB0_10:
	.loc	2 100 12                        @ rt-thread/components/drivers/sdio/block_dev.c:100:12
	ldr	r0, [sp, #120]
	.loc	2 100 5 is_stmt 0               @ rt-thread/components/drivers/sdio/block_dev.c:100:5
	str	r0, [sp, #132]
	b	.LBB0_11
.LBB0_11:
	.loc	2 101 1 is_stmt 1               @ rt-thread/components/drivers/sdio/block_dev.c:101:1
	ldr	r0, [sp, #132]
	add	sp, #136
	pop	{r7, pc}
.Ltmp16:
.Lfunc_end0:
	.size	mmcsd_num_wr_blocks, .Lfunc_end0-mmcsd_num_wr_blocks
	.cfi_endproc
	.cantunwind
	.fnend
                                        @ -- End function
	.section	.text.rt_mmcsd_blk_probe,"ax",%progbits
	.hidden	rt_mmcsd_blk_probe              @ -- Begin function rt_mmcsd_blk_probe
	.globl	rt_mmcsd_blk_probe
	.p2align	3
	.type	rt_mmcsd_blk_probe,%function
	.code	16                              @ @rt_mmcsd_blk_probe
	.thumb_func
rt_mmcsd_blk_probe:
.Lfunc_begin1:
	.loc	2 356 0                         @ rt-thread/components/drivers/sdio/block_dev.c:356:0
	.fnstart
	.cfi_startproc
@ %bb.0:
	.save	{r7, lr}
	push	{r7, lr}
	.cfi_def_cfa_offset 8
	.cfi_offset lr, -4
	.cfi_offset r7, -8
	.pad	#64
	sub	sp, #64
	.cfi_def_cfa_offset 72
	str	r0, [sp, #56]
	movs	r0, #0
.Ltmp17:
	.loc	2 357 16 prologue_end           @ rt-thread/components/drivers/sdio/block_dev.c:357:16
	str	r0, [sp, #52]
	.loc	2 362 30                        @ rt-thread/components/drivers/sdio/block_dev.c:362:30
	str	r0, [sp, #28]
	.loc	2 364 29                        @ rt-thread/components/drivers/sdio/block_dev.c:364:29
	ldr	r0, [sp, #56]
	.loc	2 364 11 is_stmt 0              @ rt-thread/components/drivers/sdio/block_dev.c:364:11
	bl	mmcsd_set_blksize
	.loc	2 364 9                         @ rt-thread/components/drivers/sdio/block_dev.c:364:9
	str	r0, [sp, #52]
.Ltmp18:
	.loc	2 365 8 is_stmt 1               @ rt-thread/components/drivers/sdio/block_dev.c:365:8
	ldr	r0, [sp, #52]
.Ltmp19:
	.loc	2 365 8 is_stmt 0               @ rt-thread/components/drivers/sdio/block_dev.c:365:8
	cbz	r0, .LBB1_2
	b	.LBB1_1
.LBB1_1:
.Ltmp20:
	.loc	2 367 16 is_stmt 1              @ rt-thread/components/drivers/sdio/block_dev.c:367:16
	ldr	r0, [sp, #52]
	.loc	2 367 9 is_stmt 0               @ rt-thread/components/drivers/sdio/block_dev.c:367:9
	str	r0, [sp, #60]
	b	.LBB1_29
.Ltmp21:
.LBB1_2:
	.loc	2 0 9                           @ rt-thread/components/drivers/sdio/block_dev.c:0:9
	mov.w	r0, #512
	.loc	2 373 28 is_stmt 1              @ rt-thread/components/drivers/sdio/block_dev.c:373:28
	bl	rt_malloc
	.loc	2 373 12 is_stmt 0              @ rt-thread/components/drivers/sdio/block_dev.c:373:12
	str	r0, [sp, #44]
.Ltmp22:
	.loc	2 374 9 is_stmt 1               @ rt-thread/components/drivers/sdio/block_dev.c:374:9
	ldr	r0, [sp, #44]
.Ltmp23:
	.loc	2 374 9 is_stmt 0               @ rt-thread/components/drivers/sdio/block_dev.c:374:9
	cbnz	r0, .LBB1_6
	b	.LBB1_3
.LBB1_3:
.Ltmp24:
	.loc	2 376 9 is_stmt 1               @ rt-thread/components/drivers/sdio/block_dev.c:376:9
	b	.LBB1_4
.LBB1_4:
.Ltmp25:
	.loc	2 376 9 is_stmt 0               @ rt-thread/components/drivers/sdio/block_dev.c:376:9
	movw	r0, :lower16:.L.str
	movt	r0, :upper16:.L.str
	bl	rt_kprintf
	movw	r0, :lower16:.L.str.1
	movt	r0, :upper16:.L.str.1
	bl	rt_kprintf
	movw	r0, :lower16:.L.str.2
	movt	r0, :upper16:.L.str.2
	bl	rt_kprintf
	b	.LBB1_5
.Ltmp26:
.LBB1_5:
	.loc	2 0 9                           @ rt-thread/components/drivers/sdio/block_dev.c:0:9
	mvn	r0, #4
	.loc	2 378 9 is_stmt 1               @ rt-thread/components/drivers/sdio/block_dev.c:378:9
	str	r0, [sp, #60]
	b	.LBB1_29
.Ltmp27:
.LBB1_6:
	.loc	2 381 31                        @ rt-thread/components/drivers/sdio/block_dev.c:381:31
	ldr	r0, [sp, #56]
	.loc	2 381 40 is_stmt 0              @ rt-thread/components/drivers/sdio/block_dev.c:381:40
	ldr	r2, [sp, #44]
	.loc	2 381 14                        @ rt-thread/components/drivers/sdio/block_dev.c:381:14
	mov	r3, sp
	movs	r1, #0
	str	r1, [r3]
	movs	r3, #1
	bl	rt_mmcsd_req_blk
	.loc	2 381 12                        @ rt-thread/components/drivers/sdio/block_dev.c:381:12
	strb.w	r0, [sp, #50]
.Ltmp28:
	.loc	2 382 9 is_stmt 1               @ rt-thread/components/drivers/sdio/block_dev.c:382:9
	ldrb.w	r0, [sp, #50]
.Ltmp29:
	.loc	2 382 9 is_stmt 0               @ rt-thread/components/drivers/sdio/block_dev.c:382:9
	cmp	r0, #0
	bne.w	.LBB1_25
	b	.LBB1_7
.LBB1_7:
	.loc	2 0 9                           @ rt-thread/components/drivers/sdio/block_dev.c:0:9
	movs	r0, #0
.Ltmp30:
	.loc	2 384 16 is_stmt 1              @ rt-thread/components/drivers/sdio/block_dev.c:384:16
	strb.w	r0, [sp, #51]
	.loc	2 384 14 is_stmt 0              @ rt-thread/components/drivers/sdio/block_dev.c:384:14
	b	.LBB1_8
.LBB1_8:                                @ =>This Inner Loop Header: Depth=1
.Ltmp31:
	.loc	2 384 21                        @ rt-thread/components/drivers/sdio/block_dev.c:384:21
	ldrb.w	r0, [sp, #51]
.Ltmp32:
	.loc	2 384 9                         @ rt-thread/components/drivers/sdio/block_dev.c:384:9
	cmp	r0, #15
	bgt.w	.LBB1_24
	b	.LBB1_9
.LBB1_9:                                @   in Loop: Header=BB1_8 Depth=1
	.loc	2 0 9                           @ rt-thread/components/drivers/sdio/block_dev.c:0:9
	movs	r0, #1
	movs	r1, #124
.Ltmp33:
	.loc	2 386 23 is_stmt 1              @ rt-thread/components/drivers/sdio/block_dev.c:386:23
	bl	rt_calloc
	.loc	2 386 21 is_stmt 0              @ rt-thread/components/drivers/sdio/block_dev.c:386:21
	str	r0, [sp, #28]
.Ltmp34:
	.loc	2 387 18 is_stmt 1              @ rt-thread/components/drivers/sdio/block_dev.c:387:18
	ldr	r0, [sp, #28]
.Ltmp35:
	.loc	2 387 17 is_stmt 0              @ rt-thread/components/drivers/sdio/block_dev.c:387:17
	cbnz	r0, .LBB1_13
	b	.LBB1_10
.LBB1_10:
.Ltmp36:
	.loc	2 389 17 is_stmt 1              @ rt-thread/components/drivers/sdio/block_dev.c:389:17
	b	.LBB1_11
.LBB1_11:
.Ltmp37:
	.loc	2 389 17 is_stmt 0              @ rt-thread/components/drivers/sdio/block_dev.c:389:17
	movw	r0, :lower16:.L.str
	movt	r0, :upper16:.L.str
	bl	rt_kprintf
	movw	r0, :lower16:.L.str.3
	movt	r0, :upper16:.L.str.3
	bl	rt_kprintf
	movw	r0, :lower16:.L.str.2
	movt	r0, :upper16:.L.str.2
	bl	rt_kprintf
	b	.LBB1_12
.Ltmp38:
.LBB1_12:
	.loc	2 390 17 is_stmt 1              @ rt-thread/components/drivers/sdio/block_dev.c:390:17
	b	.LBB1_24
.Ltmp39:
.LBB1_13:                               @   in Loop: Header=BB1_8 Depth=1
	.loc	2 393 37                        @ rt-thread/components/drivers/sdio/block_dev.c:393:37
	ldr	r0, [sp, #56]
	ldr	r1, [r0]
	ldr	r3, [r1, #36]
	ldr	r0, [r1, #40]
	ldr	r2, [r1, #44]
	ldr	r1, [r1, #48]
	muls	r0, r3, r0
	lsrs	r0, r0, #9
	muls	r1, r2, r1
	cmp.w	r0, r1, lsr #9
	bhs	.LBB1_15
	b	.LBB1_14
.LBB1_14:                               @   in Loop: Header=BB1_8 Depth=1
	ldr	r0, [sp, #56]
	ldr	r0, [r0]
	ldr	r1, [r0, #36]
	ldr	r0, [r0, #40]
	muls	r0, r1, r0
	lsrs	r0, r0, #9
	str	r0, [sp, #24]                   @ 4-byte Spill
	b	.LBB1_16
.LBB1_15:                               @   in Loop: Header=BB1_8 Depth=1
	ldr	r0, [sp, #56]
	ldr	r0, [r0]
	ldr	r1, [r0, #44]
	ldr	r0, [r0, #48]
	muls	r0, r1, r0
	lsrs	r0, r0, #9
	str	r0, [sp, #24]                   @ 4-byte Spill
	b	.LBB1_16
.LBB1_16:                               @   in Loop: Header=BB1_8 Depth=1
	ldr	r0, [sp, #24]                   @ 4-byte Reload
	.loc	2 393 13 is_stmt 0              @ rt-thread/components/drivers/sdio/block_dev.c:393:13
	ldr	r1, [sp, #28]
	.loc	2 393 35                        @ rt-thread/components/drivers/sdio/block_dev.c:393:35
	str	r0, [r1, #120]
	.loc	2 399 52 is_stmt 1              @ rt-thread/components/drivers/sdio/block_dev.c:399:52
	ldr	r0, [sp, #28]
	.loc	2 399 61 is_stmt 0              @ rt-thread/components/drivers/sdio/block_dev.c:399:61
	adds	r0, #92
	.loc	2 399 67                        @ rt-thread/components/drivers/sdio/block_dev.c:399:67
	ldr	r1, [sp, #44]
	.loc	2 399 75                        @ rt-thread/components/drivers/sdio/block_dev.c:399:75
	ldrb.w	r2, [sp, #51]
	.loc	2 399 22                        @ rt-thread/components/drivers/sdio/block_dev.c:399:22
	bl	dfs_filesystem_get_partition
	.loc	2 399 20                        @ rt-thread/components/drivers/sdio/block_dev.c:399:20
	strb.w	r0, [sp, #50]
.Ltmp40:
	.loc	2 400 17 is_stmt 1              @ rt-thread/components/drivers/sdio/block_dev.c:400:17
	ldrb.w	r0, [sp, #50]
.Ltmp41:
	.loc	2 400 17 is_stmt 0              @ rt-thread/components/drivers/sdio/block_dev.c:400:17
	cmp	r0, #0
	bne	.LBB1_18
	b	.LBB1_17
.LBB1_17:                               @   in Loop: Header=BB1_8 Depth=1
.Ltmp42:
	.loc	2 402 48 is_stmt 1              @ rt-thread/components/drivers/sdio/block_dev.c:402:48
	ldrb.w	r3, [sp, #51]
	.loc	2 402 17 is_stmt 0              @ rt-thread/components/drivers/sdio/block_dev.c:402:17
	movw	r2, :lower16:.L.str.4
	movt	r2, :upper16:.L.str.4
	add	r0, sp, #40
	str	r0, [sp, #16]                   @ 4-byte Spill
	movs	r1, #4
	bl	rt_snprintf
	.loc	2 403 52 is_stmt 1              @ rt-thread/components/drivers/sdio/block_dev.c:403:52
	ldrb.w	r3, [sp, #51]
	.loc	2 403 17 is_stmt 0              @ rt-thread/components/drivers/sdio/block_dev.c:403:17
	movw	r2, :lower16:.L.str.5
	movt	r2, :upper16:.L.str.5
	add	r0, sp, #32
	str	r0, [sp, #12]                   @ 4-byte Spill
	movs	r1, #8
	bl	rt_snprintf
                                        @ kill: def $r1 killed $r0
	.loc	2 404 38 is_stmt 1              @ rt-thread/components/drivers/sdio/block_dev.c:404:38
	ldr	r0, [sp, #12]                   @ 4-byte Reload
	movs	r1, #1
	str	r1, [sp, #20]                   @ 4-byte Spill
	movs	r2, #0
	bl	rt_sem_create
	ldr	r1, [sp, #16]                   @ 4-byte Reload
	mov	r2, r0
	.loc	2 404 17 is_stmt 0              @ rt-thread/components/drivers/sdio/block_dev.c:404:17
	ldr	r0, [sp, #20]                   @ 4-byte Reload
	ldr	r3, [sp, #28]
	.loc	2 404 36                        @ rt-thread/components/drivers/sdio/block_dev.c:404:36
	str	r2, [r3, #104]
	.loc	2 407 17 is_stmt 1              @ rt-thread/components/drivers/sdio/block_dev.c:407:17
	ldr	r2, [sp, #28]
	.loc	2 407 35 is_stmt 0              @ rt-thread/components/drivers/sdio/block_dev.c:407:35
	strb.w	r0, [r2, #32]
	.loc	2 411 17 is_stmt 1              @ rt-thread/components/drivers/sdio/block_dev.c:411:17
	ldr	r2, [sp, #28]
	.loc	2 411 35 is_stmt 0              @ rt-thread/components/drivers/sdio/block_dev.c:411:35
	movw	r0, :lower16:rt_mmcsd_init
	movt	r0, :upper16:rt_mmcsd_init
	str	r0, [r2, #48]
	.loc	2 412 17 is_stmt 1              @ rt-thread/components/drivers/sdio/block_dev.c:412:17
	ldr	r2, [sp, #28]
	.loc	2 412 35 is_stmt 0              @ rt-thread/components/drivers/sdio/block_dev.c:412:35
	movw	r0, :lower16:rt_mmcsd_open
	movt	r0, :upper16:rt_mmcsd_open
	str	r0, [r2, #52]
	.loc	2 413 17 is_stmt 1              @ rt-thread/components/drivers/sdio/block_dev.c:413:17
	ldr	r2, [sp, #28]
	.loc	2 413 36 is_stmt 0              @ rt-thread/components/drivers/sdio/block_dev.c:413:36
	movw	r0, :lower16:rt_mmcsd_close
	movt	r0, :upper16:rt_mmcsd_close
	str	r0, [r2, #56]
	.loc	2 414 17 is_stmt 1              @ rt-thread/components/drivers/sdio/block_dev.c:414:17
	ldr	r2, [sp, #28]
	.loc	2 414 35 is_stmt 0              @ rt-thread/components/drivers/sdio/block_dev.c:414:35
	movw	r0, :lower16:rt_mmcsd_read
	movt	r0, :upper16:rt_mmcsd_read
	str	r0, [r2, #60]
	.loc	2 415 17 is_stmt 1              @ rt-thread/components/drivers/sdio/block_dev.c:415:17
	ldr	r2, [sp, #28]
	.loc	2 415 36 is_stmt 0              @ rt-thread/components/drivers/sdio/block_dev.c:415:36
	movw	r0, :lower16:rt_mmcsd_write
	movt	r0, :upper16:rt_mmcsd_write
	str	r0, [r2, #64]
	.loc	2 416 17 is_stmt 1              @ rt-thread/components/drivers/sdio/block_dev.c:416:17
	ldr	r2, [sp, #28]
	.loc	2 416 38 is_stmt 0              @ rt-thread/components/drivers/sdio/block_dev.c:416:38
	movw	r0, :lower16:rt_mmcsd_control
	movt	r0, :upper16:rt_mmcsd_control
	str	r0, [r2, #68]
	.loc	2 418 42 is_stmt 1              @ rt-thread/components/drivers/sdio/block_dev.c:418:42
	ldr	r0, [sp, #28]
	.loc	2 418 40 is_stmt 0              @ rt-thread/components/drivers/sdio/block_dev.c:418:40
	str	r0, [r0, #88]
	.loc	2 420 33 is_stmt 1              @ rt-thread/components/drivers/sdio/block_dev.c:420:33
	ldr	r0, [sp, #56]
	.loc	2 420 17 is_stmt 0              @ rt-thread/components/drivers/sdio/block_dev.c:420:17
	ldr	r2, [sp, #28]
	.loc	2 420 31                        @ rt-thread/components/drivers/sdio/block_dev.c:420:31
	str	r0, [r2]
	.loc	2 422 17 is_stmt 1              @ rt-thread/components/drivers/sdio/block_dev.c:422:17
	ldr	r2, [sp, #28]
	mov.w	r0, #512
	.loc	2 422 52 is_stmt 0              @ rt-thread/components/drivers/sdio/block_dev.c:422:52
	str	r0, [r2, #112]
	.loc	2 423 48 is_stmt 1              @ rt-thread/components/drivers/sdio/block_dev.c:423:48
	ldr	r0, [sp, #56]
	.loc	2 423 54 is_stmt 0              @ rt-thread/components/drivers/sdio/block_dev.c:423:54
	ldr	r0, [r0, #64]
	.loc	2 423 17                        @ rt-thread/components/drivers/sdio/block_dev.c:423:17
	ldr	r2, [sp, #28]
	.loc	2 423 46                        @ rt-thread/components/drivers/sdio/block_dev.c:423:46
	str	r0, [r2, #116]
	.loc	2 424 50 is_stmt 1              @ rt-thread/components/drivers/sdio/block_dev.c:424:50
	ldr	r2, [sp, #28]
	.loc	2 424 64 is_stmt 0              @ rt-thread/components/drivers/sdio/block_dev.c:424:64
	ldr	r0, [r2, #100]
	.loc	2 424 48                        @ rt-thread/components/drivers/sdio/block_dev.c:424:48
	str	r0, [r2, #108]
	.loc	2 426 37 is_stmt 1              @ rt-thread/components/drivers/sdio/block_dev.c:426:37
	ldr	r0, [sp, #28]
	.loc	2 426 46 is_stmt 0              @ rt-thread/components/drivers/sdio/block_dev.c:426:46
	adds	r0, #12
	movs	r2, #15
	.loc	2 426 17                        @ rt-thread/components/drivers/sdio/block_dev.c:426:17
	bl	rt_device_register
	.loc	2 428 53 is_stmt 1              @ rt-thread/components/drivers/sdio/block_dev.c:428:53
	ldr	r0, [sp, #28]
	.loc	2 428 62 is_stmt 0              @ rt-thread/components/drivers/sdio/block_dev.c:428:62
	adds	r1, r0, #4
	.loc	2 428 17                        @ rt-thread/components/drivers/sdio/block_dev.c:428:17
	movw	r0, :lower16:blk_devices
	movt	r0, :upper16:blk_devices
	bl	rt_list_insert_after
	.loc	2 429 13 is_stmt 1              @ rt-thread/components/drivers/sdio/block_dev.c:429:13
	b	.LBB1_22
.Ltmp43:
.LBB1_18:                               @   in Loop: Header=BB1_8 Depth=1
	.loc	2 432 21                        @ rt-thread/components/drivers/sdio/block_dev.c:432:21
	ldrb.w	r0, [sp, #51]
.Ltmp44:
	.loc	2 432 21 is_stmt 0              @ rt-thread/components/drivers/sdio/block_dev.c:432:21
	cmp	r0, #0
	bne	.LBB1_20
	b	.LBB1_19
.LBB1_19:                               @   in Loop: Header=BB1_8 Depth=1
.Ltmp45:
	.loc	2 435 21 is_stmt 1              @ rt-thread/components/drivers/sdio/block_dev.c:435:21
	ldr	r0, [sp, #28]
	movs	r2, #0
	.loc	2 435 42 is_stmt 0              @ rt-thread/components/drivers/sdio/block_dev.c:435:42
	str	r2, [r0, #96]
	.loc	2 436 21 is_stmt 1              @ rt-thread/components/drivers/sdio/block_dev.c:436:21
	ldr	r0, [sp, #28]
	.loc	2 436 42 is_stmt 0              @ rt-thread/components/drivers/sdio/block_dev.c:436:42
	str	r2, [r0, #100]
	.loc	2 437 42 is_stmt 1              @ rt-thread/components/drivers/sdio/block_dev.c:437:42
	movw	r0, :lower16:.L.str.6
	movt	r0, :upper16:.L.str.6
	movs	r1, #1
	str	r1, [sp, #8]                    @ 4-byte Spill
	bl	rt_sem_create
	mov	r1, r0
	.loc	2 437 21 is_stmt 0              @ rt-thread/components/drivers/sdio/block_dev.c:437:21
	ldr	r0, [sp, #8]                    @ 4-byte Reload
	ldr	r2, [sp, #28]
	.loc	2 437 40                        @ rt-thread/components/drivers/sdio/block_dev.c:437:40
	str	r1, [r2, #104]
	.loc	2 440 21 is_stmt 1              @ rt-thread/components/drivers/sdio/block_dev.c:440:21
	ldr	r1, [sp, #28]
	.loc	2 440 40 is_stmt 0              @ rt-thread/components/drivers/sdio/block_dev.c:440:40
	strb.w	r0, [r1, #32]
	.loc	2 444 21 is_stmt 1              @ rt-thread/components/drivers/sdio/block_dev.c:444:21
	ldr	r1, [sp, #28]
	.loc	2 444 39 is_stmt 0              @ rt-thread/components/drivers/sdio/block_dev.c:444:39
	movw	r0, :lower16:rt_mmcsd_init
	movt	r0, :upper16:rt_mmcsd_init
	str	r0, [r1, #48]
	.loc	2 445 21 is_stmt 1              @ rt-thread/components/drivers/sdio/block_dev.c:445:21
	ldr	r1, [sp, #28]
	.loc	2 445 39 is_stmt 0              @ rt-thread/components/drivers/sdio/block_dev.c:445:39
	movw	r0, :lower16:rt_mmcsd_open
	movt	r0, :upper16:rt_mmcsd_open
	str	r0, [r1, #52]
	.loc	2 446 21 is_stmt 1              @ rt-thread/components/drivers/sdio/block_dev.c:446:21
	ldr	r1, [sp, #28]
	.loc	2 446 40 is_stmt 0              @ rt-thread/components/drivers/sdio/block_dev.c:446:40
	movw	r0, :lower16:rt_mmcsd_close
	movt	r0, :upper16:rt_mmcsd_close
	str	r0, [r1, #56]
	.loc	2 447 21 is_stmt 1              @ rt-thread/components/drivers/sdio/block_dev.c:447:21
	ldr	r1, [sp, #28]
	.loc	2 447 39 is_stmt 0              @ rt-thread/components/drivers/sdio/block_dev.c:447:39
	movw	r0, :lower16:rt_mmcsd_read
	movt	r0, :upper16:rt_mmcsd_read
	str	r0, [r1, #60]
	.loc	2 448 21 is_stmt 1              @ rt-thread/components/drivers/sdio/block_dev.c:448:21
	ldr	r1, [sp, #28]
	.loc	2 448 40 is_stmt 0              @ rt-thread/components/drivers/sdio/block_dev.c:448:40
	movw	r0, :lower16:rt_mmcsd_write
	movt	r0, :upper16:rt_mmcsd_write
	str	r0, [r1, #64]
	.loc	2 449 21 is_stmt 1              @ rt-thread/components/drivers/sdio/block_dev.c:449:21
	ldr	r1, [sp, #28]
	.loc	2 449 42 is_stmt 0              @ rt-thread/components/drivers/sdio/block_dev.c:449:42
	movw	r0, :lower16:rt_mmcsd_control
	movt	r0, :upper16:rt_mmcsd_control
	str	r0, [r1, #68]
	.loc	2 451 46 is_stmt 1              @ rt-thread/components/drivers/sdio/block_dev.c:451:46
	ldr	r0, [sp, #28]
	.loc	2 451 44 is_stmt 0              @ rt-thread/components/drivers/sdio/block_dev.c:451:44
	str	r0, [r0, #88]
	.loc	2 453 37 is_stmt 1              @ rt-thread/components/drivers/sdio/block_dev.c:453:37
	ldr	r0, [sp, #56]
	.loc	2 453 21 is_stmt 0              @ rt-thread/components/drivers/sdio/block_dev.c:453:21
	ldr	r1, [sp, #28]
	.loc	2 453 35                        @ rt-thread/components/drivers/sdio/block_dev.c:453:35
	str	r0, [r1]
	.loc	2 455 21 is_stmt 1              @ rt-thread/components/drivers/sdio/block_dev.c:455:21
	ldr	r1, [sp, #28]
	mov.w	r0, #512
	.loc	2 455 56 is_stmt 0              @ rt-thread/components/drivers/sdio/block_dev.c:455:56
	str	r0, [r1, #112]
	.loc	2 456 52 is_stmt 1              @ rt-thread/components/drivers/sdio/block_dev.c:456:52
	ldr	r0, [sp, #56]
	.loc	2 456 58 is_stmt 0              @ rt-thread/components/drivers/sdio/block_dev.c:456:58
	ldr	r0, [r0, #64]
	.loc	2 456 21                        @ rt-thread/components/drivers/sdio/block_dev.c:456:21
	ldr	r1, [sp, #28]
	.loc	2 456 50                        @ rt-thread/components/drivers/sdio/block_dev.c:456:50
	str	r0, [r1, #116]
	.loc	2 458 25 is_stmt 1              @ rt-thread/components/drivers/sdio/block_dev.c:458:25
	ldr	r0, [sp, #56]
	.loc	2 458 31 is_stmt 0              @ rt-thread/components/drivers/sdio/block_dev.c:458:31
	ldr	r0, [r0, #60]
	.loc	2 458 45                        @ rt-thread/components/drivers/sdio/block_dev.c:458:45
	lsls	r0, r0, #1
	.loc	2 457 21 is_stmt 1              @ rt-thread/components/drivers/sdio/block_dev.c:457:21
	ldr	r1, [sp, #28]
	.loc	2 457 52 is_stmt 0              @ rt-thread/components/drivers/sdio/block_dev.c:457:52
	str	r0, [r1, #108]
	.loc	2 460 41 is_stmt 1              @ rt-thread/components/drivers/sdio/block_dev.c:460:41
	ldr	r0, [sp, #28]
	.loc	2 460 50 is_stmt 0              @ rt-thread/components/drivers/sdio/block_dev.c:460:50
	adds	r0, #12
	.loc	2 460 21                        @ rt-thread/components/drivers/sdio/block_dev.c:460:21
	movw	r1, :lower16:.L.str.7
	movt	r1, :upper16:.L.str.7
	movs	r2, #15
	bl	rt_device_register
	.loc	2 462 57 is_stmt 1              @ rt-thread/components/drivers/sdio/block_dev.c:462:57
	ldr	r0, [sp, #28]
	.loc	2 462 66 is_stmt 0              @ rt-thread/components/drivers/sdio/block_dev.c:462:66
	adds	r1, r0, #4
	.loc	2 462 21                        @ rt-thread/components/drivers/sdio/block_dev.c:462:21
	movw	r0, :lower16:blk_devices
	movt	r0, :upper16:blk_devices
	bl	rt_list_insert_after
	.loc	2 463 17 is_stmt 1              @ rt-thread/components/drivers/sdio/block_dev.c:463:17
	b	.LBB1_21
.Ltmp46:
.LBB1_20:
	.loc	2 466 29                        @ rt-thread/components/drivers/sdio/block_dev.c:466:29
	ldr	r0, [sp, #28]
	.loc	2 466 21 is_stmt 0              @ rt-thread/components/drivers/sdio/block_dev.c:466:21
	bl	rt_free
	movs	r0, #0
	.loc	2 467 29 is_stmt 1              @ rt-thread/components/drivers/sdio/block_dev.c:467:29
	str	r0, [sp, #28]
	.loc	2 468 21                        @ rt-thread/components/drivers/sdio/block_dev.c:468:21
	b	.LBB1_24
.Ltmp47:
.LBB1_21:                               @   in Loop: Header=BB1_8 Depth=1
	.loc	2 0 21 is_stmt 0                @ rt-thread/components/drivers/sdio/block_dev.c:0:21
	b	.LBB1_22
.LBB1_22:                               @   in Loop: Header=BB1_8 Depth=1
	.loc	2 480 9 is_stmt 1               @ rt-thread/components/drivers/sdio/block_dev.c:480:9
	b	.LBB1_23
.Ltmp48:
.LBB1_23:                               @   in Loop: Header=BB1_8 Depth=1
	.loc	2 384 50                        @ rt-thread/components/drivers/sdio/block_dev.c:384:50
	ldrb.w	r0, [sp, #51]
	adds	r0, #1
	strb.w	r0, [sp, #51]
	.loc	2 384 9 is_stmt 0               @ rt-thread/components/drivers/sdio/block_dev.c:384:9
	b	.LBB1_8
.Ltmp49:
.LBB1_24:
	.loc	2 481 5 is_stmt 1               @ rt-thread/components/drivers/sdio/block_dev.c:481:5
	b	.LBB1_28
.Ltmp50:
.LBB1_25:
	.loc	2 484 9                         @ rt-thread/components/drivers/sdio/block_dev.c:484:9
	b	.LBB1_26
.LBB1_26:
.Ltmp51:
	.loc	2 484 9 is_stmt 0               @ rt-thread/components/drivers/sdio/block_dev.c:484:9
	movw	r0, :lower16:.L.str
	movt	r0, :upper16:.L.str
	bl	rt_kprintf
	movw	r0, :lower16:.L.str.8
	movt	r0, :upper16:.L.str.8
	bl	rt_kprintf
	movw	r0, :lower16:.L.str.2
	movt	r0, :upper16:.L.str.2
	bl	rt_kprintf
	b	.LBB1_27
.Ltmp52:
.LBB1_27:
	.loc	2 0 9                           @ rt-thread/components/drivers/sdio/block_dev.c:0:9
	mov.w	r0, #-1
	.loc	2 485 13 is_stmt 1              @ rt-thread/components/drivers/sdio/block_dev.c:485:13
	str	r0, [sp, #52]
	b	.LBB1_28
.Ltmp53:
.LBB1_28:
	.loc	2 489 13                        @ rt-thread/components/drivers/sdio/block_dev.c:489:13
	ldr	r0, [sp, #44]
	.loc	2 489 5 is_stmt 0               @ rt-thread/components/drivers/sdio/block_dev.c:489:5
	bl	rt_free
	.loc	2 491 12 is_stmt 1              @ rt-thread/components/drivers/sdio/block_dev.c:491:12
	ldr	r0, [sp, #52]
	.loc	2 491 5 is_stmt 0               @ rt-thread/components/drivers/sdio/block_dev.c:491:5
	str	r0, [sp, #60]
	b	.LBB1_29
.LBB1_29:
	.loc	2 492 1 is_stmt 1               @ rt-thread/components/drivers/sdio/block_dev.c:492:1
	ldr	r0, [sp, #60]
	add	sp, #64
	pop	{r7, pc}
.Ltmp54:
.Lfunc_end1:
	.size	rt_mmcsd_blk_probe, .Lfunc_end1-rt_mmcsd_blk_probe
	.cfi_endproc
	.cantunwind
	.fnend
                                        @ -- End function
	.section	.text.mmcsd_set_blksize,"ax",%progbits
	.p2align	3                               @ -- Begin function mmcsd_set_blksize
	.type	mmcsd_set_blksize,%function
	.code	16                              @ @mmcsd_set_blksize
	.thumb_func
mmcsd_set_blksize:
.Lfunc_begin2:
	.loc	2 318 0                         @ rt-thread/components/drivers/sdio/block_dev.c:318:0
	.fnstart
	.cfi_startproc
@ %bb.0:
	.save	{r7, lr}
	push	{r7, lr}
	.cfi_def_cfa_offset 8
	.cfi_offset lr, -4
	.cfi_offset r7, -8
	.pad	#56
	sub	sp, #56
	.cfi_def_cfa_offset 64
	str	r0, [sp, #48]
.Ltmp55:
	.loc	2 323 9 prologue_end            @ rt-thread/components/drivers/sdio/block_dev.c:323:9
	ldr	r0, [sp, #48]
	ldrh.w	r0, [r0, #74]
.Ltmp56:
	.loc	2 323 9 is_stmt 0               @ rt-thread/components/drivers/sdio/block_dev.c:323:9
	lsls	r0, r0, #30
	cmp	r0, #0
	bpl	.LBB2_2
	b	.LBB2_1
.LBB2_1:
	.loc	2 0 9                           @ rt-thread/components/drivers/sdio/block_dev.c:0:9
	movs	r0, #0
.Ltmp57:
	.loc	2 324 9 is_stmt 1               @ rt-thread/components/drivers/sdio/block_dev.c:324:9
	str	r0, [sp, #52]
	b	.LBB2_7
.Ltmp58:
.LBB2_2:
	.loc	2 326 21                        @ rt-thread/components/drivers/sdio/block_dev.c:326:21
	ldr	r0, [sp, #48]
	.loc	2 326 27 is_stmt 0              @ rt-thread/components/drivers/sdio/block_dev.c:326:27
	ldr	r0, [r0]
	.loc	2 326 5                         @ rt-thread/components/drivers/sdio/block_dev.c:326:5
	bl	mmcsd_host_lock
	movs	r0, #16
	.loc	2 327 18 is_stmt 1              @ rt-thread/components/drivers/sdio/block_dev.c:327:18
	str	r0, [sp, #4]
	mov.w	r0, #512
	.loc	2 328 13                        @ rt-thread/components/drivers/sdio/block_dev.c:328:13
	str	r0, [sp, #8]
	movs	r0, #65
	.loc	2 329 15                        @ rt-thread/components/drivers/sdio/block_dev.c:329:15
	str	r0, [sp, #28]
	.loc	2 330 26                        @ rt-thread/components/drivers/sdio/block_dev.c:330:26
	ldr	r0, [sp, #48]
	.loc	2 330 32 is_stmt 0              @ rt-thread/components/drivers/sdio/block_dev.c:330:32
	ldr	r0, [r0]
	add	r1, sp, #4
	movs	r2, #5
	.loc	2 330 11                        @ rt-thread/components/drivers/sdio/block_dev.c:330:11
	bl	mmcsd_send_cmd
	.loc	2 330 9                         @ rt-thread/components/drivers/sdio/block_dev.c:330:9
	str	r0, [sp]
	.loc	2 331 23 is_stmt 1              @ rt-thread/components/drivers/sdio/block_dev.c:331:23
	ldr	r0, [sp, #48]
	.loc	2 331 29 is_stmt 0              @ rt-thread/components/drivers/sdio/block_dev.c:331:29
	ldr	r0, [r0]
	.loc	2 331 5                         @ rt-thread/components/drivers/sdio/block_dev.c:331:5
	bl	mmcsd_host_unlock
.Ltmp59:
	.loc	2 333 9 is_stmt 1               @ rt-thread/components/drivers/sdio/block_dev.c:333:9
	ldr	r0, [sp]
.Ltmp60:
	.loc	2 333 9 is_stmt 0               @ rt-thread/components/drivers/sdio/block_dev.c:333:9
	cbz	r0, .LBB2_6
	b	.LBB2_3
.LBB2_3:
.Ltmp61:
	.loc	2 335 9 is_stmt 1               @ rt-thread/components/drivers/sdio/block_dev.c:335:9
	b	.LBB2_4
.LBB2_4:
.Ltmp62:
	.loc	2 335 9 is_stmt 0               @ rt-thread/components/drivers/sdio/block_dev.c:335:9
	movw	r0, :lower16:.L.str
	movt	r0, :upper16:.L.str
	bl	rt_kprintf
	ldr	r1, [sp, #8]
	ldr	r2, [sp]
	movw	r0, :lower16:.L.str.9
	movt	r0, :upper16:.L.str.9
	bl	rt_kprintf
	movw	r0, :lower16:.L.str.2
	movt	r0, :upper16:.L.str.2
	bl	rt_kprintf
	b	.LBB2_5
.Ltmp63:
.LBB2_5:
	.loc	2 0 9                           @ rt-thread/components/drivers/sdio/block_dev.c:0:9
	mov.w	r0, #-1
	.loc	2 337 9 is_stmt 1               @ rt-thread/components/drivers/sdio/block_dev.c:337:9
	str	r0, [sp, #52]
	b	.LBB2_7
.Ltmp64:
.LBB2_6:
	.loc	2 0 9 is_stmt 0                 @ rt-thread/components/drivers/sdio/block_dev.c:0:9
	movs	r0, #0
	.loc	2 340 5 is_stmt 1               @ rt-thread/components/drivers/sdio/block_dev.c:340:5
	str	r0, [sp, #52]
	b	.LBB2_7
.LBB2_7:
	.loc	2 341 1                         @ rt-thread/components/drivers/sdio/block_dev.c:341:1
	ldr	r0, [sp, #52]
	add	sp, #56
	pop	{r7, pc}
.Ltmp65:
.Lfunc_end2:
	.size	mmcsd_set_blksize, .Lfunc_end2-mmcsd_set_blksize
	.cfi_endproc
	.cantunwind
	.fnend
                                        @ -- End function
	.section	.text.rt_mmcsd_req_blk,"ax",%progbits
	.p2align	3                               @ -- Begin function rt_mmcsd_req_blk
	.type	rt_mmcsd_req_blk,%function
	.code	16                              @ @rt_mmcsd_req_blk
	.thumb_func
rt_mmcsd_req_blk:
.Lfunc_begin3:
	.loc	2 108 0                         @ rt-thread/components/drivers/sdio/block_dev.c:108:0
	.fnstart
	.cfi_startproc
@ %bb.0:
	.save	{r7, lr}
	push	{r7, lr}
	.cfi_def_cfa_offset 8
	.cfi_offset lr, -4
	.cfi_offset r7, -8
	.pad	#208
	sub	sp, #208
	.cfi_def_cfa_offset 216
	mov	r12, r0
	ldr	r0, [sp, #216]
	str.w	r12, [sp, #200]
	str	r1, [sp, #196]
	str	r2, [sp, #192]
	str	r3, [sp, #188]
	strb.w	r0, [sp, #187]
.Ltmp66:
	.loc	2 112 34 prologue_end           @ rt-thread/components/drivers/sdio/block_dev.c:112:34
	ldr	r0, [sp, #200]
	.loc	2 112 40 is_stmt 0              @ rt-thread/components/drivers/sdio/block_dev.c:112:40
	ldr	r0, [r0]
	.loc	2 112 27                        @ rt-thread/components/drivers/sdio/block_dev.c:112:27
	str	r0, [sp, #40]
	.loc	2 115 21 is_stmt 1              @ rt-thread/components/drivers/sdio/block_dev.c:115:21
	ldr	r0, [sp, #40]
	.loc	2 115 5 is_stmt 0               @ rt-thread/components/drivers/sdio/block_dev.c:115:5
	bl	mmcsd_host_lock
	add	r0, sp, #44
	movs	r1, #0
	str	r1, [sp, #16]                   @ 4-byte Spill
	movs	r2, #12
	.loc	2 116 5 is_stmt 1               @ rt-thread/components/drivers/sdio/block_dev.c:116:5
	bl	rt_memset
	ldr	r1, [sp, #16]                   @ 4-byte Reload
	add	r0, sp, #140
	str	r0, [sp, #20]                   @ 4-byte Spill
	movs	r2, #44
	.loc	2 117 5                         @ rt-thread/components/drivers/sdio/block_dev.c:117:5
	str	r2, [sp, #12]                   @ 4-byte Spill
	bl	rt_memset
	ldr	r2, [sp, #12]                   @ 4-byte Reload
	ldr	r1, [sp, #16]                   @ 4-byte Reload
	add	r0, sp, #96
	.loc	2 118 5                         @ rt-thread/components/drivers/sdio/block_dev.c:118:5
	bl	rt_memset
	ldr	r1, [sp, #16]                   @ 4-byte Reload
	add	r0, sp, #56
	str	r0, [sp, #24]                   @ 4-byte Spill
	movs	r2, #40
	.loc	2 119 5                         @ rt-thread/components/drivers/sdio/block_dev.c:119:5
	bl	rt_memset
	ldr	r1, [sp, #20]                   @ 4-byte Reload
                                        @ kill: def $r2 killed $r0
	.loc	2 120 13                        @ rt-thread/components/drivers/sdio/block_dev.c:120:13
	ldr	r0, [sp, #24]                   @ 4-byte Reload
	str	r1, [sp, #48]
	.loc	2 121 14                        @ rt-thread/components/drivers/sdio/block_dev.c:121:14
	str	r0, [sp, #44]
	.loc	2 123 15                        @ rt-thread/components/drivers/sdio/block_dev.c:123:15
	ldr	r0, [sp, #196]
	.loc	2 123 13 is_stmt 0              @ rt-thread/components/drivers/sdio/block_dev.c:123:13
	str	r0, [sp, #144]
.Ltmp67:
	.loc	2 124 11 is_stmt 1              @ rt-thread/components/drivers/sdio/block_dev.c:124:11
	ldr	r0, [sp, #200]
	ldrh.w	r0, [r0, #74]
.Ltmp68:
	.loc	2 124 9 is_stmt 0               @ rt-thread/components/drivers/sdio/block_dev.c:124:9
	lsls	r0, r0, #30
	cmp	r0, #0
	bmi	.LBB3_2
	b	.LBB3_1
.LBB3_1:
.Ltmp69:
	.loc	2 126 17 is_stmt 1              @ rt-thread/components/drivers/sdio/block_dev.c:126:17
	ldr	r0, [sp, #144]
	lsls	r0, r0, #9
	str	r0, [sp, #144]
	.loc	2 127 5                         @ rt-thread/components/drivers/sdio/block_dev.c:127:5
	b	.LBB3_2
.Ltmp70:
.LBB3_2:
	.loc	2 0 5 is_stmt 0                 @ rt-thread/components/drivers/sdio/block_dev.c:0:5
	movs	r0, #81
	.loc	2 128 15 is_stmt 1              @ rt-thread/components/drivers/sdio/block_dev.c:128:15
	str	r0, [sp, #164]
	mov.w	r0, #512
	.loc	2 130 18                        @ rt-thread/components/drivers/sdio/block_dev.c:130:18
	str	r0, [sp, #56]
	.loc	2 131 18                        @ rt-thread/components/drivers/sdio/block_dev.c:131:18
	ldr	r0, [sp, #188]
	.loc	2 131 16 is_stmt 0              @ rt-thread/components/drivers/sdio/block_dev.c:131:16
	str	r0, [sp, #60]
.Ltmp71:
	.loc	2 133 9 is_stmt 1               @ rt-thread/components/drivers/sdio/block_dev.c:133:9
	ldr	r0, [sp, #188]
.Ltmp72:
	.loc	2 133 9 is_stmt 0               @ rt-thread/components/drivers/sdio/block_dev.c:133:9
	cmp	r0, #2
	blo	.LBB3_7
	b	.LBB3_3
.LBB3_3:
.Ltmp73:
	.loc	2 135 14 is_stmt 1              @ rt-thread/components/drivers/sdio/block_dev.c:135:14
	ldr	r0, [sp, #200]
	ldr	r0, [r0]
	.loc	2 135 44 is_stmt 0              @ rt-thread/components/drivers/sdio/block_dev.c:135:44
	ldrb.w	r0, [r0, #32]
	lsls	r0, r0, #28
	cmp	r0, #0
	bpl	.LBB3_5
	b	.LBB3_4
.LBB3_4:
	.loc	2 135 48                        @ rt-thread/components/drivers/sdio/block_dev.c:135:48
	ldrb.w	r0, [sp, #187]
.Ltmp74:
	.loc	2 135 13                        @ rt-thread/components/drivers/sdio/block_dev.c:135:13
	cbnz	r0, .LBB3_6
	b	.LBB3_5
.LBB3_5:
	.loc	2 0 13                          @ rt-thread/components/drivers/sdio/block_dev.c:0:13
	add	r0, sp, #96
.Ltmp75:
	.loc	2 137 22 is_stmt 1              @ rt-thread/components/drivers/sdio/block_dev.c:137:22
	str	r0, [sp, #52]
	movs	r0, #12
	.loc	2 138 27                        @ rt-thread/components/drivers/sdio/block_dev.c:138:27
	str	r0, [sp, #96]
	movs	r0, #0
	.loc	2 139 22                        @ rt-thread/components/drivers/sdio/block_dev.c:139:22
	str	r0, [sp, #100]
	movs	r0, #130
	.loc	2 140 24                        @ rt-thread/components/drivers/sdio/block_dev.c:140:24
	str	r0, [sp, #120]
	.loc	2 141 9                         @ rt-thread/components/drivers/sdio/block_dev.c:141:9
	b	.LBB3_6
.Ltmp76:
.LBB3_6:
	.loc	2 0 9 is_stmt 0                 @ rt-thread/components/drivers/sdio/block_dev.c:0:9
	movs	r0, #18
	.loc	2 142 15 is_stmt 1              @ rt-thread/components/drivers/sdio/block_dev.c:142:15
	str	r0, [sp, #36]
	movs	r0, #25
	.loc	2 143 15                        @ rt-thread/components/drivers/sdio/block_dev.c:143:15
	str	r0, [sp, #32]
	.loc	2 144 5                         @ rt-thread/components/drivers/sdio/block_dev.c:144:5
	b	.LBB3_8
.Ltmp77:
.LBB3_7:
	.loc	2 0 5 is_stmt 0                 @ rt-thread/components/drivers/sdio/block_dev.c:0:5
	movs	r0, #0
.Ltmp78:
	.loc	2 147 18 is_stmt 1              @ rt-thread/components/drivers/sdio/block_dev.c:147:18
	str	r0, [sp, #52]
	movs	r0, #17
	.loc	2 148 15                        @ rt-thread/components/drivers/sdio/block_dev.c:148:15
	str	r0, [sp, #36]
	movs	r0, #24
	.loc	2 149 15                        @ rt-thread/components/drivers/sdio/block_dev.c:149:15
	str	r0, [sp, #32]
	b	.LBB3_8
.Ltmp79:
.LBB3_8:
	.loc	2 152 10                        @ rt-thread/components/drivers/sdio/block_dev.c:152:10
	ldrb.w	r0, [sp, #187]
.Ltmp80:
	.loc	2 152 9 is_stmt 0               @ rt-thread/components/drivers/sdio/block_dev.c:152:9
	cbnz	r0, .LBB3_10
	b	.LBB3_9
.LBB3_9:
.Ltmp81:
	.loc	2 154 24 is_stmt 1              @ rt-thread/components/drivers/sdio/block_dev.c:154:24
	ldr	r0, [sp, #36]
	.loc	2 154 22 is_stmt 0              @ rt-thread/components/drivers/sdio/block_dev.c:154:22
	str	r0, [sp, #140]
	.loc	2 155 20 is_stmt 1              @ rt-thread/components/drivers/sdio/block_dev.c:155:20
	ldr	r0, [sp, #72]
	orr	r0, r0, #2
	str	r0, [sp, #72]
	.loc	2 156 5                         @ rt-thread/components/drivers/sdio/block_dev.c:156:5
	b	.LBB3_11
.Ltmp82:
.LBB3_10:
	.loc	2 159 24                        @ rt-thread/components/drivers/sdio/block_dev.c:159:24
	ldr	r0, [sp, #32]
	.loc	2 159 22 is_stmt 0              @ rt-thread/components/drivers/sdio/block_dev.c:159:22
	str	r0, [sp, #140]
	.loc	2 160 20 is_stmt 1              @ rt-thread/components/drivers/sdio/block_dev.c:160:20
	ldr	r0, [sp, #72]
	orr	r0, r0, #1
	str	r0, [sp, #72]
	b	.LBB3_11
.Ltmp83:
.LBB3_11:
	.loc	2 163 35                        @ rt-thread/components/drivers/sdio/block_dev.c:163:35
	ldr	r1, [sp, #200]
	add	r0, sp, #56
	.loc	2 163 5 is_stmt 0               @ rt-thread/components/drivers/sdio/block_dev.c:163:5
	bl	mmcsd_set_data_timeout
	.loc	2 164 16 is_stmt 1              @ rt-thread/components/drivers/sdio/block_dev.c:164:16
	ldr	r0, [sp, #192]
	.loc	2 164 14 is_stmt 0              @ rt-thread/components/drivers/sdio/block_dev.c:164:14
	str	r0, [sp, #64]
	.loc	2 165 24 is_stmt 1              @ rt-thread/components/drivers/sdio/block_dev.c:165:24
	ldr	r0, [sp, #40]
	add	r1, sp, #44
	.loc	2 165 5 is_stmt 0               @ rt-thread/components/drivers/sdio/block_dev.c:165:5
	bl	mmcsd_send_request
.Ltmp84:
	.loc	2 167 10 is_stmt 1              @ rt-thread/components/drivers/sdio/block_dev.c:167:10
	ldr	r0, [sp, #200]
	ldr	r0, [r0]
	.loc	2 167 40 is_stmt 0              @ rt-thread/components/drivers/sdio/block_dev.c:167:40
	ldrb.w	r0, [r0, #32]
	lsls	r0, r0, #28
	cmp	r0, #0
	bmi	.LBB3_23
	b	.LBB3_12
.LBB3_12:
	.loc	2 167 43                        @ rt-thread/components/drivers/sdio/block_dev.c:167:43
	ldrb.w	r0, [sp, #187]
.Ltmp85:
	.loc	2 167 9                         @ rt-thread/components/drivers/sdio/block_dev.c:167:9
	cmp	r0, #0
	beq	.LBB3_23
	b	.LBB3_13
.LBB3_13:
.Ltmp86:
	.loc	2 169 9 is_stmt 1               @ rt-thread/components/drivers/sdio/block_dev.c:169:9
	b	.LBB3_14
.LBB3_14:                               @ =>This Inner Loop Header: Depth=1
	.loc	2 0 9 is_stmt 0                 @ rt-thread/components/drivers/sdio/block_dev.c:0:9
	movs	r0, #13
.Ltmp87:
	.loc	2 173 26 is_stmt 1              @ rt-thread/components/drivers/sdio/block_dev.c:173:26
	str	r0, [sp, #140]
	.loc	2 174 23                        @ rt-thread/components/drivers/sdio/block_dev.c:174:23
	ldr	r0, [sp, #200]
	.loc	2 174 29 is_stmt 0              @ rt-thread/components/drivers/sdio/block_dev.c:174:29
	ldr	r0, [r0, #4]
	.loc	2 174 33                        @ rt-thread/components/drivers/sdio/block_dev.c:174:33
	lsls	r0, r0, #16
	.loc	2 174 21                        @ rt-thread/components/drivers/sdio/block_dev.c:174:21
	str	r0, [sp, #144]
	movs	r0, #1
	.loc	2 175 23 is_stmt 1              @ rt-thread/components/drivers/sdio/block_dev.c:175:23
	str	r0, [sp, #164]
	.loc	2 176 34                        @ rt-thread/components/drivers/sdio/block_dev.c:176:34
	ldr	r0, [sp, #200]
	.loc	2 176 40 is_stmt 0              @ rt-thread/components/drivers/sdio/block_dev.c:176:40
	ldr	r0, [r0]
	add	r1, sp, #140
	movs	r2, #5
	.loc	2 176 19                        @ rt-thread/components/drivers/sdio/block_dev.c:176:19
	bl	mmcsd_send_cmd
	.loc	2 176 17                        @ rt-thread/components/drivers/sdio/block_dev.c:176:17
	str	r0, [sp, #28]
.Ltmp88:
	.loc	2 177 17 is_stmt 1              @ rt-thread/components/drivers/sdio/block_dev.c:177:17
	ldr	r0, [sp, #28]
.Ltmp89:
	.loc	2 177 17 is_stmt 0              @ rt-thread/components/drivers/sdio/block_dev.c:177:17
	cbz	r0, .LBB3_18
	b	.LBB3_15
.LBB3_15:
.Ltmp90:
	.loc	2 179 17 is_stmt 1              @ rt-thread/components/drivers/sdio/block_dev.c:179:17
	b	.LBB3_16
.LBB3_16:
.Ltmp91:
	.loc	2 179 17 is_stmt 0              @ rt-thread/components/drivers/sdio/block_dev.c:179:17
	movw	r0, :lower16:.L.str
	movt	r0, :upper16:.L.str
	bl	rt_kprintf
	ldr	r1, [sp, #28]
	movw	r0, :lower16:.L.str.10
	movt	r0, :upper16:.L.str.10
	bl	rt_kprintf
	movw	r0, :lower16:.L.str.2
	movt	r0, :upper16:.L.str.2
	bl	rt_kprintf
	b	.LBB3_17
.Ltmp92:
.LBB3_17:
	.loc	2 180 17 is_stmt 1              @ rt-thread/components/drivers/sdio/block_dev.c:180:17
	b	.LBB3_22
.Ltmp93:
.LBB3_18:                               @   in Loop: Header=BB3_14 Depth=1
	.loc	2 187 10                        @ rt-thread/components/drivers/sdio/block_dev.c:187:10
	b	.LBB3_19
.Ltmp94:
.LBB3_19:                               @   in Loop: Header=BB3_14 Depth=1
	.loc	2 0 10 is_stmt 0                @ rt-thread/components/drivers/sdio/block_dev.c:0:10
	movs	r0, #1
	.loc	2 187 54                        @ rt-thread/components/drivers/sdio/block_dev.c:187:54
	ldrb.w	r1, [sp, #149]
	lsls	r1, r1, #31
	str	r0, [sp, #8]                    @ 4-byte Spill
	cbz	r1, .LBB3_21
	b	.LBB3_20
.LBB3_20:                               @   in Loop: Header=BB3_14 Depth=1
	.loc	2 188 14 is_stmt 1              @ rt-thread/components/drivers/sdio/block_dev.c:188:14
	ldr	r0, [sp, #148]
	and	r1, r0, #7680
	mvn	r0, #6
	.loc	2 188 44 is_stmt 0              @ rt-thread/components/drivers/sdio/block_dev.c:188:44
	add.w	r0, r0, r1, lsr #9
	clz	r0, r0
	lsrs	r0, r0, #5
	.loc	2 187 54 is_stmt 1              @ rt-thread/components/drivers/sdio/block_dev.c:187:54
	str	r0, [sp, #8]                    @ 4-byte Spill
	b	.LBB3_21
.LBB3_21:                               @   in Loop: Header=BB3_14 Depth=1
	.loc	2 0 54 is_stmt 0                @ rt-thread/components/drivers/sdio/block_dev.c:0:54
	ldr	r0, [sp, #8]                    @ 4-byte Reload
.Ltmp95:
	.loc	2 187 10                        @ rt-thread/components/drivers/sdio/block_dev.c:187:10
	lsls	r0, r0, #31
	cmp	r0, #0
	bne	.LBB3_14
	b	.LBB3_22
.Ltmp96:
.LBB3_22:
	.loc	2 189 5 is_stmt 1               @ rt-thread/components/drivers/sdio/block_dev.c:189:5
	b	.LBB3_23
.Ltmp97:
.LBB3_23:
	.loc	2 191 23                        @ rt-thread/components/drivers/sdio/block_dev.c:191:23
	ldr	r0, [sp, #40]
	.loc	2 191 5 is_stmt 0               @ rt-thread/components/drivers/sdio/block_dev.c:191:5
	bl	mmcsd_host_unlock
.Ltmp98:
	.loc	2 193 13 is_stmt 1              @ rt-thread/components/drivers/sdio/block_dev.c:193:13
	ldr	r0, [sp, #172]
	.loc	2 193 17 is_stmt 0              @ rt-thread/components/drivers/sdio/block_dev.c:193:17
	cbnz	r0, .LBB3_26
	b	.LBB3_24
.LBB3_24:
	.loc	2 193 25                        @ rt-thread/components/drivers/sdio/block_dev.c:193:25
	ldr	r0, [sp, #68]
	.loc	2 193 29                        @ rt-thread/components/drivers/sdio/block_dev.c:193:29
	cbnz	r0, .LBB3_26
	b	.LBB3_25
.LBB3_25:
	.loc	2 193 37                        @ rt-thread/components/drivers/sdio/block_dev.c:193:37
	ldr	r0, [sp, #128]
.Ltmp99:
	.loc	2 193 9                         @ rt-thread/components/drivers/sdio/block_dev.c:193:9
	cbz	r0, .LBB3_31
	b	.LBB3_26
.LBB3_26:
.Ltmp100:
	.loc	2 195 9 is_stmt 1               @ rt-thread/components/drivers/sdio/block_dev.c:195:9
	b	.LBB3_27
.LBB3_27:
.Ltmp101:
	.loc	2 195 9 is_stmt 0               @ rt-thread/components/drivers/sdio/block_dev.c:195:9
	movw	r0, :lower16:.L.str
	movt	r0, :upper16:.L.str
	bl	rt_kprintf
	movw	r0, :lower16:.L.str.11
	movt	r0, :upper16:.L.str.11
	bl	rt_kprintf
	movw	r0, :lower16:.L.str.2
	movt	r0, :upper16:.L.str.2
	bl	rt_kprintf
	b	.LBB3_28
.Ltmp102:
.LBB3_28:
	.loc	2 196 9 is_stmt 1               @ rt-thread/components/drivers/sdio/block_dev.c:196:9
	b	.LBB3_29
.LBB3_29:
.Ltmp103:
	.loc	2 196 9 is_stmt 0               @ rt-thread/components/drivers/sdio/block_dev.c:196:9
	movw	r0, :lower16:.L.str
	movt	r0, :upper16:.L.str
	bl	rt_kprintf
	ldr	r1, [sp, #172]
	ldr	r3, [sp, #128]
	ldr	r2, [sp, #68]
	ldr	r0, [sp, #72]
	ldr.w	lr, [sp, #196]
	mov	r12, sp
	str.w	lr, [r12, #4]
	str.w	r0, [r12]
	movw	r0, :lower16:.L.str.12
	movt	r0, :upper16:.L.str.12
	bl	rt_kprintf
	movw	r0, :lower16:.L.str.2
	movt	r0, :upper16:.L.str.2
	bl	rt_kprintf
	b	.LBB3_30
.Ltmp104:
.LBB3_30:
	.loc	2 0 9                           @ rt-thread/components/drivers/sdio/block_dev.c:0:9
	mov.w	r0, #-1
	.loc	2 199 9 is_stmt 1               @ rt-thread/components/drivers/sdio/block_dev.c:199:9
	str	r0, [sp, #204]
	b	.LBB3_32
.Ltmp105:
.LBB3_31:
	.loc	2 0 9 is_stmt 0                 @ rt-thread/components/drivers/sdio/block_dev.c:0:9
	movs	r0, #0
	.loc	2 202 5 is_stmt 1               @ rt-thread/components/drivers/sdio/block_dev.c:202:5
	str	r0, [sp, #204]
	b	.LBB3_32
.LBB3_32:
	.loc	2 203 1                         @ rt-thread/components/drivers/sdio/block_dev.c:203:1
	ldr	r0, [sp, #204]
	add	sp, #208
	pop	{r7, pc}
.Ltmp106:
.Lfunc_end3:
	.size	rt_mmcsd_req_blk, .Lfunc_end3-rt_mmcsd_req_blk
	.cfi_endproc
	.cantunwind
	.fnend
                                        @ -- End function
	.section	.text.rt_mmcsd_init,"ax",%progbits
	.p2align	3                               @ -- Begin function rt_mmcsd_init
	.type	rt_mmcsd_init,%function
	.code	16                              @ @rt_mmcsd_init
	.thumb_func
rt_mmcsd_init:
.Lfunc_begin4:
	.loc	2 206 0                         @ rt-thread/components/drivers/sdio/block_dev.c:206:0
	.fnstart
	.cfi_startproc
@ %bb.0:
	.pad	#4
	sub	sp, #4
	.cfi_def_cfa_offset 4
	str	r0, [sp]
	movs	r0, #0
.Ltmp107:
	.loc	2 207 5 prologue_end            @ rt-thread/components/drivers/sdio/block_dev.c:207:5
	add	sp, #4
	bx	lr
.Ltmp108:
.Lfunc_end4:
	.size	rt_mmcsd_init, .Lfunc_end4-rt_mmcsd_init
	.cfi_endproc
	.cantunwind
	.fnend
                                        @ -- End function
	.section	.text.rt_mmcsd_open,"ax",%progbits
	.p2align	3                               @ -- Begin function rt_mmcsd_open
	.type	rt_mmcsd_open,%function
	.code	16                              @ @rt_mmcsd_open
	.thumb_func
rt_mmcsd_open:
.Lfunc_begin5:
	.loc	2 211 0                         @ rt-thread/components/drivers/sdio/block_dev.c:211:0
	.fnstart
	.cfi_startproc
@ %bb.0:
	.pad	#8
	sub	sp, #8
	.cfi_def_cfa_offset 8
                                        @ kill: def $r2 killed $r1
	str	r0, [sp, #4]
	strh.w	r1, [sp, #2]
	movs	r0, #0
.Ltmp109:
	.loc	2 212 5 prologue_end            @ rt-thread/components/drivers/sdio/block_dev.c:212:5
	add	sp, #8
	bx	lr
.Ltmp110:
.Lfunc_end5:
	.size	rt_mmcsd_open, .Lfunc_end5-rt_mmcsd_open
	.cfi_endproc
	.cantunwind
	.fnend
                                        @ -- End function
	.section	.text.rt_mmcsd_close,"ax",%progbits
	.p2align	3                               @ -- Begin function rt_mmcsd_close
	.type	rt_mmcsd_close,%function
	.code	16                              @ @rt_mmcsd_close
	.thumb_func
rt_mmcsd_close:
.Lfunc_begin6:
	.loc	2 216 0                         @ rt-thread/components/drivers/sdio/block_dev.c:216:0
	.fnstart
	.cfi_startproc
@ %bb.0:
	.pad	#4
	sub	sp, #4
	.cfi_def_cfa_offset 4
	str	r0, [sp]
	movs	r0, #0
.Ltmp111:
	.loc	2 217 5 prologue_end            @ rt-thread/components/drivers/sdio/block_dev.c:217:5
	add	sp, #4
	bx	lr
.Ltmp112:
.Lfunc_end6:
	.size	rt_mmcsd_close, .Lfunc_end6-rt_mmcsd_close
	.cfi_endproc
	.cantunwind
	.fnend
                                        @ -- End function
	.section	.text.rt_mmcsd_read,"ax",%progbits
	.p2align	3                               @ -- Begin function rt_mmcsd_read
	.type	rt_mmcsd_read,%function
	.code	16                              @ @rt_mmcsd_read
	.thumb_func
rt_mmcsd_read:
.Lfunc_begin7:
	.loc	2 238 0                         @ rt-thread/components/drivers/sdio/block_dev.c:238:0
	.fnstart
	.cfi_startproc
@ %bb.0:
	.save	{r7, lr}
	push	{r7, lr}
	.cfi_def_cfa_offset 8
	.cfi_offset lr, -4
	.cfi_offset r7, -8
	.pad	#56
	sub	sp, #56
	.cfi_def_cfa_offset 64
	str	r0, [sp, #48]
	str	r1, [sp, #44]
	str	r2, [sp, #40]
	str	r3, [sp, #36]
	movs	r0, #0
.Ltmp113:
	.loc	2 239 14 prologue_end           @ rt-thread/components/drivers/sdio/block_dev.c:239:14
	str	r0, [sp, #32]
	.loc	2 240 15                        @ rt-thread/components/drivers/sdio/block_dev.c:240:15
	str	r0, [sp, #28]
	.loc	2 241 15                        @ rt-thread/components/drivers/sdio/block_dev.c:241:15
	str	r0, [sp, #24]
	.loc	2 242 29                        @ rt-thread/components/drivers/sdio/block_dev.c:242:29
	ldr	r0, [sp, #36]
	.loc	2 242 15 is_stmt 0              @ rt-thread/components/drivers/sdio/block_dev.c:242:15
	str	r0, [sp, #20]
	.loc	2 243 28 is_stmt 1              @ rt-thread/components/drivers/sdio/block_dev.c:243:28
	ldr	r0, [sp, #40]
	.loc	2 243 11 is_stmt 0              @ rt-thread/components/drivers/sdio/block_dev.c:243:11
	str	r0, [sp, #16]
	.loc	2 244 67 is_stmt 1              @ rt-thread/components/drivers/sdio/block_dev.c:244:67
	ldr	r0, [sp, #48]
	.loc	2 244 72 is_stmt 0              @ rt-thread/components/drivers/sdio/block_dev.c:244:72
	ldr	r0, [r0, #76]
	.loc	2 244 30                        @ rt-thread/components/drivers/sdio/block_dev.c:244:30
	str	r0, [sp, #12]
	.loc	2 245 35 is_stmt 1              @ rt-thread/components/drivers/sdio/block_dev.c:245:35
	ldr	r0, [sp, #12]
	.loc	2 245 44 is_stmt 0              @ rt-thread/components/drivers/sdio/block_dev.c:245:44
	adds	r0, #92
	.loc	2 245 27                        @ rt-thread/components/drivers/sdio/block_dev.c:245:27
	str	r0, [sp, #8]
.Ltmp114:
	.loc	2 247 9 is_stmt 1               @ rt-thread/components/drivers/sdio/block_dev.c:247:9
	ldr	r0, [sp, #48]
.Ltmp115:
	.loc	2 247 9 is_stmt 0               @ rt-thread/components/drivers/sdio/block_dev.c:247:9
	cbnz	r0, .LBB7_2
	b	.LBB7_1
.LBB7_1:
	.loc	2 0 9                           @ rt-thread/components/drivers/sdio/block_dev.c:0:9
	mvn	r0, #21
.Ltmp116:
	.loc	2 249 9 is_stmt 1               @ rt-thread/components/drivers/sdio/block_dev.c:249:9
	bl	rt_set_errno
	movs	r0, #0
	.loc	2 250 9                         @ rt-thread/components/drivers/sdio/block_dev.c:250:9
	str	r0, [sp, #52]
	b	.LBB7_13
.Ltmp117:
.LBB7_2:
	.loc	2 253 17                        @ rt-thread/components/drivers/sdio/block_dev.c:253:17
	ldr	r0, [sp, #8]
	.loc	2 253 23 is_stmt 0              @ rt-thread/components/drivers/sdio/block_dev.c:253:23
	ldr	r0, [r0, #12]
	mov.w	r1, #-1
	.loc	2 253 5                         @ rt-thread/components/drivers/sdio/block_dev.c:253:5
	bl	rt_sem_take
	.loc	2 254 5 is_stmt 1               @ rt-thread/components/drivers/sdio/block_dev.c:254:5
	b	.LBB7_3
.LBB7_3:                                @ =>This Inner Loop Header: Depth=1
	.loc	2 254 12 is_stmt 0              @ rt-thread/components/drivers/sdio/block_dev.c:254:12
	ldr	r0, [sp, #20]
	.loc	2 254 5                         @ rt-thread/components/drivers/sdio/block_dev.c:254:5
	cbz	r0, .LBB7_10
	b	.LBB7_4
.LBB7_4:                                @   in Loop: Header=BB7_3 Depth=1
.Ltmp118:
	.loc	2 256 21 is_stmt 1              @ rt-thread/components/drivers/sdio/block_dev.c:256:21
	ldr	r0, [sp, #20]
	.loc	2 256 35 is_stmt 0              @ rt-thread/components/drivers/sdio/block_dev.c:256:35
	ldr	r1, [sp, #12]
	.loc	2 256 44                        @ rt-thread/components/drivers/sdio/block_dev.c:256:44
	ldr	r1, [r1, #120]
	.loc	2 256 20                        @ rt-thread/components/drivers/sdio/block_dev.c:256:20
	cmp	r0, r1
	bls	.LBB7_6
	b	.LBB7_5
.LBB7_5:                                @   in Loop: Header=BB7_3 Depth=1
	.loc	2 256 60                        @ rt-thread/components/drivers/sdio/block_dev.c:256:60
	ldr	r0, [sp, #12]
	.loc	2 256 69                        @ rt-thread/components/drivers/sdio/block_dev.c:256:69
	ldr	r0, [r0, #120]
	.loc	2 256 20                        @ rt-thread/components/drivers/sdio/block_dev.c:256:20
	str	r0, [sp, #4]                    @ 4-byte Spill
	b	.LBB7_7
.LBB7_6:                                @   in Loop: Header=BB7_3 Depth=1
	.loc	2 256 84                        @ rt-thread/components/drivers/sdio/block_dev.c:256:84
	ldr	r0, [sp, #20]
	.loc	2 256 20                        @ rt-thread/components/drivers/sdio/block_dev.c:256:20
	str	r0, [sp, #4]                    @ 4-byte Spill
	b	.LBB7_7
.LBB7_7:                                @   in Loop: Header=BB7_3 Depth=1
	ldr	r0, [sp, #4]                    @ 4-byte Reload
	.loc	2 256 18                        @ rt-thread/components/drivers/sdio/block_dev.c:256:18
	str	r0, [sp, #24]
	.loc	2 257 32 is_stmt 1              @ rt-thread/components/drivers/sdio/block_dev.c:257:32
	ldr	r0, [sp, #12]
	.loc	2 257 41 is_stmt 0              @ rt-thread/components/drivers/sdio/block_dev.c:257:41
	ldr	r0, [r0]
	.loc	2 257 47                        @ rt-thread/components/drivers/sdio/block_dev.c:257:47
	ldr	r1, [sp, #8]
	.loc	2 257 53                        @ rt-thread/components/drivers/sdio/block_dev.c:257:53
	ldr	r1, [r1, #4]
	.loc	2 257 62                        @ rt-thread/components/drivers/sdio/block_dev.c:257:62
	ldr	r2, [sp, #44]
	.loc	2 257 60                        @ rt-thread/components/drivers/sdio/block_dev.c:257:60
	add	r1, r2
	.loc	2 257 68                        @ rt-thread/components/drivers/sdio/block_dev.c:257:68
	ldr	r2, [sp, #28]
	.loc	2 257 66                        @ rt-thread/components/drivers/sdio/block_dev.c:257:66
	add	r1, r2
	.loc	2 257 76                        @ rt-thread/components/drivers/sdio/block_dev.c:257:76
	ldr	r2, [sp, #16]
	.loc	2 257 84                        @ rt-thread/components/drivers/sdio/block_dev.c:257:84
	ldr	r3, [sp, #24]
	.loc	2 257 15                        @ rt-thread/components/drivers/sdio/block_dev.c:257:15
	mov	lr, sp
	mov.w	r12, #0
	str.w	r12, [lr]
	bl	rt_mmcsd_req_blk
	.loc	2 257 13                        @ rt-thread/components/drivers/sdio/block_dev.c:257:13
	str	r0, [sp, #32]
.Ltmp119:
	.loc	2 258 13 is_stmt 1              @ rt-thread/components/drivers/sdio/block_dev.c:258:13
	ldr	r0, [sp, #32]
.Ltmp120:
	.loc	2 258 13 is_stmt 0              @ rt-thread/components/drivers/sdio/block_dev.c:258:13
	cbz	r0, .LBB7_9
	b	.LBB7_8
.LBB7_8:
.Ltmp121:
	.loc	2 259 13 is_stmt 1              @ rt-thread/components/drivers/sdio/block_dev.c:259:13
	b	.LBB7_10
.Ltmp122:
.LBB7_9:                                @   in Loop: Header=BB7_3 Depth=1
	.loc	2 260 19                        @ rt-thread/components/drivers/sdio/block_dev.c:260:19
	ldr	r1, [sp, #24]
	.loc	2 260 16 is_stmt 0              @ rt-thread/components/drivers/sdio/block_dev.c:260:16
	ldr	r0, [sp, #28]
	add	r0, r1
	str	r0, [sp, #28]
	.loc	2 261 41 is_stmt 1              @ rt-thread/components/drivers/sdio/block_dev.c:261:41
	ldr	r0, [sp, #16]
	.loc	2 261 51 is_stmt 0              @ rt-thread/components/drivers/sdio/block_dev.c:261:51
	ldr	r1, [sp, #24]
	.loc	2 261 48                        @ rt-thread/components/drivers/sdio/block_dev.c:261:48
	add.w	r0, r0, r1, lsl #9
	.loc	2 261 16                        @ rt-thread/components/drivers/sdio/block_dev.c:261:16
	str	r0, [sp, #16]
	.loc	2 262 24 is_stmt 1              @ rt-thread/components/drivers/sdio/block_dev.c:262:24
	ldr	r1, [sp, #24]
	.loc	2 262 21 is_stmt 0              @ rt-thread/components/drivers/sdio/block_dev.c:262:21
	ldr	r0, [sp, #20]
	subs	r0, r0, r1
	str	r0, [sp, #20]
.Ltmp123:
	.loc	2 254 5 is_stmt 1               @ rt-thread/components/drivers/sdio/block_dev.c:254:5
	b	.LBB7_3
.LBB7_10:
	.loc	2 264 20                        @ rt-thread/components/drivers/sdio/block_dev.c:264:20
	ldr	r0, [sp, #8]
	.loc	2 264 26 is_stmt 0              @ rt-thread/components/drivers/sdio/block_dev.c:264:26
	ldr	r0, [r0, #12]
	.loc	2 264 5                         @ rt-thread/components/drivers/sdio/block_dev.c:264:5
	bl	rt_sem_release
.Ltmp124:
	.loc	2 267 9 is_stmt 1               @ rt-thread/components/drivers/sdio/block_dev.c:267:9
	ldr	r0, [sp, #32]
.Ltmp125:
	.loc	2 267 9 is_stmt 0               @ rt-thread/components/drivers/sdio/block_dev.c:267:9
	cbz	r0, .LBB7_12
	b	.LBB7_11
.LBB7_11:
	.loc	2 0 9                           @ rt-thread/components/drivers/sdio/block_dev.c:0:9
	mvn	r0, #4
.Ltmp126:
	.loc	2 269 9 is_stmt 1               @ rt-thread/components/drivers/sdio/block_dev.c:269:9
	bl	rt_set_errno
	movs	r0, #0
	.loc	2 270 9                         @ rt-thread/components/drivers/sdio/block_dev.c:270:9
	str	r0, [sp, #52]
	b	.LBB7_13
.Ltmp127:
.LBB7_12:
	.loc	2 272 12                        @ rt-thread/components/drivers/sdio/block_dev.c:272:12
	ldr	r0, [sp, #36]
	.loc	2 272 19 is_stmt 0              @ rt-thread/components/drivers/sdio/block_dev.c:272:19
	ldr	r1, [sp, #20]
	.loc	2 272 17                        @ rt-thread/components/drivers/sdio/block_dev.c:272:17
	subs	r0, r0, r1
	.loc	2 272 5                         @ rt-thread/components/drivers/sdio/block_dev.c:272:5
	str	r0, [sp, #52]
	b	.LBB7_13
.LBB7_13:
	.loc	2 273 1 is_stmt 1               @ rt-thread/components/drivers/sdio/block_dev.c:273:1
	ldr	r0, [sp, #52]
	add	sp, #56
	pop	{r7, pc}
.Ltmp128:
.Lfunc_end7:
	.size	rt_mmcsd_read, .Lfunc_end7-rt_mmcsd_read
	.cfi_endproc
	.cantunwind
	.fnend
                                        @ -- End function
	.section	.text.rt_mmcsd_write,"ax",%progbits
	.p2align	3                               @ -- Begin function rt_mmcsd_write
	.type	rt_mmcsd_write,%function
	.code	16                              @ @rt_mmcsd_write
	.thumb_func
rt_mmcsd_write:
.Lfunc_begin8:
	.loc	2 279 0                         @ rt-thread/components/drivers/sdio/block_dev.c:279:0
	.fnstart
	.cfi_startproc
@ %bb.0:
	.save	{r7, lr}
	push	{r7, lr}
	.cfi_def_cfa_offset 8
	.cfi_offset lr, -4
	.cfi_offset r7, -8
	.pad	#56
	sub	sp, #56
	.cfi_def_cfa_offset 64
	str	r0, [sp, #48]
	str	r1, [sp, #44]
	str	r2, [sp, #40]
	str	r3, [sp, #36]
	movs	r0, #0
.Ltmp129:
	.loc	2 280 14 prologue_end           @ rt-thread/components/drivers/sdio/block_dev.c:280:14
	str	r0, [sp, #32]
	.loc	2 281 15                        @ rt-thread/components/drivers/sdio/block_dev.c:281:15
	str	r0, [sp, #28]
	.loc	2 282 15                        @ rt-thread/components/drivers/sdio/block_dev.c:282:15
	str	r0, [sp, #24]
	.loc	2 283 29                        @ rt-thread/components/drivers/sdio/block_dev.c:283:29
	ldr	r0, [sp, #36]
	.loc	2 283 15 is_stmt 0              @ rt-thread/components/drivers/sdio/block_dev.c:283:15
	str	r0, [sp, #20]
	.loc	2 284 28 is_stmt 1              @ rt-thread/components/drivers/sdio/block_dev.c:284:28
	ldr	r0, [sp, #40]
	.loc	2 284 11 is_stmt 0              @ rt-thread/components/drivers/sdio/block_dev.c:284:11
	str	r0, [sp, #16]
	.loc	2 285 67 is_stmt 1              @ rt-thread/components/drivers/sdio/block_dev.c:285:67
	ldr	r0, [sp, #48]
	.loc	2 285 72 is_stmt 0              @ rt-thread/components/drivers/sdio/block_dev.c:285:72
	ldr	r0, [r0, #76]
	.loc	2 285 30                        @ rt-thread/components/drivers/sdio/block_dev.c:285:30
	str	r0, [sp, #12]
	.loc	2 286 35 is_stmt 1              @ rt-thread/components/drivers/sdio/block_dev.c:286:35
	ldr	r0, [sp, #12]
	.loc	2 286 44 is_stmt 0              @ rt-thread/components/drivers/sdio/block_dev.c:286:44
	adds	r0, #92
	.loc	2 286 27                        @ rt-thread/components/drivers/sdio/block_dev.c:286:27
	str	r0, [sp, #8]
.Ltmp130:
	.loc	2 288 9 is_stmt 1               @ rt-thread/components/drivers/sdio/block_dev.c:288:9
	ldr	r0, [sp, #48]
.Ltmp131:
	.loc	2 288 9 is_stmt 0               @ rt-thread/components/drivers/sdio/block_dev.c:288:9
	cbnz	r0, .LBB8_2
	b	.LBB8_1
.LBB8_1:
	.loc	2 0 9                           @ rt-thread/components/drivers/sdio/block_dev.c:0:9
	mvn	r0, #21
.Ltmp132:
	.loc	2 290 9 is_stmt 1               @ rt-thread/components/drivers/sdio/block_dev.c:290:9
	bl	rt_set_errno
	movs	r0, #0
	.loc	2 291 9                         @ rt-thread/components/drivers/sdio/block_dev.c:291:9
	str	r0, [sp, #52]
	b	.LBB8_13
.Ltmp133:
.LBB8_2:
	.loc	2 294 17                        @ rt-thread/components/drivers/sdio/block_dev.c:294:17
	ldr	r0, [sp, #8]
	.loc	2 294 23 is_stmt 0              @ rt-thread/components/drivers/sdio/block_dev.c:294:23
	ldr	r0, [r0, #12]
	mov.w	r1, #-1
	.loc	2 294 5                         @ rt-thread/components/drivers/sdio/block_dev.c:294:5
	bl	rt_sem_take
	.loc	2 295 5 is_stmt 1               @ rt-thread/components/drivers/sdio/block_dev.c:295:5
	b	.LBB8_3
.LBB8_3:                                @ =>This Inner Loop Header: Depth=1
	.loc	2 295 12 is_stmt 0              @ rt-thread/components/drivers/sdio/block_dev.c:295:12
	ldr	r0, [sp, #20]
	.loc	2 295 5                         @ rt-thread/components/drivers/sdio/block_dev.c:295:5
	cbz	r0, .LBB8_10
	b	.LBB8_4
.LBB8_4:                                @   in Loop: Header=BB8_3 Depth=1
.Ltmp134:
	.loc	2 297 21 is_stmt 1              @ rt-thread/components/drivers/sdio/block_dev.c:297:21
	ldr	r0, [sp, #20]
	.loc	2 297 35 is_stmt 0              @ rt-thread/components/drivers/sdio/block_dev.c:297:35
	ldr	r1, [sp, #12]
	.loc	2 297 44                        @ rt-thread/components/drivers/sdio/block_dev.c:297:44
	ldr	r1, [r1, #120]
	.loc	2 297 20                        @ rt-thread/components/drivers/sdio/block_dev.c:297:20
	cmp	r0, r1
	bls	.LBB8_6
	b	.LBB8_5
.LBB8_5:                                @   in Loop: Header=BB8_3 Depth=1
	.loc	2 297 60                        @ rt-thread/components/drivers/sdio/block_dev.c:297:60
	ldr	r0, [sp, #12]
	.loc	2 297 69                        @ rt-thread/components/drivers/sdio/block_dev.c:297:69
	ldr	r0, [r0, #120]
	.loc	2 297 20                        @ rt-thread/components/drivers/sdio/block_dev.c:297:20
	str	r0, [sp, #4]                    @ 4-byte Spill
	b	.LBB8_7
.LBB8_6:                                @   in Loop: Header=BB8_3 Depth=1
	.loc	2 297 84                        @ rt-thread/components/drivers/sdio/block_dev.c:297:84
	ldr	r0, [sp, #20]
	.loc	2 297 20                        @ rt-thread/components/drivers/sdio/block_dev.c:297:20
	str	r0, [sp, #4]                    @ 4-byte Spill
	b	.LBB8_7
.LBB8_7:                                @   in Loop: Header=BB8_3 Depth=1
	ldr	r0, [sp, #4]                    @ 4-byte Reload
	.loc	2 297 18                        @ rt-thread/components/drivers/sdio/block_dev.c:297:18
	str	r0, [sp, #24]
	.loc	2 298 32 is_stmt 1              @ rt-thread/components/drivers/sdio/block_dev.c:298:32
	ldr	r0, [sp, #12]
	.loc	2 298 41 is_stmt 0              @ rt-thread/components/drivers/sdio/block_dev.c:298:41
	ldr	r0, [r0]
	.loc	2 298 47                        @ rt-thread/components/drivers/sdio/block_dev.c:298:47
	ldr	r1, [sp, #8]
	.loc	2 298 53                        @ rt-thread/components/drivers/sdio/block_dev.c:298:53
	ldr	r1, [r1, #4]
	.loc	2 298 62                        @ rt-thread/components/drivers/sdio/block_dev.c:298:62
	ldr	r2, [sp, #44]
	.loc	2 298 60                        @ rt-thread/components/drivers/sdio/block_dev.c:298:60
	add	r1, r2
	.loc	2 298 68                        @ rt-thread/components/drivers/sdio/block_dev.c:298:68
	ldr	r2, [sp, #28]
	.loc	2 298 66                        @ rt-thread/components/drivers/sdio/block_dev.c:298:66
	add	r1, r2
	.loc	2 298 76                        @ rt-thread/components/drivers/sdio/block_dev.c:298:76
	ldr	r2, [sp, #16]
	.loc	2 298 84                        @ rt-thread/components/drivers/sdio/block_dev.c:298:84
	ldr	r3, [sp, #24]
	.loc	2 298 15                        @ rt-thread/components/drivers/sdio/block_dev.c:298:15
	mov	lr, sp
	mov.w	r12, #1
	str.w	r12, [lr]
	bl	rt_mmcsd_req_blk
	.loc	2 298 13                        @ rt-thread/components/drivers/sdio/block_dev.c:298:13
	str	r0, [sp, #32]
.Ltmp135:
	.loc	2 299 13 is_stmt 1              @ rt-thread/components/drivers/sdio/block_dev.c:299:13
	ldr	r0, [sp, #32]
.Ltmp136:
	.loc	2 299 13 is_stmt 0              @ rt-thread/components/drivers/sdio/block_dev.c:299:13
	cbz	r0, .LBB8_9
	b	.LBB8_8
.LBB8_8:
.Ltmp137:
	.loc	2 300 13 is_stmt 1              @ rt-thread/components/drivers/sdio/block_dev.c:300:13
	b	.LBB8_10
.Ltmp138:
.LBB8_9:                                @   in Loop: Header=BB8_3 Depth=1
	.loc	2 301 19                        @ rt-thread/components/drivers/sdio/block_dev.c:301:19
	ldr	r1, [sp, #24]
	.loc	2 301 16 is_stmt 0              @ rt-thread/components/drivers/sdio/block_dev.c:301:16
	ldr	r0, [sp, #28]
	add	r0, r1
	str	r0, [sp, #28]
	.loc	2 302 41 is_stmt 1              @ rt-thread/components/drivers/sdio/block_dev.c:302:41
	ldr	r0, [sp, #16]
	.loc	2 302 51 is_stmt 0              @ rt-thread/components/drivers/sdio/block_dev.c:302:51
	ldr	r1, [sp, #24]
	.loc	2 302 48                        @ rt-thread/components/drivers/sdio/block_dev.c:302:48
	add.w	r0, r0, r1, lsl #9
	.loc	2 302 16                        @ rt-thread/components/drivers/sdio/block_dev.c:302:16
	str	r0, [sp, #16]
	.loc	2 303 24 is_stmt 1              @ rt-thread/components/drivers/sdio/block_dev.c:303:24
	ldr	r1, [sp, #24]
	.loc	2 303 21 is_stmt 0              @ rt-thread/components/drivers/sdio/block_dev.c:303:21
	ldr	r0, [sp, #20]
	subs	r0, r0, r1
	str	r0, [sp, #20]
.Ltmp139:
	.loc	2 295 5 is_stmt 1               @ rt-thread/components/drivers/sdio/block_dev.c:295:5
	b	.LBB8_3
.LBB8_10:
	.loc	2 305 20                        @ rt-thread/components/drivers/sdio/block_dev.c:305:20
	ldr	r0, [sp, #8]
	.loc	2 305 26 is_stmt 0              @ rt-thread/components/drivers/sdio/block_dev.c:305:26
	ldr	r0, [r0, #12]
	.loc	2 305 5                         @ rt-thread/components/drivers/sdio/block_dev.c:305:5
	bl	rt_sem_release
.Ltmp140:
	.loc	2 308 9 is_stmt 1               @ rt-thread/components/drivers/sdio/block_dev.c:308:9
	ldr	r0, [sp, #32]
.Ltmp141:
	.loc	2 308 9 is_stmt 0               @ rt-thread/components/drivers/sdio/block_dev.c:308:9
	cbz	r0, .LBB8_12
	b	.LBB8_11
.LBB8_11:
	.loc	2 0 9                           @ rt-thread/components/drivers/sdio/block_dev.c:0:9
	mvn	r0, #4
.Ltmp142:
	.loc	2 310 9 is_stmt 1               @ rt-thread/components/drivers/sdio/block_dev.c:310:9
	bl	rt_set_errno
	movs	r0, #0
	.loc	2 312 9                         @ rt-thread/components/drivers/sdio/block_dev.c:312:9
	str	r0, [sp, #52]
	b	.LBB8_13
.Ltmp143:
.LBB8_12:
	.loc	2 314 12                        @ rt-thread/components/drivers/sdio/block_dev.c:314:12
	ldr	r0, [sp, #36]
	.loc	2 314 19 is_stmt 0              @ rt-thread/components/drivers/sdio/block_dev.c:314:19
	ldr	r1, [sp, #20]
	.loc	2 314 17                        @ rt-thread/components/drivers/sdio/block_dev.c:314:17
	subs	r0, r0, r1
	.loc	2 314 5                         @ rt-thread/components/drivers/sdio/block_dev.c:314:5
	str	r0, [sp, #52]
	b	.LBB8_13
.LBB8_13:
	.loc	2 315 1 is_stmt 1               @ rt-thread/components/drivers/sdio/block_dev.c:315:1
	ldr	r0, [sp, #52]
	add	sp, #56
	pop	{r7, pc}
.Ltmp144:
.Lfunc_end8:
	.size	rt_mmcsd_write, .Lfunc_end8-rt_mmcsd_write
	.cfi_endproc
	.cantunwind
	.fnend
                                        @ -- End function
	.section	.text.rt_mmcsd_control,"ax",%progbits
	.p2align	3                               @ -- Begin function rt_mmcsd_control
	.type	rt_mmcsd_control,%function
	.code	16                              @ @rt_mmcsd_control
	.thumb_func
rt_mmcsd_control:
.Lfunc_begin9:
	.loc	2 221 0                         @ rt-thread/components/drivers/sdio/block_dev.c:221:0
	.fnstart
	.cfi_startproc
@ %bb.0:
	.save	{r7, lr}
	push	{r7, lr}
	.cfi_def_cfa_offset 8
	.cfi_offset lr, -4
	.cfi_offset r7, -8
	.pad	#16
	sub	sp, #16
	.cfi_def_cfa_offset 24
	str	r0, [sp, #12]
	str	r1, [sp, #8]
	str	r2, [sp, #4]
.Ltmp145:
	.loc	2 222 67 prologue_end           @ rt-thread/components/drivers/sdio/block_dev.c:222:67
	ldr	r0, [sp, #12]
	.loc	2 222 72 is_stmt 0              @ rt-thread/components/drivers/sdio/block_dev.c:222:72
	ldr	r0, [r0, #76]
	.loc	2 222 30                        @ rt-thread/components/drivers/sdio/block_dev.c:222:30
	str	r0, [sp]
	.loc	2 223 13 is_stmt 1              @ rt-thread/components/drivers/sdio/block_dev.c:223:13
	ldr	r0, [sp, #8]
	.loc	2 223 5 is_stmt 0               @ rt-thread/components/drivers/sdio/block_dev.c:223:5
	cmp	r0, #16
	bne	.LBB9_2
	b	.LBB9_1
.LBB9_1:
.Ltmp146:
	.loc	2 226 19 is_stmt 1              @ rt-thread/components/drivers/sdio/block_dev.c:226:19
	ldr	r0, [sp, #4]
	.loc	2 226 26 is_stmt 0              @ rt-thread/components/drivers/sdio/block_dev.c:226:26
	ldr	r1, [sp]
	.loc	2 226 35                        @ rt-thread/components/drivers/sdio/block_dev.c:226:35
	adds	r1, #108
	movs	r2, #12
	.loc	2 226 9                         @ rt-thread/components/drivers/sdio/block_dev.c:226:9
	bl	rt_memcpy
	.loc	2 227 9 is_stmt 1               @ rt-thread/components/drivers/sdio/block_dev.c:227:9
	b	.LBB9_3
.LBB9_2:
	.loc	2 229 9                         @ rt-thread/components/drivers/sdio/block_dev.c:229:9
	b	.LBB9_3
.Ltmp147:
.LBB9_3:
	.loc	2 0 9 is_stmt 0                 @ rt-thread/components/drivers/sdio/block_dev.c:0:9
	movs	r0, #0
	.loc	2 231 5 is_stmt 1               @ rt-thread/components/drivers/sdio/block_dev.c:231:5
	add	sp, #16
	pop	{r7, pc}
.Ltmp148:
.Lfunc_end9:
	.size	rt_mmcsd_control, .Lfunc_end9-rt_mmcsd_control
	.cfi_endproc
	.cantunwind
	.fnend
                                        @ -- End function
	.section	.text.rt_list_insert_after,"ax",%progbits
	.p2align	3                               @ -- Begin function rt_list_insert_after
	.type	rt_list_insert_after,%function
	.code	16                              @ @rt_list_insert_after
	.thumb_func
rt_list_insert_after:
.Lfunc_begin10:
	.file	10 "E:\\Smart-access-control\\Hardware\\CODE" "rt-thread/include\\rtservice.h"
	.loc	10 59 0                         @ rt-thread/include\rtservice.h:59:0
	.fnstart
	.cfi_startproc
@ %bb.0:
	.pad	#8
	sub	sp, #8
	.cfi_def_cfa_offset 8
	str	r0, [sp, #4]
	str	r1, [sp]
.Ltmp149:
	.loc	10 60 21 prologue_end           @ rt-thread/include\rtservice.h:60:21
	ldr	r0, [sp]
	.loc	10 60 5 is_stmt 0               @ rt-thread/include\rtservice.h:60:5
	ldr	r1, [sp, #4]
	.loc	10 60 8                         @ rt-thread/include\rtservice.h:60:8
	ldr	r1, [r1]
	.loc	10 60 19                        @ rt-thread/include\rtservice.h:60:19
	str	r0, [r1, #4]
	.loc	10 61 15 is_stmt 1              @ rt-thread/include\rtservice.h:61:15
	ldr	r0, [sp, #4]
	.loc	10 61 18 is_stmt 0              @ rt-thread/include\rtservice.h:61:18
	ldr	r0, [r0]
	.loc	10 61 5                         @ rt-thread/include\rtservice.h:61:5
	ldr	r1, [sp]
	.loc	10 61 13                        @ rt-thread/include\rtservice.h:61:13
	str	r0, [r1]
	.loc	10 63 15 is_stmt 1              @ rt-thread/include\rtservice.h:63:15
	ldr	r0, [sp]
	.loc	10 63 5 is_stmt 0               @ rt-thread/include\rtservice.h:63:5
	ldr	r1, [sp, #4]
	.loc	10 63 13                        @ rt-thread/include\rtservice.h:63:13
	str	r0, [r1]
	.loc	10 64 15 is_stmt 1              @ rt-thread/include\rtservice.h:64:15
	ldr	r0, [sp, #4]
	.loc	10 64 5 is_stmt 0               @ rt-thread/include\rtservice.h:64:5
	ldr	r1, [sp]
	.loc	10 64 13                        @ rt-thread/include\rtservice.h:64:13
	str	r0, [r1, #4]
	.loc	10 65 1 is_stmt 1               @ rt-thread/include\rtservice.h:65:1
	add	sp, #8
	bx	lr
.Ltmp150:
.Lfunc_end10:
	.size	rt_list_insert_after, .Lfunc_end10-rt_list_insert_after
	.cfi_endproc
	.cantunwind
	.fnend
                                        @ -- End function
	.section	.text.rt_mmcsd_blk_remove,"ax",%progbits
	.hidden	rt_mmcsd_blk_remove             @ -- Begin function rt_mmcsd_blk_remove
	.globl	rt_mmcsd_blk_remove
	.p2align	3
	.type	rt_mmcsd_blk_remove,%function
	.code	16                              @ @rt_mmcsd_blk_remove
	.thumb_func
rt_mmcsd_blk_remove:
.Lfunc_begin11:
	.loc	2 495 0                         @ rt-thread/components/drivers/sdio/block_dev.c:495:0
	.fnstart
	.cfi_startproc
@ %bb.0:
	.save	{r7, lr}
	push	{r7, lr}
	.cfi_def_cfa_offset 8
	.cfi_offset lr, -4
	.cfi_offset r7, -8
	.pad	#24
	sub	sp, #24
	.cfi_def_cfa_offset 32
	str	r0, [sp, #20]
.Ltmp151:
	.loc	2 499 30 prologue_end           @ rt-thread/components/drivers/sdio/block_dev.c:499:30
	movw	r0, :lower16:blk_devices
	movt	r0, :upper16:blk_devices
	ldr	r0, [r0]
	.loc	2 499 12 is_stmt 0              @ rt-thread/components/drivers/sdio/block_dev.c:499:12
	str	r0, [sp, #16]
	.loc	2 499 40                        @ rt-thread/components/drivers/sdio/block_dev.c:499:40
	ldr	r0, [sp, #16]
	.loc	2 499 43                        @ rt-thread/components/drivers/sdio/block_dev.c:499:43
	ldr	r0, [r0]
	.loc	2 499 38                        @ rt-thread/components/drivers/sdio/block_dev.c:499:38
	str	r0, [sp, #12]
	.loc	2 499 10                        @ rt-thread/components/drivers/sdio/block_dev.c:499:10
	b	.LBB11_1
.LBB11_1:                               @ =>This Inner Loop Header: Depth=1
.Ltmp152:
	.loc	2 499 49                        @ rt-thread/components/drivers/sdio/block_dev.c:499:49
	ldr	r0, [sp, #16]
	.loc	2 499 51                        @ rt-thread/components/drivers/sdio/block_dev.c:499:51
	movw	r1, :lower16:blk_devices
	movt	r1, :upper16:blk_devices
.Ltmp153:
	.loc	2 499 5                         @ rt-thread/components/drivers/sdio/block_dev.c:499:5
	cmp	r0, r1
	beq	.LBB11_8
	b	.LBB11_2
.LBB11_2:                               @   in Loop: Header=BB11_1 Depth=1
.Ltmp154:
	.loc	2 501 46 is_stmt 1              @ rt-thread/components/drivers/sdio/block_dev.c:501:46
	ldr	r0, [sp, #16]
	subs	r0, #4
	.loc	2 501 17 is_stmt 0              @ rt-thread/components/drivers/sdio/block_dev.c:501:17
	str	r0, [sp, #8]
.Ltmp155:
	.loc	2 502 13 is_stmt 1              @ rt-thread/components/drivers/sdio/block_dev.c:502:13
	ldr	r0, [sp, #8]
	.loc	2 502 22 is_stmt 0              @ rt-thread/components/drivers/sdio/block_dev.c:502:22
	ldr	r0, [r0]
	.loc	2 502 30                        @ rt-thread/components/drivers/sdio/block_dev.c:502:30
	ldr	r1, [sp, #20]
.Ltmp156:
	.loc	2 502 13                        @ rt-thread/components/drivers/sdio/block_dev.c:502:13
	cmp	r0, r1
	bne	.LBB11_6
	b	.LBB11_3
.LBB11_3:                               @   in Loop: Header=BB11_1 Depth=1
.Ltmp157:
	.loc	2 505 72 is_stmt 1              @ rt-thread/components/drivers/sdio/block_dev.c:505:72
	ldr	r0, [sp, #8]
	.loc	2 505 81 is_stmt 0              @ rt-thread/components/drivers/sdio/block_dev.c:505:81
	adds	r0, #12
	.loc	2 505 38                        @ rt-thread/components/drivers/sdio/block_dev.c:505:38
	bl	dfs_filesystem_get_mounted_path
	.loc	2 505 23                        @ rt-thread/components/drivers/sdio/block_dev.c:505:23
	str	r0, [sp, #4]
.Ltmp158:
	.loc	2 506 14 is_stmt 1              @ rt-thread/components/drivers/sdio/block_dev.c:506:14
	ldr	r0, [sp, #4]
.Ltmp159:
	.loc	2 506 14 is_stmt 0              @ rt-thread/components/drivers/sdio/block_dev.c:506:14
	cbz	r0, .LBB11_5
	b	.LBB11_4
.LBB11_4:                               @   in Loop: Header=BB11_1 Depth=1
.Ltmp160:
	.loc	2 508 31 is_stmt 1              @ rt-thread/components/drivers/sdio/block_dev.c:508:31
	ldr	r0, [sp, #4]
	.loc	2 508 19 is_stmt 0              @ rt-thread/components/drivers/sdio/block_dev.c:508:19
	bl	dfs_unmount
	.loc	2 510 10 is_stmt 1              @ rt-thread/components/drivers/sdio/block_dev.c:510:10
	b	.LBB11_5
.Ltmp161:
.LBB11_5:                               @   in Loop: Header=BB11_1 Depth=1
	.loc	2 511 27                        @ rt-thread/components/drivers/sdio/block_dev.c:511:27
	ldr	r0, [sp, #8]
	.loc	2 511 41 is_stmt 0              @ rt-thread/components/drivers/sdio/block_dev.c:511:41
	ldr	r0, [r0, #104]
	.loc	2 511 13                        @ rt-thread/components/drivers/sdio/block_dev.c:511:13
	bl	rt_sem_delete
	.loc	2 512 35 is_stmt 1              @ rt-thread/components/drivers/sdio/block_dev.c:512:35
	ldr	r0, [sp, #8]
	.loc	2 512 44 is_stmt 0              @ rt-thread/components/drivers/sdio/block_dev.c:512:44
	adds	r0, #12
	.loc	2 512 13                        @ rt-thread/components/drivers/sdio/block_dev.c:512:13
	bl	rt_device_unregister
	.loc	2 513 29 is_stmt 1              @ rt-thread/components/drivers/sdio/block_dev.c:513:29
	ldr	r0, [sp, #8]
	.loc	2 513 38 is_stmt 0              @ rt-thread/components/drivers/sdio/block_dev.c:513:38
	adds	r0, #4
	.loc	2 513 13                        @ rt-thread/components/drivers/sdio/block_dev.c:513:13
	bl	rt_list_remove
	.loc	2 514 21 is_stmt 1              @ rt-thread/components/drivers/sdio/block_dev.c:514:21
	ldr	r0, [sp, #8]
	.loc	2 514 13 is_stmt 0              @ rt-thread/components/drivers/sdio/block_dev.c:514:13
	bl	rt_free
	.loc	2 515 9 is_stmt 1               @ rt-thread/components/drivers/sdio/block_dev.c:515:9
	b	.LBB11_6
.Ltmp162:
.LBB11_6:                               @   in Loop: Header=BB11_1 Depth=1
	.loc	2 516 5                         @ rt-thread/components/drivers/sdio/block_dev.c:516:5
	b	.LBB11_7
.Ltmp163:
.LBB11_7:                               @   in Loop: Header=BB11_1 Depth=1
	.loc	2 499 72                        @ rt-thread/components/drivers/sdio/block_dev.c:499:72
	ldr	r0, [sp, #12]
	.loc	2 499 70 is_stmt 0              @ rt-thread/components/drivers/sdio/block_dev.c:499:70
	str	r0, [sp, #16]
	.loc	2 499 5                         @ rt-thread/components/drivers/sdio/block_dev.c:499:5
	b	.LBB11_1
.Ltmp164:
.LBB11_8:
	.loc	2 517 1 is_stmt 1               @ rt-thread/components/drivers/sdio/block_dev.c:517:1
	add	sp, #24
	pop	{r7, pc}
.Ltmp165:
.Lfunc_end11:
	.size	rt_mmcsd_blk_remove, .Lfunc_end11-rt_mmcsd_blk_remove
	.cfi_endproc
	.cantunwind
	.fnend
                                        @ -- End function
	.section	.text.rt_list_remove,"ax",%progbits
	.p2align	3                               @ -- Begin function rt_list_remove
	.type	rt_list_remove,%function
	.code	16                              @ @rt_list_remove
	.thumb_func
rt_list_remove:
.Lfunc_begin12:
	.loc	10 87 0                         @ rt-thread/include\rtservice.h:87:0
	.fnstart
	.cfi_startproc
@ %bb.0:
	.pad	#4
	sub	sp, #4
	.cfi_def_cfa_offset 4
	str	r0, [sp]
.Ltmp166:
	.loc	10 88 21 prologue_end           @ rt-thread/include\rtservice.h:88:21
	ldr	r0, [sp]
	.loc	10 88 8 is_stmt 0               @ rt-thread/include\rtservice.h:88:8
	ldr	r1, [r0]
	.loc	10 88 24                        @ rt-thread/include\rtservice.h:88:24
	ldr	r0, [r0, #4]
	.loc	10 88 19                        @ rt-thread/include\rtservice.h:88:19
	str	r0, [r1, #4]
	.loc	10 89 21 is_stmt 1              @ rt-thread/include\rtservice.h:89:21
	ldr	r1, [sp]
	.loc	10 89 24 is_stmt 0              @ rt-thread/include\rtservice.h:89:24
	ldr	r0, [r1]
	.loc	10 89 8                         @ rt-thread/include\rtservice.h:89:8
	ldr	r1, [r1, #4]
	.loc	10 89 19                        @ rt-thread/include\rtservice.h:89:19
	str	r0, [r1]
	.loc	10 91 25 is_stmt 1              @ rt-thread/include\rtservice.h:91:25
	ldr	r0, [sp]
	.loc	10 91 23 is_stmt 0              @ rt-thread/include\rtservice.h:91:23
	str	r0, [r0, #4]
	.loc	10 91 5                         @ rt-thread/include\rtservice.h:91:5
	ldr	r1, [sp]
	.loc	10 91 13                        @ rt-thread/include\rtservice.h:91:13
	str	r0, [r1]
	.loc	10 92 1 is_stmt 1               @ rt-thread/include\rtservice.h:92:1
	add	sp, #4
	bx	lr
.Ltmp167:
.Lfunc_end12:
	.size	rt_list_remove, .Lfunc_end12-rt_list_remove
	.cfi_endproc
	.cantunwind
	.fnend
                                        @ -- End function
	.section	.text.rt_mmcsd_blk_init,"ax",%progbits
	.hidden	rt_mmcsd_blk_init               @ -- Begin function rt_mmcsd_blk_init
	.globl	rt_mmcsd_blk_init
	.p2align	3
	.type	rt_mmcsd_blk_init,%function
	.code	16                              @ @rt_mmcsd_blk_init
	.thumb_func
rt_mmcsd_blk_init:
.Lfunc_begin13:
	.loc	2 526 0                         @ rt-thread/components/drivers/sdio/block_dev.c:526:0
	.fnstart
	.cfi_startproc
@ %bb.0:
	movs	r0, #0
.Ltmp168:
	.loc	2 528 5 prologue_end            @ rt-thread/components/drivers/sdio/block_dev.c:528:5
	bx	lr
.Ltmp169:
.Lfunc_end13:
	.size	rt_mmcsd_blk_init, .Lfunc_end13-rt_mmcsd_blk_init
	.cfi_endproc
	.cantunwind
	.fnend
                                        @ -- End function
	.type	.L.str,%object                  @ @.str
	.section	.rodata.str1.1,"aMS",%progbits,1
.L.str:
	.asciz	"[E/SDIO] "
	.size	.L.str, 10

	.type	.L.str.1,%object                @ @.str.1
.L.str.1:
	.asciz	"allocate partition sector buffer failed!"
	.size	.L.str.1, 41

	.type	.L.str.2,%object                @ @.str.2
.L.str.2:
	.asciz	"\n"
	.size	.L.str.2, 2

	.type	.L.str.3,%object                @ @.str.3
.L.str.3:
	.asciz	"mmcsd:malloc memory failed!"
	.size	.L.str.3, 28

	.type	.L.str.4,%object                @ @.str.4
.L.str.4:
	.asciz	"sd%d"
	.size	.L.str.4, 5

	.type	.L.str.5,%object                @ @.str.5
.L.str.5:
	.asciz	"sem_sd%d"
	.size	.L.str.5, 9

	.type	blk_devices,%object             @ @blk_devices
	.section	.data.blk_devices,"aw",%progbits
	.p2align	2
blk_devices:
	.long	blk_devices
	.long	blk_devices
	.size	blk_devices, 8

	.type	.L.str.6,%object                @ @.str.6
	.section	.rodata.str1.1,"aMS",%progbits,1
.L.str.6:
	.asciz	"sem_sd0"
	.size	.L.str.6, 8

	.type	.L.str.7,%object                @ @.str.7
.L.str.7:
	.asciz	"sd0"
	.size	.L.str.7, 4

	.type	.L.str.8,%object                @ @.str.8
.L.str.8:
	.asciz	"read mmcsd first sector failed"
	.size	.L.str.8, 31

	.type	.L.str.9,%object                @ @.str.9
.L.str.9:
	.asciz	"MMCSD: unable to set block size to %d: %d"
	.size	.L.str.9, 42

	.type	.L.str.10,%object               @ @.str.10
.L.str.10:
	.asciz	"error %d requesting status"
	.size	.L.str.10, 27

	.type	.L.str.11,%object               @ @.str.11
.L.str.11:
	.asciz	"mmcsd request blocks error"
	.size	.L.str.11, 27

	.type	.L.str.12,%object               @ @.str.12
.L.str.12:
	.asciz	"%d,%d,%d, 0x%08x,0x%08x"
	.size	.L.str.12, 24

	.section	".note.GNU-stack","",%progbits
	.eabi_attribute	30, 6	@ Tag_ABI_optimization_goals
	.ARM_attribute	16, 1	@ Tag_AV_eba