	.text
	.syntax unified
	.eabi_attribute	67, "2.09"	@ Tag_conformance
	.cpu	cortex-m7
	.eabi_attribute	6, 13	@ Tag_CPU_arch
	.eabi_attribute	7, 77	@ Tag_CPU_arch_profile
	.eabi_attribute	8, 0	@ Tag_ARM_ISA_use
	.eabi_attribute	9, 2	@ Tag_THUMB_ISA_use
	.fpu	fpv5-d16
	.eabi_attribute	36, 1	@ Tag_FP_HP_extension
	.eabi_attribute	34, 1	@ Tag_CPU_unaligned_access
	.eabi_attribute	17, 1	@ Tag_ABI_PCS_GOT_use
	.eabi_attribute	20, 2	@ Tag_ABI_FP_denormal
	.eabi_attribute	21, 0	@ Tag_ABI_FP_exceptions
	.eabi_attribute	23, 1	@ Tag_ABI_FP_number_model
	.eabi_attribute	24, 1	@ Tag_ABI_align_needed
	.eabi_attribute	25, 1	@ Tag_ABI_align_preserved
	.eabi_attribute	28, 1	@ Tag_ABI_VFP_args
	.eabi_attribute	38, 1	@ Tag_ABI_FP_16bit_format
	.eabi_attribute	18, 2	@ Tag_ABI_PCS_wchar_t
	.eabi_attribute	26, 1	@ Tag_ABI_enum_size
	.eabi_attribute	14, 0	@ Tag_ABI_PCS_R9_use
	.file	"board.c"
	.file	1 "E:\\STM32\\Learning\\STM32H750_ART_PI_RGBLCD" "rt-thread/include\\rtdef.h"
	.file	2 "E:\\STM32\\Learning\\STM32H750_ART_PI_RGBLCD" "board/board.c"
	.file	3 "E:\\STM32\\Learning\\STM32H750_ART_PI_RGBLCD" "libraries/STM32H7xx_HAL/STM32H7xx_HAL_Driver/Inc/stm32h7xx_hal_def.h"
	.file	4 "D:\\Keil_v5\\ARM\\ARMCLANG\\Bin\\..\\include" "stdint.h"
	.file	5 "E:\\STM32\\Learning\\STM32H750_ART_PI_RGBLCD" "libraries/STM32H7xx_HAL/CMSIS/Device/ST/STM32H7xx/Include/stm32h750xx.h"
	.section	.text.system_clock_config,"ax",%progbits
	.hidden	system_clock_config             @ -- Begin function system_clock_config
	.globl	system_clock_config
	.p2align	3
	.type	system_clock_config,%function
	.code	16                              @ @system_clock_config
	.thumb_func
system_clock_config:
.Lfunc_begin0:
	.loc	2 20 0                          @ board/board.c:20:0
	.fnstart
	.cfi_sections .debug_frame
	.cfi_startproc
@ %bb.0:
	.save	{r7, lr}
	push	{r7, lr}
	.cfi_def_cfa_offset 8
	.cfi_offset lr, -4
	.cfi_offset r7, -8
	.pad	#312
	sub	sp, #312
	.cfi_def_cfa_offset 320
	str	r0, [sp, #308]
	add	r0, sp, #232
	movs	r1, #76
.Ltmp0:
	.loc	2 21 22 prologue_end            @ board/board.c:21:22
	bl	__aeabi_memclr4
	movs	r0, #0
	.loc	2 22 22                         @ board/board.c:22:22
	str	r0, [sp, #4]                    @ 4-byte Spill
	str	r0, [sp, #228]
	str	r0, [sp, #224]
	str	r0, [sp, #220]
	str	r0, [sp, #216]
	str	r0, [sp, #212]
	str	r0, [sp, #208]
	str	r0, [sp, #204]
	str	r0, [sp, #200]
	add	r0, sp, #12
	movs	r1, #188
	.loc	2 23 28                         @ board/board.c:23:28
	bl	__aeabi_memclr4
	movs	r0, #2
	.loc	2 27 3                          @ board/board.c:27:3
	bl	HAL_PWREx_ConfigSupply
	.loc	2 30 3                          @ board/board.c:30:3
	b	.LBB0_1
.LBB0_1:
	.loc	2 0 3 is_stmt 0                 @ board/board.c:0:3
	movs	r0, #0
.Ltmp1:
	.loc	2 30 3                          @ board/board.c:30:3
	str	r0, [sp, #8]
	movw	r0, #18456
	movt	r0, #22530
.Ltmp2:
	.loc	2 30 3                          @ board/board.c:30:3
	ldr	r1, [r0]
	orr	r1, r1, #49152
	str	r1, [r0]
	ldr	r0, [r0]
	and	r0, r0, #49152
	str	r0, [sp, #8]
	movw	r0, #1068
	movt	r0, #22528
	ldr	r1, [r0]
	orr	r1, r1, #1
	str	r1, [r0]
	ldr	r0, [r0]
	and	r0, r0, #1
	str	r0, [sp, #8]
.Ltmp3:
	.loc	2 30 3                          @ board/board.c:30:3
	ldr	r0, [sp, #8]
	b	.LBB0_2
.Ltmp4:
.LBB0_2:
	.loc	2 32 3 is_stmt 1                @ board/board.c:32:3
	b	.LBB0_3
.LBB0_3:                                @ =>This Inner Loop Header: Depth=1
	.loc	2 0 3 is_stmt 0                 @ board/board.c:0:3
	movw	r0, #18456
	movt	r0, #22530
	.loc	2 32 10                         @ board/board.c:32:10
	ldr	r0, [r0]
	and	r0, r0, #8192
	.loc	2 32 3                          @ board/board.c:32:3
	cmp.w	r0, #8192
	beq	.LBB0_5
	b	.LBB0_4
.LBB0_4:                                @   in Loop: Header=BB0_3 Depth=1
	b	.LBB0_3
.LBB0_5:
	.loc	2 0 3                           @ board/board.c:0:3
	movw	r2, #17448
	movt	r2, #22530
	.loc	2 35 3 is_stmt 1                @ board/board.c:35:3
	ldr	r1, [r2]
	movs	r0, #2
	bfi	r1, r0, #0, #2
	str	r1, [r2]
	movs	r1, #33
	.loc	2 39 36                         @ board/board.c:39:36
	str	r1, [sp, #232]
	mov.w	r1, #65536
	.loc	2 40 30                         @ board/board.c:40:30
	str	r1, [sp, #236]
	movs	r1, #1
	.loc	2 41 32                         @ board/board.c:41:32
	str	r1, [sp, #256]
	.loc	2 42 34                         @ board/board.c:42:34
	str	r0, [sp, #268]
	.loc	2 43 35                         @ board/board.c:43:35
	str	r0, [sp, #272]
	movs	r1, #5
	.loc	2 44 30                         @ board/board.c:44:30
	str	r1, [sp, #276]
	movs	r1, #192
	.loc	2 45 30                         @ board/board.c:45:30
	str	r1, [sp, #280]
	.loc	2 46 30                         @ board/board.c:46:30
	str	r0, [sp, #284]
	.loc	2 47 30                         @ board/board.c:47:30
	str	r0, [sp, #288]
	.loc	2 48 30                         @ board/board.c:48:30
	str	r0, [sp, #292]
	movs	r0, #8
	.loc	2 49 32                         @ board/board.c:49:32
	str	r0, [sp, #296]
	movs	r0, #0
	.loc	2 50 35                         @ board/board.c:50:35
	str	r0, [sp, #300]
	.loc	2 51 34                         @ board/board.c:51:34
	str	r0, [sp, #304]
	add	r0, sp, #232
.Ltmp5:
	.loc	2 52 7                          @ board/board.c:52:7
	bl	HAL_RCC_OscConfig
.Ltmp6:
	.loc	2 52 7 is_stmt 0                @ board/board.c:52:7
	cbz	r0, .LBB0_7
	b	.LBB0_6
.LBB0_6:
.Ltmp7:
	.loc	2 54 5 is_stmt 1                @ board/board.c:54:5
	movw	r0, :lower16:.L.str
	movt	r0, :upper16:.L.str
	movs	r1, #54
	bl	_Error_Handler
	.loc	2 55 3                          @ board/board.c:55:3
	b	.LBB0_7
.Ltmp8:
.LBB0_7:
	.loc	2 0 3 is_stmt 0                 @ board/board.c:0:3
	movs	r0, #63
	.loc	2 58 31 is_stmt 1               @ board/board.c:58:31
	str	r0, [sp, #200]
	movs	r0, #3
	.loc	2 61 34                         @ board/board.c:61:34
	str	r0, [sp, #204]
	movs	r0, #0
	.loc	2 62 35                         @ board/board.c:62:35
	str	r0, [sp, #208]
	movs	r0, #8
	.loc	2 63 35                         @ board/board.c:63:35
	str	r0, [sp, #212]
	movs	r0, #64
	.loc	2 64 36                         @ board/board.c:64:36
	str	r0, [sp, #216]
	.loc	2 65 36                         @ board/board.c:65:36
	str	r0, [sp, #220]
	mov.w	r1, #1024
	.loc	2 66 36                         @ board/board.c:66:36
	str	r1, [sp, #224]
	.loc	2 67 36                         @ board/board.c:67:36
	str	r0, [sp, #228]
	add	r0, sp, #200
	movs	r1, #4
.Ltmp9:
	.loc	2 69 7                          @ board/board.c:69:7
	bl	HAL_RCC_ClockConfig
.Ltmp10:
	.loc	2 69 7 is_stmt 0                @ board/board.c:69:7
	cbz	r0, .LBB0_9
	b	.LBB0_8
.LBB0_8:
.Ltmp11:
	.loc	2 71 5 is_stmt 1                @ board/board.c:71:5
	movw	r0, :lower16:.L.str
	movt	r0, :upper16:.L.str
	movs	r1, #71
	bl	_Error_Handler
	.loc	2 72 3                          @ board/board.c:72:3
	b	.LBB0_9
.Ltmp12:
.LBB0_9:
	.loc	2 0 3 is_stmt 0                 @ board/board.c:0:3
	movw	r0, #12290
	movt	r0, #8461
	.loc	2 73 44 is_stmt 1               @ board/board.c:73:44
	str	r0, [sp, #12]
	movs	r1, #2
	.loc	2 78 34                         @ board/board.c:78:34
	str	r1, [sp, #16]
	movs	r0, #64
	.loc	2 79 34                         @ board/board.c:79:34
	str	r0, [sp, #20]
	.loc	2 80 34                         @ board/board.c:80:34
	str	r1, [sp, #24]
	.loc	2 81 34                         @ board/board.c:81:34
	str	r1, [sp, #28]
	movs	r0, #4
	.loc	2 82 34                         @ board/board.c:82:34
	str	r0, [sp, #32]
	movs	r0, #192
	.loc	2 83 36                         @ board/board.c:83:36
	str	r0, [sp, #36]
	movs	r0, #0
	.loc	2 84 39                         @ board/board.c:84:39
	str	r0, [sp, #40]
	.loc	2 85 38                         @ board/board.c:85:38
	str	r0, [sp, #44]
	movs	r2, #5
	.loc	2 86 34                         @ board/board.c:86:34
	str	r2, [sp, #48]
	movs	r2, #160
	.loc	2 87 34                         @ board/board.c:87:34
	str	r2, [sp, #52]
	movs	r2, #8
	.loc	2 88 34                         @ board/board.c:88:34
	str	r2, [sp, #56]
	.loc	2 89 34                         @ board/board.c:89:34
	str	r2, [sp, #60]
	movs	r2, #24
	.loc	2 90 34                         @ board/board.c:90:34
	str	r2, [sp, #64]
	mov.w	r2, #2048
	.loc	2 91 36                         @ board/board.c:91:36
	str	r2, [sp, #68]
	.loc	2 92 39                         @ board/board.c:92:39
	str	r0, [sp, #72]
	.loc	2 93 38                         @ board/board.c:93:38
	str	r0, [sp, #76]
	.loc	2 94 41                         @ board/board.c:94:41
	str	r1, [sp, #80]
	mov.w	r1, #65536
	.loc	2 95 43                         @ board/board.c:95:43
	str	r1, [sp, #88]
	mov.w	r1, #4096
	.loc	2 96 44                         @ board/board.c:96:44
	str	r1, [sp, #104]
	mov.w	r1, #131072
	.loc	2 97 43                         @ board/board.c:97:43
	str	r1, [sp, #108]
	.loc	2 98 49                         @ board/board.c:98:49
	str	r0, [sp, #128]
	mov.w	r1, #3145728
	.loc	2 99 41                         @ board/board.c:99:41
	str	r1, [sp, #144]
	.loc	2 100 41                        @ board/board.c:100:41
	str	r0, [sp, #172]
	add	r0, sp, #12
.Ltmp13:
	.loc	2 101 7                         @ board/board.c:101:7
	bl	HAL_RCCEx_PeriphCLKConfig
.Ltmp14:
	.loc	2 101 7 is_stmt 0               @ board/board.c:101:7
	cbz	r0, .LBB0_11
	b	.LBB0_10
.LBB0_10:
.Ltmp15:
	.loc	2 103 5 is_stmt 1               @ board/board.c:103:5
	movw	r0, :lower16:.L.str
	movt	r0, :upper16:.L.str
	movs	r1, #103
	bl	_Error_Handler
	.loc	2 104 3                         @ board/board.c:104:3
	b	.LBB0_11
.Ltmp16:
.LBB0_11:
	.loc	2 107 3                         @ board/board.c:107:3
	bl	HAL_PWREx_EnableUSBVoltageDetector
	.loc	2 108 1                         @ board/board.c:108:1
	add	sp, #312
	pop	{r7, pc}
.Ltmp17:
.Lfunc_end0:
	.size	system_clock_config, .Lfunc_end0-system_clock_config
	.cfi_endproc
	.cantunwind
	.fnend
                                        @ -- End function
	.section	.text.clock_information,"ax",%progbits
	.hidden	clock_information               @ -- Begin function clock_information
	.globl	clock_information
	.p2align	3
	.type	clock_information,%function
	.code	16                              @ @clock_information
	.thumb_func
clock_information:
.Lfunc_begin1:
	.loc	2 110 0                         @ board/board.c:110:0
	.fnstart
	.cfi_startproc
@ %bb.0:
	movs	r0, #0
.Ltmp18:
	.loc	2 117 5 prologue_end            @ board/board.c:117:5
	bx	lr
.Ltmp19:
.Lfunc_end1:
	.size	clock_information, .Lfunc_end1-clock_information
	.cfi_endproc
	.cantunwind
	.fnend
                                        @ -- End function
	.section	.text.clk_init,"ax",%progbits
	.hidden	clk_init                        @ -- Begin function clk_init
	.globl	clk_init
	.p2align	3
	.type	clk_init,%function
	.code	16                              @ @clk_init
	.thumb_func
clk_init:
.Lfunc_begin2:
	.loc	2 122 0                         @ board/board.c:122:0
	.fnstart
	.cfi_startproc
@ %bb.0:
	.save	{r7, lr}
	push	{r7, lr}
	.cfi_def_cfa_offset 8
	.cfi_offset lr, -4
	.cfi_offset r7, -8
	.pad	#16
	sub	sp, #16
	.cfi_def_cfa_offset 24
	str	r0, [sp, #12]
	str	r1, [sp, #8]
	str	r2, [sp, #4]
.Ltmp20:
	.loc	2 123 25 prologue_end           @ board/board.c:123:25
	ldr	r0, [sp, #4]
	.loc	2 123 5 is_stmt 0               @ board/board.c:123:5
	bl	system_clock_config
	.loc	2 124 1 is_stmt 1               @ board/board.c:124:1
	add	sp, #16
	pop	{r7, pc}
.Ltmp21:
.Lfunc_end2:
	.size	clk_init, .Lfunc_end2-clk_init
	.cfi_endproc
	.cantunwind
	.fnend
                                        @ -- End function
	.section	.text.rt_hw_board_init,"ax",%progbits
	.hidden	rt_hw_board_init                @ -- Begin function rt_hw_board_init
	.weak	rt_hw_board_init
	.p2align	3
	.type	rt_hw_board_init,%function
	.code	16                              @ @rt_hw_board_init
	.thumb_func
rt_hw_board_init:
.Lfunc_begin3:
	.loc	2 128 0                         @ board/board.c:128:0
	.fnstart
	.cfi_startproc
@ %bb.0:
	.save	{r7, lr}
	push	{r7, lr}
	.cfi_def_cfa_offset 8
	.cfi_offset lr, -4
	.cfi_offset r7, -8
.Ltmp22:
	.loc	2 133 5 prologue_end            @ board/board.c:133:5
	movw	r0, :lower16:Image$$RW_IRAM1$$ZI$$Limit
	movt	r0, :upper16:Image$$RW_IRAM1$$ZI$$Limit
	movs	r1, #0
	movt	r1, #9223
	bl	rt_system_heap_init
	.loc	2 136 5                         @ board/board.c:136:5
	movw	r0, :lower16:.L.str.1
	movt	r0, :upper16:.L.str.1
	movs	r1, #0
	mov.w	r2, #480
	bl	hw_board_init
	.loc	2 140 5                         @ board/board.c:140:5
	movw	r0, :lower16:.L.str.2
	movt	r0, :upper16:.L.str.2
	bl	rt_console_set_device
	.loc	2 145 5                         @ board/board.c:145:5
	bl	rt_components_board_init
	.loc	2 148 1                         @ board/board.c:148:1
	pop	{r7, pc}
.Ltmp23:
.Lfunc_end3:
	.size	rt_hw_board_init, .Lfunc_end3-rt_hw_board_init
	.cfi_endproc
	.cantunwind
	.fnend
                                        @ -- End function
	.type	.L.str,%object                  @ @.str
	.section	.rodata.str1.1,"aMS",%progbits,1
.L.str:
	.asciz	"board/board.c"
	.size	.L.str, 14

	.hidden	__rt_init_clock_information     @ @__rt_init_clock_information
	.type	__rt_init_clock_information,%object
	.section	.rti_fn.1,"a",%progbits
	.globl	__rt_init_clock_information
	.p2align	2
__rt_init_clock_information:
__tagsym$$used.0:
	.long	clock_information
	.size	__rt_init_clock_information, 4

	.type	.L.str.1,%object                @ @.str.1
	.section	.rodata.str1.1,"aMS",%progbits,1
.L.str.1:
	.asciz	"HSE"
	.size	.L.str.1, 4

	.type	.L.str.2,%object                @ @.str.2
.L.str.2:
	.asciz	"uart4"
	.size	.L.str.2, 6

	.globl	__rt_init_clock_information
	.file	6 "E:\\STM32\\Learning\\STM32H750_ART_PI_RGBLCD" "libraries/STM32H7xx_HAL/STM32H7xx_HAL_Driver/Inc\\stm32h7xx_hal_rcc.h"
	.file	7 "E:\\STM32\\Learning\\STM32H750_ART_PI_RGBLCD" "libraries/STM32H7xx_HAL/STM32H7xx_HAL_Driver/Inc/stm32h7xx_hal_rcc_ex.h"
	.section	".note.GNU-stack","",%progbits
	.eabi_attribute	30, 6	@ Tag_ABI_optimization_goals
	.ARM_attribute	16, 1	@ Tag_AV_eba