	.text
	.syntax unified
	.eabi_attribute	67, "2.09"	@ Tag_conformance
	.cpu	cortex-m7
	.eabi_attribute	6, 13	@ Tag_CPU_arch
	.eabi_attribute	7, 77	@ Tag_CPU_arch_profile
	.eabi_attribute	8, 0	@ Tag_ARM_ISA_use
	.eabi_attribute	9, 2	@ Tag_THUMB_ISA_use
	.fpu	fpv5-d16
	.eabi_attribute	36, 1	@ Tag_FP_HP_extension
	.eabi_attribute	34, 1	@ Tag_CPU_unaligned_access
	.eabi_attribute	17, 1	@ Tag_ABI_PCS_GOT_use
	.eabi_attribute	20, 2	@ Tag_ABI_FP_denormal
	.eabi_attribute	21, 0	@ Tag_ABI_FP_exceptions
	.eabi_attribute	23, 1	@ Tag_ABI_FP_number_model
	.eabi_attribute	24, 1	@ Tag_ABI_align_needed
	.eabi_attribute	25, 1	@ Tag_ABI_align_preserved
	.eabi_attribute	28, 1	@ Tag_ABI_VFP_args
	.eabi_attribute	38, 1	@ Tag_ABI_FP_16bit_format
	.eabi_attribute	18, 2	@ Tag_ABI_PCS_wchar_t
	.eabi_attribute	26, 1	@ Tag_ABI_enum_size
	.eabi_attribute	14, 0	@ Tag_ABI_PCS_R9_use
	.file	"cJSON_port.c"
	.file	1 "E:\\Smart-access-control\\Hardware\\CODE" "rt-thread/include\\rtdef.h"
	.file	2 "E:\\Smart-access-control\\Hardware\\CODE" "packages/cJSON-v1.0.2/cJSON_port.c"
	.file	3 "D:\\Keil_v5\\ARM\\ARMCLANG\\Bin\\..\\include" "stdio.h"
	.section	.text.cJSON_hook_init,"ax",%progbits
	.hidden	cJSON_hook_init                 @ -- Begin function cJSON_hook_init
	.globl	cJSON_hook_init
	.p2align	3
	.type	cJSON_hook_init,%function
	.code	16                              @ @cJSON_hook_init
	.thumb_func
cJSON_hook_init:
.Lfunc_begin0:
	.loc	2 10 0                          @ packages/cJSON-v1.0.2/cJSON_port.c:10:0
	.fnstart
	.cfi_sections .debug_frame
	.cfi_startproc
@ %bb.0:
	.save	{r7, lr}
	push	{r7, lr}
	.cfi_def_cfa_offset 8
	.cfi_offset lr, -4
	.cfi_offset r7, -8
	.pad	#8
	sub	sp, #8
	.cfi_def_cfa_offset 16
.Ltmp0:
	.loc	2 13 26 prologue_end            @ packages/cJSON-v1.0.2/cJSON_port.c:13:26
	movw	r0, :lower16:rt_malloc
	movt	r0, :upper16:rt_malloc
	str	r0, [sp]
	.loc	2 14 24                         @ packages/cJSON-v1.0.2/cJSON_port.c:14:24
	movw	r0, :lower16:rt_free
	movt	r0, :upper16:rt_free
	str	r0, [sp, #4]
	mov	r0, sp
	.loc	2 16 5                          @ packages/cJSON-v1.0.2/cJSON_port.c:16:5
	bl	cJSON_InitHooks
	movs	r0, #0
	.loc	2 18 5                          @ packages/cJSON-v1.0.2/cJSON_port.c:18:5
	add	sp, #8
	pop	{r7, pc}
.Ltmp1:
.Lfunc_end0:
	.size	cJSON_hook_init, .Lfunc_end0-cJSON_hook_init
	.cfi_endproc
	.cantunwind
	.fnend
                                        @ -- End function
	.hidden	__rt_init_cJSON_hook_init       @ @__rt_init_cJSON_hook_init
	.type	__rt_init_cJSON_hook_init,%object
	.section	.rti_fn.4,"a",%progbits
	.globl	__rt_init_cJSON_hook_init
	.p2align	2
__rt_init_cJSON_hook_init:
__tagsym$$used.0:
	.long	cJSON_hook_init
	.size	__rt_init_cJSON_hook_init, 4

	.globl	__rt_init_cJSON_hook_init
	.file	4 "E:\\Smart-access-control\\Hardware\\CODE" "./packages/cJSON-v1.0.2/cJSON.h"
	.section	".note.GNU-stack","",%progbits
	.eabi_attribute	30, 6	@ Tag_ABI_optimization_goals
	.ARM_attribute	16, 1	@ Tag_AV_eba