	.text
	.syntax unified
	.eabi_attribute	67, "2.09"	@ Tag_conformance
	.cpu	cortex-m7
	.eabi_attribute	6, 13	@ Tag_CPU_arch
	.eabi_attribute	7, 77	@ Tag_CPU_arch_profile
	.eabi_attribute	8, 0	@ Tag_ARM_ISA_use
	.eabi_attribute	9, 2	@ Tag_THUMB_ISA_use
	.fpu	fpv5-d16
	.eabi_attribute	36, 1	@ Tag_FP_HP_extension
	.eabi_attribute	34, 1	@ Tag_CPU_unaligned_access
	.eabi_attribute	17, 1	@ Tag_ABI_PCS_GOT_use
	.eabi_attribute	20, 2	@ Tag_ABI_FP_denormal
	.eabi_attribute	21, 0	@ Tag_ABI_FP_exceptions
	.eabi_attribute	23, 1	@ Tag_ABI_FP_number_model
	.eabi_attribute	24, 1	@ Tag_ABI_align_needed
	.eabi_attribute	25, 1	@ Tag_ABI_align_preserved
	.eabi_attribute	28, 1	@ Tag_ABI_VFP_args
	.eabi_attribute	38, 1	@ Tag_ABI_FP_16bit_format
	.eabi_attribute	18, 2	@ Tag_ABI_PCS_wchar_t
	.eabi_attribute	26, 1	@ Tag_ABI_enum_size
	.eabi_attribute	14, 0	@ Tag_ABI_PCS_R9_use
	.file	"cJSON.c"
	.file	1 "E:\\Smart-access-control\\Hardware\\CODE" "packages/cJSON-v1.0.2/cJSON.c"
	.file	2 "D:\\Keil_v5\\ARM\\ARMCLANG\\Bin\\..\\include" "string.h"
	.file	3 "E:\\Smart-access-control\\Hardware\\CODE" "./packages/cJSON-v1.0.2/cJSON.h"
	.section	.text.cJSON_GetErrorPtr,"ax",%progbits
	.hidden	cJSON_GetErrorPtr               @ -- Begin function cJSON_GetErrorPtr
	.globl	cJSON_GetErrorPtr
	.p2align	3
	.type	cJSON_GetErrorPtr,%function
	.code	16                              @ @cJSON_GetErrorPtr
	.thumb_func
cJSON_GetErrorPtr:
.Lfunc_begin0:
	.loc	1 43 0                          @ packages/cJSON-v1.0.2/cJSON.c:43:0
	.fnstart
	.cfi_sections .debug_frame
	.cfi_startproc
@ %bb.0:
	.loc	1 43 45 prologue_end            @ packages/cJSON-v1.0.2/cJSON.c:43:45
	movw	r0, :lower16:ep
	movt	r0, :upper16:ep
	ldr	r0, [r0]
	.loc	1 43 38 is_stmt 0               @ packages/cJSON-v1.0.2/cJSON.c:43:38
	bx	lr
.Ltmp0:
.Lfunc_end0:
	.size	cJSON_GetErrorPtr, .Lfunc_end0-cJSON_GetErrorPtr
	.cfi_endproc
	.cantunwind
	.fnend
                                        @ -- End function
	.section	.text.cJSON_InitHooks,"ax",%progbits
	.hidden	cJSON_InitHooks                 @ -- Begin function cJSON_InitHooks
	.globl	cJSON_InitHooks
	.p2align	3
	.type	cJSON_InitHooks,%function
	.code	16                              @ @cJSON_InitHooks
	.thumb_func
cJSON_InitHooks:
.Lfunc_begin1:
	.loc	1 67 0 is_stmt 1                @ packages/cJSON-v1.0.2/cJSON.c:67:0
	.fnstart
	.cfi_startproc
@ %bb.0:
	.pad	#12
	sub	sp, #12
	.cfi_def_cfa_offset 12
	str	r0, [sp, #8]
.Ltmp1:
	.loc	1 68 10 prologue_end            @ packages/cJSON-v1.0.2/cJSON.c:68:10
	ldr	r0, [sp, #8]
.Ltmp2:
	.loc	1 68 9 is_stmt 0                @ packages/cJSON-v1.0.2/cJSON.c:68:9
	cbnz	r0, .LBB1_2
	b	.LBB1_1
.LBB1_1:
.Ltmp3:
	.loc	1 69 22 is_stmt 1               @ packages/cJSON-v1.0.2/cJSON.c:69:22
	movw	r1, :lower16:cJSON_malloc
	movt	r1, :upper16:cJSON_malloc
	movw	r0, :lower16:malloc
	movt	r0, :upper16:malloc
	str	r0, [r1]
	.loc	1 70 20                         @ packages/cJSON-v1.0.2/cJSON.c:70:20
	movw	r1, :lower16:cJSON_free
	movt	r1, :upper16:cJSON_free
	movw	r0, :lower16:free
	movt	r0, :upper16:free
	str	r0, [r1]
	.loc	1 71 9                          @ packages/cJSON-v1.0.2/cJSON.c:71:9
	b	.LBB1_9
.Ltmp4:
.LBB1_2:
	.loc	1 74 18                         @ packages/cJSON-v1.0.2/cJSON.c:74:18
	ldr	r0, [sp, #8]
	.loc	1 74 25 is_stmt 0               @ packages/cJSON-v1.0.2/cJSON.c:74:25
	ldr	r0, [r0]
	.loc	1 74 17                         @ packages/cJSON-v1.0.2/cJSON.c:74:17
	cbz	r0, .LBB1_4
	b	.LBB1_3
.LBB1_3:
	.loc	1 74 36                         @ packages/cJSON-v1.0.2/cJSON.c:74:36
	ldr	r0, [sp, #8]
	.loc	1 74 43                         @ packages/cJSON-v1.0.2/cJSON.c:74:43
	ldr	r0, [r0]
	.loc	1 74 17                         @ packages/cJSON-v1.0.2/cJSON.c:74:17
	str	r0, [sp, #4]                    @ 4-byte Spill
	b	.LBB1_5
.LBB1_4:
	.loc	1 0 17                          @ packages/cJSON-v1.0.2/cJSON.c:0:17
	movw	r0, :lower16:malloc
	movt	r0, :upper16:malloc
	.loc	1 74 17                         @ packages/cJSON-v1.0.2/cJSON.c:74:17
	str	r0, [sp, #4]                    @ 4-byte Spill
	b	.LBB1_5
.LBB1_5:
	ldr	r0, [sp, #4]                    @ 4-byte Reload
	.loc	1 74 15                         @ packages/cJSON-v1.0.2/cJSON.c:74:15
	movw	r1, :lower16:cJSON_malloc
	movt	r1, :upper16:cJSON_malloc
	str	r0, [r1]
	.loc	1 75 17 is_stmt 1               @ packages/cJSON-v1.0.2/cJSON.c:75:17
	ldr	r0, [sp, #8]
	.loc	1 75 24 is_stmt 0               @ packages/cJSON-v1.0.2/cJSON.c:75:24
	ldr	r0, [r0, #4]
	.loc	1 75 16                         @ packages/cJSON-v1.0.2/cJSON.c:75:16
	cbz	r0, .LBB1_7
	b	.LBB1_6
.LBB1_6:
	.loc	1 75 33                         @ packages/cJSON-v1.0.2/cJSON.c:75:33
	ldr	r0, [sp, #8]
	.loc	1 75 40                         @ packages/cJSON-v1.0.2/cJSON.c:75:40
	ldr	r0, [r0, #4]
	.loc	1 75 16                         @ packages/cJSON-v1.0.2/cJSON.c:75:16
	str	r0, [sp]                        @ 4-byte Spill
	b	.LBB1_8
.LBB1_7:
	.loc	1 0 16                          @ packages/cJSON-v1.0.2/cJSON.c:0:16
	movw	r0, :lower16:free
	movt	r0, :upper16:free
	.loc	1 75 16                         @ packages/cJSON-v1.0.2/cJSON.c:75:16
	str	r0, [sp]                        @ 4-byte Spill
	b	.LBB1_8
.LBB1_8:
	ldr	r0, [sp]                        @ 4-byte Reload
	.loc	1 75 14                         @ packages/cJSON-v1.0.2/cJSON.c:75:14
	movw	r1, :lower16:cJSON_free
	movt	r1, :upper16:cJSON_free
	str	r0, [r1]
	.loc	1 76 1 is_stmt 1                @ packages/cJSON-v1.0.2/cJSON.c:76:1
	b	.LBB1_9
.LBB1_9:
	add	sp, #12
	bx	lr
.Ltmp5:
.Lfunc_end1:
	.size	cJSON_InitHooks, .Lfunc_end1-cJSON_InitHooks
	.cfi_endproc
	.cantunwind
	.fnend
                                        @ -- End function
	.section	.text.cJSON_Delete,"ax",%progbits
	.hidden	cJSON_Delete                    @ -- Begin function cJSON_Delete
	.globl	cJSON_Delete
	.p2align	3
	.type	cJSON_Delete,%function
	.code	16                              @ @cJSON_Delete
	.thumb_func
cJSON_Delete:
.Lfunc_begin2:
	.loc	1 88 0                          @ packages/cJSON-v1.0.2/cJSON.c:88:0
	.fnstart
	.cfi_startproc
@ %bb.0:
	.save	{r7, lr}
	push	{r7, lr}
	.cfi_def_cfa_offset 8
	.cfi_offset lr, -4
	.cfi_offset r7, -8
	.pad	#8
	sub	sp, #8
	.cfi_def_cfa_offset 16
	str	r0, [sp, #4]
.Ltmp6:
	.loc	1 90 2 prologue_end             @ packages/cJSON-v1.0.2/cJSON.c:90:2
	b	.LBB2_1
.LBB2_1:                                @ =>This Inner Loop Header: Depth=1
	.loc	1 90 9 is_stmt 0                @ packages/cJSON-v1.0.2/cJSON.c:90:9
	ldr	r0, [sp, #4]
	.loc	1 90 2                          @ packages/cJSON-v1.0.2/cJSON.c:90:2
	cmp	r0, #0
	beq	.LBB2_12
	b	.LBB2_2
.LBB2_2:                                @   in Loop: Header=BB2_1 Depth=1
.Ltmp7:
	.loc	1 92 8 is_stmt 1                @ packages/cJSON-v1.0.2/cJSON.c:92:8
	ldr	r0, [sp, #4]
	.loc	1 92 11 is_stmt 0               @ packages/cJSON-v1.0.2/cJSON.c:92:11
	ldr	r0, [r0]
	.loc	1 92 7                          @ packages/cJSON-v1.0.2/cJSON.c:92:7
	str	r0, [sp]
.Ltmp8:
	.loc	1 93 9 is_stmt 1                @ packages/cJSON-v1.0.2/cJSON.c:93:9
	ldr	r0, [sp, #4]
	.loc	1 93 36 is_stmt 0               @ packages/cJSON-v1.0.2/cJSON.c:93:36
	ldrb	r0, [r0, #13]
	lsls	r0, r0, #31
	cbnz	r0, .LBB2_5
	b	.LBB2_3
.LBB2_3:                                @   in Loop: Header=BB2_1 Depth=1
	.loc	1 93 39                         @ packages/cJSON-v1.0.2/cJSON.c:93:39
	ldr	r0, [sp, #4]
	.loc	1 93 42                         @ packages/cJSON-v1.0.2/cJSON.c:93:42
	ldr	r0, [r0, #8]
.Ltmp9:
	.loc	1 93 7                          @ packages/cJSON-v1.0.2/cJSON.c:93:7
	cbz	r0, .LBB2_5
	b	.LBB2_4
.LBB2_4:                                @   in Loop: Header=BB2_1 Depth=1
.Ltmp10:
	.loc	1 93 62                         @ packages/cJSON-v1.0.2/cJSON.c:93:62
	ldr	r0, [sp, #4]
	.loc	1 93 65                         @ packages/cJSON-v1.0.2/cJSON.c:93:65
	ldr	r0, [r0, #8]
	.loc	1 93 49                         @ packages/cJSON-v1.0.2/cJSON.c:93:49
	bl	cJSON_Delete
	b	.LBB2_5
.Ltmp11:
.LBB2_5:                                @   in Loop: Header=BB2_1 Depth=1
	.loc	1 94 9 is_stmt 1                @ packages/cJSON-v1.0.2/cJSON.c:94:9
	ldr	r0, [sp, #4]
	.loc	1 94 36 is_stmt 0               @ packages/cJSON-v1.0.2/cJSON.c:94:36
	ldrb	r0, [r0, #13]
	lsls	r0, r0, #31
	cbnz	r0, .LBB2_8
	b	.LBB2_6
.LBB2_6:                                @   in Loop: Header=BB2_1 Depth=1
	.loc	1 94 39                         @ packages/cJSON-v1.0.2/cJSON.c:94:39
	ldr	r0, [sp, #4]
	.loc	1 94 42                         @ packages/cJSON-v1.0.2/cJSON.c:94:42
	ldr	r0, [r0, #16]
.Ltmp12:
	.loc	1 94 7                          @ packages/cJSON-v1.0.2/cJSON.c:94:7
	cbz	r0, .LBB2_8
	b	.LBB2_7
.LBB2_7:                                @   in Loop: Header=BB2_1 Depth=1
.Ltmp13:
	.loc	1 94 55                         @ packages/cJSON-v1.0.2/cJSON.c:94:55
	movw	r0, :lower16:cJSON_free
	movt	r0, :upper16:cJSON_free
	ldr	r1, [r0]
	.loc	1 94 66                         @ packages/cJSON-v1.0.2/cJSON.c:94:66
	ldr	r0, [sp, #4]
	.loc	1 94 69                         @ packages/cJSON-v1.0.2/cJSON.c:94:69
	ldr	r0, [r0, #16]
	.loc	1 94 55                         @ packages/cJSON-v1.0.2/cJSON.c:94:55
	blx	r1
	b	.LBB2_8
.Ltmp14:
.LBB2_8:                                @   in Loop: Header=BB2_1 Depth=1
	.loc	1 95 9 is_stmt 1                @ packages/cJSON-v1.0.2/cJSON.c:95:9
	ldr	r0, [sp, #4]
	.loc	1 95 38 is_stmt 0               @ packages/cJSON-v1.0.2/cJSON.c:95:38
	ldrb	r0, [r0, #13]
	lsls	r0, r0, #30
	cmp	r0, #0
	bmi	.LBB2_11
	b	.LBB2_9
.LBB2_9:                                @   in Loop: Header=BB2_1 Depth=1
	.loc	1 95 41                         @ packages/cJSON-v1.0.2/cJSON.c:95:41
	ldr	r0, [sp, #4]
	.loc	1 95 44                         @ packages/cJSON-v1.0.2/cJSON.c:95:44
	ldr	r0, [r0, #32]
.Ltmp15:
	.loc	1 95 7                          @ packages/cJSON-v1.0.2/cJSON.c:95:7
	cbz	r0, .LBB2_11
	b	.LBB2_10
.LBB2_10:                               @   in Loop: Header=BB2_1 Depth=1
.Ltmp16:
	.loc	1 95 52                         @ packages/cJSON-v1.0.2/cJSON.c:95:52
	movw	r0, :lower16:cJSON_free
	movt	r0, :upper16:cJSON_free
	ldr	r1, [r0]
	.loc	1 95 63                         @ packages/cJSON-v1.0.2/cJSON.c:95:63
	ldr	r0, [sp, #4]
	.loc	1 95 66                         @ packages/cJSON-v1.0.2/cJSON.c:95:66
	ldr	r0, [r0, #32]
	.loc	1 95 52                         @ packages/cJSON-v1.0.2/cJSON.c:95:52
	blx	r1
	b	.LBB2_11
.Ltmp17:
.LBB2_11:                               @   in Loop: Header=BB2_1 Depth=1
	.loc	1 96 3 is_stmt 1                @ packages/cJSON-v1.0.2/cJSON.c:96:3
	movw	r0, :lower16:cJSON_free
	movt	r0, :upper16:cJSON_free
	ldr	r1, [r0]
	.loc	1 96 14 is_stmt 0               @ packages/cJSON-v1.0.2/cJSON.c:96:14
	ldr	r0, [sp, #4]
	.loc	1 96 3                          @ packages/cJSON-v1.0.2/cJSON.c:96:3
	blx	r1
	.loc	1 97 5 is_stmt 1                @ packages/cJSON-v1.0.2/cJSON.c:97:5
	ldr	r0, [sp]
	.loc	1 97 4 is_stmt 0                @ packages/cJSON-v1.0.2/cJSON.c:97:4
	str	r0, [sp, #4]
.Ltmp18:
	.loc	1 90 2 is_stmt 1                @ packages/cJSON-v1.0.2/cJSON.c:90:2
	b	.LBB2_1
.LBB2_12:
	.loc	1 99 1                          @ packages/cJSON-v1.0.2/cJSON.c:99:1
	add	sp, #8
	pop	{r7, pc}
.Ltmp19:
.Lfunc_end2:
	.size	cJSON_Delete, .Lfunc_end2-cJSON_Delete
	.cfi_endproc
	.cantunwind
	.fnend
                                        @ -- End function
	.section	.text.cJSON_ParseWithOpts,"ax",%progbits
	.hidden	cJSON_ParseWithOpts             @ -- Begin function cJSON_ParseWithOpts
	.globl	cJSON_ParseWithOpts
	.p2align	3
	.type	cJSON_ParseWithOpts,%function
	.code	16                              @ @cJSON_ParseWithOpts
	.thumb_func
cJSON_ParseWithOpts:
.Lfunc_begin3:
	.loc	1 330 0                         @ packages/cJSON-v1.0.2/cJSON.c:330:0
	.fnstart
	.cfi_startproc
@ %bb.0:
	.save	{r7, lr}
	push	{r7, lr}
	.cfi_def_cfa_offset 8
	.cfi_offset lr, -4
	.cfi_offset r7, -8
	.pad	#32
	sub	sp, #32
	.cfi_def_cfa_offset 40
	str	r0, [sp, #24]
	str	r1, [sp, #20]
	str	r2, [sp, #16]
	movs	r0, #0
.Ltmp20:
	.loc	1 331 14 prologue_end           @ packages/cJSON-v1.0.2/cJSON.c:331:14
	str	r0, [sp, #4]                    @ 4-byte Spill
	str	r0, [sp, #12]
	.loc	1 332 11                        @ packages/cJSON-v1.0.2/cJSON.c:332:11
	bl	cJSON_New_Item
	mov	r1, r0
	.loc	1 332 9 is_stmt 0               @ packages/cJSON-v1.0.2/cJSON.c:332:9
	ldr	r0, [sp, #4]                    @ 4-byte Reload
	str	r1, [sp, #8]
	.loc	1 333 4 is_stmt 1               @ packages/cJSON-v1.0.2/cJSON.c:333:4
	movw	r1, :lower16:ep
	movt	r1, :upper16:ep
	str	r0, [r1]
.Ltmp21:
	.loc	1 334 7                         @ packages/cJSON-v1.0.2/cJSON.c:334:7
	ldr	r0, [sp, #8]
.Ltmp22:
	.loc	1 334 6 is_stmt 0               @ packages/cJSON-v1.0.2/cJSON.c:334:6
	cbnz	r0, .LBB3_2
	b	.LBB3_1
.LBB3_1:
	.loc	1 0 6                           @ packages/cJSON-v1.0.2/cJSON.c:0:6
	movs	r0, #0
.Ltmp23:
	.loc	1 334 10                        @ packages/cJSON-v1.0.2/cJSON.c:334:10
	str	r0, [sp, #28]
	b	.LBB3_11
.Ltmp24:
.LBB3_2:
	.loc	1 336 18 is_stmt 1              @ packages/cJSON-v1.0.2/cJSON.c:336:18
	ldr	r0, [sp, #8]
	.loc	1 336 25 is_stmt 0              @ packages/cJSON-v1.0.2/cJSON.c:336:25
	str	r0, [sp]                        @ 4-byte Spill
	ldr	r0, [sp, #24]
	.loc	1 336 20                        @ packages/cJSON-v1.0.2/cJSON.c:336:20
	bl	skip
	mov	r1, r0
	.loc	1 336 6                         @ packages/cJSON-v1.0.2/cJSON.c:336:6
	ldr	r0, [sp]                        @ 4-byte Reload
	bl	parse_value
	.loc	1 336 5                         @ packages/cJSON-v1.0.2/cJSON.c:336:5
	str	r0, [sp, #12]
.Ltmp25:
	.loc	1 337 7 is_stmt 1               @ packages/cJSON-v1.0.2/cJSON.c:337:7
	ldr	r0, [sp, #12]
.Ltmp26:
	.loc	1 337 6 is_stmt 0               @ packages/cJSON-v1.0.2/cJSON.c:337:6
	cbnz	r0, .LBB3_4
	b	.LBB3_3
.LBB3_3:
.Ltmp27:
	.loc	1 337 26                        @ packages/cJSON-v1.0.2/cJSON.c:337:26
	ldr	r0, [sp, #8]
	.loc	1 337 13                        @ packages/cJSON-v1.0.2/cJSON.c:337:13
	bl	cJSON_Delete
	movs	r0, #0
	.loc	1 337 29                        @ packages/cJSON-v1.0.2/cJSON.c:337:29
	str	r0, [sp, #28]
	b	.LBB3_11
.Ltmp28:
.LBB3_4:
	.loc	1 340 6 is_stmt 1               @ packages/cJSON-v1.0.2/cJSON.c:340:6
	ldr	r0, [sp, #16]
.Ltmp29:
	.loc	1 340 6 is_stmt 0               @ packages/cJSON-v1.0.2/cJSON.c:340:6
	cbz	r0, .LBB3_8
	b	.LBB3_5
.LBB3_5:
.Ltmp30:
	.loc	1 340 41                        @ packages/cJSON-v1.0.2/cJSON.c:340:41
	ldr	r0, [sp, #12]
	.loc	1 340 36                        @ packages/cJSON-v1.0.2/cJSON.c:340:36
	bl	skip
	.loc	1 340 35                        @ packages/cJSON-v1.0.2/cJSON.c:340:35
	str	r0, [sp, #12]
.Ltmp31:
	.loc	1 340 51                        @ packages/cJSON-v1.0.2/cJSON.c:340:51
	ldr	r0, [sp, #12]
	.loc	1 340 50                        @ packages/cJSON-v1.0.2/cJSON.c:340:50
	ldrb	r0, [r0]
.Ltmp32:
	.loc	1 340 50                        @ packages/cJSON-v1.0.2/cJSON.c:340:50
	cbz	r0, .LBB3_7
	b	.LBB3_6
.LBB3_6:
.Ltmp33:
	.loc	1 340 70                        @ packages/cJSON-v1.0.2/cJSON.c:340:70
	ldr	r0, [sp, #8]
	.loc	1 340 57                        @ packages/cJSON-v1.0.2/cJSON.c:340:57
	bl	cJSON_Delete
	.loc	1 340 76                        @ packages/cJSON-v1.0.2/cJSON.c:340:76
	ldr	r0, [sp, #12]
	.loc	1 340 75                        @ packages/cJSON-v1.0.2/cJSON.c:340:75
	movw	r1, :lower16:ep
	movt	r1, :upper16:ep
	str	r0, [r1]
	movs	r0, #0
	.loc	1 340 80                        @ packages/cJSON-v1.0.2/cJSON.c:340:80
	str	r0, [sp, #28]
	b	.LBB3_11
.Ltmp34:
.LBB3_7:
	.loc	1 340 90                        @ packages/cJSON-v1.0.2/cJSON.c:340:90
	b	.LBB3_8
.Ltmp35:
.LBB3_8:
	.loc	1 341 6 is_stmt 1               @ packages/cJSON-v1.0.2/cJSON.c:341:6
	ldr	r0, [sp, #20]
.Ltmp36:
	.loc	1 341 6 is_stmt 0               @ packages/cJSON-v1.0.2/cJSON.c:341:6
	cbz	r0, .LBB3_10
	b	.LBB3_9
.LBB3_9:
.Ltmp37:
	.loc	1 341 42                        @ packages/cJSON-v1.0.2/cJSON.c:341:42
	ldr	r0, [sp, #12]
	.loc	1 341 25                        @ packages/cJSON-v1.0.2/cJSON.c:341:25
	ldr	r1, [sp, #20]
	.loc	1 341 41                        @ packages/cJSON-v1.0.2/cJSON.c:341:41
	str	r0, [r1]
	.loc	1 341 24                        @ packages/cJSON-v1.0.2/cJSON.c:341:24
	b	.LBB3_10
.Ltmp38:
.LBB3_10:
	.loc	1 342 9 is_stmt 1               @ packages/cJSON-v1.0.2/cJSON.c:342:9
	ldr	r0, [sp, #8]
	.loc	1 342 2 is_stmt 0               @ packages/cJSON-v1.0.2/cJSON.c:342:2
	str	r0, [sp, #28]
	b	.LBB3_11
.LBB3_11:
	.loc	1 343 1 is_stmt 1               @ packages/cJSON-v1.0.2/cJSON.c:343:1
	ldr	r0, [sp, #28]
	add	sp, #32
	pop	{r7, pc}
.Ltmp39:
.Lfunc_end3:
	.size	cJSON_ParseWithOpts, .Lfunc_end3-cJSON_ParseWithOpts
	.cfi_endproc
	.cantunwind
	.fnend
                                        @ -- End function
	.section	.text.cJSON_New_Item,"ax",%progbits
	.p2align	3                               @ -- Begin function cJSON_New_Item
	.type	cJSON_New_Item,%function
	.code	16                              @ @cJSON_New_Item
	.thumb_func
cJSON_New_Item:
.Lfunc_begin4:
	.loc	1 80 0                          @ packages/cJSON-v1.0.2/cJSON.c:80:0
	.fnstart
	.cfi_startproc
@ %bb.0:
	.save	{r7, lr}
	push	{r7, lr}
	.cfi_def_cfa_offset 8
	.cfi_offset lr, -4
	.cfi_offset r7, -8
	.pad	#8
	sub	sp, #8
	.cfi_def_cfa_offset 16
.Ltmp40:
	.loc	1 81 24 prologue_end            @ packages/cJSON-v1.0.2/cJSON.c:81:24
	movw	r0, :lower16:cJSON_malloc
	movt	r0, :upper16:cJSON_malloc
	ldr	r1, [r0]
	movs	r0, #40
	blx	r1
	.loc	1 81 9 is_stmt 0                @ packages/cJSON-v1.0.2/cJSON.c:81:9
	str	r0, [sp, #4]
.Ltmp41:
	.loc	1 82 6 is_stmt 1                @ packages/cJSON-v1.0.2/cJSON.c:82:6
	ldr	r0, [sp, #4]
.Ltmp42:
	.loc	1 82 6 is_stmt 0                @ packages/cJSON-v1.0.2/cJSON.c:82:6
	cbz	r0, .LBB4_2
	b	.LBB4_1
.LBB4_1:
.Ltmp43:
	.loc	1 82 19                         @ packages/cJSON-v1.0.2/cJSON.c:82:19
	ldr	r0, [sp, #4]
	movs	r1, #40
	.loc	1 82 12                         @ packages/cJSON-v1.0.2/cJSON.c:82:12
	bl	__aeabi_memclr8
	b	.LBB4_2
.Ltmp44:
.LBB4_2:
	.loc	1 83 9 is_stmt 1                @ packages/cJSON-v1.0.2/cJSON.c:83:9
	ldr	r0, [sp, #4]
	.loc	1 83 2 is_stmt 0                @ packages/cJSON-v1.0.2/cJSON.c:83:2
	add	sp, #8
	pop	{r7, pc}
.Ltmp45:
.Lfunc_end4:
	.size	cJSON_New_Item, .Lfunc_end4-cJSON_New_Item
	.cfi_endproc
	.cantunwind
	.fnend
                                        @ -- End function
	.section	.text.parse_value,"ax",%progbits
	.p2align	3                               @ -- Begin function parse_value
	.type	parse_value,%function
	.code	16                              @ @parse_value
	.thumb_func
parse_value:
.Lfunc_begin5:
	.loc	1 364 0 is_stmt 1               @ packages/cJSON-v1.0.2/cJSON.c:364:0
	.fnstart
	.cfi_startproc
@ %bb.0:
	.save	{r7, lr}
	push	{r7, lr}
	.cfi_def_cfa_offset 8
	.cfi_offset lr, -4
	.cfi_offset r7, -8
	.pad	#16
	sub	sp, #16
	.cfi_def_cfa_offset 24
	str	r0, [sp, #8]
	str	r1, [sp, #4]
.Ltmp46:
	.loc	1 365 7 prologue_end            @ packages/cJSON-v1.0.2/cJSON.c:365:7
	ldr	r0, [sp, #4]
.Ltmp47:
	.loc	1 365 6 is_stmt 0               @ packages/cJSON-v1.0.2/cJSON.c:365:6
	cbnz	r0, .LBB5_2
	b	.LBB5_1
.LBB5_1:
	.loc	1 0 6                           @ packages/cJSON-v1.0.2/cJSON.c:0:6
	movs	r0, #0
.Ltmp48:
	.loc	1 365 19                        @ packages/cJSON-v1.0.2/cJSON.c:365:19
	str	r0, [sp, #12]
	b	.LBB5_19
.Ltmp49:
.LBB5_2:
	.loc	1 366 15 is_stmt 1              @ packages/cJSON-v1.0.2/cJSON.c:366:15
	ldr	r0, [sp, #4]
	.loc	1 366 7 is_stmt 0               @ packages/cJSON-v1.0.2/cJSON.c:366:7
	movw	r1, :lower16:.L.str
	movt	r1, :upper16:.L.str
	movs	r2, #4
	bl	strncmp
.Ltmp50:
	.loc	1 366 6                         @ packages/cJSON-v1.0.2/cJSON.c:366:6
	cbnz	r0, .LBB5_4
	b	.LBB5_3
.LBB5_3:
.Ltmp51:
	.loc	1 366 34                        @ packages/cJSON-v1.0.2/cJSON.c:366:34
	ldr	r1, [sp, #8]
	movs	r0, #2
	.loc	1 366 44                        @ packages/cJSON-v1.0.2/cJSON.c:366:44
	str	r0, [r1, #12]
	.loc	1 366 65                        @ packages/cJSON-v1.0.2/cJSON.c:366:65
	ldr	r0, [sp, #4]
	.loc	1 366 70                        @ packages/cJSON-v1.0.2/cJSON.c:366:70
	adds	r0, #4
	.loc	1 366 58                        @ packages/cJSON-v1.0.2/cJSON.c:366:58
	str	r0, [sp, #12]
	b	.LBB5_19
.Ltmp52:
.LBB5_4:
	.loc	1 367 15 is_stmt 1              @ packages/cJSON-v1.0.2/cJSON.c:367:15
	ldr	r0, [sp, #4]
	.loc	1 367 7 is_stmt 0               @ packages/cJSON-v1.0.2/cJSON.c:367:7
	movw	r1, :lower16:.L.str.1
	movt	r1, :upper16:.L.str.1
	movs	r2, #5
	bl	strncmp
.Ltmp53:
	.loc	1 367 6                         @ packages/cJSON-v1.0.2/cJSON.c:367:6
	cbnz	r0, .LBB5_6
	b	.LBB5_5
.LBB5_5:
.Ltmp54:
	.loc	1 367 35                        @ packages/cJSON-v1.0.2/cJSON.c:367:35
	ldr	r1, [sp, #8]
	movs	r0, #0
	.loc	1 367 45                        @ packages/cJSON-v1.0.2/cJSON.c:367:45
	str	r0, [r1, #12]
	.loc	1 367 66                        @ packages/cJSON-v1.0.2/cJSON.c:367:66
	ldr	r0, [sp, #4]
	.loc	1 367 71                        @ packages/cJSON-v1.0.2/cJSON.c:367:71
	adds	r0, #5
	.loc	1 367 59                        @ packages/cJSON-v1.0.2/cJSON.c:367:59
	str	r0, [sp, #12]
	b	.LBB5_19
.Ltmp55:
.LBB5_6:
	.loc	1 368 15 is_stmt 1              @ packages/cJSON-v1.0.2/cJSON.c:368:15
	ldr	r0, [sp, #4]
	.loc	1 368 7 is_stmt 0               @ packages/cJSON-v1.0.2/cJSON.c:368:7
	movw	r1, :lower16:.L.str.2
	movt	r1, :upper16:.L.str.2
	movs	r2, #4
	bl	strncmp
.Ltmp56:
	.loc	1 368 6                         @ packages/cJSON-v1.0.2/cJSON.c:368:6
	cbnz	r0, .LBB5_8
	b	.LBB5_7
.LBB5_7:
.Ltmp57:
	.loc	1 368 34                        @ packages/cJSON-v1.0.2/cJSON.c:368:34
	ldr	r1, [sp, #8]
	movs	r0, #1
	.loc	1 368 44                        @ packages/cJSON-v1.0.2/cJSON.c:368:44
	str	r0, [r1, #12]
	.loc	1 368 57                        @ packages/cJSON-v1.0.2/cJSON.c:368:57
	ldr	r1, [sp, #8]
	.loc	1 368 71                        @ packages/cJSON-v1.0.2/cJSON.c:368:71
	str	r0, [r1, #20]
	.loc	1 368 82                        @ packages/cJSON-v1.0.2/cJSON.c:368:82
	ldr	r0, [sp, #4]
	.loc	1 368 87                        @ packages/cJSON-v1.0.2/cJSON.c:368:87
	adds	r0, #4
	.loc	1 368 75                        @ packages/cJSON-v1.0.2/cJSON.c:368:75
	str	r0, [sp, #12]
	b	.LBB5_19
.Ltmp58:
.LBB5_8:
	.loc	1 369 7 is_stmt 1               @ packages/cJSON-v1.0.2/cJSON.c:369:7
	ldr	r0, [sp, #4]
	.loc	1 369 6 is_stmt 0               @ packages/cJSON-v1.0.2/cJSON.c:369:6
	ldrsb.w	r0, [r0]
.Ltmp59:
	.loc	1 369 6                         @ packages/cJSON-v1.0.2/cJSON.c:369:6
	cmp	r0, #34
	bne	.LBB5_10
	b	.LBB5_9
.LBB5_9:
.Ltmp60:
	.loc	1 369 45                        @ packages/cJSON-v1.0.2/cJSON.c:369:45
	ldr	r0, [sp, #8]
	.loc	1 369 50                        @ packages/cJSON-v1.0.2/cJSON.c:369:50
	ldr	r1, [sp, #4]
	.loc	1 369 32                        @ packages/cJSON-v1.0.2/cJSON.c:369:32
	bl	parse_string
	.loc	1 369 25                        @ packages/cJSON-v1.0.2/cJSON.c:369:25
	str	r0, [sp, #12]
	b	.LBB5_19
.Ltmp61:
.LBB5_10:
	.loc	1 370 7 is_stmt 1               @ packages/cJSON-v1.0.2/cJSON.c:370:7
	ldr	r0, [sp, #4]
	.loc	1 370 6 is_stmt 0               @ packages/cJSON-v1.0.2/cJSON.c:370:6
	ldrsb.w	r0, [r0]
	.loc	1 370 18                        @ packages/cJSON-v1.0.2/cJSON.c:370:18
	cmp	r0, #45
	beq	.LBB5_13
	b	.LBB5_11
.LBB5_11:
	.loc	1 370 23                        @ packages/cJSON-v1.0.2/cJSON.c:370:23
	ldr	r0, [sp, #4]
	.loc	1 370 22                        @ packages/cJSON-v1.0.2/cJSON.c:370:22
	ldrsb.w	r0, [r0]
	.loc	1 370 34                        @ packages/cJSON-v1.0.2/cJSON.c:370:34
	cmp	r0, #48
	blt	.LBB5_14
	b	.LBB5_12
.LBB5_12:
	.loc	1 370 38                        @ packages/cJSON-v1.0.2/cJSON.c:370:38
	ldr	r0, [sp, #4]
	.loc	1 370 37                        @ packages/cJSON-v1.0.2/cJSON.c:370:37
	ldrsb.w	r0, [r0]
.Ltmp62:
	.loc	1 370 6                         @ packages/cJSON-v1.0.2/cJSON.c:370:6
	cmp	r0, #57
	bgt	.LBB5_14
	b	.LBB5_13
.LBB5_13:
.Ltmp63:
	.loc	1 370 73                        @ packages/cJSON-v1.0.2/cJSON.c:370:73
	ldr	r0, [sp, #8]
	.loc	1 370 78                        @ packages/cJSON-v1.0.2/cJSON.c:370:78
	ldr	r1, [sp, #4]
	.loc	1 370 60                        @ packages/cJSON-v1.0.2/cJSON.c:370:60
	bl	parse_number
	.loc	1 370 53                        @ packages/cJSON-v1.0.2/cJSON.c:370:53
	str	r0, [sp, #12]
	b	.LBB5_19
.Ltmp64:
.LBB5_14:
	.loc	1 371 7 is_stmt 1               @ packages/cJSON-v1.0.2/cJSON.c:371:7
	ldr	r0, [sp, #4]
	.loc	1 371 6 is_stmt 0               @ packages/cJSON-v1.0.2/cJSON.c:371:6
	ldrsb.w	r0, [r0]
.Ltmp65:
	.loc	1 371 6                         @ packages/cJSON-v1.0.2/cJSON.c:371:6
	cmp	r0, #91
	bne	.LBB5_16
	b	.LBB5_15
.LBB5_15:
.Ltmp66:
	.loc	1 371 43                        @ packages/cJSON-v1.0.2/cJSON.c:371:43
	ldr	r0, [sp, #8]
	.loc	1 371 48                        @ packages/cJSON-v1.0.2/cJSON.c:371:48
	ldr	r1, [sp, #4]
	.loc	1 371 31                        @ packages/cJSON-v1.0.2/cJSON.c:371:31
	bl	parse_array
	.loc	1 371 24                        @ packages/cJSON-v1.0.2/cJSON.c:371:24
	str	r0, [sp, #12]
	b	.LBB5_19
.Ltmp67:
.LBB5_16:
	.loc	1 372 7 is_stmt 1               @ packages/cJSON-v1.0.2/cJSON.c:372:7
	ldr	r0, [sp, #4]
	.loc	1 372 6 is_stmt 0               @ packages/cJSON-v1.0.2/cJSON.c:372:6
	ldrsb.w	r0, [r0]
.Ltmp68:
	.loc	1 372 6                         @ packages/cJSON-v1.0.2/cJSON.c:372:6
	cmp	r0, #123
	bne	.LBB5_18
	b	.LBB5_17
.LBB5_17:
.Ltmp69:
	.loc	1 372 44                        @ packages/cJSON-v1.0.2/cJSON.c:372:44
	ldr	r0, [sp, #8]
	.loc	1 372 49                        @ packages/cJSON-v1.0.2/cJSON.c:372:49
	ldr	r1, [sp, #4]
	.loc	1 372 31                        @ packages/cJSON-v1.0.2/cJSON.c:372:31
	bl	parse_object
	.loc	1 372 24                        @ packages/cJSON-v1.0.2/cJSON.c:372:24
	str	r0, [sp, #12]
	b	.LBB5_19
.Ltmp70:
.LBB5_18:
	.loc	1 374 5 is_stmt 1               @ packages/cJSON-v1.0.2/cJSON.c:374:5
	ldr	r0, [sp, #4]
	.loc	1 374 4 is_stmt 0               @ packages/cJSON-v1.0.2/cJSON.c:374:4
	movw	r1, :lower16:ep
	movt	r1, :upper16:ep
	str	r0, [r1]
	movs	r0, #0
	.loc	1 374 11                        @ packages/cJSON-v1.0.2/cJSON.c:374:11
	str	r0, [sp, #12]
	b	.LBB5_19
.LBB5_19:
	.loc	1 375 1 is_stmt 1               @ packages/cJSON-v1.0.2/cJSON.c:375:1
	ldr	r0, [sp, #12]
	add	sp, #16
	pop	{r7, pc}
.Ltmp71:
.Lfunc_end5:
	.size	parse_value, .Lfunc_end5-parse_value
	.cfi_endproc
	.cantunwind
	.fnend
                                        @ -- End function
	.section	.text.skip,"ax",%progbits
	.p2align	3                               @ -- Begin function skip
	.type	skip,%function
	.code	16                              @ @skip
	.thumb_func
skip:
.Lfunc_begin6:
	.loc	1 326 0                         @ packages/cJSON-v1.0.2/cJSON.c:326:0
	.fnstart
	.cfi_startproc
@ %bb.0:
	.pad	#8
	sub	sp, #8
	.cfi_def_cfa_offset 8
	str	r0, [sp, #4]
.Ltmp72:
	.loc	1 326 42 prologue_end           @ packages/cJSON-v1.0.2/cJSON.c:326:42
	b	.LBB6_1
.LBB6_1:                                @ =>This Inner Loop Header: Depth=1
	.loc	1 326 49 is_stmt 0              @ packages/cJSON-v1.0.2/cJSON.c:326:49
	ldr	r1, [sp, #4]
	movs	r0, #0
	.loc	1 326 52                        @ packages/cJSON-v1.0.2/cJSON.c:326:52
	str	r0, [sp]                        @ 4-byte Spill
	cbz	r1, .LBB6_4
	b	.LBB6_2
.LBB6_2:                                @   in Loop: Header=BB6_1 Depth=1
	.loc	1 326 56                        @ packages/cJSON-v1.0.2/cJSON.c:326:56
	ldr	r0, [sp, #4]
	.loc	1 326 55                        @ packages/cJSON-v1.0.2/cJSON.c:326:55
	ldrsb.w	r1, [r0]
	movs	r0, #0
	.loc	1 326 59                        @ packages/cJSON-v1.0.2/cJSON.c:326:59
	str	r0, [sp]                        @ 4-byte Spill
	cbz	r1, .LBB6_4
	b	.LBB6_3
.LBB6_3:                                @   in Loop: Header=BB6_1 Depth=1
	.loc	1 326 78                        @ packages/cJSON-v1.0.2/cJSON.c:326:78
	ldr	r0, [sp, #4]
	.loc	1 326 77                        @ packages/cJSON-v1.0.2/cJSON.c:326:77
	ldrb	r1, [r0]
	movs	r0, #0
	.loc	1 326 80                        @ packages/cJSON-v1.0.2/cJSON.c:326:80
	cmp	r1, #33
	it	lt
	movlt	r0, #1
	str	r0, [sp]                        @ 4-byte Spill
	b	.LBB6_4
.LBB6_4:                                @   in Loop: Header=BB6_1 Depth=1
	.loc	1 0 0                           @ packages/cJSON-v1.0.2/cJSON.c:0:0
	ldr	r0, [sp]                        @ 4-byte Reload
	.loc	1 326 42                        @ packages/cJSON-v1.0.2/cJSON.c:326:42
	lsls	r0, r0, #31
	cbz	r0, .LBB6_6
	b	.LBB6_5
.LBB6_5:                                @   in Loop: Header=BB6_1 Depth=1
	.loc	1 326 88                        @ packages/cJSON-v1.0.2/cJSON.c:326:88
	ldr	r0, [sp, #4]
	adds	r0, #1
	str	r0, [sp, #4]
	.loc	1 326 42                        @ packages/cJSON-v1.0.2/cJSON.c:326:42
	b	.LBB6_1
.LBB6_6:
	.loc	1 326 99                        @ packages/cJSON-v1.0.2/cJSON.c:326:99
	ldr	r0, [sp, #4]
	.loc	1 326 92                        @ packages/cJSON-v1.0.2/cJSON.c:326:92
	add	sp, #8
	bx	lr
.Ltmp73:
.Lfunc_end6:
	.size	skip, .Lfunc_end6-skip
	.cfi_endproc
	.cantunwind
	.fnend
                                        @ -- End function
	.section	.text.cJSON_Parse,"ax",%progbits
	.hidden	cJSON_Parse                     @ -- Begin function cJSON_Parse
	.globl	cJSON_Parse
	.p2align	3
	.type	cJSON_Parse,%function
	.code	16                              @ @cJSON_Parse
	.thumb_func
cJSON_Parse:
.Lfunc_begin7:
	.loc	1 345 0 is_stmt 1               @ packages/cJSON-v1.0.2/cJSON.c:345:0
	.fnstart
	.cfi_startproc
@ %bb.0:
	.save	{r7, lr}
	push	{r7, lr}
	.cfi_def_cfa_offset 8
	.cfi_offset lr, -4
	.cfi_offset r7, -8
	.pad	#8
	sub	sp, #8
	.cfi_def_cfa_offset 16
	str	r0, [sp, #4]
.Ltmp74:
	.loc	1 345 67 prologue_end           @ packages/cJSON-v1.0.2/cJSON.c:345:67
	ldr	r0, [sp, #4]
	movs	r2, #0
	.loc	1 345 47 is_stmt 0              @ packages/cJSON-v1.0.2/cJSON.c:345:47
	mov	r1, r2
	bl	cJSON_ParseWithOpts
	.loc	1 345 40                        @ packages/cJSON-v1.0.2/cJSON.c:345:40
	add	sp, #8
	pop	{r7, pc}
.Ltmp75:
.Lfunc_end7:
	.size	cJSON_Parse, .Lfunc_end7-cJSON_Parse
	.cfi_endproc
	.cantunwind
	.fnend
                                        @ -- End function
	.section	.text.cJSON_Print,"ax",%progbits
	.hidden	cJSON_Print                     @ -- Begin function cJSON_Print
	.globl	cJSON_Print
	.p2align	3
	.type	cJSON_Print,%function
	.code	16                              @ @cJSON_Print
	.thumb_func
cJSON_Print:
.Lfunc_begin8:
	.loc	1 348 0 is_stmt 1               @ packages/cJSON-v1.0.2/cJSON.c:348:0
	.fnstart
	.cfi_startproc
@ %bb.0:
	.save	{r7, lr}
	push	{r7, lr}
	.cfi_def_cfa_offset 8
	.cfi_offset lr, -4
	.cfi_offset r7, -8
	.pad	#8
	sub	sp, #8
	.cfi_def_cfa_offset 16
	str	r0, [sp, #4]
.Ltmp76:
	.loc	1 348 55 prologue_end           @ packages/cJSON-v1.0.2/cJSON.c:348:55
	ldr	r0, [sp, #4]
	movs	r2, #1
	movs	r3, #0
	.loc	1 348 43 is_stmt 0              @ packages/cJSON-v1.0.2/cJSON.c:348:43
	mov	r1, r3
	bl	print_value
	.loc	1 348 36                        @ packages/cJSON-v1.0.2/cJSON.c:348:36
	add	sp, #8
	pop	{r7, pc}
.Ltmp77:
.Lfunc_end8:
	.size	cJSON_Print, .Lfunc_end8-cJSON_Print
	.cfi_endproc
	.cantunwind
	.fnend
                                        @ -- End function
	.section	.text.print_value,"ax",%progbits
	.p2align	3                               @ -- Begin function print_value
	.type	print_value,%function
	.code	16                              @ @print_value
	.thumb_func
print_value:
.Lfunc_begin9:
	.loc	1 379 0 is_stmt 1               @ packages/cJSON-v1.0.2/cJSON.c:379:0
	.fnstart
	.cfi_startproc
@ %bb.0:
	.save	{r7, lr}
	push	{r7, lr}
	.cfi_def_cfa_offset 8
	.cfi_offset lr, -4
	.cfi_offset r7, -8
	.pad	#32
	sub	sp, #32
	.cfi_def_cfa_offset 40
	str	r0, [sp, #24]
	str	r1, [sp, #20]
	str	r2, [sp, #16]
	str	r3, [sp, #12]
	movs	r0, #0
.Ltmp78:
	.loc	1 380 8 prologue_end            @ packages/cJSON-v1.0.2/cJSON.c:380:8
	str	r0, [sp, #8]
.Ltmp79:
	.loc	1 381 7                         @ packages/cJSON-v1.0.2/cJSON.c:381:7
	ldr	r0, [sp, #24]
.Ltmp80:
	.loc	1 381 6 is_stmt 0               @ packages/cJSON-v1.0.2/cJSON.c:381:6
	cbnz	r0, .LBB9_2
	b	.LBB9_1
.LBB9_1:
	.loc	1 0 6                           @ packages/cJSON-v1.0.2/cJSON.c:0:6
	movs	r0, #0
.Ltmp81:
	.loc	1 381 13                        @ packages/cJSON-v1.0.2/cJSON.c:381:13
	str	r0, [sp, #28]
	b	.LBB9_32
.Ltmp82:
.LBB9_2:
	.loc	1 382 6 is_stmt 1               @ packages/cJSON-v1.0.2/cJSON.c:382:6
	ldr	r0, [sp, #12]
.Ltmp83:
	.loc	1 382 6 is_stmt 0               @ packages/cJSON-v1.0.2/cJSON.c:382:6
	cmp	r0, #0
	beq	.LBB9_20
	b	.LBB9_3
.LBB9_3:
.Ltmp84:
	.loc	1 384 12 is_stmt 1              @ packages/cJSON-v1.0.2/cJSON.c:384:12
	ldr	r0, [sp, #24]
	.loc	1 384 18 is_stmt 0              @ packages/cJSON-v1.0.2/cJSON.c:384:18
	ldrb	r0, [r0, #12]
	.loc	1 384 3                         @ packages/cJSON-v1.0.2/cJSON.c:384:3
	mov	r1, r0
	str	r1, [sp, #4]                    @ 4-byte Spill
	cmp	r0, #6
	bhi	.LBB9_19
@ %bb.4:
	.loc	1 0 3                           @ packages/cJSON-v1.0.2/cJSON.c:0:3
	ldr	r1, [sp, #4]                    @ 4-byte Reload
.LCPI9_0:
	tbb	[pc, r1]
@ %bb.5:
.LJTI9_1:
	.byte	(.LBB9_9-(.LCPI9_0+4))/2
	.byte	(.LBB9_12-(.LCPI9_0+4))/2
	.byte	(.LBB9_6-(.LCPI9_0+4))/2
	.byte	(.LBB9_15-(.LCPI9_0+4))/2
	.byte	(.LBB9_16-(.LCPI9_0+4))/2
	.byte	(.LBB9_17-(.LCPI9_0+4))/2
	.byte	(.LBB9_18-(.LCPI9_0+4))/2
	.p2align	1
.LBB9_6:
.Ltmp85:
	.loc	1 386 33 is_stmt 1              @ packages/cJSON-v1.0.2/cJSON.c:386:33
	ldr	r0, [sp, #12]
	movs	r1, #5
	.loc	1 386 26 is_stmt 0              @ packages/cJSON-v1.0.2/cJSON.c:386:26
	bl	ensure
	.loc	1 386 25                        @ packages/cJSON-v1.0.2/cJSON.c:386:25
	str	r0, [sp, #8]
.Ltmp86:
	.loc	1 386 43                        @ packages/cJSON-v1.0.2/cJSON.c:386:43
	ldr	r0, [sp, #8]
.Ltmp87:
	.loc	1 386 43                        @ packages/cJSON-v1.0.2/cJSON.c:386:43
	cbz	r0, .LBB9_8
	b	.LBB9_7
.LBB9_7:
.Ltmp88:
	.loc	1 386 55                        @ packages/cJSON-v1.0.2/cJSON.c:386:55
	ldr	r0, [sp, #8]
	.loc	1 386 48                        @ packages/cJSON-v1.0.2/cJSON.c:386:48
	movw	r1, :lower16:.L.str
	movt	r1, :upper16:.L.str
	bl	strcpy
	b	.LBB9_8
.Ltmp89:
.LBB9_8:
	.loc	1 386 68                        @ packages/cJSON-v1.0.2/cJSON.c:386:68
	b	.LBB9_19
.Ltmp90:
.LBB9_9:
	.loc	1 387 34 is_stmt 1              @ packages/cJSON-v1.0.2/cJSON.c:387:34
	ldr	r0, [sp, #12]
	movs	r1, #6
	.loc	1 387 27 is_stmt 0              @ packages/cJSON-v1.0.2/cJSON.c:387:27
	bl	ensure
	.loc	1 387 26                        @ packages/cJSON-v1.0.2/cJSON.c:387:26
	str	r0, [sp, #8]
.Ltmp91:
	.loc	1 387 44                        @ packages/cJSON-v1.0.2/cJSON.c:387:44
	ldr	r0, [sp, #8]
.Ltmp92:
	.loc	1 387 44                        @ packages/cJSON-v1.0.2/cJSON.c:387:44
	cbz	r0, .LBB9_11
	b	.LBB9_10
.LBB9_10:
.Ltmp93:
	.loc	1 387 56                        @ packages/cJSON-v1.0.2/cJSON.c:387:56
	ldr	r0, [sp, #8]
	.loc	1 387 49                        @ packages/cJSON-v1.0.2/cJSON.c:387:49
	movw	r1, :lower16:.L.str.1
	movt	r1, :upper16:.L.str.1
	bl	strcpy
	b	.LBB9_11
.Ltmp94:
.LBB9_11:
	.loc	1 387 70                        @ packages/cJSON-v1.0.2/cJSON.c:387:70
	b	.LBB9_19
.Ltmp95:
.LBB9_12:
	.loc	1 388 33 is_stmt 1              @ packages/cJSON-v1.0.2/cJSON.c:388:33
	ldr	r0, [sp, #12]
	movs	r1, #5
	.loc	1 388 26 is_stmt 0              @ packages/cJSON-v1.0.2/cJSON.c:388:26
	bl	ensure
	.loc	1 388 25                        @ packages/cJSON-v1.0.2/cJSON.c:388:25
	str	r0, [sp, #8]
.Ltmp96:
	.loc	1 388 43                        @ packages/cJSON-v1.0.2/cJSON.c:388:43
	ldr	r0, [sp, #8]
.Ltmp97:
	.loc	1 388 43                        @ packages/cJSON-v1.0.2/cJSON.c:388:43
	cbz	r0, .LBB9_14
	b	.LBB9_13
.LBB9_13:
.Ltmp98:
	.loc	1 388 55                        @ packages/cJSON-v1.0.2/cJSON.c:388:55
	ldr	r0, [sp, #8]
	.loc	1 388 48                        @ packages/cJSON-v1.0.2/cJSON.c:388:48
	movw	r1, :lower16:.L.str.2
	movt	r1, :upper16:.L.str.2
	bl	strcpy
	b	.LBB9_14
.Ltmp99:
.LBB9_14:
	.loc	1 388 68                        @ packages/cJSON-v1.0.2/cJSON.c:388:68
	b	.LBB9_19
.Ltmp100:
.LBB9_15:
	.loc	1 389 40 is_stmt 1              @ packages/cJSON-v1.0.2/cJSON.c:389:40
	ldr	r0, [sp, #24]
	.loc	1 389 45 is_stmt 0              @ packages/cJSON-v1.0.2/cJSON.c:389:45
	ldr	r1, [sp, #12]
	.loc	1 389 27                        @ packages/cJSON-v1.0.2/cJSON.c:389:27
	bl	print_number
	.loc	1 389 26                        @ packages/cJSON-v1.0.2/cJSON.c:389:26
	str	r0, [sp, #8]
	.loc	1 389 48                        @ packages/cJSON-v1.0.2/cJSON.c:389:48
	b	.LBB9_19
.LBB9_16:
	.loc	1 390 40 is_stmt 1              @ packages/cJSON-v1.0.2/cJSON.c:390:40
	ldr	r0, [sp, #24]
	.loc	1 390 45 is_stmt 0              @ packages/cJSON-v1.0.2/cJSON.c:390:45
	ldr	r1, [sp, #12]
	.loc	1 390 27                        @ packages/cJSON-v1.0.2/cJSON.c:390:27
	bl	print_string
	.loc	1 390 26                        @ packages/cJSON-v1.0.2/cJSON.c:390:26
	str	r0, [sp, #8]
	.loc	1 390 48                        @ packages/cJSON-v1.0.2/cJSON.c:390:48
	b	.LBB9_19
.LBB9_17:
	.loc	1 391 38 is_stmt 1              @ packages/cJSON-v1.0.2/cJSON.c:391:38
	ldr	r0, [sp, #24]
	.loc	1 391 43 is_stmt 0              @ packages/cJSON-v1.0.2/cJSON.c:391:43
	ldr	r1, [sp, #20]
	.loc	1 391 49                        @ packages/cJSON-v1.0.2/cJSON.c:391:49
	ldr	r2, [sp, #16]
	.loc	1 391 53                        @ packages/cJSON-v1.0.2/cJSON.c:391:53
	ldr	r3, [sp, #12]
	.loc	1 391 26                        @ packages/cJSON-v1.0.2/cJSON.c:391:26
	bl	print_array
	.loc	1 391 25                        @ packages/cJSON-v1.0.2/cJSON.c:391:25
	str	r0, [sp, #8]
	.loc	1 391 56                        @ packages/cJSON-v1.0.2/cJSON.c:391:56
	b	.LBB9_19
.LBB9_18:
	.loc	1 392 40 is_stmt 1              @ packages/cJSON-v1.0.2/cJSON.c:392:40
	ldr	r0, [sp, #24]
	.loc	1 392 45 is_stmt 0              @ packages/cJSON-v1.0.2/cJSON.c:392:45
	ldr	r1, [sp, #20]
	.loc	1 392 51                        @ packages/cJSON-v1.0.2/cJSON.c:392:51
	ldr	r2, [sp, #16]
	.loc	1 392 55                        @ packages/cJSON-v1.0.2/cJSON.c:392:55
	ldr	r3, [sp, #12]
	.loc	1 392 27                        @ packages/cJSON-v1.0.2/cJSON.c:392:27
	bl	print_object
	.loc	1 392 26                        @ packages/cJSON-v1.0.2/cJSON.c:392:26
	str	r0, [sp, #8]
	.loc	1 392 58                        @ packages/cJSON-v1.0.2/cJSON.c:392:58
	b	.LBB9_19
.Ltmp101:
.LBB9_19:
	.loc	1 394 2 is_stmt 1               @ packages/cJSON-v1.0.2/cJSON.c:394:2
	b	.LBB9_31
.Ltmp102:
.LBB9_20:
	.loc	1 397 12                        @ packages/cJSON-v1.0.2/cJSON.c:397:12
	ldr	r0, [sp, #24]
	.loc	1 397 18 is_stmt 0              @ packages/cJSON-v1.0.2/cJSON.c:397:18
	ldrb	r0, [r0, #12]
	.loc	1 397 3                         @ packages/cJSON-v1.0.2/cJSON.c:397:3
	mov	r1, r0
	str	r1, [sp]                        @ 4-byte Spill
	cmp	r0, #6
	bhi	.LBB9_30
@ %bb.21:
	.loc	1 0 3                           @ packages/cJSON-v1.0.2/cJSON.c:0:3
	ldr	r1, [sp]                        @ 4-byte Reload
.LCPI9_1:
	tbb	[pc, r1]
@ %bb.22:
.LJTI9_0:
	.byte	(.LBB9_24-(.LCPI9_1+4))/2
	.byte	(.LBB9_25-(.LCPI9_1+4))/2
	.byte	(.LBB9_23-(.LCPI9_1+4))/2
	.byte	(.LBB9_26-(.LCPI9_1+4))/2
	.byte	(.LBB9_27-(.LCPI9_1+4))/2
	.byte	(.LBB9_28-(.LCPI9_1+4))/2
	.byte	(.LBB9_29-(.LCPI9_1+4))/2
	.p2align	1
.LBB9_23:
.Ltmp103:
	.loc	1 399 25 is_stmt 1              @ packages/cJSON-v1.0.2/cJSON.c:399:25
	movw	r0, :lower16:.L.str
	movt	r0, :upper16:.L.str
	bl	cJSON_strdup
	.loc	1 399 24 is_stmt 0              @ packages/cJSON-v1.0.2/cJSON.c:399:24
	str	r0, [sp, #8]
	.loc	1 399 47                        @ packages/cJSON-v1.0.2/cJSON.c:399:47
	b	.LBB9_30
.LBB9_24:
	.loc	1 400 26 is_stmt 1              @ packages/cJSON-v1.0.2/cJSON.c:400:26
	movw	r0, :lower16:.L.str.1
	movt	r0, :upper16:.L.str.1
	bl	cJSON_strdup
	.loc	1 400 25 is_stmt 0              @ packages/cJSON-v1.0.2/cJSON.c:400:25
	str	r0, [sp, #8]
	.loc	1 400 48                        @ packages/cJSON-v1.0.2/cJSON.c:400:48
	b	.LBB9_30
.LBB9_25:
	.loc	1 401 25 is_stmt 1              @ packages/cJSON-v1.0.2/cJSON.c:401:25
	movw	r0, :lower16:.L.str.2
	movt	r0, :upper16:.L.str.2
	bl	cJSON_strdup
	.loc	1 401 24 is_stmt 0              @ packages/cJSON-v1.0.2/cJSON.c:401:24
	str	r0, [sp, #8]
	.loc	1 401 47                        @ packages/cJSON-v1.0.2/cJSON.c:401:47
	b	.LBB9_30
.LBB9_26:
	.loc	1 402 40 is_stmt 1              @ packages/cJSON-v1.0.2/cJSON.c:402:40
	ldr	r0, [sp, #24]
	movs	r1, #0
	.loc	1 402 27 is_stmt 0              @ packages/cJSON-v1.0.2/cJSON.c:402:27
	bl	print_number
	.loc	1 402 26                        @ packages/cJSON-v1.0.2/cJSON.c:402:26
	str	r0, [sp, #8]
	.loc	1 402 48                        @ packages/cJSON-v1.0.2/cJSON.c:402:48
	b	.LBB9_30
.LBB9_27:
	.loc	1 403 40 is_stmt 1              @ packages/cJSON-v1.0.2/cJSON.c:403:40
	ldr	r0, [sp, #24]
	movs	r1, #0
	.loc	1 403 27 is_stmt 0              @ packages/cJSON-v1.0.2/cJSON.c:403:27
	bl	print_string
	.loc	1 403 26                        @ packages/cJSON-v1.0.2/cJSON.c:403:26
	str	r0, [sp, #8]
	.loc	1 403 48                        @ packages/cJSON-v1.0.2/cJSON.c:403:48
	b	.LBB9_30
.LBB9_28:
	.loc	1 404 38 is_stmt 1              @ packages/cJSON-v1.0.2/cJSON.c:404:38
	ldr	r0, [sp, #24]
	.loc	1 404 43 is_stmt 0              @ packages/cJSON-v1.0.2/cJSON.c:404:43
	ldr	r1, [sp, #20]
	.loc	1 404 49                        @ packages/cJSON-v1.0.2/cJSON.c:404:49
	ldr	r2, [sp, #16]
	movs	r3, #0
	.loc	1 404 26                        @ packages/cJSON-v1.0.2/cJSON.c:404:26
	bl	print_array
	.loc	1 404 25                        @ packages/cJSON-v1.0.2/cJSON.c:404:25
	str	r0, [sp, #8]
	.loc	1 404 56                        @ packages/cJSON-v1.0.2/cJSON.c:404:56
	b	.LBB9_30
.LBB9_29:
	.loc	1 405 40 is_stmt 1              @ packages/cJSON-v1.0.2/cJSON.c:405:40
	ldr	r0, [sp, #24]
	.loc	1 405 45 is_stmt 0              @ packages/cJSON-v1.0.2/cJSON.c:405:45
	ldr	r1, [sp, #20]
	.loc	1 405 51                        @ packages/cJSON-v1.0.2/cJSON.c:405:51
	ldr	r2, [sp, #16]
	movs	r3, #0
	.loc	1 405 27                        @ packages/cJSON-v1.0.2/cJSON.c:405:27
	bl	print_object
	.loc	1 405 26                        @ packages/cJSON-v1.0.2/cJSON.c:405:26
	str	r0, [sp, #8]
	.loc	1 405 58                        @ packages/cJSON-v1.0.2/cJSON.c:405:58
	b	.LBB9_30
.Ltmp104:
.LBB9_30:
	.loc	1 0 58                          @ packages/cJSON-v1.0.2/cJSON.c:0:58
	b	.LBB9_31
.LBB9_31:
	.loc	1 408 9 is_stmt 1               @ packages/cJSON-v1.0.2/cJSON.c:408:9
	ldr	r0, [sp, #8]
	.loc	1 408 2 is_stmt 0               @ packages/cJSON-v1.0.2/cJSON.c:408:2
	str	r0, [sp, #28]
	b	.LBB9_32
.LBB9_32:
	.loc	1 409 1 is_stmt 1               @ packages/cJSON-v1.0.2/cJSON.c:409:1
	ldr	r0, [sp, #28]
	add	sp, #32
	pop	{r7, pc}
.Ltmp105:
.Lfunc_end9:
	.size	print_value, .Lfunc_end9-print_value
	.cfi_endproc
	.cantunwind
	.fnend
                                        @ -- End function
	.section	.text.cJSON_PrintUnformatted,"ax",%progbits
	.hidden	cJSON_PrintUnformatted          @ -- Begin function cJSON_PrintUnformatted
	.globl	cJSON_PrintUnformatted
	.p2align	3
	.type	cJSON_PrintUnformatted,%function
	.code	16                              @ @cJSON_PrintUnformatted
	.thumb_func
cJSON_PrintUnformatted:
.Lfunc_begin10:
	.loc	1 349 0                         @ packages/cJSON-v1.0.2/cJSON.c:349:0
	.fnstart
	.cfi_startproc
@ %bb.0:
	.save	{r7, lr}
	push	{r7, lr}
	.cfi_def_cfa_offset 8
	.cfi_offset lr, -4
	.cfi_offset r7, -8
	.pad	#8
	sub	sp, #8
	.cfi_def_cfa_offset 16
	str	r0, [sp, #4]
.Ltmp106:
	.loc	1 349 63 prologue_end           @ packages/cJSON-v1.0.2/cJSON.c:349:63
	ldr	r0, [sp, #4]
	movs	r3, #0
	.loc	1 349 51 is_stmt 0              @ packages/cJSON-v1.0.2/cJSON.c:349:51
	mov	r1, r3
	mov	r2, r3
	bl	print_value
	.loc	1 349 44                        @ packages/cJSON-v1.0.2/cJSON.c:349:44
	add	sp, #8
	pop	{r7, pc}
.Ltmp107:
.Lfunc_end10:
	.size	cJSON_PrintUnformatted, .Lfunc_end10-cJSON_PrintUnformatted
	.cfi_endproc
	.cantunwind
	.fnend
                                        @ -- End function
	.section	.text.cJSON_PrintBuffered,"ax",%progbits
	.hidden	cJSON_PrintBuffered             @ -- Begin function cJSON_PrintBuffered
	.globl	cJSON_PrintBuffered
	.p2align	3
	.type	cJSON_PrintBuffered,%function
	.code	16                              @ @cJSON_PrintBuffered
	.thumb_func
cJSON_PrintBuffered:
.Lfunc_begin11:
	.loc	1 352 0 is_stmt 1               @ packages/cJSON-v1.0.2/cJSON.c:352:0
	.fnstart
	.cfi_startproc
@ %bb.0:
	.save	{r7, lr}
	push	{r7, lr}
	.cfi_def_cfa_offset 8
	.cfi_offset lr, -4
	.cfi_offset r7, -8
	.pad	#24
	sub	sp, #24
	.cfi_def_cfa_offset 32
	str	r0, [sp, #20]
	str	r1, [sp, #16]
	str	r2, [sp, #12]
.Ltmp108:
	.loc	1 354 18 prologue_end           @ packages/cJSON-v1.0.2/cJSON.c:354:18
	movw	r0, :lower16:cJSON_malloc
	movt	r0, :upper16:cJSON_malloc
	ldr	r1, [r0]
	.loc	1 354 31 is_stmt 0              @ packages/cJSON-v1.0.2/cJSON.c:354:31
	ldr	r0, [sp, #16]
	.loc	1 354 18                        @ packages/cJSON-v1.0.2/cJSON.c:354:18
	blx	r1
	.loc	1 354 10                        @ packages/cJSON-v1.0.2/cJSON.c:354:10
	str	r0, [sp]
	.loc	1 355 11 is_stmt 1              @ packages/cJSON-v1.0.2/cJSON.c:355:11
	ldr	r0, [sp, #16]
	.loc	1 355 10 is_stmt 0              @ packages/cJSON-v1.0.2/cJSON.c:355:10
	str	r0, [sp, #4]
	movs	r1, #0
	.loc	1 356 10 is_stmt 1              @ packages/cJSON-v1.0.2/cJSON.c:356:10
	str	r1, [sp, #8]
	.loc	1 357 21                        @ packages/cJSON-v1.0.2/cJSON.c:357:21
	ldr	r0, [sp, #20]
	.loc	1 357 28 is_stmt 0              @ packages/cJSON-v1.0.2/cJSON.c:357:28
	ldr	r2, [sp, #12]
	mov	r3, sp
	.loc	1 357 9                         @ packages/cJSON-v1.0.2/cJSON.c:357:9
	bl	print_value
	.loc	1 357 2                         @ packages/cJSON-v1.0.2/cJSON.c:357:2
	add	sp, #24
	pop	{r7, pc}
.Ltmp109:
.Lfunc_end11:
	.size	cJSON_PrintBuffered, .Lfunc_end11-cJSON_PrintBuffered
	.cfi_endproc
	.cantunwind
	.fnend
                                        @ -- End function
	.section	.text.cJSON_GetArraySize,"ax",%progbits
	.hidden	cJSON_GetArraySize              @ -- Begin function cJSON_GetArraySize
	.globl	cJSON_GetArraySize
	.p2align	3
	.type	cJSON_GetArraySize,%function
	.code	16                              @ @cJSON_GetArraySize
	.thumb_func
cJSON_GetArraySize:
.Lfunc_begin12:
	.loc	1 667 0 is_stmt 1               @ packages/cJSON-v1.0.2/cJSON.c:667:0
	.fnstart
	.cfi_startproc
@ %bb.0:
	.pad	#12
	sub	sp, #12
	.cfi_def_cfa_offset 12
	str	r0, [sp, #8]
.Ltmp110:
	.loc	1 667 57 prologue_end           @ packages/cJSON-v1.0.2/cJSON.c:667:57
	ldr	r0, [sp, #8]
	.loc	1 667 64 is_stmt 0              @ packages/cJSON-v1.0.2/cJSON.c:667:64
	ldr	r0, [r0, #8]
	.loc	1 667 55                        @ packages/cJSON-v1.0.2/cJSON.c:667:55
	str	r0, [sp, #4]
	movs	r0, #0
	.loc	1 667 74                        @ packages/cJSON-v1.0.2/cJSON.c:667:74
	str	r0, [sp]
	.loc	1 667 78                        @ packages/cJSON-v1.0.2/cJSON.c:667:78
	b	.LBB12_1
.LBB12_1:                               @ =>This Inner Loop Header: Depth=1
	.loc	1 667 84                        @ packages/cJSON-v1.0.2/cJSON.c:667:84
	ldr	r0, [sp, #4]
	.loc	1 667 78                        @ packages/cJSON-v1.0.2/cJSON.c:667:78
	cbz	r0, .LBB12_3
	b	.LBB12_2
.LBB12_2:                               @   in Loop: Header=BB12_1 Depth=1
	.loc	1 667 87                        @ packages/cJSON-v1.0.2/cJSON.c:667:87
	ldr	r0, [sp]
	adds	r0, #1
	str	r0, [sp]
	.loc	1 667 92                        @ packages/cJSON-v1.0.2/cJSON.c:667:92
	ldr	r0, [sp, #4]
	.loc	1 667 95                        @ packages/cJSON-v1.0.2/cJSON.c:667:95
	ldr	r0, [r0]
	.loc	1 667 91                        @ packages/cJSON-v1.0.2/cJSON.c:667:91
	str	r0, [sp, #4]
	.loc	1 667 78                        @ packages/cJSON-v1.0.2/cJSON.c:667:78
	b	.LBB12_1
.LBB12_3:
	.loc	1 667 107                       @ packages/cJSON-v1.0.2/cJSON.c:667:107
	ldr	r0, [sp]
	.loc	1 667 100                       @ packages/cJSON-v1.0.2/cJSON.c:667:100
	add	sp, #12
	bx	lr
.Ltmp111:
.Lfunc_end12:
	.size	cJSON_GetArraySize, .Lfunc_end12-cJSON_GetArraySize
	.cfi_endproc
	.cantunwind
	.fnend
                                        @ -- End function
	.section	.text.cJSON_GetArrayItem,"ax",%progbits
	.hidden	cJSON_GetArrayItem              @ -- Begin function cJSON_GetArrayItem
	.globl	cJSON_GetArrayItem
	.p2align	3
	.type	cJSON_GetArrayItem,%function
	.code	16                              @ @cJSON_GetArrayItem
	.thumb_func
cJSON_GetArrayItem:
.Lfunc_begin13:
	.loc	1 668 0 is_stmt 1               @ packages/cJSON-v1.0.2/cJSON.c:668:0
	.fnstart
	.cfi_startproc
@ %bb.0:
	.pad	#16
	sub	sp, #16
	.cfi_def_cfa_offset 16
	str	r0, [sp, #12]
	str	r1, [sp, #8]
.Ltmp112:
	.loc	1 668 63 prologue_end           @ packages/cJSON-v1.0.2/cJSON.c:668:63
	ldr	r0, [sp, #12]
	.loc	1 668 70 is_stmt 0              @ packages/cJSON-v1.0.2/cJSON.c:668:70
	ldr	r0, [r0, #8]
	.loc	1 668 61                        @ packages/cJSON-v1.0.2/cJSON.c:668:61
	str	r0, [sp, #4]
	.loc	1 668 78                        @ packages/cJSON-v1.0.2/cJSON.c:668:78
	b	.LBB13_1
.LBB13_1:                               @ =>This Inner Loop Header: Depth=1
	.loc	1 668 85                        @ packages/cJSON-v1.0.2/cJSON.c:668:85
	ldr	r1, [sp, #4]
	movs	r0, #0
	.loc	1 668 87                        @ packages/cJSON-v1.0.2/cJSON.c:668:87
	str	r0, [sp]                        @ 4-byte Spill
	cbz	r1, .LBB13_3
	b	.LBB13_2
.LBB13_2:                               @   in Loop: Header=BB13_1 Depth=1
	.loc	1 668 90                        @ packages/cJSON-v1.0.2/cJSON.c:668:90
	ldr	r1, [sp, #8]
	movs	r0, #0
	.loc	1 668 94                        @ packages/cJSON-v1.0.2/cJSON.c:668:94
	cmp	r1, #0
	it	gt
	movgt	r0, #1
	str	r0, [sp]                        @ 4-byte Spill
	b	.LBB13_3
.LBB13_3:                               @   in Loop: Header=BB13_1 Depth=1
	.loc	1 0 0                           @ packages/cJSON-v1.0.2/cJSON.c:0:0
	ldr	r0, [sp]                        @ 4-byte Reload
	.loc	1 668 78                        @ packages/cJSON-v1.0.2/cJSON.c:668:78
	lsls	r0, r0, #31
	cbz	r0, .LBB13_5
	b	.LBB13_4
.LBB13_4:                               @   in Loop: Header=BB13_1 Depth=1
	.loc	1 668 102                       @ packages/cJSON-v1.0.2/cJSON.c:668:102
	ldr	r0, [sp, #8]
	subs	r0, #1
	str	r0, [sp, #8]
	.loc	1 668 107                       @ packages/cJSON-v1.0.2/cJSON.c:668:107
	ldr	r0, [sp, #4]
	.loc	1 668 110                       @ packages/cJSON-v1.0.2/cJSON.c:668:110
	ldr	r0, [r0]
	.loc	1 668 106                       @ packages/cJSON-v1.0.2/cJSON.c:668:106
	str	r0, [sp, #4]
	.loc	1 668 78                        @ packages/cJSON-v1.0.2/cJSON.c:668:78
	b	.LBB13_1
.LBB13_5:
	.loc	1 668 123                       @ packages/cJSON-v1.0.2/cJSON.c:668:123
	ldr	r0, [sp, #4]
	.loc	1 668 116                       @ packages/cJSON-v1.0.2/cJSON.c:668:116
	add	sp, #16
	bx	lr
.Ltmp113:
.Lfunc_end13:
	.size	cJSON_GetArrayItem, .Lfunc_end13-cJSON_GetArrayItem
	.cfi_endproc
	.cantunwind
	.fnend
                                        @ -- End function
	.section	.text.cJSON_GetObjectItem,"ax",%progbits
	.hidden	cJSON_GetObjectItem             @ -- Begin function cJSON_GetObjectItem
	.globl	cJSON_GetObjectItem
	.p2align	3
	.type	cJSON_GetObjectItem,%function
	.code	16                              @ @cJSON_GetObjectItem
	.thumb_func
cJSON_GetObjectItem:
.Lfunc_begin14:
	.loc	1 669 0 is_stmt 1               @ packages/cJSON-v1.0.2/cJSON.c:669:0
	.fnstart
	.cfi_startproc
@ %bb.0:
	.save	{r7, lr}
	push	{r7, lr}
	.cfi_def_cfa_offset 8
	.cfi_offset lr, -4
	.cfi_offset r7, -8
	.pad	#16
	sub	sp, #16
	.cfi_def_cfa_offset 24
	str	r0, [sp, #12]
	str	r1, [sp, #8]
.Ltmp114:
	.loc	1 669 72 prologue_end           @ packages/cJSON-v1.0.2/cJSON.c:669:72
	ldr	r0, [sp, #12]
	.loc	1 669 80 is_stmt 0              @ packages/cJSON-v1.0.2/cJSON.c:669:80
	ldr	r0, [r0, #8]
	.loc	1 669 70                        @ packages/cJSON-v1.0.2/cJSON.c:669:70
	str	r0, [sp, #4]
	.loc	1 669 87                        @ packages/cJSON-v1.0.2/cJSON.c:669:87
	b	.LBB14_1
.LBB14_1:                               @ =>This Inner Loop Header: Depth=1
	.loc	1 669 94                        @ packages/cJSON-v1.0.2/cJSON.c:669:94
	ldr	r1, [sp, #4]
	movs	r0, #0
	.loc	1 669 96                        @ packages/cJSON-v1.0.2/cJSON.c:669:96
	str	r0, [sp]                        @ 4-byte Spill
	cbz	r1, .LBB14_3
	b	.LBB14_2
.LBB14_2:                               @   in Loop: Header=BB14_1 Depth=1
	.loc	1 669 116                       @ packages/cJSON-v1.0.2/cJSON.c:669:116
	ldr	r0, [sp, #4]
	.loc	1 669 119                       @ packages/cJSON-v1.0.2/cJSON.c:669:119
	ldr	r0, [r0, #32]
	.loc	1 669 126                       @ packages/cJSON-v1.0.2/cJSON.c:669:126
	ldr	r1, [sp, #8]
	.loc	1 669 99                        @ packages/cJSON-v1.0.2/cJSON.c:669:99
	bl	cJSON_strcasecmp
	.loc	1 669 96                        @ packages/cJSON-v1.0.2/cJSON.c:669:96
	cmp	r0, #0
	it	ne
	movne	r0, #1
	str	r0, [sp]                        @ 4-byte Spill
	b	.LBB14_3
.LBB14_3:                               @   in Loop: Header=BB14_1 Depth=1
	.loc	1 0 0                           @ packages/cJSON-v1.0.2/cJSON.c:0:0
	ldr	r0, [sp]                        @ 4-byte Reload
	.loc	1 669 87                        @ packages/cJSON-v1.0.2/cJSON.c:669:87
	lsls	r0, r0, #31
	cbz	r0, .LBB14_5
	b	.LBB14_4
.LBB14_4:                               @   in Loop: Header=BB14_1 Depth=1
	.loc	1 669 137                       @ packages/cJSON-v1.0.2/cJSON.c:669:137
	ldr	r0, [sp, #4]
	.loc	1 669 140                       @ packages/cJSON-v1.0.2/cJSON.c:669:140
	ldr	r0, [r0]
	.loc	1 669 136                       @ packages/cJSON-v1.0.2/cJSON.c:669:136
	str	r0, [sp, #4]
	.loc	1 669 87                        @ packages/cJSON-v1.0.2/cJSON.c:669:87
	b	.LBB14_1
.LBB14_5:
	.loc	1 669 153                       @ packages/cJSON-v1.0.2/cJSON.c:669:153
	ldr	r0, [sp, #4]
	.loc	1 669 146                       @ packages/cJSON-v1.0.2/cJSON.c:669:146
	add	sp, #16
	pop	{r7, pc}
.Ltmp115:
.Lfunc_end14:
	.size	cJSON_GetObjectItem, .Lfunc_end14-cJSON_GetObjectItem
	.cfi_endproc
	.cantunwind
	.fnend
                                        @ -- End function
	.section	.text.cJSON_strcasecmp,"ax",%progbits
	.p2align	3                               @ -- Begin function cJSON_strcasecmp
	.type	cJSON_strcasecmp,%function
	.code	16                              @ @cJSON_strcasecmp
	.thumb_func
cJSON_strcasecmp:
.Lfunc_begin15:
	.loc	1 46 0 is_stmt 1                @ packages/cJSON-v1.0.2/cJSON.c:46:0
	.fnstart
	.cfi_startproc
@ %bb.0:
	.save	{r7, lr}
	push	{r7, lr}
	.cfi_def_cfa_offset 8
	.cfi_offset lr, -4
	.cfi_offset r7, -8
	.pad	#24
	sub	sp, #24
	.cfi_def_cfa_offset 32
	str	r0, [sp, #16]
	str	r1, [sp, #12]
.Ltmp116:
	.loc	1 47 7 prologue_end             @ packages/cJSON-v1.0.2/cJSON.c:47:7
	ldr	r0, [sp, #16]
.Ltmp117:
	.loc	1 47 6 is_stmt 0                @ packages/cJSON-v1.0.2/cJSON.c:47:6
	cbnz	r0, .LBB15_2
	b	.LBB15_1
.LBB15_1:
.Ltmp118:
	.loc	1 47 19                         @ packages/cJSON-v1.0.2/cJSON.c:47:19
	ldr	r0, [sp, #16]
	.loc	1 47 23                         @ packages/cJSON-v1.0.2/cJSON.c:47:23
	ldr	r1, [sp, #12]
	.loc	1 47 21                         @ packages/cJSON-v1.0.2/cJSON.c:47:21
	subs	r0, r0, r1
	it	ne
	movne	r0, #1
	.loc	1 47 11                         @ packages/cJSON-v1.0.2/cJSON.c:47:11
	str	r0, [sp, #20]
	b	.LBB15_11
.Ltmp119:
.LBB15_2:
	.loc	1 47 36                         @ packages/cJSON-v1.0.2/cJSON.c:47:36
	ldr	r0, [sp, #12]
.Ltmp120:
	.loc	1 47 35                         @ packages/cJSON-v1.0.2/cJSON.c:47:35
	cbnz	r0, .LBB15_4
	b	.LBB15_3
.LBB15_3:
	.loc	1 0 35                          @ packages/cJSON-v1.0.2/cJSON.c:0:35
	movs	r0, #1
.Ltmp121:
	.loc	1 47 40                         @ packages/cJSON-v1.0.2/cJSON.c:47:40
	str	r0, [sp, #20]
	b	.LBB15_11
.Ltmp122:
.LBB15_4:
	.loc	1 48 2 is_stmt 1                @ packages/cJSON-v1.0.2/cJSON.c:48:2
	b	.LBB15_5
.LBB15_5:                               @ =>This Inner Loop Header: Depth=1
.Ltmp123:
	.loc	1 48 17 is_stmt 0               @ packages/cJSON-v1.0.2/cJSON.c:48:17
	ldr	r0, [sp, #16]
	.loc	1 48 16                         @ packages/cJSON-v1.0.2/cJSON.c:48:16
	ldrsb.w	r0, [r0]
	.loc	1 48 8                          @ packages/cJSON-v1.0.2/cJSON.c:48:8
	bl	tolower
	.loc	1 48 33                         @ packages/cJSON-v1.0.2/cJSON.c:48:33
	str	r0, [sp, #8]                    @ 4-byte Spill
	ldr	r0, [sp, #12]
	.loc	1 48 32                         @ packages/cJSON-v1.0.2/cJSON.c:48:32
	ldrsb.w	r0, [r0]
	.loc	1 48 24                         @ packages/cJSON-v1.0.2/cJSON.c:48:24
	bl	tolower
	mov	r1, r0
.Ltmp124:
	.loc	1 48 2                          @ packages/cJSON-v1.0.2/cJSON.c:48:2
	ldr	r0, [sp, #8]                    @ 4-byte Reload
	cmp	r0, r1
	bne	.LBB15_10
	b	.LBB15_6
.LBB15_6:                               @   in Loop: Header=BB15_5 Depth=1
.Ltmp125:
	.loc	1 48 54                         @ packages/cJSON-v1.0.2/cJSON.c:48:54
	ldr	r0, [sp, #16]
	.loc	1 48 53                         @ packages/cJSON-v1.0.2/cJSON.c:48:53
	ldrsb.w	r0, [r0]
.Ltmp126:
	.loc	1 48 53                         @ packages/cJSON-v1.0.2/cJSON.c:48:53
	cbnz	r0, .LBB15_8
	b	.LBB15_7
.LBB15_7:
	.loc	1 0 53                          @ packages/cJSON-v1.0.2/cJSON.c:0:53
	movs	r0, #0
.Ltmp127:
	.loc	1 48 63                         @ packages/cJSON-v1.0.2/cJSON.c:48:63
	str	r0, [sp, #20]
	b	.LBB15_11
.LBB15_8:                               @   in Loop: Header=BB15_5 Depth=1
	.loc	1 48 60                         @ packages/cJSON-v1.0.2/cJSON.c:48:60
	b	.LBB15_9
.Ltmp128:
.LBB15_9:                               @   in Loop: Header=BB15_5 Depth=1
	.loc	1 48 38                         @ packages/cJSON-v1.0.2/cJSON.c:48:38
	ldr	r0, [sp, #16]
	adds	r0, #1
	str	r0, [sp, #16]
	.loc	1 48 44                         @ packages/cJSON-v1.0.2/cJSON.c:48:44
	ldr	r0, [sp, #12]
	adds	r0, #1
	str	r0, [sp, #12]
	.loc	1 48 2                          @ packages/cJSON-v1.0.2/cJSON.c:48:2
	b	.LBB15_5
.Ltmp129:
.LBB15_10:
	.loc	1 49 41 is_stmt 1               @ packages/cJSON-v1.0.2/cJSON.c:49:41
	ldr	r0, [sp, #16]
	.loc	1 49 17 is_stmt 0               @ packages/cJSON-v1.0.2/cJSON.c:49:17
	ldrb	r0, [r0]
	.loc	1 49 9                          @ packages/cJSON-v1.0.2/cJSON.c:49:9
	bl	tolower
	.loc	1 49 79                         @ packages/cJSON-v1.0.2/cJSON.c:49:79
	str	r0, [sp, #4]                    @ 4-byte Spill
	ldr	r0, [sp, #12]
	.loc	1 49 55                         @ packages/cJSON-v1.0.2/cJSON.c:49:55
	ldrb	r0, [r0]
	.loc	1 49 47                         @ packages/cJSON-v1.0.2/cJSON.c:49:47
	bl	tolower
	mov	r1, r0
	.loc	1 49 45                         @ packages/cJSON-v1.0.2/cJSON.c:49:45
	ldr	r0, [sp, #4]                    @ 4-byte Reload
	subs	r0, r0, r1
	.loc	1 49 2                          @ packages/cJSON-v1.0.2/cJSON.c:49:2
	str	r0, [sp, #20]
	b	.LBB15_11
.LBB15_11:
	.loc	1 50 1 is_stmt 1                @ packages/cJSON-v1.0.2/cJSON.c:50:1
	ldr	r0, [sp, #20]
	add	sp, #24
	pop	{r7, pc}
.Ltmp130:
.Lfunc_end15:
	.size	cJSON_strcasecmp, .Lfunc_end15-cJSON_strcasecmp
	.cfi_endproc
	.cantunwind
	.fnend
                                        @ -- End function
	.section	.text.cJSON_AddItemToArray,"ax",%progbits
	.hidden	cJSON_AddItemToArray            @ -- Begin function cJSON_AddItemToArray
	.globl	cJSON_AddItemToArray
	.p2align	3
	.type	cJSON_AddItemToArray,%function
	.code	16                              @ @cJSON_AddItemToArray
	.thumb_func
cJSON_AddItemToArray:
.Lfunc_begin16:
	.loc	1 677 0                         @ packages/cJSON-v1.0.2/cJSON.c:677:0
	.fnstart
	.cfi_startproc
@ %bb.0:
	.save	{r7, lr}
	push	{r7, lr}
	.cfi_def_cfa_offset 8
	.cfi_offset lr, -4
	.cfi_offset r7, -8
	.pad	#16
	sub	sp, #16
	.cfi_def_cfa_offset 24
	str	r0, [sp, #12]
	str	r1, [sp, #8]
.Ltmp131:
	.loc	1 677 71 prologue_end           @ packages/cJSON-v1.0.2/cJSON.c:677:71
	ldr	r0, [sp, #12]
	.loc	1 677 78 is_stmt 0              @ packages/cJSON-v1.0.2/cJSON.c:677:78
	ldr	r0, [r0, #8]
	.loc	1 677 69                        @ packages/cJSON-v1.0.2/cJSON.c:677:69
	str	r0, [sp, #4]
.Ltmp132:
	.loc	1 677 89                        @ packages/cJSON-v1.0.2/cJSON.c:677:89
	ldr	r0, [sp, #8]
.Ltmp133:
	.loc	1 677 88                        @ packages/cJSON-v1.0.2/cJSON.c:677:88
	cbnz	r0, .LBB16_2
	b	.LBB16_1
.LBB16_1:
.Ltmp134:
	.loc	1 677 95                        @ packages/cJSON-v1.0.2/cJSON.c:677:95
	b	.LBB16_10
.Ltmp135:
.LBB16_2:
	.loc	1 677 108                       @ packages/cJSON-v1.0.2/cJSON.c:677:108
	ldr	r0, [sp, #4]
.Ltmp136:
	.loc	1 677 107                       @ packages/cJSON-v1.0.2/cJSON.c:677:107
	cbnz	r0, .LBB16_4
	b	.LBB16_3
.LBB16_3:
.Ltmp137:
	.loc	1 677 125                       @ packages/cJSON-v1.0.2/cJSON.c:677:125
	ldr	r0, [sp, #8]
	.loc	1 677 112                       @ packages/cJSON-v1.0.2/cJSON.c:677:112
	ldr	r1, [sp, #12]
	.loc	1 677 124                       @ packages/cJSON-v1.0.2/cJSON.c:677:124
	str	r0, [r1, #8]
	.loc	1 677 130                       @ packages/cJSON-v1.0.2/cJSON.c:677:130
	b	.LBB16_10
.Ltmp138:
.LBB16_4:
	.loc	1 677 138                       @ packages/cJSON-v1.0.2/cJSON.c:677:138
	b	.LBB16_5
.LBB16_5:                               @ =>This Inner Loop Header: Depth=1
	.loc	1 677 145                       @ packages/cJSON-v1.0.2/cJSON.c:677:145
	ldr	r1, [sp, #4]
	movs	r0, #0
	.loc	1 677 147                       @ packages/cJSON-v1.0.2/cJSON.c:677:147
	str	r0, [sp]                        @ 4-byte Spill
	cbz	r1, .LBB16_7
	b	.LBB16_6
.LBB16_6:                               @   in Loop: Header=BB16_5 Depth=1
	.loc	1 677 150                       @ packages/cJSON-v1.0.2/cJSON.c:677:150
	ldr	r0, [sp, #4]
	.loc	1 677 153                       @ packages/cJSON-v1.0.2/cJSON.c:677:153
	ldr	r0, [r0]
	.loc	1 677 147                       @ packages/cJSON-v1.0.2/cJSON.c:677:147
	cmp	r0, #0
	it	ne
	movne	r0, #1
	str	r0, [sp]                        @ 4-byte Spill
	b	.LBB16_7
.LBB16_7:                               @   in Loop: Header=BB16_5 Depth=1
	.loc	1 0 0                           @ packages/cJSON-v1.0.2/cJSON.c:0:0
	ldr	r0, [sp]                        @ 4-byte Reload
	.loc	1 677 138                       @ packages/cJSON-v1.0.2/cJSON.c:677:138
	lsls	r0, r0, #31
	cbz	r0, .LBB16_9
	b	.LBB16_8
.LBB16_8:                               @   in Loop: Header=BB16_5 Depth=1
	.loc	1 677 161                       @ packages/cJSON-v1.0.2/cJSON.c:677:161
	ldr	r0, [sp, #4]
	.loc	1 677 164                       @ packages/cJSON-v1.0.2/cJSON.c:677:164
	ldr	r0, [r0]
	.loc	1 677 160                       @ packages/cJSON-v1.0.2/cJSON.c:677:160
	str	r0, [sp, #4]
	.loc	1 677 138                       @ packages/cJSON-v1.0.2/cJSON.c:677:138
	b	.LBB16_5
.LBB16_9:
	.loc	1 677 184                       @ packages/cJSON-v1.0.2/cJSON.c:677:184
	ldr	r0, [sp, #4]
	.loc	1 677 186                       @ packages/cJSON-v1.0.2/cJSON.c:677:186
	ldr	r1, [sp, #8]
	.loc	1 677 170                       @ packages/cJSON-v1.0.2/cJSON.c:677:170
	bl	suffix_object
	b	.LBB16_10
.Ltmp139:
.LBB16_10:
	.loc	1 677 193                       @ packages/cJSON-v1.0.2/cJSON.c:677:193
	add	sp, #16
	pop	{r7, pc}
.Ltmp140:
.Lfunc_end16:
	.size	cJSON_AddItemToArray, .Lfunc_end16-cJSON_AddItemToArray
	.cfi_endproc
	.cantunwind
	.fnend
                                        @ -- End function
	.section	.text.suffix_object,"ax",%progbits
	.p2align	3                               @ -- Begin function suffix_object
	.type	suffix_object,%function
	.code	16                              @ @suffix_object
	.thumb_func
suffix_object:
.Lfunc_begin17:
	.loc	1 672 0 is_stmt 1               @ packages/cJSON-v1.0.2/cJSON.c:672:0
	.fnstart
	.cfi_startproc
@ %bb.0:
	.pad	#8
	sub	sp, #8
	.cfi_def_cfa_offset 8
	str	r0, [sp, #4]
	str	r1, [sp]
.Ltmp141:
	.loc	1 672 64 prologue_end           @ packages/cJSON-v1.0.2/cJSON.c:672:64
	ldr	r0, [sp]
	.loc	1 672 53 is_stmt 0              @ packages/cJSON-v1.0.2/cJSON.c:672:53
	ldr	r1, [sp, #4]
	.loc	1 672 63                        @ packages/cJSON-v1.0.2/cJSON.c:672:63
	str	r0, [r1]
	.loc	1 672 80                        @ packages/cJSON-v1.0.2/cJSON.c:672:80
	ldr	r0, [sp, #4]
	.loc	1 672 69                        @ packages/cJSON-v1.0.2/cJSON.c:672:69
	ldr	r1, [sp]
	.loc	1 672 79                        @ packages/cJSON-v1.0.2/cJSON.c:672:79
	str	r0, [r1, #4]
	.loc	1 672 85                        @ packages/cJSON-v1.0.2/cJSON.c:672:85
	add	sp, #8
	bx	lr
.Ltmp142:
.Lfunc_end17:
	.size	suffix_object, .Lfunc_end17-suffix_object
	.cfi_endproc
	.cantunwind
	.fnend
                                        @ -- End function
	.section	.text.cJSON_AddItemToObject,"ax",%progbits
	.hidden	cJSON_AddItemToObject           @ -- Begin function cJSON_AddItemToObject
	.globl	cJSON_AddItemToObject
	.p2align	3
	.type	cJSON_AddItemToObject,%function
	.code	16                              @ @cJSON_AddItemToObject
	.thumb_func
cJSON_AddItemToObject:
.Lfunc_begin18:
	.loc	1 678 0 is_stmt 1               @ packages/cJSON-v1.0.2/cJSON.c:678:0
	.fnstart
	.cfi_startproc
@ %bb.0:
	.save	{r7, lr}
	push	{r7, lr}
	.cfi_def_cfa_offset 8
	.cfi_offset lr, -4
	.cfi_offset r7, -8
	.pad	#16
	sub	sp, #16
	.cfi_def_cfa_offset 24
	str	r0, [sp, #12]
	str	r1, [sp, #8]
	str	r2, [sp, #4]
.Ltmp143:
	.loc	1 678 82 prologue_end           @ packages/cJSON-v1.0.2/cJSON.c:678:82
	ldr	r0, [sp, #4]
.Ltmp144:
	.loc	1 678 81 is_stmt 0              @ packages/cJSON-v1.0.2/cJSON.c:678:81
	cbnz	r0, .LBB18_2
	b	.LBB18_1
.LBB18_1:
.Ltmp145:
	.loc	1 678 88                        @ packages/cJSON-v1.0.2/cJSON.c:678:88
	b	.LBB18_5
.Ltmp146:
.LBB18_2:
	.loc	1 678 100                       @ packages/cJSON-v1.0.2/cJSON.c:678:100
	ldr	r0, [sp, #4]
	.loc	1 678 106                       @ packages/cJSON-v1.0.2/cJSON.c:678:106
	ldr	r0, [r0, #32]
.Ltmp147:
	.loc	1 678 100                       @ packages/cJSON-v1.0.2/cJSON.c:678:100
	cbz	r0, .LBB18_4
	b	.LBB18_3
.LBB18_3:
.Ltmp148:
	.loc	1 678 114                       @ packages/cJSON-v1.0.2/cJSON.c:678:114
	movw	r0, :lower16:cJSON_free
	movt	r0, :upper16:cJSON_free
	ldr	r1, [r0]
	.loc	1 678 125                       @ packages/cJSON-v1.0.2/cJSON.c:678:125
	ldr	r0, [sp, #4]
	.loc	1 678 131                       @ packages/cJSON-v1.0.2/cJSON.c:678:131
	ldr	r0, [r0, #32]
	.loc	1 678 114                       @ packages/cJSON-v1.0.2/cJSON.c:678:114
	blx	r1
	b	.LBB18_4
.Ltmp149:
.LBB18_4:
	.loc	1 678 165                       @ packages/cJSON-v1.0.2/cJSON.c:678:165
	ldr	r0, [sp, #8]
	.loc	1 678 152                       @ packages/cJSON-v1.0.2/cJSON.c:678:152
	bl	cJSON_strdup
	.loc	1 678 139                       @ packages/cJSON-v1.0.2/cJSON.c:678:139
	ldr	r1, [sp, #4]
	.loc	1 678 151                       @ packages/cJSON-v1.0.2/cJSON.c:678:151
	str	r0, [r1, #32]
	.loc	1 678 194                       @ packages/cJSON-v1.0.2/cJSON.c:678:194
	ldr	r0, [sp, #12]
	.loc	1 678 201                       @ packages/cJSON-v1.0.2/cJSON.c:678:201
	ldr	r1, [sp, #4]
	.loc	1 678 173                       @ packages/cJSON-v1.0.2/cJSON.c:678:173
	bl	cJSON_AddItemToArray
	.loc	1 678 207                       @ packages/cJSON-v1.0.2/cJSON.c:678:207
	b	.LBB18_5
.LBB18_5:
	add	sp, #16
	pop	{r7, pc}
.Ltmp150:
.Lfunc_end18:
	.size	cJSON_AddItemToObject, .Lfunc_end18-cJSON_AddItemToObject
	.cfi_endproc
	.cantunwind
	.fnend
                                        @ -- End function
	.section	.text.cJSON_strdup,"ax",%progbits
	.p2align	3                               @ -- Begin function cJSON_strdup
	.type	cJSON_strdup,%function
	.code	16                              @ @cJSON_strdup
	.thumb_func
cJSON_strdup:
.Lfunc_begin19:
	.loc	1 56 0 is_stmt 1                @ packages/cJSON-v1.0.2/cJSON.c:56:0
	.fnstart
	.cfi_startproc
@ %bb.0:
	.save	{r7, lr}
	push	{r7, lr}
	.cfi_def_cfa_offset 8
	.cfi_offset lr, -4
	.cfi_offset r7, -8
	.pad	#16
	sub	sp, #16
	.cfi_def_cfa_offset 24
	str	r0, [sp, #8]
.Ltmp151:
	.loc	1 60 20 prologue_end            @ packages/cJSON-v1.0.2/cJSON.c:60:20
	ldr	r0, [sp, #8]
	.loc	1 60 13 is_stmt 0               @ packages/cJSON-v1.0.2/cJSON.c:60:13
	bl	strlen
	.loc	1 60 25                         @ packages/cJSON-v1.0.2/cJSON.c:60:25
	adds	r0, #1
	.loc	1 60 11                         @ packages/cJSON-v1.0.2/cJSON.c:60:11
	str	r0, [sp, #4]
.Ltmp152:
	.loc	1 61 27 is_stmt 1               @ packages/cJSON-v1.0.2/cJSON.c:61:27
	movw	r0, :lower16:cJSON_malloc
	movt	r0, :upper16:cJSON_malloc
	ldr	r1, [r0]
	.loc	1 61 40 is_stmt 0               @ packages/cJSON-v1.0.2/cJSON.c:61:40
	ldr	r0, [sp, #4]
	.loc	1 61 27                         @ packages/cJSON-v1.0.2/cJSON.c:61:27
	blx	r1
	.loc	1 61 18                         @ packages/cJSON-v1.0.2/cJSON.c:61:18
	str	r0, [sp]
.Ltmp153:
	.loc	1 61 11                         @ packages/cJSON-v1.0.2/cJSON.c:61:11
	cbnz	r0, .LBB19_2
	b	.LBB19_1
.LBB19_1:
	.loc	1 0 11                          @ packages/cJSON-v1.0.2/cJSON.c:0:11
	movs	r0, #0
.Ltmp154:
	.loc	1 61 47                         @ packages/cJSON-v1.0.2/cJSON.c:61:47
	str	r0, [sp, #12]
	b	.LBB19_3
.Ltmp155:
.LBB19_2:
	.loc	1 62 14 is_stmt 1               @ packages/cJSON-v1.0.2/cJSON.c:62:14
	ldr	r0, [sp]
	.loc	1 62 19 is_stmt 0               @ packages/cJSON-v1.0.2/cJSON.c:62:19
	ldr	r1, [sp, #8]
	.loc	1 62 23                         @ packages/cJSON-v1.0.2/cJSON.c:62:23
	ldr	r2, [sp, #4]
	.loc	1 62 7                          @ packages/cJSON-v1.0.2/cJSON.c:62:7
	bl	__aeabi_memcpy
	.loc	1 63 14 is_stmt 1               @ packages/cJSON-v1.0.2/cJSON.c:63:14
	ldr	r0, [sp]
	.loc	1 63 7 is_stmt 0                @ packages/cJSON-v1.0.2/cJSON.c:63:7
	str	r0, [sp, #12]
	b	.LBB19_3
.LBB19_3:
	.loc	1 64 1 is_stmt 1                @ packages/cJSON-v1.0.2/cJSON.c:64:1
	ldr	r0, [sp, #12]
	add	sp, #16
	pop	{r7, pc}
.Ltmp156:
.Lfunc_end19:
	.size	cJSON_strdup, .Lfunc_end19-cJSON_strdup
	.cfi_endproc
	.cantunwind
	.fnend
                                        @ -- End function
	.section	.text.cJSON_AddItemToObjectCS,"ax",%progbits
	.hidden	cJSON_AddItemToObjectCS         @ -- Begin function cJSON_AddItemToObjectCS
	.globl	cJSON_AddItemToObjectCS
	.p2align	3
	.type	cJSON_AddItemToObjectCS,%function
	.code	16                              @ @cJSON_AddItemToObjectCS
	.thumb_func
cJSON_AddItemToObjectCS:
.Lfunc_begin20:
	.loc	1 679 0                         @ packages/cJSON-v1.0.2/cJSON.c:679:0
	.fnstart
	.cfi_startproc
@ %bb.0:
	.save	{r7, lr}
	push	{r7, lr}
	.cfi_def_cfa_offset 8
	.cfi_offset lr, -4
	.cfi_offset r7, -8
	.pad	#16
	sub	sp, #16
	.cfi_def_cfa_offset 24
	str	r0, [sp, #12]
	str	r1, [sp, #8]
	str	r2, [sp, #4]
.Ltmp157:
	.loc	1 679 84 prologue_end           @ packages/cJSON-v1.0.2/cJSON.c:679:84
	ldr	r0, [sp, #4]
.Ltmp158:
	.loc	1 679 83 is_stmt 0              @ packages/cJSON-v1.0.2/cJSON.c:679:83
	cbnz	r0, .LBB20_2
	b	.LBB20_1
.LBB20_1:
.Ltmp159:
	.loc	1 679 90                        @ packages/cJSON-v1.0.2/cJSON.c:679:90
	b	.LBB20_6
.Ltmp160:
.LBB20_2:
	.loc	1 679 104                       @ packages/cJSON-v1.0.2/cJSON.c:679:104
	ldr	r0, [sp, #4]
	.loc	1 679 136                       @ packages/cJSON-v1.0.2/cJSON.c:679:136
	ldrb	r0, [r0, #13]
	lsls	r0, r0, #30
	cmp	r0, #0
	bmi	.LBB20_5
	b	.LBB20_3
.LBB20_3:
	.loc	1 679 139                       @ packages/cJSON-v1.0.2/cJSON.c:679:139
	ldr	r0, [sp, #4]
	.loc	1 679 145                       @ packages/cJSON-v1.0.2/cJSON.c:679:145
	ldr	r0, [r0, #32]
.Ltmp161:
	.loc	1 679 102                       @ packages/cJSON-v1.0.2/cJSON.c:679:102
	cbz	r0, .LBB20_5
	b	.LBB20_4
.LBB20_4:
.Ltmp162:
	.loc	1 679 153                       @ packages/cJSON-v1.0.2/cJSON.c:679:153
	movw	r0, :lower16:cJSON_free
	movt	r0, :upper16:cJSON_free
	ldr	r1, [r0]
	.loc	1 679 164                       @ packages/cJSON-v1.0.2/cJSON.c:679:164
	ldr	r0, [sp, #4]
	.loc	1 679 170                       @ packages/cJSON-v1.0.2/cJSON.c:679:170
	ldr	r0, [r0, #32]
	.loc	1 679 153                       @ packages/cJSON-v1.0.2/cJSON.c:679:153
	blx	r1
	b	.LBB20_5
.Ltmp163:
.LBB20_5:
	.loc	1 679 198                       @ packages/cJSON-v1.0.2/cJSON.c:679:198
	ldr	r0, [sp, #8]
	.loc	1 679 178                       @ packages/cJSON-v1.0.2/cJSON.c:679:178
	ldr	r1, [sp, #4]
	.loc	1 679 190                       @ packages/cJSON-v1.0.2/cJSON.c:679:190
	str	r0, [r1, #32]
	.loc	1 679 205                       @ packages/cJSON-v1.0.2/cJSON.c:679:205
	ldr	r1, [sp, #4]
	.loc	1 679 215                       @ packages/cJSON-v1.0.2/cJSON.c:679:215
	ldr	r0, [r1, #12]
	orr	r0, r0, #512
	str	r0, [r1, #12]
	.loc	1 679 258                       @ packages/cJSON-v1.0.2/cJSON.c:679:258
	ldr	r0, [sp, #12]
	.loc	1 679 265                       @ packages/cJSON-v1.0.2/cJSON.c:679:265
	ldr	r1, [sp, #4]
	.loc	1 679 237                       @ packages/cJSON-v1.0.2/cJSON.c:679:237
	bl	cJSON_AddItemToArray
	.loc	1 679 271                       @ packages/cJSON-v1.0.2/cJSON.c:679:271
	b	.LBB20_6
.LBB20_6:
	add	sp, #16
	pop	{r7, pc}
.Ltmp164:
.Lfunc_end20:
	.size	cJSON_AddItemToObjectCS, .Lfunc_end20-cJSON_AddItemToObjectCS
	.cfi_endproc
	.cantunwind
	.fnend
                                        @ -- End function
	.section	.text.cJSON_AddItemReferenceToArray,"ax",%progbits
	.hidden	cJSON_AddItemReferenceToArray   @ -- Begin function cJSON_AddItemReferenceToArray
	.globl	cJSON_AddItemReferenceToArray
	.p2align	3
	.type	cJSON_AddItemReferenceToArray,%function
	.code	16                              @ @cJSON_AddItemReferenceToArray
	.thumb_func
cJSON_AddItemReferenceToArray:
.Lfunc_begin21:
	.loc	1 680 0 is_stmt 1               @ packages/cJSON-v1.0.2/cJSON.c:680:0
	.fnstart
	.cfi_startproc
@ %bb.0:
	.save	{r7, lr}
	push	{r7, lr}
	.cfi_def_cfa_offset 8
	.cfi_offset lr, -4
	.cfi_offset r7, -8
	.pad	#16
	sub	sp, #16
	.cfi_def_cfa_offset 24
	str	r0, [sp, #12]
	str	r1, [sp, #8]
.Ltmp165:
	.loc	1 680 90 prologue_end           @ packages/cJSON-v1.0.2/cJSON.c:680:90
	ldr	r0, [sp, #12]
	.loc	1 680 113 is_stmt 0             @ packages/cJSON-v1.0.2/cJSON.c:680:113
	str	r0, [sp, #4]                    @ 4-byte Spill
	ldr	r0, [sp, #8]
	.loc	1 680 96                        @ packages/cJSON-v1.0.2/cJSON.c:680:96
	bl	create_reference
	mov	r1, r0
	.loc	1 680 69                        @ packages/cJSON-v1.0.2/cJSON.c:680:69
	ldr	r0, [sp, #4]                    @ 4-byte Reload
	bl	cJSON_AddItemToArray
	.loc	1 680 120                       @ packages/cJSON-v1.0.2/cJSON.c:680:120
	add	sp, #16
	pop	{r7, pc}
.Ltmp166:
.Lfunc_end21:
	.size	cJSON_AddItemReferenceToArray, .Lfunc_end21-cJSON_AddItemReferenceToArray
	.cfi_endproc
	.cantunwind
	.fnend
                                        @ -- End function
	.section	.text.create_reference,"ax",%progbits
	.p2align	3                               @ -- Begin function create_reference
	.type	create_reference,%function
	.code	16                              @ @create_reference
	.thumb_func
create_reference:
.Lfunc_begin22:
	.loc	1 674 0 is_stmt 1               @ packages/cJSON-v1.0.2/cJSON.c:674:0
	.fnstart
	.cfi_startproc
@ %bb.0:
	.save	{r4, r5, r7, lr}
	push	{r4, r5, r7, lr}
	.cfi_def_cfa_offset 16
	.cfi_offset lr, -4
	.cfi_offset r7, -8
	.cfi_offset r5, -12
	.cfi_offset r4, -16
	.pad	#24
	sub	sp, #24
	.cfi_def_cfa_offset 40
	str	r0, [sp, #16]
.Ltmp167:
	.loc	1 674 57 prologue_end           @ packages/cJSON-v1.0.2/cJSON.c:674:57
	bl	cJSON_New_Item
	.loc	1 674 53 is_stmt 0              @ packages/cJSON-v1.0.2/cJSON.c:674:53
	str	r0, [sp, #12]
.Ltmp168:
	.loc	1 674 79                        @ packages/cJSON-v1.0.2/cJSON.c:674:79
	ldr	r0, [sp, #12]
.Ltmp169:
	.loc	1 674 78                        @ packages/cJSON-v1.0.2/cJSON.c:674:78
	cbnz	r0, .LBB22_2
	b	.LBB22_1
.LBB22_1:
	.loc	1 0 78                          @ packages/cJSON-v1.0.2/cJSON.c:0:78
	movs	r0, #0
.Ltmp170:
	.loc	1 674 84                        @ packages/cJSON-v1.0.2/cJSON.c:674:84
	str	r0, [sp, #20]
	b	.LBB22_3
.Ltmp171:
.LBB22_2:
	.loc	1 674 100                       @ packages/cJSON-v1.0.2/cJSON.c:674:100
	ldr	r1, [sp, #12]
	.loc	1 674 104                       @ packages/cJSON-v1.0.2/cJSON.c:674:104
	str	r1, [sp, #4]                    @ 4-byte Spill
	ldr.w	r12, [sp, #16]
	.loc	1 674 93                        @ packages/cJSON-v1.0.2/cJSON.c:674:93
	str.w	r12, [sp, #8]                   @ 4-byte Spill
	ldr.w	r0, [r12]
	ldr.w	r2, [r12, #4]
	ldr.w	r3, [r12, #8]
	ldr.w	lr, [r12, #12]
	ldr.w	r4, [r12, #16]
	ldr.w	r5, [r12, #20]
	str	r5, [r1, #20]
	str	r4, [r1, #16]
	str.w	lr, [r1, #12]
	str	r3, [r1, #8]
	str	r2, [r1, #4]
	str	r0, [r1]
	ldr.w	r0, [r12, #24]
	ldr.w	r2, [r12, #28]
	ldr.w	r3, [r12, #32]
	ldr.w	r12, [r12, #36]
	str.w	r12, [r1, #36]
	str	r3, [r1, #32]
	str	r2, [r1, #28]
	str	r0, [r1, #24]
	.loc	1 674 124                       @ packages/cJSON-v1.0.2/cJSON.c:674:124
	ldr	r1, [sp, #12]
	movs	r0, #0
	.loc	1 674 135                       @ packages/cJSON-v1.0.2/cJSON.c:674:135
	str	r0, [r1, #32]
	.loc	1 674 138                       @ packages/cJSON-v1.0.2/cJSON.c:674:138
	ldr	r2, [sp, #12]
	.loc	1 674 147                       @ packages/cJSON-v1.0.2/cJSON.c:674:147
	ldr	r1, [r2, #12]
	orr	r1, r1, #256
	str	r1, [r2, #12]
	.loc	1 674 177                       @ packages/cJSON-v1.0.2/cJSON.c:674:177
	ldr	r1, [sp, #12]
	.loc	1 674 186                       @ packages/cJSON-v1.0.2/cJSON.c:674:186
	str	r0, [r1, #4]
	.loc	1 674 167                       @ packages/cJSON-v1.0.2/cJSON.c:674:167
	ldr	r1, [sp, #12]
	.loc	1 674 176                       @ packages/cJSON-v1.0.2/cJSON.c:674:176
	str	r0, [r1]
	.loc	1 674 196                       @ packages/cJSON-v1.0.2/cJSON.c:674:196
	ldr	r0, [sp, #12]
	.loc	1 674 189                       @ packages/cJSON-v1.0.2/cJSON.c:674:189
	str	r0, [sp, #20]
	b	.LBB22_3
.LBB22_3:
	.loc	1 674 200                       @ packages/cJSON-v1.0.2/cJSON.c:674:200
	ldr	r0, [sp, #20]
	add	sp, #24
	pop	{r4, r5, r7, pc}
.Ltmp172:
.Lfunc_end22:
	.size	create_reference, .Lfunc_end22-create_reference
	.cfi_endproc
	.cantunwind
	.fnend
                                        @ -- End function
	.section	.text.cJSON_AddItemReferenceToObject,"ax",%progbits
	.hidden	cJSON_AddItemReferenceToObject  @ -- Begin function cJSON_AddItemReferenceToObject
	.globl	cJSON_AddItemReferenceToObject
	.p2align	3
	.type	cJSON_AddItemReferenceToObject,%function
	.code	16                              @ @cJSON_AddItemReferenceToObject
	.thumb_func
cJSON_AddItemReferenceToObject:
.Lfunc_begin23:
	.loc	1 681 0 is_stmt 1               @ packages/cJSON-v1.0.2/cJSON.c:681:0
	.fnstart
	.cfi_startproc
@ %bb.0:
	.save	{r7, lr}
	push	{r7, lr}
	.cfi_def_cfa_offset 8
	.cfi_offset lr, -4
	.cfi_offset r7, -8
	.pad	#24
	sub	sp, #24
	.cfi_def_cfa_offset 32
	str	r0, [sp, #20]
	str	r1, [sp, #16]
	str	r2, [sp, #12]
.Ltmp173:
	.loc	1 681 106 prologue_end          @ packages/cJSON-v1.0.2/cJSON.c:681:106
	ldr	r0, [sp, #20]
	.loc	1 681 113 is_stmt 0             @ packages/cJSON-v1.0.2/cJSON.c:681:113
	str	r0, [sp, #8]                    @ 4-byte Spill
	ldr	r0, [sp, #16]
	.loc	1 681 137                       @ packages/cJSON-v1.0.2/cJSON.c:681:137
	str	r0, [sp, #4]                    @ 4-byte Spill
	ldr	r0, [sp, #12]
	.loc	1 681 120                       @ packages/cJSON-v1.0.2/cJSON.c:681:120
	bl	create_reference
	ldr	r1, [sp, #4]                    @ 4-byte Reload
	mov	r2, r0
	.loc	1 681 84                        @ packages/cJSON-v1.0.2/cJSON.c:681:84
	ldr	r0, [sp, #8]                    @ 4-byte Reload
	bl	cJSON_AddItemToObject
	.loc	1 681 144                       @ packages/cJSON-v1.0.2/cJSON.c:681:144
	add	sp, #24
	pop	{r7, pc}
.Ltmp174:
.Lfunc_end23:
	.size	cJSON_AddItemReferenceToObject, .Lfunc_end23-cJSON_AddItemReferenceToObject
	.cfi_endproc
	.cantunwind
	.fnend
                                        @ -- End function
	.section	.text.cJSON_DetachItemFromArray,"ax",%progbits
	.hidden	cJSON_DetachItemFromArray       @ -- Begin function cJSON_DetachItemFromArray
	.globl	cJSON_DetachItemFromArray
	.p2align	3
	.type	cJSON_DetachItemFromArray,%function
	.code	16                              @ @cJSON_DetachItemFromArray
	.thumb_func
cJSON_DetachItemFromArray:
.Lfunc_begin24:
	.loc	1 683 0 is_stmt 1               @ packages/cJSON-v1.0.2/cJSON.c:683:0
	.fnstart
	.cfi_startproc
@ %bb.0:
	.pad	#20
	sub	sp, #20
	.cfi_def_cfa_offset 20
	str	r0, [sp, #12]
	str	r1, [sp, #8]
.Ltmp175:
	.loc	1 683 70 prologue_end           @ packages/cJSON-v1.0.2/cJSON.c:683:70
	ldr	r0, [sp, #12]
	.loc	1 683 77 is_stmt 0              @ packages/cJSON-v1.0.2/cJSON.c:683:77
	ldr	r0, [r0, #8]
	.loc	1 683 68                        @ packages/cJSON-v1.0.2/cJSON.c:683:68
	str	r0, [sp, #4]
	.loc	1 683 83                        @ packages/cJSON-v1.0.2/cJSON.c:683:83
	b	.LBB24_1
.LBB24_1:                               @ =>This Inner Loop Header: Depth=1
	.loc	1 683 90                        @ packages/cJSON-v1.0.2/cJSON.c:683:90
	ldr	r1, [sp, #4]
	movs	r0, #0
	.loc	1 683 92                        @ packages/cJSON-v1.0.2/cJSON.c:683:92
	str	r0, [sp]                        @ 4-byte Spill
	cbz	r1, .LBB24_3
	b	.LBB24_2
.LBB24_2:                               @   in Loop: Header=BB24_1 Depth=1
	.loc	1 683 95                        @ packages/cJSON-v1.0.2/cJSON.c:683:95
	ldr	r1, [sp, #8]
	movs	r0, #0
	.loc	1 683 100                       @ packages/cJSON-v1.0.2/cJSON.c:683:100
	cmp	r1, #0
	it	gt
	movgt	r0, #1
	str	r0, [sp]                        @ 4-byte Spill
	b	.LBB24_3
.LBB24_3:                               @   in Loop: Header=BB24_1 Depth=1
	.loc	1 0 0                           @ packages/cJSON-v1.0.2/cJSON.c:0:0
	ldr	r0, [sp]                        @ 4-byte Reload
	.loc	1 683 83                        @ packages/cJSON-v1.0.2/cJSON.c:683:83
	lsls	r0, r0, #31
	cbz	r0, .LBB24_5
	b	.LBB24_4
.LBB24_4:                               @   in Loop: Header=BB24_1 Depth=1
	.loc	1 683 106                       @ packages/cJSON-v1.0.2/cJSON.c:683:106
	ldr	r0, [sp, #4]
	.loc	1 683 109                       @ packages/cJSON-v1.0.2/cJSON.c:683:109
	ldr	r0, [r0]
	.loc	1 683 105                       @ packages/cJSON-v1.0.2/cJSON.c:683:105
	str	r0, [sp, #4]
	.loc	1 683 119                       @ packages/cJSON-v1.0.2/cJSON.c:683:119
	ldr	r0, [sp, #8]
	subs	r0, #1
	str	r0, [sp, #8]
	.loc	1 683 83                        @ packages/cJSON-v1.0.2/cJSON.c:683:83
	b	.LBB24_1
.LBB24_5:
.Ltmp176:
	.loc	1 683 127                       @ packages/cJSON-v1.0.2/cJSON.c:683:127
	ldr	r0, [sp, #4]
.Ltmp177:
	.loc	1 683 126                       @ packages/cJSON-v1.0.2/cJSON.c:683:126
	cbnz	r0, .LBB24_7
	b	.LBB24_6
.LBB24_6:
	.loc	1 0 126                         @ packages/cJSON-v1.0.2/cJSON.c:0:126
	movs	r0, #0
.Ltmp178:
	.loc	1 683 130                       @ packages/cJSON-v1.0.2/cJSON.c:683:130
	str	r0, [sp, #16]
	b	.LBB24_14
.Ltmp179:
.LBB24_7:
	.loc	1 684 6 is_stmt 1               @ packages/cJSON-v1.0.2/cJSON.c:684:6
	ldr	r0, [sp, #4]
	.loc	1 684 9 is_stmt 0               @ packages/cJSON-v1.0.2/cJSON.c:684:9
	ldr	r0, [r0, #4]
.Ltmp180:
	.loc	1 684 6                         @ packages/cJSON-v1.0.2/cJSON.c:684:6
	cbz	r0, .LBB24_9
	b	.LBB24_8
.LBB24_8:
.Ltmp181:
	.loc	1 684 29                        @ packages/cJSON-v1.0.2/cJSON.c:684:29
	ldr	r1, [sp, #4]
	.loc	1 684 32                        @ packages/cJSON-v1.0.2/cJSON.c:684:32
	ldr	r0, [r1]
	.loc	1 684 18                        @ packages/cJSON-v1.0.2/cJSON.c:684:18
	ldr	r1, [r1, #4]
	.loc	1 684 28                        @ packages/cJSON-v1.0.2/cJSON.c:684:28
	str	r0, [r1]
	.loc	1 684 15                        @ packages/cJSON-v1.0.2/cJSON.c:684:15
	b	.LBB24_9
.Ltmp182:
.LBB24_9:
	.loc	1 684 41                        @ packages/cJSON-v1.0.2/cJSON.c:684:41
	ldr	r0, [sp, #4]
	.loc	1 684 44                        @ packages/cJSON-v1.0.2/cJSON.c:684:44
	ldr	r0, [r0]
.Ltmp183:
	.loc	1 684 41                        @ packages/cJSON-v1.0.2/cJSON.c:684:41
	cbz	r0, .LBB24_11
	b	.LBB24_10
.LBB24_10:
.Ltmp184:
	.loc	1 684 64                        @ packages/cJSON-v1.0.2/cJSON.c:684:64
	ldr	r0, [sp, #4]
	.loc	1 684 53                        @ packages/cJSON-v1.0.2/cJSON.c:684:53
	ldr	r1, [r0]
	.loc	1 684 67                        @ packages/cJSON-v1.0.2/cJSON.c:684:67
	ldr	r0, [r0, #4]
	.loc	1 684 63                        @ packages/cJSON-v1.0.2/cJSON.c:684:63
	str	r0, [r1, #4]
	.loc	1 684 50                        @ packages/cJSON-v1.0.2/cJSON.c:684:50
	b	.LBB24_11
.Ltmp185:
.LBB24_11:
	.loc	1 684 76                        @ packages/cJSON-v1.0.2/cJSON.c:684:76
	ldr	r0, [sp, #4]
	.loc	1 684 79                        @ packages/cJSON-v1.0.2/cJSON.c:684:79
	ldr	r1, [sp, #12]
	.loc	1 684 86                        @ packages/cJSON-v1.0.2/cJSON.c:684:86
	ldr	r1, [r1, #8]
.Ltmp186:
	.loc	1 684 76                        @ packages/cJSON-v1.0.2/cJSON.c:684:76
	cmp	r0, r1
	bne	.LBB24_13
	b	.LBB24_12
.LBB24_12:
.Ltmp187:
	.loc	1 684 106                       @ packages/cJSON-v1.0.2/cJSON.c:684:106
	ldr	r0, [sp, #4]
	.loc	1 684 109                       @ packages/cJSON-v1.0.2/cJSON.c:684:109
	ldr	r0, [r0]
	.loc	1 684 93                        @ packages/cJSON-v1.0.2/cJSON.c:684:93
	ldr	r1, [sp, #12]
	.loc	1 684 105                       @ packages/cJSON-v1.0.2/cJSON.c:684:105
	str	r0, [r1, #8]
	.loc	1 684 93                        @ packages/cJSON-v1.0.2/cJSON.c:684:93
	b	.LBB24_13
.Ltmp188:
.LBB24_13:
	.loc	1 684 122                       @ packages/cJSON-v1.0.2/cJSON.c:684:122
	ldr	r1, [sp, #4]
	movs	r0, #0
	.loc	1 684 129                       @ packages/cJSON-v1.0.2/cJSON.c:684:129
	str	r0, [r1]
	.loc	1 684 114                       @ packages/cJSON-v1.0.2/cJSON.c:684:114
	ldr	r1, [sp, #4]
	.loc	1 684 121                       @ packages/cJSON-v1.0.2/cJSON.c:684:121
	str	r0, [r1, #4]
	.loc	1 684 139                       @ packages/cJSON-v1.0.2/cJSON.c:684:139
	ldr	r0, [sp, #4]
	.loc	1 684 132                       @ packages/cJSON-v1.0.2/cJSON.c:684:132
	str	r0, [sp, #16]
	b	.LBB24_14
.LBB24_14:
	.loc	1 684 141                       @ packages/cJSON-v1.0.2/cJSON.c:684:141
	ldr	r0, [sp, #16]
	add	sp, #20
	bx	lr
.Ltmp189:
.Lfunc_end24:
	.size	cJSON_DetachItemFromArray, .Lfunc_end24-cJSON_DetachItemFromArray
	.cfi_endproc
	.cantunwind
	.fnend
                                        @ -- End function
	.section	.text.cJSON_DeleteItemFromArray,"ax",%progbits
	.hidden	cJSON_DeleteItemFromArray       @ -- Begin function cJSON_DeleteItemFromArray
	.globl	cJSON_DeleteItemFromArray
	.p2align	3
	.type	cJSON_DeleteItemFromArray,%function
	.code	16                              @ @cJSON_DeleteItemFromArray
	.thumb_func
cJSON_DeleteItemFromArray:
.Lfunc_begin25:
	.loc	1 685 0 is_stmt 1               @ packages/cJSON-v1.0.2/cJSON.c:685:0
	.fnstart
	.cfi_startproc
@ %bb.0:
	.save	{r7, lr}
	push	{r7, lr}
	.cfi_def_cfa_offset 8
	.cfi_offset lr, -4
	.cfi_offset r7, -8
	.pad	#8
	sub	sp, #8
	.cfi_def_cfa_offset 16
	str	r0, [sp, #4]
	str	r1, [sp]
.Ltmp190:
	.loc	1 685 100 prologue_end          @ packages/cJSON-v1.0.2/cJSON.c:685:100
	ldr	r0, [sp, #4]
	.loc	1 685 106 is_stmt 0             @ packages/cJSON-v1.0.2/cJSON.c:685:106
	ldr	r1, [sp]
	.loc	1 685 74                        @ packages/cJSON-v1.0.2/cJSON.c:685:74
	bl	cJSON_DetachItemFromArray
	.loc	1 685 61                        @ packages/cJSON-v1.0.2/cJSON.c:685:61
	bl	cJSON_Delete
	.loc	1 685 114                       @ packages/cJSON-v1.0.2/cJSON.c:685:114
	add	sp, #8
	pop	{r7, pc}
.Ltmp191:
.Lfunc_end25:
	.size	cJSON_DeleteItemFromArray, .Lfunc_end25-cJSON_DeleteItemFromArray
	.cfi_endproc
	.cantunwind
	.fnend
                                        @ -- End function
	.section	.text.cJSON_DetachItemFromObject,"ax",%progbits
	.hidden	cJSON_DetachItemFromObject      @ -- Begin function cJSON_DetachItemFromObject
	.globl	cJSON_DetachItemFromObject
	.p2align	3
	.type	cJSON_DetachItemFromObject,%function
	.code	16                              @ @cJSON_DetachItemFromObject
	.thumb_func
cJSON_DetachItemFromObject:
.Lfunc_begin26:
	.loc	1 686 0 is_stmt 1               @ packages/cJSON-v1.0.2/cJSON.c:686:0
	.fnstart
	.cfi_startproc
@ %bb.0:
	.save	{r7, lr}
	push	{r7, lr}
	.cfi_def_cfa_offset 8
	.cfi_offset lr, -4
	.cfi_offset r7, -8
	.pad	#24
	sub	sp, #24
	.cfi_def_cfa_offset 32
	str	r0, [sp, #16]
	str	r1, [sp, #12]
	movs	r0, #0
.Ltmp192:
	.loc	1 686 74 prologue_end           @ packages/cJSON-v1.0.2/cJSON.c:686:74
	str	r0, [sp, #8]
	.loc	1 686 87 is_stmt 0              @ packages/cJSON-v1.0.2/cJSON.c:686:87
	ldr	r0, [sp, #16]
	.loc	1 686 95                        @ packages/cJSON-v1.0.2/cJSON.c:686:95
	ldr	r0, [r0, #8]
	.loc	1 686 85                        @ packages/cJSON-v1.0.2/cJSON.c:686:85
	str	r0, [sp, #4]
	.loc	1 686 101                       @ packages/cJSON-v1.0.2/cJSON.c:686:101
	b	.LBB26_1
.LBB26_1:                               @ =>This Inner Loop Header: Depth=1
	.loc	1 686 108                       @ packages/cJSON-v1.0.2/cJSON.c:686:108
	ldr	r1, [sp, #4]
	movs	r0, #0
	.loc	1 686 110                       @ packages/cJSON-v1.0.2/cJSON.c:686:110
	str	r0, [sp]                        @ 4-byte Spill
	cbz	r1, .LBB26_3
	b	.LBB26_2
.LBB26_2:                               @   in Loop: Header=BB26_1 Depth=1
	.loc	1 686 130                       @ packages/cJSON-v1.0.2/cJSON.c:686:130
	ldr	r0, [sp, #4]
	.loc	1 686 133                       @ packages/cJSON-v1.0.2/cJSON.c:686:133
	ldr	r0, [r0, #32]
	.loc	1 686 140                       @ packages/cJSON-v1.0.2/cJSON.c:686:140
	ldr	r1, [sp, #12]
	.loc	1 686 113                       @ packages/cJSON-v1.0.2/cJSON.c:686:113
	bl	cJSON_strcasecmp
	.loc	1 686 110                       @ packages/cJSON-v1.0.2/cJSON.c:686:110
	cmp	r0, #0
	it	ne
	movne	r0, #1
	str	r0, [sp]                        @ 4-byte Spill
	b	.LBB26_3
.LBB26_3:                               @   in Loop: Header=BB26_1 Depth=1
	.loc	1 0 0                           @ packages/cJSON-v1.0.2/cJSON.c:0:0
	ldr	r0, [sp]                        @ 4-byte Reload
	.loc	1 686 101                       @ packages/cJSON-v1.0.2/cJSON.c:686:101
	lsls	r0, r0, #31
	cbz	r0, .LBB26_5
	b	.LBB26_4
.LBB26_4:                               @   in Loop: Header=BB26_1 Depth=1
	.loc	1 686 150                       @ packages/cJSON-v1.0.2/cJSON.c:686:150
	ldr	r0, [sp, #8]
	adds	r0, #1
	str	r0, [sp, #8]
	.loc	1 686 155                       @ packages/cJSON-v1.0.2/cJSON.c:686:155
	ldr	r0, [sp, #4]
	.loc	1 686 158                       @ packages/cJSON-v1.0.2/cJSON.c:686:158
	ldr	r0, [r0]
	.loc	1 686 154                       @ packages/cJSON-v1.0.2/cJSON.c:686:154
	str	r0, [sp, #4]
	.loc	1 686 101                       @ packages/cJSON-v1.0.2/cJSON.c:686:101
	b	.LBB26_1
.LBB26_5:
.Ltmp193:
	.loc	1 686 167                       @ packages/cJSON-v1.0.2/cJSON.c:686:167
	ldr	r0, [sp, #4]
.Ltmp194:
	.loc	1 686 167                       @ packages/cJSON-v1.0.2/cJSON.c:686:167
	cbz	r0, .LBB26_7
	b	.LBB26_6
.LBB26_6:
.Ltmp195:
	.loc	1 686 203                       @ packages/cJSON-v1.0.2/cJSON.c:686:203
	ldr	r0, [sp, #16]
	.loc	1 686 210                       @ packages/cJSON-v1.0.2/cJSON.c:686:210
	ldr	r1, [sp, #8]
	.loc	1 686 177                       @ packages/cJSON-v1.0.2/cJSON.c:686:177
	bl	cJSON_DetachItemFromArray
	.loc	1 686 170                       @ packages/cJSON-v1.0.2/cJSON.c:686:170
	str	r0, [sp, #20]
	b	.LBB26_8
.Ltmp196:
.LBB26_7:
	.loc	1 0 170                         @ packages/cJSON-v1.0.2/cJSON.c:0:170
	movs	r0, #0
	.loc	1 686 213                       @ packages/cJSON-v1.0.2/cJSON.c:686:213
	str	r0, [sp, #20]
	b	.LBB26_8
.LBB26_8:
	.loc	1 686 222                       @ packages/cJSON-v1.0.2/cJSON.c:686:222
	ldr	r0, [sp, #20]
	add	sp, #24
	pop	{r7, pc}
.Ltmp197:
.Lfunc_end26:
	.size	cJSON_DetachItemFromObject, .Lfunc_end26-cJSON_DetachItemFromObject
	.cfi_endproc
	.cantunwind
	.fnend
                                        @ -- End function
	.section	.text.cJSON_DeleteItemFromObject,"ax",%progbits
	.hidden	cJSON_DeleteItemFromObject      @ -- Begin function cJSON_DeleteItemFromObject
	.globl	cJSON_DeleteItemFromObject
	.p2align	3
	.type	cJSON_DeleteItemFromObject,%function
	.code	16                              @ @cJSON_DeleteItemFromObject
	.thumb_func
cJSON_DeleteItemFromObject:
.Lfunc_begin27:
	.loc	1 687 0 is_stmt 1               @ packages/cJSON-v1.0.2/cJSON.c:687:0
	.fnstart
	.cfi_startproc
@ %bb.0:
	.save	{r7, lr}
	push	{r7, lr}
	.cfi_def_cfa_offset 8
	.cfi_offset lr, -4
	.cfi_offset r7, -8
	.pad	#8
	sub	sp, #8
	.cfi_def_cfa_offset 16
	str	r0, [sp, #4]
	str	r1, [sp]
.Ltmp198:
	.loc	1 687 110 prologue_end          @ packages/cJSON-v1.0.2/cJSON.c:687:110
	ldr	r0, [sp, #4]
	.loc	1 687 117 is_stmt 0             @ packages/cJSON-v1.0.2/cJSON.c:687:117
	ldr	r1, [sp]
	.loc	1 687 83                        @ packages/cJSON-v1.0.2/cJSON.c:687:83
	bl	cJSON_DetachItemFromObject
	.loc	1 687 70                        @ packages/cJSON-v1.0.2/cJSON.c:687:70
	bl	cJSON_Delete
	.loc	1 687 126                       @ packages/cJSON-v1.0.2/cJSON.c:687:126
	add	sp, #8
	pop	{r7, pc}
.Ltmp199:
.Lfunc_end27:
	.size	cJSON_DeleteItemFromObject, .Lfunc_end27-cJSON_DeleteItemFromObject
	.cfi_endproc
	.cantunwind
	.fnend
                                        @ -- End function
	.section	.text.cJSON_InsertItemInArray,"ax",%progbits
	.hidden	cJSON_InsertItemInArray         @ -- Begin function cJSON_InsertItemInArray
	.globl	cJSON_InsertItemInArray
	.p2align	3
	.type	cJSON_InsertItemInArray,%function
	.code	16                              @ @cJSON_InsertItemInArray
	.thumb_func
cJSON_InsertItemInArray:
.Lfunc_begin28:
	.loc	1 690 0 is_stmt 1               @ packages/cJSON-v1.0.2/cJSON.c:690:0
	.fnstart
	.cfi_startproc
@ %bb.0:
	.save	{r7, lr}
	push	{r7, lr}
	.cfi_def_cfa_offset 8
	.cfi_offset lr, -4
	.cfi_offset r7, -8
	.pad	#24
	sub	sp, #24
	.cfi_def_cfa_offset 32
	str	r0, [sp, #20]
	str	r1, [sp, #16]
	str	r2, [sp, #12]
.Ltmp200:
	.loc	1 690 82 prologue_end           @ packages/cJSON-v1.0.2/cJSON.c:690:82
	ldr	r0, [sp, #20]
	.loc	1 690 89 is_stmt 0              @ packages/cJSON-v1.0.2/cJSON.c:690:89
	ldr	r0, [r0, #8]
	.loc	1 690 80                        @ packages/cJSON-v1.0.2/cJSON.c:690:80
	str	r0, [sp, #8]
	.loc	1 690 95                        @ packages/cJSON-v1.0.2/cJSON.c:690:95
	b	.LBB28_1
.LBB28_1:                               @ =>This Inner Loop Header: Depth=1
	.loc	1 690 102                       @ packages/cJSON-v1.0.2/cJSON.c:690:102
	ldr	r1, [sp, #8]
	movs	r0, #0
	.loc	1 690 104                       @ packages/cJSON-v1.0.2/cJSON.c:690:104
	str	r0, [sp, #4]                    @ 4-byte Spill
	cbz	r1, .LBB28_3
	b	.LBB28_2
.LBB28_2:                               @   in Loop: Header=BB28_1 Depth=1
	.loc	1 690 107                       @ packages/cJSON-v1.0.2/cJSON.c:690:107
	ldr	r1, [sp, #16]
	movs	r0, #0
	.loc	1 690 112                       @ packages/cJSON-v1.0.2/cJSON.c:690:112
	cmp	r1, #0
	it	gt
	movgt	r0, #1
	str	r0, [sp, #4]                    @ 4-byte Spill
	b	.LBB28_3
.LBB28_3:                               @   in Loop: Header=BB28_1 Depth=1
	.loc	1 0 0                           @ packages/cJSON-v1.0.2/cJSON.c:0:0
	ldr	r0, [sp, #4]                    @ 4-byte Reload
	.loc	1 690 95                        @ packages/cJSON-v1.0.2/cJSON.c:690:95
	lsls	r0, r0, #31
	cbz	r0, .LBB28_5
	b	.LBB28_4
.LBB28_4:                               @   in Loop: Header=BB28_1 Depth=1
	.loc	1 690 118                       @ packages/cJSON-v1.0.2/cJSON.c:690:118
	ldr	r0, [sp, #8]
	.loc	1 690 121                       @ packages/cJSON-v1.0.2/cJSON.c:690:121
	ldr	r0, [r0]
	.loc	1 690 117                       @ packages/cJSON-v1.0.2/cJSON.c:690:117
	str	r0, [sp, #8]
	.loc	1 690 131                       @ packages/cJSON-v1.0.2/cJSON.c:690:131
	ldr	r0, [sp, #16]
	subs	r0, #1
	str	r0, [sp, #16]
	.loc	1 690 95                        @ packages/cJSON-v1.0.2/cJSON.c:690:95
	b	.LBB28_1
.LBB28_5:
.Ltmp201:
	.loc	1 690 139                       @ packages/cJSON-v1.0.2/cJSON.c:690:139
	ldr	r0, [sp, #8]
.Ltmp202:
	.loc	1 690 138                       @ packages/cJSON-v1.0.2/cJSON.c:690:138
	cbnz	r0, .LBB28_7
	b	.LBB28_6
.LBB28_6:
.Ltmp203:
	.loc	1 690 164                       @ packages/cJSON-v1.0.2/cJSON.c:690:164
	ldr	r0, [sp, #20]
	.loc	1 690 170                       @ packages/cJSON-v1.0.2/cJSON.c:690:170
	ldr	r1, [sp, #12]
	.loc	1 690 143                       @ packages/cJSON-v1.0.2/cJSON.c:690:143
	bl	cJSON_AddItemToArray
	.loc	1 690 179                       @ packages/cJSON-v1.0.2/cJSON.c:690:179
	b	.LBB28_10
.Ltmp204:
.LBB28_7:
	.loc	1 691 16 is_stmt 1              @ packages/cJSON-v1.0.2/cJSON.c:691:16
	ldr	r0, [sp, #8]
	.loc	1 691 2 is_stmt 0               @ packages/cJSON-v1.0.2/cJSON.c:691:2
	ldr	r1, [sp, #12]
	.loc	1 691 15                        @ packages/cJSON-v1.0.2/cJSON.c:691:15
	str	r0, [r1]
	.loc	1 691 32                        @ packages/cJSON-v1.0.2/cJSON.c:691:32
	ldr	r0, [sp, #8]
	.loc	1 691 35                        @ packages/cJSON-v1.0.2/cJSON.c:691:35
	ldr	r0, [r0, #4]
	.loc	1 691 18                        @ packages/cJSON-v1.0.2/cJSON.c:691:18
	ldr	r1, [sp, #12]
	.loc	1 691 31                        @ packages/cJSON-v1.0.2/cJSON.c:691:31
	str	r0, [r1, #4]
	.loc	1 691 48                        @ packages/cJSON-v1.0.2/cJSON.c:691:48
	ldr	r0, [sp, #12]
	.loc	1 691 40                        @ packages/cJSON-v1.0.2/cJSON.c:691:40
	ldr	r1, [sp, #8]
	.loc	1 691 47                        @ packages/cJSON-v1.0.2/cJSON.c:691:47
	str	r0, [r1, #4]
.Ltmp205:
	.loc	1 691 60                        @ packages/cJSON-v1.0.2/cJSON.c:691:60
	ldr	r0, [sp, #8]
	.loc	1 691 63                        @ packages/cJSON-v1.0.2/cJSON.c:691:63
	ldr	r1, [sp, #20]
	.loc	1 691 70                        @ packages/cJSON-v1.0.2/cJSON.c:691:70
	ldr	r1, [r1, #8]
.Ltmp206:
	.loc	1 691 60                        @ packages/cJSON-v1.0.2/cJSON.c:691:60
	cmp	r0, r1
	bne	.LBB28_9
	b	.LBB28_8
.LBB28_8:
.Ltmp207:
	.loc	1 691 90                        @ packages/cJSON-v1.0.2/cJSON.c:691:90
	ldr	r0, [sp, #12]
	.loc	1 691 77                        @ packages/cJSON-v1.0.2/cJSON.c:691:77
	ldr	r1, [sp, #20]
	.loc	1 691 89                        @ packages/cJSON-v1.0.2/cJSON.c:691:89
	str	r0, [r1, #8]
	.loc	1 691 77                        @ packages/cJSON-v1.0.2/cJSON.c:691:77
	b	.LBB28_10
.LBB28_9:
	.loc	1 691 124                       @ packages/cJSON-v1.0.2/cJSON.c:691:124
	ldr	r0, [sp, #12]
	.loc	1 691 113                       @ packages/cJSON-v1.0.2/cJSON.c:691:113
	ldr	r1, [r0, #4]
	.loc	1 691 123                       @ packages/cJSON-v1.0.2/cJSON.c:691:123
	str	r0, [r1]
	b	.LBB28_10
.Ltmp208:
.LBB28_10:
	.loc	1 691 132                       @ packages/cJSON-v1.0.2/cJSON.c:691:132
	add	sp, #24
	pop	{r7, pc}
.Ltmp209:
.Lfunc_end28:
	.size	cJSON_InsertItemInArray, .Lfunc_end28-cJSON_InsertItemInArray
	.cfi_endproc
	.cantunwind
	.fnend
                                        @ -- End function
	.section	.text.cJSON_ReplaceItemInArray,"ax",%progbits
	.hidden	cJSON_ReplaceItemInArray        @ -- Begin function cJSON_ReplaceItemInArray
	.globl	cJSON_ReplaceItemInArray
	.p2align	3
	.type	cJSON_ReplaceItemInArray,%function
	.code	16                              @ @cJSON_ReplaceItemInArray
	.thumb_func
cJSON_ReplaceItemInArray:
.Lfunc_begin29:
	.loc	1 692 0 is_stmt 1               @ packages/cJSON-v1.0.2/cJSON.c:692:0
	.fnstart
	.cfi_startproc
@ %bb.0:
	.save	{r7, lr}
	push	{r7, lr}
	.cfi_def_cfa_offset 8
	.cfi_offset lr, -4
	.cfi_offset r7, -8
	.pad	#24
	sub	sp, #24
	.cfi_def_cfa_offset 32
	str	r0, [sp, #20]
	str	r1, [sp, #16]
	str	r2, [sp, #12]
.Ltmp210:
	.loc	1 692 83 prologue_end           @ packages/cJSON-v1.0.2/cJSON.c:692:83
	ldr	r0, [sp, #20]
	.loc	1 692 90 is_stmt 0              @ packages/cJSON-v1.0.2/cJSON.c:692:90
	ldr	r0, [r0, #8]
	.loc	1 692 81                        @ packages/cJSON-v1.0.2/cJSON.c:692:81
	str	r0, [sp, #8]
	.loc	1 692 96                        @ packages/cJSON-v1.0.2/cJSON.c:692:96
	b	.LBB29_1
.LBB29_1:                               @ =>This Inner Loop Header: Depth=1
	.loc	1 692 103                       @ packages/cJSON-v1.0.2/cJSON.c:692:103
	ldr	r1, [sp, #8]
	movs	r0, #0
	.loc	1 692 105                       @ packages/cJSON-v1.0.2/cJSON.c:692:105
	str	r0, [sp, #4]                    @ 4-byte Spill
	cbz	r1, .LBB29_3
	b	.LBB29_2
.LBB29_2:                               @   in Loop: Header=BB29_1 Depth=1
	.loc	1 692 108                       @ packages/cJSON-v1.0.2/cJSON.c:692:108
	ldr	r1, [sp, #16]
	movs	r0, #0
	.loc	1 692 113                       @ packages/cJSON-v1.0.2/cJSON.c:692:113
	cmp	r1, #0
	it	gt
	movgt	r0, #1
	str	r0, [sp, #4]                    @ 4-byte Spill
	b	.LBB29_3
.LBB29_3:                               @   in Loop: Header=BB29_1 Depth=1
	.loc	1 0 0                           @ packages/cJSON-v1.0.2/cJSON.c:0:0
	ldr	r0, [sp, #4]                    @ 4-byte Reload
	.loc	1 692 96                        @ packages/cJSON-v1.0.2/cJSON.c:692:96
	lsls	r0, r0, #31
	cbz	r0, .LBB29_5
	b	.LBB29_4
.LBB29_4:                               @   in Loop: Header=BB29_1 Depth=1
	.loc	1 692 119                       @ packages/cJSON-v1.0.2/cJSON.c:692:119
	ldr	r0, [sp, #8]
	.loc	1 692 122                       @ packages/cJSON-v1.0.2/cJSON.c:692:122
	ldr	r0, [r0]
	.loc	1 692 118                       @ packages/cJSON-v1.0.2/cJSON.c:692:118
	str	r0, [sp, #8]
	.loc	1 692 132                       @ packages/cJSON-v1.0.2/cJSON.c:692:132
	ldr	r0, [sp, #16]
	subs	r0, #1
	str	r0, [sp, #16]
	.loc	1 692 96                        @ packages/cJSON-v1.0.2/cJSON.c:692:96
	b	.LBB29_1
.LBB29_5:
.Ltmp211:
	.loc	1 692 140                       @ packages/cJSON-v1.0.2/cJSON.c:692:140
	ldr	r0, [sp, #8]
.Ltmp212:
	.loc	1 692 139                       @ packages/cJSON-v1.0.2/cJSON.c:692:139
	cbnz	r0, .LBB29_7
	b	.LBB29_6
.LBB29_6:
.Ltmp213:
	.loc	1 692 143                       @ packages/cJSON-v1.0.2/cJSON.c:692:143
	b	.LBB29_13
.Ltmp214:
.LBB29_7:
	.loc	1 693 16 is_stmt 1              @ packages/cJSON-v1.0.2/cJSON.c:693:16
	ldr	r0, [sp, #8]
	.loc	1 693 19 is_stmt 0              @ packages/cJSON-v1.0.2/cJSON.c:693:19
	ldr	r0, [r0]
	.loc	1 693 2                         @ packages/cJSON-v1.0.2/cJSON.c:693:2
	ldr	r1, [sp, #12]
	.loc	1 693 15                        @ packages/cJSON-v1.0.2/cJSON.c:693:15
	str	r0, [r1]
	.loc	1 693 38                        @ packages/cJSON-v1.0.2/cJSON.c:693:38
	ldr	r0, [sp, #8]
	.loc	1 693 41                        @ packages/cJSON-v1.0.2/cJSON.c:693:41
	ldr	r0, [r0, #4]
	.loc	1 693 24                        @ packages/cJSON-v1.0.2/cJSON.c:693:24
	ldr	r1, [sp, #12]
	.loc	1 693 37                        @ packages/cJSON-v1.0.2/cJSON.c:693:37
	str	r0, [r1, #4]
.Ltmp215:
	.loc	1 693 50                        @ packages/cJSON-v1.0.2/cJSON.c:693:50
	ldr	r0, [sp, #12]
	.loc	1 693 59                        @ packages/cJSON-v1.0.2/cJSON.c:693:59
	ldr	r0, [r0]
.Ltmp216:
	.loc	1 693 50                        @ packages/cJSON-v1.0.2/cJSON.c:693:50
	cbz	r0, .LBB29_9
	b	.LBB29_8
.LBB29_8:
.Ltmp217:
	.loc	1 693 85                        @ packages/cJSON-v1.0.2/cJSON.c:693:85
	ldr	r0, [sp, #12]
	.loc	1 693 74                        @ packages/cJSON-v1.0.2/cJSON.c:693:74
	ldr	r1, [r0]
	.loc	1 693 84                        @ packages/cJSON-v1.0.2/cJSON.c:693:84
	str	r0, [r1, #4]
	.loc	1 693 65                        @ packages/cJSON-v1.0.2/cJSON.c:693:65
	b	.LBB29_9
.Ltmp218:
.LBB29_9:
	.loc	1 694 6 is_stmt 1               @ packages/cJSON-v1.0.2/cJSON.c:694:6
	ldr	r0, [sp, #8]
	.loc	1 694 9 is_stmt 0               @ packages/cJSON-v1.0.2/cJSON.c:694:9
	ldr	r1, [sp, #20]
	.loc	1 694 16                        @ packages/cJSON-v1.0.2/cJSON.c:694:16
	ldr	r1, [r1, #8]
.Ltmp219:
	.loc	1 694 6                         @ packages/cJSON-v1.0.2/cJSON.c:694:6
	cmp	r0, r1
	bne	.LBB29_11
	b	.LBB29_10
.LBB29_10:
.Ltmp220:
	.loc	1 694 36                        @ packages/cJSON-v1.0.2/cJSON.c:694:36
	ldr	r0, [sp, #12]
	.loc	1 694 23                        @ packages/cJSON-v1.0.2/cJSON.c:694:23
	ldr	r1, [sp, #20]
	.loc	1 694 35                        @ packages/cJSON-v1.0.2/cJSON.c:694:35
	str	r0, [r1, #8]
	.loc	1 694 23                        @ packages/cJSON-v1.0.2/cJSON.c:694:23
	b	.LBB29_12
.LBB29_11:
	.loc	1 694 70                        @ packages/cJSON-v1.0.2/cJSON.c:694:70
	ldr	r0, [sp, #12]
	.loc	1 694 59                        @ packages/cJSON-v1.0.2/cJSON.c:694:59
	ldr	r1, [r0, #4]
	.loc	1 694 69                        @ packages/cJSON-v1.0.2/cJSON.c:694:69
	str	r0, [r1]
	b	.LBB29_12
.Ltmp221:
.LBB29_12:
	.loc	1 694 86                        @ packages/cJSON-v1.0.2/cJSON.c:694:86
	ldr	r1, [sp, #8]
	movs	r0, #0
	.loc	1 694 93                        @ packages/cJSON-v1.0.2/cJSON.c:694:93
	str	r0, [r1, #4]
	.loc	1 694 78                        @ packages/cJSON-v1.0.2/cJSON.c:694:78
	ldr	r1, [sp, #8]
	.loc	1 694 85                        @ packages/cJSON-v1.0.2/cJSON.c:694:85
	str	r0, [r1]
	.loc	1 694 109                       @ packages/cJSON-v1.0.2/cJSON.c:694:109
	ldr	r0, [sp, #8]
	.loc	1 694 96                        @ packages/cJSON-v1.0.2/cJSON.c:694:96
	bl	cJSON_Delete
	.loc	1 694 112                       @ packages/cJSON-v1.0.2/cJSON.c:694:112
	b	.LBB29_13
.LBB29_13:
	add	sp, #24
	pop	{r7, pc}
.Ltmp222:
.Lfunc_end29:
	.size	cJSON_ReplaceItemInArray, .Lfunc_end29-cJSON_ReplaceItemInArray
	.cfi_endproc
	.cantunwind
	.fnend
                                        @ -- End function
	.section	.text.cJSON_ReplaceItemInObject,"ax",%progbits
	.hidden	cJSON_ReplaceItemInObject       @ -- Begin function cJSON_ReplaceItemInObject
	.globl	cJSON_ReplaceItemInObject
	.p2align	3
	.type	cJSON_ReplaceItemInObject,%function
	.code	16                              @ @cJSON_ReplaceItemInObject
	.thumb_func
cJSON_ReplaceItemInObject:
.Lfunc_begin30:
	.loc	1 695 0 is_stmt 1               @ packages/cJSON-v1.0.2/cJSON.c:695:0
	.fnstart
	.cfi_startproc
@ %bb.0:
	.save	{r7, lr}
	push	{r7, lr}
	.cfi_def_cfa_offset 8
	.cfi_offset lr, -4
	.cfi_offset r7, -8
	.pad	#24
	sub	sp, #24
	.cfi_def_cfa_offset 32
	str	r0, [sp, #20]
	str	r1, [sp, #16]
	str	r2, [sp, #12]
	movs	r0, #0
.Ltmp223:
	.loc	1 695 87 prologue_end           @ packages/cJSON-v1.0.2/cJSON.c:695:87
	str	r0, [sp, #8]
	.loc	1 695 100 is_stmt 0             @ packages/cJSON-v1.0.2/cJSON.c:695:100
	ldr	r0, [sp, #20]
	.loc	1 695 108                       @ packages/cJSON-v1.0.2/cJSON.c:695:108
	ldr	r0, [r0, #8]
	.loc	1 695 98                        @ packages/cJSON-v1.0.2/cJSON.c:695:98
	str	r0, [sp, #4]
	.loc	1 695 114                       @ packages/cJSON-v1.0.2/cJSON.c:695:114
	b	.LBB30_1
.LBB30_1:                               @ =>This Inner Loop Header: Depth=1
	.loc	1 695 120                       @ packages/cJSON-v1.0.2/cJSON.c:695:120
	ldr	r1, [sp, #4]
	movs	r0, #0
	.loc	1 695 122                       @ packages/cJSON-v1.0.2/cJSON.c:695:122
	str	r0, [sp]                        @ 4-byte Spill
	cbz	r1, .LBB30_3
	b	.LBB30_2
.LBB30_2:                               @   in Loop: Header=BB30_1 Depth=1
	.loc	1 695 142                       @ packages/cJSON-v1.0.2/cJSON.c:695:142
	ldr	r0, [sp, #4]
	.loc	1 695 145                       @ packages/cJSON-v1.0.2/cJSON.c:695:145
	ldr	r0, [r0, #32]
	.loc	1 695 152                       @ packages/cJSON-v1.0.2/cJSON.c:695:152
	ldr	r1, [sp, #16]
	.loc	1 695 125                       @ packages/cJSON-v1.0.2/cJSON.c:695:125
	bl	cJSON_strcasecmp
	.loc	1 695 122                       @ packages/cJSON-v1.0.2/cJSON.c:695:122
	cmp	r0, #0
	it	ne
	movne	r0, #1
	str	r0, [sp]                        @ 4-byte Spill
	b	.LBB30_3
.LBB30_3:                               @   in Loop: Header=BB30_1 Depth=1
	.loc	1 0 0                           @ packages/cJSON-v1.0.2/cJSON.c:0:0
	ldr	r0, [sp]                        @ 4-byte Reload
	.loc	1 695 114                       @ packages/cJSON-v1.0.2/cJSON.c:695:114
	lsls	r0, r0, #31
	cbz	r0, .LBB30_5
	b	.LBB30_4
.LBB30_4:                               @   in Loop: Header=BB30_1 Depth=1
	.loc	1 695 161                       @ packages/cJSON-v1.0.2/cJSON.c:695:161
	ldr	r0, [sp, #8]
	adds	r0, #1
	str	r0, [sp, #8]
	.loc	1 695 166                       @ packages/cJSON-v1.0.2/cJSON.c:695:166
	ldr	r0, [sp, #4]
	.loc	1 695 169                       @ packages/cJSON-v1.0.2/cJSON.c:695:169
	ldr	r0, [r0]
	.loc	1 695 165                       @ packages/cJSON-v1.0.2/cJSON.c:695:165
	str	r0, [sp, #4]
	.loc	1 695 114                       @ packages/cJSON-v1.0.2/cJSON.c:695:114
	b	.LBB30_1
.LBB30_5:
.Ltmp224:
	.loc	1 695 177                       @ packages/cJSON-v1.0.2/cJSON.c:695:177
	ldr	r0, [sp, #4]
.Ltmp225:
	.loc	1 695 177                       @ packages/cJSON-v1.0.2/cJSON.c:695:177
	cbz	r0, .LBB30_7
	b	.LBB30_6
.LBB30_6:
.Ltmp226:
	.loc	1 695 209                       @ packages/cJSON-v1.0.2/cJSON.c:695:209
	ldr	r0, [sp, #16]
	.loc	1 695 196                       @ packages/cJSON-v1.0.2/cJSON.c:695:196
	bl	cJSON_strdup
	.loc	1 695 180                       @ packages/cJSON-v1.0.2/cJSON.c:695:180
	ldr	r1, [sp, #12]
	.loc	1 695 195                       @ packages/cJSON-v1.0.2/cJSON.c:695:195
	str	r0, [r1, #32]
	.loc	1 695 242                       @ packages/cJSON-v1.0.2/cJSON.c:695:242
	ldr	r0, [sp, #20]
	.loc	1 695 249                       @ packages/cJSON-v1.0.2/cJSON.c:695:249
	ldr	r1, [sp, #8]
	.loc	1 695 251                       @ packages/cJSON-v1.0.2/cJSON.c:695:251
	ldr	r2, [sp, #12]
	.loc	1 695 217                       @ packages/cJSON-v1.0.2/cJSON.c:695:217
	bl	cJSON_ReplaceItemInArray
	.loc	1 695 260                       @ packages/cJSON-v1.0.2/cJSON.c:695:260
	b	.LBB30_7
.Ltmp227:
.LBB30_7:
	.loc	1 695 261                       @ packages/cJSON-v1.0.2/cJSON.c:695:261
	add	sp, #24
	pop	{r7, pc}
.Ltmp228:
.Lfunc_end30:
	.size	cJSON_ReplaceItemInObject, .Lfunc_end30-cJSON_ReplaceItemInObject
	.cfi_endproc
	.cantunwind
	.fnend
                                        @ -- End function
	.section	.text.cJSON_CreateNull,"ax",%progbits
	.hidden	cJSON_CreateNull                @ -- Begin function cJSON_CreateNull
	.globl	cJSON_CreateNull
	.p2align	3
	.type	cJSON_CreateNull,%function
	.code	16                              @ @cJSON_CreateNull
	.thumb_func
cJSON_CreateNull:
.Lfunc_begin31:
	.loc	1 698 0 is_stmt 1               @ packages/cJSON-v1.0.2/cJSON.c:698:0
	.fnstart
	.cfi_startproc
@ %bb.0:
	.save	{r7, lr}
	push	{r7, lr}
	.cfi_def_cfa_offset 8
	.cfi_offset lr, -4
	.cfi_offset r7, -8
	.pad	#8
	sub	sp, #8
	.cfi_def_cfa_offset 16
.Ltmp229:
	.loc	1 698 48 prologue_end           @ packages/cJSON-v1.0.2/cJSON.c:698:48
	bl	cJSON_New_Item
	.loc	1 698 43 is_stmt 0              @ packages/cJSON-v1.0.2/cJSON.c:698:43
	str	r0, [sp, #4]
.Ltmp230:
	.loc	1 698 68                        @ packages/cJSON-v1.0.2/cJSON.c:698:68
	ldr	r0, [sp, #4]
.Ltmp231:
	.loc	1 698 68                        @ packages/cJSON-v1.0.2/cJSON.c:698:68
	cbz	r0, .LBB31_2
	b	.LBB31_1
.LBB31_1:
.Ltmp232:
	.loc	1 698 73                        @ packages/cJSON-v1.0.2/cJSON.c:698:73
	ldr	r1, [sp, #4]
	movs	r0, #2
	.loc	1 698 83                        @ packages/cJSON-v1.0.2/cJSON.c:698:83
	str	r0, [r1, #12]
	.loc	1 698 73                        @ packages/cJSON-v1.0.2/cJSON.c:698:73
	b	.LBB31_2
.Ltmp233:
.LBB31_2:
	.loc	1 698 102                       @ packages/cJSON-v1.0.2/cJSON.c:698:102
	ldr	r0, [sp, #4]
	.loc	1 698 95                        @ packages/cJSON-v1.0.2/cJSON.c:698:95
	add	sp, #8
	pop	{r7, pc}
.Ltmp234:
.Lfunc_end31:
	.size	cJSON_CreateNull, .Lfunc_end31-cJSON_CreateNull
	.cfi_endproc
	.cantunwind
	.fnend
                                        @ -- End function
	.section	.text.cJSON_CreateTrue,"ax",%progbits
	.hidden	cJSON_CreateTrue                @ -- Begin function cJSON_CreateTrue
	.globl	cJSON_CreateTrue
	.p2align	3
	.type	cJSON_CreateTrue,%function
	.code	16                              @ @cJSON_CreateTrue
	.thumb_func
cJSON_CreateTrue:
.Lfunc_begin32:
	.loc	1 699 0 is_stmt 1               @ packages/cJSON-v1.0.2/cJSON.c:699:0
	.fnstart
	.cfi_startproc
@ %bb.0:
	.save	{r7, lr}
	push	{r7, lr}
	.cfi_def_cfa_offset 8
	.cfi_offset lr, -4
	.cfi_offset r7, -8
	.pad	#8
	sub	sp, #8
	.cfi_def_cfa_offset 16
.Ltmp235:
	.loc	1 699 48 prologue_end           @ packages/cJSON-v1.0.2/cJSON.c:699:48
	bl	cJSON_New_Item
	.loc	1 699 43 is_stmt 0              @ packages/cJSON-v1.0.2/cJSON.c:699:43
	str	r0, [sp, #4]
.Ltmp236:
	.loc	1 699 68                        @ packages/cJSON-v1.0.2/cJSON.c:699:68
	ldr	r0, [sp, #4]
.Ltmp237:
	.loc	1 699 68                        @ packages/cJSON-v1.0.2/cJSON.c:699:68
	cbz	r0, .LBB32_2
	b	.LBB32_1
.LBB32_1:
.Ltmp238:
	.loc	1 699 73                        @ packages/cJSON-v1.0.2/cJSON.c:699:73
	ldr	r1, [sp, #4]
	movs	r0, #1
	.loc	1 699 83                        @ packages/cJSON-v1.0.2/cJSON.c:699:83
	str	r0, [r1, #12]
	.loc	1 699 73                        @ packages/cJSON-v1.0.2/cJSON.c:699:73
	b	.LBB32_2
.Ltmp239:
.LBB32_2:
	.loc	1 699 102                       @ packages/cJSON-v1.0.2/cJSON.c:699:102
	ldr	r0, [sp, #4]
	.loc	1 699 95                        @ packages/cJSON-v1.0.2/cJSON.c:699:95
	add	sp, #8
	pop	{r7, pc}
.Ltmp240:
.Lfunc_end32:
	.size	cJSON_CreateTrue, .Lfunc_end32-cJSON_CreateTrue
	.cfi_endproc
	.cantunwind
	.fnend
                                        @ -- End function
	.section	.text.cJSON_CreateFalse,"ax",%progbits
	.hidden	cJSON_CreateFalse               @ -- Begin function cJSON_CreateFalse
	.globl	cJSON_CreateFalse
	.p2align	3
	.type	cJSON_CreateFalse,%function
	.code	16                              @ @cJSON_CreateFalse
	.thumb_func
cJSON_CreateFalse:
.Lfunc_begin33:
	.loc	1 700 0 is_stmt 1               @ packages/cJSON-v1.0.2/cJSON.c:700:0
	.fnstart
	.cfi_startproc
@ %bb.0:
	.save	{r7, lr}
	push	{r7, lr}
	.cfi_def_cfa_offset 8
	.cfi_offset lr, -4
	.cfi_offset r7, -8
	.pad	#8
	sub	sp, #8
	.cfi_def_cfa_offset 16
.Ltmp241:
	.loc	1 700 49 prologue_end           @ packages/cJSON-v1.0.2/cJSON.c:700:49
	bl	cJSON_New_Item
	.loc	1 700 44 is_stmt 0              @ packages/cJSON-v1.0.2/cJSON.c:700:44
	str	r0, [sp, #4]
.Ltmp242:
	.loc	1 700 69                        @ packages/cJSON-v1.0.2/cJSON.c:700:69
	ldr	r0, [sp, #4]
.Ltmp243:
	.loc	1 700 69                        @ packages/cJSON-v1.0.2/cJSON.c:700:69
	cbz	r0, .LBB33_2
	b	.LBB33_1
.LBB33_1:
.Ltmp244:
	.loc	1 700 74                        @ packages/cJSON-v1.0.2/cJSON.c:700:74
	ldr	r1, [sp, #4]
	movs	r0, #0
	.loc	1 700 84                        @ packages/cJSON-v1.0.2/cJSON.c:700:84
	str	r0, [r1, #12]
	.loc	1 700 74                        @ packages/cJSON-v1.0.2/cJSON.c:700:74
	b	.LBB33_2
.Ltmp245:
.LBB33_2:
	.loc	1 700 104                       @ packages/cJSON-v1.0.2/cJSON.c:700:104
	ldr	r0, [sp, #4]
	.loc	1 700 97                        @ packages/cJSON-v1.0.2/cJSON.c:700:97
	add	sp, #8
	pop	{r7, pc}
.Ltmp246:
.Lfunc_end33:
	.size	cJSON_CreateFalse, .Lfunc_end33-cJSON_CreateFalse
	.cfi_endproc
	.cantunwind
	.fnend
                                        @ -- End function
	.section	.text.cJSON_CreateBool,"ax",%progbits
	.hidden	cJSON_CreateBool                @ -- Begin function cJSON_CreateBool
	.globl	cJSON_CreateBool
	.p2align	3
	.type	cJSON_CreateBool,%function
	.code	16                              @ @cJSON_CreateBool
	.thumb_func
cJSON_CreateBool:
.Lfunc_begin34:
	.loc	1 701 0 is_stmt 1               @ packages/cJSON-v1.0.2/cJSON.c:701:0
	.fnstart
	.cfi_startproc
@ %bb.0:
	.save	{r7, lr}
	push	{r7, lr}
	.cfi_def_cfa_offset 8
	.cfi_offset lr, -4
	.cfi_offset r7, -8
	.pad	#8
	sub	sp, #8
	.cfi_def_cfa_offset 16
	str	r0, [sp, #4]
.Ltmp247:
	.loc	1 701 49 prologue_end           @ packages/cJSON-v1.0.2/cJSON.c:701:49
	bl	cJSON_New_Item
	.loc	1 701 44 is_stmt 0              @ packages/cJSON-v1.0.2/cJSON.c:701:44
	str	r0, [sp]
.Ltmp248:
	.loc	1 701 69                        @ packages/cJSON-v1.0.2/cJSON.c:701:69
	ldr	r0, [sp]
.Ltmp249:
	.loc	1 701 69                        @ packages/cJSON-v1.0.2/cJSON.c:701:69
	cbz	r0, .LBB34_2
	b	.LBB34_1
.LBB34_1:
.Ltmp250:
	.loc	1 701 85                        @ packages/cJSON-v1.0.2/cJSON.c:701:85
	ldr	r0, [sp, #4]
	cmp	r0, #0
	it	ne
	movne	r0, #1
	.loc	1 701 74                        @ packages/cJSON-v1.0.2/cJSON.c:701:74
	ldr	r1, [sp]
	.loc	1 701 84                        @ packages/cJSON-v1.0.2/cJSON.c:701:84
	str	r0, [r1, #12]
	.loc	1 701 74                        @ packages/cJSON-v1.0.2/cJSON.c:701:74
	b	.LBB34_2
.Ltmp251:
.LBB34_2:
	.loc	1 701 117                       @ packages/cJSON-v1.0.2/cJSON.c:701:117
	ldr	r0, [sp]
	.loc	1 701 110                       @ packages/cJSON-v1.0.2/cJSON.c:701:110
	add	sp, #8
	pop	{r7, pc}
.Ltmp252:
.Lfunc_end34:
	.size	cJSON_CreateBool, .Lfunc_end34-cJSON_CreateBool
	.cfi_endproc
	.cantunwind
	.fnend
                                        @ -- End function
	.section	.text.cJSON_CreateNumber,"ax",%progbits
	.hidden	cJSON_CreateNumber              @ -- Begin function cJSON_CreateNumber
	.globl	cJSON_CreateNumber
	.p2align	3
	.type	cJSON_CreateNumber,%function
	.code	16                              @ @cJSON_CreateNumber
	.thumb_func
cJSON_CreateNumber:
.Lfunc_begin35:
	.loc	1 702 0 is_stmt 1               @ packages/cJSON-v1.0.2/cJSON.c:702:0
	.fnstart
	.cfi_startproc
@ %bb.0:
	.save	{r7, lr}
	push	{r7, lr}
	.cfi_def_cfa_offset 8
	.cfi_offset lr, -4
	.cfi_offset r7, -8
	.pad	#16
	sub	sp, #16
	.cfi_def_cfa_offset 24
	vstr	d0, [sp, #8]
.Ltmp253:
	.loc	1 702 54 prologue_end           @ packages/cJSON-v1.0.2/cJSON.c:702:54
	bl	cJSON_New_Item
	.loc	1 702 49 is_stmt 0              @ packages/cJSON-v1.0.2/cJSON.c:702:49
	str	r0, [sp, #4]
.Ltmp254:
	.loc	1 702 74                        @ packages/cJSON-v1.0.2/cJSON.c:702:74
	ldr	r0, [sp, #4]
.Ltmp255:
	.loc	1 702 74                        @ packages/cJSON-v1.0.2/cJSON.c:702:74
	cbz	r0, .LBB35_2
	b	.LBB35_1
.LBB35_1:
.Ltmp256:
	.loc	1 702 80                        @ packages/cJSON-v1.0.2/cJSON.c:702:80
	ldr	r1, [sp, #4]
	movs	r0, #3
	.loc	1 702 90                        @ packages/cJSON-v1.0.2/cJSON.c:702:90
	str	r0, [r1, #12]
	.loc	1 702 122                       @ packages/cJSON-v1.0.2/cJSON.c:702:122
	vldr	d0, [sp, #8]
	.loc	1 702 104                       @ packages/cJSON-v1.0.2/cJSON.c:702:104
	ldr	r0, [sp, #4]
	.loc	1 702 121                       @ packages/cJSON-v1.0.2/cJSON.c:702:121
	vstr	d0, [r0, #24]
	.loc	1 702 146                       @ packages/cJSON-v1.0.2/cJSON.c:702:146
	vldr	d0, [sp, #8]
	.loc	1 702 126                       @ packages/cJSON-v1.0.2/cJSON.c:702:126
	ldr	r0, [sp, #4]
	.loc	1 702 140                       @ packages/cJSON-v1.0.2/cJSON.c:702:140
	vcvt.s32.f64	s0, d0
	vstr	s0, [r0, #20]
	.loc	1 702 150                       @ packages/cJSON-v1.0.2/cJSON.c:702:150
	b	.LBB35_2
.Ltmp257:
.LBB35_2:
	.loc	1 702 158                       @ packages/cJSON-v1.0.2/cJSON.c:702:158
	ldr	r0, [sp, #4]
	.loc	1 702 151                       @ packages/cJSON-v1.0.2/cJSON.c:702:151
	add	sp, #16
	pop	{r7, pc}
.Ltmp258:
.Lfunc_end35:
	.size	cJSON_CreateNumber, .Lfunc_end35-cJSON_CreateNumber
	.cfi_endproc
	.cantunwind
	.fnend
                                        @ -- End function
	.section	.text.cJSON_CreateString,"ax",%progbits
	.hidden	cJSON_CreateString              @ -- Begin function cJSON_CreateString
	.globl	cJSON_CreateString
	.p2align	3
	.type	cJSON_CreateString,%function
	.code	16                              @ @cJSON_CreateString
	.thumb_func
cJSON_CreateString:
.Lfunc_begin36:
	.loc	1 703 0 is_stmt 1               @ packages/cJSON-v1.0.2/cJSON.c:703:0
	.fnstart
	.cfi_startproc
@ %bb.0:
	.save	{r7, lr}
	push	{r7, lr}
	.cfi_def_cfa_offset 8
	.cfi_offset lr, -4
	.cfi_offset r7, -8
	.pad	#8
	sub	sp, #8
	.cfi_def_cfa_offset 16
	str	r0, [sp, #4]
.Ltmp259:
	.loc	1 703 60 prologue_end           @ packages/cJSON-v1.0.2/cJSON.c:703:60
	bl	cJSON_New_Item
	.loc	1 703 55 is_stmt 0              @ packages/cJSON-v1.0.2/cJSON.c:703:55
	str	r0, [sp]
.Ltmp260:
	.loc	1 703 80                        @ packages/cJSON-v1.0.2/cJSON.c:703:80
	ldr	r0, [sp]
.Ltmp261:
	.loc	1 703 80                        @ packages/cJSON-v1.0.2/cJSON.c:703:80
	cbz	r0, .LBB36_2
	b	.LBB36_1
.LBB36_1:
.Ltmp262:
	.loc	1 703 86                        @ packages/cJSON-v1.0.2/cJSON.c:703:86
	ldr	r1, [sp]
	movs	r0, #4
	.loc	1 703 96                        @ packages/cJSON-v1.0.2/cJSON.c:703:96
	str	r0, [r1, #12]
	.loc	1 703 141                       @ packages/cJSON-v1.0.2/cJSON.c:703:141
	ldr	r0, [sp, #4]
	.loc	1 703 128                       @ packages/cJSON-v1.0.2/cJSON.c:703:128
	bl	cJSON_strdup
	.loc	1 703 110                       @ packages/cJSON-v1.0.2/cJSON.c:703:110
	ldr	r1, [sp]
	.loc	1 703 127                       @ packages/cJSON-v1.0.2/cJSON.c:703:127
	str	r0, [r1, #16]
	.loc	1 703 149                       @ packages/cJSON-v1.0.2/cJSON.c:703:149
	b	.LBB36_2
.Ltmp263:
.LBB36_2:
	.loc	1 703 157                       @ packages/cJSON-v1.0.2/cJSON.c:703:157
	ldr	r0, [sp]
	.loc	1 703 150                       @ packages/cJSON-v1.0.2/cJSON.c:703:150
	add	sp, #8
	pop	{r7, pc}
.Ltmp264:
.Lfunc_end36:
	.size	cJSON_CreateString, .Lfunc_end36-cJSON_CreateString
	.cfi_endproc
	.cantunwind
	.fnend
                                        @ -- End function
	.section	.text.cJSON_CreateArray,"ax",%progbits
	.hidden	cJSON_CreateArray               @ -- Begin function cJSON_CreateArray
	.globl	cJSON_CreateArray
	.p2align	3
	.type	cJSON_CreateArray,%function
	.code	16                              @ @cJSON_CreateArray
	.thumb_func
cJSON_CreateArray:
.Lfunc_begin37:
	.loc	1 704 0 is_stmt 1               @ packages/cJSON-v1.0.2/cJSON.c:704:0
	.fnstart
	.cfi_startproc
@ %bb.0:
	.save	{r7, lr}
	push	{r7, lr}
	.cfi_def_cfa_offset 8
	.cfi_offset lr, -4
	.cfi_offset r7, -8
	.pad	#8
	sub	sp, #8
	.cfi_def_cfa_offset 16
.Ltmp265:
	.loc	1 704 49 prologue_end           @ packages/cJSON-v1.0.2/cJSON.c:704:49
	bl	cJSON_New_Item
	.loc	1 704 44 is_stmt 0              @ packages/cJSON-v1.0.2/cJSON.c:704:44
	str	r0, [sp, #4]
.Ltmp266:
	.loc	1 704 69                        @ packages/cJSON-v1.0.2/cJSON.c:704:69
	ldr	r0, [sp, #4]
.Ltmp267:
	.loc	1 704 69                        @ packages/cJSON-v1.0.2/cJSON.c:704:69
	cbz	r0, .LBB37_2
	b	.LBB37_1
.LBB37_1:
.Ltmp268:
	.loc	1 704 74                        @ packages/cJSON-v1.0.2/cJSON.c:704:74
	ldr	r1, [sp, #4]
	movs	r0, #5
	.loc	1 704 84                        @ packages/cJSON-v1.0.2/cJSON.c:704:84
	str	r0, [r1, #12]
	.loc	1 704 74                        @ packages/cJSON-v1.0.2/cJSON.c:704:74
	b	.LBB37_2
.Ltmp269:
.LBB37_2:
	.loc	1 704 104                       @ packages/cJSON-v1.0.2/cJSON.c:704:104
	ldr	r0, [sp, #4]
	.loc	1 704 97                        @ packages/cJSON-v1.0.2/cJSON.c:704:97
	add	sp, #8
	pop	{r7, pc}
.Ltmp270:
.Lfunc_end37:
	.size	cJSON_CreateArray, .Lfunc_end37-cJSON_CreateArray
	.cfi_endproc
	.cantunwind
	.fnend
                                        @ -- End function
	.section	.text.cJSON_CreateObject,"ax",%progbits
	.hidden	cJSON_CreateObject              @ -- Begin function cJSON_CreateObject
	.globl	cJSON_CreateObject
	.p2align	3
	.type	cJSON_CreateObject,%function
	.code	16                              @ @cJSON_CreateObject
	.thumb_func
cJSON_CreateObject:
.Lfunc_begin38:
	.loc	1 705 0 is_stmt 1               @ packages/cJSON-v1.0.2/cJSON.c:705:0
	.fnstart
	.cfi_startproc
@ %bb.0:
	.save	{r7, lr}
	push	{r7, lr}
	.cfi_def_cfa_offset 8
	.cfi_offset lr, -4
	.cfi_offset r7, -8
	.pad	#8
	sub	sp, #8
	.cfi_def_cfa_offset 16
.Ltmp271:
	.loc	1 705 50 prologue_end           @ packages/cJSON-v1.0.2/cJSON.c:705:50
	bl	cJSON_New_Item
	.loc	1 705 45 is_stmt 0              @ packages/cJSON-v1.0.2/cJSON.c:705:45
	str	r0, [sp, #4]
.Ltmp272:
	.loc	1 705 70                        @ packages/cJSON-v1.0.2/cJSON.c:705:70
	ldr	r0, [sp, #4]
.Ltmp273:
	.loc	1 705 70                        @ packages/cJSON-v1.0.2/cJSON.c:705:70
	cbz	r0, .LBB38_2
	b	.LBB38_1
.LBB38_1:
.Ltmp274:
	.loc	1 705 75                        @ packages/cJSON-v1.0.2/cJSON.c:705:75
	ldr	r1, [sp, #4]
	movs	r0, #6
	.loc	1 705 85                        @ packages/cJSON-v1.0.2/cJSON.c:705:85
	str	r0, [r1, #12]
	.loc	1 705 75                        @ packages/cJSON-v1.0.2/cJSON.c:705:75
	b	.LBB38_2
.Ltmp275:
.LBB38_2:
	.loc	1 705 106                       @ packages/cJSON-v1.0.2/cJSON.c:705:106
	ldr	r0, [sp, #4]
	.loc	1 705 99                        @ packages/cJSON-v1.0.2/cJSON.c:705:99
	add	sp, #8
	pop	{r7, pc}
.Ltmp276:
.Lfunc_end38:
	.size	cJSON_CreateObject, .Lfunc_end38-cJSON_CreateObject
	.cfi_endproc
	.cantunwind
	.fnend
                                        @ -- End function
	.section	.text.cJSON_CreateCharArray,"ax",%progbits
	.hidden	cJSON_CreateCharArray           @ -- Begin function cJSON_CreateCharArray
	.globl	cJSON_CreateCharArray
	.p2align	3
	.type	cJSON_CreateCharArray,%function
	.code	16                              @ @cJSON_CreateCharArray
	.thumb_func
cJSON_CreateCharArray:
.Lfunc_begin39:
	.loc	1 708 0 is_stmt 1               @ packages/cJSON-v1.0.2/cJSON.c:708:0
	.fnstart
	.cfi_startproc
@ %bb.0:
	.save	{r7, lr}
	push	{r7, lr}
	.cfi_def_cfa_offset 8
	.cfi_offset lr, -4
	.cfi_offset r7, -8
	.pad	#32
	sub	sp, #32
	.cfi_def_cfa_offset 40
	str	r0, [sp, #28]
	str	r1, [sp, #24]
	movs	r0, #0
.Ltmp277:
	.loc	1 708 85 prologue_end           @ packages/cJSON-v1.0.2/cJSON.c:708:85
	str	r0, [sp, #4]                    @ 4-byte Spill
	str	r0, [sp, #16]
	.loc	1 708 90 is_stmt 0              @ packages/cJSON-v1.0.2/cJSON.c:708:90
	str	r0, [sp, #12]
	.loc	1 708 97                        @ packages/cJSON-v1.0.2/cJSON.c:708:97
	bl	cJSON_CreateArray
	mov	r1, r0
	.loc	1 708 95                        @ packages/cJSON-v1.0.2/cJSON.c:708:95
	ldr	r0, [sp, #4]                    @ 4-byte Reload
	str	r1, [sp, #8]
.Ltmp278:
	.loc	1 708 122                       @ packages/cJSON-v1.0.2/cJSON.c:708:122
	str	r0, [sp, #20]
	.loc	1 708 121                       @ packages/cJSON-v1.0.2/cJSON.c:708:121
	b	.LBB39_1
.LBB39_1:                               @ =>This Inner Loop Header: Depth=1
.Ltmp279:
	.loc	1 708 125                       @ packages/cJSON-v1.0.2/cJSON.c:708:125
	ldr	r1, [sp, #8]
	movs	r0, #0
	.loc	1 708 127                       @ packages/cJSON-v1.0.2/cJSON.c:708:127
	str	r0, [sp]                        @ 4-byte Spill
	cbz	r1, .LBB39_3
	b	.LBB39_2
.LBB39_2:                               @   in Loop: Header=BB39_1 Depth=1
	.loc	1 708 130                       @ packages/cJSON-v1.0.2/cJSON.c:708:130
	ldr	r1, [sp, #20]
	.loc	1 708 132                       @ packages/cJSON-v1.0.2/cJSON.c:708:132
	ldr	r2, [sp, #24]
	movs	r0, #0
	.loc	1 708 131                       @ packages/cJSON-v1.0.2/cJSON.c:708:131
	cmp	r1, r2
	it	lt
	movlt	r0, #1
	str	r0, [sp]                        @ 4-byte Spill
	b	.LBB39_3
.LBB39_3:                               @   in Loop: Header=BB39_1 Depth=1
	.loc	1 0 0                           @ packages/cJSON-v1.0.2/cJSON.c:0:0
	ldr	r0, [sp]                        @ 4-byte Reload
.Ltmp280:
	.loc	1 708 117                       @ packages/cJSON-v1.0.2/cJSON.c:708:117
	lsls	r0, r0, #31
	cbz	r0, .LBB39_9
	b	.LBB39_4
.LBB39_4:                               @   in Loop: Header=BB39_1 Depth=1
.Ltmp281:
	.loc	1 708 164                       @ packages/cJSON-v1.0.2/cJSON.c:708:164
	ldr	r0, [sp, #28]
	.loc	1 708 172                       @ packages/cJSON-v1.0.2/cJSON.c:708:172
	ldr	r1, [sp, #20]
	.loc	1 708 164                       @ packages/cJSON-v1.0.2/cJSON.c:708:164
	ldrb	r0, [r0, r1]
	vmov	s0, r0
	vcvt.f64.u32	d0, s0
	.loc	1 708 145                       @ packages/cJSON-v1.0.2/cJSON.c:708:145
	bl	cJSON_CreateNumber
	.loc	1 708 144                       @ packages/cJSON-v1.0.2/cJSON.c:708:144
	str	r0, [sp, #16]
.Ltmp282:
	.loc	1 708 180                       @ packages/cJSON-v1.0.2/cJSON.c:708:180
	ldr	r0, [sp, #20]
.Ltmp283:
	.loc	1 708 179                       @ packages/cJSON-v1.0.2/cJSON.c:708:179
	cbnz	r0, .LBB39_6
	b	.LBB39_5
.LBB39_5:                               @   in Loop: Header=BB39_1 Depth=1
.Ltmp284:
	.loc	1 708 191                       @ packages/cJSON-v1.0.2/cJSON.c:708:191
	ldr	r0, [sp, #16]
	.loc	1 708 182                       @ packages/cJSON-v1.0.2/cJSON.c:708:182
	ldr	r1, [sp, #8]
	.loc	1 708 190                       @ packages/cJSON-v1.0.2/cJSON.c:708:190
	str	r0, [r1, #8]
	.loc	1 708 182                       @ packages/cJSON-v1.0.2/cJSON.c:708:182
	b	.LBB39_7
.LBB39_6:                               @   in Loop: Header=BB39_1 Depth=1
	.loc	1 708 212                       @ packages/cJSON-v1.0.2/cJSON.c:708:212
	ldr	r0, [sp, #12]
	.loc	1 708 214                       @ packages/cJSON-v1.0.2/cJSON.c:708:214
	ldr	r1, [sp, #16]
	.loc	1 708 198                       @ packages/cJSON-v1.0.2/cJSON.c:708:198
	bl	suffix_object
	b	.LBB39_7
.Ltmp285:
.LBB39_7:                               @   in Loop: Header=BB39_1 Depth=1
	.loc	1 708 219                       @ packages/cJSON-v1.0.2/cJSON.c:708:219
	ldr	r0, [sp, #16]
	.loc	1 708 218                       @ packages/cJSON-v1.0.2/cJSON.c:708:218
	str	r0, [sp, #12]
	.loc	1 708 221                       @ packages/cJSON-v1.0.2/cJSON.c:708:221
	b	.LBB39_8
.Ltmp286:
.LBB39_8:                               @   in Loop: Header=BB39_1 Depth=1
	.loc	1 708 139                       @ packages/cJSON-v1.0.2/cJSON.c:708:139
	ldr	r0, [sp, #20]
	adds	r0, #1
	str	r0, [sp, #20]
	.loc	1 708 117                       @ packages/cJSON-v1.0.2/cJSON.c:708:117
	b	.LBB39_1
.Ltmp287:
.LBB39_9:
	.loc	1 708 229                       @ packages/cJSON-v1.0.2/cJSON.c:708:229
	ldr	r0, [sp, #8]
	.loc	1 708 222                       @ packages/cJSON-v1.0.2/cJSON.c:708:222
	add	sp, #32
	pop	{r7, pc}
.Ltmp288:
.Lfunc_end39:
	.size	cJSON_CreateCharArray, .Lfunc_end39-cJSON_CreateCharArray
	.cfi_endproc
	.cantunwind
	.fnend
                                        @ -- End function
	.section	.text.cJSON_CreateIntArray,"ax",%progbits
	.hidden	cJSON_CreateIntArray            @ -- Begin function cJSON_CreateIntArray
	.globl	cJSON_CreateIntArray
	.p2align	3
	.type	cJSON_CreateIntArray,%function
	.code	16                              @ @cJSON_CreateIntArray
	.thumb_func
cJSON_CreateIntArray:
.Lfunc_begin40:
	.loc	1 709 0 is_stmt 1               @ packages/cJSON-v1.0.2/cJSON.c:709:0
	.fnstart
	.cfi_startproc
@ %bb.0:
	.save	{r7, lr}
	push	{r7, lr}
	.cfi_def_cfa_offset 8
	.cfi_offset lr, -4
	.cfi_offset r7, -8
	.pad	#32
	sub	sp, #32
	.cfi_def_cfa_offset 40
	str	r0, [sp, #28]
	str	r1, [sp, #24]
	movs	r0, #0
.Ltmp289:
	.loc	1 709 74 prologue_end           @ packages/cJSON-v1.0.2/cJSON.c:709:74
	str	r0, [sp, #4]                    @ 4-byte Spill
	str	r0, [sp, #16]
	.loc	1 709 79 is_stmt 0              @ packages/cJSON-v1.0.2/cJSON.c:709:79
	str	r0, [sp, #12]
	.loc	1 709 86                        @ packages/cJSON-v1.0.2/cJSON.c:709:86
	bl	cJSON_CreateArray
	mov	r1, r0
	.loc	1 709 84                        @ packages/cJSON-v1.0.2/cJSON.c:709:84
	ldr	r0, [sp, #4]                    @ 4-byte Reload
	str	r1, [sp, #8]
.Ltmp290:
	.loc	1 709 111                       @ packages/cJSON-v1.0.2/cJSON.c:709:111
	str	r0, [sp, #20]
	.loc	1 709 110                       @ packages/cJSON-v1.0.2/cJSON.c:709:110
	b	.LBB40_1
.LBB40_1:                               @ =>This Inner Loop Header: Depth=1
.Ltmp291:
	.loc	1 709 114                       @ packages/cJSON-v1.0.2/cJSON.c:709:114
	ldr	r1, [sp, #8]
	movs	r0, #0
	.loc	1 709 116                       @ packages/cJSON-v1.0.2/cJSON.c:709:116
	str	r0, [sp]                        @ 4-byte Spill
	cbz	r1, .LBB40_3
	b	.LBB40_2
.LBB40_2:                               @   in Loop: Header=BB40_1 Depth=1
	.loc	1 709 119                       @ packages/cJSON-v1.0.2/cJSON.c:709:119
	ldr	r1, [sp, #20]
	.loc	1 709 121                       @ packages/cJSON-v1.0.2/cJSON.c:709:121
	ldr	r2, [sp, #24]
	movs	r0, #0
	.loc	1 709 120                       @ packages/cJSON-v1.0.2/cJSON.c:709:120
	cmp	r1, r2
	it	lt
	movlt	r0, #1
	str	r0, [sp]                        @ 4-byte Spill
	b	.LBB40_3
.LBB40_3:                               @   in Loop: Header=BB40_1 Depth=1
	.loc	1 0 0                           @ packages/cJSON-v1.0.2/cJSON.c:0:0
	ldr	r0, [sp]                        @ 4-byte Reload
.Ltmp292:
	.loc	1 709 106                       @ packages/cJSON-v1.0.2/cJSON.c:709:106
	lsls	r0, r0, #31
	cbz	r0, .LBB40_9
	b	.LBB40_4
.LBB40_4:                               @   in Loop: Header=BB40_1 Depth=1
.Ltmp293:
	.loc	1 709 153                       @ packages/cJSON-v1.0.2/cJSON.c:709:153
	ldr	r0, [sp, #28]
	.loc	1 709 161                       @ packages/cJSON-v1.0.2/cJSON.c:709:161
	ldr	r1, [sp, #20]
	.loc	1 709 153                       @ packages/cJSON-v1.0.2/cJSON.c:709:153
	add.w	r0, r0, r1, lsl #2
	vldr	s0, [r0]
	vcvt.f64.s32	d0, s0
	.loc	1 709 134                       @ packages/cJSON-v1.0.2/cJSON.c:709:134
	bl	cJSON_CreateNumber
	.loc	1 709 133                       @ packages/cJSON-v1.0.2/cJSON.c:709:133
	str	r0, [sp, #16]
.Ltmp294:
	.loc	1 709 169                       @ packages/cJSON-v1.0.2/cJSON.c:709:169
	ldr	r0, [sp, #20]
.Ltmp295:
	.loc	1 709 168                       @ packages/cJSON-v1.0.2/cJSON.c:709:168
	cbnz	r0, .LBB40_6
	b	.LBB40_5
.LBB40_5:                               @   in Loop: Header=BB40_1 Depth=1
.Ltmp296:
	.loc	1 709 180                       @ packages/cJSON-v1.0.2/cJSON.c:709:180
	ldr	r0, [sp, #16]
	.loc	1 709 171                       @ packages/cJSON-v1.0.2/cJSON.c:709:171
	ldr	r1, [sp, #8]
	.loc	1 709 179                       @ packages/cJSON-v1.0.2/cJSON.c:709:179
	str	r0, [r1, #8]
	.loc	1 709 171                       @ packages/cJSON-v1.0.2/cJSON.c:709:171
	b	.LBB40_7
.LBB40_6:                               @   in Loop: Header=BB40_1 Depth=1
	.loc	1 709 201                       @ packages/cJSON-v1.0.2/cJSON.c:709:201
	ldr	r0, [sp, #12]
	.loc	1 709 203                       @ packages/cJSON-v1.0.2/cJSON.c:709:203
	ldr	r1, [sp, #16]
	.loc	1 709 187                       @ packages/cJSON-v1.0.2/cJSON.c:709:187
	bl	suffix_object
	b	.LBB40_7
.Ltmp297:
.LBB40_7:                               @   in Loop: Header=BB40_1 Depth=1
	.loc	1 709 208                       @ packages/cJSON-v1.0.2/cJSON.c:709:208
	ldr	r0, [sp, #16]
	.loc	1 709 207                       @ packages/cJSON-v1.0.2/cJSON.c:709:207
	str	r0, [sp, #12]
	.loc	1 709 210                       @ packages/cJSON-v1.0.2/cJSON.c:709:210
	b	.LBB40_8
.Ltmp298:
.LBB40_8:                               @   in Loop: Header=BB40_1 Depth=1
	.loc	1 709 128                       @ packages/cJSON-v1.0.2/cJSON.c:709:128
	ldr	r0, [sp, #20]
	adds	r0, #1
	str	r0, [sp, #20]
	.loc	1 709 106                       @ packages/cJSON-v1.0.2/cJSON.c:709:106
	b	.LBB40_1
.Ltmp299:
.LBB40_9:
	.loc	1 709 218                       @ packages/cJSON-v1.0.2/cJSON.c:709:218
	ldr	r0, [sp, #8]
	.loc	1 709 211                       @ packages/cJSON-v1.0.2/cJSON.c:709:211
	add	sp, #32
	pop	{r7, pc}
.Ltmp300:
.Lfunc_end40:
	.size	cJSON_CreateIntArray, .Lfunc_end40-cJSON_CreateIntArray
	.cfi_endproc
	.cantunwind
	.fnend
                                        @ -- End function
	.section	.text.cJSON_CreateFloatArray,"ax",%progbits
	.hidden	cJSON_CreateFloatArray          @ -- Begin function cJSON_CreateFloatArray
	.globl	cJSON_CreateFloatArray
	.p2align	3
	.type	cJSON_CreateFloatArray,%function
	.code	16                              @ @cJSON_CreateFloatArray
	.thumb_func
cJSON_CreateFloatArray:
.Lfunc_begin41:
	.loc	1 710 0 is_stmt 1               @ packages/cJSON-v1.0.2/cJSON.c:710:0
	.fnstart
	.cfi_startproc
@ %bb.0:
	.save	{r7, lr}
	push	{r7, lr}
	.cfi_def_cfa_offset 8
	.cfi_offset lr, -4
	.cfi_offset r7, -8
	.pad	#32
	sub	sp, #32
	.cfi_def_cfa_offset 40
	str	r0, [sp, #28]
	str	r1, [sp, #24]
	movs	r0, #0
.Ltmp301:
	.loc	1 710 77 prologue_end           @ packages/cJSON-v1.0.2/cJSON.c:710:77
	str	r0, [sp, #4]                    @ 4-byte Spill
	str	r0, [sp, #16]
	.loc	1 710 82 is_stmt 0              @ packages/cJSON-v1.0.2/cJSON.c:710:82
	str	r0, [sp, #12]
	.loc	1 710 89                        @ packages/cJSON-v1.0.2/cJSON.c:710:89
	bl	cJSON_CreateArray
	mov	r1, r0
	.loc	1 710 87                        @ packages/cJSON-v1.0.2/cJSON.c:710:87
	ldr	r0, [sp, #4]                    @ 4-byte Reload
	str	r1, [sp, #8]
.Ltmp302:
	.loc	1 710 114                       @ packages/cJSON-v1.0.2/cJSON.c:710:114
	str	r0, [sp, #20]
	.loc	1 710 113                       @ packages/cJSON-v1.0.2/cJSON.c:710:113
	b	.LBB41_1
.LBB41_1:                               @ =>This Inner Loop Header: Depth=1
.Ltmp303:
	.loc	1 710 117                       @ packages/cJSON-v1.0.2/cJSON.c:710:117
	ldr	r1, [sp, #8]
	movs	r0, #0
	.loc	1 710 119                       @ packages/cJSON-v1.0.2/cJSON.c:710:119
	str	r0, [sp]                        @ 4-byte Spill
	cbz	r1, .LBB41_3
	b	.LBB41_2
.LBB41_2:                               @   in Loop: Header=BB41_1 Depth=1
	.loc	1 710 122                       @ packages/cJSON-v1.0.2/cJSON.c:710:122
	ldr	r1, [sp, #20]
	.loc	1 710 124                       @ packages/cJSON-v1.0.2/cJSON.c:710:124
	ldr	r2, [sp, #24]
	movs	r0, #0
	.loc	1 710 123                       @ packages/cJSON-v1.0.2/cJSON.c:710:123
	cmp	r1, r2
	it	lt
	movlt	r0, #1
	str	r0, [sp]                        @ 4-byte Spill
	b	.LBB41_3
.LBB41_3:                               @   in Loop: Header=BB41_1 Depth=1
	.loc	1 0 0                           @ packages/cJSON-v1.0.2/cJSON.c:0:0
	ldr	r0, [sp]                        @ 4-byte Reload
.Ltmp304:
	.loc	1 710 109                       @ packages/cJSON-v1.0.2/cJSON.c:710:109
	lsls	r0, r0, #31
	cbz	r0, .LBB41_9
	b	.LBB41_4
.LBB41_4:                               @   in Loop: Header=BB41_1 Depth=1
.Ltmp305:
	.loc	1 710 156                       @ packages/cJSON-v1.0.2/cJSON.c:710:156
	ldr	r0, [sp, #28]
	.loc	1 710 164                       @ packages/cJSON-v1.0.2/cJSON.c:710:164
	ldr	r1, [sp, #20]
	.loc	1 710 156                       @ packages/cJSON-v1.0.2/cJSON.c:710:156
	add.w	r0, r0, r1, lsl #2
	vldr	s0, [r0]
	vcvt.f64.f32	d0, s0
	.loc	1 710 137                       @ packages/cJSON-v1.0.2/cJSON.c:710:137
	bl	cJSON_CreateNumber
	.loc	1 710 136                       @ packages/cJSON-v1.0.2/cJSON.c:710:136
	str	r0, [sp, #16]
.Ltmp306:
	.loc	1 710 172                       @ packages/cJSON-v1.0.2/cJSON.c:710:172
	ldr	r0, [sp, #20]
.Ltmp307:
	.loc	1 710 171                       @ packages/cJSON-v1.0.2/cJSON.c:710:171
	cbnz	r0, .LBB41_6
	b	.LBB41_5
.LBB41_5:                               @   in Loop: Header=BB41_1 Depth=1
.Ltmp308:
	.loc	1 710 183                       @ packages/cJSON-v1.0.2/cJSON.c:710:183
	ldr	r0, [sp, #16]
	.loc	1 710 174                       @ packages/cJSON-v1.0.2/cJSON.c:710:174
	ldr	r1, [sp, #8]
	.loc	1 710 182                       @ packages/cJSON-v1.0.2/cJSON.c:710:182
	str	r0, [r1, #8]
	.loc	1 710 174                       @ packages/cJSON-v1.0.2/cJSON.c:710:174
	b	.LBB41_7
.LBB41_6:                               @   in Loop: Header=BB41_1 Depth=1
	.loc	1 710 204                       @ packages/cJSON-v1.0.2/cJSON.c:710:204
	ldr	r0, [sp, #12]
	.loc	1 710 206                       @ packages/cJSON-v1.0.2/cJSON.c:710:206
	ldr	r1, [sp, #16]
	.loc	1 710 190                       @ packages/cJSON-v1.0.2/cJSON.c:710:190
	bl	suffix_object
	b	.LBB41_7
.Ltmp309:
.LBB41_7:                               @   in Loop: Header=BB41_1 Depth=1
	.loc	1 710 211                       @ packages/cJSON-v1.0.2/cJSON.c:710:211
	ldr	r0, [sp, #16]
	.loc	1 710 210                       @ packages/cJSON-v1.0.2/cJSON.c:710:210
	str	r0, [sp, #12]
	.loc	1 710 213                       @ packages/cJSON-v1.0.2/cJSON.c:710:213
	b	.LBB41_8
.Ltmp310:
.LBB41_8:                               @   in Loop: Header=BB41_1 Depth=1
	.loc	1 710 131                       @ packages/cJSON-v1.0.2/cJSON.c:710:131
	ldr	r0, [sp, #20]
	adds	r0, #1
	str	r0, [sp, #20]
	.loc	1 710 109                       @ packages/cJSON-v1.0.2/cJSON.c:710:109
	b	.LBB41_1
.Ltmp311:
.LBB41_9:
	.loc	1 710 221                       @ packages/cJSON-v1.0.2/cJSON.c:710:221
	ldr	r0, [sp, #8]
	.loc	1 710 214                       @ packages/cJSON-v1.0.2/cJSON.c:710:214
	add	sp, #32
	pop	{r7, pc}
.Ltmp312:
.Lfunc_end41:
	.size	cJSON_CreateFloatArray, .Lfunc_end41-cJSON_CreateFloatArray
	.cfi_endproc
	.cantunwind
	.fnend
                                        @ -- End function
	.section	.text.cJSON_CreateDoubleArray,"ax",%progbits
	.hidden	cJSON_CreateDoubleArray         @ -- Begin function cJSON_CreateDoubleArray
	.globl	cJSON_CreateDoubleArray
	.p2align	3
	.type	cJSON_CreateDoubleArray,%function
	.code	16                              @ @cJSON_CreateDoubleArray
	.thumb_func
cJSON_CreateDoubleArray:
.Lfunc_begin42:
	.loc	1 711 0 is_stmt 1               @ packages/cJSON-v1.0.2/cJSON.c:711:0
	.fnstart
	.cfi_startproc
@ %bb.0:
	.save	{r7, lr}
	push	{r7, lr}
	.cfi_def_cfa_offset 8
	.cfi_offset lr, -4
	.cfi_offset r7, -8
	.pad	#32
	sub	sp, #32
	.cfi_def_cfa_offset 40
	str	r0, [sp, #28]
	str	r1, [sp, #24]
	movs	r0, #0
.Ltmp313:
	.loc	1 711 79 prologue_end           @ packages/cJSON-v1.0.2/cJSON.c:711:79
	str	r0, [sp, #4]                    @ 4-byte Spill
	str	r0, [sp, #16]
	.loc	1 711 84 is_stmt 0              @ packages/cJSON-v1.0.2/cJSON.c:711:84
	str	r0, [sp, #12]
	.loc	1 711 91                        @ packages/cJSON-v1.0.2/cJSON.c:711:91
	bl	cJSON_CreateArray
	mov	r1, r0
	.loc	1 711 89                        @ packages/cJSON-v1.0.2/cJSON.c:711:89
	ldr	r0, [sp, #4]                    @ 4-byte Reload
	str	r1, [sp, #8]
.Ltmp314:
	.loc	1 711 116                       @ packages/cJSON-v1.0.2/cJSON.c:711:116
	str	r0, [sp, #20]
	.loc	1 711 115                       @ packages/cJSON-v1.0.2/cJSON.c:711:115
	b	.LBB42_1
.LBB42_1:                               @ =>This Inner Loop Header: Depth=1
.Ltmp315:
	.loc	1 711 119                       @ packages/cJSON-v1.0.2/cJSON.c:711:119
	ldr	r1, [sp, #8]
	movs	r0, #0
	.loc	1 711 121                       @ packages/cJSON-v1.0.2/cJSON.c:711:121
	str	r0, [sp]                        @ 4-byte Spill
	cbz	r1, .LBB42_3
	b	.LBB42_2
.LBB42_2:                               @   in Loop: Header=BB42_1 Depth=1
	.loc	1 711 124                       @ packages/cJSON-v1.0.2/cJSON.c:711:124
	ldr	r1, [sp, #20]
	.loc	1 711 126                       @ packages/cJSON-v1.0.2/cJSON.c:711:126
	ldr	r2, [sp, #24]
	movs	r0, #0
	.loc	1 711 125                       @ packages/cJSON-v1.0.2/cJSON.c:711:125
	cmp	r1, r2
	it	lt
	movlt	r0, #1
	str	r0, [sp]                        @ 4-byte Spill
	b	.LBB42_3
.LBB42_3:                               @   in Loop: Header=BB42_1 Depth=1
	.loc	1 0 0                           @ packages/cJSON-v1.0.2/cJSON.c:0:0
	ldr	r0, [sp]                        @ 4-byte Reload
.Ltmp316:
	.loc	1 711 111                       @ packages/cJSON-v1.0.2/cJSON.c:711:111
	lsls	r0, r0, #31
	cbz	r0, .LBB42_9
	b	.LBB42_4
.LBB42_4:                               @   in Loop: Header=BB42_1 Depth=1
.Ltmp317:
	.loc	1 711 158                       @ packages/cJSON-v1.0.2/cJSON.c:711:158
	ldr	r0, [sp, #28]
	.loc	1 711 166                       @ packages/cJSON-v1.0.2/cJSON.c:711:166
	ldr	r1, [sp, #20]
	.loc	1 711 158                       @ packages/cJSON-v1.0.2/cJSON.c:711:158
	add.w	r0, r0, r1, lsl #3
	vldr	d0, [r0]
	.loc	1 711 139                       @ packages/cJSON-v1.0.2/cJSON.c:711:139
	bl	cJSON_CreateNumber
	.loc	1 711 138                       @ packages/cJSON-v1.0.2/cJSON.c:711:138
	str	r0, [sp, #16]
.Ltmp318:
	.loc	1 711 174                       @ packages/cJSON-v1.0.2/cJSON.c:711:174
	ldr	r0, [sp, #20]
.Ltmp319:
	.loc	1 711 173                       @ packages/cJSON-v1.0.2/cJSON.c:711:173
	cbnz	r0, .LBB42_6
	b	.LBB42_5
.LBB42_5:                               @   in Loop: Header=BB42_1 Depth=1
.Ltmp320:
	.loc	1 711 185                       @ packages/cJSON-v1.0.2/cJSON.c:711:185
	ldr	r0, [sp, #16]
	.loc	1 711 176                       @ packages/cJSON-v1.0.2/cJSON.c:711:176
	ldr	r1, [sp, #8]
	.loc	1 711 184                       @ packages/cJSON-v1.0.2/cJSON.c:711:184
	str	r0, [r1, #8]
	.loc	1 711 176                       @ packages/cJSON-v1.0.2/cJSON.c:711:176
	b	.LBB42_7
.LBB42_6:                               @   in Loop: Header=BB42_1 Depth=1
	.loc	1 711 206                       @ packages/cJSON-v1.0.2/cJSON.c:711:206
	ldr	r0, [sp, #12]
	.loc	1 711 208                       @ packages/cJSON-v1.0.2/cJSON.c:711:208
	ldr	r1, [sp, #16]
	.loc	1 711 192                       @ packages/cJSON-v1.0.2/cJSON.c:711:192
	bl	suffix_object
	b	.LBB42_7
.Ltmp321:
.LBB42_7:                               @   in Loop: Header=BB42_1 Depth=1
	.loc	1 711 213                       @ packages/cJSON-v1.0.2/cJSON.c:711:213
	ldr	r0, [sp, #16]
	.loc	1 711 212                       @ packages/cJSON-v1.0.2/cJSON.c:711:212
	str	r0, [sp, #12]
	.loc	1 711 215                       @ packages/cJSON-v1.0.2/cJSON.c:711:215
	b	.LBB42_8
.Ltmp322:
.LBB42_8:                               @   in Loop: Header=BB42_1 Depth=1
	.loc	1 711 133                       @ packages/cJSON-v1.0.2/cJSON.c:711:133
	ldr	r0, [sp, #20]
	adds	r0, #1
	str	r0, [sp, #20]
	.loc	1 711 111                       @ packages/cJSON-v1.0.2/cJSON.c:711:111
	b	.LBB42_1
.Ltmp323:
.LBB42_9:
	.loc	1 711 223                       @ packages/cJSON-v1.0.2/cJSON.c:711:223
	ldr	r0, [sp, #8]
	.loc	1 711 216                       @ packages/cJSON-v1.0.2/cJSON.c:711:216
	add	sp, #32
	pop	{r7, pc}
.Ltmp324:
.Lfunc_end42:
	.size	cJSON_CreateDoubleArray, .Lfunc_end42-cJSON_CreateDoubleArray
	.cfi_endproc
	.cantunwind
	.fnend
                                        @ -- End function
	.section	.text.cJSON_CreateStringArray,"ax",%progbits
	.hidden	cJSON_CreateStringArray         @ -- Begin function cJSON_CreateStringArray
	.globl	cJSON_CreateStringArray
	.p2align	3
	.type	cJSON_CreateStringArray,%function
	.code	16                              @ @cJSON_CreateStringArray
	.thumb_func
cJSON_CreateStringArray:
.Lfunc_begin43:
	.loc	1 712 0 is_stmt 1               @ packages/cJSON-v1.0.2/cJSON.c:712:0
	.fnstart
	.cfi_startproc
@ %bb.0:
	.save	{r7, lr}
	push	{r7, lr}
	.cfi_def_cfa_offset 8
	.cfi_offset lr, -4
	.cfi_offset r7, -8
	.pad	#32
	sub	sp, #32
	.cfi_def_cfa_offset 40
	str	r0, [sp, #28]
	str	r1, [sp, #24]
	movs	r0, #0
.Ltmp325:
	.loc	1 712 78 prologue_end           @ packages/cJSON-v1.0.2/cJSON.c:712:78
	str	r0, [sp, #4]                    @ 4-byte Spill
	str	r0, [sp, #16]
	.loc	1 712 83 is_stmt 0              @ packages/cJSON-v1.0.2/cJSON.c:712:83
	str	r0, [sp, #12]
	.loc	1 712 90                        @ packages/cJSON-v1.0.2/cJSON.c:712:90
	bl	cJSON_CreateArray
	mov	r1, r0
	.loc	1 712 88                        @ packages/cJSON-v1.0.2/cJSON.c:712:88
	ldr	r0, [sp, #4]                    @ 4-byte Reload
	str	r1, [sp, #8]
.Ltmp326:
	.loc	1 712 115                       @ packages/cJSON-v1.0.2/cJSON.c:712:115
	str	r0, [sp, #20]
	.loc	1 712 114                       @ packages/cJSON-v1.0.2/cJSON.c:712:114
	b	.LBB43_1
.LBB43_1:                               @ =>This Inner Loop Header: Depth=1
.Ltmp327:
	.loc	1 712 118                       @ packages/cJSON-v1.0.2/cJSON.c:712:118
	ldr	r1, [sp, #8]
	movs	r0, #0
	.loc	1 712 120                       @ packages/cJSON-v1.0.2/cJSON.c:712:120
	str	r0, [sp]                        @ 4-byte Spill
	cbz	r1, .LBB43_3
	b	.LBB43_2
.LBB43_2:                               @   in Loop: Header=BB43_1 Depth=1
	.loc	1 712 123                       @ packages/cJSON-v1.0.2/cJSON.c:712:123
	ldr	r1, [sp, #20]
	.loc	1 712 125                       @ packages/cJSON-v1.0.2/cJSON.c:712:125
	ldr	r2, [sp, #24]
	movs	r0, #0
	.loc	1 712 124                       @ packages/cJSON-v1.0.2/cJSON.c:712:124
	cmp	r1, r2
	it	lt
	movlt	r0, #1
	str	r0, [sp]                        @ 4-byte Spill
	b	.LBB43_3
.LBB43_3:                               @   in Loop: Header=BB43_1 Depth=1
	.loc	1 0 0                           @ packages/cJSON-v1.0.2/cJSON.c:0:0
	ldr	r0, [sp]                        @ 4-byte Reload
.Ltmp328:
	.loc	1 712 110                       @ packages/cJSON-v1.0.2/cJSON.c:712:110
	lsls	r0, r0, #31
	cbz	r0, .LBB43_9
	b	.LBB43_4
.LBB43_4:                               @   in Loop: Header=BB43_1 Depth=1
.Ltmp329:
	.loc	1 712 157                       @ packages/cJSON-v1.0.2/cJSON.c:712:157
	ldr	r0, [sp, #28]
	.loc	1 712 165                       @ packages/cJSON-v1.0.2/cJSON.c:712:165
	ldr	r1, [sp, #20]
	.loc	1 712 157                       @ packages/cJSON-v1.0.2/cJSON.c:712:157
	ldr.w	r0, [r0, r1, lsl #2]
	.loc	1 712 138                       @ packages/cJSON-v1.0.2/cJSON.c:712:138
	bl	cJSON_CreateString
	.loc	1 712 137                       @ packages/cJSON-v1.0.2/cJSON.c:712:137
	str	r0, [sp, #16]
.Ltmp330:
	.loc	1 712 173                       @ packages/cJSON-v1.0.2/cJSON.c:712:173
	ldr	r0, [sp, #20]
.Ltmp331:
	.loc	1 712 172                       @ packages/cJSON-v1.0.2/cJSON.c:712:172
	cbnz	r0, .LBB43_6
	b	.LBB43_5
.LBB43_5:                               @   in Loop: Header=BB43_1 Depth=1
.Ltmp332:
	.loc	1 712 184                       @ packages/cJSON-v1.0.2/cJSON.c:712:184
	ldr	r0, [sp, #16]
	.loc	1 712 175                       @ packages/cJSON-v1.0.2/cJSON.c:712:175
	ldr	r1, [sp, #8]
	.loc	1 712 183                       @ packages/cJSON-v1.0.2/cJSON.c:712:183
	str	r0, [r1, #8]
	.loc	1 712 175                       @ packages/cJSON-v1.0.2/cJSON.c:712:175
	b	.LBB43_7
.LBB43_6:                               @   in Loop: Header=BB43_1 Depth=1
	.loc	1 712 205                       @ packages/cJSON-v1.0.2/cJSON.c:712:205
	ldr	r0, [sp, #12]
	.loc	1 712 207                       @ packages/cJSON-v1.0.2/cJSON.c:712:207
	ldr	r1, [sp, #16]
	.loc	1 712 191                       @ packages/cJSON-v1.0.2/cJSON.c:712:191
	bl	suffix_object
	b	.LBB43_7
.Ltmp333:
.LBB43_7:                               @   in Loop: Header=BB43_1 Depth=1
	.loc	1 712 212                       @ packages/cJSON-v1.0.2/cJSON.c:712:212
	ldr	r0, [sp, #16]
	.loc	1 712 211                       @ packages/cJSON-v1.0.2/cJSON.c:712:211
	str	r0, [sp, #12]
	.loc	1 712 214                       @ packages/cJSON-v1.0.2/cJSON.c:712:214
	b	.LBB43_8
.Ltmp334:
.LBB43_8:                               @   in Loop: Header=BB43_1 Depth=1
	.loc	1 712 132                       @ packages/cJSON-v1.0.2/cJSON.c:712:132
	ldr	r0, [sp, #20]
	adds	r0, #1
	str	r0, [sp, #20]
	.loc	1 712 110                       @ packages/cJSON-v1.0.2/cJSON.c:712:110
	b	.LBB43_1
.Ltmp335:
.LBB43_9:
	.loc	1 712 222                       @ packages/cJSON-v1.0.2/cJSON.c:712:222
	ldr	r0, [sp, #8]
	.loc	1 712 215                       @ packages/cJSON-v1.0.2/cJSON.c:712:215
	add	sp, #32
	pop	{r7, pc}
.Ltmp336:
.Lfunc_end43:
	.size	cJSON_CreateStringArray, .Lfunc_end43-cJSON_CreateStringArray
	.cfi_endproc
	.cantunwind
	.fnend
                                        @ -- End function
	.section	.text.cJSON_Duplicate,"ax",%progbits
	.hidden	cJSON_Duplicate                 @ -- Begin function cJSON_Duplicate
	.globl	cJSON_Duplicate
	.p2align	3
	.type	cJSON_Duplicate,%function
	.code	16                              @ @cJSON_Duplicate
	.thumb_func
cJSON_Duplicate:
.Lfunc_begin44:
	.loc	1 716 0 is_stmt 1               @ packages/cJSON-v1.0.2/cJSON.c:716:0
	.fnstart
	.cfi_startproc
@ %bb.0:
	.save	{r7, lr}
	push	{r7, lr}
	.cfi_def_cfa_offset 8
	.cfi_offset lr, -4
	.cfi_offset r7, -8
	.pad	#32
	sub	sp, #32
	.cfi_def_cfa_offset 40
	str	r0, [sp, #24]
	str	r1, [sp, #20]
	movs	r0, #0
.Ltmp337:
	.loc	1 717 24 prologue_end           @ packages/cJSON-v1.0.2/cJSON.c:717:24
	str	r0, [sp, #8]
.Ltmp338:
	.loc	1 719 7                         @ packages/cJSON-v1.0.2/cJSON.c:719:7
	ldr	r0, [sp, #24]
.Ltmp339:
	.loc	1 719 6 is_stmt 0               @ packages/cJSON-v1.0.2/cJSON.c:719:6
	cbnz	r0, .LBB44_2
	b	.LBB44_1
.LBB44_1:
	.loc	1 0 6                           @ packages/cJSON-v1.0.2/cJSON.c:0:6
	movs	r0, #0
.Ltmp340:
	.loc	1 719 13                        @ packages/cJSON-v1.0.2/cJSON.c:719:13
	str	r0, [sp, #28]
	b	.LBB44_23
.Ltmp341:
.LBB44_2:
	.loc	1 721 10 is_stmt 1              @ packages/cJSON-v1.0.2/cJSON.c:721:10
	bl	cJSON_New_Item
	.loc	1 721 9 is_stmt 0               @ packages/cJSON-v1.0.2/cJSON.c:721:9
	str	r0, [sp, #16]
.Ltmp342:
	.loc	1 722 7 is_stmt 1               @ packages/cJSON-v1.0.2/cJSON.c:722:7
	ldr	r0, [sp, #16]
.Ltmp343:
	.loc	1 722 6 is_stmt 0               @ packages/cJSON-v1.0.2/cJSON.c:722:6
	cbnz	r0, .LBB44_4
	b	.LBB44_3
.LBB44_3:
	.loc	1 0 6                           @ packages/cJSON-v1.0.2/cJSON.c:0:6
	movs	r0, #0
.Ltmp344:
	.loc	1 722 16                        @ packages/cJSON-v1.0.2/cJSON.c:722:16
	str	r0, [sp, #28]
	b	.LBB44_23
.Ltmp345:
.LBB44_4:
	.loc	1 724 16 is_stmt 1              @ packages/cJSON-v1.0.2/cJSON.c:724:16
	ldr	r0, [sp, #24]
	.loc	1 724 22 is_stmt 0              @ packages/cJSON-v1.0.2/cJSON.c:724:22
	ldr	r0, [r0, #12]
	.loc	1 724 26                        @ packages/cJSON-v1.0.2/cJSON.c:724:26
	bic	r0, r0, #256
	.loc	1 724 2                         @ packages/cJSON-v1.0.2/cJSON.c:724:2
	ldr	r1, [sp, #16]
	.loc	1 724 15                        @ packages/cJSON-v1.0.2/cJSON.c:724:15
	str	r0, [r1, #12]
	.loc	1 724 66                        @ packages/cJSON-v1.0.2/cJSON.c:724:66
	ldr	r0, [sp, #24]
	.loc	1 724 72                        @ packages/cJSON-v1.0.2/cJSON.c:724:72
	ldr	r0, [r0, #20]
	.loc	1 724 48                        @ packages/cJSON-v1.0.2/cJSON.c:724:48
	ldr	r1, [sp, #16]
	.loc	1 724 65                        @ packages/cJSON-v1.0.2/cJSON.c:724:65
	str	r0, [r1, #20]
	.loc	1 724 102                       @ packages/cJSON-v1.0.2/cJSON.c:724:102
	ldr	r0, [sp, #24]
	.loc	1 724 108                       @ packages/cJSON-v1.0.2/cJSON.c:724:108
	vldr	d0, [r0, #24]
	.loc	1 724 81                        @ packages/cJSON-v1.0.2/cJSON.c:724:81
	ldr	r0, [sp, #16]
	.loc	1 724 101                       @ packages/cJSON-v1.0.2/cJSON.c:724:101
	vstr	d0, [r0, #24]
.Ltmp346:
	.loc	1 725 6 is_stmt 1               @ packages/cJSON-v1.0.2/cJSON.c:725:6
	ldr	r0, [sp, #24]
	.loc	1 725 12 is_stmt 0              @ packages/cJSON-v1.0.2/cJSON.c:725:12
	ldr	r0, [r0, #16]
.Ltmp347:
	.loc	1 725 6                         @ packages/cJSON-v1.0.2/cJSON.c:725:6
	cbz	r0, .LBB44_8
	b	.LBB44_5
.LBB44_5:
.Ltmp348:
	.loc	1 725 60                        @ packages/cJSON-v1.0.2/cJSON.c:725:60
	ldr	r0, [sp, #24]
	.loc	1 725 66                        @ packages/cJSON-v1.0.2/cJSON.c:725:66
	ldr	r0, [r0, #16]
	.loc	1 725 47                        @ packages/cJSON-v1.0.2/cJSON.c:725:47
	bl	cJSON_strdup
	.loc	1 725 26                        @ packages/cJSON-v1.0.2/cJSON.c:725:26
	ldr	r1, [sp, #16]
	.loc	1 725 46                        @ packages/cJSON-v1.0.2/cJSON.c:725:46
	str	r0, [r1, #16]
.Ltmp349:
	.loc	1 725 85                        @ packages/cJSON-v1.0.2/cJSON.c:725:85
	ldr	r0, [sp, #16]
	.loc	1 725 94                        @ packages/cJSON-v1.0.2/cJSON.c:725:94
	ldr	r0, [r0, #16]
.Ltmp350:
	.loc	1 725 84                        @ packages/cJSON-v1.0.2/cJSON.c:725:84
	cbnz	r0, .LBB44_7
	b	.LBB44_6
.LBB44_6:
.Ltmp351:
	.loc	1 725 121                       @ packages/cJSON-v1.0.2/cJSON.c:725:121
	ldr	r0, [sp, #16]
	.loc	1 725 108                       @ packages/cJSON-v1.0.2/cJSON.c:725:108
	bl	cJSON_Delete
	movs	r0, #0
	.loc	1 725 130                       @ packages/cJSON-v1.0.2/cJSON.c:725:130
	str	r0, [sp, #28]
	b	.LBB44_23
.Ltmp352:
.LBB44_7:
	.loc	1 725 140                       @ packages/cJSON-v1.0.2/cJSON.c:725:140
	b	.LBB44_8
.Ltmp353:
.LBB44_8:
	.loc	1 726 6 is_stmt 1               @ packages/cJSON-v1.0.2/cJSON.c:726:6
	ldr	r0, [sp, #24]
	.loc	1 726 12 is_stmt 0              @ packages/cJSON-v1.0.2/cJSON.c:726:12
	ldr	r0, [r0, #32]
.Ltmp354:
	.loc	1 726 6                         @ packages/cJSON-v1.0.2/cJSON.c:726:6
	cbz	r0, .LBB44_12
	b	.LBB44_9
.LBB44_9:
.Ltmp355:
	.loc	1 726 51                        @ packages/cJSON-v1.0.2/cJSON.c:726:51
	ldr	r0, [sp, #24]
	.loc	1 726 57                        @ packages/cJSON-v1.0.2/cJSON.c:726:57
	ldr	r0, [r0, #32]
	.loc	1 726 38                        @ packages/cJSON-v1.0.2/cJSON.c:726:38
	bl	cJSON_strdup
	.loc	1 726 22                        @ packages/cJSON-v1.0.2/cJSON.c:726:22
	ldr	r1, [sp, #16]
	.loc	1 726 37                        @ packages/cJSON-v1.0.2/cJSON.c:726:37
	str	r0, [r1, #32]
.Ltmp356:
	.loc	1 726 73                        @ packages/cJSON-v1.0.2/cJSON.c:726:73
	ldr	r0, [sp, #16]
	.loc	1 726 82                        @ packages/cJSON-v1.0.2/cJSON.c:726:82
	ldr	r0, [r0, #32]
.Ltmp357:
	.loc	1 726 72                        @ packages/cJSON-v1.0.2/cJSON.c:726:72
	cbnz	r0, .LBB44_11
	b	.LBB44_10
.LBB44_10:
.Ltmp358:
	.loc	1 726 105                       @ packages/cJSON-v1.0.2/cJSON.c:726:105
	ldr	r0, [sp, #16]
	.loc	1 726 92                        @ packages/cJSON-v1.0.2/cJSON.c:726:92
	bl	cJSON_Delete
	movs	r0, #0
	.loc	1 726 114                       @ packages/cJSON-v1.0.2/cJSON.c:726:114
	str	r0, [sp, #28]
	b	.LBB44_23
.Ltmp359:
.LBB44_11:
	.loc	1 726 124                       @ packages/cJSON-v1.0.2/cJSON.c:726:124
	b	.LBB44_12
.Ltmp360:
.LBB44_12:
	.loc	1 728 7 is_stmt 1               @ packages/cJSON-v1.0.2/cJSON.c:728:7
	ldr	r0, [sp, #20]
.Ltmp361:
	.loc	1 728 6 is_stmt 0               @ packages/cJSON-v1.0.2/cJSON.c:728:6
	cbnz	r0, .LBB44_14
	b	.LBB44_13
.LBB44_13:
.Ltmp362:
	.loc	1 728 23                        @ packages/cJSON-v1.0.2/cJSON.c:728:23
	ldr	r0, [sp, #16]
	.loc	1 728 16                        @ packages/cJSON-v1.0.2/cJSON.c:728:16
	str	r0, [sp, #28]
	b	.LBB44_23
.Ltmp363:
.LBB44_14:
	.loc	1 730 7 is_stmt 1               @ packages/cJSON-v1.0.2/cJSON.c:730:7
	ldr	r0, [sp, #24]
	.loc	1 730 13 is_stmt 0              @ packages/cJSON-v1.0.2/cJSON.c:730:13
	ldr	r0, [r0, #8]
	.loc	1 730 6                         @ packages/cJSON-v1.0.2/cJSON.c:730:6
	str	r0, [sp, #12]
	.loc	1 731 2 is_stmt 1               @ packages/cJSON-v1.0.2/cJSON.c:731:2
	b	.LBB44_15
.LBB44_15:                              @ =>This Inner Loop Header: Depth=1
	.loc	1 731 9 is_stmt 0               @ packages/cJSON-v1.0.2/cJSON.c:731:9
	ldr	r0, [sp, #12]
	.loc	1 731 2                         @ packages/cJSON-v1.0.2/cJSON.c:731:2
	cbz	r0, .LBB44_22
	b	.LBB44_16
.LBB44_16:                              @   in Loop: Header=BB44_15 Depth=1
.Ltmp364:
	.loc	1 733 28 is_stmt 1              @ packages/cJSON-v1.0.2/cJSON.c:733:28
	ldr	r0, [sp, #12]
	movs	r1, #1
	.loc	1 733 12 is_stmt 0              @ packages/cJSON-v1.0.2/cJSON.c:733:12
	bl	cJSON_Duplicate
	.loc	1 733 11                        @ packages/cJSON-v1.0.2/cJSON.c:733:11
	str	r0, [sp, #4]
.Ltmp365:
	.loc	1 734 8 is_stmt 1               @ packages/cJSON-v1.0.2/cJSON.c:734:8
	ldr	r0, [sp, #4]
.Ltmp366:
	.loc	1 734 7 is_stmt 0               @ packages/cJSON-v1.0.2/cJSON.c:734:7
	cbnz	r0, .LBB44_18
	b	.LBB44_17
.LBB44_17:
.Ltmp367:
	.loc	1 734 32                        @ packages/cJSON-v1.0.2/cJSON.c:734:32
	ldr	r0, [sp, #16]
	.loc	1 734 19                        @ packages/cJSON-v1.0.2/cJSON.c:734:19
	bl	cJSON_Delete
	movs	r0, #0
	.loc	1 734 41                        @ packages/cJSON-v1.0.2/cJSON.c:734:41
	str	r0, [sp, #28]
	b	.LBB44_23
.Ltmp368:
.LBB44_18:                              @   in Loop: Header=BB44_15 Depth=1
	.loc	1 735 7 is_stmt 1               @ packages/cJSON-v1.0.2/cJSON.c:735:7
	ldr	r0, [sp, #8]
.Ltmp369:
	.loc	1 735 7 is_stmt 0               @ packages/cJSON-v1.0.2/cJSON.c:735:7
	cbz	r0, .LBB44_20
	b	.LBB44_19
.LBB44_19:                              @   in Loop: Header=BB44_15 Depth=1
.Ltmp370:
	.loc	1 735 25                        @ packages/cJSON-v1.0.2/cJSON.c:735:25
	ldr	r0, [sp, #4]
	.loc	1 735 14                        @ packages/cJSON-v1.0.2/cJSON.c:735:14
	ldr	r1, [sp, #8]
	.loc	1 735 24                        @ packages/cJSON-v1.0.2/cJSON.c:735:24
	str	r0, [r1]
	.loc	1 735 49                        @ packages/cJSON-v1.0.2/cJSON.c:735:49
	ldr	r0, [sp, #8]
	.loc	1 735 34                        @ packages/cJSON-v1.0.2/cJSON.c:735:34
	ldr	r1, [sp, #4]
	.loc	1 735 48                        @ packages/cJSON-v1.0.2/cJSON.c:735:48
	str	r0, [r1, #4]
	.loc	1 735 59                        @ packages/cJSON-v1.0.2/cJSON.c:735:59
	ldr	r0, [sp, #4]
	.loc	1 735 58                        @ packages/cJSON-v1.0.2/cJSON.c:735:58
	str	r0, [sp, #8]
	.loc	1 735 68                        @ packages/cJSON-v1.0.2/cJSON.c:735:68
	b	.LBB44_21
.Ltmp371:
.LBB44_20:                              @   in Loop: Header=BB44_15 Depth=1
	.loc	1 736 25 is_stmt 1              @ packages/cJSON-v1.0.2/cJSON.c:736:25
	ldr	r0, [sp, #4]
	.loc	1 736 10 is_stmt 0              @ packages/cJSON-v1.0.2/cJSON.c:736:10
	ldr	r1, [sp, #16]
	.loc	1 736 24                        @ packages/cJSON-v1.0.2/cJSON.c:736:24
	str	r0, [r1, #8]
	.loc	1 736 39                        @ packages/cJSON-v1.0.2/cJSON.c:736:39
	ldr	r0, [sp, #4]
	.loc	1 736 38                        @ packages/cJSON-v1.0.2/cJSON.c:736:38
	str	r0, [sp, #8]
	b	.LBB44_21
.Ltmp372:
.LBB44_21:                              @   in Loop: Header=BB44_15 Depth=1
	.loc	1 737 8 is_stmt 1               @ packages/cJSON-v1.0.2/cJSON.c:737:8
	ldr	r0, [sp, #12]
	.loc	1 737 14 is_stmt 0              @ packages/cJSON-v1.0.2/cJSON.c:737:14
	ldr	r0, [r0]
	.loc	1 737 7                         @ packages/cJSON-v1.0.2/cJSON.c:737:7
	str	r0, [sp, #12]
.Ltmp373:
	.loc	1 731 2 is_stmt 1               @ packages/cJSON-v1.0.2/cJSON.c:731:2
	b	.LBB44_15
.LBB44_22:
	.loc	1 739 9                         @ packages/cJSON-v1.0.2/cJSON.c:739:9
	ldr	r0, [sp, #16]
	.loc	1 739 2 is_stmt 0               @ packages/cJSON-v1.0.2/cJSON.c:739:2
	str	r0, [sp, #28]
	b	.LBB44_23
.LBB44_23:
	.loc	1 740 1 is_stmt 1               @ packages/cJSON-v1.0.2/cJSON.c:740:1
	ldr	r0, [sp, #28]
	add	sp, #32
	pop	{r7, pc}
.Ltmp374:
.Lfunc_end44:
	.size	cJSON_Duplicate, .Lfunc_end44-cJSON_Duplicate
	.cfi_endproc
	.cantunwind
	.fnend
                                        @ -- End function
	.section	.text.cJSON_Minify,"ax",%progbits
	.hidden	cJSON_Minify                    @ -- Begin function cJSON_Minify
	.globl	cJSON_Minify
	.p2align	3
	.type	cJSON_Minify,%function
	.code	16                              @ @cJSON_Minify
	.thumb_func
cJSON_Minify:
.Lfunc_begin45:
	.loc	1 743 0                         @ packages/cJSON-v1.0.2/cJSON.c:743:0
	.fnstart
	.cfi_startproc
@ %bb.0:
	.pad	#24
	sub	sp, #24
	.cfi_def_cfa_offset 24
	str	r0, [sp, #20]
.Ltmp375:
	.loc	1 744 13 prologue_end           @ packages/cJSON-v1.0.2/cJSON.c:744:13
	ldr	r0, [sp, #20]
	.loc	1 744 8 is_stmt 0               @ packages/cJSON-v1.0.2/cJSON.c:744:8
	str	r0, [sp, #16]
	.loc	1 745 2 is_stmt 1               @ packages/cJSON-v1.0.2/cJSON.c:745:2
	b	.LBB45_1
.LBB45_1:                               @ =>This Loop Header: Depth=1
                                        @     Child Loop BB45_30 Depth 2
                                        @     Child Loop BB45_21 Depth 2
                                        @     Child Loop BB45_13 Depth 2
	.loc	1 745 10 is_stmt 0              @ packages/cJSON-v1.0.2/cJSON.c:745:10
	ldr	r0, [sp, #20]
	.loc	1 745 9                         @ packages/cJSON-v1.0.2/cJSON.c:745:9
	ldrb	r0, [r0]
	.loc	1 745 2                         @ packages/cJSON-v1.0.2/cJSON.c:745:2
	cmp	r0, #0
	beq.w	.LBB45_45
	b	.LBB45_2
.LBB45_2:                               @   in Loop: Header=BB45_1 Depth=1
.Ltmp376:
	.loc	1 747 8 is_stmt 1               @ packages/cJSON-v1.0.2/cJSON.c:747:8
	ldr	r0, [sp, #20]
	.loc	1 747 7 is_stmt 0               @ packages/cJSON-v1.0.2/cJSON.c:747:7
	ldrsb.w	r0, [r0]
.Ltmp377:
	.loc	1 747 7                         @ packages/cJSON-v1.0.2/cJSON.c:747:7
	cmp	r0, #32
	bne	.LBB45_4
	b	.LBB45_3
.LBB45_3:                               @   in Loop: Header=BB45_1 Depth=1
.Ltmp378:
	.loc	1 747 23                        @ packages/cJSON-v1.0.2/cJSON.c:747:23
	ldr	r0, [sp, #20]
	adds	r0, #1
	str	r0, [sp, #20]
	.loc	1 747 19                        @ packages/cJSON-v1.0.2/cJSON.c:747:19
	b	.LBB45_44
.LBB45_4:                               @   in Loop: Header=BB45_1 Depth=1
.Ltmp379:
	.loc	1 748 13 is_stmt 1              @ packages/cJSON-v1.0.2/cJSON.c:748:13
	ldr	r0, [sp, #20]
	.loc	1 748 12 is_stmt 0              @ packages/cJSON-v1.0.2/cJSON.c:748:12
	ldrsb.w	r0, [r0]
.Ltmp380:
	.loc	1 748 12                        @ packages/cJSON-v1.0.2/cJSON.c:748:12
	cmp	r0, #9
	bne	.LBB45_6
	b	.LBB45_5
.LBB45_5:                               @   in Loop: Header=BB45_1 Depth=1
.Ltmp381:
	.loc	1 748 29                        @ packages/cJSON-v1.0.2/cJSON.c:748:29
	ldr	r0, [sp, #20]
	adds	r0, #1
	str	r0, [sp, #20]
	.loc	1 748 25                        @ packages/cJSON-v1.0.2/cJSON.c:748:25
	b	.LBB45_43
.LBB45_6:                               @   in Loop: Header=BB45_1 Depth=1
.Ltmp382:
	.loc	1 749 13 is_stmt 1              @ packages/cJSON-v1.0.2/cJSON.c:749:13
	ldr	r0, [sp, #20]
	.loc	1 749 12 is_stmt 0              @ packages/cJSON-v1.0.2/cJSON.c:749:12
	ldrsb.w	r0, [r0]
.Ltmp383:
	.loc	1 749 12                        @ packages/cJSON-v1.0.2/cJSON.c:749:12
	cmp	r0, #13
	bne	.LBB45_8
	b	.LBB45_7
.LBB45_7:                               @   in Loop: Header=BB45_1 Depth=1
.Ltmp384:
	.loc	1 749 29                        @ packages/cJSON-v1.0.2/cJSON.c:749:29
	ldr	r0, [sp, #20]
	adds	r0, #1
	str	r0, [sp, #20]
	.loc	1 749 25                        @ packages/cJSON-v1.0.2/cJSON.c:749:25
	b	.LBB45_42
.LBB45_8:                               @   in Loop: Header=BB45_1 Depth=1
.Ltmp385:
	.loc	1 750 13 is_stmt 1              @ packages/cJSON-v1.0.2/cJSON.c:750:13
	ldr	r0, [sp, #20]
	.loc	1 750 12 is_stmt 0              @ packages/cJSON-v1.0.2/cJSON.c:750:12
	ldrsb.w	r0, [r0]
.Ltmp386:
	.loc	1 750 12                        @ packages/cJSON-v1.0.2/cJSON.c:750:12
	cmp	r0, #10
	bne	.LBB45_10
	b	.LBB45_9
.LBB45_9:                               @   in Loop: Header=BB45_1 Depth=1
.Ltmp387:
	.loc	1 750 29                        @ packages/cJSON-v1.0.2/cJSON.c:750:29
	ldr	r0, [sp, #20]
	adds	r0, #1
	str	r0, [sp, #20]
	.loc	1 750 25                        @ packages/cJSON-v1.0.2/cJSON.c:750:25
	b	.LBB45_41
.LBB45_10:                              @   in Loop: Header=BB45_1 Depth=1
.Ltmp388:
	.loc	1 751 13 is_stmt 1              @ packages/cJSON-v1.0.2/cJSON.c:751:13
	ldr	r0, [sp, #20]
	.loc	1 751 12 is_stmt 0              @ packages/cJSON-v1.0.2/cJSON.c:751:12
	ldrsb.w	r0, [r0]
	.loc	1 751 23                        @ packages/cJSON-v1.0.2/cJSON.c:751:23
	cmp	r0, #47
	bne	.LBB45_18
	b	.LBB45_11
.LBB45_11:                              @   in Loop: Header=BB45_1 Depth=1
	.loc	1 751 26                        @ packages/cJSON-v1.0.2/cJSON.c:751:26
	ldr	r0, [sp, #20]
	ldrsb.w	r0, [r0, #1]
.Ltmp389:
	.loc	1 751 12                        @ packages/cJSON-v1.0.2/cJSON.c:751:12
	cmp	r0, #47
	bne	.LBB45_18
	b	.LBB45_12
.LBB45_12:                              @   in Loop: Header=BB45_1 Depth=1
.Ltmp390:
	.loc	1 751 41                        @ packages/cJSON-v1.0.2/cJSON.c:751:41
	b	.LBB45_13
.LBB45_13:                              @   Parent Loop BB45_1 Depth=1
                                        @ =>  This Inner Loop Header: Depth=2
	.loc	1 751 49                        @ packages/cJSON-v1.0.2/cJSON.c:751:49
	ldr	r0, [sp, #20]
	.loc	1 751 48                        @ packages/cJSON-v1.0.2/cJSON.c:751:48
	ldrsb.w	r1, [r0]
	movs	r0, #0
	.loc	1 751 54                        @ packages/cJSON-v1.0.2/cJSON.c:751:54
	str	r0, [sp, #12]                   @ 4-byte Spill
	cbz	r1, .LBB45_15
	b	.LBB45_14
.LBB45_14:                              @   in Loop: Header=BB45_13 Depth=2
	.loc	1 751 58                        @ packages/cJSON-v1.0.2/cJSON.c:751:58
	ldr	r0, [sp, #20]
	.loc	1 751 57                        @ packages/cJSON-v1.0.2/cJSON.c:751:57
	ldrsb.w	r0, [r0]
	.loc	1 751 62                        @ packages/cJSON-v1.0.2/cJSON.c:751:62
	subs	r0, #10
	it	ne
	movne	r0, #1
	str	r0, [sp, #12]                   @ 4-byte Spill
	b	.LBB45_15
.LBB45_15:                              @   in Loop: Header=BB45_13 Depth=2
	.loc	1 0 0                           @ packages/cJSON-v1.0.2/cJSON.c:0:0
	ldr	r0, [sp, #12]                   @ 4-byte Reload
	.loc	1 751 41                        @ packages/cJSON-v1.0.2/cJSON.c:751:41
	lsls	r0, r0, #31
	cbz	r0, .LBB45_17
	b	.LBB45_16
.LBB45_16:                              @   in Loop: Header=BB45_13 Depth=2
	.loc	1 751 74                        @ packages/cJSON-v1.0.2/cJSON.c:751:74
	ldr	r0, [sp, #20]
	adds	r0, #1
	str	r0, [sp, #20]
	.loc	1 751 41                        @ packages/cJSON-v1.0.2/cJSON.c:751:41
	b	.LBB45_13
.LBB45_17:                              @   in Loop: Header=BB45_1 Depth=1
	b	.LBB45_40
.LBB45_18:                              @   in Loop: Header=BB45_1 Depth=1
.Ltmp391:
	.loc	1 752 13 is_stmt 1              @ packages/cJSON-v1.0.2/cJSON.c:752:13
	ldr	r0, [sp, #20]
	.loc	1 752 12 is_stmt 0              @ packages/cJSON-v1.0.2/cJSON.c:752:12
	ldrsb.w	r0, [r0]
	.loc	1 752 23                        @ packages/cJSON-v1.0.2/cJSON.c:752:23
	cmp	r0, #47
	bne	.LBB45_28
	b	.LBB45_19
.LBB45_19:                              @   in Loop: Header=BB45_1 Depth=1
	.loc	1 752 26                        @ packages/cJSON-v1.0.2/cJSON.c:752:26
	ldr	r0, [sp, #20]
	ldrsb.w	r0, [r0, #1]
.Ltmp392:
	.loc	1 752 12                        @ packages/cJSON-v1.0.2/cJSON.c:752:12
	cmp	r0, #42
	bne	.LBB45_28
	b	.LBB45_20
.LBB45_20:                              @   in Loop: Header=BB45_1 Depth=1
.Ltmp393:
	.loc	1 752 41                        @ packages/cJSON-v1.0.2/cJSON.c:752:41
	b	.LBB45_21
.LBB45_21:                              @   Parent Loop BB45_1 Depth=1
                                        @ =>  This Inner Loop Header: Depth=2
	.loc	1 752 49                        @ packages/cJSON-v1.0.2/cJSON.c:752:49
	ldr	r0, [sp, #20]
	.loc	1 752 48                        @ packages/cJSON-v1.0.2/cJSON.c:752:48
	ldrsb.w	r1, [r0]
	movs	r0, #0
	.loc	1 752 54                        @ packages/cJSON-v1.0.2/cJSON.c:752:54
	str	r0, [sp, #8]                    @ 4-byte Spill
	cbz	r1, .LBB45_25
	b	.LBB45_22
.LBB45_22:                              @   in Loop: Header=BB45_21 Depth=2
	.loc	1 752 60                        @ packages/cJSON-v1.0.2/cJSON.c:752:60
	ldr	r0, [sp, #20]
	.loc	1 752 59                        @ packages/cJSON-v1.0.2/cJSON.c:752:59
	ldrsb.w	r1, [r0]
	movs	r0, #0
	.loc	1 752 70                        @ packages/cJSON-v1.0.2/cJSON.c:752:70
	cmp	r1, #42
	str	r0, [sp, #4]                    @ 4-byte Spill
	bne	.LBB45_24
	b	.LBB45_23
.LBB45_23:                              @   in Loop: Header=BB45_21 Depth=2
	.loc	1 752 73                        @ packages/cJSON-v1.0.2/cJSON.c:752:73
	ldr	r0, [sp, #20]
	ldrsb.w	r0, [r0, #1]
	.loc	1 752 80                        @ packages/cJSON-v1.0.2/cJSON.c:752:80
	subs	r0, #47
	clz	r0, r0
	lsrs	r0, r0, #5
	str	r0, [sp, #4]                    @ 4-byte Spill
	b	.LBB45_24
.LBB45_24:                              @   in Loop: Header=BB45_21 Depth=2
	.loc	1 0 0                           @ packages/cJSON-v1.0.2/cJSON.c:0:0
	ldr	r0, [sp, #4]                    @ 4-byte Reload
	.loc	1 752 57                        @ packages/cJSON-v1.0.2/cJSON.c:752:57
	eor	r0, r0, #1
	str	r0, [sp, #8]                    @ 4-byte Spill
	b	.LBB45_25
.LBB45_25:                              @   in Loop: Header=BB45_21 Depth=2
	.loc	1 0 0                           @ packages/cJSON-v1.0.2/cJSON.c:0:0
	ldr	r0, [sp, #8]                    @ 4-byte Reload
	.loc	1 752 41                        @ packages/cJSON-v1.0.2/cJSON.c:752:41
	lsls	r0, r0, #31
	cbz	r0, .LBB45_27
	b	.LBB45_26
.LBB45_26:                              @   in Loop: Header=BB45_21 Depth=2
	.loc	1 752 92                        @ packages/cJSON-v1.0.2/cJSON.c:752:92
	ldr	r0, [sp, #20]
	adds	r0, #1
	str	r0, [sp, #20]
	.loc	1 752 41                        @ packages/cJSON-v1.0.2/cJSON.c:752:41
	b	.LBB45_21
.LBB45_27:                              @   in Loop: Header=BB45_1 Depth=1
	.loc	1 752 99                        @ packages/cJSON-v1.0.2/cJSON.c:752:99
	ldr	r0, [sp, #20]
	adds	r0, #2
	str	r0, [sp, #20]
	.loc	1 752 103                       @ packages/cJSON-v1.0.2/cJSON.c:752:103
	b	.LBB45_39
.Ltmp394:
.LBB45_28:                              @   in Loop: Header=BB45_1 Depth=1
	.loc	1 753 13 is_stmt 1              @ packages/cJSON-v1.0.2/cJSON.c:753:13
	ldr	r0, [sp, #20]
	.loc	1 753 12 is_stmt 0              @ packages/cJSON-v1.0.2/cJSON.c:753:12
	ldrsb.w	r0, [r0]
.Ltmp395:
	.loc	1 753 12                        @ packages/cJSON-v1.0.2/cJSON.c:753:12
	cmp	r0, #34
	bne	.LBB45_37
	b	.LBB45_29
.LBB45_29:                              @   in Loop: Header=BB45_1 Depth=1
.Ltmp396:
	.loc	1 753 38                        @ packages/cJSON-v1.0.2/cJSON.c:753:38
	ldr	r0, [sp, #20]
	adds	r1, r0, #1
	str	r1, [sp, #20]
	.loc	1 753 33                        @ packages/cJSON-v1.0.2/cJSON.c:753:33
	ldrb	r0, [r0]
	.loc	1 753 30                        @ packages/cJSON-v1.0.2/cJSON.c:753:30
	ldr	r1, [sp, #16]
	adds	r2, r1, #1
	str	r2, [sp, #16]
	.loc	1 753 32                        @ packages/cJSON-v1.0.2/cJSON.c:753:32
	strb	r0, [r1]
	.loc	1 753 41                        @ packages/cJSON-v1.0.2/cJSON.c:753:41
	b	.LBB45_30
.LBB45_30:                              @   Parent Loop BB45_1 Depth=1
                                        @ =>  This Inner Loop Header: Depth=2
	.loc	1 753 49                        @ packages/cJSON-v1.0.2/cJSON.c:753:49
	ldr	r0, [sp, #20]
	.loc	1 753 48                        @ packages/cJSON-v1.0.2/cJSON.c:753:48
	ldrsb.w	r1, [r0]
	movs	r0, #0
	.loc	1 753 54                        @ packages/cJSON-v1.0.2/cJSON.c:753:54
	str	r0, [sp]                        @ 4-byte Spill
	cbz	r1, .LBB45_32
	b	.LBB45_31
.LBB45_31:                              @   in Loop: Header=BB45_30 Depth=2
	.loc	1 753 58                        @ packages/cJSON-v1.0.2/cJSON.c:753:58
	ldr	r0, [sp, #20]
	.loc	1 753 57                        @ packages/cJSON-v1.0.2/cJSON.c:753:57
	ldrsb.w	r0, [r0]
	.loc	1 753 62                        @ packages/cJSON-v1.0.2/cJSON.c:753:62
	subs	r0, #34
	it	ne
	movne	r0, #1
	str	r0, [sp]                        @ 4-byte Spill
	b	.LBB45_32
.LBB45_32:                              @   in Loop: Header=BB45_30 Depth=2
	.loc	1 0 0                           @ packages/cJSON-v1.0.2/cJSON.c:0:0
	ldr	r0, [sp]                        @ 4-byte Reload
	.loc	1 753 41                        @ packages/cJSON-v1.0.2/cJSON.c:753:41
	lsls	r0, r0, #31
	cbz	r0, .LBB45_36
	b	.LBB45_33
.LBB45_33:                              @   in Loop: Header=BB45_30 Depth=2
.Ltmp397:
	.loc	1 753 75                        @ packages/cJSON-v1.0.2/cJSON.c:753:75
	ldr	r0, [sp, #20]
	.loc	1 753 74                        @ packages/cJSON-v1.0.2/cJSON.c:753:74
	ldrsb.w	r0, [r0]
.Ltmp398:
	.loc	1 753 74                        @ packages/cJSON-v1.0.2/cJSON.c:753:74
	cmp	r0, #92
	bne	.LBB45_35
	b	.LBB45_34
.LBB45_34:                              @   in Loop: Header=BB45_30 Depth=2
.Ltmp399:
	.loc	1 753 100                       @ packages/cJSON-v1.0.2/cJSON.c:753:100
	ldr	r0, [sp, #20]
	adds	r1, r0, #1
	str	r1, [sp, #20]
	.loc	1 753 95                        @ packages/cJSON-v1.0.2/cJSON.c:753:95
	ldrb	r0, [r0]
	.loc	1 753 92                        @ packages/cJSON-v1.0.2/cJSON.c:753:92
	ldr	r1, [sp, #16]
	adds	r2, r1, #1
	str	r2, [sp, #16]
	.loc	1 753 94                        @ packages/cJSON-v1.0.2/cJSON.c:753:94
	strb	r0, [r1]
	.loc	1 753 87                        @ packages/cJSON-v1.0.2/cJSON.c:753:87
	b	.LBB45_35
.Ltmp400:
.LBB45_35:                              @   in Loop: Header=BB45_30 Depth=2
	.loc	1 753 116                       @ packages/cJSON-v1.0.2/cJSON.c:753:116
	ldr	r0, [sp, #20]
	adds	r1, r0, #1
	str	r1, [sp, #20]
	.loc	1 753 111                       @ packages/cJSON-v1.0.2/cJSON.c:753:111
	ldrb	r0, [r0]
	.loc	1 753 108                       @ packages/cJSON-v1.0.2/cJSON.c:753:108
	ldr	r1, [sp, #16]
	adds	r2, r1, #1
	str	r2, [sp, #16]
	.loc	1 753 110                       @ packages/cJSON-v1.0.2/cJSON.c:753:110
	strb	r0, [r1]
.Ltmp401:
	.loc	1 753 41                        @ packages/cJSON-v1.0.2/cJSON.c:753:41
	b	.LBB45_30
.LBB45_36:                              @   in Loop: Header=BB45_1 Depth=1
	.loc	1 753 133                       @ packages/cJSON-v1.0.2/cJSON.c:753:133
	ldr	r0, [sp, #20]
	adds	r1, r0, #1
	str	r1, [sp, #20]
	.loc	1 753 128                       @ packages/cJSON-v1.0.2/cJSON.c:753:128
	ldrb	r0, [r0]
	.loc	1 753 125                       @ packages/cJSON-v1.0.2/cJSON.c:753:125
	ldr	r1, [sp, #16]
	adds	r2, r1, #1
	str	r2, [sp, #16]
	.loc	1 753 127                       @ packages/cJSON-v1.0.2/cJSON.c:753:127
	strb	r0, [r1]
	.loc	1 753 136                       @ packages/cJSON-v1.0.2/cJSON.c:753:136
	b	.LBB45_38
.Ltmp402:
.LBB45_37:                              @   in Loop: Header=BB45_1 Depth=1
	.loc	1 754 21 is_stmt 1              @ packages/cJSON-v1.0.2/cJSON.c:754:21
	ldr	r0, [sp, #20]
	adds	r1, r0, #1
	str	r1, [sp, #20]
	.loc	1 754 16 is_stmt 0              @ packages/cJSON-v1.0.2/cJSON.c:754:16
	ldrb	r0, [r0]
	.loc	1 754 13                        @ packages/cJSON-v1.0.2/cJSON.c:754:13
	ldr	r1, [sp, #16]
	adds	r2, r1, #1
	str	r2, [sp, #16]
	.loc	1 754 15                        @ packages/cJSON-v1.0.2/cJSON.c:754:15
	strb	r0, [r1]
	b	.LBB45_38
.Ltmp403:
.LBB45_38:                              @   in Loop: Header=BB45_1 Depth=1
	.loc	1 0 15                          @ packages/cJSON-v1.0.2/cJSON.c:0:15
	b	.LBB45_39
.LBB45_39:                              @   in Loop: Header=BB45_1 Depth=1
	b	.LBB45_40
.LBB45_40:                              @   in Loop: Header=BB45_1 Depth=1
	b	.LBB45_41
.LBB45_41:                              @   in Loop: Header=BB45_1 Depth=1
	b	.LBB45_42
.LBB45_42:                              @   in Loop: Header=BB45_1 Depth=1
	b	.LBB45_43
.LBB45_43:                              @   in Loop: Header=BB45_1 Depth=1
	b	.LBB45_44
.LBB45_44:                              @   in Loop: Header=BB45_1 Depth=1
	.loc	1 745 2 is_stmt 1               @ packages/cJSON-v1.0.2/cJSON.c:745:2
	b	.LBB45_1
.LBB45_45:
	.loc	1 756 3                         @ packages/cJSON-v1.0.2/cJSON.c:756:3
	ldr	r1, [sp, #16]
	movs	r0, #0
	.loc	1 756 7 is_stmt 0               @ packages/cJSON-v1.0.2/cJSON.c:756:7
	strb	r0, [r1]
	.loc	1 757 1 is_stmt 1               @ packages/cJSON-v1.0.2/cJSON.c:757:1
	add	sp, #24
	bx	lr
.Ltmp404:
.Lfunc_end45:
	.size	cJSON_Minify, .Lfunc_end45-cJSON_Minify
	.cfi_endproc
	.cantunwind
	.fnend
                                        @ -- End function
	.section	.text.parse_string,"ax",%progbits
	.p2align	3                               @ -- Begin function parse_string
	.type	parse_string,%function
	.code	16                              @ @parse_string
	.thumb_func
parse_string:
.Lfunc_begin46:
	.loc	1 199 0                         @ packages/cJSON-v1.0.2/cJSON.c:199:0
	.fnstart
	.cfi_startproc
@ %bb.0:
	.save	{r7, lr}
	push	{r7, lr}
	.cfi_def_cfa_offset 8
	.cfi_offset lr, -4
	.cfi_offset r7, -8
	.pad	#56
	sub	sp, #56
	.cfi_def_cfa_offset 64
	str	r0, [sp, #48]
	str	r1, [sp, #44]
.Ltmp405:
	.loc	1 200 18 prologue_end           @ packages/cJSON-v1.0.2/cJSON.c:200:18
	ldr	r0, [sp, #44]
	.loc	1 200 21 is_stmt 0              @ packages/cJSON-v1.0.2/cJSON.c:200:21
	adds	r0, #1
	.loc	1 200 14                        @ packages/cJSON-v1.0.2/cJSON.c:200:14
	str	r0, [sp, #40]
	movs	r0, #0
	.loc	1 200 49                        @ packages/cJSON-v1.0.2/cJSON.c:200:49
	str	r0, [sp, #28]
.Ltmp406:
	.loc	1 201 7 is_stmt 1               @ packages/cJSON-v1.0.2/cJSON.c:201:7
	ldr	r0, [sp, #44]
	.loc	1 201 6 is_stmt 0               @ packages/cJSON-v1.0.2/cJSON.c:201:6
	ldrsb.w	r0, [r0]
.Ltmp407:
	.loc	1 201 6                         @ packages/cJSON-v1.0.2/cJSON.c:201:6
	cmp	r0, #34
	beq	.LBB46_2
	b	.LBB46_1
.LBB46_1:
.Ltmp408:
	.loc	1 201 22                        @ packages/cJSON-v1.0.2/cJSON.c:201:22
	ldr	r0, [sp, #44]
	.loc	1 201 21                        @ packages/cJSON-v1.0.2/cJSON.c:201:21
	movw	r1, :lower16:ep
	movt	r1, :upper16:ep
	str	r0, [r1]
	movs	r0, #0
	.loc	1 201 26                        @ packages/cJSON-v1.0.2/cJSON.c:201:26
	str	r0, [sp, #52]
	b	.LBB46_61
.Ltmp409:
.LBB46_2:
	.loc	1 203 2 is_stmt 1               @ packages/cJSON-v1.0.2/cJSON.c:203:2
	b	.LBB46_3
.LBB46_3:                               @ =>This Inner Loop Header: Depth=1
	.loc	1 203 10 is_stmt 0              @ packages/cJSON-v1.0.2/cJSON.c:203:10
	ldr	r0, [sp, #40]
	.loc	1 203 9                         @ packages/cJSON-v1.0.2/cJSON.c:203:9
	ldrsb.w	r1, [r0]
	movs	r0, #0
	.loc	1 203 20                        @ packages/cJSON-v1.0.2/cJSON.c:203:20
	cmp	r1, #34
	str	r0, [sp, #16]                   @ 4-byte Spill
	beq	.LBB46_6
	b	.LBB46_4
.LBB46_4:                               @   in Loop: Header=BB46_3 Depth=1
	.loc	1 203 24                        @ packages/cJSON-v1.0.2/cJSON.c:203:24
	ldr	r0, [sp, #40]
	.loc	1 203 23                        @ packages/cJSON-v1.0.2/cJSON.c:203:23
	ldrsb.w	r1, [r0]
	movs	r0, #0
	.loc	1 203 28                        @ packages/cJSON-v1.0.2/cJSON.c:203:28
	str	r0, [sp, #16]                   @ 4-byte Spill
	cbz	r1, .LBB46_6
	b	.LBB46_5
.LBB46_5:                               @   in Loop: Header=BB46_3 Depth=1
	.loc	1 203 31                        @ packages/cJSON-v1.0.2/cJSON.c:203:31
	ldr	r0, [sp, #28]
	adds	r0, #1
	str	r0, [sp, #28]
	.loc	1 203 28                        @ packages/cJSON-v1.0.2/cJSON.c:203:28
	cmp	r0, #0
	it	ne
	movne	r0, #1
	str	r0, [sp, #16]                   @ 4-byte Spill
	b	.LBB46_6
.LBB46_6:                               @   in Loop: Header=BB46_3 Depth=1
	.loc	1 0 0                           @ packages/cJSON-v1.0.2/cJSON.c:0:0
	ldr	r0, [sp, #16]                   @ 4-byte Reload
	.loc	1 203 2                         @ packages/cJSON-v1.0.2/cJSON.c:203:2
	lsls	r0, r0, #31
	cbz	r0, .LBB46_10
	b	.LBB46_7
.LBB46_7:                               @   in Loop: Header=BB46_3 Depth=1
.Ltmp410:
	.loc	1 203 46                        @ packages/cJSON-v1.0.2/cJSON.c:203:46
	ldr	r0, [sp, #40]
	adds	r1, r0, #1
	str	r1, [sp, #40]
	.loc	1 203 42                        @ packages/cJSON-v1.0.2/cJSON.c:203:42
	ldrsb.w	r0, [r0]
.Ltmp411:
	.loc	1 203 42                        @ packages/cJSON-v1.0.2/cJSON.c:203:42
	cmp	r0, #92
	bne	.LBB46_9
	b	.LBB46_8
.LBB46_8:                               @   in Loop: Header=BB46_3 Depth=1
.Ltmp412:
	.loc	1 203 61                        @ packages/cJSON-v1.0.2/cJSON.c:203:61
	ldr	r0, [sp, #40]
	adds	r0, #1
	str	r0, [sp, #40]
	.loc	1 203 58                        @ packages/cJSON-v1.0.2/cJSON.c:203:58
	b	.LBB46_9
.Ltmp413:
.LBB46_9:                               @   in Loop: Header=BB46_3 Depth=1
	.loc	1 203 2                         @ packages/cJSON-v1.0.2/cJSON.c:203:2
	b	.LBB46_3
.LBB46_10:
	.loc	1 205 13 is_stmt 1              @ packages/cJSON-v1.0.2/cJSON.c:205:13
	movw	r0, :lower16:cJSON_malloc
	movt	r0, :upper16:cJSON_malloc
	ldr	r1, [r0]
	.loc	1 205 26 is_stmt 0              @ packages/cJSON-v1.0.2/cJSON.c:205:26
	ldr	r0, [sp, #28]
	.loc	1 205 29                        @ packages/cJSON-v1.0.2/cJSON.c:205:29
	adds	r0, #1
	.loc	1 205 13                        @ packages/cJSON-v1.0.2/cJSON.c:205:13
	blx	r1
	.loc	1 205 5                         @ packages/cJSON-v1.0.2/cJSON.c:205:5
	str	r0, [sp, #32]
.Ltmp414:
	.loc	1 206 7 is_stmt 1               @ packages/cJSON-v1.0.2/cJSON.c:206:7
	ldr	r0, [sp, #32]
.Ltmp415:
	.loc	1 206 6 is_stmt 0               @ packages/cJSON-v1.0.2/cJSON.c:206:6
	cbnz	r0, .LBB46_12
	b	.LBB46_11
.LBB46_11:
	.loc	1 0 6                           @ packages/cJSON-v1.0.2/cJSON.c:0:6
	movs	r0, #0
.Ltmp416:
	.loc	1 206 12                        @ packages/cJSON-v1.0.2/cJSON.c:206:12
	str	r0, [sp, #52]
	b	.LBB46_61
.Ltmp417:
.LBB46_12:
	.loc	1 208 6 is_stmt 1               @ packages/cJSON-v1.0.2/cJSON.c:208:6
	ldr	r0, [sp, #44]
	.loc	1 208 9 is_stmt 0               @ packages/cJSON-v1.0.2/cJSON.c:208:9
	adds	r0, #1
	.loc	1 208 5                         @ packages/cJSON-v1.0.2/cJSON.c:208:5
	str	r0, [sp, #40]
	.loc	1 208 17                        @ packages/cJSON-v1.0.2/cJSON.c:208:17
	ldr	r0, [sp, #32]
	.loc	1 208 16                        @ packages/cJSON-v1.0.2/cJSON.c:208:16
	str	r0, [sp, #36]
	.loc	1 209 2 is_stmt 1               @ packages/cJSON-v1.0.2/cJSON.c:209:2
	b	.LBB46_13
.LBB46_13:                              @ =>This Inner Loop Header: Depth=1
	.loc	1 209 10 is_stmt 0              @ packages/cJSON-v1.0.2/cJSON.c:209:10
	ldr	r0, [sp, #40]
	.loc	1 209 9                         @ packages/cJSON-v1.0.2/cJSON.c:209:9
	ldrsb.w	r1, [r0]
	movs	r0, #0
	.loc	1 209 20                        @ packages/cJSON-v1.0.2/cJSON.c:209:20
	cmp	r1, #34
	str	r0, [sp, #12]                   @ 4-byte Spill
	beq	.LBB46_15
	b	.LBB46_14
.LBB46_14:                              @   in Loop: Header=BB46_13 Depth=1
	.loc	1 209 24                        @ packages/cJSON-v1.0.2/cJSON.c:209:24
	ldr	r0, [sp, #40]
	.loc	1 209 23                        @ packages/cJSON-v1.0.2/cJSON.c:209:23
	ldrsb.w	r0, [r0]
	.loc	1 209 20                        @ packages/cJSON-v1.0.2/cJSON.c:209:20
	cmp	r0, #0
	it	ne
	movne	r0, #1
	str	r0, [sp, #12]                   @ 4-byte Spill
	b	.LBB46_15
.LBB46_15:                              @   in Loop: Header=BB46_13 Depth=1
	.loc	1 0 0                           @ packages/cJSON-v1.0.2/cJSON.c:0:0
	ldr	r0, [sp, #12]                   @ 4-byte Reload
	.loc	1 209 2                         @ packages/cJSON-v1.0.2/cJSON.c:209:2
	lsls	r0, r0, #31
	cmp	r0, #0
	beq.w	.LBB46_58
	b	.LBB46_16
.LBB46_16:                              @   in Loop: Header=BB46_13 Depth=1
.Ltmp418:
	.loc	1 211 8 is_stmt 1               @ packages/cJSON-v1.0.2/cJSON.c:211:8
	ldr	r0, [sp, #40]
	.loc	1 211 7 is_stmt 0               @ packages/cJSON-v1.0.2/cJSON.c:211:7
	ldrsb.w	r0, [r0]
.Ltmp419:
	.loc	1 211 7                         @ packages/cJSON-v1.0.2/cJSON.c:211:7
	cmp	r0, #92
	beq	.LBB46_18
	b	.LBB46_17
.LBB46_17:                              @   in Loop: Header=BB46_13 Depth=1
.Ltmp420:
	.loc	1 211 31                        @ packages/cJSON-v1.0.2/cJSON.c:211:31
	ldr	r0, [sp, #40]
	adds	r1, r0, #1
	str	r1, [sp, #40]
	.loc	1 211 27                        @ packages/cJSON-v1.0.2/cJSON.c:211:27
	ldrb	r0, [r0]
	.loc	1 211 24                        @ packages/cJSON-v1.0.2/cJSON.c:211:24
	ldr	r1, [sp, #36]
	adds	r2, r1, #1
	str	r2, [sp, #36]
	.loc	1 211 26                        @ packages/cJSON-v1.0.2/cJSON.c:211:26
	strb	r0, [r1]
	.loc	1 211 19                        @ packages/cJSON-v1.0.2/cJSON.c:211:19
	b	.LBB46_57
.LBB46_18:                              @   in Loop: Header=BB46_13 Depth=1
.Ltmp421:
	.loc	1 214 7 is_stmt 1               @ packages/cJSON-v1.0.2/cJSON.c:214:7
	ldr	r0, [sp, #40]
	adds	r0, #1
	str	r0, [sp, #40]
	.loc	1 215 13                        @ packages/cJSON-v1.0.2/cJSON.c:215:13
	ldr	r0, [sp, #40]
	.loc	1 215 12 is_stmt 0              @ packages/cJSON-v1.0.2/cJSON.c:215:12
	ldrsb.w	r0, [r0]
	.loc	1 215 4                         @ packages/cJSON-v1.0.2/cJSON.c:215:4
	subs	r0, #98
	mov	r1, r0
	str	r1, [sp, #8]                    @ 4-byte Spill
	cmp	r0, #19
	bhi.w	.LBB46_55
@ %bb.19:                               @   in Loop: Header=BB46_13 Depth=1
	.loc	1 0 4                           @ packages/cJSON-v1.0.2/cJSON.c:0:4
	ldr	r1, [sp, #8]                    @ 4-byte Reload
.LCPI46_0:
	tbh	[pc, r1, lsl #1]
@ %bb.20:
.LJTI46_0:
	.short	(.LBB46_21-(.LCPI46_0+4))/2
	.short	(.LBB46_55-(.LCPI46_0+4))/2
	.short	(.LBB46_55-(.LCPI46_0+4))/2
	.short	(.LBB46_55-(.LCPI46_0+4))/2
	.short	(.LBB46_22-(.LCPI46_0+4))/2
	.short	(.LBB46_55-(.LCPI46_0+4))/2
	.short	(.LBB46_55-(.LCPI46_0+4))/2
	.short	(.LBB46_55-(.LCPI46_0+4))/2
	.short	(.LBB46_55-(.LCPI46_0+4))/2
	.short	(.LBB46_55-(.LCPI46_0+4))/2
	.short	(.LBB46_55-(.LCPI46_0+4))/2
	.short	(.LBB46_55-(.LCPI46_0+4))/2
	.short	(.LBB46_23-(.LCPI46_0+4))/2
	.short	(.LBB46_55-(.LCPI46_0+4))/2
	.short	(.LBB46_55-(.LCPI46_0+4))/2
	.short	(.LBB46_55-(.LCPI46_0+4))/2
	.short	(.LBB46_24-(.LCPI46_0+4))/2
	.short	(.LBB46_55-(.LCPI46_0+4))/2
	.short	(.LBB46_25-(.LCPI46_0+4))/2
	.short	(.LBB46_26-(.LCPI46_0+4))/2
	.p2align	1
.LBB46_21:                              @   in Loop: Header=BB46_13 Depth=1
.Ltmp422:
	.loc	1 217 20 is_stmt 1              @ packages/cJSON-v1.0.2/cJSON.c:217:20
	ldr	r1, [sp, #36]
	adds	r0, r1, #1
	str	r0, [sp, #36]
	movs	r0, #8
	.loc	1 217 22 is_stmt 0              @ packages/cJSON-v1.0.2/cJSON.c:217:22
	strb	r0, [r1]
	.loc	1 217 29                        @ packages/cJSON-v1.0.2/cJSON.c:217:29
	b	.LBB46_56
.LBB46_22:                              @   in Loop: Header=BB46_13 Depth=1
	.loc	1 218 20 is_stmt 1              @ packages/cJSON-v1.0.2/cJSON.c:218:20
	ldr	r1, [sp, #36]
	adds	r0, r1, #1
	str	r0, [sp, #36]
	movs	r0, #12
	.loc	1 218 22 is_stmt 0              @ packages/cJSON-v1.0.2/cJSON.c:218:22
	strb	r0, [r1]
	.loc	1 218 29                        @ packages/cJSON-v1.0.2/cJSON.c:218:29
	b	.LBB46_56
.LBB46_23:                              @   in Loop: Header=BB46_13 Depth=1
	.loc	1 219 20 is_stmt 1              @ packages/cJSON-v1.0.2/cJSON.c:219:20
	ldr	r1, [sp, #36]
	adds	r0, r1, #1
	str	r0, [sp, #36]
	movs	r0, #10
	.loc	1 219 22 is_stmt 0              @ packages/cJSON-v1.0.2/cJSON.c:219:22
	strb	r0, [r1]
	.loc	1 219 29                        @ packages/cJSON-v1.0.2/cJSON.c:219:29
	b	.LBB46_56
.LBB46_24:                              @   in Loop: Header=BB46_13 Depth=1
	.loc	1 220 20 is_stmt 1              @ packages/cJSON-v1.0.2/cJSON.c:220:20
	ldr	r1, [sp, #36]
	adds	r0, r1, #1
	str	r0, [sp, #36]
	movs	r0, #13
	.loc	1 220 22 is_stmt 0              @ packages/cJSON-v1.0.2/cJSON.c:220:22
	strb	r0, [r1]
	.loc	1 220 29                        @ packages/cJSON-v1.0.2/cJSON.c:220:29
	b	.LBB46_56
.LBB46_25:                              @   in Loop: Header=BB46_13 Depth=1
	.loc	1 221 20 is_stmt 1              @ packages/cJSON-v1.0.2/cJSON.c:221:20
	ldr	r1, [sp, #36]
	adds	r0, r1, #1
	str	r0, [sp, #36]
	movs	r0, #9
	.loc	1 221 22 is_stmt 0              @ packages/cJSON-v1.0.2/cJSON.c:221:22
	strb	r0, [r1]
	.loc	1 221 29                        @ packages/cJSON-v1.0.2/cJSON.c:221:29
	b	.LBB46_56
.LBB46_26:                              @   in Loop: Header=BB46_13 Depth=1
	.loc	1 223 20 is_stmt 1              @ packages/cJSON-v1.0.2/cJSON.c:223:20
	ldr	r0, [sp, #40]
	.loc	1 223 23 is_stmt 0              @ packages/cJSON-v1.0.2/cJSON.c:223:23
	adds	r0, #1
	.loc	1 223 9                         @ packages/cJSON-v1.0.2/cJSON.c:223:9
	bl	parse_hex4
	.loc	1 223 8                         @ packages/cJSON-v1.0.2/cJSON.c:223:8
	str	r0, [sp, #24]
	.loc	1 223 30                        @ packages/cJSON-v1.0.2/cJSON.c:223:30
	ldr	r0, [sp, #40]
	adds	r0, #4
	str	r0, [sp, #40]
.Ltmp423:
	.loc	1 225 11 is_stmt 1              @ packages/cJSON-v1.0.2/cJSON.c:225:11
	ldr	r0, [sp, #24]
	.loc	1 225 22 is_stmt 0              @ packages/cJSON-v1.0.2/cJSON.c:225:22
	cmp.w	r0, #56320
	blo	.LBB46_28
	b	.LBB46_27
.LBB46_27:                              @   in Loop: Header=BB46_13 Depth=1
	.loc	1 225 25                        @ packages/cJSON-v1.0.2/cJSON.c:225:25
	ldr	r0, [sp, #24]
	.loc	1 225 37                        @ packages/cJSON-v1.0.2/cJSON.c:225:37
	cmp.w	r0, #57344
	blo	.LBB46_29
	b	.LBB46_28
.LBB46_28:                              @   in Loop: Header=BB46_13 Depth=1
	.loc	1 225 40                        @ packages/cJSON-v1.0.2/cJSON.c:225:40
	ldr	r0, [sp, #24]
.Ltmp424:
	.loc	1 225 10                        @ packages/cJSON-v1.0.2/cJSON.c:225:10
	cbnz	r0, .LBB46_30
	b	.LBB46_29
.LBB46_29:                              @   in Loop: Header=BB46_13 Depth=1
.Ltmp425:
	.loc	1 225 47                        @ packages/cJSON-v1.0.2/cJSON.c:225:47
	b	.LBB46_56
.Ltmp426:
.LBB46_30:                              @   in Loop: Header=BB46_13 Depth=1
	.loc	1 227 10 is_stmt 1              @ packages/cJSON-v1.0.2/cJSON.c:227:10
	ldr	r0, [sp, #24]
	.loc	1 227 21 is_stmt 0              @ packages/cJSON-v1.0.2/cJSON.c:227:21
	cmp.w	r0, #55296
	blo	.LBB46_39
	b	.LBB46_31
.LBB46_31:                              @   in Loop: Header=BB46_13 Depth=1
	.loc	1 227 24                        @ packages/cJSON-v1.0.2/cJSON.c:227:24
	ldr	r0, [sp, #24]
.Ltmp427:
	.loc	1 227 10                        @ packages/cJSON-v1.0.2/cJSON.c:227:10
	lsrs	r0, r0, #10
	cmp	r0, #54
	bhi	.LBB46_39
	b	.LBB46_32
.LBB46_32:                              @   in Loop: Header=BB46_13 Depth=1
.Ltmp428:
	.loc	1 229 11 is_stmt 1              @ packages/cJSON-v1.0.2/cJSON.c:229:11
	ldr	r0, [sp, #40]
	ldrsb.w	r0, [r0, #1]
	.loc	1 229 24 is_stmt 0              @ packages/cJSON-v1.0.2/cJSON.c:229:24
	cmp	r0, #92
	bne	.LBB46_34
	b	.LBB46_33
.LBB46_33:                              @   in Loop: Header=BB46_13 Depth=1
	.loc	1 229 27                        @ packages/cJSON-v1.0.2/cJSON.c:229:27
	ldr	r0, [sp, #40]
	ldrsb.w	r0, [r0, #2]
.Ltmp429:
	.loc	1 229 11                        @ packages/cJSON-v1.0.2/cJSON.c:229:11
	cmp	r0, #117
	beq	.LBB46_35
	b	.LBB46_34
.LBB46_34:                              @   in Loop: Header=BB46_13 Depth=1
.Ltmp430:
	.loc	1 229 40                        @ packages/cJSON-v1.0.2/cJSON.c:229:40
	b	.LBB46_56
.Ltmp431:
.LBB46_35:                              @   in Loop: Header=BB46_13 Depth=1
	.loc	1 230 22 is_stmt 1              @ packages/cJSON-v1.0.2/cJSON.c:230:22
	ldr	r0, [sp, #40]
	.loc	1 230 25 is_stmt 0              @ packages/cJSON-v1.0.2/cJSON.c:230:25
	adds	r0, #3
	.loc	1 230 11                        @ packages/cJSON-v1.0.2/cJSON.c:230:11
	bl	parse_hex4
	.loc	1 230 10                        @ packages/cJSON-v1.0.2/cJSON.c:230:10
	str	r0, [sp, #20]
	.loc	1 230 32                        @ packages/cJSON-v1.0.2/cJSON.c:230:32
	ldr	r0, [sp, #40]
	adds	r0, #6
	str	r0, [sp, #40]
.Ltmp432:
	.loc	1 231 11 is_stmt 1              @ packages/cJSON-v1.0.2/cJSON.c:231:11
	ldr	r0, [sp, #20]
	.loc	1 231 22 is_stmt 0              @ packages/cJSON-v1.0.2/cJSON.c:231:22
	cmp.w	r0, #56320
	blo	.LBB46_37
	b	.LBB46_36
.LBB46_36:                              @   in Loop: Header=BB46_13 Depth=1
	.loc	1 231 25                        @ packages/cJSON-v1.0.2/cJSON.c:231:25
	ldr	r0, [sp, #20]
.Ltmp433:
	.loc	1 231 11                        @ packages/cJSON-v1.0.2/cJSON.c:231:11
	cmp.w	r0, #57344
	blo	.LBB46_38
	b	.LBB46_37
.LBB46_37:                              @   in Loop: Header=BB46_13 Depth=1
.Ltmp434:
	.loc	1 231 38                        @ packages/cJSON-v1.0.2/cJSON.c:231:38
	b	.LBB46_56
.Ltmp435:
.LBB46_38:                              @   in Loop: Header=BB46_13 Depth=1
	.loc	1 232 23 is_stmt 1              @ packages/cJSON-v1.0.2/cJSON.c:232:23
	ldr	r1, [sp, #24]
	.loc	1 232 25 is_stmt 0              @ packages/cJSON-v1.0.2/cJSON.c:232:25
	bfc	r1, #10, #22
	.loc	1 232 41                        @ packages/cJSON-v1.0.2/cJSON.c:232:41
	ldr	r0, [sp, #20]
	.loc	1 232 44                        @ packages/cJSON-v1.0.2/cJSON.c:232:44
	bfc	r0, #10, #22
	.loc	1 232 38                        @ packages/cJSON-v1.0.2/cJSON.c:232:38
	orr.w	r0, r0, r1, lsl #10
	.loc	1 232 18                        @ packages/cJSON-v1.0.2/cJSON.c:232:18
	add.w	r0, r0, #65536
	.loc	1 232 9                         @ packages/cJSON-v1.0.2/cJSON.c:232:9
	str	r0, [sp, #24]
	.loc	1 233 6 is_stmt 1               @ packages/cJSON-v1.0.2/cJSON.c:233:6
	b	.LBB46_39
.Ltmp436:
.LBB46_39:                              @   in Loop: Header=BB46_13 Depth=1
	.loc	1 0 6 is_stmt 0                 @ packages/cJSON-v1.0.2/cJSON.c:0:6
	movs	r0, #4
	.loc	1 235 9 is_stmt 1               @ packages/cJSON-v1.0.2/cJSON.c:235:9
	str	r0, [sp, #28]
.Ltmp437:
	.loc	1 235 16 is_stmt 0              @ packages/cJSON-v1.0.2/cJSON.c:235:16
	ldr	r0, [sp, #24]
.Ltmp438:
	.loc	1 235 16                        @ packages/cJSON-v1.0.2/cJSON.c:235:16
	cmp	r0, #127
	bhi	.LBB46_41
	b	.LBB46_40
.LBB46_40:                              @   in Loop: Header=BB46_13 Depth=1
	.loc	1 0 16                          @ packages/cJSON-v1.0.2/cJSON.c:0:16
	movs	r0, #1
.Ltmp439:
	.loc	1 235 28                        @ packages/cJSON-v1.0.2/cJSON.c:235:28
	str	r0, [sp, #28]
	.loc	1 235 25                        @ packages/cJSON-v1.0.2/cJSON.c:235:25
	b	.LBB46_47
.LBB46_41:                              @   in Loop: Header=BB46_13 Depth=1
.Ltmp440:
	.loc	1 235 40                        @ packages/cJSON-v1.0.2/cJSON.c:235:40
	ldr	r1, [sp, #24]
	movs	r0, #0
.Ltmp441:
	.loc	1 235 40                        @ packages/cJSON-v1.0.2/cJSON.c:235:40
	cmp.w	r0, r1, lsr #11
	bne	.LBB46_43
	b	.LBB46_42
.LBB46_42:                              @   in Loop: Header=BB46_13 Depth=1
	.loc	1 0 40                          @ packages/cJSON-v1.0.2/cJSON.c:0:40
	movs	r0, #2
.Ltmp442:
	.loc	1 235 53                        @ packages/cJSON-v1.0.2/cJSON.c:235:53
	str	r0, [sp, #28]
	.loc	1 235 50                        @ packages/cJSON-v1.0.2/cJSON.c:235:50
	b	.LBB46_46
.LBB46_43:                              @   in Loop: Header=BB46_13 Depth=1
.Ltmp443:
	.loc	1 235 65                        @ packages/cJSON-v1.0.2/cJSON.c:235:65
	ldrh.w	r0, [sp, #26]
.Ltmp444:
	.loc	1 235 65                        @ packages/cJSON-v1.0.2/cJSON.c:235:65
	cbnz	r0, .LBB46_45
	b	.LBB46_44
.LBB46_44:                              @   in Loop: Header=BB46_13 Depth=1
	.loc	1 0 65                          @ packages/cJSON-v1.0.2/cJSON.c:0:65
	movs	r0, #3
.Ltmp445:
	.loc	1 235 80                        @ packages/cJSON-v1.0.2/cJSON.c:235:80
	str	r0, [sp, #28]
	.loc	1 235 77                        @ packages/cJSON-v1.0.2/cJSON.c:235:77
	b	.LBB46_45
.Ltmp446:
.LBB46_45:                              @   in Loop: Header=BB46_13 Depth=1
	.loc	1 0 77                          @ packages/cJSON-v1.0.2/cJSON.c:0:77
	b	.LBB46_46
.LBB46_46:                              @   in Loop: Header=BB46_13 Depth=1
	b	.LBB46_47
.LBB46_47:                              @   in Loop: Header=BB46_13 Depth=1
	.loc	1 235 90                        @ packages/cJSON-v1.0.2/cJSON.c:235:90
	ldr	r1, [sp, #28]
	.loc	1 235 88                        @ packages/cJSON-v1.0.2/cJSON.c:235:88
	ldr	r0, [sp, #36]
	add	r0, r1
	str	r0, [sp, #36]
	.loc	1 237 14 is_stmt 1              @ packages/cJSON-v1.0.2/cJSON.c:237:14
	ldr	r0, [sp, #28]
	.loc	1 237 6 is_stmt 0               @ packages/cJSON-v1.0.2/cJSON.c:237:6
	subs	r0, #1
	mov	r1, r0
	str	r1, [sp, #4]                    @ 4-byte Spill
	cmp	r0, #3
	bhi	.LBB46_54
@ %bb.48:                               @   in Loop: Header=BB46_13 Depth=1
	.loc	1 0 6                           @ packages/cJSON-v1.0.2/cJSON.c:0:6
	ldr	r1, [sp, #4]                    @ 4-byte Reload
.LCPI46_1:
	tbb	[pc, r1]
@ %bb.49:
.LJTI46_1:
	.byte	(.LBB46_53-(.LCPI46_1+4))/2
	.byte	(.LBB46_52-(.LCPI46_1+4))/2
	.byte	(.LBB46_51-(.LCPI46_1+4))/2
	.byte	(.LBB46_50-(.LCPI46_1+4))/2
	.p2align	1
.LBB46_50:                              @   in Loop: Header=BB46_13 Depth=1
.Ltmp447:
	.loc	1 238 26 is_stmt 1              @ packages/cJSON-v1.0.2/cJSON.c:238:26
	ldr	r0, [sp, #24]
	.loc	1 238 29 is_stmt 0              @ packages/cJSON-v1.0.2/cJSON.c:238:29
	orr	r0, r0, #128
	.loc	1 238 37                        @ packages/cJSON-v1.0.2/cJSON.c:238:37
	and	r0, r0, #191
	.loc	1 238 16                        @ packages/cJSON-v1.0.2/cJSON.c:238:16
	ldr	r1, [sp, #36]
	subs	r2, r1, #1
	str	r2, [sp, #36]
	.loc	1 238 23                        @ packages/cJSON-v1.0.2/cJSON.c:238:23
	strb	r0, [r1, #-1]
	.loc	1 238 49                        @ packages/cJSON-v1.0.2/cJSON.c:238:49
	ldr	r0, [sp, #24]
	lsrs	r0, r0, #6
	str	r0, [sp, #24]
	.loc	1 238 46                        @ packages/cJSON-v1.0.2/cJSON.c:238:46
	b	.LBB46_51
.LBB46_51:                              @   in Loop: Header=BB46_13 Depth=1
	.loc	1 239 26 is_stmt 1              @ packages/cJSON-v1.0.2/cJSON.c:239:26
	ldr	r0, [sp, #24]
	.loc	1 239 29 is_stmt 0              @ packages/cJSON-v1.0.2/cJSON.c:239:29
	orr	r0, r0, #128
	.loc	1 239 37                        @ packages/cJSON-v1.0.2/cJSON.c:239:37
	and	r0, r0, #191
	.loc	1 239 16                        @ packages/cJSON-v1.0.2/cJSON.c:239:16
	ldr	r1, [sp, #36]
	subs	r2, r1, #1
	str	r2, [sp, #36]
	.loc	1 239 23                        @ packages/cJSON-v1.0.2/cJSON.c:239:23
	strb	r0, [r1, #-1]
	.loc	1 239 49                        @ packages/cJSON-v1.0.2/cJSON.c:239:49
	ldr	r0, [sp, #24]
	lsrs	r0, r0, #6
	str	r0, [sp, #24]
	.loc	1 239 46                        @ packages/cJSON-v1.0.2/cJSON.c:239:46
	b	.LBB46_52
.LBB46_52:                              @   in Loop: Header=BB46_13 Depth=1
	.loc	1 240 26 is_stmt 1              @ packages/cJSON-v1.0.2/cJSON.c:240:26
	ldr	r0, [sp, #24]
	.loc	1 240 29 is_stmt 0              @ packages/cJSON-v1.0.2/cJSON.c:240:29
	orr	r0, r0, #128
	.loc	1 240 37                        @ packages/cJSON-v1.0.2/cJSON.c:240:37
	and	r0, r0, #191
	.loc	1 240 16                        @ packages/cJSON-v1.0.2/cJSON.c:240:16
	ldr	r1, [sp, #36]
	subs	r2, r1, #1
	str	r2, [sp, #36]
	.loc	1 240 23                        @ packages/cJSON-v1.0.2/cJSON.c:240:23
	strb	r0, [r1, #-1]
	.loc	1 240 49                        @ packages/cJSON-v1.0.2/cJSON.c:240:49
	ldr	r0, [sp, #24]
	lsrs	r0, r0, #6
	str	r0, [sp, #24]
	.loc	1 240 46                        @ packages/cJSON-v1.0.2/cJSON.c:240:46
	b	.LBB46_53
.LBB46_53:                              @   in Loop: Header=BB46_13 Depth=1
	.loc	1 241 25 is_stmt 1              @ packages/cJSON-v1.0.2/cJSON.c:241:25
	ldr	r0, [sp, #24]
	.loc	1 241 44 is_stmt 0              @ packages/cJSON-v1.0.2/cJSON.c:241:44
	ldr	r2, [sp, #28]
	.loc	1 241 30                        @ packages/cJSON-v1.0.2/cJSON.c:241:30
	movw	r1, :lower16:firstByteMark
	movt	r1, :upper16:firstByteMark
	ldrb	r1, [r1, r2]
	.loc	1 241 28                        @ packages/cJSON-v1.0.2/cJSON.c:241:28
	orrs	r0, r1
	.loc	1 241 16                        @ packages/cJSON-v1.0.2/cJSON.c:241:16
	ldr	r1, [sp, #36]
	subs	r2, r1, #1
	str	r2, [sp, #36]
	.loc	1 241 23                        @ packages/cJSON-v1.0.2/cJSON.c:241:23
	strb	r0, [r1, #-1]
	.loc	1 242 6 is_stmt 1               @ packages/cJSON-v1.0.2/cJSON.c:242:6
	b	.LBB46_54
.Ltmp448:
.LBB46_54:                              @   in Loop: Header=BB46_13 Depth=1
	.loc	1 243 12                        @ packages/cJSON-v1.0.2/cJSON.c:243:12
	ldr	r1, [sp, #28]
	.loc	1 243 10 is_stmt 0              @ packages/cJSON-v1.0.2/cJSON.c:243:10
	ldr	r0, [sp, #36]
	add	r0, r1
	str	r0, [sp, #36]
	.loc	1 244 6 is_stmt 1               @ packages/cJSON-v1.0.2/cJSON.c:244:6
	b	.LBB46_56
.LBB46_55:                              @   in Loop: Header=BB46_13 Depth=1
	.loc	1 245 24                        @ packages/cJSON-v1.0.2/cJSON.c:245:24
	ldr	r0, [sp, #40]
	.loc	1 245 23 is_stmt 0              @ packages/cJSON-v1.0.2/cJSON.c:245:23
	ldrb	r0, [r0]
	.loc	1 245 20                        @ packages/cJSON-v1.0.2/cJSON.c:245:20
	ldr	r1, [sp, #36]
	adds	r2, r1, #1
	str	r2, [sp, #36]
	.loc	1 245 22                        @ packages/cJSON-v1.0.2/cJSON.c:245:22
	strb	r0, [r1]
	.loc	1 245 29                        @ packages/cJSON-v1.0.2/cJSON.c:245:29
	b	.LBB46_56
.Ltmp449:
.LBB46_56:                              @   in Loop: Header=BB46_13 Depth=1
	.loc	1 247 7 is_stmt 1               @ packages/cJSON-v1.0.2/cJSON.c:247:7
	ldr	r0, [sp, #40]
	adds	r0, #1
	str	r0, [sp, #40]
	b	.LBB46_57
.Ltmp450:
.LBB46_57:                              @   in Loop: Header=BB46_13 Depth=1
	.loc	1 209 2                         @ packages/cJSON-v1.0.2/cJSON.c:209:2
	b	.LBB46_13
.LBB46_58:
	.loc	1 250 3                         @ packages/cJSON-v1.0.2/cJSON.c:250:3
	ldr	r1, [sp, #36]
	movs	r0, #0
	.loc	1 250 7 is_stmt 0               @ packages/cJSON-v1.0.2/cJSON.c:250:7
	strb	r0, [r1]
.Ltmp451:
	.loc	1 251 7 is_stmt 1               @ packages/cJSON-v1.0.2/cJSON.c:251:7
	ldr	r0, [sp, #40]
	.loc	1 251 6 is_stmt 0               @ packages/cJSON-v1.0.2/cJSON.c:251:6
	ldrsb.w	r0, [r0]
.Ltmp452:
	.loc	1 251 6                         @ packages/cJSON-v1.0.2/cJSON.c:251:6
	cmp	r0, #34
	bne	.LBB46_60
	b	.LBB46_59
.LBB46_59:
.Ltmp453:
	.loc	1 251 21                        @ packages/cJSON-v1.0.2/cJSON.c:251:21
	ldr	r0, [sp, #40]
	adds	r0, #1
	str	r0, [sp, #40]
	.loc	1 251 18                        @ packages/cJSON-v1.0.2/cJSON.c:251:18
	b	.LBB46_60
.Ltmp454:
.LBB46_60:
	.loc	1 252 20 is_stmt 1              @ packages/cJSON-v1.0.2/cJSON.c:252:20
	ldr	r0, [sp, #32]
	.loc	1 252 2 is_stmt 0               @ packages/cJSON-v1.0.2/cJSON.c:252:2
	ldr	r1, [sp, #48]
	.loc	1 252 19                        @ packages/cJSON-v1.0.2/cJSON.c:252:19
	str	r0, [r1, #16]
	.loc	1 253 2 is_stmt 1               @ packages/cJSON-v1.0.2/cJSON.c:253:2
	ldr	r1, [sp, #48]
	movs	r0, #4
	.loc	1 253 12 is_stmt 0              @ packages/cJSON-v1.0.2/cJSON.c:253:12
	str	r0, [r1, #12]
	.loc	1 254 9 is_stmt 1               @ packages/cJSON-v1.0.2/cJSON.c:254:9
	ldr	r0, [sp, #40]
	.loc	1 254 2 is_stmt 0               @ packages/cJSON-v1.0.2/cJSON.c:254:2
	str	r0, [sp, #52]
	b	.LBB46_61
.LBB46_61:
	.loc	1 255 1 is_stmt 1               @ packages/cJSON-v1.0.2/cJSON.c:255:1
	ldr	r0, [sp, #52]
	add	sp, #56
	pop	{r7, pc}
.Ltmp455:
.Lfunc_end46:
	.size	parse_string, .Lfunc_end46-parse_string
	.cfi_endproc
	.cantunwind
	.fnend
                                        @ -- End function
	.section	.text.parse_number,"ax",%progbits
	.p2align	3                               @ -- Begin function parse_number
	.type	parse_number,%function
	.code	16                              @ @parse_number
	.thumb_func
parse_number:
.Lfunc_begin47:
	.loc	1 103 0                         @ packages/cJSON-v1.0.2/cJSON.c:103:0
	.fnstart
	.cfi_startproc
@ %bb.0:
	.save	{r7, lr}
	push	{r7, lr}
	.cfi_def_cfa_offset 8
	.cfi_offset lr, -4
	.cfi_offset r7, -8
	.pad	#64
	sub	sp, #64
	.cfi_def_cfa_offset 72
	str	r0, [sp, #60]
	str	r1, [sp, #56]
	movs	r0, #0
.Ltmp456:
	.loc	1 104 9 prologue_end            @ packages/cJSON-v1.0.2/cJSON.c:104:9
	str	r0, [sp, #52]
	str	r0, [sp, #48]
	movs	r1, #0
	movt	r1, #16368
	.loc	1 104 13 is_stmt 0              @ packages/cJSON-v1.0.2/cJSON.c:104:13
	str	r1, [sp, #44]
	str	r0, [sp, #40]
	.loc	1 104 20                        @ packages/cJSON-v1.0.2/cJSON.c:104:20
	str	r0, [sp, #36]
	str	r0, [sp, #32]
	.loc	1 104 32                        @ packages/cJSON-v1.0.2/cJSON.c:104:32
	str	r0, [sp, #28]
	movs	r0, #1
	.loc	1 104 43                        @ packages/cJSON-v1.0.2/cJSON.c:104:43
	str	r0, [sp, #24]
.Ltmp457:
	.loc	1 106 7 is_stmt 1               @ packages/cJSON-v1.0.2/cJSON.c:106:7
	ldr	r0, [sp, #56]
	.loc	1 106 6 is_stmt 0               @ packages/cJSON-v1.0.2/cJSON.c:106:6
	ldrsb.w	r0, [r0]
.Ltmp458:
	.loc	1 106 6                         @ packages/cJSON-v1.0.2/cJSON.c:106:6
	cmp	r0, #45
	bne	.LBB47_2
	b	.LBB47_1
.LBB47_1:
	.loc	1 0 6                           @ packages/cJSON-v1.0.2/cJSON.c:0:6
	movs	r0, #0
	movt	r0, #49136
.Ltmp459:
	.loc	1 106 21                        @ packages/cJSON-v1.0.2/cJSON.c:106:21
	str	r0, [sp, #44]
	movs	r0, #0
	str	r0, [sp, #40]
	.loc	1 106 28                        @ packages/cJSON-v1.0.2/cJSON.c:106:28
	ldr	r0, [sp, #56]
	adds	r0, #1
	str	r0, [sp, #56]
	.loc	1 106 17                        @ packages/cJSON-v1.0.2/cJSON.c:106:17
	b	.LBB47_2
.Ltmp460:
.LBB47_2:
	.loc	1 107 7 is_stmt 1               @ packages/cJSON-v1.0.2/cJSON.c:107:7
	ldr	r0, [sp, #56]
	.loc	1 107 6 is_stmt 0               @ packages/cJSON-v1.0.2/cJSON.c:107:6
	ldrsb.w	r0, [r0]
.Ltmp461:
	.loc	1 107 6                         @ packages/cJSON-v1.0.2/cJSON.c:107:6
	cmp	r0, #48
	bne	.LBB47_4
	b	.LBB47_3
.LBB47_3:
.Ltmp462:
	.loc	1 107 20                        @ packages/cJSON-v1.0.2/cJSON.c:107:20
	ldr	r0, [sp, #56]
	adds	r0, #1
	str	r0, [sp, #56]
	.loc	1 107 17                        @ packages/cJSON-v1.0.2/cJSON.c:107:17
	b	.LBB47_4
.Ltmp463:
.LBB47_4:
	.loc	1 108 7 is_stmt 1               @ packages/cJSON-v1.0.2/cJSON.c:108:7
	ldr	r0, [sp, #56]
	.loc	1 108 6 is_stmt 0               @ packages/cJSON-v1.0.2/cJSON.c:108:6
	ldrsb.w	r0, [r0]
	.loc	1 108 16                        @ packages/cJSON-v1.0.2/cJSON.c:108:16
	cmp	r0, #49
	blt	.LBB47_12
	b	.LBB47_5
.LBB47_5:
	.loc	1 108 20                        @ packages/cJSON-v1.0.2/cJSON.c:108:20
	ldr	r0, [sp, #56]
	.loc	1 108 19                        @ packages/cJSON-v1.0.2/cJSON.c:108:19
	ldrsb.w	r0, [r0]
.Ltmp464:
	.loc	1 108 6                         @ packages/cJSON-v1.0.2/cJSON.c:108:6
	cmp	r0, #57
	bgt	.LBB47_12
	b	.LBB47_6
.LBB47_6:
.Ltmp465:
	.loc	1 108 30                        @ packages/cJSON-v1.0.2/cJSON.c:108:30
	b	.LBB47_7
.LBB47_7:                               @ =>This Inner Loop Header: Depth=1
	.loc	1 108 36                        @ packages/cJSON-v1.0.2/cJSON.c:108:36
	vldr	d1, [sp, #48]
	.loc	1 108 49                        @ packages/cJSON-v1.0.2/cJSON.c:108:49
	ldr	r0, [sp, #56]
	adds	r1, r0, #1
	str	r1, [sp, #56]
	.loc	1 108 45                        @ packages/cJSON-v1.0.2/cJSON.c:108:45
	ldrsb.w	r0, [r0]
	.loc	1 108 52                        @ packages/cJSON-v1.0.2/cJSON.c:108:52
	subs	r0, #48
	.loc	1 108 44                        @ packages/cJSON-v1.0.2/cJSON.c:108:44
	vmov	s0, r0
	vcvt.f64.s32	d0, s0
	vmov.f64	d2, #1.000000e+01
	.loc	1 108 43                        @ packages/cJSON-v1.0.2/cJSON.c:108:43
	vmla.f64	d0, d1, d2
	.loc	1 108 34                        @ packages/cJSON-v1.0.2/cJSON.c:108:34
	vstr	d0, [sp, #48]
	.loc	1 108 33                        @ packages/cJSON-v1.0.2/cJSON.c:108:33
	b	.LBB47_8
.LBB47_8:                               @   in Loop: Header=BB47_7 Depth=1
	.loc	1 108 67                        @ packages/cJSON-v1.0.2/cJSON.c:108:67
	ldr	r0, [sp, #56]
	.loc	1 108 66                        @ packages/cJSON-v1.0.2/cJSON.c:108:66
	ldrsb.w	r1, [r0]
	movs	r0, #0
	.loc	1 108 76                        @ packages/cJSON-v1.0.2/cJSON.c:108:76
	cmp	r1, #48
	str	r0, [sp, #20]                   @ 4-byte Spill
	blt	.LBB47_10
	b	.LBB47_9
.LBB47_9:                               @   in Loop: Header=BB47_7 Depth=1
	.loc	1 108 80                        @ packages/cJSON-v1.0.2/cJSON.c:108:80
	ldr	r0, [sp, #56]
	.loc	1 108 79                        @ packages/cJSON-v1.0.2/cJSON.c:108:79
	ldrsb.w	r1, [r0]
	movs	r0, #0
	.loc	1 108 83                        @ packages/cJSON-v1.0.2/cJSON.c:108:83
	cmp	r1, #58
	it	lt
	movlt	r0, #1
	str	r0, [sp, #20]                   @ 4-byte Spill
	b	.LBB47_10
.LBB47_10:                              @   in Loop: Header=BB47_7 Depth=1
	.loc	1 0 0                           @ packages/cJSON-v1.0.2/cJSON.c:0:0
	ldr	r0, [sp, #20]                   @ 4-byte Reload
	.loc	1 108 33                        @ packages/cJSON-v1.0.2/cJSON.c:108:33
	lsls	r0, r0, #31
	cmp	r0, #0
	bne	.LBB47_7
	b	.LBB47_11
.LBB47_11:
	b	.LBB47_12
.Ltmp466:
.LBB47_12:
	.loc	1 109 7 is_stmt 1               @ packages/cJSON-v1.0.2/cJSON.c:109:7
	ldr	r0, [sp, #56]
	.loc	1 109 6 is_stmt 0               @ packages/cJSON-v1.0.2/cJSON.c:109:6
	ldrsb.w	r0, [r0]
	.loc	1 109 16                        @ packages/cJSON-v1.0.2/cJSON.c:109:16
	cmp	r0, #46
	bne	.LBB47_21
	b	.LBB47_13
.LBB47_13:
	.loc	1 109 19                        @ packages/cJSON-v1.0.2/cJSON.c:109:19
	ldr	r0, [sp, #56]
	ldrsb.w	r0, [r0, #1]
	.loc	1 109 31                        @ packages/cJSON-v1.0.2/cJSON.c:109:31
	cmp	r0, #48
	blt	.LBB47_21
	b	.LBB47_14
.LBB47_14:
	.loc	1 109 34                        @ packages/cJSON-v1.0.2/cJSON.c:109:34
	ldr	r0, [sp, #56]
	ldrsb.w	r0, [r0, #1]
.Ltmp467:
	.loc	1 109 6                         @ packages/cJSON-v1.0.2/cJSON.c:109:6
	cmp	r0, #57
	bgt	.LBB47_21
	b	.LBB47_15
.LBB47_15:
.Ltmp468:
	.loc	1 109 51                        @ packages/cJSON-v1.0.2/cJSON.c:109:51
	ldr	r0, [sp, #56]
	adds	r0, #1
	str	r0, [sp, #56]
	.loc	1 109 56                        @ packages/cJSON-v1.0.2/cJSON.c:109:56
	b	.LBB47_16
.LBB47_16:                              @ =>This Inner Loop Header: Depth=1
	.loc	1 109 62                        @ packages/cJSON-v1.0.2/cJSON.c:109:62
	vldr	d1, [sp, #48]
	.loc	1 109 75                        @ packages/cJSON-v1.0.2/cJSON.c:109:75
	ldr	r0, [sp, #56]
	adds	r1, r0, #1
	str	r1, [sp, #56]
	.loc	1 109 71                        @ packages/cJSON-v1.0.2/cJSON.c:109:71
	ldrsb.w	r0, [r0]
	.loc	1 109 78                        @ packages/cJSON-v1.0.2/cJSON.c:109:78
	subs	r0, #48
	.loc	1 109 70                        @ packages/cJSON-v1.0.2/cJSON.c:109:70
	vmov	s0, r0
	vcvt.f64.s32	d0, s0
	vmov.f64	d2, #1.000000e+01
	.loc	1 109 69                        @ packages/cJSON-v1.0.2/cJSON.c:109:69
	vmla.f64	d0, d1, d2
	.loc	1 109 60                        @ packages/cJSON-v1.0.2/cJSON.c:109:60
	vstr	d0, [sp, #48]
	.loc	1 109 89                        @ packages/cJSON-v1.0.2/cJSON.c:109:89
	vldr	d0, [sp, #32]
	vmov.f64	d1, #-1.000000e+00
	vadd.f64	d0, d0, d1
	vstr	d0, [sp, #32]
	.loc	1 109 59                        @ packages/cJSON-v1.0.2/cJSON.c:109:59
	b	.LBB47_17
.LBB47_17:                              @   in Loop: Header=BB47_16 Depth=1
	.loc	1 109 101                       @ packages/cJSON-v1.0.2/cJSON.c:109:101
	ldr	r0, [sp, #56]
	.loc	1 109 100                       @ packages/cJSON-v1.0.2/cJSON.c:109:100
	ldrsb.w	r1, [r0]
	movs	r0, #0
	.loc	1 109 110                       @ packages/cJSON-v1.0.2/cJSON.c:109:110
	cmp	r1, #48
	str	r0, [sp, #16]                   @ 4-byte Spill
	blt	.LBB47_19
	b	.LBB47_18
.LBB47_18:                              @   in Loop: Header=BB47_16 Depth=1
	.loc	1 109 114                       @ packages/cJSON-v1.0.2/cJSON.c:109:114
	ldr	r0, [sp, #56]
	.loc	1 109 113                       @ packages/cJSON-v1.0.2/cJSON.c:109:113
	ldrsb.w	r1, [r0]
	movs	r0, #0
	.loc	1 109 117                       @ packages/cJSON-v1.0.2/cJSON.c:109:117
	cmp	r1, #58
	it	lt
	movlt	r0, #1
	str	r0, [sp, #16]                   @ 4-byte Spill
	b	.LBB47_19
.LBB47_19:                              @   in Loop: Header=BB47_16 Depth=1
	.loc	1 0 0                           @ packages/cJSON-v1.0.2/cJSON.c:0:0
	ldr	r0, [sp, #16]                   @ 4-byte Reload
	.loc	1 109 59                        @ packages/cJSON-v1.0.2/cJSON.c:109:59
	lsls	r0, r0, #31
	cmp	r0, #0
	bne	.LBB47_16
	b	.LBB47_20
.LBB47_20:
	.loc	1 109 124                       @ packages/cJSON-v1.0.2/cJSON.c:109:124
	b	.LBB47_21
.Ltmp469:
.LBB47_21:
	.loc	1 110 7 is_stmt 1               @ packages/cJSON-v1.0.2/cJSON.c:110:7
	ldr	r0, [sp, #56]
	.loc	1 110 6 is_stmt 0               @ packages/cJSON-v1.0.2/cJSON.c:110:6
	ldrsb.w	r0, [r0]
	.loc	1 110 16                        @ packages/cJSON-v1.0.2/cJSON.c:110:16
	cmp	r0, #101
	beq	.LBB47_23
	b	.LBB47_22
.LBB47_22:
	.loc	1 110 20                        @ packages/cJSON-v1.0.2/cJSON.c:110:20
	ldr	r0, [sp, #56]
	.loc	1 110 19                        @ packages/cJSON-v1.0.2/cJSON.c:110:19
	ldrsb.w	r0, [r0]
.Ltmp470:
	.loc	1 110 6                         @ packages/cJSON-v1.0.2/cJSON.c:110:6
	cmp	r0, #69
	bne	.LBB47_34
	b	.LBB47_23
.LBB47_23:
.Ltmp471:
	.loc	1 111 7 is_stmt 1               @ packages/cJSON-v1.0.2/cJSON.c:111:7
	ldr	r0, [sp, #56]
	adds	r0, #1
	str	r0, [sp, #56]
.Ltmp472:
	.loc	1 111 15 is_stmt 0              @ packages/cJSON-v1.0.2/cJSON.c:111:15
	ldr	r0, [sp, #56]
	.loc	1 111 14                        @ packages/cJSON-v1.0.2/cJSON.c:111:14
	ldrsb.w	r0, [r0]
.Ltmp473:
	.loc	1 111 14                        @ packages/cJSON-v1.0.2/cJSON.c:111:14
	cmp	r0, #43
	bne	.LBB47_25
	b	.LBB47_24
.LBB47_24:
.Ltmp474:
	.loc	1 111 28                        @ packages/cJSON-v1.0.2/cJSON.c:111:28
	ldr	r0, [sp, #56]
	adds	r0, #1
	str	r0, [sp, #56]
	.loc	1 111 25                        @ packages/cJSON-v1.0.2/cJSON.c:111:25
	b	.LBB47_28
.LBB47_25:
.Ltmp475:
	.loc	1 111 42                        @ packages/cJSON-v1.0.2/cJSON.c:111:42
	ldr	r0, [sp, #56]
	.loc	1 111 41                        @ packages/cJSON-v1.0.2/cJSON.c:111:41
	ldrsb.w	r0, [r0]
.Ltmp476:
	.loc	1 111 41                        @ packages/cJSON-v1.0.2/cJSON.c:111:41
	cmp	r0, #45
	bne	.LBB47_27
	b	.LBB47_26
.LBB47_26:
	.loc	1 0 41                          @ packages/cJSON-v1.0.2/cJSON.c:0:41
	mov.w	r0, #-1
.Ltmp477:
	.loc	1 111 64                        @ packages/cJSON-v1.0.2/cJSON.c:111:64
	str	r0, [sp, #24]
	.loc	1 111 71                        @ packages/cJSON-v1.0.2/cJSON.c:111:71
	ldr	r0, [sp, #56]
	adds	r0, #1
	str	r0, [sp, #56]
	.loc	1 111 52                        @ packages/cJSON-v1.0.2/cJSON.c:111:52
	b	.LBB47_27
.Ltmp478:
.LBB47_27:
	.loc	1 0 52                          @ packages/cJSON-v1.0.2/cJSON.c:0:52
	b	.LBB47_28
.LBB47_28:
	.loc	1 112 3 is_stmt 1               @ packages/cJSON-v1.0.2/cJSON.c:112:3
	b	.LBB47_29
.LBB47_29:                              @ =>This Inner Loop Header: Depth=1
	.loc	1 112 11 is_stmt 0              @ packages/cJSON-v1.0.2/cJSON.c:112:11
	ldr	r0, [sp, #56]
	.loc	1 112 10                        @ packages/cJSON-v1.0.2/cJSON.c:112:10
	ldrsb.w	r1, [r0]
	movs	r0, #0
	.loc	1 112 20                        @ packages/cJSON-v1.0.2/cJSON.c:112:20
	cmp	r1, #48
	str	r0, [sp, #12]                   @ 4-byte Spill
	blt	.LBB47_31
	b	.LBB47_30
.LBB47_30:                              @   in Loop: Header=BB47_29 Depth=1
	.loc	1 112 24                        @ packages/cJSON-v1.0.2/cJSON.c:112:24
	ldr	r0, [sp, #56]
	.loc	1 112 23                        @ packages/cJSON-v1.0.2/cJSON.c:112:23
	ldrsb.w	r1, [r0]
	movs	r0, #0
	.loc	1 112 27                        @ packages/cJSON-v1.0.2/cJSON.c:112:27
	cmp	r1, #58
	it	lt
	movlt	r0, #1
	str	r0, [sp, #12]                   @ 4-byte Spill
	b	.LBB47_31
.LBB47_31:                              @   in Loop: Header=BB47_29 Depth=1
	.loc	1 0 0                           @ packages/cJSON-v1.0.2/cJSON.c:0:0
	ldr	r0, [sp, #12]                   @ 4-byte Reload
	.loc	1 112 3                         @ packages/cJSON-v1.0.2/cJSON.c:112:3
	lsls	r0, r0, #31
	cbz	r0, .LBB47_33
	b	.LBB47_32
.LBB47_32:                              @   in Loop: Header=BB47_29 Depth=1
	.loc	1 112 44                        @ packages/cJSON-v1.0.2/cJSON.c:112:44
	ldr	r0, [sp, #28]
	.loc	1 112 52                        @ packages/cJSON-v1.0.2/cJSON.c:112:52
	add.w	r1, r0, r0, lsl #2
	.loc	1 112 62                        @ packages/cJSON-v1.0.2/cJSON.c:112:62
	ldr	r0, [sp, #56]
	adds	r2, r0, #1
	str	r2, [sp, #56]
	.loc	1 112 58                        @ packages/cJSON-v1.0.2/cJSON.c:112:58
	ldrsb.w	r0, [r0]
	.loc	1 112 56                        @ packages/cJSON-v1.0.2/cJSON.c:112:56
	add.w	r0, r0, r1, lsl #1
	subs	r0, #48
	.loc	1 112 42                        @ packages/cJSON-v1.0.2/cJSON.c:112:42
	str	r0, [sp, #28]
	.loc	1 112 3                         @ packages/cJSON-v1.0.2/cJSON.c:112:3
	b	.LBB47_29
.LBB47_33:
	.loc	1 113 2 is_stmt 1               @ packages/cJSON-v1.0.2/cJSON.c:113:2
	b	.LBB47_34
.Ltmp479:
.LBB47_34:
	.loc	1 115 4                         @ packages/cJSON-v1.0.2/cJSON.c:115:4
	vldr	d0, [sp, #40]
	.loc	1 115 9 is_stmt 0               @ packages/cJSON-v1.0.2/cJSON.c:115:9
	vldr	d1, [sp, #48]
	.loc	1 115 8                         @ packages/cJSON-v1.0.2/cJSON.c:115:8
	vmul.f64	d0, d0, d1
	vstr	d0, [sp]                        @ 8-byte Spill
	.loc	1 115 21                        @ packages/cJSON-v1.0.2/cJSON.c:115:21
	vldr	d0, [sp, #32]
	.loc	1 115 27                        @ packages/cJSON-v1.0.2/cJSON.c:115:27
	ldr	r0, [sp, #28]
	.loc	1 115 36                        @ packages/cJSON-v1.0.2/cJSON.c:115:36
	ldr	r1, [sp, #24]
	.loc	1 115 35                        @ packages/cJSON-v1.0.2/cJSON.c:115:35
	muls	r0, r1, r0
	.loc	1 115 27                        @ packages/cJSON-v1.0.2/cJSON.c:115:27
	vmov	s2, r0
	vcvt.f64.s32	d1, s2
	.loc	1 115 26                        @ packages/cJSON-v1.0.2/cJSON.c:115:26
	vadd.f64	d1, d0, d1
	vmov.f64	d0, #1.000000e+01
	.loc	1 115 11                        @ packages/cJSON-v1.0.2/cJSON.c:115:11
	bl	__hardfp_pow
	vmov.f64	d1, d0
	.loc	1 115 10                        @ packages/cJSON-v1.0.2/cJSON.c:115:10
	vldr	d0, [sp]                        @ 8-byte Reload
	vmul.f64	d0, d0, d1
	.loc	1 115 3                         @ packages/cJSON-v1.0.2/cJSON.c:115:3
	vstr	d0, [sp, #48]
	.loc	1 117 20 is_stmt 1              @ packages/cJSON-v1.0.2/cJSON.c:117:20
	vldr	d0, [sp, #48]
	.loc	1 117 2 is_stmt 0               @ packages/cJSON-v1.0.2/cJSON.c:117:2
	ldr	r0, [sp, #60]
	.loc	1 117 19                        @ packages/cJSON-v1.0.2/cJSON.c:117:19
	vstr	d0, [r0, #24]
	.loc	1 118 22 is_stmt 1              @ packages/cJSON-v1.0.2/cJSON.c:118:22
	vldr	d0, [sp, #48]
	.loc	1 118 2 is_stmt 0               @ packages/cJSON-v1.0.2/cJSON.c:118:2
	ldr	r0, [sp, #60]
	.loc	1 118 16                        @ packages/cJSON-v1.0.2/cJSON.c:118:16
	vcvt.s32.f64	s0, d0
	vstr	s0, [r0, #20]
	.loc	1 119 2 is_stmt 1               @ packages/cJSON-v1.0.2/cJSON.c:119:2
	ldr	r1, [sp, #60]
	movs	r0, #3
	.loc	1 119 12 is_stmt 0              @ packages/cJSON-v1.0.2/cJSON.c:119:12
	str	r0, [r1, #12]
	.loc	1 120 9 is_stmt 1               @ packages/cJSON-v1.0.2/cJSON.c:120:9
	ldr	r0, [sp, #56]
	.loc	1 120 2 is_stmt 0               @ packages/cJSON-v1.0.2/cJSON.c:120:2
	add	sp, #64
	pop	{r7, pc}
.Ltmp480:
.Lfunc_end47:
	.size	parse_number, .Lfunc_end47-parse_number
	.cfi_endproc
	.cantunwind
	.fnend
                                        @ -- End function
	.section	.text.parse_array,"ax",%progbits
	.p2align	3                               @ -- Begin function parse_array
	.type	parse_array,%function
	.code	16                              @ @parse_array
	.thumb_func
parse_array:
.Lfunc_begin48:
	.loc	1 413 0 is_stmt 1               @ packages/cJSON-v1.0.2/cJSON.c:413:0
	.fnstart
	.cfi_startproc
@ %bb.0:
	.save	{r7, lr}
	push	{r7, lr}
	.cfi_def_cfa_offset 8
	.cfi_offset lr, -4
	.cfi_offset r7, -8
	.pad	#32
	sub	sp, #32
	.cfi_def_cfa_offset 40
	str	r0, [sp, #24]
	str	r1, [sp, #20]
.Ltmp481:
	.loc	1 415 7 prologue_end            @ packages/cJSON-v1.0.2/cJSON.c:415:7
	ldr	r0, [sp, #20]
	.loc	1 415 6 is_stmt 0               @ packages/cJSON-v1.0.2/cJSON.c:415:6
	ldrsb.w	r0, [r0]
.Ltmp482:
	.loc	1 415 6                         @ packages/cJSON-v1.0.2/cJSON.c:415:6
	cmp	r0, #91
	beq	.LBB48_2
	b	.LBB48_1
.LBB48_1:
.Ltmp483:
	.loc	1 415 23                        @ packages/cJSON-v1.0.2/cJSON.c:415:23
	ldr	r0, [sp, #20]
	.loc	1 415 22                        @ packages/cJSON-v1.0.2/cJSON.c:415:22
	movw	r1, :lower16:ep
	movt	r1, :upper16:ep
	str	r0, [r1]
	movs	r0, #0
	.loc	1 415 29                        @ packages/cJSON-v1.0.2/cJSON.c:415:29
	str	r0, [sp, #28]
	b	.LBB48_18
.Ltmp484:
.LBB48_2:
	.loc	1 417 2 is_stmt 1               @ packages/cJSON-v1.0.2/cJSON.c:417:2
	ldr	r1, [sp, #24]
	movs	r0, #5
	.loc	1 417 12 is_stmt 0              @ packages/cJSON-v1.0.2/cJSON.c:417:12
	str	r0, [r1, #12]
	.loc	1 418 13 is_stmt 1              @ packages/cJSON-v1.0.2/cJSON.c:418:13
	ldr	r0, [sp, #20]
	.loc	1 418 18 is_stmt 0              @ packages/cJSON-v1.0.2/cJSON.c:418:18
	adds	r0, #1
	.loc	1 418 8                         @ packages/cJSON-v1.0.2/cJSON.c:418:8
	bl	skip
	.loc	1 418 7                         @ packages/cJSON-v1.0.2/cJSON.c:418:7
	str	r0, [sp, #20]
.Ltmp485:
	.loc	1 419 7 is_stmt 1               @ packages/cJSON-v1.0.2/cJSON.c:419:7
	ldr	r0, [sp, #20]
	.loc	1 419 6 is_stmt 0               @ packages/cJSON-v1.0.2/cJSON.c:419:6
	ldrsb.w	r0, [r0]
.Ltmp486:
	.loc	1 419 6                         @ packages/cJSON-v1.0.2/cJSON.c:419:6
	cmp	r0, #93
	bne	.LBB48_4
	b	.LBB48_3
.LBB48_3:
.Ltmp487:
	.loc	1 419 26                        @ packages/cJSON-v1.0.2/cJSON.c:419:26
	ldr	r0, [sp, #20]
	.loc	1 419 31                        @ packages/cJSON-v1.0.2/cJSON.c:419:31
	adds	r0, #1
	.loc	1 419 19                        @ packages/cJSON-v1.0.2/cJSON.c:419:19
	str	r0, [sp, #28]
	b	.LBB48_18
.Ltmp488:
.LBB48_4:
	.loc	1 421 20 is_stmt 1              @ packages/cJSON-v1.0.2/cJSON.c:421:20
	bl	cJSON_New_Item
	.loc	1 421 19 is_stmt 0              @ packages/cJSON-v1.0.2/cJSON.c:421:19
	str	r0, [sp, #16]
	.loc	1 421 2                         @ packages/cJSON-v1.0.2/cJSON.c:421:2
	ldr	r1, [sp, #24]
	.loc	1 421 13                        @ packages/cJSON-v1.0.2/cJSON.c:421:13
	str	r0, [r1, #8]
.Ltmp489:
	.loc	1 422 7 is_stmt 1               @ packages/cJSON-v1.0.2/cJSON.c:422:7
	ldr	r0, [sp, #24]
	.loc	1 422 13 is_stmt 0              @ packages/cJSON-v1.0.2/cJSON.c:422:13
	ldr	r0, [r0, #8]
.Ltmp490:
	.loc	1 422 6                         @ packages/cJSON-v1.0.2/cJSON.c:422:6
	cbnz	r0, .LBB48_6
	b	.LBB48_5
.LBB48_5:
	.loc	1 0 6                           @ packages/cJSON-v1.0.2/cJSON.c:0:6
	movs	r0, #0
.Ltmp491:
	.loc	1 422 20                        @ packages/cJSON-v1.0.2/cJSON.c:422:20
	str	r0, [sp, #28]
	b	.LBB48_18
.Ltmp492:
.LBB48_6:
	.loc	1 423 25 is_stmt 1              @ packages/cJSON-v1.0.2/cJSON.c:423:25
	ldr	r0, [sp, #16]
	.loc	1 423 36 is_stmt 0              @ packages/cJSON-v1.0.2/cJSON.c:423:36
	str	r0, [sp, #8]                    @ 4-byte Spill
	ldr	r0, [sp, #20]
	.loc	1 423 31                        @ packages/cJSON-v1.0.2/cJSON.c:423:31
	bl	skip
	mov	r1, r0
	.loc	1 423 13                        @ packages/cJSON-v1.0.2/cJSON.c:423:13
	ldr	r0, [sp, #8]                    @ 4-byte Reload
	bl	parse_value
	.loc	1 423 8                         @ packages/cJSON-v1.0.2/cJSON.c:423:8
	bl	skip
	.loc	1 423 7                         @ packages/cJSON-v1.0.2/cJSON.c:423:7
	str	r0, [sp, #20]
.Ltmp493:
	.loc	1 424 7 is_stmt 1               @ packages/cJSON-v1.0.2/cJSON.c:424:7
	ldr	r0, [sp, #20]
.Ltmp494:
	.loc	1 424 6 is_stmt 0               @ packages/cJSON-v1.0.2/cJSON.c:424:6
	cbnz	r0, .LBB48_8
	b	.LBB48_7
.LBB48_7:
	.loc	1 0 6                           @ packages/cJSON-v1.0.2/cJSON.c:0:6
	movs	r0, #0
.Ltmp495:
	.loc	1 424 14                        @ packages/cJSON-v1.0.2/cJSON.c:424:14
	str	r0, [sp, #28]
	b	.LBB48_18
.Ltmp496:
.LBB48_8:
	.loc	1 426 2 is_stmt 1               @ packages/cJSON-v1.0.2/cJSON.c:426:2
	b	.LBB48_9
.LBB48_9:                               @ =>This Inner Loop Header: Depth=1
	.loc	1 426 10 is_stmt 0              @ packages/cJSON-v1.0.2/cJSON.c:426:10
	ldr	r0, [sp, #20]
	.loc	1 426 9                         @ packages/cJSON-v1.0.2/cJSON.c:426:9
	ldrsb.w	r0, [r0]
	.loc	1 426 2                         @ packages/cJSON-v1.0.2/cJSON.c:426:2
	cmp	r0, #44
	bne	.LBB48_15
	b	.LBB48_10
.LBB48_10:                              @   in Loop: Header=BB48_9 Depth=1
.Ltmp497:
	.loc	1 429 18 is_stmt 1              @ packages/cJSON-v1.0.2/cJSON.c:429:18
	bl	cJSON_New_Item
	.loc	1 429 17 is_stmt 0              @ packages/cJSON-v1.0.2/cJSON.c:429:17
	str	r0, [sp, #12]
.Ltmp498:
	.loc	1 429 7                         @ packages/cJSON-v1.0.2/cJSON.c:429:7
	cbnz	r0, .LBB48_12
	b	.LBB48_11
.LBB48_11:
	.loc	1 0 7                           @ packages/cJSON-v1.0.2/cJSON.c:0:7
	movs	r0, #0
.Ltmp499:
	.loc	1 429 37                        @ packages/cJSON-v1.0.2/cJSON.c:429:37
	str	r0, [sp, #28]
	b	.LBB48_18
.Ltmp500:
.LBB48_12:                              @   in Loop: Header=BB48_9 Depth=1
	.loc	1 430 15 is_stmt 1              @ packages/cJSON-v1.0.2/cJSON.c:430:15
	ldr	r0, [sp, #12]
	.loc	1 430 3 is_stmt 0               @ packages/cJSON-v1.0.2/cJSON.c:430:3
	ldr	r1, [sp, #16]
	.loc	1 430 14                        @ packages/cJSON-v1.0.2/cJSON.c:430:14
	str	r0, [r1]
	.loc	1 430 39                        @ packages/cJSON-v1.0.2/cJSON.c:430:39
	ldr	r0, [sp, #16]
	.loc	1 430 24                        @ packages/cJSON-v1.0.2/cJSON.c:430:24
	ldr	r1, [sp, #12]
	.loc	1 430 38                        @ packages/cJSON-v1.0.2/cJSON.c:430:38
	str	r0, [r1, #4]
	.loc	1 430 51                        @ packages/cJSON-v1.0.2/cJSON.c:430:51
	ldr	r0, [sp, #12]
	.loc	1 430 50                        @ packages/cJSON-v1.0.2/cJSON.c:430:50
	str	r0, [sp, #16]
	.loc	1 431 26 is_stmt 1              @ packages/cJSON-v1.0.2/cJSON.c:431:26
	ldr	r0, [sp, #16]
	.loc	1 431 37 is_stmt 0              @ packages/cJSON-v1.0.2/cJSON.c:431:37
	str	r0, [sp, #4]                    @ 4-byte Spill
	ldr	r0, [sp, #20]
	.loc	1 431 42                        @ packages/cJSON-v1.0.2/cJSON.c:431:42
	adds	r0, #1
	.loc	1 431 32                        @ packages/cJSON-v1.0.2/cJSON.c:431:32
	bl	skip
	mov	r1, r0
	.loc	1 431 14                        @ packages/cJSON-v1.0.2/cJSON.c:431:14
	ldr	r0, [sp, #4]                    @ 4-byte Reload
	bl	parse_value
	.loc	1 431 9                         @ packages/cJSON-v1.0.2/cJSON.c:431:9
	bl	skip
	.loc	1 431 8                         @ packages/cJSON-v1.0.2/cJSON.c:431:8
	str	r0, [sp, #20]
.Ltmp501:
	.loc	1 432 8 is_stmt 1               @ packages/cJSON-v1.0.2/cJSON.c:432:8
	ldr	r0, [sp, #20]
.Ltmp502:
	.loc	1 432 7 is_stmt 0               @ packages/cJSON-v1.0.2/cJSON.c:432:7
	cbnz	r0, .LBB48_14
	b	.LBB48_13
.LBB48_13:
	.loc	1 0 7                           @ packages/cJSON-v1.0.2/cJSON.c:0:7
	movs	r0, #0
.Ltmp503:
	.loc	1 432 15                        @ packages/cJSON-v1.0.2/cJSON.c:432:15
	str	r0, [sp, #28]
	b	.LBB48_18
.Ltmp504:
.LBB48_14:                              @   in Loop: Header=BB48_9 Depth=1
	.loc	1 426 2 is_stmt 1               @ packages/cJSON-v1.0.2/cJSON.c:426:2
	b	.LBB48_9
.LBB48_15:
.Ltmp505:
	.loc	1 435 7                         @ packages/cJSON-v1.0.2/cJSON.c:435:7
	ldr	r0, [sp, #20]
	.loc	1 435 6 is_stmt 0               @ packages/cJSON-v1.0.2/cJSON.c:435:6
	ldrsb.w	r0, [r0]
.Ltmp506:
	.loc	1 435 6                         @ packages/cJSON-v1.0.2/cJSON.c:435:6
	cmp	r0, #93
	bne	.LBB48_17
	b	.LBB48_16
.LBB48_16:
.Ltmp507:
	.loc	1 435 26                        @ packages/cJSON-v1.0.2/cJSON.c:435:26
	ldr	r0, [sp, #20]
	.loc	1 435 31                        @ packages/cJSON-v1.0.2/cJSON.c:435:31
	adds	r0, #1
	.loc	1 435 19                        @ packages/cJSON-v1.0.2/cJSON.c:435:19
	str	r0, [sp, #28]
	b	.LBB48_18
.Ltmp508:
.LBB48_17:
	.loc	1 436 5 is_stmt 1               @ packages/cJSON-v1.0.2/cJSON.c:436:5
	ldr	r0, [sp, #20]
	.loc	1 436 4 is_stmt 0               @ packages/cJSON-v1.0.2/cJSON.c:436:4
	movw	r1, :lower16:ep
	movt	r1, :upper16:ep
	str	r0, [r1]
	movs	r0, #0
	.loc	1 436 11                        @ packages/cJSON-v1.0.2/cJSON.c:436:11
	str	r0, [sp, #28]
	b	.LBB48_18
.LBB48_18:
	.loc	1 437 1 is_stmt 1               @ packages/cJSON-v1.0.2/cJSON.c:437:1
	ldr	r0, [sp, #28]
	add	sp, #32
	pop	{r7, pc}
.Ltmp509:
.Lfunc_end48:
	.size	parse_array, .Lfunc_end48-parse_array
	.cfi_endproc
	.cantunwind
	.fnend
                                        @ -- End function
	.section	.text.parse_object,"ax",%progbits
	.p2align	3                               @ -- Begin function parse_object
	.type	parse_object,%function
	.code	16                              @ @parse_object
	.thumb_func
parse_object:
.Lfunc_begin49:
	.loc	1 521 0                         @ packages/cJSON-v1.0.2/cJSON.c:521:0
	.fnstart
	.cfi_startproc
@ %bb.0:
	.save	{r7, lr}
	push	{r7, lr}
	.cfi_def_cfa_offset 8
	.cfi_offset lr, -4
	.cfi_offset r7, -8
	.pad	#40
	sub	sp, #40
	.cfi_def_cfa_offset 48
	str	r0, [sp, #32]
	str	r1, [sp, #28]
.Ltmp510:
	.loc	1 523 7 prologue_end            @ packages/cJSON-v1.0.2/cJSON.c:523:7
	ldr	r0, [sp, #28]
	.loc	1 523 6 is_stmt 0               @ packages/cJSON-v1.0.2/cJSON.c:523:6
	ldrsb.w	r0, [r0]
.Ltmp511:
	.loc	1 523 6                         @ packages/cJSON-v1.0.2/cJSON.c:523:6
	cmp	r0, #123
	beq	.LBB49_2
	b	.LBB49_1
.LBB49_1:
.Ltmp512:
	.loc	1 523 23                        @ packages/cJSON-v1.0.2/cJSON.c:523:23
	ldr	r0, [sp, #28]
	.loc	1 523 22                        @ packages/cJSON-v1.0.2/cJSON.c:523:22
	movw	r1, :lower16:ep
	movt	r1, :upper16:ep
	str	r0, [r1]
	movs	r0, #0
	.loc	1 523 29                        @ packages/cJSON-v1.0.2/cJSON.c:523:29
	str	r0, [sp, #36]
	b	.LBB49_26
.Ltmp513:
.LBB49_2:
	.loc	1 525 2 is_stmt 1               @ packages/cJSON-v1.0.2/cJSON.c:525:2
	ldr	r1, [sp, #32]
	movs	r0, #6
	.loc	1 525 12 is_stmt 0              @ packages/cJSON-v1.0.2/cJSON.c:525:12
	str	r0, [r1, #12]
	.loc	1 526 13 is_stmt 1              @ packages/cJSON-v1.0.2/cJSON.c:526:13
	ldr	r0, [sp, #28]
	.loc	1 526 18 is_stmt 0              @ packages/cJSON-v1.0.2/cJSON.c:526:18
	adds	r0, #1
	.loc	1 526 8                         @ packages/cJSON-v1.0.2/cJSON.c:526:8
	bl	skip
	.loc	1 526 7                         @ packages/cJSON-v1.0.2/cJSON.c:526:7
	str	r0, [sp, #28]
.Ltmp514:
	.loc	1 527 7 is_stmt 1               @ packages/cJSON-v1.0.2/cJSON.c:527:7
	ldr	r0, [sp, #28]
	.loc	1 527 6 is_stmt 0               @ packages/cJSON-v1.0.2/cJSON.c:527:6
	ldrsb.w	r0, [r0]
.Ltmp515:
	.loc	1 527 6                         @ packages/cJSON-v1.0.2/cJSON.c:527:6
	cmp	r0, #125
	bne	.LBB49_4
	b	.LBB49_3
.LBB49_3:
.Ltmp516:
	.loc	1 527 26                        @ packages/cJSON-v1.0.2/cJSON.c:527:26
	ldr	r0, [sp, #28]
	.loc	1 527 31                        @ packages/cJSON-v1.0.2/cJSON.c:527:31
	adds	r0, #1
	.loc	1 527 19                        @ packages/cJSON-v1.0.2/cJSON.c:527:19
	str	r0, [sp, #36]
	b	.LBB49_26
.Ltmp517:
.LBB49_4:
	.loc	1 529 20 is_stmt 1              @ packages/cJSON-v1.0.2/cJSON.c:529:20
	bl	cJSON_New_Item
	.loc	1 529 19 is_stmt 0              @ packages/cJSON-v1.0.2/cJSON.c:529:19
	str	r0, [sp, #24]
	.loc	1 529 2                         @ packages/cJSON-v1.0.2/cJSON.c:529:2
	ldr	r1, [sp, #32]
	.loc	1 529 13                        @ packages/cJSON-v1.0.2/cJSON.c:529:13
	str	r0, [r1, #8]
.Ltmp518:
	.loc	1 530 7 is_stmt 1               @ packages/cJSON-v1.0.2/cJSON.c:530:7
	ldr	r0, [sp, #32]
	.loc	1 530 13 is_stmt 0              @ packages/cJSON-v1.0.2/cJSON.c:530:13
	ldr	r0, [r0, #8]
.Ltmp519:
	.loc	1 530 6                         @ packages/cJSON-v1.0.2/cJSON.c:530:6
	cbnz	r0, .LBB49_6
	b	.LBB49_5
.LBB49_5:
	.loc	1 0 6                           @ packages/cJSON-v1.0.2/cJSON.c:0:6
	movs	r0, #0
.Ltmp520:
	.loc	1 530 20                        @ packages/cJSON-v1.0.2/cJSON.c:530:20
	str	r0, [sp, #36]
	b	.LBB49_26
.Ltmp521:
.LBB49_6:
	.loc	1 531 26 is_stmt 1              @ packages/cJSON-v1.0.2/cJSON.c:531:26
	ldr	r0, [sp, #24]
	.loc	1 531 37 is_stmt 0              @ packages/cJSON-v1.0.2/cJSON.c:531:37
	str	r0, [sp, #16]                   @ 4-byte Spill
	ldr	r0, [sp, #28]
	.loc	1 531 32                        @ packages/cJSON-v1.0.2/cJSON.c:531:32
	bl	skip
	mov	r1, r0
	.loc	1 531 13                        @ packages/cJSON-v1.0.2/cJSON.c:531:13
	ldr	r0, [sp, #16]                   @ 4-byte Reload
	bl	parse_string
	.loc	1 531 8                         @ packages/cJSON-v1.0.2/cJSON.c:531:8
	bl	skip
	.loc	1 531 7                         @ packages/cJSON-v1.0.2/cJSON.c:531:7
	str	r0, [sp, #28]
.Ltmp522:
	.loc	1 532 7 is_stmt 1               @ packages/cJSON-v1.0.2/cJSON.c:532:7
	ldr	r0, [sp, #28]
.Ltmp523:
	.loc	1 532 6 is_stmt 0               @ packages/cJSON-v1.0.2/cJSON.c:532:6
	cbnz	r0, .LBB49_8
	b	.LBB49_7
.LBB49_7:
	.loc	1 0 6                           @ packages/cJSON-v1.0.2/cJSON.c:0:6
	movs	r0, #0
.Ltmp524:
	.loc	1 532 14                        @ packages/cJSON-v1.0.2/cJSON.c:532:14
	str	r0, [sp, #36]
	b	.LBB49_26
.Ltmp525:
.LBB49_8:
	.loc	1 533 16 is_stmt 1              @ packages/cJSON-v1.0.2/cJSON.c:533:16
	ldr	r1, [sp, #24]
	.loc	1 533 23 is_stmt 0              @ packages/cJSON-v1.0.2/cJSON.c:533:23
	ldr	r0, [r1, #16]
	.loc	1 533 15                        @ packages/cJSON-v1.0.2/cJSON.c:533:15
	str	r0, [r1, #32]
	.loc	1 533 35                        @ packages/cJSON-v1.0.2/cJSON.c:533:35
	ldr	r1, [sp, #24]
	movs	r0, #0
	.loc	1 533 53                        @ packages/cJSON-v1.0.2/cJSON.c:533:53
	str	r0, [r1, #16]
.Ltmp526:
	.loc	1 534 7 is_stmt 1               @ packages/cJSON-v1.0.2/cJSON.c:534:7
	ldr	r0, [sp, #28]
	.loc	1 534 6 is_stmt 0               @ packages/cJSON-v1.0.2/cJSON.c:534:6
	ldrsb.w	r0, [r0]
.Ltmp527:
	.loc	1 534 6                         @ packages/cJSON-v1.0.2/cJSON.c:534:6
	cmp	r0, #58
	beq	.LBB49_10
	b	.LBB49_9
.LBB49_9:
.Ltmp528:
	.loc	1 534 23                        @ packages/cJSON-v1.0.2/cJSON.c:534:23
	ldr	r0, [sp, #28]
	.loc	1 534 22                        @ packages/cJSON-v1.0.2/cJSON.c:534:22
	movw	r1, :lower16:ep
	movt	r1, :upper16:ep
	str	r0, [r1]
	movs	r0, #0
	.loc	1 534 29                        @ packages/cJSON-v1.0.2/cJSON.c:534:29
	str	r0, [sp, #36]
	b	.LBB49_26
.Ltmp529:
.LBB49_10:
	.loc	1 535 25 is_stmt 1              @ packages/cJSON-v1.0.2/cJSON.c:535:25
	ldr	r0, [sp, #24]
	.loc	1 535 36 is_stmt 0              @ packages/cJSON-v1.0.2/cJSON.c:535:36
	str	r0, [sp, #12]                   @ 4-byte Spill
	ldr	r0, [sp, #28]
	.loc	1 535 41                        @ packages/cJSON-v1.0.2/cJSON.c:535:41
	adds	r0, #1
	.loc	1 535 31                        @ packages/cJSON-v1.0.2/cJSON.c:535:31
	bl	skip
	mov	r1, r0
	.loc	1 535 13                        @ packages/cJSON-v1.0.2/cJSON.c:535:13
	ldr	r0, [sp, #12]                   @ 4-byte Reload
	bl	parse_value
	.loc	1 535 8                         @ packages/cJSON-v1.0.2/cJSON.c:535:8
	bl	skip
	.loc	1 535 7                         @ packages/cJSON-v1.0.2/cJSON.c:535:7
	str	r0, [sp, #28]
.Ltmp530:
	.loc	1 536 7 is_stmt 1               @ packages/cJSON-v1.0.2/cJSON.c:536:7
	ldr	r0, [sp, #28]
.Ltmp531:
	.loc	1 536 6 is_stmt 0               @ packages/cJSON-v1.0.2/cJSON.c:536:6
	cbnz	r0, .LBB49_12
	b	.LBB49_11
.LBB49_11:
	.loc	1 0 6                           @ packages/cJSON-v1.0.2/cJSON.c:0:6
	movs	r0, #0
.Ltmp532:
	.loc	1 536 14                        @ packages/cJSON-v1.0.2/cJSON.c:536:14
	str	r0, [sp, #36]
	b	.LBB49_26
.Ltmp533:
.LBB49_12:
	.loc	1 538 2 is_stmt 1               @ packages/cJSON-v1.0.2/cJSON.c:538:2
	b	.LBB49_13
.LBB49_13:                              @ =>This Inner Loop Header: Depth=1
	.loc	1 538 10 is_stmt 0              @ packages/cJSON-v1.0.2/cJSON.c:538:10
	ldr	r0, [sp, #28]
	.loc	1 538 9                         @ packages/cJSON-v1.0.2/cJSON.c:538:9
	ldrsb.w	r0, [r0]
	.loc	1 538 2                         @ packages/cJSON-v1.0.2/cJSON.c:538:2
	cmp	r0, #44
	bne	.LBB49_23
	b	.LBB49_14
.LBB49_14:                              @   in Loop: Header=BB49_13 Depth=1
.Ltmp534:
	.loc	1 541 18 is_stmt 1              @ packages/cJSON-v1.0.2/cJSON.c:541:18
	bl	cJSON_New_Item
	.loc	1 541 17 is_stmt 0              @ packages/cJSON-v1.0.2/cJSON.c:541:17
	str	r0, [sp, #20]
.Ltmp535:
	.loc	1 541 7                         @ packages/cJSON-v1.0.2/cJSON.c:541:7
	cbnz	r0, .LBB49_16
	b	.LBB49_15
.LBB49_15:
	.loc	1 0 7                           @ packages/cJSON-v1.0.2/cJSON.c:0:7
	movs	r0, #0
.Ltmp536:
	.loc	1 541 37                        @ packages/cJSON-v1.0.2/cJSON.c:541:37
	str	r0, [sp, #36]
	b	.LBB49_26
.Ltmp537:
.LBB49_16:                              @   in Loop: Header=BB49_13 Depth=1
	.loc	1 542 15 is_stmt 1              @ packages/cJSON-v1.0.2/cJSON.c:542:15
	ldr	r0, [sp, #20]
	.loc	1 542 3 is_stmt 0               @ packages/cJSON-v1.0.2/cJSON.c:542:3
	ldr	r1, [sp, #24]
	.loc	1 542 14                        @ packages/cJSON-v1.0.2/cJSON.c:542:14
	str	r0, [r1]
	.loc	1 542 39                        @ packages/cJSON-v1.0.2/cJSON.c:542:39
	ldr	r0, [sp, #24]
	.loc	1 542 24                        @ packages/cJSON-v1.0.2/cJSON.c:542:24
	ldr	r1, [sp, #20]
	.loc	1 542 38                        @ packages/cJSON-v1.0.2/cJSON.c:542:38
	str	r0, [r1, #4]
	.loc	1 542 51                        @ packages/cJSON-v1.0.2/cJSON.c:542:51
	ldr	r0, [sp, #20]
	.loc	1 542 50                        @ packages/cJSON-v1.0.2/cJSON.c:542:50
	str	r0, [sp, #24]
	.loc	1 543 27 is_stmt 1              @ packages/cJSON-v1.0.2/cJSON.c:543:27
	ldr	r0, [sp, #24]
	.loc	1 543 38 is_stmt 0              @ packages/cJSON-v1.0.2/cJSON.c:543:38
	str	r0, [sp, #8]                    @ 4-byte Spill
	ldr	r0, [sp, #28]
	.loc	1 543 43                        @ packages/cJSON-v1.0.2/cJSON.c:543:43
	adds	r0, #1
	.loc	1 543 33                        @ packages/cJSON-v1.0.2/cJSON.c:543:33
	bl	skip
	mov	r1, r0
	.loc	1 543 14                        @ packages/cJSON-v1.0.2/cJSON.c:543:14
	ldr	r0, [sp, #8]                    @ 4-byte Reload
	bl	parse_string
	.loc	1 543 9                         @ packages/cJSON-v1.0.2/cJSON.c:543:9
	bl	skip
	.loc	1 543 8                         @ packages/cJSON-v1.0.2/cJSON.c:543:8
	str	r0, [sp, #28]
.Ltmp538:
	.loc	1 544 8 is_stmt 1               @ packages/cJSON-v1.0.2/cJSON.c:544:8
	ldr	r0, [sp, #28]
.Ltmp539:
	.loc	1 544 7 is_stmt 0               @ packages/cJSON-v1.0.2/cJSON.c:544:7
	cbnz	r0, .LBB49_18
	b	.LBB49_17
.LBB49_17:
	.loc	1 0 7                           @ packages/cJSON-v1.0.2/cJSON.c:0:7
	movs	r0, #0
.Ltmp540:
	.loc	1 544 15                        @ packages/cJSON-v1.0.2/cJSON.c:544:15
	str	r0, [sp, #36]
	b	.LBB49_26
.Ltmp541:
.LBB49_18:                              @   in Loop: Header=BB49_13 Depth=1
	.loc	1 545 17 is_stmt 1              @ packages/cJSON-v1.0.2/cJSON.c:545:17
	ldr	r1, [sp, #24]
	.loc	1 545 24 is_stmt 0              @ packages/cJSON-v1.0.2/cJSON.c:545:24
	ldr	r0, [r1, #16]
	.loc	1 545 16                        @ packages/cJSON-v1.0.2/cJSON.c:545:16
	str	r0, [r1, #32]
	.loc	1 545 36                        @ packages/cJSON-v1.0.2/cJSON.c:545:36
	ldr	r1, [sp, #24]
	movs	r0, #0
	.loc	1 545 54                        @ packages/cJSON-v1.0.2/cJSON.c:545:54
	str	r0, [r1, #16]
.Ltmp542:
	.loc	1 546 8 is_stmt 1               @ packages/cJSON-v1.0.2/cJSON.c:546:8
	ldr	r0, [sp, #28]
	.loc	1 546 7 is_stmt 0               @ packages/cJSON-v1.0.2/cJSON.c:546:7
	ldrsb.w	r0, [r0]
.Ltmp543:
	.loc	1 546 7                         @ packages/cJSON-v1.0.2/cJSON.c:546:7
	cmp	r0, #58
	beq	.LBB49_20
	b	.LBB49_19
.LBB49_19:
.Ltmp544:
	.loc	1 546 24                        @ packages/cJSON-v1.0.2/cJSON.c:546:24
	ldr	r0, [sp, #28]
	.loc	1 546 23                        @ packages/cJSON-v1.0.2/cJSON.c:546:23
	movw	r1, :lower16:ep
	movt	r1, :upper16:ep
	str	r0, [r1]
	movs	r0, #0
	.loc	1 546 30                        @ packages/cJSON-v1.0.2/cJSON.c:546:30
	str	r0, [sp, #36]
	b	.LBB49_26
.Ltmp545:
.LBB49_20:                              @   in Loop: Header=BB49_13 Depth=1
	.loc	1 547 26 is_stmt 1              @ packages/cJSON-v1.0.2/cJSON.c:547:26
	ldr	r0, [sp, #24]
	.loc	1 547 37 is_stmt 0              @ packages/cJSON-v1.0.2/cJSON.c:547:37
	str	r0, [sp, #4]                    @ 4-byte Spill
	ldr	r0, [sp, #28]
	.loc	1 547 42                        @ packages/cJSON-v1.0.2/cJSON.c:547:42
	adds	r0, #1
	.loc	1 547 32                        @ packages/cJSON-v1.0.2/cJSON.c:547:32
	bl	skip
	mov	r1, r0
	.loc	1 547 14                        @ packages/cJSON-v1.0.2/cJSON.c:547:14
	ldr	r0, [sp, #4]                    @ 4-byte Reload
	bl	parse_value
	.loc	1 547 9                         @ packages/cJSON-v1.0.2/cJSON.c:547:9
	bl	skip
	.loc	1 547 8                         @ packages/cJSON-v1.0.2/cJSON.c:547:8
	str	r0, [sp, #28]
.Ltmp546:
	.loc	1 548 8 is_stmt 1               @ packages/cJSON-v1.0.2/cJSON.c:548:8
	ldr	r0, [sp, #28]
.Ltmp547:
	.loc	1 548 7 is_stmt 0               @ packages/cJSON-v1.0.2/cJSON.c:548:7
	cbnz	r0, .LBB49_22
	b	.LBB49_21
.LBB49_21:
	.loc	1 0 7                           @ packages/cJSON-v1.0.2/cJSON.c:0:7
	movs	r0, #0
.Ltmp548:
	.loc	1 548 15                        @ packages/cJSON-v1.0.2/cJSON.c:548:15
	str	r0, [sp, #36]
	b	.LBB49_26
.Ltmp549:
.LBB49_22:                              @   in Loop: Header=BB49_13 Depth=1
	.loc	1 538 2 is_stmt 1               @ packages/cJSON-v1.0.2/cJSON.c:538:2
	b	.LBB49_13
.LBB49_23:
.Ltmp550:
	.loc	1 551 7                         @ packages/cJSON-v1.0.2/cJSON.c:551:7
	ldr	r0, [sp, #28]
	.loc	1 551 6 is_stmt 0               @ packages/cJSON-v1.0.2/cJSON.c:551:6
	ldrsb.w	r0, [r0]
.Ltmp551:
	.loc	1 551 6                         @ packages/cJSON-v1.0.2/cJSON.c:551:6
	cmp	r0, #125
	bne	.LBB49_25
	b	.LBB49_24
.LBB49_24:
.Ltmp552:
	.loc	1 551 26                        @ packages/cJSON-v1.0.2/cJSON.c:551:26
	ldr	r0, [sp, #28]
	.loc	1 551 31                        @ packages/cJSON-v1.0.2/cJSON.c:551:31
	adds	r0, #1
	.loc	1 551 19                        @ packages/cJSON-v1.0.2/cJSON.c:551:19
	str	r0, [sp, #36]
	b	.LBB49_26
.Ltmp553:
.LBB49_25:
	.loc	1 552 5 is_stmt 1               @ packages/cJSON-v1.0.2/cJSON.c:552:5
	ldr	r0, [sp, #28]
	.loc	1 552 4 is_stmt 0               @ packages/cJSON-v1.0.2/cJSON.c:552:4
	movw	r1, :lower16:ep
	movt	r1, :upper16:ep
	str	r0, [r1]
	movs	r0, #0
	.loc	1 552 11                        @ packages/cJSON-v1.0.2/cJSON.c:552:11
	str	r0, [sp, #36]
	b	.LBB49_26
.LBB49_26:
	.loc	1 553 1 is_stmt 1               @ packages/cJSON-v1.0.2/cJSON.c:553:1
	ldr	r0, [sp, #36]
	add	sp, #40
	pop	{r7, pc}
.Ltmp554:
.Lfunc_end49:
	.size	parse_object, .Lfunc_end49-parse_object
	.cfi_endproc
	.cantunwind
	.fnend
                                        @ -- End function
	.section	.text.parse_hex4,"ax",%progbits
	.p2align	3                               @ -- Begin function parse_hex4
	.type	parse_hex4,%function
	.code	16                              @ @parse_hex4
	.thumb_func
parse_hex4:
.Lfunc_begin50:
	.loc	1 184 0                         @ packages/cJSON-v1.0.2/cJSON.c:184:0
	.fnstart
	.cfi_startproc
@ %bb.0:
	.pad	#12
	sub	sp, #12
	.cfi_def_cfa_offset 12
	str	r0, [sp, #4]
	movs	r0, #0
.Ltmp555:
	.loc	1 185 11 prologue_end           @ packages/cJSON-v1.0.2/cJSON.c:185:11
	str	r0, [sp]
.Ltmp556:
	.loc	1 186 7                         @ packages/cJSON-v1.0.2/cJSON.c:186:7
	ldr	r0, [sp, #4]
	.loc	1 186 6 is_stmt 0               @ packages/cJSON-v1.0.2/cJSON.c:186:6
	ldrsb.w	r0, [r0]
	.loc	1 186 16                        @ packages/cJSON-v1.0.2/cJSON.c:186:16
	cmp	r0, #48
	blt	.LBB50_3
	b	.LBB50_1
.LBB50_1:
	.loc	1 186 20                        @ packages/cJSON-v1.0.2/cJSON.c:186:20
	ldr	r0, [sp, #4]
	.loc	1 186 19                        @ packages/cJSON-v1.0.2/cJSON.c:186:19
	ldrsb.w	r0, [r0]
.Ltmp557:
	.loc	1 186 6                         @ packages/cJSON-v1.0.2/cJSON.c:186:6
	cmp	r0, #57
	bgt	.LBB50_3
	b	.LBB50_2
.LBB50_2:
.Ltmp558:
	.loc	1 186 35                        @ packages/cJSON-v1.0.2/cJSON.c:186:35
	ldr	r0, [sp, #4]
	.loc	1 186 34                        @ packages/cJSON-v1.0.2/cJSON.c:186:34
	ldrsb.w	r0, [r0]
	.loc	1 186 31                        @ packages/cJSON-v1.0.2/cJSON.c:186:31
	ldr	r1, [sp]
	add	r0, r1
	subs	r0, #48
	str	r0, [sp]
	.loc	1 186 30                        @ packages/cJSON-v1.0.2/cJSON.c:186:30
	b	.LBB50_12
.LBB50_3:
.Ltmp559:
	.loc	1 186 55                        @ packages/cJSON-v1.0.2/cJSON.c:186:55
	ldr	r0, [sp, #4]
	.loc	1 186 54                        @ packages/cJSON-v1.0.2/cJSON.c:186:54
	ldrsb.w	r0, [r0]
	.loc	1 186 64                        @ packages/cJSON-v1.0.2/cJSON.c:186:64
	cmp	r0, #65
	blt	.LBB50_6
	b	.LBB50_4
.LBB50_4:
	.loc	1 186 68                        @ packages/cJSON-v1.0.2/cJSON.c:186:68
	ldr	r0, [sp, #4]
	.loc	1 186 67                        @ packages/cJSON-v1.0.2/cJSON.c:186:67
	ldrsb.w	r0, [r0]
.Ltmp560:
	.loc	1 186 54                        @ packages/cJSON-v1.0.2/cJSON.c:186:54
	cmp	r0, #70
	bgt	.LBB50_6
	b	.LBB50_5
.LBB50_5:
.Ltmp561:
	.loc	1 186 86                        @ packages/cJSON-v1.0.2/cJSON.c:186:86
	ldr	r0, [sp, #4]
	.loc	1 186 85                        @ packages/cJSON-v1.0.2/cJSON.c:186:85
	ldrsb.w	r0, [r0]
	.loc	1 186 79                        @ packages/cJSON-v1.0.2/cJSON.c:186:79
	ldr	r1, [sp]
	.loc	1 186 83                        @ packages/cJSON-v1.0.2/cJSON.c:186:83
	add	r0, r1
	.loc	1 186 79                        @ packages/cJSON-v1.0.2/cJSON.c:186:79
	subs	r0, #55
	str	r0, [sp]
	.loc	1 186 78                        @ packages/cJSON-v1.0.2/cJSON.c:186:78
	b	.LBB50_11
.LBB50_6:
.Ltmp562:
	.loc	1 186 106                       @ packages/cJSON-v1.0.2/cJSON.c:186:106
	ldr	r0, [sp, #4]
	.loc	1 186 105                       @ packages/cJSON-v1.0.2/cJSON.c:186:105
	ldrsb.w	r0, [r0]
	.loc	1 186 115                       @ packages/cJSON-v1.0.2/cJSON.c:186:115
	cmp	r0, #97
	blt	.LBB50_9
	b	.LBB50_7
.LBB50_7:
	.loc	1 186 119                       @ packages/cJSON-v1.0.2/cJSON.c:186:119
	ldr	r0, [sp, #4]
	.loc	1 186 118                       @ packages/cJSON-v1.0.2/cJSON.c:186:118
	ldrsb.w	r0, [r0]
.Ltmp563:
	.loc	1 186 105                       @ packages/cJSON-v1.0.2/cJSON.c:186:105
	cmp	r0, #102
	bgt	.LBB50_9
	b	.LBB50_8
.LBB50_8:
.Ltmp564:
	.loc	1 186 137                       @ packages/cJSON-v1.0.2/cJSON.c:186:137
	ldr	r0, [sp, #4]
	.loc	1 186 136                       @ packages/cJSON-v1.0.2/cJSON.c:186:136
	ldrsb.w	r0, [r0]
	.loc	1 186 130                       @ packages/cJSON-v1.0.2/cJSON.c:186:130
	ldr	r1, [sp]
	.loc	1 186 134                       @ packages/cJSON-v1.0.2/cJSON.c:186:134
	add	r0, r1
	.loc	1 186 130                       @ packages/cJSON-v1.0.2/cJSON.c:186:130
	subs	r0, #87
	str	r0, [sp]
	.loc	1 186 129                       @ packages/cJSON-v1.0.2/cJSON.c:186:129
	b	.LBB50_10
.LBB50_9:
	.loc	1 0 129                         @ packages/cJSON-v1.0.2/cJSON.c:0:129
	movs	r0, #0
	.loc	1 186 152                       @ packages/cJSON-v1.0.2/cJSON.c:186:152
	str	r0, [sp, #8]
	b	.LBB50_49
.Ltmp565:
.LBB50_10:
	.loc	1 0 152                         @ packages/cJSON-v1.0.2/cJSON.c:0:152
	b	.LBB50_11
.LBB50_11:
	b	.LBB50_12
.LBB50_12:
	.loc	1 187 4 is_stmt 1               @ packages/cJSON-v1.0.2/cJSON.c:187:4
	ldr	r0, [sp]
	.loc	1 187 5 is_stmt 0               @ packages/cJSON-v1.0.2/cJSON.c:187:5
	lsls	r0, r0, #4
	.loc	1 187 3                         @ packages/cJSON-v1.0.2/cJSON.c:187:3
	str	r0, [sp]
	.loc	1 187 12                        @ packages/cJSON-v1.0.2/cJSON.c:187:12
	ldr	r0, [sp, #4]
	adds	r0, #1
	str	r0, [sp, #4]
.Ltmp566:
	.loc	1 188 7 is_stmt 1               @ packages/cJSON-v1.0.2/cJSON.c:188:7
	ldr	r0, [sp, #4]
	.loc	1 188 6 is_stmt 0               @ packages/cJSON-v1.0.2/cJSON.c:188:6
	ldrsb.w	r0, [r0]
	.loc	1 188 16                        @ packages/cJSON-v1.0.2/cJSON.c:188:16
	cmp	r0, #48
	blt	.LBB50_15
	b	.LBB50_13
.LBB50_13:
	.loc	1 188 20                        @ packages/cJSON-v1.0.2/cJSON.c:188:20
	ldr	r0, [sp, #4]
	.loc	1 188 19                        @ packages/cJSON-v1.0.2/cJSON.c:188:19
	ldrsb.w	r0, [r0]
.Ltmp567:
	.loc	1 188 6                         @ packages/cJSON-v1.0.2/cJSON.c:188:6
	cmp	r0, #57
	bgt	.LBB50_15
	b	.LBB50_14
.LBB50_14:
.Ltmp568:
