	.text
	.syntax unified
	.eabi_attribute	67, "2.09"	@ Tag_conformance
	.cpu	cortex-m7
	.eabi_attribute	6, 13	@ Tag_CPU_arch
	.eabi_attribute	7, 77	@ Tag_CPU_arch_profile
	.eabi_attribute	8, 0	@ Tag_ARM_ISA_use
	.eabi_attribute	9, 2	@ Tag_THUMB_ISA_use
	.fpu	fpv5-d16
	.eabi_attribute	36, 1	@ Tag_FP_HP_extension
	.eabi_attribute	34, 1	@ Tag_CPU_unaligned_access
	.eabi_attribute	17, 1	@ Tag_ABI_PCS_GOT_use
	.eabi_attribute	20, 2	@ Tag_ABI_FP_denormal
	.eabi_attribute	21, 0	@ Tag_ABI_FP_exceptions
	.eabi_attribute	23, 1	@ Tag_ABI_FP_number_model
	.eabi_attribute	24, 1	@ Tag_ABI_align_needed
	.eabi_attribute	25, 1	@ Tag_ABI_align_preserved
	.eabi_attribute	28, 1	@ Tag_ABI_VFP_args
	.eabi_attribute	38, 1	@ Tag_ABI_FP_16bit_format
	.eabi_attribute	18, 2	@ Tag_ABI_PCS_wchar_t
	.eabi_attribute	26, 1	@ Tag_ABI_enum_size
	.eabi_attribute	14, 0	@ Tag_ABI_PCS_R9_use
	.file	"clock.c"
	.file	1 "E:\\Smart-access-control\\Hardware\\CODE" "rt-thread/include\\rtdef.h"
	.file	2 "E:\\Smart-access-control\\Hardware\\CODE" "rt-thread/src/clock.c"
	.section	.text.rt_system_tick_init,"ax",%progbits
	.hidden	rt_system_tick_init             @ -- Begin function rt_system_tick_init
	.globl	rt_system_tick_init
	.p2align	3
	.type	rt_system_tick_init,%function
	.code	16                              @ @rt_system_tick_init
	.thumb_func
rt_system_tick_init:
.Lfunc_begin0:
	.loc	2 35 0                          @ rt-thread/src/clock.c:35:0
	.fnstart
	.cfi_sections .debug_frame
	.cfi_startproc
@ %bb.0:
	.loc	2 36 1 prologue_end             @ rt-thread/src/clock.c:36:1
	bx	lr
.Ltmp0:
.Lfunc_end0:
	.size	rt_system_tick_init, .Lfunc_end0-rt_system_tick_init
	.cfi_endproc
	.cantunwind
	.fnend
                                        @ -- End function
	.section	.text.rt_tick_get,"ax",%progbits
	.hidden	rt_tick_get                     @ -- Begin function rt_tick_get
	.globl	rt_tick_get
	.p2align	3
	.type	rt_tick_get,%function
	.code	16                              @ @rt_tick_get
	.thumb_func
rt_tick_get:
.Lfunc_begin1:
	.loc	2 50 0                          @ rt-thread/src/clock.c:50:0
	.fnstart
	.cfi_startproc
@ %bb.0:
	.loc	2 52 12 prologue_end            @ rt-thread/src/clock.c:52:12
	movw	r0, :lower16:rt_tick
	movt	r0, :upper16:rt_tick
	ldr	r0, [r0]
	.loc	2 52 5 is_stmt 0                @ rt-thread/src/clock.c:52:5
	bx	lr
.Ltmp1:
.Lfunc_end1:
	.size	rt_tick_get, .Lfunc_end1-rt_tick_get
	.cfi_endproc
	.cantunwind
	.fnend
                                        @ -- End function
	.section	.text.rt_tick_set,"ax",%progbits
	.hidden	rt_tick_set                     @ -- Begin function rt_tick_set
	.globl	rt_tick_set
	.p2align	3
	.type	rt_tick_set,%function
	.code	16                              @ @rt_tick_set
	.thumb_func
rt_tick_set:
.Lfunc_begin2:
	.loc	2 60 0 is_stmt 1                @ rt-thread/src/clock.c:60:0
	.fnstart
	.cfi_startproc
@ %bb.0:
	.save	{r7, lr}
	push	{r7, lr}
	.cfi_def_cfa_offset 8
	.cfi_offset lr, -4
	.cfi_offset r7, -8
	.pad	#8
	sub	sp, #8
	.cfi_def_cfa_offset 16
	str	r0, [sp, #4]
.Ltmp2:
	.loc	2 63 13 prologue_end            @ rt-thread/src/clock.c:63:13
	bl	rt_hw_interrupt_disable
	.loc	2 63 11 is_stmt 0               @ rt-thread/src/clock.c:63:11
	str	r0, [sp]
	.loc	2 64 15 is_stmt 1               @ rt-thread/src/clock.c:64:15
	ldr	r0, [sp, #4]
	.loc	2 64 13 is_stmt 0               @ rt-thread/src/clock.c:64:13
	movw	r1, :lower16:rt_tick
	movt	r1, :upper16:rt_tick
	str	r0, [r1]
	.loc	2 65 28 is_stmt 1               @ rt-thread/src/clock.c:65:28
	ldr	r0, [sp]
	.loc	2 65 5 is_stmt 0                @ rt-thread/src/clock.c:65:5
	bl	rt_hw_interrupt_enable
	.loc	2 66 1 is_stmt 1                @ rt-thread/src/clock.c:66:1
	add	sp, #8
	pop	{r7, pc}
.Ltmp3:
.Lfunc_end2:
	.size	rt_tick_set, .Lfunc_end2-rt_tick_set
	.cfi_endproc
	.cantunwind
	.fnend
                                        @ -- End function
	.section	.text.rt_tick_increase,"ax",%progbits
	.hidden	rt_tick_increase                @ -- Begin function rt_tick_increase
	.globl	rt_tick_increase
	.p2align	3
	.type	rt_tick_increase,%function
	.code	16                              @ @rt_tick_increase
	.thumb_func
rt_tick_increase:
.Lfunc_begin3:
	.loc	2 73 0                          @ rt-thread/src/clock.c:73:0
	.fnstart
	.cfi_startproc
@ %bb.0:
	.save	{r7, lr}
	push	{r7, lr}
	.cfi_def_cfa_offset 8
	.cfi_offset lr, -4
	.cfi_offset r7, -8
	.pad	#8
	sub	sp, #8
	.cfi_def_cfa_offset 16
.Ltmp4:
	.loc	2 80 5 prologue_end             @ rt-thread/src/clock.c:80:5
	movw	r1, :lower16:rt_tick
	movt	r1, :upper16:rt_tick
	ldr	r0, [r1]
	adds	r0, #1
	str	r0, [r1]
	.loc	2 84 14                         @ rt-thread/src/clock.c:84:14
	bl	rt_thread_self
	.loc	2 84 12 is_stmt 0               @ rt-thread/src/clock.c:84:12
	str	r0, [sp, #4]
	.loc	2 86 8 is_stmt 1                @ rt-thread/src/clock.c:86:8
	ldr	r1, [sp, #4]
	.loc	2 86 5 is_stmt 0                @ rt-thread/src/clock.c:86:5
	ldr	r0, [r1, #72]
	subs	r0, #1
	str	r0, [r1, #72]
.Ltmp5:
	.loc	2 87 9 is_stmt 1                @ rt-thread/src/clock.c:87:9
	ldr	r0, [sp, #4]
	.loc	2 87 17 is_stmt 0               @ rt-thread/src/clock.c:87:17
	ldr	r0, [r0, #72]
.Ltmp6:
	.loc	2 87 9                          @ rt-thread/src/clock.c:87:9
	cbnz	r0, .LBB3_2
	b	.LBB3_1
.LBB3_1:
.Ltmp7:
	.loc	2 90 34 is_stmt 1               @ rt-thread/src/clock.c:90:34
	ldr	r1, [sp, #4]
	.loc	2 90 42 is_stmt 0               @ rt-thread/src/clock.c:90:42
	ldr	r0, [r1, #68]
	.loc	2 90 32                         @ rt-thread/src/clock.c:90:32
	str	r0, [r1, #72]
	.loc	2 92 9 is_stmt 1                @ rt-thread/src/clock.c:92:9
	ldr	r1, [sp, #4]
	.loc	2 92 22 is_stmt 0               @ rt-thread/src/clock.c:92:22
	ldrb.w	r0, [r1, #52]
	orr	r0, r0, #8
	strb.w	r0, [r1, #52]
	.loc	2 95 9 is_stmt 1                @ rt-thread/src/clock.c:95:9
	bl	rt_thread_yield
	.loc	2 96 5                          @ rt-thread/src/clock.c:96:5
	b	.LBB3_2
.Ltmp8:
.LBB3_2:
	.loc	2 99 5                          @ rt-thread/src/clock.c:99:5
	bl	rt_timer_check
	.loc	2 100 1                         @ rt-thread/src/clock.c:100:1
	add	sp, #8
	pop	{r7, pc}
.Ltmp9:
.Lfunc_end3:
	.size	rt_tick_increase, .Lfunc_end3-rt_tick_increase
	.cfi_endproc
	.cantunwind
	.fnend
                                        @ -- End function
	.section	.text.rt_tick_from_millisecond,"ax",%progbits
	.hidden	rt_tick_from_millisecond        @ -- Begin function rt_tick_from_millisecond
	.globl	rt_tick_from_millisecond
	.p2align	3
	.type	rt_tick_from_millisecond,%function
	.code	16                              @ @rt_tick_from_millisecond
	.thumb_func
rt_tick_from_millisecond:
.Lfunc_begin4:
	.loc	2 113 0                         @ rt-thread/src/clock.c:113:0
	.fnstart
	.cfi_startproc
@ %bb.0:
	.pad	#8
	sub	sp, #8
	.cfi_def_cfa_offset 8
	str	r0, [sp, #4]
.Ltmp10:
	.loc	2 116 9 prologue_end            @ rt-thread/src/clock.c:116:9
	ldr	r0, [sp, #4]
.Ltmp11:
	.loc	2 116 9 is_stmt 0               @ rt-thread/src/clock.c:116:9
	cmp.w	r0, #-1
	bgt	.LBB4_2
	b	.LBB4_1
.LBB4_1:
	.loc	2 0 9                           @ rt-thread/src/clock.c:0:9
	mov.w	r0, #-1
.Ltmp12:
	.loc	2 118 14 is_stmt 1              @ rt-thread/src/clock.c:118:14
	str	r0, [sp]
	.loc	2 119 5                         @ rt-thread/src/clock.c:119:5
	b	.LBB4_3
.Ltmp13:
.LBB4_2:
	.loc	2 122 38                        @ rt-thread/src/clock.c:122:38
	ldr	r0, [sp, #4]
	movw	r1, #19923
	movt	r1, #4194
	.loc	2 122 41 is_stmt 0              @ rt-thread/src/clock.c:122:41
	smmul	r2, r0, r1
	asrs	r0, r2, #6
	add.w	r0, r0, r2, lsr #31
	mov.w	r2, #1000
	.loc	2 122 35                        @ rt-thread/src/clock.c:122:35
	muls	r0, r2, r0
	.loc	2 122 14                        @ rt-thread/src/clock.c:122:14
	str	r0, [sp]
	.loc	2 123 40 is_stmt 1              @ rt-thread/src/clock.c:123:40
	ldr	r3, [sp, #4]
	.loc	2 123 43 is_stmt 0              @ rt-thread/src/clock.c:123:43
	smmul	r12, r3, r1
	asr.w	r0, r12, #6
	add.w	r0, r0, r12, lsr #31
	mls	r0, r0, r2, r3
	.loc	2 123 37                        @ rt-thread/src/clock.c:123:37
	muls	r0, r2, r0
	.loc	2 123 51                        @ rt-thread/src/clock.c:123:51
	addw	r0, r0, #999
	.loc	2 123 58                        @ rt-thread/src/clock.c:123:58
	smmul	r1, r0, r1
	asrs	r0, r1, #6
	add.w	r1, r0, r1, lsr #31
	.loc	2 123 14                        @ rt-thread/src/clock.c:123:14
	ldr	r0, [sp]
	add	r0, r1
	str	r0, [sp]
	b	.LBB4_3
.Ltmp14:
.LBB4_3:
	.loc	2 127 12 is_stmt 1              @ rt-thread/src/clock.c:127:12
	ldr	r0, [sp]
	.loc	2 127 5 is_stmt 0               @ rt-thread/src/clock.c:127:5
	add	sp, #8
	bx	lr
.Ltmp15:
.Lfunc_end4:
	.size	rt_tick_from_millisecond, .Lfunc_end4-rt_tick_from_millisecond
	.cfi_endproc
	.cantunwind
	.fnend
                                        @ -- End function
	.type	rt_tick,%object                 @ @rt_tick
	.section	.bss.rt_tick,"aw",%nobits
	.p2align	2
rt_tick:
	.long	0                               @ 0x0
	.size	rt_tick, 4

	.section	".note.GNU-stack","",%progbits
	.eabi_attribute	30, 6	@ Tag_ABI_optimization_goals
	.ARM_attribute	16, 1	@ Tag_AV_eba