	.text
	.syntax unified
	.eabi_attribute	67, "2.09"	@ Tag_conformance
	.cpu	cortex-m7
	.eabi_attribute	6, 13	@ Tag_CPU_arch
	.eabi_attribute	7, 77	@ Tag_CPU_arch_profile
	.eabi_attribute	8, 0	@ Tag_ARM_ISA_use
	.eabi_attribute	9, 2	@ Tag_THUMB_ISA_use
	.fpu	fpv5-d16
	.eabi_attribute	36, 1	@ Tag_FP_HP_extension
	.eabi_attribute	34, 1	@ Tag_CPU_unaligned_access
	.eabi_attribute	17, 1	@ Tag_ABI_PCS_GOT_use
	.eabi_attribute	20, 2	@ Tag_ABI_FP_denormal
	.eabi_attribute	21, 0	@ Tag_ABI_FP_exceptions
	.eabi_attribute	23, 1	@ Tag_ABI_FP_number_model
	.eabi_attribute	24, 1	@ Tag_ABI_align_needed
	.eabi_attribute	25, 1	@ Tag_ABI_align_preserved
	.eabi_attribute	28, 1	@ Tag_ABI_VFP_args
	.eabi_attribute	38, 1	@ Tag_ABI_FP_16bit_format
	.eabi_attribute	18, 2	@ Tag_ABI_PCS_wchar_t
	.eabi_attribute	26, 1	@ Tag_ABI_enum_size
	.eabi_attribute	14, 0	@ Tag_ABI_PCS_R9_use
	.file	"cmd.c"
	.file	1 "E:\\STM32\\Learning\\STM32H750_ART_PI_RGBLCD" "rt-thread/components/finsh/cmd.c"
	.file	2 "E:\\STM32\\Learning\\STM32H750_ART_PI_RGBLCD" "rt-thread/components/finsh/finsh_api.h"
	.file	3 "E:\\STM32\\Learning\\STM32H750_ART_PI_RGBLCD" "rt-thread/components/finsh/finsh.h"
	.file	4 "D:\\Keil_v5\\ARM\\ARMCLANG\\Bin\\..\\include" "stdint.h"
	.file	5 "E:\\STM32\\Learning\\STM32H750_ART_PI_RGBLCD" "rt-thread/include\\rtdef.h"
	.section	.text.hello,"ax",%progbits
	.hidden	hello                           @ -- Begin function hello
	.globl	hello
	.p2align	3
	.type	hello,%function
	.code	16                              @ @hello
	.thumb_func
hello:
.Lfunc_begin0:
	.loc	1 45 0                          @ rt-thread/components/finsh/cmd.c:45:0
	.fnstart
	.cfi_sections .debug_frame
	.cfi_startproc
@ %bb.0:
	.save	{r7, lr}
	push	{r7, lr}
	.cfi_def_cfa_offset 8
	.cfi_offset lr, -4
	.cfi_offset r7, -8
.Ltmp0:
	.loc	1 46 5 prologue_end             @ rt-thread/components/finsh/cmd.c:46:5
	movw	r0, :lower16:.L.str
	movt	r0, :upper16:.L.str
	bl	rt_kprintf
	movs	r0, #0
	.loc	1 48 5                          @ rt-thread/components/finsh/cmd.c:48:5
	pop	{r7, pc}
.Ltmp1:
.Lfunc_end0:
	.size	hello, .Lfunc_end0-hello
	.cfi_endproc
	.cantunwind
	.fnend
                                        @ -- End function
	.section	.text.clear,"ax",%progbits
	.p2align	3                               @ -- Begin function clear
	.type	clear,%function
	.code	16                              @ @clear
	.thumb_func
clear:
.Lfunc_begin1:
	.loc	1 53 0                          @ rt-thread/components/finsh/cmd.c:53:0
	.fnstart
	.cfi_startproc
@ %bb.0:
	.save	{r7, lr}
	push	{r7, lr}
	.cfi_def_cfa_offset 8
	.cfi_offset lr, -4
	.cfi_offset r7, -8
.Ltmp2:
	.loc	1 54 5 prologue_end             @ rt-thread/components/finsh/cmd.c:54:5
	movw	r0, :lower16:.L.str.64
	movt	r0, :upper16:.L.str.64
	bl	rt_kprintf
	movs	r0, #0
	.loc	1 56 5                          @ rt-thread/components/finsh/cmd.c:56:5
	pop	{r7, pc}
.Ltmp3:
.Lfunc_end1:
	.size	clear, .Lfunc_end1-clear
	.cfi_endproc
	.cantunwind
	.fnend
                                        @ -- End function
	.section	.text.version,"ax",%progbits
	.hidden	version                         @ -- Begin function version
	.globl	version
	.p2align	3
	.type	version,%function
	.code	16                              @ @version
	.thumb_func
version:
.Lfunc_begin2:
	.loc	1 63 0                          @ rt-thread/components/finsh/cmd.c:63:0
	.fnstart
	.cfi_startproc
@ %bb.0:
	.save	{r7, lr}
	push	{r7, lr}
	.cfi_def_cfa_offset 8
	.cfi_offset lr, -4
	.cfi_offset r7, -8
.Ltmp4:
	.loc	1 64 5 prologue_end             @ rt-thread/components/finsh/cmd.c:64:5
	bl	rt_show_version
	movs	r0, #0
	.loc	1 66 5                          @ rt-thread/components/finsh/cmd.c:66:5
	pop	{r7, pc}
.Ltmp5:
.Lfunc_end2:
	.size	version, .Lfunc_end2-version
	.cfi_endproc
	.cantunwind
	.fnend
                                        @ -- End function
	.section	.text.list_thread,"ax",%progbits
	.hidden	list_thread                     @ -- Begin function list_thread
	.globl	list_thread
	.p2align	3
	.type	list_thread,%function
	.code	16                              @ @list_thread
	.thumb_func
list_thread:
.Lfunc_begin3:
	.loc	1 166 0                         @ rt-thread/components/finsh/cmd.c:166:0
	.fnstart
	.cfi_startproc
@ %bb.0:
	.save	{r7, lr}
	push	{r7, lr}
	.cfi_def_cfa_offset 8
	.cfi_offset lr, -4
	.cfi_offset r7, -8
	.pad	#232
	sub	sp, #232
	.cfi_def_cfa_offset 240
	movs	r0, #0
.Ltmp6:
	.loc	1 170 16 prologue_end           @ rt-thread/components/finsh/cmd.c:170:16
	str	r0, [sp, #172]
	.loc	1 171 17                        @ rt-thread/components/finsh/cmd.c:171:17
	movw	r0, :lower16:.L.str.1
	movt	r0, :upper16:.L.str.1
	str	r0, [sp, #168]
	add	r0, sp, #208
	movs	r1, #1
	add	r2, sp, #176
	movs	r3, #8
	.loc	1 174 5                         @ rt-thread/components/finsh/cmd.c:174:5
	str	r3, [sp, #12]                   @ 4-byte Spill
	bl	list_find_init
	ldr	r0, [sp, #12]                   @ 4-byte Reload
	.loc	1 176 12                        @ rt-thread/components/finsh/cmd.c:176:12
	str	r0, [sp, #164]
	.loc	1 182 88                        @ rt-thread/components/finsh/cmd.c:182:88
	ldr	r1, [sp, #164]
	.loc	1 182 96 is_stmt 0              @ rt-thread/components/finsh/cmd.c:182:96
	ldr	r2, [sp, #168]
	.loc	1 182 5                         @ rt-thread/components/finsh/cmd.c:182:5
	movw	r0, :lower16:.L.str.2
	movt	r0, :upper16:.L.str.2
	bl	rt_kprintf
	.loc	1 182 122                       @ rt-thread/components/finsh/cmd.c:182:122
	ldr	r0, [sp, #164]
	.loc	1 182 109                       @ rt-thread/components/finsh/cmd.c:182:109
	bl	object_split
	.loc	1 183 5 is_stmt 1               @ rt-thread/components/finsh/cmd.c:183:5
	movw	r0, :lower16:.L.str.3
	movt	r0, :upper16:.L.str.3
	bl	rt_kprintf
	.loc	1 186 5                         @ rt-thread/components/finsh/cmd.c:186:5
	b	.LBB3_1
.LBB3_1:                                @ =>This Loop Header: Depth=1
                                        @     Child Loop BB3_2 Depth 2
                                        @       Child Loop BB3_20 Depth 3
.Ltmp7:
	.loc	1 188 30                        @ rt-thread/components/finsh/cmd.c:188:30
	ldr	r0, [sp, #172]
	add	r1, sp, #208
	.loc	1 188 16 is_stmt 0              @ rt-thread/components/finsh/cmd.c:188:16
	bl	list_get_next
	.loc	1 188 14                        @ rt-thread/components/finsh/cmd.c:188:14
	str	r0, [sp, #172]
	movs	r0, #0
.Ltmp8:
	.loc	1 191 20 is_stmt 1              @ rt-thread/components/finsh/cmd.c:191:20
	str	r0, [sp, #160]
	.loc	1 191 18 is_stmt 0              @ rt-thread/components/finsh/cmd.c:191:18
	b	.LBB3_2
.LBB3_2:                                @   Parent Loop BB3_1 Depth=1
                                        @ =>  This Loop Header: Depth=2
                                        @       Child Loop BB3_20 Depth 3
.Ltmp9:
	.loc	1 191 25                        @ rt-thread/components/finsh/cmd.c:191:25
	ldr	r0, [sp, #160]
	.loc	1 191 38                        @ rt-thread/components/finsh/cmd.c:191:38
	ldr	r1, [sp, #224]
.Ltmp10:
	.loc	1 191 13                        @ rt-thread/components/finsh/cmd.c:191:13
	cmp	r0, r1
	bge.w	.LBB3_24
	b	.LBB3_3
.LBB3_3:                                @   in Loop: Header=BB3_2 Depth=2
.Ltmp11:
	.loc	1 196 23 is_stmt 1              @ rt-thread/components/finsh/cmd.c:196:23
	ldr	r1, [sp, #160]
	add	r0, sp, #176
	ldr.w	r0, [r0, r1, lsl #2]
	subs	r0, #12
	.loc	1 196 21 is_stmt 0              @ rt-thread/components/finsh/cmd.c:196:21
	str	r0, [sp, #156]
	.loc	1 197 25 is_stmt 1              @ rt-thread/components/finsh/cmd.c:197:25
	bl	rt_hw_interrupt_disable
	.loc	1 197 23 is_stmt 0              @ rt-thread/components/finsh/cmd.c:197:23
	str	r0, [sp, #228]
.Ltmp12:
	.loc	1 199 22 is_stmt 1              @ rt-thread/components/finsh/cmd.c:199:22
	ldr	r0, [sp, #156]
	ldrb	r0, [r0, #8]
	.loc	1 199 32 is_stmt 0              @ rt-thread/components/finsh/cmd.c:199:32
	and	r0, r0, #127
	.loc	1 199 71                        @ rt-thread/components/finsh/cmd.c:199:71
	ldrb.w	r1, [sp, #216]
.Ltmp13:
	.loc	1 199 21                        @ rt-thread/components/finsh/cmd.c:199:21
	cmp	r0, r1
	beq	.LBB3_5
	b	.LBB3_4
.LBB3_4:                                @   in Loop: Header=BB3_2 Depth=2
.Ltmp14:
	.loc	1 201 44 is_stmt 1              @ rt-thread/components/finsh/cmd.c:201:44
	ldr	r0, [sp, #228]
	.loc	1 201 21 is_stmt 0              @ rt-thread/components/finsh/cmd.c:201:21
	bl	rt_hw_interrupt_enable
	.loc	1 202 21 is_stmt 1              @ rt-thread/components/finsh/cmd.c:202:21
	b	.LBB3_23
.Ltmp15:
.LBB3_5:                                @   in Loop: Header=BB3_2 Depth=2
	.loc	1 205 38                        @ rt-thread/components/finsh/cmd.c:205:38
	ldr	r1, [sp, #156]
	add	r0, sp, #28
	movs	r2, #128
	.loc	1 205 17 is_stmt 0              @ rt-thread/components/finsh/cmd.c:205:17
	bl	__aeabi_memcpy4
	.loc	1 206 40 is_stmt 1              @ rt-thread/components/finsh/cmd.c:206:40
	ldr	r0, [sp, #228]
	.loc	1 206 17 is_stmt 0              @ rt-thread/components/finsh/cmd.c:206:17
	bl	rt_hw_interrupt_enable
	.loc	1 208 45 is_stmt 1              @ rt-thread/components/finsh/cmd.c:208:45
	ldr	r0, [sp, #156]
	.loc	1 208 24 is_stmt 0              @ rt-thread/components/finsh/cmd.c:208:24
	str	r0, [sp, #24]
.Ltmp16:
	.loc	1 220 47 is_stmt 1              @ rt-thread/components/finsh/cmd.c:220:47
	ldr	r1, [sp, #164]
	.loc	1 220 68 is_stmt 0              @ rt-thread/components/finsh/cmd.c:220:68
	ldr	r3, [sp, #24]
	.loc	1 220 90                        @ rt-thread/components/finsh/cmd.c:220:90
	ldrb.w	r0, [r3, #53]
	.loc	1 220 21                        @ rt-thread/components/finsh/cmd.c:220:21
	mov	r2, sp
	str	r0, [r2]
	movw	r0, :lower16:.L.str.4
	movt	r0, :upper16:.L.str.4
	movs	r2, #8
	bl	rt_kprintf
	.loc	1 222 29 is_stmt 1              @ rt-thread/components/finsh/cmd.c:222:29
	ldr	r0, [sp, #24]
	ldrb.w	r0, [r0, #52]
	.loc	1 222 42 is_stmt 0              @ rt-thread/components/finsh/cmd.c:222:42
	and	r0, r0, #7
	.loc	1 222 26                        @ rt-thread/components/finsh/cmd.c:222:26
	strb.w	r0, [sp, #23]
.Ltmp17:
	.loc	1 223 25 is_stmt 1              @ rt-thread/components/finsh/cmd.c:223:25
	ldrb.w	r0, [sp, #23]
.Ltmp18:
	.loc	1 223 25 is_stmt 0              @ rt-thread/components/finsh/cmd.c:223:25
	cmp	r0, #1
	bne	.LBB3_7
	b	.LBB3_6
.LBB3_6:                                @   in Loop: Header=BB3_2 Depth=2
.Ltmp19:
	.loc	1 223 57                        @ rt-thread/components/finsh/cmd.c:223:57
	movw	r0, :lower16:.L.str.5
	movt	r0, :upper16:.L.str.5
	bl	rt_kprintf
	b	.LBB3_19
.LBB3_7:                                @   in Loop: Header=BB3_2 Depth=2
.Ltmp20:
	.loc	1 224 30 is_stmt 1              @ rt-thread/components/finsh/cmd.c:224:30
	ldrb.w	r0, [sp, #23]
.Ltmp21:
	.loc	1 224 30 is_stmt 0              @ rt-thread/components/finsh/cmd.c:224:30
	cmp	r0, #2
	bne	.LBB3_9
	b	.LBB3_8
.LBB3_8:                                @   in Loop: Header=BB3_2 Depth=2
.Ltmp22:
	.loc	1 224 57                        @ rt-thread/components/finsh/cmd.c:224:57
	movw	r0, :lower16:.L.str.6
	movt	r0, :upper16:.L.str.6
	bl	rt_kprintf
	b	.LBB3_18
.LBB3_9:                                @   in Loop: Header=BB3_2 Depth=2
.Ltmp23:
	.loc	1 225 30 is_stmt 1              @ rt-thread/components/finsh/cmd.c:225:30
	ldrb.w	r0, [sp, #23]
.Ltmp24:
	.loc	1 225 30 is_stmt 0              @ rt-thread/components/finsh/cmd.c:225:30
	cbnz	r0, .LBB3_11
	b	.LBB3_10
.LBB3_10:                               @   in Loop: Header=BB3_2 Depth=2
.Ltmp25:
	.loc	1 225 57                        @ rt-thread/components/finsh/cmd.c:225:57
	movw	r0, :lower16:.L.str.7
	movt	r0, :upper16:.L.str.7
	bl	rt_kprintf
	b	.LBB3_17
.LBB3_11:                               @   in Loop: Header=BB3_2 Depth=2
.Ltmp26:
	.loc	1 226 30 is_stmt 1              @ rt-thread/components/finsh/cmd.c:226:30
	ldrb.w	r0, [sp, #23]
.Ltmp27:
	.loc	1 226 30 is_stmt 0              @ rt-thread/components/finsh/cmd.c:226:30
	cmp	r0, #4
	bne	.LBB3_13
	b	.LBB3_12
.LBB3_12:                               @   in Loop: Header=BB3_2 Depth=2
.Ltmp28:
	.loc	1 226 57                        @ rt-thread/components/finsh/cmd.c:226:57
	movw	r0, :lower16:.L.str.8
	movt	r0, :upper16:.L.str.8
	bl	rt_kprintf
	b	.LBB3_16
.LBB3_13:                               @   in Loop: Header=BB3_2 Depth=2
.Ltmp29:
	.loc	1 227 30 is_stmt 1              @ rt-thread/components/finsh/cmd.c:227:30
	ldrb.w	r0, [sp, #23]
.Ltmp30:
	.loc	1 227 30 is_stmt 0              @ rt-thread/components/finsh/cmd.c:227:30
	cmp	r0, #3
	bne	.LBB3_15
	b	.LBB3_14
.LBB3_14:                               @   in Loop: Header=BB3_2 Depth=2
.Ltmp31:
	.loc	1 227 57                        @ rt-thread/components/finsh/cmd.c:227:57
	movw	r0, :lower16:.L.str.9
	movt	r0, :upper16:.L.str.9
	bl	rt_kprintf
	b	.LBB3_15
.Ltmp32:
.LBB3_15:                               @   in Loop: Header=BB3_2 Depth=2
	.loc	1 0 57                          @ rt-thread/components/finsh/cmd.c:0:57
	b	.LBB3_16
.LBB3_16:                               @   in Loop: Header=BB3_2 Depth=2
	b	.LBB3_17
.LBB3_17:                               @   in Loop: Header=BB3_2 Depth=2
	b	.LBB3_18
.LBB3_18:                               @   in Loop: Header=BB3_2 Depth=2
	b	.LBB3_19
.LBB3_19:                               @   in Loop: Header=BB3_2 Depth=2
	.loc	1 240 41 is_stmt 1              @ rt-thread/components/finsh/cmd.c:240:41
	ldr	r0, [sp, #24]
	.loc	1 240 49 is_stmt 0              @ rt-thread/components/finsh/cmd.c:240:49
	ldr	r0, [r0, #40]
	.loc	1 240 25                        @ rt-thread/components/finsh/cmd.c:240:25
	str	r0, [sp, #16]
	.loc	1 241 21 is_stmt 1              @ rt-thread/components/finsh/cmd.c:241:21
	b	.LBB3_20
.LBB3_20:                               @   Parent Loop BB3_1 Depth=1
                                        @     Parent Loop BB3_2 Depth=2
                                        @ =>    This Inner Loop Header: Depth=3
	.loc	1 241 29 is_stmt 0              @ rt-thread/components/finsh/cmd.c:241:29
	ldr	r0, [sp, #16]
	.loc	1 241 28                        @ rt-thread/components/finsh/cmd.c:241:28
	ldrb	r0, [r0]
	.loc	1 241 21                        @ rt-thread/components/finsh/cmd.c:241:21
	cmp	r0, #35
	bne	.LBB3_22
	b	.LBB3_21
.LBB3_21:                               @   in Loop: Header=BB3_20 Depth=3
	.loc	1 241 44                        @ rt-thread/components/finsh/cmd.c:241:44
	ldr	r0, [sp, #16]
	adds	r0, #1
	str	r0, [sp, #16]
	.loc	1 241 21                        @ rt-thread/components/finsh/cmd.c:241:21
	b	.LBB3_20
.LBB3_22:                               @   in Loop: Header=BB3_2 Depth=2
	.loc	1 244 29 is_stmt 1              @ rt-thread/components/finsh/cmd.c:244:29
	ldr	r0, [sp, #24]
	.loc	1 244 104 is_stmt 0             @ rt-thread/components/finsh/cmd.c:244:104
	ldr	r1, [r0, #28]
	.loc	1 244 71                        @ rt-thread/components/finsh/cmd.c:244:71
	ldr	r3, [r0, #40]
	.loc	1 244 37                        @ rt-thread/components/finsh/cmd.c:244:37
	ldr	r2, [r0, #44]
	.loc	1 249 37 is_stmt 1              @ rt-thread/components/finsh/cmd.c:249:37
	ldr.w	lr, [r0, #48]
	.loc	1 244 82                        @ rt-thread/components/finsh/cmd.c:244:82
	subs	r1, r3, r1
	.loc	1 244 48 is_stmt 0              @ rt-thread/components/finsh/cmd.c:244:48
	add	r1, r2
	.loc	1 246 65 is_stmt 1              @ rt-thread/components/finsh/cmd.c:246:65
	ldr.w	r12, [sp, #16]
	.loc	1 246 49 is_stmt 0              @ rt-thread/components/finsh/cmd.c:246:49
	sub.w	r3, r3, r12
	add	r3, r2
	mov.w	r12, #100
	.loc	1 246 105                       @ rt-thread/components/finsh/cmd.c:246:105
	mul	r3, r3, r12
	.loc	1 247 29 is_stmt 1              @ rt-thread/components/finsh/cmd.c:247:29
	udiv	r3, r3, r2
	.loc	1 248 37                        @ rt-thread/components/finsh/cmd.c:248:37
	ldr	r0, [r0, #72]
	.loc	1 243 21                        @ rt-thread/components/finsh/cmd.c:243:21
	mov	r12, sp
	str.w	lr, [r12, #4]
	str.w	r0, [r12]
	movw	r0, :lower16:.L.str.10
	movt	r0, :upper16:.L.str.10
	bl	rt_kprintf
.Ltmp33:
	.loc	1 252 13                        @ rt-thread/components/finsh/cmd.c:252:13
	b	.LBB3_23
.Ltmp34:
.LBB3_23:                               @   in Loop: Header=BB3_2 Depth=2
	.loc	1 191 47                        @ rt-thread/components/finsh/cmd.c:191:47
	ldr	r0, [sp, #160]
	adds	r0, #1
	str	r0, [sp, #160]
	.loc	1 191 13 is_stmt 0              @ rt-thread/components/finsh/cmd.c:191:13
	b	.LBB3_2
.Ltmp35:
.LBB3_24:                               @   in Loop: Header=BB3_1 Depth=1
	.loc	1 254 5 is_stmt 1               @ rt-thread/components/finsh/cmd.c:254:5
	b	.LBB3_25
.Ltmp36:
.LBB3_25:                               @   in Loop: Header=BB3_1 Depth=1
	.loc	1 255 12                        @ rt-thread/components/finsh/cmd.c:255:12
	ldr	r0, [sp, #172]
.Ltmp37:
	.loc	1 254 5                         @ rt-thread/components/finsh/cmd.c:254:5
	cmp	r0, #0
	bne.w	.LBB3_1
	b	.LBB3_26
.Ltmp38:
.LBB3_26:
	.loc	1 0 5 is_stmt 0                 @ rt-thread/components/finsh/cmd.c:0:5
	movs	r0, #0
	.loc	1 257 5 is_stmt 1               @ rt-thread/components/finsh/cmd.c:257:5
	add	sp, #232
	pop	{r7, pc}
.Ltmp39:
.Lfunc_end3:
	.size	list_thread, .Lfunc_end3-list_thread
	.cfi_endproc
	.cantunwind
	.fnend
                                        @ -- End function
	.section	.text.list_find_init,"ax",%progbits
	.p2align	3                               @ -- Begin function list_find_init
	.type	list_find_init,%function
	.code	16                              @ @list_find_init
	.thumb_func
list_find_init:
.Lfunc_begin4:
	.loc	1 86 0                          @ rt-thread/components/finsh/cmd.c:86:0
	.fnstart
	.cfi_startproc
@ %bb.0:
	.save	{r7, lr}
	push	{r7, lr}
	.cfi_def_cfa_offset 8
	.cfi_offset lr, -4
	.cfi_offset r7, -8
	.pad	#24
	sub	sp, #24
	.cfi_def_cfa_offset 32
                                        @ kill: def $r12 killed $r1
	str	r0, [sp, #20]
	strb.w	r1, [sp, #19]
	str	r2, [sp, #12]
	str	r3, [sp, #8]
.Ltmp40:
	.loc	1 90 65 prologue_end            @ rt-thread/components/finsh/cmd.c:90:65
	ldrb.w	r0, [sp, #19]
	.loc	1 90 12 is_stmt 0               @ rt-thread/components/finsh/cmd.c:90:12
	bl	rt_object_get_information
	.loc	1 90 10                         @ rt-thread/components/finsh/cmd.c:90:10
	str	r0, [sp, #4]
	.loc	1 91 13 is_stmt 1               @ rt-thread/components/finsh/cmd.c:91:13
	ldr	r0, [sp, #4]
	.loc	1 91 19 is_stmt 0               @ rt-thread/components/finsh/cmd.c:91:19
	adds	r0, #4
	.loc	1 91 10                         @ rt-thread/components/finsh/cmd.c:91:10
	str	r0, [sp]
	.loc	1 93 15 is_stmt 1               @ rt-thread/components/finsh/cmd.c:93:15
	ldr	r0, [sp]
	.loc	1 93 5 is_stmt 0                @ rt-thread/components/finsh/cmd.c:93:5
	ldr	r1, [sp, #20]
	.loc	1 93 13                         @ rt-thread/components/finsh/cmd.c:93:13
	str	r0, [r1]
	.loc	1 94 15 is_stmt 1               @ rt-thread/components/finsh/cmd.c:94:15
	ldrb.w	r0, [sp, #19]
	.loc	1 94 5 is_stmt 0                @ rt-thread/components/finsh/cmd.c:94:5
	ldr	r1, [sp, #20]
	.loc	1 94 13                         @ rt-thread/components/finsh/cmd.c:94:13
	strb	r0, [r1, #8]
	.loc	1 95 16 is_stmt 1               @ rt-thread/components/finsh/cmd.c:95:16
	ldr	r0, [sp, #12]
	.loc	1 95 5 is_stmt 0                @ rt-thread/components/finsh/cmd.c:95:5
	ldr	r1, [sp, #20]
	.loc	1 95 14                         @ rt-thread/components/finsh/cmd.c:95:14
	str	r0, [r1, #4]
	.loc	1 96 13 is_stmt 1               @ rt-thread/components/finsh/cmd.c:96:13
	ldr	r0, [sp, #8]
	.loc	1 96 5 is_stmt 0                @ rt-thread/components/finsh/cmd.c:96:5
	ldr	r1, [sp, #20]
	.loc	1 96 11                         @ rt-thread/components/finsh/cmd.c:96:11
	str	r0, [r1, #12]
	.loc	1 97 5 is_stmt 1                @ rt-thread/components/finsh/cmd.c:97:5
	ldr	r1, [sp, #20]
	movs	r0, #0
	.loc	1 97 15 is_stmt 0               @ rt-thread/components/finsh/cmd.c:97:15
	str	r0, [r1, #16]
	.loc	1 98 1 is_stmt 1                @ rt-thread/components/finsh/cmd.c:98:1
	add	sp, #24
	pop	{r7, pc}
.Ltmp41:
.Lfunc_end4:
	.size	list_find_init, .Lfunc_end4-list_find_init
	.cfi_endproc
	.cantunwind
	.fnend
                                        @ -- End function
	.section	.text.object_split,"ax",%progbits
	.p2align	3                               @ -- Begin function object_split
	.type	object_split,%function
	.code	16                              @ @object_split
	.thumb_func
object_split:
.Lfunc_begin5:
	.loc	1 72 0                          @ rt-thread/components/finsh/cmd.c:72:0
	.fnstart
	.cfi_startproc
@ %bb.0:
	.save	{r7, lr}
	push	{r7, lr}
	.cfi_def_cfa_offset 8
	.cfi_offset lr, -4
	.cfi_offset r7, -8
	.pad	#8
	sub	sp, #8
	.cfi_def_cfa_offset 16
	str	r0, [sp, #4]
.Ltmp42:
	.loc	1 73 5 prologue_end             @ rt-thread/components/finsh/cmd.c:73:5
	b	.LBB5_1
.LBB5_1:                                @ =>This Inner Loop Header: Depth=1
	.loc	1 73 15 is_stmt 0               @ rt-thread/components/finsh/cmd.c:73:15
	ldr	r0, [sp, #4]
	subs	r1, r0, #1
	str	r1, [sp, #4]
	.loc	1 73 5                          @ rt-thread/components/finsh/cmd.c:73:5
	cbz	r0, .LBB5_3
	b	.LBB5_2
.LBB5_2:                                @   in Loop: Header=BB5_1 Depth=1
	.loc	1 73 19                         @ rt-thread/components/finsh/cmd.c:73:19
	movw	r0, :lower16:.L.str.65
	movt	r0, :upper16:.L.str.65
	bl	rt_kprintf
	.loc	1 73 5                          @ rt-thread/components/finsh/cmd.c:73:5
	b	.LBB5_1
.LBB5_3:
	.loc	1 74 1 is_stmt 1                @ rt-thread/components/finsh/cmd.c:74:1
	add	sp, #8
	pop	{r7, pc}
.Ltmp43:
.Lfunc_end5:
	.size	object_split, .Lfunc_end5-object_split
	.cfi_endproc
	.cantunwind
	.fnend
                                        @ -- End function
	.section	.text.list_get_next,"ax",%progbits
	.p2align	3                               @ -- Begin function list_get_next
	.type	list_get_next,%function
	.code	16                              @ @list_get_next
	.thumb_func
list_get_next:
.Lfunc_begin6:
	.loc	1 101 0                         @ rt-thread/components/finsh/cmd.c:101:0
	.fnstart
	.cfi_startproc
@ %bb.0:
	.save	{r7, lr}
	push	{r7, lr}
	.cfi_def_cfa_offset 8
	.cfi_offset lr, -4
	.cfi_offset r7, -8
	.pad	#40
	sub	sp, #40
	.cfi_def_cfa_offset 48
	str	r0, [sp, #32]
	str	r1, [sp, #28]
	movs	r0, #0
.Ltmp44:
	.loc	1 102 9 prologue_end            @ rt-thread/components/finsh/cmd.c:102:9
	str	r0, [sp, #24]
	.loc	1 108 5                         @ rt-thread/components/finsh/cmd.c:108:5
	ldr	r1, [sp, #28]
	.loc	1 108 17 is_stmt 0              @ rt-thread/components/finsh/cmd.c:108:17
	str	r0, [r1, #16]
.Ltmp45:
	.loc	1 110 10 is_stmt 1              @ rt-thread/components/finsh/cmd.c:110:10
	ldr	r0, [sp, #28]
	.loc	1 110 15 is_stmt 0              @ rt-thread/components/finsh/cmd.c:110:15
	ldr	r0, [r0, #12]
	.loc	1 110 18                        @ rt-thread/components/finsh/cmd.c:110:18
	cbz	r0, .LBB6_2
	b	.LBB6_1
.LBB6_1:
	.loc	1 110 22                        @ rt-thread/components/finsh/cmd.c:110:22
	ldr	r0, [sp, #28]
	.loc	1 110 27                        @ rt-thread/components/finsh/cmd.c:110:27
	ldrb	r0, [r0, #8]
.Ltmp46:
	.loc	1 110 9                         @ rt-thread/components/finsh/cmd.c:110:9
	cbnz	r0, .LBB6_3
	b	.LBB6_2
.LBB6_2:
	.loc	1 0 9                           @ rt-thread/components/finsh/cmd.c:0:9
	movs	r0, #0
.Ltmp47:
	.loc	1 112 9 is_stmt 1               @ rt-thread/components/finsh/cmd.c:112:9
	str	r0, [sp, #36]
	b	.LBB6_17
.Ltmp48:
.LBB6_3:
	.loc	1 115 12                        @ rt-thread/components/finsh/cmd.c:115:12
	ldr	r0, [sp, #28]
	.loc	1 115 17 is_stmt 0              @ rt-thread/components/finsh/cmd.c:115:17
	ldr	r0, [r0]
	.loc	1 115 10                        @ rt-thread/components/finsh/cmd.c:115:10
	str	r0, [sp, #12]
.Ltmp49:
	.loc	1 117 10 is_stmt 1              @ rt-thread/components/finsh/cmd.c:117:10
	ldr	r0, [sp, #32]
.Ltmp50:
	.loc	1 117 9 is_stmt 0               @ rt-thread/components/finsh/cmd.c:117:9
	cbnz	r0, .LBB6_5
	b	.LBB6_4
.LBB6_4:
.Ltmp51:
	.loc	1 119 16 is_stmt 1              @ rt-thread/components/finsh/cmd.c:119:16
	ldr	r0, [sp, #12]
	.loc	1 119 14 is_stmt 0              @ rt-thread/components/finsh/cmd.c:119:14
	str	r0, [sp, #16]
	movs	r0, #1
	.loc	1 120 20 is_stmt 1              @ rt-thread/components/finsh/cmd.c:120:20
	str	r0, [sp, #24]
	.loc	1 121 5                         @ rt-thread/components/finsh/cmd.c:121:5
	b	.LBB6_6
.Ltmp52:
.LBB6_5:
	.loc	1 124 16                        @ rt-thread/components/finsh/cmd.c:124:16
	ldr	r0, [sp, #32]
	.loc	1 124 14 is_stmt 0              @ rt-thread/components/finsh/cmd.c:124:14
	str	r0, [sp, #16]
	b	.LBB6_6
.Ltmp53:
.LBB6_6:
	.loc	1 127 13 is_stmt 1              @ rt-thread/components/finsh/cmd.c:127:13
	bl	rt_hw_interrupt_disable
	.loc	1 127 11 is_stmt 0              @ rt-thread/components/finsh/cmd.c:127:11
	str	r0, [sp, #20]
.Ltmp54:
	.loc	1 129 10 is_stmt 1              @ rt-thread/components/finsh/cmd.c:129:10
	ldr	r0, [sp, #24]
.Ltmp55:
	.loc	1 129 9 is_stmt 0               @ rt-thread/components/finsh/cmd.c:129:9
	cbnz	r0, .LBB6_10
	b	.LBB6_7
.LBB6_7:
.Ltmp56:
	.loc	1 133 15 is_stmt 1              @ rt-thread/components/finsh/cmd.c:133:15
	ldr	r0, [sp, #16]
	subs	r0, #12
	.loc	1 133 13 is_stmt 0              @ rt-thread/components/finsh/cmd.c:133:13
	str	r0, [sp]
.Ltmp57:
	.loc	1 134 14 is_stmt 1              @ rt-thread/components/finsh/cmd.c:134:14
	ldr	r0, [sp]
	ldrb	r0, [r0, #8]
	.loc	1 134 24 is_stmt 0              @ rt-thread/components/finsh/cmd.c:134:24
	and	r0, r0, #127
	.loc	1 134 54                        @ rt-thread/components/finsh/cmd.c:134:54
	ldr	r1, [sp, #28]
	.loc	1 134 59                        @ rt-thread/components/finsh/cmd.c:134:59
	ldrb	r1, [r1, #8]
.Ltmp58:
	.loc	1 134 13                        @ rt-thread/components/finsh/cmd.c:134:13
	cmp	r0, r1
	beq	.LBB6_9
	b	.LBB6_8
.LBB6_8:
.Ltmp59:
	.loc	1 136 36 is_stmt 1              @ rt-thread/components/finsh/cmd.c:136:36
	ldr	r0, [sp, #20]
	.loc	1 136 13 is_stmt 0              @ rt-thread/components/finsh/cmd.c:136:13
	bl	rt_hw_interrupt_enable
	movs	r0, #0
	.loc	1 137 13 is_stmt 1              @ rt-thread/components/finsh/cmd.c:137:13
	str	r0, [sp, #36]
	b	.LBB6_17
.Ltmp60:
.LBB6_9:
	.loc	1 139 5                         @ rt-thread/components/finsh/cmd.c:139:5
	b	.LBB6_10
.Ltmp61:
.LBB6_10:
	.loc	1 0 5 is_stmt 0                 @ rt-thread/components/finsh/cmd.c:0:5
	movs	r0, #0
	.loc	1 141 8 is_stmt 1               @ rt-thread/components/finsh/cmd.c:141:8
	str	r0, [sp, #4]
	.loc	1 142 13                        @ rt-thread/components/finsh/cmd.c:142:13
	ldr	r0, [sp, #28]
	.loc	1 142 18 is_stmt 0              @ rt-thread/components/finsh/cmd.c:142:18
	ldr	r0, [r0, #4]
	.loc	1 142 11                        @ rt-thread/components/finsh/cmd.c:142:11
	str	r0, [sp, #8]
	.loc	1 143 5 is_stmt 1               @ rt-thread/components/finsh/cmd.c:143:5
	b	.LBB6_11
.LBB6_11:                               @ =>This Inner Loop Header: Depth=1
.Ltmp62:
	.loc	1 145 16                        @ rt-thread/components/finsh/cmd.c:145:16
	ldr	r0, [sp, #16]
	.loc	1 145 22 is_stmt 0              @ rt-thread/components/finsh/cmd.c:145:22
	ldr	r0, [r0]
	.loc	1 145 14                        @ rt-thread/components/finsh/cmd.c:145:14
	str	r0, [sp, #16]
.Ltmp63:
	.loc	1 147 13 is_stmt 1              @ rt-thread/components/finsh/cmd.c:147:13
	ldr	r0, [sp, #16]
	.loc	1 147 21 is_stmt 0              @ rt-thread/components/finsh/cmd.c:147:21
	ldr	r1, [sp, #12]
.Ltmp64:
	.loc	1 147 13                        @ rt-thread/components/finsh/cmd.c:147:13
	cmp	r0, r1
	bne	.LBB6_13
	b	.LBB6_12
.LBB6_12:
	.loc	1 0 13                          @ rt-thread/components/finsh/cmd.c:0:13
	movs	r0, #0
.Ltmp65:
	.loc	1 149 18 is_stmt 1              @ rt-thread/components/finsh/cmd.c:149:18
	str	r0, [sp, #16]
	.loc	1 150 13                        @ rt-thread/components/finsh/cmd.c:150:13
	b	.LBB6_16
.Ltmp66:
.LBB6_13:                               @   in Loop: Header=BB6_11 Depth=1
	.loc	1 152 11                        @ rt-thread/components/finsh/cmd.c:152:11
	ldr	r0, [sp, #4]
	adds	r0, #1
	str	r0, [sp, #4]
	.loc	1 153 20                        @ rt-thread/components/finsh/cmd.c:153:20
	ldr	r0, [sp, #16]
	.loc	1 153 15 is_stmt 0              @ rt-thread/components/finsh/cmd.c:153:15
	ldr	r1, [sp, #8]
	adds	r2, r1, #4
	str	r2, [sp, #8]
	.loc	1 153 18                        @ rt-thread/components/finsh/cmd.c:153:18
	str	r0, [r1]
.Ltmp67:
	.loc	1 154 13 is_stmt 1              @ rt-thread/components/finsh/cmd.c:154:13
	ldr	r0, [sp, #4]
	.loc	1 154 19 is_stmt 0              @ rt-thread/components/finsh/cmd.c:154:19
	ldr	r1, [sp, #28]
	.loc	1 154 24                        @ rt-thread/components/finsh/cmd.c:154:24
	ldr	r1, [r1, #12]
.Ltmp68:
	.loc	1 154 13                        @ rt-thread/components/finsh/cmd.c:154:13
	cmp	r0, r1
	bne	.LBB6_15
	b	.LBB6_14
.LBB6_14:
.Ltmp69:
	.loc	1 156 13 is_stmt 1              @ rt-thread/components/finsh/cmd.c:156:13
	b	.LBB6_16
.Ltmp70:
.LBB6_15:                               @   in Loop: Header=BB6_11 Depth=1
	.loc	1 143 5                         @ rt-thread/components/finsh/cmd.c:143:5
	b	.LBB6_11
.LBB6_16:
	.loc	1 160 28                        @ rt-thread/components/finsh/cmd.c:160:28
	ldr	r0, [sp, #20]
	.loc	1 160 5 is_stmt 0               @ rt-thread/components/finsh/cmd.c:160:5
	bl	rt_hw_interrupt_enable
	.loc	1 161 19 is_stmt 1              @ rt-thread/components/finsh/cmd.c:161:19
	ldr	r0, [sp, #4]
	.loc	1 161 5 is_stmt 0               @ rt-thread/components/finsh/cmd.c:161:5
	ldr	r1, [sp, #28]
	.loc	1 161 17                        @ rt-thread/components/finsh/cmd.c:161:17
	str	r0, [r1, #16]
	.loc	1 162 12 is_stmt 1              @ rt-thread/components/finsh/cmd.c:162:12
	ldr	r0, [sp, #16]
	.loc	1 162 5 is_stmt 0               @ rt-thread/components/finsh/cmd.c:162:5
	str	r0, [sp, #36]
	b	.LBB6_17
.LBB6_17:
	.loc	1 163 1 is_stmt 1               @ rt-thread/components/finsh/cmd.c:163:1
	ldr	r0, [sp, #36]
	add	sp, #40
	pop	{r7, pc}
.Ltmp71:
.Lfunc_end6:
	.size	list_get_next, .Lfunc_end6-list_get_next
	.cfi_endproc
	.cantunwind
	.fnend
                                        @ -- End function
	.section	.text.list_sem,"ax",%progbits
	.hidden	list_sem                        @ -- Begin function list_sem
	.globl	list_sem
	.p2align	3
	.type	list_sem,%function
	.code	16                              @ @list_sem
	.thumb_func
list_sem:
.Lfunc_begin7:
	.loc	1 279 0                         @ rt-thread/components/finsh/cmd.c:279:0
	.fnstart
	.cfi_startproc
@ %bb.0:
	.save	{r7, lr}
	push	{r7, lr}
	.cfi_def_cfa_offset 8
	.cfi_offset lr, -4
	.cfi_offset r7, -8
	.pad	#120
	sub	sp, #120
	.cfi_def_cfa_offset 128
	movs	r0, #0
.Ltmp72:
	.loc	1 283 16 prologue_end           @ rt-thread/components/finsh/cmd.c:283:16
	str	r0, [sp, #60]
	.loc	1 286 17                        @ rt-thread/components/finsh/cmd.c:286:17
	movw	r0, :lower16:.L.str.11
	movt	r0, :upper16:.L.str.11
	str	r0, [sp, #52]
	add	r0, sp, #96
	movs	r1, #2
	add	r2, sp, #64
	movs	r3, #8
	.loc	1 288 5                         @ rt-thread/components/finsh/cmd.c:288:5
	str	r3, [sp, #36]                   @ 4-byte Spill
	bl	list_find_init
	ldr	r0, [sp, #36]                   @ 4-byte Reload
	.loc	1 290 12                        @ rt-thread/components/finsh/cmd.c:290:12
	str	r0, [sp, #56]
	.loc	1 292 46                        @ rt-thread/components/finsh/cmd.c:292:46
	ldr	r1, [sp, #56]
	.loc	1 292 54 is_stmt 0              @ rt-thread/components/finsh/cmd.c:292:54
	ldr	r2, [sp, #52]
	.loc	1 292 5                         @ rt-thread/components/finsh/cmd.c:292:5
	movw	r0, :lower16:.L.str.12
	movt	r0, :upper16:.L.str.12
	bl	rt_kprintf
	.loc	1 292 80                        @ rt-thread/components/finsh/cmd.c:292:80
	ldr	r0, [sp, #56]
	.loc	1 292 67                        @ rt-thread/components/finsh/cmd.c:292:67
	bl	object_split
	.loc	1 293 5 is_stmt 1               @ rt-thread/components/finsh/cmd.c:293:5
	movw	r0, :lower16:.L.str.13
	movt	r0, :upper16:.L.str.13
	bl	rt_kprintf
	.loc	1 295 5                         @ rt-thread/components/finsh/cmd.c:295:5
	b	.LBB7_1
.LBB7_1:                                @ =>This Loop Header: Depth=1
                                        @     Child Loop BB7_2 Depth 2
.Ltmp73:
	.loc	1 297 30                        @ rt-thread/components/finsh/cmd.c:297:30
	ldr	r0, [sp, #60]
	add	r1, sp, #96
	.loc	1 297 16 is_stmt 0              @ rt-thread/components/finsh/cmd.c:297:16
	bl	list_get_next
	.loc	1 297 14                        @ rt-thread/components/finsh/cmd.c:297:14
	str	r0, [sp, #60]
	movs	r0, #0
.Ltmp74:
	.loc	1 300 20 is_stmt 1              @ rt-thread/components/finsh/cmd.c:300:20
	str	r0, [sp, #48]
	.loc	1 300 18 is_stmt 0              @ rt-thread/components/finsh/cmd.c:300:18
	b	.LBB7_2
.LBB7_2:                                @   Parent Loop BB7_1 Depth=1
                                        @ =>  This Inner Loop Header: Depth=2
.Ltmp75:
	.loc	1 300 25                        @ rt-thread/components/finsh/cmd.c:300:25
	ldr	r0, [sp, #48]
	.loc	1 300 38                        @ rt-thread/components/finsh/cmd.c:300:38
	ldr	r1, [sp, #112]
.Ltmp76:
	.loc	1 300 13                        @ rt-thread/components/finsh/cmd.c:300:13
	cmp	r0, r1
	bge	.LBB7_10
	b	.LBB7_3
.LBB7_3:                                @   in Loop: Header=BB7_2 Depth=2
.Ltmp77:
	.loc	1 305 23 is_stmt 1              @ rt-thread/components/finsh/cmd.c:305:23
	ldr	r1, [sp, #48]
	add	r0, sp, #64
	ldr.w	r0, [r0, r1, lsl #2]
	subs	r0, #12
	.loc	1 305 21 is_stmt 0              @ rt-thread/components/finsh/cmd.c:305:21
	str	r0, [sp, #44]
	.loc	1 306 25 is_stmt 1              @ rt-thread/components/finsh/cmd.c:306:25
	bl	rt_hw_interrupt_disable
	.loc	1 306 23 is_stmt 0              @ rt-thread/components/finsh/cmd.c:306:23
	str	r0, [sp, #116]
.Ltmp78:
	.loc	1 307 22 is_stmt 1              @ rt-thread/components/finsh/cmd.c:307:22
	ldr	r0, [sp, #44]
	ldrb	r0, [r0, #8]
	.loc	1 307 32 is_stmt 0              @ rt-thread/components/finsh/cmd.c:307:32
	and	r0, r0, #127
	.loc	1 307 71                        @ rt-thread/components/finsh/cmd.c:307:71
	ldrb.w	r1, [sp, #104]
.Ltmp79:
	.loc	1 307 21                        @ rt-thread/components/finsh/cmd.c:307:21
	cmp	r0, r1
	beq	.LBB7_5
	b	.LBB7_4
.LBB7_4:                                @   in Loop: Header=BB7_2 Depth=2
.Ltmp80:
	.loc	1 309 44 is_stmt 1              @ rt-thread/components/finsh/cmd.c:309:44
	ldr	r0, [sp, #116]
	.loc	1 309 21 is_stmt 0              @ rt-thread/components/finsh/cmd.c:309:21
	bl	rt_hw_interrupt_enable
	.loc	1 310 21 is_stmt 1              @ rt-thread/components/finsh/cmd.c:310:21
	b	.LBB7_9
.Ltmp81:
.LBB7_5:                                @   in Loop: Header=BB7_2 Depth=2
	.loc	1 312 40                        @ rt-thread/components/finsh/cmd.c:312:40
	ldr	r0, [sp, #116]
	.loc	1 312 17 is_stmt 0              @ rt-thread/components/finsh/cmd.c:312:17
	bl	rt_hw_interrupt_enable
	.loc	1 314 45 is_stmt 1              @ rt-thread/components/finsh/cmd.c:314:45
	ldr	r0, [sp, #44]
	.loc	1 314 21 is_stmt 0              @ rt-thread/components/finsh/cmd.c:314:21
	str	r0, [sp, #40]
.Ltmp82:
	.loc	1 315 39 is_stmt 1              @ rt-thread/components/finsh/cmd.c:315:39
	ldr	r0, [sp, #40]
	.loc	1 315 51 is_stmt 0              @ rt-thread/components/finsh/cmd.c:315:51
	adds	r0, #20
	.loc	1 315 22                        @ rt-thread/components/finsh/cmd.c:315:22
	bl	rt_list_isempty
.Ltmp83:
	.loc	1 315 21                        @ rt-thread/components/finsh/cmd.c:315:21
	cbnz	r0, .LBB7_7
	b	.LBB7_6
.LBB7_6:                                @   in Loop: Header=BB7_2 Depth=2
.Ltmp84:
	.loc	1 318 29 is_stmt 1              @ rt-thread/components/finsh/cmd.c:318:29
	ldr	r0, [sp, #56]
	.loc	1 319 29                        @ rt-thread/components/finsh/cmd.c:319:29
	str	r0, [sp, #24]                   @ 4-byte Spill
	ldr	r0, [sp, #40]
	.loc	1 320 34                        @ rt-thread/components/finsh/cmd.c:320:34
	str	r0, [sp, #28]                   @ 4-byte Spill
	ldrh	r1, [r0, #28]
	.loc	1 321 54                        @ rt-thread/components/finsh/cmd.c:321:54
	str	r1, [sp, #32]                   @ 4-byte Spill
	adds	r0, #20
	.loc	1 321 29 is_stmt 0              @ rt-thread/components/finsh/cmd.c:321:29
	bl	rt_list_len
	ldr	r1, [sp, #24]                   @ 4-byte Reload
	ldr	r3, [sp, #28]                   @ 4-byte Reload
	mov	r12, r0
	.loc	1 317 21 is_stmt 1              @ rt-thread/components/finsh/cmd.c:317:21
	ldr	r0, [sp, #32]                   @ 4-byte Reload
	mov	r2, sp
	str.w	r12, [r2, #4]
	str	r0, [r2]
	movw	r0, :lower16:.L.str.14
	movt	r0, :upper16:.L.str.14
	movs	r2, #8
	bl	rt_kprintf
	.loc	1 322 39                        @ rt-thread/components/finsh/cmd.c:322:39
	ldr	r0, [sp, #40]
	.loc	1 322 51 is_stmt 0              @ rt-thread/components/finsh/cmd.c:322:51
	adds	r0, #20
	.loc	1 322 21                        @ rt-thread/components/finsh/cmd.c:322:21
	bl	show_wait_queue
	.loc	1 323 21 is_stmt 1              @ rt-thread/components/finsh/cmd.c:323:21
	movw	r0, :lower16:.L.str.15
	movt	r0, :upper16:.L.str.15
	bl	rt_kprintf
	.loc	1 324 17                        @ rt-thread/components/finsh/cmd.c:324:17
	b	.LBB7_8
.Ltmp85:
.LBB7_7:                                @   in Loop: Header=BB7_2 Depth=2
	.loc	1 328 29                        @ rt-thread/components/finsh/cmd.c:328:29
	ldr	r0, [sp, #56]
	.loc	1 329 29                        @ rt-thread/components/finsh/cmd.c:329:29
	str	r0, [sp, #12]                   @ 4-byte Spill
	ldr	r0, [sp, #40]
	.loc	1 330 34                        @ rt-thread/components/finsh/cmd.c:330:34
	str	r0, [sp, #16]                   @ 4-byte Spill
	ldrh	r1, [r0, #28]
	.loc	1 331 54                        @ rt-thread/components/finsh/cmd.c:331:54
	str	r1, [sp, #20]                   @ 4-byte Spill
	adds	r0, #20
	.loc	1 331 29 is_stmt 0              @ rt-thread/components/finsh/cmd.c:331:29
	bl	rt_list_len
	ldr	r1, [sp, #12]                   @ 4-byte Reload
	ldr	r3, [sp, #16]                   @ 4-byte Reload
	mov	r12, r0
	.loc	1 327 21 is_stmt 1              @ rt-thread/components/finsh/cmd.c:327:21
	ldr	r0, [sp, #20]                   @ 4-byte Reload
	mov	r2, sp
	str.w	r12, [r2, #4]
	str	r0, [r2]
	movw	r0, :lower16:.L.str.16
	movt	r0, :upper16:.L.str.16
	movs	r2, #8
	bl	rt_kprintf
	b	.LBB7_8
.Ltmp86:
.LBB7_8:                                @   in Loop: Header=BB7_2 Depth=2
	.loc	1 333 13                        @ rt-thread/components/finsh/cmd.c:333:13
	b	.LBB7_9
.Ltmp87:
.LBB7_9:                                @   in Loop: Header=BB7_2 Depth=2
	.loc	1 300 47                        @ rt-thread/components/finsh/cmd.c:300:47
	ldr	r0, [sp, #48]
	adds	r0, #1
	str	r0, [sp, #48]
	.loc	1 300 13 is_stmt 0              @ rt-thread/components/finsh/cmd.c:300:13
	b	.LBB7_2
.Ltmp88:
.LBB7_10:                               @   in Loop: Header=BB7_1 Depth=1
	.loc	1 335 5 is_stmt 1               @ rt-thread/components/finsh/cmd.c:335:5
	b	.LBB7_11
.Ltmp89:
.LBB7_11:                               @   in Loop: Header=BB7_1 Depth=1
	.loc	1 336 12                        @ rt-thread/components/finsh/cmd.c:336:12
	ldr	r0, [sp, #60]
.Ltmp90:
	.loc	1 335 5                         @ rt-thread/components/finsh/cmd.c:335:5
	cmp	r0, #0
	bne.w	.LBB7_1
	b	.LBB7_12
.Ltmp91:
.LBB7_12:
	.loc	1 0 5 is_stmt 0                 @ rt-thread/components/finsh/cmd.c:0:5
	movs	r0, #0
	.loc	1 338 5 is_stmt 1               @ rt-thread/components/finsh/cmd.c:338:5
	add	sp, #120
	pop	{r7, pc}
.Ltmp92:
.Lfunc_end7:
	.size	list_sem, .Lfunc_end7-list_sem
	.cfi_endproc
	.cantunwind
	.fnend
                                        @ -- End function
	.section	.text.rt_list_isempty,"ax",%progbits
	.p2align	3                               @ -- Begin function rt_list_isempty
	.type	rt_list_isempty,%function
	.code	16                              @ @rt_list_isempty
	.thumb_func
rt_list_isempty:
.Lfunc_begin8:
	.file	6 "E:\\STM32\\Learning\\STM32H750_ART_PI_RGBLCD" "rt-thread/include\\rtservice.h"
	.loc	6 99 0                          @ rt-thread/include\rtservice.h:99:0
	.fnstart
	.cfi_startproc
@ %bb.0:
	.pad	#4
	sub	sp, #4
	.cfi_def_cfa_offset 4
	str	r0, [sp]
.Ltmp93:
	.loc	6 100 12 prologue_end           @ rt-thread/include\rtservice.h:100:12
	ldr	r1, [sp]
	.loc	6 100 15 is_stmt 0              @ rt-thread/include\rtservice.h:100:15
	ldr	r0, [r1]
	.loc	6 100 20                        @ rt-thread/include\rtservice.h:100:20
	subs	r0, r0, r1
	clz	r0, r0
	lsrs	r0, r0, #5
	.loc	6 100 5                         @ rt-thread/include\rtservice.h:100:5
	add	sp, #4
	bx	lr
.Ltmp94:
.Lfunc_end8:
	.size	rt_list_isempty, .Lfunc_end8-rt_list_isempty
	.cfi_endproc
	.cantunwind
	.fnend
                                        @ -- End function
	.section	.text.rt_list_len,"ax",%progbits
	.p2align	3                               @ -- Begin function rt_list_len
	.type	rt_list_len,%function
	.code	16                              @ @rt_list_len
	.thumb_func
rt_list_len:
.Lfunc_begin9:
	.loc	6 108 0 is_stmt 1               @ rt-thread/include\rtservice.h:108:0
	.fnstart
	.cfi_startproc
@ %bb.0:
	.pad	#12
	sub	sp, #12
	.cfi_def_cfa_offset 12
	str	r0, [sp, #8]
	movs	r0, #0
.Ltmp95:
	.loc	6 109 18 prologue_end           @ rt-thread/include\rtservice.h:109:18
	str	r0, [sp, #4]
	.loc	6 110 26                        @ rt-thread/include\rtservice.h:110:26
	ldr	r0, [sp, #8]
	.loc	6 110 22 is_stmt 0              @ rt-thread/include\rtservice.h:110:22
	str	r0, [sp]
	.loc	6 111 5 is_stmt 1               @ rt-thread/include\rtservice.h:111:5
	b	.LBB9_1
.LBB9_1:                                @ =>This Inner Loop Header: Depth=1
	.loc	6 111 12 is_stmt 0              @ rt-thread/include\rtservice.h:111:12
	ldr	r0, [sp]
	.loc	6 111 15                        @ rt-thread/include\rtservice.h:111:15
	ldr	r0, [r0]
	.loc	6 111 23                        @ rt-thread/include\rtservice.h:111:23
	ldr	r1, [sp, #8]
	.loc	6 111 5                         @ rt-thread/include\rtservice.h:111:5
	cmp	r0, r1
	beq	.LBB9_3
	b	.LBB9_2
.LBB9_2:                                @   in Loop: Header=BB9_1 Depth=1
.Ltmp96:
	.loc	6 113 13 is_stmt 1              @ rt-thread/include\rtservice.h:113:13
	ldr	r0, [sp]
	.loc	6 113 16 is_stmt 0              @ rt-thread/include\rtservice.h:113:16
	ldr	r0, [r0]
	.loc	6 113 11                        @ rt-thread/include\rtservice.h:113:11
	str	r0, [sp]
	.loc	6 114 13 is_stmt 1              @ rt-thread/include\rtservice.h:114:13
	ldr	r0, [sp, #4]
	adds	r0, #1
	str	r0, [sp, #4]
.Ltmp97:
	.loc	6 111 5                         @ rt-thread/include\rtservice.h:111:5
	b	.LBB9_1
.LBB9_3:
	.loc	6 117 12                        @ rt-thread/include\rtservice.h:117:12
	ldr	r0, [sp, #4]
	.loc	6 117 5 is_stmt 0               @ rt-thread/include\rtservice.h:117:5
	add	sp, #12
	bx	lr
.Ltmp98:
.Lfunc_end9:
	.size	rt_list_len, .Lfunc_end9-rt_list_len
	.cfi_endproc
	.cantunwind
	.fnend
                                        @ -- End function
	.section	.text.show_wait_queue,"ax",%progbits
	.p2align	3                               @ -- Begin function show_wait_queue
	.type	show_wait_queue,%function
	.code	16                              @ @show_wait_queue
	.thumb_func
show_wait_queue:
.Lfunc_begin10:
	.loc	1 263 0 is_stmt 1               @ rt-thread/components/finsh/cmd.c:263:0
	.fnstart
	.cfi_startproc
@ %bb.0:
	.save	{r7, lr}
	push	{r7, lr}
	.cfi_def_cfa_offset 8
	.cfi_offset lr, -4
	.cfi_offset r7, -8
	.pad	#16
	sub	sp, #16
	.cfi_def_cfa_offset 24
	str	r0, [sp, #12]
.Ltmp99:
	.loc	1 267 17 prologue_end           @ rt-thread/components/finsh/cmd.c:267:17
	ldr	r0, [sp, #12]
	.loc	1 267 23 is_stmt 0              @ rt-thread/components/finsh/cmd.c:267:23
	ldr	r0, [r0]
	.loc	1 267 15                        @ rt-thread/components/finsh/cmd.c:267:15
	str	r0, [sp, #4]
	.loc	1 267 10                        @ rt-thread/components/finsh/cmd.c:267:10
	b	.LBB10_1
.LBB10_1:                               @ =>This Inner Loop Header: Depth=1
.Ltmp100:
	.loc	1 267 29                        @ rt-thread/components/finsh/cmd.c:267:29
	ldr	r0, [sp, #4]
	.loc	1 267 37                        @ rt-thread/components/finsh/cmd.c:267:37
	ldr	r1, [sp, #12]
.Ltmp101:
	.loc	1 267 5                         @ rt-thread/components/finsh/cmd.c:267:5
	cmp	r0, r1
	beq	.LBB10_6
	b	.LBB10_2
.LBB10_2:                               @   in Loop: Header=BB10_1 Depth=1
.Ltmp102:
	.loc	1 269 18 is_stmt 1              @ rt-thread/components/finsh/cmd.c:269:18
	ldr	r0, [sp, #4]
	subs	r0, #20
	.loc	1 269 16 is_stmt 0              @ rt-thread/components/finsh/cmd.c:269:16
	str	r0, [sp, #8]
	.loc	1 270 26 is_stmt 1              @ rt-thread/components/finsh/cmd.c:270:26
	ldr	r1, [sp, #8]
	.loc	1 270 9 is_stmt 0               @ rt-thread/components/finsh/cmd.c:270:9
	movw	r0, :lower16:.L.str.66
	movt	r0, :upper16:.L.str.66
	bl	rt_kprintf
.Ltmp103:
	.loc	1 272 13 is_stmt 1              @ rt-thread/components/finsh/cmd.c:272:13
	ldr	r0, [sp, #4]
	.loc	1 272 19 is_stmt 0              @ rt-thread/components/finsh/cmd.c:272:19
	ldr	r0, [r0]
	.loc	1 272 27                        @ rt-thread/components/finsh/cmd.c:272:27
	ldr	r1, [sp, #12]
.Ltmp104:
	.loc	1 272 13                        @ rt-thread/components/finsh/cmd.c:272:13
	cmp	r0, r1
	beq	.LBB10_4
	b	.LBB10_3
.LBB10_3:                               @   in Loop: Header=BB10_1 Depth=1
.Ltmp105:
	.loc	1 273 13 is_stmt 1              @ rt-thread/components/finsh/cmd.c:273:13
	movw	r0, :lower16:.L.str.67
	movt	r0, :upper16:.L.str.67
	bl	rt_kprintf
	b	.LBB10_4
.Ltmp106:
.LBB10_4:                               @   in Loop: Header=BB10_1 Depth=1
	.loc	1 274 5                         @ rt-thread/components/finsh/cmd.c:274:5
	b	.LBB10_5
.Ltmp107:
.LBB10_5:                               @   in Loop: Header=BB10_1 Depth=1
	.loc	1 267 50                        @ rt-thread/components/finsh/cmd.c:267:50
	ldr	r0, [sp, #4]
	.loc	1 267 56 is_stmt 0              @ rt-thread/components/finsh/cmd.c:267:56
	ldr	r0, [r0]
	.loc	1 267 48                        @ rt-thread/components/finsh/cmd.c:267:48
	str	r0, [sp, #4]
	.loc	1 267 5                         @ rt-thread/components/finsh/cmd.c:267:5
	b	.LBB10_1
.Ltmp108:
.LBB10_6:
	.loc	1 275 1 is_stmt 1               @ rt-thread/components/finsh/cmd.c:275:1
	add	sp, #16
	pop	{r7, pc}
.Ltmp109:
.Lfunc_end10:
	.size	show_wait_queue, .Lfunc_end10-show_wait_queue
	.cfi_endproc
	.cantunwind
	.fnend
                                        @ -- End function
	.section	.text.list_event,"ax",%progbits
	.hidden	list_event                      @ -- Begin function list_event
	.globl	list_event
	.p2align	3
	.type	list_event,%function
	.code	16                              @ @list_event
	.thumb_func
list_event:
.Lfunc_begin11:
	.loc	1 346 0                         @ rt-thread/components/finsh/cmd.c:346:0
	.fnstart
	.cfi_startproc
@ %bb.0:
	.save	{r7, lr}
	push	{r7, lr}
	.cfi_def_cfa_offset 8
	.cfi_offset lr, -4
	.cfi_offset r7, -8
	.pad	#104
	sub	sp, #104
	.cfi_def_cfa_offset 112
	movs	r0, #0
.Ltmp110:
	.loc	1 350 16 prologue_end           @ rt-thread/components/finsh/cmd.c:350:16
	str	r0, [sp, #44]
	.loc	1 353 17                        @ rt-thread/components/finsh/cmd.c:353:17
	movw	r0, :lower16:.L.str.17
	movt	r0, :upper16:.L.str.17
	str	r0, [sp, #36]
	add	r0, sp, #80
	movs	r1, #4
	add	r2, sp, #48
	movs	r3, #8
	.loc	1 355 5                         @ rt-thread/components/finsh/cmd.c:355:5
	str	r3, [sp, #20]                   @ 4-byte Spill
	bl	list_find_init
	ldr	r0, [sp, #20]                   @ 4-byte Reload
	.loc	1 357 12                        @ rt-thread/components/finsh/cmd.c:357:12
	str	r0, [sp, #40]
	.loc	1 359 54                        @ rt-thread/components/finsh/cmd.c:359:54
	ldr	r1, [sp, #40]
	.loc	1 359 62 is_stmt 0              @ rt-thread/components/finsh/cmd.c:359:62
	ldr	r2, [sp, #36]
	.loc	1 359 5                         @ rt-thread/components/finsh/cmd.c:359:5
	movw	r0, :lower16:.L.str.18
	movt	r0, :upper16:.L.str.18
	bl	rt_kprintf
	.loc	1 359 88                        @ rt-thread/components/finsh/cmd.c:359:88
	ldr	r0, [sp, #40]
	.loc	1 359 75                        @ rt-thread/components/finsh/cmd.c:359:75
	bl	object_split
	.loc	1 360 5 is_stmt 1               @ rt-thread/components/finsh/cmd.c:360:5
	movw	r0, :lower16:.L.str.19
	movt	r0, :upper16:.L.str.19
	bl	rt_kprintf
	.loc	1 362 5                         @ rt-thread/components/finsh/cmd.c:362:5
	b	.LBB11_1
.LBB11_1:                               @ =>This Loop Header: Depth=1
                                        @     Child Loop BB11_2 Depth 2
.Ltmp111:
	.loc	1 364 30                        @ rt-thread/components/finsh/cmd.c:364:30
	ldr	r0, [sp, #44]
	add	r1, sp, #80
	.loc	1 364 16 is_stmt 0              @ rt-thread/components/finsh/cmd.c:364:16
	bl	list_get_next
	.loc	1 364 14                        @ rt-thread/components/finsh/cmd.c:364:14
	str	r0, [sp, #44]
	movs	r0, #0
.Ltmp112:
	.loc	1 367 20 is_stmt 1              @ rt-thread/components/finsh/cmd.c:367:20
	str	r0, [sp, #32]
	.loc	1 367 18 is_stmt 0              @ rt-thread/components/finsh/cmd.c:367:18
	b	.LBB11_2
.LBB11_2:                               @   Parent Loop BB11_1 Depth=1
                                        @ =>  This Inner Loop Header: Depth=2
.Ltmp113:
	.loc	1 367 25                        @ rt-thread/components/finsh/cmd.c:367:25
	ldr	r0, [sp, #32]
	.loc	1 367 38                        @ rt-thread/components/finsh/cmd.c:367:38
	ldr	r1, [sp, #96]
.Ltmp114:
	.loc	1 367 13                        @ rt-thread/components/finsh/cmd.c:367:13
	cmp	r0, r1
	bge	.LBB11_10
	b	.LBB11_3
.LBB11_3:                               @   in Loop: Header=BB11_2 Depth=2
.Ltmp115:
	.loc	1 372 23 is_stmt 1              @ rt-thread/components/finsh/cmd.c:372:23
	ldr	r1, [sp, #32]
	add	r0, sp, #48
	ldr.w	r0, [r0, r1, lsl #2]
	subs	r0, #12
	.loc	1 372 21 is_stmt 0              @ rt-thread/components/finsh/cmd.c:372:21
	str	r0, [sp, #28]
	.loc	1 373 25 is_stmt 1              @ rt-thread/components/finsh/cmd.c:373:25
	bl	rt_hw_interrupt_disable
	.loc	1 373 23 is_stmt 0              @ rt-thread/components/finsh/cmd.c:373:23
	str	r0, [sp, #100]
.Ltmp116:
	.loc	1 374 22 is_stmt 1              @ rt-thread/components/finsh/cmd.c:374:22
	ldr	r0, [sp, #28]
	ldrb	r0, [r0, #8]
	.loc	1 374 32 is_stmt 0              @ rt-thread/components/finsh/cmd.c:374:32
	and	r0, r0, #127
	.loc	1 374 71                        @ rt-thread/components/finsh/cmd.c:374:71
	ldrb.w	r1, [sp, #88]
.Ltmp117:
	.loc	1 374 21                        @ rt-thread/components/finsh/cmd.c:374:21
	cmp	r0, r1
	beq	.LBB11_5
	b	.LBB11_4
.LBB11_4:                               @   in Loop: Header=BB11_2 Depth=2
.Ltmp118:
	.loc	1 376 44 is_stmt 1              @ rt-thread/components/finsh/cmd.c:376:44
	ldr	r0, [sp, #100]
	.loc	1 376 21 is_stmt 0              @ rt-thread/components/finsh/cmd.c:376:21
	bl	rt_hw_interrupt_enable
	.loc	1 377 21 is_stmt 1              @ rt-thread/components/finsh/cmd.c:377:21
	b	.LBB11_9
.Ltmp119:
.LBB11_5:                               @   in Loop: Header=BB11_2 Depth=2
	.loc	1 380 40                        @ rt-thread/components/finsh/cmd.c:380:40
	ldr	r0, [sp, #100]
	.loc	1 380 17 is_stmt 0              @ rt-thread/components/finsh/cmd.c:380:17
	bl	rt_hw_interrupt_enable
	.loc	1 382 40 is_stmt 1              @ rt-thread/components/finsh/cmd.c:382:40
	ldr	r0, [sp, #28]
	.loc	1 382 19 is_stmt 0              @ rt-thread/components/finsh/cmd.c:382:19
	str	r0, [sp, #24]
.Ltmp120:
	.loc	1 383 39 is_stmt 1              @ rt-thread/components/finsh/cmd.c:383:39
	ldr	r0, [sp, #24]
	.loc	1 383 49 is_stmt 0              @ rt-thread/components/finsh/cmd.c:383:49
	adds	r0, #20
	.loc	1 383 22                        @ rt-thread/components/finsh/cmd.c:383:22
	bl	rt_list_isempty
.Ltmp121:
	.loc	1 383 21                        @ rt-thread/components/finsh/cmd.c:383:21
	cbnz	r0, .LBB11_7
	b	.LBB11_6
.LBB11_6:                               @   in Loop: Header=BB11_2 Depth=2
.Ltmp122:
	.loc	1 386 29 is_stmt 1              @ rt-thread/components/finsh/cmd.c:386:29
	ldr	r0, [sp, #40]
	.loc	1 387 29                        @ rt-thread/components/finsh/cmd.c:387:29
	str	r0, [sp, #8]                    @ 4-byte Spill
	ldr	r0, [sp, #24]
	.loc	1 388 32                        @ rt-thread/components/finsh/cmd.c:388:32
	str	r0, [sp, #12]                   @ 4-byte Spill
	ldr	r1, [r0, #28]
	.loc	1 389 52                        @ rt-thread/components/finsh/cmd.c:389:52
	str	r1, [sp, #16]                   @ 4-byte Spill
	adds	r0, #20
	.loc	1 389 29 is_stmt 0              @ rt-thread/components/finsh/cmd.c:389:29
	bl	rt_list_len
	ldr	r1, [sp, #8]                    @ 4-byte Reload
	ldr	r3, [sp, #12]                   @ 4-byte Reload
	mov	r12, r0
	.loc	1 385 21 is_stmt 1              @ rt-thread/components/finsh/cmd.c:385:21
	ldr	r0, [sp, #16]                   @ 4-byte Reload
	mov	r2, sp
	str.w	r12, [r2, #4]
	str	r0, [r2]
	movw	r0, :lower16:.L.str.20
	movt	r0, :upper16:.L.str.20
	movs	r2, #8
	bl	rt_kprintf
	.loc	1 390 39                        @ rt-thread/components/finsh/cmd.c:390:39
	ldr	r0, [sp, #24]
	.loc	1 390 49 is_stmt 0              @ rt-thread/components/finsh/cmd.c:390:49
	adds	r0, #20
	.loc	1 390 21                        @ rt-thread/components/finsh/cmd.c:390:21
	bl	show_wait_queue
	.loc	1 391 21 is_stmt 1              @ rt-thread/components/finsh/cmd.c:391:21
	movw	r0, :lower16:.L.str.15
	movt	r0, :upper16:.L.str.15
	bl	rt_kprintf
	.loc	1 392 17                        @ rt-thread/components/finsh/cmd.c:392:17
	b	.LBB11_8
.Ltmp123:
.LBB11_7:                               @   in Loop: Header=BB11_2 Depth=2
	.loc	1 396 29                        @ rt-thread/components/finsh/cmd.c:396:29
	ldr	r1, [sp, #40]
	.loc	1 396 50 is_stmt 0              @ rt-thread/components/finsh/cmd.c:396:50
	ldr	r3, [sp, #24]
	.loc	1 396 76                        @ rt-thread/components/finsh/cmd.c:396:76
	ldr	r0, [r3, #28]
	.loc	1 395 21 is_stmt 1              @ rt-thread/components/finsh/cmd.c:395:21
	mov	r2, sp
	str	r0, [r2]
	movw	r0, :lower16:.L.str.21
	movt	r0, :upper16:.L.str.21
	movs	r2, #8
	bl	rt_kprintf
	b	.LBB11_8
.Ltmp124:
.LBB11_8:                               @   in Loop: Header=BB11_2 Depth=2
	.loc	1 398 13                        @ rt-thread/components/finsh/cmd.c:398:13
	b	.LBB11_9
.Ltmp125:
.LBB11_9:                               @   in Loop: Header=BB11_2 Depth=2
	.loc	1 367 47                        @ rt-thread/components/finsh/cmd.c:367:47
	ldr	r0, [sp, #32]
	adds	r0, #1
	str	r0, [sp, #32]
	.loc	1 367 13 is_stmt 0              @ rt-thread/components/finsh/cmd.c:367:13
	b	.LBB11_2
.Ltmp126:
.LBB11_10:                              @   in Loop: Header=BB11_1 Depth=1
	.loc	1 400 5 is_stmt 1               @ rt-thread/components/finsh/cmd.c:400:5
	b	.LBB11_11
.Ltmp127:
.LBB11_11:                              @   in Loop: Header=BB11_1 Depth=1
	.loc	1 401 12                        @ rt-thread/components/finsh/cmd.c:401:12
	ldr	r0, [sp, #44]
.Ltmp128:
	.loc	1 400 5                         @ rt-thread/components/finsh/cmd.c:400:5
	cmp	r0, #0
	bne	.LBB11_1
	b	.LBB11_12
.Ltmp129:
.LBB11_12:
	.loc	1 0 5 is_stmt 0                 @ rt-thread/components/finsh/cmd.c:0:5
	movs	r0, #0
	.loc	1 403 5 is_stmt 1               @ rt-thread/components/finsh/cmd.c:403:5
	add	sp, #104
	pop	{r7, pc}
.Ltmp130:
.Lfunc_end11:
	.size	list_event, .Lfunc_end11-list_event
	.cfi_endproc
	.cantunwind
	.fnend
                                        @ -- End function
	.section	.text.list_mutex,"ax",%progbits
	.hidden	list_mutex                      @ -- Begin function list_mutex
	.globl	list_mutex
	.p2align	3
	.type	list_mutex,%function
	.code	16                              @ @list_mutex
	.thumb_func
list_mutex:
.Lfunc_begin12:
	.loc	1 411 0                         @ rt-thread/components/finsh/cmd.c:411:0
	.fnstart
	.cfi_startproc
@ %bb.0:
	.save	{r7, lr}
	push	{r7, lr}
	.cfi_def_cfa_offset 8
	.cfi_offset lr, -4
	.cfi_offset r7, -8
	.pad	#120
	sub	sp, #120
	.cfi_def_cfa_offset 128
	movs	r0, #0
.Ltmp131:
	.loc	1 415 16 prologue_end           @ rt-thread/components/finsh/cmd.c:415:16
	str	r0, [sp, #60]
	.loc	1 418 17                        @ rt-thread/components/finsh/cmd.c:418:17
	movw	r0, :lower16:.L.str.22
	movt	r0, :upper16:.L.str.22
	str	r0, [sp, #52]
	add	r0, sp, #96
	movs	r1, #3
	add	r2, sp, #64
	movs	r3, #8
	.loc	1 420 5                         @ rt-thread/components/finsh/cmd.c:420:5
	str	r3, [sp, #36]                   @ 4-byte Spill
	bl	list_find_init
	ldr	r0, [sp, #36]                   @ 4-byte Reload
	.loc	1 422 12                        @ rt-thread/components/finsh/cmd.c:422:12
	str	r0, [sp, #56]
	.loc	1 424 56                        @ rt-thread/components/finsh/cmd.c:424:56
	ldr	r1, [sp, #56]
	.loc	1 424 64 is_stmt 0              @ rt-thread/components/finsh/cmd.c:424:64
	ldr	r2, [sp, #52]
	.loc	1 424 5                         @ rt-thread/components/finsh/cmd.c:424:5
	movw	r0, :lower16:.L.str.23
	movt	r0, :upper16:.L.str.23
	bl	rt_kprintf
	.loc	1 424 90                        @ rt-thread/components/finsh/cmd.c:424:90
	ldr	r0, [sp, #56]
	.loc	1 424 77                        @ rt-thread/components/finsh/cmd.c:424:77
	bl	object_split
	.loc	1 425 5 is_stmt 1               @ rt-thread/components/finsh/cmd.c:425:5
	movw	r0, :lower16:.L.str.24
	movt	r0, :upper16:.L.str.24
	bl	rt_kprintf
	.loc	1 427 5                         @ rt-thread/components/finsh/cmd.c:427:5
	b	.LBB12_1
.LBB12_1:                               @ =>This Loop Header: Depth=1
                                        @     Child Loop BB12_2 Depth 2
.Ltmp132:
	.loc	1 429 30                        @ rt-thread/components/finsh/cmd.c:429:30
	ldr	r0, [sp, #60]
	add	r1, sp, #96
	.loc	1 429 16 is_stmt 0              @ rt-thread/components/finsh/cmd.c:429:16
	bl	list_get_next
	.loc	1 429 14                        @ rt-thread/components/finsh/cmd.c:429:14
	str	r0, [sp, #60]
	movs	r0, #0
.Ltmp133:
	.loc	1 432 20 is_stmt 1              @ rt-thread/components/finsh/cmd.c:432:20
	str	r0, [sp, #48]
	.loc	1 432 18 is_stmt 0              @ rt-thread/components/finsh/cmd.c:432:18
	b	.LBB12_2
.LBB12_2:                               @   Parent Loop BB12_1 Depth=1
                                        @ =>  This Inner Loop Header: Depth=2
.Ltmp134:
	.loc	1 432 25                        @ rt-thread/components/finsh/cmd.c:432:25
	ldr	r0, [sp, #48]
	.loc	1 432 38                        @ rt-thread/components/finsh/cmd.c:432:38
	ldr	r1, [sp, #112]
.Ltmp135:
	.loc	1 432 13                        @ rt-thread/components/finsh/cmd.c:432:13
	cmp	r0, r1
	bge	.LBB12_7
	b	.LBB12_3
.LBB12_3:                               @   in Loop: Header=BB12_2 Depth=2
.Ltmp136:
	.loc	1 437 23 is_stmt 1              @ rt-thread/components/finsh/cmd.c:437:23
	ldr	r1, [sp, #48]
	add	r0, sp, #64
	ldr.w	r0, [r0, r1, lsl #2]
	subs	r0, #12
	.loc	1 437 21 is_stmt 0              @ rt-thread/components/finsh/cmd.c:437:21
	str	r0, [sp, #44]
	.loc	1 438 25 is_stmt 1              @ rt-thread/components/finsh/cmd.c:438:25
	bl	rt_hw_interrupt_disable
	.loc	1 438 23 is_stmt 0              @ rt-thread/components/finsh/cmd.c:438:23
	str	r0, [sp, #116]
.Ltmp137:
	.loc	1 439 22 is_stmt 1              @ rt-thread/components/finsh/cmd.c:439:22
	ldr	r0, [sp, #44]
	ldrb	r0, [r0, #8]
	.loc	1 439 32 is_stmt 0              @ rt-thread/components/finsh/cmd.c:439:32
	and	r0, r0, #127
	.loc	1 439 71                        @ rt-thread/components/finsh/cmd.c:439:71
	ldrb.w	r1, [sp, #104]
.Ltmp138:
	.loc	1 439 21                        @ rt-thread/components/finsh/cmd.c:439:21
	cmp	r0, r1
	beq	.LBB12_5
	b	.LBB12_4
.LBB12_4:                               @   in Loop: Header=BB12_2 Depth=2
.Ltmp139:
	.loc	1 441 44 is_stmt 1              @ rt-thread/components/finsh/cmd.c:441:44
	ldr	r0, [sp, #116]
	.loc	1 441 21 is_stmt 0              @ rt-thread/components/finsh/cmd.c:441:21
	bl	rt_hw_interrupt_enable
	.loc	1 442 21 is_stmt 1              @ rt-thread/components/finsh/cmd.c:442:21
	b	.LBB12_6
.Ltmp140:
.LBB12_5:                               @   in Loop: Header=BB12_2 Depth=2
	.loc	1 445 40                        @ rt-thread/components/finsh/cmd.c:445:40
	ldr	r0, [sp, #116]
	.loc	1 445 17 is_stmt 0              @ rt-thread/components/finsh/cmd.c:445:17
	bl	rt_hw_interrupt_enable
	.loc	1 447 40 is_stmt 1              @ rt-thread/components/finsh/cmd.c:447:40
	ldr	r0, [sp, #44]
	.loc	1 447 19 is_stmt 0              @ rt-thread/components/finsh/cmd.c:447:19
	str	r0, [sp, #40]
	.loc	1 449 25 is_stmt 1              @ rt-thread/components/finsh/cmd.c:449:25
	ldr	r0, [sp, #56]
	.loc	1 450 25                        @ rt-thread/components/finsh/cmd.c:450:25
	str	r0, [sp, #28]                   @ 4-byte Spill
	ldr	r0, [sp, #40]
	.loc	1 452 28                        @ rt-thread/components/finsh/cmd.c:452:28
	str	r0, [sp, #32]                   @ 4-byte Spill
	ldr	r1, [r0, #32]
	.loc	1 453 28                        @ rt-thread/components/finsh/cmd.c:453:28
	str	r1, [sp, #24]                   @ 4-byte Spill
	ldrb	r1, [r0, #31]
	.loc	1 454 48                        @ rt-thread/components/finsh/cmd.c:454:48
	str	r1, [sp, #20]                   @ 4-byte Spill
	adds	r0, #20
	.loc	1 454 25 is_stmt 0              @ rt-thread/components/finsh/cmd.c:454:25
	bl	rt_list_len
	ldr.w	r12, [sp, #20]                  @ 4-byte Reload
	ldr	r2, [sp, #24]                   @ 4-byte Reload
	ldr	r1, [sp, #28]                   @ 4-byte Reload
	ldr	r3, [sp, #32]                   @ 4-byte Reload
	mov	lr, r0
	.loc	1 448 17 is_stmt 1              @ rt-thread/components/finsh/cmd.c:448:17
	mov	r0, sp
	str.w	lr, [r0, #12]
	str.w	r12, [r0, #8]
	str	r2, [r0, #4]
	movs	r2, #8
	str	r2, [r0]
	movw	r0, :lower16:.L.str.25
	movt	r0, :upper16:.L.str.25
	bl	rt_kprintf
	.loc	1 456 13                        @ rt-thread/components/finsh/cmd.c:456:13
	b	.LBB12_6
.Ltmp141:
.LBB12_6:                               @   in Loop: Header=BB12_2 Depth=2
	.loc	1 432 47                        @ rt-thread/components/finsh/cmd.c:432:47
	ldr	r0, [sp, #48]
	adds	r0, #1
	str	r0, [sp, #48]
	.loc	1 432 13 is_stmt 0              @ rt-thread/components/finsh/cmd.c:432:13
	b	.LBB12_2
.Ltmp142:
.LBB12_7:                               @   in Loop: Header=BB12_1 Depth=1
	.loc	1 458 5 is_stmt 1               @ rt-thread/components/finsh/cmd.c:458:5
	b	.LBB12_8
.Ltmp143:
.LBB12_8:                               @   in Loop: Header=BB12_1 Depth=1
	.loc	1 459 12                        @ rt-thread/components/finsh/cmd.c:459:12
	ldr	r0, [sp, #60]
.Ltmp144:
	.loc	1 458 5                         @ rt-thread/components/finsh/cmd.c:458:5
	cmp	r0, #0
	bne	.LBB12_1
	b	.LBB12_9
.Ltmp145:
.LBB12_9:
	.loc	1 0 5 is_stmt 0                 @ rt-thread/components/finsh/cmd.c:0:5
	movs	r0, #0
	.loc	1 461 5 is_stmt 1               @ rt-thread/components/finsh/cmd.c:461:5
	add	sp, #120
	pop	{r7, pc}
.Ltmp146:
.Lfunc_end12:
	.size	list_mutex, .Lfunc_end12-list_mutex
	.cfi_endproc
	.cantunwind
	.fnend
                                        @ -- End function
	.section	.text.list_mailbox,"ax",%progbits
	.hidden	list_mailbox                    @ -- Begin function list_mailbox
	.globl	list_mailbox
	.p2align	3
	.type	list_mailbox,%function
	.code	16                              @ @list_mailbox
	.thumb_func
list_mailbox:
.Lfunc_begin13:
	.loc	1 469 0                         @ rt-thread/components/finsh/cmd.c:469:0
	.fnstart
	.cfi_startproc
@ %bb.0:
	.save	{r7, lr}
	push	{r7, lr}
	.cfi_def_cfa_offset 8
	.cfi_offset lr, -4
	.cfi_offset r7, -8
	.pad	#128
	sub	sp, #128
	.cfi_def_cfa_offset 136
	movs	r0, #0
.Ltmp147:
	.loc	1 473 16 prologue_end           @ rt-thread/components/finsh/cmd.c:473:16
	str	r0, [sp, #68]
	.loc	1 476 17                        @ rt-thread/components/finsh/cmd.c:476:17
	movw	r0, :lower16:.L.str.26
	movt	r0, :upper16:.L.str.26
	str	r0, [sp, #60]
	add	r0, sp, #104
	movs	r1, #5
	add	r2, sp, #72
	movs	r3, #8
	.loc	1 478 5                         @ rt-thread/components/finsh/cmd.c:478:5
	str	r3, [sp, #44]                   @ 4-byte Spill
	bl	list_find_init
	ldr	r0, [sp, #44]                   @ 4-byte Reload
	.loc	1 480 12                        @ rt-thread/components/finsh/cmd.c:480:12
	str	r0, [sp, #64]
	.loc	1 482 53                        @ rt-thread/components/finsh/cmd.c:482:53
	ldr	r1, [sp, #64]
	.loc	1 482 61 is_stmt 0              @ rt-thread/components/finsh/cmd.c:482:61
	ldr	r2, [sp, #60]
	.loc	1 482 5                         @ rt-thread/components/finsh/cmd.c:482:5
	movw	r0, :lower16:.L.str.27
	movt	r0, :upper16:.L.str.27
	bl	rt_kprintf
	.loc	1 482 87                        @ rt-thread/components/finsh/cmd.c:482:87
	ldr	r0, [sp, #64]
	.loc	1 482 74                        @ rt-thread/components/finsh/cmd.c:482:74
	bl	object_split
	.loc	1 483 5 is_stmt 1               @ rt-thread/components/finsh/cmd.c:483:5
	movw	r0, :lower16:.L.str.28
	movt	r0, :upper16:.L.str.28
	bl	rt_kprintf
	.loc	1 485 5                         @ rt-thread/components/finsh/cmd.c:485:5
	b	.LBB13_1
.LBB13_1:                               @ =>This Loop Header: Depth=1
                                        @     Child Loop BB13_2 Depth 2
.Ltmp148:
	.loc	1 487 30                        @ rt-thread/components/finsh/cmd.c:487:30
	ldr	r0, [sp, #68]
	add	r1, sp, #104
	.loc	1 487 16 is_stmt 0              @ rt-thread/components/finsh/cmd.c:487:16
	bl	list_get_next
	.loc	1 487 14                        @ rt-thread/components/finsh/cmd.c:487:14
	str	r0, [sp, #68]
	movs	r0, #0
.Ltmp149:
	.loc	1 490 20 is_stmt 1              @ rt-thread/components/finsh/cmd.c:490:20
	str	r0, [sp, #56]
	.loc	1 490 18 is_stmt 0              @ rt-thread/components/finsh/cmd.c:490:18
	b	.LBB13_2
.LBB13_2:                               @   Parent Loop BB13_1 Depth=1
                                        @ =>  This Inner Loop Header: Depth=2
.Ltmp150:
	.loc	1 490 25                        @ rt-thread/components/finsh/cmd.c:490:25
	ldr	r0, [sp, #56]
	.loc	1 490 38                        @ rt-thread/components/finsh/cmd.c:490:38
	ldr	r1, [sp, #120]
.Ltmp151:
	.loc	1 490 13                        @ rt-thread/components/finsh/cmd.c:490:13
	cmp	r0, r1
	bge	.LBB13_10
	b	.LBB13_3
.LBB13_3:                               @   in Loop: Header=BB13_2 Depth=2
.Ltmp152:
	.loc	1 495 23 is_stmt 1              @ rt-thread/components/finsh/cmd.c:495:23
	ldr	r1, [sp, #56]
	add	r0, sp, #72
	ldr.w	r0, [r0, r1, lsl #2]
	subs	r0, #12
	.loc	1 495 21 is_stmt 0              @ rt-thread/components/finsh/cmd.c:495:21
	str	r0, [sp, #52]
	.loc	1 496 25 is_stmt 1              @ rt-thread/components/finsh/cmd.c:496:25
	bl	rt_hw_interrupt_disable
	.loc	1 496 23 is_stmt 0              @ rt-thread/components/finsh/cmd.c:496:23
	str	r0, [sp, #124]
.Ltmp153:
	.loc	1 497 22 is_stmt 1              @ rt-thread/components/finsh/cmd.c:497:22
	ldr	r0, [sp, #52]
	ldrb	r0, [r0, #8]
	.loc	1 497 32 is_stmt 0              @ rt-thread/components/finsh/cmd.c:497:32
	and	r0, r0, #127
	.loc	1 497 71                        @ rt-thread/components/finsh/cmd.c:497:71
	ldrb.w	r1, [sp, #112]
.Ltmp154:
	.loc	1 497 21                        @ rt-thread/components/finsh/cmd.c:497:21
	cmp	r0, r1
	beq	.LBB13_5
	b	.LBB13_4
.LBB13_4:                               @   in Loop: Header=BB13_2 Depth=2
.Ltmp155:
	.loc	1 499 44 is_stmt 1              @ rt-thread/components/finsh/cmd.c:499:44
	ldr	r0, [sp, #124]
	.loc	1 499 21 is_stmt 0              @ rt-thread/components/finsh/cmd.c:499:21
	bl	rt_hw_interrupt_enable
	.loc	1 500 21 is_stmt 1              @ rt-thread/components/finsh/cmd.c:500:21
	b	.LBB13_9
.Ltmp156:
.LBB13_5:                               @   in Loop: Header=BB13_2 Depth=2
	.loc	1 503 40                        @ rt-thread/components/finsh/cmd.c:503:40
	ldr	r0, [sp, #124]
	.loc	1 503 17 is_stmt 0              @ rt-thread/components/finsh/cmd.c:503:17
	bl	rt_hw_interrupt_enable
	.loc	1 505 42 is_stmt 1              @ rt-thread/components/finsh/cmd.c:505:42
	ldr	r0, [sp, #52]
	.loc	1 505 19 is_stmt 0              @ rt-thread/components/finsh/cmd.c:505:19
	str	r0, [sp, #48]
.Ltmp157:
	.loc	1 506 39 is_stmt 1              @ rt-thread/components/finsh/cmd.c:506:39
	ldr	r0, [sp, #48]
	.loc	1 506 49 is_stmt 0              @ rt-thread/components/finsh/cmd.c:506:49
	adds	r0, #20
	.loc	1 506 22                        @ rt-thread/components/finsh/cmd.c:506:22
	bl	rt_list_isempty
.Ltmp158:
	.loc	1 506 21                        @ rt-thread/components/finsh/cmd.c:506:21
	cbnz	r0, .LBB13_7
	b	.LBB13_6
.LBB13_6:                               @   in Loop: Header=BB13_2 Depth=2
.Ltmp159:
	.loc	1 509 29 is_stmt 1              @ rt-thread/components/finsh/cmd.c:509:29
	ldr	r0, [sp, #64]
	.loc	1 510 29                        @ rt-thread/components/finsh/cmd.c:510:29
	str	r0, [sp, #32]                   @ 4-byte Spill
	ldr	r0, [sp, #48]
	.loc	1 511 32                        @ rt-thread/components/finsh/cmd.c:511:32
	str	r0, [sp, #36]                   @ 4-byte Spill
	ldrh	r1, [r0, #34]
	.loc	1 512 32                        @ rt-thread/components/finsh/cmd.c:512:32
	str	r1, [sp, #40]                   @ 4-byte Spill
	ldrh	r1, [r0, #32]
	.loc	1 513 52                        @ rt-thread/components/finsh/cmd.c:513:52
	str	r1, [sp, #28]                   @ 4-byte Spill
	adds	r0, #20
	.loc	1 513 29 is_stmt 0              @ rt-thread/components/finsh/cmd.c:513:29
	bl	rt_list_len
	ldr.w	r12, [sp, #28]                  @ 4-byte Reload
	ldr	r1, [sp, #32]                   @ 4-byte Reload
	ldr	r3, [sp, #36]                   @ 4-byte Reload
	mov	lr, r0
	.loc	1 508 21 is_stmt 1              @ rt-thread/components/finsh/cmd.c:508:21
	ldr	r0, [sp, #40]                   @ 4-byte Reload
	mov	r2, sp
	str.w	lr, [r2, #8]
	str.w	r12, [r2, #4]
	str	r0, [r2]
	movw	r0, :lower16:.L.str.29
	movt	r0, :upper16:.L.str.29
	movs	r2, #8
	bl	rt_kprintf
	.loc	1 514 39                        @ rt-thread/components/finsh/cmd.c:514:39
	ldr	r0, [sp, #48]
	.loc	1 514 49 is_stmt 0              @ rt-thread/components/finsh/cmd.c:514:49
	adds	r0, #20
	.loc	1 514 21                        @ rt-thread/components/finsh/cmd.c:514:21
	bl	show_wait_queue
	.loc	1 515 21 is_stmt 1              @ rt-thread/components/finsh/cmd.c:515:21
	movw	r0, :lower16:.L.str.15
	movt	r0, :upper16:.L.str.15
	bl	rt_kprintf
	.loc	1 516 17                        @ rt-thread/components/finsh/cmd.c:516:17
	b	.LBB13_8
.Ltmp160:
.LBB13_7:                               @   in Loop: Header=BB13_2 Depth=2
	.loc	1 520 29                        @ rt-thread/components/finsh/cmd.c:520:29
	ldr	r0, [sp, #64]
	.loc	1 521 29                        @ rt-thread/components/finsh/cmd.c:521:29
	str	r0, [sp, #16]                   @ 4-byte Spill
	ldr	r0, [sp, #48]
	.loc	1 522 32                        @ rt-thread/components/finsh/cmd.c:522:32
	str	r0, [sp, #20]                   @ 4-byte Spill
	ldrh	r1, [r0, #34]
	.loc	1 523 32                        @ rt-thread/components/finsh/cmd.c:523:32
	str	r1, [sp, #24]                   @ 4-byte Spill
	ldrh	r1, [r0, #32]
	.loc	1 524 52                        @ rt-thread/components/finsh/cmd.c:524:52
	str	r1, [sp, #12]                   @ 4-byte Spill
	adds	r0, #20
	.loc	1 524 29 is_stmt 0              @ rt-thread/components/finsh/cmd.c:524:29
	bl	rt_list_len
	ldr.w	r12, [sp, #12]                  @ 4-byte Reload
	ldr	r1, [sp, #16]                   @ 4-byte Reload
	ldr	r3, [sp, #20]                   @ 4-byte Reload
	mov	lr, r0
	.loc	1 519 21 is_stmt 1              @ rt-thread/components/finsh/cmd.c:519:21
	ldr	r0, [sp, #24]                   @ 4-byte Reload
	mov	r2, sp
	str.w	lr, [r2, #8]
	str.w	r12, [r2, #4]
	str	r0, [r2]
	movw	r0, :lower16:.L.str.30
	movt	r0, :upper16:.L.str.30
	movs	r2, #8
	bl	rt_kprintf
	b	.LBB13_8
.Ltmp161:
.LBB13_8:                               @   in Loop: Header=BB13_2 Depth=2
	.loc	1 527 13                        @ rt-thread/components/finsh/cmd.c:527:13
	b	.LBB13_9
.Ltmp162:
.LBB13_9:                               @   in Loop: Header=BB13_2 Depth=2
	.loc	1 490 47                        @ rt-thread/components/finsh/cmd.c:490:47
	ldr	r0, [sp, #56]
	adds	r0, #1
	str	r0, [sp, #56]
	.loc	1 490 13 is_stmt 0              @ rt-thread/components/finsh/cmd.c:490:13
	b	.LBB13_2
.Ltmp163:
.LBB13_10:                              @   in Loop: Header=BB13_1 Depth=1
	.loc	1 529 5 is_stmt 1               @ rt-thread/components/finsh/cmd.c:529:5
	b	.LBB13_11
.Ltmp164:
.LBB13_11:                              @   in Loop: Header=BB13_1 Depth=1
	.loc	1 530 12                        @ rt-thread/components/finsh/cmd.c:530:12
	ldr	r0, [sp, #68]
.Ltmp165:
	.loc	1 529 5                         @ rt-thread/components/finsh/cmd.c:529:5
	cmp	r0, #0
	bne.w	.LBB13_1
	b	.LBB13_12
.Ltmp166:
.LBB13_12:
	.loc	1 0 5 is_stmt 0                 @ rt-thread/components/finsh/cmd.c:0:5
	movs	r0, #0
	.loc	1 532 5 is_stmt 1               @ rt-thread/components/finsh/cmd.c:532:5
	add	sp, #128
	pop	{r7, pc}
.Ltmp167:
.Lfunc_end13:
	.size	list_mailbox, .Lfunc_end13-list_mailbox
	.cfi_endproc
	.cantunwind
	.fnend
                                        @ -- End function
	.section	.text.list_msgqueue,"ax",%progbits
	.hidden	list_msgqueue                   @ -- Begin function list_msgqueue
	.globl	list_msgqueue
	.p2align	3
	.type	list_msgqueue,%function
	.code	16                              @ @list_msgqueue
	.thumb_func
list_msgqueue:
.Lfunc_begin14:
	.loc	1 540 0                         @ rt-thread/components/finsh/cmd.c:540:0
	.fnstart
	.cfi_startproc
@ %bb.0:
	.save	{r7, lr}
	push	{r7, lr}
	.cfi_def_cfa_offset 8
	.cfi_offset lr, -4
	.cfi_offset r7, -8
	.pad	#120
	sub	sp, #120
	.cfi_def_cfa_offset 128
	movs	r0, #0
.Ltmp168:
	.loc	1 544 16 prologue_end           @ rt-thread/components/finsh/cmd.c:544:16
	str	r0, [sp, #60]
	.loc	1 547 17                        @ rt-thread/components/finsh/cmd.c:547:17
	movw	r0, :lower16:.L.str.31
	movt	r0, :upper16:.L.str.31
	str	r0, [sp, #52]
	add	r0, sp, #96
	movs	r1, #6
	add	r2, sp, #64
	movs	r3, #8
	.loc	1 549 5                         @ rt-thread/components/finsh/cmd.c:549:5
	str	r3, [sp, #36]                   @ 4-byte Spill
	bl	list_find_init
	ldr	r0, [sp, #36]                   @ 4-byte Reload
	.loc	1 551 12                        @ rt-thread/components/finsh/cmd.c:551:12
	str	r0, [sp, #56]
	.loc	1 553 48                        @ rt-thread/components/finsh/cmd.c:553:48
	ldr	r1, [sp, #56]
	.loc	1 553 56 is_stmt 0              @ rt-thread/components/finsh/cmd.c:553:56
	ldr	r2, [sp, #52]
	.loc	1 553 5                         @ rt-thread/components/finsh/cmd.c:553:5
	movw	r0, :lower16:.L.str.32
	movt	r0, :upper16:.L.str.32
	bl	rt_kprintf
	.loc	1 553 82                        @ rt-thread/components/finsh/cmd.c:553:82
	ldr	r0, [sp, #56]
	.loc	1 553 69                        @ rt-thread/components/finsh/cmd.c:553:69
	bl	object_split
	.loc	1 554 5 is_stmt 1               @ rt-thread/components/finsh/cmd.c:554:5
	movw	r0, :lower16:.L.str.33
	movt	r0, :upper16:.L.str.33
	bl	rt_kprintf
	.loc	1 555 5                         @ rt-thread/components/finsh/cmd.c:555:5
	b	.LBB14_1
.LBB14_1:                               @ =>This Loop Header: Depth=1
                                        @     Child Loop BB14_2 Depth 2
.Ltmp169:
	.loc	1 557 30                        @ rt-thread/components/finsh/cmd.c:557:30
	ldr	r0, [sp, #60]
	add	r1, sp, #96
	.loc	1 557 16 is_stmt 0              @ rt-thread/components/finsh/cmd.c:557:16
	bl	list_get_next
	.loc	1 557 14                        @ rt-thread/components/finsh/cmd.c:557:14
	str	r0, [sp, #60]
	movs	r0, #0
.Ltmp170:
	.loc	1 560 20 is_stmt 1              @ rt-thread/components/finsh/cmd.c:560:20
	str	r0, [sp, #48]
	.loc	1 560 18 is_stmt 0              @ rt-thread/components/finsh/cmd.c:560:18
	b	.LBB14_2
.LBB14_2:                               @   Parent Loop BB14_1 Depth=1
                                        @ =>  This Inner Loop Header: Depth=2
.Ltmp171:
	.loc	1 560 25                        @ rt-thread/components/finsh/cmd.c:560:25
	ldr	r0, [sp, #48]
	.loc	1 560 38                        @ rt-thread/components/finsh/cmd.c:560:38
	ldr	r1, [sp, #112]
.Ltmp172:
	.loc	1 560 13                        @ rt-thread/components/finsh/cmd.c:560:13
	cmp	r0, r1
	bge	.LBB14_10
	b	.LBB14_3
.LBB14_3:                               @   in Loop: Header=BB14_2 Depth=2
.Ltmp173:
	.loc	1 565 23 is_stmt 1              @ rt-thread/components/finsh/cmd.c:565:23
	ldr	r1, [sp, #48]
	add	r0, sp, #64
	ldr.w	r0, [r0, r1, lsl #2]
	subs	r0, #12
	.loc	1 565 21 is_stmt 0              @ rt-thread/components/finsh/cmd.c:565:21
	str	r0, [sp, #44]
	.loc	1 566 25 is_stmt 1              @ rt-thread/components/finsh/cmd.c:566:25
	bl	rt_hw_interrupt_disable
	.loc	1 566 23 is_stmt 0              @ rt-thread/components/finsh/cmd.c:566:23
	str	r0, [sp, #116]
.Ltmp174:
	.loc	1 567 22 is_stmt 1              @ rt-thread/components/finsh/cmd.c:567:22
	ldr	r0, [sp, #44]
	ldrb	r0, [r0, #8]
	.loc	1 567 32 is_stmt 0              @ rt-thread/components/finsh/cmd.c:567:32
	and	r0, r0, #127
	.loc	1 567 71                        @ rt-thread/components/finsh/cmd.c:567:71
	ldrb.w	r1, [sp, #104]
.Ltmp175:
	.loc	1 567 21                        @ rt-thread/components/finsh/cmd.c:567:21
	cmp	r0, r1
	beq	.LBB14_5
	b	.LBB14_4
.LBB14_4:                               @   in Loop: Header=BB14_2 Depth=2
.Ltmp176:
	.loc	1 569 44 is_stmt 1              @ rt-thread/components/finsh/cmd.c:569:44
	ldr	r0, [sp, #116]
	.loc	1 569 21 is_stmt 0              @ rt-thread/components/finsh/cmd.c:569:21
	bl	rt_hw_interrupt_enable
	.loc	1 570 21 is_stmt 1              @ rt-thread/components/finsh/cmd.c:570:21
	b	.LBB14_9
.Ltmp177:
.LBB14_5:                               @   in Loop: Header=BB14_2 Depth=2
	.loc	1 573 40                        @ rt-thread/components/finsh/cmd.c:573:40
	ldr	r0, [sp, #116]
	.loc	1 573 17 is_stmt 0              @ rt-thread/components/finsh/cmd.c:573:17
	bl	rt_hw_interrupt_enable
	.loc	1 575 47 is_stmt 1              @ rt-thread/components/finsh/cmd.c:575:47
	ldr	r0, [sp, #44]
	.loc	1 575 19 is_stmt 0              @ rt-thread/components/finsh/cmd.c:575:19
	str	r0, [sp, #40]
.Ltmp178:
	.loc	1 576 39 is_stmt 1              @ rt-thread/components/finsh/cmd.c:576:39
	ldr	r0, [sp, #40]
	.loc	1 576 49 is_stmt 0              @ rt-thread/components/finsh/cmd.c:576:49
	adds	r0, #20
	.loc	1 576 22                        @ rt-thread/components/finsh/cmd.c:576:22
	bl	rt_list_isempty
.Ltmp179:
	.loc	1 576 21                        @ rt-thread/components/finsh/cmd.c:576:21
	cbnz	r0, .LBB14_7
	b	.LBB14_6
.LBB14_6:                               @   in Loop: Header=BB14_2 Depth=2
.Ltmp180:
	.loc	1 579 29 is_stmt 1              @ rt-thread/components/finsh/cmd.c:579:29
	ldr	r0, [sp, #56]
	.loc	1 580 29                        @ rt-thread/components/finsh/cmd.c:580:29
	str	r0, [sp, #24]                   @ 4-byte Spill
	ldr	r0, [sp, #40]
	.loc	1 581 32                        @ rt-thread/components/finsh/cmd.c:581:32
	str	r0, [sp, #28]                   @ 4-byte Spill
	ldrh	r1, [r0, #36]
	.loc	1 582 52                        @ rt-thread/components/finsh/cmd.c:582:52
	str	r1, [sp, #32]                   @ 4-byte Spill
	adds	r0, #20
	.loc	1 582 29 is_stmt 0              @ rt-thread/components/finsh/cmd.c:582:29
	bl	rt_list_len
	ldr	r1, [sp, #24]                   @ 4-byte Reload
	ldr	r3, [sp, #28]                   @ 4-byte Reload
	mov	r12, r0
	.loc	1 578 21 is_stmt 1              @ rt-thread/components/finsh/cmd.c:578:21
	ldr	r0, [sp, #32]                   @ 4-byte Reload
	mov	r2, sp
	str.w	r12, [r2, #4]
	str	r0, [r2]
	movw	r0, :lower16:.L.str.34
	movt	r0, :upper16:.L.str.34
	movs	r2, #8
	bl	rt_kprintf
	.loc	1 583 39                        @ rt-thread/components/finsh/cmd.c:583:39
	ldr	r0, [sp, #40]
	.loc	1 583 49 is_stmt 0              @ rt-thread/components/finsh/cmd.c:583:49
	adds	r0, #20
	.loc	1 583 21                        @ rt-thread/components/finsh/cmd.c:583:21
	bl	show_wait_queue
	.loc	1 584 21 is_stmt 1              @ rt-thread/components/finsh/cmd.c:584:21
	movw	r0, :lower16:.L.str.15
	movt	r0, :upper16:.L.str.15
	bl	rt_kprintf
	.loc	1 585 17                        @ rt-thread/components/finsh/cmd.c:585:17
	b	.LBB14_8
.Ltmp181:
.LBB14_7:                               @   in Loop: Header=BB14_2 Depth=2
	.loc	1 589 29                        @ rt-thread/components/finsh/cmd.c:589:29
	ldr	r0, [sp, #56]
	.loc	1 590 29                        @ rt-thread/components/finsh/cmd.c:590:29
	str	r0, [sp, #12]                   @ 4-byte Spill
	ldr	r0, [sp, #40]
	.loc	1 591 32                        @ rt-thread/components/finsh/cmd.c:591:32
	str	r0, [sp, #16]                   @ 4-byte Spill
	ldrh	r1, [r0, #36]
	.loc	1 592 52                        @ rt-thread/components/finsh/cmd.c:592:52
	str	r1, [sp, #20]                   @ 4-byte Spill
	adds	r0, #20
	.loc	1 592 29 is_stmt 0              @ rt-thread/components/finsh/cmd.c:592:29
	bl	rt_list_len
	ldr	r1, [sp, #12]                   @ 4-byte Reload
	ldr	r3, [sp, #16]                   @ 4-byte Reload
	mov	r12, r0
	.loc	1 588 21 is_stmt 1              @ rt-thread/components/finsh/cmd.c:588:21
	ldr	r0, [sp, #20]                   @ 4-byte Reload
	mov	r2, sp
	str.w	r12, [r2, #4]
	str	r0, [r2]
	movw	r0, :lower16:.L.str.35
	movt	r0, :upper16:.L.str.35
	movs	r2, #8
	bl	rt_kprintf
	b	.LBB14_8
.Ltmp182:
.LBB14_8:                               @   in Loop: Header=BB14_2 Depth=2
	.loc	1 594 13                        @ rt-thread/components/finsh/cmd.c:594:13
	b	.LBB14_9
.Ltmp183:
.LBB14_9:                               @   in Loop: Header=BB14_2 Depth=2
	.loc	1 560 47                        @ rt-thread/components/finsh/cmd.c:560:47
	ldr	r0, [sp, #48]
	adds	r0, #1
	str	r0, [sp, #48]
	.loc	1 560 13 is_stmt 0              @ rt-thread/components/finsh/cmd.c:560:13
	b	.LBB14_2
.Ltmp184:
.LBB14_10:                              @   in Loop: Header=BB14_1 Depth=1
	.loc	1 596 5 is_stmt 1               @ rt-thread/components/finsh/cmd.c:596:5
	b	.LBB14_11
.Ltmp185:
.LBB14_11:                              @   in Loop: Header=BB14_1 Depth=1
	.loc	1 597 12                        @ rt-thread/components/finsh/cmd.c:597:12
	ldr	r0, [sp, #60]
.Ltmp186:
	.loc	1 596 5                         @ rt-thread/components/finsh/cmd.c:596:5
	cmp	r0, #0
	bne.w	.LBB14_1
	b	.LBB14_12
.Ltmp187:
.LBB14_12:
	.loc	1 0 5 is_stmt 0                 @ rt-thread/components/finsh/cmd.c:0:5
	movs	r0, #0
	.loc	1 599 5 is_stmt 1               @ rt-thread/components/finsh/cmd.c:599:5
	add	sp, #120
	pop	{r7, pc}
.Ltmp188:
.Lfunc_end14:
	.size	list_msgqueue, .Lfunc_end14-list_msgqueue
	.cfi_endproc
	.cantunwind
	.fnend
                                        @ -- End function
	.section	.text.list_memheap,"ax",%progbits
	.hidden	list_memheap                    @ -- Begin function list_memheap
	.globl	list_memheap
	.p2align	3
	.type	list_memheap,%function
	.code	16                              @ @list_memheap
	.thumb_func
list_memheap:
.Lfunc_begin15:
	.loc	1 607 0                         @ rt-thread/components/finsh/cmd.c:607:0
	.fnstart
	.cfi_startproc
@ %bb.0:
	.save	{r7, lr}
	push	{r7, lr}
	.cfi_def_cfa_offset 8
	.cfi_offset lr, -4
	.cfi_offset r7, -8
	.pad	#96
	sub	sp, #96
	.cfi_def_cfa_offset 104
	movs	r0, #0
.Ltmp189:
	.loc	1 611 16 prologue_end           @ rt-thread/components/finsh/cmd.c:611:16
	str	r0, [sp, #36]
	.loc	1 614 17                        @ rt-thread/components/finsh/cmd.c:614:17
	movw	r0, :lower16:.L.str.36
	movt	r0, :upper16:.L.str.36
	str	r0, [sp, #28]
	add	r0, sp, #72
	movs	r1, #7
	add	r2, sp, #40
	movs	r3, #8
	.loc	1 616 5                         @ rt-thread/components/finsh/cmd.c:616:5
	str	r3, [sp, #12]                   @ 4-byte Spill
	bl	list_find_init
	ldr	r0, [sp, #12]                   @ 4-byte Reload
	.loc	1 618 12                        @ rt-thread/components/finsh/cmd.c:618:12
	str	r0, [sp, #32]
	.loc	1 620 68                        @ rt-thread/components/finsh/cmd.c:620:68
	ldr	r1, [sp, #32]
	.loc	1 620 76 is_stmt 0              @ rt-thread/components/finsh/cmd.c:620:76
	ldr	r2, [sp, #28]
	.loc	1 620 5                         @ rt-thread/components/finsh/cmd.c:620:5
	movw	r0, :lower16:.L.str.37
	movt	r0, :upper16:.L.str.37
	bl	rt_kprintf
	.loc	1 620 102                       @ rt-thread/components/finsh/cmd.c:620:102
	ldr	r0, [sp, #32]
	.loc	1 620 89                        @ rt-thread/components/finsh/cmd.c:620:89
	bl	object_split
	.loc	1 621 5 is_stmt 1               @ rt-thread/components/finsh/cmd.c:621:5
	movw	r0, :lower16:.L.str.38
	movt	r0, :upper16:.L.str.38
	bl	rt_kprintf
	.loc	1 622 5                         @ rt-thread/components/finsh/cmd.c:622:5
	b	.LBB15_1
.LBB15_1:                               @ =>This Loop Header: Depth=1
                                        @     Child Loop BB15_2 Depth 2
.Ltmp190:
	.loc	1 624 30                        @ rt-thread/components/finsh/cmd.c:624:30
	ldr	r0, [sp, #36]
	add	r1, sp, #72
	.loc	1 624 16 is_stmt 0              @ rt-thread/components/finsh/cmd.c:624:16
	bl	list_get_next
	.loc	1 624 14                        @ rt-thread/components/finsh/cmd.c:624:14
	str	r0, [sp, #36]
	movs	r0, #0
.Ltmp191:
	.loc	1 627 20 is_stmt 1              @ rt-thread/components/finsh/cmd.c:627:20
	str	r0, [sp, #24]
	.loc	1 627 18 is_stmt 0              @ rt-thread/components/finsh/cmd.c:627:18
	b	.LBB15_2
.LBB15_2:                               @   Parent Loop BB15_1 Depth=1
                                        @ =>  This Inner Loop Header: Depth=2
.Ltmp192:
	.loc	1 627 25                        @ rt-thread/components/finsh/cmd.c:627:25
	ldr	r0, [sp, #24]
	.loc	1 627 38                        @ rt-thread/components/finsh/cmd.c:627:38
	ldr	r1, [sp, #88]
.Ltmp193:
	.loc	1 627 13                        @ rt-thread/components/finsh/cmd.c:627:13
	cmp	r0, r1
	bge	.LBB15_7
	b	.LBB15_3
.LBB15_3:                               @   in Loop: Header=BB15_2 Depth=2
.Ltmp194:
	.loc	1 632 23 is_stmt 1              @ rt-thread/components/finsh/cmd.c:632:23
	ldr	r1, [sp, #24]
	add	r0, sp, #40
	ldr.w	r0, [r0, r1, lsl #2]
	subs	r0, #12
	.loc	1 632 21 is_stmt 0              @ rt-thread/components/finsh/cmd.c:632:21
	str	r0, [sp, #20]
	.loc	1 633 25 is_stmt 1              @ rt-thread/components/finsh/cmd.c:633:25
	bl	rt_hw_interrupt_disable
	.loc	1 633 23 is_stmt 0              @ rt-thread/components/finsh/cmd.c:633:23
	str	r0, [sp, #92]
.Ltmp195:
	.loc	1 634 22 is_stmt 1              @ rt-thread/components/finsh/cmd.c:634:22
	ldr	r0, [sp, #20]
	ldrb	r0, [r0, #8]
	.loc	1 634 32 is_stmt 0              @ rt-thread/components/finsh/cmd.c:634:32
	and	r0, r0, #127
	.loc	1 634 71                        @ rt-thread/components/finsh/cmd.c:634:71
	ldrb.w	r1, [sp, #80]
.Ltmp196:
	.loc	1 634 21                        @ rt-thread/components/finsh/cmd.c:634:21
	cmp	r0, r1
	beq	.LBB15_5
	b	.LBB15_4
.LBB15_4:                               @   in Loop: Header=BB15_2 Depth=2
.Ltmp197:
	.loc	1 636 44 is_stmt 1              @ rt-thread/components/finsh/cmd.c:636:44
	ldr	r0, [sp, #92]
	.loc	1 636 21 is_stmt 0              @ rt-thread/components/finsh/cmd.c:636:21
	bl	rt_hw_interrupt_enable
	.loc	1 637 21 is_stmt 1              @ rt-thread/components/finsh/cmd.c:637:21
	b	.LBB15_6
.Ltmp198:
.LBB15_5:                               @   in Loop: Header=BB15_2 Depth=2
	.loc	1 640 40                        @ rt-thread/components/finsh/cmd.c:640:40
	ldr	r0, [sp, #92]
	.loc	1 640 17 is_stmt 0              @ rt-thread/components/finsh/cmd.c:640:17
	bl	rt_hw_interrupt_enable
	.loc	1 642 43 is_stmt 1              @ rt-thread/components/finsh/cmd.c:642:43
	ldr	r0, [sp, #20]
	.loc	1 642 20 is_stmt 0              @ rt-thread/components/finsh/cmd.c:642:20
	str	r0, [sp, #16]
	.loc	1 645 25 is_stmt 1              @ rt-thread/components/finsh/cmd.c:645:25
	ldr	r1, [sp, #32]
	.loc	1 646 25                        @ rt-thread/components/finsh/cmd.c:646:25
	ldr	r3, [sp, #16]
	.loc	1 647 29                        @ rt-thread/components/finsh/cmd.c:647:29
	ldr	r0, [r3, #24]
	.loc	1 649 29                        @ rt-thread/components/finsh/cmd.c:649:29
	ldr.w	lr, [r3, #28]
	.loc	1 648 29                        @ rt-thread/components/finsh/cmd.c:648:29
	ldr.w	r12, [r3, #32]
	.loc	1 644 17                        @ rt-thread/components/finsh/cmd.c:644:17
	mov	r2, sp
	str.w	lr, [r2, #8]
	str.w	r12, [r2, #4]
	str	r0, [r2]
	movw	r0, :lower16:.L.str.39
	movt	r0, :upper16:.L.str.39
	movs	r2, #8
	bl	rt_kprintf
	.loc	1 651 13                        @ rt-thread/components/finsh/cmd.c:651:13
	b	.LBB15_6
.Ltmp199:
.LBB15_6:                               @   in Loop: Header=BB15_2 Depth=2
	.loc	1 627 47                        @ rt-thread/components/finsh/cmd.c:627:47
	ldr	r0, [sp, #24]
	adds	r0, #1
	str	r0, [sp, #24]
	.loc	1 627 13 is_stmt 0              @ rt-thread/components/finsh/cmd.c:627:13
	b	.LBB15_2
.Ltmp200:
.LBB15_7:                               @   in Loop: Header=BB15_1 Depth=1
	.loc	1 653 5 is_stmt 1               @ rt-thread/components/finsh/cmd.c:653:5
	b	.LBB15_8
.Ltmp201:
.LBB15_8:                               @   in Loop: Header=BB15_1 Depth=1
	.loc	1 654 12                        @ rt-thread/components/finsh/cmd.c:654:12
	ldr	r0, [sp, #36]
.Ltmp202:
	.loc	1 653 5                         @ rt-thread/components/finsh/cmd.c:653:5
	cmp	r0, #0
	bne	.LBB15_1
	b	.LBB15_9
.Ltmp203:
.LBB15_9:
	.loc	1 0 5 is_stmt 0                 @ rt-thread/components/finsh/cmd.c:0:5
	movs	r0, #0
	.loc	1 656 5 is_stmt 1               @ rt-thread/components/finsh/cmd.c:656:5
	add	sp, #96
	pop	{r7, pc}
.Ltmp204:
.Lfunc_end15:
	.size	list_memheap, .Lfunc_end15-list_memheap
	.cfi_endproc
	.cantunwind
	.fnend
                                        @ -- End function
	.section	.text.list_mempool,"ax",%progbits
	.hidden	list_mempool                    @ -- Begin function list_mempool
	.globl	list_mempool
	.p2align	3
	.type	list_mempool,%function
	.code	16                              @ @list_mempool
	.thumb_func
list_mempool:
.Lfunc_begin16:
	.loc	1 664 0                         @ rt-thread/components/finsh/cmd.c:664:0
	.fnstart
	.cfi_startproc
@ %bb.0:
	.save	{r4, lr}
	push	{r4, lr}
	.cfi_def_cfa_offset 8
	.cfi_offset lr, -4
	.cfi_offset r4, -8
	.pad	#112
	sub	sp, #112
	.cfi_def_cfa_offset 120
	movs	r0, #0
.Ltmp205:
	.loc	1 668 16 prologue_end           @ rt-thread/components/finsh/cmd.c:668:16
	str	r0, [sp, #52]
	.loc	1 671 17                        @ rt-thread/components/finsh/cmd.c:671:17
	movw	r0, :lower16:.L.str.40
	movt	r0, :upper16:.L.str.40
	str	r0, [sp, #44]
	add	r0, sp, #88
	add	r2, sp, #56
	movs	r3, #8
	.loc	1 673 5                         @ rt-thread/components/finsh/cmd.c:673:5
	str	r3, [sp, #20]                   @ 4-byte Spill
	mov	r1, r3
	bl	list_find_init
	ldr	r0, [sp, #20]                   @ 4-byte Reload
	.loc	1 675 12                        @ rt-thread/components/finsh/cmd.c:675:12
	str	r0, [sp, #48]
	.loc	1 677 59                        @ rt-thread/components/finsh/cmd.c:677:59
	ldr	r1, [sp, #48]
	.loc	1 677 67 is_stmt 0              @ rt-thread/components/finsh/cmd.c:677:67
	ldr	r2, [sp, #44]
	.loc	1 677 5                         @ rt-thread/components/finsh/cmd.c:677:5
	movw	r0, :lower16:.L.str.41
	movt	r0, :upper16:.L.str.41
	bl	rt_kprintf
	.loc	1 677 93                        @ rt-thread/components/finsh/cmd.c:677:93
	ldr	r0, [sp, #48]
	.loc	1 677 80                        @ rt-thread/components/finsh/cmd.c:677:80
	bl	object_split
	.loc	1 678 5 is_stmt 1               @ rt-thread/components/finsh/cmd.c:678:5
	movw	r0, :lower16:.L.str.42
	movt	r0, :upper16:.L.str.42
	bl	rt_kprintf
	.loc	1 679 5                         @ rt-thread/components/finsh/cmd.c:679:5
	b	.LBB16_1
.LBB16_1:                               @ =>This Loop Header: Depth=1
                                        @     Child Loop BB16_2 Depth 2
                                        @       Child Loop BB16_6 Depth 3
.Ltmp206:
	.loc	1 681 30                        @ rt-thread/components/finsh/cmd.c:681:30
	ldr	r0, [sp, #52]
	add	r1, sp, #88
	.loc	1 681 16 is_stmt 0              @ rt-thread/components/finsh/cmd.c:681:16
	bl	list_get_next
	.loc	1 681 14                        @ rt-thread/components/finsh/cmd.c:681:14
	str	r0, [sp, #52]
	movs	r0, #0
.Ltmp207:
	.loc	1 684 20 is_stmt 1              @ rt-thread/components/finsh/cmd.c:684:20
	str	r0, [sp, #40]
	.loc	1 684 18 is_stmt 0              @ rt-thread/components/finsh/cmd.c:684:18
	b	.LBB16_2
.LBB16_2:                               @   Parent Loop BB16_1 Depth=1
                                        @ =>  This Loop Header: Depth=2
                                        @       Child Loop BB16_6 Depth 3
.Ltmp208:
	.loc	1 684 25                        @ rt-thread/components/finsh/cmd.c:684:25
	ldr	r0, [sp, #40]
	.loc	1 684 38                        @ rt-thread/components/finsh/cmd.c:684:38
	ldr	r1, [sp, #104]
.Ltmp209:
	.loc	1 684 13                        @ rt-thread/components/finsh/cmd.c:684:13
	cmp	r0, r1
	bge	.LBB16_14
	b	.LBB16_3
.LBB16_3:                               @   in Loop: Header=BB16_2 Depth=2
.Ltmp210:
	.loc	1 691 23 is_stmt 1              @ rt-thread/components/finsh/cmd.c:691:23
	ldr	r1, [sp, #40]
	add	r0, sp, #56
	ldr.w	r0, [r0, r1, lsl #2]
	subs	r0, #12
	.loc	1 691 21 is_stmt 0              @ rt-thread/components/finsh/cmd.c:691:21
	str	r0, [sp, #36]
	.loc	1 692 25 is_stmt 1              @ rt-thread/components/finsh/cmd.c:692:25
	bl	rt_hw_interrupt_disable
	.loc	1 692 23 is_stmt 0              @ rt-thread/components/finsh/cmd.c:692:23
	str	r0, [sp, #108]
.Ltmp211:
	.loc	1 693 22 is_stmt 1              @ rt-thread/components/finsh/cmd.c:693:22
	ldr	r0, [sp, #36]
	ldrb	r0, [r0, #8]
	.loc	1 693 32 is_stmt 0              @ rt-thread/components/finsh/cmd.c:693:32
	and	r0, r0, #127
	.loc	1 693 71                        @ rt-thread/components/finsh/cmd.c:693:71
	ldrb.w	r1, [sp, #96]
.Ltmp212:
	.loc	1 693 21                        @ rt-thread/components/finsh/cmd.c:693:21
	cmp	r0, r1
	beq	.LBB16_5
	b	.LBB16_4
.LBB16_4:                               @   in Loop: Header=BB16_2 Depth=2
.Ltmp213:
	.loc	1 695 44 is_stmt 1              @ rt-thread/components/finsh/cmd.c:695:44
	ldr	r0, [sp, #108]
	.loc	1 695 21 is_stmt 0              @ rt-thread/components/finsh/cmd.c:695:21
	bl	rt_hw_interrupt_enable
	.loc	1 696 21 is_stmt 1              @ rt-thread/components/finsh/cmd.c:696:21
	b	.LBB16_13
.Ltmp214:
.LBB16_5:                               @   in Loop: Header=BB16_2 Depth=2
	.loc	1 699 40                        @ rt-thread/components/finsh/cmd.c:699:40
	ldr	r0, [sp, #108]
	.loc	1 699 17 is_stmt 0              @ rt-thread/components/finsh/cmd.c:699:17
	bl	rt_hw_interrupt_enable
	.loc	1 701 43 is_stmt 1              @ rt-thread/components/finsh/cmd.c:701:43
	ldr	r0, [sp, #36]
	.loc	1 701 20 is_stmt 0              @ rt-thread/components/finsh/cmd.c:701:20
	str	r0, [sp, #32]
	movs	r0, #0
	.loc	1 703 38 is_stmt 1              @ rt-thread/components/finsh/cmd.c:703:38
	str	r0, [sp, #28]
.Ltmp215:
	.loc	1 704 17                        @ rt-thread/components/finsh/cmd.c:704:17
	ldr	r0, [sp, #32]
	ldr	r0, [r0, #44]
	str	r0, [sp, #24]
	b	.LBB16_6
.LBB16_6:                               @   Parent Loop BB16_1 Depth=1
                                        @     Parent Loop BB16_2 Depth=2
                                        @ =>    This Inner Loop Header: Depth=3
.Ltmp216:
	.loc	1 704 17 is_stmt 0              @ rt-thread/components/finsh/cmd.c:704:17
	ldr	r0, [sp, #24]
	ldr	r1, [sp, #32]
	adds	r1, #44
.Ltmp217:
	.loc	1 704 17                        @ rt-thread/components/finsh/cmd.c:704:17
	cmp	r0, r1
	beq	.LBB16_9
	b	.LBB16_7
.LBB16_7:                               @   in Loop: Header=BB16_6 Depth=3
.Ltmp218:
	.loc	1 706 41 is_stmt 1              @ rt-thread/components/finsh/cmd.c:706:41
	ldr	r0, [sp, #28]
	adds	r0, #1
	str	r0, [sp, #28]
	.loc	1 707 17                        @ rt-thread/components/finsh/cmd.c:707:17
	b	.LBB16_8
.Ltmp219:
.LBB16_8:                               @   in Loop: Header=BB16_6 Depth=3
	.loc	1 704 17                        @ rt-thread/components/finsh/cmd.c:704:17
	ldr	r0, [sp, #24]
	ldr	r0, [r0]
	str	r0, [sp, #24]
	b	.LBB16_6
.Ltmp220:
.LBB16_9:                               @   in Loop: Header=BB16_2 Depth=2
	.loc	1 709 21                        @ rt-thread/components/finsh/cmd.c:709:21
	ldr	r0, [sp, #28]
.Ltmp221:
	.loc	1 709 21 is_stmt 0              @ rt-thread/components/finsh/cmd.c:709:21
	cmp	r0, #1
	blt	.LBB16_11
	b	.LBB16_10
.LBB16_10:                              @   in Loop: Header=BB16_2 Depth=2
.Ltmp222:
	.loc	1 712 29 is_stmt 1              @ rt-thread/components/finsh/cmd.c:712:29
	ldr	r1, [sp, #48]
	.loc	1 713 29                        @ rt-thread/components/finsh/cmd.c:713:29
	ldr	r3, [sp, #32]
	.loc	1 714 33                        @ rt-thread/components/finsh/cmd.c:714:33
	ldr	r0, [r3, #28]
	.loc	1 715 33                        @ rt-thread/components/finsh/cmd.c:715:33
	ldr.w	r12, [r3, #36]
	.loc	1 716 33                        @ rt-thread/components/finsh/cmd.c:716:33
	ldr.w	lr, [r3, #40]
	.loc	1 717 29                        @ rt-thread/components/finsh/cmd.c:717:29
	ldr	r4, [sp, #28]
	.loc	1 711 21                        @ rt-thread/components/finsh/cmd.c:711:21
	mov	r2, sp
	str	r4, [r2, #12]
	str.w	lr, [r2, #8]
	str.w	r12, [r2, #4]
	str	r0, [r2]
	movw	r0, :lower16:.L.str.43
	movt	r0, :upper16:.L.str.43
	movs	r2, #8
	bl	rt_kprintf
	.loc	1 718 39                        @ rt-thread/components/finsh/cmd.c:718:39
	ldr	r0, [sp, #32]
	.loc	1 718 43 is_stmt 0              @ rt-thread/components/finsh/cmd.c:718:43
	adds	r0, #44
	.loc	1 718 21                        @ rt-thread/components/finsh/cmd.c:718:21
	bl	show_wait_queue
	.loc	1 719 21 is_stmt 1              @ rt-thread/components/finsh/cmd.c:719:21
	movw	r0, :lower16:.L.str.15
	movt	r0, :upper16:.L.str.15
	bl	rt_kprintf
	.loc	1 720 17                        @ rt-thread/components/finsh/cmd.c:720:17
	b	.LBB16_12
.Ltmp223:
.LBB16_11:                              @   in Loop: Header=BB16_2 Depth=2
	.loc	1 724 29                        @ rt-thread/components/finsh/cmd.c:724:29
	ldr	r1, [sp, #48]
	.loc	1 725 29                        @ rt-thread/components/finsh/cmd.c:725:29
	ldr	r3, [sp, #32]
	.loc	1 726 33                        @ rt-thread/components/finsh/cmd.c:726:33
	ldr	r0, [r3, #28]
	.loc	1 727 33                        @ rt-thread/components/finsh/cmd.c:727:33
	ldr.w	r12, [r3, #36]
	.loc	1 728 33                        @ rt-thread/components/finsh/cmd.c:728:33
	ldr.w	lr, [r3, #40]
	.loc	1 729 29                        @ rt-thread/components/finsh/cmd.c:729:29
	ldr	r4, [sp, #28]
	.loc	1 723 21                        @ rt-thread/components/finsh/cmd.c:723:21
	mov	r2, sp
	str	r4, [r2, #12]
	str.w	lr, [r2, #8]
	str.w	r12, [r2, #4]
	str	r0, [r2]
	movw	r0, :lower16:.L.str.44
	movt	r0, :upper16:.L.str.44
	movs	r2, #8
	bl	rt_kprintf
	b	.LBB16_12
.Ltmp224:
.LBB16_12:                              @   in Loop: Header=BB16_2 Depth=2
	.loc	1 731 13                        @ rt-thread/components/finsh/cmd.c:731:13
	b	.LBB16_13
.Ltmp225:
.LBB16_13:                              @   in Loop: Header=BB16_2 Depth=2
	.loc	1 684 47                        @ rt-thread/components/finsh/cmd.c:684:47
	ldr	r0, [sp, #40]
	adds	r0, #1
	str	r0, [sp, #40]
	.loc	1 684 13 is_stmt 0              @ rt-thread/components/finsh/cmd.c:684:13
	b	.LBB16_2
.Ltmp226:
.LBB16_14:                              @   in Loop: Header=BB16_1 Depth=1
	.loc	1 733 5 is_stmt 1               @ rt-thread/components/finsh/cmd.c:733:5
	b	.LBB16_15
.Ltmp227:
.LBB16_15:                              @   in Loop: Header=BB16_1 Depth=1
	.loc	1 734 12                        @ rt-thread/components/finsh/cmd.c:734:12
	ldr	r0, [sp, #52]
.Ltmp228:
	.loc	1 733 5                         @ rt-thread/components/finsh/cmd.c:733:5
	cmp	r0, #0
	bne.w	.LBB16_1
	b	.LBB16_16
.Ltmp229:
.LBB16_16:
	.loc	1 0 5 is_stmt 0                 @ rt-thread/components/finsh/cmd.c:0:5
	movs	r0, #0
	.loc	1 736 5 is_stmt 1               @ rt-thread/components/finsh/cmd.c:736:5
	add	sp, #112
	pop	{r4, pc}
.Ltmp230:
.Lfunc_end16:
	.size	list_mempool, .Lfunc_end16-list_mempool
	.cfi_endproc
	.cantunwind
	.fnend
                                        @ -- End function
	.section	.text.list_timer,"ax",%progbits
	.hidden	list_timer                      @ -- Begin function list_timer
	.globl	list_timer
	.p2align	3
	.type	list_timer,%function
	.code	16                              @ @list_timer
	.thumb_func
list_timer:
.Lfunc_begin17:
	.loc	1 743 0                         @ rt-thread/components/finsh/cmd.c:743:0
	.fnstart
	.cfi_startproc
@ %bb.0:
	.save	{r7, lr}
	push	{r7, lr}
	.cfi_def_cfa_offset 8
	.cfi_offset lr, -4
	.cfi_offset r7, -8
	.pad	#96
	sub	sp, #96
	.cfi_def_cfa_offset 104
	movs	r0, #0
.Ltmp231:
	.loc	1 747 16 prologue_end           @ rt-thread/components/finsh/cmd.c:747:16
	str	r0, [sp, #36]
	.loc	1 750 17                        @ rt-thread/components/finsh/cmd.c:750:17
	movw	r0, :lower16:.L.str.45
	movt	r0, :upper16:.L.str.45
	str	r0, [sp, #28]
	add	r0, sp, #72
	movs	r1, #10
	add	r2, sp, #40
	movs	r3, #8
	.loc	1 752 5                         @ rt-thread/components/finsh/cmd.c:752:5
	str	r3, [sp, #12]                   @ 4-byte Spill
	bl	list_find_init
	ldr	r0, [sp, #12]                   @ 4-byte Reload
	.loc	1 754 12                        @ rt-thread/components/finsh/cmd.c:754:12
	str	r0, [sp, #32]
	.loc	1 756 58                        @ rt-thread/components/finsh/cmd.c:756:58
	ldr	r1, [sp, #32]
	.loc	1 756 66 is_stmt 0              @ rt-thread/components/finsh/cmd.c:756:66
	ldr	r2, [sp, #28]
	.loc	1 756 5                         @ rt-thread/components/finsh/cmd.c:756:5
	movw	r0, :lower16:.L.str.46
	movt	r0, :upper16:.L.str.46
	bl	rt_kprintf
	.loc	1 756 92                        @ rt-thread/components/finsh/cmd.c:756:92
	ldr	r0, [sp, #32]
	.loc	1 756 79                        @ rt-thread/components/finsh/cmd.c:756:79
	bl	object_split
	.loc	1 757 5 is_stmt 1               @ rt-thread/components/finsh/cmd.c:757:5
	movw	r0, :lower16:.L.str.47
	movt	r0, :upper16:.L.str.47
	bl	rt_kprintf
	.loc	1 758 5                         @ rt-thread/components/finsh/cmd.c:758:5
	b	.LBB17_1
.LBB17_1:                               @ =>This Loop Header: Depth=1
                                        @     Child Loop BB17_2 Depth 2
.Ltmp232:
	.loc	1 759 30                        @ rt-thread/components/finsh/cmd.c:759:30
	ldr	r0, [sp, #36]
	add	r1, sp, #72
	.loc	1 759 16 is_stmt 0              @ rt-thread/components/finsh/cmd.c:759:16
	bl	list_get_next
	.loc	1 759 14                        @ rt-thread/components/finsh/cmd.c:759:14
	str	r0, [sp, #36]
	movs	r0, #0
.Ltmp233:
	.loc	1 762 20 is_stmt 1              @ rt-thread/components/finsh/cmd.c:762:20
	str	r0, [sp, #24]
	.loc	1 762 18 is_stmt 0              @ rt-thread/components/finsh/cmd.c:762:18
	b	.LBB17_2
.LBB17_2:                               @   Parent Loop BB17_1 Depth=1
                                        @ =>  This Inner Loop Header: Depth=2
.Ltmp234:
	.loc	1 762 25                        @ rt-thread/components/finsh/cmd.c:762:25
	ldr	r0, [sp, #24]
	.loc	1 762 38                        @ rt-thread/components/finsh/cmd.c:762:38
	ldr	r1, [sp, #88]
.Ltmp235:
	.loc	1 762 13                        @ rt-thread/components/finsh/cmd.c:762:13
	cmp	r0, r1
	bge	.LBB17_10
	b	.LBB17_3
.LBB17_3:                               @   in Loop: Header=BB17_2 Depth=2
.Ltmp236:
	.loc	1 767 23 is_stmt 1              @ rt-thread/components/finsh/cmd.c:767:23
	ldr	r1, [sp, #24]
	add	r0, sp, #40
	ldr.w	r0, [r0, r1, lsl #2]
	subs	r0, #12
	.loc	1 767 21 is_stmt 0              @ rt-thread/components/finsh/cmd.c:767:21
	str	r0, [sp, #20]
	.loc	1 768 25 is_stmt 1              @ rt-thread/components/finsh/cmd.c:768:25
	bl	rt_hw_interrupt_disable
	.loc	1 768 23 is_stmt 0              @ rt-thread/components/finsh/cmd.c:768:23
	str	r0, [sp, #92]
.Ltmp237:
	.loc	1 769 22 is_stmt 1              @ rt-thread/components/finsh/cmd.c:769:22
	ldr	r0, [sp, #20]
	ldrb	r0, [r0, #8]
	.loc	1 769 32 is_stmt 0              @ rt-thread/components/finsh/cmd.c:769:32
	and	r0, r0, #127
	.loc	1 769 71                        @ rt-thread/components/finsh/cmd.c:769:71
	ldrb.w	r1, [sp, #80]
.Ltmp238:
	.loc	1 769 21                        @ rt-thread/components/finsh/cmd.c:769:21
	cmp	r0, r1
	beq	.LBB17_5
	b	.LBB17_4
.LBB17_4:                               @   in Loop: Header=BB17_2 Depth=2
.Ltmp239:
	.loc	1 771 44 is_stmt 1              @ rt-thread/components/finsh/cmd.c:771:44
	ldr	r0, [sp, #92]
	.loc	1 771 21 is_stmt 0              @ rt-thread/components/finsh/cmd.c:771:21
	bl	rt_hw_interrupt_enable
	.loc	1 772 21 is_stmt 1              @ rt-thread/components/finsh/cmd.c:772:21
	b	.LBB17_9
.Ltmp240:
.LBB17_5:                               @   in Loop: Header=BB17_2 Depth=2
	.loc	1 775 40                        @ rt-thread/components/finsh/cmd.c:775:40
	ldr	r0, [sp, #92]
	.loc	1 775 17 is_stmt 0              @ rt-thread/components/finsh/cmd.c:775:17
	bl	rt_hw_interrupt_enable
	.loc	1 777 44 is_stmt 1              @ rt-thread/components/finsh/cmd.c:777:44
	ldr	r0, [sp, #20]
	.loc	1 777 23 is_stmt 0              @ rt-thread/components/finsh/cmd.c:777:23
	str	r0, [sp, #16]
	.loc	1 779 25 is_stmt 1              @ rt-thread/components/finsh/cmd.c:779:25
	ldr	r1, [sp, #32]
	.loc	1 780 25                        @ rt-thread/components/finsh/cmd.c:780:25
	ldr	r3, [sp, #16]
	.loc	1 781 32                        @ rt-thread/components/finsh/cmd.c:781:32
	ldr	r0, [r3, #36]
	.loc	1 782 32                        @ rt-thread/components/finsh/cmd.c:782:32
	ldr.w	r12, [r3, #40]
	.loc	1 778 17                        @ rt-thread/components/finsh/cmd.c:778:17
	mov	r2, sp
	str.w	r12, [r2, #4]
	str	r0, [r2]
	movw	r0, :lower16:.L.str.48
	movt	r0, :upper16:.L.str.48
	movs	r2, #8
	bl	rt_kprintf
.Ltmp241:
	.loc	1 783 21                        @ rt-thread/components/finsh/cmd.c:783:21
	ldr	r0, [sp, #16]
	ldrb	r0, [r0, #9]
.Ltmp242:
	.loc	1 783 21 is_stmt 0              @ rt-thread/components/finsh/cmd.c:783:21
	lsls	r0, r0, #31
	cbz	r0, .LBB17_7
	b	.LBB17_6
.LBB17_6:                               @   in Loop: Header=BB17_2 Depth=2
.Ltmp243:
	.loc	1 784 21 is_stmt 1              @ rt-thread/components/finsh/cmd.c:784:21
	movw	r0, :lower16:.L.str.49
	movt	r0, :upper16:.L.str.49
	bl	rt_kprintf
	b	.LBB17_8
.LBB17_7:                               @   in Loop: Header=BB17_2 Depth=2
	.loc	1 786 21                        @ rt-thread/components/finsh/cmd.c:786:21
	movw	r0, :lower16:.L.str.50
	movt	r0, :upper16:.L.str.50
	bl	rt_kprintf
	b	.LBB17_8
.Ltmp244:
.LBB17_8:                               @   in Loop: Header=BB17_2 Depth=2
	.loc	1 788 13                        @ rt-thread/components/finsh/cmd.c:788:13
	b	.LBB17_9
.Ltmp245:
.LBB17_9:                               @   in Loop: Header=BB17_2 Depth=2
	.loc	1 762 47                        @ rt-thread/components/finsh/cmd.c:762:47
	ldr	r0, [sp, #24]
	adds	r0, #1
	str	r0, [sp, #24]
	.loc	1 762 13 is_stmt 0              @ rt-thread/components/finsh/cmd.c:762:13
	b	.LBB17_2
.Ltmp246:
.LBB17_10:                              @   in Loop: Header=BB17_1 Depth=1
	.loc	1 790 5 is_stmt 1               @ rt-thread/components/finsh/cmd.c:790:5
	b	.LBB17_11
.Ltmp247:
.LBB17_11:                              @   in Loop: Header=BB17_1 Depth=1
	.loc	1 791 12                        @ rt-thread/components/finsh/cmd.c:791:12
	ldr	r0, [sp, #36]
.Ltmp248:
	.loc	1 790 5                         @ rt-thread/components/finsh/cmd.c:790:5
	cmp	r0, #0
	bne	.LBB17_1
	b	.LBB17_12
.Ltmp249:
.LBB17_12:
	.loc	1 793 41                        @ rt-thread/components/finsh/cmd.c:793:41
	bl	rt_tick_get
	mov	r1, r0
	.loc	1 793 5 is_stmt 0               @ rt-thread/components/finsh/cmd.c:793:5
	movw	r0, :lower16:.L.str.51
	movt	r0, :upper16:.L.str.51
	bl	rt_kprintf
	movs	r0, #0
	.loc	1 795 5 is_stmt 1               @ rt-thread/components/finsh/cmd.c:795:5
	add	sp, #96
	pop	{r7, pc}
.Ltmp250:
.Lfunc_end17:
	.size	list_timer, .Lfunc_end17-list_timer
	.cfi_endproc
	.cantunwind
	.fnend
                                        @ -- End function
	.section	.text.list_device,"ax",%progbits
	.hidden	list_device                     @ -- Begin function list_device
	.globl	list_device
	.p2align	3
	.type	list_device,%function
	.code	16                              @ @list_device
	.thumb_func
list_device:
.Lfunc_begin18:
	.loc	1 828 0                         @ rt-thread/components/finsh/cmd.c:828:0
	.fnstart
	.cfi_startproc
@ %bb.0:
	.save	{r7, lr}
	push	{r7, lr}
	.cfi_def_cfa_offset 8
	.cfi_offset lr, -4
	.cfi_offset r7, -8
	.pad	#104
	sub	sp, #104
	.cfi_def_cfa_offset 112
	movs	r0, #0
.Ltmp251:
	.loc	1 832 16 prologue_end           @ rt-thread/components/finsh/cmd.c:832:16
	str	r0, [sp, #44]
	.loc	1 835 17                        @ rt-thread/components/finsh/cmd.c:835:17
	movw	r0, :lower16:.L.str.52
	movt	r0, :upper16:.L.str.52
	str	r0, [sp, #36]
	add	r0, sp, #80
	movs	r1, #9
	add	r2, sp, #48
	movs	r3, #8
	.loc	1 837 5                         @ rt-thread/components/finsh/cmd.c:837:5
	str	r3, [sp, #20]                   @ 4-byte Spill
	bl	list_find_init
	ldr	r0, [sp, #20]                   @ 4-byte Reload
	.loc	1 839 12                        @ rt-thread/components/finsh/cmd.c:839:12
	str	r0, [sp, #40]
	.loc	1 841 58                        @ rt-thread/components/finsh/cmd.c:841:58
	ldr	r1, [sp, #40]
	.loc	1 841 66 is_stmt 0              @ rt-thread/components/finsh/cmd.c:841:66
	ldr	r2, [sp, #36]
	.loc	1 841 5                         @ rt-thread/components/finsh/cmd.c:841:5
	movw	r0, :lower16:.L.str.53
	movt	r0, :upper16:.L.str.53
	bl	rt_kprintf
	.loc	1 841 92                        @ rt-thread/components/finsh/cmd.c:841:92
	ldr	r0, [sp, #40]
	.loc	1 841 79                        @ rt-thread/components/finsh/cmd.c:841:79
	bl	object_split
	.loc	1 842 5 is_stmt 1               @ rt-thread/components/finsh/cmd.c:842:5
	movw	r0, :lower16:.L.str.54
	movt	r0, :upper16:.L.str.54
	bl	rt_kprintf
	.loc	1 843 5                         @ rt-thread/components/finsh/cmd.c:843:5
	b	.LBB18_1
.LBB18_1:                               @ =>This Loop Header: Depth=1
                                        @     Child Loop BB18_2 Depth 2
.Ltmp252:
	.loc	1 845 30                        @ rt-thread/components/finsh/cmd.c:845:30
	ldr	r0, [sp, #44]
	add	r1, sp, #80
	.loc	1 845 16 is_stmt 0              @ rt-thread/components/finsh/cmd.c:845:16
	bl	list_get_next
	.loc	1 845 14                        @ rt-thread/components/finsh/cmd.c:845:14
	str	r0, [sp, #44]
	movs	r0, #0
.Ltmp253:
	.loc	1 848 20 is_stmt 1              @ rt-thread/components/finsh/cmd.c:848:20
	str	r0, [sp, #32]
	.loc	1 848 18 is_stmt 0              @ rt-thread/components/finsh/cmd.c:848:18
	b	.LBB18_2
.LBB18_2:                               @   Parent Loop BB18_1 Depth=1
                                        @ =>  This Inner Loop Header: Depth=2
.Ltmp254:
	.loc	1 848 25                        @ rt-thread/components/finsh/cmd.c:848:25
	ldr	r0, [sp, #32]
	.loc	1 848 38                        @ rt-thread/components/finsh/cmd.c:848:38
	ldr	r1, [sp, #96]
.Ltmp255:
	.loc	1 848 13                        @ rt-thread/components/finsh/cmd.c:848:13
	cmp	r0, r1
	bge	.LBB18_10
	b	.LBB18_3
.LBB18_3:                               @   in Loop: Header=BB18_2 Depth=2
.Ltmp256:
	.loc	1 853 23 is_stmt 1              @ rt-thread/components/finsh/cmd.c:853:23
	ldr	r1, [sp, #32]
	add	r0, sp, #48
	ldr.w	r0, [r0, r1, lsl #2]
	subs	r0, #12
	.loc	1 853 21 is_stmt 0              @ rt-thread/components/finsh/cmd.c:853:21
	str	r0, [sp, #28]
	.loc	1 854 25 is_stmt 1              @ rt-thread/components/finsh/cmd.c:854:25
	bl	rt_hw_interrupt_disable
	.loc	1 854 23 is_stmt 0              @ rt-thread/components/finsh/cmd.c:854:23
	str	r0, [sp, #100]
.Ltmp257:
	.loc	1 855 22 is_stmt 1              @ rt-thread/components/finsh/cmd.c:855:22
	ldr	r0, [sp, #28]
	ldrb	r0, [r0, #8]
	.loc	1 855 32 is_stmt 0              @ rt-thread/components/finsh/cmd.c:855:32
	and	r0, r0, #127
	.loc	1 855 71                        @ rt-thread/components/finsh/cmd.c:855:71
	ldrb.w	r1, [sp, #88]
.Ltmp258:
	.loc	1 855 21                        @ rt-thread/components/finsh/cmd.c:855:21
	cmp	r0, r1
	beq	.LBB18_5
	b	.LBB18_4
.LBB18_4:                               @   in Loop: Header=BB18_2 Depth=2
.Ltmp259:
	.loc	1 857 44 is_stmt 1              @ rt-thread/components/finsh/cmd.c:857:44
	ldr	r0, [sp, #100]
	.loc	1 857 21 is_stmt 0              @ rt-thread/components/finsh/cmd.c:857:21
	bl	rt_hw_interrupt_enable
	.loc	1 858 21 is_stmt 1              @ rt-thread/components/finsh/cmd.c:858:21
	b	.LBB18_9
.Ltmp260:
.LBB18_5:                               @   in Loop: Header=BB18_2 Depth=2
	.loc	1 861 40                        @ rt-thread/components/finsh/cmd.c:861:40
	ldr	r0, [sp, #100]
	.loc	1 861 17 is_stmt 0              @ rt-thread/components/finsh/cmd.c:861:17
	bl	rt_hw_interrupt_enable
	.loc	1 863 46 is_stmt 1              @ rt-thread/components/finsh/cmd.c:863:46
	ldr	r0, [sp, #28]
	.loc	1 863 24 is_stmt 0              @ rt-thread/components/finsh/cmd.c:863:24
	str	r0, [sp, #24]
	.loc	1 865 25 is_stmt 1              @ rt-thread/components/finsh/cmd.c:865:25
	ldr	r0, [sp, #40]
	.loc	1 866 25                        @ rt-thread/components/finsh/cmd.c:866:25
	str	r0, [sp, #12]                   @ 4-byte Spill
	ldr	r0, [sp, #24]
	.loc	1 867 34                        @ rt-thread/components/finsh/cmd.c:867:34
	str	r0, [sp, #16]                   @ 4-byte Spill
	ldrb	r0, [r0, #20]
	.loc	1 867 25 is_stmt 0              @ rt-thread/components/finsh/cmd.c:867:25
	cmp	r0, #21
	bgt	.LBB18_7
	b	.LBB18_6
.LBB18_6:                               @   in Loop: Header=BB18_2 Depth=2
	.loc	1 868 41 is_stmt 1              @ rt-thread/components/finsh/cmd.c:868:41
	ldr	r0, [sp, #24]
	.loc	1 868 49 is_stmt 0              @ rt-thread/components/finsh/cmd.c:868:49
	ldrb	r1, [r0, #20]
	.loc	1 868 25                        @ rt-thread/components/finsh/cmd.c:868:25
	movw	r0, :lower16:device_type_str
	movt	r0, :upper16:device_type_str
	ldr.w	r0, [r0, r1, lsl #2]
	.loc	1 867 25 is_stmt 1              @ rt-thread/components/finsh/cmd.c:867:25
	str	r0, [sp, #8]                    @ 4-byte Spill
	b	.LBB18_8
.LBB18_7:                               @   in Loop: Header=BB18_2 Depth=2
	.loc	1 869 25                        @ rt-thread/components/finsh/cmd.c:869:25
	movw	r0, :lower16:device_type_str
	movt	r0, :upper16:device_type_str
	ldr	r0, [r0, #84]
	.loc	1 867 25                        @ rt-thread/components/finsh/cmd.c:867:25
	str	r0, [sp, #8]                    @ 4-byte Spill
	b	.LBB18_8
.LBB18_8:                               @   in Loop: Header=BB18_2 Depth=2
	ldr	r3, [sp, #16]                   @ 4-byte Reload
	ldr	r1, [sp, #12]                   @ 4-byte Reload
	ldr	r0, [sp, #8]                    @ 4-byte Reload
	.loc	1 870 25                        @ rt-thread/components/finsh/cmd.c:870:25
	ldr	r2, [sp, #24]
	.loc	1 870 33 is_stmt 0              @ rt-thread/components/finsh/cmd.c:870:33
	ldrb.w	r12, [r2, #26]
	.loc	1 864 17 is_stmt 1              @ rt-thread/components/finsh/cmd.c:864:17
	mov	r2, sp
	str.w	r12, [r2, #4]
	str	r0, [r2]
	movw	r0, :lower16:.L.str.55
	movt	r0, :upper16:.L.str.55
	movs	r2, #8
	bl	rt_kprintf
	.loc	1 872 13                        @ rt-thread/components/finsh/cmd.c:872:13
	b	.LBB18_9
.Ltmp261:
.LBB18_9:                               @   in Loop: Header=BB18_2 Depth=2
	.loc	1 848 47                        @ rt-thread/components/finsh/cmd.c:848:47
	ldr	r0, [sp, #32]
	adds	r0, #1
	str	r0, [sp, #32]
	.loc	1 848 13 is_stmt 0              @ rt-thread/components/finsh/cmd.c:848:13
	b	.LBB18_2
.Ltmp262:
.LBB18_10:                              @   in Loop: Header=BB18_1 Depth=1
	.loc	1 874 5 is_stmt 1               @ rt-thread/components/finsh/cmd.c:874:5
	b	.LBB18_11
.Ltmp263:
.LBB18_11:                              @   in Loop: Header=BB18_1 Depth=1
	.loc	1 875 12                        @ rt-thread/components/finsh/cmd.c:875:12
	ldr	r0, [sp, #44]
.Ltmp264:
	.loc	1 874 5                         @ rt-thread/components/finsh/cmd.c:874:5
	cmp	r0, #0
	bne	.LBB18_1
	b	.LBB18_12
.Ltmp265:
.LBB18_12:
	.loc	1 0 5 is_stmt 0                 @ rt-thread/components/finsh/cmd.c:0:5
	movs	r0, #0
	.loc	1 877 5 is_stmt 1               @ rt-thread/components/finsh/cmd.c:877:5
	add	sp, #104
	pop	{r7, pc}
.Ltmp266:
.Lfunc_end18:
	.size	list_device, .Lfunc_end18-list_device
	.cfi_endproc
	.cantunwind
	.fnend
                                        @ -- End function
	.section	.text.list,"ax",%progbits
	.hidden	list                            @ -- Begin function list
	.globl	list
	.p2align	3
	.type	list,%function
	.code	16                              @ @list
	.thumb_func
list:
.Lfunc_begin19:
	.loc	1 884 0                         @ rt-thread/components/finsh/cmd.c:884:0
	.fnstart
	.cfi_startproc
@ %bb.0:
	.save	{r7, lr}
	push	{r7, lr}
	.cfi_def_cfa_offset 8
	.cfi_offset lr, -4
	.cfi_offset r7, -8
	.pad	#16
	sub	sp, #16
	.cfi_def_cfa_offset 24
.Ltmp267:
	.loc	1 890 5 prologue_end            @ rt-thread/components/finsh/cmd.c:890:5
	movw	r0, :lower16:.L.str.56
	movt	r0, :upper16:.L.str.56
	bl	rt_kprintf
.Ltmp268:
	.loc	1 893 22                        @ rt-thread/components/finsh/cmd.c:893:22
	movw	r0, :lower16:_syscall_table_begin
	movt	r0, :upper16:_syscall_table_begin
	ldr	r0, [r0]
	.loc	1 893 20 is_stmt 0              @ rt-thread/components/finsh/cmd.c:893:20
	str	r0, [sp, #4]
	.loc	1 893 14                        @ rt-thread/components/finsh/cmd.c:893:14
	b	.LBB19_1
.LBB19_1:                               @ =>This Inner Loop Header: Depth=1
.Ltmp269:
	.loc	1 894 17 is_stmt 1              @ rt-thread/components/finsh/cmd.c:894:17
	ldr	r0, [sp, #4]
	.loc	1 894 25 is_stmt 0              @ rt-thread/components/finsh/cmd.c:894:25
	movw	r1, :lower16:_syscall_table_end
	movt	r1, :upper16:_syscall_table_end
	ldr	r1, [r1]
.Ltmp270:
	.loc	1 893 9 is_stmt 1               @ rt-thread/components/finsh/cmd.c:893:9
	cmp	r0, r1
	bhs	.LBB19_6
	b	.LBB19_2
.LBB19_2:                               @   in Loop: Header=BB19_1 Depth=1
.Ltmp271:
	.loc	1 898 33                        @ rt-thread/components/finsh/cmd.c:898:33
	ldr	r0, [sp, #4]
	.loc	1 898 40 is_stmt 0              @ rt-thread/components/finsh/cmd.c:898:40
	ldr	r0, [r0]
	.loc	1 898 17                        @ rt-thread/components/finsh/cmd.c:898:17
	movw	r1, :lower16:.L.str.57
	movt	r1, :upper16:.L.str.57
	movs	r2, #2
	bl	strncmp
.Ltmp272:
	.loc	1 898 17                        @ rt-thread/components/finsh/cmd.c:898:17
	cbnz	r0, .LBB19_4
	b	.LBB19_3
.LBB19_3:                               @   in Loop: Header=BB19_1 Depth=1
.Ltmp273:
	.loc	1 898 61                        @ rt-thread/components/finsh/cmd.c:898:61
	b	.LBB19_5
.Ltmp274:
.LBB19_4:                               @   in Loop: Header=BB19_1 Depth=1
	.loc	1 901 41 is_stmt 1              @ rt-thread/components/finsh/cmd.c:901:41
	ldr	r0, [sp, #4]
	.loc	1 901 48 is_stmt 0              @ rt-thread/components/finsh/cmd.c:901:48
	ldr	r1, [r0]
	.loc	1 901 61                        @ rt-thread/components/finsh/cmd.c:901:61
	ldr	r2, [r0, #4]
	.loc	1 901 13                        @ rt-thread/components/finsh/cmd.c:901:13
	movw	r0, :lower16:.L.str.58
	movt	r0, :upper16:.L.str.58
	bl	rt_kprintf
	.loc	1 905 9 is_stmt 1               @ rt-thread/components/finsh/cmd.c:905:9
	b	.LBB19_5
.Ltmp275:
.LBB19_5:                               @   in Loop: Header=BB19_1 Depth=1
	.loc	1 895 17                        @ rt-thread/components/finsh/cmd.c:895:17
	ldr	r0, [sp, #4]
	adds	r0, #12
	str	r0, [sp, #4]
	.loc	1 893 9                         @ rt-thread/components/finsh/cmd.c:893:9
	b	.LBB19_1
.Ltmp276:
.LBB19_6:
	.loc	1 910 20                        @ rt-thread/components/finsh/cmd.c:910:20
	movw	r0, :lower16:global_syscall_list
	movt	r0, :upper16:global_syscall_list
	ldr	r0, [r0]
	.loc	1 910 18 is_stmt 0              @ rt-thread/components/finsh/cmd.c:910:18
	str	r0, [sp, #12]
	.loc	1 911 5 is_stmt 1               @ rt-thread/components/finsh/cmd.c:911:5
	b	.LBB19_7
.LBB19_7:                               @ =>This Inner Loop Header: Depth=1
	.loc	1 911 12 is_stmt 0              @ rt-thread/components/finsh/cmd.c:911:12
	ldr	r0, [sp, #12]
	.loc	1 911 5                         @ rt-thread/components/finsh/cmd.c:911:5
	cbz	r0, .LBB19_9
	b	.LBB19_8
.LBB19_8:                               @   in Loop: Header=BB19_7 Depth=1
.Ltmp277:
	.loc	1 913 32 is_stmt 1              @ rt-thread/components/finsh/cmd.c:913:32
	ldr	r0, [sp, #12]
	.loc	1 913 54 is_stmt 0              @ rt-thread/components/finsh/cmd.c:913:54
	ldr	r1, [r0, #4]
	.loc	1 913 9                         @ rt-thread/components/finsh/cmd.c:913:9
	movw	r0, :lower16:.L.str.59
	movt	r0, :upper16:.L.str.59
	bl	rt_kprintf
	.loc	1 914 24 is_stmt 1              @ rt-thread/components/finsh/cmd.c:914:24
	ldr	r0, [sp, #12]
	.loc	1 914 38 is_stmt 0              @ rt-thread/components/finsh/cmd.c:914:38
	ldr	r0, [r0]
	.loc	1 914 22                        @ rt-thread/components/finsh/cmd.c:914:22
	str	r0, [sp, #12]
.Ltmp278:
	.loc	1 911 5 is_stmt 1               @ rt-thread/components/finsh/cmd.c:911:5
	b	.LBB19_7
.LBB19_9:
	.loc	1 917 5                         @ rt-thread/components/finsh/cmd.c:917:5
	movw	r0, :lower16:.L.str.60
	movt	r0, :upper16:.L.str.60
	bl	rt_kprintf
.Ltmp279:
	.loc	1 920 22                        @ rt-thread/components/finsh/cmd.c:920:22
	movw	r0, :lower16:_sysvar_table_begin
	movt	r0, :upper16:_sysvar_table_begin
	ldr	r0, [r0]
	.loc	1 920 20 is_stmt 0              @ rt-thread/components/finsh/cmd.c:920:20
	str	r0, [sp]
	.loc	1 920 14                        @ rt-thread/components/finsh/cmd.c:920:14
	b	.LBB19_10
.LBB19_10:                              @ =>This Inner Loop Header: Depth=1
.Ltmp280:
	.loc	1 921 17 is_stmt 1              @ rt-thread/components/finsh/cmd.c:921:17
	ldr	r0, [sp]
	.loc	1 921 25 is_stmt 0              @ rt-thread/components/finsh/cmd.c:921:25
	movw	r1, :lower16:_sysvar_table_end
	movt	r1, :upper16:_sysvar_table_end
	ldr	r1, [r1]
.Ltmp281:
	.loc	1 920 9 is_stmt 1               @ rt-thread/components/finsh/cmd.c:920:9
	cmp	r0, r1
	bhs	.LBB19_13
	b	.LBB19_11
.LBB19_11:                              @   in Loop: Header=BB19_10 Depth=1
.Ltmp282:
	.loc	1 925 41                        @ rt-thread/components/finsh/cmd.c:925:41
	ldr	r0, [sp]
	.loc	1 925 48 is_stmt 0              @ rt-thread/components/finsh/cmd.c:925:48
	ldr	r1, [r0]
	.loc	1 925 61                        @ rt-thread/components/finsh/cmd.c:925:61
	ldr	r2, [r0, #4]
	.loc	1 925 13                        @ rt-thread/components/finsh/cmd.c:925:13
	movw	r0, :lower16:.L.str.58
	movt	r0, :upper16:.L.str.58
	bl	rt_kprintf
	.loc	1 929 9 is_stmt 1               @ rt-thread/components/finsh/cmd.c:929:9
	b	.LBB19_12
.Ltmp283:
.LBB19_12:                              @   in Loop: Header=BB19_10 Depth=1
	.loc	1 922 17                        @ rt-thread/components/finsh/cmd.c:922:17
	ldr	r0, [sp]
	adds	r0, #16
	str	r0, [sp]
	.loc	1 920 9                         @ rt-thread/components/finsh/cmd.c:920:9
	b	.LBB19_10
.Ltmp284:
.LBB19_13:
	.loc	1 932 19                        @ rt-thread/components/finsh/cmd.c:932:19
	movw	r0, :lower16:global_sysvar_list
	movt	r0, :upper16:global_sysvar_list
	ldr	r0, [r0]
	.loc	1 932 17 is_stmt 0              @ rt-thread/components/finsh/cmd.c:932:17
	str	r0, [sp, #8]
	.loc	1 933 5 is_stmt 1               @ rt-thread/components/finsh/cmd.c:933:5
	b	.LBB19_14
.LBB19_14:                              @ =>This Inner Loop Header: Depth=1
	.loc	1 933 12 is_stmt 0              @ rt-thread/components/finsh/cmd.c:933:12
	ldr	r0, [sp, #8]
	.loc	1 933 5                         @ rt-thread/components/finsh/cmd.c:933:5
	cbz	r0, .LBB19_16
	b	.LBB19_15
.LBB19_15:                              @   in Loop: Header=BB19_14 Depth=1
.Ltmp285:
	.loc	1 935 32 is_stmt 1              @ rt-thread/components/finsh/cmd.c:935:32
	ldr	r0, [sp, #8]
	.loc	1 935 52 is_stmt 0              @ rt-thread/components/finsh/cmd.c:935:52
	ldr	r1, [r0, #4]
	.loc	1 935 9                         @ rt-thread/components/finsh/cmd.c:935:9
	movw	r0, :lower16:.L.str.59
	movt	r0, :upper16:.L.str.59
	bl	rt_kprintf
	.loc	1 936 23 is_stmt 1              @ rt-thread/components/finsh/cmd.c:936:23
	ldr	r0, [sp, #8]
	.loc	1 936 36 is_stmt 0              @ rt-thread/components/finsh/cmd.c:936:36
	ldr	r0, [r0]
	.loc	1 936 21                        @ rt-thread/components/finsh/cmd.c:936:21
	str	r0, [sp, #8]
.Ltmp286:
	.loc	1 933 5 is_stmt 1               @ rt-thread/components/finsh/cmd.c:933:5
	b	.LBB19_14
.LBB19_16:
	.loc	1 0 5 is_stmt 0                 @ rt-thread/components/finsh/cmd.c:0:5
	movs	r0, #0
	.loc	1 940 5 is_stmt 1               @ rt-thread/components/finsh/cmd.c:940:5
	add	sp, #16
	pop	{r7, pc}
.Ltmp287:
.Lfunc_end19:
	.size	list, .Lfunc_end19-list
	.cfi_endproc
	.cantunwind
	.fnend
                                        @ -- End function
	.section	.text.list_prefix,"ax",%progbits
	.hidden	list_prefix                     @ -- Begin function list_prefix
	.globl	list_prefix
	.p2align	3
	.type	list_prefix,%function
	.code	16                              @ @list_prefix
	.thumb_func
list_prefix:
.Lfunc_begin20:
	.loc	1 973 0                         @ rt-thread/components/finsh/cmd.c:973:0
	.fnstart
	.cfi_startproc
@ %bb.0:
	.save	{r7, lr}
	push	{r7, lr}
	.cfi_def_cfa_offset 8
	.cfi_offset lr, -4
	.cfi_offset r7, -8
	.pad	#40
	sub	sp, #40
	.cfi_def_cfa_offset 48
	str	r0, [sp, #36]
	movs	r0, #0
.Ltmp288:
	.loc	1 980 14 prologue_end           @ rt-thread/components/finsh/cmd.c:980:14
	strh.w	r0, [sp, #26]
	.loc	1 981 14                        @ rt-thread/components/finsh/cmd.c:981:14
	strh.w	r0, [sp, #24]
	.loc	1 982 16                        @ rt-thread/components/finsh/cmd.c:982:16
	str	r0, [sp, #16]
	.loc	1 983 14                        @ rt-thread/components/finsh/cmd.c:983:14
	str	r0, [sp, #12]
.Ltmp289:
	.loc	1 988 22                        @ rt-thread/components/finsh/cmd.c:988:22
	movw	r0, :lower16:_syscall_table_begin
	movt	r0, :upper16:_syscall_table_begin
	ldr	r0, [r0]
	.loc	1 988 20 is_stmt 0              @ rt-thread/components/finsh/cmd.c:988:20
	str	r0, [sp, #8]
	.loc	1 988 14                        @ rt-thread/components/finsh/cmd.c:988:14
	b	.LBB20_1
.LBB20_1:                               @ =>This Inner Loop Header: Depth=1
.Ltmp290:
	.loc	1 989 17 is_stmt 1              @ rt-thread/components/finsh/cmd.c:989:17
	ldr	r0, [sp, #8]
	.loc	1 989 25 is_stmt 0              @ rt-thread/components/finsh/cmd.c:989:25
	movw	r1, :lower16:_syscall_table_end
	movt	r1, :upper16:_syscall_table_end
	ldr	r1, [r1]
.Ltmp291:
	.loc	1 988 9 is_stmt 1               @ rt-thread/components/finsh/cmd.c:988:9
	cmp	r0, r1
	bhs	.LBB20_16
	b	.LBB20_2
.LBB20_2:                               @   in Loop: Header=BB20_1 Depth=1
.Ltmp292:
	.loc	1 993 37                        @ rt-thread/components/finsh/cmd.c:993:37
	ldr	r0, [sp, #8]
	.loc	1 993 44 is_stmt 0              @ rt-thread/components/finsh/cmd.c:993:44
	ldr	r1, [r0]
	.loc	1 993 17                        @ rt-thread/components/finsh/cmd.c:993:17
	movw	r0, :lower16:.L.str.57
	movt	r0, :upper16:.L.str.57
	bl	str_is_prefix
.Ltmp293:
	.loc	1 993 17                        @ rt-thread/components/finsh/cmd.c:993:17
	cbnz	r0, .LBB20_4
	b	.LBB20_3
.LBB20_3:                               @   in Loop: Header=BB20_1 Depth=1
.Ltmp294:
	.loc	1 993 56                        @ rt-thread/components/finsh/cmd.c:993:56
	b	.LBB20_15
.Ltmp295:
.LBB20_4:                               @   in Loop: Header=BB20_1 Depth=1
	.loc	1 995 31 is_stmt 1              @ rt-thread/components/finsh/cmd.c:995:31
	ldr	r0, [sp, #36]
	.loc	1 995 39 is_stmt 0              @ rt-thread/components/finsh/cmd.c:995:39
	ldr	r1, [sp, #8]
	.loc	1 995 46                        @ rt-thread/components/finsh/cmd.c:995:46
	ldr	r1, [r1]
	.loc	1 995 17                        @ rt-thread/components/finsh/cmd.c:995:17
	bl	str_is_prefix
.Ltmp296:
	.loc	1 995 17                        @ rt-thread/components/finsh/cmd.c:995:17
	cbnz	r0, .LBB20_14
	b	.LBB20_5
.LBB20_5:                               @   in Loop: Header=BB20_1 Depth=1
.Ltmp297:
	.loc	1 997 21 is_stmt 1              @ rt-thread/components/finsh/cmd.c:997:21
	ldrh.w	r0, [sp, #26]
.Ltmp298:
	.loc	1 997 21 is_stmt 0              @ rt-thread/components/finsh/cmd.c:997:21
	cbnz	r0, .LBB20_9
	b	.LBB20_6
.LBB20_6:                               @   in Loop: Header=BB20_1 Depth=1
.Ltmp299:
	.loc	1 999 21 is_stmt 1              @ rt-thread/components/finsh/cmd.c:999:21
	movw	r0, :lower16:.L.str.61
	movt	r0, :upper16:.L.str.61
	bl	rt_kprintf
.Ltmp300:
	.loc	1 1001 26                       @ rt-thread/components/finsh/cmd.c:1001:26
	ldr	r0, [sp, #36]
	.loc	1 1001 25 is_stmt 0             @ rt-thread/components/finsh/cmd.c:1001:25
	ldrsb.w	r0, [r0]
.Ltmp301:
	.loc	1 1001 25                       @ rt-thread/components/finsh/cmd.c:1001:25
	cbz	r0, .LBB20_8
	b	.LBB20_7
.LBB20_7:                               @   in Loop: Header=BB20_1 Depth=1
.Ltmp302:
	.loc	1 1004 36 is_stmt 1             @ rt-thread/components/finsh/cmd.c:1004:36
	ldr	r0, [sp, #8]
	.loc	1 1004 43 is_stmt 0             @ rt-thread/components/finsh/cmd.c:1004:43
	ldr	r0, [r0]
	.loc	1 1004 34                       @ rt-thread/components/finsh/cmd.c:1004:34
	str	r0, [sp, #12]
	.loc	1 1007 45 is_stmt 1             @ rt-thread/components/finsh/cmd.c:1007:45
	ldr	r0, [sp, #12]
	.loc	1 1007 38 is_stmt 0             @ rt-thread/components/finsh/cmd.c:1007:38
	bl	strlen
	.loc	1 1007 36                       @ rt-thread/components/finsh/cmd.c:1007:36
	str	r0, [sp, #16]
	.loc	1 1008 21 is_stmt 1             @ rt-thread/components/finsh/cmd.c:1008:21
	b	.LBB20_8
.Ltmp303:
.LBB20_8:                               @   in Loop: Header=BB20_1 Depth=1
	.loc	1 1009 17                       @ rt-thread/components/finsh/cmd.c:1009:17
	b	.LBB20_9
.Ltmp304:
.LBB20_9:                               @   in Loop: Header=BB20_1 Depth=1
	.loc	1 1011 26                       @ rt-thread/components/finsh/cmd.c:1011:26
	ldrh.w	r0, [sp, #26]
	adds	r0, #1
	strh.w	r0, [sp, #26]
.Ltmp305:
	.loc	1 1013 22                       @ rt-thread/components/finsh/cmd.c:1013:22
	ldr	r0, [sp, #36]
	.loc	1 1013 21 is_stmt 0             @ rt-thread/components/finsh/cmd.c:1013:21
	ldrsb.w	r0, [r0]
.Ltmp306:
	.loc	1 1013 21                       @ rt-thread/components/finsh/cmd.c:1013:21
	cbz	r0, .LBB20_13
	b	.LBB20_10
.LBB20_10:                              @   in Loop: Header=BB20_1 Depth=1
.Ltmp307:
	.loc	1 1015 41 is_stmt 1             @ rt-thread/components/finsh/cmd.c:1015:41
	ldr	r0, [sp, #12]
	.loc	1 1015 51 is_stmt 0             @ rt-thread/components/finsh/cmd.c:1015:51
	ldr	r1, [sp, #8]
	.loc	1 1015 58                       @ rt-thread/components/finsh/cmd.c:1015:58
	ldr	r1, [r1]
	.loc	1 1015 30                       @ rt-thread/components/finsh/cmd.c:1015:30
	bl	str_common
	.loc	1 1015 28                       @ rt-thread/components/finsh/cmd.c:1015:28
	str	r0, [sp, #20]
.Ltmp308:
	.loc	1 1016 25 is_stmt 1             @ rt-thread/components/finsh/cmd.c:1016:25
	ldr	r0, [sp, #20]
	.loc	1 1016 34 is_stmt 0             @ rt-thread/components/finsh/cmd.c:1016:34
	ldr	r1, [sp, #16]
.Ltmp309:
	.loc	1 1016 25                       @ rt-thread/components/finsh/cmd.c:1016:25
	cmp	r0, r1
	bge	.LBB20_12
	b	.LBB20_11
.LBB20_11:                              @   in Loop: Header=BB20_1 Depth=1
.Ltmp310:
	.loc	1 1017 38 is_stmt 1             @ rt-thread/components/finsh/cmd.c:1017:38
	ldr	r0, [sp, #20]
	.loc	1 1017 36 is_stmt 0             @ rt-thread/components/finsh/cmd.c:1017:36
	str	r0, [sp, #16]
	.loc	1 1017 25                       @ rt-thread/components/finsh/cmd.c:1017:25
	b	.LBB20_12
.Ltmp311:
.LBB20_12:                              @   in Loop: Header=BB20_1 Depth=1
	.loc	1 1018 17 is_stmt 1             @ rt-thread/components/finsh/cmd.c:1018:17
	b	.LBB20_13
.Ltmp312:
.LBB20_13:                              @   in Loop: Header=BB20_1 Depth=1
	.loc	1 1021 45                       @ rt-thread/components/finsh/cmd.c:1021:45
	ldr	r0, [sp, #8]
	.loc	1 1021 52 is_stmt 0             @ rt-thread/components/finsh/cmd.c:1021:52
	ldr	r1, [r0]
	.loc	1 1021 65                       @ rt-thread/components/finsh/cmd.c:1021:65
	ldr	r2, [r0, #4]
	.loc	1 1021 17                       @ rt-thread/components/finsh/cmd.c:1021:17
	movw	r0, :lower16:.L.str.58
	movt	r0, :upper16:.L.str.58
	bl	rt_kprintf
	.loc	1 1025 13 is_stmt 1             @ rt-thread/components/finsh/cmd.c:1025:13
	b	.LBB20_14
.Ltmp313:
.LBB20_14:                              @   in Loop: Header=BB20_1 Depth=1
	.loc	1 1026 9                        @ rt-thread/components/finsh/cmd.c:1026:9
	b	.LBB20_15
.Ltmp314:
.LBB20_15:                              @   in Loop: Header=BB20_1 Depth=1
	.loc	1 990 17                        @ rt-thread/components/finsh/cmd.c:990:17
	ldr	r0, [sp, #8]
	adds	r0, #12
	str	r0, [sp, #8]
	.loc	1 988 9                         @ rt-thread/components/finsh/cmd.c:988:9
	b	.LBB20_1
.Ltmp315:
.LBB20_16:
	.loc	1 1030 20                       @ rt-thread/components/finsh/cmd.c:1030:20
	movw	r0, :lower16:global_syscall_list
	movt	r0, :upper16:global_syscall_list
	ldr	r0, [r0]
	.loc	1 1030 18 is_stmt 0             @ rt-thread/components/finsh/cmd.c:1030:18
	str	r0, [sp, #32]
	.loc	1 1031 5 is_stmt 1              @ rt-thread/components/finsh/cmd.c:1031:5
	b	.LBB20_17
.LBB20_17:                              @ =>This Inner Loop Header: Depth=1
	.loc	1 1031 12 is_stmt 0             @ rt-thread/components/finsh/cmd.c:1031:12
	ldr	r0, [sp, #32]
	.loc	1 1031 5                        @ rt-thread/components/finsh/cmd.c:1031:5
	cmp	r0, #0
	beq	.LBB20_30
	b	.LBB20_18
.LBB20_18:                              @   in Loop: Header=BB20_17 Depth=1
.Ltmp316:
	.loc	1 1033 27 is_stmt 1             @ rt-thread/components/finsh/cmd.c:1033:27
	ldr	r0, [sp, #36]
	.loc	1 1033 35 is_stmt 0             @ rt-thread/components/finsh/cmd.c:1033:35
	ldr	r1, [sp, #32]
	.loc	1 1033 57                       @ rt-thread/components/finsh/cmd.c:1033:57
	ldr	r1, [r1, #4]
	.loc	1 1033 13                       @ rt-thread/components/finsh/cmd.c:1033:13
	bl	str_is_prefix
.Ltmp317:
	.loc	1 1033 13                       @ rt-thread/components/finsh/cmd.c:1033:13
	cbnz	r0, .LBB20_29
	b	.LBB20_19
.LBB20_19:                              @   in Loop: Header=BB20_17 Depth=1
.Ltmp318:
	.loc	1 1035 17 is_stmt 1             @ rt-thread/components/finsh/cmd.c:1035:17
	ldrh.w	r0, [sp, #26]
.Ltmp319:
	.loc	1 1035 17 is_stmt 0             @ rt-thread/components/finsh/cmd.c:1035:17
	cbnz	r0, .LBB20_24
	b	.LBB20_20
.LBB20_20:                              @   in Loop: Header=BB20_17 Depth=1
.Ltmp320:
	.loc	1 1037 17 is_stmt 1             @ rt-thread/components/finsh/cmd.c:1037:17
	movw	r0, :lower16:.L.str.61
	movt	r0, :upper16:.L.str.61
	bl	rt_kprintf
.Ltmp321:
	.loc	1 1038 22                       @ rt-thread/components/finsh/cmd.c:1038:22
	ldr	r0, [sp, #36]
	.loc	1 1038 21 is_stmt 0             @ rt-thread/components/finsh/cmd.c:1038:21
	ldrsb.w	r0, [r0]
	.loc	1 1038 34                       @ rt-thread/components/finsh/cmd.c:1038:34
	cbz	r0, .LBB20_23
	b	.LBB20_21
.LBB20_21:                              @   in Loop: Header=BB20_17 Depth=1
	.loc	1 1038 37                       @ rt-thread/components/finsh/cmd.c:1038:37
	ldr	r0, [sp, #12]
.Ltmp322:
	.loc	1 1038 21                       @ rt-thread/components/finsh/cmd.c:1038:21
	cbnz	r0, .LBB20_23
	b	.LBB20_22
.LBB20_22:                              @   in Loop: Header=BB20_17 Depth=1
.Ltmp323:
	.loc	1 1041 32 is_stmt 1             @ rt-thread/components/finsh/cmd.c:1041:32
	ldr	r0, [sp, #32]
	.loc	1 1041 54 is_stmt 0             @ rt-thread/components/finsh/cmd.c:1041:54
	ldr	r0, [r0, #4]
	.loc	1 1041 30                       @ rt-thread/components/finsh/cmd.c:1041:30
	str	r0, [sp, #12]
	.loc	1 1044 41 is_stmt 1             @ rt-thread/components/finsh/cmd.c:1044:41
	ldr	r0, [sp, #12]
	.loc	1 1044 34 is_stmt 0             @ rt-thread/components/finsh/cmd.c:1044:34
	bl	strlen
	.loc	1 1044 32                       @ rt-thread/components/finsh/cmd.c:1044:32
	str	r0, [sp, #16]
	.loc	1 1045 17 is_stmt 1             @ rt-thread/components/finsh/cmd.c:1045:17
	b	.LBB20_23
.Ltmp324:
.LBB20_23:                              @   in Loop: Header=BB20_17 Depth=1
	.loc	1 1046 13                       @ rt-thread/components/finsh/cmd.c:1046:13
	b	.LBB20_24
.Ltmp325:
.LBB20_24:                              @   in Loop: Header=BB20_17 Depth=1
	.loc	1 1048 22                       @ rt-thread/components/finsh/cmd.c:1048:22
	ldrh.w	r0, [sp, #26]
	adds	r0, #1
	strh.w	r0, [sp, #26]
.Ltmp326:
	.loc	1 1050 18                       @ rt-thread/components/finsh/cmd.c:1050:18
	ldr	r0, [sp, #36]
	.loc	1 1050 17 is_stmt 0             @ rt-thread/components/finsh/cmd.c:1050:17
	ldrsb.w	r0, [r0]
.Ltmp327:
	.loc	1 1050 17                       @ rt-thread/components/finsh/cmd.c:1050:17
	cbz	r0, .LBB20_28
	b	.LBB20_25
.LBB20_25:                              @   in Loop: Header=BB20_17 Depth=1
.Ltmp328:
	.loc	1 1052 37 is_stmt 1             @ rt-thread/components/finsh/cmd.c:1052:37
	ldr	r0, [sp, #12]
	.loc	1 1052 47 is_stmt 0             @ rt-thread/components/finsh/cmd.c:1052:47
	ldr	r1, [sp, #32]
	.loc	1 1052 69                       @ rt-thread/components/finsh/cmd.c:1052:69
	ldr	r1, [r1, #4]
	.loc	1 1052 26                       @ rt-thread/components/finsh/cmd.c:1052:26
	bl	str_common
	.loc	1 1052 24                       @ rt-thread/components/finsh/cmd.c:1052:24
	str	r0, [sp, #20]
.Ltmp329:
	.loc	1 1053 21 is_stmt 1             @ rt-thread/components/finsh/cmd.c:1053:21
	ldr	r0, [sp, #20]
	.loc	1 1053 30 is_stmt 0             @ rt-thread/components/finsh/cmd.c:1053:30
	ldr	r1, [sp, #16]
.Ltmp330:
	.loc	1 1053 21                       @ rt-thread/components/finsh/cmd.c:1053:21
	cmp	r0, r1
	bge	.LBB20_27
	b	.LBB20_26
.LBB20_26:                              @   in Loop: Header=BB20_17 Depth=1
.Ltmp331:
	.loc	1 1054 34 is_stmt 1             @ rt-thread/components/finsh/cmd.c:1054:34
	ldr	r0, [sp, #20]
	.loc	1 1054 32 is_stmt 0             @ rt-thread/components/finsh/cmd.c:1054:32
	str	r0, [sp, #16]
	.loc	1 1054 21                       @ rt-thread/components/finsh/cmd.c:1054:21
	b	.LBB20_27
.Ltmp332:
.LBB20_27:                              @   in Loop: Header=BB20_17 Depth=1
	.loc	1 1055 13 is_stmt 1             @ rt-thread/components/finsh/cmd.c:1055:13
	b	.LBB20_28
.Ltmp333:
.LBB20_28:                              @   in Loop: Header=BB20_17 Depth=1
	.loc	1 1057 36                       @ rt-thread/components/finsh/cmd.c:1057:36
	ldr	r0, [sp, #32]
	.loc	1 1057 58 is_stmt 0             @ rt-thread/components/finsh/cmd.c:1057:58
	ldr	r1, [r0, #4]
	.loc	1 1057 13                       @ rt-thread/components/finsh/cmd.c:1057:13
	movw	r0, :lower16:.L.str.59
	movt	r0, :upper16:.L.str.59
	bl	rt_kprintf
	.loc	1 1058 9 is_stmt 1              @ rt-thread/components/finsh/cmd.c:1058:9
	b	.LBB20_29
.Ltmp334:
.LBB20_29:                              @   in Loop: Header=BB20_17 Depth=1
	.loc	1 1059 24                       @ rt-thread/components/finsh/cmd.c:1059:24
	ldr	r0, [sp, #32]
	.loc	1 1059 38 is_stmt 0             @ rt-thread/components/finsh/cmd.c:1059:38
	ldr	r0, [r0]
	.loc	1 1059 22                       @ rt-thread/components/finsh/cmd.c:1059:22
	str	r0, [sp, #32]
.Ltmp335:
	.loc	1 1031 5 is_stmt 1              @ rt-thread/components/finsh/cmd.c:1031:5
	b	.LBB20_17
.LBB20_30:
.Ltmp336:
	.loc	1 1065 22                       @ rt-thread/components/finsh/cmd.c:1065:22
	movw	r0, :lower16:_sysvar_table_begin
	movt	r0, :upper16:_sysvar_table_begin
	ldr	r0, [r0]
	.loc	1 1065 20 is_stmt 0             @ rt-thread/components/finsh/cmd.c:1065:20
	str	r0, [sp, #4]
	.loc	1 1065 14                       @ rt-thread/components/finsh/cmd.c:1065:14
	b	.LBB20_31
.LBB20_31:                              @ =>This Inner Loop Header: Depth=1
.Ltmp337:
	.loc	1 1066 17 is_stmt 1             @ rt-thread/components/finsh/cmd.c:1066:17
	ldr	r0, [sp, #4]
	.loc	1 1066 25 is_stmt 0             @ rt-thread/components/finsh/cmd.c:1066:25
	movw	r1, :lower16:_sysvar_table_end
	movt	r1, :upper16:_sysvar_table_end
	ldr	r1, [r1]
.Ltmp338:
	.loc	1 1065 9 is_stmt 1              @ rt-thread/components/finsh/cmd.c:1065:9
	cmp	r0, r1
	bhs	.LBB20_45
	b	.LBB20_32
.LBB20_32:                              @   in Loop: Header=BB20_31 Depth=1
.Ltmp339:
	.loc	1 1069 31                       @ rt-thread/components/finsh/cmd.c:1069:31
	ldr	r0, [sp, #36]
	.loc	1 1069 39 is_stmt 0             @ rt-thread/components/finsh/cmd.c:1069:39
	ldr	r1, [sp, #4]
	.loc	1 1069 46                       @ rt-thread/components/finsh/cmd.c:1069:46
	ldr	r1, [r1]
	.loc	1 1069 17                       @ rt-thread/components/finsh/cmd.c:1069:17
	bl	str_is_prefix
.Ltmp340:
	.loc	1 1069 17                       @ rt-thread/components/finsh/cmd.c:1069:17
	cmp	r0, #0
	bne	.LBB20_43
	b	.LBB20_33
.LBB20_33:                              @   in Loop: Header=BB20_31 Depth=1
.Ltmp341:
	.loc	1 1071 21 is_stmt 1             @ rt-thread/components/finsh/cmd.c:1071:21
	ldrh.w	r0, [sp, #24]
.Ltmp342:
	.loc	1 1071 21 is_stmt 0             @ rt-thread/components/finsh/cmd.c:1071:21
	cbnz	r0, .LBB20_38
	b	.LBB20_34
.LBB20_34:                              @   in Loop: Header=BB20_31 Depth=1
.Ltmp343:
	.loc	1 1073 21 is_stmt 1             @ rt-thread/components/finsh/cmd.c:1073:21
	movw	r0, :lower16:.L.str.62
	movt	r0, :upper16:.L.str.62
	bl	rt_kprintf
.Ltmp344:
	.loc	1 1075 26                       @ rt-thread/components/finsh/cmd.c:1075:26
	ldr	r0, [sp, #36]
	.loc	1 1075 25 is_stmt 0             @ rt-thread/components/finsh/cmd.c:1075:25
	ldrsb.w	r0, [r0]
	.loc	1 1075 38                       @ rt-thread/components/finsh/cmd.c:1075:38
	cbz	r0, .LBB20_37
	b	.LBB20_35
.LBB20_35:                              @   in Loop: Header=BB20_31 Depth=1
	.loc	1 1075 41                       @ rt-thread/components/finsh/cmd.c:1075:41
	ldr	r0, [sp, #12]
.Ltmp345:
	.loc	1 1075 25                       @ rt-thread/components/finsh/cmd.c:1075:25
	cbnz	r0, .LBB20_37
	b	.LBB20_36
.LBB20_36:                              @   in Loop: Header=BB20_31 Depth=1
.Ltmp346:
	.loc	1 1078 36 is_stmt 1             @ rt-thread/components/finsh/cmd.c:1078:36
	ldr	r0, [sp, #4]
	.loc	1 1078 43 is_stmt 0             @ rt-thread/components/finsh/cmd.c:1078:43
	ldr	r0, [r0]
	.loc	1 1078 34                       @ rt-thread/components/finsh/cmd.c:1078:34
	str	r0, [sp, #12]
	.loc	1 1081 45 is_stmt 1             @ rt-thread/components/finsh/cmd.c:1081:45
	ldr	r0, [sp, #12]
	.loc	1 1081 38 is_stmt 0             @ rt-thread/components/finsh/cmd.c:1081:38
	bl	strlen
	.loc	1 1081 36                       @ rt-thread/components/finsh/cmd.c:1081:36
	str	r0, [sp, #16]
	.loc	1 1083 21 is_stmt 1             @ rt-thread/components/finsh/cmd.c:1083:21
	b	.LBB20_37
.Ltmp347:
.LBB20_37:                              @   in Loop: Header=BB20_31 Depth=1
	.loc	1 1084 17                       @ rt-thread/components/finsh/cmd.c:1084:17
	b	.LBB20_38
.Ltmp348:
.LBB20_38:                              @   in Loop: Header=BB20_31 Depth=1
	.loc	1 1086 25                       @ rt-thread/components/finsh/cmd.c:1086:25
	ldrh.w	r0, [sp, #24]
	adds	r0, #1
	strh.w	r0, [sp, #24]
.Ltmp349:
	.loc	1 1088 22                       @ rt-thread/components/finsh/cmd.c:1088:22
	ldr	r0, [sp, #36]
	.loc	1 1088 21 is_stmt 0             @ rt-thread/components/finsh/cmd.c:1088:21
	ldrsb.w	r0, [r0]
.Ltmp350:
	.loc	1 1088 21                       @ rt-thread/components/finsh/cmd.c:1088:21
	cbz	r0, .LBB20_42
	b	.LBB20_39
.LBB20_39:                              @   in Loop: Header=BB20_31 Depth=1
.Ltmp351:
	.loc	1 1090 41 is_stmt 1             @ rt-thread/components/finsh/cmd.c:1090:41
	ldr	r0, [sp, #12]
	.loc	1 1090 51 is_stmt 0             @ rt-thread/components/finsh/cmd.c:1090:51
	ldr	r1, [sp, #4]
	.loc	1 1090 58                       @ rt-thread/components/finsh/cmd.c:1090:58
	ldr	r1, [r1]
	.loc	1 1090 30                       @ rt-thread/components/finsh/cmd.c:1090:30
	bl	str_common
	.loc	1 1090 28                       @ rt-thread/components/finsh/cmd.c:1090:28
	str	r0, [sp, #20]
.Ltmp352:
	.loc	1 1091 25 is_stmt 1             @ rt-thread/components/finsh/cmd.c:1091:25
	ldr	r0, [sp, #20]
	.loc	1 1091 34 is_stmt 0             @ rt-thread/components/finsh/cmd.c:1091:34
	ldr	r1, [sp, #16]
.Ltmp353:
	.loc	1 1091 25                       @ rt-thread/components/finsh/cmd.c:1091:25
	cmp	r0, r1
	bge	.LBB20_41
	b	.LBB20_40
.LBB20_40:                              @   in Loop: Header=BB20_31 Depth=1
.Ltmp354:
	.loc	1 1092 38 is_stmt 1             @ rt-thread/components/finsh/cmd.c:1092:38
	ldr	r0, [sp, #20]
	.loc	1 1092 36 is_stmt 0             @ rt-thread/components/finsh/cmd.c:1092:36
	str	r0, [sp, #16]
	.loc	1 1092 25                       @ rt-thread/components/finsh/cmd.c:1092:25
	b	.LBB20_41
.Ltmp355:
.LBB20_41:                              @   in Loop: Header=BB20_31 Depth=1
	.loc	1 1093 17 is_stmt 1             @ rt-thread/components/finsh/cmd.c:1093:17
	b	.LBB20_42
.Ltmp356:
.LBB20_42:                              @   in Loop: Header=BB20_31 Depth=1
	.loc	1 1096 45                       @ rt-thread/components/finsh/cmd.c:1096:45
	ldr	r0, [sp, #4]
	.loc	1 1096 52 is_stmt 0             @ rt-thread/components/finsh/cmd.c:1096:52
	ldr	r1, [r0]
	.loc	1 1096 65                       @ rt-thread/components/finsh/cmd.c:1096:65
	ldr	r2, [r0, #4]
	.loc	1 1096 17                       @ rt-thread/components/finsh/cmd.c:1096:17
	movw	r0, :lower16:.L.str.58
	movt	r0, :upper16:.L.str.58
	bl	rt_kprintf
	.loc	1 1100 13 is_stmt 1             @ rt-thread/components/finsh/cmd.c:1100:13
	b	.LBB20_43
.Ltmp357:
.LBB20_43:                              @   in Loop: Header=BB20_31 Depth=1
	.loc	1 1101 9                        @ rt-thread/components/finsh/cmd.c:1101:9
	b	.LBB20_44
.Ltmp358:
.LBB20_44:                              @   in Loop: Header=BB20_31 Depth=1
	.loc	1 1067 17                       @ rt-thread/components/finsh/cmd.c:1067:17
	ldr	r0, [sp, #4]
	adds	r0, #16
	str	r0, [sp, #4]
	.loc	1 1065 9                        @ rt-thread/components/finsh/cmd.c:1065:9
	b	.LBB20_31
.Ltmp359:
.LBB20_45:
	.loc	1 1105 19                       @ rt-thread/components/finsh/cmd.c:1105:19
	movw	r0, :lower16:global_sysvar_list
	movt	r0, :upper16:global_sysvar_list
	ldr	r0, [r0]
	.loc	1 1105 17 is_stmt 0             @ rt-thread/components/finsh/cmd.c:1105:17
	str	r0, [sp, #28]
	.loc	1 1106 5 is_stmt 1              @ rt-thread/components/finsh/cmd.c:1106:5
	b	.LBB20_46
.LBB20_46:                              @ =>This Inner Loop Header: Depth=1
	.loc	1 1106 12 is_stmt 0             @ rt-thread/components/finsh/cmd.c:1106:12
	ldr	r0, [sp, #28]
	.loc	1 1106 5                        @ rt-thread/components/finsh/cmd.c:1106:5
	cmp	r0, #0
	beq	.LBB20_59
	b	.LBB20_47
.LBB20_47:                              @   in Loop: Header=BB20_46 Depth=1
.Ltmp360:
	.loc	1 1108 27 is_stmt 1             @ rt-thread/components/finsh/cmd.c:1108:27
	ldr	r0, [sp, #36]
	.loc	1 1108 35 is_stmt 0             @ rt-thread/components/finsh/cmd.c:1108:35
	ldr	r1, [sp, #28]
	.loc	1 1108 55                       @ rt-thread/components/finsh/cmd.c:1108:55
	ldr	r1, [r1, #4]
	.loc	1 1108 13                       @ rt-thread/components/finsh/cmd.c:1108:13
	bl	str_is_prefix
.Ltmp361:
	.loc	1 1108 13                       @ rt-thread/components/finsh/cmd.c:1108:13
	cbnz	r0, .LBB20_58
	b	.LBB20_48
.LBB20_48:                              @   in Loop: Header=BB20_46 Depth=1
.Ltmp362:
	.loc	1 1110 17 is_stmt 1             @ rt-thread/components/finsh/cmd.c:1110:17
	ldrh.w	r0, [sp, #24]
.Ltmp363:
	.loc	1 1110 17 is_stmt 0             @ rt-thread/components/finsh/cmd.c:1110:17
	cbnz	r0, .LBB20_53
	b	.LBB20_49
.LBB20_49:                              @   in Loop: Header=BB20_46 Depth=1
.Ltmp364:
	.loc	1 1112 17 is_stmt 1             @ rt-thread/components/finsh/cmd.c:1112:17
	movw	r0, :lower16:.L.str.62
	movt	r0, :upper16:.L.str.62
	bl	rt_kprintf
.Ltmp365:
	.loc	1 1113 22                       @ rt-thread/components/finsh/cmd.c:1113:22
	ldr	r0, [sp, #36]
	.loc	1 1113 21 is_stmt 0             @ rt-thread/components/finsh/cmd.c:1113:21
	ldrsb.w	r0, [r0]
	.loc	1 1113 34                       @ rt-thread/components/finsh/cmd.c:1113:34
	cbz	r0, .LBB20_52
	b	.LBB20_50
.LBB20_50:                              @   in Loop: Header=BB20_46 Depth=1
	.loc	1 1113 37                       @ rt-thread/components/finsh/cmd.c:1113:37
	ldr	r0, [sp, #12]
.Ltmp366:
	.loc	1 1113 21                       @ rt-thread/components/finsh/cmd.c:1113:21
	cbnz	r0, .LBB20_52
	b	.LBB20_51
.LBB20_51:                              @   in Loop: Header=BB20_46 Depth=1
.Ltmp367:
	.loc	1 1116 32 is_stmt 1             @ rt-thread/components/finsh/cmd.c:1116:32
	ldr	r0, [sp, #28]
	.loc	1 1116 52 is_stmt 0             @ rt-thread/components/finsh/cmd.c:1116:52
	ldr	r0, [r0, #4]
	.loc	1 1116 30                       @ rt-thread/components/finsh/cmd.c:1116:30
	str	r0, [sp, #12]
	.loc	1 1119 41 is_stmt 1             @ rt-thread/components/finsh/cmd.c:1119:41
	ldr	r0, [sp, #12]
	.loc	1 1119 34 is_stmt 0             @ rt-thread/components/finsh/cmd.c:1119:34
	bl	strlen
	.loc	1 1119 32                       @ rt-thread/components/finsh/cmd.c:1119:32
	str	r0, [sp, #16]
	.loc	1 1120 17 is_stmt 1             @ rt-thread/components/finsh/cmd.c:1120:17
	b	.LBB20_52
.Ltmp368:
.LBB20_52:                              @   in Loop: Header=BB20_46 Depth=1
	.loc	1 1121 13                       @ rt-thread/components/finsh/cmd.c:1121:13
	b	.LBB20_53
.Ltmp369:
.LBB20_53:                              @   in Loop: Header=BB20_46 Depth=1
	.loc	1 1123 21                       @ rt-thread/components/finsh/cmd.c:1123:21
	ldrh.w	r0, [sp, #24]
	adds	r0, #1
	strh.w	r0, [sp, #24]
.Ltmp370:
	.loc	1 1125 18                       @ rt-thread/components/finsh/cmd.c:1125:18
	ldr	r0, [sp, #36]
	.loc	1 1125 17 is_stmt 0             @ rt-thread/components/finsh/cmd.c:1125:17
	ldrsb.w	r0, [r0]
.Ltmp371:
	.loc	1 1125 17                       @ rt-thread/components/finsh/cmd.c:1125:17
	cbz	r0, .LBB20_57
	b	.LBB20_54
.LBB20_54:                              @   in Loop: Header=BB20_46 Depth=1
.Ltmp372:
	.loc	1 1127 37 is_stmt 1             @ rt-thread/components/finsh/cmd.c:1127:37
	ldr	r0, [sp, #12]
	.loc	1 1127 47 is_stmt 0             @ rt-thread/components/finsh/cmd.c:1127:47
	ldr	r1, [sp, #28]
	.loc	1 1127 67                       @ rt-thread/components/finsh/cmd.c:1127:67
	ldr	r1, [r1, #4]
	.loc	1 1127 26                       @ rt-thread/components/finsh/cmd.c:1127:26
	bl	str_common
	.loc	1 1127 24                       @ rt-thread/components/finsh/cmd.c:1127:24
	str	r0, [sp, #20]
.Ltmp373:
	.loc	1 1128 21 is_stmt 1             @ rt-thread/components/finsh/cmd.c:1128:21
	ldr	r0, [sp, #20]
	.loc	1 1128 30 is_stmt 0             @ rt-thread/components/finsh/cmd.c:1128:30
	ldr	r1, [sp, #16]
.Ltmp374:
	.loc	1 1128 21                       @ rt-thread/components/finsh/cmd.c:1128:21
	cmp	r0, r1
	bge	.LBB20_56
	b	.LBB20_55
.LBB20_55:                              @   in Loop: Header=BB20_46 Depth=1
.Ltmp375:
	.loc	1 1129 34 is_stmt 1             @ rt-thread/components/finsh/cmd.c:1129:34
	ldr	r0, [sp, #20]
	.loc	1 1129 32 is_stmt 0             @ rt-thread/components/finsh/cmd.c:1129:32
	str	r0, [sp, #16]
	.loc	1 1129 21                       @ rt-thread/components/finsh/cmd.c:1129:21
	b	.LBB20_56
.Ltmp376:
.LBB20_56:                              @   in Loop: Header=BB20_46 Depth=1
	.loc	1 1130 13 is_stmt 1             @ rt-thread/components/finsh/cmd.c:1130:13
	b	.LBB20_57
.Ltmp377:
.LBB20_57:                              @   in Loop: Header=BB20_46 Depth=1
	.loc	1 1132 36                       @ rt-thread/components/finsh/cmd.c:1132:36
	ldr	r0, [sp, #28]
	.loc	1 1132 56 is_stmt 0             @ rt-thread/components/finsh/cmd.c:1132:56
	ldr	r1, [r0, #4]
	.loc	1 1132 13                       @ rt-thread/components/finsh/cmd.c:1132:13
	movw	r0, :lower16:.L.str.63
	movt	r0, :upper16:.L.str.63
	bl	rt_kprintf
	.loc	1 1133 9 is_stmt 1              @ rt-thread/components/finsh/cmd.c:1133:9
	b	.LBB20_58
.Ltmp378:
.LBB20_58:                              @   in Loop: Header=BB20_46 Depth=1
	.loc	1 1134 23                       @ rt-thread/components/finsh/cmd.c:1134:23
	ldr	r0, [sp, #28]
	.loc	1 1134 36 is_stmt 0             @ rt-thread/components/finsh/cmd.c:1134:36
	ldr	r0, [r0]
	.loc	1 1134 21                       @ rt-thread/components/finsh/cmd.c:1134:21
	str	r0, [sp, #28]
.Ltmp379:
	.loc	1 1106 5 is_stmt 1              @ rt-thread/components/finsh/cmd.c:1106:5
	b	.LBB20_46
.LBB20_59:
.Ltmp380:
	.loc	1 1138 9                        @ rt-thread/components/finsh/cmd.c:1138:9
	ldr	r0, [sp, #12]
.Ltmp381:
	.loc	1 1138 9 is_stmt 0              @ rt-thread/components/finsh/cmd.c:1138:9
	cbz	r0, .LBB20_61
	b	.LBB20_60
.LBB20_60:
.Ltmp382:
	.loc	1 1140 20 is_stmt 1             @ rt-thread/components/finsh/cmd.c:1140:20
	ldr	r0, [sp, #36]
	.loc	1 1140 28 is_stmt 0             @ rt-thread/components/finsh/cmd.c:1140:28
	ldr	r1, [sp, #12]
	.loc	1 1140 38                       @ rt-thread/components/finsh/cmd.c:1140:38
	ldr	r2, [sp, #16]
	.loc	1 1140 9                        @ rt-thread/components/finsh/cmd.c:1140:9
	bl	rt_strncpy
	.loc	1 1141 5 is_stmt 1              @ rt-thread/components/finsh/cmd.c:1141:5
	b	.LBB20_61
.Ltmp383:
.LBB20_61:
	.loc	1 1142 1                        @ rt-thread/components/finsh/cmd.c:1142:1
	add	sp, #40
	pop	{r7, pc}
.Ltmp384:
.Lfunc_end20:
	.size	list_prefix, .Lfunc_end20-list_prefix
	.cfi_endproc
	.cantunwind
	.fnend
                                        @ -- End function
	.section	.text.str_is_prefix,"ax",%progbits
	.p2align	3                               @ -- Begin function str_is_prefix
	.type	str_is_prefix,%function
	.code	16                              @ @str_is_prefix
	.thumb_func
str_is_prefix:
.Lfunc_begin21:
	.loc	1 946 0                         @ rt-thread/components/finsh/cmd.c:946:0
	.fnstart
	.cfi_startproc
@ %bb.0:
	.pad	#16
	sub	sp, #16
	.cfi_def_cfa_offset 16
	str	r0, [sp, #8]
	str	r1, [sp, #4]
.Ltmp385:
	.loc	1 947 5 prologue_end            @ rt-thread/components/finsh/cmd.c:947:5
	b	.LBB21_1
.LBB21_1:                               @ =>This Inner Loop Header: Depth=1
	.loc	1 947 14 is_stmt 0              @ rt-thread/components/finsh/cmd.c:947:14
	ldr	r0, [sp, #8]
	.loc	1 947 13                        @ rt-thread/components/finsh/cmd.c:947:13
	ldrsb.w	r1, [r0]
	movs	r0, #0
	.loc	1 947 22                        @ rt-thread/components/finsh/cmd.c:947:22
	str	r0, [sp]                        @ 4-byte Spill
	cbz	r1, .LBB21_3
	b	.LBB21_2
.LBB21_2:                               @   in Loop: Header=BB21_1 Depth=1
	.loc	1 947 27                        @ rt-thread/components/finsh/cmd.c:947:27
	ldr	r0, [sp, #8]
	.loc	1 947 26                        @ rt-thread/components/finsh/cmd.c:947:26
	ldrsb.w	r0, [r0]
	.loc	1 947 38                        @ rt-thread/components/finsh/cmd.c:947:38
	ldr	r1, [sp, #4]
	.loc	1 947 37                        @ rt-thread/components/finsh/cmd.c:947:37
	ldrsb.w	r1, [r1]
	.loc	1 947 34                        @ rt-thread/components/finsh/cmd.c:947:34
	subs	r0, r0, r1
	clz	r0, r0
	lsrs	r0, r0, #5
	str	r0, [sp]                        @ 4-byte Spill
	b	.LBB21_3
.LBB21_3:                               @   in Loop: Header=BB21_1 Depth=1
	.loc	1 0 0                           @ rt-thread/components/finsh/cmd.c:0:0
	ldr	r0, [sp]                        @ 4-byte Reload
	.loc	1 947 5                         @ rt-thread/components/finsh/cmd.c:947:5
	lsls	r0, r0, #31
	cbz	r0, .LBB21_5
	b	.LBB21_4
.LBB21_4:                               @   in Loop: Header=BB21_1 Depth=1
.Ltmp386:
	.loc	1 949 16 is_stmt 1              @ rt-thread/components/finsh/cmd.c:949:16
	ldr	r0, [sp, #8]
	adds	r0, #1
	str	r0, [sp, #8]
	.loc	1 950 13                        @ rt-thread/components/finsh/cmd.c:950:13
	ldr	r0, [sp, #4]
	adds	r0, #1
	str	r0, [sp, #4]
.Ltmp387:
	.loc	1 947 5                         @ rt-thread/components/finsh/cmd.c:947:5
	b	.LBB21_1
.LBB21_5:
.Ltmp388:
	.loc	1 953 10                        @ rt-thread/components/finsh/cmd.c:953:10
	ldr	r0, [sp, #8]
	.loc	1 953 9 is_stmt 0               @ rt-thread/components/finsh/cmd.c:953:9
	ldrsb.w	r0, [r0]
.Ltmp389:
	.loc	1 953 9                         @ rt-thread/components/finsh/cmd.c:953:9
	cbnz	r0, .LBB21_7
	b	.LBB21_6
.LBB21_6:
	.loc	1 0 9                           @ rt-thread/components/finsh/cmd.c:0:9
	movs	r0, #0
.Ltmp390:
	.loc	1 954 9 is_stmt 1               @ rt-thread/components/finsh/cmd.c:954:9
	str	r0, [sp, #12]
	b	.LBB21_8
.Ltmp391:
.LBB21_7:
	.loc	1 0 9 is_stmt 0                 @ rt-thread/components/finsh/cmd.c:0:9
	mov.w	r0, #-1
	.loc	1 956 5 is_stmt 1               @ rt-thread/components/finsh/cmd.c:956:5
	str	r0, [sp, #12]
	b	.LBB21_8
.LBB21_8:
	.loc	1 957 1                         @ rt-thread/components/finsh/cmd.c:957:1
	ldr	r0, [sp, #12]
	add	sp, #16
	bx	lr
.Ltmp392:
.Lfunc_end21:
	.size	str_is_prefix, .Lfunc_end21-str_is_prefix
	.cfi_endproc
	.cantunwind
	.fnend
                                        @ -- End function
	.section	.text.str_common,"ax",%progbits
	.p2align	3                               @ -- Begin function str_common
	.type	str_common,%function
	.code	16                              @ @str_common
	.thumb_func
str_common:
.Lfunc_begin22:
	.loc	1 960 0                         @ rt-thread/components/finsh/cmd.c:960:0
	.fnstart
	.cfi_startproc
@ %bb.0:
	.pad	#16
	sub	sp, #16
	.cfi_def_cfa_offset 16
	str	r0, [sp, #12]
	str	r1, [sp, #8]
.Ltmp393:
	.loc	1 961 23 prologue_end           @ rt-thread/components/finsh/cmd.c:961:23
	ldr	r0, [sp, #12]
	.loc	1 961 17 is_stmt 0              @ rt-thread/components/finsh/cmd.c:961:17
	str	r0, [sp, #4]
	.loc	1 963 5 is_stmt 1               @ rt-thread/components/finsh/cmd.c:963:5
	b	.LBB22_1
.LBB22_1:                               @ =>This Inner Loop Header: Depth=1
	.loc	1 963 14 is_stmt 0              @ rt-thread/components/finsh/cmd.c:963:14
	ldr	r0, [sp, #4]
	.loc	1 963 13                        @ rt-thread/components/finsh/cmd.c:963:13
	ldrsb.w	r1, [r0]
	movs	r0, #0
	.loc	1 963 24                        @ rt-thread/components/finsh/cmd.c:963:24
	str	r0, [sp]                        @ 4-byte Spill
	cbz	r1, .LBB22_4
	b	.LBB22_2
.LBB22_2:                               @   in Loop: Header=BB22_1 Depth=1
	.loc	1 963 29                        @ rt-thread/components/finsh/cmd.c:963:29
	ldr	r0, [sp, #8]
	.loc	1 963 28                        @ rt-thread/components/finsh/cmd.c:963:28
	ldrsb.w	r1, [r0]
	movs	r0, #0
	.loc	1 963 40                        @ rt-thread/components/finsh/cmd.c:963:40
	str	r0, [sp]                        @ 4-byte Spill
	cbz	r1, .LBB22_4
	b	.LBB22_3
.LBB22_3:                               @   in Loop: Header=BB22_1 Depth=1
	.loc	1 963 45                        @ rt-thread/components/finsh/cmd.c:963:45
	ldr	r0, [sp, #4]
	.loc	1 963 44                        @ rt-thread/components/finsh/cmd.c:963:44
	ldrsb.w	r0, [r0]
	.loc	1 963 53                        @ rt-thread/components/finsh/cmd.c:963:53
	ldr	r1, [sp, #8]
	.loc	1 963 52                        @ rt-thread/components/finsh/cmd.c:963:52
	ldrsb.w	r1, [r1]
	.loc	1 963 49                        @ rt-thread/components/finsh/cmd.c:963:49
	subs	r0, r0, r1
	clz	r0, r0
	lsrs	r0, r0, #5
	str	r0, [sp]                        @ 4-byte Spill
	b	.LBB22_4
.LBB22_4:                               @   in Loop: Header=BB22_1 Depth=1
	.loc	1 0 0                           @ rt-thread/components/finsh/cmd.c:0:0
	ldr	r0, [sp]                        @ 4-byte Reload
	.loc	1 963 5                         @ rt-thread/components/finsh/cmd.c:963:5
	lsls	r0, r0, #31
	cbz	r0, .LBB22_6
	b	.LBB22_5
.LBB22_5:                               @   in Loop: Header=BB22_1 Depth=1
.Ltmp394:
	.loc	1 965 13 is_stmt 1              @ rt-thread/components/finsh/cmd.c:965:13
	ldr	r0, [sp, #4]
	adds	r0, #1
	str	r0, [sp, #4]
	.loc	1 966 14                        @ rt-thread/components/finsh/cmd.c:966:14
	ldr	r0, [sp, #8]
	adds	r0, #1
	str	r0, [sp, #8]
.Ltmp395:
	.loc	1 963 5                         @ rt-thread/components/finsh/cmd.c:963:5
	b	.LBB22_1
.LBB22_6:
	.loc	1 969 13                        @ rt-thread/components/finsh/cmd.c:969:13
	ldr	r0, [sp, #4]
	.loc	1 969 19 is_stmt 0              @ rt-thread/components/finsh/cmd.c:969:19
	ldr	r1, [sp, #12]
	.loc	1 969 17                        @ rt-thread/components/finsh/cmd.c:969:17
	subs	r0, r0, r1
	.loc	1 969 5                         @ rt-thread/components/finsh/cmd.c:969:5
	add	sp, #16
	bx	lr
.Ltmp396:
.Lfunc_end22:
	.size	str_common, .Lfunc_end22-str_common
	.cfi_endproc
	.cantunwind
	.fnend
                                        @ -- End function
	.type	.L.str,%object                  @ @.str
	.section	.rodata.str1.1,"aMS",%progbits,1
.L.str:
	.asciz	"Hello RT-Thread!\n"
	.size	.L.str, 18

	.hidden	__fsym_hello_name               @ @__fsym_hello_name
	.type	__fsym_hello_name,%object
	.section	.rodata.name,"a",%progbits
	.globl	__fsym_hello_name
__fsym_hello_name:
	.asciz	"hello"
	.size	__fsym_hello_name, 6

	.hidden	__fsym_hello_desc               @ @__fsym_hello_desc
	.type	__fsym_hello_desc,%object
	.globl	__fsym_hello_desc
__fsym_hello_desc:
	.asciz	"say hello world"
	.size	__fsym_hello_desc, 16

	.hidden	__fsym_hello                    @ @__fsym_hello
	.type	__fsym_hello,%object
	.section	FSymTab,"a",%progbits
	.globl	__fsym_hello
	.p2align	2
__fsym_hello:
__tagsym$$used.0:
	.long	__fsym_hello_name
	.long	__fsym_hello_desc
	.long	hello
	.size	__fsym_hello, 12

	.hidden	__fsym_clear_name               @ @__fsym_clear_name
	.type	__fsym_clear_name,%object
	.section	.rodata.name,"a",%progbits
	.globl	__fsym_clear_name
__fsym_clear_name:
	.asciz	"clear"
	.size	__fsym_clear_name, 6

	.hidden	__fsym_clear_desc               @ @__fsym_clear_desc
	.type	__fsym_clear_desc,%object
	.globl	__fsym_clear_desc
__fsym_clear_desc:
	.asciz	"clear the terminal screen"
	.size	__fsym_clear_desc, 26

	.hidden	__fsym_clear                    @ @__fsym_clear
	.type	__fsym_clear,%object
	.section	FSymTab,"a",%progbits
	.globl	__fsym_clear
	.p2align	2
__fsym_clear:
__tagsym$$used.1:
	.long	__fsym_clear_name
	.long	__fsym_clear_desc
	.long	clear
	.size	__fsym_clear, 12

	.hidden	__fsym___cmd_clear_name         @ @__fsym___cmd_clear_name
	.type	__fsym___cmd_clear_name,%object
	.section	.rodata.name,"a",%progbits
	.globl	__fsym___cmd_clear_name
__fsym___cmd_clear_name:
	.asciz	"__cmd_clear"
	.size	__fsym___cmd_clear_name, 12

	.hidden	__fsym___cmd_clear_desc         @ @__fsym___cmd_clear_desc
	.type	__fsym___cmd_clear_desc,%object
	.globl	__fsym___cmd_clear_desc
__fsym___cmd_clear_desc:
	.asciz	"clear the terminal screen"
	.size	__fsym___cmd_clear_desc, 26

	.hidden	__fsym___cmd_clear              @ @__fsym___cmd_clear
	.type	__fsym___cmd_clear,%object
	.section	FSymTab,"a",%progbits
	.globl	__fsym___cmd_clear
	.p2align	2
__fsym___cmd_clear:
__tagsym$$used.2:
	.long	__fsym___cmd_clear_name
	.long	__fsym___cmd_clear_desc
	.long	clear
	.size	__fsym___cmd_clear, 12

	.hidden	__fsym_version_name             @ @__fsym_version_name
	.type	__fsym_version_name,%object
	.section	.rodata.name,"a",%progbits
	.globl	__fsym_version_name
__fsym_version_name:
	.asciz	"version"
	.size	__fsym_version_name, 8

	.hidden	__fsym_version_desc             @ @__fsym_version_desc
	.type	__fsym_version_desc,%object
	.globl	__fsym_version_desc
__fsym_version_desc:
	.asciz	"show RT-Thread version information"
	.size	__fsym_version_desc, 35

	.hidden	__fsym_version                  @ @__fsym_version
	.type	__fsym_version,%object
	.section	FSymTab,"a",%progbits
	.globl	__fsym_version
	.p2align	2
__fsym_version:
__tagsym$$used.3:
	.long	__fsym_version_name
	.long	__fsym_version_desc
	.long	version
	.size	__fsym_version, 12

	.hidden	__fsym___cmd_version_name       @ @__fsym___cmd_version_name
	.type	__fsym___cmd_version_name,%object
	.section	.rodata.name,"a",%progbits
	.globl	__fsym___cmd_version_name
__fsym___cmd_version_name:
	.asciz	"__cmd_version"
	.size	__fsym___cmd_version_name, 14

	.hidden	__fsym___cmd_version_desc       @ @__fsym___cmd_version_desc
	.type	__fsym___cmd_version_desc,%object
	.globl	__fsym___cmd_version_desc
__fsym___cmd_version_desc:
	.asciz	"show RT-Thread version information"
	.size	__fsym___cmd_version_desc, 35

	.hidden	__fsym___cmd_version            @ @__fsym___cmd_version
	.type	__fsym___cmd_version,%object
	.section	FSymTab,"a",%progbits
	.globl	__fsym___cmd_version
	.p2align	2
__fsym___cmd_version:
__tagsym$$used.4:
	.long	__fsym___cmd_version_name
	.long	__fsym___cmd_version_desc
	.long	version
	.size	__fsym___cmd_version, 12

	.type	.L.str.1,%object                @ @.str.1
	.section	.rodata.str1.1,"aMS",%progbits,1
.L.str.1:
	.asciz	"thread"
	.size	.L.str.1, 7

	.type	.L.str.2,%object                @ @.str.2
.L.str.2:
	.asciz	"%-*.s pri  status      sp     stack size max used left tick  error\n"
	.size	.L.str.2, 68

	.type	.L.str.3,%object                @ @.str.3
.L.str.3:
	.asciz	" ---  ------- ---------- ----------  ------  ---------- ---\n"
	.size	.L.str.3, 61

	.type	.L.str.4,%object                @ @.str.4
.L.str.4:
	.asciz	"%-*.*s %3d "
	.size	.L.str.4, 12

	.type	.L.str.5,%object                @ @.str.5
.L.str.5:
	.asciz	" ready  "
	.size	.L.str.5, 9

	.type	.L.str.6,%object                @ @.str.6
.L.str.6:
	.asciz	" suspend"
	.size	.L.str.6, 9

	.type	.L.str.7,%object                @ @.str.7
.L.str.7:
	.asciz	" init   "
	.size	.L.str.7, 9

	.type	.L.str.8,%object                @ @.str.8
.L.str.8:
	.asciz	" close  "
	.size	.L.str.8, 9

	.type	.L.str.9,%object                @ @.str.9
.L.str.9:
	.asciz	" running"
	.size	.L.str.9, 9

	.type	.L.str.10,%object               @ @.str.10
.L.str.10:
	.asciz	" 0x%08x 0x%08x    %02d%%   0x%08x %03d\n"
	.size	.L.str.10, 40

	.hidden	__fsym_list_thread_name         @ @__fsym_list_thread_name
	.type	__fsym_list_thread_name,%object
	.section	.rodata.name,"a",%progbits
	.globl	__fsym_list_thread_name
__fsym_list_thread_name:
	.asciz	"list_thread"
	.size	__fsym_list_thread_name, 12

	.hidden	__fsym_list_thread_desc         @ @__fsym_list_thread_desc
	.type	__fsym_list_thread_desc,%object
	.globl	__fsym_list_thread_desc
__fsym_list_thread_desc:
	.asciz	"list thread"
	.size	__fsym_list_thread_desc, 12

	.hidden	__fsym_list_thread              @ @__fsym_list_thread
	.type	__fsym_list_thread,%object
	.section	FSymTab,"a",%progbits
	.globl	__fsym_list_thread
	.p2align	2
__fsym_list_thread:
__tagsym$$used.5:
	.long	__fsym_list_thread_name
	.long	__fsym_list_thread_desc
	.long	list_thread
	.size	__fsym_list_thread, 12

	.hidden	__fsym___cmd_list_thread_name   @ @__fsym___cmd_list_thread_name
	.type	__fsym___cmd_list_thread_name,%object
	.section	.rodata.name,"a",%progbits
	.globl	__fsym___cmd_list_thread_name
__fsym___cmd_list_thread_name:
	.asciz	"__cmd_list_thread"
	.size	__fsym___cmd_list_thread_name, 18

	.hidden	__fsym___cmd_list_thread_desc   @ @__fsym___cmd_list_thread_desc
	.type	__fsym___cmd_list_thread_desc,%object
	.globl	__fsym___cmd_list_thread_desc
__fsym___cmd_list_thread_desc:
	.asciz	"list thread"
	.size	__fsym___cmd_list_thread_desc, 12

	.hidden	__fsym___cmd_list_thread        @ @__fsym___cmd_list_thread
	.type	__fsym___cmd_list_thread,%object
	.section	FSymTab,"a",%progbits
	.globl	__fsym___cmd_list_thread
	.p2align	2
__fsym___cmd_list_thread:
__tagsym$$used.6:
	.long	__fsym___cmd_list_thread_name
	.long	__fsym___cmd_list_thread_desc
	.long	list_thread
	.size	__fsym___cmd_list_thread, 12

	.type	.L.str.11,%object               @ @.str.11
	.section	.rodata.str1.1,"aMS",%progbits,1
.L.str.11:
	.asciz	"semaphore"
	.size	.L.str.11, 10

	.type	.L.str.12,%object               @ @.str.12
.L.str.12:
	.asciz	"%-*.s v   suspend thread\n"
	.size	.L.str.12, 26

	.type	.L.str.13,%object               @ @.str.13
.L.str.13:
	.asciz	" --- --------------\n"
	.size	.L.str.13, 21

	.type	.L.str.14,%object               @ @.str.14
.L.str.14:
	.asciz	"%-*.*s %03d %d:"
	.size	.L.str.14, 16

	.type	.L.str.15,%object               @ @.str.15
.L.str.15:
	.asciz	"\n"
	.size	.L.str.15, 2

	.type	.L.str.16,%object               @ @.str.16
.L.str.16:
	.asciz	"%-*.*s %03d %d\n"
	.size	.L.str.16, 16

	.hidden	__fsym_list_sem_name            @ @__fsym_list_sem_name
	.type	__fsym_list_sem_name,%object
	.section	.rodata.name,"a",%progbits
	.globl	__fsym_list_sem_name
__fsym_list_sem_name:
	.asciz	"list_sem"
	.size	__fsym_list_sem_name, 9

	.hidden	__fsym_list_sem_desc            @ @__fsym_list_sem_desc
	.type	__fsym_list_sem_desc,%object
	.globl	__fsym_list_sem_desc
__fsym_list_sem_desc:
	.asciz	"list semaphore in system"
	.size	__fsym_list_sem_desc, 25

	.hidden	__fsym_list_sem                 @ @__fsym_list_sem
	.type	__fsym_list_sem,%object
	.section	FSymTab,"a",%progbits
	.globl	__fsym_list_sem
	.p2align	2
__fsym_list_sem:
__tagsym$$used.7:
	.long	__fsym_list_sem_name
	.long	__fsym_list_sem_desc
	.long	list_sem
	.size	__fsym_list_sem, 12

	.hidden	__fsym___cmd_list_sem_name      @ @__fsym___cmd_list_sem_name
	.type	__fsym___cmd_list_sem_name,%object
	.section	.rodata.name,"a",%progbits
	.globl	__fsym___cmd_list_sem_name
__fsym___cmd_list_sem_name:
	.asciz	"__cmd_list_sem"
	.size	__fsym___cmd_list_sem_name, 15

	.hidden	__fsym___cmd_list_sem_desc      @ @__fsym___cmd_list_sem_desc
	.type	__fsym___cmd_list_sem_desc,%object
	.globl	__fsym___cmd_list_sem_desc
__fsym___cmd_list_sem_desc:
	.asciz	"list semaphore in system"
	.size	__fsym___cmd_list_sem_desc, 25

	.hidden	__fsym___cmd_list_sem           @ @__fsym___cmd_list_sem
	.type	__fsym___cmd_list_sem,%object
	.section	FSymTab,"a",%progbits
	.globl	__fsym___cmd_list_sem
	.p2align	2
__fsym___cmd_list_sem:
__tagsym$$used.8:
	.long	__fsym___cmd_list_sem_name
	.long	__fsym___cmd_list_sem_desc
	.long	list_sem
	.size	__fsym___cmd_list_sem, 12

	.type	.L.str.17,%object               @ @.str.17
	.section	.rodata.str1.1,"aMS",%progbits,1
.L.str.17:
	.asciz	"event"
	.size	.L.str.17, 6

	.type	.L.str.18,%object               @ @.str.18
.L.str.18:
	.asciz	"%-*.s      set    suspend thread\n"
	.size	.L.str.18, 34

	.type	.L.str.19,%object               @ @.str.19
.L.str.19:
	.asciz	"  ---------- --------------\n"
	.size	.L.str.19, 29

	.type	.L.str.20,%object               @ @.str.20
.L.str.20:
	.asciz	"%-*.*s  0x%08x %03d:"
	.size	.L.str.20, 21

	.type	.L.str.21,%object               @ @.str.21
.L.str.21:
	.asciz	"%-*.*s  0x%08x 0\n"
	.size	.L.str.21, 18

	.hidden	__fsym_list_event_name          @ @__fsym_list_event_name
	.type	__fsym_list_event_name,%object
	.section	.rodata.name,"a",%progbits
	.globl	__fsym_list_event_name
__fsym_list_event_name:
	.asciz	"list_event"
	.size	__fsym_list_event_name, 11

	.hidden	__fsym_list_event_desc          @ @__fsym_list_event_desc
	.type	__fsym_list_event_desc,%object
	.globl	__fsym_list_event_desc
__fsym_list_event_desc:
	.asciz	"list event in system"
	.size	__fsym_list_event_desc, 21

	.hidden	__fsym_list_event               @ @__fsym_list_event
	.type	__fsym_list_event,%object
	.section	FSymTab,"a",%progbits
	.globl	__fsym_list_event
	.p2align	2
__fsym_list_event:
__tagsym$$used.9:
	.long	__fsym_list_event_name
	.long	__fsym_list_event_desc
	.long	list_event
	.size	__fsym_list_event, 12

	.hidden	__fsym___cmd_list_event_name    @ @__fsym___cmd_list_event_name
	.type	__fsym___cmd_list_event_name,%object
	.section	.rodata.name,"a",%progbits
	.globl	__fsym___cmd_list_event_name
__fsym___cmd_list_event_name:
	.asciz	"__cmd_list_event"
	.size	__fsym___cmd_list_event_name, 17

	.hidden	__fsym___cmd_list_event_desc    @ @__fsym___cmd_list_event_desc
	.type	__fsym___cmd_list_event_desc,%object
	.globl	__fsym___cmd_list_event_desc
__fsym___cmd_list_event_desc:
	.asciz	"list event in system"
	.size	__fsym___cmd_list_event_desc, 21

	.hidden	__fsym___cmd_list_event         @ @__fsym___cmd_list_event
	.type	__fsym___cmd_list_event,%object
	.section	FSymTab,"a",%progbits
	.globl	__fsym___cmd_list_event
	.p2align	2
__fsym___cmd_list_event:
__tagsym$$used.10:
	.long	__fsym___cmd_list_event_name
	.long	__fsym___cmd_list_event_desc
	.long	list_event
	.size	__fsym___cmd_list_event, 12

	.type	.L.str.22,%object               @ @.str.22
	.section	.rodata.str1.1,"aMS",%progbits,1
.L.str.22:
	.asciz	"mutex"
	.size	.L.str.22, 6

	.type	.L.str.23,%object               @ @.str.23
.L.str.23:
	.asciz	"%-*.s   owner  hold suspend thread\n"
	.size	.L.str.23, 36

	.type	.L.str.24,%object               @ @.str.24
.L.str.24:
	.asciz	" -------- ---- --------------\n"
	.size	.L.str.24, 31

	.type	.L.str.25,%object               @ @.str.25
.L.str.25:
	.asciz	"%-*.*s %-8.*s %04d %d\n"
	.size	.L.str.25, 23

	.hidden	__fsym_list_mutex_name          @ @__fsym_list_mutex_name
	.type	__fsym_list_mutex_name,%object
	.section	.rodata.name,"a",%progbits
	.globl	__fsym_list_mutex_name
__fsym_list_mutex_name:
	.asciz	"list_mutex"
	.size	__fsym_list_mutex_name, 11

	.hidden	__fsym_list_mutex_desc          @ @__fsym_list_mutex_desc
	.type	__fsym_list_mutex_desc,%object
	.globl	__fsym_list_mutex_desc
__fsym_list_mutex_desc:
	.asciz	"list mutex in system"
	.size	__fsym_list_mutex_desc, 21

	.hidden	__fsym_list_mutex               @ @__fsym_list_mutex
	.type	__fsym_list_mutex,%object
	.section	FSymTab,"a",%progbits
	.globl	__fsym_list_mutex
	.p2align	2
__fsym_list_mutex:
__tagsym$$used.11:
	.long	__fsym_list_mutex_name
	.long	__fsym_list_mutex_desc
	.long	list_mutex
	.size	__fsym_list_mutex, 12

	.hidden	__fsym___cmd_list_mutex_name    @ @__fsym___cmd_list_mutex_name
	.type	__fsym___cmd_list_mutex_name,%object
	.section	.rodata.name,"a",%progbits
	.globl	__fsym___cmd_list_mutex_name
__fsym___cmd_list_mutex_name:
	.asciz	"__cmd_list_mutex"
	.size	__fsym___cmd_list_mutex_name, 17

	.hidden	__fsym___cmd_list_mutex_desc    @ @__fsym___cmd_list_mutex_desc
	.type	__fsym___cmd_list_mutex_desc,%object
	.globl	__fsym___cmd_list_mutex_desc
__fsym___cmd_list_mutex_desc:
	.asciz	"list mutex in system"
	.size	__fsym___cmd_list_mutex_desc, 21

	.hidden	__fsym___cmd_list_mutex         @ @__fsym___cmd_list_mutex
	.type	__fsym___cmd_list_mutex,%object
	.section	FSymTab,"a",%progbits
	.globl	__fsym___cmd_list_mutex
	.p2align	2
__fsym___cmd_list_mutex:
__tagsym$$used.12:
	.long	__fsym___cmd_list_mutex_name
	.long	__fsym___cmd_list_mutex_desc
	.long	list_mutex
	.size	__fsym___cmd_list_mutex, 12

	.type	.L.str.26,%object               @ @.str.26
	.section	.rodata.str1.1,"aMS",%progbits,1
.L.str.26:
	.asciz	"mailbox"
	.size	.L.str.26, 8

	.type	.L.str.27,%object               @ @.str.27
.L.str.27:
	.asciz	"%-*.s entry size suspend thread\n"
	.size	.L.str.27, 33

	.type	.L.str.28,%object               @ @.str.28
.L.str.28:
	.asciz	" ----  ---- --------------\n"
	.size	.L.str.28, 28

	.type	.L.str.29,%object               @ @.str.29
.L.str.29:
	.asciz	"%-*.*s %04d  %04d %d:"
	.size	.L.str.29, 22

	.type	.L.str.30,%object               @ @.str.30
.L.str.30:
	.asciz	"%-*.*s %04d  %04d %d\n"
	.size	.L.str.30, 22

	.hidden	__fsym_list_mailbox_name        @ @__fsym_list_mailbox_name
	.type	__fsym_list_mailbox_name,%object
	.section	.rodata.name,"a",%progbits
	.globl	__fsym_list_mailbox_name
__fsym_list_mailbox_name:
	.asciz	"list_mailbox"
	.size	__fsym_list_mailbox_name, 13

	.hidden	__fsym_list_mailbox_desc        @ @__fsym_list_mailbox_desc
	.type	__fsym_list_mailbox_desc,%object
	.globl	__fsym_list_mailbox_desc
__fsym_list_mailbox_desc:
	.asciz	"list mail box in system"
	.size	__fsym_list_mailbox_desc, 24

	.hidden	__fsym_list_mailbox             @ @__fsym_list_mailbox
	.type	__fsym_list_mailbox,%object
	.section	FSymTab,"a",%progbits
	.globl	__fsym_list_mailbox
	.p2align	2
__fsym_list_mailbox:
__tagsym$$used.13:
	.long	__fsym_list_mailbox_name
	.long	__fsym_list_mailbox_desc
	.long	list_mailbox
	.size	__fsym_list_mailbox, 12

	.hidden	__fsym___cmd_list_mailbox_name  @ @__fsym___cmd_list_mailbox_name
	.type	__fsym___cmd_list_mailbox_name,%object
	.section	.rodata.name,"a",%progbits
	.globl	__fsym___cmd_list_mailbox_name
__fsym___cmd_list_mailbox_name:
	.asciz	"__cmd_list_mailbox"
	.size	__fsym___cmd_list_mailbox_name, 19

	.hidden	__fsym___cmd_list_mailbox_desc  @ @__fsym___cmd_list_mailbox_desc
	.type	__fsym___cmd_list_mailbox_desc,%object
	.globl	__fsym___cmd_list_mailbox_desc
__fsym___cmd_list_mailbox_desc:
	.asciz	"list mail box in system"
	.size	__fsym___cmd_list_mailbox_desc, 24

	.hidden	__fsym___cmd_list_mailbox       @ @__fsym___cmd_list_mailbox
	.type	__fsym___cmd_list_mailbox,%object
	.section	FSymTab,"a",%progbits
	.globl	__fsym___cmd_list_mailbox
	.p2align	2
__fsym___cmd_list_mailbox:
__tagsym$$used.14:
	.long	__fsym___cmd_list_mailbox_name
	.long	__fsym___cmd_list_mailbox_desc
	.long	list_mailbox
	.size	__fsym___cmd_list_mailbox, 12

	.type	.L.str.31,%object               @ @.str.31
	.section	.rodata.str1.1,"aMS",%progbits,1
.L.str.31:
	.asciz	"msgqueue"
	.size	.L.str.31, 9

	.type	.L.str.32,%object               @ @.str.32
.L.str.32:
	.asciz	"%-*.s entry suspend thread\n"
	.size	.L.str.32, 28

	.type	.L.str.33,%object               @ @.str.33
.L.str.33:
	.asciz	" ----  --------------\n"
	.size	.L.str.33, 23

	.type	.L.str.34,%object               @ @.str.34
.L.str.34:
	.asciz	"%-*.*s %04d  %d:"
	.size	.L.str.34, 17

	.type	.L.str.35,%object               @ @.str.35
.L.str.35:
	.asciz	"%-*.*s %04d  %d\n"
	.size	.L.str.35, 17

	.hidden	__fsym_list_msgqueue_name       @ @__fsym_list_msgqueue_name
	.type	__fsym_list_msgqueue_name,%object
	.section	.rodata.name,"a",%progbits
	.globl	__fsym_list_msgqueue_name
__fsym_list_msgqueue_name:
	.asciz	"list_msgqueue"
	.size	__fsym_list_msgqueue_name, 14

	.hidden	__fsym_list_msgqueue_desc       @ @__fsym_list_msgqueue_desc
	.type	__fsym_list_msgqueue_desc,%object
	.globl	__fsym_list_msgqueue_desc
__fsym_list_msgqueue_desc:
	.asciz	"list message queue in system"
	.size	__fsym_list_msgqueue_desc, 29

	.hidden	__fsym_list_msgqueue            @ @__fsym_list_msgqueue
	.type	__fsym_list_msgqueue,%object
	.section	FSymTab,"a",%progbits
	.globl	__fsym_list_msgqueue
	.p2align	2
__fsym_list_msgqueue:
__tagsym$$used.15:
	.long	__fsym_list_msgqueue_name
	.long	__fsym_list_msgqueue_desc
	.long	list_msgqueue
	.size	__fsym_list_msgqueue, 12

	.hidden	__fsym___cmd_list_msgqueue_name @ @__fsym___cmd_list_msgqueue_name
	.type	__fsym___cmd_list_msgqueue_name,%object
	.section	.rodata.name,"a",%progbits
	.globl	__fsym___cmd_list_msgqueue_name
__fsym___cmd_list_msgqueue_name:
	.asciz	"__cmd_list_msgqueue"
	.size	__fsym___cmd_list_msgqueue_name, 20

	.hidden	__fsym___cmd_list_msgqueue_desc @ @__fsym___cmd_list_msgqueue_desc
	.type	__fsym___cmd_list_msgqueue_desc,%object
	.globl	__fsym___cmd_list_msgqueue_desc
__fsym___cmd_list_msgqueue_desc:
	.asciz	"list message queue in system"
	.size	__fsym___cmd_list_msgqueue_desc, 29

	.hidden	__fsym___cmd_list_msgqueue      @ @__fsym___cmd_list_msgqueue
	.type	__fsym___cmd_list_msgqueue,%object
	.section	FSymTab,"a",%progbits
	.globl	__fsym___cmd_list_msgqueue
	.p2align	2
__fsym___cmd_list_msgqueue:
__tagsym$$used.16:
	.long	__fsym___cmd_list_msgqueue_name
	.long	__fsym___cmd_list_msgqueue_desc
	.long	list_msgqueue
	.size	__fsym___cmd_list_msgqueue, 12

	.type	.L.str.36,%object               @ @.str.36
	.section	.rodata.str1.1,"aMS",%progbits,1
.L.str.36:
	.asciz	"memheap"
	.size	.L.str.36, 8

	.type	.L.str.37,%object               @ @.str.37
.L.str.37:
	.asciz	"%-*.s  pool size  max used size available size\n"
	.size	.L.str.37, 48

	.type	.L.str.38,%object               @ @.str.38
.L.str.38:
	.asciz	" ---------- ------------- --------------\n"
	.size	.L.str.38, 42

	.type	.L.str.39,%object               @ @.str.39
.L.str.39:
	.asciz	"%-*.*s %-010d %-013d %-05d\n"
	.size	.L.str.39, 28

	.hidden	__fsym_list_memheap_name        @ @__fsym_list_memheap_name
	.type	__fsym_list_memheap_name,%object
	.section	.rodata.name,"a",%progbits
	.globl	__fsym_list_memheap_name
__fsym_list_memheap_name:
	.asciz	"list_memheap"
	.size	__fsym_list_memheap_name, 13

	.hidden	__fsym_list_memheap_desc        @ @__fsym_list_memheap_desc
	.type	__fsym_list_memheap_desc,%object
	.globl	__fsym_list_memheap_desc
__fsym_list_memheap_desc:
	.asciz	"list memory heap in system"
	.size	__fsym_list_memheap_desc, 27

	.hidden	__fsym_list_memheap             @ @__fsym_list_memheap
	.type	__fsym_list_memheap,%object
	.section	FSymTab,"a",%progbits
	.globl	__fsym_list_memheap
	.p2align	2
__fsym_list_memheap:
__tagsym$$used.17:
	.long	__fsym_list_memheap_name
	.long	__fsym_list_memheap_desc
	.long	list_memheap
	.size	__fsym_list_memheap, 12

	.hidden	__fsym___cmd_list_memheap_name  @ @__fsym___cmd_list_memheap_name
	.type	__fsym___cmd_list_memheap_name,%object
	.section	.rodata.name,"a",%progbits
	.globl	__fsym___cmd_list_memheap_name
__fsym___cmd_list_memheap_name:
	.asciz	"__cmd_list_memheap"
	.size	__fsym___cmd_list_memheap_name, 19

	.hidden	__fsym___cmd_list_memheap_desc  @ @__fsym___cmd_list_memheap_desc
	.type	__fsym___cmd_list_memheap_desc,%object
	.globl	__fsym___cmd_list_memheap_desc
__fsym___cmd_list_memheap_desc:
	.asciz	"list memory heap in system"
	.size	__fsym___cmd_list_memheap_desc, 27

	.hidden	__fsym___cmd_list_memheap       @ @__fsym___cmd_list_memheap
	.type	__fsym___cmd_list_memheap,%object
	.section	FSymTab,"a",%progbits
	.globl	__fsym___cmd_list_memheap
	.p2align	2
__fsym___cmd_list_memheap:
__tagsym$$used.18:
	.long	__fsym___cmd_list_memheap_name
	.long	__fsym___cmd_list_memheap_desc
	.long	list_memheap
	.size	__fsym___cmd_list_memheap, 12

	.type	.L.str.40,%object               @ @.str.40
	.section	.rodata.str1.1,"aMS",%progbits,1
.L.str.40:
	.asciz	"mempool"
	.size	.L.str.40, 8

	.type	.L.str.41,%object               @ @.str.41
.L.str.41:
	.asciz	"%-*.s block total free suspend thread\n"
	.size	.L.str.41, 39

	.type	.L.str.42,%object               @ @.str.42
.L.str.42:
	.asciz	" ----  ----  ---- --------------\n"
	.size	.L.str.42, 34

	.type	.L.str.43,%object               @ @.str.43
.L.str.43:
	.asciz	"%-*.*s %04d  %04d  %04d %d:"
	.size	.L.str.43, 28

	.type	.L.str.44,%object               @ @.str.44
.L.str.44:
	.asciz	"%-*.*s %04d  %04d  %04d %d\n"
	.size	.L.str.44, 28

	.hidden	__fsym_list_mempool_name        @ @__fsym_list_mempool_name
	.type	__fsym_list_mempool_name,%object
	.section	.rodata.name,"a",%progbits
	.globl	__fsym_list_mempool_name
__fsym_list_mempool_name:
	.asciz	"list_mempool"
	.size	__fsym_list_mempool_name, 13

	.hidden	__fsym_list_mempool_desc        @ @__fsym_list_mempool_desc
	.type	__fsym_list_mempool_desc,%object
	.globl	__fsym_list_mempool_desc
__fsym_list_mempool_desc:
	.asciz	"list memory pool in system"
	.size	__fsym_list_mempool_desc, 27

	.hidden	__fsym_list_mempool             @ @__fsym_list_mempool
	.type	__fsym_list_mempool,%object
	.section	FSymTab,"a",%progbits
	.globl	__fsym_list_mempool
	.p2align	2
__fsym_list_mempool:
__tagsym$$used.19:
	.long	__fsym_list_mempool_name
	.long	__fsym_list_mempool_desc
	.long	list_mempool
	.size	__fsym_list_mempool, 12

	.hidden	__fsym___cmd_list_mempool_name  @ @__fsym___cmd_list_mempool_name
	.type	__fsym___cmd_list_mempool_name,%object
	.section	.rodata.name,"a",%progbits
	.globl	__fsym___cmd_list_mempool_name
__fsym___cmd_list_mempool_name:
	.asciz	"__cmd_list_mempool"
	.size	__fsym___cmd_list_mempool_name, 19

	.hidden	__fsym___cmd_list_mempool_desc  @ @__fsym___cmd_list_mempool_desc
	.type	__fsym___cmd_list_mempool_desc,%object
	.globl	__fsym___cmd_list_mempool_desc
__fsym___cmd_list_mempool_desc:
	.asciz	"list memory pool in system"
	.size	__fsym___cmd_list_mempool_desc, 27

	.hidden	__fsym___cmd_list_mempool       @ @__fsym___cmd_list_mempool
	.type	__fsym___cmd_list_mempool,%object
	.section	FSymTab,"a",%progbits
	.globl	__fsym___cmd_list_mempool
	.p2align	2
__fsym___cmd_list_mempool:
__tagsym$$used.20:
	.long	__fsym___cmd_list_mempool_name
	.long	__fsym___cmd_list_mempool_desc
	.long	list_mempool
	.size	__fsym___cmd_list_mempool, 12

	.type	.L.str.45,%object               @ @.str.45
	.section	.rodata.str1.1,"aMS",%progbits,1
.L.str.45:
	.asciz	"timer"
	.size	.L.str.45, 6

	.type	.L.str.46,%object               @ @.str.46
.L.str.46:
	.asciz	"%-*.s  periodic   timeout       flag\n"
	.size	.L.str.46, 38

	.type	.L.str.47,%object               @ @.str.47
.L.str.47:
	.asciz	" ---------- ---------- -----------\n"
	.size	.L.str.47, 36

	.type	.L.str.48,%object               @ @.str.48
.L.str.48:
	.asciz	"%-*.*s 0x%08x 0x%08x "
	.size	.L.str.48, 22

	.type	.L.str.49,%object               @ @.str.49
.L.str.49:
	.asciz	"activated\n"
	.size	.L.str.49, 11

	.type	.L.str.50,%object               @ @.str.50
.L.str.50:
	.asciz	"deactivated\n"
	.size	.L.str.50, 13

	.type	.L.str.51,%object               @ @.str.51
.L.str.51:
	.asciz	"current tick:0x%08x\n"
	.size	.L.str.51, 21

	.hidden	__fsym_list_timer_name          @ @__fsym_list_timer_name
	.type	__fsym_list_timer_name,%object
	.section	.rodata.name,"a",%progbits
	.globl	__fsym_list_timer_name
__fsym_list_timer_name:
	.asciz	"list_timer"
	.size	__fsym_list_timer_name, 11

	.hidden	__fsym_list_timer_desc          @ @__fsym_list_timer_desc
	.type	__fsym_list_timer_desc,%object
	.globl	__fsym_list_timer_desc
__fsym_list_timer_desc:
	.asciz	"list timer in system"
	.size	__fsym_list_timer_desc, 21

	.hidden	__fsym_list_timer               @ @__fsym_list_timer
	.type	__fsym_list_timer,%object
	.section	FSymTab,"a",%progbits
	.globl	__fsym_list_timer
	.p2align	2
__fsym_list_timer:
__tagsym$$used.21:
	.long	__fsym_list_timer_name
	.long	__fsym_list_timer_desc
	.long	list_timer
	.size	__fsym_list_timer, 12

	.hidden	__fsym___cmd_list_timer_name    @ @__fsym___cmd_list_timer_name
	.type	__fsym___cmd_list_timer_name,%object
	.section	.rodata.name,"a",%progbits
	.globl	__fsym___cmd_list_timer_name
__fsym___cmd_list_timer_name:
	.asciz	"__cmd_list_timer"
	.size	__fsym___cmd_list_timer_name, 17

	.hidden	__fsym___cmd_list_timer_desc    @ @__fsym___cmd_list_timer_desc
	.type	__fsym___cmd_list_timer_desc,%object
	.globl	__fsym___cmd_list_timer_desc
__fsym___cmd_list_timer_desc:
	.asciz	"list timer in system"
	.size	__fsym___cmd_list_timer_desc, 21

	.hidden	__fsym___cmd_list_timer         @ @__fsym___cmd_list_timer
	.type	__fsym___cmd_list_timer,%object
	.section	FSymTab,"a",%progbits
	.globl	__fsym___cmd_list_timer
	.p2align	2
__fsym___cmd_list_timer:
__tagsym$$used.22:
	.long	__fsym___cmd_list_timer_name
	.long	__fsym___cmd_list_timer_desc
	.long	list_timer
	.size	__fsym___cmd_list_timer, 12

	.type	.L.str.52,%object               @ @.str.52
	.section	.rodata.str1.1,"aMS",%progbits,1
.L.str.52:
	.asciz	"device"
	.size	.L.str.52, 7

	.type	.L.str.53,%object               @ @.str.53
.L.str.53:
	.asciz	"%-*.s         type         ref count\n"
	.size	.L.str.53, 38

	.type	.L.str.54,%object               @ @.str.54
.L.str.54:
	.asciz	" -------------------- ----------\n"
	.size	.L.str.54, 34

	.type	.L.str.55,%object               @ @.str.55
.L.str.55:
	.asciz	"%-*.*s %-20s %-8d\n"
	.size	.L.str.55, 19

	.type	device_type_str,%object         @ @device_type_str
	.section	.rodata.device_type_str,"a",%progbits
	.p2align	2
device_type_str:
	.long	.L.str.68
	.long	.L.str.69
	.long	.L.str.70
	.long	.L.str.71
	.long	.L.str.72
	.long	.L.str.73
	.long	.L.str.74
	.long	.L.str.75
	.long	.L.str.76
	.long	.L.str.77
	.long	.L.str.78
	.long	.L.str.79
	.long	.L.str.80
	.long	.L.str.81
	.long	.L.str.82
	.long	.L.str.83
	.long	.L.str.84
	.long	.L.str.85
	.long	.L.str.86
	.long	.L.str.87
	.long	.L.str.88
	.long	.L.str.89
	.size	device_type_str, 88

	.hidden	__fsym_list_device_name         @ @__fsym_list_device_name
	.type	__fsym_list_device_name,%object
	.section	.rodata.name,"a",%progbits
	.globl	__fsym_list_device_name
__fsym_list_device_name:
	.asciz	"list_device"
	.size	__fsym_list_device_name, 12

	.hidden	__fsym_list_device_desc         @ @__fsym_list_device_desc
	.type	__fsym_list_device_desc,%object
	.globl	__fsym_list_device_desc
__fsym_list_device_desc:
	.asciz	"list device in system"
	.size	__fsym_list_device_desc, 22

	.hidden	__fsym_list_device              @ @__fsym_list_device
	.type	__fsym_list_device,%object
	.section	FSymTab,"a",%progbits
	.globl	__fsym_list_device
	.p2align	2
__fsym_list_device:
__tagsym$$used.23:
	.long	__fsym_list_device_name
	.long	__fsym_list_device_desc
	.long	list_device
	.size	__fsym_list_device, 12

	.hidden	__fsym___cmd_list_device_name   @ @__fsym___cmd_list_device_name
	.type	__fsym___cmd_list_device_name,%object
	.section	.rodata.name,"a",%progbits
	.globl	__fsym___cmd_list_device_name
__fsym___cmd_list_device_name:
	.asciz	"__cmd_list_device"
	.size	__fsym___cmd_list_device_name, 18

	.hidden	__fsym___cmd_list_device_desc   @ @__fsym___cmd_list_device_desc
	.type	__fsym___cmd_list_device_desc,%object
	.globl	__fsym___cmd_list_device_desc
__fsym___cmd_list_device_desc:
	.asciz	"list device in system"
	.size	__fsym___cmd_list_device_desc, 22

	.hidden	__fsym___cmd_list_device        @ @__fsym___cmd_list_device
	.type	__fsym___cmd_list_device,%object
	.section	FSymTab,"a",%progbits
	.globl	__fsym___cmd_list_device
	.p2align	2
__fsym___cmd_list_device:
__tagsym$$used.24:
	.long	__fsym___cmd_list_device_name
	.long	__fsym___cmd_list_device_desc
	.long	list_device
	.size	__fsym___cmd_list_device, 12

	.type	.L.str.56,%object               @ @.str.56
	.section	.rodata.str1.1,"aMS",%progbits,1
.L.str.56:
	.asciz	"--Function List:\n"
	.size	.L.str.56, 18

	.type	.L.str.57,%object               @ @.str.57
.L.str.57:
	.asciz	"__"
	.size	.L.str.57, 3

	.type	.L.str.58,%object               @ @.str.58
.L.str.58:
	.asciz	"%-16s -- %s\n"
	.size	.L.str.58, 13

	.type	.L.str.59,%object               @ @.str.59
.L.str.59:
	.asciz	"[l] %s\n"
	.size	.L.str.59, 8

	.type	.L.str.60,%object               @ @.str.60
.L.str.60:
	.asciz	"--Variable List:\n"
	.size	.L.str.60, 18

	.hidden	__fsym_list_name                @ @__fsym_list_name
	.type	__fsym_list_name,%object
	.section	.rodata.name,"a",%progbits
	.globl	__fsym_list_name
__fsym_list_name:
	.asciz	"list"
	.size	__fsym_list_name, 5

	.hidden	__fsym_list_desc                @ @__fsym_list_desc
	.type	__fsym_list_desc,%object
	.globl	__fsym_list_desc
__fsym_list_desc:
	.asciz	"list all symbol in system"
	.size	__fsym_list_desc, 26

	.hidden	__fsym_list                     @ @__fsym_list
	.type	__fsym_list,%object
	.section	FSymTab,"a",%progbits
	.globl	__fsym_list
	.p2align	2
__fsym_list:
__tagsym$$used.25:
	.long	__fsym_list_name
	.long	__fsym_list_desc
	.long	list
	.size	__fsym_list, 12

	.type	.L.str.61,%object               @ @.str.61
	.section	.rodata.str1.1,"aMS",%progbits,1
.L.str.61:
	.asciz	"--function:\n"
	.size	.L.str.61, 13

	.type	.L.str.62,%object               @ @.str.62
.L.str.62:
	.asciz	"--variable:\n"
	.size	.L.str.62, 13

	.type	.L.str.63,%object               @ @.str.63
.L.str.63:
	.asciz	"[v] %s\n"
	.size	.L.str.63, 8

	.hidden	__vsym_dummy_name               @ @__vsym_dummy_name
	.type	__vsym_dummy_name,%object
	.section	.rodata.name,"a",%progbits
	.globl	__vsym_dummy_name
__vsym_dummy_name:
	.asciz	"dummy"
	.size	__vsym_dummy_name, 6

	.hidden	__vsym_dummy_desc               @ @__vsym_dummy_desc
	.type	__vsym_dummy_desc,%object
	.globl	__vsym_dummy_desc
__vsym_dummy_desc:
	.asciz	"dummy variable for finsh"
	.size	__vsym_dummy_desc, 25

	.type	dummy,%object                   @ @dummy
	.section	.bss.dummy,"aw",%nobits
	.p2align	2
dummy:
	.long	0                               @ 0x0
	.size	dummy, 4

	.hidden	__vsym_dummy                    @ @__vsym_dummy
	.type	__vsym_dummy,%object
	.section	VSymTab,"a",%progbits
	.globl	__vsym_dummy
	.p2align	2
__vsym_dummy:
__tagsym$$used.26:
	.long	__vsym_dummy_name
	.long	__vsym_dummy_desc
	.byte	9                               @ 0x9
	.zero	3
	.long	dummy
	.size	__vsym_dummy, 16

	.type	.L.str.64,%object               @ @.str.64
	.section	.rodata.str1.1,"aMS",%progbits,1
.L.str.64:
	.asciz	"\033[2J\033[H"
	.size	.L.str.64, 8

	.type	.L.str.65,%object               @ @.str.65
.L.str.65:
	.asciz	"-"
	.size	.L.str.65, 2

	.type	.L.str.66,%object               @ @.str.66
.L.str.66:
	.asciz	"%s"
	.size	.L.str.66, 3

	.type	.L.str.67,%object               @ @.str.67
.L.str.67:
	.asciz	"/"
	.size	.L.str.67, 2

	.type	.L.str.68,%object               @ @.str.68
.L.str.68:
	.asciz	"Character Device"
	.size	.L.str.68, 17

	.type	.L.str.69,%object               @ @.str.69
.L.str.69:
	.asciz	"Block Device"
	.size	.L.str.69, 13

	.type	.L.str.70,%object               @ @.str.70
.L.str.70:
	.asciz	"Network Interface"
	.size	.L.str.70, 18

	.type	.L.str.71,%object               @ @.str.71
.L.str.71:
	.asciz	"MTD Device"
	.size	.L.str.71, 11

	.type	.L.str.72,%object               @ @.str.72
.L.str.72:
	.asciz	"CAN Device"
	.size	.L.str.72, 11

	.type	.L.str.73,%object               @ @.str.73
.L.str.73:
	.asciz	"RTC"
	.size	.L.str.73, 4

	.type	.L.str.74,%object               @ @.str.74
.L.str.74:
	.asciz	"Sound Device"
	.size	.L.str.74, 13

	.type	.L.str.75,%object               @ @.str.75
.L.str.75:
	.asciz	"Graphic Device"
	.size	.L.str.75, 15

	.type	.L.str.76,%object               @ @.str.76
.L.str.76:
	.asciz	"I2C Bus"
	.size	.L.str.76, 8

	.type	.L.str.77,%object               @ @.str.77
.L.str.77:
	.asciz	"USB Slave Device"
	.size	.L.str.77, 17

	.type	.L.str.78,%object               @ @.str.78
.L.str.78:
	.asciz	"USB Host Bus"
	.size	.L.str.78, 13

	.type	.L.str.79,%object               @ @.str.79
.L.str.79:
	.asciz	"SPI Bus"
	.size	.L.str.79, 8

	.type	.L.str.80,%object               @ @.str.80
.L.str.80:
	.asciz	"SPI Device"
	.size	.L.str.80, 11

	.type	.L.str.81,%object               @ @.str.81
.L.str.81:
	.asciz	"SDIO Bus"
	.size	.L.str.81, 9

	.type	.L.str.82,%object               @ @.str.82
.L.str.82:
	.asciz	"PM Pseudo Device"
	.size	.L.str.82, 17

	.type	.L.str.83,%object               @ @.str.83
.L.str.83:
	.asciz	"Pipe"
	.size	.L.str.83, 5

	.type	.L.str.84,%object               @ @.str.84
.L.str.84:
	.asciz	"Portal Device"
	.size	.L.str.84, 14

	.type	.L.str.85,%object               @ @.str.85
.L.str.85:
	.asciz	"Timer Device"
	.size	.L.str.85, 13

	.type	.L.str.86,%object               @ @.str.86
.L.str.86:
	.asciz	"Miscellaneous Device"
	.size	.L.str.86, 21

	.type	.L.str.87,%object               @ @.str.87
.L.str.87:
	.asciz	"Sensor Device"
	.size	.L.str.87, 14

	.type	.L.str.88,%object               @ @.str.88
.L.str.88:
	.asciz	"Touch Device"
	.size	.L.str.88, 13

	.type	.L.str.89,%object               @ @.str.89
.L.str.89:
	.asciz	"Unknown"
	.size	.L.str.89, 8

	.globl	__fsym_hello
	.globl	__fsym_clear
	.globl	__fsym___cmd_clear
	.globl	__fsym_version
	.globl	__fsym___cmd_version
	.globl	__fsym_list_thread
	.globl	__fsym___cmd_list_thread
	.globl	__fsym_list_sem
	.globl	__fsym___cmd_list_sem
	.globl	__fsym_list_event
	.globl	__fsym___cmd_list_event
	.globl	__fsym_list_mutex
	.globl	__fsym___cmd_list_mutex
	.globl	__fsym_list_mailbox
	.globl	__fsym___cmd_list_mailbox
	.globl	__fsym_list_msgqueue
	.globl	__fsym___cmd_list_msgqueue
	.globl	__fsym_list_memheap
	.globl	__fsym___cmd_list_memheap
	.globl	__fsym_list_mempool
	.globl	__fsym___cmd_list_mempool
	.globl	__fsym_list_timer
	.globl	__fsym___cmd_list_timer
	.globl	__fsym_list_device
	.globl	__fsym___cmd_list_device
	.globl	__fsym_list
	.globl	__vsym_dummy
	.section	".note.GNU-stack","",%progbits
	.eabi_attribute	30, 6	@ Tag_ABI_optimization_goals
	.ARM_attribute	16, 1	@ Tag_AV_eba