	.text
	.syntax unified
	.eabi_attribute	67, "2.09"	@ Tag_conformance
	.cpu	cortex-m7
	.eabi_attribute	6, 13	@ Tag_CPU_arch
	.eabi_attribute	7, 77	@ Tag_CPU_arch_profile
	.eabi_attribute	8, 0	@ Tag_ARM_ISA_use
	.eabi_attribute	9, 2	@ Tag_THUMB_ISA_use
	.fpu	fpv5-d16
	.eabi_attribute	36, 1	@ Tag_FP_HP_extension
	.eabi_attribute	34, 1	@ Tag_CPU_unaligned_access
	.eabi_attribute	17, 1	@ Tag_ABI_PCS_GOT_use
	.eabi_attribute	20, 2	@ Tag_ABI_FP_denormal
	.eabi_attribute	21, 0	@ Tag_ABI_FP_exceptions
	.eabi_attribute	23, 1	@ Tag_ABI_FP_number_model
	.eabi_attribute	24, 1	@ Tag_ABI_align_needed
	.eabi_attribute	25, 1	@ Tag_ABI_align_preserved
	.eabi_attribute	28, 1	@ Tag_ABI_VFP_args
	.eabi_attribute	38, 1	@ Tag_ABI_FP_16bit_format
	.eabi_attribute	18, 2	@ Tag_ABI_PCS_wchar_t
	.eabi_attribute	26, 1	@ Tag_ABI_enum_size
	.eabi_attribute	14, 0	@ Tag_ABI_PCS_R9_use
	.file	"completion.c"
	.file	1 "E:\\STM32\\Learning\\STM32H750_ART_PI_RGBLCD" "rt-thread/include\\rtdef.h"
	.section	.text.rt_completion_init,"ax",%progbits
	.hidden	rt_completion_init              @ -- Begin function rt_completion_init
	.globl	rt_completion_init
	.p2align	3
	.type	rt_completion_init,%function
	.code	16                              @ @rt_completion_init
	.thumb_func
rt_completion_init:
.Lfunc_begin0:
	.file	2 "E:\\STM32\\Learning\\STM32H750_ART_PI_RGBLCD" "rt-thread/components/drivers/src/completion.c"
	.loc	2 19 0                          @ rt-thread/components/drivers/src/completion.c:19:0
	.fnstart
	.cfi_sections .debug_frame
	.cfi_startproc
@ %bb.0:
	.save	{r7, lr}
	push	{r7, lr}
	.cfi_def_cfa_offset 8
	.cfi_offset lr, -4
	.cfi_offset r7, -8
	.pad	#8
	sub	sp, #8
	.cfi_def_cfa_offset 16
	str	r0, [sp, #4]
.Ltmp0:
	.loc	2 21 5 prologue_end             @ rt-thread/components/drivers/src/completion.c:21:5
	ldr	r0, [sp, #4]
.Ltmp1:
	.loc	2 21 5 is_stmt 0                @ rt-thread/components/drivers/src/completion.c:21:5
	cbnz	r0, .LBB0_2
	b	.LBB0_1
.LBB0_1:
.Ltmp2:
	.loc	2 21 5                          @ rt-thread/components/drivers/src/completion.c:21:5
	movw	r0, :lower16:.L.str
	movt	r0, :upper16:.L.str
	movw	r1, :lower16:.L__FUNCTION__.rt_completion_init
	movt	r1, :upper16:.L__FUNCTION__.rt_completion_init
	movs	r2, #21
	bl	rt_assert_handler
	b	.LBB0_2
.Ltmp3:
.LBB0_2:
	.loc	2 23 13 is_stmt 1               @ rt-thread/components/drivers/src/completion.c:23:13
	bl	rt_hw_interrupt_disable
	.loc	2 23 11 is_stmt 0               @ rt-thread/components/drivers/src/completion.c:23:11
	str	r0, [sp]
	.loc	2 24 5 is_stmt 1                @ rt-thread/components/drivers/src/completion.c:24:5
	ldr	r1, [sp, #4]
	movs	r0, #0
	.loc	2 24 22 is_stmt 0               @ rt-thread/components/drivers/src/completion.c:24:22
	str	r0, [r1]
	.loc	2 25 19 is_stmt 1               @ rt-thread/components/drivers/src/completion.c:25:19
	ldr	r0, [sp, #4]
	.loc	2 25 31 is_stmt 0               @ rt-thread/components/drivers/src/completion.c:25:31
	adds	r0, #4
	.loc	2 25 5                          @ rt-thread/components/drivers/src/completion.c:25:5
	bl	rt_list_init
	.loc	2 26 28 is_stmt 1               @ rt-thread/components/drivers/src/completion.c:26:28
	ldr	r0, [sp]
	.loc	2 26 5 is_stmt 0                @ rt-thread/components/drivers/src/completion.c:26:5
	bl	rt_hw_interrupt_enable
	.loc	2 27 1 is_stmt 1                @ rt-thread/components/drivers/src/completion.c:27:1
	add	sp, #8
	pop	{r7, pc}
.Ltmp4:
.Lfunc_end0:
	.size	rt_completion_init, .Lfunc_end0-rt_completion_init
	.cfi_endproc
	.cantunwind
	.fnend
                                        @ -- End function
	.section	.text.rt_list_init,"ax",%progbits
	.p2align	3                               @ -- Begin function rt_list_init
	.type	rt_list_init,%function
	.code	16                              @ @rt_list_init
	.thumb_func
rt_list_init:
.Lfunc_begin1:
	.file	3 "E:\\STM32\\Learning\\STM32H750_ART_PI_RGBLCD" "rt-thread/include\\rtservice.h"
	.loc	3 48 0                          @ rt-thread/include\rtservice.h:48:0
	.fnstart
	.cfi_startproc
@ %bb.0:
	.pad	#4
	sub	sp, #4
	.cfi_def_cfa_offset 4
	str	r0, [sp]
.Ltmp5:
	.loc	3 49 25 prologue_end            @ rt-thread/include\rtservice.h:49:25
	ldr	r0, [sp]
	.loc	3 49 23 is_stmt 0               @ rt-thread/include\rtservice.h:49:23
	str	r0, [r0, #4]
	.loc	3 49 5                          @ rt-thread/include\rtservice.h:49:5
	ldr	r1, [sp]
	.loc	3 49 13                         @ rt-thread/include\rtservice.h:49:13
	str	r0, [r1]
	.loc	3 50 1 is_stmt 1                @ rt-thread/include\rtservice.h:50:1
	add	sp, #4
	bx	lr
.Ltmp6:
.Lfunc_end1:
	.size	rt_list_init, .Lfunc_end1-rt_list_init
	.cfi_endproc
	.cantunwind
	.fnend
                                        @ -- End function
	.section	.text.rt_completion_wait,"ax",%progbits
	.hidden	rt_completion_wait              @ -- Begin function rt_completion_wait
	.globl	rt_completion_wait
	.p2align	3
	.type	rt_completion_wait,%function
	.code	16                              @ @rt_completion_wait
	.thumb_func
rt_completion_wait:
.Lfunc_begin2:
	.loc	2 32 0                          @ rt-thread/components/drivers/src/completion.c:32:0
	.fnstart
	.cfi_startproc
@ %bb.0:
	.save	{r7, lr}
	push	{r7, lr}
	.cfi_def_cfa_offset 8
	.cfi_offset lr, -4
	.cfi_offset r7, -8
	.pad	#24
	sub	sp, #24
	.cfi_def_cfa_offset 32
	str	r0, [sp, #20]
	str	r1, [sp, #16]
.Ltmp7:
	.loc	2 36 5 prologue_end             @ rt-thread/components/drivers/src/completion.c:36:5
	ldr	r0, [sp, #20]
.Ltmp8:
	.loc	2 36 5 is_stmt 0                @ rt-thread/components/drivers/src/completion.c:36:5
	cbnz	r0, .LBB2_2
	b	.LBB2_1
.LBB2_1:
.Ltmp9:
	.loc	2 36 5                          @ rt-thread/components/drivers/src/completion.c:36:5
	movw	r0, :lower16:.L.str
	movt	r0, :upper16:.L.str
	movw	r1, :lower16:.L__FUNCTION__.rt_completion_wait
	movt	r1, :upper16:.L__FUNCTION__.rt_completion_wait
	movs	r2, #36
	bl	rt_assert_handler
	b	.LBB2_2
.Ltmp10:
.LBB2_2:
	.loc	2 0 5                           @ rt-thread/components/drivers/src/completion.c:0:5
	movs	r0, #0
	.loc	2 38 12 is_stmt 1               @ rt-thread/components/drivers/src/completion.c:38:12
	str	r0, [sp, #12]
	.loc	2 39 14                         @ rt-thread/components/drivers/src/completion.c:39:14
	bl	rt_thread_self
	.loc	2 39 12 is_stmt 0               @ rt-thread/components/drivers/src/completion.c:39:12
	str	r0, [sp, #4]
	.loc	2 41 13 is_stmt 1               @ rt-thread/components/drivers/src/completion.c:41:13
	bl	rt_hw_interrupt_disable
	.loc	2 41 11 is_stmt 0               @ rt-thread/components/drivers/src/completion.c:41:11
	str	r0, [sp, #8]
.Ltmp11:
	.loc	2 42 9 is_stmt 1                @ rt-thread/components/drivers/src/completion.c:42:9
	ldr	r0, [sp, #20]
	.loc	2 42 21 is_stmt 0               @ rt-thread/components/drivers/src/completion.c:42:21
	ldr	r0, [r0]
.Ltmp12:
	.loc	2 42 9                          @ rt-thread/components/drivers/src/completion.c:42:9
	cmp	r0, #1
	beq	.LBB2_15
	b	.LBB2_3
.LBB2_3:
.Ltmp13:
	.loc	2 45 9 is_stmt 1                @ rt-thread/components/drivers/src/completion.c:45:9
	ldr	r0, [sp, #20]
	adds	r0, #4
	bl	rt_list_isempty
.Ltmp14:
	.loc	2 45 9 is_stmt 0                @ rt-thread/components/drivers/src/completion.c:45:9
	cbnz	r0, .LBB2_5
	b	.LBB2_4
.LBB2_4:
.Ltmp15:
	.loc	2 45 9                          @ rt-thread/components/drivers/src/completion.c:45:9
	movw	r0, :lower16:.L.str.1
	movt	r0, :upper16:.L.str.1
	movw	r1, :lower16:.L__FUNCTION__.rt_completion_wait
	movt	r1, :upper16:.L__FUNCTION__.rt_completion_wait
	movs	r2, #45
	bl	rt_assert_handler
	b	.LBB2_5
.Ltmp16:
.LBB2_5:
	.loc	2 47 13 is_stmt 1               @ rt-thread/components/drivers/src/completion.c:47:13
	ldr	r0, [sp, #16]
.Ltmp17:
	.loc	2 47 13 is_stmt 0               @ rt-thread/components/drivers/src/completion.c:47:13
	cbnz	r0, .LBB2_7
	b	.LBB2_6
.LBB2_6:
	.loc	2 0 13                          @ rt-thread/components/drivers/src/completion.c:0:13
	mvn	r0, #1
.Ltmp18:
	.loc	2 49 20 is_stmt 1               @ rt-thread/components/drivers/src/completion.c:49:20
	str	r0, [sp, #12]
	.loc	2 50 13                         @ rt-thread/components/drivers/src/completion.c:50:13
	b	.LBB2_16
.Ltmp19:
.LBB2_7:
	.loc	2 55 13                         @ rt-thread/components/drivers/src/completion.c:55:13
	ldr	r1, [sp, #4]
	movs	r0, #0
	.loc	2 55 27 is_stmt 0               @ rt-thread/components/drivers/src/completion.c:55:27
	str	r0, [r1, #48]
	.loc	2 58 31 is_stmt 1               @ rt-thread/components/drivers/src/completion.c:58:31
	ldr	r0, [sp, #4]
	.loc	2 58 13 is_stmt 0               @ rt-thread/components/drivers/src/completion.c:58:13
	bl	rt_thread_suspend
	.loc	2 60 37 is_stmt 1               @ rt-thread/components/drivers/src/completion.c:60:37
	ldr	r0, [sp, #20]
	.loc	2 60 49 is_stmt 0               @ rt-thread/components/drivers/src/completion.c:60:49
	adds	r0, #4
	.loc	2 61 37 is_stmt 1               @ rt-thread/components/drivers/src/completion.c:61:37
	ldr	r1, [sp, #4]
	.loc	2 61 45 is_stmt 0               @ rt-thread/components/drivers/src/completion.c:61:45
	adds	r1, #20
	.loc	2 60 13 is_stmt 1               @ rt-thread/components/drivers/src/completion.c:60:13
	bl	rt_list_insert_before
	.loc	2 64 13                         @ rt-thread/components/drivers/src/completion.c:64:13
	b	.LBB2_8
.LBB2_8:
.Ltmp20:
	.loc	2 64 13 is_stmt 0               @ rt-thread/components/drivers/src/completion.c:64:13
	bl	rt_hw_interrupt_disable
	str	r0, [sp]
.Ltmp21:
	.loc	2 64 13                         @ rt-thread/components/drivers/src/completion.c:64:13
	bl	rt_interrupt_get_nest
.Ltmp22:
	.loc	2 64 13                         @ rt-thread/components/drivers/src/completion.c:64:13
	cbz	r0, .LBB2_10
	b	.LBB2_9
.LBB2_9:
.Ltmp23:
	.loc	2 64 13                         @ rt-thread/components/drivers/src/completion.c:64:13
	movw	r0, :lower16:.L.str.2
	movt	r0, :upper16:.L.str.2
	movw	r1, :lower16:.L__FUNCTION__.rt_completion_wait
	movt	r1, :upper16:.L__FUNCTION__.rt_completion_wait
	movs	r2, #64
	bl	rt_assert_handler
.Ltmp24:
	.loc	2 64 13                         @ rt-thread/components/drivers/src/completion.c:64:13
	b	.LBB2_10
.Ltmp25:
.LBB2_10:
	.loc	2 64 13                         @ rt-thread/components/drivers/src/completion.c:64:13
	ldr	r0, [sp]
	bl	rt_hw_interrupt_enable
	b	.LBB2_11
.Ltmp26:
.LBB2_11:
	.loc	2 67 17 is_stmt 1               @ rt-thread/components/drivers/src/completion.c:67:17
	ldr	r0, [sp, #16]
.Ltmp27:
	.loc	2 67 17 is_stmt 0               @ rt-thread/components/drivers/src/completion.c:67:17
	cmp	r0, #1
	blt	.LBB2_13
	b	.LBB2_12
.LBB2_12:
.Ltmp28:
	.loc	2 70 36 is_stmt 1               @ rt-thread/components/drivers/src/completion.c:70:36
	ldr	r0, [sp, #4]
	.loc	2 70 44 is_stmt 0               @ rt-thread/components/drivers/src/completion.c:70:44
	adds	r0, #76
	movs	r1, #0
	add	r2, sp, #16
	.loc	2 70 17                         @ rt-thread/components/drivers/src/completion.c:70:17
	bl	rt_timer_control
	.loc	2 73 34 is_stmt 1               @ rt-thread/components/drivers/src/completion.c:73:34
	ldr	r0, [sp, #4]
	.loc	2 73 42 is_stmt 0               @ rt-thread/components/drivers/src/completion.c:73:42
	adds	r0, #76
	.loc	2 73 17                         @ rt-thread/components/drivers/src/completion.c:73:17
	bl	rt_timer_start
	.loc	2 74 13 is_stmt 1               @ rt-thread/components/drivers/src/completion.c:74:13
	b	.LBB2_13
.Ltmp29:
.LBB2_13:
	.loc	2 76 36                         @ rt-thread/components/drivers/src/completion.c:76:36
	ldr	r0, [sp, #8]
	.loc	2 76 13 is_stmt 0               @ rt-thread/components/drivers/src/completion.c:76:13
	bl	rt_hw_interrupt_enable
	.loc	2 79 13 is_stmt 1               @ rt-thread/components/drivers/src/completion.c:79:13
	bl	rt_schedule
	.loc	2 82 22                         @ rt-thread/components/drivers/src/completion.c:82:22
	ldr	r0, [sp, #4]
	.loc	2 82 30 is_stmt 0               @ rt-thread/components/drivers/src/completion.c:82:30
	ldr	r0, [r0, #48]
	.loc	2 82 20                         @ rt-thread/components/drivers/src/completion.c:82:20
	str	r0, [sp, #12]
	.loc	2 84 21 is_stmt 1               @ rt-thread/components/drivers/src/completion.c:84:21
	bl	rt_hw_interrupt_disable
	.loc	2 84 19 is_stmt 0               @ rt-thread/components/drivers/src/completion.c:84:19
	str	r0, [sp, #8]
	b	.LBB2_14
.Ltmp30:
.LBB2_14:
	.loc	2 86 5 is_stmt 1                @ rt-thread/components/drivers/src/completion.c:86:5
	b	.LBB2_15
.Ltmp31:
.LBB2_15:
	.loc	2 88 5                          @ rt-thread/components/drivers/src/completion.c:88:5
	ldr	r1, [sp, #20]
	movs	r0, #0
	.loc	2 88 22 is_stmt 0               @ rt-thread/components/drivers/src/completion.c:88:22
	str	r0, [r1]
	.loc	2 88 5                          @ rt-thread/components/drivers/src/completion.c:88:5
	b	.LBB2_16
.LBB2_16:
.Ltmp32:
	@DEBUG_LABEL: rt_completion_wait:__exit
	.loc	2 91 28 is_stmt 1               @ rt-thread/components/drivers/src/completion.c:91:28
	ldr	r0, [sp, #8]
	.loc	2 91 5 is_stmt 0                @ rt-thread/components/drivers/src/completion.c:91:5
	bl	rt_hw_interrupt_enable
	.loc	2 93 12 is_stmt 1               @ rt-thread/components/drivers/src/completion.c:93:12
	ldr	r0, [sp, #12]
	.loc	2 93 5 is_stmt 0                @ rt-thread/components/drivers/src/completion.c:93:5
	add	sp, #24
	pop	{r7, pc}
.Ltmp33:
.Lfunc_end2:
	.size	rt_completion_wait, .Lfunc_end2-rt_completion_wait
	.cfi_endproc
	.cantunwind
	.fnend
                                        @ -- End function
	.section	.text.rt_list_isempty,"ax",%progbits
	.p2align	3                               @ -- Begin function rt_list_isempty
	.type	rt_list_isempty,%function
	.code	16                              @ @rt_list_isempty
	.thumb_func
rt_list_isempty:
.Lfunc_begin3:
	.loc	3 99 0 is_stmt 1                @ rt-thread/include\rtservice.h:99:0
	.fnstart
	.cfi_startproc
@ %bb.0:
	.pad	#4
	sub	sp, #4
	.cfi_def_cfa_offset 4
	str	r0, [sp]
.Ltmp34:
	.loc	3 100 12 prologue_end           @ rt-thread/include\rtservice.h:100:12
	ldr	r1, [sp]
	.loc	3 100 15 is_stmt 0              @ rt-thread/include\rtservice.h:100:15
	ldr	r0, [r1]
	.loc	3 100 20                        @ rt-thread/include\rtservice.h:100:20
	subs	r0, r0, r1
	clz	r0, r0
	lsrs	r0, r0, #5
	.loc	3 100 5                         @ rt-thread/include\rtservice.h:100:5
	add	sp, #4
	bx	lr
.Ltmp35:
.Lfunc_end3:
	.size	rt_list_isempty, .Lfunc_end3-rt_list_isempty
	.cfi_endproc
	.cantunwind
	.fnend
                                        @ -- End function
	.section	.text.rt_list_insert_before,"ax",%progbits
	.p2align	3                               @ -- Begin function rt_list_insert_before
	.type	rt_list_insert_before,%function
	.code	16                              @ @rt_list_insert_before
	.thumb_func
rt_list_insert_before:
.Lfunc_begin4:
	.loc	3 74 0 is_stmt 1                @ rt-thread/include\rtservice.h:74:0
	.fnstart
	.cfi_startproc
@ %bb.0:
	.pad	#8
	sub	sp, #8
	.cfi_def_cfa_offset 8
	str	r0, [sp, #4]
	str	r1, [sp]
.Ltmp36:
	.loc	3 75 21 prologue_end            @ rt-thread/include\rtservice.h:75:21
	ldr	r0, [sp]
	.loc	3 75 5 is_stmt 0                @ rt-thread/include\rtservice.h:75:5
	ldr	r1, [sp, #4]
	.loc	3 75 8                          @ rt-thread/include\rtservice.h:75:8
	ldr	r1, [r1, #4]
	.loc	3 75 19                         @ rt-thread/include\rtservice.h:75:19
	str	r0, [r1]
	.loc	3 76 15 is_stmt 1               @ rt-thread/include\rtservice.h:76:15
	ldr	r0, [sp, #4]
	.loc	3 76 18 is_stmt 0               @ rt-thread/include\rtservice.h:76:18
	ldr	r0, [r0, #4]
	.loc	3 76 5                          @ rt-thread/include\rtservice.h:76:5
	ldr	r1, [sp]
	.loc	3 76 13                         @ rt-thread/include\rtservice.h:76:13
	str	r0, [r1, #4]
	.loc	3 78 15 is_stmt 1               @ rt-thread/include\rtservice.h:78:15
	ldr	r0, [sp]
	.loc	3 78 5 is_stmt 0                @ rt-thread/include\rtservice.h:78:5
	ldr	r1, [sp, #4]
	.loc	3 78 13                         @ rt-thread/include\rtservice.h:78:13
	str	r0, [r1, #4]
	.loc	3 79 15 is_stmt 1               @ rt-thread/include\rtservice.h:79:15
	ldr	r0, [sp, #4]
	.loc	3 79 5 is_stmt 0                @ rt-thread/include\rtservice.h:79:5
	ldr	r1, [sp]
	.loc	3 79 13                         @ rt-thread/include\rtservice.h:79:13
	str	r0, [r1]
	.loc	3 80 1 is_stmt 1                @ rt-thread/include\rtservice.h:80:1
	add	sp, #8
	bx	lr
.Ltmp37:
.Lfunc_end4:
	.size	rt_list_insert_before, .Lfunc_end4-rt_list_insert_before
	.cfi_endproc
	.cantunwind
	.fnend
                                        @ -- End function
	.section	.text.rt_completion_done,"ax",%progbits
	.hidden	rt_completion_done              @ -- Begin function rt_completion_done
	.globl	rt_completion_done
	.p2align	3
	.type	rt_completion_done,%function
	.code	16                              @ @rt_completion_done
	.thumb_func
rt_completion_done:
.Lfunc_begin5:
	.loc	2 98 0                          @ rt-thread/components/drivers/src/completion.c:98:0
	.fnstart
	.cfi_startproc
@ %bb.0:
	.save	{r7, lr}
	push	{r7, lr}
	.cfi_def_cfa_offset 8
	.cfi_offset lr, -4
	.cfi_offset r7, -8
	.pad	#16
	sub	sp, #16
	.cfi_def_cfa_offset 24
	str	r0, [sp, #12]
.Ltmp38:
	.loc	2 100 5 prologue_end            @ rt-thread/components/drivers/src/completion.c:100:5
	ldr	r0, [sp, #12]
.Ltmp39:
	.loc	2 100 5 is_stmt 0               @ rt-thread/components/drivers/src/completion.c:100:5
	cbnz	r0, .LBB5_2
	b	.LBB5_1
.LBB5_1:
.Ltmp40:
	.loc	2 100 5                         @ rt-thread/components/drivers/src/completion.c:100:5
	movw	r0, :lower16:.L.str
	movt	r0, :upper16:.L.str
	movw	r1, :lower16:.L__FUNCTION__.rt_completion_done
	movt	r1, :upper16:.L__FUNCTION__.rt_completion_done
	movs	r2, #100
	bl	rt_assert_handler
	b	.LBB5_2
.Ltmp41:
.LBB5_2:
	.loc	2 102 9 is_stmt 1               @ rt-thread/components/drivers/src/completion.c:102:9
	ldr	r0, [sp, #12]
	.loc	2 102 21 is_stmt 0              @ rt-thread/components/drivers/src/completion.c:102:21
	ldr	r0, [r0]
.Ltmp42:
	.loc	2 102 9                         @ rt-thread/components/drivers/src/completion.c:102:9
	cmp	r0, #1
	bne	.LBB5_4
	b	.LBB5_3
.LBB5_3:
.Ltmp43:
	.loc	2 103 9 is_stmt 1               @ rt-thread/components/drivers/src/completion.c:103:9
	b	.LBB5_7
.Ltmp44:
.LBB5_4:
	.loc	2 105 13                        @ rt-thread/components/drivers/src/completion.c:105:13
	bl	rt_hw_interrupt_disable
	.loc	2 105 11 is_stmt 0              @ rt-thread/components/drivers/src/completion.c:105:11
	str	r0, [sp, #8]
	.loc	2 106 5 is_stmt 1               @ rt-thread/components/drivers/src/completion.c:106:5
	ldr	r1, [sp, #12]
	movs	r0, #1
	.loc	2 106 22 is_stmt 0              @ rt-thread/components/drivers/src/completion.c:106:22
	str	r0, [r1]
.Ltmp45:
	.loc	2 108 28 is_stmt 1              @ rt-thread/components/drivers/src/completion.c:108:28
	ldr	r0, [sp, #12]
	.loc	2 108 40 is_stmt 0              @ rt-thread/components/drivers/src/completion.c:108:40
	adds	r0, #4
	.loc	2 108 10                        @ rt-thread/components/drivers/src/completion.c:108:10
	bl	rt_list_isempty
.Ltmp46:
	.loc	2 108 9                         @ rt-thread/components/drivers/src/completion.c:108:9
	cbnz	r0, .LBB5_6
	b	.LBB5_5
.LBB5_5:
.Ltmp47:
	.loc	2 114 18 is_stmt 1              @ rt-thread/components/drivers/src/completion.c:114:18
	ldr	r0, [sp, #12]
	ldr	r0, [r0, #4]
	subs	r0, #20
	.loc	2 114 16 is_stmt 0              @ rt-thread/components/drivers/src/completion.c:114:16
	str	r0, [sp, #4]
	.loc	2 119 26 is_stmt 1              @ rt-thread/components/drivers/src/completion.c:119:26
	ldr	r0, [sp, #4]
	.loc	2 119 9 is_stmt 0               @ rt-thread/components/drivers/src/completion.c:119:9
	bl	rt_thread_resume
	.loc	2 120 32 is_stmt 1              @ rt-thread/components/drivers/src/completion.c:120:32
	ldr	r0, [sp, #8]
	.loc	2 120 9 is_stmt 0               @ rt-thread/components/drivers/src/completion.c:120:9
	bl	rt_hw_interrupt_enable
	.loc	2 123 9 is_stmt 1               @ rt-thread/components/drivers/src/completion.c:123:9
	bl	rt_schedule
	.loc	2 124 5                         @ rt-thread/components/drivers/src/completion.c:124:5
	b	.LBB5_7
.Ltmp48:
.LBB5_6:
	.loc	2 127 32                        @ rt-thread/components/drivers/src/completion.c:127:32
	ldr	r0, [sp, #8]
	.loc	2 127 9 is_stmt 0               @ rt-thread/components/drivers/src/completion.c:127:9
	bl	rt_hw_interrupt_enable
	b	.LBB5_7
.Ltmp49:
.LBB5_7:
	.loc	2 129 1 is_stmt 1               @ rt-thread/components/drivers/src/completion.c:129:1
	add	sp, #16
	pop	{r7, pc}
.Ltmp50:
.Lfunc_end5:
	.size	rt_completion_done, .Lfunc_end5-rt_completion_done
	.cfi_endproc
	.cantunwind
	.fnend
                                        @ -- End function
	.type	.L.str,%object                  @ @.str
	.section	.rodata.str1.1,"aMS",%progbits,1
.L.str:
	.asciz	"completion != RT_NULL"
	.size	.L.str, 22

	.type	.L__FUNCTION__.rt_completion_init,%object @ @__FUNCTION__.rt_completion_init
.L__FUNCTION__.rt_completion_init:
	.asciz	"rt_completion_init"
	.size	.L__FUNCTION__.rt_completion_init, 19

	.type	.L__FUNCTION__.rt_completion_wait,%object @ @__FUNCTION__.rt_completion_wait
.L__FUNCTION__.rt_completion_wait:
	.asciz	"rt_completion_wait"
	.size	.L__FUNCTION__.rt_completion_wait, 19

	.type	.L.str.1,%object                @ @.str.1
.L.str.1:
	.asciz	"rt_list_isempty(&(completion->suspended_list))"
	.size	.L.str.1, 47

	.type	.L.str.2,%object                @ @.str.2
.L.str.2:
	.asciz	"0"
	.size	.L.str.2, 2

	.type	.L__FUNCTION__.rt_completion_done,%object @ @__FUNCTION__.rt_completion_done
.L__FUNCTION__.rt_completion_done:
	.asciz	"rt_completion_done"
	.size	.L__FUNCTION__.rt_completion_done, 19

	.file	4 "E:\\STM32\\Learning\\STM32H750_ART_PI_RGBLCD" "rt-thread/components/drivers/include/ipc/completion.h"
	.section	".note.GNU-stack","",%progbits
	.eabi_attribute	30, 6	@ Tag_ABI_optimization_goals
	.ARM_attribute	16, 1	@ Tag_AV_eba