	.text
	.syntax unified
	.eabi_attribute	67, "2.09"	@ Tag_conformance
	.cpu	cortex-m7
	.eabi_attribute	6, 13	@ Tag_CPU_arch
	.eabi_attribute	7, 77	@ Tag_CPU_arch_profile
	.eabi_attribute	8, 0	@ Tag_ARM_ISA_use
	.eabi_attribute	9, 2	@ Tag_THUMB_ISA_use
	.fpu	fpv5-d16
	.eabi_attribute	36, 1	@ Tag_FP_HP_extension
	.eabi_attribute	34, 1	@ Tag_CPU_unaligned_access
	.eabi_attribute	17, 1	@ Tag_ABI_PCS_GOT_use
	.eabi_attribute	20, 2	@ Tag_ABI_FP_denormal
	.eabi_attribute	21, 0	@ Tag_ABI_FP_exceptions
	.eabi_attribute	23, 1	@ Tag_ABI_FP_number_model
	.eabi_attribute	24, 1	@ Tag_ABI_align_needed
	.eabi_attribute	25, 1	@ Tag_ABI_align_preserved
	.eabi_attribute	28, 1	@ Tag_ABI_VFP_args
	.eabi_attribute	38, 1	@ Tag_ABI_FP_16bit_format
	.eabi_attribute	18, 2	@ Tag_ABI_PCS_wchar_t
	.eabi_attribute	26, 1	@ Tag_ABI_enum_size
	.eabi_attribute	14, 0	@ Tag_ABI_PCS_R9_use
	.file	"cpuport.c"
	.file	1 "E:\\Smart-access-control\\Hardware\\CODE" "rt-thread/include\\rtdef.h"
	.file	2 "E:\\Smart-access-control\\Hardware\\CODE" "rt-thread/libcpu/arm/cortex-m7/cpuport.c"
	.section	.text.rt_hw_stack_init,"ax",%progbits
	.hidden	rt_hw_stack_init                @ -- Begin function rt_hw_stack_init
	.globl	rt_hw_stack_init
	.p2align	3
	.type	rt_hw_stack_init,%function
	.code	16                              @ @rt_hw_stack_init
	.thumb_func
rt_hw_stack_init:
.Lfunc_begin0:
	.loc	2 144 0                         @ rt-thread/libcpu/arm/cortex-m7/cpuport.c:144:0
	.fnstart
	.cfi_sections .debug_frame
	.cfi_startproc
@ %bb.0:
	@DEBUG_VALUE: rt_hw_stack_init:tentry <- $r0
	@DEBUG_VALUE: rt_hw_stack_init:parameter <- $r1
	@DEBUG_VALUE: rt_hw_stack_init:stack_addr <- $r2
	@DEBUG_VALUE: rt_hw_stack_init:stack_addr <- $r2
	@DEBUG_VALUE: rt_hw_stack_init:texit <- $r3
	.save	{r4, r5, r6, lr}
	push	{r4, r5, r6, lr}
	.cfi_def_cfa_offset 16
	.cfi_offset lr, -4
	.cfi_offset r6, -8
	.cfi_offset r5, -12
	.cfi_offset r4, -16
.Ltmp0:
	.loc	2 149 23 prologue_end           @ rt-thread/libcpu/arm/cortex-m7/cpuport.c:149:23
	adds	r2, #4
.Ltmp1:
	@DEBUG_VALUE: rt_hw_stack_init:stack_addr <- [DW_OP_LLVM_entry_value 1] $r2
	@DEBUG_VALUE: rt_hw_stack_init:stk <- $r2
	.loc	2 0 23 is_stmt 0                @ rt-thread/libcpu/arm/cortex-m7/cpuport.c:0:23
	movw	r4, #48879
	.loc	2 150 26 is_stmt 1              @ rt-thread/libcpu/arm/cortex-m7/cpuport.c:150:26
	bic	lr, r2, #7
.Ltmp2:
	@DEBUG_VALUE: rt_hw_stack_init:stk <- $lr
	@DEBUG_VALUE: rt_hw_stack_init:texit <- $r3
	@DEBUG_VALUE: rt_hw_stack_init:parameter <- $r1
	.loc	2 0 26 is_stmt 0                @ rt-thread/libcpu/arm/cortex-m7/cpuport.c:0:26
	mov	r12, r0
.Ltmp3:
	@DEBUG_VALUE: rt_hw_stack_init:tentry <- $r12
	.loc	2 151 9 is_stmt 1               @ rt-thread/libcpu/arm/cortex-m7/cpuport.c:151:9
	sub.w	r0, lr, #68
.Ltmp4:
	@DEBUG_VALUE: rt_hw_stack_init:stack_frame <- $r0
	@DEBUG_VALUE: rt_hw_stack_init:stk <- $r0
	.loc	2 0 9 is_stmt 0                 @ rt-thread/libcpu/arm/cortex-m7/cpuport.c:0:9
	mvn	r2, #71
.Ltmp5:
	@DEBUG_VALUE: rt_hw_stack_init:i <- 0
	movt	r4, #57005
.Ltmp6:
	.p2align	2
.LBB0_1:                                @ =>This Inner Loop Header: Depth=1
	@DEBUG_VALUE: rt_hw_stack_init:tentry <- $r12
	@DEBUG_VALUE: rt_hw_stack_init:texit <- $r3
	@DEBUG_VALUE: rt_hw_stack_init:parameter <- $r1
	@DEBUG_VALUE: rt_hw_stack_init:stk <- $r0
	@DEBUG_VALUE: rt_hw_stack_init:stack_frame <- $r0
	@DEBUG_VALUE: rt_hw_stack_init:stack_addr <- [DW_OP_LLVM_entry_value 1] $r2
	@DEBUG_VALUE: rt_hw_stack_init:i <- undef
	.loc	2 158 41 is_stmt 1              @ rt-thread/libcpu/arm/cortex-m7/cpuport.c:158:41
	add.w	r5, lr, r2
.Ltmp7:
	.loc	2 156 19                        @ rt-thread/libcpu/arm/cortex-m7/cpuport.c:156:19
	adds	r2, #4
.Ltmp8:
	.loc	2 156 5 is_stmt 0               @ rt-thread/libcpu/arm/cortex-m7/cpuport.c:156:5
	adds	r6, r2, #4
.Ltmp9:
	.loc	2 158 41 is_stmt 1              @ rt-thread/libcpu/arm/cortex-m7/cpuport.c:158:41
	str	r4, [r5, #4]
.Ltmp10:
	@DEBUG_VALUE: rt_hw_stack_init:i <- [DW_OP_plus_uconst 1, DW_OP_stack_value] undef
	.loc	2 156 5                         @ rt-thread/libcpu/arm/cortex-m7/cpuport.c:156:5
	bne	.LBB0_1
.Ltmp11:
@ %bb.2:
	@DEBUG_VALUE: rt_hw_stack_init:tentry <- $r12
	@DEBUG_VALUE: rt_hw_stack_init:texit <- $r3
	@DEBUG_VALUE: rt_hw_stack_init:parameter <- $r1
	@DEBUG_VALUE: rt_hw_stack_init:stk <- $r0
	@DEBUG_VALUE: rt_hw_stack_init:stack_frame <- $r0
	@DEBUG_VALUE: rt_hw_stack_init:stack_addr <- [DW_OP_LLVM_entry_value 1] $r2
	.loc	2 161 44                        @ rt-thread/libcpu/arm/cortex-m7/cpuport.c:161:44
	str	r1, [lr, #-32]
	movs	r1, #0
.Ltmp12:
	@DEBUG_VALUE: rt_hw_stack_init:parameter <- [DW_OP_LLVM_entry_value 1] $r1
	.loc	2 163 44                        @ rt-thread/libcpu/arm/cortex-m7/cpuport.c:163:44
	strd	r1, r1, [lr, #-28]
	strd	r1, r1, [lr, #-20]
	.loc	2 166 44                        @ rt-thread/libcpu/arm/cortex-m7/cpuport.c:166:44
	strd	r3, r12, [lr, #-12]
	mov.w	r2, #16777216
	.loc	2 168 44                        @ rt-thread/libcpu/arm/cortex-m7/cpuport.c:168:44
	str	r2, [lr, #-4]
	.loc	2 171 23                        @ rt-thread/libcpu/arm/cortex-m7/cpuport.c:171:23
	str	r1, [lr, #-68]
	.loc	2 175 5                         @ rt-thread/libcpu/arm/cortex-m7/cpuport.c:175:5
	pop	{r4, r5, r6, pc}
.Ltmp13:
.Lfunc_end0:
	.size	rt_hw_stack_init, .Lfunc_end0-rt_hw_stack_init
	.cfi_endproc
	.cantunwind
	.fnend
                                        @ -- End function
	.section	.text.rt_hw_exception_install,"ax",%progbits
	.hidden	rt_hw_exception_install         @ -- Begin function rt_hw_exception_install
	.globl	rt_hw_exception_install
	.p2align	3
	.type	rt_hw_exception_install,%function
	.code	16                              @ @rt_hw_exception_install
	.thumb_func
rt_hw_exception_install:
.Lfunc_begin1:
	.loc	2 184 0                         @ rt-thread/libcpu/arm/cortex-m7/cpuport.c:184:0
	.fnstart
	.cfi_startproc
@ %bb.0:
	@DEBUG_VALUE: rt_hw_exception_install:exception_handle <- $r0
	.loc	2 185 23 prologue_end           @ rt-thread/libcpu/arm/cortex-m7/cpuport.c:185:23
	movw	r1, :lower16:rt_exception_hook
	movt	r1, :upper16:rt_exception_hook
	@DEBUG_VALUE: rt_hw_exception_install:exception_handle <- $r0
	str	r0, [r1]
	.loc	2 186 1                         @ rt-thread/libcpu/arm/cortex-m7/cpuport.c:186:1
	bx	lr
.Ltmp14:
.Lfunc_end1:
	.size	rt_hw_exception_install, .Lfunc_end1-rt_hw_exception_install
	.cfi_endproc
	.cantunwind
	.fnend
                                        @ -- End function
	.section	.text.rt_hw_hard_fault_exception,"ax",%progbits
	.hidden	rt_hw_hard_fault_exception      @ -- Begin function rt_hw_hard_fault_exception
	.globl	rt_hw_hard_fault_exception
	.p2align	3
	.type	rt_hw_hard_fault_exception,%function
	.code	16                              @ @rt_hw_hard_fault_exception
	.thumb_func
rt_hw_hard_fault_exception:
.Lfunc_begin2:
	.loc	2 372 0                         @ rt-thread/libcpu/arm/cortex-m7/cpuport.c:372:0
	.fnstart
	.cfi_startproc
@ %bb.0:
	@DEBUG_VALUE: rt_hw_hard_fault_exception:exception_info <- $r0
	.save	{r4, lr}
	push	{r4, lr}
	.cfi_def_cfa_offset 8
	.cfi_offset lr, -4
	.cfi_offset r4, -8
.Ltmp15:
	.loc	2 377 9 prologue_end            @ rt-thread/libcpu/arm/cortex-m7/cpuport.c:377:9
	movw	r1, :lower16:rt_exception_hook
	mov	r4, r0
.Ltmp16:
	@DEBUG_VALUE: rt_hw_hard_fault_exception:exception_info <- $r4
	@DEBUG_VALUE: rt_hw_hard_fault_exception:context <- [DW_OP_plus_uconst 4, DW_OP_stack_value] $r4
	@DEBUG_VALUE: rt_hw_hard_fault_exception:exception_stack <- undef
	@DEBUG_VALUE: rt_hw_hard_fault_exception:exception_info <- $r4
	movt	r1, :upper16:rt_exception_hook
	ldr	r1, [r1]
.Ltmp17:
	.loc	2 377 9 is_stmt 0               @ rt-thread/libcpu/arm/cortex-m7/cpuport.c:377:9
	cbz	r1, .LBB2_2
.Ltmp18:
@ %bb.1:
	@DEBUG_VALUE: rt_hw_hard_fault_exception:context <- [DW_OP_plus_uconst 4, DW_OP_stack_value] $r4
	@DEBUG_VALUE: rt_hw_hard_fault_exception:exception_info <- $r4
	.loc	2 0 0                           @ rt-thread/libcpu/arm/cortex-m7/cpuport.c:0:0
	add.w	r0, r4, #40
.Ltmp19:
	@DEBUG_VALUE: rt_hw_hard_fault_exception:exception_stack <- $r0
	.loc	2 381 18 is_stmt 1              @ rt-thread/libcpu/arm/cortex-m7/cpuport.c:381:18
	blx	r1
.Ltmp20:
	@DEBUG_VALUE: result <- $r0
	.loc	2 0 18 is_stmt 0                @ rt-thread/libcpu/arm/cortex-m7/cpuport.c:0:18
	cmp	r0, #0
.Ltmp21:
	.loc	2 426 1 is_stmt 1               @ rt-thread/libcpu/arm/cortex-m7/cpuport.c:426:1
	it	eq
	popeq	{r4, pc}
.Ltmp22:
.LBB2_2:
	.loc	2 385 5                         @ rt-thread/libcpu/arm/cortex-m7/cpuport.c:385:5
	movw	r0, :lower16:.L.str
	.loc	2 385 64 is_stmt 0              @ rt-thread/libcpu/arm/cortex-m7/cpuport.c:385:64
	ldr	r1, [r4, #68]
	.loc	2 385 5                         @ rt-thread/libcpu/arm/cortex-m7/cpuport.c:385:5
	movt	r0, :upper16:.L.str
	bl	rt_kprintf
	.loc	2 387 5 is_stmt 1               @ rt-thread/libcpu/arm/cortex-m7/cpuport.c:387:5
	movw	r0, :lower16:.L.str.1
	.loc	2 387 64 is_stmt 0              @ rt-thread/libcpu/arm/cortex-m7/cpuport.c:387:64
	ldr	r1, [r4, #40]
	.loc	2 387 5                         @ rt-thread/libcpu/arm/cortex-m7/cpuport.c:387:5
	movt	r0, :upper16:.L.str.1
	bl	rt_kprintf
	.loc	2 388 5 is_stmt 1               @ rt-thread/libcpu/arm/cortex-m7/cpuport.c:388:5
	movw	r0, :lower16:.L.str.2
	.loc	2 388 64 is_stmt 0              @ rt-thread/libcpu/arm/cortex-m7/cpuport.c:388:64
	ldr	r1, [r4, #44]
	.loc	2 388 5                         @ rt-thread/libcpu/arm/cortex-m7/cpuport.c:388:5
	movt	r0, :upper16:.L.str.2
	bl	rt_kprintf
	.loc	2 389 5 is_stmt 1               @ rt-thread/libcpu/arm/cortex-m7/cpuport.c:389:5
	movw	r0, :lower16:.L.str.3
	.loc	2 389 64 is_stmt 0              @ rt-thread/libcpu/arm/cortex-m7/cpuport.c:389:64
	ldr	r1, [r4, #48]
	.loc	2 389 5                         @ rt-thread/libcpu/arm/cortex-m7/cpuport.c:389:5
	movt	r0, :upper16:.L.str.3
	bl	rt_kprintf
	.loc	2 390 5 is_stmt 1               @ rt-thread/libcpu/arm/cortex-m7/cpuport.c:390:5
	movw	r0, :lower16:.L.str.4
	.loc	2 390 64 is_stmt 0              @ rt-thread/libcpu/arm/cortex-m7/cpuport.c:390:64
	ldr	r1, [r4, #52]
	.loc	2 390 5                         @ rt-thread/libcpu/arm/cortex-m7/cpuport.c:390:5
	movt	r0, :upper16:.L.str.4
	bl	rt_kprintf
	.loc	2 391 5 is_stmt 1               @ rt-thread/libcpu/arm/cortex-m7/cpuport.c:391:5
	movw	r0, :lower16:.L.str.5
	.loc	2 391 42 is_stmt 0              @ rt-thread/libcpu/arm/cortex-m7/cpuport.c:391:42
	ldr	r1, [r4, #8]
	.loc	2 391 5                         @ rt-thread/libcpu/arm/cortex-m7/cpuport.c:391:5
	movt	r0, :upper16:.L.str.5
	bl	rt_kprintf
	.loc	2 392 42 is_stmt 1              @ rt-thread/libcpu/arm/cortex-m7/cpuport.c:392:42
	ldr	r1, [r4, #12]
	.loc	2 392 5 is_stmt 0               @ rt-thread/libcpu/arm/cortex-m7/cpuport.c:392:5
	adr	r0, .LCPI2_0
	bl	rt_kprintf
	.loc	2 393 42 is_stmt 1              @ rt-thread/libcpu/arm/cortex-m7/cpuport.c:393:42
	ldr	r1, [r4, #16]
	.loc	2 393 5 is_stmt 0               @ rt-thread/libcpu/arm/cortex-m7/cpuport.c:393:5
	adr	r0, .LCPI2_1
	bl	rt_kprintf
	.loc	2 394 42 is_stmt 1              @ rt-thread/libcpu/arm/cortex-m7/cpuport.c:394:42
	ldr	r1, [r4, #20]
	.loc	2 394 5 is_stmt 0               @ rt-thread/libcpu/arm/cortex-m7/cpuport.c:394:5
	adr	r0, .LCPI2_2
	bl	rt_kprintf
	.loc	2 395 42 is_stmt 1              @ rt-thread/libcpu/arm/cortex-m7/cpuport.c:395:42
	ldr	r1, [r4, #24]
	.loc	2 395 5 is_stmt 0               @ rt-thread/libcpu/arm/cortex-m7/cpuport.c:395:5
	adr	r0, .LCPI2_3
	bl	rt_kprintf
	.loc	2 396 42 is_stmt 1              @ rt-thread/libcpu/arm/cortex-m7/cpuport.c:396:42
	ldr	r1, [r4, #28]
	.loc	2 396 5 is_stmt 0               @ rt-thread/libcpu/arm/cortex-m7/cpuport.c:396:5
	adr	r0, .LCPI2_4
	bl	rt_kprintf
	.loc	2 397 42 is_stmt 1              @ rt-thread/libcpu/arm/cortex-m7/cpuport.c:397:42
	ldr	r1, [r4, #32]
	.loc	2 397 5 is_stmt 0               @ rt-thread/libcpu/arm/cortex-m7/cpuport.c:397:5
	adr	r0, .LCPI2_5
	bl	rt_kprintf
	.loc	2 398 42 is_stmt 1              @ rt-thread/libcpu/arm/cortex-m7/cpuport.c:398:42
	ldr	r1, [r4, #36]
	.loc	2 398 5 is_stmt 0               @ rt-thread/libcpu/arm/cortex-m7/cpuport.c:398:5
	adr	r0, .LCPI2_6
	bl	rt_kprintf
	.loc	2 399 64 is_stmt 1              @ rt-thread/libcpu/arm/cortex-m7/cpuport.c:399:64
	ldr	r1, [r4, #56]
	.loc	2 399 5 is_stmt 0               @ rt-thread/libcpu/arm/cortex-m7/cpuport.c:399:5
	adr	r0, .LCPI2_7
	bl	rt_kprintf
	.loc	2 400 64 is_stmt 1              @ rt-thread/libcpu/arm/cortex-m7/cpuport.c:400:64
	ldr	r1, [r4, #60]
	.loc	2 400 5 is_stmt 0               @ rt-thread/libcpu/arm/cortex-m7/cpuport.c:400:5
	adr	r0, .LCPI2_8
	bl	rt_kprintf
	.loc	2 401 64 is_stmt 1              @ rt-thread/libcpu/arm/cortex-m7/cpuport.c:401:64
	ldr	r1, [r4, #64]
	.loc	2 401 5 is_stmt 0               @ rt-thread/libcpu/arm/cortex-m7/cpuport.c:401:5
	adr	r0, .LCPI2_9
	bl	rt_kprintf
	.loc	2 403 9 is_stmt 1               @ rt-thread/libcpu/arm/cortex-m7/cpuport.c:403:9
	ldrb	r0, [r4]
	lsls	r0, r0, #29
	bmi	.LBB2_4
@ %bb.3:
.Ltmp23:
	.loc	2 413 9                         @ rt-thread/libcpu/arm/cortex-m7/cpuport.c:413:9
	movw	r0, :lower16:.L.str.17
	movt	r0, :upper16:.L.str.17
	bl	rt_kprintf
	b	.LBB2_5
.Ltmp24:
.LBB2_4:
	.loc	2 405 56                        @ rt-thread/libcpu/arm/cortex-m7/cpuport.c:405:56
	bl	rt_thread_self
	mov	r1, r0
	.loc	2 405 9 is_stmt 0               @ rt-thread/libcpu/arm/cortex-m7/cpuport.c:405:9
	movw	r0, :lower16:.L.str.16
	movt	r0, :upper16:.L.str.16
	bl	rt_kprintf
	.loc	2 408 9 is_stmt 1               @ rt-thread/libcpu/arm/cortex-m7/cpuport.c:408:9
	bl	list_thread
.Ltmp25:
.LBB2_5:
	.loc	2 416 10                        @ rt-thread/libcpu/arm/cortex-m7/cpuport.c:416:10
	ldrb	r0, [r4]
	lsls	r0, r0, #27
	bmi	.LBB2_7
@ %bb.6:
.Ltmp26:
	.loc	2 418 9                         @ rt-thread/libcpu/arm/cortex-m7/cpuport.c:418:9
	movw	r0, :lower16:.L.str.18
	movt	r0, :upper16:.L.str.18
	bl	rt_kprintf
.Ltmp27:
.LBB2_7:
	.loc	2 422 5                         @ rt-thread/libcpu/arm/cortex-m7/cpuport.c:422:5
	bl	hard_fault_track
	.p2align	2
.LBB2_8:                                @ =>This Inner Loop Header: Depth=1
	.loc	2 425 5                         @ rt-thread/libcpu/arm/cortex-m7/cpuport.c:425:5
	b	.LBB2_8
.Ltmp28:
	.p2align	2
@ %bb.9:
	.loc	2 0 5 is_stmt 0                 @ rt-thread/libcpu/arm/cortex-m7/cpuport.c:0:5
.LCPI2_0:
.L.str.6:
	.asciz	"r05: 0x%08x\n\000\000\000"
.LCPI2_1:
.L.str.7:
	.asciz	"r06: 0x%08x\n\000\000\000"
.LCPI2_2:
.L.str.8:
	.asciz	"r07: 0x%08x\n\000\000\000"
.LCPI2_3:
.L.str.9:
	.asciz	"r08: 0x%08x\n\000\000\000"
.LCPI2_4:
.L.str.10:
	.asciz	"r09: 0x%08x\n\000\000\000"
.LCPI2_5:
.L.str.11:
	.asciz	"r10: 0x%08x\n\000\000\000"
.LCPI2_6:
.L.str.12:
	.asciz	"r11: 0x%08x\n\000\000\000"
.LCPI2_7:
.L.str.13:
	.asciz	"r12: 0x%08x\n\000\000\000"
.LCPI2_8:
.L.str.14:
	.asciz	" lr: 0x%08x\n\000\000\000"
.LCPI2_9:
.L.str.15:
	.asciz	" pc: 0x%08x\n\000\000\000"
.Lfunc_end2:
	.size	rt_hw_hard_fault_exception, .Lfunc_end2-rt_hw_hard_fault_exception
	.cfi_endproc
	.cantunwind
	.fnend
                                        @ -- End function
	.section	.text.hard_fault_track,"ax",%progbits
	.p2align	3                               @ -- Begin function hard_fault_track
	.type	hard_fault_track,%function
	.code	16                              @ @hard_fault_track
	.thumb_func
hard_fault_track:
.Lfunc_begin3:
	.loc	2 330 0 is_stmt 1               @ rt-thread/libcpu/arm/cortex-m7/cpuport.c:330:0
	.fnstart
	.cfi_startproc
@ %bb.0:
	.save	{r4, lr}
	push	{r4, lr}
	.cfi_def_cfa_offset 8
	.cfi_offset lr, -4
	.cfi_offset r4, -8
	movw	r4, #60716
	movt	r4, #57344
.Ltmp29:
	.loc	2 331 8 prologue_end            @ rt-thread/libcpu/arm/cortex-m7/cpuport.c:331:8
	ldr	r0, [r4]
.Ltmp30:
	.loc	2 331 8 is_stmt 0               @ rt-thread/libcpu/arm/cortex-m7/cpuport.c:331:8
	lsls	r0, r0, #30
	bpl	.LBB3_2
@ %bb.1:
.Ltmp31:
	.loc	2 334 9 is_stmt 1               @ rt-thread/libcpu/arm/cortex-m7/cpuport.c:334:9
	adr	r0, .LCPI3_0
	bl	rt_kprintf
.Ltmp32:
.LBB3_2:
	.loc	2 337 8                         @ rt-thread/libcpu/arm/cortex-m7/cpuport.c:337:8
	ldr	r0, [r4]
.Ltmp33:
	.loc	2 337 8 is_stmt 0               @ rt-thread/libcpu/arm/cortex-m7/cpuport.c:337:8
	lsls	r0, r0, #1
	bpl	.LBB3_9
@ %bb.3:
.Ltmp34:
	.loc	2 341 12 is_stmt 1              @ rt-thread/libcpu/arm/cortex-m7/cpuport.c:341:12
	ldrb	r0, [r4, #-3]
.Ltmp35:
	.loc	2 341 12 is_stmt 0              @ rt-thread/libcpu/arm/cortex-m7/cpuport.c:341:12
	cbz	r0, .LBB3_5
@ %bb.4:
.Ltmp36:
	.loc	2 343 13 is_stmt 1              @ rt-thread/libcpu/arm/cortex-m7/cpuport.c:343:13
	bl	bus_fault_track
.Ltmp37:
.LBB3_5:
	.loc	2 346 12                        @ rt-thread/libcpu/arm/cortex-m7/cpuport.c:346:12
	ldrb	r0, [r4, #-4]
.Ltmp38:
	.loc	2 346 12 is_stmt 0              @ rt-thread/libcpu/arm/cortex-m7/cpuport.c:346:12
	cbz	r0, .LBB3_7
@ %bb.6:
.Ltmp39:
	.loc	2 348 13 is_stmt 1              @ rt-thread/libcpu/arm/cortex-m7/cpuport.c:348:13
	bl	mem_manage_fault_track
.Ltmp40:
.LBB3_7:
	.loc	2 351 12                        @ rt-thread/libcpu/arm/cortex-m7/cpuport.c:351:12
	ldrh	r0, [r4, #-2]
.Ltmp41:
	.loc	2 351 12 is_stmt 0              @ rt-thread/libcpu/arm/cortex-m7/cpuport.c:351:12
	cbz	r0, .LBB3_9
@ %bb.8:
.Ltmp42:
	.loc	2 353 13 is_stmt 1              @ rt-thread/libcpu/arm/cortex-m7/cpuport.c:353:13
	bl	usage_fault_track
.Ltmp43:
.LBB3_9:
	.loc	2 357 8                         @ rt-thread/libcpu/arm/cortex-m7/cpuport.c:357:8
	ldr	r0, [r4]
.Ltmp44:
	.loc	2 357 8 is_stmt 0               @ rt-thread/libcpu/arm/cortex-m7/cpuport.c:357:8
	cmp.w	r0, #-1
	.loc	2 362 1 is_stmt 1               @ rt-thread/libcpu/arm/cortex-m7/cpuport.c:362:1
	it	gt
	popgt	{r4, pc}
.LBB3_10:
.Ltmp45:
	.loc	2 360 9                         @ rt-thread/libcpu/arm/cortex-m7/cpuport.c:360:9
	adr	r0, .LCPI3_1
	bl	rt_kprintf
.Ltmp46:
	.loc	2 362 1                         @ rt-thread/libcpu/arm/cortex-m7/cpuport.c:362:1
	pop	{r4, pc}
.Ltmp47:
	.p2align	2
@ %bb.11:
	.loc	2 0 1 is_stmt 0                 @ rt-thread/libcpu/arm/cortex-m7/cpuport.c:0:1
.LCPI3_0:
.L.str.21:
	.asciz	"failed vector fetch\n\000\000\000"
.LCPI3_1:
.L.str.22:
	.asciz	"debug event\n\000\000\000"
.Lfunc_end3:
	.size	hard_fault_track, .Lfunc_end3-hard_fault_track
	.cfi_endproc
	.cantunwind
	.fnend
                                        @ -- End function
	.section	.text.rt_hw_cpu_shutdown,"ax",%progbits
	.hidden	rt_hw_cpu_shutdown              @ -- Begin function rt_hw_cpu_shutdown
	.globl	rt_hw_cpu_shutdown
	.p2align	3
	.type	rt_hw_cpu_shutdown,%function
	.code	16                              @ @rt_hw_cpu_shutdown
	.thumb_func
rt_hw_cpu_shutdown:
.Lfunc_begin4:
	.loc	2 432 0 is_stmt 1               @ rt-thread/libcpu/arm/cortex-m7/cpuport.c:432:0
	.fnstart
	.cfi_startproc
@ %bb.0:
	.save	{r7, lr}
	push	{r7, lr}
	.cfi_def_cfa_offset 8
	.cfi_offset lr, -4
	.cfi_offset r7, -8
.Ltmp48:
	.loc	2 433 5 prologue_end            @ rt-thread/libcpu/arm/cortex-m7/cpuport.c:433:5
	adr	r0, .LCPI4_0
	bl	rt_kprintf
.Ltmp49:
	.loc	2 435 5                         @ rt-thread/libcpu/arm/cortex-m7/cpuport.c:435:5
	adr	r0, .LCPI4_1
	adr	r1, .LCPI4_2
	movw	r2, #435
	bl	rt_assert_handler
.Ltmp50:
	.loc	2 436 1                         @ rt-thread/libcpu/arm/cortex-m7/cpuport.c:436:1
	pop	{r7, pc}
.Ltmp51:
	.p2align	2
@ %bb.1:
	.loc	2 0 1 is_stmt 0                 @ rt-thread/libcpu/arm/cortex-m7/cpuport.c:0:1
.LCPI4_0:
.L.str.19:
	.asciz	"shutdown...\n\000\000\000"
.LCPI4_1:
.L.str.20:
	.asciz	"0\000\000"
.LCPI4_2:
.L__FUNCTION__.rt_hw_cpu_shutdown:
	.asciz	"rt_hw_cpu_shutdown\000"
.Lfunc_end4:
	.size	rt_hw_cpu_shutdown, .Lfunc_end4-rt_hw_cpu_shutdown
	.cfi_endproc
	.cantunwind
	.fnend
                                        @ -- End function
	.section	.text.rt_hw_cpu_reset,"ax",%progbits
	.hidden	rt_hw_cpu_reset                 @ -- Begin function rt_hw_cpu_reset
	.weak	rt_hw_cpu_reset
	.p2align	3
	.type	rt_hw_cpu_reset,%function
	.code	16                              @ @rt_hw_cpu_reset
	.thumb_func
rt_hw_cpu_reset:
.Lfunc_begin5:
	.loc	2 442 0 is_stmt 1               @ rt-thread/libcpu/arm/cortex-m7/cpuport.c:442:0
	.fnstart
	.cfi_startproc
@ %bb.0:
	movw	r0, #60684
	movs	r1, #4
	movt	r0, #57344
	movt	r1, #1530
.Ltmp52:
	.loc	2 443 15 prologue_end           @ rt-thread/libcpu/arm/cortex-m7/cpuport.c:443:15
	str	r1, [r0]
	.loc	2 444 1                         @ rt-thread/libcpu/arm/cortex-m7/cpuport.c:444:1
	bx	lr
.Ltmp53:
.Lfunc_end5:
	.size	rt_hw_cpu_reset, .Lfunc_end5-rt_hw_cpu_reset
	.cfi_endproc
	.cantunwind
	.fnend
                                        @ -- End function
	.section	.text.__rt_ffs,"ax",%progbits
	.hidden	__rt_ffs                        @ -- Begin function __rt_ffs
	.globl	__rt_ffs
	.p2align	3
	.type	__rt_ffs,%function
	.code	16                              @ @__rt_ffs
	.thumb_func
__rt_ffs:
.Lfunc_begin6:
	.loc	2 472 0                         @ rt-thread/libcpu/arm/cortex-m7/cpuport.c:472:0
	.fnstart
	.cfi_startproc
@ %bb.0:
	@DEBUG_VALUE: __rt_ffs:value <- $r0
	@DEBUG_VALUE: __rt_ffs:value <- $r0
	.loc	2 473 5 prologue_end            @ rt-thread/libcpu/arm/cortex-m7/cpuport.c:473:5
	@APP
	cmp	r0, #0
	beq	.Ltmp54
	rbit	r0, r0
	clz	r0, r0
	adds	r0, r0, #1
.Ltmp54:

	@NO_APP
.Ltmp55:
	@DEBUG_VALUE: __rt_ffs:value <- [DW_OP_LLVM_entry_value 1] $r0
	@DEBUG_VALUE: __rt_ffs:value <- $r0
	.loc	2 486 5                         @ rt-thread/libcpu/arm/cortex-m7/cpuport.c:486:5
	bx	lr
.Ltmp56:
.Lfunc_end6:
	.size	__rt_ffs, .Lfunc_end6-__rt_ffs
	.cfi_endproc
	.cantunwind
	.fnend
                                        @ -- End function
	.section	.text.bus_fault_track,"ax",%progbits
	.p2align	3                               @ -- Begin function bus_fault_track
	.type	bus_fault_track,%function
	.code	16                              @ @bus_fault_track
	.thumb_func
bus_fault_track:
.Lfunc_begin7:
	.loc	2 245 0                         @ rt-thread/libcpu/arm/cortex-m7/cpuport.c:245:0
	.fnstart
	.cfi_startproc
@ %bb.0:
	.save	{r4, lr}
	push	{r4, lr}
	.cfi_def_cfa_offset 8
	.cfi_offset lr, -4
	.cfi_offset r4, -8
	movw	r4, #60713
.Ltmp57:
	.loc	2 246 5 prologue_end            @ rt-thread/libcpu/arm/cortex-m7/cpuport.c:246:5
	adr	r0, .LCPI7_0
	movt	r4, #57344
	bl	rt_kprintf
	.loc	2 247 41                        @ rt-thread/libcpu/arm/cortex-m7/cpuport.c:247:41
	ldrb	r1, [r4]
	.loc	2 247 5 is_stmt 0               @ rt-thread/libcpu/arm/cortex-m7/cpuport.c:247:5
	adr	r0, .LCPI7_1
	bl	rt_kprintf
.Ltmp58:
	.loc	2 249 8 is_stmt 1               @ rt-thread/libcpu/arm/cortex-m7/cpuport.c:249:8
	ldrb	r0, [r4]
.Ltmp59:
	.loc	2 249 8 is_stmt 0               @ rt-thread/libcpu/arm/cortex-m7/cpuport.c:249:8
	lsls	r0, r0, #31
	beq	.LBB7_2
@ %bb.1:
.Ltmp60:
	.loc	2 252 9 is_stmt 1               @ rt-thread/libcpu/arm/cortex-m7/cpuport.c:252:9
	adr	r0, .LCPI7_2
	bl	rt_kprintf
.Ltmp61:
.LBB7_2:
	.loc	2 255 8                         @ rt-thread/libcpu/arm/cortex-m7/cpuport.c:255:8
	ldrb	r0, [r4]
.Ltmp62:
	.loc	2 255 8 is_stmt 0               @ rt-thread/libcpu/arm/cortex-m7/cpuport.c:255:8
	lsls	r0, r0, #30
	bpl	.LBB7_4
@ %bb.3:
.Ltmp63:
	.loc	2 258 9 is_stmt 1               @ rt-thread/libcpu/arm/cortex-m7/cpuport.c:258:9
	adr	r0, .LCPI7_3
	bl	rt_kprintf
.Ltmp64:
.LBB7_4:
	.loc	2 261 8                         @ rt-thread/libcpu/arm/cortex-m7/cpuport.c:261:8
	ldrb	r0, [r4]
.Ltmp65:
	.loc	2 261 8 is_stmt 0               @ rt-thread/libcpu/arm/cortex-m7/cpuport.c:261:8
	lsls	r0, r0, #29
	bpl	.LBB7_6
@ %bb.5:
.Ltmp66:
	.loc	2 264 9 is_stmt 1               @ rt-thread/libcpu/arm/cortex-m7/cpuport.c:264:9
	adr	r0, .LCPI7_4
	bl	rt_kprintf
.Ltmp67:
.LBB7_6:
	.loc	2 267 8                         @ rt-thread/libcpu/arm/cortex-m7/cpuport.c:267:8
	ldrb	r0, [r4]
.Ltmp68:
	.loc	2 267 8 is_stmt 0               @ rt-thread/libcpu/arm/cortex-m7/cpuport.c:267:8
	lsls	r0, r0, #28
	bpl	.LBB7_8
@ %bb.7:
.Ltmp69:
	.loc	2 270 9 is_stmt 1               @ rt-thread/libcpu/arm/cortex-m7/cpuport.c:270:9
	adr	r0, .LCPI7_5
	bl	rt_kprintf
.Ltmp70:
.LBB7_8:
	.loc	2 273 8                         @ rt-thread/libcpu/arm/cortex-m7/cpuport.c:273:8
	ldrb	r0, [r4]
.Ltmp71:
	.loc	2 273 8 is_stmt 0               @ rt-thread/libcpu/arm/cortex-m7/cpuport.c:273:8
	lsls	r0, r0, #27
	bpl	.LBB7_10
@ %bb.9:
.Ltmp72:
	.loc	2 276 9 is_stmt 1               @ rt-thread/libcpu/arm/cortex-m7/cpuport.c:276:9
	adr	r0, .LCPI7_6
	bl	rt_kprintf
.Ltmp73:
.LBB7_10:
	.loc	2 279 8                         @ rt-thread/libcpu/arm/cortex-m7/cpuport.c:279:8
	ldrsb.w	r0, [r4]
.Ltmp74:
	.loc	2 279 8 is_stmt 0               @ rt-thread/libcpu/arm/cortex-m7/cpuport.c:279:8
	cmp.w	r0, #-1
	ble	.LBB7_12
@ %bb.11:
.Ltmp75:
	.loc	2 285 9 is_stmt 1               @ rt-thread/libcpu/arm/cortex-m7/cpuport.c:285:9
	movw	r0, :lower16:.L.str.31
	movt	r0, :upper16:.L.str.31
	bl	rt_kprintf
.Ltmp76:
	.loc	2 287 1                         @ rt-thread/libcpu/arm/cortex-m7/cpuport.c:287:1
	pop	{r4, pc}
.LBB7_12:
.Ltmp77:
	.loc	2 281 40                        @ rt-thread/libcpu/arm/cortex-m7/cpuport.c:281:40
	ldr.w	r1, [r4, #15]
	.loc	2 281 9 is_stmt 0               @ rt-thread/libcpu/arm/cortex-m7/cpuport.c:281:9
	adr	r0, .LCPI7_7
	bl	rt_kprintf
.Ltmp78:
	.loc	2 287 1 is_stmt 1               @ rt-thread/libcpu/arm/cortex-m7/cpuport.c:287:1
	pop	{r4, pc}
.Ltmp79:
	.p2align	2
@ %bb.13:
	.loc	2 0 1 is_stmt 0                 @ rt-thread/libcpu/arm/cortex-m7/cpuport.c:0:1
.LCPI7_0:
.L.str.23:
	.asciz	"bus fault:\n"
.LCPI7_1:
.L.str.24:
	.asciz	"SCB_CFSR_BFSR:0x%02X \000\000"
.LCPI7_2:
.L.str.25:
	.asciz	"IBUSERR \000\000\000"
.LCPI7_3:
.L.str.26:
	.asciz	"PRECISERR \000"
.LCPI7_4:
.L.str.27:
	.asciz	"IMPRECISERR \000\000\000"
.LCPI7_5:
.L.str.28:
	.asciz	"UNSTKERR \000\000"
.LCPI7_6:
.L.str.29:
	.asciz	"STKERR "
.LCPI7_7:
.L.str.30:
	.asciz	"SCB->BFAR:%08X\n"
.Lfunc_end7:
	.size	bus_fault_track, .Lfunc_end7-bus_fault_track
	.cfi_endproc
	.cantunwind
	.fnend
                                        @ -- End function
	.section	.text.mem_manage_fault_track,"ax",%progbits
	.p2align	3                               @ -- Begin function mem_manage_fault_track
	.type	mem_manage_fault_track,%function
	.code	16                              @ @mem_manage_fault_track
	.thumb_func
mem_manage_fault_track:
.Lfunc_begin8:
	.loc	2 290 0 is_stmt 1               @ rt-thread/libcpu/arm/cortex-m7/cpuport.c:290:0
	.fnstart
	.cfi_startproc
@ %bb.0:
	.save	{r4, lr}
	push	{r4, lr}
	.cfi_def_cfa_offset 8
	.cfi_offset lr, -4
	.cfi_offset r4, -8
	movw	r4, #60712
.Ltmp80:
	.loc	2 291 5 prologue_end            @ rt-thread/libcpu/arm/cortex-m7/cpuport.c:291:5
	adr	r0, .LCPI8_0
	movt	r4, #57344
	bl	rt_kprintf
	.loc	2 292 41                        @ rt-thread/libcpu/arm/cortex-m7/cpuport.c:292:41
	ldrb	r1, [r4]
	.loc	2 292 5 is_stmt 0               @ rt-thread/libcpu/arm/cortex-m7/cpuport.c:292:5
	adr	r0, .LCPI8_1
	bl	rt_kprintf
.Ltmp81:
	.loc	2 294 8 is_stmt 1               @ rt-thread/libcpu/arm/cortex-m7/cpuport.c:294:8
	ldrb	r0, [r4]
.Ltmp82:
	.loc	2 294 8 is_stmt 0               @ rt-thread/libcpu/arm/cortex-m7/cpuport.c:294:8
	lsls	r0, r0, #31
	beq	.LBB8_2
@ %bb.1:
.Ltmp83:
	.loc	2 297 9 is_stmt 1               @ rt-thread/libcpu/arm/cortex-m7/cpuport.c:297:9
	adr	r0, .LCPI8_2
	bl	rt_kprintf
.Ltmp84:
.LBB8_2:
	.loc	2 300 8                         @ rt-thread/libcpu/arm/cortex-m7/cpuport.c:300:8
	ldrb	r0, [r4]
.Ltmp85:
	.loc	2 300 8 is_stmt 0               @ rt-thread/libcpu/arm/cortex-m7/cpuport.c:300:8
	lsls	r0, r0, #30
	bpl	.LBB8_4
@ %bb.3:
.Ltmp86:
	.loc	2 303 9 is_stmt 1               @ rt-thread/libcpu/arm/cortex-m7/cpuport.c:303:9
	adr	r0, .LCPI8_3
	bl	rt_kprintf
.Ltmp87:
.LBB8_4:
	.loc	2 306 8                         @ rt-thread/libcpu/arm/cortex-m7/cpuport.c:306:8
	ldrb	r0, [r4]
.Ltmp88:
	.loc	2 306 8 is_stmt 0               @ rt-thread/libcpu/arm/cortex-m7/cpuport.c:306:8
	lsls	r0, r0, #28
	bpl	.LBB8_6
@ %bb.5:
.Ltmp89:
	.loc	2 309 9 is_stmt 1               @ rt-thread/libcpu/arm/cortex-m7/cpuport.c:309:9
	adr	r0, .LCPI8_4
	bl	rt_kprintf
.Ltmp90:
.LBB8_6:
	.loc	2 312 8                         @ rt-thread/libcpu/arm/cortex-m7/cpuport.c:312:8
	ldrb	r0, [r4]
.Ltmp91:
	.loc	2 312 8 is_stmt 0               @ rt-thread/libcpu/arm/cortex-m7/cpuport.c:312:8
	lsls	r0, r0, #27
	bpl	.LBB8_8
@ %bb.7:
.Ltmp92:
	.loc	2 315 9 is_stmt 1               @ rt-thread/libcpu/arm/cortex-m7/cpuport.c:315:9
	adr	r0, .LCPI8_5
	bl	rt_kprintf
.Ltmp93:
.LBB8_8:
	.loc	2 318 8                         @ rt-thread/libcpu/arm/cortex-m7/cpuport.c:318:8
	ldrsb.w	r0, [r4]
.Ltmp94:
	.loc	2 318 8 is_stmt 0               @ rt-thread/libcpu/arm/cortex-m7/cpuport.c:318:8
	cmp.w	r0, #-1
	ble	.LBB8_10
@ %bb.9:
.Ltmp95:
	.loc	2 325 9 is_stmt 1               @ rt-thread/libcpu/arm/cortex-m7/cpuport.c:325:9
	movw	r0, :lower16:.L.str.31
	movt	r0, :upper16:.L.str.31
	bl	rt_kprintf
.Ltmp96:
	.loc	2 327 1                         @ rt-thread/libcpu/arm/cortex-m7/cpuport.c:327:1
	pop	{r4, pc}
.LBB8_10:
.Ltmp97:
	.loc	2 321 40                        @ rt-thread/libcpu/arm/cortex-m7/cpuport.c:321:40
	ldr	r1, [r4, #12]
	.loc	2 321 9 is_stmt 0               @ rt-thread/libcpu/arm/cortex-m7/cpuport.c:321:9
	adr	r0, .LCPI8_6
	bl	rt_kprintf
.Ltmp98:
	.loc	2 327 1 is_stmt 1               @ rt-thread/libcpu/arm/cortex-m7/cpuport.c:327:1
	pop	{r4, pc}
.Ltmp99:
	.p2align	2
@ %bb.11:
	.loc	2 0 1 is_stmt 0                 @ rt-thread/libcpu/arm/cortex-m7/cpuport.c:0:1
.LCPI8_0:
.L.str.32:
	.asciz	"mem manage fault:\n\000"
.LCPI8_1:
.L.str.33:
	.asciz	"SCB_CFSR_MFSR:0x%02X \000\000"
.LCPI8_2:
.L.str.34:
	.asciz	"IACCVIOL \000\000"
.LCPI8_3:
.L.str.35:
	.asciz	"DACCVIOL \000\000"
.LCPI8_4:
.L.str.36:
	.asciz	"MUNSTKERR \000"
.LCPI8_5:
.L.str.37:
	.asciz	"MSTKERR \000\000\000"
.LCPI8_6:
.L.str.38:
	.asciz	"SCB->MMAR:%08X\n"
.Lfunc_end8:
	.size	mem_manage_fault_track, .Lfunc_end8-mem_manage_fault_track
	.cfi_endproc
	.cantunwind
	.fnend
                                        @ -- End function
	.section	.text.usage_fault_track,"ax",%progbits
	.p2align	3                               @ -- Begin function usage_fault_track
	.type	usage_fault_track,%function
	.code	16                              @ @usage_fault_track
	.thumb_func
usage_fault_track:
.Lfunc_begin9:
	.loc	2 201 0 is_stmt 1               @ rt-thread/libcpu/arm/cortex-m7/cpuport.c:201:0
	.fnstart
	.cfi_startproc
@ %bb.0:
	.save	{r4, lr}
	push	{r4, lr}
	.cfi_def_cfa_offset 8
	.cfi_offset lr, -4
	.cfi_offset r4, -8
	movw	r4, #60714
.Ltmp100:
	.loc	2 202 5 prologue_end            @ rt-thread/libcpu/arm/cortex-m7/cpuport.c:202:5
	adr	r0, .LCPI9_0
	movt	r4, #57344
	bl	rt_kprintf
	.loc	2 203 41                        @ rt-thread/libcpu/arm/cortex-m7/cpuport.c:203:41
	ldrh	r1, [r4]
	.loc	2 203 5 is_stmt 0               @ rt-thread/libcpu/arm/cortex-m7/cpuport.c:203:5
	adr	r0, .LCPI9_1
	bl	rt_kprintf
.Ltmp101:
	.loc	2 205 8 is_stmt 1               @ rt-thread/libcpu/arm/cortex-m7/cpuport.c:205:8
	ldrh	r0, [r4]
.Ltmp102:
	.loc	2 205 8 is_stmt 0               @ rt-thread/libcpu/arm/cortex-m7/cpuport.c:205:8
	lsls	r0, r0, #31
	beq	.LBB9_2
@ %bb.1:
.Ltmp103:
	.loc	2 208 9 is_stmt 1               @ rt-thread/libcpu/arm/cortex-m7/cpuport.c:208:9
	adr	r0, .LCPI9_2
	bl	rt_kprintf
.Ltmp104:
.LBB9_2:
	.loc	2 211 8                         @ rt-thread/libcpu/arm/cortex-m7/cpuport.c:211:8
	ldrh	r0, [r4]
.Ltmp105:
	.loc	2 211 8 is_stmt 0               @ rt-thread/libcpu/arm/cortex-m7/cpuport.c:211:8
	lsls	r0, r0, #30
	bpl	.LBB9_4
@ %bb.3:
.Ltmp106:
	.loc	2 214 9 is_stmt 1               @ rt-thread/libcpu/arm/cortex-m7/cpuport.c:214:9
	adr	r0, .LCPI9_3
	bl	rt_kprintf
.Ltmp107:
.LBB9_4:
	.loc	2 217 8                         @ rt-thread/libcpu/arm/cortex-m7/cpuport.c:217:8
	ldrh	r0, [r4]
.Ltmp108:
	.loc	2 217 8 is_stmt 0               @ rt-thread/libcpu/arm/cortex-m7/cpuport.c:217:8
	lsls	r0, r0, #29
	bpl	.LBB9_6
@ %bb.5:
.Ltmp109:
	.loc	2 220 9 is_stmt 1               @ rt-thread/libcpu/arm/cortex-m7/cpuport.c:220:9
	adr	r0, .LCPI9_4
	bl	rt_kprintf
.Ltmp110:
.LBB9_6:
	.loc	2 223 8                         @ rt-thread/libcpu/arm/cortex-m7/cpuport.c:223:8
	ldrh	r0, [r4]
.Ltmp111:
	.loc	2 223 8 is_stmt 0               @ rt-thread/libcpu/arm/cortex-m7/cpuport.c:223:8
	lsls	r0, r0, #28
	bpl	.LBB9_8
@ %bb.7:
.Ltmp112:
	.loc	2 226 9 is_stmt 1               @ rt-thread/libcpu/arm/cortex-m7/cpuport.c:226:9
	adr	r0, .LCPI9_5
	bl	rt_kprintf
.Ltmp113:
.LBB9_8:
	.loc	2 229 8                         @ rt-thread/libcpu/arm/cortex-m7/cpuport.c:229:8
	ldrh	r0, [r4]
.Ltmp114:
	.loc	2 229 8 is_stmt 0               @ rt-thread/libcpu/arm/cortex-m7/cpuport.c:229:8
	lsls	r0, r0, #23
	bpl	.LBB9_10
@ %bb.9:
.Ltmp115:
	.loc	2 232 9 is_stmt 1               @ rt-thread/libcpu/arm/cortex-m7/cpuport.c:232:9
	adr	r0, .LCPI9_6
	bl	rt_kprintf
.Ltmp116:
.LBB9_10:
	.loc	2 235 8                         @ rt-thread/libcpu/arm/cortex-m7/cpuport.c:235:8
	ldrh	r0, [r4]
.Ltmp117:
	.loc	2 235 8 is_stmt 0               @ rt-thread/libcpu/arm/cortex-m7/cpuport.c:235:8
	lsls	r0, r0, #22
	bpl	.LBB9_12
@ %bb.11:
.Ltmp118:
	.loc	2 238 9 is_stmt 1               @ rt-thread/libcpu/arm/cortex-m7/cpuport.c:238:9
	adr	r0, .LCPI9_7
	bl	rt_kprintf
.Ltmp119:
.LBB9_12:
	.loc	2 241 5                         @ rt-thread/libcpu/arm/cortex-m7/cpuport.c:241:5
	movw	r0, :lower16:.L.str.31
	movt	r0, :upper16:.L.str.31
	bl	rt_kprintf
	.loc	2 242 1                         @ rt-thread/libcpu/arm/cortex-m7/cpuport.c:242:1
	pop	{r4, pc}
.Ltmp120:
	.p2align	2
@ %bb.13:
	.loc	2 0 1 is_stmt 0                 @ rt-thread/libcpu/arm/cortex-m7/cpuport.c:0:1
.LCPI9_0:
.L.str.39:
	.asciz	"usage fault:\n\000\000"
.LCPI9_1:
.L.str.40:
	.asciz	"SCB_CFSR_UFSR:0x%02X \000\000"
.LCPI9_2:
.L.str.41:
	.asciz	"UNDEFINSTR "
.LCPI9_3:
.L.str.42:
	.asciz	"INVSTATE \000\000"
.LCPI9_4:
.L.str.43:
	.asciz	"INVPC \000"
.LCPI9_5:
.L.str.44:
	.asciz	"NOCP \000\000"
.LCPI9_6:
.L.str.45:
	.asciz	"UNALIGNED \000"
.LCPI9_7:
.L.str.46:
	.asciz	"DIVBYZERO \000"
.Lfunc_end9:
	.size	usage_fault_track, .Lfunc_end9-usage_fault_track
	.cfi_endproc
	.cantunwind
	.fnend
                                        @ -- End function
	.type	rt_exception_hook,%object       @ @rt_exception_hook
	.section	.bss.rt_exception_hook,"aw",%nobits
	.p2align	2
rt_exception_hook:
	.long	0
	.size	rt_exception_hook, 4

	.type	.L.str,%object                  @ @.str
	.section	.rodata.str1.1,"aMS",%progbits,1
.L.str:
	.asciz	"psr: 0x%08x\n"
	.size	.L.str, 13

	.type	.L.str.1,%object                @ @.str.1
.L.str.1:
	.asciz	"r00: 0x%08x\n"
	.size	.L.str.1, 13

	.type	.L.str.2,%object                @ @.str.2
.L.str.2:
	.asciz	"r01: 0x%08x\n"
	.size	.L.str.2, 13

	.type	.L.str.3,%object                @ @.str.3
.L.str.3:
	.asciz	"r02: 0x%08x\n"
	.size	.L.str.3, 13

	.type	.L.str.4,%object                @ @.str.4
.L.str.4:
	.asciz	"r03: 0x%08x\n"
	.size	.L.str.4, 13

	.type	.L.str.5,%object                @ @.str.5
.L.str.5:
	.asciz	"r04: 0x%08x\n"
	.size	.L.str.5, 13

	.type	.L.str.16,%object               @ @.str.16
.L.str.16:
	.asciz	"hard fault on thread: %s\r\n\r\n"
	.size	.L.str.16, 29

	.type	.L.str.17,%object               @ @.str.17
.L.str.17:
	.asciz	"hard fault on handler\r\n\r\n"
	.size	.L.str.17, 26

	.type	.L.str.18,%object               @ @.str.18
.L.str.18:
	.asciz	"FPU active!\r\n"
	.size	.L.str.18, 14

	.hidden	rt_interrupt_from_thread        @ @rt_interrupt_from_thread
	.type	rt_interrupt_from_thread,%object
	.section	.bss.rt_interrupt_from_thread,"aw",%nobits
	.globl	rt_interrupt_from_thread
	.p2align	2
rt_interrupt_from_thread:
	.long	0                               @ 0x0
	.size	rt_interrupt_from_thread, 4

	.hidden	rt_interrupt_to_thread          @ @rt_interrupt_to_thread
	.type	rt_interrupt_to_thread,%object
	.section	.bss.rt_interrupt_to_thread,"aw",%nobits
	.globl	rt_interrupt_to_thread
	.p2align	2
rt_interrupt_to_thread:
	.long	0                               @ 0x0
	.size	rt_interrupt_to_thread, 4

	.hidden	rt_thread_switch_interrupt_flag @ @rt_thread_switch_interrupt_flag
	.type	rt_thread_switch_interrupt_flag,%object
	.section	.bss.rt_thread_switch_interrupt_flag,"aw",%nobits
	.globl	rt_thread_switch_interrupt_flag
	.p2align	2
rt_thread_switch_interrupt_flag:
	.long	0                               @ 0x0
	.size	rt_thread_switch_interrupt_flag, 4

	.type	.L.str.31,%object               @ @.str.31
	.section	.rodata.str1.1,"aMS",%progbits,1
.L.str.31:
	.asciz	"\n"
	.size	.L.str.31, 2

	.section	".note.GNU-stack","",%progbits
	.eabi_attribute	30, 1	@ Tag_ABI_optimization_goals
	.ARM_attribute	16, 1	@ Tag_AV_eba