	.text
	.syntax unified
	.eabi_attribute	67, "2.09"	@ Tag_conformance
	.cpu	cortex-m7
	.eabi_attribute	6, 13	@ Tag_CPU_arch
	.eabi_attribute	7, 77	@ Tag_CPU_arch_profile
	.eabi_attribute	8, 0	@ Tag_ARM_ISA_use
	.eabi_attribute	9, 2	@ Tag_THUMB_ISA_use
	.fpu	fpv5-d16
	.eabi_attribute	36, 1	@ Tag_FP_HP_extension
	.eabi_attribute	34, 1	@ Tag_CPU_unaligned_access
	.eabi_attribute	17, 1	@ Tag_ABI_PCS_GOT_use
	.eabi_attribute	20, 2	@ Tag_ABI_FP_denormal
	.eabi_attribute	21, 0	@ Tag_ABI_FP_exceptions
	.eabi_attribute	23, 1	@ Tag_ABI_FP_number_model
	.eabi_attribute	24, 1	@ Tag_ABI_align_needed
	.eabi_attribute	25, 1	@ Tag_ABI_align_preserved
	.eabi_attribute	28, 1	@ Tag_ABI_VFP_args
	.eabi_attribute	38, 1	@ Tag_ABI_FP_16bit_format
	.eabi_attribute	18, 2	@ Tag_ABI_PCS_wchar_t
	.eabi_attribute	26, 1	@ Tag_ABI_enum_size
	.eabi_attribute	14, 0	@ Tag_ABI_PCS_R9_use
	.file	"ctiic.c"
	.file	1 "E:\\STM32\\Learning\\STM32H750_ART_PI_RGBLCD" "libraries/STM32H7xx_HAL/STM32H7xx_HAL_Driver/Inc\\stm32h7xx_hal_gpio.h"
	.file	2 "D:\\Keil_v5\\ARM\\ARMCLANG\\Bin\\..\\include" "stdint.h"
	.file	3 "E:\\STM32\\Learning\\STM32H750_ART_PI_RGBLCD" "libraries/STM32H7xx_HAL/CMSIS/Device/ST/STM32H7xx/Include/stm32h750xx.h"
	.section	.text.CT_Delay,"ax",%progbits
	.hidden	CT_Delay                        @ -- Begin function CT_Delay
	.globl	CT_Delay
	.p2align	3
	.type	CT_Delay,%function
	.code	16                              @ @CT_Delay
	.thumb_func
CT_Delay:
.Lfunc_begin0:
	.file	4 "E:\\STM32\\Learning\\STM32H750_ART_PI_RGBLCD" "applications/TOUCH/ctiic.c"
	.loc	4 21 0                          @ applications/TOUCH/ctiic.c:21:0
	.fnstart
	.cfi_sections .debug_frame
	.cfi_startproc
@ %bb.0:
	.save	{r7, lr}
	push	{r7, lr}
	.cfi_def_cfa_offset 8
	.cfi_offset lr, -4
	.cfi_offset r7, -8
	movs	r0, #2
.Ltmp0:
	.loc	4 22 2 prologue_end             @ applications/TOUCH/ctiic.c:22:2
	bl	rt_hw_us_delay
	.loc	4 23 1                          @ applications/TOUCH/ctiic.c:23:1
	pop	{r7, pc}
.Ltmp1:
.Lfunc_end0:
	.size	CT_Delay, .Lfunc_end0-CT_Delay
	.cfi_endproc
	.cantunwind
	.fnend
                                        @ -- End function
	.section	.text.CT_IIC_Init,"ax",%progbits
	.hidden	CT_IIC_Init                     @ -- Begin function CT_IIC_Init
	.globl	CT_IIC_Init
	.p2align	3
	.type	CT_IIC_Init,%function
	.code	16                              @ @CT_IIC_Init
	.thumb_func
CT_IIC_Init:
.Lfunc_begin1:
	.loc	4 26 0                          @ applications/TOUCH/ctiic.c:26:0
	.fnstart
	.cfi_startproc
@ %bb.0:
	.save	{r7, lr}
	push	{r7, lr}
	.cfi_def_cfa_offset 8
	.cfi_offset lr, -4
	.cfi_offset r7, -8
	.pad	#24
	sub	sp, #24
	.cfi_def_cfa_offset 32
.Ltmp2:
	.loc	4 28 5 prologue_end             @ applications/TOUCH/ctiic.c:28:5
	b	.LBB1_1
.LBB1_1:
	.loc	4 0 5 is_stmt 0                 @ applications/TOUCH/ctiic.c:0:5
	movw	r0, #17632
	movt	r0, #22530
.Ltmp3:
	.loc	4 28 5                          @ applications/TOUCH/ctiic.c:28:5
	ldr	r1, [r0]
	orr	r1, r1, #2
	str	r1, [r0]
	ldr	r0, [r0]
	and	r0, r0, #2
	str	r0, [sp]
	ldr	r0, [sp]
	b	.LBB1_2
.Ltmp4:
.LBB1_2:
	.loc	4 0 5                           @ applications/TOUCH/ctiic.c:0:5
	movs	r0, #192
	.loc	4 30 21 is_stmt 1               @ applications/TOUCH/ctiic.c:30:21
	str	r0, [sp, #4]
	movs	r0, #1
	.loc	4 31 22                         @ applications/TOUCH/ctiic.c:31:22
	str	r0, [sp, #8]
	.loc	4 32 22                         @ applications/TOUCH/ctiic.c:32:22
	str	r0, [sp, #12]
	movs	r0, #3
	.loc	4 33 23                         @ applications/TOUCH/ctiic.c:33:23
	str	r0, [sp, #16]
	movw	r0, #1024
	movt	r0, #22530
	add	r1, sp, #4
	.loc	4 34 5                          @ applications/TOUCH/ctiic.c:34:5
	bl	HAL_GPIO_Init
	.loc	4 35 1                          @ applications/TOUCH/ctiic.c:35:1
	add	sp, #24
	pop	{r7, pc}
.Ltmp5:
.Lfunc_end1:
	.size	CT_IIC_Init, .Lfunc_end1-CT_IIC_Init
	.cfi_endproc
	.cantunwind
	.fnend
                                        @ -- End function
	.section	.text.CT_IIC_Start,"ax",%progbits
	.hidden	CT_IIC_Start                    @ -- Begin function CT_IIC_Start
	.globl	CT_IIC_Start
	.p2align	3
	.type	CT_IIC_Start,%function
	.code	16                              @ @CT_IIC_Start
	.thumb_func
CT_IIC_Start:
.Lfunc_begin2:
	.loc	4 38 0                          @ applications/TOUCH/ctiic.c:38:0
	.fnstart
	.cfi_startproc
@ %bb.0:
	.save	{r7, lr}
	push	{r7, lr}
	.cfi_def_cfa_offset 8
	.cfi_offset lr, -4
	.cfi_offset r7, -8
	.pad	#24
	sub	sp, #24
	.cfi_def_cfa_offset 32
	movw	r0, #1024
	movt	r0, #22530
.Ltmp6:
	.loc	4 39 2 prologue_end             @ applications/TOUCH/ctiic.c:39:2
	str	r0, [sp, #12]                   @ 4-byte Spill
	ldr	r1, [r0]
	bic	r1, r1, #49152
	str	r1, [r0]
	ldr	r1, [r0]
	orr	r1, r1, #16384
	str	r1, [r0]
	movs	r1, #128
	str	r1, [sp, #8]                    @ 4-byte Spill
	movs	r2, #1
.Ltmp7:
	.loc	4 40 2                          @ applications/TOUCH/ctiic.c:40:2
	str	r2, [sp, #4]                    @ 4-byte Spill
	bl	HAL_GPIO_WritePin
	ldr	r2, [sp, #4]                    @ 4-byte Reload
	ldr	r0, [sp, #12]                   @ 4-byte Reload
	movs	r1, #64
	.loc	4 41 2                          @ applications/TOUCH/ctiic.c:41:2
	str	r1, [sp, #16]                   @ 4-byte Spill
	bl	HAL_GPIO_WritePin
	movs	r0, #30
	.loc	4 42 2                          @ applications/TOUCH/ctiic.c:42:2
	bl	rt_hw_us_delay
	ldr	r1, [sp, #8]                    @ 4-byte Reload
	ldr	r0, [sp, #12]                   @ 4-byte Reload
	movs	r2, #0
	.loc	4 43 3                          @ applications/TOUCH/ctiic.c:43:3
	str	r2, [sp, #20]                   @ 4-byte Spill
	bl	HAL_GPIO_WritePin
	.loc	4 44 2                          @ applications/TOUCH/ctiic.c:44:2
	bl	CT_Delay
	ldr	r0, [sp, #12]                   @ 4-byte Reload
	ldr	r1, [sp, #16]                   @ 4-byte Reload
	ldr	r2, [sp, #20]                   @ 4-byte Reload
	.loc	4 45 2                          @ applications/TOUCH/ctiic.c:45:2
	bl	HAL_GPIO_WritePin
	.loc	4 46 1                          @ applications/TOUCH/ctiic.c:46:1
	add	sp, #24
	pop	{r7, pc}
.Ltmp8:
.Lfunc_end2:
	.size	CT_IIC_Start, .Lfunc_end2-CT_IIC_Start
	.cfi_endproc
	.cantunwind
	.fnend
                                        @ -- End function
	.section	.text.CT_IIC_Stop,"ax",%progbits
	.hidden	CT_IIC_Stop                     @ -- Begin function CT_IIC_Stop
	.globl	CT_IIC_Stop
	.p2align	3
	.type	CT_IIC_Stop,%function
	.code	16                              @ @CT_IIC_Stop
	.thumb_func
CT_IIC_Stop:
.Lfunc_begin3:
	.loc	4 49 0                          @ applications/TOUCH/ctiic.c:49:0
	.fnstart
	.cfi_startproc
@ %bb.0:
	.save	{r7, lr}
	push	{r7, lr}
	.cfi_def_cfa_offset 8
	.cfi_offset lr, -4
	.cfi_offset r7, -8
	.pad	#24
	sub	sp, #24
	.cfi_def_cfa_offset 32
	movw	r0, #1024
	movt	r0, #22530
.Ltmp9:
	.loc	4 50 2 prologue_end             @ applications/TOUCH/ctiic.c:50:2
	str	r0, [sp, #12]                   @ 4-byte Spill
	ldr	r1, [r0]
	bic	r1, r1, #49152
	str	r1, [r0]
	ldr	r1, [r0]
	orr	r1, r1, #16384
	str	r1, [r0]
	movs	r1, #64
	str	r1, [sp, #8]                    @ 4-byte Spill
	movs	r2, #0
.Ltmp10:
	.loc	4 51 2                          @ applications/TOUCH/ctiic.c:51:2
	str	r2, [sp, #4]                    @ 4-byte Spill
	bl	HAL_GPIO_WritePin
	ldr	r2, [sp, #4]                    @ 4-byte Reload
	ldr	r0, [sp, #12]                   @ 4-byte Reload
	movs	r1, #128
	.loc	4 52 2                          @ applications/TOUCH/ctiic.c:52:2
	str	r1, [sp, #16]                   @ 4-byte Spill
	bl	HAL_GPIO_WritePin
	movs	r0, #30
	.loc	4 53 2                          @ applications/TOUCH/ctiic.c:53:2
	bl	rt_hw_us_delay
	ldr	r1, [sp, #8]                    @ 4-byte Reload
	ldr	r0, [sp, #12]                   @ 4-byte Reload
	movs	r2, #1
	.loc	4 54 2                          @ applications/TOUCH/ctiic.c:54:2
	str	r2, [sp, #20]                   @ 4-byte Spill
	bl	HAL_GPIO_WritePin
	.loc	4 55 2                          @ applications/TOUCH/ctiic.c:55:2
	bl	CT_Delay
	ldr	r0, [sp, #12]                   @ 4-byte Reload
	ldr	r1, [sp, #16]                   @ 4-byte Reload
	ldr	r2, [sp, #20]                   @ 4-byte Reload
	.loc	4 56 2                          @ applications/TOUCH/ctiic.c:56:2
	bl	HAL_GPIO_WritePin
	.loc	4 57 1                          @ applications/TOUCH/ctiic.c:57:1
	add	sp, #24
	pop	{r7, pc}
.Ltmp11:
.Lfunc_end3:
	.size	CT_IIC_Stop, .Lfunc_end3-CT_IIC_Stop
	.cfi_endproc
	.cantunwind
	.fnend
                                        @ -- End function
	.section	.text.CT_IIC_Wait_Ack,"ax",%progbits
	.hidden	CT_IIC_Wait_Ack                 @ -- Begin function CT_IIC_Wait_Ack
	.globl	CT_IIC_Wait_Ack
	.p2align	3
	.type	CT_IIC_Wait_Ack,%function
	.code	16                              @ @CT_IIC_Wait_Ack
	.thumb_func
CT_IIC_Wait_Ack:
.Lfunc_begin4:
	.loc	4 62 0                          @ applications/TOUCH/ctiic.c:62:0
	.fnstart
	.cfi_startproc
@ %bb.0:
	.save	{r7, lr}
	push	{r7, lr}
	.cfi_def_cfa_offset 8
	.cfi_offset lr, -4
	.cfi_offset r7, -8
	.pad	#16
	sub	sp, #16
	.cfi_def_cfa_offset 24
	movs	r0, #0
.Ltmp12:
	.loc	4 63 10 prologue_end            @ applications/TOUCH/ctiic.c:63:10
	strb.w	r0, [sp, #14]
	movw	r0, #1024
	movt	r0, #22530
.Ltmp13:
	.loc	4 64 2                          @ applications/TOUCH/ctiic.c:64:2
	str	r0, [sp, #4]                    @ 4-byte Spill
	ldr	r1, [r0]
	bic	r1, r1, #49152
	str	r1, [r0]
	ldr	r1, [r0]
	str	r1, [r0]
	movs	r1, #128
	movs	r2, #1
.Ltmp14:
	.loc	4 65 2                          @ applications/TOUCH/ctiic.c:65:2
	str	r2, [sp, #8]                    @ 4-byte Spill
	bl	HAL_GPIO_WritePin
	ldr	r0, [sp, #4]                    @ 4-byte Reload
	ldr	r2, [sp, #8]                    @ 4-byte Reload
	movs	r1, #64
	.loc	4 66 2                          @ applications/TOUCH/ctiic.c:66:2
	bl	HAL_GPIO_WritePin
	.loc	4 67 2                          @ applications/TOUCH/ctiic.c:67:2
	bl	CT_Delay
	.loc	4 68 2                          @ applications/TOUCH/ctiic.c:68:2
	b	.LBB4_1
.LBB4_1:                                @ =>This Inner Loop Header: Depth=1
	.loc	4 0 2 is_stmt 0                 @ applications/TOUCH/ctiic.c:0:2
	movw	r0, #1024
	movt	r0, #22530
	movs	r1, #128
	.loc	4 68 8                          @ applications/TOUCH/ctiic.c:68:8
	bl	HAL_GPIO_ReadPin
	.loc	4 68 2                          @ applications/TOUCH/ctiic.c:68:2
	cbz	r0, .LBB4_5
	b	.LBB4_2
.LBB4_2:                                @   in Loop: Header=BB4_1 Depth=1
.Ltmp15:
	.loc	4 70 12 is_stmt 1               @ applications/TOUCH/ctiic.c:70:12
	ldrb.w	r0, [sp, #14]
	adds	r0, #1
	strb.w	r0, [sp, #14]
.Ltmp16:
	.loc	4 71 6                          @ applications/TOUCH/ctiic.c:71:6
	ldrb.w	r0, [sp, #14]
.Ltmp17:
	.loc	4 71 6 is_stmt 0                @ applications/TOUCH/ctiic.c:71:6
	cmp	r0, #251
	blt	.LBB4_4
	b	.LBB4_3
.LBB4_3:
.Ltmp18:
	.loc	4 73 4 is_stmt 1                @ applications/TOUCH/ctiic.c:73:4
	bl	CT_IIC_Stop
	movs	r0, #1
	.loc	4 74 4                          @ applications/TOUCH/ctiic.c:74:4
	strb.w	r0, [sp, #15]
	b	.LBB4_6
.Ltmp19:
.LBB4_4:                                @   in Loop: Header=BB4_1 Depth=1
	.loc	4 76 3                          @ applications/TOUCH/ctiic.c:76:3
	bl	CT_Delay
.Ltmp20:
	.loc	4 68 2                          @ applications/TOUCH/ctiic.c:68:2
	b	.LBB4_1
.LBB4_5:
	.loc	4 0 2 is_stmt 0                 @ applications/TOUCH/ctiic.c:0:2
	movw	r0, #1024
	movt	r0, #22530
	movs	r1, #64
	movs	r2, #0
	.loc	4 78 2 is_stmt 1                @ applications/TOUCH/ctiic.c:78:2
	str	r2, [sp]                        @ 4-byte Spill
	bl	HAL_GPIO_WritePin
	ldr	r0, [sp]                        @ 4-byte Reload
	.loc	4 79 2                          @ applications/TOUCH/ctiic.c:79:2
	strb.w	r0, [sp, #15]
	b	.LBB4_6
.LBB4_6:
	.loc	4 80 1                          @ applications/TOUCH/ctiic.c:80:1
	ldrb.w	r0, [sp, #15]
	add	sp, #16
	pop	{r7, pc}
.Ltmp21:
.Lfunc_end4:
	.size	CT_IIC_Wait_Ack, .Lfunc_end4-CT_IIC_Wait_Ack
	.cfi_endproc
	.cantunwind
	.fnend
                                        @ -- End function
	.section	.text.CT_IIC_Ack,"ax",%progbits
	.hidden	CT_IIC_Ack                      @ -- Begin function CT_IIC_Ack
	.globl	CT_IIC_Ack
	.p2align	3
	.type	CT_IIC_Ack,%function
	.code	16                              @ @CT_IIC_Ack
	.thumb_func
CT_IIC_Ack:
.Lfunc_begin5:
	.loc	4 83 0                          @ applications/TOUCH/ctiic.c:83:0
	.fnstart
	.cfi_startproc
@ %bb.0:
	.save	{r7, lr}
	push	{r7, lr}
	.cfi_def_cfa_offset 8
	.cfi_offset lr, -4
	.cfi_offset r7, -8
	.pad	#16
	sub	sp, #16
	.cfi_def_cfa_offset 24
	movw	r0, #1024
	movt	r0, #22530
	str	r0, [sp, #4]                    @ 4-byte Spill
	movs	r1, #64
	str	r1, [sp, #8]                    @ 4-byte Spill
	movs	r2, #0
.Ltmp22:
	.loc	4 84 2 prologue_end             @ applications/TOUCH/ctiic.c:84:2
	str	r2, [sp, #12]                   @ 4-byte Spill
	bl	HAL_GPIO_WritePin
	ldr	r0, [sp, #4]                    @ 4-byte Reload
	ldr	r2, [sp, #12]                   @ 4-byte Reload
.Ltmp23:
	.loc	4 85 2                          @ applications/TOUCH/ctiic.c:85:2
	ldr	r1, [r0]
	bic	r1, r1, #49152
	str	r1, [r0]
	ldr	r1, [r0]
	orr	r1, r1, #16384
	str	r1, [r0]
	movs	r1, #128
.Ltmp24:
	.loc	4 86 2                          @ applications/TOUCH/ctiic.c:86:2
	bl	HAL_GPIO_WritePin
	.loc	4 87 2                          @ applications/TOUCH/ctiic.c:87:2
	bl	CT_Delay
	ldr	r0, [sp, #4]                    @ 4-byte Reload
	ldr	r1, [sp, #8]                    @ 4-byte Reload
	movs	r2, #1
	.loc	4 88 2                          @ applications/TOUCH/ctiic.c:88:2
	bl	HAL_GPIO_WritePin
	.loc	4 89 2                          @ applications/TOUCH/ctiic.c:89:2
	bl	CT_Delay
	ldr	r0, [sp, #4]                    @ 4-byte Reload
	ldr	r1, [sp, #8]                    @ 4-byte Reload
	ldr	r2, [sp, #12]                   @ 4-byte Reload
	.loc	4 90 2                          @ applications/TOUCH/ctiic.c:90:2
	bl	HAL_GPIO_WritePin
	.loc	4 91 1                          @ applications/TOUCH/ctiic.c:91:1
	add	sp, #16
	pop	{r7, pc}
.Ltmp25:
.Lfunc_end5:
	.size	CT_IIC_Ack, .Lfunc_end5-CT_IIC_Ack
	.cfi_endproc
	.cantunwind
	.fnend
                                        @ -- End function
	.section	.text.CT_IIC_NAck,"ax",%progbits
	.hidden	CT_IIC_NAck                     @ -- Begin function CT_IIC_NAck
	.globl	CT_IIC_NAck
	.p2align	3
	.type	CT_IIC_NAck,%function
	.code	16                              @ @CT_IIC_NAck
	.thumb_func
CT_IIC_NAck:
.Lfunc_begin6:
	.loc	4 94 0                          @ applications/TOUCH/ctiic.c:94:0
	.fnstart
	.cfi_startproc
@ %bb.0:
	.save	{r7, lr}
	push	{r7, lr}
	.cfi_def_cfa_offset 8
	.cfi_offset lr, -4
	.cfi_offset r7, -8
	.pad	#16
	sub	sp, #16
	.cfi_def_cfa_offset 24
	movw	r0, #1024
	movt	r0, #22530
	str	r0, [sp, #4]                    @ 4-byte Spill
	movs	r1, #64
	str	r1, [sp, #8]                    @ 4-byte Spill
	movs	r2, #0
.Ltmp26:
	.loc	4 95 2 prologue_end             @ applications/TOUCH/ctiic.c:95:2
	str	r2, [sp, #12]                   @ 4-byte Spill
	bl	HAL_GPIO_WritePin
	ldr	r0, [sp, #4]                    @ 4-byte Reload
.Ltmp27:
	.loc	4 96 2                          @ applications/TOUCH/ctiic.c:96:2
	ldr	r1, [r0]
	bic	r1, r1, #49152
	str	r1, [r0]
	ldr	r1, [r0]
	orr	r1, r1, #16384
	str	r1, [r0]
	movs	r1, #128
	movs	r2, #1
.Ltmp28:
	.loc	4 97 2                          @ applications/TOUCH/ctiic.c:97:2
	str	r2, [sp]                        @ 4-byte Spill
	bl	HAL_GPIO_WritePin
	.loc	4 98 2                          @ applications/TOUCH/ctiic.c:98:2
	bl	CT_Delay
	ldr	r2, [sp]                        @ 4-byte Reload
	ldr	r0, [sp, #4]                    @ 4-byte Reload
	ldr	r1, [sp, #8]                    @ 4-byte Reload
	.loc	4 99 2                          @ applications/TOUCH/ctiic.c:99:2
	bl	HAL_GPIO_WritePin
	.loc	4 100 2                         @ applications/TOUCH/ctiic.c:100:2
	bl	CT_Delay
	ldr	r0, [sp, #4]                    @ 4-byte Reload
	ldr	r1, [sp, #8]                    @ 4-byte Reload
	ldr	r2, [sp, #12]                   @ 4-byte Reload
	.loc	4 101 2                         @ applications/TOUCH/ctiic.c:101:2
	bl	HAL_GPIO_WritePin
	.loc	4 102 1                         @ applications/TOUCH/ctiic.c:102:1
	add	sp, #16
	pop	{r7, pc}
.Ltmp29:
.Lfunc_end6:
	.size	CT_IIC_NAck, .Lfunc_end6-CT_IIC_NAck
	.cfi_endproc
	.cantunwind
	.fnend
                                        @ -- End function
	.section	.text.CT_IIC_Send_Byte,"ax",%progbits
	.hidden	CT_IIC_Send_Byte                @ -- Begin function CT_IIC_Send_Byte
	.globl	CT_IIC_Send_Byte
	.p2align	3
	.type	CT_IIC_Send_Byte,%function
	.code	16                              @ @CT_IIC_Send_Byte
	.thumb_func
CT_IIC_Send_Byte:
.Lfunc_begin7:
	.loc	4 108 0                         @ applications/TOUCH/ctiic.c:108:0
	.fnstart
	.cfi_startproc
@ %bb.0:
	.save	{r7, lr}
	push	{r7, lr}
	.cfi_def_cfa_offset 8
	.cfi_offset lr, -4
	.cfi_offset r7, -8
	.pad	#16
	sub	sp, #16
	.cfi_def_cfa_offset 24
                                        @ kill: def $r1 killed $r0
	strb.w	r0, [sp, #15]
	movw	r0, #1024
	movt	r0, #22530
.Ltmp30:
	.loc	4 110 2 prologue_end            @ applications/TOUCH/ctiic.c:110:2
	ldr	r1, [r0]
	bic	r1, r1, #49152
	str	r1, [r0]
	ldr	r1, [r0]
	orr	r1, r1, #16384
	str	r1, [r0]
	movs	r1, #64
	movs	r2, #0
.Ltmp31:
	.loc	4 111 5                         @ applications/TOUCH/ctiic.c:111:5
	str	r2, [sp, #8]                    @ 4-byte Spill
	bl	HAL_GPIO_WritePin
	ldr	r0, [sp, #8]                    @ 4-byte Reload
.Ltmp32:
	.loc	4 112 7                         @ applications/TOUCH/ctiic.c:112:7
	strb.w	r0, [sp, #14]
	.loc	4 112 6 is_stmt 0               @ applications/TOUCH/ctiic.c:112:6
	b	.LBB7_1
.LBB7_1:                                @ =>This Inner Loop Header: Depth=1
.Ltmp33:
	.loc	4 112 10                        @ applications/TOUCH/ctiic.c:112:10
	ldrb.w	r0, [sp, #14]
.Ltmp34:
	.loc	4 112 2                         @ applications/TOUCH/ctiic.c:112:2
	cmp	r0, #7
	bgt	.LBB7_7
	b	.LBB7_2
.LBB7_2:                                @   in Loop: Header=BB7_1 Depth=1
.Ltmp35:
	.loc	4 114 9 is_stmt 1               @ applications/TOUCH/ctiic.c:114:9
	ldrb.w	r1, [sp, #15]
	movs	r0, #0
	cmp.w	r0, r1, lsr #7
	beq	.LBB7_4
	b	.LBB7_3
.LBB7_3:                                @   in Loop: Header=BB7_1 Depth=1
	.loc	4 0 9 is_stmt 0                 @ applications/TOUCH/ctiic.c:0:9
	movw	r0, #1024
	movt	r0, #22530
	movs	r1, #128
	movs	r2, #1
	.loc	4 114 9                         @ applications/TOUCH/ctiic.c:114:9
	bl	HAL_GPIO_WritePin
	b	.LBB7_5
.LBB7_4:                                @   in Loop: Header=BB7_1 Depth=1
	.loc	4 0 9                           @ applications/TOUCH/ctiic.c:0:9
	movw	r0, #1024
	movt	r0, #22530
	movs	r1, #128
	movs	r2, #0
	.loc	4 114 9                         @ applications/TOUCH/ctiic.c:114:9
	bl	HAL_GPIO_WritePin
	b	.LBB7_5
.LBB7_5:                                @   in Loop: Header=BB7_1 Depth=1
	.loc	4 115 12 is_stmt 1              @ applications/TOUCH/ctiic.c:115:12
	ldrb.w	r0, [sp, #15]
	lsls	r0, r0, #1
	strb.w	r0, [sp, #15]
	.loc	4 116 3                         @ applications/TOUCH/ctiic.c:116:3
	bl	CT_Delay
	movw	r0, #1024
	movt	r0, #22530
	str	r0, [sp]                        @ 4-byte Spill
	movs	r1, #64
	str	r1, [sp, #4]                    @ 4-byte Spill
	movs	r2, #1
	.loc	4 117 3                         @ applications/TOUCH/ctiic.c:117:3
	bl	HAL_GPIO_WritePin
	.loc	4 118 3                         @ applications/TOUCH/ctiic.c:118:3
	bl	CT_Delay
	ldr	r0, [sp]                        @ 4-byte Reload
	ldr	r1, [sp, #4]                    @ 4-byte Reload
	movs	r2, #0
	.loc	4 119 3                         @ applications/TOUCH/ctiic.c:119:3
	bl	HAL_GPIO_WritePin
	.loc	4 120 3                         @ applications/TOUCH/ctiic.c:120:3
	bl	CT_Delay
	.loc	4 121 5                         @ applications/TOUCH/ctiic.c:121:5
	b	.LBB7_6
.Ltmp36:
.LBB7_6:                                @   in Loop: Header=BB7_1 Depth=1
	.loc	4 112 15                        @ applications/TOUCH/ctiic.c:112:15
	ldrb.w	r0, [sp, #14]
	adds	r0, #1
	strb.w	r0, [sp, #14]
	.loc	4 112 2 is_stmt 0               @ applications/TOUCH/ctiic.c:112:2
	b	.LBB7_1
.Ltmp37:
.LBB7_7:
	.loc	4 122 1 is_stmt 1               @ applications/TOUCH/ctiic.c:122:1
	add	sp, #16
	pop	{r7, pc}
.Ltmp38:
.Lfunc_end7:
	.size	CT_IIC_Send_Byte, .Lfunc_end7-CT_IIC_Send_Byte
	.cfi_endproc
	.cantunwind
	.fnend
                                        @ -- End function
	.section	.text.CT_IIC_Read_Byte,"ax",%progbits
	.hidden	CT_IIC_Read_Byte                @ -- Begin function CT_IIC_Read_Byte
	.globl	CT_IIC_Read_Byte
	.p2align	3
	.type	CT_IIC_Read_Byte,%function
	.code	16                              @ @CT_IIC_Read_Byte
	.thumb_func
CT_IIC_Read_Byte:
.Lfunc_begin8:
	.loc	4 125 0                         @ applications/TOUCH/ctiic.c:125:0
	.fnstart
	.cfi_startproc
@ %bb.0:
	.save	{r7, lr}
	push	{r7, lr}
	.cfi_def_cfa_offset 8
	.cfi_offset lr, -4
	.cfi_offset r7, -8
	.pad	#16
	sub	sp, #16
	.cfi_def_cfa_offset 24
                                        @ kill: def $r1 killed $r0
	strb.w	r0, [sp, #15]
	movs	r0, #0
.Ltmp39:
	.loc	4 126 12 prologue_end           @ applications/TOUCH/ctiic.c:126:12
	str	r0, [sp, #8]                    @ 4-byte Spill
	strb.w	r0, [sp, #13]
	movw	r1, #1024
	movt	r1, #22530
.Ltmp40:
	.loc	4 127 3                         @ applications/TOUCH/ctiic.c:127:3
	ldr	r0, [r1]
	bic	r0, r0, #49152
	str	r0, [r1]
	ldr	r0, [r1]
	str	r0, [r1]
	movs	r0, #30
.Ltmp41:
	.loc	4 128 2                         @ applications/TOUCH/ctiic.c:128:2
	bl	rt_hw_us_delay
	ldr	r0, [sp, #8]                    @ 4-byte Reload
.Ltmp42:
	.loc	4 129 7                         @ applications/TOUCH/ctiic.c:129:7
	strb.w	r0, [sp, #14]
	.loc	4 129 6 is_stmt 0               @ applications/TOUCH/ctiic.c:129:6
	b	.LBB8_1
.LBB8_1:                                @ =>This Inner Loop Header: Depth=1
.Ltmp43:
	.loc	4 129 10                        @ applications/TOUCH/ctiic.c:129:10
	ldrb.w	r0, [sp, #14]
.Ltmp44:
	.loc	4 129 2                         @ applications/TOUCH/ctiic.c:129:2
	cmp	r0, #7
	bgt	.LBB8_6
	b	.LBB8_2
.LBB8_2:                                @   in Loop: Header=BB8_1 Depth=1
	.loc	4 0 2                           @ applications/TOUCH/ctiic.c:0:2
	movw	r0, #1024
	movt	r0, #22530
	str	r0, [sp, #4]                    @ 4-byte Spill
	movs	r1, #64
	str	r1, [sp]                        @ 4-byte Spill
	movs	r2, #0
.Ltmp45:
	.loc	4 131 3 is_stmt 1               @ applications/TOUCH/ctiic.c:131:3
	bl	HAL_GPIO_WritePin
	.loc	4 132 3                         @ applications/TOUCH/ctiic.c:132:3
	bl	CT_Delay
	ldr	r1, [sp]                        @ 4-byte Reload
	ldr	r0, [sp, #4]                    @ 4-byte Reload
	movs	r2, #1
	.loc	4 133 3                         @ applications/TOUCH/ctiic.c:133:3
	bl	HAL_GPIO_WritePin
	ldr	r0, [sp, #4]                    @ 4-byte Reload
	.loc	4 134 10                        @ applications/TOUCH/ctiic.c:134:10
	ldrb.w	r1, [sp, #13]
	lsls	r1, r1, #1
	strb.w	r1, [sp, #13]
	movs	r1, #128
.Ltmp46:
	.loc	4 135 6                         @ applications/TOUCH/ctiic.c:135:6
	bl	HAL_GPIO_ReadPin
.Ltmp47:
	.loc	4 135 6 is_stmt 0               @ applications/TOUCH/ctiic.c:135:6
	cbz	r0, .LBB8_4
	b	.LBB8_3
.LBB8_3:                                @   in Loop: Header=BB8_1 Depth=1
.Ltmp48:
	.loc	4 135 25                        @ applications/TOUCH/ctiic.c:135:25
	ldrb.w	r0, [sp, #13]
	adds	r0, #1
	strb.w	r0, [sp, #13]
	.loc	4 135 18                        @ applications/TOUCH/ctiic.c:135:18
	b	.LBB8_4
.Ltmp49:
.LBB8_4:                                @   in Loop: Header=BB8_1 Depth=1
	.loc	4 136 3 is_stmt 1               @ applications/TOUCH/ctiic.c:136:3
	bl	CT_Delay
	.loc	4 137 2                         @ applications/TOUCH/ctiic.c:137:2
	b	.LBB8_5
.Ltmp50:
.LBB8_5:                                @   in Loop: Header=BB8_1 Depth=1
	.loc	4 129 15                        @ applications/TOUCH/ctiic.c:129:15
	ldrb.w	r0, [sp, #14]
	adds	r0, #1
	strb.w	r0, [sp, #14]
	.loc	4 129 2 is_stmt 0               @ applications/TOUCH/ctiic.c:129:2
	b	.LBB8_1
.Ltmp51:
.LBB8_6:
	.loc	4 138 7 is_stmt 1               @ applications/TOUCH/ctiic.c:138:7
	ldrb.w	r0, [sp, #15]
.Ltmp52:
	.loc	4 138 6 is_stmt 0               @ applications/TOUCH/ctiic.c:138:6
	cbnz	r0, .LBB8_8
	b	.LBB8_7
.LBB8_7:
.Ltmp53:
	.loc	4 138 11                        @ applications/TOUCH/ctiic.c:138:11
	bl	CT_IIC_NAck
	b	.LBB8_9
.LBB8_8:
	.loc	4 139 7 is_stmt 1               @ applications/TOUCH/ctiic.c:139:7
	bl	CT_IIC_Ack
	b	.LBB8_9
.Ltmp54:
.LBB8_9:
	.loc	4 140 10                        @ applications/TOUCH/ctiic.c:140:10
	ldrb.w	r0, [sp, #13]
	.loc	4 140 3 is_stmt 0               @ applications/TOUCH/ctiic.c:140:3
	add	sp, #16
	pop	{r7, pc}
.Ltmp55:
.Lfunc_end8:
	.size	CT_IIC_Read_Byte, .Lfunc_end8-CT_IIC_Read_Byte
	.cfi_endproc
	.cantunwind
	.fnend
                                        @ -- End function
	.section	".note.GNU-stack","",%progbits
	.eabi_attribute	30, 6	@ Tag_ABI_optimization_goals
	.ARM_attribute	16, 1	@ Tag_AV_eba