	.text
	.syntax unified
	.eabi_attribute	67, "2.09"	@ Tag_conformance
	.cpu	cortex-m7
	.eabi_attribute	6, 13	@ Tag_CPU_arch
	.eabi_attribute	7, 77	@ Tag_CPU_arch_profile
	.eabi_attribute	8, 0	@ Tag_ARM_ISA_use
	.eabi_attribute	9, 2	@ Tag_THUMB_ISA_use
	.fpu	fpv5-d16
	.eabi_attribute	36, 1	@ Tag_FP_HP_extension
	.eabi_attribute	34, 1	@ Tag_CPU_unaligned_access
	.eabi_attribute	17, 1	@ Tag_ABI_PCS_GOT_use
	.eabi_attribute	20, 2	@ Tag_ABI_FP_denormal
	.eabi_attribute	21, 0	@ Tag_ABI_FP_exceptions
	.eabi_attribute	23, 1	@ Tag_ABI_FP_number_model
	.eabi_attribute	24, 1	@ Tag_ABI_align_needed
	.eabi_attribute	25, 1	@ Tag_ABI_align_preserved
	.eabi_attribute	28, 1	@ Tag_ABI_VFP_args
	.eabi_attribute	38, 1	@ Tag_ABI_FP_16bit_format
	.eabi_attribute	18, 2	@ Tag_ABI_PCS_wchar_t
	.eabi_attribute	26, 1	@ Tag_ABI_enum_size
	.eabi_attribute	14, 0	@ Tag_ABI_PCS_R9_use
	.file	"decode_dma.c"
	.file	1 "D:\\Keil_v5\\ARM\\ARMCLANG\\Bin\\..\\include" "stdint.h"
	.file	2 "E:\\Smart-access-control\\Hardware\\CODE" "applications/decode_dma.c"
	.file	3 "E:\\Smart-access-control\\Hardware\\CODE" "libraries/STM32H7xx_HAL/CMSIS/Device/ST/STM32H7xx/Include/stm32h750xx.h"
	.file	4 "E:\\Smart-access-control\\Hardware\\CODE" "libraries/STM32H7xx_HAL/STM32H7xx_HAL_Driver/Inc\\stm32h7xx_hal_mdma.h"
	.file	5 "E:\\Smart-access-control\\Hardware\\CODE" "libraries/STM32H7xx_HAL/STM32H7xx_HAL_Driver/Inc/stm32h7xx_hal_def.h"
	.file	6 "E:\\Smart-access-control\\Hardware\\CODE" "libraries/STM32H7xx_HAL/STM32H7xx_HAL_Driver/Inc\\stm32h7xx_hal_jpeg.h"
	.section	.text.DMA2D_Copy_YCbCr_To_RGB,"ax",%progbits
	.hidden	DMA2D_Copy_YCbCr_To_RGB         @ -- Begin function DMA2D_Copy_YCbCr_To_RGB
	.globl	DMA2D_Copy_YCbCr_To_RGB
	.p2align	3
	.type	DMA2D_Copy_YCbCr_To_RGB,%function
	.code	16                              @ @DMA2D_Copy_YCbCr_To_RGB
	.thumb_func
DMA2D_Copy_YCbCr_To_RGB:
.Lfunc_begin0:
	.loc	2 69 0                          @ applications/decode_dma.c:69:0
	.fnstart
	.cfi_sections .debug_frame
	.cfi_startproc
@ %bb.0:
	@DEBUG_VALUE: DMA2D_Copy_YCbCr_To_RGB:pSrc <- $r0
	@DEBUG_VALUE: DMA2D_Copy_YCbCr_To_RGB:pDst <- $r1
	@DEBUG_VALUE: DMA2D_Copy_YCbCr_To_RGB:x <- $r2
	@DEBUG_VALUE: DMA2D_Copy_YCbCr_To_RGB:y <- $r3
	.save	{r4, r5, r7, lr}
	push	{r4, r5, r7, lr}
	.cfi_def_cfa_offset 16
	.cfi_offset lr, -4
	.cfi_offset r7, -8
	.cfi_offset r5, -12
	.cfi_offset r4, -16
.Ltmp0:
	.loc	2 94 11 prologue_end            @ applications/decode_dma.c:94:11
	movw	r4, :lower16:cssMode
	ldr.w	lr, [sp, #16]
	movt	r4, :upper16:cssMode
	movs	r5, #1
.Ltmp1:
	.loc	2 104 46                        @ applications/decode_dma.c:104:46
	mla	r2, lr, r3, r2
.Ltmp2:
	@DEBUG_VALUE: DMA2D_Copy_YCbCr_To_RGB:x <- [DW_OP_LLVM_entry_value 1] $r2
	.loc	2 0 0 is_stmt 0                 @ applications/decode_dma.c:0:0
	movw	r3, :lower16:inputLineOffset
.Ltmp3:
	@DEBUG_VALUE: DMA2D_Copy_YCbCr_To_RGB:y <- [DW_OP_LLVM_entry_value 1] $r3
	.loc	2 94 11 is_stmt 1               @ applications/decode_dma.c:94:11
	str	r5, [r4]
	.loc	2 96 27                         @ applications/decode_dma.c:96:27
	ands	r5, lr, #15
	.loc	2 97 6                          @ applications/decode_dma.c:97:6
	it	ne
	rsbne.w	r5, r5, #16
	.loc	2 0 0 is_stmt 0                 @ applications/decode_dma.c:0:0
	movt	r3, :upper16:inputLineOffset
	movw	r12, #4096
	movt	r12, #20992
.Ltmp4:
	@DEBUG_VALUE: DMA2D_Copy_YCbCr_To_RGB:ysize <- undef
	@DEBUG_VALUE: DMA2D_Copy_YCbCr_To_RGB:xsize <- undef
	@DEBUG_VALUE: DMA2D_Copy_YCbCr_To_RGB:ChromaSampling <- [DW_OP_plus_uconst 28] [$sp+0]
	@DEBUG_VALUE: DMA2D_Copy_YCbCr_To_RGB:PixelFormat <- [DW_OP_plus_uconst 24] [$sp+0]
	@DEBUG_VALUE: DMA2D_Copy_YCbCr_To_RGB:y <- $r3
	@DEBUG_VALUE: DMA2D_Copy_YCbCr_To_RGB:x <- $r2
	@DEBUG_VALUE: DMA2D_Copy_YCbCr_To_RGB:pDst <- $r1
	.loc	2 104 31 is_stmt 1              @ applications/decode_dma.c:104:31
	add.w	r1, r1, r2, lsl #2
.Ltmp5:
	@DEBUG_VALUE: DMA2D_Copy_YCbCr_To_RGB:pDst <- [DW_OP_LLVM_entry_value 1] $r1
	.loc	2 0 0 is_stmt 0                 @ applications/decode_dma.c:0:0
	str	r5, [r3]
.Ltmp6:
	.loc	2 104 14                        @ applications/decode_dma.c:104:14
	movw	r5, :lower16:destination
	movt	r5, :upper16:destination
	ldr	r2, [sp, #20]
.Ltmp7:
	@DEBUG_VALUE: DMA2D_Copy_YCbCr_To_RGB:x <- [DW_OP_LLVM_entry_value 1] $r2
	str	r1, [r5]
	mov.w	r1, #66048
	.loc	2 108 17 is_stmt 1              @ applications/decode_dma.c:108:17
	str.w	r1, [r12]
	movs	r1, #0
	.loc	2 109 17                        @ applications/decode_dma.c:109:17
	str.w	r1, [r12, #64]
	ldr	r1, [sp, #24]
	.loc	2 112 17                        @ applications/decode_dma.c:112:17
	str.w	r1, [r12, #52]
	.loc	2 122 16                        @ applications/decode_dma.c:122:16
	ldr	r1, [r4]
	movs	r4, #11
	movt	r4, #65281
	.loc	2 122 13 is_stmt 0              @ applications/decode_dma.c:122:13
	orr.w	r1, r4, r1, lsl #18
	.loc	2 117 17 is_stmt 1              @ applications/decode_dma.c:117:17
	str.w	r1, [r12, #28]
	.loc	2 124 19                        @ applications/decode_dma.c:124:19
	ldr	r1, [r3]
	.loc	2 124 17 is_stmt 0              @ applications/decode_dma.c:124:17
	str.w	r1, [r12, #16]
	.loc	2 125 43 is_stmt 1              @ applications/decode_dma.c:125:43
	orr.w	r1, r2, lr, lsl #16
	.loc	2 125 17 is_stmt 0              @ applications/decode_dma.c:125:17
	str.w	r1, [r12, #68]
	.loc	2 126 29 is_stmt 1              @ applications/decode_dma.c:126:29
	ldr	r1, [r5]
	.loc	2 126 17 is_stmt 0              @ applications/decode_dma.c:126:17
	str.w	r1, [r12, #60]
	@DEBUG_VALUE: DMA2D_Copy_YCbCr_To_RGB:pSrc <- $r0
	.loc	2 127 17 is_stmt 1              @ applications/decode_dma.c:127:17
	str.w	r0, [r12, #12]
	.loc	2 130 14                        @ applications/decode_dma.c:130:14
	ldr.w	r0, [r12]
.Ltmp8:
	@DEBUG_VALUE: DMA2D_Copy_YCbCr_To_RGB:pSrc <- [DW_OP_LLVM_entry_value 1] $r0
	orr	r0, r0, #1
	str.w	r0, [r12]
.Ltmp9:
	.p2align	2
.LBB0_1:                                @ =>This Inner Loop Header: Depth=1
	@DEBUG_VALUE: DMA2D_Copy_YCbCr_To_RGB:y <- $r3
	@DEBUG_VALUE: DMA2D_Copy_YCbCr_To_RGB:PixelFormat <- [DW_OP_plus_uconst 24] [$sp+0]
	@DEBUG_VALUE: DMA2D_Copy_YCbCr_To_RGB:ChromaSampling <- [DW_OP_plus_uconst 28] [$sp+0]
	@DEBUG_VALUE: DMA2D_Copy_YCbCr_To_RGB:pSrc <- [DW_OP_LLVM_entry_value 1] $r0
	@DEBUG_VALUE: DMA2D_Copy_YCbCr_To_RGB:pDst <- [DW_OP_LLVM_entry_value 1] $r1
	@DEBUG_VALUE: DMA2D_Copy_YCbCr_To_RGB:x <- [DW_OP_LLVM_entry_value 1] $r2
	.loc	2 133 16                        @ applications/decode_dma.c:133:16
	ldr.w	r0, [r12]
	.loc	2 133 2 is_stmt 0               @ applications/decode_dma.c:133:2
	lsls	r0, r0, #31
	bne	.LBB0_1
.Ltmp10:
@ %bb.2:
	@DEBUG_VALUE: DMA2D_Copy_YCbCr_To_RGB:y <- $r3
	@DEBUG_VALUE: DMA2D_Copy_YCbCr_To_RGB:PixelFormat <- [DW_OP_plus_uconst 24] [$sp+0]
	@DEBUG_VALUE: DMA2D_Copy_YCbCr_To_RGB:ChromaSampling <- [DW_OP_plus_uconst 28] [$sp+0]
	@DEBUG_VALUE: DMA2D_Copy_YCbCr_To_RGB:pSrc <- [DW_OP_LLVM_entry_value 1] $r0
	@DEBUG_VALUE: DMA2D_Copy_YCbCr_To_RGB:pDst <- [DW_OP_LLVM_entry_value 1] $r1
	@DEBUG_VALUE: DMA2D_Copy_YCbCr_To_RGB:x <- [DW_OP_LLVM_entry_value 1] $r2
	.loc	2 134 1 is_stmt 1               @ applications/decode_dma.c:134:1
	pop	{r4, r5, r7, pc}
.Ltmp11:
.Lfunc_end0:
	.size	DMA2D_Copy_YCbCr_To_RGB, .Lfunc_end0-DMA2D_Copy_YCbCr_To_RGB
	.cfi_endproc
	.cantunwind
	.fnend
                                        @ -- End function
	.section	.text.HAL_JPEG_MspInit,"ax",%progbits
	.hidden	HAL_JPEG_MspInit                @ -- Begin function HAL_JPEG_MspInit
	.globl	HAL_JPEG_MspInit
	.p2align	3
	.type	HAL_JPEG_MspInit,%function
	.code	16                              @ @HAL_JPEG_MspInit
	.thumb_func
HAL_JPEG_MspInit:
.Lfunc_begin1:
	.loc	2 144 0                         @ applications/decode_dma.c:144:0
	.fnstart
	.cfi_startproc
@ %bb.0:
	@DEBUG_VALUE: HAL_JPEG_MspInit:hjpeg <- $r0
	.save	{r4, r5, r6, r7, r8, r9, r10, lr}
	push.w	{r4, r5, r6, r7, r8, r9, r10, lr}
	.cfi_def_cfa_offset 32
	.cfi_offset lr, -4
	.cfi_offset r10, -8
	.cfi_offset r9, -12
	.cfi_offset r8, -16
	.cfi_offset r7, -20
	.cfi_offset r6, -24
	.cfi_offset r5, -28
	.cfi_offset r4, -32
	.pad	#8
	sub	sp, #8
	.cfi_def_cfa_offset 40
	movw	r1, #17620
	mov	r4, r0
.Ltmp12:
	@DEBUG_VALUE: HAL_JPEG_MspInit:hjpeg <- $r4
	@DEBUG_VALUE: HAL_JPEG_MspInit:hjpeg <- $r4
	movt	r1, #22530
	movs	r6, #0
.Ltmp13:
	.loc	2 150 2 prologue_end            @ applications/decode_dma.c:150:2
	ldr	r2, [r1]
	orr	r2, r2, #32
	str	r2, [r1]
	ldr	r2, [r1]
	and	r2, r2, #32
	str	r2, [sp, #4]
	ldr	r2, [sp, #4]
.Ltmp14:
	.loc	2 153 2                         @ applications/decode_dma.c:153:2
	ldr	r2, [r1]
	orr	r2, r2, #1
	str	r2, [r1]
	ldr	r1, [r1]
.Ltmp15:
	.loc	2 156 2                         @ applications/decode_dma.c:156:2
	movs	r2, #0
.Ltmp16:
	.loc	2 153 2                         @ applications/decode_dma.c:153:2
	and	r1, r1, #1
	str	r1, [sp]
	ldr	r0, [sp]
.Ltmp17:
	.loc	2 156 2                         @ applications/decode_dma.c:156:2
	movs	r0, #121
	movs	r1, #7
	bl	HAL_NVIC_SetPriority
	.loc	2 157 2                         @ applications/decode_dma.c:157:2
	movs	r0, #121
	bl	HAL_NVIC_EnableIRQ
	.loc	2 160 34                        @ applications/decode_dma.c:160:34
	movw	r5, :lower16:HAL_JPEG_MspInit.hmdmaIn
	movw	r8, #448
	movt	r5, :upper16:HAL_JPEG_MspInit.hmdmaIn
	movt	r8, #20992
	add.w	r0, r8, #64
	movs	r1, #2
	str	r0, [r5]
	movs	r0, #17
	.loc	2 174 23                        @ applications/decode_dma.c:174:23
	strd	r0, r6, [r5, #4]
	movs	r0, #128
	mov.w	r10, #33554432
	.loc	2 161 34                        @ applications/decode_dma.c:161:34
	strd	r0, r6, [r5, #12]
	.loc	2 165 34                        @ applications/decode_dma.c:165:34
	strd	r6, r0, [r5, #28]
	mov.w	r0, #131072
	.loc	2 167 34                        @ applications/decode_dma.c:167:34
	str.w	r10, [r5, #36]
	.loc	2 169 34                        @ applications/decode_dma.c:169:34
	strd	r0, r6, [r5, #48]
	.loc	2 182 2                         @ applications/decode_dma.c:182:2
	mov	r0, r5
	movs	r7, #32
	.loc	2 163 34                        @ applications/decode_dma.c:163:34
	strd	r1, r6, [r5, #20]
	.loc	2 176 36                        @ applications/decode_dma.c:176:36
	str	r7, [r5, #40]
	mov.w	r9, #20480
	.loc	2 168 34                        @ applications/decode_dma.c:168:34
	str.w	r9, [r5, #44]
	.loc	2 172 40                        @ applications/decode_dma.c:172:40
	str	r6, [r5, #56]
.Ltmp18:
	.loc	2 179 2                         @ applications/decode_dma.c:179:2
	str	r5, [r4, #48]
	str	r4, [r5, #64]
.Ltmp19:
	.loc	2 182 2                         @ applications/decode_dma.c:182:2
	bl	HAL_MDMA_DeInit
	.loc	2 183 2                         @ applications/decode_dma.c:183:2
	mov	r0, r5
	bl	HAL_MDMA_Init
	.loc	2 186 32                        @ applications/decode_dma.c:186:32
	movw	r5, :lower16:HAL_JPEG_MspInit.hmdmaOut
	movs	r0, #19
	movt	r5, :upper16:HAL_JPEG_MspInit.hmdmaOut
	.loc	2 200 37                        @ applications/decode_dma.c:200:37
	strd	r0, r6, [r5, #4]
	movs	r0, #192
	.loc	2 186 32                        @ applications/decode_dma.c:186:32
	str.w	r8, [r5]
	.loc	2 187 32                        @ applications/decode_dma.c:187:32
	strd	r0, r6, [r5, #12]
	movs	r0, #8
	.loc	2 189 32                        @ applications/decode_dma.c:189:32
	str	r6, [r5, #20]
	.loc	2 190 32                        @ applications/decode_dma.c:190:32
	strd	r0, r7, [r5, #24]
	mov.w	r0, #163840
	.loc	2 198 41                        @ applications/decode_dma.c:198:41
	str	r6, [r5, #56]
	.loc	2 195 32                        @ applications/decode_dma.c:195:32
	strd	r0, r6, [r5, #48]
	.loc	2 205 2                         @ applications/decode_dma.c:205:2
	mov	r0, r5
	.loc	2 192 32                        @ applications/decode_dma.c:192:32
	strd	r6, r10, [r5, #32]
	.loc	2 202 37                        @ applications/decode_dma.c:202:37
	strd	r7, r9, [r5, #40]
	.loc	2 205 2                         @ applications/decode_dma.c:205:2
	bl	HAL_MDMA_DeInit
	.loc	2 206 2                         @ applications/decode_dma.c:206:2
	mov	r0, r5
	bl	HAL_MDMA_Init
	.loc	2 212 2                         @ applications/decode_dma.c:212:2
	movs	r0, #122
	movs	r1, #8
	movs	r2, #0
.Ltmp20:
	.loc	2 209 2                         @ applications/decode_dma.c:209:2
	str	r5, [r4, #52]
	str	r4, [r5, #64]
.Ltmp21:
	.loc	2 212 2                         @ applications/decode_dma.c:212:2
	bl	HAL_NVIC_SetPriority
	.loc	2 213 2                         @ applications/decode_dma.c:213:2
	movs	r0, #122
	bl	HAL_NVIC_EnableIRQ
	.loc	2 214 1                         @ applications/decode_dma.c:214:1
	add	sp, #8
	pop.w	{r4, r5, r6, r7, r8, r9, r10, pc}
.Ltmp22:
.Lfunc_end1:
	.size	HAL_JPEG_MspInit, .Lfunc_end1-HAL_JPEG_MspInit
	.cfi_endproc
	.cantunwind
	.fnend
                                        @ -- End function
	.section	.text.HAL_JPEG_MspDeInit,"ax",%progbits
	.hidden	HAL_JPEG_MspDeInit              @ -- Begin function HAL_JPEG_MspDeInit
	.globl	HAL_JPEG_MspDeInit
	.p2align	3
	.type	HAL_JPEG_MspDeInit,%function
	.code	16                              @ @HAL_JPEG_MspDeInit
	.thumb_func
HAL_JPEG_MspDeInit:
.Lfunc_begin2:
	.loc	2 225 0                         @ applications/decode_dma.c:225:0
	.fnstart
	.cfi_startproc
@ %bb.0:
	@DEBUG_VALUE: HAL_JPEG_MspDeInit:hjpeg <- $r0
	.save	{r4, lr}
	push	{r4, lr}
	.cfi_def_cfa_offset 8
	.cfi_offset lr, -4
	.cfi_offset r4, -8
	mov	r4, r0
.Ltmp23:
	@DEBUG_VALUE: HAL_JPEG_MspDeInit:hjpeg <- $r4
	@DEBUG_VALUE: HAL_JPEG_MspDeInit:hjpeg <- $r4
	.loc	2 227 2 prologue_end            @ applications/decode_dma.c:227:2
	movs	r0, #122
	bl	HAL_NVIC_DisableIRQ
	.loc	2 230 25                        @ applications/decode_dma.c:230:25
	ldr	r0, [r4, #48]
	.loc	2 230 2 is_stmt 0               @ applications/decode_dma.c:230:2
	bl	HAL_MDMA_DeInit
	.loc	2 231 25 is_stmt 1              @ applications/decode_dma.c:231:25
	ldr	r0, [r4, #52]
	.loc	2 231 2 is_stmt 0               @ applications/decode_dma.c:231:2
	bl	HAL_MDMA_DeInit
	.loc	2 232 1 is_stmt 1               @ applications/decode_dma.c:232:1
	pop	{r4, pc}
.Ltmp24:
.Lfunc_end2:
	.size	HAL_JPEG_MspDeInit, .Lfunc_end2-HAL_JPEG_MspDeInit
	.cfi_endproc
	.cantunwind
	.fnend
                                        @ -- End function
	.section	.text.JPEG_Decode_DMA,"ax",%progbits
	.hidden	JPEG_Decode_DMA                 @ -- Begin function JPEG_Decode_DMA
	.globl	JPEG_Decode_DMA
	.p2align	3
	.type	JPEG_Decode_DMA,%function
	.code	16                              @ @JPEG_Decode_DMA
	.thumb_func
JPEG_Decode_DMA:
.Lfunc_begin3:
	.loc	2 247 0                         @ applications/decode_dma.c:247:0
	.fnstart
	.cfi_startproc
@ %bb.0:
	@DEBUG_VALUE: JPEG_Decode_DMA:hjpeg <- $r0
	@DEBUG_VALUE: JPEG_Decode_DMA:FrameSourceAddress <- $r1
	@DEBUG_VALUE: JPEG_Decode_DMA:FrameSourceAddress <- $r1
	@DEBUG_VALUE: JPEG_Decode_DMA:FrameSize <- $r2
	@DEBUG_VALUE: JPEG_Decode_DMA:DestAddress <- $r3
	.save	{r7, lr}
	push	{r7, lr}
	.cfi_def_cfa_offset 8
	.cfi_offset lr, -4
	.cfi_offset r7, -8
	.pad	#8
	sub	sp, #8
	.cfi_def_cfa_offset 16
.Ltmp25:
	.loc	2 248 20 prologue_end           @ applications/decode_dma.c:248:20
	movw	r12, :lower16:JPEGSourceAddress
	mov.w	lr, #0
	movt	r12, :upper16:JPEGSourceAddress
	str.w	r1, [r12]
	.loc	2 249 21                        @ applications/decode_dma.c:249:21
	movw	r12, :lower16:FrameBufferAddress
	movt	r12, :upper16:FrameBufferAddress
	@DEBUG_VALUE: JPEG_Decode_DMA:DestAddress <- $r3
	@DEBUG_VALUE: JPEG_Decode_DMA:FrameSize <- $r2
	str.w	r3, [r12]
	.loc	2 250 19                        @ applications/decode_dma.c:250:19
	movw	r12, :lower16:Input_frameIndex
	movt	r12, :upper16:Input_frameIndex
	str.w	lr, [r12]
	.loc	2 251 18                        @ applications/decode_dma.c:251:18
	movw	r12, :lower16:Input_frameSize
	movt	r12, :upper16:Input_frameSize
	str.w	r2, [r12]
	.loc	2 254 21                        @ applications/decode_dma.c:254:21
	movw	r2, :lower16:Jpeg_HWDecodingEnd
.Ltmp26:
	@DEBUG_VALUE: JPEG_Decode_DMA:FrameSize <- [DW_OP_LLVM_entry_value 1] $r2
	movt	r2, :upper16:Jpeg_HWDecodingEnd
	@DEBUG_VALUE: JPEG_Decode_DMA:hjpeg <- $r0
	mov.w	r12, #65536
	str.w	lr, [r2]
	.loc	2 257 2                         @ applications/decode_dma.c:257:2
	mov.w	r2, #65536
	str.w	r12, [sp]
	@DEBUG_VALUE: JPEG_Decode_DMA:hjpeg <- $r0
	bl	HAL_JPEG_Decode_DMA
.Ltmp27:
	@DEBUG_VALUE: JPEG_Decode_DMA:DestAddress <- [DW_OP_LLVM_entry_value 1] $r3
	@DEBUG_VALUE: JPEG_Decode_DMA:FrameSourceAddress <- [DW_OP_LLVM_entry_value 1] $r1
	@DEBUG_VALUE: JPEG_Decode_DMA:hjpeg <- [DW_OP_LLVM_entry_value 1] $r0
	.loc	2 259 2                         @ applications/decode_dma.c:259:2
	movs	r0, #0
	add	sp, #8
	pop	{r7, pc}
.Ltmp28:
.Lfunc_end3:
	.size	JPEG_Decode_DMA, .Lfunc_end3-JPEG_Decode_DMA
	.cfi_endproc
	.cantunwind
	.fnend
                                        @ -- End function
	.section	.text.HAL_JPEG_InfoReadyCallback,"ax",%progbits
	.hidden	HAL_JPEG_InfoReadyCallback      @ -- Begin function HAL_JPEG_InfoReadyCallback
	.globl	HAL_JPEG_InfoReadyCallback
	.p2align	3
	.type	HAL_JPEG_InfoReadyCallback,%function
	.code	16                              @ @HAL_JPEG_InfoReadyCallback
	.thumb_func
HAL_JPEG_InfoReadyCallback:
.Lfunc_begin4:
	.loc	2 272 0                         @ applications/decode_dma.c:272:0
	.fnstart
	.cfi_startproc
@ %bb.0:
	@DEBUG_VALUE: HAL_JPEG_InfoReadyCallback:hjpeg <- $r0
	@DEBUG_VALUE: HAL_JPEG_InfoReadyCallback:pInfo <- $r1
	.loc	2 274 1 prologue_end            @ applications/decode_dma.c:274:1
	bx	lr
.Ltmp29:
.Lfunc_end4:
	.size	HAL_JPEG_InfoReadyCallback, .Lfunc_end4-HAL_JPEG_InfoReadyCallback
	.cfi_endproc
	.cantunwind
	.fnend
                                        @ -- End function
	.section	.text.HAL_JPEG_GetDataCallback,"ax",%progbits
	.hidden	HAL_JPEG_GetDataCallback        @ -- Begin function HAL_JPEG_GetDataCallback
	.globl	HAL_JPEG_GetDataCallback
	.p2align	3
	.type	HAL_JPEG_GetDataCallback,%function
	.code	16                              @ @HAL_JPEG_GetDataCallback
	.thumb_func
HAL_JPEG_GetDataCallback:
.Lfunc_begin5:
	.loc	2 286 0                         @ applications/decode_dma.c:286:0
	.fnstart
	.cfi_startproc
@ %bb.0:
	@DEBUG_VALUE: HAL_JPEG_GetDataCallback:hjpeg <- $r0
	@DEBUG_VALUE: HAL_JPEG_GetDataCallback:NbDecodedData <- $r1
	@DEBUG_VALUE: HAL_JPEG_GetDataCallback:NbDecodedData <- $r1
	.save	{r7, lr}
	push	{r7, lr}
	.cfi_def_cfa_offset 8
	.cfi_offset lr, -4
	.cfi_offset r7, -8
.Ltmp30:
	.loc	2 290 19 prologue_end           @ applications/decode_dma.c:290:19
	movw	r12, :lower16:Input_frameIndex
.Ltmp31:
	.loc	2 293 25                        @ applications/decode_dma.c:293:25
	movw	r3, :lower16:Input_frameSize
.Ltmp32:
	.loc	2 290 19                        @ applications/decode_dma.c:290:19
	movt	r12, :upper16:Input_frameIndex
.Ltmp33:
	.loc	2 293 25                        @ applications/decode_dma.c:293:25
	movt	r3, :upper16:Input_frameSize
.Ltmp34:
	.loc	2 290 19                        @ applications/decode_dma.c:290:19
	ldr.w	r2, [r12]
.Ltmp35:
	.loc	2 293 25                        @ applications/decode_dma.c:293:25
	ldr	r3, [r3]
.Ltmp36:
	@DEBUG_VALUE: HAL_JPEG_GetDataCallback:hjpeg <- $r0
	.loc	2 290 19                        @ applications/decode_dma.c:290:19
	add	r2, r1
	str.w	r2, [r12]
	movw	r12, :lower16:JPEGSourceAddress
	.loc	2 293 6                         @ applications/decode_dma.c:293:6
	cmp	r3, r2
	movt	r12, :upper16:JPEGSourceAddress
	bls	.LBB5_2
.Ltmp37:
@ %bb.1:
	@DEBUG_VALUE: HAL_JPEG_GetDataCallback:NbDecodedData <- $r1
	@DEBUG_VALUE: HAL_JPEG_GetDataCallback:hjpeg <- $r0
	.loc	2 296 23                        @ applications/decode_dma.c:296:23
	ldr.w	lr, [r12]
.Ltmp38:
	.loc	2 299 23                        @ applications/decode_dma.c:299:23
	subs	r2, r3, r2
.Ltmp39:
	.loc	2 296 41                        @ applications/decode_dma.c:296:41
	add	r1, lr
.Ltmp40:
	@DEBUG_VALUE: HAL_JPEG_GetDataCallback:NbDecodedData <- [DW_OP_LLVM_entry_value 1] $r1
	.loc	2 299 6                         @ applications/decode_dma.c:299:6
	cmp.w	r2, #65536
	.loc	2 296 21                        @ applications/decode_dma.c:296:21
	str.w	r1, [r12]
	.loc	2 299 6                         @ applications/decode_dma.c:299:6
	it	hs
	movhs.w	r2, #65536
	b	.LBB5_3
.Ltmp41:
.LBB5_2:
	@DEBUG_VALUE: HAL_JPEG_GetDataCallback:NbDecodedData <- $r1
	@DEBUG_VALUE: HAL_JPEG_GetDataCallback:hjpeg <- $r0
	.loc	2 0 6 is_stmt 0                 @ applications/decode_dma.c:0:6
	movs	r2, #0
.Ltmp42:
.LBB5_3:
	@DEBUG_VALUE: HAL_JPEG_GetDataCallback:hjpeg <- $r0
	@DEBUG_VALUE: HAL_JPEG_GetDataCallback:inDataLength <- $r2
	.loc	2 314 46 is_stmt 1              @ applications/decode_dma.c:314:46
	ldr.w	r1, [r12]
	.loc	2 314 2 is_stmt 0               @ applications/decode_dma.c:314:2
	bl	HAL_JPEG_ConfigInputBuffer
.Ltmp43:
	@DEBUG_VALUE: HAL_JPEG_GetDataCallback:hjpeg <- [DW_OP_LLVM_entry_value 1] $r0
	.loc	2 315 1 is_stmt 1               @ applications/decode_dma.c:315:1
	pop	{r7, pc}
.Ltmp44:
.Lfunc_end5:
	.size	HAL_JPEG_GetDataCallback, .Lfunc_end5-HAL_JPEG_GetDataCallback
	.cfi_endproc
	.cantunwind
	.fnend
                                        @ -- End function
	.section	.text.HAL_JPEG_DataReadyCallback,"ax",%progbits
	.hidden	HAL_JPEG_DataReadyCallback      @ -- Begin function HAL_JPEG_DataReadyCallback
	.globl	HAL_JPEG_DataReadyCallback
	.p2align	3
	.type	HAL_JPEG_DataReadyCallback,%function
	.code	16                              @ @HAL_JPEG_DataReadyCallback
	.thumb_func
HAL_JPEG_DataReadyCallback:
.Lfunc_begin6:
	.loc	2 328 0                         @ applications/decode_dma.c:328:0
	.fnstart
	.cfi_startproc
@ %bb.0:
	@DEBUG_VALUE: HAL_JPEG_DataReadyCallback:hjpeg <- $r0
	@DEBUG_VALUE: HAL_JPEG_DataReadyCallback:pDataOut <- $r1
	@DEBUG_VALUE: HAL_JPEG_DataReadyCallback:OutDataLength <- $r2
	.save	{r7, lr}
	push	{r7, lr}
	.cfi_def_cfa_offset 8
	.cfi_offset lr, -4
	.cfi_offset r7, -8
.Ltmp45:
	.loc	2 330 21 prologue_end           @ applications/decode_dma.c:330:21
	movw	r3, :lower16:FrameBufferAddress
	movt	r3, :upper16:FrameBufferAddress
	@DEBUG_VALUE: HAL_JPEG_DataReadyCallback:OutDataLength <- $r2
	@DEBUG_VALUE: HAL_JPEG_DataReadyCallback:hjpeg <- $r0
	ldr	r1, [r3]
.Ltmp46:
	@DEBUG_VALUE: HAL_JPEG_DataReadyCallback:pDataOut <- [DW_OP_LLVM_entry_value 1] $r1
	add	r1, r2
	.loc	2 332 2                         @ applications/decode_dma.c:332:2
	mov.w	r2, #65536
.Ltmp47:
	@DEBUG_VALUE: HAL_JPEG_DataReadyCallback:OutDataLength <- [DW_OP_LLVM_entry_value 1] $r2
	@DEBUG_VALUE: HAL_JPEG_DataReadyCallback:hjpeg <- $r0
	.loc	2 330 21                        @ applications/decode_dma.c:330:21
	str	r1, [r3]
	.loc	2 332 2                         @ applications/decode_dma.c:332:2
	bl	HAL_JPEG_ConfigOutputBuffer
.Ltmp48:
	@DEBUG_VALUE: HAL_JPEG_DataReadyCallback:hjpeg <- [DW_OP_LLVM_entry_value 1] $r0
	.loc	2 333 1                         @ applications/decode_dma.c:333:1
	pop	{r7, pc}
.Ltmp49:
.Lfunc_end6:
	.size	HAL_JPEG_DataReadyCallback, .Lfunc_end6-HAL_JPEG_DataReadyCallback
	.cfi_endproc
	.cantunwind
	.fnend
                                        @ -- End function
	.section	.text.HAL_JPEG_ErrorCallback,"ax",%progbits
	.hidden	HAL_JPEG_ErrorCallback          @ -- Begin function HAL_JPEG_ErrorCallback
	.globl	HAL_JPEG_ErrorCallback
	.p2align	3
	.type	HAL_JPEG_ErrorCallback,%function
	.code	16                              @ @HAL_JPEG_ErrorCallback
	.thumb_func
HAL_JPEG_ErrorCallback:
.Lfunc_begin7:
	.loc	2 344 0                         @ applications/decode_dma.c:344:0
	.fnstart
	.cfi_startproc
@ %bb.0:
	@DEBUG_VALUE: HAL_JPEG_ErrorCallback:hjpeg <- $r0
	.loc	2 346 1 prologue_end            @ applications/decode_dma.c:346:1
	bx	lr
.Ltmp50:
.Lfunc_end7:
	.size	HAL_JPEG_ErrorCallback, .Lfunc_end7-HAL_JPEG_ErrorCallback
	.cfi_endproc
	.cantunwind
	.fnend
                                        @ -- End function
	.section	.text.HAL_JPEG_DecodeCpltCallback,"ax",%progbits
	.hidden	HAL_JPEG_DecodeCpltCallback     @ -- Begin function HAL_JPEG_DecodeCpltCallback
	.globl	HAL_JPEG_DecodeCpltCallback
	.p2align	3
	.type	HAL_JPEG_DecodeCpltCallback,%function
	.code	16                              @ @HAL_JPEG_DecodeCpltCallback
	.thumb_func
HAL_JPEG_DecodeCpltCallback:
.Lfunc_begin8:
	.loc	2 357 0                         @ applications/decode_dma.c:357:0
	.fnstart
	.cfi_startproc
@ %bb.0:
	@DEBUG_VALUE: HAL_JPEG_DecodeCpltCallback:hjpeg <- $r0
	.loc	2 358 21 prologue_end           @ applications/decode_dma.c:358:21
	movw	r0, :lower16:Jpeg_HWDecodingEnd
.Ltmp51:
	@DEBUG_VALUE: HAL_JPEG_DecodeCpltCallback:hjpeg <- [DW_OP_LLVM_entry_value 1] $r0
	.loc	2 0 21 is_stmt 0                @ applications/decode_dma.c:0:21
	movs	r1, #1
	.loc	2 358 21                        @ applications/decode_dma.c:358:21
	movt	r0, :upper16:Jpeg_HWDecodingEnd
	str	r1, [r0]
	.loc	2 359 1 is_stmt 1               @ applications/decode_dma.c:359:1
	bx	lr
.Ltmp52:
.Lfunc_end8:
	.size	HAL_JPEG_DecodeCpltCallback, .Lfunc_end8-HAL_JPEG_DecodeCpltCallback
	.cfi_endproc
	.cantunwind
	.fnend
                                        @ -- End function
	.section	.text.JPEG_IRQHandler,"ax",%progbits
	.hidden	JPEG_IRQHandler                 @ -- Begin function JPEG_IRQHandler
	.globl	JPEG_IRQHandler
	.p2align	3
	.type	JPEG_IRQHandler,%function
	.code	16                              @ @JPEG_IRQHandler
	.thumb_func
JPEG_IRQHandler:
.Lfunc_begin9:
	.loc	2 370 0                         @ applications/decode_dma.c:370:0
	.fnstart
	.cfi_startproc
@ %bb.0:
	.save	{r7, lr}
	push	{r7, lr}
	.cfi_def_cfa_offset 8
	.cfi_offset lr, -4
	.cfi_offset r7, -8
.Ltmp53:
	.loc	2 371 2 prologue_end            @ applications/decode_dma.c:371:2
	movw	r0, :lower16:JPEG_Handle
	movt	r0, :upper16:JPEG_Handle
	bl	HAL_JPEG_IRQHandler
	.loc	2 372 1                         @ applications/decode_dma.c:372:1
	pop	{r7, pc}
.Ltmp54:
.Lfunc_end9:
	.size	JPEG_IRQHandler, .Lfunc_end9-JPEG_IRQHandler
	.cfi_endproc
	.cantunwind
	.fnend
                                        @ -- End function
	.section	.text.MDMA_IRQHandler,"ax",%progbits
	.hidden	MDMA_IRQHandler                 @ -- Begin function MDMA_IRQHandler
	.globl	MDMA_IRQHandler
	.p2align	3
	.type	MDMA_IRQHandler,%function
	.code	16                              @ @MDMA_IRQHandler
	.thumb_func
MDMA_IRQHandler:
.Lfunc_begin10:
	.loc	2 383 0                         @ applications/decode_dma.c:383:0
	.fnstart
	.cfi_startproc
@ %bb.0:
	.save	{r4, lr}
	push	{r4, lr}
	.cfi_def_cfa_offset 8
	.cfi_offset lr, -4
	.cfi_offset r4, -8
.Ltmp55:
	.loc	2 384 34 prologue_end           @ applications/decode_dma.c:384:34
	movw	r4, :lower16:JPEG_Handle
	movt	r4, :upper16:JPEG_Handle
	ldr	r0, [r4, #48]
	.loc	2 384 2 is_stmt 0               @ applications/decode_dma.c:384:2
	bl	HAL_MDMA_IRQHandler
	.loc	2 385 34 is_stmt 1              @ applications/decode_dma.c:385:34
	ldr	r0, [r4, #52]
	.loc	2 385 2 is_stmt 0               @ applications/decode_dma.c:385:2
	bl	HAL_MDMA_IRQHandler
	.loc	2 386 1 is_stmt 1               @ applications/decode_dma.c:386:1
	pop	{r4, pc}
.Ltmp56:
.Lfunc_end10:
	.size	MDMA_IRQHandler, .Lfunc_end10-MDMA_IRQHandler
	.cfi_endproc
	.cantunwind
	.fnend
                                        @ -- End function
	.hidden	Jpeg_HWDecodingEnd              @ @Jpeg_HWDecodingEnd
	.type	Jpeg_HWDecodingEnd,%object
	.section	.bss.Jpeg_HWDecodingEnd,"aw",%nobits
	.globl	Jpeg_HWDecodingEnd
	.p2align	2
Jpeg_HWDecodingEnd:
	.long	0                               @ 0x0
	.size	Jpeg_HWDecodingEnd, 4

	.hidden	cssMode                         @ @cssMode
	.type	cssMode,%object
	.section	.data.cssMode,"aw",%progbits
	.globl	cssMode
	.p2align	2
cssMode:
	.long	2                               @ 0x2
	.size	cssMode, 4

	.hidden	inputLineOffset                 @ @inputLineOffset
	.type	inputLineOffset,%object
	.section	.bss.inputLineOffset,"aw",%nobits
	.globl	inputLineOffset
	.p2align	2
inputLineOffset:
	.long	0                               @ 0x0
	.size	inputLineOffset, 4

	.hidden	destination                     @ @destination
	.type	destination,%object
	.section	.bss.destination,"aw",%nobits
	.globl	destination
	.p2align	2
destination:
	.long	0                               @ 0x0
	.size	destination, 4

	.type	HAL_JPEG_MspInit.hmdmaIn,%object @ @HAL_JPEG_MspInit.hmdmaIn
	.section	.bss.HAL_JPEG_MspInit.hmdmaIn,"aw",%nobits
	.p2align	2
HAL_JPEG_MspInit.hmdmaIn:
	.zero	108
	.size	HAL_JPEG_MspInit.hmdmaIn, 108

	.type	HAL_JPEG_MspInit.hmdmaOut,%object @ @HAL_JPEG_MspInit.hmdmaOut
	.section	.bss.HAL_JPEG_MspInit.hmdmaOut,"aw",%nobits
	.p2align	2
HAL_JPEG_MspInit.hmdmaOut:
	.zero	108
	.size	HAL_JPEG_MspInit.hmdmaOut, 108

	.hidden	JPEGSourceAddress               @ @JPEGSourceAddress
	.type	JPEGSourceAddress,%object
	.section	.bss.JPEGSourceAddress,"aw",%nobits
	.globl	JPEGSourceAddress
	.p2align	2
JPEGSourceAddress:
	.long	0                               @ 0x0
	.size	JPEGSourceAddress, 4

	.hidden	FrameBufferAddress              @ @FrameBufferAddress
	.type	FrameBufferAddress,%object
	.section	.bss.FrameBufferAddress,"aw",%nobits
	.globl	FrameBufferAddress
	.p2align	2
FrameBufferAddress:
	.long	0                               @ 0x0
	.size	FrameBufferAddress, 4

	.hidden	Input_frameIndex                @ @Input_frameIndex
	.type	Input_frameIndex,%object
	.section	.bss.Input_frameIndex,"aw",%nobits
	.globl	Input_frameIndex
	.p2align	2
Input_frameIndex:
	.long	0                               @ 0x0
	.size	Input_frameIndex, 4

	.hidden	Input_frameSize                 @ @Input_frameSize
	.type	Input_frameSize,%object
	.section	.bss.Input_frameSize,"aw",%nobits
	.globl	Input_frameSize
	.p2align	2
Input_frameSize:
	.long	0                               @ 0x0
	.size	Input_frameSize, 4

	.hidden	JPEG_Handle                     @ @JPEG_Handle
	.type	JPEG_Handle,%object
	.section	.bss.JPEG_Handle,"aw",%nobits
	.globl	JPEG_Handle
	.p2align	2
JPEG_Handle:
	.zero	88
	.size	JPEG_Handle, 88

	.hidden	JPEG_Info                       @ @JPEG_Info
	.type	JPEG_Info,%object
	.section	.bss.JPEG_Info,"aw",%nobits
	.globl	JPEG_Info
	.p2align	2
JPEG_Info:
	.zero	20
	.size	JPEG_Info, 20

	.section	".note.GNU-stack","",%progbits
	.eabi_attribute	30, 1	@ Tag_ABI_optimization_goals
	.ARM_attribute	16, 1	@ Tag_AV_eba