	.text
	.syntax unified
	.eabi_attribute	67, "2.09"	@ Tag_conformance
	.cpu	cortex-m7
	.eabi_attribute	6, 13	@ Tag_CPU_arch
	.eabi_attribute	7, 77	@ Tag_CPU_arch_profile
	.eabi_attribute	8, 0	@ Tag_ARM_ISA_use
	.eabi_attribute	9, 2	@ Tag_THUMB_ISA_use
	.fpu	fpv5-d16
	.eabi_attribute	36, 1	@ Tag_FP_HP_extension
	.eabi_attribute	34, 1	@ Tag_CPU_unaligned_access
	.eabi_attribute	17, 1	@ Tag_ABI_PCS_GOT_use
	.eabi_attribute	20, 2	@ Tag_ABI_FP_denormal
	.eabi_attribute	21, 0	@ Tag_ABI_FP_exceptions
	.eabi_attribute	23, 1	@ Tag_ABI_FP_number_model
	.eabi_attribute	24, 1	@ Tag_ABI_align_needed
	.eabi_attribute	25, 1	@ Tag_ABI_align_preserved
	.eabi_attribute	28, 1	@ Tag_ABI_VFP_args
	.eabi_attribute	38, 1	@ Tag_ABI_FP_16bit_format
	.eabi_attribute	18, 2	@ Tag_ABI_PCS_wchar_t
	.eabi_attribute	26, 1	@ Tag_ABI_enum_size
	.eabi_attribute	14, 0	@ Tag_ABI_PCS_R9_use
	.file	"def.c"
	.file	1 "D:\\Keil_v5\\ARM\\ARMCLANG\\Bin\\..\\include" "stdint.h"
	.file	2 "E:\\Smart-access-control\\Hardware\\CODE" "./rt-thread/components/net/lwip-2.0.2/src/include\\lwip/arch.h"
	.file	3 "D:\\Keil_v5\\ARM\\ARMCLANG\\Bin\\..\\include" "stddef.h"
	.section	.text.lwip_htons,"ax",%progbits
	.hidden	lwip_htons                      @ -- Begin function lwip_htons
	.globl	lwip_htons
	.p2align	3
	.type	lwip_htons,%function
	.code	16                              @ @lwip_htons
	.thumb_func
lwip_htons:
.Lfunc_begin0:
	.file	4 "E:\\Smart-access-control\\Hardware\\CODE" "rt-thread/components/net/lwip-2.0.2/src/core/def.c"
	.loc	4 77 0                          @ rt-thread/components/net/lwip-2.0.2/src/core/def.c:77:0
	.fnstart
	.cfi_sections .debug_frame
	.cfi_startproc
@ %bb.0:
	.pad	#4
	sub	sp, #4
	.cfi_def_cfa_offset 4
                                        @ kill: def $r1 killed $r0
	strh.w	r0, [sp, #2]
.Ltmp0:
	.loc	4 78 17 prologue_end            @ rt-thread/components/net/lwip-2.0.2/src/core/def.c:78:17
	ldrh.w	r0, [sp, #2]
	rev16	r0, r0
	.loc	4 78 3 is_stmt 0                @ rt-thread/components/net/lwip-2.0.2/src/core/def.c:78:3
	add	sp, #4
	bx	lr
.Ltmp1:
.Lfunc_end0:
	.size	lwip_htons, .Lfunc_end0-lwip_htons
	.cfi_endproc
	.cantunwind
	.fnend
                                        @ -- End function
	.section	.text.lwip_htonl,"ax",%progbits
	.hidden	lwip_htonl                      @ -- Begin function lwip_htonl
	.globl	lwip_htonl
	.p2align	3
	.type	lwip_htonl,%function
	.code	16                              @ @lwip_htonl
	.thumb_func
lwip_htonl:
.Lfunc_begin1:
	.loc	4 91 0 is_stmt 1                @ rt-thread/components/net/lwip-2.0.2/src/core/def.c:91:0
	.fnstart
	.cfi_startproc
@ %bb.0:
	.pad	#4
	sub	sp, #4
	.cfi_def_cfa_offset 4
	str	r0, [sp]
.Ltmp2:
	.loc	4 92 17 prologue_end            @ rt-thread/components/net/lwip-2.0.2/src/core/def.c:92:17
	ldr	r1, [sp]
	lsls	r0, r1, #24
	and	r2, r1, #65280
	orr.w	r0, r0, r2, lsl #8
	and	r2, r1, #16711680
	orr.w	r0, r0, r2, lsr #8
	orr.w	r0, r0, r1, lsr #24
	.loc	4 92 3 is_stmt 0                @ rt-thread/components/net/lwip-2.0.2/src/core/def.c:92:3
	add	sp, #4
	bx	lr
.Ltmp3:
.Lfunc_end1:
	.size	lwip_htonl, .Lfunc_end1-lwip_htonl
	.cfi_endproc
	.cantunwind
	.fnend
                                        @ -- End function
	.section	.text.lwip_strnstr,"ax",%progbits
	.hidden	lwip_strnstr                    @ -- Begin function lwip_strnstr
	.globl	lwip_strnstr
	.p2align	3
	.type	lwip_strnstr,%function
	.code	16                              @ @lwip_strnstr
	.thumb_func
lwip_strnstr:
.Lfunc_begin2:
	.loc	4 106 0 is_stmt 1               @ rt-thread/components/net/lwip-2.0.2/src/core/def.c:106:0
	.fnstart
	.cfi_startproc
@ %bb.0:
	.save	{r7, lr}
	push	{r7, lr}
	.cfi_def_cfa_offset 8
	.cfi_offset lr, -4
	.cfi_offset r7, -8
	.pad	#32
	sub	sp, #32
	.cfi_def_cfa_offset 40
	str	r0, [sp, #24]
	str	r1, [sp, #20]
	str	r2, [sp, #16]
.Ltmp4:
	.loc	4 108 28 prologue_end           @ rt-thread/components/net/lwip-2.0.2/src/core/def.c:108:28
	ldr	r0, [sp, #20]
	.loc	4 108 21 is_stmt 0              @ rt-thread/components/net/lwip-2.0.2/src/core/def.c:108:21
	bl	strlen
	.loc	4 108 10                        @ rt-thread/components/net/lwip-2.0.2/src/core/def.c:108:10
	str	r0, [sp, #8]
.Ltmp5:
	.loc	4 109 7 is_stmt 1               @ rt-thread/components/net/lwip-2.0.2/src/core/def.c:109:7
	ldr	r0, [sp, #8]
.Ltmp6:
	.loc	4 109 7 is_stmt 0               @ rt-thread/components/net/lwip-2.0.2/src/core/def.c:109:7
	cbnz	r0, .LBB2_2
	b	.LBB2_1
.LBB2_1:
.Ltmp7:
	.loc	4 110 12 is_stmt 1              @ rt-thread/components/net/lwip-2.0.2/src/core/def.c:110:12
	ldr	r0, [sp, #24]
	.loc	4 110 5 is_stmt 0               @ rt-thread/components/net/lwip-2.0.2/src/core/def.c:110:5
	str	r0, [sp, #28]
	b	.LBB2_12
.Ltmp8:
.LBB2_2:
	.loc	4 112 12 is_stmt 1              @ rt-thread/components/net/lwip-2.0.2/src/core/def.c:112:12
	ldr	r0, [sp, #24]
	.loc	4 112 10 is_stmt 0              @ rt-thread/components/net/lwip-2.0.2/src/core/def.c:112:10
	str	r0, [sp, #12]
	.loc	4 112 8                         @ rt-thread/components/net/lwip-2.0.2/src/core/def.c:112:8
	b	.LBB2_3
.LBB2_3:                                @ =>This Inner Loop Header: Depth=1
.Ltmp9:
	.loc	4 112 21                        @ rt-thread/components/net/lwip-2.0.2/src/core/def.c:112:21
	ldr	r0, [sp, #12]
	.loc	4 112 20                        @ rt-thread/components/net/lwip-2.0.2/src/core/def.c:112:20
	ldrsb.w	r1, [r0]
	movs	r0, #0
	.loc	4 112 23                        @ rt-thread/components/net/lwip-2.0.2/src/core/def.c:112:23
	str	r0, [sp, #4]                    @ 4-byte Spill
	cbz	r1, .LBB2_5
	b	.LBB2_4
.LBB2_4:                                @   in Loop: Header=BB2_3 Depth=1
	.loc	4 112 27                        @ rt-thread/components/net/lwip-2.0.2/src/core/def.c:112:27
	ldr	r0, [sp, #12]
	.loc	4 112 31                        @ rt-thread/components/net/lwip-2.0.2/src/core/def.c:112:31
	ldr	r1, [sp, #8]
	.loc	4 112 29                        @ rt-thread/components/net/lwip-2.0.2/src/core/def.c:112:29
	add	r1, r0
	.loc	4 112 43                        @ rt-thread/components/net/lwip-2.0.2/src/core/def.c:112:43
	ldr	r0, [sp, #24]
	.loc	4 112 52                        @ rt-thread/components/net/lwip-2.0.2/src/core/def.c:112:52
	ldr	r2, [sp, #16]
	.loc	4 112 50                        @ rt-thread/components/net/lwip-2.0.2/src/core/def.c:112:50
	add	r2, r0
	movs	r0, #0
	.loc	4 112 40                        @ rt-thread/components/net/lwip-2.0.2/src/core/def.c:112:40
	cmp	r1, r2
	it	ls
	movls	r0, #1
	str	r0, [sp, #4]                    @ 4-byte Spill
	b	.LBB2_5
.LBB2_5:                                @   in Loop: Header=BB2_3 Depth=1
	.loc	4 0 0                           @ rt-thread/components/net/lwip-2.0.2/src/core/def.c:0:0
	ldr	r0, [sp, #4]                    @ 4-byte Reload
.Ltmp10:
	.loc	4 112 3                         @ rt-thread/components/net/lwip-2.0.2/src/core/def.c:112:3
	lsls	r0, r0, #31
	cbz	r0, .LBB2_11
	b	.LBB2_6
.LBB2_6:                                @   in Loop: Header=BB2_3 Depth=1
.Ltmp11:
	.loc	4 113 11 is_stmt 1              @ rt-thread/components/net/lwip-2.0.2/src/core/def.c:113:11
	ldr	r0, [sp, #12]
	.loc	4 113 10 is_stmt 0              @ rt-thread/components/net/lwip-2.0.2/src/core/def.c:113:10
	ldrsb.w	r0, [r0]
	.loc	4 113 17                        @ rt-thread/components/net/lwip-2.0.2/src/core/def.c:113:17
	ldr	r1, [sp, #20]
	.loc	4 113 16                        @ rt-thread/components/net/lwip-2.0.2/src/core/def.c:113:16
	ldrsb.w	r1, [r1]
	.loc	4 113 24                        @ rt-thread/components/net/lwip-2.0.2/src/core/def.c:113:24
	cmp	r0, r1
	bne	.LBB2_9
	b	.LBB2_7
.LBB2_7:                                @   in Loop: Header=BB2_3 Depth=1
	.loc	4 113 36                        @ rt-thread/components/net/lwip-2.0.2/src/core/def.c:113:36
	ldr	r0, [sp, #12]
	.loc	4 113 39                        @ rt-thread/components/net/lwip-2.0.2/src/core/def.c:113:39
	ldr	r1, [sp, #20]
	.loc	4 113 46                        @ rt-thread/components/net/lwip-2.0.2/src/core/def.c:113:46
	ldr	r2, [sp, #8]
	.loc	4 113 28                        @ rt-thread/components/net/lwip-2.0.2/src/core/def.c:113:28
	bl	strncmp
.Ltmp12:
	.loc	4 113 9                         @ rt-thread/components/net/lwip-2.0.2/src/core/def.c:113:9
	cbnz	r0, .LBB2_9
	b	.LBB2_8
.LBB2_8:
.Ltmp13:
	.loc	4 114 14 is_stmt 1              @ rt-thread/components/net/lwip-2.0.2/src/core/def.c:114:14
	ldr	r0, [sp, #12]
	.loc	4 114 7 is_stmt 0               @ rt-thread/components/net/lwip-2.0.2/src/core/def.c:114:7
	str	r0, [sp, #28]
	b	.LBB2_12
.Ltmp14:
.LBB2_9:                                @   in Loop: Header=BB2_3 Depth=1
	.loc	4 116 3 is_stmt 1               @ rt-thread/components/net/lwip-2.0.2/src/core/def.c:116:3
	b	.LBB2_10
.Ltmp15:
.LBB2_10:                               @   in Loop: Header=BB2_3 Depth=1
	.loc	4 112 57                        @ rt-thread/components/net/lwip-2.0.2/src/core/def.c:112:57
	ldr	r0, [sp, #12]
	adds	r0, #1
	str	r0, [sp, #12]
	.loc	4 112 3 is_stmt 0               @ rt-thread/components/net/lwip-2.0.2/src/core/def.c:112:3
	b	.LBB2_3
.Ltmp16:
.LBB2_11:
	.loc	4 0 3                           @ rt-thread/components/net/lwip-2.0.2/src/core/def.c:0:3
	movs	r0, #0
	.loc	4 117 3 is_stmt 1               @ rt-thread/components/net/lwip-2.0.2/src/core/def.c:117:3
	str	r0, [sp, #28]
	b	.LBB2_12
.LBB2_12:
	.loc	4 118 1                         @ rt-thread/components/net/lwip-2.0.2/src/core/def.c:118:1
	ldr	r0, [sp, #28]
	add	sp, #32
	pop	{r7, pc}
.Ltmp17:
.Lfunc_end2:
	.size	lwip_strnstr, .Lfunc_end2-lwip_strnstr
	.cfi_endproc
	.cantunwind
	.fnend
                                        @ -- End function
	.section	.text.lwip_stricmp,"ax",%progbits
	.hidden	lwip_stricmp                    @ -- Begin function lwip_stricmp
	.globl	lwip_stricmp
	.p2align	3
	.type	lwip_stricmp,%function
	.code	16                              @ @lwip_stricmp
	.thumb_func
lwip_stricmp:
.Lfunc_begin3:
	.loc	4 129 0                         @ rt-thread/components/net/lwip-2.0.2/src/core/def.c:129:0
	.fnstart
	.cfi_startproc
@ %bb.0:
	.pad	#16
	sub	sp, #16
	.cfi_def_cfa_offset 16
	str	r0, [sp, #8]
	str	r1, [sp, #4]
.Ltmp18:
	.loc	4 132 3 prologue_end            @ rt-thread/components/net/lwip-2.0.2/src/core/def.c:132:3
	b	.LBB3_1
.LBB3_1:                                @ =>This Inner Loop Header: Depth=1
.Ltmp19:
	.loc	4 133 15                        @ rt-thread/components/net/lwip-2.0.2/src/core/def.c:133:15
	ldr	r0, [sp, #8]
	adds	r1, r0, #1
	str	r1, [sp, #8]
	.loc	4 133 10 is_stmt 0              @ rt-thread/components/net/lwip-2.0.2/src/core/def.c:133:10
	ldrb	r0, [r0]
	.loc	4 133 8                         @ rt-thread/components/net/lwip-2.0.2/src/core/def.c:133:8
	strb.w	r0, [sp, #3]
	.loc	4 134 15 is_stmt 1              @ rt-thread/components/net/lwip-2.0.2/src/core/def.c:134:15
	ldr	r0, [sp, #4]
	adds	r1, r0, #1
	str	r1, [sp, #4]
	.loc	4 134 10 is_stmt 0              @ rt-thread/components/net/lwip-2.0.2/src/core/def.c:134:10
	ldrb	r0, [r0]
	.loc	4 134 8                         @ rt-thread/components/net/lwip-2.0.2/src/core/def.c:134:8
	strb.w	r0, [sp, #2]
.Ltmp20:
	.loc	4 135 9 is_stmt 1               @ rt-thread/components/net/lwip-2.0.2/src/core/def.c:135:9
	ldrsb.w	r0, [sp, #3]
	.loc	4 135 15 is_stmt 0              @ rt-thread/components/net/lwip-2.0.2/src/core/def.c:135:15
	ldrsb.w	r1, [sp, #2]
.Ltmp21:
	.loc	4 135 9                         @ rt-thread/components/net/lwip-2.0.2/src/core/def.c:135:9
	cmp	r0, r1
	beq	.LBB3_9
	b	.LBB3_2
.LBB3_2:                                @   in Loop: Header=BB3_1 Depth=1
.Ltmp22:
	.loc	4 136 21 is_stmt 1              @ rt-thread/components/net/lwip-2.0.2/src/core/def.c:136:21
	ldrb.w	r0, [sp, #3]
	.loc	4 136 24 is_stmt 0              @ rt-thread/components/net/lwip-2.0.2/src/core/def.c:136:24
	orr	r0, r0, #32
	.loc	4 136 12                        @ rt-thread/components/net/lwip-2.0.2/src/core/def.c:136:12
	strb.w	r0, [sp, #1]
.Ltmp23:
	.loc	4 137 12 is_stmt 1              @ rt-thread/components/net/lwip-2.0.2/src/core/def.c:137:12
	ldrsb.w	r0, [sp, #1]
	.loc	4 137 27 is_stmt 0              @ rt-thread/components/net/lwip-2.0.2/src/core/def.c:137:27
	cmp	r0, #97
	blt	.LBB3_7
	b	.LBB3_3
.LBB3_3:                                @   in Loop: Header=BB3_1 Depth=1
	.loc	4 137 31                        @ rt-thread/components/net/lwip-2.0.2/src/core/def.c:137:31
	ldrsb.w	r0, [sp, #1]
.Ltmp24:
	.loc	4 137 11                        @ rt-thread/components/net/lwip-2.0.2/src/core/def.c:137:11
	cmp	r0, #122
	bgt	.LBB3_7
	b	.LBB3_4
.LBB3_4:                                @   in Loop: Header=BB3_1 Depth=1
.Ltmp25:
	.loc	4 140 23 is_stmt 1              @ rt-thread/components/net/lwip-2.0.2/src/core/def.c:140:23
	ldrb.w	r0, [sp, #2]
	.loc	4 140 26 is_stmt 0              @ rt-thread/components/net/lwip-2.0.2/src/core/def.c:140:26
	orr	r0, r0, #32
	.loc	4 140 14                        @ rt-thread/components/net/lwip-2.0.2/src/core/def.c:140:14
	strb.w	r0, [sp]
.Ltmp26:
	.loc	4 141 13 is_stmt 1              @ rt-thread/components/net/lwip-2.0.2/src/core/def.c:141:13
	ldrsb.w	r0, [sp, #1]
	.loc	4 141 23 is_stmt 0              @ rt-thread/components/net/lwip-2.0.2/src/core/def.c:141:23
	ldrsb.w	r1, [sp]
.Ltmp27:
	.loc	4 141 13                        @ rt-thread/components/net/lwip-2.0.2/src/core/def.c:141:13
	cmp	r0, r1
	beq	.LBB3_6
	b	.LBB3_5
.LBB3_5:
	.loc	4 0 13                          @ rt-thread/components/net/lwip-2.0.2/src/core/def.c:0:13
	movs	r0, #1
.Ltmp28:
	.loc	4 144 11 is_stmt 1              @ rt-thread/components/net/lwip-2.0.2/src/core/def.c:144:11
	str	r0, [sp, #12]
	b	.LBB3_12
.Ltmp29:
.LBB3_6:                                @   in Loop: Header=BB3_1 Depth=1
	.loc	4 146 7                         @ rt-thread/components/net/lwip-2.0.2/src/core/def.c:146:7
	b	.LBB3_8
.Ltmp30:
.LBB3_7:
	.loc	4 0 7 is_stmt 0                 @ rt-thread/components/net/lwip-2.0.2/src/core/def.c:0:7
	movs	r0, #1
.Ltmp31:
	.loc	4 148 9 is_stmt 1               @ rt-thread/components/net/lwip-2.0.2/src/core/def.c:148:9
	str	r0, [sp, #12]
	b	.LBB3_12
.Ltmp32:
.LBB3_8:                                @   in Loop: Header=BB3_1 Depth=1
	.loc	4 150 5                         @ rt-thread/components/net/lwip-2.0.2/src/core/def.c:150:5
	b	.LBB3_9
.Ltmp33:
.LBB3_9:                                @   in Loop: Header=BB3_1 Depth=1
	.loc	4 151 3                         @ rt-thread/components/net/lwip-2.0.2/src/core/def.c:151:3
	b	.LBB3_10
.Ltmp34:
.LBB3_10:                               @   in Loop: Header=BB3_1 Depth=1
	.loc	4 151 12 is_stmt 0              @ rt-thread/components/net/lwip-2.0.2/src/core/def.c:151:12
	ldrsb.w	r0, [sp, #3]
.Ltmp35:
	.loc	4 151 3                         @ rt-thread/components/net/lwip-2.0.2/src/core/def.c:151:3
	cmp	r0, #0
	bne	.LBB3_1
	b	.LBB3_11
.Ltmp36:
.LBB3_11:
	.loc	4 0 3                           @ rt-thread/components/net/lwip-2.0.2/src/core/def.c:0:3
	movs	r0, #0
	.loc	4 152 3 is_stmt 1               @ rt-thread/components/net/lwip-2.0.2/src/core/def.c:152:3
	str	r0, [sp, #12]
	b	.LBB3_12
.LBB3_12:
	.loc	4 153 1                         @ rt-thread/components/net/lwip-2.0.2/src/core/def.c:153:1
	ldr	r0, [sp, #12]
	add	sp, #16
	bx	lr
.Ltmp37:
.Lfunc_end3:
	.size	lwip_stricmp, .Lfunc_end3-lwip_stricmp
	.cfi_endproc
	.cantunwind
	.fnend
                                        @ -- End function
	.section	.text.lwip_strnicmp,"ax",%progbits
	.hidden	lwip_strnicmp                   @ -- Begin function lwip_strnicmp
	.globl	lwip_strnicmp
	.p2align	3
	.type	lwip_strnicmp,%function
	.code	16                              @ @lwip_strnicmp
	.thumb_func
lwip_strnicmp:
.Lfunc_begin4:
	.loc	4 164 0                         @ rt-thread/components/net/lwip-2.0.2/src/core/def.c:164:0
	.fnstart
	.cfi_startproc
@ %bb.0:
	.pad	#24
	sub	sp, #24
	.cfi_def_cfa_offset 24
	str	r0, [sp, #16]
	str	r1, [sp, #12]
	str	r2, [sp, #8]
.Ltmp38:
	.loc	4 167 3 prologue_end            @ rt-thread/components/net/lwip-2.0.2/src/core/def.c:167:3
	b	.LBB4_1
.LBB4_1:                                @ =>This Inner Loop Header: Depth=1
.Ltmp39:
	.loc	4 168 15                        @ rt-thread/components/net/lwip-2.0.2/src/core/def.c:168:15
	ldr	r0, [sp, #16]
	adds	r1, r0, #1
	str	r1, [sp, #16]
	.loc	4 168 10 is_stmt 0              @ rt-thread/components/net/lwip-2.0.2/src/core/def.c:168:10
	ldrb	r0, [r0]
	.loc	4 168 8                         @ rt-thread/components/net/lwip-2.0.2/src/core/def.c:168:8
	strb.w	r0, [sp, #7]
	.loc	4 169 15 is_stmt 1              @ rt-thread/components/net/lwip-2.0.2/src/core/def.c:169:15
	ldr	r0, [sp, #12]
	adds	r1, r0, #1
	str	r1, [sp, #12]
	.loc	4 169 10 is_stmt 0              @ rt-thread/components/net/lwip-2.0.2/src/core/def.c:169:10
	ldrb	r0, [r0]
	.loc	4 169 8                         @ rt-thread/components/net/lwip-2.0.2/src/core/def.c:169:8
	strb.w	r0, [sp, #6]
.Ltmp40:
	.loc	4 170 9 is_stmt 1               @ rt-thread/components/net/lwip-2.0.2/src/core/def.c:170:9
	ldrsb.w	r0, [sp, #7]
	.loc	4 170 15 is_stmt 0              @ rt-thread/components/net/lwip-2.0.2/src/core/def.c:170:15
	ldrsb.w	r1, [sp, #6]
.Ltmp41:
	.loc	4 170 9                         @ rt-thread/components/net/lwip-2.0.2/src/core/def.c:170:9
	cmp	r0, r1
	beq	.LBB4_9
	b	.LBB4_2
.LBB4_2:                                @   in Loop: Header=BB4_1 Depth=1
.Ltmp42:
	.loc	4 171 21 is_stmt 1              @ rt-thread/components/net/lwip-2.0.2/src/core/def.c:171:21
	ldrb.w	r0, [sp, #7]
	.loc	4 171 24 is_stmt 0              @ rt-thread/components/net/lwip-2.0.2/src/core/def.c:171:24
	orr	r0, r0, #32
	.loc	4 171 12                        @ rt-thread/components/net/lwip-2.0.2/src/core/def.c:171:12
	strb.w	r0, [sp, #5]
.Ltmp43:
	.loc	4 172 12 is_stmt 1              @ rt-thread/components/net/lwip-2.0.2/src/core/def.c:172:12
	ldrsb.w	r0, [sp, #5]
	.loc	4 172 27 is_stmt 0              @ rt-thread/components/net/lwip-2.0.2/src/core/def.c:172:27
	cmp	r0, #97
	blt	.LBB4_7
	b	.LBB4_3
.LBB4_3:                                @   in Loop: Header=BB4_1 Depth=1
	.loc	4 172 31                        @ rt-thread/components/net/lwip-2.0.2/src/core/def.c:172:31
	ldrsb.w	r0, [sp, #5]
.Ltmp44:
	.loc	4 172 11                        @ rt-thread/components/net/lwip-2.0.2/src/core/def.c:172:11
	cmp	r0, #122
	bgt	.LBB4_7
	b	.LBB4_4
.LBB4_4:                                @   in Loop: Header=BB4_1 Depth=1
.Ltmp45:
	.loc	4 175 23 is_stmt 1              @ rt-thread/components/net/lwip-2.0.2/src/core/def.c:175:23
	ldrb.w	r0, [sp, #6]
	.loc	4 175 26 is_stmt 0              @ rt-thread/components/net/lwip-2.0.2/src/core/def.c:175:26
	orr	r0, r0, #32
	.loc	4 175 14                        @ rt-thread/components/net/lwip-2.0.2/src/core/def.c:175:14
	strb.w	r0, [sp, #4]
.Ltmp46:
	.loc	4 176 13 is_stmt 1              @ rt-thread/components/net/lwip-2.0.2/src/core/def.c:176:13
	ldrsb.w	r0, [sp, #5]
	.loc	4 176 23 is_stmt 0              @ rt-thread/components/net/lwip-2.0.2/src/core/def.c:176:23
	ldrsb.w	r1, [sp, #4]
.Ltmp47:
	.loc	4 176 13                        @ rt-thread/components/net/lwip-2.0.2/src/core/def.c:176:13
	cmp	r0, r1
	beq	.LBB4_6
	b	.LBB4_5
.LBB4_5:
	.loc	4 0 13                          @ rt-thread/components/net/lwip-2.0.2/src/core/def.c:0:13
	movs	r0, #1
.Ltmp48:
	.loc	4 179 11 is_stmt 1              @ rt-thread/components/net/lwip-2.0.2/src/core/def.c:179:11
	str	r0, [sp, #20]
	b	.LBB4_14
.Ltmp49:
.LBB4_6:                                @   in Loop: Header=BB4_1 Depth=1
	.loc	4 181 7                         @ rt-thread/components/net/lwip-2.0.2/src/core/def.c:181:7
	b	.LBB4_8
.Ltmp50:
.LBB4_7:
	.loc	4 0 7 is_stmt 0                 @ rt-thread/components/net/lwip-2.0.2/src/core/def.c:0:7
	movs	r0, #1
.Ltmp51:
	.loc	4 183 9 is_stmt 1               @ rt-thread/components/net/lwip-2.0.2/src/core/def.c:183:9
	str	r0, [sp, #20]
	b	.LBB4_14
.Ltmp52:
.LBB4_8:                                @   in Loop: Header=BB4_1 Depth=1
	.loc	4 185 5                         @ rt-thread/components/net/lwip-2.0.2/src/core/def.c:185:5
	b	.LBB4_9
.Ltmp53:
.LBB4_9:                                @   in Loop: Header=BB4_1 Depth=1
	.loc	4 186 3                         @ rt-thread/components/net/lwip-2.0.2/src/core/def.c:186:3
	b	.LBB4_10
.Ltmp54:
.LBB4_10:                               @   in Loop: Header=BB4_1 Depth=1
	.loc	4 186 15 is_stmt 0              @ rt-thread/components/net/lwip-2.0.2/src/core/def.c:186:15
	ldr	r1, [sp, #8]
	subs	r0, r1, #1
	str	r0, [sp, #8]
	movs	r0, #0
	.loc	4 186 18                        @ rt-thread/components/net/lwip-2.0.2/src/core/def.c:186:18
	str	r0, [sp]                        @ 4-byte Spill
	cbz	r1, .LBB4_12
	b	.LBB4_11
.LBB4_11:                               @   in Loop: Header=BB4_1 Depth=1
	.loc	4 186 21                        @ rt-thread/components/net/lwip-2.0.2/src/core/def.c:186:21
	ldrsb.w	r0, [sp, #7]
	.loc	4 186 24                        @ rt-thread/components/net/lwip-2.0.2/src/core/def.c:186:24
	cmp	r0, #0
	it	ne
	movne	r0, #1
	str	r0, [sp]                        @ 4-byte Spill
	b	.LBB4_12
.LBB4_12:                               @   in Loop: Header=BB4_1 Depth=1
	.loc	4 0 0                           @ rt-thread/components/net/lwip-2.0.2/src/core/def.c:0:0
	ldr	r0, [sp]                        @ 4-byte Reload
.Ltmp55:
	.loc	4 186 3                         @ rt-thread/components/net/lwip-2.0.2/src/core/def.c:186:3
	lsls	r0, r0, #31
	cmp	r0, #0
	bne	.LBB4_1
	b	.LBB4_13
.Ltmp56:
.LBB4_13:
	.loc	4 0 3                           @ rt-thread/components/net/lwip-2.0.2/src/core/def.c:0:3
	movs	r0, #0
	.loc	4 187 3 is_stmt 1               @ rt-thread/components/net/lwip-2.0.2/src/core/def.c:187:3
	str	r0, [sp, #20]
	b	.LBB4_14
.LBB4_14:
	.loc	4 188 1                         @ rt-thread/components/net/lwip-2.0.2/src/core/def.c:188:1
	ldr	r0, [sp, #20]
	add	sp, #24
	bx	lr
.Ltmp57:
.Lfunc_end4:
	.size	lwip_strnicmp, .Lfunc_end4-lwip_strnicmp
	.cfi_endproc
	.cantunwind
	.fnend
                                        @ -- End function
	.section	.text.lwip_itoa,"ax",%progbits
	.hidden	lwip_itoa                       @ -- Begin function lwip_itoa
	.globl	lwip_itoa
	.p2align	3
	.type	lwip_itoa,%function
	.code	16                              @ @lwip_itoa
	.thumb_func
lwip_itoa:
.Lfunc_begin5:
	.loc	4 199 0                         @ rt-thread/components/net/lwip-2.0.2/src/core/def.c:199:0
	.fnstart
	.cfi_startproc
@ %bb.0:
	.pad	#32
	sub	sp, #32
	.cfi_def_cfa_offset 32
	str	r0, [sp, #28]
	str	r1, [sp, #24]
	str	r2, [sp, #20]
	movs	r0, #10
.Ltmp58:
	.loc	4 200 13 prologue_end           @ rt-thread/components/net/lwip-2.0.2/src/core/def.c:200:13
	str	r0, [sp, #16]
	.loc	4 201 15                        @ rt-thread/components/net/lwip-2.0.2/src/core/def.c:201:15
	ldr	r0, [sp, #28]
	.loc	4 201 9 is_stmt 0               @ rt-thread/components/net/lwip-2.0.2/src/core/def.c:201:9
	str	r0, [sp, #12]
	.loc	4 201 31                        @ rt-thread/components/net/lwip-2.0.2/src/core/def.c:201:31
	ldr	r0, [sp, #28]
	.loc	4 201 24                        @ rt-thread/components/net/lwip-2.0.2/src/core/def.c:201:24
	str	r0, [sp, #8]
	.loc	4 205 3 is_stmt 1               @ rt-thread/components/net/lwip-2.0.2/src/core/def.c:205:3
	b	.LBB5_1
.LBB5_1:                                @ =>This Inner Loop Header: Depth=1
.Ltmp59:
	.loc	4 206 17                        @ rt-thread/components/net/lwip-2.0.2/src/core/def.c:206:17
	ldr	r0, [sp, #20]
	.loc	4 206 15 is_stmt 0              @ rt-thread/components/net/lwip-2.0.2/src/core/def.c:206:15
	str	r0, [sp]
	.loc	4 207 12 is_stmt 1              @ rt-thread/components/net/lwip-2.0.2/src/core/def.c:207:12
	ldr	r0, [sp, #20]
	movw	r1, #26215
	movt	r1, #26214
	smmul	r1, r0, r1
	asrs	r0, r1, #2
	add.w	r0, r0, r1, lsr #31
	str	r0, [sp, #20]
	.loc	4 208 94                        @ rt-thread/components/net/lwip-2.0.2/src/core/def.c:208:94
	ldr	r0, [sp]
	.loc	4 208 106 is_stmt 0             @ rt-thread/components/net/lwip-2.0.2/src/core/def.c:208:106
	ldr	r1, [sp, #20]
	.loc	4 208 113                       @ rt-thread/components/net/lwip-2.0.2/src/core/def.c:208:113
	add.w	r1, r1, r1, lsl #2
	.loc	4 208 104                       @ rt-thread/components/net/lwip-2.0.2/src/core/def.c:208:104
	sub.w	r0, r0, r1, lsl #1
	.loc	4 208 14                        @ rt-thread/components/net/lwip-2.0.2/src/core/def.c:208:14
	movw	r1, :lower16:.L.str
	movt	r1, :upper16:.L.str
	.loc	4 208 91                        @ rt-thread/components/net/lwip-2.0.2/src/core/def.c:208:91
	add	r0, r1
	.loc	4 208 14                        @ rt-thread/components/net/lwip-2.0.2/src/core/def.c:208:14
	ldrb.w	r0, [r0, #35]
	.loc	4 208 9                         @ rt-thread/components/net/lwip-2.0.2/src/core/def.c:208:9
	ldr	r1, [sp, #12]
	adds	r2, r1, #1
	str	r2, [sp, #12]
	.loc	4 208 12                        @ rt-thread/components/net/lwip-2.0.2/src/core/def.c:208:12
	strb	r0, [r1]
	.loc	4 209 3 is_stmt 1               @ rt-thread/components/net/lwip-2.0.2/src/core/def.c:209:3
	b	.LBB5_2
.Ltmp60:
.LBB5_2:                                @   in Loop: Header=BB5_1 Depth=1
	.loc	4 209 11 is_stmt 0              @ rt-thread/components/net/lwip-2.0.2/src/core/def.c:209:11
	ldr	r0, [sp, #20]
.Ltmp61:
	.loc	4 209 3                         @ rt-thread/components/net/lwip-2.0.2/src/core/def.c:209:3
	cmp	r0, #0
	bne	.LBB5_1
	b	.LBB5_3
.Ltmp62:
.LBB5_3:
	.loc	4 212 7 is_stmt 1               @ rt-thread/components/net/lwip-2.0.2/src/core/def.c:212:7
	ldr	r0, [sp]
.Ltmp63:
	.loc	4 212 7 is_stmt 0               @ rt-thread/components/net/lwip-2.0.2/src/core/def.c:212:7
	cmp.w	r0, #-1
	bgt	.LBB5_5
	b	.LBB5_4
.LBB5_4:
.Ltmp64:
	.loc	4 213 10 is_stmt 1              @ rt-thread/components/net/lwip-2.0.2/src/core/def.c:213:10
	ldr	r1, [sp, #12]
	adds	r0, r1, #1
	str	r0, [sp, #12]
	movs	r0, #45
	.loc	4 213 13 is_stmt 0              @ rt-thread/components/net/lwip-2.0.2/src/core/def.c:213:13
	strb	r0, [r1]
	.loc	4 214 3 is_stmt 1               @ rt-thread/components/net/lwip-2.0.2/src/core/def.c:214:3
	b	.LBB5_5
.Ltmp65:
.LBB5_5:
	.loc	4 215 7                         @ rt-thread/components/net/lwip-2.0.2/src/core/def.c:215:7
	ldr	r1, [sp, #12]
	subs	r0, r1, #1
	str	r0, [sp, #12]
	movs	r0, #0
	.loc	4 215 10 is_stmt 0              @ rt-thread/components/net/lwip-2.0.2/src/core/def.c:215:10
	strb	r0, [r1]
	.loc	4 216 3 is_stmt 1               @ rt-thread/components/net/lwip-2.0.2/src/core/def.c:216:3
	b	.LBB5_6
.LBB5_6:                                @ =>This Inner Loop Header: Depth=1
	.loc	4 216 9 is_stmt 0               @ rt-thread/components/net/lwip-2.0.2/src/core/def.c:216:9
	ldr	r0, [sp, #8]
	.loc	4 216 16                        @ rt-thread/components/net/lwip-2.0.2/src/core/def.c:216:16
	ldr	r1, [sp, #12]
	.loc	4 216 3                         @ rt-thread/components/net/lwip-2.0.2/src/core/def.c:216:3
	cmp	r0, r1
	bhs	.LBB5_8
	b	.LBB5_7
.LBB5_7:                                @   in Loop: Header=BB5_6 Depth=1
.Ltmp66:
	.loc	4 217 17 is_stmt 1              @ rt-thread/components/net/lwip-2.0.2/src/core/def.c:217:17
	ldr	r0, [sp, #12]
	.loc	4 217 16 is_stmt 0              @ rt-thread/components/net/lwip-2.0.2/src/core/def.c:217:16
	ldrb	r0, [r0]
	.loc	4 217 14                        @ rt-thread/components/net/lwip-2.0.2/src/core/def.c:217:14
	strb.w	r0, [sp, #7]
	.loc	4 218 14 is_stmt 1              @ rt-thread/components/net/lwip-2.0.2/src/core/def.c:218:14
	ldr	r0, [sp, #8]
	.loc	4 218 13 is_stmt 0              @ rt-thread/components/net/lwip-2.0.2/src/core/def.c:218:13
	ldrb	r0, [r0]
	.loc	4 218 9                         @ rt-thread/components/net/lwip-2.0.2/src/core/def.c:218:9
	ldr	r1, [sp, #12]
	subs	r2, r1, #1
	str	r2, [sp, #12]
	.loc	4 218 11                        @ rt-thread/components/net/lwip-2.0.2/src/core/def.c:218:11
	strb	r0, [r1]
	.loc	4 219 15 is_stmt 1              @ rt-thread/components/net/lwip-2.0.2/src/core/def.c:219:15
	ldrb.w	r0, [sp, #7]
	.loc	4 219 10 is_stmt 0              @ rt-thread/components/net/lwip-2.0.2/src/core/def.c:219:10
	ldr	r1, [sp, #8]
	adds	r2, r1, #1
	str	r2, [sp, #8]
	.loc	4 219 13                        @ rt-thread/components/net/lwip-2.0.2/src/core/def.c:219:13
	strb	r0, [r1]
.Ltmp67:
	.loc	4 216 3 is_stmt 1               @ rt-thread/components/net/lwip-2.0.2/src/core/def.c:216:3
	b	.LBB5_6
.LBB5_8:
	.loc	4 221 1                         @ rt-thread/components/net/lwip-2.0.2/src/core/def.c:221:1
	add	sp, #32
	bx	lr
.Ltmp68:
.Lfunc_end5:
	.size	lwip_itoa, .Lfunc_end5-lwip_itoa
	.cfi_endproc
	.cantunwind
	.fnend
                                        @ -- End function
	.type	.L.str,%object                  @ @.str
	.section	.rodata.str1.1,"aMS",%progbits,1
.L.str:
	.asciz	"zyxwvutsrqponmlkjihgfedcba9876543210123456789abcdefghijklmnopqrstuvwxyz"
	.size	.L.str, 72

	.file	5 "D:\\Keil_v5\\ARM\\ARMCLANG\\Bin\\..\\include" "stdlib.h"
	.section	".note.GNU-stack","",%progbits
	.eabi_attribute	30, 6	@ Tag_ABI_optimization_goals
	.ARM_attribute	16, 1	@ Tag_AV_eba