	.text
	.syntax unified
	.eabi_attribute	67, "2.09"	@ Tag_conformance
	.cpu	cortex-m7
	.eabi_attribute	6, 13	@ Tag_CPU_arch
	.eabi_attribute	7, 77	@ Tag_CPU_arch_profile
	.eabi_attribute	8, 0	@ Tag_ARM_ISA_use
	.eabi_attribute	9, 2	@ Tag_THUMB_ISA_use
	.fpu	fpv5-d16
	.eabi_attribute	36, 1	@ Tag_FP_HP_extension
	.eabi_attribute	34, 1	@ Tag_CPU_unaligned_access
	.eabi_attribute	17, 1	@ Tag_ABI_PCS_GOT_use
	.eabi_attribute	20, 2	@ Tag_ABI_FP_denormal
	.eabi_attribute	21, 0	@ Tag_ABI_FP_exceptions
	.eabi_attribute	23, 1	@ Tag_ABI_FP_number_model
	.eabi_attribute	24, 1	@ Tag_ABI_align_needed
	.eabi_attribute	25, 1	@ Tag_ABI_align_preserved
	.eabi_attribute	28, 1	@ Tag_ABI_VFP_args
	.eabi_attribute	38, 1	@ Tag_ABI_FP_16bit_format
	.eabi_attribute	18, 2	@ Tag_ABI_PCS_wchar_t
	.eabi_attribute	26, 1	@ Tag_ABI_enum_size
	.eabi_attribute	14, 0	@ Tag_ABI_PCS_R9_use
	.file	"device.c"
	.file	1 "E:\\Smart-access-control\\Hardware\\CODE" "rt-thread/include\\rtdef.h"
	.section	.text.rt_device_register,"ax",%progbits
	.hidden	rt_device_register              @ -- Begin function rt_device_register
	.globl	rt_device_register
	.p2align	3
	.type	rt_device_register,%function
	.code	16                              @ @rt_device_register
	.thumb_func
rt_device_register:
.Lfunc_begin0:
	.file	2 "E:\\Smart-access-control\\Hardware\\CODE" "rt-thread/src/device.c"
	.loc	2 52 0                          @ rt-thread/src/device.c:52:0
	.fnstart
	.cfi_sections .debug_frame
	.cfi_startproc
@ %bb.0:
	.save	{r7, lr}
	push	{r7, lr}
	.cfi_def_cfa_offset 8
	.cfi_offset lr, -4
	.cfi_offset r7, -8
	.pad	#24
	sub	sp, #24
	.cfi_def_cfa_offset 32
                                        @ kill: def $r3 killed $r2
	str	r0, [sp, #16]
	str	r1, [sp, #12]
	strh.w	r2, [sp, #10]
.Ltmp0:
	.loc	2 53 9 prologue_end             @ rt-thread/src/device.c:53:9
	ldr	r0, [sp, #16]
.Ltmp1:
	.loc	2 53 9 is_stmt 0                @ rt-thread/src/device.c:53:9
	cbnz	r0, .LBB0_2
	b	.LBB0_1
.LBB0_1:
	.loc	2 0 9                           @ rt-thread/src/device.c:0:9
	mov.w	r0, #-1
.Ltmp2:
	.loc	2 54 9 is_stmt 1                @ rt-thread/src/device.c:54:9
	str	r0, [sp, #20]
	b	.LBB0_5
.Ltmp3:
.LBB0_2:
	.loc	2 56 24                         @ rt-thread/src/device.c:56:24
	ldr	r0, [sp, #12]
	.loc	2 56 9 is_stmt 0                @ rt-thread/src/device.c:56:9
	bl	rt_device_find
.Ltmp4:
	.loc	2 56 9                          @ rt-thread/src/device.c:56:9
	cbz	r0, .LBB0_4
	b	.LBB0_3
.LBB0_3:
	.loc	2 0 9                           @ rt-thread/src/device.c:0:9
	mov.w	r0, #-1
.Ltmp5:
	.loc	2 57 9 is_stmt 1                @ rt-thread/src/device.c:57:9
	str	r0, [sp, #20]
	b	.LBB0_5
.Ltmp6:
.LBB0_4:
	.loc	2 59 22                         @ rt-thread/src/device.c:59:22
	ldr	r0, [sp, #16]
	.loc	2 59 60 is_stmt 0               @ rt-thread/src/device.c:59:60
	ldr	r2, [sp, #12]
	movs	r1, #9
	.loc	2 59 5                          @ rt-thread/src/device.c:59:5
	bl	rt_object_init
	.loc	2 60 17 is_stmt 1               @ rt-thread/src/device.c:60:17
	ldrh.w	r0, [sp, #10]
	.loc	2 60 5 is_stmt 0                @ rt-thread/src/device.c:60:5
	ldr	r1, [sp, #16]
	.loc	2 60 15                         @ rt-thread/src/device.c:60:15
	strh	r0, [r1, #22]
	.loc	2 61 5 is_stmt 1                @ rt-thread/src/device.c:61:5
	ldr	r1, [sp, #16]
	movs	r0, #0
	.loc	2 61 20 is_stmt 0               @ rt-thread/src/device.c:61:20
	str	r0, [sp, #4]                    @ 4-byte Spill
	strb	r0, [r1, #26]
	.loc	2 62 5 is_stmt 1                @ rt-thread/src/device.c:62:5
	ldr	r1, [sp, #16]
	.loc	2 62 20 is_stmt 0               @ rt-thread/src/device.c:62:20
	strh	r0, [r1, #24]
	.loc	2 65 5 is_stmt 1                @ rt-thread/src/device.c:65:5
	ldr	r1, [sp, #16]
	.loc	2 65 15 is_stmt 0               @ rt-thread/src/device.c:65:15
	str	r0, [r1, #60]
	.loc	2 66 22 is_stmt 1               @ rt-thread/src/device.c:66:22
	ldr	r0, [sp, #16]
	.loc	2 66 27 is_stmt 0               @ rt-thread/src/device.c:66:27
	adds	r0, #64
	.loc	2 66 5                          @ rt-thread/src/device.c:66:5
	bl	rt_wqueue_init
	ldr	r0, [sp, #4]                    @ 4-byte Reload
	.loc	2 69 5 is_stmt 1                @ rt-thread/src/device.c:69:5
	str	r0, [sp, #20]
	b	.LBB0_5
.LBB0_5:
	.loc	2 70 1                          @ rt-thread/src/device.c:70:1
	ldr	r0, [sp, #20]
	add	sp, #24
	pop	{r7, pc}
.Ltmp7:
.Lfunc_end0:
	.size	rt_device_register, .Lfunc_end0-rt_device_register
	.cfi_endproc
	.cantunwind
	.fnend
                                        @ -- End function
	.section	.text.rt_device_find,"ax",%progbits
	.hidden	rt_device_find                  @ -- Begin function rt_device_find
	.globl	rt_device_find
	.p2align	3
	.type	rt_device_find,%function
	.code	16                              @ @rt_device_find
	.thumb_func
rt_device_find:
.Lfunc_begin1:
	.loc	2 113 0                         @ rt-thread/src/device.c:113:0
	.fnstart
	.cfi_startproc
@ %bb.0:
	.save	{r7, lr}
	push	{r7, lr}
	.cfi_def_cfa_offset 8
	.cfi_offset lr, -4
	.cfi_offset r7, -8
	.pad	#24
	sub	sp, #24
	.cfi_def_cfa_offset 32
	str	r0, [sp, #16]
.Ltmp8:
	.loc	2 119 9 prologue_end            @ rt-thread/src/device.c:119:9
	bl	rt_thread_self
.Ltmp9:
	.loc	2 119 9 is_stmt 0               @ rt-thread/src/device.c:119:9
	cbz	r0, .LBB1_2
	b	.LBB1_1
.LBB1_1:
.Ltmp10:
	.loc	2 120 9 is_stmt 1               @ rt-thread/src/device.c:120:9
	bl	rt_enter_critical
	b	.LBB1_2
.Ltmp11:
.LBB1_2:
	.loc	2 0 9 is_stmt 0                 @ rt-thread/src/device.c:0:9
	movs	r0, #9
	.loc	2 123 19 is_stmt 1              @ rt-thread/src/device.c:123:19
	bl	rt_object_get_information
	.loc	2 123 17 is_stmt 0              @ rt-thread/src/device.c:123:17
	str	r0, [sp, #4]
.Ltmp12:
	.loc	2 124 5 is_stmt 1               @ rt-thread/src/device.c:124:5
	ldr	r0, [sp, #4]
.Ltmp13:
	.loc	2 124 5 is_stmt 0               @ rt-thread/src/device.c:124:5
	cbnz	r0, .LBB1_4
	b	.LBB1_3
.LBB1_3:
.Ltmp14:
	.loc	2 124 5                         @ rt-thread/src/device.c:124:5
	movw	r0, :lower16:.L.str.3
	movt	r0, :upper16:.L.str.3
	movw	r1, :lower16:.L__FUNCTION__.rt_device_find
	movt	r1, :upper16:.L__FUNCTION__.rt_device_find
	movs	r2, #124
	bl	rt_assert_handler
	b	.LBB1_4
.Ltmp15:
.LBB1_4:
	.loc	2 125 18 is_stmt 1              @ rt-thread/src/device.c:125:18
	ldr	r0, [sp, #4]
	.loc	2 125 43 is_stmt 0              @ rt-thread/src/device.c:125:43
	ldr	r0, [r0, #4]
	.loc	2 125 16                        @ rt-thread/src/device.c:125:16
	str	r0, [sp, #8]
	.loc	2 125 10                        @ rt-thread/src/device.c:125:10
	b	.LBB1_5
.LBB1_5:                                @ =>This Inner Loop Header: Depth=1
.Ltmp16:
	.loc	2 126 10 is_stmt 1              @ rt-thread/src/device.c:126:10
	ldr	r0, [sp, #8]
	.loc	2 126 20 is_stmt 0              @ rt-thread/src/device.c:126:20
	ldr	r1, [sp, #4]
	.loc	2 126 33                        @ rt-thread/src/device.c:126:33
	adds	r1, #4
.Ltmp17:
	.loc	2 125 5 is_stmt 1               @ rt-thread/src/device.c:125:5
	cmp	r0, r1
	beq	.LBB1_12
	b	.LBB1_6
.LBB1_6:                                @   in Loop: Header=BB1_5 Depth=1
.Ltmp18:
	.loc	2 129 18                        @ rt-thread/src/device.c:129:18
	ldr	r0, [sp, #8]
	subs	r0, #12
	.loc	2 129 16 is_stmt 0              @ rt-thread/src/device.c:129:16
	str	r0, [sp, #12]
.Ltmp19:
	.loc	2 130 24 is_stmt 1              @ rt-thread/src/device.c:130:24
	ldr	r0, [sp, #12]
	.loc	2 130 38 is_stmt 0              @ rt-thread/src/device.c:130:38
	ldr	r1, [sp, #16]
	movs	r2, #8
	.loc	2 130 13                        @ rt-thread/src/device.c:130:13
	bl	rt_strncmp
.Ltmp20:
	.loc	2 130 13                        @ rt-thread/src/device.c:130:13
	cbnz	r0, .LBB1_10
	b	.LBB1_7
.LBB1_7:
.Ltmp21:
	.loc	2 133 17 is_stmt 1              @ rt-thread/src/device.c:133:17
	bl	rt_thread_self
.Ltmp22:
	.loc	2 133 17 is_stmt 0              @ rt-thread/src/device.c:133:17
	cbz	r0, .LBB1_9
	b	.LBB1_8
.LBB1_8:
.Ltmp23:
	.loc	2 134 17 is_stmt 1              @ rt-thread/src/device.c:134:17
	bl	rt_exit_critical
	b	.LBB1_9
.Ltmp24:
.LBB1_9:
	.loc	2 136 33                        @ rt-thread/src/device.c:136:33
	ldr	r0, [sp, #12]
	.loc	2 136 13 is_stmt 0              @ rt-thread/src/device.c:136:13
	str	r0, [sp, #20]
	b	.LBB1_15
.Ltmp25:
.LBB1_10:                               @   in Loop: Header=BB1_5 Depth=1
	.loc	2 138 5 is_stmt 1               @ rt-thread/src/device.c:138:5
	b	.LBB1_11
.Ltmp26:
.LBB1_11:                               @   in Loop: Header=BB1_5 Depth=1
	.loc	2 127 18                        @ rt-thread/src/device.c:127:18
	ldr	r0, [sp, #8]
	.loc	2 127 24 is_stmt 0              @ rt-thread/src/device.c:127:24
	ldr	r0, [r0]
	.loc	2 127 16                        @ rt-thread/src/device.c:127:16
	str	r0, [sp, #8]
	.loc	2 125 5 is_stmt 1               @ rt-thread/src/device.c:125:5
	b	.LBB1_5
.Ltmp27:
.LBB1_12:
	.loc	2 141 9                         @ rt-thread/src/device.c:141:9
	bl	rt_thread_self
.Ltmp28:
	.loc	2 141 9 is_stmt 0               @ rt-thread/src/device.c:141:9
	cbz	r0, .LBB1_14
	b	.LBB1_13
.LBB1_13:
.Ltmp29:
	.loc	2 142 9 is_stmt 1               @ rt-thread/src/device.c:142:9
	bl	rt_exit_critical
	b	.LBB1_14
.Ltmp30:
.LBB1_14:
	.loc	2 0 9 is_stmt 0                 @ rt-thread/src/device.c:0:9
	movs	r0, #0
	.loc	2 145 5 is_stmt 1               @ rt-thread/src/device.c:145:5
	str	r0, [sp, #20]
	b	.LBB1_15
.LBB1_15:
	.loc	2 146 1                         @ rt-thread/src/device.c:146:1
	ldr	r0, [sp, #20]
	add	sp, #24
	pop	{r7, pc}
.Ltmp31:
.Lfunc_end1:
	.size	rt_device_find, .Lfunc_end1-rt_device_find
	.cfi_endproc
	.cantunwind
	.fnend
                                        @ -- End function
	.section	.text.rt_wqueue_init,"ax",%progbits
	.p2align	3                               @ -- Begin function rt_wqueue_init
	.type	rt_wqueue_init,%function
	.code	16                              @ @rt_wqueue_init
	.thumb_func
rt_wqueue_init:
.Lfunc_begin2:
	.file	3 "E:\\Smart-access-control\\Hardware\\CODE" "rt-thread/components/drivers/include/ipc/waitqueue.h"
	.loc	3 36 0                          @ rt-thread/components/drivers/include/ipc/waitqueue.h:36:0
	.fnstart
	.cfi_startproc
@ %bb.0:
	.save	{r7, lr}
	push	{r7, lr}
	.cfi_def_cfa_offset 8
	.cfi_offset lr, -4
	.cfi_offset r7, -8
	.pad	#8
	sub	sp, #8
	.cfi_def_cfa_offset 16
	str	r0, [sp, #4]
.Ltmp32:
	.loc	3 37 5 prologue_end             @ rt-thread/components/drivers/include/ipc/waitqueue.h:37:5
	ldr	r0, [sp, #4]
.Ltmp33:
	.loc	3 37 5 is_stmt 0                @ rt-thread/components/drivers/include/ipc/waitqueue.h:37:5
	cbnz	r0, .LBB2_2
	b	.LBB2_1
.LBB2_1:
.Ltmp34:
	.loc	3 37 5                          @ rt-thread/components/drivers/include/ipc/waitqueue.h:37:5
	movw	r0, :lower16:.L.str.7
	movt	r0, :upper16:.L.str.7
	movw	r1, :lower16:.L__FUNCTION__.rt_wqueue_init
	movt	r1, :upper16:.L__FUNCTION__.rt_wqueue_init
	movs	r2, #37
	bl	rt_assert_handler
	b	.LBB2_2
.Ltmp35:
.LBB2_2:
	.loc	3 39 5 is_stmt 1                @ rt-thread/components/drivers/include/ipc/waitqueue.h:39:5
	ldr	r1, [sp, #4]
	movs	r0, #0
	.loc	3 39 17 is_stmt 0               @ rt-thread/components/drivers/include/ipc/waitqueue.h:39:17
	str	r0, [r1]
	.loc	3 40 20 is_stmt 1               @ rt-thread/components/drivers/include/ipc/waitqueue.h:40:20
	ldr	r0, [sp, #4]
	.loc	3 40 27 is_stmt 0               @ rt-thread/components/drivers/include/ipc/waitqueue.h:40:27
	adds	r0, #4
	.loc	3 40 5                          @ rt-thread/components/drivers/include/ipc/waitqueue.h:40:5
	bl	rt_list_init
	.loc	3 41 1 is_stmt 1                @ rt-thread/components/drivers/include/ipc/waitqueue.h:41:1
	add	sp, #8
	pop	{r7, pc}
.Ltmp36:
.Lfunc_end2:
	.size	rt_wqueue_init, .Lfunc_end2-rt_wqueue_init
	.cfi_endproc
	.cantunwind
	.fnend
                                        @ -- End function
	.section	.text.rt_device_unregister,"ax",%progbits
	.hidden	rt_device_unregister            @ -- Begin function rt_device_unregister
	.globl	rt_device_unregister
	.p2align	3
	.type	rt_device_unregister,%function
	.code	16                              @ @rt_device_unregister
	.thumb_func
rt_device_unregister:
.Lfunc_begin3:
	.loc	2 81 0                          @ rt-thread/src/device.c:81:0
	.fnstart
	.cfi_startproc
@ %bb.0:
	.save	{r7, lr}
	push	{r7, lr}
	.cfi_def_cfa_offset 8
	.cfi_offset lr, -4
	.cfi_offset r7, -8
	.pad	#8
	sub	sp, #8
	.cfi_def_cfa_offset 16
	str	r0, [sp, #4]
.Ltmp37:
	.loc	2 82 5 prologue_end             @ rt-thread/src/device.c:82:5
	ldr	r0, [sp, #4]
.Ltmp38:
	.loc	2 82 5 is_stmt 0                @ rt-thread/src/device.c:82:5
	cbnz	r0, .LBB3_2
	b	.LBB3_1
.LBB3_1:
.Ltmp39:
	.loc	2 82 5                          @ rt-thread/src/device.c:82:5
	movw	r0, :lower16:.L.str
	movt	r0, :upper16:.L.str
	movw	r1, :lower16:.L__FUNCTION__.rt_device_unregister
	movt	r1, :upper16:.L__FUNCTION__.rt_device_unregister
	movs	r2, #82
	bl	rt_assert_handler
	b	.LBB3_2
.Ltmp40:
.LBB3_2:
	.loc	2 83 5 is_stmt 1                @ rt-thread/src/device.c:83:5
	ldr	r0, [sp, #4]
	bl	rt_object_get_type
.Ltmp41:
	.loc	2 83 5 is_stmt 0                @ rt-thread/src/device.c:83:5
	cmp	r0, #9
	beq	.LBB3_4
	b	.LBB3_3
.LBB3_3:
.Ltmp42:
	.loc	2 83 5                          @ rt-thread/src/device.c:83:5
	movw	r0, :lower16:.L.str.1
	movt	r0, :upper16:.L.str.1
	movw	r1, :lower16:.L__FUNCTION__.rt_device_unregister
	movt	r1, :upper16:.L__FUNCTION__.rt_device_unregister
	movs	r2, #83
	bl	rt_assert_handler
	b	.LBB3_4
.Ltmp43:
.LBB3_4:
	.loc	2 84 5 is_stmt 1                @ rt-thread/src/device.c:84:5
	ldr	r0, [sp, #4]
	bl	rt_object_is_systemobject
.Ltmp44:
	.loc	2 84 5 is_stmt 0                @ rt-thread/src/device.c:84:5
	cbnz	r0, .LBB3_6
	b	.LBB3_5
.LBB3_5:
.Ltmp45:
	.loc	2 84 5                          @ rt-thread/src/device.c:84:5
	movw	r0, :lower16:.L.str.2
	movt	r0, :upper16:.L.str.2
	movw	r1, :lower16:.L__FUNCTION__.rt_device_unregister
	movt	r1, :upper16:.L__FUNCTION__.rt_device_unregister
	movs	r2, #84
	bl	rt_assert_handler
	b	.LBB3_6
.Ltmp46:
.LBB3_6:
	.loc	2 86 24 is_stmt 1               @ rt-thread/src/device.c:86:24
	ldr	r0, [sp, #4]
	.loc	2 86 5 is_stmt 0                @ rt-thread/src/device.c:86:5
	bl	rt_object_detach
	movs	r0, #0
	.loc	2 88 5 is_stmt 1                @ rt-thread/src/device.c:88:5
	add	sp, #8
	pop	{r7, pc}
.Ltmp47:
.Lfunc_end3:
	.size	rt_device_unregister, .Lfunc_end3-rt_device_unregister
	.cfi_endproc
	.cantunwind
	.fnend
                                        @ -- End function
	.section	.text.rt_device_init_all,"ax",%progbits
	.hidden	rt_device_init_all              @ -- Begin function rt_device_init_all
	.globl	rt_device_init_all
	.p2align	3
	.type	rt_device_init_all,%function
	.code	16                              @ @rt_device_init_all
	.thumb_func
rt_device_init_all:
.Lfunc_begin4:
	.loc	2 101 0                         @ rt-thread/src/device.c:101:0
	.fnstart
	.cfi_startproc
@ %bb.0:
	movs	r0, #0
.Ltmp48:
	.loc	2 102 5 prologue_end            @ rt-thread/src/device.c:102:5
	bx	lr
.Ltmp49:
.Lfunc_end4:
	.size	rt_device_init_all, .Lfunc_end4-rt_device_init_all
	.cfi_endproc
	.cantunwind
	.fnend
                                        @ -- End function
	.section	.text.rt_device_create,"ax",%progbits
	.hidden	rt_device_create                @ -- Begin function rt_device_create
	.globl	rt_device_create
	.p2align	3
	.type	rt_device_create,%function
	.code	16                              @ @rt_device_create
	.thumb_func
rt_device_create:
.Lfunc_begin5:
	.loc	2 159 0                         @ rt-thread/src/device.c:159:0
	.fnstart
	.cfi_startproc
@ %bb.0:
	.save	{r7, lr}
	push	{r7, lr}
	.cfi_def_cfa_offset 8
	.cfi_offset lr, -4
	.cfi_offset r7, -8
	.pad	#16
	sub	sp, #16
	.cfi_def_cfa_offset 24
	str	r0, [sp, #12]
	str	r1, [sp, #8]
	movs	r0, #80
.Ltmp50:
	.loc	2 163 10 prologue_end           @ rt-thread/src/device.c:163:10
	str	r0, [sp, #4]
	.loc	2 164 19                        @ rt-thread/src/device.c:164:19
	ldr	r0, [sp, #8]
	adds	r0, #3
	bic	r0, r0, #3
	.loc	2 164 17 is_stmt 0              @ rt-thread/src/device.c:164:17
	str	r0, [sp, #8]
	.loc	2 166 13 is_stmt 1              @ rt-thread/src/device.c:166:13
	ldr	r1, [sp, #8]
	.loc	2 166 10 is_stmt 0              @ rt-thread/src/device.c:166:10
	ldr	r0, [sp, #4]
	add	r0, r1
	str	r0, [sp, #4]
	.loc	2 168 37 is_stmt 1              @ rt-thread/src/device.c:168:37
	ldr	r0, [sp, #4]
	.loc	2 168 27 is_stmt 0              @ rt-thread/src/device.c:168:27
	bl	rt_malloc
	.loc	2 168 12                        @ rt-thread/src/device.c:168:12
	str	r0, [sp]
.Ltmp51:
	.loc	2 169 9 is_stmt 1               @ rt-thread/src/device.c:169:9
	ldr	r0, [sp]
.Ltmp52:
	.loc	2 169 9 is_stmt 0               @ rt-thread/src/device.c:169:9
	cbz	r0, .LBB5_2
	b	.LBB5_1
.LBB5_1:
.Ltmp53:
	.loc	2 171 19 is_stmt 1              @ rt-thread/src/device.c:171:19
	ldr	r0, [sp]
	movs	r1, #0
	movs	r2, #80
	.loc	2 171 9 is_stmt 0               @ rt-thread/src/device.c:171:9
	bl	rt_memset
	.loc	2 172 51 is_stmt 1              @ rt-thread/src/device.c:172:51
	ldr	r0, [sp, #12]
	.loc	2 172 9 is_stmt 0               @ rt-thread/src/device.c:172:9
	ldr	r1, [sp]
	.loc	2 172 22                        @ rt-thread/src/device.c:172:22
	strb	r0, [r1, #20]
	.loc	2 173 5 is_stmt 1               @ rt-thread/src/device.c:173:5
	b	.LBB5_2
.Ltmp54:
.LBB5_2:
	.loc	2 175 12                        @ rt-thread/src/device.c:175:12
	ldr	r0, [sp]
	.loc	2 175 5 is_stmt 0               @ rt-thread/src/device.c:175:5
	add	sp, #16
	pop	{r7, pc}
.Ltmp55:
.Lfunc_end5:
	.size	rt_device_create, .Lfunc_end5-rt_device_create
	.cfi_endproc
	.cantunwind
	.fnend
                                        @ -- End function
	.section	.text.rt_device_destroy,"ax",%progbits
	.hidden	rt_device_destroy               @ -- Begin function rt_device_destroy
	.globl	rt_device_destroy
	.p2align	3
	.type	rt_device_destroy,%function
	.code	16                              @ @rt_device_destroy
	.thumb_func
rt_device_destroy:
.Lfunc_begin6:
	.loc	2 185 0 is_stmt 1               @ rt-thread/src/device.c:185:0
	.fnstart
	.cfi_startproc
@ %bb.0:
	.save	{r7, lr}
	push	{r7, lr}
	.cfi_def_cfa_offset 8
	.cfi_offset lr, -4
	.cfi_offset r7, -8
	.pad	#8
	sub	sp, #8
	.cfi_def_cfa_offset 16
	str	r0, [sp, #4]
.Ltmp56:
	.loc	2 186 5 prologue_end            @ rt-thread/src/device.c:186:5
	ldr	r0, [sp, #4]
.Ltmp57:
	.loc	2 186 5 is_stmt 0               @ rt-thread/src/device.c:186:5
	cbnz	r0, .LBB6_2
	b	.LBB6_1
.LBB6_1:
.Ltmp58:
	.loc	2 186 5                         @ rt-thread/src/device.c:186:5
	movw	r0, :lower16:.L.str
	movt	r0, :upper16:.L.str
	movw	r1, :lower16:.L__FUNCTION__.rt_device_destroy
	movt	r1, :upper16:.L__FUNCTION__.rt_device_destroy
	movs	r2, #186
	bl	rt_assert_handler
	b	.LBB6_2
.Ltmp59:
.LBB6_2:
	.loc	2 187 5 is_stmt 1               @ rt-thread/src/device.c:187:5
	ldr	r0, [sp, #4]
	bl	rt_object_get_type
.Ltmp60:
	.loc	2 187 5 is_stmt 0               @ rt-thread/src/device.c:187:5
	cmp	r0, #9
	beq	.LBB6_4
	b	.LBB6_3
.LBB6_3:
.Ltmp61:
	.loc	2 187 5                         @ rt-thread/src/device.c:187:5
	movw	r0, :lower16:.L.str.1
	movt	r0, :upper16:.L.str.1
	movw	r1, :lower16:.L__FUNCTION__.rt_device_destroy
	movt	r1, :upper16:.L__FUNCTION__.rt_device_destroy
	movs	r2, #187
	bl	rt_assert_handler
	b	.LBB6_4
.Ltmp62:
.LBB6_4:
	.loc	2 188 5 is_stmt 1               @ rt-thread/src/device.c:188:5
	ldr	r0, [sp, #4]
	bl	rt_object_is_systemobject
.Ltmp63:
	.loc	2 188 5 is_stmt 0               @ rt-thread/src/device.c:188:5
	cbz	r0, .LBB6_6
	b	.LBB6_5
.LBB6_5:
.Ltmp64:
	.loc	2 188 5                         @ rt-thread/src/device.c:188:5
	movw	r0, :lower16:.L.str.4
	movt	r0, :upper16:.L.str.4
	movw	r1, :lower16:.L__FUNCTION__.rt_device_destroy
	movt	r1, :upper16:.L__FUNCTION__.rt_device_destroy
	movs	r2, #188
	bl	rt_assert_handler
	b	.LBB6_6
.Ltmp65:
.LBB6_6:
	.loc	2 190 24 is_stmt 1              @ rt-thread/src/device.c:190:24
	ldr	r0, [sp, #4]
	.loc	2 190 5 is_stmt 0               @ rt-thread/src/device.c:190:5
	bl	rt_object_detach
	.loc	2 193 13 is_stmt 1              @ rt-thread/src/device.c:193:13
	ldr	r0, [sp, #4]
	.loc	2 193 5 is_stmt 0               @ rt-thread/src/device.c:193:5
	bl	rt_free
	.loc	2 194 1 is_stmt 1               @ rt-thread/src/device.c:194:1
	add	sp, #8
	pop	{r7, pc}
.Ltmp66:
.Lfunc_end6:
	.size	rt_device_destroy, .Lfunc_end6-rt_device_destroy
	.cfi_endproc
	.cantunwind
	.fnend
                                        @ -- End function
	.section	.text.rt_device_init,"ax",%progbits
	.hidden	rt_device_init                  @ -- Begin function rt_device_init
	.globl	rt_device_init
	.p2align	3
	.type	rt_device_init,%function
	.code	16                              @ @rt_device_init
	.thumb_func
rt_device_init:
.Lfunc_begin7:
	.loc	2 206 0                         @ rt-thread/src/device.c:206:0
	.fnstart
	.cfi_startproc
@ %bb.0:
	.save	{r7, lr}
	push	{r7, lr}
	.cfi_def_cfa_offset 8
	.cfi_offset lr, -4
	.cfi_offset r7, -8
	.pad	#8
	sub	sp, #8
	.cfi_def_cfa_offset 16
	str	r0, [sp, #4]
	movs	r0, #0
.Ltmp67:
	.loc	2 207 14 prologue_end           @ rt-thread/src/device.c:207:14
	str	r0, [sp]
.Ltmp68:
	.loc	2 209 5                         @ rt-thread/src/device.c:209:5
	ldr	r0, [sp, #4]
.Ltmp69:
	.loc	2 209 5 is_stmt 0               @ rt-thread/src/device.c:209:5
	cbnz	r0, .LBB7_2
	b	.LBB7_1
.LBB7_1:
.Ltmp70:
	.loc	2 209 5                         @ rt-thread/src/device.c:209:5
	movw	r0, :lower16:.L.str
	movt	r0, :upper16:.L.str
	movw	r1, :lower16:.L__FUNCTION__.rt_device_init
	movt	r1, :upper16:.L__FUNCTION__.rt_device_init
	movs	r2, #209
	bl	rt_assert_handler
	b	.LBB7_2
.Ltmp71:
.LBB7_2:
	.loc	2 212 9 is_stmt 1               @ rt-thread/src/device.c:212:9
	ldr	r0, [sp, #4]
	ldr	r0, [r0, #36]
.Ltmp72:
	.loc	2 212 9 is_stmt 0               @ rt-thread/src/device.c:212:9
	cbz	r0, .LBB7_9
	b	.LBB7_3
.LBB7_3:
.Ltmp73:
	.loc	2 214 15 is_stmt 1              @ rt-thread/src/device.c:214:15
	ldr	r0, [sp, #4]
	ldrh	r0, [r0, #22]
.Ltmp74:
	.loc	2 214 13 is_stmt 0              @ rt-thread/src/device.c:214:13
	lsls	r0, r0, #27
	cmp	r0, #0
	bmi	.LBB7_8
	b	.LBB7_4
.LBB7_4:
.Ltmp75:
	.loc	2 216 22 is_stmt 1              @ rt-thread/src/device.c:216:22
	ldr	r0, [sp, #4]
	ldr	r1, [r0, #36]
	blx	r1
	.loc	2 216 20 is_stmt 0              @ rt-thread/src/device.c:216:20
	str	r0, [sp]
.Ltmp76:
	.loc	2 217 17 is_stmt 1              @ rt-thread/src/device.c:217:17
	ldr	r0, [sp]
.Ltmp77:
	.loc	2 217 17 is_stmt 0              @ rt-thread/src/device.c:217:17
	cbz	r0, .LBB7_6
	b	.LBB7_5
.LBB7_5:
.Ltmp78:
	.loc	2 220 28 is_stmt 1              @ rt-thread/src/device.c:220:28
	ldr	r1, [sp, #4]
	.loc	2 220 46 is_stmt 0              @ rt-thread/src/device.c:220:46
	ldr	r2, [sp]
	.loc	2 219 17 is_stmt 1              @ rt-thread/src/device.c:219:17
	movw	r0, :lower16:.L.str.5
	movt	r0, :upper16:.L.str.5
	bl	rt_kprintf
	.loc	2 221 13                        @ rt-thread/src/device.c:221:13
	b	.LBB7_7
.Ltmp79:
.LBB7_6:
	.loc	2 224 17                        @ rt-thread/src/device.c:224:17
	ldr	r1, [sp, #4]
	.loc	2 224 27 is_stmt 0              @ rt-thread/src/device.c:224:27
	ldrh	r0, [r1, #22]
	orr	r0, r0, #16
	strh	r0, [r1, #22]
	b	.LBB7_7
.Ltmp80:
.LBB7_7:
	.loc	2 226 9 is_stmt 1               @ rt-thread/src/device.c:226:9
	b	.LBB7_8
.Ltmp81:
.LBB7_8:
	.loc	2 227 5                         @ rt-thread/src/device.c:227:5
	b	.LBB7_9
.Ltmp82:
.LBB7_9:
	.loc	2 229 12                        @ rt-thread/src/device.c:229:12
	ldr	r0, [sp]
	.loc	2 229 5 is_stmt 0               @ rt-thread/src/device.c:229:5
	add	sp, #8
	pop	{r7, pc}
.Ltmp83:
.Lfunc_end7:
	.size	rt_device_init, .Lfunc_end7-rt_device_init
	.cfi_endproc
	.cantunwind
	.fnend
                                        @ -- End function
	.section	.text.rt_device_open,"ax",%progbits
	.hidden	rt_device_open                  @ -- Begin function rt_device_open
	.globl	rt_device_open
	.p2align	3
	.type	rt_device_open,%function
	.code	16                              @ @rt_device_open
	.thumb_func
rt_device_open:
.Lfunc_begin8:
	.loc	2 241 0 is_stmt 1               @ rt-thread/src/device.c:241:0
	.fnstart
	.cfi_startproc
@ %bb.0:
	.save	{r7, lr}
	push	{r7, lr}
	.cfi_def_cfa_offset 8
	.cfi_offset lr, -4
	.cfi_offset r7, -8
	.pad	#16
	sub	sp, #16
	.cfi_def_cfa_offset 24
                                        @ kill: def $r2 killed $r1
	str	r0, [sp, #8]
	strh.w	r1, [sp, #6]
	movs	r0, #0
.Ltmp84:
	.loc	2 242 14 prologue_end           @ rt-thread/src/device.c:242:14
	str	r0, [sp]
.Ltmp85:
	.loc	2 244 5                         @ rt-thread/src/device.c:244:5
	ldr	r0, [sp, #8]
.Ltmp86:
	.loc	2 244 5 is_stmt 0               @ rt-thread/src/device.c:244:5
	cbnz	r0, .LBB8_2
	b	.LBB8_1
.LBB8_1:
.Ltmp87:
	.loc	2 244 5                         @ rt-thread/src/device.c:244:5
	movw	r0, :lower16:.L.str
	movt	r0, :upper16:.L.str
	movw	r1, :lower16:.L__FUNCTION__.rt_device_open
	movt	r1, :upper16:.L__FUNCTION__.rt_device_open
	movs	r2, #244
	bl	rt_assert_handler
	b	.LBB8_2
.Ltmp88:
.LBB8_2:
	.loc	2 245 5 is_stmt 1               @ rt-thread/src/device.c:245:5
	ldr	r0, [sp, #8]
	bl	rt_object_get_type
.Ltmp89:
	.loc	2 245 5 is_stmt 0               @ rt-thread/src/device.c:245:5
	cmp	r0, #9
	beq	.LBB8_4
	b	.LBB8_3
.LBB8_3:
.Ltmp90:
	.loc	2 245 5                         @ rt-thread/src/device.c:245:5
	movw	r0, :lower16:.L.str.1
	movt	r0, :upper16:.L.str.1
	movw	r1, :lower16:.L__FUNCTION__.rt_device_open
	movt	r1, :upper16:.L__FUNCTION__.rt_device_open
	movs	r2, #245
	bl	rt_assert_handler
	b	.LBB8_4
.Ltmp91:
.LBB8_4:
	.loc	2 248 11 is_stmt 1              @ rt-thread/src/device.c:248:11
	ldr	r0, [sp, #8]
	ldrh	r0, [r0, #22]
.Ltmp92:
	.loc	2 248 9 is_stmt 0               @ rt-thread/src/device.c:248:9
	lsls	r0, r0, #27
	cmp	r0, #0
	bmi	.LBB8_10
	b	.LBB8_5
.LBB8_5:
.Ltmp93:
	.loc	2 250 13 is_stmt 1              @ rt-thread/src/device.c:250:13
	ldr	r0, [sp, #8]
	ldr	r0, [r0, #36]
.Ltmp94:
	.loc	2 250 13 is_stmt 0              @ rt-thread/src/device.c:250:13
	cbz	r0, .LBB8_9
	b	.LBB8_6
.LBB8_6:
.Ltmp95:
	.loc	2 252 22 is_stmt 1              @ rt-thread/src/device.c:252:22
	ldr	r0, [sp, #8]
	ldr	r1, [r0, #36]
	blx	r1
	.loc	2 252 20 is_stmt 0              @ rt-thread/src/device.c:252:20
	str	r0, [sp]
.Ltmp96:
	.loc	2 253 17 is_stmt 1              @ rt-thread/src/device.c:253:17
	ldr	r0, [sp]
.Ltmp97:
	.loc	2 253 17 is_stmt 0              @ rt-thread/src/device.c:253:17
	cbz	r0, .LBB8_8
	b	.LBB8_7
.LBB8_7:
.Ltmp98:
	.loc	2 256 28 is_stmt 1              @ rt-thread/src/device.c:256:28
	ldr	r1, [sp, #8]
	.loc	2 256 46 is_stmt 0              @ rt-thread/src/device.c:256:46
	ldr	r2, [sp]
	.loc	2 255 17 is_stmt 1              @ rt-thread/src/device.c:255:17
	movw	r0, :lower16:.L.str.5
	movt	r0, :upper16:.L.str.5
	bl	rt_kprintf
	.loc	2 258 24                        @ rt-thread/src/device.c:258:24
	ldr	r0, [sp]
	.loc	2 258 17 is_stmt 0              @ rt-thread/src/device.c:258:17
	str	r0, [sp, #12]
	b	.LBB8_22
.Ltmp99:
.LBB8_8:
	.loc	2 260 9 is_stmt 1               @ rt-thread/src/device.c:260:9
	b	.LBB8_9
.Ltmp100:
.LBB8_9:
	.loc	2 262 9                         @ rt-thread/src/device.c:262:9
	ldr	r1, [sp, #8]
	.loc	2 262 19 is_stmt 0              @ rt-thread/src/device.c:262:19
	ldrh	r0, [r1, #22]
	orr	r0, r0, #16
	strh	r0, [r1, #22]
	.loc	2 263 5 is_stmt 1               @ rt-thread/src/device.c:263:5
	b	.LBB8_10
.Ltmp101:
.LBB8_10:
	.loc	2 266 10                        @ rt-thread/src/device.c:266:10
	ldr	r0, [sp, #8]
	ldrh	r0, [r0, #22]
	.loc	2 266 49 is_stmt 0              @ rt-thread/src/device.c:266:49
	lsls	r0, r0, #28
	cmp	r0, #0
	bpl	.LBB8_13
	b	.LBB8_11
.LBB8_11:
	.loc	2 267 10 is_stmt 1              @ rt-thread/src/device.c:267:10
	ldr	r0, [sp, #8]
	ldrh	r0, [r0, #24]
.Ltmp102:
	.loc	2 266 9                         @ rt-thread/src/device.c:266:9
	lsls	r0, r0, #28
	cmp	r0, #0
	bpl	.LBB8_13
	b	.LBB8_12
.LBB8_12:
	.loc	2 0 9 is_stmt 0                 @ rt-thread/src/device.c:0:9
	mvn	r0, #6
.Ltmp103:
	.loc	2 269 9 is_stmt 1               @ rt-thread/src/device.c:269:9
	str	r0, [sp, #12]
	b	.LBB8_22
.Ltmp104:
.LBB8_13:
	.loc	2 273 9                         @ rt-thread/src/device.c:273:9
	ldr	r0, [sp, #8]
	ldr	r0, [r0, #40]
.Ltmp105:
	.loc	2 273 9 is_stmt 0               @ rt-thread/src/device.c:273:9
	cbz	r0, .LBB8_15
	b	.LBB8_14
.LBB8_14:
.Ltmp106:
	.loc	2 275 18 is_stmt 1              @ rt-thread/src/device.c:275:18
	ldr	r0, [sp, #8]
	ldr	r2, [r0, #40]
	.loc	2 275 35 is_stmt 0              @ rt-thread/src/device.c:275:35
	ldrh.w	r1, [sp, #6]
	.loc	2 275 18                        @ rt-thread/src/device.c:275:18
	blx	r2
	.loc	2 275 16                        @ rt-thread/src/device.c:275:16
	str	r0, [sp]
	.loc	2 276 5 is_stmt 1               @ rt-thread/src/device.c:276:5
	b	.LBB8_16
.Ltmp107:
.LBB8_15:
	.loc	2 280 27                        @ rt-thread/src/device.c:280:27
	ldrh.w	r0, [sp, #6]
	movw	r1, #3855
	.loc	2 280 33 is_stmt 0              @ rt-thread/src/device.c:280:33
	ands	r0, r1
	.loc	2 280 9                         @ rt-thread/src/device.c:280:9
	ldr	r1, [sp, #8]
	.loc	2 280 24                        @ rt-thread/src/device.c:280:24
	strh	r0, [r1, #24]
	b	.LBB8_16
.Ltmp108:
.LBB8_16:
	.loc	2 284 9 is_stmt 1               @ rt-thread/src/device.c:284:9
	ldr	r0, [sp]
	.loc	2 284 26 is_stmt 0              @ rt-thread/src/device.c:284:26
	cbz	r0, .LBB8_18
	b	.LBB8_17
.LBB8_17:
	.loc	2 284 29                        @ rt-thread/src/device.c:284:29
	ldr	r0, [sp]
.Ltmp109:
	.loc	2 284 9                         @ rt-thread/src/device.c:284:9
	adds	r0, #6
	cbnz	r0, .LBB8_21
	b	.LBB8_18
.LBB8_18:
.Ltmp110:
	.loc	2 286 9 is_stmt 1               @ rt-thread/src/device.c:286:9
	ldr	r1, [sp, #8]
	.loc	2 286 24 is_stmt 0              @ rt-thread/src/device.c:286:24
	ldrh	r0, [r1, #24]
	orr	r0, r0, #8
	strh	r0, [r1, #24]
	.loc	2 288 9 is_stmt 1               @ rt-thread/src/device.c:288:9
	ldr	r1, [sp, #8]
	.loc	2 288 23 is_stmt 0              @ rt-thread/src/device.c:288:23
	ldrb	r0, [r1, #26]
	adds	r0, #1
	strb	r0, [r1, #26]
.Ltmp111:
	.loc	2 291 9 is_stmt 1               @ rt-thread/src/device.c:291:9
	ldr	r0, [sp, #8]
	ldrb	r0, [r0, #26]
.Ltmp112:
	.loc	2 291 9 is_stmt 0               @ rt-thread/src/device.c:291:9
	cbnz	r0, .LBB8_20
	b	.LBB8_19
.LBB8_19:
.Ltmp113:
	.loc	2 291 9                         @ rt-thread/src/device.c:291:9
	movw	r0, :lower16:.L.str.6
	movt	r0, :upper16:.L.str.6
	movw	r1, :lower16:.L__FUNCTION__.rt_device_open
	movt	r1, :upper16:.L__FUNCTION__.rt_device_open
	movw	r2, #291
	bl	rt_assert_handler
	b	.LBB8_20
.Ltmp114:
.LBB8_20:
	.loc	2 292 5 is_stmt 1               @ rt-thread/src/device.c:292:5
	b	.LBB8_21
.Ltmp115:
.LBB8_21:
	.loc	2 294 12                        @ rt-thread/src/device.c:294:12
	ldr	r0, [sp]
	.loc	2 294 5 is_stmt 0               @ rt-thread/src/device.c:294:5
	str	r0, [sp, #12]
	b	.LBB8_22
.LBB8_22:
	.loc	2 295 1 is_stmt 1               @ rt-thread/src/device.c:295:1
	ldr	r0, [sp, #12]
	add	sp, #16
	pop	{r7, pc}
.Ltmp116:
.Lfunc_end8:
	.size	rt_device_open, .Lfunc_end8-rt_device_open
	.cfi_endproc
	.cantunwind
	.fnend
                                        @ -- End function
	.section	.text.rt_device_close,"ax",%progbits
	.hidden	rt_device_close                 @ -- Begin function rt_device_close
	.globl	rt_device_close
	.p2align	3
	.type	rt_device_close,%function
	.code	16                              @ @rt_device_close
	.thumb_func
rt_device_close:
.Lfunc_begin9:
	.loc	2 306 0                         @ rt-thread/src/device.c:306:0
	.fnstart
	.cfi_startproc
@ %bb.0:
	.save	{r7, lr}
	push	{r7, lr}
	.cfi_def_cfa_offset 8
	.cfi_offset lr, -4
	.cfi_offset r7, -8
	.pad	#16
	sub	sp, #16
	.cfi_def_cfa_offset 24
	str	r0, [sp, #8]
	movs	r0, #0
.Ltmp117:
	.loc	2 307 14 prologue_end           @ rt-thread/src/device.c:307:14
	str	r0, [sp, #4]
.Ltmp118:
	.loc	2 309 5                         @ rt-thread/src/device.c:309:5
	ldr	r0, [sp, #8]
.Ltmp119:
	.loc	2 309 5 is_stmt 0               @ rt-thread/src/device.c:309:5
	cbnz	r0, .LBB9_2
	b	.LBB9_1
.LBB9_1:
.Ltmp120:
	.loc	2 309 5                         @ rt-thread/src/device.c:309:5
	movw	r0, :lower16:.L.str
	movt	r0, :upper16:.L.str
	movw	r1, :lower16:.L__FUNCTION__.rt_device_close
	movt	r1, :upper16:.L__FUNCTION__.rt_device_close
	movw	r2, #309
	bl	rt_assert_handler
	b	.LBB9_2
.Ltmp121:
.LBB9_2:
	.loc	2 310 5 is_stmt 1               @ rt-thread/src/device.c:310:5
	ldr	r0, [sp, #8]
	bl	rt_object_get_type
.Ltmp122:
	.loc	2 310 5 is_stmt 0               @ rt-thread/src/device.c:310:5
	cmp	r0, #9
	beq	.LBB9_4
	b	.LBB9_3
.LBB9_3:
.Ltmp123:
	.loc	2 310 5                         @ rt-thread/src/device.c:310:5
	movw	r0, :lower16:.L.str.1
	movt	r0, :upper16:.L.str.1
	movw	r1, :lower16:.L__FUNCTION__.rt_device_close
	movt	r1, :upper16:.L__FUNCTION__.rt_device_close
	mov.w	r2, #310
	bl	rt_assert_handler
	b	.LBB9_4
.Ltmp124:
.LBB9_4:
	.loc	2 312 9 is_stmt 1               @ rt-thread/src/device.c:312:9
	ldr	r0, [sp, #8]
	.loc	2 312 14 is_stmt 0              @ rt-thread/src/device.c:312:14
	ldrb	r0, [r0, #26]
.Ltmp125:
	.loc	2 312 9                         @ rt-thread/src/device.c:312:9
	cbnz	r0, .LBB9_6
	b	.LBB9_5
.LBB9_5:
	.loc	2 0 9                           @ rt-thread/src/device.c:0:9
	mov.w	r0, #-1
.Ltmp126:
	.loc	2 313 9 is_stmt 1               @ rt-thread/src/device.c:313:9
	str	r0, [sp, #12]
	b	.LBB9_14
.Ltmp127:
.LBB9_6:
	.loc	2 315 5                         @ rt-thread/src/device.c:315:5
	ldr	r1, [sp, #8]
	.loc	2 315 19 is_stmt 0              @ rt-thread/src/device.c:315:19
	ldrb	r0, [r1, #26]
	subs	r0, #1
	strb	r0, [r1, #26]
.Ltmp128:
	.loc	2 317 9 is_stmt 1               @ rt-thread/src/device.c:317:9
	ldr	r0, [sp, #8]
	.loc	2 317 14 is_stmt 0              @ rt-thread/src/device.c:317:14
	ldrb	r0, [r0, #26]
.Ltmp129:
	.loc	2 317 9                         @ rt-thread/src/device.c:317:9
	cbz	r0, .LBB9_8
	b	.LBB9_7
.LBB9_7:
	.loc	2 0 9                           @ rt-thread/src/device.c:0:9
	movs	r0, #0
.Ltmp130:
	.loc	2 318 9 is_stmt 1               @ rt-thread/src/device.c:318:9
	str	r0, [sp, #12]
	b	.LBB9_14
.Ltmp131:
.LBB9_8:
	.loc	2 321 9                         @ rt-thread/src/device.c:321:9
	ldr	r0, [sp, #8]
	ldr	r0, [r0, #44]
.Ltmp132:
	.loc	2 321 9 is_stmt 0               @ rt-thread/src/device.c:321:9
	cbz	r0, .LBB9_10
	b	.LBB9_9
.LBB9_9:
.Ltmp133:
	.loc	2 323 18 is_stmt 1              @ rt-thread/src/device.c:323:18
	ldr	r0, [sp, #8]
	ldr	r1, [r0, #44]
	blx	r1
	.loc	2 323 16 is_stmt 0              @ rt-thread/src/device.c:323:16
	str	r0, [sp, #4]
	.loc	2 324 5 is_stmt 1               @ rt-thread/src/device.c:324:5
	b	.LBB9_10
.Ltmp134:
.LBB9_10:
	.loc	2 327 9                         @ rt-thread/src/device.c:327:9
	ldr	r0, [sp, #4]
	.loc	2 327 26 is_stmt 0              @ rt-thread/src/device.c:327:26
	cbz	r0, .LBB9_12
	b	.LBB9_11
.LBB9_11:
	.loc	2 327 29                        @ rt-thread/src/device.c:327:29
	ldr	r0, [sp, #4]
.Ltmp135:
	.loc	2 327 9                         @ rt-thread/src/device.c:327:9
	adds	r0, #6
	cbnz	r0, .LBB9_13
	b	.LBB9_12
.LBB9_12:
.Ltmp136:
	.loc	2 328 9 is_stmt 1               @ rt-thread/src/device.c:328:9
	ldr	r1, [sp, #8]
	movs	r0, #0
	.loc	2 328 24 is_stmt 0              @ rt-thread/src/device.c:328:24
	strh	r0, [r1, #24]
	.loc	2 328 9                         @ rt-thread/src/device.c:328:9
	b	.LBB9_13
.Ltmp137:
.LBB9_13:
	.loc	2 330 12 is_stmt 1              @ rt-thread/src/device.c:330:12
	ldr	r0, [sp, #4]
	.loc	2 330 5 is_stmt 0               @ rt-thread/src/device.c:330:5
	str	r0, [sp, #12]
	b	.LBB9_14
.LBB9_14:
	.loc	2 331 1 is_stmt 1               @ rt-thread/src/device.c:331:1
	ldr	r0, [sp, #12]
	add	sp, #16
	pop	{r7, pc}
.Ltmp138:
.Lfunc_end9:
	.size	rt_device_close, .Lfunc_end9-rt_device_close
	.cfi_endproc
	.cantunwind
	.fnend
                                        @ -- End function
	.section	.text.rt_device_read,"ax",%progbits
	.hidden	rt_device_read                  @ -- Begin function rt_device_read
	.globl	rt_device_read
	.p2align	3
	.type	rt_device_read,%function
	.code	16                              @ @rt_device_read
	.thumb_func
rt_device_read:
.Lfunc_begin10:
	.loc	2 350 0                         @ rt-thread/src/device.c:350:0
	.fnstart
	.cfi_startproc
@ %bb.0:
	.save	{r7, lr}
	push	{r7, lr}
	.cfi_def_cfa_offset 8
	.cfi_offset lr, -4
	.cfi_offset r7, -8
	.pad	#24
	sub	sp, #24
	.cfi_def_cfa_offset 32
	str	r0, [sp, #16]
	str	r1, [sp, #12]
	str	r2, [sp, #8]
	str	r3, [sp, #4]
.Ltmp139:
	.loc	2 351 5 prologue_end            @ rt-thread/src/device.c:351:5
	ldr	r0, [sp, #16]
.Ltmp140:
	.loc	2 351 5 is_stmt 0               @ rt-thread/src/device.c:351:5
	cbnz	r0, .LBB10_2
	b	.LBB10_1
.LBB10_1:
.Ltmp141:
	.loc	2 351 5                         @ rt-thread/src/device.c:351:5
	movw	r0, :lower16:.L.str
	movt	r0, :upper16:.L.str
	movw	r1, :lower16:.L__FUNCTION__.rt_device_read
	movt	r1, :upper16:.L__FUNCTION__.rt_device_read
	movw	r2, #351
	bl	rt_assert_handler
	b	.LBB10_2
.Ltmp142:
.LBB10_2:
	.loc	2 352 5 is_stmt 1               @ rt-thread/src/device.c:352:5
	ldr	r0, [sp, #16]
	bl	rt_object_get_type
.Ltmp143:
	.loc	2 352 5 is_stmt 0               @ rt-thread/src/device.c:352:5
	cmp	r0, #9
	beq	.LBB10_4
	b	.LBB10_3
.LBB10_3:
.Ltmp144:
	.loc	2 352 5                         @ rt-thread/src/device.c:352:5
	movw	r0, :lower16:.L.str.1
	movt	r0, :upper16:.L.str.1
	movw	r1, :lower16:.L__FUNCTION__.rt_device_read
	movt	r1, :upper16:.L__FUNCTION__.rt_device_read
	mov.w	r2, #352
	bl	rt_assert_handler
	b	.LBB10_4
.Ltmp145:
.LBB10_4:
	.loc	2 354 9 is_stmt 1               @ rt-thread/src/device.c:354:9
	ldr	r0, [sp, #16]
	.loc	2 354 14 is_stmt 0              @ rt-thread/src/device.c:354:14
	ldrb	r0, [r0, #26]
.Ltmp146:
	.loc	2 354 9                         @ rt-thread/src/device.c:354:9
	cbnz	r0, .LBB10_6
	b	.LBB10_5
.LBB10_5:
	.loc	2 0 9                           @ rt-thread/src/device.c:0:9
	mov.w	r0, #-1
.Ltmp147:
	.loc	2 356 9 is_stmt 1               @ rt-thread/src/device.c:356:9
	bl	rt_set_errno
	movs	r0, #0
	.loc	2 357 9                         @ rt-thread/src/device.c:357:9
	str	r0, [sp, #20]
	b	.LBB10_9
.Ltmp148:
.LBB10_6:
	.loc	2 361 9                         @ rt-thread/src/device.c:361:9
	ldr	r0, [sp, #16]
	ldr	r0, [r0, #48]
.Ltmp149:
	.loc	2 361 9 is_stmt 0               @ rt-thread/src/device.c:361:9
	cbz	r0, .LBB10_8
	b	.LBB10_7
.LBB10_7:
.Ltmp150:
	.loc	2 363 16 is_stmt 1              @ rt-thread/src/device.c:363:16
	ldr	r0, [sp, #16]
	ldr.w	r12, [r0, #48]
	.loc	2 363 33 is_stmt 0              @ rt-thread/src/device.c:363:33
	ldr	r1, [sp, #12]
	.loc	2 363 38                        @ rt-thread/src/device.c:363:38
	ldr	r2, [sp, #8]
	.loc	2 363 46                        @ rt-thread/src/device.c:363:46
	ldr	r3, [sp, #4]
	.loc	2 363 16                        @ rt-thread/src/device.c:363:16
	blx	r12
	.loc	2 363 9                         @ rt-thread/src/device.c:363:9
	str	r0, [sp, #20]
	b	.LBB10_9
.Ltmp151:
.LBB10_8:
	.loc	2 0 9                           @ rt-thread/src/device.c:0:9
	mvn	r0, #5
	.loc	2 367 5 is_stmt 1               @ rt-thread/src/device.c:367:5
	bl	rt_set_errno
	movs	r0, #0
	.loc	2 369 5                         @ rt-thread/src/device.c:369:5
	str	r0, [sp, #20]
	b	.LBB10_9
.LBB10_9:
	.loc	2 370 1                         @ rt-thread/src/device.c:370:1
	ldr	r0, [sp, #20]
	add	sp, #24
	pop	{r7, pc}
.Ltmp152:
.Lfunc_end10:
	.size	rt_device_read, .Lfunc_end10-rt_device_read
	.cfi_endproc
	.cantunwind
	.fnend
                                        @ -- End function
	.section	.text.rt_device_write,"ax",%progbits
	.hidden	rt_device_write                 @ -- Begin function rt_device_write
	.globl	rt_device_write
	.p2align	3
	.type	rt_device_write,%function
	.code	16                              @ @rt_device_write
	.thumb_func
rt_device_write:
.Lfunc_begin11:
	.loc	2 389 0                         @ rt-thread/src/device.c:389:0
	.fnstart
	.cfi_startproc
@ %bb.0:
	.save	{r7, lr}
	push	{r7, lr}
	.cfi_def_cfa_offset 8
	.cfi_offset lr, -4
	.cfi_offset r7, -8
	.pad	#24
	sub	sp, #24
	.cfi_def_cfa_offset 32
	str	r0, [sp, #16]
	str	r1, [sp, #12]
	str	r2, [sp, #8]
	str	r3, [sp, #4]
.Ltmp153:
	.loc	2 390 5 prologue_end            @ rt-thread/src/device.c:390:5
	ldr	r0, [sp, #16]
.Ltmp154:
	.loc	2 390 5 is_stmt 0               @ rt-thread/src/device.c:390:5
	cbnz	r0, .LBB11_2
	b	.LBB11_1
.LBB11_1:
.Ltmp155:
	.loc	2 390 5                         @ rt-thread/src/device.c:390:5
	movw	r0, :lower16:.L.str
	movt	r0, :upper16:.L.str
	movw	r1, :lower16:.L__FUNCTION__.rt_device_write
	movt	r1, :upper16:.L__FUNCTION__.rt_device_write
	mov.w	r2, #390
	bl	rt_assert_handler
	b	.LBB11_2
.Ltmp156:
.LBB11_2:
	.loc	2 391 5 is_stmt 1               @ rt-thread/src/device.c:391:5
	ldr	r0, [sp, #16]
	bl	rt_object_get_type
.Ltmp157:
	.loc	2 391 5 is_stmt 0               @ rt-thread/src/device.c:391:5
	cmp	r0, #9
	beq	.LBB11_4
	b	.LBB11_3
.LBB11_3:
.Ltmp158:
	.loc	2 391 5                         @ rt-thread/src/device.c:391:5
	movw	r0, :lower16:.L.str.1
	movt	r0, :upper16:.L.str.1
	movw	r1, :lower16:.L__FUNCTION__.rt_device_write
	movt	r1, :upper16:.L__FUNCTION__.rt_device_write
	movw	r2, #391
	bl	rt_assert_handler
	b	.LBB11_4
.Ltmp159:
.LBB11_4:
	.loc	2 393 9 is_stmt 1               @ rt-thread/src/device.c:393:9
	ldr	r0, [sp, #16]
	.loc	2 393 14 is_stmt 0              @ rt-thread/src/device.c:393:14
	ldrb	r0, [r0, #26]
.Ltmp160:
	.loc	2 393 9                         @ rt-thread/src/device.c:393:9
	cbnz	r0, .LBB11_6
	b	.LBB11_5
.LBB11_5:
	.loc	2 0 9                           @ rt-thread/src/device.c:0:9
	mov.w	r0, #-1
.Ltmp161:
	.loc	2 395 9 is_stmt 1               @ rt-thread/src/device.c:395:9
	bl	rt_set_errno
	movs	r0, #0
	.loc	2 396 9                         @ rt-thread/src/device.c:396:9
	str	r0, [sp, #20]
	b	.LBB11_9
.Ltmp162:
.LBB11_6:
	.loc	2 400 9                         @ rt-thread/src/device.c:400:9
	ldr	r0, [sp, #16]
	ldr	r0, [r0, #52]
.Ltmp163:
	.loc	2 400 9 is_stmt 0               @ rt-thread/src/device.c:400:9
	cbz	r0, .LBB11_8
	b	.LBB11_7
.LBB11_7:
.Ltmp164:
	.loc	2 402 16 is_stmt 1              @ rt-thread/src/device.c:402:16
	ldr	r0, [sp, #16]
	ldr.w	r12, [r0, #52]
	.loc	2 402 34 is_stmt 0              @ rt-thread/src/device.c:402:34
	ldr	r1, [sp, #12]
	.loc	2 402 39                        @ rt-thread/src/device.c:402:39
	ldr	r2, [sp, #8]
	.loc	2 402 47                        @ rt-thread/src/device.c:402:47
	ldr	r3, [sp, #4]
	.loc	2 402 16                        @ rt-thread/src/device.c:402:16
	blx	r12
	.loc	2 402 9                         @ rt-thread/src/device.c:402:9
	str	r0, [sp, #20]
	b	.LBB11_9
.Ltmp165:
.LBB11_8:
	.loc	2 0 9                           @ rt-thread/src/device.c:0:9
	mvn	r0, #5
	.loc	2 406 5 is_stmt 1               @ rt-thread/src/device.c:406:5
	bl	rt_set_errno
	movs	r0, #0
	.loc	2 408 5                         @ rt-thread/src/device.c:408:5
	str	r0, [sp, #20]
	b	.LBB11_9
.LBB11_9:
	.loc	2 409 1                         @ rt-thread/src/device.c:409:1
	ldr	r0, [sp, #20]
	add	sp, #24
	pop	{r7, pc}
.Ltmp166:
.Lfunc_end11:
	.size	rt_device_write, .Lfunc_end11-rt_device_write
	.cfi_endproc
	.cantunwind
	.fnend
                                        @ -- End function
	.section	.text.rt_device_control,"ax",%progbits
	.hidden	rt_device_control               @ -- Begin function rt_device_control
	.globl	rt_device_control
	.p2align	3
	.type	rt_device_control,%function
	.code	16                              @ @rt_device_control
	.thumb_func
rt_device_control:
.Lfunc_begin12:
	.loc	2 422 0                         @ rt-thread/src/device.c:422:0
	.fnstart
	.cfi_startproc
@ %bb.0:
	.save	{r7, lr}
	push	{r7, lr}
	.cfi_def_cfa_offset 8
	.cfi_offset lr, -4
	.cfi_offset r7, -8
	.pad	#16
	sub	sp, #16
	.cfi_def_cfa_offset 24
	str	r0, [sp, #8]
	str	r1, [sp, #4]
	str	r2, [sp]
.Ltmp167:
	.loc	2 423 5 prologue_end            @ rt-thread/src/device.c:423:5
	ldr	r0, [sp, #8]
.Ltmp168:
	.loc	2 423 5 is_stmt 0               @ rt-thread/src/device.c:423:5
	cbnz	r0, .LBB12_2
	b	.LBB12_1
.LBB12_1:
.Ltmp169:
	.loc	2 423 5                         @ rt-thread/src/device.c:423:5
	movw	r0, :lower16:.L.str
	movt	r0, :upper16:.L.str
	movw	r1, :lower16:.L__FUNCTION__.rt_device_control
	movt	r1, :upper16:.L__FUNCTION__.rt_device_control
	movw	r2, #423
	bl	rt_assert_handler
	b	.LBB12_2
.Ltmp170:
.LBB12_2:
	.loc	2 424 5 is_stmt 1               @ rt-thread/src/device.c:424:5
	ldr	r0, [sp, #8]
	bl	rt_object_get_type
.Ltmp171:
	.loc	2 424 5 is_stmt 0               @ rt-thread/src/device.c:424:5
	cmp	r0, #9
	beq	.LBB12_4
	b	.LBB12_3
.LBB12_3:
.Ltmp172:
	.loc	2 424 5                         @ rt-thread/src/device.c:424:5
	movw	r0, :lower16:.L.str.1
	movt	r0, :upper16:.L.str.1
	movw	r1, :lower16:.L__FUNCTION__.rt_device_control
	movt	r1, :upper16:.L__FUNCTION__.rt_device_control
	mov.w	r2, #424
	bl	rt_assert_handler
	b	.LBB12_4
.Ltmp173:
.LBB12_4:
	.loc	2 427 9 is_stmt 1               @ rt-thread/src/device.c:427:9
	ldr	r0, [sp, #8]
	ldr	r0, [r0, #56]
.Ltmp174:
	.loc	2 427 9 is_stmt 0               @ rt-thread/src/device.c:427:9
	cbz	r0, .LBB12_6
	b	.LBB12_5
.LBB12_5:
.Ltmp175:
	.loc	2 429 16 is_stmt 1              @ rt-thread/src/device.c:429:16
	ldr	r0, [sp, #8]
	ldr	r3, [r0, #56]
	.loc	2 429 36 is_stmt 0              @ rt-thread/src/device.c:429:36
	ldr	r1, [sp, #4]
	.loc	2 429 41                        @ rt-thread/src/device.c:429:41
	ldr	r2, [sp]
	.loc	2 429 16                        @ rt-thread/src/device.c:429:16
	blx	r3
	.loc	2 429 9                         @ rt-thread/src/device.c:429:9
	str	r0, [sp, #12]
	b	.LBB12_7
.Ltmp176:
.LBB12_6:
	.loc	2 0 9                           @ rt-thread/src/device.c:0:9
	mvn	r0, #5
	.loc	2 432 5 is_stmt 1               @ rt-thread/src/device.c:432:5
	str	r0, [sp, #12]
	b	.LBB12_7
.LBB12_7:
	.loc	2 433 1                         @ rt-thread/src/device.c:433:1
	ldr	r0, [sp, #12]
	add	sp, #16
	pop	{r7, pc}
.Ltmp177:
.Lfunc_end12:
	.size	rt_device_control, .Lfunc_end12-rt_device_control
	.cfi_endproc
	.cantunwind
	.fnend
                                        @ -- End function
	.section	.text.rt_device_set_rx_indicate,"ax",%progbits
	.hidden	rt_device_set_rx_indicate       @ -- Begin function rt_device_set_rx_indicate
	.globl	rt_device_set_rx_indicate
	.p2align	3
	.type	rt_device_set_rx_indicate,%function
	.code	16                              @ @rt_device_set_rx_indicate
	.thumb_func
rt_device_set_rx_indicate:
.Lfunc_begin13:
	.loc	2 448 0                         @ rt-thread/src/device.c:448:0
	.fnstart
	.cfi_startproc
@ %bb.0:
	.save	{r7, lr}
	push	{r7, lr}
	.cfi_def_cfa_offset 8
	.cfi_offset lr, -4
	.cfi_offset r7, -8
	.pad	#8
	sub	sp, #8
	.cfi_def_cfa_offset 16
	str	r0, [sp, #4]
	str	r1, [sp]
.Ltmp178:
	.loc	2 449 5 prologue_end            @ rt-thread/src/device.c:449:5
	ldr	r0, [sp, #4]
.Ltmp179:
	.loc	2 449 5 is_stmt 0               @ rt-thread/src/device.c:449:5
	cbnz	r0, .LBB13_2
	b	.LBB13_1
.LBB13_1:
.Ltmp180:
	.loc	2 449 5                         @ rt-thread/src/device.c:449:5
	movw	r0, :lower16:.L.str
	movt	r0, :upper16:.L.str
	movw	r1, :lower16:.L__FUNCTION__.rt_device_set_rx_indicate
	movt	r1, :upper16:.L__FUNCTION__.rt_device_set_rx_indicate
	movw	r2, #449
	bl	rt_assert_handler
	b	.LBB13_2
.Ltmp181:
.LBB13_2:
	.loc	2 450 5 is_stmt 1               @ rt-thread/src/device.c:450:5
	ldr	r0, [sp, #4]
	bl	rt_object_get_type
.Ltmp182:
	.loc	2 450 5 is_stmt 0               @ rt-thread/src/device.c:450:5
	cmp	r0, #9
	beq	.LBB13_4
	b	.LBB13_3
.LBB13_3:
.Ltmp183:
	.loc	2 450 5                         @ rt-thread/src/device.c:450:5
	movw	r0, :lower16:.L.str.1
	movt	r0, :upper16:.L.str.1
	movw	r1, :lower16:.L__FUNCTION__.rt_device_set_rx_indicate
	movt	r1, :upper16:.L__FUNCTION__.rt_device_set_rx_indicate
	mov.w	r2, #450
	bl	rt_assert_handler
	b	.LBB13_4
.Ltmp184:
.LBB13_4:
	.loc	2 452 24 is_stmt 1              @ rt-thread/src/device.c:452:24
	ldr	r0, [sp]
	.loc	2 452 5 is_stmt 0               @ rt-thread/src/device.c:452:5
	ldr	r1, [sp, #4]
	.loc	2 452 22                        @ rt-thread/src/device.c:452:22
	str	r0, [r1, #28]
	movs	r0, #0
	.loc	2 454 5 is_stmt 1               @ rt-thread/src/device.c:454:5
	add	sp, #8
	pop	{r7, pc}
.Ltmp185:
.Lfunc_end13:
	.size	rt_device_set_rx_indicate, .Lfunc_end13-rt_device_set_rx_indicate
	.cfi_endproc
	.cantunwind
	.fnend
                                        @ -- End function
	.section	.text.rt_device_set_tx_complete,"ax",%progbits
	.hidden	rt_device_set_tx_complete       @ -- Begin function rt_device_set_tx_complete
	.globl	rt_device_set_tx_complete
	.p2align	3
	.type	rt_device_set_tx_complete,%function
	.code	16                              @ @rt_device_set_tx_complete
	.thumb_func
rt_device_set_tx_complete:
.Lfunc_begin14:
	.loc	2 470 0                         @ rt-thread/src/device.c:470:0
	.fnstart
	.cfi_startproc
@ %bb.0:
	.save	{r7, lr}
	push	{r7, lr}
	.cfi_def_cfa_offset 8
	.cfi_offset lr, -4
	.cfi_offset r7, -8
	.pad	#8
	sub	sp, #8
	.cfi_def_cfa_offset 16
	str	r0, [sp, #4]
	str	r1, [sp]
.Ltmp186:
	.loc	2 471 5 prologue_end            @ rt-thread/src/device.c:471:5
	ldr	r0, [sp, #4]
.Ltmp187:
	.loc	2 471 5 is_stmt 0               @ rt-thread/src/device.c:471:5
	cbnz	r0, .LBB14_2
	b	.LBB14_1
.LBB14_1:
.Ltmp188:
	.loc	2 471 5                         @ rt-thread/src/device.c:471:5
	movw	r0, :lower16:.L.str
	movt	r0, :upper16:.L.str
	movw	r1, :lower16:.L__FUNCTION__.rt_device_set_tx_complete
	movt	r1, :upper16:.L__FUNCTION__.rt_device_set_tx_complete
	movw	r2, #471
	bl	rt_assert_handler
	b	.LBB14_2
.Ltmp189:
.LBB14_2:
	.loc	2 472 5 is_stmt 1               @ rt-thread/src/device.c:472:5
	ldr	r0, [sp, #4]
	bl	rt_object_get_type
.Ltmp190:
	.loc	2 472 5 is_stmt 0               @ rt-thread/src/device.c:472:5
	cmp	r0, #9
	beq	.LBB14_4
	b	.LBB14_3
.LBB14_3:
.Ltmp191:
	.loc	2 472 5                         @ rt-thread/src/device.c:472:5
	movw	r0, :lower16:.L.str.1
	movt	r0, :upper16:.L.str.1
	movw	r1, :lower16:.L__FUNCTION__.rt_device_set_tx_complete
	movt	r1, :upper16:.L__FUNCTION__.rt_device_set_tx_complete
	mov.w	r2, #472
	bl	rt_assert_handler
	b	.LBB14_4
.Ltmp192:
.LBB14_4:
	.loc	2 474 24 is_stmt 1              @ rt-thread/src/device.c:474:24
	ldr	r0, [sp]
	.loc	2 474 5 is_stmt 0               @ rt-thread/src/device.c:474:5
	ldr	r1, [sp, #4]
	.loc	2 474 22                        @ rt-thread/src/device.c:474:22
	str	r0, [r1, #32]
	movs	r0, #0
	.loc	2 476 5 is_stmt 1               @ rt-thread/src/device.c:476:5
	add	sp, #8
	pop	{r7, pc}
.Ltmp193:
.Lfunc_end14:
	.size	rt_device_set_tx_complete, .Lfunc_end14-rt_device_set_tx_complete
	.cfi_endproc
	.cantunwind
	.fnend
                                        @ -- End function
	.section	.text.rt_list_init,"ax",%progbits
	.p2align	3                               @ -- Begin function rt_list_init
	.type	rt_list_init,%function
	.code	16                              @ @rt_list_init
	.thumb_func
rt_list_init:
.Lfunc_begin15:
	.file	4 "E:\\Smart-access-control\\Hardware\\CODE" "rt-thread/include\\rtservice.h"
	.loc	4 48 0                          @ rt-thread/include\rtservice.h:48:0
	.fnstart
	.cfi_startproc
@ %bb.0:
	.pad	#4
	sub	sp, #4
	.cfi_def_cfa_offset 4
	str	r0, [sp]
.Ltmp194:
	.loc	4 49 25 prologue_end            @ rt-thread/include\rtservice.h:49:25
	ldr	r0, [sp]
	.loc	4 49 23 is_stmt 0               @ rt-thread/include\rtservice.h:49:23
	str	r0, [r0, #4]
	.loc	4 49 5                          @ rt-thread/include\rtservice.h:49:5
	ldr	r1, [sp]
	.loc	4 49 13                         @ rt-thread/include\rtservice.h:49:13
	str	r0, [r1]
	.loc	4 50 1 is_stmt 1                @ rt-thread/include\rtservice.h:50:1
	add	sp, #4
	bx	lr
.Ltmp195:
.Lfunc_end15:
	.size	rt_list_init, .Lfunc_end15-rt_list_init
	.cfi_endproc
	.cantunwind
	.fnend
                                        @ -- End function
	.type	.L.str,%object                  @ @.str
	.section	.rodata.str1.1,"aMS",%progbits,1
.L.str:
	.asciz	"dev != RT_NULL"
	.size	.L.str, 15

	.type	.L__FUNCTION__.rt_device_unregister,%object @ @__FUNCTION__.rt_device_unregister
.L__FUNCTION__.rt_device_unregister:
	.asciz	"rt_device_unregister"
	.size	.L__FUNCTION__.rt_device_unregister, 21

	.type	.L.str.1,%object                @ @.str.1
.L.str.1:
	.asciz	"rt_object_get_type(&dev->parent) == RT_Object_Class_Device"
	.size	.L.str.1, 59

	.type	.L.str.2,%object                @ @.str.2
.L.str.2:
	.asciz	"rt_object_is_systemobject(&dev->parent)"
	.size	.L.str.2, 40

	.type	.L.str.3,%object                @ @.str.3
.L.str.3:
	.asciz	"information != RT_NULL"
	.size	.L.str.3, 23

	.type	.L__FUNCTION__.rt_device_find,%object @ @__FUNCTION__.rt_device_find
.L__FUNCTION__.rt_device_find:
	.asciz	"rt_device_find"
	.size	.L__FUNCTION__.rt_device_find, 15

	.type	.L__FUNCTION__.rt_device_destroy,%object @ @__FUNCTION__.rt_device_destroy
.L__FUNCTION__.rt_device_destroy:
	.asciz	"rt_device_destroy"
	.size	.L__FUNCTION__.rt_device_destroy, 18

	.type	.L.str.4,%object                @ @.str.4
.L.str.4:
	.asciz	"rt_object_is_systemobject(&dev->parent) == RT_FALSE"
	.size	.L.str.4, 52

	.type	.L__FUNCTION__.rt_device_init,%object @ @__FUNCTION__.rt_device_init
.L__FUNCTION__.rt_device_init:
	.asciz	"rt_device_init"
	.size	.L__FUNCTION__.rt_device_init, 15

	.type	.L.str.5,%object                @ @.str.5
.L.str.5:
	.asciz	"To initialize device:%s failed. The error code is %d\n"
	.size	.L.str.5, 54

	.type	.L__FUNCTION__.rt_device_open,%object @ @__FUNCTION__.rt_device_open
.L__FUNCTION__.rt_device_open:
	.asciz	"rt_device_open"
	.size	.L__FUNCTION__.rt_device_open, 15

	.type	.L.str.6,%object                @ @.str.6
.L.str.6:
	.asciz	"dev->ref_count != 0"
	.size	.L.str.6, 20

	.type	.L__FUNCTION__.rt_device_close,%object @ @__FUNCTION__.rt_device_close
.L__FUNCTION__.rt_device_close:
	.asciz	"rt_device_close"
	.size	.L__FUNCTION__.rt_device_close, 16

	.type	.L__FUNCTION__.rt_device_read,%object @ @__FUNCTION__.rt_device_read
.L__FUNCTION__.rt_device_read:
	.asciz	"rt_device_read"
	.size	.L__FUNCTION__.rt_device_read, 15

	.type	.L__FUNCTION__.rt_device_write,%object @ @__FUNCTION__.rt_device_write
.L__FUNCTION__.rt_device_write:
	.asciz	"rt_device_write"
	.size	.L__FUNCTION__.rt_device_write, 16

	.type	.L__FUNCTION__.rt_device_control,%object @ @__FUNCTION__.rt_device_control
.L__FUNCTION__.rt_device_control:
	.asciz	"rt_device_control"
	.size	.L__FUNCTION__.rt_device_control, 18

	.type	.L__FUNCTION__.rt_device_set_rx_indicate,%object @ @__FUNCTION__.rt_device_set_rx_indicate
.L__FUNCTION__.rt_device_set_rx_indicate:
	.asciz	"rt_device_set_rx_indicate"
	.size	.L__FUNCTION__.rt_device_set_rx_indicate, 26

	.type	.L__FUNCTION__.rt_device_set_tx_complete,%object @ @__FUNCTION__.rt_device_set_tx_complete
.L__FUNCTION__.rt_device_set_tx_complete:
	.asciz	"rt_device_set_tx_complete"
	.size	.L__FUNCTION__.rt_device_set_tx_complete, 26

	.type	.L.str.7,%object                @ @.str.7
.L.str.7:
	.asciz	"queue != RT_NULL"
	.size	.L.str.7, 17

	.type	.L__FUNCTION__.rt_wqueue_init,%object @ @__FUNCTION__.rt_wqueue_init
.L__FUNCTION__.rt_wqueue_init:
	.asciz	"rt_wqueue_init"
	.size	.L__FUNCTION__.rt_wqueue_init, 15

	.section	".note.GNU-stack","",%progbits
	.eabi_attribute	30, 6	@ Tag_ABI_optimization_goals
	.ARM_attribute	16, 1	@ Tag_AV_eba