	.text
	.syntax unified
	.eabi_attribute	67, "2.09"	@ Tag_conformance
	.cpu	cortex-m7
	.eabi_attribute	6, 13	@ Tag_CPU_arch
	.eabi_attribute	7, 77	@ Tag_CPU_arch_profile
	.eabi_attribute	8, 0	@ Tag_ARM_ISA_use
	.eabi_attribute	9, 2	@ Tag_THUMB_ISA_use
	.fpu	fpv5-d16
	.eabi_attribute	36, 1	@ Tag_FP_HP_extension
	.eabi_attribute	34, 1	@ Tag_CPU_unaligned_access
	.eabi_attribute	17, 1	@ Tag_ABI_PCS_GOT_use
	.eabi_attribute	20, 2	@ Tag_ABI_FP_denormal
	.eabi_attribute	21, 0	@ Tag_ABI_FP_exceptions
	.eabi_attribute	23, 1	@ Tag_ABI_FP_number_model
	.eabi_attribute	24, 1	@ Tag_ABI_align_needed
	.eabi_attribute	25, 1	@ Tag_ABI_align_preserved
	.eabi_attribute	28, 1	@ Tag_ABI_VFP_args
	.eabi_attribute	38, 1	@ Tag_ABI_FP_16bit_format
	.eabi_attribute	18, 2	@ Tag_ABI_PCS_wchar_t
	.eabi_attribute	26, 1	@ Tag_ABI_enum_size
	.eabi_attribute	14, 0	@ Tag_ABI_PCS_R9_use
	.file	"dfs.c"
	.file	1 "E:\\Smart-access-control\\Hardware\\CODE" "rt-thread/components/dfs/src/dfs.c"
	.file	2 "E:\\Smart-access-control\\Hardware\\CODE" "rt-thread/include\\rtdef.h"
	.file	3 "E:\\Smart-access-control\\Hardware\\CODE" "rt-thread/components/finsh/finsh_api.h"
	.file	4 "E:\\Smart-access-control\\Hardware\\CODE" "rt-thread/components/dfs/include\\dfs_fs.h"
	.file	5 "D:\\Keil_v5\\ARM\\ARMCLANG\\Bin\\..\\include" "stdint.h"
	.file	6 "E:\\Smart-access-control\\Hardware\\CODE" "rt-thread/components/dfs/include\\dfs_file.h"
	.file	7 "D:\\Keil_v5\\ARM\\ARMCLANG\\Bin\\..\\include" "stdio.h"
	.file	8 "E:\\Smart-access-control\\Hardware\\CODE" "rt-thread/include/rtlibc.h"
	.file	9 "E:\\Smart-access-control\\Hardware\\CODE" "rt-thread/components/dfs/include\\dfs.h"
	.file	10 "E:\\Smart-access-control\\Hardware\\CODE" "rt-thread/components/drivers/include/ipc/poll.h"
	.file	11 "E:\\Smart-access-control\\Hardware\\CODE" "rt-thread/include/libc/libc_stat.h"
	.file	12 "D:\\Keil_v5\\ARM\\ARMCLANG\\Bin\\..\\include" "time.h"
	.section	.text.dfs_init,"ax",%progbits
	.hidden	dfs_init                        @ -- Begin function dfs_init
	.globl	dfs_init
	.p2align	3
	.type	dfs_init,%function
	.code	16                              @ @dfs_init
	.thumb_func
dfs_init:
.Lfunc_begin0:
	.loc	1 49 0                          @ rt-thread/components/dfs/src/dfs.c:49:0
	.fnstart
	.cfi_sections .debug_frame
	.cfi_startproc
@ %bb.0:
	.save	{r7, lr}
	push	{r7, lr}
	.cfi_def_cfa_offset 8
	.cfi_offset lr, -4
	.cfi_offset r7, -8
	.pad	#16
	sub	sp, #16
	.cfi_def_cfa_offset 24
.Ltmp0:
	.loc	1 52 9 prologue_end             @ rt-thread/components/dfs/src/dfs.c:52:9
	movw	r0, :lower16:dfs_init.init_ok
	movt	r0, :upper16:dfs_init.init_ok
	ldr	r0, [r0]
.Ltmp1:
	.loc	1 52 9 is_stmt 0                @ rt-thread/components/dfs/src/dfs.c:52:9
	cbz	r0, .LBB0_2
	b	.LBB0_1
.LBB0_1:
.Ltmp2:
	.loc	1 54 9 is_stmt 1                @ rt-thread/components/dfs/src/dfs.c:54:9
	movw	r0, :lower16:.L.str
	movt	r0, :upper16:.L.str
	bl	rt_kprintf
	movs	r0, #0
	.loc	1 55 9                          @ rt-thread/components/dfs/src/dfs.c:55:9
	str	r0, [sp, #12]
	b	.LBB0_3
.Ltmp3:
.LBB0_2:
	.loc	1 59 5                          @ rt-thread/components/dfs/src/dfs.c:59:5
	movw	r1, :lower16:filesystem_operation_table
	movt	r1, :upper16:filesystem_operation_table
	movs	r0, #0
	str	r0, [sp, #8]                    @ 4-byte Spill
	str	r0, [r1, #20]
	str	r0, [r1, #16]
	str	r0, [r1, #12]
	str	r0, [r1, #8]
	str	r0, [r1, #4]
	str	r0, [r1]
	.loc	1 61 5                          @ rt-thread/components/dfs/src/dfs.c:61:5
	movw	r0, :lower16:filesystem_table
	movt	r0, :upper16:filesystem_table
	movs	r1, #96
	bl	__aeabi_memclr4
	ldr	r2, [sp, #8]                    @ 4-byte Reload
	.loc	1 63 5                          @ rt-thread/components/dfs/src/dfs.c:63:5
	movw	r0, :lower16:_fdtab
	movt	r0, :upper16:_fdtab
	str	r2, [r0, #4]
	str	r2, [r0]
	.loc	1 66 5                          @ rt-thread/components/dfs/src/dfs.c:66:5
	movw	r0, :lower16:fslock
	movt	r0, :upper16:fslock
	movw	r1, :lower16:.L.str.1
	movt	r1, :upper16:.L.str.1
	bl	rt_mutex_init
	.loc	1 70 5                          @ rt-thread/components/dfs/src/dfs.c:70:5
	movw	r0, :lower16:working_directory
	movt	r0, :upper16:working_directory
	str	r0, [sp, #4]                    @ 4-byte Spill
	mov.w	r1, #256
	bl	__aeabi_memclr
	ldr	r1, [sp, #4]                    @ 4-byte Reload
	movs	r0, #47
	.loc	1 71 26                         @ rt-thread/components/dfs/src/dfs.c:71:26
	strb	r0, [r1]
.Ltmp4:
	.loc	1 79 9                          @ rt-thread/components/dfs/src/dfs.c:79:9
	bl	devfs_init
	ldr	r3, [sp, #8]                    @ 4-byte Reload
	.loc	1 81 9                          @ rt-thread/components/dfs/src/dfs.c:81:9
	mov	r0, sp
	str	r3, [r0]
	movw	r1, :lower16:.L.str.2
	movt	r1, :upper16:.L.str.2
	movw	r2, :lower16:.L.str.3
	movt	r2, :upper16:.L.str.3
	mov	r0, r3
	bl	dfs_mount
                                        @ kill: def $r1 killed $r0
.Ltmp5:
	.loc	1 85 13                         @ rt-thread/components/dfs/src/dfs.c:85:13
	ldr	r0, [sp, #8]                    @ 4-byte Reload
	movw	r2, :lower16:dfs_init.init_ok
	movt	r2, :upper16:dfs_init.init_ok
	movs	r1, #1
	str	r1, [r2]
	.loc	1 87 5                          @ rt-thread/components/dfs/src/dfs.c:87:5
	str	r0, [sp, #12]
	b	.LBB0_3
.LBB0_3:
	.loc	1 88 1                          @ rt-thread/components/dfs/src/dfs.c:88:1
	ldr	r0, [sp, #12]
	add	sp, #16
	pop	{r7, pc}
.Ltmp6:
.Lfunc_end0:
	.size	dfs_init, .Lfunc_end0-dfs_init
	.cfi_endproc
	.cantunwind
	.fnend
                                        @ -- End function
	.section	.text.dfs_lock,"ax",%progbits
	.hidden	dfs_lock                        @ -- Begin function dfs_lock
	.globl	dfs_lock
	.p2align	3
	.type	dfs_lock,%function
	.code	16                              @ @dfs_lock
	.thumb_func
dfs_lock:
.Lfunc_begin1:
	.loc	1 97 0                          @ rt-thread/components/dfs/src/dfs.c:97:0
	.fnstart
	.cfi_startproc
@ %bb.0:
	.save	{r7, lr}
	push	{r7, lr}
	.cfi_def_cfa_offset 8
	.cfi_offset lr, -4
	.cfi_offset r7, -8
	.pad	#8
	sub	sp, #8
	.cfi_def_cfa_offset 16
	mvn	r0, #6
.Ltmp7:
	.loc	1 98 14 prologue_end            @ rt-thread/components/dfs/src/dfs.c:98:14
	str	r0, [sp, #4]
	.loc	1 100 5                         @ rt-thread/components/dfs/src/dfs.c:100:5
	b	.LBB1_1
.LBB1_1:                                @ =>This Inner Loop Header: Depth=1
	.loc	1 100 12 is_stmt 0              @ rt-thread/components/dfs/src/dfs.c:100:12
	ldr	r0, [sp, #4]
	.loc	1 100 5                         @ rt-thread/components/dfs/src/dfs.c:100:5
	adds	r0, #7
	cbnz	r0, .LBB1_3
	b	.LBB1_2
.LBB1_2:                                @   in Loop: Header=BB1_1 Depth=1
.Ltmp8:
	.loc	1 102 18 is_stmt 1              @ rt-thread/components/dfs/src/dfs.c:102:18
	movw	r0, :lower16:fslock
	movt	r0, :upper16:fslock
	mov.w	r1, #-1
	bl	rt_mutex_take
	.loc	1 102 16 is_stmt 0              @ rt-thread/components/dfs/src/dfs.c:102:16
	str	r0, [sp, #4]
.Ltmp9:
	.loc	1 100 5 is_stmt 1               @ rt-thread/components/dfs/src/dfs.c:100:5
	b	.LBB1_1
.LBB1_3:
.Ltmp10:
	.loc	1 105 9                         @ rt-thread/components/dfs/src/dfs.c:105:9
	ldr	r0, [sp, #4]
.Ltmp11:
	.loc	1 105 9 is_stmt 0               @ rt-thread/components/dfs/src/dfs.c:105:9
	cbz	r0, .LBB1_5
	b	.LBB1_4
.LBB1_4:
.Ltmp12:
	.loc	1 107 9 is_stmt 1               @ rt-thread/components/dfs/src/dfs.c:107:9
	movw	r0, :lower16:.L.str.4
	movt	r0, :upper16:.L.str.4
	movw	r1, :lower16:.L__FUNCTION__.dfs_lock
	movt	r1, :upper16:.L__FUNCTION__.dfs_lock
	movs	r2, #107
	bl	rt_assert_handler
.Ltmp13:
	.loc	1 108 5                         @ rt-thread/components/dfs/src/dfs.c:108:5
	b	.LBB1_5
.Ltmp14:
.LBB1_5:
	.loc	1 109 1                         @ rt-thread/components/dfs/src/dfs.c:109:1
	add	sp, #8
	pop	{r7, pc}
.Ltmp15:
.Lfunc_end1:
	.size	dfs_lock, .Lfunc_end1-dfs_lock
	.cfi_endproc
	.cantunwind
	.fnend
                                        @ -- End function
	.section	.text.dfs_unlock,"ax",%progbits
	.hidden	dfs_unlock                      @ -- Begin function dfs_unlock
	.globl	dfs_unlock
	.p2align	3
	.type	dfs_unlock,%function
	.code	16                              @ @dfs_unlock
	.thumb_func
dfs_unlock:
.Lfunc_begin2:
	.loc	1 117 0                         @ rt-thread/components/dfs/src/dfs.c:117:0
	.fnstart
	.cfi_startproc
@ %bb.0:
	.save	{r7, lr}
	push	{r7, lr}
	.cfi_def_cfa_offset 8
	.cfi_offset lr, -4
	.cfi_offset r7, -8
.Ltmp16:
	.loc	1 118 5 prologue_end            @ rt-thread/components/dfs/src/dfs.c:118:5
	movw	r0, :lower16:fslock
	movt	r0, :upper16:fslock
	bl	rt_mutex_release
	.loc	1 119 1                         @ rt-thread/components/dfs/src/dfs.c:119:1
	pop	{r7, pc}
.Ltmp17:
.Lfunc_end2:
	.size	dfs_unlock, .Lfunc_end2-dfs_unlock
	.cfi_endproc
	.cantunwind
	.fnend
                                        @ -- End function
	.section	.text.fd_new,"ax",%progbits
	.hidden	fd_new                          @ -- Begin function fd_new
	.globl	fd_new
	.p2align	3
	.type	fd_new,%function
	.code	16                              @ @fd_new
	.thumb_func
fd_new:
.Lfunc_begin3:
	.loc	1 176 0                         @ rt-thread/components/dfs/src/dfs.c:176:0
	.fnstart
	.cfi_startproc
@ %bb.0:
	.save	{r7, lr}
	push	{r7, lr}
	.cfi_def_cfa_offset 8
	.cfi_offset lr, -4
	.cfi_offset r7, -8
	.pad	#16
	sub	sp, #16
	.cfi_def_cfa_offset 24
.Ltmp18:
	.loc	1 181 11 prologue_end           @ rt-thread/components/dfs/src/dfs.c:181:11
	bl	dfs_fdtable_get
	.loc	1 181 9 is_stmt 0               @ rt-thread/components/dfs/src/dfs.c:181:9
	str	r0, [sp, #4]
	.loc	1 183 5 is_stmt 1               @ rt-thread/components/dfs/src/dfs.c:183:5
	bl	dfs_lock
	.loc	1 186 20                        @ rt-thread/components/dfs/src/dfs.c:186:20
	ldr	r0, [sp, #4]
	movs	r1, #0
	.loc	1 186 11 is_stmt 0              @ rt-thread/components/dfs/src/dfs.c:186:11
	bl	fd_alloc
	.loc	1 186 9                         @ rt-thread/components/dfs/src/dfs.c:186:9
	str	r0, [sp, #8]
.Ltmp19:
	.loc	1 189 9 is_stmt 1               @ rt-thread/components/dfs/src/dfs.c:189:9
	ldr	r0, [sp, #8]
	.loc	1 189 16 is_stmt 0              @ rt-thread/components/dfs/src/dfs.c:189:16
	ldr	r1, [sp, #4]
	.loc	1 189 21                        @ rt-thread/components/dfs/src/dfs.c:189:21
	ldr	r1, [r1]
.Ltmp20:
	.loc	1 189 9                         @ rt-thread/components/dfs/src/dfs.c:189:9
	cmp	r0, r1
	bne	.LBB3_4
	b	.LBB3_1
.LBB3_1:
	.loc	1 0 9                           @ rt-thread/components/dfs/src/dfs.c:0:9
	mvn	r0, #3
.Ltmp21:
	.loc	1 191 13 is_stmt 1              @ rt-thread/components/dfs/src/dfs.c:191:13
	str	r0, [sp, #8]
	.loc	1 192 9                         @ rt-thread/components/dfs/src/dfs.c:192:9
	b	.LBB3_2
.LBB3_2:
.Ltmp22:
	.loc	1 192 9 is_stmt 0               @ rt-thread/components/dfs/src/dfs.c:192:9
	movw	r0, :lower16:.L.str.5
	movt	r0, :upper16:.L.str.5
	bl	rt_kprintf
	movw	r0, :lower16:.L.str.6
	movt	r0, :upper16:.L.str.6
	bl	rt_kprintf
	movw	r0, :lower16:.L.str.7
	movt	r0, :upper16:.L.str.7
	bl	rt_kprintf
	b	.LBB3_3
.Ltmp23:
.LBB3_3:
	.loc	1 193 9 is_stmt 1               @ rt-thread/components/dfs/src/dfs.c:193:9
	b	.LBB3_5
.Ltmp24:
.LBB3_4:
	.loc	1 196 9                         @ rt-thread/components/dfs/src/dfs.c:196:9
	ldr	r0, [sp, #4]
	.loc	1 196 14 is_stmt 0              @ rt-thread/components/dfs/src/dfs.c:196:14
	ldr	r0, [r0, #4]
	.loc	1 196 18                        @ rt-thread/components/dfs/src/dfs.c:196:18
	ldr	r1, [sp, #8]
	.loc	1 196 9                         @ rt-thread/components/dfs/src/dfs.c:196:9
	ldr.w	r0, [r0, r1, lsl #2]
	.loc	1 196 7                         @ rt-thread/components/dfs/src/dfs.c:196:7
	str	r0, [sp, #12]
	.loc	1 197 5 is_stmt 1               @ rt-thread/components/dfs/src/dfs.c:197:5
	ldr	r1, [sp, #12]
	movs	r0, #1
	.loc	1 197 18 is_stmt 0              @ rt-thread/components/dfs/src/dfs.c:197:18
	str	r0, [r1, #8]
	.loc	1 198 5 is_stmt 1               @ rt-thread/components/dfs/src/dfs.c:198:5
	ldr	r1, [sp, #12]
	movw	r0, #65021
	.loc	1 198 14 is_stmt 0              @ rt-thread/components/dfs/src/dfs.c:198:14
	strh	r0, [r1]
	.loc	1 198 5                         @ rt-thread/components/dfs/src/dfs.c:198:5
	b	.LBB3_5
.LBB3_5:
.Ltmp25:
	@DEBUG_LABEL: fd_new:__result
	.loc	1 201 5 is_stmt 1               @ rt-thread/components/dfs/src/dfs.c:201:5
	bl	dfs_unlock
	.loc	1 202 12                        @ rt-thread/components/dfs/src/dfs.c:202:12
	ldr	r0, [sp, #8]
	.loc	1 202 16 is_stmt 0              @ rt-thread/components/dfs/src/dfs.c:202:16
	adds	r0, #3
	.loc	1 202 5                         @ rt-thread/components/dfs/src/dfs.c:202:5
	add	sp, #16
	pop	{r7, pc}
.Ltmp26:
.Lfunc_end3:
	.size	fd_new, .Lfunc_end3-fd_new
	.cfi_endproc
	.cantunwind
	.fnend
                                        @ -- End function
	.section	.text.dfs_fdtable_get,"ax",%progbits
	.hidden	dfs_fdtable_get                 @ -- Begin function dfs_fdtable_get
	.globl	dfs_fdtable_get
	.p2align	3
	.type	dfs_fdtable_get,%function
	.code	16                              @ @dfs_fdtable_get
	.thumb_func
dfs_fdtable_get:
.Lfunc_begin4:
	.loc	1 503 0 is_stmt 1               @ rt-thread/components/dfs/src/dfs.c:503:0
	.fnstart
	.cfi_startproc
@ %bb.0:
	.pad	#4
	sub	sp, #4
	.cfi_def_cfa_offset 4
.Ltmp27:
	.loc	1 514 9 prologue_end            @ rt-thread/components/dfs/src/dfs.c:514:9
	movw	r0, :lower16:_fdtab
	movt	r0, :upper16:_fdtab
	str	r0, [sp]
	.loc	1 517 12                        @ rt-thread/components/dfs/src/dfs.c:517:12
	ldr	r0, [sp]
	.loc	1 517 5 is_stmt 0               @ rt-thread/components/dfs/src/dfs.c:517:5
	add	sp, #4
	bx	lr
.Ltmp28:
.Lfunc_end4:
	.size	dfs_fdtable_get, .Lfunc_end4-dfs_fdtable_get
	.cfi_endproc
	.cantunwind
	.fnend
                                        @ -- End function
	.section	.text.fd_alloc,"ax",%progbits
	.p2align	3                               @ -- Begin function fd_alloc
	.type	fd_alloc,%function
	.code	16                              @ @fd_alloc
	.thumb_func
fd_alloc:
.Lfunc_begin5:
	.loc	1 122 0 is_stmt 1               @ rt-thread/components/dfs/src/dfs.c:122:0
	.fnstart
	.cfi_startproc
@ %bb.0:
	.save	{r7, lr}
	push	{r7, lr}
	.cfi_def_cfa_offset 8
	.cfi_offset lr, -4
	.cfi_offset r7, -8
	.pad	#32
	sub	sp, #32
	.cfi_def_cfa_offset 40
	str	r0, [sp, #28]
	str	r1, [sp, #24]
.Ltmp29:
	.loc	1 126 16 prologue_end           @ rt-thread/components/dfs/src/dfs.c:126:16
	ldr	r0, [sp, #24]
	.loc	1 126 14 is_stmt 0              @ rt-thread/components/dfs/src/dfs.c:126:14
	str	r0, [sp, #20]
	.loc	1 126 10                        @ rt-thread/components/dfs/src/dfs.c:126:10
	b	.LBB5_1
.LBB5_1:                                @ =>This Inner Loop Header: Depth=1
.Ltmp30:
	.loc	1 126 25                        @ rt-thread/components/dfs/src/dfs.c:126:25
	ldr	r0, [sp, #20]
	.loc	1 126 36                        @ rt-thread/components/dfs/src/dfs.c:126:36
	ldr	r1, [sp, #28]
	.loc	1 126 41                        @ rt-thread/components/dfs/src/dfs.c:126:41
	ldr	r1, [r1]
.Ltmp31:
	.loc	1 126 5                         @ rt-thread/components/dfs/src/dfs.c:126:5
	cmp	r0, r1
	bge	.LBB5_8
	b	.LBB5_2
.LBB5_2:                                @   in Loop: Header=BB5_1 Depth=1
.Ltmp32:
	.loc	1 128 13 is_stmt 1              @ rt-thread/components/dfs/src/dfs.c:128:13
	ldr	r0, [sp, #28]
	.loc	1 128 18 is_stmt 0              @ rt-thread/components/dfs/src/dfs.c:128:18
	ldr	r0, [r0, #4]
	.loc	1 128 22                        @ rt-thread/components/dfs/src/dfs.c:128:22
	ldr	r1, [sp, #20]
	.loc	1 128 13                        @ rt-thread/components/dfs/src/dfs.c:128:13
	ldr.w	r0, [r0, r1, lsl #2]
.Ltmp33:
	.loc	1 128 13                        @ rt-thread/components/dfs/src/dfs.c:128:13
	cbnz	r0, .LBB5_4
	b	.LBB5_3
.LBB5_3:
.Ltmp34:
	.loc	1 129 13 is_stmt 1              @ rt-thread/components/dfs/src/dfs.c:129:13
	b	.LBB5_8
.Ltmp35:
.LBB5_4:                                @   in Loop: Header=BB5_1 Depth=1
	.loc	1 130 13                        @ rt-thread/components/dfs/src/dfs.c:130:13
	ldr	r0, [sp, #28]
	.loc	1 130 18 is_stmt 0              @ rt-thread/components/dfs/src/dfs.c:130:18
	ldr	r0, [r0, #4]
	.loc	1 130 22                        @ rt-thread/components/dfs/src/dfs.c:130:22
	ldr	r1, [sp, #20]
	.loc	1 130 13                        @ rt-thread/components/dfs/src/dfs.c:130:13
	ldr.w	r0, [r0, r1, lsl #2]
	.loc	1 130 28                        @ rt-thread/components/dfs/src/dfs.c:130:28
	ldr	r0, [r0, #8]
.Ltmp36:
	.loc	1 130 13                        @ rt-thread/components/dfs/src/dfs.c:130:13
	cbnz	r0, .LBB5_6
	b	.LBB5_5
.LBB5_5:
.Ltmp37:
	.loc	1 131 13 is_stmt 1              @ rt-thread/components/dfs/src/dfs.c:131:13
	b	.LBB5_8
.Ltmp38:
.LBB5_6:                                @   in Loop: Header=BB5_1 Depth=1
	.loc	1 132 5                         @ rt-thread/components/dfs/src/dfs.c:132:5
	b	.LBB5_7
.Ltmp39:
.LBB5_7:                                @   in Loop: Header=BB5_1 Depth=1
	.loc	1 126 51                        @ rt-thread/components/dfs/src/dfs.c:126:51
	ldr	r0, [sp, #20]
	adds	r0, #1
	str	r0, [sp, #20]
	.loc	1 126 5 is_stmt 0               @ rt-thread/components/dfs/src/dfs.c:126:5
	b	.LBB5_1
.Ltmp40:
.LBB5_8:
	.loc	1 135 9 is_stmt 1               @ rt-thread/components/dfs/src/dfs.c:135:9
	ldr	r0, [sp, #20]
	.loc	1 135 16 is_stmt 0              @ rt-thread/components/dfs/src/dfs.c:135:16
	ldr	r1, [sp, #28]
	.loc	1 135 21                        @ rt-thread/components/dfs/src/dfs.c:135:21
	ldr	r1, [r1]
	.loc	1 135 27                        @ rt-thread/components/dfs/src/dfs.c:135:27
	cmp	r0, r1
	bne	.LBB5_20
	b	.LBB5_9
.LBB5_9:
	.loc	1 135 30                        @ rt-thread/components/dfs/src/dfs.c:135:30
	ldr	r0, [sp, #28]
	.loc	1 135 35                        @ rt-thread/components/dfs/src/dfs.c:135:35
	ldr	r0, [r0]
.Ltmp41:
	.loc	1 135 9                         @ rt-thread/components/dfs/src/dfs.c:135:9
	cmp	r0, #31
	bhi	.LBB5_20
	b	.LBB5_10
.LBB5_10:
.Ltmp42:
	.loc	1 141 15 is_stmt 1              @ rt-thread/components/dfs/src/dfs.c:141:15
	ldr	r0, [sp, #28]
	.loc	1 141 20 is_stmt 0              @ rt-thread/components/dfs/src/dfs.c:141:20
	ldr	r0, [r0]
	.loc	1 141 26                        @ rt-thread/components/dfs/src/dfs.c:141:26
	adds	r0, #4
	.loc	1 141 13                        @ rt-thread/components/dfs/src/dfs.c:141:13
	str	r0, [sp, #16]
	.loc	1 142 15 is_stmt 1              @ rt-thread/components/dfs/src/dfs.c:142:15
	ldr	r0, [sp, #16]
	cmp	r0, #33
	blt	.LBB5_12
	b	.LBB5_11
.LBB5_11:
	.loc	1 0 15 is_stmt 0                @ rt-thread/components/dfs/src/dfs.c:0:15
	movs	r0, #32
	.loc	1 142 15                        @ rt-thread/components/dfs/src/dfs.c:142:15
	str	r0, [sp, #4]                    @ 4-byte Spill
	b	.LBB5_13
.LBB5_12:
	.loc	1 142 47                        @ rt-thread/components/dfs/src/dfs.c:142:47
	ldr	r0, [sp, #16]
	.loc	1 142 15                        @ rt-thread/components/dfs/src/dfs.c:142:15
	str	r0, [sp, #4]                    @ 4-byte Spill
	b	.LBB5_13
.LBB5_13:
	ldr	r0, [sp, #4]                    @ 4-byte Reload
	.loc	1 142 13                        @ rt-thread/components/dfs/src/dfs.c:142:13
	str	r0, [sp, #16]
	.loc	1 144 44 is_stmt 1              @ rt-thread/components/dfs/src/dfs.c:144:44
	ldr	r0, [sp, #28]
	.loc	1 144 49 is_stmt 0              @ rt-thread/components/dfs/src/dfs.c:144:49
	ldr	r0, [r0, #4]
	.loc	1 144 54                        @ rt-thread/components/dfs/src/dfs.c:144:54
	ldr	r1, [sp, #16]
	.loc	1 144 58                        @ rt-thread/components/dfs/src/dfs.c:144:58
	lsls	r1, r1, #2
	.loc	1 144 33                        @ rt-thread/components/dfs/src/dfs.c:144:33
	bl	rt_realloc
	.loc	1 144 13                        @ rt-thread/components/dfs/src/dfs.c:144:13
	str	r0, [sp, #8]
.Ltmp43:
	.loc	1 145 13 is_stmt 1              @ rt-thread/components/dfs/src/dfs.c:145:13
	ldr	r0, [sp, #8]
.Ltmp44:
	.loc	1 145 13 is_stmt 0              @ rt-thread/components/dfs/src/dfs.c:145:13
	cbnz	r0, .LBB5_15
	b	.LBB5_14
.LBB5_14:
.Ltmp45:
	.loc	1 145 26                        @ rt-thread/components/dfs/src/dfs.c:145:26
	b	.LBB5_26
.Ltmp46:
.LBB5_15:
	.loc	1 148 22 is_stmt 1              @ rt-thread/components/dfs/src/dfs.c:148:22
	ldr	r0, [sp, #28]
	.loc	1 148 27 is_stmt 0              @ rt-thread/components/dfs/src/dfs.c:148:27
	ldr	r0, [r0]
	.loc	1 148 20                        @ rt-thread/components/dfs/src/dfs.c:148:20
	str	r0, [sp, #12]
	.loc	1 148 14                        @ rt-thread/components/dfs/src/dfs.c:148:14
	b	.LBB5_16
.LBB5_16:                               @ =>This Inner Loop Header: Depth=1
.Ltmp47:
	.loc	1 148 34                        @ rt-thread/components/dfs/src/dfs.c:148:34
	ldr	r0, [sp, #12]
	.loc	1 148 42                        @ rt-thread/components/dfs/src/dfs.c:148:42
	ldr	r1, [sp, #16]
.Ltmp48:
	.loc	1 148 9                         @ rt-thread/components/dfs/src/dfs.c:148:9
	cmp	r0, r1
	bge	.LBB5_19
	b	.LBB5_17
.LBB5_17:                               @   in Loop: Header=BB5_16 Depth=1
.Ltmp49:
	.loc	1 150 13 is_stmt 1              @ rt-thread/components/dfs/src/dfs.c:150:13
	ldr	r1, [sp, #8]
	.loc	1 150 17 is_stmt 0              @ rt-thread/components/dfs/src/dfs.c:150:17
	ldr	r2, [sp, #12]
	movs	r0, #0
	.loc	1 150 24                        @ rt-thread/components/dfs/src/dfs.c:150:24
	str.w	r0, [r1, r2, lsl #2]
	.loc	1 151 9 is_stmt 1               @ rt-thread/components/dfs/src/dfs.c:151:9
	b	.LBB5_18
.Ltmp50:
.LBB5_18:                               @   in Loop: Header=BB5_16 Depth=1
	.loc	1 148 53                        @ rt-thread/components/dfs/src/dfs.c:148:53
	ldr	r0, [sp, #12]
	adds	r0, #1
	str	r0, [sp, #12]
	.loc	1 148 9 is_stmt 0               @ rt-thread/components/dfs/src/dfs.c:148:9
	b	.LBB5_16
.Ltmp51:
.LBB5_19:
	.loc	1 153 22 is_stmt 1              @ rt-thread/components/dfs/src/dfs.c:153:22
	ldr	r0, [sp, #8]
	.loc	1 153 9 is_stmt 0               @ rt-thread/components/dfs/src/dfs.c:153:9
	ldr	r1, [sp, #28]
	.loc	1 153 20                        @ rt-thread/components/dfs/src/dfs.c:153:20
	str	r0, [r1, #4]
	.loc	1 154 22 is_stmt 1              @ rt-thread/components/dfs/src/dfs.c:154:22
	ldr	r0, [sp, #16]
	.loc	1 154 9 is_stmt 0               @ rt-thread/components/dfs/src/dfs.c:154:9
	ldr	r1, [sp, #28]
	.loc	1 154 20                        @ rt-thread/components/dfs/src/dfs.c:154:20
	str	r0, [r1]
	.loc	1 155 5 is_stmt 1               @ rt-thread/components/dfs/src/dfs.c:155:5
	b	.LBB5_20
.Ltmp52:
.LBB5_20:
	.loc	1 158 9                         @ rt-thread/components/dfs/src/dfs.c:158:9
	ldr	r0, [sp, #20]
	.loc	1 158 20 is_stmt 0              @ rt-thread/components/dfs/src/dfs.c:158:20
	ldr	r1, [sp, #28]
	.loc	1 158 25                        @ rt-thread/components/dfs/src/dfs.c:158:25
	ldr	r1, [r1]
	.loc	1 158 31                        @ rt-thread/components/dfs/src/dfs.c:158:31
	cmp	r0, r1
	bge	.LBB5_25
	b	.LBB5_21
.LBB5_21:
	.loc	1 158 34                        @ rt-thread/components/dfs/src/dfs.c:158:34
	ldr	r0, [sp, #28]
	.loc	1 158 39                        @ rt-thread/components/dfs/src/dfs.c:158:39
	ldr	r0, [r0, #4]
	.loc	1 158 43                        @ rt-thread/components/dfs/src/dfs.c:158:43
	ldr	r1, [sp, #20]
	.loc	1 158 34                        @ rt-thread/components/dfs/src/dfs.c:158:34
	ldr.w	r0, [r0, r1, lsl #2]
.Ltmp53:
	.loc	1 158 9                         @ rt-thread/components/dfs/src/dfs.c:158:9
	cbnz	r0, .LBB5_25
	b	.LBB5_22
.LBB5_22:
	.loc	1 0 9                           @ rt-thread/components/dfs/src/dfs.c:0:9
	movs	r0, #1
	movs	r1, #36
.Ltmp54:
	.loc	1 160 42 is_stmt 1              @ rt-thread/components/dfs/src/dfs.c:160:42
	bl	rt_calloc
	.loc	1 160 9 is_stmt 0               @ rt-thread/components/dfs/src/dfs.c:160:9
	ldr	r1, [sp, #28]
	.loc	1 160 14                        @ rt-thread/components/dfs/src/dfs.c:160:14
	ldr	r1, [r1, #4]
	.loc	1 160 18                        @ rt-thread/components/dfs/src/dfs.c:160:18
	ldr	r2, [sp, #20]
	.loc	1 160 23                        @ rt-thread/components/dfs/src/dfs.c:160:23
	str.w	r0, [r1, r2, lsl #2]
.Ltmp55:
	.loc	1 161 13 is_stmt 1              @ rt-thread/components/dfs/src/dfs.c:161:13
	ldr	r0, [sp, #28]
	.loc	1 161 18 is_stmt 0              @ rt-thread/components/dfs/src/dfs.c:161:18
	ldr	r0, [r0, #4]
	.loc	1 161 22                        @ rt-thread/components/dfs/src/dfs.c:161:22
	ldr	r1, [sp, #20]
	.loc	1 161 13                        @ rt-thread/components/dfs/src/dfs.c:161:13
	ldr.w	r0, [r0, r1, lsl #2]
.Ltmp56:
	.loc	1 161 13                        @ rt-thread/components/dfs/src/dfs.c:161:13
	cbnz	r0, .LBB5_24
	b	.LBB5_23
.LBB5_23:
.Ltmp57:
	.loc	1 162 19 is_stmt 1              @ rt-thread/components/dfs/src/dfs.c:162:19
	ldr	r0, [sp, #28]
	.loc	1 162 24 is_stmt 0              @ rt-thread/components/dfs/src/dfs.c:162:24
	ldr	r0, [r0]
	.loc	1 162 17                        @ rt-thread/components/dfs/src/dfs.c:162:17
	str	r0, [sp, #20]
	.loc	1 162 13                        @ rt-thread/components/dfs/src/dfs.c:162:13
	b	.LBB5_24
.Ltmp58:
.LBB5_24:
	.loc	1 163 5 is_stmt 1               @ rt-thread/components/dfs/src/dfs.c:163:5
	b	.LBB5_25
.Ltmp59:
.LBB5_25:
	.loc	1 158 51                        @ rt-thread/components/dfs/src/dfs.c:158:51
	b	.LBB5_26
.Ltmp60:
.LBB5_26:
	@DEBUG_LABEL: fd_alloc:__exit
	.loc	1 166 12                        @ rt-thread/components/dfs/src/dfs.c:166:12
	ldr	r0, [sp, #20]
	.loc	1 166 5 is_stmt 0               @ rt-thread/components/dfs/src/dfs.c:166:5
	add	sp, #32
	pop	{r7, pc}
.Ltmp61:
.Lfunc_end5:
	.size	fd_alloc, .Lfunc_end5-fd_alloc
	.cfi_endproc
	.cantunwind
	.fnend
                                        @ -- End function
	.section	.text.fd_get,"ax",%progbits
	.hidden	fd_get                          @ -- Begin function fd_get
	.globl	fd_get
	.p2align	3
	.type	fd_get,%function
	.code	16                              @ @fd_get
	.thumb_func
fd_get:
.Lfunc_begin6:
	.loc	1 215 0 is_stmt 1               @ rt-thread/components/dfs/src/dfs.c:215:0
	.fnstart
	.cfi_startproc
@ %bb.0:
	.save	{r7, lr}
	push	{r7, lr}
	.cfi_def_cfa_offset 8
	.cfi_offset lr, -4
	.cfi_offset r7, -8
	.pad	#16
	sub	sp, #16
	.cfi_def_cfa_offset 24
	str	r0, [sp, #8]
.Ltmp62:
	.loc	1 220 15 prologue_end           @ rt-thread/components/dfs/src/dfs.c:220:15
	ldr	r0, [sp, #8]
	.loc	1 220 19 is_stmt 0              @ rt-thread/components/dfs/src/dfs.c:220:19
	cmp	r0, #0
	bmi	.LBB6_3
	b	.LBB6_1
.LBB6_1:
	.loc	1 220 23                        @ rt-thread/components/dfs/src/dfs.c:220:23
	ldr	r0, [sp, #8]
.Ltmp63:
	.loc	1 220 9                         @ rt-thread/components/dfs/src/dfs.c:220:9
	cmp	r0, #2
	bgt	.LBB6_3
	b	.LBB6_2
.LBB6_2:
.Ltmp64:
	.loc	1 221 14 is_stmt 1              @ rt-thread/components/dfs/src/dfs.c:221:14
	bl	libc_stdio_get_console
	.loc	1 221 12 is_stmt 0              @ rt-thread/components/dfs/src/dfs.c:221:12
	str	r0, [sp, #8]
	.loc	1 221 9                         @ rt-thread/components/dfs/src/dfs.c:221:9
	b	.LBB6_3
.Ltmp65:
.LBB6_3:
	.loc	1 224 11 is_stmt 1              @ rt-thread/components/dfs/src/dfs.c:224:11
	bl	dfs_fdtable_get
	.loc	1 224 9 is_stmt 0               @ rt-thread/components/dfs/src/dfs.c:224:9
	str	r0, [sp]
	.loc	1 225 10 is_stmt 1              @ rt-thread/components/dfs/src/dfs.c:225:10
	ldr	r0, [sp, #8]
	.loc	1 225 13 is_stmt 0              @ rt-thread/components/dfs/src/dfs.c:225:13
	subs	r0, #3
	.loc	1 225 8                         @ rt-thread/components/dfs/src/dfs.c:225:8
	str	r0, [sp, #8]
.Ltmp66:
	.loc	1 226 9 is_stmt 1               @ rt-thread/components/dfs/src/dfs.c:226:9
	ldr	r0, [sp, #8]
	.loc	1 226 16 is_stmt 0              @ rt-thread/components/dfs/src/dfs.c:226:16
	cmp	r0, #0
	bmi	.LBB6_5
	b	.LBB6_4
.LBB6_4:
	.loc	1 226 19                        @ rt-thread/components/dfs/src/dfs.c:226:19
	ldr	r0, [sp, #8]
	.loc	1 226 30                        @ rt-thread/components/dfs/src/dfs.c:226:30
	ldr	r1, [sp]
	.loc	1 226 35                        @ rt-thread/components/dfs/src/dfs.c:226:35
	ldr	r1, [r1]
.Ltmp67:
	.loc	1 226 9                         @ rt-thread/components/dfs/src/dfs.c:226:9
	cmp	r0, r1
	blt	.LBB6_6
	b	.LBB6_5
.LBB6_5:
	.loc	1 0 9                           @ rt-thread/components/dfs/src/dfs.c:0:9
	movs	r0, #0
.Ltmp68:
	.loc	1 227 9 is_stmt 1               @ rt-thread/components/dfs/src/dfs.c:227:9
	str	r0, [sp, #12]
	b	.LBB6_10
.Ltmp69:
.LBB6_6:
	.loc	1 229 5                         @ rt-thread/components/dfs/src/dfs.c:229:5
	bl	dfs_lock
	.loc	1 230 9                         @ rt-thread/components/dfs/src/dfs.c:230:9
	ldr	r0, [sp]
	.loc	1 230 14 is_stmt 0              @ rt-thread/components/dfs/src/dfs.c:230:14
	ldr	r0, [r0, #4]
	.loc	1 230 18                        @ rt-thread/components/dfs/src/dfs.c:230:18
	ldr	r1, [sp, #8]
	.loc	1 230 9                         @ rt-thread/components/dfs/src/dfs.c:230:9
	ldr.w	r0, [r0, r1, lsl #2]
	.loc	1 230 7                         @ rt-thread/components/dfs/src/dfs.c:230:7
	str	r0, [sp, #4]
.Ltmp70:
	.loc	1 233 10 is_stmt 1              @ rt-thread/components/dfs/src/dfs.c:233:10
	ldr	r0, [sp, #4]
	.loc	1 233 21 is_stmt 0              @ rt-thread/components/dfs/src/dfs.c:233:21
	cbz	r0, .LBB6_8
	b	.LBB6_7
.LBB6_7:
	.loc	1 233 25                        @ rt-thread/components/dfs/src/dfs.c:233:25
	ldr	r0, [sp, #4]
	.loc	1 233 28                        @ rt-thread/components/dfs/src/dfs.c:233:28
	ldrh	r0, [r0]
	movw	r1, #65021
.Ltmp71:
	.loc	1 233 9                         @ rt-thread/components/dfs/src/dfs.c:233:9
	cmp	r0, r1
	beq	.LBB6_9
	b	.LBB6_8
.LBB6_8:
.Ltmp72:
	.loc	1 235 9 is_stmt 1               @ rt-thread/components/dfs/src/dfs.c:235:9
	bl	dfs_unlock
	movs	r0, #0
	.loc	1 236 9                         @ rt-thread/components/dfs/src/dfs.c:236:9
	str	r0, [sp, #12]
	b	.LBB6_10
.Ltmp73:
.LBB6_9:
	.loc	1 240 5                         @ rt-thread/components/dfs/src/dfs.c:240:5
	ldr	r1, [sp, #4]
	.loc	1 240 18 is_stmt 0              @ rt-thread/components/dfs/src/dfs.c:240:18
	ldr	r0, [r1, #8]
	adds	r0, #1
	str	r0, [r1, #8]
	.loc	1 241 5 is_stmt 1               @ rt-thread/components/dfs/src/dfs.c:241:5
	bl	dfs_unlock
	.loc	1 243 12                        @ rt-thread/components/dfs/src/dfs.c:243:12
	ldr	r0, [sp, #4]
	.loc	1 243 5 is_stmt 0               @ rt-thread/components/dfs/src/dfs.c:243:5
	str	r0, [sp, #12]
	b	.LBB6_10
.LBB6_10:
	.loc	1 244 1 is_stmt 1               @ rt-thread/components/dfs/src/dfs.c:244:1
	ldr	r0, [sp, #12]
	add	sp, #16
	pop	{r7, pc}
.Ltmp74:
.Lfunc_end6:
	.size	fd_get, .Lfunc_end6-fd_get
	.cfi_endproc
	.cantunwind
	.fnend
                                        @ -- End function
	.section	.text.fd_put,"ax",%progbits
	.hidden	fd_put                          @ -- Begin function fd_put
	.globl	fd_put
	.p2align	3
	.type	fd_put,%function
	.code	16                              @ @fd_put
	.thumb_func
fd_put:
.Lfunc_begin7:
	.loc	1 252 0                         @ rt-thread/components/dfs/src/dfs.c:252:0
	.fnstart
	.cfi_startproc
@ %bb.0:
	.save	{r7, lr}
	push	{r7, lr}
	.cfi_def_cfa_offset 8
	.cfi_offset lr, -4
	.cfi_offset r7, -8
	.pad	#16
	sub	sp, #16
	.cfi_def_cfa_offset 24
	str	r0, [sp, #12]
.Ltmp75:
	.loc	1 253 5 prologue_end            @ rt-thread/components/dfs/src/dfs.c:253:5
	ldr	r0, [sp, #12]
.Ltmp76:
	.loc	1 253 5 is_stmt 0               @ rt-thread/components/dfs/src/dfs.c:253:5
	cbnz	r0, .LBB7_2
	b	.LBB7_1
.LBB7_1:
.Ltmp77:
	.loc	1 253 5                         @ rt-thread/components/dfs/src/dfs.c:253:5
	movw	r0, :lower16:.L.str.8
	movt	r0, :upper16:.L.str.8
	movw	r1, :lower16:.L__FUNCTION__.fd_put
	movt	r1, :upper16:.L__FUNCTION__.fd_put
	movs	r2, #253
	bl	rt_assert_handler
	b	.LBB7_2
.Ltmp78:
.LBB7_2:
	.loc	1 255 5 is_stmt 1               @ rt-thread/components/dfs/src/dfs.c:255:5
	bl	dfs_lock
	.loc	1 257 5                         @ rt-thread/components/dfs/src/dfs.c:257:5
	ldr	r1, [sp, #12]
	.loc	1 257 19 is_stmt 0              @ rt-thread/components/dfs/src/dfs.c:257:19
	ldr	r0, [r1, #8]
	subs	r0, #1
	str	r0, [r1, #8]
.Ltmp79:
	.loc	1 260 9 is_stmt 1               @ rt-thread/components/dfs/src/dfs.c:260:9
	ldr	r0, [sp, #12]
	.loc	1 260 13 is_stmt 0              @ rt-thread/components/dfs/src/dfs.c:260:13
	ldr	r0, [r0, #8]
.Ltmp80:
	.loc	1 260 9                         @ rt-thread/components/dfs/src/dfs.c:260:9
	cbnz	r0, .LBB7_10
	b	.LBB7_3
.LBB7_3:
.Ltmp81:
	.loc	1 265 15 is_stmt 1              @ rt-thread/components/dfs/src/dfs.c:265:15
	bl	dfs_fdtable_get
	.loc	1 265 13 is_stmt 0              @ rt-thread/components/dfs/src/dfs.c:265:13
	str	r0, [sp, #4]
	movs	r0, #0
.Ltmp82:
	.loc	1 266 20 is_stmt 1              @ rt-thread/components/dfs/src/dfs.c:266:20
	str	r0, [sp, #8]
	.loc	1 266 14 is_stmt 0              @ rt-thread/components/dfs/src/dfs.c:266:14
	b	.LBB7_4
.LBB7_4:                                @ =>This Inner Loop Header: Depth=1
.Ltmp83:
	.loc	1 266 25                        @ rt-thread/components/dfs/src/dfs.c:266:25
	ldr	r0, [sp, #8]
	.loc	1 266 38                        @ rt-thread/components/dfs/src/dfs.c:266:38
	ldr	r1, [sp, #4]
	.loc	1 266 43                        @ rt-thread/components/dfs/src/dfs.c:266:43
	ldr	r1, [r1]
.Ltmp84:
	.loc	1 266 9                         @ rt-thread/components/dfs/src/dfs.c:266:9
	cmp	r0, r1
	bge	.LBB7_9
	b	.LBB7_5
.LBB7_5:                                @   in Loop: Header=BB7_4 Depth=1
.Ltmp85:
	.loc	1 268 17 is_stmt 1              @ rt-thread/components/dfs/src/dfs.c:268:17
	ldr	r0, [sp, #4]
	.loc	1 268 22 is_stmt 0              @ rt-thread/components/dfs/src/dfs.c:268:22
	ldr	r0, [r0, #4]
	.loc	1 268 26                        @ rt-thread/components/dfs/src/dfs.c:268:26
	ldr	r1, [sp, #8]
	.loc	1 268 17                        @ rt-thread/components/dfs/src/dfs.c:268:17
	ldr.w	r0, [r0, r1, lsl #2]
	.loc	1 268 36                        @ rt-thread/components/dfs/src/dfs.c:268:36
	ldr	r1, [sp, #12]
.Ltmp86:
	.loc	1 268 17                        @ rt-thread/components/dfs/src/dfs.c:268:17
	cmp	r0, r1
	bne	.LBB7_7
	b	.LBB7_6
.LBB7_6:
.Ltmp87:
	.loc	1 270 25 is_stmt 1              @ rt-thread/components/dfs/src/dfs.c:270:25
	ldr	r0, [sp, #12]
	.loc	1 270 17 is_stmt 0              @ rt-thread/components/dfs/src/dfs.c:270:17
	bl	rt_free
	.loc	1 271 17 is_stmt 1              @ rt-thread/components/dfs/src/dfs.c:271:17
	ldr	r0, [sp, #4]
	.loc	1 271 22 is_stmt 0              @ rt-thread/components/dfs/src/dfs.c:271:22
	ldr	r1, [r0, #4]
	.loc	1 271 26                        @ rt-thread/components/dfs/src/dfs.c:271:26
	ldr	r2, [sp, #8]
	movs	r0, #0
	.loc	1 271 33                        @ rt-thread/components/dfs/src/dfs.c:271:33
	str.w	r0, [r1, r2, lsl #2]
	.loc	1 272 17 is_stmt 1              @ rt-thread/components/dfs/src/dfs.c:272:17
	b	.LBB7_9
.Ltmp88:
.LBB7_7:                                @   in Loop: Header=BB7_4 Depth=1
	.loc	1 274 9                         @ rt-thread/components/dfs/src/dfs.c:274:9
	b	.LBB7_8
.Ltmp89:
.LBB7_8:                                @   in Loop: Header=BB7_4 Depth=1
	.loc	1 266 56                        @ rt-thread/components/dfs/src/dfs.c:266:56
	ldr	r0, [sp, #8]
	adds	r0, #1
	str	r0, [sp, #8]
	.loc	1 266 9 is_stmt 0               @ rt-thread/components/dfs/src/dfs.c:266:9
	b	.LBB7_4
.Ltmp90:
.LBB7_9:
	.loc	1 275 5 is_stmt 1               @ rt-thread/components/dfs/src/dfs.c:275:5
	b	.LBB7_10
.Ltmp91:
.LBB7_10:
	.loc	1 276 5                         @ rt-thread/components/dfs/src/dfs.c:276:5
	bl	dfs_unlock
	.loc	1 277 1                         @ rt-thread/components/dfs/src/dfs.c:277:1
	add	sp, #16
	pop	{r7, pc}
.Ltmp92:
.Lfunc_end7:
	.size	fd_put, .Lfunc_end7-fd_put
	.cfi_endproc
	.cantunwind
	.fnend
                                        @ -- End function
	.section	.text.fd_is_open,"ax",%progbits
	.hidden	fd_is_open                      @ -- Begin function fd_is_open
	.globl	fd_is_open
	.p2align	3
	.type	fd_is_open,%function
	.code	16                              @ @fd_is_open
	.thumb_func
fd_is_open:
.Lfunc_begin8:
	.loc	1 289 0                         @ rt-thread/components/dfs/src/dfs.c:289:0
	.fnstart
	.cfi_startproc
@ %bb.0:
	.save	{r7, lr}
	push	{r7, lr}
	.cfi_def_cfa_offset 8
	.cfi_offset lr, -4
	.cfi_offset r7, -8
	.pad	#40
	sub	sp, #40
	.cfi_def_cfa_offset 48
	str	r0, [sp, #32]
.Ltmp93:
	.loc	1 296 11 prologue_end           @ rt-thread/components/dfs/src/dfs.c:296:11
	bl	dfs_fdtable_get
	.loc	1 296 9 is_stmt 0               @ rt-thread/components/dfs/src/dfs.c:296:9
	str	r0, [sp, #12]
	.loc	1 297 41 is_stmt 1              @ rt-thread/components/dfs/src/dfs.c:297:41
	ldr	r1, [sp, #32]
	movs	r0, #0
	.loc	1 297 16 is_stmt 0              @ rt-thread/components/dfs/src/dfs.c:297:16
	bl	dfs_normalize_path
	.loc	1 297 14                        @ rt-thread/components/dfs/src/dfs.c:297:14
	str	r0, [sp, #28]
.Ltmp94:
	.loc	1 298 9 is_stmt 1               @ rt-thread/components/dfs/src/dfs.c:298:9
	ldr	r0, [sp, #28]
.Ltmp95:
	.loc	1 298 9 is_stmt 0               @ rt-thread/components/dfs/src/dfs.c:298:9
	cmp	r0, #0
	beq	.LBB8_19
	b	.LBB8_1
.LBB8_1:
.Ltmp96:
	.loc	1 301 36 is_stmt 1              @ rt-thread/components/dfs/src/dfs.c:301:36
	ldr	r0, [sp, #28]
	.loc	1 301 14 is_stmt 0              @ rt-thread/components/dfs/src/dfs.c:301:14
	bl	dfs_filesystem_lookup
	.loc	1 301 12                        @ rt-thread/components/dfs/src/dfs.c:301:12
	str	r0, [sp, #20]
.Ltmp97:
	.loc	1 302 13 is_stmt 1              @ rt-thread/components/dfs/src/dfs.c:302:13
	ldr	r0, [sp, #20]
.Ltmp98:
	.loc	1 302 13 is_stmt 0              @ rt-thread/components/dfs/src/dfs.c:302:13
	cbnz	r0, .LBB8_3
	b	.LBB8_2
.LBB8_2:
.Ltmp99:
	.loc	1 305 21 is_stmt 1              @ rt-thread/components/dfs/src/dfs.c:305:21
	ldr	r0, [sp, #28]
	.loc	1 305 13 is_stmt 0              @ rt-thread/components/dfs/src/dfs.c:305:13
	bl	rt_free
	mov.w	r0, #-1
	.loc	1 307 13 is_stmt 1              @ rt-thread/components/dfs/src/dfs.c:307:13
	str	r0, [sp, #36]
	b	.LBB8_20
.Ltmp100:
.LBB8_3:
	.loc	1 311 13                        @ rt-thread/components/dfs/src/dfs.c:311:13
	ldr	r0, [sp, #20]
	.loc	1 311 17 is_stmt 0              @ rt-thread/components/dfs/src/dfs.c:311:17
	ldr	r0, [r0, #4]
	.loc	1 311 13                        @ rt-thread/components/dfs/src/dfs.c:311:13
	ldrsb.w	r0, [r0]
	.loc	1 311 32                        @ rt-thread/components/dfs/src/dfs.c:311:32
	cmp	r0, #47
	bne	.LBB8_6
	b	.LBB8_4
.LBB8_4:
	.loc	1 311 35                        @ rt-thread/components/dfs/src/dfs.c:311:35
	ldr	r0, [sp, #20]
	.loc	1 311 39                        @ rt-thread/components/dfs/src/dfs.c:311:39
	ldr	r0, [r0, #4]
	.loc	1 311 35                        @ rt-thread/components/dfs/src/dfs.c:311:35
	ldrsb.w	r0, [r0, #1]
.Ltmp101:
	.loc	1 311 13                        @ rt-thread/components/dfs/src/dfs.c:311:13
	cbnz	r0, .LBB8_6
	b	.LBB8_5
.LBB8_5:
.Ltmp102:
	.loc	1 312 25 is_stmt 1              @ rt-thread/components/dfs/src/dfs.c:312:25
	ldr	r0, [sp, #28]
	.loc	1 312 23 is_stmt 0              @ rt-thread/components/dfs/src/dfs.c:312:23
	str	r0, [sp, #8]
	.loc	1 312 13                        @ rt-thread/components/dfs/src/dfs.c:312:13
	b	.LBB8_7
.LBB8_6:
	.loc	1 314 25 is_stmt 1              @ rt-thread/components/dfs/src/dfs.c:314:25
	ldr	r0, [sp, #28]
	.loc	1 314 43 is_stmt 0              @ rt-thread/components/dfs/src/dfs.c:314:43
	str	r0, [sp, #4]                    @ 4-byte Spill
	ldr	r0, [sp, #20]
	.loc	1 314 47                        @ rt-thread/components/dfs/src/dfs.c:314:47
	ldr	r0, [r0, #4]
	.loc	1 314 36                        @ rt-thread/components/dfs/src/dfs.c:314:36
	bl	strlen
	mov	r1, r0
	.loc	1 314 34                        @ rt-thread/components/dfs/src/dfs.c:314:34
	ldr	r0, [sp, #4]                    @ 4-byte Reload
	add	r0, r1
	.loc	1 314 23                        @ rt-thread/components/dfs/src/dfs.c:314:23
	str	r0, [sp, #8]
	b	.LBB8_7
.Ltmp103:
.LBB8_7:
	.loc	1 316 9 is_stmt 1               @ rt-thread/components/dfs/src/dfs.c:316:9
	bl	dfs_lock
	movs	r0, #0
.Ltmp104:
	.loc	1 318 20                        @ rt-thread/components/dfs/src/dfs.c:318:20
	str	r0, [sp, #24]
	.loc	1 318 14 is_stmt 0              @ rt-thread/components/dfs/src/dfs.c:318:14
	b	.LBB8_8
.LBB8_8:                                @ =>This Inner Loop Header: Depth=1
.Ltmp105:
	.loc	1 318 25                        @ rt-thread/components/dfs/src/dfs.c:318:25
	ldr	r0, [sp, #24]
	.loc	1 318 33                        @ rt-thread/components/dfs/src/dfs.c:318:33
	ldr	r1, [sp, #12]
	.loc	1 318 38                        @ rt-thread/components/dfs/src/dfs.c:318:38
	ldr	r1, [r1]
.Ltmp106:
	.loc	1 318 9                         @ rt-thread/components/dfs/src/dfs.c:318:9
	cmp	r0, r1
	bhs	.LBB8_18
	b	.LBB8_9
.LBB8_9:                                @   in Loop: Header=BB8_8 Depth=1
.Ltmp107:
	.loc	1 320 18 is_stmt 1              @ rt-thread/components/dfs/src/dfs.c:320:18
	ldr	r0, [sp, #12]
	.loc	1 320 23 is_stmt 0              @ rt-thread/components/dfs/src/dfs.c:320:23
	ldr	r0, [r0, #4]
	.loc	1 320 27                        @ rt-thread/components/dfs/src/dfs.c:320:27
	ldr	r1, [sp, #24]
	.loc	1 320 18                        @ rt-thread/components/dfs/src/dfs.c:320:18
	ldr.w	r0, [r0, r1, lsl #2]
	.loc	1 320 16                        @ rt-thread/components/dfs/src/dfs.c:320:16
	str	r0, [sp, #16]
.Ltmp108:
	.loc	1 321 17 is_stmt 1              @ rt-thread/components/dfs/src/dfs.c:321:17
	ldr	r0, [sp, #16]
	.loc	1 321 28 is_stmt 0              @ rt-thread/components/dfs/src/dfs.c:321:28
	cbz	r0, .LBB8_12
	b	.LBB8_10
.LBB8_10:                               @   in Loop: Header=BB8_8 Depth=1
	.loc	1 321 31                        @ rt-thread/components/dfs/src/dfs.c:321:31
	ldr	r0, [sp, #16]
	.loc	1 321 35                        @ rt-thread/components/dfs/src/dfs.c:321:35
	ldr	r0, [r0, #16]
	.loc	1 321 48                        @ rt-thread/components/dfs/src/dfs.c:321:48
	cbz	r0, .LBB8_12
	b	.LBB8_11
.LBB8_11:                               @   in Loop: Header=BB8_8 Depth=1
	.loc	1 321 51                        @ rt-thread/components/dfs/src/dfs.c:321:51
	ldr	r0, [sp, #16]
	.loc	1 321 55                        @ rt-thread/components/dfs/src/dfs.c:321:55
	ldr	r0, [r0, #4]
.Ltmp109:
	.loc	1 321 17                        @ rt-thread/components/dfs/src/dfs.c:321:17
	cbnz	r0, .LBB8_13
	b	.LBB8_12
.LBB8_12:                               @   in Loop: Header=BB8_8 Depth=1
.Ltmp110:
	.loc	1 321 69                        @ rt-thread/components/dfs/src/dfs.c:321:69
	b	.LBB8_17
.Ltmp111:
.LBB8_13:                               @   in Loop: Header=BB8_8 Depth=1
	.loc	1 323 17 is_stmt 1              @ rt-thread/components/dfs/src/dfs.c:323:17
	ldr	r0, [sp, #16]
	.loc	1 323 21 is_stmt 0              @ rt-thread/components/dfs/src/dfs.c:323:21
	ldr	r0, [r0, #12]
	.loc	1 323 27                        @ rt-thread/components/dfs/src/dfs.c:323:27
	ldr	r1, [sp, #20]
	.loc	1 323 30                        @ rt-thread/components/dfs/src/dfs.c:323:30
	cmp	r0, r1
	bne	.LBB8_16
	b	.LBB8_14
.LBB8_14:                               @   in Loop: Header=BB8_8 Depth=1
	.loc	1 323 40                        @ rt-thread/components/dfs/src/dfs.c:323:40
	ldr	r0, [sp, #16]
	.loc	1 323 44                        @ rt-thread/components/dfs/src/dfs.c:323:44
	ldr	r0, [r0, #4]
	.loc	1 323 50                        @ rt-thread/components/dfs/src/dfs.c:323:50
	ldr	r1, [sp, #8]
	.loc	1 323 33                        @ rt-thread/components/dfs/src/dfs.c:323:33
	bl	strcmp
.Ltmp112:
	.loc	1 323 17                        @ rt-thread/components/dfs/src/dfs.c:323:17
	cbnz	r0, .LBB8_16
	b	.LBB8_15
.LBB8_15:
.Ltmp113:
	.loc	1 326 25 is_stmt 1              @ rt-thread/components/dfs/src/dfs.c:326:25
	ldr	r0, [sp, #28]
	.loc	1 326 17 is_stmt 0              @ rt-thread/components/dfs/src/dfs.c:326:17
	bl	rt_free
	.loc	1 327 17 is_stmt 1              @ rt-thread/components/dfs/src/dfs.c:327:17
	bl	dfs_unlock
	movs	r0, #0
	.loc	1 329 17                        @ rt-thread/components/dfs/src/dfs.c:329:17
	str	r0, [sp, #36]
	b	.LBB8_20
.Ltmp114:
.LBB8_16:                               @   in Loop: Header=BB8_8 Depth=1
	.loc	1 331 9                         @ rt-thread/components/dfs/src/dfs.c:331:9
	b	.LBB8_17
.Ltmp115:
.LBB8_17:                               @   in Loop: Header=BB8_8 Depth=1
	.loc	1 318 50                        @ rt-thread/components/dfs/src/dfs.c:318:50
	ldr	r0, [sp, #24]
	adds	r0, #1
	str	r0, [sp, #24]
	.loc	1 318 9 is_stmt 0               @ rt-thread/components/dfs/src/dfs.c:318:9
	b	.LBB8_8
.Ltmp116:
.LBB8_18:
	.loc	1 332 9 is_stmt 1               @ rt-thread/components/dfs/src/dfs.c:332:9
	bl	dfs_unlock
	.loc	1 334 17                        @ rt-thread/components/dfs/src/dfs.c:334:17
	ldr	r0, [sp, #28]
	.loc	1 334 9 is_stmt 0               @ rt-thread/components/dfs/src/dfs.c:334:9
	bl	rt_free
	.loc	1 335 5 is_stmt 1               @ rt-thread/components/dfs/src/dfs.c:335:5
	b	.LBB8_19
.Ltmp117:
.LBB8_19:
	.loc	1 0 5 is_stmt 0                 @ rt-thread/components/dfs/src/dfs.c:0:5
	mov.w	r0, #-1
	.loc	1 337 5 is_stmt 1               @ rt-thread/components/dfs/src/dfs.c:337:5
	str	r0, [sp, #36]
	b	.LBB8_20
.LBB8_20:
	.loc	1 338 1                         @ rt-thread/components/dfs/src/dfs.c:338:1
	ldr	r0, [sp, #36]
	add	sp, #40
	pop	{r7, pc}
.Ltmp118:
.Lfunc_end8:
	.size	fd_is_open, .Lfunc_end8-fd_is_open
	.cfi_endproc
	.cantunwind
	.fnend
                                        @ -- End function
	.section	.text.dfs_normalize_path,"ax",%progbits
	.hidden	dfs_normalize_path              @ -- Begin function dfs_normalize_path
	.globl	dfs_normalize_path
	.p2align	3
	.type	dfs_normalize_path,%function
	.code	16                              @ @dfs_normalize_path
	.thumb_func
dfs_normalize_path:
.Lfunc_begin9:
	.loc	1 375 0                         @ rt-thread/components/dfs/src/dfs.c:375:0
	.fnstart
	.cfi_startproc
@ %bb.0:
	.save	{r7, lr}
	push	{r7, lr}
	.cfi_def_cfa_offset 8
	.cfi_offset lr, -4
	.cfi_offset r7, -8
	.pad	#64
	sub	sp, #64
	.cfi_def_cfa_offset 72
	str	r0, [sp, #56]
	str	r1, [sp, #52]
.Ltmp119:
	.loc	1 380 5 prologue_end            @ rt-thread/components/dfs/src/dfs.c:380:5
	ldr	r0, [sp, #52]
.Ltmp120:
	.loc	1 380 5 is_stmt 0               @ rt-thread/components/dfs/src/dfs.c:380:5
	cbnz	r0, .LBB9_2
	b	.LBB9_1
.LBB9_1:
.Ltmp121:
	.loc	1 380 5                         @ rt-thread/components/dfs/src/dfs.c:380:5
	movw	r0, :lower16:.L.str.9
	movt	r0, :upper16:.L.str.9
	movw	r1, :lower16:.L__FUNCTION__.dfs_normalize_path
	movt	r1, :upper16:.L__FUNCTION__.dfs_normalize_path
	mov.w	r2, #380
	bl	rt_assert_handler
	b	.LBB9_2
.Ltmp122:
.LBB9_2:
	.loc	1 383 9 is_stmt 1               @ rt-thread/components/dfs/src/dfs.c:383:9
	ldr	r0, [sp, #56]
.Ltmp123:
	.loc	1 383 9 is_stmt 0               @ rt-thread/components/dfs/src/dfs.c:383:9
	cbnz	r0, .LBB9_4
	b	.LBB9_3
.LBB9_3:
.Ltmp124:
	.loc	1 384 19 is_stmt 1              @ rt-thread/components/dfs/src/dfs.c:384:19
	movw	r0, :lower16:working_directory
	movt	r0, :upper16:working_directory
	str	r0, [sp, #56]
	.loc	1 384 9 is_stmt 0               @ rt-thread/components/dfs/src/dfs.c:384:9
	b	.LBB9_4
.Ltmp125:
.LBB9_4:
	.loc	1 394 9 is_stmt 1               @ rt-thread/components/dfs/src/dfs.c:394:9
	ldr	r0, [sp, #52]
	ldrsb.w	r0, [r0]
.Ltmp126:
	.loc	1 394 9 is_stmt 0               @ rt-thread/components/dfs/src/dfs.c:394:9
	cmp	r0, #47
	beq	.LBB9_8
	b	.LBB9_5
.LBB9_5:
.Ltmp127:
	.loc	1 396 45 is_stmt 1              @ rt-thread/components/dfs/src/dfs.c:396:45
	ldr	r0, [sp, #56]
	.loc	1 396 38 is_stmt 0              @ rt-thread/components/dfs/src/dfs.c:396:38
	bl	strlen
	.loc	1 396 65                        @ rt-thread/components/dfs/src/dfs.c:396:65
	str	r0, [sp, #28]                   @ 4-byte Spill
	ldr	r0, [sp, #52]
	.loc	1 396 58                        @ rt-thread/components/dfs/src/dfs.c:396:58
	bl	strlen
	mov	r1, r0
	.loc	1 396 56                        @ rt-thread/components/dfs/src/dfs.c:396:56
	ldr	r0, [sp, #28]                   @ 4-byte Reload
	add	r0, r1
	.loc	1 396 75                        @ rt-thread/components/dfs/src/dfs.c:396:75
	adds	r0, #2
	.loc	1 396 28                        @ rt-thread/components/dfs/src/dfs.c:396:28
	bl	rt_malloc
	.loc	1 396 18                        @ rt-thread/components/dfs/src/dfs.c:396:18
	str	r0, [sp, #48]
.Ltmp128:
	.loc	1 398 13 is_stmt 1              @ rt-thread/components/dfs/src/dfs.c:398:13
	ldr	r0, [sp, #48]
.Ltmp129:
	.loc	1 398 13 is_stmt 0              @ rt-thread/components/dfs/src/dfs.c:398:13
	cbnz	r0, .LBB9_7
	b	.LBB9_6
.LBB9_6:
	.loc	1 0 13                          @ rt-thread/components/dfs/src/dfs.c:0:13
	movs	r0, #0
.Ltmp130:
	.loc	1 399 13 is_stmt 1              @ rt-thread/components/dfs/src/dfs.c:399:13
	str	r0, [sp, #60]
	b	.LBB9_65
.Ltmp131:
.LBB9_7:
	.loc	1 402 21                        @ rt-thread/components/dfs/src/dfs.c:402:21
	ldr	r0, [sp, #48]
	.loc	1 402 38 is_stmt 0              @ rt-thread/components/dfs/src/dfs.c:402:38
	str	r0, [sp, #24]                   @ 4-byte Spill
	ldr	r0, [sp, #56]
	.loc	1 402 31                        @ rt-thread/components/dfs/src/dfs.c:402:31
	bl	strlen
	.loc	1 402 58                        @ rt-thread/components/dfs/src/dfs.c:402:58
	str	r0, [sp, #20]                   @ 4-byte Spill
	ldr	r0, [sp, #52]
	.loc	1 402 51                        @ rt-thread/components/dfs/src/dfs.c:402:51
	bl	strlen
	ldr	r1, [sp, #20]                   @ 4-byte Reload
	mov	r2, r0
	.loc	1 402 49                        @ rt-thread/components/dfs/src/dfs.c:402:49
	ldr	r0, [sp, #24]                   @ 4-byte Reload
	add	r1, r2
	.loc	1 402 68                        @ rt-thread/components/dfs/src/dfs.c:402:68
	adds	r1, #2
	.loc	1 403 30 is_stmt 1              @ rt-thread/components/dfs/src/dfs.c:403:30
	ldr	r3, [sp, #56]
	.loc	1 403 41 is_stmt 0              @ rt-thread/components/dfs/src/dfs.c:403:41
	ldr	r2, [sp, #52]
	.loc	1 402 9 is_stmt 1               @ rt-thread/components/dfs/src/dfs.c:402:9
	mov	r12, sp
	str.w	r2, [r12]
	movw	r2, :lower16:.L.str.10
	movt	r2, :upper16:.L.str.10
	bl	rt_snprintf
	.loc	1 404 5                         @ rt-thread/components/dfs/src/dfs.c:404:5
	b	.LBB9_11
.Ltmp132:
.LBB9_8:
	.loc	1 407 30                        @ rt-thread/components/dfs/src/dfs.c:407:30
	ldr	r0, [sp, #52]
	.loc	1 407 20 is_stmt 0              @ rt-thread/components/dfs/src/dfs.c:407:20
	bl	rt_strdup
	.loc	1 407 18                        @ rt-thread/components/dfs/src/dfs.c:407:18
	str	r0, [sp, #48]
.Ltmp133:
	.loc	1 409 13 is_stmt 1              @ rt-thread/components/dfs/src/dfs.c:409:13
	ldr	r0, [sp, #48]
.Ltmp134:
	.loc	1 409 13 is_stmt 0              @ rt-thread/components/dfs/src/dfs.c:409:13
	cbnz	r0, .LBB9_10
	b	.LBB9_9
.LBB9_9:
	.loc	1 0 13                          @ rt-thread/components/dfs/src/dfs.c:0:13
	movs	r0, #0
.Ltmp135:
	.loc	1 410 13 is_stmt 1              @ rt-thread/components/dfs/src/dfs.c:410:13
	str	r0, [sp, #60]
	b	.LBB9_65
.Ltmp136:
.LBB9_10:
	.loc	1 0 13 is_stmt 0                @ rt-thread/components/dfs/src/dfs.c:0:13
	b	.LBB9_11
.LBB9_11:
	.loc	1 413 11 is_stmt 1              @ rt-thread/components/dfs/src/dfs.c:413:11
	ldr	r0, [sp, #48]
	.loc	1 413 9 is_stmt 0               @ rt-thread/components/dfs/src/dfs.c:413:9
	str	r0, [sp, #36]
	.loc	1 414 11 is_stmt 1              @ rt-thread/components/dfs/src/dfs.c:414:11
	ldr	r0, [sp, #48]
	.loc	1 414 9 is_stmt 0               @ rt-thread/components/dfs/src/dfs.c:414:9
	str	r0, [sp, #40]
	.loc	1 416 12 is_stmt 1              @ rt-thread/components/dfs/src/dfs.c:416:12
	ldr	r0, [sp, #40]
	.loc	1 416 10 is_stmt 0              @ rt-thread/components/dfs/src/dfs.c:416:10
	str	r0, [sp, #44]
	.loc	1 417 5 is_stmt 1               @ rt-thread/components/dfs/src/dfs.c:417:5
	b	.LBB9_12
.LBB9_12:                               @ =>This Loop Header: Depth=1
                                        @     Child Loop BB9_38 Depth 2
                                        @     Child Loop BB9_44 Depth 2
                                        @     Child Loop BB9_27 Depth 2
                                        @     Child Loop BB9_54 Depth 2
                                        @     Child Loop BB9_17 Depth 2
.Ltmp137:
	.loc	1 419 19                        @ rt-thread/components/dfs/src/dfs.c:419:19
	ldr	r0, [sp, #36]
	.loc	1 419 18 is_stmt 0              @ rt-thread/components/dfs/src/dfs.c:419:18
	ldrb	r0, [r0]
	.loc	1 419 14                        @ rt-thread/components/dfs/src/dfs.c:419:14
	strb.w	r0, [sp, #35]
.Ltmp138:
	.loc	1 421 13 is_stmt 1              @ rt-thread/components/dfs/src/dfs.c:421:13
	ldrsb.w	r0, [sp, #35]
.Ltmp139:
	.loc	1 421 13 is_stmt 0              @ rt-thread/components/dfs/src/dfs.c:421:13
	cmp	r0, #46
	bne	.LBB9_37
	b	.LBB9_13
.LBB9_13:                               @   in Loop: Header=BB9_12 Depth=1
.Ltmp140:
	.loc	1 423 18 is_stmt 1              @ rt-thread/components/dfs/src/dfs.c:423:18
	ldr	r0, [sp, #36]
	ldrb	r0, [r0, #1]
.Ltmp141:
	.loc	1 423 17 is_stmt 0              @ rt-thread/components/dfs/src/dfs.c:423:17
	cbnz	r0, .LBB9_15
	b	.LBB9_14
.LBB9_14:                               @   in Loop: Header=BB9_12 Depth=1
.Ltmp142:
	.loc	1 423 30                        @ rt-thread/components/dfs/src/dfs.c:423:30
	ldr	r0, [sp, #36]
	adds	r0, #1
	str	r0, [sp, #36]
	.loc	1 423 26                        @ rt-thread/components/dfs/src/dfs.c:423:26
	b	.LBB9_36
.LBB9_15:                               @   in Loop: Header=BB9_12 Depth=1
.Ltmp143:
	.loc	1 424 22 is_stmt 1              @ rt-thread/components/dfs/src/dfs.c:424:22
	ldr	r0, [sp, #36]
	ldrsb.w	r0, [r0, #1]
.Ltmp144:
	.loc	1 424 22 is_stmt 0              @ rt-thread/components/dfs/src/dfs.c:424:22
	cmp	r0, #47
	bne	.LBB9_22
	b	.LBB9_16
.LBB9_16:                               @   in Loop: Header=BB9_12 Depth=1
.Ltmp145:
	.loc	1 427 21 is_stmt 1              @ rt-thread/components/dfs/src/dfs.c:427:21
	ldr	r0, [sp, #36]
	adds	r0, #2
	str	r0, [sp, #36]
	.loc	1 429 17                        @ rt-thread/components/dfs/src/dfs.c:429:17
	b	.LBB9_17
.LBB9_17:                               @   Parent Loop BB9_12 Depth=1
                                        @ =>  This Inner Loop Header: Depth=2
	.loc	1 429 26 is_stmt 0              @ rt-thread/components/dfs/src/dfs.c:429:26
	ldr	r0, [sp, #36]
	.loc	1 429 25                        @ rt-thread/components/dfs/src/dfs.c:429:25
	ldrsb.w	r1, [r0]
	movs	r0, #0
	.loc	1 429 38                        @ rt-thread/components/dfs/src/dfs.c:429:38
	cmp	r1, #47
	str	r0, [sp, #16]                   @ 4-byte Spill
	bne	.LBB9_19
	b	.LBB9_18
.LBB9_18:                               @   in Loop: Header=BB9_17 Depth=2
	.loc	1 429 43                        @ rt-thread/components/dfs/src/dfs.c:429:43
	ldr	r0, [sp, #36]
	.loc	1 429 42                        @ rt-thread/components/dfs/src/dfs.c:429:42
	ldrsb.w	r0, [r0]
	.loc	1 429 47                        @ rt-thread/components/dfs/src/dfs.c:429:47
	cmp	r0, #0
	it	ne
	movne	r0, #1
	str	r0, [sp, #16]                   @ 4-byte Spill
	b	.LBB9_19
.LBB9_19:                               @   in Loop: Header=BB9_17 Depth=2
	.loc	1 0 0                           @ rt-thread/components/dfs/src/dfs.c:0:0
	ldr	r0, [sp, #16]                   @ 4-byte Reload
	.loc	1 429 17                        @ rt-thread/components/dfs/src/dfs.c:429:17
	lsls	r0, r0, #31
	cbz	r0, .LBB9_21
	b	.LBB9_20
.LBB9_20:                               @   in Loop: Header=BB9_17 Depth=2
	.loc	1 430 25 is_stmt 1              @ rt-thread/components/dfs/src/dfs.c:430:25
	ldr	r0, [sp, #36]
	adds	r0, #1
	str	r0, [sp, #36]
	.loc	1 429 17                        @ rt-thread/components/dfs/src/dfs.c:429:17
	b	.LBB9_17
.LBB9_21:                               @   in Loop: Header=BB9_12 Depth=1
	.loc	1 431 17                        @ rt-thread/components/dfs/src/dfs.c:431:17
	b	.LBB9_12
.Ltmp146:
.LBB9_22:                               @   in Loop: Header=BB9_12 Depth=1
	.loc	1 433 22                        @ rt-thread/components/dfs/src/dfs.c:433:22
	ldr	r0, [sp, #36]
	ldrsb.w	r0, [r0, #1]
.Ltmp147:
	.loc	1 433 22 is_stmt 0              @ rt-thread/components/dfs/src/dfs.c:433:22
	cmp	r0, #46
	bne	.LBB9_34
	b	.LBB9_23
.LBB9_23:                               @   in Loop: Header=BB9_12 Depth=1
.Ltmp148:
	.loc	1 435 22 is_stmt 1              @ rt-thread/components/dfs/src/dfs.c:435:22
	ldr	r0, [sp, #36]
	ldrb	r0, [r0, #2]
.Ltmp149:
	.loc	1 435 21 is_stmt 0              @ rt-thread/components/dfs/src/dfs.c:435:21
	cbnz	r0, .LBB9_25
	b	.LBB9_24
.LBB9_24:                               @   in Loop: Header=BB9_12 Depth=1
.Ltmp150:
	.loc	1 438 25 is_stmt 1              @ rt-thread/components/dfs/src/dfs.c:438:25
	ldr	r0, [sp, #36]
	adds	r0, #2
	str	r0, [sp, #36]
	.loc	1 439 21                        @ rt-thread/components/dfs/src/dfs.c:439:21
	b	.LBB9_51
.Ltmp151:
.LBB9_25:                               @   in Loop: Header=BB9_12 Depth=1
	.loc	1 441 26                        @ rt-thread/components/dfs/src/dfs.c:441:26
	ldr	r0, [sp, #36]
	ldrsb.w	r0, [r0, #2]
.Ltmp152:
	.loc	1 441 26 is_stmt 0              @ rt-thread/components/dfs/src/dfs.c:441:26
	cmp	r0, #47
	bne	.LBB9_32
	b	.LBB9_26
.LBB9_26:                               @   in Loop: Header=BB9_12 Depth=1
.Ltmp153:
	.loc	1 444 25 is_stmt 1              @ rt-thread/components/dfs/src/dfs.c:444:25
	ldr	r0, [sp, #36]
	adds	r0, #3
	str	r0, [sp, #36]
	.loc	1 446 21                        @ rt-thread/components/dfs/src/dfs.c:446:21
	b	.LBB9_27
.LBB9_27:                               @   Parent Loop BB9_12 Depth=1
                                        @ =>  This Inner Loop Header: Depth=2
	.loc	1 446 30 is_stmt 0              @ rt-thread/components/dfs/src/dfs.c:446:30
	ldr	r0, [sp, #36]
	.loc	1 446 29                        @ rt-thread/components/dfs/src/dfs.c:446:29
	ldrsb.w	r1, [r0]
	movs	r0, #0
	.loc	1 446 42                        @ rt-thread/components/dfs/src/dfs.c:446:42
	cmp	r1, #47
	str	r0, [sp, #12]                   @ 4-byte Spill
	bne	.LBB9_29
	b	.LBB9_28
.LBB9_28:                               @   in Loop: Header=BB9_27 Depth=2
	.loc	1 446 47                        @ rt-thread/components/dfs/src/dfs.c:446:47
	ldr	r0, [sp, #36]
	.loc	1 446 46                        @ rt-thread/components/dfs/src/dfs.c:446:46
	ldrsb.w	r0, [r0]
	.loc	1 446 51                        @ rt-thread/components/dfs/src/dfs.c:446:51
	cmp	r0, #0
	it	ne
	movne	r0, #1
	str	r0, [sp, #12]                   @ 4-byte Spill
	b	.LBB9_29
.LBB9_29:                               @   in Loop: Header=BB9_27 Depth=2
	.loc	1 0 0                           @ rt-thread/components/dfs/src/dfs.c:0:0
	ldr	r0, [sp, #12]                   @ 4-byte Reload
	.loc	1 446 21                        @ rt-thread/components/dfs/src/dfs.c:446:21
	lsls	r0, r0, #31
	cbz	r0, .LBB9_31
	b	.LBB9_30
.LBB9_30:                               @   in Loop: Header=BB9_27 Depth=2
	.loc	1 447 29 is_stmt 1              @ rt-thread/components/dfs/src/dfs.c:447:29
	ldr	r0, [sp, #36]
	adds	r0, #1
	str	r0, [sp, #36]
	.loc	1 446 21                        @ rt-thread/components/dfs/src/dfs.c:446:21
	b	.LBB9_27
.LBB9_31:                               @   in Loop: Header=BB9_12 Depth=1
	.loc	1 448 21                        @ rt-thread/components/dfs/src/dfs.c:448:21
	b	.LBB9_51
.Ltmp154:
.LBB9_32:                               @   in Loop: Header=BB9_12 Depth=1
	.loc	1 0 21 is_stmt 0                @ rt-thread/components/dfs/src/dfs.c:0:21
	b	.LBB9_33
.LBB9_33:                               @   in Loop: Header=BB9_12 Depth=1
	.loc	1 450 13 is_stmt 1              @ rt-thread/components/dfs/src/dfs.c:450:13
	b	.LBB9_34
.Ltmp155:
.LBB9_34:                               @   in Loop: Header=BB9_12 Depth=1
	.loc	1 0 13 is_stmt 0                @ rt-thread/components/dfs/src/dfs.c:0:13
	b	.LBB9_35
.LBB9_35:                               @   in Loop: Header=BB9_12 Depth=1
	b	.LBB9_36
.LBB9_36:                               @   in Loop: Header=BB9_12 Depth=1
	.loc	1 451 9 is_stmt 1               @ rt-thread/components/dfs/src/dfs.c:451:9
	b	.LBB9_37
.Ltmp156:
.LBB9_37:                               @   in Loop: Header=BB9_12 Depth=1
	.loc	1 454 9                         @ rt-thread/components/dfs/src/dfs.c:454:9
	b	.LBB9_38
.LBB9_38:                               @   Parent Loop BB9_12 Depth=1
                                        @ =>  This Inner Loop Header: Depth=2
	.loc	1 454 25 is_stmt 0              @ rt-thread/components/dfs/src/dfs.c:454:25
	ldr	r0, [sp, #36]
	adds	r1, r0, #1
	str	r1, [sp, #36]
	.loc	1 454 16                        @ rt-thread/components/dfs/src/dfs.c:454:16
	ldrsb.w	r1, [r0]
	.loc	1 454 19                        @ rt-thread/components/dfs/src/dfs.c:454:19
	strb.w	r1, [sp, #35]
	movs	r0, #0
	.loc	1 454 37                        @ rt-thread/components/dfs/src/dfs.c:454:37
	str	r0, [sp, #8]                    @ 4-byte Spill
	cbz	r1, .LBB9_40
	b	.LBB9_39
.LBB9_39:                               @   in Loop: Header=BB9_38 Depth=2
	.loc	1 454 40                        @ rt-thread/components/dfs/src/dfs.c:454:40
	ldrsb.w	r0, [sp, #35]
	.loc	1 454 42                        @ rt-thread/components/dfs/src/dfs.c:454:42
	subs	r0, #47
	it	ne
	movne	r0, #1
	str	r0, [sp, #8]                    @ 4-byte Spill
	b	.LBB9_40
.LBB9_40:                               @   in Loop: Header=BB9_38 Depth=2
	.loc	1 0 0                           @ rt-thread/components/dfs/src/dfs.c:0:0
	ldr	r0, [sp, #8]                    @ 4-byte Reload
	.loc	1 454 9                         @ rt-thread/components/dfs/src/dfs.c:454:9
	lsls	r0, r0, #31
	cbz	r0, .LBB9_42
	b	.LBB9_41
.LBB9_41:                               @   in Loop: Header=BB9_38 Depth=2
	.loc	1 455 23 is_stmt 1              @ rt-thread/components/dfs/src/dfs.c:455:23
	ldrb.w	r0, [sp, #35]
	.loc	1 455 18 is_stmt 0              @ rt-thread/components/dfs/src/dfs.c:455:18
	ldr	r1, [sp, #40]
	adds	r2, r1, #1
	str	r2, [sp, #40]
	.loc	1 455 21                        @ rt-thread/components/dfs/src/dfs.c:455:21
	strb	r0, [r1]
	.loc	1 454 9 is_stmt 1               @ rt-thread/components/dfs/src/dfs.c:454:9
	b	.LBB9_38
.LBB9_42:                               @   in Loop: Header=BB9_12 Depth=1
.Ltmp157:
	.loc	1 457 13                        @ rt-thread/components/dfs/src/dfs.c:457:13
	ldrsb.w	r0, [sp, #35]
.Ltmp158:
	.loc	1 457 13 is_stmt 0              @ rt-thread/components/dfs/src/dfs.c:457:13
	cmp	r0, #47
	bne	.LBB9_47
	b	.LBB9_43
.LBB9_43:                               @   in Loop: Header=BB9_12 Depth=1
.Ltmp159:
	.loc	1 459 18 is_stmt 1              @ rt-thread/components/dfs/src/dfs.c:459:18
	ldr	r1, [sp, #40]
	adds	r0, r1, #1
	str	r0, [sp, #40]
	movs	r0, #47
	.loc	1 459 21 is_stmt 0              @ rt-thread/components/dfs/src/dfs.c:459:21
	strb	r0, [r1]
	.loc	1 460 13 is_stmt 1              @ rt-thread/components/dfs/src/dfs.c:460:13
	b	.LBB9_44
.LBB9_44:                               @   Parent Loop BB9_12 Depth=1
                                        @ =>  This Inner Loop Header: Depth=2
	.loc	1 460 20 is_stmt 0              @ rt-thread/components/dfs/src/dfs.c:460:20
	ldrsb.w	r0, [sp, #35]
	.loc	1 460 13                        @ rt-thread/components/dfs/src/dfs.c:460:13
	cmp	r0, #47
	bne	.LBB9_46
	b	.LBB9_45
.LBB9_45:                               @   in Loop: Header=BB9_44 Depth=2
	.loc	1 461 25 is_stmt 1              @ rt-thread/components/dfs/src/dfs.c:461:25
	ldr	r0, [sp, #36]
	adds	r1, r0, #1
	str	r1, [sp, #36]
	.loc	1 461 21 is_stmt 0              @ rt-thread/components/dfs/src/dfs.c:461:21
	ldrb	r0, [r0]
	.loc	1 461 19                        @ rt-thread/components/dfs/src/dfs.c:461:19
	strb.w	r0, [sp, #35]
	.loc	1 460 13 is_stmt 1              @ rt-thread/components/dfs/src/dfs.c:460:13
	b	.LBB9_44
.LBB9_46:                               @   in Loop: Header=BB9_12 Depth=1
	.loc	1 463 17                        @ rt-thread/components/dfs/src/dfs.c:463:17
	ldr	r0, [sp, #36]
	subs	r0, #1
	str	r0, [sp, #36]
	.loc	1 464 9                         @ rt-thread/components/dfs/src/dfs.c:464:9
	b	.LBB9_50
.Ltmp160:
.LBB9_47:                               @   in Loop: Header=BB9_12 Depth=1
	.loc	1 465 19                        @ rt-thread/components/dfs/src/dfs.c:465:19
	ldrb.w	r0, [sp, #35]
.Ltmp161:
	.loc	1 465 18 is_stmt 0              @ rt-thread/components/dfs/src/dfs.c:465:18
	cbnz	r0, .LBB9_49
	b	.LBB9_48
.LBB9_48:
.Ltmp162:
	.loc	1 466 13 is_stmt 1              @ rt-thread/components/dfs/src/dfs.c:466:13
	b	.LBB9_59
.Ltmp163:
.LBB9_49:                               @   in Loop: Header=BB9_12 Depth=1
	.loc	1 0 13 is_stmt 0                @ rt-thread/components/dfs/src/dfs.c:0:13
	b	.LBB9_50
.LBB9_50:                               @   in Loop: Header=BB9_12 Depth=1
	.loc	1 468 9 is_stmt 1               @ rt-thread/components/dfs/src/dfs.c:468:9
	b	.LBB9_12
.LBB9_51:                               @   in Loop: Header=BB9_12 Depth=1
.Ltmp164:
	@DEBUG_LABEL: up_one
	.loc	1 471 13                        @ rt-thread/components/dfs/src/dfs.c:471:13
	ldr	r0, [sp, #40]
	subs	r0, #1
	str	r0, [sp, #40]
.Ltmp165:
	.loc	1 472 13                        @ rt-thread/components/dfs/src/dfs.c:472:13
	ldr	r0, [sp, #40]
	.loc	1 472 19 is_stmt 0              @ rt-thread/components/dfs/src/dfs.c:472:19
	ldr	r1, [sp, #44]
.Ltmp166:
	.loc	1 472 13                        @ rt-thread/components/dfs/src/dfs.c:472:13
	cmp	r0, r1
	bhs	.LBB9_53
	b	.LBB9_52
.LBB9_52:
.Ltmp167:
	.loc	1 474 21 is_stmt 1              @ rt-thread/components/dfs/src/dfs.c:474:21
	ldr	r0, [sp, #48]
	.loc	1 474 13 is_stmt 0              @ rt-thread/components/dfs/src/dfs.c:474:13
	bl	rt_free
	movs	r0, #0
	.loc	1 475 13 is_stmt 1              @ rt-thread/components/dfs/src/dfs.c:475:13
	str	r0, [sp, #60]
	b	.LBB9_65
.Ltmp168:
.LBB9_53:                               @   in Loop: Header=BB9_12 Depth=1
	.loc	1 477 9                         @ rt-thread/components/dfs/src/dfs.c:477:9
	b	.LBB9_54
.LBB9_54:                               @   Parent Loop BB9_12 Depth=1
                                        @ =>  This Inner Loop Header: Depth=2
	.loc	1 477 16 is_stmt 0              @ rt-thread/components/dfs/src/dfs.c:477:16
	ldr	r1, [sp, #44]
	.loc	1 477 23                        @ rt-thread/components/dfs/src/dfs.c:477:23
	ldr	r2, [sp, #40]
	movs	r0, #0
	.loc	1 477 27                        @ rt-thread/components/dfs/src/dfs.c:477:27
	cmp	r1, r2
	str	r0, [sp, #4]                    @ 4-byte Spill
	bhs	.LBB9_56
	b	.LBB9_55
.LBB9_55:                               @   in Loop: Header=BB9_54 Depth=2
	.loc	1 477 30                        @ rt-thread/components/dfs/src/dfs.c:477:30
	ldr	r0, [sp, #40]
	ldrsb	r0, [r0, #-1]
	.loc	1 477 38                        @ rt-thread/components/dfs/src/dfs.c:477:38
	subs	r0, #47
	it	ne
	movne	r0, #1
	str	r0, [sp, #4]                    @ 4-byte Spill
	b	.LBB9_56
.LBB9_56:                               @   in Loop: Header=BB9_54 Depth=2
	.loc	1 0 0                           @ rt-thread/components/dfs/src/dfs.c:0:0
	ldr	r0, [sp, #4]                    @ 4-byte Reload
	.loc	1 477 9                         @ rt-thread/components/dfs/src/dfs.c:477:9
	lsls	r0, r0, #31
	cbz	r0, .LBB9_58
	b	.LBB9_57
.LBB9_57:                               @   in Loop: Header=BB9_54 Depth=2
	.loc	1 478 17 is_stmt 1              @ rt-thread/components/dfs/src/dfs.c:478:17
	ldr	r0, [sp, #40]
	subs	r0, #1
	str	r0, [sp, #40]
	.loc	1 477 9                         @ rt-thread/components/dfs/src/dfs.c:477:9
	b	.LBB9_54
.Ltmp169:
.LBB9_58:                               @   in Loop: Header=BB9_12 Depth=1
	.loc	1 417 5                         @ rt-thread/components/dfs/src/dfs.c:417:5
	b	.LBB9_12
.LBB9_59:
	.loc	1 481 6                         @ rt-thread/components/dfs/src/dfs.c:481:6
	ldr	r1, [sp, #40]
	movs	r0, #0
	.loc	1 481 10 is_stmt 0              @ rt-thread/components/dfs/src/dfs.c:481:10
	strb	r0, [r1]
	.loc	1 484 9 is_stmt 1               @ rt-thread/components/dfs/src/dfs.c:484:9
	ldr	r0, [sp, #40]
	subs	r0, #1
	str	r0, [sp, #40]
.Ltmp170:
	.loc	1 485 10                        @ rt-thread/components/dfs/src/dfs.c:485:10
	ldr	r0, [sp, #40]
	.loc	1 485 17 is_stmt 0              @ rt-thread/components/dfs/src/dfs.c:485:17
	ldr	r1, [sp, #48]
	.loc	1 485 27                        @ rt-thread/components/dfs/src/dfs.c:485:27
	cmp	r0, r1
	beq	.LBB9_62
	b	.LBB9_60
.LBB9_60:
	.loc	1 485 32                        @ rt-thread/components/dfs/src/dfs.c:485:32
	ldr	r0, [sp, #40]
	.loc	1 485 31                        @ rt-thread/components/dfs/src/dfs.c:485:31
	ldrsb.w	r0, [r0]
.Ltmp171:
	.loc	1 485 9                         @ rt-thread/components/dfs/src/dfs.c:485:9
	cmp	r0, #47
	bne	.LBB9_62
	b	.LBB9_61
.LBB9_61:
.Ltmp172:
	.loc	1 486 10 is_stmt 1              @ rt-thread/components/dfs/src/dfs.c:486:10
	ldr	r1, [sp, #40]
	movs	r0, #0
	.loc	1 486 14 is_stmt 0              @ rt-thread/components/dfs/src/dfs.c:486:14
	strb	r0, [r1]
	.loc	1 486 9                         @ rt-thread/components/dfs/src/dfs.c:486:9
	b	.LBB9_62
.Ltmp173:
.LBB9_62:
	.loc	1 489 17 is_stmt 1              @ rt-thread/components/dfs/src/dfs.c:489:17
	ldr	r0, [sp, #48]
	ldrsb.w	r0, [r0]
.Ltmp174:
	.loc	1 489 9 is_stmt 0               @ rt-thread/components/dfs/src/dfs.c:489:9
	cbnz	r0, .LBB9_64
	b	.LBB9_63
.LBB9_63:
.Ltmp175:
	.loc	1 491 9 is_stmt 1               @ rt-thread/components/dfs/src/dfs.c:491:9
	ldr	r1, [sp, #48]
	movs	r0, #47
	.loc	1 491 21 is_stmt 0              @ rt-thread/components/dfs/src/dfs.c:491:21
	strb	r0, [r1]
	.loc	1 492 9 is_stmt 1               @ rt-thread/components/dfs/src/dfs.c:492:9
	ldr	r1, [sp, #48]
	movs	r0, #0
	.loc	1 492 21 is_stmt 0              @ rt-thread/components/dfs/src/dfs.c:492:21
	strb	r0, [r1, #1]
	.loc	1 493 5 is_stmt 1               @ rt-thread/components/dfs/src/dfs.c:493:5
	b	.LBB9_64
.Ltmp176:
.LBB9_64:
	.loc	1 495 12                        @ rt-thread/components/dfs/src/dfs.c:495:12
	ldr	r0, [sp, #48]
	.loc	1 495 5 is_stmt 0               @ rt-thread/components/dfs/src/dfs.c:495:5
	str	r0, [sp, #60]
	b	.LBB9_65
.LBB9_65:
	.loc	1 496 1 is_stmt 1               @ rt-thread/components/dfs/src/dfs.c:496:1
	ldr	r0, [sp, #60]
	add	sp, #64
	pop	{r7, pc}
.Ltmp177:
.Lfunc_end9:
	.size	dfs_normalize_path, .Lfunc_end9-dfs_normalize_path
	.cfi_endproc
	.cantunwind
	.fnend
                                        @ -- End function
	.section	.text.dfs_subdir,"ax",%progbits
	.hidden	dfs_subdir                      @ -- Begin function dfs_subdir
	.globl	dfs_subdir
	.p2align	3
	.type	dfs_subdir,%function
	.code	16                              @ @dfs_subdir
	.thumb_func
dfs_subdir:
.Lfunc_begin10:
	.loc	1 349 0                         @ rt-thread/components/dfs/src/dfs.c:349:0
	.fnstart
	.cfi_startproc
@ %bb.0:
	.save	{r7, lr}
	push	{r7, lr}
	.cfi_def_cfa_offset 8
	.cfi_offset lr, -4
	.cfi_offset r7, -8
	.pad	#24
	sub	sp, #24
	.cfi_def_cfa_offset 32
	str	r0, [sp, #16]
	str	r1, [sp, #12]
.Ltmp178:
	.loc	1 352 16 prologue_end           @ rt-thread/components/dfs/src/dfs.c:352:16
	ldr	r0, [sp, #16]
	.loc	1 352 9 is_stmt 0               @ rt-thread/components/dfs/src/dfs.c:352:9
	bl	strlen
	.loc	1 352 37                        @ rt-thread/components/dfs/src/dfs.c:352:37
	str	r0, [sp, #4]                    @ 4-byte Spill
	ldr	r0, [sp, #12]
	.loc	1 352 30                        @ rt-thread/components/dfs/src/dfs.c:352:30
	bl	strlen
	mov	r1, r0
.Ltmp179:
	.loc	1 352 9                         @ rt-thread/components/dfs/src/dfs.c:352:9
	ldr	r0, [sp, #4]                    @ 4-byte Reload
	cmp	r0, r1
	bne	.LBB10_2
	b	.LBB10_1
.LBB10_1:
	.loc	1 0 9                           @ rt-thread/components/dfs/src/dfs.c:0:9
	movs	r0, #0
.Ltmp180:
	.loc	1 353 9 is_stmt 1               @ rt-thread/components/dfs/src/dfs.c:353:9
	str	r0, [sp, #20]
	b	.LBB10_6
.Ltmp181:
.LBB10_2:
	.loc	1 355 11                        @ rt-thread/components/dfs/src/dfs.c:355:11
	ldr	r0, [sp, #12]
	.loc	1 355 29 is_stmt 0              @ rt-thread/components/dfs/src/dfs.c:355:29
	str	r0, [sp]                        @ 4-byte Spill
	ldr	r0, [sp, #16]
	.loc	1 355 22                        @ rt-thread/components/dfs/src/dfs.c:355:22
	bl	strlen
	mov	r1, r0
	.loc	1 355 20                        @ rt-thread/components/dfs/src/dfs.c:355:20
	ldr	r0, [sp]                        @ 4-byte Reload
	add	r0, r1
	.loc	1 355 9                         @ rt-thread/components/dfs/src/dfs.c:355:9
	str	r0, [sp, #8]
.Ltmp182:
	.loc	1 356 11 is_stmt 1              @ rt-thread/components/dfs/src/dfs.c:356:11
	ldr	r0, [sp, #8]
	.loc	1 356 10 is_stmt 0              @ rt-thread/components/dfs/src/dfs.c:356:10
	ldrsb.w	r0, [r0]
	.loc	1 356 23                        @ rt-thread/components/dfs/src/dfs.c:356:23
	cmp	r0, #47
	beq	.LBB10_5
	b	.LBB10_3
.LBB10_3:
	.loc	1 356 27                        @ rt-thread/components/dfs/src/dfs.c:356:27
	ldr	r0, [sp, #8]
	.loc	1 356 34                        @ rt-thread/components/dfs/src/dfs.c:356:34
	ldr	r1, [sp, #12]
.Ltmp183:
	.loc	1 356 9                         @ rt-thread/components/dfs/src/dfs.c:356:9
	cmp	r0, r1
	beq	.LBB10_5
	b	.LBB10_4
.LBB10_4:
.Ltmp184:
	.loc	1 358 13 is_stmt 1              @ rt-thread/components/dfs/src/dfs.c:358:13
	ldr	r0, [sp, #8]
	subs	r0, #1
	str	r0, [sp, #8]
	.loc	1 359 5                         @ rt-thread/components/dfs/src/dfs.c:359:5
	b	.LBB10_5
.Ltmp185:
.LBB10_5:
	.loc	1 361 12                        @ rt-thread/components/dfs/src/dfs.c:361:12
	ldr	r0, [sp, #8]
	.loc	1 361 5 is_stmt 0               @ rt-thread/components/dfs/src/dfs.c:361:5
	str	r0, [sp, #20]
	b	.LBB10_6
.LBB10_6:
	.loc	1 362 1 is_stmt 1               @ rt-thread/components/dfs/src/dfs.c:362:1
	ldr	r0, [sp, #20]
	add	sp, #24
	pop	{r7, pc}
.Ltmp186:
.Lfunc_end10:
	.size	dfs_subdir, .Lfunc_end10-dfs_subdir
	.cfi_endproc
	.cantunwind
	.fnend
                                        @ -- End function
	.section	.text.list_fd,"ax",%progbits
	.hidden	list_fd                         @ -- Begin function list_fd
	.globl	list_fd
	.p2align	3
	.type	list_fd,%function
	.code	16                              @ @list_fd
	.thumb_func
list_fd:
.Lfunc_begin11:
	.loc	1 523 0                         @ rt-thread/components/dfs/src/dfs.c:523:0
	.fnstart
	.cfi_startproc
@ %bb.0:
	.save	{r7, lr}
	push	{r7, lr}
	.cfi_def_cfa_offset 8
	.cfi_offset lr, -4
	.cfi_offset r7, -8
	.pad	#16
	sub	sp, #16
	.cfi_def_cfa_offset 24
.Ltmp187:
	.loc	1 527 16 prologue_end           @ rt-thread/components/dfs/src/dfs.c:527:16
	bl	dfs_fdtable_get
	.loc	1 527 14 is_stmt 0              @ rt-thread/components/dfs/src/dfs.c:527:14
	str	r0, [sp, #4]
.Ltmp188:
	.loc	1 528 10 is_stmt 1              @ rt-thread/components/dfs/src/dfs.c:528:10
	ldr	r0, [sp, #4]
.Ltmp189:
	.loc	1 528 9 is_stmt 0               @ rt-thread/components/dfs/src/dfs.c:528:9
	cbnz	r0, .LBB11_2
	b	.LBB11_1
.LBB11_1:
	.loc	1 0 9                           @ rt-thread/components/dfs/src/dfs.c:0:9
	mov.w	r0, #-1
.Ltmp190:
	.loc	1 528 20                        @ rt-thread/components/dfs/src/dfs.c:528:20
	str	r0, [sp, #12]
	b	.LBB11_25
.Ltmp191:
.LBB11_2:
	.loc	1 530 5 is_stmt 1               @ rt-thread/components/dfs/src/dfs.c:530:5
	bl	rt_enter_critical
	.loc	1 532 5                         @ rt-thread/components/dfs/src/dfs.c:532:5
	movw	r0, :lower16:.L.str.11
	movt	r0, :upper16:.L.str.11
	bl	rt_kprintf
	.loc	1 533 5                         @ rt-thread/components/dfs/src/dfs.c:533:5
	movw	r0, :lower16:.L.str.12
	movt	r0, :upper16:.L.str.12
	bl	rt_kprintf
	movs	r0, #0
.Ltmp192:
	.loc	1 534 16                        @ rt-thread/components/dfs/src/dfs.c:534:16
	str	r0, [sp, #8]
	.loc	1 534 10 is_stmt 0              @ rt-thread/components/dfs/src/dfs.c:534:10
	b	.LBB11_3
.LBB11_3:                               @ =>This Inner Loop Header: Depth=1
.Ltmp193:
	.loc	1 534 21                        @ rt-thread/components/dfs/src/dfs.c:534:21
	ldr	r0, [sp, #8]
	.loc	1 534 34                        @ rt-thread/components/dfs/src/dfs.c:534:34
	ldr	r1, [sp, #4]
	.loc	1 534 44                        @ rt-thread/components/dfs/src/dfs.c:534:44
	ldr	r1, [r1]
.Ltmp194:
	.loc	1 534 5                         @ rt-thread/components/dfs/src/dfs.c:534:5
	cmp	r0, r1
	bge.w	.LBB11_24
	b	.LBB11_4
.LBB11_4:                               @   in Loop: Header=BB11_3 Depth=1
.Ltmp195:
	.loc	1 536 29 is_stmt 1              @ rt-thread/components/dfs/src/dfs.c:536:29
	ldr	r0, [sp, #4]
	.loc	1 536 39 is_stmt 0              @ rt-thread/components/dfs/src/dfs.c:536:39
	ldr	r0, [r0, #4]
	.loc	1 536 43                        @ rt-thread/components/dfs/src/dfs.c:536:43
	ldr	r1, [sp, #8]
	.loc	1 536 29                        @ rt-thread/components/dfs/src/dfs.c:536:29
	ldr.w	r0, [r0, r1, lsl #2]
	.loc	1 536 24                        @ rt-thread/components/dfs/src/dfs.c:536:24
	str	r0, [sp]
.Ltmp196:
	.loc	1 538 13 is_stmt 1              @ rt-thread/components/dfs/src/dfs.c:538:13
	ldr	r0, [sp]
	.loc	1 538 16 is_stmt 0              @ rt-thread/components/dfs/src/dfs.c:538:16
	cmp	r0, #0
	beq.w	.LBB11_22
	b	.LBB11_5
.LBB11_5:                               @   in Loop: Header=BB11_3 Depth=1
	.loc	1 538 19                        @ rt-thread/components/dfs/src/dfs.c:538:19
	ldr	r0, [sp]
	.loc	1 538 23                        @ rt-thread/components/dfs/src/dfs.c:538:23
	ldr	r0, [r0, #16]
.Ltmp197:
	.loc	1 538 13                        @ rt-thread/components/dfs/src/dfs.c:538:13
	cmp	r0, #0
	beq	.LBB11_22
	b	.LBB11_6
.LBB11_6:                               @   in Loop: Header=BB11_3 Depth=1
.Ltmp198:
	.loc	1 540 32 is_stmt 1              @ rt-thread/components/dfs/src/dfs.c:540:32
	ldr	r0, [sp, #8]
	.loc	1 540 38 is_stmt 0              @ rt-thread/components/dfs/src/dfs.c:540:38
	adds	r1, r0, #3
	.loc	1 540 13                        @ rt-thread/components/dfs/src/dfs.c:540:13
	movw	r0, :lower16:.L.str.13
	movt	r0, :upper16:.L.str.13
	bl	rt_kprintf
.Ltmp199:
	.loc	1 541 17 is_stmt 1              @ rt-thread/components/dfs/src/dfs.c:541:17
	ldr	r0, [sp]
	.loc	1 541 21 is_stmt 0              @ rt-thread/components/dfs/src/dfs.c:541:21
	ldrh	r0, [r0, #2]
.Ltmp200:
	.loc	1 541 17                        @ rt-thread/components/dfs/src/dfs.c:541:17
	cmp	r0, #2
	bne	.LBB11_8
	b	.LBB11_7
.LBB11_7:                               @   in Loop: Header=BB11_3 Depth=1
.Ltmp201:
	.loc	1 541 46                        @ rt-thread/components/dfs/src/dfs.c:541:46
	movw	r0, :lower16:.L.str.14
	movt	r0, :upper16:.L.str.14
	movw	r1, :lower16:.L.str.15
	movt	r1, :upper16:.L.str.15
	bl	rt_kprintf
	b	.LBB11_18
.LBB11_8:                               @   in Loop: Header=BB11_3 Depth=1
.Ltmp202:
	.loc	1 542 22 is_stmt 1              @ rt-thread/components/dfs/src/dfs.c:542:22
	ldr	r0, [sp]
	.loc	1 542 26 is_stmt 0              @ rt-thread/components/dfs/src/dfs.c:542:26
	ldrh	r0, [r0, #2]
.Ltmp203:
	.loc	1 542 22                        @ rt-thread/components/dfs/src/dfs.c:542:22
	cbnz	r0, .LBB11_10
	b	.LBB11_9
.LBB11_9:                               @   in Loop: Header=BB11_3 Depth=1
.Ltmp204:
	.loc	1 542 46                        @ rt-thread/components/dfs/src/dfs.c:542:46
	movw	r0, :lower16:.L.str.14
	movt	r0, :upper16:.L.str.14
	movw	r1, :lower16:.L.str.16
	movt	r1, :upper16:.L.str.16
	bl	rt_kprintf
	b	.LBB11_17
.LBB11_10:                              @   in Loop: Header=BB11_3 Depth=1
.Ltmp205:
	.loc	1 543 22 is_stmt 1              @ rt-thread/components/dfs/src/dfs.c:543:22
	ldr	r0, [sp]
	.loc	1 543 26 is_stmt 0              @ rt-thread/components/dfs/src/dfs.c:543:26
	ldrh	r0, [r0, #2]
.Ltmp206:
	.loc	1 543 22                        @ rt-thread/components/dfs/src/dfs.c:543:22
	cmp	r0, #1
	bne	.LBB11_12
	b	.LBB11_11
.LBB11_11:                              @   in Loop: Header=BB11_3 Depth=1
.Ltmp207:
	.loc	1 543 46                        @ rt-thread/components/dfs/src/dfs.c:543:46
	movw	r0, :lower16:.L.str.14
	movt	r0, :upper16:.L.str.14
	movw	r1, :lower16:.L.str.17
	movt	r1, :upper16:.L.str.17
	bl	rt_kprintf
	b	.LBB11_16
.LBB11_12:                              @   in Loop: Header=BB11_3 Depth=1
.Ltmp208:
	.loc	1 544 22 is_stmt 1              @ rt-thread/components/dfs/src/dfs.c:544:22
	ldr	r0, [sp]
	.loc	1 544 26 is_stmt 0              @ rt-thread/components/dfs/src/dfs.c:544:26
	ldrh	r0, [r0, #2]
.Ltmp209:
	.loc	1 544 22                        @ rt-thread/components/dfs/src/dfs.c:544:22
	cmp	r0, #3
	bne	.LBB11_14
	b	.LBB11_13
.LBB11_13:                              @   in Loop: Header=BB11_3 Depth=1
.Ltmp210:
	.loc	1 544 46                        @ rt-thread/components/dfs/src/dfs.c:544:46
	movw	r0, :lower16:.L.str.14
	movt	r0, :upper16:.L.str.14
	movw	r1, :lower16:.L.str.18
	movt	r1, :upper16:.L.str.18
	bl	rt_kprintf
	b	.LBB11_15
.LBB11_14:                              @   in Loop: Header=BB11_3 Depth=1
	.loc	1 545 18 is_stmt 1              @ rt-thread/components/dfs/src/dfs.c:545:18
	movw	r0, :lower16:.L.str.19
	movt	r0, :upper16:.L.str.19
	movw	r1, :lower16:.L.str.20
	movt	r1, :upper16:.L.str.20
	bl	rt_kprintf
	b	.LBB11_15
.Ltmp211:
.LBB11_15:                              @   in Loop: Header=BB11_3 Depth=1
	.loc	1 0 18 is_stmt 0                @ rt-thread/components/dfs/src/dfs.c:0:18
	b	.LBB11_16
.LBB11_16:                              @   in Loop: Header=BB11_3 Depth=1
	b	.LBB11_17
.LBB11_17:                              @   in Loop: Header=BB11_3 Depth=1
	b	.LBB11_18
.LBB11_18:                              @   in Loop: Header=BB11_3 Depth=1
	.loc	1 546 32 is_stmt 1              @ rt-thread/components/dfs/src/dfs.c:546:32
	ldr	r0, [sp]
	.loc	1 546 36 is_stmt 0              @ rt-thread/components/dfs/src/dfs.c:546:36
	ldr	r1, [r0, #8]
	.loc	1 546 13                        @ rt-thread/components/dfs/src/dfs.c:546:13
	movw	r0, :lower16:.L.str.21
	movt	r0, :upper16:.L.str.21
	bl	rt_kprintf
	.loc	1 547 34 is_stmt 1              @ rt-thread/components/dfs/src/dfs.c:547:34
	ldr	r0, [sp]
	.loc	1 547 38 is_stmt 0              @ rt-thread/components/dfs/src/dfs.c:547:38
	ldrh	r1, [r0]
	.loc	1 547 13                        @ rt-thread/components/dfs/src/dfs.c:547:13
	movw	r0, :lower16:.L.str.22
	movt	r0, :upper16:.L.str.22
	bl	rt_kprintf
.Ltmp212:
	.loc	1 548 17 is_stmt 1              @ rt-thread/components/dfs/src/dfs.c:548:17
	ldr	r0, [sp]
	.loc	1 548 21 is_stmt 0              @ rt-thread/components/dfs/src/dfs.c:548:21
	ldr	r0, [r0, #4]
.Ltmp213:
	.loc	1 548 17                        @ rt-thread/components/dfs/src/dfs.c:548:17
	cbz	r0, .LBB11_20
	b	.LBB11_19
.LBB11_19:                              @   in Loop: Header=BB11_3 Depth=1
.Ltmp214:
	.loc	1 550 36 is_stmt 1              @ rt-thread/components/dfs/src/dfs.c:550:36
	ldr	r0, [sp]
	.loc	1 550 40 is_stmt 0              @ rt-thread/components/dfs/src/dfs.c:550:40
	ldr	r1, [r0, #4]
	.loc	1 550 17                        @ rt-thread/components/dfs/src/dfs.c:550:17
	movw	r0, :lower16:.L.str.23
	movt	r0, :upper16:.L.str.23
	bl	rt_kprintf
	.loc	1 551 13 is_stmt 1              @ rt-thread/components/dfs/src/dfs.c:551:13
	b	.LBB11_21
.Ltmp215:
.LBB11_20:                              @   in Loop: Header=BB11_3 Depth=1
	.loc	1 554 17                        @ rt-thread/components/dfs/src/dfs.c:554:17
	movw	r0, :lower16:.L.str.7
	movt	r0, :upper16:.L.str.7
	bl	rt_kprintf
	b	.LBB11_21
.Ltmp216:
.LBB11_21:                              @   in Loop: Header=BB11_3 Depth=1
	.loc	1 556 9                         @ rt-thread/components/dfs/src/dfs.c:556:9
	b	.LBB11_22
.Ltmp217:
.LBB11_22:                              @   in Loop: Header=BB11_3 Depth=1
	.loc	1 557 5                         @ rt-thread/components/dfs/src/dfs.c:557:5
	b	.LBB11_23
.Ltmp218:
.LBB11_23:                              @   in Loop: Header=BB11_3 Depth=1
	.loc	1 534 57                        @ rt-thread/components/dfs/src/dfs.c:534:57
	ldr	r0, [sp, #8]
	adds	r0, #1
	str	r0, [sp, #8]
	.loc	1 534 5 is_stmt 0               @ rt-thread/components/dfs/src/dfs.c:534:5
	b	.LBB11_3
.Ltmp219:
.LBB11_24:
	.loc	1 558 5 is_stmt 1               @ rt-thread/components/dfs/src/dfs.c:558:5
	bl	rt_exit_critical
	movs	r0, #0
	.loc	1 560 5                         @ rt-thread/components/dfs/src/dfs.c:560:5
	str	r0, [sp, #12]
	b	.LBB11_25
.LBB11_25:
	.loc	1 561 1                         @ rt-thread/components/dfs/src/dfs.c:561:1
	ldr	r0, [sp, #12]
	add	sp, #16
	pop	{r7, pc}
.Ltmp220:
.Lfunc_end11:
	.size	list_fd, .Lfunc_end11-list_fd
	.cfi_endproc
	.cantunwind
	.fnend
                                        @ -- End function
	.hidden	working_directory               @ @working_directory
	.type	working_directory,%object
	.section	.data.working_directory,"aw",%progbits
	.globl	working_directory
working_directory:
	.asciz	"/\000\000\000\000\000\000\000\000\000\000\000\000\000\000\000\000\000\000\000\000\000\000\000\000\000\000\000\000\000\000\000\000\000\000\000\000\000\000\000\000\000\000\000\000\000\000\000\000\000\000\000\000\000\000\000\000\000\000\000\000\000\000\000\000\000\000\000\000\000\000\000\000\000\000\000\000\000\000\000\000\000\000\000\000\000\000\000\000\000\000\000\000\000\000\000\000\000\000\000\000\000\000\000\000\000\000\000\000\000\000\000\000\000\000\000\000\000\000\000\000\000\000\000\000\000\000\000\000\000\000\000\000\000\000\000\000\000\000\000\000\000\000\000\000\000\000\000\000\000\000\000\000\000\000\000\000\000\000\000\000\000\000\000\000\000\000\000\000\000\000\000\000\000\000\000\000\000\000\000\000\000\000\000\000\000\000\000\000\000\000\000\000\000\000\000\000\000\000\000\000\000\000\000\000\000\000\000\000\000\000\000\000\000\000\000\000\000\000\000\000\000\000\000\000\000\000\000\000\000\000\000\000\000\000\000\000\000\000\000\000\000\000\000\000\000\000\000\000\000\000\000\000\000\000"
	.size	working_directory, 256

	.type	dfs_init.init_ok,%object        @ @dfs_init.init_ok
	.section	.bss.dfs_init.init_ok,"aw",%nobits
	.p2align	2
dfs_init.init_ok:
	.long	0                               @ 0x0
	.size	dfs_init.init_ok, 4

	.type	.L.str,%object                  @ @.str
	.section	.rodata.str1.1,"aMS",%progbits,1
.L.str:
	.asciz	"dfs already init.\n"
	.size	.L.str, 19

	.hidden	filesystem_operation_table      @ @filesystem_operation_table
	.type	filesystem_operation_table,%object
	.section	.bss.filesystem_operation_table,"aw",%nobits
	.globl	filesystem_operation_table
	.p2align	2
filesystem_operation_table:
	.zero	24
	.size	filesystem_operation_table, 24

	.hidden	filesystem_table                @ @filesystem_table
	.type	filesystem_table,%object
	.section	.bss.filesystem_table,"aw",%nobits
	.globl	filesystem_table
	.p2align	2
filesystem_table:
	.zero	96
	.size	filesystem_table, 96

	.type	_fdtab,%object                  @ @_fdtab
	.section	.bss._fdtab,"aw",%nobits
	.p2align	2
_fdtab:
	.zero	8
	.size	_fdtab, 8

	.type	fslock,%object                  @ @fslock
	.section	.bss.fslock,"aw",%nobits
	.p2align	2
fslock:
	.zero	36
	.size	fslock, 36

	.type	.L.str.1,%object                @ @.str.1
	.section	.rodata.str1.1,"aMS",%progbits,1
.L.str.1:
	.asciz	"fslock"
	.size	.L.str.1, 7

	.type	.L.str.2,%object                @ @.str.2
.L.str.2:
	.asciz	"/dev"
	.size	.L.str.2, 5

	.type	.L.str.3,%object                @ @.str.3
.L.str.3:
	.asciz	"devfs"
	.size	.L.str.3, 6

	.hidden	__rt_init_dfs_init              @ @__rt_init_dfs_init
	.type	__rt_init_dfs_init,%object
	.section	.rti_fn.2,"a",%progbits
	.globl	__rt_init_dfs_init
	.p2align	2
__rt_init_dfs_init:
__tagsym$$used.0:
	.long	dfs_init
	.size	__rt_init_dfs_init, 4

	.type	.L.str.4,%object                @ @.str.4
	.section	.rodata.str1.1,"aMS",%progbits,1
.L.str.4:
	.asciz	"0"
	.size	.L.str.4, 2

	.type	.L__FUNCTION__.dfs_lock,%object @ @__FUNCTION__.dfs_lock
.L__FUNCTION__.dfs_lock:
	.asciz	"dfs_lock"
	.size	.L__FUNCTION__.dfs_lock, 9

	.type	.L.str.5,%object                @ @.str.5
.L.str.5:
	.asciz	"[E/DFS] "
	.size	.L.str.5, 9

	.type	.L.str.6,%object                @ @.str.6
.L.str.6:
	.asciz	"DFS fd new is failed! Could not found an empty fd entry."
	.size	.L.str.6, 57

	.type	.L.str.7,%object                @ @.str.7
.L.str.7:
	.asciz	"\n"
	.size	.L.str.7, 2

	.type	.L.str.8,%object                @ @.str.8
.L.str.8:
	.asciz	"fd != NULL"
	.size	.L.str.8, 11

	.type	.L__FUNCTION__.fd_put,%object   @ @__FUNCTION__.fd_put
.L__FUNCTION__.fd_put:
	.asciz	"fd_put"
	.size	.L__FUNCTION__.fd_put, 7

	.type	.L.str.9,%object                @ @.str.9
.L.str.9:
	.asciz	"filename != NULL"
	.size	.L.str.9, 17

	.type	.L__FUNCTION__.dfs_normalize_path,%object @ @__FUNCTION__.dfs_normalize_path
.L__FUNCTION__.dfs_normalize_path:
	.asciz	"dfs_normalize_path"
	.size	.L__FUNCTION__.dfs_normalize_path, 19

	.type	.L.str.10,%object               @ @.str.10
.L.str.10:
	.asciz	"%s/%s"
	.size	.L.str.10, 6

	.type	.L.str.11,%object               @ @.str.11
.L.str.11:
	.asciz	"fd type    ref magic  path\n"
	.size	.L.str.11, 28

	.type	.L.str.12,%object               @ @.str.12
.L.str.12:
	.asciz	"-- ------  --- ----- ------\n"
	.size	.L.str.12, 29

	.type	.L.str.13,%object               @ @.str.13
.L.str.13:
	.asciz	"%2d "
	.size	.L.str.13, 5

	.type	.L.str.14,%object               @ @.str.14
.L.str.14:
	.asciz	"%-7.7s "
	.size	.L.str.14, 8

	.type	.L.str.15,%object               @ @.str.15
.L.str.15:
	.asciz	"dir"
	.size	.L.str.15, 4

	.type	.L.str.16,%object               @ @.str.16
.L.str.16:
	.asciz	"file"
	.size	.L.str.16, 5

	.type	.L.str.17,%object               @ @.str.17
.L.str.17:
	.asciz	"socket"
	.size	.L.str.17, 7

	.type	.L.str.18,%object               @ @.str.18
.L.str.18:
	.asciz	"user"
	.size	.L.str.18, 5

	.type	.L.str.19,%object               @ @.str.19
.L.str.19:
	.asciz	"%-8.8s "
	.size	.L.str.19, 8

	.type	.L.str.20,%object               @ @.str.20
.L.str.20:
	.asciz	"unknown"
	.size	.L.str.20, 8

	.type	.L.str.21,%object               @ @.str.21
.L.str.21:
	.asciz	"%3d "
	.size	.L.str.21, 5

	.type	.L.str.22,%object               @ @.str.22
.L.str.22:
	.asciz	"%04x  "
	.size	.L.str.22, 7

	.type	.L.str.23,%object               @ @.str.23
.L.str.23:
	.asciz	"%s\n"
	.size	.L.str.23, 4

	.hidden	__fsym___cmd_list_fd_name       @ @__fsym___cmd_list_fd_name
	.type	__fsym___cmd_list_fd_name,%object
	.section	.rodata.name,"a",%progbits
	.globl	__fsym___cmd_list_fd_name
__fsym___cmd_list_fd_name:
	.asciz	"__cmd_list_fd"
	.size	__fsym___cmd_list_fd_name, 14

	.hidden	__fsym___cmd_list_fd_desc       @ @__fsym___cmd_list_fd_desc
	.type	__fsym___cmd_list_fd_desc,%object
	.globl	__fsym___cmd_list_fd_desc
__fsym___cmd_list_fd_desc:
	.asciz	"list file descriptor"
	.size	__fsym___cmd_list_fd_desc, 21

	.hidden	__fsym___cmd_list_fd            @ @__fsym___cmd_list_fd
	.type	__fsym___cmd_list_fd,%object
	.section	FSymTab,"a",%progbits
	.globl	__fsym___cmd_list_fd
	.p2align	2
__fsym___cmd_list_fd:
__tagsym$$used.1:
	.long	__fsym___cmd_list_fd_name
	.long	__fsym___cmd_list_fd_desc
	.long	list_fd
	.size	__fsym___cmd_list_fd, 12

	.globl	__rt_init_dfs_init
	.globl	__fsym___cmd_list_fd
	.section	".note.GNU-stack","",%progbits
	.eabi_attribute	30, 6	@ Tag_ABI_optimization_goals
	.ARM_attribute	16, 1	@ Tag_AV_eba