	.text
	.syntax unified
	.eabi_attribute	67, "2.09"	@ Tag_conformance
	.cpu	cortex-m7
	.eabi_attribute	6, 13	@ Tag_CPU_arch
	.eabi_attribute	7, 77	@ Tag_CPU_arch_profile
	.eabi_attribute	8, 0	@ Tag_ARM_ISA_use
	.eabi_attribute	9, 2	@ Tag_THUMB_ISA_use
	.fpu	fpv5-d16
	.eabi_attribute	36, 1	@ Tag_FP_HP_extension
	.eabi_attribute	34, 1	@ Tag_CPU_unaligned_access
	.eabi_attribute	17, 1	@ Tag_ABI_PCS_GOT_use
	.eabi_attribute	20, 2	@ Tag_ABI_FP_denormal
	.eabi_attribute	21, 0	@ Tag_ABI_FP_exceptions
	.eabi_attribute	23, 1	@ Tag_ABI_FP_number_model
	.eabi_attribute	24, 1	@ Tag_ABI_align_needed
	.eabi_attribute	25, 1	@ Tag_ABI_align_preserved
	.eabi_attribute	28, 1	@ Tag_ABI_VFP_args
	.eabi_attribute	38, 1	@ Tag_ABI_FP_16bit_format
	.eabi_attribute	18, 2	@ Tag_ABI_PCS_wchar_t
	.eabi_attribute	26, 1	@ Tag_ABI_enum_size
	.eabi_attribute	14, 0	@ Tag_ABI_PCS_R9_use
	.file	"dfs_file.c"
	.file	1 "E:\\STM32\\Learning\\STM32H750_ART_PI_RGBLCD" "rt-thread/components/dfs/src/dfs_file.c"
	.file	2 "E:\\STM32\\Learning\\STM32H750_ART_PI_RGBLCD" "rt-thread/components/finsh/finsh_api.h"
	.file	3 "D:\\Keil_v5\\ARM\\ARMCLANG\\Bin\\..\\include" "stdint.h"
	.file	4 "E:\\STM32\\Learning\\STM32H750_ART_PI_RGBLCD" "rt-thread/components/dfs/include\\dfs_file.h"
	.file	5 "E:\\STM32\\Learning\\STM32H750_ART_PI_RGBLCD" "rt-thread/include\\rtdef.h"
	.file	6 "D:\\Keil_v5\\ARM\\ARMCLANG\\Bin\\..\\include" "stdio.h"
	.file	7 "E:\\STM32\\Learning\\STM32H750_ART_PI_RGBLCD" "rt-thread/include/rtlibc.h"
	.file	8 "E:\\STM32\\Learning\\STM32H750_ART_PI_RGBLCD" "rt-thread/components/dfs/include\\dfs.h"
	.file	9 "E:\\STM32\\Learning\\STM32H750_ART_PI_RGBLCD" "rt-thread/components/drivers/include/ipc/poll.h"
	.file	10 "E:\\STM32\\Learning\\STM32H750_ART_PI_RGBLCD" "rt-thread/components/dfs/include\\dfs_fs.h"
	.file	11 "E:\\STM32\\Learning\\STM32H750_ART_PI_RGBLCD" "rt-thread/include/libc/libc_stat.h"
	.file	12 "D:\\Keil_v5\\ARM\\ARMCLANG\\Bin\\..\\include" "time.h"
	.section	.text.dfs_file_open,"ax",%progbits
	.hidden	dfs_file_open                   @ -- Begin function dfs_file_open
	.globl	dfs_file_open
	.p2align	3
	.type	dfs_file_open,%function
	.code	16                              @ @dfs_file_open
	.thumb_func
dfs_file_open:
.Lfunc_begin0:
	.loc	1 34 0                          @ rt-thread/components/dfs/src/dfs_file.c:34:0
	.fnstart
	.cfi_sections .debug_frame
	.cfi_startproc
@ %bb.0:
	.save	{r7, lr}
	push	{r7, lr}
	.cfi_def_cfa_offset 8
	.cfi_offset lr, -4
	.cfi_offset r7, -8
	.pad	#32
	sub	sp, #32
	.cfi_def_cfa_offset 40
	str	r0, [sp, #24]
	str	r1, [sp, #20]
	str	r2, [sp, #16]
.Ltmp0:
	.loc	1 40 9 prologue_end             @ rt-thread/components/dfs/src/dfs_file.c:40:9
	ldr	r0, [sp, #24]
.Ltmp1:
	.loc	1 40 9 is_stmt 0                @ rt-thread/components/dfs/src/dfs_file.c:40:9
	cbnz	r0, .LBB0_2
	b	.LBB0_1
.LBB0_1:
	.loc	1 0 9                           @ rt-thread/components/dfs/src/dfs_file.c:0:9
	mvn	r0, #21
.Ltmp2:
	.loc	1 41 9 is_stmt 1                @ rt-thread/components/dfs/src/dfs_file.c:41:9
	str	r0, [sp, #28]
	b	.LBB0_19
.Ltmp3:
.LBB0_2:
	.loc	1 44 41                         @ rt-thread/components/dfs/src/dfs_file.c:44:41
	ldr	r1, [sp, #20]
	movs	r0, #0
	.loc	1 44 16 is_stmt 0               @ rt-thread/components/dfs/src/dfs_file.c:44:16
	bl	dfs_normalize_path
	.loc	1 44 14                         @ rt-thread/components/dfs/src/dfs_file.c:44:14
	str	r0, [sp, #8]
.Ltmp4:
	.loc	1 45 9 is_stmt 1                @ rt-thread/components/dfs/src/dfs_file.c:45:9
	ldr	r0, [sp, #8]
.Ltmp5:
	.loc	1 45 9 is_stmt 0                @ rt-thread/components/dfs/src/dfs_file.c:45:9
	cbnz	r0, .LBB0_4
	b	.LBB0_3
.LBB0_3:
	.loc	1 0 9                           @ rt-thread/components/dfs/src/dfs_file.c:0:9
	mvn	r0, #11
.Ltmp6:
	.loc	1 47 9 is_stmt 1                @ rt-thread/components/dfs/src/dfs_file.c:47:9
	str	r0, [sp, #28]
	b	.LBB0_19
.Ltmp7:
.LBB0_4:
	.loc	1 53 32                         @ rt-thread/components/dfs/src/dfs_file.c:53:32
	ldr	r0, [sp, #8]
	.loc	1 53 10 is_stmt 0               @ rt-thread/components/dfs/src/dfs_file.c:53:10
	bl	dfs_filesystem_lookup
	.loc	1 53 8                          @ rt-thread/components/dfs/src/dfs_file.c:53:8
	str	r0, [sp, #12]
.Ltmp8:
	.loc	1 54 9 is_stmt 1                @ rt-thread/components/dfs/src/dfs_file.c:54:9
	ldr	r0, [sp, #12]
.Ltmp9:
	.loc	1 54 9 is_stmt 0                @ rt-thread/components/dfs/src/dfs_file.c:54:9
	cbnz	r0, .LBB0_6
	b	.LBB0_5
.LBB0_5:
.Ltmp10:
	.loc	1 56 17 is_stmt 1               @ rt-thread/components/dfs/src/dfs_file.c:56:17
	ldr	r0, [sp, #8]
	.loc	1 56 9 is_stmt 0                @ rt-thread/components/dfs/src/dfs_file.c:56:9
	bl	rt_free
	mvn	r0, #1
	.loc	1 58 9 is_stmt 1                @ rt-thread/components/dfs/src/dfs_file.c:58:9
	str	r0, [sp, #28]
	b	.LBB0_19
.Ltmp11:
.LBB0_6:
	.loc	1 62 17                         @ rt-thread/components/dfs/src/dfs_file.c:62:17
	ldr	r0, [sp, #12]
	.loc	1 62 5 is_stmt 0                @ rt-thread/components/dfs/src/dfs_file.c:62:5
	ldr	r1, [sp, #24]
	.loc	1 62 15                         @ rt-thread/components/dfs/src/dfs_file.c:62:15
	str	r0, [r1, #12]
	.loc	1 63 17 is_stmt 1               @ rt-thread/components/dfs/src/dfs_file.c:63:17
	ldr	r0, [sp, #12]
	.loc	1 63 21 is_stmt 0               @ rt-thread/components/dfs/src/dfs_file.c:63:21
	ldr	r0, [r0, #8]
	.loc	1 63 26                         @ rt-thread/components/dfs/src/dfs_file.c:63:26
	ldr	r0, [r0, #8]
	.loc	1 63 5                          @ rt-thread/components/dfs/src/dfs_file.c:63:5
	ldr	r1, [sp, #24]
	.loc	1 63 15                         @ rt-thread/components/dfs/src/dfs_file.c:63:15
	str	r0, [r1, #16]
	.loc	1 66 5 is_stmt 1                @ rt-thread/components/dfs/src/dfs_file.c:66:5
	ldr	r1, [sp, #24]
	movs	r0, #0
	.loc	1 66 15 is_stmt 0               @ rt-thread/components/dfs/src/dfs_file.c:66:15
	strh	r0, [r1, #2]
	.loc	1 67 17 is_stmt 1               @ rt-thread/components/dfs/src/dfs_file.c:67:17
	ldr	r1, [sp, #16]
	.loc	1 67 5 is_stmt 0                @ rt-thread/components/dfs/src/dfs_file.c:67:5
	ldr	r2, [sp, #24]
	.loc	1 67 15                         @ rt-thread/components/dfs/src/dfs_file.c:67:15
	str	r1, [r2, #20]
	.loc	1 68 5 is_stmt 1                @ rt-thread/components/dfs/src/dfs_file.c:68:5
	ldr	r1, [sp, #24]
	.loc	1 68 15 is_stmt 0               @ rt-thread/components/dfs/src/dfs_file.c:68:15
	str	r0, [r1, #24]
	.loc	1 69 5 is_stmt 1                @ rt-thread/components/dfs/src/dfs_file.c:69:5
	ldr	r1, [sp, #24]
	.loc	1 69 15 is_stmt 0               @ rt-thread/components/dfs/src/dfs_file.c:69:15
	str	r0, [r1, #28]
	.loc	1 70 17 is_stmt 1               @ rt-thread/components/dfs/src/dfs_file.c:70:17
	ldr	r0, [sp, #12]
	.loc	1 70 5 is_stmt 0                @ rt-thread/components/dfs/src/dfs_file.c:70:5
	ldr	r1, [sp, #24]
	.loc	1 70 15                         @ rt-thread/components/dfs/src/dfs_file.c:70:15
	str	r0, [r1, #32]
.Ltmp12:
	.loc	1 72 11 is_stmt 1               @ rt-thread/components/dfs/src/dfs_file.c:72:11
	ldr	r0, [sp, #12]
	.loc	1 72 15 is_stmt 0               @ rt-thread/components/dfs/src/dfs_file.c:72:15
	ldr	r0, [r0, #8]
.Ltmp13:
	.loc	1 72 9                          @ rt-thread/components/dfs/src/dfs_file.c:72:9
	ldrb	r0, [r0, #4]
	lsls	r0, r0, #31
	cbnz	r0, .LBB0_11
	b	.LBB0_7
.LBB0_7:
.Ltmp14:
	.loc	1 74 24 is_stmt 1               @ rt-thread/components/dfs/src/dfs_file.c:74:24
	ldr	r0, [sp, #12]
	.loc	1 74 28 is_stmt 0               @ rt-thread/components/dfs/src/dfs_file.c:74:28
	ldr	r0, [r0, #4]
	.loc	1 74 34                         @ rt-thread/components/dfs/src/dfs_file.c:74:34
	ldr	r1, [sp, #8]
	.loc	1 74 13                         @ rt-thread/components/dfs/src/dfs_file.c:74:13
	bl	dfs_subdir
.Ltmp15:
	.loc	1 74 13                         @ rt-thread/components/dfs/src/dfs_file.c:74:13
	cbnz	r0, .LBB0_9
	b	.LBB0_8
.LBB0_8:
.Ltmp16:
	.loc	1 75 24 is_stmt 1               @ rt-thread/components/dfs/src/dfs_file.c:75:24
	movw	r0, :lower16:.L.str
	movt	r0, :upper16:.L.str
	bl	rt_strdup
	.loc	1 75 13 is_stmt 0               @ rt-thread/components/dfs/src/dfs_file.c:75:13
	ldr	r1, [sp, #24]
	.loc	1 75 22                         @ rt-thread/components/dfs/src/dfs_file.c:75:22
	str	r0, [r1, #4]
	.loc	1 75 13                         @ rt-thread/components/dfs/src/dfs_file.c:75:13
	b	.LBB0_10
.LBB0_9:
	.loc	1 77 45 is_stmt 1               @ rt-thread/components/dfs/src/dfs_file.c:77:45
	ldr	r0, [sp, #12]
	.loc	1 77 49 is_stmt 0               @ rt-thread/components/dfs/src/dfs_file.c:77:49
	ldr	r0, [r0, #4]
	.loc	1 77 55                         @ rt-thread/components/dfs/src/dfs_file.c:77:55
	ldr	r1, [sp, #8]
	.loc	1 77 34                         @ rt-thread/components/dfs/src/dfs_file.c:77:34
	bl	dfs_subdir
	.loc	1 77 24                         @ rt-thread/components/dfs/src/dfs_file.c:77:24
	bl	rt_strdup
	.loc	1 77 13                         @ rt-thread/components/dfs/src/dfs_file.c:77:13
	ldr	r1, [sp, #24]
	.loc	1 77 22                         @ rt-thread/components/dfs/src/dfs_file.c:77:22
	str	r0, [r1, #4]
	b	.LBB0_10
.Ltmp17:
.LBB0_10:
	.loc	1 78 17 is_stmt 1               @ rt-thread/components/dfs/src/dfs_file.c:78:17
	ldr	r0, [sp, #8]
	.loc	1 78 9 is_stmt 0                @ rt-thread/components/dfs/src/dfs_file.c:78:9
	bl	rt_free
	.loc	1 80 5 is_stmt 1                @ rt-thread/components/dfs/src/dfs_file.c:80:5
	b	.LBB0_12
.Ltmp18:
.LBB0_11:
	.loc	1 83 20                         @ rt-thread/components/dfs/src/dfs_file.c:83:20
	ldr	r0, [sp, #8]
	.loc	1 83 9 is_stmt 0                @ rt-thread/components/dfs/src/dfs_file.c:83:9
	ldr	r1, [sp, #24]
	.loc	1 83 18                         @ rt-thread/components/dfs/src/dfs_file.c:83:18
	str	r0, [r1, #4]
	b	.LBB0_12
.Ltmp19:
.LBB0_12:
	.loc	1 87 9 is_stmt 1                @ rt-thread/components/dfs/src/dfs_file.c:87:9
	ldr	r0, [sp, #24]
	.loc	1 87 13 is_stmt 0               @ rt-thread/components/dfs/src/dfs_file.c:87:13
	ldr	r0, [r0, #16]
	.loc	1 87 19                         @ rt-thread/components/dfs/src/dfs_file.c:87:19
	ldr	r0, [r0]
.Ltmp20:
	.loc	1 87 9                          @ rt-thread/components/dfs/src/dfs_file.c:87:9
	cbnz	r0, .LBB0_14
	b	.LBB0_13
.LBB0_13:
.Ltmp21:
	.loc	1 90 17 is_stmt 1               @ rt-thread/components/dfs/src/dfs_file.c:90:17
	ldr	r0, [sp, #24]
	.loc	1 90 21 is_stmt 0               @ rt-thread/components/dfs/src/dfs_file.c:90:21
	ldr	r0, [r0, #4]
	.loc	1 90 9                          @ rt-thread/components/dfs/src/dfs_file.c:90:9
	bl	rt_free
	.loc	1 91 9 is_stmt 1                @ rt-thread/components/dfs/src/dfs_file.c:91:9
	ldr	r1, [sp, #24]
	movs	r0, #0
	.loc	1 91 18 is_stmt 0               @ rt-thread/components/dfs/src/dfs_file.c:91:18
	str	r0, [r1, #4]
	mvn	r0, #37
	.loc	1 93 9 is_stmt 1                @ rt-thread/components/dfs/src/dfs_file.c:93:9
	str	r0, [sp, #28]
	b	.LBB0_19
.Ltmp22:
.LBB0_14:
	.loc	1 96 19                         @ rt-thread/components/dfs/src/dfs_file.c:96:19
	ldr	r0, [sp, #24]
	.loc	1 96 23 is_stmt 0               @ rt-thread/components/dfs/src/dfs_file.c:96:23
	ldr	r1, [r0, #16]
	.loc	1 96 29                         @ rt-thread/components/dfs/src/dfs_file.c:96:29
	ldr	r1, [r1]
	.loc	1 96 19                         @ rt-thread/components/dfs/src/dfs_file.c:96:19
	blx	r1
	.loc	1 96 17                         @ rt-thread/components/dfs/src/dfs_file.c:96:17
	str	r0, [sp, #4]
.Ltmp23:
	.loc	1 96 9                          @ rt-thread/components/dfs/src/dfs_file.c:96:9
	cmp.w	r0, #-1
	bgt	.LBB0_16
	b	.LBB0_15
.LBB0_15:
.Ltmp24:
	.loc	1 99 17 is_stmt 1               @ rt-thread/components/dfs/src/dfs_file.c:99:17
	ldr	r0, [sp, #24]
	.loc	1 99 21 is_stmt 0               @ rt-thread/components/dfs/src/dfs_file.c:99:21
	ldr	r0, [r0, #4]
	.loc	1 99 9                          @ rt-thread/components/dfs/src/dfs_file.c:99:9
	bl	rt_free
	.loc	1 100 9 is_stmt 1               @ rt-thread/components/dfs/src/dfs_file.c:100:9
	ldr	r1, [sp, #24]
	movs	r0, #0
	.loc	1 100 18 is_stmt 0              @ rt-thread/components/dfs/src/dfs_file.c:100:18
	str	r0, [r1, #4]
	.loc	1 104 16 is_stmt 1              @ rt-thread/components/dfs/src/dfs_file.c:104:16
	ldr	r0, [sp, #4]
	.loc	1 104 9 is_stmt 0               @ rt-thread/components/dfs/src/dfs_file.c:104:9
	str	r0, [sp, #28]
	b	.LBB0_19
.Ltmp25:
.LBB0_16:
	.loc	1 107 5 is_stmt 1               @ rt-thread/components/dfs/src/dfs_file.c:107:5
	ldr	r1, [sp, #24]
	.loc	1 107 15 is_stmt 0              @ rt-thread/components/dfs/src/dfs_file.c:107:15
	ldr	r0, [r1, #20]
	orr	r0, r0, #16777216
	str	r0, [r1, #20]
	.loc	1 108 9 is_stmt 1               @ rt-thread/components/dfs/src/dfs_file.c:108:9
	ldrb.w	r0, [sp, #18]
	lsls	r0, r0, #31
	cbz	r0, .LBB0_18
	b	.LBB0_17
.LBB0_17:
.Ltmp26:
	.loc	1 110 9                         @ rt-thread/components/dfs/src/dfs_file.c:110:9
	ldr	r1, [sp, #24]
	movs	r0, #2
	.loc	1 110 18 is_stmt 0              @ rt-thread/components/dfs/src/dfs_file.c:110:18
	strh	r0, [r1, #2]
	.loc	1 111 9 is_stmt 1               @ rt-thread/components/dfs/src/dfs_file.c:111:9
	ldr	r1, [sp, #24]
	.loc	1 111 19 is_stmt 0              @ rt-thread/components/dfs/src/dfs_file.c:111:19
	ldr	r0, [r1, #20]
	orr	r0, r0, #33554432
	str	r0, [r1, #20]
	.loc	1 112 5 is_stmt 1               @ rt-thread/components/dfs/src/dfs_file.c:112:5
	b	.LBB0_18
.Ltmp27:
.LBB0_18:
	.loc	1 0 5 is_stmt 0                 @ rt-thread/components/dfs/src/dfs_file.c:0:5
	movs	r0, #0
	.loc	1 115 5 is_stmt 1               @ rt-thread/components/dfs/src/dfs_file.c:115:5
	str	r0, [sp, #28]
	b	.LBB0_19
.LBB0_19:
	.loc	1 116 1                         @ rt-thread/components/dfs/src/dfs_file.c:116:1
	ldr	r0, [sp, #28]
	add	sp, #32
	pop	{r7, pc}
.Ltmp28:
.Lfunc_end0:
	.size	dfs_file_open, .Lfunc_end0-dfs_file_open
	.cfi_endproc
	.cantunwind
	.fnend
                                        @ -- End function
	.section	.text.dfs_file_close,"ax",%progbits
	.hidden	dfs_file_close                  @ -- Begin function dfs_file_close
	.globl	dfs_file_close
	.p2align	3
	.type	dfs_file_close,%function
	.code	16                              @ @dfs_file_close
	.thumb_func
dfs_file_close:
.Lfunc_begin1:
	.loc	1 126 0                         @ rt-thread/components/dfs/src/dfs_file.c:126:0
	.fnstart
	.cfi_startproc
@ %bb.0:
	.save	{r7, lr}
	push	{r7, lr}
	.cfi_def_cfa_offset 8
	.cfi_offset lr, -4
	.cfi_offset r7, -8
	.pad	#16
	sub	sp, #16
	.cfi_def_cfa_offset 24
	str	r0, [sp, #8]
	movs	r0, #0
.Ltmp29:
	.loc	1 127 9 prologue_end            @ rt-thread/components/dfs/src/dfs_file.c:127:9
	str	r0, [sp, #4]
.Ltmp30:
	.loc	1 129 9                         @ rt-thread/components/dfs/src/dfs_file.c:129:9
	ldr	r0, [sp, #8]
.Ltmp31:
	.loc	1 129 9 is_stmt 0               @ rt-thread/components/dfs/src/dfs_file.c:129:9
	cbnz	r0, .LBB1_2
	b	.LBB1_1
.LBB1_1:
	.loc	1 0 9                           @ rt-thread/components/dfs/src/dfs_file.c:0:9
	mvn	r0, #5
.Ltmp32:
	.loc	1 130 9 is_stmt 1               @ rt-thread/components/dfs/src/dfs_file.c:130:9
	str	r0, [sp, #12]
	b	.LBB1_7
.Ltmp33:
.LBB1_2:
	.loc	1 132 9                         @ rt-thread/components/dfs/src/dfs_file.c:132:9
	ldr	r0, [sp, #8]
	.loc	1 132 13 is_stmt 0              @ rt-thread/components/dfs/src/dfs_file.c:132:13
	ldr	r0, [r0, #16]
	.loc	1 132 19                        @ rt-thread/components/dfs/src/dfs_file.c:132:19
	ldr	r0, [r0, #4]
.Ltmp34:
	.loc	1 132 9                         @ rt-thread/components/dfs/src/dfs_file.c:132:9
	cbz	r0, .LBB1_4
	b	.LBB1_3
.LBB1_3:
.Ltmp35:
	.loc	1 133 18 is_stmt 1              @ rt-thread/components/dfs/src/dfs_file.c:133:18
	ldr	r0, [sp, #8]
	.loc	1 133 22 is_stmt 0              @ rt-thread/components/dfs/src/dfs_file.c:133:22
	ldr	r1, [r0, #16]
	.loc	1 133 28                        @ rt-thread/components/dfs/src/dfs_file.c:133:28
	ldr	r1, [r1, #4]
	.loc	1 133 18                        @ rt-thread/components/dfs/src/dfs_file.c:133:18
	blx	r1
	.loc	1 133 16                        @ rt-thread/components/dfs/src/dfs_file.c:133:16
	str	r0, [sp, #4]
	.loc	1 133 9                         @ rt-thread/components/dfs/src/dfs_file.c:133:9
	b	.LBB1_4
.Ltmp36:
.LBB1_4:
	.loc	1 136 9 is_stmt 1               @ rt-thread/components/dfs/src/dfs_file.c:136:9
	ldr	r0, [sp, #4]
.Ltmp37:
	.loc	1 136 9 is_stmt 0               @ rt-thread/components/dfs/src/dfs_file.c:136:9
	cmp.w	r0, #-1
	bgt	.LBB1_6
	b	.LBB1_5
.LBB1_5:
.Ltmp38:
	.loc	1 137 16 is_stmt 1              @ rt-thread/components/dfs/src/dfs_file.c:137:16
	ldr	r0, [sp, #4]
	.loc	1 137 9 is_stmt 0               @ rt-thread/components/dfs/src/dfs_file.c:137:9
	str	r0, [sp, #12]
	b	.LBB1_7
.Ltmp39:
.LBB1_6:
	.loc	1 139 13 is_stmt 1              @ rt-thread/components/dfs/src/dfs_file.c:139:13
	ldr	r0, [sp, #8]
	.loc	1 139 17 is_stmt 0              @ rt-thread/components/dfs/src/dfs_file.c:139:17
	ldr	r0, [r0, #4]
	.loc	1 139 5                         @ rt-thread/components/dfs/src/dfs_file.c:139:5
	bl	rt_free
	.loc	1 140 5 is_stmt 1               @ rt-thread/components/dfs/src/dfs_file.c:140:5
	ldr	r1, [sp, #8]
	movs	r0, #0
	.loc	1 140 14 is_stmt 0              @ rt-thread/components/dfs/src/dfs_file.c:140:14
	str	r0, [r1, #4]
	.loc	1 142 12 is_stmt 1              @ rt-thread/components/dfs/src/dfs_file.c:142:12
	ldr	r0, [sp, #4]
	.loc	1 142 5 is_stmt 0               @ rt-thread/components/dfs/src/dfs_file.c:142:5
	str	r0, [sp, #12]
	b	.LBB1_7
.LBB1_7:
	.loc	1 143 1 is_stmt 1               @ rt-thread/components/dfs/src/dfs_file.c:143:1
	ldr	r0, [sp, #12]
	add	sp, #16
	pop	{r7, pc}
.Ltmp40:
.Lfunc_end1:
	.size	dfs_file_close, .Lfunc_end1-dfs_file_close
	.cfi_endproc
	.cantunwind
	.fnend
                                        @ -- End function
	.section	.text.dfs_file_ioctl,"ax",%progbits
	.hidden	dfs_file_ioctl                  @ -- Begin function dfs_file_ioctl
	.globl	dfs_file_ioctl
	.p2align	3
	.type	dfs_file_ioctl,%function
	.code	16                              @ @dfs_file_ioctl
	.thumb_func
dfs_file_ioctl:
.Lfunc_begin2:
	.loc	1 155 0                         @ rt-thread/components/dfs/src/dfs_file.c:155:0
	.fnstart
	.cfi_startproc
@ %bb.0:
	.save	{r7, lr}
	push	{r7, lr}
	.cfi_def_cfa_offset 8
	.cfi_offset lr, -4
	.cfi_offset r7, -8
	.pad	#32
	sub	sp, #32
	.cfi_def_cfa_offset 40
	str	r0, [sp, #24]
	str	r1, [sp, #20]
	str	r2, [sp, #16]
.Ltmp41:
	.loc	1 156 9 prologue_end            @ rt-thread/components/dfs/src/dfs_file.c:156:9
	ldr	r0, [sp, #24]
.Ltmp42:
	.loc	1 156 9 is_stmt 0               @ rt-thread/components/dfs/src/dfs_file.c:156:9
	cbnz	r0, .LBB2_2
	b	.LBB2_1
.LBB2_1:
	.loc	1 0 9                           @ rt-thread/components/dfs/src/dfs_file.c:0:9
	mvn	r0, #21
.Ltmp43:
	.loc	1 157 9 is_stmt 1               @ rt-thread/components/dfs/src/dfs_file.c:157:9
	str	r0, [sp, #28]
	b	.LBB2_11
.Ltmp44:
.LBB2_2:
	.loc	1 160 9                         @ rt-thread/components/dfs/src/dfs_file.c:160:9
	ldr	r0, [sp, #24]
	.loc	1 160 13 is_stmt 0              @ rt-thread/components/dfs/src/dfs_file.c:160:13
	ldrh	r0, [r0, #2]
.Ltmp45:
	.loc	1 160 9                         @ rt-thread/components/dfs/src/dfs_file.c:160:9
	cbnz	r0, .LBB2_8
	b	.LBB2_3
.LBB2_3:
.Ltmp46:
	.loc	1 162 17 is_stmt 1              @ rt-thread/components/dfs/src/dfs_file.c:162:17
	ldr	r0, [sp, #20]
	.loc	1 162 9 is_stmt 0               @ rt-thread/components/dfs/src/dfs_file.c:162:9
	str	r0, [sp, #4]                    @ 4-byte Spill
	cmp	r0, #3
	beq	.LBB2_5
	b	.LBB2_4
.LBB2_4:
	ldr	r0, [sp, #4]                    @ 4-byte Reload
	cmp	r0, #4
	beq	.LBB2_6
	b	.LBB2_7
.LBB2_5:
.Ltmp47:
	.loc	1 165 20 is_stmt 1              @ rt-thread/components/dfs/src/dfs_file.c:165:20
	ldr	r0, [sp, #24]
	.loc	1 165 24 is_stmt 0              @ rt-thread/components/dfs/src/dfs_file.c:165:24
	ldr	r0, [r0, #20]
	.loc	1 165 13                        @ rt-thread/components/dfs/src/dfs_file.c:165:13
	str	r0, [sp, #28]
	b	.LBB2_11
.LBB2_6:
.Ltmp48:
	.loc	1 168 45 is_stmt 1              @ rt-thread/components/dfs/src/dfs_file.c:168:45
	ldr	r0, [sp, #16]
	.loc	1 168 21 is_stmt 0              @ rt-thread/components/dfs/src/dfs_file.c:168:21
	str	r0, [sp, #12]
	mov.w	r0, #3072
	.loc	1 169 21 is_stmt 1              @ rt-thread/components/dfs/src/dfs_file.c:169:21
	str	r0, [sp, #8]
	.loc	1 171 26                        @ rt-thread/components/dfs/src/dfs_file.c:171:26
	ldr	r1, [sp, #8]
	.loc	1 171 23 is_stmt 0              @ rt-thread/components/dfs/src/dfs_file.c:171:23
	ldr	r0, [sp, #12]
	ands	r0, r1
	str	r0, [sp, #12]
	.loc	1 172 31 is_stmt 1              @ rt-thread/components/dfs/src/dfs_file.c:172:31
	ldr	r2, [sp, #8]
	.loc	1 172 17 is_stmt 0              @ rt-thread/components/dfs/src/dfs_file.c:172:17
	ldr	r1, [sp, #24]
	.loc	1 172 27                        @ rt-thread/components/dfs/src/dfs_file.c:172:27
	ldr	r0, [r1, #20]
	bics	r0, r2
	str	r0, [r1, #20]
	.loc	1 173 30 is_stmt 1              @ rt-thread/components/dfs/src/dfs_file.c:173:30
	ldr	r2, [sp, #12]
	.loc	1 173 17 is_stmt 0              @ rt-thread/components/dfs/src/dfs_file.c:173:17
	ldr	r1, [sp, #24]
	.loc	1 173 27                        @ rt-thread/components/dfs/src/dfs_file.c:173:27
	ldr	r0, [r1, #20]
	orrs	r0, r2
	str	r0, [r1, #20]
	movs	r0, #0
.Ltmp49:
	.loc	1 175 13 is_stmt 1              @ rt-thread/components/dfs/src/dfs_file.c:175:13
	str	r0, [sp, #28]
	b	.LBB2_11
.Ltmp50:
.LBB2_7:
	.loc	1 177 5                         @ rt-thread/components/dfs/src/dfs_file.c:177:5
	b	.LBB2_8
.Ltmp51:
.LBB2_8:
	.loc	1 179 9                         @ rt-thread/components/dfs/src/dfs_file.c:179:9
	ldr	r0, [sp, #24]
	.loc	1 179 13 is_stmt 0              @ rt-thread/components/dfs/src/dfs_file.c:179:13
	ldr	r0, [r0, #16]
	.loc	1 179 19                        @ rt-thread/components/dfs/src/dfs_file.c:179:19
	ldr	r0, [r0, #8]
.Ltmp52:
	.loc	1 179 9                         @ rt-thread/components/dfs/src/dfs_file.c:179:9
	cbz	r0, .LBB2_10
	b	.LBB2_9
.LBB2_9:
.Ltmp53:
	.loc	1 180 16 is_stmt 1              @ rt-thread/components/dfs/src/dfs_file.c:180:16
	ldr	r0, [sp, #24]
	.loc	1 180 20 is_stmt 0              @ rt-thread/components/dfs/src/dfs_file.c:180:20
	ldr	r1, [r0, #16]
	.loc	1 180 26                        @ rt-thread/components/dfs/src/dfs_file.c:180:26
	ldr	r3, [r1, #8]
	.loc	1 180 36                        @ rt-thread/components/dfs/src/dfs_file.c:180:36
	ldr	r1, [sp, #20]
	.loc	1 180 41                        @ rt-thread/components/dfs/src/dfs_file.c:180:41
	ldr	r2, [sp, #16]
	.loc	1 180 16                        @ rt-thread/components/dfs/src/dfs_file.c:180:16
	blx	r3
	.loc	1 180 9                         @ rt-thread/components/dfs/src/dfs_file.c:180:9
	str	r0, [sp, #28]
	b	.LBB2_11
.Ltmp54:
.LBB2_10:
	.loc	1 0 9                           @ rt-thread/components/dfs/src/dfs_file.c:0:9
	mvn	r0, #37
	.loc	1 182 5 is_stmt 1               @ rt-thread/components/dfs/src/dfs_file.c:182:5
	str	r0, [sp, #28]
	b	.LBB2_11
.LBB2_11:
	.loc	1 183 1                         @ rt-thread/components/dfs/src/dfs_file.c:183:1
	ldr	r0, [sp, #28]
	add	sp, #32
	pop	{r7, pc}
.Ltmp55:
.Lfunc_end2:
	.size	dfs_file_ioctl, .Lfunc_end2-dfs_file_ioctl
	.cfi_endproc
	.cantunwind
	.fnend
                                        @ -- End function
	.section	.text.dfs_file_read,"ax",%progbits
	.hidden	dfs_file_read                   @ -- Begin function dfs_file_read
	.globl	dfs_file_read
	.p2align	3
	.type	dfs_file_read,%function
	.code	16                              @ @dfs_file_read
	.thumb_func
dfs_file_read:
.Lfunc_begin3:
	.loc	1 196 0                         @ rt-thread/components/dfs/src/dfs_file.c:196:0
	.fnstart
	.cfi_startproc
@ %bb.0:
	.save	{r7, lr}
	push	{r7, lr}
	.cfi_def_cfa_offset 8
	.cfi_offset lr, -4
	.cfi_offset r7, -8
	.pad	#24
	sub	sp, #24
	.cfi_def_cfa_offset 32
	str	r0, [sp, #16]
	str	r1, [sp, #12]
	str	r2, [sp, #8]
	movs	r0, #0
.Ltmp56:
	.loc	1 197 9 prologue_end            @ rt-thread/components/dfs/src/dfs_file.c:197:9
	str	r0, [sp, #4]
.Ltmp57:
	.loc	1 199 9                         @ rt-thread/components/dfs/src/dfs_file.c:199:9
	ldr	r0, [sp, #16]
.Ltmp58:
	.loc	1 199 9 is_stmt 0               @ rt-thread/components/dfs/src/dfs_file.c:199:9
	cbnz	r0, .LBB3_2
	b	.LBB3_1
.LBB3_1:
	.loc	1 0 9                           @ rt-thread/components/dfs/src/dfs_file.c:0:9
	mvn	r0, #21
.Ltmp59:
	.loc	1 200 9 is_stmt 1               @ rt-thread/components/dfs/src/dfs_file.c:200:9
	str	r0, [sp, #20]
	b	.LBB3_7
.Ltmp60:
.LBB3_2:
	.loc	1 202 9                         @ rt-thread/components/dfs/src/dfs_file.c:202:9
	ldr	r0, [sp, #16]
	.loc	1 202 13 is_stmt 0              @ rt-thread/components/dfs/src/dfs_file.c:202:13
	ldr	r0, [r0, #16]
	.loc	1 202 19                        @ rt-thread/components/dfs/src/dfs_file.c:202:19
	ldr	r0, [r0, #12]
.Ltmp61:
	.loc	1 202 9                         @ rt-thread/components/dfs/src/dfs_file.c:202:9
	cbnz	r0, .LBB3_4
	b	.LBB3_3
.LBB3_3:
	.loc	1 0 9                           @ rt-thread/components/dfs/src/dfs_file.c:0:9
	mvn	r0, #37
.Ltmp62:
	.loc	1 203 9 is_stmt 1               @ rt-thread/components/dfs/src/dfs_file.c:203:9
	str	r0, [sp, #20]
	b	.LBB3_7
.Ltmp63:
.LBB3_4:
	.loc	1 205 19                        @ rt-thread/components/dfs/src/dfs_file.c:205:19
	ldr	r0, [sp, #16]
	.loc	1 205 23 is_stmt 0              @ rt-thread/components/dfs/src/dfs_file.c:205:23
	ldr	r1, [r0, #16]
	.loc	1 205 29                        @ rt-thread/components/dfs/src/dfs_file.c:205:29
	ldr	r3, [r1, #12]
	.loc	1 205 38                        @ rt-thread/components/dfs/src/dfs_file.c:205:38
	ldr	r1, [sp, #12]
	.loc	1 205 43                        @ rt-thread/components/dfs/src/dfs_file.c:205:43
	ldr	r2, [sp, #8]
	.loc	1 205 19                        @ rt-thread/components/dfs/src/dfs_file.c:205:19
	blx	r3
	.loc	1 205 17                        @ rt-thread/components/dfs/src/dfs_file.c:205:17
	str	r0, [sp, #4]
.Ltmp64:
	.loc	1 205 9                         @ rt-thread/components/dfs/src/dfs_file.c:205:9
	cmp.w	r0, #-1
	bgt	.LBB3_6
	b	.LBB3_5
.LBB3_5:
.Ltmp65:
	.loc	1 206 9 is_stmt 1               @ rt-thread/components/dfs/src/dfs_file.c:206:9
	ldr	r1, [sp, #16]
	.loc	1 206 19 is_stmt 0              @ rt-thread/components/dfs/src/dfs_file.c:206:19
	ldr	r0, [r1, #20]
	orr	r0, r0, #67108864
	str	r0, [r1, #20]
	.loc	1 206 9                         @ rt-thread/components/dfs/src/dfs_file.c:206:9
	b	.LBB3_6
.Ltmp66:
.LBB3_6:
	.loc	1 208 12 is_stmt 1              @ rt-thread/components/dfs/src/dfs_file.c:208:12
	ldr	r0, [sp, #4]
	.loc	1 208 5 is_stmt 0               @ rt-thread/components/dfs/src/dfs_file.c:208:5
	str	r0, [sp, #20]
	b	.LBB3_7
.LBB3_7:
	.loc	1 209 1 is_stmt 1               @ rt-thread/components/dfs/src/dfs_file.c:209:1
	ldr	r0, [sp, #20]
	add	sp, #24
	pop	{r7, pc}
.Ltmp67:
.Lfunc_end3:
	.size	dfs_file_read, .Lfunc_end3-dfs_file_read
	.cfi_endproc
	.cantunwind
	.fnend
                                        @ -- End function
	.section	.text.dfs_file_getdents,"ax",%progbits
	.hidden	dfs_file_getdents               @ -- Begin function dfs_file_getdents
	.globl	dfs_file_getdents
	.p2align	3
	.type	dfs_file_getdents,%function
	.code	16                              @ @dfs_file_getdents
	.thumb_func
dfs_file_getdents:
.Lfunc_begin4:
	.loc	1 221 0                         @ rt-thread/components/dfs/src/dfs_file.c:221:0
	.fnstart
	.cfi_startproc
@ %bb.0:
	.save	{r7, lr}
	push	{r7, lr}
	.cfi_def_cfa_offset 8
	.cfi_offset lr, -4
	.cfi_offset r7, -8
	.pad	#16
	sub	sp, #16
	.cfi_def_cfa_offset 24
	str	r0, [sp, #8]
	str	r1, [sp, #4]
	str	r2, [sp]
.Ltmp68:
	.loc	1 223 9 prologue_end            @ rt-thread/components/dfs/src/dfs_file.c:223:9
	ldr	r0, [sp, #8]
	.loc	1 223 20 is_stmt 0              @ rt-thread/components/dfs/src/dfs_file.c:223:20
	cbz	r0, .LBB4_2
	b	.LBB4_1
.LBB4_1:
	.loc	1 223 23                        @ rt-thread/components/dfs/src/dfs_file.c:223:23
	ldr	r0, [sp, #8]
	.loc	1 223 27                        @ rt-thread/components/dfs/src/dfs_file.c:223:27
	ldrh	r0, [r0, #2]
.Ltmp69:
	.loc	1 223 9                         @ rt-thread/components/dfs/src/dfs_file.c:223:9
	cmp	r0, #2
	beq	.LBB4_3
	b	.LBB4_2
.LBB4_2:
	.loc	1 0 9                           @ rt-thread/components/dfs/src/dfs_file.c:0:9
	mvn	r0, #21
.Ltmp70:
	.loc	1 224 9 is_stmt 1               @ rt-thread/components/dfs/src/dfs_file.c:224:9
	str	r0, [sp, #12]
	b	.LBB4_6
.Ltmp71:
.LBB4_3:
	.loc	1 226 9                         @ rt-thread/components/dfs/src/dfs_file.c:226:9
	ldr	r0, [sp, #8]
	.loc	1 226 13 is_stmt 0              @ rt-thread/components/dfs/src/dfs_file.c:226:13
	ldr	r0, [r0, #16]
	.loc	1 226 19                        @ rt-thread/components/dfs/src/dfs_file.c:226:19
	ldr	r0, [r0, #28]
.Ltmp72:
	.loc	1 226 9                         @ rt-thread/components/dfs/src/dfs_file.c:226:9
	cbz	r0, .LBB4_5
	b	.LBB4_4
.LBB4_4:
.Ltmp73:
	.loc	1 227 16 is_stmt 1              @ rt-thread/components/dfs/src/dfs_file.c:227:16
	ldr	r0, [sp, #8]
	.loc	1 227 20 is_stmt 0              @ rt-thread/components/dfs/src/dfs_file.c:227:20
	ldr	r1, [r0, #16]
	.loc	1 227 26                        @ rt-thread/components/dfs/src/dfs_file.c:227:26
	ldr	r3, [r1, #28]
	.loc	1 227 39                        @ rt-thread/components/dfs/src/dfs_file.c:227:39
	ldr	r1, [sp, #4]
	.loc	1 227 45                        @ rt-thread/components/dfs/src/dfs_file.c:227:45
	ldr	r2, [sp]
	.loc	1 227 16                        @ rt-thread/components/dfs/src/dfs_file.c:227:16
	blx	r3
	.loc	1 227 9                         @ rt-thread/components/dfs/src/dfs_file.c:227:9
	str	r0, [sp, #12]
	b	.LBB4_6
.Ltmp74:
.LBB4_5:
	.loc	1 0 9                           @ rt-thread/components/dfs/src/dfs_file.c:0:9
	mvn	r0, #37
	.loc	1 229 5 is_stmt 1               @ rt-thread/components/dfs/src/dfs_file.c:229:5
	str	r0, [sp, #12]
	b	.LBB4_6
.LBB4_6:
	.loc	1 230 1                         @ rt-thread/components/dfs/src/dfs_file.c:230:1
	ldr	r0, [sp, #12]
	add	sp, #16
	pop	{r7, pc}
.Ltmp75:
.Lfunc_end4:
	.size	dfs_file_getdents, .Lfunc_end4-dfs_file_getdents
	.cfi_endproc
	.cantunwind
	.fnend
                                        @ -- End function
	.section	.text.dfs_file_unlink,"ax",%progbits
	.hidden	dfs_file_unlink                 @ -- Begin function dfs_file_unlink
	.globl	dfs_file_unlink
	.p2align	3
	.type	dfs_file_unlink,%function
	.code	16                              @ @dfs_file_unlink
	.thumb_func
dfs_file_unlink:
.Lfunc_begin5:
	.loc	1 240 0                         @ rt-thread/components/dfs/src/dfs_file.c:240:0
	.fnstart
	.cfi_startproc
@ %bb.0:
	.save	{r7, lr}
	push	{r7, lr}
	.cfi_def_cfa_offset 8
	.cfi_offset lr, -4
	.cfi_offset r7, -8
	.pad	#32
	sub	sp, #32
	.cfi_def_cfa_offset 40
	str	r0, [sp, #24]
.Ltmp76:
	.loc	1 246 41 prologue_end           @ rt-thread/components/dfs/src/dfs_file.c:246:41
	ldr	r1, [sp, #24]
	movs	r0, #0
	.loc	1 246 16 is_stmt 0              @ rt-thread/components/dfs/src/dfs_file.c:246:16
	bl	dfs_normalize_path
	.loc	1 246 14                        @ rt-thread/components/dfs/src/dfs_file.c:246:14
	str	r0, [sp, #16]
.Ltmp77:
	.loc	1 247 9 is_stmt 1               @ rt-thread/components/dfs/src/dfs_file.c:247:9
	ldr	r0, [sp, #16]
.Ltmp78:
	.loc	1 247 9 is_stmt 0               @ rt-thread/components/dfs/src/dfs_file.c:247:9
	cbnz	r0, .LBB5_2
	b	.LBB5_1
.LBB5_1:
	.loc	1 0 9                           @ rt-thread/components/dfs/src/dfs_file.c:0:9
	mvn	r0, #21
.Ltmp79:
	.loc	1 249 9 is_stmt 1               @ rt-thread/components/dfs/src/dfs_file.c:249:9
	str	r0, [sp, #28]
	b	.LBB5_17
.Ltmp80:
.LBB5_2:
	.loc	1 253 37                        @ rt-thread/components/dfs/src/dfs_file.c:253:37
	ldr	r0, [sp, #16]
	.loc	1 253 15 is_stmt 0              @ rt-thread/components/dfs/src/dfs_file.c:253:15
	bl	dfs_filesystem_lookup
	.loc	1 253 13                        @ rt-thread/components/dfs/src/dfs_file.c:253:13
	str	r0, [sp, #12]
.Ltmp81:
	.loc	1 253 9                         @ rt-thread/components/dfs/src/dfs_file.c:253:9
	cbnz	r0, .LBB5_4
	b	.LBB5_3
.LBB5_3:
	.loc	1 0 9                           @ rt-thread/components/dfs/src/dfs_file.c:0:9
	mvn	r0, #1
.Ltmp82:
	.loc	1 255 16 is_stmt 1              @ rt-thread/components/dfs/src/dfs_file.c:255:16
	str	r0, [sp, #20]
	.loc	1 256 9                         @ rt-thread/components/dfs/src/dfs_file.c:256:9
	b	.LBB5_16
.Ltmp83:
.LBB5_4:
	.loc	1 260 20                        @ rt-thread/components/dfs/src/dfs_file.c:260:20
	ldr	r0, [sp, #16]
	.loc	1 260 9 is_stmt 0               @ rt-thread/components/dfs/src/dfs_file.c:260:9
	bl	fd_is_open
.Ltmp84:
	.loc	1 260 9                         @ rt-thread/components/dfs/src/dfs_file.c:260:9
	cbnz	r0, .LBB5_6
	b	.LBB5_5
.LBB5_5:
	.loc	1 0 9                           @ rt-thread/components/dfs/src/dfs_file.c:0:9
	mvn	r0, #15
.Ltmp85:
	.loc	1 262 16 is_stmt 1              @ rt-thread/components/dfs/src/dfs_file.c:262:16
	str	r0, [sp, #20]
	.loc	1 263 9                         @ rt-thread/components/dfs/src/dfs_file.c:263:9
	b	.LBB5_16
.Ltmp86:
.LBB5_6:
	.loc	1 266 9                         @ rt-thread/components/dfs/src/dfs_file.c:266:9
	ldr	r0, [sp, #12]
	.loc	1 266 13 is_stmt 0              @ rt-thread/components/dfs/src/dfs_file.c:266:13
	ldr	r0, [r0, #8]
	.loc	1 266 18                        @ rt-thread/components/dfs/src/dfs_file.c:266:18
	ldr	r0, [r0, #28]
.Ltmp87:
	.loc	1 266 9                         @ rt-thread/components/dfs/src/dfs_file.c:266:9
	cbz	r0, .LBB5_14
	b	.LBB5_7
.LBB5_7:
.Ltmp88:
	.loc	1 268 15 is_stmt 1              @ rt-thread/components/dfs/src/dfs_file.c:268:15
	ldr	r0, [sp, #12]
	.loc	1 268 19 is_stmt 0              @ rt-thread/components/dfs/src/dfs_file.c:268:19
	ldr	r0, [r0, #8]
.Ltmp89:
	.loc	1 268 13                        @ rt-thread/components/dfs/src/dfs_file.c:268:13
	ldrb	r0, [r0, #4]
	lsls	r0, r0, #31
	cbnz	r0, .LBB5_12
	b	.LBB5_8
.LBB5_8:
.Ltmp90:
	.loc	1 270 28 is_stmt 1              @ rt-thread/components/dfs/src/dfs_file.c:270:28
	ldr	r0, [sp, #12]
	.loc	1 270 32 is_stmt 0              @ rt-thread/components/dfs/src/dfs_file.c:270:32
	ldr	r0, [r0, #4]
	.loc	1 270 38                        @ rt-thread/components/dfs/src/dfs_file.c:270:38
	ldr	r1, [sp, #16]
	.loc	1 270 17                        @ rt-thread/components/dfs/src/dfs_file.c:270:17
	bl	dfs_subdir
.Ltmp91:
	.loc	1 270 17                        @ rt-thread/components/dfs/src/dfs_file.c:270:17
	cbnz	r0, .LBB5_10
	b	.LBB5_9
.LBB5_9:
.Ltmp92:
	.loc	1 271 26 is_stmt 1              @ rt-thread/components/dfs/src/dfs_file.c:271:26
	ldr	r0, [sp, #12]
	.loc	1 271 30 is_stmt 0              @ rt-thread/components/dfs/src/dfs_file.c:271:30
	ldr	r1, [r0, #8]
	.loc	1 271 35                        @ rt-thread/components/dfs/src/dfs_file.c:271:35
	ldr	r2, [r1, #28]
	.loc	1 271 26                        @ rt-thread/components/dfs/src/dfs_file.c:271:26
	movw	r1, :lower16:.L.str
	movt	r1, :upper16:.L.str
	blx	r2
	.loc	1 271 24                        @ rt-thread/components/dfs/src/dfs_file.c:271:24
	str	r0, [sp, #20]
	.loc	1 271 17                        @ rt-thread/components/dfs/src/dfs_file.c:271:17
	b	.LBB5_11
.LBB5_10:
	.loc	1 273 26 is_stmt 1              @ rt-thread/components/dfs/src/dfs_file.c:273:26
	ldr	r1, [sp, #12]
	.loc	1 273 61 is_stmt 0              @ rt-thread/components/dfs/src/dfs_file.c:273:61
	str	r1, [sp, #8]                    @ 4-byte Spill
	ldr	r0, [r1, #4]
	.loc	1 273 30                        @ rt-thread/components/dfs/src/dfs_file.c:273:30
	ldr	r1, [r1, #8]
	.loc	1 273 35                        @ rt-thread/components/dfs/src/dfs_file.c:273:35
	ldr	r1, [r1, #28]
	.loc	1 273 67                        @ rt-thread/components/dfs/src/dfs_file.c:273:67
	str	r1, [sp, #4]                    @ 4-byte Spill
	ldr	r1, [sp, #16]
	.loc	1 273 46                        @ rt-thread/components/dfs/src/dfs_file.c:273:46
	bl	dfs_subdir
	ldr	r2, [sp, #4]                    @ 4-byte Reload
	mov	r1, r0
	.loc	1 273 26                        @ rt-thread/components/dfs/src/dfs_file.c:273:26
	ldr	r0, [sp, #8]                    @ 4-byte Reload
	blx	r2
	.loc	1 273 24                        @ rt-thread/components/dfs/src/dfs_file.c:273:24
	str	r0, [sp, #20]
	b	.LBB5_11
.Ltmp93:
.LBB5_11:
	.loc	1 274 9 is_stmt 1               @ rt-thread/components/dfs/src/dfs_file.c:274:9
	b	.LBB5_13
.Ltmp94:
.LBB5_12:
	.loc	1 276 22                        @ rt-thread/components/dfs/src/dfs_file.c:276:22
	ldr	r0, [sp, #12]
	.loc	1 276 26 is_stmt 0              @ rt-thread/components/dfs/src/dfs_file.c:276:26
	ldr	r1, [r0, #8]
	.loc	1 276 31                        @ rt-thread/components/dfs/src/dfs_file.c:276:31
	ldr	r2, [r1, #28]
	.loc	1 276 42                        @ rt-thread/components/dfs/src/dfs_file.c:276:42
	ldr	r1, [sp, #16]
	.loc	1 276 22                        @ rt-thread/components/dfs/src/dfs_file.c:276:22
	blx	r2
	.loc	1 276 20                        @ rt-thread/components/dfs/src/dfs_file.c:276:20
	str	r0, [sp, #20]
	b	.LBB5_13
.Ltmp95:
.LBB5_13:
	.loc	1 277 5 is_stmt 1               @ rt-thread/components/dfs/src/dfs_file.c:277:5
	b	.LBB5_15
.Ltmp96:
.LBB5_14:
	.loc	1 0 5 is_stmt 0                 @ rt-thread/components/dfs/src/dfs_file.c:0:5
	mvn	r0, #37
	.loc	1 278 17 is_stmt 1              @ rt-thread/components/dfs/src/dfs_file.c:278:17
	str	r0, [sp, #20]
	b	.LBB5_15
.LBB5_15:
	.loc	1 266 28                        @ rt-thread/components/dfs/src/dfs_file.c:266:28
	b	.LBB5_16
.Ltmp97:
.LBB5_16:
	@DEBUG_LABEL: dfs_file_unlink:__exit
	.loc	1 281 13                        @ rt-thread/components/dfs/src/dfs_file.c:281:13
	ldr	r0, [sp, #16]
	.loc	1 281 5 is_stmt 0               @ rt-thread/components/dfs/src/dfs_file.c:281:5
	bl	rt_free
	.loc	1 282 12 is_stmt 1              @ rt-thread/components/dfs/src/dfs_file.c:282:12
	ldr	r0, [sp, #20]
	.loc	1 282 5 is_stmt 0               @ rt-thread/components/dfs/src/dfs_file.c:282:5
	str	r0, [sp, #28]
	b	.LBB5_17
.LBB5_17:
	.loc	1 283 1 is_stmt 1               @ rt-thread/components/dfs/src/dfs_file.c:283:1
	ldr	r0, [sp, #28]
	add	sp, #32
	pop	{r7, pc}
.Ltmp98:
.Lfunc_end5:
	.size	dfs_file_unlink, .Lfunc_end5-dfs_file_unlink
	.cfi_endproc
	.cantunwind
	.fnend
                                        @ -- End function
	.section	.text.dfs_file_write,"ax",%progbits
	.hidden	dfs_file_write                  @ -- Begin function dfs_file_write
	.globl	dfs_file_write
	.p2align	3
	.type	dfs_file_write,%function
	.code	16                              @ @dfs_file_write
	.thumb_func
dfs_file_write:
.Lfunc_begin6:
	.loc	1 295 0                         @ rt-thread/components/dfs/src/dfs_file.c:295:0
	.fnstart
	.cfi_startproc
@ %bb.0:
	.save	{r7, lr}
	push	{r7, lr}
	.cfi_def_cfa_offset 8
	.cfi_offset lr, -4
	.cfi_offset r7, -8
	.pad	#16
	sub	sp, #16
	.cfi_def_cfa_offset 24
	str	r0, [sp, #8]
	str	r1, [sp, #4]
	str	r2, [sp]
.Ltmp99:
	.loc	1 296 9 prologue_end            @ rt-thread/components/dfs/src/dfs_file.c:296:9
	ldr	r0, [sp, #8]
.Ltmp100:
	.loc	1 296 9 is_stmt 0               @ rt-thread/components/dfs/src/dfs_file.c:296:9
	cbnz	r0, .LBB6_2
	b	.LBB6_1
.LBB6_1:
	.loc	1 0 9                           @ rt-thread/components/dfs/src/dfs_file.c:0:9
	mvn	r0, #21
.Ltmp101:
	.loc	1 297 9 is_stmt 1               @ rt-thread/components/dfs/src/dfs_file.c:297:9
	str	r0, [sp, #12]
	b	.LBB6_5
.Ltmp102:
.LBB6_2:
	.loc	1 299 9                         @ rt-thread/components/dfs/src/dfs_file.c:299:9
	ldr	r0, [sp, #8]
	.loc	1 299 13 is_stmt 0              @ rt-thread/components/dfs/src/dfs_file.c:299:13
	ldr	r0, [r0, #16]
	.loc	1 299 19                        @ rt-thread/components/dfs/src/dfs_file.c:299:19
	ldr	r0, [r0, #16]
.Ltmp103:
	.loc	1 299 9                         @ rt-thread/components/dfs/src/dfs_file.c:299:9
	cbnz	r0, .LBB6_4
	b	.LBB6_3
.LBB6_3:
	.loc	1 0 9                           @ rt-thread/components/dfs/src/dfs_file.c:0:9
	mvn	r0, #37
.Ltmp104:
	.loc	1 300 9 is_stmt 1               @ rt-thread/components/dfs/src/dfs_file.c:300:9
	str	r0, [sp, #12]
	b	.LBB6_5
.Ltmp105:
.LBB6_4:
	.loc	1 302 12                        @ rt-thread/components/dfs/src/dfs_file.c:302:12
	ldr	r0, [sp, #8]
	.loc	1 302 16 is_stmt 0              @ rt-thread/components/dfs/src/dfs_file.c:302:16
	ldr	r1, [r0, #16]
	.loc	1 302 22                        @ rt-thread/components/dfs/src/dfs_file.c:302:22
	ldr	r3, [r1, #16]
	.loc	1 302 32                        @ rt-thread/components/dfs/src/dfs_file.c:302:32
	ldr	r1, [sp, #4]
	.loc	1 302 37                        @ rt-thread/components/dfs/src/dfs_file.c:302:37
	ldr	r2, [sp]
	.loc	1 302 12                        @ rt-thread/components/dfs/src/dfs_file.c:302:12
	blx	r3
	.loc	1 302 5                         @ rt-thread/components/dfs/src/dfs_file.c:302:5
	str	r0, [sp, #12]
	b	.LBB6_5
.LBB6_5:
	.loc	1 303 1 is_stmt 1               @ rt-thread/components/dfs/src/dfs_file.c:303:1
	ldr	r0, [sp, #12]
	add	sp, #16
	pop	{r7, pc}
.Ltmp106:
.Lfunc_end6:
	.size	dfs_file_write, .Lfunc_end6-dfs_file_write
	.cfi_endproc
	.cantunwind
	.fnend
                                        @ -- End function
	.section	.text.dfs_file_flush,"ax",%progbits
	.hidden	dfs_file_flush                  @ -- Begin function dfs_file_flush
	.globl	dfs_file_flush
	.p2align	3
	.type	dfs_file_flush,%function
	.code	16                              @ @dfs_file_flush
	.thumb_func
dfs_file_flush:
.Lfunc_begin7:
	.loc	1 313 0                         @ rt-thread/components/dfs/src/dfs_file.c:313:0
	.fnstart
	.cfi_startproc
@ %bb.0:
	.save	{r7, lr}
	push	{r7, lr}
	.cfi_def_cfa_offset 8
	.cfi_offset lr, -4
	.cfi_offset r7, -8
	.pad	#8
	sub	sp, #8
	.cfi_def_cfa_offset 16
	str	r0, [sp]
.Ltmp107:
	.loc	1 314 9 prologue_end            @ rt-thread/components/dfs/src/dfs_file.c:314:9
	ldr	r0, [sp]
.Ltmp108:
	.loc	1 314 9 is_stmt 0               @ rt-thread/components/dfs/src/dfs_file.c:314:9
	cbnz	r0, .LBB7_2
	b	.LBB7_1
.LBB7_1:
	.loc	1 0 9                           @ rt-thread/components/dfs/src/dfs_file.c:0:9
	mvn	r0, #21
.Ltmp109:
	.loc	1 315 9 is_stmt 1               @ rt-thread/components/dfs/src/dfs_file.c:315:9
	str	r0, [sp, #4]
	b	.LBB7_5
.Ltmp110:
.LBB7_2:
	.loc	1 317 9                         @ rt-thread/components/dfs/src/dfs_file.c:317:9
	ldr	r0, [sp]
	.loc	1 317 13 is_stmt 0              @ rt-thread/components/dfs/src/dfs_file.c:317:13
	ldr	r0, [r0, #16]
	.loc	1 317 19                        @ rt-thread/components/dfs/src/dfs_file.c:317:19
	ldr	r0, [r0, #20]
.Ltmp111:
	.loc	1 317 9                         @ rt-thread/components/dfs/src/dfs_file.c:317:9
	cbnz	r0, .LBB7_4
	b	.LBB7_3
.LBB7_3:
	.loc	1 0 9                           @ rt-thread/components/dfs/src/dfs_file.c:0:9
	mvn	r0, #37
.Ltmp112:
	.loc	1 318 9 is_stmt 1               @ rt-thread/components/dfs/src/dfs_file.c:318:9
	str	r0, [sp, #4]
	b	.LBB7_5
.Ltmp113:
.LBB7_4:
	.loc	1 320 12                        @ rt-thread/components/dfs/src/dfs_file.c:320:12
	ldr	r0, [sp]
	.loc	1 320 16 is_stmt 0              @ rt-thread/components/dfs/src/dfs_file.c:320:16
	ldr	r1, [r0, #16]
	.loc	1 320 22                        @ rt-thread/components/dfs/src/dfs_file.c:320:22
	ldr	r1, [r1, #20]
	.loc	1 320 12                        @ rt-thread/components/dfs/src/dfs_file.c:320:12
	blx	r1
	.loc	1 320 5                         @ rt-thread/components/dfs/src/dfs_file.c:320:5
	str	r0, [sp, #4]
	b	.LBB7_5
.LBB7_5:
	.loc	1 321 1 is_stmt 1               @ rt-thread/components/dfs/src/dfs_file.c:321:1
	ldr	r0, [sp, #4]
	add	sp, #8
	pop	{r7, pc}
.Ltmp114:
.Lfunc_end7:
	.size	dfs_file_flush, .Lfunc_end7-dfs_file_flush
	.cfi_endproc
	.cantunwind
	.fnend
                                        @ -- End function
	.section	.text.dfs_file_lseek,"ax",%progbits
	.hidden	dfs_file_lseek                  @ -- Begin function dfs_file_lseek
	.globl	dfs_file_lseek
	.p2align	3
	.type	dfs_file_lseek,%function
	.code	16                              @ @dfs_file_lseek
	.thumb_func
dfs_file_lseek:
.Lfunc_begin8:
	.loc	1 332 0                         @ rt-thread/components/dfs/src/dfs_file.c:332:0
	.fnstart
	.cfi_startproc
@ %bb.0:
	.save	{r7, lr}
	push	{r7, lr}
	.cfi_def_cfa_offset 8
	.cfi_offset lr, -4
	.cfi_offset r7, -8
	.pad	#16
	sub	sp, #16
	.cfi_def_cfa_offset 24
	str	r0, [sp, #8]
	str	r1, [sp, #4]
.Ltmp115:
	.loc	1 335 9 prologue_end            @ rt-thread/components/dfs/src/dfs_file.c:335:9
	ldr	r0, [sp, #8]
.Ltmp116:
	.loc	1 335 9 is_stmt 0               @ rt-thread/components/dfs/src/dfs_file.c:335:9
	cbnz	r0, .LBB8_2
	b	.LBB8_1
.LBB8_1:
	.loc	1 0 9                           @ rt-thread/components/dfs/src/dfs_file.c:0:9
	mvn	r0, #21
.Ltmp117:
	.loc	1 336 9 is_stmt 1               @ rt-thread/components/dfs/src/dfs_file.c:336:9
	str	r0, [sp, #12]
	b	.LBB8_7
.Ltmp118:
.LBB8_2:
	.loc	1 338 9                         @ rt-thread/components/dfs/src/dfs_file.c:338:9
	ldr	r0, [sp, #8]
	.loc	1 338 13 is_stmt 0              @ rt-thread/components/dfs/src/dfs_file.c:338:13
	ldr	r0, [r0, #16]
	.loc	1 338 19                        @ rt-thread/components/dfs/src/dfs_file.c:338:19
	ldr	r0, [r0, #24]
.Ltmp119:
	.loc	1 338 9                         @ rt-thread/components/dfs/src/dfs_file.c:338:9
	cbnz	r0, .LBB8_4
	b	.LBB8_3
.LBB8_3:
	.loc	1 0 9                           @ rt-thread/components/dfs/src/dfs_file.c:0:9
	mvn	r0, #37
.Ltmp120:
	.loc	1 339 9 is_stmt 1               @ rt-thread/components/dfs/src/dfs_file.c:339:9
	str	r0, [sp, #12]
	b	.LBB8_7
.Ltmp121:
.LBB8_4:
	.loc	1 341 14                        @ rt-thread/components/dfs/src/dfs_file.c:341:14
	ldr	r0, [sp, #8]
	.loc	1 341 18 is_stmt 0              @ rt-thread/components/dfs/src/dfs_file.c:341:18
	ldr	r1, [r0, #16]
	.loc	1 341 24                        @ rt-thread/components/dfs/src/dfs_file.c:341:24
	ldr	r2, [r1, #24]
	.loc	1 341 34                        @ rt-thread/components/dfs/src/dfs_file.c:341:34
	ldr	r1, [sp, #4]
	.loc	1 341 14                        @ rt-thread/components/dfs/src/dfs_file.c:341:14
	blx	r2
	.loc	1 341 12                        @ rt-thread/components/dfs/src/dfs_file.c:341:12
	str	r0, [sp]
.Ltmp122:
	.loc	1 344 9 is_stmt 1               @ rt-thread/components/dfs/src/dfs_file.c:344:9
	ldr	r0, [sp]
.Ltmp123:
	.loc	1 344 9 is_stmt 0               @ rt-thread/components/dfs/src/dfs_file.c:344:9
	cmp	r0, #0
	bmi	.LBB8_6
	b	.LBB8_5
.LBB8_5:
.Ltmp124:
	.loc	1 345 19 is_stmt 1              @ rt-thread/components/dfs/src/dfs_file.c:345:19
	ldr	r0, [sp]
	.loc	1 345 9 is_stmt 0               @ rt-thread/components/dfs/src/dfs_file.c:345:9
	ldr	r1, [sp, #8]
	.loc	1 345 17                        @ rt-thread/components/dfs/src/dfs_file.c:345:17
	str	r0, [r1, #28]
	.loc	1 345 9                         @ rt-thread/components/dfs/src/dfs_file.c:345:9
	b	.LBB8_6
.Ltmp125:
.LBB8_6:
	.loc	1 347 12 is_stmt 1              @ rt-thread/components/dfs/src/dfs_file.c:347:12
	ldr	r0, [sp]
	.loc	1 347 5 is_stmt 0               @ rt-thread/components/dfs/src/dfs_file.c:347:5
	str	r0, [sp, #12]
	b	.LBB8_7
.LBB8_7:
	.loc	1 348 1 is_stmt 1               @ rt-thread/components/dfs/src/dfs_file.c:348:1
	ldr	r0, [sp, #12]
	add	sp, #16
	pop	{r7, pc}
.Ltmp126:
.Lfunc_end8:
	.size	dfs_file_lseek, .Lfunc_end8-dfs_file_lseek
	.cfi_endproc
	.cantunwind
	.fnend
                                        @ -- End function
	.section	.text.dfs_file_stat,"ax",%progbits
	.hidden	dfs_file_stat                   @ -- Begin function dfs_file_stat
	.globl	dfs_file_stat
	.p2align	3
	.type	dfs_file_stat,%function
	.code	16                              @ @dfs_file_stat
	.thumb_func
dfs_file_stat:
.Lfunc_begin9:
	.loc	1 359 0                         @ rt-thread/components/dfs/src/dfs_file.c:359:0
	.fnstart
	.cfi_startproc
@ %bb.0:
	.save	{r7, lr}
	push	{r7, lr}
	.cfi_def_cfa_offset 8
	.cfi_offset lr, -4
	.cfi_offset r7, -8
	.pad	#40
	sub	sp, #40
	.cfi_def_cfa_offset 48
	str	r0, [sp, #32]
	str	r1, [sp, #28]
.Ltmp127:
	.loc	1 364 41 prologue_end           @ rt-thread/components/dfs/src/dfs_file.c:364:41
	ldr	r1, [sp, #32]
	movs	r0, #0
	.loc	1 364 16 is_stmt 0              @ rt-thread/components/dfs/src/dfs_file.c:364:16
	bl	dfs_normalize_path
	.loc	1 364 14                        @ rt-thread/components/dfs/src/dfs_file.c:364:14
	str	r0, [sp, #20]
.Ltmp128:
	.loc	1 365 9 is_stmt 1               @ rt-thread/components/dfs/src/dfs_file.c:365:9
	ldr	r0, [sp, #20]
.Ltmp129:
	.loc	1 365 9 is_stmt 0               @ rt-thread/components/dfs/src/dfs_file.c:365:9
	cbnz	r0, .LBB9_2
	b	.LBB9_1
.LBB9_1:
	.loc	1 0 9                           @ rt-thread/components/dfs/src/dfs_file.c:0:9
	mov.w	r0, #-1
.Ltmp130:
	.loc	1 367 9 is_stmt 1               @ rt-thread/components/dfs/src/dfs_file.c:367:9
	str	r0, [sp, #36]
	b	.LBB9_19
.Ltmp131:
.LBB9_2:
	.loc	1 370 37                        @ rt-thread/components/dfs/src/dfs_file.c:370:37
	ldr	r0, [sp, #20]
	.loc	1 370 15 is_stmt 0              @ rt-thread/components/dfs/src/dfs_file.c:370:15
	bl	dfs_filesystem_lookup
	.loc	1 370 13                        @ rt-thread/components/dfs/src/dfs_file.c:370:13
	str	r0, [sp, #16]
.Ltmp132:
	.loc	1 370 9                         @ rt-thread/components/dfs/src/dfs_file.c:370:9
	cbnz	r0, .LBB9_6
	b	.LBB9_3
.LBB9_3:
.Ltmp133:
	.loc	1 372 9 is_stmt 1               @ rt-thread/components/dfs/src/dfs_file.c:372:9
	b	.LBB9_4
.LBB9_4:
.Ltmp134:
	.loc	1 372 9 is_stmt 0               @ rt-thread/components/dfs/src/dfs_file.c:372:9
	movw	r0, :lower16:.L.str.1
	movt	r0, :upper16:.L.str.1
	bl	rt_kprintf
	ldr	r1, [sp, #20]
	movw	r0, :lower16:.L.str.2
	movt	r0, :upper16:.L.str.2
	bl	rt_kprintf
	movw	r0, :lower16:.L.str.3
	movt	r0, :upper16:.L.str.3
	bl	rt_kprintf
	b	.LBB9_5
.Ltmp135:
.LBB9_5:
	.loc	1 373 17 is_stmt 1              @ rt-thread/components/dfs/src/dfs_file.c:373:17
	ldr	r0, [sp, #20]
	.loc	1 373 9 is_stmt 0               @ rt-thread/components/dfs/src/dfs_file.c:373:9
	bl	rt_free
	mvn	r0, #1
	.loc	1 375 9 is_stmt 1               @ rt-thread/components/dfs/src/dfs_file.c:375:9
	str	r0, [sp, #36]
	b	.LBB9_19
.Ltmp136:
.LBB9_6:
	.loc	1 378 10                        @ rt-thread/components/dfs/src/dfs_file.c:378:10
	ldr	r0, [sp, #20]
	ldrsb.w	r0, [r0]
	.loc	1 378 29 is_stmt 0              @ rt-thread/components/dfs/src/dfs_file.c:378:29
	cmp	r0, #47
	bne	.LBB9_8
	b	.LBB9_7
.LBB9_7:
	.loc	1 378 32                        @ rt-thread/components/dfs/src/dfs_file.c:378:32
	ldr	r0, [sp, #20]
	ldrsb.w	r0, [r0, #1]
	.loc	1 378 53                        @ rt-thread/components/dfs/src/dfs_file.c:378:53
	cbz	r0, .LBB9_9
	b	.LBB9_8
.LBB9_8:
	.loc	1 379 21 is_stmt 1              @ rt-thread/components/dfs/src/dfs_file.c:379:21
	ldr	r0, [sp, #16]
	.loc	1 379 25 is_stmt 0              @ rt-thread/components/dfs/src/dfs_file.c:379:25
	ldr	r0, [r0, #4]
	.loc	1 379 31                        @ rt-thread/components/dfs/src/dfs_file.c:379:31
	ldr	r1, [sp, #20]
	.loc	1 379 10                        @ rt-thread/components/dfs/src/dfs_file.c:379:10
	bl	dfs_subdir
.Ltmp137:
	.loc	1 378 9 is_stmt 1               @ rt-thread/components/dfs/src/dfs_file.c:378:9
	cbnz	r0, .LBB9_10
	b	.LBB9_9
.LBB9_9:
.Ltmp138:
	.loc	1 382 9                         @ rt-thread/components/dfs/src/dfs_file.c:382:9
	ldr	r1, [sp, #28]
	movs	r0, #0
	.loc	1 382 23 is_stmt 0              @ rt-thread/components/dfs/src/dfs_file.c:382:23
	str	r0, [sp, #12]                   @ 4-byte Spill
	str	r0, [r1]
	.loc	1 384 9 is_stmt 1               @ rt-thread/components/dfs/src/dfs_file.c:384:9
	ldr	r2, [sp, #28]
	mov.w	r1, #438
	.loc	1 384 23 is_stmt 0              @ rt-thread/components/dfs/src/dfs_file.c:384:23
	strh	r1, [r2, #6]
	.loc	1 386 9 is_stmt 1               @ rt-thread/components/dfs/src/dfs_file.c:386:9
	ldr	r2, [sp, #28]
	.loc	1 386 22 is_stmt 0              @ rt-thread/components/dfs/src/dfs_file.c:386:22
	ldrh	r1, [r2, #6]
	movw	r3, #16457
	orrs	r1, r3
	strh	r1, [r2, #6]
	.loc	1 388 9 is_stmt 1               @ rt-thread/components/dfs/src/dfs_file.c:388:9
	ldr	r1, [sp, #28]
	.loc	1 388 25 is_stmt 0              @ rt-thread/components/dfs/src/dfs_file.c:388:25
	str	r0, [r1, #20]
	.loc	1 389 9 is_stmt 1               @ rt-thread/components/dfs/src/dfs_file.c:389:9
	ldr	r1, [sp, #28]
	.loc	1 389 25 is_stmt 0              @ rt-thread/components/dfs/src/dfs_file.c:389:25
	str	r0, [r1, #32]
	.loc	1 392 17 is_stmt 1              @ rt-thread/components/dfs/src/dfs_file.c:392:17
	ldr	r0, [sp, #20]
	.loc	1 392 9 is_stmt 0               @ rt-thread/components/dfs/src/dfs_file.c:392:9
	bl	rt_free
	ldr	r0, [sp, #12]                   @ 4-byte Reload
	.loc	1 394 9 is_stmt 1               @ rt-thread/components/dfs/src/dfs_file.c:394:9
	str	r0, [sp, #36]
	b	.LBB9_19
.Ltmp139:
.LBB9_10:
	.loc	1 398 13                        @ rt-thread/components/dfs/src/dfs_file.c:398:13
	ldr	r0, [sp, #16]
	.loc	1 398 17 is_stmt 0              @ rt-thread/components/dfs/src/dfs_file.c:398:17
	ldr	r0, [r0, #8]
	.loc	1 398 22                        @ rt-thread/components/dfs/src/dfs_file.c:398:22
	ldr	r0, [r0, #32]
.Ltmp140:
	.loc	1 398 13                        @ rt-thread/components/dfs/src/dfs_file.c:398:13
	cbnz	r0, .LBB9_14
	b	.LBB9_11
.LBB9_11:
.Ltmp141:
	.loc	1 400 21 is_stmt 1              @ rt-thread/components/dfs/src/dfs_file.c:400:21
	ldr	r0, [sp, #20]
	.loc	1 400 13 is_stmt 0              @ rt-thread/components/dfs/src/dfs_file.c:400:13
	bl	rt_free
	.loc	1 401 13 is_stmt 1              @ rt-thread/components/dfs/src/dfs_file.c:401:13
	b	.LBB9_12
.LBB9_12:
.Ltmp142:
	.loc	1 401 13 is_stmt 0              @ rt-thread/components/dfs/src/dfs_file.c:401:13
	movw	r0, :lower16:.L.str.1
	movt	r0, :upper16:.L.str.1
	bl	rt_kprintf
	movw	r0, :lower16:.L.str.4
	movt	r0, :upper16:.L.str.4
	bl	rt_kprintf
	movw	r0, :lower16:.L.str.3
	movt	r0, :upper16:.L.str.3
	bl	rt_kprintf
	b	.LBB9_13
.Ltmp143:
.LBB9_13:
	.loc	1 0 13                          @ rt-thread/components/dfs/src/dfs_file.c:0:13
	mvn	r0, #37
	.loc	1 403 13 is_stmt 1              @ rt-thread/components/dfs/src/dfs_file.c:403:13
	str	r0, [sp, #36]
	b	.LBB9_19
.Ltmp144:
.LBB9_14:
	.loc	1 407 13                        @ rt-thread/components/dfs/src/dfs_file.c:407:13
	ldr	r0, [sp, #16]
	.loc	1 407 17 is_stmt 0              @ rt-thread/components/dfs/src/dfs_file.c:407:17
	ldr	r0, [r0, #8]
.Ltmp145:
	.loc	1 407 13                        @ rt-thread/components/dfs/src/dfs_file.c:407:13
	ldrb	r0, [r0, #4]
	lsls	r0, r0, #31
	cbz	r0, .LBB9_16
	b	.LBB9_15
.LBB9_15:
.Ltmp146:
	.loc	1 408 22 is_stmt 1              @ rt-thread/components/dfs/src/dfs_file.c:408:22
	ldr	r0, [sp, #16]
	.loc	1 408 26 is_stmt 0              @ rt-thread/components/dfs/src/dfs_file.c:408:26
	ldr	r1, [r0, #8]
	.loc	1 408 31                        @ rt-thread/components/dfs/src/dfs_file.c:408:31
	ldr	r3, [r1, #32]
	.loc	1 408 40                        @ rt-thread/components/dfs/src/dfs_file.c:408:40
	ldr	r1, [sp, #20]
	.loc	1 408 50                        @ rt-thread/components/dfs/src/dfs_file.c:408:50
	ldr	r2, [sp, #28]
	.loc	1 408 22                        @ rt-thread/components/dfs/src/dfs_file.c:408:22
	blx	r3
	.loc	1 408 20                        @ rt-thread/components/dfs/src/dfs_file.c:408:20
	str	r0, [sp, #24]
	.loc	1 408 13                        @ rt-thread/components/dfs/src/dfs_file.c:408:13
	b	.LBB9_17
.LBB9_16:
	.loc	1 410 22 is_stmt 1              @ rt-thread/components/dfs/src/dfs_file.c:410:22
	ldr	r1, [sp, #16]
	.loc	1 410 55 is_stmt 0              @ rt-thread/components/dfs/src/dfs_file.c:410:55
	str	r1, [sp, #8]                    @ 4-byte Spill
	ldr	r0, [r1, #4]
	.loc	1 410 26                        @ rt-thread/components/dfs/src/dfs_file.c:410:26
	ldr	r1, [r1, #8]
	.loc	1 410 31                        @ rt-thread/components/dfs/src/dfs_file.c:410:31
	ldr	r1, [r1, #32]
	.loc	1 410 61                        @ rt-thread/components/dfs/src/dfs_file.c:410:61
	str	r1, [sp, #4]                    @ 4-byte Spill
	ldr	r1, [sp, #20]
	.loc	1 410 40                        @ rt-thread/components/dfs/src/dfs_file.c:410:40
	bl	dfs_subdir
	ldr	r3, [sp, #4]                    @ 4-byte Reload
	mov	r1, r0
	.loc	1 410 72                        @ rt-thread/components/dfs/src/dfs_file.c:410:72
	ldr	r0, [sp, #8]                    @ 4-byte Reload
	ldr	r2, [sp, #28]
	.loc	1 410 22                        @ rt-thread/components/dfs/src/dfs_file.c:410:22
	blx	r3
	.loc	1 410 20                        @ rt-thread/components/dfs/src/dfs_file.c:410:20
	str	r0, [sp, #24]
	b	.LBB9_17
.Ltmp147:
.LBB9_17:
	.loc	1 0 20                          @ rt-thread/components/dfs/src/dfs_file.c:0:20
	b	.LBB9_18
.LBB9_18:
	.loc	1 413 13 is_stmt 1              @ rt-thread/components/dfs/src/dfs_file.c:413:13
	ldr	r0, [sp, #20]
	.loc	1 413 5 is_stmt 0               @ rt-thread/components/dfs/src/dfs_file.c:413:5
	bl	rt_free
	.loc	1 415 12 is_stmt 1              @ rt-thread/components/dfs/src/dfs_file.c:415:12
	ldr	r0, [sp, #24]
	.loc	1 415 5 is_stmt 0               @ rt-thread/components/dfs/src/dfs_file.c:415:5
	str	r0, [sp, #36]
	b	.LBB9_19
.LBB9_19:
	.loc	1 416 1 is_stmt 1               @ rt-thread/components/dfs/src/dfs_file.c:416:1
	ldr	r0, [sp, #36]
	add	sp, #40
	pop	{r7, pc}
.Ltmp148:
.Lfunc_end9:
	.size	dfs_file_stat, .Lfunc_end9-dfs_file_stat
	.cfi_endproc
	.cantunwind
	.fnend
                                        @ -- End function
	.section	.text.dfs_file_rename,"ax",%progbits
	.hidden	dfs_file_rename                 @ -- Begin function dfs_file_rename
	.globl	dfs_file_rename
	.p2align	3
	.type	dfs_file_rename,%function
	.code	16                              @ @dfs_file_rename
	.thumb_func
dfs_file_rename:
.Lfunc_begin10:
	.loc	1 427 0                         @ rt-thread/components/dfs/src/dfs_file.c:427:0
	.fnstart
	.cfi_startproc
@ %bb.0:
	.save	{r7, lr}
	push	{r7, lr}
	.cfi_def_cfa_offset 8
	.cfi_offset lr, -4
	.cfi_offset r7, -8
	.pad	#40
	sub	sp, #40
	.cfi_def_cfa_offset 48
	str	r0, [sp, #36]
	str	r1, [sp, #32]
	movs	r0, #0
.Ltmp149:
	.loc	1 432 12 prologue_end           @ rt-thread/components/dfs/src/dfs_file.c:432:12
	str	r0, [sp, #28]
	.loc	1 433 17                        @ rt-thread/components/dfs/src/dfs_file.c:433:17
	str	r0, [sp, #12]
	.loc	1 434 17                        @ rt-thread/components/dfs/src/dfs_file.c:434:17
	str	r0, [sp, #16]
	.loc	1 436 44                        @ rt-thread/components/dfs/src/dfs_file.c:436:44
	ldr	r1, [sp, #36]
	.loc	1 436 19 is_stmt 0              @ rt-thread/components/dfs/src/dfs_file.c:436:19
	bl	dfs_normalize_path
	.loc	1 436 17                        @ rt-thread/components/dfs/src/dfs_file.c:436:17
	str	r0, [sp, #16]
.Ltmp150:
	.loc	1 437 9 is_stmt 1               @ rt-thread/components/dfs/src/dfs_file.c:437:9
	ldr	r0, [sp, #16]
.Ltmp151:
	.loc	1 437 9 is_stmt 0               @ rt-thread/components/dfs/src/dfs_file.c:437:9
	cbnz	r0, .LBB10_2
	b	.LBB10_1
.LBB10_1:
	.loc	1 0 9                           @ rt-thread/components/dfs/src/dfs_file.c:0:9
	mvn	r0, #1
.Ltmp152:
	.loc	1 439 16 is_stmt 1              @ rt-thread/components/dfs/src/dfs_file.c:439:16
	str	r0, [sp, #28]
	.loc	1 440 9                         @ rt-thread/components/dfs/src/dfs_file.c:440:9
	b	.LBB10_14
.Ltmp153:
.LBB10_2:
	.loc	1 443 44                        @ rt-thread/components/dfs/src/dfs_file.c:443:44
	ldr	r1, [sp, #32]
	movs	r0, #0
	.loc	1 443 19 is_stmt 0              @ rt-thread/components/dfs/src/dfs_file.c:443:19
	bl	dfs_normalize_path
	.loc	1 443 17                        @ rt-thread/components/dfs/src/dfs_file.c:443:17
	str	r0, [sp, #12]
.Ltmp154:
	.loc	1 444 9 is_stmt 1               @ rt-thread/components/dfs/src/dfs_file.c:444:9
	ldr	r0, [sp, #12]
.Ltmp155:
	.loc	1 444 9 is_stmt 0               @ rt-thread/components/dfs/src/dfs_file.c:444:9
	cbnz	r0, .LBB10_4
	b	.LBB10_3
.LBB10_3:
	.loc	1 0 9                           @ rt-thread/components/dfs/src/dfs_file.c:0:9
	mvn	r0, #1
.Ltmp156:
	.loc	1 446 16 is_stmt 1              @ rt-thread/components/dfs/src/dfs_file.c:446:16
	str	r0, [sp, #28]
	.loc	1 447 9                         @ rt-thread/components/dfs/src/dfs_file.c:447:9
	b	.LBB10_14
.Ltmp157:
.LBB10_4:
	.loc	1 450 35                        @ rt-thread/components/dfs/src/dfs_file.c:450:35
	ldr	r0, [sp, #16]
	.loc	1 450 13 is_stmt 0              @ rt-thread/components/dfs/src/dfs_file.c:450:13
	bl	dfs_filesystem_lookup
	.loc	1 450 11                        @ rt-thread/components/dfs/src/dfs_file.c:450:11
	str	r0, [sp, #24]
	.loc	1 451 35 is_stmt 1              @ rt-thread/components/dfs/src/dfs_file.c:451:35
	ldr	r0, [sp, #12]
	.loc	1 451 13 is_stmt 0              @ rt-thread/components/dfs/src/dfs_file.c:451:13
	bl	dfs_filesystem_lookup
	.loc	1 451 11                        @ rt-thread/components/dfs/src/dfs_file.c:451:11
	str	r0, [sp, #20]
.Ltmp158:
	.loc	1 453 9 is_stmt 1               @ rt-thread/components/dfs/src/dfs_file.c:453:9
	ldr	r0, [sp, #24]
	.loc	1 453 18 is_stmt 0              @ rt-thread/components/dfs/src/dfs_file.c:453:18
	ldr	r1, [sp, #20]
.Ltmp159:
	.loc	1 453 9                         @ rt-thread/components/dfs/src/dfs_file.c:453:9
	cmp	r0, r1
	bne	.LBB10_12
	b	.LBB10_5
.LBB10_5:
.Ltmp160:
	.loc	1 455 13 is_stmt 1              @ rt-thread/components/dfs/src/dfs_file.c:455:13
	ldr	r0, [sp, #24]
	.loc	1 455 20 is_stmt 0              @ rt-thread/components/dfs/src/dfs_file.c:455:20
	ldr	r0, [r0, #8]
	.loc	1 455 25                        @ rt-thread/components/dfs/src/dfs_file.c:455:25
	ldr	r0, [r0, #36]
.Ltmp161:
	.loc	1 455 13                        @ rt-thread/components/dfs/src/dfs_file.c:455:13
	cbnz	r0, .LBB10_7
	b	.LBB10_6
.LBB10_6:
	.loc	1 0 13                          @ rt-thread/components/dfs/src/dfs_file.c:0:13
	mvn	r0, #37
.Ltmp162:
	.loc	1 457 20 is_stmt 1              @ rt-thread/components/dfs/src/dfs_file.c:457:20
	str	r0, [sp, #28]
	.loc	1 458 9                         @ rt-thread/components/dfs/src/dfs_file.c:458:9
	b	.LBB10_11
.Ltmp163:
.LBB10_7:
	.loc	1 461 17                        @ rt-thread/components/dfs/src/dfs_file.c:461:17
	ldr	r0, [sp, #24]
	.loc	1 461 24 is_stmt 0              @ rt-thread/components/dfs/src/dfs_file.c:461:24
	ldr	r0, [r0, #8]
.Ltmp164:
	.loc	1 461 17                        @ rt-thread/components/dfs/src/dfs_file.c:461:17
	ldrb	r0, [r0, #4]
	lsls	r0, r0, #31
	cbz	r0, .LBB10_9
	b	.LBB10_8
.LBB10_8:
.Ltmp165:
	.loc	1 462 26 is_stmt 1              @ rt-thread/components/dfs/src/dfs_file.c:462:26
	ldr	r0, [sp, #24]
	.loc	1 462 33 is_stmt 0              @ rt-thread/components/dfs/src/dfs_file.c:462:33
	ldr	r1, [r0, #8]
	.loc	1 462 38                        @ rt-thread/components/dfs/src/dfs_file.c:462:38
	ldr	r3, [r1, #36]
	.loc	1 462 52                        @ rt-thread/components/dfs/src/dfs_file.c:462:52
	ldr	r1, [sp, #16]
	.loc	1 462 65                        @ rt-thread/components/dfs/src/dfs_file.c:462:65
	ldr	r2, [sp, #12]
	.loc	1 462 26                        @ rt-thread/components/dfs/src/dfs_file.c:462:26
	blx	r3
	.loc	1 462 24                        @ rt-thread/components/dfs/src/dfs_file.c:462:24
	str	r0, [sp, #28]
	.loc	1 462 17                        @ rt-thread/components/dfs/src/dfs_file.c:462:17
	b	.LBB10_10
.LBB10_9:
	.loc	1 465 26 is_stmt 1              @ rt-thread/components/dfs/src/dfs_file.c:465:26
	ldr	r1, [sp, #24]
	.loc	1 466 63                        @ rt-thread/components/dfs/src/dfs_file.c:466:63
	str	r1, [sp, #8]                    @ 4-byte Spill
	ldr	r0, [r1, #4]
	.loc	1 465 33                        @ rt-thread/components/dfs/src/dfs_file.c:465:33
	ldr	r1, [r1, #8]
	.loc	1 465 38 is_stmt 0              @ rt-thread/components/dfs/src/dfs_file.c:465:38
	ldr	r1, [r1, #36]
	.loc	1 466 69 is_stmt 1              @ rt-thread/components/dfs/src/dfs_file.c:466:69
	str	r1, [sp, #4]                    @ 4-byte Spill
	ldr	r1, [sp, #16]
	.loc	1 466 45 is_stmt 0              @ rt-thread/components/dfs/src/dfs_file.c:466:45
	bl	dfs_subdir
	.loc	1 467 56 is_stmt 1              @ rt-thread/components/dfs/src/dfs_file.c:467:56
	str	r0, [sp]                        @ 4-byte Spill
	ldr	r0, [sp, #20]
	.loc	1 467 63 is_stmt 0              @ rt-thread/components/dfs/src/dfs_file.c:467:63
	ldr	r0, [r0, #4]
	.loc	1 467 69                        @ rt-thread/components/dfs/src/dfs_file.c:467:69
	ldr	r1, [sp, #12]
	.loc	1 467 45                        @ rt-thread/components/dfs/src/dfs_file.c:467:45
	bl	dfs_subdir
	ldr	r1, [sp]                        @ 4-byte Reload
	ldr	r3, [sp, #4]                    @ 4-byte Reload
	mov	r2, r0
	.loc	1 465 26 is_stmt 1              @ rt-thread/components/dfs/src/dfs_file.c:465:26
	ldr	r0, [sp, #8]                    @ 4-byte Reload
	blx	r3
	.loc	1 465 24 is_stmt 0              @ rt-thread/components/dfs/src/dfs_file.c:465:24
	str	r0, [sp, #28]
	b	.LBB10_10
.Ltmp166:
.LBB10_10:
	.loc	1 0 24                          @ rt-thread/components/dfs/src/dfs_file.c:0:24
	b	.LBB10_11
.LBB10_11:
	.loc	1 469 5 is_stmt 1               @ rt-thread/components/dfs/src/dfs_file.c:469:5
	b	.LBB10_13
.Ltmp167:
.LBB10_12:
	.loc	1 0 5 is_stmt 0                 @ rt-thread/components/dfs/src/dfs_file.c:0:5
	mvn	r0, #17
.Ltmp168:
	.loc	1 472 16 is_stmt 1              @ rt-thread/components/dfs/src/dfs_file.c:472:16
	str	r0, [sp, #28]
	b	.LBB10_13
.Ltmp169:
.LBB10_13:
	.loc	1 453 18                        @ rt-thread/components/dfs/src/dfs_file.c:453:18
	b	.LBB10_14
.Ltmp170:
.LBB10_14:
	@DEBUG_LABEL: dfs_file_rename:__exit
	.loc	1 476 13                        @ rt-thread/components/dfs/src/dfs_file.c:476:13
	ldr	r0, [sp, #16]
	.loc	1 476 5 is_stmt 0               @ rt-thread/components/dfs/src/dfs_file.c:476:5
	bl	rt_free
	.loc	1 477 13 is_stmt 1              @ rt-thread/components/dfs/src/dfs_file.c:477:13
	ldr	r0, [sp, #12]
	.loc	1 477 5 is_stmt 0               @ rt-thread/components/dfs/src/dfs_file.c:477:5
	bl	rt_free
	.loc	1 480 12 is_stmt 1              @ rt-thread/components/dfs/src/dfs_file.c:480:12
	ldr	r0, [sp, #28]
	.loc	1 480 5 is_stmt 0               @ rt-thread/components/dfs/src/dfs_file.c:480:5
	add	sp, #40
	pop	{r7, pc}
.Ltmp171:
.Lfunc_end10:
	.size	dfs_file_rename, .Lfunc_end10-dfs_file_rename
	.cfi_endproc
	.cantunwind
	.fnend
                                        @ -- End function
	.section	.text.dfs_file_ftruncate,"ax",%progbits
	.hidden	dfs_file_ftruncate              @ -- Begin function dfs_file_ftruncate
	.globl	dfs_file_ftruncate
	.p2align	3
	.type	dfs_file_ftruncate,%function
	.code	16                              @ @dfs_file_ftruncate
	.thumb_func
dfs_file_ftruncate:
.Lfunc_begin11:
	.loc	1 493 0 is_stmt 1               @ rt-thread/components/dfs/src/dfs_file.c:493:0
	.fnstart
	.cfi_startproc
@ %bb.0:
	.save	{r7, lr}
	push	{r7, lr}
	.cfi_def_cfa_offset 8
	.cfi_offset lr, -4
	.cfi_offset r7, -8
	.pad	#16
	sub	sp, #16
	.cfi_def_cfa_offset 24
	str	r0, [sp, #8]
	str	r1, [sp, #4]
.Ltmp172:
	.loc	1 497 9 prologue_end            @ rt-thread/components/dfs/src/dfs_file.c:497:9
	ldr	r0, [sp, #8]
	.loc	1 497 20 is_stmt 0              @ rt-thread/components/dfs/src/dfs_file.c:497:20
	cbz	r0, .LBB11_3
	b	.LBB11_1
.LBB11_1:
	.loc	1 497 23                        @ rt-thread/components/dfs/src/dfs_file.c:497:23
	ldr	r0, [sp, #8]
	.loc	1 497 27                        @ rt-thread/components/dfs/src/dfs_file.c:497:27
	ldrh	r0, [r0, #2]
	.loc	1 497 46                        @ rt-thread/components/dfs/src/dfs_file.c:497:46
	cbnz	r0, .LBB11_3
	b	.LBB11_2
.LBB11_2:
	.loc	1 497 49                        @ rt-thread/components/dfs/src/dfs_file.c:497:49
	ldr	r0, [sp, #4]
.Ltmp173:
	.loc	1 497 9                         @ rt-thread/components/dfs/src/dfs_file.c:497:9
	cmp.w	r0, #-1
	bgt	.LBB11_4
	b	.LBB11_3
.LBB11_3:
	.loc	1 0 9                           @ rt-thread/components/dfs/src/dfs_file.c:0:9
	mvn	r0, #21
.Ltmp174:
	.loc	1 498 9 is_stmt 1               @ rt-thread/components/dfs/src/dfs_file.c:498:9
	str	r0, [sp, #12]
	b	.LBB11_9
.Ltmp175:
.LBB11_4:
	.loc	1 500 9                         @ rt-thread/components/dfs/src/dfs_file.c:500:9
	ldr	r0, [sp, #8]
	.loc	1 500 13 is_stmt 0              @ rt-thread/components/dfs/src/dfs_file.c:500:13
	ldr	r0, [r0, #16]
	.loc	1 500 19                        @ rt-thread/components/dfs/src/dfs_file.c:500:19
	ldr	r0, [r0, #8]
.Ltmp176:
	.loc	1 500 9                         @ rt-thread/components/dfs/src/dfs_file.c:500:9
	cbnz	r0, .LBB11_6
	b	.LBB11_5
.LBB11_5:
	.loc	1 0 9                           @ rt-thread/components/dfs/src/dfs_file.c:0:9
	mvn	r0, #37
.Ltmp177:
	.loc	1 501 9 is_stmt 1               @ rt-thread/components/dfs/src/dfs_file.c:501:9
	str	r0, [sp, #12]
	b	.LBB11_9
.Ltmp178:
.LBB11_6:
	.loc	1 503 14                        @ rt-thread/components/dfs/src/dfs_file.c:503:14
	ldr	r0, [sp, #8]
	.loc	1 503 18 is_stmt 0              @ rt-thread/components/dfs/src/dfs_file.c:503:18
	ldr	r1, [r0, #16]
	.loc	1 503 24                        @ rt-thread/components/dfs/src/dfs_file.c:503:24
	ldr	r3, [r1, #8]
	movs	r1, #0
	movt	r1, #21076
	add	r2, sp, #4
	.loc	1 503 14                        @ rt-thread/components/dfs/src/dfs_file.c:503:14
	blx	r3
	.loc	1 503 12                        @ rt-thread/components/dfs/src/dfs_file.c:503:12
	str	r0, [sp]
.Ltmp179:
	.loc	1 506 9 is_stmt 1               @ rt-thread/components/dfs/src/dfs_file.c:506:9
	ldr	r0, [sp]
.Ltmp180:
	.loc	1 506 9 is_stmt 0               @ rt-thread/components/dfs/src/dfs_file.c:506:9
	cbnz	r0, .LBB11_8
	b	.LBB11_7
.LBB11_7:
.Ltmp181:
	.loc	1 507 20 is_stmt 1              @ rt-thread/components/dfs/src/dfs_file.c:507:20
	ldr	r0, [sp, #4]
	.loc	1 507 9 is_stmt 0               @ rt-thread/components/dfs/src/dfs_file.c:507:9
	ldr	r1, [sp, #8]
	.loc	1 507 18                        @ rt-thread/components/dfs/src/dfs_file.c:507:18
	str	r0, [r1, #24]
	.loc	1 507 9                         @ rt-thread/components/dfs/src/dfs_file.c:507:9
	b	.LBB11_8
.Ltmp182:
.LBB11_8:
	.loc	1 509 12 is_stmt 1              @ rt-thread/components/dfs/src/dfs_file.c:509:12
	ldr	r0, [sp]
	.loc	1 509 5 is_stmt 0               @ rt-thread/components/dfs/src/dfs_file.c:509:5
	str	r0, [sp, #12]
	b	.LBB11_9
.LBB11_9:
	.loc	1 510 1 is_stmt 1               @ rt-thread/components/dfs/src/dfs_file.c:510:1
	ldr	r0, [sp, #12]
	add	sp, #16
	pop	{r7, pc}
.Ltmp183:
.Lfunc_end11:
	.size	dfs_file_ftruncate, .Lfunc_end11-dfs_file_ftruncate
	.cfi_endproc
	.cantunwind
	.fnend
                                        @ -- End function
	.section	.text.ls,"ax",%progbits
	.hidden	ls                              @ -- Begin function ls
	.globl	ls
	.p2align	3
	.type	ls,%function
	.code	16                              @ @ls
	.thumb_func
ls:
.Lfunc_begin12:
	.loc	1 518 0                         @ rt-thread/components/dfs/src/dfs_file.c:518:0
	.fnstart
	.cfi_startproc
@ %bb.0:
	.save	{r7, lr}
	push	{r7, lr}
	.cfi_def_cfa_offset 8
	.cfi_offset lr, -4
	.cfi_offset r7, -8
	.pad	#88
	sub	sp, #88
	.cfi_def_cfa_offset 96
	str	r0, [sp, #84]
	movs	r0, #0
.Ltmp184:
	.loc	1 523 14 prologue_end           @ rt-thread/components/dfs/src/dfs_file.c:523:14
	str	r0, [sp, #12]
.Ltmp185:
	.loc	1 524 9                         @ rt-thread/components/dfs/src/dfs_file.c:524:9
	ldr	r0, [sp, #84]
.Ltmp186:
	.loc	1 524 9 is_stmt 0               @ rt-thread/components/dfs/src/dfs_file.c:524:9
	cbnz	r0, .LBB12_4
	b	.LBB12_1
.LBB12_1:
.Ltmp187:
	.loc	1 528 16 is_stmt 1              @ rt-thread/components/dfs/src/dfs_file.c:528:16
	movw	r0, :lower16:working_directory
	movt	r0, :upper16:working_directory
	bl	rt_strdup
	.loc	1 528 14 is_stmt 0              @ rt-thread/components/dfs/src/dfs_file.c:528:14
	str	r0, [sp, #8]
.Ltmp188:
	.loc	1 532 13 is_stmt 1              @ rt-thread/components/dfs/src/dfs_file.c:532:13
	ldr	r0, [sp, #8]
.Ltmp189:
	.loc	1 532 13 is_stmt 0              @ rt-thread/components/dfs/src/dfs_file.c:532:13
	cbnz	r0, .LBB12_3
	b	.LBB12_2
.LBB12_2:
.Ltmp190:
	.loc	1 533 13 is_stmt 1              @ rt-thread/components/dfs/src/dfs_file.c:533:13
	b	.LBB12_23
.Ltmp191:
.LBB12_3:
	.loc	1 534 5                         @ rt-thread/components/dfs/src/dfs_file.c:534:5
	b	.LBB12_5
.Ltmp192:
.LBB12_4:
	.loc	1 537 24                        @ rt-thread/components/dfs/src/dfs_file.c:537:24
	ldr	r0, [sp, #84]
	.loc	1 537 14 is_stmt 0              @ rt-thread/components/dfs/src/dfs_file.c:537:14
	str	r0, [sp, #8]
	b	.LBB12_5
.Ltmp193:
.LBB12_5:
	.loc	1 541 28 is_stmt 1              @ rt-thread/components/dfs/src/dfs_file.c:541:28
	ldr	r1, [sp, #8]
	.loc	1 541 9 is_stmt 0               @ rt-thread/components/dfs/src/dfs_file.c:541:9
	movw	r0, :lower16:fd
	movt	r0, :upper16:fd
	mov.w	r2, #65536
	bl	dfs_file_open
.Ltmp194:
	.loc	1 541 9                         @ rt-thread/components/dfs/src/dfs_file.c:541:9
	cmp	r0, #0
	bne	.LBB12_20
	b	.LBB12_6
.LBB12_6:
.Ltmp195:
	.loc	1 543 39 is_stmt 1              @ rt-thread/components/dfs/src/dfs_file.c:543:39
	ldr	r1, [sp, #8]
	.loc	1 543 9 is_stmt 0               @ rt-thread/components/dfs/src/dfs_file.c:543:9
	movw	r0, :lower16:.L.str.5
	movt	r0, :upper16:.L.str.5
	bl	rt_kprintf
	.loc	1 544 9 is_stmt 1               @ rt-thread/components/dfs/src/dfs_file.c:544:9
	b	.LBB12_7
.LBB12_7:                               @ =>This Inner Loop Header: Depth=1
.Ltmp196:
	.loc	1 546 13                        @ rt-thread/components/dfs/src/dfs_file.c:546:13
	movw	r0, :lower16:dirent
	movt	r0, :upper16:dirent
	str	r0, [sp]                        @ 4-byte Spill
	mov.w	r1, #260
	str	r1, [sp, #4]                    @ 4-byte Spill
	bl	__aeabi_memclr
	ldr	r1, [sp]                        @ 4-byte Reload
	ldr	r2, [sp, #4]                    @ 4-byte Reload
	.loc	1 547 22                        @ rt-thread/components/dfs/src/dfs_file.c:547:22
	movw	r0, :lower16:fd
	movt	r0, :upper16:fd
	bl	dfs_file_getdents
	.loc	1 547 20 is_stmt 0              @ rt-thread/components/dfs/src/dfs_file.c:547:20
	str	r0, [sp, #16]
.Ltmp197:
	.loc	1 548 17 is_stmt 1              @ rt-thread/components/dfs/src/dfs_file.c:548:17
	ldr	r0, [sp, #16]
.Ltmp198:
	.loc	1 548 17 is_stmt 0              @ rt-thread/components/dfs/src/dfs_file.c:548:17
	cmp	r0, #1
	blt	.LBB12_17
	b	.LBB12_8
.LBB12_8:                               @   in Loop: Header=BB12_7 Depth=1
	.loc	1 0 17                          @ rt-thread/components/dfs/src/dfs_file.c:0:17
	add	r0, sp, #20
	movs	r1, #64
.Ltmp199:
	.loc	1 550 17 is_stmt 1              @ rt-thread/components/dfs/src/dfs_file.c:550:17
	bl	__aeabi_memclr4
	.loc	1 553 47                        @ rt-thread/components/dfs/src/dfs_file.c:553:47
	ldr	r0, [sp, #8]
	.loc	1 553 28 is_stmt 0              @ rt-thread/components/dfs/src/dfs_file.c:553:28
	movw	r1, :lower16:dirent
	movt	r1, :upper16:dirent
	adds	r1, #4
	bl	dfs_normalize_path
	.loc	1 553 26                        @ rt-thread/components/dfs/src/dfs_file.c:553:26
	str	r0, [sp, #12]
.Ltmp200:
	.loc	1 554 21 is_stmt 1              @ rt-thread/components/dfs/src/dfs_file.c:554:21
	ldr	r0, [sp, #12]
.Ltmp201:
	.loc	1 554 21 is_stmt 0              @ rt-thread/components/dfs/src/dfs_file.c:554:21
	cbnz	r0, .LBB12_10
	b	.LBB12_9
.LBB12_9:
.Ltmp202:
	.loc	1 555 21 is_stmt 1              @ rt-thread/components/dfs/src/dfs_file.c:555:21
	b	.LBB12_19
.Ltmp203:
.LBB12_10:                              @   in Loop: Header=BB12_7 Depth=1
	.loc	1 557 35                        @ rt-thread/components/dfs/src/dfs_file.c:557:35
	ldr	r0, [sp, #12]
	add	r1, sp, #20
	.loc	1 557 21 is_stmt 0              @ rt-thread/components/dfs/src/dfs_file.c:557:21
	bl	dfs_file_stat
.Ltmp204:
	.loc	1 557 21                        @ rt-thread/components/dfs/src/dfs_file.c:557:21
	cbnz	r0, .LBB12_15
	b	.LBB12_11
.LBB12_11:                              @   in Loop: Header=BB12_7 Depth=1
.Ltmp205:
	.loc	1 559 21 is_stmt 1              @ rt-thread/components/dfs/src/dfs_file.c:559:21
	movw	r0, :lower16:dirent
	movt	r0, :upper16:dirent
	adds	r1, r0, #4
	movw	r0, :lower16:.L.str.6
	movt	r0, :upper16:.L.str.6
	bl	rt_kprintf
.Ltmp206:
	.loc	1 560 25                        @ rt-thread/components/dfs/src/dfs_file.c:560:25
	ldrh.w	r0, [sp, #26]
	and	r0, r0, #61440
.Ltmp207:
	.loc	1 560 25 is_stmt 0              @ rt-thread/components/dfs/src/dfs_file.c:560:25
	cmp.w	r0, #16384
	bne	.LBB12_13
	b	.LBB12_12
.LBB12_12:                              @   in Loop: Header=BB12_7 Depth=1
.Ltmp208:
	.loc	1 562 25 is_stmt 1              @ rt-thread/components/dfs/src/dfs_file.c:562:25
	movw	r0, :lower16:.L.str.7
	movt	r0, :upper16:.L.str.7
	movw	r1, :lower16:.L.str.8
	movt	r1, :upper16:.L.str.8
	bl	rt_kprintf
	.loc	1 563 21                        @ rt-thread/components/dfs/src/dfs_file.c:563:21
	b	.LBB12_14
.Ltmp209:
.LBB12_13:                              @   in Loop: Header=BB12_7 Depth=1
	.loc	1 566 68                        @ rt-thread/components/dfs/src/dfs_file.c:566:68
	ldr	r1, [sp, #40]
	.loc	1 566 25 is_stmt 0              @ rt-thread/components/dfs/src/dfs_file.c:566:25
	movw	r0, :lower16:.L.str.9
	movt	r0, :upper16:.L.str.9
	bl	rt_kprintf
	b	.LBB12_14
.Ltmp210:
.LBB12_14:                              @   in Loop: Header=BB12_7 Depth=1
	.loc	1 568 17 is_stmt 1              @ rt-thread/components/dfs/src/dfs_file.c:568:17
	b	.LBB12_16
.Ltmp211:
.LBB12_15:                              @   in Loop: Header=BB12_7 Depth=1
	.loc	1 570 21                        @ rt-thread/components/dfs/src/dfs_file.c:570:21
	movw	r0, :lower16:dirent
	movt	r0, :upper16:dirent
	adds	r1, r0, #4
	movw	r0, :lower16:.L.str.10
	movt	r0, :upper16:.L.str.10
	bl	rt_kprintf
	b	.LBB12_16
.Ltmp212:
.LBB12_16:                              @   in Loop: Header=BB12_7 Depth=1
	.loc	1 571 25                        @ rt-thread/components/dfs/src/dfs_file.c:571:25
	ldr	r0, [sp, #12]
	.loc	1 571 17 is_stmt 0              @ rt-thread/components/dfs/src/dfs_file.c:571:17
	bl	rt_free
	.loc	1 572 13 is_stmt 1              @ rt-thread/components/dfs/src/dfs_file.c:572:13
	b	.LBB12_17
.Ltmp213:
.LBB12_17:                              @   in Loop: Header=BB12_7 Depth=1
	.loc	1 573 9                         @ rt-thread/components/dfs/src/dfs_file.c:573:9
	b	.LBB12_18
.Ltmp214:
.LBB12_18:                              @   in Loop: Header=BB12_7 Depth=1
	.loc	1 574 16                        @ rt-thread/components/dfs/src/dfs_file.c:574:16
	ldr	r0, [sp, #16]
.Ltmp215:
	.loc	1 573 9                         @ rt-thread/components/dfs/src/dfs_file.c:573:9
	cmp	r0, #0
	bgt	.LBB12_7
	b	.LBB12_19
.Ltmp216:
.LBB12_19:
	.loc	1 576 9                         @ rt-thread/components/dfs/src/dfs_file.c:576:9
	movw	r0, :lower16:fd
	movt	r0, :upper16:fd
	bl	dfs_file_close
	.loc	1 577 5                         @ rt-thread/components/dfs/src/dfs_file.c:577:5
	b	.LBB12_21
.Ltmp217:
.LBB12_20:
	.loc	1 580 9                         @ rt-thread/components/dfs/src/dfs_file.c:580:9
	movw	r0, :lower16:.L.str.11
	movt	r0, :upper16:.L.str.11
	bl	rt_kprintf
	b	.LBB12_21
.Ltmp218:
.LBB12_21:
	.loc	1 582 9                         @ rt-thread/components/dfs/src/dfs_file.c:582:9
	ldr	r0, [sp, #84]
.Ltmp219:
	.loc	1 582 9 is_stmt 0               @ rt-thread/components/dfs/src/dfs_file.c:582:9
	cbnz	r0, .LBB12_23
	b	.LBB12_22
.LBB12_22:
.Ltmp220:
	.loc	1 583 17 is_stmt 1              @ rt-thread/components/dfs/src/dfs_file.c:583:17
	ldr	r0, [sp, #8]
	.loc	1 583 9 is_stmt 0               @ rt-thread/components/dfs/src/dfs_file.c:583:9
	bl	rt_free
	b	.LBB12_23
.Ltmp221:
.LBB12_23:
	.loc	1 584 1 is_stmt 1               @ rt-thread/components/dfs/src/dfs_file.c:584:1
	add	sp, #88
	pop	{r7, pc}
.Ltmp222:
.Lfunc_end12:
	.size	ls, .Lfunc_end12-ls
	.cfi_endproc
	.cantunwind
	.fnend
                                        @ -- End function
	.section	.text.rm,"ax",%progbits
	.hidden	rm                              @ -- Begin function rm
	.globl	rm
	.p2align	3
	.type	rm,%function
	.code	16                              @ @rm
	.thumb_func
rm:
.Lfunc_begin13:
	.loc	1 588 0                         @ rt-thread/components/dfs/src/dfs_file.c:588:0
	.fnstart
	.cfi_startproc
@ %bb.0:
	.save	{r7, lr}
	push	{r7, lr}
	.cfi_def_cfa_offset 8
	.cfi_offset lr, -4
	.cfi_offset r7, -8
	.pad	#8
	sub	sp, #8
	.cfi_def_cfa_offset 16
	str	r0, [sp, #4]
.Ltmp223:
	.loc	1 589 25 prologue_end           @ rt-thread/components/dfs/src/dfs_file.c:589:25
	ldr	r0, [sp, #4]
	.loc	1 589 9 is_stmt 0               @ rt-thread/components/dfs/src/dfs_file.c:589:9
	bl	dfs_file_unlink
.Ltmp224:
	.loc	1 589 9                         @ rt-thread/components/dfs/src/dfs_file.c:589:9
	cmp.w	r0, #-1
	bgt	.LBB13_2
	b	.LBB13_1
.LBB13_1:
.Ltmp225:
	.loc	1 591 42 is_stmt 1              @ rt-thread/components/dfs/src/dfs_file.c:591:42
	ldr	r1, [sp, #4]
	.loc	1 591 9 is_stmt 0               @ rt-thread/components/dfs/src/dfs_file.c:591:9
	movw	r0, :lower16:.L.str.12
	movt	r0, :upper16:.L.str.12
	bl	rt_kprintf
	.loc	1 592 5 is_stmt 1               @ rt-thread/components/dfs/src/dfs_file.c:592:5
	b	.LBB13_2
.Ltmp226:
.LBB13_2:
	.loc	1 593 1                         @ rt-thread/components/dfs/src/dfs_file.c:593:1
	add	sp, #8
	pop	{r7, pc}
.Ltmp227:
.Lfunc_end13:
	.size	rm, .Lfunc_end13-rm
	.cfi_endproc
	.cantunwind
	.fnend
                                        @ -- End function
	.section	.text.cat,"ax",%progbits
	.hidden	cat                             @ -- Begin function cat
	.globl	cat
	.p2align	3
	.type	cat,%function
	.code	16                              @ @cat
	.thumb_func
cat:
.Lfunc_begin14:
	.loc	1 597 0                         @ rt-thread/components/dfs/src/dfs_file.c:597:0
	.fnstart
	.cfi_startproc
@ %bb.0:
	.save	{r7, lr}
	push	{r7, lr}
	.cfi_def_cfa_offset 8
	.cfi_offset lr, -4
	.cfi_offset r7, -8
	.pad	#96
	sub	sp, #96
	.cfi_def_cfa_offset 104
	str	r0, [sp, #92]
.Ltmp228:
	.loc	1 601 28 prologue_end           @ rt-thread/components/dfs/src/dfs_file.c:601:28
	ldr	r1, [sp, #92]
	.loc	1 601 9 is_stmt 0               @ rt-thread/components/dfs/src/dfs_file.c:601:9
	movw	r0, :lower16:fd
	movt	r0, :upper16:fd
	movs	r2, #0
	bl	dfs_file_open
.Ltmp229:
	.loc	1 601 9                         @ rt-thread/components/dfs/src/dfs_file.c:601:9
	cmp.w	r0, #-1
	bgt	.LBB14_2
	b	.LBB14_1
.LBB14_1:
.Ltmp230:
	.loc	1 603 40 is_stmt 1              @ rt-thread/components/dfs/src/dfs_file.c:603:40
	ldr	r1, [sp, #92]
	.loc	1 603 9 is_stmt 0               @ rt-thread/components/dfs/src/dfs_file.c:603:9
	movw	r0, :lower16:.L.str.13
	movt	r0, :upper16:.L.str.13
	bl	rt_kprintf
	.loc	1 605 9 is_stmt 1               @ rt-thread/components/dfs/src/dfs_file.c:605:9
	b	.LBB14_8
.Ltmp231:
.LBB14_2:
	.loc	1 608 5                         @ rt-thread/components/dfs/src/dfs_file.c:608:5
	b	.LBB14_3
.LBB14_3:                               @ =>This Inner Loop Header: Depth=1
	.loc	1 0 5 is_stmt 0                 @ rt-thread/components/dfs/src/dfs_file.c:0:5
	add.w	r0, sp, #7
	str	r0, [sp]                        @ 4-byte Spill
	movs	r1, #81
.Ltmp232:
	.loc	1 610 9 is_stmt 1               @ rt-thread/components/dfs/src/dfs_file.c:610:9
	bl	__aeabi_memclr
	ldr	r1, [sp]                        @ 4-byte Reload
	.loc	1 611 18                        @ rt-thread/components/dfs/src/dfs_file.c:611:18
	movw	r0, :lower16:fd
	movt	r0, :upper16:fd
	movs	r2, #80
	bl	dfs_file_read
	.loc	1 611 16 is_stmt 0              @ rt-thread/components/dfs/src/dfs_file.c:611:16
	str	r0, [sp, #88]
.Ltmp233:
	.loc	1 612 13 is_stmt 1              @ rt-thread/components/dfs/src/dfs_file.c:612:13
	ldr	r0, [sp, #88]
.Ltmp234:
	.loc	1 612 13 is_stmt 0              @ rt-thread/components/dfs/src/dfs_file.c:612:13
	cbz	r0, .LBB14_5
	b	.LBB14_4
.LBB14_4:                               @   in Loop: Header=BB14_3 Depth=1
.Ltmp235:
	.loc	1 614 13 is_stmt 1              @ rt-thread/components/dfs/src/dfs_file.c:614:13
	movw	r0, :lower16:.L.str.14
	movt	r0, :upper16:.L.str.14
	add.w	r1, sp, #7
	bl	rt_kprintf
	.loc	1 615 9                         @ rt-thread/components/dfs/src/dfs_file.c:615:9
	b	.LBB14_5
.Ltmp236:
.LBB14_5:                               @   in Loop: Header=BB14_3 Depth=1
	.loc	1 616 5                         @ rt-thread/components/dfs/src/dfs_file.c:616:5
	b	.LBB14_6
.Ltmp237:
.LBB14_6:                               @   in Loop: Header=BB14_3 Depth=1
	.loc	1 617 12                        @ rt-thread/components/dfs/src/dfs_file.c:617:12
	ldr	r0, [sp, #88]
.Ltmp238:
	.loc	1 616 5                         @ rt-thread/components/dfs/src/dfs_file.c:616:5
	cmp	r0, #0
	bne	.LBB14_3
	b	.LBB14_7
.Ltmp239:
.LBB14_7:
	.loc	1 619 5                         @ rt-thread/components/dfs/src/dfs_file.c:619:5
	movw	r0, :lower16:fd
	movt	r0, :upper16:fd
	bl	dfs_file_close
	.loc	1 620 1                         @ rt-thread/components/dfs/src/dfs_file.c:620:1
	b	.LBB14_8
.LBB14_8:
	add	sp, #96
	pop	{r7, pc}
.Ltmp240:
.Lfunc_end14:
	.size	cat, .Lfunc_end14-cat
	.cfi_endproc
	.cantunwind
	.fnend
                                        @ -- End function
	.section	.text.copy,"ax",%progbits
	.hidden	copy                            @ -- Begin function copy
	.globl	copy
	.p2align	3
	.type	copy,%function
	.code	16                              @ @copy
	.thumb_func
copy:
.Lfunc_begin15:
	.loc	1 752 0                         @ rt-thread/components/dfs/src/dfs_file.c:752:0
	.fnstart
	.cfi_startproc
@ %bb.0:
	.save	{r7, lr}
	push	{r7, lr}
	.cfi_def_cfa_offset 8
	.cfi_offset lr, -4
	.cfi_offset r7, -8
	.pad	#96
	sub	sp, #96
	.cfi_def_cfa_offset 104
	str	r0, [sp, #92]
	str	r1, [sp, #88]
	movs	r0, #0
.Ltmp241:
	.loc	1 764 14 prologue_end           @ rt-thread/components/dfs/src/dfs_file.c:764:14
	str	r0, [sp, #20]
.Ltmp242:
	.loc	1 767 23                        @ rt-thread/components/dfs/src/dfs_file.c:767:23
	ldr	r0, [sp, #92]
	add	r1, sp, #24
	.loc	1 767 9 is_stmt 0               @ rt-thread/components/dfs/src/dfs_file.c:767:9
	bl	dfs_file_stat
.Ltmp243:
	.loc	1 767 9                         @ rt-thread/components/dfs/src/dfs_file.c:767:9
	cmp.w	r0, #-1
	bgt	.LBB15_2
	b	.LBB15_1
.LBB15_1:
.Ltmp244:
	.loc	1 769 45 is_stmt 1              @ rt-thread/components/dfs/src/dfs_file.c:769:45
	ldr	r1, [sp, #92]
	.loc	1 769 9 is_stmt 0               @ rt-thread/components/dfs/src/dfs_file.c:769:9
	movw	r0, :lower16:.L.str.15
	movt	r0, :upper16:.L.str.15
	bl	rt_kprintf
	.loc	1 770 9 is_stmt 1               @ rt-thread/components/dfs/src/dfs_file.c:770:9
	b	.LBB15_30
.Ltmp245:
.LBB15_2:
	.loc	1 772 9                         @ rt-thread/components/dfs/src/dfs_file.c:772:9
	ldrh.w	r0, [sp, #30]
	and	r0, r0, #61440
.Ltmp246:
	.loc	1 772 9 is_stmt 0               @ rt-thread/components/dfs/src/dfs_file.c:772:9
	cmp.w	r0, #16384
	bne	.LBB15_4
	b	.LBB15_3
.LBB15_3:
.Ltmp247:
	.loc	1 773 14 is_stmt 1              @ rt-thread/components/dfs/src/dfs_file.c:773:14
	ldr	r0, [sp, #20]
	orr	r0, r0, #1
	str	r0, [sp, #20]
	.loc	1 773 9 is_stmt 0               @ rt-thread/components/dfs/src/dfs_file.c:773:9
	b	.LBB15_5
.LBB15_4:
	.loc	1 775 14 is_stmt 1              @ rt-thread/components/dfs/src/dfs_file.c:775:14
	ldr	r0, [sp, #20]
	orr	r0, r0, #2
	str	r0, [sp, #20]
	b	.LBB15_5
.Ltmp248:
.LBB15_5:
	.loc	1 777 23                        @ rt-thread/components/dfs/src/dfs_file.c:777:23
	ldr	r0, [sp, #88]
	add	r1, sp, #24
	.loc	1 777 9 is_stmt 0               @ rt-thread/components/dfs/src/dfs_file.c:777:9
	bl	dfs_file_stat
.Ltmp249:
	.loc	1 777 9                         @ rt-thread/components/dfs/src/dfs_file.c:777:9
	cmp.w	r0, #-1
	bgt	.LBB15_7
	b	.LBB15_6
.LBB15_6:
.Ltmp250:
	.loc	1 780 5 is_stmt 1               @ rt-thread/components/dfs/src/dfs_file.c:780:5
	b	.LBB15_11
.Ltmp251:
.LBB15_7:
	.loc	1 783 13                        @ rt-thread/components/dfs/src/dfs_file.c:783:13
	ldrh.w	r0, [sp, #30]
	and	r0, r0, #61440
.Ltmp252:
	.loc	1 783 13 is_stmt 0              @ rt-thread/components/dfs/src/dfs_file.c:783:13
	cmp.w	r0, #16384
	bne	.LBB15_9
	b	.LBB15_8
.LBB15_8:
.Ltmp253:
	.loc	1 784 18 is_stmt 1              @ rt-thread/components/dfs/src/dfs_file.c:784:18
	ldr	r0, [sp, #20]
	orr	r0, r0, #4
	str	r0, [sp, #20]
	.loc	1 784 13 is_stmt 0              @ rt-thread/components/dfs/src/dfs_file.c:784:13
	b	.LBB15_10
.LBB15_9:
	.loc	1 786 18 is_stmt 1              @ rt-thread/components/dfs/src/dfs_file.c:786:18
	ldr	r0, [sp, #20]
	orr	r0, r0, #8
	str	r0, [sp, #20]
	b	.LBB15_10
.Ltmp254:
.LBB15_10:
	.loc	1 0 18 is_stmt 0                @ rt-thread/components/dfs/src/dfs_file.c:0:18
	b	.LBB15_11
.LBB15_11:
.Ltmp255:
	.loc	1 790 34 is_stmt 1              @ rt-thread/components/dfs/src/dfs_file.c:790:34
	ldrb.w	r0, [sp, #20]
	lsls	r0, r0, #31
	cbz	r0, .LBB15_14
	b	.LBB15_12
.Ltmp256:
.LBB15_12:
	.loc	1 790 9 is_stmt 0               @ rt-thread/components/dfs/src/dfs_file.c:790:9
	ldrb.w	r0, [sp, #20]
	lsls	r0, r0, #28
	cmp	r0, #0
	bpl	.LBB15_14
	b	.LBB15_13
.LBB15_13:
.Ltmp257:
	.loc	1 792 9 is_stmt 1               @ rt-thread/components/dfs/src/dfs_file.c:792:9
	movw	r0, :lower16:.L.str.16
	movt	r0, :upper16:.L.str.16
	bl	rt_kprintf
	.loc	1 793 9                         @ rt-thread/components/dfs/src/dfs_file.c:793:9
	b	.LBB15_30
.Ltmp258:
.LBB15_14:
	.loc	1 797 9                         @ rt-thread/components/dfs/src/dfs_file.c:797:9
	ldrb.w	r0, [sp, #20]
	lsls	r0, r0, #30
	cmp	r0, #0
	bpl	.LBB15_21
	b	.LBB15_15
.LBB15_15:
.Ltmp259:
	.loc	1 799 13                        @ rt-thread/components/dfs/src/dfs_file.c:799:13
	ldrb.w	r0, [sp, #20]
	lsls	r0, r0, #29
	cmp	r0, #0
	bpl	.LBB15_19
	b	.LBB15_16
.LBB15_16:
.Ltmp260:
	.loc	1 802 39                        @ rt-thread/components/dfs/src/dfs_file.c:802:39
	ldr	r0, [sp, #88]
	.loc	1 802 63 is_stmt 0              @ rt-thread/components/dfs/src/dfs_file.c:802:63
	str	r0, [sp, #8]                    @ 4-byte Spill
	ldr	r0, [sp, #92]
	.loc	1 802 44                        @ rt-thread/components/dfs/src/dfs_file.c:802:44
	bl	_get_path_lastname
	mov	r1, r0
	.loc	1 802 20                        @ rt-thread/components/dfs/src/dfs_file.c:802:20
	ldr	r0, [sp, #8]                    @ 4-byte Reload
	bl	dfs_normalize_path
	.loc	1 802 18                        @ rt-thread/components/dfs/src/dfs_file.c:802:18
	str	r0, [sp, #16]
.Ltmp261:
	.loc	1 803 17 is_stmt 1              @ rt-thread/components/dfs/src/dfs_file.c:803:17
	ldr	r0, [sp, #16]
.Ltmp262:
	.loc	1 803 17 is_stmt 0              @ rt-thread/components/dfs/src/dfs_file.c:803:17
	cbnz	r0, .LBB15_18
	b	.LBB15_17
.LBB15_17:
.Ltmp263:
	.loc	1 805 17 is_stmt 1              @ rt-thread/components/dfs/src/dfs_file.c:805:17
	movw	r0, :lower16:.L.str.17
	movt	r0, :upper16:.L.str.17
	bl	rt_kprintf
	.loc	1 806 17                        @ rt-thread/components/dfs/src/dfs_file.c:806:17
	b	.LBB15_30
.Ltmp264:
.LBB15_18:
	.loc	1 808 22                        @ rt-thread/components/dfs/src/dfs_file.c:808:22
	ldr	r0, [sp, #92]
	.loc	1 808 27 is_stmt 0              @ rt-thread/components/dfs/src/dfs_file.c:808:27
	ldr	r1, [sp, #16]
	.loc	1 808 13                        @ rt-thread/components/dfs/src/dfs_file.c:808:13
	bl	copyfile
	.loc	1 809 21 is_stmt 1              @ rt-thread/components/dfs/src/dfs_file.c:809:21
	ldr	r0, [sp, #16]
	.loc	1 809 13 is_stmt 0              @ rt-thread/components/dfs/src/dfs_file.c:809:13
	bl	rt_free
	.loc	1 810 9 is_stmt 1               @ rt-thread/components/dfs/src/dfs_file.c:810:9
	b	.LBB15_20
.Ltmp265:
.LBB15_19:
	.loc	1 813 22                        @ rt-thread/components/dfs/src/dfs_file.c:813:22
	ldr	r0, [sp, #92]
	.loc	1 813 27 is_stmt 0              @ rt-thread/components/dfs/src/dfs_file.c:813:27
	ldr	r1, [sp, #88]
	.loc	1 813 13                        @ rt-thread/components/dfs/src/dfs_file.c:813:13
	bl	copyfile
	b	.LBB15_20
.Ltmp266:
.LBB15_20:
	.loc	1 815 5 is_stmt 1               @ rt-thread/components/dfs/src/dfs_file.c:815:5
	b	.LBB15_30
.Ltmp267:
.LBB15_21:
	.loc	1 818 13                        @ rt-thread/components/dfs/src/dfs_file.c:818:13
	ldrb.w	r0, [sp, #20]
	lsls	r0, r0, #29
	cmp	r0, #0
	bpl	.LBB15_25
	b	.LBB15_22
.LBB15_22:
.Ltmp268:
	.loc	1 821 39                        @ rt-thread/components/dfs/src/dfs_file.c:821:39
	ldr	r0, [sp, #88]
	.loc	1 821 63 is_stmt 0              @ rt-thread/components/dfs/src/dfs_file.c:821:63
	str	r0, [sp, #4]                    @ 4-byte Spill
	ldr	r0, [sp, #92]
	.loc	1 821 44                        @ rt-thread/components/dfs/src/dfs_file.c:821:44
	bl	_get_path_lastname
	mov	r1, r0
	.loc	1 821 20                        @ rt-thread/components/dfs/src/dfs_file.c:821:20
	ldr	r0, [sp, #4]                    @ 4-byte Reload
	bl	dfs_normalize_path
	.loc	1 821 18                        @ rt-thread/components/dfs/src/dfs_file.c:821:18
	str	r0, [sp, #12]
.Ltmp269:
	.loc	1 822 17 is_stmt 1              @ rt-thread/components/dfs/src/dfs_file.c:822:17
	ldr	r0, [sp, #12]
.Ltmp270:
	.loc	1 822 17 is_stmt 0              @ rt-thread/components/dfs/src/dfs_file.c:822:17
	cbnz	r0, .LBB15_24
	b	.LBB15_23
.LBB15_23:
.Ltmp271:
	.loc	1 824 17 is_stmt 1              @ rt-thread/components/dfs/src/dfs_file.c:824:17
	movw	r0, :lower16:.L.str.17
	movt	r0, :upper16:.L.str.17
	bl	rt_kprintf
	.loc	1 825 17                        @ rt-thread/components/dfs/src/dfs_file.c:825:17
	b	.LBB15_30
.Ltmp272:
.LBB15_24:
	.loc	1 827 19                        @ rt-thread/components/dfs/src/dfs_file.c:827:19
	ldr	r0, [sp, #12]
	movs	r1, #0
	.loc	1 827 13 is_stmt 0              @ rt-thread/components/dfs/src/dfs_file.c:827:13
	bl	mkdir
	.loc	1 828 21 is_stmt 1              @ rt-thread/components/dfs/src/dfs_file.c:828:21
	ldr	r0, [sp, #92]
	.loc	1 828 26 is_stmt 0              @ rt-thread/components/dfs/src/dfs_file.c:828:26
	ldr	r1, [sp, #12]
	.loc	1 828 13                        @ rt-thread/components/dfs/src/dfs_file.c:828:13
	bl	copydir
	.loc	1 829 21 is_stmt 1              @ rt-thread/components/dfs/src/dfs_file.c:829:21
	ldr	r0, [sp, #12]
	.loc	1 829 13 is_stmt 0              @ rt-thread/components/dfs/src/dfs_file.c:829:13
	bl	rt_free
	.loc	1 830 9 is_stmt 1               @ rt-thread/components/dfs/src/dfs_file.c:830:9
	b	.LBB15_29
.Ltmp273:
.LBB15_25:
	.loc	1 831 18                        @ rt-thread/components/dfs/src/dfs_file.c:831:18
	ldrb.w	r0, [sp, #20]
	tst.w	r0, #12
	bne	.LBB15_27
	b	.LBB15_26
.LBB15_26:
.Ltmp274:
	.loc	1 833 19                        @ rt-thread/components/dfs/src/dfs_file.c:833:19
	ldr	r0, [sp, #88]
	movs	r1, #0
	.loc	1 833 13 is_stmt 0              @ rt-thread/components/dfs/src/dfs_file.c:833:13
	bl	mkdir
	.loc	1 834 21 is_stmt 1              @ rt-thread/components/dfs/src/dfs_file.c:834:21
	ldr	r0, [sp, #92]
	.loc	1 834 26 is_stmt 0              @ rt-thread/components/dfs/src/dfs_file.c:834:26
	ldr	r1, [sp, #88]
	.loc	1 834 13                        @ rt-thread/components/dfs/src/dfs_file.c:834:13
	bl	copydir
	.loc	1 835 9 is_stmt 1               @ rt-thread/components/dfs/src/dfs_file.c:835:9
	b	.LBB15_28
.Ltmp275:
.LBB15_27:
	.loc	1 838 21                        @ rt-thread/components/dfs/src/dfs_file.c:838:21
	ldr	r0, [sp, #92]
	.loc	1 838 26 is_stmt 0              @ rt-thread/components/dfs/src/dfs_file.c:838:26
	ldr	r1, [sp, #88]
	.loc	1 838 13                        @ rt-thread/components/dfs/src/dfs_file.c:838:13
	bl	copydir
	b	.LBB15_28
.Ltmp276:
.LBB15_28:
	.loc	1 0 13                          @ rt-thread/components/dfs/src/dfs_file.c:0:13
	b	.LBB15_29
.LBB15_29:
	b	.LBB15_30
.LBB15_30:
	.loc	1 841 1 is_stmt 1               @ rt-thread/components/dfs/src/dfs_file.c:841:1
	add	sp, #96
	pop	{r7, pc}
.Ltmp277:
.Lfunc_end15:
	.size	copy, .Lfunc_end15-copy
	.cfi_endproc
	.cantunwind
	.fnend
                                        @ -- End function
	.section	.text._get_path_lastname,"ax",%progbits
	.p2align	3                               @ -- Begin function _get_path_lastname
	.type	_get_path_lastname,%function
	.code	16                              @ @_get_path_lastname
	.thumb_func
_get_path_lastname:
.Lfunc_begin16:
	.loc	1 743 0                         @ rt-thread/components/dfs/src/dfs_file.c:743:0
	.fnstart
	.cfi_startproc
@ %bb.0:
	.save	{r7, lr}
	push	{r7, lr}
	.cfi_def_cfa_offset 8
	.cfi_offset lr, -4
	.cfi_offset r7, -8
	.pad	#16
	sub	sp, #16
	.cfi_def_cfa_offset 24
	str	r0, [sp, #8]
.Ltmp278:
	.loc	1 745 32 prologue_end           @ rt-thread/components/dfs/src/dfs_file.c:745:32
	ldr	r0, [sp, #8]
	movs	r1, #47
	.loc	1 745 24 is_stmt 0              @ rt-thread/components/dfs/src/dfs_file.c:745:24
	bl	strrchr
	.loc	1 745 14                        @ rt-thread/components/dfs/src/dfs_file.c:745:14
	str	r0, [sp, #4]
.Ltmp279:
	.loc	1 745 9                         @ rt-thread/components/dfs/src/dfs_file.c:745:9
	cbnz	r0, .LBB16_2
	b	.LBB16_1
.LBB16_1:
.Ltmp280:
	.loc	1 746 16 is_stmt 1              @ rt-thread/components/dfs/src/dfs_file.c:746:16
	ldr	r0, [sp, #8]
	.loc	1 746 9 is_stmt 0               @ rt-thread/components/dfs/src/dfs_file.c:746:9
	str	r0, [sp, #12]
	b	.LBB16_3
.Ltmp281:
.LBB16_2:
	.loc	1 749 12 is_stmt 1              @ rt-thread/components/dfs/src/dfs_file.c:749:12
	ldr	r0, [sp, #4]
	adds	r0, #1
	str	r0, [sp, #4]
	.loc	1 749 5 is_stmt 0               @ rt-thread/components/dfs/src/dfs_file.c:749:5
	str	r0, [sp, #12]
	b	.LBB16_3
.LBB16_3:
	.loc	1 750 1 is_stmt 1               @ rt-thread/components/dfs/src/dfs_file.c:750:1
	ldr	r0, [sp, #12]
	add	sp, #16
	pop	{r7, pc}
.Ltmp282:
.Lfunc_end16:
	.size	_get_path_lastname, .Lfunc_end16-_get_path_lastname
	.cfi_endproc
	.cantunwind
	.fnend
                                        @ -- End function
	.section	.text.copyfile,"ax",%progbits
	.p2align	3                               @ -- Begin function copyfile
	.type	copyfile,%function
	.code	16                              @ @copyfile
	.thumb_func
copyfile:
.Lfunc_begin17:
	.loc	1 625 0                         @ rt-thread/components/dfs/src/dfs_file.c:625:0
	.fnstart
	.cfi_startproc
@ %bb.0:
	.save	{r7, lr}
	push	{r7, lr}
	.cfi_def_cfa_offset 8
	.cfi_offset lr, -4
	.cfi_offset r7, -8
	.pad	#56
	sub	sp, #56
	.cfi_def_cfa_offset 64
	str	r0, [sp, #52]
	str	r1, [sp, #48]
	mov.w	r0, #4096
.Ltmp283:
	.loc	1 630 31 prologue_end           @ rt-thread/components/dfs/src/dfs_file.c:630:31
	bl	rt_malloc
	.loc	1 630 15 is_stmt 0              @ rt-thread/components/dfs/src/dfs_file.c:630:15
	str	r0, [sp, #8]
.Ltmp284:
	.loc	1 631 9 is_stmt 1               @ rt-thread/components/dfs/src/dfs_file.c:631:9
	ldr	r0, [sp, #8]
.Ltmp285:
	.loc	1 631 9 is_stmt 0               @ rt-thread/components/dfs/src/dfs_file.c:631:9
	cbnz	r0, .LBB17_2
	b	.LBB17_1
.LBB17_1:
.Ltmp286:
	.loc	1 633 9 is_stmt 1               @ rt-thread/components/dfs/src/dfs_file.c:633:9
	movw	r0, :lower16:.L.str.17
	movt	r0, :upper16:.L.str.17
	bl	rt_kprintf
	.loc	1 635 9                         @ rt-thread/components/dfs/src/dfs_file.c:635:9
	b	.LBB17_14
.Ltmp287:
.LBB17_2:
	.loc	1 638 32                        @ rt-thread/components/dfs/src/dfs_file.c:638:32
	ldr	r1, [sp, #52]
	add	r0, sp, #12
	movs	r2, #0
	.loc	1 638 9 is_stmt 0               @ rt-thread/components/dfs/src/dfs_file.c:638:9
	bl	dfs_file_open
.Ltmp288:
	.loc	1 638 9                         @ rt-thread/components/dfs/src/dfs_file.c:638:9
	cmp.w	r0, #-1
	bgt	.LBB17_4
	b	.LBB17_3
.LBB17_3:
.Ltmp289:
	.loc	1 640 17 is_stmt 1              @ rt-thread/components/dfs/src/dfs_file.c:640:17
	ldr	r0, [sp, #8]
	.loc	1 640 9 is_stmt 0               @ rt-thread/components/dfs/src/dfs_file.c:640:9
	bl	rt_free
	.loc	1 641 40 is_stmt 1              @ rt-thread/components/dfs/src/dfs_file.c:641:40
	ldr	r1, [sp, #52]
	.loc	1 641 9 is_stmt 0               @ rt-thread/components/dfs/src/dfs_file.c:641:9
	movw	r0, :lower16:.L.str.18
	movt	r0, :upper16:.L.str.18
	bl	rt_kprintf
	.loc	1 643 9 is_stmt 1               @ rt-thread/components/dfs/src/dfs_file.c:643:9
	b	.LBB17_14
.Ltmp290:
.LBB17_4:
	.loc	1 645 28                        @ rt-thread/components/dfs/src/dfs_file.c:645:28
	ldr	r1, [sp, #48]
	.loc	1 645 9 is_stmt 0               @ rt-thread/components/dfs/src/dfs_file.c:645:9
	movw	r0, :lower16:fd
	movt	r0, :upper16:fd
	movs	r2, #65
	bl	dfs_file_open
.Ltmp291:
	.loc	1 645 9                         @ rt-thread/components/dfs/src/dfs_file.c:645:9
	cmp.w	r0, #-1
	bgt	.LBB17_6
	b	.LBB17_5
.LBB17_5:
.Ltmp292:
	.loc	1 647 17 is_stmt 1              @ rt-thread/components/dfs/src/dfs_file.c:647:17
	ldr	r0, [sp, #8]
	.loc	1 647 9 is_stmt 0               @ rt-thread/components/dfs/src/dfs_file.c:647:9
	bl	rt_free
	add	r0, sp, #12
	.loc	1 648 9 is_stmt 1               @ rt-thread/components/dfs/src/dfs_file.c:648:9
	bl	dfs_file_close
	.loc	1 650 41                        @ rt-thread/components/dfs/src/dfs_file.c:650:41
	ldr	r1, [sp, #48]
	.loc	1 650 9 is_stmt 0               @ rt-thread/components/dfs/src/dfs_file.c:650:9
	movw	r0, :lower16:.L.str.19
	movt	r0, :upper16:.L.str.19
	bl	rt_kprintf
	.loc	1 652 9 is_stmt 1               @ rt-thread/components/dfs/src/dfs_file.c:652:9
	b	.LBB17_14
.Ltmp293:
.LBB17_6:
	.loc	1 655 5                         @ rt-thread/components/dfs/src/dfs_file.c:655:5
	b	.LBB17_7
.LBB17_7:                               @ =>This Inner Loop Header: Depth=1
.Ltmp294:
	.loc	1 657 45                        @ rt-thread/components/dfs/src/dfs_file.c:657:45
	ldr	r1, [sp, #8]
	add	r0, sp, #12
	mov.w	r2, #4096
	.loc	1 657 22 is_stmt 0              @ rt-thread/components/dfs/src/dfs_file.c:657:22
	bl	dfs_file_read
	.loc	1 657 20                        @ rt-thread/components/dfs/src/dfs_file.c:657:20
	str	r0, [sp, #4]
.Ltmp295:
	.loc	1 658 13 is_stmt 1              @ rt-thread/components/dfs/src/dfs_file.c:658:13
	ldr	r0, [sp, #4]
.Ltmp296:
	.loc	1 658 13 is_stmt 0              @ rt-thread/components/dfs/src/dfs_file.c:658:13
	cmp	r0, #1
	blt	.LBB17_11
	b	.LBB17_8
.LBB17_8:                               @   in Loop: Header=BB17_7 Depth=1
.Ltmp297:
	.loc	1 662 42 is_stmt 1              @ rt-thread/components/dfs/src/dfs_file.c:662:42
	ldr	r1, [sp, #8]
	.loc	1 662 53 is_stmt 0              @ rt-thread/components/dfs/src/dfs_file.c:662:53
	ldr	r2, [sp, #4]
	.loc	1 662 22                        @ rt-thread/components/dfs/src/dfs_file.c:662:22
	movw	r0, :lower16:fd
	movt	r0, :upper16:fd
	bl	dfs_file_write
	.loc	1 662 20                        @ rt-thread/components/dfs/src/dfs_file.c:662:20
	str	r0, [sp]
.Ltmp298:
	.loc	1 663 17 is_stmt 1              @ rt-thread/components/dfs/src/dfs_file.c:663:17
	ldr	r0, [sp]
	.loc	1 663 27 is_stmt 0              @ rt-thread/components/dfs/src/dfs_file.c:663:27
	ldr	r1, [sp, #4]
.Ltmp299:
	.loc	1 663 17                        @ rt-thread/components/dfs/src/dfs_file.c:663:17
	cmp	r0, r1
	beq	.LBB17_10
	b	.LBB17_9
.LBB17_9:
.Ltmp300:
	.loc	1 666 66 is_stmt 1              @ rt-thread/components/dfs/src/dfs_file.c:666:66
	ldr	r1, [sp]
	.loc	1 666 17 is_stmt 0              @ rt-thread/components/dfs/src/dfs_file.c:666:17
	movw	r0, :lower16:.L.str.20
	movt	r0, :upper16:.L.str.20
	bl	rt_kprintf
	.loc	1 667 17 is_stmt 1              @ rt-thread/components/dfs/src/dfs_file.c:667:17
	b	.LBB17_13
.Ltmp301:
.LBB17_10:                              @   in Loop: Header=BB17_7 Depth=1
	.loc	1 669 9                         @ rt-thread/components/dfs/src/dfs_file.c:669:9
	b	.LBB17_11
.Ltmp302:
.LBB17_11:                              @   in Loop: Header=BB17_7 Depth=1
	.loc	1 670 5                         @ rt-thread/components/dfs/src/dfs_file.c:670:5
	b	.LBB17_12
.Ltmp303:
.LBB17_12:                              @   in Loop: Header=BB17_7 Depth=1
	.loc	1 671 12                        @ rt-thread/components/dfs/src/dfs_file.c:671:12
	ldr	r0, [sp, #4]
.Ltmp304:
	.loc	1 670 5                         @ rt-thread/components/dfs/src/dfs_file.c:670:5
	cmp	r0, #0
	bgt	.LBB17_7
	b	.LBB17_13
.Ltmp305:
.LBB17_13:
	.loc	1 0 5 is_stmt 0                 @ rt-thread/components/dfs/src/dfs_file.c:0:5
	add	r0, sp, #12
	.loc	1 673 5 is_stmt 1               @ rt-thread/components/dfs/src/dfs_file.c:673:5
	bl	dfs_file_close
	.loc	1 674 5                         @ rt-thread/components/dfs/src/dfs_file.c:674:5
	movw	r0, :lower16:fd
	movt	r0, :upper16:fd
	bl	dfs_file_close
	.loc	1 675 13                        @ rt-thread/components/dfs/src/dfs_file.c:675:13
	ldr	r0, [sp, #8]
	.loc	1 675 5 is_stmt 0               @ rt-thread/components/dfs/src/dfs_file.c:675:5
	bl	rt_free
	.loc	1 676 1 is_stmt 1               @ rt-thread/components/dfs/src/dfs_file.c:676:1
	b	.LBB17_14
.LBB17_14:
	add	sp, #56
	pop	{r7, pc}
.Ltmp306:
.Lfunc_end17:
	.size	copyfile, .Lfunc_end17-copyfile
	.cfi_endproc
	.cantunwind
	.fnend
                                        @ -- End function
	.section	.text.copydir,"ax",%progbits
	.p2align	3                               @ -- Begin function copydir
	.type	copydir,%function
	.code	16                              @ @copydir
	.thumb_func
copydir:
.Lfunc_begin18:
	.loc	1 680 0                         @ rt-thread/components/dfs/src/dfs_file.c:680:0
	.fnstart
	.cfi_startproc
@ %bb.0:
	.save	{r7, lr}
	push	{r7, lr}
	.cfi_def_cfa_offset 8
	.cfi_offset lr, -4
	.cfi_offset r7, -8
	.pad	#392
	sub	sp, #392
	.cfi_def_cfa_offset 400
	str	r0, [sp, #388]
	str	r1, [sp, #384]
.Ltmp307:
	.loc	1 685 30 prologue_end           @ rt-thread/components/dfs/src/dfs_file.c:685:30
	ldr	r1, [sp, #388]
	add	r0, sp, #20
	mov.w	r2, #65536
	.loc	1 685 9 is_stmt 0               @ rt-thread/components/dfs/src/dfs_file.c:685:9
	bl	dfs_file_open
.Ltmp308:
	.loc	1 685 9                         @ rt-thread/components/dfs/src/dfs_file.c:685:9
	cmp.w	r0, #-1
	bgt	.LBB18_2
	b	.LBB18_1
.LBB18_1:
.Ltmp309:
	.loc	1 687 40 is_stmt 1              @ rt-thread/components/dfs/src/dfs_file.c:687:40
	ldr	r1, [sp, #388]
	.loc	1 687 9 is_stmt 0               @ rt-thread/components/dfs/src/dfs_file.c:687:9
	movw	r0, :lower16:.L.str.21
	movt	r0, :upper16:.L.str.21
	bl	rt_kprintf
	.loc	1 688 9 is_stmt 1               @ rt-thread/components/dfs/src/dfs_file.c:688:9
	b	.LBB18_20
.Ltmp310:
.LBB18_2:
	.loc	1 691 5                         @ rt-thread/components/dfs/src/dfs_file.c:691:5
	b	.LBB18_3
.LBB18_3:                               @ =>This Inner Loop Header: Depth=1
	.loc	1 0 5 is_stmt 0                 @ rt-thread/components/dfs/src/dfs_file.c:0:5
	add	r0, sp, #124
	str	r0, [sp, #4]                    @ 4-byte Spill
	mov.w	r1, #260
.Ltmp311:
	.loc	1 693 9 is_stmt 1               @ rt-thread/components/dfs/src/dfs_file.c:693:9
	str	r1, [sp, #8]                    @ 4-byte Spill
	bl	__aeabi_memclr
	ldr	r1, [sp, #4]                    @ 4-byte Reload
	ldr	r2, [sp, #8]                    @ 4-byte Reload
	add	r0, sp, #20
	.loc	1 695 18                        @ rt-thread/components/dfs/src/dfs_file.c:695:18
	bl	dfs_file_getdents
	.loc	1 695 16 is_stmt 0              @ rt-thread/components/dfs/src/dfs_file.c:695:16
	str	r0, [sp, #56]
.Ltmp312:
	.loc	1 696 13 is_stmt 1              @ rt-thread/components/dfs/src/dfs_file.c:696:13
	ldr	r0, [sp, #56]
.Ltmp313:
	.loc	1 696 13 is_stmt 0              @ rt-thread/components/dfs/src/dfs_file.c:696:13
	cmp	r0, #1
	blt	.LBB18_17
	b	.LBB18_4
.LBB18_4:                               @   in Loop: Header=BB18_3 Depth=1
	.loc	1 0 13                          @ rt-thread/components/dfs/src/dfs_file.c:0:13
	movs	r0, #0
.Ltmp314:
	.loc	1 698 19 is_stmt 1              @ rt-thread/components/dfs/src/dfs_file.c:698:19
	str	r0, [sp, #16]
	.loc	1 699 19                        @ rt-thread/components/dfs/src/dfs_file.c:699:19
	str	r0, [sp, #12]
	add	r0, sp, #124
.Ltmp315:
	.loc	1 701 31                        @ rt-thread/components/dfs/src/dfs_file.c:701:31
	adds	r0, #4
	.loc	1 701 17 is_stmt 0              @ rt-thread/components/dfs/src/dfs_file.c:701:17
	movw	r1, :lower16:.L.str.22
	movt	r1, :upper16:.L.str.22
	bl	strcmp
	.loc	1 701 50                        @ rt-thread/components/dfs/src/dfs_file.c:701:50
	cbz	r0, .LBB18_6
	b	.LBB18_5
.LBB18_5:                               @   in Loop: Header=BB18_3 Depth=1
	.loc	1 0 50                          @ rt-thread/components/dfs/src/dfs_file.c:0:50
	add	r0, sp, #124
	.loc	1 701 67                        @ rt-thread/components/dfs/src/dfs_file.c:701:67
	adds	r0, #4
	.loc	1 701 53                        @ rt-thread/components/dfs/src/dfs_file.c:701:53
	movw	r1, :lower16:.L.str.23
	movt	r1, :upper16:.L.str.23
	bl	strcmp
.Ltmp316:
	.loc	1 701 17                        @ rt-thread/components/dfs/src/dfs_file.c:701:17
	cbnz	r0, .LBB18_7
	b	.LBB18_6
.LBB18_6:                               @   in Loop: Header=BB18_3 Depth=1
.Ltmp317:
	.loc	1 702 17 is_stmt 1              @ rt-thread/components/dfs/src/dfs_file.c:702:17
	b	.LBB18_18
.Ltmp318:
.LBB18_7:                               @   in Loop: Header=BB18_3 Depth=1
	.loc	1 705 54                        @ rt-thread/components/dfs/src/dfs_file.c:705:54
	ldr	r0, [sp, #388]
	add	r1, sp, #124
	.loc	1 705 66 is_stmt 0              @ rt-thread/components/dfs/src/dfs_file.c:705:66
	adds	r1, #4
	.loc	1 705 35                        @ rt-thread/components/dfs/src/dfs_file.c:705:35
	bl	dfs_normalize_path
	.loc	1 705 33                        @ rt-thread/components/dfs/src/dfs_file.c:705:33
	str	r0, [sp, #16]
.Ltmp319:
	.loc	1 705 17                        @ rt-thread/components/dfs/src/dfs_file.c:705:17
	cbnz	r0, .LBB18_9
	b	.LBB18_8
.LBB18_8:
.Ltmp320:
	.loc	1 707 17 is_stmt 1              @ rt-thread/components/dfs/src/dfs_file.c:707:17
	movw	r0, :lower16:.L.str.24
	movt	r0, :upper16:.L.str.24
	bl	rt_kprintf
	.loc	1 708 17                        @ rt-thread/components/dfs/src/dfs_file.c:708:17
	b	.LBB18_19
.Ltmp321:
.LBB18_9:                               @   in Loop: Header=BB18_3 Depth=1
	.loc	1 710 54                        @ rt-thread/components/dfs/src/dfs_file.c:710:54
	ldr	r0, [sp, #384]
	add	r1, sp, #124
	.loc	1 710 66 is_stmt 0              @ rt-thread/components/dfs/src/dfs_file.c:710:66
	adds	r1, #4
	.loc	1 710 35                        @ rt-thread/components/dfs/src/dfs_file.c:710:35
	bl	dfs_normalize_path
	.loc	1 710 33                        @ rt-thread/components/dfs/src/dfs_file.c:710:33
	str	r0, [sp, #12]
.Ltmp322:
	.loc	1 710 17                        @ rt-thread/components/dfs/src/dfs_file.c:710:17
	cbnz	r0, .LBB18_11
	b	.LBB18_10
.LBB18_10:
.Ltmp323:
	.loc	1 712 17 is_stmt 1              @ rt-thread/components/dfs/src/dfs_file.c:712:17
	movw	r0, :lower16:.L.str.24
	movt	r0, :upper16:.L.str.24
	bl	rt_kprintf
	.loc	1 713 25                        @ rt-thread/components/dfs/src/dfs_file.c:713:25
	ldr	r0, [sp, #16]
	.loc	1 713 17 is_stmt 0              @ rt-thread/components/dfs/src/dfs_file.c:713:17
	bl	rt_free
	.loc	1 714 17 is_stmt 1              @ rt-thread/components/dfs/src/dfs_file.c:714:17
	b	.LBB18_19
.Ltmp324:
.LBB18_11:                              @   in Loop: Header=BB18_3 Depth=1
	.loc	1 0 17 is_stmt 0                @ rt-thread/components/dfs/src/dfs_file.c:0:17
	add	r0, sp, #60
	str	r0, [sp]                        @ 4-byte Spill
	movs	r1, #64
	.loc	1 717 13 is_stmt 1              @ rt-thread/components/dfs/src/dfs_file.c:717:13
	bl	__aeabi_memclr4
	ldr	r1, [sp]                        @ 4-byte Reload
.Ltmp325:
	.loc	1 718 31                        @ rt-thread/components/dfs/src/dfs_file.c:718:31
	ldr	r0, [sp, #16]
	.loc	1 718 17 is_stmt 0              @ rt-thread/components/dfs/src/dfs_file.c:718:17
	bl	dfs_file_stat
.Ltmp326:
	.loc	1 718 17                        @ rt-thread/components/dfs/src/dfs_file.c:718:17
	cbz	r0, .LBB18_13
	b	.LBB18_12
.LBB18_12:                              @   in Loop: Header=BB18_3 Depth=1
	.loc	1 0 17                          @ rt-thread/components/dfs/src/dfs_file.c:0:17
	add	r0, sp, #124
.Ltmp327:
	.loc	1 720 61 is_stmt 1              @ rt-thread/components/dfs/src/dfs_file.c:720:61
	adds	r1, r0, #4
	.loc	1 720 17 is_stmt 0              @ rt-thread/components/dfs/src/dfs_file.c:720:17
	movw	r0, :lower16:.L.str.25
	movt	r0, :upper16:.L.str.25
	bl	rt_kprintf
	.loc	1 721 17 is_stmt 1              @ rt-thread/components/dfs/src/dfs_file.c:721:17
	b	.LBB18_18
.Ltmp328:
.LBB18_13:                              @   in Loop: Header=BB18_3 Depth=1
	.loc	1 724 17                        @ rt-thread/components/dfs/src/dfs_file.c:724:17
	ldrh.w	r0, [sp, #66]
	and	r0, r0, #61440
.Ltmp329:
	.loc	1 724 17 is_stmt 0              @ rt-thread/components/dfs/src/dfs_file.c:724:17
	cmp.w	r0, #16384
	bne	.LBB18_15
	b	.LBB18_14
.LBB18_14:                              @   in Loop: Header=BB18_3 Depth=1
.Ltmp330:
	.loc	1 726 23 is_stmt 1              @ rt-thread/components/dfs/src/dfs_file.c:726:23
	ldr	r0, [sp, #12]
	movs	r1, #0
	.loc	1 726 17 is_stmt 0              @ rt-thread/components/dfs/src/dfs_file.c:726:17
	bl	mkdir
	.loc	1 727 25 is_stmt 1              @ rt-thread/components/dfs/src/dfs_file.c:727:25
	ldr	r0, [sp, #16]
	.loc	1 727 41 is_stmt 0              @ rt-thread/components/dfs/src/dfs_file.c:727:41
	ldr	r1, [sp, #12]
	.loc	1 727 17                        @ rt-thread/components/dfs/src/dfs_file.c:727:17
	bl	copydir
	.loc	1 728 13 is_stmt 1              @ rt-thread/components/dfs/src/dfs_file.c:728:13
	b	.LBB18_16
.Ltmp331:
.LBB18_15:                              @   in Loop: Header=BB18_3 Depth=1
	.loc	1 731 26                        @ rt-thread/components/dfs/src/dfs_file.c:731:26
	ldr	r0, [sp, #16]
	.loc	1 731 42 is_stmt 0              @ rt-thread/components/dfs/src/dfs_file.c:731:42
	ldr	r1, [sp, #12]
	.loc	1 731 17                        @ rt-thread/components/dfs/src/dfs_file.c:731:17
	bl	copyfile
	b	.LBB18_16
.Ltmp332:
.LBB18_16:                              @   in Loop: Header=BB18_3 Depth=1
	.loc	1 733 21 is_stmt 1              @ rt-thread/components/dfs/src/dfs_file.c:733:21
	ldr	r0, [sp, #16]
	.loc	1 733 13 is_stmt 0              @ rt-thread/components/dfs/src/dfs_file.c:733:13
	bl	rt_free
	.loc	1 734 21 is_stmt 1              @ rt-thread/components/dfs/src/dfs_file.c:734:21
	ldr	r0, [sp, #12]
	.loc	1 734 13 is_stmt 0              @ rt-thread/components/dfs/src/dfs_file.c:734:13
	bl	rt_free
	.loc	1 735 9 is_stmt 1               @ rt-thread/components/dfs/src/dfs_file.c:735:9
	b	.LBB18_17
.Ltmp333:
.LBB18_17:                              @   in Loop: Header=BB18_3 Depth=1
	.loc	1 736 5                         @ rt-thread/components/dfs/src/dfs_file.c:736:5
	b	.LBB18_18
.Ltmp334:
.LBB18_18:                              @   in Loop: Header=BB18_3 Depth=1
	.loc	1 737 12                        @ rt-thread/components/dfs/src/dfs_file.c:737:12
	ldr	r0, [sp, #56]
.Ltmp335:
	.loc	1 736 5                         @ rt-thread/components/dfs/src/dfs_file.c:736:5
	cmp	r0, #0
	bgt.w	.LBB18_3
	b	.LBB18_19
.Ltmp336:
.LBB18_19:
	.loc	1 0 5 is_stmt 0                 @ rt-thread/components/dfs/src/dfs_file.c:0:5
	add	r0, sp, #20
	.loc	1 739 5 is_stmt 1               @ rt-thread/components/dfs/src/dfs_file.c:739:5
	bl	dfs_file_close
	.loc	1 740 1                         @ rt-thread/components/dfs/src/dfs_file.c:740:1
	b	.LBB18_20
.LBB18_20:
	add	sp, #392
	pop	{r7, pc}
.Ltmp337:
.Lfunc_end18:
	.size	copydir, .Lfunc_end18-copydir
	.cfi_endproc
	.cantunwind
	.fnend
                                        @ -- End function
	.type	.L.str,%object                  @ @.str
	.section	.rodata.str1.1,"aMS",%progbits,1
.L.str:
	.asciz	"/"
	.size	.L.str, 2

	.type	.L.str.1,%object                @ @.str.1
.L.str.1:
	.asciz	"[E/DFS] "
	.size	.L.str.1, 9

	.type	.L.str.2,%object                @ @.str.2
.L.str.2:
	.asciz	"can't find mounted filesystem on this path:%s"
	.size	.L.str.2, 46

	.type	.L.str.3,%object                @ @.str.3
.L.str.3:
	.asciz	"\n"
	.size	.L.str.3, 2

	.type	.L.str.4,%object                @ @.str.4
.L.str.4:
	.asciz	"the filesystem didn't implement this function"
	.size	.L.str.4, 46

	.type	fd,%object                      @ @fd
	.section	.bss.fd,"aw",%nobits
	.p2align	2
fd:
	.zero	36
	.size	fd, 36

	.type	.L.str.5,%object                @ @.str.5
	.section	.rodata.str1.1,"aMS",%progbits,1
.L.str.5:
	.asciz	"Directory %s:\n"
	.size	.L.str.5, 15

	.type	dirent,%object                  @ @dirent
	.section	.bss.dirent,"aw",%nobits
	.p2align	1
dirent:
	.zero	260
	.size	dirent, 260

	.type	.L.str.6,%object                @ @.str.6
	.section	.rodata.str1.1,"aMS",%progbits,1
.L.str.6:
	.asciz	"%-20s"
	.size	.L.str.6, 6

	.type	.L.str.7,%object                @ @.str.7
.L.str.7:
	.asciz	"%-25s\n"
	.size	.L.str.7, 7

	.type	.L.str.8,%object                @ @.str.8
.L.str.8:
	.asciz	"<DIR>"
	.size	.L.str.8, 6

	.type	.L.str.9,%object                @ @.str.9
.L.str.9:
	.asciz	"%-25lu\n"
	.size	.L.str.9, 8

	.type	.L.str.10,%object               @ @.str.10
.L.str.10:
	.asciz	"BAD file: %s\n"
	.size	.L.str.10, 14

	.type	.L.str.11,%object               @ @.str.11
.L.str.11:
	.asciz	"No such directory\n"
	.size	.L.str.11, 19

	.hidden	__fsym_ls_name                  @ @__fsym_ls_name
	.type	__fsym_ls_name,%object
	.section	.rodata.name,"a",%progbits
	.globl	__fsym_ls_name
__fsym_ls_name:
	.asciz	"ls"
	.size	__fsym_ls_name, 3

	.hidden	__fsym_ls_desc                  @ @__fsym_ls_desc
	.type	__fsym_ls_desc,%object
	.globl	__fsym_ls_desc
__fsym_ls_desc:
	.asciz	"list directory contents"
	.size	__fsym_ls_desc, 24

	.hidden	__fsym_ls                       @ @__fsym_ls
	.type	__fsym_ls,%object
	.section	FSymTab,"a",%progbits
	.globl	__fsym_ls
	.p2align	2
__fsym_ls:
__tagsym$$used.0:
	.long	__fsym_ls_name
	.long	__fsym_ls_desc
	.long	ls
	.size	__fsym_ls, 12

	.type	.L.str.12,%object               @ @.str.12
	.section	.rodata.str1.1,"aMS",%progbits,1
.L.str.12:
	.asciz	"Delete %s failed\n"
	.size	.L.str.12, 18

	.hidden	__fsym_rm_name                  @ @__fsym_rm_name
	.type	__fsym_rm_name,%object
	.section	.rodata.name,"a",%progbits
	.globl	__fsym_rm_name
__fsym_rm_name:
	.asciz	"rm"
	.size	__fsym_rm_name, 3

	.hidden	__fsym_rm_desc                  @ @__fsym_rm_desc
	.type	__fsym_rm_desc,%object
	.globl	__fsym_rm_desc
__fsym_rm_desc:
	.asciz	"remove files or directories"
	.size	__fsym_rm_desc, 28

	.hidden	__fsym_rm                       @ @__fsym_rm
	.type	__fsym_rm,%object
	.section	FSymTab,"a",%progbits
	.globl	__fsym_rm
	.p2align	2
__fsym_rm:
__tagsym$$used.1:
	.long	__fsym_rm_name
	.long	__fsym_rm_desc
	.long	rm
	.size	__fsym_rm, 12

	.type	.L.str.13,%object               @ @.str.13
	.section	.rodata.str1.1,"aMS",%progbits,1
.L.str.13:
	.asciz	"Open %s failed\n"
	.size	.L.str.13, 16

	.type	.L.str.14,%object               @ @.str.14
.L.str.14:
	.asciz	"%s"
	.size	.L.str.14, 3

	.hidden	__fsym_cat_name                 @ @__fsym_cat_name
	.type	__fsym_cat_name,%object
	.section	.rodata.name,"a",%progbits
	.globl	__fsym_cat_name
__fsym_cat_name:
	.asciz	"cat"
	.size	__fsym_cat_name, 4

	.hidden	__fsym_cat_desc                 @ @__fsym_cat_desc
	.type	__fsym_cat_desc,%object
	.globl	__fsym_cat_desc
__fsym_cat_desc:
	.asciz	"print file"
	.size	__fsym_cat_desc, 11

	.hidden	__fsym_cat                      @ @__fsym_cat
	.type	__fsym_cat,%object
	.section	FSymTab,"a",%progbits
	.globl	__fsym_cat
	.p2align	2
__fsym_cat:
__tagsym$$used.2:
	.long	__fsym_cat_name
	.long	__fsym_cat_desc
	.long	cat
	.size	__fsym_cat, 12

	.type	.L.str.15,%object               @ @.str.15
	.section	.rodata.str1.1,"aMS",%progbits,1
.L.str.15:
	.asciz	"copy failed, bad %s\n"
	.size	.L.str.15, 21

	.type	.L.str.16,%object               @ @.str.16
.L.str.16:
	.asciz	"cp faild, cp dir to file is not permitted!\n"
	.size	.L.str.16, 44

	.type	.L.str.17,%object               @ @.str.17
.L.str.17:
	.asciz	"out of memory\n"
	.size	.L.str.17, 15

	.hidden	__fsym_copy_name                @ @__fsym_copy_name
	.type	__fsym_copy_name,%object
	.section	.rodata.name,"a",%progbits
	.globl	__fsym_copy_name
__fsym_copy_name:
	.asciz	"copy"
	.size	__fsym_copy_name, 5

	.hidden	__fsym_copy_desc                @ @__fsym_copy_desc
	.type	__fsym_copy_desc,%object
	.globl	__fsym_copy_desc
__fsym_copy_desc:
	.asciz	"copy file or dir"
	.size	__fsym_copy_desc, 17

	.hidden	__fsym_copy                     @ @__fsym_copy
	.type	__fsym_copy,%object
	.section	FSymTab,"a",%progbits
	.globl	__fsym_copy
	.p2align	2
__fsym_copy:
__tagsym$$used.3:
	.long	__fsym_copy_name
	.long	__fsym_copy_desc
	.long	copy
	.size	__fsym_copy, 12

	.type	.L.str.18,%object               @ @.str.18
	.section	.rodata.str1.1,"aMS",%progbits,1
.L.str.18:
	.asciz	"Read %s failed\n"
	.size	.L.str.18, 16

	.type	.L.str.19,%object               @ @.str.19
.L.str.19:
	.asciz	"Write %s failed\n"
	.size	.L.str.19, 17

	.type	.L.str.20,%object               @ @.str.20
.L.str.20:
	.asciz	"Write file data failed, errno=%d\n"
	.size	.L.str.20, 34

	.type	.L.str.21,%object               @ @.str.21
.L.str.21:
	.asciz	"open %s failed\n"
	.size	.L.str.21, 16

	.type	.L.str.22,%object               @ @.str.22
.L.str.22:
	.asciz	".."
	.size	.L.str.22, 3

	.type	.L.str.23,%object               @ @.str.23
.L.str.23:
	.asciz	"."
	.size	.L.str.23, 2

	.type	.L.str.24,%object               @ @.str.24
.L.str.24:
	.asciz	"out of memory!\n"
	.size	.L.str.24, 16

	.type	.L.str.25,%object               @ @.str.25
.L.str.25:
	.asciz	"open file: %s failed\n"
	.size	.L.str.25, 22

	.globl	__fsym_ls
	.globl	__fsym_rm
	.globl	__fsym_cat
	.globl	__fsym_copy
	.section	".note.GNU-stack","",%progbits
	.eabi_attribute	30, 6	@ Tag_ABI_optimization_goals
	.ARM_attribute	16, 1	@ Tag_AV_eba