	.text
	.syntax unified
	.eabi_attribute	67, "2.09"	@ Tag_conformance
	.cpu	cortex-m7
	.eabi_attribute	6, 13	@ Tag_CPU_arch
	.eabi_attribute	7, 77	@ Tag_CPU_arch_profile
	.eabi_attribute	8, 0	@ Tag_ARM_ISA_use
	.eabi_attribute	9, 2	@ Tag_THUMB_ISA_use
	.fpu	fpv5-d16
	.eabi_attribute	36, 1	@ Tag_FP_HP_extension
	.eabi_attribute	34, 1	@ Tag_CPU_unaligned_access
	.eabi_attribute	17, 1	@ Tag_ABI_PCS_GOT_use
	.eabi_attribute	20, 2	@ Tag_ABI_FP_denormal
	.eabi_attribute	21, 0	@ Tag_ABI_FP_exceptions
	.eabi_attribute	23, 1	@ Tag_ABI_FP_number_model
	.eabi_attribute	24, 1	@ Tag_ABI_align_needed
	.eabi_attribute	25, 1	@ Tag_ABI_align_preserved
	.eabi_attribute	28, 1	@ Tag_ABI_VFP_args
	.eabi_attribute	38, 1	@ Tag_ABI_FP_16bit_format
	.eabi_attribute	18, 2	@ Tag_ABI_PCS_wchar_t
	.eabi_attribute	26, 1	@ Tag_ABI_enum_size
	.eabi_attribute	14, 0	@ Tag_ABI_PCS_R9_use
	.file	"dfs_lfs.c"
	.file	1 "E:\\STM32\\Learning\\STM32H750_ART_PI_RGBLCD" "rt-thread/include\\rtdef.h"
	.file	2 "E:\\STM32\\Learning\\STM32H750_ART_PI_RGBLCD" "packages/littlefs-v2.0.5/dfs_lfs.c"
	.file	3 "E:\\STM32\\Learning\\STM32H750_ART_PI_RGBLCD" "rt-thread/components/dfs/include\\dfs_fs.h"
	.file	4 "D:\\Keil_v5\\ARM\\ARMCLANG\\Bin\\..\\include" "stdint.h"
	.file	5 "E:\\STM32\\Learning\\STM32H750_ART_PI_RGBLCD" "rt-thread/components/dfs/include\\dfs_file.h"
	.file	6 "D:\\Keil_v5\\ARM\\ARMCLANG\\Bin\\..\\include" "time.h"
	.file	7 "E:\\STM32\\Learning\\STM32H750_ART_PI_RGBLCD" "rt-thread/include/rtlibc.h"
	.file	8 "E:\\STM32\\Learning\\STM32H750_ART_PI_RGBLCD" "rt-thread/components/dfs/include\\dfs.h"
	.file	9 "E:\\STM32\\Learning\\STM32H750_ART_PI_RGBLCD" "rt-thread/components/drivers/include/ipc/poll.h"
	.file	10 "E:\\STM32\\Learning\\STM32H750_ART_PI_RGBLCD" "rt-thread/include/libc/libc_stat.h"
	.file	11 "E:\\STM32\\Learning\\STM32H750_ART_PI_RGBLCD" "./packages/littlefs-v2.0.5/lfs.h"
	.file	12 "E:\\STM32\\Learning\\STM32H750_ART_PI_RGBLCD" "rt-thread/components/drivers/include/drivers/mtd_nor.h"
	.section	.text.dfs_lfs_init,"ax",%progbits
	.hidden	dfs_lfs_init                    @ -- Begin function dfs_lfs_init
	.globl	dfs_lfs_init
	.p2align	3
	.type	dfs_lfs_init,%function
	.code	16                              @ @dfs_lfs_init
	.thumb_func
dfs_lfs_init:
.Lfunc_begin0:
	.loc	2 927 0                         @ packages/littlefs-v2.0.5/dfs_lfs.c:927:0
	.fnstart
	.cfi_sections .debug_frame
	.cfi_startproc
@ %bb.0:
	.save	{r7, lr}
	push	{r7, lr}
	.cfi_def_cfa_offset 8
	.cfi_offset lr, -4
	.cfi_offset r7, -8
.Ltmp0:
	.loc	2 929 5 prologue_end            @ packages/littlefs-v2.0.5/dfs_lfs.c:929:5
	movw	r0, :lower16:_lfs_lock
	movt	r0, :upper16:_lfs_lock
	movw	r1, :lower16:.L.str
	movt	r1, :upper16:.L.str
	movs	r2, #0
	bl	rt_mutex_init
	.loc	2 931 12                        @ packages/littlefs-v2.0.5/dfs_lfs.c:931:12
	movw	r0, :lower16:_dfs_lfs_ops
	movt	r0, :upper16:_dfs_lfs_ops
	bl	dfs_register
	.loc	2 931 5 is_stmt 0               @ packages/littlefs-v2.0.5/dfs_lfs.c:931:5
	pop	{r7, pc}
.Ltmp1:
.Lfunc_end0:
	.size	dfs_lfs_init, .Lfunc_end0-dfs_lfs_init
	.cfi_endproc
	.cantunwind
	.fnend
                                        @ -- End function
	.section	.text._dfs_lfs_mount,"ax",%progbits
	.p2align	3                               @ -- Begin function _dfs_lfs_mount
	.type	_dfs_lfs_mount,%function
	.code	16                              @ @_dfs_lfs_mount
	.thumb_func
_dfs_lfs_mount:
.Lfunc_begin1:
	.loc	2 254 0 is_stmt 1               @ packages/littlefs-v2.0.5/dfs_lfs.c:254:0
	.fnstart
	.cfi_startproc
@ %bb.0:
	.save	{r7, lr}
	push	{r7, lr}
	.cfi_def_cfa_offset 8
	.cfi_offset lr, -4
	.cfi_offset r7, -8
	.pad	#32
	sub	sp, #32
	.cfi_def_cfa_offset 40
	str	r0, [sp, #24]
	str	r1, [sp, #20]
	str	r2, [sp, #16]
.Ltmp2:
	.loc	2 260 9 prologue_end            @ packages/littlefs-v2.0.5/dfs_lfs.c:260:9
	ldr	r0, [sp, #24]
	.loc	2 260 14 is_stmt 0              @ packages/littlefs-v2.0.5/dfs_lfs.c:260:14
	ldr	r0, [r0]
	.loc	2 260 22                        @ packages/littlefs-v2.0.5/dfs_lfs.c:260:22
	ldrb	r0, [r0, #20]
.Ltmp3:
	.loc	2 260 9                         @ packages/littlefs-v2.0.5/dfs_lfs.c:260:9
	cmp	r0, #3
	beq	.LBB1_2
	b	.LBB1_1
.LBB1_1:
.Ltmp4:
	.loc	2 262 9 is_stmt 1               @ packages/littlefs-v2.0.5/dfs_lfs.c:262:9
	movw	r0, :lower16:.L.str.7
	movt	r0, :upper16:.L.str.7
	bl	rt_kprintf
	mvn	r0, #21
	.loc	2 263 9                         @ packages/littlefs-v2.0.5/dfs_lfs.c:263:9
	str	r0, [sp, #28]
	b	.LBB1_9
.Ltmp5:
.LBB1_2:
	.loc	2 266 5                         @ packages/littlefs-v2.0.5/dfs_lfs.c:266:5
	movw	r0, :lower16:_lfs_lock
	movt	r0, :upper16:_lfs_lock
	mov.w	r1, #-1
	bl	rt_mutex_take
	movs	r0, #0
	.loc	2 269 13                        @ packages/littlefs-v2.0.5/dfs_lfs.c:269:13
	bl	_get_disk
	.loc	2 269 11 is_stmt 0              @ packages/littlefs-v2.0.5/dfs_lfs.c:269:11
	str	r0, [sp, #8]
.Ltmp6:
	.loc	2 270 9 is_stmt 1               @ packages/littlefs-v2.0.5/dfs_lfs.c:270:9
	ldr	r0, [sp, #8]
.Ltmp7:
	.loc	2 270 9 is_stmt 0               @ packages/littlefs-v2.0.5/dfs_lfs.c:270:9
	adds	r0, #1
	cbnz	r0, .LBB1_4
	b	.LBB1_3
.LBB1_3:
.Ltmp8:
	.loc	2 272 9 is_stmt 1               @ packages/littlefs-v2.0.5/dfs_lfs.c:272:9
	movw	r0, :lower16:_lfs_lock
	movt	r0, :upper16:_lfs_lock
	bl	rt_mutex_release
	mvn	r0, #4
	.loc	2 273 9                         @ packages/littlefs-v2.0.5/dfs_lfs.c:273:9
	str	r0, [sp, #28]
	b	.LBB1_9
.Ltmp9:
.LBB1_4:
	.loc	2 0 9 is_stmt 0                 @ packages/littlefs-v2.0.5/dfs_lfs.c:0:9
	movs	r0, #192
	.loc	2 277 27 is_stmt 1              @ packages/littlefs-v2.0.5/dfs_lfs.c:277:27
	bl	rt_malloc
	.loc	2 277 13 is_stmt 0              @ packages/littlefs-v2.0.5/dfs_lfs.c:277:13
	str	r0, [sp, #4]
.Ltmp10:
	.loc	2 278 9 is_stmt 1               @ packages/littlefs-v2.0.5/dfs_lfs.c:278:9
	ldr	r0, [sp, #4]
.Ltmp11:
	.loc	2 278 9 is_stmt 0               @ packages/littlefs-v2.0.5/dfs_lfs.c:278:9
	cbnz	r0, .LBB1_6
	b	.LBB1_5
.LBB1_5:
.Ltmp12:
	.loc	2 280 9 is_stmt 1               @ packages/littlefs-v2.0.5/dfs_lfs.c:280:9
	movw	r0, :lower16:_lfs_lock
	movt	r0, :upper16:_lfs_lock
	bl	rt_mutex_release
	.loc	2 281 3                         @ packages/littlefs-v2.0.5/dfs_lfs.c:281:3
	movw	r0, :lower16:.L.str.4
	movt	r0, :upper16:.L.str.4
	bl	rt_kprintf
	mvn	r0, #11
	.loc	2 282 9                         @ packages/littlefs-v2.0.5/dfs_lfs.c:282:9
	str	r0, [sp, #28]
	b	.LBB1_9
.Ltmp13:
.LBB1_6:
	.loc	2 284 15                        @ packages/littlefs-v2.0.5/dfs_lfs.c:284:15
	ldr	r0, [sp, #4]
	movs	r1, #0
	movs	r2, #192
	.loc	2 284 5 is_stmt 0               @ packages/littlefs-v2.0.5/dfs_lfs.c:284:5
	bl	rt_memset
	.loc	2 286 23 is_stmt 1              @ packages/littlefs-v2.0.5/dfs_lfs.c:286:23
	ldr	r0, [sp, #4]
	.loc	2 286 32 is_stmt 0              @ packages/littlefs-v2.0.5/dfs_lfs.c:286:32
	adds	r0, #120
	.loc	2 286 64                        @ packages/littlefs-v2.0.5/dfs_lfs.c:286:64
	ldr	r1, [sp, #24]
	.loc	2 286 69                        @ packages/littlefs-v2.0.5/dfs_lfs.c:286:69
	ldr	r1, [r1]
	.loc	2 286 5                         @ packages/littlefs-v2.0.5/dfs_lfs.c:286:5
	bl	_lfs_load_config
	.loc	2 289 25 is_stmt 1              @ packages/littlefs-v2.0.5/dfs_lfs.c:289:25
	ldr	r0, [sp, #4]
	.loc	2 289 49 is_stmt 0              @ packages/littlefs-v2.0.5/dfs_lfs.c:289:49
	add.w	r1, r0, #120
	.loc	2 289 14                        @ packages/littlefs-v2.0.5/dfs_lfs.c:289:14
	bl	lfs_mount
	.loc	2 289 12                        @ packages/littlefs-v2.0.5/dfs_lfs.c:289:12
	str	r0, [sp, #12]
.Ltmp14:
	.loc	2 290 9 is_stmt 1               @ packages/littlefs-v2.0.5/dfs_lfs.c:290:9
	ldr	r0, [sp, #12]
.Ltmp15:
	.loc	2 290 9 is_stmt 0               @ packages/littlefs-v2.0.5/dfs_lfs.c:290:9
	cbz	r0, .LBB1_8
	b	.LBB1_7
.LBB1_7:
.Ltmp16:
	.loc	2 292 6 is_stmt 1               @ packages/littlefs-v2.0.5/dfs_lfs.c:292:6
	movw	r0, :lower16:_lfs_lock
	movt	r0, :upper16:_lfs_lock
	bl	rt_mutex_release
	.loc	2 294 17                        @ packages/littlefs-v2.0.5/dfs_lfs.c:294:17
	ldr	r0, [sp, #4]
	.loc	2 294 9 is_stmt 0               @ packages/littlefs-v2.0.5/dfs_lfs.c:294:9
	bl	rt_free
	mvn	r0, #4
	.loc	2 296 9 is_stmt 1               @ packages/littlefs-v2.0.5/dfs_lfs.c:296:9
	str	r0, [sp, #28]
	b	.LBB1_9
.Ltmp17:
.LBB1_8:
	.loc	2 300 24                        @ packages/littlefs-v2.0.5/dfs_lfs.c:300:24
	ldr	r0, [sp, #4]
	.loc	2 300 5 is_stmt 0               @ packages/littlefs-v2.0.5/dfs_lfs.c:300:5
	ldr	r1, [sp, #24]
	.loc	2 300 15                        @ packages/littlefs-v2.0.5/dfs_lfs.c:300:15
	str	r0, [r1, #12]
	.loc	2 301 29 is_stmt 1              @ packages/littlefs-v2.0.5/dfs_lfs.c:301:29
	ldr	r0, [sp, #4]
	.loc	2 301 20 is_stmt 0              @ packages/littlefs-v2.0.5/dfs_lfs.c:301:20
	ldr	r2, [sp, #8]
	.loc	2 301 5                         @ packages/littlefs-v2.0.5/dfs_lfs.c:301:5
	movw	r1, :lower16:_lfs_mount_tbl
	movt	r1, :upper16:_lfs_mount_tbl
	.loc	2 301 27                        @ packages/littlefs-v2.0.5/dfs_lfs.c:301:27
	str.w	r0, [r1, r2, lsl #2]
	.loc	2 302 5 is_stmt 1               @ packages/littlefs-v2.0.5/dfs_lfs.c:302:5
	movw	r0, :lower16:_lfs_lock
	movt	r0, :upper16:_lfs_lock
	bl	rt_mutex_release
	movs	r0, #0
	.loc	2 303 5                         @ packages/littlefs-v2.0.5/dfs_lfs.c:303:5
	str	r0, [sp, #28]
	b	.LBB1_9
.LBB1_9:
	.loc	2 304 1                         @ packages/littlefs-v2.0.5/dfs_lfs.c:304:1
	ldr	r0, [sp, #28]
	add	sp, #32
	pop	{r7, pc}
.Ltmp18:
.Lfunc_end1:
	.size	_dfs_lfs_mount, .Lfunc_end1-_dfs_lfs_mount
	.cfi_endproc
	.cantunwind
	.fnend
                                        @ -- End function
	.section	.text._dfs_lfs_unmount,"ax",%progbits
	.p2align	3                               @ -- Begin function _dfs_lfs_unmount
	.type	_dfs_lfs_unmount,%function
	.code	16                              @ @_dfs_lfs_unmount
	.thumb_func
_dfs_lfs_unmount:
.Lfunc_begin2:
	.loc	2 307 0                         @ packages/littlefs-v2.0.5/dfs_lfs.c:307:0
	.fnstart
	.cfi_startproc
@ %bb.0:
	.save	{r7, lr}
	push	{r7, lr}
	.cfi_def_cfa_offset 8
	.cfi_offset lr, -4
	.cfi_offset r7, -8
	.pad	#24
	sub	sp, #24
	.cfi_def_cfa_offset 32
	str	r0, [sp, #16]
.Ltmp19:
	.loc	2 312 5 prologue_end            @ packages/littlefs-v2.0.5/dfs_lfs.c:312:5
	ldr	r0, [sp, #16]
.Ltmp20:
	.loc	2 312 5 is_stmt 0               @ packages/littlefs-v2.0.5/dfs_lfs.c:312:5
	cbnz	r0, .LBB2_2
	b	.LBB2_1
.LBB2_1:
.Ltmp21:
	.loc	2 312 5                         @ packages/littlefs-v2.0.5/dfs_lfs.c:312:5
	movw	r0, :lower16:.L.str.10
	movt	r0, :upper16:.L.str.10
	movw	r1, :lower16:.L__FUNCTION__._dfs_lfs_unmount
	movt	r1, :upper16:.L__FUNCTION__._dfs_lfs_unmount
	mov.w	r2, #312
	bl	rt_assert_handler
	b	.LBB2_2
.Ltmp22:
.LBB2_2:
	.loc	2 313 5 is_stmt 1               @ packages/littlefs-v2.0.5/dfs_lfs.c:313:5
	ldr	r0, [sp, #16]
	ldr	r0, [r0, #12]
.Ltmp23:
	.loc	2 313 5 is_stmt 0               @ packages/littlefs-v2.0.5/dfs_lfs.c:313:5
	cbnz	r0, .LBB2_4
	b	.LBB2_3
.LBB2_3:
.Ltmp24:
	.loc	2 313 5                         @ packages/littlefs-v2.0.5/dfs_lfs.c:313:5
	movw	r0, :lower16:.L.str.11
	movt	r0, :upper16:.L.str.11
	movw	r1, :lower16:.L__FUNCTION__._dfs_lfs_unmount
	movt	r1, :upper16:.L__FUNCTION__._dfs_lfs_unmount
	movw	r2, #313
	bl	rt_assert_handler
	b	.LBB2_4
.Ltmp25:
.LBB2_4:
	.loc	2 315 5 is_stmt 1               @ packages/littlefs-v2.0.5/dfs_lfs.c:315:5
	movw	r0, :lower16:_lfs_lock
	movt	r0, :upper16:_lfs_lock
	mov.w	r1, #-1
	bl	rt_mutex_take
	.loc	2 317 23                        @ packages/littlefs-v2.0.5/dfs_lfs.c:317:23
	ldr	r0, [sp, #16]
	.loc	2 317 28 is_stmt 0              @ packages/littlefs-v2.0.5/dfs_lfs.c:317:28
	ldr	r0, [r0]
	.loc	2 317 13                        @ packages/littlefs-v2.0.5/dfs_lfs.c:317:13
	bl	_get_disk
	.loc	2 317 11                        @ packages/littlefs-v2.0.5/dfs_lfs.c:317:11
	str	r0, [sp, #8]
.Ltmp26:
	.loc	2 318 9 is_stmt 1               @ packages/littlefs-v2.0.5/dfs_lfs.c:318:9
	ldr	r0, [sp, #8]
.Ltmp27:
	.loc	2 318 9 is_stmt 0               @ packages/littlefs-v2.0.5/dfs_lfs.c:318:9
	adds	r0, #1
	cbnz	r0, .LBB2_6
	b	.LBB2_5
.LBB2_5:
.Ltmp28:
	.loc	2 320 9 is_stmt 1               @ packages/littlefs-v2.0.5/dfs_lfs.c:320:9
	movw	r0, :lower16:_lfs_lock
	movt	r0, :upper16:_lfs_lock
	bl	rt_mutex_release
	mvn	r0, #1
	.loc	2 321 9                         @ packages/littlefs-v2.0.5/dfs_lfs.c:321:9
	str	r0, [sp, #20]
	b	.LBB2_7
.Ltmp29:
.LBB2_6:
	.loc	2 323 20                        @ packages/littlefs-v2.0.5/dfs_lfs.c:323:20
	ldr	r2, [sp, #8]
	.loc	2 323 5 is_stmt 0               @ packages/littlefs-v2.0.5/dfs_lfs.c:323:5
	movw	r1, :lower16:_lfs_mount_tbl
	movt	r1, :upper16:_lfs_mount_tbl
	movs	r0, #0
	.loc	2 323 27                        @ packages/littlefs-v2.0.5/dfs_lfs.c:323:27
	str.w	r0, [r1, r2, lsl #2]
	.loc	2 325 27 is_stmt 1              @ packages/littlefs-v2.0.5/dfs_lfs.c:325:27
	ldr	r1, [sp, #16]
	.loc	2 325 32 is_stmt 0              @ packages/littlefs-v2.0.5/dfs_lfs.c:325:32
	ldr	r1, [r1, #12]
	.loc	2 325 13                        @ packages/littlefs-v2.0.5/dfs_lfs.c:325:13
	str	r1, [sp, #4]
	.loc	2 326 5 is_stmt 1               @ packages/littlefs-v2.0.5/dfs_lfs.c:326:5
	ldr	r1, [sp, #16]
	.loc	2 326 15 is_stmt 0              @ packages/littlefs-v2.0.5/dfs_lfs.c:326:15
	str	r0, [r1, #12]
	.loc	2 328 27 is_stmt 1              @ packages/littlefs-v2.0.5/dfs_lfs.c:328:27
	ldr	r0, [sp, #4]
	.loc	2 328 14 is_stmt 0              @ packages/littlefs-v2.0.5/dfs_lfs.c:328:14
	bl	lfs_unmount
	.loc	2 328 12                        @ packages/littlefs-v2.0.5/dfs_lfs.c:328:12
	str	r0, [sp, #12]
	.loc	2 329 5 is_stmt 1               @ packages/littlefs-v2.0.5/dfs_lfs.c:329:5
	movw	r0, :lower16:_lfs_lock
	movt	r0, :upper16:_lfs_lock
	bl	rt_mutex_release
	.loc	2 330 13                        @ packages/littlefs-v2.0.5/dfs_lfs.c:330:13
	ldr	r0, [sp, #4]
	.loc	2 330 5 is_stmt 0               @ packages/littlefs-v2.0.5/dfs_lfs.c:330:5
	bl	rt_free
	.loc	2 332 31 is_stmt 1              @ packages/littlefs-v2.0.5/dfs_lfs.c:332:31
	ldr	r0, [sp, #12]
	.loc	2 332 12 is_stmt 0              @ packages/littlefs-v2.0.5/dfs_lfs.c:332:12
	bl	_lfs_result_to_dfs
	.loc	2 332 5                         @ packages/littlefs-v2.0.5/dfs_lfs.c:332:5
	str	r0, [sp, #20]
	b	.LBB2_7
.LBB2_7:
	.loc	2 333 1 is_stmt 1               @ packages/littlefs-v2.0.5/dfs_lfs.c:333:1
	ldr	r0, [sp, #20]
	add	sp, #24
	pop	{r7, pc}
.Ltmp30:
.Lfunc_end2:
	.size	_dfs_lfs_unmount, .Lfunc_end2-_dfs_lfs_unmount
	.cfi_endproc
	.cantunwind
	.fnend
                                        @ -- End function
	.section	.text._dfs_lfs_mkfs,"ax",%progbits
	.p2align	3                               @ -- Begin function _dfs_lfs_mkfs
	.type	_dfs_lfs_mkfs,%function
	.code	16                              @ @_dfs_lfs_mkfs
	.thumb_func
_dfs_lfs_mkfs:
.Lfunc_begin3:
	.loc	2 336 0                         @ packages/littlefs-v2.0.5/dfs_lfs.c:336:0
	.fnstart
	.cfi_startproc
@ %bb.0:
	.save	{r7, lr}
	push	{r7, lr}
	.cfi_def_cfa_offset 8
	.cfi_offset lr, -4
	.cfi_offset r7, -8
	.pad	#24
	sub	sp, #24
	.cfi_def_cfa_offset 32
	str	r0, [sp, #16]
.Ltmp31:
	.loc	2 341 9 prologue_end            @ packages/littlefs-v2.0.5/dfs_lfs.c:341:9
	ldr	r0, [sp, #16]
.Ltmp32:
	.loc	2 341 9 is_stmt 0               @ packages/littlefs-v2.0.5/dfs_lfs.c:341:9
	cbnz	r0, .LBB3_2
	b	.LBB3_1
.LBB3_1:
	.loc	2 0 9                           @ packages/littlefs-v2.0.5/dfs_lfs.c:0:9
	mvn	r0, #21
.Ltmp33:
	.loc	2 343 9 is_stmt 1               @ packages/littlefs-v2.0.5/dfs_lfs.c:343:9
	str	r0, [sp, #20]
	b	.LBB3_17
.Ltmp34:
.LBB3_2:
	.loc	2 346 5                         @ packages/littlefs-v2.0.5/dfs_lfs.c:346:5
	movw	r0, :lower16:_lfs_lock
	movt	r0, :upper16:_lfs_lock
	mov.w	r1, #-1
	bl	rt_mutex_take
.Ltmp35:
	.loc	2 348 9                         @ packages/littlefs-v2.0.5/dfs_lfs.c:348:9
	ldr	r0, [sp, #16]
	.loc	2 348 17 is_stmt 0              @ packages/littlefs-v2.0.5/dfs_lfs.c:348:17
	ldrb	r0, [r0, #20]
.Ltmp36:
	.loc	2 348 9                         @ packages/littlefs-v2.0.5/dfs_lfs.c:348:9
	cmp	r0, #3
	beq	.LBB3_4
	b	.LBB3_3
.LBB3_3:
.Ltmp37:
	.loc	2 350 9 is_stmt 1               @ packages/littlefs-v2.0.5/dfs_lfs.c:350:9
	movw	r0, :lower16:_lfs_lock
	movt	r0, :upper16:_lfs_lock
	bl	rt_mutex_release
	.loc	2 351 9                         @ packages/littlefs-v2.0.5/dfs_lfs.c:351:9
	movw	r0, :lower16:.L.str.7
	movt	r0, :upper16:.L.str.7
	bl	rt_kprintf
	mvn	r0, #21
	.loc	2 352 9                         @ packages/littlefs-v2.0.5/dfs_lfs.c:352:9
	str	r0, [sp, #20]
	b	.LBB3_17
.Ltmp38:
.LBB3_4:
	.loc	2 355 23                        @ packages/littlefs-v2.0.5/dfs_lfs.c:355:23
	ldr	r0, [sp, #16]
	.loc	2 355 13 is_stmt 0              @ packages/littlefs-v2.0.5/dfs_lfs.c:355:13
	bl	_get_disk
	.loc	2 355 11                        @ packages/littlefs-v2.0.5/dfs_lfs.c:355:11
	str	r0, [sp, #8]
.Ltmp39:
	.loc	2 356 9 is_stmt 1               @ packages/littlefs-v2.0.5/dfs_lfs.c:356:9
	ldr	r0, [sp, #8]
.Ltmp40:
	.loc	2 356 9 is_stmt 0               @ packages/littlefs-v2.0.5/dfs_lfs.c:356:9
	adds	r0, #1
	cmp	r0, #0
	bne	.LBB3_10
	b	.LBB3_5
.LBB3_5:
	.loc	2 0 9                           @ packages/littlefs-v2.0.5/dfs_lfs.c:0:9
	movs	r0, #0
.Ltmp41:
	.loc	2 359 17 is_stmt 1              @ packages/littlefs-v2.0.5/dfs_lfs.c:359:17
	bl	_get_disk
	.loc	2 359 15 is_stmt 0              @ packages/littlefs-v2.0.5/dfs_lfs.c:359:15
	str	r0, [sp, #8]
.Ltmp42:
	.loc	2 360 13 is_stmt 1              @ packages/littlefs-v2.0.5/dfs_lfs.c:360:13
	ldr	r0, [sp, #8]
.Ltmp43:
	.loc	2 360 13 is_stmt 0              @ packages/littlefs-v2.0.5/dfs_lfs.c:360:13
	adds	r0, #1
	cbnz	r0, .LBB3_7
	b	.LBB3_6
.LBB3_6:
.Ltmp44:
	.loc	2 362 13 is_stmt 1              @ packages/littlefs-v2.0.5/dfs_lfs.c:362:13
	movw	r0, :lower16:_lfs_lock
	movt	r0, :upper16:_lfs_lock
	bl	rt_mutex_release
	.loc	2 364 13                        @ packages/littlefs-v2.0.5/dfs_lfs.c:364:13
	movw	r0, :lower16:.L.str.12
	movt	r0, :upper16:.L.str.12
	bl	rt_kprintf
	mvn	r0, #27
	.loc	2 366 13                        @ packages/littlefs-v2.0.5/dfs_lfs.c:366:13
	str	r0, [sp, #20]
	b	.LBB3_17
.Ltmp45:
.LBB3_7:
	.loc	2 0 13 is_stmt 0                @ packages/littlefs-v2.0.5/dfs_lfs.c:0:13
	movs	r0, #192
	.loc	2 370 19 is_stmt 1              @ packages/littlefs-v2.0.5/dfs_lfs.c:370:19
	bl	rt_malloc
	.loc	2 370 17 is_stmt 0              @ packages/littlefs-v2.0.5/dfs_lfs.c:370:17
	str	r0, [sp, #4]
.Ltmp46:
	.loc	2 372 13 is_stmt 1              @ packages/littlefs-v2.0.5/dfs_lfs.c:372:13
	ldr	r0, [sp, #4]
.Ltmp47:
	.loc	2 372 13 is_stmt 0              @ packages/littlefs-v2.0.5/dfs_lfs.c:372:13
	cbnz	r0, .LBB3_9
	b	.LBB3_8
.LBB3_8:
.Ltmp48:
	.loc	2 374 28 is_stmt 1              @ packages/littlefs-v2.0.5/dfs_lfs.c:374:28
	ldr	r2, [sp, #8]
	.loc	2 374 13 is_stmt 0              @ packages/littlefs-v2.0.5/dfs_lfs.c:374:13
	movw	r1, :lower16:_lfs_mount_tbl
	movt	r1, :upper16:_lfs_mount_tbl
	movs	r0, #0
	.loc	2 374 35                        @ packages/littlefs-v2.0.5/dfs_lfs.c:374:35
	str.w	r0, [r1, r2, lsl #2]
	.loc	2 375 13 is_stmt 1              @ packages/littlefs-v2.0.5/dfs_lfs.c:375:13
	movw	r0, :lower16:_lfs_lock
	movt	r0, :upper16:_lfs_lock
	bl	rt_mutex_release
	.loc	2 376 13                        @ packages/littlefs-v2.0.5/dfs_lfs.c:376:13
	movw	r0, :lower16:.L.str.4
	movt	r0, :upper16:.L.str.4
	bl	rt_kprintf
	mvn	r0, #11
	.loc	2 378 13                        @ packages/littlefs-v2.0.5/dfs_lfs.c:378:13
	str	r0, [sp, #20]
	b	.LBB3_17
.Ltmp49:
.LBB3_9:
	.loc	2 380 19                        @ packages/littlefs-v2.0.5/dfs_lfs.c:380:19
	ldr	r0, [sp, #4]
	movs	r1, #0
	movs	r2, #192
	.loc	2 380 9 is_stmt 0               @ packages/littlefs-v2.0.5/dfs_lfs.c:380:9
	bl	rt_memset
	.loc	2 382 27 is_stmt 1              @ packages/littlefs-v2.0.5/dfs_lfs.c:382:27
	ldr	r0, [sp, #4]
	.loc	2 382 36 is_stmt 0              @ packages/littlefs-v2.0.5/dfs_lfs.c:382:36
	adds	r0, #120
	.loc	2 382 68                        @ packages/littlefs-v2.0.5/dfs_lfs.c:382:68
	ldr	r1, [sp, #16]
	.loc	2 382 9                         @ packages/littlefs-v2.0.5/dfs_lfs.c:382:9
	bl	_lfs_load_config
	.loc	2 385 30 is_stmt 1              @ packages/littlefs-v2.0.5/dfs_lfs.c:385:30
	ldr	r0, [sp, #4]
	.loc	2 385 54 is_stmt 0              @ packages/littlefs-v2.0.5/dfs_lfs.c:385:54
	add.w	r1, r0, #120
	.loc	2 385 18                        @ packages/littlefs-v2.0.5/dfs_lfs.c:385:18
	bl	lfs_format
	.loc	2 385 16                        @ packages/littlefs-v2.0.5/dfs_lfs.c:385:16
	str	r0, [sp, #12]
	.loc	2 386 9 is_stmt 1               @ packages/littlefs-v2.0.5/dfs_lfs.c:386:9
	movw	r0, :lower16:_lfs_lock
	movt	r0, :upper16:_lfs_lock
	bl	rt_mutex_release
	.loc	2 387 35                        @ packages/littlefs-v2.0.5/dfs_lfs.c:387:35
	ldr	r0, [sp, #12]
	.loc	2 387 16 is_stmt 0              @ packages/littlefs-v2.0.5/dfs_lfs.c:387:16
	bl	_lfs_result_to_dfs
	.loc	2 387 9                         @ packages/littlefs-v2.0.5/dfs_lfs.c:387:9
	str	r0, [sp, #20]
	b	.LBB3_17
.Ltmp50:
.LBB3_10:
	.loc	2 390 30 is_stmt 1              @ packages/littlefs-v2.0.5/dfs_lfs.c:390:30
	ldr	r1, [sp, #8]
	.loc	2 390 15 is_stmt 0              @ packages/littlefs-v2.0.5/dfs_lfs.c:390:15
	movw	r0, :lower16:_lfs_mount_tbl
	movt	r0, :upper16:_lfs_mount_tbl
	ldr.w	r0, [r0, r1, lsl #2]
	.loc	2 390 13                        @ packages/littlefs-v2.0.5/dfs_lfs.c:390:13
	str	r0, [sp, #4]
	.loc	2 393 27 is_stmt 1              @ packages/littlefs-v2.0.5/dfs_lfs.c:393:27
	ldr	r0, [sp, #4]
	.loc	2 393 14 is_stmt 0              @ packages/littlefs-v2.0.5/dfs_lfs.c:393:14
	bl	lfs_unmount
	.loc	2 393 12                        @ packages/littlefs-v2.0.5/dfs_lfs.c:393:12
	str	r0, [sp, #12]
.Ltmp51:
	.loc	2 394 9 is_stmt 1               @ packages/littlefs-v2.0.5/dfs_lfs.c:394:9
	ldr	r0, [sp, #12]
.Ltmp52:
	.loc	2 394 9 is_stmt 0               @ packages/littlefs-v2.0.5/dfs_lfs.c:394:9
	cbz	r0, .LBB3_12
	b	.LBB3_11
.LBB3_11:
.Ltmp53:
	.loc	2 396 9 is_stmt 1               @ packages/littlefs-v2.0.5/dfs_lfs.c:396:9
	movw	r0, :lower16:_lfs_lock
	movt	r0, :upper16:_lfs_lock
	bl	rt_mutex_release
	.loc	2 397 35                        @ packages/littlefs-v2.0.5/dfs_lfs.c:397:35
	ldr	r0, [sp, #12]
	.loc	2 397 16 is_stmt 0              @ packages/littlefs-v2.0.5/dfs_lfs.c:397:16
	bl	_lfs_result_to_dfs
	.loc	2 397 9                         @ packages/littlefs-v2.0.5/dfs_lfs.c:397:9
	str	r0, [sp, #20]
	b	.LBB3_17
.Ltmp54:
.LBB3_12:
	.loc	2 400 20 is_stmt 1              @ packages/littlefs-v2.0.5/dfs_lfs.c:400:20
	ldr	r2, [sp, #8]
	.loc	2 400 5 is_stmt 0               @ packages/littlefs-v2.0.5/dfs_lfs.c:400:5
	movw	r1, :lower16:_lfs_mount_tbl
	movt	r1, :upper16:_lfs_mount_tbl
	movs	r0, #0
	.loc	2 400 27                        @ packages/littlefs-v2.0.5/dfs_lfs.c:400:27
	str.w	r0, [r1, r2, lsl #2]
	.loc	2 403 26 is_stmt 1              @ packages/littlefs-v2.0.5/dfs_lfs.c:403:26
	ldr	r0, [sp, #4]
	.loc	2 403 50 is_stmt 0              @ packages/littlefs-v2.0.5/dfs_lfs.c:403:50
	add.w	r1, r0, #120
	.loc	2 403 14                        @ packages/littlefs-v2.0.5/dfs_lfs.c:403:14
	bl	lfs_format
	.loc	2 403 12                        @ packages/littlefs-v2.0.5/dfs_lfs.c:403:12
	str	r0, [sp, #12]
.Ltmp55:
	.loc	2 404 9 is_stmt 1               @ packages/littlefs-v2.0.5/dfs_lfs.c:404:9
	ldr	r0, [sp, #12]
.Ltmp56:
	.loc	2 404 9 is_stmt 0               @ packages/littlefs-v2.0.5/dfs_lfs.c:404:9
	cbz	r0, .LBB3_14
	b	.LBB3_13
.LBB3_13:
.Ltmp57:
	.loc	2 406 9 is_stmt 1               @ packages/littlefs-v2.0.5/dfs_lfs.c:406:9
	movw	r0, :lower16:_lfs_lock
	movt	r0, :upper16:_lfs_lock
	bl	rt_mutex_release
	.loc	2 407 35                        @ packages/littlefs-v2.0.5/dfs_lfs.c:407:35
	ldr	r0, [sp, #12]
	.loc	2 407 16 is_stmt 0              @ packages/littlefs-v2.0.5/dfs_lfs.c:407:16
	bl	_lfs_result_to_dfs
	.loc	2 407 9                         @ packages/littlefs-v2.0.5/dfs_lfs.c:407:9
	str	r0, [sp, #20]
	b	.LBB3_17
.Ltmp58:
.LBB3_14:
	.loc	2 410 23 is_stmt 1              @ packages/littlefs-v2.0.5/dfs_lfs.c:410:23
	ldr	r0, [sp, #4]
	.loc	2 410 32 is_stmt 0              @ packages/littlefs-v2.0.5/dfs_lfs.c:410:32
	adds	r0, #120
	.loc	2 410 64                        @ packages/littlefs-v2.0.5/dfs_lfs.c:410:64
	ldr	r1, [sp, #16]
	.loc	2 410 5                         @ packages/littlefs-v2.0.5/dfs_lfs.c:410:5
	bl	_lfs_load_config
	.loc	2 413 25 is_stmt 1              @ packages/littlefs-v2.0.5/dfs_lfs.c:413:25
	ldr	r0, [sp, #4]
	.loc	2 413 49 is_stmt 0              @ packages/littlefs-v2.0.5/dfs_lfs.c:413:49
	add.w	r1, r0, #120
	.loc	2 413 14                        @ packages/littlefs-v2.0.5/dfs_lfs.c:413:14
	bl	lfs_mount
	.loc	2 413 12                        @ packages/littlefs-v2.0.5/dfs_lfs.c:413:12
	str	r0, [sp, #12]
.Ltmp59:
	.loc	2 414 9 is_stmt 1               @ packages/littlefs-v2.0.5/dfs_lfs.c:414:9
	ldr	r0, [sp, #12]
.Ltmp60:
	.loc	2 414 9 is_stmt 0               @ packages/littlefs-v2.0.5/dfs_lfs.c:414:9
	cbnz	r0, .LBB3_16
	b	.LBB3_15
.LBB3_15:
.Ltmp61:
	.loc	2 416 33 is_stmt 1              @ packages/littlefs-v2.0.5/dfs_lfs.c:416:33
	ldr	r0, [sp, #4]
	.loc	2 416 24 is_stmt 0              @ packages/littlefs-v2.0.5/dfs_lfs.c:416:24
	ldr	r2, [sp, #8]
	.loc	2 416 9                         @ packages/littlefs-v2.0.5/dfs_lfs.c:416:9
	movw	r1, :lower16:_lfs_mount_tbl
	movt	r1, :upper16:_lfs_mount_tbl
	.loc	2 416 31                        @ packages/littlefs-v2.0.5/dfs_lfs.c:416:31
	str.w	r0, [r1, r2, lsl #2]
	.loc	2 417 5 is_stmt 1               @ packages/littlefs-v2.0.5/dfs_lfs.c:417:5
	b	.LBB3_16
.Ltmp62:
.LBB3_16:
	.loc	2 419 5                         @ packages/littlefs-v2.0.5/dfs_lfs.c:419:5
	movw	r0, :lower16:_lfs_lock
	movt	r0, :upper16:_lfs_lock
	bl	rt_mutex_release
	.loc	2 420 31                        @ packages/littlefs-v2.0.5/dfs_lfs.c:420:31
	ldr	r0, [sp, #12]
	.loc	2 420 12 is_stmt 0              @ packages/littlefs-v2.0.5/dfs_lfs.c:420:12
	bl	_lfs_result_to_dfs
	.loc	2 420 5                         @ packages/littlefs-v2.0.5/dfs_lfs.c:420:5
	str	r0, [sp, #20]
	b	.LBB3_17
.LBB3_17:
	.loc	2 421 1 is_stmt 1               @ packages/littlefs-v2.0.5/dfs_lfs.c:421:1
	ldr	r0, [sp, #20]
	add	sp, #24
	pop	{r7, pc}
.Ltmp63:
.Lfunc_end3:
	.size	_dfs_lfs_mkfs, .Lfunc_end3-_dfs_lfs_mkfs
	.cfi_endproc
	.cantunwind
	.fnend
                                        @ -- End function
	.section	.text._dfs_lfs_statfs,"ax",%progbits
	.p2align	3                               @ -- Begin function _dfs_lfs_statfs
	.type	_dfs_lfs_statfs,%function
	.code	16                              @ @_dfs_lfs_statfs
	.thumb_func
_dfs_lfs_statfs:
.Lfunc_begin4:
	.loc	2 430 0                         @ packages/littlefs-v2.0.5/dfs_lfs.c:430:0
	.fnstart
	.cfi_startproc
@ %bb.0:
	.save	{r7, lr}
	push	{r7, lr}
	.cfi_def_cfa_offset 8
	.cfi_offset lr, -4
	.cfi_offset r7, -8
	.pad	#24
	sub	sp, #24
	.cfi_def_cfa_offset 32
	str	r0, [sp, #16]
	str	r1, [sp, #12]
	movs	r0, #0
.Ltmp64:
	.loc	2 433 16 prologue_end           @ packages/littlefs-v2.0.5/dfs_lfs.c:433:16
	str	r0, [sp]
.Ltmp65:
	.loc	2 435 5                         @ packages/littlefs-v2.0.5/dfs_lfs.c:435:5
	ldr	r0, [sp, #12]
.Ltmp66:
	.loc	2 435 5 is_stmt 0               @ packages/littlefs-v2.0.5/dfs_lfs.c:435:5
	cbnz	r0, .LBB4_2
	b	.LBB4_1
.LBB4_1:
.Ltmp67:
	.loc	2 435 5                         @ packages/littlefs-v2.0.5/dfs_lfs.c:435:5
	movw	r0, :lower16:.L.str.13
	movt	r0, :upper16:.L.str.13
	movw	r1, :lower16:.L__FUNCTION__._dfs_lfs_statfs
	movt	r1, :upper16:.L__FUNCTION__._dfs_lfs_statfs
	movw	r2, #435
	bl	rt_assert_handler
	b	.LBB4_2
.Ltmp68:
.LBB4_2:
	.loc	2 436 5 is_stmt 1               @ packages/littlefs-v2.0.5/dfs_lfs.c:436:5
	ldr	r0, [sp, #16]
.Ltmp69:
	.loc	2 436 5 is_stmt 0               @ packages/littlefs-v2.0.5/dfs_lfs.c:436:5
	cbnz	r0, .LBB4_4
	b	.LBB4_3
.LBB4_3:
.Ltmp70:
	.loc	2 436 5                         @ packages/littlefs-v2.0.5/dfs_lfs.c:436:5
	movw	r0, :lower16:.L.str.10
	movt	r0, :upper16:.L.str.10
	movw	r1, :lower16:.L__FUNCTION__._dfs_lfs_statfs
	movt	r1, :upper16:.L__FUNCTION__._dfs_lfs_statfs
	mov.w	r2, #436
	bl	rt_assert_handler
	b	.LBB4_4
.Ltmp71:
.LBB4_4:
	.loc	2 437 5 is_stmt 1               @ packages/littlefs-v2.0.5/dfs_lfs.c:437:5
	ldr	r0, [sp, #16]
	ldr	r0, [r0, #12]
.Ltmp72:
	.loc	2 437 5 is_stmt 0               @ packages/littlefs-v2.0.5/dfs_lfs.c:437:5
	cbnz	r0, .LBB4_6
	b	.LBB4_5
.LBB4_5:
.Ltmp73:
	.loc	2 437 5                         @ packages/littlefs-v2.0.5/dfs_lfs.c:437:5
	movw	r0, :lower16:.L.str.11
	movt	r0, :upper16:.L.str.11
	movw	r1, :lower16:.L__FUNCTION__._dfs_lfs_statfs
	movt	r1, :upper16:.L__FUNCTION__._dfs_lfs_statfs
	movw	r2, #437
	bl	rt_assert_handler
	b	.LBB4_6
.Ltmp74:
.LBB4_6:
	.loc	2 439 5 is_stmt 1               @ packages/littlefs-v2.0.5/dfs_lfs.c:439:5
	movw	r0, :lower16:_lfs_lock
	movt	r0, :upper16:_lfs_lock
	mov.w	r1, #-1
	bl	rt_mutex_take
	.loc	2 440 27                        @ packages/littlefs-v2.0.5/dfs_lfs.c:440:27
	ldr	r0, [sp, #16]
	.loc	2 440 32 is_stmt 0              @ packages/littlefs-v2.0.5/dfs_lfs.c:440:32
	ldr	r0, [r0, #12]
	.loc	2 440 13                        @ packages/littlefs-v2.0.5/dfs_lfs.c:440:13
	str	r0, [sp, #8]
	.loc	2 443 31 is_stmt 1              @ packages/littlefs-v2.0.5/dfs_lfs.c:443:31
	ldr	r0, [sp, #8]
	.loc	2 443 14 is_stmt 0              @ packages/littlefs-v2.0.5/dfs_lfs.c:443:14
	movw	r1, :lower16:_dfs_lfs_statfs_count
	movt	r1, :upper16:_dfs_lfs_statfs_count
	mov	r2, sp
	bl	lfs_fs_traverse
	.loc	2 443 12                        @ packages/littlefs-v2.0.5/dfs_lfs.c:443:12
	str	r0, [sp, #4]
.Ltmp75:
	.loc	2 444 9 is_stmt 1               @ packages/littlefs-v2.0.5/dfs_lfs.c:444:9
	ldr	r0, [sp, #4]
.Ltmp76:
	.loc	2 444 9 is_stmt 0               @ packages/littlefs-v2.0.5/dfs_lfs.c:444:9
	cbz	r0, .LBB4_8
	b	.LBB4_7
.LBB4_7:
.Ltmp77:
	.loc	2 446 9 is_stmt 1               @ packages/littlefs-v2.0.5/dfs_lfs.c:446:9
	movw	r0, :lower16:_lfs_lock
	movt	r0, :upper16:_lfs_lock
	bl	rt_mutex_release
	.loc	2 447 35                        @ packages/littlefs-v2.0.5/dfs_lfs.c:447:35
	ldr	r0, [sp, #4]
	.loc	2 447 16 is_stmt 0              @ packages/littlefs-v2.0.5/dfs_lfs.c:447:16
	bl	_lfs_result_to_dfs
	.loc	2 447 9                         @ packages/littlefs-v2.0.5/dfs_lfs.c:447:9
	str	r0, [sp, #20]
	b	.LBB4_9
.Ltmp78:
.LBB4_8:
	.loc	2 450 20 is_stmt 1              @ packages/littlefs-v2.0.5/dfs_lfs.c:450:20
	ldr	r0, [sp, #8]
	.loc	2 450 33 is_stmt 0              @ packages/littlefs-v2.0.5/dfs_lfs.c:450:33
	ldr.w	r0, [r0, #148]
	.loc	2 450 5                         @ packages/littlefs-v2.0.5/dfs_lfs.c:450:5
	ldr	r1, [sp, #12]
	.loc	2 450 18                        @ packages/littlefs-v2.0.5/dfs_lfs.c:450:18
	str	r0, [r1]
	.loc	2 451 21 is_stmt 1              @ packages/littlefs-v2.0.5/dfs_lfs.c:451:21
	ldr	r0, [sp, #8]
	.loc	2 451 34 is_stmt 0              @ packages/littlefs-v2.0.5/dfs_lfs.c:451:34
	ldr.w	r0, [r0, #152]
	.loc	2 451 5                         @ packages/littlefs-v2.0.5/dfs_lfs.c:451:5
	ldr	r1, [sp, #12]
	.loc	2 451 19                        @ packages/littlefs-v2.0.5/dfs_lfs.c:451:19
	str	r0, [r1, #4]
	.loc	2 452 20 is_stmt 1              @ packages/littlefs-v2.0.5/dfs_lfs.c:452:20
	ldr	r0, [sp, #8]
	.loc	2 452 33 is_stmt 0              @ packages/littlefs-v2.0.5/dfs_lfs.c:452:33
	ldr.w	r0, [r0, #152]
	.loc	2 452 47                        @ packages/littlefs-v2.0.5/dfs_lfs.c:452:47
	ldr	r1, [sp]
	.loc	2 452 45                        @ packages/littlefs-v2.0.5/dfs_lfs.c:452:45
	subs	r0, r0, r1
	.loc	2 452 5                         @ packages/littlefs-v2.0.5/dfs_lfs.c:452:5
	ldr	r1, [sp, #12]
	.loc	2 452 18                        @ packages/littlefs-v2.0.5/dfs_lfs.c:452:18
	str	r0, [r1, #8]
	.loc	2 454 5 is_stmt 1               @ packages/littlefs-v2.0.5/dfs_lfs.c:454:5
	movw	r0, :lower16:_lfs_lock
	movt	r0, :upper16:_lfs_lock
	bl	rt_mutex_release
	movs	r0, #0
	.loc	2 455 5                         @ packages/littlefs-v2.0.5/dfs_lfs.c:455:5
	str	r0, [sp, #20]
	b	.LBB4_9
.LBB4_9:
	.loc	2 456 1                         @ packages/littlefs-v2.0.5/dfs_lfs.c:456:1
	ldr	r0, [sp, #20]
	add	sp, #24
	pop	{r7, pc}
.Ltmp79:
.Lfunc_end4:
	.size	_dfs_lfs_statfs, .Lfunc_end4-_dfs_lfs_statfs
	.cfi_endproc
	.cantunwind
	.fnend
                                        @ -- End function
	.section	.text._dfs_lfs_unlink,"ax",%progbits
	.p2align	3                               @ -- Begin function _dfs_lfs_unlink
	.type	_dfs_lfs_unlink,%function
	.code	16                              @ @_dfs_lfs_unlink
	.thumb_func
_dfs_lfs_unlink:
.Lfunc_begin5:
	.loc	2 459 0                         @ packages/littlefs-v2.0.5/dfs_lfs.c:459:0
	.fnstart
	.cfi_startproc
@ %bb.0:
	.save	{r7, lr}
	push	{r7, lr}
	.cfi_def_cfa_offset 8
	.cfi_offset lr, -4
	.cfi_offset r7, -8
	.pad	#24
	sub	sp, #24
	.cfi_def_cfa_offset 32
	str	r0, [sp, #20]
	str	r1, [sp, #16]
.Ltmp80:
	.loc	2 463 5 prologue_end            @ packages/littlefs-v2.0.5/dfs_lfs.c:463:5
	ldr	r0, [sp, #20]
.Ltmp81:
	.loc	2 463 5 is_stmt 0               @ packages/littlefs-v2.0.5/dfs_lfs.c:463:5
	cbnz	r0, .LBB5_2
	b	.LBB5_1
.LBB5_1:
.Ltmp82:
	.loc	2 463 5                         @ packages/littlefs-v2.0.5/dfs_lfs.c:463:5
	movw	r0, :lower16:.L.str.10
	movt	r0, :upper16:.L.str.10
	movw	r1, :lower16:.L__FUNCTION__._dfs_lfs_unlink
	movt	r1, :upper16:.L__FUNCTION__._dfs_lfs_unlink
	movw	r2, #463
	bl	rt_assert_handler
	b	.LBB5_2
.Ltmp83:
.LBB5_2:
	.loc	2 464 5 is_stmt 1               @ packages/littlefs-v2.0.5/dfs_lfs.c:464:5
	ldr	r0, [sp, #20]
	ldr	r0, [r0, #12]
.Ltmp84:
	.loc	2 464 5 is_stmt 0               @ packages/littlefs-v2.0.5/dfs_lfs.c:464:5
	cbnz	r0, .LBB5_4
	b	.LBB5_3
.LBB5_3:
.Ltmp85:
	.loc	2 464 5                         @ packages/littlefs-v2.0.5/dfs_lfs.c:464:5
	movw	r0, :lower16:.L.str.11
	movt	r0, :upper16:.L.str.11
	movw	r1, :lower16:.L__FUNCTION__._dfs_lfs_unlink
	movt	r1, :upper16:.L__FUNCTION__._dfs_lfs_unlink
	mov.w	r2, #464
	bl	rt_assert_handler
	b	.LBB5_4
.Ltmp86:
.LBB5_4:
	.loc	2 466 5 is_stmt 1               @ packages/littlefs-v2.0.5/dfs_lfs.c:466:5
	movw	r0, :lower16:_lfs_lock
	movt	r0, :upper16:_lfs_lock
	str	r0, [sp, #4]                    @ 4-byte Spill
	mov.w	r1, #-1
	bl	rt_mutex_take
	.loc	2 467 27                        @ packages/littlefs-v2.0.5/dfs_lfs.c:467:27
	ldr	r0, [sp, #20]
	.loc	2 467 32 is_stmt 0              @ packages/littlefs-v2.0.5/dfs_lfs.c:467:32
	ldr	r0, [r0, #12]
	.loc	2 467 13                        @ packages/littlefs-v2.0.5/dfs_lfs.c:467:13
	str	r0, [sp, #12]
	.loc	2 469 26 is_stmt 1              @ packages/littlefs-v2.0.5/dfs_lfs.c:469:26
	ldr	r0, [sp, #12]
	.loc	2 469 40 is_stmt 0              @ packages/littlefs-v2.0.5/dfs_lfs.c:469:40
	ldr	r1, [sp, #16]
	.loc	2 469 14                        @ packages/littlefs-v2.0.5/dfs_lfs.c:469:14
	bl	lfs_remove
	mov	r1, r0
	.loc	2 469 12                        @ packages/littlefs-v2.0.5/dfs_lfs.c:469:12
	ldr	r0, [sp, #4]                    @ 4-byte Reload
	str	r1, [sp, #8]
	.loc	2 470 5 is_stmt 1               @ packages/littlefs-v2.0.5/dfs_lfs.c:470:5
	bl	rt_mutex_release
	.loc	2 472 31                        @ packages/littlefs-v2.0.5/dfs_lfs.c:472:31
	ldr	r0, [sp, #8]
	.loc	2 472 12 is_stmt 0              @ packages/littlefs-v2.0.5/dfs_lfs.c:472:12
	bl	_lfs_result_to_dfs
	.loc	2 472 5                         @ packages/littlefs-v2.0.5/dfs_lfs.c:472:5
	add	sp, #24
	pop	{r7, pc}
.Ltmp87:
.Lfunc_end5:
	.size	_dfs_lfs_unlink, .Lfunc_end5-_dfs_lfs_unlink
	.cfi_endproc
	.cantunwind
	.fnend
                                        @ -- End function
	.section	.text._dfs_lfs_stat,"ax",%progbits
	.p2align	3                               @ -- Begin function _dfs_lfs_stat
	.type	_dfs_lfs_stat,%function
	.code	16                              @ @_dfs_lfs_stat
	.thumb_func
_dfs_lfs_stat:
.Lfunc_begin6:
	.loc	2 497 0 is_stmt 1               @ packages/littlefs-v2.0.5/dfs_lfs.c:497:0
	.fnstart
	.cfi_startproc
@ %bb.0:
	.save	{r7, lr}
	push	{r7, lr}
	.cfi_def_cfa_offset 8
	.cfi_offset lr, -4
	.cfi_offset r7, -8
	.pad	#296
	sub	sp, #296
	.cfi_def_cfa_offset 304
	str	r0, [sp, #288]
	str	r1, [sp, #284]
	str	r2, [sp, #280]
.Ltmp88:
	.loc	2 502 5 prologue_end            @ packages/littlefs-v2.0.5/dfs_lfs.c:502:5
	ldr	r0, [sp, #288]
.Ltmp89:
	.loc	2 502 5 is_stmt 0               @ packages/littlefs-v2.0.5/dfs_lfs.c:502:5
	cbnz	r0, .LBB6_2
	b	.LBB6_1
.LBB6_1:
.Ltmp90:
	.loc	2 502 5                         @ packages/littlefs-v2.0.5/dfs_lfs.c:502:5
	movw	r0, :lower16:.L.str.10
	movt	r0, :upper16:.L.str.10
	movw	r1, :lower16:.L__FUNCTION__._dfs_lfs_stat
	movt	r1, :upper16:.L__FUNCTION__._dfs_lfs_stat
	mov.w	r2, #502
	bl	rt_assert_handler
	b	.LBB6_2
.Ltmp91:
.LBB6_2:
	.loc	2 503 5 is_stmt 1               @ packages/littlefs-v2.0.5/dfs_lfs.c:503:5
	ldr	r0, [sp, #288]
	ldr	r0, [r0, #12]
.Ltmp92:
	.loc	2 503 5 is_stmt 0               @ packages/littlefs-v2.0.5/dfs_lfs.c:503:5
	cbnz	r0, .LBB6_4
	b	.LBB6_3
.LBB6_3:
.Ltmp93:
	.loc	2 503 5                         @ packages/littlefs-v2.0.5/dfs_lfs.c:503:5
	movw	r0, :lower16:.L.str.11
	movt	r0, :upper16:.L.str.11
	movw	r1, :lower16:.L__FUNCTION__._dfs_lfs_stat
	movt	r1, :upper16:.L__FUNCTION__._dfs_lfs_stat
	movw	r2, #503
	bl	rt_assert_handler
	b	.LBB6_4
.Ltmp94:
.LBB6_4:
	.loc	2 505 5 is_stmt 1               @ packages/littlefs-v2.0.5/dfs_lfs.c:505:5
	movw	r0, :lower16:_lfs_lock
	movt	r0, :upper16:_lfs_lock
	str	r0, [sp, #4]                    @ 4-byte Spill
	mov.w	r1, #-1
	bl	rt_mutex_take
	.loc	2 506 27                        @ packages/littlefs-v2.0.5/dfs_lfs.c:506:27
	ldr	r0, [sp, #288]
	.loc	2 506 32 is_stmt 0              @ packages/littlefs-v2.0.5/dfs_lfs.c:506:32
	ldr	r0, [r0, #12]
	.loc	2 506 13                        @ packages/littlefs-v2.0.5/dfs_lfs.c:506:13
	str	r0, [sp, #276]
	.loc	2 508 24 is_stmt 1              @ packages/littlefs-v2.0.5/dfs_lfs.c:508:24
	ldr	r0, [sp, #276]
	.loc	2 508 38 is_stmt 0              @ packages/littlefs-v2.0.5/dfs_lfs.c:508:38
	ldr	r1, [sp, #284]
	add	r2, sp, #8
	.loc	2 508 14                        @ packages/littlefs-v2.0.5/dfs_lfs.c:508:14
	bl	lfs_stat
	mov	r1, r0
	.loc	2 508 12                        @ packages/littlefs-v2.0.5/dfs_lfs.c:508:12
	ldr	r0, [sp, #4]                    @ 4-byte Reload
	str	r1, [sp, #272]
	.loc	2 509 5 is_stmt 1               @ packages/littlefs-v2.0.5/dfs_lfs.c:509:5
	bl	rt_mutex_release
.Ltmp95:
	.loc	2 511 9                         @ packages/littlefs-v2.0.5/dfs_lfs.c:511:9
	ldr	r0, [sp, #272]
.Ltmp96:
	.loc	2 511 9 is_stmt 0               @ packages/littlefs-v2.0.5/dfs_lfs.c:511:9
	cbz	r0, .LBB6_6
	b	.LBB6_5
.LBB6_5:
.Ltmp97:
	.loc	2 513 35 is_stmt 1              @ packages/littlefs-v2.0.5/dfs_lfs.c:513:35
	ldr	r0, [sp, #272]
	.loc	2 513 16 is_stmt 0              @ packages/littlefs-v2.0.5/dfs_lfs.c:513:16
	bl	_lfs_result_to_dfs
	.loc	2 513 9                         @ packages/littlefs-v2.0.5/dfs_lfs.c:513:9
	str	r0, [sp, #292]
	b	.LBB6_7
.Ltmp98:
.LBB6_6:
	.loc	2 516 21 is_stmt 1              @ packages/littlefs-v2.0.5/dfs_lfs.c:516:21
	ldr	r0, [sp, #280]
	add	r1, sp, #8
	.loc	2 516 5 is_stmt 0               @ packages/littlefs-v2.0.5/dfs_lfs.c:516:5
	bl	_dfs_lfs_tostat
	movs	r0, #0
	.loc	2 517 5 is_stmt 1               @ packages/littlefs-v2.0.5/dfs_lfs.c:517:5
	str	r0, [sp, #292]
	b	.LBB6_7
.LBB6_7:
	.loc	2 518 1                         @ packages/littlefs-v2.0.5/dfs_lfs.c:518:1
	ldr	r0, [sp, #292]
	add	sp, #296
	pop	{r7, pc}
.Ltmp99:
.Lfunc_end6:
	.size	_dfs_lfs_stat, .Lfunc_end6-_dfs_lfs_stat
	.cfi_endproc
	.cantunwind
	.fnend
                                        @ -- End function
	.section	.text._dfs_lfs_rename,"ax",%progbits
	.p2align	3                               @ -- Begin function _dfs_lfs_rename
	.type	_dfs_lfs_rename,%function
	.code	16                              @ @_dfs_lfs_rename
	.thumb_func
_dfs_lfs_rename:
.Lfunc_begin7:
	.loc	2 521 0                         @ packages/littlefs-v2.0.5/dfs_lfs.c:521:0
	.fnstart
	.cfi_startproc
@ %bb.0:
	.save	{r7, lr}
	push	{r7, lr}
	.cfi_def_cfa_offset 8
	.cfi_offset lr, -4
	.cfi_offset r7, -8
	.pad	#24
	sub	sp, #24
	.cfi_def_cfa_offset 32
	str	r0, [sp, #20]
	str	r1, [sp, #16]
	str	r2, [sp, #12]
.Ltmp100:
	.loc	2 525 5 prologue_end            @ packages/littlefs-v2.0.5/dfs_lfs.c:525:5
	ldr	r0, [sp, #20]
.Ltmp101:
	.loc	2 525 5 is_stmt 0               @ packages/littlefs-v2.0.5/dfs_lfs.c:525:5
	cbnz	r0, .LBB7_2
	b	.LBB7_1
.LBB7_1:
.Ltmp102:
	.loc	2 525 5                         @ packages/littlefs-v2.0.5/dfs_lfs.c:525:5
	movw	r0, :lower16:.L.str.10
	movt	r0, :upper16:.L.str.10
	movw	r1, :lower16:.L__FUNCTION__._dfs_lfs_rename
	movt	r1, :upper16:.L__FUNCTION__._dfs_lfs_rename
	movw	r2, #525
	bl	rt_assert_handler
	b	.LBB7_2
.Ltmp103:
.LBB7_2:
	.loc	2 526 5 is_stmt 1               @ packages/littlefs-v2.0.5/dfs_lfs.c:526:5
	ldr	r0, [sp, #20]
	ldr	r0, [r0, #12]
.Ltmp104:
	.loc	2 526 5 is_stmt 0               @ packages/littlefs-v2.0.5/dfs_lfs.c:526:5
	cbnz	r0, .LBB7_4
	b	.LBB7_3
.LBB7_3:
.Ltmp105:
	.loc	2 526 5                         @ packages/littlefs-v2.0.5/dfs_lfs.c:526:5
	movw	r0, :lower16:.L.str.11
	movt	r0, :upper16:.L.str.11
	movw	r1, :lower16:.L__FUNCTION__._dfs_lfs_rename
	movt	r1, :upper16:.L__FUNCTION__._dfs_lfs_rename
	movw	r2, #526
	bl	rt_assert_handler
	b	.LBB7_4
.Ltmp106:
.LBB7_4:
	.loc	2 528 5 is_stmt 1               @ packages/littlefs-v2.0.5/dfs_lfs.c:528:5
	movw	r0, :lower16:_lfs_lock
	movt	r0, :upper16:_lfs_lock
	str	r0, [sp]                        @ 4-byte Spill
	mov.w	r1, #-1
	bl	rt_mutex_take
	.loc	2 529 27                        @ packages/littlefs-v2.0.5/dfs_lfs.c:529:27
	ldr	r0, [sp, #20]
	.loc	2 529 32 is_stmt 0              @ packages/littlefs-v2.0.5/dfs_lfs.c:529:32
	ldr	r0, [r0, #12]
	.loc	2 529 13                        @ packages/littlefs-v2.0.5/dfs_lfs.c:529:13
	str	r0, [sp, #8]
	.loc	2 531 26 is_stmt 1              @ packages/littlefs-v2.0.5/dfs_lfs.c:531:26
	ldr	r0, [sp, #8]
	.loc	2 531 40 is_stmt 0              @ packages/littlefs-v2.0.5/dfs_lfs.c:531:40
	ldr	r1, [sp, #16]
	.loc	2 531 46                        @ packages/littlefs-v2.0.5/dfs_lfs.c:531:46
	ldr	r2, [sp, #12]
	.loc	2 531 14                        @ packages/littlefs-v2.0.5/dfs_lfs.c:531:14
	bl	lfs_rename
	mov	r1, r0
	.loc	2 531 12                        @ packages/littlefs-v2.0.5/dfs_lfs.c:531:12
	ldr	r0, [sp]                        @ 4-byte Reload
	str	r1, [sp, #4]
	.loc	2 532 5 is_stmt 1               @ packages/littlefs-v2.0.5/dfs_lfs.c:532:5
	bl	rt_mutex_release
	.loc	2 534 31                        @ packages/littlefs-v2.0.5/dfs_lfs.c:534:31
	ldr	r0, [sp, #4]
	.loc	2 534 12 is_stmt 0              @ packages/littlefs-v2.0.5/dfs_lfs.c:534:12
	bl	_lfs_result_to_dfs
	.loc	2 534 5                         @ packages/littlefs-v2.0.5/dfs_lfs.c:534:5
	add	sp, #24
	pop	{r7, pc}
.Ltmp107:
.Lfunc_end7:
	.size	_dfs_lfs_rename, .Lfunc_end7-_dfs_lfs_rename
	.cfi_endproc
	.cantunwind
	.fnend
                                        @ -- End function
	.section	.text._dfs_lfs_open,"ax",%progbits
	.p2align	3                               @ -- Begin function _dfs_lfs_open
	.type	_dfs_lfs_open,%function
	.code	16                              @ @_dfs_lfs_open
	.thumb_func
_dfs_lfs_open:
.Lfunc_begin8:
	.loc	2 541 0 is_stmt 1               @ packages/littlefs-v2.0.5/dfs_lfs.c:541:0
	.fnstart
	.cfi_startproc
@ %bb.0:
	.save	{r7, lr}
	push	{r7, lr}
	.cfi_def_cfa_offset 8
	.cfi_offset lr, -4
	.cfi_offset r7, -8
	.pad	#32
	sub	sp, #32
	.cfi_def_cfa_offset 40
	str	r0, [sp, #24]
	movs	r0, #0
.Ltmp108:
	.loc	2 545 9 prologue_end            @ packages/littlefs-v2.0.5/dfs_lfs.c:545:9
	str	r0, [sp, #8]
.Ltmp109:
	.loc	2 547 5                         @ packages/littlefs-v2.0.5/dfs_lfs.c:547:5
	ldr	r0, [sp, #24]
.Ltmp110:
	.loc	2 547 5 is_stmt 0               @ packages/littlefs-v2.0.5/dfs_lfs.c:547:5
	cbnz	r0, .LBB8_2
	b	.LBB8_1
.LBB8_1:
.Ltmp111:
	.loc	2 547 5                         @ packages/littlefs-v2.0.5/dfs_lfs.c:547:5
	movw	r0, :lower16:.L.str.2
	movt	r0, :upper16:.L.str.2
	movw	r1, :lower16:.L__FUNCTION__._dfs_lfs_open
	movt	r1, :upper16:.L__FUNCTION__._dfs_lfs_open
	movw	r2, #547
	bl	rt_assert_handler
	b	.LBB8_2
.Ltmp112:
.LBB8_2:
	.loc	2 548 5 is_stmt 1               @ packages/littlefs-v2.0.5/dfs_lfs.c:548:5
	ldr	r0, [sp, #24]
	ldr	r0, [r0, #32]
.Ltmp113:
	.loc	2 548 5 is_stmt 0               @ packages/littlefs-v2.0.5/dfs_lfs.c:548:5
	cbnz	r0, .LBB8_4
	b	.LBB8_3
.LBB8_3:
.Ltmp114:
	.loc	2 548 5                         @ packages/littlefs-v2.0.5/dfs_lfs.c:548:5
	movw	r0, :lower16:.L.str.3
	movt	r0, :upper16:.L.str.3
	movw	r1, :lower16:.L__FUNCTION__._dfs_lfs_open
	movt	r1, :upper16:.L__FUNCTION__._dfs_lfs_open
	mov.w	r2, #548
	bl	rt_assert_handler
	b	.LBB8_4
.Ltmp115:
.LBB8_4:
	.loc	2 550 5 is_stmt 1               @ packages/littlefs-v2.0.5/dfs_lfs.c:550:5
	movw	r0, :lower16:_lfs_lock
	movt	r0, :upper16:_lfs_lock
	mov.w	r1, #-1
	bl	rt_mutex_take
	.loc	2 551 35                        @ packages/littlefs-v2.0.5/dfs_lfs.c:551:35
	ldr	r0, [sp, #24]
	.loc	2 551 41 is_stmt 0              @ packages/littlefs-v2.0.5/dfs_lfs.c:551:41
	ldr	r0, [r0, #32]
	.loc	2 551 9                         @ packages/littlefs-v2.0.5/dfs_lfs.c:551:9
	str	r0, [sp, #20]
	.loc	2 552 27 is_stmt 1              @ packages/littlefs-v2.0.5/dfs_lfs.c:552:27
	ldr	r0, [sp, #20]
	.loc	2 552 32 is_stmt 0              @ packages/littlefs-v2.0.5/dfs_lfs.c:552:32
	ldr	r0, [r0, #12]
	.loc	2 552 13                        @ packages/littlefs-v2.0.5/dfs_lfs.c:552:13
	str	r0, [sp, #16]
.Ltmp116:
	.loc	2 554 9 is_stmt 1               @ packages/littlefs-v2.0.5/dfs_lfs.c:554:9
	ldr	r0, [sp, #24]
.Ltmp117:
	.loc	2 554 9 is_stmt 0               @ packages/littlefs-v2.0.5/dfs_lfs.c:554:9
	ldrb	r0, [r0, #22]
	lsls	r0, r0, #31
	cmp	r0, #0
	beq	.LBB8_17
	b	.LBB8_5
.LBB8_5:
	.loc	2 0 9                           @ packages/littlefs-v2.0.5/dfs_lfs.c:0:9
	movs	r0, #88
.Ltmp118:
	.loc	2 556 36 is_stmt 1              @ packages/littlefs-v2.0.5/dfs_lfs.c:556:36
	bl	rt_malloc
	.loc	2 556 23 is_stmt 0              @ packages/littlefs-v2.0.5/dfs_lfs.c:556:23
	str	r0, [sp, #4]
.Ltmp119:
	.loc	2 557 13 is_stmt 1              @ packages/littlefs-v2.0.5/dfs_lfs.c:557:13
	ldr	r0, [sp, #4]
.Ltmp120:
	.loc	2 557 13 is_stmt 0              @ packages/littlefs-v2.0.5/dfs_lfs.c:557:13
	cbnz	r0, .LBB8_7
	b	.LBB8_6
.LBB8_6:
.Ltmp121:
	.loc	2 559 13 is_stmt 1              @ packages/littlefs-v2.0.5/dfs_lfs.c:559:13
	movw	r0, :lower16:.L.str.4
	movt	r0, :upper16:.L.str.4
	bl	rt_kprintf
	mvn	r0, #11
	.loc	2 560 20                        @ packages/littlefs-v2.0.5/dfs_lfs.c:560:20
	str	r0, [sp, #12]
	.loc	2 562 13                        @ packages/littlefs-v2.0.5/dfs_lfs.c:562:13
	b	.LBB8_14
.Ltmp122:
.LBB8_7:
	.loc	2 564 19                        @ packages/littlefs-v2.0.5/dfs_lfs.c:564:19
	ldr	r0, [sp, #4]
	movs	r1, #0
	movs	r2, #88
	.loc	2 564 9 is_stmt 0               @ packages/littlefs-v2.0.5/dfs_lfs.c:564:9
	bl	rt_memset
	.loc	2 565 28 is_stmt 1              @ packages/littlefs-v2.0.5/dfs_lfs.c:565:28
	ldr	r0, [sp, #16]
	.loc	2 565 9 is_stmt 0               @ packages/littlefs-v2.0.5/dfs_lfs.c:565:9
	ldr	r1, [sp, #4]
	.loc	2 565 25                        @ packages/littlefs-v2.0.5/dfs_lfs.c:565:25
	str	r0, [r1]
.Ltmp123:
	.loc	2 567 13 is_stmt 1              @ packages/littlefs-v2.0.5/dfs_lfs.c:567:13
	ldr	r0, [sp, #24]
.Ltmp124:
	.loc	2 567 13 is_stmt 0              @ packages/littlefs-v2.0.5/dfs_lfs.c:567:13
	ldrb	r0, [r0, #20]
	lsls	r0, r0, #25
	cmp	r0, #0
	bpl	.LBB8_11
	b	.LBB8_8
.LBB8_8:
.Ltmp125:
	.loc	2 569 32 is_stmt 1              @ packages/littlefs-v2.0.5/dfs_lfs.c:569:32
	ldr	r0, [sp, #4]
	.loc	2 569 44 is_stmt 0              @ packages/littlefs-v2.0.5/dfs_lfs.c:569:44
	ldr	r0, [r0]
	.loc	2 569 49                        @ packages/littlefs-v2.0.5/dfs_lfs.c:569:49
	ldr	r1, [sp, #24]
	.loc	2 569 55                        @ packages/littlefs-v2.0.5/dfs_lfs.c:569:55
	ldr	r1, [r1, #4]
	.loc	2 569 22                        @ packages/littlefs-v2.0.5/dfs_lfs.c:569:22
	bl	lfs_mkdir
	.loc	2 569 20                        @ packages/littlefs-v2.0.5/dfs_lfs.c:569:20
	str	r0, [sp, #12]
.Ltmp126:
	.loc	2 570 17 is_stmt 1              @ packages/littlefs-v2.0.5/dfs_lfs.c:570:17
	ldr	r0, [sp, #12]
.Ltmp127:
	.loc	2 570 17 is_stmt 0              @ packages/littlefs-v2.0.5/dfs_lfs.c:570:17
	cbz	r0, .LBB8_10
	b	.LBB8_9
.LBB8_9:
.Ltmp128:
	.loc	2 572 17 is_stmt 1              @ packages/littlefs-v2.0.5/dfs_lfs.c:572:17
	b	.LBB8_14
.Ltmp129:
.LBB8_10:
	.loc	2 574 9                         @ packages/littlefs-v2.0.5/dfs_lfs.c:574:9
	b	.LBB8_11
.Ltmp130:
.LBB8_11:
	.loc	2 576 31                        @ packages/littlefs-v2.0.5/dfs_lfs.c:576:31
	ldr	r1, [sp, #4]
	.loc	2 576 43 is_stmt 0              @ packages/littlefs-v2.0.5/dfs_lfs.c:576:43
	ldr	r0, [r1], #4
	.loc	2 576 68                        @ packages/littlefs-v2.0.5/dfs_lfs.c:576:68
	ldr	r2, [sp, #24]
	.loc	2 576 74                        @ packages/littlefs-v2.0.5/dfs_lfs.c:576:74
	ldr	r2, [r2, #4]
	.loc	2 576 18                        @ packages/littlefs-v2.0.5/dfs_lfs.c:576:18
	bl	lfs_dir_open
	.loc	2 576 16                        @ packages/littlefs-v2.0.5/dfs_lfs.c:576:16
	str	r0, [sp, #12]
.Ltmp131:
	.loc	2 577 13 is_stmt 1              @ packages/littlefs-v2.0.5/dfs_lfs.c:577:13
	ldr	r0, [sp, #12]
.Ltmp132:
	.loc	2 577 13 is_stmt 0              @ packages/littlefs-v2.0.5/dfs_lfs.c:577:13
	cbz	r0, .LBB8_13
	b	.LBB8_12
.LBB8_12:
.Ltmp133:
	.loc	2 579 13 is_stmt 1              @ packages/littlefs-v2.0.5/dfs_lfs.c:579:13
	b	.LBB8_14
.Ltmp134:
.LBB8_13:
	.loc	2 583 33                        @ packages/littlefs-v2.0.5/dfs_lfs.c:583:33
	ldr	r0, [sp, #4]
	.loc	2 583 13 is_stmt 0              @ packages/littlefs-v2.0.5/dfs_lfs.c:583:13
	ldr	r1, [sp, #24]
	.loc	2 583 24                        @ packages/littlefs-v2.0.5/dfs_lfs.c:583:24
	str	r0, [r1, #32]
	.loc	2 584 13 is_stmt 1              @ packages/littlefs-v2.0.5/dfs_lfs.c:584:13
	movw	r0, :lower16:_lfs_lock
	movt	r0, :upper16:_lfs_lock
	bl	rt_mutex_release
	movs	r0, #0
	.loc	2 585 13                        @ packages/littlefs-v2.0.5/dfs_lfs.c:585:13
	str	r0, [sp, #28]
	b	.LBB8_39
.Ltmp135:
.LBB8_14:
	@DEBUG_LABEL: _error_dir
	.loc	2 589 13                        @ packages/littlefs-v2.0.5/dfs_lfs.c:589:13
	ldr	r0, [sp, #4]
.Ltmp136:
	.loc	2 589 13 is_stmt 0              @ packages/littlefs-v2.0.5/dfs_lfs.c:589:13
	cbz	r0, .LBB8_16
	b	.LBB8_15
.LBB8_15:
.Ltmp137:
	.loc	2 591 21 is_stmt 1              @ packages/littlefs-v2.0.5/dfs_lfs.c:591:21
	ldr	r0, [sp, #4]
	.loc	2 591 13 is_stmt 0              @ packages/littlefs-v2.0.5/dfs_lfs.c:591:13
	bl	rt_free
	.loc	2 592 9 is_stmt 1               @ packages/littlefs-v2.0.5/dfs_lfs.c:592:9
	b	.LBB8_16
.Ltmp138:
.LBB8_16:
	.loc	2 594 9                         @ packages/littlefs-v2.0.5/dfs_lfs.c:594:9
	movw	r0, :lower16:_lfs_lock
	movt	r0, :upper16:_lfs_lock
	bl	rt_mutex_release
	.loc	2 595 35                        @ packages/littlefs-v2.0.5/dfs_lfs.c:595:35
	ldr	r0, [sp, #12]
	.loc	2 595 16 is_stmt 0              @ packages/littlefs-v2.0.5/dfs_lfs.c:595:16
	bl	_lfs_result_to_dfs
	.loc	2 595 9                         @ packages/littlefs-v2.0.5/dfs_lfs.c:595:9
	str	r0, [sp, #28]
	b	.LBB8_39
.Ltmp139:
.LBB8_17:
	.loc	2 0 9                           @ packages/littlefs-v2.0.5/dfs_lfs.c:0:9
	movs	r0, #88
.Ltmp140:
	.loc	2 599 36 is_stmt 1              @ packages/littlefs-v2.0.5/dfs_lfs.c:599:36
	bl	rt_malloc
	.loc	2 599 23 is_stmt 0              @ packages/littlefs-v2.0.5/dfs_lfs.c:599:23
	str	r0, [sp]
.Ltmp141:
	.loc	2 600 13 is_stmt 1              @ packages/littlefs-v2.0.5/dfs_lfs.c:600:13
	ldr	r0, [sp]
.Ltmp142:
	.loc	2 600 13 is_stmt 0              @ packages/littlefs-v2.0.5/dfs_lfs.c:600:13
	cbnz	r0, .LBB8_19
	b	.LBB8_18
.LBB8_18:
.Ltmp143:
	.loc	2 602 13 is_stmt 1              @ packages/littlefs-v2.0.5/dfs_lfs.c:602:13
	movw	r0, :lower16:.L.str.4
	movt	r0, :upper16:.L.str.4
	bl	rt_kprintf
	mvn	r0, #11
	.loc	2 603 20                        @ packages/littlefs-v2.0.5/dfs_lfs.c:603:20
	str	r0, [sp, #12]
	.loc	2 605 13                        @ packages/littlefs-v2.0.5/dfs_lfs.c:605:13
	b	.LBB8_36
.Ltmp144:
.LBB8_19:
	.loc	2 607 19                        @ packages/littlefs-v2.0.5/dfs_lfs.c:607:19
	ldr	r0, [sp]
	movs	r1, #0
	movs	r2, #88
	.loc	2 607 9 is_stmt 0               @ packages/littlefs-v2.0.5/dfs_lfs.c:607:9
	bl	rt_memset
	.loc	2 608 28 is_stmt 1              @ packages/littlefs-v2.0.5/dfs_lfs.c:608:28
	ldr	r0, [sp, #16]
	.loc	2 608 9 is_stmt 0               @ packages/littlefs-v2.0.5/dfs_lfs.c:608:9
	ldr	r1, [sp]
	.loc	2 608 25                        @ packages/littlefs-v2.0.5/dfs_lfs.c:608:25
	str	r0, [r1]
.Ltmp145:
	.loc	2 610 14 is_stmt 1              @ packages/littlefs-v2.0.5/dfs_lfs.c:610:14
	ldr	r0, [sp, #24]
.Ltmp146:
	.loc	2 610 13 is_stmt 0              @ packages/littlefs-v2.0.5/dfs_lfs.c:610:13
	ldrb	r0, [r0, #20]
	lsls	r0, r0, #30
	cbnz	r0, .LBB8_21
	b	.LBB8_20
.LBB8_20:
.Ltmp147:
	.loc	2 611 19 is_stmt 1              @ packages/littlefs-v2.0.5/dfs_lfs.c:611:19
	ldr	r0, [sp, #8]
	orr	r0, r0, #1
	str	r0, [sp, #8]
	.loc	2 611 13 is_stmt 0              @ packages/littlefs-v2.0.5/dfs_lfs.c:611:13
	b	.LBB8_21
.Ltmp148:
.LBB8_21:
	.loc	2 612 14 is_stmt 1              @ packages/littlefs-v2.0.5/dfs_lfs.c:612:14
	ldr	r0, [sp, #24]
	.loc	2 612 20 is_stmt 0              @ packages/littlefs-v2.0.5/dfs_lfs.c:612:20
	ldr	r0, [r0, #20]
	.loc	2 612 26                        @ packages/littlefs-v2.0.5/dfs_lfs.c:612:26
	and	r0, r0, #3
.Ltmp149:
	.loc	2 612 13                        @ packages/littlefs-v2.0.5/dfs_lfs.c:612:13
	cmp	r0, #1
	bne	.LBB8_23
	b	.LBB8_22
.LBB8_22:
.Ltmp150:
	.loc	2 613 19 is_stmt 1              @ packages/littlefs-v2.0.5/dfs_lfs.c:613:19
	ldr	r0, [sp, #8]
	orr	r0, r0, #2
	str	r0, [sp, #8]
	.loc	2 613 13 is_stmt 0              @ packages/littlefs-v2.0.5/dfs_lfs.c:613:13
	b	.LBB8_23
.Ltmp151:
.LBB8_23:
	.loc	2 614 14 is_stmt 1              @ packages/littlefs-v2.0.5/dfs_lfs.c:614:14
	ldr	r0, [sp, #24]
	.loc	2 614 20 is_stmt 0              @ packages/littlefs-v2.0.5/dfs_lfs.c:614:20
	ldr	r0, [r0, #20]
	.loc	2 614 26                        @ packages/littlefs-v2.0.5/dfs_lfs.c:614:26
	and	r0, r0, #3
.Ltmp152:
	.loc	2 614 13                        @ packages/littlefs-v2.0.5/dfs_lfs.c:614:13
	cmp	r0, #2
	bne	.LBB8_25
	b	.LBB8_24
.LBB8_24:
.Ltmp153:
	.loc	2 615 19 is_stmt 1              @ packages/littlefs-v2.0.5/dfs_lfs.c:615:19
	ldr	r0, [sp, #8]
	orr	r0, r0, #3
	str	r0, [sp, #8]
	.loc	2 615 13 is_stmt 0              @ packages/littlefs-v2.0.5/dfs_lfs.c:615:13
	b	.LBB8_25
.Ltmp154:
.LBB8_25:
	.loc	2 616 13 is_stmt 1              @ packages/littlefs-v2.0.5/dfs_lfs.c:616:13
	ldr	r0, [sp, #24]
.Ltmp155:
	.loc	2 616 13 is_stmt 0              @ packages/littlefs-v2.0.5/dfs_lfs.c:616:13
	ldrb	r0, [r0, #20]
	lsls	r0, r0, #25
	cmp	r0, #0
	bpl	.LBB8_27
	b	.LBB8_26
.LBB8_26:
.Ltmp156:
	.loc	2 617 19 is_stmt 1              @ packages/littlefs-v2.0.5/dfs_lfs.c:617:19
	ldr	r0, [sp, #8]
	orr	r0, r0, #256
	str	r0, [sp, #8]
	.loc	2 617 13 is_stmt 0              @ packages/littlefs-v2.0.5/dfs_lfs.c:617:13
	b	.LBB8_27
.Ltmp157:
.LBB8_27:
	.loc	2 618 13 is_stmt 1              @ packages/littlefs-v2.0.5/dfs_lfs.c:618:13
	ldr	r0, [sp, #24]
.Ltmp158:
	.loc	2 618 13 is_stmt 0              @ packages/littlefs-v2.0.5/dfs_lfs.c:618:13
	ldrb	r0, [r0, #20]
	lsls	r0, r0, #24
	cmp	r0, #0
	bpl	.LBB8_29
	b	.LBB8_28
.LBB8_28:
.Ltmp159:
	.loc	2 619 19 is_stmt 1              @ packages/littlefs-v2.0.5/dfs_lfs.c:619:19
	ldr	r0, [sp, #8]
	orr	r0, r0, #512
	str	r0, [sp, #8]
	.loc	2 619 13 is_stmt 0              @ packages/littlefs-v2.0.5/dfs_lfs.c:619:13
	b	.LBB8_29
.Ltmp160:
.LBB8_29:
	.loc	2 620 13 is_stmt 1              @ packages/littlefs-v2.0.5/dfs_lfs.c:620:13
	ldr	r0, [sp, #24]
.Ltmp161:
	.loc	2 620 13 is_stmt 0              @ packages/littlefs-v2.0.5/dfs_lfs.c:620:13
	ldrb	r0, [r0, #21]
	lsls	r0, r0, #30
	cmp	r0, #0
	bpl	.LBB8_31
	b	.LBB8_30
.LBB8_30:
.Ltmp162:
	.loc	2 621 19 is_stmt 1              @ packages/littlefs-v2.0.5/dfs_lfs.c:621:19
	ldr	r0, [sp, #8]
	orr	r0, r0, #1024
	str	r0, [sp, #8]
	.loc	2 621 13 is_stmt 0              @ packages/littlefs-v2.0.5/dfs_lfs.c:621:13
	b	.LBB8_31
.Ltmp163:
.LBB8_31:
	.loc	2 622 13 is_stmt 1              @ packages/littlefs-v2.0.5/dfs_lfs.c:622:13
	ldr	r0, [sp, #24]
.Ltmp164:
	.loc	2 622 13 is_stmt 0              @ packages/littlefs-v2.0.5/dfs_lfs.c:622:13
	ldrb	r0, [r0, #21]
	lsls	r0, r0, #29
	cmp	r0, #0
	bpl	.LBB8_33
	b	.LBB8_32
.LBB8_32:
.Ltmp165:
	.loc	2 623 19 is_stmt 1              @ packages/littlefs-v2.0.5/dfs_lfs.c:623:19
	ldr	r0, [sp, #8]
	orr	r0, r0, #2048
	str	r0, [sp, #8]
	.loc	2 623 13 is_stmt 0              @ packages/littlefs-v2.0.5/dfs_lfs.c:623:13
	b	.LBB8_33
.Ltmp166:
.LBB8_33:
	.loc	2 625 32 is_stmt 1              @ packages/littlefs-v2.0.5/dfs_lfs.c:625:32
	ldr	r1, [sp]
	.loc	2 625 44 is_stmt 0              @ packages/littlefs-v2.0.5/dfs_lfs.c:625:44
	ldr	r0, [r1], #4
	.loc	2 625 70                        @ packages/littlefs-v2.0.5/dfs_lfs.c:625:70
	ldr	r2, [sp, #24]
	.loc	2 625 76                        @ packages/littlefs-v2.0.5/dfs_lfs.c:625:76
	ldr	r2, [r2, #4]
	.loc	2 625 82                        @ packages/littlefs-v2.0.5/dfs_lfs.c:625:82
	ldr	r3, [sp, #8]
	.loc	2 625 18                        @ packages/littlefs-v2.0.5/dfs_lfs.c:625:18
	bl	lfs_file_open
	.loc	2 625 16                        @ packages/littlefs-v2.0.5/dfs_lfs.c:625:16
	str	r0, [sp, #12]
.Ltmp167:
	.loc	2 626 13 is_stmt 1              @ packages/littlefs-v2.0.5/dfs_lfs.c:626:13
	ldr	r0, [sp, #12]
.Ltmp168:
	.loc	2 626 13 is_stmt 0              @ packages/littlefs-v2.0.5/dfs_lfs.c:626:13
	cbz	r0, .LBB8_35
	b	.LBB8_34
.LBB8_34:
.Ltmp169:
	.loc	2 628 13 is_stmt 1              @ packages/littlefs-v2.0.5/dfs_lfs.c:628:13
	b	.LBB8_36
.Ltmp170:
.LBB8_35:
	.loc	2 632 33                        @ packages/littlefs-v2.0.5/dfs_lfs.c:632:33
	ldr	r0, [sp]
	.loc	2 632 13 is_stmt 0              @ packages/littlefs-v2.0.5/dfs_lfs.c:632:13
	ldr	r1, [sp, #24]
	.loc	2 632 24                        @ packages/littlefs-v2.0.5/dfs_lfs.c:632:24
	str	r0, [r1, #32]
	.loc	2 633 25 is_stmt 1              @ packages/littlefs-v2.0.5/dfs_lfs.c:633:25
	ldr	r0, [sp]
	.loc	2 633 44 is_stmt 0              @ packages/littlefs-v2.0.5/dfs_lfs.c:633:44
	ldr	r0, [r0, #56]
	.loc	2 633 13                        @ packages/littlefs-v2.0.5/dfs_lfs.c:633:13
	ldr	r1, [sp, #24]
	.loc	2 633 23                        @ packages/littlefs-v2.0.5/dfs_lfs.c:633:23
	str	r0, [r1, #28]
	.loc	2 634 26 is_stmt 1              @ packages/littlefs-v2.0.5/dfs_lfs.c:634:26
	ldr	r0, [sp]
	.loc	2 634 49 is_stmt 0              @ packages/littlefs-v2.0.5/dfs_lfs.c:634:49
	ldr	r0, [r0, #48]
	.loc	2 634 13                        @ packages/littlefs-v2.0.5/dfs_lfs.c:634:13
	ldr	r1, [sp, #24]
	.loc	2 634 24                        @ packages/littlefs-v2.0.5/dfs_lfs.c:634:24
	str	r0, [r1, #24]
	.loc	2 635 13 is_stmt 1              @ packages/littlefs-v2.0.5/dfs_lfs.c:635:13
	movw	r0, :lower16:_lfs_lock
	movt	r0, :upper16:_lfs_lock
	bl	rt_mutex_release
	movs	r0, #0
	.loc	2 636 13                        @ packages/littlefs-v2.0.5/dfs_lfs.c:636:13
	str	r0, [sp, #28]
	b	.LBB8_39
.Ltmp171:
.LBB8_36:
	@DEBUG_LABEL: _error_file
	.loc	2 640 13                        @ packages/littlefs-v2.0.5/dfs_lfs.c:640:13
	ldr	r0, [sp]
.Ltmp172:
	.loc	2 640 13 is_stmt 0              @ packages/littlefs-v2.0.5/dfs_lfs.c:640:13
	cbz	r0, .LBB8_38
	b	.LBB8_37
.LBB8_37:
.Ltmp173:
	.loc	2 642 21 is_stmt 1              @ packages/littlefs-v2.0.5/dfs_lfs.c:642:21
	ldr	r0, [sp]
	.loc	2 642 13 is_stmt 0              @ packages/littlefs-v2.0.5/dfs_lfs.c:642:13
	bl	rt_free
	.loc	2 643 9 is_stmt 1               @ packages/littlefs-v2.0.5/dfs_lfs.c:643:9
	b	.LBB8_38
.Ltmp174:
.LBB8_38:
	.loc	2 645 9                         @ packages/littlefs-v2.0.5/dfs_lfs.c:645:9
	movw	r0, :lower16:_lfs_lock
	movt	r0, :upper16:_lfs_lock
	bl	rt_mutex_release
	.loc	2 646 35                        @ packages/littlefs-v2.0.5/dfs_lfs.c:646:35
	ldr	r0, [sp, #12]
	.loc	2 646 16 is_stmt 0              @ packages/littlefs-v2.0.5/dfs_lfs.c:646:16
	bl	_lfs_result_to_dfs
	.loc	2 646 9                         @ packages/littlefs-v2.0.5/dfs_lfs.c:646:9
	str	r0, [sp, #28]
	b	.LBB8_39
.Ltmp175:
.LBB8_39:
	.loc	2 648 1 is_stmt 1               @ packages/littlefs-v2.0.5/dfs_lfs.c:648:1
	ldr	r0, [sp, #28]
	add	sp, #32
	pop	{r7, pc}
.Ltmp176:
.Lfunc_end8:
	.size	_dfs_lfs_open, .Lfunc_end8-_dfs_lfs_open
	.cfi_endproc
	.cantunwind
	.fnend
                                        @ -- End function
	.section	.text._dfs_lfs_close,"ax",%progbits
	.p2align	3                               @ -- Begin function _dfs_lfs_close
	.type	_dfs_lfs_close,%function
	.code	16                              @ @_dfs_lfs_close
	.thumb_func
_dfs_lfs_close:
.Lfunc_begin9:
	.loc	2 651 0                         @ packages/littlefs-v2.0.5/dfs_lfs.c:651:0
	.fnstart
	.cfi_startproc
@ %bb.0:
	.save	{r7, lr}
	push	{r7, lr}
	.cfi_def_cfa_offset 8
	.cfi_offset lr, -4
	.cfi_offset r7, -8
	.pad	#16
	sub	sp, #16
	.cfi_def_cfa_offset 24
	str	r0, [sp, #12]
.Ltmp177:
	.loc	2 654 5 prologue_end            @ packages/littlefs-v2.0.5/dfs_lfs.c:654:5
	ldr	r0, [sp, #12]
.Ltmp178:
	.loc	2 654 5 is_stmt 0               @ packages/littlefs-v2.0.5/dfs_lfs.c:654:5
	cbnz	r0, .LBB9_2
	b	.LBB9_1
.LBB9_1:
.Ltmp179:
	.loc	2 654 5                         @ packages/littlefs-v2.0.5/dfs_lfs.c:654:5
	movw	r0, :lower16:.L.str.2
	movt	r0, :upper16:.L.str.2
	movw	r1, :lower16:.L__FUNCTION__._dfs_lfs_close
	movt	r1, :upper16:.L__FUNCTION__._dfs_lfs_close
	movw	r2, #654
	bl	rt_assert_handler
	b	.LBB9_2
.Ltmp180:
.LBB9_2:
	.loc	2 655 5 is_stmt 1               @ packages/littlefs-v2.0.5/dfs_lfs.c:655:5
	ldr	r0, [sp, #12]
	ldr	r0, [r0, #32]
.Ltmp181:
	.loc	2 655 5 is_stmt 0               @ packages/littlefs-v2.0.5/dfs_lfs.c:655:5
	cbnz	r0, .LBB9_4
	b	.LBB9_3
.LBB9_3:
.Ltmp182:
	.loc	2 655 5                         @ packages/littlefs-v2.0.5/dfs_lfs.c:655:5
	movw	r0, :lower16:.L.str.3
	movt	r0, :upper16:.L.str.3
	movw	r1, :lower16:.L__FUNCTION__._dfs_lfs_close
	movt	r1, :upper16:.L__FUNCTION__._dfs_lfs_close
	movw	r2, #655
	bl	rt_assert_handler
	b	.LBB9_4
.Ltmp183:
.LBB9_4:
	.loc	2 657 5 is_stmt 1               @ packages/littlefs-v2.0.5/dfs_lfs.c:657:5
	movw	r0, :lower16:_lfs_lock
	movt	r0, :upper16:_lfs_lock
	mov.w	r1, #-1
	bl	rt_mutex_take
	.loc	2 658 33                        @ packages/littlefs-v2.0.5/dfs_lfs.c:658:33
	ldr	r0, [sp, #12]
	.loc	2 658 39 is_stmt 0              @ packages/littlefs-v2.0.5/dfs_lfs.c:658:39
	ldr	r0, [r0, #32]
	.loc	2 658 16                        @ packages/littlefs-v2.0.5/dfs_lfs.c:658:16
	str	r0, [sp, #4]
.Ltmp184:
	.loc	2 660 9 is_stmt 1               @ packages/littlefs-v2.0.5/dfs_lfs.c:660:9
	ldr	r0, [sp, #12]
	.loc	2 660 15 is_stmt 0              @ packages/littlefs-v2.0.5/dfs_lfs.c:660:15
	ldrh	r0, [r0, #2]
.Ltmp185:
	.loc	2 660 9                         @ packages/littlefs-v2.0.5/dfs_lfs.c:660:9
	cmp	r0, #2
	bne	.LBB9_6
	b	.LBB9_5
.LBB9_5:
.Ltmp186:
	.loc	2 662 32 is_stmt 1              @ packages/littlefs-v2.0.5/dfs_lfs.c:662:32
	ldr	r1, [sp, #4]
	.loc	2 662 44 is_stmt 0              @ packages/littlefs-v2.0.5/dfs_lfs.c:662:44
	ldr	r0, [r1], #4
	.loc	2 662 18                        @ packages/littlefs-v2.0.5/dfs_lfs.c:662:18
	bl	lfs_dir_close
	.loc	2 662 16                        @ packages/littlefs-v2.0.5/dfs_lfs.c:662:16
	str	r0, [sp, #8]
	.loc	2 663 5 is_stmt 1               @ packages/littlefs-v2.0.5/dfs_lfs.c:663:5
	b	.LBB9_7
.Ltmp187:
.LBB9_6:
	.loc	2 666 33                        @ packages/littlefs-v2.0.5/dfs_lfs.c:666:33
	ldr	r1, [sp, #4]
	.loc	2 666 45 is_stmt 0              @ packages/littlefs-v2.0.5/dfs_lfs.c:666:45
	ldr	r0, [r1], #4
	.loc	2 666 18                        @ packages/littlefs-v2.0.5/dfs_lfs.c:666:18
	bl	lfs_file_close
	.loc	2 666 16                        @ packages/littlefs-v2.0.5/dfs_lfs.c:666:16
	str	r0, [sp, #8]
	b	.LBB9_7
.Ltmp188:
.LBB9_7:
	.loc	2 669 13 is_stmt 1              @ packages/littlefs-v2.0.5/dfs_lfs.c:669:13
	ldr	r0, [sp, #4]
	.loc	2 669 5 is_stmt 0               @ packages/littlefs-v2.0.5/dfs_lfs.c:669:5
	bl	rt_free
	.loc	2 670 5 is_stmt 1               @ packages/littlefs-v2.0.5/dfs_lfs.c:670:5
	movw	r0, :lower16:_lfs_lock
	movt	r0, :upper16:_lfs_lock
	bl	rt_mutex_release
	.loc	2 672 31                        @ packages/littlefs-v2.0.5/dfs_lfs.c:672:31
	ldr	r0, [sp, #8]
	.loc	2 672 12 is_stmt 0              @ packages/littlefs-v2.0.5/dfs_lfs.c:672:12
	bl	_lfs_result_to_dfs
	.loc	2 672 5                         @ packages/littlefs-v2.0.5/dfs_lfs.c:672:5
	add	sp, #16
	pop	{r7, pc}
.Ltmp189:
.Lfunc_end9:
	.size	_dfs_lfs_close, .Lfunc_end9-_dfs_lfs_close
	.cfi_endproc
	.cantunwind
	.fnend
                                        @ -- End function
	.section	.text._dfs_lfs_ioctl,"ax",%progbits
	.p2align	3                               @ -- Begin function _dfs_lfs_ioctl
	.type	_dfs_lfs_ioctl,%function
	.code	16                              @ @_dfs_lfs_ioctl
	.thumb_func
_dfs_lfs_ioctl:
.Lfunc_begin10:
	.loc	2 676 0 is_stmt 1               @ packages/littlefs-v2.0.5/dfs_lfs.c:676:0
	.fnstart
	.cfi_startproc
@ %bb.0:
	.pad	#12
	sub	sp, #12
	.cfi_def_cfa_offset 12
	str	r0, [sp, #8]
	str	r1, [sp, #4]
	str	r2, [sp]
	mvn	r0, #37
.Ltmp190:
	.loc	2 677 5 prologue_end            @ packages/littlefs-v2.0.5/dfs_lfs.c:677:5
	add	sp, #12
	bx	lr
.Ltmp191:
.Lfunc_end10:
	.size	_dfs_lfs_ioctl, .Lfunc_end10-_dfs_lfs_ioctl
	.cfi_endproc
	.cantunwind
	.fnend
                                        @ -- End function
	.section	.text._dfs_lfs_read,"ax",%progbits
	.p2align	3                               @ -- Begin function _dfs_lfs_read
	.type	_dfs_lfs_read,%function
	.code	16                              @ @_dfs_lfs_read
	.thumb_func
_dfs_lfs_read:
.Lfunc_begin11:
	.loc	2 681 0                         @ packages/littlefs-v2.0.5/dfs_lfs.c:681:0
	.fnstart
	.cfi_startproc
@ %bb.0:
	.save	{r7, lr}
	push	{r7, lr}
	.cfi_def_cfa_offset 8
	.cfi_offset lr, -4
	.cfi_offset r7, -8
	.pad	#24
	sub	sp, #24
	.cfi_def_cfa_offset 32
	str	r0, [sp, #16]
	str	r1, [sp, #12]
	str	r2, [sp, #8]
.Ltmp192:
	.loc	2 685 5 prologue_end            @ packages/littlefs-v2.0.5/dfs_lfs.c:685:5
	ldr	r0, [sp, #16]
.Ltmp193:
	.loc	2 685 5 is_stmt 0               @ packages/littlefs-v2.0.5/dfs_lfs.c:685:5
	cbnz	r0, .LBB11_2
	b	.LBB11_1
.LBB11_1:
.Ltmp194:
	.loc	2 685 5                         @ packages/littlefs-v2.0.5/dfs_lfs.c:685:5
	movw	r0, :lower16:.L.str.2
	movt	r0, :upper16:.L.str.2
	movw	r1, :lower16:.L__FUNCTION__._dfs_lfs_read
	movt	r1, :upper16:.L__FUNCTION__._dfs_lfs_read
	movw	r2, #685
	bl	rt_assert_handler
	b	.LBB11_2
.Ltmp195:
.LBB11_2:
	.loc	2 686 5 is_stmt 1               @ packages/littlefs-v2.0.5/dfs_lfs.c:686:5
	ldr	r0, [sp, #16]
	ldr	r0, [r0, #32]
.Ltmp196:
	.loc	2 686 5 is_stmt 0               @ packages/littlefs-v2.0.5/dfs_lfs.c:686:5
	cbnz	r0, .LBB11_4
	b	.LBB11_3
.LBB11_3:
.Ltmp197:
	.loc	2 686 5                         @ packages/littlefs-v2.0.5/dfs_lfs.c:686:5
	movw	r0, :lower16:.L.str.3
	movt	r0, :upper16:.L.str.3
	movw	r1, :lower16:.L__FUNCTION__._dfs_lfs_read
	movt	r1, :upper16:.L__FUNCTION__._dfs_lfs_read
	movw	r2, #686
	bl	rt_assert_handler
	b	.LBB11_4
.Ltmp198:
.LBB11_4:
	.loc	2 688 5 is_stmt 1               @ packages/littlefs-v2.0.5/dfs_lfs.c:688:5
	movw	r0, :lower16:_lfs_lock
	movt	r0, :upper16:_lfs_lock
	mov.w	r1, #-1
	bl	rt_mutex_take
.Ltmp199:
	.loc	2 690 9                         @ packages/littlefs-v2.0.5/dfs_lfs.c:690:9
	ldr	r0, [sp, #16]
	.loc	2 690 15 is_stmt 0              @ packages/littlefs-v2.0.5/dfs_lfs.c:690:15
	ldrh	r0, [r0, #2]
.Ltmp200:
	.loc	2 690 9                         @ packages/littlefs-v2.0.5/dfs_lfs.c:690:9
	cmp	r0, #2
	bne	.LBB11_6
	b	.LBB11_5
.LBB11_5:
.Ltmp201:
	.loc	2 692 9 is_stmt 1               @ packages/littlefs-v2.0.5/dfs_lfs.c:692:9
	movw	r0, :lower16:_lfs_lock
	movt	r0, :upper16:_lfs_lock
	bl	rt_mutex_release
	mvn	r0, #20
	.loc	2 693 9                         @ packages/littlefs-v2.0.5/dfs_lfs.c:693:9
	str	r0, [sp, #20]
	b	.LBB11_9
.Ltmp202:
.LBB11_6:
	.loc	2 696 33                        @ packages/littlefs-v2.0.5/dfs_lfs.c:696:33
	ldr	r0, [sp, #16]
	.loc	2 696 39 is_stmt 0              @ packages/littlefs-v2.0.5/dfs_lfs.c:696:39
	ldr	r0, [r0, #32]
	.loc	2 696 16                        @ packages/littlefs-v2.0.5/dfs_lfs.c:696:16
	str	r0, [sp]
	.loc	2 710 27 is_stmt 1              @ packages/littlefs-v2.0.5/dfs_lfs.c:710:27
	ldr	r1, [sp]
	.loc	2 710 39 is_stmt 0              @ packages/littlefs-v2.0.5/dfs_lfs.c:710:39
	ldr	r0, [r1], #4
	.loc	2 710 65                        @ packages/littlefs-v2.0.5/dfs_lfs.c:710:65
	ldr	r2, [sp, #12]
	.loc	2 710 70                        @ packages/littlefs-v2.0.5/dfs_lfs.c:710:70
	ldr	r3, [sp, #8]
	.loc	2 710 13                        @ packages/littlefs-v2.0.5/dfs_lfs.c:710:13
	bl	lfs_file_read
	.loc	2 710 11                        @ packages/littlefs-v2.0.5/dfs_lfs.c:710:11
	str	r0, [sp, #4]
.Ltmp203:
	.loc	2 711 9 is_stmt 1               @ packages/littlefs-v2.0.5/dfs_lfs.c:711:9
	ldr	r0, [sp, #4]
.Ltmp204:
	.loc	2 711 9 is_stmt 0               @ packages/littlefs-v2.0.5/dfs_lfs.c:711:9
	cmp.w	r0, #-1
	bgt	.LBB11_8
	b	.LBB11_7
.LBB11_7:
.Ltmp205:
	.loc	2 713 9 is_stmt 1               @ packages/littlefs-v2.0.5/dfs_lfs.c:713:9
	movw	r0, :lower16:_lfs_lock
	movt	r0, :upper16:_lfs_lock
	bl	rt_mutex_release
	.loc	2 714 35                        @ packages/littlefs-v2.0.5/dfs_lfs.c:714:35
	ldr	r0, [sp, #4]
	.loc	2 714 16 is_stmt 0              @ packages/littlefs-v2.0.5/dfs_lfs.c:714:16
	bl	_lfs_result_to_dfs
	.loc	2 714 9                         @ packages/littlefs-v2.0.5/dfs_lfs.c:714:9
	str	r0, [sp, #20]
	b	.LBB11_9
.Ltmp206:
.LBB11_8:
	.loc	2 718 17 is_stmt 1              @ packages/littlefs-v2.0.5/dfs_lfs.c:718:17
	ldr	r0, [sp]
	.loc	2 718 36 is_stmt 0              @ packages/littlefs-v2.0.5/dfs_lfs.c:718:36
	ldr	r0, [r0, #56]
	.loc	2 718 5                         @ packages/littlefs-v2.0.5/dfs_lfs.c:718:5
	ldr	r1, [sp, #16]
	.loc	2 718 15                        @ packages/littlefs-v2.0.5/dfs_lfs.c:718:15
	str	r0, [r1, #28]
	.loc	2 720 5 is_stmt 1               @ packages/littlefs-v2.0.5/dfs_lfs.c:720:5
	movw	r0, :lower16:_lfs_lock
	movt	r0, :upper16:_lfs_lock
	bl	rt_mutex_release
	.loc	2 721 12                        @ packages/littlefs-v2.0.5/dfs_lfs.c:721:12
	ldr	r0, [sp, #4]
	.loc	2 721 5 is_stmt 0               @ packages/littlefs-v2.0.5/dfs_lfs.c:721:5
	str	r0, [sp, #20]
	b	.LBB11_9
.LBB11_9:
	.loc	2 722 1 is_stmt 1               @ packages/littlefs-v2.0.5/dfs_lfs.c:722:1
	ldr	r0, [sp, #20]
	add	sp, #24
	pop	{r7, pc}
.Ltmp207:
.Lfunc_end11:
	.size	_dfs_lfs_read, .Lfunc_end11-_dfs_lfs_read
	.cfi_endproc
	.cantunwind
	.fnend
                                        @ -- End function
	.section	.text._dfs_lfs_write,"ax",%progbits
	.p2align	3                               @ -- Begin function _dfs_lfs_write
	.type	_dfs_lfs_write,%function
	.code	16                              @ @_dfs_lfs_write
	.thumb_func
_dfs_lfs_write:
.Lfunc_begin12:
	.loc	2 725 0                         @ packages/littlefs-v2.0.5/dfs_lfs.c:725:0
	.fnstart
	.cfi_startproc
@ %bb.0:
	.save	{r7, lr}
	push	{r7, lr}
	.cfi_def_cfa_offset 8
	.cfi_offset lr, -4
	.cfi_offset r7, -8
	.pad	#24
	sub	sp, #24
	.cfi_def_cfa_offset 32
	str	r0, [sp, #16]
	str	r1, [sp, #12]
	str	r2, [sp, #8]
.Ltmp208:
	.loc	2 728 5 prologue_end            @ packages/littlefs-v2.0.5/dfs_lfs.c:728:5
	ldr	r0, [sp, #16]
.Ltmp209:
	.loc	2 728 5 is_stmt 0               @ packages/littlefs-v2.0.5/dfs_lfs.c:728:5
	cbnz	r0, .LBB12_2
	b	.LBB12_1
.LBB12_1:
.Ltmp210:
	.loc	2 728 5                         @ packages/littlefs-v2.0.5/dfs_lfs.c:728:5
	movw	r0, :lower16:.L.str.2
	movt	r0, :upper16:.L.str.2
	movw	r1, :lower16:.L__FUNCTION__._dfs_lfs_write
	movt	r1, :upper16:.L__FUNCTION__._dfs_lfs_write
	mov.w	r2, #728
	bl	rt_assert_handler
	b	.LBB12_2
.Ltmp211:
.LBB12_2:
	.loc	2 729 5 is_stmt 1               @ packages/littlefs-v2.0.5/dfs_lfs.c:729:5
	ldr	r0, [sp, #16]
	ldr	r0, [r0, #32]
.Ltmp212:
	.loc	2 729 5 is_stmt 0               @ packages/littlefs-v2.0.5/dfs_lfs.c:729:5
	cbnz	r0, .LBB12_4
	b	.LBB12_3
.LBB12_3:
.Ltmp213:
	.loc	2 729 5                         @ packages/littlefs-v2.0.5/dfs_lfs.c:729:5
	movw	r0, :lower16:.L.str.3
	movt	r0, :upper16:.L.str.3
	movw	r1, :lower16:.L__FUNCTION__._dfs_lfs_write
	movt	r1, :upper16:.L__FUNCTION__._dfs_lfs_write
	movw	r2, #729
	bl	rt_assert_handler
	b	.LBB12_4
.Ltmp214:
.LBB12_4:
	.loc	2 731 5 is_stmt 1               @ packages/littlefs-v2.0.5/dfs_lfs.c:731:5
	movw	r0, :lower16:_lfs_lock
	movt	r0, :upper16:_lfs_lock
	mov.w	r1, #-1
	bl	rt_mutex_take
.Ltmp215:
	.loc	2 733 9                         @ packages/littlefs-v2.0.5/dfs_lfs.c:733:9
	ldr	r0, [sp, #16]
	.loc	2 733 15 is_stmt 0              @ packages/littlefs-v2.0.5/dfs_lfs.c:733:15
	ldrh	r0, [r0, #2]
.Ltmp216:
	.loc	2 733 9                         @ packages/littlefs-v2.0.5/dfs_lfs.c:733:9
	cmp	r0, #2
	bne	.LBB12_6
	b	.LBB12_5
.LBB12_5:
.Ltmp217:
	.loc	2 735 9 is_stmt 1               @ packages/littlefs-v2.0.5/dfs_lfs.c:735:9
	movw	r0, :lower16:_lfs_lock
	movt	r0, :upper16:_lfs_lock
	bl	rt_mutex_release
	mvn	r0, #20
	.loc	2 736 9                         @ packages/littlefs-v2.0.5/dfs_lfs.c:736:9
	str	r0, [sp, #20]
	b	.LBB12_9
.Ltmp218:
.LBB12_6:
	.loc	2 739 33                        @ packages/littlefs-v2.0.5/dfs_lfs.c:739:33
	ldr	r0, [sp, #16]
	.loc	2 739 39 is_stmt 0              @ packages/littlefs-v2.0.5/dfs_lfs.c:739:39
	ldr	r0, [r0, #32]
	.loc	2 739 16                        @ packages/littlefs-v2.0.5/dfs_lfs.c:739:16
	str	r0, [sp]
	.loc	2 753 28 is_stmt 1              @ packages/littlefs-v2.0.5/dfs_lfs.c:753:28
	ldr	r1, [sp]
	.loc	2 753 40 is_stmt 0              @ packages/littlefs-v2.0.5/dfs_lfs.c:753:40
	ldr	r0, [r1], #4
	.loc	2 753 66                        @ packages/littlefs-v2.0.5/dfs_lfs.c:753:66
	ldr	r2, [sp, #12]
	.loc	2 753 71                        @ packages/littlefs-v2.0.5/dfs_lfs.c:753:71
	ldr	r3, [sp, #8]
	.loc	2 753 13                        @ packages/littlefs-v2.0.5/dfs_lfs.c:753:13
	bl	lfs_file_write
	.loc	2 753 11                        @ packages/littlefs-v2.0.5/dfs_lfs.c:753:11
	str	r0, [sp, #4]
.Ltmp219:
	.loc	2 754 9 is_stmt 1               @ packages/littlefs-v2.0.5/dfs_lfs.c:754:9
	ldr	r0, [sp, #4]
.Ltmp220:
	.loc	2 754 9 is_stmt 0               @ packages/littlefs-v2.0.5/dfs_lfs.c:754:9
	cmp.w	r0, #-1
	bgt	.LBB12_8
	b	.LBB12_7
.LBB12_7:
.Ltmp221:
	.loc	2 756 9 is_stmt 1               @ packages/littlefs-v2.0.5/dfs_lfs.c:756:9
	movw	r0, :lower16:_lfs_lock
	movt	r0, :upper16:_lfs_lock
	bl	rt_mutex_release
	.loc	2 757 35                        @ packages/littlefs-v2.0.5/dfs_lfs.c:757:35
	ldr	r0, [sp, #4]
	.loc	2 757 16 is_stmt 0              @ packages/littlefs-v2.0.5/dfs_lfs.c:757:16
	bl	_lfs_result_to_dfs
	.loc	2 757 9                         @ packages/littlefs-v2.0.5/dfs_lfs.c:757:9
	str	r0, [sp, #20]
	b	.LBB12_9
.Ltmp222:
.LBB12_8:
	.loc	2 761 17 is_stmt 1              @ packages/littlefs-v2.0.5/dfs_lfs.c:761:17
	ldr	r0, [sp]
	.loc	2 761 36 is_stmt 0              @ packages/littlefs-v2.0.5/dfs_lfs.c:761:36
	ldr	r0, [r0, #56]
	.loc	2 761 5                         @ packages/littlefs-v2.0.5/dfs_lfs.c:761:5
	ldr	r1, [sp, #16]
	.loc	2 761 15                        @ packages/littlefs-v2.0.5/dfs_lfs.c:761:15
	str	r0, [r1, #28]
	.loc	2 762 18 is_stmt 1              @ packages/littlefs-v2.0.5/dfs_lfs.c:762:18
	ldr	r0, [sp]
	.loc	2 762 41 is_stmt 0              @ packages/littlefs-v2.0.5/dfs_lfs.c:762:41
	ldr	r0, [r0, #48]
	.loc	2 762 5                         @ packages/littlefs-v2.0.5/dfs_lfs.c:762:5
	ldr	r1, [sp, #16]
	.loc	2 762 16                        @ packages/littlefs-v2.0.5/dfs_lfs.c:762:16
	str	r0, [r1, #24]
	.loc	2 764 5 is_stmt 1               @ packages/littlefs-v2.0.5/dfs_lfs.c:764:5
	movw	r0, :lower16:_lfs_lock
	movt	r0, :upper16:_lfs_lock
	bl	rt_mutex_release
	.loc	2 765 12                        @ packages/littlefs-v2.0.5/dfs_lfs.c:765:12
	ldr	r0, [sp, #4]
	.loc	2 765 5 is_stmt 0               @ packages/littlefs-v2.0.5/dfs_lfs.c:765:5
	str	r0, [sp, #20]
	b	.LBB12_9
.LBB12_9:
	.loc	2 766 1 is_stmt 1               @ packages/littlefs-v2.0.5/dfs_lfs.c:766:1
	ldr	r0, [sp, #20]
	add	sp, #24
	pop	{r7, pc}
.Ltmp223:
.Lfunc_end12:
	.size	_dfs_lfs_write, .Lfunc_end12-_dfs_lfs_write
	.cfi_endproc
	.cantunwind
	.fnend
                                        @ -- End function
	.section	.text._dfs_lfs_flush,"ax",%progbits
	.p2align	3                               @ -- Begin function _dfs_lfs_flush
	.type	_dfs_lfs_flush,%function
	.code	16                              @ @_dfs_lfs_flush
	.thumb_func
_dfs_lfs_flush:
.Lfunc_begin13:
	.loc	2 769 0                         @ packages/littlefs-v2.0.5/dfs_lfs.c:769:0
	.fnstart
	.cfi_startproc
@ %bb.0:
	.save	{r7, lr}
	push	{r7, lr}
	.cfi_def_cfa_offset 8
	.cfi_offset lr, -4
	.cfi_offset r7, -8
	.pad	#16
	sub	sp, #16
	.cfi_def_cfa_offset 24
	str	r0, [sp, #12]
.Ltmp224:
	.loc	2 773 5 prologue_end            @ packages/littlefs-v2.0.5/dfs_lfs.c:773:5
	ldr	r0, [sp, #12]
.Ltmp225:
	.loc	2 773 5 is_stmt 0               @ packages/littlefs-v2.0.5/dfs_lfs.c:773:5
	cbnz	r0, .LBB13_2
	b	.LBB13_1
.LBB13_1:
.Ltmp226:
	.loc	2 773 5                         @ packages/littlefs-v2.0.5/dfs_lfs.c:773:5
	movw	r0, :lower16:.L.str.2
	movt	r0, :upper16:.L.str.2
	movw	r1, :lower16:.L__FUNCTION__._dfs_lfs_flush
	movt	r1, :upper16:.L__FUNCTION__._dfs_lfs_flush
	movw	r2, #773
	bl	rt_assert_handler
	b	.LBB13_2
.Ltmp227:
.LBB13_2:
	.loc	2 774 5 is_stmt 1               @ packages/littlefs-v2.0.5/dfs_lfs.c:774:5
	ldr	r0, [sp, #12]
	ldr	r0, [r0, #32]
.Ltmp228:
	.loc	2 774 5 is_stmt 0               @ packages/littlefs-v2.0.5/dfs_lfs.c:774:5
	cbnz	r0, .LBB13_4
	b	.LBB13_3
.LBB13_3:
.Ltmp229:
	.loc	2 774 5                         @ packages/littlefs-v2.0.5/dfs_lfs.c:774:5
	movw	r0, :lower16:.L.str.3
	movt	r0, :upper16:.L.str.3
	movw	r1, :lower16:.L__FUNCTION__._dfs_lfs_flush
	movt	r1, :upper16:.L__FUNCTION__._dfs_lfs_flush
	movw	r2, #774
	bl	rt_assert_handler
	b	.LBB13_4
.Ltmp230:
.LBB13_4:
	.loc	2 776 5 is_stmt 1               @ packages/littlefs-v2.0.5/dfs_lfs.c:776:5
	movw	r0, :lower16:_lfs_lock
	movt	r0, :upper16:_lfs_lock
	str	r0, [sp]                        @ 4-byte Spill
	mov.w	r1, #-1
	bl	rt_mutex_take
	.loc	2 777 33                        @ packages/littlefs-v2.0.5/dfs_lfs.c:777:33
	ldr	r0, [sp, #12]
	.loc	2 777 39 is_stmt 0              @ packages/littlefs-v2.0.5/dfs_lfs.c:777:39
	ldr	r0, [r0, #32]
	.loc	2 777 16                        @ packages/littlefs-v2.0.5/dfs_lfs.c:777:16
	str	r0, [sp, #4]
	.loc	2 779 28 is_stmt 1              @ packages/littlefs-v2.0.5/dfs_lfs.c:779:28
	ldr	r1, [sp, #4]
	.loc	2 779 40 is_stmt 0              @ packages/littlefs-v2.0.5/dfs_lfs.c:779:40
	ldr	r0, [r1], #4
	.loc	2 779 14                        @ packages/littlefs-v2.0.5/dfs_lfs.c:779:14
	bl	lfs_file_sync
	mov	r1, r0
	.loc	2 779 12                        @ packages/littlefs-v2.0.5/dfs_lfs.c:779:12
	ldr	r0, [sp]                        @ 4-byte Reload
	str	r1, [sp, #8]
	.loc	2 780 5 is_stmt 1               @ packages/littlefs-v2.0.5/dfs_lfs.c:780:5
	bl	rt_mutex_release
	.loc	2 782 31                        @ packages/littlefs-v2.0.5/dfs_lfs.c:782:31
	ldr	r0, [sp, #8]
	.loc	2 782 12 is_stmt 0              @ packages/littlefs-v2.0.5/dfs_lfs.c:782:12
	bl	_lfs_result_to_dfs
	.loc	2 782 5                         @ packages/littlefs-v2.0.5/dfs_lfs.c:782:5
	add	sp, #16
	pop	{r7, pc}
.Ltmp231:
.Lfunc_end13:
	.size	_dfs_lfs_flush, .Lfunc_end13-_dfs_lfs_flush
	.cfi_endproc
	.cantunwind
	.fnend
                                        @ -- End function
	.section	.text._dfs_lfs_lseek,"ax",%progbits
	.p2align	3                               @ -- Begin function _dfs_lfs_lseek
	.type	_dfs_lfs_lseek,%function
	.code	16                              @ @_dfs_lfs_lseek
	.thumb_func
_dfs_lfs_lseek:
.Lfunc_begin14:
	.loc	2 786 0 is_stmt 1               @ packages/littlefs-v2.0.5/dfs_lfs.c:786:0
	.fnstart
	.cfi_startproc
@ %bb.0:
	.save	{r7, lr}
	push	{r7, lr}
	.cfi_def_cfa_offset 8
	.cfi_offset lr, -4
	.cfi_offset r7, -8
	.pad	#24
	sub	sp, #24
	.cfi_def_cfa_offset 32
	str	r0, [sp, #16]
	str	r1, [sp, #12]
.Ltmp232:
	.loc	2 789 5 prologue_end            @ packages/littlefs-v2.0.5/dfs_lfs.c:789:5
	ldr	r0, [sp, #16]
.Ltmp233:
	.loc	2 789 5 is_stmt 0               @ packages/littlefs-v2.0.5/dfs_lfs.c:789:5
	cbnz	r0, .LBB14_2
	b	.LBB14_1
.LBB14_1:
.Ltmp234:
	.loc	2 789 5                         @ packages/littlefs-v2.0.5/dfs_lfs.c:789:5
	movw	r0, :lower16:.L.str.2
	movt	r0, :upper16:.L.str.2
	movw	r1, :lower16:.L__FUNCTION__._dfs_lfs_lseek
	movt	r1, :upper16:.L__FUNCTION__._dfs_lfs_lseek
	movw	r2, #789
	bl	rt_assert_handler
	b	.LBB14_2
.Ltmp235:
.LBB14_2:
	.loc	2 790 5 is_stmt 1               @ packages/littlefs-v2.0.5/dfs_lfs.c:790:5
	ldr	r0, [sp, #16]
	ldr	r0, [r0, #32]
.Ltmp236:
	.loc	2 790 5 is_stmt 0               @ packages/littlefs-v2.0.5/dfs_lfs.c:790:5
	cbnz	r0, .LBB14_4
	b	.LBB14_3
.LBB14_3:
.Ltmp237:
	.loc	2 790 5                         @ packages/littlefs-v2.0.5/dfs_lfs.c:790:5
	movw	r0, :lower16:.L.str.3
	movt	r0, :upper16:.L.str.3
	movw	r1, :lower16:.L__FUNCTION__._dfs_lfs_lseek
	movt	r1, :upper16:.L__FUNCTION__._dfs_lfs_lseek
	movw	r2, #790
	bl	rt_assert_handler
	b	.LBB14_4
.Ltmp238:
.LBB14_4:
	.loc	2 792 5 is_stmt 1               @ packages/littlefs-v2.0.5/dfs_lfs.c:792:5
	movw	r0, :lower16:_lfs_lock
	movt	r0, :upper16:_lfs_lock
	mov.w	r1, #-1
	bl	rt_mutex_take
	.loc	2 793 33                        @ packages/littlefs-v2.0.5/dfs_lfs.c:793:33
	ldr	r0, [sp, #16]
	.loc	2 793 39 is_stmt 0              @ packages/littlefs-v2.0.5/dfs_lfs.c:793:39
	ldr	r0, [r0, #32]
	.loc	2 793 16                        @ packages/littlefs-v2.0.5/dfs_lfs.c:793:16
	str	r0, [sp, #8]
.Ltmp239:
	.loc	2 795 9 is_stmt 1               @ packages/littlefs-v2.0.5/dfs_lfs.c:795:9
	ldr	r0, [sp, #16]
	.loc	2 795 15 is_stmt 0              @ packages/littlefs-v2.0.5/dfs_lfs.c:795:15
	ldrh	r0, [r0, #2]
.Ltmp240:
	.loc	2 795 9                         @ packages/littlefs-v2.0.5/dfs_lfs.c:795:9
	cbnz	r0, .LBB14_8
	b	.LBB14_5
.LBB14_5:
.Ltmp241:
	.loc	2 797 41 is_stmt 1              @ packages/littlefs-v2.0.5/dfs_lfs.c:797:41
	ldr	r1, [sp, #8]
	.loc	2 797 53 is_stmt 0              @ packages/littlefs-v2.0.5/dfs_lfs.c:797:53
	ldr	r0, [r1], #4
	.loc	2 797 79                        @ packages/littlefs-v2.0.5/dfs_lfs.c:797:79
	ldr	r2, [sp, #12]
	movs	r3, #0
	.loc	2 797 27                        @ packages/littlefs-v2.0.5/dfs_lfs.c:797:27
	bl	lfs_file_seek
	.loc	2 797 20                        @ packages/littlefs-v2.0.5/dfs_lfs.c:797:20
	str	r0, [sp, #4]
.Ltmp242:
	.loc	2 798 13 is_stmt 1              @ packages/littlefs-v2.0.5/dfs_lfs.c:798:13
	ldr	r0, [sp, #4]
.Ltmp243:
	.loc	2 798 13 is_stmt 0              @ packages/littlefs-v2.0.5/dfs_lfs.c:798:13
	cmp.w	r0, #-1
	bgt	.LBB14_7
	b	.LBB14_6
.LBB14_6:
.Ltmp244:
	.loc	2 800 13 is_stmt 1              @ packages/littlefs-v2.0.5/dfs_lfs.c:800:13
	movw	r0, :lower16:_lfs_lock
	movt	r0, :upper16:_lfs_lock
	bl	rt_mutex_release
	.loc	2 801 39                        @ packages/littlefs-v2.0.5/dfs_lfs.c:801:39
	ldr	r0, [sp, #4]
	.loc	2 801 20 is_stmt 0              @ packages/littlefs-v2.0.5/dfs_lfs.c:801:20
	bl	_lfs_result_to_dfs
	.loc	2 801 13                        @ packages/littlefs-v2.0.5/dfs_lfs.c:801:13
	str	r0, [sp, #20]
	b	.LBB14_14
.Ltmp245:
.LBB14_7:
	.loc	2 804 21 is_stmt 1              @ packages/littlefs-v2.0.5/dfs_lfs.c:804:21
	ldr	r0, [sp, #8]
	.loc	2 804 40 is_stmt 0              @ packages/littlefs-v2.0.5/dfs_lfs.c:804:40
	ldr	r0, [r0, #56]
	.loc	2 804 9                         @ packages/littlefs-v2.0.5/dfs_lfs.c:804:9
	ldr	r1, [sp, #16]
	.loc	2 804 19                        @ packages/littlefs-v2.0.5/dfs_lfs.c:804:19
	str	r0, [r1, #28]
	.loc	2 805 5 is_stmt 1               @ packages/littlefs-v2.0.5/dfs_lfs.c:805:5
	b	.LBB14_13
.Ltmp246:
.LBB14_8:
	.loc	2 806 14                        @ packages/littlefs-v2.0.5/dfs_lfs.c:806:14
	ldr	r0, [sp, #16]
	.loc	2 806 20 is_stmt 0              @ packages/littlefs-v2.0.5/dfs_lfs.c:806:20
	ldrh	r0, [r0, #2]
.Ltmp247:
	.loc	2 806 14                        @ packages/littlefs-v2.0.5/dfs_lfs.c:806:14
	cmp	r0, #2
	bne	.LBB14_12
	b	.LBB14_9
.LBB14_9:
.Ltmp248:
	.loc	2 808 40 is_stmt 1              @ packages/littlefs-v2.0.5/dfs_lfs.c:808:40
	ldr	r1, [sp, #8]
	.loc	2 808 52 is_stmt 0              @ packages/littlefs-v2.0.5/dfs_lfs.c:808:52
	ldr	r0, [r1], #4
	.loc	2 808 77                        @ packages/littlefs-v2.0.5/dfs_lfs.c:808:77
	ldr	r2, [sp, #12]
	.loc	2 808 27                        @ packages/littlefs-v2.0.5/dfs_lfs.c:808:27
	bl	lfs_dir_seek
	.loc	2 808 20                        @ packages/littlefs-v2.0.5/dfs_lfs.c:808:20
	str	r0, [sp]
.Ltmp249:
	.loc	2 809 13 is_stmt 1              @ packages/littlefs-v2.0.5/dfs_lfs.c:809:13
	ldr	r0, [sp]
.Ltmp250:
	.loc	2 809 13 is_stmt 0              @ packages/littlefs-v2.0.5/dfs_lfs.c:809:13
	cmp.w	r0, #-1
	bgt	.LBB14_11
	b	.LBB14_10
.LBB14_10:
.Ltmp251:
	.loc	2 811 13 is_stmt 1              @ packages/littlefs-v2.0.5/dfs_lfs.c:811:13
	movw	r0, :lower16:_lfs_lock
	movt	r0, :upper16:_lfs_lock
	bl	rt_mutex_release
	.loc	2 812 39                        @ packages/littlefs-v2.0.5/dfs_lfs.c:812:39
	ldr	r0, [sp]
	.loc	2 812 20 is_stmt 0              @ packages/littlefs-v2.0.5/dfs_lfs.c:812:20
	bl	_lfs_result_to_dfs
	.loc	2 812 13                        @ packages/littlefs-v2.0.5/dfs_lfs.c:812:13
	str	r0, [sp, #20]
	b	.LBB14_14
.Ltmp252:
.LBB14_11:
	.loc	2 815 21 is_stmt 1              @ packages/littlefs-v2.0.5/dfs_lfs.c:815:21
	ldr	r0, [sp, #8]
	.loc	2 815 39 is_stmt 0              @ packages/littlefs-v2.0.5/dfs_lfs.c:815:39
	ldr	r0, [r0, #44]
	.loc	2 815 9                         @ packages/littlefs-v2.0.5/dfs_lfs.c:815:9
	ldr	r1, [sp, #16]
	.loc	2 815 19                        @ packages/littlefs-v2.0.5/dfs_lfs.c:815:19
	str	r0, [r1, #28]
	.loc	2 816 5 is_stmt 1               @ packages/littlefs-v2.0.5/dfs_lfs.c:816:5
	b	.LBB14_12
.Ltmp253:
.LBB14_12:
	.loc	2 0 5 is_stmt 0                 @ packages/littlefs-v2.0.5/dfs_lfs.c:0:5
	b	.LBB14_13
.LBB14_13:
	.loc	2 818 5 is_stmt 1               @ packages/littlefs-v2.0.5/dfs_lfs.c:818:5
	movw	r0, :lower16:_lfs_lock
	movt	r0, :upper16:_lfs_lock
	bl	rt_mutex_release
	.loc	2 819 13                        @ packages/littlefs-v2.0.5/dfs_lfs.c:819:13
	ldr	r0, [sp, #16]
	.loc	2 819 19 is_stmt 0              @ packages/littlefs-v2.0.5/dfs_lfs.c:819:19
	ldr	r0, [r0, #28]
	.loc	2 819 5                         @ packages/littlefs-v2.0.5/dfs_lfs.c:819:5
	str	r0, [sp, #20]
	b	.LBB14_14
.LBB14_14:
	.loc	2 820 1 is_stmt 1               @ packages/littlefs-v2.0.5/dfs_lfs.c:820:1
	ldr	r0, [sp, #20]
	add	sp, #24
	pop	{r7, pc}
.Ltmp254:
.Lfunc_end14:
	.size	_dfs_lfs_lseek, .Lfunc_end14-_dfs_lfs_lseek
	.cfi_endproc
	.cantunwind
	.fnend
                                        @ -- End function
	.section	.text._dfs_lfs_getdents,"ax",%progbits
	.p2align	3                               @ -- Begin function _dfs_lfs_getdents
	.type	_dfs_lfs_getdents,%function
	.code	16                              @ @_dfs_lfs_getdents
	.thumb_func
_dfs_lfs_getdents:
.Lfunc_begin15:
	.loc	2 823 0                         @ packages/littlefs-v2.0.5/dfs_lfs.c:823:0
	.fnstart
	.cfi_startproc
@ %bb.0:
	.save	{r7, lr}
	push	{r7, lr}
	.cfi_def_cfa_offset 8
	.cfi_offset lr, -4
	.cfi_offset r7, -8
	.pad	#312
	sub	sp, #312
	.cfi_def_cfa_offset 320
	str	r0, [sp, #304]
	str	r1, [sp, #300]
	str	r2, [sp, #296]
.Ltmp255:
	.loc	2 830 5 prologue_end            @ packages/littlefs-v2.0.5/dfs_lfs.c:830:5
	ldr	r0, [sp, #304]
	ldr	r0, [r0, #32]
.Ltmp256:
	.loc	2 830 5 is_stmt 0               @ packages/littlefs-v2.0.5/dfs_lfs.c:830:5
	cbnz	r0, .LBB15_2
	b	.LBB15_1
.LBB15_1:
.Ltmp257:
	.loc	2 830 5                         @ packages/littlefs-v2.0.5/dfs_lfs.c:830:5
	movw	r0, :lower16:.L.str.3
	movt	r0, :upper16:.L.str.3
	movw	r1, :lower16:.L__FUNCTION__._dfs_lfs_getdents
	movt	r1, :upper16:.L__FUNCTION__._dfs_lfs_getdents
	movw	r2, #830
	bl	rt_assert_handler
	b	.LBB15_2
.Ltmp258:
.LBB15_2:
	.loc	2 832 5 is_stmt 1               @ packages/littlefs-v2.0.5/dfs_lfs.c:832:5
	movw	r0, :lower16:_lfs_lock
	movt	r0, :upper16:_lfs_lock
	mov.w	r1, #-1
	bl	rt_mutex_take
	.loc	2 833 34                        @ packages/littlefs-v2.0.5/dfs_lfs.c:833:34
	ldr	r0, [sp, #304]
	.loc	2 833 40 is_stmt 0              @ packages/littlefs-v2.0.5/dfs_lfs.c:833:40
	ldr	r0, [r0, #32]
	.loc	2 833 16                        @ packages/littlefs-v2.0.5/dfs_lfs.c:833:16
	str	r0, [sp, #292]
	.loc	2 836 14 is_stmt 1              @ packages/littlefs-v2.0.5/dfs_lfs.c:836:14
	ldr	r0, [sp, #296]
	movw	r1, #49405
	movt	r1, #64527
	.loc	2 836 20 is_stmt 0              @ packages/littlefs-v2.0.5/dfs_lfs.c:836:20
	umull	r1, r0, r0, r1
	lsrs	r0, r0, #8
	.loc	2 836 45                        @ packages/littlefs-v2.0.5/dfs_lfs.c:836:45
	add.w	r0, r0, r0, lsl #6
	lsls	r0, r0, #2
	.loc	2 836 11                        @ packages/littlefs-v2.0.5/dfs_lfs.c:836:11
	str	r0, [sp, #296]
.Ltmp259:
	.loc	2 837 9 is_stmt 1               @ packages/littlefs-v2.0.5/dfs_lfs.c:837:9
	ldr	r0, [sp, #296]
.Ltmp260:
	.loc	2 837 9 is_stmt 0               @ packages/littlefs-v2.0.5/dfs_lfs.c:837:9
	cbnz	r0, .LBB15_4
	b	.LBB15_3
.LBB15_3:
.Ltmp261:
	.loc	2 839 9 is_stmt 1               @ packages/littlefs-v2.0.5/dfs_lfs.c:839:9
	movw	r0, :lower16:_lfs_lock
	movt	r0, :upper16:_lfs_lock
	bl	rt_mutex_release
	mvn	r0, #21
	.loc	2 840 9                         @ packages/littlefs-v2.0.5/dfs_lfs.c:840:9
	str	r0, [sp, #308]
	b	.LBB15_23
.Ltmp262:
.LBB15_4:
	.loc	2 0 9 is_stmt 0                 @ packages/littlefs-v2.0.5/dfs_lfs.c:0:9
	movs	r0, #0
	.loc	2 843 11 is_stmt 1              @ packages/littlefs-v2.0.5/dfs_lfs.c:843:11
	str	r0, [sp, #284]
	.loc	2 844 5                         @ packages/littlefs-v2.0.5/dfs_lfs.c:844:5
	b	.LBB15_5
.LBB15_5:                               @ =>This Inner Loop Header: Depth=1
.Ltmp263:
	.loc	2 846 13                        @ packages/littlefs-v2.0.5/dfs_lfs.c:846:13
	ldr	r0, [sp, #300]
	.loc	2 846 20 is_stmt 0              @ packages/littlefs-v2.0.5/dfs_lfs.c:846:20
	ldr	r1, [sp, #284]
	.loc	2 846 18                        @ packages/littlefs-v2.0.5/dfs_lfs.c:846:18
	add.w	r1, r1, r1, lsl #6
	add.w	r0, r0, r1, lsl #2
	.loc	2 846 11                        @ packages/littlefs-v2.0.5/dfs_lfs.c:846:11
	str	r0, [sp, #280]
	.loc	2 848 31 is_stmt 1              @ packages/littlefs-v2.0.5/dfs_lfs.c:848:31
	ldr	r1, [sp, #292]
	.loc	2 848 43 is_stmt 0              @ packages/littlefs-v2.0.5/dfs_lfs.c:848:43
	ldr	r0, [r1], #4
	add	r2, sp, #16
	.loc	2 848 18                        @ packages/littlefs-v2.0.5/dfs_lfs.c:848:18
	bl	lfs_dir_read
	.loc	2 848 16                        @ packages/littlefs-v2.0.5/dfs_lfs.c:848:16
	str	r0, [sp, #288]
.Ltmp264:
	.loc	2 849 14 is_stmt 1              @ packages/littlefs-v2.0.5/dfs_lfs.c:849:14
	ldr	r0, [sp, #288]
	.loc	2 849 27 is_stmt 0              @ packages/littlefs-v2.0.5/dfs_lfs.c:849:27
	cmp	r0, #1
	bne	.LBB15_7
	b	.LBB15_6
.LBB15_6:                               @   in Loop: Header=BB15_5 Depth=1
	.loc	2 849 31                        @ packages/littlefs-v2.0.5/dfs_lfs.c:849:31
	ldrsb.w	r0, [sp, #24]
.Ltmp265:
	.loc	2 849 13                        @ packages/littlefs-v2.0.5/dfs_lfs.c:849:13
	cbnz	r0, .LBB15_8
	b	.LBB15_7
.LBB15_7:
.Ltmp266:
	.loc	2 851 13 is_stmt 1              @ packages/littlefs-v2.0.5/dfs_lfs.c:851:13
	b	.LBB15_20
.Ltmp267:
.LBB15_8:                               @   in Loop: Header=BB15_5 Depth=1
	.loc	2 0 13 is_stmt 0                @ packages/littlefs-v2.0.5/dfs_lfs.c:0:13
	add	r0, sp, #16
.Ltmp268:
	.loc	2 854 28 is_stmt 1              @ packages/littlefs-v2.0.5/dfs_lfs.c:854:28
	adds	r0, #8
	.loc	2 854 13 is_stmt 0              @ packages/littlefs-v2.0.5/dfs_lfs.c:854:13
	movw	r1, :lower16:.L.str.5
	movt	r1, :upper16:.L.str.5
	bl	rt_strcmp
.Ltmp269:
	.loc	2 854 13                        @ packages/littlefs-v2.0.5/dfs_lfs.c:854:13
	cbnz	r0, .LBB15_10
	b	.LBB15_9
.LBB15_9:                               @   in Loop: Header=BB15_5 Depth=1
.Ltmp270:
	.loc	2 856 13 is_stmt 1              @ packages/littlefs-v2.0.5/dfs_lfs.c:856:13
	b	.LBB15_5
.Ltmp271:
.LBB15_10:                              @   in Loop: Header=BB15_5 Depth=1
	.loc	2 0 13 is_stmt 0                @ packages/littlefs-v2.0.5/dfs_lfs.c:0:13
	add	r0, sp, #16
.Ltmp272:
	.loc	2 858 33 is_stmt 1              @ packages/littlefs-v2.0.5/dfs_lfs.c:858:33
	adds	r0, #8
	.loc	2 858 18 is_stmt 0              @ packages/littlefs-v2.0.5/dfs_lfs.c:858:18
	movw	r1, :lower16:.L.str.6
	movt	r1, :upper16:.L.str.6
	bl	rt_strcmp
.Ltmp273:
	.loc	2 858 18                        @ packages/littlefs-v2.0.5/dfs_lfs.c:858:18
	cbnz	r0, .LBB15_12
	b	.LBB15_11
.LBB15_11:                              @   in Loop: Header=BB15_5 Depth=1
.Ltmp274:
	.loc	2 860 13 is_stmt 1              @ packages/littlefs-v2.0.5/dfs_lfs.c:860:13
	b	.LBB15_5
.Ltmp275:
.LBB15_12:                              @   in Loop: Header=BB15_5 Depth=1
	.loc	2 0 13 is_stmt 0                @ packages/littlefs-v2.0.5/dfs_lfs.c:0:13
	b	.LBB15_13
.LBB15_13:                              @   in Loop: Header=BB15_5 Depth=1
	.loc	2 863 9 is_stmt 1               @ packages/littlefs-v2.0.5/dfs_lfs.c:863:9
	ldr	r1, [sp, #280]
	movs	r0, #0
	.loc	2 863 19 is_stmt 0              @ packages/littlefs-v2.0.5/dfs_lfs.c:863:19
	strb	r0, [r1]
	.loc	2 865 22 is_stmt 1              @ packages/littlefs-v2.0.5/dfs_lfs.c:865:22
	ldrb.w	r0, [sp, #16]
	.loc	2 865 9 is_stmt 0               @ packages/littlefs-v2.0.5/dfs_lfs.c:865:9
	mov	r1, r0
	str	r1, [sp, #12]                   @ 4-byte Spill
	cmp	r0, #1
	beq	.LBB15_16
	b	.LBB15_14
.LBB15_14:                              @   in Loop: Header=BB15_5 Depth=1
	ldr	r0, [sp, #12]                   @ 4-byte Reload
	cmp	r0, #2
	bne	.LBB15_17
	b	.LBB15_15
.LBB15_15:                              @   in Loop: Header=BB15_5 Depth=1
.Ltmp276:
	.loc	2 868 13 is_stmt 1              @ packages/littlefs-v2.0.5/dfs_lfs.c:868:13
	ldr	r1, [sp, #280]
	.loc	2 868 23 is_stmt 0              @ packages/littlefs-v2.0.5/dfs_lfs.c:868:23
	ldrb	r0, [r1]
	orr	r0, r0, #2
	strb	r0, [r1]
	.loc	2 869 13 is_stmt 1              @ packages/littlefs-v2.0.5/dfs_lfs.c:869:13
	b	.LBB15_17
.LBB15_16:                              @   in Loop: Header=BB15_5 Depth=1
	.loc	2 872 13                        @ packages/littlefs-v2.0.5/dfs_lfs.c:872:13
	ldr	r1, [sp, #280]
	.loc	2 872 23 is_stmt 0              @ packages/littlefs-v2.0.5/dfs_lfs.c:872:23
	ldrb	r0, [r1]
	orr	r0, r0, #1
	strb	r0, [r1]
	.loc	2 873 13 is_stmt 1              @ packages/littlefs-v2.0.5/dfs_lfs.c:873:13
	b	.LBB15_17
.Ltmp277:
.LBB15_17:                              @   in Loop: Header=BB15_5 Depth=1
	.loc	2 0 13 is_stmt 0                @ packages/littlefs-v2.0.5/dfs_lfs.c:0:13
	add	r0, sp, #16
	.loc	2 876 50 is_stmt 1              @ packages/littlefs-v2.0.5/dfs_lfs.c:876:50
	adds	r0, #8
	.loc	2 876 35 is_stmt 0              @ packages/littlefs-v2.0.5/dfs_lfs.c:876:35
	str	r0, [sp, #4]                    @ 4-byte Spill
	bl	rt_strlen
	mov	r1, r0
	.loc	2 876 9                         @ packages/littlefs-v2.0.5/dfs_lfs.c:876:9
	ldr	r0, [sp, #4]                    @ 4-byte Reload
	ldr	r2, [sp, #280]
	.loc	2 876 21                        @ packages/littlefs-v2.0.5/dfs_lfs.c:876:21
	strb	r1, [r2, #1]
	.loc	2 877 9 is_stmt 1               @ packages/littlefs-v2.0.5/dfs_lfs.c:877:9
	ldr	r2, [sp, #280]
	mov.w	r1, #260
	.loc	2 877 21 is_stmt 0              @ packages/littlefs-v2.0.5/dfs_lfs.c:877:21
	strh	r1, [r2, #2]
	.loc	2 878 20 is_stmt 1              @ packages/littlefs-v2.0.5/dfs_lfs.c:878:20
	ldr	r1, [sp, #280]
	.loc	2 878 23 is_stmt 0              @ packages/littlefs-v2.0.5/dfs_lfs.c:878:23
	adds	r1, #4
	.loc	2 878 42                        @ packages/littlefs-v2.0.5/dfs_lfs.c:878:42
	str	r1, [sp, #8]                    @ 4-byte Spill
	bl	rt_strlen
	ldr	r1, [sp, #4]                    @ 4-byte Reload
	mov	r2, r0
	.loc	2 878 63                        @ packages/littlefs-v2.0.5/dfs_lfs.c:878:63
	ldr	r0, [sp, #8]                    @ 4-byte Reload
	adds	r2, #1
	.loc	2 878 9                         @ packages/littlefs-v2.0.5/dfs_lfs.c:878:9
	bl	rt_strncpy
	.loc	2 880 14 is_stmt 1              @ packages/littlefs-v2.0.5/dfs_lfs.c:880:14
	ldr	r0, [sp, #284]
	adds	r0, #1
	str	r0, [sp, #284]
.Ltmp278:
	.loc	2 881 13                        @ packages/littlefs-v2.0.5/dfs_lfs.c:881:13
	ldr	r0, [sp, #284]
	.loc	2 881 19 is_stmt 0              @ packages/littlefs-v2.0.5/dfs_lfs.c:881:19
	add.w	r1, r0, r0, lsl #6
	.loc	2 881 46                        @ packages/littlefs-v2.0.5/dfs_lfs.c:881:46
	ldr	r0, [sp, #296]
.Ltmp279:
	.loc	2 881 13                        @ packages/littlefs-v2.0.5/dfs_lfs.c:881:13
	cmp.w	r0, r1, lsl #2
	bhi	.LBB15_19
	b	.LBB15_18
.LBB15_18:
.Ltmp280:
	.loc	2 883 13 is_stmt 1              @ packages/littlefs-v2.0.5/dfs_lfs.c:883:13
	b	.LBB15_20
.Ltmp281:
.LBB15_19:                              @   in Loop: Header=BB15_5 Depth=1
	.loc	2 844 5                         @ packages/littlefs-v2.0.5/dfs_lfs.c:844:5
	b	.LBB15_5
.LBB15_20:
.Ltmp282:
	.loc	2 887 9                         @ packages/littlefs-v2.0.5/dfs_lfs.c:887:9
	ldr	r0, [sp, #284]
.Ltmp283:
	.loc	2 887 9 is_stmt 0               @ packages/littlefs-v2.0.5/dfs_lfs.c:887:9
	cbnz	r0, .LBB15_22
	b	.LBB15_21
.LBB15_21:
.Ltmp284:
	.loc	2 889 9 is_stmt 1               @ packages/littlefs-v2.0.5/dfs_lfs.c:889:9
	movw	r0, :lower16:_lfs_lock
	movt	r0, :upper16:_lfs_lock
	bl	rt_mutex_release
	.loc	2 890 35                        @ packages/littlefs-v2.0.5/dfs_lfs.c:890:35
	ldr	r0, [sp, #288]
	.loc	2 890 16 is_stmt 0              @ packages/littlefs-v2.0.5/dfs_lfs.c:890:16
	bl	_lfs_result_to_dfs
	.loc	2 890 9                         @ packages/littlefs-v2.0.5/dfs_lfs.c:890:9
	str	r0, [sp, #308]
	b	.LBB15_23
.Ltmp285:
.LBB15_22:
	.loc	2 893 18 is_stmt 1              @ packages/littlefs-v2.0.5/dfs_lfs.c:893:18
	ldr	r0, [sp, #284]
	.loc	2 893 24 is_stmt 0              @ packages/littlefs-v2.0.5/dfs_lfs.c:893:24
	add.w	r2, r0, r0, lsl #6
	.loc	2 893 5                         @ packages/littlefs-v2.0.5/dfs_lfs.c:893:5
	ldr	r1, [sp, #304]
	.loc	2 893 15                        @ packages/littlefs-v2.0.5/dfs_lfs.c:893:15
	ldr	r0, [r1, #28]
	add.w	r0, r0, r2, lsl #2
	str	r0, [r1, #28]
	.loc	2 895 5 is_stmt 1               @ packages/littlefs-v2.0.5/dfs_lfs.c:895:5
	movw	r0, :lower16:_lfs_lock
	movt	r0, :upper16:_lfs_lock
	bl	rt_mutex_release
	.loc	2 896 12                        @ packages/littlefs-v2.0.5/dfs_lfs.c:896:12
	ldr	r0, [sp, #284]
	.loc	2 896 18 is_stmt 0              @ packages/littlefs-v2.0.5/dfs_lfs.c:896:18
	add.w	r0, r0, r0, lsl #6
	lsls	r0, r0, #2
	.loc	2 896 5                         @ packages/littlefs-v2.0.5/dfs_lfs.c:896:5
	str	r0, [sp, #308]
	b	.LBB15_23
.LBB15_23:
	.loc	2 897 1 is_stmt 1               @ packages/littlefs-v2.0.5/dfs_lfs.c:897:1
	ldr	r0, [sp, #308]
	add	sp, #312
	pop	{r7, pc}
.Ltmp286:
.Lfunc_end15:
	.size	_dfs_lfs_getdents, .Lfunc_end15-_dfs_lfs_getdents
	.cfi_endproc
	.cantunwind
	.fnend
                                        @ -- End function
	.section	.text._lfs_result_to_dfs,"ax",%progbits
	.p2align	3                               @ -- Begin function _lfs_result_to_dfs
	.type	_lfs_result_to_dfs,%function
	.code	16                              @ @_lfs_result_to_dfs
	.thumb_func
_lfs_result_to_dfs:
.Lfunc_begin16:
	.loc	2 163 0                         @ packages/littlefs-v2.0.5/dfs_lfs.c:163:0
	.fnstart
	.cfi_startproc
@ %bb.0:
	.pad	#12
	sub	sp, #12
	.cfi_def_cfa_offset 12
	str	r0, [sp, #8]
	movs	r0, #0
.Ltmp287:
	.loc	2 164 9 prologue_end            @ packages/littlefs-v2.0.5/dfs_lfs.c:164:9
	str	r0, [sp, #4]
	.loc	2 166 13                        @ packages/littlefs-v2.0.5/dfs_lfs.c:166:13
	ldr	r0, [sp, #8]
	.loc	2 166 5 is_stmt 0               @ packages/littlefs-v2.0.5/dfs_lfs.c:166:5
	adds	r0, #84
	mov	r1, r0
	str	r1, [sp]                        @ 4-byte Spill
	cmp	r0, #84
	bhi.w	.LBB16_15
@ %bb.1:
	.loc	2 0 5                           @ packages/littlefs-v2.0.5/dfs_lfs.c:0:5
	ldr	r1, [sp]                        @ 4-byte Reload
.LCPI16_0:
	tbb	[pc, r1]
@ %bb.2:
.LJTI16_0:
	.byte	(.LBB16_14-(.LCPI16_0+4))/2
	.byte	(.LBB16_15-(.LCPI16_0+4))/2
	.byte	(.LBB16_15-(.LCPI16_0+4))/2
	.byte	(.LBB16_15-(.LCPI16_0+4))/2
	.byte	(.LBB16_15-(.LCPI16_0+4))/2
	.byte	(.LBB16_15-(.LCPI16_0+4))/2
	.byte	(.LBB16_15-(.LCPI16_0+4))/2
	.byte	(.LBB16_15-(.LCPI16_0+4))/2
	.byte	(.LBB16_15-(.LCPI16_0+4))/2
	.byte	(.LBB16_15-(.LCPI16_0+4))/2
	.byte	(.LBB16_15-(.LCPI16_0+4))/2
	.byte	(.LBB16_15-(.LCPI16_0+4))/2
	.byte	(.LBB16_15-(.LCPI16_0+4))/2
	.byte	(.LBB16_15-(.LCPI16_0+4))/2
	.byte	(.LBB16_15-(.LCPI16_0+4))/2
	.byte	(.LBB16_15-(.LCPI16_0+4))/2
	.byte	(.LBB16_15-(.LCPI16_0+4))/2
	.byte	(.LBB16_15-(.LCPI16_0+4))/2
	.byte	(.LBB16_15-(.LCPI16_0+4))/2
	.byte	(.LBB16_15-(.LCPI16_0+4))/2
	.byte	(.LBB16_15-(.LCPI16_0+4))/2
	.byte	(.LBB16_15-(.LCPI16_0+4))/2
	.byte	(.LBB16_15-(.LCPI16_0+4))/2
	.byte	(.LBB16_15-(.LCPI16_0+4))/2
	.byte	(.LBB16_15-(.LCPI16_0+4))/2
	.byte	(.LBB16_15-(.LCPI16_0+4))/2
	.byte	(.LBB16_15-(.LCPI16_0+4))/2
	.byte	(.LBB16_15-(.LCPI16_0+4))/2
	.byte	(.LBB16_15-(.LCPI16_0+4))/2
	.byte	(.LBB16_15-(.LCPI16_0+4))/2
	.byte	(.LBB16_15-(.LCPI16_0+4))/2
	.byte	(.LBB16_15-(.LCPI16_0+4))/2
	.byte	(.LBB16_15-(.LCPI16_0+4))/2
	.byte	(.LBB16_15-(.LCPI16_0+4))/2
	.byte	(.LBB16_15-(.LCPI16_0+4))/2
	.byte	(.LBB16_15-(.LCPI16_0+4))/2
	.byte	(.LBB16_15-(.LCPI16_0+4))/2
	.byte	(.LBB16_15-(.LCPI16_0+4))/2
	.byte	(.LBB16_15-(.LCPI16_0+4))/2
	.byte	(.LBB16_15-(.LCPI16_0+4))/2
	.byte	(.LBB16_15-(.LCPI16_0+4))/2
	.byte	(.LBB16_15-(.LCPI16_0+4))/2
	.byte	(.LBB16_15-(.LCPI16_0+4))/2
	.byte	(.LBB16_15-(.LCPI16_0+4))/2
	.byte	(.LBB16_15-(.LCPI16_0+4))/2
	.byte	(.LBB16_9-(.LCPI16_0+4))/2
	.byte	(.LBB16_15-(.LCPI16_0+4))/2
	.byte	(.LBB16_15-(.LCPI16_0+4))/2
	.byte	(.LBB16_15-(.LCPI16_0+4))/2
	.byte	(.LBB16_15-(.LCPI16_0+4))/2
	.byte	(.LBB16_15-(.LCPI16_0+4))/2
	.byte	(.LBB16_15-(.LCPI16_0+4))/2
	.byte	(.LBB16_15-(.LCPI16_0+4))/2
	.byte	(.LBB16_15-(.LCPI16_0+4))/2
	.byte	(.LBB16_15-(.LCPI16_0+4))/2
	.byte	(.LBB16_15-(.LCPI16_0+4))/2
	.byte	(.LBB16_12-(.LCPI16_0+4))/2
	.byte	(.LBB16_15-(.LCPI16_0+4))/2
	.byte	(.LBB16_15-(.LCPI16_0+4))/2
	.byte	(.LBB16_15-(.LCPI16_0+4))/2
	.byte	(.LBB16_15-(.LCPI16_0+4))/2
	.byte	(.LBB16_15-(.LCPI16_0+4))/2
	.byte	(.LBB16_11-(.LCPI16_0+4))/2
	.byte	(.LBB16_8-(.LCPI16_0+4))/2
	.byte	(.LBB16_7-(.LCPI16_0+4))/2
	.byte	(.LBB16_15-(.LCPI16_0+4))/2
	.byte	(.LBB16_15-(.LCPI16_0+4))/2
	.byte	(.LBB16_6-(.LCPI16_0+4))/2
	.byte	(.LBB16_15-(.LCPI16_0+4))/2
	.byte	(.LBB16_15-(.LCPI16_0+4))/2
	.byte	(.LBB16_15-(.LCPI16_0+4))/2
	.byte	(.LBB16_15-(.LCPI16_0+4))/2
	.byte	(.LBB16_13-(.LCPI16_0+4))/2
	.byte	(.LBB16_15-(.LCPI16_0+4))/2
	.byte	(.LBB16_15-(.LCPI16_0+4))/2
	.byte	(.LBB16_10-(.LCPI16_0+4))/2
	.byte	(.LBB16_15-(.LCPI16_0+4))/2
	.byte	(.LBB16_15-(.LCPI16_0+4))/2
	.byte	(.LBB16_15-(.LCPI16_0+4))/2
	.byte	(.LBB16_4-(.LCPI16_0+4))/2
	.byte	(.LBB16_15-(.LCPI16_0+4))/2
	.byte	(.LBB16_15-(.LCPI16_0+4))/2
	.byte	(.LBB16_5-(.LCPI16_0+4))/2
	.byte	(.LBB16_15-(.LCPI16_0+4))/2
	.byte	(.LBB16_3-(.LCPI16_0+4))/2
	.p2align	1
.LBB16_3:
.Ltmp288:
	.loc	2 169 9 is_stmt 1               @ packages/littlefs-v2.0.5/dfs_lfs.c:169:9
	b	.LBB16_16
.LBB16_4:
	.loc	2 0 9 is_stmt 0                 @ packages/littlefs-v2.0.5/dfs_lfs.c:0:9
	mvn	r0, #4
	.loc	2 172 16 is_stmt 1              @ packages/littlefs-v2.0.5/dfs_lfs.c:172:16
	str	r0, [sp, #4]
	.loc	2 173 9                         @ packages/littlefs-v2.0.5/dfs_lfs.c:173:9
	b	.LBB16_16
.LBB16_5:
	.loc	2 0 9 is_stmt 0                 @ packages/littlefs-v2.0.5/dfs_lfs.c:0:9
	mvn	r0, #1
	.loc	2 176 16 is_stmt 1              @ packages/littlefs-v2.0.5/dfs_lfs.c:176:16
	str	r0, [sp, #4]
	.loc	2 177 9                         @ packages/littlefs-v2.0.5/dfs_lfs.c:177:9
	b	.LBB16_16
.LBB16_6:
	.loc	2 0 9 is_stmt 0                 @ packages/littlefs-v2.0.5/dfs_lfs.c:0:9
	mvn	r0, #16
	.loc	2 180 16 is_stmt 1              @ packages/littlefs-v2.0.5/dfs_lfs.c:180:16
	str	r0, [sp, #4]
	.loc	2 181 9                         @ packages/littlefs-v2.0.5/dfs_lfs.c:181:9
	b	.LBB16_16
.LBB16_7:
	.loc	2 0 9 is_stmt 0                 @ packages/littlefs-v2.0.5/dfs_lfs.c:0:9
	mvn	r0, #19
	.loc	2 184 16 is_stmt 1              @ packages/littlefs-v2.0.5/dfs_lfs.c:184:16
	str	r0, [sp, #4]
	.loc	2 185 9                         @ packages/littlefs-v2.0.5/dfs_lfs.c:185:9
	b	.LBB16_16
.LBB16_8:
	.loc	2 0 9 is_stmt 0                 @ packages/littlefs-v2.0.5/dfs_lfs.c:0:9
	mvn	r0, #20
	.loc	2 188 16 is_stmt 1              @ packages/littlefs-v2.0.5/dfs_lfs.c:188:16
	str	r0, [sp, #4]
	.loc	2 189 9                         @ packages/littlefs-v2.0.5/dfs_lfs.c:189:9
	b	.LBB16_16
.LBB16_9:
	.loc	2 0 9 is_stmt 0                 @ packages/littlefs-v2.0.5/dfs_lfs.c:0:9
	mvn	r0, #38
	.loc	2 192 16 is_stmt 1              @ packages/littlefs-v2.0.5/dfs_lfs.c:192:16
	str	r0, [sp, #4]
	.loc	2 193 9                         @ packages/littlefs-v2.0.5/dfs_lfs.c:193:9
	b	.LBB16_16
.LBB16_10:
	.loc	2 0 9 is_stmt 0                 @ packages/littlefs-v2.0.5/dfs_lfs.c:0:9
	mvn	r0, #8
	.loc	2 196 16 is_stmt 1              @ packages/littlefs-v2.0.5/dfs_lfs.c:196:16
	str	r0, [sp, #4]
	.loc	2 197 9                         @ packages/littlefs-v2.0.5/dfs_lfs.c:197:9
	b	.LBB16_16
.LBB16_11:
	.loc	2 0 9 is_stmt 0                 @ packages/littlefs-v2.0.5/dfs_lfs.c:0:9
	mvn	r0, #21
	.loc	2 200 16 is_stmt 1              @ packages/littlefs-v2.0.5/dfs_lfs.c:200:16
	str	r0, [sp, #4]
	.loc	2 201 9                         @ packages/littlefs-v2.0.5/dfs_lfs.c:201:9
	b	.LBB16_16
.LBB16_12:
	.loc	2 0 9 is_stmt 0                 @ packages/littlefs-v2.0.5/dfs_lfs.c:0:9
	mvn	r0, #27
	.loc	2 204 16 is_stmt 1              @ packages/littlefs-v2.0.5/dfs_lfs.c:204:16
	str	r0, [sp, #4]
	.loc	2 205 9                         @ packages/littlefs-v2.0.5/dfs_lfs.c:205:9
	b	.LBB16_16
.LBB16_13:
	.loc	2 0 9 is_stmt 0                 @ packages/littlefs-v2.0.5/dfs_lfs.c:0:9
	mvn	r0, #11
	.loc	2 208 16 is_stmt 1              @ packages/littlefs-v2.0.5/dfs_lfs.c:208:16
	str	r0, [sp, #4]
	.loc	2 209 9                         @ packages/littlefs-v2.0.5/dfs_lfs.c:209:9
	b	.LBB16_16
.LBB16_14:
	.loc	2 0 9 is_stmt 0                 @ packages/littlefs-v2.0.5/dfs_lfs.c:0:9
	mvn	r0, #51
	.loc	2 212 16 is_stmt 1              @ packages/littlefs-v2.0.5/dfs_lfs.c:212:16
	str	r0, [sp, #4]
	.loc	2 213 9                         @ packages/littlefs-v2.0.5/dfs_lfs.c:213:9
	b	.LBB16_16
.LBB16_15:
	.loc	2 0 9 is_stmt 0                 @ packages/littlefs-v2.0.5/dfs_lfs.c:0:9
	mvn	r0, #4
	.loc	2 216 16 is_stmt 1              @ packages/littlefs-v2.0.5/dfs_lfs.c:216:16
	str	r0, [sp, #4]
	.loc	2 217 9                         @ packages/littlefs-v2.0.5/dfs_lfs.c:217:9
	b	.LBB16_16
.Ltmp289:
.LBB16_16:
	.loc	2 220 12                        @ packages/littlefs-v2.0.5/dfs_lfs.c:220:12
	ldr	r0, [sp, #4]
	.loc	2 220 5 is_stmt 0               @ packages/littlefs-v2.0.5/dfs_lfs.c:220:5
	add	sp, #12
	bx	lr
.Ltmp290:
.Lfunc_end16:
	.size	_lfs_result_to_dfs, .Lfunc_end16-_lfs_result_to_dfs
	.cfi_endproc
	.cantunwind
	.fnend
                                        @ -- End function
	.section	.text._get_disk,"ax",%progbits
	.p2align	3                               @ -- Begin function _get_disk
	.type	_get_disk,%function
	.code	16                              @ @_get_disk
	.thumb_func
_get_disk:
.Lfunc_begin17:
	.loc	2 135 0 is_stmt 1               @ packages/littlefs-v2.0.5/dfs_lfs.c:135:0
	.fnstart
	.cfi_startproc
@ %bb.0:
	.pad	#12
	sub	sp, #12
	.cfi_def_cfa_offset 12
	str	r0, [sp, #4]
.Ltmp291:
	.loc	2 138 9 prologue_end            @ packages/littlefs-v2.0.5/dfs_lfs.c:138:9
	ldr	r0, [sp, #4]
.Ltmp292:
	.loc	2 138 9 is_stmt 0               @ packages/littlefs-v2.0.5/dfs_lfs.c:138:9
	cbnz	r0, .LBB17_8
	b	.LBB17_1
.LBB17_1:
	.loc	2 0 9                           @ packages/littlefs-v2.0.5/dfs_lfs.c:0:9
	movs	r0, #0
.Ltmp293:
	.loc	2 140 20 is_stmt 1              @ packages/littlefs-v2.0.5/dfs_lfs.c:140:20
	str	r0, [sp]
	.loc	2 140 14 is_stmt 0              @ packages/littlefs-v2.0.5/dfs_lfs.c:140:14
	b	.LBB17_2
.LBB17_2:                               @ =>This Inner Loop Header: Depth=1
.Ltmp294:
	.loc	2 140 25                        @ packages/littlefs-v2.0.5/dfs_lfs.c:140:25
	ldr	r0, [sp]
.Ltmp295:
	.loc	2 140 9                         @ packages/littlefs-v2.0.5/dfs_lfs.c:140:9
	cmp	r0, #0
	bgt	.LBB17_7
	b	.LBB17_3
.LBB17_3:                               @   in Loop: Header=BB17_2 Depth=1
.Ltmp296:
	.loc	2 142 31 is_stmt 1              @ packages/littlefs-v2.0.5/dfs_lfs.c:142:31
	ldr	r1, [sp]
	.loc	2 142 16 is_stmt 0              @ packages/littlefs-v2.0.5/dfs_lfs.c:142:16
	movw	r0, :lower16:_lfs_mount_tbl
	movt	r0, :upper16:_lfs_mount_tbl
	ldr.w	r0, [r0, r1, lsl #2]
.Ltmp297:
	.loc	2 142 16                        @ packages/littlefs-v2.0.5/dfs_lfs.c:142:16
	cbnz	r0, .LBB17_5
	b	.LBB17_4
.LBB17_4:
.Ltmp298:
	.loc	2 144 24 is_stmt 1              @ packages/littlefs-v2.0.5/dfs_lfs.c:144:24
	ldr	r0, [sp]
	.loc	2 144 17 is_stmt 0              @ packages/littlefs-v2.0.5/dfs_lfs.c:144:17
	str	r0, [sp, #8]
	b	.LBB17_17
.Ltmp299:
.LBB17_5:                               @   in Loop: Header=BB17_2 Depth=1
	.loc	2 146 9 is_stmt 1               @ packages/littlefs-v2.0.5/dfs_lfs.c:146:9
	b	.LBB17_6
.Ltmp300:
.LBB17_6:                               @   in Loop: Header=BB17_2 Depth=1
	.loc	2 140 59                        @ packages/littlefs-v2.0.5/dfs_lfs.c:140:59
	ldr	r0, [sp]
	adds	r0, #1
	str	r0, [sp]
	.loc	2 140 9 is_stmt 0               @ packages/littlefs-v2.0.5/dfs_lfs.c:140:9
	b	.LBB17_2
.Ltmp301:
.LBB17_7:
	.loc	2 147 5 is_stmt 1               @ packages/littlefs-v2.0.5/dfs_lfs.c:147:5
	b	.LBB17_16
.Ltmp302:
.LBB17_8:
	.loc	2 0 5 is_stmt 0                 @ packages/littlefs-v2.0.5/dfs_lfs.c:0:5
	movs	r0, #0
.Ltmp303:
	.loc	2 150 20 is_stmt 1              @ packages/littlefs-v2.0.5/dfs_lfs.c:150:20
	str	r0, [sp]
	.loc	2 150 14 is_stmt 0              @ packages/littlefs-v2.0.5/dfs_lfs.c:150:14
	b	.LBB17_9
.LBB17_9:                               @ =>This Inner Loop Header: Depth=1
.Ltmp304:
	.loc	2 150 25                        @ packages/littlefs-v2.0.5/dfs_lfs.c:150:25
	ldr	r0, [sp]
.Ltmp305:
	.loc	2 150 9                         @ packages/littlefs-v2.0.5/dfs_lfs.c:150:9
	cmp	r0, #0
	bgt	.LBB17_15
	b	.LBB17_10
.LBB17_10:                              @   in Loop: Header=BB17_9 Depth=1
.Ltmp306:
	.loc	2 152 33 is_stmt 1              @ packages/littlefs-v2.0.5/dfs_lfs.c:152:33
	ldr	r1, [sp]
	.loc	2 152 18 is_stmt 0              @ packages/littlefs-v2.0.5/dfs_lfs.c:152:18
	movw	r0, :lower16:_lfs_mount_tbl
	movt	r0, :upper16:_lfs_mount_tbl
	ldr.w	r0, [r0, r1, lsl #2]
	.loc	2 152 52                        @ packages/littlefs-v2.0.5/dfs_lfs.c:152:52
	cbz	r0, .LBB17_13
	b	.LBB17_11
.LBB17_11:                              @   in Loop: Header=BB17_9 Depth=1
	.loc	2 152 71                        @ packages/littlefs-v2.0.5/dfs_lfs.c:152:71
	ldr	r1, [sp]
	.loc	2 152 56                        @ packages/littlefs-v2.0.5/dfs_lfs.c:152:56
	movw	r0, :lower16:_lfs_mount_tbl
	movt	r0, :upper16:_lfs_mount_tbl
	ldr.w	r0, [r0, r1, lsl #2]
	.loc	2 152 83                        @ packages/littlefs-v2.0.5/dfs_lfs.c:152:83
	ldr	r0, [r0, #120]
	.loc	2 152 102                       @ packages/littlefs-v2.0.5/dfs_lfs.c:152:102
	ldr	r1, [sp, #4]
.Ltmp307:
	.loc	2 152 17                        @ packages/littlefs-v2.0.5/dfs_lfs.c:152:17
	cmp	r0, r1
	bne	.LBB17_13
	b	.LBB17_12
.LBB17_12:
.Ltmp308:
	.loc	2 154 24 is_stmt 1              @ packages/littlefs-v2.0.5/dfs_lfs.c:154:24
	ldr	r0, [sp]
	.loc	2 154 17 is_stmt 0              @ packages/littlefs-v2.0.5/dfs_lfs.c:154:17
	str	r0, [sp, #8]
	b	.LBB17_17
.Ltmp309:
.LBB17_13:                              @   in Loop: Header=BB17_9 Depth=1
	.loc	2 156 9 is_stmt 1               @ packages/littlefs-v2.0.5/dfs_lfs.c:156:9
	b	.LBB17_14
.Ltmp310:
.LBB17_14:                              @   in Loop: Header=BB17_9 Depth=1
	.loc	2 150 59                        @ packages/littlefs-v2.0.5/dfs_lfs.c:150:59
	ldr	r0, [sp]
	adds	r0, #1
	str	r0, [sp]
	.loc	2 150 9 is_stmt 0               @ packages/littlefs-v2.0.5/dfs_lfs.c:150:9
	b	.LBB17_9
.Ltmp311:
.LBB17_15:
	.loc	2 0 9                           @ packages/littlefs-v2.0.5/dfs_lfs.c:0:9
	b	.LBB17_16
.LBB17_16:
	mov.w	r0, #-1
	.loc	2 159 5 is_stmt 1               @ packages/littlefs-v2.0.5/dfs_lfs.c:159:5
	str	r0, [sp, #8]
	b	.LBB17_17
.LBB17_17:
	.loc	2 160 1                         @ packages/littlefs-v2.0.5/dfs_lfs.c:160:1
	ldr	r0, [sp, #8]
	add	sp, #12
	bx	lr
.Ltmp312:
.Lfunc_end17:
	.size	_get_disk, .Lfunc_end17-_get_disk
	.cfi_endproc
	.cantunwind
	.fnend
                                        @ -- End function
	.section	.text._lfs_load_config,"ax",%progbits
	.p2align	3                               @ -- Begin function _lfs_load_config
	.type	_lfs_load_config,%function
	.code	16                              @ @_lfs_load_config
	.thumb_func
_lfs_load_config:
.Lfunc_begin18:
	.loc	2 224 0                         @ packages/littlefs-v2.0.5/dfs_lfs.c:224:0
	.fnstart
	.cfi_startproc
@ %bb.0:
	.pad	#8
	sub	sp, #8
	.cfi_def_cfa_offset 8
	str	r0, [sp, #4]
	str	r1, [sp]
.Ltmp313:
	.loc	2 225 31 prologue_end           @ packages/littlefs-v2.0.5/dfs_lfs.c:225:31
	ldr	r0, [sp]
	.loc	2 225 5 is_stmt 0               @ packages/littlefs-v2.0.5/dfs_lfs.c:225:5
	ldr	r1, [sp, #4]
	.loc	2 225 22                        @ packages/littlefs-v2.0.5/dfs_lfs.c:225:22
	str	r0, [r1]
	.loc	2 227 5 is_stmt 1               @ packages/littlefs-v2.0.5/dfs_lfs.c:227:5
	ldr	r1, [sp, #4]
	mov.w	r0, #256
	.loc	2 227 24 is_stmt 0              @ packages/littlefs-v2.0.5/dfs_lfs.c:227:24
	str	r0, [r1, #20]
	.loc	2 228 5 is_stmt 1               @ packages/littlefs-v2.0.5/dfs_lfs.c:228:5
	ldr	r1, [sp, #4]
	.loc	2 228 24 is_stmt 0              @ packages/littlefs-v2.0.5/dfs_lfs.c:228:24
	str	r0, [r1, #24]
	.loc	2 230 27 is_stmt 1              @ packages/littlefs-v2.0.5/dfs_lfs.c:230:27
	ldr	r0, [sp]
	.loc	2 230 36 is_stmt 0              @ packages/littlefs-v2.0.5/dfs_lfs.c:230:36
	ldr	r0, [r0, #80]
	.loc	2 230 5                         @ packages/littlefs-v2.0.5/dfs_lfs.c:230:5
	ldr	r1, [sp, #4]
	.loc	2 230 25                        @ packages/littlefs-v2.0.5/dfs_lfs.c:230:25
	str	r0, [r1, #28]
.Ltmp314:
	.loc	2 231 9 is_stmt 1               @ packages/littlefs-v2.0.5/dfs_lfs.c:231:9
	ldr	r0, [sp, #4]
	.loc	2 231 18 is_stmt 0              @ packages/littlefs-v2.0.5/dfs_lfs.c:231:18
	ldr	r1, [r0, #28]
	movs	r0, #0
.Ltmp315:
	.loc	2 231 9                         @ packages/littlefs-v2.0.5/dfs_lfs.c:231:9
	cmp.w	r0, r1, lsr #12
	bne	.LBB18_2
	b	.LBB18_1
.LBB18_1:
.Ltmp316:
	.loc	2 233 9 is_stmt 1               @ packages/littlefs-v2.0.5/dfs_lfs.c:233:9
	ldr	r1, [sp, #4]
	mov.w	r0, #4096
	.loc	2 233 29 is_stmt 0              @ packages/littlefs-v2.0.5/dfs_lfs.c:233:29
	str	r0, [r1, #28]
	.loc	2 234 5 is_stmt 1               @ packages/littlefs-v2.0.5/dfs_lfs.c:234:5
	b	.LBB18_2
.Ltmp317:
.LBB18_2:
	.loc	2 236 5                         @ packages/littlefs-v2.0.5/dfs_lfs.c:236:5
	ldr	r1, [sp, #4]
	mov.w	r0, #256
	.loc	2 236 25 is_stmt 0              @ packages/littlefs-v2.0.5/dfs_lfs.c:236:25
	str	r0, [r1, #40]
	.loc	2 237 5 is_stmt 1               @ packages/littlefs-v2.0.5/dfs_lfs.c:237:5
	ldr	r1, [sp, #4]
	movs	r0, #0
	.loc	2 237 27 is_stmt 0              @ packages/littlefs-v2.0.5/dfs_lfs.c:237:27
	str	r0, [r1, #36]
	.loc	2 239 28 is_stmt 1              @ packages/littlefs-v2.0.5/dfs_lfs.c:239:28
	ldr	r0, [sp]
	.loc	2 239 58 is_stmt 0              @ packages/littlefs-v2.0.5/dfs_lfs.c:239:58
	ldr	r1, [r0, #84]
	.loc	2 239 37                        @ packages/littlefs-v2.0.5/dfs_lfs.c:239:37
	ldr	r0, [r0, #88]
	.loc	2 239 47                        @ packages/littlefs-v2.0.5/dfs_lfs.c:239:47
	subs	r0, r0, r1
	.loc	2 239 5                         @ packages/littlefs-v2.0.5/dfs_lfs.c:239:5
	ldr	r1, [sp, #4]
	.loc	2 239 26                        @ packages/littlefs-v2.0.5/dfs_lfs.c:239:26
	str	r0, [r1, #32]
	.loc	2 241 38 is_stmt 1              @ packages/littlefs-v2.0.5/dfs_lfs.c:241:38
	ldr	r1, [sp, #4]
	.loc	2 241 47 is_stmt 0              @ packages/littlefs-v2.0.5/dfs_lfs.c:241:47
	ldr	r0, [r1, #32]
	.loc	2 241 59                        @ packages/littlefs-v2.0.5/dfs_lfs.c:241:59
	adds	r0, #31
	.loc	2 241 65                        @ packages/littlefs-v2.0.5/dfs_lfs.c:241:65
	bic	r0, r0, #31
	.loc	2 241 29                        @ packages/littlefs-v2.0.5/dfs_lfs.c:241:29
	str	r0, [r1, #44]
.Ltmp318:
	.loc	2 242 9 is_stmt 1               @ packages/littlefs-v2.0.5/dfs_lfs.c:242:9
	ldr	r0, [sp, #4]
	.loc	2 242 18 is_stmt 0              @ packages/littlefs-v2.0.5/dfs_lfs.c:242:18
	ldr	r0, [r0, #44]
.Ltmp319:
	.loc	2 242 9                         @ packages/littlefs-v2.0.5/dfs_lfs.c:242:9
	cmp	r0, #129
	blo	.LBB18_4
	b	.LBB18_3
.LBB18_3:
.Ltmp320:
	.loc	2 244 9 is_stmt 1               @ packages/littlefs-v2.0.5/dfs_lfs.c:244:9
	ldr	r1, [sp, #4]
	movs	r0, #128
	.loc	2 244 33 is_stmt 0              @ packages/littlefs-v2.0.5/dfs_lfs.c:244:33
	str	r0, [r1, #44]
	.loc	2 245 5 is_stmt 1               @ packages/littlefs-v2.0.5/dfs_lfs.c:245:5
	b	.LBB18_4
.Ltmp321:
.LBB18_4:
	.loc	2 247 5                         @ packages/littlefs-v2.0.5/dfs_lfs.c:247:5
	ldr	r1, [sp, #4]
	.loc	2 247 19 is_stmt 0              @ packages/littlefs-v2.0.5/dfs_lfs.c:247:19
	movw	r0, :lower16:_lfs_flash_read
	movt	r0, :upper16:_lfs_flash_read
	str	r0, [r1, #4]
	.loc	2 248 5 is_stmt 1               @ packages/littlefs-v2.0.5/dfs_lfs.c:248:5
	ldr	r1, [sp, #4]
	.loc	2 248 19 is_stmt 0              @ packages/littlefs-v2.0.5/dfs_lfs.c:248:19
	movw	r0, :lower16:_lfs_flash_prog
	movt	r0, :upper16:_lfs_flash_prog
	str	r0, [r1, #8]
	.loc	2 249 5 is_stmt 1               @ packages/littlefs-v2.0.5/dfs_lfs.c:249:5
	ldr	r1, [sp, #4]
	.loc	2 249 20 is_stmt 0              @ packages/littlefs-v2.0.5/dfs_lfs.c:249:20
	movw	r0, :lower16:_lfs_flash_erase
	movt	r0, :upper16:_lfs_flash_erase
	str	r0, [r1, #12]
	.loc	2 250 5 is_stmt 1               @ packages/littlefs-v2.0.5/dfs_lfs.c:250:5
	ldr	r1, [sp, #4]
	.loc	2 250 19 is_stmt 0              @ packages/littlefs-v2.0.5/dfs_lfs.c:250:19
	movw	r0, :lower16:_lfs_flash_sync
	movt	r0, :upper16:_lfs_flash_sync
	str	r0, [r1, #16]
	.loc	2 251 1 is_stmt 1               @ packages/littlefs-v2.0.5/dfs_lfs.c:251:1
	add	sp, #8
	bx	lr
.Ltmp322:
.Lfunc_end18:
	.size	_lfs_load_config, .Lfunc_end18-_lfs_load_config
	.cfi_endproc
	.cantunwind
	.fnend
                                        @ -- End function
	.section	.text._lfs_flash_read,"ax",%progbits
	.p2align	3                               @ -- Begin function _lfs_flash_read
	.type	_lfs_flash_read,%function
	.code	16                              @ @_lfs_flash_read
	.thumb_func
_lfs_flash_read:
.Lfunc_begin19:
	.loc	2 69 0                          @ packages/littlefs-v2.0.5/dfs_lfs.c:69:0
	.fnstart
	.cfi_startproc
@ %bb.0:
	.save	{r7, lr}
	push	{r7, lr}
	.cfi_def_cfa_offset 8
	.cfi_offset lr, -4
	.cfi_offset r7, -8
	.pad	#24
	sub	sp, #24
	.cfi_def_cfa_offset 32
	ldr.w	r12, [sp, #32]
	str	r0, [sp, #16]
	str	r1, [sp, #12]
	str	r2, [sp, #8]
	str	r3, [sp, #4]
.Ltmp323:
	.loc	2 72 5 prologue_end             @ packages/littlefs-v2.0.5/dfs_lfs.c:72:5
	ldr	r0, [sp, #16]
.Ltmp324:
	.loc	2 72 5 is_stmt 0                @ packages/littlefs-v2.0.5/dfs_lfs.c:72:5
	cbnz	r0, .LBB19_2
	b	.LBB19_1
.LBB19_1:
.Ltmp325:
	.loc	2 72 5                          @ packages/littlefs-v2.0.5/dfs_lfs.c:72:5
	movw	r0, :lower16:.L.str.8
	movt	r0, :upper16:.L.str.8
	movw	r1, :lower16:.L__FUNCTION__._lfs_flash_read
	movt	r1, :upper16:.L__FUNCTION__._lfs_flash_read
	movs	r2, #72
	bl	rt_assert_handler
	b	.LBB19_2
.Ltmp326:
.LBB19_2:
	.loc	2 73 5 is_stmt 1                @ packages/littlefs-v2.0.5/dfs_lfs.c:73:5
	ldr	r0, [sp, #16]
	ldr	r0, [r0]
.Ltmp327:
	.loc	2 73 5 is_stmt 0                @ packages/littlefs-v2.0.5/dfs_lfs.c:73:5
	cbnz	r0, .LBB19_4
	b	.LBB19_3
.LBB19_3:
.Ltmp328:
	.loc	2 73 5                          @ packages/littlefs-v2.0.5/dfs_lfs.c:73:5
	movw	r0, :lower16:.L.str.9
	movt	r0, :upper16:.L.str.9
	movw	r1, :lower16:.L__FUNCTION__._lfs_flash_read
	movt	r1, :upper16:.L__FUNCTION__._lfs_flash_read
	movs	r2, #73
	bl	rt_assert_handler
	b	.LBB19_4
.Ltmp329:
.LBB19_4:
	.loc	2 75 42 is_stmt 1               @ packages/littlefs-v2.0.5/dfs_lfs.c:75:42
	ldr	r0, [sp, #16]
	.loc	2 75 45 is_stmt 0               @ packages/littlefs-v2.0.5/dfs_lfs.c:75:45
	ldr	r0, [r0]
	.loc	2 75 13                         @ packages/littlefs-v2.0.5/dfs_lfs.c:75:13
	str	r0, [sp]
.Ltmp330:
	.loc	2 76 25 is_stmt 1               @ packages/littlefs-v2.0.5/dfs_lfs.c:76:25
	ldr	r0, [sp]
	.loc	2 76 34 is_stmt 0               @ packages/littlefs-v2.0.5/dfs_lfs.c:76:34
	ldr	r1, [sp, #12]
	.loc	2 76 42                         @ packages/littlefs-v2.0.5/dfs_lfs.c:76:42
	ldr	r2, [sp, #16]
	.loc	2 76 45                         @ packages/littlefs-v2.0.5/dfs_lfs.c:76:45
	ldr	r2, [r2, #28]
	.loc	2 76 58                         @ packages/littlefs-v2.0.5/dfs_lfs.c:76:58
	ldr	r3, [sp, #8]
	.loc	2 76 56                         @ packages/littlefs-v2.0.5/dfs_lfs.c:76:56
	mla	r1, r1, r2, r3
	.loc	2 76 63                         @ packages/littlefs-v2.0.5/dfs_lfs.c:76:63
	ldr	r2, [sp, #4]
	.loc	2 76 71                         @ packages/littlefs-v2.0.5/dfs_lfs.c:76:71
	ldr	r3, [sp, #32]
	.loc	2 76 9                          @ packages/littlefs-v2.0.5/dfs_lfs.c:76:9
	bl	rt_mtd_nor_read
	.loc	2 76 80                         @ packages/littlefs-v2.0.5/dfs_lfs.c:76:80
	ldr	r1, [sp, #32]
.Ltmp331:
	.loc	2 76 9                          @ packages/littlefs-v2.0.5/dfs_lfs.c:76:9
	cmp	r0, r1
	beq	.LBB19_6
	b	.LBB19_5
.LBB19_5:
	.loc	2 0 9                           @ packages/littlefs-v2.0.5/dfs_lfs.c:0:9
	mvn	r0, #4
.Ltmp332:
	.loc	2 78 9 is_stmt 1                @ packages/littlefs-v2.0.5/dfs_lfs.c:78:9
	str	r0, [sp, #20]
	b	.LBB19_7
.Ltmp333:
.LBB19_6:
	.loc	2 0 9 is_stmt 0                 @ packages/littlefs-v2.0.5/dfs_lfs.c:0:9
	movs	r0, #0
	.loc	2 81 5 is_stmt 1                @ packages/littlefs-v2.0.5/dfs_lfs.c:81:5
	str	r0, [sp, #20]
	b	.LBB19_7
.LBB19_7:
	.loc	2 82 1                          @ packages/littlefs-v2.0.5/dfs_lfs.c:82:1
	ldr	r0, [sp, #20]
	add	sp, #24
	pop	{r7, pc}
.Ltmp334:
.Lfunc_end19:
	.size	_lfs_flash_read, .Lfunc_end19-_lfs_flash_read
	.cfi_endproc
	.cantunwind
	.fnend
                                        @ -- End function
	.section	.text._lfs_flash_prog,"ax",%progbits
	.p2align	3                               @ -- Begin function _lfs_flash_prog
	.type	_lfs_flash_prog,%function
	.code	16                              @ @_lfs_flash_prog
	.thumb_func
_lfs_flash_prog:
.Lfunc_begin20:
	.loc	2 88 0                          @ packages/littlefs-v2.0.5/dfs_lfs.c:88:0
	.fnstart
	.cfi_startproc
@ %bb.0:
	.save	{r7, lr}
	push	{r7, lr}
	.cfi_def_cfa_offset 8
	.cfi_offset lr, -4
	.cfi_offset r7, -8
	.pad	#24
	sub	sp, #24
	.cfi_def_cfa_offset 32
	ldr.w	r12, [sp, #32]
	str	r0, [sp, #16]
	str	r1, [sp, #12]
	str	r2, [sp, #8]
	str	r3, [sp, #4]
.Ltmp335:
	.loc	2 91 5 prologue_end             @ packages/littlefs-v2.0.5/dfs_lfs.c:91:5
	ldr	r0, [sp, #16]
.Ltmp336:
	.loc	2 91 5 is_stmt 0                @ packages/littlefs-v2.0.5/dfs_lfs.c:91:5
	cbnz	r0, .LBB20_2
	b	.LBB20_1
.LBB20_1:
.Ltmp337:
	.loc	2 91 5                          @ packages/littlefs-v2.0.5/dfs_lfs.c:91:5
	movw	r0, :lower16:.L.str.8
	movt	r0, :upper16:.L.str.8
	movw	r1, :lower16:.L__FUNCTION__._lfs_flash_prog
	movt	r1, :upper16:.L__FUNCTION__._lfs_flash_prog
	movs	r2, #91
	bl	rt_assert_handler
	b	.LBB20_2
.Ltmp338:
.LBB20_2:
	.loc	2 92 5 is_stmt 1                @ packages/littlefs-v2.0.5/dfs_lfs.c:92:5
	ldr	r0, [sp, #16]
	ldr	r0, [r0]
.Ltmp339:
	.loc	2 92 5 is_stmt 0                @ packages/littlefs-v2.0.5/dfs_lfs.c:92:5
	cbnz	r0, .LBB20_4
	b	.LBB20_3
.LBB20_3:
.Ltmp340:
	.loc	2 92 5                          @ packages/littlefs-v2.0.5/dfs_lfs.c:92:5
	movw	r0, :lower16:.L.str.9
	movt	r0, :upper16:.L.str.9
	movw	r1, :lower16:.L__FUNCTION__._lfs_flash_prog
	movt	r1, :upper16:.L__FUNCTION__._lfs_flash_prog
	movs	r2, #92
	bl	rt_assert_handler
	b	.LBB20_4
.Ltmp341:
.LBB20_4:
	.loc	2 94 42 is_stmt 1               @ packages/littlefs-v2.0.5/dfs_lfs.c:94:42
	ldr	r0, [sp, #16]
	.loc	2 94 45 is_stmt 0               @ packages/littlefs-v2.0.5/dfs_lfs.c:94:45
	ldr	r0, [r0]
	.loc	2 94 13                         @ packages/littlefs-v2.0.5/dfs_lfs.c:94:13
	str	r0, [sp]
.Ltmp342:
	.loc	2 95 26 is_stmt 1               @ packages/littlefs-v2.0.5/dfs_lfs.c:95:26
	ldr	r0, [sp]
	.loc	2 95 35 is_stmt 0               @ packages/littlefs-v2.0.5/dfs_lfs.c:95:35
	ldr	r1, [sp, #12]
	.loc	2 95 43                         @ packages/littlefs-v2.0.5/dfs_lfs.c:95:43
	ldr	r2, [sp, #16]
	.loc	2 95 46                         @ packages/littlefs-v2.0.5/dfs_lfs.c:95:46
	ldr	r2, [r2, #28]
	.loc	2 95 59                         @ packages/littlefs-v2.0.5/dfs_lfs.c:95:59
	ldr	r3, [sp, #8]
	.loc	2 95 57                         @ packages/littlefs-v2.0.5/dfs_lfs.c:95:57
	mla	r1, r1, r2, r3
	.loc	2 95 64                         @ packages/littlefs-v2.0.5/dfs_lfs.c:95:64
	ldr	r2, [sp, #4]
	.loc	2 95 72                         @ packages/littlefs-v2.0.5/dfs_lfs.c:95:72
	ldr	r3, [sp, #32]
	.loc	2 95 9                          @ packages/littlefs-v2.0.5/dfs_lfs.c:95:9
	bl	rt_mtd_nor_write
	.loc	2 95 81                         @ packages/littlefs-v2.0.5/dfs_lfs.c:95:81
	ldr	r1, [sp, #32]
.Ltmp343:
	.loc	2 95 9                          @ packages/littlefs-v2.0.5/dfs_lfs.c:95:9
	cmp	r0, r1
	beq	.LBB20_6
	b	.LBB20_5
.LBB20_5:
	.loc	2 0 9                           @ packages/littlefs-v2.0.5/dfs_lfs.c:0:9
	mvn	r0, #4
.Ltmp344:
	.loc	2 97 9 is_stmt 1                @ packages/littlefs-v2.0.5/dfs_lfs.c:97:9
	str	r0, [sp, #20]
	b	.LBB20_7
.Ltmp345:
.LBB20_6:
	.loc	2 0 9 is_stmt 0                 @ packages/littlefs-v2.0.5/dfs_lfs.c:0:9
	movs	r0, #0
	.loc	2 100 5 is_stmt 1               @ packages/littlefs-v2.0.5/dfs_lfs.c:100:5
	str	r0, [sp, #20]
	b	.LBB20_7
.LBB20_7:
	.loc	2 101 1                         @ packages/littlefs-v2.0.5/dfs_lfs.c:101:1
	ldr	r0, [sp, #20]
	add	sp, #24
	pop	{r7, pc}
.Ltmp346:
.Lfunc_end20:
	.size	_lfs_flash_prog, .Lfunc_end20-_lfs_flash_prog
	.cfi_endproc
	.cantunwind
	.fnend
                                        @ -- End function
	.section	.text._lfs_flash_erase,"ax",%progbits
	.p2align	3                               @ -- Begin function _lfs_flash_erase
	.type	_lfs_flash_erase,%function
	.code	16                              @ @_lfs_flash_erase
	.thumb_func
_lfs_flash_erase:
.Lfunc_begin21:
	.loc	2 108 0                         @ packages/littlefs-v2.0.5/dfs_lfs.c:108:0
	.fnstart
	.cfi_startproc
@ %bb.0:
	.save	{r7, lr}
	push	{r7, lr}
	.cfi_def_cfa_offset 8
	.cfi_offset lr, -4
	.cfi_offset r7, -8
	.pad	#16
	sub	sp, #16
	.cfi_def_cfa_offset 24
	str	r0, [sp, #8]
	str	r1, [sp, #4]
.Ltmp347:
	.loc	2 111 5 prologue_end            @ packages/littlefs-v2.0.5/dfs_lfs.c:111:5
	ldr	r0, [sp, #8]
.Ltmp348:
	.loc	2 111 5 is_stmt 0               @ packages/littlefs-v2.0.5/dfs_lfs.c:111:5
	cbnz	r0, .LBB21_2
	b	.LBB21_1
.LBB21_1:
.Ltmp349:
	.loc	2 111 5                         @ packages/littlefs-v2.0.5/dfs_lfs.c:111:5
	movw	r0, :lower16:.L.str.8
	movt	r0, :upper16:.L.str.8
	movw	r1, :lower16:.L__FUNCTION__._lfs_flash_erase
	movt	r1, :upper16:.L__FUNCTION__._lfs_flash_erase
	movs	r2, #111
	bl	rt_assert_handler
	b	.LBB21_2
.Ltmp350:
.LBB21_2:
	.loc	2 112 5 is_stmt 1               @ packages/littlefs-v2.0.5/dfs_lfs.c:112:5
	ldr	r0, [sp, #8]
	ldr	r0, [r0]
.Ltmp351:
	.loc	2 112 5 is_stmt 0               @ packages/littlefs-v2.0.5/dfs_lfs.c:112:5
	cbnz	r0, .LBB21_4
	b	.LBB21_3
.LBB21_3:
.Ltmp352:
	.loc	2 112 5                         @ packages/littlefs-v2.0.5/dfs_lfs.c:112:5
	movw	r0, :lower16:.L.str.9
	movt	r0, :upper16:.L.str.9
	movw	r1, :lower16:.L__FUNCTION__._lfs_flash_erase
	movt	r1, :upper16:.L__FUNCTION__._lfs_flash_erase
	movs	r2, #112
	bl	rt_assert_handler
	b	.LBB21_4
.Ltmp353:
.LBB21_4:
	.loc	2 114 42 is_stmt 1              @ packages/littlefs-v2.0.5/dfs_lfs.c:114:42
	ldr	r0, [sp, #8]
	.loc	2 114 45 is_stmt 0              @ packages/littlefs-v2.0.5/dfs_lfs.c:114:45
	ldr	r0, [r0]
	.loc	2 114 13                        @ packages/littlefs-v2.0.5/dfs_lfs.c:114:13
	str	r0, [sp]
.Ltmp354:
	.loc	2 115 32 is_stmt 1              @ packages/littlefs-v2.0.5/dfs_lfs.c:115:32
	ldr	r0, [sp]
	.loc	2 115 41 is_stmt 0              @ packages/littlefs-v2.0.5/dfs_lfs.c:115:41
	ldr	r1, [sp, #4]
	.loc	2 115 49                        @ packages/littlefs-v2.0.5/dfs_lfs.c:115:49
	ldr	r2, [sp, #8]
	.loc	2 115 52                        @ packages/littlefs-v2.0.5/dfs_lfs.c:115:52
	ldr	r2, [r2, #28]
	.loc	2 115 47                        @ packages/littlefs-v2.0.5/dfs_lfs.c:115:47
	muls	r1, r2, r1
	.loc	2 115 9                         @ packages/littlefs-v2.0.5/dfs_lfs.c:115:9
	bl	rt_mtd_nor_erase_block
.Ltmp355:
	.loc	2 115 9                         @ packages/littlefs-v2.0.5/dfs_lfs.c:115:9
	cbz	r0, .LBB21_6
	b	.LBB21_5
.LBB21_5:
	.loc	2 0 9                           @ packages/littlefs-v2.0.5/dfs_lfs.c:0:9
	mvn	r0, #4
.Ltmp356:
	.loc	2 117 9 is_stmt 1               @ packages/littlefs-v2.0.5/dfs_lfs.c:117:9
	str	r0, [sp, #12]
	b	.LBB21_7
.Ltmp357:
.LBB21_6:
	.loc	2 0 9 is_stmt 0                 @ packages/littlefs-v2.0.5/dfs_lfs.c:0:9
	movs	r0, #0
	.loc	2 120 5 is_stmt 1               @ packages/littlefs-v2.0.5/dfs_lfs.c:120:5
	str	r0, [sp, #12]
	b	.LBB21_7
.LBB21_7:
	.loc	2 121 1                         @ packages/littlefs-v2.0.5/dfs_lfs.c:121:1
	ldr	r0, [sp, #12]
	add	sp, #16
	pop	{r7, pc}
.Ltmp358:
.Lfunc_end21:
	.size	_lfs_flash_erase, .Lfunc_end21-_lfs_flash_erase
	.cfi_endproc
	.cantunwind
	.fnend
                                        @ -- End function
	.section	.text._lfs_flash_sync,"ax",%progbits
	.p2align	3                               @ -- Begin function _lfs_flash_sync
	.type	_lfs_flash_sync,%function
	.code	16                              @ @_lfs_flash_sync
	.thumb_func
_lfs_flash_sync:
.Lfunc_begin22:
	.loc	2 126 0                         @ packages/littlefs-v2.0.5/dfs_lfs.c:126:0
	.fnstart
	.cfi_startproc
@ %bb.0:
	.pad	#4
	sub	sp, #4
	.cfi_def_cfa_offset 4
	str	r0, [sp]
	movs	r0, #0
.Ltmp359:
	.loc	2 127 5 prologue_end            @ packages/littlefs-v2.0.5/dfs_lfs.c:127:5
	add	sp, #4
	bx	lr
.Ltmp360:
.Lfunc_end22:
	.size	_lfs_flash_sync, .Lfunc_end22-_lfs_flash_sync
	.cfi_endproc
	.cantunwind
	.fnend
                                        @ -- End function
	.section	.text.rt_mtd_nor_read,"ax",%progbits
	.p2align	3                               @ -- Begin function rt_mtd_nor_read
	.type	rt_mtd_nor_read,%function
	.code	16                              @ @rt_mtd_nor_read
	.thumb_func
rt_mtd_nor_read:
.Lfunc_begin23:
	.loc	12 51 0                         @ rt-thread/components/drivers/include/drivers/mtd_nor.h:51:0
	.fnstart
	.cfi_startproc
@ %bb.0:
	.save	{r7, lr}
	push	{r7, lr}
	.cfi_def_cfa_offset 8
	.cfi_offset lr, -4
	.cfi_offset r7, -8
	.pad	#16
	sub	sp, #16
	.cfi_def_cfa_offset 24
	str	r0, [sp, #12]
	str	r1, [sp, #8]
	str	r2, [sp, #4]
	str	r3, [sp]
.Ltmp361:
	.loc	12 52 9 prologue_end            @ rt-thread/components/drivers/include/drivers/mtd_nor.h:52:9
	ldr	r0, [sp, #12]
	.loc	12 52 17 is_stmt 0              @ rt-thread/components/drivers/include/drivers/mtd_nor.h:52:17
	ldr	r1, [r0, #92]
	.loc	12 52 22                        @ rt-thread/components/drivers/include/drivers/mtd_nor.h:52:22
	ldr.w	r12, [r1, #4]
	.loc	12 52 35                        @ rt-thread/components/drivers/include/drivers/mtd_nor.h:52:35
	ldr	r1, [sp, #8]
	.loc	12 52 43                        @ rt-thread/components/drivers/include/drivers/mtd_nor.h:52:43
	ldr	r2, [sp, #4]
	.loc	12 52 49                        @ rt-thread/components/drivers/include/drivers/mtd_nor.h:52:49
	ldr	r3, [sp]
	.loc	12 52 9                         @ rt-thread/components/drivers/include/drivers/mtd_nor.h:52:9
	blx	r12
	.loc	12 52 2                         @ rt-thread/components/drivers/include/drivers/mtd_nor.h:52:2
	add	sp, #16
	pop	{r7, pc}
.Ltmp362:
.Lfunc_end23:
	.size	rt_mtd_nor_read, .Lfunc_end23-rt_mtd_nor_read
	.cfi_endproc
	.cantunwind
	.fnend
                                        @ -- End function
	.section	.text.rt_mtd_nor_write,"ax",%progbits
	.p2align	3                               @ -- Begin function rt_mtd_nor_write
	.type	rt_mtd_nor_write,%function
	.code	16                              @ @rt_mtd_nor_write
	.thumb_func
rt_mtd_nor_write:
.Lfunc_begin24:
	.loc	12 58 0 is_stmt 1               @ rt-thread/components/drivers/include/drivers/mtd_nor.h:58:0
	.fnstart
	.cfi_startproc
@ %bb.0:
	.save	{r7, lr}
	push	{r7, lr}
	.cfi_def_cfa_offset 8
	.cfi_offset lr, -4
	.cfi_offset r7, -8
	.pad	#16
	sub	sp, #16
	.cfi_def_cfa_offset 24
	str	r0, [sp, #12]
	str	r1, [sp, #8]
	str	r2, [sp, #4]
	str	r3, [sp]
.Ltmp363:
	.loc	12 59 9 prologue_end            @ rt-thread/components/drivers/include/drivers/mtd_nor.h:59:9
	ldr	r0, [sp, #12]
	.loc	12 59 17 is_stmt 0              @ rt-thread/components/drivers/include/drivers/mtd_nor.h:59:17
	ldr	r1, [r0, #92]
	.loc	12 59 22                        @ rt-thread/components/drivers/include/drivers/mtd_nor.h:59:22
	ldr.w	r12, [r1, #8]
	.loc	12 59 36                        @ rt-thread/components/drivers/include/drivers/mtd_nor.h:59:36
	ldr	r1, [sp, #8]
	.loc	12 59 44                        @ rt-thread/components/drivers/include/drivers/mtd_nor.h:59:44
	ldr	r2, [sp, #4]
	.loc	12 59 50                        @ rt-thread/components/drivers/include/drivers/mtd_nor.h:59:50
	ldr	r3, [sp]
	.loc	12 59 9                         @ rt-thread/components/drivers/include/drivers/mtd_nor.h:59:9
	blx	r12
	.loc	12 59 2                         @ rt-thread/components/drivers/include/drivers/mtd_nor.h:59:2
	add	sp, #16
	pop	{r7, pc}
.Ltmp364:
.Lfunc_end24:
	.size	rt_mtd_nor_write, .Lfunc_end24-rt_mtd_nor_write
	.cfi_endproc
	.cantunwind
	.fnend
                                        @ -- End function
	.section	.text.rt_mtd_nor_erase_block,"ax",%progbits
	.p2align	3                               @ -- Begin function rt_mtd_nor_erase_block
	.type	rt_mtd_nor_erase_block,%function
	.code	16                              @ @rt_mtd_nor_erase_block
	.thumb_func
rt_mtd_nor_erase_block:
.Lfunc_begin25:
	.loc	12 63 0 is_stmt 1               @ rt-thread/components/drivers/include/drivers/mtd_nor.h:63:0
	.fnstart
	.cfi_startproc
@ %bb.0:
	.save	{r7, lr}
	push	{r7, lr}
	.cfi_def_cfa_offset 8
	.cfi_offset lr, -4
	.cfi_offset r7, -8
	.pad	#16
	sub	sp, #16
	.cfi_def_cfa_offset 24
	str	r0, [sp, #12]
	str	r1, [sp, #8]
	str	r2, [sp, #4]
.Ltmp365:
	.loc	12 64 9 prologue_end            @ rt-thread/components/drivers/include/drivers/mtd_nor.h:64:9
	ldr	r0, [sp, #12]
	.loc	12 64 17 is_stmt 0              @ rt-thread/components/drivers/include/drivers/mtd_nor.h:64:17
	ldr	r1, [r0, #92]
	.loc	12 64 22                        @ rt-thread/components/drivers/include/drivers/mtd_nor.h:64:22
	ldr	r3, [r1, #12]
	.loc	12 64 42                        @ rt-thread/components/drivers/include/drivers/mtd_nor.h:64:42
	ldr	r1, [sp, #8]
	.loc	12 64 50                        @ rt-thread/components/drivers/include/drivers/mtd_nor.h:64:50
	ldr	r2, [sp, #4]
	.loc	12 64 9                         @ rt-thread/components/drivers/include/drivers/mtd_nor.h:64:9
	blx	r3
	.loc	12 64 2                         @ rt-thread/components/drivers/include/drivers/mtd_nor.h:64:2
	add	sp, #16
	pop	{r7, pc}
.Ltmp366:
.Lfunc_end25:
	.size	rt_mtd_nor_erase_block, .Lfunc_end25-rt_mtd_nor_erase_block
	.cfi_endproc
	.cantunwind
	.fnend
                                        @ -- End function
	.section	.text._dfs_lfs_statfs_count,"ax",%progbits
	.p2align	3                               @ -- Begin function _dfs_lfs_statfs_count
	.type	_dfs_lfs_statfs_count,%function
	.code	16                              @ @_dfs_lfs_statfs_count
	.thumb_func
_dfs_lfs_statfs_count:
.Lfunc_begin26:
	.loc	2 424 0 is_stmt 1               @ packages/littlefs-v2.0.5/dfs_lfs.c:424:0
	.fnstart
	.cfi_startproc
@ %bb.0:
	.pad	#8
	sub	sp, #8
	.cfi_def_cfa_offset 8
	str	r0, [sp, #4]
	str	r1, [sp]
.Ltmp367:
	.loc	2 425 19 prologue_end           @ packages/littlefs-v2.0.5/dfs_lfs.c:425:19
	ldr	r1, [sp, #4]
	.loc	2 425 21 is_stmt 0              @ packages/littlefs-v2.0.5/dfs_lfs.c:425:21
	ldr	r0, [r1]
	adds	r0, #1
	str	r0, [r1]
	movs	r0, #0
	.loc	2 426 5 is_stmt 1               @ packages/littlefs-v2.0.5/dfs_lfs.c:426:5
	add	sp, #8
	bx	lr
.Ltmp368:
.Lfunc_end26:
	.size	_dfs_lfs_statfs_count, .Lfunc_end26-_dfs_lfs_statfs_count
	.cfi_endproc
	.cantunwind
	.fnend
                                        @ -- End function
	.section	.text._dfs_lfs_tostat,"ax",%progbits
	.p2align	3                               @ -- Begin function _dfs_lfs_tostat
	.type	_dfs_lfs_tostat,%function
	.code	16                              @ @_dfs_lfs_tostat
	.thumb_func
_dfs_lfs_tostat:
.Lfunc_begin27:
	.loc	2 476 0                         @ packages/littlefs-v2.0.5/dfs_lfs.c:476:0
	.fnstart
	.cfi_startproc
@ %bb.0:
	.save	{r7, lr}
	push	{r7, lr}
	.cfi_def_cfa_offset 8
	.cfi_offset lr, -4
	.cfi_offset r7, -8
	.pad	#16
	sub	sp, #16
	.cfi_def_cfa_offset 24
	str	r0, [sp, #12]
	str	r1, [sp, #8]
.Ltmp369:
	.loc	2 477 12 prologue_end           @ packages/littlefs-v2.0.5/dfs_lfs.c:477:12
	ldr	r0, [sp, #12]
	movs	r1, #64
	.loc	2 477 5 is_stmt 0               @ packages/littlefs-v2.0.5/dfs_lfs.c:477:5
	bl	__aeabi_memclr4
	.loc	2 480 5 is_stmt 1               @ packages/littlefs-v2.0.5/dfs_lfs.c:480:5
	ldr	r1, [sp, #12]
	movs	r0, #0
	.loc	2 480 16 is_stmt 0              @ packages/littlefs-v2.0.5/dfs_lfs.c:480:16
	str	r0, [r1]
	.loc	2 481 19 is_stmt 1              @ packages/littlefs-v2.0.5/dfs_lfs.c:481:19
	ldr	r0, [sp, #8]
	.loc	2 481 25 is_stmt 0              @ packages/littlefs-v2.0.5/dfs_lfs.c:481:25
	ldr	r0, [r0, #4]
	.loc	2 481 5                         @ packages/littlefs-v2.0.5/dfs_lfs.c:481:5
	ldr	r1, [sp, #12]
	.loc	2 481 17                        @ packages/littlefs-v2.0.5/dfs_lfs.c:481:17
	str	r0, [r1, #20]
	.loc	2 482 5 is_stmt 1               @ packages/littlefs-v2.0.5/dfs_lfs.c:482:5
	ldr	r1, [sp, #12]
	movw	r0, #511
	.loc	2 482 17 is_stmt 0              @ packages/littlefs-v2.0.5/dfs_lfs.c:482:17
	strh	r0, [r1, #6]
	.loc	2 484 13 is_stmt 1              @ packages/littlefs-v2.0.5/dfs_lfs.c:484:13
	ldr	r0, [sp, #8]
	.loc	2 484 19 is_stmt 0              @ packages/littlefs-v2.0.5/dfs_lfs.c:484:19
	ldrb	r0, [r0]
	.loc	2 484 5                         @ packages/littlefs-v2.0.5/dfs_lfs.c:484:5
	mov	r1, r0
	str	r1, [sp, #4]                    @ 4-byte Spill
	cmp	r0, #1
	beq	.LBB27_3
	b	.LBB27_1
.LBB27_1:
	ldr	r0, [sp, #4]                    @ 4-byte Reload
	cmp	r0, #2
	bne	.LBB27_4
	b	.LBB27_2
.LBB27_2:
.Ltmp370:
	.loc	2 487 9 is_stmt 1               @ packages/littlefs-v2.0.5/dfs_lfs.c:487:9
	ldr	r1, [sp, #12]
	.loc	2 487 21 is_stmt 0              @ packages/littlefs-v2.0.5/dfs_lfs.c:487:21
	ldrh	r0, [r1, #6]
	orr	r0, r0, #16384
	strh	r0, [r1, #6]
	.loc	2 488 9 is_stmt 1               @ packages/littlefs-v2.0.5/dfs_lfs.c:488:9
	b	.LBB27_4
.LBB27_3:
	.loc	2 491 9                         @ packages/littlefs-v2.0.5/dfs_lfs.c:491:9
	ldr	r1, [sp, #12]
	.loc	2 491 21 is_stmt 0              @ packages/littlefs-v2.0.5/dfs_lfs.c:491:21
	ldrh	r0, [r1, #6]
	orr	r0, r0, #32768
	strh	r0, [r1, #6]
	.loc	2 492 9 is_stmt 1               @ packages/littlefs-v2.0.5/dfs_lfs.c:492:9
	b	.LBB27_4
.Ltmp371:
.LBB27_4:
	.loc	2 494 1                         @ packages/littlefs-v2.0.5/dfs_lfs.c:494:1
	add	sp, #16
	pop	{r7, pc}
.Ltmp372:
.Lfunc_end27:
	.size	_dfs_lfs_tostat, .Lfunc_end27-_dfs_lfs_tostat
	.cfi_endproc
	.cantunwind
	.fnend
                                        @ -- End function
	.type	_lfs_lock,%object               @ @_lfs_lock
	.section	.bss._lfs_lock,"aw",%nobits
	.p2align	2
_lfs_lock:
	.zero	36
	.size	_lfs_lock, 36

	.type	.L.str,%object                  @ @.str
	.section	.rodata.str1.1,"aMS",%progbits,1
.L.str:
	.asciz	"lfsmtx"
	.size	.L.str, 7

	.type	_dfs_lfs_ops,%object            @ @_dfs_lfs_ops
	.section	.rodata._dfs_lfs_ops,"a",%progbits
	.p2align	2
_dfs_lfs_ops:
	.long	.L.str.1
	.long	0                               @ 0x0
	.long	_dfs_lfs_fops
	.long	_dfs_lfs_mount
	.long	_dfs_lfs_unmount
	.long	_dfs_lfs_mkfs
	.long	_dfs_lfs_statfs
	.long	_dfs_lfs_unlink
	.long	_dfs_lfs_stat
	.long	_dfs_lfs_rename
	.size	_dfs_lfs_ops, 40

	.hidden	__rt_init_dfs_lfs_init          @ @__rt_init_dfs_lfs_init
	.type	__rt_init_dfs_lfs_init,%object
	.section	.rti_fn.4,"a",%progbits
	.globl	__rt_init_dfs_lfs_init
	.p2align	2
__rt_init_dfs_lfs_init:
__tagsym$$used.0:
	.long	dfs_lfs_init
	.size	__rt_init_dfs_lfs_init, 4

	.type	.L.str.1,%object                @ @.str.1
	.section	.rodata.str1.1,"aMS",%progbits,1
.L.str.1:
	.asciz	"lfs"
	.size	.L.str.1, 4

	.type	_dfs_lfs_fops,%object           @ @_dfs_lfs_fops
	.section	.rodata._dfs_lfs_fops,"a",%progbits
	.p2align	2
_dfs_lfs_fops:
	.long	_dfs_lfs_open
	.long	_dfs_lfs_close
	.long	_dfs_lfs_ioctl
	.long	_dfs_lfs_read
	.long	_dfs_lfs_write
	.long	_dfs_lfs_flush
	.long	_dfs_lfs_lseek
	.long	_dfs_lfs_getdents
	.long	0
	.size	_dfs_lfs_fops, 36

	.type	.L.str.2,%object                @ @.str.2
	.section	.rodata.str1.1,"aMS",%progbits,1
.L.str.2:
	.asciz	"file != RT_NULL"
	.size	.L.str.2, 16

	.type	.L__FUNCTION__._dfs_lfs_open,%object @ @__FUNCTION__._dfs_lfs_open
.L__FUNCTION__._dfs_lfs_open:
	.asciz	"_dfs_lfs_open"
	.size	.L__FUNCTION__._dfs_lfs_open, 14

	.type	.L.str.3,%object                @ @.str.3
.L.str.3:
	.asciz	"file->data != RT_NULL"
	.size	.L.str.3, 22

	.type	.L.str.4,%object                @ @.str.4
.L.str.4:
	.asciz	"ERROR:no memory!\n"
	.size	.L.str.4, 18

	.type	.L__FUNCTION__._dfs_lfs_close,%object @ @__FUNCTION__._dfs_lfs_close
.L__FUNCTION__._dfs_lfs_close:
	.asciz	"_dfs_lfs_close"
	.size	.L__FUNCTION__._dfs_lfs_close, 15

	.type	.L__FUNCTION__._dfs_lfs_read,%object @ @__FUNCTION__._dfs_lfs_read
.L__FUNCTION__._dfs_lfs_read:
	.asciz	"_dfs_lfs_read"
	.size	.L__FUNCTION__._dfs_lfs_read, 14

	.type	.L__FUNCTION__._dfs_lfs_write,%object @ @__FUNCTION__._dfs_lfs_write
.L__FUNCTION__._dfs_lfs_write:
	.asciz	"_dfs_lfs_write"
	.size	.L__FUNCTION__._dfs_lfs_write, 15

	.type	.L__FUNCTION__._dfs_lfs_flush,%object @ @__FUNCTION__._dfs_lfs_flush
.L__FUNCTION__._dfs_lfs_flush:
	.asciz	"_dfs_lfs_flush"
	.size	.L__FUNCTION__._dfs_lfs_flush, 15

	.type	.L__FUNCTION__._dfs_lfs_lseek,%object @ @__FUNCTION__._dfs_lfs_lseek
.L__FUNCTION__._dfs_lfs_lseek:
	.asciz	"_dfs_lfs_lseek"
	.size	.L__FUNCTION__._dfs_lfs_lseek, 15

	.type	.L__FUNCTION__._dfs_lfs_getdents,%object @ @__FUNCTION__._dfs_lfs_getdents
.L__FUNCTION__._dfs_lfs_getdents:
	.asciz	"_dfs_lfs_getdents"
	.size	.L__FUNCTION__._dfs_lfs_getdents, 18

	.type	.L.str.5,%object                @ @.str.5
.L.str.5:
	.asciz	"."
	.size	.L.str.5, 2

	.type	.L.str.6,%object                @ @.str.6
.L.str.6:
	.asciz	".."
	.size	.L.str.6, 3

	.type	.L.str.7,%object                @ @.str.7
.L.str.7:
	.asciz	"The flash device type must be MTD!\n"
	.size	.L.str.7, 36

	.type	_lfs_mount_tbl,%object          @ @_lfs_mount_tbl
	.section	.bss._lfs_mount_tbl,"aw",%nobits
	.p2align	2
_lfs_mount_tbl:
	.zero	4
	.size	_lfs_mount_tbl, 4

	.type	.L.str.8,%object                @ @.str.8
	.section	.rodata.str1.1,"aMS",%progbits,1
.L.str.8:
	.asciz	"c != RT_NULL"
	.size	.L.str.8, 13

	.type	.L__FUNCTION__._lfs_flash_read,%object @ @__FUNCTION__._lfs_flash_read
.L__FUNCTION__._lfs_flash_read:
	.asciz	"_lfs_flash_read"
	.size	.L__FUNCTION__._lfs_flash_read, 16

	.type	.L.str.9,%object                @ @.str.9
.L.str.9:
	.asciz	"c->context != RT_NULL"
	.size	.L.str.9, 22

	.type	.L__FUNCTION__._lfs_flash_prog,%object @ @__FUNCTION__._lfs_flash_prog
.L__FUNCTION__._lfs_flash_prog:
	.asciz	"_lfs_flash_prog"
	.size	.L__FUNCTION__._lfs_flash_prog, 16

	.type	.L__FUNCTION__._lfs_flash_erase,%object @ @__FUNCTION__._lfs_flash_erase
.L__FUNCTION__._lfs_flash_erase:
	.asciz	"_lfs_flash_erase"
	.size	.L__FUNCTION__._lfs_flash_erase, 17

	.type	.L.str.10,%object               @ @.str.10
.L.str.10:
	.asciz	"dfs != RT_NULL"
	.size	.L.str.10, 15

	.type	.L__FUNCTION__._dfs_lfs_unmount,%object @ @__FUNCTION__._dfs_lfs_unmount
.L__FUNCTION__._dfs_lfs_unmount:
	.asciz	"_dfs_lfs_unmount"
	.size	.L__FUNCTION__._dfs_lfs_unmount, 17

	.type	.L.str.11,%object               @ @.str.11
.L.str.11:
	.asciz	"dfs->data != RT_NULL"
	.size	.L.str.11, 21

	.type	.L.str.12,%object               @ @.str.12
.L.str.12:
	.asciz	"sorry, there is no space to do mkfs!\n"
	.size	.L.str.12, 38

	.type	.L.str.13,%object               @ @.str.13
.L.str.13:
	.asciz	"buf != RT_NULL"
	.size	.L.str.13, 15

	.type	.L__FUNCTION__._dfs_lfs_statfs,%object @ @__FUNCTION__._dfs_lfs_statfs
.L__FUNCTION__._dfs_lfs_statfs:
	.asciz	"_dfs_lfs_statfs"
	.size	.L__FUNCTION__._dfs_lfs_statfs, 16

	.type	.L__FUNCTION__._dfs_lfs_unlink,%object @ @__FUNCTION__._dfs_lfs_unlink
.L__FUNCTION__._dfs_lfs_unlink:
	.asciz	"_dfs_lfs_unlink"
	.size	.L__FUNCTION__._dfs_lfs_unlink, 16

	.type	.L__FUNCTION__._dfs_lfs_stat,%object @ @__FUNCTION__._dfs_lfs_stat
.L__FUNCTION__._dfs_lfs_stat:
	.asciz	"_dfs_lfs_stat"
	.size	.L__FUNCTION__._dfs_lfs_stat, 14

	.type	.L__FUNCTION__._dfs_lfs_rename,%object @ @__FUNCTION__._dfs_lfs_rename
.L__FUNCTION__._dfs_lfs_rename:
	.asciz	"_dfs_lfs_rename"
	.size	.L__FUNCTION__._dfs_lfs_rename, 16

	.globl	__rt_init_dfs_lfs_init
	.section	".note.GNU-stack","",%progbits
	.eabi_attribute	30, 6	@ Tag_ABI_optimization_goals
	.ARM_attribute	16, 1	@ Tag_AV_eba