	.text
	.syntax unified
	.eabi_attribute	67, "2.09"	@ Tag_conformance
	.cpu	cortex-m7
	.eabi_attribute	6, 13	@ Tag_CPU_arch
	.eabi_attribute	7, 77	@ Tag_CPU_arch_profile
	.eabi_attribute	8, 0	@ Tag_ARM_ISA_use
	.eabi_attribute	9, 2	@ Tag_THUMB_ISA_use
	.fpu	fpv5-d16
	.eabi_attribute	36, 1	@ Tag_FP_HP_extension
	.eabi_attribute	34, 1	@ Tag_CPU_unaligned_access
	.eabi_attribute	17, 1	@ Tag_ABI_PCS_GOT_use
	.eabi_attribute	20, 2	@ Tag_ABI_FP_denormal
	.eabi_attribute	21, 0	@ Tag_ABI_FP_exceptions
	.eabi_attribute	23, 1	@ Tag_ABI_FP_number_model
	.eabi_attribute	24, 1	@ Tag_ABI_align_needed
	.eabi_attribute	25, 1	@ Tag_ABI_align_preserved
	.eabi_attribute	28, 1	@ Tag_ABI_VFP_args
	.eabi_attribute	38, 1	@ Tag_ABI_FP_16bit_format
	.eabi_attribute	18, 2	@ Tag_ABI_PCS_wchar_t
	.eabi_attribute	26, 1	@ Tag_ABI_enum_size
	.eabi_attribute	14, 0	@ Tag_ABI_PCS_R9_use
	.file	"dfs_posix.c"
	.file	1 "E:\\Smart-access-control\\Hardware\\CODE" "rt-thread/components/dfs/src/dfs_posix.c"
	.file	2 "E:\\Smart-access-control\\Hardware\\CODE" "rt-thread/components/finsh/finsh_api.h"
	.file	3 "E:\\Smart-access-control\\Hardware\\CODE" "rt-thread/include\\rtdef.h"
	.file	4 "E:\\Smart-access-control\\Hardware\\CODE" "rt-thread/components/dfs/include\\dfs_posix.h"
	.file	5 "D:\\Keil_v5\\ARM\\ARMCLANG\\Bin\\..\\include" "stdint.h"
	.file	6 "E:\\Smart-access-control\\Hardware\\CODE" "rt-thread/components/dfs/include\\dfs.h"
	.section	.text.open,"ax",%progbits
	.hidden	open                            @ -- Begin function open
	.globl	open
	.p2align	3
	.type	open,%function
	.code	16                              @ @open
	.thumb_func
open:
.Lfunc_begin0:
	.loc	1 32 0                          @ rt-thread/components/dfs/src/dfs_posix.c:32:0
	.fnstart
	.cfi_sections .debug_frame
	.cfi_startproc
@ %bb.0:
	.save	{r7, lr}
	push	{r7, lr}
	.cfi_def_cfa_offset 8
	.cfi_offset lr, -4
	.cfi_offset r7, -8
	.pad	#24
	sub	sp, #24
	.cfi_def_cfa_offset 32
	str	r0, [sp, #16]
	str	r1, [sp, #12]
.Ltmp0:
	.loc	1 37 10 prologue_end            @ rt-thread/components/dfs/src/dfs_posix.c:37:10
	bl	fd_new
	.loc	1 37 8 is_stmt 0                @ rt-thread/components/dfs/src/dfs_posix.c:37:8
	str	r0, [sp, #8]
.Ltmp1:
	.loc	1 38 9 is_stmt 1                @ rt-thread/components/dfs/src/dfs_posix.c:38:9
	ldr	r0, [sp, #8]
.Ltmp2:
	.loc	1 38 9 is_stmt 0                @ rt-thread/components/dfs/src/dfs_posix.c:38:9
	cmp.w	r0, #-1
	bgt	.LBB0_2
	b	.LBB0_1
.LBB0_1:
	.loc	1 0 9                           @ rt-thread/components/dfs/src/dfs_posix.c:0:9
	mvn	r0, #11
.Ltmp3:
	.loc	1 40 9 is_stmt 1                @ rt-thread/components/dfs/src/dfs_posix.c:40:9
	bl	rt_set_errno
	mov.w	r0, #-1
	.loc	1 42 9                          @ rt-thread/components/dfs/src/dfs_posix.c:42:9
	str	r0, [sp, #20]
	b	.LBB0_5
.Ltmp4:
.LBB0_2:
	.loc	1 44 16                         @ rt-thread/components/dfs/src/dfs_posix.c:44:16
	ldr	r0, [sp, #8]
	.loc	1 44 9 is_stmt 0                @ rt-thread/components/dfs/src/dfs_posix.c:44:9
	bl	fd_get
	.loc	1 44 7                          @ rt-thread/components/dfs/src/dfs_posix.c:44:7
	str	r0, [sp]
	.loc	1 46 28 is_stmt 1               @ rt-thread/components/dfs/src/dfs_posix.c:46:28
	ldr	r0, [sp]
	.loc	1 46 31 is_stmt 0               @ rt-thread/components/dfs/src/dfs_posix.c:46:31
	ldr	r1, [sp, #16]
	.loc	1 46 37                         @ rt-thread/components/dfs/src/dfs_posix.c:46:37
	ldr	r2, [sp, #12]
	.loc	1 46 14                         @ rt-thread/components/dfs/src/dfs_posix.c:46:14
	bl	dfs_file_open
	.loc	1 46 12                         @ rt-thread/components/dfs/src/dfs_posix.c:46:12
	str	r0, [sp, #4]
.Ltmp5:
	.loc	1 47 9 is_stmt 1                @ rt-thread/components/dfs/src/dfs_posix.c:47:9
	ldr	r0, [sp, #4]
.Ltmp6:
	.loc	1 47 9 is_stmt 0                @ rt-thread/components/dfs/src/dfs_posix.c:47:9
	cmp.w	r0, #-1
	bgt	.LBB0_4
	b	.LBB0_3
.LBB0_3:
.Ltmp7:
	.loc	1 50 16 is_stmt 1               @ rt-thread/components/dfs/src/dfs_posix.c:50:16
	ldr	r0, [sp]
	.loc	1 50 9 is_stmt 0                @ rt-thread/components/dfs/src/dfs_posix.c:50:9
	bl	fd_put
	.loc	1 51 16 is_stmt 1               @ rt-thread/components/dfs/src/dfs_posix.c:51:16
	ldr	r0, [sp]
	.loc	1 51 9 is_stmt 0                @ rt-thread/components/dfs/src/dfs_posix.c:51:9
	bl	fd_put
	.loc	1 53 22 is_stmt 1               @ rt-thread/components/dfs/src/dfs_posix.c:53:22
	ldr	r0, [sp, #4]
	.loc	1 53 9 is_stmt 0                @ rt-thread/components/dfs/src/dfs_posix.c:53:9
	bl	rt_set_errno
	mov.w	r0, #-1
	.loc	1 55 9 is_stmt 1                @ rt-thread/components/dfs/src/dfs_posix.c:55:9
	str	r0, [sp, #20]
	b	.LBB0_5
.Ltmp8:
.LBB0_4:
	.loc	1 59 12                         @ rt-thread/components/dfs/src/dfs_posix.c:59:12
	ldr	r0, [sp]
	.loc	1 59 5 is_stmt 0                @ rt-thread/components/dfs/src/dfs_posix.c:59:5
	bl	fd_put
	.loc	1 61 12 is_stmt 1               @ rt-thread/components/dfs/src/dfs_posix.c:61:12
	ldr	r0, [sp, #8]
	.loc	1 61 5 is_stmt 0                @ rt-thread/components/dfs/src/dfs_posix.c:61:5
	str	r0, [sp, #20]
	b	.LBB0_5
.LBB0_5:
	.loc	1 62 1 is_stmt 1                @ rt-thread/components/dfs/src/dfs_posix.c:62:1
	ldr	r0, [sp, #20]
	add	sp, #24
	pop	{r7, pc}
.Ltmp9:
.Lfunc_end0:
	.size	open, .Lfunc_end0-open
	.cfi_endproc
	.cantunwind
	.fnend
                                        @ -- End function
	.section	.text.close,"ax",%progbits
	.hidden	close                           @ -- Begin function close
	.globl	close
	.p2align	3
	.type	close,%function
	.code	16                              @ @close
	.thumb_func
close:
.Lfunc_begin1:
	.loc	1 74 0                          @ rt-thread/components/dfs/src/dfs_posix.c:74:0
	.fnstart
	.cfi_startproc
@ %bb.0:
	.save	{r7, lr}
	push	{r7, lr}
	.cfi_def_cfa_offset 8
	.cfi_offset lr, -4
	.cfi_offset r7, -8
	.pad	#16
	sub	sp, #16
	.cfi_def_cfa_offset 24
	str	r0, [sp, #8]
.Ltmp10:
	.loc	1 78 16 prologue_end            @ rt-thread/components/dfs/src/dfs_posix.c:78:16
	ldr	r0, [sp, #8]
	.loc	1 78 9 is_stmt 0                @ rt-thread/components/dfs/src/dfs_posix.c:78:9
	bl	fd_get
	.loc	1 78 7                          @ rt-thread/components/dfs/src/dfs_posix.c:78:7
	str	r0, [sp]
.Ltmp11:
	.loc	1 79 9 is_stmt 1                @ rt-thread/components/dfs/src/dfs_posix.c:79:9
	ldr	r0, [sp]
.Ltmp12:
	.loc	1 79 9 is_stmt 0                @ rt-thread/components/dfs/src/dfs_posix.c:79:9
	cbnz	r0, .LBB1_2
	b	.LBB1_1
.LBB1_1:
	.loc	1 0 9                           @ rt-thread/components/dfs/src/dfs_posix.c:0:9
	mvn	r0, #8
.Ltmp13:
	.loc	1 81 9 is_stmt 1                @ rt-thread/components/dfs/src/dfs_posix.c:81:9
	bl	rt_set_errno
	mov.w	r0, #-1
	.loc	1 83 9                          @ rt-thread/components/dfs/src/dfs_posix.c:83:9
	str	r0, [sp, #12]
	b	.LBB1_5
.Ltmp14:
.LBB1_2:
	.loc	1 86 29                         @ rt-thread/components/dfs/src/dfs_posix.c:86:29
	ldr	r0, [sp]
	.loc	1 86 14 is_stmt 0               @ rt-thread/components/dfs/src/dfs_posix.c:86:14
	bl	dfs_file_close
	.loc	1 86 12                         @ rt-thread/components/dfs/src/dfs_posix.c:86:12
	str	r0, [sp, #4]
	.loc	1 87 12 is_stmt 1               @ rt-thread/components/dfs/src/dfs_posix.c:87:12
	ldr	r0, [sp]
	.loc	1 87 5 is_stmt 0                @ rt-thread/components/dfs/src/dfs_posix.c:87:5
	bl	fd_put
.Ltmp15:
	.loc	1 89 9 is_stmt 1                @ rt-thread/components/dfs/src/dfs_posix.c:89:9
	ldr	r0, [sp, #4]
.Ltmp16:
	.loc	1 89 9 is_stmt 0                @ rt-thread/components/dfs/src/dfs_posix.c:89:9
	cmp.w	r0, #-1
	bgt	.LBB1_4
	b	.LBB1_3
.LBB1_3:
.Ltmp17:
	.loc	1 91 22 is_stmt 1               @ rt-thread/components/dfs/src/dfs_posix.c:91:22
	ldr	r0, [sp, #4]
	.loc	1 91 9 is_stmt 0                @ rt-thread/components/dfs/src/dfs_posix.c:91:9
	bl	rt_set_errno
	mov.w	r0, #-1
	.loc	1 93 9 is_stmt 1                @ rt-thread/components/dfs/src/dfs_posix.c:93:9
	str	r0, [sp, #12]
	b	.LBB1_5
.Ltmp18:
.LBB1_4:
	.loc	1 96 12                         @ rt-thread/components/dfs/src/dfs_posix.c:96:12
	ldr	r0, [sp]
	.loc	1 96 5 is_stmt 0                @ rt-thread/components/dfs/src/dfs_posix.c:96:5
	bl	fd_put
	movs	r0, #0
	.loc	1 98 5 is_stmt 1                @ rt-thread/components/dfs/src/dfs_posix.c:98:5
	str	r0, [sp, #12]
	b	.LBB1_5
.LBB1_5:
	.loc	1 99 1                          @ rt-thread/components/dfs/src/dfs_posix.c:99:1
	ldr	r0, [sp, #12]
	add	sp, #16
	pop	{r7, pc}
.Ltmp19:
.Lfunc_end1:
	.size	close, .Lfunc_end1-close
	.cfi_endproc
	.cantunwind
	.fnend
                                        @ -- End function
	.section	.text.read,"ax",%progbits
	.hidden	read                            @ -- Begin function read
	.globl	read
	.p2align	3
	.type	read,%function
	.code	16                              @ @read
	.thumb_func
read:
.Lfunc_begin2:
	.loc	1 118 0                         @ rt-thread/components/dfs/src/dfs_posix.c:118:0
	.fnstart
	.cfi_startproc
@ %bb.0:
	.save	{r7, lr}
	push	{r7, lr}
	.cfi_def_cfa_offset 8
	.cfi_offset lr, -4
	.cfi_offset r7, -8
	.pad	#24
	sub	sp, #24
	.cfi_def_cfa_offset 32
	str	r0, [sp, #16]
	str	r1, [sp, #12]
	str	r2, [sp, #8]
.Ltmp20:
	.loc	1 123 16 prologue_end           @ rt-thread/components/dfs/src/dfs_posix.c:123:16
	ldr	r0, [sp, #16]
	.loc	1 123 9 is_stmt 0               @ rt-thread/components/dfs/src/dfs_posix.c:123:9
	bl	fd_get
	.loc	1 123 7                         @ rt-thread/components/dfs/src/dfs_posix.c:123:7
	str	r0, [sp]
.Ltmp21:
	.loc	1 124 9 is_stmt 1               @ rt-thread/components/dfs/src/dfs_posix.c:124:9
	ldr	r0, [sp]
.Ltmp22:
	.loc	1 124 9 is_stmt 0               @ rt-thread/components/dfs/src/dfs_posix.c:124:9
	cbnz	r0, .LBB2_2
	b	.LBB2_1
.LBB2_1:
	.loc	1 0 9                           @ rt-thread/components/dfs/src/dfs_posix.c:0:9
	mvn	r0, #8
.Ltmp23:
	.loc	1 126 9 is_stmt 1               @ rt-thread/components/dfs/src/dfs_posix.c:126:9
	bl	rt_set_errno
	mov.w	r0, #-1
	.loc	1 128 9                         @ rt-thread/components/dfs/src/dfs_posix.c:128:9
	str	r0, [sp, #20]
	b	.LBB2_5
.Ltmp24:
.LBB2_2:
	.loc	1 131 28                        @ rt-thread/components/dfs/src/dfs_posix.c:131:28
	ldr	r0, [sp]
	.loc	1 131 31 is_stmt 0              @ rt-thread/components/dfs/src/dfs_posix.c:131:31
	ldr	r1, [sp, #12]
	.loc	1 131 36                        @ rt-thread/components/dfs/src/dfs_posix.c:131:36
	ldr	r2, [sp, #8]
	.loc	1 131 14                        @ rt-thread/components/dfs/src/dfs_posix.c:131:14
	bl	dfs_file_read
	.loc	1 131 12                        @ rt-thread/components/dfs/src/dfs_posix.c:131:12
	str	r0, [sp, #4]
.Ltmp25:
	.loc	1 132 9 is_stmt 1               @ rt-thread/components/dfs/src/dfs_posix.c:132:9
	ldr	r0, [sp, #4]
.Ltmp26:
	.loc	1 132 9 is_stmt 0               @ rt-thread/components/dfs/src/dfs_posix.c:132:9
	cmp.w	r0, #-1
	bgt	.LBB2_4
	b	.LBB2_3
.LBB2_3:
.Ltmp27:
	.loc	1 134 16 is_stmt 1              @ rt-thread/components/dfs/src/dfs_posix.c:134:16
	ldr	r0, [sp]
	.loc	1 134 9 is_stmt 0               @ rt-thread/components/dfs/src/dfs_posix.c:134:9
	bl	fd_put
	.loc	1 135 22 is_stmt 1              @ rt-thread/components/dfs/src/dfs_posix.c:135:22
	ldr	r0, [sp, #4]
	.loc	1 135 9 is_stmt 0               @ rt-thread/components/dfs/src/dfs_posix.c:135:9
	bl	rt_set_errno
	mov.w	r0, #-1
	.loc	1 137 9 is_stmt 1               @ rt-thread/components/dfs/src/dfs_posix.c:137:9
	str	r0, [sp, #20]
	b	.LBB2_5
.Ltmp28:
.LBB2_4:
	.loc	1 141 12                        @ rt-thread/components/dfs/src/dfs_posix.c:141:12
	ldr	r0, [sp]
	.loc	1 141 5 is_stmt 0               @ rt-thread/components/dfs/src/dfs_posix.c:141:5
	bl	fd_put
	.loc	1 143 12 is_stmt 1              @ rt-thread/components/dfs/src/dfs_posix.c:143:12
	ldr	r0, [sp, #4]
	.loc	1 143 5 is_stmt 0               @ rt-thread/components/dfs/src/dfs_posix.c:143:5
	str	r0, [sp, #20]
	b	.LBB2_5
.LBB2_5:
	.loc	1 144 1 is_stmt 1               @ rt-thread/components/dfs/src/dfs_posix.c:144:1
	ldr	r0, [sp, #20]
	add	sp, #24
	pop	{r7, pc}
.Ltmp29:
.Lfunc_end2:
	.size	read, .Lfunc_end2-read
	.cfi_endproc
	.cantunwind
	.fnend
                                        @ -- End function
	.section	.text.write,"ax",%progbits
	.hidden	write                           @ -- Begin function write
	.globl	write
	.p2align	3
	.type	write,%function
	.code	16                              @ @write
	.thumb_func
write:
.Lfunc_begin3:
	.loc	1 162 0                         @ rt-thread/components/dfs/src/dfs_posix.c:162:0
	.fnstart
	.cfi_startproc
@ %bb.0:
	.save	{r7, lr}
	push	{r7, lr}
	.cfi_def_cfa_offset 8
	.cfi_offset lr, -4
	.cfi_offset r7, -8
	.pad	#24
	sub	sp, #24
	.cfi_def_cfa_offset 32
	str	r0, [sp, #16]
	str	r1, [sp, #12]
	str	r2, [sp, #8]
.Ltmp30:
	.loc	1 167 16 prologue_end           @ rt-thread/components/dfs/src/dfs_posix.c:167:16
	ldr	r0, [sp, #16]
	.loc	1 167 9 is_stmt 0               @ rt-thread/components/dfs/src/dfs_posix.c:167:9
	bl	fd_get
	.loc	1 167 7                         @ rt-thread/components/dfs/src/dfs_posix.c:167:7
	str	r0, [sp]
.Ltmp31:
	.loc	1 168 9 is_stmt 1               @ rt-thread/components/dfs/src/dfs_posix.c:168:9
	ldr	r0, [sp]
.Ltmp32:
	.loc	1 168 9 is_stmt 0               @ rt-thread/components/dfs/src/dfs_posix.c:168:9
	cbnz	r0, .LBB3_2
	b	.LBB3_1
.LBB3_1:
	.loc	1 0 9                           @ rt-thread/components/dfs/src/dfs_posix.c:0:9
	mvn	r0, #8
.Ltmp33:
	.loc	1 170 9 is_stmt 1               @ rt-thread/components/dfs/src/dfs_posix.c:170:9
	bl	rt_set_errno
	mov.w	r0, #-1
	.loc	1 172 9                         @ rt-thread/components/dfs/src/dfs_posix.c:172:9
	str	r0, [sp, #20]
	b	.LBB3_5
.Ltmp34:
.LBB3_2:
	.loc	1 175 29                        @ rt-thread/components/dfs/src/dfs_posix.c:175:29
	ldr	r0, [sp]
	.loc	1 175 32 is_stmt 0              @ rt-thread/components/dfs/src/dfs_posix.c:175:32
	ldr	r1, [sp, #12]
	.loc	1 175 37                        @ rt-thread/components/dfs/src/dfs_posix.c:175:37
	ldr	r2, [sp, #8]
	.loc	1 175 14                        @ rt-thread/components/dfs/src/dfs_posix.c:175:14
	bl	dfs_file_write
	.loc	1 175 12                        @ rt-thread/components/dfs/src/dfs_posix.c:175:12
	str	r0, [sp, #4]
.Ltmp35:
	.loc	1 176 9 is_stmt 1               @ rt-thread/components/dfs/src/dfs_posix.c:176:9
	ldr	r0, [sp, #4]
.Ltmp36:
	.loc	1 176 9 is_stmt 0               @ rt-thread/components/dfs/src/dfs_posix.c:176:9
	cmp.w	r0, #-1
	bgt	.LBB3_4
	b	.LBB3_3
.LBB3_3:
.Ltmp37:
	.loc	1 178 16 is_stmt 1              @ rt-thread/components/dfs/src/dfs_posix.c:178:16
	ldr	r0, [sp]
	.loc	1 178 9 is_stmt 0               @ rt-thread/components/dfs/src/dfs_posix.c:178:9
	bl	fd_put
	.loc	1 179 22 is_stmt 1              @ rt-thread/components/dfs/src/dfs_posix.c:179:22
	ldr	r0, [sp, #4]
	.loc	1 179 9 is_stmt 0               @ rt-thread/components/dfs/src/dfs_posix.c:179:9
	bl	rt_set_errno
	mov.w	r0, #-1
	.loc	1 181 9 is_stmt 1               @ rt-thread/components/dfs/src/dfs_posix.c:181:9
	str	r0, [sp, #20]
	b	.LBB3_5
.Ltmp38:
.LBB3_4:
	.loc	1 185 12                        @ rt-thread/components/dfs/src/dfs_posix.c:185:12
	ldr	r0, [sp]
	.loc	1 185 5 is_stmt 0               @ rt-thread/components/dfs/src/dfs_posix.c:185:5
	bl	fd_put
	.loc	1 187 12 is_stmt 1              @ rt-thread/components/dfs/src/dfs_posix.c:187:12
	ldr	r0, [sp, #4]
	.loc	1 187 5 is_stmt 0               @ rt-thread/components/dfs/src/dfs_posix.c:187:5
	str	r0, [sp, #20]
	b	.LBB3_5
.LBB3_5:
	.loc	1 188 1 is_stmt 1               @ rt-thread/components/dfs/src/dfs_posix.c:188:1
	ldr	r0, [sp, #20]
	add	sp, #24
	pop	{r7, pc}
.Ltmp39:
.Lfunc_end3:
	.size	write, .Lfunc_end3-write
	.cfi_endproc
	.cantunwind
	.fnend
                                        @ -- End function
	.section	.text.lseek,"ax",%progbits
	.hidden	lseek                           @ -- Begin function lseek
	.globl	lseek
	.p2align	3
	.type	lseek,%function
	.code	16                              @ @lseek
	.thumb_func
lseek:
.Lfunc_begin4:
	.loc	1 202 0                         @ rt-thread/components/dfs/src/dfs_posix.c:202:0
	.fnstart
	.cfi_startproc
@ %bb.0:
	.save	{r7, lr}
	push	{r7, lr}
	.cfi_def_cfa_offset 8
	.cfi_offset lr, -4
	.cfi_offset r7, -8
	.pad	#32
	sub	sp, #32
	.cfi_def_cfa_offset 40
	str	r0, [sp, #24]
	str	r1, [sp, #20]
	str	r2, [sp, #16]
.Ltmp40:
	.loc	1 206 16 prologue_end           @ rt-thread/components/dfs/src/dfs_posix.c:206:16
	ldr	r0, [sp, #24]
	.loc	1 206 9 is_stmt 0               @ rt-thread/components/dfs/src/dfs_posix.c:206:9
	bl	fd_get
	.loc	1 206 7                         @ rt-thread/components/dfs/src/dfs_posix.c:206:7
	str	r0, [sp, #8]
.Ltmp41:
	.loc	1 207 9 is_stmt 1               @ rt-thread/components/dfs/src/dfs_posix.c:207:9
	ldr	r0, [sp, #8]
.Ltmp42:
	.loc	1 207 9 is_stmt 0               @ rt-thread/components/dfs/src/dfs_posix.c:207:9
	cbnz	r0, .LBB4_2
	b	.LBB4_1
.LBB4_1:
	.loc	1 0 9                           @ rt-thread/components/dfs/src/dfs_posix.c:0:9
	mvn	r0, #8
.Ltmp43:
	.loc	1 209 9 is_stmt 1               @ rt-thread/components/dfs/src/dfs_posix.c:209:9
	bl	rt_set_errno
	mov.w	r0, #-1
	.loc	1 211 9                         @ rt-thread/components/dfs/src/dfs_posix.c:211:9
	str	r0, [sp, #28]
	b	.LBB4_14
.Ltmp44:
.LBB4_2:
	.loc	1 214 13                        @ rt-thread/components/dfs/src/dfs_posix.c:214:13
	ldr	r0, [sp, #16]
	.loc	1 214 5 is_stmt 0               @ rt-thread/components/dfs/src/dfs_posix.c:214:5
	str	r0, [sp, #4]                    @ 4-byte Spill
	cbz	r0, .LBB4_5
	b	.LBB4_3
.LBB4_3:
	ldr	r0, [sp, #4]                    @ 4-byte Reload
	cmp	r0, #1
	beq	.LBB4_6
	b	.LBB4_4
.LBB4_4:
	ldr	r0, [sp, #4]                    @ 4-byte Reload
	cmp	r0, #2
	beq	.LBB4_7
	b	.LBB4_8
.LBB4_5:
.Ltmp45:
	.loc	1 217 9 is_stmt 1               @ rt-thread/components/dfs/src/dfs_posix.c:217:9
	b	.LBB4_9
.LBB4_6:
	.loc	1 220 19                        @ rt-thread/components/dfs/src/dfs_posix.c:220:19
	ldr	r0, [sp, #8]
	.loc	1 220 22 is_stmt 0              @ rt-thread/components/dfs/src/dfs_posix.c:220:22
	ldr	r1, [r0, #28]
	.loc	1 220 16                        @ rt-thread/components/dfs/src/dfs_posix.c:220:16
	ldr	r0, [sp, #20]
	add	r0, r1
	str	r0, [sp, #20]
	.loc	1 221 9 is_stmt 1               @ rt-thread/components/dfs/src/dfs_posix.c:221:9
	b	.LBB4_9
.LBB4_7:
	.loc	1 224 19                        @ rt-thread/components/dfs/src/dfs_posix.c:224:19
	ldr	r0, [sp, #8]
	.loc	1 224 22 is_stmt 0              @ rt-thread/components/dfs/src/dfs_posix.c:224:22
	ldr	r1, [r0, #24]
	.loc	1 224 16                        @ rt-thread/components/dfs/src/dfs_posix.c:224:16
	ldr	r0, [sp, #20]
	add	r0, r1
	str	r0, [sp, #20]
	.loc	1 225 9 is_stmt 1               @ rt-thread/components/dfs/src/dfs_posix.c:225:9
	b	.LBB4_9
.LBB4_8:
	.loc	1 228 16                        @ rt-thread/components/dfs/src/dfs_posix.c:228:16
	ldr	r0, [sp, #8]
	.loc	1 228 9 is_stmt 0               @ rt-thread/components/dfs/src/dfs_posix.c:228:9
	bl	fd_put
	mvn	r0, #21
	.loc	1 229 9 is_stmt 1               @ rt-thread/components/dfs/src/dfs_posix.c:229:9
	bl	rt_set_errno
	mov.w	r0, #-1
	.loc	1 231 9                         @ rt-thread/components/dfs/src/dfs_posix.c:231:9
	str	r0, [sp, #28]
	b	.LBB4_14
.Ltmp46:
.LBB4_9:
	.loc	1 234 9                         @ rt-thread/components/dfs/src/dfs_posix.c:234:9
	ldr	r0, [sp, #20]
.Ltmp47:
	.loc	1 234 9 is_stmt 0               @ rt-thread/components/dfs/src/dfs_posix.c:234:9
	cmp.w	r0, #-1
	bgt	.LBB4_11
	b	.LBB4_10
.LBB4_10:
.Ltmp48:
	.loc	1 236 16 is_stmt 1              @ rt-thread/components/dfs/src/dfs_posix.c:236:16
	ldr	r0, [sp, #8]
	.loc	1 236 9 is_stmt 0               @ rt-thread/components/dfs/src/dfs_posix.c:236:9
	bl	fd_put
	mvn	r0, #21
	.loc	1 237 9 is_stmt 1               @ rt-thread/components/dfs/src/dfs_posix.c:237:9
	bl	rt_set_errno
	mov.w	r0, #-1
	.loc	1 239 9                         @ rt-thread/components/dfs/src/dfs_posix.c:239:9
	str	r0, [sp, #28]
	b	.LBB4_14
.Ltmp49:
.LBB4_11:
	.loc	1 241 29                        @ rt-thread/components/dfs/src/dfs_posix.c:241:29
	ldr	r0, [sp, #8]
	.loc	1 241 32 is_stmt 0              @ rt-thread/components/dfs/src/dfs_posix.c:241:32
	ldr	r1, [sp, #20]
	.loc	1 241 14                        @ rt-thread/components/dfs/src/dfs_posix.c:241:14
	bl	dfs_file_lseek
	.loc	1 241 12                        @ rt-thread/components/dfs/src/dfs_posix.c:241:12
	str	r0, [sp, #12]
.Ltmp50:
	.loc	1 242 9 is_stmt 1               @ rt-thread/components/dfs/src/dfs_posix.c:242:9
	ldr	r0, [sp, #12]
.Ltmp51:
	.loc	1 242 9 is_stmt 0               @ rt-thread/components/dfs/src/dfs_posix.c:242:9
	cmp.w	r0, #-1
	bgt	.LBB4_13
	b	.LBB4_12
.LBB4_12:
.Ltmp52:
	.loc	1 244 16 is_stmt 1              @ rt-thread/components/dfs/src/dfs_posix.c:244:16
	ldr	r0, [sp, #8]
	.loc	1 244 9 is_stmt 0               @ rt-thread/components/dfs/src/dfs_posix.c:244:9
	bl	fd_put
	.loc	1 245 22 is_stmt 1              @ rt-thread/components/dfs/src/dfs_posix.c:245:22
	ldr	r0, [sp, #12]
	.loc	1 245 9 is_stmt 0               @ rt-thread/components/dfs/src/dfs_posix.c:245:9
	bl	rt_set_errno
	mov.w	r0, #-1
	.loc	1 247 9 is_stmt 1               @ rt-thread/components/dfs/src/dfs_posix.c:247:9
	str	r0, [sp, #28]
	b	.LBB4_14
.Ltmp53:
.LBB4_13:
	.loc	1 251 12                        @ rt-thread/components/dfs/src/dfs_posix.c:251:12
	ldr	r0, [sp, #8]
	.loc	1 251 5 is_stmt 0               @ rt-thread/components/dfs/src/dfs_posix.c:251:5
	bl	fd_put
	.loc	1 253 12 is_stmt 1              @ rt-thread/components/dfs/src/dfs_posix.c:253:12
	ldr	r0, [sp, #20]
	.loc	1 253 5 is_stmt 0               @ rt-thread/components/dfs/src/dfs_posix.c:253:5
	str	r0, [sp, #28]
	b	.LBB4_14
.LBB4_14:
	.loc	1 254 1 is_stmt 1               @ rt-thread/components/dfs/src/dfs_posix.c:254:1
	ldr	r0, [sp, #28]
	add	sp, #32
	pop	{r7, pc}
.Ltmp54:
.Lfunc_end4:
	.size	lseek, .Lfunc_end4-lseek
	.cfi_endproc
	.cantunwind
	.fnend
                                        @ -- End function
	.section	.text.rename,"ax",%progbits
	.hidden	rename                          @ -- Begin function rename
	.globl	rename
	.p2align	3
	.type	rename,%function
	.code	16                              @ @rename
	.thumb_func
rename:
.Lfunc_begin5:
	.loc	1 269 0                         @ rt-thread/components/dfs/src/dfs_posix.c:269:0
	.fnstart
	.cfi_startproc
@ %bb.0:
	.save	{r7, lr}
	push	{r7, lr}
	.cfi_def_cfa_offset 8
	.cfi_offset lr, -4
	.cfi_offset r7, -8
	.pad	#16
	sub	sp, #16
	.cfi_def_cfa_offset 24
	str	r0, [sp, #8]
	str	r1, [sp, #4]
.Ltmp55:
	.loc	1 272 30 prologue_end           @ rt-thread/components/dfs/src/dfs_posix.c:272:30
	ldr	r0, [sp, #8]
	.loc	1 272 40 is_stmt 0              @ rt-thread/components/dfs/src/dfs_posix.c:272:40
	ldr	r1, [sp, #4]
	.loc	1 272 14                        @ rt-thread/components/dfs/src/dfs_posix.c:272:14
	bl	dfs_file_rename
	.loc	1 272 12                        @ rt-thread/components/dfs/src/dfs_posix.c:272:12
	str	r0, [sp]
.Ltmp56:
	.loc	1 273 9 is_stmt 1               @ rt-thread/components/dfs/src/dfs_posix.c:273:9
	ldr	r0, [sp]
.Ltmp57:
	.loc	1 273 9 is_stmt 0               @ rt-thread/components/dfs/src/dfs_posix.c:273:9
	cmp.w	r0, #-1
	bgt	.LBB5_2
	b	.LBB5_1
.LBB5_1:
.Ltmp58:
	.loc	1 275 22 is_stmt 1              @ rt-thread/components/dfs/src/dfs_posix.c:275:22
	ldr	r0, [sp]
	.loc	1 275 9 is_stmt 0               @ rt-thread/components/dfs/src/dfs_posix.c:275:9
	bl	rt_set_errno
	mov.w	r0, #-1
	.loc	1 277 9 is_stmt 1               @ rt-thread/components/dfs/src/dfs_posix.c:277:9
	str	r0, [sp, #12]
	b	.LBB5_3
.Ltmp59:
.LBB5_2:
	.loc	1 0 9 is_stmt 0                 @ rt-thread/components/dfs/src/dfs_posix.c:0:9
	movs	r0, #0
	.loc	1 280 5 is_stmt 1               @ rt-thread/components/dfs/src/dfs_posix.c:280:5
	str	r0, [sp, #12]
	b	.LBB5_3
.LBB5_3:
	.loc	1 281 1                         @ rt-thread/components/dfs/src/dfs_posix.c:281:1
	ldr	r0, [sp, #12]
	add	sp, #16
	pop	{r7, pc}
.Ltmp60:
.Lfunc_end5:
	.size	rename, .Lfunc_end5-rename
	.cfi_endproc
	.cantunwind
	.fnend
                                        @ -- End function
	.section	.text.unlink,"ax",%progbits
	.hidden	unlink                          @ -- Begin function unlink
	.globl	unlink
	.p2align	3
	.type	unlink,%function
	.code	16                              @ @unlink
	.thumb_func
unlink:
.Lfunc_begin6:
	.loc	1 293 0                         @ rt-thread/components/dfs/src/dfs_posix.c:293:0
	.fnstart
	.cfi_startproc
@ %bb.0:
	.save	{r7, lr}
	push	{r7, lr}
	.cfi_def_cfa_offset 8
	.cfi_offset lr, -4
	.cfi_offset r7, -8
	.pad	#16
	sub	sp, #16
	.cfi_def_cfa_offset 24
	str	r0, [sp, #8]
.Ltmp61:
	.loc	1 296 30 prologue_end           @ rt-thread/components/dfs/src/dfs_posix.c:296:30
	ldr	r0, [sp, #8]
	.loc	1 296 14 is_stmt 0              @ rt-thread/components/dfs/src/dfs_posix.c:296:14
	bl	dfs_file_unlink
	.loc	1 296 12                        @ rt-thread/components/dfs/src/dfs_posix.c:296:12
	str	r0, [sp, #4]
.Ltmp62:
	.loc	1 297 9 is_stmt 1               @ rt-thread/components/dfs/src/dfs_posix.c:297:9
	ldr	r0, [sp, #4]
.Ltmp63:
	.loc	1 297 9 is_stmt 0               @ rt-thread/components/dfs/src/dfs_posix.c:297:9
	cmp.w	r0, #-1
	bgt	.LBB6_2
	b	.LBB6_1
.LBB6_1:
.Ltmp64:
	.loc	1 299 22 is_stmt 1              @ rt-thread/components/dfs/src/dfs_posix.c:299:22
	ldr	r0, [sp, #4]
	.loc	1 299 9 is_stmt 0               @ rt-thread/components/dfs/src/dfs_posix.c:299:9
	bl	rt_set_errno
	mov.w	r0, #-1
	.loc	1 301 9 is_stmt 1               @ rt-thread/components/dfs/src/dfs_posix.c:301:9
	str	r0, [sp, #12]
	b	.LBB6_3
.Ltmp65:
.LBB6_2:
	.loc	1 0 9 is_stmt 0                 @ rt-thread/components/dfs/src/dfs_posix.c:0:9
	movs	r0, #0
	.loc	1 304 5 is_stmt 1               @ rt-thread/components/dfs/src/dfs_posix.c:304:5
	str	r0, [sp, #12]
	b	.LBB6_3
.LBB6_3:
	.loc	1 305 1                         @ rt-thread/components/dfs/src/dfs_posix.c:305:1
	ldr	r0, [sp, #12]
	add	sp, #16
	pop	{r7, pc}
.Ltmp66:
.Lfunc_end6:
	.size	unlink, .Lfunc_end6-unlink
	.cfi_endproc
	.cantunwind
	.fnend
                                        @ -- End function
	.section	.text.stat,"ax",%progbits
	.hidden	stat                            @ -- Begin function stat
	.globl	stat
	.p2align	3
	.type	stat,%function
	.code	16                              @ @stat
	.thumb_func
stat:
.Lfunc_begin7:
	.loc	1 318 0                         @ rt-thread/components/dfs/src/dfs_posix.c:318:0
	.fnstart
	.cfi_startproc
@ %bb.0:
	.save	{r7, lr}
	push	{r7, lr}
	.cfi_def_cfa_offset 8
	.cfi_offset lr, -4
	.cfi_offset r7, -8
	.pad	#16
	sub	sp, #16
	.cfi_def_cfa_offset 24
	str	r0, [sp, #8]
	str	r1, [sp, #4]
.Ltmp67:
	.loc	1 321 28 prologue_end           @ rt-thread/components/dfs/src/dfs_posix.c:321:28
	ldr	r0, [sp, #8]
	.loc	1 321 34 is_stmt 0              @ rt-thread/components/dfs/src/dfs_posix.c:321:34
	ldr	r1, [sp, #4]
	.loc	1 321 14                        @ rt-thread/components/dfs/src/dfs_posix.c:321:14
	bl	dfs_file_stat
	.loc	1 321 12                        @ rt-thread/components/dfs/src/dfs_posix.c:321:12
	str	r0, [sp]
.Ltmp68:
	.loc	1 322 9 is_stmt 1               @ rt-thread/components/dfs/src/dfs_posix.c:322:9
	ldr	r0, [sp]
.Ltmp69:
	.loc	1 322 9 is_stmt 0               @ rt-thread/components/dfs/src/dfs_posix.c:322:9
	cmp.w	r0, #-1
	bgt	.LBB7_2
	b	.LBB7_1
.LBB7_1:
.Ltmp70:
	.loc	1 324 22 is_stmt 1              @ rt-thread/components/dfs/src/dfs_posix.c:324:22
	ldr	r0, [sp]
	.loc	1 324 9 is_stmt 0               @ rt-thread/components/dfs/src/dfs_posix.c:324:9
	bl	rt_set_errno
	mov.w	r0, #-1
	.loc	1 326 9 is_stmt 1               @ rt-thread/components/dfs/src/dfs_posix.c:326:9
	str	r0, [sp, #12]
	b	.LBB7_3
.Ltmp71:
.LBB7_2:
	.loc	1 329 12                        @ rt-thread/components/dfs/src/dfs_posix.c:329:12
	ldr	r0, [sp]
	.loc	1 329 5 is_stmt 0               @ rt-thread/components/dfs/src/dfs_posix.c:329:5
	str	r0, [sp, #12]
	b	.LBB7_3
.LBB7_3:
	.loc	1 330 1 is_stmt 1               @ rt-thread/components/dfs/src/dfs_posix.c:330:1
	ldr	r0, [sp, #12]
	add	sp, #16
	pop	{r7, pc}
.Ltmp72:
.Lfunc_end7:
	.size	stat, .Lfunc_end7-stat
	.cfi_endproc
	.cantunwind
	.fnend
                                        @ -- End function
	.section	.text.fstat,"ax",%progbits
	.hidden	fstat                           @ -- Begin function fstat
	.globl	fstat
	.p2align	3
	.type	fstat,%function
	.code	16                              @ @fstat
	.thumb_func
fstat:
.Lfunc_begin8:
	.loc	1 342 0                         @ rt-thread/components/dfs/src/dfs_posix.c:342:0
	.fnstart
	.cfi_startproc
@ %bb.0:
	.save	{r7, lr}
	push	{r7, lr}
	.cfi_def_cfa_offset 8
	.cfi_offset lr, -4
	.cfi_offset r7, -8
	.pad	#24
	sub	sp, #24
	.cfi_def_cfa_offset 32
	str	r0, [sp, #16]
	str	r1, [sp, #12]
.Ltmp73:
	.loc	1 346 16 prologue_end           @ rt-thread/components/dfs/src/dfs_posix.c:346:16
	ldr	r0, [sp, #16]
	.loc	1 346 9 is_stmt 0               @ rt-thread/components/dfs/src/dfs_posix.c:346:9
	bl	fd_get
	.loc	1 346 7                         @ rt-thread/components/dfs/src/dfs_posix.c:346:7
	str	r0, [sp, #8]
.Ltmp74:
	.loc	1 347 9 is_stmt 1               @ rt-thread/components/dfs/src/dfs_posix.c:347:9
	ldr	r0, [sp, #8]
.Ltmp75:
	.loc	1 347 9 is_stmt 0               @ rt-thread/components/dfs/src/dfs_posix.c:347:9
	cbnz	r0, .LBB8_2
	b	.LBB8_1
.LBB8_1:
	.loc	1 0 9                           @ rt-thread/components/dfs/src/dfs_posix.c:0:9
	mvn	r0, #8
.Ltmp76:
	.loc	1 349 9 is_stmt 1               @ rt-thread/components/dfs/src/dfs_posix.c:349:9
	bl	rt_set_errno
	mov.w	r0, #-1
	.loc	1 351 9                         @ rt-thread/components/dfs/src/dfs_posix.c:351:9
	str	r0, [sp, #20]
	b	.LBB8_5
.Ltmp77:
.LBB8_2:
	.loc	1 355 5                         @ rt-thread/components/dfs/src/dfs_posix.c:355:5
	ldr	r1, [sp, #12]
	movs	r0, #0
	.loc	1 355 17 is_stmt 0              @ rt-thread/components/dfs/src/dfs_posix.c:355:17
	str	r0, [r1]
	.loc	1 357 5 is_stmt 1               @ rt-thread/components/dfs/src/dfs_posix.c:357:5
	ldr	r1, [sp, #12]
	movw	r0, #33206
	.loc	1 357 18 is_stmt 0              @ rt-thread/components/dfs/src/dfs_posix.c:357:18
	strh	r0, [r1, #6]
.Ltmp78:
	.loc	1 359 9 is_stmt 1               @ rt-thread/components/dfs/src/dfs_posix.c:359:9
	ldr	r0, [sp, #8]
	.loc	1 359 12 is_stmt 0              @ rt-thread/components/dfs/src/dfs_posix.c:359:12
	ldrh	r0, [r0, #2]
.Ltmp79:
	.loc	1 359 9                         @ rt-thread/components/dfs/src/dfs_posix.c:359:9
	cmp	r0, #2
	bne	.LBB8_4
	b	.LBB8_3
.LBB8_3:
.Ltmp80:
	.loc	1 361 9 is_stmt 1               @ rt-thread/components/dfs/src/dfs_posix.c:361:9
	ldr	r1, [sp, #12]
	.loc	1 361 22 is_stmt 0              @ rt-thread/components/dfs/src/dfs_posix.c:361:22
	ldrh	r0, [r1, #6]
	bfc	r0, #15, #17
	strh	r0, [r1, #6]
	.loc	1 362 9 is_stmt 1               @ rt-thread/components/dfs/src/dfs_posix.c:362:9
	ldr	r1, [sp, #12]
	.loc	1 362 22 is_stmt 0              @ rt-thread/components/dfs/src/dfs_posix.c:362:22
	ldrh	r0, [r1, #6]
	movw	r2, #16457
	orrs	r0, r2
	strh	r0, [r1, #6]
	.loc	1 363 5 is_stmt 1               @ rt-thread/components/dfs/src/dfs_posix.c:363:5
	b	.LBB8_4
.Ltmp81:
.LBB8_4:
	.loc	1 365 23                        @ rt-thread/components/dfs/src/dfs_posix.c:365:23
	ldr	r0, [sp, #8]
	.loc	1 365 26 is_stmt 0              @ rt-thread/components/dfs/src/dfs_posix.c:365:26
	ldr	r0, [r0, #24]
	.loc	1 365 5                         @ rt-thread/components/dfs/src/dfs_posix.c:365:5
	ldr	r1, [sp, #12]
	.loc	1 365 21                        @ rt-thread/components/dfs/src/dfs_posix.c:365:21
	str	r0, [r1, #20]
	.loc	1 366 5 is_stmt 1               @ rt-thread/components/dfs/src/dfs_posix.c:366:5
	ldr	r1, [sp, #12]
	movs	r0, #0
	.loc	1 366 21 is_stmt 0              @ rt-thread/components/dfs/src/dfs_posix.c:366:21
	str	r0, [sp, #4]                    @ 4-byte Spill
	str	r0, [r1, #32]
	.loc	1 368 12 is_stmt 1              @ rt-thread/components/dfs/src/dfs_posix.c:368:12
	ldr	r0, [sp, #8]
	.loc	1 368 5 is_stmt 0               @ rt-thread/components/dfs/src/dfs_posix.c:368:5
	bl	fd_put
	ldr	r0, [sp, #4]                    @ 4-byte Reload
	.loc	1 370 5 is_stmt 1               @ rt-thread/components/dfs/src/dfs_posix.c:370:5
	str	r0, [sp, #20]
	b	.LBB8_5
.LBB8_5:
	.loc	1 371 1                         @ rt-thread/components/dfs/src/dfs_posix.c:371:1
	ldr	r0, [sp, #20]
	add	sp, #24
	pop	{r7, pc}
.Ltmp82:
.Lfunc_end8:
	.size	fstat, .Lfunc_end8-fstat
	.cfi_endproc
	.cantunwind
	.fnend
                                        @ -- End function
	.section	.text.fsync,"ax",%progbits
	.hidden	fsync                           @ -- Begin function fsync
	.globl	fsync
	.p2align	3
	.type	fsync,%function
	.code	16                              @ @fsync
	.thumb_func
fsync:
.Lfunc_begin9:
	.loc	1 386 0                         @ rt-thread/components/dfs/src/dfs_posix.c:386:0
	.fnstart
	.cfi_startproc
@ %bb.0:
	.save	{r7, lr}
	push	{r7, lr}
	.cfi_def_cfa_offset 8
	.cfi_offset lr, -4
	.cfi_offset r7, -8
	.pad	#16
	sub	sp, #16
	.cfi_def_cfa_offset 24
	str	r0, [sp, #8]
.Ltmp83:
	.loc	1 391 16 prologue_end           @ rt-thread/components/dfs/src/dfs_posix.c:391:16
	ldr	r0, [sp, #8]
	.loc	1 391 9 is_stmt 0               @ rt-thread/components/dfs/src/dfs_posix.c:391:9
	bl	fd_get
	.loc	1 391 7                         @ rt-thread/components/dfs/src/dfs_posix.c:391:7
	str	r0, [sp]
.Ltmp84:
	.loc	1 392 9 is_stmt 1               @ rt-thread/components/dfs/src/dfs_posix.c:392:9
	ldr	r0, [sp]
.Ltmp85:
	.loc	1 392 9 is_stmt 0               @ rt-thread/components/dfs/src/dfs_posix.c:392:9
	cbnz	r0, .LBB9_2
	b	.LBB9_1
.LBB9_1:
	.loc	1 0 9                           @ rt-thread/components/dfs/src/dfs_posix.c:0:9
	mvn	r0, #8
.Ltmp86:
	.loc	1 394 9 is_stmt 1               @ rt-thread/components/dfs/src/dfs_posix.c:394:9
	bl	rt_set_errno
	mov.w	r0, #-1
	.loc	1 395 9                         @ rt-thread/components/dfs/src/dfs_posix.c:395:9
	str	r0, [sp, #12]
	b	.LBB9_3
.Ltmp87:
.LBB9_2:
	.loc	1 398 26                        @ rt-thread/components/dfs/src/dfs_posix.c:398:26
	ldr	r0, [sp]
	.loc	1 398 11 is_stmt 0              @ rt-thread/components/dfs/src/dfs_posix.c:398:11
	bl	dfs_file_flush
	.loc	1 398 9                         @ rt-thread/components/dfs/src/dfs_posix.c:398:9
	str	r0, [sp, #4]
	.loc	1 400 12 is_stmt 1              @ rt-thread/components/dfs/src/dfs_posix.c:400:12
	ldr	r0, [sp]
	.loc	1 400 5 is_stmt 0               @ rt-thread/components/dfs/src/dfs_posix.c:400:5
	bl	fd_put
	.loc	1 401 12 is_stmt 1              @ rt-thread/components/dfs/src/dfs_posix.c:401:12
	ldr	r0, [sp, #4]
	.loc	1 401 5 is_stmt 0               @ rt-thread/components/dfs/src/dfs_posix.c:401:5
	str	r0, [sp, #12]
	b	.LBB9_3
.LBB9_3:
	.loc	1 402 1 is_stmt 1               @ rt-thread/components/dfs/src/dfs_posix.c:402:1
	ldr	r0, [sp, #12]
	add	sp, #16
	pop	{r7, pc}
.Ltmp88:
.Lfunc_end9:
	.size	fsync, .Lfunc_end9-fsync
	.cfi_endproc
	.cantunwind
	.fnend
                                        @ -- End function
	.section	.text.fcntl,"ax",%progbits
	.hidden	fcntl                           @ -- Begin function fcntl
	.globl	fcntl
	.p2align	3
	.type	fcntl,%function
	.code	16                              @ @fcntl
	.thumb_func
fcntl:
.Lfunc_begin10:
	.loc	1 418 0                         @ rt-thread/components/dfs/src/dfs_posix.c:418:0
	.fnstart
	.cfi_startproc
@ %bb.0:
	.pad	#8
	sub	sp, #8
	.cfi_def_cfa_offset 8
	.save	{r7, lr}
	push	{r7, lr}
	.cfi_def_cfa_offset 16
	.cfi_offset lr, -12
	.cfi_offset r7, -16
	.pad	#24
	sub	sp, #24
	.cfi_def_cfa_offset 40
	str	r3, [sp, #36]
	str	r2, [sp, #32]
	str	r0, [sp, #20]
	str	r1, [sp, #16]
	mov.w	r0, #-1
.Ltmp89:
	.loc	1 419 9 prologue_end            @ rt-thread/components/dfs/src/dfs_posix.c:419:9
	str	r0, [sp, #12]
	.loc	1 423 16                        @ rt-thread/components/dfs/src/dfs_posix.c:423:16
	ldr	r0, [sp, #20]
	.loc	1 423 9 is_stmt 0               @ rt-thread/components/dfs/src/dfs_posix.c:423:9
	bl	fd_get
	.loc	1 423 7                         @ rt-thread/components/dfs/src/dfs_posix.c:423:7
	str	r0, [sp, #8]
.Ltmp90:
	.loc	1 424 9 is_stmt 1               @ rt-thread/components/dfs/src/dfs_posix.c:424:9
	ldr	r0, [sp, #8]
.Ltmp91:
	.loc	1 424 9 is_stmt 0               @ rt-thread/components/dfs/src/dfs_posix.c:424:9
	cbz	r0, .LBB10_2
	b	.LBB10_1
.LBB10_1:
	.loc	1 0 9                           @ rt-thread/components/dfs/src/dfs_posix.c:0:9
	add	r0, sp, #32
.Ltmp92:
	.loc	1 429 9 is_stmt 1               @ rt-thread/components/dfs/src/dfs_posix.c:429:9
	str	r0, [sp]
	.loc	1 430 15                        @ rt-thread/components/dfs/src/dfs_posix.c:430:15
	ldr	r0, [sp]
	adds	r1, r0, #4
	str	r1, [sp]
	ldr	r0, [r0]
	.loc	1 430 13 is_stmt 0              @ rt-thread/components/dfs/src/dfs_posix.c:430:13
	str	r0, [sp, #4]
	.loc	1 433 30 is_stmt 1              @ rt-thread/components/dfs/src/dfs_posix.c:433:30
	ldr	r0, [sp, #8]
	.loc	1 433 33 is_stmt 0              @ rt-thread/components/dfs/src/dfs_posix.c:433:33
	ldr	r1, [sp, #16]
	.loc	1 433 38                        @ rt-thread/components/dfs/src/dfs_posix.c:433:38
	ldr	r2, [sp, #4]
	.loc	1 433 15                        @ rt-thread/components/dfs/src/dfs_posix.c:433:15
	bl	dfs_file_ioctl
	.loc	1 433 13                        @ rt-thread/components/dfs/src/dfs_posix.c:433:13
	str	r0, [sp, #12]
	.loc	1 434 16 is_stmt 1              @ rt-thread/components/dfs/src/dfs_posix.c:434:16
	ldr	r0, [sp, #8]
	.loc	1 434 9 is_stmt 0               @ rt-thread/components/dfs/src/dfs_posix.c:434:9
	bl	fd_put
	.loc	1 435 5 is_stmt 1               @ rt-thread/components/dfs/src/dfs_posix.c:435:5
	b	.LBB10_3
.Ltmp93:
.LBB10_2:
	.loc	1 0 5 is_stmt 0                 @ rt-thread/components/dfs/src/dfs_posix.c:0:5
	mvn	r0, #8
	.loc	1 436 14 is_stmt 1              @ rt-thread/components/dfs/src/dfs_posix.c:436:14
	str	r0, [sp, #12]
	b	.LBB10_3
.Ltmp94:
.LBB10_3:
	.loc	1 438 9                         @ rt-thread/components/dfs/src/dfs_posix.c:438:9
	ldr	r0, [sp, #12]
.Ltmp95:
	.loc	1 438 9 is_stmt 0               @ rt-thread/components/dfs/src/dfs_posix.c:438:9
	cmp.w	r0, #-1
	bgt	.LBB10_5
	b	.LBB10_4
.LBB10_4:
.Ltmp96:
	.loc	1 440 22 is_stmt 1              @ rt-thread/components/dfs/src/dfs_posix.c:440:22
	ldr	r0, [sp, #12]
	.loc	1 440 9 is_stmt 0               @ rt-thread/components/dfs/src/dfs_posix.c:440:9
	bl	rt_set_errno
	mov.w	r0, #-1
	.loc	1 441 13 is_stmt 1              @ rt-thread/components/dfs/src/dfs_posix.c:441:13
	str	r0, [sp, #12]
	.loc	1 442 5                         @ rt-thread/components/dfs/src/dfs_posix.c:442:5
	b	.LBB10_5
.Ltmp97:
.LBB10_5:
	.loc	1 444 12                        @ rt-thread/components/dfs/src/dfs_posix.c:444:12
	ldr	r0, [sp, #12]
	.loc	1 444 5 is_stmt 0               @ rt-thread/components/dfs/src/dfs_posix.c:444:5
	add	sp, #24
	pop.w	{r7, lr}
	add	sp, #8
	bx	lr
.Ltmp98:
.Lfunc_end10:
	.size	fcntl, .Lfunc_end10-fcntl
	.cfi_endproc
	.cantunwind
	.fnend
                                        @ -- End function
	.section	.text.ioctl,"ax",%progbits
	.hidden	ioctl                           @ -- Begin function ioctl
	.globl	ioctl
	.p2align	3
	.type	ioctl,%function
	.code	16                              @ @ioctl
	.thumb_func
ioctl:
.Lfunc_begin11:
	.loc	1 461 0 is_stmt 1               @ rt-thread/components/dfs/src/dfs_posix.c:461:0
	.fnstart
	.cfi_startproc
@ %bb.0:
	.pad	#8
	sub	sp, #8
	.cfi_def_cfa_offset 8
	.save	{r7, lr}
	push	{r7, lr}
	.cfi_def_cfa_offset 16
	.cfi_offset lr, -12
	.cfi_offset r7, -16
	.pad	#16
	sub	sp, #16
	.cfi_def_cfa_offset 32
	str	r3, [sp, #28]
	str	r2, [sp, #24]
	str	r0, [sp, #12]
	str	r1, [sp, #8]
	add	r0, sp, #24
.Ltmp99:
	.loc	1 465 5 prologue_end            @ rt-thread/components/dfs/src/dfs_posix.c:465:5
	str	r0, [sp]
	.loc	1 466 11                        @ rt-thread/components/dfs/src/dfs_posix.c:466:11
	ldr	r0, [sp]
	adds	r1, r0, #4
	str	r1, [sp]
	ldr	r0, [r0]
	.loc	1 466 9 is_stmt 0               @ rt-thread/components/dfs/src/dfs_posix.c:466:9
	str	r0, [sp, #4]
	.loc	1 470 18 is_stmt 1              @ rt-thread/components/dfs/src/dfs_posix.c:470:18
	ldr	r0, [sp, #12]
	.loc	1 470 26 is_stmt 0              @ rt-thread/components/dfs/src/dfs_posix.c:470:26
	ldr	r1, [sp, #8]
	.loc	1 470 31                        @ rt-thread/components/dfs/src/dfs_posix.c:470:31
	ldr	r2, [sp, #4]
	.loc	1 470 12                        @ rt-thread/components/dfs/src/dfs_posix.c:470:12
	bl	fcntl
	.loc	1 470 5                         @ rt-thread/components/dfs/src/dfs_posix.c:470:5
	add	sp, #16
	pop.w	{r7, lr}
	add	sp, #8
	bx	lr
.Ltmp100:
.Lfunc_end11:
	.size	ioctl, .Lfunc_end11-ioctl
	.cfi_endproc
	.cantunwind
	.fnend
                                        @ -- End function
	.section	.text.ftruncate,"ax",%progbits
	.hidden	ftruncate                       @ -- Begin function ftruncate
	.globl	ftruncate
	.p2align	3
	.type	ftruncate,%function
	.code	16                              @ @ftruncate
	.thumb_func
ftruncate:
.Lfunc_begin12:
	.loc	1 485 0 is_stmt 1               @ rt-thread/components/dfs/src/dfs_posix.c:485:0
	.fnstart
	.cfi_startproc
@ %bb.0:
	.save	{r7, lr}
	push	{r7, lr}
	.cfi_def_cfa_offset 8
	.cfi_offset lr, -4
	.cfi_offset r7, -8
	.pad	#24
	sub	sp, #24
	.cfi_def_cfa_offset 32
	str	r0, [sp, #16]
	str	r1, [sp, #12]
.Ltmp101:
	.loc	1 489 16 prologue_end           @ rt-thread/components/dfs/src/dfs_posix.c:489:16
	ldr	r0, [sp, #16]
	.loc	1 489 9 is_stmt 0               @ rt-thread/components/dfs/src/dfs_posix.c:489:9
	bl	fd_get
	.loc	1 489 7                         @ rt-thread/components/dfs/src/dfs_posix.c:489:7
	str	r0, [sp, #4]
.Ltmp102:
	.loc	1 490 9 is_stmt 1               @ rt-thread/components/dfs/src/dfs_posix.c:490:9
	ldr	r0, [sp, #4]
.Ltmp103:
	.loc	1 490 9 is_stmt 0               @ rt-thread/components/dfs/src/dfs_posix.c:490:9
	cbnz	r0, .LBB12_2
	b	.LBB12_1
.LBB12_1:
	.loc	1 0 9                           @ rt-thread/components/dfs/src/dfs_posix.c:0:9
	mvn	r0, #8
.Ltmp104:
	.loc	1 492 9 is_stmt 1               @ rt-thread/components/dfs/src/dfs_posix.c:492:9
	bl	rt_set_errno
	mov.w	r0, #-1
	.loc	1 494 9                         @ rt-thread/components/dfs/src/dfs_posix.c:494:9
	str	r0, [sp, #20]
	b	.LBB12_7
.Ltmp105:
.LBB12_2:
	.loc	1 497 9                         @ rt-thread/components/dfs/src/dfs_posix.c:497:9
	ldr	r0, [sp, #12]
.Ltmp106:
	.loc	1 497 9 is_stmt 0               @ rt-thread/components/dfs/src/dfs_posix.c:497:9
	cmp.w	r0, #-1
	bgt	.LBB12_4
	b	.LBB12_3
.LBB12_3:
.Ltmp107:
	.loc	1 499 16 is_stmt 1              @ rt-thread/components/dfs/src/dfs_posix.c:499:16
	ldr	r0, [sp, #4]
	.loc	1 499 9 is_stmt 0               @ rt-thread/components/dfs/src/dfs_posix.c:499:9
	bl	fd_put
	mvn	r0, #21
	.loc	1 500 9 is_stmt 1               @ rt-thread/components/dfs/src/dfs_posix.c:500:9
	bl	rt_set_errno
	mov.w	r0, #-1
	.loc	1 502 9                         @ rt-thread/components/dfs/src/dfs_posix.c:502:9
	str	r0, [sp, #20]
	b	.LBB12_7
.Ltmp108:
.LBB12_4:
	.loc	1 504 33                        @ rt-thread/components/dfs/src/dfs_posix.c:504:33
	ldr	r0, [sp, #4]
	.loc	1 504 36 is_stmt 0              @ rt-thread/components/dfs/src/dfs_posix.c:504:36
	ldr	r1, [sp, #12]
	.loc	1 504 14                        @ rt-thread/components/dfs/src/dfs_posix.c:504:14
	bl	dfs_file_ftruncate
	.loc	1 504 12                        @ rt-thread/components/dfs/src/dfs_posix.c:504:12
	str	r0, [sp, #8]
.Ltmp109:
	.loc	1 505 9 is_stmt 1               @ rt-thread/components/dfs/src/dfs_posix.c:505:9
	ldr	r0, [sp, #8]
.Ltmp110:
	.loc	1 505 9 is_stmt 0               @ rt-thread/components/dfs/src/dfs_posix.c:505:9
	cmp.w	r0, #-1
	bgt	.LBB12_6
	b	.LBB12_5
.LBB12_5:
.Ltmp111:
	.loc	1 507 16 is_stmt 1              @ rt-thread/components/dfs/src/dfs_posix.c:507:16
	ldr	r0, [sp, #4]
	.loc	1 507 9 is_stmt 0               @ rt-thread/components/dfs/src/dfs_posix.c:507:9
	bl	fd_put
	.loc	1 508 22 is_stmt 1              @ rt-thread/components/dfs/src/dfs_posix.c:508:22
	ldr	r0, [sp, #8]
	.loc	1 508 9 is_stmt 0               @ rt-thread/components/dfs/src/dfs_posix.c:508:9
	bl	rt_set_errno
	mov.w	r0, #-1
	.loc	1 510 9 is_stmt 1               @ rt-thread/components/dfs/src/dfs_posix.c:510:9
	str	r0, [sp, #20]
	b	.LBB12_7
.Ltmp112:
.LBB12_6:
	.loc	1 514 12                        @ rt-thread/components/dfs/src/dfs_posix.c:514:12
	ldr	r0, [sp, #4]
	.loc	1 514 5 is_stmt 0               @ rt-thread/components/dfs/src/dfs_posix.c:514:5
	bl	fd_put
	movs	r0, #0
	.loc	1 516 5 is_stmt 1               @ rt-thread/components/dfs/src/dfs_posix.c:516:5
	str	r0, [sp, #20]
	b	.LBB12_7
.LBB12_7:
	.loc	1 517 1                         @ rt-thread/components/dfs/src/dfs_posix.c:517:1
	ldr	r0, [sp, #20]
	add	sp, #24
	pop	{r7, pc}
.Ltmp113:
.Lfunc_end12:
	.size	ftruncate, .Lfunc_end12-ftruncate
	.cfi_endproc
	.cantunwind
	.fnend
                                        @ -- End function
	.section	.text.statfs,"ax",%progbits
	.hidden	statfs                          @ -- Begin function statfs
	.globl	statfs
	.p2align	3
	.type	statfs,%function
	.code	16                              @ @statfs
	.thumb_func
statfs:
.Lfunc_begin13:
	.loc	1 530 0                         @ rt-thread/components/dfs/src/dfs_posix.c:530:0
	.fnstart
	.cfi_startproc
@ %bb.0:
	.save	{r7, lr}
	push	{r7, lr}
	.cfi_def_cfa_offset 8
	.cfi_offset lr, -4
	.cfi_offset r7, -8
	.pad	#16
	sub	sp, #16
	.cfi_def_cfa_offset 24
	str	r0, [sp, #8]
	str	r1, [sp, #4]
.Ltmp114:
	.loc	1 533 25 prologue_end           @ rt-thread/components/dfs/src/dfs_posix.c:533:25
	ldr	r0, [sp, #8]
	.loc	1 533 31 is_stmt 0              @ rt-thread/components/dfs/src/dfs_posix.c:533:31
	ldr	r1, [sp, #4]
	.loc	1 533 14                        @ rt-thread/components/dfs/src/dfs_posix.c:533:14
	bl	dfs_statfs
	.loc	1 533 12                        @ rt-thread/components/dfs/src/dfs_posix.c:533:12
	str	r0, [sp]
.Ltmp115:
	.loc	1 534 9 is_stmt 1               @ rt-thread/components/dfs/src/dfs_posix.c:534:9
	ldr	r0, [sp]
.Ltmp116:
	.loc	1 534 9 is_stmt 0               @ rt-thread/components/dfs/src/dfs_posix.c:534:9
	cmp.w	r0, #-1
	bgt	.LBB13_2
	b	.LBB13_1
.LBB13_1:
.Ltmp117:
	.loc	1 536 22 is_stmt 1              @ rt-thread/components/dfs/src/dfs_posix.c:536:22
	ldr	r0, [sp]
	.loc	1 536 9 is_stmt 0               @ rt-thread/components/dfs/src/dfs_posix.c:536:9
	bl	rt_set_errno
	mov.w	r0, #-1
	.loc	1 538 9 is_stmt 1               @ rt-thread/components/dfs/src/dfs_posix.c:538:9
	str	r0, [sp, #12]
	b	.LBB13_3
.Ltmp118:
.LBB13_2:
	.loc	1 541 12                        @ rt-thread/components/dfs/src/dfs_posix.c:541:12
	ldr	r0, [sp]
	.loc	1 541 5 is_stmt 0               @ rt-thread/components/dfs/src/dfs_posix.c:541:5
	str	r0, [sp, #12]
	b	.LBB13_3
.LBB13_3:
	.loc	1 542 1 is_stmt 1               @ rt-thread/components/dfs/src/dfs_posix.c:542:1
	ldr	r0, [sp, #12]
	add	sp, #16
	pop	{r7, pc}
.Ltmp119:
.Lfunc_end13:
	.size	statfs, .Lfunc_end13-statfs
	.cfi_endproc
	.cantunwind
	.fnend
                                        @ -- End function
	.section	.text.mkdir,"ax",%progbits
	.hidden	mkdir                           @ -- Begin function mkdir
	.globl	mkdir
	.p2align	3
	.type	mkdir,%function
	.code	16                              @ @mkdir
	.thumb_func
mkdir:
.Lfunc_begin14:
	.loc	1 554 0                         @ rt-thread/components/dfs/src/dfs_posix.c:554:0
	.fnstart
	.cfi_startproc
@ %bb.0:
	.save	{r7, lr}
	push	{r7, lr}
	.cfi_def_cfa_offset 8
	.cfi_offset lr, -4
	.cfi_offset r7, -8
	.pad	#24
	sub	sp, #24
	.cfi_def_cfa_offset 32
	str	r0, [sp, #16]
	str	r1, [sp, #12]
.Ltmp120:
	.loc	1 559 10 prologue_end           @ rt-thread/components/dfs/src/dfs_posix.c:559:10
	bl	fd_new
	.loc	1 559 8 is_stmt 0               @ rt-thread/components/dfs/src/dfs_posix.c:559:8
	str	r0, [sp, #8]
.Ltmp121:
	.loc	1 560 9 is_stmt 1               @ rt-thread/components/dfs/src/dfs_posix.c:560:9
	ldr	r0, [sp, #8]
.Ltmp122:
	.loc	1 560 9 is_stmt 0               @ rt-thread/components/dfs/src/dfs_posix.c:560:9
	adds	r0, #1
	cbnz	r0, .LBB14_2
	b	.LBB14_1
.LBB14_1:
	.loc	1 0 9                           @ rt-thread/components/dfs/src/dfs_posix.c:0:9
	mvn	r0, #11
.Ltmp123:
	.loc	1 562 9 is_stmt 1               @ rt-thread/components/dfs/src/dfs_posix.c:562:9
	bl	rt_set_errno
	mov.w	r0, #-1
	.loc	1 564 9                         @ rt-thread/components/dfs/src/dfs_posix.c:564:9
	str	r0, [sp, #20]
	b	.LBB14_5
.Ltmp124:
.LBB14_2:
	.loc	1 567 16                        @ rt-thread/components/dfs/src/dfs_posix.c:567:16
	ldr	r0, [sp, #8]
	.loc	1 567 9 is_stmt 0               @ rt-thread/components/dfs/src/dfs_posix.c:567:9
	bl	fd_get
	.loc	1 567 7                         @ rt-thread/components/dfs/src/dfs_posix.c:567:7
	str	r0, [sp, #4]
	.loc	1 569 28 is_stmt 1              @ rt-thread/components/dfs/src/dfs_posix.c:569:28
	ldr	r0, [sp, #4]
	.loc	1 569 31 is_stmt 0              @ rt-thread/components/dfs/src/dfs_posix.c:569:31
	ldr	r1, [sp, #16]
	movs	r2, #64
	movt	r2, #1
	.loc	1 569 14                        @ rt-thread/components/dfs/src/dfs_posix.c:569:14
	bl	dfs_file_open
	.loc	1 569 12                        @ rt-thread/components/dfs/src/dfs_posix.c:569:12
	str	r0, [sp]
.Ltmp125:
	.loc	1 571 9 is_stmt 1               @ rt-thread/components/dfs/src/dfs_posix.c:571:9
	ldr	r0, [sp]
.Ltmp126:
	.loc	1 571 9 is_stmt 0               @ rt-thread/components/dfs/src/dfs_posix.c:571:9
	cmp.w	r0, #-1
	bgt	.LBB14_4
	b	.LBB14_3
.LBB14_3:
.Ltmp127:
	.loc	1 573 16 is_stmt 1              @ rt-thread/components/dfs/src/dfs_posix.c:573:16
	ldr	r0, [sp, #4]
	.loc	1 573 9 is_stmt 0               @ rt-thread/components/dfs/src/dfs_posix.c:573:9
	bl	fd_put
	.loc	1 574 16 is_stmt 1              @ rt-thread/components/dfs/src/dfs_posix.c:574:16
	ldr	r0, [sp, #4]
	.loc	1 574 9 is_stmt 0               @ rt-thread/components/dfs/src/dfs_posix.c:574:9
	bl	fd_put
	.loc	1 575 22 is_stmt 1              @ rt-thread/components/dfs/src/dfs_posix.c:575:22
	ldr	r0, [sp]
	.loc	1 575 9 is_stmt 0               @ rt-thread/components/dfs/src/dfs_posix.c:575:9
	bl	rt_set_errno
	mov.w	r0, #-1
	.loc	1 577 9 is_stmt 1               @ rt-thread/components/dfs/src/dfs_posix.c:577:9
	str	r0, [sp, #20]
	b	.LBB14_5
.Ltmp128:
.LBB14_4:
	.loc	1 580 20                        @ rt-thread/components/dfs/src/dfs_posix.c:580:20
	ldr	r0, [sp, #4]
	.loc	1 580 5 is_stmt 0               @ rt-thread/components/dfs/src/dfs_posix.c:580:5
	bl	dfs_file_close
	.loc	1 581 12 is_stmt 1              @ rt-thread/components/dfs/src/dfs_posix.c:581:12
	ldr	r0, [sp, #4]
	.loc	1 581 5 is_stmt 0               @ rt-thread/components/dfs/src/dfs_posix.c:581:5
	bl	fd_put
	.loc	1 582 12 is_stmt 1              @ rt-thread/components/dfs/src/dfs_posix.c:582:12
	ldr	r0, [sp, #4]
	.loc	1 582 5 is_stmt 0               @ rt-thread/components/dfs/src/dfs_posix.c:582:5
	bl	fd_put
	movs	r0, #0
	.loc	1 584 5 is_stmt 1               @ rt-thread/components/dfs/src/dfs_posix.c:584:5
	str	r0, [sp, #20]
	b	.LBB14_5
.LBB14_5:
	.loc	1 585 1                         @ rt-thread/components/dfs/src/dfs_posix.c:585:1
	ldr	r0, [sp, #20]
	add	sp, #24
	pop	{r7, pc}
.Ltmp129:
.Lfunc_end14:
	.size	mkdir, .Lfunc_end14-mkdir
	.cfi_endproc
	.cantunwind
	.fnend
                                        @ -- End function
	.section	.text.rmdir,"ax",%progbits
	.hidden	rmdir                           @ -- Begin function rmdir
	.globl	rmdir
	.p2align	3
	.type	rmdir,%function
	.code	16                              @ @rmdir
	.thumb_func
rmdir:
.Lfunc_begin15:
	.loc	1 601 0                         @ rt-thread/components/dfs/src/dfs_posix.c:601:0
	.fnstart
	.cfi_startproc
@ %bb.0:
	.save	{r7, lr}
	push	{r7, lr}
	.cfi_def_cfa_offset 8
	.cfi_offset lr, -4
	.cfi_offset r7, -8
	.pad	#16
	sub	sp, #16
	.cfi_def_cfa_offset 24
	str	r0, [sp, #8]
.Ltmp130:
	.loc	1 604 30 prologue_end           @ rt-thread/components/dfs/src/dfs_posix.c:604:30
	ldr	r0, [sp, #8]
	.loc	1 604 14 is_stmt 0              @ rt-thread/components/dfs/src/dfs_posix.c:604:14
	bl	dfs_file_unlink
	.loc	1 604 12                        @ rt-thread/components/dfs/src/dfs_posix.c:604:12
	str	r0, [sp, #4]
.Ltmp131:
	.loc	1 605 9 is_stmt 1               @ rt-thread/components/dfs/src/dfs_posix.c:605:9
	ldr	r0, [sp, #4]
.Ltmp132:
	.loc	1 605 9 is_stmt 0               @ rt-thread/components/dfs/src/dfs_posix.c:605:9
	cmp.w	r0, #-1
	bgt	.LBB15_2
	b	.LBB15_1
.LBB15_1:
.Ltmp133:
	.loc	1 607 22 is_stmt 1              @ rt-thread/components/dfs/src/dfs_posix.c:607:22
	ldr	r0, [sp, #4]
	.loc	1 607 9 is_stmt 0               @ rt-thread/components/dfs/src/dfs_posix.c:607:9
	bl	rt_set_errno
	mov.w	r0, #-1
	.loc	1 609 9 is_stmt 1               @ rt-thread/components/dfs/src/dfs_posix.c:609:9
	str	r0, [sp, #12]
	b	.LBB15_3
.Ltmp134:
.LBB15_2:
	.loc	1 0 9 is_stmt 0                 @ rt-thread/components/dfs/src/dfs_posix.c:0:9
	movs	r0, #0
	.loc	1 612 5 is_stmt 1               @ rt-thread/components/dfs/src/dfs_posix.c:612:5
	str	r0, [sp, #12]
	b	.LBB15_3
.LBB15_3:
	.loc	1 613 1                         @ rt-thread/components/dfs/src/dfs_posix.c:613:1
	ldr	r0, [sp, #12]
	add	sp, #16
	pop	{r7, pc}
.Ltmp135:
.Lfunc_end15:
	.size	rmdir, .Lfunc_end15-rmdir
	.cfi_endproc
	.cantunwind
	.fnend
                                        @ -- End function
	.section	.text.opendir,"ax",%progbits
	.hidden	opendir                         @ -- Begin function opendir
	.globl	opendir
	.p2align	3
	.type	opendir,%function
	.code	16                              @ @opendir
	.thumb_func
opendir:
.Lfunc_begin16:
	.loc	1 624 0                         @ rt-thread/components/dfs/src/dfs_posix.c:624:0
	.fnstart
	.cfi_startproc
@ %bb.0:
	.save	{r7, lr}
	push	{r7, lr}
	.cfi_def_cfa_offset 8
	.cfi_offset lr, -4
	.cfi_offset r7, -8
	.pad	#24
	sub	sp, #24
	.cfi_def_cfa_offset 32
	str	r0, [sp, #16]
	movs	r0, #0
.Ltmp136:
	.loc	1 629 7 prologue_end            @ rt-thread/components/dfs/src/dfs_posix.c:629:7
	str	r0, [sp]
	.loc	1 632 10                        @ rt-thread/components/dfs/src/dfs_posix.c:632:10
	bl	fd_new
	.loc	1 632 8 is_stmt 0               @ rt-thread/components/dfs/src/dfs_posix.c:632:8
	str	r0, [sp, #8]
.Ltmp137:
	.loc	1 633 9 is_stmt 1               @ rt-thread/components/dfs/src/dfs_posix.c:633:9
	ldr	r0, [sp, #8]
.Ltmp138:
	.loc	1 633 9 is_stmt 0               @ rt-thread/components/dfs/src/dfs_posix.c:633:9
	adds	r0, #1
	cbnz	r0, .LBB16_2
	b	.LBB16_1
.LBB16_1:
	.loc	1 0 9                           @ rt-thread/components/dfs/src/dfs_posix.c:0:9
	mvn	r0, #11
.Ltmp139:
	.loc	1 635 9 is_stmt 1               @ rt-thread/components/dfs/src/dfs_posix.c:635:9
	bl	rt_set_errno
	movs	r0, #0
	.loc	1 637 9                         @ rt-thread/components/dfs/src/dfs_posix.c:637:9
	str	r0, [sp, #20]
	b	.LBB16_8
.Ltmp140:
.LBB16_2:
	.loc	1 639 16                        @ rt-thread/components/dfs/src/dfs_posix.c:639:16
	ldr	r0, [sp, #8]
	.loc	1 639 9 is_stmt 0               @ rt-thread/components/dfs/src/dfs_posix.c:639:9
	bl	fd_get
	.loc	1 639 7                         @ rt-thread/components/dfs/src/dfs_posix.c:639:7
	str	r0, [sp, #12]
	.loc	1 641 28 is_stmt 1              @ rt-thread/components/dfs/src/dfs_posix.c:641:28
	ldr	r0, [sp, #12]
	.loc	1 641 31 is_stmt 0              @ rt-thread/components/dfs/src/dfs_posix.c:641:31
	ldr	r1, [sp, #16]
	mov.w	r2, #65536
	.loc	1 641 14                        @ rt-thread/components/dfs/src/dfs_posix.c:641:14
	bl	dfs_file_open
	.loc	1 641 12                        @ rt-thread/components/dfs/src/dfs_posix.c:641:12
	str	r0, [sp, #4]
.Ltmp141:
	.loc	1 642 9 is_stmt 1               @ rt-thread/components/dfs/src/dfs_posix.c:642:9
	ldr	r0, [sp, #4]
.Ltmp142:
	.loc	1 642 9 is_stmt 0               @ rt-thread/components/dfs/src/dfs_posix.c:642:9
	cmp	r0, #0
	bmi	.LBB16_7
	b	.LBB16_3
.LBB16_3:
	.loc	1 0 9                           @ rt-thread/components/dfs/src/dfs_posix.c:0:9
	mov.w	r0, #524
.Ltmp143:
	.loc	1 645 21 is_stmt 1              @ rt-thread/components/dfs/src/dfs_posix.c:645:21
	bl	rt_malloc
	.loc	1 645 11 is_stmt 0              @ rt-thread/components/dfs/src/dfs_posix.c:645:11
	str	r0, [sp]
.Ltmp144:
	.loc	1 646 13 is_stmt 1              @ rt-thread/components/dfs/src/dfs_posix.c:646:13
	ldr	r0, [sp]
.Ltmp145:
	.loc	1 646 13 is_stmt 0              @ rt-thread/components/dfs/src/dfs_posix.c:646:13
	cbnz	r0, .LBB16_5
	b	.LBB16_4
.LBB16_4:
.Ltmp146:
	.loc	1 648 28 is_stmt 1              @ rt-thread/components/dfs/src/dfs_posix.c:648:28
	ldr	r0, [sp, #12]
	.loc	1 648 13 is_stmt 0              @ rt-thread/components/dfs/src/dfs_posix.c:648:13
	bl	dfs_file_close
	.loc	1 649 20 is_stmt 1              @ rt-thread/components/dfs/src/dfs_posix.c:649:20
	ldr	r0, [sp, #12]
	.loc	1 649 13 is_stmt 0              @ rt-thread/components/dfs/src/dfs_posix.c:649:13
	bl	fd_put
	.loc	1 650 9 is_stmt 1               @ rt-thread/components/dfs/src/dfs_posix.c:650:9
	b	.LBB16_6
.Ltmp147:
.LBB16_5:
	.loc	1 653 20                        @ rt-thread/components/dfs/src/dfs_posix.c:653:20
	ldr	r0, [sp]
	mov.w	r1, #524
	.loc	1 653 13 is_stmt 0              @ rt-thread/components/dfs/src/dfs_posix.c:653:13
	bl	__aeabi_memclr4
	.loc	1 655 21 is_stmt 1              @ rt-thread/components/dfs/src/dfs_posix.c:655:21
	ldr	r0, [sp, #8]
	.loc	1 655 13 is_stmt 0              @ rt-thread/components/dfs/src/dfs_posix.c:655:13
	ldr	r1, [sp]
	.loc	1 655 19                        @ rt-thread/components/dfs/src/dfs_posix.c:655:19
	str	r0, [r1]
	b	.LBB16_6
.Ltmp148:
.LBB16_6:
	.loc	1 657 16 is_stmt 1              @ rt-thread/components/dfs/src/dfs_posix.c:657:16
	ldr	r0, [sp, #12]
	.loc	1 657 9 is_stmt 0               @ rt-thread/components/dfs/src/dfs_posix.c:657:9
	bl	fd_put
	.loc	1 659 16 is_stmt 1              @ rt-thread/components/dfs/src/dfs_posix.c:659:16
	ldr	r0, [sp]
	.loc	1 659 9 is_stmt 0               @ rt-thread/components/dfs/src/dfs_posix.c:659:9
	str	r0, [sp, #20]
	b	.LBB16_8
.Ltmp149:
.LBB16_7:
	.loc	1 663 12 is_stmt 1              @ rt-thread/components/dfs/src/dfs_posix.c:663:12
	ldr	r0, [sp, #12]
	.loc	1 663 5 is_stmt 0               @ rt-thread/components/dfs/src/dfs_posix.c:663:5
	bl	fd_put
	.loc	1 664 12 is_stmt 1              @ rt-thread/components/dfs/src/dfs_posix.c:664:12
	ldr	r0, [sp, #12]
	.loc	1 664 5 is_stmt 0               @ rt-thread/components/dfs/src/dfs_posix.c:664:5
	bl	fd_put
	.loc	1 665 18 is_stmt 1              @ rt-thread/components/dfs/src/dfs_posix.c:665:18
	ldr	r0, [sp, #4]
	.loc	1 665 5 is_stmt 0               @ rt-thread/components/dfs/src/dfs_posix.c:665:5
	bl	rt_set_errno
	movs	r0, #0
	.loc	1 667 5 is_stmt 1               @ rt-thread/components/dfs/src/dfs_posix.c:667:5
	str	r0, [sp, #20]
	b	.LBB16_8
.LBB16_8:
	.loc	1 668 1                         @ rt-thread/components/dfs/src/dfs_posix.c:668:1
	ldr	r0, [sp, #20]
	add	sp, #24
	pop	{r7, pc}
.Ltmp150:
.Lfunc_end16:
	.size	opendir, .Lfunc_end16-opendir
	.cfi_endproc
	.cantunwind
	.fnend
                                        @ -- End function
	.section	.text.readdir,"ax",%progbits
	.hidden	readdir                         @ -- Begin function readdir
	.globl	readdir
	.p2align	3
	.type	readdir,%function
	.code	16                              @ @readdir
	.thumb_func
readdir:
.Lfunc_begin17:
	.loc	1 681 0                         @ rt-thread/components/dfs/src/dfs_posix.c:681:0
	.fnstart
	.cfi_startproc
@ %bb.0:
	.save	{r7, lr}
	push	{r7, lr}
	.cfi_def_cfa_offset 8
	.cfi_offset lr, -4
	.cfi_offset r7, -8
	.pad	#24
	sub	sp, #24
	.cfi_def_cfa_offset 32
	str	r0, [sp, #16]
.Ltmp151:
	.loc	1 685 17 prologue_end           @ rt-thread/components/dfs/src/dfs_posix.c:685:17
	ldr	r0, [sp, #16]
	.loc	1 685 20 is_stmt 0              @ rt-thread/components/dfs/src/dfs_posix.c:685:20
	ldr	r0, [r0]
	.loc	1 685 10                        @ rt-thread/components/dfs/src/dfs_posix.c:685:10
	bl	fd_get
	.loc	1 685 8                         @ rt-thread/components/dfs/src/dfs_posix.c:685:8
	str	r0, [sp, #8]
.Ltmp152:
	.loc	1 686 9 is_stmt 1               @ rt-thread/components/dfs/src/dfs_posix.c:686:9
	ldr	r0, [sp, #8]
.Ltmp153:
	.loc	1 686 9 is_stmt 0               @ rt-thread/components/dfs/src/dfs_posix.c:686:9
	cbnz	r0, .LBB17_2
	b	.LBB17_1
.LBB17_1:
	.loc	1 0 9                           @ rt-thread/components/dfs/src/dfs_posix.c:0:9
	mvn	r0, #8
.Ltmp154:
	.loc	1 688 9 is_stmt 1               @ rt-thread/components/dfs/src/dfs_posix.c:688:9
	bl	rt_set_errno
	movs	r0, #0
	.loc	1 689 9                         @ rt-thread/components/dfs/src/dfs_posix.c:689:9
	str	r0, [sp, #20]
	b	.LBB17_10
.Ltmp155:
.LBB17_2:
	.loc	1 692 9                         @ rt-thread/components/dfs/src/dfs_posix.c:692:9
	ldr	r0, [sp, #16]
	.loc	1 692 12 is_stmt 0              @ rt-thread/components/dfs/src/dfs_posix.c:692:12
	ldr.w	r0, [r0, #516]
.Ltmp156:
	.loc	1 692 9                         @ rt-thread/components/dfs/src/dfs_posix.c:692:9
	cbz	r0, .LBB17_4
	b	.LBB17_3
.LBB17_3:
.Ltmp157:
	.loc	1 695 40 is_stmt 1              @ rt-thread/components/dfs/src/dfs_posix.c:695:40
	ldr	r0, [sp, #16]
	.loc	1 695 50 is_stmt 0              @ rt-thread/components/dfs/src/dfs_posix.c:695:50
	ldr.w	r1, [r0, #520]
	.loc	1 695 43                        @ rt-thread/components/dfs/src/dfs_posix.c:695:43
	add	r0, r1
	.loc	1 695 40                        @ rt-thread/components/dfs/src/dfs_posix.c:695:40
	adds	r0, #4
	.loc	1 695 20                        @ rt-thread/components/dfs/src/dfs_posix.c:695:20
	str	r0, [sp, #4]
	.loc	1 696 19 is_stmt 1              @ rt-thread/components/dfs/src/dfs_posix.c:696:19
	ldr	r0, [sp, #4]
	.loc	1 696 31 is_stmt 0              @ rt-thread/components/dfs/src/dfs_posix.c:696:31
	ldrh	r2, [r0, #2]
	.loc	1 696 9                         @ rt-thread/components/dfs/src/dfs_posix.c:696:9
	ldr	r1, [sp, #16]
	.loc	1 696 16                        @ rt-thread/components/dfs/src/dfs_posix.c:696:16
	ldr.w	r0, [r1, #520]
	add	r0, r2
	str.w	r0, [r1, #520]
	.loc	1 697 5 is_stmt 1               @ rt-thread/components/dfs/src/dfs_posix.c:697:5
	b	.LBB17_4
.Ltmp158:
.LBB17_4:
	.loc	1 699 10                        @ rt-thread/components/dfs/src/dfs_posix.c:699:10
	ldr	r0, [sp, #16]
	.loc	1 699 13 is_stmt 0              @ rt-thread/components/dfs/src/dfs_posix.c:699:13
	ldr.w	r0, [r0, #516]
	.loc	1 699 17                        @ rt-thread/components/dfs/src/dfs_posix.c:699:17
	cbz	r0, .LBB17_6
	b	.LBB17_5
.LBB17_5:
	.loc	1 699 20                        @ rt-thread/components/dfs/src/dfs_posix.c:699:20
	ldr	r0, [sp, #16]
	.loc	1 699 33                        @ rt-thread/components/dfs/src/dfs_posix.c:699:33
	ldr.w	r1, [r0, #516]
	.loc	1 699 23                        @ rt-thread/components/dfs/src/dfs_posix.c:699:23
	ldr.w	r0, [r0, #520]
.Ltmp159:
	.loc	1 699 9                         @ rt-thread/components/dfs/src/dfs_posix.c:699:9
	cmp	r0, r1
	blt	.LBB17_9
	b	.LBB17_6
.LBB17_6:
.Ltmp160:
	.loc	1 702 36 is_stmt 1              @ rt-thread/components/dfs/src/dfs_posix.c:702:36
	ldr	r0, [sp, #8]
	.loc	1 703 53                        @ rt-thread/components/dfs/src/dfs_posix.c:703:53
	ldr	r1, [sp, #16]
	.loc	1 703 56 is_stmt 0              @ rt-thread/components/dfs/src/dfs_posix.c:703:56
	adds	r1, #4
	movw	r2, #511
	.loc	1 702 18 is_stmt 1              @ rt-thread/components/dfs/src/dfs_posix.c:702:18
	bl	dfs_file_getdents
	.loc	1 702 16 is_stmt 0              @ rt-thread/components/dfs/src/dfs_posix.c:702:16
	str	r0, [sp, #12]
.Ltmp161:
	.loc	1 705 13 is_stmt 1              @ rt-thread/components/dfs/src/dfs_posix.c:705:13
	ldr	r0, [sp, #12]
.Ltmp162:
	.loc	1 705 13 is_stmt 0              @ rt-thread/components/dfs/src/dfs_posix.c:705:13
	cmp	r0, #0
	bgt	.LBB17_8
	b	.LBB17_7
.LBB17_7:
.Ltmp163:
	.loc	1 707 20 is_stmt 1              @ rt-thread/components/dfs/src/dfs_posix.c:707:20
	ldr	r0, [sp, #8]
	.loc	1 707 13 is_stmt 0              @ rt-thread/components/dfs/src/dfs_posix.c:707:13
	bl	fd_put
	.loc	1 708 26 is_stmt 1              @ rt-thread/components/dfs/src/dfs_posix.c:708:26
	ldr	r0, [sp, #12]
	.loc	1 708 13 is_stmt 0              @ rt-thread/components/dfs/src/dfs_posix.c:708:13
	bl	rt_set_errno
	movs	r0, #0
	.loc	1 710 13 is_stmt 1              @ rt-thread/components/dfs/src/dfs_posix.c:710:13
	str	r0, [sp, #20]
	b	.LBB17_10
.Ltmp164:
.LBB17_8:
	.loc	1 713 18                        @ rt-thread/components/dfs/src/dfs_posix.c:713:18
	ldr	r0, [sp, #12]
	.loc	1 713 9 is_stmt 0               @ rt-thread/components/dfs/src/dfs_posix.c:713:9
	ldr	r1, [sp, #16]
	.loc	1 713 16                        @ rt-thread/components/dfs/src/dfs_posix.c:713:16
	str.w	r0, [r1, #516]
	.loc	1 714 9 is_stmt 1               @ rt-thread/components/dfs/src/dfs_posix.c:714:9
	ldr	r1, [sp, #16]
	movs	r0, #0
	.loc	1 714 16 is_stmt 0              @ rt-thread/components/dfs/src/dfs_posix.c:714:16
	str.w	r0, [r1, #520]
	.loc	1 715 5 is_stmt 1               @ rt-thread/components/dfs/src/dfs_posix.c:715:5
	b	.LBB17_9
.Ltmp165:
.LBB17_9:
	.loc	1 717 12                        @ rt-thread/components/dfs/src/dfs_posix.c:717:12
	ldr	r0, [sp, #8]
	.loc	1 717 5 is_stmt 0               @ rt-thread/components/dfs/src/dfs_posix.c:717:5
	bl	fd_put
	.loc	1 719 30 is_stmt 1              @ rt-thread/components/dfs/src/dfs_posix.c:719:30
	ldr	r0, [sp, #16]
	.loc	1 719 42 is_stmt 0              @ rt-thread/components/dfs/src/dfs_posix.c:719:42
	ldr.w	r1, [r0, #520]
	.loc	1 719 33                        @ rt-thread/components/dfs/src/dfs_posix.c:719:33
	add	r0, r1
	.loc	1 719 37                        @ rt-thread/components/dfs/src/dfs_posix.c:719:37
	adds	r0, #4
	.loc	1 719 5                         @ rt-thread/components/dfs/src/dfs_posix.c:719:5
	str	r0, [sp, #20]
	b	.LBB17_10
.LBB17_10:
	.loc	1 720 1 is_stmt 1               @ rt-thread/components/dfs/src/dfs_posix.c:720:1
	ldr	r0, [sp, #20]
	add	sp, #24
	pop	{r7, pc}
.Ltmp166:
.Lfunc_end17:
	.size	readdir, .Lfunc_end17-readdir
	.cfi_endproc
	.cantunwind
	.fnend
                                        @ -- End function
	.section	.text.telldir,"ax",%progbits
	.hidden	telldir                         @ -- Begin function telldir
	.globl	telldir
	.p2align	3
	.type	telldir,%function
	.code	16                              @ @telldir
	.thumb_func
telldir:
.Lfunc_begin18:
	.loc	1 732 0                         @ rt-thread/components/dfs/src/dfs_posix.c:732:0
	.fnstart
	.cfi_startproc
@ %bb.0:
	.save	{r7, lr}
	push	{r7, lr}
	.cfi_def_cfa_offset 8
	.cfi_offset lr, -4
	.cfi_offset r7, -8
	.pad	#16
	sub	sp, #16
	.cfi_def_cfa_offset 24
	str	r0, [sp, #8]
.Ltmp167:
	.loc	1 736 17 prologue_end           @ rt-thread/components/dfs/src/dfs_posix.c:736:17
	ldr	r0, [sp, #8]
	.loc	1 736 20 is_stmt 0              @ rt-thread/components/dfs/src/dfs_posix.c:736:20
	ldr	r0, [r0]
	.loc	1 736 10                        @ rt-thread/components/dfs/src/dfs_posix.c:736:10
	bl	fd_get
	.loc	1 736 8                         @ rt-thread/components/dfs/src/dfs_posix.c:736:8
	str	r0, [sp, #4]
.Ltmp168:
	.loc	1 737 9 is_stmt 1               @ rt-thread/components/dfs/src/dfs_posix.c:737:9
	ldr	r0, [sp, #4]
.Ltmp169:
	.loc	1 737 9 is_stmt 0               @ rt-thread/components/dfs/src/dfs_posix.c:737:9
	cbnz	r0, .LBB18_2
	b	.LBB18_1
.LBB18_1:
	.loc	1 0 9                           @ rt-thread/components/dfs/src/dfs_posix.c:0:9
	mvn	r0, #8
.Ltmp170:
	.loc	1 739 9 is_stmt 1               @ rt-thread/components/dfs/src/dfs_posix.c:739:9
	bl	rt_set_errno
	movs	r0, #0
	.loc	1 741 9                         @ rt-thread/components/dfs/src/dfs_posix.c:741:9
	str	r0, [sp, #12]
	b	.LBB18_3
.Ltmp171:
.LBB18_2:
	.loc	1 744 14                        @ rt-thread/components/dfs/src/dfs_posix.c:744:14
	ldr	r0, [sp, #4]
	.loc	1 744 18 is_stmt 0              @ rt-thread/components/dfs/src/dfs_posix.c:744:18
	ldr	r0, [r0, #28]
	.loc	1 744 24                        @ rt-thread/components/dfs/src/dfs_posix.c:744:24
	ldr	r1, [sp, #8]
	.loc	1 744 27                        @ rt-thread/components/dfs/src/dfs_posix.c:744:27
	ldr.w	r2, [r1, #516]
	.loc	1 744 36                        @ rt-thread/components/dfs/src/dfs_posix.c:744:36
	ldr.w	r1, [r1, #520]
	.loc	1 744 22                        @ rt-thread/components/dfs/src/dfs_posix.c:744:22
	subs	r0, r0, r2
	.loc	1 744 31                        @ rt-thread/components/dfs/src/dfs_posix.c:744:31
	add	r0, r1
	.loc	1 744 12                        @ rt-thread/components/dfs/src/dfs_posix.c:744:12
	str	r0, [sp]
	.loc	1 745 12 is_stmt 1              @ rt-thread/components/dfs/src/dfs_posix.c:745:12
	ldr	r0, [sp, #4]
	.loc	1 745 5 is_stmt 0               @ rt-thread/components/dfs/src/dfs_posix.c:745:5
	bl	fd_put
	.loc	1 747 12 is_stmt 1              @ rt-thread/components/dfs/src/dfs_posix.c:747:12
	ldr	r0, [sp]
	.loc	1 747 5 is_stmt 0               @ rt-thread/components/dfs/src/dfs_posix.c:747:5
	str	r0, [sp, #12]
	b	.LBB18_3
.LBB18_3:
	.loc	1 748 1 is_stmt 1               @ rt-thread/components/dfs/src/dfs_posix.c:748:1
	ldr	r0, [sp, #12]
	add	sp, #16
	pop	{r7, pc}
.Ltmp172:
.Lfunc_end18:
	.size	telldir, .Lfunc_end18-telldir
	.cfi_endproc
	.cantunwind
	.fnend
                                        @ -- End function
	.section	.text.seekdir,"ax",%progbits
	.hidden	seekdir                         @ -- Begin function seekdir
	.globl	seekdir
	.p2align	3
	.type	seekdir,%function
	.code	16                              @ @seekdir
	.thumb_func
seekdir:
.Lfunc_begin19:
	.loc	1 759 0                         @ rt-thread/components/dfs/src/dfs_posix.c:759:0
	.fnstart
	.cfi_startproc
@ %bb.0:
	.save	{r7, lr}
	push	{r7, lr}
	.cfi_def_cfa_offset 8
	.cfi_offset lr, -4
	.cfi_offset r7, -8
	.pad	#16
	sub	sp, #16
	.cfi_def_cfa_offset 24
	str	r0, [sp, #12]
	str	r1, [sp, #8]
.Ltmp173:
	.loc	1 762 17 prologue_end           @ rt-thread/components/dfs/src/dfs_posix.c:762:17
	ldr	r0, [sp, #12]
	.loc	1 762 20 is_stmt 0              @ rt-thread/components/dfs/src/dfs_posix.c:762:20
	ldr	r0, [r0]
	.loc	1 762 10                        @ rt-thread/components/dfs/src/dfs_posix.c:762:10
	bl	fd_get
	.loc	1 762 8                         @ rt-thread/components/dfs/src/dfs_posix.c:762:8
	str	r0, [sp, #4]
.Ltmp174:
	.loc	1 763 9 is_stmt 1               @ rt-thread/components/dfs/src/dfs_posix.c:763:9
	ldr	r0, [sp, #4]
.Ltmp175:
	.loc	1 763 9 is_stmt 0               @ rt-thread/components/dfs/src/dfs_posix.c:763:9
	cbnz	r0, .LBB19_2
	b	.LBB19_1
.LBB19_1:
	.loc	1 0 9                           @ rt-thread/components/dfs/src/dfs_posix.c:0:9
	mvn	r0, #8
.Ltmp176:
	.loc	1 765 9 is_stmt 1               @ rt-thread/components/dfs/src/dfs_posix.c:765:9
	bl	rt_set_errno
	.loc	1 767 9                         @ rt-thread/components/dfs/src/dfs_posix.c:767:9
	b	.LBB19_5
.Ltmp177:
.LBB19_2:
	.loc	1 771 24                        @ rt-thread/components/dfs/src/dfs_posix.c:771:24
	ldr	r0, [sp, #4]
	.loc	1 771 28 is_stmt 0              @ rt-thread/components/dfs/src/dfs_posix.c:771:28
	ldr	r1, [sp, #8]
	.loc	1 771 9                         @ rt-thread/components/dfs/src/dfs_posix.c:771:9
	bl	dfs_file_lseek
.Ltmp178:
	.loc	1 771 9                         @ rt-thread/components/dfs/src/dfs_posix.c:771:9
	cmp	r0, #0
	bmi	.LBB19_4
	b	.LBB19_3
.LBB19_3:
.Ltmp179:
	.loc	1 772 18 is_stmt 1              @ rt-thread/components/dfs/src/dfs_posix.c:772:18
	ldr	r1, [sp, #12]
	movs	r0, #0
	.loc	1 772 25 is_stmt 0              @ rt-thread/components/dfs/src/dfs_posix.c:772:25
	str.w	r0, [r1, #520]
	.loc	1 772 9                         @ rt-thread/components/dfs/src/dfs_posix.c:772:9
	ldr	r1, [sp, #12]
	.loc	1 772 16                        @ rt-thread/components/dfs/src/dfs_posix.c:772:16
	str.w	r0, [r1, #516]
	.loc	1 772 9                         @ rt-thread/components/dfs/src/dfs_posix.c:772:9
	b	.LBB19_4
.Ltmp180:
.LBB19_4:
	.loc	1 773 12 is_stmt 1              @ rt-thread/components/dfs/src/dfs_posix.c:773:12
	ldr	r0, [sp, #4]
	.loc	1 773 5 is_stmt 0               @ rt-thread/components/dfs/src/dfs_posix.c:773:5
	bl	fd_put
	.loc	1 774 1 is_stmt 1               @ rt-thread/components/dfs/src/dfs_posix.c:774:1
	b	.LBB19_5
.LBB19_5:
	add	sp, #16
	pop	{r7, pc}
.Ltmp181:
.Lfunc_end19:
	.size	seekdir, .Lfunc_end19-seekdir
	.cfi_endproc
	.cantunwind
	.fnend
                                        @ -- End function
	.section	.text.rewinddir,"ax",%progbits
	.hidden	rewinddir                       @ -- Begin function rewinddir
	.globl	rewinddir
	.p2align	3
	.type	rewinddir,%function
	.code	16                              @ @rewinddir
	.thumb_func
rewinddir:
.Lfunc_begin20:
	.loc	1 784 0                         @ rt-thread/components/dfs/src/dfs_posix.c:784:0
	.fnstart
	.cfi_startproc
@ %bb.0:
	.save	{r7, lr}
	push	{r7, lr}
	.cfi_def_cfa_offset 8
	.cfi_offset lr, -4
	.cfi_offset r7, -8
	.pad	#8
	sub	sp, #8
	.cfi_def_cfa_offset 16
	str	r0, [sp, #4]
.Ltmp182:
	.loc	1 787 17 prologue_end           @ rt-thread/components/dfs/src/dfs_posix.c:787:17
	ldr	r0, [sp, #4]
	.loc	1 787 20 is_stmt 0              @ rt-thread/components/dfs/src/dfs_posix.c:787:20
	ldr	r0, [r0]
	.loc	1 787 10                        @ rt-thread/components/dfs/src/dfs_posix.c:787:10
	bl	fd_get
	.loc	1 787 8                         @ rt-thread/components/dfs/src/dfs_posix.c:787:8
	str	r0, [sp]
.Ltmp183:
	.loc	1 788 9 is_stmt 1               @ rt-thread/components/dfs/src/dfs_posix.c:788:9
	ldr	r0, [sp]
.Ltmp184:
	.loc	1 788 9 is_stmt 0               @ rt-thread/components/dfs/src/dfs_posix.c:788:9
	cbnz	r0, .LBB20_2
	b	.LBB20_1
.LBB20_1:
	.loc	1 0 9                           @ rt-thread/components/dfs/src/dfs_posix.c:0:9
	mvn	r0, #8
.Ltmp185:
	.loc	1 790 9 is_stmt 1               @ rt-thread/components/dfs/src/dfs_posix.c:790:9
	bl	rt_set_errno
	.loc	1 792 9                         @ rt-thread/components/dfs/src/dfs_posix.c:792:9
	b	.LBB20_5
.Ltmp186:
.LBB20_2:
	.loc	1 796 24                        @ rt-thread/components/dfs/src/dfs_posix.c:796:24
	ldr	r0, [sp]
	movs	r1, #0
	.loc	1 796 9 is_stmt 0               @ rt-thread/components/dfs/src/dfs_posix.c:796:9
	bl	dfs_file_lseek
.Ltmp187:
	.loc	1 796 9                         @ rt-thread/components/dfs/src/dfs_posix.c:796:9
	cmp	r0, #0
	bmi	.LBB20_4
	b	.LBB20_3
.LBB20_3:
.Ltmp188:
	.loc	1 797 18 is_stmt 1              @ rt-thread/components/dfs/src/dfs_posix.c:797:18
	ldr	r1, [sp, #4]
	movs	r0, #0
	.loc	1 797 25 is_stmt 0              @ rt-thread/components/dfs/src/dfs_posix.c:797:25
	str.w	r0, [r1, #520]
	.loc	1 797 9                         @ rt-thread/components/dfs/src/dfs_posix.c:797:9
	ldr	r1, [sp, #4]
	.loc	1 797 16                        @ rt-thread/components/dfs/src/dfs_posix.c:797:16
	str.w	r0, [r1, #516]
	.loc	1 797 9                         @ rt-thread/components/dfs/src/dfs_posix.c:797:9
	b	.LBB20_4
.Ltmp189:
.LBB20_4:
	.loc	1 798 12 is_stmt 1              @ rt-thread/components/dfs/src/dfs_posix.c:798:12
	ldr	r0, [sp]
	.loc	1 798 5 is_stmt 0               @ rt-thread/components/dfs/src/dfs_posix.c:798:5
	bl	fd_put
	.loc	1 799 1 is_stmt 1               @ rt-thread/components/dfs/src/dfs_posix.c:799:1
	b	.LBB20_5
.LBB20_5:
	add	sp, #8
	pop	{r7, pc}
.Ltmp190:
.Lfunc_end20:
	.size	rewinddir, .Lfunc_end20-rewinddir
	.cfi_endproc
	.cantunwind
	.fnend
                                        @ -- End function
	.section	.text.closedir,"ax",%progbits
	.hidden	closedir                        @ -- Begin function closedir
	.globl	closedir
	.p2align	3
	.type	closedir,%function
	.code	16                              @ @closedir
	.thumb_func
closedir:
.Lfunc_begin21:
	.loc	1 811 0                         @ rt-thread/components/dfs/src/dfs_posix.c:811:0
	.fnstart
	.cfi_startproc
@ %bb.0:
	.save	{r7, lr}
	push	{r7, lr}
	.cfi_def_cfa_offset 8
	.cfi_offset lr, -4
	.cfi_offset r7, -8
	.pad	#16
	sub	sp, #16
	.cfi_def_cfa_offset 24
	str	r0, [sp, #8]
.Ltmp191:
	.loc	1 815 17 prologue_end           @ rt-thread/components/dfs/src/dfs_posix.c:815:17
	ldr	r0, [sp, #8]
	.loc	1 815 20 is_stmt 0              @ rt-thread/components/dfs/src/dfs_posix.c:815:20
	ldr	r0, [r0]
	.loc	1 815 10                        @ rt-thread/components/dfs/src/dfs_posix.c:815:10
	bl	fd_get
	.loc	1 815 8                         @ rt-thread/components/dfs/src/dfs_posix.c:815:8
	str	r0, [sp]
.Ltmp192:
	.loc	1 816 9 is_stmt 1               @ rt-thread/components/dfs/src/dfs_posix.c:816:9
	ldr	r0, [sp]
.Ltmp193:
	.loc	1 816 9 is_stmt 0               @ rt-thread/components/dfs/src/dfs_posix.c:816:9
	cbnz	r0, .LBB21_2
	b	.LBB21_1
.LBB21_1:
	.loc	1 0 9                           @ rt-thread/components/dfs/src/dfs_posix.c:0:9
	mvn	r0, #8
.Ltmp194:
	.loc	1 818 9 is_stmt 1               @ rt-thread/components/dfs/src/dfs_posix.c:818:9
	bl	rt_set_errno
	mov.w	r0, #-1
	.loc	1 820 9                         @ rt-thread/components/dfs/src/dfs_posix.c:820:9
	str	r0, [sp, #12]
	b	.LBB21_5
.Ltmp195:
.LBB21_2:
	.loc	1 823 29                        @ rt-thread/components/dfs/src/dfs_posix.c:823:29
	ldr	r0, [sp]
	.loc	1 823 14 is_stmt 0              @ rt-thread/components/dfs/src/dfs_posix.c:823:14
	bl	dfs_file_close
	.loc	1 823 12                        @ rt-thread/components/dfs/src/dfs_posix.c:823:12
	str	r0, [sp, #4]
	.loc	1 824 12 is_stmt 1              @ rt-thread/components/dfs/src/dfs_posix.c:824:12
	ldr	r0, [sp]
	.loc	1 824 5 is_stmt 0               @ rt-thread/components/dfs/src/dfs_posix.c:824:5
	bl	fd_put
	.loc	1 826 12 is_stmt 1              @ rt-thread/components/dfs/src/dfs_posix.c:826:12
	ldr	r0, [sp]
	.loc	1 826 5 is_stmt 0               @ rt-thread/components/dfs/src/dfs_posix.c:826:5
	bl	fd_put
	.loc	1 827 13 is_stmt 1              @ rt-thread/components/dfs/src/dfs_posix.c:827:13
	ldr	r0, [sp, #8]
	.loc	1 827 5 is_stmt 0               @ rt-thread/components/dfs/src/dfs_posix.c:827:5
	bl	rt_free
.Ltmp196:
	.loc	1 829 9 is_stmt 1               @ rt-thread/components/dfs/src/dfs_posix.c:829:9
	ldr	r0, [sp, #4]
.Ltmp197:
	.loc	1 829 9 is_stmt 0               @ rt-thread/components/dfs/src/dfs_posix.c:829:9
	cmp.w	r0, #-1
	bgt	.LBB21_4
	b	.LBB21_3
.LBB21_3:
.Ltmp198:
	.loc	1 831 22 is_stmt 1              @ rt-thread/components/dfs/src/dfs_posix.c:831:22
	ldr	r0, [sp, #4]
	.loc	1 831 9 is_stmt 0               @ rt-thread/components/dfs/src/dfs_posix.c:831:9
	bl	rt_set_errno
	mov.w	r0, #-1
	.loc	1 833 9 is_stmt 1               @ rt-thread/components/dfs/src/dfs_posix.c:833:9
	str	r0, [sp, #12]
	b	.LBB21_5
.Ltmp199:
.LBB21_4:
	.loc	1 0 9 is_stmt 0                 @ rt-thread/components/dfs/src/dfs_posix.c:0:9
	movs	r0, #0
	.loc	1 836 9 is_stmt 1               @ rt-thread/components/dfs/src/dfs_posix.c:836:9
	str	r0, [sp, #12]
	b	.LBB21_5
.Ltmp200:
.LBB21_5:
	.loc	1 837 1                         @ rt-thread/components/dfs/src/dfs_posix.c:837:1
	ldr	r0, [sp, #12]
	add	sp, #16
	pop	{r7, pc}
.Ltmp201:
.Lfunc_end21:
	.size	closedir, .Lfunc_end21-closedir
	.cfi_endproc
	.cantunwind
	.fnend
                                        @ -- End function
	.section	.text.chdir,"ax",%progbits
	.hidden	chdir                           @ -- Begin function chdir
	.globl	chdir
	.p2align	3
	.type	chdir,%function
	.code	16                              @ @chdir
	.thumb_func
chdir:
.Lfunc_begin22:
	.loc	1 850 0                         @ rt-thread/components/dfs/src/dfs_posix.c:850:0
	.fnstart
	.cfi_startproc
@ %bb.0:
	.save	{r7, lr}
	push	{r7, lr}
	.cfi_def_cfa_offset 8
	.cfi_offset lr, -4
	.cfi_offset r7, -8
	.pad	#16
	sub	sp, #16
	.cfi_def_cfa_offset 24
	str	r0, [sp, #8]
.Ltmp202:
	.loc	1 854 9 prologue_end            @ rt-thread/components/dfs/src/dfs_posix.c:854:9
	ldr	r0, [sp, #8]
.Ltmp203:
	.loc	1 854 9 is_stmt 0               @ rt-thread/components/dfs/src/dfs_posix.c:854:9
	cbnz	r0, .LBB22_2
	b	.LBB22_1
.LBB22_1:
.Ltmp204:
	.loc	1 856 9 is_stmt 1               @ rt-thread/components/dfs/src/dfs_posix.c:856:9
	bl	dfs_lock
	.loc	1 857 9                         @ rt-thread/components/dfs/src/dfs_posix.c:857:9
	movw	r0, :lower16:.L.str
	movt	r0, :upper16:.L.str
	movw	r1, :lower16:working_directory
	movt	r1, :upper16:working_directory
	bl	rt_kprintf
	.loc	1 858 9                         @ rt-thread/components/dfs/src/dfs_posix.c:858:9
	bl	dfs_unlock
	movs	r0, #0
	.loc	1 860 9                         @ rt-thread/components/dfs/src/dfs_posix.c:860:9
	str	r0, [sp, #12]
	b	.LBB22_9
.Ltmp205:
.LBB22_2:
	.loc	1 863 16                        @ rt-thread/components/dfs/src/dfs_posix.c:863:16
	ldr	r0, [sp, #8]
	.loc	1 863 9 is_stmt 0               @ rt-thread/components/dfs/src/dfs_posix.c:863:9
	bl	strlen
.Ltmp206:
	.loc	1 863 9                         @ rt-thread/components/dfs/src/dfs_posix.c:863:9
	cmp.w	r0, #256
	bls	.LBB22_4
	b	.LBB22_3
.LBB22_3:
	.loc	1 0 9                           @ rt-thread/components/dfs/src/dfs_posix.c:0:9
	mvn	r0, #19
.Ltmp207:
	.loc	1 865 9 is_stmt 1               @ rt-thread/components/dfs/src/dfs_posix.c:865:9
	bl	rt_set_errno
	mov.w	r0, #-1
	.loc	1 867 9                         @ rt-thread/components/dfs/src/dfs_posix.c:867:9
	str	r0, [sp, #12]
	b	.LBB22_9
.Ltmp208:
.LBB22_4:
	.loc	1 870 41                        @ rt-thread/components/dfs/src/dfs_posix.c:870:41
	ldr	r1, [sp, #8]
	movs	r0, #0
	.loc	1 870 16 is_stmt 0              @ rt-thread/components/dfs/src/dfs_posix.c:870:16
	bl	dfs_normalize_path
	.loc	1 870 14                        @ rt-thread/components/dfs/src/dfs_posix.c:870:14
	str	r0, [sp, #4]
.Ltmp209:
	.loc	1 871 9 is_stmt 1               @ rt-thread/components/dfs/src/dfs_posix.c:871:9
	ldr	r0, [sp, #4]
.Ltmp210:
	.loc	1 871 9 is_stmt 0               @ rt-thread/components/dfs/src/dfs_posix.c:871:9
	cbnz	r0, .LBB22_6
	b	.LBB22_5
.LBB22_5:
	.loc	1 0 9                           @ rt-thread/components/dfs/src/dfs_posix.c:0:9
	mvn	r0, #19
.Ltmp211:
	.loc	1 873 9 is_stmt 1               @ rt-thread/components/dfs/src/dfs_posix.c:873:9
	bl	rt_set_errno
	mov.w	r0, #-1
	.loc	1 875 9                         @ rt-thread/components/dfs/src/dfs_posix.c:875:9
	str	r0, [sp, #12]
	b	.LBB22_9
.Ltmp212:
.LBB22_6:
	.loc	1 878 5                         @ rt-thread/components/dfs/src/dfs_posix.c:878:5
	bl	dfs_lock
	.loc	1 879 17                        @ rt-thread/components/dfs/src/dfs_posix.c:879:17
	ldr	r0, [sp, #4]
	.loc	1 879 9 is_stmt 0               @ rt-thread/components/dfs/src/dfs_posix.c:879:9
	bl	opendir
	.loc	1 879 7                         @ rt-thread/components/dfs/src/dfs_posix.c:879:7
	str	r0, [sp]
.Ltmp213:
	.loc	1 880 9 is_stmt 1               @ rt-thread/components/dfs/src/dfs_posix.c:880:9
	ldr	r0, [sp]
.Ltmp214:
	.loc	1 880 9 is_stmt 0               @ rt-thread/components/dfs/src/dfs_posix.c:880:9
	cbnz	r0, .LBB22_8
	b	.LBB22_7
.LBB22_7:
.Ltmp215:
	.loc	1 882 17 is_stmt 1              @ rt-thread/components/dfs/src/dfs_posix.c:882:17
	ldr	r0, [sp, #4]
	.loc	1 882 9 is_stmt 0               @ rt-thread/components/dfs/src/dfs_posix.c:882:9
	bl	rt_free
	.loc	1 884 9 is_stmt 1               @ rt-thread/components/dfs/src/dfs_posix.c:884:9
	bl	dfs_unlock
	mov.w	r0, #-1
	.loc	1 886 9                         @ rt-thread/components/dfs/src/dfs_posix.c:886:9
	str	r0, [sp, #12]
	b	.LBB22_9
.Ltmp216:
.LBB22_8:
	.loc	1 890 14                        @ rt-thread/components/dfs/src/dfs_posix.c:890:14
	ldr	r0, [sp]
	.loc	1 890 5 is_stmt 0               @ rt-thread/components/dfs/src/dfs_posix.c:890:5
	bl	closedir
	.loc	1 893 32 is_stmt 1              @ rt-thread/components/dfs/src/dfs_posix.c:893:32
	ldr	r1, [sp, #4]
	.loc	1 893 5 is_stmt 0               @ rt-thread/components/dfs/src/dfs_posix.c:893:5
	movw	r0, :lower16:working_directory
	movt	r0, :upper16:working_directory
	mov.w	r2, #256
	bl	strncpy
	.loc	1 895 13 is_stmt 1              @ rt-thread/components/dfs/src/dfs_posix.c:895:13
	ldr	r0, [sp, #4]
	.loc	1 895 5 is_stmt 0               @ rt-thread/components/dfs/src/dfs_posix.c:895:5
	bl	rt_free
	.loc	1 897 5 is_stmt 1               @ rt-thread/components/dfs/src/dfs_posix.c:897:5
	bl	dfs_unlock
	movs	r0, #0
	.loc	1 899 5                         @ rt-thread/components/dfs/src/dfs_posix.c:899:5
	str	r0, [sp, #12]
	b	.LBB22_9
.LBB22_9:
	.loc	1 900 1                         @ rt-thread/components/dfs/src/dfs_posix.c:900:1
	ldr	r0, [sp, #12]
	add	sp, #16
	pop	{r7, pc}
.Ltmp217:
.Lfunc_end22:
	.size	chdir, .Lfunc_end22-chdir
	.cfi_endproc
	.cantunwind
	.fnend
                                        @ -- End function
	.section	.text.access,"ax",%progbits
	.hidden	access                          @ -- Begin function access
	.globl	access
	.p2align	3
	.type	access,%function
	.code	16                              @ @access
	.thumb_func
access:
.Lfunc_begin23:
	.loc	1 918 0                         @ rt-thread/components/dfs/src/dfs_posix.c:918:0
	.fnstart
	.cfi_startproc
@ %bb.0:
	.save	{r7, lr}
	push	{r7, lr}
	.cfi_def_cfa_offset 8
	.cfi_offset lr, -4
	.cfi_offset r7, -8
	.pad	#80
	sub	sp, #80
	.cfi_def_cfa_offset 88
	str	r0, [sp, #72]
	str	r1, [sp, #68]
.Ltmp218:
	.loc	1 920 14 prologue_end           @ rt-thread/components/dfs/src/dfs_posix.c:920:14
	ldr	r0, [sp, #72]
	add	r1, sp, #4
	.loc	1 920 9 is_stmt 0               @ rt-thread/components/dfs/src/dfs_posix.c:920:9
	bl	stat
.Ltmp219:
	.loc	1 920 9                         @ rt-thread/components/dfs/src/dfs_posix.c:920:9
	cmp.w	r0, #-1
	bgt	.LBB23_2
	b	.LBB23_1
.LBB23_1:
	.loc	1 0 9                           @ rt-thread/components/dfs/src/dfs_posix.c:0:9
	mov.w	r0, #-1
.Ltmp220:
	.loc	1 921 9 is_stmt 1               @ rt-thread/components/dfs/src/dfs_posix.c:921:9
	str	r0, [sp, #76]
	b	.LBB23_3
.Ltmp221:
.LBB23_2:
	.loc	1 0 9 is_stmt 0                 @ rt-thread/components/dfs/src/dfs_posix.c:0:9
	movs	r0, #0
	.loc	1 924 5 is_stmt 1               @ rt-thread/components/dfs/src/dfs_posix.c:924:5
	str	r0, [sp, #76]
	b	.LBB23_3
.LBB23_3:
	.loc	1 925 1                         @ rt-thread/components/dfs/src/dfs_posix.c:925:1
	ldr	r0, [sp, #76]
	add	sp, #80
	pop	{r7, pc}
.Ltmp222:
.Lfunc_end23:
	.size	access, .Lfunc_end23-access
	.cfi_endproc
	.cantunwind
	.fnend
                                        @ -- End function
	.section	.text.getcwd,"ax",%progbits
	.hidden	getcwd                          @ -- Begin function getcwd
	.globl	getcwd
	.p2align	3
	.type	getcwd,%function
	.code	16                              @ @getcwd
	.thumb_func
getcwd:
.Lfunc_begin24:
	.loc	1 937 0                         @ rt-thread/components/dfs/src/dfs_posix.c:937:0
	.fnstart
	.cfi_startproc
@ %bb.0:
	.save	{r7, lr}
	push	{r7, lr}
	.cfi_def_cfa_offset 8
	.cfi_offset lr, -4
	.cfi_offset r7, -8
	.pad	#8
	sub	sp, #8
	.cfi_def_cfa_offset 16
	str	r0, [sp, #4]
	str	r1, [sp]
.Ltmp223:
	.loc	1 939 5 prologue_end            @ rt-thread/components/dfs/src/dfs_posix.c:939:5
	bl	dfs_lock
	.loc	1 940 13                        @ rt-thread/components/dfs/src/dfs_posix.c:940:13
	ldr	r0, [sp, #4]
	.loc	1 940 37 is_stmt 0              @ rt-thread/components/dfs/src/dfs_posix.c:940:37
	ldr	r2, [sp]
	.loc	1 940 5                         @ rt-thread/components/dfs/src/dfs_posix.c:940:5
	movw	r1, :lower16:working_directory
	movt	r1, :upper16:working_directory
	bl	strncpy
	.loc	1 941 5 is_stmt 1               @ rt-thread/components/dfs/src/dfs_posix.c:941:5
	bl	dfs_unlock
	.loc	1 946 12                        @ rt-thread/components/dfs/src/dfs_posix.c:946:12
	ldr	r0, [sp, #4]
	.loc	1 946 5 is_stmt 0               @ rt-thread/components/dfs/src/dfs_posix.c:946:5
	add	sp, #8
	pop	{r7, pc}
.Ltmp224:
.Lfunc_end24:
	.size	getcwd, .Lfunc_end24-getcwd
	.cfi_endproc
	.cantunwind
	.fnend
                                        @ -- End function
	.hidden	__fsym_mkdir_name               @ @__fsym_mkdir_name
	.type	__fsym_mkdir_name,%object
	.section	.rodata.name,"a",%progbits
	.globl	__fsym_mkdir_name
__fsym_mkdir_name:
	.asciz	"mkdir"
	.size	__fsym_mkdir_name, 6

	.hidden	__fsym_mkdir_desc               @ @__fsym_mkdir_desc
	.type	__fsym_mkdir_desc,%object
	.globl	__fsym_mkdir_desc
__fsym_mkdir_desc:
	.asciz	"create a directory"
	.size	__fsym_mkdir_desc, 19

	.hidden	__fsym_mkdir                    @ @__fsym_mkdir
	.type	__fsym_mkdir,%object
	.section	FSymTab,"a",%progbits
	.globl	__fsym_mkdir
	.p2align	2
__fsym_mkdir:
__tagsym$$used.0:
	.long	__fsym_mkdir_name
	.long	__fsym_mkdir_desc
	.long	mkdir
	.size	__fsym_mkdir, 12

	.type	.L.str,%object                  @ @.str
	.section	.rodata.str1.1,"aMS",%progbits,1
.L.str:
	.asciz	"%s\n"
	.size	.L.str, 4

	.hidden	__fsym_cd_name                  @ @__fsym_cd_name
	.type	__fsym_cd_name,%object
	.section	.rodata.name,"a",%progbits
	.globl	__fsym_cd_name
__fsym_cd_name:
	.asciz	"cd"
	.size	__fsym_cd_name, 3

	.hidden	__fsym_cd_desc                  @ @__fsym_cd_desc
	.type	__fsym_cd_desc,%object
	.globl	__fsym_cd_desc
__fsym_cd_desc:
	.asciz	"change current working directory"
	.size	__fsym_cd_desc, 33

	.hidden	__fsym_cd                       @ @__fsym_cd
	.type	__fsym_cd,%object
	.section	FSymTab,"a",%progbits
	.globl	__fsym_cd
	.p2align	2
__fsym_cd:
__tagsym$$used.1:
	.long	__fsym_cd_name
	.long	__fsym_cd_desc
	.long	chdir
	.size	__fsym_cd, 12

	.globl	__fsym_mkdir
	.globl	__fsym_cd
	.file	7 "E:\\Smart-access-control\\Hardware\\CODE" "rt-thread/include/rtlibc.h"
	.file	8 "E:\\Smart-access-control\\Hardware\\CODE" "rt-thread/components/dfs/include\\dfs_file.h"
	.file	9 "D:\\Keil_v5\\ARM\\ARMCLANG\\Bin\\..\\include" "stdio.h"
	.file	10 "E:\\Smart-access-control\\Hardware\\CODE" "rt-thread/components/drivers/include/ipc/poll.h"
	.file	11 "E:\\Smart-access-control\\Hardware\\CODE" "rt-thread/components/dfs/include\\dfs_fs.h"
	.file	12 "E:\\Smart-access-control\\Hardware\\CODE" "rt-thread/include/libc/libc_stat.h"
	.file	13 "D:\\Keil_v5\\ARM\\ARMCLANG\\Bin\\..\\include" "time.h"
	.file	14 "E:\\Smart-access-control\\Hardware\\CODE" "rt-thread/components/dfs/src\\dfs_posix.c"
	.file	15 "D:\\Keil_v5\\ARM\\ARMCLANG\\Bin\\..\\include" "stdarg.h"
	.section	".note.GNU-stack","",%progbits
	.eabi_attribute	30, 6	@ Tag_ABI_optimization_goals
	.ARM_attribute	16, 1	@ Tag_AV_eba