	.text
	.syntax unified
	.eabi_attribute	67, "2.09"	@ Tag_conformance
	.cpu	cortex-m7
	.eabi_attribute	6, 13	@ Tag_CPU_arch
	.eabi_attribute	7, 77	@ Tag_CPU_arch_profile
	.eabi_attribute	8, 0	@ Tag_ARM_ISA_use
	.eabi_attribute	9, 2	@ Tag_THUMB_ISA_use
	.fpu	fpv5-d16
	.eabi_attribute	36, 1	@ Tag_FP_HP_extension
	.eabi_attribute	34, 1	@ Tag_CPU_unaligned_access
	.eabi_attribute	17, 1	@ Tag_ABI_PCS_GOT_use
	.eabi_attribute	20, 2	@ Tag_ABI_FP_denormal
	.eabi_attribute	21, 0	@ Tag_ABI_FP_exceptions
	.eabi_attribute	23, 1	@ Tag_ABI_FP_number_model
	.eabi_attribute	24, 1	@ Tag_ABI_align_needed
	.eabi_attribute	25, 1	@ Tag_ABI_align_preserved
	.eabi_attribute	28, 1	@ Tag_ABI_VFP_args
	.eabi_attribute	38, 1	@ Tag_ABI_FP_16bit_format
	.eabi_attribute	18, 2	@ Tag_ABI_PCS_wchar_t
	.eabi_attribute	26, 1	@ Tag_ABI_enum_size
	.eabi_attribute	14, 0	@ Tag_ABI_PCS_R9_use
	.file	"dfs_fs.c"
	.file	1 "E:\\Smart-access-control\\Hardware\\CODE" "rt-thread/components/dfs/src/dfs_fs.c"
	.file	2 "E:\\Smart-access-control\\Hardware\\CODE" "rt-thread/components/finsh/finsh_api.h"
	.file	3 "E:\\Smart-access-control\\Hardware\\CODE" "rt-thread/include\\rtdef.h"
	.section	.text.dfs_register,"ax",%progbits
	.hidden	dfs_register                    @ -- Begin function dfs_register
	.globl	dfs_register
	.p2align	3
	.type	dfs_register,%function
	.code	16                              @ @dfs_register
	.thumb_func
dfs_register:
.Lfunc_begin0:
	.loc	1 32 0                          @ rt-thread/components/dfs/src/dfs_fs.c:32:0
	.fnstart
	.cfi_sections .debug_frame
	.cfi_startproc
@ %bb.0:
	@DEBUG_VALUE: dfs_register:ops <- $r0
	.save	{r4, r5, r6, r7, r8, lr}
	push.w	{r4, r5, r6, r7, r8, lr}
	.cfi_def_cfa_offset 24
	.cfi_offset lr, -4
	.cfi_offset r8, -8
	.cfi_offset r7, -12
	.cfi_offset r6, -16
	.cfi_offset r5, -20
	.cfi_offset r4, -24
	movw	r7, :lower16:filesystem_operation_table
	movs	r6, #0
	movt	r7, :upper16:filesystem_operation_table
	mov	r8, r0
.Ltmp0:
	@DEBUG_VALUE: dfs_register:ops <- $r8
	add.w	r4, r7, #24
	movs	r5, #0
	cmp	r7, r4
	it	lo
	movlo	r6, #1
.Ltmp1:
	@DEBUG_VALUE: dfs_register:empty <- 0
	@DEBUG_VALUE: dfs_register:ret <- 0
	@DEBUG_VALUE: dfs_register:iter <- $r7
	@DEBUG_VALUE: dfs_register:ops <- $r8
	.loc	1 38 5 prologue_end             @ rt-thread/components/dfs/src/dfs_fs.c:38:5
	bl	dfs_lock
.Ltmp2:
	.loc	1 40 5                          @ rt-thread/components/dfs/src/dfs_fs.c:40:5
	cmp	r7, r4
	bhs	.LBB0_7
.Ltmp3:
@ %bb.1:
	@DEBUG_VALUE: dfs_register:ops <- $r8
	@DEBUG_VALUE: dfs_register:iter <- $r7
	@DEBUG_VALUE: dfs_register:ret <- 0
	@DEBUG_VALUE: dfs_register:empty <- 0
	.loc	1 0 5 is_stmt 0                 @ rt-thread/components/dfs/src/dfs_fs.c:0:5
	mov.w	r6, #0
	it	lo
	movlo	r6, #1
	b	.LBB0_4
.Ltmp4:
	.p2align	2
.LBB0_2:                                @   in Loop: Header=BB0_4 Depth=1
	@DEBUG_VALUE: dfs_register:ops <- $r8
	@DEBUG_VALUE: dfs_register:iter <- $r7
	@DEBUG_VALUE: dfs_register:empty <- $r5
	@DEBUG_VALUE: dfs_register:ret <- 0
	.loc	1 45 13 is_stmt 1               @ rt-thread/components/dfs/src/dfs_fs.c:45:13
	cmp	r5, #0
	it	eq
	moveq	r5, r7
.Ltmp5:
.LBB0_3:                                @   in Loop: Header=BB0_4 Depth=1
	@DEBUG_VALUE: dfs_register:ops <- $r8
	@DEBUG_VALUE: dfs_register:iter <- $r7
	@DEBUG_VALUE: dfs_register:ret <- 0
	@DEBUG_VALUE: dfs_register:empty <- $r5
	.loc	1 41 80                         @ rt-thread/components/dfs/src/dfs_fs.c:41:80
	adds	r7, #4
.Ltmp6:
	@DEBUG_VALUE: dfs_register:iter <- $r7
	.loc	1 41 18 is_stmt 0               @ rt-thread/components/dfs/src/dfs_fs.c:41:18
	movs	r6, #0
	cmp	r7, r4
	it	lo
	movlo	r6, #1
	bhs	.LBB0_7
.Ltmp7:
.LBB0_4:                                @ =>This Inner Loop Header: Depth=1
	@DEBUG_VALUE: dfs_register:ops <- $r8
	@DEBUG_VALUE: dfs_register:iter <- $r7
	@DEBUG_VALUE: dfs_register:ret <- 0
	@DEBUG_VALUE: dfs_register:iter <- $r7
	@DEBUG_VALUE: dfs_register:empty <- $r5
	.loc	1 44 13 is_stmt 1               @ rt-thread/components/dfs/src/dfs_fs.c:44:13
	ldr	r0, [r7]
.Ltmp8:
	.loc	1 44 13 is_stmt 0               @ rt-thread/components/dfs/src/dfs_fs.c:44:13
	cmp	r0, #0
	beq	.LBB0_2
.Ltmp9:
@ %bb.5:                                @   in Loop: Header=BB0_4 Depth=1
	@DEBUG_VALUE: dfs_register:ops <- $r8
	@DEBUG_VALUE: dfs_register:iter <- $r7
	@DEBUG_VALUE: dfs_register:empty <- $r5
	@DEBUG_VALUE: dfs_register:ret <- 0
	.loc	1 46 34 is_stmt 1               @ rt-thread/components/dfs/src/dfs_fs.c:46:34
	ldr	r0, [r0]
	.loc	1 46 45 is_stmt 0               @ rt-thread/components/dfs/src/dfs_fs.c:46:45
	ldr.w	r1, [r8]
	.loc	1 46 18                         @ rt-thread/components/dfs/src/dfs_fs.c:46:18
	bl	strcmp
.Ltmp10:
	.loc	1 46 18                         @ rt-thread/components/dfs/src/dfs_fs.c:46:18
	cmp	r0, #0
	bne	.LBB0_3
.Ltmp11:
@ %bb.6:
	@DEBUG_VALUE: dfs_register:ops <- $r8
	@DEBUG_VALUE: dfs_register:iter <- $r7
	@DEBUG_VALUE: dfs_register:empty <- $r5
	@DEBUG_VALUE: dfs_register:ret <- 0
	.loc	1 48 13 is_stmt 1               @ rt-thread/components/dfs/src/dfs_fs.c:48:13
	mvn	r0, #16
	bl	rt_set_errno
.Ltmp12:
	@DEBUG_VALUE: dfs_register:ret <- -1
.LBB0_7:
	@DEBUG_VALUE: dfs_register:ops <- $r8
	@DEBUG_VALUE: dfs_register:iter <- $r7
	@DEBUG_VALUE: dfs_register:ret <- undef
	.loc	1 55 9                          @ rt-thread/components/dfs/src/dfs_fs.c:55:9
	cbz	r5, .LBB0_10
.Ltmp13:
@ %bb.8:
	@DEBUG_VALUE: dfs_register:ops <- $r8
	@DEBUG_VALUE: dfs_register:iter <- $r7
	.loc	1 61 14                         @ rt-thread/components/dfs/src/dfs_fs.c:61:14
	lsls	r0, r6, #31
	beq	.LBB0_11
.Ltmp14:
@ %bb.9:
	@DEBUG_VALUE: dfs_register:ops <- $r8
	@DEBUG_VALUE: dfs_register:iter <- $r7
	.loc	1 0 14 is_stmt 0                @ rt-thread/components/dfs/src/dfs_fs.c:0:14
	mov.w	r4, #-1
	b	.LBB0_12
.Ltmp15:
.LBB0_10:
	@DEBUG_VALUE: dfs_register:ops <- $r8
	@DEBUG_VALUE: dfs_register:iter <- $r7
	.loc	1 57 9 is_stmt 1                @ rt-thread/components/dfs/src/dfs_fs.c:57:9
	mvn	r0, #27
	bl	rt_set_errno
.Ltmp16:
	.loc	1 58 9                          @ rt-thread/components/dfs/src/dfs_fs.c:58:9
	movw	r0, :lower16:.L.str
	movt	r0, :upper16:.L.str
	bl	rt_kprintf
	ldr.w	r1, [r8]
	adr	r0, .LCPI0_0
	bl	rt_kprintf
	movw	r0, :lower16:.L.str.2
	movt	r0, :upper16:.L.str.2
	bl	rt_kprintf
	mov.w	r4, #-1
.Ltmp17:
	@DEBUG_VALUE: dfs_register:ret <- -1
	.loc	1 60 5                          @ rt-thread/components/dfs/src/dfs_fs.c:60:5
	b	.LBB0_12
.Ltmp18:
.LBB0_11:
	@DEBUG_VALUE: dfs_register:ops <- $r8
	@DEBUG_VALUE: dfs_register:iter <- $r7
	.loc	1 0 5 is_stmt 0                 @ rt-thread/components/dfs/src/dfs_fs.c:0:5
	movs	r4, #0
.Ltmp19:
	.loc	1 63 16 is_stmt 1               @ rt-thread/components/dfs/src/dfs_fs.c:63:16
	str.w	r8, [r5]
.Ltmp20:
.LBB0_12:
	@DEBUG_VALUE: dfs_register:ops <- $r8
	@DEBUG_VALUE: dfs_register:iter <- $r7
	@DEBUG_VALUE: dfs_register:ret <- $r4
	.loc	1 66 5                          @ rt-thread/components/dfs/src/dfs_fs.c:66:5
	bl	dfs_unlock
	.loc	1 67 5                          @ rt-thread/components/dfs/src/dfs_fs.c:67:5
	mov	r0, r4
	pop.w	{r4, r5, r6, r7, r8, pc}
.Ltmp21:
	.p2align	2
@ %bb.13:
	.loc	1 0 5 is_stmt 0                 @ rt-thread/components/dfs/src/dfs_fs.c:0:5
.LCPI0_0:
.L.str.1:
	.asciz	"There is no space to register this file system (%s).\000\000\000"
.Lfunc_end0:
	.size	dfs_register, .Lfunc_end0-dfs_register
	.cfi_endproc
	.cantunwind
	.fnend
                                        @ -- End function
	.section	.text.dfs_filesystem_lookup,"ax",%progbits
	.hidden	dfs_filesystem_lookup           @ -- Begin function dfs_filesystem_lookup
	.globl	dfs_filesystem_lookup
	.p2align	3
	.type	dfs_filesystem_lookup,%function
	.code	16                              @ @dfs_filesystem_lookup
	.thumb_func
dfs_filesystem_lookup:
.Lfunc_begin1:
	.loc	1 79 0 is_stmt 1                @ rt-thread/components/dfs/src/dfs_fs.c:79:0
	.fnstart
	.cfi_startproc
@ %bb.0:
	@DEBUG_VALUE: dfs_filesystem_lookup:path <- $r0
	.save	{r4, r5, r6, r7, r8, r9, r10, lr}
	push.w	{r4, r5, r6, r7, r8, r9, r10, lr}
	.cfi_def_cfa_offset 32
	.cfi_offset lr, -4
	.cfi_offset r10, -8
	.cfi_offset r9, -12
	.cfi_offset r8, -16
	.cfi_offset r7, -20
	.cfi_offset r6, -24
	.cfi_offset r5, -28
	.cfi_offset r4, -32
	mov	r9, r0
.Ltmp22:
	@DEBUG_VALUE: dfs_filesystem_lookup:prefixlen <- 0
	@DEBUG_VALUE: dfs_filesystem_lookup:fs <- 0
	@DEBUG_VALUE: dfs_filesystem_lookup:path <- $r9
	.loc	1 86 5 prologue_end             @ rt-thread/components/dfs/src/dfs_fs.c:86:5
	cbnz	r0, .LBB1_2
.Ltmp23:
@ %bb.1:
	@DEBUG_VALUE: dfs_filesystem_lookup:path <- $r9
	@DEBUG_VALUE: dfs_filesystem_lookup:fs <- 0
	@DEBUG_VALUE: dfs_filesystem_lookup:prefixlen <- 0
	.loc	1 86 5 is_stmt 0                @ rt-thread/components/dfs/src/dfs_fs.c:86:5
	adr	r0, .LCPI1_0
	adr	r1, .LCPI1_1
	movs	r2, #86
	bl	rt_assert_handler
.Ltmp24:
.LBB1_2:
	@DEBUG_VALUE: dfs_filesystem_lookup:path <- $r9
	@DEBUG_VALUE: dfs_filesystem_lookup:fs <- 0
	@DEBUG_VALUE: dfs_filesystem_lookup:prefixlen <- 0
	.loc	1 89 5 is_stmt 1                @ rt-thread/components/dfs/src/dfs_fs.c:89:5
	bl	dfs_lock
	@DEBUG_VALUE: dfs_filesystem_lookup:prefixlen <- 0
	@DEBUG_VALUE: dfs_filesystem_lookup:fs <- 0
.Ltmp25:
	.loc	1 92 5                          @ rt-thread/components/dfs/src/dfs_fs.c:92:5
	movw	r5, :lower16:filesystem_table
	movt	r5, :upper16:filesystem_table
.Ltmp26:
	@DEBUG_VALUE: dfs_filesystem_lookup:iter <- $r5
	add.w	r4, r5, #96
	cmp	r5, r4
	bhs	.LBB1_13
.Ltmp27:
@ %bb.3:
	@DEBUG_VALUE: dfs_filesystem_lookup:path <- $r9
	@DEBUG_VALUE: dfs_filesystem_lookup:iter <- $r5
	@DEBUG_VALUE: dfs_filesystem_lookup:fs <- 0
	@DEBUG_VALUE: dfs_filesystem_lookup:prefixlen <- 0
	.loc	1 0 5 is_stmt 0                 @ rt-thread/components/dfs/src/dfs_fs.c:0:5
	mov.w	r10, #0
	mov.w	r8, #0
	b	.LBB1_6
.Ltmp28:
.LBB1_4:                                @   in Loop: Header=BB1_6 Depth=1
	@DEBUG_VALUE: dfs_filesystem_lookup:prefixlen <- $r10
	@DEBUG_VALUE: dfs_filesystem_lookup:path <- $r9
	@DEBUG_VALUE: dfs_filesystem_lookup:fs <- $r8
	@DEBUG_VALUE: dfs_filesystem_lookup:fspath <- $r6
	@DEBUG_VALUE: dfs_filesystem_lookup:iter <- $r5
	@DEBUG_VALUE: dfs_filesystem_lookup:fs <- $r5
	@DEBUG_VALUE: dfs_filesystem_lookup:prefixlen <- $r6
	mov	r8, r5
	mov	r10, r6
.Ltmp29:
	@DEBUG_VALUE: dfs_filesystem_lookup:fspath <- $r10
	@DEBUG_VALUE: dfs_filesystem_lookup:prefixlen <- $r10
	.p2align	2
.LBB1_5:                                @   in Loop: Header=BB1_6 Depth=1
	@DEBUG_VALUE: dfs_filesystem_lookup:prefixlen <- $r10
	@DEBUG_VALUE: dfs_filesystem_lookup:path <- $r9
	@DEBUG_VALUE: dfs_filesystem_lookup:iter <- $r5
	@DEBUG_VALUE: dfs_filesystem_lookup:fs <- $r8
	@DEBUG_VALUE: dfs_filesystem_lookup:prefixlen <- $r10
	.loc	1 93 64 is_stmt 1               @ rt-thread/components/dfs/src/dfs_fs.c:93:64
	adds	r5, #16
.Ltmp30:
	@DEBUG_VALUE: dfs_filesystem_lookup:iter <- $r5
	.loc	1 92 5                          @ rt-thread/components/dfs/src/dfs_fs.c:92:5
	cmp	r5, r4
	bhs	.LBB1_14
.Ltmp31:
.LBB1_6:                                @ =>This Inner Loop Header: Depth=1
	@DEBUG_VALUE: dfs_filesystem_lookup:path <- $r9
	@DEBUG_VALUE: dfs_filesystem_lookup:iter <- $r5
	@DEBUG_VALUE: dfs_filesystem_lookup:fs <- $r8
	@DEBUG_VALUE: dfs_filesystem_lookup:prefixlen <- $r10
	@DEBUG_VALUE: dfs_filesystem_lookup:iter <- $r5
	.loc	1 95 20                         @ rt-thread/components/dfs/src/dfs_fs.c:95:20
	ldr	r7, [r5, #4]
	.loc	1 95 34 is_stmt 0               @ rt-thread/components/dfs/src/dfs_fs.c:95:34
	cmp	r7, #0
	beq	.LBB1_5
.Ltmp32:
@ %bb.7:                                @   in Loop: Header=BB1_6 Depth=1
	@DEBUG_VALUE: dfs_filesystem_lookup:prefixlen <- $r10
	@DEBUG_VALUE: dfs_filesystem_lookup:path <- $r9
	@DEBUG_VALUE: dfs_filesystem_lookup:fs <- $r8
	@DEBUG_VALUE: dfs_filesystem_lookup:iter <- $r5
	.loc	1 95 44                         @ rt-thread/components/dfs/src/dfs_fs.c:95:44
	ldr	r0, [r5, #8]
.Ltmp33:
	.loc	1 95 13                         @ rt-thread/components/dfs/src/dfs_fs.c:95:13
	cmp	r0, #0
	beq	.LBB1_5
.Ltmp34:
@ %bb.8:                                @   in Loop: Header=BB1_6 Depth=1
	@DEBUG_VALUE: dfs_filesystem_lookup:prefixlen <- $r10
	@DEBUG_VALUE: dfs_filesystem_lookup:path <- $r9
	@DEBUG_VALUE: dfs_filesystem_lookup:fs <- $r8
	@DEBUG_VALUE: dfs_filesystem_lookup:iter <- $r5
	.loc	1 98 18 is_stmt 1               @ rt-thread/components/dfs/src/dfs_fs.c:98:18
	mov	r0, r7
	bl	strlen
.Ltmp35:
	@DEBUG_VALUE: dfs_filesystem_lookup:fspath <- $r0
	.loc	1 100 13                        @ rt-thread/components/dfs/src/dfs_fs.c:100:13
	cmp	r0, r10
	blo	.LBB1_5
.Ltmp36:
@ %bb.9:                                @   in Loop: Header=BB1_6 Depth=1
	@DEBUG_VALUE: dfs_filesystem_lookup:prefixlen <- $r10
	@DEBUG_VALUE: dfs_filesystem_lookup:path <- $r9
	@DEBUG_VALUE: dfs_filesystem_lookup:fs <- $r8
	@DEBUG_VALUE: dfs_filesystem_lookup:iter <- $r5
	@DEBUG_VALUE: dfs_filesystem_lookup:fspath <- $r0
	.loc	1 0 0 is_stmt 0                 @ rt-thread/components/dfs/src/dfs_fs.c:0:0
	mov	r6, r0
.Ltmp37:
	@DEBUG_VALUE: dfs_filesystem_lookup:fspath <- $r6
	@DEBUG_VALUE: dfs_filesystem_lookup:fspath <- $r6
	.loc	1 100 17                        @ rt-thread/components/dfs/src/dfs_fs.c:100:17
	mov	r0, r7
	mov	r1, r9
	mov	r2, r6
	bl	strncmp
.Ltmp38:
	.loc	1 99 13 is_stmt 1               @ rt-thread/components/dfs/src/dfs_fs.c:99:13
	cmp	r0, #0
	bne	.LBB1_5
.Ltmp39:
@ %bb.10:                               @   in Loop: Header=BB1_6 Depth=1
	@DEBUG_VALUE: dfs_filesystem_lookup:prefixlen <- $r10
	@DEBUG_VALUE: dfs_filesystem_lookup:path <- $r9
	@DEBUG_VALUE: dfs_filesystem_lookup:fs <- $r8
	@DEBUG_VALUE: dfs_filesystem_lookup:fspath <- $r6
	@DEBUG_VALUE: dfs_filesystem_lookup:iter <- $r5
	.loc	1 104 24                        @ rt-thread/components/dfs/src/dfs_fs.c:104:24
	cmp	r6, #2
	blo	.LBB1_4
.Ltmp40:
@ %bb.11:                               @   in Loop: Header=BB1_6 Depth=1
	@DEBUG_VALUE: dfs_filesystem_lookup:prefixlen <- $r10
	@DEBUG_VALUE: dfs_filesystem_lookup:path <- $r9
	@DEBUG_VALUE: dfs_filesystem_lookup:fs <- $r8
	@DEBUG_VALUE: dfs_filesystem_lookup:fspath <- $r6
	@DEBUG_VALUE: dfs_filesystem_lookup:iter <- $r5
	.loc	1 104 28 is_stmt 0              @ rt-thread/components/dfs/src/dfs_fs.c:104:28
	mov	r0, r9
	bl	strlen
	.loc	1 104 51                        @ rt-thread/components/dfs/src/dfs_fs.c:104:51
	cmp	r0, r6
	bls	.LBB1_4
.Ltmp41:
@ %bb.12:                               @   in Loop: Header=BB1_6 Depth=1
	@DEBUG_VALUE: dfs_filesystem_lookup:prefixlen <- $r10
	@DEBUG_VALUE: dfs_filesystem_lookup:path <- $r9
	@DEBUG_VALUE: dfs_filesystem_lookup:fs <- $r8
	@DEBUG_VALUE: dfs_filesystem_lookup:fspath <- $r6
	@DEBUG_VALUE: dfs_filesystem_lookup:iter <- $r5
	.loc	1 104 55                        @ rt-thread/components/dfs/src/dfs_fs.c:104:55
	ldrb.w	r0, [r9, r6]
.Ltmp42:
	.loc	1 104 13                        @ rt-thread/components/dfs/src/dfs_fs.c:104:13
	cmp	r0, #47
	beq	.LBB1_4
	b	.LBB1_5
.Ltmp43:
.LBB1_13:
	@DEBUG_VALUE: dfs_filesystem_lookup:path <- $r9
	@DEBUG_VALUE: dfs_filesystem_lookup:iter <- $r5
	@DEBUG_VALUE: dfs_filesystem_lookup:fs <- 0
	@DEBUG_VALUE: dfs_filesystem_lookup:prefixlen <- 0
	.loc	1 0 13                          @ rt-thread/components/dfs/src/dfs_fs.c:0:13
	mov.w	r8, #0
.Ltmp44:
.LBB1_14:
	@DEBUG_VALUE: dfs_filesystem_lookup:path <- $r9
	@DEBUG_VALUE: dfs_filesystem_lookup:iter <- $r5
	.loc	1 111 5 is_stmt 1               @ rt-thread/components/dfs/src/dfs_fs.c:111:5
	bl	dfs_unlock
	.loc	1 113 5                         @ rt-thread/components/dfs/src/dfs_fs.c:113:5
	mov	r0, r8
	pop.w	{r4, r5, r6, r7, r8, r9, r10, pc}
.Ltmp45:
	.p2align	2
@ %bb.15:
	.loc	1 0 5 is_stmt 0                 @ rt-thread/components/dfs/src/dfs_fs.c:0:5
.LCPI1_0:
.L.str.3:
	.asciz	"path\000\000\000"
.LCPI1_1:
.L__FUNCTION__.dfs_filesystem_lookup:
	.asciz	"dfs_filesystem_lookup\000\000"
.Lfunc_end1:
	.size	dfs_filesystem_lookup, .Lfunc_end1-dfs_filesystem_lookup
	.cfi_endproc
	.cantunwind
	.fnend
                                        @ -- End function
	.section	.text.dfs_filesystem_get_mounted_path,"ax",%progbits
	.hidden	dfs_filesystem_get_mounted_path @ -- Begin function dfs_filesystem_get_mounted_path
	.globl	dfs_filesystem_get_mounted_path
	.p2align	3
	.type	dfs_filesystem_get_mounted_path,%function
	.code	16                              @ @dfs_filesystem_get_mounted_path
	.thumb_func
dfs_filesystem_get_mounted_path:
.Lfunc_begin2:
	.loc	1 124 0 is_stmt 1               @ rt-thread/components/dfs/src/dfs_fs.c:124:0
	.fnstart
	.cfi_startproc
@ %bb.0:
	@DEBUG_VALUE: dfs_filesystem_get_mounted_path:device <- $r0
	.save	{r4, lr}
	push	{r4, lr}
	.cfi_def_cfa_offset 8
	.cfi_offset lr, -4
	.cfi_offset r4, -8
	mov	r4, r0
.Ltmp46:
	@DEBUG_VALUE: dfs_filesystem_get_mounted_path:device <- $r4
	@DEBUG_VALUE: dfs_filesystem_get_mounted_path:path <- 0
	@DEBUG_VALUE: dfs_filesystem_get_mounted_path:device <- $r4
	.loc	1 128 5 prologue_end            @ rt-thread/components/dfs/src/dfs_fs.c:128:5
	bl	dfs_lock
.Ltmp47:
	.loc	1 129 5                         @ rt-thread/components/dfs/src/dfs_fs.c:129:5
	movw	r0, :lower16:filesystem_table
	movt	r0, :upper16:filesystem_table
.Ltmp48:
	@DEBUG_VALUE: dfs_filesystem_get_mounted_path:iter <- $r0
	add.w	r1, r0, #96
	cmp	r0, r1
	blo	.LBB2_3
.Ltmp49:
@ %bb.1:
	@DEBUG_VALUE: dfs_filesystem_get_mounted_path:device <- $r4
	@DEBUG_VALUE: dfs_filesystem_get_mounted_path:iter <- $r0
	@DEBUG_VALUE: dfs_filesystem_get_mounted_path:path <- 0
	.loc	1 0 5 is_stmt 0                 @ rt-thread/components/dfs/src/dfs_fs.c:0:5
	movs	r4, #0
.Ltmp50:
	b	.LBB2_7
.Ltmp51:
	.p2align	2
.LBB2_2:                                @   in Loop: Header=BB2_3 Depth=1
	@DEBUG_VALUE: dfs_filesystem_get_mounted_path:device <- $r4
	@DEBUG_VALUE: dfs_filesystem_get_mounted_path:iter <- $r0
	@DEBUG_VALUE: dfs_filesystem_get_mounted_path:path <- 0
	.loc	1 130 64 is_stmt 1              @ rt-thread/components/dfs/src/dfs_fs.c:130:64
	adds	r0, #16
.Ltmp52:
	@DEBUG_VALUE: dfs_filesystem_get_mounted_path:iter <- $r0
	.loc	1 129 5                         @ rt-thread/components/dfs/src/dfs_fs.c:129:5
	cmp	r0, r1
	bhs	.LBB2_6
.Ltmp53:
.LBB2_3:                                @ =>This Inner Loop Header: Depth=1
	@DEBUG_VALUE: dfs_filesystem_get_mounted_path:device <- $r4
	@DEBUG_VALUE: dfs_filesystem_get_mounted_path:iter <- $r0
	@DEBUG_VALUE: dfs_filesystem_get_mounted_path:path <- 0
	@DEBUG_VALUE: dfs_filesystem_get_mounted_path:iter <- $r0
	.loc	1 133 19                        @ rt-thread/components/dfs/src/dfs_fs.c:133:19
	ldr	r2, [r0, #8]
.Ltmp54:
	.loc	1 133 13 is_stmt 0              @ rt-thread/components/dfs/src/dfs_fs.c:133:13
	cmp	r2, #0
	beq	.LBB2_2
.Ltmp55:
@ %bb.4:                                @   in Loop: Header=BB2_3 Depth=1
	@DEBUG_VALUE: dfs_filesystem_get_mounted_path:device <- $r4
	@DEBUG_VALUE: dfs_filesystem_get_mounted_path:iter <- $r0
	@DEBUG_VALUE: dfs_filesystem_get_mounted_path:path <- 0
	.loc	1 134 24 is_stmt 1              @ rt-thread/components/dfs/src/dfs_fs.c:134:24
	ldr	r2, [r0]
.Ltmp56:
	.loc	1 134 18 is_stmt 0              @ rt-thread/components/dfs/src/dfs_fs.c:134:18
	cmp	r2, r4
	bne	.LBB2_2
.Ltmp57:
@ %bb.5:
	@DEBUG_VALUE: dfs_filesystem_get_mounted_path:device <- $r4
	@DEBUG_VALUE: dfs_filesystem_get_mounted_path:iter <- $r0
	@DEBUG_VALUE: dfs_filesystem_get_mounted_path:path <- 0
	.loc	1 136 26 is_stmt 1              @ rt-thread/components/dfs/src/dfs_fs.c:136:26
	ldr	r4, [r0, #4]
.Ltmp58:
	@DEBUG_VALUE: dfs_filesystem_get_mounted_path:path <- $r4
	.loc	1 137 13                        @ rt-thread/components/dfs/src/dfs_fs.c:137:13
	b	.LBB2_7
.Ltmp59:
.LBB2_6:
	@DEBUG_VALUE: dfs_filesystem_get_mounted_path:device <- $r4
	@DEBUG_VALUE: dfs_filesystem_get_mounted_path:iter <- $r0
	@DEBUG_VALUE: dfs_filesystem_get_mounted_path:path <- 0
	.loc	1 0 13 is_stmt 0                @ rt-thread/components/dfs/src/dfs_fs.c:0:13
	movs	r4, #0
.Ltmp60:
.LBB2_7:
	@DEBUG_VALUE: dfs_filesystem_get_mounted_path:iter <- $r0
	@DEBUG_VALUE: dfs_filesystem_get_mounted_path:path <- $r4
	.loc	1 142 5 is_stmt 1               @ rt-thread/components/dfs/src/dfs_fs.c:142:5
	bl	dfs_unlock
.Ltmp61:
	.loc	1 144 5                         @ rt-thread/components/dfs/src/dfs_fs.c:144:5
	mov	r0, r4
	pop	{r4, pc}
.Ltmp62:
.Lfunc_end2:
	.size	dfs_filesystem_get_mounted_path, .Lfunc_end2-dfs_filesystem_get_mounted_path
	.cfi_endproc
	.cantunwind
	.fnend
                                        @ -- End function
	.section	.text.dfs_filesystem_get_partition,"ax",%progbits
	.hidden	dfs_filesystem_get_partition    @ -- Begin function dfs_filesystem_get_partition
	.globl	dfs_filesystem_get_partition
	.p2align	3
	.type	dfs_filesystem_get_partition,%function
	.code	16                              @ @dfs_filesystem_get_partition
	.thumb_func
dfs_filesystem_get_partition:
.Lfunc_begin3:
	.loc	1 159 0                         @ rt-thread/components/dfs/src/dfs_fs.c:159:0
	.fnstart
	.cfi_startproc
@ %bb.0:
	@DEBUG_VALUE: dfs_filesystem_get_partition:part <- $r0
	@DEBUG_VALUE: dfs_filesystem_get_partition:buf <- $r1
	@DEBUG_VALUE: dfs_filesystem_get_partition:pindex <- $r2
	.save	{r4, r5, r6, lr}
	push	{r4, r5, r6, lr}
	.cfi_def_cfa_offset 16
	.cfi_offset lr, -4
	.cfi_offset r6, -8
	.cfi_offset r5, -12
	.cfi_offset r4, -16
	mov	r4, r0
.Ltmp63:
	@DEBUG_VALUE: dfs_filesystem_get_partition:part <- $r4
	mov	r5, r2
.Ltmp64:
	@DEBUG_VALUE: dfs_filesystem_get_partition:pindex <- $r5
	@DEBUG_VALUE: dfs_filesystem_get_partition:pindex <- $r5
	mov	r6, r1
.Ltmp65:
	@DEBUG_VALUE: dfs_filesystem_get_partition:buf <- $r6
	@DEBUG_VALUE: dfs_filesystem_get_partition:buf <- $r6
	.loc	1 166 5 prologue_end            @ rt-thread/components/dfs/src/dfs_fs.c:166:5
	cbz	r0, .LBB3_8
.Ltmp66:
@ %bb.1:
	@DEBUG_VALUE: dfs_filesystem_get_partition:buf <- $r6
	@DEBUG_VALUE: dfs_filesystem_get_partition:pindex <- $r5
	@DEBUG_VALUE: dfs_filesystem_get_partition:part <- $r4
	.loc	1 167 5                         @ rt-thread/components/dfs/src/dfs_fs.c:167:5
	cbz	r6, .LBB3_9
.Ltmp67:
.LBB3_2:
	@DEBUG_VALUE: dfs_filesystem_get_partition:buf <- $r6
	@DEBUG_VALUE: dfs_filesystem_get_partition:pindex <- $r5
	@DEBUG_VALUE: dfs_filesystem_get_partition:part <- $r4
	.loc	1 169 15                        @ rt-thread/components/dfs/src/dfs_fs.c:169:15
	add.w	r0, r6, r5, lsl #4
.Ltmp68:
	@DEBUG_VALUE: dfs_filesystem_get_partition:dpt <- undef
	.loc	1 172 10                        @ rt-thread/components/dfs/src/dfs_fs.c:172:10
	ldrb.w	r1, [r0, #446]
	.loc	1 172 24 is_stmt 0              @ rt-thread/components/dfs/src/dfs_fs.c:172:24
	orr	r1, r1, #128
	cmp	r1, #128
	bne	.LBB3_7
.Ltmp69:
@ %bb.3:
	@DEBUG_VALUE: dfs_filesystem_get_partition:buf <- $r6
	@DEBUG_VALUE: dfs_filesystem_get_partition:pindex <- $r5
	@DEBUG_VALUE: dfs_filesystem_get_partition:part <- $r4
	.loc	1 0 0                           @ rt-thread/components/dfs/src/dfs_fs.c:0:0
	add.w	r0, r0, #446
.Ltmp70:
	@DEBUG_VALUE: dfs_filesystem_get_partition:dpt <- $r0
	.loc	1 176 12 is_stmt 1              @ rt-thread/components/dfs/src/dfs_fs.c:176:12
	ldrb	r1, [r0, #4]
.Ltmp71:
	@DEBUG_VALUE: dfs_filesystem_get_partition:type <- undef
	.loc	1 177 9                         @ rt-thread/components/dfs/src/dfs_fs.c:177:9
	cbz	r1, .LBB3_7
.Ltmp72:
@ %bb.4:
	@DEBUG_VALUE: dfs_filesystem_get_partition:buf <- $r6
	@DEBUG_VALUE: dfs_filesystem_get_partition:pindex <- $r5
	@DEBUG_VALUE: dfs_filesystem_get_partition:part <- $r4
	@DEBUG_VALUE: dfs_filesystem_get_partition:dpt <- $r0
	.loc	1 182 16                        @ rt-thread/components/dfs/src/dfs_fs.c:182:16
	strb	r1, [r4]
	.loc	1 183 69                        @ rt-thread/components/dfs/src/dfs_fs.c:183:69
	ldr	r1, [r0, #8]
	.loc	1 183 18 is_stmt 0              @ rt-thread/components/dfs/src/dfs_fs.c:183:18
	str	r1, [r4, #4]
	.loc	1 184 69 is_stmt 1              @ rt-thread/components/dfs/src/dfs_fs.c:184:69
	ldr	r0, [r0, #12]
.Ltmp73:
	.loc	1 184 16 is_stmt 0              @ rt-thread/components/dfs/src/dfs_fs.c:184:16
	str	r0, [r4, #8]
	.loc	1 187 37 is_stmt 1              @ rt-thread/components/dfs/src/dfs_fs.c:187:37
	lsls	r2, r1, #9
	.loc	1 186 5                         @ rt-thread/components/dfs/src/dfs_fs.c:186:5
	adr	r0, .LCPI3_2
	mov	r1, r5
	bl	rt_kprintf
.Ltmp74:
	.loc	1 188 16                        @ rt-thread/components/dfs/src/dfs_fs.c:188:16
	ldr	r0, [r4, #8]
	movs	r1, #0
.Ltmp75:
	.loc	1 188 9 is_stmt 0               @ rt-thread/components/dfs/src/dfs_fs.c:188:9
	cmp.w	r1, r0, lsr #11
	beq	.LBB3_10
.Ltmp76:
@ %bb.5:
	@DEBUG_VALUE: dfs_filesystem_get_partition:buf <- $r6
	@DEBUG_VALUE: dfs_filesystem_get_partition:pindex <- $r5
	@DEBUG_VALUE: dfs_filesystem_get_partition:part <- $r4
	.loc	1 194 13 is_stmt 1              @ rt-thread/components/dfs/src/dfs_fs.c:194:13
	cmp.w	r1, r0, lsr #21
.Ltmp77:
	.loc	1 0 0 is_stmt 0                 @ rt-thread/components/dfs/src/dfs_fs.c:0:0
	lsr.w	r2, r0, #11
.Ltmp78:
	@DEBUG_VALUE: part_size <- $r2
	.loc	1 194 13                        @ rt-thread/components/dfs/src/dfs_fs.c:194:13
	beq	.LBB3_11
.Ltmp79:
@ %bb.6:
	@DEBUG_VALUE: dfs_filesystem_get_partition:buf <- $r6
	@DEBUG_VALUE: dfs_filesystem_get_partition:pindex <- $r5
	@DEBUG_VALUE: dfs_filesystem_get_partition:part <- $r4
	@DEBUG_VALUE: part_size <- $r2
	.loc	1 0 0                           @ rt-thread/components/dfs/src/dfs_fs.c:0:0
	lsrs	r1, r0, #21
	.loc	1 197 13 is_stmt 1              @ rt-thread/components/dfs/src/dfs_fs.c:197:13
	movw	r0, :lower16:.L.str.9
	.loc	1 197 62 is_stmt 0              @ rt-thread/components/dfs/src/dfs_fs.c:197:62
	bfc	r2, #10, #22
.Ltmp80:
	.loc	1 197 13                        @ rt-thread/components/dfs/src/dfs_fs.c:197:13
	movt	r0, :upper16:.L.str.9
	adr	r3, .LCPI3_3
	b	.LBB3_12
.Ltmp81:
.LBB3_7:
	@DEBUG_VALUE: dfs_filesystem_get_partition:buf <- $r6
	@DEBUG_VALUE: dfs_filesystem_get_partition:pindex <- $r5
	@DEBUG_VALUE: dfs_filesystem_get_partition:part <- $r4
	.loc	1 0 13                          @ rt-thread/components/dfs/src/dfs_fs.c:0:13
	mvn	r0, #4
	.loc	1 201 1 is_stmt 1               @ rt-thread/components/dfs/src/dfs_fs.c:201:1
	pop	{r4, r5, r6, pc}
.Ltmp82:
.LBB3_8:
	@DEBUG_VALUE: dfs_filesystem_get_partition:buf <- $r6
	@DEBUG_VALUE: dfs_filesystem_get_partition:pindex <- $r5
	@DEBUG_VALUE: dfs_filesystem_get_partition:part <- $r4
	.loc	1 166 5                         @ rt-thread/components/dfs/src/dfs_fs.c:166:5
	movw	r1, :lower16:.L__FUNCTION__.dfs_filesystem_get_partition
	adr	r0, .LCPI3_0
	movt	r1, :upper16:.L__FUNCTION__.dfs_filesystem_get_partition
	movs	r2, #166
	bl	rt_assert_handler
.Ltmp83:
	.loc	1 167 5                         @ rt-thread/components/dfs/src/dfs_fs.c:167:5
	cmp	r6, #0
	bne	.LBB3_2
.Ltmp84:
.LBB3_9:
	@DEBUG_VALUE: dfs_filesystem_get_partition:buf <- $r6
	@DEBUG_VALUE: dfs_filesystem_get_partition:pindex <- $r5
	@DEBUG_VALUE: dfs_filesystem_get_partition:part <- $r4
	.loc	1 167 5 is_stmt 0               @ rt-thread/components/dfs/src/dfs_fs.c:167:5
	movw	r1, :lower16:.L__FUNCTION__.dfs_filesystem_get_partition
	adr	r0, .LCPI3_1
	movt	r1, :upper16:.L__FUNCTION__.dfs_filesystem_get_partition
	movs	r2, #167
	bl	rt_assert_handler
	b	.LBB3_2
.Ltmp85:
.LBB3_10:
	@DEBUG_VALUE: dfs_filesystem_get_partition:buf <- $r6
	@DEBUG_VALUE: dfs_filesystem_get_partition:pindex <- $r5
	@DEBUG_VALUE: dfs_filesystem_get_partition:part <- $r4
	.loc	1 189 39 is_stmt 1              @ rt-thread/components/dfs/src/dfs_fs.c:189:39
	lsrs	r1, r0, #1
	.loc	1 189 9 is_stmt 0               @ rt-thread/components/dfs/src/dfs_fs.c:189:9
	adr	r0, .LCPI3_5
	adr	r2, .LCPI3_6
	bl	rt_kprintf
	movs	r0, #0
.Ltmp86:
	.loc	1 201 1 is_stmt 1               @ rt-thread/components/dfs/src/dfs_fs.c:201:1
	pop	{r4, r5, r6, pc}
.Ltmp87:
.LBB3_11:
	@DEBUG_VALUE: dfs_filesystem_get_partition:buf <- $r6
	@DEBUG_VALUE: dfs_filesystem_get_partition:pindex <- $r5
	@DEBUG_VALUE: dfs_filesystem_get_partition:part <- $r4
	@DEBUG_VALUE: part_size <- $r2
	@DEBUG_VALUE: part_size <- $r2
	.loc	1 195 64                        @ rt-thread/components/dfs/src/dfs_fs.c:195:64
	ubfx	r6, r0, #1, #10
.Ltmp88:
	@DEBUG_VALUE: dfs_filesystem_get_partition:buf <- [DW_OP_LLVM_entry_value 1] $r1
	.loc	1 195 13 is_stmt 0              @ rt-thread/components/dfs/src/dfs_fs.c:195:13
	movw	r0, :lower16:.L.str.9
	movt	r0, :upper16:.L.str.9
	adr	r3, .LCPI3_4
	mov	r1, r2
	mov	r2, r6
.Ltmp89:
.LBB3_12:
	@DEBUG_VALUE: dfs_filesystem_get_partition:pindex <- $r5
	@DEBUG_VALUE: dfs_filesystem_get_partition:part <- $r4
	.loc	1 0 0                           @ rt-thread/components/dfs/src/dfs_fs.c:0:0
	bl	rt_kprintf
	movs	r0, #0
.Ltmp90:
	.loc	1 201 1 is_stmt 1               @ rt-thread/components/dfs/src/dfs_fs.c:201:1
	pop	{r4, r5, r6, pc}
.Ltmp91:
	.p2align	2
@ %bb.13:
	.loc	1 0 1 is_stmt 0                 @ rt-thread/components/dfs/src/dfs_fs.c:0:1
.LCPI3_0:
.L.str.4:
	.asciz	"part != NULL\000\000\000"
.LCPI3_1:
.L.str.5:
	.asciz	"buf != NULL"
.LCPI3_2:
.L.str.6:
	.asciz	"found part[%d], begin: %d, size: \000\000"
.LCPI3_3:
.L.str.11:
	.asciz	"GB\n"
.LCPI3_4:
.L.str.10:
	.asciz	"MB\n"
.LCPI3_5:
.L.str.7:
	.asciz	"%d%s\000\000\000"
.LCPI3_6:
.L.str.8:
	.asciz	"KB\n"
.Lfunc_end3:
	.size	dfs_filesystem_get_partition, .Lfunc_end3-dfs_filesystem_get_partition
	.cfi_endproc
	.cantunwind
	.fnend
                                        @ -- End function
	.section	.text.dfs_mount,"ax",%progbits
	.hidden	dfs_mount                       @ -- Begin function dfs_mount
	.globl	dfs_mount
	.p2align	3
	.type	dfs_mount,%function
	.code	16                              @ @dfs_mount
	.thumb_func
dfs_mount:
.Lfunc_begin4:
	.loc	1 219 0 is_stmt 1               @ rt-thread/components/dfs/src/dfs_fs.c:219:0
	.fnstart
	.cfi_startproc
@ %bb.0:
	@DEBUG_VALUE: dfs_mount:device_name <- $r0
	@DEBUG_VALUE: dfs_mount:device_name <- $r0
	@DEBUG_VALUE: dfs_mount:path <- $r1
	@DEBUG_VALUE: dfs_mount:filesystemtype <- $r2
	@DEBUG_VALUE: dfs_mount:rwflag <- $r3
	.save	{r4, r5, r6, r7, r8, r9, r10, r11, lr}
	push.w	{r4, r5, r6, r7, r8, r9, r10, r11, lr}
	.cfi_def_cfa_offset 36
	.cfi_offset lr, -4
	.cfi_offset r11, -8
	.cfi_offset r10, -12
	.cfi_offset r9, -16
	.cfi_offset r8, -20
	.cfi_offset r7, -24
	.cfi_offset r6, -28
	.cfi_offset r5, -32
	.cfi_offset r4, -36
	.pad	#44
	sub	sp, #44
	.cfi_def_cfa_offset 80
.Ltmp92:
	@DEBUG_VALUE: dfs_mount:data <- [DW_OP_plus_uconst 80] [$sp+0]
	@DEBUG_VALUE: dfs_mount:fs <- 0
	@DEBUG_VALUE: dfs_mount:fullpath <- 0
	mov	r9, r3
.Ltmp93:
	@DEBUG_VALUE: dfs_mount:rwflag <- $r9
	@DEBUG_VALUE: dfs_mount:rwflag <- $r9
	mov	r7, r2
.Ltmp94:
	@DEBUG_VALUE: dfs_mount:filesystemtype <- $r7
	@DEBUG_VALUE: dfs_mount:filesystemtype <- $r7
	mov	r11, r1
.Ltmp95:
	@DEBUG_VALUE: dfs_mount:path <- $r11
	@DEBUG_VALUE: dfs_mount:path <- $r11
	.loc	1 227 9 prologue_end            @ rt-thread/components/dfs/src/dfs_fs.c:227:9
	cbz	r0, .LBB4_2
.Ltmp96:
@ %bb.1:
	@DEBUG_VALUE: dfs_mount:path <- $r11
	@DEBUG_VALUE: dfs_mount:rwflag <- $r9
	@DEBUG_VALUE: dfs_mount:filesystemtype <- $r7
	@DEBUG_VALUE: dfs_mount:device_name <- $r0
	@DEBUG_VALUE: dfs_mount:data <- [DW_OP_plus_uconst 80] [$sp+0]
	@DEBUG_VALUE: dfs_mount:fullpath <- 0
	@DEBUG_VALUE: dfs_mount:fs <- 0
	.loc	1 232 24                        @ rt-thread/components/dfs/src/dfs_fs.c:232:24
	bl	rt_device_find
.Ltmp97:
	@DEBUG_VALUE: dfs_mount:device_name <- [DW_OP_LLVM_entry_value 1] $r0
	mov	r10, r0
.Ltmp98:
	@DEBUG_VALUE: dfs_mount:dev_id <- $r10
	.loc	1 232 14 is_stmt 0              @ rt-thread/components/dfs/src/dfs_fs.c:232:14
	cbnz	r0, .LBB4_3
	b	.LBB4_16
.Ltmp99:
.LBB4_2:
	@DEBUG_VALUE: dfs_mount:path <- $r11
	@DEBUG_VALUE: dfs_mount:rwflag <- $r9
	@DEBUG_VALUE: dfs_mount:filesystemtype <- $r7
	@DEBUG_VALUE: dfs_mount:device_name <- $r0
	@DEBUG_VALUE: dfs_mount:data <- [DW_OP_plus_uconst 80] [$sp+0]
	@DEBUG_VALUE: dfs_mount:fullpath <- 0
	@DEBUG_VALUE: dfs_mount:fs <- 0
	.loc	1 0 14                          @ rt-thread/components/dfs/src/dfs_fs.c:0:14
	mov.w	r10, #0
.Ltmp100:
.LBB4_3:
	@DEBUG_VALUE: dfs_mount:path <- $r11
	@DEBUG_VALUE: dfs_mount:rwflag <- $r9
	@DEBUG_VALUE: dfs_mount:filesystemtype <- $r7
	@DEBUG_VALUE: dfs_mount:data <- [DW_OP_plus_uconst 80] [$sp+0]
	@DEBUG_VALUE: dfs_mount:fullpath <- 0
	@DEBUG_VALUE: dfs_mount:fs <- 0
	@DEBUG_VALUE: dfs_mount:dev_id <- $r10
	.loc	1 240 5 is_stmt 1               @ rt-thread/components/dfs/src/dfs_fs.c:240:5
	bl	dfs_lock
	movw	r4, :lower16:filesystem_operation_table
	movt	r4, :upper16:filesystem_operation_table
.Ltmp101:
	@DEBUG_VALUE: dfs_mount:ops <- $r4
	.loc	1 242 5                         @ rt-thread/components/dfs/src/dfs_fs.c:242:5
	add.w	r5, r4, #24
	cmp	r4, r5
	blo	.LBB4_5
	b	.LBB4_8
.Ltmp102:
	.p2align	2
.LBB4_4:                                @   in Loop: Header=BB4_5 Depth=1
	@DEBUG_VALUE: dfs_mount:path <- $r11
	@DEBUG_VALUE: dfs_mount:dev_id <- $r10
	@DEBUG_VALUE: dfs_mount:rwflag <- $r9
	@DEBUG_VALUE: dfs_mount:filesystemtype <- $r7
	@DEBUG_VALUE: dfs_mount:ops <- $r4
	@DEBUG_VALUE: dfs_mount:data <- [DW_OP_plus_uconst 80] [$sp+0]
	@DEBUG_VALUE: dfs_mount:fullpath <- 0
	@DEBUG_VALUE: dfs_mount:fs <- 0
	.loc	1 243 77                        @ rt-thread/components/dfs/src/dfs_fs.c:243:77
	adds	r4, #4
.Ltmp103:
	@DEBUG_VALUE: dfs_mount:ops <- $r4
	.loc	1 242 5                         @ rt-thread/components/dfs/src/dfs_fs.c:242:5
	cmp	r4, r5
	bhs	.LBB4_7
.Ltmp104:
.LBB4_5:                                @ =>This Inner Loop Header: Depth=1
	@DEBUG_VALUE: dfs_mount:path <- $r11
	@DEBUG_VALUE: dfs_mount:dev_id <- $r10
	@DEBUG_VALUE: dfs_mount:rwflag <- $r9
	@DEBUG_VALUE: dfs_mount:filesystemtype <- $r7
	@DEBUG_VALUE: dfs_mount:ops <- $r4
	@DEBUG_VALUE: dfs_mount:data <- [DW_OP_plus_uconst 80] [$sp+0]
	@DEBUG_VALUE: dfs_mount:fullpath <- 0
	@DEBUG_VALUE: dfs_mount:fs <- 0
	@DEBUG_VALUE: dfs_mount:ops <- $r4
	.loc	1 244 14                        @ rt-thread/components/dfs/src/dfs_fs.c:244:14
	ldr	r0, [r4]
	.loc	1 244 28 is_stmt 0              @ rt-thread/components/dfs/src/dfs_fs.c:244:28
	cmp	r0, #0
	beq	.LBB4_4
.Ltmp105:
@ %bb.6:                                @   in Loop: Header=BB4_5 Depth=1
	@DEBUG_VALUE: dfs_mount:path <- $r11
	@DEBUG_VALUE: dfs_mount:dev_id <- $r10
	@DEBUG_VALUE: dfs_mount:rwflag <- $r9
	@DEBUG_VALUE: dfs_mount:filesystemtype <- $r7
	@DEBUG_VALUE: dfs_mount:ops <- $r4
	@DEBUG_VALUE: dfs_mount:data <- [DW_OP_plus_uconst 80] [$sp+0]
	@DEBUG_VALUE: dfs_mount:fullpath <- 0
	@DEBUG_VALUE: dfs_mount:fs <- 0
	.loc	1 244 47                        @ rt-thread/components/dfs/src/dfs_fs.c:244:47
	ldr	r0, [r0]
	.loc	1 244 32                        @ rt-thread/components/dfs/src/dfs_fs.c:244:32
	mov	r1, r7
	bl	strcmp
.Ltmp106:
	.loc	1 244 13                        @ rt-thread/components/dfs/src/dfs_fs.c:244:13
	cmp	r0, #0
	bne	.LBB4_4
	b	.LBB4_8
.Ltmp107:
.LBB4_7:
	@DEBUG_VALUE: dfs_mount:path <- $r11
	@DEBUG_VALUE: dfs_mount:dev_id <- $r10
	@DEBUG_VALUE: dfs_mount:rwflag <- $r9
	@DEBUG_VALUE: dfs_mount:filesystemtype <- $r7
	@DEBUG_VALUE: dfs_mount:ops <- $r4
	@DEBUG_VALUE: dfs_mount:data <- [DW_OP_plus_uconst 80] [$sp+0]
	@DEBUG_VALUE: dfs_mount:fullpath <- 0
	@DEBUG_VALUE: dfs_mount:fs <- 0
	.loc	1 0 0                           @ rt-thread/components/dfs/src/dfs_fs.c:0:0
	mov	r4, r5
.Ltmp108:
.LBB4_8:
	@DEBUG_VALUE: dfs_mount:path <- $r11
	@DEBUG_VALUE: dfs_mount:dev_id <- $r10
	@DEBUG_VALUE: dfs_mount:rwflag <- $r9
	@DEBUG_VALUE: dfs_mount:filesystemtype <- $r7
	@DEBUG_VALUE: dfs_mount:data <- [DW_OP_plus_uconst 80] [$sp+0]
	@DEBUG_VALUE: dfs_mount:fullpath <- 0
	@DEBUG_VALUE: dfs_mount:fs <- 0
	.loc	1 247 5 is_stmt 1               @ rt-thread/components/dfs/src/dfs_fs.c:247:5
	bl	dfs_unlock
	.loc	1 249 9                         @ rt-thread/components/dfs/src/dfs_fs.c:249:9
	cmp	r4, r5
	beq	.LBB4_16
.Ltmp109:
@ %bb.9:
	@DEBUG_VALUE: dfs_mount:path <- $r11
	@DEBUG_VALUE: dfs_mount:dev_id <- $r10
	@DEBUG_VALUE: dfs_mount:rwflag <- $r9
	@DEBUG_VALUE: dfs_mount:filesystemtype <- $r7
	@DEBUG_VALUE: dfs_mount:data <- [DW_OP_plus_uconst 80] [$sp+0]
	@DEBUG_VALUE: dfs_mount:fullpath <- 0
	@DEBUG_VALUE: dfs_mount:fs <- 0
	.loc	1 257 10                        @ rt-thread/components/dfs/src/dfs_fs.c:257:10
	ldr	r0, [r4]
	.loc	1 257 24 is_stmt 0              @ rt-thread/components/dfs/src/dfs_fs.c:257:24
	cbz	r0, .LBB4_17
.Ltmp110:
@ %bb.10:
	@DEBUG_VALUE: dfs_mount:path <- $r11
	@DEBUG_VALUE: dfs_mount:dev_id <- $r10
	@DEBUG_VALUE: dfs_mount:rwflag <- $r9
	@DEBUG_VALUE: dfs_mount:filesystemtype <- $r7
	@DEBUG_VALUE: dfs_mount:data <- [DW_OP_plus_uconst 80] [$sp+0]
	@DEBUG_VALUE: dfs_mount:fullpath <- 0
	@DEBUG_VALUE: dfs_mount:fs <- 0
	.loc	1 257 36                        @ rt-thread/components/dfs/src/dfs_fs.c:257:36
	ldr	r0, [r0, #12]
.Ltmp111:
	.loc	1 257 9                         @ rt-thread/components/dfs/src/dfs_fs.c:257:9
	cbz	r0, .LBB4_17
.Ltmp112:
@ %bb.11:
	@DEBUG_VALUE: dfs_mount:path <- $r11
	@DEBUG_VALUE: dfs_mount:dev_id <- $r10
	@DEBUG_VALUE: dfs_mount:rwflag <- $r9
	@DEBUG_VALUE: dfs_mount:filesystemtype <- $r7
	@DEBUG_VALUE: dfs_mount:data <- [DW_OP_plus_uconst 80] [$sp+0]
	@DEBUG_VALUE: dfs_mount:fullpath <- 0
	@DEBUG_VALUE: dfs_mount:fs <- 0
	.loc	1 264 16 is_stmt 1              @ rt-thread/components/dfs/src/dfs_fs.c:264:16
	movs	r0, #0
	mov	r1, r11
	bl	dfs_normalize_path
.Ltmp113:
	@DEBUG_VALUE: dfs_mount:fullpath <- $r0
	.loc	1 265 9                         @ rt-thread/components/dfs/src/dfs_fs.c:265:9
	cbz	r0, .LBB4_20
.Ltmp114:
@ %bb.12:
	@DEBUG_VALUE: dfs_mount:path <- $r11
	@DEBUG_VALUE: dfs_mount:dev_id <- $r10
	@DEBUG_VALUE: dfs_mount:rwflag <- $r9
	@DEBUG_VALUE: dfs_mount:filesystemtype <- $r7
	@DEBUG_VALUE: dfs_mount:fullpath <- $r0
	@DEBUG_VALUE: dfs_mount:data <- [DW_OP_plus_uconst 80] [$sp+0]
	@DEBUG_VALUE: dfs_mount:fs <- 0
	.loc	1 272 10                        @ rt-thread/components/dfs/src/dfs_fs.c:272:10
	adr	r1, .LCPI4_0
.Ltmp115:
	.loc	1 0 0 is_stmt 0                 @ rt-thread/components/dfs/src/dfs_fs.c:0:0
	mov	r6, r0
.Ltmp116:
	@DEBUG_VALUE: dfs_mount:fullpath <- $r6
	.loc	1 272 10                        @ rt-thread/components/dfs/src/dfs_fs.c:272:10
	bl	strcmp
	.loc	1 272 38                        @ rt-thread/components/dfs/src/dfs_fs.c:272:38
	cbz	r0, .LBB4_22
.Ltmp117:
@ %bb.13:
	@DEBUG_VALUE: dfs_mount:path <- $r11
	@DEBUG_VALUE: dfs_mount:dev_id <- $r10
	@DEBUG_VALUE: dfs_mount:rwflag <- $r9
	@DEBUG_VALUE: dfs_mount:filesystemtype <- $r7
	@DEBUG_VALUE: dfs_mount:fullpath <- $r6
	@DEBUG_VALUE: dfs_mount:data <- [DW_OP_plus_uconst 80] [$sp+0]
	@DEBUG_VALUE: dfs_mount:fs <- 0
	.loc	1 272 42                        @ rt-thread/components/dfs/src/dfs_fs.c:272:42
	adr	r1, .LCPI4_1
	mov	r0, r6
	bl	strcmp
.Ltmp118:
	.loc	1 272 9                         @ rt-thread/components/dfs/src/dfs_fs.c:272:9
	cbz	r0, .LBB4_22
.Ltmp119:
@ %bb.14:
	@DEBUG_VALUE: dfs_mount:path <- $r11
	@DEBUG_VALUE: dfs_mount:dev_id <- $r10
	@DEBUG_VALUE: dfs_mount:rwflag <- $r9
	@DEBUG_VALUE: dfs_mount:filesystemtype <- $r7
	@DEBUG_VALUE: dfs_mount:fullpath <- $r6
	@DEBUG_VALUE: dfs_mount:data <- [DW_OP_plus_uconst 80] [$sp+0]
	@DEBUG_VALUE: dfs_mount:fs <- 0
	.loc	1 0 9                           @ rt-thread/components/dfs/src/dfs_fs.c:0:9
	add	r0, sp, #8
.Ltmp120:
	.loc	1 276 13 is_stmt 1              @ rt-thread/components/dfs/src/dfs_fs.c:276:13
	mov.w	r2, #65536
	mov	r1, r6
	bl	dfs_file_open
	mov	r5, r0
.Ltmp121:
	.loc	1 276 13 is_stmt 0              @ rt-thread/components/dfs/src/dfs_fs.c:276:13
	cmp.w	r0, #-1
	ble	.LBB4_21
.Ltmp122:
@ %bb.15:
	@DEBUG_VALUE: dfs_mount:path <- $r11
	@DEBUG_VALUE: dfs_mount:dev_id <- $r10
	@DEBUG_VALUE: dfs_mount:rwflag <- $r9
	@DEBUG_VALUE: dfs_mount:filesystemtype <- $r7
	@DEBUG_VALUE: dfs_mount:fullpath <- $r6
	@DEBUG_VALUE: dfs_mount:data <- [DW_OP_plus_uconst 80] [$sp+0]
	@DEBUG_VALUE: dfs_mount:fs <- 0
	.loc	1 0 13                          @ rt-thread/components/dfs/src/dfs_fs.c:0:13
	add	r0, sp, #8
	.loc	1 283 9 is_stmt 1               @ rt-thread/components/dfs/src/dfs_fs.c:283:9
	bl	dfs_file_close
	cmp	r5, #0
	bpl	.LBB4_22
	b	.LBB4_19
.Ltmp123:
.LBB4_16:
	@DEBUG_VALUE: dfs_mount:path <- $r11
	@DEBUG_VALUE: dfs_mount:dev_id <- $r10
	@DEBUG_VALUE: dfs_mount:rwflag <- $r9
	@DEBUG_VALUE: dfs_mount:filesystemtype <- $r7
	@DEBUG_VALUE: dfs_mount:data <- [DW_OP_plus_uconst 80] [$sp+0]
	@DEBUG_VALUE: dfs_mount:fullpath <- 0
	@DEBUG_VALUE: dfs_mount:fs <- 0
	.loc	1 0 0 is_stmt 0                 @ rt-thread/components/dfs/src/dfs_fs.c:0:0
	mvn	r0, #18
	b	.LBB4_18
.Ltmp124:
.LBB4_17:
	@DEBUG_VALUE: dfs_mount:path <- $r11
	@DEBUG_VALUE: dfs_mount:dev_id <- $r10
	@DEBUG_VALUE: dfs_mount:rwflag <- $r9
	@DEBUG_VALUE: dfs_mount:filesystemtype <- $r7
	@DEBUG_VALUE: dfs_mount:data <- [DW_OP_plus_uconst 80] [$sp+0]
	@DEBUG_VALUE: dfs_mount:fullpath <- 0
	@DEBUG_VALUE: dfs_mount:fs <- 0
	.loc	1 259 9 is_stmt 1               @ rt-thread/components/dfs/src/dfs_fs.c:259:9
	mvn	r0, #37
.Ltmp125:
.LBB4_18:
	@DEBUG_VALUE: dfs_mount:path <- $r11
	@DEBUG_VALUE: dfs_mount:dev_id <- $r10
	@DEBUG_VALUE: dfs_mount:rwflag <- $r9
	@DEBUG_VALUE: dfs_mount:filesystemtype <- $r7
	@DEBUG_VALUE: dfs_mount:data <- [DW_OP_plus_uconst 80] [$sp+0]
	@DEBUG_VALUE: dfs_mount:fs <- 0
	.loc	1 0 0 is_stmt 0                 @ rt-thread/components/dfs/src/dfs_fs.c:0:0
	bl	rt_set_errno
.Ltmp126:
.LBB4_19:
	@DEBUG_VALUE: dfs_mount:path <- $r11
	@DEBUG_VALUE: dfs_mount:dev_id <- $r10
	@DEBUG_VALUE: dfs_mount:rwflag <- $r9
	@DEBUG_VALUE: dfs_mount:filesystemtype <- $r7
	@DEBUG_VALUE: dfs_mount:data <- [DW_OP_plus_uconst 80] [$sp+0]
	mov.w	r0, #-1
	.loc	1 354 1 is_stmt 1               @ rt-thread/components/dfs/src/dfs_fs.c:354:1
	add	sp, #44
	pop.w	{r4, r5, r6, r7, r8, r9, r10, r11, pc}
.Ltmp127:
.LBB4_20:
	@DEBUG_VALUE: dfs_mount:path <- $r11
	@DEBUG_VALUE: dfs_mount:dev_id <- $r10
	@DEBUG_VALUE: dfs_mount:rwflag <- $r9
	@DEBUG_VALUE: dfs_mount:filesystemtype <- $r7
	@DEBUG_VALUE: dfs_mount:fullpath <- $r0
	@DEBUG_VALUE: dfs_mount:data <- [DW_OP_plus_uconst 80] [$sp+0]
	@DEBUG_VALUE: dfs_mount:fs <- 0
	.loc	1 267 9                         @ rt-thread/components/dfs/src/dfs_fs.c:267:9
	mvn	r0, #19
.Ltmp128:
	.loc	1 0 9 is_stmt 0                 @ rt-thread/components/dfs/src/dfs_fs.c:0:9
	b	.LBB4_18
.Ltmp129:
.LBB4_21:
	@DEBUG_VALUE: dfs_mount:path <- $r11
	@DEBUG_VALUE: dfs_mount:dev_id <- $r10
	@DEBUG_VALUE: dfs_mount:rwflag <- $r9
	@DEBUG_VALUE: dfs_mount:filesystemtype <- $r7
	@DEBUG_VALUE: dfs_mount:fullpath <- $r6
	@DEBUG_VALUE: dfs_mount:data <- [DW_OP_plus_uconst 80] [$sp+0]
	@DEBUG_VALUE: dfs_mount:fs <- 0
	.loc	1 278 13 is_stmt 1              @ rt-thread/components/dfs/src/dfs_fs.c:278:13
	mov	r0, r6
	bl	rt_free
	.loc	1 279 13                        @ rt-thread/components/dfs/src/dfs_fs.c:279:13
	mvn	r0, #19
	bl	rt_set_errno
	cmp	r5, #0
	bmi	.LBB4_19
.Ltmp130:
.LBB4_22:
	@DEBUG_VALUE: dfs_mount:path <- $r11
	@DEBUG_VALUE: dfs_mount:dev_id <- $r10
	@DEBUG_VALUE: dfs_mount:rwflag <- $r9
	@DEBUG_VALUE: dfs_mount:filesystemtype <- $r7
	@DEBUG_VALUE: dfs_mount:fullpath <- $r6
	@DEBUG_VALUE: dfs_mount:data <- [DW_OP_plus_uconst 80] [$sp+0]
	@DEBUG_VALUE: dfs_mount:fs <- 0
	.loc	1 0 13 is_stmt 0                @ rt-thread/components/dfs/src/dfs_fs.c:0:13
	str	r6, [sp, #4]                    @ 4-byte Spill
.Ltmp131:
	@DEBUG_VALUE: dfs_mount:fullpath <- [DW_OP_plus_uconst 4] [$sp+0]
	.loc	1 288 5 is_stmt 1               @ rt-thread/components/dfs/src/dfs_fs.c:288:5
	bl	dfs_lock
	movw	r6, :lower16:filesystem_table
	movs	r5, #0
	movt	r6, :upper16:filesystem_table
.Ltmp132:
	@DEBUG_VALUE: dfs_mount:iter <- $r6
	@DEBUG_VALUE: dfs_mount:fs <- 0
	.loc	1 290 5                         @ rt-thread/components/dfs/src/dfs_fs.c:290:5
	add.w	r8, r6, #96
	b	.LBB4_25
.Ltmp133:
	.p2align	2
.LBB4_23:                               @   in Loop: Header=BB4_25 Depth=1
	@DEBUG_VALUE: dfs_mount:fullpath <- [DW_OP_plus_uconst 4] [$sp+0]
	@DEBUG_VALUE: dfs_mount:path <- $r11
	@DEBUG_VALUE: dfs_mount:dev_id <- $r10
	@DEBUG_VALUE: dfs_mount:rwflag <- $r9
	@DEBUG_VALUE: dfs_mount:filesystemtype <- $r7
	@DEBUG_VALUE: dfs_mount:iter <- $r6
	@DEBUG_VALUE: dfs_mount:fs <- $r5
	@DEBUG_VALUE: dfs_mount:data <- [DW_OP_plus_uconst 80] [$sp+0]
	.loc	1 295 13                        @ rt-thread/components/dfs/src/dfs_fs.c:295:13
	cmp	r5, #0
	it	eq
	moveq	r5, r6
.Ltmp134:
.LBB4_24:                               @   in Loop: Header=BB4_25 Depth=1
	@DEBUG_VALUE: dfs_mount:fullpath <- [DW_OP_plus_uconst 4] [$sp+0]
	@DEBUG_VALUE: dfs_mount:path <- $r11
	@DEBUG_VALUE: dfs_mount:dev_id <- $r10
	@DEBUG_VALUE: dfs_mount:rwflag <- $r9
	@DEBUG_VALUE: dfs_mount:filesystemtype <- $r7
	@DEBUG_VALUE: dfs_mount:iter <- $r6
	@DEBUG_VALUE: dfs_mount:data <- [DW_OP_plus_uconst 80] [$sp+0]
	@DEBUG_VALUE: dfs_mount:fs <- $r5
	.loc	1 291 64                        @ rt-thread/components/dfs/src/dfs_fs.c:291:64
	adds	r6, #16
.Ltmp135:
	@DEBUG_VALUE: dfs_mount:iter <- $r6
.LBB4_25:                               @ =>This Inner Loop Header: Depth=1
	@DEBUG_VALUE: dfs_mount:fullpath <- [DW_OP_plus_uconst 4] [$sp+0]
	@DEBUG_VALUE: dfs_mount:path <- $r11
	@DEBUG_VALUE: dfs_mount:dev_id <- $r10
	@DEBUG_VALUE: dfs_mount:rwflag <- $r9
	@DEBUG_VALUE: dfs_mount:filesystemtype <- $r7
	@DEBUG_VALUE: dfs_mount:iter <- $r6
	@DEBUG_VALUE: dfs_mount:data <- [DW_OP_plus_uconst 80] [$sp+0]
	.loc	1 290 5                         @ rt-thread/components/dfs/src/dfs_fs.c:290:5
	cmp	r6, r8
	bhs	.LBB4_29
.Ltmp136:
@ %bb.26:                               @   in Loop: Header=BB4_25 Depth=1
	@DEBUG_VALUE: dfs_mount:fullpath <- [DW_OP_plus_uconst 4] [$sp+0]
	@DEBUG_VALUE: dfs_mount:path <- $r11
	@DEBUG_VALUE: dfs_mount:dev_id <- $r10
	@DEBUG_VALUE: dfs_mount:rwflag <- $r9
	@DEBUG_VALUE: dfs_mount:filesystemtype <- $r7
	@DEBUG_VALUE: dfs_mount:iter <- $r6
	@DEBUG_VALUE: dfs_mount:data <- [DW_OP_plus_uconst 80] [$sp+0]
	@DEBUG_VALUE: dfs_mount:fs <- $r5
	@DEBUG_VALUE: dfs_mount:iter <- $r6
	.loc	1 294 19                        @ rt-thread/components/dfs/src/dfs_fs.c:294:19
	ldr	r0, [r6, #8]
.Ltmp137:
	.loc	1 294 13 is_stmt 0              @ rt-thread/components/dfs/src/dfs_fs.c:294:13
	cmp	r0, #0
	beq	.LBB4_23
.Ltmp138:
@ %bb.27:                               @   in Loop: Header=BB4_25 Depth=1
	@DEBUG_VALUE: dfs_mount:fullpath <- [DW_OP_plus_uconst 4] [$sp+0]
	@DEBUG_VALUE: dfs_mount:path <- $r11
	@DEBUG_VALUE: dfs_mount:dev_id <- $r10
	@DEBUG_VALUE: dfs_mount:rwflag <- $r9
	@DEBUG_VALUE: dfs_mount:filesystemtype <- $r7
	@DEBUG_VALUE: dfs_mount:iter <- $r6
	@DEBUG_VALUE: dfs_mount:fs <- $r5
	@DEBUG_VALUE: dfs_mount:data <- [DW_OP_plus_uconst 80] [$sp+0]
	.loc	1 297 31 is_stmt 1              @ rt-thread/components/dfs/src/dfs_fs.c:297:31
	ldr	r0, [r6, #4]
	.loc	1 297 18 is_stmt 0              @ rt-thread/components/dfs/src/dfs_fs.c:297:18
	mov	r1, r11
	bl	strcmp
.Ltmp139:
	.loc	1 297 18                        @ rt-thread/components/dfs/src/dfs_fs.c:297:18
	cmp	r0, #0
	bne	.LBB4_24
.Ltmp140:
@ %bb.28:
	@DEBUG_VALUE: dfs_mount:fullpath <- [DW_OP_plus_uconst 4] [$sp+0]
	@DEBUG_VALUE: dfs_mount:path <- $r11
	@DEBUG_VALUE: dfs_mount:dev_id <- $r10
	@DEBUG_VALUE: dfs_mount:rwflag <- $r9
	@DEBUG_VALUE: dfs_mount:filesystemtype <- $r7
	@DEBUG_VALUE: dfs_mount:iter <- $r6
	@DEBUG_VALUE: dfs_mount:fs <- $r5
	@DEBUG_VALUE: dfs_mount:data <- [DW_OP_plus_uconst 80] [$sp+0]
	.loc	1 299 13 is_stmt 1              @ rt-thread/components/dfs/src/dfs_fs.c:299:13
	mvn	r0, #21
	bl	rt_set_errno
	ldr	r6, [sp, #4]                    @ 4-byte Reload
.Ltmp141:
	@DEBUG_VALUE: dfs_mount:fullpath <- $r6
	.loc	1 0 13 is_stmt 0                @ rt-thread/components/dfs/src/dfs_fs.c:0:13
	b	.LBB4_38
.Ltmp142:
.LBB4_29:
	@DEBUG_VALUE: dfs_mount:fullpath <- [DW_OP_plus_uconst 4] [$sp+0]
	@DEBUG_VALUE: dfs_mount:path <- $r11
	@DEBUG_VALUE: dfs_mount:dev_id <- $r10
	@DEBUG_VALUE: dfs_mount:rwflag <- $r9
	@DEBUG_VALUE: dfs_mount:filesystemtype <- $r7
	@DEBUG_VALUE: dfs_mount:iter <- $r6
	@DEBUG_VALUE: dfs_mount:data <- [DW_OP_plus_uconst 80] [$sp+0]
	.loc	1 304 22 is_stmt 1              @ rt-thread/components/dfs/src/dfs_fs.c:304:22
	cmp	r6, r8
	it	eq
	cmpeq	r5, #0
	beq	.LBB4_34
.Ltmp143:
@ %bb.30:
	@DEBUG_VALUE: dfs_mount:fullpath <- [DW_OP_plus_uconst 4] [$sp+0]
	@DEBUG_VALUE: dfs_mount:path <- $r11
	@DEBUG_VALUE: dfs_mount:dev_id <- $r10
	@DEBUG_VALUE: dfs_mount:rwflag <- $r9
	@DEBUG_VALUE: dfs_mount:filesystemtype <- $r7
	@DEBUG_VALUE: dfs_mount:iter <- $r6
	@DEBUG_VALUE: dfs_mount:data <- [DW_OP_plus_uconst 80] [$sp+0]
	.loc	1 0 22 is_stmt 0                @ rt-thread/components/dfs/src/dfs_fs.c:0:22
	ldr	r6, [sp, #4]                    @ 4-byte Reload
.Ltmp144:
	@DEBUG_VALUE: dfs_mount:fullpath <- $r6
	@DEBUG_VALUE: dfs_mount:fullpath <- $r6
	.loc	1 312 16 is_stmt 1              @ rt-thread/components/dfs/src/dfs_fs.c:312:16
	str	r6, [r5, #4]
	.loc	1 313 18                        @ rt-thread/components/dfs/src/dfs_fs.c:313:18
	ldr	r0, [r4]
	.loc	1 313 16 is_stmt 0              @ rt-thread/components/dfs/src/dfs_fs.c:313:16
	str	r0, [r5, #8]
	.loc	1 314 16 is_stmt 1              @ rt-thread/components/dfs/src/dfs_fs.c:314:16
	str.w	r10, [r5]
	.loc	1 316 5                         @ rt-thread/components/dfs/src/dfs_fs.c:316:5
	bl	dfs_unlock
	.loc	1 319 9                         @ rt-thread/components/dfs/src/dfs_fs.c:319:9
	cmp.w	r10, #0
	beq	.LBB4_32
.Ltmp145:
@ %bb.31:
	@DEBUG_VALUE: dfs_mount:path <- $r11
	@DEBUG_VALUE: dfs_mount:dev_id <- $r10
	@DEBUG_VALUE: dfs_mount:rwflag <- $r9
	@DEBUG_VALUE: dfs_mount:filesystemtype <- $r7
	@DEBUG_VALUE: dfs_mount:fullpath <- $r6
	@DEBUG_VALUE: dfs_mount:data <- [DW_OP_plus_uconst 80] [$sp+0]
	.loc	1 321 32                        @ rt-thread/components/dfs/src/dfs_fs.c:321:32
	ldr	r0, [r5]
	.loc	1 321 13 is_stmt 0              @ rt-thread/components/dfs/src/dfs_fs.c:321:13
	movs	r1, #3
	bl	rt_device_open
.Ltmp146:
	.loc	1 321 13                        @ rt-thread/components/dfs/src/dfs_fs.c:321:13
	cbnz	r0, .LBB4_37
.Ltmp147:
.LBB4_32:
	@DEBUG_VALUE: dfs_mount:path <- $r11
	@DEBUG_VALUE: dfs_mount:dev_id <- $r10
	@DEBUG_VALUE: dfs_mount:rwflag <- $r9
	@DEBUG_VALUE: dfs_mount:filesystemtype <- $r7
	@DEBUG_VALUE: dfs_mount:fullpath <- $r6
	@DEBUG_VALUE: dfs_mount:data <- [DW_OP_plus_uconst 80] [$sp+0]
	.loc	1 333 10 is_stmt 1              @ rt-thread/components/dfs/src/dfs_fs.c:333:10
	ldr	r0, [r4]
	ldr	r2, [sp, #80]
	.loc	1 333 9 is_stmt 0               @ rt-thread/components/dfs/src/dfs_fs.c:333:9
	mov	r1, r9
	.loc	1 333 17                        @ rt-thread/components/dfs/src/dfs_fs.c:333:17
	ldr	r3, [r0, #12]
	.loc	1 333 9                         @ rt-thread/components/dfs/src/dfs_fs.c:333:9
	mov	r0, r5
	blx	r3
.Ltmp148:
	.loc	1 333 9                         @ rt-thread/components/dfs/src/dfs_fs.c:333:9
	cmp.w	r0, #-1
	ble	.LBB4_35
.Ltmp149:
@ %bb.33:
	@DEBUG_VALUE: dfs_mount:path <- $r11
	@DEBUG_VALUE: dfs_mount:dev_id <- $r10
	@DEBUG_VALUE: dfs_mount:rwflag <- $r9
	@DEBUG_VALUE: dfs_mount:filesystemtype <- $r7
	@DEBUG_VALUE: dfs_mount:fullpath <- $r6
	@DEBUG_VALUE: dfs_mount:data <- [DW_OP_plus_uconst 80] [$sp+0]
	.loc	1 0 9                           @ rt-thread/components/dfs/src/dfs_fs.c:0:9
	movs	r0, #0
	.loc	1 354 1 is_stmt 1               @ rt-thread/components/dfs/src/dfs_fs.c:354:1
	add	sp, #44
	pop.w	{r4, r5, r6, r7, r8, r9, r10, r11, pc}
.Ltmp150:
.LBB4_34:
	@DEBUG_VALUE: dfs_mount:fullpath <- [DW_OP_plus_uconst 4] [$sp+0]
	@DEBUG_VALUE: dfs_mount:path <- $r11
	@DEBUG_VALUE: dfs_mount:dev_id <- $r10
	@DEBUG_VALUE: dfs_mount:rwflag <- $r9
	@DEBUG_VALUE: dfs_mount:filesystemtype <- $r7
	@DEBUG_VALUE: dfs_mount:iter <- $r6
	@DEBUG_VALUE: dfs_mount:data <- [DW_OP_plus_uconst 80] [$sp+0]
	.loc	1 306 9                         @ rt-thread/components/dfs/src/dfs_fs.c:306:9
	mvn	r0, #27
	bl	rt_set_errno
.Ltmp151:
	.loc	1 307 9                         @ rt-thread/components/dfs/src/dfs_fs.c:307:9
	movw	r0, :lower16:.L.str
	movt	r0, :upper16:.L.str
	bl	rt_kprintf
	adr	r0, .LCPI4_2
	mov	r1, r7
	bl	rt_kprintf
	movw	r0, :lower16:.L.str.2
	movt	r0, :upper16:.L.str.2
	bl	rt_kprintf
	ldr	r6, [sp, #4]                    @ 4-byte Reload
.Ltmp152:
	@DEBUG_VALUE: dfs_mount:fullpath <- $r6
	@DEBUG_VALUE: dfs_mount:fullpath <- $r6
	.loc	1 0 9 is_stmt 0                 @ rt-thread/components/dfs/src/dfs_fs.c:0:9
	b	.LBB4_38
.Ltmp153:
.LBB4_35:
	@DEBUG_VALUE: dfs_mount:path <- $r11
	@DEBUG_VALUE: dfs_mount:dev_id <- $r10
	@DEBUG_VALUE: dfs_mount:rwflag <- $r9
	@DEBUG_VALUE: dfs_mount:filesystemtype <- $r7
	@DEBUG_VALUE: dfs_mount:fullpath <- $r6
	@DEBUG_VALUE: dfs_mount:data <- [DW_OP_plus_uconst 80] [$sp+0]
	.loc	1 336 13 is_stmt 1              @ rt-thread/components/dfs/src/dfs_fs.c:336:13
	cmp.w	r10, #0
	beq	.LBB4_37
.Ltmp154:
@ %bb.36:
	@DEBUG_VALUE: dfs_mount:path <- $r11
	@DEBUG_VALUE: dfs_mount:dev_id <- $r10
	@DEBUG_VALUE: dfs_mount:rwflag <- $r9
	@DEBUG_VALUE: dfs_mount:filesystemtype <- $r7
	@DEBUG_VALUE: dfs_mount:fullpath <- $r6
	@DEBUG_VALUE: dfs_mount:data <- [DW_OP_plus_uconst 80] [$sp+0]
	.loc	1 337 33                        @ rt-thread/components/dfs/src/dfs_fs.c:337:33
	ldr	r0, [r5]
	.loc	1 337 13 is_stmt 0              @ rt-thread/components/dfs/src/dfs_fs.c:337:13
	bl	rt_device_close
.Ltmp155:
.LBB4_37:
	@DEBUG_VALUE: dfs_mount:path <- $r11
	@DEBUG_VALUE: dfs_mount:dev_id <- $r10
	@DEBUG_VALUE: dfs_mount:rwflag <- $r9
	@DEBUG_VALUE: dfs_mount:filesystemtype <- $r7
	@DEBUG_VALUE: dfs_mount:fullpath <- $r6
	@DEBUG_VALUE: dfs_mount:data <- [DW_OP_plus_uconst 80] [$sp+0]
	.loc	1 0 0                           @ rt-thread/components/dfs/src/dfs_fs.c:0:0
	bl	dfs_lock
	movs	r0, #0
	str	r0, [r5]
	str	r0, [r5, #4]
	str	r0, [r5, #8]
	str	r0, [r5, #12]
.Ltmp156:
.LBB4_38:
	@DEBUG_VALUE: dfs_mount:path <- $r11
	@DEBUG_VALUE: dfs_mount:dev_id <- $r10
	@DEBUG_VALUE: dfs_mount:rwflag <- $r9
	@DEBUG_VALUE: dfs_mount:filesystemtype <- $r7
	@DEBUG_VALUE: dfs_mount:fullpath <- $r6
	@DEBUG_VALUE: dfs_mount:data <- [DW_OP_plus_uconst 80] [$sp+0]
	@DEBUG_LABEL: dfs_mount:err1
	.loc	1 350 5 is_stmt 1               @ rt-thread/components/dfs/src/dfs_fs.c:350:5
	bl	dfs_unlock
	.loc	1 351 5                         @ rt-thread/components/dfs/src/dfs_fs.c:351:5
	mov	r0, r6
	bl	rt_free
	b	.LBB4_19
.Ltmp157:
	.p2align	2
@ %bb.39:
	.loc	1 0 5 is_stmt 0                 @ rt-thread/components/dfs/src/dfs_fs.c:0:5
.LCPI4_0:
.L.str.12:
	.asciz	"/\000\000"
.LCPI4_1:
.L.str.13:
	.asciz	"/dev\000\000\000"
.LCPI4_2:
.L.str.14:
	.asciz	"There is no space to mount this file system (%s).\000\000"
.Lfunc_end4:
	.size	dfs_mount, .Lfunc_end4-dfs_mount
	.cfi_endproc
	.cantunwind
	.fnend
                                        @ -- End function
	.section	.text.dfs_unmount,"ax",%progbits
	.hidden	dfs_unmount                     @ -- Begin function dfs_unmount
	.globl	dfs_unmount
	.p2align	3
	.type	dfs_unmount,%function
	.code	16                              @ @dfs_unmount
	.thumb_func
dfs_unmount:
.Lfunc_begin5:
	.loc	1 364 0 is_stmt 1               @ rt-thread/components/dfs/src/dfs_fs.c:364:0
	.fnstart
	.cfi_startproc
@ %bb.0:
	@DEBUG_VALUE: dfs_unmount:specialfile <- $r0
	.save	{r4, r5, r6, lr}
	push	{r4, r5, r6, lr}
	.cfi_def_cfa_offset 16
	.cfi_offset lr, -4
	.cfi_offset r6, -8
	.cfi_offset r5, -12
	.cfi_offset r4, -16
	mov	r1, r0
.Ltmp158:
	@DEBUG_VALUE: dfs_unmount:fs <- 0
	@DEBUG_VALUE: dfs_unmount:specialfile <- $r1
	.loc	1 369 16 prologue_end           @ rt-thread/components/dfs/src/dfs_fs.c:369:16
	movs	r0, #0
	@DEBUG_VALUE: dfs_unmount:specialfile <- $r1
	bl	dfs_normalize_path
.Ltmp159:
	@DEBUG_VALUE: dfs_unmount:fullpath <- $r0
	.loc	1 370 9                         @ rt-thread/components/dfs/src/dfs_fs.c:370:9
	cbz	r0, .LBB5_16
.Ltmp160:
@ %bb.1:
	@DEBUG_VALUE: dfs_unmount:fullpath <- $r0
	@DEBUG_VALUE: dfs_unmount:fs <- 0
	.loc	1 0 0 is_stmt 0                 @ rt-thread/components/dfs/src/dfs_fs.c:0:0
	mov	r4, r0
.Ltmp161:
	@DEBUG_VALUE: dfs_unmount:fullpath <- $r4
	@DEBUG_VALUE: dfs_unmount:fullpath <- $r4
	.loc	1 378 5 is_stmt 1               @ rt-thread/components/dfs/src/dfs_fs.c:378:5
	bl	dfs_lock
.Ltmp162:
	.loc	1 380 5                         @ rt-thread/components/dfs/src/dfs_fs.c:380:5
	movw	r5, :lower16:filesystem_table
	movt	r5, :upper16:filesystem_table
.Ltmp163:
	@DEBUG_VALUE: dfs_unmount:iter <- $r5
	add.w	r6, r5, #96
	b	.LBB5_3
.Ltmp164:
	.p2align	2
.LBB5_2:                                @   in Loop: Header=BB5_3 Depth=1
	@DEBUG_VALUE: dfs_unmount:iter <- $r5
	@DEBUG_VALUE: dfs_unmount:fullpath <- $r4
	@DEBUG_VALUE: dfs_unmount:fs <- 0
	.loc	1 381 64                        @ rt-thread/components/dfs/src/dfs_fs.c:381:64
	adds	r5, #16
.Ltmp165:
	@DEBUG_VALUE: dfs_unmount:iter <- $r5
.LBB5_3:                                @ =>This Inner Loop Header: Depth=1
	@DEBUG_VALUE: dfs_unmount:iter <- $r5
	@DEBUG_VALUE: dfs_unmount:fullpath <- $r4
	@DEBUG_VALUE: dfs_unmount:fs <- 0
	.loc	1 380 5                         @ rt-thread/components/dfs/src/dfs_fs.c:380:5
	cmp	r5, r6
	bhs	.LBB5_7
.Ltmp166:
@ %bb.4:                                @   in Loop: Header=BB5_3 Depth=1
	@DEBUG_VALUE: dfs_unmount:iter <- $r5
	@DEBUG_VALUE: dfs_unmount:fullpath <- $r4
	@DEBUG_VALUE: dfs_unmount:fs <- 0
	@DEBUG_VALUE: dfs_unmount:iter <- $r5
	.loc	1 384 20                        @ rt-thread/components/dfs/src/dfs_fs.c:384:20
	ldr	r0, [r5, #4]
	.loc	1 384 34 is_stmt 0              @ rt-thread/components/dfs/src/dfs_fs.c:384:34
	cmp	r0, #0
	beq	.LBB5_2
.Ltmp167:
@ %bb.5:                                @   in Loop: Header=BB5_3 Depth=1
	@DEBUG_VALUE: dfs_unmount:iter <- $r5
	@DEBUG_VALUE: dfs_unmount:fullpath <- $r4
	@DEBUG_VALUE: dfs_unmount:fs <- 0
	.loc	1 384 38                        @ rt-thread/components/dfs/src/dfs_fs.c:384:38
	mov	r1, r4
	bl	strcmp
.Ltmp168:
	.loc	1 384 13                        @ rt-thread/components/dfs/src/dfs_fs.c:384:13
	cmp	r0, #0
	bne	.LBB5_2
.Ltmp169:
@ %bb.6:
	@DEBUG_VALUE: dfs_unmount:iter <- $r5
	@DEBUG_VALUE: dfs_unmount:fullpath <- $r4
	@DEBUG_VALUE: dfs_unmount:fs <- 0
	@DEBUG_VALUE: dfs_unmount:fs <- $r5
	.loc	1 0 13                          @ rt-thread/components/dfs/src/dfs_fs.c:0:13
	cbnz	r5, .LBB5_8
	b	.LBB5_15
.Ltmp170:
.LBB5_7:
	@DEBUG_VALUE: dfs_unmount:iter <- $r5
	@DEBUG_VALUE: dfs_unmount:fullpath <- $r4
	@DEBUG_VALUE: dfs_unmount:fs <- 0
	movs	r5, #0
.Ltmp171:
	@DEBUG_VALUE: dfs_unmount:fs <- $r5
	.loc	1 391 20 is_stmt 1              @ rt-thread/components/dfs/src/dfs_fs.c:391:20
	cbz	r5, .LBB5_15
.Ltmp172:
.LBB5_8:
	@DEBUG_VALUE: dfs_unmount:fs <- $r5
	@DEBUG_VALUE: dfs_unmount:fullpath <- $r4
	.loc	1 392 13                        @ rt-thread/components/dfs/src/dfs_fs.c:392:13
	ldr	r0, [r5, #8]
	.loc	1 392 18 is_stmt 0              @ rt-thread/components/dfs/src/dfs_fs.c:392:18
	ldr	r1, [r0, #16]
	.loc	1 392 34                        @ rt-thread/components/dfs/src/dfs_fs.c:392:34
	cbz	r1, .LBB5_15
.Ltmp173:
@ %bb.9:
	@DEBUG_VALUE: dfs_unmount:fs <- $r5
	@DEBUG_VALUE: dfs_unmount:fullpath <- $r4
	.loc	1 393 9 is_stmt 1               @ rt-thread/components/dfs/src/dfs_fs.c:393:9
	mov	r0, r5
	blx	r1
.Ltmp174:
	.loc	1 391 9                         @ rt-thread/components/dfs/src/dfs_fs.c:391:9
	cmp	r0, #0
	bmi	.LBB5_15
.Ltmp175:
@ %bb.10:
	@DEBUG_VALUE: dfs_unmount:fs <- $r5
	@DEBUG_VALUE: dfs_unmount:fullpath <- $r4
	.loc	1 399 13                        @ rt-thread/components/dfs/src/dfs_fs.c:399:13
	ldr	r0, [r5]
.Ltmp176:
	.loc	1 399 9 is_stmt 0               @ rt-thread/components/dfs/src/dfs_fs.c:399:9
	cbz	r0, .LBB5_12
.Ltmp177:
@ %bb.11:
	@DEBUG_VALUE: dfs_unmount:fs <- $r5
	@DEBUG_VALUE: dfs_unmount:fullpath <- $r4
	.loc	1 400 9 is_stmt 1               @ rt-thread/components/dfs/src/dfs_fs.c:400:9
	bl	rt_device_close
.Ltmp178:
.LBB5_12:
	@DEBUG_VALUE: dfs_unmount:fs <- $r5
	@DEBUG_VALUE: dfs_unmount:fullpath <- $r4
	.loc	1 402 13                        @ rt-thread/components/dfs/src/dfs_fs.c:402:13
	ldr	r0, [r5, #4]
.Ltmp179:
	.loc	1 402 9 is_stmt 0               @ rt-thread/components/dfs/src/dfs_fs.c:402:9
	cbz	r0, .LBB5_14
.Ltmp180:
@ %bb.13:
	@DEBUG_VALUE: dfs_unmount:fs <- $r5
	@DEBUG_VALUE: dfs_unmount:fullpath <- $r4
	.loc	1 403 9 is_stmt 1               @ rt-thread/components/dfs/src/dfs_fs.c:403:9
	bl	rt_free
.Ltmp181:
.LBB5_14:
	@DEBUG_VALUE: dfs_unmount:fs <- $r5
	@DEBUG_VALUE: dfs_unmount:fullpath <- $r4
	.loc	1 0 9 is_stmt 0                 @ rt-thread/components/dfs/src/dfs_fs.c:0:9
	movs	r6, #0
	.loc	1 406 5 is_stmt 1               @ rt-thread/components/dfs/src/dfs_fs.c:406:5
	strd	r6, r6, [r5]
	strd	r6, r6, [r5, #8]
	.loc	1 408 5                         @ rt-thread/components/dfs/src/dfs_fs.c:408:5
	bl	dfs_unlock
	.loc	1 409 5                         @ rt-thread/components/dfs/src/dfs_fs.c:409:5
	mov	r0, r4
	bl	rt_free
	.loc	1 418 1                         @ rt-thread/components/dfs/src/dfs_fs.c:418:1
	mov	r0, r6
	pop	{r4, r5, r6, pc}
.Ltmp182:
.LBB5_15:
	@DEBUG_VALUE: dfs_unmount:fs <- $r5
	@DEBUG_VALUE: dfs_unmount:fullpath <- $r4
	@DEBUG_LABEL: dfs_unmount:err1
	.loc	1 414 5                         @ rt-thread/components/dfs/src/dfs_fs.c:414:5
	bl	dfs_unlock
	.loc	1 415 5                         @ rt-thread/components/dfs/src/dfs_fs.c:415:5
	mov	r0, r4
	bl	rt_free
	mov.w	r0, #-1
	.loc	1 418 1                         @ rt-thread/components/dfs/src/dfs_fs.c:418:1
	pop	{r4, r5, r6, pc}
.Ltmp183:
.LBB5_16:
	@DEBUG_VALUE: dfs_unmount:fullpath <- $r0
	@DEBUG_VALUE: dfs_unmount:fs <- 0
	.loc	1 372 9                         @ rt-thread/components/dfs/src/dfs_fs.c:372:9
	mvn	r0, #19
.Ltmp184:
	bl	rt_set_errno
	mov.w	r0, #-1
.Ltmp185:
	.loc	1 418 1                         @ rt-thread/components/dfs/src/dfs_fs.c:418:1
	pop	{r4, r5, r6, pc}
.Ltmp186:
.Lfunc_end5:
	.size	dfs_unmount, .Lfunc_end5-dfs_unmount
	.cfi_endproc
	.cantunwind
	.fnend
                                        @ -- End function
	.section	.text.dfs_mkfs,"ax",%progbits
	.hidden	dfs_mkfs                        @ -- Begin function dfs_mkfs
	.globl	dfs_mkfs
	.p2align	3
	.type	dfs_mkfs,%function
	.code	16                              @ @dfs_mkfs
	.thumb_func
dfs_mkfs:
.Lfunc_begin6:
	.loc	1 429 0                         @ rt-thread/components/dfs/src/dfs_fs.c:429:0
	.fnstart
	.cfi_startproc
@ %bb.0:
	@DEBUG_VALUE: dfs_mkfs:fs_name <- $r0
	@DEBUG_VALUE: dfs_mkfs:device_name <- $r1
	.save	{r4, r5, r6, r7, lr}
	push	{r4, r5, r6, r7, lr}
	.cfi_def_cfa_offset 20
	.cfi_offset lr, -4
	.cfi_offset r7, -8
	.cfi_offset r6, -12
	.cfi_offset r5, -16
	.cfi_offset r4, -20
	.pad	#4
	sub	sp, #4
	.cfi_def_cfa_offset 24
	mov	r6, r1
.Ltmp187:
	@DEBUG_VALUE: dfs_mkfs:device_name <- $r6
	mov	r4, r0
.Ltmp188:
	@DEBUG_VALUE: dfs_mkfs:fs_name <- $r4
	@DEBUG_VALUE: dfs_mkfs:dev_id <- 0
	@DEBUG_VALUE: dfs_mkfs:fs_name <- $r4
	.loc	1 434 9 prologue_end            @ rt-thread/components/dfs/src/dfs_fs.c:434:9
	cbz	r1, .LBB6_9
.Ltmp189:
@ %bb.1:
	@DEBUG_VALUE: dfs_mkfs:device_name <- $r6
	@DEBUG_VALUE: dfs_mkfs:fs_name <- $r4
	@DEBUG_VALUE: dfs_mkfs:dev_id <- 0
	.loc	1 435 18                        @ rt-thread/components/dfs/src/dfs_fs.c:435:18
	mov	r0, r6
	bl	rt_device_find
	mov	r5, r0
.Ltmp190:
	@DEBUG_VALUE: dfs_mkfs:dev_id <- $r5
	@DEBUG_VALUE: dfs_mkfs:dev_id <- $r5
	.loc	1 437 9                         @ rt-thread/components/dfs/src/dfs_fs.c:437:9
	cbz	r5, .LBB6_10
.Ltmp191:
.LBB6_2:
	@DEBUG_VALUE: dfs_mkfs:device_name <- $r6
	@DEBUG_VALUE: dfs_mkfs:dev_id <- $r5
	@DEBUG_VALUE: dfs_mkfs:fs_name <- $r4
	.loc	1 445 5                         @ rt-thread/components/dfs/src/dfs_fs.c:445:5
	bl	dfs_lock
	movw	r7, :lower16:filesystem_operation_table
	movs	r6, #0
.Ltmp192:
	@DEBUG_VALUE: dfs_mkfs:device_name <- [DW_OP_LLVM_entry_value 1] $r1
	@DEBUG_VALUE: dfs_mkfs:index <- 0
	.loc	1 0 5 is_stmt 0                 @ rt-thread/components/dfs/src/dfs_fs.c:0:5
	movt	r7, :upper16:filesystem_operation_table
	b	.LBB6_4
.Ltmp193:
	.p2align	2
.LBB6_3:                                @   in Loop: Header=BB6_4 Depth=1
	@DEBUG_VALUE: dfs_mkfs:index <- $r6
	@DEBUG_VALUE: dfs_mkfs:dev_id <- $r5
	@DEBUG_VALUE: dfs_mkfs:fs_name <- $r4
	@DEBUG_VALUE: dfs_mkfs:device_name <- [DW_OP_LLVM_entry_value 1] $r1
	.loc	1 447 61 is_stmt 1              @ rt-thread/components/dfs/src/dfs_fs.c:447:61
	adds	r6, #1
.Ltmp194:
	@DEBUG_VALUE: dfs_mkfs:index <- $r6
	.loc	1 447 5 is_stmt 0               @ rt-thread/components/dfs/src/dfs_fs.c:447:5
	cmp	r6, #6
	beq	.LBB6_8
.Ltmp195:
.LBB6_4:                                @ =>This Inner Loop Header: Depth=1
	@DEBUG_VALUE: dfs_mkfs:dev_id <- $r5
	@DEBUG_VALUE: dfs_mkfs:fs_name <- $r4
	@DEBUG_VALUE: dfs_mkfs:device_name <- [DW_OP_LLVM_entry_value 1] $r1
	@DEBUG_VALUE: dfs_mkfs:index <- $r6
	.loc	1 449 13 is_stmt 1              @ rt-thread/components/dfs/src/dfs_fs.c:449:13
	ldr.w	r0, [r7, r6, lsl #2]
	.loc	1 449 55 is_stmt 0              @ rt-thread/components/dfs/src/dfs_fs.c:449:55
	cmp	r0, #0
	beq	.LBB6_3
.Ltmp196:
@ %bb.5:                                @   in Loop: Header=BB6_4 Depth=1
	@DEBUG_VALUE: dfs_mkfs:index <- $r6
	@DEBUG_VALUE: dfs_mkfs:dev_id <- $r5
	@DEBUG_VALUE: dfs_mkfs:fs_name <- $r4
	@DEBUG_VALUE: dfs_mkfs:device_name <- [DW_OP_LLVM_entry_value 1] $r1
	.loc	1 450 55 is_stmt 1              @ rt-thread/components/dfs/src/dfs_fs.c:450:55
	ldr	r0, [r0]
	.loc	1 450 13 is_stmt 0              @ rt-thread/components/dfs/src/dfs_fs.c:450:13
	mov	r1, r4
	bl	strcmp
.Ltmp197:
	.loc	1 449 13 is_stmt 1              @ rt-thread/components/dfs/src/dfs_fs.c:449:13
	cmp	r0, #0
	bne	.LBB6_3
.Ltmp198:
@ %bb.6:
	@DEBUG_VALUE: dfs_mkfs:index <- $r6
	@DEBUG_VALUE: dfs_mkfs:dev_id <- $r5
	@DEBUG_VALUE: dfs_mkfs:fs_name <- $r4
	@DEBUG_VALUE: dfs_mkfs:device_name <- [DW_OP_LLVM_entry_value 1] $r1
	.loc	1 453 5                         @ rt-thread/components/dfs/src/dfs_fs.c:453:5
	bl	dfs_unlock
.Ltmp199:
	.loc	1 458 48                        @ rt-thread/components/dfs/src/dfs_fs.c:458:48
	ldr.w	r0, [r7, r6, lsl #2]
.Ltmp200:
	@DEBUG_VALUE: ops <- $r0
	.loc	1 459 18                        @ rt-thread/components/dfs/src/dfs_fs.c:459:18
	ldr	r1, [r0, #20]
.Ltmp201:
	.loc	1 459 13 is_stmt 0              @ rt-thread/components/dfs/src/dfs_fs.c:459:13
	cbz	r1, .LBB6_13
.Ltmp202:
@ %bb.7:
	@DEBUG_VALUE: dfs_mkfs:index <- $r6
	@DEBUG_VALUE: dfs_mkfs:dev_id <- $r5
	@DEBUG_VALUE: dfs_mkfs:fs_name <- $r4
	@DEBUG_VALUE: ops <- $r0
	@DEBUG_VALUE: dfs_mkfs:device_name <- [DW_OP_LLVM_entry_value 1] $r1
	.loc	1 466 16 is_stmt 1              @ rt-thread/components/dfs/src/dfs_fs.c:466:16
	mov	r0, r5
.Ltmp203:
	blx	r1
.Ltmp204:
	.loc	1 472 1                         @ rt-thread/components/dfs/src/dfs_fs.c:472:1
	add	sp, #4
	pop	{r4, r5, r6, r7, pc}
.Ltmp205:
.LBB6_8:
	@DEBUG_VALUE: dfs_mkfs:index <- $r6
	@DEBUG_VALUE: dfs_mkfs:dev_id <- $r5
	@DEBUG_VALUE: dfs_mkfs:fs_name <- $r4
	@DEBUG_VALUE: dfs_mkfs:device_name <- [DW_OP_LLVM_entry_value 1] $r1
	.loc	1 453 5                         @ rt-thread/components/dfs/src/dfs_fs.c:453:5
	bl	dfs_unlock
.Ltmp206:
	.loc	1 469 5                         @ rt-thread/components/dfs/src/dfs_fs.c:469:5
	movw	r0, :lower16:.L.str
	movt	r0, :upper16:.L.str
	bl	rt_kprintf
	adr	r0, .LCPI6_1
	mov	r1, r4
	b	.LBB6_11
.Ltmp207:
.LBB6_9:
	@DEBUG_VALUE: dfs_mkfs:device_name <- $r6
	@DEBUG_VALUE: dfs_mkfs:fs_name <- $r4
	@DEBUG_VALUE: dfs_mkfs:dev_id <- 0
	.loc	1 0 5 is_stmt 0                 @ rt-thread/components/dfs/src/dfs_fs.c:0:5
	movs	r5, #0
.Ltmp208:
	@DEBUG_VALUE: dfs_mkfs:dev_id <- $r5
	.loc	1 437 9 is_stmt 1               @ rt-thread/components/dfs/src/dfs_fs.c:437:9
	cmp	r5, #0
	bne	.LBB6_2
.Ltmp209:
.LBB6_10:
	@DEBUG_VALUE: dfs_mkfs:device_name <- $r6
	@DEBUG_VALUE: dfs_mkfs:dev_id <- $r5
	@DEBUG_VALUE: dfs_mkfs:fs_name <- $r4
	.loc	1 439 9                         @ rt-thread/components/dfs/src/dfs_fs.c:439:9
	mvn	r0, #18
	bl	rt_set_errno
.Ltmp210:
	.loc	1 440 9                         @ rt-thread/components/dfs/src/dfs_fs.c:440:9
	movw	r0, :lower16:.L.str
	movt	r0, :upper16:.L.str
	bl	rt_kprintf
	adr	r0, .LCPI6_2
	mov	r1, r6
.Ltmp211:
.LBB6_11:
	@DEBUG_VALUE: dfs_mkfs:dev_id <- $r5
	@DEBUG_VALUE: dfs_mkfs:fs_name <- $r4
	.loc	1 0 0 is_stmt 0                 @ rt-thread/components/dfs/src/dfs_fs.c:0:0
	bl	rt_kprintf
	movw	r0, :lower16:.L.str.2
	movt	r0, :upper16:.L.str.2
	bl	rt_kprintf
.Ltmp212:
.LBB6_12:
	@DEBUG_VALUE: dfs_mkfs:dev_id <- $r5
	@DEBUG_VALUE: dfs_mkfs:fs_name <- $r4
	mov.w	r0, #-1
	.loc	1 472 1 is_stmt 1               @ rt-thread/components/dfs/src/dfs_fs.c:472:1
	add	sp, #4
	pop	{r4, r5, r6, r7, pc}
.Ltmp213:
.LBB6_13:
	@DEBUG_VALUE: dfs_mkfs:index <- $r6
	@DEBUG_VALUE: dfs_mkfs:dev_id <- $r5
	@DEBUG_VALUE: dfs_mkfs:fs_name <- $r4
	@DEBUG_VALUE: ops <- $r0
	@DEBUG_VALUE: dfs_mkfs:device_name <- [DW_OP_LLVM_entry_value 1] $r1
	.loc	1 461 13                        @ rt-thread/components/dfs/src/dfs_fs.c:461:13
	movw	r0, :lower16:.L.str
.Ltmp214:
	movt	r0, :upper16:.L.str
	bl	rt_kprintf
	adr	r0, .LCPI6_0
	mov	r1, r4
	bl	rt_kprintf
	movw	r0, :lower16:.L.str.2
	movt	r0, :upper16:.L.str.2
	bl	rt_kprintf
.Ltmp215:
	.loc	1 462 13                        @ rt-thread/components/dfs/src/dfs_fs.c:462:13
	mvn	r0, #37
	bl	rt_set_errno
	b	.LBB6_12
.Ltmp216:
	.p2align	2
@ %bb.14:
	.loc	1 0 13 is_stmt 0                @ rt-thread/components/dfs/src/dfs_fs.c:0:13
.LCPI6_0:
.L.str.16:
	.asciz	"The file system (%s) mkfs function was not implement\000\000\000"
.LCPI6_1:
.L.str.17:
	.asciz	"File system (%s) was not found."
.LCPI6_2:
.L.str.15:
	.asciz	"Device (%s) was not found\000\000"
.Lfunc_end6:
	.size	dfs_mkfs, .Lfunc_end6-dfs_mkfs
	.cfi_endproc
	.cantunwind
	.fnend
                                        @ -- End function
	.section	.text.dfs_statfs,"ax",%progbits
	.hidden	dfs_statfs                      @ -- Begin function dfs_statfs
	.globl	dfs_statfs
	.p2align	3
	.type	dfs_statfs,%function
	.code	16                              @ @dfs_statfs
	.thumb_func
dfs_statfs:
.Lfunc_begin7:
	.loc	1 483 0 is_stmt 1               @ rt-thread/components/dfs/src/dfs_fs.c:483:0
	.fnstart
	.cfi_startproc
@ %bb.0:
	@DEBUG_VALUE: dfs_statfs:path <- $r0
	@DEBUG_VALUE: dfs_statfs:buffer <- $r1
	.save	{r4, lr}
	push	{r4, lr}
	.cfi_def_cfa_offset 8
	.cfi_offset lr, -4
	.cfi_offset r4, -8
	mov	r4, r1
.Ltmp217:
	@DEBUG_VALUE: dfs_statfs:buffer <- $r4
	@DEBUG_VALUE: dfs_statfs:buffer <- $r4
	@DEBUG_VALUE: dfs_statfs:path <- $r0
	@DEBUG_VALUE: dfs_statfs:path <- $r0
	.loc	1 486 10 prologue_end           @ rt-thread/components/dfs/src/dfs_fs.c:486:10
	bl	dfs_filesystem_lookup
.Ltmp218:
	@DEBUG_VALUE: dfs_statfs:path <- [DW_OP_LLVM_entry_value 1] $r0
	@DEBUG_VALUE: dfs_statfs:fs <- $r0
	.loc	1 487 9                         @ rt-thread/components/dfs/src/dfs_fs.c:487:9
	cbz	r0, .LBB7_3
.Ltmp219:
@ %bb.1:
	@DEBUG_VALUE: dfs_statfs:buffer <- $r4
	@DEBUG_VALUE: dfs_statfs:fs <- $r0
	@DEBUG_VALUE: dfs_statfs:path <- [DW_OP_LLVM_entry_value 1] $r0
	.loc	1 489 17                        @ rt-thread/components/dfs/src/dfs_fs.c:489:17
	ldr	r1, [r0, #8]
	.loc	1 489 22 is_stmt 0              @ rt-thread/components/dfs/src/dfs_fs.c:489:22
	ldr	r2, [r1, #24]
.Ltmp220:
	.loc	1 489 13                        @ rt-thread/components/dfs/src/dfs_fs.c:489:13
	cbz	r2, .LBB7_3
.Ltmp221:
@ %bb.2:
	@DEBUG_VALUE: dfs_statfs:buffer <- $r4
	@DEBUG_VALUE: dfs_statfs:fs <- $r0
	@DEBUG_VALUE: dfs_statfs:path <- [DW_OP_LLVM_entry_value 1] $r0
	.loc	1 490 20 is_stmt 1              @ rt-thread/components/dfs/src/dfs_fs.c:490:20
	mov	r1, r4
	blx	r2
.Ltmp222:
	.loc	1 494 1                         @ rt-thread/components/dfs/src/dfs_fs.c:494:1
	pop	{r4, pc}
.Ltmp223:
.LBB7_3:
	@DEBUG_VALUE: dfs_statfs:buffer <- $r4
	@DEBUG_VALUE: dfs_statfs:fs <- $r0
	@DEBUG_VALUE: dfs_statfs:path <- [DW_OP_LLVM_entry_value 1] $r0
	.loc	1 0 1 is_stmt 0                 @ rt-thread/components/dfs/src/dfs_fs.c:0:1
	mov.w	r0, #-1
.Ltmp224:
	.loc	1 494 1                         @ rt-thread/components/dfs/src/dfs_fs.c:494:1
	pop	{r4, pc}
.Ltmp225:
.Lfunc_end7:
	.size	dfs_statfs, .Lfunc_end7-dfs_statfs
	.cfi_endproc
	.cantunwind
	.fnend
                                        @ -- End function
	.section	.text.mkfs,"ax",%progbits
	.hidden	mkfs                            @ -- Begin function mkfs
	.globl	mkfs
	.p2align	3
	.type	mkfs,%function
	.code	16                              @ @mkfs
	.thumb_func
mkfs:
.Lfunc_begin8:
	.loc	1 611 0 is_stmt 1               @ rt-thread/components/dfs/src/dfs_fs.c:611:0
	.fnstart
	.cfi_startproc
@ %bb.0:
	@DEBUG_VALUE: mkfs:fs_name <- $r0
	@DEBUG_VALUE: mkfs:fs_name <- $r0
	@DEBUG_VALUE: mkfs:device_name <- $r1
	@DEBUG_VALUE: mkfs:device_name <- $r1
	@DEBUG_VALUE: mkfs:device_name <- $r1
	@DEBUG_VALUE: mkfs:fs_name <- $r0
	.save	{r7, lr}
	push	{r7, lr}
	.cfi_def_cfa_offset 8
	.cfi_offset lr, -4
	.cfi_offset r7, -8
.Ltmp226:
	.loc	1 612 5 prologue_end            @ rt-thread/components/dfs/src/dfs_fs.c:612:5
	bl	dfs_mkfs
.Ltmp227:
	@DEBUG_VALUE: mkfs:device_name <- [DW_OP_LLVM_entry_value 1] $r1
	@DEBUG_VALUE: mkfs:fs_name <- [DW_OP_LLVM_entry_value 1] $r0
	.loc	1 613 1                         @ rt-thread/components/dfs/src/dfs_fs.c:613:1
	pop	{r7, pc}
.Ltmp228:
.Lfunc_end8:
	.size	mkfs, .Lfunc_end8-mkfs
	.cfi_endproc
	.cantunwind
	.fnend
                                        @ -- End function
	.section	.text.df,"ax",%progbits
	.hidden	df                              @ -- Begin function df
	.globl	df
	.p2align	3
	.type	df,%function
	.code	16                              @ @df
	.thumb_func
df:
.Lfunc_begin9:
	.loc	1 617 0                         @ rt-thread/components/dfs/src/dfs_fs.c:617:0
	.fnstart
	.cfi_startproc
@ %bb.0:
	@DEBUG_VALUE: df:path <- $r0
	@DEBUG_VALUE: df:path <- $r0
	.save	{r4, r5, r6, r7, lr}
	push	{r4, r5, r6, r7, lr}
	.cfi_def_cfa_offset 20
	.cfi_offset lr, -4
	.cfi_offset r7, -8
	.cfi_offset r6, -12
	.cfi_offset r5, -16
	.cfi_offset r4, -20
	.pad	#20
	sub	sp, #20
	.cfi_def_cfa_offset 40
.Ltmp229:
	@DEBUG_VALUE: df:minor <- 0
	@DEBUG_VALUE: df:unit_index <- 0
	add	r1, sp, #8
	@DEBUG_VALUE: df:path <- $r0
.Ltmp230:
	.loc	1 626 14 prologue_end           @ rt-thread/components/dfs/src/dfs_fs.c:626:14
	bl	dfs_statfs
.Ltmp231:
	@DEBUG_VALUE: df:path <- [DW_OP_LLVM_entry_value 1] $r0
	@DEBUG_VALUE: df:result <- $r0
	.loc	1 627 9                         @ rt-thread/components/dfs/src/dfs_fs.c:627:9
	cbz	r0, .LBB9_2
.Ltmp232:
@ %bb.1:
	@DEBUG_VALUE: df:result <- $r0
	@DEBUG_VALUE: df:path <- [DW_OP_LLVM_entry_value 1] $r0
	@DEBUG_VALUE: df:unit_index <- 0
	@DEBUG_VALUE: df:minor <- 0
	.loc	1 629 9                         @ rt-thread/components/dfs/src/dfs_fs.c:629:9
	adr	r0, .LCPI9_0
.Ltmp233:
	bl	rt_kprintf
	mov.w	r0, #-1
.Ltmp234:
	.loc	1 645 1                         @ rt-thread/components/dfs/src/dfs_fs.c:645:1
	add	sp, #20
	pop	{r4, r5, r6, r7, pc}
.Ltmp235:
.LBB9_2:
	@DEBUG_VALUE: df:result <- $r0
	@DEBUG_VALUE: df:path <- [DW_OP_LLVM_entry_value 1] $r0
	@DEBUG_VALUE: df:unit_index <- 0
	@DEBUG_VALUE: df:minor <- 0
	.loc	1 633 30                        @ rt-thread/components/dfs/src/dfs_fs.c:633:30
	ldr.w	r12, [sp, #8]
	.loc	1 633 60 is_stmt 0              @ rt-thread/components/dfs/src/dfs_fs.c:633:60
	ldr.w	lr, [sp, #16]
	.loc	1 633 39                        @ rt-thread/components/dfs/src/dfs_fs.c:633:39
	umull	r1, r0, lr, r12
.Ltmp236:
	.loc	1 0 39                          @ rt-thread/components/dfs/src/dfs_fs.c:0:39
	subs.w	r2, r1, #1048576
	.loc	1 633 69                        @ rt-thread/components/dfs/src/dfs_fs.c:633:69
	lsr.w	r1, r1, #10
	sbcs	r2, r0, #0
	orr.w	r1, r1, r0, lsl #22
.Ltmp237:
	@DEBUG_VALUE: df:cap <- [DW_OP_LLVM_fragment 32 32] undef
	@DEBUG_VALUE: df:cap <- [DW_OP_LLVM_fragment 0 32] $r1
	@DEBUG_VALUE: df:unit_index <- 0
	@DEBUG_VALUE: df:minor <- 0
	.loc	1 0 69                          @ rt-thread/components/dfs/src/dfs_fs.c:0:69
	mov.w	r2, #0
.Ltmp238:
	.loc	1 634 5 is_stmt 1               @ rt-thread/components/dfs/src/dfs_fs.c:634:5
	bhs	.LBB9_4
.Ltmp239:
@ %bb.3:
	@DEBUG_VALUE: df:cap <- [DW_OP_LLVM_fragment 0 32] $r1
	@DEBUG_VALUE: df:path <- [DW_OP_LLVM_entry_value 1] $r0
	@DEBUG_VALUE: df:unit_index <- 0
	@DEBUG_VALUE: df:minor <- 0
	.loc	1 0 0 is_stmt 0                 @ rt-thread/components/dfs/src/dfs_fs.c:0:0
	movs	r0, #0
	b	.LBB9_8
.Ltmp240:
.LBB9_4:
	@DEBUG_VALUE: df:cap <- [DW_OP_LLVM_fragment 0 32] $r1
	@DEBUG_VALUE: df:path <- [DW_OP_LLVM_entry_value 1] $r0
	@DEBUG_VALUE: df:unit_index <- 0
	@DEBUG_VALUE: df:minor <- 0
	lsrs	r5, r0, #10
.Ltmp241:
	@DEBUG_VALUE: df:cap <- [DW_OP_LLVM_fragment 32 32] $r5
	movs	r3, #0
.Ltmp242:
	.p2align	2
.LBB9_5:                                @ =>This Inner Loop Header: Depth=1
	@DEBUG_VALUE: df:cap <- [DW_OP_LLVM_fragment 32 32] $r5
	@DEBUG_VALUE: df:cap <- [DW_OP_LLVM_fragment 0 32] $r1
	@DEBUG_VALUE: df:path <- [DW_OP_LLVM_entry_value 1] $r0
	mov	r0, r5
.Ltmp243:
	.loc	1 639 19 is_stmt 1              @ rt-thread/components/dfs/src/dfs_fs.c:639:19
	asrs	r5, r5, #31
.Ltmp244:
	.loc	1 0 19 is_stmt 0                @ rt-thread/components/dfs/src/dfs_fs.c:0:19
	mov	r4, r1
.Ltmp245:
	@DEBUG_VALUE: df:minor <- [DW_OP_constu 1024, DW_OP_mod, DW_OP_constu 10, DW_OP_mul, DW_OP_constu 1024, DW_OP_div, DW_OP_LLVM_convert 64 7, DW_OP_LLVM_convert 32 7, DW_OP_stack_value, DW_OP_LLVM_fragment 0 32] $r4
	@DEBUG_VALUE: df:cap <- [DW_OP_LLVM_fragment 32 32] $r0
	@DEBUG_VALUE: df:cap <- [DW_OP_LLVM_fragment 0 32] $r4
	@DEBUG_VALUE: df:unit_index <- undef
	.loc	1 639 19                        @ rt-thread/components/dfs/src/dfs_fs.c:639:19
	adds.w	r1, r1, r5, lsr #22
	adc	r5, r0, #0
.Ltmp246:
	.loc	1 634 37 is_stmt 1              @ rt-thread/components/dfs/src/dfs_fs.c:634:37
	subs	r3, #1
.Ltmp247:
	.loc	1 639 19                        @ rt-thread/components/dfs/src/dfs_fs.c:639:19
	lsr.w	r1, r1, #10
.Ltmp248:
	.loc	1 634 37                        @ rt-thread/components/dfs/src/dfs_fs.c:634:37
	adc	r6, r2, #0
	subs.w	r7, r4, #1048576
.Ltmp249:
	.loc	1 639 19                        @ rt-thread/components/dfs/src/dfs_fs.c:639:19
	orr.w	r1, r1, r5, lsl #22
.Ltmp250:
	@DEBUG_VALUE: df:cap <- [DW_OP_LLVM_fragment 0 32] $r1
	.loc	1 0 19 is_stmt 0                @ rt-thread/components/dfs/src/dfs_fs.c:0:19
	sbcs	r7, r0, #0
	.loc	1 639 19                        @ rt-thread/components/dfs/src/dfs_fs.c:639:19
	asr.w	r5, r5, #10
.Ltmp251:
	@DEBUG_VALUE: df:cap <- [DW_OP_LLVM_fragment 32 32] $r5
	@DEBUG_VALUE: df:unit_index <- [DW_OP_plus_uconst 1, DW_OP_stack_value] undef
	.loc	1 634 5 is_stmt 1               @ rt-thread/components/dfs/src/dfs_fs.c:634:5
	blt	.LBB9_7
.Ltmp252:
@ %bb.6:                                @   in Loop: Header=BB9_5 Depth=1
	@DEBUG_VALUE: df:cap <- [DW_OP_LLVM_fragment 32 32] $r5
	@DEBUG_VALUE: df:minor <- [DW_OP_constu 1024, DW_OP_mod, DW_OP_constu 10, DW_OP_mul, DW_OP_constu 1024, DW_OP_div, DW_OP_LLVM_convert 64 7, DW_OP_LLVM_convert 32 7, DW_OP_stack_value, DW_OP_LLVM_fragment 0 32] $r4
	@DEBUG_VALUE: df:cap <- [DW_OP_LLVM_fragment 0 32] $r1
	@DEBUG_VALUE: df:path <- [DW_OP_LLVM_entry_value 1] $r0
	cmp	r6, #0
	beq	.LBB9_5
.Ltmp253:
.LBB9_7:
	@DEBUG_VALUE: df:cap <- [DW_OP_LLVM_fragment 32 32] $r5
	@DEBUG_VALUE: df:minor <- [DW_OP_constu 1024, DW_OP_mod, DW_OP_constu 10, DW_OP_mul, DW_OP_constu 1024, DW_OP_div, DW_OP_LLVM_convert 64 7, DW_OP_LLVM_convert 32 7, DW_OP_stack_value, DW_OP_LLVM_fragment 0 32] $r4
	@DEBUG_VALUE: df:cap <- [DW_OP_LLVM_fragment 0 32] $r1
	@DEBUG_VALUE: df:path <- [DW_OP_LLVM_entry_value 1] $r0
	.loc	1 0 5 is_stmt 0                 @ rt-thread/components/dfs/src/dfs_fs.c:0:5
	lsls	r2, r5, #10
	orr.w	r2, r2, r1, lsr #22
	subs.w	r4, r4, r1, lsl #10
.Ltmp254:
	sbcs	r0, r2
	movs	r2, #10
.Ltmp255:
	.loc	1 638 30 is_stmt 1              @ rt-thread/components/dfs/src/dfs_fs.c:638:30
	umull	r5, r6, r4, r2
.Ltmp256:
	add.w	r0, r0, r0, lsl #2
	lsls	r5, r0, #1
	add.w	r0, r6, r0, lsl #1
	.loc	1 638 35 is_stmt 0              @ rt-thread/components/dfs/src/dfs_fs.c:638:35
	asrs	r0, r0, #31
	lsrs	r0, r0, #22
	umlal	r0, r5, r4, r2
	lsrs	r0, r0, #10
	orr.w	r2, r0, r5, lsl #22
.Ltmp257:
	.loc	1 634 5 is_stmt 1               @ rt-thread/components/dfs/src/dfs_fs.c:634:5
	rsbs	r0, r3, #0
.Ltmp258:
.LBB9_8:
	@DEBUG_VALUE: df:cap <- [DW_OP_LLVM_fragment 0 32] $r1
	@DEBUG_VALUE: df:path <- [DW_OP_LLVM_entry_value 1] $r0
	.loc	1 643 43                        @ rt-thread/components/dfs/src/dfs_fs.c:643:43
	adr	r3, .LCPI9_1
	.loc	1 642 5                         @ rt-thread/components/dfs/src/dfs_fs.c:642:5
	str.w	lr, [sp]
	str.w	r12, [sp, #4]
	.loc	1 643 43                        @ rt-thread/components/dfs/src/dfs_fs.c:643:43
	ldr.w	r3, [r3, r0, lsl #2]
	.loc	1 642 5                         @ rt-thread/components/dfs/src/dfs_fs.c:642:5
	adr	r0, .LCPI9_2
	bl	rt_kprintf
.Ltmp259:
	.loc	1 0 5 is_stmt 0                 @ rt-thread/components/dfs/src/dfs_fs.c:0:5
	movs	r0, #0
	.loc	1 645 1 is_stmt 1               @ rt-thread/components/dfs/src/dfs_fs.c:645:1
	add	sp, #20
	pop	{r4, r5, r6, r7, pc}
.Ltmp260:
	.p2align	2
@ %bb.9:
	.loc	1 0 1 is_stmt 0                 @ rt-thread/components/dfs/src/dfs_fs.c:0:1
.LCPI9_0:
.L.str.21:
	.asciz	"dfs_statfs failed.\n"
.LCPI9_1:
.L__const.df.unit_str:
	.long	.L.str.18
	.long	.L.str.19
	.long	.L.str.20
.LCPI9_2:
.L.str.22:
	.asciz	"disk free: %d.%d %s [ %d block, %d bytes per block ]\n\000\000"
.Lfunc_end9:
	.size	df, .Lfunc_end9-df
	.cfi_endproc
	.cantunwind
	.fnend
                                        @ -- End function
	.type	.L.str,%object                  @ @.str
	.section	.rodata.str1.1,"aMS",%progbits,1
.L.str:
	.asciz	"[E/DFS] "
	.size	.L.str, 9

	.type	.L.str.2,%object                @ @.str.2
.L.str.2:
	.asciz	"\n"
	.size	.L.str.2, 2

	.type	.L__FUNCTION__.dfs_filesystem_get_partition,%object @ @__FUNCTION__.dfs_filesystem_get_partition
.L__FUNCTION__.dfs_filesystem_get_partition:
	.asciz	"dfs_filesystem_get_partition"
	.size	.L__FUNCTION__.dfs_filesystem_get_partition, 29

	.type	.L.str.9,%object                @ @.str.9
.L.str.9:
	.asciz	"%d.%d%s"
	.size	.L.str.9, 8

	.hidden	__fsym_mkfs_name                @ @__fsym_mkfs_name
	.type	__fsym_mkfs_name,%object
	.section	.rodata.name,"a",%progbits
	.globl	__fsym_mkfs_name
__fsym_mkfs_name:
	.asciz	"mkfs"
	.size	__fsym_mkfs_name, 5

	.hidden	__fsym_mkfs_desc                @ @__fsym_mkfs_desc
	.type	__fsym_mkfs_desc,%object
	.globl	__fsym_mkfs_desc
__fsym_mkfs_desc:
	.asciz	"make a file system"
	.size	__fsym_mkfs_desc, 19

	.hidden	__fsym_mkfs                     @ @__fsym_mkfs
	.type	__fsym_mkfs,%object
	.section	FSymTab,"a",%progbits
	.globl	__fsym_mkfs
	.p2align	2
__fsym_mkfs:
__tagsym$$used.0:
	.long	__fsym_mkfs_name
	.long	__fsym_mkfs_desc
	.long	mkfs
	.size	__fsym_mkfs, 12

	.type	.L.str.18,%object               @ @.str.18
	.section	.rodata.str1.1,"aMS",%progbits,1
.L.str.18:
	.asciz	"KB"
	.size	.L.str.18, 3

	.type	.L.str.19,%object               @ @.str.19
.L.str.19:
	.asciz	"MB"
	.size	.L.str.19, 3

	.type	.L.str.20,%object               @ @.str.20
.L.str.20:
	.asciz	"GB"
	.size	.L.str.20, 3

	.hidden	__fsym_df_name                  @ @__fsym_df_name
	.type	__fsym_df_name,%object
	.section	.rodata.name,"a",%progbits
	.globl	__fsym_df_name
__fsym_df_name:
	.asciz	"df"
	.size	__fsym_df_name, 3

	.hidden	__fsym_df_desc                  @ @__fsym_df_desc
	.type	__fsym_df_desc,%object
	.globl	__fsym_df_desc
__fsym_df_desc:
	.asciz	"get disk free"
	.size	__fsym_df_desc, 14

	.hidden	__fsym_df                       @ @__fsym_df
	.type	__fsym_df,%object
	.section	FSymTab,"a",%progbits
	.globl	__fsym_df
	.p2align	2
__fsym_df:
__tagsym$$used.1:
	.long	__fsym_df_name
	.long	__fsym_df_desc
	.long	df
	.size	__fsym_df, 12

	.globl	__fsym_df
	.globl	__fsym_mkfs
	.file	4 "D:\\Keil_v5\\ARM\\ARMCLANG\\Bin\\..\\include" "stdint.h"
	.file	5 "E:\\Smart-access-control\\Hardware\\CODE" "rt-thread/components/dfs/include\\dfs_file.h"
	.file	6 "D:\\Keil_v5\\ARM\\ARMCLANG\\Bin\\..\\include" "stdio.h"
	.file	7 "E:\\Smart-access-control\\Hardware\\CODE" "rt-thread/include/rtlibc.h"
	.file	8 "E:\\Smart-access-control\\Hardware\\CODE" "rt-thread/components/dfs/include\\dfs.h"
	.file	9 "E:\\Smart-access-control\\Hardware\\CODE" "rt-thread/components/drivers/include/ipc/poll.h"
	.file	10 "E:\\Smart-access-control\\Hardware\\CODE" "rt-thread/components/dfs/include\\dfs_fs.h"
	.file	11 "E:\\Smart-access-control\\Hardware\\CODE" "rt-thread/include/libc/libc_stat.h"
	.file	12 "D:\\Keil_v5\\ARM\\ARMCLANG\\Bin\\..\\include" "time.h"
	.section	".note.GNU-stack","",%progbits
	.eabi_attribute	30, 1	@ Tag_ABI_optimization_goals
	.ARM_attribute	16, 1	@ Tag_AV_eba