	.text
	.syntax unified
	.eabi_attribute	67, "2.09"	@ Tag_conformance
	.cpu	cortex-m7
	.eabi_attribute	6, 13	@ Tag_CPU_arch
	.eabi_attribute	7, 77	@ Tag_CPU_arch_profile
	.eabi_attribute	8, 0	@ Tag_ARM_ISA_use
	.eabi_attribute	9, 2	@ Tag_THUMB_ISA_use
	.fpu	fpv5-d16
	.eabi_attribute	36, 1	@ Tag_FP_HP_extension
	.eabi_attribute	34, 1	@ Tag_CPU_unaligned_access
	.eabi_attribute	17, 1	@ Tag_ABI_PCS_GOT_use
	.eabi_attribute	20, 2	@ Tag_ABI_FP_denormal
	.eabi_attribute	21, 0	@ Tag_ABI_FP_exceptions
	.eabi_attribute	23, 1	@ Tag_ABI_FP_number_model
	.eabi_attribute	24, 1	@ Tag_ABI_align_needed
	.eabi_attribute	25, 1	@ Tag_ABI_align_preserved
	.eabi_attribute	28, 1	@ Tag_ABI_VFP_args
	.eabi_attribute	38, 1	@ Tag_ABI_FP_16bit_format
	.eabi_attribute	18, 2	@ Tag_ABI_PCS_wchar_t
	.eabi_attribute	26, 1	@ Tag_ABI_enum_size
	.eabi_attribute	14, 0	@ Tag_ABI_PCS_R9_use
	.file	"dhcp.c"
	.file	1 "D:\\Keil_v5\\ARM\\ARMCLANG\\Bin\\..\\include" "stdint.h"
	.file	2 "E:\\Smart-access-control\\Hardware\\CODE" "./rt-thread/components/net/lwip-2.0.2/src/include\\lwip/arch.h"
	.file	3 "E:\\Smart-access-control\\Hardware\\CODE" "rt-thread/components/net/lwip-2.0.2/src/core/ipv4/dhcp.c"
	.file	4 "E:\\Smart-access-control\\Hardware\\CODE" "./rt-thread/components/net/lwip-2.0.2/src/include\\lwip/ip4_addr.h"
	.file	5 "E:\\Smart-access-control\\Hardware\\CODE" "./rt-thread/components/net/lwip-2.0.2/src/include\\lwip/ip_addr.h"
	.file	6 "E:\\Smart-access-control\\Hardware\\CODE" "./rt-thread/components/net/lwip-2.0.2/src/include\\lwip/udp.h"
	.file	7 "E:\\Smart-access-control\\Hardware\\CODE" "./rt-thread/components/net/lwip-2.0.2/src/include\\lwip/pbuf.h"
	.file	8 "E:\\Smart-access-control\\Hardware\\CODE" "./rt-thread/components/net/lwip-2.0.2/src/include\\lwip/netif.h"
	.file	9 "E:\\Smart-access-control\\Hardware\\CODE" "./rt-thread/components/net/lwip-2.0.2/src/include\\lwip/prot/dhcp.h"
	.file	10 "E:\\Smart-access-control\\Hardware\\CODE" "./rt-thread/components/net/lwip-2.0.2/src/include\\lwip/err.h"
	.file	11 "E:\\Smart-access-control\\Hardware\\CODE" "./rt-thread/components/net/lwip-2.0.2/src/include\\lwip/dhcp.h"
	.file	12 "E:\\Smart-access-control\\Hardware\\CODE" "./rt-thread/components/net/lwip-2.0.2/src/include\\lwip/prot/ip4.h"
	.section	.text.dhcp_coarse_tmr,"ax",%progbits
	.hidden	dhcp_coarse_tmr                 @ -- Begin function dhcp_coarse_tmr
	.globl	dhcp_coarse_tmr
	.p2align	3
	.type	dhcp_coarse_tmr,%function
	.code	16                              @ @dhcp_coarse_tmr
	.thumb_func
dhcp_coarse_tmr:
.Lfunc_begin0:
	.loc	3 410 0                         @ rt-thread/components/net/lwip-2.0.2/src/core/ipv4/dhcp.c:410:0
	.fnstart
	.cfi_sections .debug_frame
	.cfi_startproc
@ %bb.0:
	.save	{r4, lr}
	push	{r4, lr}
	.cfi_def_cfa_offset 8
	.cfi_offset lr, -4
	.cfi_offset r4, -8
.Ltmp0:
	@DEBUG_VALUE: dhcp_coarse_tmr:netif <- undef
	.loc	3 0 0 prologue_end              @ rt-thread/components/net/lwip-2.0.2/src/core/ipv4/dhcp.c:0:0
	movw	r0, :lower16:netif_list
	movt	r0, :upper16:netif_list
	ldr	r4, [r0]
.Ltmp1:
	@DEBUG_VALUE: dhcp_coarse_tmr:netif <- $r4
	b	.LBB0_2
.Ltmp2:
	.p2align	2
.LBB0_1:                                @   in Loop: Header=BB0_2 Depth=1
	@DEBUG_VALUE: dhcp_coarse_tmr:netif <- $r4
	@DEBUG_VALUE: dhcp_coarse_tmr:netif <- undef
	ldr	r4, [r4]
.Ltmp3:
	@DEBUG_VALUE: dhcp_coarse_tmr:netif <- $r4
.LBB0_2:                                @ =>This Inner Loop Header: Depth=1
	@DEBUG_VALUE: dhcp_coarse_tmr:netif <- $r4
	.loc	3 414 3                         @ rt-thread/components/net/lwip-2.0.2/src/core/ipv4/dhcp.c:414:3
	cbz	r4, .LBB0_14
.Ltmp4:
@ %bb.3:                                @   in Loop: Header=BB0_2 Depth=1
	@DEBUG_VALUE: dhcp_coarse_tmr:netif <- $r4
	.loc	3 416 25                        @ rt-thread/components/net/lwip-2.0.2/src/core/ipv4/dhcp.c:416:25
	ldr	r0, [r4, #40]
.Ltmp5:
	@DEBUG_VALUE: dhcp <- $r0
	.loc	3 417 24                        @ rt-thread/components/net/lwip-2.0.2/src/core/ipv4/dhcp.c:417:24
	cmp	r0, #0
	beq	.LBB0_1
.Ltmp6:
@ %bb.4:                                @   in Loop: Header=BB0_2 Depth=1
	@DEBUG_VALUE: dhcp_coarse_tmr:netif <- $r4
	@DEBUG_VALUE: dhcp <- $r0
	.loc	3 417 34 is_stmt 0              @ rt-thread/components/net/lwip-2.0.2/src/core/ipv4/dhcp.c:417:34
	ldrb	r1, [r0, #9]
.Ltmp7:
	.loc	3 417 9                         @ rt-thread/components/net/lwip-2.0.2/src/core/ipv4/dhcp.c:417:9
	cmp	r1, #0
	beq	.LBB0_1
.Ltmp8:
@ %bb.5:                                @   in Loop: Header=BB0_2 Depth=1
	@DEBUG_VALUE: dhcp_coarse_tmr:netif <- $r4
	@DEBUG_VALUE: dhcp <- $r0
	.loc	3 419 17 is_stmt 1              @ rt-thread/components/net/lwip-2.0.2/src/core/ipv4/dhcp.c:419:17
	ldrh	r1, [r0, #34]
	.loc	3 419 28 is_stmt 0              @ rt-thread/components/net/lwip-2.0.2/src/core/ipv4/dhcp.c:419:28
	cbz	r1, .LBB0_8
.Ltmp9:
@ %bb.6:                                @   in Loop: Header=BB0_2 Depth=1
	@DEBUG_VALUE: dhcp_coarse_tmr:netif <- $r4
	@DEBUG_VALUE: dhcp <- $r0
	.loc	3 419 32                        @ rt-thread/components/net/lwip-2.0.2/src/core/ipv4/dhcp.c:419:32
	ldrh	r2, [r0, #32]
	adds	r2, #1
	strh	r2, [r0, #32]
	uxth	r3, r2
.Ltmp10:
	.loc	3 419 11                        @ rt-thread/components/net/lwip-2.0.2/src/core/ipv4/dhcp.c:419:11
	cmp	r3, r1
	bne	.LBB0_8
.Ltmp11:
@ %bb.7:                                @   in Loop: Header=BB0_2 Depth=1
	@DEBUG_VALUE: dhcp_coarse_tmr:netif <- $r4
	@DEBUG_VALUE: dhcp <- $r0
	.loc	3 422 9 is_stmt 1               @ rt-thread/components/net/lwip-2.0.2/src/core/ipv4/dhcp.c:422:9
	mov	r0, r4
.Ltmp12:
	bl	dhcp_release
	.loc	3 423 9                         @ rt-thread/components/net/lwip-2.0.2/src/core/ipv4/dhcp.c:423:9
	mov	r0, r4
	bl	dhcp_discover
.Ltmp13:
	@DEBUG_VALUE: dhcp_coarse_tmr:netif <- undef
	.loc	3 0 0 is_stmt 0                 @ rt-thread/components/net/lwip-2.0.2/src/core/ipv4/dhcp.c:0:0
	ldr	r4, [r4]
.Ltmp14:
	@DEBUG_VALUE: dhcp_coarse_tmr:netif <- $r4
	b	.LBB0_2
.Ltmp15:
	.p2align	2
.LBB0_8:                                @   in Loop: Header=BB0_2 Depth=1
	@DEBUG_VALUE: dhcp_coarse_tmr:netif <- $r4
	@DEBUG_VALUE: dhcp <- $r0
	.loc	3 425 24 is_stmt 1              @ rt-thread/components/net/lwip-2.0.2/src/core/ipv4/dhcp.c:425:24
	ldrh	r1, [r0, #30]
	.loc	3 425 39 is_stmt 0              @ rt-thread/components/net/lwip-2.0.2/src/core/ipv4/dhcp.c:425:39
	cbz	r1, .LBB0_11
.Ltmp16:
@ %bb.9:                                @   in Loop: Header=BB0_2 Depth=1
	@DEBUG_VALUE: dhcp_coarse_tmr:netif <- $r4
	@DEBUG_VALUE: dhcp <- $r0
	.loc	3 425 63                        @ rt-thread/components/net/lwip-2.0.2/src/core/ipv4/dhcp.c:425:63
	subs	r1, #1
	strh	r1, [r0, #30]
.Ltmp17:
	.loc	3 425 18                        @ rt-thread/components/net/lwip-2.0.2/src/core/ipv4/dhcp.c:425:18
	bne	.LBB0_11
.Ltmp18:
@ %bb.10:                               @   in Loop: Header=BB0_2 Depth=1
	@DEBUG_VALUE: dhcp_coarse_tmr:netif <- $r4
	@DEBUG_VALUE: dhcp <- $r0
	.loc	3 428 9 is_stmt 1               @ rt-thread/components/net/lwip-2.0.2/src/core/ipv4/dhcp.c:428:9
	mov	r0, r4
.Ltmp19:
	bl	dhcp_t2_timeout
.Ltmp20:
	@DEBUG_VALUE: dhcp_coarse_tmr:netif <- undef
	.loc	3 0 0 is_stmt 0                 @ rt-thread/components/net/lwip-2.0.2/src/core/ipv4/dhcp.c:0:0
	ldr	r4, [r4]
.Ltmp21:
	@DEBUG_VALUE: dhcp_coarse_tmr:netif <- $r4
	b	.LBB0_2
.Ltmp22:
.LBB0_11:                               @   in Loop: Header=BB0_2 Depth=1
	@DEBUG_VALUE: dhcp_coarse_tmr:netif <- $r4
	@DEBUG_VALUE: dhcp <- $r0
	.loc	3 430 24 is_stmt 1              @ rt-thread/components/net/lwip-2.0.2/src/core/ipv4/dhcp.c:430:24
	ldrh	r1, [r0, #28]
	.loc	3 430 38 is_stmt 0              @ rt-thread/components/net/lwip-2.0.2/src/core/ipv4/dhcp.c:430:38
	cmp	r1, #0
	beq	.LBB0_1
.Ltmp23:
@ %bb.12:                               @   in Loop: Header=BB0_2 Depth=1
	@DEBUG_VALUE: dhcp_coarse_tmr:netif <- $r4
	@DEBUG_VALUE: dhcp <- $r0
	.loc	3 430 61                        @ rt-thread/components/net/lwip-2.0.2/src/core/ipv4/dhcp.c:430:61
	subs	r1, #1
	strh	r1, [r0, #28]
.Ltmp24:
	.loc	3 430 18                        @ rt-thread/components/net/lwip-2.0.2/src/core/ipv4/dhcp.c:430:18
	bne	.LBB0_1
.Ltmp25:
@ %bb.13:                               @   in Loop: Header=BB0_2 Depth=1
	@DEBUG_VALUE: dhcp_coarse_tmr:netif <- $r4
	@DEBUG_VALUE: dhcp <- $r0
	.loc	3 433 9 is_stmt 1               @ rt-thread/components/net/lwip-2.0.2/src/core/ipv4/dhcp.c:433:9
	mov	r0, r4
.Ltmp26:
	bl	dhcp_t1_timeout
	b	.LBB0_1
.Ltmp27:
.LBB0_14:
	@DEBUG_VALUE: dhcp_coarse_tmr:netif <- $r4
	.loc	3 439 1                         @ rt-thread/components/net/lwip-2.0.2/src/core/ipv4/dhcp.c:439:1
	pop	{r4, pc}
.Ltmp28:
.Lfunc_end0:
	.size	dhcp_coarse_tmr, .Lfunc_end0-dhcp_coarse_tmr
	.cfi_endproc
	.cantunwind
	.fnend
                                        @ -- End function
	.section	.text.dhcp_release,"ax",%progbits
	.hidden	dhcp_release                    @ -- Begin function dhcp_release
	.globl	dhcp_release
	.p2align	3
	.type	dhcp_release,%function
	.code	16                              @ @dhcp_release
	.thumb_func
dhcp_release:
.Lfunc_begin1:
	.loc	3 1281 0                        @ rt-thread/components/net/lwip-2.0.2/src/core/ipv4/dhcp.c:1281:0
	.fnstart
	.cfi_startproc
@ %bb.0:
	@DEBUG_VALUE: dhcp_release:netif <- $r0
	@DEBUG_VALUE: dhcp_release:netif <- $r0
	.save	{r4, r5, r6, r7, lr}
	push	{r4, r5, r6, r7, lr}
	.cfi_def_cfa_offset 20
	.cfi_offset lr, -4
	.cfi_offset r7, -8
	.cfi_offset r6, -12
	.cfi_offset r5, -16
	.cfi_offset r4, -20
	.pad	#12
	sub	sp, #12
	.cfi_def_cfa_offset 32
.Ltmp29:
	.loc	3 1282 23 prologue_end          @ rt-thread/components/net/lwip-2.0.2/src/core/ipv4/dhcp.c:1282:23
	ldr	r6, [r0, #40]
.Ltmp30:
	@DEBUG_VALUE: dhcp_release:dhcp <- $r6
	.loc	3 1288 7                        @ rt-thread/components/net/lwip-2.0.2/src/core/ipv4/dhcp.c:1288:7
	cmp	r6, #0
	beq	.LBB1_5
.Ltmp31:
@ %bb.1:
	@DEBUG_VALUE: dhcp_release:dhcp <- $r6
	@DEBUG_VALUE: dhcp_release:netif <- $r0
	.loc	3 0 7 is_stmt 0                 @ rt-thread/components/net/lwip-2.0.2/src/core/ipv4/dhcp.c:0:7
	mov	r4, r0
.Ltmp32:
	@DEBUG_VALUE: dhcp_release:netif <- $r4
	@DEBUG_VALUE: dhcp_release:netif <- $r4
	.loc	3 1291 3 is_stmt 1              @ rt-thread/components/net/lwip-2.0.2/src/core/ipv4/dhcp.c:1291:3
	ldr	r0, [r6, #36]
	str	r0, [sp, #8]
	.loc	3 1293 30                       @ rt-thread/components/net/lwip-2.0.2/src/core/ipv4/dhcp.c:1293:30
	mov	r0, r4
	bl	dhcp_supplied_address
	mov	r7, r0
.Ltmp33:
	@DEBUG_VALUE: dhcp_release:is_dhcp_supplied_address <- $r7
	.loc	3 1296 3                        @ rt-thread/components/net/lwip-2.0.2/src/core/ipv4/dhcp.c:1296:3
	movs	r1, #0
	mov	r0, r6
	movs	r5, #0
	bl	dhcp_set_state
	.loc	3 1306 9                        @ rt-thread/components/net/lwip-2.0.2/src/core/ipv4/dhcp.c:1306:9
	add.w	r0, r6, #28
	.loc	3 1306 84 is_stmt 0             @ rt-thread/components/net/lwip-2.0.2/src/core/ipv4/dhcp.c:1306:84
	movs	r1, #36
	bl	__aeabi_memclr4
	.loc	3 1308 7 is_stmt 1              @ rt-thread/components/net/lwip-2.0.2/src/core/ipv4/dhcp.c:1308:7
	cbz	r7, .LBB1_6
.Ltmp34:
@ %bb.2:
	@DEBUG_VALUE: dhcp_release:is_dhcp_supplied_address <- $r7
	@DEBUG_VALUE: dhcp_release:dhcp <- $r6
	@DEBUG_VALUE: dhcp_release:netif <- $r4
	.loc	3 1314 12                       @ rt-thread/components/net/lwip-2.0.2/src/core/ipv4/dhcp.c:1314:12
	movs	r2, #7
	mov	r0, r4
	mov	r1, r6
	bl	dhcp_create_msg
	mov	r5, r0
.Ltmp35:
	@DEBUG_VALUE: dhcp_release:result <- $r5
	.loc	3 1315 7                        @ rt-thread/components/net/lwip-2.0.2/src/core/ipv4/dhcp.c:1315:7
	cbnz	r0, .LBB1_4
.Ltmp36:
@ %bb.3:
	@DEBUG_VALUE: dhcp_release:is_dhcp_supplied_address <- $r7
	@DEBUG_VALUE: dhcp_release:dhcp <- $r6
	@DEBUG_VALUE: dhcp_release:result <- $r5
	@DEBUG_VALUE: dhcp_release:netif <- $r4
	.loc	3 1316 5                        @ rt-thread/components/net/lwip-2.0.2/src/core/ipv4/dhcp.c:1316:5
	movs	r1, #54
	movs	r2, #4
	mov	r0, r6
	bl	dhcp_option
	.loc	3 1317 28                       @ rt-thread/components/net/lwip-2.0.2/src/core/ipv4/dhcp.c:1317:28
	ldr	r0, [sp, #8]
	bl	lwip_htonl
	mov	r1, r0
	.loc	3 1317 5 is_stmt 0              @ rt-thread/components/net/lwip-2.0.2/src/core/ipv4/dhcp.c:1317:5
	mov	r0, r6
	bl	dhcp_option_long
	.loc	3 1319 5 is_stmt 1              @ rt-thread/components/net/lwip-2.0.2/src/core/ipv4/dhcp.c:1319:5
	mov	r0, r6
	bl	dhcp_option_trailer
	.loc	3 1321 82                       @ rt-thread/components/net/lwip-2.0.2/src/core/ipv4/dhcp.c:1321:82
	ldrh	r1, [r6, #20]
	.loc	3 1321 24 is_stmt 0             @ rt-thread/components/net/lwip-2.0.2/src/core/ipv4/dhcp.c:1321:24
	ldr	r0, [r6, #12]
	.loc	3 1321 74                       @ rt-thread/components/net/lwip-2.0.2/src/core/ipv4/dhcp.c:1321:74
	adds	r1, #240
	.loc	3 1321 5                        @ rt-thread/components/net/lwip-2.0.2/src/core/ipv4/dhcp.c:1321:5
	uxth	r1, r1
	bl	pbuf_realloc
	.loc	3 1323 19 is_stmt 1             @ rt-thread/components/net/lwip-2.0.2/src/core/ipv4/dhcp.c:1323:19
	movw	r0, :lower16:dhcp_pcb
	.loc	3 1323 35 is_stmt 0             @ rt-thread/components/net/lwip-2.0.2/src/core/ipv4/dhcp.c:1323:35
	ldr	r1, [r6, #12]
	.loc	3 1323 19                       @ rt-thread/components/net/lwip-2.0.2/src/core/ipv4/dhcp.c:1323:19
	movt	r0, :upper16:dhcp_pcb
	add	r2, sp, #8
	.loc	3 1323 5                        @ rt-thread/components/net/lwip-2.0.2/src/core/ipv4/dhcp.c:1323:5
	movs	r3, #67
	str	r4, [sp]
	.loc	3 1323 19                       @ rt-thread/components/net/lwip-2.0.2/src/core/ipv4/dhcp.c:1323:19
	ldr	r0, [r0]
	.loc	3 1323 5                        @ rt-thread/components/net/lwip-2.0.2/src/core/ipv4/dhcp.c:1323:5
	bl	udp_sendto_if
	.loc	3 1324 5 is_stmt 1              @ rt-thread/components/net/lwip-2.0.2/src/core/ipv4/dhcp.c:1324:5
	mov	r0, r6
	bl	dhcp_delete_msg
.Ltmp37:
.LBB1_4:
	@DEBUG_VALUE: dhcp_release:is_dhcp_supplied_address <- $r7
	@DEBUG_VALUE: dhcp_release:dhcp <- $r6
	@DEBUG_VALUE: dhcp_release:result <- $r5
	@DEBUG_VALUE: dhcp_release:netif <- $r4
	.loc	3 1331 3                        @ rt-thread/components/net/lwip-2.0.2/src/core/ipv4/dhcp.c:1331:3
	movw	r1, :lower16:ip_addr_any
	mov	r0, r4
	movt	r1, :upper16:ip_addr_any
	mov	r2, r1
	mov	r3, r1
	bl	netif_set_addr
	b	.LBB1_6
.Ltmp38:
.LBB1_5:
	@DEBUG_VALUE: dhcp_release:dhcp <- $r6
	@DEBUG_VALUE: dhcp_release:netif <- $r0
	.loc	3 0 3 is_stmt 0                 @ rt-thread/components/net/lwip-2.0.2/src/core/ipv4/dhcp.c:0:3
	movs	r5, #240
.Ltmp39:
.LBB1_6:
	@DEBUG_VALUE: dhcp_release:dhcp <- $r6
	.loc	3 1334 1 is_stmt 1              @ rt-thread/components/net/lwip-2.0.2/src/core/ipv4/dhcp.c:1334:1
	sxtb	r0, r5
	add	sp, #12
	pop	{r4, r5, r6, r7, pc}
.Ltmp40:
.Lfunc_end1:
	.size	dhcp_release, .Lfunc_end1-dhcp_release
	.cfi_endproc
	.cantunwind
	.fnend
                                        @ -- End function
	.section	.text.dhcp_discover,"ax",%progbits
	.p2align	3                               @ -- Begin function dhcp_discover
	.type	dhcp_discover,%function
	.code	16                              @ @dhcp_discover
	.thumb_func
dhcp_discover:
.Lfunc_begin2:
	.loc	3 962 0                         @ rt-thread/components/net/lwip-2.0.2/src/core/ipv4/dhcp.c:962:0
	.fnstart
	.cfi_startproc
@ %bb.0:
	@DEBUG_VALUE: dhcp_discover:netif <- $r0
	.save	{r4, r5, r6, r7, r8, lr}
	push.w	{r4, r5, r6, r7, r8, lr}
	.cfi_def_cfa_offset 24
	.cfi_offset lr, -4
	.cfi_offset r8, -8
	.cfi_offset r7, -12
	.cfi_offset r6, -16
	.cfi_offset r5, -20
	.cfi_offset r4, -24
	.pad	#8
	sub	sp, #8
	.cfi_def_cfa_offset 32
.Ltmp41:
	.loc	3 963 23 prologue_end           @ rt-thread/components/net/lwip-2.0.2/src/core/ipv4/dhcp.c:963:23
	ldr	r4, [r0, #40]
.Ltmp42:
	@DEBUG_VALUE: dhcp_discover:dhcp <- $r4
	.loc	3 0 23 is_stmt 0                @ rt-thread/components/net/lwip-2.0.2/src/core/ipv4/dhcp.c:0:23
	mov	r6, r0
.Ltmp43:
	@DEBUG_VALUE: dhcp_discover:netif <- $r6
	@DEBUG_VALUE: dhcp_discover:netif <- $r6
	movs	r0, #0
.Ltmp44:
	@DEBUG_VALUE: dhcp_discover:result <- 0
	.loc	3 969 3 is_stmt 1               @ rt-thread/components/net/lwip-2.0.2/src/core/ipv4/dhcp.c:969:3
	movs	r1, #6
	.loc	3 968 3                         @ rt-thread/components/net/lwip-2.0.2/src/core/ipv4/dhcp.c:968:3
	str	r0, [r4, #40]
	.loc	3 969 3                         @ rt-thread/components/net/lwip-2.0.2/src/core/ipv4/dhcp.c:969:3
	mov	r0, r4
	bl	dhcp_set_state
	.loc	3 971 12                        @ rt-thread/components/net/lwip-2.0.2/src/core/ipv4/dhcp.c:971:12
	movs	r2, #1
	mov	r0, r6
	mov	r1, r4
	bl	dhcp_create_msg
	mov	r8, r0
.Ltmp45:
	@DEBUG_VALUE: dhcp_discover:result <- $r8
	.loc	3 972 7                         @ rt-thread/components/net/lwip-2.0.2/src/core/ipv4/dhcp.c:972:7
	cbnz	r0, .LBB2_4
.Ltmp46:
@ %bb.1:
	@DEBUG_VALUE: dhcp_discover:result <- $r8
	@DEBUG_VALUE: dhcp_discover:netif <- $r6
	@DEBUG_VALUE: dhcp_discover:dhcp <- $r4
	.loc	3 975 5                         @ rt-thread/components/net/lwip-2.0.2/src/core/ipv4/dhcp.c:975:5
	movs	r1, #57
	movs	r2, #2
	mov	r0, r4
	bl	dhcp_option
	.loc	3 976 29                        @ rt-thread/components/net/lwip-2.0.2/src/core/ipv4/dhcp.c:976:29
	ldrh	r1, [r6, #56]
	.loc	3 976 5 is_stmt 0               @ rt-thread/components/net/lwip-2.0.2/src/core/ipv4/dhcp.c:976:5
	mov	r0, r4
	bl	dhcp_option_short
	.loc	3 978 5 is_stmt 1               @ rt-thread/components/net/lwip-2.0.2/src/core/ipv4/dhcp.c:978:5
	movs	r1, #55
	movs	r2, #4
	mov	r0, r4
	bl	dhcp_option
	movw	r5, :lower16:dhcp_discover_request_options
	mov.w	r7, #-1
.Ltmp47:
	@DEBUG_VALUE: dhcp_discover:i <- 0
	.loc	3 0 5 is_stmt 0                 @ rt-thread/components/net/lwip-2.0.2/src/core/ipv4/dhcp.c:0:5
	movt	r5, :upper16:dhcp_discover_request_options
.Ltmp48:
	.p2align	2
.LBB2_2:                                @ =>This Inner Loop Header: Depth=1
	@DEBUG_VALUE: dhcp_discover:result <- $r8
	@DEBUG_VALUE: dhcp_discover:netif <- $r6
	@DEBUG_VALUE: dhcp_discover:dhcp <- $r4
	@DEBUG_VALUE: dhcp_discover:i <- [DW_OP_plus_uconst 1, DW_OP_stack_value] $r7
	.loc	3 980 30 is_stmt 1              @ rt-thread/components/net/lwip-2.0.2/src/core/ipv4/dhcp.c:980:30
	adds	r0, r5, r7
	ldrb	r1, [r0, #1]
	.loc	3 980 7 is_stmt 0               @ rt-thread/components/net/lwip-2.0.2/src/core/ipv4/dhcp.c:980:7
	mov	r0, r4
	bl	dhcp_option_byte
.Ltmp49:
	@DEBUG_VALUE: dhcp_discover:i <- [DW_OP_plus_uconst 2, DW_OP_stack_value] $r7
	.loc	3 979 19 is_stmt 1              @ rt-thread/components/net/lwip-2.0.2/src/core/ipv4/dhcp.c:979:19
	adds	r7, #1
.Ltmp50:
	.loc	3 979 5 is_stmt 0               @ rt-thread/components/net/lwip-2.0.2/src/core/ipv4/dhcp.c:979:5
	cmp	r7, #3
	bne	.LBB2_2
.Ltmp51:
@ %bb.3:
	@DEBUG_VALUE: dhcp_discover:result <- $r8
	@DEBUG_VALUE: dhcp_discover:netif <- $r6
	@DEBUG_VALUE: dhcp_discover:dhcp <- $r4
	.loc	3 982 5 is_stmt 1               @ rt-thread/components/net/lwip-2.0.2/src/core/ipv4/dhcp.c:982:5
	mov	r0, r4
	bl	dhcp_option_trailer
	.loc	3 985 82                        @ rt-thread/components/net/lwip-2.0.2/src/core/ipv4/dhcp.c:985:82
	ldrh	r1, [r4, #20]
	.loc	3 985 24 is_stmt 0              @ rt-thread/components/net/lwip-2.0.2/src/core/ipv4/dhcp.c:985:24
	ldr	r0, [r4, #12]
	.loc	3 985 74                        @ rt-thread/components/net/lwip-2.0.2/src/core/ipv4/dhcp.c:985:74
	adds	r1, #240
	.loc	3 985 5                         @ rt-thread/components/net/lwip-2.0.2/src/core/ipv4/dhcp.c:985:5
	uxth	r1, r1
	bl	pbuf_realloc
	.loc	3 988 23 is_stmt 1              @ rt-thread/components/net/lwip-2.0.2/src/core/ipv4/dhcp.c:988:23
	movw	r0, :lower16:dhcp_pcb
	.loc	3 988 5 is_stmt 0               @ rt-thread/components/net/lwip-2.0.2/src/core/ipv4/dhcp.c:988:5
	movw	r2, :lower16:ip_addr_broadcast
	.loc	3 988 23                        @ rt-thread/components/net/lwip-2.0.2/src/core/ipv4/dhcp.c:988:23
	movt	r0, :upper16:dhcp_pcb
	.loc	3 988 39                        @ rt-thread/components/net/lwip-2.0.2/src/core/ipv4/dhcp.c:988:39
	ldr	r1, [r4, #12]
	.loc	3 988 5                         @ rt-thread/components/net/lwip-2.0.2/src/core/ipv4/dhcp.c:988:5
	movw	r7, :lower16:ip_addr_any
	movt	r2, :upper16:ip_addr_broadcast
	.loc	3 988 23                        @ rt-thread/components/net/lwip-2.0.2/src/core/ipv4/dhcp.c:988:23
	ldr	r0, [r0]
	.loc	3 988 5                         @ rt-thread/components/net/lwip-2.0.2/src/core/ipv4/dhcp.c:988:5
	movs	r3, #67
	movt	r7, :upper16:ip_addr_any
	str	r6, [sp]
	str	r7, [sp, #4]
	bl	udp_sendto_if_src
	.loc	3 990 5 is_stmt 1               @ rt-thread/components/net/lwip-2.0.2/src/core/ipv4/dhcp.c:990:5
	mov	r0, r4
	bl	dhcp_delete_msg
.Ltmp52:
.LBB2_4:
	@DEBUG_VALUE: dhcp_discover:result <- $r8
	@DEBUG_VALUE: dhcp_discover:netif <- $r6
	@DEBUG_VALUE: dhcp_discover:dhcp <- $r4
	.loc	3 995 13                        @ rt-thread/components/net/lwip-2.0.2/src/core/ipv4/dhcp.c:995:13
	ldrb	r0, [r4, #10]
	mov.w	r1, #1000
	movw	r2, #499
.Ltmp53:
	.loc	3 995 7 is_stmt 0               @ rt-thread/components/net/lwip-2.0.2/src/core/ipv4/dhcp.c:995:7
	cmp	r0, #255
.Ltmp54:
	.loc	3 996 16 is_stmt 1              @ rt-thread/components/net/lwip-2.0.2/src/core/ipv4/dhcp.c:996:16
	itt	ne
	addne	r0, #1
	strbne	r0, [r4, #10]
.Ltmp55:
	.loc	3 1004 18                       @ rt-thread/components/net/lwip-2.0.2/src/core/ipv4/dhcp.c:1004:18
	ldrb	r0, [r4, #10]
	.loc	3 1004 12 is_stmt 0             @ rt-thread/components/net/lwip-2.0.2/src/core/ipv4/dhcp.c:1004:12
	lsls	r1, r0
	cmp	r0, #6
	.loc	3 1007 3 is_stmt 1              @ rt-thread/components/net/lwip-2.0.2/src/core/ipv4/dhcp.c:1007:3
	mov	r0, r8
	.loc	3 1004 12                       @ rt-thread/components/net/lwip-2.0.2/src/core/ipv4/dhcp.c:1004:12
	uxtah	r1, r2, r1
	movw	r2, #19923
	movt	r2, #4194
	umull	r1, r2, r1, r2
	mov.w	r1, #120
	it	lo
	lsrlo	r1, r2, #5
.Ltmp56:
	@DEBUG_VALUE: dhcp_discover:msecs <- undef
	.loc	3 1005 25                       @ rt-thread/components/net/lwip-2.0.2/src/core/ipv4/dhcp.c:1005:25
	strh	r1, [r4, #22]
	.loc	3 1007 3                        @ rt-thread/components/net/lwip-2.0.2/src/core/ipv4/dhcp.c:1007:3
	add	sp, #8
	pop.w	{r4, r5, r6, r7, r8, pc}
.Ltmp57:
.Lfunc_end2:
	.size	dhcp_discover, .Lfunc_end2-dhcp_discover
	.cfi_endproc
	.cantunwind
	.fnend
                                        @ -- End function
	.section	.text.dhcp_t2_timeout,"ax",%progbits
	.p2align	3                               @ -- Begin function dhcp_t2_timeout
	.type	dhcp_t2_timeout,%function
	.code	16                              @ @dhcp_t2_timeout
	.thumb_func
dhcp_t2_timeout:
.Lfunc_begin3:
	.loc	3 559 0                         @ rt-thread/components/net/lwip-2.0.2/src/core/ipv4/dhcp.c:559:0
	.fnstart
	.cfi_startproc
@ %bb.0:
	@DEBUG_VALUE: dhcp_t2_timeout:netif <- $r0
	@DEBUG_VALUE: dhcp_t2_timeout:netif <- $r0
	.save	{r4, lr}
	push	{r4, lr}
	.cfi_def_cfa_offset 8
	.cfi_offset lr, -4
	.cfi_offset r4, -8
.Ltmp58:
	.loc	3 560 23 prologue_end           @ rt-thread/components/net/lwip-2.0.2/src/core/ipv4/dhcp.c:560:23
	ldr	r4, [r0, #40]
.Ltmp59:
	@DEBUG_VALUE: dhcp_t2_timeout:dhcp <- $r4
	.loc	3 563 14                        @ rt-thread/components/net/lwip-2.0.2/src/core/ipv4/dhcp.c:563:14
	ldrb	r1, [r4, #9]
	.loc	3 563 46 is_stmt 0              @ rt-thread/components/net/lwip-2.0.2/src/core/ipv4/dhcp.c:563:46
	cmp	r1, #10
	bhi	.LBB3_4
.Ltmp60:
@ %bb.1:
	@DEBUG_VALUE: dhcp_t2_timeout:dhcp <- $r4
	@DEBUG_VALUE: dhcp_t2_timeout:netif <- $r0
	.loc	3 0 46                          @ rt-thread/components/net/lwip-2.0.2/src/core/ipv4/dhcp.c:0:46
	movs	r2, #1
	lsl.w	r1, r2, r1
	movw	r2, #1074
	tst	r1, r2
	beq	.LBB3_4
.Ltmp61:
@ %bb.2:
	@DEBUG_VALUE: dhcp_t2_timeout:dhcp <- $r4
	@DEBUG_VALUE: dhcp_t2_timeout:netif <- $r0
	.loc	3 570 5 is_stmt 1               @ rt-thread/components/net/lwip-2.0.2/src/core/ipv4/dhcp.c:570:5
	bl	dhcp_rebind
.Ltmp62:
	@DEBUG_VALUE: dhcp_t2_timeout:netif <- [DW_OP_LLVM_entry_value 1] $r0
	.loc	3 572 17                        @ rt-thread/components/net/lwip-2.0.2/src/core/ipv4/dhcp.c:572:17
	ldrh	r0, [r4, #34]
	.loc	3 572 36 is_stmt 0              @ rt-thread/components/net/lwip-2.0.2/src/core/ipv4/dhcp.c:572:36
	ldrh	r1, [r4, #32]
	.loc	3 572 28                        @ rt-thread/components/net/lwip-2.0.2/src/core/ipv4/dhcp.c:572:28
	subs	r0, r0, r1
.Ltmp63:
	.loc	3 572 9                         @ rt-thread/components/net/lwip-2.0.2/src/core/ipv4/dhcp.c:572:9
	cmp	r0, #2
.Ltmp64:
	.loc	3 577 1 is_stmt 1               @ rt-thread/components/net/lwip-2.0.2/src/core/ipv4/dhcp.c:577:1
	it	lt
	poplt	{r4, pc}
.Ltmp65:
.LBB3_3:
	@DEBUG_VALUE: dhcp_t2_timeout:netif <- [DW_OP_LLVM_entry_value 1] $r0
	.loc	3 572 48                        @ rt-thread/components/net/lwip-2.0.2/src/core/ipv4/dhcp.c:572:48
	add.w	r0, r0, r0, lsr #31
	lsrs	r0, r0, #1
.Ltmp66:
	.loc	3 574 29                        @ rt-thread/components/net/lwip-2.0.2/src/core/ipv4/dhcp.c:574:29
	strh	r0, [r4, #30]
.Ltmp67:
.LBB3_4:
	.loc	3 577 1                         @ rt-thread/components/net/lwip-2.0.2/src/core/ipv4/dhcp.c:577:1
	pop	{r4, pc}
.Ltmp68:
.Lfunc_end3:
	.size	dhcp_t2_timeout, .Lfunc_end3-dhcp_t2_timeout
	.cfi_endproc
	.cantunwind
	.fnend
                                        @ -- End function
	.section	.text.dhcp_t1_timeout,"ax",%progbits
	.p2align	3                               @ -- Begin function dhcp_t1_timeout
	.type	dhcp_t1_timeout,%function
	.code	16                              @ @dhcp_t1_timeout
	.thumb_func
dhcp_t1_timeout:
.Lfunc_begin4:
	.loc	3 531 0                         @ rt-thread/components/net/lwip-2.0.2/src/core/ipv4/dhcp.c:531:0
	.fnstart
	.cfi_startproc
@ %bb.0:
	@DEBUG_VALUE: dhcp_t1_timeout:netif <- $r0
	@DEBUG_VALUE: dhcp_t1_timeout:netif <- $r0
	.save	{r4, lr}
	push	{r4, lr}
	.cfi_def_cfa_offset 8
	.cfi_offset lr, -4
	.cfi_offset r4, -8
.Ltmp69:
	.loc	3 532 23 prologue_end           @ rt-thread/components/net/lwip-2.0.2/src/core/ipv4/dhcp.c:532:23
	ldr	r4, [r0, #40]
.Ltmp70:
	@DEBUG_VALUE: dhcp_t1_timeout:dhcp <- $r4
	.loc	3 535 14                        @ rt-thread/components/net/lwip-2.0.2/src/core/ipv4/dhcp.c:535:14
	ldrb	r1, [r4, #9]
	.loc	3 535 46 is_stmt 0              @ rt-thread/components/net/lwip-2.0.2/src/core/ipv4/dhcp.c:535:46
	cmp	r1, #10
	bhi	.LBB4_4
.Ltmp71:
@ %bb.1:
	@DEBUG_VALUE: dhcp_t1_timeout:dhcp <- $r4
	@DEBUG_VALUE: dhcp_t1_timeout:netif <- $r0
	.loc	3 0 46                          @ rt-thread/components/net/lwip-2.0.2/src/core/ipv4/dhcp.c:0:46
	movs	r2, #1
	lsl.w	r1, r2, r1
	movw	r2, #1058
	tst	r1, r2
	beq	.LBB4_4
.Ltmp72:
@ %bb.2:
	@DEBUG_VALUE: dhcp_t1_timeout:dhcp <- $r4
	@DEBUG_VALUE: dhcp_t1_timeout:netif <- $r0
	.loc	3 543 5 is_stmt 1               @ rt-thread/components/net/lwip-2.0.2/src/core/ipv4/dhcp.c:543:5
	bl	dhcp_renew
.Ltmp73:
	@DEBUG_VALUE: dhcp_t1_timeout:netif <- [DW_OP_LLVM_entry_value 1] $r0
	.loc	3 545 17                        @ rt-thread/components/net/lwip-2.0.2/src/core/ipv4/dhcp.c:545:17
	ldrh	r0, [r4, #26]
	.loc	3 545 36 is_stmt 0              @ rt-thread/components/net/lwip-2.0.2/src/core/ipv4/dhcp.c:545:36
	ldrh	r1, [r4, #32]
	.loc	3 545 28                        @ rt-thread/components/net/lwip-2.0.2/src/core/ipv4/dhcp.c:545:28
	subs	r0, r0, r1
.Ltmp74:
	.loc	3 545 9                         @ rt-thread/components/net/lwip-2.0.2/src/core/ipv4/dhcp.c:545:9
	cmp	r0, #2
.Ltmp75:
	.loc	3 550 1 is_stmt 1               @ rt-thread/components/net/lwip-2.0.2/src/core/ipv4/dhcp.c:550:1
	it	lt
	poplt	{r4, pc}
.Ltmp76:
.LBB4_3:
	@DEBUG_VALUE: dhcp_t1_timeout:netif <- [DW_OP_LLVM_entry_value 1] $r0
	.loc	3 545 48                        @ rt-thread/components/net/lwip-2.0.2/src/core/ipv4/dhcp.c:545:48
	add.w	r0, r0, r0, lsr #31
	lsrs	r0, r0, #1
.Ltmp77:
	.loc	3 547 28                        @ rt-thread/components/net/lwip-2.0.2/src/core/ipv4/dhcp.c:547:28
	strh	r0, [r4, #28]
.Ltmp78:
.LBB4_4:
	.loc	3 550 1                         @ rt-thread/components/net/lwip-2.0.2/src/core/ipv4/dhcp.c:550:1
	pop	{r4, pc}
.Ltmp79:
.Lfunc_end4:
	.size	dhcp_t1_timeout, .Lfunc_end4-dhcp_t1_timeout
	.cfi_endproc
	.cantunwind
	.fnend
                                        @ -- End function
	.section	.text.dhcp_fine_tmr,"ax",%progbits
	.hidden	dhcp_fine_tmr                   @ -- Begin function dhcp_fine_tmr
	.globl	dhcp_fine_tmr
	.p2align	3
	.type	dhcp_fine_tmr,%function
	.code	16                              @ @dhcp_fine_tmr
	.thumb_func
dhcp_fine_tmr:
.Lfunc_begin5:
	.loc	3 450 0                         @ rt-thread/components/net/lwip-2.0.2/src/core/ipv4/dhcp.c:450:0
	.fnstart
	.cfi_startproc
@ %bb.0:
	.save	{r4, lr}
	push	{r4, lr}
	.cfi_def_cfa_offset 8
	.cfi_offset lr, -4
	.cfi_offset r4, -8
.Ltmp80:
	@DEBUG_VALUE: dhcp_fine_tmr:netif <- undef
	.loc	3 0 0 prologue_end              @ rt-thread/components/net/lwip-2.0.2/src/core/ipv4/dhcp.c:0:0
	movw	r0, :lower16:netif_list
	movt	r0, :upper16:netif_list
	ldr	r4, [r0]
.Ltmp81:
	@DEBUG_VALUE: dhcp_fine_tmr:netif <- $r4
	.loc	3 453 3                         @ rt-thread/components/net/lwip-2.0.2/src/core/ipv4/dhcp.c:453:3
	cbnz	r4, .LBB5_3
.Ltmp82:
.LBB5_1:
	@DEBUG_VALUE: dhcp_fine_tmr:netif <- $r4
	.loc	3 472 1                         @ rt-thread/components/net/lwip-2.0.2/src/core/ipv4/dhcp.c:472:1
	pop	{r4, pc}
.Ltmp83:
	.p2align	2
.LBB5_2:                                @   in Loop: Header=BB5_3 Depth=1
	@DEBUG_VALUE: dhcp_fine_tmr:netif <- $r4
	@DEBUG_VALUE: dhcp_fine_tmr:netif <- undef
	.loc	3 0 0 is_stmt 0                 @ rt-thread/components/net/lwip-2.0.2/src/core/ipv4/dhcp.c:0:0
	ldr	r4, [r4]
.Ltmp84:
	@DEBUG_VALUE: dhcp_fine_tmr:netif <- $r4
	.loc	3 453 3 is_stmt 1               @ rt-thread/components/net/lwip-2.0.2/src/core/ipv4/dhcp.c:453:3
	cmp	r4, #0
	beq	.LBB5_1
.Ltmp85:
.LBB5_3:                                @ =>This Inner Loop Header: Depth=1
	@DEBUG_VALUE: dhcp_fine_tmr:netif <- $r4
	.loc	3 454 25                        @ rt-thread/components/net/lwip-2.0.2/src/core/ipv4/dhcp.c:454:25
	ldr	r0, [r4, #40]
.Ltmp86:
	@DEBUG_VALUE: dhcp <- $r0
	.loc	3 456 9                         @ rt-thread/components/net/lwip-2.0.2/src/core/ipv4/dhcp.c:456:9
	cmp	r0, #0
	beq	.LBB5_2
.Ltmp87:
@ %bb.4:                                @   in Loop: Header=BB5_3 Depth=1
	@DEBUG_VALUE: dhcp_fine_tmr:netif <- $r4
	@DEBUG_VALUE: dhcp <- $r0
	.loc	3 458 17                        @ rt-thread/components/net/lwip-2.0.2/src/core/ipv4/dhcp.c:458:17
	ldrh	r1, [r0, #22]
.Ltmp88:
	.loc	3 458 11 is_stmt 0              @ rt-thread/components/net/lwip-2.0.2/src/core/ipv4/dhcp.c:458:11
	cmp	r1, #2
	blo	.LBB5_6
.Ltmp89:
@ %bb.5:                                @   in Loop: Header=BB5_3 Depth=1
	@DEBUG_VALUE: dhcp_fine_tmr:netif <- $r4
	@DEBUG_VALUE: dhcp <- $r0
	.loc	3 459 30 is_stmt 1              @ rt-thread/components/net/lwip-2.0.2/src/core/ipv4/dhcp.c:459:30
	subs	r1, #1
	strh	r1, [r0, #22]
.Ltmp90:
	@DEBUG_VALUE: dhcp_fine_tmr:netif <- undef
	.loc	3 0 0 is_stmt 0                 @ rt-thread/components/net/lwip-2.0.2/src/core/ipv4/dhcp.c:0:0
	ldr	r4, [r4]
.Ltmp91:
	@DEBUG_VALUE: dhcp_fine_tmr:netif <- $r4
	.loc	3 453 3 is_stmt 1               @ rt-thread/components/net/lwip-2.0.2/src/core/ipv4/dhcp.c:453:3
	cmp	r4, #0
	bne	.LBB5_3
	b	.LBB5_1
.Ltmp92:
	.p2align	2
.LBB5_6:                                @   in Loop: Header=BB5_3 Depth=1
	@DEBUG_VALUE: dhcp_fine_tmr:netif <- $r4
	@DEBUG_VALUE: dhcp <- $r0
	.loc	3 461 16                        @ rt-thread/components/net/lwip-2.0.2/src/core/ipv4/dhcp.c:461:16
	cmp	r1, #1
	bne	.LBB5_2
.Ltmp93:
@ %bb.7:                                @   in Loop: Header=BB5_3 Depth=1
	@DEBUG_VALUE: dhcp_fine_tmr:netif <- $r4
	@DEBUG_VALUE: dhcp <- $r0
	.loc	3 462 30                        @ rt-thread/components/net/lwip-2.0.2/src/core/ipv4/dhcp.c:462:30
	subs	r1, #1
	strh	r1, [r0, #22]
	.loc	3 466 9                         @ rt-thread/components/net/lwip-2.0.2/src/core/ipv4/dhcp.c:466:9
	mov	r0, r4
.Ltmp94:
	bl	dhcp_timeout
	b	.LBB5_2
.Ltmp95:
.Lfunc_end5:
	.size	dhcp_fine_tmr, .Lfunc_end5-dhcp_fine_tmr
	.cfi_endproc
	.cantunwind
	.fnend
                                        @ -- End function
	.section	.text.dhcp_timeout,"ax",%progbits
	.p2align	3                               @ -- Begin function dhcp_timeout
	.type	dhcp_timeout,%function
	.code	16                              @ @dhcp_timeout
	.thumb_func
dhcp_timeout:
.Lfunc_begin6:
	.loc	3 484 0                         @ rt-thread/components/net/lwip-2.0.2/src/core/ipv4/dhcp.c:484:0
	.fnstart
	.cfi_startproc
@ %bb.0:
	@DEBUG_VALUE: dhcp_timeout:netif <- $r0
	.save	{r4, lr}
	push	{r4, lr}
	.cfi_def_cfa_offset 8
	.cfi_offset lr, -4
	.cfi_offset r4, -8
	mov	r4, r0
.Ltmp96:
	@DEBUG_VALUE: dhcp_timeout:netif <- $r4
	.loc	3 485 23 prologue_end           @ rt-thread/components/net/lwip-2.0.2/src/core/ipv4/dhcp.c:485:23
	ldr	r0, [r0, #40]
.Ltmp97:
	@DEBUG_VALUE: dhcp_timeout:dhcp <- $r0
	.loc	3 489 14                        @ rt-thread/components/net/lwip-2.0.2/src/core/ipv4/dhcp.c:489:14
	ldrb	r1, [r0, #9]
	.loc	3 489 47 is_stmt 0              @ rt-thread/components/net/lwip-2.0.2/src/core/ipv4/dhcp.c:489:47
	subs	r1, #1
	cmp	r1, #11
	bhi	.LBB6_12
.Ltmp98:
@ %bb.1:
	@DEBUG_VALUE: dhcp_timeout:netif <- $r4
	@DEBUG_VALUE: dhcp_timeout:dhcp <- $r0
	.loc	3 0 47                          @ rt-thread/components/net/lwip-2.0.2/src/core/ipv4/dhcp.c:0:47
.LCPI6_0:
	tbb	[pc, r1]
.Ltmp99:
@ %bb.2:
.LJTI6_0:
	.byte	(.LBB6_3-(.LCPI6_0+4))/2
	.byte	(.LBB6_12-(.LCPI6_0+4))/2
	.byte	(.LBB6_5-(.LCPI6_0+4))/2
	.byte	(.LBB6_12-(.LCPI6_0+4))/2
	.byte	(.LBB6_12-(.LCPI6_0+4))/2
	.byte	(.LBB6_10-(.LCPI6_0+4))/2
	.byte	(.LBB6_12-(.LCPI6_0+4))/2
	.byte	(.LBB6_7-(.LCPI6_0+4))/2
	.byte	(.LBB6_12-(.LCPI6_0+4))/2
	.byte	(.LBB6_12-(.LCPI6_0+4))/2
	.byte	(.LBB6_12-(.LCPI6_0+4))/2
	.byte	(.LBB6_10-(.LCPI6_0+4))/2
	.p2align	1
.LBB6_3:
.Ltmp100:
	@DEBUG_VALUE: dhcp_timeout:netif <- $r4
	@DEBUG_VALUE: dhcp_timeout:dhcp <- $r0
	.loc	3 495 15 is_stmt 1              @ rt-thread/components/net/lwip-2.0.2/src/core/ipv4/dhcp.c:495:15
	ldrb	r0, [r0, #10]
.Ltmp101:
	.loc	3 495 9 is_stmt 0               @ rt-thread/components/net/lwip-2.0.2/src/core/ipv4/dhcp.c:495:9
	cmp	r0, #5
	bhi	.LBB6_9
.Ltmp102:
@ %bb.4:
	@DEBUG_VALUE: dhcp_timeout:netif <- $r4
	.loc	3 496 7 is_stmt 1               @ rt-thread/components/net/lwip-2.0.2/src/core/ipv4/dhcp.c:496:7
	mov	r0, r4
	bl	dhcp_select
.Ltmp103:
	.loc	3 522 1                         @ rt-thread/components/net/lwip-2.0.2/src/core/ipv4/dhcp.c:522:1
	pop	{r4, pc}
.Ltmp104:
.LBB6_5:
	@DEBUG_VALUE: dhcp_timeout:netif <- $r4
	@DEBUG_VALUE: dhcp_timeout:dhcp <- $r0
	.loc	3 516 15                        @ rt-thread/components/net/lwip-2.0.2/src/core/ipv4/dhcp.c:516:15
	ldrb	r0, [r0, #10]
.Ltmp105:
	.loc	3 516 9 is_stmt 0               @ rt-thread/components/net/lwip-2.0.2/src/core/ipv4/dhcp.c:516:9
	cmp	r0, #1
	bhi	.LBB6_11
.Ltmp106:
@ %bb.6:
	@DEBUG_VALUE: dhcp_timeout:netif <- $r4
	.loc	3 517 7 is_stmt 1               @ rt-thread/components/net/lwip-2.0.2/src/core/ipv4/dhcp.c:517:7
	mov	r0, r4
	bl	dhcp_reboot
.Ltmp107:
	.loc	3 522 1                         @ rt-thread/components/net/lwip-2.0.2/src/core/ipv4/dhcp.c:522:1
	pop	{r4, pc}
.Ltmp108:
.LBB6_7:
	@DEBUG_VALUE: dhcp_timeout:netif <- $r4
	@DEBUG_VALUE: dhcp_timeout:dhcp <- $r0
	.loc	3 506 15                        @ rt-thread/components/net/lwip-2.0.2/src/core/ipv4/dhcp.c:506:15
	ldrb	r0, [r0, #10]
.Ltmp109:
	.loc	3 506 9 is_stmt 0               @ rt-thread/components/net/lwip-2.0.2/src/core/ipv4/dhcp.c:506:9
	cmp	r0, #1
	bhi	.LBB6_13
.Ltmp110:
@ %bb.8:
	@DEBUG_VALUE: dhcp_timeout:netif <- $r4
	.loc	3 507 7 is_stmt 1               @ rt-thread/components/net/lwip-2.0.2/src/core/ipv4/dhcp.c:507:7
	mov	r0, r4
	bl	dhcp_check
.Ltmp111:
	.loc	3 522 1                         @ rt-thread/components/net/lwip-2.0.2/src/core/ipv4/dhcp.c:522:1
	pop	{r4, pc}
.Ltmp112:
.LBB6_9:
	@DEBUG_VALUE: dhcp_timeout:netif <- $r4
	.loc	3 499 7                         @ rt-thread/components/net/lwip-2.0.2/src/core/ipv4/dhcp.c:499:7
	mov	r0, r4
	bl	dhcp_release
.Ltmp113:
.LBB6_10:
	@DEBUG_VALUE: dhcp_timeout:netif <- $r4
	.loc	3 0 0 is_stmt 0                 @ rt-thread/components/net/lwip-2.0.2/src/core/ipv4/dhcp.c:0:0
	mov	r0, r4
	bl	dhcp_discover
.Ltmp114:
	.loc	3 522 1 is_stmt 1               @ rt-thread/components/net/lwip-2.0.2/src/core/ipv4/dhcp.c:522:1
	pop	{r4, pc}
.Ltmp115:
.LBB6_11:
	@DEBUG_VALUE: dhcp_timeout:netif <- $r4
	.loc	3 519 7                         @ rt-thread/components/net/lwip-2.0.2/src/core/ipv4/dhcp.c:519:7
	mov	r0, r4
	bl	dhcp_discover
.Ltmp116:
.LBB6_12:
	@DEBUG_VALUE: dhcp_timeout:netif <- $r4
	.loc	3 522 1                         @ rt-thread/components/net/lwip-2.0.2/src/core/ipv4/dhcp.c:522:1
	pop	{r4, pc}
.Ltmp117:
.LBB6_13:
	@DEBUG_VALUE: dhcp_timeout:netif <- $r4
	.loc	3 512 7                         @ rt-thread/components/net/lwip-2.0.2/src/core/ipv4/dhcp.c:512:7
	mov	r0, r4
	bl	dhcp_bind
.Ltmp118:
	.loc	3 522 1                         @ rt-thread/components/net/lwip-2.0.2/src/core/ipv4/dhcp.c:522:1
	pop	{r4, pc}
.Ltmp119:
.Lfunc_end6:
	.size	dhcp_timeout, .Lfunc_end6-dhcp_timeout
	.cfi_endproc
	.cantunwind
	.fnend
                                        @ -- End function
	.section	.text.dhcp_set_struct,"ax",%progbits
	.hidden	dhcp_set_struct                 @ -- Begin function dhcp_set_struct
	.globl	dhcp_set_struct
	.p2align	3
	.type	dhcp_set_struct,%function
	.code	16                              @ @dhcp_set_struct
	.thumb_func
dhcp_set_struct:
.Lfunc_begin7:
	.loc	3 677 0                         @ rt-thread/components/net/lwip-2.0.2/src/core/ipv4/dhcp.c:677:0
	.fnstart
	.cfi_startproc
@ %bb.0:
	@DEBUG_VALUE: dhcp_set_struct:netif <- $r0
	@DEBUG_VALUE: dhcp_set_struct:dhcp <- $r1
	.save	{r4, r5, r7, lr}
	push	{r4, r5, r7, lr}
	.cfi_def_cfa_offset 16
	.cfi_offset lr, -4
	.cfi_offset r7, -8
	.cfi_offset r5, -12
	.cfi_offset r4, -16
	mov	r4, r0
.Ltmp120:
	@DEBUG_VALUE: dhcp_set_struct:netif <- $r4
	mov	r5, r1
.Ltmp121:
	@DEBUG_VALUE: dhcp_set_struct:dhcp <- $r5
	@DEBUG_VALUE: dhcp_set_struct:dhcp <- $r5
	.loc	3 678 3 prologue_end            @ rt-thread/components/net/lwip-2.0.2/src/core/ipv4/dhcp.c:678:3
	cbz	r0, .LBB7_5
.Ltmp122:
@ %bb.1:
	@DEBUG_VALUE: dhcp_set_struct:dhcp <- $r5
	@DEBUG_VALUE: dhcp_set_struct:netif <- $r4
	.loc	3 679 3                         @ rt-thread/components/net/lwip-2.0.2/src/core/ipv4/dhcp.c:679:3
	cbz	r5, .LBB7_6
.Ltmp123:
.LBB7_2:
	@DEBUG_VALUE: dhcp_set_struct:dhcp <- $r5
	@DEBUG_VALUE: dhcp_set_struct:netif <- $r4
	.loc	3 680 3                         @ rt-thread/components/net/lwip-2.0.2/src/core/ipv4/dhcp.c:680:3
	ldr	r0, [r4, #40]
.Ltmp124:
	.loc	3 680 3 is_stmt 0               @ rt-thread/components/net/lwip-2.0.2/src/core/ipv4/dhcp.c:680:3
	cbz	r0, .LBB7_4
.Ltmp125:
@ %bb.3:
	@DEBUG_VALUE: dhcp_set_struct:dhcp <- $r5
	@DEBUG_VALUE: dhcp_set_struct:netif <- $r4
	.loc	3 680 3                         @ rt-thread/components/net/lwip-2.0.2/src/core/ipv4/dhcp.c:680:3
	adr	r0, .LCPI7_1
	bl	rt_kprintf
	movw	r0, :lower16:.L.str.1
	mov.w	r1, #680
	movt	r0, :upper16:.L.str.1
	bl	sys_arch_assert
.Ltmp126:
.LBB7_4:
	@DEBUG_VALUE: dhcp_set_struct:dhcp <- $r5
	@DEBUG_VALUE: dhcp_set_struct:netif <- $r4
	.loc	3 683 3 is_stmt 1               @ rt-thread/components/net/lwip-2.0.2/src/core/ipv4/dhcp.c:683:3
	movs	r1, #64
	mov	r0, r5
	bl	__aeabi_memclr4
	.loc	3 685 3                         @ rt-thread/components/net/lwip-2.0.2/src/core/ipv4/dhcp.c:685:3
	str	r5, [r4, #40]
	.loc	3 686 1                         @ rt-thread/components/net/lwip-2.0.2/src/core/ipv4/dhcp.c:686:1
	pop	{r4, r5, r7, pc}
.Ltmp127:
.LBB7_5:
	@DEBUG_VALUE: dhcp_set_struct:dhcp <- $r5
	@DEBUG_VALUE: dhcp_set_struct:netif <- $r4
	.loc	3 678 3                         @ rt-thread/components/net/lwip-2.0.2/src/core/ipv4/dhcp.c:678:3
	movw	r0, :lower16:.L.str
	movt	r0, :upper16:.L.str
	bl	rt_kprintf
	movw	r0, :lower16:.L.str.1
	movw	r1, #678
	movt	r0, :upper16:.L.str.1
	bl	sys_arch_assert
.Ltmp128:
	.loc	3 679 3                         @ rt-thread/components/net/lwip-2.0.2/src/core/ipv4/dhcp.c:679:3
	cmp	r5, #0
	bne	.LBB7_2
.Ltmp129:
.LBB7_6:
	@DEBUG_VALUE: dhcp_set_struct:dhcp <- $r5
	@DEBUG_VALUE: dhcp_set_struct:netif <- $r4
	.loc	3 679 3 is_stmt 0               @ rt-thread/components/net/lwip-2.0.2/src/core/ipv4/dhcp.c:679:3
	adr	r0, .LCPI7_0
	bl	rt_kprintf
	movw	r0, :lower16:.L.str.1
	movw	r1, #679
	movt	r0, :upper16:.L.str.1
	bl	sys_arch_assert
	b	.LBB7_2
.Ltmp130:
	.p2align	2
@ %bb.7:
	.loc	3 0 3                           @ rt-thread/components/net/lwip-2.0.2/src/core/ipv4/dhcp.c:0:3
.LCPI7_0:
.L.str.2:
	.asciz	"dhcp != NULL\000\000\000"
.LCPI7_1:
.L.str.3:
	.asciz	"netif already has a struct dhcp set"
.Lfunc_end7:
	.size	dhcp_set_struct, .Lfunc_end7-dhcp_set_struct
	.cfi_endproc
	.cantunwind
	.fnend
                                        @ -- End function
	.section	.text.dhcp_cleanup,"ax",%progbits
	.hidden	dhcp_cleanup                    @ -- Begin function dhcp_cleanup
	.globl	dhcp_cleanup
	.p2align	3
	.type	dhcp_cleanup,%function
	.code	16                              @ @dhcp_cleanup
	.thumb_func
dhcp_cleanup:
.Lfunc_begin8:
	.loc	3 698 0 is_stmt 1               @ rt-thread/components/net/lwip-2.0.2/src/core/ipv4/dhcp.c:698:0
	.fnstart
	.cfi_startproc
@ %bb.0:
	@DEBUG_VALUE: dhcp_cleanup:netif <- $r0
	.save	{r4, lr}
	push	{r4, lr}
	.cfi_def_cfa_offset 8
	.cfi_offset lr, -4
	.cfi_offset r4, -8
	mov	r4, r0
.Ltmp131:
	@DEBUG_VALUE: dhcp_cleanup:netif <- $r4
	.loc	3 699 3 prologue_end            @ rt-thread/components/net/lwip-2.0.2/src/core/ipv4/dhcp.c:699:3
	cbnz	r0, .LBB8_2
.Ltmp132:
@ %bb.1:
	@DEBUG_VALUE: dhcp_cleanup:netif <- $r4
	.loc	3 699 3 is_stmt 0               @ rt-thread/components/net/lwip-2.0.2/src/core/ipv4/dhcp.c:699:3
	movw	r0, :lower16:.L.str
	movt	r0, :upper16:.L.str
	bl	rt_kprintf
	movw	r0, :lower16:.L.str.1
	movw	r1, #699
	movt	r0, :upper16:.L.str.1
	bl	sys_arch_assert
.Ltmp133:
.LBB8_2:
	@DEBUG_VALUE: dhcp_cleanup:netif <- $r4
	.loc	3 701 7 is_stmt 1               @ rt-thread/components/net/lwip-2.0.2/src/core/ipv4/dhcp.c:701:7
	ldr	r0, [r4, #40]
.Ltmp134:
	.loc	3 701 7 is_stmt 0               @ rt-thread/components/net/lwip-2.0.2/src/core/ipv4/dhcp.c:701:7
	cmp	r0, #0
	.loc	3 705 1 is_stmt 1               @ rt-thread/components/net/lwip-2.0.2/src/core/ipv4/dhcp.c:705:1
	it	eq
	popeq	{r4, pc}
.Ltmp135:
.LBB8_3:
	.loc	3 702 5                         @ rt-thread/components/net/lwip-2.0.2/src/core/ipv4/dhcp.c:702:5
	bl	mem_free
	movs	r0, #0
	.loc	3 703 5                         @ rt-thread/components/net/lwip-2.0.2/src/core/ipv4/dhcp.c:703:5
	str	r0, [r4, #40]
.Ltmp136:
	.loc	3 705 1                         @ rt-thread/components/net/lwip-2.0.2/src/core/ipv4/dhcp.c:705:1
	pop	{r4, pc}
.Ltmp137:
.Lfunc_end8:
	.size	dhcp_cleanup, .Lfunc_end8-dhcp_cleanup
	.cfi_endproc
	.cantunwind
	.fnend
                                        @ -- End function
	.section	.text.dhcp_start,"ax",%progbits
	.hidden	dhcp_start                      @ -- Begin function dhcp_start
	.globl	dhcp_start
	.p2align	3
	.type	dhcp_start,%function
	.code	16                              @ @dhcp_start
	.thumb_func
dhcp_start:
.Lfunc_begin9:
	.loc	3 722 0                         @ rt-thread/components/net/lwip-2.0.2/src/core/ipv4/dhcp.c:722:0
	.fnstart
	.cfi_startproc
@ %bb.0:
	@DEBUG_VALUE: dhcp_start:netif <- $r0
	@DEBUG_VALUE: dhcp_start:netif <- $r0
	.save	{r4, r5, r7, lr}
	push	{r4, r5, r7, lr}
	.cfi_def_cfa_offset 16
	.cfi_offset lr, -4
	.cfi_offset r7, -8
	.cfi_offset r5, -12
	.cfi_offset r4, -16
.Ltmp138:
	.loc	3 726 3 prologue_end            @ rt-thread/components/net/lwip-2.0.2/src/core/ipv4/dhcp.c:726:3
	cbz	r0, .LBB9_3
.Ltmp139:
@ %bb.1:
	@DEBUG_VALUE: dhcp_start:netif <- $r0
	.loc	3 0 3 is_stmt 0                 @ rt-thread/components/net/lwip-2.0.2/src/core/ipv4/dhcp.c:0:3
	mov	r4, r0
.Ltmp140:
	@DEBUG_VALUE: dhcp_start:netif <- $r4
	.loc	3 727 3 is_stmt 1               @ rt-thread/components/net/lwip-2.0.2/src/core/ipv4/dhcp.c:727:3
	ldrb.w	r0, [r0, #65]
.Ltmp141:
	.loc	3 727 3 is_stmt 0               @ rt-thread/components/net/lwip-2.0.2/src/core/ipv4/dhcp.c:727:3
	lsls	r0, r0, #31
	bne	.LBB9_5
.Ltmp142:
@ %bb.2:
	@DEBUG_VALUE: dhcp_start:netif <- $r4
	.loc	3 727 3                         @ rt-thread/components/net/lwip-2.0.2/src/core/ipv4/dhcp.c:727:3
	adr	r0, .LCPI9_1
	bl	rt_kprintf
	movw	r0, :lower16:.L.str.1
	movw	r1, #727
	movt	r0, :upper16:.L.str.1
	b	.LBB9_4
.Ltmp143:
.LBB9_3:
	@DEBUG_VALUE: dhcp_start:netif <- $r0
	.loc	3 726 3 is_stmt 1               @ rt-thread/components/net/lwip-2.0.2/src/core/ipv4/dhcp.c:726:3
	movw	r0, :lower16:.L.str
.Ltmp144:
	@DEBUG_VALUE: dhcp_start:netif <- [DW_OP_LLVM_entry_value 1] $r0
	movt	r0, :upper16:.L.str
	bl	rt_kprintf
	movw	r0, :lower16:.L.str.1
	movw	r1, #726
	movt	r0, :upper16:.L.str.1
.Ltmp145:
.LBB9_4:
	.loc	3 0 0 is_stmt 0                 @ rt-thread/components/net/lwip-2.0.2/src/core/ipv4/dhcp.c:0:0
	bl	sys_arch_assert
	movs	r0, #240
	.loc	3 789 1 is_stmt 1               @ rt-thread/components/net/lwip-2.0.2/src/core/ipv4/dhcp.c:789:1
	sxtb	r0, r0
	pop	{r4, r5, r7, pc}
.LBB9_5:
.Ltmp146:
	@DEBUG_VALUE: dhcp_start:netif <- $r4
	@DEBUG_VALUE: dhcp_start:dhcp <- undef
	.loc	3 732 14                        @ rt-thread/components/net/lwip-2.0.2/src/core/ipv4/dhcp.c:732:14
	ldrh	r0, [r4, #56]
.Ltmp147:
	.loc	3 732 7 is_stmt 0               @ rt-thread/components/net/lwip-2.0.2/src/core/ipv4/dhcp.c:732:7
	cmp.w	r0, #576
	blo	.LBB9_16
.Ltmp148:
@ %bb.6:
	@DEBUG_VALUE: dhcp_start:netif <- $r4
	.loc	3 0 0                           @ rt-thread/components/net/lwip-2.0.2/src/core/ipv4/dhcp.c:0:0
	ldr	r5, [r4, #40]
.Ltmp149:
	@DEBUG_VALUE: dhcp_start:dhcp <- $r5
	.loc	3 738 7 is_stmt 1               @ rt-thread/components/net/lwip-2.0.2/src/core/ipv4/dhcp.c:738:7
	cbz	r5, .LBB9_13
.Ltmp150:
@ %bb.7:
	@DEBUG_VALUE: dhcp_start:dhcp <- $r5
	@DEBUG_VALUE: dhcp_start:netif <- $r4
	.loc	3 752 5                         @ rt-thread/components/net/lwip-2.0.2/src/core/ipv4/dhcp.c:752:5
	ldr	r0, [r5, #12]
.Ltmp151:
	.loc	3 752 5 is_stmt 0               @ rt-thread/components/net/lwip-2.0.2/src/core/ipv4/dhcp.c:752:5
	cbz	r0, .LBB9_9
.Ltmp152:
@ %bb.8:
	@DEBUG_VALUE: dhcp_start:dhcp <- $r5
	@DEBUG_VALUE: dhcp_start:netif <- $r4
	.loc	3 752 5                         @ rt-thread/components/net/lwip-2.0.2/src/core/ipv4/dhcp.c:752:5
	adr	r0, .LCPI9_0
	bl	rt_kprintf
	movw	r0, :lower16:.L.str.1
	mov.w	r1, #752
	movt	r0, :upper16:.L.str.1
	bl	sys_arch_assert
.Ltmp153:
.LBB9_9:
	@DEBUG_VALUE: dhcp_start:dhcp <- $r5
	@DEBUG_VALUE: dhcp_start:netif <- $r4
	.loc	3 753 5 is_stmt 1               @ rt-thread/components/net/lwip-2.0.2/src/core/ipv4/dhcp.c:753:5
	ldr	r0, [r5, #4]
.Ltmp154:
	.loc	3 753 5 is_stmt 0               @ rt-thread/components/net/lwip-2.0.2/src/core/ipv4/dhcp.c:753:5
	cbz	r0, .LBB9_11
.Ltmp155:
@ %bb.10:
	@DEBUG_VALUE: dhcp_start:dhcp <- $r5
	@DEBUG_VALUE: dhcp_start:netif <- $r4
	.loc	3 753 5                         @ rt-thread/components/net/lwip-2.0.2/src/core/ipv4/dhcp.c:753:5
	movw	r0, :lower16:.L.str.6
	movt	r0, :upper16:.L.str.6
	bl	rt_kprintf
	movw	r0, :lower16:.L.str.1
	movw	r1, #753
	movt	r0, :upper16:.L.str.1
	bl	sys_arch_assert
.Ltmp156:
.LBB9_11:
	@DEBUG_VALUE: dhcp_start:dhcp <- $r5
	@DEBUG_VALUE: dhcp_start:netif <- $r4
	.loc	3 755 15 is_stmt 1              @ rt-thread/components/net/lwip-2.0.2/src/core/ipv4/dhcp.c:755:15
	ldrb	r0, [r5, #8]
.Ltmp157:
	.loc	3 755 9 is_stmt 0               @ rt-thread/components/net/lwip-2.0.2/src/core/ipv4/dhcp.c:755:9
	cbz	r0, .LBB9_15
.Ltmp158:
@ %bb.12:
	@DEBUG_VALUE: dhcp_start:dhcp <- $r5
	@DEBUG_VALUE: dhcp_start:netif <- $r4
	.loc	3 756 7 is_stmt 1               @ rt-thread/components/net/lwip-2.0.2/src/core/ipv4/dhcp.c:756:7
	bl	dhcp_dec_pcb_refcount
	b	.LBB9_15
.Ltmp159:
.LBB9_13:
	@DEBUG_VALUE: dhcp_start:dhcp <- $r5
	@DEBUG_VALUE: dhcp_start:netif <- $r4
	.loc	3 740 27                        @ rt-thread/components/net/lwip-2.0.2/src/core/ipv4/dhcp.c:740:27
	movs	r0, #64
	bl	mem_malloc
.Ltmp160:
	@DEBUG_VALUE: dhcp_start:dhcp <- $r0
	.loc	3 741 9                         @ rt-thread/components/net/lwip-2.0.2/src/core/ipv4/dhcp.c:741:9
	cbz	r0, .LBB9_16
.Ltmp161:
@ %bb.14:
	@DEBUG_VALUE: dhcp_start:netif <- $r4
	@DEBUG_VALUE: dhcp_start:dhcp <- $r0
	.loc	3 0 0 is_stmt 0                 @ rt-thread/components/net/lwip-2.0.2/src/core/ipv4/dhcp.c:0:0
	mov	r5, r0
.Ltmp162:
	@DEBUG_VALUE: dhcp_start:dhcp <- $r5
	@DEBUG_VALUE: dhcp_start:dhcp <- $r5
	.loc	3 747 5 is_stmt 1               @ rt-thread/components/net/lwip-2.0.2/src/core/ipv4/dhcp.c:747:5
	str	r0, [r4, #40]
.Ltmp163:
.LBB9_15:
	@DEBUG_VALUE: dhcp_start:dhcp <- $r5
	@DEBUG_VALUE: dhcp_start:netif <- $r4
	@DEBUG_VALUE: dhcp_start:dhcp <- $r5
	.loc	3 762 3                         @ rt-thread/components/net/lwip-2.0.2/src/core/ipv4/dhcp.c:762:3
	movs	r1, #64
	mov	r0, r5
	bl	__aeabi_memclr4
.Ltmp164:
	.loc	3 767 7                         @ rt-thread/components/net/lwip-2.0.2/src/core/ipv4/dhcp.c:767:7
	bl	dhcp_inc_pcb_refcount
.Ltmp165:
	.loc	3 767 7 is_stmt 0               @ rt-thread/components/net/lwip-2.0.2/src/core/ipv4/dhcp.c:767:7
	cbz	r0, .LBB9_17
.Ltmp166:
.LBB9_16:
	@DEBUG_VALUE: dhcp_start:netif <- $r4
	.loc	3 0 7                           @ rt-thread/components/net/lwip-2.0.2/src/core/ipv4/dhcp.c:0:7
	movs	r0, #255
	.loc	3 789 1 is_stmt 1               @ rt-thread/components/net/lwip-2.0.2/src/core/ipv4/dhcp.c:789:1
	sxtb	r0, r0
	pop	{r4, r5, r7, pc}
.Ltmp167:
.LBB9_17:
	@DEBUG_VALUE: dhcp_start:dhcp <- $r5
	@DEBUG_VALUE: dhcp_start:netif <- $r4
	.loc	3 0 1 is_stmt 0                 @ rt-thread/components/net/lwip-2.0.2/src/core/ipv4/dhcp.c:0:1
	movs	r0, #1
	.loc	3 770 23 is_stmt 1              @ rt-thread/components/net/lwip-2.0.2/src/core/ipv4/dhcp.c:770:23
	strb	r0, [r5, #8]
	.loc	3 782 12                        @ rt-thread/components/net/lwip-2.0.2/src/core/ipv4/dhcp.c:782:12
	mov	r0, r4
	bl	dhcp_discover
.Ltmp168:
	@DEBUG_VALUE: dhcp_start:result <- $r0
	.loc	3 783 7                         @ rt-thread/components/net/lwip-2.0.2/src/core/ipv4/dhcp.c:783:7
	cbz	r0, .LBB9_19
.Ltmp169:
@ %bb.18:
	@DEBUG_VALUE: dhcp_start:dhcp <- $r5
	@DEBUG_VALUE: dhcp_start:netif <- $r4
	@DEBUG_VALUE: dhcp_start:result <- $r0
	.loc	3 785 5                         @ rt-thread/components/net/lwip-2.0.2/src/core/ipv4/dhcp.c:785:5
	mov	r0, r4
.Ltmp170:
	bl	dhcp_stop
	movs	r0, #255
.Ltmp171:
.LBB9_19:
	@DEBUG_VALUE: dhcp_start:dhcp <- $r5
	@DEBUG_VALUE: dhcp_start:netif <- $r4
	.loc	3 789 1                         @ rt-thread/components/net/lwip-2.0.2/src/core/ipv4/dhcp.c:789:1
	sxtb	r0, r0
	pop	{r4, r5, r7, pc}
.Ltmp172:
	.p2align	2
@ %bb.20:
	.loc	3 0 1 is_stmt 0                 @ rt-thread/components/net/lwip-2.0.2/src/core/ipv4/dhcp.c:0:1
.LCPI9_0:
.L.str.5:
	.asciz	"pbuf p_out wasn't freed"
.LCPI9_1:
.L.str.4:
	.asciz	"netif is not up, old style port?\000\000\000"
.Lfunc_end9:
	.size	dhcp_start, .Lfunc_end9-dhcp_start
	.cfi_endproc
	.cantunwind
	.fnend
                                        @ -- End function
	.section	.text.dhcp_dec_pcb_refcount,"ax",%progbits
	.p2align	3                               @ -- Begin function dhcp_dec_pcb_refcount
	.type	dhcp_dec_pcb_refcount,%function
	.code	16                              @ @dhcp_dec_pcb_refcount
	.thumb_func
dhcp_dec_pcb_refcount:
.Lfunc_begin10:
	.loc	3 242 0 is_stmt 1               @ rt-thread/components/net/lwip-2.0.2/src/core/ipv4/dhcp.c:242:0
	.fnstart
	.cfi_startproc
@ %bb.0:
	.save	{r4, lr}
	push	{r4, lr}
	.cfi_def_cfa_offset 8
	.cfi_offset lr, -4
	.cfi_offset r4, -8
.Ltmp173:
	.loc	3 243 3 prologue_end            @ rt-thread/components/net/lwip-2.0.2/src/core/ipv4/dhcp.c:243:3
	movw	r4, :lower16:dhcp_pcb_refcount
	movt	r4, :upper16:dhcp_pcb_refcount
	ldrb	r0, [r4]
.Ltmp174:
	.loc	3 243 3 is_stmt 0               @ rt-thread/components/net/lwip-2.0.2/src/core/ipv4/dhcp.c:243:3
	cbnz	r0, .LBB10_2
@ %bb.1:
.Ltmp175:
	.loc	3 243 3                         @ rt-thread/components/net/lwip-2.0.2/src/core/ipv4/dhcp.c:243:3
	adr	r0, .LCPI10_0
	bl	rt_kprintf
	movw	r0, :lower16:.L.str.1
	movs	r1, #243
	movt	r0, :upper16:.L.str.1
	bl	sys_arch_assert
.Ltmp176:
.LBB10_2:
	.loc	3 244 20 is_stmt 1              @ rt-thread/components/net/lwip-2.0.2/src/core/ipv4/dhcp.c:244:20
	ldrb	r0, [r4]
	subs	r0, #1
	strb	r0, [r4]
	.loc	3 246 7                         @ rt-thread/components/net/lwip-2.0.2/src/core/ipv4/dhcp.c:246:7
	lsls	r1, r0, #24
	.loc	3 250 1                         @ rt-thread/components/net/lwip-2.0.2/src/core/ipv4/dhcp.c:250:1
	it	ne
	popne	{r4, pc}
.LBB10_3:
.Ltmp177:
	.loc	3 247 16                        @ rt-thread/components/net/lwip-2.0.2/src/core/ipv4/dhcp.c:247:16
	movw	r4, :lower16:dhcp_pcb
	movt	r4, :upper16:dhcp_pcb
	ldr	r0, [r4]
	.loc	3 247 5 is_stmt 0               @ rt-thread/components/net/lwip-2.0.2/src/core/ipv4/dhcp.c:247:5
	bl	udp_remove
	movs	r0, #0
	.loc	3 248 14 is_stmt 1              @ rt-thread/components/net/lwip-2.0.2/src/core/ipv4/dhcp.c:248:14
	str	r0, [r4]
.Ltmp178:
	.loc	3 250 1                         @ rt-thread/components/net/lwip-2.0.2/src/core/ipv4/dhcp.c:250:1
	pop	{r4, pc}
.Ltmp179:
	.p2align	2
@ %bb.4:
	.loc	3 0 1 is_stmt 0                 @ rt-thread/components/net/lwip-2.0.2/src/core/ipv4/dhcp.c:0:1
.LCPI10_0:
.L.str.10:
	.asciz	"dhcp_pcb_refcount(): refcount error"
.Lfunc_end10:
	.size	dhcp_dec_pcb_refcount, .Lfunc_end10-dhcp_dec_pcb_refcount
	.cfi_endproc
	.cantunwind
	.fnend
                                        @ -- End function
	.section	.text.dhcp_inc_pcb_refcount,"ax",%progbits
	.p2align	3                               @ -- Begin function dhcp_inc_pcb_refcount
	.type	dhcp_inc_pcb_refcount,%function
	.code	16                              @ @dhcp_inc_pcb_refcount
	.thumb_func
dhcp_inc_pcb_refcount:
.Lfunc_begin11:
	.loc	3 215 0 is_stmt 1               @ rt-thread/components/net/lwip-2.0.2/src/core/ipv4/dhcp.c:215:0
	.fnstart
	.cfi_startproc
@ %bb.0:
	.save	{r4, r5, r6, lr}
	push	{r4, r5, r6, lr}
	.cfi_def_cfa_offset 16
	.cfi_offset lr, -4
	.cfi_offset r6, -8
	.cfi_offset r5, -12
	.cfi_offset r4, -16
.Ltmp180:
	.loc	3 216 7 prologue_end            @ rt-thread/components/net/lwip-2.0.2/src/core/ipv4/dhcp.c:216:7
	movw	r5, :lower16:dhcp_pcb_refcount
	movt	r5, :upper16:dhcp_pcb_refcount
	ldrb	r0, [r5]
.Ltmp181:
	.loc	3 216 7 is_stmt 0               @ rt-thread/components/net/lwip-2.0.2/src/core/ipv4/dhcp.c:216:7
	cbnz	r0, .LBB11_5
@ %bb.1:
.Ltmp182:
	.loc	3 217 5 is_stmt 1               @ rt-thread/components/net/lwip-2.0.2/src/core/ipv4/dhcp.c:217:5
	movw	r6, :lower16:dhcp_pcb
	movt	r6, :upper16:dhcp_pcb
	ldr	r0, [r6]
.Ltmp183:
	.loc	3 217 5 is_stmt 0               @ rt-thread/components/net/lwip-2.0.2/src/core/ipv4/dhcp.c:217:5
	cbz	r0, .LBB11_3
@ %bb.2:
.Ltmp184:
	.loc	3 217 5                         @ rt-thread/components/net/lwip-2.0.2/src/core/ipv4/dhcp.c:217:5
	adr	r0, .LCPI11_0
	bl	rt_kprintf
	movw	r0, :lower16:.L.str.1
	movs	r1, #217
	movt	r0, :upper16:.L.str.1
	bl	sys_arch_assert
.Ltmp185:
.LBB11_3:
	.loc	3 220 16 is_stmt 1              @ rt-thread/components/net/lwip-2.0.2/src/core/ipv4/dhcp.c:220:16
	bl	udp_new
	.loc	3 220 14 is_stmt 0              @ rt-thread/components/net/lwip-2.0.2/src/core/ipv4/dhcp.c:220:14
	str	r0, [r6]
	.loc	3 222 9 is_stmt 1               @ rt-thread/components/net/lwip-2.0.2/src/core/ipv4/dhcp.c:222:9
	cbz	r0, .LBB11_6
@ %bb.4:
	.loc	3 226 5                         @ rt-thread/components/net/lwip-2.0.2/src/core/ipv4/dhcp.c:226:5
	ldrb	r1, [r0, #8]
	.loc	3 229 5                         @ rt-thread/components/net/lwip-2.0.2/src/core/ipv4/dhcp.c:229:5
	movw	r4, :lower16:ip_addr_any
	movt	r4, :upper16:ip_addr_any
	movs	r2, #68
	.loc	3 226 5                         @ rt-thread/components/net/lwip-2.0.2/src/core/ipv4/dhcp.c:226:5
	orr	r1, r1, #32
	strb	r1, [r0, #8]
	.loc	3 229 5                         @ rt-thread/components/net/lwip-2.0.2/src/core/ipv4/dhcp.c:229:5
	mov	r1, r4
	bl	udp_bind
	.loc	3 230 17                        @ rt-thread/components/net/lwip-2.0.2/src/core/ipv4/dhcp.c:230:17
	ldr	r0, [r6]
	.loc	3 230 5 is_stmt 0               @ rt-thread/components/net/lwip-2.0.2/src/core/ipv4/dhcp.c:230:5
	movs	r2, #67
	mov	r1, r4
	bl	udp_connect
	.loc	3 231 5 is_stmt 1               @ rt-thread/components/net/lwip-2.0.2/src/core/ipv4/dhcp.c:231:5
	movw	r1, :lower16:dhcp_recv
	.loc	3 231 14 is_stmt 0              @ rt-thread/components/net/lwip-2.0.2/src/core/ipv4/dhcp.c:231:14
	ldr	r0, [r6]
	.loc	3 231 5                         @ rt-thread/components/net/lwip-2.0.2/src/core/ipv4/dhcp.c:231:5
	movt	r1, :upper16:dhcp_recv
	movs	r2, #0
	bl	udp_recv
.Ltmp186:
.LBB11_5:
	.loc	3 234 20 is_stmt 1              @ rt-thread/components/net/lwip-2.0.2/src/core/ipv4/dhcp.c:234:20
	ldrb	r0, [r5]
	adds	r0, #1
	strb	r0, [r5]
	movs	r0, #0
	.loc	3 237 1                         @ rt-thread/components/net/lwip-2.0.2/src/core/ipv4/dhcp.c:237:1
	sxtb	r0, r0
	pop	{r4, r5, r6, pc}
.LBB11_6:
	.loc	3 0 1 is_stmt 0                 @ rt-thread/components/net/lwip-2.0.2/src/core/ipv4/dhcp.c:0:1
	movs	r0, #255
	.loc	3 237 1                         @ rt-thread/components/net/lwip-2.0.2/src/core/ipv4/dhcp.c:237:1
	sxtb	r0, r0
	pop	{r4, r5, r6, pc}
.Ltmp187:
	.p2align	2
@ %bb.7:
	.loc	3 0 1                           @ rt-thread/components/net/lwip-2.0.2/src/core/ipv4/dhcp.c:0:1
.LCPI11_0:
.L.str.11:
	.asciz	"dhcp_inc_pcb_refcount(): memory leak\000\000\000"
.Lfunc_end11:
	.size	dhcp_inc_pcb_refcount, .Lfunc_end11-dhcp_inc_pcb_refcount
	.cfi_endproc
	.cantunwind
	.fnend
                                        @ -- End function
	.section	.text.dhcp_stop,"ax",%progbits
	.hidden	dhcp_stop                       @ -- Begin function dhcp_stop
	.globl	dhcp_stop
	.p2align	3
	.type	dhcp_stop,%function
	.code	16                              @ @dhcp_stop
	.thumb_func
dhcp_stop:
.Lfunc_begin12:
	.loc	3 1344 0 is_stmt 1              @ rt-thread/components/net/lwip-2.0.2/src/core/ipv4/dhcp.c:1344:0
	.fnstart
	.cfi_startproc
@ %bb.0:
	@DEBUG_VALUE: dhcp_stop:netif <- $r0
	@DEBUG_VALUE: dhcp_stop:netif <- $r0
	.save	{r4, r5, r7, lr}
	push	{r4, r5, r7, lr}
	.cfi_def_cfa_offset 16
	.cfi_offset lr, -4
	.cfi_offset r7, -8
	.cfi_offset r5, -12
	.cfi_offset r4, -16
.Ltmp188:
	.loc	3 1346 3 prologue_end           @ rt-thread/components/net/lwip-2.0.2/src/core/ipv4/dhcp.c:1346:3
	cbz	r0, .LBB12_7
.Ltmp189:
@ %bb.1:
	@DEBUG_VALUE: dhcp_stop:netif <- $r0
	.loc	3 1347 10                       @ rt-thread/components/net/lwip-2.0.2/src/core/ipv4/dhcp.c:1347:10
	ldr	r4, [r0, #40]
.Ltmp190:
	@DEBUG_VALUE: dhcp_stop:dhcp <- $r4
	.loc	3 1351 7                        @ rt-thread/components/net/lwip-2.0.2/src/core/ipv4/dhcp.c:1351:7
	cbz	r4, .LBB12_6
.Ltmp191:
@ %bb.2:
	@DEBUG_VALUE: dhcp_stop:dhcp <- $r4
	@DEBUG_VALUE: dhcp_stop:netif <- $r0
	.loc	3 1359 5                        @ rt-thread/components/net/lwip-2.0.2/src/core/ipv4/dhcp.c:1359:5
	ldr	r0, [r4, #4]
.Ltmp192:
	@DEBUG_VALUE: dhcp_stop:netif <- [DW_OP_LLVM_entry_value 1] $r0
	.loc	3 1359 5 is_stmt 0              @ rt-thread/components/net/lwip-2.0.2/src/core/ipv4/dhcp.c:1359:5
	cbz	r0, .LBB12_4
.Ltmp193:
@ %bb.3:
	@DEBUG_VALUE: dhcp_stop:dhcp <- $r4
	@DEBUG_VALUE: dhcp_stop:netif <- [DW_OP_LLVM_entry_value 1] $r0
	.loc	3 1359 5                        @ rt-thread/components/net/lwip-2.0.2/src/core/ipv4/dhcp.c:1359:5
	movw	r0, :lower16:.L.str.6
	movt	r0, :upper16:.L.str.6
	bl	rt_kprintf
	movw	r0, :lower16:.L.str.1
	movw	r1, #1359
	movt	r0, :upper16:.L.str.1
	bl	sys_arch_assert
.Ltmp194:
.LBB12_4:
	@DEBUG_VALUE: dhcp_stop:dhcp <- $r4
	@DEBUG_VALUE: dhcp_stop:netif <- [DW_OP_LLVM_entry_value 1] $r0
	.loc	3 1360 5 is_stmt 1              @ rt-thread/components/net/lwip-2.0.2/src/core/ipv4/dhcp.c:1360:5
	movs	r1, #0
	mov	r0, r4
	movs	r5, #0
	bl	dhcp_set_state
.Ltmp195:
	.loc	3 1362 15                       @ rt-thread/components/net/lwip-2.0.2/src/core/ipv4/dhcp.c:1362:15
	ldrb	r0, [r4, #8]
.Ltmp196:
	.loc	3 1362 9 is_stmt 0              @ rt-thread/components/net/lwip-2.0.2/src/core/ipv4/dhcp.c:1362:9
	cmp	r0, #0
.Ltmp197:
	.loc	3 1367 1 is_stmt 1              @ rt-thread/components/net/lwip-2.0.2/src/core/ipv4/dhcp.c:1367:1
	it	eq
	popeq	{r4, r5, r7, pc}
.Ltmp198:
.LBB12_5:
	@DEBUG_VALUE: dhcp_stop:netif <- [DW_OP_LLVM_entry_value 1] $r0
	.loc	3 1363 7                        @ rt-thread/components/net/lwip-2.0.2/src/core/ipv4/dhcp.c:1363:7
	bl	dhcp_dec_pcb_refcount
	.loc	3 1364 27                       @ rt-thread/components/net/lwip-2.0.2/src/core/ipv4/dhcp.c:1364:27
	strb	r5, [r4, #8]
.Ltmp199:
.LBB12_6:
	.loc	3 1367 1                        @ rt-thread/components/net/lwip-2.0.2/src/core/ipv4/dhcp.c:1367:1
	pop	{r4, r5, r7, pc}
.LBB12_7:
.Ltmp200:
	@DEBUG_VALUE: dhcp_stop:netif <- $r0
	.loc	3 1346 3                        @ rt-thread/components/net/lwip-2.0.2/src/core/ipv4/dhcp.c:1346:3
	adr	r0, .LCPI12_0
.Ltmp201:
	@DEBUG_VALUE: dhcp_stop:netif <- [DW_OP_LLVM_entry_value 1] $r0
	bl	rt_kprintf
	movw	r0, :lower16:.L.str.1
	movw	r1, #1346
	movt	r0, :upper16:.L.str.1
	bl	sys_arch_assert
.Ltmp202:
	.loc	3 1367 1                        @ rt-thread/components/net/lwip-2.0.2/src/core/ipv4/dhcp.c:1367:1
	pop	{r4, r5, r7, pc}
.Ltmp203:
	.p2align	2
@ %bb.8:
	.loc	3 0 1 is_stmt 0                 @ rt-thread/components/net/lwip-2.0.2/src/core/ipv4/dhcp.c:0:1
.LCPI12_0:
.L.str.7:
	.asciz	"dhcp_stop: netif != NULL\000\000\000"
.Lfunc_end12:
	.size	dhcp_stop, .Lfunc_end12-dhcp_stop
	.cfi_endproc
	.cantunwind
	.fnend
                                        @ -- End function
	.section	.text.dhcp_inform,"ax",%progbits
	.hidden	dhcp_inform                     @ -- Begin function dhcp_inform
	.globl	dhcp_inform
	.p2align	3
	.type	dhcp_inform,%function
	.code	16                              @ @dhcp_inform
	.thumb_func
dhcp_inform:
.Lfunc_begin13:
	.loc	3 803 0 is_stmt 1               @ rt-thread/components/net/lwip-2.0.2/src/core/ipv4/dhcp.c:803:0
	.fnstart
	.cfi_startproc
@ %bb.0:
	@DEBUG_VALUE: dhcp_inform:netif <- $r0
	@DEBUG_VALUE: dhcp_inform:netif <- $r0
	.save	{r4, r5, r7, lr}
	push	{r4, r5, r7, lr}
	.cfi_def_cfa_offset 16
	.cfi_offset lr, -4
	.cfi_offset r7, -8
	.cfi_offset r5, -12
	.cfi_offset r4, -16
	.pad	#72
	sub	sp, #72
	.cfi_def_cfa_offset 88
.Ltmp204:
	@DEBUG_VALUE: dhcp_inform:result <- 0
	.loc	3 807 3 prologue_end            @ rt-thread/components/net/lwip-2.0.2/src/core/ipv4/dhcp.c:807:3
	cbz	r0, .LBB13_3
.Ltmp205:
@ %bb.1:
	@DEBUG_VALUE: dhcp_inform:netif <- $r0
	@DEBUG_VALUE: dhcp_inform:result <- 0
	.loc	3 0 3 is_stmt 0                 @ rt-thread/components/net/lwip-2.0.2/src/core/ipv4/dhcp.c:0:3
	mov	r4, r0
.Ltmp206:
	@DEBUG_VALUE: dhcp_inform:netif <- $r4
	@DEBUG_VALUE: dhcp_inform:netif <- $r4
	.loc	3 809 7 is_stmt 1               @ rt-thread/components/net/lwip-2.0.2/src/core/ipv4/dhcp.c:809:7
	bl	dhcp_inc_pcb_refcount
.Ltmp207:
	.loc	3 809 7 is_stmt 0               @ rt-thread/components/net/lwip-2.0.2/src/core/ipv4/dhcp.c:809:7
	cbz	r0, .LBB13_4
.Ltmp208:
@ %bb.2:
	@DEBUG_VALUE: dhcp_inform:netif <- $r4
	@DEBUG_VALUE: dhcp_inform:result <- 0
	.loc	3 836 1 is_stmt 1               @ rt-thread/components/net/lwip-2.0.2/src/core/ipv4/dhcp.c:836:1
	add	sp, #72
	pop	{r4, r5, r7, pc}
.Ltmp209:
.LBB13_3:
	@DEBUG_VALUE: dhcp_inform:netif <- $r0
	@DEBUG_VALUE: dhcp_inform:result <- 0
	.loc	3 807 3                         @ rt-thread/components/net/lwip-2.0.2/src/core/ipv4/dhcp.c:807:3
	movw	r0, :lower16:.L.str
.Ltmp210:
	@DEBUG_VALUE: dhcp_inform:netif <- [DW_OP_LLVM_entry_value 1] $r0
	movt	r0, :upper16:.L.str
	bl	rt_kprintf
	movw	r0, :lower16:.L.str.1
	movw	r1, #807
	movt	r0, :upper16:.L.str.1
	bl	sys_arch_assert
.Ltmp211:
	.loc	3 836 1                         @ rt-thread/components/net/lwip-2.0.2/src/core/ipv4/dhcp.c:836:1
	add	sp, #72
	pop	{r4, r5, r7, pc}
.Ltmp212:
.LBB13_4:
	@DEBUG_VALUE: dhcp_inform:netif <- $r4
	@DEBUG_VALUE: dhcp_inform:result <- 0
	.loc	3 0 1 is_stmt 0                 @ rt-thread/components/net/lwip-2.0.2/src/core/ipv4/dhcp.c:0:1
	add	r5, sp, #8
	.loc	3 813 3 is_stmt 1               @ rt-thread/components/net/lwip-2.0.2/src/core/ipv4/dhcp.c:813:3
	movs	r1, #64
	mov	r0, r5
	bl	__aeabi_memclr4
	.loc	3 814 3                         @ rt-thread/components/net/lwip-2.0.2/src/core/ipv4/dhcp.c:814:3
	movs	r1, #7
	mov	r0, r5
	bl	dhcp_set_state
	.loc	3 817 12                        @ rt-thread/components/net/lwip-2.0.2/src/core/ipv4/dhcp.c:817:12
	movs	r2, #8
	mov	r0, r4
	mov	r1, r5
	bl	dhcp_create_msg
.Ltmp213:
	@DEBUG_VALUE: dhcp_inform:result <- $r0
	.loc	3 818 7                         @ rt-thread/components/net/lwip-2.0.2/src/core/ipv4/dhcp.c:818:7
	cbnz	r0, .LBB13_6
.Ltmp214:
@ %bb.5:
	@DEBUG_VALUE: dhcp_inform:netif <- $r4
	@DEBUG_VALUE: dhcp_inform:result <- $r0
	.loc	3 0 7 is_stmt 0                 @ rt-thread/components/net/lwip-2.0.2/src/core/ipv4/dhcp.c:0:7
	add	r5, sp, #8
.Ltmp215:
	.loc	3 819 5 is_stmt 1               @ rt-thread/components/net/lwip-2.0.2/src/core/ipv4/dhcp.c:819:5
	movs	r1, #57
	movs	r2, #2
	mov	r0, r5
.Ltmp216:
	bl	dhcp_option
	.loc	3 820 30                        @ rt-thread/components/net/lwip-2.0.2/src/core/ipv4/dhcp.c:820:30
	ldrh	r1, [r4, #56]
	.loc	3 820 5 is_stmt 0               @ rt-thread/components/net/lwip-2.0.2/src/core/ipv4/dhcp.c:820:5
	mov	r0, r5
	bl	dhcp_option_short
	.loc	3 822 5 is_stmt 1               @ rt-thread/components/net/lwip-2.0.2/src/core/ipv4/dhcp.c:822:5
	mov	r0, r5
	bl	dhcp_option_trailer
	.loc	3 824 80                        @ rt-thread/components/net/lwip-2.0.2/src/core/ipv4/dhcp.c:824:80
	ldrh.w	r1, [sp, #28]
	.loc	3 824 23 is_stmt 0              @ rt-thread/components/net/lwip-2.0.2/src/core/ipv4/dhcp.c:824:23
	ldr	r0, [sp, #20]
	.loc	3 824 73                        @ rt-thread/components/net/lwip-2.0.2/src/core/ipv4/dhcp.c:824:73
	adds	r1, #240
	.loc	3 824 5                         @ rt-thread/components/net/lwip-2.0.2/src/core/ipv4/dhcp.c:824:5
	uxth	r1, r1
	bl	pbuf_realloc
	.loc	3 828 19 is_stmt 1              @ rt-thread/components/net/lwip-2.0.2/src/core/ipv4/dhcp.c:828:19
	movw	r0, :lower16:dhcp_pcb
	.loc	3 828 5 is_stmt 0               @ rt-thread/components/net/lwip-2.0.2/src/core/ipv4/dhcp.c:828:5
	movw	r2, :lower16:ip_addr_broadcast
	.loc	3 828 19                        @ rt-thread/components/net/lwip-2.0.2/src/core/ipv4/dhcp.c:828:19
	movt	r0, :upper16:dhcp_pcb
	.loc	3 828 34                        @ rt-thread/components/net/lwip-2.0.2/src/core/ipv4/dhcp.c:828:34
	ldr	r1, [sp, #20]
	.loc	3 828 5                         @ rt-thread/components/net/lwip-2.0.2/src/core/ipv4/dhcp.c:828:5
	movt	r2, :upper16:ip_addr_broadcast
	movs	r3, #67
	.loc	3 828 19                        @ rt-thread/components/net/lwip-2.0.2/src/core/ipv4/dhcp.c:828:19
	ldr	r0, [r0]
	.loc	3 828 5                         @ rt-thread/components/net/lwip-2.0.2/src/core/ipv4/dhcp.c:828:5
	str	r4, [sp]
	bl	udp_sendto_if
	.loc	3 830 5 is_stmt 1               @ rt-thread/components/net/lwip-2.0.2/src/core/ipv4/dhcp.c:830:5
	mov	r0, r5
	bl	dhcp_delete_msg
.Ltmp217:
.LBB13_6:
	@DEBUG_VALUE: dhcp_inform:netif <- $r4
	.loc	3 835 3                         @ rt-thread/components/net/lwip-2.0.2/src/core/ipv4/dhcp.c:835:3
	bl	dhcp_dec_pcb_refcount
	.loc	3 836 1                         @ rt-thread/components/net/lwip-2.0.2/src/core/ipv4/dhcp.c:836:1
	add	sp, #72
	pop	{r4, r5, r7, pc}
.Ltmp218:
.Lfunc_end13:
	.size	dhcp_inform, .Lfunc_end13-dhcp_inform
	.cfi_endproc
	.cantunwind
	.fnend
                                        @ -- End function
	.section	.text.dhcp_set_state,"ax",%progbits
	.p2align	3                               @ -- Begin function dhcp_set_state
	.type	dhcp_set_state,%function
	.code	16                              @ @dhcp_set_state
	.thumb_func
dhcp_set_state:
.Lfunc_begin14:
	.loc	3 1376 0                        @ rt-thread/components/net/lwip-2.0.2/src/core/ipv4/dhcp.c:1376:0
	.fnstart
	.cfi_startproc
@ %bb.0:
	@DEBUG_VALUE: dhcp_set_state:dhcp <- $r0
	@DEBUG_VALUE: dhcp_set_state:dhcp <- $r0
	@DEBUG_VALUE: dhcp_set_state:new_state <- $r1
	.loc	3 1377 26 prologue_end          @ rt-thread/components/net/lwip-2.0.2/src/core/ipv4/dhcp.c:1377:26
	ldrb	r2, [r0, #9]
.Ltmp219:
	@DEBUG_VALUE: dhcp_set_state:new_state <- $r1
	.loc	3 1377 7 is_stmt 0              @ rt-thread/components/net/lwip-2.0.2/src/core/ipv4/dhcp.c:1377:7
	cmp	r2, r1
	.loc	3 1382 1 is_stmt 1              @ rt-thread/components/net/lwip-2.0.2/src/core/ipv4/dhcp.c:1382:1
	it	eq
	bxeq	lr
.Ltmp220:
.LBB14_1:
	@DEBUG_VALUE: dhcp_set_state:new_state <- $r1
	@DEBUG_VALUE: dhcp_set_state:dhcp <- $r0
	.loc	3 1378 17                       @ rt-thread/components/net/lwip-2.0.2/src/core/ipv4/dhcp.c:1378:17
	strb	r1, [r0, #9]
	movs	r1, #0
.Ltmp221:
	@DEBUG_VALUE: dhcp_set_state:new_state <- [DW_OP_LLVM_entry_value 1] $r1
	.loc	3 1379 17                       @ rt-thread/components/net/lwip-2.0.2/src/core/ipv4/dhcp.c:1379:17
	strb	r1, [r0, #10]
	.loc	3 1380 27                       @ rt-thread/components/net/lwip-2.0.2/src/core/ipv4/dhcp.c:1380:27
	strh	r1, [r0, #22]
.Ltmp222:
	.loc	3 1382 1                        @ rt-thread/components/net/lwip-2.0.2/src/core/ipv4/dhcp.c:1382:1
	bx	lr
.Ltmp223:
.Lfunc_end14:
	.size	dhcp_set_state, .Lfunc_end14-dhcp_set_state
	.cfi_endproc
	.cantunwind
	.fnend
                                        @ -- End function
	.section	.text.dhcp_create_msg,"ax",%progbits
	.p2align	3                               @ -- Begin function dhcp_create_msg
	.type	dhcp_create_msg,%function
	.code	16                              @ @dhcp_create_msg
	.thumb_func
dhcp_create_msg:
.Lfunc_begin15:
	.loc	3 1803 0                        @ rt-thread/components/net/lwip-2.0.2/src/core/ipv4/dhcp.c:1803:0
	.fnstart
	.cfi_startproc
@ %bb.0:
	@DEBUG_VALUE: dhcp_create_msg:netif <- $r0
	@DEBUG_VALUE: dhcp_create_msg:dhcp <- $r1
	@DEBUG_VALUE: dhcp_create_msg:message_type <- $r2
	@DEBUG_VALUE: dhcp_create_msg:message_type <- undef
	@DEBUG_VALUE: dhcp_create_msg:netif <- $r0
	.save	{r4, r5, r6, r7, lr}
	push	{r4, r5, r6, r7, lr}
	.cfi_def_cfa_offset 20
	.cfi_offset lr, -4
	.cfi_offset r7, -8
	.cfi_offset r6, -12
	.cfi_offset r5, -16
	.cfi_offset r4, -20
	.pad	#4
	sub	sp, #4
	.cfi_def_cfa_offset 24
.Ltmp224:
	.loc	3 1821 3 prologue_end           @ rt-thread/components/net/lwip-2.0.2/src/core/ipv4/dhcp.c:1821:3
	cmp	r0, #0
.Ltmp225:
	@DEBUG_VALUE: dhcp_create_msg:message_type <- $r2
	@DEBUG_VALUE: dhcp_create_msg:dhcp <- $r1
	beq.w	.LBB15_22
.Ltmp226:
@ %bb.1:
	@DEBUG_VALUE: dhcp_create_msg:message_type <- $r2
	@DEBUG_VALUE: dhcp_create_msg:dhcp <- $r1
	@DEBUG_VALUE: dhcp_create_msg:netif <- $r0
	@DEBUG_VALUE: dhcp_create_msg:netif <- $r0
	@DEBUG_VALUE: dhcp_create_msg:message_type <- $r2
	.loc	3 0 3 is_stmt 0                 @ rt-thread/components/net/lwip-2.0.2/src/core/ipv4/dhcp.c:0:3
	mov	r5, r1
.Ltmp227:
	@DEBUG_VALUE: dhcp_create_msg:dhcp <- $r5
	@DEBUG_VALUE: dhcp_create_msg:message_type <- $r2
	.loc	3 1822 3 is_stmt 1              @ rt-thread/components/net/lwip-2.0.2/src/core/ipv4/dhcp.c:1822:3
	cmp	r1, #0
	beq.w	.LBB15_30
.Ltmp228:
@ %bb.2:
	@DEBUG_VALUE: dhcp_create_msg:dhcp <- $r5
	@DEBUG_VALUE: dhcp_create_msg:message_type <- $r2
	@DEBUG_VALUE: dhcp_create_msg:netif <- $r0
	.loc	3 0 3 is_stmt 0                 @ rt-thread/components/net/lwip-2.0.2/src/core/ipv4/dhcp.c:0:3
	mov	r6, r0
.Ltmp229:
	@DEBUG_VALUE: dhcp_create_msg:netif <- $r6
	@DEBUG_VALUE: dhcp_create_msg:netif <- $r6
	.loc	3 1823 3 is_stmt 1              @ rt-thread/components/net/lwip-2.0.2/src/core/ipv4/dhcp.c:1823:3
	ldr	r0, [r5, #12]
	mov	r4, r2
.Ltmp230:
	@DEBUG_VALUE: dhcp_create_msg:message_type <- $r4
	@DEBUG_VALUE: dhcp_create_msg:message_type <- $r4
	@DEBUG_VALUE: dhcp_create_msg:message_type <- $r4
	@DEBUG_VALUE: dhcp_create_msg:message_type <- $r4
	.loc	3 1823 3 is_stmt 0              @ rt-thread/components/net/lwip-2.0.2/src/core/ipv4/dhcp.c:1823:3
	cbz	r0, .LBB15_4
.Ltmp231:
@ %bb.3:
	@DEBUG_VALUE: dhcp_create_msg:netif <- $r6
	@DEBUG_VALUE: dhcp_create_msg:dhcp <- $r5
	@DEBUG_VALUE: dhcp_create_msg:message_type <- $r4
	.loc	3 1823 3                        @ rt-thread/components/net/lwip-2.0.2/src/core/ipv4/dhcp.c:1823:3
	adr	r0, .LCPI15_0
	bl	rt_kprintf
	movw	r0, :lower16:.L.str.1
	movw	r1, #1823
	movt	r0, :upper16:.L.str.1
	bl	sys_arch_assert
.Ltmp232:
.LBB15_4:
	@DEBUG_VALUE: dhcp_create_msg:netif <- $r6
	@DEBUG_VALUE: dhcp_create_msg:dhcp <- $r5
	@DEBUG_VALUE: dhcp_create_msg:message_type <- $r4
	@DEBUG_VALUE: dhcp_create_msg:message_type <- $r4
	.loc	3 1824 3 is_stmt 1              @ rt-thread/components/net/lwip-2.0.2/src/core/ipv4/dhcp.c:1824:3
	ldr	r0, [r5, #16]
.Ltmp233:
	.loc	3 1824 3 is_stmt 0              @ rt-thread/components/net/lwip-2.0.2/src/core/ipv4/dhcp.c:1824:3
	cbz	r0, .LBB15_6
.Ltmp234:
@ %bb.5:
	@DEBUG_VALUE: dhcp_create_msg:netif <- $r6
	@DEBUG_VALUE: dhcp_create_msg:dhcp <- $r5
	@DEBUG_VALUE: dhcp_create_msg:message_type <- $r4
	.loc	3 1824 3                        @ rt-thread/components/net/lwip-2.0.2/src/core/ipv4/dhcp.c:1824:3
	adr	r0, .LCPI15_1
	bl	rt_kprintf
	movw	r0, :lower16:.L.str.1
	mov.w	r1, #1824
	movt	r0, :upper16:.L.str.1
	bl	sys_arch_assert
.Ltmp235:
.LBB15_6:
	@DEBUG_VALUE: dhcp_create_msg:netif <- $r6
	@DEBUG_VALUE: dhcp_create_msg:dhcp <- $r5
	@DEBUG_VALUE: dhcp_create_msg:message_type <- $r4
	@DEBUG_VALUE: dhcp_create_msg:message_type <- $r4
	.loc	3 1825 17 is_stmt 1             @ rt-thread/components/net/lwip-2.0.2/src/core/ipv4/dhcp.c:1825:17
	movs	r0, #0
	mov.w	r1, #308
	movs	r2, #0
	bl	pbuf_alloc
	.loc	3 1826 7                        @ rt-thread/components/net/lwip-2.0.2/src/core/ipv4/dhcp.c:1826:7
	cmp	r0, #0
	.loc	3 1825 15                       @ rt-thread/components/net/lwip-2.0.2/src/core/ipv4/dhcp.c:1825:15
	str	r0, [r5, #12]
	.loc	3 1826 7                        @ rt-thread/components/net/lwip-2.0.2/src/core/ipv4/dhcp.c:1826:7
	beq.w	.LBB15_31
.Ltmp236:
@ %bb.7:
	@DEBUG_VALUE: dhcp_create_msg:netif <- $r6
	@DEBUG_VALUE: dhcp_create_msg:dhcp <- $r5
	@DEBUG_VALUE: dhcp_create_msg:message_type <- $r4
	@DEBUG_VALUE: dhcp_create_msg:message_type <- $r4
	.loc	3 1831 3                        @ rt-thread/components/net/lwip-2.0.2/src/core/ipv4/dhcp.c:1831:3
	ldrh	r0, [r0, #10]
	lsrs	r0, r0, #2
.Ltmp237:
	.loc	3 1831 3 is_stmt 0              @ rt-thread/components/net/lwip-2.0.2/src/core/ipv4/dhcp.c:1831:3
	cmp	r0, #76
	bhi	.LBB15_9
.Ltmp238:
@ %bb.8:
	@DEBUG_VALUE: dhcp_create_msg:netif <- $r6
	@DEBUG_VALUE: dhcp_create_msg:dhcp <- $r5
	@DEBUG_VALUE: dhcp_create_msg:message_type <- $r4
	.loc	3 1831 3                        @ rt-thread/components/net/lwip-2.0.2/src/core/ipv4/dhcp.c:1831:3
	movw	r0, :lower16:.L.str.30
	movt	r0, :upper16:.L.str.30
	bl	rt_kprintf
	movw	r0, :lower16:.L.str.1
	mov.w	r1, #1832
	movt	r0, :upper16:.L.str.1
	bl	sys_arch_assert
.Ltmp239:
.LBB15_9:
	@DEBUG_VALUE: dhcp_create_msg:netif <- $r6
	@DEBUG_VALUE: dhcp_create_msg:dhcp <- $r5
	@DEBUG_VALUE: dhcp_create_msg:message_type <- $r4
	@DEBUG_VALUE: dhcp_create_msg:message_type <- $r4
	.loc	3 1835 7 is_stmt 1              @ rt-thread/components/net/lwip-2.0.2/src/core/ipv4/dhcp.c:1835:7
	cmp	r4, #3
	beq	.LBB15_13
.Ltmp240:
@ %bb.10:
	@DEBUG_VALUE: dhcp_create_msg:netif <- $r6
	@DEBUG_VALUE: dhcp_create_msg:dhcp <- $r5
	@DEBUG_VALUE: dhcp_create_msg:message_type <- $r4
	.loc	3 1837 15                       @ rt-thread/components/net/lwip-2.0.2/src/core/ipv4/dhcp.c:1837:15
	ldrb	r0, [r5, #10]
	movw	r7, :lower16:dhcp_create_msg.xid
	movt	r7, :upper16:dhcp_create_msg.xid
.Ltmp241:
	.loc	3 1837 9 is_stmt 0              @ rt-thread/components/net/lwip-2.0.2/src/core/ipv4/dhcp.c:1837:9
	cbnz	r0, .LBB15_12
.Ltmp242:
@ %bb.11:
	@DEBUG_VALUE: dhcp_create_msg:netif <- $r6
	@DEBUG_VALUE: dhcp_create_msg:dhcp <- $r5
	@DEBUG_VALUE: dhcp_create_msg:message_type <- $r4
	.loc	3 1839 13 is_stmt 1             @ rt-thread/components/net/lwip-2.0.2/src/core/ipv4/dhcp.c:1839:13
	bl	rand
	.loc	3 1839 11 is_stmt 0             @ rt-thread/components/net/lwip-2.0.2/src/core/ipv4/dhcp.c:1839:11
	str	r0, [r7]
.Ltmp243:
.LBB15_12:
	@DEBUG_VALUE: dhcp_create_msg:netif <- $r6
	@DEBUG_VALUE: dhcp_create_msg:dhcp <- $r5
	@DEBUG_VALUE: dhcp_create_msg:message_type <- $r4
	.loc	3 1844 17 is_stmt 1             @ rt-thread/components/net/lwip-2.0.2/src/core/ipv4/dhcp.c:1844:17
	ldr	r0, [r7]
	.loc	3 1844 15 is_stmt 0             @ rt-thread/components/net/lwip-2.0.2/src/core/ipv4/dhcp.c:1844:15
	str	r0, [r5]
.Ltmp244:
.LBB15_13:
	@DEBUG_VALUE: dhcp_create_msg:netif <- $r6
	@DEBUG_VALUE: dhcp_create_msg:dhcp <- $r5
	@DEBUG_VALUE: dhcp_create_msg:message_type <- $r4
	@DEBUG_VALUE: dhcp_create_msg:message_type <- $r4
	.loc	3 1849 44 is_stmt 1             @ rt-thread/components/net/lwip-2.0.2/src/core/ipv4/dhcp.c:1849:44
	ldr	r0, [r5, #12]
	movw	r2, #257
	movs	r7, #0
	.loc	3 1849 51 is_stmt 0             @ rt-thread/components/net/lwip-2.0.2/src/core/ipv4/dhcp.c:1849:51
	ldr	r1, [r0, #4]
	.loc	3 1856 41 is_stmt 1             @ rt-thread/components/net/lwip-2.0.2/src/core/ipv4/dhcp.c:1856:41
	ldr	r0, [r5]
	.loc	3 1849 17                       @ rt-thread/components/net/lwip-2.0.2/src/core/ipv4/dhcp.c:1849:17
	str	r1, [r5, #16]
	.loc	3 1851 21                       @ rt-thread/components/net/lwip-2.0.2/src/core/ipv4/dhcp.c:1851:21
	strh	r2, [r1]
	.loc	3 1854 32                       @ rt-thread/components/net/lwip-2.0.2/src/core/ipv4/dhcp.c:1854:32
	ldrb.w	r2, [r6, #58]
	.loc	3 1855 23                       @ rt-thread/components/net/lwip-2.0.2/src/core/ipv4/dhcp.c:1855:23
	strb	r7, [r1, #3]
	.loc	3 1854 23                       @ rt-thread/components/net/lwip-2.0.2/src/core/ipv4/dhcp.c:1854:23
	strb	r2, [r1, #2]
	.loc	3 1856 24                       @ rt-thread/components/net/lwip-2.0.2/src/core/ipv4/dhcp.c:1856:24
	bl	lwip_htonl
	.loc	3 1856 9 is_stmt 0              @ rt-thread/components/net/lwip-2.0.2/src/core/ipv4/dhcp.c:1856:9
	ldr	r1, [r5, #16]
	.loc	3 1856 22                       @ rt-thread/components/net/lwip-2.0.2/src/core/ipv4/dhcp.c:1856:22
	str	r0, [r1, #4]
.Ltmp245:
	.loc	3 1863 37 is_stmt 1             @ rt-thread/components/net/lwip-2.0.2/src/core/ipv4/dhcp.c:1863:37
	subs	r0, r4, #7
	cmp	r0, #2
.Ltmp246:
	.loc	3 1860 24                       @ rt-thread/components/net/lwip-2.0.2/src/core/ipv4/dhcp.c:1860:24
	str	r7, [r1, #12]
	str	r7, [r1, #8]
.Ltmp247:
	.loc	3 1863 37                       @ rt-thread/components/net/lwip-2.0.2/src/core/ipv4/dhcp.c:1863:37
	blo	.LBB15_17
.Ltmp248:
@ %bb.14:
	@DEBUG_VALUE: dhcp_create_msg:netif <- $r6
	@DEBUG_VALUE: dhcp_create_msg:dhcp <- $r5
	@DEBUG_VALUE: dhcp_create_msg:message_type <- $r4
	cmp	r4, #4
	beq	.LBB15_17
.Ltmp249:
@ %bb.15:
	@DEBUG_VALUE: dhcp_create_msg:netif <- $r6
	@DEBUG_VALUE: dhcp_create_msg:dhcp <- $r5
	@DEBUG_VALUE: dhcp_create_msg:message_type <- $r4
	cmp	r4, #3
	bne	.LBB15_18
.Ltmp250:
@ %bb.16:
	@DEBUG_VALUE: dhcp_create_msg:netif <- $r6
	@DEBUG_VALUE: dhcp_create_msg:dhcp <- $r5
	@DEBUG_VALUE: dhcp_create_msg:message_type <- $r4
	.loc	3 1865 16                       @ rt-thread/components/net/lwip-2.0.2/src/core/ipv4/dhcp.c:1865:16
	ldrb	r0, [r5, #9]
	.loc	3 1865 45 is_stmt 0             @ rt-thread/components/net/lwip-2.0.2/src/core/ipv4/dhcp.c:1865:45
	and	r0, r0, #254
	cmp	r0, #4
	bne	.LBB15_18
.Ltmp251:
.LBB15_17:
	@DEBUG_VALUE: dhcp_create_msg:netif <- $r6
	@DEBUG_VALUE: dhcp_create_msg:dhcp <- $r5
	@DEBUG_VALUE: dhcp_create_msg:message_type <- $r4
	.loc	3 1866 5 is_stmt 1              @ rt-thread/components/net/lwip-2.0.2/src/core/ipv4/dhcp.c:1866:5
	ldr	r0, [r6, #4]
	str	r0, [r1, #12]
.Ltmp252:
.LBB15_18:
	@DEBUG_VALUE: dhcp_create_msg:netif <- $r6
	@DEBUG_VALUE: dhcp_create_msg:dhcp <- $r5
	@DEBUG_VALUE: dhcp_create_msg:message_type <- $r4
	.loc	3 0 5 is_stmt 0                 @ rt-thread/components/net/lwip-2.0.2/src/core/ipv4/dhcp.c:0:5
	movs	r0, #0
	.loc	3 1868 3 is_stmt 1              @ rt-thread/components/net/lwip-2.0.2/src/core/ipv4/dhcp.c:1868:3
	str	r0, [r1, #16]
	.loc	3 1869 3                        @ rt-thread/components/net/lwip-2.0.2/src/core/ipv4/dhcp.c:1869:3
	str	r0, [r1, #20]
	.loc	3 1870 3                        @ rt-thread/components/net/lwip-2.0.2/src/core/ipv4/dhcp.c:1870:3
	str	r0, [r1, #24]
.Ltmp253:
	@DEBUG_VALUE: dhcp_create_msg:i <- 0
	.loc	3 1871 3                        @ rt-thread/components/net/lwip-2.0.2/src/core/ipv4/dhcp.c:1871:3
	add.w	r1, r6, #59
	b	.LBB15_20
.Ltmp254:
	.p2align	2
.LBB15_19:                              @   in Loop: Header=BB15_20 Depth=1
	@DEBUG_VALUE: dhcp_create_msg:netif <- $r6
	@DEBUG_VALUE: dhcp_create_msg:dhcp <- $r5
	@DEBUG_VALUE: dhcp_create_msg:message_type <- $r4
	@DEBUG_VALUE: dhcp_create_msg:i <- $r0
	.loc	3 1873 11                       @ rt-thread/components/net/lwip-2.0.2/src/core/ipv4/dhcp.c:1873:11
	ldr	r3, [r5, #16]
	.loc	3 1873 30 is_stmt 0             @ rt-thread/components/net/lwip-2.0.2/src/core/ipv4/dhcp.c:1873:30
	add	r3, r0
.Ltmp255:
	.loc	3 1871 37 is_stmt 1             @ rt-thread/components/net/lwip-2.0.2/src/core/ipv4/dhcp.c:1871:37
	adds	r0, #1
.Ltmp256:
	@DEBUG_VALUE: dhcp_create_msg:i <- $r0
	.loc	3 1871 3 is_stmt 0              @ rt-thread/components/net/lwip-2.0.2/src/core/ipv4/dhcp.c:1871:3
	cmp	r0, #16
.Ltmp257:
	.loc	3 1873 30 is_stmt 1             @ rt-thread/components/net/lwip-2.0.2/src/core/ipv4/dhcp.c:1873:30
	strb	r2, [r3, #28]
.Ltmp258:
	.loc	3 1871 3                        @ rt-thread/components/net/lwip-2.0.2/src/core/ipv4/dhcp.c:1871:3
	beq	.LBB15_23
.Ltmp259:
.LBB15_20:                              @ =>This Inner Loop Header: Depth=1
	@DEBUG_VALUE: dhcp_create_msg:netif <- $r6
	@DEBUG_VALUE: dhcp_create_msg:dhcp <- $r5
	@DEBUG_VALUE: dhcp_create_msg:message_type <- $r4
	@DEBUG_VALUE: dhcp_create_msg:i <- $r0
	.loc	3 1873 55                       @ rt-thread/components/net/lwip-2.0.2/src/core/ipv4/dhcp.c:1873:55
	cmp	r0, #5
	mov.w	r2, #0
	bhi	.LBB15_19
.Ltmp260:
@ %bb.21:                               @   in Loop: Header=BB15_20 Depth=1
	@DEBUG_VALUE: dhcp_create_msg:netif <- $r6
	@DEBUG_VALUE: dhcp_create_msg:dhcp <- $r5
	@DEBUG_VALUE: dhcp_create_msg:message_type <- $r4
	@DEBUG_VALUE: dhcp_create_msg:i <- $r0
	.loc	3 0 0 is_stmt 0                 @ rt-thread/components/net/lwip-2.0.2/src/core/ipv4/dhcp.c:0:0
	ldrb.w	r3, [r6, #58]
	.loc	3 1873 55                       @ rt-thread/components/net/lwip-2.0.2/src/core/ipv4/dhcp.c:1873:55
	cmp	r0, r3
	.loc	3 1873 86                       @ rt-thread/components/net/lwip-2.0.2/src/core/ipv4/dhcp.c:1873:86
	it	lo
	ldrblo	r2, [r1, r0]
	b	.LBB15_19
.Ltmp261:
.LBB15_22:
	@DEBUG_VALUE: dhcp_create_msg:message_type <- $r2
	@DEBUG_VALUE: dhcp_create_msg:dhcp <- $r1
	@DEBUG_VALUE: dhcp_create_msg:netif <- $r0
	.loc	3 1821 3 is_stmt 1              @ rt-thread/components/net/lwip-2.0.2/src/core/ipv4/dhcp.c:1821:3
	movw	r0, :lower16:.L.str.26
.Ltmp262:
	@DEBUG_VALUE: dhcp_create_msg:netif <- [DW_OP_LLVM_entry_value 1] $r0
	movt	r0, :upper16:.L.str.26
	bl	rt_kprintf
.Ltmp263:
	@DEBUG_VALUE: dhcp_create_msg:dhcp <- [DW_OP_LLVM_entry_value 1] $r1
	movw	r0, :lower16:.L.str.1
	movw	r1, #1821
	movt	r0, :upper16:.L.str.1
	bl	sys_arch_assert
	movs	r0, #240
.Ltmp264:
	.loc	3 1821 3 is_stmt 0              @ rt-thread/components/net/lwip-2.0.2/src/core/ipv4/dhcp.c:1821:3
	b	.LBB15_32
.Ltmp265:
.LBB15_23:
	@DEBUG_VALUE: dhcp_create_msg:netif <- $r6
	@DEBUG_VALUE: dhcp_create_msg:dhcp <- $r5
	@DEBUG_VALUE: dhcp_create_msg:message_type <- $r4
	@DEBUG_VALUE: dhcp_create_msg:i <- $r0
	.loc	3 0 3                           @ rt-thread/components/net/lwip-2.0.2/src/core/ipv4/dhcp.c:0:3
	mov.w	r0, #-1
.Ltmp266:
	movs	r1, #0
.Ltmp267:
	.p2align	2
.LBB15_24:                              @ =>This Inner Loop Header: Depth=1
	@DEBUG_VALUE: dhcp_create_msg:netif <- $r6
	@DEBUG_VALUE: dhcp_create_msg:dhcp <- $r5
	@DEBUG_VALUE: dhcp_create_msg:message_type <- $r4
	@DEBUG_VALUE: dhcp_create_msg:i <- [DW_OP_plus_uconst 1, DW_OP_stack_value] $r0
	.loc	3 1876 11 is_stmt 1             @ rt-thread/components/net/lwip-2.0.2/src/core/ipv4/dhcp.c:1876:11
	ldr	r2, [r5, #16]
	.loc	3 1876 29 is_stmt 0             @ rt-thread/components/net/lwip-2.0.2/src/core/ipv4/dhcp.c:1876:29
	add	r2, r0
.Ltmp268:
	.loc	3 1875 17 is_stmt 1             @ rt-thread/components/net/lwip-2.0.2/src/core/ipv4/dhcp.c:1875:17
	adds	r0, #1
.Ltmp269:
	.loc	3 1875 3 is_stmt 0              @ rt-thread/components/net/lwip-2.0.2/src/core/ipv4/dhcp.c:1875:3
	cmp	r0, #63
.Ltmp270:
	.loc	3 1876 29 is_stmt 1             @ rt-thread/components/net/lwip-2.0.2/src/core/ipv4/dhcp.c:1876:29
	strb.w	r1, [r2, #45]
.Ltmp271:
	@DEBUG_VALUE: dhcp_create_msg:i <- [DW_OP_plus_uconst 2, DW_OP_stack_value] $r0
	.loc	3 1875 3                        @ rt-thread/components/net/lwip-2.0.2/src/core/ipv4/dhcp.c:1875:3
	bne	.LBB15_24
.Ltmp272:
@ %bb.25:
	@DEBUG_VALUE: dhcp_create_msg:netif <- $r6
	@DEBUG_VALUE: dhcp_create_msg:dhcp <- $r5
	@DEBUG_VALUE: dhcp_create_msg:message_type <- $r4
	@DEBUG_VALUE: dhcp_create_msg:i <- [DW_OP_plus_uconst 2, DW_OP_stack_value] $r0
	.loc	3 0 3 is_stmt 0                 @ rt-thread/components/net/lwip-2.0.2/src/core/ipv4/dhcp.c:0:3
	mov.w	r0, #-1
.Ltmp273:
	movs	r1, #0
.Ltmp274:
	.p2align	2
.LBB15_26:                              @ =>This Inner Loop Header: Depth=1
	@DEBUG_VALUE: dhcp_create_msg:netif <- $r6
	@DEBUG_VALUE: dhcp_create_msg:dhcp <- $r5
	@DEBUG_VALUE: dhcp_create_msg:message_type <- $r4
	@DEBUG_VALUE: dhcp_create_msg:i <- [DW_OP_plus_uconst 1, DW_OP_stack_value] $r0
	.loc	3 1879 11 is_stmt 1             @ rt-thread/components/net/lwip-2.0.2/src/core/ipv4/dhcp.c:1879:11
	ldr	r2, [r5, #16]
	.loc	3 1879 28 is_stmt 0             @ rt-thread/components/net/lwip-2.0.2/src/core/ipv4/dhcp.c:1879:28
	add	r2, r0
.Ltmp275:
	.loc	3 1878 17 is_stmt 1             @ rt-thread/components/net/lwip-2.0.2/src/core/ipv4/dhcp.c:1878:17
	adds	r0, #1
.Ltmp276:
	.loc	3 1878 3 is_stmt 0              @ rt-thread/components/net/lwip-2.0.2/src/core/ipv4/dhcp.c:1878:3
	cmp	r0, #127
.Ltmp277:
	.loc	3 1879 28 is_stmt 1             @ rt-thread/components/net/lwip-2.0.2/src/core/ipv4/dhcp.c:1879:28
	strb.w	r1, [r2, #109]
.Ltmp278:
	@DEBUG_VALUE: dhcp_create_msg:i <- [DW_OP_plus_uconst 2, DW_OP_stack_value] $r0
	.loc	3 1878 3                        @ rt-thread/components/net/lwip-2.0.2/src/core/ipv4/dhcp.c:1878:3
	bne	.LBB15_26
.Ltmp279:
@ %bb.27:
	@DEBUG_VALUE: dhcp_create_msg:netif <- $r6
	@DEBUG_VALUE: dhcp_create_msg:dhcp <- $r5
	@DEBUG_VALUE: dhcp_create_msg:message_type <- $r4
	@DEBUG_VALUE: dhcp_create_msg:i <- [DW_OP_plus_uconst 2, DW_OP_stack_value] $r0
	.loc	3 1881 9                        @ rt-thread/components/net/lwip-2.0.2/src/core/ipv4/dhcp.c:1881:9
	ldr	r0, [r5, #16]
.Ltmp280:
	.loc	3 0 9 is_stmt 0                 @ rt-thread/components/net/lwip-2.0.2/src/core/ipv4/dhcp.c:0:9
	movw	r1, #33379
	movt	r1, #25427
	movw	r2, #307
	.loc	3 1881 25                       @ rt-thread/components/net/lwip-2.0.2/src/core/ipv4/dhcp.c:1881:25
	str.w	r1, [r0, #236]
	movs	r0, #0
	movs	r1, #239
.Ltmp281:
	@DEBUG_VALUE: dhcp_create_msg:i <- 0
	.loc	3 1882 25 is_stmt 1             @ rt-thread/components/net/lwip-2.0.2/src/core/ipv4/dhcp.c:1882:25
	strh	r0, [r5, #20]
.Ltmp282:
	.p2align	2
.LBB15_28:                              @ =>This Inner Loop Header: Depth=1
	@DEBUG_VALUE: dhcp_create_msg:netif <- $r6
	@DEBUG_VALUE: dhcp_create_msg:dhcp <- $r5
	@DEBUG_VALUE: dhcp_create_msg:message_type <- $r4
	@DEBUG_VALUE: dhcp_create_msg:i <- [DW_OP_constu 239, DW_OP_minus, DW_OP_stack_value] $r1
	.loc	3 1885 11                       @ rt-thread/components/net/lwip-2.0.2/src/core/ipv4/dhcp.c:1885:11
	ldr	r3, [r5, #16]
	.loc	3 1885 31 is_stmt 0             @ rt-thread/components/net/lwip-2.0.2/src/core/ipv4/dhcp.c:1885:31
	add	r3, r1
.Ltmp283:
	.loc	3 1884 17 is_stmt 1             @ rt-thread/components/net/lwip-2.0.2/src/core/ipv4/dhcp.c:1884:17
	adds	r1, #1
.Ltmp284:
	.loc	3 1884 3 is_stmt 0              @ rt-thread/components/net/lwip-2.0.2/src/core/ipv4/dhcp.c:1884:3
	cmp	r1, r2
.Ltmp285:
	.loc	3 1885 31 is_stmt 1             @ rt-thread/components/net/lwip-2.0.2/src/core/ipv4/dhcp.c:1885:31
	strb	r0, [r3, #1]
.Ltmp286:
	.loc	3 1884 38                       @ rt-thread/components/net/lwip-2.0.2/src/core/ipv4/dhcp.c:1884:38
	add.w	r0, r0, #1
.Ltmp287:
	@DEBUG_VALUE: dhcp_create_msg:i <- [DW_OP_constu 238, DW_OP_minus, DW_OP_stack_value] $r1
	.loc	3 1884 3 is_stmt 0              @ rt-thread/components/net/lwip-2.0.2/src/core/ipv4/dhcp.c:1884:3
	bne	.LBB15_28
.Ltmp288:
@ %bb.29:
	@DEBUG_VALUE: dhcp_create_msg:netif <- $r6
	@DEBUG_VALUE: dhcp_create_msg:dhcp <- $r5
	@DEBUG_VALUE: dhcp_create_msg:message_type <- $r4
	@DEBUG_VALUE: dhcp_create_msg:i <- [DW_OP_constu 238, DW_OP_minus, DW_OP_stack_value] $r1
	.loc	3 1888 3 is_stmt 1              @ rt-thread/components/net/lwip-2.0.2/src/core/ipv4/dhcp.c:1888:3
	movs	r1, #53
.Ltmp289:
	movs	r2, #1
	mov	r0, r5
	bl	dhcp_option
	.loc	3 1889 3                        @ rt-thread/components/net/lwip-2.0.2/src/core/ipv4/dhcp.c:1889:3
	mov	r0, r5
	mov	r1, r4
	bl	dhcp_option_byte
	movs	r0, #0
	b	.LBB15_32
.Ltmp290:
.LBB15_30:
	@DEBUG_VALUE: dhcp_create_msg:dhcp <- $r5
	@DEBUG_VALUE: dhcp_create_msg:message_type <- $r2
	@DEBUG_VALUE: dhcp_create_msg:netif <- $r0
	.loc	3 1822 3                        @ rt-thread/components/net/lwip-2.0.2/src/core/ipv4/dhcp.c:1822:3
	adr	r0, .LCPI15_2
.Ltmp291:
	@DEBUG_VALUE: dhcp_create_msg:netif <- [DW_OP_LLVM_entry_value 1] $r0
	bl	rt_kprintf
.Ltmp292:
	movw	r0, :lower16:.L.str.1
	movw	r1, #1822
	movt	r0, :upper16:.L.str.1
	bl	sys_arch_assert
	movs	r0, #250
.Ltmp293:
	.loc	3 1822 3 is_stmt 0              @ rt-thread/components/net/lwip-2.0.2/src/core/ipv4/dhcp.c:1822:3
	b	.LBB15_32
.Ltmp294:
.LBB15_31:
	@DEBUG_VALUE: dhcp_create_msg:netif <- $r6
	@DEBUG_VALUE: dhcp_create_msg:dhcp <- $r5
	@DEBUG_VALUE: dhcp_create_msg:message_type <- $r4
	.loc	3 0 3                           @ rt-thread/components/net/lwip-2.0.2/src/core/ipv4/dhcp.c:0:3
	movs	r0, #255
.Ltmp295:
.LBB15_32:
	.loc	3 1891 1 is_stmt 1              @ rt-thread/components/net/lwip-2.0.2/src/core/ipv4/dhcp.c:1891:1
	sxtb	r0, r0
	add	sp, #4
	pop	{r4, r5, r6, r7, pc}
.Ltmp296:
	.p2align	2
@ %bb.33:
	.loc	3 0 1 is_stmt 0                 @ rt-thread/components/net/lwip-2.0.2/src/core/ipv4/dhcp.c:0:1
.LCPI15_0:
.L.str.28:
	.asciz	"dhcp_create_msg: dhcp->p_out == NULL\000\000\000"
.LCPI15_1:
.L.str.29:
	.asciz	"dhcp_create_msg: dhcp->msg_out == NULL\000"
.LCPI15_2:
.L.str.27:
	.asciz	"dhcp_create_msg: dhcp != NULL\000\000"
.Lfunc_end15:
	.size	dhcp_create_msg, .Lfunc_end15-dhcp_create_msg
	.cfi_endproc
	.cantunwind
	.fnend
                                        @ -- End function
	.section	.text.dhcp_option,"ax",%progbits
	.p2align	3                               @ -- Begin function dhcp_option
	.type	dhcp_option,%function
	.code	16                              @ @dhcp_option
	.thumb_func
dhcp_option:
.Lfunc_begin16:
	.loc	3 1391 0 is_stmt 1              @ rt-thread/components/net/lwip-2.0.2/src/core/ipv4/dhcp.c:1391:0
	.fnstart
	.cfi_startproc
@ %bb.0:
	@DEBUG_VALUE: dhcp_option:dhcp <- $r0
	@DEBUG_VALUE: dhcp_option:option_type <- $r1
	@DEBUG_VALUE: dhcp_option:option_len <- $r2
	.save	{r4, r5, r6, lr}
	push	{r4, r5, r6, lr}
	.cfi_def_cfa_offset 16
	.cfi_offset lr, -4
	.cfi_offset r6, -8
	.cfi_offset r5, -12
	.cfi_offset r4, -16
	mov	r4, r0
.Ltmp297:
	@DEBUG_VALUE: dhcp_option:option_type <- undef
	@DEBUG_VALUE: dhcp_option:dhcp <- $r4
	.loc	3 1392 3 prologue_end           @ rt-thread/components/net/lwip-2.0.2/src/core/ipv4/dhcp.c:1392:3
	ldrh	r0, [r0, #20]
	mov	r5, r2
.Ltmp298:
	@DEBUG_VALUE: dhcp_option:option_len <- $r5
	.loc	3 0 3 is_stmt 0                 @ rt-thread/components/net/lwip-2.0.2/src/core/ipv4/dhcp.c:0:3
	mov	r6, r1
.Ltmp299:
	@DEBUG_VALUE: dhcp_option:option_type <- $r6
	.loc	3 1392 3                        @ rt-thread/components/net/lwip-2.0.2/src/core/ipv4/dhcp.c:1392:3
	add	r0, r2
	adds	r0, #2
.Ltmp300:
	.loc	3 1392 3                        @ rt-thread/components/net/lwip-2.0.2/src/core/ipv4/dhcp.c:1392:3
	cmp	r0, #69
	blo	.LBB16_2
.Ltmp301:
@ %bb.1:
	@DEBUG_VALUE: dhcp_option:option_type <- $r6
	@DEBUG_VALUE: dhcp_option:option_len <- $r5
	@DEBUG_VALUE: dhcp_option:dhcp <- $r4
	.loc	3 1392 3                        @ rt-thread/components/net/lwip-2.0.2/src/core/ipv4/dhcp.c:1392:3
	movw	r0, :lower16:.L.str.21
	movt	r0, :upper16:.L.str.21
	bl	rt_kprintf
	movw	r0, :lower16:.L.str.1
	mov.w	r1, #1392
	movt	r0, :upper16:.L.str.1
	bl	sys_arch_assert
.Ltmp302:
.LBB16_2:
	@DEBUG_VALUE: dhcp_option:option_type <- $r6
	@DEBUG_VALUE: dhcp_option:option_len <- $r5
	@DEBUG_VALUE: dhcp_option:dhcp <- $r4
	.loc	3 1393 47 is_stmt 1             @ rt-thread/components/net/lwip-2.0.2/src/core/ipv4/dhcp.c:1393:47
	ldrh	r0, [r4, #20]
	.loc	3 1393 9 is_stmt 0              @ rt-thread/components/net/lwip-2.0.2/src/core/ipv4/dhcp.c:1393:9
	ldr	r1, [r4, #16]
	.loc	3 1393 47                       @ rt-thread/components/net/lwip-2.0.2/src/core/ipv4/dhcp.c:1393:47
	adds	r2, r0, #1
	strh	r2, [r4, #20]
	.loc	3 1393 3                        @ rt-thread/components/net/lwip-2.0.2/src/core/ipv4/dhcp.c:1393:3
	add	r0, r1
	.loc	3 1393 51                       @ rt-thread/components/net/lwip-2.0.2/src/core/ipv4/dhcp.c:1393:51
	strb.w	r6, [r0, #240]
	.loc	3 1394 47 is_stmt 1             @ rt-thread/components/net/lwip-2.0.2/src/core/ipv4/dhcp.c:1394:47
	ldrh	r0, [r4, #20]
	.loc	3 1394 9 is_stmt 0              @ rt-thread/components/net/lwip-2.0.2/src/core/ipv4/dhcp.c:1394:9
	ldr	r1, [r4, #16]
	.loc	3 1394 3                        @ rt-thread/components/net/lwip-2.0.2/src/core/ipv4/dhcp.c:1394:3
	add	r1, r0
	.loc	3 1394 47                       @ rt-thread/components/net/lwip-2.0.2/src/core/ipv4/dhcp.c:1394:47
	adds	r0, #1
	strh	r0, [r4, #20]
	.loc	3 1394 51                       @ rt-thread/components/net/lwip-2.0.2/src/core/ipv4/dhcp.c:1394:51
	strb.w	r5, [r1, #240]
	.loc	3 1395 1 is_stmt 1              @ rt-thread/components/net/lwip-2.0.2/src/core/ipv4/dhcp.c:1395:1
	pop	{r4, r5, r6, pc}
.Ltmp303:
.Lfunc_end16:
	.size	dhcp_option, .Lfunc_end16-dhcp_option
	.cfi_endproc
	.cantunwind
	.fnend
                                        @ -- End function
	.section	.text.dhcp_option_short,"ax",%progbits
	.p2align	3                               @ -- Begin function dhcp_option_short
	.type	dhcp_option_short,%function
	.code	16                              @ @dhcp_option_short
	.thumb_func
dhcp_option_short:
.Lfunc_begin17:
	.loc	3 1409 0                        @ rt-thread/components/net/lwip-2.0.2/src/core/ipv4/dhcp.c:1409:0
	.fnstart
	.cfi_startproc
@ %bb.0:
	@DEBUG_VALUE: dhcp_option_short:dhcp <- $r0
	@DEBUG_VALUE: dhcp_option_short:value <- $r1
	.save	{r4, r5, r7, lr}
	push	{r4, r5, r7, lr}
	.cfi_def_cfa_offset 16
	.cfi_offset lr, -4
	.cfi_offset r7, -8
	.cfi_offset r5, -12
	.cfi_offset r4, -16
	mov	r4, r0
.Ltmp304:
	@DEBUG_VALUE: dhcp_option_short:value <- undef
	@DEBUG_VALUE: dhcp_option_short:dhcp <- $r4
	.loc	3 1410 3 prologue_end           @ rt-thread/components/net/lwip-2.0.2/src/core/ipv4/dhcp.c:1410:3
	ldrh	r0, [r0, #20]
	mov	r5, r1
.Ltmp305:
	@DEBUG_VALUE: dhcp_option_short:value <- $r5
	.loc	3 1410 3 is_stmt 0              @ rt-thread/components/net/lwip-2.0.2/src/core/ipv4/dhcp.c:1410:3
	cmp	r0, #67
	blo	.LBB17_2
.Ltmp306:
@ %bb.1:
	@DEBUG_VALUE: dhcp_option_short:value <- $r5
	@DEBUG_VALUE: dhcp_option_short:dhcp <- $r4
	.loc	3 1410 3                        @ rt-thread/components/net/lwip-2.0.2/src/core/ipv4/dhcp.c:1410:3
	movw	r0, :lower16:.L.str.23
	movt	r0, :upper16:.L.str.23
	bl	rt_kprintf
	movw	r0, :lower16:.L.str.1
	movw	r1, #1410
	movt	r0, :upper16:.L.str.1
	bl	sys_arch_assert
.Ltmp307:
.LBB17_2:
	@DEBUG_VALUE: dhcp_option_short:value <- $r5
	@DEBUG_VALUE: dhcp_option_short:dhcp <- $r4
	.loc	3 1411 47 is_stmt 1             @ rt-thread/components/net/lwip-2.0.2/src/core/ipv4/dhcp.c:1411:47
	ldrh	r0, [r4, #20]
	.loc	3 1411 9 is_stmt 0              @ rt-thread/components/net/lwip-2.0.2/src/core/ipv4/dhcp.c:1411:9
	ldr	r1, [r4, #16]
	.loc	3 1411 47                       @ rt-thread/components/net/lwip-2.0.2/src/core/ipv4/dhcp.c:1411:47
	adds	r2, r0, #1
	strh	r2, [r4, #20]
	.loc	3 1411 3                        @ rt-thread/components/net/lwip-2.0.2/src/core/ipv4/dhcp.c:1411:3
	add	r0, r1
	.loc	3 1411 78                       @ rt-thread/components/net/lwip-2.0.2/src/core/ipv4/dhcp.c:1411:78
	lsrs	r1, r5, #8
	.loc	3 1411 51                       @ rt-thread/components/net/lwip-2.0.2/src/core/ipv4/dhcp.c:1411:51
	strb.w	r1, [r0, #240]
	.loc	3 1412 47 is_stmt 1             @ rt-thread/components/net/lwip-2.0.2/src/core/ipv4/dhcp.c:1412:47
	ldrh	r0, [r4, #20]
	.loc	3 1412 9 is_stmt 0              @ rt-thread/components/net/lwip-2.0.2/src/core/ipv4/dhcp.c:1412:9
	ldr	r1, [r4, #16]
	.loc	3 1412 3                        @ rt-thread/components/net/lwip-2.0.2/src/core/ipv4/dhcp.c:1412:3
	add	r1, r0
	.loc	3 1412 47                       @ rt-thread/components/net/lwip-2.0.2/src/core/ipv4/dhcp.c:1412:47
	adds	r0, #1
	strh	r0, [r4, #20]
	.loc	3 1412 51                       @ rt-thread/components/net/lwip-2.0.2/src/core/ipv4/dhcp.c:1412:51
	strb.w	r5, [r1, #240]
	.loc	3 1413 1 is_stmt 1              @ rt-thread/components/net/lwip-2.0.2/src/core/ipv4/dhcp.c:1413:1
	pop	{r4, r5, r7, pc}
.Ltmp308:
.Lfunc_end17:
	.size	dhcp_option_short, .Lfunc_end17-dhcp_option_short
	.cfi_endproc
	.cantunwind
	.fnend
                                        @ -- End function
	.section	.text.dhcp_option_trailer,"ax",%progbits
	.p2align	3                               @ -- Begin function dhcp_option_trailer
	.type	dhcp_option_trailer,%function
	.code	16                              @ @dhcp_option_trailer
	.thumb_func
dhcp_option_trailer:
.Lfunc_begin18:
	.loc	3 1921 0                        @ rt-thread/components/net/lwip-2.0.2/src/core/ipv4/dhcp.c:1921:0
	.fnstart
	.cfi_startproc
@ %bb.0:
	@DEBUG_VALUE: dhcp_option_trailer:dhcp <- $r0
	@DEBUG_VALUE: dhcp_option_trailer:dhcp <- $r0
	.save	{r4, lr}
	push	{r4, lr}
	.cfi_def_cfa_offset 8
	.cfi_offset lr, -4
	.cfi_offset r4, -8
.Ltmp309:
	.loc	3 1922 3 prologue_end           @ rt-thread/components/net/lwip-2.0.2/src/core/ipv4/dhcp.c:1922:3
	cmp	r0, #0
	beq	.LBB18_11
.Ltmp310:
@ %bb.1:
	@DEBUG_VALUE: dhcp_option_trailer:dhcp <- $r0
	.loc	3 0 3 is_stmt 0                 @ rt-thread/components/net/lwip-2.0.2/src/core/ipv4/dhcp.c:0:3
	mov	r4, r0
.Ltmp311:
	@DEBUG_VALUE: dhcp_option_trailer:dhcp <- $r4
	.loc	3 1923 3 is_stmt 1              @ rt-thread/components/net/lwip-2.0.2/src/core/ipv4/dhcp.c:1923:3
	ldr	r0, [r0, #16]
.Ltmp312:
	.loc	3 1923 3 is_stmt 0              @ rt-thread/components/net/lwip-2.0.2/src/core/ipv4/dhcp.c:1923:3
	cbnz	r0, .LBB18_3
.Ltmp313:
@ %bb.2:
	@DEBUG_VALUE: dhcp_option_trailer:dhcp <- $r4
	.loc	3 1923 3                        @ rt-thread/components/net/lwip-2.0.2/src/core/ipv4/dhcp.c:1923:3
	adr	r0, .LCPI18_0
	bl	rt_kprintf
	movw	r0, :lower16:.L.str.1
	movw	r1, #1923
	movt	r0, :upper16:.L.str.1
	bl	sys_arch_assert
.Ltmp314:
.LBB18_3:
	@DEBUG_VALUE: dhcp_option_trailer:dhcp <- $r4
	.loc	3 1924 3 is_stmt 1              @ rt-thread/components/net/lwip-2.0.2/src/core/ipv4/dhcp.c:1924:3
	ldrh	r0, [r4, #20]
.Ltmp315:
	.loc	3 1924 3 is_stmt 0              @ rt-thread/components/net/lwip-2.0.2/src/core/ipv4/dhcp.c:1924:3
	cmp	r0, #68
	blo	.LBB18_5
.Ltmp316:
@ %bb.4:
	@DEBUG_VALUE: dhcp_option_trailer:dhcp <- $r4
	.loc	3 1924 3                        @ rt-thread/components/net/lwip-2.0.2/src/core/ipv4/dhcp.c:1924:3
	adr	r0, .LCPI18_1
	bl	rt_kprintf
	movw	r0, :lower16:.L.str.1
	movw	r1, #1924
	movt	r0, :upper16:.L.str.1
	bl	sys_arch_assert
.Ltmp317:
.LBB18_5:
	@DEBUG_VALUE: dhcp_option_trailer:dhcp <- $r4
	.loc	3 1925 47 is_stmt 1             @ rt-thread/components/net/lwip-2.0.2/src/core/ipv4/dhcp.c:1925:47
	ldrh	r0, [r4, #20]
	.loc	3 1925 9 is_stmt 0              @ rt-thread/components/net/lwip-2.0.2/src/core/ipv4/dhcp.c:1925:9
	ldr	r1, [r4, #16]
	.loc	3 1925 47                       @ rt-thread/components/net/lwip-2.0.2/src/core/ipv4/dhcp.c:1925:47
	adds	r2, r0, #1
	strh	r2, [r4, #20]
	.loc	3 1925 3                        @ rt-thread/components/net/lwip-2.0.2/src/core/ipv4/dhcp.c:1925:3
	add	r0, r1
	movs	r1, #255
	.loc	3 1925 51                       @ rt-thread/components/net/lwip-2.0.2/src/core/ipv4/dhcp.c:1925:51
	strb.w	r1, [r0, #240]
	movs	r1, #0
	.loc	3 1927 18 is_stmt 1             @ rt-thread/components/net/lwip-2.0.2/src/core/ipv4/dhcp.c:1927:18
	ldrh	r0, [r4, #20]
	.loc	3 1927 34 is_stmt 0             @ rt-thread/components/net/lwip-2.0.2/src/core/ipv4/dhcp.c:1927:34
	cmp	r0, #68
	it	lo
	movlo	r1, #1
	ands	r2, r0, #3
	it	ne
	movne	r2, #1
	.loc	3 1927 58                       @ rt-thread/components/net/lwip-2.0.2/src/core/ipv4/dhcp.c:1927:58
	cmp	r0, #67
	bhi	.LBB18_10
.Ltmp318:
@ %bb.6:
	@DEBUG_VALUE: dhcp_option_trailer:dhcp <- $r4
	orrs	r1, r2
	.loc	3 1932 1 is_stmt 1              @ rt-thread/components/net/lwip-2.0.2/src/core/ipv4/dhcp.c:1932:1
	it	eq
	popeq	{r4, pc}
.Ltmp319:
.LBB18_7:
	.loc	3 0 1 is_stmt 0                 @ rt-thread/components/net/lwip-2.0.2/src/core/ipv4/dhcp.c:0:1
	movs	r1, #0
	.p2align	2
.LBB18_8:                               @ =>This Inner Loop Header: Depth=1
.Ltmp320:
	.loc	3 1930 11 is_stmt 1             @ rt-thread/components/net/lwip-2.0.2/src/core/ipv4/dhcp.c:1930:11
	ldr	r2, [r4, #16]
	.loc	3 1930 49 is_stmt 0             @ rt-thread/components/net/lwip-2.0.2/src/core/ipv4/dhcp.c:1930:49
	adds	r3, r0, #1
	.loc	3 1930 5                        @ rt-thread/components/net/lwip-2.0.2/src/core/ipv4/dhcp.c:1930:5
	uxtah	r0, r2, r0
	.loc	3 1930 49                       @ rt-thread/components/net/lwip-2.0.2/src/core/ipv4/dhcp.c:1930:49
	strh	r3, [r4, #20]
.Ltmp321:
	.loc	3 1927 34 is_stmt 1             @ rt-thread/components/net/lwip-2.0.2/src/core/ipv4/dhcp.c:1927:34
	movs	r2, #0
.Ltmp322:
	.loc	3 1930 53                       @ rt-thread/components/net/lwip-2.0.2/src/core/ipv4/dhcp.c:1930:53
	strb.w	r1, [r0, #240]
.Ltmp323:
	.loc	3 1927 18                       @ rt-thread/components/net/lwip-2.0.2/src/core/ipv4/dhcp.c:1927:18
	ldrh	r0, [r4, #20]
	.loc	3 1927 34 is_stmt 0             @ rt-thread/components/net/lwip-2.0.2/src/core/ipv4/dhcp.c:1927:34
	cmp	r0, #68
	it	lo
	movlo	r2, #1
	ands	r3, r0, #3
	it	ne
	movne	r3, #1
	.loc	3 1927 58                       @ rt-thread/components/net/lwip-2.0.2/src/core/ipv4/dhcp.c:1927:58
	cmp	r0, #67
	bhi	.LBB18_10
@ %bb.9:                                @   in Loop: Header=BB18_8 Depth=1
	orrs	r2, r3
	bne	.LBB18_8
.LBB18_10:
	.loc	3 1932 1 is_stmt 1              @ rt-thread/components/net/lwip-2.0.2/src/core/ipv4/dhcp.c:1932:1
	pop	{r4, pc}
.LBB18_11:
.Ltmp324:
	@DEBUG_VALUE: dhcp_option_trailer:dhcp <- $r0
	.loc	3 1922 3                        @ rt-thread/components/net/lwip-2.0.2/src/core/ipv4/dhcp.c:1922:3
	movw	r0, :lower16:.L.str.34
.Ltmp325:
	@DEBUG_VALUE: dhcp_option_trailer:dhcp <- [DW_OP_LLVM_entry_value 1] $r0
	movt	r0, :upper16:.L.str.34
	bl	rt_kprintf
	movw	r0, :lower16:.L.str.1
	movw	r1, #1922
	movt	r0, :upper16:.L.str.1
	bl	sys_arch_assert
.Ltmp326:
	.loc	3 1932 1                        @ rt-thread/components/net/lwip-2.0.2/src/core/ipv4/dhcp.c:1932:1
	pop	{r4, pc}
.Ltmp327:
	.p2align	2
@ %bb.12:
	.loc	3 0 1 is_stmt 0                 @ rt-thread/components/net/lwip-2.0.2/src/core/ipv4/dhcp.c:0:1
.LCPI18_0:
.L.str.35:
	.asciz	"dhcp_option_trailer: dhcp->msg_out != NULL\n"
.LCPI18_1:
.L.str.36:
	.asciz	"dhcp_option_trailer: dhcp->options_out_len < DHCP_OPTIONS_LEN\n\000"
.Lfunc_end18:
	.size	dhcp_option_trailer, .Lfunc_end18-dhcp_option_trailer
	.cfi_endproc
	.cantunwind
	.fnend
                                        @ -- End function
	.section	.text.dhcp_delete_msg,"ax",%progbits
	.p2align	3                               @ -- Begin function dhcp_delete_msg
	.type	dhcp_delete_msg,%function
	.code	16                              @ @dhcp_delete_msg
	.thumb_func
dhcp_delete_msg:
.Lfunc_begin19:
	.loc	3 1900 0 is_stmt 1              @ rt-thread/components/net/lwip-2.0.2/src/core/ipv4/dhcp.c:1900:0
	.fnstart
	.cfi_startproc
@ %bb.0:
	@DEBUG_VALUE: dhcp_delete_msg:dhcp <- $r0
	@DEBUG_VALUE: dhcp_delete_msg:dhcp <- $r0
	.save	{r4, lr}
	push	{r4, lr}
	.cfi_def_cfa_offset 8
	.cfi_offset lr, -4
	.cfi_offset r4, -8
.Ltmp328:
	.loc	3 1901 3 prologue_end           @ rt-thread/components/net/lwip-2.0.2/src/core/ipv4/dhcp.c:1901:3
	cbz	r0, .LBB19_8
.Ltmp329:
@ %bb.1:
	@DEBUG_VALUE: dhcp_delete_msg:dhcp <- $r0
	.loc	3 0 3 is_stmt 0                 @ rt-thread/components/net/lwip-2.0.2/src/core/ipv4/dhcp.c:0:3
	mov	r4, r0
.Ltmp330:
	@DEBUG_VALUE: dhcp_delete_msg:dhcp <- $r4
	.loc	3 1902 3 is_stmt 1              @ rt-thread/components/net/lwip-2.0.2/src/core/ipv4/dhcp.c:1902:3
	ldr	r0, [r0, #12]
.Ltmp331:
	.loc	3 1902 3 is_stmt 0              @ rt-thread/components/net/lwip-2.0.2/src/core/ipv4/dhcp.c:1902:3
	cbnz	r0, .LBB19_3
.Ltmp332:
@ %bb.2:
	@DEBUG_VALUE: dhcp_delete_msg:dhcp <- $r4
	.loc	3 1902 3                        @ rt-thread/components/net/lwip-2.0.2/src/core/ipv4/dhcp.c:1902:3
	adr	r0, .LCPI19_0
	bl	rt_kprintf
	movw	r0, :lower16:.L.str.1
	movw	r1, #1902
	movt	r0, :upper16:.L.str.1
	bl	sys_arch_assert
.Ltmp333:
.LBB19_3:
	@DEBUG_VALUE: dhcp_delete_msg:dhcp <- $r4
	.loc	3 1903 3 is_stmt 1              @ rt-thread/components/net/lwip-2.0.2/src/core/ipv4/dhcp.c:1903:3
	ldr	r0, [r4, #16]
.Ltmp334:
	.loc	3 1903 3 is_stmt 0              @ rt-thread/components/net/lwip-2.0.2/src/core/ipv4/dhcp.c:1903:3
	cbnz	r0, .LBB19_5
.Ltmp335:
@ %bb.4:
	@DEBUG_VALUE: dhcp_delete_msg:dhcp <- $r4
	.loc	3 1903 3                        @ rt-thread/components/net/lwip-2.0.2/src/core/ipv4/dhcp.c:1903:3
	adr	r0, .LCPI19_1
	bl	rt_kprintf
	movw	r0, :lower16:.L.str.1
	movw	r1, #1903
	movt	r0, :upper16:.L.str.1
	bl	sys_arch_assert
.Ltmp336:
.LBB19_5:
	@DEBUG_VALUE: dhcp_delete_msg:dhcp <- $r4
	.loc	3 1904 13 is_stmt 1             @ rt-thread/components/net/lwip-2.0.2/src/core/ipv4/dhcp.c:1904:13
	ldr	r0, [r4, #12]
.Ltmp337:
	.loc	3 1904 7 is_stmt 0              @ rt-thread/components/net/lwip-2.0.2/src/core/ipv4/dhcp.c:1904:7
	cbz	r0, .LBB19_7
.Ltmp338:
@ %bb.6:
	@DEBUG_VALUE: dhcp_delete_msg:dhcp <- $r4
	.loc	3 1905 5 is_stmt 1              @ rt-thread/components/net/lwip-2.0.2/src/core/ipv4/dhcp.c:1905:5
	bl	pbuf_free
.Ltmp339:
.LBB19_7:
	@DEBUG_VALUE: dhcp_delete_msg:dhcp <- $r4
	.loc	3 0 5 is_stmt 0                 @ rt-thread/components/net/lwip-2.0.2/src/core/ipv4/dhcp.c:0:5
	movs	r0, #0
	.loc	3 1907 15 is_stmt 1             @ rt-thread/components/net/lwip-2.0.2/src/core/ipv4/dhcp.c:1907:15
	strd	r0, r0, [r4, #12]
	.loc	3 1909 1                        @ rt-thread/components/net/lwip-2.0.2/src/core/ipv4/dhcp.c:1909:1
	pop	{r4, pc}
.Ltmp340:
.LBB19_8:
	@DEBUG_VALUE: dhcp_delete_msg:dhcp <- $r0
	.loc	3 1901 3                        @ rt-thread/components/net/lwip-2.0.2/src/core/ipv4/dhcp.c:1901:3
	adr	r0, .LCPI19_2
.Ltmp341:
	@DEBUG_VALUE: dhcp_delete_msg:dhcp <- [DW_OP_LLVM_entry_value 1] $r0
	bl	rt_kprintf
	movw	r0, :lower16:.L.str.1
	movw	r1, #1901
	movt	r0, :upper16:.L.str.1
	bl	sys_arch_assert
.Ltmp342:
	.loc	3 1909 1                        @ rt-thread/components/net/lwip-2.0.2/src/core/ipv4/dhcp.c:1909:1
	pop	{r4, pc}
.Ltmp343:
	.p2align	2
@ %bb.9:
	.loc	3 0 1 is_stmt 0                 @ rt-thread/components/net/lwip-2.0.2/src/core/ipv4/dhcp.c:0:1
.LCPI19_0:
.L.str.32:
	.asciz	"dhcp_delete_msg: dhcp->p_out != NULL\000\000\000"
.LCPI19_1:
.L.str.33:
	.asciz	"dhcp_delete_msg: dhcp->msg_out != NULL\000"
.LCPI19_2:
.L.str.31:
	.asciz	"dhcp_delete_msg: dhcp != NULL\000\000"
.Lfunc_end19:
	.size	dhcp_delete_msg, .Lfunc_end19-dhcp_delete_msg
	.cfi_endproc
	.cantunwind
	.fnend
                                        @ -- End function
	.section	.text.dhcp_network_changed,"ax",%progbits
	.hidden	dhcp_network_changed            @ -- Begin function dhcp_network_changed
	.globl	dhcp_network_changed
	.p2align	3
	.type	dhcp_network_changed,%function
	.code	16                              @ @dhcp_network_changed
	.thumb_func
dhcp_network_changed:
.Lfunc_begin20:
	.loc	3 845 0 is_stmt 1               @ rt-thread/components/net/lwip-2.0.2/src/core/ipv4/dhcp.c:845:0
	.fnstart
	.cfi_startproc
@ %bb.0:
	@DEBUG_VALUE: dhcp_network_changed:netif <- $r0
	@DEBUG_VALUE: dhcp_network_changed:netif <- $r0
	.save	{r7, lr}
	push	{r7, lr}
	.cfi_def_cfa_offset 8
	.cfi_offset lr, -4
	.cfi_offset r7, -8
.Ltmp344:
	.loc	3 846 23 prologue_end           @ rt-thread/components/net/lwip-2.0.2/src/core/ipv4/dhcp.c:846:23
	ldr	r1, [r0, #40]
.Ltmp345:
	@DEBUG_VALUE: dhcp_network_changed:dhcp <- $r1
	.loc	3 848 7                         @ rt-thread/components/net/lwip-2.0.2/src/core/ipv4/dhcp.c:848:7
	cbz	r1, .LBB20_6
.Ltmp346:
@ %bb.1:
	@DEBUG_VALUE: dhcp_network_changed:dhcp <- $r1
	@DEBUG_VALUE: dhcp_network_changed:netif <- $r0
	.loc	3 850 17                        @ rt-thread/components/net/lwip-2.0.2/src/core/ipv4/dhcp.c:850:17
	ldrb	r2, [r1, #9]
	.loc	3 850 3 is_stmt 0               @ rt-thread/components/net/lwip-2.0.2/src/core/ipv4/dhcp.c:850:3
	subs	r3, r2, #3
	cmp	r3, #3
	blo	.LBB20_4
.Ltmp347:
@ %bb.2:
	@DEBUG_VALUE: dhcp_network_changed:dhcp <- $r1
	@DEBUG_VALUE: dhcp_network_changed:netif <- $r0
	cmp	r2, #0
	.loc	3 876 1 is_stmt 1               @ rt-thread/components/net/lwip-2.0.2/src/core/ipv4/dhcp.c:876:1
	it	eq
	popeq	{r7, pc}
.Ltmp348:
.LBB20_3:
	@DEBUG_VALUE: dhcp_network_changed:dhcp <- $r1
	@DEBUG_VALUE: dhcp_network_changed:netif <- $r0
	.loc	3 850 3                         @ rt-thread/components/net/lwip-2.0.2/src/core/ipv4/dhcp.c:850:3
	cmp	r2, #10
	bne	.LBB20_5
.Ltmp349:
.LBB20_4:
	@DEBUG_VALUE: dhcp_network_changed:dhcp <- $r1
	@DEBUG_VALUE: dhcp_network_changed:netif <- $r0
	.loc	3 0 3 is_stmt 0                 @ rt-thread/components/net/lwip-2.0.2/src/core/ipv4/dhcp.c:0:3
	movs	r2, #0
.Ltmp350:
	.loc	3 855 17 is_stmt 1              @ rt-thread/components/net/lwip-2.0.2/src/core/ipv4/dhcp.c:855:17
	strb	r2, [r1, #10]
	.loc	3 856 5                         @ rt-thread/components/net/lwip-2.0.2/src/core/ipv4/dhcp.c:856:5
	bl	dhcp_reboot
.Ltmp351:
	@DEBUG_VALUE: dhcp_network_changed:netif <- [DW_OP_LLVM_entry_value 1] $r0
	.loc	3 876 1                         @ rt-thread/components/net/lwip-2.0.2/src/core/ipv4/dhcp.c:876:1
	pop	{r7, pc}
.Ltmp352:
.LBB20_5:
	@DEBUG_VALUE: dhcp_network_changed:dhcp <- $r1
	@DEBUG_VALUE: dhcp_network_changed:netif <- $r0
	.loc	3 0 1 is_stmt 0                 @ rt-thread/components/net/lwip-2.0.2/src/core/ipv4/dhcp.c:0:1
	movs	r2, #0
.Ltmp353:
	.loc	3 872 17 is_stmt 1              @ rt-thread/components/net/lwip-2.0.2/src/core/ipv4/dhcp.c:872:17
	strb	r2, [r1, #10]
	.loc	3 873 5                         @ rt-thread/components/net/lwip-2.0.2/src/core/ipv4/dhcp.c:873:5
	bl	dhcp_discover
.Ltmp354:
	@DEBUG_VALUE: dhcp_network_changed:netif <- [DW_OP_LLVM_entry_value 1] $r0
.LBB20_6:
	.loc	3 876 1                         @ rt-thread/components/net/lwip-2.0.2/src/core/ipv4/dhcp.c:876:1
	pop	{r7, pc}
.Ltmp355:
.Lfunc_end20:
	.size	dhcp_network_changed, .Lfunc_end20-dhcp_network_changed
	.cfi_endproc
	.cantunwind
	.fnend
                                        @ -- End function
	.section	.text.dhcp_reboot,"ax",%progbits
	.p2align	3                               @ -- Begin function dhcp_reboot
	.type	dhcp_reboot,%function
	.code	16                              @ @dhcp_reboot
	.thumb_func
dhcp_reboot:
.Lfunc_begin21:
	.loc	3 1230 0                        @ rt-thread/components/net/lwip-2.0.2/src/core/ipv4/dhcp.c:1230:0
	.fnstart
	.cfi_startproc
@ %bb.0:
	@DEBUG_VALUE: dhcp_reboot:netif <- $r0
	.save	{r4, r5, r6, r7, lr}
	push	{r4, r5, r6, r7, lr}
	.cfi_def_cfa_offset 20
	.cfi_offset lr, -4
	.cfi_offset r7, -8
	.cfi_offset r6, -12
	.cfi_offset r5, -16
	.cfi_offset r4, -20
	.pad	#4
	sub	sp, #4
	.cfi_def_cfa_offset 24
.Ltmp356:
	.loc	3 1231 23 prologue_end          @ rt-thread/components/net/lwip-2.0.2/src/core/ipv4/dhcp.c:1231:23
	ldr	r4, [r0, #40]
.Ltmp357:
	@DEBUG_VALUE: dhcp_reboot:dhcp <- $r4
	.loc	3 0 23 is_stmt 0                @ rt-thread/components/net/lwip-2.0.2/src/core/ipv4/dhcp.c:0:23
	mov	r5, r0
.Ltmp358:
	@DEBUG_VALUE: dhcp_reboot:netif <- $r5
	@DEBUG_VALUE: dhcp_reboot:netif <- $r5
	.loc	3 1236 3 is_stmt 1              @ rt-thread/components/net/lwip-2.0.2/src/core/ipv4/dhcp.c:1236:3
	movs	r1, #3
	mov	r0, r4
	bl	dhcp_set_state
	.loc	3 1239 12                       @ rt-thread/components/net/lwip-2.0.2/src/core/ipv4/dhcp.c:1239:12
	movs	r2, #3
	mov	r0, r5
	mov	r1, r4
	bl	dhcp_create_msg
.Ltmp359:
	@DEBUG_VALUE: dhcp_reboot:result <- $r0
	.loc	3 1240 7                        @ rt-thread/components/net/lwip-2.0.2/src/core/ipv4/dhcp.c:1240:7
	cmp	r0, #0
	bne	.LBB21_4
.Ltmp360:
@ %bb.1:
	@DEBUG_VALUE: dhcp_reboot:netif <- $r5
	@DEBUG_VALUE: dhcp_reboot:dhcp <- $r4
	@DEBUG_VALUE: dhcp_reboot:result <- $r0
	.loc	3 1241 5                        @ rt-thread/components/net/lwip-2.0.2/src/core/ipv4/dhcp.c:1241:5
	movs	r1, #57
	movs	r2, #2
	mov	r0, r4
.Ltmp361:
	bl	dhcp_option
	.loc	3 1242 5                        @ rt-thread/components/net/lwip-2.0.2/src/core/ipv4/dhcp.c:1242:5
	mov.w	r1, #576
	mov	r0, r4
	bl	dhcp_option_short
	.loc	3 1244 5                        @ rt-thread/components/net/lwip-2.0.2/src/core/ipv4/dhcp.c:1244:5
	movs	r1, #50
	movs	r2, #4
	mov	r0, r4
	bl	dhcp_option
	.loc	3 1245 28                       @ rt-thread/components/net/lwip-2.0.2/src/core/ipv4/dhcp.c:1245:28
	ldr	r0, [r4, #40]
	bl	lwip_htonl
	mov	r1, r0
	.loc	3 1245 5 is_stmt 0              @ rt-thread/components/net/lwip-2.0.2/src/core/ipv4/dhcp.c:1245:5
	mov	r0, r4
	bl	dhcp_option_long
	.loc	3 1247 5 is_stmt 1              @ rt-thread/components/net/lwip-2.0.2/src/core/ipv4/dhcp.c:1247:5
	movs	r1, #55
	movs	r2, #4
	mov	r0, r4
	bl	dhcp_option
	movw	r7, :lower16:dhcp_discover_request_options
	mov.w	r6, #-1
.Ltmp362:
	@DEBUG_VALUE: dhcp_reboot:i <- 0
	.loc	3 0 5 is_stmt 0                 @ rt-thread/components/net/lwip-2.0.2/src/core/ipv4/dhcp.c:0:5
	movt	r7, :upper16:dhcp_discover_request_options
.Ltmp363:
	.p2align	2
.LBB21_2:                               @ =>This Inner Loop Header: Depth=1
	@DEBUG_VALUE: dhcp_reboot:netif <- $r5
	@DEBUG_VALUE: dhcp_reboot:dhcp <- $r4
	@DEBUG_VALUE: dhcp_reboot:i <- [DW_OP_plus_uconst 1, DW_OP_stack_value] $r6
	.loc	3 1249 30 is_stmt 1             @ rt-thread/components/net/lwip-2.0.2/src/core/ipv4/dhcp.c:1249:30
	adds	r0, r7, r6
	ldrb	r1, [r0, #1]
	.loc	3 1249 7 is_stmt 0              @ rt-thread/components/net/lwip-2.0.2/src/core/ipv4/dhcp.c:1249:7
	mov	r0, r4
	bl	dhcp_option_byte
.Ltmp364:
	@DEBUG_VALUE: dhcp_reboot:i <- [DW_OP_plus_uconst 2, DW_OP_stack_value] $r6
	.loc	3 1248 19 is_stmt 1             @ rt-thread/components/net/lwip-2.0.2/src/core/ipv4/dhcp.c:1248:19
	adds	r6, #1
.Ltmp365:
	.loc	3 1248 5 is_stmt 0              @ rt-thread/components/net/lwip-2.0.2/src/core/ipv4/dhcp.c:1248:5
	cmp	r6, #3
	bne	.LBB21_2
.Ltmp366:
@ %bb.3:
	@DEBUG_VALUE: dhcp_reboot:netif <- $r5
	@DEBUG_VALUE: dhcp_reboot:dhcp <- $r4
	.loc	3 1252 5 is_stmt 1              @ rt-thread/components/net/lwip-2.0.2/src/core/ipv4/dhcp.c:1252:5
	mov	r0, r4
	bl	dhcp_option_trailer
	.loc	3 1254 82                       @ rt-thread/components/net/lwip-2.0.2/src/core/ipv4/dhcp.c:1254:82
	ldrh	r1, [r4, #20]
	.loc	3 1254 24 is_stmt 0             @ rt-thread/components/net/lwip-2.0.2/src/core/ipv4/dhcp.c:1254:24
	ldr	r0, [r4, #12]
	.loc	3 1254 74                       @ rt-thread/components/net/lwip-2.0.2/src/core/ipv4/dhcp.c:1254:74
	adds	r1, #240
	.loc	3 1254 5                        @ rt-thread/components/net/lwip-2.0.2/src/core/ipv4/dhcp.c:1254:5
	uxth	r1, r1
	bl	pbuf_realloc
	.loc	3 1257 19 is_stmt 1             @ rt-thread/components/net/lwip-2.0.2/src/core/ipv4/dhcp.c:1257:19
	movw	r0, :lower16:dhcp_pcb
	.loc	3 1257 5 is_stmt 0              @ rt-thread/components/net/lwip-2.0.2/src/core/ipv4/dhcp.c:1257:5
	movw	r2, :lower16:ip_addr_broadcast
	.loc	3 1257 19                       @ rt-thread/components/net/lwip-2.0.2/src/core/ipv4/dhcp.c:1257:19
	movt	r0, :upper16:dhcp_pcb
	.loc	3 1257 35                       @ rt-thread/components/net/lwip-2.0.2/src/core/ipv4/dhcp.c:1257:35
	ldr	r1, [r4, #12]
	.loc	3 1257 5                        @ rt-thread/components/net/lwip-2.0.2/src/core/ipv4/dhcp.c:1257:5
	movt	r2, :upper16:ip_addr_broadcast
	movs	r3, #67
	.loc	3 1257 19                       @ rt-thread/components/net/lwip-2.0.2/src/core/ipv4/dhcp.c:1257:19
	ldr	r0, [r0]
	.loc	3 1257 5                        @ rt-thread/components/net/lwip-2.0.2/src/core/ipv4/dhcp.c:1257:5
	str	r5, [sp]
	bl	udp_sendto_if
	.loc	3 1258 5 is_stmt 1              @ rt-thread/components/net/lwip-2.0.2/src/core/ipv4/dhcp.c:1258:5
	mov	r0, r4
	bl	dhcp_delete_msg
.Ltmp367:
.LBB21_4:
	@DEBUG_VALUE: dhcp_reboot:netif <- $r5
	@DEBUG_VALUE: dhcp_reboot:dhcp <- $r4
	.loc	3 1263 13                       @ rt-thread/components/net/lwip-2.0.2/src/core/ipv4/dhcp.c:1263:13
	ldrb	r0, [r4, #10]
	mov.w	r1, #1000
	movw	r2, #499
.Ltmp368:
	.loc	3 1263 7 is_stmt 0              @ rt-thread/components/net/lwip-2.0.2/src/core/ipv4/dhcp.c:1263:7
	cmp	r0, #255
.Ltmp369:
	.loc	3 1264 16 is_stmt 1             @ rt-thread/components/net/lwip-2.0.2/src/core/ipv4/dhcp.c:1264:16
	itt	ne
	addne	r0, #1
	strbne	r0, [r4, #10]
.Ltmp370:
	.loc	3 1266 17                       @ rt-thread/components/net/lwip-2.0.2/src/core/ipv4/dhcp.c:1266:17
	ldrb	r0, [r4, #10]
	.loc	3 1266 11 is_stmt 0             @ rt-thread/components/net/lwip-2.0.2/src/core/ipv4/dhcp.c:1266:11
	muls	r1, r0, r1
	cmp	r0, #10
	uxtah	r1, r2, r1
	movw	r2, #19923
	movt	r2, #4194
	umull	r1, r2, r1, r2
	mov.w	r1, #20
	it	lo
	lsrlo	r1, r2, #5
.Ltmp371:
	@DEBUG_VALUE: dhcp_reboot:msecs <- undef
	.loc	3 1267 25 is_stmt 1             @ rt-thread/components/net/lwip-2.0.2/src/core/ipv4/dhcp.c:1267:25
	strh	r1, [r4, #22]
	.loc	3 1269 3                        @ rt-thread/components/net/lwip-2.0.2/src/core/ipv4/dhcp.c:1269:3
	add	sp, #4
	pop	{r4, r5, r6, r7, pc}
.Ltmp372:
.Lfunc_end21:
	.size	dhcp_reboot, .Lfunc_end21-dhcp_reboot
	.cfi_endproc
	.cantunwind
	.fnend
                                        @ -- End function
	.section	.text.dhcp_arp_reply,"ax",%progbits
	.hidden	dhcp_arp_reply                  @ -- Begin function dhcp_arp_reply
	.globl	dhcp_arp_reply
	.p2align	3
	.type	dhcp_arp_reply,%function
	.code	16                              @ @dhcp_arp_reply
	.thumb_func
dhcp_arp_reply:
.Lfunc_begin22:
	.loc	3 888 0                         @ rt-thread/components/net/lwip-2.0.2/src/core/ipv4/dhcp.c:888:0
	.fnstart
	.cfi_startproc
@ %bb.0:
	@DEBUG_VALUE: dhcp_arp_reply:netif <- $r0
	@DEBUG_VALUE: dhcp_arp_reply:netif <- $r0
	@DEBUG_VALUE: dhcp_arp_reply:addr <- $r1
	.save	{r7, lr}
	push	{r7, lr}
	.cfi_def_cfa_offset 8
	.cfi_offset lr, -4
	.cfi_offset r7, -8
	@DEBUG_VALUE: dhcp_arp_reply:addr <- $r1
.Ltmp373:
	.loc	3 891 3 prologue_end            @ rt-thread/components/net/lwip-2.0.2/src/core/ipv4/dhcp.c:891:3
	cbz	r0, .LBB22_6
.Ltmp374:
@ %bb.1:
	@DEBUG_VALUE: dhcp_arp_reply:addr <- $r1
	@DEBUG_VALUE: dhcp_arp_reply:netif <- $r0
	.loc	3 892 10                        @ rt-thread/components/net/lwip-2.0.2/src/core/ipv4/dhcp.c:892:10
	ldr	r2, [r0, #40]
.Ltmp375:
	@DEBUG_VALUE: dhcp_arp_reply:dhcp <- $r2
	.loc	3 895 22                        @ rt-thread/components/net/lwip-2.0.2/src/core/ipv4/dhcp.c:895:22
	cbz	r2, .LBB22_5
.Ltmp376:
@ %bb.2:
	@DEBUG_VALUE: dhcp_arp_reply:dhcp <- $r2
	@DEBUG_VALUE: dhcp_arp_reply:addr <- $r1
	@DEBUG_VALUE: dhcp_arp_reply:netif <- $r0
	.loc	3 895 32 is_stmt 0              @ rt-thread/components/net/lwip-2.0.2/src/core/ipv4/dhcp.c:895:32
	ldrb	r3, [r2, #9]
.Ltmp377:
	.loc	3 895 7                         @ rt-thread/components/net/lwip-2.0.2/src/core/ipv4/dhcp.c:895:7
	cmp	r3, #8
	bne	.LBB22_5
.Ltmp378:
@ %bb.3:
	@DEBUG_VALUE: dhcp_arp_reply:dhcp <- $r2
	@DEBUG_VALUE: dhcp_arp_reply:addr <- $r1
	@DEBUG_VALUE: dhcp_arp_reply:netif <- $r0
	.loc	3 900 9 is_stmt 1               @ rt-thread/components/net/lwip-2.0.2/src/core/ipv4/dhcp.c:900:9
	ldr	r1, [r1]
.Ltmp379:
	@DEBUG_VALUE: dhcp_arp_reply:addr <- [DW_OP_LLVM_entry_value 1] $r1
	ldr	r2, [r2, #40]
.Ltmp380:
	.loc	3 900 9 is_stmt 0               @ rt-thread/components/net/lwip-2.0.2/src/core/ipv4/dhcp.c:900:9
	cmp	r1, r2
.Ltmp381:
	.loc	3 907 1 is_stmt 1               @ rt-thread/components/net/lwip-2.0.2/src/core/ipv4/dhcp.c:907:1
	it	ne
	popne	{r7, pc}
.Ltmp382:
.LBB22_4:
	@DEBUG_VALUE: dhcp_arp_reply:netif <- $r0
	@DEBUG_VALUE: dhcp_arp_reply:addr <- [DW_OP_LLVM_entry_value 1] $r1
	.loc	3 904 7                         @ rt-thread/components/net/lwip-2.0.2/src/core/ipv4/dhcp.c:904:7
	bl	dhcp_decline
.Ltmp383:
	@DEBUG_VALUE: dhcp_arp_reply:netif <- [DW_OP_LLVM_entry_value 1] $r0
.LBB22_5:
	.loc	3 907 1                         @ rt-thread/components/net/lwip-2.0.2/src/core/ipv4/dhcp.c:907:1
	pop	{r7, pc}
.LBB22_6:
.Ltmp384:
	@DEBUG_VALUE: dhcp_arp_reply:addr <- $r1
	@DEBUG_VALUE: dhcp_arp_reply:netif <- $r0
	.loc	3 891 3                         @ rt-thread/components/net/lwip-2.0.2/src/core/ipv4/dhcp.c:891:3
	movw	r0, :lower16:.L.str
.Ltmp385:
	@DEBUG_VALUE: dhcp_arp_reply:netif <- [DW_OP_LLVM_entry_value 1] $r0
	movt	r0, :upper16:.L.str
	bl	rt_kprintf
.Ltmp386:
	@DEBUG_VALUE: dhcp_arp_reply:addr <- [DW_OP_LLVM_entry_value 1] $r1
	movw	r0, :lower16:.L.str.1
	movw	r1, #891
	movt	r0, :upper16:.L.str.1
	bl	sys_arch_assert
.Ltmp387:
	.loc	3 907 1                         @ rt-thread/components/net/lwip-2.0.2/src/core/ipv4/dhcp.c:907:1
	pop	{r7, pc}
.Ltmp388:
.Lfunc_end22:
	.size	dhcp_arp_reply, .Lfunc_end22-dhcp_arp_reply
	.cfi_endproc
	.cantunwind
	.fnend
                                        @ -- End function
	.section	.text.dhcp_decline,"ax",%progbits
	.p2align	3                               @ -- Begin function dhcp_decline
	.type	dhcp_decline,%function
	.code	16                              @ @dhcp_decline
	.thumb_func
dhcp_decline:
.Lfunc_begin23:
	.loc	3 920 0                         @ rt-thread/components/net/lwip-2.0.2/src/core/ipv4/dhcp.c:920:0
	.fnstart
	.cfi_startproc
@ %bb.0:
	@DEBUG_VALUE: dhcp_decline:netif <- $r0
	.save	{r4, r5, r7, lr}
	push	{r4, r5, r7, lr}
	.cfi_def_cfa_offset 16
	.cfi_offset lr, -4
	.cfi_offset r7, -8
	.cfi_offset r5, -12
	.cfi_offset r4, -16
	.pad	#8
	sub	sp, #8
	.cfi_def_cfa_offset 24
.Ltmp389:
	.loc	3 921 23 prologue_end           @ rt-thread/components/net/lwip-2.0.2/src/core/ipv4/dhcp.c:921:23
	ldr	r4, [r0, #40]
.Ltmp390:
	@DEBUG_VALUE: dhcp_decline:result <- 0
	@DEBUG_VALUE: dhcp_decline:dhcp <- $r4
	.loc	3 0 23 is_stmt 0                @ rt-thread/components/net/lwip-2.0.2/src/core/ipv4/dhcp.c:0:23
	mov	r5, r0
.Ltmp391:
	@DEBUG_VALUE: dhcp_decline:netif <- $r5
	@DEBUG_VALUE: dhcp_decline:netif <- $r5
	.loc	3 925 3 is_stmt 1               @ rt-thread/components/net/lwip-2.0.2/src/core/ipv4/dhcp.c:925:3
	movs	r1, #12
	mov	r0, r4
	bl	dhcp_set_state
	.loc	3 927 12                        @ rt-thread/components/net/lwip-2.0.2/src/core/ipv4/dhcp.c:927:12
	movs	r2, #4
	mov	r0, r5
	mov	r1, r4
	bl	dhcp_create_msg
.Ltmp392:
	@DEBUG_VALUE: dhcp_decline:result <- $r0
	.loc	3 928 7                         @ rt-thread/components/net/lwip-2.0.2/src/core/ipv4/dhcp.c:928:7
	cbnz	r0, .LBB23_2
.Ltmp393:
@ %bb.1:
	@DEBUG_VALUE: dhcp_decline:netif <- $r5
	@DEBUG_VALUE: dhcp_decline:dhcp <- $r4
	@DEBUG_VALUE: dhcp_decline:result <- $r0
	.loc	3 929 5                         @ rt-thread/components/net/lwip-2.0.2/src/core/ipv4/dhcp.c:929:5
	movs	r1, #50
	movs	r2, #4
	mov	r0, r4
.Ltmp394:
	bl	dhcp_option
	.loc	3 930 28                        @ rt-thread/components/net/lwip-2.0.2/src/core/ipv4/dhcp.c:930:28
	ldr	r0, [r4, #40]
	bl	lwip_htonl
	mov	r1, r0
	.loc	3 930 5 is_stmt 0               @ rt-thread/components/net/lwip-2.0.2/src/core/ipv4/dhcp.c:930:5
	mov	r0, r4
	bl	dhcp_option_long
	.loc	3 932 5 is_stmt 1               @ rt-thread/components/net/lwip-2.0.2/src/core/ipv4/dhcp.c:932:5
	mov	r0, r4
	bl	dhcp_option_trailer
	.loc	3 934 82                        @ rt-thread/components/net/lwip-2.0.2/src/core/ipv4/dhcp.c:934:82
	ldrh	r1, [r4, #20]
	.loc	3 934 24 is_stmt 0              @ rt-thread/components/net/lwip-2.0.2/src/core/ipv4/dhcp.c:934:24
	ldr	r0, [r4, #12]
	.loc	3 934 74                        @ rt-thread/components/net/lwip-2.0.2/src/core/ipv4/dhcp.c:934:74
	adds	r1, #240
	.loc	3 934 5                         @ rt-thread/components/net/lwip-2.0.2/src/core/ipv4/dhcp.c:934:5
	uxth	r1, r1
	bl	pbuf_realloc
	.loc	3 937 23 is_stmt 1              @ rt-thread/components/net/lwip-2.0.2/src/core/ipv4/dhcp.c:937:23
	movw	r0, :lower16:dhcp_pcb
	.loc	3 937 5 is_stmt 0               @ rt-thread/components/net/lwip-2.0.2/src/core/ipv4/dhcp.c:937:5
	movw	r2, :lower16:ip_addr_broadcast
	.loc	3 937 23                        @ rt-thread/components/net/lwip-2.0.2/src/core/ipv4/dhcp.c:937:23
	movt	r0, :upper16:dhcp_pcb
	.loc	3 937 39                        @ rt-thread/components/net/lwip-2.0.2/src/core/ipv4/dhcp.c:937:39
	ldr	r1, [r4, #12]
	.loc	3 937 5                         @ rt-thread/components/net/lwip-2.0.2/src/core/ipv4/dhcp.c:937:5
	movw	r12, :lower16:ip_addr_any
	movt	r2, :upper16:ip_addr_broadcast
	.loc	3 937 23                        @ rt-thread/components/net/lwip-2.0.2/src/core/ipv4/dhcp.c:937:23
	ldr	r0, [r0]
	.loc	3 937 5                         @ rt-thread/components/net/lwip-2.0.2/src/core/ipv4/dhcp.c:937:5
	movs	r3, #67
	movt	r12, :upper16:ip_addr_any
	str	r5, [sp]
	str.w	r12, [sp, #4]
	bl	udp_sendto_if_src
	.loc	3 938 5 is_stmt 1               @ rt-thread/components/net/lwip-2.0.2/src/core/ipv4/dhcp.c:938:5
	mov	r0, r4
	bl	dhcp_delete_msg
.Ltmp395:
.LBB23_2:
	@DEBUG_VALUE: dhcp_decline:netif <- $r5
	@DEBUG_VALUE: dhcp_decline:dhcp <- $r4
	.loc	3 944 13                        @ rt-thread/components/net/lwip-2.0.2/src/core/ipv4/dhcp.c:944:13
	ldrb	r0, [r4, #10]
.Ltmp396:
	.loc	3 944 7 is_stmt 0               @ rt-thread/components/net/lwip-2.0.2/src/core/ipv4/dhcp.c:944:7
	cmp	r0, #255
.Ltmp397:
	.loc	3 945 16 is_stmt 1              @ rt-thread/components/net/lwip-2.0.2/src/core/ipv4/dhcp.c:945:16
	itt	ne
	addne	r0, #1
	strbne	r0, [r4, #10]
.Ltmp398:
	@DEBUG_VALUE: dhcp_decline:msecs <- 10000
	.loc	3 0 16 is_stmt 0                @ rt-thread/components/net/lwip-2.0.2/src/core/ipv4/dhcp.c:0:16
	movs	r0, #20
.Ltmp399:
	.loc	3 948 25 is_stmt 1              @ rt-thread/components/net/lwip-2.0.2/src/core/ipv4/dhcp.c:948:25
	strh	r0, [r4, #22]
	.loc	3 950 3                         @ rt-thread/components/net/lwip-2.0.2/src/core/ipv4/dhcp.c:950:3
	add	sp, #8
	pop	{r4, r5, r7, pc}
.Ltmp400:
.Lfunc_end23:
	.size	dhcp_decline, .Lfunc_end23-dhcp_decline
	.cfi_endproc
	.cantunwind
	.fnend
                                        @ -- End function
	.section	.text.dhcp_renew,"ax",%progbits
	.hidden	dhcp_renew                      @ -- Begin function dhcp_renew
	.globl	dhcp_renew
	.p2align	3
	.type	dhcp_renew,%function
	.code	16                              @ @dhcp_renew
	.thumb_func
dhcp_renew:
.Lfunc_begin24:
	.loc	3 1128 0                        @ rt-thread/components/net/lwip-2.0.2/src/core/ipv4/dhcp.c:1128:0
	.fnstart
	.cfi_startproc
@ %bb.0:
	@DEBUG_VALUE: dhcp_renew:netif <- $r0
	.save	{r4, r5, r6, r7, r8, lr}
	push.w	{r4, r5, r6, r7, r8, lr}
	.cfi_def_cfa_offset 24
	.cfi_offset lr, -4
	.cfi_offset r8, -8
	.cfi_offset r7, -12
	.cfi_offset r6, -16
	.cfi_offset r5, -20
	.cfi_offset r4, -24
	.pad	#8
	sub	sp, #8
	.cfi_def_cfa_offset 32
.Ltmp401:
	.loc	3 1129 23 prologue_end          @ rt-thread/components/net/lwip-2.0.2/src/core/ipv4/dhcp.c:1129:23
	ldr	r4, [r0, #40]
.Ltmp402:
	@DEBUG_VALUE: dhcp_renew:dhcp <- $r4
	.loc	3 0 23 is_stmt 0                @ rt-thread/components/net/lwip-2.0.2/src/core/ipv4/dhcp.c:0:23
	mov	r6, r0
.Ltmp403:
	@DEBUG_VALUE: dhcp_renew:netif <- $r6
	@DEBUG_VALUE: dhcp_renew:netif <- $r6
	.loc	3 1134 3 is_stmt 1              @ rt-thread/components/net/lwip-2.0.2/src/core/ipv4/dhcp.c:1134:3
	movs	r1, #5
	mov	r0, r4
	bl	dhcp_set_state
	.loc	3 1137 12                       @ rt-thread/components/net/lwip-2.0.2/src/core/ipv4/dhcp.c:1137:12
	movs	r2, #3
	mov	r0, r6
	mov	r1, r4
	bl	dhcp_create_msg
	mov	r8, r0
.Ltmp404:
	@DEBUG_VALUE: dhcp_renew:result <- $r8
	.loc	3 1138 7                        @ rt-thread/components/net/lwip-2.0.2/src/core/ipv4/dhcp.c:1138:7
	cbnz	r0, .LBB24_4
.Ltmp405:
@ %bb.1:
	@DEBUG_VALUE: dhcp_renew:result <- $r8
	@DEBUG_VALUE: dhcp_renew:netif <- $r6
	@DEBUG_VALUE: dhcp_renew:dhcp <- $r4
	.loc	3 1139 5                        @ rt-thread/components/net/lwip-2.0.2/src/core/ipv4/dhcp.c:1139:5
	movs	r1, #57
	movs	r2, #2
	mov	r0, r4
	bl	dhcp_option
	.loc	3 1140 29                       @ rt-thread/components/net/lwip-2.0.2/src/core/ipv4/dhcp.c:1140:29
	ldrh	r1, [r6, #56]
	.loc	3 1140 5 is_stmt 0              @ rt-thread/components/net/lwip-2.0.2/src/core/ipv4/dhcp.c:1140:5
	mov	r0, r4
	bl	dhcp_option_short
	.loc	3 1142 5 is_stmt 1              @ rt-thread/components/net/lwip-2.0.2/src/core/ipv4/dhcp.c:1142:5
	movs	r1, #55
	movs	r2, #4
	mov	r0, r4
	bl	dhcp_option
	movw	r5, :lower16:dhcp_discover_request_options
	mov.w	r7, #-1
.Ltmp406:
	@DEBUG_VALUE: dhcp_renew:i <- 0
	.loc	3 0 5 is_stmt 0                 @ rt-thread/components/net/lwip-2.0.2/src/core/ipv4/dhcp.c:0:5
	movt	r5, :upper16:dhcp_discover_request_options
.Ltmp407:
	.p2align	2
.LBB24_2:                               @ =>This Inner Loop Header: Depth=1
	@DEBUG_VALUE: dhcp_renew:result <- $r8
	@DEBUG_VALUE: dhcp_renew:netif <- $r6
	@DEBUG_VALUE: dhcp_renew:dhcp <- $r4
	@DEBUG_VALUE: dhcp_renew:i <- [DW_OP_plus_uconst 1, DW_OP_stack_value] $r7
	.loc	3 1144 30 is_stmt 1             @ rt-thread/components/net/lwip-2.0.2/src/core/ipv4/dhcp.c:1144:30
	adds	r0, r5, r7
	ldrb	r1, [r0, #1]
	.loc	3 1144 7 is_stmt 0              @ rt-thread/components/net/lwip-2.0.2/src/core/ipv4/dhcp.c:1144:7
	mov	r0, r4
	bl	dhcp_option_byte
.Ltmp408:
	@DEBUG_VALUE: dhcp_renew:i <- [DW_OP_plus_uconst 2, DW_OP_stack_value] $r7
	.loc	3 1143 19 is_stmt 1             @ rt-thread/components/net/lwip-2.0.2/src/core/ipv4/dhcp.c:1143:19
	adds	r7, #1
.Ltmp409:
	.loc	3 1143 5 is_stmt 0              @ rt-thread/components/net/lwip-2.0.2/src/core/ipv4/dhcp.c:1143:5
	cmp	r7, #3
	bne	.LBB24_2
.Ltmp410:
@ %bb.3:
	@DEBUG_VALUE: dhcp_renew:result <- $r8
	@DEBUG_VALUE: dhcp_renew:netif <- $r6
	@DEBUG_VALUE: dhcp_renew:dhcp <- $r4
	.loc	3 1148 5 is_stmt 1              @ rt-thread/components/net/lwip-2.0.2/src/core/ipv4/dhcp.c:1148:5
	mov	r0, r4
	mov	r1, r6
	bl	dhcp_option_hostname
	.loc	3 1152 5                        @ rt-thread/components/net/lwip-2.0.2/src/core/ipv4/dhcp.c:1152:5
	mov	r0, r4
	bl	dhcp_option_trailer
	.loc	3 1154 82                       @ rt-thread/components/net/lwip-2.0.2/src/core/ipv4/dhcp.c:1154:82
	ldrh	r1, [r4, #20]
	.loc	3 1154 24 is_stmt 0             @ rt-thread/components/net/lwip-2.0.2/src/core/ipv4/dhcp.c:1154:24
	ldr	r0, [r4, #12]
	.loc	3 1154 74                       @ rt-thread/components/net/lwip-2.0.2/src/core/ipv4/dhcp.c:1154:74
	adds	r1, #240
	.loc	3 1154 5                        @ rt-thread/components/net/lwip-2.0.2/src/core/ipv4/dhcp.c:1154:5
	uxth	r1, r1
	bl	pbuf_realloc
	.loc	3 1156 19 is_stmt 1             @ rt-thread/components/net/lwip-2.0.2/src/core/ipv4/dhcp.c:1156:19
	movw	r0, :lower16:dhcp_pcb
	.loc	3 1156 35 is_stmt 0             @ rt-thread/components/net/lwip-2.0.2/src/core/ipv4/dhcp.c:1156:35
	ldr	r1, [r4, #12]
	.loc	3 1156 19                       @ rt-thread/components/net/lwip-2.0.2/src/core/ipv4/dhcp.c:1156:19
	movt	r0, :upper16:dhcp_pcb
	.loc	3 1156 49                       @ rt-thread/components/net/lwip-2.0.2/src/core/ipv4/dhcp.c:1156:49
	add.w	r2, r4, #36
	.loc	3 1156 5                        @ rt-thread/components/net/lwip-2.0.2/src/core/ipv4/dhcp.c:1156:5
	movs	r3, #67
	str	r6, [sp]
	.loc	3 1156 19                       @ rt-thread/components/net/lwip-2.0.2/src/core/ipv4/dhcp.c:1156:19
	ldr	r0, [r0]
	.loc	3 1156 5                        @ rt-thread/components/net/lwip-2.0.2/src/core/ipv4/dhcp.c:1156:5
	bl	udp_sendto_if
	.loc	3 1157 5 is_stmt 1              @ rt-thread/components/net/lwip-2.0.2/src/core/ipv4/dhcp.c:1157:5
	mov	r0, r4
	bl	dhcp_delete_msg
.Ltmp411:
.LBB24_4:
	@DEBUG_VALUE: dhcp_renew:result <- $r8
	@DEBUG_VALUE: dhcp_renew:netif <- $r6
	@DEBUG_VALUE: dhcp_renew:dhcp <- $r4
	.loc	3 1163 13                       @ rt-thread/components/net/lwip-2.0.2/src/core/ipv4/dhcp.c:1163:13
	ldrb	r0, [r4, #10]
	mov.w	r1, #2000
	movw	r2, #499
.Ltmp412:
	.loc	3 1163 7 is_stmt 0              @ rt-thread/components/net/lwip-2.0.2/src/core/ipv4/dhcp.c:1163:7
	cmp	r0, #255
.Ltmp413:
	.loc	3 1164 16 is_stmt 1             @ rt-thread/components/net/lwip-2.0.2/src/core/ipv4/dhcp.c:1164:16
	itt	ne
	addne	r0, #1
	strbne	r0, [r4, #10]
.Ltmp414:
	.loc	3 1167 17                       @ rt-thread/components/net/lwip-2.0.2/src/core/ipv4/dhcp.c:1167:17
	ldrb	r0, [r4, #10]
	.loc	3 1167 11 is_stmt 0             @ rt-thread/components/net/lwip-2.0.2/src/core/ipv4/dhcp.c:1167:11
	muls	r1, r0, r1
	cmp	r0, #10
	.loc	3 1170 3 is_stmt 1              @ rt-thread/components/net/lwip-2.0.2/src/core/ipv4/dhcp.c:1170:3
	mov	r0, r8
	.loc	3 1167 11                       @ rt-thread/components/net/lwip-2.0.2/src/core/ipv4/dhcp.c:1167:11
	uxtah	r1, r2, r1
	movw	r2, #19923
	movt	r2, #4194
	umull	r1, r2, r1, r2
	mov.w	r1, #40
	it	lo
	lsrlo	r1, r2, #5
.Ltmp415:
	@DEBUG_VALUE: dhcp_renew:msecs <- undef
	.loc	3 1168 25                       @ rt-thread/components/net/lwip-2.0.2/src/core/ipv4/dhcp.c:1168:25
	strh	r1, [r4, #22]
	.loc	3 1170 3                        @ rt-thread/components/net/lwip-2.0.2/src/core/ipv4/dhcp.c:1170:3
	add	sp, #8
	pop.w	{r4, r5, r6, r7, r8, pc}
.Ltmp416:
.Lfunc_end24:
	.size	dhcp_renew, .Lfunc_end24-dhcp_renew
	.cfi_endproc
	.cantunwind
	.fnend
                                        @ -- End function
	.section	.text.dhcp_option_byte,"ax",%progbits
	.p2align	3                               @ -- Begin function dhcp_option_byte
	.type	dhcp_option_byte,%function
	.code	16                              @ @dhcp_option_byte
	.thumb_func
dhcp_option_byte:
.Lfunc_begin25:
	.loc	3 1402 0                        @ rt-thread/components/net/lwip-2.0.2/src/core/ipv4/dhcp.c:1402:0
	.fnstart
	.cfi_startproc
@ %bb.0:
	@DEBUG_VALUE: dhcp_option_byte:dhcp <- $r0
	@DEBUG_VALUE: dhcp_option_byte:value <- $r1
	.save	{r4, r5, r7, lr}
	push	{r4, r5, r7, lr}
	.cfi_def_cfa_offset 16
	.cfi_offset lr, -4
	.cfi_offset r7, -8
	.cfi_offset r5, -12
	.cfi_offset r4, -16
	mov	r4, r0
.Ltmp417:
	@DEBUG_VALUE: dhcp_option_byte:value <- undef
	@DEBUG_VALUE: dhcp_option_byte:dhcp <- $r4
	.loc	3 1403 3 prologue_end           @ rt-thread/components/net/lwip-2.0.2/src/core/ipv4/dhcp.c:1403:3
	ldrh	r0, [r0, #20]
	mov	r5, r1
.Ltmp418:
	@DEBUG_VALUE: dhcp_option_byte:value <- $r5
	.loc	3 1403 3 is_stmt 0              @ rt-thread/components/net/lwip-2.0.2/src/core/ipv4/dhcp.c:1403:3
	cmp	r0, #68
	blo	.LBB25_2
.Ltmp419:
@ %bb.1:
	@DEBUG_VALUE: dhcp_option_byte:value <- $r5
	@DEBUG_VALUE: dhcp_option_byte:dhcp <- $r4
	.loc	3 1403 3                        @ rt-thread/components/net/lwip-2.0.2/src/core/ipv4/dhcp.c:1403:3
	adr	r0, .LCPI25_0
	bl	rt_kprintf
	movw	r0, :lower16:.L.str.1
	movw	r1, #1403
	movt	r0, :upper16:.L.str.1
	bl	sys_arch_assert
.Ltmp420:
.LBB25_2:
	@DEBUG_VALUE: dhcp_option_byte:value <- $r5
	@DEBUG_VALUE: dhcp_option_byte:dhcp <- $r4
	.loc	3 1404 47 is_stmt 1             @ rt-thread/components/net/lwip-2.0.2/src/core/ipv4/dhcp.c:1404:47
	ldrh	r0, [r4, #20]
	.loc	3 1404 9 is_stmt 0              @ rt-thread/components/net/lwip-2.0.2/src/core/ipv4/dhcp.c:1404:9
	ldr	r1, [r4, #16]
	.loc	3 1404 3                        @ rt-thread/components/net/lwip-2.0.2/src/core/ipv4/dhcp.c:1404:3
	add	r1, r0
	.loc	3 1404 47                       @ rt-thread/components/net/lwip-2.0.2/src/core/ipv4/dhcp.c:1404:47
	adds	r0, #1
	strh	r0, [r4, #20]
	.loc	3 1404 51                       @ rt-thread/components/net/lwip-2.0.2/src/core/ipv4/dhcp.c:1404:51
	strb.w	r5, [r1, #240]
	.loc	3 1405 1 is_stmt 1              @ rt-thread/components/net/lwip-2.0.2/src/core/ipv4/dhcp.c:1405:1
	pop	{r4, r5, r7, pc}
.Ltmp421:
	.p2align	2
@ %bb.3:
	.loc	3 0 1 is_stmt 0                 @ rt-thread/components/net/lwip-2.0.2/src/core/ipv4/dhcp.c:0:1
.LCPI25_0:
.L.str.22:
	.asciz	"dhcp_option_byte: dhcp->options_out_len < DHCP_OPTIONS_LEN\000"
.Lfunc_end25:
	.size	dhcp_option_byte, .Lfunc_end25-dhcp_option_byte
	.cfi_endproc
	.cantunwind
	.fnend
                                        @ -- End function
	.section	.text.dhcp_option_hostname,"ax",%progbits
	.p2align	3                               @ -- Begin function dhcp_option_hostname
	.type	dhcp_option_hostname,%function
	.code	16                              @ @dhcp_option_hostname
	.thumb_func
dhcp_option_hostname:
.Lfunc_begin26:
	.loc	3 1428 0 is_stmt 1              @ rt-thread/components/net/lwip-2.0.2/src/core/ipv4/dhcp.c:1428:0
	.fnstart
	.cfi_startproc
@ %bb.0:
	@DEBUG_VALUE: dhcp_option_hostname:dhcp <- $r0
	@DEBUG_VALUE: dhcp_option_hostname:netif <- $r1
	@DEBUG_VALUE: dhcp_option_hostname:netif <- $r1
	.save	{r4, r5, r6, r7, lr}
	push	{r4, r5, r6, r7, lr}
	.cfi_def_cfa_offset 20
	.cfi_offset lr, -4
	.cfi_offset r7, -8
	.cfi_offset r6, -12
	.cfi_offset r5, -16
	.cfi_offset r4, -20
	.pad	#4
	sub	sp, #4
	.cfi_def_cfa_offset 24
.Ltmp422:
	.loc	3 1429 14 prologue_end          @ rt-thread/components/net/lwip-2.0.2/src/core/ipv4/dhcp.c:1429:14
	ldr	r5, [r1, #52]
.Ltmp423:
	@DEBUG_VALUE: dhcp_option_hostname:dhcp <- $r0
	.loc	3 1429 7 is_stmt 0              @ rt-thread/components/net/lwip-2.0.2/src/core/ipv4/dhcp.c:1429:7
	cbz	r5, .LBB26_9
.Ltmp424:
@ %bb.1:
	@DEBUG_VALUE: dhcp_option_hostname:netif <- $r1
	@DEBUG_VALUE: dhcp_option_hostname:dhcp <- $r0
	.loc	3 0 7                           @ rt-thread/components/net/lwip-2.0.2/src/core/ipv4/dhcp.c:0:7
	mov	r4, r0
.Ltmp425:
	@DEBUG_VALUE: dhcp_option_hostname:dhcp <- $r4
	@DEBUG_VALUE: dhcp_option_hostname:dhcp <- $r4
	.loc	3 1430 22 is_stmt 1             @ rt-thread/components/net/lwip-2.0.2/src/core/ipv4/dhcp.c:1430:22
	mov	r0, r5
	bl	strlen
.Ltmp426:
	@DEBUG_VALUE: dhcp_option_hostname:netif <- [DW_OP_LLVM_entry_value 1] $r1
	@DEBUG_VALUE: namelen <- $r0
	.loc	3 1431 9                        @ rt-thread/components/net/lwip-2.0.2/src/core/ipv4/dhcp.c:1431:9
	cbz	r0, .LBB26_9
.Ltmp427:
@ %bb.2:
	@DEBUG_VALUE: dhcp_option_hostname:dhcp <- $r4
	@DEBUG_VALUE: namelen <- $r0
	@DEBUG_VALUE: dhcp_option_hostname:netif <- [DW_OP_LLVM_entry_value 1] $r1
	.loc	3 0 0 is_stmt 0                 @ rt-thread/components/net/lwip-2.0.2/src/core/ipv4/dhcp.c:0:0
	mov	r6, r0
.Ltmp428:
	@DEBUG_VALUE: namelen <- $r6
	@DEBUG_VALUE: namelen <- $r6
	@DEBUG_VALUE: p <- $r5
	.loc	3 1436 51 is_stmt 1             @ rt-thread/components/net/lwip-2.0.2/src/core/ipv4/dhcp.c:1436:51
	ldrh	r0, [r4, #20]
	.loc	3 1436 67 is_stmt 0             @ rt-thread/components/net/lwip-2.0.2/src/core/ipv4/dhcp.c:1436:67
	rsb.w	r7, r0, #65
.Ltmp429:
	@DEBUG_VALUE: available <- $r7
	.loc	3 1437 7 is_stmt 1              @ rt-thread/components/net/lwip-2.0.2/src/core/ipv4/dhcp.c:1437:7
	cmp	r6, r7
	bls	.LBB26_4
.Ltmp430:
@ %bb.3:
	@DEBUG_VALUE: available <- $r7
	@DEBUG_VALUE: namelen <- $r6
	@DEBUG_VALUE: p <- $r5
	@DEBUG_VALUE: dhcp_option_hostname:dhcp <- $r4
	@DEBUG_VALUE: dhcp_option_hostname:netif <- [DW_OP_LLVM_entry_value 1] $r1
	.loc	3 1437 7 is_stmt 0              @ rt-thread/components/net/lwip-2.0.2/src/core/ipv4/dhcp.c:1437:7
	movw	r0, :lower16:.L.str.25
	movt	r0, :upper16:.L.str.25
	bl	rt_kprintf
	movw	r0, :lower16:.L.str.1
	movw	r1, #1437
	movt	r0, :upper16:.L.str.1
	bl	sys_arch_assert
.Ltmp431:
.LBB26_4:
	@DEBUG_VALUE: available <- $r7
	@DEBUG_VALUE: namelen <- $r6
	@DEBUG_VALUE: p <- $r5
	@DEBUG_VALUE: dhcp_option_hostname:dhcp <- $r4
	@DEBUG_VALUE: dhcp_option_hostname:netif <- [DW_OP_LLVM_entry_value 1] $r1
	.loc	3 1438 13 is_stmt 1             @ rt-thread/components/net/lwip-2.0.2/src/core/ipv4/dhcp.c:1438:13
	cmp	r6, r7
	it	lo
	movlo	r7, r6
.Ltmp432:
	@DEBUG_VALUE: namelen <- $r7
	@DEBUG_VALUE: len <- $r7
	.loc	3 1439 7                        @ rt-thread/components/net/lwip-2.0.2/src/core/ipv4/dhcp.c:1439:7
	cmp.w	r7, #256
	blo	.LBB26_6
.Ltmp433:
@ %bb.5:
	@DEBUG_VALUE: len <- $r7
	@DEBUG_VALUE: namelen <- $r7
	@DEBUG_VALUE: p <- $r5
	@DEBUG_VALUE: dhcp_option_hostname:dhcp <- $r4
	@DEBUG_VALUE: dhcp_option_hostname:netif <- [DW_OP_LLVM_entry_value 1] $r1
	.loc	3 1439 7 is_stmt 0              @ rt-thread/components/net/lwip-2.0.2/src/core/ipv4/dhcp.c:1439:7
	movw	r0, :lower16:.L.str.25
	movt	r0, :upper16:.L.str.25
	bl	rt_kprintf
	movw	r0, :lower16:.L.str.1
	movw	r1, #1439
	movt	r0, :upper16:.L.str.1
	bl	sys_arch_assert
.Ltmp434:
.LBB26_6:
	@DEBUG_VALUE: len <- $r7
	@DEBUG_VALUE: namelen <- $r7
	@DEBUG_VALUE: p <- $r5
	@DEBUG_VALUE: dhcp_option_hostname:dhcp <- $r4
	@DEBUG_VALUE: dhcp_option_hostname:netif <- [DW_OP_LLVM_entry_value 1] $r1
	.loc	3 1440 7 is_stmt 1              @ rt-thread/components/net/lwip-2.0.2/src/core/ipv4/dhcp.c:1440:7
	uxtb	r2, r7
	movs	r1, #12
	mov	r0, r4
	bl	dhcp_option
.Ltmp435:
	@DEBUG_VALUE: len <- [DW_OP_constu 1, DW_OP_minus, DW_OP_stack_value] $r7
	@DEBUG_VALUE: p <- $r5
	.loc	3 1441 7                        @ rt-thread/components/net/lwip-2.0.2/src/core/ipv4/dhcp.c:1441:7
	cbz	r7, .LBB26_9
.Ltmp436:
@ %bb.7:
	@DEBUG_VALUE: len <- [DW_OP_constu 1, DW_OP_minus, DW_OP_stack_value] $r7
	@DEBUG_VALUE: namelen <- $r7
	@DEBUG_VALUE: p <- $r5
	@DEBUG_VALUE: dhcp_option_hostname:dhcp <- $r4
	@DEBUG_VALUE: dhcp_option_hostname:netif <- [DW_OP_LLVM_entry_value 1] $r1
	@DEBUG_VALUE: len <- [DW_OP_constu 1, DW_OP_minus, DW_OP_stack_value] $r7
	subs	r5, #1
.Ltmp437:
	.p2align	2
.LBB26_8:                               @ =>This Inner Loop Header: Depth=1
	@DEBUG_VALUE: len <- [DW_OP_constu 1, DW_OP_minus, DW_OP_stack_value] $r7
	@DEBUG_VALUE: dhcp_option_hostname:dhcp <- $r4
	@DEBUG_VALUE: dhcp_option_hostname:netif <- [DW_OP_LLVM_entry_value 1] $r1
	@DEBUG_VALUE: p <- [DW_OP_plus_uconst 1, DW_OP_stack_value] $r5
	@DEBUG_VALUE: len <- $r7
	.loc	3 1442 32                       @ rt-thread/components/net/lwip-2.0.2/src/core/ipv4/dhcp.c:1442:32
	ldrb	r1, [r5, #1]!
.Ltmp438:
	.loc	3 1442 9 is_stmt 0              @ rt-thread/components/net/lwip-2.0.2/src/core/ipv4/dhcp.c:1442:9
	mov	r0, r4
.Ltmp439:
	.loc	3 1441 17 is_stmt 1             @ rt-thread/components/net/lwip-2.0.2/src/core/ipv4/dhcp.c:1441:17
	subs	r7, #1
.Ltmp440:
	@DEBUG_VALUE: len <- $r7
	@DEBUG_VALUE: p <- [DW_OP_plus_uconst 2, DW_OP_stack_value] $r5
	.loc	3 1442 9                        @ rt-thread/components/net/lwip-2.0.2/src/core/ipv4/dhcp.c:1442:9
	bl	dhcp_option_byte
.Ltmp441:
	@DEBUG_VALUE: len <- [DW_OP_constu 1, DW_OP_minus, DW_OP_stack_value] $r7
	.loc	3 1441 7                        @ rt-thread/components/net/lwip-2.0.2/src/core/ipv4/dhcp.c:1441:7
	cmp	r7, #0
	bne	.LBB26_8
.Ltmp442:
.LBB26_9:
	.loc	3 1446 1                        @ rt-thread/components/net/lwip-2.0.2/src/core/ipv4/dhcp.c:1446:1
	add	sp, #4
	pop	{r4, r5, r6, r7, pc}
.Ltmp443:
.Lfunc_end26:
	.size	dhcp_option_hostname, .Lfunc_end26-dhcp_option_hostname
	.cfi_endproc
	.cantunwind
	.fnend
                                        @ -- End function
	.section	.text.dhcp_supplied_address,"ax",%progbits
	.hidden	dhcp_supplied_address           @ -- Begin function dhcp_supplied_address
	.globl	dhcp_supplied_address
	.p2align	3
	.type	dhcp_supplied_address,%function
	.code	16                              @ @dhcp_supplied_address
	.thumb_func
dhcp_supplied_address:
.Lfunc_begin27:
	.loc	3 1942 0                        @ rt-thread/components/net/lwip-2.0.2/src/core/ipv4/dhcp.c:1942:0
	.fnstart
	.cfi_startproc
@ %bb.0:
	@DEBUG_VALUE: dhcp_supplied_address:netif <- $r0
	@DEBUG_VALUE: dhcp_supplied_address:netif <- $r0
	.loc	3 1943 23 prologue_end          @ rt-thread/components/net/lwip-2.0.2/src/core/ipv4/dhcp.c:1943:23
	cbz	r0, .LBB27_3
.Ltmp444:
@ %bb.1:
	@DEBUG_VALUE: dhcp_supplied_address:netif <- $r0
	.loc	3 1943 27 is_stmt 0             @ rt-thread/components/net/lwip-2.0.2/src/core/ipv4/dhcp.c:1943:27
	ldr	r0, [r0, #40]
.Ltmp445:
	@DEBUG_VALUE: dhcp_supplied_address:netif <- [DW_OP_LLVM_entry_value 1] $r0
	.loc	3 1943 7                        @ rt-thread/components/net/lwip-2.0.2/src/core/ipv4/dhcp.c:1943:7
	cbz	r0, .LBB27_3
.Ltmp446:
@ %bb.2:
	@DEBUG_VALUE: dhcp_supplied_address:netif <- [DW_OP_LLVM_entry_value 1] $r0
	@DEBUG_VALUE: dhcp <- $r0
	.loc	3 1945 19 is_stmt 1             @ rt-thread/components/net/lwip-2.0.2/src/core/ipv4/dhcp.c:1945:19
	ldrb	r0, [r0, #9]
.Ltmp447:
	.loc	3 1945 25 is_stmt 0             @ rt-thread/components/net/lwip-2.0.2/src/core/ipv4/dhcp.c:1945:25
	sub.w	r1, r0, #10
	subs	r0, #5
	clz	r1, r1
	clz	r0, r0
	lsrs	r1, r1, #5
	lsrs	r0, r0, #5
	.loc	3 1945 46                       @ rt-thread/components/net/lwip-2.0.2/src/core/ipv4/dhcp.c:1945:46
	orrs	r0, r1
.Ltmp448:
	.loc	3 1948 1 is_stmt 1              @ rt-thread/components/net/lwip-2.0.2/src/core/ipv4/dhcp.c:1948:1
	bx	lr
.Ltmp449:
.LBB27_3:
	.loc	3 0 1 is_stmt 0                 @ rt-thread/components/net/lwip-2.0.2/src/core/ipv4/dhcp.c:0:1
	movs	r0, #0
	.loc	3 1948 1                        @ rt-thread/components/net/lwip-2.0.2/src/core/ipv4/dhcp.c:1948:1
	bx	lr
.Ltmp450:
.Lfunc_end27:
	.size	dhcp_supplied_address, .Lfunc_end27-dhcp_supplied_address
	.cfi_endproc
	.cantunwind
	.fnend
                                        @ -- End function
	.section	.text.dhcp_option_long,"ax",%progbits
	.p2align	3                               @ -- Begin function dhcp_option_long
	.type	dhcp_option_long,%function
	.code	16                              @ @dhcp_option_long
	.thumb_func
dhcp_option_long:
.Lfunc_begin28:
	.loc	3 1417 0 is_stmt 1              @ rt-thread/components/net/lwip-2.0.2/src/core/ipv4/dhcp.c:1417:0
	.fnstart
	.cfi_startproc
@ %bb.0:
	@DEBUG_VALUE: dhcp_option_long:dhcp <- $r0
	@DEBUG_VALUE: dhcp_option_long:value <- $r1
	.save	{r4, r5, r7, lr}
	push	{r4, r5, r7, lr}
	.cfi_def_cfa_offset 16
	.cfi_offset lr, -4
	.cfi_offset r7, -8
	.cfi_offset r5, -12
	.cfi_offset r4, -16
	mov	r4, r0
.Ltmp451:
	@DEBUG_VALUE: dhcp_option_long:dhcp <- $r4
	.loc	3 1418 3 prologue_end           @ rt-thread/components/net/lwip-2.0.2/src/core/ipv4/dhcp.c:1418:3
	ldrh	r0, [r0, #20]
	mov	r5, r1
.Ltmp452:
	@DEBUG_VALUE: dhcp_option_long:value <- $r5
	@DEBUG_VALUE: dhcp_option_long:value <- $r5
	.loc	3 1418 3 is_stmt 0              @ rt-thread/components/net/lwip-2.0.2/src/core/ipv4/dhcp.c:1418:3
	cmp	r0, #65
	blo	.LBB28_2
.Ltmp453:
@ %bb.1:
	@DEBUG_VALUE: dhcp_option_long:value <- $r5
	@DEBUG_VALUE: dhcp_option_long:dhcp <- $r4
	.loc	3 1418 3                        @ rt-thread/components/net/lwip-2.0.2/src/core/ipv4/dhcp.c:1418:3
	adr	r0, .LCPI28_0
	bl	rt_kprintf
	movw	r0, :lower16:.L.str.1
	movw	r1, #1418
	movt	r0, :upper16:.L.str.1
	bl	sys_arch_assert
.Ltmp454:
.LBB28_2:
	@DEBUG_VALUE: dhcp_option_long:value <- $r5
	@DEBUG_VALUE: dhcp_option_long:dhcp <- $r4
	.loc	3 1419 47 is_stmt 1             @ rt-thread/components/net/lwip-2.0.2/src/core/ipv4/dhcp.c:1419:47
	ldrh	r0, [r4, #20]
	.loc	3 1419 9 is_stmt 0              @ rt-thread/components/net/lwip-2.0.2/src/core/ipv4/dhcp.c:1419:9
	ldr	r1, [r4, #16]
	.loc	3 1419 47                       @ rt-thread/components/net/lwip-2.0.2/src/core/ipv4/dhcp.c:1419:47
	adds	r2, r0, #1
	strh	r2, [r4, #20]
	.loc	3 1419 3                        @ rt-thread/components/net/lwip-2.0.2/src/core/ipv4/dhcp.c:1419:3
	add	r0, r1
	.loc	3 1419 83                       @ rt-thread/components/net/lwip-2.0.2/src/core/ipv4/dhcp.c:1419:83
	lsrs	r1, r5, #24
	.loc	3 1419 51                       @ rt-thread/components/net/lwip-2.0.2/src/core/ipv4/dhcp.c:1419:51
	strb.w	r1, [r0, #240]
	.loc	3 1420 47 is_stmt 1             @ rt-thread/components/net/lwip-2.0.2/src/core/ipv4/dhcp.c:1420:47
	ldrh	r0, [r4, #20]
	.loc	3 1420 9 is_stmt 0              @ rt-thread/components/net/lwip-2.0.2/src/core/ipv4/dhcp.c:1420:9
	ldr	r1, [r4, #16]
	.loc	3 1420 47                       @ rt-thread/components/net/lwip-2.0.2/src/core/ipv4/dhcp.c:1420:47
	adds	r2, r0, #1
	strh	r2, [r4, #20]
	.loc	3 1420 3                        @ rt-thread/components/net/lwip-2.0.2/src/core/ipv4/dhcp.c:1420:3
	add	r0, r1
	.loc	3 1420 83                       @ rt-thread/components/net/lwip-2.0.2/src/core/ipv4/dhcp.c:1420:83
	lsrs	r1, r5, #16
	.loc	3 1420 51                       @ rt-thread/components/net/lwip-2.0.2/src/core/ipv4/dhcp.c:1420:51
	strb.w	r1, [r0, #240]
	.loc	3 1421 47 is_stmt 1             @ rt-thread/components/net/lwip-2.0.2/src/core/ipv4/dhcp.c:1421:47
	ldrh	r0, [r4, #20]
	.loc	3 1421 9 is_stmt 0              @ rt-thread/components/net/lwip-2.0.2/src/core/ipv4/dhcp.c:1421:9
	ldr	r1, [r4, #16]
	.loc	3 1421 47                       @ rt-thread/components/net/lwip-2.0.2/src/core/ipv4/dhcp.c:1421:47
	adds	r2, r0, #1
	strh	r2, [r4, #20]
	.loc	3 1421 3                        @ rt-thread/components/net/lwip-2.0.2/src/core/ipv4/dhcp.c:1421:3
	add	r0, r1
	.loc	3 1421 83                       @ rt-thread/components/net/lwip-2.0.2/src/core/ipv4/dhcp.c:1421:83
	lsrs	r1, r5, #8
	.loc	3 1421 51                       @ rt-thread/components/net/lwip-2.0.2/src/core/ipv4/dhcp.c:1421:51
	strb.w	r1, [r0, #240]
	.loc	3 1422 47 is_stmt 1             @ rt-thread/components/net/lwip-2.0.2/src/core/ipv4/dhcp.c:1422:47
	ldrh	r0, [r4, #20]
	.loc	3 1422 9 is_stmt 0              @ rt-thread/components/net/lwip-2.0.2/src/core/ipv4/dhcp.c:1422:9
	ldr	r1, [r4, #16]
	.loc	3 1422 3                        @ rt-thread/components/net/lwip-2.0.2/src/core/ipv4/dhcp.c:1422:3
	add	r1, r0
	.loc	3 1422 47                       @ rt-thread/components/net/lwip-2.0.2/src/core/ipv4/dhcp.c:1422:47
	adds	r0, #1
	strh	r0, [r4, #20]
	.loc	3 1422 51                       @ rt-thread/components/net/lwip-2.0.2/src/core/ipv4/dhcp.c:1422:51
	strb.w	r5, [r1, #240]
	.loc	3 1423 1 is_stmt 1              @ rt-thread/components/net/lwip-2.0.2/src/core/ipv4/dhcp.c:1423:1
	pop	{r4, r5, r7, pc}
.Ltmp455:
	.p2align	2
@ %bb.3:
	.loc	3 0 1 is_stmt 0                 @ rt-thread/components/net/lwip-2.0.2/src/core/ipv4/dhcp.c:0:1
.LCPI28_0:
.L.str.24:
	.asciz	"dhcp_option_long: dhcp->options_out_len + 4 <= DHCP_OPTIONS_LEN"
.Lfunc_end28:
	.size	dhcp_option_long, .Lfunc_end28-dhcp_option_long
	.cfi_endproc
	.cantunwind
	.fnend
                                        @ -- End function
	.section	.text.dhcp_select,"ax",%progbits
	.p2align	3                               @ -- Begin function dhcp_select
	.type	dhcp_select,%function
	.code	16                              @ @dhcp_select
	.thumb_func
dhcp_select:
.Lfunc_begin29:
	.loc	3 353 0 is_stmt 1               @ rt-thread/components/net/lwip-2.0.2/src/core/ipv4/dhcp.c:353:0
	.fnstart
	.cfi_startproc
@ %bb.0:
	@DEBUG_VALUE: dhcp_select:netif <- $r0
	.save	{r4, r5, r6, r7, lr}
	push	{r4, r5, r6, r7, lr}
	.cfi_def_cfa_offset 20
	.cfi_offset lr, -4
	.cfi_offset r7, -8
	.cfi_offset r6, -12
	.cfi_offset r5, -16
	.cfi_offset r4, -20
	.pad	#12
	sub	sp, #12
	.cfi_def_cfa_offset 32
.Ltmp456:
	.loc	3 354 23 prologue_end           @ rt-thread/components/net/lwip-2.0.2/src/core/ipv4/dhcp.c:354:23
	ldr	r4, [r0, #40]
.Ltmp457:
	@DEBUG_VALUE: dhcp_select:dhcp <- $r4
	.loc	3 0 23 is_stmt 0                @ rt-thread/components/net/lwip-2.0.2/src/core/ipv4/dhcp.c:0:23
	mov	r5, r0
.Ltmp458:
	@DEBUG_VALUE: dhcp_select:netif <- $r5
	@DEBUG_VALUE: dhcp_select:netif <- $r5
	.loc	3 360 3 is_stmt 1               @ rt-thread/components/net/lwip-2.0.2/src/core/ipv4/dhcp.c:360:3
	movs	r1, #1
	mov	r0, r4
	bl	dhcp_set_state
	.loc	3 363 12                        @ rt-thread/components/net/lwip-2.0.2/src/core/ipv4/dhcp.c:363:12
	movs	r2, #3
	mov	r0, r5
	mov	r1, r4
	bl	dhcp_create_msg
.Ltmp459:
	@DEBUG_VALUE: dhcp_select:result <- $r0
	.loc	3 364 7                         @ rt-thread/components/net/lwip-2.0.2/src/core/ipv4/dhcp.c:364:7
	cmp	r0, #0
	bne	.LBB29_4
.Ltmp460:
@ %bb.1:
	@DEBUG_VALUE: dhcp_select:netif <- $r5
	@DEBUG_VALUE: dhcp_select:dhcp <- $r4
	@DEBUG_VALUE: dhcp_select:result <- $r0
	.loc	3 365 5                         @ rt-thread/components/net/lwip-2.0.2/src/core/ipv4/dhcp.c:365:5
	movs	r1, #57
	movs	r2, #2
	mov	r0, r4
.Ltmp461:
	bl	dhcp_option
	.loc	3 366 29                        @ rt-thread/components/net/lwip-2.0.2/src/core/ipv4/dhcp.c:366:29
	ldrh	r1, [r5, #56]
	.loc	3 366 5 is_stmt 0               @ rt-thread/components/net/lwip-2.0.2/src/core/ipv4/dhcp.c:366:5
	mov	r0, r4
	bl	dhcp_option_short
	.loc	3 369 5 is_stmt 1               @ rt-thread/components/net/lwip-2.0.2/src/core/ipv4/dhcp.c:369:5
	movs	r1, #50
	movs	r2, #4
	mov	r0, r4
	bl	dhcp_option
	.loc	3 370 28                        @ rt-thread/components/net/lwip-2.0.2/src/core/ipv4/dhcp.c:370:28
	ldr	r0, [r4, #40]
	bl	lwip_htonl
	mov	r1, r0
	.loc	3 370 5 is_stmt 0               @ rt-thread/components/net/lwip-2.0.2/src/core/ipv4/dhcp.c:370:5
	mov	r0, r4
	bl	dhcp_option_long
	.loc	3 372 5 is_stmt 1               @ rt-thread/components/net/lwip-2.0.2/src/core/ipv4/dhcp.c:372:5
	movs	r1, #54
	movs	r2, #4
	mov	r0, r4
	bl	dhcp_option
	.loc	3 373 28                        @ rt-thread/components/net/lwip-2.0.2/src/core/ipv4/dhcp.c:373:28
	ldr	r0, [r4, #36]
	bl	lwip_htonl
	mov	r1, r0
	.loc	3 373 5 is_stmt 0               @ rt-thread/components/net/lwip-2.0.2/src/core/ipv4/dhcp.c:373:5
	mov	r0, r4
	bl	dhcp_option_long
	.loc	3 375 5 is_stmt 1               @ rt-thread/components/net/lwip-2.0.2/src/core/ipv4/dhcp.c:375:5
	movs	r1, #55
	movs	r2, #4
	mov	r0, r4
	bl	dhcp_option
	movw	r7, :lower16:dhcp_discover_request_options
	mov.w	r6, #-1
.Ltmp462:
	@DEBUG_VALUE: dhcp_select:i <- 0
	.loc	3 0 5 is_stmt 0                 @ rt-thread/components/net/lwip-2.0.2/src/core/ipv4/dhcp.c:0:5
	movt	r7, :upper16:dhcp_discover_request_options
.Ltmp463:
	.p2align	2
.LBB29_2:                               @ =>This Inner Loop Header: Depth=1
	@DEBUG_VALUE: dhcp_select:netif <- $r5
	@DEBUG_VALUE: dhcp_select:dhcp <- $r4
	@DEBUG_VALUE: dhcp_select:i <- [DW_OP_plus_uconst 1, DW_OP_stack_value] $r6
	.loc	3 377 30 is_stmt 1              @ rt-thread/components/net/lwip-2.0.2/src/core/ipv4/dhcp.c:377:30
	adds	r0, r7, r6
	ldrb	r1, [r0, #1]
	.loc	3 377 7 is_stmt 0               @ rt-thread/components/net/lwip-2.0.2/src/core/ipv4/dhcp.c:377:7
	mov	r0, r4
	bl	dhcp_option_byte
.Ltmp464:
	@DEBUG_VALUE: dhcp_select:i <- [DW_OP_plus_uconst 2, DW_OP_stack_value] $r6
	.loc	3 376 19 is_stmt 1              @ rt-thread/components/net/lwip-2.0.2/src/core/ipv4/dhcp.c:376:19
	adds	r6, #1
.Ltmp465:
	.loc	3 376 5 is_stmt 0               @ rt-thread/components/net/lwip-2.0.2/src/core/ipv4/dhcp.c:376:5
	cmp	r6, #3
	bne	.LBB29_2
.Ltmp466:
@ %bb.3:
	@DEBUG_VALUE: dhcp_select:netif <- $r5
	@DEBUG_VALUE: dhcp_select:dhcp <- $r4
	.loc	3 381 5 is_stmt 1               @ rt-thread/components/net/lwip-2.0.2/src/core/ipv4/dhcp.c:381:5
	mov	r0, r4
	mov	r1, r5
	bl	dhcp_option_hostname
	.loc	3 384 5                         @ rt-thread/components/net/lwip-2.0.2/src/core/ipv4/dhcp.c:384:5
	mov	r0, r4
	bl	dhcp_option_trailer
	.loc	3 386 82                        @ rt-thread/components/net/lwip-2.0.2/src/core/ipv4/dhcp.c:386:82
	ldrh	r1, [r4, #20]
	.loc	3 386 24 is_stmt 0              @ rt-thread/components/net/lwip-2.0.2/src/core/ipv4/dhcp.c:386:24
	ldr	r0, [r4, #12]
	.loc	3 386 74                        @ rt-thread/components/net/lwip-2.0.2/src/core/ipv4/dhcp.c:386:74
	adds	r1, #240
	.loc	3 386 5                         @ rt-thread/components/net/lwip-2.0.2/src/core/ipv4/dhcp.c:386:5
	uxth	r1, r1
	bl	pbuf_realloc
	.loc	3 389 23 is_stmt 1              @ rt-thread/components/net/lwip-2.0.2/src/core/ipv4/dhcp.c:389:23
	movw	r0, :lower16:dhcp_pcb
	.loc	3 389 5 is_stmt 0               @ rt-thread/components/net/lwip-2.0.2/src/core/ipv4/dhcp.c:389:5
	movw	r2, :lower16:ip_addr_broadcast
	.loc	3 389 23                        @ rt-thread/components/net/lwip-2.0.2/src/core/ipv4/dhcp.c:389:23
	movt	r0, :upper16:dhcp_pcb
	.loc	3 389 39                        @ rt-thread/components/net/lwip-2.0.2/src/core/ipv4/dhcp.c:389:39
	ldr	r1, [r4, #12]
	.loc	3 389 5                         @ rt-thread/components/net/lwip-2.0.2/src/core/ipv4/dhcp.c:389:5
	movw	r7, :lower16:ip_addr_any
	movt	r2, :upper16:ip_addr_broadcast
	.loc	3 389 23                        @ rt-thread/components/net/lwip-2.0.2/src/core/ipv4/dhcp.c:389:23
	ldr	r0, [r0]
	.loc	3 389 5                         @ rt-thread/components/net/lwip-2.0.2/src/core/ipv4/dhcp.c:389:5
	movs	r3, #67
	movt	r7, :upper16:ip_addr_any
	str	r5, [sp]
	str	r7, [sp, #4]
	bl	udp_sendto_if_src
	.loc	3 390 5 is_stmt 1               @ rt-thread/components/net/lwip-2.0.2/src/core/ipv4/dhcp.c:390:5
	mov	r0, r4
	bl	dhcp_delete_msg
.Ltmp467:
.LBB29_4:
	@DEBUG_VALUE: dhcp_select:netif <- $r5
	@DEBUG_VALUE: dhcp_select:dhcp <- $r4
	.loc	3 395 13                        @ rt-thread/components/net/lwip-2.0.2/src/core/ipv4/dhcp.c:395:13
	ldrb	r0, [r4, #10]
	mov.w	r1, #1000
	movw	r2, #499
.Ltmp468:
	.loc	3 395 7 is_stmt 0               @ rt-thread/components/net/lwip-2.0.2/src/core/ipv4/dhcp.c:395:7
	cmp	r0, #255
.Ltmp469:
	.loc	3 396 16 is_stmt 1              @ rt-thread/components/net/lwip-2.0.2/src/core/ipv4/dhcp.c:396:16
	itt	ne
	addne	r0, #1
	strbne	r0, [r4, #10]
.Ltmp470:
	.loc	3 398 18                        @ rt-thread/components/net/lwip-2.0.2/src/core/ipv4/dhcp.c:398:18
	ldrb	r0, [r4, #10]
	.loc	3 398 12 is_stmt 0              @ rt-thread/components/net/lwip-2.0.2/src/core/ipv4/dhcp.c:398:12
	lsls	r1, r0
	cmp	r0, #6
	uxtah	r1, r2, r1
	movw	r2, #19923
	movt	r2, #4194
	umull	r1, r2, r1, r2
	mov.w	r1, #120
	it	lo
	lsrlo	r1, r2, #5
.Ltmp471:
	@DEBUG_VALUE: dhcp_select:msecs <- undef
	.loc	3 399 25 is_stmt 1              @ rt-thread/components/net/lwip-2.0.2/src/core/ipv4/dhcp.c:399:25
	strh	r1, [r4, #22]
	.loc	3 401 3                         @ rt-thread/components/net/lwip-2.0.2/src/core/ipv4/dhcp.c:401:3
	add	sp, #12
	pop	{r4, r5, r6, r7, pc}
.Ltmp472:
.Lfunc_end29:
	.size	dhcp_select, .Lfunc_end29-dhcp_select
	.cfi_endproc
	.cantunwind
	.fnend
                                        @ -- End function
	.section	.text.dhcp_check,"ax",%progbits
	.p2align	3                               @ -- Begin function dhcp_check
	.type	dhcp_check,%function
	.code	16                              @ @dhcp_check
	.thumb_func
dhcp_check:
.Lfunc_begin30:
	.loc	3 292 0                         @ rt-thread/components/net/lwip-2.0.2/src/core/ipv4/dhcp.c:292:0
	.fnstart
	.cfi_startproc
@ %bb.0:
	@DEBUG_VALUE: dhcp_check:netif <- $r0
	.save	{r4, r5, r7, lr}
	push	{r4, r5, r7, lr}
	.cfi_def_cfa_offset 16
	.cfi_offset lr, -4
	.cfi_offset r7, -8
	.cfi_offset r5, -12
	.cfi_offset r4, -16
.Ltmp473:
	.loc	3 293 23 prologue_end           @ rt-thread/components/net/lwip-2.0.2/src/core/ipv4/dhcp.c:293:23
	ldr	r4, [r0, #40]
.Ltmp474:
	@DEBUG_VALUE: dhcp_check:dhcp <- $r4
	.loc	3 0 23 is_stmt 0                @ rt-thread/components/net/lwip-2.0.2/src/core/ipv4/dhcp.c:0:23
	mov	r5, r0
.Ltmp475:
	@DEBUG_VALUE: dhcp_check:netif <- $r5
	@DEBUG_VALUE: dhcp_check:netif <- $r5
	.loc	3 298 3 is_stmt 1               @ rt-thread/components/net/lwip-2.0.2/src/core/ipv4/dhcp.c:298:3
	movs	r1, #8
	mov	r0, r4
	bl	dhcp_set_state
	.loc	3 301 39                        @ rt-thread/components/net/lwip-2.0.2/src/core/ipv4/dhcp.c:301:39
	add.w	r1, r4, #40
	.loc	3 301 12 is_stmt 0              @ rt-thread/components/net/lwip-2.0.2/src/core/ipv4/dhcp.c:301:12
	movs	r2, #0
	mov	r0, r5
	bl	etharp_query
.Ltmp476:
	@DEBUG_VALUE: dhcp_check:result <- undef
	.loc	3 305 13 is_stmt 1              @ rt-thread/components/net/lwip-2.0.2/src/core/ipv4/dhcp.c:305:13
	ldrb	r0, [r4, #10]
.Ltmp477:
	.loc	3 305 7 is_stmt 0               @ rt-thread/components/net/lwip-2.0.2/src/core/ipv4/dhcp.c:305:7
	cmp	r0, #255
.Ltmp478:
	.loc	3 306 16 is_stmt 1              @ rt-thread/components/net/lwip-2.0.2/src/core/ipv4/dhcp.c:306:16
	itt	ne
	addne	r0, #1
	strbne	r0, [r4, #10]
.Ltmp479:
	@DEBUG_VALUE: dhcp_check:msecs <- 500
	.loc	3 0 16 is_stmt 0                @ rt-thread/components/net/lwip-2.0.2/src/core/ipv4/dhcp.c:0:16
	movs	r0, #1
.Ltmp480:
	.loc	3 309 25 is_stmt 1              @ rt-thread/components/net/lwip-2.0.2/src/core/ipv4/dhcp.c:309:25
	strh	r0, [r4, #22]
	.loc	3 311 1                         @ rt-thread/components/net/lwip-2.0.2/src/core/ipv4/dhcp.c:311:1
	pop	{r4, r5, r7, pc}
.Ltmp481:
.Lfunc_end30:
	.size	dhcp_check, .Lfunc_end30-dhcp_check
	.cfi_endproc
	.cantunwind
	.fnend
                                        @ -- End function
	.section	.text.dhcp_bind,"ax",%progbits
	.p2align	3                               @ -- Begin function dhcp_bind
	.type	dhcp_bind,%function
	.code	16                              @ @dhcp_bind
	.thumb_func
dhcp_bind:
.Lfunc_begin31:
	.loc	3 1018 0                        @ rt-thread/components/net/lwip-2.0.2/src/core/ipv4/dhcp.c:1018:0
	.fnstart
	.cfi_startproc
@ %bb.0:
	@DEBUG_VALUE: dhcp_bind:netif <- $r0
	@DEBUG_VALUE: dhcp_bind:netif <- $r0
	.save	{r4, r5, r7, lr}
	push	{r4, r5, r7, lr}
	.cfi_def_cfa_offset 16
	.cfi_offset lr, -4
	.cfi_offset r7, -8
	.cfi_offset r5, -12
	.cfi_offset r4, -16
	.pad	#8
	sub	sp, #8
	.cfi_def_cfa_offset 24
.Ltmp482:
	.loc	3 1022 3 prologue_end           @ rt-thread/components/net/lwip-2.0.2/src/core/ipv4/dhcp.c:1022:3
	cmp	r0, #0
	beq	.LBB31_12
.Ltmp483:
@ %bb.1:
	@DEBUG_VALUE: dhcp_bind:netif <- $r0
	.loc	3 1023 10                       @ rt-thread/components/net/lwip-2.0.2/src/core/ipv4/dhcp.c:1023:10
	ldr	r5, [r0, #40]
.Ltmp484:
	@DEBUG_VALUE: dhcp_bind:dhcp <- $r5
	.loc	3 0 10 is_stmt 0                @ rt-thread/components/net/lwip-2.0.2/src/core/ipv4/dhcp.c:0:10
	mov	r4, r0
.Ltmp485:
	@DEBUG_VALUE: dhcp_bind:netif <- $r4
	@DEBUG_VALUE: dhcp_bind:netif <- $r4
	.loc	3 1024 3 is_stmt 1              @ rt-thread/components/net/lwip-2.0.2/src/core/ipv4/dhcp.c:1024:3
	cmp	r5, #0
	beq	.LBB31_13
.Ltmp486:
@ %bb.2:
	@DEBUG_VALUE: dhcp_bind:dhcp <- $r5
	@DEBUG_VALUE: dhcp_bind:netif <- $r4
	.loc	3 1030 13                       @ rt-thread/components/net/lwip-2.0.2/src/core/ipv4/dhcp.c:1030:13
	ldr	r1, [r5, #52]
	movs	r0, #0
.Ltmp487:
	.loc	3 1028 20                       @ rt-thread/components/net/lwip-2.0.2/src/core/ipv4/dhcp.c:1028:20
	strh	r0, [r5, #32]
	movw	r0, #34953
	.loc	3 1030 7                        @ rt-thread/components/net/lwip-2.0.2/src/core/ipv4/dhcp.c:1030:7
	adds	r2, r1, #1
	movt	r0, #34952
	beq	.LBB31_4
.Ltmp488:
@ %bb.3:
	@DEBUG_VALUE: dhcp_bind:dhcp <- $r5
	@DEBUG_VALUE: dhcp_bind:netif <- $r4
	.loc	3 1033 40                       @ rt-thread/components/net/lwip-2.0.2/src/core/ipv4/dhcp.c:1033:40
	adds	r1, #30
	movw	r3, #65535
	.loc	3 1033 70 is_stmt 0             @ rt-thread/components/net/lwip-2.0.2/src/core/ipv4/dhcp.c:1033:70
	umull	r1, r2, r1, r0
	lsrs	r1, r2, #5
.Ltmp489:
	@DEBUG_VALUE: dhcp_bind:timeout <- $r1
	.loc	3 1034 10 is_stmt 1             @ rt-thread/components/net/lwip-2.0.2/src/core/ipv4/dhcp.c:1034:10
	cmp	r1, r3
	it	lo
	lsrlo	r3, r2, #5
.Ltmp490:
	@DEBUG_VALUE: dhcp_bind:timeout <- $r3
	.loc	3 1038 10                       @ rt-thread/components/net/lwip-2.0.2/src/core/ipv4/dhcp.c:1038:10
	cmp	r3, #0
	it	eq
	moveq	r3, #1
.Ltmp491:
	.loc	3 0 0 is_stmt 0                 @ rt-thread/components/net/lwip-2.0.2/src/core/ipv4/dhcp.c:0:0
	strh	r3, [r5, #34]
.Ltmp492:
.LBB31_4:
	@DEBUG_VALUE: dhcp_bind:dhcp <- $r5
	@DEBUG_VALUE: dhcp_bind:netif <- $r4
	.loc	3 1045 13 is_stmt 1             @ rt-thread/components/net/lwip-2.0.2/src/core/ipv4/dhcp.c:1045:13
	ldr	r1, [r5, #56]
.Ltmp493:
	.loc	3 1045 7 is_stmt 0              @ rt-thread/components/net/lwip-2.0.2/src/core/ipv4/dhcp.c:1045:7
	adds	r2, r1, #1
	beq	.LBB31_6
.Ltmp494:
@ %bb.5:
	@DEBUG_VALUE: dhcp_bind:dhcp <- $r5
	@DEBUG_VALUE: dhcp_bind:netif <- $r4
	.loc	3 1048 39 is_stmt 1             @ rt-thread/components/net/lwip-2.0.2/src/core/ipv4/dhcp.c:1048:39
	adds	r1, #30
	movw	r3, #65535
	.loc	3 1048 69 is_stmt 0             @ rt-thread/components/net/lwip-2.0.2/src/core/ipv4/dhcp.c:1048:69
	umull	r1, r2, r1, r0
	lsrs	r1, r2, #5
.Ltmp495:
	@DEBUG_VALUE: dhcp_bind:timeout <- $r1
	.loc	3 1049 9 is_stmt 1              @ rt-thread/components/net/lwip-2.0.2/src/core/ipv4/dhcp.c:1049:9
	cmp	r1, r3
	it	lo
	lsrlo	r3, r2, #5
.Ltmp496:
	@DEBUG_VALUE: dhcp_bind:timeout <- $r3
	.loc	3 1053 9                        @ rt-thread/components/net/lwip-2.0.2/src/core/ipv4/dhcp.c:1053:9
	cmp	r3, #0
	it	eq
	moveq	r3, #1
.Ltmp497:
	.loc	3 0 0 is_stmt 0                 @ rt-thread/components/net/lwip-2.0.2/src/core/ipv4/dhcp.c:0:0
	strh	r3, [r5, #24]
	.loc	3 1057 25 is_stmt 1             @ rt-thread/components/net/lwip-2.0.2/src/core/ipv4/dhcp.c:1057:25
	strh	r3, [r5, #28]
.Ltmp498:
.LBB31_6:
	@DEBUG_VALUE: dhcp_bind:dhcp <- $r5
	@DEBUG_VALUE: dhcp_bind:netif <- $r4
	.loc	3 1060 13                       @ rt-thread/components/net/lwip-2.0.2/src/core/ipv4/dhcp.c:1060:13
	ldr	r1, [r5, #60]
.Ltmp499:
	.loc	3 1060 7 is_stmt 0              @ rt-thread/components/net/lwip-2.0.2/src/core/ipv4/dhcp.c:1060:7
	adds	r2, r1, #1
	beq	.LBB31_8
.Ltmp500:
@ %bb.7:
	@DEBUG_VALUE: dhcp_bind:dhcp <- $r5
	@DEBUG_VALUE: dhcp_bind:netif <- $r4
	.loc	3 1062 40 is_stmt 1             @ rt-thread/components/net/lwip-2.0.2/src/core/ipv4/dhcp.c:1062:40
	adds	r1, #30
	movw	r2, #65535
	.loc	3 1062 70 is_stmt 0             @ rt-thread/components/net/lwip-2.0.2/src/core/ipv4/dhcp.c:1062:70
	umull	r0, r1, r1, r0
	lsrs	r0, r1, #5
.Ltmp501:
	@DEBUG_VALUE: dhcp_bind:timeout <- $r0
	.loc	3 1063 9 is_stmt 1              @ rt-thread/components/net/lwip-2.0.2/src/core/ipv4/dhcp.c:1063:9
	cmp	r0, r2
	it	lo
	lsrlo	r2, r1, #5
.Ltmp502:
	@DEBUG_VALUE: dhcp_bind:timeout <- $r2
	.loc	3 1067 9                        @ rt-thread/components/net/lwip-2.0.2/src/core/ipv4/dhcp.c:1067:9
	cmp	r2, #0
	it	eq
	moveq	r2, #1
.Ltmp503:
	.loc	3 0 0 is_stmt 0                 @ rt-thread/components/net/lwip-2.0.2/src/core/ipv4/dhcp.c:0:0
	strh	r2, [r5, #26]
	.loc	3 1071 26 is_stmt 1             @ rt-thread/components/net/lwip-2.0.2/src/core/ipv4/dhcp.c:1071:26
	strh	r2, [r5, #30]
.Ltmp504:
.LBB31_8:
	@DEBUG_VALUE: dhcp_bind:dhcp <- $r5
	@DEBUG_VALUE: dhcp_bind:netif <- $r4
	.loc	3 1075 34                       @ rt-thread/components/net/lwip-2.0.2/src/core/ipv4/dhcp.c:1075:34
	ldrh	r0, [r5, #26]
	.loc	3 1075 14 is_stmt 0             @ rt-thread/components/net/lwip-2.0.2/src/core/ipv4/dhcp.c:1075:14
	ldrh	r1, [r5, #24]
	.loc	3 1075 46                       @ rt-thread/components/net/lwip-2.0.2/src/core/ipv4/dhcp.c:1075:46
	subs	r0, #1
	uxth	r0, r0
	cmp	r0, r1
	bhs	.LBB31_10
.Ltmp505:
@ %bb.9:
	@DEBUG_VALUE: dhcp_bind:dhcp <- $r5
	@DEBUG_VALUE: dhcp_bind:netif <- $r4
	.loc	3 0 46                          @ rt-thread/components/net/lwip-2.0.2/src/core/ipv4/dhcp.c:0:46
	movs	r0, #0
.Ltmp506:
	.loc	3 1076 22 is_stmt 1             @ rt-thread/components/net/lwip-2.0.2/src/core/ipv4/dhcp.c:1076:22
	strh	r0, [r5, #24]
.Ltmp507:
.LBB31_10:
	@DEBUG_VALUE: dhcp_bind:dhcp <- $r5
	@DEBUG_VALUE: dhcp_bind:netif <- $r4
	.loc	3 1079 13                       @ rt-thread/components/net/lwip-2.0.2/src/core/ipv4/dhcp.c:1079:13
	ldrb	r0, [r5, #11]
.Ltmp508:
	.loc	3 1079 7 is_stmt 0              @ rt-thread/components/net/lwip-2.0.2/src/core/ipv4/dhcp.c:1079:7
	cbz	r0, .LBB31_15
.Ltmp509:
@ %bb.11:
	@DEBUG_VALUE: dhcp_bind:dhcp <- $r5
	@DEBUG_VALUE: dhcp_bind:netif <- $r4
	.loc	3 1081 5 is_stmt 1              @ rt-thread/components/net/lwip-2.0.2/src/core/ipv4/dhcp.c:1081:5
	ldr	r0, [r5, #44]
	b	.LBB31_20
.Ltmp510:
.LBB31_12:
	@DEBUG_VALUE: dhcp_bind:netif <- $r0
	.loc	3 1022 3                        @ rt-thread/components/net/lwip-2.0.2/src/core/ipv4/dhcp.c:1022:3
	adr	r0, .LCPI31_1
.Ltmp511:
	@DEBUG_VALUE: dhcp_bind:netif <- [DW_OP_LLVM_entry_value 1] $r0
	bl	rt_kprintf
	movw	r0, :lower16:.L.str.1
	movw	r1, #1022
	movt	r0, :upper16:.L.str.1
	b	.LBB31_14
.Ltmp512:
.LBB31_13:
	@DEBUG_VALUE: dhcp_bind:dhcp <- $r5
	@DEBUG_VALUE: dhcp_bind:netif <- $r4
	.loc	3 1024 3                        @ rt-thread/components/net/lwip-2.0.2/src/core/ipv4/dhcp.c:1024:3
	adr	r0, .LCPI31_0
	bl	rt_kprintf
	movw	r0, :lower16:.L.str.1
	mov.w	r1, #1024
	movt	r0, :upper16:.L.str.1
.Ltmp513:
.LBB31_14:
	.loc	3 0 0 is_stmt 0                 @ rt-thread/components/net/lwip-2.0.2/src/core/ipv4/dhcp.c:0:0
	bl	sys_arch_assert
	.loc	3 1118 1 is_stmt 1              @ rt-thread/components/net/lwip-2.0.2/src/core/ipv4/dhcp.c:1118:1
	add	sp, #8
	pop	{r4, r5, r7, pc}
.LBB31_15:
.Ltmp514:
	@DEBUG_VALUE: dhcp_bind:dhcp <- $r5
	@DEBUG_VALUE: dhcp_bind:netif <- $r4
	.loc	3 1084 24                       @ rt-thread/components/net/lwip-2.0.2/src/core/ipv4/dhcp.c:1084:24
	ldrsb.w	r0, [r5, #40]
.Ltmp515:
	@DEBUG_VALUE: first_octet <- $r0
	.loc	3 1085 9                        @ rt-thread/components/net/lwip-2.0.2/src/core/ipv4/dhcp.c:1085:9
	cmp	r0, #0
	bmi	.LBB31_17
.Ltmp516:
@ %bb.16:
	@DEBUG_VALUE: dhcp_bind:dhcp <- $r5
	@DEBUG_VALUE: dhcp_bind:netif <- $r4
	@DEBUG_VALUE: first_octet <- $r0
	.loc	3 0 9 is_stmt 0                 @ rt-thread/components/net/lwip-2.0.2/src/core/ipv4/dhcp.c:0:9
	movs	r0, #255
.Ltmp517:
	b	.LBB31_20
.Ltmp518:
.LBB31_17:
	@DEBUG_VALUE: dhcp_bind:dhcp <- $r5
	@DEBUG_VALUE: dhcp_bind:netif <- $r4
	@DEBUG_VALUE: first_octet <- $r0
	uxtb	r0, r0
.Ltmp519:
	.loc	3 1087 16 is_stmt 1             @ rt-thread/components/net/lwip-2.0.2/src/core/ipv4/dhcp.c:1087:16
	cmp	r0, #192
	blo	.LBB31_19
.Ltmp520:
@ %bb.18:
	@DEBUG_VALUE: dhcp_bind:dhcp <- $r5
	@DEBUG_VALUE: dhcp_bind:netif <- $r4
	.loc	3 0 16 is_stmt 0                @ rt-thread/components/net/lwip-2.0.2/src/core/ipv4/dhcp.c:0:16
	mvn	r0, #-16777216
	b	.LBB31_20
.Ltmp521:
.LBB31_19:
	@DEBUG_VALUE: dhcp_bind:dhcp <- $r5
	@DEBUG_VALUE: dhcp_bind:netif <- $r4
	movw	r0, #65535
.Ltmp522:
.LBB31_20:
	@DEBUG_VALUE: dhcp_bind:dhcp <- $r5
	@DEBUG_VALUE: dhcp_bind:netif <- $r4
	str	r0, [sp, #4]
.Ltmp523:
	.loc	3 1094 3 is_stmt 1              @ rt-thread/components/net/lwip-2.0.2/src/core/ipv4/dhcp.c:1094:3
	ldr	r0, [r5, #48]
	str	r0, [sp]
	.loc	3 1096 7                        @ rt-thread/components/net/lwip-2.0.2/src/core/ipv4/dhcp.c:1096:7
	cbnz	r0, .LBB31_22
.Ltmp524:
@ %bb.21:
	@DEBUG_VALUE: dhcp_bind:dhcp <- $r5
	@DEBUG_VALUE: dhcp_bind:netif <- $r4
	.loc	3 1098 5                        @ rt-thread/components/net/lwip-2.0.2/src/core/ipv4/dhcp.c:1098:5
	ldr	r0, [r5, #40]
	ldr	r1, [sp, #4]
	ands	r0, r1
.Ltmp525:
	.loc	3 1100 5                        @ rt-thread/components/net/lwip-2.0.2/src/core/ipv4/dhcp.c:1100:5
	orr	r0, r0, #16777216
	str	r0, [sp]
.Ltmp526:
.LBB31_22:
	@DEBUG_VALUE: dhcp_bind:dhcp <- $r5
	@DEBUG_VALUE: dhcp_bind:netif <- $r4
	.loc	3 1114 3                        @ rt-thread/components/net/lwip-2.0.2/src/core/ipv4/dhcp.c:1114:3
	movs	r1, #10
	mov	r0, r5
	bl	dhcp_set_state
	.loc	3 1116 32                       @ rt-thread/components/net/lwip-2.0.2/src/core/ipv4/dhcp.c:1116:32
	add.w	r1, r5, #40
	add	r2, sp, #4
	mov	r3, sp
	.loc	3 1116 3 is_stmt 0              @ rt-thread/components/net/lwip-2.0.2/src/core/ipv4/dhcp.c:1116:3
	mov	r0, r4
	bl	netif_set_addr
	.loc	3 1118 1 is_stmt 1              @ rt-thread/components/net/lwip-2.0.2/src/core/ipv4/dhcp.c:1118:1
	add	sp, #8
	pop	{r4, r5, r7, pc}
.Ltmp527:
	.p2align	2
@ %bb.23:
	.loc	3 0 1 is_stmt 0                 @ rt-thread/components/net/lwip-2.0.2/src/core/ipv4/dhcp.c:0:1
.LCPI31_0:
.L.str.9:
	.asciz	"dhcp_bind: dhcp != NULL"
.LCPI31_1:
.L.str.8:
	.asciz	"dhcp_bind: netif != NULL\000\000\000"
.Lfunc_end31:
	.size	dhcp_bind, .Lfunc_end31-dhcp_bind
	.cfi_endproc
	.cantunwind
	.fnend
                                        @ -- End function
	.section	.text.dhcp_rebind,"ax",%progbits
	.p2align	3                               @ -- Begin function dhcp_rebind
	.type	dhcp_rebind,%function
	.code	16                              @ @dhcp_rebind
	.thumb_func
dhcp_rebind:
.Lfunc_begin32:
	.loc	3 1180 0 is_stmt 1              @ rt-thread/components/net/lwip-2.0.2/src/core/ipv4/dhcp.c:1180:0
	.fnstart
	.cfi_startproc
@ %bb.0:
	@DEBUG_VALUE: dhcp_rebind:netif <- $r0
	.save	{r4, r5, r6, r7, lr}
	push	{r4, r5, r6, r7, lr}
	.cfi_def_cfa_offset 20
	.cfi_offset lr, -4
	.cfi_offset r7, -8
	.cfi_offset r6, -12
	.cfi_offset r5, -16
	.cfi_offset r4, -20
	.pad	#4
	sub	sp, #4
	.cfi_def_cfa_offset 24
.Ltmp528:
	.loc	3 1181 23 prologue_end          @ rt-thread/components/net/lwip-2.0.2/src/core/ipv4/dhcp.c:1181:23
	ldr	r4, [r0, #40]
.Ltmp529:
	@DEBUG_VALUE: dhcp_rebind:dhcp <- $r4
	.loc	3 0 23 is_stmt 0                @ rt-thread/components/net/lwip-2.0.2/src/core/ipv4/dhcp.c:0:23
	mov	r5, r0
.Ltmp530:
	@DEBUG_VALUE: dhcp_rebind:netif <- $r5
	@DEBUG_VALUE: dhcp_rebind:netif <- $r5
	.loc	3 1186 3 is_stmt 1              @ rt-thread/components/net/lwip-2.0.2/src/core/ipv4/dhcp.c:1186:3
	movs	r1, #4
	mov	r0, r4
	bl	dhcp_set_state
	.loc	3 1189 12                       @ rt-thread/components/net/lwip-2.0.2/src/core/ipv4/dhcp.c:1189:12
	movs	r2, #3
	mov	r0, r5
	mov	r1, r4
	bl	dhcp_create_msg
.Ltmp531:
	@DEBUG_VALUE: dhcp_rebind:result <- $r0
	.loc	3 1190 7                        @ rt-thread/components/net/lwip-2.0.2/src/core/ipv4/dhcp.c:1190:7
	cbnz	r0, .LBB32_4
.Ltmp532:
@ %bb.1:
	@DEBUG_VALUE: dhcp_rebind:netif <- $r5
	@DEBUG_VALUE: dhcp_rebind:dhcp <- $r4
	@DEBUG_VALUE: dhcp_rebind:result <- $r0
	.loc	3 1191 5                        @ rt-thread/components/net/lwip-2.0.2/src/core/ipv4/dhcp.c:1191:5
	movs	r1, #57
	movs	r2, #2
	mov	r0, r4
.Ltmp533:
	bl	dhcp_option
	.loc	3 1192 29                       @ rt-thread/components/net/lwip-2.0.2/src/core/ipv4/dhcp.c:1192:29
	ldrh	r1, [r5, #56]
	.loc	3 1192 5 is_stmt 0              @ rt-thread/components/net/lwip-2.0.2/src/core/ipv4/dhcp.c:1192:5
	mov	r0, r4
	bl	dhcp_option_short
	.loc	3 1194 5 is_stmt 1              @ rt-thread/components/net/lwip-2.0.2/src/core/ipv4/dhcp.c:1194:5
	movs	r1, #55
	movs	r2, #4
	mov	r0, r4
	bl	dhcp_option
	movw	r7, :lower16:dhcp_discover_request_options
	mov.w	r6, #-1
.Ltmp534:
	@DEBUG_VALUE: dhcp_rebind:i <- 0
	.loc	3 0 5 is_stmt 0                 @ rt-thread/components/net/lwip-2.0.2/src/core/ipv4/dhcp.c:0:5
	movt	r7, :upper16:dhcp_discover_request_options
.Ltmp535:
	.p2align	2
.LBB32_2:                               @ =>This Inner Loop Header: Depth=1
	@DEBUG_VALUE: dhcp_rebind:netif <- $r5
	@DEBUG_VALUE: dhcp_rebind:dhcp <- $r4
	@DEBUG_VALUE: dhcp_rebind:i <- [DW_OP_plus_uconst 1, DW_OP_stack_value] $r6
	.loc	3 1196 30 is_stmt 1             @ rt-thread/components/net/lwip-2.0.2/src/core/ipv4/dhcp.c:1196:30
	adds	r0, r7, r6
	ldrb	r1, [r0, #1]
	.loc	3 1196 7 is_stmt 0              @ rt-thread/components/net/lwip-2.0.2/src/core/ipv4/dhcp.c:1196:7
	mov	r0, r4
	bl	dhcp_option_byte
.Ltmp536:
	@DEBUG_VALUE: dhcp_rebind:i <- [DW_OP_plus_uconst 2, DW_OP_stack_value] $r6
	.loc	3 1195 19 is_stmt 1             @ rt-thread/components/net/lwip-2.0.2/src/core/ipv4/dhcp.c:1195:19
	adds	r6, #1
.Ltmp537:
	.loc	3 1195 5 is_stmt 0              @ rt-thread/components/net/lwip-2.0.2/src/core/ipv4/dhcp.c:1195:5
	cmp	r6, #3
	bne	.LBB32_2
.Ltmp538:
@ %bb.3:
	@DEBUG_VALUE: dhcp_rebind:netif <- $r5
	@DEBUG_VALUE: dhcp_rebind:dhcp <- $r4
	.loc	3 1200 5 is_stmt 1              @ rt-thread/components/net/lwip-2.0.2/src/core/ipv4/dhcp.c:1200:5
	mov	r0, r4
	mov	r1, r5
	bl	dhcp_option_hostname
	.loc	3 1203 5                        @ rt-thread/components/net/lwip-2.0.2/src/core/ipv4/dhcp.c:1203:5
	mov	r0, r4
	bl	dhcp_option_trailer
	.loc	3 1205 82                       @ rt-thread/components/net/lwip-2.0.2/src/core/ipv4/dhcp.c:1205:82
	ldrh	r1, [r4, #20]
	.loc	3 1205 24 is_stmt 0             @ rt-thread/components/net/lwip-2.0.2/src/core/ipv4/dhcp.c:1205:24
	ldr	r0, [r4, #12]
	.loc	3 1205 74                       @ rt-thread/components/net/lwip-2.0.2/src/core/ipv4/dhcp.c:1205:74
	adds	r1, #240
	.loc	3 1205 5                        @ rt-thread/components/net/lwip-2.0.2/src/core/ipv4/dhcp.c:1205:5
	uxth	r1, r1
	bl	pbuf_realloc
	.loc	3 1208 19 is_stmt 1             @ rt-thread/components/net/lwip-2.0.2/src/core/ipv4/dhcp.c:1208:19
	movw	r0, :lower16:dhcp_pcb
	.loc	3 1208 5 is_stmt 0              @ rt-thread/components/net/lwip-2.0.2/src/core/ipv4/dhcp.c:1208:5
	movw	r2, :lower16:ip_addr_broadcast
	.loc	3 1208 19                       @ rt-thread/components/net/lwip-2.0.2/src/core/ipv4/dhcp.c:1208:19
	movt	r0, :upper16:dhcp_pcb
	.loc	3 1208 35                       @ rt-thread/components/net/lwip-2.0.2/src/core/ipv4/dhcp.c:1208:35
	ldr	r1, [r4, #12]
	.loc	3 1208 5                        @ rt-thread/components/net/lwip-2.0.2/src/core/ipv4/dhcp.c:1208:5
	movt	r2, :upper16:ip_addr_broadcast
	movs	r3, #67
	.loc	3 1208 19                       @ rt-thread/components/net/lwip-2.0.2/src/core/ipv4/dhcp.c:1208:19
	ldr	r0, [r0]
	.loc	3 1208 5                        @ rt-thread/components/net/lwip-2.0.2/src/core/ipv4/dhcp.c:1208:5
	str	r5, [sp]
	bl	udp_sendto_if
	.loc	3 1209 5 is_stmt 1              @ rt-thread/components/net/lwip-2.0.2/src/core/ipv4/dhcp.c:1209:5
	mov	r0, r4
	bl	dhcp_delete_msg
.Ltmp539:
.LBB32_4:
	@DEBUG_VALUE: dhcp_rebind:netif <- $r5
	@DEBUG_VALUE: dhcp_rebind:dhcp <- $r4
	.loc	3 1214 13                       @ rt-thread/components/net/lwip-2.0.2/src/core/ipv4/dhcp.c:1214:13
	ldrb	r0, [r4, #10]
	mov.w	r1, #1000
	movw	r2, #499
.Ltmp540:
	.loc	3 1214 7 is_stmt 0              @ rt-thread/components/net/lwip-2.0.2/src/core/ipv4/dhcp.c:1214:7
	cmp	r0, #255
.Ltmp541:
	.loc	3 1215 16 is_stmt 1             @ rt-thread/components/net/lwip-2.0.2/src/core/ipv4/dhcp.c:1215:16
	itt	ne
	addne	r0, #1
	strbne	r0, [r4, #10]
.Ltmp542:
	.loc	3 1217 17                       @ rt-thread/components/net/lwip-2.0.2/src/core/ipv4/dhcp.c:1217:17
	ldrb	r0, [r4, #10]
	.loc	3 1217 11 is_stmt 0             @ rt-thread/components/net/lwip-2.0.2/src/core/ipv4/dhcp.c:1217:11
	muls	r1, r0, r1
	cmp	r0, #10
	uxtah	r1, r2, r1
	movw	r2, #19923
	movt	r2, #4194
	umull	r1, r2, r1, r2
	mov.w	r1, #20
	it	lo
	lsrlo	r1, r2, #5
.Ltmp543:
	@DEBUG_VALUE: dhcp_rebind:msecs <- undef
	.loc	3 1218 25 is_stmt 1             @ rt-thread/components/net/lwip-2.0.2/src/core/ipv4/dhcp.c:1218:25
	strh	r1, [r4, #22]
	.loc	3 1220 3                        @ rt-thread/components/net/lwip-2.0.2/src/core/ipv4/dhcp.c:1220:3
	add	sp, #4
	pop	{r4, r5, r6, r7, pc}
.Ltmp544:
.Lfunc_end32:
	.size	dhcp_rebind, .Lfunc_end32-dhcp_rebind
	.cfi_endproc
	.cantunwind
	.fnend
                                        @ -- End function
	.section	.text.dhcp_recv,"ax",%progbits
	.p2align	3                               @ -- Begin function dhcp_recv
	.type	dhcp_recv,%function
	.code	16                              @ @dhcp_recv
	.thumb_func
dhcp_recv:
.Lfunc_begin33:
	.loc	3 1679 0                        @ rt-thread/components/net/lwip-2.0.2/src/core/ipv4/dhcp.c:1679:0
	.fnstart
	.cfi_startproc
@ %bb.0:
	@DEBUG_VALUE: dhcp_recv:arg <- $r0
	@DEBUG_VALUE: dhcp_recv:pcb <- $r1
	@DEBUG_VALUE: dhcp_recv:p <- $r2
	@DEBUG_VALUE: dhcp_recv:addr <- $r3
	.save	{r4, r5, r6, r7, r8, lr}
	push.w	{r4, r5, r6, r7, r8, lr}
	.cfi_def_cfa_offset 24
	.cfi_offset lr, -4
	.cfi_offset r8, -8
	.cfi_offset r7, -12
	.cfi_offset r6, -16
	.cfi_offset r5, -20
	.cfi_offset r4, -24
.Ltmp545:
	@DEBUG_VALUE: dhcp_recv:port <- [DW_OP_plus_uconst 24] [$sp+0]
	.loc	3 1680 25 prologue_end          @ rt-thread/components/net/lwip-2.0.2/src/core/ipv4/dhcp.c:1680:25
	movw	r0, :lower16:ip_data
.Ltmp546:
	@DEBUG_VALUE: dhcp_recv:arg <- [DW_OP_LLVM_entry_value 1] $r0
	.loc	3 0 25 is_stmt 0                @ rt-thread/components/net/lwip-2.0.2/src/core/ipv4/dhcp.c:0:25
	mov	r4, r2
.Ltmp547:
	@DEBUG_VALUE: dhcp_recv:p <- $r4
	@DEBUG_VALUE: dhcp_recv:p <- $r4
	.loc	3 1680 25                       @ rt-thread/components/net/lwip-2.0.2/src/core/ipv4/dhcp.c:1680:25
	movt	r0, :upper16:ip_data
	ldr	r6, [r0, #4]
.Ltmp548:
	@DEBUG_VALUE: dhcp_recv:netif <- $r6
	.loc	3 1681 23 is_stmt 1             @ rt-thread/components/net/lwip-2.0.2/src/core/ipv4/dhcp.c:1681:23
	ldr	r5, [r6, #40]
.Ltmp549:
	@DEBUG_VALUE: dhcp_recv:reply_msg <- undef
	@DEBUG_VALUE: dhcp_recv:dhcp <- $r5
	.loc	3 1689 22                       @ rt-thread/components/net/lwip-2.0.2/src/core/ipv4/dhcp.c:1689:22
	cmp	r5, #0
	beq.w	.LBB33_30
.Ltmp550:
@ %bb.1:
	@DEBUG_VALUE: dhcp_recv:netif <- $r6
	@DEBUG_VALUE: dhcp_recv:dhcp <- $r5
	@DEBUG_VALUE: dhcp_recv:p <- $r4
	@DEBUG_VALUE: dhcp_recv:addr <- $r3
	@DEBUG_VALUE: dhcp_recv:pcb <- $r1
	@DEBUG_VALUE: dhcp_recv:port <- [DW_OP_plus_uconst 24] [$sp+0]
	@DEBUG_VALUE: dhcp_recv:arg <- [DW_OP_LLVM_entry_value 1] $r0
	@DEBUG_VALUE: dhcp_recv:reply_msg <- undef
	.loc	3 1689 32 is_stmt 0             @ rt-thread/components/net/lwip-2.0.2/src/core/ipv4/dhcp.c:1689:32
	ldrb	r0, [r5, #8]
.Ltmp551:
	.loc	3 1689 7                        @ rt-thread/components/net/lwip-2.0.2/src/core/ipv4/dhcp.c:1689:7
	cmp	r0, #0
	beq	.LBB33_29
.Ltmp552:
@ %bb.2:
	@DEBUG_VALUE: dhcp_recv:netif <- $r6
	@DEBUG_VALUE: dhcp_recv:dhcp <- $r5
	@DEBUG_VALUE: dhcp_recv:p <- $r4
	@DEBUG_VALUE: dhcp_recv:addr <- $r3
	@DEBUG_VALUE: dhcp_recv:pcb <- $r1
	@DEBUG_VALUE: dhcp_recv:port <- [DW_OP_plus_uconst 24] [$sp+0]
	@DEBUG_VALUE: dhcp_recv:arg <- [DW_OP_LLVM_entry_value 1] $r0
	.loc	3 1704 3 is_stmt 1              @ rt-thread/components/net/lwip-2.0.2/src/core/ipv4/dhcp.c:1704:3
	ldr	r0, [r5, #4]
.Ltmp553:
	.loc	3 0 0 is_stmt 0                 @ rt-thread/components/net/lwip-2.0.2/src/core/ipv4/dhcp.c:0:0
	ldr.w	r8, [r4, #4]
.Ltmp554:
	@DEBUG_VALUE: dhcp_recv:reply_msg <- $r8
	.loc	3 1704 3                        @ rt-thread/components/net/lwip-2.0.2/src/core/ipv4/dhcp.c:1704:3
	cbz	r0, .LBB33_4
.Ltmp555:
@ %bb.3:
	@DEBUG_VALUE: dhcp_recv:reply_msg <- $r8
	@DEBUG_VALUE: dhcp_recv:netif <- $r6
	@DEBUG_VALUE: dhcp_recv:dhcp <- $r5
	@DEBUG_VALUE: dhcp_recv:p <- $r4
	@DEBUG_VALUE: dhcp_recv:addr <- $r3
	@DEBUG_VALUE: dhcp_recv:pcb <- $r1
	@DEBUG_VALUE: dhcp_recv:port <- [DW_OP_plus_uconst 24] [$sp+0]
	@DEBUG_VALUE: dhcp_recv:arg <- [DW_OP_LLVM_entry_value 1] $r0
	.loc	3 1704 3                        @ rt-thread/components/net/lwip-2.0.2/src/core/ipv4/dhcp.c:1704:3
	movw	r0, :lower16:.L.str.6
	movt	r0, :upper16:.L.str.6
	bl	rt_kprintf
.Ltmp556:
	@DEBUG_VALUE: dhcp_recv:addr <- [DW_OP_LLVM_entry_value 1] $r3
	@DEBUG_VALUE: dhcp_recv:pcb <- [DW_OP_LLVM_entry_value 1] $r1
	movw	r0, :lower16:.L.str.1
	mov.w	r1, #1704
	movt	r0, :upper16:.L.str.1
	bl	sys_arch_assert
.Ltmp557:
.LBB33_4:
	@DEBUG_VALUE: dhcp_recv:reply_msg <- $r8
	@DEBUG_VALUE: dhcp_recv:netif <- $r6
	@DEBUG_VALUE: dhcp_recv:dhcp <- $r5
	@DEBUG_VALUE: dhcp_recv:p <- $r4
	@DEBUG_VALUE: dhcp_recv:port <- [DW_OP_plus_uconst 24] [$sp+0]
	@DEBUG_VALUE: dhcp_recv:arg <- [DW_OP_LLVM_entry_value 1] $r0
	.loc	3 1706 10 is_stmt 1             @ rt-thread/components/net/lwip-2.0.2/src/core/ipv4/dhcp.c:1706:10
	ldrh	r0, [r4, #10]
.Ltmp558:
	.loc	3 1706 7 is_stmt 0              @ rt-thread/components/net/lwip-2.0.2/src/core/ipv4/dhcp.c:1706:7
	cmp	r0, #44
	blo	.LBB33_29
.Ltmp559:
@ %bb.5:
	@DEBUG_VALUE: dhcp_recv:reply_msg <- $r8
	@DEBUG_VALUE: dhcp_recv:netif <- $r6
	@DEBUG_VALUE: dhcp_recv:dhcp <- $r5
	@DEBUG_VALUE: dhcp_recv:p <- $r4
	@DEBUG_VALUE: dhcp_recv:port <- [DW_OP_plus_uconst 24] [$sp+0]
	@DEBUG_VALUE: dhcp_recv:arg <- [DW_OP_LLVM_entry_value 1] $r0
	.loc	3 1711 18 is_stmt 1             @ rt-thread/components/net/lwip-2.0.2/src/core/ipv4/dhcp.c:1711:18
	ldrb.w	r0, [r8]
.Ltmp560:
	.loc	3 1711 7 is_stmt 0              @ rt-thread/components/net/lwip-2.0.2/src/core/ipv4/dhcp.c:1711:7
	cmp	r0, #2
	bne	.LBB33_29
.Ltmp561:
@ %bb.6:
	@DEBUG_VALUE: dhcp_recv:reply_msg <- $r8
	@DEBUG_VALUE: dhcp_recv:netif <- $r6
	@DEBUG_VALUE: dhcp_recv:dhcp <- $r5
	@DEBUG_VALUE: dhcp_recv:p <- $r4
	@DEBUG_VALUE: dhcp_recv:port <- [DW_OP_plus_uconst 24] [$sp+0]
	@DEBUG_VALUE: dhcp_recv:arg <- [DW_OP_LLVM_entry_value 1] $r0
	@DEBUG_VALUE: dhcp_recv:i <- 0
	.loc	3 1716 26 is_stmt 1             @ rt-thread/components/net/lwip-2.0.2/src/core/ipv4/dhcp.c:1716:26
	ldrb.w	r0, [r6, #58]
	.loc	3 1716 37 is_stmt 0             @ rt-thread/components/net/lwip-2.0.2/src/core/ipv4/dhcp.c:1716:37
	cbz	r0, .LBB33_11
.Ltmp562:
@ %bb.7:
	@DEBUG_VALUE: dhcp_recv:reply_msg <- $r8
	@DEBUG_VALUE: dhcp_recv:netif <- $r6
	@DEBUG_VALUE: dhcp_recv:dhcp <- $r5
	@DEBUG_VALUE: dhcp_recv:p <- $r4
	@DEBUG_VALUE: dhcp_recv:port <- [DW_OP_plus_uconst 24] [$sp+0]
	@DEBUG_VALUE: dhcp_recv:i <- 0
	@DEBUG_VALUE: dhcp_recv:arg <- [DW_OP_LLVM_entry_value 1] $r0
	.loc	3 1716 3                        @ rt-thread/components/net/lwip-2.0.2/src/core/ipv4/dhcp.c:1716:3
	add.w	r0, r6, #59
	add.w	r1, r8, #28
	movs	r2, #0
.Ltmp563:
	.p2align	2
.LBB33_8:                               @ =>This Inner Loop Header: Depth=1
	@DEBUG_VALUE: dhcp_recv:reply_msg <- $r8
	@DEBUG_VALUE: dhcp_recv:netif <- $r6
	@DEBUG_VALUE: dhcp_recv:dhcp <- $r5
	@DEBUG_VALUE: dhcp_recv:p <- $r4
	@DEBUG_VALUE: dhcp_recv:port <- [DW_OP_plus_uconst 24] [$sp+0]
	@DEBUG_VALUE: dhcp_recv:arg <- [DW_OP_LLVM_entry_value 1] $r0
	@DEBUG_VALUE: dhcp_recv:i <- $r2
	.loc	3 1717 9 is_stmt 1              @ rt-thread/components/net/lwip-2.0.2/src/core/ipv4/dhcp.c:1717:9
	ldrb	r3, [r0]
	.loc	3 1717 29 is_stmt 0             @ rt-thread/components/net/lwip-2.0.2/src/core/ipv4/dhcp.c:1717:29
	ldrb	r7, [r1]
.Ltmp564:
	@DEBUG_VALUE: dhcp_recv:i <- undef
	.loc	3 1717 9                        @ rt-thread/components/net/lwip-2.0.2/src/core/ipv4/dhcp.c:1717:9
	cmp	r3, r7
	bne	.LBB33_29
.Ltmp565:
@ %bb.9:                                @   in Loop: Header=BB33_8 Depth=1
	@DEBUG_VALUE: dhcp_recv:reply_msg <- $r8
	@DEBUG_VALUE: dhcp_recv:netif <- $r6
	@DEBUG_VALUE: dhcp_recv:dhcp <- $r5
	@DEBUG_VALUE: dhcp_recv:p <- $r4
	@DEBUG_VALUE: dhcp_recv:port <- [DW_OP_plus_uconst 24] [$sp+0]
	@DEBUG_VALUE: dhcp_recv:arg <- [DW_OP_LLVM_entry_value 1] $r0
	@DEBUG_VALUE: dhcp_recv:i <- $r2
	.loc	3 1716 37 is_stmt 1             @ rt-thread/components/net/lwip-2.0.2/src/core/ipv4/dhcp.c:1716:37
	cmp	r2, #4
	bhi	.LBB33_11
.Ltmp566:
@ %bb.10:                               @   in Loop: Header=BB33_8 Depth=1
	@DEBUG_VALUE: dhcp_recv:reply_msg <- $r8
	@DEBUG_VALUE: dhcp_recv:netif <- $r6
	@DEBUG_VALUE: dhcp_recv:dhcp <- $r5
	@DEBUG_VALUE: dhcp_recv:p <- $r4
	@DEBUG_VALUE: dhcp_recv:i <- $r2
	@DEBUG_VALUE: dhcp_recv:port <- [DW_OP_plus_uconst 24] [$sp+0]
	@DEBUG_VALUE: dhcp_recv:arg <- [DW_OP_LLVM_entry_value 1] $r0
	.loc	3 0 0 is_stmt 0                 @ rt-thread/components/net/lwip-2.0.2/src/core/ipv4/dhcp.c:0:0
	ldrb.w	r3, [r6, #58]
.Ltmp567:
	adds	r2, #1
.Ltmp568:
	@DEBUG_VALUE: dhcp_recv:i <- $r2
	.loc	3 1716 37                       @ rt-thread/components/net/lwip-2.0.2/src/core/ipv4/dhcp.c:1716:37
	adds	r0, #1
	adds	r1, #1
	cmp	r2, r3
	blo	.LBB33_8
.Ltmp569:
.LBB33_11:
	@DEBUG_VALUE: dhcp_recv:reply_msg <- $r8
	@DEBUG_VALUE: dhcp_recv:netif <- $r6
	@DEBUG_VALUE: dhcp_recv:dhcp <- $r5
	@DEBUG_VALUE: dhcp_recv:p <- $r4
	@DEBUG_VALUE: dhcp_recv:port <- [DW_OP_plus_uconst 24] [$sp+0]
	@DEBUG_VALUE: dhcp_recv:arg <- [DW_OP_LLVM_entry_value 1] $r0
	.loc	3 1725 7 is_stmt 1              @ rt-thread/components/net/lwip-2.0.2/src/core/ipv4/dhcp.c:1725:7
	ldr.w	r0, [r8, #4]
	bl	lwip_htonl
	.loc	3 1725 43 is_stmt 0             @ rt-thread/components/net/lwip-2.0.2/src/core/ipv4/dhcp.c:1725:43
	ldr	r1, [r5]
.Ltmp570:
	.loc	3 1725 7                        @ rt-thread/components/net/lwip-2.0.2/src/core/ipv4/dhcp.c:1725:7
	cmp	r0, r1
	bne	.LBB33_29
.Ltmp571:
@ %bb.12:
	@DEBUG_VALUE: dhcp_recv:reply_msg <- $r8
	@DEBUG_VALUE: dhcp_recv:netif <- $r6
	@DEBUG_VALUE: dhcp_recv:dhcp <- $r5
	@DEBUG_VALUE: dhcp_recv:p <- $r4
	@DEBUG_VALUE: dhcp_recv:port <- [DW_OP_plus_uconst 24] [$sp+0]
	@DEBUG_VALUE: dhcp_recv:arg <- [DW_OP_LLVM_entry_value 1] $r0
	.loc	3 1731 7 is_stmt 1              @ rt-thread/components/net/lwip-2.0.2/src/core/ipv4/dhcp.c:1731:7
	mov	r0, r5
	mov	r1, r4
	bl	dhcp_parse_reply
.Ltmp572:
	.loc	3 1731 7 is_stmt 0              @ rt-thread/components/net/lwip-2.0.2/src/core/ipv4/dhcp.c:1731:7
	cmp	r0, #0
	bne	.LBB33_29
.Ltmp573:
@ %bb.13:
	@DEBUG_VALUE: dhcp_recv:reply_msg <- $r8
	@DEBUG_VALUE: dhcp_recv:netif <- $r6
	@DEBUG_VALUE: dhcp_recv:dhcp <- $r5
	@DEBUG_VALUE: dhcp_recv:p <- $r4
	@DEBUG_VALUE: dhcp_recv:port <- [DW_OP_plus_uconst 24] [$sp+0]
	@DEBUG_VALUE: dhcp_recv:arg <- [DW_OP_LLVM_entry_value 1] $r0
	.loc	3 0 7                           @ rt-thread/components/net/lwip-2.0.2/src/core/ipv4/dhcp.c:0:7
	movw	r0, :lower16:dhcp_rx_options_given
	movt	r0, :upper16:dhcp_rx_options_given
	ldrb	r0, [r0, #1]
	.loc	3 1731 7                        @ rt-thread/components/net/lwip-2.0.2/src/core/ipv4/dhcp.c:1731:7
	cbz	r0, .LBB33_29
.Ltmp574:
@ %bb.14:
	@DEBUG_VALUE: dhcp_recv:reply_msg <- $r8
	@DEBUG_VALUE: dhcp_recv:netif <- $r6
	@DEBUG_VALUE: dhcp_recv:dhcp <- $r5
	@DEBUG_VALUE: dhcp_recv:p <- $r4
	@DEBUG_VALUE: dhcp_recv:port <- [DW_OP_plus_uconst 24] [$sp+0]
	@DEBUG_VALUE: dhcp_recv:arg <- [DW_OP_LLVM_entry_value 1] $r0
	.loc	3 1745 20 is_stmt 1             @ rt-thread/components/net/lwip-2.0.2/src/core/ipv4/dhcp.c:1745:20
	movw	r0, :lower16:dhcp_rx_options_val
	movt	r0, :upper16:dhcp_rx_options_val
	ldrb	r0, [r0, #4]
.Ltmp575:
	@DEBUG_VALUE: dhcp_recv:msg_type <- $r0
	.loc	3 1747 7                        @ rt-thread/components/net/lwip-2.0.2/src/core/ipv4/dhcp.c:1747:7
	cmp	r0, #2
	beq	.LBB33_27
.Ltmp576:
@ %bb.15:
	@DEBUG_VALUE: dhcp_recv:reply_msg <- $r8
	@DEBUG_VALUE: dhcp_recv:netif <- $r6
	@DEBUG_VALUE: dhcp_recv:dhcp <- $r5
	@DEBUG_VALUE: dhcp_recv:p <- $r4
	@DEBUG_VALUE: dhcp_recv:msg_type <- $r0
	@DEBUG_VALUE: dhcp_recv:port <- [DW_OP_plus_uconst 24] [$sp+0]
	@DEBUG_VALUE: dhcp_recv:arg <- [DW_OP_LLVM_entry_value 1] $r0
	cmp	r0, #6
	beq	.LBB33_20
.Ltmp577:
@ %bb.16:
	@DEBUG_VALUE: dhcp_recv:reply_msg <- $r8
	@DEBUG_VALUE: dhcp_recv:netif <- $r6
	@DEBUG_VALUE: dhcp_recv:dhcp <- $r5
	@DEBUG_VALUE: dhcp_recv:p <- $r4
	@DEBUG_VALUE: dhcp_recv:msg_type <- $r0
	@DEBUG_VALUE: dhcp_recv:port <- [DW_OP_plus_uconst 24] [$sp+0]
	@DEBUG_VALUE: dhcp_recv:arg <- [DW_OP_LLVM_entry_value 1] $r0
	cmp	r0, #5
	bne	.LBB33_29
.Ltmp578:
@ %bb.17:
	@DEBUG_VALUE: dhcp_recv:reply_msg <- $r8
	@DEBUG_VALUE: dhcp_recv:netif <- $r6
	@DEBUG_VALUE: dhcp_recv:dhcp <- $r5
	@DEBUG_VALUE: dhcp_recv:p <- $r4
	@DEBUG_VALUE: dhcp_recv:msg_type <- $r0
	@DEBUG_VALUE: dhcp_recv:port <- [DW_OP_plus_uconst 24] [$sp+0]
	@DEBUG_VALUE: dhcp_recv:arg <- [DW_OP_LLVM_entry_value 1] $r0
	.loc	3 1750 15                       @ rt-thread/components/net/lwip-2.0.2/src/core/ipv4/dhcp.c:1750:15
	ldrb	r0, [r5, #9]
.Ltmp579:
	.loc	3 1750 9 is_stmt 0              @ rt-thread/components/net/lwip-2.0.2/src/core/ipv4/dhcp.c:1750:9
	subs	r1, r0, #3
	cmp	r1, #3
	bhs	.LBB33_23
.Ltmp580:
@ %bb.18:
	@DEBUG_VALUE: dhcp_recv:reply_msg <- $r8
	@DEBUG_VALUE: dhcp_recv:netif <- $r6
	@DEBUG_VALUE: dhcp_recv:dhcp <- $r5
	@DEBUG_VALUE: dhcp_recv:p <- $r4
	@DEBUG_VALUE: dhcp_recv:port <- [DW_OP_plus_uconst 24] [$sp+0]
	@DEBUG_VALUE: dhcp_recv:arg <- [DW_OP_LLVM_entry_value 1] $r0
	.loc	3 1768 7 is_stmt 1              @ rt-thread/components/net/lwip-2.0.2/src/core/ipv4/dhcp.c:1768:7
	mov	r0, r6
	bl	dhcp_handle_ack
.Ltmp581:
.LBB33_19:
	@DEBUG_VALUE: dhcp_recv:reply_msg <- $r8
	@DEBUG_VALUE: dhcp_recv:netif <- $r6
	@DEBUG_VALUE: dhcp_recv:dhcp <- $r5
	@DEBUG_VALUE: dhcp_recv:p <- $r4
	@DEBUG_VALUE: dhcp_recv:port <- [DW_OP_plus_uconst 24] [$sp+0]
	@DEBUG_VALUE: dhcp_recv:arg <- [DW_OP_LLVM_entry_value 1] $r0
	.loc	3 0 0 is_stmt 0                 @ rt-thread/components/net/lwip-2.0.2/src/core/ipv4/dhcp.c:0:0
	mov	r0, r6
	bl	dhcp_bind
	b	.LBB33_29
.Ltmp582:
.LBB33_20:
	@DEBUG_VALUE: dhcp_recv:reply_msg <- $r8
	@DEBUG_VALUE: dhcp_recv:netif <- $r6
	@DEBUG_VALUE: dhcp_recv:dhcp <- $r5
	@DEBUG_VALUE: dhcp_recv:p <- $r4
	@DEBUG_VALUE: dhcp_recv:msg_type <- $r0
	@DEBUG_VALUE: dhcp_recv:port <- [DW_OP_plus_uconst 24] [$sp+0]
	@DEBUG_VALUE: dhcp_recv:arg <- [DW_OP_LLVM_entry_value 1] $r0
	.loc	3 1774 13 is_stmt 1             @ rt-thread/components/net/lwip-2.0.2/src/core/ipv4/dhcp.c:1774:13
	ldrb	r1, [r5, #9]
	.loc	3 1774 44 is_stmt 0             @ rt-thread/components/net/lwip-2.0.2/src/core/ipv4/dhcp.c:1774:44
	cmp	r1, #5
	bhi	.LBB33_26
.Ltmp583:
@ %bb.21:
	@DEBUG_VALUE: dhcp_recv:reply_msg <- $r8
	@DEBUG_VALUE: dhcp_recv:netif <- $r6
	@DEBUG_VALUE: dhcp_recv:dhcp <- $r5
	@DEBUG_VALUE: dhcp_recv:p <- $r4
	@DEBUG_VALUE: dhcp_recv:msg_type <- $r0
	@DEBUG_VALUE: dhcp_recv:port <- [DW_OP_plus_uconst 24] [$sp+0]
	@DEBUG_VALUE: dhcp_recv:arg <- [DW_OP_LLVM_entry_value 1] $r0
	.loc	3 0 44                          @ rt-thread/components/net/lwip-2.0.2/src/core/ipv4/dhcp.c:0:44
	movs	r2, #1
	lsl.w	r1, r2, r1
	tst.w	r1, #58
	beq	.LBB33_26
.Ltmp584:
@ %bb.22:
	@DEBUG_VALUE: dhcp_recv:reply_msg <- $r8
	@DEBUG_VALUE: dhcp_recv:netif <- $r6
	@DEBUG_VALUE: dhcp_recv:dhcp <- $r5
	@DEBUG_VALUE: dhcp_recv:p <- $r4
	@DEBUG_VALUE: dhcp_recv:msg_type <- $r0
	@DEBUG_VALUE: dhcp_recv:port <- [DW_OP_plus_uconst 24] [$sp+0]
	@DEBUG_VALUE: dhcp_recv:arg <- [DW_OP_LLVM_entry_value 1] $r0
	.loc	3 1777 5 is_stmt 1              @ rt-thread/components/net/lwip-2.0.2/src/core/ipv4/dhcp.c:1777:5
	mov	r0, r6
.Ltmp585:
	bl	dhcp_handle_nak
	b	.LBB33_29
.Ltmp586:
.LBB33_23:
	@DEBUG_VALUE: dhcp_recv:reply_msg <- $r8
	@DEBUG_VALUE: dhcp_recv:netif <- $r6
	@DEBUG_VALUE: dhcp_recv:dhcp <- $r5
	@DEBUG_VALUE: dhcp_recv:p <- $r4
	@DEBUG_VALUE: dhcp_recv:port <- [DW_OP_plus_uconst 24] [$sp+0]
	@DEBUG_VALUE: dhcp_recv:arg <- [DW_OP_LLVM_entry_value 1] $r0
	.loc	3 1750 9                        @ rt-thread/components/net/lwip-2.0.2/src/core/ipv4/dhcp.c:1750:9
	cmp	r0, #1
	bne	.LBB33_29
.Ltmp587:
@ %bb.24:
	@DEBUG_VALUE: dhcp_recv:reply_msg <- $r8
	@DEBUG_VALUE: dhcp_recv:netif <- $r6
	@DEBUG_VALUE: dhcp_recv:dhcp <- $r5
	@DEBUG_VALUE: dhcp_recv:p <- $r4
	@DEBUG_VALUE: dhcp_recv:port <- [DW_OP_plus_uconst 24] [$sp+0]
	@DEBUG_VALUE: dhcp_recv:arg <- [DW_OP_LLVM_entry_value 1] $r0
	.loc	3 1751 7                        @ rt-thread/components/net/lwip-2.0.2/src/core/ipv4/dhcp.c:1751:7
	mov	r0, r6
	bl	dhcp_handle_ack
.Ltmp588:
	.loc	3 1753 19                       @ rt-thread/components/net/lwip-2.0.2/src/core/ipv4/dhcp.c:1753:19
	ldrb.w	r0, [r6, #65]
.Ltmp589:
	.loc	3 1753 11 is_stmt 0             @ rt-thread/components/net/lwip-2.0.2/src/core/ipv4/dhcp.c:1753:11
	lsls	r0, r0, #28
	bpl	.LBB33_19
.Ltmp590:
@ %bb.25:
	@DEBUG_VALUE: dhcp_recv:reply_msg <- $r8
	@DEBUG_VALUE: dhcp_recv:netif <- $r6
	@DEBUG_VALUE: dhcp_recv:dhcp <- $r5
	@DEBUG_VALUE: dhcp_recv:p <- $r4
	@DEBUG_VALUE: dhcp_recv:port <- [DW_OP_plus_uconst 24] [$sp+0]
	@DEBUG_VALUE: dhcp_recv:arg <- [DW_OP_LLVM_entry_value 1] $r0
	.loc	3 1755 9 is_stmt 1              @ rt-thread/components/net/lwip-2.0.2/src/core/ipv4/dhcp.c:1755:9
	mov	r0, r6
	bl	dhcp_check
	b	.LBB33_29
.Ltmp591:
.LBB33_26:
	@DEBUG_VALUE: dhcp_recv:reply_msg <- $r8
	@DEBUG_VALUE: dhcp_recv:netif <- $r6
	@DEBUG_VALUE: dhcp_recv:dhcp <- $r5
	@DEBUG_VALUE: dhcp_recv:p <- $r4
	@DEBUG_VALUE: dhcp_recv:msg_type <- $r0
	@DEBUG_VALUE: dhcp_recv:port <- [DW_OP_plus_uconst 24] [$sp+0]
	@DEBUG_VALUE: dhcp_recv:arg <- [DW_OP_LLVM_entry_value 1] $r0
	.loc	3 1780 37                       @ rt-thread/components/net/lwip-2.0.2/src/core/ipv4/dhcp.c:1780:37
	cmp	r0, #2
	bne	.LBB33_29
.Ltmp592:
.LBB33_27:
	@DEBUG_VALUE: dhcp_recv:reply_msg <- $r8
	@DEBUG_VALUE: dhcp_recv:netif <- $r6
	@DEBUG_VALUE: dhcp_recv:dhcp <- $r5
	@DEBUG_VALUE: dhcp_recv:p <- $r4
	@DEBUG_VALUE: dhcp_recv:msg_type <- $r0
	@DEBUG_VALUE: dhcp_recv:port <- [DW_OP_plus_uconst 24] [$sp+0]
	@DEBUG_VALUE: dhcp_recv:arg <- [DW_OP_LLVM_entry_value 1] $r0
	.loc	3 1780 47 is_stmt 0             @ rt-thread/components/net/lwip-2.0.2/src/core/ipv4/dhcp.c:1780:47
	ldrb	r0, [r5, #9]
.Ltmp593:
	.loc	3 1780 12                       @ rt-thread/components/net/lwip-2.0.2/src/core/ipv4/dhcp.c:1780:12
	cmp	r0, #6
	bne	.LBB33_29
.Ltmp594:
@ %bb.28:
	@DEBUG_VALUE: dhcp_recv:reply_msg <- $r8
	@DEBUG_VALUE: dhcp_recv:netif <- $r6
	@DEBUG_VALUE: dhcp_recv:dhcp <- $r5
	@DEBUG_VALUE: dhcp_recv:p <- $r4
	@DEBUG_VALUE: dhcp_recv:port <- [DW_OP_plus_uconst 24] [$sp+0]
	@DEBUG_VALUE: dhcp_recv:arg <- [DW_OP_LLVM_entry_value 1] $r0
	.loc	3 0 12                          @ rt-thread/components/net/lwip-2.0.2/src/core/ipv4/dhcp.c:0:12
	movs	r0, #0
.Ltmp595:
	.loc	3 1782 27 is_stmt 1             @ rt-thread/components/net/lwip-2.0.2/src/core/ipv4/dhcp.c:1782:27
	strh	r0, [r5, #22]
	.loc	3 1784 5                        @ rt-thread/components/net/lwip-2.0.2/src/core/ipv4/dhcp.c:1784:5
	mov	r0, r6
	bl	dhcp_handle_offer
.Ltmp596:
.LBB33_29:
	@DEBUG_VALUE: dhcp_recv:netif <- $r6
	@DEBUG_VALUE: dhcp_recv:dhcp <- $r5
	@DEBUG_VALUE: dhcp_recv:p <- $r4
	@DEBUG_VALUE: dhcp_recv:port <- [DW_OP_plus_uconst 24] [$sp+0]
	@DEBUG_VALUE: dhcp_recv:arg <- [DW_OP_LLVM_entry_value 1] $r0
	@DEBUG_LABEL: dhcp_recv:free_pbuf_and_return
	.loc	3 0 5 is_stmt 0                 @ rt-thread/components/net/lwip-2.0.2/src/core/ipv4/dhcp.c:0:5
	movs	r0, #0
.Ltmp597:
	.loc	3 1789 18 is_stmt 1             @ rt-thread/components/net/lwip-2.0.2/src/core/ipv4/dhcp.c:1789:18
	str	r0, [r5, #4]
.Ltmp598:
.LBB33_30:
	@DEBUG_VALUE: dhcp_recv:netif <- $r6
	@DEBUG_VALUE: dhcp_recv:dhcp <- $r5
	@DEBUG_VALUE: dhcp_recv:p <- $r4
	@DEBUG_VALUE: dhcp_recv:port <- [DW_OP_plus_uconst 24] [$sp+0]
	@DEBUG_VALUE: dhcp_recv:arg <- [DW_OP_LLVM_entry_value 1] $r0
	.loc	3 1791 3                        @ rt-thread/components/net/lwip-2.0.2/src/core/ipv4/dhcp.c:1791:3
	mov	r0, r4
	bl	pbuf_free
	.loc	3 1792 1                        @ rt-thread/components/net/lwip-2.0.2/src/core/ipv4/dhcp.c:1792:1
	pop.w	{r4, r5, r6, r7, r8, pc}
.Ltmp599:
.Lfunc_end33:
	.size	dhcp_recv, .Lfunc_end33-dhcp_recv
	.cfi_endproc
	.cantunwind
	.fnend
                                        @ -- End function
	.section	.text.dhcp_parse_reply,"ax",%progbits
	.p2align	3                               @ -- Begin function dhcp_parse_reply
	.type	dhcp_parse_reply,%function
	.code	16                              @ @dhcp_parse_reply
	.thumb_func
dhcp_parse_reply:
.Lfunc_begin34:
	.loc	3 1461 0                        @ rt-thread/components/net/lwip-2.0.2/src/core/ipv4/dhcp.c:1461:0
	.fnstart
	.cfi_startproc
@ %bb.0:
	@DEBUG_VALUE: dhcp_parse_reply:dhcp <- $r0
	@DEBUG_VALUE: dhcp_parse_reply:p <- $r1
	@DEBUG_VALUE: dhcp_parse_reply:p <- $r1
	.save	{r4, r5, r6, r7, r8, r9, r10, r11, lr}
	push.w	{r4, r5, r6, r7, r8, r9, r10, r11, lr}
	.cfi_def_cfa_offset 36
	.cfi_offset lr, -4
	.cfi_offset r11, -8
	.cfi_offset r10, -12
	.cfi_offset r9, -16
	.cfi_offset r8, -20
	.cfi_offset r7, -24
	.cfi_offset r6, -28
	.cfi_offset r5, -32
	.cfi_offset r4, -36
	.pad	#36
	sub	sp, #36
	.cfi_def_cfa_offset 72
.Ltmp600:
	.loc	3 1472 3 prologue_end           @ rt-thread/components/net/lwip-2.0.2/src/core/ipv4/dhcp.c:1472:3
	movw	r5, :lower16:dhcp_rx_options_given
.Ltmp601:
	.loc	3 1474 10                       @ rt-thread/components/net/lwip-2.0.2/src/core/ipv4/dhcp.c:1474:10
	ldrh	r3, [r1, #10]
.Ltmp602:
	.loc	3 1472 3                        @ rt-thread/components/net/lwip-2.0.2/src/core/ipv4/dhcp.c:1472:3
	movt	r5, :upper16:dhcp_rx_options_given
	movs	r2, #0
	.loc	3 1474 7                        @ rt-thread/components/net/lwip-2.0.2/src/core/ipv4/dhcp.c:1474:7
	cmp	r3, #44
.Ltmp603:
	@DEBUG_VALUE: dhcp_parse_reply:parse_sname_as_options <- 0
	@DEBUG_VALUE: dhcp_parse_reply:parse_file_as_options <- 0
	@DEBUG_VALUE: dhcp_parse_reply:dhcp <- $r0
	.loc	3 1472 3                        @ rt-thread/components/net/lwip-2.0.2/src/core/ipv4/dhcp.c:1472:3
	strh	r2, [r5, #8]
	strd	r2, r2, [r5]
	.loc	3 1474 7                        @ rt-thread/components/net/lwip-2.0.2/src/core/ipv4/dhcp.c:1474:7
	bhs	.LBB34_2
.Ltmp604:
@ %bb.1:
	@DEBUG_VALUE: dhcp_parse_reply:p <- $r1
	@DEBUG_VALUE: dhcp_parse_reply:dhcp <- $r0
	@DEBUG_VALUE: dhcp_parse_reply:parse_file_as_options <- 0
	@DEBUG_VALUE: dhcp_parse_reply:parse_sname_as_options <- 0
	.loc	3 0 7 is_stmt 0                 @ rt-thread/components/net/lwip-2.0.2/src/core/ipv4/dhcp.c:0:7
	movs	r0, #254
.Ltmp605:
	@DEBUG_VALUE: dhcp_parse_reply:dhcp <- [DW_OP_LLVM_entry_value 1] $r0
	b	.LBB34_101
.Ltmp606:
.LBB34_2:
	@DEBUG_VALUE: dhcp_parse_reply:p <- $r1
	@DEBUG_VALUE: dhcp_parse_reply:dhcp <- $r0
	@DEBUG_VALUE: dhcp_parse_reply:parse_file_as_options <- 0
	@DEBUG_VALUE: dhcp_parse_reply:parse_sname_as_options <- 0
	@DEBUG_LABEL: dhcp_parse_reply:again
	.loc	3 1491 22 is_stmt 1             @ rt-thread/components/net/lwip-2.0.2/src/core/ipv4/dhcp.c:1491:22
	cmp	r1, #0
	.loc	3 1477 40                       @ rt-thread/components/net/lwip-2.0.2/src/core/ipv4/dhcp.c:1477:40
	ldr	r2, [r1, #4]
	.loc	3 1477 16 is_stmt 0             @ rt-thread/components/net/lwip-2.0.2/src/core/ipv4/dhcp.c:1477:16
	str	r2, [r0, #4]
.Ltmp607:
	@DEBUG_VALUE: dhcp_parse_reply:q <- $r1
	@DEBUG_VALUE: dhcp_parse_reply:options_idx_max <- undef
	@DEBUG_VALUE: dhcp_parse_reply:options_idx <- 240
	@DEBUG_VALUE: dhcp_parse_reply:parse_sname_as_options <- 0
	@DEBUG_VALUE: dhcp_parse_reply:parse_file_as_options <- 0
	.loc	3 1491 22 is_stmt 1             @ rt-thread/components/net/lwip-2.0.2/src/core/ipv4/dhcp.c:1491:22
	beq.w	.LBB34_99
.Ltmp608:
@ %bb.3:
	@DEBUG_VALUE: dhcp_parse_reply:q <- $r1
	@DEBUG_VALUE: dhcp_parse_reply:p <- $r1
	@DEBUG_VALUE: dhcp_parse_reply:dhcp <- $r0
	@DEBUG_VALUE: dhcp_parse_reply:options_idx <- 240
	@DEBUG_VALUE: dhcp_parse_reply:parse_file_as_options <- 0
	@DEBUG_VALUE: dhcp_parse_reply:parse_sname_as_options <- 0
	.loc	3 1488 24                       @ rt-thread/components/net/lwip-2.0.2/src/core/ipv4/dhcp.c:1488:24
	ldrh	r6, [r1, #8]
	movs	r7, #240
.Ltmp609:
	@DEBUG_VALUE: dhcp_parse_reply:options_idx_max <- undef
                                        @ implicit-def: $r12
	.loc	3 0 24 is_stmt 0                @ rt-thread/components/net/lwip-2.0.2/src/core/ipv4/dhcp.c:0:24
	movs	r0, #0
.Ltmp610:
	@DEBUG_VALUE: dhcp_parse_reply:dhcp <- [DW_OP_LLVM_entry_value 1] $r0
	strd	r0, r1, [sp, #8]                @ 8-byte Folded Spill
.Ltmp611:
.LBB34_4:                               @ =>This Loop Header: Depth=1
                                        @     Child Loop BB34_5 Depth 2
                                        @     Child Loop BB34_12 Depth 2
                                        @       Child Loop BB34_48 Depth 3
	@DEBUG_VALUE: dhcp_parse_reply:q <- $r1
	@DEBUG_VALUE: dhcp_parse_reply:dhcp <- [DW_OP_LLVM_entry_value 1] $r0
	@DEBUG_VALUE: dhcp_parse_reply:parse_file_as_options <- 0
	@DEBUG_VALUE: dhcp_parse_reply:parse_sname_as_options <- [DW_OP_plus_uconst 8] [$sp+0]
	@DEBUG_VALUE: dhcp_parse_reply:options_idx <- $r7
	@DEBUG_VALUE: dhcp_parse_reply:options_idx_max <- $r6
	mov	r4, r1
.Ltmp612:
	@DEBUG_VALUE: dhcp_parse_reply:q <- $r4
	@DEBUG_VALUE: dhcp_parse_reply:p <- $r4
	.p2align	2
.LBB34_5:                               @   Parent Loop BB34_4 Depth=1
                                        @ =>  This Inner Loop Header: Depth=2
	@DEBUG_VALUE: dhcp_parse_reply:options_idx <- $r7
	@DEBUG_VALUE: dhcp_parse_reply:options_idx_max <- $r6
	@DEBUG_VALUE: dhcp_parse_reply:q <- $r4
	@DEBUG_VALUE: dhcp_parse_reply:parse_sname_as_options <- [DW_OP_plus_uconst 8] [$sp+0]
	@DEBUG_VALUE: dhcp_parse_reply:dhcp <- [DW_OP_LLVM_entry_value 1] $r0
	@DEBUG_VALUE: dhcp_parse_reply:parse_file_as_options <- 0
	@DEBUG_VALUE: dhcp_parse_reply:options_idx <- $r7
	@DEBUG_VALUE: dhcp_parse_reply:options_idx_max <- $r6
	@DEBUG_VALUE: dhcp_parse_reply:q <- $r4
	.loc	3 1491 38 is_stmt 1             @ rt-thread/components/net/lwip-2.0.2/src/core/ipv4/dhcp.c:1491:38
	uxth	r1, r7
	.loc	3 1491 44 is_stmt 0             @ rt-thread/components/net/lwip-2.0.2/src/core/ipv4/dhcp.c:1491:44
	ldrh	r0, [r4, #10]
	.loc	3 1491 3                        @ rt-thread/components/net/lwip-2.0.2/src/core/ipv4/dhcp.c:1491:3
	cmp	r1, r0
	blo	.LBB34_7
.Ltmp613:
@ %bb.6:                                @   in Loop: Header=BB34_5 Depth=2
	@DEBUG_VALUE: dhcp_parse_reply:options_idx <- $r7
	@DEBUG_VALUE: dhcp_parse_reply:options_idx_max <- $r6
	@DEBUG_VALUE: dhcp_parse_reply:q <- $r4
	@DEBUG_VALUE: dhcp_parse_reply:parse_sname_as_options <- [DW_OP_plus_uconst 8] [$sp+0]
	@DEBUG_VALUE: dhcp_parse_reply:dhcp <- [DW_OP_LLVM_entry_value 1] $r0
	@DEBUG_VALUE: dhcp_parse_reply:parse_file_as_options <- 0
	.loc	3 1494 12 is_stmt 1             @ rt-thread/components/net/lwip-2.0.2/src/core/ipv4/dhcp.c:1494:12
	ldr	r4, [r4]
.Ltmp614:
	@DEBUG_VALUE: dhcp_parse_reply:p <- [DW_OP_LLVM_entry_value 1] $r1
	@DEBUG_VALUE: dhcp_parse_reply:q <- $r4
	.loc	3 1492 17                       @ rt-thread/components/net/lwip-2.0.2/src/core/ipv4/dhcp.c:1492:17
	subs	r7, r7, r0
.Ltmp615:
	@DEBUG_VALUE: dhcp_parse_reply:options_idx <- $r7
	.loc	3 1491 22                       @ rt-thread/components/net/lwip-2.0.2/src/core/ipv4/dhcp.c:1491:22
	cmp	r4, #0
.Ltmp616:
	.loc	3 1493 21                       @ rt-thread/components/net/lwip-2.0.2/src/core/ipv4/dhcp.c:1493:21
	sub.w	r6, r6, r0
.Ltmp617:
	@DEBUG_VALUE: dhcp_parse_reply:options_idx_max <- $r6
	.loc	3 1491 22                       @ rt-thread/components/net/lwip-2.0.2/src/core/ipv4/dhcp.c:1491:22
	bne	.LBB34_5
	b	.LBB34_98
.Ltmp618:
	.p2align	2
.LBB34_7:                               @   in Loop: Header=BB34_4 Depth=1
	@DEBUG_VALUE: dhcp_parse_reply:options_idx <- $r7
	@DEBUG_VALUE: dhcp_parse_reply:options_idx_max <- $r6
	@DEBUG_VALUE: dhcp_parse_reply:q <- $r4
	@DEBUG_VALUE: dhcp_parse_reply:parse_sname_as_options <- [DW_OP_plus_uconst 8] [$sp+0]
	@DEBUG_VALUE: dhcp_parse_reply:dhcp <- [DW_OP_LLVM_entry_value 1] $r0
	@DEBUG_VALUE: dhcp_parse_reply:parse_file_as_options <- 0
	@DEBUG_VALUE: dhcp_parse_reply:offset <- $r7
	@DEBUG_VALUE: dhcp_parse_reply:offset_max <- $r6
	.loc	3 1501 23                       @ rt-thread/components/net/lwip-2.0.2/src/core/ipv4/dhcp.c:1501:23
	ldr	r0, [r4, #4]
.Ltmp619:
	@DEBUG_VALUE: dhcp_parse_reply:options <- $r0
	.loc	3 0 23 is_stmt 0                @ rt-thread/components/net/lwip-2.0.2/src/core/ipv4/dhcp.c:0:23
	str	r0, [sp, #24]                   @ 4-byte Spill
.Ltmp620:
	@DEBUG_VALUE: dhcp_parse_reply:options <- [DW_OP_plus_uconst 24] [$sp+0]
	@DEBUG_VALUE: dhcp_parse_reply:options <- [DW_OP_plus_uconst 24] [$sp+0]
	@DEBUG_VALUE: dhcp_parse_reply:options <- [DW_OP_plus_uconst 24] [$sp+0]
	str	r1, [sp, #4]                    @ 4-byte Spill
	b	.LBB34_12
.Ltmp621:
.LBB34_8:                               @   in Loop: Header=BB34_12 Depth=2
	@DEBUG_VALUE: decode_len <- $r9
	@DEBUG_VALUE: decode_idx <- $r8
	@DEBUG_VALUE: dhcp_parse_reply:offset <- $r7
	@DEBUG_VALUE: dhcp_parse_reply:offset_max <- $r6
	@DEBUG_VALUE: dhcp_parse_reply:q <- $r4
	@DEBUG_VALUE: dhcp_parse_reply:options <- [DW_OP_plus_uconst 24] [$sp+0]
	@DEBUG_VALUE: dhcp_parse_reply:parse_sname_as_options <- [DW_OP_plus_uconst 8] [$sp+0]
	@DEBUG_VALUE: dhcp_parse_reply:dhcp <- [DW_OP_LLVM_entry_value 1] $r0
	@DEBUG_VALUE: dhcp_parse_reply:parse_file_as_options <- 0
	.loc	3 1619 16 is_stmt 1             @ rt-thread/components/net/lwip-2.0.2/src/core/ipv4/dhcp.c:1619:16
	ldr	r4, [r4]
.Ltmp622:
	@DEBUG_VALUE: dhcp_parse_reply:p <- [DW_OP_LLVM_entry_value 1] $r1
	@DEBUG_VALUE: dhcp_parse_reply:q <- $r4
	.loc	3 1620 9                        @ rt-thread/components/net/lwip-2.0.2/src/core/ipv4/dhcp.c:1620:9
	cmp	r4, #0
	beq.w	.LBB34_71
.Ltmp623:
.LBB34_9:                               @   in Loop: Header=BB34_12 Depth=2
	@DEBUG_VALUE: decode_len <- $r9
	@DEBUG_VALUE: dhcp_parse_reply:offset <- $r7
	@DEBUG_VALUE: dhcp_parse_reply:offset_max <- $r6
	@DEBUG_VALUE: dhcp_parse_reply:q <- $r4
	@DEBUG_VALUE: dhcp_parse_reply:options <- [DW_OP_plus_uconst 24] [$sp+0]
	@DEBUG_VALUE: dhcp_parse_reply:parse_sname_as_options <- [DW_OP_plus_uconst 8] [$sp+0]
	@DEBUG_VALUE: dhcp_parse_reply:dhcp <- [DW_OP_LLVM_entry_value 1] $r0
	@DEBUG_VALUE: dhcp_parse_reply:parse_file_as_options <- 0
	.loc	3 1621 29                       @ rt-thread/components/net/lwip-2.0.2/src/core/ipv4/dhcp.c:1621:29
	ldr	r0, [r4, #4]
.Ltmp624:
	@DEBUG_VALUE: dhcp_parse_reply:options <- $r0
	.loc	3 0 29 is_stmt 0                @ rt-thread/components/net/lwip-2.0.2/src/core/ipv4/dhcp.c:0:29
	str	r0, [sp, #24]                   @ 4-byte Spill
.Ltmp625:
	@DEBUG_VALUE: dhcp_parse_reply:options <- [DW_OP_plus_uconst 24] [$sp+0]
	@DEBUG_VALUE: dhcp_parse_reply:options <- [DW_OP_plus_uconst 24] [$sp+0]
	@DEBUG_VALUE: dhcp_parse_reply:options <- [DW_OP_plus_uconst 24] [$sp+0]
.LBB34_10:                              @   in Loop: Header=BB34_12 Depth=2
	@DEBUG_VALUE: decode_len <- $r9
	@DEBUG_VALUE: dhcp_parse_reply:q <- $r4
	@DEBUG_VALUE: dhcp_parse_reply:options <- [DW_OP_plus_uconst 24] [$sp+0]
	@DEBUG_VALUE: dhcp_parse_reply:parse_sname_as_options <- [DW_OP_plus_uconst 8] [$sp+0]
	@DEBUG_VALUE: dhcp_parse_reply:dhcp <- [DW_OP_LLVM_entry_value 1] $r0
	@DEBUG_VALUE: dhcp_parse_reply:parse_file_as_options <- 0
	movs	r0, #0
.Ltmp626:
.LBB34_11:                              @   in Loop: Header=BB34_12 Depth=2
	@DEBUG_VALUE: dhcp_parse_reply:q <- $r4
	@DEBUG_VALUE: dhcp_parse_reply:options <- [DW_OP_plus_uconst 24] [$sp+0]
	@DEBUG_VALUE: dhcp_parse_reply:parse_sname_as_options <- [DW_OP_plus_uconst 8] [$sp+0]
	@DEBUG_VALUE: dhcp_parse_reply:dhcp <- [DW_OP_LLVM_entry_value 1] $r0
	@DEBUG_VALUE: dhcp_parse_reply:parse_file_as_options <- 0
	@DEBUG_VALUE: dhcp_parse_reply:q <- $r4
	@DEBUG_VALUE: dhcp_parse_reply:offset <- $r7
	@DEBUG_VALUE: dhcp_parse_reply:offset_max <- $r6
	@DEBUG_VALUE: dhcp_parse_reply:options <- [DW_OP_plus_uconst 24] [$sp+0]
	cmp	r0, #0
	bne.w	.LBB34_85
.Ltmp627:
.LBB34_12:                              @   Parent Loop BB34_4 Depth=1
                                        @ =>  This Loop Header: Depth=2
                                        @       Child Loop BB34_48 Depth 3
	@DEBUG_VALUE: dhcp_parse_reply:offset <- $r7
	@DEBUG_VALUE: dhcp_parse_reply:offset_max <- $r6
	@DEBUG_VALUE: dhcp_parse_reply:q <- $r4
	@DEBUG_VALUE: dhcp_parse_reply:options <- [DW_OP_plus_uconst 24] [$sp+0]
	@DEBUG_VALUE: dhcp_parse_reply:parse_sname_as_options <- [DW_OP_plus_uconst 8] [$sp+0]
	@DEBUG_VALUE: dhcp_parse_reply:dhcp <- [DW_OP_LLVM_entry_value 1] $r0
	@DEBUG_VALUE: dhcp_parse_reply:parse_file_as_options <- 0
	@DEBUG_VALUE: dhcp_parse_reply:q <- $r4
	@DEBUG_VALUE: dhcp_parse_reply:offset <- $r7
	@DEBUG_VALUE: dhcp_parse_reply:offset_max <- $r6
	@DEBUG_VALUE: dhcp_parse_reply:options <- [DW_OP_plus_uconst 24] [$sp+0]
	.loc	3 1503 22 is_stmt 1             @ rt-thread/components/net/lwip-2.0.2/src/core/ipv4/dhcp.c:1503:22
	cmp	r4, #0
	beq.w	.LBB34_84
.Ltmp628:
@ %bb.13:                               @   in Loop: Header=BB34_12 Depth=2
	@DEBUG_VALUE: dhcp_parse_reply:offset <- $r7
	@DEBUG_VALUE: dhcp_parse_reply:offset_max <- $r6
	@DEBUG_VALUE: dhcp_parse_reply:q <- $r4
	@DEBUG_VALUE: dhcp_parse_reply:options <- [DW_OP_plus_uconst 24] [$sp+0]
	@DEBUG_VALUE: dhcp_parse_reply:parse_sname_as_options <- [DW_OP_plus_uconst 8] [$sp+0]
	@DEBUG_VALUE: dhcp_parse_reply:dhcp <- [DW_OP_LLVM_entry_value 1] $r0
	@DEBUG_VALUE: dhcp_parse_reply:parse_file_as_options <- 0
	.loc	3 1503 26 is_stmt 0             @ rt-thread/components/net/lwip-2.0.2/src/core/ipv4/dhcp.c:1503:26
	uxth	r0, r7
	uxth	r1, r6
	.loc	3 1503 62                       @ rt-thread/components/net/lwip-2.0.2/src/core/ipv4/dhcp.c:1503:62
	cmp	r0, r1
	bhs.w	.LBB34_84
.Ltmp629:
@ %bb.14:                               @   in Loop: Header=BB34_12 Depth=2
	@DEBUG_VALUE: dhcp_parse_reply:offset <- $r7
	@DEBUG_VALUE: dhcp_parse_reply:offset_max <- $r6
	@DEBUG_VALUE: dhcp_parse_reply:q <- $r4
	@DEBUG_VALUE: dhcp_parse_reply:options <- [DW_OP_plus_uconst 24] [$sp+0]
	@DEBUG_VALUE: dhcp_parse_reply:parse_sname_as_options <- [DW_OP_plus_uconst 8] [$sp+0]
	@DEBUG_VALUE: dhcp_parse_reply:dhcp <- [DW_OP_LLVM_entry_value 1] $r0
	@DEBUG_VALUE: dhcp_parse_reply:parse_file_as_options <- 0
	.loc	3 0 0                           @ rt-thread/components/net/lwip-2.0.2/src/core/ipv4/dhcp.c:0:0
	ldr	r1, [sp, #24]                   @ 4-byte Reload
	ldrb	r2, [r1, r0]
	.loc	3 1503 62                       @ rt-thread/components/net/lwip-2.0.2/src/core/ipv4/dhcp.c:1503:62
	cmp	r2, #255
	beq.w	.LBB34_84
.Ltmp630:
@ %bb.15:                               @   in Loop: Header=BB34_12 Depth=2
	@DEBUG_VALUE: dhcp_parse_reply:offset <- $r7
	@DEBUG_VALUE: dhcp_parse_reply:offset_max <- $r6
	@DEBUG_VALUE: dhcp_parse_reply:q <- $r4
	@DEBUG_VALUE: dhcp_parse_reply:options <- [DW_OP_plus_uconst 24] [$sp+0]
	@DEBUG_VALUE: dhcp_parse_reply:parse_sname_as_options <- [DW_OP_plus_uconst 8] [$sp+0]
	@DEBUG_VALUE: dhcp_parse_reply:dhcp <- [DW_OP_LLVM_entry_value 1] $r0
	@DEBUG_VALUE: dhcp_parse_reply:parse_file_as_options <- 0
	@DEBUG_VALUE: decode_len <- 0
	@DEBUG_VALUE: decode_idx <- -1
	@DEBUG_VALUE: val_offset <- undef
	.loc	3 1510 27 is_stmt 1             @ rt-thread/components/net/lwip-2.0.2/src/core/ipv4/dhcp.c:1510:27
	ldrh	r1, [r4, #10]
	.loc	3 1510 17 is_stmt 0             @ rt-thread/components/net/lwip-2.0.2/src/core/ipv4/dhcp.c:1510:17
	adds	r0, #1
.Ltmp631:
	.loc	3 1510 9                        @ rt-thread/components/net/lwip-2.0.2/src/core/ipv4/dhcp.c:1510:9
	str	r6, [sp, #28]                   @ 4-byte Spill
.Ltmp632:
	@DEBUG_VALUE: dhcp_parse_reply:offset_max <- [DW_OP_plus_uconst 28] [$sp+0]
	@DEBUG_VALUE: dhcp_parse_reply:options_idx_max <- [DW_OP_plus_uconst 28] [$sp+0]
	cmp	r0, r1
.Ltmp633:
	@DEBUG_VALUE: op <- undef
	bhs	.LBB34_17
.Ltmp634:
@ %bb.16:                               @   in Loop: Header=BB34_12 Depth=2
	@DEBUG_VALUE: dhcp_parse_reply:offset_max <- [DW_OP_plus_uconst 28] [$sp+0]
	@DEBUG_VALUE: dhcp_parse_reply:offset <- $r7
	@DEBUG_VALUE: dhcp_parse_reply:q <- $r4
	@DEBUG_VALUE: dhcp_parse_reply:options <- [DW_OP_plus_uconst 24] [$sp+0]
	@DEBUG_VALUE: dhcp_parse_reply:parse_sname_as_options <- [DW_OP_plus_uconst 8] [$sp+0]
	@DEBUG_VALUE: decode_idx <- -1
	@DEBUG_VALUE: decode_len <- 0
	@DEBUG_VALUE: dhcp_parse_reply:dhcp <- [DW_OP_LLVM_entry_value 1] $r0
	@DEBUG_VALUE: dhcp_parse_reply:parse_file_as_options <- 0
	.loc	3 1511 13 is_stmt 1             @ rt-thread/components/net/lwip-2.0.2/src/core/ipv4/dhcp.c:1511:13
	ldr	r1, [sp, #24]                   @ 4-byte Reload
	add	r0, r1
.Ltmp635:
	@DEBUG_VALUE: len <- undef
	.loc	3 0 13 is_stmt 0                @ rt-thread/components/net/lwip-2.0.2/src/core/ipv4/dhcp.c:0:13
	b	.LBB34_19
.Ltmp636:
	.p2align	2
.LBB34_17:                              @   in Loop: Header=BB34_12 Depth=2
	@DEBUG_VALUE: dhcp_parse_reply:offset_max <- [DW_OP_plus_uconst 28] [$sp+0]
	@DEBUG_VALUE: dhcp_parse_reply:offset <- $r7
	@DEBUG_VALUE: dhcp_parse_reply:q <- $r4
	@DEBUG_VALUE: dhcp_parse_reply:options <- [DW_OP_plus_uconst 24] [$sp+0]
	@DEBUG_VALUE: dhcp_parse_reply:parse_sname_as_options <- [DW_OP_plus_uconst 8] [$sp+0]
	@DEBUG_VALUE: decode_idx <- -1
	@DEBUG_VALUE: decode_len <- 0
	@DEBUG_VALUE: dhcp_parse_reply:dhcp <- [DW_OP_LLVM_entry_value 1] $r0
	@DEBUG_VALUE: dhcp_parse_reply:parse_file_as_options <- 0
	.loc	3 1513 17 is_stmt 1             @ rt-thread/components/net/lwip-2.0.2/src/core/ipv4/dhcp.c:1513:17
	ldr	r0, [r4]
	.loc	3 1513 14 is_stmt 0             @ rt-thread/components/net/lwip-2.0.2/src/core/ipv4/dhcp.c:1513:14
	cmp	r0, #0
	beq.w	.LBB34_24
.Ltmp637:
@ %bb.18:                               @   in Loop: Header=BB34_12 Depth=2
	@DEBUG_VALUE: dhcp_parse_reply:offset_max <- [DW_OP_plus_uconst 28] [$sp+0]
	@DEBUG_VALUE: dhcp_parse_reply:offset <- $r7
	@DEBUG_VALUE: dhcp_parse_reply:q <- $r4
	@DEBUG_VALUE: dhcp_parse_reply:options <- [DW_OP_plus_uconst 24] [$sp+0]
	@DEBUG_VALUE: dhcp_parse_reply:parse_sname_as_options <- [DW_OP_plus_uconst 8] [$sp+0]
	@DEBUG_VALUE: decode_idx <- -1
	@DEBUG_VALUE: decode_len <- 0
	@DEBUG_VALUE: dhcp_parse_reply:dhcp <- [DW_OP_LLVM_entry_value 1] $r0
	@DEBUG_VALUE: dhcp_parse_reply:parse_file_as_options <- 0
	.loc	3 1513 49                       @ rt-thread/components/net/lwip-2.0.2/src/core/ipv4/dhcp.c:1513:49
	ldr	r0, [r0, #4]
.Ltmp638:
.LBB34_19:                              @   in Loop: Header=BB34_12 Depth=2
	@DEBUG_VALUE: dhcp_parse_reply:offset_max <- [DW_OP_plus_uconst 28] [$sp+0]
	@DEBUG_VALUE: dhcp_parse_reply:offset <- $r7
	@DEBUG_VALUE: dhcp_parse_reply:q <- $r4
	@DEBUG_VALUE: dhcp_parse_reply:options <- [DW_OP_plus_uconst 24] [$sp+0]
	@DEBUG_VALUE: dhcp_parse_reply:parse_sname_as_options <- [DW_OP_plus_uconst 8] [$sp+0]
	@DEBUG_VALUE: decode_idx <- -1
	@DEBUG_VALUE: decode_len <- 0
	@DEBUG_VALUE: dhcp_parse_reply:dhcp <- [DW_OP_LLVM_entry_value 1] $r0
	@DEBUG_VALUE: dhcp_parse_reply:parse_file_as_options <- 0
	.loc	3 0 0                           @ rt-thread/components/net/lwip-2.0.2/src/core/ipv4/dhcp.c:0:0
	ldrb	r0, [r0]
.Ltmp639:
.LBB34_20:                              @   in Loop: Header=BB34_12 Depth=2
	@DEBUG_VALUE: dhcp_parse_reply:offset_max <- [DW_OP_plus_uconst 28] [$sp+0]
	@DEBUG_VALUE: dhcp_parse_reply:offset <- $r7
	@DEBUG_VALUE: dhcp_parse_reply:q <- $r4
	@DEBUG_VALUE: dhcp_parse_reply:options <- [DW_OP_plus_uconst 24] [$sp+0]
	@DEBUG_VALUE: dhcp_parse_reply:parse_sname_as_options <- [DW_OP_plus_uconst 8] [$sp+0]
	@DEBUG_VALUE: decode_idx <- -1
	@DEBUG_VALUE: decode_len <- 0
	@DEBUG_VALUE: dhcp_parse_reply:dhcp <- [DW_OP_LLVM_entry_value 1] $r0
	@DEBUG_VALUE: dhcp_parse_reply:parse_file_as_options <- 0
	@DEBUG_VALUE: val_offset <- undef
	.loc	3 1517 5 is_stmt 1              @ rt-thread/components/net/lwip-2.0.2/src/core/ipv4/dhcp.c:1517:5
	cmp	r2, #59
	mov.w	r8, #-1
	mov.w	r9, #0
.Ltmp640:
	@DEBUG_VALUE: len <- $r0
	@DEBUG_VALUE: decode_len <- $r0
	bhi.w	.LBB34_61
.Ltmp641:
@ %bb.21:                               @   in Loop: Header=BB34_12 Depth=2
	@DEBUG_VALUE: dhcp_parse_reply:offset_max <- [DW_OP_plus_uconst 28] [$sp+0]
	@DEBUG_VALUE: dhcp_parse_reply:offset <- $r7
	@DEBUG_VALUE: dhcp_parse_reply:q <- $r4
	@DEBUG_VALUE: decode_len <- $r0
	@DEBUG_VALUE: len <- $r0
	@DEBUG_VALUE: dhcp_parse_reply:options <- [DW_OP_plus_uconst 24] [$sp+0]
	@DEBUG_VALUE: dhcp_parse_reply:parse_sname_as_options <- [DW_OP_plus_uconst 8] [$sp+0]
	@DEBUG_VALUE: decode_idx <- -1
	@DEBUG_VALUE: dhcp_parse_reply:dhcp <- [DW_OP_LLVM_entry_value 1] $r0
	@DEBUG_VALUE: dhcp_parse_reply:parse_file_as_options <- 0
	.loc	3 0 0 is_stmt 0                 @ rt-thread/components/net/lwip-2.0.2/src/core/ipv4/dhcp.c:0:0
	mov	r1, r7
.LCPI34_7:
	tbb	[pc, r2]
.Ltmp642:
@ %bb.22:
.LJTI34_0:
	.byte	(.LBB34_23-(.LCPI34_7+4))/2
	.byte	(.LBB34_25-(.LCPI34_7+4))/2
	.byte	(.LBB34_45-(.LCPI34_7+4))/2
	.byte	(.LBB34_27-(.LCPI34_7+4))/2
	.byte	(.LBB34_45-(.LCPI34_7+4))/2
	.byte	(.LBB34_45-(.LCPI34_7+4))/2
	.byte	(.LBB34_29-(.LCPI34_7+4))/2
	.byte	(.LBB34_45-(.LCPI34_7+4))/2
	.byte	(.LBB34_45-(.LCPI34_7+4))/2
	.byte	(.LBB34_45-(.LCPI34_7+4))/2
	.byte	(.LBB34_45-(.LCPI34_7+4))/2
	.byte	(.LBB34_45-(.LCPI34_7+4))/2
	.byte	(.LBB34_45-(.LCPI34_7+4))/2
	.byte	(.LBB34_45-(.LCPI34_7+4))/2
	.byte	(.LBB34_45-(.LCPI34_7+4))/2
	.byte	(.LBB34_45-(.LCPI34_7+4))/2
	.byte	(.LBB34_45-(.LCPI34_7+4))/2
	.byte	(.LBB34_45-(.LCPI34_7+4))/2
	.byte	(.LBB34_45-(.LCPI34_7+4))/2
	.byte	(.LBB34_45-(.LCPI34_7+4))/2
	.byte	(.LBB34_45-(.LCPI34_7+4))/2
	.byte	(.LBB34_45-(.LCPI34_7+4))/2
	.byte	(.LBB34_45-(.LCPI34_7+4))/2
	.byte	(.LBB34_45-(.LCPI34_7+4))/2
	.byte	(.LBB34_45-(.LCPI34_7+4))/2
	.byte	(.LBB34_45-(.LCPI34_7+4))/2
	.byte	(.LBB34_45-(.LCPI34_7+4))/2
	.byte	(.LBB34_45-(.LCPI34_7+4))/2
	.byte	(.LBB34_45-(.LCPI34_7+4))/2
	.byte	(.LBB34_45-(.LCPI34_7+4))/2
	.byte	(.LBB34_45-(.LCPI34_7+4))/2
	.byte	(.LBB34_45-(.LCPI34_7+4))/2
	.byte	(.LBB34_45-(.LCPI34_7+4))/2
	.byte	(.LBB34_45-(.LCPI34_7+4))/2
	.byte	(.LBB34_45-(.LCPI34_7+4))/2
	.byte	(.LBB34_45-(.LCPI34_7+4))/2
	.byte	(.LBB34_45-(.LCPI34_7+4))/2
	.byte	(.LBB34_45-(.LCPI34_7+4))/2
	.byte	(.LBB34_45-(.LCPI34_7+4))/2
	.byte	(.LBB34_45-(.LCPI34_7+4))/2
	.byte	(.LBB34_45-(.LCPI34_7+4))/2
	.byte	(.LBB34_45-(.LCPI34_7+4))/2
	.byte	(.LBB34_45-(.LCPI34_7+4))/2
	.byte	(.LBB34_45-(.LCPI34_7+4))/2
	.byte	(.LBB34_45-(.LCPI34_7+4))/2
	.byte	(.LBB34_45-(.LCPI34_7+4))/2
	.byte	(.LBB34_45-(.LCPI34_7+4))/2
	.byte	(.LBB34_45-(.LCPI34_7+4))/2
	.byte	(.LBB34_45-(.LCPI34_7+4))/2
	.byte	(.LBB34_45-(.LCPI34_7+4))/2
	.byte	(.LBB34_45-(.LCPI34_7+4))/2
	.byte	(.LBB34_31-(.LCPI34_7+4))/2
	.byte	(.LBB34_33-(.LCPI34_7+4))/2
	.byte	(.LBB34_36-(.LCPI34_7+4))/2
	.byte	(.LBB34_38-(.LCPI34_7+4))/2
	.byte	(.LBB34_45-(.LCPI34_7+4))/2
	.byte	(.LBB34_45-(.LCPI34_7+4))/2
	.byte	(.LBB34_45-(.LCPI34_7+4))/2
	.byte	(.LBB34_40-(.LCPI34_7+4))/2
	.byte	(.LBB34_42-(.LCPI34_7+4))/2
	.p2align	1
.LBB34_23:                              @   in Loop: Header=BB34_12 Depth=2
.Ltmp643:
	@DEBUG_VALUE: dhcp_parse_reply:offset_max <- [DW_OP_plus_uconst 28] [$sp+0]
	@DEBUG_VALUE: dhcp_parse_reply:offset <- $r7
	@DEBUG_VALUE: dhcp_parse_reply:q <- $r4
	@DEBUG_VALUE: decode_len <- $r0
	@DEBUG_VALUE: len <- $r0
	@DEBUG_VALUE: dhcp_parse_reply:options <- [DW_OP_plus_uconst 24] [$sp+0]
	@DEBUG_VALUE: dhcp_parse_reply:parse_sname_as_options <- [DW_OP_plus_uconst 8] [$sp+0]
	@DEBUG_VALUE: decode_idx <- -1
	@DEBUG_VALUE: dhcp_parse_reply:dhcp <- [DW_OP_LLVM_entry_value 1] $r0
	@DEBUG_VALUE: dhcp_parse_reply:parse_file_as_options <- 0
	@DEBUG_VALUE: decode_len <- 0
	@DEBUG_VALUE: len <- 0
	.loc	3 1523 15 is_stmt 1             @ rt-thread/components/net/lwip-2.0.2/src/core/ipv4/dhcp.c:1523:15
	subs	r1, r7, #1
.Ltmp644:
	@DEBUG_VALUE: dhcp_parse_reply:offset <- $r1
	.loc	3 0 15 is_stmt 0                @ rt-thread/components/net/lwip-2.0.2/src/core/ipv4/dhcp.c:0:15
	mov.w	r8, #-1
	movs	r0, #0
.Ltmp645:
	mov.w	r9, #0
	b	.LBB34_45
.Ltmp646:
.LBB34_24:                              @   in Loop: Header=BB34_12 Depth=2
	@DEBUG_VALUE: dhcp_parse_reply:offset_max <- [DW_OP_plus_uconst 28] [$sp+0]
	@DEBUG_VALUE: dhcp_parse_reply:offset <- $r7
	@DEBUG_VALUE: dhcp_parse_reply:q <- $r4
	@DEBUG_VALUE: dhcp_parse_reply:options <- [DW_OP_plus_uconst 24] [$sp+0]
	@DEBUG_VALUE: dhcp_parse_reply:parse_sname_as_options <- [DW_OP_plus_uconst 8] [$sp+0]
	@DEBUG_VALUE: decode_idx <- -1
	@DEBUG_VALUE: decode_len <- 0
	@DEBUG_VALUE: dhcp_parse_reply:dhcp <- [DW_OP_LLVM_entry_value 1] $r0
	@DEBUG_VALUE: dhcp_parse_reply:parse_file_as_options <- 0
	movs	r0, #0
	b	.LBB34_20
.Ltmp647:
.LBB34_25:                              @   in Loop: Header=BB34_12 Depth=2
	@DEBUG_VALUE: dhcp_parse_reply:offset_max <- [DW_OP_plus_uconst 28] [$sp+0]
	@DEBUG_VALUE: dhcp_parse_reply:offset <- $r7
	@DEBUG_VALUE: dhcp_parse_reply:q <- $r4
	@DEBUG_VALUE: decode_len <- $r0
	@DEBUG_VALUE: len <- $r0
	@DEBUG_VALUE: dhcp_parse_reply:options <- [DW_OP_plus_uconst 24] [$sp+0]
	@DEBUG_VALUE: dhcp_parse_reply:parse_sname_as_options <- [DW_OP_plus_uconst 8] [$sp+0]
	@DEBUG_VALUE: decode_idx <- -1
	@DEBUG_VALUE: dhcp_parse_reply:dhcp <- [DW_OP_LLVM_entry_value 1] $r0
	@DEBUG_VALUE: dhcp_parse_reply:parse_file_as_options <- 0
	.loc	3 1526 9 is_stmt 1              @ rt-thread/components/net/lwip-2.0.2/src/core/ipv4/dhcp.c:1526:9
	cmp	r0, #4
	bne.w	.LBB34_62
.Ltmp648:
@ %bb.26:                               @   in Loop: Header=BB34_12 Depth=2
	@DEBUG_VALUE: dhcp_parse_reply:offset_max <- [DW_OP_plus_uconst 28] [$sp+0]
	@DEBUG_VALUE: dhcp_parse_reply:offset <- $r7
	@DEBUG_VALUE: dhcp_parse_reply:q <- $r4
	@DEBUG_VALUE: decode_len <- $r0
	@DEBUG_VALUE: len <- $r0
	@DEBUG_VALUE: dhcp_parse_reply:options <- [DW_OP_plus_uconst 24] [$sp+0]
	@DEBUG_VALUE: dhcp_parse_reply:parse_sname_as_options <- [DW_OP_plus_uconst 8] [$sp+0]
	@DEBUG_VALUE: decode_idx <- -1
	@DEBUG_VALUE: dhcp_parse_reply:dhcp <- [DW_OP_LLVM_entry_value 1] $r0
	@DEBUG_VALUE: dhcp_parse_reply:parse_file_as_options <- 0
	.loc	3 0 9 is_stmt 0                 @ rt-thread/components/net/lwip-2.0.2/src/core/ipv4/dhcp.c:0:9
	mov.w	r8, #6
	b	.LBB34_44
.Ltmp649:
.LBB34_27:                              @   in Loop: Header=BB34_12 Depth=2
	@DEBUG_VALUE: dhcp_parse_reply:offset_max <- [DW_OP_plus_uconst 28] [$sp+0]
	@DEBUG_VALUE: dhcp_parse_reply:offset <- $r7
	@DEBUG_VALUE: dhcp_parse_reply:q <- $r4
	@DEBUG_VALUE: decode_len <- $r0
	@DEBUG_VALUE: len <- $r0
	@DEBUG_VALUE: dhcp_parse_reply:options <- [DW_OP_plus_uconst 24] [$sp+0]
	@DEBUG_VALUE: dhcp_parse_reply:parse_sname_as_options <- [DW_OP_plus_uconst 8] [$sp+0]
	@DEBUG_VALUE: decode_idx <- -1
	@DEBUG_VALUE: dhcp_parse_reply:dhcp <- [DW_OP_LLVM_entry_value 1] $r0
	@DEBUG_VALUE: dhcp_parse_reply:parse_file_as_options <- 0
	@DEBUG_VALUE: decode_len <- 4
	.loc	3 1531 9 is_stmt 1              @ rt-thread/components/net/lwip-2.0.2/src/core/ipv4/dhcp.c:1531:9
	cmp	r0, #3
	bls.w	.LBB34_63
.Ltmp650:
@ %bb.28:                               @   in Loop: Header=BB34_12 Depth=2
	@DEBUG_VALUE: dhcp_parse_reply:offset_max <- [DW_OP_plus_uconst 28] [$sp+0]
	@DEBUG_VALUE: dhcp_parse_reply:offset <- $r7
	@DEBUG_VALUE: dhcp_parse_reply:q <- $r4
	@DEBUG_VALUE: len <- $r0
	@DEBUG_VALUE: dhcp_parse_reply:options <- [DW_OP_plus_uconst 24] [$sp+0]
	@DEBUG_VALUE: dhcp_parse_reply:parse_sname_as_options <- [DW_OP_plus_uconst 8] [$sp+0]
	@DEBUG_VALUE: decode_len <- 4
	@DEBUG_VALUE: decode_idx <- -1
	@DEBUG_VALUE: dhcp_parse_reply:dhcp <- [DW_OP_LLVM_entry_value 1] $r0
	@DEBUG_VALUE: dhcp_parse_reply:parse_file_as_options <- 0
	.loc	3 0 9 is_stmt 0                 @ rt-thread/components/net/lwip-2.0.2/src/core/ipv4/dhcp.c:0:9
	mov.w	r8, #7
	mov.w	r9, #4
	mov	r1, r7
	b	.LBB34_45
.Ltmp651:
.LBB34_29:                              @   in Loop: Header=BB34_12 Depth=2
	@DEBUG_VALUE: dhcp_parse_reply:offset_max <- [DW_OP_plus_uconst 28] [$sp+0]
	@DEBUG_VALUE: dhcp_parse_reply:offset <- $r7
	@DEBUG_VALUE: dhcp_parse_reply:q <- $r4
	@DEBUG_VALUE: decode_len <- $r0
	@DEBUG_VALUE: len <- $r0
	@DEBUG_VALUE: dhcp_parse_reply:options <- [DW_OP_plus_uconst 24] [$sp+0]
	@DEBUG_VALUE: dhcp_parse_reply:parse_sname_as_options <- [DW_OP_plus_uconst 8] [$sp+0]
	@DEBUG_VALUE: decode_idx <- -1
	@DEBUG_VALUE: dhcp_parse_reply:dhcp <- [DW_OP_LLVM_entry_value 1] $r0
	@DEBUG_VALUE: dhcp_parse_reply:parse_file_as_options <- 0
	.loc	3 1537 9 is_stmt 1              @ rt-thread/components/net/lwip-2.0.2/src/core/ipv4/dhcp.c:1537:9
	lsls	r1, r0, #30
	ldr	r6, [sp, #28]                   @ 4-byte Reload
.Ltmp652:
	@DEBUG_VALUE: dhcp_parse_reply:offset_max <- $r6
	@DEBUG_VALUE: dhcp_parse_reply:options_idx_max <- $r6
	beq.w	.LBB34_72
.Ltmp653:
@ %bb.30:                               @   in Loop: Header=BB34_12 Depth=2
	@DEBUG_VALUE: dhcp_parse_reply:offset <- $r7
	@DEBUG_VALUE: dhcp_parse_reply:offset_max <- $r6
	@DEBUG_VALUE: dhcp_parse_reply:q <- $r4
	@DEBUG_VALUE: decode_len <- $r0
	@DEBUG_VALUE: len <- $r0
	@DEBUG_VALUE: dhcp_parse_reply:options <- [DW_OP_plus_uconst 24] [$sp+0]
	@DEBUG_VALUE: dhcp_parse_reply:parse_sname_as_options <- [DW_OP_plus_uconst 8] [$sp+0]
	@DEBUG_VALUE: decode_idx <- -1
	@DEBUG_VALUE: dhcp_parse_reply:dhcp <- [DW_OP_LLVM_entry_value 1] $r0
	@DEBUG_VALUE: dhcp_parse_reply:parse_file_as_options <- 0
	.loc	3 1537 9 is_stmt 0              @ rt-thread/components/net/lwip-2.0.2/src/core/ipv4/dhcp.c:1537:9
	adr	r0, .LCPI34_1
.Ltmp654:
	bl	rt_kprintf
	movw	r1, #1537
	b	.LBB34_83
.Ltmp655:
.LBB34_31:                              @   in Loop: Header=BB34_12 Depth=2
	@DEBUG_VALUE: dhcp_parse_reply:offset_max <- [DW_OP_plus_uconst 28] [$sp+0]
	@DEBUG_VALUE: dhcp_parse_reply:offset <- $r7
	@DEBUG_VALUE: dhcp_parse_reply:q <- $r4
	@DEBUG_VALUE: decode_len <- $r0
	@DEBUG_VALUE: len <- $r0
	@DEBUG_VALUE: dhcp_parse_reply:options <- [DW_OP_plus_uconst 24] [$sp+0]
	@DEBUG_VALUE: dhcp_parse_reply:parse_sname_as_options <- [DW_OP_plus_uconst 8] [$sp+0]
	@DEBUG_VALUE: decode_idx <- -1
	@DEBUG_VALUE: dhcp_parse_reply:dhcp <- [DW_OP_LLVM_entry_value 1] $r0
	@DEBUG_VALUE: dhcp_parse_reply:parse_file_as_options <- 0
	.loc	3 1545 9 is_stmt 1              @ rt-thread/components/net/lwip-2.0.2/src/core/ipv4/dhcp.c:1545:9
	cmp	r0, #4
	bne.w	.LBB34_64
.Ltmp656:
@ %bb.32:                               @   in Loop: Header=BB34_12 Depth=2
	@DEBUG_VALUE: dhcp_parse_reply:offset_max <- [DW_OP_plus_uconst 28] [$sp+0]
	@DEBUG_VALUE: dhcp_parse_reply:offset <- $r7
	@DEBUG_VALUE: dhcp_parse_reply:q <- $r4
	@DEBUG_VALUE: decode_len <- $r0
	@DEBUG_VALUE: len <- $r0
	@DEBUG_VALUE: dhcp_parse_reply:options <- [DW_OP_plus_uconst 24] [$sp+0]
	@DEBUG_VALUE: dhcp_parse_reply:parse_sname_as_options <- [DW_OP_plus_uconst 8] [$sp+0]
	@DEBUG_VALUE: decode_idx <- -1
	@DEBUG_VALUE: dhcp_parse_reply:dhcp <- [DW_OP_LLVM_entry_value 1] $r0
	@DEBUG_VALUE: dhcp_parse_reply:parse_file_as_options <- 0
	.loc	3 0 9 is_stmt 0                 @ rt-thread/components/net/lwip-2.0.2/src/core/ipv4/dhcp.c:0:9
	mov.w	r8, #3
	b	.LBB34_44
.Ltmp657:
.LBB34_33:                              @   in Loop: Header=BB34_12 Depth=2
	@DEBUG_VALUE: dhcp_parse_reply:offset_max <- [DW_OP_plus_uconst 28] [$sp+0]
	@DEBUG_VALUE: dhcp_parse_reply:offset <- $r7
	@DEBUG_VALUE: dhcp_parse_reply:q <- $r4
	@DEBUG_VALUE: decode_len <- $r0
	@DEBUG_VALUE: len <- $r0
	@DEBUG_VALUE: dhcp_parse_reply:options <- [DW_OP_plus_uconst 24] [$sp+0]
	@DEBUG_VALUE: dhcp_parse_reply:parse_sname_as_options <- [DW_OP_plus_uconst 8] [$sp+0]
	@DEBUG_VALUE: decode_idx <- -1
	@DEBUG_VALUE: dhcp_parse_reply:dhcp <- [DW_OP_LLVM_entry_value 1] $r0
	@DEBUG_VALUE: dhcp_parse_reply:parse_file_as_options <- 0
	.loc	3 1559 9 is_stmt 1              @ rt-thread/components/net/lwip-2.0.2/src/core/ipv4/dhcp.c:1559:9
	cmp	r0, #1
	ldr	r6, [sp, #28]                   @ 4-byte Reload
.Ltmp658:
	@DEBUG_VALUE: dhcp_parse_reply:offset_max <- $r6
	@DEBUG_VALUE: dhcp_parse_reply:options_idx_max <- $r6
	bne.w	.LBB34_65
.Ltmp659:
@ %bb.34:                               @   in Loop: Header=BB34_12 Depth=2
	@DEBUG_VALUE: dhcp_parse_reply:offset <- $r7
	@DEBUG_VALUE: dhcp_parse_reply:offset_max <- $r6
	@DEBUG_VALUE: dhcp_parse_reply:q <- $r4
	@DEBUG_VALUE: decode_len <- $r0
	@DEBUG_VALUE: len <- $r0
	@DEBUG_VALUE: dhcp_parse_reply:options <- [DW_OP_plus_uconst 24] [$sp+0]
	@DEBUG_VALUE: dhcp_parse_reply:parse_sname_as_options <- [DW_OP_plus_uconst 8] [$sp+0]
	@DEBUG_VALUE: decode_idx <- -1
	@DEBUG_VALUE: dhcp_parse_reply:dhcp <- [DW_OP_LLVM_entry_value 1] $r0
	@DEBUG_VALUE: dhcp_parse_reply:parse_file_as_options <- 0
	.loc	3 1561 9                        @ rt-thread/components/net/lwip-2.0.2/src/core/ipv4/dhcp.c:1561:9
	ldr	r1, [sp, #4]                    @ 4-byte Reload
	cmp	r1, #240
	bne.w	.LBB34_82
.Ltmp660:
@ %bb.35:                               @   in Loop: Header=BB34_12 Depth=2
	@DEBUG_VALUE: dhcp_parse_reply:offset <- $r7
	@DEBUG_VALUE: dhcp_parse_reply:offset_max <- $r6
	@DEBUG_VALUE: dhcp_parse_reply:q <- $r4
	@DEBUG_VALUE: decode_len <- $r0
	@DEBUG_VALUE: len <- $r0
	@DEBUG_VALUE: dhcp_parse_reply:options <- [DW_OP_plus_uconst 24] [$sp+0]
	@DEBUG_VALUE: dhcp_parse_reply:parse_sname_as_options <- [DW_OP_plus_uconst 8] [$sp+0]
	@DEBUG_VALUE: decode_idx <- -1
	@DEBUG_VALUE: dhcp_parse_reply:dhcp <- [DW_OP_LLVM_entry_value 1] $r0
	@DEBUG_VALUE: dhcp_parse_reply:parse_file_as_options <- 0
	.loc	3 0 9 is_stmt 0                 @ rt-thread/components/net/lwip-2.0.2/src/core/ipv4/dhcp.c:0:9
	mov.w	r8, #0
	b	.LBB34_44
.Ltmp661:
.LBB34_36:                              @   in Loop: Header=BB34_12 Depth=2
	@DEBUG_VALUE: dhcp_parse_reply:offset_max <- [DW_OP_plus_uconst 28] [$sp+0]
	@DEBUG_VALUE: dhcp_parse_reply:offset <- $r7
	@DEBUG_VALUE: dhcp_parse_reply:q <- $r4
	@DEBUG_VALUE: decode_len <- $r0
	@DEBUG_VALUE: len <- $r0
	@DEBUG_VALUE: dhcp_parse_reply:options <- [DW_OP_plus_uconst 24] [$sp+0]
	@DEBUG_VALUE: dhcp_parse_reply:parse_sname_as_options <- [DW_OP_plus_uconst 8] [$sp+0]
	@DEBUG_VALUE: decode_idx <- -1
	@DEBUG_VALUE: dhcp_parse_reply:dhcp <- [DW_OP_LLVM_entry_value 1] $r0
	@DEBUG_VALUE: dhcp_parse_reply:parse_file_as_options <- 0
	.loc	3 1565 9 is_stmt 1              @ rt-thread/components/net/lwip-2.0.2/src/core/ipv4/dhcp.c:1565:9
	cmp	r0, #1
	bne.w	.LBB34_66
.Ltmp662:
@ %bb.37:                               @   in Loop: Header=BB34_12 Depth=2
	@DEBUG_VALUE: dhcp_parse_reply:offset_max <- [DW_OP_plus_uconst 28] [$sp+0]
	@DEBUG_VALUE: dhcp_parse_reply:offset <- $r7
	@DEBUG_VALUE: dhcp_parse_reply:q <- $r4
	@DEBUG_VALUE: decode_len <- $r0
	@DEBUG_VALUE: len <- $r0
	@DEBUG_VALUE: dhcp_parse_reply:options <- [DW_OP_plus_uconst 24] [$sp+0]
	@DEBUG_VALUE: dhcp_parse_reply:parse_sname_as_options <- [DW_OP_plus_uconst 8] [$sp+0]
	@DEBUG_VALUE: decode_idx <- -1
	@DEBUG_VALUE: dhcp_parse_reply:dhcp <- [DW_OP_LLVM_entry_value 1] $r0
	@DEBUG_VALUE: dhcp_parse_reply:parse_file_as_options <- 0
	.loc	3 0 9 is_stmt 0                 @ rt-thread/components/net/lwip-2.0.2/src/core/ipv4/dhcp.c:0:9
	mov.w	r8, #1
	b	.LBB34_44
.Ltmp663:
.LBB34_38:                              @   in Loop: Header=BB34_12 Depth=2
	@DEBUG_VALUE: dhcp_parse_reply:offset_max <- [DW_OP_plus_uconst 28] [$sp+0]
	@DEBUG_VALUE: dhcp_parse_reply:offset <- $r7
	@DEBUG_VALUE: dhcp_parse_reply:q <- $r4
	@DEBUG_VALUE: decode_len <- $r0
	@DEBUG_VALUE: len <- $r0
	@DEBUG_VALUE: dhcp_parse_reply:options <- [DW_OP_plus_uconst 24] [$sp+0]
	@DEBUG_VALUE: dhcp_parse_reply:parse_sname_as_options <- [DW_OP_plus_uconst 8] [$sp+0]
	@DEBUG_VALUE: decode_idx <- -1
	@DEBUG_VALUE: dhcp_parse_reply:dhcp <- [DW_OP_LLVM_entry_value 1] $r0
	@DEBUG_VALUE: dhcp_parse_reply:parse_file_as_options <- 0
	.loc	3 1569 9 is_stmt 1              @ rt-thread/components/net/lwip-2.0.2/src/core/ipv4/dhcp.c:1569:9
	cmp	r0, #4
	bne.w	.LBB34_67
.Ltmp664:
@ %bb.39:                               @   in Loop: Header=BB34_12 Depth=2
	@DEBUG_VALUE: dhcp_parse_reply:offset_max <- [DW_OP_plus_uconst 28] [$sp+0]
	@DEBUG_VALUE: dhcp_parse_reply:offset <- $r7
	@DEBUG_VALUE: dhcp_parse_reply:q <- $r4
	@DEBUG_VALUE: decode_len <- $r0
	@DEBUG_VALUE: len <- $r0
	@DEBUG_VALUE: dhcp_parse_reply:options <- [DW_OP_plus_uconst 24] [$sp+0]
	@DEBUG_VALUE: dhcp_parse_reply:parse_sname_as_options <- [DW_OP_plus_uconst 8] [$sp+0]
	@DEBUG_VALUE: decode_idx <- -1
	@DEBUG_VALUE: dhcp_parse_reply:dhcp <- [DW_OP_LLVM_entry_value 1] $r0
	@DEBUG_VALUE: dhcp_parse_reply:parse_file_as_options <- 0
	.loc	3 0 9 is_stmt 0                 @ rt-thread/components/net/lwip-2.0.2/src/core/ipv4/dhcp.c:0:9
	mov.w	r8, #2
	b	.LBB34_44
.Ltmp665:
.LBB34_40:                              @   in Loop: Header=BB34_12 Depth=2
	@DEBUG_VALUE: dhcp_parse_reply:offset_max <- [DW_OP_plus_uconst 28] [$sp+0]
	@DEBUG_VALUE: dhcp_parse_reply:offset <- $r7
	@DEBUG_VALUE: dhcp_parse_reply:q <- $r4
	@DEBUG_VALUE: decode_len <- $r0
	@DEBUG_VALUE: len <- $r0
	@DEBUG_VALUE: dhcp_parse_reply:options <- [DW_OP_plus_uconst 24] [$sp+0]
	@DEBUG_VALUE: dhcp_parse_reply:parse_sname_as_options <- [DW_OP_plus_uconst 8] [$sp+0]
	@DEBUG_VALUE: decode_idx <- -1
	@DEBUG_VALUE: dhcp_parse_reply:dhcp <- [DW_OP_LLVM_entry_value 1] $r0
	@DEBUG_VALUE: dhcp_parse_reply:parse_file_as_options <- 0
	.loc	3 1573 9 is_stmt 1              @ rt-thread/components/net/lwip-2.0.2/src/core/ipv4/dhcp.c:1573:9
	cmp	r0, #4
	bne.w	.LBB34_68
.Ltmp666:
@ %bb.41:                               @   in Loop: Header=BB34_12 Depth=2
	@DEBUG_VALUE: dhcp_parse_reply:offset_max <- [DW_OP_plus_uconst 28] [$sp+0]
	@DEBUG_VALUE: dhcp_parse_reply:offset <- $r7
	@DEBUG_VALUE: dhcp_parse_reply:q <- $r4
	@DEBUG_VALUE: decode_len <- $r0
	@DEBUG_VALUE: len <- $r0
	@DEBUG_VALUE: dhcp_parse_reply:options <- [DW_OP_plus_uconst 24] [$sp+0]
	@DEBUG_VALUE: dhcp_parse_reply:parse_sname_as_options <- [DW_OP_plus_uconst 8] [$sp+0]
	@DEBUG_VALUE: decode_idx <- -1
	@DEBUG_VALUE: dhcp_parse_reply:dhcp <- [DW_OP_LLVM_entry_value 1] $r0
	@DEBUG_VALUE: dhcp_parse_reply:parse_file_as_options <- 0
	.loc	3 0 9 is_stmt 0                 @ rt-thread/components/net/lwip-2.0.2/src/core/ipv4/dhcp.c:0:9
	mov.w	r8, #4
	b	.LBB34_44
.Ltmp667:
.LBB34_42:                              @   in Loop: Header=BB34_12 Depth=2
	@DEBUG_VALUE: dhcp_parse_reply:offset_max <- [DW_OP_plus_uconst 28] [$sp+0]
	@DEBUG_VALUE: dhcp_parse_reply:offset <- $r7
	@DEBUG_VALUE: dhcp_parse_reply:q <- $r4
	@DEBUG_VALUE: decode_len <- $r0
	@DEBUG_VALUE: len <- $r0
	@DEBUG_VALUE: dhcp_parse_reply:options <- [DW_OP_plus_uconst 24] [$sp+0]
	@DEBUG_VALUE: dhcp_parse_reply:parse_sname_as_options <- [DW_OP_plus_uconst 8] [$sp+0]
	@DEBUG_VALUE: decode_idx <- -1
	@DEBUG_VALUE: dhcp_parse_reply:dhcp <- [DW_OP_LLVM_entry_value 1] $r0
	@DEBUG_VALUE: dhcp_parse_reply:parse_file_as_options <- 0
	.loc	3 1577 9 is_stmt 1              @ rt-thread/components/net/lwip-2.0.2/src/core/ipv4/dhcp.c:1577:9
	cmp	r0, #4
	bne.w	.LBB34_69
.Ltmp668:
@ %bb.43:                               @   in Loop: Header=BB34_12 Depth=2
	@DEBUG_VALUE: dhcp_parse_reply:offset_max <- [DW_OP_plus_uconst 28] [$sp+0]
	@DEBUG_VALUE: dhcp_parse_reply:offset <- $r7
	@DEBUG_VALUE: dhcp_parse_reply:q <- $r4
	@DEBUG_VALUE: decode_len <- $r0
	@DEBUG_VALUE: len <- $r0
	@DEBUG_VALUE: dhcp_parse_reply:options <- [DW_OP_plus_uconst 24] [$sp+0]
	@DEBUG_VALUE: dhcp_parse_reply:parse_sname_as_options <- [DW_OP_plus_uconst 8] [$sp+0]
	@DEBUG_VALUE: decode_idx <- -1
	@DEBUG_VALUE: dhcp_parse_reply:dhcp <- [DW_OP_LLVM_entry_value 1] $r0
	@DEBUG_VALUE: dhcp_parse_reply:parse_file_as_options <- 0
	.loc	3 0 9 is_stmt 0                 @ rt-thread/components/net/lwip-2.0.2/src/core/ipv4/dhcp.c:0:9
	mov.w	r8, #5
.Ltmp669:
	.p2align	2
.LBB34_44:                              @   in Loop: Header=BB34_12 Depth=2
	@DEBUG_VALUE: dhcp_parse_reply:offset <- $r7
	@DEBUG_VALUE: dhcp_parse_reply:q <- $r4
	@DEBUG_VALUE: decode_len <- $r0
	@DEBUG_VALUE: len <- $r0
	@DEBUG_VALUE: dhcp_parse_reply:options <- [DW_OP_plus_uconst 24] [$sp+0]
	@DEBUG_VALUE: dhcp_parse_reply:parse_sname_as_options <- [DW_OP_plus_uconst 8] [$sp+0]
	@DEBUG_VALUE: decode_idx <- -1
	@DEBUG_VALUE: dhcp_parse_reply:dhcp <- [DW_OP_LLVM_entry_value 1] $r0
	@DEBUG_VALUE: dhcp_parse_reply:parse_file_as_options <- 0
	mov	r1, r7
.Ltmp670:
	mov	r9, r0
.Ltmp671:
.LBB34_45:                              @   in Loop: Header=BB34_12 Depth=2
	@DEBUG_VALUE: dhcp_parse_reply:q <- $r4
	@DEBUG_VALUE: dhcp_parse_reply:options <- [DW_OP_plus_uconst 24] [$sp+0]
	@DEBUG_VALUE: dhcp_parse_reply:parse_sname_as_options <- [DW_OP_plus_uconst 8] [$sp+0]
	@DEBUG_VALUE: dhcp_parse_reply:dhcp <- [DW_OP_LLVM_entry_value 1] $r0
	@DEBUG_VALUE: dhcp_parse_reply:parse_file_as_options <- 0
	@DEBUG_VALUE: dhcp_parse_reply:offset <- $r1
	@DEBUG_VALUE: decode_len <- $r9
	@DEBUG_VALUE: decode_idx <- $r8
	@DEBUG_VALUE: val_offset <- undef
	@DEBUG_VALUE: len <- $r0
	.loc	3 1585 19 is_stmt 1             @ rt-thread/components/net/lwip-2.0.2/src/core/ipv4/dhcp.c:1585:19
	add	r0, r1
.Ltmp672:
	.loc	3 1586 9                        @ rt-thread/components/net/lwip-2.0.2/src/core/ipv4/dhcp.c:1586:9
	cmp.w	r9, #0
	.loc	3 1585 12                       @ rt-thread/components/net/lwip-2.0.2/src/core/ipv4/dhcp.c:1585:12
	add.w	r0, r0, #2
.Ltmp673:
	@DEBUG_VALUE: dhcp_parse_reply:offset <- $r0
	.loc	3 1586 9                        @ rt-thread/components/net/lwip-2.0.2/src/core/ipv4/dhcp.c:1586:9
	str	r0, [sp, #20]                   @ 4-byte Spill
.Ltmp674:
	@DEBUG_VALUE: dhcp_parse_reply:offset <- [DW_OP_plus_uconst 20] [$sp+0]
	@DEBUG_VALUE: dhcp_parse_reply:offset <- [DW_OP_plus_uconst 20] [$sp+0]
	@DEBUG_VALUE: dhcp_parse_reply:offset <- [DW_OP_plus_uconst 20] [$sp+0]
	beq	.LBB34_53
.Ltmp675:
@ %bb.46:                               @   in Loop: Header=BB34_12 Depth=2
	@DEBUG_VALUE: decode_len <- $r9
	@DEBUG_VALUE: decode_idx <- $r8
	@DEBUG_VALUE: dhcp_parse_reply:q <- $r4
	@DEBUG_VALUE: dhcp_parse_reply:offset <- [DW_OP_plus_uconst 20] [$sp+0]
	@DEBUG_VALUE: dhcp_parse_reply:options <- [DW_OP_plus_uconst 24] [$sp+0]
	@DEBUG_VALUE: dhcp_parse_reply:parse_sname_as_options <- [DW_OP_plus_uconst 8] [$sp+0]
	@DEBUG_VALUE: dhcp_parse_reply:dhcp <- [DW_OP_LLVM_entry_value 1] $r0
	@DEBUG_VALUE: dhcp_parse_reply:parse_file_as_options <- 0
	.loc	3 0 9 is_stmt 0                 @ rt-thread/components/net/lwip-2.0.2/src/core/ipv4/dhcp.c:0:9
	adds	r7, #2
.Ltmp676:
	@DEBUG_VALUE: val_offset <- $r7
	str.w	r12, [sp, #16]                  @ 4-byte Spill
.Ltmp677:
	.loc	3 1587 13 is_stmt 1             @ rt-thread/components/net/lwip-2.0.2/src/core/ipv4/dhcp.c:1587:13
	movs	r0, #0
.Ltmp678:
	@DEBUG_VALUE: value <- 0
	str	r0, [sp, #32]
	@DEBUG_VALUE: decode_len <- $r9
	@DEBUG_VALUE: decode_idx <- $r8
	@DEBUG_VALUE: val_offset <- $r7
	@DEBUG_LABEL: decode_next
.Ltmp679:
	.loc	3 1590 7                        @ rt-thread/components/net/lwip-2.0.2/src/core/ipv4/dhcp.c:1590:7
	cmp.w	r8, #10
	blo	.LBB34_48
.Ltmp680:
	.p2align	2
.LBB34_47:                              @   in Loop: Header=BB34_12 Depth=2
	@DEBUG_VALUE: decode_len <- $r9
	@DEBUG_VALUE: decode_idx <- $r8
	@DEBUG_VALUE: val_offset <- $r7
	@DEBUG_VALUE: dhcp_parse_reply:q <- $r4
	@DEBUG_VALUE: dhcp_parse_reply:offset <- [DW_OP_plus_uconst 20] [$sp+0]
	@DEBUG_VALUE: dhcp_parse_reply:options <- [DW_OP_plus_uconst 24] [$sp+0]
	@DEBUG_VALUE: dhcp_parse_reply:parse_sname_as_options <- [DW_OP_plus_uconst 8] [$sp+0]
	@DEBUG_VALUE: dhcp_parse_reply:dhcp <- [DW_OP_LLVM_entry_value 1] $r0
	@DEBUG_VALUE: dhcp_parse_reply:parse_file_as_options <- 0
	.loc	3 1590 7 is_stmt 0              @ rt-thread/components/net/lwip-2.0.2/src/core/ipv4/dhcp.c:1590:7
	adr	r0, .LCPI34_3
	bl	rt_kprintf
	movw	r0, :lower16:.L.str.1
	movw	r1, #1590
	movt	r0, :upper16:.L.str.1
	bl	sys_arch_assert
.Ltmp681:
.LBB34_48:                              @   Parent Loop BB34_4 Depth=1
                                        @     Parent Loop BB34_12 Depth=2
                                        @ =>    This Inner Loop Header: Depth=3
	@DEBUG_VALUE: decode_len <- $r9
	@DEBUG_VALUE: decode_idx <- $r8
	@DEBUG_VALUE: val_offset <- $r7
	@DEBUG_VALUE: dhcp_parse_reply:q <- $r4
	@DEBUG_VALUE: dhcp_parse_reply:offset <- [DW_OP_plus_uconst 20] [$sp+0]
	@DEBUG_VALUE: dhcp_parse_reply:options <- [DW_OP_plus_uconst 24] [$sp+0]
	@DEBUG_VALUE: dhcp_parse_reply:parse_sname_as_options <- [DW_OP_plus_uconst 8] [$sp+0]
	@DEBUG_VALUE: dhcp_parse_reply:dhcp <- [DW_OP_LLVM_entry_value 1] $r0
	@DEBUG_VALUE: dhcp_parse_reply:parse_file_as_options <- 0
	.loc	3 1591 12 is_stmt 1             @ rt-thread/components/net/lwip-2.0.2/src/core/ipv4/dhcp.c:1591:12
	ldrb.w	r11, [r5, r8]
.Ltmp682:
	.loc	3 1591 11 is_stmt 0             @ rt-thread/components/net/lwip-2.0.2/src/core/ipv4/dhcp.c:1591:11
	cmp.w	r11, #0
	bne	.LBB34_54
.Ltmp683:
@ %bb.49:                               @   in Loop: Header=BB34_48 Depth=3
	@DEBUG_VALUE: decode_len <- $r9
	@DEBUG_VALUE: decode_idx <- $r8
	@DEBUG_VALUE: val_offset <- $r7
	@DEBUG_VALUE: dhcp_parse_reply:q <- $r4
	@DEBUG_VALUE: dhcp_parse_reply:offset <- [DW_OP_plus_uconst 20] [$sp+0]
	@DEBUG_VALUE: dhcp_parse_reply:options <- [DW_OP_plus_uconst 24] [$sp+0]
	@DEBUG_VALUE: dhcp_parse_reply:parse_sname_as_options <- [DW_OP_plus_uconst 8] [$sp+0]
	@DEBUG_VALUE: dhcp_parse_reply:dhcp <- [DW_OP_LLVM_entry_value 1] $r0
	@DEBUG_VALUE: dhcp_parse_reply:parse_file_as_options <- 0
	.loc	3 1593 13 is_stmt 1             @ rt-thread/components/net/lwip-2.0.2/src/core/ipv4/dhcp.c:1593:13
	uxth	r3, r7
	mov	r6, r5
.Ltmp684:
	.loc	3 1592 20                       @ rt-thread/components/net/lwip-2.0.2/src/core/ipv4/dhcp.c:1592:20
	uxtb.w	r5, r9
.Ltmp685:
	.loc	3 1593 13                       @ rt-thread/components/net/lwip-2.0.2/src/core/ipv4/dhcp.c:1593:13
	mov	r0, r4
.Ltmp686:
	.loc	3 1592 20                       @ rt-thread/components/net/lwip-2.0.2/src/core/ipv4/dhcp.c:1592:20
	mov	r10, r5
	cmp	r5, #4
	it	hs
	movhs.w	r10, #4
.Ltmp687:
	@DEBUG_VALUE: copy_len <- undef
	@DEBUG_VALUE: value <- [DW_OP_plus_uconst 32, DW_OP_deref] $sp
	.loc	3 1593 13                       @ rt-thread/components/net/lwip-2.0.2/src/core/ipv4/dhcp.c:1593:13
	add	r1, sp, #32
	mov	r2, r10
	bl	pbuf_copy_partial
.Ltmp688:
	.loc	3 1593 13 is_stmt 0             @ rt-thread/components/net/lwip-2.0.2/src/core/ipv4/dhcp.c:1593:13
	cmp	r10, r0
	bne	.LBB34_55
.Ltmp689:
@ %bb.50:                               @   in Loop: Header=BB34_48 Depth=3
	@DEBUG_VALUE: decode_len <- $r9
	@DEBUG_VALUE: decode_idx <- $r8
	@DEBUG_VALUE: val_offset <- $r7
	@DEBUG_VALUE: dhcp_parse_reply:q <- $r4
	@DEBUG_VALUE: value <- [DW_OP_plus_uconst 32, DW_OP_deref] $sp
	@DEBUG_VALUE: dhcp_parse_reply:offset <- [DW_OP_plus_uconst 20] [$sp+0]
	@DEBUG_VALUE: dhcp_parse_reply:options <- [DW_OP_plus_uconst 24] [$sp+0]
	@DEBUG_VALUE: dhcp_parse_reply:parse_sname_as_options <- [DW_OP_plus_uconst 8] [$sp+0]
	@DEBUG_VALUE: dhcp_parse_reply:dhcp <- [DW_OP_LLVM_entry_value 1] $r0
	@DEBUG_VALUE: dhcp_parse_reply:parse_file_as_options <- 0
	.loc	3 1596 13 is_stmt 1             @ rt-thread/components/net/lwip-2.0.2/src/core/ipv4/dhcp.c:1596:13
	cmp	r5, #5
	blo	.LBB34_57
.Ltmp690:
@ %bb.51:                               @   in Loop: Header=BB34_48 Depth=3
	@DEBUG_VALUE: decode_len <- $r9
	@DEBUG_VALUE: decode_idx <- $r8
	@DEBUG_VALUE: val_offset <- $r7
	@DEBUG_VALUE: dhcp_parse_reply:q <- $r4
	@DEBUG_VALUE: value <- [DW_OP_plus_uconst 32, DW_OP_deref] $sp
	@DEBUG_VALUE: dhcp_parse_reply:offset <- [DW_OP_plus_uconst 20] [$sp+0]
	@DEBUG_VALUE: dhcp_parse_reply:options <- [DW_OP_plus_uconst 24] [$sp+0]
	@DEBUG_VALUE: dhcp_parse_reply:parse_sname_as_options <- [DW_OP_plus_uconst 8] [$sp+0]
	@DEBUG_VALUE: dhcp_parse_reply:dhcp <- [DW_OP_LLVM_entry_value 1] $r0
	@DEBUG_VALUE: dhcp_parse_reply:parse_file_as_options <- 0
	.loc	3 1598 11                       @ rt-thread/components/net/lwip-2.0.2/src/core/ipv4/dhcp.c:1598:11
	lsls	r0, r5, #30
	bne	.LBB34_60
.Ltmp691:
@ %bb.52:                               @   in Loop: Header=BB34_48 Depth=3
	@DEBUG_VALUE: decode_len <- $r9
	@DEBUG_VALUE: decode_idx <- $r8
	@DEBUG_VALUE: val_offset <- $r7
	@DEBUG_VALUE: dhcp_parse_reply:q <- $r4
	@DEBUG_VALUE: value <- [DW_OP_plus_uconst 32, DW_OP_deref] $sp
	@DEBUG_VALUE: dhcp_parse_reply:offset <- [DW_OP_plus_uconst 20] [$sp+0]
	@DEBUG_VALUE: dhcp_parse_reply:options <- [DW_OP_plus_uconst 24] [$sp+0]
	@DEBUG_VALUE: dhcp_parse_reply:parse_sname_as_options <- [DW_OP_plus_uconst 8] [$sp+0]
	@DEBUG_VALUE: dhcp_parse_reply:dhcp <- [DW_OP_LLVM_entry_value 1] $r0
	@DEBUG_VALUE: dhcp_parse_reply:parse_file_as_options <- 0
	.loc	3 1599 11                       @ rt-thread/components/net/lwip-2.0.2/src/core/ipv4/dhcp.c:1599:11
	movs	r0, #1
	strb.w	r0, [r6, r8]
	.loc	3 1600 11                       @ rt-thread/components/net/lwip-2.0.2/src/core/ipv4/dhcp.c:1600:11
	ldr	r0, [sp, #32]
.Ltmp692:
	@DEBUG_VALUE: value <- $r0
	.loc	3 0 11 is_stmt 0                @ rt-thread/components/net/lwip-2.0.2/src/core/ipv4/dhcp.c:0:11
	mov	r5, r6
	.loc	3 1600 11                       @ rt-thread/components/net/lwip-2.0.2/src/core/ipv4/dhcp.c:1600:11
	bl	lwip_htonl
.Ltmp693:
	movw	r1, :lower16:dhcp_rx_options_val
	.loc	3 1601 22 is_stmt 1             @ rt-thread/components/net/lwip-2.0.2/src/core/ipv4/dhcp.c:1601:22
	sub.w	r9, r9, #4
.Ltmp694:
	@DEBUG_VALUE: decode_len <- $r9
	.loc	3 1600 11                       @ rt-thread/components/net/lwip-2.0.2/src/core/ipv4/dhcp.c:1600:11
	movt	r1, :upper16:dhcp_rx_options_val
	.loc	3 1602 22                       @ rt-thread/components/net/lwip-2.0.2/src/core/ipv4/dhcp.c:1602:22
	adds	r7, #4
.Ltmp695:
	@DEBUG_VALUE: val_offset <- $r7
	.loc	3 1600 11                       @ rt-thread/components/net/lwip-2.0.2/src/core/ipv4/dhcp.c:1600:11
	str.w	r0, [r1, r8, lsl #2]
	.loc	3 1603 21                       @ rt-thread/components/net/lwip-2.0.2/src/core/ipv4/dhcp.c:1603:21
	add.w	r8, r8, #1
.Ltmp696:
	@DEBUG_VALUE: decode_idx <- $r8
	@DEBUG_VALUE: decode_len <- $r9
	@DEBUG_VALUE: decode_idx <- $r8
	@DEBUG_VALUE: val_offset <- $r7
	@DEBUG_LABEL: decode_next
	.loc	3 1590 7                        @ rt-thread/components/net/lwip-2.0.2/src/core/ipv4/dhcp.c:1590:7
	cmp.w	r8, #10
	bhs	.LBB34_47
	b	.LBB34_48
.Ltmp697:
.LBB34_53:                              @   in Loop: Header=BB34_12 Depth=2
	@DEBUG_VALUE: decode_len <- $r9
	@DEBUG_VALUE: decode_idx <- $r8
	@DEBUG_VALUE: dhcp_parse_reply:q <- $r4
	@DEBUG_VALUE: dhcp_parse_reply:offset <- [DW_OP_plus_uconst 20] [$sp+0]
	@DEBUG_VALUE: dhcp_parse_reply:options <- [DW_OP_plus_uconst 24] [$sp+0]
	@DEBUG_VALUE: dhcp_parse_reply:parse_sname_as_options <- [DW_OP_plus_uconst 8] [$sp+0]
	@DEBUG_VALUE: dhcp_parse_reply:dhcp <- [DW_OP_LLVM_entry_value 1] $r0
	@DEBUG_VALUE: dhcp_parse_reply:parse_file_as_options <- 0
	.loc	3 0 7 is_stmt 0                 @ rt-thread/components/net/lwip-2.0.2/src/core/ipv4/dhcp.c:0:7
	ldr	r6, [sp, #28]                   @ 4-byte Reload
	ldr	r7, [sp, #20]                   @ 4-byte Reload
	b	.LBB34_79
.Ltmp698:
.LBB34_54:                              @   in Loop: Header=BB34_12 Depth=2
	@DEBUG_VALUE: decode_len <- $r9
	@DEBUG_VALUE: decode_idx <- $r8
	@DEBUG_VALUE: val_offset <- $r7
	@DEBUG_VALUE: dhcp_parse_reply:q <- $r4
	@DEBUG_VALUE: dhcp_parse_reply:offset <- [DW_OP_plus_uconst 20] [$sp+0]
	@DEBUG_VALUE: dhcp_parse_reply:options <- [DW_OP_plus_uconst 24] [$sp+0]
	@DEBUG_VALUE: dhcp_parse_reply:parse_sname_as_options <- [DW_OP_plus_uconst 8] [$sp+0]
	@DEBUG_VALUE: dhcp_parse_reply:dhcp <- [DW_OP_LLVM_entry_value 1] $r0
	@DEBUG_VALUE: dhcp_parse_reply:parse_file_as_options <- 0
	ldr.w	r12, [sp, #16]                  @ 4-byte Reload
	b	.LBB34_56
.Ltmp699:
.LBB34_55:                              @   in Loop: Header=BB34_12 Depth=2
	@DEBUG_VALUE: decode_len <- $r9
	@DEBUG_VALUE: decode_idx <- $r8
	@DEBUG_VALUE: val_offset <- $r7
	@DEBUG_VALUE: dhcp_parse_reply:q <- $r4
	@DEBUG_VALUE: value <- [DW_OP_plus_uconst 32, DW_OP_deref] $sp
	@DEBUG_VALUE: dhcp_parse_reply:offset <- [DW_OP_plus_uconst 20] [$sp+0]
	@DEBUG_VALUE: dhcp_parse_reply:options <- [DW_OP_plus_uconst 24] [$sp+0]
	@DEBUG_VALUE: dhcp_parse_reply:parse_sname_as_options <- [DW_OP_plus_uconst 8] [$sp+0]
	@DEBUG_VALUE: dhcp_parse_reply:dhcp <- [DW_OP_LLVM_entry_value 1] $r0
	@DEBUG_VALUE: dhcp_parse_reply:parse_file_as_options <- 0
	mov.w	r12, #254
	mov	r5, r6
.Ltmp700:
.LBB34_56:                              @   in Loop: Header=BB34_12 Depth=2
	@DEBUG_VALUE: decode_len <- $r9
	@DEBUG_VALUE: decode_idx <- $r8
	@DEBUG_VALUE: val_offset <- $r7
	@DEBUG_VALUE: dhcp_parse_reply:q <- $r4
	@DEBUG_VALUE: dhcp_parse_reply:offset <- [DW_OP_plus_uconst 20] [$sp+0]
	@DEBUG_VALUE: dhcp_parse_reply:options <- [DW_OP_plus_uconst 24] [$sp+0]
	@DEBUG_VALUE: dhcp_parse_reply:parse_sname_as_options <- [DW_OP_plus_uconst 8] [$sp+0]
	@DEBUG_VALUE: dhcp_parse_reply:dhcp <- [DW_OP_LLVM_entry_value 1] $r0
	@DEBUG_VALUE: dhcp_parse_reply:parse_file_as_options <- 0
	.loc	3 1591 12 is_stmt 1             @ rt-thread/components/net/lwip-2.0.2/src/core/ipv4/dhcp.c:1591:12
	cmp.w	r11, #0
	it	ne
	movne.w	r11, #1
	b	.LBB34_78
.Ltmp701:
.LBB34_57:                              @   in Loop: Header=BB34_12 Depth=2
	@DEBUG_VALUE: decode_len <- $r9
	@DEBUG_VALUE: decode_idx <- $r8
	@DEBUG_VALUE: val_offset <- $r7
	@DEBUG_VALUE: dhcp_parse_reply:q <- $r4
	@DEBUG_VALUE: value <- [DW_OP_plus_uconst 32, DW_OP_deref] $sp
	@DEBUG_VALUE: dhcp_parse_reply:offset <- [DW_OP_plus_uconst 20] [$sp+0]
	@DEBUG_VALUE: dhcp_parse_reply:options <- [DW_OP_plus_uconst 24] [$sp+0]
