	.text
	.syntax unified
	.eabi_attribute	67, "2.09"	@ Tag_conformance
	.cpu	cortex-m7
	.eabi_attribute	6, 13	@ Tag_CPU_arch
	.eabi_attribute	7, 77	@ Tag_CPU_arch_profile
	.eabi_attribute	8, 0	@ Tag_ARM_ISA_use
	.eabi_attribute	9, 2	@ Tag_THUMB_ISA_use
	.fpu	fpv5-d16
	.eabi_attribute	36, 1	@ Tag_FP_HP_extension
	.eabi_attribute	34, 1	@ Tag_CPU_unaligned_access
	.eabi_attribute	17, 1	@ Tag_ABI_PCS_GOT_use
	.eabi_attribute	20, 2	@ Tag_ABI_FP_denormal
	.eabi_attribute	21, 0	@ Tag_ABI_FP_exceptions
	.eabi_attribute	23, 1	@ Tag_ABI_FP_number_model
	.eabi_attribute	24, 1	@ Tag_ABI_align_needed
	.eabi_attribute	25, 1	@ Tag_ABI_align_preserved
	.eabi_attribute	28, 1	@ Tag_ABI_VFP_args
	.eabi_attribute	38, 1	@ Tag_ABI_FP_16bit_format
	.eabi_attribute	18, 2	@ Tag_ABI_PCS_wchar_t
	.eabi_attribute	26, 1	@ Tag_ABI_enum_size
	.eabi_attribute	14, 0	@ Tag_ABI_PCS_R9_use
	.file	"dns.c"
	.file	1 "D:\\Keil_v5\\ARM\\ARMCLANG\\Bin\\..\\include" "stdint.h"
	.file	2 "E:\\Smart-access-control\\Hardware\\CODE" "./rt-thread/components/net/lwip-2.0.2/src/include\\lwip/arch.h"
	.file	3 "E:\\Smart-access-control\\Hardware\\CODE" "./rt-thread/components/net/lwip-2.0.2/src/include\\lwip/ip4_addr.h"
	.file	4 "E:\\Smart-access-control\\Hardware\\CODE" "./rt-thread/components/net/lwip-2.0.2/src/include\\lwip/ip_addr.h"
	.file	5 "E:\\Smart-access-control\\Hardware\\CODE" "rt-thread/components/net/lwip-2.0.2/src/core/dns.c"
	.file	6 "E:\\Smart-access-control\\Hardware\\CODE" "./rt-thread/components/net/lwip-2.0.2/src/include\\lwip/udp.h"
	.file	7 "E:\\Smart-access-control\\Hardware\\CODE" "./rt-thread/components/net/lwip-2.0.2/src/include\\lwip/pbuf.h"
	.file	8 "E:\\Smart-access-control\\Hardware\\CODE" "./rt-thread/components/net/lwip-2.0.2/src/include\\lwip/dns.h"
	.file	9 "E:\\Smart-access-control\\Hardware\\CODE" "./rt-thread/components/net/lwip-2.0.2/src/include\\lwip/netif.h"
	.file	10 "E:\\Smart-access-control\\Hardware\\CODE" "./rt-thread/components/net/lwip-2.0.2/src/include\\lwip/err.h"
	.section	.text.dns_init,"ax",%progbits
	.hidden	dns_init                        @ -- Begin function dns_init
	.globl	dns_init
	.p2align	3
	.type	dns_init,%function
	.code	16                              @ @dns_init
	.thumb_func
dns_init:
.Lfunc_begin0:
	.loc	5 321 0                         @ rt-thread/components/net/lwip-2.0.2/src/core/dns.c:321:0
	.fnstart
	.cfi_sections .debug_frame
	.cfi_startproc
@ %bb.0:
	.loc	5 356 1 prologue_end            @ rt-thread/components/net/lwip-2.0.2/src/core/dns.c:356:1
	bx	lr
.Ltmp0:
.Lfunc_end0:
	.size	dns_init, .Lfunc_end0-dns_init
	.cfi_endproc
	.cantunwind
	.fnend
                                        @ -- End function
	.section	.text.dns_setserver,"ax",%progbits
	.hidden	dns_setserver                   @ -- Begin function dns_setserver
	.globl	dns_setserver
	.p2align	3
	.type	dns_setserver,%function
	.code	16                              @ @dns_setserver
	.thumb_func
dns_setserver:
.Lfunc_begin1:
	.loc	5 367 0                         @ rt-thread/components/net/lwip-2.0.2/src/core/dns.c:367:0
	.fnstart
	.cfi_startproc
@ %bb.0:
	@DEBUG_VALUE: dns_setserver:numdns <- $r0
	@DEBUG_VALUE: dns_setserver:dnsserver <- $r1
	@DEBUG_VALUE: dns_setserver:numdns <- $r0
	.save	{r4, r5, r6, lr}
	push	{r4, r5, r6, lr}
	.cfi_def_cfa_offset 16
	.cfi_offset lr, -4
	.cfi_offset r6, -8
	.cfi_offset r5, -12
	.cfi_offset r4, -16
.Ltmp1:
	.loc	5 368 7 prologue_end            @ rt-thread/components/net/lwip-2.0.2/src/core/dns.c:368:7
	cmp	r0, #1
	@DEBUG_VALUE: dns_setserver:dnsserver <- $r1
	bhi	.LBB1_4
.Ltmp2:
@ %bb.1:
	@DEBUG_VALUE: dns_setserver:dnsserver <- $r1
	@DEBUG_VALUE: dns_setserver:numdns <- $r0
	.loc	5 0 7 is_stmt 0                 @ rt-thread/components/net/lwip-2.0.2/src/core/dns.c:0:7
	mov	r4, r0
.Ltmp3:
	@DEBUG_VALUE: dns_setserver:numdns <- $r4
	@DEBUG_VALUE: dns_setserver:numdns <- $r4
	mov	r5, r1
.Ltmp4:
	@DEBUG_VALUE: dns_setserver:dnsserver <- $r5
	.loc	5 369 9 is_stmt 1               @ rt-thread/components/net/lwip-2.0.2/src/core/dns.c:369:9
	cbz	r1, .LBB1_5
.Ltmp5:
@ %bb.2:
	@DEBUG_VALUE: dns_setserver:dnsserver <- $r5
	@DEBUG_VALUE: dns_setserver:numdns <- $r4
	.loc	5 0 0 is_stmt 0                 @ rt-thread/components/net/lwip-2.0.2/src/core/dns.c:0:0
	movw	r0, :lower16:netif_list
.Ltmp6:
	.loc	5 370 30 is_stmt 1              @ rt-thread/components/net/lwip-2.0.2/src/core/dns.c:370:30
	ldr	r1, [r5]
.Ltmp7:
	.loc	5 0 0 is_stmt 0                 @ rt-thread/components/net/lwip-2.0.2/src/core/dns.c:0:0
	movt	r0, :upper16:netif_list
	ldr	r6, [r0]
.Ltmp8:
	@DEBUG_VALUE: netif <- $r6
	.loc	5 370 30                        @ rt-thread/components/net/lwip-2.0.2/src/core/dns.c:370:30
	movw	r0, :lower16:dns_servers
	movt	r0, :upper16:dns_servers
.Ltmp9:
	.loc	5 379 7 is_stmt 1               @ rt-thread/components/net/lwip-2.0.2/src/core/dns.c:379:7
	cmp	r6, #0
.Ltmp10:
	.loc	5 370 30                        @ rt-thread/components/net/lwip-2.0.2/src/core/dns.c:370:30
	str.w	r1, [r0, r4, lsl #2]
.Ltmp11:
	@DEBUG_VALUE: netif <- undef
	.loc	5 387 1                         @ rt-thread/components/net/lwip-2.0.2/src/core/dns.c:387:1
	it	eq
	popeq	{r4, r5, r6, pc}
.Ltmp12:
	.p2align	2
.LBB1_3:                                @ =>This Inner Loop Header: Depth=1
	.loc	5 380 60                        @ rt-thread/components/net/lwip-2.0.2/src/core/dns.c:380:60
	add.w	r0, r6, #66
	.loc	5 380 41 is_stmt 0              @ rt-thread/components/net/lwip-2.0.2/src/core/dns.c:380:41
	bl	netdev_get_by_name
	.loc	5 380 9                         @ rt-thread/components/net/lwip-2.0.2/src/core/dns.c:380:9
	mov	r1, r4
	mov	r2, r5
	bl	netdev_low_level_set_dns_server
.Ltmp13:
	@DEBUG_VALUE: netif <- undef
	.loc	5 0 0                           @ rt-thread/components/net/lwip-2.0.2/src/core/dns.c:0:0
	ldr	r6, [r6]
.Ltmp14:
	@DEBUG_VALUE: netif <- $r6
	.loc	5 379 7 is_stmt 1               @ rt-thread/components/net/lwip-2.0.2/src/core/dns.c:379:7
	cmp	r6, #0
	bne	.LBB1_3
.Ltmp15:
.LBB1_4:
	.loc	5 387 1                         @ rt-thread/components/net/lwip-2.0.2/src/core/dns.c:387:1
	pop	{r4, r5, r6, pc}
.LBB1_5:
.Ltmp16:
	@DEBUG_VALUE: dns_setserver:dnsserver <- $r5
	@DEBUG_VALUE: dns_setserver:numdns <- $r4
	.loc	5 384 29                        @ rt-thread/components/net/lwip-2.0.2/src/core/dns.c:384:29
	movw	r0, :lower16:dns_servers
	movw	r1, :lower16:ip_addr_any
	movt	r0, :upper16:dns_servers
	movt	r1, :upper16:ip_addr_any
	ldr	r1, [r1]
	str.w	r1, [r0, r4, lsl #2]
.Ltmp17:
	.loc	5 387 1                         @ rt-thread/components/net/lwip-2.0.2/src/core/dns.c:387:1
	pop	{r4, r5, r6, pc}
.Ltmp18:
.Lfunc_end1:
	.size	dns_setserver, .Lfunc_end1-dns_setserver
	.cfi_endproc
	.cantunwind
	.fnend
                                        @ -- End function
	.section	.text.dns_getserver,"ax",%progbits
	.hidden	dns_getserver                   @ -- Begin function dns_getserver
	.globl	dns_getserver
	.p2align	3
	.type	dns_getserver,%function
	.code	16                              @ @dns_getserver
	.thumb_func
dns_getserver:
.Lfunc_begin2:
	.loc	5 399 0                         @ rt-thread/components/net/lwip-2.0.2/src/core/dns.c:399:0
	.fnstart
	.cfi_startproc
@ %bb.0:
	@DEBUG_VALUE: dns_getserver:numdns <- $r0
	@DEBUG_VALUE: dns_getserver:numdns <- $r0
	.loc	5 400 7 prologue_end            @ rt-thread/components/net/lwip-2.0.2/src/core/dns.c:400:7
	movw	r2, :lower16:dns_servers
	movw	r1, :lower16:ip_addr_any
	movt	r2, :upper16:dns_servers
	movt	r1, :upper16:ip_addr_any
	cmp	r0, #2
	it	lo
	addlo.w	r1, r2, r0, lsl #2
	.loc	5 405 1                         @ rt-thread/components/net/lwip-2.0.2/src/core/dns.c:405:1
	mov	r0, r1
.Ltmp19:
	@DEBUG_VALUE: dns_getserver:numdns <- [DW_OP_LLVM_entry_value 1] $r0
	bx	lr
.Ltmp20:
.Lfunc_end2:
	.size	dns_getserver, .Lfunc_end2-dns_getserver
	.cfi_endproc
	.cantunwind
	.fnend
                                        @ -- End function
	.section	.text.dns_tmr,"ax",%progbits
	.hidden	dns_tmr                         @ -- Begin function dns_tmr
	.globl	dns_tmr
	.p2align	3
	.type	dns_tmr,%function
	.code	16                              @ @dns_tmr
	.thumb_func
dns_tmr:
.Lfunc_begin3:
	.loc	5 413 0                         @ rt-thread/components/net/lwip-2.0.2/src/core/dns.c:413:0
	.fnstart
	.cfi_startproc
@ %bb.0:
	.save	{r7, lr}
	push	{r7, lr}
	.cfi_def_cfa_offset 8
	.cfi_offset lr, -4
	.cfi_offset r7, -8
.Ltmp21:
	.loc	5 415 3 prologue_end            @ rt-thread/components/net/lwip-2.0.2/src/core/dns.c:415:3
	bl	dns_check_entries
	.loc	5 416 1                         @ rt-thread/components/net/lwip-2.0.2/src/core/dns.c:416:1
	pop	{r7, pc}
.Ltmp22:
.Lfunc_end3:
	.size	dns_tmr, .Lfunc_end3-dns_tmr
	.cfi_endproc
	.cantunwind
	.fnend
                                        @ -- End function
	.section	.text.dns_check_entries,"ax",%progbits
	.p2align	3                               @ -- Begin function dns_check_entries
	.type	dns_check_entries,%function
	.code	16                              @ @dns_check_entries
	.thumb_func
dns_check_entries:
.Lfunc_begin4:
	.loc	5 1103 0                        @ rt-thread/components/net/lwip-2.0.2/src/core/dns.c:1103:0
	.fnstart
	.cfi_startproc
@ %bb.0:
	.save	{r4, r5, r7, lr}
	push	{r4, r5, r7, lr}
	.cfi_def_cfa_offset 16
	.cfi_offset lr, -4
	.cfi_offset r7, -8
	.cfi_offset r5, -12
	.cfi_offset r4, -16
	movs	r5, #0
.Ltmp23:
	@DEBUG_VALUE: dns_check_entries:i <- 0
	.p2align	2
.LBB4_1:                                @ =>This Inner Loop Header: Depth=1
	@DEBUG_VALUE: dns_check_entries:i <- $r5
	.loc	5 1107 5 prologue_end           @ rt-thread/components/net/lwip-2.0.2/src/core/dns.c:1107:5
	uxtb	r4, r5
	mov	r0, r4
	bl	dns_check_entry
.Ltmp24:
	.loc	5 1106 3                        @ rt-thread/components/net/lwip-2.0.2/src/core/dns.c:1106:3
	cmp	r4, #3
.Ltmp25:
	.loc	5 1106 35 is_stmt 0             @ rt-thread/components/net/lwip-2.0.2/src/core/dns.c:1106:35
	add.w	r5, r5, #1
.Ltmp26:
	@DEBUG_VALUE: dns_check_entries:i <- $r5
	.loc	5 1106 3                        @ rt-thread/components/net/lwip-2.0.2/src/core/dns.c:1106:3
	blo	.LBB4_1
.Ltmp27:
@ %bb.2:
	@DEBUG_VALUE: dns_check_entries:i <- $r5
	.loc	5 1109 1 is_stmt 1              @ rt-thread/components/net/lwip-2.0.2/src/core/dns.c:1109:1
	pop	{r4, r5, r7, pc}
.Ltmp28:
.Lfunc_end4:
	.size	dns_check_entries, .Lfunc_end4-dns_check_entries
	.cfi_endproc
	.cantunwind
	.fnend
                                        @ -- End function
	.section	.text.dns_gethostbyname,"ax",%progbits
	.hidden	dns_gethostbyname               @ -- Begin function dns_gethostbyname
	.globl	dns_gethostbyname
	.p2align	3
	.type	dns_gethostbyname,%function
	.code	16                              @ @dns_gethostbyname
	.thumb_func
dns_gethostbyname:
.Lfunc_begin5:
	.loc	5 1484 0                        @ rt-thread/components/net/lwip-2.0.2/src/core/dns.c:1484:0
	.fnstart
	.cfi_startproc
@ %bb.0:
	@DEBUG_VALUE: dns_gethostbyname:hostname <- $r0
	@DEBUG_VALUE: dns_gethostbyname:hostname <- $r0
	@DEBUG_VALUE: dns_gethostbyname:addr <- $r1
	@DEBUG_VALUE: dns_gethostbyname:addr <- $r1
	@DEBUG_VALUE: dns_gethostbyname:found <- $r2
	@DEBUG_VALUE: dns_gethostbyname:found <- $r2
	@DEBUG_VALUE: dns_gethostbyname:callback_arg <- $r3
	@DEBUG_VALUE: dns_gethostbyname:callback_arg <- $r3
	.save	{r7, lr}
	push	{r7, lr}
	.cfi_def_cfa_offset 8
	.cfi_offset lr, -4
	.cfi_offset r7, -8
	.pad	#8
	sub	sp, #8
	.cfi_def_cfa_offset 16
	mov.w	r12, #0
.Ltmp29:
	.loc	5 1485 10 prologue_end          @ rt-thread/components/net/lwip-2.0.2/src/core/dns.c:1485:10
	str.w	r12, [sp]
	@DEBUG_VALUE: dns_gethostbyname:callback_arg <- $r3
	@DEBUG_VALUE: dns_gethostbyname:found <- $r2
	@DEBUG_VALUE: dns_gethostbyname:addr <- $r1
	@DEBUG_VALUE: dns_gethostbyname:hostname <- $r0
	bl	dns_gethostbyname_addrtype
.Ltmp30:
	@DEBUG_VALUE: dns_gethostbyname:callback_arg <- [DW_OP_LLVM_entry_value 1] $r3
	@DEBUG_VALUE: dns_gethostbyname:found <- [DW_OP_LLVM_entry_value 1] $r2
	@DEBUG_VALUE: dns_gethostbyname:addr <- [DW_OP_LLVM_entry_value 1] $r1
	@DEBUG_VALUE: dns_gethostbyname:hostname <- [DW_OP_LLVM_entry_value 1] $r0
	.loc	5 1485 3 is_stmt 0              @ rt-thread/components/net/lwip-2.0.2/src/core/dns.c:1485:3
	add	sp, #8
	pop	{r7, pc}
.Ltmp31:
.Lfunc_end5:
	.size	dns_gethostbyname, .Lfunc_end5-dns_gethostbyname
	.cfi_endproc
	.cantunwind
	.fnend
                                        @ -- End function
	.section	.text.dns_gethostbyname_addrtype,"ax",%progbits
	.hidden	dns_gethostbyname_addrtype      @ -- Begin function dns_gethostbyname_addrtype
	.globl	dns_gethostbyname_addrtype
	.p2align	3
	.type	dns_gethostbyname_addrtype,%function
	.code	16                              @ @dns_gethostbyname_addrtype
	.thumb_func
dns_gethostbyname_addrtype:
.Lfunc_begin6:
	.loc	5 1505 0 is_stmt 1              @ rt-thread/components/net/lwip-2.0.2/src/core/dns.c:1505:0
	.fnstart
	.cfi_startproc
@ %bb.0:
	@DEBUG_VALUE: dns_gethostbyname_addrtype:hostname <- $r0
	@DEBUG_VALUE: dns_gethostbyname_addrtype:addr <- $r1
	@DEBUG_VALUE: dns_gethostbyname_addrtype:found <- $r2
	@DEBUG_VALUE: dns_gethostbyname_addrtype:callback_arg <- $r3
	.save	{r4, r5, r6, r7, r8, lr}
	push.w	{r4, r5, r6, r7, r8, lr}
	.cfi_def_cfa_offset 24
	.cfi_offset lr, -4
	.cfi_offset r8, -8
	.cfi_offset r7, -12
	.cfi_offset r6, -16
	.cfi_offset r5, -20
	.cfi_offset r4, -24
	mov	r4, r0
	@DEBUG_VALUE: dns_gethostbyname_addrtype:dns_addrtype <- undef
.Ltmp32:
	@DEBUG_VALUE: dns_gethostbyname_addrtype:hostname <- $r4
	.loc	5 1512 22 prologue_end          @ rt-thread/components/net/lwip-2.0.2/src/core/dns.c:1512:22
	cmp	r0, #0
	@DEBUG_VALUE: dns_gethostbyname_addrtype:callback_arg <- $r3
	@DEBUG_VALUE: dns_gethostbyname_addrtype:found <- $r2
	@DEBUG_VALUE: dns_gethostbyname_addrtype:addr <- $r1
	mov.w	r0, #240
	beq	.LBB6_10
.Ltmp33:
@ %bb.1:
	@DEBUG_VALUE: dns_gethostbyname_addrtype:hostname <- $r4
	@DEBUG_VALUE: dns_gethostbyname_addrtype:callback_arg <- $r3
	@DEBUG_VALUE: dns_gethostbyname_addrtype:found <- $r2
	@DEBUG_VALUE: dns_gethostbyname_addrtype:addr <- $r1
	@DEBUG_VALUE: dns_gethostbyname_addrtype:callback_arg <- $r3
	@DEBUG_VALUE: dns_gethostbyname_addrtype:found <- $r2
	.loc	5 0 22 is_stmt 0                @ rt-thread/components/net/lwip-2.0.2/src/core/dns.c:0:22
	mov	r7, r1
.Ltmp34:
	@DEBUG_VALUE: dns_gethostbyname_addrtype:addr <- $r7
	.loc	5 1512 22                       @ rt-thread/components/net/lwip-2.0.2/src/core/dns.c:1512:22
	cbz	r1, .LBB6_10
.Ltmp35:
@ %bb.2:
	@DEBUG_VALUE: dns_gethostbyname_addrtype:addr <- $r7
	@DEBUG_VALUE: dns_gethostbyname_addrtype:hostname <- $r4
	@DEBUG_VALUE: dns_gethostbyname_addrtype:callback_arg <- $r3
	@DEBUG_VALUE: dns_gethostbyname_addrtype:found <- $r2
	@DEBUG_VALUE: dns_gethostbyname_addrtype:callback_arg <- $r3
	@DEBUG_VALUE: dns_gethostbyname_addrtype:found <- $r2
	.loc	5 1513 24 is_stmt 1             @ rt-thread/components/net/lwip-2.0.2/src/core/dns.c:1513:24
	ldrb	r0, [r4]
.Ltmp36:
	.loc	5 1512 7                        @ rt-thread/components/net/lwip-2.0.2/src/core/dns.c:1512:7
	cbz	r0, .LBB6_4
.Ltmp37:
@ %bb.3:
	@DEBUG_VALUE: dns_gethostbyname_addrtype:addr <- $r7
	@DEBUG_VALUE: dns_gethostbyname_addrtype:hostname <- $r4
	@DEBUG_VALUE: dns_gethostbyname_addrtype:callback_arg <- $r3
	@DEBUG_VALUE: dns_gethostbyname_addrtype:found <- $r2
	.loc	5 1521 17                       @ rt-thread/components/net/lwip-2.0.2/src/core/dns.c:1521:17
	mov	r0, r4
	mov	r5, r3
.Ltmp38:
	@DEBUG_VALUE: dns_gethostbyname_addrtype:callback_arg <- $r5
	@DEBUG_VALUE: dns_gethostbyname_addrtype:callback_arg <- $r5
	.loc	5 0 17 is_stmt 0                @ rt-thread/components/net/lwip-2.0.2/src/core/dns.c:0:17
	mov	r6, r2
.Ltmp39:
	@DEBUG_VALUE: dns_gethostbyname_addrtype:found <- $r6
	@DEBUG_VALUE: dns_gethostbyname_addrtype:found <- $r6
	.loc	5 1521 17                       @ rt-thread/components/net/lwip-2.0.2/src/core/dns.c:1521:17
	bl	strlen
.Ltmp40:
	@DEBUG_VALUE: dns_gethostbyname_addrtype:hostnamelen <- $r0
	.loc	5 1522 7 is_stmt 1              @ rt-thread/components/net/lwip-2.0.2/src/core/dns.c:1522:7
	cmp	r0, #255
	bls	.LBB6_5
.Ltmp41:
.LBB6_4:
	@DEBUG_VALUE: dns_gethostbyname_addrtype:addr <- $r7
	@DEBUG_VALUE: dns_gethostbyname_addrtype:hostname <- $r4
	.loc	5 0 7 is_stmt 0                 @ rt-thread/components/net/lwip-2.0.2/src/core/dns.c:0:7
	movs	r0, #240
	.loc	5 1585 1 is_stmt 1              @ rt-thread/components/net/lwip-2.0.2/src/core/dns.c:1585:1
	sxtb	r0, r0
	pop.w	{r4, r5, r6, r7, r8, pc}
.Ltmp42:
.LBB6_5:
	@DEBUG_VALUE: dns_gethostbyname_addrtype:addr <- $r7
	@DEBUG_VALUE: dns_gethostbyname_addrtype:found <- $r6
	@DEBUG_VALUE: dns_gethostbyname_addrtype:callback_arg <- $r5
	@DEBUG_VALUE: dns_gethostbyname_addrtype:hostname <- $r4
	@DEBUG_VALUE: dns_gethostbyname_addrtype:hostnamelen <- $r0
	.loc	5 0 0 is_stmt 0                 @ rt-thread/components/net/lwip-2.0.2/src/core/dns.c:0:0
	mov	r8, r0
.Ltmp43:
	@DEBUG_VALUE: dns_gethostbyname_addrtype:hostnamelen <- $r8
	@DEBUG_VALUE: dns_gethostbyname_addrtype:hostnamelen <- $r8
	.loc	5 1536 7 is_stmt 1              @ rt-thread/components/net/lwip-2.0.2/src/core/dns.c:1536:7
	mov	r0, r4
	mov	r1, r7
	bl	ip4addr_aton
.Ltmp44:
	.loc	5 1536 7 is_stmt 0              @ rt-thread/components/net/lwip-2.0.2/src/core/dns.c:1536:7
	cbz	r0, .LBB6_7
.Ltmp45:
.LBB6_6:
	@DEBUG_VALUE: dns_gethostbyname_addrtype:hostnamelen <- $r8
	@DEBUG_VALUE: dns_gethostbyname_addrtype:addr <- $r7
	@DEBUG_VALUE: dns_gethostbyname_addrtype:found <- $r6
	@DEBUG_VALUE: dns_gethostbyname_addrtype:callback_arg <- $r5
	@DEBUG_VALUE: dns_gethostbyname_addrtype:hostname <- $r4
	.loc	5 0 7                           @ rt-thread/components/net/lwip-2.0.2/src/core/dns.c:0:7
	movs	r0, #0
	.loc	5 1585 1 is_stmt 1              @ rt-thread/components/net/lwip-2.0.2/src/core/dns.c:1585:1
	sxtb	r0, r0
	pop.w	{r4, r5, r6, r7, r8, pc}
.Ltmp46:
.LBB6_7:
	@DEBUG_VALUE: dns_gethostbyname_addrtype:hostnamelen <- $r8
	@DEBUG_VALUE: dns_gethostbyname_addrtype:addr <- $r7
	@DEBUG_VALUE: dns_gethostbyname_addrtype:found <- $r6
	@DEBUG_VALUE: dns_gethostbyname_addrtype:callback_arg <- $r5
	@DEBUG_VALUE: dns_gethostbyname_addrtype:hostname <- $r4
	.loc	5 1546 7                        @ rt-thread/components/net/lwip-2.0.2/src/core/dns.c:1546:7
	mov	r0, r4
	mov	r1, r7
	bl	dns_lookup
.Ltmp47:
	.loc	5 1546 7 is_stmt 0              @ rt-thread/components/net/lwip-2.0.2/src/core/dns.c:1546:7
	cmp	r0, #0
	beq	.LBB6_6
.Ltmp48:
@ %bb.8:
	@DEBUG_VALUE: dns_gethostbyname_addrtype:hostnamelen <- $r8
	@DEBUG_VALUE: dns_gethostbyname_addrtype:addr <- $r7
	@DEBUG_VALUE: dns_gethostbyname_addrtype:found <- $r6
	@DEBUG_VALUE: dns_gethostbyname_addrtype:callback_arg <- $r5
	@DEBUG_VALUE: dns_gethostbyname_addrtype:hostname <- $r4
	.loc	5 1577 9 is_stmt 1              @ rt-thread/components/net/lwip-2.0.2/src/core/dns.c:1577:9
	movw	r0, :lower16:dns_servers
	movt	r0, :upper16:dns_servers
	ldr	r0, [r0]
.Ltmp49:
	.loc	5 1577 9 is_stmt 0              @ rt-thread/components/net/lwip-2.0.2/src/core/dns.c:1577:9
	cbz	r0, .LBB6_11
.Ltmp50:
@ %bb.9:
	@DEBUG_VALUE: dns_gethostbyname_addrtype:hostnamelen <- $r8
	@DEBUG_VALUE: dns_gethostbyname_addrtype:addr <- $r7
	@DEBUG_VALUE: dns_gethostbyname_addrtype:found <- $r6
	@DEBUG_VALUE: dns_gethostbyname_addrtype:callback_arg <- $r5
	@DEBUG_VALUE: dns_gethostbyname_addrtype:hostname <- $r4
	.loc	5 1583 10 is_stmt 1             @ rt-thread/components/net/lwip-2.0.2/src/core/dns.c:1583:10
	mov	r0, r4
	mov	r1, r8
	mov	r2, r6
	mov	r3, r5
	bl	dns_enqueue
.Ltmp51:
.LBB6_10:
	@DEBUG_VALUE: dns_gethostbyname_addrtype:hostname <- $r4
	.loc	5 1585 1                        @ rt-thread/components/net/lwip-2.0.2/src/core/dns.c:1585:1
	sxtb	r0, r0
	pop.w	{r4, r5, r6, r7, r8, pc}
.Ltmp52:
.LBB6_11:
	@DEBUG_VALUE: dns_gethostbyname_addrtype:hostnamelen <- $r8
	@DEBUG_VALUE: dns_gethostbyname_addrtype:addr <- $r7
	@DEBUG_VALUE: dns_gethostbyname_addrtype:found <- $r6
	@DEBUG_VALUE: dns_gethostbyname_addrtype:callback_arg <- $r5
	@DEBUG_VALUE: dns_gethostbyname_addrtype:hostname <- $r4
	.loc	5 0 1 is_stmt 0                 @ rt-thread/components/net/lwip-2.0.2/src/core/dns.c:0:1
	movs	r0, #250
	.loc	5 1585 1                        @ rt-thread/components/net/lwip-2.0.2/src/core/dns.c:1585:1
	sxtb	r0, r0
	pop.w	{r4, r5, r6, r7, r8, pc}
.Ltmp53:
.Lfunc_end6:
	.size	dns_gethostbyname_addrtype, .Lfunc_end6-dns_gethostbyname_addrtype
	.cfi_endproc
	.cantunwind
	.fnend
                                        @ -- End function
	.section	.text.dns_lookup,"ax",%progbits
	.p2align	3                               @ -- Begin function dns_lookup
	.type	dns_lookup,%function
	.code	16                              @ @dns_lookup
	.thumb_func
dns_lookup:
.Lfunc_begin7:
	.loc	5 620 0 is_stmt 1               @ rt-thread/components/net/lwip-2.0.2/src/core/dns.c:620:0
	.fnstart
	.cfi_startproc
@ %bb.0:
	@DEBUG_VALUE: dns_lookup:name <- $r0
	@DEBUG_VALUE: dns_lookup:addr <- $r1
	.save	{r4, r5, r6, r7, r8, lr}
	push.w	{r4, r5, r6, r7, r8, lr}
	.cfi_def_cfa_offset 24
	.cfi_offset lr, -4
	.cfi_offset r8, -8
	.cfi_offset r7, -12
	.cfi_offset r6, -16
	.cfi_offset r5, -20
	.cfi_offset r4, -24
	movw	r7, :lower16:dns_table
	mov	r8, r1
.Ltmp54:
	@DEBUG_VALUE: dns_lookup:addr <- $r8
	@DEBUG_VALUE: dns_lookup:addr <- $r8
	mov	r5, r0
.Ltmp55:
	@DEBUG_VALUE: dns_lookup:name <- $r5
	@DEBUG_VALUE: dns_lookup:name <- $r5
	movs	r6, #0
.Ltmp56:
	@DEBUG_VALUE: dns_lookup:i <- 0
	movt	r7, :upper16:dns_table
	b	.LBB7_2
.Ltmp57:
	.p2align	2
.LBB7_1:                                @   in Loop: Header=BB7_2 Depth=1
	@DEBUG_VALUE: dns_lookup:addr <- $r8
	@DEBUG_VALUE: dns_lookup:name <- $r5
	@DEBUG_VALUE: dns_lookup:i <- [DW_OP_plus_uconst 1, DW_OP_stack_value] undef
	.loc	5 636 17 prologue_end           @ rt-thread/components/net/lwip-2.0.2/src/core/dns.c:636:17
	add.w	r6, r6, #272
.Ltmp58:
	.loc	5 636 3 is_stmt 0               @ rt-thread/components/net/lwip-2.0.2/src/core/dns.c:636:3
	cmp.w	r6, #1088
	beq	.LBB7_5
.Ltmp59:
.LBB7_2:                                @ =>This Inner Loop Header: Depth=1
	@DEBUG_VALUE: dns_lookup:addr <- $r8
	@DEBUG_VALUE: dns_lookup:name <- $r5
	@DEBUG_VALUE: dns_lookup:i <- undef
	.loc	5 637 23 is_stmt 1              @ rt-thread/components/net/lwip-2.0.2/src/core/dns.c:637:23
	adds	r4, r7, r6
	ldrb	r0, [r4, #10]
	.loc	5 637 48 is_stmt 0              @ rt-thread/components/net/lwip-2.0.2/src/core/dns.c:637:48
	cmp	r0, #3
	bne	.LBB7_1
.Ltmp60:
@ %bb.3:                                @   in Loop: Header=BB7_2 Depth=1
	@DEBUG_VALUE: dns_lookup:addr <- $r8
	@DEBUG_VALUE: dns_lookup:name <- $r5
	.loc	5 638 10 is_stmt 1              @ rt-thread/components/net/lwip-2.0.2/src/core/dns.c:638:10
	add.w	r1, r4, #16
	mov.w	r2, #256
	mov	r0, r5
	bl	lwip_strnicmp
.Ltmp61:
	.loc	5 637 9                         @ rt-thread/components/net/lwip-2.0.2/src/core/dns.c:637:9
	cmp	r0, #0
	bne	.LBB7_1
.Ltmp62:
@ %bb.4:
	@DEBUG_VALUE: dns_lookup:addr <- $r8
	@DEBUG_VALUE: dns_lookup:name <- $r5
	.loc	5 643 11                        @ rt-thread/components/net/lwip-2.0.2/src/core/dns.c:643:11
	cmp.w	r8, #0
.Ltmp63:
	.loc	5 644 9                         @ rt-thread/components/net/lwip-2.0.2/src/core/dns.c:644:9
	itt	ne
	ldrne	r0, [r4, #4]
	strne.w	r0, [r8]
	movs	r0, #0
.Ltmp64:
	.loc	5 651 1                         @ rt-thread/components/net/lwip-2.0.2/src/core/dns.c:651:1
	sxtb	r0, r0
	pop.w	{r4, r5, r6, r7, r8, pc}
.Ltmp65:
.LBB7_5:
	@DEBUG_VALUE: dns_lookup:addr <- $r8
	@DEBUG_VALUE: dns_lookup:name <- $r5
	.loc	5 0 1 is_stmt 0                 @ rt-thread/components/net/lwip-2.0.2/src/core/dns.c:0:1
	movs	r0, #240
	.loc	5 651 1                         @ rt-thread/components/net/lwip-2.0.2/src/core/dns.c:651:1
	sxtb	r0, r0
	pop.w	{r4, r5, r6, r7, r8, pc}
.Ltmp66:
.Lfunc_end7:
	.size	dns_lookup, .Lfunc_end7-dns_lookup
	.cfi_endproc
	.cantunwind
	.fnend
                                        @ -- End function
	.section	.text.dns_enqueue,"ax",%progbits
	.p2align	3                               @ -- Begin function dns_enqueue
	.type	dns_enqueue,%function
	.code	16                              @ @dns_enqueue
	.thumb_func
dns_enqueue:
.Lfunc_begin8:
	.loc	5 1333 0 is_stmt 1              @ rt-thread/components/net/lwip-2.0.2/src/core/dns.c:1333:0
	.fnstart
	.cfi_startproc
@ %bb.0:
	@DEBUG_VALUE: dns_enqueue:name <- $r0
	@DEBUG_VALUE: dns_enqueue:hostnamelen <- $r1
	@DEBUG_VALUE: dns_enqueue:found <- $r2
	@DEBUG_VALUE: dns_enqueue:callback_arg <- $r3
	.save	{r4, r5, r6, r7, r8, r9, r10, r11, lr}
	push.w	{r4, r5, r6, r7, r8, r9, r10, r11, lr}
	.cfi_def_cfa_offset 36
	.cfi_offset lr, -4
	.cfi_offset r11, -8
	.cfi_offset r10, -12
	.cfi_offset r9, -16
	.cfi_offset r8, -20
	.cfi_offset r7, -24
	.cfi_offset r6, -28
	.cfi_offset r5, -32
	.cfi_offset r4, -36
	.pad	#4
	sub	sp, #4
	.cfi_def_cfa_offset 40
	movw	r8, :lower16:dns_table
	movw	r7, :lower16:dns_requests
	mov	r9, r3
.Ltmp67:
	@DEBUG_VALUE: dns_enqueue:callback_arg <- $r9
	mov	r11, r2
.Ltmp68:
	@DEBUG_VALUE: dns_enqueue:found <- $r11
	mov	r4, r1
.Ltmp69:
	@DEBUG_VALUE: dns_enqueue:hostnamelen <- $r4
	mov	r10, r0
.Ltmp70:
	@DEBUG_VALUE: dns_enqueue:name <- $r10
	movs	r6, #0
	movt	r8, :upper16:dns_table
	movt	r7, :upper16:dns_requests
.Ltmp71:
	@DEBUG_VALUE: dns_enqueue:i <- 0
	@DEBUG_VALUE: dns_enqueue:entry <- 0
	@DEBUG_VALUE: dns_enqueue:callback_arg <- $r9
	@DEBUG_VALUE: dns_enqueue:found <- $r11
	@DEBUG_VALUE: dns_enqueue:hostnamelen <- $r4
	@DEBUG_VALUE: dns_enqueue:name <- $r10
	b	.LBB8_2
.Ltmp72:
	.p2align	2
.LBB8_1:                                @   in Loop: Header=BB8_2 Depth=1
	@DEBUG_VALUE: dns_enqueue:found <- $r11
	@DEBUG_VALUE: dns_enqueue:name <- $r10
	@DEBUG_VALUE: dns_enqueue:callback_arg <- $r9
	@DEBUG_VALUE: dns_enqueue:i <- $r6
	@DEBUG_VALUE: dns_enqueue:hostnamelen <- $r4
	@DEBUG_VALUE: dns_enqueue:entry <- 0
	.loc	5 1343 36 prologue_end          @ rt-thread/components/net/lwip-2.0.2/src/core/dns.c:1343:36
	adds	r6, #1
.Ltmp73:
	@DEBUG_VALUE: dns_enqueue:i <- $r6
	.loc	5 1343 3 is_stmt 0              @ rt-thread/components/net/lwip-2.0.2/src/core/dns.c:1343:3
	cmp	r6, #4
	beq	.LBB8_9
.Ltmp74:
.LBB8_2:                                @ =>This Loop Header: Depth=1
                                        @     Child Loop BB8_5 Depth 2
	@DEBUG_VALUE: dns_enqueue:found <- $r11
	@DEBUG_VALUE: dns_enqueue:name <- $r10
	@DEBUG_VALUE: dns_enqueue:callback_arg <- $r9
	@DEBUG_VALUE: dns_enqueue:hostnamelen <- $r4
	@DEBUG_VALUE: dns_enqueue:entry <- 0
	@DEBUG_VALUE: dns_enqueue:i <- $r6
	.loc	5 1344 23 is_stmt 1             @ rt-thread/components/net/lwip-2.0.2/src/core/dns.c:1344:23
	add.w	r0, r6, r6, lsl #4
	add.w	r0, r8, r0, lsl #4
	ldrb	r1, [r0, #10]
	.loc	5 1344 50 is_stmt 0             @ rt-thread/components/net/lwip-2.0.2/src/core/dns.c:1344:50
	cmp	r1, #2
	bne	.LBB8_1
.Ltmp75:
@ %bb.3:                                @   in Loop: Header=BB8_2 Depth=1
	@DEBUG_VALUE: dns_enqueue:found <- $r11
	@DEBUG_VALUE: dns_enqueue:name <- $r10
	@DEBUG_VALUE: dns_enqueue:callback_arg <- $r9
	@DEBUG_VALUE: dns_enqueue:i <- $r6
	@DEBUG_VALUE: dns_enqueue:hostnamelen <- $r4
	@DEBUG_VALUE: dns_enqueue:entry <- 0
	.loc	5 1345 30 is_stmt 1             @ rt-thread/components/net/lwip-2.0.2/src/core/dns.c:1345:30
	add.w	r1, r0, #16
	.loc	5 1345 10 is_stmt 0             @ rt-thread/components/net/lwip-2.0.2/src/core/dns.c:1345:10
	mov.w	r2, #256
	mov	r0, r10
	bl	lwip_strnicmp
.Ltmp76:
	.loc	5 1344 9 is_stmt 1              @ rt-thread/components/net/lwip-2.0.2/src/core/dns.c:1344:9
	cmp	r0, #0
	bne	.LBB8_1
.Ltmp77:
@ %bb.4:                                @   in Loop: Header=BB8_2 Depth=1
	@DEBUG_VALUE: dns_enqueue:found <- $r11
	@DEBUG_VALUE: dns_enqueue:name <- $r10
	@DEBUG_VALUE: dns_enqueue:callback_arg <- $r9
	@DEBUG_VALUE: dns_enqueue:i <- $r6
	@DEBUG_VALUE: dns_enqueue:hostnamelen <- $r4
	@DEBUG_VALUE: dns_enqueue:entry <- 0
	.loc	5 0 9 is_stmt 0                 @ rt-thread/components/net/lwip-2.0.2/src/core/dns.c:0:9
	movs	r0, #0
.Ltmp78:
	.p2align	2
.LBB8_5:                                @   Parent Loop BB8_2 Depth=1
                                        @ =>  This Inner Loop Header: Depth=2
	@DEBUG_VALUE: dns_enqueue:found <- $r11
	@DEBUG_VALUE: dns_enqueue:name <- $r10
	@DEBUG_VALUE: dns_enqueue:callback_arg <- $r9
	@DEBUG_VALUE: dns_enqueue:i <- $r6
	@DEBUG_VALUE: dns_enqueue:hostnamelen <- $r4
	@DEBUG_VALUE: dns_enqueue:entry <- 0
	@DEBUG_VALUE: dns_enqueue:r <- $r0
	.loc	5 1356 29 is_stmt 1             @ rt-thread/components/net/lwip-2.0.2/src/core/dns.c:1356:29
	add.w	r1, r0, r0, lsl #1
	ldr.w	r2, [r7, r1, lsl #2]
.Ltmp79:
	@DEBUG_VALUE: dns_enqueue:r <- [DW_OP_plus_uconst 1, DW_OP_stack_value] $r0
	.loc	5 1356 13 is_stmt 0             @ rt-thread/components/net/lwip-2.0.2/src/core/dns.c:1356:13
	cbz	r2, .LBB8_7
.Ltmp80:
@ %bb.6:                                @   in Loop: Header=BB8_5 Depth=2
	@DEBUG_VALUE: dns_enqueue:found <- $r11
	@DEBUG_VALUE: dns_enqueue:name <- $r10
	@DEBUG_VALUE: dns_enqueue:callback_arg <- $r9
	@DEBUG_VALUE: dns_enqueue:i <- $r6
	@DEBUG_VALUE: dns_enqueue:hostnamelen <- $r4
	@DEBUG_VALUE: dns_enqueue:r <- [DW_OP_plus_uconst 1, DW_OP_stack_value] $r0
	@DEBUG_VALUE: dns_enqueue:entry <- 0
	.loc	5 1355 7 is_stmt 1              @ rt-thread/components/net/lwip-2.0.2/src/core/dns.c:1355:7
	cmp	r0, #2
.Ltmp81:
	.loc	5 1355 42 is_stmt 0             @ rt-thread/components/net/lwip-2.0.2/src/core/dns.c:1355:42
	add.w	r0, r0, #1
.Ltmp82:
	@DEBUG_VALUE: dns_enqueue:r <- [DW_OP_plus_uconst 1, DW_OP_stack_value] undef
	.loc	5 0 42                          @ rt-thread/components/net/lwip-2.0.2/src/core/dns.c:0:42
	bls	.LBB8_5
	b	.LBB8_1
.Ltmp83:
.LBB8_7:
	@DEBUG_VALUE: dns_enqueue:found <- $r11
	@DEBUG_VALUE: dns_enqueue:name <- $r10
	@DEBUG_VALUE: dns_enqueue:callback_arg <- $r9
	@DEBUG_VALUE: dns_enqueue:i <- $r6
	@DEBUG_VALUE: dns_enqueue:hostnamelen <- $r4
	@DEBUG_VALUE: dns_enqueue:r <- [DW_OP_plus_uconst 1, DW_OP_stack_value] $r0
	@DEBUG_VALUE: dns_enqueue:entry <- 0
	add.w	r0, r7, r1, lsl #2
.Ltmp84:
	movs	r7, #251
.Ltmp85:
	.loc	5 1357 33 is_stmt 1             @ rt-thread/components/net/lwip-2.0.2/src/core/dns.c:1357:33
	strd	r11, r9, [r0]
	.loc	5 1359 41                       @ rt-thread/components/net/lwip-2.0.2/src/core/dns.c:1359:41
	strb	r6, [r0, #8]
.Ltmp86:
.LBB8_8:
	@DEBUG_VALUE: dns_enqueue:name <- $r10
	.loc	5 1459 1                        @ rt-thread/components/net/lwip-2.0.2/src/core/dns.c:1459:1
	sxtb	r0, r7
	add	sp, #4
	pop.w	{r4, r5, r6, r7, r8, r9, r10, r11, pc}
.Ltmp87:
.LBB8_9:
	@DEBUG_VALUE: dns_enqueue:found <- $r11
	@DEBUG_VALUE: dns_enqueue:name <- $r10
	@DEBUG_VALUE: dns_enqueue:callback_arg <- $r9
	@DEBUG_VALUE: dns_enqueue:i <- $r6
	@DEBUG_VALUE: dns_enqueue:hostnamelen <- $r4
	@DEBUG_VALUE: dns_enqueue:entry <- 0
	@DEBUG_VALUE: dns_enqueue:entry <- 0
	@DEBUG_VALUE: dns_enqueue:i <- 0
	@DEBUG_VALUE: dns_enqueue:lseqi <- 4
	@DEBUG_VALUE: dns_enqueue:lseq <- 0
	.loc	5 0 1 is_stmt 0                 @ rt-thread/components/net/lwip-2.0.2/src/core/dns.c:0:1
	movw	r0, :lower16:dns_seqno
	mov	lr, r4
.Ltmp88:
	@DEBUG_VALUE: dns_enqueue:hostnamelen <- $lr
	movt	r0, :upper16:dns_seqno
	movs	r1, #4
	movs	r6, #0
	movs	r3, #0
	ldrb.w	r12, [r0]
	b	.LBB8_12
.Ltmp89:
	.p2align	2
.LBB8_10:                               @   in Loop: Header=BB8_12 Depth=1
	@DEBUG_VALUE: dns_enqueue:found <- $r11
	@DEBUG_VALUE: dns_enqueue:name <- $r10
	@DEBUG_VALUE: dns_enqueue:callback_arg <- $r9
	@DEBUG_VALUE: dns_enqueue:i <- $r6
	@DEBUG_VALUE: dns_enqueue:lseq <- $r3
	@DEBUG_VALUE: dns_enqueue:lseqi <- $r1
	@DEBUG_VALUE: dns_enqueue:hostnamelen <- $lr
	.loc	5 1382 15 is_stmt 1             @ rt-thread/components/net/lwip-2.0.2/src/core/dns.c:1382:15
	uxtb	r4, r3
.Ltmp90:
	.loc	5 1381 37                       @ rt-thread/components/net/lwip-2.0.2/src/core/dns.c:1381:37
	add.w	r5, r0, r0, lsl #4
	add.w	r5, r8, r5, lsl #4
	ldrb	r5, [r5, #14]
	.loc	5 1381 28 is_stmt 0             @ rt-thread/components/net/lwip-2.0.2/src/core/dns.c:1381:28
	sub.w	r5, r12, r5
.Ltmp91:
	@DEBUG_VALUE: age <- $r5
	uxtb	r2, r5
	.loc	5 1382 11 is_stmt 1             @ rt-thread/components/net/lwip-2.0.2/src/core/dns.c:1382:11
	cmp	r2, r4
	itt	hi
	movhi	r3, r5
.Ltmp92:
	@DEBUG_VALUE: dns_enqueue:lseq <- $r3
	movhi	r1, r6
.Ltmp93:
	@DEBUG_VALUE: dns_enqueue:lseqi <- $r1
.LBB8_11:                               @   in Loop: Header=BB8_12 Depth=1
	@DEBUG_VALUE: dns_enqueue:found <- $r11
	@DEBUG_VALUE: dns_enqueue:name <- $r10
	@DEBUG_VALUE: dns_enqueue:callback_arg <- $r9
	@DEBUG_VALUE: dns_enqueue:i <- $r6
	@DEBUG_VALUE: dns_enqueue:lseq <- $r3
	@DEBUG_VALUE: dns_enqueue:lseqi <- $r1
	@DEBUG_VALUE: dns_enqueue:hostnamelen <- $lr
	@DEBUG_VALUE: dns_enqueue:lseqi <- $r1
	@DEBUG_VALUE: dns_enqueue:lseq <- $r3
	.loc	5 1373 3                        @ rt-thread/components/net/lwip-2.0.2/src/core/dns.c:1373:3
	cmp	r0, #3
.Ltmp94:
	.loc	5 1373 35 is_stmt 0             @ rt-thread/components/net/lwip-2.0.2/src/core/dns.c:1373:35
	add.w	r6, r6, #1
.Ltmp95:
	@DEBUG_VALUE: dns_enqueue:i <- $r6
	@DEBUG_VALUE: dns_enqueue:entry <- undef
	.loc	5 1373 3                        @ rt-thread/components/net/lwip-2.0.2/src/core/dns.c:1373:3
	bhs	.LBB8_14
.Ltmp96:
.LBB8_12:                               @ =>This Inner Loop Header: Depth=1
	@DEBUG_VALUE: dns_enqueue:found <- $r11
	@DEBUG_VALUE: dns_enqueue:name <- $r10
	@DEBUG_VALUE: dns_enqueue:callback_arg <- $r9
	@DEBUG_VALUE: dns_enqueue:hostnamelen <- $lr
	@DEBUG_VALUE: dns_enqueue:i <- $r6
	@DEBUG_VALUE: dns_enqueue:lseqi <- $r1
	@DEBUG_VALUE: dns_enqueue:lseq <- $r3
	.loc	5 1373 15                       @ rt-thread/components/net/lwip-2.0.2/src/core/dns.c:1373:15
	uxtb	r0, r6
.Ltmp97:
	@DEBUG_VALUE: dns_enqueue:entry <- undef
	.loc	5 1376 16 is_stmt 1             @ rt-thread/components/net/lwip-2.0.2/src/core/dns.c:1376:16
	lsls	r5, r0, #4
	uxtab	r5, r5, r6
	add.w	r5, r8, r5, lsl #4
	ldrb	r5, [r5, #10]
.Ltmp98:
	.loc	5 1376 9 is_stmt 0              @ rt-thread/components/net/lwip-2.0.2/src/core/dns.c:1376:9
	cmp	r5, #3
	beq	.LBB8_10
.Ltmp99:
@ %bb.13:                               @   in Loop: Header=BB8_12 Depth=1
	@DEBUG_VALUE: dns_enqueue:found <- $r11
	@DEBUG_VALUE: dns_enqueue:name <- $r10
	@DEBUG_VALUE: dns_enqueue:callback_arg <- $r9
	@DEBUG_VALUE: dns_enqueue:i <- $r6
	@DEBUG_VALUE: dns_enqueue:lseq <- $r3
	@DEBUG_VALUE: dns_enqueue:lseqi <- $r1
	@DEBUG_VALUE: dns_enqueue:hostnamelen <- $lr
	cmp	r5, #0
	bne	.LBB8_11
	b	.LBB8_15
.Ltmp100:
.LBB8_14:
	@DEBUG_VALUE: dns_enqueue:found <- $r11
	@DEBUG_VALUE: dns_enqueue:name <- $r10
	@DEBUG_VALUE: dns_enqueue:callback_arg <- $r9
	@DEBUG_VALUE: dns_enqueue:i <- $r6
	@DEBUG_VALUE: dns_enqueue:lseq <- $r3
	@DEBUG_VALUE: dns_enqueue:lseqi <- $r1
	@DEBUG_VALUE: dns_enqueue:hostnamelen <- $lr
	.loc	5 0 9                           @ rt-thread/components/net/lwip-2.0.2/src/core/dns.c:0:9
	movs	r6, #4
.Ltmp101:
.LBB8_15:
	@DEBUG_VALUE: dns_enqueue:found <- $r11
	@DEBUG_VALUE: dns_enqueue:name <- $r10
	@DEBUG_VALUE: dns_enqueue:callback_arg <- $r9
	@DEBUG_VALUE: dns_enqueue:lseq <- $r3
	@DEBUG_VALUE: dns_enqueue:lseqi <- $r1
	@DEBUG_VALUE: dns_enqueue:hostnamelen <- $lr
	@DEBUG_VALUE: dns_enqueue:entry <- undef
	.loc	5 1390 9 is_stmt 1              @ rt-thread/components/net/lwip-2.0.2/src/core/dns.c:1390:9
	uxtb	r2, r6
.Ltmp102:
	.loc	5 1390 7 is_stmt 0              @ rt-thread/components/net/lwip-2.0.2/src/core/dns.c:1390:7
	cmp	r2, #4
	bne	.LBB8_19
.Ltmp103:
@ %bb.16:
	@DEBUG_VALUE: dns_enqueue:found <- $r11
	@DEBUG_VALUE: dns_enqueue:name <- $r10
	@DEBUG_VALUE: dns_enqueue:callback_arg <- $r9
	@DEBUG_VALUE: dns_enqueue:lseq <- $r3
	@DEBUG_VALUE: dns_enqueue:lseqi <- $r1
	@DEBUG_VALUE: dns_enqueue:hostnamelen <- $lr
	.loc	5 1391 16 is_stmt 1             @ rt-thread/components/net/lwip-2.0.2/src/core/dns.c:1391:16
	uxtb	r0, r1
	.loc	5 1391 35 is_stmt 0             @ rt-thread/components/net/lwip-2.0.2/src/core/dns.c:1391:35
	cmp	r0, #3
	bls	.LBB8_18
.Ltmp104:
@ %bb.17:
	@DEBUG_VALUE: dns_enqueue:found <- $r11
	@DEBUG_VALUE: dns_enqueue:name <- $r10
	@DEBUG_VALUE: dns_enqueue:callback_arg <- $r9
	@DEBUG_VALUE: dns_enqueue:lseq <- $r3
	@DEBUG_VALUE: dns_enqueue:lseqi <- $r1
	@DEBUG_VALUE: dns_enqueue:hostnamelen <- $lr
	.loc	5 0 35                          @ rt-thread/components/net/lwip-2.0.2/src/core/dns.c:0:35
	movs	r7, #255
	b	.LBB8_8
.Ltmp105:
.LBB8_18:
	@DEBUG_VALUE: dns_enqueue:found <- $r11
	@DEBUG_VALUE: dns_enqueue:name <- $r10
	@DEBUG_VALUE: dns_enqueue:callback_arg <- $r9
	@DEBUG_VALUE: dns_enqueue:lseq <- $r3
	@DEBUG_VALUE: dns_enqueue:lseqi <- $r1
	@DEBUG_VALUE: dns_enqueue:hostnamelen <- $lr
	.loc	5 1391 56                       @ rt-thread/components/net/lwip-2.0.2/src/core/dns.c:1391:56
	lsls	r2, r0, #4
.Ltmp106:
	.loc	5 0 0                           @ rt-thread/components/net/lwip-2.0.2/src/core/dns.c:0:0
	mov	r6, r1
.Ltmp107:
	.loc	5 1391 56                       @ rt-thread/components/net/lwip-2.0.2/src/core/dns.c:1391:56
	uxtab	r2, r2, r1
	add.w	r2, r8, r2, lsl #4
	ldrb	r2, [r2, #10]
.Ltmp108:
	.loc	5 1391 9                        @ rt-thread/components/net/lwip-2.0.2/src/core/dns.c:1391:9
	cmp	r2, #3
	bne	.LBB8_28
.Ltmp109:
.LBB8_19:
	@DEBUG_VALUE: dns_enqueue:found <- $r11
	@DEBUG_VALUE: dns_enqueue:name <- $r10
	@DEBUG_VALUE: dns_enqueue:callback_arg <- $r9
	@DEBUG_VALUE: dns_enqueue:lseq <- $r3
	@DEBUG_VALUE: dns_enqueue:lseqi <- $r1
	@DEBUG_VALUE: dns_enqueue:hostnamelen <- $lr
	.loc	5 0 9                           @ rt-thread/components/net/lwip-2.0.2/src/core/dns.c:0:9
	movs	r1, #0
.Ltmp110:
	@DEBUG_VALUE: dns_enqueue:req <- 0
	@DEBUG_VALUE: dns_enqueue:r <- 0
	@DEBUG_VALUE: dns_enqueue:i <- $r6
	@DEBUG_VALUE: dns_enqueue:entry <- undef
	.p2align	2
.LBB8_20:                               @ =>This Inner Loop Header: Depth=1
	@DEBUG_VALUE: dns_enqueue:found <- $r11
	@DEBUG_VALUE: dns_enqueue:name <- $r10
	@DEBUG_VALUE: dns_enqueue:callback_arg <- $r9
	@DEBUG_VALUE: dns_enqueue:i <- $r6
	@DEBUG_VALUE: dns_enqueue:hostnamelen <- $lr
	@DEBUG_VALUE: dns_enqueue:req <- 0
	@DEBUG_VALUE: dns_enqueue:r <- $r1
	.loc	5 1406 9 is_stmt 1              @ rt-thread/components/net/lwip-2.0.2/src/core/dns.c:1406:9
	add.w	r2, r1, r1, lsl #1
	.loc	5 1406 25 is_stmt 0             @ rt-thread/components/net/lwip-2.0.2/src/core/dns.c:1406:25
	ldr.w	r3, [r7, r2, lsl #2]
.Ltmp111:
	@DEBUG_VALUE: dns_enqueue:r <- [DW_OP_plus_uconst 1, DW_OP_stack_value] $r1
	.loc	5 1406 9                        @ rt-thread/components/net/lwip-2.0.2/src/core/dns.c:1406:9
	cbz	r3, .LBB8_23
.Ltmp112:
@ %bb.21:                               @   in Loop: Header=BB8_20 Depth=1
	@DEBUG_VALUE: dns_enqueue:found <- $r11
	@DEBUG_VALUE: dns_enqueue:name <- $r10
	@DEBUG_VALUE: dns_enqueue:callback_arg <- $r9
	@DEBUG_VALUE: dns_enqueue:i <- $r6
	@DEBUG_VALUE: dns_enqueue:r <- [DW_OP_plus_uconst 1, DW_OP_stack_value] $r1
	@DEBUG_VALUE: dns_enqueue:hostnamelen <- $lr
	@DEBUG_VALUE: dns_enqueue:req <- 0
	.loc	5 1405 3 is_stmt 1              @ rt-thread/components/net/lwip-2.0.2/src/core/dns.c:1405:3
	cmp	r1, #2
.Ltmp113:
	.loc	5 1405 38 is_stmt 0             @ rt-thread/components/net/lwip-2.0.2/src/core/dns.c:1405:38
	add.w	r1, r1, #1
.Ltmp114:
	@DEBUG_VALUE: dns_enqueue:r <- [DW_OP_plus_uconst 1, DW_OP_stack_value] undef
	.loc	5 1405 3                        @ rt-thread/components/net/lwip-2.0.2/src/core/dns.c:1405:3
	bls	.LBB8_20
.Ltmp115:
@ %bb.22:
	@DEBUG_VALUE: dns_enqueue:found <- $r11
	@DEBUG_VALUE: dns_enqueue:name <- $r10
	@DEBUG_VALUE: dns_enqueue:callback_arg <- $r9
	@DEBUG_VALUE: dns_enqueue:i <- $r6
	@DEBUG_VALUE: dns_enqueue:hostnamelen <- $lr
	@DEBUG_VALUE: dns_enqueue:req <- 0
	.loc	5 0 3                           @ rt-thread/components/net/lwip-2.0.2/src/core/dns.c:0:3
	movs	r5, #0
	b	.LBB8_24
.Ltmp116:
.LBB8_23:
	@DEBUG_VALUE: dns_enqueue:found <- $r11
	@DEBUG_VALUE: dns_enqueue:name <- $r10
	@DEBUG_VALUE: dns_enqueue:callback_arg <- $r9
	@DEBUG_VALUE: dns_enqueue:i <- $r6
	@DEBUG_VALUE: dns_enqueue:r <- [DW_OP_plus_uconst 1, DW_OP_stack_value] $r1
	@DEBUG_VALUE: dns_enqueue:hostnamelen <- $lr
	@DEBUG_VALUE: dns_enqueue:req <- 0
	add.w	r5, r7, r2, lsl #2
.Ltmp117:
.LBB8_24:
	@DEBUG_VALUE: dns_enqueue:found <- $r11
	@DEBUG_VALUE: dns_enqueue:name <- $r10
	@DEBUG_VALUE: dns_enqueue:callback_arg <- $r9
	@DEBUG_VALUE: dns_enqueue:i <- $r6
	@DEBUG_VALUE: dns_enqueue:hostnamelen <- $lr
	@DEBUG_VALUE: dns_enqueue:req <- 0
	movw	r1, :lower16:dns_seqno
	.loc	5 1411 7 is_stmt 1              @ rt-thread/components/net/lwip-2.0.2/src/core/dns.c:1411:7
	cmp	r5, #0
	movt	r1, :upper16:dns_seqno
.Ltmp118:
	@DEBUG_VALUE: dns_enqueue:req <- $r5
	.loc	5 0 7 is_stmt 0                 @ rt-thread/components/net/lwip-2.0.2/src/core/dns.c:0:7
	mov.w	r7, #255
	.loc	5 1411 7                        @ rt-thread/components/net/lwip-2.0.2/src/core/dns.c:1411:7
	beq	.LBB8_8
.Ltmp119:
@ %bb.25:
	@DEBUG_VALUE: dns_enqueue:found <- $r11
	@DEBUG_VALUE: dns_enqueue:name <- $r10
	@DEBUG_VALUE: dns_enqueue:callback_arg <- $r9
	@DEBUG_VALUE: dns_enqueue:i <- $r6
	@DEBUG_VALUE: dns_enqueue:req <- $r5
	@DEBUG_VALUE: dns_enqueue:hostnamelen <- $lr
	.loc	5 1426 10 is_stmt 1             @ rt-thread/components/net/lwip-2.0.2/src/core/dns.c:1426:10
	add.w	r0, r0, r0, lsl #4
	.loc	5 1416 22                       @ rt-thread/components/net/lwip-2.0.2/src/core/dns.c:1416:22
	strb	r6, [r5, #8]
	.loc	5 1430 14                       @ rt-thread/components/net/lwip-2.0.2/src/core/dns.c:1430:14
	strd	r11, r9, [r5]
	.loc	5 1426 10                       @ rt-thread/components/net/lwip-2.0.2/src/core/dns.c:1426:10
	add.w	r8, r8, r0, lsl #4
	movs	r0, #1
	.loc	5 1432 13                       @ rt-thread/components/net/lwip-2.0.2/src/core/dns.c:1432:13
	cmp.w	lr, #255
	mov	r11, r1
.Ltmp120:
	.loc	5 1426 16                       @ rt-thread/components/net/lwip-2.0.2/src/core/dns.c:1426:16
	strb	r0, [r8, #10]!
	.loc	5 1427 18                       @ rt-thread/components/net/lwip-2.0.2/src/core/dns.c:1427:18
	ldrb	r0, [r1]
	.loc	5 1427 16 is_stmt 0             @ rt-thread/components/net/lwip-2.0.2/src/core/dns.c:1427:16
	strb.w	r0, [r8, #4]
	.loc	5 1433 3 is_stmt 1              @ rt-thread/components/net/lwip-2.0.2/src/core/dns.c:1433:3
	add.w	r4, r8, #6
	.loc	5 1432 13                       @ rt-thread/components/net/lwip-2.0.2/src/core/dns.c:1432:13
	it	lo
	movlo	r7, lr
.Ltmp121:
	@DEBUG_VALUE: dns_enqueue:hostnamelen <- $r7
	@DEBUG_VALUE: dns_enqueue:namelen <- $r7
	.loc	5 1433 3                        @ rt-thread/components/net/lwip-2.0.2/src/core/dns.c:1433:3
	mov	r0, r4
	mov	r1, r10
	mov	r2, r7
	bl	__aeabi_memcpy
	mov.w	r9, #0
.Ltmp122:
	.loc	5 1434 24                       @ rt-thread/components/net/lwip-2.0.2/src/core/dns.c:1434:24
	strb.w	r9, [r4, r7]
	.loc	5 1437 20                       @ rt-thread/components/net/lwip-2.0.2/src/core/dns.c:1437:20
	bl	dns_alloc_pcb
	.loc	5 1438 7                        @ rt-thread/components/net/lwip-2.0.2/src/core/dns.c:1438:7
	cmp	r0, #4
	.loc	5 1437 18                       @ rt-thread/components/net/lwip-2.0.2/src/core/dns.c:1437:18
	strb.w	r0, [r8, #5]
	.loc	5 1438 7                        @ rt-thread/components/net/lwip-2.0.2/src/core/dns.c:1438:7
	blo	.LBB8_27
.Ltmp123:
@ %bb.26:
	@DEBUG_VALUE: dns_enqueue:name <- $r10
	@DEBUG_VALUE: dns_enqueue:namelen <- $r7
	@DEBUG_VALUE: dns_enqueue:hostnamelen <- $r7
	@DEBUG_VALUE: dns_enqueue:i <- $r6
	@DEBUG_VALUE: dns_enqueue:req <- $r5
	.loc	5 1441 18                       @ rt-thread/components/net/lwip-2.0.2/src/core/dns.c:1441:18
	strb.w	r9, [r8]
	movs	r7, #255
.Ltmp124:
	.loc	5 1442 16                       @ rt-thread/components/net/lwip-2.0.2/src/core/dns.c:1442:16
	str.w	r9, [r5]
	.loc	5 1443 5                        @ rt-thread/components/net/lwip-2.0.2/src/core/dns.c:1443:5
	b	.LBB8_8
.Ltmp125:
.LBB8_27:
	@DEBUG_VALUE: dns_enqueue:name <- $r10
	@DEBUG_VALUE: dns_enqueue:namelen <- $r7
	@DEBUG_VALUE: dns_enqueue:hostnamelen <- $r7
	@DEBUG_VALUE: dns_enqueue:i <- $r6
	@DEBUG_VALUE: dns_enqueue:req <- $r5
	.loc	5 1452 12                       @ rt-thread/components/net/lwip-2.0.2/src/core/dns.c:1452:12
	ldrb.w	r0, [r11]
	adds	r0, #1
	strb.w	r0, [r11]
	.loc	5 1455 3                        @ rt-thread/components/net/lwip-2.0.2/src/core/dns.c:1455:3
	uxtb	r0, r6
	bl	dns_check_entry
	movs	r7, #251
.Ltmp126:
	.loc	5 0 3 is_stmt 0                 @ rt-thread/components/net/lwip-2.0.2/src/core/dns.c:0:3
	b	.LBB8_8
.Ltmp127:
.LBB8_28:
	@DEBUG_VALUE: dns_enqueue:found <- $r11
	@DEBUG_VALUE: dns_enqueue:name <- $r10
	@DEBUG_VALUE: dns_enqueue:callback_arg <- $r9
	@DEBUG_VALUE: dns_enqueue:lseq <- $r3
	@DEBUG_VALUE: dns_enqueue:lseqi <- $r1
	@DEBUG_VALUE: dns_enqueue:hostnamelen <- $lr
	movs	r7, #255
	b	.LBB8_8
.Lfunc_end8:
	.size	dns_enqueue, .Lfunc_end8-dns_enqueue
	.cfi_endproc
	.cantunwind
	.fnend
                                        @ -- End function
	.section	.text.dns_check_entry,"ax",%progbits
	.p2align	3                               @ -- Begin function dns_check_entry
	.type	dns_check_entry,%function
	.code	16                              @ @dns_check_entry
	.thumb_func
dns_check_entry:
.Lfunc_begin9:
	.loc	5 1026 0 is_stmt 1              @ rt-thread/components/net/lwip-2.0.2/src/core/dns.c:1026:0
	.fnstart
	.cfi_startproc
@ %bb.0:
	@DEBUG_VALUE: dns_check_entry:i <- $r0
	.save	{r4, r5, r6, lr}
	push	{r4, r5, r6, lr}
	.cfi_def_cfa_offset 16
	.cfi_offset lr, -4
	.cfi_offset r6, -8
	.cfi_offset r5, -12
	.cfi_offset r4, -16
	mov	r4, r0
.Ltmp128:
	@DEBUG_VALUE: dns_check_entry:entry <- undef
	@DEBUG_VALUE: dns_check_entry:i <- $r4
	.loc	5 1030 3 prologue_end           @ rt-thread/components/net/lwip-2.0.2/src/core/dns.c:1030:3
	cmp	r0, #4
	blo	.LBB9_2
.Ltmp129:
@ %bb.1:
	@DEBUG_VALUE: dns_check_entry:i <- $r4
	.loc	5 1030 3 is_stmt 0              @ rt-thread/components/net/lwip-2.0.2/src/core/dns.c:1030:3
	adr	r0, .LCPI9_0
	bl	rt_kprintf
	movw	r0, :lower16:.L.str.1
	movw	r1, #1030
	movt	r0, :upper16:.L.str.1
	bl	sys_arch_assert
.Ltmp130:
.LBB9_2:
	@DEBUG_VALUE: dns_check_entry:i <- $r4
	.loc	5 1032 18 is_stmt 1             @ rt-thread/components/net/lwip-2.0.2/src/core/dns.c:1032:18
	add.w	r0, r4, r4, lsl #4
	movw	r1, :lower16:dns_table
	movt	r1, :upper16:dns_table
	add.w	r6, r1, r0, lsl #4
	mov	r5, r6
	ldrb	r2, [r5, #10]!
	.loc	5 1032 3 is_stmt 0              @ rt-thread/components/net/lwip-2.0.2/src/core/dns.c:1032:3
	cmp	r2, #3
	bhi	.LBB9_7
.Ltmp131:
@ %bb.3:
	@DEBUG_VALUE: dns_check_entry:i <- $r4
	.loc	5 0 3                           @ rt-thread/components/net/lwip-2.0.2/src/core/dns.c:0:3
.LCPI9_2:
	tbb	[pc, r2]
.Ltmp132:
@ %bb.4:
.LJTI9_0:
	.byte	(.LBB9_9-(.LCPI9_2+4))/2
	.byte	(.LBB9_5-(.LCPI9_2+4))/2
	.byte	(.LBB9_8-(.LCPI9_2+4))/2
	.byte	(.LBB9_10-(.LCPI9_2+4))/2
	.p2align	1
.LBB9_5:
.Ltmp133:
	@DEBUG_VALUE: dns_check_entry:i <- $r4
	.loc	5 1035 21 is_stmt 1             @ rt-thread/components/net/lwip-2.0.2/src/core/dns.c:1035:21
	bl	dns_create_txid
	.loc	5 1035 19 is_stmt 0             @ rt-thread/components/net/lwip-2.0.2/src/core/dns.c:1035:19
	strh	r0, [r6, #8]
	movs	r0, #2
	.loc	5 1036 20 is_stmt 1             @ rt-thread/components/net/lwip-2.0.2/src/core/dns.c:1036:20
	strb	r0, [r5]
	mov.w	r0, #256
	.loc	5 1037 25                       @ rt-thread/components/net/lwip-2.0.2/src/core/dns.c:1037:25
	strh.w	r0, [r6, #11]
	movs	r0, #0
	.loc	5 1039 22                       @ rt-thread/components/net/lwip-2.0.2/src/core/dns.c:1039:22
	strb	r0, [r6, #13]
.Ltmp134:
.LBB9_6:
	@DEBUG_VALUE: dns_check_entry:i <- $r4
	.loc	5 0 0 is_stmt 0                 @ rt-thread/components/net/lwip-2.0.2/src/core/dns.c:0:0
	mov	r0, r4
	bl	dns_send
.Ltmp135:
	@DEBUG_VALUE: dns_check_entry:err <- undef
	.loc	5 1096 1 is_stmt 1              @ rt-thread/components/net/lwip-2.0.2/src/core/dns.c:1096:1
	pop	{r4, r5, r6, pc}
.Ltmp136:
.LBB9_7:
	@DEBUG_VALUE: dns_check_entry:i <- $r4
	.loc	5 1093 7                        @ rt-thread/components/net/lwip-2.0.2/src/core/dns.c:1093:7
	adr	r0, .LCPI9_1
	bl	rt_kprintf
	movw	r0, :lower16:.L.str.1
	movw	r1, #1093
	movt	r0, :upper16:.L.str.1
	bl	sys_arch_assert
	b	.LBB9_9
.Ltmp137:
.LBB9_8:
	@DEBUG_VALUE: dns_check_entry:i <- $r4
	.loc	5 1049 11                       @ rt-thread/components/net/lwip-2.0.2/src/core/dns.c:1049:11
	mov	r0, r6
	ldrb	r1, [r0, #12]!
	subs	r1, #1
	strb	r1, [r0]
.Ltmp138:
	.loc	5 1049 11 is_stmt 0             @ rt-thread/components/net/lwip-2.0.2/src/core/dns.c:1049:11
	lsls	r2, r1, #24
	beq	.LBB9_13
.Ltmp139:
.LBB9_9:
	@DEBUG_VALUE: dns_check_entry:i <- $r4
	.loc	5 1096 1 is_stmt 1              @ rt-thread/components/net/lwip-2.0.2/src/core/dns.c:1096:1
	pop	{r4, r5, r6, pc}
.Ltmp140:
.LBB9_10:
	@DEBUG_VALUE: dns_check_entry:i <- $r4
	.loc	5 1083 19                       @ rt-thread/components/net/lwip-2.0.2/src/core/dns.c:1083:19
	lsls	r0, r0, #4
	ldr	r0, [r1, r0]
	.loc	5 1083 29 is_stmt 0             @ rt-thread/components/net/lwip-2.0.2/src/core/dns.c:1083:29
	cbz	r0, .LBB9_12
.Ltmp141:
@ %bb.11:
	@DEBUG_VALUE: dns_check_entry:i <- $r4
	.loc	5 1083 33                       @ rt-thread/components/net/lwip-2.0.2/src/core/dns.c:1083:33
	subs	r0, #1
	str	r0, [r6]
.Ltmp142:
	.loc	5 1096 1 is_stmt 1              @ rt-thread/components/net/lwip-2.0.2/src/core/dns.c:1096:1
	it	ne
	popne	{r4, r5, r6, pc}
.Ltmp143:
.LBB9_12:
	.loc	5 0 1 is_stmt 0                 @ rt-thread/components/net/lwip-2.0.2/src/core/dns.c:0:1
	movs	r0, #0
.Ltmp144:
	.loc	5 1086 22 is_stmt 1             @ rt-thread/components/net/lwip-2.0.2/src/core/dns.c:1086:22
	strb	r0, [r5]
.Ltmp145:
	.loc	5 1096 1                        @ rt-thread/components/net/lwip-2.0.2/src/core/dns.c:1096:1
	pop	{r4, r5, r6, pc}
.LBB9_13:
.Ltmp146:
	@DEBUG_VALUE: dns_check_entry:i <- $r4
	.loc	5 1050 13                       @ rt-thread/components/net/lwip-2.0.2/src/core/dns.c:1050:13
	mov	r1, r6
	ldrb	r2, [r1, #13]!
	adds	r2, #1
	strb	r2, [r1]
	uxtb	r3, r2
.Ltmp147:
	.loc	5 1050 13 is_stmt 0             @ rt-thread/components/net/lwip-2.0.2/src/core/dns.c:1050:13
	cmp	r3, #4
	bne	.LBB9_16
.Ltmp148:
@ %bb.14:
	@DEBUG_VALUE: dns_check_entry:i <- $r4
	.loc	5 1051 23 is_stmt 1             @ rt-thread/components/net/lwip-2.0.2/src/core/dns.c:1051:23
	ldrb	r2, [r6, #11]!
	.loc	5 1051 57 is_stmt 0             @ rt-thread/components/net/lwip-2.0.2/src/core/dns.c:1051:57
	cbz	r2, .LBB9_17
.Ltmp149:
.LBB9_15:
	@DEBUG_VALUE: dns_check_entry:i <- $r4
	.loc	5 1063 13 is_stmt 1             @ rt-thread/components/net/lwip-2.0.2/src/core/dns.c:1063:13
	movs	r1, #0
	mov	r0, r4
	movs	r6, #0
	bl	dns_call_found
	.loc	5 1065 26                       @ rt-thread/components/net/lwip-2.0.2/src/core/dns.c:1065:26
	strb	r6, [r5]
.Ltmp150:
	.loc	5 1096 1                        @ rt-thread/components/net/lwip-2.0.2/src/core/dns.c:1096:1
	pop	{r4, r5, r6, pc}
.Ltmp151:
.LBB9_16:
	@DEBUG_VALUE: dns_check_entry:i <- $r4
	.loc	5 1070 22                       @ rt-thread/components/net/lwip-2.0.2/src/core/dns.c:1070:22
	strb	r2, [r0]
	b	.LBB9_6
.Ltmp152:
.LBB9_17:
	@DEBUG_VALUE: dns_check_entry:i <- $r4
	.loc	5 1051 61                       @ rt-thread/components/net/lwip-2.0.2/src/core/dns.c:1051:61
	movw	r3, :lower16:dns_servers
	movt	r3, :upper16:dns_servers
	add.w	r3, r3, r2, lsl #2
	ldr	r3, [r3, #4]
.Ltmp153:
	.loc	5 1051 15 is_stmt 0             @ rt-thread/components/net/lwip-2.0.2/src/core/dns.c:1051:15
	cmp	r3, #0
	beq	.LBB9_15
.Ltmp154:
@ %bb.18:
	@DEBUG_VALUE: dns_check_entry:i <- $r4
	.loc	5 1057 30 is_stmt 1             @ rt-thread/components/net/lwip-2.0.2/src/core/dns.c:1057:30
	adds	r2, #1
	strb	r2, [r6]
	movs	r2, #1
	.loc	5 1058 24                       @ rt-thread/components/net/lwip-2.0.2/src/core/dns.c:1058:24
	strb	r2, [r0]
	movs	r0, #0
	.loc	5 1059 28                       @ rt-thread/components/net/lwip-2.0.2/src/core/dns.c:1059:28
	strb	r0, [r1]
	b	.LBB9_6
.Ltmp155:
	.p2align	2
@ %bb.19:
	.loc	5 0 28 is_stmt 0                @ rt-thread/components/net/lwip-2.0.2/src/core/dns.c:0:28
.LCPI9_0:
.L.str:
	.asciz	"array index out of bounds\000\000"
.LCPI9_1:
.L.str.2:
	.asciz	"unknown dns_table entry state:\000"
.Lfunc_end9:
	.size	dns_check_entry, .Lfunc_end9-dns_check_entry
	.cfi_endproc
	.cantunwind
	.fnend
                                        @ -- End function
	.section	.text.dns_create_txid,"ax",%progbits
	.p2align	3                               @ -- Begin function dns_create_txid
	.type	dns_create_txid,%function
	.code	16                              @ @dns_create_txid
	.thumb_func
dns_create_txid:
.Lfunc_begin10:
	.loc	5 996 0 is_stmt 1               @ rt-thread/components/net/lwip-2.0.2/src/core/dns.c:996:0
	.fnstart
	.cfi_startproc
@ %bb.0:
	.save	{r4, r5, r7, lr}
	push	{r4, r5, r7, lr}
	.cfi_def_cfa_offset 16
	.cfi_offset lr, -4
	.cfi_offset r7, -8
	.cfi_offset r5, -12
	.cfi_offset r4, -16
	movw	r4, :lower16:dns_table
	movt	r4, :upper16:dns_table
.LBB10_1:                               @ =>This Loop Header: Depth=1
                                        @     Child Loop BB10_3 Depth 2
.Ltmp156:
	@DEBUG_LABEL: dns_create_txid:again
	movs	r5, #0
.Ltmp157:
	.loc	5 1001 17 prologue_end          @ rt-thread/components/net/lwip-2.0.2/src/core/dns.c:1001:17
	bl	rand
.Ltmp158:
	@DEBUG_VALUE: dns_create_txid:i <- 0
	@DEBUG_VALUE: dns_create_txid:txid <- [DW_OP_LLVM_convert 32 7, DW_OP_LLVM_convert 16 7, DW_OP_stack_value] $r0
	.loc	5 0 17 is_stmt 0                @ rt-thread/components/net/lwip-2.0.2/src/core/dns.c:0:17
	b	.LBB10_3
.Ltmp159:
	.p2align	2
.LBB10_2:                               @   in Loop: Header=BB10_3 Depth=2
	@DEBUG_VALUE: dns_create_txid:txid <- [DW_OP_LLVM_convert 32 7, DW_OP_LLVM_convert 16 7, DW_OP_stack_value] $r0
	@DEBUG_VALUE: dns_create_txid:i <- [DW_OP_plus_uconst 1, DW_OP_stack_value] undef
	.loc	5 1004 17 is_stmt 1             @ rt-thread/components/net/lwip-2.0.2/src/core/dns.c:1004:17
	add.w	r5, r5, #272
.Ltmp160:
	.loc	5 1004 3 is_stmt 0              @ rt-thread/components/net/lwip-2.0.2/src/core/dns.c:1004:3
	cmp.w	r5, #1088
	beq	.LBB10_5
.Ltmp161:
.LBB10_3:                               @   Parent Loop BB10_1 Depth=1
                                        @ =>  This Inner Loop Header: Depth=2
	@DEBUG_VALUE: dns_create_txid:txid <- [DW_OP_LLVM_convert 32 7, DW_OP_LLVM_convert 16 7, DW_OP_stack_value] $r0
	@DEBUG_VALUE: dns_create_txid:i <- undef
	.loc	5 1005 23 is_stmt 1             @ rt-thread/components/net/lwip-2.0.2/src/core/dns.c:1005:23
	adds	r1, r4, r5
	ldrb	r2, [r1, #10]
	.loc	5 1005 50 is_stmt 0             @ rt-thread/components/net/lwip-2.0.2/src/core/dns.c:1005:50
	cmp	r2, #2
	bne	.LBB10_2
.Ltmp162:
@ %bb.4:                                @   in Loop: Header=BB10_3 Depth=2
	@DEBUG_VALUE: dns_create_txid:txid <- [DW_OP_LLVM_convert 32 7, DW_OP_LLVM_convert 16 7, DW_OP_stack_value] $r0
	.loc	5 0 50                          @ rt-thread/components/net/lwip-2.0.2/src/core/dns.c:0:50
	uxth	r2, r0
	.loc	5 1006 23 is_stmt 1             @ rt-thread/components/net/lwip-2.0.2/src/core/dns.c:1006:23
	ldrh	r1, [r1, #8]
.Ltmp163:
	.loc	5 1005 9                        @ rt-thread/components/net/lwip-2.0.2/src/core/dns.c:1005:9
	cmp	r1, r2
	bne	.LBB10_2
	b	.LBB10_1
.Ltmp164:
.LBB10_5:
	@DEBUG_VALUE: dns_create_txid:txid <- [DW_OP_LLVM_convert 32 7, DW_OP_LLVM_convert 16 7, DW_OP_stack_value] $r0
	.loc	5 1012 3                        @ rt-thread/components/net/lwip-2.0.2/src/core/dns.c:1012:3
	uxth	r0, r0
.Ltmp165:
	@DEBUG_VALUE: dns_create_txid:txid <- $r0
	pop	{r4, r5, r7, pc}
.Ltmp166:
.Lfunc_end10:
	.size	dns_create_txid, .Lfunc_end10-dns_create_txid
	.cfi_endproc
	.cantunwind
	.fnend
                                        @ -- End function
	.section	.text.dns_send,"ax",%progbits
	.p2align	3                               @ -- Begin function dns_send
	.type	dns_send,%function
	.code	16                              @ @dns_send
	.thumb_func
dns_send:
.Lfunc_begin11:
	.loc	5 750 0                         @ rt-thread/components/net/lwip-2.0.2/src/core/dns.c:750:0
	.fnstart
	.cfi_startproc
@ %bb.0:
	@DEBUG_VALUE: dns_send:idx <- $r0
	.save	{r4, r5, r6, r7, r8, r9, r10, r11, lr}
	push.w	{r4, r5, r6, r7, r8, r9, r10, r11, lr}
	.cfi_def_cfa_offset 36
	.cfi_offset lr, -4
	.cfi_offset r11, -8
	.cfi_offset r10, -12
	.cfi_offset r9, -16
	.cfi_offset r8, -20
	.cfi_offset r7, -24
	.cfi_offset r6, -28
	.cfi_offset r5, -32
	.cfi_offset r4, -36
	.pad	#20
	sub	sp, #20
	.cfi_def_cfa_offset 56
	mov	r4, r0
.Ltmp167:
	@DEBUG_VALUE: dns_send:entry <- undef
	@DEBUG_VALUE: dns_send:idx <- $r4
	.loc	5 763 3 prologue_end            @ rt-thread/components/net/lwip-2.0.2/src/core/dns.c:763:3
	add.w	r0, r0, r0, lsl #4
	movw	r1, :lower16:dns_table
	movt	r1, :upper16:dns_table
	add.w	r9, r1, r0, lsl #4
	mov	r10, r9
	ldrb	r0, [r10, #11]!
.Ltmp168:
	.loc	5 763 3 is_stmt 0               @ rt-thread/components/net/lwip-2.0.2/src/core/dns.c:763:3
	cmp	r0, #2
	blo	.LBB11_2
.Ltmp169:
@ %bb.1:
	@DEBUG_VALUE: dns_send:idx <- $r4
	.loc	5 763 3                         @ rt-thread/components/net/lwip-2.0.2/src/core/dns.c:763:3
	adr	r0, .LCPI11_0
	bl	rt_kprintf
	movw	r0, :lower16:.L.str.1
	movw	r1, #763
	movt	r0, :upper16:.L.str.1
	bl	sys_arch_assert
.Ltmp170:
.LBB11_2:
	@DEBUG_VALUE: dns_send:idx <- $r4
	.loc	5 764 7 is_stmt 1               @ rt-thread/components/net/lwip-2.0.2/src/core/dns.c:764:7
	ldrb.w	r0, [r10]
	movw	r8, :lower16:dns_servers
	movt	r8, :upper16:dns_servers
	ldr.w	r0, [r8, r0, lsl #2]
.Ltmp171:
	.loc	5 764 7 is_stmt 0               @ rt-thread/components/net/lwip-2.0.2/src/core/dns.c:764:7
	cmp	r0, #0
	beq	.LBB11_10
.Ltmp172:
@ %bb.3:
	@DEBUG_VALUE: dns_send:idx <- $r4
	.loc	5 778 66 is_stmt 1              @ rt-thread/components/net/lwip-2.0.2/src/core/dns.c:778:66
	add.w	r0, r9, #16
	.loc	5 778 59 is_stmt 0              @ rt-thread/components/net/lwip-2.0.2/src/core/dns.c:778:59
	bl	strlen
	.loc	5 778 34                        @ rt-thread/components/net/lwip-2.0.2/src/core/dns.c:778:34
	adds	r0, #18
	.loc	5 778 7                         @ rt-thread/components/net/lwip-2.0.2/src/core/dns.c:778:7
	movs	r2, #0
	uxth	r1, r0
	movs	r0, #0
	movs	r4, #0
.Ltmp173:
	bl	pbuf_alloc
.Ltmp174:
	@DEBUG_VALUE: dns_send:p <- $r0
	.loc	5 780 7 is_stmt 1               @ rt-thread/components/net/lwip-2.0.2/src/core/dns.c:780:7
	cmp	r0, #0
	beq	.LBB11_11
.Ltmp175:
@ %bb.4:
	@DEBUG_VALUE: dns_send:p <- $r0
	.loc	5 0 0 is_stmt 0                 @ rt-thread/components/net/lwip-2.0.2/src/core/dns.c:0:0
	mov	r11, r0
.Ltmp176:
	@DEBUG_VALUE: dns_send:p <- $r11
	@DEBUG_VALUE: dns_send:p <- $r11
	.loc	5 785 32 is_stmt 1              @ rt-thread/components/net/lwip-2.0.2/src/core/dns.c:785:32
	ldrh.w	r0, [r9, #8]
	.loc	5 784 5                         @ rt-thread/components/net/lwip-2.0.2/src/core/dns.c:784:5
	strd	r4, r4, [sp, #12]
	str	r4, [sp, #8]
	.loc	5 785 14                        @ rt-thread/components/net/lwip-2.0.2/src/core/dns.c:785:14
	bl	lwip_htons
	.loc	5 785 12 is_stmt 0              @ rt-thread/components/net/lwip-2.0.2/src/core/dns.c:785:12
	strh.w	r0, [sp, #8]
	movs	r0, #1
	.loc	5 786 16 is_stmt 1              @ rt-thread/components/net/lwip-2.0.2/src/core/dns.c:786:16
	strb.w	r0, [sp, #10]
	mov.w	r0, #256
	.loc	5 787 22                        @ rt-thread/components/net/lwip-2.0.2/src/core/dns.c:787:22
	strh.w	r0, [sp, #12]
	add	r1, sp, #8
	.loc	5 788 5                         @ rt-thread/components/net/lwip-2.0.2/src/core/dns.c:788:5
	movs	r2, #12
	mov	r0, r11
	movs	r6, #12
	bl	pbuf_take
	.loc	5 790 5                         @ rt-thread/components/net/lwip-2.0.2/src/core/dns.c:790:5
	add.w	r0, r9, #15
.Ltmp177:
	@DEBUG_VALUE: dns_send:query_idx <- 12
	@DEBUG_VALUE: dns_send:hostname <- undef
	.p2align	2
.LBB11_5:                               @ =>This Loop Header: Depth=1
                                        @     Child Loop BB11_7 Depth 2
	@DEBUG_VALUE: dns_send:p <- $r11
	@DEBUG_VALUE: dns_send:hostname <- $r0
	@DEBUG_VALUE: dns_send:query_idx <- $r6
	.loc	5 795 7                         @ rt-thread/components/net/lwip-2.0.2/src/core/dns.c:795:7
	adds	r5, r0, #1
.Ltmp178:
	@DEBUG_VALUE: dns_send:hostname_part <- $r5
	@DEBUG_VALUE: dns_send:hostname <- $r5
	.loc	5 0 7 is_stmt 0                 @ rt-thread/components/net/lwip-2.0.2/src/core/dns.c:0:7
	movs	r7, #0
.Ltmp179:
	@DEBUG_VALUE: dns_send:n <- 0
	movs	r4, #0
	b	.LBB11_7
.Ltmp180:
	.p2align	2
.LBB11_6:                               @   in Loop: Header=BB11_7 Depth=2
	@DEBUG_VALUE: dns_send:p <- $r11
	@DEBUG_VALUE: dns_send:query_idx <- $r6
	@DEBUG_VALUE: dns_send:hostname_part <- $r5
	@DEBUG_VALUE: dns_send:n <- $r4
	.loc	5 798 9 is_stmt 1               @ rt-thread/components/net/lwip-2.0.2/src/core/dns.c:798:9
	adds	r4, #1
.Ltmp181:
	@DEBUG_VALUE: dns_send:n <- $r4
	@DEBUG_VALUE: dns_send:hostname <- [DW_OP_plus_uconst 1, DW_OP_stack_value] undef
	.loc	5 797 7                         @ rt-thread/components/net/lwip-2.0.2/src/core/dns.c:797:7
	adds	r7, #1
.Ltmp182:
.LBB11_7:                               @   Parent Loop BB11_5 Depth=1
                                        @ =>  This Inner Loop Header: Depth=2
	@DEBUG_VALUE: dns_send:p <- $r11
	@DEBUG_VALUE: dns_send:query_idx <- $r6
	@DEBUG_VALUE: dns_send:hostname_part <- $r5
	@DEBUG_VALUE: dns_send:hostname <- undef
	@DEBUG_VALUE: dns_send:n <- $r4
	.loc	5 797 19 is_stmt 0              @ rt-thread/components/net/lwip-2.0.2/src/core/dns.c:797:19
	ldrb	r0, [r5, r7]
	.loc	5 797 36                        @ rt-thread/components/net/lwip-2.0.2/src/core/dns.c:797:36
	cmp	r0, #0
	it	ne
	cmpne	r0, #46
	bne	.LBB11_6
.Ltmp183:
@ %bb.8:                                @   in Loop: Header=BB11_5 Depth=1
	@DEBUG_VALUE: dns_send:p <- $r11
	@DEBUG_VALUE: dns_send:query_idx <- $r6
	@DEBUG_VALUE: dns_send:hostname_part <- $r5
	@DEBUG_VALUE: dns_send:n <- $r4
	.loc	5 801 7 is_stmt 1               @ rt-thread/components/net/lwip-2.0.2/src/core/dns.c:801:7
	uxth	r1, r6
	mov	r0, r11
	uxtb	r2, r4
	bl	pbuf_put_at
	.loc	5 802 7                         @ rt-thread/components/net/lwip-2.0.2/src/core/dns.c:802:7
	uxth	r2, r7
.Ltmp184:
	@DEBUG_VALUE: dns_send:copy_len <- $r2
	.loc	5 802 58 is_stmt 0              @ rt-thread/components/net/lwip-2.0.2/src/core/dns.c:802:58
	adds	r6, #1
.Ltmp185:
	.loc	5 802 7                         @ rt-thread/components/net/lwip-2.0.2/src/core/dns.c:802:7
	uxth	r3, r6
	mov	r0, r11
	mov	r1, r5
	bl	pbuf_take_at
.Ltmp186:
	.loc	5 803 17 is_stmt 1              @ rt-thread/components/net/lwip-2.0.2/src/core/dns.c:803:17
	uxtab	r6, r6, r4
.Ltmp187:
	@DEBUG_VALUE: dns_send:query_idx <- $r6
	.loc	5 804 14                        @ rt-thread/components/net/lwip-2.0.2/src/core/dns.c:804:14
	ldrb	r0, [r5, r7]
.Ltmp188:
	.loc	5 804 5 is_stmt 0               @ rt-thread/components/net/lwip-2.0.2/src/core/dns.c:804:5
	cmp	r0, #0
.Ltmp189:
	.loc	5 804 14                        @ rt-thread/components/net/lwip-2.0.2/src/core/dns.c:804:14
	add.w	r0, r5, r7
.Ltmp190:
	.loc	5 804 5                         @ rt-thread/components/net/lwip-2.0.2/src/core/dns.c:804:5
	bne	.LBB11_5
.Ltmp191:
@ %bb.9:
	@DEBUG_VALUE: dns_send:p <- $r11
	@DEBUG_VALUE: dns_send:query_idx <- $r6
	@DEBUG_VALUE: dns_send:hostname_part <- $r5
	@DEBUG_VALUE: dns_send:n <- $r4
	.loc	5 805 5 is_stmt 1               @ rt-thread/components/net/lwip-2.0.2/src/core/dns.c:805:5
	uxth	r1, r6
	movs	r2, #0
	mov	r0, r11
	bl	pbuf_put_at
	.loc	5 806 14                        @ rt-thread/components/net/lwip-2.0.2/src/core/dns.c:806:14
	adds	r0, r6, #1
.Ltmp192:
	@DEBUG_VALUE: dns_send:query_idx <- $r0
	.loc	5 0 14 is_stmt 0                @ rt-thread/components/net/lwip-2.0.2/src/core/dns.c:0:14
	mov.w	r1, #16777472
	.loc	5 815 5 is_stmt 1               @ rt-thread/components/net/lwip-2.0.2/src/core/dns.c:815:5
	uxth	r3, r0
.Ltmp193:
	.loc	5 812 16                        @ rt-thread/components/net/lwip-2.0.2/src/core/dns.c:812:16
	str	r1, [sp, #4]
	add	r1, sp, #4
.Ltmp194:
	.loc	5 815 5                         @ rt-thread/components/net/lwip-2.0.2/src/core/dns.c:815:5
	movs	r2, #4
	mov	r0, r11
.Ltmp195:
	bl	pbuf_take_at
	.loc	5 818 22                        @ rt-thread/components/net/lwip-2.0.2/src/core/dns.c:818:22
	ldrb.w	r0, [r9, #15]
.Ltmp196:
	@DEBUG_VALUE: dst_port <- 53
	@DEBUG_VALUE: dns_send:pcb_idx <- undef
	.loc	5 846 33                        @ rt-thread/components/net/lwip-2.0.2/src/core/dns.c:846:33
	ldrb.w	r1, [r10]
.Ltmp197:
	.loc	5 848 22                        @ rt-thread/components/net/lwip-2.0.2/src/core/dns.c:848:22
	movw	r3, :lower16:dns_pcbs
	movt	r3, :upper16:dns_pcbs
.Ltmp198:
	.loc	5 846 14                        @ rt-thread/components/net/lwip-2.0.2/src/core/dns.c:846:14
	add.w	r2, r8, r1, lsl #2
.Ltmp199:
	@DEBUG_VALUE: dst <- $r2
	.loc	5 848 11                        @ rt-thread/components/net/lwip-2.0.2/src/core/dns.c:848:11
	mov	r1, r11
	.loc	5 848 22 is_stmt 0              @ rt-thread/components/net/lwip-2.0.2/src/core/dns.c:848:22
	ldr.w	r0, [r3, r0, lsl #2]
	.loc	5 848 11                        @ rt-thread/components/net/lwip-2.0.2/src/core/dns.c:848:11
	movs	r3, #53
	bl	udp_sendto
.Ltmp200:
	mov	r5, r0
.Ltmp201:
	@DEBUG_VALUE: dns_send:err <- undef
	.loc	5 851 5 is_stmt 1               @ rt-thread/components/net/lwip-2.0.2/src/core/dns.c:851:5
	mov	r0, r11
	bl	pbuf_free
	b	.LBB11_12
.Ltmp202:
.LBB11_10:
	@DEBUG_VALUE: dns_send:idx <- $r4
	.loc	5 771 5                         @ rt-thread/components/net/lwip-2.0.2/src/core/dns.c:771:5
	movs	r1, #0
	mov	r0, r4
	movs	r5, #0
	bl	dns_call_found
	.loc	5 773 18                        @ rt-thread/components/net/lwip-2.0.2/src/core/dns.c:773:18
	strb.w	r5, [r9, #10]
	.loc	5 774 5                         @ rt-thread/components/net/lwip-2.0.2/src/core/dns.c:774:5
	b	.LBB11_12
.Ltmp203:
.LBB11_11:
	@DEBUG_VALUE: dns_send:p <- $r0
	.loc	5 0 5 is_stmt 0                 @ rt-thread/components/net/lwip-2.0.2/src/core/dns.c:0:5
	movs	r5, #255
.Ltmp204:
.LBB11_12:
	.loc	5 857 1 is_stmt 1               @ rt-thread/components/net/lwip-2.0.2/src/core/dns.c:857:1
	sxtb	r0, r5
	add	sp, #20
	pop.w	{r4, r5, r6, r7, r8, r9, r10, r11, pc}
.Ltmp205:
	.p2align	2
@ %bb.13:
	.loc	5 0 1 is_stmt 0                 @ rt-thread/components/net/lwip-2.0.2/src/core/dns.c:0:1
.LCPI11_0:
.L.str.3:
	.asciz	"dns server out of array"
.Lfunc_end11:
	.size	dns_send, .Lfunc_end11-dns_send
	.cfi_endproc
	.cantunwind
	.fnend
                                        @ -- End function
	.section	.text.dns_call_found,"ax",%progbits
	.p2align	3                               @ -- Begin function dns_call_found
	.type	dns_call_found,%function
	.code	16                              @ @dns_call_found
	.thumb_func
dns_call_found:
.Lfunc_begin12:
	.loc	5 938 0 is_stmt 1               @ rt-thread/components/net/lwip-2.0.2/src/core/dns.c:938:0
	.fnstart
	.cfi_startproc
@ %bb.0:
	@DEBUG_VALUE: dns_call_found:idx <- $r0
	@DEBUG_VALUE: dns_call_found:addr <- $r1
	.save	{r4, r5, r6, r7, r8, r9, r10, r11, lr}
	push.w	{r4, r5, r6, r7, r8, r9, r10, r11, lr}
	.cfi_def_cfa_offset 36
	.cfi_offset lr, -4
	.cfi_offset r11, -8
	.cfi_offset r10, -12
	.cfi_offset r9, -16
	.cfi_offset r8, -20
	.cfi_offset r7, -24
	.cfi_offset r6, -28
	.cfi_offset r5, -32
	.cfi_offset r4, -36
	.pad	#4
	sub	sp, #4
	.cfi_def_cfa_offset 40
	mov	r4, r0
	add.w	r0, r0, r0, lsl #4
.Ltmp206:
	@DEBUG_VALUE: dns_call_found:idx <- [DW_OP_LLVM_entry_value 1] $r0
	movw	r10, :lower16:dns_table
	movw	r7, :lower16:dns_requests
	movt	r10, :upper16:dns_table
	mov	r5, r1
.Ltmp207:
	@DEBUG_VALUE: dns_call_found:addr <- $r5
	add.w	r8, r10, r0, lsl #4
	mov.w	r11, #0
	add.w	r6, r8, #16
	movt	r7, :upper16:dns_requests
	mov.w	r9, #0
.Ltmp208:
	@DEBUG_VALUE: dns_call_found:i <- 0
	@DEBUG_VALUE: dns_call_found:addr <- $r5
	@DEBUG_VALUE: dns_call_found:idx <- $r4
	str	r0, [sp]                        @ 4-byte Spill
	b	.LBB12_2
.Ltmp209:
	.p2align	2
.LBB12_1:                               @   in Loop: Header=BB12_2 Depth=1
	@DEBUG_VALUE: dns_call_found:addr <- $r5
	@DEBUG_VALUE: dns_call_found:idx <- $r4
	@DEBUG_VALUE: dns_call_found:i <- [DW_OP_plus_uconst 1, DW_OP_stack_value] undef
	.loc	5 957 17 prologue_end           @ rt-thread/components/net/lwip-2.0.2/src/core/dns.c:957:17
	add.w	r9, r9, #12
.Ltmp210:
	.loc	5 957 3 is_stmt 0               @ rt-thread/components/net/lwip-2.0.2/src/core/dns.c:957:3
	cmp.w	r9, #48
	beq	.LBB12_5
.Ltmp211:
.LBB12_2:                               @ =>This Inner Loop Header: Depth=1
	@DEBUG_VALUE: dns_call_found:addr <- $r5
	@DEBUG_VALUE: dns_call_found:idx <- $r4
	@DEBUG_VALUE: dns_call_found:i <- undef
	.loc	5 958 25 is_stmt 1              @ rt-thread/components/net/lwip-2.0.2/src/core/dns.c:958:25
	ldr.w	r3, [r7, r9]
	.loc	5 958 31 is_stmt 0              @ rt-thread/components/net/lwip-2.0.2/src/core/dns.c:958:31
	cmp	r3, #0
	beq	.LBB12_1
.Ltmp212:
@ %bb.3:                                @   in Loop: Header=BB12_2 Depth=1
	@DEBUG_VALUE: dns_call_found:addr <- $r5
	@DEBUG_VALUE: dns_call_found:idx <- $r4
	.loc	5 958 51                        @ rt-thread/components/net/lwip-2.0.2/src/core/dns.c:958:51
	add.w	r0, r7, r9
	ldrb	r1, [r0, #8]
.Ltmp213:
	.loc	5 958 9                         @ rt-thread/components/net/lwip-2.0.2/src/core/dns.c:958:9
	cmp	r1, r4
	bne	.LBB12_1
.Ltmp214:
@ %bb.4:                                @   in Loop: Header=BB12_2 Depth=1
	@DEBUG_VALUE: dns_call_found:addr <- $r5
	@DEBUG_VALUE: dns_call_found:idx <- $r4
	.loc	5 959 75 is_stmt 1              @ rt-thread/components/net/lwip-2.0.2/src/core/dns.c:959:75
	ldr	r2, [r0, #4]
	.loc	5 959 7 is_stmt 0               @ rt-thread/components/net/lwip-2.0.2/src/core/dns.c:959:7
	mov	r0, r6
	mov	r1, r5
	blx	r3
	.loc	5 961 29 is_stmt 1              @ rt-thread/components/net/lwip-2.0.2/src/core/dns.c:961:29
	str.w	r11, [r7, r9]
	b	.LBB12_1
.Ltmp215:
.LBB12_5:
	@DEBUG_VALUE: dns_call_found:addr <- $r5
	@DEBUG_VALUE: dns_call_found:idx <- $r4
	@DEBUG_VALUE: dns_call_found:i <- 0
	.loc	5 0 29 is_stmt 0                @ rt-thread/components/net/lwip-2.0.2/src/core/dns.c:0:29
	ldr	r1, [sp]                        @ 4-byte Reload
	add.w	r0, r8, #15
	lsls	r1, r1, #4
	movs	r2, #0
	b	.LBB12_7
.Ltmp216:
	.p2align	2
.LBB12_6:                               @   in Loop: Header=BB12_7 Depth=1
	@DEBUG_VALUE: dns_call_found:addr <- $r5
	@DEBUG_VALUE: dns_call_found:idx <- $r4
	@DEBUG_VALUE: dns_call_found:i <- [DW_OP_plus_uconst 1, DW_OP_stack_value] undef
	.loc	5 972 17 is_stmt 1              @ rt-thread/components/net/lwip-2.0.2/src/core/dns.c:972:17
	add.w	r2, r2, #272
.Ltmp217:
	.loc	5 972 3 is_stmt 0               @ rt-thread/components/net/lwip-2.0.2/src/core/dns.c:972:3
	cmp.w	r2, #1088
	beq	.LBB12_11
.Ltmp218:
.LBB12_7:                               @ =>This Inner Loop Header: Depth=1
	@DEBUG_VALUE: dns_call_found:addr <- $r5
	@DEBUG_VALUE: dns_call_found:idx <- $r4
	@DEBUG_VALUE: dns_call_found:i <- undef
	.loc	5 973 9 is_stmt 1               @ rt-thread/components/net/lwip-2.0.2/src/core/dns.c:973:9
	cmp	r1, r2
	beq	.LBB12_6
.Ltmp219:
@ %bb.8:                                @   in Loop: Header=BB12_7 Depth=1
	@DEBUG_VALUE: dns_call_found:addr <- $r5
	@DEBUG_VALUE: dns_call_found:idx <- $r4
	.loc	5 976 22                        @ rt-thread/components/net/lwip-2.0.2/src/core/dns.c:976:22
	add.w	r3, r10, r2
	ldrb	r7, [r3, #10]
.Ltmp220:
	.loc	5 976 9 is_stmt 0               @ rt-thread/components/net/lwip-2.0.2/src/core/dns.c:976:9
	cmp	r7, #2
	bne	.LBB12_6
.Ltmp221:
@ %bb.9:                                @   in Loop: Header=BB12_7 Depth=1
	@DEBUG_VALUE: dns_call_found:addr <- $r5
	@DEBUG_VALUE: dns_call_found:idx <- $r4
	.loc	5 977 24 is_stmt 1              @ rt-thread/components/net/lwip-2.0.2/src/core/dns.c:977:24
	ldrb	r3, [r3, #15]
	.loc	5 977 50 is_stmt 0              @ rt-thread/components/net/lwip-2.0.2/src/core/dns.c:977:50
	ldrb	r7, [r0]
.Ltmp222:
	.loc	5 977 11                        @ rt-thread/components/net/lwip-2.0.2/src/core/dns.c:977:11
	cmp	r3, r7
	bne	.LBB12_6
.Ltmp223:
@ %bb.10:
	@DEBUG_VALUE: dns_call_found:addr <- $r5
	@DEBUG_VALUE: dns_call_found:idx <- $r4
	.loc	5 0 11                          @ rt-thread/components/net/lwip-2.0.2/src/core/dns.c:0:11
	movs	r1, #4
.Ltmp224:
	.loc	5 979 32 is_stmt 1              @ rt-thread/components/net/lwip-2.0.2/src/core/dns.c:979:32
	strb	r1, [r0]
.Ltmp225:
.LBB12_11:
	@DEBUG_VALUE: dns_call_found:addr <- $r5
	@DEBUG_VALUE: dns_call_found:idx <- $r4
	.loc	5 984 22                        @ rt-thread/components/net/lwip-2.0.2/src/core/dns.c:984:22
	ldrb	r0, [r8, #15]!
.Ltmp226:
	.loc	5 984 7 is_stmt 0               @ rt-thread/components/net/lwip-2.0.2/src/core/dns.c:984:7
	cmp	r0, #3
	bhi	.LBB12_13
.Ltmp227:
@ %bb.12:
	@DEBUG_VALUE: dns_call_found:addr <- $r5
	@DEBUG_VALUE: dns_call_found:idx <- $r4
	.loc	5 986 16 is_stmt 1              @ rt-thread/components/net/lwip-2.0.2/src/core/dns.c:986:16
	movw	r4, :lower16:dns_pcbs
.Ltmp228:
	movt	r4, :upper16:dns_pcbs
	ldr.w	r0, [r4, r0, lsl #2]
	.loc	5 986 5 is_stmt 0               @ rt-thread/components/net/lwip-2.0.2/src/core/dns.c:986:5
	bl	udp_remove
	.loc	5 987 29 is_stmt 1              @ rt-thread/components/net/lwip-2.0.2/src/core/dns.c:987:29
	ldrb.w	r0, [r8]
	movs	r1, #0
	.loc	5 987 38 is_stmt 0              @ rt-thread/components/net/lwip-2.0.2/src/core/dns.c:987:38
	str.w	r1, [r4, r0, lsl #2]
	movs	r0, #4
	.loc	5 988 28 is_stmt 1              @ rt-thread/components/net/lwip-2.0.2/src/core/dns.c:988:28
	strb.w	r0, [r8]
.Ltmp229:
.LBB12_13:
	@DEBUG_VALUE: dns_call_found:addr <- $r5
	.loc	5 991 1                         @ rt-thread/components/net/lwip-2.0.2/src/core/dns.c:991:1
	add	sp, #4
	pop.w	{r4, r5, r6, r7, r8, r9, r10, r11, pc}
.Ltmp230:
.Lfunc_end12:
	.size	dns_call_found, .Lfunc_end12-dns_call_found
	.cfi_endproc
	.cantunwind
	.fnend
                                        @ -- End function
	.section	.text.dns_alloc_pcb,"ax",%progbits
	.p2align	3                               @ -- Begin function dns_alloc_pcb
	.type	dns_alloc_pcb,%function
	.code	16                              @ @dns_alloc_pcb
	.thumb_func
dns_alloc_pcb:
.Lfunc_begin13:
	.loc	5 896 0                         @ rt-thread/components/net/lwip-2.0.2/src/core/dns.c:896:0
	.fnstart
	.cfi_startproc
@ %bb.0:
	.save	{r4, r5, r6, lr}
	push	{r4, r5, r6, lr}
	.cfi_def_cfa_offset 16
	.cfi_offset lr, -4
	.cfi_offset r6, -8
	.cfi_offset r5, -12
	.cfi_offset r4, -16
	movw	r5, :lower16:dns_pcbs
	movs	r4, #0
.Ltmp231:
	@DEBUG_VALUE: dns_alloc_pcb:i <- 0
	movt	r5, :upper16:dns_pcbs
.Ltmp232:
	.p2align	2
.LBB13_1:                               @ =>This Inner Loop Header: Depth=1
	@DEBUG_VALUE: dns_alloc_pcb:i <- $r4
	.loc	5 900 15 prologue_end           @ rt-thread/components/net/lwip-2.0.2/src/core/dns.c:900:15
	uxtb	r6, r4
.Ltmp233:
	.loc	5 901 9                         @ rt-thread/components/net/lwip-2.0.2/src/core/dns.c:901:9
	ldr.w	r0, [r5, r6, lsl #2]
.Ltmp234:
	.loc	5 901 9 is_stmt 0               @ rt-thread/components/net/lwip-2.0.2/src/core/dns.c:901:9
	cbz	r0, .LBB13_3
.Ltmp235:
@ %bb.2:                                @   in Loop: Header=BB13_1 Depth=1
	@DEBUG_VALUE: dns_alloc_pcb:i <- $r4
	.loc	5 900 3 is_stmt 1               @ rt-thread/components/net/lwip-2.0.2/src/core/dns.c:900:3
	cmp	r6, #3
.Ltmp236:
	.loc	5 900 42 is_stmt 0              @ rt-thread/components/net/lwip-2.0.2/src/core/dns.c:900:42
	add.w	r4, r4, #1
.Ltmp237:
	@DEBUG_VALUE: dns_alloc_pcb:i <- $r4
	.loc	5 900 3                         @ rt-thread/components/net/lwip-2.0.2/src/core/dns.c:900:3
	blo	.LBB13_1
	b	.LBB13_5
.Ltmp238:
.LBB13_3:
	@DEBUG_VALUE: dns_alloc_pcb:i <- $r4
	.loc	5 906 19 is_stmt 1              @ rt-thread/components/net/lwip-2.0.2/src/core/dns.c:906:19
	bl	dns_alloc_random_port
	.loc	5 906 17 is_stmt 0              @ rt-thread/components/net/lwip-2.0.2/src/core/dns.c:906:17
	str.w	r0, [r5, r6, lsl #2]
	.loc	5 907 9 is_stmt 1               @ rt-thread/components/net/lwip-2.0.2/src/core/dns.c:907:9
	cbz	r0, .LBB13_5
.Ltmp239:
.LBB13_4:
	.loc	5 0 0 is_stmt 0                 @ rt-thread/components/net/lwip-2.0.2/src/core/dns.c:0:0
	movw	r0, :lower16:dns_last_pcb_idx
	movt	r0, :upper16:dns_last_pcb_idx
	strb	r4, [r0]
	.loc	5 925 1 is_stmt 1               @ rt-thread/components/net/lwip-2.0.2/src/core/dns.c:925:1
	uxtb	r0, r4
	pop	{r4, r5, r6, pc}
.LBB13_5:
.Ltmp240:
	@DEBUG_VALUE: dns_alloc_pcb:i <- $r4
	@DEBUG_VALUE: dns_alloc_pcb:i <- 0
	.loc	5 915 21                        @ rt-thread/components/net/lwip-2.0.2/src/core/dns.c:915:21
	movw	r0, :lower16:dns_last_pcb_idx
	movt	r0, :upper16:dns_last_pcb_idx
	ldrb	r4, [r0]
	movs	r0, #0
.Ltmp241:
	@DEBUG_VALUE: dns_alloc_pcb:idx <- [DW_OP_plus_uconst 1, DW_OP_stack_value] undef
	.p2align	2
.LBB13_6:                               @ =>This Inner Loop Header: Depth=1
	.loc	5 0 0 is_stmt 0                 @ rt-thread/components/net/lwip-2.0.2/src/core/dns.c:0:0
	adds	r4, #1
	uxtb	r1, r4
.Ltmp242:
	@DEBUG_VALUE: dns_alloc_pcb:i <- $r0
	.loc	5 916 9 is_stmt 1               @ rt-thread/components/net/lwip-2.0.2/src/core/dns.c:916:9
	cmp	r1, #3
	it	hi
	movhi	r4, #0
.Ltmp243:
	@DEBUG_VALUE: dns_alloc_pcb:idx <- [DW_OP_plus_uconst 1, DW_OP_stack_value] $r4
	.loc	5 919 9                         @ rt-thread/components/net/lwip-2.0.2/src/core/dns.c:919:9
	uxtb	r1, r4
	ldr.w	r1, [r5, r1, lsl #2]
.Ltmp244:
	@DEBUG_VALUE: dns_alloc_pcb:i <- [DW_OP_plus_uconst 1, DW_OP_stack_value] $r0
	.loc	5 919 9 is_stmt 0               @ rt-thread/components/net/lwip-2.0.2/src/core/dns.c:919:9
	cmp	r1, #0
	bne	.LBB13_4
.Ltmp245:
@ %bb.7:                                @   in Loop: Header=BB13_6 Depth=1
	@DEBUG_VALUE: dns_alloc_pcb:idx <- [DW_OP_plus_uconst 1, DW_OP_stack_value] $r4
	@DEBUG_VALUE: dns_alloc_pcb:i <- [DW_OP_plus_uconst 1, DW_OP_stack_value] $r0
	.loc	5 915 3 is_stmt 1               @ rt-thread/components/net/lwip-2.0.2/src/core/dns.c:915:3
	cmp	r0, #2
.Ltmp246:
	.loc	5 915 70 is_stmt 0              @ rt-thread/components/net/lwip-2.0.2/src/core/dns.c:915:70
	add.w	r0, r0, #1
.Ltmp247:
	@DEBUG_VALUE: dns_alloc_pcb:idx <- [DW_OP_plus_uconst 1, DW_OP_stack_value] $r4
	@DEBUG_VALUE: dns_alloc_pcb:i <- [DW_OP_plus_uconst 1, DW_OP_stack_value] undef
	.loc	5 915 3                         @ rt-thread/components/net/lwip-2.0.2/src/core/dns.c:915:3
	bls	.LBB13_6
.Ltmp248:
@ %bb.8:
	@DEBUG_VALUE: dns_alloc_pcb:idx <- [DW_OP_plus_uconst 1, DW_OP_stack_value] $r4
	.loc	5 0 3                           @ rt-thread/components/net/lwip-2.0.2/src/core/dns.c:0:3
	movs	r4, #4
.Ltmp249:
	.loc	5 925 1 is_stmt 1               @ rt-thread/components/net/lwip-2.0.2/src/core/dns.c:925:1
	uxtb	r0, r4
	pop	{r4, r5, r6, pc}
.Ltmp250:
.Lfunc_end13:
	.size	dns_alloc_pcb, .Lfunc_end13-dns_alloc_pcb
	.cfi_endproc
	.cantunwind
	.fnend
                                        @ -- End function
	.section	.text.dns_alloc_random_port,"ax",%progbits
	.p2align	3                               @ -- Begin function dns_alloc_random_port
	.type	dns_alloc_random_port,%function
	.code	16                              @ @dns_alloc_random_port
	.thumb_func
dns_alloc_random_port:
.Lfunc_begin14:
	.loc	5 862 0                         @ rt-thread/components/net/lwip-2.0.2/src/core/dns.c:862:0
	.fnstart
	.cfi_startproc
@ %bb.0:
	.save	{r4, r5, r7, lr}
	push	{r4, r5, r7, lr}
	.cfi_def_cfa_offset 16
	.cfi_offset lr, -4
	.cfi_offset r7, -8
	.cfi_offset r5, -12
	.cfi_offset r4, -16
.Ltmp251:
	.loc	5 866 9 prologue_end            @ rt-thread/components/net/lwip-2.0.2/src/core/dns.c:866:9
	movs	r0, #46
	bl	udp_new_ip_type
.Ltmp252:
	@DEBUG_VALUE: dns_alloc_random_port:ret <- $r0
	.loc	5 867 7                         @ rt-thread/components/net/lwip-2.0.2/src/core/dns.c:867:7
	cbz	r0, .LBB14_8
.Ltmp253:
@ %bb.1:
	@DEBUG_VALUE: dns_alloc_random_port:ret <- $r0
	.loc	5 0 7 is_stmt 0                 @ rt-thread/components/net/lwip-2.0.2/src/core/dns.c:0:7
	movw	r5, :lower16:ip_addr_any
	mov	r4, r0
.Ltmp254:
	@DEBUG_VALUE: dns_alloc_random_port:ret <- $r4
	@DEBUG_VALUE: dns_alloc_random_port:ret <- $r4
	movt	r5, :upper16:ip_addr_any
	b	.LBB14_4
.Ltmp255:
	.p2align	2
.LBB14_2:                               @   in Loop: Header=BB14_4 Depth=1
	@DEBUG_VALUE: dns_alloc_random_port:ret <- $r4
	@DEBUG_VALUE: port <- [DW_OP_LLVM_convert 32 7, DW_OP_LLVM_convert 16 7, DW_OP_stack_value] $r0
	.loc	5 878 11 is_stmt 1              @ rt-thread/components/net/lwip-2.0.2/src/core/dns.c:878:11
	uxth	r2, r0
.Ltmp256:
	@DEBUG_VALUE: port <- $r2
	mov	r0, r4
	mov	r1, r5
	bl	udp_bind
.Ltmp257:
	@DEBUG_VALUE: dns_alloc_random_port:err <- undef
.LBB14_3:                               @   in Loop: Header=BB14_4 Depth=1
	@DEBUG_VALUE: dns_alloc_random_port:ret <- $r4
	@DEBUG_VALUE: dns_alloc_random_port:err <- $r0
	.loc	5 879 3                         @ rt-thread/components/net/lwip-2.0.2/src/core/dns.c:879:3
	uxtb	r0, r0
.Ltmp258:
	cmp	r0, #248
	bne	.LBB14_6
.Ltmp259:
.LBB14_4:                               @ =>This Inner Loop Header: Depth=1
	@DEBUG_VALUE: dns_alloc_random_port:ret <- $r4
	.loc	5 872 25                        @ rt-thread/components/net/lwip-2.0.2/src/core/dns.c:872:25
	bl	rand
.Ltmp260:
	@DEBUG_VALUE: port <- [DW_OP_LLVM_convert 32 7, DW_OP_LLVM_convert 16 7, DW_OP_stack_value] $r0
	.loc	5 873 9                         @ rt-thread/components/net/lwip-2.0.2/src/core/dns.c:873:9
	tst.w	r0, #64512
	bne	.LBB14_2
.Ltmp261:
@ %bb.5:                                @   in Loop: Header=BB14_4 Depth=1
	@DEBUG_VALUE: dns_alloc_random_port:ret <- $r4
	@DEBUG_VALUE: port <- [DW_OP_LLVM_convert 32 7, DW_OP_LLVM_convert 16 7, DW_OP_stack_value] $r0
	.loc	5 0 9 is_stmt 0                 @ rt-thread/components/net/lwip-2.0.2/src/core/dns.c:0:9
	movs	r0, #248
.Ltmp262:
	b	.LBB14_3
.Ltmp263:
.LBB14_6:
	@DEBUG_VALUE: dns_alloc_random_port:ret <- $r4
	.loc	5 879 3 is_stmt 1               @ rt-thread/components/net/lwip-2.0.2/src/core/dns.c:879:3
	cbnz	r0, .LBB14_9
.Ltmp264:
@ %bb.7:
	@DEBUG_VALUE: dns_alloc_random_port:ret <- $r4
	.loc	5 884 3                         @ rt-thread/components/net/lwip-2.0.2/src/core/dns.c:884:3
	movw	r1, :lower16:dns_recv
	movs	r2, #0
	movt	r1, :upper16:dns_recv
	mov	r0, r4
	bl	udp_recv
	.loc	5 886 1                         @ rt-thread/components/net/lwip-2.0.2/src/core/dns.c:886:1
	mov	r0, r4
	pop	{r4, r5, r7, pc}
.Ltmp265:
.LBB14_8:
	@DEBUG_VALUE: dns_alloc_random_port:ret <- $r0
	.loc	5 0 1 is_stmt 0                 @ rt-thread/components/net/lwip-2.0.2/src/core/dns.c:0:1
	movs	r0, #0
.Ltmp266:
	.loc	5 886 1                         @ rt-thread/components/net/lwip-2.0.2/src/core/dns.c:886:1
	pop	{r4, r5, r7, pc}
.LBB14_9:
.Ltmp267:
	@DEBUG_VALUE: dns_alloc_random_port:ret <- $r4
	.loc	5 881 5 is_stmt 1               @ rt-thread/components/net/lwip-2.0.2/src/core/dns.c:881:5
	mov	r0, r4
	bl	udp_remove
	movs	r0, #0
.Ltmp268:
	.loc	5 886 1                         @ rt-thread/components/net/lwip-2.0.2/src/core/dns.c:886:1
	pop	{r4, r5, r7, pc}
.Ltmp269:
.Lfunc_end14:
	.size	dns_alloc_random_port, .Lfunc_end14-dns_alloc_random_port
	.cfi_endproc
	.cantunwind
	.fnend
                                        @ -- End function
	.section	.text.dns_recv,"ax",%progbits
	.p2align	3                               @ -- Begin function dns_recv
	.type	dns_recv,%function
	.code	16                              @ @dns_recv
	.thumb_func
dns_recv:
.Lfunc_begin15:
	.loc	5 1148 0                        @ rt-thread/components/net/lwip-2.0.2/src/core/dns.c:1148:0
	.fnstart
	.cfi_startproc
@ %bb.0:
	@DEBUG_VALUE: dns_recv:arg <- $r0
	@DEBUG_VALUE: dns_recv:pcb <- $r1
	@DEBUG_VALUE: dns_recv:p <- $r2
	@DEBUG_VALUE: dns_recv:addr <- $r3
	.save	{r4, r5, r6, r7, r8, r9, r10, r11, lr}
	push.w	{r4, r5, r6, r7, r8, r9, r10, r11, lr}
	.cfi_def_cfa_offset 36
	.cfi_offset lr, -4
	.cfi_offset r11, -8
	.cfi_offset r10, -12
	.cfi_offset r9, -16
	.cfi_offset r8, -20
	.cfi_offset r7, -24
	.cfi_offset r6, -28
	.cfi_offset r5, -32
	.cfi_offset r4, -36
	.pad	#36
	sub	sp, #36
	.cfi_def_cfa_offset 72
.Ltmp270:
	.loc	5 1162 10 prologue_end          @ rt-thread/components/net/lwip-2.0.2/src/core/dns.c:1162:10
	ldrh	r0, [r2, #8]
.Ltmp271:
	@DEBUG_VALUE: dns_recv:arg <- [DW_OP_LLVM_entry_value 1] $r0
	.loc	5 0 10 is_stmt 0                @ rt-thread/components/net/lwip-2.0.2/src/core/dns.c:0:10
	mov	r4, r2
.Ltmp272:
	@DEBUG_VALUE: dns_recv:p <- $r4
	@DEBUG_VALUE: dns_recv:port <- [DW_OP_plus_uconst 72] [$sp+0]
	@DEBUG_VALUE: dns_recv:p <- $r4
	str	r3, [sp]                        @ 4-byte Spill
.Ltmp273:
	@DEBUG_VALUE: dns_recv:addr <- [$sp+0]
	@DEBUG_VALUE: dns_recv:addr <- [$sp+0]
	.loc	5 1162 7                        @ rt-thread/components/net/lwip-2.0.2/src/core/dns.c:1162:7
	cmp	r0, #16
	blo.w	.LBB15_31
.Ltmp274:
@ %bb.1:
	@DEBUG_VALUE: dns_recv:p <- $r4
	@DEBUG_VALUE: dns_recv:pcb <- $r1
	@DEBUG_VALUE: dns_recv:addr <- [$sp+0]
	@DEBUG_VALUE: dns_recv:port <- [DW_OP_plus_uconst 72] [$sp+0]
	@DEBUG_VALUE: dns_recv:arg <- [DW_OP_LLVM_entry_value 1] $r0
	.loc	5 0 7                           @ rt-thread/components/net/lwip-2.0.2/src/core/dns.c:0:7
	add	r1, sp, #24
.Ltmp275:
	@DEBUG_VALUE: dns_recv:pcb <- [DW_OP_LLVM_entry_value 1] $r1
	.loc	5 1169 7 is_stmt 1              @ rt-thread/components/net/lwip-2.0.2/src/core/dns.c:1169:7
	movs	r2, #12
	movs	r3, #0
	mov	r0, r4
	bl	pbuf_copy_partial
.Ltmp276:
	.loc	5 1169 7 is_stmt 0              @ rt-thread/components/net/lwip-2.0.2/src/core/dns.c:1169:7
	cmp	r0, #12
	bne.w	.LBB15_31
.Ltmp277:
@ %bb.2:
	@DEBUG_VALUE: dns_recv:p <- $r4
	@DEBUG_VALUE: dns_recv:addr <- [$sp+0]
	@DEBUG_VALUE: dns_recv:port <- [DW_OP_plus_uconst 72] [$sp+0]
	@DEBUG_VALUE: dns_recv:pcb <- [DW_OP_LLVM_entry_value 1] $r1
	@DEBUG_VALUE: dns_recv:arg <- [DW_OP_LLVM_entry_value 1] $r0
	.loc	5 1171 27 is_stmt 1             @ rt-thread/components/net/lwip-2.0.2/src/core/dns.c:1171:27
	ldrh.w	r0, [sp, #24]
	.loc	5 1171 12 is_stmt 0             @ rt-thread/components/net/lwip-2.0.2/src/core/dns.c:1171:12
	bl	lwip_htons
	movw	r8, :lower16:dns_table
	mov	r6, r0
.Ltmp278:
	@DEBUG_VALUE: dns_recv:i <- 0
	@DEBUG_VALUE: dns_recv:txid <- undef
	.loc	5 0 12                          @ rt-thread/components/net/lwip-2.0.2/src/core/dns.c:0:12
	movt	r8, :upper16:dns_table
	mov.w	r10, #0
.Ltmp279:
	.p2align	2
.LBB15_3:                               @ =>This Loop Header: Depth=1
                                        @     Child Loop BB15_14 Depth 2
	@DEBUG_VALUE: dns_recv:p <- $r4
	@DEBUG_VALUE: dns_recv:addr <- [$sp+0]
	@DEBUG_VALUE: dns_recv:port <- [DW_OP_plus_uconst 72] [$sp+0]
	@DEBUG_VALUE: dns_recv:pcb <- [DW_OP_LLVM_entry_value 1] $r1
	@DEBUG_VALUE: dns_recv:arg <- [DW_OP_LLVM_entry_value 1] $r0
	@DEBUG_VALUE: dns_recv:i <- $r10
	@DEBUG_VALUE: entry <- undef
	.loc	5 1174 19 is_stmt 1             @ rt-thread/components/net/lwip-2.0.2/src/core/dns.c:1174:19
	add.w	r0, r10, r10, lsl #4
	add.w	r11, r8, r0, lsl #4
	mov	r9, r11
	ldrb	r0, [r9, #10]!
	.loc	5 1174 46 is_stmt 0             @ rt-thread/components/net/lwip-2.0.2/src/core/dns.c:1174:46
	cmp	r0, #2
	bne.w	.LBB15_24
.Ltmp280:
@ %bb.4:                                @   in Loop: Header=BB15_3 Depth=1
	@DEBUG_VALUE: dns_recv:i <- $r10
	@DEBUG_VALUE: dns_recv:p <- $r4
	@DEBUG_VALUE: dns_recv:addr <- [$sp+0]
	@DEBUG_VALUE: dns_recv:port <- [DW_OP_plus_uconst 72] [$sp+0]
	@DEBUG_VALUE: dns_recv:pcb <- [DW_OP_LLVM_entry_value 1] $r1
	@DEBUG_VALUE: dns_recv:arg <- [DW_OP_LLVM_entry_value 1] $r0
	.loc	5 1175 19 is_stmt 1             @ rt-thread/components/net/lwip-2.0.2/src/core/dns.c:1175:19
	ldrh.w	r0, [r11, #8]
.Ltmp281:
	.loc	5 1174 11                       @ rt-thread/components/net/lwip-2.0.2/src/core/dns.c:1174:11
	cmp	r0, r6
	bne.w	.LBB15_24
.Ltmp282:
@ %bb.5:                                @   in Loop: Header=BB15_3 Depth=1
	@DEBUG_VALUE: dns_recv:i <- $r10
	@DEBUG_VALUE: dns_recv:p <- $r4
	@DEBUG_VALUE: dns_recv:addr <- [$sp+0]
	@DEBUG_VALUE: dns_recv:port <- [DW_OP_plus_uconst 72] [$sp+0]
	@DEBUG_VALUE: dns_recv:pcb <- [DW_OP_LLVM_entry_value 1] $r1
	@DEBUG_VALUE: dns_recv:arg <- [DW_OP_LLVM_entry_value 1] $r0
	.loc	5 1179 37                       @ rt-thread/components/net/lwip-2.0.2/src/core/dns.c:1179:37
	ldrh.w	r0, [sp, #28]
	.loc	5 1179 22 is_stmt 0             @ rt-thread/components/net/lwip-2.0.2/src/core/dns.c:1179:22
	bl	lwip_htons
	.loc	5 1180 37 is_stmt 1             @ rt-thread/components/net/lwip-2.0.2/src/core/dns.c:1180:37
	ldrh.w	r1, [sp, #30]
	.loc	5 1179 22                       @ rt-thread/components/net/lwip-2.0.2/src/core/dns.c:1179:22
	mov	r5, r0
.Ltmp283:
	@DEBUG_VALUE: dns_recv:nquestions <- $r5
	.loc	5 1180 22                       @ rt-thread/components/net/lwip-2.0.2/src/core/dns.c:1180:22
	mov	r0, r1
	bl	lwip_htons
	.loc	5 1183 13                       @ rt-thread/components/net/lwip-2.0.2/src/core/dns.c:1183:13
	cmp	r5, #1
	.loc	5 1180 22                       @ rt-thread/components/net/lwip-2.0.2/src/core/dns.c:1180:22
	mov	r7, r0
.Ltmp284:
	@DEBUG_VALUE: dns_recv:nanswers <- undef
	.loc	5 0 22 is_stmt 0                @ rt-thread/components/net/lwip-2.0.2/src/core/dns.c:0:22
	mov.w	r0, #2
	.loc	5 1183 13 is_stmt 1             @ rt-thread/components/net/lwip-2.0.2/src/core/dns.c:1183:13
	bne	.LBB15_25
.Ltmp285:
@ %bb.6:                                @   in Loop: Header=BB15_3 Depth=1
	@DEBUG_VALUE: dns_recv:i <- $r10
	@DEBUG_VALUE: dns_recv:nquestions <- $r5
	@DEBUG_VALUE: dns_recv:p <- $r4
	@DEBUG_VALUE: dns_recv:addr <- [$sp+0]
	@DEBUG_VALUE: dns_recv:port <- [DW_OP_plus_uconst 72] [$sp+0]
	@DEBUG_VALUE: dns_recv:pcb <- [DW_OP_LLVM_entry_value 1] $r1
	@DEBUG_VALUE: dns_recv:arg <- [DW_OP_LLVM_entry_value 1] $r0
	.loc	5 0 0 is_stmt 0                 @ rt-thread/components/net/lwip-2.0.2/src/core/dns.c:0:0
	ldrsb.w	r1, [sp, #26]
	.loc	5 1183 13                       @ rt-thread/components/net/lwip-2.0.2/src/core/dns.c:1183:13
	cmp.w	r1, #-1
	bgt	.LBB15_25
.Ltmp286:
@ %bb.7:                                @   in Loop: Header=BB15_3 Depth=1
	@DEBUG_VALUE: dns_recv:i <- $r10
	@DEBUG_VALUE: dns_recv:nquestions <- $r5
	@DEBUG_VALUE: dns_recv:p <- $r4
	@DEBUG_VALUE: dns_recv:addr <- [$sp+0]
	@DEBUG_VALUE: dns_recv:port <- [DW_OP_plus_uconst 72] [$sp+0]
	@DEBUG_VALUE: dns_recv:pcb <- [DW_OP_LLVM_entry_value 1] $r1
	@DEBUG_VALUE: dns_recv:arg <- [DW_OP_LLVM_entry_value 1] $r0
	.loc	5 1198 16 is_stmt 1             @ rt-thread/components/net/lwip-2.0.2/src/core/dns.c:1198:16
	ldrb.w	r0, [r11, #11]
	movw	r2, :lower16:dns_servers
	ldr	r1, [sp]                        @ 4-byte Reload
	movt	r2, :upper16:dns_servers
	ldr	r1, [r1]
	ldr.w	r0, [r2, r0, lsl #2]
.Ltmp287:
	.loc	5 1198 15 is_stmt 0             @ rt-thread/components/net/lwip-2.0.2/src/core/dns.c:1198:15
	cmp	r1, r0
	bne.w	.LBB15_29
.Ltmp288:
@ %bb.8:                                @   in Loop: Header=BB15_3 Depth=1
	@DEBUG_VALUE: dns_recv:i <- $r10
	@DEBUG_VALUE: dns_recv:nquestions <- $r5
	@DEBUG_VALUE: dns_recv:p <- $r4
	@DEBUG_VALUE: dns_recv:addr <- [$sp+0]
	@DEBUG_VALUE: dns_recv:port <- [DW_OP_plus_uconst 72] [$sp+0]
	@DEBUG_VALUE: dns_recv:pcb <- [DW_OP_LLVM_entry_value 1] $r1
	@DEBUG_VALUE: dns_recv:arg <- [DW_OP_LLVM_entry_value 1] $r0
	.loc	5 1205 36 is_stmt 1             @ rt-thread/components/net/lwip-2.0.2/src/core/dns.c:1205:36
	add.w	r0, r11, #16
	.loc	5 1205 19 is_stmt 0             @ rt-thread/components/net/lwip-2.0.2/src/core/dns.c:1205:19
	mov	r1, r4
	bl	dns_compare_name
	mov	r5, r0
.Ltmp289:
	@DEBUG_VALUE: dns_recv:res_idx <- $r5
	.loc	5 1206 13 is_stmt 1             @ rt-thread/components/net/lwip-2.0.2/src/core/dns.c:1206:13
	movw	r0, #65535
	cmp	r5, r0
	beq	.LBB15_29
.Ltmp290:
@ %bb.9:                                @   in Loop: Header=BB15_3 Depth=1
	@DEBUG_VALUE: dns_recv:i <- $r10
	@DEBUG_VALUE: dns_recv:res_idx <- $r5
	@DEBUG_VALUE: dns_recv:p <- $r4
	@DEBUG_VALUE: dns_recv:addr <- [$sp+0]
	@DEBUG_VALUE: dns_recv:port <- [DW_OP_plus_uconst 72] [$sp+0]
	@DEBUG_VALUE: dns_recv:pcb <- [DW_OP_LLVM_entry_value 1] $r1
	@DEBUG_VALUE: dns_recv:arg <- [DW_OP_LLVM_entry_value 1] $r0
	.loc	5 1212 13                       @ rt-thread/components/net/lwip-2.0.2/src/core/dns.c:1212:13
	movs	r2, #4
	mov	r0, r4
	add	r1, sp, #8
	mov	r3, r5
	bl	pbuf_copy_partial
.Ltmp291:
	.loc	5 1212 13 is_stmt 0             @ rt-thread/components/net/lwip-2.0.2/src/core/dns.c:1212:13
	cmp	r0, #4
	mov.w	r0, #2
	itt	eq
	ldrheq.w	r1, [sp, #10]
	cmpeq.w	r1, #256
	bne	.LBB15_25
.Ltmp292:
@ %bb.10:                               @   in Loop: Header=BB15_3 Depth=1
	@DEBUG_VALUE: dns_recv:i <- $r10
	@DEBUG_VALUE: dns_recv:res_idx <- $r5
	@DEBUG_VALUE: dns_recv:p <- $r4
	@DEBUG_VALUE: dns_recv:addr <- [$sp+0]
	@DEBUG_VALUE: dns_recv:port <- [DW_OP_plus_uconst 72] [$sp+0]
	@DEBUG_VALUE: dns_recv:pcb <- [DW_OP_LLVM_entry_value 1] $r1
	@DEBUG_VALUE: dns_recv:arg <- [DW_OP_LLVM_entry_value 1] $r0
	.loc	5 0 13                          @ rt-thread/components/net/lwip-2.0.2/src/core/dns.c:0:13
	ldrh.w	r1, [sp, #8]
	.loc	5 1212 13                       @ rt-thread/components/net/lwip-2.0.2/src/core/dns.c:1212:13
	cmp.w	r1, #256
	bne	.LBB15_25
.Ltmp293:
@ %bb.11:                               @   in Loop: Header=BB15_3 Depth=1
	@DEBUG_VALUE: dns_recv:i <- $r10
	@DEBUG_VALUE: dns_recv:res_idx <- $r5
	@DEBUG_VALUE: dns_recv:p <- $r4
	@DEBUG_VALUE: dns_recv:addr <- [$sp+0]
	@DEBUG_VALUE: dns_recv:port <- [DW_OP_plus_uconst 72] [$sp+0]
	@DEBUG_VALUE: dns_recv:pcb <- [DW_OP_LLVM_entry_value 1] $r1
	@DEBUG_VALUE: dns_recv:arg <- [DW_OP_LLVM_entry_value 1] $r0
	@DEBUG_VALUE: dns_recv:res_idx <- [DW_OP_plus_uconst 4, DW_OP_stack_value] undef
	.loc	5 1225 17 is_stmt 1             @ rt-thread/components/net/lwip-2.0.2/src/core/dns.c:1225:17
	ldrb.w	r0, [sp, #27]
.Ltmp294:
	@DEBUG_VALUE: dns_recv:res_idx <- [DW_OP_plus_uconst 4, DW_OP_stack_value] undef
	@DEBUG_VALUE: dns_recv:nanswers <- $r7
	.loc	5 1225 13 is_stmt 0             @ rt-thread/components/net/lwip-2.0.2/src/core/dns.c:1225:13
	lsls	r0, r0, #28
	bne	.LBB15_22
.Ltmp295:
@ %bb.12:                               @   in Loop: Header=BB15_3 Depth=1
	@DEBUG_VALUE: dns_recv:i <- $r10
	@DEBUG_VALUE: dns_recv:nanswers <- $r7
	@DEBUG_VALUE: dns_recv:p <- $r4
	@DEBUG_VALUE: dns_recv:addr <- [$sp+0]
	@DEBUG_VALUE: dns_recv:port <- [DW_OP_plus_uconst 72] [$sp+0]
	@DEBUG_VALUE: dns_recv:pcb <- [DW_OP_LLVM_entry_value 1] $r1
	@DEBUG_VALUE: dns_recv:arg <- [DW_OP_LLVM_entry_value 1] $r0
	@DEBUG_VALUE: dns_recv:nanswers <- $r7
	cbz	r7, .LBB15_22
.Ltmp296:
@ %bb.13:                               @   in Loop: Header=BB15_3 Depth=1
	@DEBUG_VALUE: dns_recv:i <- $r10
	@DEBUG_VALUE: dns_recv:nanswers <- $r7
	@DEBUG_VALUE: dns_recv:p <- $r4
	@DEBUG_VALUE: dns_recv:addr <- [$sp+0]
	@DEBUG_VALUE: dns_recv:port <- [DW_OP_plus_uconst 72] [$sp+0]
	@DEBUG_VALUE: dns_recv:pcb <- [DW_OP_LLVM_entry_value 1] $r1
	@DEBUG_VALUE: dns_recv:arg <- [DW_OP_LLVM_entry_value 1] $r0
	@DEBUG_VALUE: dns_recv:nanswers <- $r7
	.loc	5 1222 17 is_stmt 1             @ rt-thread/components/net/lwip-2.0.2/src/core/dns.c:1222:17
	adds	r0, r5, #4
.Ltmp297:
	@DEBUG_VALUE: dns_recv:res_idx <- $r0
.LBB15_14:                              @   Parent Loop BB15_3 Depth=1
                                        @ =>  This Inner Loop Header: Depth=2
	@DEBUG_VALUE: dns_recv:i <- $r10
	@DEBUG_VALUE: dns_recv:nanswers <- $r7
	@DEBUG_VALUE: dns_recv:p <- $r4
	@DEBUG_VALUE: dns_recv:res_idx <- $r0
	@DEBUG_VALUE: dns_recv:addr <- [$sp+0]
	@DEBUG_VALUE: dns_recv:port <- [DW_OP_plus_uconst 72] [$sp+0]
	@DEBUG_VALUE: dns_recv:pcb <- [DW_OP_LLVM_entry_value 1] $r1
	@DEBUG_VALUE: dns_recv:arg <- [DW_OP_LLVM_entry_value 1] $r0
	@DEBUG_VALUE: dns_recv:nanswers <- $r7
	@DEBUG_VALUE: dns_recv:res_idx <- $r0
	.loc	5 1228 45                       @ rt-thread/components/net/lwip-2.0.2/src/core/dns.c:1228:45
	uxth	r1, r0
	.loc	5 1228 50 is_stmt 0             @ rt-thread/components/net/lwip-2.0.2/src/core/dns.c:1228:50
	ldrh	r2, [r4, #8]
	.loc	5 1228 11                       @ rt-thread/components/net/lwip-2.0.2/src/core/dns.c:1228:11
	cmp	r1, r2
	bhs	.LBB15_22
.Ltmp298:
@ %bb.15:                               @   in Loop: Header=BB15_14 Depth=2
	@DEBUG_VALUE: dns_recv:i <- $r10
	@DEBUG_VALUE: dns_recv:nanswers <- $r7
	@DEBUG_VALUE: dns_recv:p <- $r4
	@DEBUG_VALUE: dns_recv:res_idx <- $r0
	@DEBUG_VALUE: dns_recv:addr <- [$sp+0]
	@DEBUG_VALUE: dns_recv:port <- [DW_OP_plus_uconst 72] [$sp+0]
	@DEBUG_VALUE: dns_recv:pcb <- [DW_OP_LLVM_entry_value 1] $r1
	@DEBUG_VALUE: dns_recv:arg <- [DW_OP_LLVM_entry_value 1] $r0
	.loc	5 1230 23 is_stmt 1             @ rt-thread/components/net/lwip-2.0.2/src/core/dns.c:1230:23
	mov	r0, r4
.Ltmp299:
	bl	dns_skip_name
	mov	r5, r0
.Ltmp300:
	@DEBUG_VALUE: dns_recv:res_idx <- $r5
	.loc	5 1231 17                       @ rt-thread/components/net/lwip-2.0.2/src/core/dns.c:1231:17
	movw	r0, #65535
	cmp	r5, r0
	beq	.LBB15_29
.Ltmp301:
@ %bb.16:                               @   in Loop: Header=BB15_14 Depth=2
	@DEBUG_VALUE: dns_recv:i <- $r10
	@DEBUG_VALUE: dns_recv:nanswers <- $r7
	@DEBUG_VALUE: dns_recv:res_idx <- $r5
	@DEBUG_VALUE: dns_recv:p <- $r4
	@DEBUG_VALUE: dns_recv:addr <- [$sp+0]
	@DEBUG_VALUE: dns_recv:port <- [DW_OP_plus_uconst 72] [$sp+0]
	@DEBUG_VALUE: dns_recv:pcb <- [DW_OP_LLVM_entry_value 1] $r1
	@DEBUG_VALUE: dns_recv:arg <- [DW_OP_LLVM_entry_value 1] $r0
	.loc	5 1236 17                       @ rt-thread/components/net/lwip-2.0.2/src/core/dns.c:1236:17
	movs	r2, #10
	mov	r0, r4
	add	r1, sp, #12
	mov	r3, r5
	bl	pbuf_copy_partial
.Ltmp302:
	.loc	5 1236 17 is_stmt 0             @ rt-thread/components/net/lwip-2.0.2/src/core/dns.c:1236:17
	cmp	r0, #10
	bne	.LBB15_29
.Ltmp303:
@ %bb.17:                               @   in Loop: Header=BB15_14 Depth=2
	@DEBUG_VALUE: dns_recv:i <- $r10
	@DEBUG_VALUE: dns_recv:nanswers <- $r7
	@DEBUG_VALUE: dns_recv:res_idx <- $r5
	@DEBUG_VALUE: dns_recv:p <- $r4
	@DEBUG_VALUE: dns_recv:addr <- [$sp+0]
	@DEBUG_VALUE: dns_recv:port <- [DW_OP_plus_uconst 72] [$sp+0]
	@DEBUG_VALUE: dns_recv:pcb <- [DW_OP_LLVM_entry_value 1] $r1
	@DEBUG_VALUE: dns_recv:arg <- [DW_OP_LLVM_entry_value 1] $r0
	.loc	5 1241 21 is_stmt 1             @ rt-thread/components/net/lwip-2.0.2/src/core/dns.c:1241:21
	ldrh.w	r0, [sp, #14]
.Ltmp304:
	.loc	5 1239 21                       @ rt-thread/components/net/lwip-2.0.2/src/core/dns.c:1239:21
	adds	r5, #10
.Ltmp305:
	@DEBUG_VALUE: dns_recv:res_idx <- $r5
	.loc	5 1241 17                       @ rt-thread/components/net/lwip-2.0.2/src/core/dns.c:1241:17
	cmp.w	r0, #256
	bne	.LBB15_20
.Ltmp306:
@ %bb.18:                               @   in Loop: Header=BB15_14 Depth=2
	@DEBUG_VALUE: dns_recv:i <- $r10
	@DEBUG_VALUE: dns_recv:nanswers <- $r7
	@DEBUG_VALUE: dns_recv:res_idx <- $r5
	@DEBUG_VALUE: dns_recv:p <- $r4
	@DEBUG_VALUE: dns_recv:addr <- [$sp+0]
	@DEBUG_VALUE: dns_recv:port <- [DW_OP_plus_uconst 72] [$sp+0]
	@DEBUG_VALUE: dns_recv:pcb <- [DW_OP_LLVM_entry_value 1] $r1
	@DEBUG_VALUE: dns_recv:arg <- [DW_OP_LLVM_entry_value 1] $r0
	.loc	5 0 17 is_stmt 0                @ rt-thread/components/net/lwip-2.0.2/src/core/dns.c:0:17
	ldrh.w	r0, [sp, #12]
	.loc	5 1241 17                       @ rt-thread/components/net/lwip-2.0.2/src/core/dns.c:1241:17
	cmp.w	r0, #256
	bne	.LBB15_20
.Ltmp307:
@ %bb.19:                               @   in Loop: Header=BB15_14 Depth=2
	@DEBUG_VALUE: dns_recv:i <- $r10
	@DEBUG_VALUE: dns_recv:nanswers <- $r7
	@DEBUG_VALUE: dns_recv:res_idx <- $r5
	@DEBUG_VALUE: dns_recv:p <- $r4
	@DEBUG_VALUE: dns_recv:addr <- [$sp+0]
	@DEBUG_VALUE: dns_recv:port <- [DW_OP_plus_uconst 72] [$sp+0]
	@DEBUG_VALUE: dns_recv:pcb <- [DW_OP_LLVM_entry_value 1] $r1
	@DEBUG_VALUE: dns_recv:arg <- [DW_OP_LLVM_entry_value 1] $r0
	.loc	5 0 17                          @ rt-thread/components/net/lwip-2.0.2/src/core/dns.c:0:17
	ldrh.w	r0, [sp, #20]
	.loc	5 1241 17                       @ rt-thread/components/net/lwip-2.0.2/src/core/dns.c:1241:17
	cmp.w	r0, #1024
	beq	.LBB15_27
.Ltmp308:
.LBB15_20:                              @   in Loop: Header=BB15_14 Depth=2
	@DEBUG_VALUE: dns_recv:i <- $r10
	@DEBUG_VALUE: dns_recv:nanswers <- $r7
	@DEBUG_VALUE: dns_recv:res_idx <- $r5
	@DEBUG_VALUE: dns_recv:p <- $r4
	@DEBUG_VALUE: dns_recv:addr <- [$sp+0]
	@DEBUG_VALUE: dns_recv:port <- [DW_OP_plus_uconst 72] [$sp+0]
	@DEBUG_VALUE: dns_recv:pcb <- [DW_OP_LLVM_entry_value 1] $r1
	@DEBUG_VALUE: dns_recv:arg <- [DW_OP_LLVM_entry_value 1] $r0
	.loc	5 1282 48 is_stmt 1             @ rt-thread/components/net/lwip-2.0.2/src/core/dns.c:1282:48
	ldrh.w	r0, [sp, #20]
	.loc	5 1282 33 is_stmt 0             @ rt-thread/components/net/lwip-2.0.2/src/core/dns.c:1282:33
	bl	lwip_htons
	.loc	5 1282 31                       @ rt-thread/components/net/lwip-2.0.2/src/core/dns.c:1282:31
	uxtah	r0, r0, r5
.Ltmp309:
	.loc	5 1282 17                       @ rt-thread/components/net/lwip-2.0.2/src/core/dns.c:1282:17
	movs	r1, #0
	cmp.w	r1, r0, lsr #16
	bne	.LBB15_29
.Ltmp310:
@ %bb.21:                               @   in Loop: Header=BB15_14 Depth=2
	@DEBUG_VALUE: dns_recv:i <- $r10
	@DEBUG_VALUE: dns_recv:nanswers <- $r7
	@DEBUG_VALUE: dns_recv:res_idx <- $r5
	@DEBUG_VALUE: dns_recv:p <- $r4
	@DEBUG_VALUE: dns_recv:addr <- [$sp+0]
	@DEBUG_VALUE: dns_recv:port <- [DW_OP_plus_uconst 72] [$sp+0]
	@DEBUG_VALUE: dns_recv:pcb <- [DW_OP_LLVM_entry_value 1] $r1
	@DEBUG_VALUE: dns_recv:arg <- [DW_OP_LLVM_entry_value 1] $r0
	.loc	5 1285 39 is_stmt 1             @ rt-thread/components/net/lwip-2.0.2/src/core/dns.c:1285:39
	ldrh.w	r0, [sp, #20]
	.loc	5 1285 24 is_stmt 0             @ rt-thread/components/net/lwip-2.0.2/src/core/dns.c:1285:24
	bl	lwip_htons
	.loc	5 1286 13 is_stmt 1             @ rt-thread/components/net/lwip-2.0.2/src/core/dns.c:1286:13
	subs	r7, #1
.Ltmp311:
	@DEBUG_VALUE: dns_recv:nanswers <- $r7
	.loc	5 1285 21                       @ rt-thread/components/net/lwip-2.0.2/src/core/dns.c:1285:21
	add	r0, r5
.Ltmp312:
	@DEBUG_VALUE: dns_recv:res_idx <- $r0
	.loc	5 1228 33                       @ rt-thread/components/net/lwip-2.0.2/src/core/dns.c:1228:33
	lsls	r1, r7, #16
	bne	.LBB15_14
.Ltmp313:
.LBB15_22:                              @   in Loop: Header=BB15_3 Depth=1
	@DEBUG_VALUE: dns_recv:i <- $r10
	@DEBUG_VALUE: dns_recv:nanswers <- $r7
	@DEBUG_VALUE: dns_recv:p <- $r4
	@DEBUG_VALUE: dns_recv:addr <- [$sp+0]
	@DEBUG_VALUE: dns_recv:port <- [DW_OP_plus_uconst 72] [$sp+0]
	@DEBUG_VALUE: dns_recv:pcb <- [DW_OP_LLVM_entry_value 1] $r1
	@DEBUG_VALUE: dns_recv:arg <- [DW_OP_LLVM_entry_value 1] $r0
	.loc	5 1307 9                        @ rt-thread/components/net/lwip-2.0.2/src/core/dns.c:1307:9
	mov	r0, r4
	bl	pbuf_free
	.loc	5 1308 9                        @ rt-thread/components/net/lwip-2.0.2/src/core/dns.c:1308:9
	uxtb.w	r0, r10
	movs	r1, #0
	bl	dns_call_found
	.loc	5 1309 28                       @ rt-thread/components/net/lwip-2.0.2/src/core/dns.c:1309:28
	movs	r0, #0
	strb.w	r0, [r9]
.Ltmp314:
.LBB15_23:                              @   in Loop: Header=BB15_3 Depth=1
	@DEBUG_VALUE: dns_recv:i <- $r10
	@DEBUG_VALUE: dns_recv:nanswers <- $r7
	@DEBUG_VALUE: dns_recv:p <- $r4
	@DEBUG_VALUE: dns_recv:addr <- [$sp+0]
	@DEBUG_VALUE: dns_recv:port <- [DW_OP_plus_uconst 72] [$sp+0]
	@DEBUG_VALUE: dns_recv:pcb <- [DW_OP_LLVM_entry_value 1] $r1
	@DEBUG_VALUE: dns_recv:arg <- [DW_OP_LLVM_entry_value 1] $r0
	.loc	5 0 28 is_stmt 0                @ rt-thread/components/net/lwip-2.0.2/src/core/dns.c:0:28
	movs	r0, #1
	cbz	r0, .LBB15_26
	b	.LBB15_30
.Ltmp315:
	.p2align	2
.LBB15_24:                              @   in Loop: Header=BB15_3 Depth=1
	@DEBUG_VALUE: dns_recv:i <- $r10
	@DEBUG_VALUE: dns_recv:p <- $r4
	@DEBUG_VALUE: dns_recv:addr <- [$sp+0]
	@DEBUG_VALUE: dns_recv:port <- [DW_OP_plus_uconst 72] [$sp+0]
	@DEBUG_VALUE: dns_recv:pcb <- [DW_OP_LLVM_entry_value 1] $r1
	@DEBUG_VALUE: dns_recv:arg <- [DW_OP_LLVM_entry_value 1] $r0
	movs	r0, #0
.Ltmp316:
.LBB15_25:                              @   in Loop: Header=BB15_3 Depth=1
	@DEBUG_VALUE: dns_recv:i <- $r10
	@DEBUG_VALUE: dns_recv:p <- $r4
	@DEBUG_VALUE: dns_recv:addr <- [$sp+0]
	@DEBUG_VALUE: dns_recv:port <- [DW_OP_plus_uconst 72] [$sp+0]
	@DEBUG_VALUE: dns_recv:pcb <- [DW_OP_LLVM_entry_value 1] $r1
	@DEBUG_VALUE: dns_recv:arg <- [DW_OP_LLVM_entry_value 1] $r0
	cbnz	r0, .LBB15_30
.Ltmp317:
.LBB15_26:                              @   in Loop: Header=BB15_3 Depth=1
	@DEBUG_VALUE: dns_recv:i <- $r10
	@DEBUG_VALUE: dns_recv:p <- $r4
	@DEBUG_VALUE: dns_recv:addr <- [$sp+0]
	@DEBUG_VALUE: dns_recv:port <- [DW_OP_plus_uconst 72] [$sp+0]
	@DEBUG_VALUE: dns_recv:pcb <- [DW_OP_LLVM_entry_value 1] $r1
	@DEBUG_VALUE: dns_recv:arg <- [DW_OP_LLVM_entry_value 1] $r0
	.loc	5 1172 38 is_stmt 1             @ rt-thread/components/net/lwip-2.0.2/src/core/dns.c:1172:38
	add.w	r10, r10, #1
.Ltmp318:
	@DEBUG_VALUE: dns_recv:i <- $r10
	.loc	5 1172 5 is_stmt 0              @ rt-thread/components/net/lwip-2.0.2/src/core/dns.c:1172:5
	cmp.w	r10, #4
	bne.w	.LBB15_3
	b	.LBB15_31
.Ltmp319:
.LBB15_27:                              @   in Loop: Header=BB15_3 Depth=1
	@DEBUG_VALUE: dns_recv:i <- $r10
	@DEBUG_VALUE: dns_recv:nanswers <- $r7
	@DEBUG_VALUE: dns_recv:res_idx <- $r5
	@DEBUG_VALUE: dns_recv:p <- $r4
	@DEBUG_VALUE: dns_recv:addr <- [$sp+0]
	@DEBUG_VALUE: dns_recv:port <- [DW_OP_plus_uconst 72] [$sp+0]
	@DEBUG_VALUE: dns_recv:pcb <- [DW_OP_LLVM_entry_value 1] $r1
	@DEBUG_VALUE: dns_recv:arg <- [DW_OP_LLVM_entry_value 1] $r0
	.loc	5 1250 23 is_stmt 1             @ rt-thread/components/net/lwip-2.0.2/src/core/dns.c:1250:23
	uxth	r3, r5
	movs	r2, #4
	mov	r0, r4
	add	r1, sp, #4
	bl	pbuf_copy_partial
.Ltmp320:
	.loc	5 1250 23 is_stmt 0             @ rt-thread/components/net/lwip-2.0.2/src/core/dns.c:1250:23
	cmp	r0, #4
	bne	.LBB15_29
.Ltmp321:
@ %bb.28:                               @   in Loop: Header=BB15_3 Depth=1
	@DEBUG_VALUE: dns_recv:i <- $r10
	@DEBUG_VALUE: dns_recv:nanswers <- $r7
	@DEBUG_VALUE: dns_recv:res_idx <- $r5
	@DEBUG_VALUE: dns_recv:p <- $r4
	@DEBUG_VALUE: dns_recv:addr <- [$sp+0]
	@DEBUG_VALUE: dns_recv:port <- [DW_OP_plus_uconst 72] [$sp+0]
	@DEBUG_VALUE: dns_recv:pcb <- [DW_OP_LLVM_entry_value 1] $r1
	@DEBUG_VALUE: dns_recv:arg <- [DW_OP_LLVM_entry_value 1] $r0
	.loc	5 1253 19 is_stmt 1             @ rt-thread/components/net/lwip-2.0.2/src/core/dns.c:1253:19
	ldr	r0, [sp, #4]
	str.w	r0, [r11, #4]
	.loc	5 1254 19                       @ rt-thread/components/net/lwip-2.0.2/src/core/dns.c:1254:19
	mov	r0, r4
	bl	pbuf_free
	.loc	5 1256 43                       @ rt-thread/components/net/lwip-2.0.2/src/core/dns.c:1256:43
	ldr	r0, [sp, #16]
	bl	lwip_htonl
	mov	r1, r0
	.loc	5 1256 19 is_stmt 0             @ rt-thread/components/net/lwip-2.0.2/src/core/dns.c:1256:19
	uxtb.w	r0, r10
	bl	dns_correct_response
	b	.LBB15_23
.Ltmp322:
.LBB15_29:                              @   in Loop: Header=BB15_3 Depth=1
	@DEBUG_VALUE: dns_recv:i <- $r10
	@DEBUG_VALUE: dns_recv:p <- $r4
	@DEBUG_VALUE: dns_recv:addr <- [$sp+0]
	@DEBUG_VALUE: dns_recv:port <- [DW_OP_plus_uconst 72] [$sp+0]
	@DEBUG_VALUE: dns_recv:pcb <- [DW_OP_LLVM_entry_value 1] $r1
	@DEBUG_VALUE: dns_recv:arg <- [DW_OP_LLVM_entry_value 1] $r0
	.loc	5 0 19                          @ rt-thread/components/net/lwip-2.0.2/src/core/dns.c:0:19
	movs	r0, #2
	cmp	r0, #0
	beq	.LBB15_26
.Ltmp323:
.LBB15_30:
	@DEBUG_VALUE: dns_recv:i <- $r10
	@DEBUG_VALUE: dns_recv:p <- $r4
	@DEBUG_VALUE: dns_recv:addr <- [$sp+0]
	@DEBUG_VALUE: dns_recv:port <- [DW_OP_plus_uconst 72] [$sp+0]
	@DEBUG_VALUE: dns_recv:pcb <- [DW_OP_LLVM_entry_value 1] $r1
	@DEBUG_VALUE: dns_recv:arg <- [DW_OP_LLVM_entry_value 1] $r0
	cmp	r0, #2
	bne	.LBB15_32
.Ltmp324:
.LBB15_31:
	@DEBUG_VALUE: dns_recv:p <- $r4
	@DEBUG_VALUE: dns_recv:addr <- [$sp+0]
	@DEBUG_VALUE: dns_recv:port <- [DW_OP_plus_uconst 72] [$sp+0]
	@DEBUG_VALUE: dns_recv:arg <- [DW_OP_LLVM_entry_value 1] $r0
	@DEBUG_LABEL: dns_recv:memerr
	.loc	5 1317 3 is_stmt 1              @ rt-thread/components/net/lwip-2.0.2/src/core/dns.c:1317:3
	mov	r0, r4
	bl	pbuf_free
.Ltmp325:
.LBB15_32:
	@DEBUG_VALUE: dns_recv:p <- $r4
	@DEBUG_VALUE: dns_recv:addr <- [$sp+0]
	@DEBUG_VALUE: dns_recv:port <- [DW_OP_plus_uconst 72] [$sp+0]
	@DEBUG_VALUE: dns_recv:arg <- [DW_OP_LLVM_entry_value 1] $r0
	.loc	5 1319 1                        @ rt-thread/components/net/lwip-2.0.2/src/core/dns.c:1319:1
	add	sp, #36
	pop.w	{r4, r5, r6, r7, r8, r9, r10, r11, pc}
.Ltmp326:
.Lfunc_end15:
	.size	dns_recv, .Lfunc_end15-dns_recv
	.cfi_endproc
	.cantunwind
	.fnend
                                        @ -- End function
	.section	.text.dns_compare_name,"ax",%progbits
	.p2align	3                               @ -- Begin function dns_compare_name
	.type	dns_compare_name,%function
	.code	16                              @ @dns_compare_name
	.thumb_func
dns_compare_name:
.Lfunc_begin16:
	.loc	5 666 0                         @ rt-thread/components/net/lwip-2.0.2/src/core/dns.c:666:0
	.fnstart
	.cfi_startproc
@ %bb.0:
	@DEBUG_VALUE: dns_compare_name:query <- $r0
	@DEBUG_VALUE: dns_compare_name:p <- $r1
	.save	{r4, r5, r6, r7, lr}
	push	{r4, r5, r6, r7, lr}
	.cfi_def_cfa_offset 20
	.cfi_offset lr, -4
	.cfi_offset r7, -8
	.cfi_offset r6, -12
	.cfi_offset r5, -16
	.cfi_offset r4, -20
	.pad	#4
	sub	sp, #4
	.cfi_def_cfa_offset 24
	mov	r4, r1
.Ltmp327:
	@DEBUG_VALUE: dns_compare_name:p <- $r4
	@DEBUG_VALUE: dns_compare_name:p <- $r4
	mov	r5, r0
.Ltmp328:
	@DEBUG_VALUE: dns_compare_name:query <- $r5
	movs	r7, #12
.Ltmp329:
	@DEBUG_VALUE: dns_compare_name:response_offset <- 12
	@DEBUG_VALUE: dns_compare_name:start_offset <- 12
	@DEBUG_VALUE: dns_compare_name:query <- $r5
.LBB16_1:                               @ =>This Loop Header: Depth=1
                                        @     Child Loop BB16_5 Depth 2
	@DEBUG_VALUE: dns_compare_name:query <- $r5
	@DEBUG_VALUE: dns_compare_name:p <- $r4
	@DEBUG_VALUE: dns_compare_name:start_offset <- 12
	@DEBUG_VALUE: dns_compare_name:query <- $r5
	@DEBUG_VALUE: dns_compare_name:response_offset <- [DW_OP_plus_uconst 1, DW_OP_stack_value] $r7
	.loc	5 671 9 prologue_end            @ rt-thread/components/net/lwip-2.0.2/src/core/dns.c:671:9
	uxth	r1, r7
	mov	r0, r4
	bl	pbuf_try_get_at
.Ltmp330:
	@DEBUG_VALUE: dns_compare_name:n <- $r0
	.loc	5 672 9                         @ rt-thread/components/net/lwip-2.0.2/src/core/dns.c:672:9
	cmp	r0, #0
	bmi	.LBB16_14
.Ltmp331:
@ %bb.2:                                @   in Loop: Header=BB16_1 Depth=1
	@DEBUG_VALUE: dns_compare_name:response_offset <- [DW_OP_plus_uconst 1, DW_OP_stack_value] $r7
	@DEBUG_VALUE: dns_compare_name:query <- $r5
	@DEBUG_VALUE: dns_compare_name:p <- $r4
	@DEBUG_VALUE: dns_compare_name:n <- $r0
	@DEBUG_VALUE: dns_compare_name:start_offset <- 12
	.loc	5 0 9 is_stmt 0                 @ rt-thread/components/net/lwip-2.0.2/src/core/dns.c:0:9
	mov	r6, r0
.Ltmp332:
	@DEBUG_VALUE: dns_compare_name:n <- $r6
	and	r0, r0, #192
	.loc	5 672 9                         @ rt-thread/components/net/lwip-2.0.2/src/core/dns.c:672:9
	cmp	r0, #192
	beq	.LBB16_14
.Ltmp333:
@ %bb.3:                                @   in Loop: Header=BB16_1 Depth=1
	@DEBUG_VALUE: dns_compare_name:response_offset <- [DW_OP_plus_uconst 1, DW_OP_stack_value] $r7
	@DEBUG_VALUE: dns_compare_name:n <- $r6
	@DEBUG_VALUE: dns_compare_name:query <- $r5
	@DEBUG_VALUE: dns_compare_name:p <- $r4
	@DEBUG_VALUE: dns_compare_name:start_offset <- 12
	.loc	5 671 43 is_stmt 1              @ rt-thread/components/net/lwip-2.0.2/src/core/dns.c:671:43
	adds	r7, #1
.Ltmp334:
	@DEBUG_VALUE: dns_compare_name:response_offset <- $r7
	.loc	5 0 43 is_stmt 0                @ rt-thread/components/net/lwip-2.0.2/src/core/dns.c:0:43
	b	.LBB16_5
.Ltmp335:
	.p2align	2
.LBB16_4:                               @   in Loop: Header=BB16_5 Depth=2
	@DEBUG_VALUE: dns_compare_name:response_offset <- $r7
	@DEBUG_VALUE: dns_compare_name:n <- $r6
	@DEBUG_VALUE: dns_compare_name:query <- $r5
	@DEBUG_VALUE: dns_compare_name:p <- $r4
	@DEBUG_VALUE: dns_compare_name:start_offset <- 12
	movs	r0, #0
	@DEBUG_VALUE: dns_compare_name:query <- $r5
	@DEBUG_VALUE: dns_compare_name:response_offset <- $r7
	@DEBUG_VALUE: dns_compare_name:n <- $r6
	cbz	r0, .LBB16_12
.Ltmp336:
.LBB16_5:                               @   Parent Loop BB16_1 Depth=1
                                        @ =>  This Inner Loop Header: Depth=2
	@DEBUG_VALUE: dns_compare_name:response_offset <- $r7
	@DEBUG_VALUE: dns_compare_name:n <- $r6
	@DEBUG_VALUE: dns_compare_name:query <- $r5
	@DEBUG_VALUE: dns_compare_name:p <- $r4
	@DEBUG_VALUE: dns_compare_name:start_offset <- 12
	@DEBUG_VALUE: dns_compare_name:query <- $r5
	@DEBUG_VALUE: dns_compare_name:response_offset <- $r7
	@DEBUG_VALUE: dns_compare_name:n <- $r6
	uxth	r1, r7
	mov	r0, r4
	bl	pbuf_try_get_at
.Ltmp337:
	.loc	5 681 7 is_stmt 1               @ rt-thread/components/net/lwip-2.0.2/src/core/dns.c:681:7
	cmp	r6, #1
	blt	.LBB16_9
.Ltmp338:
@ %bb.6:                                @   in Loop: Header=BB16_5 Depth=2
	@DEBUG_VALUE: dns_compare_name:response_offset <- $r7
	@DEBUG_VALUE: dns_compare_name:n <- $r6
	@DEBUG_VALUE: dns_compare_name:query <- $r5
	@DEBUG_VALUE: dns_compare_name:p <- $r4
	@DEBUG_VALUE: dns_compare_name:start_offset <- 12
	@DEBUG_VALUE: c <- $r0
	.loc	5 683 13                        @ rt-thread/components/net/lwip-2.0.2/src/core/dns.c:683:13
	cmp	r0, #0
	bmi	.LBB16_4
.Ltmp339:
@ %bb.7:                                @   in Loop: Header=BB16_5 Depth=2
	@DEBUG_VALUE: dns_compare_name:response_offset <- $r7
	@DEBUG_VALUE: dns_compare_name:n <- $r6
	@DEBUG_VALUE: dns_compare_name:query <- $r5
	@DEBUG_VALUE: dns_compare_name:p <- $r4
	@DEBUG_VALUE: c <- $r0
	@DEBUG_VALUE: dns_compare_name:start_offset <- 12
	.loc	5 686 25                        @ rt-thread/components/net/lwip-2.0.2/src/core/dns.c:686:25
	uxtb	r0, r0
.Ltmp340:
	.loc	5 686 14 is_stmt 0              @ rt-thread/components/net/lwip-2.0.2/src/core/dns.c:686:14
	ldrsb.w	r1, [r5]
.Ltmp341:
	.loc	5 686 13                        @ rt-thread/components/net/lwip-2.0.2/src/core/dns.c:686:13
	cmp	r0, r1
	bne	.LBB16_4
.Ltmp342:
@ %bb.8:                                @   in Loop: Header=BB16_5 Depth=2
	@DEBUG_VALUE: dns_compare_name:response_offset <- $r7
	@DEBUG_VALUE: dns_compare_name:n <- $r6
	@DEBUG_VALUE: dns_compare_name:query <- $r5
	@DEBUG_VALUE: dns_compare_name:p <- $r4
	@DEBUG_VALUE: dns_compare_name:start_offset <- 12
	.loc	5 689 9 is_stmt 1               @ rt-thread/components/net/lwip-2.0.2/src/core/dns.c:689:9
	adds	r7, #1
.Ltmp343:
	@DEBUG_VALUE: dns_compare_name:response_offset <- $r7
	.loc	5 690 9                         @ rt-thread/components/net/lwip-2.0.2/src/core/dns.c:690:9
	adds	r5, #1
.Ltmp344:
	@DEBUG_VALUE: dns_compare_name:query <- $r5
	.loc	5 691 9                         @ rt-thread/components/net/lwip-2.0.2/src/core/dns.c:691:9
	subs	r6, #1
.Ltmp345:
	@DEBUG_VALUE: dns_compare_name:n <- $r6
	.loc	5 0 9 is_stmt 0                 @ rt-thread/components/net/lwip-2.0.2/src/core/dns.c:0:9
	movs	r0, #1
	@DEBUG_VALUE: dns_compare_name:query <- $r5
	@DEBUG_VALUE: dns_compare_name:response_offset <- $r7
	@DEBUG_VALUE: dns_compare_name:n <- $r6
	cmp	r0, #0
	bne	.LBB16_5
	b	.LBB16_12
.Ltmp346:
	.p2align	2
.LBB16_9:                               @   in Loop: Header=BB16_1 Depth=1
	@DEBUG_VALUE: dns_compare_name:response_offset <- $r7
	@DEBUG_VALUE: dns_compare_name:n <- $r6
	@DEBUG_VALUE: dns_compare_name:query <- $r5
	@DEBUG_VALUE: dns_compare_name:p <- $r4
	@DEBUG_VALUE: dns_compare_name:start_offset <- 12
	@DEBUG_VALUE: dns_compare_name:query <- [DW_OP_plus_uconst 1, DW_OP_stack_value] $r5
	@DEBUG_VALUE: dns_compare_name:n <- $r0
	.loc	5 696 9 is_stmt 1               @ rt-thread/components/net/lwip-2.0.2/src/core/dns.c:696:9
	cmp	r0, #0
	bmi	.LBB16_14
.Ltmp347:
@ %bb.10:                               @   in Loop: Header=BB16_1 Depth=1
	@DEBUG_VALUE: dns_compare_name:response_offset <- $r7
	@DEBUG_VALUE: dns_compare_name:query <- [DW_OP_plus_uconst 1, DW_OP_stack_value] $r5
	@DEBUG_VALUE: dns_compare_name:p <- $r4
	@DEBUG_VALUE: dns_compare_name:n <- $r0
	@DEBUG_VALUE: dns_compare_name:start_offset <- 12
	.loc	5 693 7                         @ rt-thread/components/net/lwip-2.0.2/src/core/dns.c:693:7
	add.w	r5, r5, #1
.Ltmp348:
	@DEBUG_VALUE: dns_compare_name:query <- $r5
	.loc	5 699 3                         @ rt-thread/components/net/lwip-2.0.2/src/core/dns.c:699:3
	bne	.LBB16_1
.Ltmp349:
@ %bb.11:
	@DEBUG_VALUE: dns_compare_name:response_offset <- $r7
	@DEBUG_VALUE: dns_compare_name:query <- $r5
	@DEBUG_VALUE: dns_compare_name:p <- $r4
	@DEBUG_VALUE: dns_compare_name:n <- $r0
	@DEBUG_VALUE: dns_compare_name:start_offset <- 12
	.loc	5 701 26                        @ rt-thread/components/net/lwip-2.0.2/src/core/dns.c:701:26
	adds	r0, r7, #1
.Ltmp350:
	.loc	5 701 3 is_stmt 0               @ rt-thread/components/net/lwip-2.0.2/src/core/dns.c:701:3
	b	.LBB16_13
.Ltmp351:
.LBB16_12:
	@DEBUG_VALUE: dns_compare_name:response_offset <- $r7
	@DEBUG_VALUE: dns_compare_name:n <- $r6
	@DEBUG_VALUE: dns_compare_name:query <- $r5
	@DEBUG_VALUE: dns_compare_name:p <- $r4
	@DEBUG_VALUE: dns_compare_name:start_offset <- 12
	.loc	5 0 3                           @ rt-thread/components/net/lwip-2.0.2/src/core/dns.c:0:3
	movw	r0, #65535
.Ltmp352:
.LBB16_13:
	@DEBUG_VALUE: dns_compare_name:p <- $r4
	@DEBUG_VALUE: dns_compare_name:start_offset <- 12
	.loc	5 702 1 is_stmt 1               @ rt-thread/components/net/lwip-2.0.2/src/core/dns.c:702:1
	uxth	r0, r0
	add	sp, #4
	pop	{r4, r5, r6, r7, pc}
.Ltmp353:
.LBB16_14:
	@DEBUG_VALUE: dns_compare_name:p <- $r4
	@DEBUG_VALUE: dns_compare_name:start_offset <- 12
	.loc	5 0 1 is_stmt 0                 @ rt-thread/components/net/lwip-2.0.2/src/core/dns.c:0:1
	movw	r0, #65535
	b	.LBB16_13
.Lfunc_end16:
	.size	dns_compare_name, .Lfunc_end16-dns_compare_name
	.cfi_endproc
	.cantunwind
	.fnend
                                        @ -- End function
	.section	.text.dns_skip_name,"ax",%progbits
	.p2align	3                               @ -- Begin function dns_skip_name
	.type	dns_skip_name,%function
	.code	16                              @ @dns_skip_name
	.thumb_func
dns_skip_name:
.Lfunc_begin17:
	.loc	5 713 0 is_stmt 1               @ rt-thread/components/net/lwip-2.0.2/src/core/dns.c:713:0
	.fnstart
	.cfi_startproc
@ %bb.0:
	@DEBUG_VALUE: dns_skip_name:p <- $r0
	@DEBUG_VALUE: dns_skip_name:query_idx <- $r1
	.save	{r4, r5, r7, lr}
	push	{r4, r5, r7, lr}
	.cfi_def_cfa_offset 16
	.cfi_offset lr, -4
	.cfi_offset r7, -8
	.cfi_offset r5, -12
	.cfi_offset r4, -16
.Ltmp354:
	@DEBUG_VALUE: dns_skip_name:offset <- $r1
	mov	r4, r1
.Ltmp355:
	@DEBUG_VALUE: dns_skip_name:query_idx <- $r4
	@DEBUG_VALUE: dns_skip_name:offset <- $r4
	@DEBUG_VALUE: dns_skip_name:query_idx <- $r4
	mov	r5, r0
.Ltmp356:
	@DEBUG_VALUE: dns_skip_name:p <- $r5
	@DEBUG_VALUE: dns_skip_name:p <- $r5
	.p2align	2
.LBB17_1:                               @ =>This Inner Loop Header: Depth=1
	@DEBUG_VALUE: dns_skip_name:p <- $r5
	@DEBUG_VALUE: dns_skip_name:offset <- undef
	.loc	5 718 9 prologue_end            @ rt-thread/components/net/lwip-2.0.2/src/core/dns.c:718:9
	uxth	r1, r4
	mov	r0, r5
	bl	pbuf_try_get_at
.Ltmp357:
	@DEBUG_VALUE: dns_skip_name:n <- $r0
	.loc	5 719 9                         @ rt-thread/components/net/lwip-2.0.2/src/core/dns.c:719:9
	cmp	r0, #0
	bmi	.LBB17_7
.Ltmp358:
@ %bb.2:                                @   in Loop: Header=BB17_1 Depth=1
	@DEBUG_VALUE: dns_skip_name:p <- $r5
	@DEBUG_VALUE: dns_skip_name:n <- $r0
	.loc	5 723 12                        @ rt-thread/components/net/lwip-2.0.2/src/core/dns.c:723:12
	and	r1, r0, #192
.Ltmp359:
	.loc	5 0 0 is_stmt 0                 @ rt-thread/components/net/lwip-2.0.2/src/core/dns.c:0:0
	adds	r4, #1
.Ltmp360:
	@DEBUG_VALUE: dns_skip_name:offset <- $r4
	.loc	5 723 9                         @ rt-thread/components/net/lwip-2.0.2/src/core/dns.c:723:9
	cmp	r1, #192
	beq	.LBB17_6
.Ltmp361:
@ %bb.3:                                @   in Loop: Header=BB17_1 Depth=1
	@DEBUG_VALUE: dns_skip_name:p <- $r5
	@DEBUG_VALUE: dns_skip_name:offset <- $r4
	@DEBUG_VALUE: dns_skip_name:n <- $r0
	.loc	5 728 18 is_stmt 1              @ rt-thread/components/net/lwip-2.0.2/src/core/dns.c:728:18
	uxtah	r4, r0, r4
.Ltmp362:
	.loc	5 728 28 is_stmt 0              @ rt-thread/components/net/lwip-2.0.2/src/core/dns.c:728:28
	ldrh	r1, [r5, #8]
.Ltmp363:
	.loc	5 728 11                        @ rt-thread/components/net/lwip-2.0.2/src/core/dns.c:728:11
	cmp	r4, r1
	bge	.LBB17_7
.Ltmp364:
@ %bb.4:                                @   in Loop: Header=BB17_1 Depth=1
	@DEBUG_VALUE: dns_skip_name:p <- $r5
	@DEBUG_VALUE: dns_skip_name:n <- $r0
	.loc	5 733 9 is_stmt 1               @ rt-thread/components/net/lwip-2.0.2/src/core/dns.c:733:9
	uxth	r1, r4
.Ltmp365:
	@DEBUG_VALUE: dns_skip_name:offset <- $r1
	mov	r0, r5
.Ltmp366:
	bl	pbuf_try_get_at
.Ltmp367:
	@DEBUG_VALUE: dns_skip_name:n <- $r0
	.loc	5 734 9                         @ rt-thread/components/net/lwip-2.0.2/src/core/dns.c:734:9
	cmp	r0, #0
	bmi	.LBB17_7
.Ltmp368:
@ %bb.5:                                @   in Loop: Header=BB17_1 Depth=1
	@DEBUG_VALUE: dns_skip_name:p <- $r5
	@DEBUG_VALUE: dns_skip_name:n <- $r0
	.loc	5 737 3                         @ rt-thread/components/net/lwip-2.0.2/src/core/dns.c:737:3
	bne	.LBB17_1
.Ltmp369:
.LBB17_6:
	@DEBUG_VALUE: dns_skip_name:p <- $r5
	@DEBUG_VALUE: dns_skip_name:n <- $r0
	@DEBUG_VALUE: dns_skip_name:offset <- $r4
	.loc	5 739 17                        @ rt-thread/components/net/lwip-2.0.2/src/core/dns.c:739:17
	adds	r0, r4, #1
.Ltmp370:
	.loc	5 740 1                         @ rt-thread/components/net/lwip-2.0.2/src/core/dns.c:740:1
	uxth	r0, r0
	pop	{r4, r5, r7, pc}
.Ltmp371:
.LBB17_7:
	@DEBUG_VALUE: dns_skip_name:p <- $r5
	@DEBUG_VALUE: dns_skip_name:n <- $r0
	.loc	5 0 1 is_stmt 0                 @ rt-thread/components/net/lwip-2.0.2/src/core/dns.c:0:1
	movw	r0, #65535
.Ltmp372:
	.loc	5 740 1                         @ rt-thread/components/net/lwip-2.0.2/src/core/dns.c:740:1
	uxth	r0, r0
	pop	{r4, r5, r7, pc}
.Ltmp373:
.Lfunc_end17:
	.size	dns_skip_name, .Lfunc_end17-dns_skip_name
	.cfi_endproc
	.cantunwind
	.fnend
                                        @ -- End function
	.section	.text.dns_correct_response,"ax",%progbits
	.p2align	3                               @ -- Begin function dns_correct_response
	.type	dns_correct_response,%function
	.code	16                              @ @dns_correct_response
	.thumb_func
dns_correct_response:
.Lfunc_begin18:
	.loc	5 1116 0 is_stmt 1              @ rt-thread/components/net/lwip-2.0.2/src/core/dns.c:1116:0
	.fnstart
	.cfi_startproc
@ %bb.0:
	@DEBUG_VALUE: dns_correct_response:idx <- $r0
	@DEBUG_VALUE: dns_correct_response:idx <- $r0
	@DEBUG_VALUE: dns_correct_response:ttl <- $r1
	.save	{r4, r5, r6, lr}
	push	{r4, r5, r6, lr}
	.cfi_def_cfa_offset 16
	.cfi_offset lr, -4
	.cfi_offset r6, -8
	.cfi_offset r5, -12
	.cfi_offset r4, -16
.Ltmp374:
	@DEBUG_VALUE: dns_correct_response:entry <- undef
	.loc	5 1119 10 prologue_end          @ rt-thread/components/net/lwip-2.0.2/src/core/dns.c:1119:10
	add.w	r2, r0, r0, lsl #4
	movw	r5, :lower16:dns_table
	movt	r5, :upper16:dns_table
	movw	r3, #14976
	add.w	r4, r5, r2, lsl #4
	@DEBUG_VALUE: dns_correct_response:ttl <- $r1
	movt	r3, #9
	lsls	r6, r2, #4
	mov.w	r12, #3
	.loc	5 1130 31                       @ rt-thread/components/net/lwip-2.0.2/src/core/dns.c:1130:31
	adds	r2, r4, #4
	.loc	5 1127 7                        @ rt-thread/components/net/lwip-2.0.2/src/core/dns.c:1127:7
	cmp	r1, r3
	.loc	5 1119 16                       @ rt-thread/components/net/lwip-2.0.2/src/core/dns.c:1119:16
	strb	r12, [r4, #10]!
	.loc	5 1127 7                        @ rt-thread/components/net/lwip-2.0.2/src/core/dns.c:1127:7
	it	lo
	movlo	r3, r1
	.loc	5 1130 3                        @ rt-thread/components/net/lwip-2.0.2/src/core/dns.c:1130:3
	mov	r1, r2
.Ltmp375:
	@DEBUG_VALUE: dns_correct_response:ttl <- [DW_OP_LLVM_entry_value 1] $r1
	.loc	5 0 0 is_stmt 0                 @ rt-thread/components/net/lwip-2.0.2/src/core/dns.c:0:0
	str	r3, [r5, r6]
	.loc	5 1130 3                        @ rt-thread/components/net/lwip-2.0.2/src/core/dns.c:1130:3
	bl	dns_call_found
.Ltmp376:
	@DEBUG_VALUE: dns_correct_response:idx <- [DW_OP_LLVM_entry_value 1] $r0
	.loc	5 1132 14 is_stmt 1             @ rt-thread/components/net/lwip-2.0.2/src/core/dns.c:1132:14
	ldr	r0, [r5, r6]
.Ltmp377:
	.loc	5 1132 7 is_stmt 0              @ rt-thread/components/net/lwip-2.0.2/src/core/dns.c:1132:7
	cbz	r0, .LBB18_2
.Ltmp378:
@ %bb.1:
	@DEBUG_VALUE: dns_correct_response:idx <- [DW_OP_LLVM_entry_value 1] $r0
	@DEBUG_VALUE: dns_correct_response:ttl <- [DW_OP_LLVM_entry_value 1] $r1
	.loc	5 1142 1 is_stmt 1              @ rt-thread/components/net/lwip-2.0.2/src/core/dns.c:1142:1
	pop	{r4, r5, r6, pc}
.Ltmp379:
.LBB18_2:
	@DEBUG_VALUE: dns_correct_response:idx <- [DW_OP_LLVM_entry_value 1] $r0
	@DEBUG_VALUE: dns_correct_response:ttl <- [DW_OP_LLVM_entry_value 1] $r1
	.loc	5 1138 16                       @ rt-thread/components/net/lwip-2.0.2/src/core/dns.c:1138:16
	ldrb	r0, [r4]
.Ltmp380:
	.loc	5 1138 9 is_stmt 0              @ rt-thread/components/net/lwip-2.0.2/src/core/dns.c:1138:9
	cmp	r0, #3
.Ltmp381:
	.loc	5 1142 1 is_stmt 1              @ rt-thread/components/net/lwip-2.0.2/src/core/dns.c:1142:1
	it	ne
	popne	{r4, r5, r6, pc}
.Ltmp382:
.LBB18_3:
	@DEBUG_VALUE: dns_correct_response:idx <- [DW_OP_LLVM_entry_value 1] $r0
	@DEBUG_VALUE: dns_correct_response:ttl <- [DW_OP_LLVM_entry_value 1] $r1
	.loc	5 0 1 is_stmt 0                 @ rt-thread/components/net/lwip-2.0.2/src/core/dns.c:0:1
	movs	r0, #0
.Ltmp383:
	.loc	5 1139 20 is_stmt 1             @ rt-thread/components/net/lwip-2.0.2/src/core/dns.c:1139:20
	strb	r0, [r4]
.Ltmp384:
	.loc	5 1142 1                        @ rt-thread/components/net/lwip-2.0.2/src/core/dns.c:1142:1
	pop	{r4, r5, r6, pc}
.Ltmp385:
.Lfunc_end18:
	.size	dns_correct_response, .Lfunc_end18-dns_correct_response
	.cfi_endproc
	.cantunwind
	.fnend
                                        @ -- End function
	.hidden	dns_mquery_v4group              @ @dns_mquery_v4group
	.type	dns_mquery_v4group,%object
	.section	.rodata.dns_mquery_v4group,"a",%progbits
	.globl	dns_mquery_v4group
	.p2align	2
dns_mquery_v4group:
	.long	4211081440                      @ 0xfb0000e0
	.size	dns_mquery_v4group, 4

	.type	dns_servers,%object             @ @dns_servers
	.section	.bss.dns_servers,"aw",%nobits
	.p2align	2
dns_servers:
	.zero	8
	.size	dns_servers, 8

	.type	dns_table,%object               @ @dns_table
	.section	.bss.dns_table,"aw",%nobits
	.p2align	2
dns_table:
	.zero	1088
	.size	dns_table, 1088

	.type	.L.str.1,%object                @ @.str.1
	.section	.rodata.str1.1,"aMS",%progbits,1
.L.str.1:
	.asciz	"rt-thread/components/net/lwip-2.0.2/src/core/dns.c"
	.size	.L.str.1, 51

	.type	dns_pcbs,%object                @ @dns_pcbs
	.section	.bss.dns_pcbs,"aw",%nobits
	.p2align	2
dns_pcbs:
	.zero	16
	.size	dns_pcbs, 16

	.type	dns_requests,%object            @ @dns_requests
	.section	.bss.dns_requests,"aw",%nobits
	.p2align	2
dns_requests:
	.zero	48
	.size	dns_requests, 48

	.type	dns_seqno,%object               @ @dns_seqno
	.section	.bss.dns_seqno,"aw",%nobits
dns_seqno:
	.byte	0                               @ 0x0
	.size	dns_seqno, 1

	.type	dns_last_pcb_idx,%object        @ @dns_last_pcb_idx
	.section	.bss.dns_last_pcb_idx,"aw",%nobits
dns_last_pcb_idx:
	.byte	0                               @ 0x0
	.size	dns_last_pcb_idx, 1

	.file	11 "D:\\Keil_v5\\ARM\\ARMCLANG\\Bin\\..\\include" "stdlib.h"
	.file	12 "E:\\Smart-access-control\\Hardware\\CODE" "./rt-thread/components/net/lwip-2.0.2/src/include\\lwip/prot/dns.h"
	.section	".note.GNU-stack","",%progbits
	.eabi_attribute	30, 1	@ Tag_ABI_optimization_goals
	.ARM_attribute	16, 1	@ Tag_AV_eba