	.text
	.syntax unified
	.eabi_attribute	67, "2.09"	@ Tag_conformance
	.cpu	cortex-m7
	.eabi_attribute	6, 13	@ Tag_CPU_arch
	.eabi_attribute	7, 77	@ Tag_CPU_arch_profile
	.eabi_attribute	8, 0	@ Tag_ARM_ISA_use
	.eabi_attribute	9, 2	@ Tag_THUMB_ISA_use
	.fpu	fpv5-d16
	.eabi_attribute	36, 1	@ Tag_FP_HP_extension
	.eabi_attribute	34, 1	@ Tag_CPU_unaligned_access
	.eabi_attribute	17, 1	@ Tag_ABI_PCS_GOT_use
	.eabi_attribute	20, 2	@ Tag_ABI_FP_denormal
	.eabi_attribute	21, 0	@ Tag_ABI_FP_exceptions
	.eabi_attribute	23, 1	@ Tag_ABI_FP_number_model
	.eabi_attribute	24, 1	@ Tag_ABI_align_needed
	.eabi_attribute	25, 1	@ Tag_ABI_align_preserved
	.eabi_attribute	28, 1	@ Tag_ABI_VFP_args
	.eabi_attribute	38, 1	@ Tag_ABI_FP_16bit_format
	.eabi_attribute	18, 2	@ Tag_ABI_PCS_wchar_t
	.eabi_attribute	26, 1	@ Tag_ABI_enum_size
	.eabi_attribute	14, 0	@ Tag_ABI_PCS_R9_use
	.file	"draw.c"
	.file	1 "E:\\STM32\\Learning\\STM32H750_ART_PI_RGBLCD" "./lvgl/src/lv_hal/../lv_misc/lv_task.h"
	.file	2 "E:\\STM32\\Learning\\STM32H750_ART_PI_RGBLCD" "./packages/tjpgd1d/src\\tjpgd.h"
	.file	3 "E:\\STM32\\Learning\\STM32H750_ART_PI_RGBLCD" "applications/draw.c"
	.file	4 "D:\\Keil_v5\\ARM\\ARMCLANG\\Bin\\..\\include" "stdint.h"
	.file	5 "E:\\STM32\\Learning\\STM32H750_ART_PI_RGBLCD" "libraries/STM32H7xx_HAL/CMSIS/Device/ST/STM32H7xx/Include/stm32h750xx.h"
	.section	.text.input_fun,"ax",%progbits
	.hidden	input_fun                       @ -- Begin function input_fun
	.globl	input_fun
	.p2align	3
	.type	input_fun,%function
	.code	16                              @ @input_fun
	.thumb_func
input_fun:
.Lfunc_begin0:
	.loc	3 45 0                          @ applications/draw.c:45:0
	.fnstart
	.cfi_sections .debug_frame
	.cfi_startproc
@ %bb.0:
	.save	{r7, lr}
	push	{r7, lr}
	.cfi_def_cfa_offset 8
	.cfi_offset lr, -4
	.cfi_offset r7, -8
	.pad	#24
	sub	sp, #24
	.cfi_def_cfa_offset 32
	str	r0, [sp, #16]
	str	r1, [sp, #12]
	str	r2, [sp, #8]
.Ltmp0:
	.loc	3 47 23 prologue_end            @ applications/draw.c:47:23
	ldr	r0, [sp, #16]
	.loc	3 47 27 is_stmt 0               @ applications/draw.c:47:27
	ldr	r0, [r0, #116]
	.loc	3 47 9                          @ applications/draw.c:47:9
	str	r0, [sp]
	.loc	3 49 2 is_stmt 1                @ applications/draw.c:49:2
	bl	rt_enter_critical
.Ltmp1:
	.loc	3 50 6                          @ applications/draw.c:50:6
	ldr	r0, [sp, #12]
.Ltmp2:
	.loc	3 50 6 is_stmt 0                @ applications/draw.c:50:6
	cbz	r0, .LBB0_2
	b	.LBB0_1
.LBB0_1:
.Ltmp3:
	.loc	3 51 12 is_stmt 1               @ applications/draw.c:51:12
	ldr	r0, [sp]
	.loc	3 51 17 is_stmt 0               @ applications/draw.c:51:17
	ldr	r0, [r0]
	.loc	3 51 22                         @ applications/draw.c:51:22
	ldr	r1, [sp, #12]
	.loc	3 51 28                         @ applications/draw.c:51:28
	ldr	r2, [sp, #8]
	.loc	3 51 7                          @ applications/draw.c:51:7
	bl	read
	.loc	3 51 5                          @ applications/draw.c:51:5
	str	r0, [sp, #4]
	.loc	3 52 2 is_stmt 1                @ applications/draw.c:52:2
	bl	rt_exit_critical
	.loc	3 53 24                         @ applications/draw.c:53:24
	ldr	r0, [sp, #4]
	.loc	3 53 3 is_stmt 0                @ applications/draw.c:53:3
	str	r0, [sp, #20]
	b	.LBB0_2
.Ltmp4:
.LBB0_2:
	.loc	3 55 1 is_stmt 1                @ applications/draw.c:55:1
	ldr	r0, [sp, #20]
	add	sp, #24
	pop	{r7, pc}
.Ltmp5:
.Lfunc_end0:
	.size	input_fun, .Lfunc_end0-input_fun
	.cfi_endproc
	.cantunwind
	.fnend
                                        @ -- End function
	.section	.text.output_fun,"ax",%progbits
	.hidden	output_fun                      @ -- Begin function output_fun
	.globl	output_fun
	.p2align	3
	.type	output_fun,%function
	.code	16                              @ @output_fun
	.thumb_func
output_fun:
.Lfunc_begin1:
	.loc	3 66 0                          @ applications/draw.c:66:0
	.fnstart
	.cfi_startproc
@ %bb.0:
	.save	{r7, lr}
	push	{r7, lr}
	.cfi_def_cfa_offset 8
	.cfi_offset lr, -4
	.cfi_offset r7, -8
	.pad	#40
	sub	sp, #40
	.cfi_def_cfa_offset 48
	str	r0, [sp, #36]
	str	r1, [sp, #32]
	str	r2, [sp, #28]
.Ltmp6:
	.loc	3 69 23 prologue_end            @ applications/draw.c:69:23
	ldr	r0, [sp, #36]
	.loc	3 69 27 is_stmt 0               @ applications/draw.c:69:27
	ldr	r0, [r0, #116]
	.loc	3 69 9                          @ applications/draw.c:69:9
	str	r0, [sp]
.Ltmp7:
	.loc	3 73 19 is_stmt 1               @ applications/draw.c:73:19
	ldr	r0, [sp, #28]
	.loc	3 73 25 is_stmt 0               @ applications/draw.c:73:25
	ldrh	r0, [r0]
.Ltmp8:
	.loc	3 73 6                          @ applications/draw.c:73:6
	cbnz	r0, .LBB1_2
	b	.LBB1_1
.LBB1_1:
.Ltmp9:
	.loc	3 74 22 is_stmt 1               @ applications/draw.c:74:22
	ldr	r0, [sp, #28]
	.loc	3 74 28 is_stmt 0               @ applications/draw.c:74:28
	ldrh	r0, [r0, #4]
	.loc	3 74 35                         @ applications/draw.c:74:35
	ldr	r1, [sp, #36]
	.loc	3 74 39                         @ applications/draw.c:74:39
	ldrb	r2, [r1, #13]
	.loc	3 74 32                         @ applications/draw.c:74:32
	lsls	r0, r2
	movs	r2, #100
	.loc	3 74 46                         @ applications/draw.c:74:46
	muls	r0, r2, r0
	.loc	3 74 60                         @ applications/draw.c:74:60
	ldrh	r1, [r1, #30]
	.loc	3 74 54                         @ applications/draw.c:74:54
	udiv	r1, r0, r1
	.loc	3 74 3                          @ applications/draw.c:74:3
	movw	r0, :lower16:.L.str
	movt	r0, :upper16:.L.str
	bl	printf
	.loc	3 75 2 is_stmt 1                @ applications/draw.c:75:2
	b	.LBB1_2
.Ltmp10:
.LBB1_2:
	.loc	3 77 9                          @ applications/draw.c:77:9
	ldr	r1, [sp, #28]
	.loc	3 77 15 is_stmt 0               @ applications/draw.c:77:15
	ldrh	r0, [r1, #2]
	.loc	3 77 29                         @ applications/draw.c:77:29
	ldrh	r1, [r1]
	.loc	3 77 21                         @ applications/draw.c:77:21
	subs	r0, r0, r1
	.loc	3 77 34                         @ applications/draw.c:77:34
	add.w	r0, r0, r0, lsl #1
	.loc	3 77 39                         @ applications/draw.c:77:39
	adds	r0, #3
	.loc	3 77 6                          @ applications/draw.c:77:6
	str	r0, [sp, #20]
	.loc	3 78 7 is_stmt 1                @ applications/draw.c:78:7
	ldr	r1, [sp, #28]
	.loc	3 78 13 is_stmt 0               @ applications/draw.c:78:13
	ldrh	r0, [r1, #6]
	.loc	3 78 28                         @ applications/draw.c:78:28
	ldrh	r1, [r1, #4]
	.loc	3 78 20                         @ applications/draw.c:78:20
	subs	r0, r0, r1
	.loc	3 78 32                         @ applications/draw.c:78:32
	adds	r0, #1
	.loc	3 78 5                          @ applications/draw.c:78:5
	str	r0, [sp, #24]
	.loc	3 79 18 is_stmt 1               @ applications/draw.c:79:18
	ldr	r0, [sp, #32]
	.loc	3 79 6 is_stmt 0                @ applications/draw.c:79:6
	str	r0, [sp, #8]
	.loc	3 81 7 is_stmt 1                @ applications/draw.c:81:7
	ldr	r0, [sp]
	.loc	3 81 12 is_stmt 0               @ applications/draw.c:81:12
	ldr	r0, [r0, #8]
	.loc	3 81 5                          @ applications/draw.c:81:5
	str	r0, [sp, #12]
	.loc	3 82 8 is_stmt 1                @ applications/draw.c:82:8
	ldr	r0, [sp]
	.loc	3 82 13 is_stmt 0               @ applications/draw.c:82:13
	ldr	r3, [r0, #4]
	.loc	3 82 22                         @ applications/draw.c:82:22
	ldr	r1, [sp, #28]
	.loc	3 82 28                         @ applications/draw.c:82:28
	ldrh	r0, [r1, #4]
	.loc	3 82 34                         @ applications/draw.c:82:34
	ldr	r2, [sp, #12]
	.loc	3 82 20                         @ applications/draw.c:82:20
	mla	r0, r0, r2, r3
	.loc	3 82 45                         @ applications/draw.c:82:45
	ldrh	r1, [r1]
	.loc	3 82 50                         @ applications/draw.c:82:50
	add.w	r1, r1, r1, lsl #1
	.loc	3 82 37                         @ applications/draw.c:82:37
	add	r0, r1
	.loc	3 82 6                          @ applications/draw.c:82:6
	str	r0, [sp, #4]
	.loc	3 84 2 is_stmt 1                @ applications/draw.c:84:2
	b	.LBB1_3
.LBB1_3:                                @ =>This Loop Header: Depth=1
                                        @     Child Loop BB1_4 Depth 2
.Ltmp11:
	.loc	3 85 8                          @ applications/draw.c:85:8
	ldr	r0, [sp, #20]
	.loc	3 85 6 is_stmt 0                @ applications/draw.c:85:6
	str	r0, [sp, #16]
	.loc	3 94 3 is_stmt 1                @ applications/draw.c:94:3
	b	.LBB1_4
.LBB1_4:                                @   Parent Loop BB1_3 Depth=1
                                        @ =>  This Inner Loop Header: Depth=2
.Ltmp12:
	.loc	3 95 20                         @ applications/draw.c:95:20
	ldr	r0, [sp, #8]
	adds	r1, r0, #1
	str	r1, [sp, #8]
	.loc	3 95 15 is_stmt 0               @ applications/draw.c:95:15
	ldrb	r0, [r0]
	.loc	3 95 9                          @ applications/draw.c:95:9
	ldr	r1, [sp, #4]
	adds	r2, r1, #1
	str	r2, [sp, #4]
	.loc	3 95 13                         @ applications/draw.c:95:13
	strb	r0, [r1]
	.loc	3 96 3 is_stmt 1                @ applications/draw.c:96:3
	b	.LBB1_5
.Ltmp13:
.LBB1_5:                                @   in Loop: Header=BB1_4 Depth=2
	.loc	3 96 10 is_stmt 0               @ applications/draw.c:96:10
	ldr	r0, [sp, #16]
	subs	r0, #1
	str	r0, [sp, #16]
.Ltmp14:
	.loc	3 96 3                          @ applications/draw.c:96:3
	cmp	r0, #0
	bne	.LBB1_4
	b	.LBB1_6
.Ltmp15:
.LBB1_6:                                @   in Loop: Header=BB1_3 Depth=1
	.loc	3 97 10 is_stmt 1               @ applications/draw.c:97:10
	ldr	r0, [sp, #12]
	.loc	3 97 15 is_stmt 0               @ applications/draw.c:97:15
	ldr	r1, [sp, #20]
	.loc	3 97 13                         @ applications/draw.c:97:13
	subs	r1, r0, r1
	.loc	3 97 7                          @ applications/draw.c:97:7
	ldr	r0, [sp, #4]
	add	r0, r1
	str	r0, [sp, #4]
	.loc	3 98 2 is_stmt 1                @ applications/draw.c:98:2
	b	.LBB1_7
.Ltmp16:
.LBB1_7:                                @   in Loop: Header=BB1_3 Depth=1
	.loc	3 98 11 is_stmt 0               @ applications/draw.c:98:11
	ldr	r0, [sp, #24]
	subs	r0, #1
	str	r0, [sp, #24]
.Ltmp17:
	.loc	3 98 2                          @ applications/draw.c:98:2
	cmp	r0, #0
	bne	.LBB1_3
	b	.LBB1_8
.Ltmp18:
.LBB1_8:
	.loc	3 0 2                           @ applications/draw.c:0:2
	movs	r0, #1
	.loc	3 100 2 is_stmt 1               @ applications/draw.c:100:2
	add	sp, #40
	pop	{r7, pc}
.Ltmp19:
.Lfunc_end1:
	.size	output_fun, .Lfunc_end1-output_fun
	.cfi_endproc
	.cantunwind
	.fnend
                                        @ -- End function
	.section	.text.draw_bmp,"ax",%progbits
	.hidden	draw_bmp                        @ -- Begin function draw_bmp
	.globl	draw_bmp
	.p2align	3
	.type	draw_bmp,%function
	.code	16                              @ @draw_bmp
	.thumb_func
draw_bmp:
.Lfunc_begin2:
	.loc	3 106 0                         @ applications/draw.c:106:0
	.fnstart
	.cfi_startproc
@ %bb.0:
	.save	{r7, lr}
	push	{r7, lr}
	.cfi_def_cfa_offset 8
	.cfi_offset lr, -4
	.cfi_offset r7, -8
	.pad	#72
	sub	sp, #72
	.cfi_def_cfa_offset 80
	str	r0, [sp, #68]
	str	r1, [sp, #64]
	movs	r0, #0
.Ltmp20:
	.loc	3 109 6 prologue_end            @ applications/draw.c:109:6
	str	r0, [sp, #28]                   @ 4-byte Spill
	str	r0, [sp, #52]
	.loc	3 110 6                         @ applications/draw.c:110:6
	str	r0, [sp, #48]
	.loc	3 111 45                        @ applications/draw.c:111:45
	ldr	r0, [sp, #64]
	.loc	3 111 25 is_stmt 0              @ applications/draw.c:111:25
	bl	lv_obj_get_ext_attr
	.loc	3 111 19                        @ applications/draw.c:111:19
	str	r0, [sp, #44]
	.loc	3 112 39 is_stmt 1              @ applications/draw.c:112:39
	ldr	r0, [sp, #64]
	.loc	3 112 23 is_stmt 0              @ applications/draw.c:112:23
	bl	lv_obj_get_disp
	ldr	r1, [sp, #28]                   @ 4-byte Reload
	.loc	3 112 16                        @ applications/draw.c:112:16
	str	r0, [sp, #40]
	.loc	3 113 5 is_stmt 1               @ applications/draw.c:113:5
	ldr	r2, [sp, #40]
	.loc	3 113 17 is_stmt 0              @ applications/draw.c:113:17
	ldrh.w	r0, [r2, #382]
	and	r0, r0, #64512
	strh.w	r0, [r2, #382]
	.loc	3 114 5 is_stmt 1               @ applications/draw.c:114:5
	movw	r0, :lower16:area_p
	movt	r0, :upper16:area_p
	ldr	r2, [r0]
	.loc	3 114 16 is_stmt 0              @ applications/draw.c:114:16
	strh	r1, [r2]
	.loc	3 115 5 is_stmt 1               @ applications/draw.c:115:5
	ldr	r3, [r0]
	mov.w	r2, #272
	.loc	3 115 16 is_stmt 0              @ applications/draw.c:115:16
	strh	r2, [r3, #4]
	.loc	3 116 5 is_stmt 1               @ applications/draw.c:116:5
	ldr	r2, [r0]
	.loc	3 116 16 is_stmt 0              @ applications/draw.c:116:16
	strh	r1, [r2, #2]
	.loc	3 117 5 is_stmt 1               @ applications/draw.c:117:5
	ldr	r1, [r0]
	mov.w	r0, #460
	.loc	3 117 16 is_stmt 0              @ applications/draw.c:117:16
	strh	r0, [r1, #6]
	.loc	3 118 14 is_stmt 1              @ applications/draw.c:118:14
	bl	rt_tick_get
	.loc	3 118 6 is_stmt 0               @ applications/draw.c:118:6
	str	r0, [sp, #36]
	.loc	3 119 2 is_stmt 1               @ applications/draw.c:119:2
	b	.LBB2_1
.LBB2_1:                                @ =>This Inner Loop Header: Depth=1
	.loc	3 119 17 is_stmt 0              @ applications/draw.c:119:17
	ldr	r0, [sp, #68]
	movs	r1, #0
	.loc	3 119 12                        @ applications/draw.c:119:12
	bl	open
	.loc	3 119 11                        @ applications/draw.c:119:11
	str	r0, [sp, #56]
	.loc	3 119 2                         @ applications/draw.c:119:2
	cmp.w	r0, #-1
	bgt	.LBB2_5
	b	.LBB2_2
.LBB2_2:                                @   in Loop: Header=BB2_1 Depth=1
.Ltmp21:
	.loc	3 121 6 is_stmt 1               @ applications/draw.c:121:6
	bl	rt_tick_get
	.loc	3 121 20 is_stmt 0              @ applications/draw.c:121:20
	ldr	r1, [sp, #36]
	.loc	3 121 19                        @ applications/draw.c:121:19
	subs	r0, r0, r1
	movw	r1, #5001
.Ltmp22:
	.loc	3 121 6                         @ applications/draw.c:121:6
	cmp	r0, r1
	blo	.LBB2_4
	b	.LBB2_3
.LBB2_3:
.Ltmp23:
	.loc	3 123 4 is_stmt 1               @ applications/draw.c:123:4
	b	.LBB2_5
.Ltmp24:
.LBB2_4:                                @   in Loop: Header=BB2_1 Depth=1
	.loc	3 119 2                         @ applications/draw.c:119:2
	b	.LBB2_1
.LBB2_5:
	.loc	3 126 2                         @ applications/draw.c:126:2
	bl	rt_enter_critical
	.loc	3 127 21                        @ applications/draw.c:127:21
	bl	lv_disp_get_default
	bl	lv_disp_get_hor_res
	.loc	3 127 32 is_stmt 0              @ applications/draw.c:127:32
	str	r0, [sp, #20]                   @ 4-byte Spill
	bl	lv_disp_get_default
	bl	lv_disp_get_ver_res
	mov	r1, r0
	.loc	3 127 31                        @ applications/draw.c:127:31
	ldr	r0, [sp, #20]                   @ 4-byte Reload
	muls	r0, r1, r0
	.loc	3 127 42                        @ applications/draw.c:127:42
	add.w	r0, r0, r0, lsl #1
	.loc	3 127 11                        @ applications/draw.c:127:11
	bl	rt_malloc
	.loc	3 127 9                         @ applications/draw.c:127:9
	str	r0, [sp, #60]
	.loc	3 128 7 is_stmt 1               @ applications/draw.c:128:7
	ldr	r0, [sp, #56]
	.loc	3 128 10 is_stmt 0              @ applications/draw.c:128:10
	ldr	r1, [sp, #60]
	movs	r2, #54
	.loc	3 128 2                         @ applications/draw.c:128:2
	bl	read
	.loc	3 129 6 is_stmt 1               @ applications/draw.c:129:6
	bl	lv_disp_get_default
	bl	lv_disp_get_hor_res
	.loc	3 129 18 is_stmt 0              @ applications/draw.c:129:18
	str	r0, [sp, #24]                   @ 4-byte Spill
	bl	lv_disp_get_default
	bl	lv_disp_get_ver_res
	mov	r1, r0
	.loc	3 129 28                        @ applications/draw.c:129:28
	ldr	r0, [sp, #24]                   @ 4-byte Reload
	subs	r1, #1
	.loc	3 129 16                        @ applications/draw.c:129:16
	muls	r0, r1, r0
	.loc	3 129 31                        @ applications/draw.c:129:31
	add.w	r0, r0, r0, lsl #1
	.loc	3 129 5                         @ applications/draw.c:129:5
	str	r0, [sp, #48]
	.loc	3 130 2 is_stmt 1               @ applications/draw.c:130:2
	b	.LBB2_6
.LBB2_6:                                @ =>This Inner Loop Header: Depth=1
	.loc	3 130 19 is_stmt 0              @ applications/draw.c:130:19
	ldr	r0, [sp, #56]
	.loc	3 130 22                        @ applications/draw.c:130:22
	str	r0, [sp, #12]                   @ 4-byte Spill
	ldr	r0, [sp, #60]
	.loc	3 130 29                        @ applications/draw.c:130:29
	ldr	r1, [sp, #48]
	.loc	3 130 28                        @ applications/draw.c:130:28
	add	r0, r1
	.loc	3 130 33                        @ applications/draw.c:130:33
	str	r0, [sp, #8]                    @ 4-byte Spill
	bl	lv_disp_get_default
	bl	lv_disp_get_hor_res
	ldr	r1, [sp, #8]                    @ 4-byte Reload
	mov	r2, r0
	.loc	3 130 43                        @ applications/draw.c:130:43
	ldr	r0, [sp, #12]                   @ 4-byte Reload
	add.w	r2, r2, r2, lsl #1
	.loc	3 130 14                        @ applications/draw.c:130:14
	bl	read
	.loc	3 130 13                        @ applications/draw.c:130:13
	str	r0, [sp, #16]                   @ 4-byte Spill
	str	r0, [sp, #52]
	.loc	3 130 50                        @ applications/draw.c:130:50
	bl	lv_disp_get_default
	bl	lv_disp_get_hor_res
	mov	r1, r0
	.loc	3 130 60                        @ applications/draw.c:130:60
	ldr	r0, [sp, #16]                   @ 4-byte Reload
	add.w	r1, r1, r1, lsl #1
	.loc	3 130 2                         @ applications/draw.c:130:2
	cmp	r0, r1
	blt	.LBB2_8
	b	.LBB2_7
.LBB2_7:                                @   in Loop: Header=BB2_6 Depth=1
.Ltmp25:
	.loc	3 132 8 is_stmt 1               @ applications/draw.c:132:8
	ldr	r1, [sp, #52]
	.loc	3 132 6 is_stmt 0               @ applications/draw.c:132:6
	ldr	r0, [sp, #48]
	subs	r0, r0, r1
	str	r0, [sp, #48]
.Ltmp26:
	.loc	3 130 2 is_stmt 1               @ applications/draw.c:130:2
	b	.LBB2_6
.LBB2_8:
	.loc	3 134 7                         @ applications/draw.c:134:7
	ldr	r1, [sp, #52]
	.loc	3 134 5 is_stmt 0               @ applications/draw.c:134:5
	ldr	r0, [sp, #48]
	subs	r0, r0, r1
	str	r0, [sp, #48]
	.loc	3 135 5 is_stmt 1               @ applications/draw.c:135:5
	b	.LBB2_9
.LBB2_9:
	.loc	3 0 5 is_stmt 0                 @ applications/draw.c:0:5
	movw	r0, #17620
	movt	r0, #22530
.Ltmp27:
	.loc	3 135 5                         @ applications/draw.c:135:5
	ldr	r1, [r0]
	orr	r1, r1, #16
	str	r1, [r0]
	ldr	r0, [r0]
	and	r0, r0, #16
	str	r0, [sp, #32]
	ldr	r0, [sp, #32]
	b	.LBB2_10
.Ltmp28:
.LBB2_10:
	.loc	3 0 5                           @ applications/draw.c:0:5
	movw	r2, #4096
	movt	r2, #20992
	str	r2, [sp]                        @ 4-byte Spill
	mov.w	r0, #65536
	.loc	3 136 15 is_stmt 1              @ applications/draw.c:136:15
	str	r0, [r2]
	movw	r1, #4124
	movt	r1, #20992
	movs	r0, #1
	.loc	3 137 17                        @ applications/draw.c:137:17
	str	r0, [r1]
	movw	r1, #4148
	movt	r1, #20992
	movs	r0, #0
	.loc	3 138 19                        @ applications/draw.c:138:19
	str	r0, [r1]
	.loc	3 139 12                        @ applications/draw.c:139:12
	ldr	r1, [r2]
	bic	r1, r1, #1
	str	r1, [r2]
	movw	r1, #4112
	movt	r1, #20992
	.loc	3 140 14                        @ applications/draw.c:140:14
	str	r0, [r1]
	movw	r1, #4160
	movt	r1, #20992
	.loc	3 141 13                        @ applications/draw.c:141:13
	str	r0, [r1]
	.loc	3 142 27                        @ applications/draw.c:142:27
	ldr	r0, [sp, #60]
	movw	r1, #4108
	movt	r1, #20992
	.loc	3 142 15 is_stmt 0              @ applications/draw.c:142:15
	str	r0, [r1]
	.loc	3 143 27 is_stmt 1              @ applications/draw.c:143:27
	ldr	r0, [sp, #44]
	.loc	3 143 36 is_stmt 0              @ applications/draw.c:143:36
	ldr	r0, [r0, #32]
	movw	r1, #4156
	movt	r1, #20992
	.loc	3 143 14                        @ applications/draw.c:143:14
	str	r0, [r1]
	.loc	3 144 16 is_stmt 1              @ applications/draw.c:144:16
	bl	lv_disp_get_default
	bl	lv_disp_get_ver_res
	.loc	3 144 32 is_stmt 0              @ applications/draw.c:144:32
	str	r0, [sp, #4]                    @ 4-byte Spill
	bl	lv_disp_get_default
	bl	lv_disp_get_hor_res
	ldr	r1, [sp]                        @ 4-byte Reload
	mov	r2, r0
	.loc	3 144 28                        @ applications/draw.c:144:28
	ldr	r0, [sp, #4]                    @ 4-byte Reload
	orr.w	r0, r0, r2, lsl #16
	movw	r2, #4164
	movt	r2, #20992
	.loc	3 144 13                        @ applications/draw.c:144:13
	str	r0, [r2]
	.loc	3 145 12 is_stmt 1              @ applications/draw.c:145:12
	ldr	r0, [r1]
	orr	r0, r0, #1
	str	r0, [r1]
	.loc	3 146 2                         @ applications/draw.c:146:2
	b	.LBB2_11
.LBB2_11:                               @ =>This Inner Loop Header: Depth=1
	.loc	3 0 2 is_stmt 0                 @ applications/draw.c:0:2
	movw	r0, #4096
	movt	r0, #20992
	.loc	3 146 16                        @ applications/draw.c:146:16
	ldr	r0, [r0]
	.loc	3 146 2                         @ applications/draw.c:146:2
	lsls	r0, r0, #31
	cbz	r0, .LBB2_13
	b	.LBB2_12
.LBB2_12:                               @   in Loop: Header=BB2_11 Depth=1
	b	.LBB2_11
.LBB2_13:
	.loc	3 148 13 is_stmt 1              @ applications/draw.c:148:13
	ldr	r0, [sp, #40]
	.loc	3 148 35 is_stmt 0              @ applications/draw.c:148:35
	ldrh.w	r1, [r0, #382]
	bfc	r1, #10, #22
	.loc	3 148 19                        @ applications/draw.c:148:19
	add.w	r0, r0, r1, lsl #3
	.loc	3 148 13                        @ applications/draw.c:148:13
	adds	r0, #94
	.loc	3 148 43                        @ applications/draw.c:148:43
	movw	r1, :lower16:area_p
	movt	r1, :upper16:area_p
	ldr	r1, [r1]
	movs	r2, #8
	.loc	3 148 2                         @ applications/draw.c:148:2
	bl	rt_memcpy
	.loc	3 149 19 is_stmt 1              @ applications/draw.c:149:19
	ldr	r0, [sp, #40]
	.loc	3 149 25 is_stmt 0              @ applications/draw.c:149:25
	ldr	r0, [r0, #44]
	movs	r1, #3
	.loc	3 149 2                         @ applications/draw.c:149:2
	bl	lv_task_set_prio
	.loc	3 150 20 is_stmt 1              @ applications/draw.c:150:20
	ldr	r1, [sp, #40]
	.loc	3 150 26 is_stmt 0              @ applications/draw.c:150:26
	ldrh.w	r0, [r1, #382]
	.loc	3 150 14                        @ applications/draw.c:150:14
	rsb.w	r2, r0, #1
	bfc	r2, #10, #22
	and	r0, r0, #64512
	add	r0, r2
	strh.w	r0, [r1, #382]
	.loc	3 151 8 is_stmt 1               @ applications/draw.c:151:8
	ldr	r0, [sp, #56]
	.loc	3 151 2 is_stmt 0               @ applications/draw.c:151:2
	bl	close
	.loc	3 152 10 is_stmt 1              @ applications/draw.c:152:10
	ldr	r0, [sp, #60]
	.loc	3 152 2 is_stmt 0               @ applications/draw.c:152:2
	bl	rt_free
	.loc	3 153 2 is_stmt 1               @ applications/draw.c:153:2
	bl	rt_exit_critical
	.loc	3 154 1                         @ applications/draw.c:154:1
	add	sp, #72
	pop	{r7, pc}
.Ltmp29:
.Lfunc_end2:
	.size	draw_bmp, .Lfunc_end2-draw_bmp
	.cfi_endproc
	.cantunwind
	.fnend
                                        @ -- End function
	.section	.text.draw_jpg,"ax",%progbits
	.hidden	draw_jpg                        @ -- Begin function draw_jpg
	.globl	draw_jpg
	.p2align	3
	.type	draw_jpg,%function
	.code	16                              @ @draw_jpg
	.thumb_func
draw_jpg:
.Lfunc_begin3:
	.loc	3 156 0                         @ applications/draw.c:156:0
	.fnstart
	.cfi_startproc
@ %bb.0:
	.save	{r7, lr}
	push	{r7, lr}
	.cfi_def_cfa_offset 8
	.cfi_offset lr, -4
	.cfi_offset r7, -8
	.pad	#456
	sub	sp, #456
	.cfi_def_cfa_offset 464
	str	r0, [sp, #452]
	str	r1, [sp, #448]
.Ltmp30:
	.loc	3 157 45 prologue_end           @ applications/draw.c:157:45
	ldr	r0, [sp, #448]
	.loc	3 157 25 is_stmt 0              @ applications/draw.c:157:25
	bl	lv_obj_get_ext_attr
	.loc	3 157 19                        @ applications/draw.c:157:19
	str	r0, [sp, #444]
	.loc	3 158 39 is_stmt 1              @ applications/draw.c:158:39
	ldr	r0, [sp, #448]
	.loc	3 158 23 is_stmt 0              @ applications/draw.c:158:23
	bl	lv_obj_get_disp
	.loc	3 158 16                        @ applications/draw.c:158:16
	str	r0, [sp, #440]
	.loc	3 159 5 is_stmt 1               @ applications/draw.c:159:5
	ldr	r1, [sp, #440]
	.loc	3 159 17 is_stmt 0              @ applications/draw.c:159:17
	ldrh.w	r0, [r1, #382]
	and	r0, r0, #64512
	strh.w	r0, [r1, #382]
	.loc	3 160 5 is_stmt 1               @ applications/draw.c:160:5
	movw	r0, :lower16:area_p
	movt	r0, :upper16:area_p
	ldr	r2, [r0]
	movs	r1, #0
	.loc	3 160 16 is_stmt 0              @ applications/draw.c:160:16
	strh	r1, [r2]
	.loc	3 161 5 is_stmt 1               @ applications/draw.c:161:5
	ldr	r3, [r0]
	mov.w	r2, #272
	.loc	3 161 16 is_stmt 0              @ applications/draw.c:161:16
	strh	r2, [r3, #4]
	.loc	3 162 5 is_stmt 1               @ applications/draw.c:162:5
	ldr	r2, [r0]
	.loc	3 162 16 is_stmt 0              @ applications/draw.c:162:16
	strh	r1, [r2, #2]
	.loc	3 163 5 is_stmt 1               @ applications/draw.c:163:5
	ldr	r1, [r0]
	mov.w	r0, #460
	.loc	3 163 16 is_stmt 0              @ applications/draw.c:163:16
	strh	r0, [r1, #6]
	.loc	3 164 5 is_stmt 1               @ applications/draw.c:164:5
	b	.LBB3_1
.LBB3_1:
	.loc	3 0 5 is_stmt 0                 @ applications/draw.c:0:5
	movw	r0, #17620
	movt	r0, #22530
.Ltmp31:
	.loc	3 164 5                         @ applications/draw.c:164:5
	ldr	r1, [r0]
	orr	r1, r1, #16
	str	r1, [r0]
	ldr	r0, [r0]
	and	r0, r0, #16
	str	r0, [sp, #436]
	ldr	r0, [sp, #436]
	b	.LBB3_2
.Ltmp32:
.LBB3_2:
	.loc	3 0 5                           @ applications/draw.c:0:5
	movw	r1, #4096
	movt	r1, #20992
	mov.w	r0, #65536
	.loc	3 165 15 is_stmt 1              @ applications/draw.c:165:15
	str	r0, [r1]
	movw	r1, #4124
	movt	r1, #20992
	movs	r0, #1
	.loc	3 166 17                        @ applications/draw.c:166:17
	str	r0, [r1]
	movw	r1, #4148
	movt	r1, #20992
	movs	r0, #0
	.loc	3 167 19                        @ applications/draw.c:167:19
	str	r0, [r1]
	mov.w	r0, #4096
	.loc	3 168 15                        @ applications/draw.c:168:15
	str	r0, [sp, #432]
	.loc	3 177 15                        @ applications/draw.c:177:15
	ldr	r1, [sp, #452]
	.loc	3 177 2 is_stmt 0               @ applications/draw.c:177:2
	movw	r0, :lower16:.L.str.1
	movt	r0, :upper16:.L.str.1
	bl	printf
	.loc	3 178 5 is_stmt 1               @ applications/draw.c:178:5
	bl	rt_enter_critical
	.loc	3 180 2                         @ applications/draw.c:180:2
	b	.LBB3_3
.LBB3_3:                                @ =>This Inner Loop Header: Depth=1
	.loc	3 180 26 is_stmt 0              @ applications/draw.c:180:26
	ldr	r0, [sp, #452]
	movs	r1, #0
	.loc	3 180 21                        @ applications/draw.c:180:21
	bl	open
	.loc	3 180 19                        @ applications/draw.c:180:19
	str	r0, [sp, #296]
	.loc	3 180 2                         @ applications/draw.c:180:2
	cmp.w	r0, #-1
	bgt	.LBB3_5
	b	.LBB3_4
.LBB3_4:                                @   in Loop: Header=BB3_3 Depth=1
	.loc	3 0 2                           @ applications/draw.c:0:2
	movs	r0, #50
.Ltmp33:
	.loc	3 182 3 is_stmt 1               @ applications/draw.c:182:3
	bl	rt_thread_mdelay
.Ltmp34:
	.loc	3 180 2                         @ applications/draw.c:180:2
	b	.LBB3_3
.LBB3_5:
.Ltmp35:
	.loc	3 184 12                        @ applications/draw.c:184:12
	ldr	r0, [sp, #296]
.Ltmp36:
	.loc	3 184 6 is_stmt 0               @ applications/draw.c:184:6
	cmp	r0, #1
	blt.w	.LBB3_16
	b	.LBB3_6
.LBB3_6:
	.loc	3 0 6                           @ applications/draw.c:0:6
	mov.w	r0, #4096
.Ltmp37:
	.loc	3 186 12 is_stmt 1              @ applications/draw.c:186:12
	str	r0, [sp, #20]                   @ 4-byte Spill
	bl	rt_malloc
	.loc	3 186 10 is_stmt 0              @ applications/draw.c:186:10
	str	r0, [sp, #428]
	.loc	3 187 15 is_stmt 1              @ applications/draw.c:187:15
	ldr	r0, [sp, #296]
	movs	r2, #0
	.loc	3 187 3 is_stmt 0               @ applications/draw.c:187:3
	mov	r1, r2
	bl	lseek
	ldr	r3, [sp, #20]                   @ 4-byte Reload
	.loc	3 188 35 is_stmt 1              @ applications/draw.c:188:35
	ldr	r2, [sp, #428]
	.loc	3 188 8 is_stmt 0               @ applications/draw.c:188:8
	mov	r1, sp
	add	r0, sp, #296
	str	r0, [r1]
	movw	r1, :lower16:input_fun
	movt	r1, :upper16:input_fun
	add	r0, sp, #308
	bl	jd_prepare
	.loc	3 188 6                         @ applications/draw.c:188:6
	strb.w	r0, [sp, #295]
.Ltmp38:
	.loc	3 190 8 is_stmt 1               @ applications/draw.c:190:8
	ldrb.w	r0, [sp, #295]
.Ltmp39:
	.loc	3 190 7 is_stmt 0               @ applications/draw.c:190:7
	cmp	r0, #0
	bne.w	.LBB3_14
	b	.LBB3_7
.LBB3_7:
.Ltmp40:
	.loc	3 196 5 is_stmt 1               @ applications/draw.c:196:5
	movw	r0, :lower16:.L.str.2
	movt	r0, :upper16:.L.str.2
	bl	printf
.Ltmp41:
	.loc	3 198 12                        @ applications/draw.c:198:12
	ldrh.w	r0, [sp, #336]
	.loc	3 198 7 is_stmt 0               @ applications/draw.c:198:7
	str	r0, [sp, #284]
	.loc	3 199 12 is_stmt 1              @ applications/draw.c:199:12
	ldrh.w	r0, [sp, #338]
	.loc	3 199 7 is_stmt 0               @ applications/draw.c:199:7
	str	r0, [sp, #280]
	.loc	3 200 10 is_stmt 1              @ applications/draw.c:200:10
	ldr	r0, [sp, #284]
	.loc	3 200 13 is_stmt 0              @ applications/draw.c:200:13
	add.w	r0, r0, r0, lsl #1
	.loc	3 200 17                        @ applications/draw.c:200:17
	adds	r0, #3
	.loc	3 200 22                        @ applications/draw.c:200:22
	bic	r0, r0, #3
	.loc	3 200 7                         @ applications/draw.c:200:7
	str	r0, [sp, #288]
	.loc	3 201 18 is_stmt 1              @ applications/draw.c:201:18
	ldr	r0, [sp, #288]
	.loc	3 201 16 is_stmt 0              @ applications/draw.c:201:16
	str	r0, [sp, #304]
	.loc	3 202 29 is_stmt 1              @ applications/draw.c:202:29
	ldr	r0, [sp, #288]
	.loc	3 202 34 is_stmt 0              @ applications/draw.c:202:34
	ldr	r1, [sp, #280]
	.loc	3 202 32                        @ applications/draw.c:202:32
	muls	r0, r1, r0
	.loc	3 202 19                        @ applications/draw.c:202:19
	bl	rt_malloc
	.loc	3 202 17                        @ applications/draw.c:202:17
	str	r0, [sp, #300]
	.loc	3 203 9 is_stmt 1               @ applications/draw.c:203:9
	movw	r1, :lower16:output_fun
	movt	r1, :upper16:output_fun
	add	r0, sp, #308
	movs	r2, #0
	str	r2, [sp, #8]                    @ 4-byte Spill
	bl	jd_decomp
	mov	r1, r0
	.loc	3 203 7 is_stmt 0               @ applications/draw.c:203:7
	ldr	r0, [sp, #8]                    @ 4-byte Reload
	strb.w	r1, [sp, #295]
	movw	r2, #4096
	movt	r2, #20992
	.loc	3 204 15 is_stmt 1              @ applications/draw.c:204:15
	str	r2, [sp, #12]                   @ 4-byte Spill
	ldr	r1, [r2]
	bic	r1, r1, #1
	str	r1, [r2]
	movw	r1, #4112
	movt	r1, #20992
	.loc	3 205 16                        @ applications/draw.c:205:16
	str	r0, [r1]
	movw	r1, #4160
	movt	r1, #20992
	.loc	3 206 15                        @ applications/draw.c:206:15
	str	r0, [r1]
	.loc	3 207 35                        @ applications/draw.c:207:35
	ldr	r0, [sp, #300]
	movw	r1, #4108
	movt	r1, #20992
	.loc	3 207 17 is_stmt 0              @ applications/draw.c:207:17
	str	r0, [r1]
	.loc	3 208 29 is_stmt 1              @ applications/draw.c:208:29
	ldr	r0, [sp, #444]
	.loc	3 208 38 is_stmt 0              @ applications/draw.c:208:38
	ldr	r0, [r0, #32]
	movw	r1, #4156
	movt	r1, #20992
	.loc	3 208 16                        @ applications/draw.c:208:16
	str	r0, [r1]
	.loc	3 209 18 is_stmt 1              @ applications/draw.c:209:18
	bl	lv_disp_get_default
	bl	lv_disp_get_ver_res
	.loc	3 209 34 is_stmt 0              @ applications/draw.c:209:34
	str	r0, [sp, #16]                   @ 4-byte Spill
	bl	lv_disp_get_default
	bl	lv_disp_get_hor_res
	ldr	r1, [sp, #12]                   @ 4-byte Reload
	mov	r2, r0
	.loc	3 209 30                        @ applications/draw.c:209:30
	ldr	r0, [sp, #16]                   @ 4-byte Reload
	orr.w	r0, r0, r2, lsl #16
	movw	r2, #4164
	movt	r2, #20992
	.loc	3 209 15                        @ applications/draw.c:209:15
	str	r0, [r2]
	.loc	3 210 14 is_stmt 1              @ applications/draw.c:210:14
	ldr	r0, [r1]
	orr	r0, r0, #1
	str	r0, [r1]
	.loc	3 211 4                         @ applications/draw.c:211:4
	b	.LBB3_8
.LBB3_8:                                @ =>This Inner Loop Header: Depth=1
	.loc	3 0 4 is_stmt 0                 @ applications/draw.c:0:4
	movw	r0, #4096
	movt	r0, #20992
	.loc	3 211 18                        @ applications/draw.c:211:18
	ldr	r0, [r0]
	.loc	3 211 4                         @ applications/draw.c:211:4
	lsls	r0, r0, #31
	cbz	r0, .LBB3_10
	b	.LBB3_9
.LBB3_9:                                @   in Loop: Header=BB3_8 Depth=1
	b	.LBB3_8
.LBB3_10:
	.loc	3 213 15 is_stmt 1              @ applications/draw.c:213:15
	ldr	r0, [sp, #440]
	.loc	3 213 37 is_stmt 0              @ applications/draw.c:213:37
	ldrh.w	r1, [r0, #382]
	bfc	r1, #10, #22
	.loc	3 213 21                        @ applications/draw.c:213:21
	add.w	r0, r0, r1, lsl #3
	.loc	3 213 15                        @ applications/draw.c:213:15
	adds	r0, #94
	.loc	3 213 45                        @ applications/draw.c:213:45
	movw	r1, :lower16:area_p
	movt	r1, :upper16:area_p
	ldr	r1, [r1]
	movs	r2, #8
	.loc	3 213 4                         @ applications/draw.c:213:4
	bl	rt_memcpy
	.loc	3 214 21 is_stmt 1              @ applications/draw.c:214:21
	ldr	r0, [sp, #440]
	.loc	3 214 27 is_stmt 0              @ applications/draw.c:214:27
	ldr	r0, [r0, #44]
	movs	r1, #3
	.loc	3 214 4                         @ applications/draw.c:214:4
	bl	lv_task_set_prio
	.loc	3 215 22 is_stmt 1              @ applications/draw.c:215:22
	ldr	r1, [sp, #440]
	.loc	3 215 28 is_stmt 0              @ applications/draw.c:215:28
	ldrh.w	r0, [r1, #382]
	.loc	3 215 16                        @ applications/draw.c:215:16
	rsb.w	r2, r0, #1
	bfc	r2, #10, #22
	and	r0, r0, #64512
	add	r0, r2
	strh.w	r0, [r1, #382]
.Ltmp42:
	.loc	3 216 9 is_stmt 1               @ applications/draw.c:216:9
	ldrb.w	r0, [sp, #295]
.Ltmp43:
	.loc	3 216 8 is_stmt 0               @ applications/draw.c:216:8
	cbnz	r0, .LBB3_12
	b	.LBB3_11
.LBB3_11:
.Ltmp44:
	.loc	3 220 4 is_stmt 1               @ applications/draw.c:220:4
	b	.LBB3_13
.Ltmp45:
.LBB3_12:
	.loc	3 224 28                        @ applications/draw.c:224:28
	ldrb.w	r1, [sp, #295]
	.loc	3 224 6 is_stmt 0               @ applications/draw.c:224:6
	movw	r0, :lower16:.L.str.3
	movt	r0, :upper16:.L.str.3
	bl	printf
	b	.LBB3_13
.Ltmp46:
.LBB3_13:
	.loc	3 227 18 is_stmt 1              @ applications/draw.c:227:18
	ldr	r0, [sp, #300]
	.loc	3 227 4 is_stmt 0               @ applications/draw.c:227:4
	bl	rt_free
	.loc	3 228 3 is_stmt 1               @ applications/draw.c:228:3
	b	.LBB3_15
.Ltmp47:
.LBB3_14:
	.loc	3 232 25                        @ applications/draw.c:232:25
	ldrb.w	r1, [sp, #295]
	.loc	3 232 5 is_stmt 0               @ applications/draw.c:232:5
	movw	r0, :lower16:.L.str.4
	movt	r0, :upper16:.L.str.4
	bl	printf
	b	.LBB3_15
.Ltmp48:
.LBB3_15:
	.loc	3 236 11 is_stmt 1              @ applications/draw.c:236:11
	ldr	r0, [sp, #428]
	.loc	3 236 3 is_stmt 0               @ applications/draw.c:236:3
	bl	rt_free
	.loc	3 238 15 is_stmt 1              @ applications/draw.c:238:15
	ldr	r0, [sp, #296]
	.loc	3 238 3 is_stmt 0               @ applications/draw.c:238:3
	bl	close
	.loc	3 239 3 is_stmt 1               @ applications/draw.c:239:3
	bl	rt_exit_critical
	.loc	3 240 2                         @ applications/draw.c:240:2
	b	.LBB3_16
.Ltmp49:
.LBB3_16:
	.loc	3 242 2                         @ applications/draw.c:242:2
	movw	r0, :lower16:.L.str.2
	movt	r0, :upper16:.L.str.2
	bl	printf
	.loc	3 243 1                         @ applications/draw.c:243:1
	add	sp, #456
	pop	{r7, pc}
.Ltmp50:
.Lfunc_end3:
	.size	draw_jpg, .Lfunc_end3-draw_jpg
	.cfi_endproc
	.cantunwind
	.fnend
                                        @ -- End function
	.type	.L.str,%object                  @ @.str
	.section	.rodata.str1.1,"aMS",%progbits,1
.L.str:
	.asciz	"\r%lu%%"
	.size	.L.str, 7

	.type	.L.str.1,%object                @ @.str.1
.L.str.1:
	.asciz	"%s"
	.size	.L.str.1, 3

	.type	.L.str.2,%object                @ @.str.2
.L.str.2:
	.asciz	"\n"
	.size	.L.str.2, 2

	.type	.L.str.3,%object                @ @.str.3
.L.str.3:
	.asciz	"\rError(%d)"
	.size	.L.str.3, 11

	.type	.L.str.4,%object                @ @.str.4
.L.str.4:
	.asciz	"\nErr: %d"
	.size	.L.str.4, 9

	.file	6 "E:\\STM32\\Learning\\STM32H750_ART_PI_RGBLCD" "./lvgl/src/lv_widgets/../lv_core/lv_obj.h"
	.file	7 "E:\\STM32\\Learning\\STM32H750_ART_PI_RGBLCD" "./lvgl/src/lv_hal/../lv_misc/lv_ll.h"
	.file	8 "E:\\STM32\\Learning\\STM32H750_ART_PI_RGBLCD" "./lvgl/src/lv_conf.h"
	.file	9 "E:\\STM32\\Learning\\STM32H750_ART_PI_RGBLCD" "./lvgl/src/lv_misc/lv_area.h"
	.file	10 "E:\\STM32\\Learning\\STM32H750_ART_PI_RGBLCD" "./lvgl/src/lv_core/../lv_draw/../lv_misc/lv_types.h"
	.file	11 "E:\\STM32\\Learning\\STM32H750_ART_PI_RGBLCD" "./lvgl/src/lv_themes/../lv_core/lv_style.h"
	.file	12 "E:\\STM32\\Learning\\STM32H750_ART_PI_RGBLCD" "./lvgl/src/lv_core/../lv_hal/lv_hal_indev.h"
	.file	13 "E:\\STM32\\Learning\\STM32H750_ART_PI_RGBLCD" "./lvgl/src/lv_core/../lv_draw/../lv_misc/lv_bidi.h"
	.file	14 "E:\\STM32\\Learning\\STM32H750_ART_PI_RGBLCD" "./lvgl/src/lv_widgets/../lv_widgets/lv_img.h"
	.file	15 "E:\\STM32\\Learning\\STM32H750_ART_PI_RGBLCD" "./lvgl/src/lv_widgets/lv_canvas.h"
	.file	16 "E:\\STM32\\Learning\\STM32H750_ART_PI_RGBLCD" "./lvgl/src/lv_core/../lv_draw/lv_img_buf.h"
	.file	17 "E:\\STM32\\Learning\\STM32H750_ART_PI_RGBLCD" "./lvgl/src/lv_hal/lv_hal_disp.h"
	.file	18 "E:\\STM32\\Learning\\STM32H750_ART_PI_RGBLCD" "./lvgl/src/lv_core/../lv_draw/../lv_misc/lv_color.h"
	.file	19 "D:\\Keil_v5\\ARM\\ARMCLANG\\Bin\\..\\include" "stdio.h"
	.section	".note.GNU-stack","",%progbits
	.eabi_attribute	30, 6	@ Tag_ABI_optimization_goals
	.ARM_attribute	16, 1	@ Tag_AV_eba