	.text
	.syntax unified
	.eabi_attribute	67, "2.09"	@ Tag_conformance
	.cpu	cortex-m7
	.eabi_attribute	6, 13	@ Tag_CPU_arch
	.eabi_attribute	7, 77	@ Tag_CPU_arch_profile
	.eabi_attribute	8, 0	@ Tag_ARM_ISA_use
	.eabi_attribute	9, 2	@ Tag_THUMB_ISA_use
	.fpu	fpv5-d16
	.eabi_attribute	36, 1	@ Tag_FP_HP_extension
	.eabi_attribute	34, 1	@ Tag_CPU_unaligned_access
	.eabi_attribute	17, 1	@ Tag_ABI_PCS_GOT_use
	.eabi_attribute	20, 2	@ Tag_ABI_FP_denormal
	.eabi_attribute	21, 0	@ Tag_ABI_FP_exceptions
	.eabi_attribute	23, 1	@ Tag_ABI_FP_number_model
	.eabi_attribute	24, 1	@ Tag_ABI_align_needed
	.eabi_attribute	25, 1	@ Tag_ABI_align_preserved
	.eabi_attribute	28, 1	@ Tag_ABI_VFP_args
	.eabi_attribute	38, 1	@ Tag_ABI_FP_16bit_format
	.eabi_attribute	18, 2	@ Tag_ABI_PCS_wchar_t
	.eabi_attribute	26, 1	@ Tag_ABI_enum_size
	.eabi_attribute	14, 0	@ Tag_ABI_PCS_R9_use
	.file	"drv_spi.c"
	.file	1 "E:\\Smart-access-control\\Hardware\\CODE" "rt-thread/include\\rtdef.h"
	.file	2 "E:\\Smart-access-control\\Hardware\\CODE" "libraries/drivers/drv_spi.c"
	.file	3 "D:\\Keil_v5\\ARM\\ARMCLANG\\Bin\\..\\include" "stdint.h"
	.file	4 "E:\\Smart-access-control\\Hardware\\CODE" "libraries/STM32H7xx_HAL/CMSIS/Device/ST/STM32H7xx/Include/stm32h750xx.h"
	.file	5 "E:\\Smart-access-control\\Hardware\\CODE" "libraries/drivers/include\\drv_spi.h"
	.file	6 "E:\\Smart-access-control\\Hardware\\CODE" "libraries/drivers/include/drv_dma.h"
	.file	7 "E:\\Smart-access-control\\Hardware\\CODE" "libraries/STM32H7xx_HAL/STM32H7xx_HAL_Driver/Inc\\stm32h7xx_hal_spi.h"
	.file	8 "E:\\Smart-access-control\\Hardware\\CODE" "libraries/STM32H7xx_HAL/STM32H7xx_HAL_Driver/Inc\\stm32h7xx_hal_dma.h"
	.file	9 "E:\\Smart-access-control\\Hardware\\CODE" "libraries/STM32H7xx_HAL/STM32H7xx_HAL_Driver/Inc/stm32h7xx_hal_def.h"
	.file	10 "E:\\Smart-access-control\\Hardware\\CODE" "rt-thread/components/drivers/include/drivers/spi.h"
	.file	11 "E:\\Smart-access-control\\Hardware\\CODE" "libraries/STM32H7xx_HAL/STM32H7xx_HAL_Driver/Inc\\stm32h7xx_hal_gpio.h"
	.section	.text.rt_hw_spi_device_attach,"ax",%progbits
	.hidden	rt_hw_spi_device_attach         @ -- Begin function rt_hw_spi_device_attach
	.globl	rt_hw_spi_device_attach
	.p2align	3
	.type	rt_hw_spi_device_attach,%function
	.code	16                              @ @rt_hw_spi_device_attach
	.thumb_func
rt_hw_spi_device_attach:
.Lfunc_begin0:
	.loc	2 494 0                         @ libraries/drivers/drv_spi.c:494:0
	.fnstart
	.cfi_sections .debug_frame
	.cfi_startproc
@ %bb.0:
	.save	{r7, lr}
	push	{r7, lr}
	.cfi_def_cfa_offset 8
	.cfi_offset lr, -4
	.cfi_offset r7, -8
	.pad	#56
	sub	sp, #56
	.cfi_def_cfa_offset 64
                                        @ kill: def $r12 killed $r3
	str	r0, [sp, #52]
	str	r1, [sp, #48]
	str	r2, [sp, #44]
	strh.w	r3, [sp, #42]
.Ltmp0:
	.loc	2 495 5 prologue_end            @ libraries/drivers/drv_spi.c:495:5
	ldr	r0, [sp, #52]
.Ltmp1:
	.loc	2 495 5 is_stmt 0               @ libraries/drivers/drv_spi.c:495:5
	cbnz	r0, .LBB0_2
	b	.LBB0_1
.LBB0_1:
.Ltmp2:
	.loc	2 495 5                         @ libraries/drivers/drv_spi.c:495:5
	movw	r0, :lower16:.L.str
	movt	r0, :upper16:.L.str
	movw	r1, :lower16:.L__FUNCTION__.rt_hw_spi_device_attach
	movt	r1, :upper16:.L__FUNCTION__.rt_hw_spi_device_attach
	movw	r2, #495
	bl	rt_assert_handler
	b	.LBB0_2
.Ltmp3:
.LBB0_2:
	.loc	2 496 5 is_stmt 1               @ libraries/drivers/drv_spi.c:496:5
	ldr	r0, [sp, #48]
.Ltmp4:
	.loc	2 496 5 is_stmt 0               @ libraries/drivers/drv_spi.c:496:5
	cbnz	r0, .LBB0_4
	b	.LBB0_3
.LBB0_3:
.Ltmp5:
	.loc	2 496 5                         @ libraries/drivers/drv_spi.c:496:5
	movw	r0, :lower16:.L.str.1
	movt	r0, :upper16:.L.str.1
	movw	r1, :lower16:.L__FUNCTION__.rt_hw_spi_device_attach
	movt	r1, :upper16:.L__FUNCTION__.rt_hw_spi_device_attach
	mov.w	r2, #496
	bl	rt_assert_handler
	b	.LBB0_4
.Ltmp6:
.LBB0_4:
	.loc	2 504 24 is_stmt 1              @ libraries/drivers/drv_spi.c:504:24
	ldrh.w	r0, [sp, #42]
	.loc	2 504 22 is_stmt 0              @ libraries/drivers/drv_spi.c:504:22
	str	r0, [sp, #8]
	movs	r0, #1
	.loc	2 505 23 is_stmt 1              @ libraries/drivers/drv_spi.c:505:23
	str	r0, [sp, #4]                    @ 4-byte Spill
	str	r0, [sp, #12]
	.loc	2 506 23                        @ libraries/drivers/drv_spi.c:506:23
	str	r0, [sp, #16]
	movs	r0, #2
	.loc	2 507 24                        @ libraries/drivers/drv_spi.c:507:24
	str	r0, [sp, #20]
	.loc	2 508 19                        @ libraries/drivers/drv_spi.c:508:19
	ldr	r0, [sp, #44]
	add	r1, sp, #8
	.loc	2 508 5 is_stmt 0               @ libraries/drivers/drv_spi.c:508:5
	bl	HAL_GPIO_Init
	ldr	r2, [sp, #4]                    @ 4-byte Reload
	.loc	2 509 23 is_stmt 1              @ libraries/drivers/drv_spi.c:509:23
	ldr	r0, [sp, #44]
	.loc	2 509 33 is_stmt 0              @ libraries/drivers/drv_spi.c:509:33
	ldrh.w	r1, [sp, #42]
	.loc	2 509 5                         @ libraries/drivers/drv_spi.c:509:5
	bl	HAL_GPIO_WritePin
	movs	r0, #96
	.loc	2 512 42 is_stmt 1              @ libraries/drivers/drv_spi.c:512:42
	bl	rt_malloc
	.loc	2 512 16 is_stmt 0              @ libraries/drivers/drv_spi.c:512:16
	str	r0, [sp, #32]
.Ltmp7:
	.loc	2 513 5 is_stmt 1               @ libraries/drivers/drv_spi.c:513:5
	ldr	r0, [sp, #32]
.Ltmp8:
	.loc	2 513 5 is_stmt 0               @ libraries/drivers/drv_spi.c:513:5
	cbnz	r0, .LBB0_6
	b	.LBB0_5
.LBB0_5:
.Ltmp9:
	.loc	2 513 5                         @ libraries/drivers/drv_spi.c:513:5
	movw	r0, :lower16:.L.str.2
	movt	r0, :upper16:.L.str.2
	movw	r1, :lower16:.L__FUNCTION__.rt_hw_spi_device_attach
	movt	r1, :upper16:.L__FUNCTION__.rt_hw_spi_device_attach
	movw	r2, #513
	bl	rt_assert_handler
	b	.LBB0_6
.Ltmp10:
.LBB0_6:
	.loc	2 0 5                           @ libraries/drivers/drv_spi.c:0:5
	movs	r0, #8
	.loc	2 514 40 is_stmt 1              @ libraries/drivers/drv_spi.c:514:40
	bl	rt_malloc
	.loc	2 514 12 is_stmt 0              @ libraries/drivers/drv_spi.c:514:12
	str	r0, [sp, #28]
.Ltmp11:
	.loc	2 515 5 is_stmt 1               @ libraries/drivers/drv_spi.c:515:5
	ldr	r0, [sp, #28]
.Ltmp12:
	.loc	2 515 5 is_stmt 0               @ libraries/drivers/drv_spi.c:515:5
	cbnz	r0, .LBB0_8
	b	.LBB0_7
.LBB0_7:
.Ltmp13:
	.loc	2 515 5                         @ libraries/drivers/drv_spi.c:515:5
	movw	r0, :lower16:.L.str.3
	movt	r0, :upper16:.L.str.3
	movw	r1, :lower16:.L__FUNCTION__.rt_hw_spi_device_attach
	movt	r1, :upper16:.L__FUNCTION__.rt_hw_spi_device_attach
	movw	r2, #515
	bl	rt_assert_handler
	b	.LBB0_8
.Ltmp14:
.LBB0_8:
	.loc	2 516 21 is_stmt 1              @ libraries/drivers/drv_spi.c:516:21
	ldr	r0, [sp, #44]
	.loc	2 516 5 is_stmt 0               @ libraries/drivers/drv_spi.c:516:5
	ldr	r1, [sp, #28]
	.loc	2 516 19                        @ libraries/drivers/drv_spi.c:516:19
	str	r0, [r1]
	.loc	2 517 24 is_stmt 1              @ libraries/drivers/drv_spi.c:517:24
	ldrh.w	r0, [sp, #42]
	.loc	2 517 5 is_stmt 0               @ libraries/drivers/drv_spi.c:517:5
	ldr	r1, [sp, #28]
	.loc	2 517 22                        @ libraries/drivers/drv_spi.c:517:22
	strh	r0, [r1, #4]
	.loc	2 518 39 is_stmt 1              @ libraries/drivers/drv_spi.c:518:39
	ldr	r0, [sp, #32]
	.loc	2 518 51 is_stmt 0              @ libraries/drivers/drv_spi.c:518:51
	ldr	r1, [sp, #48]
	.loc	2 518 64                        @ libraries/drivers/drv_spi.c:518:64
	ldr	r2, [sp, #52]
	.loc	2 518 82                        @ libraries/drivers/drv_spi.c:518:82
	ldr	r3, [sp, #28]
	.loc	2 518 14                        @ libraries/drivers/drv_spi.c:518:14
	bl	rt_spi_bus_attach_device
	.loc	2 518 12                        @ libraries/drivers/drv_spi.c:518:12
	str	r0, [sp, #36]
.Ltmp15:
	.loc	2 520 9 is_stmt 1               @ libraries/drivers/drv_spi.c:520:9
	ldr	r0, [sp, #36]
.Ltmp16:
	.loc	2 520 9 is_stmt 0               @ libraries/drivers/drv_spi.c:520:9
	cbz	r0, .LBB0_12
	b	.LBB0_9
.LBB0_9:
.Ltmp17:
	.loc	2 522 9 is_stmt 1               @ libraries/drivers/drv_spi.c:522:9
	b	.LBB0_10
.LBB0_10:
.Ltmp18:
	.loc	2 522 9 is_stmt 0               @ libraries/drivers/drv_spi.c:522:9
	movw	r0, :lower16:.L.str.4
	movt	r0, :upper16:.L.str.4
	bl	rt_kprintf
	ldr	r1, [sp, #48]
	ldr	r2, [sp, #52]
	ldr	r3, [sp, #36]
	movw	r0, :lower16:.L.str.5
	movt	r0, :upper16:.L.str.5
	bl	rt_kprintf
	movw	r0, :lower16:.L.str.6
	movt	r0, :upper16:.L.str.6
	bl	rt_kprintf
	b	.LBB0_11
.Ltmp19:
.LBB0_11:
	.loc	2 523 5 is_stmt 1               @ libraries/drivers/drv_spi.c:523:5
	b	.LBB0_12
.Ltmp20:
.LBB0_12:
	.loc	2 525 5                         @ libraries/drivers/drv_spi.c:525:5
	ldr	r0, [sp, #36]
.Ltmp21:
	.loc	2 525 5 is_stmt 0               @ libraries/drivers/drv_spi.c:525:5
	cbz	r0, .LBB0_14
	b	.LBB0_13
.LBB0_13:
.Ltmp22:
	.loc	2 525 5                         @ libraries/drivers/drv_spi.c:525:5
	movw	r0, :lower16:.L.str.7
	movt	r0, :upper16:.L.str.7
	movw	r1, :lower16:.L__FUNCTION__.rt_hw_spi_device_attach
	movt	r1, :upper16:.L__FUNCTION__.rt_hw_spi_device_attach
	movw	r2, #525
	bl	rt_assert_handler
	b	.LBB0_14
.Ltmp23:
.LBB0_14:
	.loc	2 529 12 is_stmt 1              @ libraries/drivers/drv_spi.c:529:12
	ldr	r0, [sp, #36]
	.loc	2 529 5 is_stmt 0               @ libraries/drivers/drv_spi.c:529:5
	add	sp, #56
	pop	{r7, pc}
.Ltmp24:
.Lfunc_end0:
	.size	rt_hw_spi_device_attach, .Lfunc_end0-rt_hw_spi_device_attach
	.cfi_endproc
	.cantunwind
	.fnend
                                        @ -- End function
	.section	.text.rt_hw_spi_init,"ax",%progbits
	.hidden	rt_hw_spi_init                  @ -- Begin function rt_hw_spi_init
	.globl	rt_hw_spi_init
	.p2align	3
	.type	rt_hw_spi_init,%function
	.code	16                              @ @rt_hw_spi_init
	.thumb_func
rt_hw_spi_init:
.Lfunc_begin1:
	.loc	2 907 0 is_stmt 1               @ libraries/drivers/drv_spi.c:907:0
	.fnstart
	.cfi_startproc
@ %bb.0:
	.save	{r7, lr}
	push	{r7, lr}
	.cfi_def_cfa_offset 8
	.cfi_offset lr, -4
	.cfi_offset r7, -8
.Ltmp25:
	.loc	2 908 5 prologue_end            @ libraries/drivers/drv_spi.c:908:5
	bl	stm32_get_dma_info
	.loc	2 909 12                        @ libraries/drivers/drv_spi.c:909:12
	bl	rt_hw_spi_bus_init
	.loc	2 909 5 is_stmt 0               @ libraries/drivers/drv_spi.c:909:5
	pop	{r7, pc}
.Ltmp26:
.Lfunc_end1:
	.size	rt_hw_spi_init, .Lfunc_end1-rt_hw_spi_init
	.cfi_endproc
	.cantunwind
	.fnend
                                        @ -- End function
	.section	.text.stm32_get_dma_info,"ax",%progbits
	.p2align	3                               @ -- Begin function stm32_get_dma_info
	.type	stm32_get_dma_info,%function
	.code	16                              @ @stm32_get_dma_info
	.thumb_func
stm32_get_dma_info:
.Lfunc_begin2:
	.loc	2 814 0 is_stmt 1               @ libraries/drivers/drv_spi.c:814:0
	.fnstart
	.cfi_startproc
@ %bb.0:
	.loc	2 880 1 prologue_end            @ libraries/drivers/drv_spi.c:880:1
	bx	lr
.Ltmp27:
.Lfunc_end2:
	.size	stm32_get_dma_info, .Lfunc_end2-stm32_get_dma_info
	.cfi_endproc
	.cantunwind
	.fnend
                                        @ -- End function
	.section	.text.rt_hw_spi_bus_init,"ax",%progbits
	.p2align	3                               @ -- Begin function rt_hw_spi_bus_init
	.type	rt_hw_spi_bus_init,%function
	.code	16                              @ @rt_hw_spi_bus_init
	.thumb_func
rt_hw_spi_bus_init:
.Lfunc_begin3:
	.loc	2 397 0                         @ libraries/drivers/drv_spi.c:397:0
	.fnstart
	.cfi_startproc
@ %bb.0:
	.save	{r7, lr}
	push	{r7, lr}
	.cfi_def_cfa_offset 8
	.cfi_offset lr, -4
	.cfi_offset r7, -8
	.pad	#24
	sub	sp, #24
	.cfi_def_cfa_offset 32
	movs	r0, #0
.Ltmp28:
	.loc	2 399 14 prologue_end           @ libraries/drivers/drv_spi.c:399:14
	str	r0, [sp, #16]
	.loc	2 399 10 is_stmt 0              @ libraries/drivers/drv_spi.c:399:10
	b	.LBB3_1
.LBB3_1:                                @ =>This Inner Loop Header: Depth=1
.Ltmp29:
	.loc	2 399 21                        @ libraries/drivers/drv_spi.c:399:21
	ldr	r0, [sp, #16]
.Ltmp30:
	.loc	2 399 5                         @ libraries/drivers/drv_spi.c:399:5
	cmp	r0, #0
	bne.w	.LBB3_10
	b	.LBB3_2
.LBB3_2:                                @   in Loop: Header=BB3_1 Depth=1
.Ltmp31:
	.loc	2 401 45 is_stmt 1              @ libraries/drivers/drv_spi.c:401:45
	ldr	r0, [sp, #16]
	.loc	2 401 34 is_stmt 0              @ libraries/drivers/drv_spi.c:401:34
	movw	r1, :lower16:spi_config
	movt	r1, :upper16:spi_config
	add.w	r2, r1, r0, lsl #4
	.loc	2 401 9                         @ libraries/drivers/drv_spi.c:401:9
	add.w	r3, r0, r0, lsl #7
	movw	r0, :lower16:spi_bus_obj
	movt	r0, :upper16:spi_bus_obj
	add.w	r3, r0, r3, lsl #2
	.loc	2 401 31                        @ libraries/drivers/drv_spi.c:401:31
	str.w	r2, [r3, #136]
	.loc	2 402 63 is_stmt 1              @ libraries/drivers/drv_spi.c:402:63
	ldr	r3, [sp, #16]
	.loc	2 402 52 is_stmt 0              @ libraries/drivers/drv_spi.c:402:52
	add.w	r2, r1, r3, lsl #4
	.loc	2 402 9                         @ libraries/drivers/drv_spi.c:402:9
	add.w	r3, r3, r3, lsl #7
	add.w	r3, r0, r3, lsl #2
	.loc	2 402 49                        @ libraries/drivers/drv_spi.c:402:49
	str.w	r2, [r3, #464]
	.loc	2 403 53 is_stmt 1              @ libraries/drivers/drv_spi.c:403:53
	ldr	r2, [sp, #16]
	.loc	2 403 42 is_stmt 0              @ libraries/drivers/drv_spi.c:403:42
	lsls	r3, r2, #4
	.loc	2 403 56                        @ libraries/drivers/drv_spi.c:403:56
	ldr	r1, [r1, r3]
	.loc	2 403 9                         @ libraries/drivers/drv_spi.c:403:9
	add.w	r2, r2, r2, lsl #7
	.loc	2 403 40                        @ libraries/drivers/drv_spi.c:403:40
	str.w	r1, [r0, r2, lsl #2]
.Ltmp32:
	.loc	2 405 25 is_stmt 1              @ libraries/drivers/drv_spi.c:405:25
	ldr	r1, [sp, #16]
	.loc	2 405 13 is_stmt 0              @ libraries/drivers/drv_spi.c:405:13
	add.w	r1, r1, r1, lsl #7
	add.w	r0, r0, r1, lsl #2
	ldrb.w	r0, [r0, #384]
.Ltmp33:
	.loc	2 405 13                        @ libraries/drivers/drv_spi.c:405:13
	lsls	r0, r0, #31
	cmp	r0, #0
	beq	.LBB3_4
	b	.LBB3_3
.LBB3_3:                                @   in Loop: Header=BB3_1 Depth=1
.Ltmp34:
	.loc	2 408 64 is_stmt 1              @ libraries/drivers/drv_spi.c:408:64
	ldr	r1, [sp, #16]
	.loc	2 408 53 is_stmt 0              @ libraries/drivers/drv_spi.c:408:53
	movw	r0, :lower16:spi_config
	movt	r0, :upper16:spi_config
	add.w	r0, r0, r1, lsl #4
	.loc	2 408 67                        @ libraries/drivers/drv_spi.c:408:67
	ldr	r0, [r0, #8]
	.loc	2 408 75                        @ libraries/drivers/drv_spi.c:408:75
	ldr	r0, [r0]
	.loc	2 408 13                        @ libraries/drivers/drv_spi.c:408:13
	add.w	r2, r1, r1, lsl #7
	movw	r1, :lower16:spi_bus_obj
	movt	r1, :upper16:spi_bus_obj
	str	r1, [sp, #4]                    @ 4-byte Spill
	add.w	r2, r1, r2, lsl #2
	.loc	2 408 51                        @ libraries/drivers/drv_spi.c:408:51
	str.w	r0, [r2, #144]
	.loc	2 414 25 is_stmt 1              @ libraries/drivers/drv_spi.c:414:25
	ldr	r0, [sp, #16]
	.loc	2 414 13 is_stmt 0              @ libraries/drivers/drv_spi.c:414:13
	add.w	r0, r0, r0, lsl #7
	add.w	r2, r1, r0, lsl #2
	movs	r0, #0
	.loc	2 414 67                        @ libraries/drivers/drv_spi.c:414:67
	str.w	r0, [r2, #152]
	.loc	2 415 25 is_stmt 1              @ libraries/drivers/drv_spi.c:415:25
	ldr	r2, [sp, #16]
	.loc	2 415 13 is_stmt 0              @ libraries/drivers/drv_spi.c:415:13
	add.w	r2, r2, r2, lsl #7
	add.w	r2, r1, r2, lsl #2
	.loc	2 415 67                        @ libraries/drivers/drv_spi.c:415:67
	str.w	r0, [r2, #156]
	.loc	2 416 25 is_stmt 1              @ libraries/drivers/drv_spi.c:416:25
	ldr	r2, [sp, #16]
	.loc	2 416 13 is_stmt 0              @ libraries/drivers/drv_spi.c:416:13
	add.w	r2, r2, r2, lsl #7
	add.w	r3, r1, r2, lsl #2
	mov.w	r2, #1024
	.loc	2 416 67                        @ libraries/drivers/drv_spi.c:416:67
	str.w	r2, [r3, #160]
	.loc	2 417 25 is_stmt 1              @ libraries/drivers/drv_spi.c:417:25
	ldr	r2, [sp, #16]
	.loc	2 417 13 is_stmt 0              @ libraries/drivers/drv_spi.c:417:13
	add.w	r2, r2, r2, lsl #7
	add.w	r2, r1, r2, lsl #2
	.loc	2 417 67                        @ libraries/drivers/drv_spi.c:417:67
	str.w	r0, [r2, #164]
	.loc	2 418 25 is_stmt 1              @ libraries/drivers/drv_spi.c:418:25
	ldr	r2, [sp, #16]
	.loc	2 418 13 is_stmt 0              @ libraries/drivers/drv_spi.c:418:13
	add.w	r2, r2, r2, lsl #7
	add.w	r2, r1, r2, lsl #2
	.loc	2 418 67                        @ libraries/drivers/drv_spi.c:418:67
	str.w	r0, [r2, #168]
	.loc	2 419 25 is_stmt 1              @ libraries/drivers/drv_spi.c:419:25
	ldr	r2, [sp, #16]
	.loc	2 419 13 is_stmt 0              @ libraries/drivers/drv_spi.c:419:13
	add.w	r2, r2, r2, lsl #7
	add.w	r2, r1, r2, lsl #2
	.loc	2 419 67                        @ libraries/drivers/drv_spi.c:419:67
	str.w	r0, [r2, #172]
	.loc	2 420 25 is_stmt 1              @ libraries/drivers/drv_spi.c:420:25
	ldr	r2, [sp, #16]
	.loc	2 420 13 is_stmt 0              @ libraries/drivers/drv_spi.c:420:13
	add.w	r2, r2, r2, lsl #7
	add.w	r2, r1, r2, lsl #2
	mov.w	r1, #131072
	.loc	2 420 67                        @ libraries/drivers/drv_spi.c:420:67
	str.w	r1, [r2, #176]
.Ltmp35:
	.loc	2 429 29 is_stmt 1              @ libraries/drivers/drv_spi.c:429:29
	str	r0, [sp, #12]
.Ltmp36:
	.loc	2 441 9                         @ libraries/drivers/drv_spi.c:441:9
	b	.LBB3_4
.Ltmp37:
.LBB3_4:                                @   in Loop: Header=BB3_1 Depth=1
	.loc	2 443 25                        @ libraries/drivers/drv_spi.c:443:25
	ldr	r0, [sp, #16]
	.loc	2 443 13 is_stmt 0              @ libraries/drivers/drv_spi.c:443:13
	add.w	r1, r0, r0, lsl #7
	movw	r0, :lower16:spi_bus_obj
	movt	r0, :upper16:spi_bus_obj
	add.w	r0, r0, r1, lsl #2
	ldrb.w	r0, [r0, #384]
.Ltmp38:
	.loc	2 443 13                        @ libraries/drivers/drv_spi.c:443:13
	lsls	r0, r0, #30
	cmp	r0, #0
	bpl	.LBB3_6
	b	.LBB3_5
.LBB3_5:                                @   in Loop: Header=BB3_1 Depth=1
.Ltmp39:
	.loc	2 446 64 is_stmt 1              @ libraries/drivers/drv_spi.c:446:64
	ldr	r1, [sp, #16]
	.loc	2 446 53 is_stmt 0              @ libraries/drivers/drv_spi.c:446:53
	movw	r0, :lower16:spi_config
	movt	r0, :upper16:spi_config
	add.w	r0, r0, r1, lsl #4
	.loc	2 446 67                        @ libraries/drivers/drv_spi.c:446:67
	ldr	r0, [r0, #12]
	.loc	2 446 75                        @ libraries/drivers/drv_spi.c:446:75
	ldr	r0, [r0]
	.loc	2 446 13                        @ libraries/drivers/drv_spi.c:446:13
	add.w	r2, r1, r1, lsl #7
	movw	r1, :lower16:spi_bus_obj
	movt	r1, :upper16:spi_bus_obj
	str	r1, [sp]                        @ 4-byte Spill
	add.w	r2, r1, r2, lsl #2
	.loc	2 446 51                        @ libraries/drivers/drv_spi.c:446:51
	str.w	r0, [r2, #264]
	.loc	2 452 25 is_stmt 1              @ libraries/drivers/drv_spi.c:452:25
	ldr	r0, [sp, #16]
	.loc	2 452 13 is_stmt 0              @ libraries/drivers/drv_spi.c:452:13
	add.w	r0, r0, r0, lsl #7
	add.w	r2, r1, r0, lsl #2
	movs	r0, #64
	.loc	2 452 67                        @ libraries/drivers/drv_spi.c:452:67
	str.w	r0, [r2, #272]
	.loc	2 453 25 is_stmt 1              @ libraries/drivers/drv_spi.c:453:25
	ldr	r0, [sp, #16]
	.loc	2 453 13 is_stmt 0              @ libraries/drivers/drv_spi.c:453:13
	add.w	r0, r0, r0, lsl #7
	add.w	r2, r1, r0, lsl #2
	movs	r0, #0
	.loc	2 453 67                        @ libraries/drivers/drv_spi.c:453:67
	str.w	r0, [r2, #276]
	.loc	2 454 25 is_stmt 1              @ libraries/drivers/drv_spi.c:454:25
	ldr	r2, [sp, #16]
	.loc	2 454 13 is_stmt 0              @ libraries/drivers/drv_spi.c:454:13
	add.w	r2, r2, r2, lsl #7
	add.w	r3, r1, r2, lsl #2
	mov.w	r2, #1024
	.loc	2 454 67                        @ libraries/drivers/drv_spi.c:454:67
	str.w	r2, [r3, #280]
	.loc	2 455 25 is_stmt 1              @ libraries/drivers/drv_spi.c:455:25
	ldr	r2, [sp, #16]
	.loc	2 455 13 is_stmt 0              @ libraries/drivers/drv_spi.c:455:13
	add.w	r2, r2, r2, lsl #7
	add.w	r2, r1, r2, lsl #2
	.loc	2 455 67                        @ libraries/drivers/drv_spi.c:455:67
	str.w	r0, [r2, #284]
	.loc	2 456 25 is_stmt 1              @ libraries/drivers/drv_spi.c:456:25
	ldr	r2, [sp, #16]
	.loc	2 456 13 is_stmt 0              @ libraries/drivers/drv_spi.c:456:13
	add.w	r2, r2, r2, lsl #7
	add.w	r2, r1, r2, lsl #2
	.loc	2 456 67                        @ libraries/drivers/drv_spi.c:456:67
	str.w	r0, [r2, #288]
	.loc	2 457 25 is_stmt 1              @ libraries/drivers/drv_spi.c:457:25
	ldr	r2, [sp, #16]
	.loc	2 457 13 is_stmt 0              @ libraries/drivers/drv_spi.c:457:13
	add.w	r2, r2, r2, lsl #7
	add.w	r2, r1, r2, lsl #2
	.loc	2 457 67                        @ libraries/drivers/drv_spi.c:457:67
	str.w	r0, [r2, #292]
	.loc	2 458 25 is_stmt 1              @ libraries/drivers/drv_spi.c:458:25
	ldr	r2, [sp, #16]
	.loc	2 458 13 is_stmt 0              @ libraries/drivers/drv_spi.c:458:13
	add.w	r2, r2, r2, lsl #7
	add.w	r1, r1, r2, lsl #2
	.loc	2 458 67                        @ libraries/drivers/drv_spi.c:458:67
	str.w	r0, [r1, #296]
.Ltmp40:
	.loc	2 467 29 is_stmt 1              @ libraries/drivers/drv_spi.c:467:29
	str	r0, [sp, #8]
.Ltmp41:
	.loc	2 479 9                         @ libraries/drivers/drv_spi.c:479:9
	b	.LBB3_6
.Ltmp42:
.LBB3_6:                                @   in Loop: Header=BB3_1 Depth=1
	.loc	2 481 51                        @ libraries/drivers/drv_spi.c:481:51
	ldr	r2, [sp, #16]
	.loc	2 481 39 is_stmt 0              @ libraries/drivers/drv_spi.c:481:39
	add.w	r1, r2, r2, lsl #7
	movw	r0, :lower16:spi_bus_obj
	movt	r0, :upper16:spi_bus_obj
	add.w	r0, r0, r1, lsl #2
	.loc	2 481 54                        @ libraries/drivers/drv_spi.c:481:54
	add.w	r0, r0, #388
	.loc	2 481 63                        @ libraries/drivers/drv_spi.c:481:63
	movw	r1, :lower16:spi_config
	movt	r1, :upper16:spi_config
	add.w	r1, r1, r2, lsl #4
	.loc	2 481 77                        @ libraries/drivers/drv_spi.c:481:77
	ldr	r1, [r1, #4]
	.loc	2 481 18                        @ libraries/drivers/drv_spi.c:481:18
	movw	r2, :lower16:stm_spi_ops
	movt	r2, :upper16:stm_spi_ops
	bl	rt_spi_bus_register
	.loc	2 481 16                        @ libraries/drivers/drv_spi.c:481:16
	str	r0, [sp, #20]
.Ltmp43:
	.loc	2 482 9 is_stmt 1               @ libraries/drivers/drv_spi.c:482:9
	ldr	r0, [sp, #20]
.Ltmp44:
	.loc	2 482 9 is_stmt 0               @ libraries/drivers/drv_spi.c:482:9
	cbz	r0, .LBB3_8
	b	.LBB3_7
.LBB3_7:                                @   in Loop: Header=BB3_1 Depth=1
.Ltmp45:
	.loc	2 482 9                         @ libraries/drivers/drv_spi.c:482:9
	movw	r0, :lower16:.L.str.7
	movt	r0, :upper16:.L.str.7
	movw	r1, :lower16:.L__FUNCTION__.rt_hw_spi_bus_init
	movt	r1, :upper16:.L__FUNCTION__.rt_hw_spi_bus_init
	mov.w	r2, #482
	bl	rt_assert_handler
	b	.LBB3_8
.Ltmp46:
.LBB3_8:                                @   in Loop: Header=BB3_1 Depth=1
	.loc	2 485 5 is_stmt 1               @ libraries/drivers/drv_spi.c:485:5
	b	.LBB3_9
.Ltmp47:
.LBB3_9:                                @   in Loop: Header=BB3_1 Depth=1
	.loc	2 399 70                        @ libraries/drivers/drv_spi.c:399:70
	ldr	r0, [sp, #16]
	adds	r0, #1
	str	r0, [sp, #16]
	.loc	2 399 5 is_stmt 0               @ libraries/drivers/drv_spi.c:399:5
	b	.LBB3_1
.Ltmp48:
.LBB3_10:
	.loc	2 487 12 is_stmt 1              @ libraries/drivers/drv_spi.c:487:12
	ldr	r0, [sp, #20]
	.loc	2 487 5 is_stmt 0               @ libraries/drivers/drv_spi.c:487:5
	add	sp, #24
	pop	{r7, pc}
.Ltmp49:
.Lfunc_end3:
	.size	rt_hw_spi_bus_init, .Lfunc_end3-rt_hw_spi_bus_init
	.cfi_endproc
	.cantunwind
	.fnend
                                        @ -- End function
	.section	.text.spi_configure,"ax",%progbits
	.p2align	3                               @ -- Begin function spi_configure
	.type	spi_configure,%function
	.code	16                              @ @spi_configure
	.thumb_func
spi_configure:
.Lfunc_begin4:
	.loc	2 380 0 is_stmt 1               @ libraries/drivers/drv_spi.c:380:0
	.fnstart
	.cfi_startproc
@ %bb.0:
	.save	{r7, lr}
	push	{r7, lr}
	.cfi_def_cfa_offset 8
	.cfi_offset lr, -4
	.cfi_offset r7, -8
	.pad	#16
	sub	sp, #16
	.cfi_def_cfa_offset 24
	str	r0, [sp, #12]
	str	r1, [sp, #8]
.Ltmp50:
	.loc	2 381 5 prologue_end            @ libraries/drivers/drv_spi.c:381:5
	ldr	r0, [sp, #12]
.Ltmp51:
	.loc	2 381 5 is_stmt 0               @ libraries/drivers/drv_spi.c:381:5
	cbnz	r0, .LBB4_2
	b	.LBB4_1
.LBB4_1:
.Ltmp52:
	.loc	2 381 5                         @ libraries/drivers/drv_spi.c:381:5
	movw	r0, :lower16:.L.str.9
	movt	r0, :upper16:.L.str.9
	movw	r1, :lower16:.L__FUNCTION__.spi_configure
	movt	r1, :upper16:.L__FUNCTION__.spi_configure
	movw	r2, #381
	bl	rt_assert_handler
	b	.LBB4_2
.Ltmp53:
.LBB4_2:
	.loc	2 382 5 is_stmt 1               @ libraries/drivers/drv_spi.c:382:5
	ldr	r0, [sp, #8]
.Ltmp54:
	.loc	2 382 5 is_stmt 0               @ libraries/drivers/drv_spi.c:382:5
	cbnz	r0, .LBB4_4
	b	.LBB4_3
.LBB4_3:
.Ltmp55:
	.loc	2 382 5                         @ libraries/drivers/drv_spi.c:382:5
	movw	r0, :lower16:.L.str.10
	movt	r0, :upper16:.L.str.10
	movw	r1, :lower16:.L__FUNCTION__.spi_configure
	movt	r1, :upper16:.L__FUNCTION__.spi_configure
	mov.w	r2, #382
	bl	rt_assert_handler
	b	.LBB4_4
.Ltmp56:
.LBB4_4:
	.loc	2 384 34 is_stmt 1              @ libraries/drivers/drv_spi.c:384:34
	ldr	r0, [sp, #12]
	ldr	r0, [r0, #80]
	sub.w	r0, r0, #388
	.loc	2 384 23 is_stmt 0              @ libraries/drivers/drv_spi.c:384:23
	str	r0, [sp, #4]
	.loc	2 385 20 is_stmt 1              @ libraries/drivers/drv_spi.c:385:20
	ldr	r0, [sp, #8]
	.loc	2 385 5 is_stmt 0               @ libraries/drivers/drv_spi.c:385:5
	ldr	r1, [sp, #4]
	.loc	2 385 18                        @ libraries/drivers/drv_spi.c:385:18
	str.w	r0, [r1, #140]
	.loc	2 387 27 is_stmt 1              @ libraries/drivers/drv_spi.c:387:27
	ldr	r0, [sp, #4]
	.loc	2 387 36 is_stmt 0              @ libraries/drivers/drv_spi.c:387:36
	ldr	r1, [sp, #8]
	.loc	2 387 12                        @ libraries/drivers/drv_spi.c:387:12
	bl	stm32_spi_init
	.loc	2 387 5                         @ libraries/drivers/drv_spi.c:387:5
	add	sp, #16
	pop	{r7, pc}
.Ltmp57:
.Lfunc_end4:
	.size	spi_configure, .Lfunc_end4-spi_configure
	.cfi_endproc
	.cantunwind
	.fnend
                                        @ -- End function
	.section	.text.spixfer,"ax",%progbits
	.p2align	3                               @ -- Begin function spixfer
	.type	spixfer,%function
	.code	16                              @ @spixfer
	.thumb_func
spixfer:
.Lfunc_begin5:
	.loc	2 268 0 is_stmt 1               @ libraries/drivers/drv_spi.c:268:0
	.fnstart
	.cfi_startproc
@ %bb.0:
	.save	{r7, lr}
	push	{r7, lr}
	.cfi_def_cfa_offset 8
	.cfi_offset lr, -4
	.cfi_offset r7, -8
	.pad	#48
	sub	sp, #48
	.cfi_def_cfa_offset 56
	str	r0, [sp, #44]
	str	r1, [sp, #40]
.Ltmp58:
	.loc	2 275 5 prologue_end            @ libraries/drivers/drv_spi.c:275:5
	ldr	r0, [sp, #44]
.Ltmp59:
	.loc	2 275 5 is_stmt 0               @ libraries/drivers/drv_spi.c:275:5
	cbnz	r0, .LBB5_2
	b	.LBB5_1
.LBB5_1:
.Ltmp60:
	.loc	2 275 5                         @ libraries/drivers/drv_spi.c:275:5
	movw	r0, :lower16:.L.str.9
	movt	r0, :upper16:.L.str.9
	movw	r1, :lower16:.L__FUNCTION__.spixfer
	movt	r1, :upper16:.L__FUNCTION__.spixfer
	movw	r2, #275
	bl	rt_assert_handler
	b	.LBB5_2
.Ltmp61:
.LBB5_2:
	.loc	2 276 5 is_stmt 1               @ libraries/drivers/drv_spi.c:276:5
	ldr	r0, [sp, #44]
	ldr	r0, [r0, #80]
.Ltmp62:
	.loc	2 276 5 is_stmt 0               @ libraries/drivers/drv_spi.c:276:5
	cbnz	r0, .LBB5_4
	b	.LBB5_3
.LBB5_3:
.Ltmp63:
	.loc	2 276 5                         @ libraries/drivers/drv_spi.c:276:5
	movw	r0, :lower16:.L.str.13
	movt	r0, :upper16:.L.str.13
	movw	r1, :lower16:.L__FUNCTION__.spixfer
	movt	r1, :upper16:.L__FUNCTION__.spixfer
	mov.w	r2, #276
	bl	rt_assert_handler
	b	.LBB5_4
.Ltmp64:
.LBB5_4:
	.loc	2 277 5 is_stmt 1               @ libraries/drivers/drv_spi.c:277:5
	ldr	r0, [sp, #44]
	ldr	r0, [r0, #80]
	ldr	r0, [r0, #76]
.Ltmp65:
	.loc	2 277 5 is_stmt 0               @ libraries/drivers/drv_spi.c:277:5
	cbnz	r0, .LBB5_6
	b	.LBB5_5
.LBB5_5:
.Ltmp66:
	.loc	2 277 5                         @ libraries/drivers/drv_spi.c:277:5
	movw	r0, :lower16:.L.str.14
	movt	r0, :upper16:.L.str.14
	movw	r1, :lower16:.L__FUNCTION__.spixfer
	movt	r1, :upper16:.L__FUNCTION__.spixfer
	movw	r2, #277
	bl	rt_assert_handler
	b	.LBB5_6
.Ltmp67:
.LBB5_6:
	.loc	2 278 5 is_stmt 1               @ libraries/drivers/drv_spi.c:278:5
	ldr	r0, [sp, #40]
.Ltmp68:
	.loc	2 278 5 is_stmt 0               @ libraries/drivers/drv_spi.c:278:5
	cbnz	r0, .LBB5_8
	b	.LBB5_7
.LBB5_7:
.Ltmp69:
	.loc	2 278 5                         @ libraries/drivers/drv_spi.c:278:5
	movw	r0, :lower16:.L.str.15
	movt	r0, :upper16:.L.str.15
	movw	r1, :lower16:.L__FUNCTION__.spixfer
	movt	r1, :upper16:.L__FUNCTION__.spixfer
	mov.w	r2, #278
	bl	rt_assert_handler
	b	.LBB5_8
.Ltmp70:
.LBB5_8:
	.loc	2 280 34 is_stmt 1              @ libraries/drivers/drv_spi.c:280:34
	ldr	r0, [sp, #44]
	ldr	r0, [r0, #80]
	sub.w	r0, r0, #388
	.loc	2 280 23 is_stmt 0              @ libraries/drivers/drv_spi.c:280:23
	str	r0, [sp, #12]
	.loc	2 281 38 is_stmt 1              @ libraries/drivers/drv_spi.c:281:38
	ldr	r0, [sp, #12]
	.loc	2 281 24 is_stmt 0              @ libraries/drivers/drv_spi.c:281:24
	str	r0, [sp, #8]
	.loc	2 282 34 is_stmt 1              @ libraries/drivers/drv_spi.c:282:34
	ldr	r0, [sp, #44]
	.loc	2 282 49 is_stmt 0              @ libraries/drivers/drv_spi.c:282:49
	ldr	r0, [r0, #76]
	.loc	2 282 29                        @ libraries/drivers/drv_spi.c:282:29
	str	r0, [sp, #4]
.Ltmp71:
	.loc	2 284 9 is_stmt 1               @ libraries/drivers/drv_spi.c:284:9
	ldr	r0, [sp, #40]
	.loc	2 284 18 is_stmt 0              @ libraries/drivers/drv_spi.c:284:18
	ldrb	r0, [r0, #16]
.Ltmp72:
	.loc	2 284 9                         @ libraries/drivers/drv_spi.c:284:9
	lsls	r0, r0, #31
	cbz	r0, .LBB5_10
	b	.LBB5_9
.LBB5_9:
.Ltmp73:
	.loc	2 286 27 is_stmt 1              @ libraries/drivers/drv_spi.c:286:27
	ldr	r1, [sp, #4]
	.loc	2 286 31 is_stmt 0              @ libraries/drivers/drv_spi.c:286:31
	ldr	r0, [r1]
	.loc	2 286 42                        @ libraries/drivers/drv_spi.c:286:42
	ldrh	r1, [r1, #4]
	movs	r2, #0
	.loc	2 286 9                         @ libraries/drivers/drv_spi.c:286:9
	bl	HAL_GPIO_WritePin
	.loc	2 287 5 is_stmt 1               @ libraries/drivers/drv_spi.c:287:5
	b	.LBB5_10
.Ltmp74:
.LBB5_10:
	.loc	2 295 22                        @ libraries/drivers/drv_spi.c:295:22
	ldr	r0, [sp, #40]
	.loc	2 295 31 is_stmt 0              @ libraries/drivers/drv_spi.c:295:31
	ldr	r0, [r0, #8]
	.loc	2 295 20                        @ libraries/drivers/drv_spi.c:295:20
	str	r0, [sp, #32]
	.loc	2 296 16 is_stmt 1              @ libraries/drivers/drv_spi.c:296:16
	ldr	r0, [sp, #40]
	.loc	2 296 25 is_stmt 0              @ libraries/drivers/drv_spi.c:296:25
	ldr	r0, [r0, #4]
	.loc	2 296 14                        @ libraries/drivers/drv_spi.c:296:14
	str	r0, [sp, #20]
	.loc	2 297 16 is_stmt 1              @ libraries/drivers/drv_spi.c:297:16
	ldr	r0, [sp, #40]
	.loc	2 297 25 is_stmt 0              @ libraries/drivers/drv_spi.c:297:25
	ldr	r0, [r0]
	.loc	2 297 14                        @ libraries/drivers/drv_spi.c:297:14
	str	r0, [sp, #16]
	.loc	2 298 5 is_stmt 1               @ libraries/drivers/drv_spi.c:298:5
	b	.LBB5_11
.LBB5_11:                               @ =>This Loop Header: Depth=1
                                        @     Child Loop BB5_38 Depth 2
	.loc	2 298 12 is_stmt 0              @ libraries/drivers/drv_spi.c:298:12
	ldr	r0, [sp, #32]
	.loc	2 298 5                         @ libraries/drivers/drv_spi.c:298:5
	cmp	r0, #0
	beq.w	.LBB5_41
	b	.LBB5_12
.LBB5_12:                               @   in Loop: Header=BB5_11 Depth=1
.Ltmp75:
	.loc	2 301 13 is_stmt 1              @ libraries/drivers/drv_spi.c:301:13
	ldr	r0, [sp, #32]
.Ltmp76:
	.loc	2 301 13 is_stmt 0              @ libraries/drivers/drv_spi.c:301:13
	cmp.w	r0, #65536
	blo	.LBB5_14
	b	.LBB5_13
.LBB5_13:                               @   in Loop: Header=BB5_11 Depth=1
	.loc	2 0 13                          @ libraries/drivers/drv_spi.c:0:13
	movw	r1, #65535
.Ltmp77:
	.loc	2 303 25 is_stmt 1              @ libraries/drivers/drv_spi.c:303:25
	strh.w	r1, [sp, #26]
	.loc	2 304 30                        @ libraries/drivers/drv_spi.c:304:30
	ldr	r0, [sp, #32]
	.loc	2 304 45 is_stmt 0              @ libraries/drivers/drv_spi.c:304:45
	subs	r0, r0, r1
	.loc	2 304 28                        @ libraries/drivers/drv_spi.c:304:28
	str	r0, [sp, #32]
	.loc	2 305 9 is_stmt 1               @ libraries/drivers/drv_spi.c:305:9
	b	.LBB5_15
.Ltmp78:
.LBB5_14:                               @   in Loop: Header=BB5_11 Depth=1
	.loc	2 308 27                        @ libraries/drivers/drv_spi.c:308:27
	ldr	r0, [sp, #32]
	.loc	2 308 25 is_stmt 0              @ libraries/drivers/drv_spi.c:308:25
	strh.w	r0, [sp, #26]
	movs	r0, #0
	.loc	2 309 28 is_stmt 1              @ libraries/drivers/drv_spi.c:309:28
	str	r0, [sp, #32]
	b	.LBB5_15
.Ltmp79:
.LBB5_15:                               @   in Loop: Header=BB5_11 Depth=1
	.loc	2 313 31                        @ libraries/drivers/drv_spi.c:313:31
	ldr	r0, [sp, #40]
	.loc	2 313 40 is_stmt 0              @ libraries/drivers/drv_spi.c:313:40
	ldr	r0, [r0, #8]
	.loc	2 313 49                        @ libraries/drivers/drv_spi.c:313:49
	ldrh.w	r1, [sp, #26]
	.loc	2 313 47                        @ libraries/drivers/drv_spi.c:313:47
	subs	r0, r0, r1
	.loc	2 313 63                        @ libraries/drivers/drv_spi.c:313:63
	ldr	r1, [sp, #32]
	.loc	2 313 61                        @ libraries/drivers/drv_spi.c:313:61
	subs	r0, r0, r1
	.loc	2 313 29                        @ libraries/drivers/drv_spi.c:313:29
	str	r0, [sp, #28]
	.loc	2 314 34 is_stmt 1              @ libraries/drivers/drv_spi.c:314:34
	ldr	r0, [sp, #40]
	.loc	2 314 43 is_stmt 0              @ libraries/drivers/drv_spi.c:314:43
	ldr	r0, [r0]
	.loc	2 314 54                        @ libraries/drivers/drv_spi.c:314:54
	ldr	r1, [sp, #28]
	.loc	2 314 52                        @ libraries/drivers/drv_spi.c:314:52
	add	r0, r1
	.loc	2 314 18                        @ libraries/drivers/drv_spi.c:314:18
	str	r0, [sp, #16]
	.loc	2 315 34 is_stmt 1              @ libraries/drivers/drv_spi.c:315:34
	ldr	r0, [sp, #40]
	.loc	2 315 43 is_stmt 0              @ libraries/drivers/drv_spi.c:315:43
	ldr	r0, [r0, #4]
	.loc	2 315 54                        @ libraries/drivers/drv_spi.c:315:54
	ldr	r1, [sp, #28]
	.loc	2 315 52                        @ libraries/drivers/drv_spi.c:315:52
	add	r0, r1
	.loc	2 315 18                        @ libraries/drivers/drv_spi.c:315:18
	str	r0, [sp, #20]
.Ltmp80:
	.loc	2 318 13 is_stmt 1              @ libraries/drivers/drv_spi.c:318:13
	ldr	r0, [sp, #40]
	.loc	2 318 22 is_stmt 0              @ libraries/drivers/drv_spi.c:318:22
	ldr	r0, [r0]
	.loc	2 318 31                        @ libraries/drivers/drv_spi.c:318:31
	cbz	r0, .LBB5_22
	b	.LBB5_16
.LBB5_16:                               @   in Loop: Header=BB5_11 Depth=1
	.loc	2 318 34                        @ libraries/drivers/drv_spi.c:318:34
	ldr	r0, [sp, #40]
	.loc	2 318 43                        @ libraries/drivers/drv_spi.c:318:43
	ldr	r0, [r0, #4]
.Ltmp81:
	.loc	2 318 13                        @ libraries/drivers/drv_spi.c:318:13
	cbz	r0, .LBB5_22
	b	.LBB5_17
.LBB5_17:                               @   in Loop: Header=BB5_11 Depth=1
.Ltmp82:
	.loc	2 320 18 is_stmt 1              @ libraries/drivers/drv_spi.c:320:18
	ldr	r0, [sp, #12]
	ldrb.w	r0, [r0, #384]
	.loc	2 320 65 is_stmt 0              @ libraries/drivers/drv_spi.c:320:65
	lsls	r0, r0, #30
	cmp	r0, #0
	bpl	.LBB5_20
	b	.LBB5_18
.LBB5_18:                               @   in Loop: Header=BB5_11 Depth=1
	.loc	2 320 69                        @ libraries/drivers/drv_spi.c:320:69
	ldr	r0, [sp, #12]
	ldrb.w	r0, [r0, #384]
.Ltmp83:
	.loc	2 320 17                        @ libraries/drivers/drv_spi.c:320:17
	lsls	r0, r0, #31
	cbz	r0, .LBB5_20
	b	.LBB5_19
.LBB5_19:                               @   in Loop: Header=BB5_11 Depth=1
.Ltmp84:
	.loc	2 322 53 is_stmt 1              @ libraries/drivers/drv_spi.c:322:53
	ldr	r0, [sp, #8]
	.loc	2 322 76 is_stmt 0              @ libraries/drivers/drv_spi.c:322:76
	ldr	r1, [sp, #16]
	.loc	2 322 97                        @ libraries/drivers/drv_spi.c:322:97
	ldr	r2, [sp, #20]
	.loc	2 322 107                       @ libraries/drivers/drv_spi.c:322:107
	ldrh.w	r3, [sp, #26]
	.loc	2 322 25                        @ libraries/drivers/drv_spi.c:322:25
	bl	HAL_SPI_TransmitReceive_DMA
	.loc	2 322 23                        @ libraries/drivers/drv_spi.c:322:23
	strb.w	r0, [sp, #39]
	.loc	2 323 13 is_stmt 1              @ libraries/drivers/drv_spi.c:323:13
	b	.LBB5_21
.Ltmp85:
.LBB5_20:                               @   in Loop: Header=BB5_11 Depth=1
	.loc	2 326 49                        @ libraries/drivers/drv_spi.c:326:49
	ldr	r0, [sp, #8]
	.loc	2 326 72 is_stmt 0              @ libraries/drivers/drv_spi.c:326:72
	ldr	r1, [sp, #16]
	.loc	2 326 93                        @ libraries/drivers/drv_spi.c:326:93
	ldr	r2, [sp, #20]
	.loc	2 326 103                       @ libraries/drivers/drv_spi.c:326:103
	ldrh.w	r3, [sp, #26]
	.loc	2 326 25                        @ libraries/drivers/drv_spi.c:326:25
	mov	lr, sp
	mov.w	r12, #1000
	str.w	r12, [lr]
	bl	HAL_SPI_TransmitReceive
	.loc	2 326 23                        @ libraries/drivers/drv_spi.c:326:23
	strb.w	r0, [sp, #39]
	b	.LBB5_21
.Ltmp86:
.LBB5_21:                               @   in Loop: Header=BB5_11 Depth=1
	.loc	2 328 9 is_stmt 1               @ libraries/drivers/drv_spi.c:328:9
	b	.LBB5_32
.Ltmp87:
.LBB5_22:                               @   in Loop: Header=BB5_11 Depth=1
	.loc	2 329 18                        @ libraries/drivers/drv_spi.c:329:18
	ldr	r0, [sp, #40]
	.loc	2 329 27 is_stmt 0              @ libraries/drivers/drv_spi.c:329:27
	ldr	r0, [r0]
.Ltmp88:
	.loc	2 329 18                        @ libraries/drivers/drv_spi.c:329:18
	cbz	r0, .LBB5_27
	b	.LBB5_23
.LBB5_23:                               @   in Loop: Header=BB5_11 Depth=1
.Ltmp89:
	.loc	2 331 17 is_stmt 1              @ libraries/drivers/drv_spi.c:331:17
	ldr	r0, [sp, #12]
	ldrb.w	r0, [r0, #384]
.Ltmp90:
	.loc	2 331 17 is_stmt 0              @ libraries/drivers/drv_spi.c:331:17
	lsls	r0, r0, #30
	cmp	r0, #0
	bpl	.LBB5_25
	b	.LBB5_24
.LBB5_24:                               @   in Loop: Header=BB5_11 Depth=1
.Ltmp91:
	.loc	2 333 46 is_stmt 1              @ libraries/drivers/drv_spi.c:333:46
	ldr	r0, [sp, #8]
	.loc	2 333 69 is_stmt 0              @ libraries/drivers/drv_spi.c:333:69
	ldr	r1, [sp, #16]
	.loc	2 333 79                        @ libraries/drivers/drv_spi.c:333:79
	ldrh.w	r2, [sp, #26]
	.loc	2 333 25                        @ libraries/drivers/drv_spi.c:333:25
	bl	HAL_SPI_Transmit_DMA
	.loc	2 333 23                        @ libraries/drivers/drv_spi.c:333:23
	strb.w	r0, [sp, #39]
	.loc	2 334 13 is_stmt 1              @ libraries/drivers/drv_spi.c:334:13
	b	.LBB5_26
.Ltmp92:
.LBB5_25:                               @   in Loop: Header=BB5_11 Depth=1
	.loc	2 337 42                        @ libraries/drivers/drv_spi.c:337:42
	ldr	r0, [sp, #8]
	.loc	2 337 65 is_stmt 0              @ libraries/drivers/drv_spi.c:337:65
	ldr	r1, [sp, #16]
	.loc	2 337 75                        @ libraries/drivers/drv_spi.c:337:75
	ldrh.w	r2, [sp, #26]
	mov.w	r3, #1000
	.loc	2 337 25                        @ libraries/drivers/drv_spi.c:337:25
	bl	HAL_SPI_Transmit
	.loc	2 337 23                        @ libraries/drivers/drv_spi.c:337:23
	strb.w	r0, [sp, #39]
	b	.LBB5_26
.Ltmp93:
.LBB5_26:                               @   in Loop: Header=BB5_11 Depth=1
	.loc	2 339 9 is_stmt 1               @ libraries/drivers/drv_spi.c:339:9
	b	.LBB5_31
.Ltmp94:
.LBB5_27:                               @   in Loop: Header=BB5_11 Depth=1
	.loc	2 342 31                        @ libraries/drivers/drv_spi.c:342:31
	ldr	r0, [sp, #20]
	.loc	2 342 47 is_stmt 0              @ libraries/drivers/drv_spi.c:342:47
	ldrh.w	r1, [sp, #26]
	movs	r2, #255
	.loc	2 342 13                        @ libraries/drivers/drv_spi.c:342:13
	bl	__aeabi_memset
.Ltmp95:
	.loc	2 343 17 is_stmt 1              @ libraries/drivers/drv_spi.c:343:17
	ldr	r0, [sp, #12]
	ldrb.w	r0, [r0, #384]
.Ltmp96:
	.loc	2 343 17 is_stmt 0              @ libraries/drivers/drv_spi.c:343:17
	lsls	r0, r0, #31
	cbz	r0, .LBB5_29
	b	.LBB5_28
.LBB5_28:                               @   in Loop: Header=BB5_11 Depth=1
.Ltmp97:
	.loc	2 345 45 is_stmt 1              @ libraries/drivers/drv_spi.c:345:45
	ldr	r0, [sp, #8]
	.loc	2 345 68 is_stmt 0              @ libraries/drivers/drv_spi.c:345:68
	ldr	r1, [sp, #20]
	.loc	2 345 78                        @ libraries/drivers/drv_spi.c:345:78
	ldrh.w	r2, [sp, #26]
	.loc	2 345 25                        @ libraries/drivers/drv_spi.c:345:25
	bl	HAL_SPI_Receive_DMA
	.loc	2 345 23                        @ libraries/drivers/drv_spi.c:345:23
	strb.w	r0, [sp, #39]
	.loc	2 346 13 is_stmt 1              @ libraries/drivers/drv_spi.c:346:13
	b	.LBB5_30
.Ltmp98:
.LBB5_29:                               @   in Loop: Header=BB5_11 Depth=1
	.loc	2 349 41                        @ libraries/drivers/drv_spi.c:349:41
	ldr	r0, [sp, #8]
	.loc	2 349 64 is_stmt 0              @ libraries/drivers/drv_spi.c:349:64
	ldr	r1, [sp, #20]
	.loc	2 349 74                        @ libraries/drivers/drv_spi.c:349:74
	ldrh.w	r2, [sp, #26]
	mov.w	r3, #1000
	.loc	2 349 25                        @ libraries/drivers/drv_spi.c:349:25
	bl	HAL_SPI_Receive
	.loc	2 349 23                        @ libraries/drivers/drv_spi.c:349:23
	strb.w	r0, [sp, #39]
	b	.LBB5_30
.Ltmp99:
.LBB5_30:                               @   in Loop: Header=BB5_11 Depth=1
	.loc	2 0 23                          @ libraries/drivers/drv_spi.c:0:23
	b	.LBB5_31
.LBB5_31:                               @   in Loop: Header=BB5_11 Depth=1
	b	.LBB5_32
.LBB5_32:                               @   in Loop: Header=BB5_11 Depth=1
.Ltmp100:
	.loc	2 353 13 is_stmt 1              @ libraries/drivers/drv_spi.c:353:13
	ldrb.w	r0, [sp, #39]
.Ltmp101:
	.loc	2 353 13 is_stmt 0              @ libraries/drivers/drv_spi.c:353:13
	cbz	r0, .LBB5_36
	b	.LBB5_33
.LBB5_33:                               @   in Loop: Header=BB5_11 Depth=1
.Ltmp102:
	.loc	2 355 13 is_stmt 1              @ libraries/drivers/drv_spi.c:355:13
	b	.LBB5_34
.LBB5_34:                               @   in Loop: Header=BB5_11 Depth=1
.Ltmp103:
	.loc	2 355 13 is_stmt 0              @ libraries/drivers/drv_spi.c:355:13
	movw	r0, :lower16:.L.str.16
	movt	r0, :upper16:.L.str.16
	bl	rt_kprintf
	ldrb.w	r1, [sp, #39]
	movw	r0, :lower16:.L.str.17
	movt	r0, :upper16:.L.str.17
	bl	rt_kprintf
	movw	r0, :lower16:.L.str.6
	movt	r0, :upper16:.L.str.6
	bl	rt_kprintf
	b	.LBB5_35
.Ltmp104:
.LBB5_35:                               @   in Loop: Header=BB5_11 Depth=1
	.loc	2 356 13 is_stmt 1              @ libraries/drivers/drv_spi.c:356:13
	ldr	r1, [sp, #40]
	movs	r0, #0
	.loc	2 356 29 is_stmt 0              @ libraries/drivers/drv_spi.c:356:29
	str	r0, [r1, #8]
	.loc	2 357 13 is_stmt 1              @ libraries/drivers/drv_spi.c:357:13
	ldr	r1, [sp, #8]
	movs	r0, #1
	.loc	2 357 31 is_stmt 0              @ libraries/drivers/drv_spi.c:357:31
	strb.w	r0, [r1, #129]
	.loc	2 358 9 is_stmt 1               @ libraries/drivers/drv_spi.c:358:9
	b	.LBB5_37
.Ltmp105:
.LBB5_36:                               @   in Loop: Header=BB5_11 Depth=1
	.loc	2 0 9 is_stmt 0                 @ libraries/drivers/drv_spi.c:0:9
	b	.LBB5_37
.LBB5_37:                               @   in Loop: Header=BB5_11 Depth=1
	.loc	2 367 9 is_stmt 1               @ libraries/drivers/drv_spi.c:367:9
	b	.LBB5_38
.LBB5_38:                               @   Parent Loop BB5_11 Depth=1
                                        @ =>  This Inner Loop Header: Depth=2
	.loc	2 367 33 is_stmt 0              @ libraries/drivers/drv_spi.c:367:33
	ldr	r0, [sp, #8]
	.loc	2 367 16                        @ libraries/drivers/drv_spi.c:367:16
	bl	HAL_SPI_GetState
	.loc	2 367 9                         @ libraries/drivers/drv_spi.c:367:9
	cmp	r0, #1
	beq	.LBB5_40
	b	.LBB5_39
.LBB5_39:                               @   in Loop: Header=BB5_38 Depth=2
	b	.LBB5_38
.Ltmp106:
.LBB5_40:                               @   in Loop: Header=BB5_11 Depth=1
	.loc	2 298 5 is_stmt 1               @ libraries/drivers/drv_spi.c:298:5
	b	.LBB5_11
.LBB5_41:
.Ltmp107:
	.loc	2 370 9                         @ libraries/drivers/drv_spi.c:370:9
	ldr	r0, [sp, #40]
	.loc	2 370 18 is_stmt 0              @ libraries/drivers/drv_spi.c:370:18
	ldrb	r0, [r0, #16]
	lsrs	r0, r0, #1
.Ltmp108:
	.loc	2 370 9                         @ libraries/drivers/drv_spi.c:370:9
	lsls	r0, r0, #31
	cbz	r0, .LBB5_43
	b	.LBB5_42
.LBB5_42:
.Ltmp109:
	.loc	2 372 27 is_stmt 1              @ libraries/drivers/drv_spi.c:372:27
	ldr	r1, [sp, #4]
	.loc	2 372 31 is_stmt 0              @ libraries/drivers/drv_spi.c:372:31
	ldr	r0, [r1]
	.loc	2 372 42                        @ libraries/drivers/drv_spi.c:372:42
	ldrh	r1, [r1, #4]
	movs	r2, #1
	.loc	2 372 9                         @ libraries/drivers/drv_spi.c:372:9
	bl	HAL_GPIO_WritePin
	.loc	2 373 5 is_stmt 1               @ libraries/drivers/drv_spi.c:373:5
	b	.LBB5_43
.Ltmp110:
.LBB5_43:
	.loc	2 375 12                        @ libraries/drivers/drv_spi.c:375:12
	ldr	r0, [sp, #40]
	.loc	2 375 21 is_stmt 0              @ libraries/drivers/drv_spi.c:375:21
	ldr	r0, [r0, #8]
	.loc	2 375 5                         @ libraries/drivers/drv_spi.c:375:5
	add	sp, #48
	pop	{r7, pc}
.Ltmp111:
.Lfunc_end5:
	.size	spixfer, .Lfunc_end5-spixfer
	.cfi_endproc
	.cantunwind
	.fnend
                                        @ -- End function
	.section	.text.stm32_spi_init,"ax",%progbits
	.p2align	3                               @ -- Begin function stm32_spi_init
	.type	stm32_spi_init,%function
	.code	16                              @ @stm32_spi_init
	.thumb_func
stm32_spi_init:
.Lfunc_begin6:
	.loc	2 82 0 is_stmt 1                @ libraries/drivers/drv_spi.c:82:0
	.fnstart
	.cfi_startproc
@ %bb.0:
	.save	{r7, lr}
	push	{r7, lr}
	.cfi_def_cfa_offset 8
	.cfi_offset lr, -4
	.cfi_offset r7, -8
	.pad	#24
	sub	sp, #24
	.cfi_def_cfa_offset 32
	str	r0, [sp, #16]
	str	r1, [sp, #12]
.Ltmp112:
	.loc	2 83 5 prologue_end             @ libraries/drivers/drv_spi.c:83:5
	ldr	r0, [sp, #16]
.Ltmp113:
	.loc	2 83 5 is_stmt 0                @ libraries/drivers/drv_spi.c:83:5
	cbnz	r0, .LBB6_2
	b	.LBB6_1
.LBB6_1:
.Ltmp114:
	.loc	2 83 5                          @ libraries/drivers/drv_spi.c:83:5
	movw	r0, :lower16:.L.str.11
	movt	r0, :upper16:.L.str.11
	movw	r1, :lower16:.L__FUNCTION__.stm32_spi_init
	movt	r1, :upper16:.L__FUNCTION__.stm32_spi_init
	movs	r2, #83
	bl	rt_assert_handler
	b	.LBB6_2
.Ltmp115:
.LBB6_2:
	.loc	2 84 5 is_stmt 1                @ libraries/drivers/drv_spi.c:84:5
	ldr	r0, [sp, #12]
.Ltmp116:
	.loc	2 84 5 is_stmt 0                @ libraries/drivers/drv_spi.c:84:5
	cbnz	r0, .LBB6_4
	b	.LBB6_3
.LBB6_3:
.Ltmp117:
	.loc	2 84 5                          @ libraries/drivers/drv_spi.c:84:5
	movw	r0, :lower16:.L.str.12
	movt	r0, :upper16:.L.str.12
	movw	r1, :lower16:.L__FUNCTION__.stm32_spi_init
	movt	r1, :upper16:.L__FUNCTION__.stm32_spi_init
	movs	r2, #84
	bl	rt_assert_handler
	b	.LBB6_4
.Ltmp118:
.LBB6_4:
	.loc	2 86 38 is_stmt 1               @ libraries/drivers/drv_spi.c:86:38
	ldr	r0, [sp, #16]
	.loc	2 86 24 is_stmt 0               @ libraries/drivers/drv_spi.c:86:24
	str	r0, [sp, #8]
.Ltmp119:
	.loc	2 88 9 is_stmt 1                @ libraries/drivers/drv_spi.c:88:9
	ldr	r0, [sp, #12]
	ldrb	r0, [r0]
.Ltmp120:
	.loc	2 88 9 is_stmt 0                @ libraries/drivers/drv_spi.c:88:9
	lsls	r0, r0, #28
	cmp	r0, #0
	bpl	.LBB6_6
	b	.LBB6_5
.LBB6_5:
.Ltmp121:
	.loc	2 90 9 is_stmt 1                @ libraries/drivers/drv_spi.c:90:9
	ldr	r1, [sp, #8]
	movs	r0, #0
	.loc	2 90 31 is_stmt 0               @ libraries/drivers/drv_spi.c:90:31
	str	r0, [r1, #4]
	.loc	2 91 5 is_stmt 1                @ libraries/drivers/drv_spi.c:91:5
	b	.LBB6_7
.Ltmp122:
.LBB6_6:
	.loc	2 94 9                          @ libraries/drivers/drv_spi.c:94:9
	ldr	r1, [sp, #8]
	mov.w	r0, #4194304
	.loc	2 94 31 is_stmt 0               @ libraries/drivers/drv_spi.c:94:31
	str	r0, [r1, #4]
	b	.LBB6_7
.Ltmp123:
.LBB6_7:
	.loc	2 97 9 is_stmt 1                @ libraries/drivers/drv_spi.c:97:9
	ldr	r0, [sp, #12]
	ldrb	r0, [r0]
.Ltmp124:
	.loc	2 97 9 is_stmt 0                @ libraries/drivers/drv_spi.c:97:9
	lsls	r0, r0, #25
	cmp	r0, #0
	bpl	.LBB6_9
	b	.LBB6_8
.LBB6_8:
.Ltmp125:
	.loc	2 99 9 is_stmt 1                @ libraries/drivers/drv_spi.c:99:9
	ldr	r1, [sp, #8]
	mov.w	r0, #393216
	.loc	2 99 36 is_stmt 0               @ libraries/drivers/drv_spi.c:99:36
	str	r0, [r1, #8]
	.loc	2 100 5 is_stmt 1               @ libraries/drivers/drv_spi.c:100:5
	b	.LBB6_10
.Ltmp126:
.LBB6_9:
	.loc	2 103 9                         @ libraries/drivers/drv_spi.c:103:9
	ldr	r1, [sp, #8]
	movs	r0, #0
	.loc	2 103 36 is_stmt 0              @ libraries/drivers/drv_spi.c:103:36
	str	r0, [r1, #8]
	b	.LBB6_10
.Ltmp127:
.LBB6_10:
	.loc	2 106 9 is_stmt 1               @ libraries/drivers/drv_spi.c:106:9
	ldr	r0, [sp, #12]
	.loc	2 106 14 is_stmt 0              @ libraries/drivers/drv_spi.c:106:14
	ldrb	r0, [r0, #1]
.Ltmp128:
	.loc	2 106 9                         @ libraries/drivers/drv_spi.c:106:9
	cmp	r0, #8
	bne	.LBB6_12
	b	.LBB6_11
.LBB6_11:
.Ltmp129:
	.loc	2 108 9 is_stmt 1               @ libraries/drivers/drv_spi.c:108:9
	ldr	r1, [sp, #8]
	movs	r0, #7
	.loc	2 108 35 is_stmt 0              @ libraries/drivers/drv_spi.c:108:35
	str	r0, [r1, #12]
	.loc	2 109 9 is_stmt 1               @ libraries/drivers/drv_spi.c:109:9
	ldr	r1, [sp, #8]
	movs	r0, #8
	.loc	2 109 32 is_stmt 0              @ libraries/drivers/drv_spi.c:109:32
	strh.w	r0, [r1, #96]
	.loc	2 110 9 is_stmt 1               @ libraries/drivers/drv_spi.c:110:9
	ldr	r1, [sp, #8]
	.loc	2 110 32 is_stmt 0              @ libraries/drivers/drv_spi.c:110:32
	strh.w	r0, [r1, #104]
	.loc	2 111 5 is_stmt 1               @ libraries/drivers/drv_spi.c:111:5
	b	.LBB6_16
.Ltmp130:
.LBB6_12:
	.loc	2 112 14                        @ libraries/drivers/drv_spi.c:112:14
	ldr	r0, [sp, #12]
	.loc	2 112 19 is_stmt 0              @ libraries/drivers/drv_spi.c:112:19
	ldrb	r0, [r0, #1]
.Ltmp131:
	.loc	2 112 14                        @ libraries/drivers/drv_spi.c:112:14
	cmp	r0, #16
	bne	.LBB6_14
	b	.LBB6_13
.LBB6_13:
.Ltmp132:
	.loc	2 114 9 is_stmt 1               @ libraries/drivers/drv_spi.c:114:9
	ldr	r1, [sp, #8]
	movs	r0, #15
	.loc	2 114 35 is_stmt 0              @ libraries/drivers/drv_spi.c:114:35
	str	r0, [r1, #12]
	.loc	2 115 5 is_stmt 1               @ libraries/drivers/drv_spi.c:115:5
	b	.LBB6_15
.Ltmp133:
.LBB6_14:
	.loc	2 0 5 is_stmt 0                 @ libraries/drivers/drv_spi.c:0:5
	movs	r0, #8
.Ltmp134:
	.loc	2 118 9 is_stmt 1               @ libraries/drivers/drv_spi.c:118:9
	str	r0, [sp, #20]
	b	.LBB6_60
.Ltmp135:
.LBB6_15:
	.loc	2 0 9 is_stmt 0                 @ libraries/drivers/drv_spi.c:0:9
	b	.LBB6_16
.LBB6_16:
.Ltmp136:
	.loc	2 121 9 is_stmt 1               @ libraries/drivers/drv_spi.c:121:9
	ldr	r0, [sp, #12]
	ldrb	r0, [r0]
.Ltmp137:
	.loc	2 121 9 is_stmt 0               @ libraries/drivers/drv_spi.c:121:9
	lsls	r0, r0, #31
	cbz	r0, .LBB6_18
	b	.LBB6_17
.LBB6_17:
.Ltmp138:
	.loc	2 123 9 is_stmt 1               @ libraries/drivers/drv_spi.c:123:9
	ldr	r1, [sp, #8]
	mov.w	r0, #16777216
	.loc	2 123 35 is_stmt 0              @ libraries/drivers/drv_spi.c:123:35
	str	r0, [r1, #20]
	.loc	2 124 5 is_stmt 1               @ libraries/drivers/drv_spi.c:124:5
	b	.LBB6_19
.Ltmp139:
.LBB6_18:
	.loc	2 127 9                         @ libraries/drivers/drv_spi.c:127:9
	ldr	r1, [sp, #8]
	movs	r0, #0
	.loc	2 127 35 is_stmt 0              @ libraries/drivers/drv_spi.c:127:35
	str	r0, [r1, #20]
	b	.LBB6_19
.Ltmp140:
.LBB6_19:
	.loc	2 130 9 is_stmt 1               @ libraries/drivers/drv_spi.c:130:9
	ldr	r0, [sp, #12]
	ldrb	r0, [r0]
.Ltmp141:
	.loc	2 130 9 is_stmt 0               @ libraries/drivers/drv_spi.c:130:9
	lsls	r0, r0, #30
	cmp	r0, #0
	bpl	.LBB6_21
	b	.LBB6_20
.LBB6_20:
.Ltmp142:
	.loc	2 132 9 is_stmt 1               @ libraries/drivers/drv_spi.c:132:9
	ldr	r1, [sp, #8]
	mov.w	r0, #33554432
	.loc	2 132 38 is_stmt 0              @ libraries/drivers/drv_spi.c:132:38
	str	r0, [r1, #16]
	.loc	2 133 5 is_stmt 1               @ libraries/drivers/drv_spi.c:133:5
	b	.LBB6_22
.Ltmp143:
.LBB6_21:
	.loc	2 136 9                         @ libraries/drivers/drv_spi.c:136:9
	ldr	r1, [sp, #8]
	movs	r0, #0
	.loc	2 136 38 is_stmt 0              @ libraries/drivers/drv_spi.c:136:38
	str	r0, [r1, #16]
	b	.LBB6_22
.Ltmp144:
.LBB6_22:
	.loc	2 139 9 is_stmt 1               @ libraries/drivers/drv_spi.c:139:9
	ldr	r0, [sp, #12]
	ldrb	r0, [r0]
.Ltmp145:
	.loc	2 139 9 is_stmt 0               @ libraries/drivers/drv_spi.c:139:9
	lsls	r0, r0, #26
	cmp	r0, #0
	bpl	.LBB6_24
	b	.LBB6_23
.LBB6_23:
.Ltmp146:
	.loc	2 141 9 is_stmt 1               @ libraries/drivers/drv_spi.c:141:9
	ldr	r1, [sp, #8]
	mov.w	r0, #67108864
	.loc	2 141 30 is_stmt 0              @ libraries/drivers/drv_spi.c:141:30
	str	r0, [r1, #24]
	.loc	2 142 5 is_stmt 1               @ libraries/drivers/drv_spi.c:142:5
	b	.LBB6_25
.Ltmp147:
.LBB6_24:
	.loc	2 145 9                         @ libraries/drivers/drv_spi.c:145:9
	ldr	r1, [sp, #8]
	mov.w	r0, #67108864
	.loc	2 145 30 is_stmt 0              @ libraries/drivers/drv_spi.c:145:30
	str	r0, [r1, #24]
	b	.LBB6_25
.Ltmp148:
.LBB6_25:
	.loc	2 153 21 is_stmt 1              @ libraries/drivers/drv_spi.c:153:21
	bl	HAL_RCC_GetSysClockFreq
	.loc	2 153 19 is_stmt 0              @ libraries/drivers/drv_spi.c:153:19
	str	r0, [sp, #4]
.Ltmp149:
	.loc	2 158 9 is_stmt 1               @ libraries/drivers/drv_spi.c:158:9
	ldr	r0, [sp, #12]
	.loc	2 158 14 is_stmt 0              @ libraries/drivers/drv_spi.c:158:14
	ldr	r0, [r0, #4]
	.loc	2 158 24                        @ libraries/drivers/drv_spi.c:158:24
	ldr	r1, [sp, #4]
.Ltmp150:
	.loc	2 158 9                         @ libraries/drivers/drv_spi.c:158:9
	cmp.w	r0, r1, lsr #1
	blo	.LBB6_27
	b	.LBB6_26
.LBB6_26:
.Ltmp151:
	.loc	2 160 9 is_stmt 1               @ libraries/drivers/drv_spi.c:160:9
	ldr	r1, [sp, #8]
	movs	r0, #0
	.loc	2 160 44 is_stmt 0              @ libraries/drivers/drv_spi.c:160:44
	str	r0, [r1, #28]
	.loc	2 161 5 is_stmt 1               @ libraries/drivers/drv_spi.c:161:5
	b	.LBB6_46
.Ltmp152:
.LBB6_27:
	.loc	2 162 14                        @ libraries/drivers/drv_spi.c:162:14
	ldr	r0, [sp, #12]
	.loc	2 162 19 is_stmt 0              @ libraries/drivers/drv_spi.c:162:19
	ldr	r0, [r0, #4]
	.loc	2 162 29                        @ libraries/drivers/drv_spi.c:162:29
	ldr	r1, [sp, #4]
.Ltmp153:
	.loc	2 162 14                        @ libraries/drivers/drv_spi.c:162:14
	cmp.w	r0, r1, lsr #2
	blo	.LBB6_29
	b	.LBB6_28
.LBB6_28:
.Ltmp154:
	.loc	2 164 9 is_stmt 1               @ libraries/drivers/drv_spi.c:164:9
	ldr	r1, [sp, #8]
	mov.w	r0, #268435456
	.loc	2 164 44 is_stmt 0              @ libraries/drivers/drv_spi.c:164:44
	str	r0, [r1, #28]
	.loc	2 165 5 is_stmt 1               @ libraries/drivers/drv_spi.c:165:5
	b	.LBB6_45
.Ltmp155:
.LBB6_29:
	.loc	2 166 14                        @ libraries/drivers/drv_spi.c:166:14
	ldr	r0, [sp, #12]
	.loc	2 166 19 is_stmt 0              @ libraries/drivers/drv_spi.c:166:19
	ldr	r0, [r0, #4]
	.loc	2 166 29                        @ libraries/drivers/drv_spi.c:166:29
	ldr	r1, [sp, #4]
.Ltmp156:
	.loc	2 166 14                        @ libraries/drivers/drv_spi.c:166:14
	cmp.w	r0, r1, lsr #3
	blo	.LBB6_31
	b	.LBB6_30
.LBB6_30:
.Ltmp157:
	.loc	2 168 9 is_stmt 1               @ libraries/drivers/drv_spi.c:168:9
	ldr	r1, [sp, #8]
	mov.w	r0, #536870912
	.loc	2 168 44 is_stmt 0              @ libraries/drivers/drv_spi.c:168:44
	str	r0, [r1, #28]
	.loc	2 169 5 is_stmt 1               @ libraries/drivers/drv_spi.c:169:5
	b	.LBB6_44
.Ltmp158:
.LBB6_31:
	.loc	2 170 14                        @ libraries/drivers/drv_spi.c:170:14
	ldr	r0, [sp, #12]
	.loc	2 170 19 is_stmt 0              @ libraries/drivers/drv_spi.c:170:19
	ldr	r0, [r0, #4]
	.loc	2 170 29                        @ libraries/drivers/drv_spi.c:170:29
	ldr	r1, [sp, #4]
.Ltmp159:
	.loc	2 170 14                        @ libraries/drivers/drv_spi.c:170:14
	cmp.w	r0, r1, lsr #4
	blo	.LBB6_33
	b	.LBB6_32
.LBB6_32:
.Ltmp160:
	.loc	2 172 9 is_stmt 1               @ libraries/drivers/drv_spi.c:172:9
	ldr	r1, [sp, #8]
	mov.w	r0, #805306368
	.loc	2 172 44 is_stmt 0              @ libraries/drivers/drv_spi.c:172:44
	str	r0, [r1, #28]
	.loc	2 173 5 is_stmt 1               @ libraries/drivers/drv_spi.c:173:5
	b	.LBB6_43
.Ltmp161:
.LBB6_33:
	.loc	2 174 14                        @ libraries/drivers/drv_spi.c:174:14
	ldr	r0, [sp, #12]
	.loc	2 174 19 is_stmt 0              @ libraries/drivers/drv_spi.c:174:19
	ldr	r0, [r0, #4]
	.loc	2 174 29                        @ libraries/drivers/drv_spi.c:174:29
	ldr	r1, [sp, #4]
.Ltmp162:
	.loc	2 174 14                        @ libraries/drivers/drv_spi.c:174:14
	cmp.w	r0, r1, lsr #5
	blo	.LBB6_35
	b	.LBB6_34
.LBB6_34:
.Ltmp163:
	.loc	2 176 9 is_stmt 1               @ libraries/drivers/drv_spi.c:176:9
	ldr	r1, [sp, #8]
	mov.w	r0, #1073741824
	.loc	2 176 44 is_stmt 0              @ libraries/drivers/drv_spi.c:176:44
	str	r0, [r1, #28]
	.loc	2 177 5 is_stmt 1               @ libraries/drivers/drv_spi.c:177:5
	b	.LBB6_42
.Ltmp164:
.LBB6_35:
	.loc	2 178 14                        @ libraries/drivers/drv_spi.c:178:14
	ldr	r0, [sp, #12]
	.loc	2 178 19 is_stmt 0              @ libraries/drivers/drv_spi.c:178:19
	ldr	r0, [r0, #4]
	.loc	2 178 29                        @ libraries/drivers/drv_spi.c:178:29
	ldr	r1, [sp, #4]
.Ltmp165:
	.loc	2 178 14                        @ libraries/drivers/drv_spi.c:178:14
	cmp.w	r0, r1, lsr #6
	blo	.LBB6_37
	b	.LBB6_36
.LBB6_36:
.Ltmp166:
	.loc	2 180 9 is_stmt 1               @ libraries/drivers/drv_spi.c:180:9
	ldr	r1, [sp, #8]
	mov.w	r0, #1342177280
	.loc	2 180 44 is_stmt 0              @ libraries/drivers/drv_spi.c:180:44
	str	r0, [r1, #28]
	.loc	2 181 5 is_stmt 1               @ libraries/drivers/drv_spi.c:181:5
	b	.LBB6_41
.Ltmp167:
.LBB6_37:
	.loc	2 182 14                        @ libraries/drivers/drv_spi.c:182:14
	ldr	r0, [sp, #12]
	.loc	2 182 19 is_stmt 0              @ libraries/drivers/drv_spi.c:182:19
	ldr	r0, [r0, #4]
	.loc	2 182 29                        @ libraries/drivers/drv_spi.c:182:29
	ldr	r1, [sp, #4]
.Ltmp168:
	.loc	2 182 14                        @ libraries/drivers/drv_spi.c:182:14
	cmp.w	r0, r1, lsr #7
	blo	.LBB6_39
	b	.LBB6_38
.LBB6_38:
.Ltmp169:
	.loc	2 184 9 is_stmt 1               @ libraries/drivers/drv_spi.c:184:9
	ldr	r1, [sp, #8]
	mov.w	r0, #1610612736
	.loc	2 184 44 is_stmt 0              @ libraries/drivers/drv_spi.c:184:44
	str	r0, [r1, #28]
	.loc	2 185 5 is_stmt 1               @ libraries/drivers/drv_spi.c:185:5
	b	.LBB6_40
.Ltmp170:
.LBB6_39:
	.loc	2 189 9                         @ libraries/drivers/drv_spi.c:189:9
	ldr	r1, [sp, #8]
	mov.w	r0, #1879048192
	.loc	2 189 44 is_stmt 0              @ libraries/drivers/drv_spi.c:189:44
	str	r0, [r1, #28]
	b	.LBB6_40
.Ltmp171:
.LBB6_40:
	.loc	2 0 44                          @ libraries/drivers/drv_spi.c:0:44
	b	.LBB6_41
.LBB6_41:
	b	.LBB6_42
.LBB6_42:
	b	.LBB6_43
.LBB6_43:
	b	.LBB6_44
.LBB6_44:
	b	.LBB6_45
.LBB6_45:
	b	.LBB6_46
.LBB6_46:
.Ltmp172:
	.loc	2 198 9 is_stmt 1               @ libraries/drivers/drv_spi.c:198:9
	ldr	r0, [sp, #12]
	ldrb	r0, [r0]
.Ltmp173:
	.loc	2 198 9 is_stmt 0               @ libraries/drivers/drv_spi.c:198:9
	lsls	r0, r0, #29
	cmp	r0, #0
	bpl	.LBB6_48
	b	.LBB6_47
.LBB6_47:
.Ltmp174:
	.loc	2 200 9 is_stmt 1               @ libraries/drivers/drv_spi.c:200:9
	ldr	r1, [sp, #8]
	movs	r0, #0
	.loc	2 200 35 is_stmt 0              @ libraries/drivers/drv_spi.c:200:35
	str	r0, [r1, #32]
	.loc	2 201 5 is_stmt 1               @ libraries/drivers/drv_spi.c:201:5
	b	.LBB6_49
.Ltmp175:
.LBB6_48:
	.loc	2 204 9                         @ libraries/drivers/drv_spi.c:204:9
	ldr	r1, [sp, #8]
	mov.w	r0, #8388608
	.loc	2 204 35 is_stmt 0              @ libraries/drivers/drv_spi.c:204:35
	str	r0, [r1, #32]
	b	.LBB6_49
.Ltmp176:
.LBB6_49:
	.loc	2 207 5 is_stmt 1               @ libraries/drivers/drv_spi.c:207:5
	ldr	r1, [sp, #8]
	movs	r0, #0
	.loc	2 207 29 is_stmt 0              @ libraries/drivers/drv_spi.c:207:29
	str	r0, [sp]                        @ 4-byte Spill
	str	r0, [r1, #36]
	.loc	2 208 5 is_stmt 1               @ libraries/drivers/drv_spi.c:208:5
	ldr	r1, [sp, #8]
	.loc	2 208 37 is_stmt 0              @ libraries/drivers/drv_spi.c:208:37
	str	r0, [r1, #40]
	.loc	2 209 5 is_stmt 1               @ libraries/drivers/drv_spi.c:209:5
	ldr	r1, [sp, #8]
	.loc	2 209 23 is_stmt 0              @ libraries/drivers/drv_spi.c:209:23
	strb.w	r0, [r1, #129]
	.loc	2 213 5 is_stmt 1               @ libraries/drivers/drv_spi.c:213:5
	ldr	r2, [sp, #8]
	mov.w	r1, #4194304
	.loc	2 213 49 is_stmt 0              @ libraries/drivers/drv_spi.c:213:49
	str	r1, [r2, #4]
	.loc	2 214 5 is_stmt 1               @ libraries/drivers/drv_spi.c:214:5
	ldr	r2, [sp, #8]
	mov.w	r1, #67108864
	.loc	2 214 49 is_stmt 0              @ libraries/drivers/drv_spi.c:214:49
	str	r1, [r2, #24]
	.loc	2 215 5 is_stmt 1               @ libraries/drivers/drv_spi.c:215:5
	ldr	r1, [sp, #8]
	.loc	2 215 49 is_stmt 0              @ libraries/drivers/drv_spi.c:215:49
	str	r0, [r1, #52]
	.loc	2 216 5 is_stmt 1               @ libraries/drivers/drv_spi.c:216:5
	ldr	r1, [sp, #8]
	.loc	2 216 49 is_stmt 0              @ libraries/drivers/drv_spi.c:216:49
	str	r0, [r1, #56]
	.loc	2 217 5 is_stmt 1               @ libraries/drivers/drv_spi.c:217:5
	ldr	r2, [sp, #8]
	movs	r1, #7
	.loc	2 217 49 is_stmt 0              @ libraries/drivers/drv_spi.c:217:49
	str	r1, [r2, #44]
	.loc	2 218 5 is_stmt 1               @ libraries/drivers/drv_spi.c:218:5
	ldr	r1, [sp, #8]
	.loc	2 218 49 is_stmt 0              @ libraries/drivers/drv_spi.c:218:49
	str	r0, [r1, #64]
	.loc	2 219 5 is_stmt 1               @ libraries/drivers/drv_spi.c:219:5
	ldr	r1, [sp, #8]
	.loc	2 219 49 is_stmt 0              @ libraries/drivers/drv_spi.c:219:49
	str	r0, [r1, #68]
	.loc	2 220 5 is_stmt 1               @ libraries/drivers/drv_spi.c:220:5
	ldr	r1, [sp, #8]
	.loc	2 220 49 is_stmt 0              @ libraries/drivers/drv_spi.c:220:49
	str	r0, [r1, #72]
	.loc	2 221 5 is_stmt 1               @ libraries/drivers/drv_spi.c:221:5
	ldr	r1, [sp, #8]
	.loc	2 221 49 is_stmt 0              @ libraries/drivers/drv_spi.c:221:49
	str	r0, [r1, #76]
	.loc	2 222 5 is_stmt 1               @ libraries/drivers/drv_spi.c:222:5
	ldr	r1, [sp, #8]
	.loc	2 222 49 is_stmt 0              @ libraries/drivers/drv_spi.c:222:49
	str	r0, [r1, #80]
	.loc	2 223 5 is_stmt 1               @ libraries/drivers/drv_spi.c:223:5
	ldr	r2, [sp, #8]
	mov.w	r1, #-2147483648
	.loc	2 223 49 is_stmt 0              @ libraries/drivers/drv_spi.c:223:49
	str	r1, [r2, #84]
	.loc	2 224 5 is_stmt 1               @ libraries/drivers/drv_spi.c:224:5
	ldr	r1, [sp, #8]
	.loc	2 224 49 is_stmt 0              @ libraries/drivers/drv_spi.c:224:49
	str	r0, [r1, #88]
	.loc	2 225 5 is_stmt 1               @ libraries/drivers/drv_spi.c:225:5
	ldr	r1, [sp, #8]
	.loc	2 225 49 is_stmt 0              @ libraries/drivers/drv_spi.c:225:49
	str	r0, [r1, #60]
.Ltmp177:
	.loc	2 228 22 is_stmt 1              @ libraries/drivers/drv_spi.c:228:22
	ldr	r0, [sp, #8]
	.loc	2 228 9 is_stmt 0               @ libraries/drivers/drv_spi.c:228:9
	bl	HAL_SPI_Init
.Ltmp178:
	.loc	2 228 9                         @ libraries/drivers/drv_spi.c:228:9
	cbz	r0, .LBB6_51
	b	.LBB6_50
.LBB6_50:
	.loc	2 0 9                           @ libraries/drivers/drv_spi.c:0:9
	movs	r0, #8
.Ltmp179:
	.loc	2 230 9 is_stmt 1               @ libraries/drivers/drv_spi.c:230:9
	str	r0, [sp, #20]
	b	.LBB6_60
.Ltmp180:
.LBB6_51:
	.loc	2 239 9                         @ libraries/drivers/drv_spi.c:239:9
	ldr	r0, [sp, #16]
	ldrb.w	r0, [r0, #384]
.Ltmp181:
	.loc	2 239 9 is_stmt 0               @ libraries/drivers/drv_spi.c:239:9
	lsls	r0, r0, #31
	cbz	r0, .LBB6_55
	b	.LBB6_52
.LBB6_52:
.Ltmp182:
	.loc	2 241 23 is_stmt 1              @ libraries/drivers/drv_spi.c:241:23
	ldr	r0, [sp, #16]
	.loc	2 241 32 is_stmt 0              @ libraries/drivers/drv_spi.c:241:32
	adds	r0, #144
	.loc	2 241 9                         @ libraries/drivers/drv_spi.c:241:9
	bl	HAL_DMA_Init
	.loc	2 243 9 is_stmt 1               @ libraries/drivers/drv_spi.c:243:9
	b	.LBB6_53
.LBB6_53:
.Ltmp183:
	.loc	2 243 9 is_stmt 0               @ libraries/drivers/drv_spi.c:243:9
	ldr	r1, [sp, #16]
	add.w	r0, r1, #144
	str	r0, [r1, #124]
	ldr	r0, [sp, #16]
	str.w	r0, [r0, #200]
	b	.LBB6_54
.Ltmp184:
.LBB6_54:
	.loc	2 246 30 is_stmt 1              @ libraries/drivers/drv_spi.c:246:30
	ldr	r0, [sp, #16]
	.loc	2 246 39 is_stmt 0              @ libraries/drivers/drv_spi.c:246:39
	ldr.w	r0, [r0, #136]
	.loc	2 246 47                        @ libraries/drivers/drv_spi.c:246:47
	ldr	r0, [r0, #8]
	.loc	2 246 55                        @ libraries/drivers/drv_spi.c:246:55
	ldrsh.w	r0, [r0, #8]
	movs	r2, #0
	.loc	2 246 9                         @ libraries/drivers/drv_spi.c:246:9
	mov	r1, r2
	bl	HAL_NVIC_SetPriority
	.loc	2 247 28 is_stmt 1              @ libraries/drivers/drv_spi.c:247:28
	ldr	r0, [sp, #16]
	.loc	2 247 37 is_stmt 0              @ libraries/drivers/drv_spi.c:247:37
	ldr.w	r0, [r0, #136]
	.loc	2 247 45                        @ libraries/drivers/drv_spi.c:247:45
	ldr	r0, [r0, #8]
	.loc	2 247 53                        @ libraries/drivers/drv_spi.c:247:53
	ldrsh.w	r0, [r0, #8]
	.loc	2 247 9                         @ libraries/drivers/drv_spi.c:247:9
	bl	HAL_NVIC_EnableIRQ
	.loc	2 248 5 is_stmt 1               @ libraries/drivers/drv_spi.c:248:5
	b	.LBB6_55
.Ltmp185:
.LBB6_55:
	.loc	2 250 9                         @ libraries/drivers/drv_spi.c:250:9
	ldr	r0, [sp, #16]
	ldrb.w	r0, [r0, #384]
.Ltmp186:
	.loc	2 250 9 is_stmt 0               @ libraries/drivers/drv_spi.c:250:9
	lsls	r0, r0, #30
	cmp	r0, #0
	bpl	.LBB6_59
	b	.LBB6_56
.LBB6_56:
.Ltmp187:
	.loc	2 252 23 is_stmt 1              @ libraries/drivers/drv_spi.c:252:23
	ldr	r0, [sp, #16]
	.loc	2 252 36 is_stmt 0              @ libraries/drivers/drv_spi.c:252:36
	add.w	r0, r0, #264
	.loc	2 252 9                         @ libraries/drivers/drv_spi.c:252:9
	bl	HAL_DMA_Init
	.loc	2 254 9 is_stmt 1               @ libraries/drivers/drv_spi.c:254:9
	b	.LBB6_57
.LBB6_57:
.Ltmp188:
	.loc	2 254 9 is_stmt 0               @ libraries/drivers/drv_spi.c:254:9
	ldr	r1, [sp, #16]
	add.w	r0, r1, #264
	str	r0, [r1, #120]
	ldr	r0, [sp, #16]
	str.w	r0, [r0, #320]
	b	.LBB6_58
.Ltmp189:
.LBB6_58:
	.loc	2 257 30 is_stmt 1              @ libraries/drivers/drv_spi.c:257:30
	ldr	r0, [sp, #16]
	.loc	2 257 39 is_stmt 0              @ libraries/drivers/drv_spi.c:257:39
	ldr.w	r0, [r0, #136]
	.loc	2 257 47                        @ libraries/drivers/drv_spi.c:257:47
	ldr	r0, [r0, #12]
	.loc	2 257 55                        @ libraries/drivers/drv_spi.c:257:55
	ldrsh.w	r0, [r0, #8]
	movs	r1, #0
	movs	r2, #1
	.loc	2 257 9                         @ libraries/drivers/drv_spi.c:257:9
	bl	HAL_NVIC_SetPriority
	.loc	2 258 28 is_stmt 1              @ libraries/drivers/drv_spi.c:258:28
	ldr	r0, [sp, #16]
	.loc	2 258 37 is_stmt 0              @ libraries/drivers/drv_spi.c:258:37
	ldr.w	r0, [r0, #136]
	.loc	2 258 45                        @ libraries/drivers/drv_spi.c:258:45
	ldr	r0, [r0, #12]
	.loc	2 258 53                        @ libraries/drivers/drv_spi.c:258:53
	ldrsh.w	r0, [r0, #8]
	.loc	2 258 9                         @ libraries/drivers/drv_spi.c:258:9
	bl	HAL_NVIC_EnableIRQ
	.loc	2 259 5 is_stmt 1               @ libraries/drivers/drv_spi.c:259:5
	b	.LBB6_59
.Ltmp190:
.LBB6_59:
	.loc	2 261 5                         @ libraries/drivers/drv_spi.c:261:5
	ldr	r0, [sp, #8]
	ldr	r1, [r0]
	ldr	r0, [r1]
	orr	r0, r0, #1
	str	r0, [r1]
	movs	r0, #0
	.loc	2 264 5                         @ libraries/drivers/drv_spi.c:264:5
	str	r0, [sp, #20]
	b	.LBB6_60
.LBB6_60:
	.loc	2 265 1                         @ libraries/drivers/drv_spi.c:265:1
	ldr	r0, [sp, #20]
	add	sp, #24
	pop	{r7, pc}
.Ltmp191:
.Lfunc_end6:
	.size	stm32_spi_init, .Lfunc_end6-stm32_spi_init
	.cfi_endproc
	.cantunwind
	.fnend
                                        @ -- End function
	.type	.L.str,%object                  @ @.str
	.section	.rodata.str1.1,"aMS",%progbits,1
.L.str:
	.asciz	"bus_name != RT_NULL"
	.size	.L.str, 20

	.type	.L__FUNCTION__.rt_hw_spi_device_attach,%object @ @__FUNCTION__.rt_hw_spi_device_attach
.L__FUNCTION__.rt_hw_spi_device_attach:
	.asciz	"rt_hw_spi_device_attach"
	.size	.L__FUNCTION__.rt_hw_spi_device_attach, 24

	.type	.L.str.1,%object                @ @.str.1
.L.str.1:
	.asciz	"device_name != RT_NULL"
	.size	.L.str.1, 23

	.type	.L.str.2,%object                @ @.str.2
.L.str.2:
	.asciz	"spi_device != RT_NULL"
	.size	.L.str.2, 22

	.type	.L.str.3,%object                @ @.str.3
.L.str.3:
	.asciz	"cs_pin != RT_NULL"
	.size	.L.str.3, 18

	.type	.L.str.4,%object                @ @.str.4
.L.str.4:
	.asciz	"[E/drv.spi] "
	.size	.L.str.4, 13

	.type	.L.str.5,%object                @ @.str.5
.L.str.5:
	.asciz	"%s attach to %s faild, %d\n"
	.size	.L.str.5, 27

	.type	.L.str.6,%object                @ @.str.6
.L.str.6:
	.asciz	"\n"
	.size	.L.str.6, 2

	.type	.L.str.7,%object                @ @.str.7
.L.str.7:
	.asciz	"result == RT_EOK"
	.size	.L.str.7, 17

	.hidden	__rt_init_rt_hw_spi_init        @ @__rt_init_rt_hw_spi_init
	.type	__rt_init_rt_hw_spi_init,%object
	.section	.rti_fn.1,"a",%progbits
	.globl	__rt_init_rt_hw_spi_init
	.p2align	2
__rt_init_rt_hw_spi_init:
__tagsym$$used.0:
	.long	rt_hw_spi_init
	.size	__rt_init_rt_hw_spi_init, 4

	.type	spi_config,%object              @ @spi_config
	.section	.data.spi_config,"aw",%progbits
	.p2align	2
spi_config:
	.long	1073819648
	.long	.L.str.8
	.long	0
	.long	0
	.size	spi_config, 16

	.type	spi_bus_obj,%object             @ @spi_bus_obj
	.section	.bss.spi_bus_obj,"aw",%nobits
	.p2align	2
spi_bus_obj:
	.zero	516
	.size	spi_bus_obj, 516

	.type	stm_spi_ops,%object             @ @stm_spi_ops
	.section	.rodata.stm_spi_ops,"a",%progbits
	.p2align	2
stm_spi_ops:
	.long	spi_configure
	.long	spixfer
	.size	stm_spi_ops, 8

	.type	.L__FUNCTION__.rt_hw_spi_bus_init,%object @ @__FUNCTION__.rt_hw_spi_bus_init
	.section	.rodata.str1.1,"aMS",%progbits,1
.L__FUNCTION__.rt_hw_spi_bus_init:
	.asciz	"rt_hw_spi_bus_init"
	.size	.L__FUNCTION__.rt_hw_spi_bus_init, 19

	.type	.L.str.8,%object                @ @.str.8
.L.str.8:
	.asciz	"spi1"
	.size	.L.str.8, 5

	.type	.L.str.9,%object                @ @.str.9
.L.str.9:
	.asciz	"device != RT_NULL"
	.size	.L.str.9, 18

	.type	.L__FUNCTION__.spi_configure,%object @ @__FUNCTION__.spi_configure
.L__FUNCTION__.spi_configure:
	.asciz	"spi_configure"
	.size	.L__FUNCTION__.spi_configure, 14

	.type	.L.str.10,%object               @ @.str.10
.L.str.10:
	.asciz	"configuration != RT_NULL"
	.size	.L.str.10, 25

	.type	.L.str.11,%object               @ @.str.11
.L.str.11:
	.asciz	"spi_drv != RT_NULL"
	.size	.L.str.11, 19

	.type	.L__FUNCTION__.stm32_spi_init,%object @ @__FUNCTION__.stm32_spi_init
.L__FUNCTION__.stm32_spi_init:
	.asciz	"stm32_spi_init"
	.size	.L__FUNCTION__.stm32_spi_init, 15

	.type	.L.str.12,%object               @ @.str.12
.L.str.12:
	.asciz	"cfg != RT_NULL"
	.size	.L.str.12, 15

	.type	.L__FUNCTION__.spixfer,%object  @ @__FUNCTION__.spixfer
.L__FUNCTION__.spixfer:
	.asciz	"spixfer"
	.size	.L__FUNCTION__.spixfer, 8

	.type	.L.str.13,%object               @ @.str.13
.L.str.13:
	.asciz	"device->bus != RT_NULL"
	.size	.L.str.13, 23

	.type	.L.str.14,%object               @ @.str.14
.L.str.14:
	.asciz	"device->bus->parent.user_data != RT_NULL"
	.size	.L.str.14, 41

	.type	.L.str.15,%object               @ @.str.15
.L.str.15:
	.asciz	"message != RT_NULL"
	.size	.L.str.15, 19

	.type	.L.str.16,%object               @ @.str.16
.L.str.16:
	.asciz	"[I/drv.spi] "
	.size	.L.str.16, 13

	.type	.L.str.17,%object               @ @.str.17
.L.str.17:
	.asciz	"spi transfer error : %d"
	.size	.L.str.17, 24

	.globl	__rt_init_rt_hw_spi_init
	.section	".note.GNU-stack","",%progbits
	.eabi_attribute	30, 6	@ Tag_ABI_optimization_goals
	.ARM_attribute	16, 1	@ Tag_AV_eba