	.text
	.syntax unified
	.eabi_attribute	67, "2.09"	@ Tag_conformance
	.cpu	cortex-m7
	.eabi_attribute	6, 13	@ Tag_CPU_arch
	.eabi_attribute	7, 77	@ Tag_CPU_arch_profile
	.eabi_attribute	8, 0	@ Tag_ARM_ISA_use
	.eabi_attribute	9, 2	@ Tag_THUMB_ISA_use
	.fpu	fpv5-d16
	.eabi_attribute	36, 1	@ Tag_FP_HP_extension
	.eabi_attribute	34, 1	@ Tag_CPU_unaligned_access
	.eabi_attribute	17, 1	@ Tag_ABI_PCS_GOT_use
	.eabi_attribute	20, 2	@ Tag_ABI_FP_denormal
	.eabi_attribute	21, 0	@ Tag_ABI_FP_exceptions
	.eabi_attribute	23, 1	@ Tag_ABI_FP_number_model
	.eabi_attribute	24, 1	@ Tag_ABI_align_needed
	.eabi_attribute	25, 1	@ Tag_ABI_align_preserved
	.eabi_attribute	28, 1	@ Tag_ABI_VFP_args
	.eabi_attribute	38, 1	@ Tag_ABI_FP_16bit_format
	.eabi_attribute	18, 2	@ Tag_ABI_PCS_wchar_t
	.eabi_attribute	26, 1	@ Tag_ABI_enum_size
	.eabi_attribute	14, 0	@ Tag_ABI_PCS_R9_use
	.file	"drv_gpio.c"
	.file	1 "E:\\STM32\\Learning\\STM32H750_ART_PI_RGBLCD" "rt-thread/include\\rtdef.h"
	.file	2 "E:\\STM32\\Learning\\STM32H750_ART_PI_RGBLCD" "rt-thread/components/drivers/include/drivers/pin.h"
	.file	3 "E:\\STM32\\Learning\\STM32H750_ART_PI_RGBLCD" "libraries/drivers/drv_gpio.c"
	.file	4 "E:\\STM32\\Learning\\STM32H750_ART_PI_RGBLCD" "libraries/drivers/include\\drv_gpio.h"
	.file	5 "E:\\STM32\\Learning\\STM32H750_ART_PI_RGBLCD" "libraries/STM32H7xx_HAL/CMSIS/Device/ST/STM32H7xx/Include/stm32h750xx.h"
	.file	6 "D:\\Keil_v5\\ARM\\ARMCLANG\\Bin\\..\\include" "stdint.h"
	.file	7 "E:\\STM32\\Learning\\STM32H750_ART_PI_RGBLCD" "libraries/STM32H7xx_HAL/STM32H7xx_HAL_Driver/Inc\\stm32h7xx_hal_gpio.h"
	.section	.text.HAL_GPIO_EXTI_Callback,"ax",%progbits
	.hidden	HAL_GPIO_EXTI_Callback          @ -- Begin function HAL_GPIO_EXTI_Callback
	.globl	HAL_GPIO_EXTI_Callback
	.p2align	3
	.type	HAL_GPIO_EXTI_Callback,%function
	.code	16                              @ @HAL_GPIO_EXTI_Callback
	.thumb_func
HAL_GPIO_EXTI_Callback:
.Lfunc_begin0:
	.loc	3 429 0                         @ libraries/drivers/drv_gpio.c:429:0
	.fnstart
	.cfi_sections .debug_frame
	.cfi_startproc
@ %bb.0:
	.save	{r7, lr}
	push	{r7, lr}
	.cfi_def_cfa_offset 8
	.cfi_offset lr, -4
	.cfi_offset r7, -8
	.pad	#8
	sub	sp, #8
	.cfi_def_cfa_offset 16
                                        @ kill: def $r1 killed $r0
	strh.w	r0, [sp, #6]
.Ltmp0:
	.loc	3 430 27 prologue_end           @ libraries/drivers/drv_gpio.c:430:27
	ldrh.w	r0, [sp, #6]
	.loc	3 430 17 is_stmt 0              @ libraries/drivers/drv_gpio.c:430:17
	bl	bit2bitno
	.loc	3 430 5                         @ libraries/drivers/drv_gpio.c:430:5
	bl	pin_irq_hdr
	.loc	3 431 1 is_stmt 1               @ libraries/drivers/drv_gpio.c:431:1
	add	sp, #8
	pop	{r7, pc}
.Ltmp1:
.Lfunc_end0:
	.size	HAL_GPIO_EXTI_Callback, .Lfunc_end0-HAL_GPIO_EXTI_Callback
	.cfi_endproc
	.cantunwind
	.fnend
                                        @ -- End function
	.section	.text.pin_irq_hdr,"ax",%progbits
	.p2align	3                               @ -- Begin function pin_irq_hdr
	.type	pin_irq_hdr,%function
	.code	16                              @ @pin_irq_hdr
	.thumb_func
pin_irq_hdr:
.Lfunc_begin1:
	.loc	3 421 0                         @ libraries/drivers/drv_gpio.c:421:0
	.fnstart
	.cfi_startproc
@ %bb.0:
	.save	{r7, lr}
	push	{r7, lr}
	.cfi_def_cfa_offset 8
	.cfi_offset lr, -4
	.cfi_offset r7, -8
	.pad	#8
	sub	sp, #8
	.cfi_def_cfa_offset 16
	str	r0, [sp, #4]
.Ltmp2:
	.loc	3 422 25 prologue_end           @ libraries/drivers/drv_gpio.c:422:25
	ldr	r0, [sp, #4]
	.loc	3 422 9 is_stmt 0               @ libraries/drivers/drv_gpio.c:422:9
	add.w	r1, r0, r0, lsl #1
	movw	r0, :lower16:pin_irq_hdr_tab
	movt	r0, :upper16:pin_irq_hdr_tab
	add.w	r0, r0, r1, lsl #2
	.loc	3 422 32                        @ libraries/drivers/drv_gpio.c:422:32
	ldr	r0, [r0, #4]
.Ltmp3:
	.loc	3 422 9                         @ libraries/drivers/drv_gpio.c:422:9
	cbz	r0, .LBB1_2
	b	.LBB1_1
.LBB1_1:
.Ltmp4:
	.loc	3 424 25 is_stmt 1              @ libraries/drivers/drv_gpio.c:424:25
	ldr	r0, [sp, #4]
	.loc	3 424 9 is_stmt 0               @ libraries/drivers/drv_gpio.c:424:9
	add.w	r1, r0, r0, lsl #1
	movw	r0, :lower16:pin_irq_hdr_tab
	movt	r0, :upper16:pin_irq_hdr_tab
	add.w	r0, r0, r1, lsl #2
	.loc	3 424 32                        @ libraries/drivers/drv_gpio.c:424:32
	ldr	r1, [r0, #4]
	.loc	3 424 59                        @ libraries/drivers/drv_gpio.c:424:59
	ldr	r0, [r0, #8]
	.loc	3 424 9                         @ libraries/drivers/drv_gpio.c:424:9
	blx	r1
	.loc	3 425 5 is_stmt 1               @ libraries/drivers/drv_gpio.c:425:5
	b	.LBB1_2
.Ltmp5:
.LBB1_2:
	.loc	3 426 1                         @ libraries/drivers/drv_gpio.c:426:1
	add	sp, #8
	pop	{r7, pc}
.Ltmp6:
.Lfunc_end1:
	.size	pin_irq_hdr, .Lfunc_end1-pin_irq_hdr
	.cfi_endproc
	.cantunwind
	.fnend
                                        @ -- End function
	.section	.text.bit2bitno,"ax",%progbits
	.p2align	3                               @ -- Begin function bit2bitno
	.type	bit2bitno,%function
	.code	16                              @ @bit2bitno
	.thumb_func
bit2bitno:
.Lfunc_begin2:
	.loc	3 217 0                         @ libraries/drivers/drv_gpio.c:217:0
	.fnstart
	.cfi_startproc
@ %bb.0:
	.pad	#12
	sub	sp, #12
	.cfi_def_cfa_offset 12
	str	r0, [sp, #4]
	movs	r0, #0
.Ltmp7:
	.loc	3 219 12 prologue_end           @ libraries/drivers/drv_gpio.c:219:12
	str	r0, [sp]
	.loc	3 219 10 is_stmt 0              @ libraries/drivers/drv_gpio.c:219:10
	b	.LBB2_1
.LBB2_1:                                @ =>This Inner Loop Header: Depth=1
.Ltmp8:
	.loc	3 219 17                        @ libraries/drivers/drv_gpio.c:219:17
	ldr	r0, [sp]
.Ltmp9:
	.loc	3 219 5                         @ libraries/drivers/drv_gpio.c:219:5
	cmp	r0, #31
	bgt	.LBB2_6
	b	.LBB2_2
.LBB2_2:                                @   in Loop: Header=BB2_1 Depth=1
.Ltmp10:
	.loc	3 221 22 is_stmt 1              @ libraries/drivers/drv_gpio.c:221:22
	ldr	r1, [sp]
	movs	r0, #1
	.loc	3 221 19 is_stmt 0              @ libraries/drivers/drv_gpio.c:221:19
	lsl.w	r1, r0, r1
	.loc	3 221 28                        @ libraries/drivers/drv_gpio.c:221:28
	ldr	r0, [sp, #4]
.Ltmp11:
	.loc	3 221 13                        @ libraries/drivers/drv_gpio.c:221:13
	cmp	r0, r1
	bne	.LBB2_4
	b	.LBB2_3
.LBB2_3:
.Ltmp12:
	.loc	3 223 20 is_stmt 1              @ libraries/drivers/drv_gpio.c:223:20
	ldr	r0, [sp]
	.loc	3 223 13 is_stmt 0              @ libraries/drivers/drv_gpio.c:223:13
	str	r0, [sp, #8]
	b	.LBB2_7
.Ltmp13:
.LBB2_4:                                @   in Loop: Header=BB2_1 Depth=1
	.loc	3 225 5 is_stmt 1               @ libraries/drivers/drv_gpio.c:225:5
	b	.LBB2_5
.Ltmp14:
.LBB2_5:                                @   in Loop: Header=BB2_1 Depth=1
	.loc	3 219 26                        @ libraries/drivers/drv_gpio.c:219:26
	ldr	r0, [sp]
	adds	r0, #1
	str	r0, [sp]
	.loc	3 219 5 is_stmt 0               @ libraries/drivers/drv_gpio.c:219:5
	b	.LBB2_1
.Ltmp15:
.LBB2_6:
	.loc	3 0 5                           @ libraries/drivers/drv_gpio.c:0:5
	mov.w	r0, #-1
	.loc	3 226 5 is_stmt 1               @ libraries/drivers/drv_gpio.c:226:5
	str	r0, [sp, #8]
	b	.LBB2_7
.LBB2_7:
	.loc	3 227 1                         @ libraries/drivers/drv_gpio.c:227:1
	ldr	r0, [sp, #8]
	add	sp, #12
	bx	lr
.Ltmp16:
.Lfunc_end2:
	.size	bit2bitno, .Lfunc_end2-bit2bitno
	.cfi_endproc
	.cantunwind
	.fnend
                                        @ -- End function
	.section	.text.EXTI0_IRQHandler,"ax",%progbits
	.hidden	EXTI0_IRQHandler                @ -- Begin function EXTI0_IRQHandler
	.globl	EXTI0_IRQHandler
	.p2align	3
	.type	EXTI0_IRQHandler,%function
	.code	16                              @ @EXTI0_IRQHandler
	.thumb_func
EXTI0_IRQHandler:
.Lfunc_begin3:
	.loc	3 434 0                         @ libraries/drivers/drv_gpio.c:434:0
	.fnstart
	.cfi_startproc
@ %bb.0:
	.save	{r7, lr}
	push	{r7, lr}
	.cfi_def_cfa_offset 8
	.cfi_offset lr, -4
	.cfi_offset r7, -8
.Ltmp17:
	.loc	3 435 5 prologue_end            @ libraries/drivers/drv_gpio.c:435:5
	bl	rt_interrupt_enter
	movs	r0, #1
	.loc	3 436 5                         @ libraries/drivers/drv_gpio.c:436:5
	bl	HAL_GPIO_EXTI_IRQHandler
	.loc	3 437 5                         @ libraries/drivers/drv_gpio.c:437:5
	bl	rt_interrupt_leave
	.loc	3 438 1                         @ libraries/drivers/drv_gpio.c:438:1
	pop	{r7, pc}
.Ltmp18:
.Lfunc_end3:
	.size	EXTI0_IRQHandler, .Lfunc_end3-EXTI0_IRQHandler
	.cfi_endproc
	.cantunwind
	.fnend
                                        @ -- End function
	.section	.text.EXTI1_IRQHandler,"ax",%progbits
	.hidden	EXTI1_IRQHandler                @ -- Begin function EXTI1_IRQHandler
	.globl	EXTI1_IRQHandler
	.p2align	3
	.type	EXTI1_IRQHandler,%function
	.code	16                              @ @EXTI1_IRQHandler
	.thumb_func
EXTI1_IRQHandler:
.Lfunc_begin4:
	.loc	3 441 0                         @ libraries/drivers/drv_gpio.c:441:0
	.fnstart
	.cfi_startproc
@ %bb.0:
	.save	{r7, lr}
	push	{r7, lr}
	.cfi_def_cfa_offset 8
	.cfi_offset lr, -4
	.cfi_offset r7, -8
.Ltmp19:
	.loc	3 442 5 prologue_end            @ libraries/drivers/drv_gpio.c:442:5
	bl	rt_interrupt_enter
	movs	r0, #2
	.loc	3 443 5                         @ libraries/drivers/drv_gpio.c:443:5
	bl	HAL_GPIO_EXTI_IRQHandler
	.loc	3 444 5                         @ libraries/drivers/drv_gpio.c:444:5
	bl	rt_interrupt_leave
	.loc	3 445 1                         @ libraries/drivers/drv_gpio.c:445:1
	pop	{r7, pc}
.Ltmp20:
.Lfunc_end4:
	.size	EXTI1_IRQHandler, .Lfunc_end4-EXTI1_IRQHandler
	.cfi_endproc
	.cantunwind
	.fnend
                                        @ -- End function
	.section	.text.EXTI2_IRQHandler,"ax",%progbits
	.hidden	EXTI2_IRQHandler                @ -- Begin function EXTI2_IRQHandler
	.globl	EXTI2_IRQHandler
	.p2align	3
	.type	EXTI2_IRQHandler,%function
	.code	16                              @ @EXTI2_IRQHandler
	.thumb_func
EXTI2_IRQHandler:
.Lfunc_begin5:
	.loc	3 448 0                         @ libraries/drivers/drv_gpio.c:448:0
	.fnstart
	.cfi_startproc
@ %bb.0:
	.save	{r7, lr}
	push	{r7, lr}
	.cfi_def_cfa_offset 8
	.cfi_offset lr, -4
	.cfi_offset r7, -8
.Ltmp21:
	.loc	3 449 5 prologue_end            @ libraries/drivers/drv_gpio.c:449:5
	bl	rt_interrupt_enter
	movs	r0, #4
	.loc	3 450 5                         @ libraries/drivers/drv_gpio.c:450:5
	bl	HAL_GPIO_EXTI_IRQHandler
	.loc	3 451 5                         @ libraries/drivers/drv_gpio.c:451:5
	bl	rt_interrupt_leave
	.loc	3 452 1                         @ libraries/drivers/drv_gpio.c:452:1
	pop	{r7, pc}
.Ltmp22:
.Lfunc_end5:
	.size	EXTI2_IRQHandler, .Lfunc_end5-EXTI2_IRQHandler
	.cfi_endproc
	.cantunwind
	.fnend
                                        @ -- End function
	.section	.text.EXTI3_IRQHandler,"ax",%progbits
	.hidden	EXTI3_IRQHandler                @ -- Begin function EXTI3_IRQHandler
	.globl	EXTI3_IRQHandler
	.p2align	3
	.type	EXTI3_IRQHandler,%function
	.code	16                              @ @EXTI3_IRQHandler
	.thumb_func
EXTI3_IRQHandler:
.Lfunc_begin6:
	.loc	3 455 0                         @ libraries/drivers/drv_gpio.c:455:0
	.fnstart
	.cfi_startproc
@ %bb.0:
	.save	{r7, lr}
	push	{r7, lr}
	.cfi_def_cfa_offset 8
	.cfi_offset lr, -4
	.cfi_offset r7, -8
.Ltmp23:
	.loc	3 456 5 prologue_end            @ libraries/drivers/drv_gpio.c:456:5
	bl	rt_interrupt_enter
	movs	r0, #8
	.loc	3 457 5                         @ libraries/drivers/drv_gpio.c:457:5
	bl	HAL_GPIO_EXTI_IRQHandler
	.loc	3 458 5                         @ libraries/drivers/drv_gpio.c:458:5
	bl	rt_interrupt_leave
	.loc	3 459 1                         @ libraries/drivers/drv_gpio.c:459:1
	pop	{r7, pc}
.Ltmp24:
.Lfunc_end6:
	.size	EXTI3_IRQHandler, .Lfunc_end6-EXTI3_IRQHandler
	.cfi_endproc
	.cantunwind
	.fnend
                                        @ -- End function
	.section	.text.EXTI4_IRQHandler,"ax",%progbits
	.hidden	EXTI4_IRQHandler                @ -- Begin function EXTI4_IRQHandler
	.globl	EXTI4_IRQHandler
	.p2align	3
	.type	EXTI4_IRQHandler,%function
	.code	16                              @ @EXTI4_IRQHandler
	.thumb_func
EXTI4_IRQHandler:
.Lfunc_begin7:
	.loc	3 462 0                         @ libraries/drivers/drv_gpio.c:462:0
	.fnstart
	.cfi_startproc
@ %bb.0:
	.save	{r7, lr}
	push	{r7, lr}
	.cfi_def_cfa_offset 8
	.cfi_offset lr, -4
	.cfi_offset r7, -8
.Ltmp25:
	.loc	3 463 5 prologue_end            @ libraries/drivers/drv_gpio.c:463:5
	bl	rt_interrupt_enter
	movs	r0, #16
	.loc	3 464 5                         @ libraries/drivers/drv_gpio.c:464:5
	bl	HAL_GPIO_EXTI_IRQHandler
	.loc	3 465 5                         @ libraries/drivers/drv_gpio.c:465:5
	bl	rt_interrupt_leave
	.loc	3 466 1                         @ libraries/drivers/drv_gpio.c:466:1
	pop	{r7, pc}
.Ltmp26:
.Lfunc_end7:
	.size	EXTI4_IRQHandler, .Lfunc_end7-EXTI4_IRQHandler
	.cfi_endproc
	.cantunwind
	.fnend
                                        @ -- End function
	.section	.text.EXTI9_5_IRQHandler,"ax",%progbits
	.hidden	EXTI9_5_IRQHandler              @ -- Begin function EXTI9_5_IRQHandler
	.globl	EXTI9_5_IRQHandler
	.p2align	3
	.type	EXTI9_5_IRQHandler,%function
	.code	16                              @ @EXTI9_5_IRQHandler
	.thumb_func
EXTI9_5_IRQHandler:
.Lfunc_begin8:
	.loc	3 469 0                         @ libraries/drivers/drv_gpio.c:469:0
	.fnstart
	.cfi_startproc
@ %bb.0:
	.save	{r7, lr}
	push	{r7, lr}
	.cfi_def_cfa_offset 8
	.cfi_offset lr, -4
	.cfi_offset r7, -8
.Ltmp27:
	.loc	3 470 5 prologue_end            @ libraries/drivers/drv_gpio.c:470:5
	bl	rt_interrupt_enter
	movs	r0, #32
	.loc	3 471 5                         @ libraries/drivers/drv_gpio.c:471:5
	bl	HAL_GPIO_EXTI_IRQHandler
	movs	r0, #64
	.loc	3 472 5                         @ libraries/drivers/drv_gpio.c:472:5
	bl	HAL_GPIO_EXTI_IRQHandler
	movs	r0, #128
	.loc	3 473 5                         @ libraries/drivers/drv_gpio.c:473:5
	bl	HAL_GPIO_EXTI_IRQHandler
	mov.w	r0, #256
	.loc	3 474 5                         @ libraries/drivers/drv_gpio.c:474:5
	bl	HAL_GPIO_EXTI_IRQHandler
	mov.w	r0, #512
	.loc	3 475 5                         @ libraries/drivers/drv_gpio.c:475:5
	bl	HAL_GPIO_EXTI_IRQHandler
	.loc	3 476 5                         @ libraries/drivers/drv_gpio.c:476:5
	bl	rt_interrupt_leave
	.loc	3 477 1                         @ libraries/drivers/drv_gpio.c:477:1
	pop	{r7, pc}
.Ltmp28:
.Lfunc_end8:
	.size	EXTI9_5_IRQHandler, .Lfunc_end8-EXTI9_5_IRQHandler
	.cfi_endproc
	.cantunwind
	.fnend
                                        @ -- End function
	.section	.text.EXTI15_10_IRQHandler,"ax",%progbits
	.hidden	EXTI15_10_IRQHandler            @ -- Begin function EXTI15_10_IRQHandler
	.globl	EXTI15_10_IRQHandler
	.p2align	3
	.type	EXTI15_10_IRQHandler,%function
	.code	16                              @ @EXTI15_10_IRQHandler
	.thumb_func
EXTI15_10_IRQHandler:
.Lfunc_begin9:
	.loc	3 480 0                         @ libraries/drivers/drv_gpio.c:480:0
	.fnstart
	.cfi_startproc
@ %bb.0:
	.save	{r7, lr}
	push	{r7, lr}
	.cfi_def_cfa_offset 8
	.cfi_offset lr, -4
	.cfi_offset r7, -8
.Ltmp29:
	.loc	3 481 5 prologue_end            @ libraries/drivers/drv_gpio.c:481:5
	bl	rt_interrupt_enter
	mov.w	r0, #1024
	.loc	3 482 5                         @ libraries/drivers/drv_gpio.c:482:5
	bl	HAL_GPIO_EXTI_IRQHandler
	mov.w	r0, #2048
	.loc	3 483 5                         @ libraries/drivers/drv_gpio.c:483:5
	bl	HAL_GPIO_EXTI_IRQHandler
	mov.w	r0, #4096
	.loc	3 484 5                         @ libraries/drivers/drv_gpio.c:484:5
	bl	HAL_GPIO_EXTI_IRQHandler
	mov.w	r0, #8192
	.loc	3 485 5                         @ libraries/drivers/drv_gpio.c:485:5
	bl	HAL_GPIO_EXTI_IRQHandler
	mov.w	r0, #16384
	.loc	3 486 5                         @ libraries/drivers/drv_gpio.c:486:5
	bl	HAL_GPIO_EXTI_IRQHandler
	mov.w	r0, #32768
	.loc	3 487 5                         @ libraries/drivers/drv_gpio.c:487:5
	bl	HAL_GPIO_EXTI_IRQHandler
	.loc	3 488 5                         @ libraries/drivers/drv_gpio.c:488:5
	bl	rt_interrupt_leave
	.loc	3 489 1                         @ libraries/drivers/drv_gpio.c:489:1
	pop	{r7, pc}
.Ltmp30:
.Lfunc_end9:
	.size	EXTI15_10_IRQHandler, .Lfunc_end9-EXTI15_10_IRQHandler
	.cfi_endproc
	.cantunwind
	.fnend
                                        @ -- End function
	.section	.text.rt_hw_pin_init,"ax",%progbits
	.hidden	rt_hw_pin_init                  @ -- Begin function rt_hw_pin_init
	.globl	rt_hw_pin_init
	.p2align	3
	.type	rt_hw_pin_init,%function
	.code	16                              @ @rt_hw_pin_init
	.thumb_func
rt_hw_pin_init:
.Lfunc_begin10:
	.loc	3 492 0                         @ libraries/drivers/drv_gpio.c:492:0
	.fnstart
	.cfi_startproc
@ %bb.0:
	.save	{r7, lr}
	push	{r7, lr}
	.cfi_def_cfa_offset 8
	.cfi_offset lr, -4
	.cfi_offset r7, -8
	.pad	#48
	sub	sp, #48
	.cfi_def_cfa_offset 56
.Ltmp31:
	.loc	3 494 5 prologue_end            @ libraries/drivers/drv_gpio.c:494:5
	b	.LBB10_1
.LBB10_1:
	.loc	3 0 5 is_stmt 0                 @ libraries/drivers/drv_gpio.c:0:5
	movw	r0, #17632
	movt	r0, #22530
.Ltmp32:
	.loc	3 494 5                         @ libraries/drivers/drv_gpio.c:494:5
	ldr	r1, [r0]
	orr	r1, r1, #1
	str	r1, [r0]
	ldr	r0, [r0]
	and	r0, r0, #1
	str	r0, [sp, #44]
	ldr	r0, [sp, #44]
	b	.LBB10_2
.Ltmp33:
.LBB10_2:
	.loc	3 498 5 is_stmt 1               @ libraries/drivers/drv_gpio.c:498:5
	b	.LBB10_3
.LBB10_3:
	.loc	3 0 5 is_stmt 0                 @ libraries/drivers/drv_gpio.c:0:5
	movw	r0, #17632
	movt	r0, #22530
.Ltmp34:
	.loc	3 498 5                         @ libraries/drivers/drv_gpio.c:498:5
	ldr	r1, [r0]
	orr	r1, r1, #2
	str	r1, [r0]
	ldr	r0, [r0]
	and	r0, r0, #2
	str	r0, [sp, #40]
	ldr	r0, [sp, #40]
	b	.LBB10_4
.Ltmp35:
.LBB10_4:
	.loc	3 502 5 is_stmt 1               @ libraries/drivers/drv_gpio.c:502:5
	b	.LBB10_5
.LBB10_5:
	.loc	3 0 5 is_stmt 0                 @ libraries/drivers/drv_gpio.c:0:5
	movw	r0, #17632
	movt	r0, #22530
.Ltmp36:
	.loc	3 502 5                         @ libraries/drivers/drv_gpio.c:502:5
	ldr	r1, [r0]
	orr	r1, r1, #4
	str	r1, [r0]
	ldr	r0, [r0]
	and	r0, r0, #4
	str	r0, [sp, #36]
	ldr	r0, [sp, #36]
	b	.LBB10_6
.Ltmp37:
.LBB10_6:
	.loc	3 506 5 is_stmt 1               @ libraries/drivers/drv_gpio.c:506:5
	b	.LBB10_7
.LBB10_7:
	.loc	3 0 5 is_stmt 0                 @ libraries/drivers/drv_gpio.c:0:5
	movw	r0, #17632
	movt	r0, #22530
.Ltmp38:
	.loc	3 506 5                         @ libraries/drivers/drv_gpio.c:506:5
	ldr	r1, [r0]
	orr	r1, r1, #8
	str	r1, [r0]
	ldr	r0, [r0]
	and	r0, r0, #8
	str	r0, [sp, #32]
	ldr	r0, [sp, #32]
	b	.LBB10_8
.Ltmp39:
.LBB10_8:
	.loc	3 510 5 is_stmt 1               @ libraries/drivers/drv_gpio.c:510:5
	b	.LBB10_9
.LBB10_9:
	.loc	3 0 5 is_stmt 0                 @ libraries/drivers/drv_gpio.c:0:5
	movw	r0, #17632
	movt	r0, #22530
.Ltmp40:
	.loc	3 510 5                         @ libraries/drivers/drv_gpio.c:510:5
	ldr	r1, [r0]
	orr	r1, r1, #16
	str	r1, [r0]
	ldr	r0, [r0]
	and	r0, r0, #16
	str	r0, [sp, #28]
	ldr	r0, [sp, #28]
	b	.LBB10_10
.Ltmp41:
.LBB10_10:
	.loc	3 514 5 is_stmt 1               @ libraries/drivers/drv_gpio.c:514:5
	b	.LBB10_11
.LBB10_11:
	.loc	3 0 5 is_stmt 0                 @ libraries/drivers/drv_gpio.c:0:5
	movw	r0, #17632
	movt	r0, #22530
.Ltmp42:
	.loc	3 514 5                         @ libraries/drivers/drv_gpio.c:514:5
	ldr	r1, [r0]
	orr	r1, r1, #32
	str	r1, [r0]
	ldr	r0, [r0]
	and	r0, r0, #32
	str	r0, [sp, #24]
	ldr	r0, [sp, #24]
	b	.LBB10_12
.Ltmp43:
.LBB10_12:
	.loc	3 518 5 is_stmt 1               @ libraries/drivers/drv_gpio.c:518:5
	b	.LBB10_13
.LBB10_13:
	.loc	3 0 5 is_stmt 0                 @ libraries/drivers/drv_gpio.c:0:5
	movw	r0, #17632
	movt	r0, #22530
.Ltmp44:
	.loc	3 518 5                         @ libraries/drivers/drv_gpio.c:518:5
	ldr	r1, [r0]
	orr	r1, r1, #64
	str	r1, [r0]
	ldr	r0, [r0]
	and	r0, r0, #64
	str	r0, [sp, #20]
	ldr	r0, [sp, #20]
	b	.LBB10_14
.Ltmp45:
.LBB10_14:
	.loc	3 522 5 is_stmt 1               @ libraries/drivers/drv_gpio.c:522:5
	b	.LBB10_15
.LBB10_15:
	.loc	3 0 5 is_stmt 0                 @ libraries/drivers/drv_gpio.c:0:5
	movw	r0, #17632
	movt	r0, #22530
.Ltmp46:
	.loc	3 522 5                         @ libraries/drivers/drv_gpio.c:522:5
	ldr	r1, [r0]
	orr	r1, r1, #128
	str	r1, [r0]
	ldr	r0, [r0]
	and	r0, r0, #128
	str	r0, [sp, #16]
	ldr	r0, [sp, #16]
	b	.LBB10_16
.Ltmp47:
.LBB10_16:
	.loc	3 526 5 is_stmt 1               @ libraries/drivers/drv_gpio.c:526:5
	b	.LBB10_17
.LBB10_17:
	.loc	3 0 5 is_stmt 0                 @ libraries/drivers/drv_gpio.c:0:5
	movw	r0, #17632
	movt	r0, #22530
.Ltmp48:
	.loc	3 526 5                         @ libraries/drivers/drv_gpio.c:526:5
	ldr	r1, [r0]
	orr	r1, r1, #256
	str	r1, [r0]
	ldr	r0, [r0]
	and	r0, r0, #256
	str	r0, [sp, #12]
	ldr	r0, [sp, #12]
	b	.LBB10_18
.Ltmp49:
.LBB10_18:
	.loc	3 530 5 is_stmt 1               @ libraries/drivers/drv_gpio.c:530:5
	b	.LBB10_19
.LBB10_19:
	.loc	3 0 5 is_stmt 0                 @ libraries/drivers/drv_gpio.c:0:5
	movw	r0, #17632
	movt	r0, #22530
.Ltmp50:
	.loc	3 530 5                         @ libraries/drivers/drv_gpio.c:530:5
	ldr	r1, [r0]
	orr	r1, r1, #512
	str	r1, [r0]
	ldr	r0, [r0]
	and	r0, r0, #512
	str	r0, [sp, #8]
	ldr	r0, [sp, #8]
	b	.LBB10_20
.Ltmp51:
.LBB10_20:
	.loc	3 534 5 is_stmt 1               @ libraries/drivers/drv_gpio.c:534:5
	b	.LBB10_21
.LBB10_21:
	.loc	3 0 5 is_stmt 0                 @ libraries/drivers/drv_gpio.c:0:5
	movw	r0, #17632
	movt	r0, #22530
.Ltmp52:
	.loc	3 534 5                         @ libraries/drivers/drv_gpio.c:534:5
	ldr	r1, [r0]
	orr	r1, r1, #1024
	str	r1, [r0]
	ldr	r0, [r0]
	and	r0, r0, #1024
	str	r0, [sp, #4]
	ldr	r0, [sp, #4]
	b	.LBB10_22
.Ltmp53:
.LBB10_22:
	.loc	3 537 12 is_stmt 1              @ libraries/drivers/drv_gpio.c:537:12
	movw	r0, :lower16:.L.str
	movt	r0, :upper16:.L.str
	movw	r1, :lower16:_stm32_pin_ops
	movt	r1, :upper16:_stm32_pin_ops
	movs	r2, #0
	bl	rt_device_pin_register
	.loc	3 537 5 is_stmt 0               @ libraries/drivers/drv_gpio.c:537:5
	add	sp, #48
	pop	{r7, pc}
.Ltmp54:
.Lfunc_end10:
	.size	rt_hw_pin_init, .Lfunc_end10-rt_hw_pin_init
	.cfi_endproc
	.cantunwind
	.fnend
                                        @ -- End function
	.section	.text.stm32_pin_mode,"ax",%progbits
	.p2align	3                               @ -- Begin function stm32_pin_mode
	.type	stm32_pin_mode,%function
	.code	16                              @ @stm32_pin_mode
	.thumb_func
stm32_pin_mode:
.Lfunc_begin11:
	.loc	3 168 0 is_stmt 1               @ libraries/drivers/drv_gpio.c:168:0
	.fnstart
	.cfi_startproc
@ %bb.0:
	.save	{r7, lr}
	push	{r7, lr}
	.cfi_def_cfa_offset 8
	.cfi_offset lr, -4
	.cfi_offset r7, -8
	.pad	#32
	sub	sp, #32
	.cfi_def_cfa_offset 40
	str	r0, [sp, #28]
	str	r1, [sp, #24]
	str	r2, [sp, #20]
.Ltmp55:
	.loc	3 171 9 prologue_end            @ libraries/drivers/drv_gpio.c:171:9
	ldrb.w	r0, [sp, #24]
	lsrs	r0, r0, #4
.Ltmp56:
	.loc	3 171 9 is_stmt 0               @ libraries/drivers/drv_gpio.c:171:9
	cmp	r0, #11
	blo	.LBB11_2
	b	.LBB11_1
.LBB11_1:
.Ltmp57:
	.loc	3 173 9 is_stmt 1               @ libraries/drivers/drv_gpio.c:173:9
	b	.LBB11_17
.Ltmp58:
.LBB11_2:
	.loc	3 177 27                        @ libraries/drivers/drv_gpio.c:177:27
	ldr	r0, [sp, #24]
	and	r1, r0, #15
	movs	r0, #1
	lsl.w	r1, r0, r1
	uxth	r1, r1
	.loc	3 177 25 is_stmt 0              @ libraries/drivers/drv_gpio.c:177:25
	str	r1, [sp]
	.loc	3 178 26 is_stmt 1              @ libraries/drivers/drv_gpio.c:178:26
	str	r0, [sp, #4]
	movs	r0, #0
	.loc	3 179 26                        @ libraries/drivers/drv_gpio.c:179:26
	str	r0, [sp, #8]
	movs	r0, #2
	.loc	3 180 27                        @ libraries/drivers/drv_gpio.c:180:27
	str	r0, [sp, #12]
.Ltmp59:
	.loc	3 182 9                         @ libraries/drivers/drv_gpio.c:182:9
	ldr	r0, [sp, #20]
.Ltmp60:
	.loc	3 182 9 is_stmt 0               @ libraries/drivers/drv_gpio.c:182:9
	cbnz	r0, .LBB11_4
	b	.LBB11_3
.LBB11_3:
	.loc	3 0 9                           @ libraries/drivers/drv_gpio.c:0:9
	movs	r0, #1
.Ltmp61:
	.loc	3 185 30 is_stmt 1              @ libraries/drivers/drv_gpio.c:185:30
	str	r0, [sp, #4]
	movs	r0, #0
	.loc	3 186 30                        @ libraries/drivers/drv_gpio.c:186:30
	str	r0, [sp, #8]
	.loc	3 187 5                         @ libraries/drivers/drv_gpio.c:187:5
	b	.LBB11_16
.Ltmp62:
.LBB11_4:
	.loc	3 188 14                        @ libraries/drivers/drv_gpio.c:188:14
	ldr	r0, [sp, #20]
.Ltmp63:
	.loc	3 188 14 is_stmt 0              @ libraries/drivers/drv_gpio.c:188:14
	cmp	r0, #1
	bne	.LBB11_6
	b	.LBB11_5
.LBB11_5:
	.loc	3 0 14                          @ libraries/drivers/drv_gpio.c:0:14
	movs	r0, #0
.Ltmp64:
	.loc	3 191 30 is_stmt 1              @ libraries/drivers/drv_gpio.c:191:30
	str	r0, [sp, #4]
	.loc	3 192 30                        @ libraries/drivers/drv_gpio.c:192:30
	str	r0, [sp, #8]
	.loc	3 193 5                         @ libraries/drivers/drv_gpio.c:193:5
	b	.LBB11_15
.Ltmp65:
.LBB11_6:
	.loc	3 194 14                        @ libraries/drivers/drv_gpio.c:194:14
	ldr	r0, [sp, #20]
.Ltmp66:
	.loc	3 194 14 is_stmt 0              @ libraries/drivers/drv_gpio.c:194:14
	cmp	r0, #2
	bne	.LBB11_8
	b	.LBB11_7
.LBB11_7:
	.loc	3 0 14                          @ libraries/drivers/drv_gpio.c:0:14
	movs	r0, #0
.Ltmp67:
	.loc	3 197 30 is_stmt 1              @ libraries/drivers/drv_gpio.c:197:30
	str	r0, [sp, #4]
	movs	r0, #1
	.loc	3 198 30                        @ libraries/drivers/drv_gpio.c:198:30
	str	r0, [sp, #8]
	.loc	3 199 5                         @ libraries/drivers/drv_gpio.c:199:5
	b	.LBB11_14
.Ltmp68:
.LBB11_8:
	.loc	3 200 14                        @ libraries/drivers/drv_gpio.c:200:14
	ldr	r0, [sp, #20]
.Ltmp69:
	.loc	3 200 14 is_stmt 0              @ libraries/drivers/drv_gpio.c:200:14
	cmp	r0, #3
	bne	.LBB11_10
	b	.LBB11_9
.LBB11_9:
	.loc	3 0 14                          @ libraries/drivers/drv_gpio.c:0:14
	movs	r0, #0
.Ltmp70:
	.loc	3 203 30 is_stmt 1              @ libraries/drivers/drv_gpio.c:203:30
	str	r0, [sp, #4]
	movs	r0, #2
	.loc	3 204 30                        @ libraries/drivers/drv_gpio.c:204:30
	str	r0, [sp, #8]
	.loc	3 205 5                         @ libraries/drivers/drv_gpio.c:205:5
	b	.LBB11_13
.Ltmp71:
.LBB11_10:
	.loc	3 206 14                        @ libraries/drivers/drv_gpio.c:206:14
	ldr	r0, [sp, #20]
.Ltmp72:
	.loc	3 206 14 is_stmt 0              @ libraries/drivers/drv_gpio.c:206:14
	cmp	r0, #4
	bne	.LBB11_12
	b	.LBB11_11
.LBB11_11:
	.loc	3 0 14                          @ libraries/drivers/drv_gpio.c:0:14
	movs	r0, #17
.Ltmp73:
	.loc	3 209 30 is_stmt 1              @ libraries/drivers/drv_gpio.c:209:30
	str	r0, [sp, #4]
	movs	r0, #0
	.loc	3 210 30                        @ libraries/drivers/drv_gpio.c:210:30
	str	r0, [sp, #8]
	.loc	3 211 5                         @ libraries/drivers/drv_gpio.c:211:5
	b	.LBB11_12
.Ltmp74:
.LBB11_12:
	.loc	3 0 5 is_stmt 0                 @ libraries/drivers/drv_gpio.c:0:5
	b	.LBB11_13
.LBB11_13:
	b	.LBB11_14
.LBB11_14:
	b	.LBB11_15
.LBB11_15:
	b	.LBB11_16
.LBB11_16:
	.loc	3 213 19 is_stmt 1              @ libraries/drivers/drv_gpio.c:213:19
	ldr	r1, [sp, #24]
	mov.w	r0, #15360
	and.w	r0, r0, r1, lsl #6
	movs	r1, #0
	movt	r1, #22530
	orrs	r0, r1
	mov	r1, sp
	.loc	3 213 5 is_stmt 0               @ libraries/drivers/drv_gpio.c:213:5
	bl	HAL_GPIO_Init
	.loc	3 214 1 is_stmt 1               @ libraries/drivers/drv_gpio.c:214:1
	b	.LBB11_17
.LBB11_17:
	add	sp, #32
	pop	{r7, pc}
.Ltmp75:
.Lfunc_end11:
	.size	stm32_pin_mode, .Lfunc_end11-stm32_pin_mode
	.cfi_endproc
	.cantunwind
	.fnend
                                        @ -- End function
	.section	.text.stm32_pin_write,"ax",%progbits
	.p2align	3                               @ -- Begin function stm32_pin_write
	.type	stm32_pin_write,%function
	.code	16                              @ @stm32_pin_write
	.thumb_func
stm32_pin_write:
.Lfunc_begin12:
	.loc	3 138 0                         @ libraries/drivers/drv_gpio.c:138:0
	.fnstart
	.cfi_startproc
@ %bb.0:
	.save	{r7, lr}
	push	{r7, lr}
	.cfi_def_cfa_offset 8
	.cfi_offset lr, -4
	.cfi_offset r7, -8
	.pad	#24
	sub	sp, #24
	.cfi_def_cfa_offset 32
	str	r0, [sp, #20]
	str	r1, [sp, #16]
	str	r2, [sp, #12]
.Ltmp76:
	.loc	3 142 9 prologue_end            @ libraries/drivers/drv_gpio.c:142:9
	ldrb.w	r0, [sp, #16]
	lsrs	r0, r0, #4
.Ltmp77:
	.loc	3 142 9 is_stmt 0               @ libraries/drivers/drv_gpio.c:142:9
	cmp	r0, #10
	bhi	.LBB12_2
	b	.LBB12_1
.LBB12_1:
.Ltmp78:
	.loc	3 144 21 is_stmt 1              @ libraries/drivers/drv_gpio.c:144:21
	ldr	r1, [sp, #16]
	mov.w	r0, #15360
	and.w	r0, r0, r1, lsl #6
	movs	r1, #0
	movt	r1, #22530
	orrs	r0, r1
	.loc	3 144 19 is_stmt 0              @ libraries/drivers/drv_gpio.c:144:19
	str	r0, [sp, #8]
	.loc	3 145 20 is_stmt 1              @ libraries/drivers/drv_gpio.c:145:20
	ldr	r0, [sp, #16]
	and	r1, r0, #15
	movs	r0, #1
	lsls	r0, r1
	.loc	3 145 18 is_stmt 0              @ libraries/drivers/drv_gpio.c:145:18
	strh.w	r0, [sp, #6]
	.loc	3 147 27 is_stmt 1              @ libraries/drivers/drv_gpio.c:147:27
	ldr	r0, [sp, #8]
	.loc	3 147 38 is_stmt 0              @ libraries/drivers/drv_gpio.c:147:38
	ldrh.w	r1, [sp, #6]
	.loc	3 147 63                        @ libraries/drivers/drv_gpio.c:147:63
	ldrb.w	r2, [sp, #12]
	.loc	3 147 9                         @ libraries/drivers/drv_gpio.c:147:9
	bl	HAL_GPIO_WritePin
	.loc	3 148 5 is_stmt 1               @ libraries/drivers/drv_gpio.c:148:5
	b	.LBB12_2
.Ltmp79:
.LBB12_2:
	.loc	3 149 1                         @ libraries/drivers/drv_gpio.c:149:1
	add	sp, #24
	pop	{r7, pc}
.Ltmp80:
.Lfunc_end12:
	.size	stm32_pin_write, .Lfunc_end12-stm32_pin_write
	.cfi_endproc
	.cantunwind
	.fnend
                                        @ -- End function
	.section	.text.stm32_pin_read,"ax",%progbits
	.p2align	3                               @ -- Begin function stm32_pin_read
	.type	stm32_pin_read,%function
	.code	16                              @ @stm32_pin_read
	.thumb_func
stm32_pin_read:
.Lfunc_begin13:
	.loc	3 152 0                         @ libraries/drivers/drv_gpio.c:152:0
	.fnstart
	.cfi_startproc
@ %bb.0:
	.save	{r7, lr}
	push	{r7, lr}
	.cfi_def_cfa_offset 8
	.cfi_offset lr, -4
	.cfi_offset r7, -8
	.pad	#24
	sub	sp, #24
	.cfi_def_cfa_offset 32
	str	r0, [sp, #20]
	str	r1, [sp, #16]
	movs	r0, #0
.Ltmp81:
	.loc	3 155 9 prologue_end            @ libraries/drivers/drv_gpio.c:155:9
	str	r0, [sp, #4]
.Ltmp82:
	.loc	3 157 9                         @ libraries/drivers/drv_gpio.c:157:9
	ldrb.w	r0, [sp, #16]
	lsrs	r0, r0, #4
.Ltmp83:
	.loc	3 157 9 is_stmt 0               @ libraries/drivers/drv_gpio.c:157:9
	cmp	r0, #10
	bhi	.LBB13_2
	b	.LBB13_1
.LBB13_1:
.Ltmp84:
	.loc	3 159 21 is_stmt 1              @ libraries/drivers/drv_gpio.c:159:21
	ldr	r1, [sp, #16]
	mov.w	r0, #15360
	and.w	r0, r0, r1, lsl #6
	movs	r1, #0
	movt	r1, #22530
	orrs	r0, r1
	.loc	3 159 19 is_stmt 0              @ libraries/drivers/drv_gpio.c:159:19
	str	r0, [sp, #12]
	.loc	3 160 20 is_stmt 1              @ libraries/drivers/drv_gpio.c:160:20
	ldr	r0, [sp, #16]
	and	r1, r0, #15
	movs	r0, #1
	lsls	r0, r1
	.loc	3 160 18 is_stmt 0              @ libraries/drivers/drv_gpio.c:160:18
	strh.w	r0, [sp, #10]
	.loc	3 161 34 is_stmt 1              @ libraries/drivers/drv_gpio.c:161:34
	ldr	r0, [sp, #12]
	.loc	3 161 45 is_stmt 0              @ libraries/drivers/drv_gpio.c:161:45
	ldrh.w	r1, [sp, #10]
	.loc	3 161 17                        @ libraries/drivers/drv_gpio.c:161:17
	bl	HAL_GPIO_ReadPin
	.loc	3 161 15                        @ libraries/drivers/drv_gpio.c:161:15
	str	r0, [sp, #4]
	.loc	3 162 5 is_stmt 1               @ libraries/drivers/drv_gpio.c:162:5
	b	.LBB13_2
.Ltmp85:
.LBB13_2:
	.loc	3 164 12                        @ libraries/drivers/drv_gpio.c:164:12
	ldr	r0, [sp, #4]
	.loc	3 164 5 is_stmt 0               @ libraries/drivers/drv_gpio.c:164:5
	add	sp, #24
	pop	{r7, pc}
.Ltmp86:
.Lfunc_end13:
	.size	stm32_pin_read, .Lfunc_end13-stm32_pin_read
	.cfi_endproc
	.cantunwind
	.fnend
                                        @ -- End function
	.section	.text.stm32_pin_attach_irq,"ax",%progbits
	.p2align	3                               @ -- Begin function stm32_pin_attach_irq
	.type	stm32_pin_attach_irq,%function
	.code	16                              @ @stm32_pin_attach_irq
	.thumb_func
stm32_pin_attach_irq:
.Lfunc_begin14:
	.loc	3 241 0 is_stmt 1               @ libraries/drivers/drv_gpio.c:241:0
	.fnstart
	.cfi_startproc
@ %bb.0:
	.save	{r7, lr}
	push	{r7, lr}
	.cfi_def_cfa_offset 8
	.cfi_offset lr, -4
	.cfi_offset r7, -8
	.pad	#32
	sub	sp, #32
	.cfi_def_cfa_offset 40
	ldr.w	r12, [sp, #40]
	str	r0, [sp, #24]
	str	r1, [sp, #20]
	str	r2, [sp, #16]
	str	r3, [sp, #12]
	mov.w	r0, #-1
.Ltmp87:
	.loc	3 243 16 prologue_end           @ libraries/drivers/drv_gpio.c:243:16
	str	r0, [sp, #4]
.Ltmp88:
	.loc	3 245 9                         @ libraries/drivers/drv_gpio.c:245:9
	ldrb.w	r0, [sp, #20]
	lsrs	r0, r0, #4
.Ltmp89:
	.loc	3 245 9 is_stmt 0               @ libraries/drivers/drv_gpio.c:245:9
	cmp	r0, #11
	blo	.LBB14_2
	b	.LBB14_1
.LBB14_1:
	.loc	3 0 9                           @ libraries/drivers/drv_gpio.c:0:9
	mvn	r0, #5
.Ltmp90:
	.loc	3 247 9 is_stmt 1               @ libraries/drivers/drv_gpio.c:247:9
	str	r0, [sp, #28]
	b	.LBB14_13
.Ltmp91:
.LBB14_2:
	.loc	3 250 26                        @ libraries/drivers/drv_gpio.c:250:26
	ldr	r0, [sp, #20]
	and	r1, r0, #15
	movs	r0, #1
	lsls	r0, r1
	uxth	r0, r0
	.loc	3 250 16 is_stmt 0              @ libraries/drivers/drv_gpio.c:250:16
	bl	bit2bitno
	.loc	3 250 14                        @ libraries/drivers/drv_gpio.c:250:14
	str	r0, [sp, #4]
.Ltmp92:
	.loc	3 251 9 is_stmt 1               @ libraries/drivers/drv_gpio.c:251:9
	ldr	r0, [sp, #4]
	.loc	3 251 22 is_stmt 0              @ libraries/drivers/drv_gpio.c:251:22
	cmp	r0, #0
	bmi	.LBB14_4
	b	.LBB14_3
.LBB14_3:
	.loc	3 251 25                        @ libraries/drivers/drv_gpio.c:251:25
	ldr	r0, [sp, #4]
.Ltmp93:
	.loc	3 251 9                         @ libraries/drivers/drv_gpio.c:251:9
	cmp	r0, #16
	blo	.LBB14_5
	b	.LBB14_4
.LBB14_4:
	.loc	3 0 9                           @ libraries/drivers/drv_gpio.c:0:9
	movs	r0, #6
.Ltmp94:
	.loc	3 253 9 is_stmt 1               @ libraries/drivers/drv_gpio.c:253:9
	str	r0, [sp, #28]
	b	.LBB14_13
.Ltmp95:
.LBB14_5:
	.loc	3 256 13                        @ libraries/drivers/drv_gpio.c:256:13
	bl	rt_hw_interrupt_disable
	.loc	3 256 11 is_stmt 0              @ libraries/drivers/drv_gpio.c:256:11
	str	r0, [sp, #8]
.Ltmp96:
	.loc	3 257 25 is_stmt 1              @ libraries/drivers/drv_gpio.c:257:25
	ldr	r0, [sp, #4]
	.loc	3 257 9 is_stmt 0               @ libraries/drivers/drv_gpio.c:257:9
	add.w	r1, r0, r0, lsl #1
	movw	r0, :lower16:pin_irq_hdr_tab
	movt	r0, :upper16:pin_irq_hdr_tab
	.loc	3 257 35                        @ libraries/drivers/drv_gpio.c:257:35
	ldrsh.w	r0, [r0, r1, lsl #2]
	.loc	3 257 42                        @ libraries/drivers/drv_gpio.c:257:42
	ldr	r1, [sp, #20]
	.loc	3 257 46                        @ libraries/drivers/drv_gpio.c:257:46
	cmp	r0, r1
	bne	.LBB14_10
	b	.LBB14_6
.LBB14_6:
	.loc	3 258 25 is_stmt 1              @ libraries/drivers/drv_gpio.c:258:25
	ldr	r0, [sp, #4]
	.loc	3 258 9 is_stmt 0               @ libraries/drivers/drv_gpio.c:258:9
	add.w	r1, r0, r0, lsl #1
	movw	r0, :lower16:pin_irq_hdr_tab
	movt	r0, :upper16:pin_irq_hdr_tab
	add.w	r0, r0, r1, lsl #2
	.loc	3 258 35                        @ libraries/drivers/drv_gpio.c:258:35
	ldr	r0, [r0, #4]
	.loc	3 258 42                        @ libraries/drivers/drv_gpio.c:258:42
	ldr	r1, [sp, #12]
	.loc	3 258 46                        @ libraries/drivers/drv_gpio.c:258:46
	cmp	r0, r1
	bne	.LBB14_10
	b	.LBB14_7
.LBB14_7:
	.loc	3 259 25 is_stmt 1              @ libraries/drivers/drv_gpio.c:259:25
	ldr	r0, [sp, #4]
	.loc	3 259 9 is_stmt 0               @ libraries/drivers/drv_gpio.c:259:9
	add.w	r1, r0, r0, lsl #1
	movw	r0, :lower16:pin_irq_hdr_tab
	movt	r0, :upper16:pin_irq_hdr_tab
	add.w	r0, r0, r1, lsl #2
	.loc	3 259 35                        @ libraries/drivers/drv_gpio.c:259:35
	ldrh	r0, [r0, #2]
	.loc	3 259 43                        @ libraries/drivers/drv_gpio.c:259:43
	ldr	r1, [sp, #16]
	.loc	3 259 48                        @ libraries/drivers/drv_gpio.c:259:48
	cmp	r0, r1
	bne	.LBB14_10
	b	.LBB14_8
.LBB14_8:
	.loc	3 260 25 is_stmt 1              @ libraries/drivers/drv_gpio.c:260:25
	ldr	r0, [sp, #4]
	.loc	3 260 9 is_stmt 0               @ libraries/drivers/drv_gpio.c:260:9
	add.w	r1, r0, r0, lsl #1
	movw	r0, :lower16:pin_irq_hdr_tab
	movt	r0, :upper16:pin_irq_hdr_tab
	add.w	r0, r0, r1, lsl #2
	.loc	3 260 35                        @ libraries/drivers/drv_gpio.c:260:35
	ldr	r0, [r0, #8]
	.loc	3 260 43                        @ libraries/drivers/drv_gpio.c:260:43
	ldr	r1, [sp, #40]
.Ltmp97:
	.loc	3 257 9 is_stmt 1               @ libraries/drivers/drv_gpio.c:257:9
	cmp	r0, r1
	bne	.LBB14_10
	b	.LBB14_9
.LBB14_9:
.Ltmp98:
	.loc	3 262 32                        @ libraries/drivers/drv_gpio.c:262:32
	ldr	r0, [sp, #8]
	.loc	3 262 9 is_stmt 0               @ libraries/drivers/drv_gpio.c:262:9
	bl	rt_hw_interrupt_enable
	movs	r0, #0
	.loc	3 263 9 is_stmt 1               @ libraries/drivers/drv_gpio.c:263:9
	str	r0, [sp, #28]
	b	.LBB14_13
.Ltmp99:
.LBB14_10:
	.loc	3 265 25                        @ libraries/drivers/drv_gpio.c:265:25
	ldr	r0, [sp, #4]
	.loc	3 265 9 is_stmt 0               @ libraries/drivers/drv_gpio.c:265:9
	add.w	r1, r0, r0, lsl #1
	movw	r0, :lower16:pin_irq_hdr_tab
	movt	r0, :upper16:pin_irq_hdr_tab
	.loc	3 265 35                        @ libraries/drivers/drv_gpio.c:265:35
	ldrsh.w	r0, [r0, r1, lsl #2]
.Ltmp100:
	.loc	3 265 9                         @ libraries/drivers/drv_gpio.c:265:9
	adds	r0, #1
	cbz	r0, .LBB14_12
	b	.LBB14_11
.LBB14_11:
.Ltmp101:
	.loc	3 267 32 is_stmt 1              @ libraries/drivers/drv_gpio.c:267:32
	ldr	r0, [sp, #8]
	.loc	3 267 9 is_stmt 0               @ libraries/drivers/drv_gpio.c:267:9
	bl	rt_hw_interrupt_enable
	movs	r0, #7
	.loc	3 268 9 is_stmt 1               @ libraries/drivers/drv_gpio.c:268:9
	str	r0, [sp, #28]
	b	.LBB14_13
.Ltmp102:
.LBB14_12:
	.loc	3 270 37                        @ libraries/drivers/drv_gpio.c:270:37
	ldr	r0, [sp, #20]
	.loc	3 270 21 is_stmt 0              @ libraries/drivers/drv_gpio.c:270:21
	ldr	r1, [sp, #4]
	.loc	3 270 5                         @ libraries/drivers/drv_gpio.c:270:5
	add.w	r2, r1, r1, lsl #1
	movw	r1, :lower16:pin_irq_hdr_tab
	movt	r1, :upper16:pin_irq_hdr_tab
	.loc	3 270 35                        @ libraries/drivers/drv_gpio.c:270:35
	strh.w	r0, [r1, r2, lsl #2]
	.loc	3 271 37 is_stmt 1              @ libraries/drivers/drv_gpio.c:271:37
	ldr	r0, [sp, #12]
	.loc	3 271 21 is_stmt 0              @ libraries/drivers/drv_gpio.c:271:21
	ldr	r2, [sp, #4]
	.loc	3 271 5                         @ libraries/drivers/drv_gpio.c:271:5
	add.w	r2, r2, r2, lsl #1
	add.w	r2, r1, r2, lsl #2
	.loc	3 271 35                        @ libraries/drivers/drv_gpio.c:271:35
	str	r0, [r2, #4]
	.loc	3 272 38 is_stmt 1              @ libraries/drivers/drv_gpio.c:272:38
	ldr	r0, [sp, #16]
	.loc	3 272 21 is_stmt 0              @ libraries/drivers/drv_gpio.c:272:21
	ldr	r2, [sp, #4]
	.loc	3 272 5                         @ libraries/drivers/drv_gpio.c:272:5
	add.w	r2, r2, r2, lsl #1
	add.w	r2, r1, r2, lsl #2
	.loc	3 272 36                        @ libraries/drivers/drv_gpio.c:272:36
	strh	r0, [r2, #2]
	.loc	3 273 38 is_stmt 1              @ libraries/drivers/drv_gpio.c:273:38
	ldr	r0, [sp, #40]
	.loc	3 273 21 is_stmt 0              @ libraries/drivers/drv_gpio.c:273:21
	ldr	r2, [sp, #4]
	.loc	3 273 5                         @ libraries/drivers/drv_gpio.c:273:5
	add.w	r2, r2, r2, lsl #1
	add.w	r1, r1, r2, lsl #2
	.loc	3 273 36                        @ libraries/drivers/drv_gpio.c:273:36
	str	r0, [r1, #8]
	.loc	3 274 28 is_stmt 1              @ libraries/drivers/drv_gpio.c:274:28
	ldr	r0, [sp, #8]
	.loc	3 274 5 is_stmt 0               @ libraries/drivers/drv_gpio.c:274:5
	bl	rt_hw_interrupt_enable
	movs	r0, #0
	.loc	3 276 5 is_stmt 1               @ libraries/drivers/drv_gpio.c:276:5
	str	r0, [sp, #28]
	b	.LBB14_13
.LBB14_13:
	.loc	3 277 1                         @ libraries/drivers/drv_gpio.c:277:1
	ldr	r0, [sp, #28]
	add	sp, #32
	pop	{r7, pc}
.Ltmp103:
.Lfunc_end14:
	.size	stm32_pin_attach_irq, .Lfunc_end14-stm32_pin_attach_irq
	.cfi_endproc
	.cantunwind
	.fnend
                                        @ -- End function
	.section	.text.stm32_pin_dettach_irq,"ax",%progbits
	.p2align	3                               @ -- Begin function stm32_pin_dettach_irq
	.type	stm32_pin_dettach_irq,%function
	.code	16                              @ @stm32_pin_dettach_irq
	.thumb_func
stm32_pin_dettach_irq:
.Lfunc_begin15:
	.loc	3 280 0                         @ libraries/drivers/drv_gpio.c:280:0
	.fnstart
	.cfi_startproc
@ %bb.0:
	.save	{r7, lr}
	push	{r7, lr}
	.cfi_def_cfa_offset 8
	.cfi_offset lr, -4
	.cfi_offset r7, -8
	.pad	#24
	sub	sp, #24
	.cfi_def_cfa_offset 32
	str	r0, [sp, #16]
	str	r1, [sp, #12]
	mov.w	r0, #-1
.Ltmp104:
	.loc	3 282 16 prologue_end           @ libraries/drivers/drv_gpio.c:282:16
	str	r0, [sp, #4]
.Ltmp105:
	.loc	3 284 9                         @ libraries/drivers/drv_gpio.c:284:9
	ldrb.w	r0, [sp, #12]
	lsrs	r0, r0, #4
.Ltmp106:
	.loc	3 284 9 is_stmt 0               @ libraries/drivers/drv_gpio.c:284:9
	cmp	r0, #11
	blo	.LBB15_2
	b	.LBB15_1
.LBB15_1:
	.loc	3 0 9                           @ libraries/drivers/drv_gpio.c:0:9
	mvn	r0, #5
.Ltmp107:
	.loc	3 286 9 is_stmt 1               @ libraries/drivers/drv_gpio.c:286:9
	str	r0, [sp, #20]
	b	.LBB15_8
.Ltmp108:
.LBB15_2:
	.loc	3 289 26                        @ libraries/drivers/drv_gpio.c:289:26
	ldr	r0, [sp, #12]
	and	r1, r0, #15
	movs	r0, #1
	lsls	r0, r1
	uxth	r0, r0
	.loc	3 289 16 is_stmt 0              @ libraries/drivers/drv_gpio.c:289:16
	bl	bit2bitno
	.loc	3 289 14                        @ libraries/drivers/drv_gpio.c:289:14
	str	r0, [sp, #4]
.Ltmp109:
	.loc	3 290 9 is_stmt 1               @ libraries/drivers/drv_gpio.c:290:9
	ldr	r0, [sp, #4]
	.loc	3 290 22 is_stmt 0              @ libraries/drivers/drv_gpio.c:290:22
	cmp	r0, #0
	bmi	.LBB15_4
	b	.LBB15_3
.LBB15_3:
	.loc	3 290 25                        @ libraries/drivers/drv_gpio.c:290:25
	ldr	r0, [sp, #4]
.Ltmp110:
	.loc	3 290 9                         @ libraries/drivers/drv_gpio.c:290:9
	cmp	r0, #16
	blo	.LBB15_5
	b	.LBB15_4
.LBB15_4:
	.loc	3 0 9                           @ libraries/drivers/drv_gpio.c:0:9
	movs	r0, #6
.Ltmp111:
	.loc	3 292 9 is_stmt 1               @ libraries/drivers/drv_gpio.c:292:9
	str	r0, [sp, #20]
	b	.LBB15_8
.Ltmp112:
.LBB15_5:
	.loc	3 295 13                        @ libraries/drivers/drv_gpio.c:295:13
	bl	rt_hw_interrupt_disable
	.loc	3 295 11 is_stmt 0              @ libraries/drivers/drv_gpio.c:295:11
	str	r0, [sp, #8]
.Ltmp113:
	.loc	3 296 25 is_stmt 1              @ libraries/drivers/drv_gpio.c:296:25
	ldr	r0, [sp, #4]
	.loc	3 296 9 is_stmt 0               @ libraries/drivers/drv_gpio.c:296:9
	add.w	r1, r0, r0, lsl #1
	movw	r0, :lower16:pin_irq_hdr_tab
	movt	r0, :upper16:pin_irq_hdr_tab
	.loc	3 296 35                        @ libraries/drivers/drv_gpio.c:296:35
	ldrsh.w	r0, [r0, r1, lsl #2]
.Ltmp114:
	.loc	3 296 9                         @ libraries/drivers/drv_gpio.c:296:9
	adds	r0, #1
	cbnz	r0, .LBB15_7
	b	.LBB15_6
.LBB15_6:
.Ltmp115:
	.loc	3 298 32 is_stmt 1              @ libraries/drivers/drv_gpio.c:298:32
	ldr	r0, [sp, #8]
	.loc	3 298 9 is_stmt 0               @ libraries/drivers/drv_gpio.c:298:9
	bl	rt_hw_interrupt_enable
	movs	r0, #0
	.loc	3 299 9 is_stmt 1               @ libraries/drivers/drv_gpio.c:299:9
	str	r0, [sp, #20]
	b	.LBB15_8
.Ltmp116:
.LBB15_7:
	.loc	3 301 21                        @ libraries/drivers/drv_gpio.c:301:21
	ldr	r0, [sp, #4]
	.loc	3 301 5 is_stmt 0               @ libraries/drivers/drv_gpio.c:301:5
	add.w	r2, r0, r0, lsl #1
	movw	r1, :lower16:pin_irq_hdr_tab
	movt	r1, :upper16:pin_irq_hdr_tab
	movw	r0, #65535
	.loc	3 301 35                        @ libraries/drivers/drv_gpio.c:301:35
	strh.w	r0, [r1, r2, lsl #2]
	.loc	3 302 21 is_stmt 1              @ libraries/drivers/drv_gpio.c:302:21
	ldr	r0, [sp, #4]
	.loc	3 302 5 is_stmt 0               @ libraries/drivers/drv_gpio.c:302:5
	add.w	r0, r0, r0, lsl #1
	add.w	r2, r1, r0, lsl #2
	movs	r0, #0
	.loc	3 302 35                        @ libraries/drivers/drv_gpio.c:302:35
	str	r0, [sp]                        @ 4-byte Spill
	str	r0, [r2, #4]
	.loc	3 303 21 is_stmt 1              @ libraries/drivers/drv_gpio.c:303:21
	ldr	r2, [sp, #4]
	.loc	3 303 5 is_stmt 0               @ libraries/drivers/drv_gpio.c:303:5
	add.w	r2, r2, r2, lsl #1
	add.w	r2, r1, r2, lsl #2
	.loc	3 303 36                        @ libraries/drivers/drv_gpio.c:303:36
	strh	r0, [r2, #2]
	.loc	3 304 21 is_stmt 1              @ libraries/drivers/drv_gpio.c:304:21
	ldr	r2, [sp, #4]
	.loc	3 304 5 is_stmt 0               @ libraries/drivers/drv_gpio.c:304:5
	add.w	r2, r2, r2, lsl #1
	add.w	r1, r1, r2, lsl #2
	.loc	3 304 36                        @ libraries/drivers/drv_gpio.c:304:36
	str	r0, [r1, #8]
	.loc	3 305 28 is_stmt 1              @ libraries/drivers/drv_gpio.c:305:28
	ldr	r0, [sp, #8]
	.loc	3 305 5 is_stmt 0               @ libraries/drivers/drv_gpio.c:305:5
	bl	rt_hw_interrupt_enable
	ldr	r0, [sp]                        @ 4-byte Reload
	.loc	3 307 5 is_stmt 1               @ libraries/drivers/drv_gpio.c:307:5
	str	r0, [sp, #20]
	b	.LBB15_8
.LBB15_8:
	.loc	3 308 1                         @ libraries/drivers/drv_gpio.c:308:1
	ldr	r0, [sp, #20]
	add	sp, #24
	pop	{r7, pc}
.Ltmp117:
.Lfunc_end15:
	.size	stm32_pin_dettach_irq, .Lfunc_end15-stm32_pin_dettach_irq
	.cfi_endproc
	.cantunwind
	.fnend
                                        @ -- End function
	.section	.text.stm32_pin_irq_enable,"ax",%progbits
	.p2align	3                               @ -- Begin function stm32_pin_irq_enable
	.type	stm32_pin_irq_enable,%function
	.code	16                              @ @stm32_pin_irq_enable
	.thumb_func
stm32_pin_irq_enable:
.Lfunc_begin16:
	.loc	3 312 0                         @ libraries/drivers/drv_gpio.c:312:0
	.fnstart
	.cfi_startproc
@ %bb.0:
	.save	{r7, lr}
	push	{r7, lr}
	.cfi_def_cfa_offset 8
	.cfi_offset lr, -4
	.cfi_offset r7, -8
	.pad	#56
	sub	sp, #56
	.cfi_def_cfa_offset 64
	str	r0, [sp, #48]
	str	r1, [sp, #44]
	str	r2, [sp, #40]
	mov.w	r0, #-1
.Ltmp118:
	.loc	3 315 16 prologue_end           @ libraries/drivers/drv_gpio.c:315:16
	str	r0, [sp, #28]
.Ltmp119:
	.loc	3 318 9                         @ libraries/drivers/drv_gpio.c:318:9
	ldrb.w	r0, [sp, #44]
	lsrs	r0, r0, #4
.Ltmp120:
	.loc	3 318 9 is_stmt 0               @ libraries/drivers/drv_gpio.c:318:9
	cmp	r0, #11
	blo	.LBB16_2
	b	.LBB16_1
.LBB16_1:
	.loc	3 0 9                           @ libraries/drivers/drv_gpio.c:0:9
	mvn	r0, #5
.Ltmp121:
	.loc	3 320 9 is_stmt 1               @ libraries/drivers/drv_gpio.c:320:9
	str	r0, [sp, #52]
	b	.LBB16_34
.Ltmp122:
.LBB16_2:
	.loc	3 323 9                         @ libraries/drivers/drv_gpio.c:323:9
	ldr	r0, [sp, #40]
.Ltmp123:
	.loc	3 323 9 is_stmt 0               @ libraries/drivers/drv_gpio.c:323:9
	cmp	r0, #1
	bne.w	.LBB16_15
	b	.LBB16_3
.LBB16_3:
.Ltmp124:
	.loc	3 325 30 is_stmt 1              @ libraries/drivers/drv_gpio.c:325:30
	ldr	r0, [sp, #44]
	and	r1, r0, #15
	movs	r0, #1
	lsls	r0, r1
	uxth	r0, r0
	.loc	3 325 20 is_stmt 0              @ libraries/drivers/drv_gpio.c:325:20
	bl	bit2bitno
	.loc	3 325 18                        @ libraries/drivers/drv_gpio.c:325:18
	str	r0, [sp, #28]
.Ltmp125:
	.loc	3 326 13 is_stmt 1              @ libraries/drivers/drv_gpio.c:326:13
	ldr	r0, [sp, #28]
	.loc	3 326 26 is_stmt 0              @ libraries/drivers/drv_gpio.c:326:26
	cmp	r0, #0
	bmi	.LBB16_5
	b	.LBB16_4
.LBB16_4:
	.loc	3 326 29                        @ libraries/drivers/drv_gpio.c:326:29
	ldr	r0, [sp, #28]
.Ltmp126:
	.loc	3 326 13                        @ libraries/drivers/drv_gpio.c:326:13
	cmp	r0, #16
	blo	.LBB16_6
	b	.LBB16_5
.LBB16_5:
	.loc	3 0 13                          @ libraries/drivers/drv_gpio.c:0:13
	movs	r0, #6
.Ltmp127:
	.loc	3 328 13 is_stmt 1              @ libraries/drivers/drv_gpio.c:328:13
	str	r0, [sp, #52]
	b	.LBB16_34
.Ltmp128:
.LBB16_6:
	.loc	3 331 17                        @ libraries/drivers/drv_gpio.c:331:17
	bl	rt_hw_interrupt_disable
	.loc	3 331 15 is_stmt 0              @ libraries/drivers/drv_gpio.c:331:15
	str	r0, [sp, #32]
.Ltmp129:
	.loc	3 333 29 is_stmt 1              @ libraries/drivers/drv_gpio.c:333:29
	ldr	r0, [sp, #28]
	.loc	3 333 13 is_stmt 0              @ libraries/drivers/drv_gpio.c:333:13
	add.w	r1, r0, r0, lsl #1
	movw	r0, :lower16:pin_irq_hdr_tab
	movt	r0, :upper16:pin_irq_hdr_tab
	.loc	3 333 39                        @ libraries/drivers/drv_gpio.c:333:39
	ldrsh.w	r0, [r0, r1, lsl #2]
.Ltmp130:
	.loc	3 333 13                        @ libraries/drivers/drv_gpio.c:333:13
	adds	r0, #1
	cbnz	r0, .LBB16_8
	b	.LBB16_7
.LBB16_7:
.Ltmp131:
	.loc	3 335 36 is_stmt 1              @ libraries/drivers/drv_gpio.c:335:36
	ldr	r0, [sp, #32]
	.loc	3 335 13 is_stmt 0              @ libraries/drivers/drv_gpio.c:335:13
	bl	rt_hw_interrupt_enable
	movs	r0, #6
	.loc	3 336 13 is_stmt 1              @ libraries/drivers/drv_gpio.c:336:13
	str	r0, [sp, #52]
	b	.LBB16_34
.Ltmp132:
.LBB16_8:
	.loc	3 339 31                        @ libraries/drivers/drv_gpio.c:339:31
	ldr	r1, [sp, #28]
	.loc	3 339 19 is_stmt 0              @ libraries/drivers/drv_gpio.c:339:19
	movw	r0, :lower16:pin_irq_map
	movt	r0, :upper16:pin_irq_map
	add.w	r0, r0, r1, lsl #2
	.loc	3 339 16                        @ libraries/drivers/drv_gpio.c:339:16
	str	r0, [sp, #36]
	.loc	3 342 31 is_stmt 1              @ libraries/drivers/drv_gpio.c:342:31
	ldr	r0, [sp, #44]
	and	r1, r0, #15
	movs	r0, #1
	lsls	r0, r1
	uxth	r0, r0
	.loc	3 342 29 is_stmt 0              @ libraries/drivers/drv_gpio.c:342:29
	str	r0, [sp, #8]
	movs	r0, #2
	.loc	3 343 31 is_stmt 1              @ libraries/drivers/drv_gpio.c:343:31
	str	r0, [sp, #20]
	.loc	3 344 33                        @ libraries/drivers/drv_gpio.c:344:33
	ldr	r0, [sp, #28]
	.loc	3 344 17 is_stmt 0              @ libraries/drivers/drv_gpio.c:344:17
	add.w	r1, r0, r0, lsl #1
	movw	r0, :lower16:pin_irq_hdr_tab
	movt	r0, :upper16:pin_irq_hdr_tab
	add.w	r0, r0, r1, lsl #2
	.loc	3 344 43                        @ libraries/drivers/drv_gpio.c:344:43
	ldrh	r0, [r0, #2]
	.loc	3 344 9                         @ libraries/drivers/drv_gpio.c:344:9
	mov	r1, r0
	str	r1, [sp, #4]                    @ 4-byte Spill
	cbz	r0, .LBB16_11
	b	.LBB16_9
.LBB16_9:
	ldr	r0, [sp, #4]                    @ 4-byte Reload
	cmp	r0, #1
	beq	.LBB16_12
	b	.LBB16_10
.LBB16_10:
	ldr	r0, [sp, #4]                    @ 4-byte Reload
	cmp	r0, #2
	beq	.LBB16_13
	b	.LBB16_14
.LBB16_11:
	.loc	3 0 9                           @ libraries/drivers/drv_gpio.c:0:9
	movs	r0, #2
.Ltmp133:
	.loc	3 347 34 is_stmt 1              @ libraries/drivers/drv_gpio.c:347:34
	str	r0, [sp, #16]
	movs	r0, #0
	movt	r0, #4369
	.loc	3 348 34                        @ libraries/drivers/drv_gpio.c:348:34
	str	r0, [sp, #12]
	.loc	3 349 13                        @ libraries/drivers/drv_gpio.c:349:13
	b	.LBB16_14
.LBB16_12:
	.loc	3 0 13 is_stmt 0                @ libraries/drivers/drv_gpio.c:0:13
	movs	r0, #1
	.loc	3 351 34 is_stmt 1              @ libraries/drivers/drv_gpio.c:351:34
	str	r0, [sp, #16]
	movs	r0, #0
	movt	r0, #4385
	.loc	3 352 34                        @ libraries/drivers/drv_gpio.c:352:34
	str	r0, [sp, #12]
	.loc	3 353 13                        @ libraries/drivers/drv_gpio.c:353:13
	b	.LBB16_14
.LBB16_13:
	.loc	3 0 13 is_stmt 0                @ libraries/drivers/drv_gpio.c:0:13
	movs	r0, #0
	.loc	3 355 34 is_stmt 1              @ libraries/drivers/drv_gpio.c:355:34
	str	r0, [sp, #16]
	movs	r0, #0
	movt	r0, #4401
	.loc	3 356 34                        @ libraries/drivers/drv_gpio.c:356:34
	str	r0, [sp, #12]
	.loc	3 357 13                        @ libraries/drivers/drv_gpio.c:357:13
	b	.LBB16_14
.Ltmp134:
.LBB16_14:
	.loc	3 359 23                        @ libraries/drivers/drv_gpio.c:359:23
	ldr	r1, [sp, #44]
	mov.w	r0, #15360
	and.w	r0, r0, r1, lsl #6
	movs	r1, #0
	movt	r1, #22530
	orrs	r0, r1
	add	r1, sp, #8
	.loc	3 359 9 is_stmt 0               @ libraries/drivers/drv_gpio.c:359:9
	bl	HAL_GPIO_Init
	.loc	3 361 30 is_stmt 1              @ libraries/drivers/drv_gpio.c:361:30
	ldr	r0, [sp, #36]
	.loc	3 361 38 is_stmt 0              @ libraries/drivers/drv_gpio.c:361:38
	ldrsh.w	r0, [r0, #2]
	movs	r1, #5
	movs	r2, #0
	.loc	3 361 9                         @ libraries/drivers/drv_gpio.c:361:9
	bl	HAL_NVIC_SetPriority
	.loc	3 362 28 is_stmt 1              @ libraries/drivers/drv_gpio.c:362:28
	ldr	r0, [sp, #36]
	.loc	3 362 36 is_stmt 0              @ libraries/drivers/drv_gpio.c:362:36
	ldrsh.w	r0, [r0, #2]
	.loc	3 362 9                         @ libraries/drivers/drv_gpio.c:362:9
	bl	HAL_NVIC_EnableIRQ
	.loc	3 363 32 is_stmt 1              @ libraries/drivers/drv_gpio.c:363:32
	ldr	r0, [sp, #36]
	.loc	3 363 40 is_stmt 0              @ libraries/drivers/drv_gpio.c:363:40
	ldrh	r2, [r0]
	.loc	3 363 29                        @ libraries/drivers/drv_gpio.c:363:29
	movw	r1, :lower16:pin_irq_enable_mask
	movt	r1, :upper16:pin_irq_enable_mask
	ldr	r0, [r1]
	orrs	r0, r2
	str	r0, [r1]
	.loc	3 365 32 is_stmt 1              @ libraries/drivers/drv_gpio.c:365:32
	ldr	r0, [sp, #32]
	.loc	3 365 9 is_stmt 0               @ libraries/drivers/drv_gpio.c:365:9
	bl	rt_hw_interrupt_enable
	.loc	3 366 5 is_stmt 1               @ libraries/drivers/drv_gpio.c:366:5
	b	.LBB16_33
.Ltmp135:
.LBB16_15:
	.loc	3 367 14                        @ libraries/drivers/drv_gpio.c:367:14
	ldr	r0, [sp, #40]
.Ltmp136:
	.loc	3 367 14 is_stmt 0              @ libraries/drivers/drv_gpio.c:367:14
	cmp	r0, #0
	bne	.LBB16_31
	b	.LBB16_16
.LBB16_16:
.Ltmp137:
	.loc	3 369 34 is_stmt 1              @ libraries/drivers/drv_gpio.c:369:34
	ldr	r0, [sp, #44]
	and	r1, r0, #15
	movs	r0, #1
	lsls	r0, r1
	uxth	r0, r0
	.loc	3 369 18 is_stmt 0              @ libraries/drivers/drv_gpio.c:369:18
	bl	get_pin_irq_map
	.loc	3 369 16                        @ libraries/drivers/drv_gpio.c:369:16
	str	r0, [sp, #36]
.Ltmp138:
	.loc	3 370 13 is_stmt 1              @ libraries/drivers/drv_gpio.c:370:13
	ldr	r0, [sp, #36]
.Ltmp139:
	.loc	3 370 13 is_stmt 0              @ libraries/drivers/drv_gpio.c:370:13
	cbnz	r0, .LBB16_18
	b	.LBB16_17
.LBB16_17:
	.loc	3 0 13                          @ libraries/drivers/drv_gpio.c:0:13
	movs	r0, #6
.Ltmp140:
	.loc	3 372 13 is_stmt 1              @ libraries/drivers/drv_gpio.c:372:13
	str	r0, [sp, #52]
	b	.LBB16_34
.Ltmp141:
.LBB16_18:
	.loc	3 375 17                        @ libraries/drivers/drv_gpio.c:375:17
	bl	rt_hw_interrupt_disable
	.loc	3 375 15 is_stmt 0              @ libraries/drivers/drv_gpio.c:375:15
	str	r0, [sp, #32]
	.loc	3 377 25 is_stmt 1              @ libraries/drivers/drv_gpio.c:377:25
	ldr	r1, [sp, #44]
	mov.w	r0, #15360
	and.w	r0, r0, r1, lsl #6
	movs	r2, #0
	movt	r2, #22530
	orrs	r0, r2
	.loc	3 377 42 is_stmt 0              @ libraries/drivers/drv_gpio.c:377:42
	and	r2, r1, #15
	movs	r1, #1
	lsls	r1, r2
	uxth	r1, r1
	.loc	3 377 9                         @ libraries/drivers/drv_gpio.c:377:9
	bl	HAL_GPIO_DeInit
	.loc	3 379 33 is_stmt 1              @ libraries/drivers/drv_gpio.c:379:33
	ldr	r0, [sp, #36]
	.loc	3 379 41 is_stmt 0              @ libraries/drivers/drv_gpio.c:379:41
	ldrh	r2, [r0]
	.loc	3 379 29                        @ libraries/drivers/drv_gpio.c:379:29
	movw	r1, :lower16:pin_irq_enable_mask
	movt	r1, :upper16:pin_irq_enable_mask
	ldr	r0, [r1]
	bics	r0, r2
	str	r0, [r1]
.Ltmp142:
	.loc	3 381 14 is_stmt 1              @ libraries/drivers/drv_gpio.c:381:14
	ldr	r0, [sp, #36]
	.loc	3 381 22 is_stmt 0              @ libraries/drivers/drv_gpio.c:381:22
	ldrh	r0, [r0]
	.loc	3 381 44                        @ libraries/drivers/drv_gpio.c:381:44
	cmp	r0, #32
	blt	.LBB16_23
	b	.LBB16_19
.LBB16_19:
	.loc	3 381 48                        @ libraries/drivers/drv_gpio.c:381:48
	ldr	r0, [sp, #36]
	.loc	3 381 56                        @ libraries/drivers/drv_gpio.c:381:56
	ldrh	r0, [r0]
.Ltmp143:
	.loc	3 381 13                        @ libraries/drivers/drv_gpio.c:381:13
	cmp.w	r0, #512
	bgt	.LBB16_23
	b	.LBB16_20
.LBB16_20:
.Ltmp144:
	.loc	3 383 19 is_stmt 1              @ libraries/drivers/drv_gpio.c:383:19
	movw	r0, :lower16:pin_irq_enable_mask
	movt	r0, :upper16:pin_irq_enable_mask
.Ltmp145:
	.loc	3 383 17 is_stmt 0              @ libraries/drivers/drv_gpio.c:383:17
	ldrh	r0, [r0]
	tst.w	r0, #992
	bne	.LBB16_22
	b	.LBB16_21
.LBB16_21:
.Ltmp146:
	.loc	3 385 37 is_stmt 1              @ libraries/drivers/drv_gpio.c:385:37
	ldr	r0, [sp, #36]
	.loc	3 385 45 is_stmt 0              @ libraries/drivers/drv_gpio.c:385:45
	ldrsh.w	r0, [r0, #2]
	.loc	3 385 17                        @ libraries/drivers/drv_gpio.c:385:17
	bl	HAL_NVIC_DisableIRQ
	.loc	3 386 13 is_stmt 1              @ libraries/drivers/drv_gpio.c:386:13
	b	.LBB16_22
.Ltmp147:
.LBB16_22:
	.loc	3 387 9                         @ libraries/drivers/drv_gpio.c:387:9
	b	.LBB16_30
.Ltmp148:
.LBB16_23:
	.loc	3 388 19                        @ libraries/drivers/drv_gpio.c:388:19
	ldr	r0, [sp, #36]
	.loc	3 388 27 is_stmt 0              @ libraries/drivers/drv_gpio.c:388:27
	ldrh	r0, [r0]
	.loc	3 388 50                        @ libraries/drivers/drv_gpio.c:388:50
	cmp.w	r0, #1024
	blt	.LBB16_28
	b	.LBB16_24
.LBB16_24:
	.loc	3 388 54                        @ libraries/drivers/drv_gpio.c:388:54
	ldr	r0, [sp, #36]
	.loc	3 388 62                        @ libraries/drivers/drv_gpio.c:388:62
	ldrh	r0, [r0]
.Ltmp149:
	.loc	3 388 18                        @ libraries/drivers/drv_gpio.c:388:18
	cmp.w	r0, #32768
	bgt	.LBB16_28
	b	.LBB16_25
.LBB16_25:
.Ltmp150:
	.loc	3 390 19 is_stmt 1              @ libraries/drivers/drv_gpio.c:390:19
	movw	r0, :lower16:pin_irq_enable_mask
	movt	r0, :upper16:pin_irq_enable_mask
.Ltmp151:
	.loc	3 390 17 is_stmt 0              @ libraries/drivers/drv_gpio.c:390:17
	ldrb	r0, [r0, #1]
	tst.w	r0, #252
	bne	.LBB16_27
	b	.LBB16_26
.LBB16_26:
.Ltmp152:
	.loc	3 392 37 is_stmt 1              @ libraries/drivers/drv_gpio.c:392:37
	ldr	r0, [sp, #36]
	.loc	3 392 45 is_stmt 0              @ libraries/drivers/drv_gpio.c:392:45
	ldrsh.w	r0, [r0, #2]
	.loc	3 392 17                        @ libraries/drivers/drv_gpio.c:392:17
	bl	HAL_NVIC_DisableIRQ
	.loc	3 393 13 is_stmt 1              @ libraries/drivers/drv_gpio.c:393:13
	b	.LBB16_27
.Ltmp153:
.LBB16_27:
	.loc	3 394 9                         @ libraries/drivers/drv_gpio.c:394:9
	b	.LBB16_29
.Ltmp154:
.LBB16_28:
	.loc	3 397 33                        @ libraries/drivers/drv_gpio.c:397:33
	ldr	r0, [sp, #36]
	.loc	3 397 41 is_stmt 0              @ libraries/drivers/drv_gpio.c:397:41
	ldrsh.w	r0, [r0, #2]
	.loc	3 397 13                        @ libraries/drivers/drv_gpio.c:397:13
	bl	HAL_NVIC_DisableIRQ
	b	.LBB16_29
.Ltmp155:
.LBB16_29:
	.loc	3 0 13                          @ libraries/drivers/drv_gpio.c:0:13
	b	.LBB16_30
.LBB16_30:
	.loc	3 400 32 is_stmt 1              @ libraries/drivers/drv_gpio.c:400:32
	ldr	r0, [sp, #32]
	.loc	3 400 9 is_stmt 0               @ libraries/drivers/drv_gpio.c:400:9
	bl	rt_hw_interrupt_enable
	.loc	3 401 5 is_stmt 1               @ libraries/drivers/drv_gpio.c:401:5
	b	.LBB16_32
.Ltmp156:
.LBB16_31:
	.loc	3 0 5 is_stmt 0                 @ libraries/drivers/drv_gpio.c:0:5
	mvn	r0, #5
.Ltmp157:
	.loc	3 404 9 is_stmt 1               @ libraries/drivers/drv_gpio.c:404:9
	str	r0, [sp, #52]
	b	.LBB16_34
.Ltmp158:
.LBB16_32:
	.loc	3 0 9 is_stmt 0                 @ libraries/drivers/drv_gpio.c:0:9
	b	.LBB16_33
.LBB16_33:
	movs	r0, #0
	.loc	3 407 5 is_stmt 1               @ libraries/drivers/drv_gpio.c:407:5
	str	r0, [sp, #52]
	b	.LBB16_34
.LBB16_34:
	.loc	3 408 1                         @ libraries/drivers/drv_gpio.c:408:1
	ldr	r0, [sp, #52]
	add	sp, #56
	pop	{r7, pc}
.Ltmp159:
.Lfunc_end16:
	.size	stm32_pin_irq_enable, .Lfunc_end16-stm32_pin_irq_enable
	.cfi_endproc
	.cantunwind
	.fnend
                                        @ -- End function
	.section	.text.stm32_pin_get,"ax",%progbits
	.p2align	3                               @ -- Begin function stm32_pin_get
	.type	stm32_pin_get,%function
	.code	16                              @ @stm32_pin_get
	.thumb_func
stm32_pin_get:
.Lfunc_begin17:
	.loc	3 101 0                         @ libraries/drivers/drv_gpio.c:101:0
	.fnstart
	.cfi_startproc
@ %bb.0:
	.save	{r7, lr}
	push	{r7, lr}
	.cfi_def_cfa_offset 8
	.cfi_offset lr, -4
	.cfi_offset r7, -8
	.pad	#32
	sub	sp, #32
	.cfi_def_cfa_offset 40
	str	r0, [sp, #24]
	movs	r0, #0
.Ltmp160:
	.loc	3 102 15 prologue_end           @ libraries/drivers/drv_gpio.c:102:15
	str	r0, [sp, #20]
	.loc	3 103 22                        @ libraries/drivers/drv_gpio.c:103:22
	str	r0, [sp, #12]
	.loc	3 106 26                        @ libraries/drivers/drv_gpio.c:106:26
	ldr	r0, [sp, #24]
	.loc	3 106 16 is_stmt 0              @ libraries/drivers/drv_gpio.c:106:16
	bl	rt_strlen
	.loc	3 106 14                        @ libraries/drivers/drv_gpio.c:106:14
	str	r0, [sp, #4]
.Ltmp161:
	.loc	3 108 10 is_stmt 1              @ libraries/drivers/drv_gpio.c:108:10
	ldr	r0, [sp, #4]
	.loc	3 108 24 is_stmt 0              @ libraries/drivers/drv_gpio.c:108:24
	cmp	r0, #4
	blt	.LBB17_2
	b	.LBB17_1
.LBB17_1:
	.loc	3 108 28                        @ libraries/drivers/drv_gpio.c:108:28
	ldr	r0, [sp, #4]
.Ltmp162:
	.loc	3 108 9                         @ libraries/drivers/drv_gpio.c:108:9
	cmp	r0, #6
	blt	.LBB17_3
	b	.LBB17_2
.LBB17_2:
	.loc	3 0 9                           @ libraries/drivers/drv_gpio.c:0:9
	mvn	r0, #9
.Ltmp163:
	.loc	3 110 9 is_stmt 1               @ libraries/drivers/drv_gpio.c:110:9
	str	r0, [sp, #28]
	b	.LBB17_15
.Ltmp164:
.LBB17_3:
	.loc	3 112 10                        @ libraries/drivers/drv_gpio.c:112:10
	ldr	r0, [sp, #24]
	ldrsb.w	r0, [r0]
	.loc	3 112 26 is_stmt 0              @ libraries/drivers/drv_gpio.c:112:26
	cmp	r0, #80
	bne	.LBB17_5
	b	.LBB17_4
.LBB17_4:
	.loc	3 112 30                        @ libraries/drivers/drv_gpio.c:112:30
	ldr	r0, [sp, #24]
	ldrsb.w	r0, [r0, #2]
.Ltmp165:
	.loc	3 112 9                         @ libraries/drivers/drv_gpio.c:112:9
	cmp	r0, #46
	beq	.LBB17_6
	b	.LBB17_5
.LBB17_5:
	.loc	3 0 9                           @ libraries/drivers/drv_gpio.c:0:9
	mvn	r0, #9
.Ltmp166:
	.loc	3 114 9 is_stmt 1               @ libraries/drivers/drv_gpio.c:114:9
	str	r0, [sp, #28]
	b	.LBB17_15
.Ltmp167:
.LBB17_6:
	.loc	3 117 10                        @ libraries/drivers/drv_gpio.c:117:10
	ldr	r0, [sp, #24]
	ldrsb.w	r0, [r0, #1]
	.loc	3 117 26 is_stmt 0              @ libraries/drivers/drv_gpio.c:117:26
	cmp	r0, #65
	blt	.LBB17_9
	b	.LBB17_7
.LBB17_7:
	.loc	3 117 30                        @ libraries/drivers/drv_gpio.c:117:30
	ldr	r0, [sp, #24]
	ldrsb.w	r0, [r0, #1]
.Ltmp168:
	.loc	3 117 9                         @ libraries/drivers/drv_gpio.c:117:9
	cmp	r0, #90
	bgt	.LBB17_9
	b	.LBB17_8
.LBB17_8:
.Ltmp169:
	.loc	3 119 29 is_stmt 1              @ libraries/drivers/drv_gpio.c:119:29
	ldr	r0, [sp, #24]
	ldrsb.w	r0, [r0, #1]
	.loc	3 119 37 is_stmt 0              @ libraries/drivers/drv_gpio.c:119:37
	subs	r0, #65
	.loc	3 119 21                        @ libraries/drivers/drv_gpio.c:119:21
	str	r0, [sp, #16]
	.loc	3 120 5 is_stmt 1               @ libraries/drivers/drv_gpio.c:120:5
	b	.LBB17_10
.Ltmp170:
.LBB17_9:
	.loc	3 0 5 is_stmt 0                 @ libraries/drivers/drv_gpio.c:0:5
	mvn	r0, #9
.Ltmp171:
	.loc	3 123 9 is_stmt 1               @ libraries/drivers/drv_gpio.c:123:9
	str	r0, [sp, #28]
	b	.LBB17_15
.Ltmp172:
.LBB17_10:
	.loc	3 0 9 is_stmt 0                 @ libraries/drivers/drv_gpio.c:0:9
	movs	r0, #3
.Ltmp173:
	.loc	3 126 12 is_stmt 1              @ libraries/drivers/drv_gpio.c:126:12
	str	r0, [sp, #8]
	.loc	3 126 10 is_stmt 0              @ libraries/drivers/drv_gpio.c:126:10
	b	.LBB17_11
.LBB17_11:                              @ =>This Inner Loop Header: Depth=1
.Ltmp174:
	.loc	3 126 17                        @ libraries/drivers/drv_gpio.c:126:17
	ldr	r0, [sp, #8]
	.loc	3 126 21                        @ libraries/drivers/drv_gpio.c:126:21
	ldr	r1, [sp, #4]
.Ltmp175:
	.loc	3 126 5                         @ libraries/drivers/drv_gpio.c:126:5
	cmp	r0, r1
	bge	.LBB17_14
	b	.LBB17_12
.LBB17_12:                              @   in Loop: Header=BB17_11 Depth=1
.Ltmp176:
	.loc	3 128 20 is_stmt 1              @ libraries/drivers/drv_gpio.c:128:20
	ldr	r0, [sp, #12]
	add.w	r0, r0, r0, lsl #2
	lsls	r0, r0, #1
	str	r0, [sp, #12]
	.loc	3 129 23                        @ libraries/drivers/drv_gpio.c:129:23
	ldr	r0, [sp, #24]
	.loc	3 129 28 is_stmt 0              @ libraries/drivers/drv_gpio.c:129:28
	ldr	r1, [sp, #8]
	.loc	3 129 23                        @ libraries/drivers/drv_gpio.c:129:23
	ldrsb	r0, [r0, r1]
	.loc	3 129 20                        @ libraries/drivers/drv_gpio.c:129:20
	ldr	r1, [sp, #12]
	add	r0, r1
	subs	r0, #48
	str	r0, [sp, #12]
	.loc	3 130 5 is_stmt 1               @ libraries/drivers/drv_gpio.c:130:5
	b	.LBB17_13
.Ltmp177:
.LBB17_13:                              @   in Loop: Header=BB17_11 Depth=1
	.loc	3 126 32                        @ libraries/drivers/drv_gpio.c:126:32
	ldr	r0, [sp, #8]
	adds	r0, #1
	str	r0, [sp, #8]
	.loc	3 126 5 is_stmt 0               @ libraries/drivers/drv_gpio.c:126:5
	b	.LBB17_11
.Ltmp178:
.LBB17_14:
	.loc	3 132 11 is_stmt 1              @ libraries/drivers/drv_gpio.c:132:11
	ldr	r0, [sp, #16]
	and	r1, r0, #15
	ldr	r0, [sp, #12]
	and	r0, r0, #15
	orr.w	r0, r0, r1, lsl #4
	.loc	3 132 9 is_stmt 0               @ libraries/drivers/drv_gpio.c:132:9
	str	r0, [sp, #20]
	.loc	3 134 12 is_stmt 1              @ libraries/drivers/drv_gpio.c:134:12
	ldr	r0, [sp, #20]
	.loc	3 134 5 is_stmt 0               @ libraries/drivers/drv_gpio.c:134:5
	str	r0, [sp, #28]
	b	.LBB17_15
.LBB17_15:
	.loc	3 135 1 is_stmt 1               @ libraries/drivers/drv_gpio.c:135:1
	ldr	r0, [sp, #28]
	add	sp, #32
	pop	{r7, pc}
.Ltmp179:
.Lfunc_end17:
	.size	stm32_pin_get, .Lfunc_end17-stm32_pin_get
	.cfi_endproc
	.cantunwind
	.fnend
                                        @ -- End function
	.section	.text.get_pin_irq_map,"ax",%progbits
	.p2align	3                               @ -- Begin function get_pin_irq_map
	.type	get_pin_irq_map,%function
	.code	16                              @ @get_pin_irq_map
	.thumb_func
get_pin_irq_map:
.Lfunc_begin18:
	.loc	3 230 0                         @ libraries/drivers/drv_gpio.c:230:0
	.fnstart
	.cfi_startproc
@ %bb.0:
	.save	{r7, lr}
	push	{r7, lr}
	.cfi_def_cfa_offset 8
	.cfi_offset lr, -4
	.cfi_offset r7, -8
	.pad	#16
	sub	sp, #16
	.cfi_def_cfa_offset 24
	str	r0, [sp, #8]
.Ltmp180:
	.loc	3 231 37 prologue_end           @ libraries/drivers/drv_gpio.c:231:37
	ldr	r0, [sp, #8]
	.loc	3 231 27 is_stmt 0              @ libraries/drivers/drv_gpio.c:231:27
	bl	bit2bitno
	.loc	3 231 16                        @ libraries/drivers/drv_gpio.c:231:16
	str	r0, [sp, #4]
.Ltmp181:
	.loc	3 232 9 is_stmt 1               @ libraries/drivers/drv_gpio.c:232:9
	ldr	r0, [sp, #4]
	.loc	3 232 22 is_stmt 0              @ libraries/drivers/drv_gpio.c:232:22
	cmp	r0, #0
	bmi	.LBB18_2
	b	.LBB18_1
.LBB18_1:
	.loc	3 232 25                        @ libraries/drivers/drv_gpio.c:232:25
	ldr	r0, [sp, #4]
.Ltmp182:
	.loc	3 232 9                         @ libraries/drivers/drv_gpio.c:232:9
	cmp	r0, #16
	blo	.LBB18_3
	b	.LBB18_2
.LBB18_2:
	.loc	3 0 9                           @ libraries/drivers/drv_gpio.c:0:9
	movs	r0, #0
.Ltmp183:
	.loc	3 234 9 is_stmt 1               @ libraries/drivers/drv_gpio.c:234:9
	str	r0, [sp, #12]
	b	.LBB18_4
.Ltmp184:
.LBB18_3:
	.loc	3 236 25                        @ libraries/drivers/drv_gpio.c:236:25
	ldr	r1, [sp, #4]
	.loc	3 236 13 is_stmt 0              @ libraries/drivers/drv_gpio.c:236:13
	movw	r0, :lower16:pin_irq_map
	movt	r0, :upper16:pin_irq_map
	add.w	r0, r0, r1, lsl #2
	.loc	3 236 5                         @ libraries/drivers/drv_gpio.c:236:5
	str	r0, [sp, #12]
	b	.LBB18_4
.LBB18_4:
	.loc	3 237 1 is_stmt 1               @ libraries/drivers/drv_gpio.c:237:1
	ldr	r0, [sp, #12]
	add	sp, #16
	pop	{r7, pc}
.Ltmp185:
.Lfunc_end18:
	.size	get_pin_irq_map, .Lfunc_end18-get_pin_irq_map
	.cfi_endproc
	.cantunwind
	.fnend
                                        @ -- End function
	.type	.L.str,%object                  @ @.str
	.section	.rodata.str1.1,"aMS",%progbits,1
.L.str:
	.asciz	"pin"
	.size	.L.str, 4

	.type	_stm32_pin_ops,%object          @ @_stm32_pin_ops
	.section	.rodata._stm32_pin_ops,"a",%progbits
	.p2align	2
_stm32_pin_ops:
	.long	stm32_pin_mode
	.long	stm32_pin_write
	.long	stm32_pin_read
	.long	stm32_pin_attach_irq
	.long	stm32_pin_dettach_irq
	.long	stm32_pin_irq_enable
	.long	stm32_pin_get
	.size	_stm32_pin_ops, 28

	.type	pin_irq_hdr_tab,%object         @ @pin_irq_hdr_tab
	.section	.data.pin_irq_hdr_tab,"aw",%progbits
	.p2align	2
pin_irq_hdr_tab:
	.short	65535                           @ 0xffff
	.short	0                               @ 0x0
	.long	0
	.long	0
	.short	65535                           @ 0xffff
	.short	0                               @ 0x0
	.long	0
	.long	0
	.short	65535                           @ 0xffff
	.short	0                               @ 0x0
	.long	0
	.long	0
	.short	65535                           @ 0xffff
	.short	0                               @ 0x0
	.long	0
	.long	0
	.short	65535                           @ 0xffff
	.short	0                               @ 0x0
	.long	0
	.long	0
	.short	65535                           @ 0xffff
	.short	0                               @ 0x0
	.long	0
	.long	0
	.short	65535                           @ 0xffff
	.short	0                               @ 0x0
	.long	0
	.long	0
	.short	65535                           @ 0xffff
	.short	0                               @ 0x0
	.long	0
	.long	0
	.short	65535                           @ 0xffff
	.short	0                               @ 0x0
	.long	0
	.long	0
	.short	65535                           @ 0xffff
	.short	0                               @ 0x0
	.long	0
	.long	0
	.short	65535                           @ 0xffff
	.short	0                               @ 0x0
	.long	0
	.long	0
	.short	65535                           @ 0xffff
	.short	0                               @ 0x0
	.long	0
	.long	0
	.short	65535                           @ 0xffff
	.short	0                               @ 0x0
	.long	0
	.long	0
	.short	65535                           @ 0xffff
	.short	0                               @ 0x0
	.long	0
	.long	0
	.short	65535                           @ 0xffff
	.short	0                               @ 0x0
	.long	0
	.long	0
	.short	65535                           @ 0xffff
	.short	0                               @ 0x0
	.long	0
	.long	0
	.size	pin_irq_hdr_tab, 192

	.type	pin_irq_map,%object             @ @pin_irq_map
	.section	.rodata.pin_irq_map,"a",%progbits
	.p2align	1
pin_irq_map:
	.short	1                               @ 0x1
	.short	6                               @ 0x6
	.short	2                               @ 0x2
	.short	7                               @ 0x7
	.short	4                               @ 0x4
	.short	8                               @ 0x8
	.short	8                               @ 0x8
	.short	9                               @ 0x9
	.short	16                              @ 0x10
	.short	10                              @ 0xa
	.short	32                              @ 0x20
	.short	23                              @ 0x17
	.short	64                              @ 0x40
	.short	23                              @ 0x17
	.short	128                             @ 0x80
	.short	23                              @ 0x17
	.short	256                             @ 0x100
	.short	23                              @ 0x17
	.short	512                             @ 0x200
	.short	23                              @ 0x17
	.short	1024                            @ 0x400
	.short	40                              @ 0x28
	.short	2048                            @ 0x800
	.short	40                              @ 0x28
	.short	4096                            @ 0x1000
	.short	40                              @ 0x28
	.short	8192                            @ 0x2000
	.short	40                              @ 0x28
	.short	16384                           @ 0x4000
	.short	40                              @ 0x28
	.short	32768                           @ 0x8000
	.short	40                              @ 0x28
	.size	pin_irq_map, 64

	.type	pin_irq_enable_mask,%object     @ @pin_irq_enable_mask
	.section	.bss.pin_irq_enable_mask,"aw",%nobits
	.p2align	2
pin_irq_enable_mask:
	.long	0                               @ 0x0
	.size	pin_irq_enable_mask, 4

	.section	".note.GNU-stack","",%progbits
	.eabi_attribute	30, 6	@ Tag_ABI_optimization_goals
	.ARM_attribute	16, 1	@ Tag_AV_eba