	.text
	.syntax unified
	.eabi_attribute	67, "2.09"	@ Tag_conformance
	.cpu	cortex-m7
	.eabi_attribute	6, 13	@ Tag_CPU_arch
	.eabi_attribute	7, 77	@ Tag_CPU_arch_profile
	.eabi_attribute	8, 0	@ Tag_ARM_ISA_use
	.eabi_attribute	9, 2	@ Tag_THUMB_ISA_use
	.fpu	fpv5-d16
	.eabi_attribute	36, 1	@ Tag_FP_HP_extension
	.eabi_attribute	34, 1	@ Tag_CPU_unaligned_access
	.eabi_attribute	17, 1	@ Tag_ABI_PCS_GOT_use
	.eabi_attribute	20, 2	@ Tag_ABI_FP_denormal
	.eabi_attribute	21, 0	@ Tag_ABI_FP_exceptions
	.eabi_attribute	23, 1	@ Tag_ABI_FP_number_model
	.eabi_attribute	24, 1	@ Tag_ABI_align_needed
	.eabi_attribute	25, 1	@ Tag_ABI_align_preserved
	.eabi_attribute	28, 1	@ Tag_ABI_VFP_args
	.eabi_attribute	38, 1	@ Tag_ABI_FP_16bit_format
	.eabi_attribute	18, 2	@ Tag_ABI_PCS_wchar_t
	.eabi_attribute	26, 1	@ Tag_ABI_enum_size
	.eabi_attribute	14, 0	@ Tag_ABI_PCS_R9_use
	.file	"drv_sdram.c"
	.file	1 "E:\\Smart-access-control\\Hardware\\CODE" "rt-thread/include\\rtdef.h"
	.file	2 "E:\\Smart-access-control\\Hardware\\CODE" "libraries/drivers/drv_sdram.c"
	.file	3 "E:\\Smart-access-control\\Hardware\\CODE" "rt-thread/components/finsh\\finsh_api.h"
	.file	4 "D:\\Keil_v5\\ARM\\ARMCLANG\\Bin\\..\\include" "stdint.h"
	.file	5 "E:\\Smart-access-control\\Hardware\\CODE" "libraries/STM32H7xx_HAL/CMSIS/Device/ST/STM32H7xx/Include/stm32h750xx.h"
	.file	6 "E:\\Smart-access-control\\Hardware\\CODE" "libraries/STM32H7xx_HAL/STM32H7xx_HAL_Driver/Inc\\stm32h7xx_hal_sdram.h"
	.file	7 "E:\\Smart-access-control\\Hardware\\CODE" "libraries/STM32H7xx_HAL/STM32H7xx_HAL_Driver/Inc/stm32h7xx_ll_fmc.h"
	.file	8 "E:\\Smart-access-control\\Hardware\\CODE" "libraries/STM32H7xx_HAL/STM32H7xx_HAL_Driver/Inc/stm32h7xx_hal_def.h"
	.file	9 "E:\\Smart-access-control\\Hardware\\CODE" "libraries/STM32H7xx_HAL/STM32H7xx_HAL_Driver/Inc\\stm32h7xx_hal_mdma.h"
	.section	.text.SDRAM_Init,"ax",%progbits
	.p2align	3                               @ -- Begin function SDRAM_Init
	.type	SDRAM_Init,%function
	.code	16                              @ @SDRAM_Init
	.thumb_func
SDRAM_Init:
.Lfunc_begin0:
	.loc	2 105 0                         @ libraries/drivers/drv_sdram.c:105:0
	.fnstart
	.cfi_sections .debug_frame
	.cfi_startproc
@ %bb.0:
	.save	{r7, lr}
	push	{r7, lr}
	.cfi_def_cfa_offset 8
	.cfi_offset lr, -4
	.cfi_offset r7, -8
	.pad	#40
	sub	sp, #40
	.cfi_def_cfa_offset 48
	movs	r1, #0
.Ltmp0:
	.loc	2 106 9 prologue_end            @ libraries/drivers/drv_sdram.c:106:9
	str	r1, [sp, #36]
	.loc	2 110 22                        @ libraries/drivers/drv_sdram.c:110:22
	movw	r0, :lower16:hsdram1
	movt	r0, :upper16:hsdram1
	str	r0, [sp, #4]                    @ 4-byte Spill
	movw	r2, #16704
	movt	r2, #20992
	str	r2, [r0]
	movs	r3, #2
	.loc	2 111 39                        @ libraries/drivers/drv_sdram.c:111:39
	str	r3, [sp, #8]
	movs	r2, #8
	.loc	2 112 39                        @ libraries/drivers/drv_sdram.c:112:39
	str	r2, [sp, #12]
	mov.w	r12, #6
	.loc	2 113 39                        @ libraries/drivers/drv_sdram.c:113:39
	str.w	r12, [sp, #16]
	.loc	2 114 39                        @ libraries/drivers/drv_sdram.c:114:39
	str.w	r12, [sp, #20]
	.loc	2 115 39                        @ libraries/drivers/drv_sdram.c:115:39
	str	r3, [sp, #24]
	.loc	2 116 39                        @ libraries/drivers/drv_sdram.c:116:39
	str	r3, [sp, #28]
	.loc	2 117 39                        @ libraries/drivers/drv_sdram.c:117:39
	str	r3, [sp, #32]
	.loc	2 120 37                        @ libraries/drivers/drv_sdram.c:120:37
	str	r1, [r0, #4]
	movs	r3, #1
	.loc	2 127 37                        @ libraries/drivers/drv_sdram.c:127:37
	str	r3, [r0, #8]
	.loc	2 138 37                        @ libraries/drivers/drv_sdram.c:138:37
	str	r2, [r0, #12]
	movs	r2, #16
	.loc	2 144 37                        @ libraries/drivers/drv_sdram.c:144:37
	str	r2, [r0, #16]
	movs	r2, #64
	.loc	2 148 37                        @ libraries/drivers/drv_sdram.c:148:37
	str	r2, [r0, #20]
	mov.w	r2, #256
	.loc	2 152 37                        @ libraries/drivers/drv_sdram.c:152:37
	str	r2, [r0, #24]
	.loc	2 156 37                        @ libraries/drivers/drv_sdram.c:156:37
	str	r1, [r0, #28]
	mov.w	r2, #2048
	.loc	2 158 37                        @ libraries/drivers/drv_sdram.c:158:37
	str	r2, [r0, #32]
	mov.w	r2, #4096
	.loc	2 162 37                        @ libraries/drivers/drv_sdram.c:162:37
	str	r2, [r0, #36]
	.loc	2 164 37                        @ libraries/drivers/drv_sdram.c:164:37
	str	r1, [r0, #40]
	add	r1, sp, #8
.Ltmp1:
	.loc	2 172 9                         @ libraries/drivers/drv_sdram.c:172:9
	bl	HAL_SDRAM_Init
.Ltmp2:
	.loc	2 172 9 is_stmt 0               @ libraries/drivers/drv_sdram.c:172:9
	cbz	r0, .LBB0_4
	b	.LBB0_1
.LBB0_1:
.Ltmp3:
	.loc	2 174 9 is_stmt 1               @ libraries/drivers/drv_sdram.c:174:9
	b	.LBB0_2
.LBB0_2:
.Ltmp4:
	.loc	2 174 9 is_stmt 0               @ libraries/drivers/drv_sdram.c:174:9
	movw	r0, :lower16:.L.str.5
	movt	r0, :upper16:.L.str.5
	bl	rt_kprintf
	movw	r0, :lower16:.L.str.8
	movt	r0, :upper16:.L.str.8
	bl	rt_kprintf
	movw	r0, :lower16:.L.str.2
	movt	r0, :upper16:.L.str.2
	bl	rt_kprintf
	b	.LBB0_3
.Ltmp5:
.LBB0_3:
	.loc	2 0 9                           @ libraries/drivers/drv_sdram.c:0:9
	mov.w	r0, #-1
	.loc	2 175 16 is_stmt 1              @ libraries/drivers/drv_sdram.c:175:16
	str	r0, [sp, #36]
	.loc	2 176 5                         @ libraries/drivers/drv_sdram.c:176:5
	b	.LBB0_7
.Ltmp6:
.LBB0_4:
	.loc	2 180 9                         @ libraries/drivers/drv_sdram.c:180:9
	movw	r0, :lower16:hsdram1
	movt	r0, :upper16:hsdram1
	movw	r1, :lower16:command
	movt	r1, :upper16:command
	bl	SDRAM_Initialization_Sequence
	.loc	2 181 9                         @ libraries/drivers/drv_sdram.c:181:9
	b	.LBB0_5
.LBB0_5:
.Ltmp7:
	.loc	2 181 9 is_stmt 0               @ libraries/drivers/drv_sdram.c:181:9
	movw	r0, :lower16:.L.str
	movt	r0, :upper16:.L.str
	bl	rt_kprintf
	movw	r0, :lower16:.L.str.9
	movt	r0, :upper16:.L.str.9
	mov.w	r1, #-1073741824
	mov.w	r2, #33554432
	movs	r3, #16
	bl	rt_kprintf
	movw	r0, :lower16:.L.str.2
	movt	r0, :upper16:.L.str.2
	bl	rt_kprintf
	b	.LBB0_6
.Ltmp8:
.LBB0_6:
	.loc	2 184 9 is_stmt 1               @ libraries/drivers/drv_sdram.c:184:9
	movw	r0, :lower16:system_heap
	movt	r0, :upper16:system_heap
	movw	r1, :lower16:.L.str.10
	movt	r1, :upper16:.L.str.10
	mov.w	r2, #-1073741824
	mov.w	r3, #33554432
	bl	rt_memheap_init
	b	.LBB0_7
.Ltmp9:
.LBB0_7:
	.loc	2 188 12                        @ libraries/drivers/drv_sdram.c:188:12
	ldr	r0, [sp, #36]
	.loc	2 188 5 is_stmt 0               @ libraries/drivers/drv_sdram.c:188:5
	add	sp, #40
	pop	{r7, pc}
.Ltmp10:
.Lfunc_end0:
	.size	SDRAM_Init, .Lfunc_end0-SDRAM_Init
	.cfi_endproc
	.cantunwind
	.fnend
                                        @ -- End function
	.section	.text.sdram_test,"ax",%progbits
	.hidden	sdram_test                      @ -- Begin function sdram_test
	.globl	sdram_test
	.p2align	3
	.type	sdram_test,%function
	.code	16                              @ @sdram_test
	.thumb_func
sdram_test:
.Lfunc_begin1:
	.loc	2 195 0 is_stmt 1               @ libraries/drivers/drv_sdram.c:195:0
	.fnstart
	.cfi_startproc
@ %bb.0:
	.save	{r7, lr}
	push	{r7, lr}
	.cfi_def_cfa_offset 8
	.cfi_offset lr, -4
	.cfi_offset r7, -8
	.pad	#16
	sub	sp, #16
	.cfi_def_cfa_offset 24
	movs	r0, #0
.Ltmp11:
	.loc	2 196 9 prologue_end            @ libraries/drivers/drv_sdram.c:196:9
	str	r0, [sp, #12]
	.loc	2 197 14                        @ libraries/drivers/drv_sdram.c:197:14
	str	r0, [sp, #8]
	.loc	2 197 30 is_stmt 0              @ libraries/drivers/drv_sdram.c:197:30
	str	r0, [sp, #4]
	movs	r1, #2
	.loc	2 202 10 is_stmt 1              @ libraries/drivers/drv_sdram.c:202:10
	strb.w	r1, [sp, #3]
	.loc	2 203 14                        @ libraries/drivers/drv_sdram.c:203:14
	strh.w	r0, [sp]
	.loc	2 210 5                         @ libraries/drivers/drv_sdram.c:210:5
	b	.LBB1_1
.LBB1_1:
.Ltmp12:
	.loc	2 210 5 is_stmt 0               @ libraries/drivers/drv_sdram.c:210:5
	movw	r0, :lower16:.L.str
	movt	r0, :upper16:.L.str
	bl	rt_kprintf
	movw	r0, :lower16:.L.str.1
	movt	r0, :upper16:.L.str.1
	mov.w	r1, #33554432
	bl	rt_kprintf
	movw	r0, :lower16:.L.str.2
	movt	r0, :upper16:.L.str.2
	bl	rt_kprintf
	b	.LBB1_2
.Ltmp13:
.LBB1_2:
	.loc	2 211 18 is_stmt 1              @ libraries/drivers/drv_sdram.c:211:18
	bl	rt_tick_get
	.loc	2 211 16 is_stmt 0              @ libraries/drivers/drv_sdram.c:211:16
	str	r0, [sp, #8]
	movs	r0, #0
.Ltmp14:
	.loc	2 212 12 is_stmt 1              @ libraries/drivers/drv_sdram.c:212:12
	str	r0, [sp, #12]
	.loc	2 212 10 is_stmt 0              @ libraries/drivers/drv_sdram.c:212:10
	b	.LBB1_3
.LBB1_3:                                @ =>This Inner Loop Header: Depth=1
.Ltmp15:
	.loc	2 212 17                        @ libraries/drivers/drv_sdram.c:212:17
	ldr	r0, [sp, #12]
	.loc	2 212 34                        @ libraries/drivers/drv_sdram.c:212:34
	ldrsb.w	r2, [sp, #3]
	mov.w	r1, #33554432
	.loc	2 212 32                        @ libraries/drivers/drv_sdram.c:212:32
	udiv	r1, r1, r2
.Ltmp16:
	.loc	2 212 5                         @ libraries/drivers/drv_sdram.c:212:5
	cmp	r0, r1
	bhs	.LBB1_6
	b	.LBB1_4
.LBB1_4:                                @   in Loop: Header=BB1_3 Depth=1
.Ltmp17:
	.loc	2 217 46 is_stmt 1              @ libraries/drivers/drv_sdram.c:217:46
	ldr	r0, [sp, #12]
	.loc	2 217 50 is_stmt 0              @ libraries/drivers/drv_sdram.c:217:50
	ldrsb.w	r1, [sp, #3]
	.loc	2 217 48                        @ libraries/drivers/drv_sdram.c:217:48
	muls	r1, r0, r1
	mov.w	r2, #-1073741824
	movw	r0, #21845
	.loc	2 217 62                        @ libraries/drivers/drv_sdram.c:217:62
	strh	r0, [r1, r2]
	.loc	2 221 5 is_stmt 1               @ libraries/drivers/drv_sdram.c:221:5
	b	.LBB1_5
.Ltmp18:
.LBB1_5:                                @   in Loop: Header=BB1_3 Depth=1
	.loc	2 212 47                        @ libraries/drivers/drv_sdram.c:212:47
	ldr	r0, [sp, #12]
	adds	r0, #1
	str	r0, [sp, #12]
	.loc	2 212 5 is_stmt 0               @ libraries/drivers/drv_sdram.c:212:5
	b	.LBB1_3
.Ltmp19:
.LBB1_6:
	.loc	2 222 17 is_stmt 1              @ libraries/drivers/drv_sdram.c:222:17
	bl	rt_tick_get
	.loc	2 222 33 is_stmt 0              @ libraries/drivers/drv_sdram.c:222:33
	ldr	r1, [sp, #8]
	.loc	2 222 31                        @ libraries/drivers/drv_sdram.c:222:31
	subs	r0, r0, r1
	.loc	2 222 15                        @ libraries/drivers/drv_sdram.c:222:15
	str	r0, [sp, #4]
	.loc	2 223 5 is_stmt 1               @ libraries/drivers/drv_sdram.c:223:5
	b	.LBB1_7
.LBB1_7:
.Ltmp20:
	.loc	2 223 5 is_stmt 0               @ libraries/drivers/drv_sdram.c:223:5
	movw	r0, :lower16:.L.str
	movt	r0, :upper16:.L.str
	bl	rt_kprintf
	ldr	r2, [sp, #4]
	movw	r0, #19923
	movt	r0, #4194
	umull	r1, r0, r2, r0
	lsrs	r1, r0, #6
	mov.w	r0, #1000
	mls	r2, r1, r0, r2
	movw	r0, :lower16:.L.str.3
	movt	r0, :upper16:.L.str.3
	bl	rt_kprintf
	movw	r0, :lower16:.L.str.2
	movt	r0, :upper16:.L.str.2
	bl	rt_kprintf
	b	.LBB1_8
.Ltmp21:
.LBB1_8:
	.loc	2 227 5 is_stmt 1               @ libraries/drivers/drv_sdram.c:227:5
	b	.LBB1_9
.LBB1_9:
.Ltmp22:
	.loc	2 227 5 is_stmt 0               @ libraries/drivers/drv_sdram.c:227:5
	movw	r0, :lower16:.L.str
	movt	r0, :upper16:.L.str
	bl	rt_kprintf
	movw	r0, :lower16:.L.str.4
	movt	r0, :upper16:.L.str.4
	bl	rt_kprintf
	movw	r0, :lower16:.L.str.2
	movt	r0, :upper16:.L.str.2
	bl	rt_kprintf
	b	.LBB1_10
.Ltmp23:
.LBB1_10:
	.loc	2 0 5                           @ libraries/drivers/drv_sdram.c:0:5
	movs	r0, #0
.Ltmp24:
	.loc	2 228 12 is_stmt 1              @ libraries/drivers/drv_sdram.c:228:12
	str	r0, [sp, #12]
	.loc	2 228 10 is_stmt 0              @ libraries/drivers/drv_sdram.c:228:10
	b	.LBB1_11
.LBB1_11:                               @ =>This Inner Loop Header: Depth=1
.Ltmp25:
	.loc	2 228 17                        @ libraries/drivers/drv_sdram.c:228:17
	ldr	r0, [sp, #12]
	.loc	2 228 34                        @ libraries/drivers/drv_sdram.c:228:34
	ldrsb.w	r2, [sp, #3]
	mov.w	r1, #33554432
	.loc	2 228 32                        @ libraries/drivers/drv_sdram.c:228:32
	udiv	r1, r1, r2
.Ltmp26:
	.loc	2 228 5                         @ libraries/drivers/drv_sdram.c:228:5
	cmp	r0, r1
	bhs	.LBB1_18
	b	.LBB1_12
.LBB1_12:                               @   in Loop: Header=BB1_11 Depth=1
.Ltmp27:
	.loc	2 238 53 is_stmt 1              @ libraries/drivers/drv_sdram.c:238:53
	ldr	r0, [sp, #12]
	.loc	2 238 57 is_stmt 0              @ libraries/drivers/drv_sdram.c:238:57
	ldrsb.w	r1, [sp, #3]
	.loc	2 238 55                        @ libraries/drivers/drv_sdram.c:238:55
	muls	r0, r1, r0
	mov.w	r1, #-1073741824
	.loc	2 238 16                        @ libraries/drivers/drv_sdram.c:238:16
	ldrh	r0, [r0, r1]
	.loc	2 238 14                        @ libraries/drivers/drv_sdram.c:238:14
	strh.w	r0, [sp]
.Ltmp28:
	.loc	2 239 13 is_stmt 1              @ libraries/drivers/drv_sdram.c:239:13
	ldrh.w	r0, [sp]
	movw	r1, #21845
.Ltmp29:
	.loc	2 239 13 is_stmt 0              @ libraries/drivers/drv_sdram.c:239:13
	cmp	r0, r1
	beq	.LBB1_16
	b	.LBB1_13
.LBB1_13:
.Ltmp30:
	.loc	2 241 13 is_stmt 1              @ libraries/drivers/drv_sdram.c:241:13
	b	.LBB1_14
.LBB1_14:
.Ltmp31:
	.loc	2 241 13 is_stmt 0              @ libraries/drivers/drv_sdram.c:241:13
	movw	r0, :lower16:.L.str.5
	movt	r0, :upper16:.L.str.5
	bl	rt_kprintf
	movw	r0, :lower16:.L.str.6
	movt	r0, :upper16:.L.str.6
	bl	rt_kprintf
	movw	r0, :lower16:.L.str.2
	movt	r0, :upper16:.L.str.2
	bl	rt_kprintf
	b	.LBB1_15
.Ltmp32:
.LBB1_15:
	.loc	2 242 13 is_stmt 1              @ libraries/drivers/drv_sdram.c:242:13
	b	.LBB1_18
.Ltmp33:
.LBB1_16:                               @   in Loop: Header=BB1_11 Depth=1
	.loc	2 252 5                         @ libraries/drivers/drv_sdram.c:252:5
	b	.LBB1_17
.Ltmp34:
.LBB1_17:                               @   in Loop: Header=BB1_11 Depth=1
	.loc	2 228 47                        @ libraries/drivers/drv_sdram.c:228:47
	ldr	r0, [sp, #12]
	adds	r0, #1
	str	r0, [sp, #12]
	.loc	2 228 5 is_stmt 0               @ libraries/drivers/drv_sdram.c:228:5
	b	.LBB1_11
.Ltmp35:
.LBB1_18:
	.loc	2 254 9 is_stmt 1               @ libraries/drivers/drv_sdram.c:254:9
	ldr	r0, [sp, #12]
	.loc	2 254 27 is_stmt 0              @ libraries/drivers/drv_sdram.c:254:27
	ldrsb.w	r2, [sp, #3]
	mov.w	r1, #33554432
	.loc	2 254 25                        @ libraries/drivers/drv_sdram.c:254:25
	udiv	r1, r1, r2
.Ltmp36:
	.loc	2 254 9                         @ libraries/drivers/drv_sdram.c:254:9
	cmp	r0, r1
	blo	.LBB1_22
	b	.LBB1_19
.LBB1_19:
.Ltmp37:
	.loc	2 256 9 is_stmt 1               @ libraries/drivers/drv_sdram.c:256:9
	b	.LBB1_20
.LBB1_20:
.Ltmp38:
	.loc	2 256 9 is_stmt 0               @ libraries/drivers/drv_sdram.c:256:9
	movw	r0, :lower16:.L.str
	movt	r0, :upper16:.L.str
	bl	rt_kprintf
	movw	r0, :lower16:.L.str.7
	movt	r0, :upper16:.L.str.7
	bl	rt_kprintf
	movw	r0, :lower16:.L.str.2
	movt	r0, :upper16:.L.str.2
	bl	rt_kprintf
	b	.LBB1_21
.Ltmp39:
.LBB1_21:
	.loc	2 257 5 is_stmt 1               @ libraries/drivers/drv_sdram.c:257:5
	b	.LBB1_22
.Ltmp40:
.LBB1_22:
	.loc	2 0 5 is_stmt 0                 @ libraries/drivers/drv_sdram.c:0:5
	movs	r0, #0
	.loc	2 259 5 is_stmt 1               @ libraries/drivers/drv_sdram.c:259:5
	add	sp, #16
	pop	{r7, pc}
.Ltmp41:
.Lfunc_end1:
	.size	sdram_test, .Lfunc_end1-sdram_test
	.cfi_endproc
	.cantunwind
	.fnend
                                        @ -- End function
	.section	.text.SDRAM_Initialization_Sequence,"ax",%progbits
	.p2align	3                               @ -- Begin function SDRAM_Initialization_Sequence
	.type	SDRAM_Initialization_Sequence,%function
	.code	16                              @ @SDRAM_Initialization_Sequence
	.thumb_func
SDRAM_Initialization_Sequence:
.Lfunc_begin2:
	.loc	2 33 0                          @ libraries/drivers/drv_sdram.c:33:0
	.fnstart
	.cfi_startproc
@ %bb.0:
	.save	{r7, lr}
	push	{r7, lr}
	.cfi_def_cfa_offset 8
	.cfi_offset lr, -4
	.cfi_offset r7, -8
	.pad	#32
	sub	sp, #32
	.cfi_def_cfa_offset 40
	str	r0, [sp, #28]
	str	r1, [sp, #24]
	movs	r0, #0
.Ltmp42:
	.loc	2 34 19 prologue_end            @ libraries/drivers/drv_sdram.c:34:19
	str	r0, [sp, #12]                   @ 4-byte Spill
	str	r0, [sp, #20]
	.loc	2 35 14                         @ libraries/drivers/drv_sdram.c:35:14
	str	r0, [sp, #16]
	movs	r1, #16
	.loc	2 38 17                         @ libraries/drivers/drv_sdram.c:38:17
	str	r1, [sp, #16]
	.loc	2 44 5                          @ libraries/drivers/drv_sdram.c:44:5
	ldr	r2, [sp, #24]
	movs	r1, #1
	.loc	2 44 36 is_stmt 0               @ libraries/drivers/drv_sdram.c:44:36
	str	r1, [r2]
	.loc	2 45 38 is_stmt 1               @ libraries/drivers/drv_sdram.c:45:38
	ldr	r2, [sp, #16]
	.loc	2 45 5 is_stmt 0                @ libraries/drivers/drv_sdram.c:45:5
	ldr	r3, [sp, #24]
	.loc	2 45 36                         @ libraries/drivers/drv_sdram.c:45:36
	str	r2, [r3, #4]
	.loc	2 46 5 is_stmt 1                @ libraries/drivers/drv_sdram.c:46:5
	ldr	r2, [sp, #24]
	.loc	2 46 36 is_stmt 0               @ libraries/drivers/drv_sdram.c:46:36
	str	r1, [r2, #8]
	.loc	2 47 5 is_stmt 1                @ libraries/drivers/drv_sdram.c:47:5
	ldr	r1, [sp, #24]
	.loc	2 47 37 is_stmt 0               @ libraries/drivers/drv_sdram.c:47:37
	str	r0, [r1, #12]
	.loc	2 50 27 is_stmt 1               @ libraries/drivers/drv_sdram.c:50:27
	ldr	r0, [sp, #28]
	.loc	2 50 35 is_stmt 0               @ libraries/drivers/drv_sdram.c:50:35
	ldr	r1, [sp, #24]
	mov.w	r2, #4096
	.loc	2 50 5                          @ libraries/drivers/drv_sdram.c:50:5
	bl	HAL_SDRAM_SendCommand
                                        @ kill: def $r1 killed $r0
.Ltmp43:
	.loc	2 54 17 is_stmt 1               @ libraries/drivers/drv_sdram.c:54:17
	ldr	r0, [sp, #12]                   @ 4-byte Reload
	str	r0, [sp, #20]
	.loc	2 54 10 is_stmt 0               @ libraries/drivers/drv_sdram.c:54:10
	b	.LBB2_1
.LBB2_1:                                @ =>This Inner Loop Header: Depth=1
.Ltmp44:
	.loc	2 54 22                         @ libraries/drivers/drv_sdram.c:54:22
	ldr	r0, [sp, #20]
	movw	r1, #65534
.Ltmp45:
	.loc	2 54 5                          @ libraries/drivers/drv_sdram.c:54:5
	cmp	r0, r1
	bhi	.LBB2_4
	b	.LBB2_2
.LBB2_2:                                @   in Loop: Header=BB2_1 Depth=1
	b	.LBB2_3
.LBB2_3:                                @   in Loop: Header=BB2_1 Depth=1
.Ltmp46:
	.loc	2 54 46                         @ libraries/drivers/drv_sdram.c:54:46
	ldr	r0, [sp, #20]
	adds	r0, #1
	str	r0, [sp, #20]
	.loc	2 54 5                          @ libraries/drivers/drv_sdram.c:54:5
	b	.LBB2_1
.Ltmp47:
.LBB2_4:
	.loc	2 58 5 is_stmt 1                @ libraries/drivers/drv_sdram.c:58:5
	ldr	r1, [sp, #24]
	movs	r0, #2
	.loc	2 58 37 is_stmt 0               @ libraries/drivers/drv_sdram.c:58:37
	str	r0, [r1]
	.loc	2 59 39 is_stmt 1               @ libraries/drivers/drv_sdram.c:59:39
	ldr	r0, [sp, #16]
	.loc	2 59 5 is_stmt 0                @ libraries/drivers/drv_sdram.c:59:5
	ldr	r1, [sp, #24]
	.loc	2 59 37                         @ libraries/drivers/drv_sdram.c:59:37
	str	r0, [r1, #4]
	.loc	2 60 5 is_stmt 1                @ libraries/drivers/drv_sdram.c:60:5
	ldr	r1, [sp, #24]
	movs	r0, #1
	.loc	2 60 37 is_stmt 0               @ libraries/drivers/drv_sdram.c:60:37
	str	r0, [sp, #8]                    @ 4-byte Spill
	str	r0, [r1, #8]
	.loc	2 61 5 is_stmt 1                @ libraries/drivers/drv_sdram.c:61:5
	ldr	r1, [sp, #24]
	movs	r0, #0
	.loc	2 61 37 is_stmt 0               @ libraries/drivers/drv_sdram.c:61:37
	str	r0, [sp]                        @ 4-byte Spill
	str	r0, [r1, #12]
	.loc	2 64 27 is_stmt 1               @ libraries/drivers/drv_sdram.c:64:27
	ldr	r0, [sp, #28]
	.loc	2 64 35 is_stmt 0               @ libraries/drivers/drv_sdram.c:64:35
	ldr	r1, [sp, #24]
	mov.w	r2, #4096
	.loc	2 64 5                          @ libraries/drivers/drv_sdram.c:64:5
	str	r2, [sp, #4]                    @ 4-byte Spill
	bl	HAL_SDRAM_SendCommand
	ldr	r2, [sp, #4]                    @ 4-byte Reload
                                        @ kill: def $r1 killed $r0
	.loc	2 67 5 is_stmt 1                @ libraries/drivers/drv_sdram.c:67:5
	ldr	r0, [sp]                        @ 4-byte Reload
	ldr	r3, [sp, #24]
	movs	r1, #3
	.loc	2 67 37 is_stmt 0               @ libraries/drivers/drv_sdram.c:67:37
	str	r1, [r3]
	.loc	2 68 39 is_stmt 1               @ libraries/drivers/drv_sdram.c:68:39
	ldr	r1, [sp, #16]
	.loc	2 68 5 is_stmt 0                @ libraries/drivers/drv_sdram.c:68:5
	ldr	r3, [sp, #24]
	.loc	2 68 37                         @ libraries/drivers/drv_sdram.c:68:37
	str	r1, [r3, #4]
	.loc	2 69 5 is_stmt 1                @ libraries/drivers/drv_sdram.c:69:5
	ldr	r3, [sp, #24]
	movs	r1, #8
	.loc	2 69 37 is_stmt 0               @ libraries/drivers/drv_sdram.c:69:37
	str	r1, [r3, #8]
	.loc	2 70 5 is_stmt 1                @ libraries/drivers/drv_sdram.c:70:5
	ldr	r1, [sp, #24]
	.loc	2 70 37 is_stmt 0               @ libraries/drivers/drv_sdram.c:70:37
	str	r0, [r1, #12]
	.loc	2 73 27 is_stmt 1               @ libraries/drivers/drv_sdram.c:73:27
	ldr	r0, [sp, #28]
	.loc	2 73 35 is_stmt 0               @ libraries/drivers/drv_sdram.c:73:35
	ldr	r1, [sp, #24]
	.loc	2 73 5                          @ libraries/drivers/drv_sdram.c:73:5
	bl	HAL_SDRAM_SendCommand
	ldr	r2, [sp, #4]                    @ 4-byte Reload
                                        @ kill: def $r1 killed $r0
	ldr	r0, [sp, #8]                    @ 4-byte Reload
	movw	r1, #545
	.loc	2 79 12 is_stmt 1               @ libraries/drivers/drv_sdram.c:79:12
	str	r1, [sp, #20]
	.loc	2 92 5                          @ libraries/drivers/drv_sdram.c:92:5
	ldr	r3, [sp, #24]
	movs	r1, #4
	.loc	2 92 37 is_stmt 0               @ libraries/drivers/drv_sdram.c:92:37
	str	r1, [r3]
	.loc	2 93 39 is_stmt 1               @ libraries/drivers/drv_sdram.c:93:39
	ldr	r1, [sp, #16]
	.loc	2 93 5 is_stmt 0                @ libraries/drivers/drv_sdram.c:93:5
	ldr	r3, [sp, #24]
	.loc	2 93 37                         @ libraries/drivers/drv_sdram.c:93:37
	str	r1, [r3, #4]
	.loc	2 94 5 is_stmt 1                @ libraries/drivers/drv_sdram.c:94:5
	ldr	r1, [sp, #24]
	.loc	2 94 37 is_stmt 0               @ libraries/drivers/drv_sdram.c:94:37
	str	r0, [r1, #8]
	.loc	2 95 39 is_stmt 1               @ libraries/drivers/drv_sdram.c:95:39
	ldr	r0, [sp, #20]
	.loc	2 95 5 is_stmt 0                @ libraries/drivers/drv_sdram.c:95:5
	ldr	r1, [sp, #24]
	.loc	2 95 37                         @ libraries/drivers/drv_sdram.c:95:37
	str	r0, [r1, #12]
	.loc	2 98 27 is_stmt 1               @ libraries/drivers/drv_sdram.c:98:27
	ldr	r0, [sp, #28]
	.loc	2 98 35 is_stmt 0               @ libraries/drivers/drv_sdram.c:98:35
	ldr	r1, [sp, #24]
	.loc	2 98 5                          @ libraries/drivers/drv_sdram.c:98:5
	bl	HAL_SDRAM_SendCommand
	.loc	2 101 34 is_stmt 1              @ libraries/drivers/drv_sdram.c:101:34
	ldr	r0, [sp, #28]
	movw	r1, #677
	.loc	2 101 5 is_stmt 0               @ libraries/drivers/drv_sdram.c:101:5
	bl	HAL_SDRAM_ProgramRefreshRate
	.loc	2 102 1 is_stmt 1               @ libraries/drivers/drv_sdram.c:102:1
	add	sp, #32
	pop	{r7, pc}
.Ltmp48:
.Lfunc_end2:
	.size	SDRAM_Initialization_Sequence, .Lfunc_end2-SDRAM_Initialization_Sequence
	.cfi_endproc
	.cantunwind
	.fnend
                                        @ -- End function
	.hidden	__rt_init_SDRAM_Init            @ @__rt_init_SDRAM_Init
	.type	__rt_init_SDRAM_Init,%object
	.section	.rti_fn.1,"a",%progbits
	.globl	__rt_init_SDRAM_Init
	.p2align	2
__rt_init_SDRAM_Init:
__tagsym$$used.0:
	.long	SDRAM_Init
	.size	__rt_init_SDRAM_Init, 4

	.type	.L.str,%object                  @ @.str
	.section	.rodata.str1.1,"aMS",%progbits,1
.L.str:
	.asciz	"[D/drv.sdram] "
	.size	.L.str, 15

	.type	.L.str.1,%object                @ @.str.1
.L.str.1:
	.asciz	"Writing the %ld bytes data, waiting...."
	.size	.L.str.1, 40

	.type	.L.str.2,%object                @ @.str.2
.L.str.2:
	.asciz	"\n"
	.size	.L.str.2, 2

	.type	.L.str.3,%object                @ @.str.3
.L.str.3:
	.asciz	"Write data success, total time: %d.%03dS."
	.size	.L.str.3, 42

	.type	.L.str.4,%object                @ @.str.4
.L.str.4:
	.asciz	"start Reading and verifying data, waiting...."
	.size	.L.str.4, 46

	.type	.L.str.5,%object                @ @.str.5
.L.str.5:
	.asciz	"[E/drv.sdram] "
	.size	.L.str.5, 15

	.type	.L.str.6,%object                @ @.str.6
.L.str.6:
	.asciz	"SDRAM test failed!"
	.size	.L.str.6, 19

	.type	.L.str.7,%object                @ @.str.7
.L.str.7:
	.asciz	"SDRAM test success!"
	.size	.L.str.7, 20

	.hidden	__fsym___cmd_sdram_test_name    @ @__fsym___cmd_sdram_test_name
	.type	__fsym___cmd_sdram_test_name,%object
	.section	.rodata.name,"a",%progbits
	.globl	__fsym___cmd_sdram_test_name
__fsym___cmd_sdram_test_name:
	.asciz	"__cmd_sdram_test"
	.size	__fsym___cmd_sdram_test_name, 17

	.hidden	__fsym___cmd_sdram_test_desc    @ @__fsym___cmd_sdram_test_desc
	.type	__fsym___cmd_sdram_test_desc,%object
	.globl	__fsym___cmd_sdram_test_desc
__fsym___cmd_sdram_test_desc:
	.asciz	"sdram test"
	.size	__fsym___cmd_sdram_test_desc, 11

	.hidden	__fsym___cmd_sdram_test         @ @__fsym___cmd_sdram_test
	.type	__fsym___cmd_sdram_test,%object
	.section	FSymTab,"a",%progbits
	.globl	__fsym___cmd_sdram_test
	.p2align	2
__fsym___cmd_sdram_test:
__tagsym$$used.1:
	.long	__fsym___cmd_sdram_test_name
	.long	__fsym___cmd_sdram_test_desc
	.long	sdram_test
	.size	__fsym___cmd_sdram_test, 12

	.type	hsdram1,%object                 @ @hsdram1
	.section	.bss.hsdram1,"aw",%nobits
	.p2align	2
hsdram1:
	.zero	52
	.size	hsdram1, 52

	.type	.L.str.8,%object                @ @.str.8
	.section	.rodata.str1.1,"aMS",%progbits,1
.L.str.8:
	.asciz	"SDRAM init failed!"
	.size	.L.str.8, 19

	.type	command,%object                 @ @command
	.section	.bss.command,"aw",%nobits
	.p2align	2
command:
	.zero	16
	.size	command, 16

	.type	.L.str.9,%object                @ @.str.9
	.section	.rodata.str1.1,"aMS",%progbits,1
.L.str.9:
	.asciz	"sdram init success, mapped at 0x%X, size is %d bytes, data width is %d"
	.size	.L.str.9, 71

	.type	system_heap,%object             @ @system_heap
	.section	.bss.system_heap,"aw",%nobits
	.p2align	2
system_heap:
	.zero	100
	.size	system_heap, 100

	.type	.L.str.10,%object               @ @.str.10
	.section	.rodata.str1.1,"aMS",%progbits,1
.L.str.10:
	.asciz	"sdram"
	.size	.L.str.10, 6

	.globl	__rt_init_SDRAM_Init
	.globl	__fsym___cmd_sdram_test
	.section	".note.GNU-stack","",%progbits
	.eabi_attribute	30, 6	@ Tag_ABI_optimization_goals
	.ARM_attribute	16, 1	@ Tag_AV_eba