	.text
	.syntax unified
	.eabi_attribute	67, "2.09"	@ Tag_conformance
	.cpu	cortex-m7
	.eabi_attribute	6, 13	@ Tag_CPU_arch
	.eabi_attribute	7, 77	@ Tag_CPU_arch_profile
	.eabi_attribute	8, 0	@ Tag_ARM_ISA_use
	.eabi_attribute	9, 2	@ Tag_THUMB_ISA_use
	.fpu	fpv5-d16
	.eabi_attribute	36, 1	@ Tag_FP_HP_extension
	.eabi_attribute	34, 1	@ Tag_CPU_unaligned_access
	.eabi_attribute	17, 1	@ Tag_ABI_PCS_GOT_use
	.eabi_attribute	20, 2	@ Tag_ABI_FP_denormal
	.eabi_attribute	21, 0	@ Tag_ABI_FP_exceptions
	.eabi_attribute	23, 1	@ Tag_ABI_FP_number_model
	.eabi_attribute	24, 1	@ Tag_ABI_align_needed
	.eabi_attribute	25, 1	@ Tag_ABI_align_preserved
	.eabi_attribute	28, 1	@ Tag_ABI_VFP_args
	.eabi_attribute	38, 1	@ Tag_ABI_FP_16bit_format
	.eabi_attribute	18, 2	@ Tag_ABI_PCS_wchar_t
	.eabi_attribute	26, 1	@ Tag_ABI_enum_size
	.eabi_attribute	14, 0	@ Tag_ABI_PCS_R9_use
	.file	"drv_spi_flash.c"
	.file	1 "E:\\STM32\\Learning\\STM32H750_ART_PI_RGBLCD" "rt-thread/include\\rtdef.h"
	.file	2 "E:\\STM32\\Learning\\STM32H750_ART_PI_RGBLCD" "libraries/drivers/drv_spi_flash.c"
	.file	3 "D:\\Keil_v5\\ARM\\ARMCLANG\\Bin\\..\\include" "stdint.h"
	.file	4 "E:\\STM32\\Learning\\STM32H750_ART_PI_RGBLCD" "libraries/STM32H7xx_HAL/CMSIS/Device/ST/STM32H7xx/Include/stm32h750xx.h"
	.section	.text.rt_flash_init,"ax",%progbits
	.p2align	3                               @ -- Begin function rt_flash_init
	.type	rt_flash_init,%function
	.code	16                              @ @rt_flash_init
	.thumb_func
rt_flash_init:
.Lfunc_begin0:
	.loc	2 17 0                          @ libraries/drivers/drv_spi_flash.c:17:0
	.fnstart
	.cfi_sections .debug_frame
	.cfi_startproc
@ %bb.0:
	.save	{r7, lr}
	push	{r7, lr}
	.cfi_def_cfa_offset 8
	.cfi_offset lr, -4
	.cfi_offset r7, -8
	.pad	#8
	sub	sp, #8
	.cfi_def_cfa_offset 16
.Ltmp0:
	.loc	2 21 5 prologue_end             @ libraries/drivers/drv_spi_flash.c:21:5
	movw	r0, :lower16:.L.str
	movt	r0, :upper16:.L.str
	movw	r1, :lower16:.L.str.1
	movt	r1, :upper16:.L.str.1
	str	r1, [sp, #4]                    @ 4-byte Spill
	movs	r2, #0
	movt	r2, #22530
	movs	r3, #16
	bl	rt_hw_spi_device_attach
	ldr	r1, [sp, #4]                    @ 4-byte Reload
	.loc	2 24 5                          @ libraries/drivers/drv_spi_flash.c:24:5
	movw	r0, :lower16:.L.str.2
	movt	r0, :upper16:.L.str.2
	bl	rt_sfud_flash_probe
	.loc	2 26 5                          @ libraries/drivers/drv_spi_flash.c:26:5
	bl	fal_init
	movs	r0, #0
	.loc	2 28 5                          @ libraries/drivers/drv_spi_flash.c:28:5
	add	sp, #8
	pop	{r7, pc}
.Ltmp1:
.Lfunc_end0:
	.size	rt_flash_init, .Lfunc_end0-rt_flash_init
	.cfi_endproc
	.cantunwind
	.fnend
                                        @ -- End function
	.hidden	__rt_init_rt_flash_init         @ @__rt_init_rt_flash_init
	.type	__rt_init_rt_flash_init,%object
	.section	.rti_fn.5,"a",%progbits
	.globl	__rt_init_rt_flash_init
	.p2align	2
__rt_init_rt_flash_init:
__tagsym$$used.0:
	.long	rt_flash_init
	.size	__rt_init_rt_flash_init, 4

	.type	.L.str,%object                  @ @.str
	.section	.rodata.str1.1,"aMS",%progbits,1
.L.str:
	.asciz	"spi1"
	.size	.L.str, 5

	.type	.L.str.1,%object                @ @.str.1
.L.str.1:
	.asciz	"spi10"
	.size	.L.str.1, 6

	.type	.L.str.2,%object                @ @.str.2
.L.str.2:
	.asciz	"norflash0"
	.size	.L.str.2, 10

	.globl	__rt_init_rt_flash_init
	.section	".note.GNU-stack","",%progbits
	.eabi_attribute	30, 6	@ Tag_ABI_optimization_goals
	.ARM_attribute	16, 1	@ Tag_AV_eba