	.text
	.syntax unified
	.eabi_attribute	67, "2.09"	@ Tag_conformance
	.cpu	cortex-m7
	.eabi_attribute	6, 13	@ Tag_CPU_arch
	.eabi_attribute	7, 77	@ Tag_CPU_arch_profile
	.eabi_attribute	8, 0	@ Tag_ARM_ISA_use
	.eabi_attribute	9, 2	@ Tag_THUMB_ISA_use
	.fpu	fpv5-d16
	.eabi_attribute	36, 1	@ Tag_FP_HP_extension
	.eabi_attribute	34, 1	@ Tag_CPU_unaligned_access
	.eabi_attribute	17, 1	@ Tag_ABI_PCS_GOT_use
	.eabi_attribute	20, 2	@ Tag_ABI_FP_denormal
	.eabi_attribute	21, 0	@ Tag_ABI_FP_exceptions
	.eabi_attribute	23, 1	@ Tag_ABI_FP_number_model
	.eabi_attribute	24, 1	@ Tag_ABI_align_needed
	.eabi_attribute	25, 1	@ Tag_ABI_align_preserved
	.eabi_attribute	28, 1	@ Tag_ABI_VFP_args
	.eabi_attribute	38, 1	@ Tag_ABI_FP_16bit_format
	.eabi_attribute	18, 2	@ Tag_ABI_PCS_wchar_t
	.eabi_attribute	26, 1	@ Tag_ABI_enum_size
	.eabi_attribute	14, 0	@ Tag_ABI_PCS_R9_use
	.file	"drv_dcmi.c"
	.file	1 "E:\\STM32\\Learning\\STM32H750_ART_PI_RGBLCD" "rt-thread/include\\rtdef.h"
	.file	2 "E:\\STM32\\Learning\\STM32H750_ART_PI_RGBLCD" "libraries/drivers/drv_dcmi.c"
	.file	3 "E:\\STM32\\Learning\\STM32H750_ART_PI_RGBLCD" "libraries/STM32H7xx_HAL/STM32H7xx_HAL_Driver/Inc\\stm32h7xx_hal_dma.h"
	.file	4 "D:\\Keil_v5\\ARM\\ARMCLANG\\Bin\\..\\include" "stdint.h"
	.file	5 "E:\\STM32\\Learning\\STM32H750_ART_PI_RGBLCD" "libraries/STM32H7xx_HAL/STM32H7xx_HAL_Driver/Inc/stm32h7xx_hal_def.h"
	.file	6 "E:\\STM32\\Learning\\STM32H750_ART_PI_RGBLCD" "libraries/STM32H7xx_HAL/CMSIS/Device/ST/STM32H7xx/Include/stm32h750xx.h"
	.file	7 "E:\\STM32\\Learning\\STM32H750_ART_PI_RGBLCD" "libraries/STM32H7xx_HAL/STM32H7xx_HAL_Driver/Inc\\stm32h7xx_hal_dcmi.h"
	.file	8 "E:\\STM32\\Learning\\STM32H750_ART_PI_RGBLCD" "libraries/drivers/include\\drv_dcmi.h"
	.file	9 "E:\\STM32\\Learning\\STM32H750_ART_PI_RGBLCD" "libraries/STM32H7xx_HAL/CMSIS/Device/ST/STM32H7xx/Include\\stm32h7xx.h"
	.file	10 "E:\\STM32\\Learning\\STM32H750_ART_PI_RGBLCD" "libraries/STM32H7xx_HAL/CMSIS/Include\\core_cm7.h"
	.section	.text.rt_hw_dcmi_dma_config,"ax",%progbits
	.hidden	rt_hw_dcmi_dma_config           @ -- Begin function rt_hw_dcmi_dma_config
	.globl	rt_hw_dcmi_dma_config
	.p2align	3
	.type	rt_hw_dcmi_dma_config,%function
	.code	16                              @ @rt_hw_dcmi_dma_config
	.thumb_func
rt_hw_dcmi_dma_config:
.Lfunc_begin0:
	.loc	2 61 0                          @ libraries/drivers/drv_dcmi.c:61:0
	.fnstart
	.cfi_sections .debug_frame
	.cfi_startproc
@ %bb.0:
	.save	{r7, lr}
	push	{r7, lr}
	.cfi_def_cfa_offset 8
	.cfi_offset lr, -4
	.cfi_offset r7, -8
	.pad	#16
	sub	sp, #16
	.cfi_def_cfa_offset 24
	str	r0, [sp, #12]
	str	r1, [sp, #8]
	str	r2, [sp, #4]
.Ltmp0:
	.loc	2 62 5 prologue_end             @ libraries/drivers/drv_dcmi.c:62:5
	ldr	r0, [sp, #8]
.Ltmp1:
	.loc	2 62 5 is_stmt 0                @ libraries/drivers/drv_dcmi.c:62:5
	cbnz	r0, .LBB0_2
	b	.LBB0_1
.LBB0_1:
.Ltmp2:
	.loc	2 63 53 is_stmt 1               @ libraries/drivers/drv_dcmi.c:63:53
	ldr	r2, [sp, #12]
	.loc	2 63 63 is_stmt 0               @ libraries/drivers/drv_dcmi.c:63:63
	ldr	r3, [sp, #4]
	.loc	2 63 3                          @ libraries/drivers/drv_dcmi.c:63:3
	movw	r0, :lower16:hdma_dcmi
	movt	r0, :upper16:hdma_dcmi
	movs	r1, #40
	movt	r1, #18434
	bl	HAL_DMA_Start
	b	.LBB0_3
.LBB0_2:
	.loc	2 65 66 is_stmt 1               @ libraries/drivers/drv_dcmi.c:65:66
	ldr	r2, [sp, #12]
	.loc	2 65 77 is_stmt 0               @ libraries/drivers/drv_dcmi.c:65:77
	ldr	r3, [sp, #8]
	.loc	2 65 88                         @ libraries/drivers/drv_dcmi.c:65:88
	ldr	r0, [sp, #4]
	.loc	2 65 3                          @ libraries/drivers/drv_dcmi.c:65:3
	mov	r1, sp
	str	r0, [r1]
	movw	r0, :lower16:hdma_dcmi
	movt	r0, :upper16:hdma_dcmi
	movs	r1, #40
	movt	r1, #18434
	bl	HAL_DMAEx_MultiBufferStart
	b	.LBB0_3
.Ltmp3:
.LBB0_3:
	.loc	2 66 5 is_stmt 1                @ libraries/drivers/drv_dcmi.c:66:5
	movw	r0, :lower16:hdma_dcmi
	movt	r0, :upper16:hdma_dcmi
	ldr	r0, [r0]
	movs	r1, #16
	movt	r1, #16386
	cmp	r0, r1
	beq.w	.LBB0_19
	b	.LBB0_4
.LBB0_4:
	movw	r0, :lower16:hdma_dcmi
	movt	r0, :upper16:hdma_dcmi
	ldr	r0, [r0]
	movs	r1, #40
	movt	r1, #16386
	cmp	r0, r1
	beq.w	.LBB0_19
	b	.LBB0_5
.LBB0_5:
	movw	r0, :lower16:hdma_dcmi
	movt	r0, :upper16:hdma_dcmi
	ldr	r0, [r0]
	movs	r1, #64
	movt	r1, #16386
	cmp	r0, r1
	beq.w	.LBB0_19
	b	.LBB0_6
.LBB0_6:
	movw	r0, :lower16:hdma_dcmi
	movt	r0, :upper16:hdma_dcmi
	ldr	r0, [r0]
	movs	r1, #88
	movt	r1, #16386
	cmp	r0, r1
	beq.w	.LBB0_19
	b	.LBB0_7
.LBB0_7:
	movw	r0, :lower16:hdma_dcmi
	movt	r0, :upper16:hdma_dcmi
	ldr	r0, [r0]
	movs	r1, #112
	movt	r1, #16386
	cmp	r0, r1
	beq.w	.LBB0_19
	b	.LBB0_8
.LBB0_8:
	movw	r0, :lower16:hdma_dcmi
	movt	r0, :upper16:hdma_dcmi
	ldr	r0, [r0]
	movs	r1, #136
	movt	r1, #16386
	cmp	r0, r1
	beq	.LBB0_19
	b	.LBB0_9
.LBB0_9:
	movw	r0, :lower16:hdma_dcmi
	movt	r0, :upper16:hdma_dcmi
	ldr	r0, [r0]
	movs	r1, #160
	movt	r1, #16386
	cmp	r0, r1
	beq	.LBB0_19
	b	.LBB0_10
.LBB0_10:
	movw	r0, :lower16:hdma_dcmi
	movt	r0, :upper16:hdma_dcmi
	ldr	r0, [r0]
	movs	r1, #184
	movt	r1, #16386
	cmp	r0, r1
	beq	.LBB0_19
	b	.LBB0_11
.LBB0_11:
	movw	r0, :lower16:hdma_dcmi
	movt	r0, :upper16:hdma_dcmi
	ldr	r0, [r0]
	movw	r1, #1040
	movt	r1, #16386
	cmp	r0, r1
	beq	.LBB0_19
	b	.LBB0_12
.LBB0_12:
	movw	r0, :lower16:hdma_dcmi
	movt	r0, :upper16:hdma_dcmi
	ldr	r0, [r0]
	movw	r1, #1064
	movt	r1, #16386
	cmp	r0, r1
	beq	.LBB0_19
	b	.LBB0_13
.LBB0_13:
	movw	r0, :lower16:hdma_dcmi
	movt	r0, :upper16:hdma_dcmi
	ldr	r0, [r0]
	movw	r1, #1088
	movt	r1, #16386
	cmp	r0, r1
	beq	.LBB0_19
	b	.LBB0_14
.LBB0_14:
	movw	r0, :lower16:hdma_dcmi
	movt	r0, :upper16:hdma_dcmi
	ldr	r0, [r0]
	movw	r1, #1112
	movt	r1, #16386
	cmp	r0, r1
	beq	.LBB0_19
	b	.LBB0_15
.LBB0_15:
	movw	r0, :lower16:hdma_dcmi
	movt	r0, :upper16:hdma_dcmi
	ldr	r0, [r0]
	movw	r1, #1136
	movt	r1, #16386
	cmp	r0, r1
	beq	.LBB0_19
	b	.LBB0_16
.LBB0_16:
	movw	r0, :lower16:hdma_dcmi
	movt	r0, :upper16:hdma_dcmi
	ldr	r0, [r0]
	movw	r1, #1160
	movt	r1, #16386
	cmp	r0, r1
	beq	.LBB0_19
	b	.LBB0_17
.LBB0_17:
	movw	r0, :lower16:hdma_dcmi
	movt	r0, :upper16:hdma_dcmi
	ldr	r0, [r0]
	movw	r1, #1184
	movt	r1, #16386
	cmp	r0, r1
	beq	.LBB0_19
	b	.LBB0_18
.LBB0_18:
	movw	r0, :lower16:hdma_dcmi
	movt	r0, :upper16:hdma_dcmi
	ldr	r0, [r0]
	movw	r1, #1208
	movt	r1, #16386
	cmp	r0, r1
	bne	.LBB0_20
	b	.LBB0_19
.LBB0_19:
	movw	r0, :lower16:hdma_dcmi
	movt	r0, :upper16:hdma_dcmi
	ldr	r1, [r0]
	ldr	r0, [r1]
	orr	r0, r0, #16
                                        @ kill: def $r2 killed $r0
	str	r0, [r1]
	b	.LBB0_21
.LBB0_20:
	movw	r0, :lower16:hdma_dcmi
	movt	r0, :upper16:hdma_dcmi
	ldr	r1, [r0]
	ldr	r0, [r1]
	orr	r0, r0, #2
                                        @ kill: def $r2 killed $r0
	str	r0, [r1]
	b	.LBB0_21
.LBB0_21:
	.loc	2 67 1                          @ libraries/drivers/drv_dcmi.c:67:1
	add	sp, #16
	pop	{r7, pc}
.Ltmp4:
.Lfunc_end0:
	.size	rt_hw_dcmi_dma_config, .Lfunc_end0-rt_hw_dcmi_dma_config
	.cfi_endproc
	.cantunwind
	.fnend
                                        @ -- End function
	.section	.text.HAL_DCMI_MspInit,"ax",%progbits
	.hidden	HAL_DCMI_MspInit                @ -- Begin function HAL_DCMI_MspInit
	.globl	HAL_DCMI_MspInit
	.p2align	3
	.type	HAL_DCMI_MspInit,%function
	.code	16                              @ @HAL_DCMI_MspInit
	.thumb_func
HAL_DCMI_MspInit:
.Lfunc_begin1:
	.loc	2 100 0                         @ libraries/drivers/drv_dcmi.c:100:0
	.fnstart
	.cfi_startproc
@ %bb.0:
	.save	{r7, lr}
	push	{r7, lr}
	.cfi_def_cfa_offset 8
	.cfi_offset lr, -4
	.cfi_offset r7, -8
	.pad	#56
	sub	sp, #56
	.cfi_def_cfa_offset 64
	str	r0, [sp, #52]
.Ltmp5:
	.loc	2 101 5 prologue_end            @ libraries/drivers/drv_dcmi.c:101:5
	b	.LBB1_1
.LBB1_1:
	.loc	2 0 5 is_stmt 0                 @ libraries/drivers/drv_dcmi.c:0:5
	movw	r0, #17628
	movt	r0, #22530
.Ltmp6:
	.loc	2 101 5                         @ libraries/drivers/drv_dcmi.c:101:5
	ldr	r1, [r0]
	orr	r1, r1, #1
	str	r1, [r0]
	ldr	r0, [r0]
	and	r0, r0, #1
	str	r0, [sp, #48]
	ldr	r0, [sp, #48]
	b	.LBB1_2
.Ltmp7:
.LBB1_2:
	.loc	2 102 5 is_stmt 1               @ libraries/drivers/drv_dcmi.c:102:5
	b	.LBB1_3
.LBB1_3:
	.loc	2 0 5 is_stmt 0                 @ libraries/drivers/drv_dcmi.c:0:5
	movw	r0, #17632
	movt	r0, #22530
.Ltmp8:
	.loc	2 102 5                         @ libraries/drivers/drv_dcmi.c:102:5
	ldr	r1, [r0]
	orr	r1, r1, #1
	str	r1, [r0]
	ldr	r0, [r0]
	and	r0, r0, #1
	str	r0, [sp, #44]
	ldr	r0, [sp, #44]
	b	.LBB1_4
.Ltmp9:
.LBB1_4:
	.loc	2 103 5 is_stmt 1               @ libraries/drivers/drv_dcmi.c:103:5
	b	.LBB1_5
.LBB1_5:
	.loc	2 0 5 is_stmt 0                 @ libraries/drivers/drv_dcmi.c:0:5
	movw	r0, #17632
	movt	r0, #22530
.Ltmp10:
	.loc	2 103 5                         @ libraries/drivers/drv_dcmi.c:103:5
	ldr	r1, [r0]
	orr	r1, r1, #2
	str	r1, [r0]
	ldr	r0, [r0]
	and	r0, r0, #2
	str	r0, [sp, #40]
	ldr	r0, [sp, #40]
	b	.LBB1_6
.Ltmp11:
.LBB1_6:
	.loc	2 104 5 is_stmt 1               @ libraries/drivers/drv_dcmi.c:104:5
	b	.LBB1_7
.LBB1_7:
	.loc	2 0 5 is_stmt 0                 @ libraries/drivers/drv_dcmi.c:0:5
	movw	r0, #17632
	movt	r0, #22530
.Ltmp12:
	.loc	2 104 5                         @ libraries/drivers/drv_dcmi.c:104:5
	ldr	r1, [r0]
	orr	r1, r1, #16
	str	r1, [r0]
	ldr	r0, [r0]
	and	r0, r0, #16
	str	r0, [sp, #36]
	ldr	r0, [sp, #36]
	b	.LBB1_8
.Ltmp13:
.LBB1_8:
	.loc	2 105 5 is_stmt 1               @ libraries/drivers/drv_dcmi.c:105:5
	b	.LBB1_9
.LBB1_9:
	.loc	2 0 5 is_stmt 0                 @ libraries/drivers/drv_dcmi.c:0:5
	movw	r0, #17632
	movt	r0, #22530
.Ltmp14:
	.loc	2 105 5                         @ libraries/drivers/drv_dcmi.c:105:5
	ldr	r1, [r0]
	orr	r1, r1, #128
	str	r1, [r0]
	ldr	r0, [r0]
	and	r0, r0, #128
	str	r0, [sp, #32]
	ldr	r0, [sp, #32]
	b	.LBB1_10
.Ltmp15:
.LBB1_10:
	.loc	2 106 5 is_stmt 1               @ libraries/drivers/drv_dcmi.c:106:5
	b	.LBB1_11
.LBB1_11:
	.loc	2 0 5 is_stmt 0                 @ libraries/drivers/drv_dcmi.c:0:5
	movw	r0, #17632
	movt	r0, #22530
.Ltmp16:
	.loc	2 106 5                         @ libraries/drivers/drv_dcmi.c:106:5
	ldr	r1, [r0]
	orr	r1, r1, #256
	str	r1, [r0]
	ldr	r0, [r0]
	and	r0, r0, #256
	str	r0, [sp, #28]
	ldr	r0, [sp, #28]
	b	.LBB1_12
.Ltmp17:
.LBB1_12:
	.loc	2 0 5                           @ libraries/drivers/drv_dcmi.c:0:5
	mov.w	r0, #1600
	.loc	2 108 21 is_stmt 1              @ libraries/drivers/drv_dcmi.c:108:21
	str	r0, [sp, #8]
	movs	r0, #2
	.loc	2 109 22                        @ libraries/drivers/drv_dcmi.c:109:22
	str	r0, [sp, #12]
	movs	r0, #13
	.loc	2 110 27                        @ libraries/drivers/drv_dcmi.c:110:27
	str	r0, [sp, #24]
	movs	r0, #1
	.loc	2 111 22                        @ libraries/drivers/drv_dcmi.c:111:22
	str	r0, [sp, #16]
	movs	r0, #3
	.loc	2 112 23                        @ libraries/drivers/drv_dcmi.c:112:23
	str	r0, [sp, #20]
	movs	r0, #0
	movt	r0, #22530
	add	r1, sp, #8
	.loc	2 113 5                         @ libraries/drivers/drv_dcmi.c:113:5
	str	r1, [sp]                        @ 4-byte Spill
	bl	HAL_GPIO_Init
	ldr	r1, [sp]                        @ 4-byte Reload
	mov.w	r0, #256
	.loc	2 114 21                        @ libraries/drivers/drv_dcmi.c:114:21
	str	r0, [sp, #8]
	movw	r0, #1024
	movt	r0, #22530
	.loc	2 115 5                         @ libraries/drivers/drv_dcmi.c:115:5
	bl	HAL_GPIO_Init
	ldr	r1, [sp]                        @ 4-byte Reload
	movs	r0, #64
	.loc	2 116 21                        @ libraries/drivers/drv_dcmi.c:116:21
	str	r0, [sp, #8]
	movw	r0, #4096
	movt	r0, #22530
	.loc	2 117 5                         @ libraries/drivers/drv_dcmi.c:117:5
	bl	HAL_GPIO_Init
	ldr	r1, [sp]                        @ 4-byte Reload
	mov.w	r0, #22784
	.loc	2 118 21                        @ libraries/drivers/drv_dcmi.c:118:21
	str	r0, [sp, #8]
	movw	r0, #7168
	movt	r0, #22530
	.loc	2 119 5                         @ libraries/drivers/drv_dcmi.c:119:5
	bl	HAL_GPIO_Init
	ldr	r1, [sp]                        @ 4-byte Reload
	movs	r0, #48
	.loc	2 120 21                        @ libraries/drivers/drv_dcmi.c:120:21
	str	r0, [sp, #8]
	movw	r0, #8192
	movt	r0, #22530
	.loc	2 121 5                         @ libraries/drivers/drv_dcmi.c:121:5
	bl	HAL_GPIO_Init
	movs	r0, #78
	str	r0, [sp, #4]                    @ 4-byte Spill
	movs	r2, #0
	.loc	2 122 5                         @ libraries/drivers/drv_dcmi.c:122:5
	mov	r1, r2
	bl	HAL_NVIC_SetPriority
	ldr	r0, [sp, #4]                    @ 4-byte Reload
	.loc	2 123 5                         @ libraries/drivers/drv_dcmi.c:123:5
	bl	HAL_NVIC_EnableIRQ
	.loc	2 124 1                         @ libraries/drivers/drv_dcmi.c:124:1
	add	sp, #56
	pop	{r7, pc}
.Ltmp18:
.Lfunc_end1:
	.size	HAL_DCMI_MspInit, .Lfunc_end1-HAL_DCMI_MspInit
	.cfi_endproc
	.cantunwind
	.fnend
                                        @ -- End function
	.section	.text.DCMI_IRQHandler,"ax",%progbits
	.hidden	DCMI_IRQHandler                 @ -- Begin function DCMI_IRQHandler
	.globl	DCMI_IRQHandler
	.p2align	3
	.type	DCMI_IRQHandler,%function
	.code	16                              @ @DCMI_IRQHandler
	.thumb_func
DCMI_IRQHandler:
.Lfunc_begin2:
	.loc	2 126 0                         @ libraries/drivers/drv_dcmi.c:126:0
	.fnstart
	.cfi_startproc
@ %bb.0:
	.save	{r7, lr}
	push	{r7, lr}
	.cfi_def_cfa_offset 8
	.cfi_offset lr, -4
	.cfi_offset r7, -8
.Ltmp19:
	.loc	2 128 5 prologue_end            @ libraries/drivers/drv_dcmi.c:128:5
	bl	rt_interrupt_enter
	.loc	2 130 5                         @ libraries/drivers/drv_dcmi.c:130:5
	movw	r0, :lower16:rt_dcmi
	movt	r0, :upper16:rt_dcmi
	bl	HAL_DCMI_IRQHandler
	.loc	2 133 5                         @ libraries/drivers/drv_dcmi.c:133:5
	bl	rt_interrupt_leave
	.loc	2 134 1                         @ libraries/drivers/drv_dcmi.c:134:1
	pop	{r7, pc}
.Ltmp20:
.Lfunc_end2:
	.size	DCMI_IRQHandler, .Lfunc_end2-DCMI_IRQHandler
	.cfi_endproc
	.cantunwind
	.fnend
                                        @ -- End function
	.section	.text.DCMI_Start,"ax",%progbits
	.hidden	DCMI_Start                      @ -- Begin function DCMI_Start
	.globl	DCMI_Start
	.p2align	3
	.type	DCMI_Start,%function
	.code	16                              @ @DCMI_Start
	.thumb_func
DCMI_Start:
.Lfunc_begin3:
	.loc	2 137 0                         @ libraries/drivers/drv_dcmi.c:137:0
	.fnstart
	.cfi_startproc
@ %bb.0:
	.loc	2 138 5 prologue_end            @ libraries/drivers/drv_dcmi.c:138:5
	movw	r0, :lower16:hdma_dcmi
	movt	r0, :upper16:hdma_dcmi
	ldr	r0, [r0]
	movs	r1, #16
	movt	r1, #16386
	cmp	r0, r1
	beq.w	.LBB3_16
	b	.LBB3_1
.LBB3_1:
	movw	r0, :lower16:hdma_dcmi
	movt	r0, :upper16:hdma_dcmi
	ldr	r0, [r0]
	movs	r1, #40
	movt	r1, #16386
	cmp	r0, r1
	beq.w	.LBB3_16
	b	.LBB3_2
.LBB3_2:
	movw	r0, :lower16:hdma_dcmi
	movt	r0, :upper16:hdma_dcmi
	ldr	r0, [r0]
	movs	r1, #64
	movt	r1, #16386
	cmp	r0, r1
	beq.w	.LBB3_16
	b	.LBB3_3
.LBB3_3:
	movw	r0, :lower16:hdma_dcmi
	movt	r0, :upper16:hdma_dcmi
	ldr	r0, [r0]
	movs	r1, #88
	movt	r1, #16386
	cmp	r0, r1
	beq.w	.LBB3_16
	b	.LBB3_4
.LBB3_4:
	movw	r0, :lower16:hdma_dcmi
	movt	r0, :upper16:hdma_dcmi
	ldr	r0, [r0]
	movs	r1, #112
	movt	r1, #16386
	cmp	r0, r1
	beq.w	.LBB3_16
	b	.LBB3_5
.LBB3_5:
	movw	r0, :lower16:hdma_dcmi
	movt	r0, :upper16:hdma_dcmi
	ldr	r0, [r0]
	movs	r1, #136
	movt	r1, #16386
	cmp	r0, r1
	beq	.LBB3_16
	b	.LBB3_6
.LBB3_6:
	movw	r0, :lower16:hdma_dcmi
	movt	r0, :upper16:hdma_dcmi
	ldr	r0, [r0]
	movs	r1, #160
	movt	r1, #16386
	cmp	r0, r1
	beq	.LBB3_16
	b	.LBB3_7
.LBB3_7:
	movw	r0, :lower16:hdma_dcmi
	movt	r0, :upper16:hdma_dcmi
	ldr	r0, [r0]
	movs	r1, #184
	movt	r1, #16386
	cmp	r0, r1
	beq	.LBB3_16
	b	.LBB3_8
.LBB3_8:
	movw	r0, :lower16:hdma_dcmi
	movt	r0, :upper16:hdma_dcmi
	ldr	r0, [r0]
	movw	r1, #1040
	movt	r1, #16386
	cmp	r0, r1
	beq	.LBB3_16
	b	.LBB3_9
.LBB3_9:
	movw	r0, :lower16:hdma_dcmi
	movt	r0, :upper16:hdma_dcmi
	ldr	r0, [r0]
	movw	r1, #1064
	movt	r1, #16386
	cmp	r0, r1
	beq	.LBB3_16
	b	.LBB3_10
.LBB3_10:
	movw	r0, :lower16:hdma_dcmi
	movt	r0, :upper16:hdma_dcmi
	ldr	r0, [r0]
	movw	r1, #1088
	movt	r1, #16386
	cmp	r0, r1
	beq	.LBB3_16
	b	.LBB3_11
.LBB3_11:
	movw	r0, :lower16:hdma_dcmi
	movt	r0, :upper16:hdma_dcmi
	ldr	r0, [r0]
	movw	r1, #1112
	movt	r1, #16386
	cmp	r0, r1
	beq	.LBB3_16
	b	.LBB3_12
.LBB3_12:
	movw	r0, :lower16:hdma_dcmi
	movt	r0, :upper16:hdma_dcmi
	ldr	r0, [r0]
	movw	r1, #1136
	movt	r1, #16386
	cmp	r0, r1
	beq	.LBB3_16
	b	.LBB3_13
.LBB3_13:
	movw	r0, :lower16:hdma_dcmi
	movt	r0, :upper16:hdma_dcmi
	ldr	r0, [r0]
	movw	r1, #1160
	movt	r1, #16386
	cmp	r0, r1
	beq	.LBB3_16
	b	.LBB3_14
.LBB3_14:
	movw	r0, :lower16:hdma_dcmi
	movt	r0, :upper16:hdma_dcmi
	ldr	r0, [r0]
	movw	r1, #1184
	movt	r1, #16386
	cmp	r0, r1
	beq	.LBB3_16
	b	.LBB3_15
.LBB3_15:
	movw	r0, :lower16:hdma_dcmi
	movt	r0, :upper16:hdma_dcmi
	ldr	r0, [r0]
	movw	r1, #1208
	movt	r1, #16386
	cmp	r0, r1
	bne	.LBB3_17
	b	.LBB3_16
.LBB3_16:
	movw	r0, :lower16:hdma_dcmi
	movt	r0, :upper16:hdma_dcmi
	ldr	r1, [r0]
	ldr	r0, [r1]
	orr	r0, r0, #1
                                        @ kill: def $r2 killed $r0
	str	r0, [r1]
	b	.LBB3_18
.LBB3_17:
	movw	r0, :lower16:hdma_dcmi
	movt	r0, :upper16:hdma_dcmi
	ldr	r1, [r0]
	ldr	r0, [r1]
	orr	r0, r0, #1
                                        @ kill: def $r2 killed $r0
	str	r0, [r1]
	b	.LBB3_18
.LBB3_18:
	.loc	2 0 5 is_stmt 0                 @ libraries/drivers/drv_dcmi.c:0:5
	movs	r1, #0
	movt	r1, #18434
	.loc	2 139 14 is_stmt 1              @ libraries/drivers/drv_dcmi.c:139:14
	ldr	r0, [r1]
	orr	r0, r0, #1
	str	r0, [r1]
	.loc	2 140 1                         @ libraries/drivers/drv_dcmi.c:140:1
	bx	lr
.Ltmp21:
.Lfunc_end3:
	.size	DCMI_Start, .Lfunc_end3-DCMI_Start
	.cfi_endproc
	.cantunwind
	.fnend
                                        @ -- End function
	.section	.text.DCMI_Stop,"ax",%progbits
	.hidden	DCMI_Stop                       @ -- Begin function DCMI_Stop
	.globl	DCMI_Stop
	.p2align	3
	.type	DCMI_Stop,%function
	.code	16                              @ @DCMI_Stop
	.thumb_func
DCMI_Stop:
.Lfunc_begin4:
	.loc	2 143 0                         @ libraries/drivers/drv_dcmi.c:143:0
	.fnstart
	.cfi_startproc
@ %bb.0:
	movs	r1, #0
	movt	r1, #18434
.Ltmp22:
	.loc	2 144 14 prologue_end           @ libraries/drivers/drv_dcmi.c:144:14
	ldr	r0, [r1]
	bic	r0, r0, #1
	str	r0, [r1]
	.loc	2 145 5                         @ libraries/drivers/drv_dcmi.c:145:5
	b	.LBB4_1
.LBB4_1:                                @ =>This Inner Loop Header: Depth=1
	.loc	2 0 5 is_stmt 0                 @ libraries/drivers/drv_dcmi.c:0:5
	movs	r0, #0
	movt	r0, #18434
	.loc	2 145 18                        @ libraries/drivers/drv_dcmi.c:145:18
	ldr	r0, [r0]
	.loc	2 145 5                         @ libraries/drivers/drv_dcmi.c:145:5
	lsls	r0, r0, #31
	cbz	r0, .LBB4_3
	b	.LBB4_2
.LBB4_2:                                @   in Loop: Header=BB4_1 Depth=1
	b	.LBB4_1
.LBB4_3:
	.loc	2 147 5 is_stmt 1               @ libraries/drivers/drv_dcmi.c:147:5
	movw	r0, :lower16:hdma_dcmi
	movt	r0, :upper16:hdma_dcmi
	ldr	r0, [r0]
	movs	r1, #16
	movt	r1, #16386
	cmp	r0, r1
	beq.w	.LBB4_19
	b	.LBB4_4
.LBB4_4:
	movw	r0, :lower16:hdma_dcmi
	movt	r0, :upper16:hdma_dcmi
	ldr	r0, [r0]
	movs	r1, #40
	movt	r1, #16386
	cmp	r0, r1
	beq.w	.LBB4_19
	b	.LBB4_5
.LBB4_5:
	movw	r0, :lower16:hdma_dcmi
	movt	r0, :upper16:hdma_dcmi
	ldr	r0, [r0]
	movs	r1, #64
	movt	r1, #16386
	cmp	r0, r1
	beq.w	.LBB4_19
	b	.LBB4_6
.LBB4_6:
	movw	r0, :lower16:hdma_dcmi
	movt	r0, :upper16:hdma_dcmi
	ldr	r0, [r0]
	movs	r1, #88
	movt	r1, #16386
	cmp	r0, r1
	beq.w	.LBB4_19
	b	.LBB4_7
.LBB4_7:
	movw	r0, :lower16:hdma_dcmi
	movt	r0, :upper16:hdma_dcmi
	ldr	r0, [r0]
	movs	r1, #112
	movt	r1, #16386
	cmp	r0, r1
	beq.w	.LBB4_19
	b	.LBB4_8
.LBB4_8:
	movw	r0, :lower16:hdma_dcmi
	movt	r0, :upper16:hdma_dcmi
	ldr	r0, [r0]
	movs	r1, #136
	movt	r1, #16386
	cmp	r0, r1
	beq	.LBB4_19
	b	.LBB4_9
.LBB4_9:
	movw	r0, :lower16:hdma_dcmi
	movt	r0, :upper16:hdma_dcmi
	ldr	r0, [r0]
	movs	r1, #160
	movt	r1, #16386
	cmp	r0, r1
	beq	.LBB4_19
	b	.LBB4_10
.LBB4_10:
	movw	r0, :lower16:hdma_dcmi
	movt	r0, :upper16:hdma_dcmi
	ldr	r0, [r0]
	movs	r1, #184
	movt	r1, #16386
	cmp	r0, r1
	beq	.LBB4_19
	b	.LBB4_11
.LBB4_11:
	movw	r0, :lower16:hdma_dcmi
	movt	r0, :upper16:hdma_dcmi
	ldr	r0, [r0]
	movw	r1, #1040
	movt	r1, #16386
	cmp	r0, r1
	beq	.LBB4_19
	b	.LBB4_12
.LBB4_12:
	movw	r0, :lower16:hdma_dcmi
	movt	r0, :upper16:hdma_dcmi
	ldr	r0, [r0]
	movw	r1, #1064
	movt	r1, #16386
	cmp	r0, r1
	beq	.LBB4_19
	b	.LBB4_13
.LBB4_13:
	movw	r0, :lower16:hdma_dcmi
	movt	r0, :upper16:hdma_dcmi
	ldr	r0, [r0]
	movw	r1, #1088
	movt	r1, #16386
	cmp	r0, r1
	beq	.LBB4_19
	b	.LBB4_14
.LBB4_14:
	movw	r0, :lower16:hdma_dcmi
	movt	r0, :upper16:hdma_dcmi
	ldr	r0, [r0]
	movw	r1, #1112
	movt	r1, #16386
	cmp	r0, r1
	beq	.LBB4_19
	b	.LBB4_15
.LBB4_15:
	movw	r0, :lower16:hdma_dcmi
	movt	r0, :upper16:hdma_dcmi
	ldr	r0, [r0]
	movw	r1, #1136
	movt	r1, #16386
	cmp	r0, r1
	beq	.LBB4_19
	b	.LBB4_16
.LBB4_16:
	movw	r0, :lower16:hdma_dcmi
	movt	r0, :upper16:hdma_dcmi
	ldr	r0, [r0]
	movw	r1, #1160
	movt	r1, #16386
	cmp	r0, r1
	beq	.LBB4_19
	b	.LBB4_17
.LBB4_17:
	movw	r0, :lower16:hdma_dcmi
	movt	r0, :upper16:hdma_dcmi
	ldr	r0, [r0]
	movw	r1, #1184
	movt	r1, #16386
	cmp	r0, r1
	beq	.LBB4_19
	b	.LBB4_18
.LBB4_18:
	movw	r0, :lower16:hdma_dcmi
	movt	r0, :upper16:hdma_dcmi
	ldr	r0, [r0]
	movw	r1, #1208
	movt	r1, #16386
	cmp	r0, r1
	bne	.LBB4_20
	b	.LBB4_19
.LBB4_19:
	movw	r0, :lower16:hdma_dcmi
	movt	r0, :upper16:hdma_dcmi
	ldr	r1, [r0]
	ldr	r0, [r1]
	bic	r0, r0, #1
                                        @ kill: def $r2 killed $r0
	str	r0, [r1]
	b	.LBB4_21
.LBB4_20:
	movw	r0, :lower16:hdma_dcmi
	movt	r0, :upper16:hdma_dcmi
	ldr	r1, [r0]
	ldr	r0, [r1]
	bic	r0, r0, #1
                                        @ kill: def $r2 killed $r0
	str	r0, [r1]
	b	.LBB4_21
.LBB4_21:
	.loc	2 148 1                         @ libraries/drivers/drv_dcmi.c:148:1
	bx	lr
.Ltmp23:
.Lfunc_end4:
	.size	DCMI_Stop, .Lfunc_end4-DCMI_Stop
	.cfi_endproc
	.cantunwind
	.fnend
                                        @ -- End function
	.section	.text.HAL_DCMI_FrameEventCallback,"ax",%progbits
	.hidden	HAL_DCMI_FrameEventCallback     @ -- Begin function HAL_DCMI_FrameEventCallback
	.globl	HAL_DCMI_FrameEventCallback
	.p2align	3
	.type	HAL_DCMI_FrameEventCallback,%function
	.code	16                              @ @HAL_DCMI_FrameEventCallback
	.thumb_func
HAL_DCMI_FrameEventCallback:
.Lfunc_begin5:
	.loc	2 153 0                         @ libraries/drivers/drv_dcmi.c:153:0
	.fnstart
	.cfi_startproc
@ %bb.0:
	.save	{r7, lr}
	push	{r7, lr}
	.cfi_def_cfa_offset 8
	.cfi_offset lr, -4
	.cfi_offset r7, -8
	.pad	#8
	sub	sp, #8
	.cfi_def_cfa_offset 16
	str	r0, [sp, #4]
.Ltmp24:
	.loc	2 156 5 prologue_end            @ libraries/drivers/drv_dcmi.c:156:5
	bl	rt_interrupt_enter
	.loc	2 160 5                         @ libraries/drivers/drv_dcmi.c:160:5
	movw	r0, :lower16:rt_dcmi
	movt	r0, :upper16:rt_dcmi
	ldr	r1, [r0]
	ldr	r0, [r1, #12]
	orr	r0, r0, #1
	str	r0, [r1, #12]
	.loc	2 163 2                         @ libraries/drivers/drv_dcmi.c:163:2
	bl	camera_frame_data_process
	.loc	2 172 5                         @ libraries/drivers/drv_dcmi.c:172:5
	bl	rt_interrupt_leave
	.loc	2 173 1                         @ libraries/drivers/drv_dcmi.c:173:1
	add	sp, #8
	pop	{r7, pc}
.Ltmp25:
.Lfunc_end5:
	.size	HAL_DCMI_FrameEventCallback, .Lfunc_end5-HAL_DCMI_FrameEventCallback
	.cfi_endproc
	.cantunwind
	.fnend
                                        @ -- End function
	.section	.text.DMA2_Stream1_IRQHandler,"ax",%progbits
	.hidden	DMA2_Stream1_IRQHandler         @ -- Begin function DMA2_Stream1_IRQHandler
	.globl	DMA2_Stream1_IRQHandler
	.p2align	3
	.type	DMA2_Stream1_IRQHandler,%function
	.code	16                              @ @DMA2_Stream1_IRQHandler
	.thumb_func
DMA2_Stream1_IRQHandler:
.Lfunc_begin6:
	.loc	2 176 0                         @ libraries/drivers/drv_dcmi.c:176:0
	.fnstart
	.cfi_startproc
@ %bb.0:
	.save	{r7, lr}
	push	{r7, lr}
	.cfi_def_cfa_offset 8
	.cfi_offset lr, -4
	.cfi_offset r7, -8
	.pad	#32
	sub	sp, #32
	.cfi_def_cfa_offset 40
.Ltmp26:
	.loc	2 179 5 prologue_end            @ libraries/drivers/drv_dcmi.c:179:5
	bl	rt_interrupt_enter
.Ltmp27:
	.loc	2 181 9                         @ libraries/drivers/drv_dcmi.c:181:9
	movw	r0, :lower16:hdma_dcmi
	movt	r0, :upper16:hdma_dcmi
	ldr	r0, [r0]
	movw	r1, #1209
	movt	r1, #16386
	cmp	r0, r1
	blo	.LBB6_2
	b	.LBB6_1
.LBB6_1:
	.loc	2 0 9 is_stmt 0                 @ libraries/drivers/drv_dcmi.c:0:9
	movw	r0, #21504
	movt	r0, #22530
	.loc	2 181 9                         @ libraries/drivers/drv_dcmi.c:181:9
	ldr	r0, [r0]
	and	r0, r0, #2048
	str	r0, [sp, #28]                   @ 4-byte Spill
	b	.LBB6_12
.LBB6_2:
	movw	r0, :lower16:hdma_dcmi
	movt	r0, :upper16:hdma_dcmi
	ldr	r0, [r0]
	movw	r1, #1113
	movt	r1, #16386
	cmp	r0, r1
	blo	.LBB6_4
	b	.LBB6_3
.LBB6_3:
	.loc	2 0 9                           @ libraries/drivers/drv_dcmi.c:0:9
	movw	r0, #1028
	movt	r0, #16386
	.loc	2 181 9                         @ libraries/drivers/drv_dcmi.c:181:9
	ldr	r0, [r0]
	and	r0, r0, #2048
	str	r0, [sp, #24]                   @ 4-byte Spill
	b	.LBB6_11
.LBB6_4:
	movw	r0, :lower16:hdma_dcmi
	movt	r0, :upper16:hdma_dcmi
	ldr	r0, [r0]
	movs	r1, #185
	movt	r1, #16386
	cmp	r0, r1
	blo	.LBB6_6
	b	.LBB6_5
.LBB6_5:
	.loc	2 0 9                           @ libraries/drivers/drv_dcmi.c:0:9
	movw	r0, #1024
	movt	r0, #16386
	.loc	2 181 9                         @ libraries/drivers/drv_dcmi.c:181:9
	ldr	r0, [r0]
	and	r0, r0, #2048
	str	r0, [sp, #20]                   @ 4-byte Spill
	b	.LBB6_10
.LBB6_6:
	movw	r0, :lower16:hdma_dcmi
	movt	r0, :upper16:hdma_dcmi
	ldr	r0, [r0]
	movs	r1, #89
	movt	r1, #16386
	cmp	r0, r1
	blo	.LBB6_8
	b	.LBB6_7
.LBB6_7:
	.loc	2 0 9                           @ libraries/drivers/drv_dcmi.c:0:9
	movs	r0, #4
	movt	r0, #16386
	.loc	2 181 9                         @ libraries/drivers/drv_dcmi.c:181:9
	ldr	r0, [r0]
	and	r0, r0, #2048
	str	r0, [sp, #16]                   @ 4-byte Spill
	b	.LBB6_9
.LBB6_8:
	.loc	2 0 9                           @ libraries/drivers/drv_dcmi.c:0:9
	movs	r0, #0
	movt	r0, #16386
	.loc	2 181 9                         @ libraries/drivers/drv_dcmi.c:181:9
	ldr	r0, [r0]
	and	r0, r0, #2048
	str	r0, [sp, #16]                   @ 4-byte Spill
	b	.LBB6_9
.LBB6_9:
	ldr	r0, [sp, #16]                   @ 4-byte Reload
	str	r0, [sp, #20]                   @ 4-byte Spill
	b	.LBB6_10
.LBB6_10:
	ldr	r0, [sp, #20]                   @ 4-byte Reload
	str	r0, [sp, #24]                   @ 4-byte Spill
	b	.LBB6_11
.LBB6_11:
	ldr	r0, [sp, #24]                   @ 4-byte Reload
	str	r0, [sp, #28]                   @ 4-byte Spill
	b	.LBB6_12
.LBB6_12:
	ldr	r0, [sp, #28]                   @ 4-byte Reload
.Ltmp28:
	.loc	2 181 9                         @ libraries/drivers/drv_dcmi.c:181:9
	cmp	r0, #0
	beq	.LBB6_26
	b	.LBB6_13
.LBB6_13:
.Ltmp29:
	.loc	2 183 9 is_stmt 1               @ libraries/drivers/drv_dcmi.c:183:9
	movw	r0, :lower16:hdma_dcmi
	movt	r0, :upper16:hdma_dcmi
	ldr	r0, [r0]
	movw	r1, #1209
	movt	r1, #16386
	cmp	r0, r1
	blo	.LBB6_15
	b	.LBB6_14
.LBB6_14:
	.loc	2 0 9 is_stmt 0                 @ libraries/drivers/drv_dcmi.c:0:9
	movw	r1, #21508
	movt	r1, #22530
	mov.w	r0, #2048
	.loc	2 183 9                         @ libraries/drivers/drv_dcmi.c:183:9
	str	r0, [r1]
	b	.LBB6_25
.LBB6_15:
	movw	r0, :lower16:hdma_dcmi
	movt	r0, :upper16:hdma_dcmi
	ldr	r0, [r0]
	movw	r1, #1113
	movt	r1, #16386
	cmp	r0, r1
	blo	.LBB6_17
	b	.LBB6_16
.LBB6_16:
	.loc	2 0 9                           @ libraries/drivers/drv_dcmi.c:0:9
	movw	r1, #1036
	movt	r1, #16386
	mov.w	r0, #2048
	.loc	2 183 9                         @ libraries/drivers/drv_dcmi.c:183:9
	str	r0, [r1]
	str	r0, [sp, #12]                   @ 4-byte Spill
	b	.LBB6_24
.LBB6_17:
	movw	r0, :lower16:hdma_dcmi
	movt	r0, :upper16:hdma_dcmi
	ldr	r0, [r0]
	movs	r1, #185
	movt	r1, #16386
	cmp	r0, r1
	blo	.LBB6_19
	b	.LBB6_18
.LBB6_18:
	.loc	2 0 9                           @ libraries/drivers/drv_dcmi.c:0:9
	movw	r1, #1032
	movt	r1, #16386
	mov.w	r0, #2048
	.loc	2 183 9                         @ libraries/drivers/drv_dcmi.c:183:9
	str	r0, [r1]
	str	r0, [sp, #8]                    @ 4-byte Spill
	b	.LBB6_23
.LBB6_19:
	movw	r0, :lower16:hdma_dcmi
	movt	r0, :upper16:hdma_dcmi
	ldr	r0, [r0]
	movs	r1, #89
	movt	r1, #16386
	cmp	r0, r1
	blo	.LBB6_21
	b	.LBB6_20
.LBB6_20:
	.loc	2 0 9                           @ libraries/drivers/drv_dcmi.c:0:9
	movs	r1, #12
	movt	r1, #16386
	mov.w	r0, #2048
	.loc	2 183 9                         @ libraries/drivers/drv_dcmi.c:183:9
	str	r0, [r1]
	str	r0, [sp, #4]                    @ 4-byte Spill
	b	.LBB6_22
.LBB6_21:
	.loc	2 0 9                           @ libraries/drivers/drv_dcmi.c:0:9
	movs	r1, #8
	movt	r1, #16386
	mov.w	r0, #2048
	.loc	2 183 9                         @ libraries/drivers/drv_dcmi.c:183:9
	str	r0, [r1]
	str	r0, [sp, #4]                    @ 4-byte Spill
	b	.LBB6_22
.LBB6_22:
	ldr	r0, [sp, #4]                    @ 4-byte Reload
	str	r0, [sp, #8]                    @ 4-byte Spill
	b	.LBB6_23
.LBB6_23:
	ldr	r0, [sp, #8]                    @ 4-byte Reload
	str	r0, [sp, #12]                   @ 4-byte Spill
	b	.LBB6_24
.LBB6_24:
	ldr	r0, [sp, #12]                   @ 4-byte Reload
	b	.LBB6_25
.LBB6_25:
	.loc	2 187 3 is_stmt 1               @ libraries/drivers/drv_dcmi.c:187:3
	bl	camera_dma_data_process
	.loc	2 194 9                         @ libraries/drivers/drv_dcmi.c:194:9
	bl	SCB_CleanInvalidateDCache
	.loc	2 195 5                         @ libraries/drivers/drv_dcmi.c:195:5
	b	.LBB6_26
.Ltmp30:
.LBB6_26:
	.loc	2 198 5                         @ libraries/drivers/drv_dcmi.c:198:5
	bl	rt_interrupt_leave
	.loc	2 199 1                         @ libraries/drivers/drv_dcmi.c:199:1
	add	sp, #32
	pop	{r7, pc}
.Ltmp31:
.Lfunc_end6:
	.size	DMA2_Stream1_IRQHandler, .Lfunc_end6-DMA2_Stream1_IRQHandler
	.cfi_endproc
	.cantunwind
	.fnend
                                        @ -- End function
	.section	.text.SCB_CleanInvalidateDCache,"ax",%progbits
	.p2align	3                               @ -- Begin function SCB_CleanInvalidateDCache
	.type	SCB_CleanInvalidateDCache,%function
	.code	16                              @ @SCB_CleanInvalidateDCache
	.thumb_func
SCB_CleanInvalidateDCache:
.Lfunc_begin7:
	.loc	10 2428 0                       @ libraries/STM32H7xx_HAL/CMSIS/Include\core_cm7.h:2428:0
	.fnstart
	.cfi_startproc
@ %bb.0:
	.pad	#12
	sub	sp, #12
	.cfi_def_cfa_offset 12
	movw	r1, #60804
	movt	r1, #57344
	movs	r0, #0
.Ltmp32:
	.loc	10 2434 17 prologue_end         @ libraries/STM32H7xx_HAL/CMSIS/Include\core_cm7.h:2434:17
	str	r0, [r1]
	.loc	10 2435 5                       @ libraries/STM32H7xx_HAL/CMSIS/Include\core_cm7.h:2435:5
	dsb	sy
	movw	r0, #60800
	movt	r0, #57344
	.loc	10 2437 19                      @ libraries/STM32H7xx_HAL/CMSIS/Include\core_cm7.h:2437:19
	ldr	r0, [r0]
	.loc	10 2437 12 is_stmt 0            @ libraries/STM32H7xx_HAL/CMSIS/Include\core_cm7.h:2437:12
	str	r0, [sp, #8]
	.loc	10 2440 23 is_stmt 1            @ libraries/STM32H7xx_HAL/CMSIS/Include\core_cm7.h:2440:23
	ldr	r0, [sp, #8]
	ubfx	r0, r0, #13, #15
	.loc	10 2440 10 is_stmt 0            @ libraries/STM32H7xx_HAL/CMSIS/Include\core_cm7.h:2440:10
	str	r0, [sp, #4]
	.loc	10 2441 5 is_stmt 1             @ libraries/STM32H7xx_HAL/CMSIS/Include\core_cm7.h:2441:5
	b	.LBB7_1
.LBB7_1:                                @ =>This Loop Header: Depth=1
                                        @     Child Loop BB7_2 Depth 2
.Ltmp33:
	.loc	10 2442 25                      @ libraries/STM32H7xx_HAL/CMSIS/Include\core_cm7.h:2442:25
	ldr	r0, [sp, #8]
	ubfx	r0, r0, #3, #10
	.loc	10 2442 12 is_stmt 0            @ libraries/STM32H7xx_HAL/CMSIS/Include\core_cm7.h:2442:12
	str	r0, [sp]
	.loc	10 2443 7 is_stmt 1             @ libraries/STM32H7xx_HAL/CMSIS/Include\core_cm7.h:2443:7
	b	.LBB7_2
.LBB7_2:                                @   Parent Loop BB7_1 Depth=1
                                        @ =>  This Inner Loop Header: Depth=2
.Ltmp34:
	.loc	10 2444 26                      @ libraries/STM32H7xx_HAL/CMSIS/Include\core_cm7.h:2444:26
	ldr	r1, [sp, #4]
	.loc	10 2445 26                      @ libraries/STM32H7xx_HAL/CMSIS/Include\core_cm7.h:2445:26
	ldr	r0, [sp]
	.loc	10 2445 31 is_stmt 0            @ libraries/STM32H7xx_HAL/CMSIS/Include\core_cm7.h:2445:31
	lsls	r0, r0, #30
	.loc	10 2444 76 is_stmt 1            @ libraries/STM32H7xx_HAL/CMSIS/Include\core_cm7.h:2444:76
	bfi	r0, r1, #5, #9
	movw	r1, #61300
	movt	r1, #57344
	.loc	10 2444 21 is_stmt 0            @ libraries/STM32H7xx_HAL/CMSIS/Include\core_cm7.h:2444:21
	str	r0, [r1]
	.loc	10 2449 7 is_stmt 1             @ libraries/STM32H7xx_HAL/CMSIS/Include\core_cm7.h:2449:7
	b	.LBB7_3
.Ltmp35:
.LBB7_3:                                @   in Loop: Header=BB7_2 Depth=2
	.loc	10 2449 20 is_stmt 0            @ libraries/STM32H7xx_HAL/CMSIS/Include\core_cm7.h:2449:20
	ldr	r0, [sp]
	subs	r1, r0, #1
	str	r1, [sp]
.Ltmp36:
	.loc	10 2449 7                       @ libraries/STM32H7xx_HAL/CMSIS/Include\core_cm7.h:2449:7
	cmp	r0, #0
	bne	.LBB7_2
	b	.LBB7_4
.Ltmp37:
.LBB7_4:                                @   in Loop: Header=BB7_1 Depth=1
	.loc	10 2450 5 is_stmt 1             @ libraries/STM32H7xx_HAL/CMSIS/Include\core_cm7.h:2450:5
	b	.LBB7_5
.Ltmp38:
.LBB7_5:                                @   in Loop: Header=BB7_1 Depth=1
	.loc	10 2450 17 is_stmt 0            @ libraries/STM32H7xx_HAL/CMSIS/Include\core_cm7.h:2450:17
	ldr	r0, [sp, #4]
	subs	r1, r0, #1
	str	r1, [sp, #4]
.Ltmp39:
	.loc	10 2450 5                       @ libraries/STM32H7xx_HAL/CMSIS/Include\core_cm7.h:2450:5
	cmp	r0, #0
	bne	.LBB7_1
	b	.LBB7_6
.Ltmp40:
.LBB7_6:
	.loc	10 2452 5 is_stmt 1             @ libraries/STM32H7xx_HAL/CMSIS/Include\core_cm7.h:2452:5
	dsb	sy
	.loc	10 2453 5                       @ libraries/STM32H7xx_HAL/CMSIS/Include\core_cm7.h:2453:5
	isb	sy
	.loc	10 2455 1                       @ libraries/STM32H7xx_HAL/CMSIS/Include\core_cm7.h:2455:1
	add	sp, #12
	bx	lr
.Ltmp41:
.Lfunc_end7:
	.size	SCB_CleanInvalidateDCache, .Lfunc_end7-SCB_CleanInvalidateDCache
	.cfi_endproc
	.cantunwind
	.fnend
                                        @ -- End function
	.section	.text.dcmi_init,"ax",%progbits
	.hidden	dcmi_init                       @ -- Begin function dcmi_init
	.globl	dcmi_init
	.p2align	3
	.type	dcmi_init,%function
	.code	16                              @ @dcmi_init
	.thumb_func
dcmi_init:
.Lfunc_begin8:
	.loc	2 253 0                         @ libraries/drivers/drv_dcmi.c:253:0
	.fnstart
	.cfi_startproc
@ %bb.0:
	.save	{r7, lr}
	push	{r7, lr}
	.cfi_def_cfa_offset 8
	.cfi_offset lr, -4
	.cfi_offset r7, -8
	.pad	#8
	sub	sp, #8
	.cfi_def_cfa_offset 16
.Ltmp42:
	.loc	2 254 29 prologue_end           @ libraries/drivers/drv_dcmi.c:254:29
	movw	r2, :lower16:rt_dcmi
	movt	r2, :upper16:rt_dcmi
	str	r2, [sp, #4]                    @ 4-byte Spill
	movs	r0, #18
	strb.w	r0, [r2, #100]
	add.w	r0, r2, #80
	.loc	2 255 29                        @ libraries/drivers/drv_dcmi.c:255:29
	movw	r1, :lower16:rt_dcmi_init
	movt	r1, :upper16:rt_dcmi_init
	str	r1, [r2, #116]
	.loc	2 256 29                        @ libraries/drivers/drv_dcmi.c:256:29
	movw	r1, :lower16:rt_dcmi_open
	movt	r1, :upper16:rt_dcmi_open
	str	r1, [r2, #120]
	.loc	2 257 30                        @ libraries/drivers/drv_dcmi.c:257:30
	movw	r1, :lower16:rt_dcmi_close
	movt	r1, :upper16:rt_dcmi_close
	str	r1, [r2, #124]
	.loc	2 258 29                        @ libraries/drivers/drv_dcmi.c:258:29
	movw	r1, :lower16:rt_dcmi_read
	movt	r1, :upper16:rt_dcmi_read
	str.w	r1, [r2, #128]
	.loc	2 259 30                        @ libraries/drivers/drv_dcmi.c:259:30
	movw	r1, :lower16:rt_dcmi_write
	movt	r1, :upper16:rt_dcmi_write
	str.w	r1, [r2, #132]
	.loc	2 260 32                        @ libraries/drivers/drv_dcmi.c:260:32
	movw	r1, :lower16:rt_dcmi_control
	movt	r1, :upper16:rt_dcmi_control
	str.w	r1, [r2, #136]
	movs	r1, #0
	.loc	2 261 34                        @ libraries/drivers/drv_dcmi.c:261:34
	str.w	r1, [r2, #156]
	.loc	2 263 5                         @ libraries/drivers/drv_dcmi.c:263:5
	movw	r1, :lower16:.L.str
	movt	r1, :upper16:.L.str
	movs	r2, #15
	bl	rt_device_register
	.loc	2 265 5                         @ libraries/drivers/drv_dcmi.c:265:5
	b	.LBB8_1
.LBB8_1:
.Ltmp43:
	.loc	2 265 5 is_stmt 0               @ libraries/drivers/drv_dcmi.c:265:5
	movw	r0, :lower16:.L.str.1
	movt	r0, :upper16:.L.str.1
	bl	rt_kprintf
	movw	r0, :lower16:.L.str.2
	movt	r0, :upper16:.L.str.2
	bl	rt_kprintf
	movw	r0, :lower16:.L.str.3
	movt	r0, :upper16:.L.str.3
	bl	rt_kprintf
	b	.LBB8_2
.Ltmp44:
.LBB8_2:
	.loc	2 0 5                           @ libraries/drivers/drv_dcmi.c:0:5
	movs	r0, #0
	.loc	2 267 5 is_stmt 1               @ libraries/drivers/drv_dcmi.c:267:5
	add	sp, #8
	pop	{r7, pc}
.Ltmp45:
.Lfunc_end8:
	.size	dcmi_init, .Lfunc_end8-dcmi_init
	.cfi_endproc
	.cantunwind
	.fnend
                                        @ -- End function
	.section	.text.rt_dcmi_init,"ax",%progbits
	.p2align	3                               @ -- Begin function rt_dcmi_init
	.type	rt_dcmi_init,%function
	.code	16                              @ @rt_dcmi_init
	.thumb_func
rt_dcmi_init:
.Lfunc_begin9:
	.loc	2 202 0                         @ libraries/drivers/drv_dcmi.c:202:0
	.fnstart
	.cfi_startproc
@ %bb.0:
	.save	{r7, lr}
	push	{r7, lr}
	.cfi_def_cfa_offset 8
	.cfi_offset lr, -4
	.cfi_offset r7, -8
	.pad	#16
	sub	sp, #16
	.cfi_def_cfa_offset 24
	str	r0, [sp, #8]
.Ltmp46:
	.loc	2 203 5 prologue_end            @ libraries/drivers/drv_dcmi.c:203:5
	ldr	r0, [sp, #8]
.Ltmp47:
	.loc	2 203 5 is_stmt 0               @ libraries/drivers/drv_dcmi.c:203:5
	cbnz	r0, .LBB9_2
	b	.LBB9_1
.LBB9_1:
.Ltmp48:
	.loc	2 203 5                         @ libraries/drivers/drv_dcmi.c:203:5
	movw	r0, :lower16:.L.str.4
	movt	r0, :upper16:.L.str.4
	movw	r1, :lower16:.L__FUNCTION__.rt_dcmi_init
	movt	r1, :upper16:.L__FUNCTION__.rt_dcmi_init
	movs	r2, #203
	bl	rt_assert_handler
	b	.LBB9_2
.Ltmp49:
.LBB9_2:
	.loc	2 0 5                           @ libraries/drivers/drv_dcmi.c:0:5
	movs	r0, #0
	.loc	2 204 14 is_stmt 1              @ libraries/drivers/drv_dcmi.c:204:14
	str	r0, [sp, #4]
	.loc	2 206 14                        @ libraries/drivers/drv_dcmi.c:206:14
	movw	r0, :lower16:rt_dcmi
	movt	r0, :upper16:rt_dcmi
	bl	rt_hw_dcmi_init
	.loc	2 206 12 is_stmt 0              @ libraries/drivers/drv_dcmi.c:206:12
	str	r0, [sp, #4]
.Ltmp50:
	.loc	2 207 9 is_stmt 1               @ libraries/drivers/drv_dcmi.c:207:9
	ldr	r0, [sp, #4]
.Ltmp51:
	.loc	2 207 9 is_stmt 0               @ libraries/drivers/drv_dcmi.c:207:9
	cbz	r0, .LBB9_4
	b	.LBB9_3
.LBB9_3:
.Ltmp52:
	.loc	2 209 16 is_stmt 1              @ libraries/drivers/drv_dcmi.c:209:16
	ldr	r0, [sp, #4]
	.loc	2 209 9 is_stmt 0               @ libraries/drivers/drv_dcmi.c:209:9
	str	r0, [sp, #12]
	b	.LBB9_5
.Ltmp53:
.LBB9_4:
	.loc	2 212 5 is_stmt 1               @ libraries/drivers/drv_dcmi.c:212:5
	bl	rt_hw_dcmi_dma_init
	.loc	2 214 12                        @ libraries/drivers/drv_dcmi.c:214:12
	ldr	r0, [sp, #4]
	.loc	2 214 5 is_stmt 0               @ libraries/drivers/drv_dcmi.c:214:5
	str	r0, [sp, #12]
	b	.LBB9_5
.LBB9_5:
	.loc	2 215 1 is_stmt 1               @ libraries/drivers/drv_dcmi.c:215:1
	ldr	r0, [sp, #12]
	add	sp, #16
	pop	{r7, pc}
.Ltmp54:
.Lfunc_end9:
	.size	rt_dcmi_init, .Lfunc_end9-rt_dcmi_init
	.cfi_endproc
	.cantunwind
	.fnend
                                        @ -- End function
	.section	.text.rt_dcmi_open,"ax",%progbits
	.p2align	3                               @ -- Begin function rt_dcmi_open
	.type	rt_dcmi_open,%function
	.code	16                              @ @rt_dcmi_open
	.thumb_func
rt_dcmi_open:
.Lfunc_begin10:
	.loc	2 218 0                         @ libraries/drivers/drv_dcmi.c:218:0
	.fnstart
	.cfi_startproc
@ %bb.0:
	.save	{r7, lr}
	push	{r7, lr}
	.cfi_def_cfa_offset 8
	.cfi_offset lr, -4
	.cfi_offset r7, -8
	.pad	#8
	sub	sp, #8
	.cfi_def_cfa_offset 16
                                        @ kill: def $r2 killed $r1
	str	r0, [sp, #4]
	strh.w	r1, [sp, #2]
.Ltmp55:
	.loc	2 219 5 prologue_end            @ libraries/drivers/drv_dcmi.c:219:5
	ldr	r0, [sp, #4]
.Ltmp56:
	.loc	2 219 5 is_stmt 0               @ libraries/drivers/drv_dcmi.c:219:5
	cbnz	r0, .LBB10_2
	b	.LBB10_1
.LBB10_1:
.Ltmp57:
	.loc	2 219 5                         @ libraries/drivers/drv_dcmi.c:219:5
	movw	r0, :lower16:.L.str.4
	movt	r0, :upper16:.L.str.4
	movw	r1, :lower16:.L__FUNCTION__.rt_dcmi_open
	movt	r1, :upper16:.L__FUNCTION__.rt_dcmi_open
	movs	r2, #219
	bl	rt_assert_handler
	b	.LBB10_2
.Ltmp58:
.LBB10_2:
	.loc	2 0 5                           @ libraries/drivers/drv_dcmi.c:0:5
	movs	r0, #0
	.loc	2 221 5 is_stmt 1               @ libraries/drivers/drv_dcmi.c:221:5
	add	sp, #8
	pop	{r7, pc}
.Ltmp59:
.Lfunc_end10:
	.size	rt_dcmi_open, .Lfunc_end10-rt_dcmi_open
	.cfi_endproc
	.cantunwind
	.fnend
                                        @ -- End function
	.section	.text.rt_dcmi_close,"ax",%progbits
	.p2align	3                               @ -- Begin function rt_dcmi_close
	.type	rt_dcmi_close,%function
	.code	16                              @ @rt_dcmi_close
	.thumb_func
rt_dcmi_close:
.Lfunc_begin11:
	.loc	2 225 0                         @ libraries/drivers/drv_dcmi.c:225:0
	.fnstart
	.cfi_startproc
@ %bb.0:
	.save	{r7, lr}
	push	{r7, lr}
	.cfi_def_cfa_offset 8
	.cfi_offset lr, -4
	.cfi_offset r7, -8
	.pad	#8
	sub	sp, #8
	.cfi_def_cfa_offset 16
	str	r0, [sp, #4]
.Ltmp60:
	.loc	2 226 5 prologue_end            @ libraries/drivers/drv_dcmi.c:226:5
	ldr	r0, [sp, #4]
.Ltmp61:
	.loc	2 226 5 is_stmt 0               @ libraries/drivers/drv_dcmi.c:226:5
	cbnz	r0, .LBB11_2
	b	.LBB11_1
.LBB11_1:
.Ltmp62:
	.loc	2 226 5                         @ libraries/drivers/drv_dcmi.c:226:5
	movw	r0, :lower16:.L.str.4
	movt	r0, :upper16:.L.str.4
	movw	r1, :lower16:.L__FUNCTION__.rt_dcmi_close
	movt	r1, :upper16:.L__FUNCTION__.rt_dcmi_close
	movs	r2, #226
	bl	rt_assert_handler
	b	.LBB11_2
.Ltmp63:
.LBB11_2:
	.loc	2 0 5                           @ libraries/drivers/drv_dcmi.c:0:5
	movs	r0, #0
	.loc	2 228 5 is_stmt 1               @ libraries/drivers/drv_dcmi.c:228:5
	add	sp, #8
	pop	{r7, pc}
.Ltmp64:
.Lfunc_end11:
	.size	rt_dcmi_close, .Lfunc_end11-rt_dcmi_close
	.cfi_endproc
	.cantunwind
	.fnend
                                        @ -- End function
	.section	.text.rt_dcmi_read,"ax",%progbits
	.p2align	3                               @ -- Begin function rt_dcmi_read
	.type	rt_dcmi_read,%function
	.code	16                              @ @rt_dcmi_read
	.thumb_func
rt_dcmi_read:
.Lfunc_begin12:
	.loc	2 239 0                         @ libraries/drivers/drv_dcmi.c:239:0
	.fnstart
	.cfi_startproc
@ %bb.0:
	.save	{r7, lr}
	push	{r7, lr}
	.cfi_def_cfa_offset 8
	.cfi_offset lr, -4
	.cfi_offset r7, -8
	.pad	#16
	sub	sp, #16
	.cfi_def_cfa_offset 24
	str	r0, [sp, #12]
	str	r1, [sp, #8]
	str	r2, [sp, #4]
	str	r3, [sp]
.Ltmp65:
	.loc	2 240 5 prologue_end            @ libraries/drivers/drv_dcmi.c:240:5
	ldr	r0, [sp, #12]
.Ltmp66:
	.loc	2 240 5 is_stmt 0               @ libraries/drivers/drv_dcmi.c:240:5
	cbnz	r0, .LBB12_2
	b	.LBB12_1
.LBB12_1:
.Ltmp67:
	.loc	2 240 5                         @ libraries/drivers/drv_dcmi.c:240:5
	movw	r0, :lower16:.L.str.4
	movt	r0, :upper16:.L.str.4
	movw	r1, :lower16:.L__FUNCTION__.rt_dcmi_read
	movt	r1, :upper16:.L__FUNCTION__.rt_dcmi_read
	movs	r2, #240
	bl	rt_assert_handler
	b	.LBB12_2
.Ltmp68:
.LBB12_2:
	.loc	2 0 5                           @ libraries/drivers/drv_dcmi.c:0:5
	movs	r0, #0
	.loc	2 242 5 is_stmt 1               @ libraries/drivers/drv_dcmi.c:242:5
	add	sp, #16
	pop	{r7, pc}
.Ltmp69:
.Lfunc_end12:
	.size	rt_dcmi_read, .Lfunc_end12-rt_dcmi_read
	.cfi_endproc
	.cantunwind
	.fnend
                                        @ -- End function
	.section	.text.rt_dcmi_write,"ax",%progbits
	.p2align	3                               @ -- Begin function rt_dcmi_write
	.type	rt_dcmi_write,%function
	.code	16                              @ @rt_dcmi_write
	.thumb_func
rt_dcmi_write:
.Lfunc_begin13:
	.loc	2 246 0                         @ libraries/drivers/drv_dcmi.c:246:0
	.fnstart
	.cfi_startproc
@ %bb.0:
	.save	{r7, lr}
	push	{r7, lr}
	.cfi_def_cfa_offset 8
	.cfi_offset lr, -4
	.cfi_offset r7, -8
	.pad	#16
	sub	sp, #16
	.cfi_def_cfa_offset 24
	str	r0, [sp, #12]
	str	r1, [sp, #8]
	str	r2, [sp, #4]
	str	r3, [sp]
.Ltmp70:
	.loc	2 247 5 prologue_end            @ libraries/drivers/drv_dcmi.c:247:5
	ldr	r0, [sp, #12]
.Ltmp71:
	.loc	2 247 5 is_stmt 0               @ libraries/drivers/drv_dcmi.c:247:5
	cbnz	r0, .LBB13_2
	b	.LBB13_1
.LBB13_1:
.Ltmp72:
	.loc	2 247 5                         @ libraries/drivers/drv_dcmi.c:247:5
	movw	r0, :lower16:.L.str.4
	movt	r0, :upper16:.L.str.4
	movw	r1, :lower16:.L__FUNCTION__.rt_dcmi_write
	movt	r1, :upper16:.L__FUNCTION__.rt_dcmi_write
	movs	r2, #247
	bl	rt_assert_handler
	b	.LBB13_2
.Ltmp73:
.LBB13_2:
	.loc	2 0 5                           @ libraries/drivers/drv_dcmi.c:0:5
	movs	r0, #0
	.loc	2 249 5 is_stmt 1               @ libraries/drivers/drv_dcmi.c:249:5
	add	sp, #16
	pop	{r7, pc}
.Ltmp74:
.Lfunc_end13:
	.size	rt_dcmi_write, .Lfunc_end13-rt_dcmi_write
	.cfi_endproc
	.cantunwind
	.fnend
                                        @ -- End function
	.section	.text.rt_dcmi_control,"ax",%progbits
	.p2align	3                               @ -- Begin function rt_dcmi_control
	.type	rt_dcmi_control,%function
	.code	16                              @ @rt_dcmi_control
	.thumb_func
rt_dcmi_control:
.Lfunc_begin14:
	.loc	2 232 0                         @ libraries/drivers/drv_dcmi.c:232:0
	.fnstart
	.cfi_startproc
@ %bb.0:
	.save	{r7, lr}
	push	{r7, lr}
	.cfi_def_cfa_offset 8
	.cfi_offset lr, -4
	.cfi_offset r7, -8
	.pad	#16
	sub	sp, #16
	.cfi_def_cfa_offset 24
	str	r0, [sp, #12]
	str	r1, [sp, #8]
	str	r2, [sp, #4]
.Ltmp75:
	.loc	2 233 5 prologue_end            @ libraries/drivers/drv_dcmi.c:233:5
	ldr	r0, [sp, #12]
.Ltmp76:
	.loc	2 233 5 is_stmt 0               @ libraries/drivers/drv_dcmi.c:233:5
	cbnz	r0, .LBB14_2
	b	.LBB14_1
.LBB14_1:
.Ltmp77:
	.loc	2 233 5                         @ libraries/drivers/drv_dcmi.c:233:5
	movw	r0, :lower16:.L.str.4
	movt	r0, :upper16:.L.str.4
	movw	r1, :lower16:.L__FUNCTION__.rt_dcmi_control
	movt	r1, :upper16:.L__FUNCTION__.rt_dcmi_control
	movs	r2, #233
	bl	rt_assert_handler
	b	.LBB14_2
.Ltmp78:
.LBB14_2:
	.loc	2 0 5                           @ libraries/drivers/drv_dcmi.c:0:5
	movs	r0, #0
	.loc	2 235 5 is_stmt 1               @ libraries/drivers/drv_dcmi.c:235:5
	add	sp, #16
	pop	{r7, pc}
.Ltmp79:
.Lfunc_end14:
	.size	rt_dcmi_control, .Lfunc_end14-rt_dcmi_control
	.cfi_endproc
	.cantunwind
	.fnend
                                        @ -- End function
	.section	.text.rt_hw_dcmi_init,"ax",%progbits
	.p2align	3                               @ -- Begin function rt_hw_dcmi_init
	.type	rt_hw_dcmi_init,%function
	.code	16                              @ @rt_hw_dcmi_init
	.thumb_func
rt_hw_dcmi_init:
.Lfunc_begin15:
	.loc	2 70 0                          @ libraries/drivers/drv_dcmi.c:70:0
	.fnstart
	.cfi_startproc
@ %bb.0:
	.save	{r7, lr}
	push	{r7, lr}
	.cfi_def_cfa_offset 8
	.cfi_offset lr, -4
	.cfi_offset r7, -8
	.pad	#8
	sub	sp, #8
	.cfi_def_cfa_offset 16
	str	r0, [sp]
.Ltmp80:
	.loc	2 71 5 prologue_end             @ libraries/drivers/drv_dcmi.c:71:5
	ldr	r0, [sp]
.Ltmp81:
	.loc	2 71 5 is_stmt 0                @ libraries/drivers/drv_dcmi.c:71:5
	cbnz	r0, .LBB15_2
	b	.LBB15_1
.LBB15_1:
.Ltmp82:
	.loc	2 71 5                          @ libraries/drivers/drv_dcmi.c:71:5
	movw	r0, :lower16:.L.str.5
	movt	r0, :upper16:.L.str.5
	movw	r1, :lower16:.L__FUNCTION__.rt_hw_dcmi_init
	movt	r1, :upper16:.L__FUNCTION__.rt_hw_dcmi_init
	movs	r2, #71
	bl	rt_assert_handler
	b	.LBB15_2
.Ltmp83:
.LBB15_2:
	.loc	2 73 5 is_stmt 1                @ libraries/drivers/drv_dcmi.c:73:5
	ldr	r1, [sp]
	movs	r0, #0
	movt	r0, #18434
	.loc	2 73 22 is_stmt 0               @ libraries/drivers/drv_dcmi.c:73:22
	str	r0, [r1]
	.loc	2 74 5 is_stmt 1                @ libraries/drivers/drv_dcmi.c:74:5
	ldr	r1, [sp]
	movs	r0, #0
	.loc	2 74 30 is_stmt 0               @ libraries/drivers/drv_dcmi.c:74:30
	str	r0, [r1, #4]
	.loc	2 75 5 is_stmt 1                @ libraries/drivers/drv_dcmi.c:75:5
	ldr	r2, [sp]
	movs	r1, #32
	.loc	2 75 30 is_stmt 0               @ libraries/drivers/drv_dcmi.c:75:30
	str	r1, [r2, #8]
	.loc	2 76 5 is_stmt 1                @ libraries/drivers/drv_dcmi.c:76:5
	ldr	r1, [sp]
	.loc	2 76 29 is_stmt 0               @ libraries/drivers/drv_dcmi.c:76:29
	str	r0, [r1, #12]
	.loc	2 77 5 is_stmt 1                @ libraries/drivers/drv_dcmi.c:77:5
	ldr	r1, [sp]
	.loc	2 77 29 is_stmt 0               @ libraries/drivers/drv_dcmi.c:77:29
	str	r0, [r1, #16]
	.loc	2 78 5 is_stmt 1                @ libraries/drivers/drv_dcmi.c:78:5
	ldr	r1, [sp]
	.loc	2 78 30 is_stmt 0               @ libraries/drivers/drv_dcmi.c:78:30
	str	r0, [r1, #20]
	.loc	2 79 5 is_stmt 1                @ libraries/drivers/drv_dcmi.c:79:5
	ldr	r1, [sp]
	.loc	2 79 35 is_stmt 0               @ libraries/drivers/drv_dcmi.c:79:35
	str	r0, [r1, #24]
.Ltmp84:
	.loc	2 86 23 is_stmt 1               @ libraries/drivers/drv_dcmi.c:86:23
	ldr	r0, [sp]
	.loc	2 86 9 is_stmt 0                @ libraries/drivers/drv_dcmi.c:86:9
	bl	HAL_DCMI_Init
.Ltmp85:
	.loc	2 86 9                          @ libraries/drivers/drv_dcmi.c:86:9
	cbz	r0, .LBB15_6
	b	.LBB15_3
.LBB15_3:
.Ltmp86:
	.loc	2 88 9 is_stmt 1                @ libraries/drivers/drv_dcmi.c:88:9
	b	.LBB15_4
.LBB15_4:
.Ltmp87:
	.loc	2 88 9 is_stmt 0                @ libraries/drivers/drv_dcmi.c:88:9
	movw	r0, :lower16:.L.str.6
	movt	r0, :upper16:.L.str.6
	bl	rt_kprintf
	movw	r0, :lower16:.L.str.7
	movt	r0, :upper16:.L.str.7
	bl	rt_kprintf
	movw	r0, :lower16:.L.str.3
	movt	r0, :upper16:.L.str.3
	bl	rt_kprintf
	b	.LBB15_5
.Ltmp88:
.LBB15_5:
	.loc	2 0 9                           @ libraries/drivers/drv_dcmi.c:0:9
	movs	r0, #1
	.loc	2 89 9 is_stmt 1                @ libraries/drivers/drv_dcmi.c:89:9
	str	r0, [sp, #4]
	b	.LBB15_7
.Ltmp89:
.LBB15_6:
	.loc	2 0 9 is_stmt 0                 @ libraries/drivers/drv_dcmi.c:0:9
	movs	r1, #12
	movt	r1, #18434
	movs	r0, #0
	.loc	2 92 15 is_stmt 1               @ libraries/drivers/drv_dcmi.c:92:15
	str	r0, [r1]
	.loc	2 94 5                          @ libraries/drivers/drv_dcmi.c:94:5
	ldr	r1, [sp]
	ldr	r2, [r1]
	ldr	r1, [r2, #12]
	orr	r1, r1, #1
	str	r1, [r2, #12]
	.loc	2 95 5                          @ libraries/drivers/drv_dcmi.c:95:5
	ldr	r1, [sp]
	ldr	r2, [r1]
	ldr	r1, [r2]
	orr	r1, r1, #16384
	str	r1, [r2]
	.loc	2 97 5                          @ libraries/drivers/drv_dcmi.c:97:5
	str	r0, [sp, #4]
	b	.LBB15_7
.LBB15_7:
	.loc	2 98 1                          @ libraries/drivers/drv_dcmi.c:98:1
	ldr	r0, [sp, #4]
	add	sp, #8
	pop	{r7, pc}
.Ltmp90:
.Lfunc_end15:
	.size	rt_hw_dcmi_init, .Lfunc_end15-rt_hw_dcmi_init
	.cfi_endproc
	.cantunwind
	.fnend
                                        @ -- End function
	.section	.text.rt_hw_dcmi_dma_init,"ax",%progbits
	.p2align	3                               @ -- Begin function rt_hw_dcmi_dma_init
	.type	rt_hw_dcmi_dma_init,%function
	.code	16                              @ @rt_hw_dcmi_dma_init
	.thumb_func
rt_hw_dcmi_dma_init:
.Lfunc_begin16:
	.loc	2 34 0                          @ libraries/drivers/drv_dcmi.c:34:0
	.fnstart
	.cfi_startproc
@ %bb.0:
	.save	{r7, lr}
	push	{r7, lr}
	.cfi_def_cfa_offset 8
	.cfi_offset lr, -4
	.cfi_offset r7, -8
	.pad	#16
	sub	sp, #16
	.cfi_def_cfa_offset 24
.Ltmp91:
	.loc	2 35 5 prologue_end             @ libraries/drivers/drv_dcmi.c:35:5
	b	.LBB16_1
.LBB16_1:
	.loc	2 0 5 is_stmt 0                 @ libraries/drivers/drv_dcmi.c:0:5
	movw	r0, #17624
	movt	r0, #22530
.Ltmp92:
	.loc	2 35 5                          @ libraries/drivers/drv_dcmi.c:35:5
	ldr	r1, [r0]
	orr	r1, r1, #2
	str	r1, [r0]
	ldr	r0, [r0]
	and	r0, r0, #2
	str	r0, [sp, #12]
	ldr	r0, [sp, #12]
	b	.LBB16_2
.Ltmp93:
.LBB16_2:
	.loc	2 37 24 is_stmt 1               @ libraries/drivers/drv_dcmi.c:37:24
	movw	r0, :lower16:hdma_dcmi
	movt	r0, :upper16:hdma_dcmi
	str	r0, [sp, #8]                    @ 4-byte Spill
	movw	r1, #1064
	movt	r1, #16386
	str	r1, [r0]
	movs	r1, #75
	.loc	2 38 28                         @ libraries/drivers/drv_dcmi.c:38:28
	str	r1, [r0, #4]
	movs	r1, #0
	.loc	2 39 30                         @ libraries/drivers/drv_dcmi.c:39:30
	str	r1, [r0, #8]
	.loc	2 40 30                         @ libraries/drivers/drv_dcmi.c:40:30
	str	r1, [r0, #12]
	mov.w	r2, #1024
	.loc	2 41 27                         @ libraries/drivers/drv_dcmi.c:41:27
	str	r2, [r0, #16]
	mov.w	r2, #4096
	.loc	2 42 40                         @ libraries/drivers/drv_dcmi.c:42:40
	str	r2, [r0, #20]
	mov.w	r2, #16384
	.loc	2 43 37                         @ libraries/drivers/drv_dcmi.c:43:37
	str	r2, [r0, #24]
	mov.w	r2, #256
	.loc	2 44 25                         @ libraries/drivers/drv_dcmi.c:44:25
	str	r2, [r0, #28]
	mov.w	r2, #131072
	.loc	2 45 29                         @ libraries/drivers/drv_dcmi.c:45:29
	str	r2, [r0, #32]
	movs	r2, #4
	.loc	2 46 29                         @ libraries/drivers/drv_dcmi.c:46:29
	str	r2, [r0, #36]
	movs	r2, #3
	.loc	2 47 34                         @ libraries/drivers/drv_dcmi.c:47:34
	str	r2, [r0, #40]
	.loc	2 48 29                         @ libraries/drivers/drv_dcmi.c:48:29
	str	r1, [r0, #44]
	.loc	2 49 32                         @ libraries/drivers/drv_dcmi.c:49:32
	str	r1, [r0, #48]
	.loc	2 51 5                          @ libraries/drivers/drv_dcmi.c:51:5
	bl	HAL_DMA_Init
	.loc	2 53 5                          @ libraries/drivers/drv_dcmi.c:53:5
	b	.LBB16_3
.LBB16_3:
.Ltmp94:
	.loc	2 53 5 is_stmt 0                @ libraries/drivers/drv_dcmi.c:53:5
	movw	r0, :lower16:rt_dcmi
	movt	r0, :upper16:rt_dcmi
	movw	r1, :lower16:hdma_dcmi
	movt	r1, :upper16:hdma_dcmi
	str	r1, [r0, #72]
	str	r0, [r1, #56]
	b	.LBB16_4
.Ltmp95:
.LBB16_4:
	.loc	2 0 5                           @ libraries/drivers/drv_dcmi.c:0:5
	movs	r0, #57
	str	r0, [sp, #4]                    @ 4-byte Spill
	movs	r2, #0
	.loc	2 55 5 is_stmt 1                @ libraries/drivers/drv_dcmi.c:55:5
	mov	r1, r2
	bl	HAL_NVIC_SetPriority
	ldr	r0, [sp, #4]                    @ 4-byte Reload
	.loc	2 56 5                          @ libraries/drivers/drv_dcmi.c:56:5
	bl	HAL_NVIC_EnableIRQ
	.loc	2 58 1                          @ libraries/drivers/drv_dcmi.c:58:1
	add	sp, #16
	pop	{r7, pc}
.Ltmp96:
.Lfunc_end16:
	.size	rt_hw_dcmi_dma_init, .Lfunc_end16-rt_hw_dcmi_dma_init
	.cfi_endproc
	.cantunwind
	.fnend
                                        @ -- End function
	.hidden	hdma_dcmi                       @ @hdma_dcmi
	.type	hdma_dcmi,%object
	.section	.bss.hdma_dcmi,"aw",%nobits
	.globl	hdma_dcmi
	.p2align	2
hdma_dcmi:
	.zero	120
	.size	hdma_dcmi, 120

	.type	rt_dcmi,%object                 @ @rt_dcmi
	.section	.bss.rt_dcmi,"aw",%nobits
	.p2align	2
rt_dcmi:
	.zero	160
	.size	rt_dcmi, 160

	.type	.L.str,%object                  @ @.str
	.section	.rodata.str1.1,"aMS",%progbits,1
.L.str:
	.asciz	"dcmi"
	.size	.L.str, 5

	.type	.L.str.1,%object                @ @.str.1
.L.str.1:
	.asciz	"[I/drv.dcmi] "
	.size	.L.str.1, 14

	.type	.L.str.2,%object                @ @.str.2
.L.str.2:
	.asciz	"dcmi init success!"
	.size	.L.str.2, 19

	.type	.L.str.3,%object                @ @.str.3
.L.str.3:
	.asciz	"\n"
	.size	.L.str.3, 2

	.hidden	__rt_init_dcmi_init             @ @__rt_init_dcmi_init
	.type	__rt_init_dcmi_init,%object
	.section	.rti_fn.1,"a",%progbits
	.globl	__rt_init_dcmi_init
	.p2align	2
__rt_init_dcmi_init:
__tagsym$$used.0:
	.long	dcmi_init
	.size	__rt_init_dcmi_init, 4

	.type	.L.str.4,%object                @ @.str.4
	.section	.rodata.str1.1,"aMS",%progbits,1
.L.str.4:
	.asciz	"dev != RT_NULL"
	.size	.L.str.4, 15

	.type	.L__FUNCTION__.rt_dcmi_init,%object @ @__FUNCTION__.rt_dcmi_init
.L__FUNCTION__.rt_dcmi_init:
	.asciz	"rt_dcmi_init"
	.size	.L__FUNCTION__.rt_dcmi_init, 13

	.type	.L.str.5,%object                @ @.str.5
.L.str.5:
	.asciz	"device != RT_NULL"
	.size	.L.str.5, 18

	.type	.L__FUNCTION__.rt_hw_dcmi_init,%object @ @__FUNCTION__.rt_hw_dcmi_init
.L__FUNCTION__.rt_hw_dcmi_init:
	.asciz	"rt_hw_dcmi_init"
	.size	.L__FUNCTION__.rt_hw_dcmi_init, 16

	.type	.L.str.6,%object                @ @.str.6
.L.str.6:
	.asciz	"[E/drv.dcmi] "
	.size	.L.str.6, 14

	.type	.L.str.7,%object                @ @.str.7
.L.str.7:
	.asciz	"dcmi init error!"
	.size	.L.str.7, 17

	.type	.L__FUNCTION__.rt_dcmi_open,%object @ @__FUNCTION__.rt_dcmi_open
.L__FUNCTION__.rt_dcmi_open:
	.asciz	"rt_dcmi_open"
	.size	.L__FUNCTION__.rt_dcmi_open, 13

	.type	.L__FUNCTION__.rt_dcmi_close,%object @ @__FUNCTION__.rt_dcmi_close
.L__FUNCTION__.rt_dcmi_close:
	.asciz	"rt_dcmi_close"
	.size	.L__FUNCTION__.rt_dcmi_close, 14

	.type	.L__FUNCTION__.rt_dcmi_read,%object @ @__FUNCTION__.rt_dcmi_read
.L__FUNCTION__.rt_dcmi_read:
	.asciz	"rt_dcmi_read"
	.size	.L__FUNCTION__.rt_dcmi_read, 13

	.type	.L__FUNCTION__.rt_dcmi_write,%object @ @__FUNCTION__.rt_dcmi_write
.L__FUNCTION__.rt_dcmi_write:
	.asciz	"rt_dcmi_write"
	.size	.L__FUNCTION__.rt_dcmi_write, 14

	.type	.L__FUNCTION__.rt_dcmi_control,%object @ @__FUNCTION__.rt_dcmi_control
.L__FUNCTION__.rt_dcmi_control:
	.asciz	"rt_dcmi_control"
	.size	.L__FUNCTION__.rt_dcmi_control, 16

	.globl	__rt_init_dcmi_init
	.file	11 "E:\\STM32\\Learning\\STM32H750_ART_PI_RGBLCD" "libraries/STM32H7xx_HAL/STM32H7xx_HAL_Driver/Inc\\stm32h7xx_hal_gpio.h"
	.section	".note.GNU-stack","",%progbits
	.eabi_attribute	30, 6	@ Tag_ABI_optimization_goals
	.ARM_attribute	16, 1	@ Tag_AV_eba