	.text
	.syntax unified
	.eabi_attribute	67, "2.09"	@ Tag_conformance
	.cpu	cortex-m7
	.eabi_attribute	6, 13	@ Tag_CPU_arch
	.eabi_attribute	7, 77	@ Tag_CPU_arch_profile
	.eabi_attribute	8, 0	@ Tag_ARM_ISA_use
	.eabi_attribute	9, 2	@ Tag_THUMB_ISA_use
	.fpu	fpv5-d16
	.eabi_attribute	36, 1	@ Tag_FP_HP_extension
	.eabi_attribute	34, 1	@ Tag_CPU_unaligned_access
	.eabi_attribute	17, 1	@ Tag_ABI_PCS_GOT_use
	.eabi_attribute	20, 2	@ Tag_ABI_FP_denormal
	.eabi_attribute	21, 0	@ Tag_ABI_FP_exceptions
	.eabi_attribute	23, 1	@ Tag_ABI_FP_number_model
	.eabi_attribute	24, 1	@ Tag_ABI_align_needed
	.eabi_attribute	25, 1	@ Tag_ABI_align_preserved
	.eabi_attribute	28, 1	@ Tag_ABI_VFP_args
	.eabi_attribute	38, 1	@ Tag_ABI_FP_16bit_format
	.eabi_attribute	18, 2	@ Tag_ABI_PCS_wchar_t
	.eabi_attribute	26, 1	@ Tag_ABI_enum_size
	.eabi_attribute	14, 0	@ Tag_ABI_PCS_R9_use
	.file	"drv_mpu.c"
	.file	1 "E:\\STM32\\Learning\\STM32H750_ART_PI_RGBLCD" "rt-thread/include\\rtdef.h"
	.file	2 "E:\\STM32\\Learning\\STM32H750_ART_PI_RGBLCD" "board/drv_mpu.c"
	.file	3 "D:\\Keil_v5\\ARM\\ARMCLANG\\Bin\\..\\include" "stdint.h"
	.file	4 "E:\\STM32\\Learning\\STM32H750_ART_PI_RGBLCD" "libraries/STM32H7xx_HAL/CMSIS/Include\\core_cm7.h"
	.section	.text.mpu_init,"ax",%progbits
	.hidden	mpu_init                        @ -- Begin function mpu_init
	.globl	mpu_init
	.p2align	3
	.type	mpu_init,%function
	.code	16                              @ @mpu_init
	.thumb_func
mpu_init:
.Lfunc_begin0:
	.loc	2 15 0                          @ board/drv_mpu.c:15:0
	.fnstart
	.cfi_sections .debug_frame
	.cfi_startproc
@ %bb.0:
	.save	{r7, lr}
	push	{r7, lr}
	.cfi_def_cfa_offset 8
	.cfi_offset lr, -4
	.cfi_offset r7, -8
	.pad	#40
	sub	sp, #40
	.cfi_def_cfa_offset 48
.Ltmp0:
	.loc	2 19 5 prologue_end             @ board/drv_mpu.c:19:5
	bl	HAL_MPU_Disable
	movs	r1, #1
	.loc	2 22 38                         @ board/drv_mpu.c:22:38
	str	r1, [sp, #8]                    @ 4-byte Spill
	strb.w	r1, [sp, #24]
	mov.w	r0, #603979776
	.loc	2 23 38                         @ board/drv_mpu.c:23:38
	str	r0, [sp, #28]
	movs	r0, #18
	.loc	2 24 38                         @ board/drv_mpu.c:24:38
	strb.w	r0, [sp, #32]
	movs	r0, #3
	.loc	2 25 38                         @ board/drv_mpu.c:25:38
	str	r0, [sp, #4]                    @ 4-byte Spill
	strb.w	r0, [sp, #35]
	movs	r0, #0
	.loc	2 26 38                         @ board/drv_mpu.c:26:38
	str	r0, [sp, #20]                   @ 4-byte Spill
	strb.w	r0, [sp, #39]
	.loc	2 27 38                         @ board/drv_mpu.c:27:38
	strb.w	r1, [sp, #38]
	.loc	2 28 38                         @ board/drv_mpu.c:28:38
	strb.w	r0, [sp, #37]
	.loc	2 29 38                         @ board/drv_mpu.c:29:38
	strb.w	r0, [sp, #25]
	.loc	2 30 38                         @ board/drv_mpu.c:30:38
	strb.w	r0, [sp, #34]
	.loc	2 31 38                         @ board/drv_mpu.c:31:38
	strb.w	r0, [sp, #33]
	.loc	2 32 38                         @ board/drv_mpu.c:32:38
	strb.w	r0, [sp, #36]
	add	r0, sp, #24
	.loc	2 34 5                          @ board/drv_mpu.c:34:5
	str	r0, [sp, #12]                   @ 4-byte Spill
	bl	HAL_MPU_ConfigRegion
	ldr	r3, [sp, #4]                    @ 4-byte Reload
	ldr	r2, [sp, #8]                    @ 4-byte Reload
	ldr	r0, [sp, #12]                   @ 4-byte Reload
	ldr	r1, [sp, #20]                   @ 4-byte Reload
	.loc	2 38 38                         @ board/drv_mpu.c:38:38
	strb.w	r2, [sp, #24]
	mov.w	r12, #-1073741824
	.loc	2 39 38                         @ board/drv_mpu.c:39:38
	str.w	r12, [sp, #28]
	mov.w	r12, #24
	.loc	2 40 38                         @ board/drv_mpu.c:40:38
	strb.w	r12, [sp, #32]
	.loc	2 41 38                         @ board/drv_mpu.c:41:38
	strb.w	r3, [sp, #35]
	.loc	2 42 38                         @ board/drv_mpu.c:42:38
	strb.w	r1, [sp, #39]
	.loc	2 43 38                         @ board/drv_mpu.c:43:38
	strb.w	r2, [sp, #38]
	.loc	2 44 38                         @ board/drv_mpu.c:44:38
	strb.w	r1, [sp, #37]
	.loc	2 45 38                         @ board/drv_mpu.c:45:38
	strb.w	r2, [sp, #25]
	.loc	2 46 38                         @ board/drv_mpu.c:46:38
	strb.w	r1, [sp, #34]
	.loc	2 47 38                         @ board/drv_mpu.c:47:38
	strb.w	r1, [sp, #33]
	.loc	2 48 38                         @ board/drv_mpu.c:48:38
	strb.w	r1, [sp, #36]
	.loc	2 50 5                          @ board/drv_mpu.c:50:5
	bl	HAL_MPU_ConfigRegion
	ldr	r3, [sp, #4]                    @ 4-byte Reload
	ldr	r2, [sp, #8]                    @ 4-byte Reload
	ldr	r0, [sp, #12]                   @ 4-byte Reload
	ldr	r1, [sp, #20]                   @ 4-byte Reload
	.loc	2 88 38                         @ board/drv_mpu.c:88:38
	strb.w	r2, [sp, #24]
	mov.w	r12, #-1879048192
	.loc	2 89 38                         @ board/drv_mpu.c:89:38
	str.w	r12, [sp, #28]
	mov.w	r12, #22
	.loc	2 90 38                         @ board/drv_mpu.c:90:38
	strb.w	r12, [sp, #32]
	.loc	2 91 38                         @ board/drv_mpu.c:91:38
	strb.w	r3, [sp, #35]
	.loc	2 92 38                         @ board/drv_mpu.c:92:38
	strb.w	r1, [sp, #39]
	.loc	2 93 38                         @ board/drv_mpu.c:93:38
	strb.w	r2, [sp, #38]
	.loc	2 94 38                         @ board/drv_mpu.c:94:38
	strb.w	r1, [sp, #37]
	movs	r2, #4
	.loc	2 95 38                         @ board/drv_mpu.c:95:38
	str	r2, [sp, #16]                   @ 4-byte Spill
	strb.w	r2, [sp, #25]
	.loc	2 96 38                         @ board/drv_mpu.c:96:38
	strb.w	r1, [sp, #34]
	.loc	2 97 38                         @ board/drv_mpu.c:97:38
	strb.w	r1, [sp, #33]
	.loc	2 98 38                         @ board/drv_mpu.c:98:38
	strb.w	r1, [sp, #36]
	.loc	2 100 5                         @ board/drv_mpu.c:100:5
	bl	HAL_MPU_ConfigRegion
	ldr	r0, [sp, #16]                   @ 4-byte Reload
	.loc	2 103 5                         @ board/drv_mpu.c:103:5
	bl	HAL_MPU_Enable
	.loc	2 106 5                         @ board/drv_mpu.c:106:5
	bl	SCB_EnableICache
	.loc	2 107 5                         @ board/drv_mpu.c:107:5
	bl	SCB_EnableDCache
	ldr	r0, [sp, #20]                   @ 4-byte Reload
	.loc	2 109 5                         @ board/drv_mpu.c:109:5
	add	sp, #40
	pop	{r7, pc}
.Ltmp1:
.Lfunc_end0:
	.size	mpu_init, .Lfunc_end0-mpu_init
	.cfi_endproc
	.cantunwind
	.fnend
                                        @ -- End function
	.section	.text.SCB_EnableICache,"ax",%progbits
	.p2align	3                               @ -- Begin function SCB_EnableICache
	.type	SCB_EnableICache,%function
	.code	16                              @ @SCB_EnableICache
	.thumb_func
SCB_EnableICache:
.Lfunc_begin1:
	.loc	4 2230 0                        @ libraries/STM32H7xx_HAL/CMSIS/Include\core_cm7.h:2230:0
	.fnstart
	.cfi_startproc
@ %bb.0:
	.loc	4 2232 5 prologue_end           @ libraries/STM32H7xx_HAL/CMSIS/Include\core_cm7.h:2232:5
	dsb	sy
	.loc	4 2233 5                        @ libraries/STM32H7xx_HAL/CMSIS/Include\core_cm7.h:2233:5
	isb	sy
	movw	r1, #61264
	movt	r1, #57344
	movs	r0, #0
	.loc	4 2234 18                       @ libraries/STM32H7xx_HAL/CMSIS/Include\core_cm7.h:2234:18
	str	r0, [r1]
	.loc	4 2235 5                        @ libraries/STM32H7xx_HAL/CMSIS/Include\core_cm7.h:2235:5
	dsb	sy
	.loc	4 2236 5                        @ libraries/STM32H7xx_HAL/CMSIS/Include\core_cm7.h:2236:5
	isb	sy
	movw	r1, #60692
	movt	r1, #57344
	.loc	4 2237 14                       @ libraries/STM32H7xx_HAL/CMSIS/Include\core_cm7.h:2237:14
	ldr	r0, [r1]
	orr	r0, r0, #131072
	str	r0, [r1]
	.loc	4 2238 5                        @ libraries/STM32H7xx_HAL/CMSIS/Include\core_cm7.h:2238:5
	dsb	sy
	.loc	4 2239 5                        @ libraries/STM32H7xx_HAL/CMSIS/Include\core_cm7.h:2239:5
	isb	sy
	.loc	4 2241 1                        @ libraries/STM32H7xx_HAL/CMSIS/Include\core_cm7.h:2241:1
	bx	lr
.Ltmp2:
.Lfunc_end1:
	.size	SCB_EnableICache, .Lfunc_end1-SCB_EnableICache
	.cfi_endproc
	.cantunwind
	.fnend
                                        @ -- End function
	.section	.text.SCB_EnableDCache,"ax",%progbits
	.p2align	3                               @ -- Begin function SCB_EnableDCache
	.type	SCB_EnableDCache,%function
	.code	16                              @ @SCB_EnableDCache
	.thumb_func
SCB_EnableDCache:
.Lfunc_begin2:
	.loc	4 2282 0                        @ libraries/STM32H7xx_HAL/CMSIS/Include\core_cm7.h:2282:0
	.fnstart
	.cfi_startproc
@ %bb.0:
	.pad	#12
	sub	sp, #12
	.cfi_def_cfa_offset 12
	movw	r1, #60804
	movt	r1, #57344
	movs	r0, #0
.Ltmp3:
	.loc	4 2288 17 prologue_end          @ libraries/STM32H7xx_HAL/CMSIS/Include\core_cm7.h:2288:17
	str	r0, [r1]
	.loc	4 2289 5                        @ libraries/STM32H7xx_HAL/CMSIS/Include\core_cm7.h:2289:5
	dsb	sy
	movw	r0, #60800
	movt	r0, #57344
	.loc	4 2291 19                       @ libraries/STM32H7xx_HAL/CMSIS/Include\core_cm7.h:2291:19
	ldr	r0, [r0]
	.loc	4 2291 12 is_stmt 0             @ libraries/STM32H7xx_HAL/CMSIS/Include\core_cm7.h:2291:12
	str	r0, [sp, #8]
	.loc	4 2294 23 is_stmt 1             @ libraries/STM32H7xx_HAL/CMSIS/Include\core_cm7.h:2294:23
	ldr	r0, [sp, #8]
	ubfx	r0, r0, #13, #15
	.loc	4 2294 10 is_stmt 0             @ libraries/STM32H7xx_HAL/CMSIS/Include\core_cm7.h:2294:10
	str	r0, [sp, #4]
	.loc	4 2295 5 is_stmt 1              @ libraries/STM32H7xx_HAL/CMSIS/Include\core_cm7.h:2295:5
	b	.LBB2_1
.LBB2_1:                                @ =>This Loop Header: Depth=1
                                        @     Child Loop BB2_2 Depth 2
.Ltmp4:
	.loc	4 2296 25                       @ libraries/STM32H7xx_HAL/CMSIS/Include\core_cm7.h:2296:25
	ldr	r0, [sp, #8]
	ubfx	r0, r0, #3, #10
	.loc	4 2296 12 is_stmt 0             @ libraries/STM32H7xx_HAL/CMSIS/Include\core_cm7.h:2296:12
	str	r0, [sp]
	.loc	4 2297 7 is_stmt 1              @ libraries/STM32H7xx_HAL/CMSIS/Include\core_cm7.h:2297:7
	b	.LBB2_2
.LBB2_2:                                @   Parent Loop BB2_1 Depth=1
                                        @ =>  This Inner Loop Header: Depth=2
.Ltmp5:
	.loc	4 2298 25                       @ libraries/STM32H7xx_HAL/CMSIS/Include\core_cm7.h:2298:25
	ldr	r1, [sp, #4]
	.loc	4 2299 25                       @ libraries/STM32H7xx_HAL/CMSIS/Include\core_cm7.h:2299:25
	ldr	r0, [sp]
	.loc	4 2299 30 is_stmt 0             @ libraries/STM32H7xx_HAL/CMSIS/Include\core_cm7.h:2299:30
	lsls	r0, r0, #30
	.loc	4 2298 73 is_stmt 1             @ libraries/STM32H7xx_HAL/CMSIS/Include\core_cm7.h:2298:73
	bfi	r0, r1, #5, #9
	movw	r1, #61280
	movt	r1, #57344
	.loc	4 2298 20 is_stmt 0             @ libraries/STM32H7xx_HAL/CMSIS/Include\core_cm7.h:2298:20
	str	r0, [r1]
	.loc	4 2303 7 is_stmt 1              @ libraries/STM32H7xx_HAL/CMSIS/Include\core_cm7.h:2303:7
	b	.LBB2_3
.Ltmp6:
.LBB2_3:                                @   in Loop: Header=BB2_2 Depth=2
	.loc	4 2303 20 is_stmt 0             @ libraries/STM32H7xx_HAL/CMSIS/Include\core_cm7.h:2303:20
	ldr	r0, [sp]
	subs	r1, r0, #1
	str	r1, [sp]
.Ltmp7:
	.loc	4 2303 7                        @ libraries/STM32H7xx_HAL/CMSIS/Include\core_cm7.h:2303:7
	cmp	r0, #0
	bne	.LBB2_2
	b	.LBB2_4
.Ltmp8:
.LBB2_4:                                @   in Loop: Header=BB2_1 Depth=1
	.loc	4 2304 5 is_stmt 1              @ libraries/STM32H7xx_HAL/CMSIS/Include\core_cm7.h:2304:5
	b	.LBB2_5
.Ltmp9:
.LBB2_5:                                @   in Loop: Header=BB2_1 Depth=1
	.loc	4 2304 17 is_stmt 0             @ libraries/STM32H7xx_HAL/CMSIS/Include\core_cm7.h:2304:17
	ldr	r0, [sp, #4]
	subs	r1, r0, #1
	str	r1, [sp, #4]
.Ltmp10:
	.loc	4 2304 5                        @ libraries/STM32H7xx_HAL/CMSIS/Include\core_cm7.h:2304:5
	cmp	r0, #0
	bne	.LBB2_1
	b	.LBB2_6
.Ltmp11:
.LBB2_6:
	.loc	4 2305 5 is_stmt 1              @ libraries/STM32H7xx_HAL/CMSIS/Include\core_cm7.h:2305:5
	dsb	sy
	movw	r1, #60692
	movt	r1, #57344
	.loc	4 2307 14                       @ libraries/STM32H7xx_HAL/CMSIS/Include\core_cm7.h:2307:14
	ldr	r0, [r1]
	orr	r0, r0, #65536
	str	r0, [r1]
	.loc	4 2309 5                        @ libraries/STM32H7xx_HAL/CMSIS/Include\core_cm7.h:2309:5
	dsb	sy
	.loc	4 2310 5                        @ libraries/STM32H7xx_HAL/CMSIS/Include\core_cm7.h:2310:5
	isb	sy
	.loc	4 2312 1                        @ libraries/STM32H7xx_HAL/CMSIS/Include\core_cm7.h:2312:1
	add	sp, #12
	bx	lr
.Ltmp12:
.Lfunc_end2:
	.size	SCB_EnableDCache, .Lfunc_end2-SCB_EnableDCache
	.cfi_endproc
	.cantunwind
	.fnend
                                        @ -- End function
	.hidden	__rt_init_mpu_init              @ @__rt_init_mpu_init
	.type	__rt_init_mpu_init,%object
	.section	.rti_fn.1,"a",%progbits
	.globl	__rt_init_mpu_init
	.p2align	2
__rt_init_mpu_init:
__tagsym$$used.0:
	.long	mpu_init
	.size	__rt_init_mpu_init, 4

	.globl	__rt_init_mpu_init
	.file	5 "E:\\STM32\\Learning\\STM32H750_ART_PI_RGBLCD" "libraries/STM32H7xx_HAL/STM32H7xx_HAL_Driver/Inc\\stm32h7xx_hal_cortex.h"
	.section	".note.GNU-stack","",%progbits
	.eabi_attribute	30, 6	@ Tag_ABI_optimization_goals
	.ARM_attribute	16, 1	@ Tag_AV_eba