	.text
	.syntax unified
	.eabi_attribute	67, "2.09"	@ Tag_conformance
	.cpu	cortex-m7
	.eabi_attribute	6, 13	@ Tag_CPU_arch
	.eabi_attribute	7, 77	@ Tag_CPU_arch_profile
	.eabi_attribute	8, 0	@ Tag_ARM_ISA_use
	.eabi_attribute	9, 2	@ Tag_THUMB_ISA_use
	.fpu	fpv5-d16
	.eabi_attribute	36, 1	@ Tag_FP_HP_extension
	.eabi_attribute	34, 1	@ Tag_CPU_unaligned_access
	.eabi_attribute	17, 1	@ Tag_ABI_PCS_GOT_use
	.eabi_attribute	20, 2	@ Tag_ABI_FP_denormal
	.eabi_attribute	21, 0	@ Tag_ABI_FP_exceptions
	.eabi_attribute	23, 1	@ Tag_ABI_FP_number_model
	.eabi_attribute	24, 1	@ Tag_ABI_align_needed
	.eabi_attribute	25, 1	@ Tag_ABI_align_preserved
	.eabi_attribute	28, 1	@ Tag_ABI_VFP_args
	.eabi_attribute	38, 1	@ Tag_ABI_FP_16bit_format
	.eabi_attribute	18, 2	@ Tag_ABI_PCS_wchar_t
	.eabi_attribute	26, 1	@ Tag_ABI_enum_size
	.eabi_attribute	14, 0	@ Tag_ABI_PCS_R9_use
	.file	"drv_soft_i2c.c"
	.file	1 "E:\\Smart-access-control\\Hardware\\CODE" "rt-thread/include\\rtdef.h"
	.file	2 "E:\\Smart-access-control\\Hardware\\CODE" "libraries/drivers/drv_soft_i2c.c"
	.file	3 "E:\\Smart-access-control\\Hardware\\CODE" "rt-thread/components/drivers/include/drivers/i2c-bit-ops.h"
	.file	4 "E:\\Smart-access-control\\Hardware\\CODE" "libraries/drivers/include\\drv_soft_i2c.h"
	.file	5 "E:\\Smart-access-control\\Hardware\\CODE" "rt-thread/components/drivers/include/drivers/i2c.h"
	.file	6 "D:\\Keil_v5\\ARM\\ARMCLANG\\Bin\\..\\include" "stdint.h"
	.file	7 "E:\\Smart-access-control\\Hardware\\CODE" "libraries/STM32H7xx_HAL/CMSIS/Include\\core_cm7.h"
	.section	.text.rt_hw_i2c_init,"ax",%progbits
	.hidden	rt_hw_i2c_init                  @ -- Begin function rt_hw_i2c_init
	.globl	rt_hw_i2c_init
	.p2align	3
	.type	rt_hw_i2c_init,%function
	.code	16                              @ @rt_hw_i2c_init
	.thumb_func
rt_hw_i2c_init:
.Lfunc_begin0:
	.loc	2 198 0                         @ libraries/drivers/drv_soft_i2c.c:198:0
	.fnstart
	.cfi_sections .debug_frame
	.cfi_startproc
@ %bb.0:
	.save	{r4, lr}
	push	{r4, lr}
	.cfi_def_cfa_offset 8
	.cfi_offset lr, -4
	.cfi_offset r4, -8
.Ltmp0:
	@DEBUG_VALUE: rt_hw_i2c_init:obj_num <- 1
	@DEBUG_VALUE: i <- undef
	.loc	2 204 26 prologue_end           @ libraries/drivers/drv_soft_i2c.c:204:26
	movw	r0, :lower16:i2c_obj
	.loc	2 205 29                        @ libraries/drivers/drv_soft_i2c.c:205:29
	movw	r1, :lower16:soft_i2c_config
	.loc	2 204 26                        @ libraries/drivers/drv_soft_i2c.c:204:26
	movt	r0, :upper16:i2c_obj
	.loc	2 205 29                        @ libraries/drivers/drv_soft_i2c.c:205:29
	movt	r1, :upper16:soft_i2c_config
	.loc	2 206 34                        @ libraries/drivers/drv_soft_i2c.c:206:34
	add.w	r4, r0, #32
	.loc	2 205 29                        @ libraries/drivers/drv_soft_i2c.c:205:29
	str	r1, [r0]
	.loc	2 204 26                        @ libraries/drivers/drv_soft_i2c.c:204:26
	movw	r1, :lower16:stm32_bit_ops_default
	movt	r1, :upper16:stm32_bit_ops_default
	.loc	2 206 34                        @ libraries/drivers/drv_soft_i2c.c:206:34
	str.w	r0, [r0, #164]
	.loc	2 204 26                        @ libraries/drivers/drv_soft_i2c.c:204:26
	ldr	r2, [r1, #4]
	str	r2, [r0, #4]
	ldr	r2, [r1, #8]
	str	r2, [r0, #8]
	ldr	r2, [r1, #12]
	str	r2, [r0, #12]
	ldr	r2, [r1, #16]
	str	r2, [r0, #16]
	ldr	r2, [r1, #20]
	str	r2, [r0, #20]
	ldr	r2, [r1, #24]
	str	r2, [r0, #24]
	ldr	r1, [r1, #28]
	str	r1, [r0, #28]
	.loc	2 207 9                         @ libraries/drivers/drv_soft_i2c.c:207:9
	bl	stm32_i2c_gpio_init
	.loc	2 208 18                        @ libraries/drivers/drv_soft_i2c.c:208:18
	movw	r1, :lower16:.L.str.1
	mov	r0, r4
	movt	r1, :upper16:.L.str.1
	bl	rt_i2c_bit_add_bus
.Ltmp1:
	@DEBUG_VALUE: rt_hw_i2c_init:result <- $r0
	.loc	2 209 9                         @ libraries/drivers/drv_soft_i2c.c:209:9
	cbz	r0, .LBB0_2
.Ltmp2:
@ %bb.1:
	@DEBUG_VALUE: rt_hw_i2c_init:result <- $r0
	@DEBUG_VALUE: rt_hw_i2c_init:obj_num <- 1
	.loc	2 209 9 is_stmt 0               @ libraries/drivers/drv_soft_i2c.c:209:9
	adr	r0, .LCPI0_0
.Ltmp3:
	adr	r1, .LCPI0_1
	movs	r2, #209
	bl	rt_assert_handler
.Ltmp4:
.LBB0_2:
	@DEBUG_VALUE: rt_hw_i2c_init:obj_num <- 1
	.loc	2 210 9 is_stmt 1               @ libraries/drivers/drv_soft_i2c.c:210:9
	bl	stm32_i2c_bus_unlock
.Ltmp5:
	@DEBUG_VALUE: i <- undef
	.loc	2 218 5                         @ libraries/drivers/drv_soft_i2c.c:218:5
	movs	r0, #0
	pop	{r4, pc}
.Ltmp6:
	.p2align	2
@ %bb.3:
	.loc	2 0 5 is_stmt 0                 @ libraries/drivers/drv_soft_i2c.c:0:5
.LCPI0_0:
.L.str:
	.asciz	"result == RT_EOK\000\000\000"
.LCPI0_1:
.L__FUNCTION__.rt_hw_i2c_init:
	.asciz	"rt_hw_i2c_init\000"
.Lfunc_end0:
	.size	rt_hw_i2c_init, .Lfunc_end0-rt_hw_i2c_init
	.cfi_endproc
	.cantunwind
	.fnend
                                        @ -- End function
	.section	.text.stm32_i2c_gpio_init,"ax",%progbits
	.p2align	3                               @ -- Begin function stm32_i2c_gpio_init
	.type	stm32_i2c_gpio_init,%function
	.code	16                              @ @stm32_i2c_gpio_init
	.thumb_func
stm32_i2c_gpio_init:
.Lfunc_begin1:
	.loc	2 51 0 is_stmt 1                @ libraries/drivers/drv_soft_i2c.c:51:0
	.fnstart
	.cfi_startproc
@ %bb.0:
	.save	{r4, lr}
	push	{r4, lr}
	.cfi_def_cfa_offset 8
	.cfi_offset lr, -4
	.cfi_offset r4, -8
.Ltmp7:
	.loc	2 52 81 prologue_end            @ libraries/drivers/drv_soft_i2c.c:52:81
	movw	r0, :lower16:i2c_obj
	.loc	2 54 5                          @ libraries/drivers/drv_soft_i2c.c:54:5
	movs	r1, #4
	.loc	2 52 81                         @ libraries/drivers/drv_soft_i2c.c:52:81
	movt	r0, :upper16:i2c_obj
	ldr	r4, [r0]
.Ltmp8:
	@DEBUG_VALUE: stm32_i2c_gpio_init:cfg <- $r4
	.loc	2 54 22                         @ libraries/drivers/drv_soft_i2c.c:54:22
	ldrb	r0, [r4]
	.loc	2 54 5 is_stmt 0                @ libraries/drivers/drv_soft_i2c.c:54:5
	bl	rt_pin_mode
	.loc	2 55 22 is_stmt 1               @ libraries/drivers/drv_soft_i2c.c:55:22
	ldrb	r0, [r4, #1]
	.loc	2 55 5 is_stmt 0                @ libraries/drivers/drv_soft_i2c.c:55:5
	movs	r1, #4
	bl	rt_pin_mode
	.loc	2 57 23 is_stmt 1               @ libraries/drivers/drv_soft_i2c.c:57:23
	ldrb	r0, [r4]
	.loc	2 57 5 is_stmt 0                @ libraries/drivers/drv_soft_i2c.c:57:5
	movs	r1, #1
	bl	rt_pin_write
	.loc	2 58 23 is_stmt 1               @ libraries/drivers/drv_soft_i2c.c:58:23
	ldrb	r0, [r4, #1]
	.loc	2 58 5 is_stmt 0                @ libraries/drivers/drv_soft_i2c.c:58:5
	movs	r1, #1
	bl	rt_pin_write
	.loc	2 59 1 is_stmt 1                @ libraries/drivers/drv_soft_i2c.c:59:1
	pop	{r4, pc}
.Ltmp9:
.Lfunc_end1:
	.size	stm32_i2c_gpio_init, .Lfunc_end1-stm32_i2c_gpio_init
	.cfi_endproc
	.cantunwind
	.fnend
                                        @ -- End function
	.section	.text.stm32_i2c_bus_unlock,"ax",%progbits
	.p2align	3                               @ -- Begin function stm32_i2c_bus_unlock
	.type	stm32_i2c_bus_unlock,%function
	.code	16                              @ @stm32_i2c_bus_unlock
	.thumb_func
stm32_i2c_bus_unlock:
.Lfunc_begin2:
	.loc	2 175 0                         @ libraries/drivers/drv_soft_i2c.c:175:0
	.fnstart
	.cfi_startproc
@ %bb.0:
	.save	{r4, lr}
	push	{r4, lr}
	.cfi_def_cfa_offset 8
	.cfi_offset lr, -4
	.cfi_offset r4, -8
.Ltmp10:
	@DEBUG_VALUE: stm32_i2c_bus_unlock:i <- 0
	.loc	2 178 20 prologue_end           @ libraries/drivers/drv_soft_i2c.c:178:20
	movs	r0, #125
	bl	rt_pin_read
.Ltmp11:
	.loc	2 178 9 is_stmt 0               @ libraries/drivers/drv_soft_i2c.c:178:9
	cbnz	r0, .LBB2_3
.Ltmp12:
@ %bb.1:
	@DEBUG_VALUE: stm32_i2c_bus_unlock:i <- 0
	.loc	2 0 9                           @ libraries/drivers/drv_soft_i2c.c:0:9
	movs	r4, #9
.Ltmp13:
	.p2align	2
.LBB2_2:                                @ =>This Inner Loop Header: Depth=1
	@DEBUG_VALUE: stm32_i2c_bus_unlock:i <- [DW_OP_plus_uconst 1, DW_OP_stack_value] undef
	.loc	2 182 13 is_stmt 1              @ libraries/drivers/drv_soft_i2c.c:182:13
	movs	r0, #127
	movs	r1, #1
	bl	rt_pin_write
	.loc	2 183 13                        @ libraries/drivers/drv_soft_i2c.c:183:13
	movs	r0, #100
	bl	stm32_udelay
	.loc	2 184 13                        @ libraries/drivers/drv_soft_i2c.c:184:13
	movs	r0, #127
	movs	r1, #0
	bl	rt_pin_write
	.loc	2 185 13                        @ libraries/drivers/drv_soft_i2c.c:185:13
	movs	r0, #100
	bl	stm32_udelay
.Ltmp14:
	@DEBUG_VALUE: stm32_i2c_bus_unlock:i <- [DW_OP_plus_uconst 1, DW_OP_plus_uconst 1, DW_OP_stack_value] undef
	.loc	2 180 20                        @ libraries/drivers/drv_soft_i2c.c:180:20
	subs	r4, #1
	.loc	2 180 9 is_stmt 0               @ libraries/drivers/drv_soft_i2c.c:180:9
	bne	.LBB2_2
.Ltmp15:
.LBB2_3:
	.loc	2 188 20 is_stmt 1              @ libraries/drivers/drv_soft_i2c.c:188:20
	movs	r0, #125
	bl	rt_pin_read
.Ltmp16:
	.loc	2 194 1                         @ libraries/drivers/drv_soft_i2c.c:194:1
	pop	{r4, pc}
.Ltmp17:
.Lfunc_end2:
	.size	stm32_i2c_bus_unlock, .Lfunc_end2-stm32_i2c_bus_unlock
	.cfi_endproc
	.cantunwind
	.fnend
                                        @ -- End function
	.section	.text.stm32_set_sda,"ax",%progbits
	.p2align	3                               @ -- Begin function stm32_set_sda
	.type	stm32_set_sda,%function
	.code	16                              @ @stm32_set_sda
	.thumb_func
stm32_set_sda:
.Lfunc_begin3:
	.loc	2 68 0                          @ libraries/drivers/drv_soft_i2c.c:68:0
	.fnstart
	.cfi_startproc
@ %bb.0:
	@DEBUG_VALUE: stm32_set_sda:data <- $r0
	@DEBUG_VALUE: stm32_set_sda:data <- $r0
	@DEBUG_VALUE: stm32_set_sda:state <- $r1
	@DEBUG_VALUE: stm32_set_sda:state <- $r1
	.save	{r7, lr}
	push	{r7, lr}
	.cfi_def_cfa_offset 8
	.cfi_offset lr, -4
	.cfi_offset r7, -8
.Ltmp18:
	@DEBUG_VALUE: stm32_set_sda:cfg <- $r0
	@DEBUG_VALUE: stm32_set_sda:cfg <- $r0
	.loc	2 0 0 prologue_end              @ libraries/drivers/drv_soft_i2c.c:0:0
	ldrb	r0, [r0, #1]
.Ltmp19:
	@DEBUG_VALUE: stm32_set_sda:data <- [DW_OP_LLVM_entry_value 1] $r0
	.loc	2 70 9                          @ libraries/drivers/drv_soft_i2c.c:70:9
	cmp	r1, #0
	it	ne
	movne	r1, #1
.Ltmp20:
	@DEBUG_VALUE: stm32_set_sda:state <- [DW_OP_LLVM_entry_value 1] $r1
	.loc	2 0 0 is_stmt 0                 @ libraries/drivers/drv_soft_i2c.c:0:0
	bl	rt_pin_write
.Ltmp21:
	.loc	2 78 1 is_stmt 1                @ libraries/drivers/drv_soft_i2c.c:78:1
	pop	{r7, pc}
.Ltmp22:
.Lfunc_end3:
	.size	stm32_set_sda, .Lfunc_end3-stm32_set_sda
	.cfi_endproc
	.cantunwind
	.fnend
                                        @ -- End function
	.section	.text.stm32_set_scl,"ax",%progbits
	.p2align	3                               @ -- Begin function stm32_set_scl
	.type	stm32_set_scl,%function
	.code	16                              @ @stm32_set_scl
	.thumb_func
stm32_set_scl:
.Lfunc_begin4:
	.loc	2 87 0                          @ libraries/drivers/drv_soft_i2c.c:87:0
	.fnstart
	.cfi_startproc
@ %bb.0:
	@DEBUG_VALUE: stm32_set_scl:data <- $r0
	@DEBUG_VALUE: stm32_set_scl:data <- $r0
	@DEBUG_VALUE: stm32_set_scl:state <- $r1
	@DEBUG_VALUE: stm32_set_scl:state <- $r1
	.save	{r7, lr}
	push	{r7, lr}
	.cfi_def_cfa_offset 8
	.cfi_offset lr, -4
	.cfi_offset r7, -8
.Ltmp23:
	@DEBUG_VALUE: stm32_set_scl:cfg <- $r0
	@DEBUG_VALUE: stm32_set_scl:cfg <- $r0
	.loc	2 0 0 prologue_end              @ libraries/drivers/drv_soft_i2c.c:0:0
	ldrb	r0, [r0]
.Ltmp24:
	@DEBUG_VALUE: stm32_set_scl:data <- [DW_OP_LLVM_entry_value 1] $r0
	.loc	2 89 9                          @ libraries/drivers/drv_soft_i2c.c:89:9
	cmp	r1, #0
	it	ne
	movne	r1, #1
.Ltmp25:
	@DEBUG_VALUE: stm32_set_scl:state <- [DW_OP_LLVM_entry_value 1] $r1
	.loc	2 0 0 is_stmt 0                 @ libraries/drivers/drv_soft_i2c.c:0:0
	bl	rt_pin_write
.Ltmp26:
	.loc	2 97 1 is_stmt 1                @ libraries/drivers/drv_soft_i2c.c:97:1
	pop	{r7, pc}
.Ltmp27:
.Lfunc_end4:
	.size	stm32_set_scl, .Lfunc_end4-stm32_set_scl
	.cfi_endproc
	.cantunwind
	.fnend
                                        @ -- End function
	.section	.text.stm32_get_sda,"ax",%progbits
	.p2align	3                               @ -- Begin function stm32_get_sda
	.type	stm32_get_sda,%function
	.code	16                              @ @stm32_get_sda
	.thumb_func
stm32_get_sda:
.Lfunc_begin5:
	.loc	2 105 0                         @ libraries/drivers/drv_soft_i2c.c:105:0
	.fnstart
	.cfi_startproc
@ %bb.0:
	@DEBUG_VALUE: stm32_get_sda:data <- $r0
	@DEBUG_VALUE: stm32_get_sda:data <- $r0
	.save	{r7, lr}
	push	{r7, lr}
	.cfi_def_cfa_offset 8
	.cfi_offset lr, -4
	.cfi_offset r7, -8
.Ltmp28:
	@DEBUG_VALUE: stm32_get_sda:cfg <- $r0
	@DEBUG_VALUE: stm32_get_sda:cfg <- $r0
	.loc	2 107 29 prologue_end           @ libraries/drivers/drv_soft_i2c.c:107:29
	ldrb	r0, [r0, #1]
.Ltmp29:
	@DEBUG_VALUE: stm32_get_sda:data <- [DW_OP_LLVM_entry_value 1] $r0
	.loc	2 107 12 is_stmt 0              @ libraries/drivers/drv_soft_i2c.c:107:12
	bl	rt_pin_read
	.loc	2 107 5                         @ libraries/drivers/drv_soft_i2c.c:107:5
	pop	{r7, pc}
.Ltmp30:
.Lfunc_end5:
	.size	stm32_get_sda, .Lfunc_end5-stm32_get_sda
	.cfi_endproc
	.cantunwind
	.fnend
                                        @ -- End function
	.section	.text.stm32_get_scl,"ax",%progbits
	.p2align	3                               @ -- Begin function stm32_get_scl
	.type	stm32_get_scl,%function
	.code	16                              @ @stm32_get_scl
	.thumb_func
stm32_get_scl:
.Lfunc_begin6:
	.loc	2 116 0 is_stmt 1               @ libraries/drivers/drv_soft_i2c.c:116:0
	.fnstart
	.cfi_startproc
@ %bb.0:
	@DEBUG_VALUE: stm32_get_scl:data <- $r0
	@DEBUG_VALUE: stm32_get_scl:data <- $r0
	.save	{r7, lr}
	push	{r7, lr}
	.cfi_def_cfa_offset 8
	.cfi_offset lr, -4
	.cfi_offset r7, -8
.Ltmp31:
	@DEBUG_VALUE: stm32_get_scl:cfg <- $r0
	@DEBUG_VALUE: stm32_get_scl:cfg <- $r0
	.loc	2 118 29 prologue_end           @ libraries/drivers/drv_soft_i2c.c:118:29
	ldrb	r0, [r0]
.Ltmp32:
	@DEBUG_VALUE: stm32_get_scl:data <- [DW_OP_LLVM_entry_value 1] $r0
	.loc	2 118 12 is_stmt 0              @ libraries/drivers/drv_soft_i2c.c:118:12
	bl	rt_pin_read
	.loc	2 118 5                         @ libraries/drivers/drv_soft_i2c.c:118:5
	pop	{r7, pc}
.Ltmp33:
.Lfunc_end6:
	.size	stm32_get_scl, .Lfunc_end6-stm32_get_scl
	.cfi_endproc
	.cantunwind
	.fnend
                                        @ -- End function
	.section	.text.stm32_udelay,"ax",%progbits
	.p2align	3                               @ -- Begin function stm32_udelay
	.type	stm32_udelay,%function
	.code	16                              @ @stm32_udelay
	.thumb_func
stm32_udelay:
.Lfunc_begin7:
	.loc	2 126 0 is_stmt 1               @ libraries/drivers/drv_soft_i2c.c:126:0
	.fnstart
	.cfi_startproc
@ %bb.0:
	@DEBUG_VALUE: stm32_udelay:us <- $r0
	.save	{r7, lr}
	push	{r7, lr}
	.cfi_def_cfa_offset 8
	.cfi_offset lr, -4
	.cfi_offset r7, -8
	movw	r1, #57368
	movw	r2, #19923
	movt	r1, #57344
.Ltmp34:
	@DEBUG_VALUE: stm32_udelay:tcnt <- 0
	movt	r2, #4194
	movs	r3, #0
.Ltmp35:
	.loc	2 129 35 prologue_end           @ libraries/drivers/drv_soft_i2c.c:129:35
	ldr	r12, [r1, #-4]
.Ltmp36:
	@DEBUG_VALUE: stm32_udelay:reload <- $r12
	@DEBUG_VALUE: stm32_udelay:us <- $r0
	.loc	2 131 16                        @ libraries/drivers/drv_soft_i2c.c:131:16
	mul	r0, r12, r0
.Ltmp37:
	@DEBUG_VALUE: stm32_udelay:us <- [DW_OP_LLVM_entry_value 1] $r0
	.loc	2 131 25 is_stmt 0              @ libraries/drivers/drv_soft_i2c.c:131:25
	umull	r0, r2, r0, r2
	.loc	2 132 21 is_stmt 1              @ libraries/drivers/drv_soft_i2c.c:132:21
	ldr	r0, [r1]
.Ltmp38:
	@DEBUG_VALUE: stm32_udelay:told <- $r0
	.loc	2 131 25                        @ libraries/drivers/drv_soft_i2c.c:131:25
	lsr.w	lr, r2, #6
.Ltmp39:
	@DEBUG_VALUE: stm32_udelay:ticks <- $lr
	.p2align	2
.LBB7_1:                                @ =>This Inner Loop Header: Depth=1
	@DEBUG_VALUE: stm32_udelay:reload <- $r12
	@DEBUG_VALUE: stm32_udelay:ticks <- $lr
	@DEBUG_VALUE: stm32_udelay:us <- [DW_OP_LLVM_entry_value 1] $r0
	@DEBUG_VALUE: stm32_udelay:tcnt <- $r3
	@DEBUG_VALUE: stm32_udelay:told <- $r0
	.loc	2 135 25                        @ libraries/drivers/drv_soft_i2c.c:135:25
	ldr	r2, [r1]
.Ltmp40:
	@DEBUG_VALUE: stm32_udelay:tnow <- $r2
	.loc	2 136 13                        @ libraries/drivers/drv_soft_i2c.c:136:13
	cmp	r0, r2
	beq	.LBB7_1
.Ltmp41:
@ %bb.2:                                @   in Loop: Header=BB7_1 Depth=1
	@DEBUG_VALUE: stm32_udelay:reload <- $r12
	@DEBUG_VALUE: stm32_udelay:tcnt <- $r3
	@DEBUG_VALUE: stm32_udelay:tnow <- $r2
	@DEBUG_VALUE: stm32_udelay:told <- $r0
	@DEBUG_VALUE: stm32_udelay:ticks <- $lr
	@DEBUG_VALUE: stm32_udelay:us <- [DW_OP_LLVM_entry_value 1] $r0
	.loc	2 138 17                        @ libraries/drivers/drv_soft_i2c.c:138:17
	add	r3, r0
.Ltmp42:
	.loc	2 0 0 is_stmt 0                 @ libraries/drivers/drv_soft_i2c.c:0:0
	cmp	r0, r2
.Ltmp43:
	.loc	2 138 17                        @ libraries/drivers/drv_soft_i2c.c:138:17
	sub.w	r3, r3, r2
	mov	r0, r2
.Ltmp44:
	@DEBUG_VALUE: stm32_udelay:told <- $r0
	.loc	2 0 0                           @ libraries/drivers/drv_soft_i2c.c:0:0
	it	ls
	addls	r3, r12
.Ltmp45:
	@DEBUG_VALUE: stm32_udelay:told <- $r2
	@DEBUG_VALUE: stm32_udelay:tcnt <- $r3
	.loc	2 147 17 is_stmt 1              @ libraries/drivers/drv_soft_i2c.c:147:17
	cmp	r3, lr
	blo	.LBB7_1
.Ltmp46:
@ %bb.3:
	@DEBUG_VALUE: stm32_udelay:reload <- $r12
	@DEBUG_VALUE: stm32_udelay:tcnt <- $r3
	@DEBUG_VALUE: stm32_udelay:told <- $r2
	@DEBUG_VALUE: stm32_udelay:tnow <- $r2
	@DEBUG_VALUE: stm32_udelay:ticks <- $lr
	@DEBUG_VALUE: stm32_udelay:us <- [DW_OP_LLVM_entry_value 1] $r0
	.loc	2 153 1                         @ libraries/drivers/drv_soft_i2c.c:153:1
	pop	{r7, pc}
.Ltmp47:
.Lfunc_end7:
	.size	stm32_udelay, .Lfunc_end7-stm32_udelay
	.cfi_endproc
	.cantunwind
	.fnend
                                        @ -- End function
	.type	i2c_obj,%object                 @ @i2c_obj
	.section	.bss.i2c_obj,"aw",%nobits
	.p2align	2
i2c_obj:
	.zero	168
	.size	i2c_obj, 168

	.type	stm32_bit_ops_default,%object   @ @stm32_bit_ops_default
	.section	.rodata.stm32_bit_ops_default,"a",%progbits
	.p2align	2
stm32_bit_ops_default:
	.long	0
	.long	stm32_set_sda
	.long	stm32_set_scl
	.long	stm32_get_sda
	.long	stm32_get_scl
	.long	stm32_udelay
	.long	1                               @ 0x1
	.long	100                             @ 0x64
	.size	stm32_bit_ops_default, 32

	.type	soft_i2c_config,%object         @ @soft_i2c_config
	.section	.rodata.soft_i2c_config,"a",%progbits
	.p2align	2
soft_i2c_config:
	.byte	127                             @ 0x7f
	.byte	125                             @ 0x7d
	.zero	2
	.long	.L.str.1
	.size	soft_i2c_config, 8

	.hidden	__rt_init_rt_hw_i2c_init        @ @__rt_init_rt_hw_i2c_init
	.type	__rt_init_rt_hw_i2c_init,%object
	.section	.rti_fn.1,"a",%progbits
	.globl	__rt_init_rt_hw_i2c_init
	.p2align	2
__rt_init_rt_hw_i2c_init:
__tagsym$$used.0:
	.long	rt_hw_i2c_init
	.size	__rt_init_rt_hw_i2c_init, 4

	.type	.L.str.1,%object                @ @.str.1
	.section	.rodata.str1.1,"aMS",%progbits,1
.L.str.1:
	.asciz	"i2c2"
	.size	.L.str.1, 5

	.globl	__rt_init_rt_hw_i2c_init
	.section	".note.GNU-stack","",%progbits
	.eabi_attribute	30, 1	@ Tag_ABI_optimization_goals
	.ARM_attribute	16, 1	@ Tag_AV_eba