	.text
	.syntax unified
	.eabi_attribute	67, "2.09"	@ Tag_conformance
	.cpu	cortex-m7
	.eabi_attribute	6, 13	@ Tag_CPU_arch
	.eabi_attribute	7, 77	@ Tag_CPU_arch_profile
	.eabi_attribute	8, 0	@ Tag_ARM_ISA_use
	.eabi_attribute	9, 2	@ Tag_THUMB_ISA_use
	.fpu	fpv5-d16
	.eabi_attribute	36, 1	@ Tag_FP_HP_extension
	.eabi_attribute	34, 1	@ Tag_CPU_unaligned_access
	.eabi_attribute	17, 1	@ Tag_ABI_PCS_GOT_use
	.eabi_attribute	20, 2	@ Tag_ABI_FP_denormal
	.eabi_attribute	21, 0	@ Tag_ABI_FP_exceptions
	.eabi_attribute	23, 1	@ Tag_ABI_FP_number_model
	.eabi_attribute	24, 1	@ Tag_ABI_align_needed
	.eabi_attribute	25, 1	@ Tag_ABI_align_preserved
	.eabi_attribute	28, 1	@ Tag_ABI_VFP_args
	.eabi_attribute	38, 1	@ Tag_ABI_FP_16bit_format
	.eabi_attribute	18, 2	@ Tag_ABI_PCS_wchar_t
	.eabi_attribute	26, 1	@ Tag_ABI_enum_size
	.eabi_attribute	14, 0	@ Tag_ABI_PCS_R9_use
	.file	"drv_wlan.c"
	.file	1 "E:\\Smart-access-control\\Hardware\\CODE" "rt-thread/include\\rtdef.h"
	.file	2 "E:\\Smart-access-control\\Hardware\\CODE" "libraries/drivers/drv_wlan.c"
	.file	3 "D:\\Keil_v5\\ARM\\ARMCLANG\\Bin\\..\\include" "stdint.h"
	.file	4 "E:\\Smart-access-control\\Hardware\\CODE" "./packages/fal-v0.5.0/inc/fal_def.h"
	.file	5 "D:\\Keil_v5\\ARM\\ARMCLANG\\Bin\\..\\include" "time.h"
	.file	6 "E:\\Smart-access-control\\Hardware\\CODE" "./rt-thread/components/drivers/wlan\\wlan_dev.h"
	.section	.text.wiced_platform_resource_size,"ax",%progbits
	.hidden	wiced_platform_resource_size    @ -- Begin function wiced_platform_resource_size
	.globl	wiced_platform_resource_size
	.p2align	3
	.type	wiced_platform_resource_size,%function
	.code	16                              @ @wiced_platform_resource_size
	.thumb_func
wiced_platform_resource_size:
.Lfunc_begin0:
	.loc	2 107 0                         @ libraries/drivers/drv_wlan.c:107:0
	.fnstart
	.cfi_sections .debug_frame
	.cfi_startproc
@ %bb.0:
	.save	{r7, lr}
	push	{r7, lr}
	.cfi_def_cfa_offset 8
	.cfi_offset lr, -4
	.cfi_offset r7, -8
	.pad	#8
	sub	sp, #8
	.cfi_def_cfa_offset 16
	str	r0, [sp, #4]
	movs	r0, #0
.Ltmp0:
	.loc	2 108 9 prologue_end            @ libraries/drivers/drv_wlan.c:108:9
	str	r0, [sp]
.Ltmp1:
	.loc	2 111 9                         @ libraries/drivers/drv_wlan.c:111:9
	ldr	r0, [sp, #4]
.Ltmp2:
	.loc	2 111 9 is_stmt 0               @ libraries/drivers/drv_wlan.c:111:9
	cbnz	r0, .LBB0_2
	b	.LBB0_1
.LBB0_1:
.Ltmp3:
	.loc	2 113 39 is_stmt 1              @ libraries/drivers/drv_wlan.c:113:39
	movw	r0, :lower16:partition
	movt	r0, :upper16:partition
	ldr	r0, [r0]
	.loc	2 113 16 is_stmt 0              @ libraries/drivers/drv_wlan.c:113:16
	bl	rt_ota_get_raw_fw_size
	.loc	2 113 14                        @ libraries/drivers/drv_wlan.c:113:14
	str	r0, [sp]
	.loc	2 114 5 is_stmt 1               @ libraries/drivers/drv_wlan.c:114:5
	b	.LBB0_5
.Ltmp4:
.LBB0_2:
	.loc	2 115 14                        @ libraries/drivers/drv_wlan.c:115:14
	ldr	r0, [sp, #4]
.Ltmp5:
	.loc	2 115 14 is_stmt 0              @ libraries/drivers/drv_wlan.c:115:14
	cmp	r0, #1
	bne	.LBB0_4
	b	.LBB0_3
.LBB0_3:
	.loc	2 0 14                          @ libraries/drivers/drv_wlan.c:0:14
	movw	r0, #630
.Ltmp6:
	.loc	2 117 14 is_stmt 1              @ libraries/drivers/drv_wlan.c:117:14
	str	r0, [sp]
	.loc	2 118 5                         @ libraries/drivers/drv_wlan.c:118:5
	b	.LBB0_4
.Ltmp7:
.LBB0_4:
	.loc	2 0 5 is_stmt 0                 @ libraries/drivers/drv_wlan.c:0:5
	b	.LBB0_5
.LBB0_5:
	.loc	2 120 12 is_stmt 1              @ libraries/drivers/drv_wlan.c:120:12
	ldr	r0, [sp]
	.loc	2 120 5 is_stmt 0               @ libraries/drivers/drv_wlan.c:120:5
	add	sp, #8
	pop	{r7, pc}
.Ltmp8:
.Lfunc_end0:
	.size	wiced_platform_resource_size, .Lfunc_end0-wiced_platform_resource_size
	.cfi_endproc
	.cantunwind
	.fnend
                                        @ -- End function
	.section	.text.wiced_platform_resource_read,"ax",%progbits
	.hidden	wiced_platform_resource_read    @ -- Begin function wiced_platform_resource_read
	.globl	wiced_platform_resource_read
	.p2align	3
	.type	wiced_platform_resource_read,%function
	.code	16                              @ @wiced_platform_resource_read
	.thumb_func
wiced_platform_resource_read:
.Lfunc_begin1:
	.loc	2 124 0 is_stmt 1               @ libraries/drivers/drv_wlan.c:124:0
	.fnstart
	.cfi_startproc
@ %bb.0:
	.save	{r7, lr}
	push	{r7, lr}
	.cfi_def_cfa_offset 8
	.cfi_offset lr, -4
	.cfi_offset r7, -8
	.pad	#16
	sub	sp, #16
	.cfi_def_cfa_offset 24
	str	r0, [sp, #12]
	str	r1, [sp, #8]
	str	r2, [sp, #4]
	str	r3, [sp]
.Ltmp9:
	.loc	2 125 9 prologue_end            @ libraries/drivers/drv_wlan.c:125:9
	ldr	r0, [sp, #12]
.Ltmp10:
	.loc	2 125 9 is_stmt 0               @ libraries/drivers/drv_wlan.c:125:9
	cbnz	r0, .LBB1_2
	b	.LBB1_1
.LBB1_1:
.Ltmp11:
	.loc	2 128 28 is_stmt 1              @ libraries/drivers/drv_wlan.c:128:28
	movw	r0, :lower16:partition
	movt	r0, :upper16:partition
	ldr	r0, [r0]
	.loc	2 128 39 is_stmt 0              @ libraries/drivers/drv_wlan.c:128:39
	ldr	r1, [sp, #8]
	.loc	2 128 47                        @ libraries/drivers/drv_wlan.c:128:47
	ldr	r2, [sp, #4]
	.loc	2 128 55                        @ libraries/drivers/drv_wlan.c:128:55
	ldr	r3, [sp]
	.loc	2 128 9                         @ libraries/drivers/drv_wlan.c:128:9
	bl	fal_partition_read
	.loc	2 129 5 is_stmt 1               @ libraries/drivers/drv_wlan.c:129:5
	b	.LBB1_5
.Ltmp12:
.LBB1_2:
	.loc	2 130 14                        @ libraries/drivers/drv_wlan.c:130:14
	ldr	r0, [sp, #12]
.Ltmp13:
	.loc	2 130 14 is_stmt 0              @ libraries/drivers/drv_wlan.c:130:14
	cmp	r0, #1
	bne	.LBB1_4
	b	.LBB1_3
.LBB1_3:
.Ltmp14:
	.loc	2 132 16 is_stmt 1              @ libraries/drivers/drv_wlan.c:132:16
	ldr	r0, [sp, #4]
	.loc	2 132 42 is_stmt 0              @ libraries/drivers/drv_wlan.c:132:42
	ldr	r2, [sp, #8]
	.loc	2 132 25                        @ libraries/drivers/drv_wlan.c:132:25
	movw	r1, :lower16:wifi_nvram_image
	movt	r1, :upper16:wifi_nvram_image
	add	r1, r2
	.loc	2 132 51                        @ libraries/drivers/drv_wlan.c:132:51
	ldr	r2, [sp]
	.loc	2 132 9                         @ libraries/drivers/drv_wlan.c:132:9
	bl	__aeabi_memcpy
	.loc	2 133 5 is_stmt 1               @ libraries/drivers/drv_wlan.c:133:5
	b	.LBB1_4
.Ltmp15:
.LBB1_4:
	.loc	2 0 5 is_stmt 0                 @ libraries/drivers/drv_wlan.c:0:5
	b	.LBB1_5
.LBB1_5:
	.loc	2 135 12 is_stmt 1              @ libraries/drivers/drv_wlan.c:135:12
	ldr	r0, [sp]
	.loc	2 135 5 is_stmt 0               @ libraries/drivers/drv_wlan.c:135:5
	add	sp, #16
	pop	{r7, pc}
.Ltmp16:
.Lfunc_end1:
	.size	wiced_platform_resource_read, .Lfunc_end1-wiced_platform_resource_read
	.cfi_endproc
	.cantunwind
	.fnend
                                        @ -- End function
	.section	.text.rt_hw_wlan_wait_init_done,"ax",%progbits
	.hidden	rt_hw_wlan_wait_init_done       @ -- Begin function rt_hw_wlan_wait_init_done
	.globl	rt_hw_wlan_wait_init_done
	.p2align	3
	.type	rt_hw_wlan_wait_init_done,%function
	.code	16                              @ @rt_hw_wlan_wait_init_done
	.thumb_func
rt_hw_wlan_wait_init_done:
.Lfunc_begin2:
	.loc	2 144 0 is_stmt 1               @ libraries/drivers/drv_wlan.c:144:0
	.fnstart
	.cfi_startproc
@ %bb.0:
	.save	{r7, lr}
	push	{r7, lr}
	.cfi_def_cfa_offset 8
	.cfi_offset lr, -4
	.cfi_offset r7, -8
	.pad	#16
	sub	sp, #16
	.cfi_def_cfa_offset 24
	str	r0, [sp, #8]
	movs	r0, #0
.Ltmp17:
	.loc	2 145 17 prologue_end           @ libraries/drivers/drv_wlan.c:145:17
	str	r0, [sp, #4]
	.loc	2 148 5                         @ libraries/drivers/drv_wlan.c:148:5
	b	.LBB2_1
.LBB2_1:                                @ =>This Inner Loop Header: Depth=1
	.loc	2 148 12 is_stmt 0              @ libraries/drivers/drv_wlan.c:148:12
	ldr	r0, [sp, #4]
	.loc	2 148 25                        @ libraries/drivers/drv_wlan.c:148:25
	ldr	r1, [sp, #8]
	movw	r2, #34079
	movt	r2, #20971
	.loc	2 148 33                        @ libraries/drivers/drv_wlan.c:148:33
	umull	r2, r1, r1, r2
	.loc	2 148 5                         @ libraries/drivers/drv_wlan.c:148:5
	cmp.w	r0, r1, lsr #5
	bhi	.LBB2_5
	b	.LBB2_2
.LBB2_2:                                @   in Loop: Header=BB2_1 Depth=1
.Ltmp18:
	.loc	2 150 17 is_stmt 1              @ libraries/drivers/drv_wlan.c:150:17
	ldr	r0, [sp, #4]
	adds	r0, #1
	str	r0, [sp, #4]
	movs	r0, #100
	.loc	2 151 9                         @ libraries/drivers/drv_wlan.c:151:9
	bl	rt_thread_mdelay
.Ltmp19:
	.loc	2 152 13                        @ libraries/drivers/drv_wlan.c:152:13
	movw	r0, :lower16:init_flag
	movt	r0, :upper16:init_flag
	ldr	r0, [r0]
.Ltmp20:
	.loc	2 152 13 is_stmt 0              @ libraries/drivers/drv_wlan.c:152:13
	cmp	r0, #1
	bne	.LBB2_4
	b	.LBB2_3
.LBB2_3:
.Ltmp21:
	.loc	2 154 13 is_stmt 1              @ libraries/drivers/drv_wlan.c:154:13
	b	.LBB2_5
.Ltmp22:
.LBB2_4:                                @   in Loop: Header=BB2_1 Depth=1
	.loc	2 148 5                         @ libraries/drivers/drv_wlan.c:148:5
	b	.LBB2_1
.LBB2_5:
.Ltmp23:
	.loc	2 158 9                         @ libraries/drivers/drv_wlan.c:158:9
	ldr	r0, [sp, #4]
	.loc	2 158 21 is_stmt 0              @ libraries/drivers/drv_wlan.c:158:21
	ldr	r1, [sp, #8]
	movw	r2, #34079
	movt	r2, #20971
	.loc	2 158 29                        @ libraries/drivers/drv_wlan.c:158:29
	umull	r2, r1, r1, r2
.Ltmp24:
	.loc	2 158 9                         @ libraries/drivers/drv_wlan.c:158:9
	cmp.w	r0, r1, lsr #5
	bls	.LBB2_7
	b	.LBB2_6
.LBB2_6:
	.loc	2 0 9                           @ libraries/drivers/drv_wlan.c:0:9
	mvn	r0, #1
.Ltmp25:
	.loc	2 160 9 is_stmt 1               @ libraries/drivers/drv_wlan.c:160:9
	str	r0, [sp, #12]
	b	.LBB2_8
.Ltmp26:
.LBB2_7:
	.loc	2 0 9 is_stmt 0                 @ libraries/drivers/drv_wlan.c:0:9
	movs	r0, #0
	.loc	2 163 5 is_stmt 1               @ libraries/drivers/drv_wlan.c:163:5
	str	r0, [sp, #12]
	b	.LBB2_8
.LBB2_8:
	.loc	2 164 1                         @ libraries/drivers/drv_wlan.c:164:1
	ldr	r0, [sp, #12]
	add	sp, #16
	pop	{r7, pc}
.Ltmp27:
.Lfunc_end2:
	.size	rt_hw_wlan_wait_init_done, .Lfunc_end2-rt_hw_wlan_wait_init_done
	.cfi_endproc
	.cantunwind
	.fnend
                                        @ -- End function
	.section	.text.rt_hw_wlan_init,"ax",%progbits
	.hidden	rt_hw_wlan_init                 @ -- Begin function rt_hw_wlan_init
	.globl	rt_hw_wlan_init
	.p2align	3
	.type	rt_hw_wlan_init,%function
	.code	16                              @ @rt_hw_wlan_init
	.thumb_func
rt_hw_wlan_init:
.Lfunc_begin3:
	.loc	2 224 0                         @ libraries/drivers/drv_wlan.c:224:0
	.fnstart
	.cfi_startproc
@ %bb.0:
	.save	{r7, lr}
	push	{r7, lr}
	.cfi_def_cfa_offset 8
	.cfi_offset lr, -4
	.cfi_offset r7, -8
	.pad	#16
	sub	sp, #16
	.cfi_def_cfa_offset 24
.Ltmp28:
	.loc	2 225 9 prologue_end            @ libraries/drivers/drv_wlan.c:225:9
	movw	r0, :lower16:init_flag
	movt	r0, :upper16:init_flag
	ldr	r0, [r0]
.Ltmp29:
	.loc	2 225 9 is_stmt 0               @ libraries/drivers/drv_wlan.c:225:9
	cmp	r0, #1
	bne	.LBB3_2
	b	.LBB3_1
.LBB3_1:
	.loc	2 0 9                           @ libraries/drivers/drv_wlan.c:0:9
	movs	r0, #0
.Ltmp30:
	.loc	2 227 9 is_stmt 1               @ libraries/drivers/drv_wlan.c:227:9
	str	r0, [sp, #12]
	b	.LBB3_8
.Ltmp31:
.LBB3_2:
	.loc	2 0 9 is_stmt 0                 @ libraries/drivers/drv_wlan.c:0:9
	movs	r2, #0
	.loc	2 230 17 is_stmt 1              @ libraries/drivers/drv_wlan.c:230:17
	str	r2, [sp, #8]
	.loc	2 232 11                        @ libraries/drivers/drv_wlan.c:232:11
	mov	r1, sp
	movs	r0, #20
	str	r0, [r1, #4]
	movs	r0, #16
	str	r0, [r1]
	movw	r0, :lower16:.L.str
	movt	r0, :upper16:.L.str
	movw	r1, :lower16:wifi_init_thread_entry
	movt	r1, :upper16:wifi_init_thread_entry
	mov.w	r3, #4096
	bl	rt_thread_create
	.loc	2 232 9 is_stmt 0               @ libraries/drivers/drv_wlan.c:232:9
	str	r0, [sp, #8]
.Ltmp32:
	.loc	2 233 9 is_stmt 1               @ libraries/drivers/drv_wlan.c:233:9
	ldr	r0, [sp, #8]
.Ltmp33:
	.loc	2 233 9 is_stmt 0               @ libraries/drivers/drv_wlan.c:233:9
	cbz	r0, .LBB3_4
	b	.LBB3_3
.LBB3_3:
.Ltmp34:
	.loc	2 235 27 is_stmt 1              @ libraries/drivers/drv_wlan.c:235:27
	ldr	r0, [sp, #8]
	.loc	2 235 9 is_stmt 0               @ libraries/drivers/drv_wlan.c:235:9
	bl	rt_thread_startup
	.loc	2 236 5 is_stmt 1               @ libraries/drivers/drv_wlan.c:236:5
	b	.LBB3_7
.Ltmp35:
.LBB3_4:
	.loc	2 239 9                         @ libraries/drivers/drv_wlan.c:239:9
	b	.LBB3_5
.LBB3_5:
.Ltmp36:
	.loc	2 239 9 is_stmt 0               @ libraries/drivers/drv_wlan.c:239:9
	movw	r0, :lower16:.L.str.1
	movt	r0, :upper16:.L.str.1
	bl	rt_kprintf
	movw	r0, :lower16:.L.str.2
	movt	r0, :upper16:.L.str.2
	bl	rt_kprintf
	movw	r0, :lower16:.L.str.3
	movt	r0, :upper16:.L.str.3
	bl	rt_kprintf
	b	.LBB3_6
.Ltmp37:
.LBB3_6:
	.loc	2 0 9                           @ libraries/drivers/drv_wlan.c:0:9
	mov.w	r0, #-1
	.loc	2 240 9 is_stmt 1               @ libraries/drivers/drv_wlan.c:240:9
	str	r0, [sp, #12]
	b	.LBB3_8
.Ltmp38:
.LBB3_7:
	.loc	2 0 9 is_stmt 0                 @ libraries/drivers/drv_wlan.c:0:9
	movs	r0, #0
	.loc	2 243 5 is_stmt 1               @ libraries/drivers/drv_wlan.c:243:5
	str	r0, [sp, #12]
	b	.LBB3_8
.LBB3_8:
	.loc	2 244 1                         @ libraries/drivers/drv_wlan.c:244:1
	ldr	r0, [sp, #12]
	add	sp, #16
	pop	{r7, pc}
.Ltmp39:
.Lfunc_end3:
	.size	rt_hw_wlan_init, .Lfunc_end3-rt_hw_wlan_init
	.cfi_endproc
	.cantunwind
	.fnend
                                        @ -- End function
	.section	.text.wifi_init_thread_entry,"ax",%progbits
	.p2align	3                               @ -- Begin function wifi_init_thread_entry
	.type	wifi_init_thread_entry,%function
	.code	16                              @ @wifi_init_thread_entry
	.thumb_func
wifi_init_thread_entry:
.Lfunc_begin4:
	.loc	2 168 0                         @ libraries/drivers/drv_wlan.c:168:0
	.fnstart
	.cfi_startproc
@ %bb.0:
	.save	{r7, lr}
	push	{r7, lr}
	.cfi_def_cfa_offset 8
	.cfi_offset lr, -4
	.cfi_offset r7, -8
	.pad	#16
	sub	sp, #16
	.cfi_def_cfa_offset 24
	str	r0, [sp, #12]
.Ltmp40:
	.loc	2 170 5 prologue_end            @ libraries/drivers/drv_wlan.c:170:5
	bl	fal_init
	.loc	2 171 17                        @ libraries/drivers/drv_wlan.c:171:17
	movw	r0, :lower16:.L.str.4
	movt	r0, :upper16:.L.str.4
	bl	fal_partition_find
	mov	r1, r0
	.loc	2 171 15 is_stmt 0              @ libraries/drivers/drv_wlan.c:171:15
	movw	r0, :lower16:partition
	movt	r0, :upper16:partition
	str	r1, [r0]
.Ltmp41:
	.loc	2 173 9 is_stmt 1               @ libraries/drivers/drv_wlan.c:173:9
	ldr	r0, [r0]
.Ltmp42:
	.loc	2 173 9 is_stmt 0               @ libraries/drivers/drv_wlan.c:173:9
	cbnz	r0, .LBB4_4
	b	.LBB4_1
.LBB4_1:
.Ltmp43:
	.loc	2 175 9 is_stmt 1               @ libraries/drivers/drv_wlan.c:175:9
	b	.LBB4_2
.LBB4_2:
.Ltmp44:
	.loc	2 175 9 is_stmt 0               @ libraries/drivers/drv_wlan.c:175:9
	movw	r0, :lower16:.L.str.1
	movt	r0, :upper16:.L.str.1
	bl	rt_kprintf
	movw	r0, :lower16:.L.str.5
	movt	r0, :upper16:.L.str.5
	movw	r1, :lower16:.L.str.4
	movt	r1, :upper16:.L.str.4
	bl	rt_kprintf
	movw	r0, :lower16:.L.str.3
	movt	r0, :upper16:.L.str.3
	bl	rt_kprintf
	b	.LBB4_3
.Ltmp45:
.LBB4_3:
	.loc	2 176 9 is_stmt 1               @ libraries/drivers/drv_wlan.c:176:9
	b	.LBB4_17
.Ltmp46:
.LBB4_4:
	.loc	2 0 9 is_stmt 0                 @ libraries/drivers/drv_wlan.c:0:9
	movs	r0, #0
.Ltmp47:
	.loc	2 180 13 is_stmt 1              @ libraries/drivers/drv_wlan.c:180:13
	str	r0, [sp, #8]
.Ltmp48:
	.loc	2 182 13                        @ libraries/drivers/drv_wlan.c:182:13
	bl	rt_ota_init
	.loc	2 182 32 is_stmt 0              @ libraries/drivers/drv_wlan.c:182:32
	cmp	r0, #0
	bmi	.LBB4_12
	b	.LBB4_5
.LBB4_5:
	.loc	2 182 57                        @ libraries/drivers/drv_wlan.c:182:57
	movw	r0, :lower16:.L.str.6
	movt	r0, :upper16:.L.str.6
	bl	fal_partition_find
	.loc	2 182 35                        @ libraries/drivers/drv_wlan.c:182:35
	bl	rt_ota_part_fw_verify
.Ltmp49:
	.loc	2 182 13                        @ libraries/drivers/drv_wlan.c:182:13
	cmp	r0, #0
	bmi	.LBB4_12
	b	.LBB4_6
.LBB4_6:
.Ltmp50:
	.loc	2 185 17 is_stmt 1              @ libraries/drivers/drv_wlan.c:185:17
	bl	rt_ota_check_upgrade
	.loc	2 185 40 is_stmt 0              @ libraries/drivers/drv_wlan.c:185:40
	cbz	r0, .LBB4_9
	b	.LBB4_7
.LBB4_7:
	.loc	2 185 53                        @ libraries/drivers/drv_wlan.c:185:53
	bl	rt_ota_upgrade
	.loc	2 185 51                        @ libraries/drivers/drv_wlan.c:185:51
	str	r0, [sp, #8]
.Ltmp51:
	.loc	2 185 17                        @ libraries/drivers/drv_wlan.c:185:17
	cmp.w	r0, #-1
	bgt	.LBB4_9
	b	.LBB4_8
.LBB4_8:
.Ltmp52:
	.loc	2 187 17 is_stmt 1              @ libraries/drivers/drv_wlan.c:187:17
	movw	r0, :lower16:.L.str.7
	movt	r0, :upper16:.L.str.7
	movw	r1, :lower16:.L__FUNCTION__.wifi_init_thread_entry
	movt	r1, :upper16:.L__FUNCTION__.wifi_init_thread_entry
	movs	r2, #187
	bl	printf
	movw	r0, :lower16:.L.str.8
	movt	r0, :upper16:.L.str.8
	bl	printf
	movw	r0, :lower16:.L.str.3
	movt	r0, :upper16:.L.str.3
	bl	printf
	.loc	2 189 13                        @ libraries/drivers/drv_wlan.c:189:13
	b	.LBB4_9
.Ltmp53:
.LBB4_9:
	.loc	2 193 17                        @ libraries/drivers/drv_wlan.c:193:17
	ldr	r0, [sp, #8]
.Ltmp54:
	.loc	2 193 17 is_stmt 0              @ libraries/drivers/drv_wlan.c:193:17
	cmp	r0, #0
	bmi	.LBB4_11
	b	.LBB4_10
.LBB4_10:
.Ltmp55:
	.loc	2 195 37 is_stmt 1              @ libraries/drivers/drv_wlan.c:195:37
	movw	r0, :lower16:.L.str.6
	movt	r0, :upper16:.L.str.6
	bl	fal_partition_find
	movs	r1, #0
	mov.w	r2, #4096
	.loc	2 195 17 is_stmt 0              @ libraries/drivers/drv_wlan.c:195:17
	bl	fal_partition_erase
	.loc	2 196 13 is_stmt 1              @ libraries/drivers/drv_wlan.c:196:13
	b	.LBB4_11
.Ltmp56:
.LBB4_11:
	.loc	2 198 9                         @ libraries/drivers/drv_wlan.c:198:9
	b	.LBB4_12
.Ltmp57:
.LBB4_12:
	.loc	2 201 31                        @ libraries/drivers/drv_wlan.c:201:31
	movw	r0, :lower16:partition
	movt	r0, :upper16:partition
	ldr	r0, [r0]
	.loc	2 201 9 is_stmt 0               @ libraries/drivers/drv_wlan.c:201:9
	bl	rt_ota_part_fw_verify
.Ltmp58:
	.loc	2 201 9                         @ libraries/drivers/drv_wlan.c:201:9
	cmp	r0, #0
	bmi	.LBB4_14
	b	.LBB4_13
.LBB4_13:
.Ltmp59:
	.loc	2 204 9 is_stmt 1               @ libraries/drivers/drv_wlan.c:204:9
	bl	wifi_hw_init
	mov.w	r0, #1000
	.loc	2 207 25                        @ libraries/drivers/drv_wlan.c:207:25
	bl	rt_tick_from_millisecond
	.loc	2 207 9 is_stmt 0               @ libraries/drivers/drv_wlan.c:207:9
	bl	rt_thread_delay
	.loc	2 210 9 is_stmt 1               @ libraries/drivers/drv_wlan.c:210:9
	movw	r0, :lower16:.L.str.9
	movt	r0, :upper16:.L.str.9
	movs	r1, #1
	str	r1, [sp, #4]                    @ 4-byte Spill
	bl	rt_wlan_set_mode
                                        @ kill: def $r1 killed $r0
	.loc	2 214 19                        @ libraries/drivers/drv_wlan.c:214:19
	ldr	r0, [sp, #4]                    @ 4-byte Reload
	movw	r1, :lower16:init_flag
	movt	r1, :upper16:init_flag
	str	r0, [r1]
	.loc	2 216 5                         @ libraries/drivers/drv_wlan.c:216:5
	b	.LBB4_17
.Ltmp60:
.LBB4_14:
	.loc	2 219 9                         @ libraries/drivers/drv_wlan.c:219:9
	b	.LBB4_15
.LBB4_15:
.Ltmp61:
	.loc	2 219 9 is_stmt 0               @ libraries/drivers/drv_wlan.c:219:9
	movw	r0, :lower16:.L.str.1
	movt	r0, :upper16:.L.str.1
	bl	rt_kprintf
	movw	r0, :lower16:.L.str.10
	movt	r0, :upper16:.L.str.10
	movw	r1, :lower16:.L.str.4
	movt	r1, :upper16:.L.str.4
	bl	rt_kprintf
	movw	r0, :lower16:.L.str.3
	movt	r0, :upper16:.L.str.3
	bl	rt_kprintf
	b	.LBB4_16
.Ltmp62:
.LBB4_16:
	.loc	2 0 9                           @ libraries/drivers/drv_wlan.c:0:9
	b	.LBB4_17
.LBB4_17:
	.loc	2 221 1 is_stmt 1               @ libraries/drivers/drv_wlan.c:221:1
	add	sp, #16
	pop	{r7, pc}
.Ltmp63:
.Lfunc_end4:
	.size	wifi_init_thread_entry, .Lfunc_end4-wifi_init_thread_entry
	.cfi_endproc
	.cantunwind
	.fnend
                                        @ -- End function
	.section	.text.ap6212_init,"ax",%progbits
	.p2align	3                               @ -- Begin function ap6212_init
	.type	ap6212_init,%function
	.code	16                              @ @ap6212_init
	.thumb_func
ap6212_init:
.Lfunc_begin5:
	.loc	2 249 0                         @ libraries/drivers/drv_wlan.c:249:0
	.fnstart
	.cfi_startproc
@ %bb.0:
	.save	{r7, lr}
	push	{r7, lr}
	.cfi_def_cfa_offset 8
	.cfi_offset lr, -4
	.cfi_offset r7, -8
	.pad	#8
	sub	sp, #8
	.cfi_def_cfa_offset 16
	movs	r0, #45
	str	r0, [sp]                        @ 4-byte Spill
	movs	r1, #0
.Ltmp64:
	.loc	2 253 5 prologue_end            @ libraries/drivers/drv_wlan.c:253:5
	str	r1, [sp, #4]                    @ 4-byte Spill
	bl	rt_pin_mode
	ldr	r0, [sp]                        @ 4-byte Reload
	movs	r1, #1
	.loc	2 254 5                         @ libraries/drivers/drv_wlan.c:254:5
	bl	rt_pin_write
	ldr	r0, [sp, #4]                    @ 4-byte Reload
	.loc	2 256 5                         @ libraries/drivers/drv_wlan.c:256:5
	add	sp, #8
	pop	{r7, pc}
.Ltmp65:
.Lfunc_end5:
	.size	ap6212_init, .Lfunc_end5-ap6212_init
	.cfi_endproc
	.cantunwind
	.fnend
                                        @ -- End function
	.type	partition,%object               @ @partition
	.section	.bss.partition,"aw",%nobits
	.p2align	2
partition:
	.long	0
	.size	partition, 4

	.type	wifi_nvram_image,%object        @ @wifi_nvram_image
	.section	.rodata.wifi_nvram_image,"a",%progbits
	.p2align	6
wifi_nvram_image:
	.asciz	"manfid=0x2d0\000prodid=0x0726\000vendid=0x14e4\000devid=0x43e2\000boardtype=0x0726\000boardrev=0x1101\000boardnum=22\000xtalfreq=26000\000sromrev=11\000boardflags=0x00404201\000boardflags3=0x08000000\000macaddr=02:0A:F7:fe:86:1c\000nocrc=1\000ag0=255\000aa2g=1\000ccode=ALL\000swdiv_en=1\000swdiv_gpio=2\000pa0itssit=0x20\000extpagain2g=0\000pa2ga0=-215,5267,-656\000AvVmid_c0=0x0,0xc8\000cckpwroffset0=5\000maxp2ga0=80\000txpwrbckof=6\000cckbw202gpo=0x6666\000legofdmbw202gpo=0xaaaaaaaa\000mcsbw202gpo=0xbbbbbbbb\000propbw202gpo=0xdd\000ofdmdigfilttype=18\000ofdmdigfilttypebe=18\000papdmode=1\000papdvalidtest=1\000pacalidx2g=32\000papdepsoffset=-36\000papdendidx=61\000wl0id=0x431b\000deadman_to=0xffffffff\000muxenab=0x11\000spurconfig=0x3\000\000\000"
	.size	wifi_nvram_image, 630

	.type	init_flag,%object               @ @init_flag
	.section	.bss.init_flag,"aw",%nobits
	.p2align	2
init_flag:
	.long	0                               @ 0x0
	.size	init_flag, 4

	.type	.L.str,%object                  @ @.str
	.section	.rodata.str1.1,"aMS",%progbits,1
.L.str:
	.asciz	"wifi_init"
	.size	.L.str, 10

	.type	.L.str.1,%object                @ @.str.1
.L.str.1:
	.asciz	"\033[31m[E/WLAN] "
	.size	.L.str.1, 15

	.type	.L.str.2,%object                @ @.str.2
.L.str.2:
	.asciz	"Create wifi initialization thread fail!"
	.size	.L.str.2, 40

	.type	.L.str.3,%object                @ @.str.3
.L.str.3:
	.asciz	"\033[0m\n"
	.size	.L.str.3, 6

	.hidden	__rt_init_rt_hw_wlan_init       @ @__rt_init_rt_hw_wlan_init
	.type	__rt_init_rt_hw_wlan_init,%object
	.section	.rti_fn.6,"a",%progbits
	.globl	__rt_init_rt_hw_wlan_init
	.p2align	2
__rt_init_rt_hw_wlan_init:
__tagsym$$used.0:
	.long	rt_hw_wlan_init
	.size	__rt_init_rt_hw_wlan_init, 4

	.hidden	__rt_init_ap6212_init           @ @__rt_init_ap6212_init
	.type	__rt_init_ap6212_init,%object
	.section	.rti_fn.3,"a",%progbits
	.globl	__rt_init_ap6212_init
	.p2align	2
__rt_init_ap6212_init:
__tagsym$$used.1:
	.long	ap6212_init
	.size	__rt_init_ap6212_init, 4

	.type	.L.str.4,%object                @ @.str.4
	.section	.rodata.str1.1,"aMS",%progbits,1
.L.str.4:
	.asciz	"wifi_image"
	.size	.L.str.4, 11

	.type	.L.str.5,%object                @ @.str.5
.L.str.5:
	.asciz	"%s partition is not exist, please check your configuration!"
	.size	.L.str.5, 60

	.type	.L.str.6,%object                @ @.str.6
.L.str.6:
	.asciz	"download"
	.size	.L.str.6, 9

	.type	.L.str.7,%object                @ @.str.7
.L.str.7:
	.asciz	"\033[31;22m[E/OTA] (%s:%d) "
	.size	.L.str.7, 25

	.type	.L__FUNCTION__.wifi_init_thread_entry,%object @ @__FUNCTION__.wifi_init_thread_entry
.L__FUNCTION__.wifi_init_thread_entry:
	.asciz	"wifi_init_thread_entry"
	.size	.L__FUNCTION__.wifi_init_thread_entry, 23

	.type	.L.str.8,%object                @ @.str.8
.L.str.8:
	.asciz	"OTA upgrade failed!"
	.size	.L.str.8, 20

	.type	.L.str.9,%object                @ @.str.9
.L.str.9:
	.asciz	"wlan0"
	.size	.L.str.9, 6

	.type	.L.str.10,%object               @ @.str.10
.L.str.10:
	.asciz	"Wi-Fi image was NOT found on %s partition!"
	.size	.L.str.10, 43

	.globl	__rt_init_rt_hw_wlan_init
	.globl	__rt_init_ap6212_init
	.section	".note.GNU-stack","",%progbits
	.eabi_attribute	30, 6	@ Tag_ABI_optimization_goals
	.ARM_attribute	16, 1	@ Tag_AV_eba