	.text
	.syntax unified
	.eabi_attribute	67, "2.09"	@ Tag_conformance
	.cpu	cortex-m7
	.eabi_attribute	6, 13	@ Tag_CPU_arch
	.eabi_attribute	7, 77	@ Tag_CPU_arch_profile
	.eabi_attribute	8, 0	@ Tag_ARM_ISA_use
	.eabi_attribute	9, 2	@ Tag_THUMB_ISA_use
	.fpu	fpv5-d16
	.eabi_attribute	36, 1	@ Tag_FP_HP_extension
	.eabi_attribute	34, 1	@ Tag_CPU_unaligned_access
	.eabi_attribute	17, 1	@ Tag_ABI_PCS_GOT_use
	.eabi_attribute	20, 2	@ Tag_ABI_FP_denormal
	.eabi_attribute	21, 0	@ Tag_ABI_FP_exceptions
	.eabi_attribute	23, 1	@ Tag_ABI_FP_number_model
	.eabi_attribute	24, 1	@ Tag_ABI_align_needed
	.eabi_attribute	25, 1	@ Tag_ABI_align_preserved
	.eabi_attribute	28, 1	@ Tag_ABI_VFP_args
	.eabi_attribute	38, 1	@ Tag_ABI_FP_16bit_format
	.eabi_attribute	18, 2	@ Tag_ABI_PCS_wchar_t
	.eabi_attribute	26, 1	@ Tag_ABI_enum_size
	.eabi_attribute	14, 0	@ Tag_ABI_PCS_R9_use
	.file	"easyflash.c"
	.file	1 "E:\\Smart-access-control\\Hardware\\CODE" "./packages/EasyFlash-v4.1.0/inc\\ef_def.h"
	.section	.text.easyflash_init,"ax",%progbits
	.hidden	easyflash_init                  @ -- Begin function easyflash_init
	.globl	easyflash_init
	.p2align	3
	.type	easyflash_init,%function
	.code	16                              @ @easyflash_init
	.thumb_func
easyflash_init:
.Lfunc_begin0:
	.file	2 "E:\\Smart-access-control\\Hardware\\CODE" "packages/EasyFlash-v4.1.0/src/easyflash.c"
	.loc	2 65 0                          @ packages/EasyFlash-v4.1.0/src/easyflash.c:65:0
	.fnstart
	.cfi_sections .debug_frame
	.cfi_startproc
@ %bb.0:
	.save	{r4, lr}
	push	{r4, lr}
	.cfi_def_cfa_offset 8
	.cfi_offset lr, -4
	.cfi_offset r4, -8
	.pad	#8
	sub	sp, #8
	.cfi_def_cfa_offset 16
	movs	r0, #0
.Ltmp0:
	@DEBUG_VALUE: easyflash_init:default_env_set_size <- 0
	.loc	2 71 12 prologue_end            @ packages/EasyFlash-v4.1.0/src/easyflash.c:71:12
	str	r0, [sp, #4]
.Ltmp1:
	@DEBUG_VALUE: easyflash_init:default_env_set <- [DW_OP_deref] $sp
	@DEBUG_VALUE: easyflash_init:result <- 0
	@DEBUG_VALUE: easyflash_init:default_env_set_size <- [DW_OP_plus_uconst 4, DW_OP_deref] $sp
	.loc	2 0 12 is_stmt 0                @ packages/EasyFlash-v4.1.0/src/easyflash.c:0:12
	mov	r0, sp
	add	r1, sp, #4
	.loc	2 75 14 is_stmt 1               @ packages/EasyFlash-v4.1.0/src/easyflash.c:75:14
	bl	ef_port_init
	mov	r4, r0
.Ltmp2:
	@DEBUG_VALUE: easyflash_init:result <- $r4
	.loc	2 78 9                          @ packages/EasyFlash-v4.1.0/src/easyflash.c:78:9
	cbnz	r0, .LBB0_2
.Ltmp3:
@ %bb.1:
	@DEBUG_VALUE: easyflash_init:result <- $r4
	@DEBUG_VALUE: easyflash_init:default_env_set_size <- [DW_OP_plus_uconst 4, DW_OP_deref] $sp
	@DEBUG_VALUE: easyflash_init:default_env_set <- [DW_OP_deref] $sp
	@DEBUG_VALUE: easyflash_init:default_env_set <- $r0
	.loc	2 79 30                         @ packages/EasyFlash-v4.1.0/src/easyflash.c:79:30
	ldrd	r0, r1, [sp]
.Ltmp4:
	@DEBUG_VALUE: easyflash_init:default_env_set_size <- $r1
	.loc	2 79 18 is_stmt 0               @ packages/EasyFlash-v4.1.0/src/easyflash.c:79:18
	bl	ef_env_init
.Ltmp5:
	mov	r4, r0
.Ltmp6:
	@DEBUG_VALUE: easyflash_init:result <- undef
.LBB0_2:
	@DEBUG_VALUE: easyflash_init:result <- $r4
	.loc	2 95 9 is_stmt 1                @ packages/EasyFlash-v4.1.0/src/easyflash.c:95:9
	movw	r1, :lower16:.L.str
	movw	r0, :lower16:.L.str.2
	movt	r1, :upper16:.L.str
	movt	r0, :upper16:.L.str.2
	cmp	r4, #0
	it	eq
	moveq	r0, r1
.Ltmp7:
	.loc	2 0 0 is_stmt 0                 @ packages/EasyFlash-v4.1.0/src/easyflash.c:0:0
	adr	r1, .LCPI0_0
	bl	ef_log_info
.Ltmp8:
	.loc	2 100 5 is_stmt 1               @ packages/EasyFlash-v4.1.0/src/easyflash.c:100:5
	movw	r0, :lower16:.L.str.3
	movt	r0, :upper16:.L.str.3
	bl	ef_log_info
	.loc	2 102 5                         @ packages/EasyFlash-v4.1.0/src/easyflash.c:102:5
	mov	r0, r4
	add	sp, #8
	pop	{r4, pc}
.Ltmp9:
	.p2align	2
@ %bb.3:
	.loc	2 0 5 is_stmt 0                 @ packages/EasyFlash-v4.1.0/src/easyflash.c:0:5
.LCPI0_0:
.L.str.1:
	.asciz	"4.1.0\000\000"
.Lfunc_end0:
	.size	easyflash_init, .Lfunc_end0-easyflash_init
	.cfi_endproc
	.cantunwind
	.fnend
                                        @ -- End function
	.type	.L.str,%object                  @ @.str
	.section	.rodata.str1.1,"aMS",%progbits,1
.L.str:
	.asciz	"EasyFlash V%s is initialize success.\n"
	.size	.L.str, 38

	.type	.L.str.2,%object                @ @.str.2
.L.str.2:
	.asciz	"EasyFlash V%s is initialize fail.\n"
	.size	.L.str.2, 35

	.type	.L.str.3,%object                @ @.str.3
.L.str.3:
	.asciz	"You can get the latest version on https://github.com/armink/EasyFlash .\n"
	.size	.L.str.3, 73

	.file	3 "D:\\Keil_v5\\ARM\\ARMCLANG\\Bin\\..\\include" "stddef.h"
	.section	".note.GNU-stack","",%progbits
	.eabi_attribute	30, 1	@ Tag_ABI_optimization_goals
	.ARM_attribute	16, 1	@ Tag_AV_eba