	.text
	.syntax unified
	.eabi_attribute	67, "2.09"	@ Tag_conformance
	.cpu	cortex-m7
	.eabi_attribute	6, 13	@ Tag_CPU_arch
	.eabi_attribute	7, 77	@ Tag_CPU_arch_profile
	.eabi_attribute	8, 0	@ Tag_ARM_ISA_use
	.eabi_attribute	9, 2	@ Tag_THUMB_ISA_use
	.fpu	fpv5-d16
	.eabi_attribute	36, 1	@ Tag_FP_HP_extension
	.eabi_attribute	34, 1	@ Tag_CPU_unaligned_access
	.eabi_attribute	17, 1	@ Tag_ABI_PCS_GOT_use
	.eabi_attribute	20, 2	@ Tag_ABI_FP_denormal
	.eabi_attribute	21, 0	@ Tag_ABI_FP_exceptions
	.eabi_attribute	23, 1	@ Tag_ABI_FP_number_model
	.eabi_attribute	24, 1	@ Tag_ABI_align_needed
	.eabi_attribute	25, 1	@ Tag_ABI_align_preserved
	.eabi_attribute	28, 1	@ Tag_ABI_VFP_args
	.eabi_attribute	38, 1	@ Tag_ABI_FP_16bit_format
	.eabi_attribute	18, 2	@ Tag_ABI_PCS_wchar_t
	.eabi_attribute	26, 1	@ Tag_ABI_enum_size
	.eabi_attribute	14, 0	@ Tag_ABI_PCS_R9_use
	.file	"ef_cmd.c"
	.file	1 "E:\\Smart-access-control\\Hardware\\CODE" "packages/EasyFlash-v4.1.0/src/ef_cmd.c"
	.file	2 "E:\\Smart-access-control\\Hardware\\CODE" "rt-thread/components/finsh/finsh_api.h"
	.section	.text.__setenv,"ax",%progbits
	.p2align	3                               @ -- Begin function __setenv
	.type	__setenv,%function
	.code	16                              @ @__setenv
	.thumb_func
__setenv:
.Lfunc_begin0:
	.loc	1 35 0                          @ packages/EasyFlash-v4.1.0/src/ef_cmd.c:35:0
	.fnstart
	.cfi_sections .debug_frame
	.cfi_startproc
@ %bb.0:
	.save	{r7, lr}
	push	{r7, lr}
	.cfi_def_cfa_offset 8
	.cfi_offset lr, -4
	.cfi_offset r7, -8
	.pad	#16
	sub	sp, #16
	.cfi_def_cfa_offset 24
                                        @ kill: def $r2 killed $r0
	strb.w	r0, [sp, #15]
	str	r1, [sp, #8]
.Ltmp0:
	.loc	1 38 9 prologue_end             @ packages/EasyFlash-v4.1.0/src/ef_cmd.c:38:9
	ldrb.w	r0, [sp, #15]
.Ltmp1:
	.loc	1 38 9 is_stmt 0                @ packages/EasyFlash-v4.1.0/src/ef_cmd.c:38:9
	cmp	r0, #4
	blt	.LBB0_6
	b	.LBB0_1
.LBB0_1:
	.loc	1 0 9                           @ packages/EasyFlash-v4.1.0/src/ef_cmd.c:0:9
	movs	r0, #0
.Ltmp2:
	.loc	1 40 16 is_stmt 1               @ packages/EasyFlash-v4.1.0/src/ef_cmd.c:40:16
	strb.w	r0, [sp, #7]
	.loc	1 40 14 is_stmt 0               @ packages/EasyFlash-v4.1.0/src/ef_cmd.c:40:14
	b	.LBB0_2
.LBB0_2:                                @ =>This Inner Loop Header: Depth=1
.Ltmp3:
	.loc	1 40 21                         @ packages/EasyFlash-v4.1.0/src/ef_cmd.c:40:21
	ldrb.w	r0, [sp, #7]
	.loc	1 40 25                         @ packages/EasyFlash-v4.1.0/src/ef_cmd.c:40:25
	ldrb.w	r1, [sp, #15]
	.loc	1 40 30                         @ packages/EasyFlash-v4.1.0/src/ef_cmd.c:40:30
	subs	r1, #2
.Ltmp4:
	.loc	1 40 9                          @ packages/EasyFlash-v4.1.0/src/ef_cmd.c:40:9
	cmp	r0, r1
	bge	.LBB0_5
	b	.LBB0_3
.LBB0_3:                                @   in Loop: Header=BB0_2 Depth=1
.Ltmp5:
	.loc	1 41 13 is_stmt 1               @ packages/EasyFlash-v4.1.0/src/ef_cmd.c:41:13
	ldr	r0, [sp, #8]
	.loc	1 41 22 is_stmt 0               @ packages/EasyFlash-v4.1.0/src/ef_cmd.c:41:22
	ldrb.w	r1, [sp, #7]
	.loc	1 41 13                         @ packages/EasyFlash-v4.1.0/src/ef_cmd.c:41:13
	add.w	r0, r0, r1, lsl #2
	ldr	r0, [r0, #8]
	.loc	1 41 25                         @ packages/EasyFlash-v4.1.0/src/ef_cmd.c:41:25
	str	r0, [sp]                        @ 4-byte Spill
	bl	rt_strlen
	ldr	r1, [sp]                        @ 4-byte Reload
	mov	r2, r0
	movs	r0, #32
	.loc	1 41 49                         @ packages/EasyFlash-v4.1.0/src/ef_cmd.c:41:49
	strb	r0, [r1, r2]
	.loc	1 42 9 is_stmt 1                @ packages/EasyFlash-v4.1.0/src/ef_cmd.c:42:9
	b	.LBB0_4
.Ltmp6:
.LBB0_4:                                @   in Loop: Header=BB0_2 Depth=1
	.loc	1 40 36                         @ packages/EasyFlash-v4.1.0/src/ef_cmd.c:40:36
	ldrb.w	r0, [sp, #7]
	adds	r0, #1
	strb.w	r0, [sp, #7]
	.loc	1 40 9 is_stmt 0                @ packages/EasyFlash-v4.1.0/src/ef_cmd.c:40:9
	b	.LBB0_2
.Ltmp7:
.LBB0_5:
	.loc	1 43 5 is_stmt 1                @ packages/EasyFlash-v4.1.0/src/ef_cmd.c:43:5
	b	.LBB0_6
.Ltmp8:
.LBB0_6:
	.loc	1 44 9                          @ packages/EasyFlash-v4.1.0/src/ef_cmd.c:44:9
	ldrb.w	r0, [sp, #15]
.Ltmp9:
	.loc	1 44 9 is_stmt 0                @ packages/EasyFlash-v4.1.0/src/ef_cmd.c:44:9
	cmp	r0, #1
	bne	.LBB0_8
	b	.LBB0_7
.LBB0_7:
.Ltmp10:
	.loc	1 45 9 is_stmt 1                @ packages/EasyFlash-v4.1.0/src/ef_cmd.c:45:9
	movw	r0, :lower16:.L.str
	movt	r0, :upper16:.L.str
	bl	rt_kprintf
	.loc	1 46 5                          @ packages/EasyFlash-v4.1.0/src/ef_cmd.c:46:5
	b	.LBB0_12
.Ltmp11:
.LBB0_8:
	.loc	1 46 16 is_stmt 0               @ packages/EasyFlash-v4.1.0/src/ef_cmd.c:46:16
	ldrb.w	r0, [sp, #15]
.Ltmp12:
	.loc	1 46 16                         @ packages/EasyFlash-v4.1.0/src/ef_cmd.c:46:16
	cmp	r0, #2
	bne	.LBB0_10
	b	.LBB0_9
.LBB0_9:
.Ltmp13:
	.loc	1 47 20 is_stmt 1               @ packages/EasyFlash-v4.1.0/src/ef_cmd.c:47:20
	ldr	r0, [sp, #8]
	ldr	r0, [r0, #4]
	movs	r1, #0
	.loc	1 47 9 is_stmt 0                @ packages/EasyFlash-v4.1.0/src/ef_cmd.c:47:9
	bl	ef_set_env
	.loc	1 48 5 is_stmt 1                @ packages/EasyFlash-v4.1.0/src/ef_cmd.c:48:5
	b	.LBB0_11
.Ltmp14:
.LBB0_10:
	.loc	1 49 20                         @ packages/EasyFlash-v4.1.0/src/ef_cmd.c:49:20
	ldr	r1, [sp, #8]
	ldr	r0, [r1, #4]
	.loc	1 49 29 is_stmt 0               @ packages/EasyFlash-v4.1.0/src/ef_cmd.c:49:29
	ldr	r1, [r1, #8]
	.loc	1 49 9                          @ packages/EasyFlash-v4.1.0/src/ef_cmd.c:49:9
	bl	ef_set_env
	b	.LBB0_11
.Ltmp15:
.LBB0_11:
	.loc	1 0 9                           @ packages/EasyFlash-v4.1.0/src/ef_cmd.c:0:9
	b	.LBB0_12
.LBB0_12:
	.loc	1 51 1 is_stmt 1                @ packages/EasyFlash-v4.1.0/src/ef_cmd.c:51:1
	add	sp, #16
	pop	{r7, pc}
.Ltmp16:
.Lfunc_end0:
	.size	__setenv, .Lfunc_end0-__setenv
	.cfi_endproc
	.cantunwind
	.fnend
                                        @ -- End function
	.section	.text.printenv,"ax",%progbits
	.p2align	3                               @ -- Begin function printenv
	.type	printenv,%function
	.code	16                              @ @printenv
	.thumb_func
printenv:
.Lfunc_begin1:
	.loc	1 54 0                          @ packages/EasyFlash-v4.1.0/src/ef_cmd.c:54:0
	.fnstart
	.cfi_startproc
@ %bb.0:
	.save	{r7, lr}
	push	{r7, lr}
	.cfi_def_cfa_offset 8
	.cfi_offset lr, -4
	.cfi_offset r7, -8
	.pad	#8
	sub	sp, #8
	.cfi_def_cfa_offset 16
                                        @ kill: def $r2 killed $r0
	strb.w	r0, [sp, #7]
	str	r1, [sp]
.Ltmp17:
	.loc	1 55 5 prologue_end             @ packages/EasyFlash-v4.1.0/src/ef_cmd.c:55:5
	bl	ef_print_env
	.loc	1 56 1                          @ packages/EasyFlash-v4.1.0/src/ef_cmd.c:56:1
	add	sp, #8
	pop	{r7, pc}
.Ltmp18:
.Lfunc_end1:
	.size	printenv, .Lfunc_end1-printenv
	.cfi_endproc
	.cantunwind
	.fnend
                                        @ -- End function
	.section	.text.saveenv,"ax",%progbits
	.p2align	3                               @ -- Begin function saveenv
	.type	saveenv,%function
	.code	16                              @ @saveenv
	.thumb_func
saveenv:
.Lfunc_begin2:
	.loc	1 59 0                          @ packages/EasyFlash-v4.1.0/src/ef_cmd.c:59:0
	.fnstart
	.cfi_startproc
@ %bb.0:
	.save	{r7, lr}
	push	{r7, lr}
	.cfi_def_cfa_offset 8
	.cfi_offset lr, -4
	.cfi_offset r7, -8
	.pad	#8
	sub	sp, #8
	.cfi_def_cfa_offset 16
                                        @ kill: def $r2 killed $r0
	strb.w	r0, [sp, #7]
	str	r1, [sp]
.Ltmp19:
	.loc	1 60 5 prologue_end             @ packages/EasyFlash-v4.1.0/src/ef_cmd.c:60:5
	bl	ef_save_env
	.loc	1 61 1                          @ packages/EasyFlash-v4.1.0/src/ef_cmd.c:61:1
	add	sp, #8
	pop	{r7, pc}
.Ltmp20:
.Lfunc_end2:
	.size	saveenv, .Lfunc_end2-saveenv
	.cfi_endproc
	.cantunwind
	.fnend
                                        @ -- End function
	.section	.text.getvalue,"ax",%progbits
	.p2align	3                               @ -- Begin function getvalue
	.type	getvalue,%function
	.code	16                              @ @getvalue
	.thumb_func
getvalue:
.Lfunc_begin3:
	.loc	1 64 0                          @ packages/EasyFlash-v4.1.0/src/ef_cmd.c:64:0
	.fnstart
	.cfi_startproc
@ %bb.0:
	.save	{r7, lr}
	push	{r7, lr}
	.cfi_def_cfa_offset 8
	.cfi_offset lr, -4
	.cfi_offset r7, -8
	.pad	#16
	sub	sp, #16
	.cfi_def_cfa_offset 24
                                        @ kill: def $r2 killed $r0
	strb.w	r0, [sp, #15]
	str	r1, [sp, #8]
	movs	r0, #0
.Ltmp21:
	.loc	1 65 11 prologue_end            @ packages/EasyFlash-v4.1.0/src/ef_cmd.c:65:11
	str	r0, [sp, #4]
	.loc	1 66 24                         @ packages/EasyFlash-v4.1.0/src/ef_cmd.c:66:24
	ldr	r0, [sp, #8]
	ldr	r0, [r0, #4]
	.loc	1 66 13 is_stmt 0               @ packages/EasyFlash-v4.1.0/src/ef_cmd.c:66:13
	bl	ef_get_env
	.loc	1 66 11                         @ packages/EasyFlash-v4.1.0/src/ef_cmd.c:66:11
	str	r0, [sp, #4]
.Ltmp22:
	.loc	1 67 9 is_stmt 1                @ packages/EasyFlash-v4.1.0/src/ef_cmd.c:67:9
	ldr	r0, [sp, #4]
.Ltmp23:
	.loc	1 67 9 is_stmt 0                @ packages/EasyFlash-v4.1.0/src/ef_cmd.c:67:9
	cbz	r0, .LBB3_2
	b	.LBB3_1
.LBB3_1:
.Ltmp24:
	.loc	1 68 45 is_stmt 1               @ packages/EasyFlash-v4.1.0/src/ef_cmd.c:68:45
	ldr	r0, [sp, #8]
	ldr	r1, [r0, #4]
	.loc	1 68 54 is_stmt 0               @ packages/EasyFlash-v4.1.0/src/ef_cmd.c:68:54
	ldr	r2, [sp, #4]
	.loc	1 68 9                          @ packages/EasyFlash-v4.1.0/src/ef_cmd.c:68:9
	movw	r0, :lower16:.L.str.1
	movt	r0, :upper16:.L.str.1
	bl	rt_kprintf
	.loc	1 69 5 is_stmt 1                @ packages/EasyFlash-v4.1.0/src/ef_cmd.c:69:5
	b	.LBB3_3
.Ltmp25:
.LBB3_2:
	.loc	1 70 40                         @ packages/EasyFlash-v4.1.0/src/ef_cmd.c:70:40
	ldr	r0, [sp, #8]
	ldr	r1, [r0, #4]
	.loc	1 70 9 is_stmt 0                @ packages/EasyFlash-v4.1.0/src/ef_cmd.c:70:9
	movw	r0, :lower16:.L.str.2
	movt	r0, :upper16:.L.str.2
	bl	rt_kprintf
	b	.LBB3_3
.Ltmp26:
.LBB3_3:
	.loc	1 72 1 is_stmt 1                @ packages/EasyFlash-v4.1.0/src/ef_cmd.c:72:1
	add	sp, #16
	pop	{r7, pc}
.Ltmp27:
.Lfunc_end3:
	.size	getvalue, .Lfunc_end3-getvalue
	.cfi_endproc
	.cantunwind
	.fnend
                                        @ -- End function
	.section	.text.resetenv,"ax",%progbits
	.p2align	3                               @ -- Begin function resetenv
	.type	resetenv,%function
	.code	16                              @ @resetenv
	.thumb_func
resetenv:
.Lfunc_begin4:
	.loc	1 75 0                          @ packages/EasyFlash-v4.1.0/src/ef_cmd.c:75:0
	.fnstart
	.cfi_startproc
@ %bb.0:
	.save	{r7, lr}
	push	{r7, lr}
	.cfi_def_cfa_offset 8
	.cfi_offset lr, -4
	.cfi_offset r7, -8
	.pad	#8
	sub	sp, #8
	.cfi_def_cfa_offset 16
                                        @ kill: def $r2 killed $r0
	strb.w	r0, [sp, #7]
	str	r1, [sp]
.Ltmp28:
	.loc	1 76 5 prologue_end             @ packages/EasyFlash-v4.1.0/src/ef_cmd.c:76:5
	bl	ef_env_set_default
	.loc	1 77 1                          @ packages/EasyFlash-v4.1.0/src/ef_cmd.c:77:1
	add	sp, #8
	pop	{r7, pc}
.Ltmp29:
.Lfunc_end4:
	.size	resetenv, .Lfunc_end4-resetenv
	.cfi_endproc
	.cantunwind
	.fnend
                                        @ -- End function
	.hidden	__fsym___cmd_setenv_name        @ @__fsym___cmd_setenv_name
	.type	__fsym___cmd_setenv_name,%object
	.section	.rodata.name,"a",%progbits
	.globl	__fsym___cmd_setenv_name
__fsym___cmd_setenv_name:
	.asciz	"__cmd_setenv"
	.size	__fsym___cmd_setenv_name, 13

	.hidden	__fsym___cmd_setenv_desc        @ @__fsym___cmd_setenv_desc
	.type	__fsym___cmd_setenv_desc,%object
	.globl	__fsym___cmd_setenv_desc
__fsym___cmd_setenv_desc:
	.asciz	"Set an envrionment variable."
	.size	__fsym___cmd_setenv_desc, 29

	.hidden	__fsym___cmd_setenv             @ @__fsym___cmd_setenv
	.type	__fsym___cmd_setenv,%object
	.section	FSymTab,"a",%progbits
	.globl	__fsym___cmd_setenv
	.p2align	2
__fsym___cmd_setenv:
__tagsym$$used.0:
	.long	__fsym___cmd_setenv_name
	.long	__fsym___cmd_setenv_desc
	.long	__setenv
	.size	__fsym___cmd_setenv, 12

	.hidden	__fsym___cmd_printenv_name      @ @__fsym___cmd_printenv_name
	.type	__fsym___cmd_printenv_name,%object
	.section	.rodata.name,"a",%progbits
	.globl	__fsym___cmd_printenv_name
__fsym___cmd_printenv_name:
	.asciz	"__cmd_printenv"
	.size	__fsym___cmd_printenv_name, 15

	.hidden	__fsym___cmd_printenv_desc      @ @__fsym___cmd_printenv_desc
	.type	__fsym___cmd_printenv_desc,%object
	.globl	__fsym___cmd_printenv_desc
__fsym___cmd_printenv_desc:
	.asciz	"Print all envrionment variables."
	.size	__fsym___cmd_printenv_desc, 33

	.hidden	__fsym___cmd_printenv           @ @__fsym___cmd_printenv
	.type	__fsym___cmd_printenv,%object
	.section	FSymTab,"a",%progbits
	.globl	__fsym___cmd_printenv
	.p2align	2
__fsym___cmd_printenv:
__tagsym$$used.1:
	.long	__fsym___cmd_printenv_name
	.long	__fsym___cmd_printenv_desc
	.long	printenv
	.size	__fsym___cmd_printenv, 12

	.hidden	__fsym___cmd_saveenv_name       @ @__fsym___cmd_saveenv_name
	.type	__fsym___cmd_saveenv_name,%object
	.section	.rodata.name,"a",%progbits
	.globl	__fsym___cmd_saveenv_name
__fsym___cmd_saveenv_name:
	.asciz	"__cmd_saveenv"
	.size	__fsym___cmd_saveenv_name, 14

	.hidden	__fsym___cmd_saveenv_desc       @ @__fsym___cmd_saveenv_desc
	.type	__fsym___cmd_saveenv_desc,%object
	.globl	__fsym___cmd_saveenv_desc
__fsym___cmd_saveenv_desc:
	.asciz	"Save all envrionment variables to flash."
	.size	__fsym___cmd_saveenv_desc, 41

	.hidden	__fsym___cmd_saveenv            @ @__fsym___cmd_saveenv
	.type	__fsym___cmd_saveenv,%object
	.section	FSymTab,"a",%progbits
	.globl	__fsym___cmd_saveenv
	.p2align	2
__fsym___cmd_saveenv:
__tagsym$$used.2:
	.long	__fsym___cmd_saveenv_name
	.long	__fsym___cmd_saveenv_desc
	.long	saveenv
	.size	__fsym___cmd_saveenv, 12

	.hidden	__fsym___cmd_getvalue_name      @ @__fsym___cmd_getvalue_name
	.type	__fsym___cmd_getvalue_name,%object
	.section	.rodata.name,"a",%progbits
	.globl	__fsym___cmd_getvalue_name
__fsym___cmd_getvalue_name:
	.asciz	"__cmd_getvalue"
	.size	__fsym___cmd_getvalue_name, 15

	.hidden	__fsym___cmd_getvalue_desc      @ @__fsym___cmd_getvalue_desc
	.type	__fsym___cmd_getvalue_desc,%object
	.globl	__fsym___cmd_getvalue_desc
__fsym___cmd_getvalue_desc:
	.asciz	"Get an envrionment variable by name."
	.size	__fsym___cmd_getvalue_desc, 37

	.hidden	__fsym___cmd_getvalue           @ @__fsym___cmd_getvalue
	.type	__fsym___cmd_getvalue,%object
	.section	FSymTab,"a",%progbits
	.globl	__fsym___cmd_getvalue
	.p2align	2
__fsym___cmd_getvalue:
__tagsym$$used.3:
	.long	__fsym___cmd_getvalue_name
	.long	__fsym___cmd_getvalue_desc
	.long	getvalue
	.size	__fsym___cmd_getvalue, 12

	.hidden	__fsym___cmd_resetenv_name      @ @__fsym___cmd_resetenv_name
	.type	__fsym___cmd_resetenv_name,%object
	.section	.rodata.name,"a",%progbits
	.globl	__fsym___cmd_resetenv_name
__fsym___cmd_resetenv_name:
	.asciz	"__cmd_resetenv"
	.size	__fsym___cmd_resetenv_name, 15

	.hidden	__fsym___cmd_resetenv_desc      @ @__fsym___cmd_resetenv_desc
	.type	__fsym___cmd_resetenv_desc,%object
	.globl	__fsym___cmd_resetenv_desc
__fsym___cmd_resetenv_desc:
	.asciz	"Reset all envrionment variable to default."
	.size	__fsym___cmd_resetenv_desc, 43

	.hidden	__fsym___cmd_resetenv           @ @__fsym___cmd_resetenv
	.type	__fsym___cmd_resetenv,%object
	.section	FSymTab,"a",%progbits
	.globl	__fsym___cmd_resetenv
	.p2align	2
__fsym___cmd_resetenv:
__tagsym$$used.4:
	.long	__fsym___cmd_resetenv_name
	.long	__fsym___cmd_resetenv_desc
	.long	resetenv
	.size	__fsym___cmd_resetenv, 12

	.type	.L.str,%object                  @ @.str
	.section	.rodata.str1.1,"aMS",%progbits,1
.L.str:
	.asciz	"Please input: setenv <key> [value]\n"
	.size	.L.str, 36

	.type	.L.str.1,%object                @ @.str.1
.L.str.1:
	.asciz	"The %s value is %s.\n"
	.size	.L.str.1, 21

	.type	.L.str.2,%object                @ @.str.2
.L.str.2:
	.asciz	"Can't find %s.\n"
	.size	.L.str.2, 16

	.globl	__fsym___cmd_setenv
	.globl	__fsym___cmd_printenv
	.globl	__fsym___cmd_saveenv
	.globl	__fsym___cmd_getvalue
	.globl	__fsym___cmd_resetenv
	.file	3 "D:\\Keil_v5\\ARM\\ARMCLANG\\Bin\\..\\include" "stdint.h"
	.section	".note.GNU-stack","",%progbits
	.eabi_attribute	30, 6	@ Tag_ABI_optimization_goals
	.ARM_attribute	16, 1	@ Tag_AV_eba