	.text
	.syntax unified
	.eabi_attribute	67, "2.09"	@ Tag_conformance
	.cpu	cortex-m7
	.eabi_attribute	6, 13	@ Tag_CPU_arch
	.eabi_attribute	7, 77	@ Tag_CPU_arch_profile
	.eabi_attribute	8, 0	@ Tag_ARM_ISA_use
	.eabi_attribute	9, 2	@ Tag_THUMB_ISA_use
	.fpu	fpv5-d16
	.eabi_attribute	36, 1	@ Tag_FP_HP_extension
	.eabi_attribute	34, 1	@ Tag_CPU_unaligned_access
	.eabi_attribute	17, 1	@ Tag_ABI_PCS_GOT_use
	.eabi_attribute	20, 2	@ Tag_ABI_FP_denormal
	.eabi_attribute	21, 0	@ Tag_ABI_FP_exceptions
	.eabi_attribute	23, 1	@ Tag_ABI_FP_number_model
	.eabi_attribute	24, 1	@ Tag_ABI_align_needed
	.eabi_attribute	25, 1	@ Tag_ABI_align_preserved
	.eabi_attribute	28, 1	@ Tag_ABI_VFP_args
	.eabi_attribute	38, 1	@ Tag_ABI_FP_16bit_format
	.eabi_attribute	18, 2	@ Tag_ABI_PCS_wchar_t
	.eabi_attribute	26, 1	@ Tag_ABI_enum_size
	.eabi_attribute	14, 0	@ Tag_ABI_PCS_R9_use
	.file	"ef_env.c"
	.file	1 "D:\\Keil_v5\\ARM\\ARMCLANG\\Bin\\..\\include" "stdint.h"
	.file	2 "E:\\Smart-access-control\\Hardware\\CODE" "packages/EasyFlash-v4.1.0/src/ef_env.c"
	.file	3 "E:\\Smart-access-control\\Hardware\\CODE" "./packages/EasyFlash-v4.1.0/inc\\ef_def.h"
	.file	4 "D:\\Keil_v5\\ARM\\ARMCLANG\\Bin\\..\\include" "string.h"
	.section	.text.ef_get_env_obj,"ax",%progbits
	.hidden	ef_get_env_obj                  @ -- Begin function ef_get_env_obj
	.globl	ef_get_env_obj
	.p2align	3
	.type	ef_get_env_obj,%function
	.code	16                              @ @ef_get_env_obj
	.thumb_func
ef_get_env_obj:
.Lfunc_begin0:
	.loc	2 804 0                         @ packages/EasyFlash-v4.1.0/src/ef_env.c:804:0
	.fnstart
	.cfi_sections .debug_frame
	.cfi_startproc
@ %bb.0:
	@DEBUG_VALUE: ef_get_env_obj:key <- $r0
	@DEBUG_VALUE: ef_get_env_obj:env <- $r1
	.save	{r4, r5, r7, lr}
	push	{r4, r5, r7, lr}
	.cfi_def_cfa_offset 16
	.cfi_offset lr, -4
	.cfi_offset r7, -8
	.cfi_offset r5, -12
	.cfi_offset r4, -16
.Ltmp0:
	.loc	2 807 10 prologue_end           @ packages/EasyFlash-v4.1.0/src/ef_env.c:807:10
	movw	r2, :lower16:init_ok
	movt	r2, :upper16:init_ok
	ldrb	r2, [r2]
.Ltmp1:
	@DEBUG_VALUE: ef_get_env_obj:env <- $r1
	@DEBUG_VALUE: ef_get_env_obj:find_ok <- 0
	@DEBUG_VALUE: ef_get_env_obj:key <- $r0
	.loc	2 807 9 is_stmt 0               @ packages/EasyFlash-v4.1.0/src/ef_env.c:807:9
	cbz	r2, .LBB0_2
.Ltmp2:
@ %bb.1:
	@DEBUG_VALUE: ef_get_env_obj:env <- $r1
	@DEBUG_VALUE: ef_get_env_obj:key <- $r0
	@DEBUG_VALUE: ef_get_env_obj:find_ok <- 0
	.loc	2 0 9                           @ packages/EasyFlash-v4.1.0/src/ef_env.c:0:9
	mov	r4, r1
.Ltmp3:
	@DEBUG_VALUE: ef_get_env_obj:env <- $r4
	@DEBUG_VALUE: ef_get_env_obj:env <- $r4
	mov	r5, r0
.Ltmp4:
	@DEBUG_VALUE: ef_get_env_obj:key <- $r5
	@DEBUG_VALUE: ef_get_env_obj:key <- $r5
	.loc	2 813 5 is_stmt 1               @ packages/EasyFlash-v4.1.0/src/ef_env.c:813:5
	bl	ef_port_env_lock
	.loc	2 815 15                        @ packages/EasyFlash-v4.1.0/src/ef_env.c:815:15
	mov	r0, r5
	mov	r1, r4
	bl	find_env
	mov	r4, r0
.Ltmp5:
	@DEBUG_VALUE: ef_get_env_obj:env <- [DW_OP_LLVM_entry_value 1] $r1
	@DEBUG_VALUE: ef_get_env_obj:find_ok <- [DW_OP_LLVM_convert 1 7, DW_OP_LLVM_convert 8 7, DW_OP_stack_value] undef
	.loc	2 818 5                         @ packages/EasyFlash-v4.1.0/src/ef_env.c:818:5
	bl	ef_port_env_unlock
	.loc	2 821 1                         @ packages/EasyFlash-v4.1.0/src/ef_env.c:821:1
	mov	r0, r4
	pop	{r4, r5, r7, pc}
.Ltmp6:
.LBB0_2:
	@DEBUG_VALUE: ef_get_env_obj:env <- $r1
	@DEBUG_VALUE: ef_get_env_obj:key <- $r0
	@DEBUG_VALUE: ef_get_env_obj:find_ok <- 0
	.loc	2 808 9                         @ packages/EasyFlash-v4.1.0/src/ef_env.c:808:9
	movw	r0, :lower16:.L.str
.Ltmp7:
	@DEBUG_VALUE: ef_get_env_obj:key <- [DW_OP_LLVM_entry_value 1] $r0
	movt	r0, :upper16:.L.str
	bl	ef_log_info
.Ltmp8:
	@DEBUG_VALUE: ef_get_env_obj:env <- [DW_OP_LLVM_entry_value 1] $r1
	.loc	2 0 9 is_stmt 0                 @ packages/EasyFlash-v4.1.0/src/ef_env.c:0:9
	movs	r0, #0
.Ltmp9:
	.loc	2 821 1 is_stmt 1               @ packages/EasyFlash-v4.1.0/src/ef_env.c:821:1
	pop	{r4, r5, r7, pc}
.Ltmp10:
.Lfunc_end0:
	.size	ef_get_env_obj, .Lfunc_end0-ef_get_env_obj
	.cfi_endproc
	.cantunwind
	.fnend
                                        @ -- End function
	.section	.text.find_env,"ax",%progbits
	.p2align	3                               @ -- Begin function find_env
	.type	find_env,%function
	.code	16                              @ @find_env
	.thumb_func
find_env:
.Lfunc_begin1:
	.loc	2 737 0                         @ packages/EasyFlash-v4.1.0/src/ef_env.c:737:0
	.fnstart
	.cfi_startproc
@ %bb.0:
	@DEBUG_VALUE: find_env:key <- $r0
	@DEBUG_VALUE: find_env:env <- $r1
	.save	{r4, r5, r6, r7, lr}
	push	{r4, r5, r6, r7, lr}
	.cfi_def_cfa_offset 20
	.cfi_offset lr, -4
	.cfi_offset r7, -8
	.cfi_offset r6, -12
	.cfi_offset r5, -16
	.cfi_offset r4, -20
	.pad	#4
	sub	sp, #4
	.cfi_def_cfa_offset 24
	mov	r7, r1
.Ltmp11:
	@DEBUG_VALUE: find_env:env <- $r7
	mov	r4, r0
.Ltmp12:
	@DEBUG_VALUE: find_env:find_ok <- 0
	@DEBUG_VALUE: find_env:env <- $r7
	@DEBUG_VALUE: find_env:key <- $r4
	.loc	2 741 22 prologue_end           @ packages/EasyFlash-v4.1.0/src/ef_env.c:741:22
	bl	strlen
	mov	r5, r0
.Ltmp13:
	@DEBUG_VALUE: find_env:key_len <- $r5
	.loc	2 743 53                        @ packages/EasyFlash-v4.1.0/src/ef_env.c:743:53
	add.w	r6, r7, #48
	.loc	2 743 9 is_stmt 0               @ packages/EasyFlash-v4.1.0/src/ef_env.c:743:9
	mov	r0, r4
	mov	r1, r5
	mov	r2, r6
	bl	get_env_from_cache
.Ltmp14:
	.loc	2 743 9                         @ packages/EasyFlash-v4.1.0/src/ef_env.c:743:9
	cbz	r0, .LBB1_2
.Ltmp15:
@ %bb.1:
	@DEBUG_VALUE: find_env:env <- $r7
	@DEBUG_VALUE: find_env:key_len <- $r5
	@DEBUG_VALUE: find_env:key <- $r4
	@DEBUG_VALUE: find_env:find_ok <- 0
	.loc	2 744 9 is_stmt 1               @ packages/EasyFlash-v4.1.0/src/ef_env.c:744:9
	mov	r0, r7
	bl	read_env
	movs	r7, #1
.Ltmp16:
	.loc	2 745 9                         @ packages/EasyFlash-v4.1.0/src/ef_env.c:745:9
	b	.LBB1_4
.Ltmp17:
.LBB1_2:
	@DEBUG_VALUE: find_env:env <- $r7
	@DEBUG_VALUE: find_env:key_len <- $r5
	@DEBUG_VALUE: find_env:key <- $r4
	@DEBUG_VALUE: find_env:find_ok <- 0
	.loc	2 749 15                        @ packages/EasyFlash-v4.1.0/src/ef_env.c:749:15
	mov	r0, r4
	mov	r1, r7
	bl	find_env_no_cache
	mov	r7, r0
.Ltmp18:
	@DEBUG_VALUE: find_env:find_ok <- [DW_OP_LLVM_convert 1 7, DW_OP_LLVM_convert 8 7, DW_OP_stack_value] undef
	.loc	2 752 9                         @ packages/EasyFlash-v4.1.0/src/ef_env.c:752:9
	cbz	r0, .LBB1_4
.Ltmp19:
@ %bb.3:
	@DEBUG_VALUE: find_env:key_len <- $r5
	@DEBUG_VALUE: find_env:key <- $r4
	.loc	2 753 50                        @ packages/EasyFlash-v4.1.0/src/ef_env.c:753:50
	ldr	r2, [r6]
	.loc	2 753 9 is_stmt 0               @ packages/EasyFlash-v4.1.0/src/ef_env.c:753:9
	mov	r0, r4
	mov	r1, r5
	bl	update_env_cache
.Ltmp20:
.LBB1_4:
	@DEBUG_VALUE: find_env:key_len <- $r5
	@DEBUG_VALUE: find_env:key <- $r4
	.loc	2 758 1 is_stmt 1               @ packages/EasyFlash-v4.1.0/src/ef_env.c:758:1
	mov	r0, r7
	add	sp, #4
	pop	{r4, r5, r6, r7, pc}
.Ltmp21:
.Lfunc_end1:
	.size	find_env, .Lfunc_end1-find_env
	.cfi_endproc
	.cantunwind
	.fnend
                                        @ -- End function
	.section	.text.ef_get_env_blob,"ax",%progbits
	.hidden	ef_get_env_blob                 @ -- Begin function ef_get_env_blob
	.globl	ef_get_env_blob
	.p2align	3
	.type	ef_get_env_blob,%function
	.code	16                              @ @ef_get_env_blob
	.thumb_func
ef_get_env_blob:
.Lfunc_begin2:
	.loc	2 834 0                         @ packages/EasyFlash-v4.1.0/src/ef_env.c:834:0
	.fnstart
	.cfi_startproc
@ %bb.0:
	@DEBUG_VALUE: ef_get_env_blob:key <- $r0
	@DEBUG_VALUE: ef_get_env_blob:value_buf <- $r1
	@DEBUG_VALUE: ef_get_env_blob:buf_len <- $r2
	@DEBUG_VALUE: ef_get_env_blob:saved_value_len <- $r3
	.save	{r4, r5, r6, r7, lr}
	push	{r4, r5, r6, r7, lr}
	.cfi_def_cfa_offset 20
	.cfi_offset lr, -4
	.cfi_offset r7, -8
	.cfi_offset r6, -12
	.cfi_offset r5, -16
	.cfi_offset r4, -20
	.pad	#4
	sub	sp, #4
	.cfi_def_cfa_offset 24
.Ltmp22:
	.loc	2 837 10 prologue_end           @ packages/EasyFlash-v4.1.0/src/ef_env.c:837:10
	movw	r7, :lower16:init_ok
	movt	r7, :upper16:init_ok
	ldrb	r7, [r7]
.Ltmp23:
	@DEBUG_VALUE: ef_get_env_blob:saved_value_len <- $r3
	@DEBUG_VALUE: ef_get_env_blob:buf_len <- $r2
	@DEBUG_VALUE: ef_get_env_blob:value_buf <- $r1
	@DEBUG_VALUE: ef_get_env_blob:read_len <- 0
	@DEBUG_VALUE: ef_get_env_blob:key <- $r0
	.loc	2 837 9 is_stmt 0               @ packages/EasyFlash-v4.1.0/src/ef_env.c:837:9
	cbz	r7, .LBB2_2
.Ltmp24:
@ %bb.1:
	@DEBUG_VALUE: ef_get_env_blob:saved_value_len <- $r3
	@DEBUG_VALUE: ef_get_env_blob:buf_len <- $r2
	@DEBUG_VALUE: ef_get_env_blob:value_buf <- $r1
	@DEBUG_VALUE: ef_get_env_blob:key <- $r0
	@DEBUG_VALUE: ef_get_env_blob:read_len <- 0
	.loc	2 0 9                           @ packages/EasyFlash-v4.1.0/src/ef_env.c:0:9
	mov	r4, r3
.Ltmp25:
	@DEBUG_VALUE: ef_get_env_blob:saved_value_len <- $r4
	@DEBUG_VALUE: ef_get_env_blob:saved_value_len <- $r4
	mov	r5, r2
.Ltmp26:
	@DEBUG_VALUE: ef_get_env_blob:buf_len <- $r5
	@DEBUG_VALUE: ef_get_env_blob:buf_len <- $r5
	mov	r6, r1
.Ltmp27:
	@DEBUG_VALUE: ef_get_env_blob:value_buf <- $r6
	@DEBUG_VALUE: ef_get_env_blob:value_buf <- $r6
	mov	r7, r0
.Ltmp28:
	@DEBUG_VALUE: ef_get_env_blob:key <- $r7
	@DEBUG_VALUE: ef_get_env_blob:key <- $r7
	.loc	2 843 5 is_stmt 1               @ packages/EasyFlash-v4.1.0/src/ef_env.c:843:5
	bl	ef_port_env_lock
	.loc	2 845 16                        @ packages/EasyFlash-v4.1.0/src/ef_env.c:845:16
	mov	r0, r7
	mov	r1, r6
	mov	r2, r5
	mov	r3, r4
	bl	get_env
	mov	r4, r0
.Ltmp29:
	@DEBUG_VALUE: ef_get_env_blob:saved_value_len <- [DW_OP_LLVM_entry_value 1] $r3
	@DEBUG_VALUE: ef_get_env_blob:read_len <- $r4
	.loc	2 848 5                         @ packages/EasyFlash-v4.1.0/src/ef_env.c:848:5
	bl	ef_port_env_unlock
	b	.LBB2_3
.Ltmp30:
.LBB2_2:
	@DEBUG_VALUE: ef_get_env_blob:saved_value_len <- $r3
	@DEBUG_VALUE: ef_get_env_blob:buf_len <- $r2
	@DEBUG_VALUE: ef_get_env_blob:value_buf <- $r1
	@DEBUG_VALUE: ef_get_env_blob:key <- $r0
	@DEBUG_VALUE: ef_get_env_blob:read_len <- 0
	.loc	2 838 9                         @ packages/EasyFlash-v4.1.0/src/ef_env.c:838:9
	movw	r0, :lower16:.L.str
.Ltmp31:
	@DEBUG_VALUE: ef_get_env_blob:key <- [DW_OP_LLVM_entry_value 1] $r0
	movt	r0, :upper16:.L.str
	bl	ef_log_info
.Ltmp32:
	@DEBUG_VALUE: ef_get_env_blob:saved_value_len <- [DW_OP_LLVM_entry_value 1] $r3
	@DEBUG_VALUE: ef_get_env_blob:buf_len <- [DW_OP_LLVM_entry_value 1] $r2
	@DEBUG_VALUE: ef_get_env_blob:value_buf <- [DW_OP_LLVM_entry_value 1] $r1
	.loc	2 0 9 is_stmt 0                 @ packages/EasyFlash-v4.1.0/src/ef_env.c:0:9
	movs	r4, #0
.Ltmp33:
.LBB2_3:
	.loc	2 851 1 is_stmt 1               @ packages/EasyFlash-v4.1.0/src/ef_env.c:851:1
	mov	r0, r4
	add	sp, #4
	pop	{r4, r5, r6, r7, pc}
.Ltmp34:
.Lfunc_end2:
	.size	ef_get_env_blob, .Lfunc_end2-ef_get_env_blob
	.cfi_endproc
	.cantunwind
	.fnend
                                        @ -- End function
	.section	.text.get_env,"ax",%progbits
	.p2align	3                               @ -- Begin function get_env
	.type	get_env,%function
	.code	16                              @ @get_env
	.thumb_func
get_env:
.Lfunc_begin3:
	.loc	2 774 0                         @ packages/EasyFlash-v4.1.0/src/ef_env.c:774:0
	.fnstart
	.cfi_startproc
@ %bb.0:
	@DEBUG_VALUE: get_env:key <- $r0
	@DEBUG_VALUE: get_env:value_buf <- $r1
	@DEBUG_VALUE: get_env:buf_len <- $r2
	@DEBUG_VALUE: get_env:value_len <- $r3
	.save	{r4, r5, r6, lr}
	push	{r4, r5, r6, lr}
	.cfi_def_cfa_offset 16
	.cfi_offset lr, -4
	.cfi_offset r6, -8
	.cfi_offset r5, -12
	.cfi_offset r4, -16
	.pad	#56
	sub	sp, #56
	.cfi_def_cfa_offset 72
	mov	r5, r1
.Ltmp35:
	@DEBUG_VALUE: get_env:value_buf <- $r5
	@DEBUG_VALUE: get_env:read_len <- 0
	@DEBUG_VALUE: get_env:value_len <- $r6
	@DEBUG_VALUE: get_env:buf_len <- $r4
	@DEBUG_VALUE: get_env:value_buf <- $r5
	@DEBUG_VALUE: get_env:key <- $r0
	mov	r1, sp
	@DEBUG_VALUE: get_env:key <- $r0
	mov	r6, r3
.Ltmp36:
	mov	r4, r2
.Ltmp37:
	.loc	2 778 9 prologue_end            @ packages/EasyFlash-v4.1.0/src/ef_env.c:778:9
	bl	find_env
.Ltmp38:
	@DEBUG_VALUE: get_env:key <- [DW_OP_LLVM_entry_value 1] $r0
	.loc	2 778 9 is_stmt 0               @ packages/EasyFlash-v4.1.0/src/ef_env.c:778:9
	cbz	r0, .LBB3_3
.Ltmp39:
@ %bb.1:
	@DEBUG_VALUE: get_env:value_buf <- $r5
	@DEBUG_VALUE: get_env:key <- [DW_OP_LLVM_entry_value 1] $r0
	@DEBUG_VALUE: get_env:read_len <- 0
	.loc	2 779 13 is_stmt 1              @ packages/EasyFlash-v4.1.0/src/ef_env.c:779:13
	cmp	r6, #0
.Ltmp40:
	.loc	2 780 30                        @ packages/EasyFlash-v4.1.0/src/ef_env.c:780:30
	itt	ne
	ldrne	r0, [sp, #12]
	.loc	2 780 24 is_stmt 0              @ packages/EasyFlash-v4.1.0/src/ef_env.c:780:24
	strne	r0, [r6]
.Ltmp41:
	.loc	2 782 27 is_stmt 1              @ packages/EasyFlash-v4.1.0/src/ef_env.c:782:27
	ldr	r0, [sp, #12]
.Ltmp42:
	.loc	2 782 13 is_stmt 0              @ packages/EasyFlash-v4.1.0/src/ef_env.c:782:13
	cmp	r0, r4
	it	lo
	movlo	r4, r0
.Ltmp43:
	@DEBUG_VALUE: get_env:read_len <- $r4
	.loc	2 787 13 is_stmt 1              @ packages/EasyFlash-v4.1.0/src/ef_env.c:787:13
	cbz	r5, .LBB3_4
.Ltmp44:
@ %bb.2:
	@DEBUG_VALUE: get_env:value_buf <- $r5
	@DEBUG_VALUE: get_env:read_len <- $r4
	@DEBUG_VALUE: get_env:key <- [DW_OP_LLVM_entry_value 1] $r0
	.loc	2 788 35                        @ packages/EasyFlash-v4.1.0/src/ef_env.c:788:35
	ldr	r0, [sp, #52]
	.loc	2 788 13 is_stmt 0              @ packages/EasyFlash-v4.1.0/src/ef_env.c:788:13
	mov	r1, r5
	mov	r2, r4
	bl	ef_port_read
	b	.LBB3_4
.Ltmp45:
.LBB3_3:
	@DEBUG_VALUE: get_env:value_buf <- $r5
	@DEBUG_VALUE: get_env:key <- [DW_OP_LLVM_entry_value 1] $r0
	@DEBUG_VALUE: get_env:read_len <- 0
	.loc	2 0 13                          @ packages/EasyFlash-v4.1.0/src/ef_env.c:0:13
	movs	r4, #0
.Ltmp46:
.LBB3_4:
	@DEBUG_VALUE: get_env:value_buf <- $r5
	@DEBUG_VALUE: get_env:key <- [DW_OP_LLVM_entry_value 1] $r0
	@DEBUG_VALUE: get_env:read_len <- $r4
	.loc	2 792 5 is_stmt 1               @ packages/EasyFlash-v4.1.0/src/ef_env.c:792:5
	mov	r0, r4
	add	sp, #56
	pop	{r4, r5, r6, pc}
.Ltmp47:
.Lfunc_end3:
	.size	get_env, .Lfunc_end3-get_env
	.cfi_endproc
	.cantunwind
	.fnend
                                        @ -- End function
	.section	.text.ef_get_env,"ax",%progbits
	.hidden	ef_get_env                      @ -- Begin function ef_get_env
	.globl	ef_get_env
	.p2align	3
	.type	ef_get_env,%function
	.code	16                              @ @ef_get_env
	.thumb_func
ef_get_env:
.Lfunc_begin4:
	.loc	2 864 0                         @ packages/EasyFlash-v4.1.0/src/ef_env.c:864:0
	.fnstart
	.cfi_startproc
@ %bb.0:
	@DEBUG_VALUE: ef_get_env:key <- $r0
	@DEBUG_VALUE: ef_get_env:key <- $r0
	.save	{r4, r5, r7, lr}
	push	{r4, r5, r7, lr}
	.cfi_def_cfa_offset 16
	.cfi_offset lr, -4
	.cfi_offset r7, -8
	.cfi_offset r5, -12
	.cfi_offset r4, -16
.Ltmp48:
	.loc	2 868 21 prologue_end           @ packages/EasyFlash-v4.1.0/src/ef_env.c:868:21
	movw	r1, :lower16:ef_get_env.value
	movs	r2, #128
	movt	r1, :upper16:ef_get_env.value
	movs	r3, #0
	movs	r4, #0
	@DEBUG_VALUE: ef_get_env:key <- $r0
	bl	ef_get_env_blob
.Ltmp49:
	@DEBUG_VALUE: ef_get_env:key <- [DW_OP_LLVM_entry_value 1] $r0
	@DEBUG_VALUE: ef_get_env:get_size <- $r0
	.loc	2 868 9 is_stmt 0               @ packages/EasyFlash-v4.1.0/src/ef_env.c:868:9
	cbz	r0, .LBB4_4
.Ltmp50:
@ %bb.1:
	@DEBUG_VALUE: ef_get_env:get_size <- $r0
	@DEBUG_VALUE: ef_get_env:key <- [DW_OP_LLVM_entry_value 1] $r0
	.loc	2 870 13 is_stmt 1              @ packages/EasyFlash-v4.1.0/src/ef_env.c:870:13
	movw	r4, :lower16:ef_get_env.value
.Ltmp51:
	.loc	2 0 0 is_stmt 0                 @ packages/EasyFlash-v4.1.0/src/ef_env.c:0:0
	mov	r5, r0
.Ltmp52:
	@DEBUG_VALUE: ef_get_env:get_size <- $r5
	@DEBUG_VALUE: ef_get_env:get_size <- $r5
	.loc	2 870 13                        @ packages/EasyFlash-v4.1.0/src/ef_env.c:870:13
	movt	r4, :upper16:ef_get_env.value
	mov	r1, r5
	mov	r0, r4
	bl	ef_is_str
.Ltmp53:
	.loc	2 870 13                        @ packages/EasyFlash-v4.1.0/src/ef_env.c:870:13
	cbz	r0, .LBB4_3
.Ltmp54:
@ %bb.2:
	@DEBUG_VALUE: ef_get_env:get_size <- $r5
	@DEBUG_VALUE: ef_get_env:key <- [DW_OP_LLVM_entry_value 1] $r0
	.loc	2 0 13                          @ packages/EasyFlash-v4.1.0/src/ef_env.c:0:13
	movs	r0, #0
.Ltmp55:
	.loc	2 871 29 is_stmt 1              @ packages/EasyFlash-v4.1.0/src/ef_env.c:871:29
	strb	r0, [r4, r5]
.Ltmp56:
	.loc	2 880 1                         @ packages/EasyFlash-v4.1.0/src/ef_env.c:880:1
	mov	r0, r4
	pop	{r4, r5, r7, pc}
.Ltmp57:
.LBB4_3:
	@DEBUG_VALUE: ef_get_env:get_size <- $r5
	@DEBUG_VALUE: ef_get_env:key <- [DW_OP_LLVM_entry_value 1] $r0
	.loc	2 874 13                        @ packages/EasyFlash-v4.1.0/src/ef_env.c:874:13
	adr	r0, .LCPI4_0
	bl	ef_log_info
	movs	r4, #0
.Ltmp58:
.LBB4_4:
	@DEBUG_VALUE: ef_get_env:key <- [DW_OP_LLVM_entry_value 1] $r0
	.loc	2 880 1                         @ packages/EasyFlash-v4.1.0/src/ef_env.c:880:1
	mov	r0, r4
	pop	{r4, r5, r7, pc}
.Ltmp59:
	.p2align	2
@ %bb.5:
	.loc	2 0 1 is_stmt 0                 @ packages/EasyFlash-v4.1.0/src/ef_env.c:0:1
.LCPI4_0:
.L.str.1:
	.asciz	"Warning: The ENV value isn't string. Could not be returned\n"
.Lfunc_end4:
	.size	ef_get_env, .Lfunc_end4-ef_get_env
	.cfi_endproc
	.cantunwind
	.fnend
                                        @ -- End function
	.section	.text.ef_is_str,"ax",%progbits
	.p2align	3                               @ -- Begin function ef_is_str
	.type	ef_is_str,%function
	.code	16                              @ @ef_is_str
	.thumb_func
ef_is_str:
.Lfunc_begin5:
	.loc	2 761 0 is_stmt 1               @ packages/EasyFlash-v4.1.0/src/ef_env.c:761:0
	.fnstart
	.cfi_startproc
@ %bb.0:
	@DEBUG_VALUE: ef_is_str:value <- $r0
	@DEBUG_VALUE: ef_is_str:len <- $r1
	@DEBUG_VALUE: ef_is_str:len <- $r1
	.loc	2 765 19 prologue_end           @ packages/EasyFlash-v4.1.0/src/ef_env.c:765:19
	cmp	r1, #0
.Ltmp60:
	@DEBUG_VALUE: ef_is_str:i <- 0
	@DEBUG_VALUE: ef_is_str:value <- $r0
	mov	r12, r1
	it	ne
	movne.w	r12, #1
.Ltmp61:
	.loc	2 765 5 is_stmt 0               @ packages/EasyFlash-v4.1.0/src/ef_env.c:765:5
	beq	.LBB5_5
.Ltmp62:
@ %bb.1:
	@DEBUG_VALUE: ef_is_str:len <- $r1
	@DEBUG_VALUE: ef_is_str:value <- $r0
	@DEBUG_VALUE: ef_is_str:i <- 0
	@DEBUG_VALUE: ef_is_str:i <- 0
	.loc	2 766 14 is_stmt 1              @ packages/EasyFlash-v4.1.0/src/ef_env.c:766:14
	ldrb	r3, [r0]
	subs	r3, #32
.Ltmp63:
	@DEBUG_VALUE: ef_is_str:i <- 1
	.loc	2 766 13 is_stmt 0              @ packages/EasyFlash-v4.1.0/src/ef_env.c:766:13
	cmp	r3, #94
	bhi	.LBB5_5
.Ltmp64:
@ %bb.2:
	@DEBUG_VALUE: ef_is_str:len <- $r1
	@DEBUG_VALUE: ef_is_str:value <- $r0
	@DEBUG_VALUE: ef_is_str:i <- 1
	.loc	2 0 13                          @ packages/EasyFlash-v4.1.0/src/ef_env.c:0:13
	movs	r3, #1
.Ltmp65:
	.p2align	2
.LBB5_3:                                @ =>This Inner Loop Header: Depth=1
	@DEBUG_VALUE: ef_is_str:len <- $r1
	@DEBUG_VALUE: ef_is_str:value <- $r0
	@DEBUG_VALUE: ef_is_str:i <- $r3
	.loc	2 765 19 is_stmt 1              @ packages/EasyFlash-v4.1.0/src/ef_env.c:765:19
	mov.w	r12, #0
	cmp	r3, r1
	it	lo
	movlo.w	r12, #1
.Ltmp66:
	.loc	2 765 5 is_stmt 0               @ packages/EasyFlash-v4.1.0/src/ef_env.c:765:5
	cmp	r1, r3
	beq	.LBB5_5
.Ltmp67:
@ %bb.4:                                @   in Loop: Header=BB5_3 Depth=1
	@DEBUG_VALUE: ef_is_str:i <- $r3
	@DEBUG_VALUE: ef_is_str:len <- $r1
	@DEBUG_VALUE: ef_is_str:value <- $r0
	@DEBUG_VALUE: ef_is_str:i <- $r3
	.loc	2 766 14 is_stmt 1              @ packages/EasyFlash-v4.1.0/src/ef_env.c:766:14
	ldrb	r2, [r0, r3]
.Ltmp68:
	.loc	2 765 27                        @ packages/EasyFlash-v4.1.0/src/ef_env.c:765:27
	adds	r3, #1
.Ltmp69:
	@DEBUG_VALUE: ef_is_str:i <- $r3
	.loc	2 766 14                        @ packages/EasyFlash-v4.1.0/src/ef_env.c:766:14
	subs	r2, #32
.Ltmp70:
	.loc	2 766 13 is_stmt 0              @ packages/EasyFlash-v4.1.0/src/ef_env.c:766:13
	cmp	r2, #95
	blo	.LBB5_3
.Ltmp71:
.LBB5_5:
	@DEBUG_VALUE: ef_is_str:len <- $r1
	@DEBUG_VALUE: ef_is_str:value <- $r0
	.loc	2 771 1 is_stmt 1               @ packages/EasyFlash-v4.1.0/src/ef_env.c:771:1
	eor	r0, r12, #1
.Ltmp72:
	@DEBUG_VALUE: ef_is_str:value <- [DW_OP_LLVM_entry_value 1] $r0
	bx	lr
.Ltmp73:
.Lfunc_end5:
	.size	ef_is_str, .Lfunc_end5-ef_is_str
	.cfi_endproc
	.cantunwind
	.fnend
                                        @ -- End function
	.section	.text.ef_read_env_value,"ax",%progbits
	.hidden	ef_read_env_value               @ -- Begin function ef_read_env_value
	.globl	ef_read_env_value
	.p2align	3
	.type	ef_read_env_value,%function
	.code	16                              @ @ef_read_env_value
	.thumb_func
ef_read_env_value:
.Lfunc_begin6:
	.loc	2 892 0                         @ packages/EasyFlash-v4.1.0/src/ef_env.c:892:0
	.fnstart
	.cfi_startproc
@ %bb.0:
	@DEBUG_VALUE: ef_read_env_value:env <- $r0
	@DEBUG_VALUE: ef_read_env_value:value_buf <- $r1
	@DEBUG_VALUE: ef_read_env_value:buf_len <- $r2
	@DEBUG_VALUE: ef_read_env_value:env <- $r0
	.save	{r4, r5, r6, lr}
	push	{r4, r5, r6, lr}
	.cfi_def_cfa_offset 16
	.cfi_offset lr, -4
	.cfi_offset r6, -8
	.cfi_offset r5, -12
	.cfi_offset r4, -16
	.pad	#8
	sub	sp, #8
	.cfi_def_cfa_offset 24
.Ltmp74:
	@DEBUG_VALUE: ef_read_env_value:read_len <- 0
	@DEBUG_VALUE: ef_read_env_value:buf_len <- $r2
	@DEBUG_VALUE: ef_read_env_value:value_buf <- $r1
	.loc	2 895 5 prologue_end            @ packages/EasyFlash-v4.1.0/src/ef_env.c:895:5
	cbz	r0, .LBB6_5
.Ltmp75:
@ %bb.1:
	@DEBUG_VALUE: ef_read_env_value:buf_len <- $r2
	@DEBUG_VALUE: ef_read_env_value:value_buf <- $r1
	@DEBUG_VALUE: ef_read_env_value:env <- $r0
	@DEBUG_VALUE: ef_read_env_value:read_len <- 0
	@DEBUG_VALUE: ef_read_env_value:env <- $r0
	@DEBUG_VALUE: ef_read_env_value:buf_len <- $r2
	.loc	2 0 5 is_stmt 0                 @ packages/EasyFlash-v4.1.0/src/ef_env.c:0:5
	mov	r5, r1
.Ltmp76:
	@DEBUG_VALUE: ef_read_env_value:value_buf <- $r5
	.loc	2 896 5 is_stmt 1               @ packages/EasyFlash-v4.1.0/src/ef_env.c:896:5
	cbz	r1, .LBB6_7
.Ltmp77:
@ %bb.2:
	@DEBUG_VALUE: ef_read_env_value:value_buf <- $r5
	@DEBUG_VALUE: ef_read_env_value:buf_len <- $r2
	@DEBUG_VALUE: ef_read_env_value:env <- $r0
	@DEBUG_VALUE: ef_read_env_value:read_len <- 0
	.loc	2 0 5 is_stmt 0                 @ packages/EasyFlash-v4.1.0/src/ef_env.c:0:5
	mov	r6, r0
.Ltmp78:
	@DEBUG_VALUE: ef_read_env_value:env <- $r6
	@DEBUG_VALUE: ef_read_env_value:env <- $r6
	@DEBUG_VALUE: ef_read_env_value:buf_len <- $r2
	.loc	2 898 10 is_stmt 1              @ packages/EasyFlash-v4.1.0/src/ef_env.c:898:10
	movw	r0, :lower16:init_ok
	movt	r0, :upper16:init_ok
	ldrb	r0, [r0]
.Ltmp79:
	.loc	2 898 9 is_stmt 0               @ packages/EasyFlash-v4.1.0/src/ef_env.c:898:9
	cbz	r0, .LBB6_9
.Ltmp80:
@ %bb.3:
	@DEBUG_VALUE: ef_read_env_value:env <- $r6
	@DEBUG_VALUE: ef_read_env_value:value_buf <- $r5
	@DEBUG_VALUE: ef_read_env_value:buf_len <- $r2
	@DEBUG_VALUE: ef_read_env_value:read_len <- 0
	@DEBUG_VALUE: ef_read_env_value:buf_len <- $r2
	.loc	2 903 14 is_stmt 1              @ packages/EasyFlash-v4.1.0/src/ef_env.c:903:14
	ldrb	r0, [r6, #1]
.Ltmp81:
	.loc	2 903 9 is_stmt 0               @ packages/EasyFlash-v4.1.0/src/ef_env.c:903:9
	cmp	r0, #0
	beq	.LBB6_10
.Ltmp82:
@ %bb.4:
	@DEBUG_VALUE: ef_read_env_value:env <- $r6
	@DEBUG_VALUE: ef_read_env_value:value_buf <- $r5
	@DEBUG_VALUE: ef_read_env_value:buf_len <- $r2
	@DEBUG_VALUE: ef_read_env_value:read_len <- 0
	.loc	2 0 9                           @ packages/EasyFlash-v4.1.0/src/ef_env.c:0:9
	mov	r4, r2
.Ltmp83:
	@DEBUG_VALUE: ef_read_env_value:buf_len <- $r4
	@DEBUG_VALUE: ef_read_env_value:buf_len <- $r4
	.loc	2 905 9 is_stmt 1               @ packages/EasyFlash-v4.1.0/src/ef_env.c:905:9
	bl	ef_port_env_lock
.Ltmp84:
	.loc	2 907 28                        @ packages/EasyFlash-v4.1.0/src/ef_env.c:907:28
	ldr	r1, [r6, #12]
.Ltmp85:
	.loc	2 907 13 is_stmt 0              @ packages/EasyFlash-v4.1.0/src/ef_env.c:907:13
	cmp	r1, r4
	.loc	2 913 32 is_stmt 1              @ packages/EasyFlash-v4.1.0/src/ef_env.c:913:32
	ldr	r0, [r6, #52]
	.loc	2 907 13                        @ packages/EasyFlash-v4.1.0/src/ef_env.c:907:13
	it	lo
	movlo	r4, r1
.Ltmp86:
	@DEBUG_VALUE: ef_read_env_value:buf_len <- [DW_OP_LLVM_entry_value 1] $r2
	@DEBUG_VALUE: ef_read_env_value:read_len <- $r4
	.loc	2 913 9                         @ packages/EasyFlash-v4.1.0/src/ef_env.c:913:9
	mov	r1, r5
	mov	r2, r4
	bl	ef_port_read
	.loc	2 915 9                         @ packages/EasyFlash-v4.1.0/src/ef_env.c:915:9
	bl	ef_port_env_unlock
	b	.LBB6_11
.Ltmp87:
.LBB6_5:
	@DEBUG_VALUE: ef_read_env_value:buf_len <- $r2
	@DEBUG_VALUE: ef_read_env_value:value_buf <- $r1
	@DEBUG_VALUE: ef_read_env_value:env <- $r0
	@DEBUG_VALUE: ef_read_env_value:read_len <- 0
	.loc	2 895 5                         @ packages/EasyFlash-v4.1.0/src/ef_env.c:895:5
	movw	r0, :lower16:.L.str.2
.Ltmp88:
	@DEBUG_VALUE: ef_read_env_value:env <- [DW_OP_LLVM_entry_value 1] $r0
	movw	r2, :lower16:.L.str.3
.Ltmp89:
	@DEBUG_VALUE: ef_read_env_value:buf_len <- [DW_OP_LLVM_entry_value 1] $r2
	movw	r6, :lower16:.L__FUNCTION__.ef_read_env_value
	movt	r0, :upper16:.L.str.2
	movt	r2, :upper16:.L.str.3
	adr	r3, .LCPI6_1
	movw	r1, #895
.Ltmp90:
	@DEBUG_VALUE: ef_read_env_value:value_buf <- [DW_OP_LLVM_entry_value 1] $r1
	movt	r6, :upper16:.L__FUNCTION__.ef_read_env_value
	str	r6, [sp]
	bl	ef_log_debug
.Ltmp91:
	.p2align	2
.LBB6_6:                                @ =>This Inner Loop Header: Depth=1
	@DEBUG_VALUE: ef_read_env_value:value_buf <- [DW_OP_LLVM_entry_value 1] $r1
	@DEBUG_VALUE: ef_read_env_value:env <- [DW_OP_LLVM_entry_value 1] $r0
	@DEBUG_VALUE: ef_read_env_value:buf_len <- [DW_OP_LLVM_entry_value 1] $r2
	@DEBUG_VALUE: ef_read_env_value:read_len <- 0
	b	.LBB6_6
.Ltmp92:
.LBB6_7:
	@DEBUG_VALUE: ef_read_env_value:value_buf <- $r5
	@DEBUG_VALUE: ef_read_env_value:buf_len <- $r2
	@DEBUG_VALUE: ef_read_env_value:env <- $r0
	@DEBUG_VALUE: ef_read_env_value:read_len <- 0
	.loc	2 896 5                         @ packages/EasyFlash-v4.1.0/src/ef_env.c:896:5
	movw	r0, :lower16:.L.str.2
.Ltmp93:
	@DEBUG_VALUE: ef_read_env_value:env <- [DW_OP_LLVM_entry_value 1] $r0
	movw	r2, :lower16:.L.str.3
.Ltmp94:
	@DEBUG_VALUE: ef_read_env_value:buf_len <- [DW_OP_LLVM_entry_value 1] $r2
	movw	r6, :lower16:.L__FUNCTION__.ef_read_env_value
	movt	r0, :upper16:.L.str.2
	movt	r2, :upper16:.L.str.3
	adr	r3, .LCPI6_0
	mov.w	r1, #896
	movt	r6, :upper16:.L__FUNCTION__.ef_read_env_value
	str	r6, [sp]
	bl	ef_log_debug
.Ltmp95:
	.p2align	2
.LBB6_8:                                @ =>This Inner Loop Header: Depth=1
	@DEBUG_VALUE: ef_read_env_value:value_buf <- $r5
	@DEBUG_VALUE: ef_read_env_value:env <- [DW_OP_LLVM_entry_value 1] $r0
	@DEBUG_VALUE: ef_read_env_value:buf_len <- [DW_OP_LLVM_entry_value 1] $r2
	@DEBUG_VALUE: ef_read_env_value:read_len <- 0
	b	.LBB6_8
.Ltmp96:
.LBB6_9:
	@DEBUG_VALUE: ef_read_env_value:env <- $r6
	@DEBUG_VALUE: ef_read_env_value:value_buf <- $r5
	@DEBUG_VALUE: ef_read_env_value:buf_len <- $r2
	@DEBUG_VALUE: ef_read_env_value:read_len <- 0
	.loc	2 899 9                         @ packages/EasyFlash-v4.1.0/src/ef_env.c:899:9
	movw	r0, :lower16:.L.str
	movt	r0, :upper16:.L.str
	bl	ef_log_info
.Ltmp97:
	@DEBUG_VALUE: ef_read_env_value:buf_len <- [DW_OP_LLVM_entry_value 1] $r2
	.loc	2 0 9 is_stmt 0                 @ packages/EasyFlash-v4.1.0/src/ef_env.c:0:9
	movs	r4, #0
	.loc	2 900 9 is_stmt 1               @ packages/EasyFlash-v4.1.0/src/ef_env.c:900:9
	b	.LBB6_11
.Ltmp98:
.LBB6_10:
	@DEBUG_VALUE: ef_read_env_value:env <- $r6
	@DEBUG_VALUE: ef_read_env_value:value_buf <- $r5
	@DEBUG_VALUE: ef_read_env_value:buf_len <- $r2
	@DEBUG_VALUE: ef_read_env_value:read_len <- 0
	.loc	2 0 9 is_stmt 0                 @ packages/EasyFlash-v4.1.0/src/ef_env.c:0:9
	movs	r4, #0
.Ltmp99:
.LBB6_11:
	@DEBUG_VALUE: ef_read_env_value:env <- $r6
	@DEBUG_VALUE: ef_read_env_value:value_buf <- $r5
	.loc	2 919 1 is_stmt 1               @ packages/EasyFlash-v4.1.0/src/ef_env.c:919:1
	mov	r0, r4
	add	sp, #8
	pop	{r4, r5, r6, pc}
.Ltmp100:
	.p2align	2
@ %bb.12:
	.loc	2 0 1 is_stmt 0                 @ packages/EasyFlash-v4.1.0/src/ef_env.c:0:1
.LCPI6_0:
.L.str.5:
	.asciz	"value_buf\000\000"
.LCPI6_1:
.L.str.4:
	.asciz	"env"
.Lfunc_end6:
	.size	ef_read_env_value, .Lfunc_end6-ef_read_env_value
	.cfi_endproc
	.cantunwind
	.fnend
                                        @ -- End function
	.section	.text.ef_del_env,"ax",%progbits
	.hidden	ef_del_env                      @ -- Begin function ef_del_env
	.globl	ef_del_env
	.p2align	3
	.type	ef_del_env,%function
	.code	16                              @ @ef_del_env
	.thumb_func
ef_del_env:
.Lfunc_begin7:
	.loc	2 1386 0 is_stmt 1              @ packages/EasyFlash-v4.1.0/src/ef_env.c:1386:0
	.fnstart
	.cfi_startproc
@ %bb.0:
	@DEBUG_VALUE: ef_del_env:key <- $r0
	.save	{r4, lr}
	push	{r4, lr}
	.cfi_def_cfa_offset 8
	.cfi_offset lr, -4
	.cfi_offset r4, -8
.Ltmp101:
	.loc	2 1389 10 prologue_end          @ packages/EasyFlash-v4.1.0/src/ef_env.c:1389:10
	movw	r1, :lower16:init_ok
	movt	r1, :upper16:init_ok
	ldrb	r1, [r1]
.Ltmp102:
	@DEBUG_VALUE: ef_del_env:result <- 0
	@DEBUG_VALUE: ef_del_env:key <- $r0
	.loc	2 1389 9 is_stmt 0              @ packages/EasyFlash-v4.1.0/src/ef_env.c:1389:9
	cbz	r1, .LBB7_2
.Ltmp103:
@ %bb.1:
	@DEBUG_VALUE: ef_del_env:key <- $r0
	@DEBUG_VALUE: ef_del_env:result <- 0
	.loc	2 0 9                           @ packages/EasyFlash-v4.1.0/src/ef_env.c:0:9
	mov	r4, r0
.Ltmp104:
	@DEBUG_VALUE: ef_del_env:key <- $r4
	@DEBUG_VALUE: ef_del_env:key <- $r4
	.loc	2 1395 5 is_stmt 1              @ packages/EasyFlash-v4.1.0/src/ef_env.c:1395:5
	bl	ef_port_env_lock
	.loc	2 1397 14                       @ packages/EasyFlash-v4.1.0/src/ef_env.c:1397:14
	movs	r1, #0
	movs	r2, #1
	mov	r0, r4
	bl	del_env
	mov	r4, r0
.Ltmp105:
	@DEBUG_VALUE: ef_del_env:key <- [DW_OP_LLVM_entry_value 1] $r0
	@DEBUG_VALUE: ef_del_env:result <- undef
	.loc	2 1400 5                        @ packages/EasyFlash-v4.1.0/src/ef_env.c:1400:5
	bl	ef_port_env_unlock
	.loc	2 1403 1                        @ packages/EasyFlash-v4.1.0/src/ef_env.c:1403:1
	mov	r0, r4
	pop	{r4, pc}
.Ltmp106:
.LBB7_2:
	@DEBUG_VALUE: ef_del_env:key <- $r0
	@DEBUG_VALUE: ef_del_env:result <- 0
	.loc	2 1390 9                        @ packages/EasyFlash-v4.1.0/src/ef_env.c:1390:9
	adr	r0, .LCPI7_0
.Ltmp107:
	@DEBUG_VALUE: ef_del_env:key <- [DW_OP_LLVM_entry_value 1] $r0
	bl	ef_log_info
	movs	r0, #7
.Ltmp108:
	.loc	2 1403 1                        @ packages/EasyFlash-v4.1.0/src/ef_env.c:1403:1
	pop	{r4, pc}
.Ltmp109:
	.p2align	2
@ %bb.3:
	.loc	2 0 1 is_stmt 0                 @ packages/EasyFlash-v4.1.0/src/ef_env.c:0:1
.LCPI7_0:
.L.str.6:
	.asciz	"Error: ENV isn't initialize OK.\n\000\000\000"
.Lfunc_end7:
	.size	ef_del_env, .Lfunc_end7-ef_del_env
	.cfi_endproc
	.cantunwind
	.fnend
                                        @ -- End function
	.section	.text.del_env,"ax",%progbits
	.p2align	3                               @ -- Begin function del_env
	.type	del_env,%function
	.code	16                              @ @del_env
	.thumb_func
del_env:
.Lfunc_begin8:
	.loc	2 1067 0 is_stmt 1              @ packages/EasyFlash-v4.1.0/src/ef_env.c:1067:0
	.fnstart
	.cfi_startproc
@ %bb.0:
	@DEBUG_VALUE: del_env:key <- $r0
	@DEBUG_VALUE: del_env:old_env <- $r1
	@DEBUG_VALUE: del_env:complete_del <- [DW_OP_LLVM_convert 1 7, DW_OP_LLVM_convert 8 7, DW_OP_stack_value] $r2
	.save	{r4, r5, r6, r7, r8, lr}
	push.w	{r4, r5, r6, r7, r8, lr}
	.cfi_def_cfa_offset 24
	.cfi_offset lr, -4
	.cfi_offset r8, -8
	.cfi_offset r7, -12
	.cfi_offset r6, -16
	.cfi_offset r5, -20
	.cfi_offset r4, -24
	.pad	#56
	sub	sp, #56
	.cfi_def_cfa_offset 80
	mov	r5, r1
.Ltmp110:
	@DEBUG_VALUE: del_env:old_env <- $r5
	mov	r4, r2
.Ltmp111:
	@DEBUG_VALUE: del_env:complete_del <- [DW_OP_LLVM_convert 1 7, DW_OP_LLVM_convert 8 7, DW_OP_stack_value] $r4
	@DEBUG_VALUE: del_env:complete_del <- [DW_OP_LLVM_convert 1 7, DW_OP_LLVM_convert 8 7, DW_OP_stack_value] $r4
	mov	r7, r0
.Ltmp112:
	@DEBUG_VALUE: del_env:key <- $r7
	@DEBUG_VALUE: del_env:result <- 0
	@DEBUG_VALUE: del_env:key <- $r7
	.loc	2 1079 9 prologue_end           @ packages/EasyFlash-v4.1.0/src/ef_env.c:1079:9
	cbnz	r1, .LBB8_4
.Ltmp113:
@ %bb.1:
	@DEBUG_VALUE: del_env:key <- $r7
	@DEBUG_VALUE: del_env:old_env <- $r5
	@DEBUG_VALUE: del_env:complete_del <- [DW_OP_LLVM_convert 1 7, DW_OP_LLVM_convert 8 7, DW_OP_stack_value] $r4
	@DEBUG_VALUE: del_env:result <- 0
	.loc	2 0 9 is_stmt 0                 @ packages/EasyFlash-v4.1.0/src/ef_env.c:0:9
	mov	r5, sp
.Ltmp114:
	@DEBUG_VALUE: del_env:old_env <- [DW_OP_LLVM_entry_value 1] $r1
	.loc	2 1082 13 is_stmt 1             @ packages/EasyFlash-v4.1.0/src/ef_env.c:1082:13
	mov	r0, r7
	mov	r1, r5
	bl	find_env
	mov	r6, r0
.Ltmp115:
	.loc	2 1082 13 is_stmt 0             @ packages/EasyFlash-v4.1.0/src/ef_env.c:1082:13
	cbnz	r0, .LBB8_3
.Ltmp116:
@ %bb.2:
	@DEBUG_VALUE: del_env:key <- $r7
	@DEBUG_VALUE: del_env:complete_del <- [DW_OP_LLVM_convert 1 7, DW_OP_LLVM_convert 8 7, DW_OP_stack_value] $r4
	@DEBUG_VALUE: del_env:old_env <- [DW_OP_LLVM_entry_value 1] $r1
	@DEBUG_VALUE: del_env:result <- 0
	.loc	2 1085 13 is_stmt 1             @ packages/EasyFlash-v4.1.0/src/ef_env.c:1085:13
	movw	r0, :lower16:.L.str.2
	adr	r2, .LCPI8_0
	movt	r0, :upper16:.L.str.2
	movw	r1, #1085
	mov	r3, r7
	bl	ef_log_debug
	movs	r5, #0
.Ltmp117:
.LBB8_3:
	@DEBUG_VALUE: del_env:key <- $r7
	@DEBUG_VALUE: del_env:complete_del <- [DW_OP_LLVM_convert 1 7, DW_OP_LLVM_convert 8 7, DW_OP_stack_value] $r4
	@DEBUG_VALUE: del_env:old_env <- [DW_OP_LLVM_entry_value 1] $r1
	@DEBUG_VALUE: del_env:result <- 0
	@DEBUG_VALUE: del_env:old_env <- $r5
	.loc	2 0 13 is_stmt 0                @ packages/EasyFlash-v4.1.0/src/ef_env.c:0:13
	cbz	r6, .LBB8_9
.Ltmp118:
.LBB8_4:
	@DEBUG_VALUE: del_env:key <- $r7
	@DEBUG_VALUE: del_env:old_env <- $r5
	@DEBUG_VALUE: del_env:complete_del <- [DW_OP_LLVM_convert 1 7, DW_OP_LLVM_convert 8 7, DW_OP_stack_value] $r4
	@DEBUG_VALUE: del_env:result <- 0
	@DEBUG_VALUE: del_env:old_env <- $r5
	movw	r8, :lower16:del_env.last_is_complete_del
.Ltmp119:
	ldr	r0, [r5, #48]
	movt	r8, :upper16:del_env.last_is_complete_del
	mov	r1, sp
.Ltmp120:
	.loc	2 1094 18 is_stmt 1             @ packages/EasyFlash-v4.1.0/src/ef_env.c:1094:18
	mov.w	r2, #6
.Ltmp121:
	.loc	2 1090 9                        @ packages/EasyFlash-v4.1.0/src/ef_env.c:1090:9
	cbz	r4, .LBB8_8
.Ltmp122:
@ %bb.5:
	@DEBUG_VALUE: del_env:key <- $r7
	@DEBUG_VALUE: del_env:old_env <- $r5
	@DEBUG_VALUE: del_env:complete_del <- [DW_OP_LLVM_convert 1 7, DW_OP_LLVM_convert 8 7, DW_OP_stack_value] $r4
	@DEBUG_VALUE: del_env:result <- 0
	.loc	2 1094 18                       @ packages/EasyFlash-v4.1.0/src/ef_env.c:1094:18
	movs	r3, #4
	bl	write_status
.Ltmp123:
	.loc	2 1096 14                       @ packages/EasyFlash-v4.1.0/src/ef_env.c:1096:14
	ldrb.w	r1, [r8]
.Ltmp124:
	.loc	2 1094 18                       @ packages/EasyFlash-v4.1.0/src/ef_env.c:1094:18
	mov	r6, r0
.Ltmp125:
	@DEBUG_VALUE: del_env:result <- undef
	.loc	2 1096 35                       @ packages/EasyFlash-v4.1.0/src/ef_env.c:1096:35
	cmp	r1, #0
	it	eq
	cmpeq	r6, #0
	bne	.LBB8_13
.Ltmp126:
@ %bb.6:
	@DEBUG_VALUE: del_env:key <- $r7
	@DEBUG_VALUE: del_env:old_env <- $r5
	@DEBUG_VALUE: del_env:complete_del <- [DW_OP_LLVM_convert 1 7, DW_OP_LLVM_convert 8 7, DW_OP_stack_value] $r4
	.loc	2 1099 17                       @ packages/EasyFlash-v4.1.0/src/ef_env.c:1099:17
	cbz	r7, .LBB8_10
.Ltmp127:
@ %bb.7:
	@DEBUG_VALUE: del_env:key <- $r7
	@DEBUG_VALUE: del_env:old_env <- $r5
	@DEBUG_VALUE: del_env:complete_del <- [DW_OP_LLVM_convert 1 7, DW_OP_LLVM_convert 8 7, DW_OP_stack_value] $r4
	.loc	2 1101 39                       @ packages/EasyFlash-v4.1.0/src/ef_env.c:1101:39
	mov	r0, r7
	bl	strlen
	mov	r1, r0
	.loc	2 1101 17 is_stmt 0             @ packages/EasyFlash-v4.1.0/src/ef_env.c:1101:17
	mov.w	r2, #-1
	mov	r0, r7
	b	.LBB8_12
.Ltmp128:
.LBB8_8:
	@DEBUG_VALUE: del_env:key <- $r7
	@DEBUG_VALUE: del_env:old_env <- $r5
	@DEBUG_VALUE: del_env:complete_del <- [DW_OP_LLVM_convert 1 7, DW_OP_LLVM_convert 8 7, DW_OP_stack_value] $r4
	@DEBUG_VALUE: del_env:result <- 0
	.loc	2 1091 18 is_stmt 1             @ packages/EasyFlash-v4.1.0/src/ef_env.c:1091:18
	movs	r3, #3
	bl	write_status
	mov	r6, r0
.Ltmp129:
	@DEBUG_VALUE: del_env:result <- undef
	.loc	2 0 18 is_stmt 0                @ packages/EasyFlash-v4.1.0/src/ef_env.c:0:18
	b	.LBB8_13
.Ltmp130:
.LBB8_9:
	@DEBUG_VALUE: del_env:key <- $r7
	@DEBUG_VALUE: del_env:old_env <- $r5
	@DEBUG_VALUE: del_env:complete_del <- [DW_OP_LLVM_convert 1 7, DW_OP_LLVM_convert 8 7, DW_OP_stack_value] $r4
	@DEBUG_VALUE: del_env:result <- 0
	movs	r6, #4
	b	.LBB8_16
.Ltmp131:
.LBB8_10:
	@DEBUG_VALUE: del_env:key <- $r7
	@DEBUG_VALUE: del_env:old_env <- $r5
	@DEBUG_VALUE: del_env:complete_del <- [DW_OP_LLVM_convert 1 7, DW_OP_LLVM_convert 8 7, DW_OP_stack_value] $r4
	.loc	2 1102 24 is_stmt 1             @ packages/EasyFlash-v4.1.0/src/ef_env.c:1102:24
	cbz	r5, .LBB8_13
.Ltmp132:
@ %bb.11:
	@DEBUG_VALUE: del_env:key <- $r7
	@DEBUG_VALUE: del_env:old_env <- $r5
	@DEBUG_VALUE: del_env:complete_del <- [DW_OP_LLVM_convert 1 7, DW_OP_LLVM_convert 8 7, DW_OP_stack_value] $r4
	.loc	2 1104 58                       @ packages/EasyFlash-v4.1.0/src/ef_env.c:1104:58
	ldrb	r1, [r5, #2]
	.loc	2 1104 34 is_stmt 0             @ packages/EasyFlash-v4.1.0/src/ef_env.c:1104:34
	add.w	r0, r5, #16
	.loc	2 1104 17                       @ packages/EasyFlash-v4.1.0/src/ef_env.c:1104:17
	mov.w	r2, #-1
.Ltmp133:
.LBB8_12:
	@DEBUG_VALUE: del_env:key <- $r7
	@DEBUG_VALUE: del_env:old_env <- $r5
	@DEBUG_VALUE: del_env:complete_del <- [DW_OP_LLVM_convert 1 7, DW_OP_LLVM_convert 8 7, DW_OP_stack_value] $r4
	.loc	2 0 0                           @ packages/EasyFlash-v4.1.0/src/ef_env.c:0:0
	bl	update_env_cache
.Ltmp134:
.LBB8_13:
	@DEBUG_VALUE: del_env:key <- $r7
	@DEBUG_VALUE: del_env:old_env <- $r5
	@DEBUG_VALUE: del_env:complete_del <- [DW_OP_LLVM_convert 1 7, DW_OP_LLVM_convert 8 7, DW_OP_stack_value] $r4
	eor	r0, r4, #1
	strb.w	r0, [r8]
.Ltmp135:
	@DEBUG_VALUE: del_env:dirty_status_addr <- undef
	@DEBUG_VALUE: del_env:result <- $r6
	.loc	2 1115 13 is_stmt 1             @ packages/EasyFlash-v4.1.0/src/ef_env.c:1115:13
	cbnz	r6, .LBB8_16
.Ltmp136:
@ %bb.14:
	@DEBUG_VALUE: del_env:key <- $r7
	@DEBUG_VALUE: del_env:result <- $r6
	@DEBUG_VALUE: del_env:old_env <- $r5
	@DEBUG_VALUE: del_env:complete_del <- [DW_OP_LLVM_convert 1 7, DW_OP_LLVM_convert 8 7, DW_OP_stack_value] $r4
	.loc	2 0 13 is_stmt 0                @ packages/EasyFlash-v4.1.0/src/ef_env.c:0:13
	ldr	r4, [r5, #48]
.Ltmp137:
	movs	r0, #1
	bfi	r4, r0, #0, #12
.Ltmp138:
	@DEBUG_VALUE: del_env:dirty_status_addr <- $r4
	mov	r1, sp
.Ltmp139:
	.loc	2 1115 16                       @ packages/EasyFlash-v4.1.0/src/ef_env.c:1115:16
	mov	r0, r4
	bl	read_status
.Ltmp140:
	.loc	2 1114 9 is_stmt 1              @ packages/EasyFlash-v4.1.0/src/ef_env.c:1114:9
	cmp	r0, #1
	bne	.LBB8_16
.Ltmp141:
@ %bb.15:
	@DEBUG_VALUE: del_env:key <- $r7
	@DEBUG_VALUE: del_env:result <- $r6
	@DEBUG_VALUE: del_env:old_env <- $r5
	@DEBUG_VALUE: del_env:dirty_status_addr <- $r4
	.loc	2 0 9 is_stmt 0                 @ packages/EasyFlash-v4.1.0/src/ef_env.c:0:9
	mov	r1, sp
.Ltmp142:
	.loc	2 1116 18 is_stmt 1             @ packages/EasyFlash-v4.1.0/src/ef_env.c:1116:18
	movs	r2, #4
	movs	r3, #2
	mov	r0, r4
	bl	write_status
	mov	r6, r0
.Ltmp143:
	@DEBUG_VALUE: del_env:result <- undef
.LBB8_16:
	@DEBUG_VALUE: del_env:key <- $r7
	@DEBUG_VALUE: del_env:old_env <- $r5
	.loc	2 1120 1                        @ packages/EasyFlash-v4.1.0/src/ef_env.c:1120:1
	mov	r0, r6
	add	sp, #56
	pop.w	{r4, r5, r6, r7, r8, pc}
.Ltmp144:
	.p2align	2
@ %bb.17:
	.loc	2 0 1 is_stmt 0                 @ packages/EasyFlash-v4.1.0/src/ef_env.c:0:1
.LCPI8_0:
.L.str.18:
	.asciz	"Not found '%s' in ENV.\n"
.Lfunc_end8:
	.size	del_env, .Lfunc_end8-del_env
	.cfi_endproc
	.cantunwind
	.fnend
                                        @ -- End function
	.section	.text.ef_del_and_save_env,"ax",%progbits
	.hidden	ef_del_and_save_env             @ -- Begin function ef_del_and_save_env
	.globl	ef_del_and_save_env
	.p2align	3
	.type	ef_del_and_save_env,%function
	.code	16                              @ @ef_del_and_save_env
	.thumb_func
ef_del_and_save_env:
.Lfunc_begin9:
	.loc	2 1416 0 is_stmt 1              @ packages/EasyFlash-v4.1.0/src/ef_env.c:1416:0
	.fnstart
	.cfi_startproc
@ %bb.0:
	@DEBUG_VALUE: ef_del_and_save_env:key <- $r0
	@DEBUG_VALUE: ef_del_and_save_env:key <- $r0
	@DEBUG_VALUE: ef_del_and_save_env:key <- $r0
	.save	{r7, lr}
	push	{r7, lr}
	.cfi_def_cfa_offset 8
	.cfi_offset lr, -4
	.cfi_offset r7, -8
.Ltmp145:
	.loc	2 1417 12 prologue_end          @ packages/EasyFlash-v4.1.0/src/ef_env.c:1417:12
	bl	ef_del_env
.Ltmp146:
	@DEBUG_VALUE: ef_del_and_save_env:key <- [DW_OP_LLVM_entry_value 1] $r0
	.loc	2 1417 5 is_stmt 0              @ packages/EasyFlash-v4.1.0/src/ef_env.c:1417:5
	pop	{r7, pc}
.Ltmp147:
.Lfunc_end9:
	.size	ef_del_and_save_env, .Lfunc_end9-ef_del_and_save_env
	.cfi_endproc
	.cantunwind
	.fnend
                                        @ -- End function
	.section	.text.ef_set_env_blob,"ax",%progbits
	.hidden	ef_set_env_blob                 @ -- Begin function ef_set_env_blob
	.globl	ef_set_env_blob
	.p2align	3
	.type	ef_set_env_blob,%function
	.code	16                              @ @ef_set_env_blob
	.thumb_func
ef_set_env_blob:
.Lfunc_begin10:
	.loc	2 1467 0 is_stmt 1              @ packages/EasyFlash-v4.1.0/src/ef_env.c:1467:0
	.fnstart
	.cfi_startproc
@ %bb.0:
	@DEBUG_VALUE: ef_set_env_blob:key <- $r0
	@DEBUG_VALUE: ef_set_env_blob:value_buf <- $r1
	@DEBUG_VALUE: ef_set_env_blob:buf_len <- $r2
	.save	{r4, r5, r6, lr}
	push	{r4, r5, r6, lr}
	.cfi_def_cfa_offset 16
	.cfi_offset lr, -4
	.cfi_offset r6, -8
	.cfi_offset r5, -12
	.cfi_offset r4, -16
.Ltmp148:
	.loc	2 1471 10 prologue_end          @ packages/EasyFlash-v4.1.0/src/ef_env.c:1471:10
	movw	r3, :lower16:init_ok
	movt	r3, :upper16:init_ok
	ldrb	r3, [r3]
.Ltmp149:
	@DEBUG_VALUE: ef_set_env_blob:buf_len <- $r2
	@DEBUG_VALUE: ef_set_env_blob:value_buf <- $r1
	@DEBUG_VALUE: ef_set_env_blob:result <- 0
	@DEBUG_VALUE: ef_set_env_blob:key <- $r0
	.loc	2 1471 9 is_stmt 0              @ packages/EasyFlash-v4.1.0/src/ef_env.c:1471:9
	cbz	r3, .LBB10_2
.Ltmp150:
@ %bb.1:
	@DEBUG_VALUE: ef_set_env_blob:buf_len <- $r2
	@DEBUG_VALUE: ef_set_env_blob:value_buf <- $r1
	@DEBUG_VALUE: ef_set_env_blob:key <- $r0
	@DEBUG_VALUE: ef_set_env_blob:result <- 0
	.loc	2 0 9                           @ packages/EasyFlash-v4.1.0/src/ef_env.c:0:9
	mov	r4, r2
.Ltmp151:
	@DEBUG_VALUE: ef_set_env_blob:buf_len <- $r4
	@DEBUG_VALUE: ef_set_env_blob:buf_len <- $r4
	mov	r5, r1
.Ltmp152:
	@DEBUG_VALUE: ef_set_env_blob:value_buf <- $r5
	@DEBUG_VALUE: ef_set_env_blob:value_buf <- $r5
	mov	r6, r0
.Ltmp153:
	@DEBUG_VALUE: ef_set_env_blob:key <- $r6
	@DEBUG_VALUE: ef_set_env_blob:key <- $r6
	.loc	2 1477 5 is_stmt 1              @ packages/EasyFlash-v4.1.0/src/ef_env.c:1477:5
	bl	ef_port_env_lock
	.loc	2 1479 14                       @ packages/EasyFlash-v4.1.0/src/ef_env.c:1479:14
	mov	r0, r6
	mov	r1, r5
	mov	r2, r4
	bl	set_env
	mov	r4, r0
.Ltmp154:
	@DEBUG_VALUE: ef_set_env_blob:buf_len <- [DW_OP_LLVM_entry_value 1] $r2
	@DEBUG_VALUE: ef_set_env_blob:result <- undef
	.loc	2 1482 5                        @ packages/EasyFlash-v4.1.0/src/ef_env.c:1482:5
	bl	ef_port_env_unlock
	.loc	2 1485 1                        @ packages/EasyFlash-v4.1.0/src/ef_env.c:1485:1
	mov	r0, r4
	pop	{r4, r5, r6, pc}
.Ltmp155:
.LBB10_2:
	@DEBUG_VALUE: ef_set_env_blob:buf_len <- $r2
	@DEBUG_VALUE: ef_set_env_blob:value_buf <- $r1
	@DEBUG_VALUE: ef_set_env_blob:key <- $r0
	@DEBUG_VALUE: ef_set_env_blob:result <- 0
	.loc	2 1472 9                        @ packages/EasyFlash-v4.1.0/src/ef_env.c:1472:9
	movw	r0, :lower16:.L.str
.Ltmp156:
	@DEBUG_VALUE: ef_set_env_blob:key <- [DW_OP_LLVM_entry_value 1] $r0
	movt	r0, :upper16:.L.str
	bl	ef_log_info
.Ltmp157:
	@DEBUG_VALUE: ef_set_env_blob:buf_len <- [DW_OP_LLVM_entry_value 1] $r2
	@DEBUG_VALUE: ef_set_env_blob:value_buf <- [DW_OP_LLVM_entry_value 1] $r1
	.loc	2 0 9 is_stmt 0                 @ packages/EasyFlash-v4.1.0/src/ef_env.c:0:9
	movs	r0, #7
.Ltmp158:
	.loc	2 1485 1 is_stmt 1              @ packages/EasyFlash-v4.1.0/src/ef_env.c:1485:1
	pop	{r4, r5, r6, pc}
.Ltmp159:
.Lfunc_end10:
	.size	ef_set_env_blob, .Lfunc_end10-ef_set_env_blob
	.cfi_endproc
	.cantunwind
	.fnend
                                        @ -- End function
	.section	.text.set_env,"ax",%progbits
	.p2align	3                               @ -- Begin function set_env
	.type	set_env,%function
	.code	16                              @ @set_env
	.thumb_func
set_env:
.Lfunc_begin11:
	.loc	2 1421 0                        @ packages/EasyFlash-v4.1.0/src/ef_env.c:1421:0
	.fnstart
	.cfi_startproc
@ %bb.0:
	@DEBUG_VALUE: set_env:key <- $r0
	@DEBUG_VALUE: set_env:value_buf <- $r1
	@DEBUG_VALUE: set_env:buf_len <- $r2
	@DEBUG_VALUE: set_env:value_buf <- $r1
	.save	{r4, r5, r6, r7, r8, lr}
	push.w	{r4, r5, r6, r7, r8, lr}
	.cfi_def_cfa_offset 24
	.cfi_offset lr, -4
	.cfi_offset r8, -8
	.cfi_offset r7, -12
	.cfi_offset r6, -16
	.cfi_offset r5, -20
	.cfi_offset r4, -24
	@DEBUG_VALUE: set_env:buf_len <- $r2
	mov	r4, r0
.Ltmp160:
	@DEBUG_VALUE: set_env:key <- $r4
	@DEBUG_VALUE: set_env:env_is_found <- 0
	@DEBUG_VALUE: set_env:result <- 0
	@DEBUG_VALUE: set_env:key <- $r4
	.loc	2 1427 9 prologue_end           @ packages/EasyFlash-v4.1.0/src/ef_env.c:1427:9
	cbz	r1, .LBB11_4
.Ltmp161:
@ %bb.1:
	@DEBUG_VALUE: set_env:key <- $r4
	@DEBUG_VALUE: set_env:buf_len <- $r2
	@DEBUG_VALUE: set_env:value_buf <- $r1
	@DEBUG_VALUE: set_env:result <- 0
	@DEBUG_VALUE: set_env:env_is_found <- 0
	.loc	2 1431 36                       @ packages/EasyFlash-v4.1.0/src/ef_env.c:1431:36
	mov	r0, r4
	mov	r5, r1
.Ltmp162:
	@DEBUG_VALUE: set_env:value_buf <- $r5
	@DEBUG_VALUE: set_env:value_buf <- $r5
	.loc	2 0 36 is_stmt 0                @ packages/EasyFlash-v4.1.0/src/ef_env.c:0:36
	mov	r6, r2
.Ltmp163:
	@DEBUG_VALUE: set_env:buf_len <- $r6
	@DEBUG_VALUE: set_env:buf_len <- $r6
	.loc	2 1431 36                       @ packages/EasyFlash-v4.1.0/src/ef_env.c:1431:36
	bl	strlen
	.loc	2 1431 13                       @ packages/EasyFlash-v4.1.0/src/ef_env.c:1431:13
	mov	r1, r6
	bl	new_env_by_kv
.Ltmp164:
	.loc	2 1431 13                       @ packages/EasyFlash-v4.1.0/src/ef_env.c:1431:13
	adds	r0, #1
	beq	.LBB11_5
.Ltmp165:
@ %bb.2:
	@DEBUG_VALUE: set_env:buf_len <- $r6
	@DEBUG_VALUE: set_env:value_buf <- $r5
	@DEBUG_VALUE: set_env:key <- $r4
	@DEBUG_VALUE: set_env:result <- 0
	@DEBUG_VALUE: set_env:env_is_found <- 0
	.loc	2 1434 24 is_stmt 1             @ packages/EasyFlash-v4.1.0/src/ef_env.c:1434:24
	movw	r1, :lower16:set_env.env
	mov	r0, r4
	movt	r1, :upper16:set_env.env
	bl	find_env
	mov	r8, r0
.Ltmp166:
	@DEBUG_VALUE: set_env:env_is_found <- [DW_OP_LLVM_convert 1 7, DW_OP_LLVM_convert 8 7, DW_OP_stack_value] undef
	.loc	2 1436 13                       @ packages/EasyFlash-v4.1.0/src/ef_env.c:1436:13
	cbz	r0, .LBB11_6
.Ltmp167:
@ %bb.3:
	@DEBUG_VALUE: set_env:buf_len <- $r6
	@DEBUG_VALUE: set_env:value_buf <- $r5
	@DEBUG_VALUE: set_env:key <- $r4
	@DEBUG_VALUE: set_env:result <- 0
	.loc	2 1437 22                       @ packages/EasyFlash-v4.1.0/src/ef_env.c:1437:22
	movw	r1, :lower16:set_env.env
	movs	r2, #0
	movt	r1, :upper16:set_env.env
	mov	r0, r4
	bl	del_env
	mov	r7, r0
.Ltmp168:
	@DEBUG_VALUE: set_env:result <- undef
	@DEBUG_VALUE: set_env:result <- $r7
	.loc	2 0 22 is_stmt 0                @ packages/EasyFlash-v4.1.0/src/ef_env.c:0:22
	cbnz	r7, .LBB11_8
	b	.LBB11_7
.Ltmp169:
.LBB11_4:
	@DEBUG_VALUE: set_env:key <- $r4
	@DEBUG_VALUE: set_env:buf_len <- $r2
	@DEBUG_VALUE: set_env:value_buf <- $r1
	@DEBUG_VALUE: set_env:result <- 0
	@DEBUG_VALUE: set_env:env_is_found <- 0
	.loc	2 1428 18 is_stmt 1             @ packages/EasyFlash-v4.1.0/src/ef_env.c:1428:18
	movs	r1, #0
.Ltmp170:
	@DEBUG_VALUE: set_env:value_buf <- [DW_OP_LLVM_entry_value 1] $r1
	movs	r2, #1
.Ltmp171:
	@DEBUG_VALUE: set_env:buf_len <- [DW_OP_LLVM_entry_value 1] $r2
	mov	r0, r4
	bl	del_env
.Ltmp172:
	@DEBUG_VALUE: set_env:result <- undef
	.loc	2 1454 1                        @ packages/EasyFlash-v4.1.0/src/ef_env.c:1454:1
	pop.w	{r4, r5, r6, r7, r8, pc}
.Ltmp173:
.LBB11_5:
	@DEBUG_VALUE: set_env:buf_len <- $r6
	@DEBUG_VALUE: set_env:value_buf <- $r5
	@DEBUG_VALUE: set_env:key <- $r4
	@DEBUG_VALUE: set_env:result <- 0
	@DEBUG_VALUE: set_env:env_is_found <- 0
	.loc	2 0 1 is_stmt 0                 @ packages/EasyFlash-v4.1.0/src/ef_env.c:0:1
	movs	r0, #6
	.loc	2 1454 1                        @ packages/EasyFlash-v4.1.0/src/ef_env.c:1454:1
	pop.w	{r4, r5, r6, r7, r8, pc}
.Ltmp174:
.LBB11_6:
	@DEBUG_VALUE: set_env:buf_len <- $r6
	@DEBUG_VALUE: set_env:value_buf <- $r5
	@DEBUG_VALUE: set_env:key <- $r4
	@DEBUG_VALUE: set_env:result <- 0
	.loc	2 0 1                           @ packages/EasyFlash-v4.1.0/src/ef_env.c:0:1
	movs	r7, #0
.Ltmp175:
	@DEBUG_VALUE: set_env:result <- $r7
	.loc	2 1440 13 is_stmt 1             @ packages/EasyFlash-v4.1.0/src/ef_env.c:1440:13
	cbnz	r7, .LBB11_8
.Ltmp176:
.LBB11_7:
	@DEBUG_VALUE: set_env:result <- $r7
	@DEBUG_VALUE: set_env:buf_len <- $r6
	@DEBUG_VALUE: set_env:value_buf <- $r5
	@DEBUG_VALUE: set_env:key <- $r4
	.loc	2 1441 22                       @ packages/EasyFlash-v4.1.0/src/ef_env.c:1441:22
	movw	r0, :lower16:set_env.sector
	mov	r1, r4
	movt	r0, :upper16:set_env.sector
	mov	r2, r5
	mov	r3, r6
	bl	create_env_blob
	mov	r7, r0
.Ltmp177:
	@DEBUG_VALUE: set_env:result <- undef
.LBB11_8:
	@DEBUG_VALUE: set_env:buf_len <- $r6
	@DEBUG_VALUE: set_env:value_buf <- $r5
	@DEBUG_VALUE: set_env:key <- $r4
	@DEBUG_VALUE: set_env:result <- $r7
	.loc	2 0 22 is_stmt 0                @ packages/EasyFlash-v4.1.0/src/ef_env.c:0:22
	mov	r0, r7
	cmp	r7, #0
	it	ne
	movne	r0, #1
.Ltmp178:
	.loc	2 1444 26 is_stmt 1             @ packages/EasyFlash-v4.1.0/src/ef_env.c:1444:26
	eor	r1, r8, #1
	orrs	r0, r1
	bne	.LBB11_10
.Ltmp179:
@ %bb.9:
	@DEBUG_VALUE: set_env:result <- $r7
	@DEBUG_VALUE: set_env:buf_len <- $r6
	@DEBUG_VALUE: set_env:value_buf <- $r5
	@DEBUG_VALUE: set_env:key <- $r4
	.loc	2 1445 22                       @ packages/EasyFlash-v4.1.0/src/ef_env.c:1445:22
	movw	r1, :lower16:set_env.env
	movs	r2, #1
	movt	r1, :upper16:set_env.env
	mov	r0, r4
	bl	del_env
	mov	r7, r0
.Ltmp180:
	@DEBUG_VALUE: set_env:result <- undef
.LBB11_10:
	@DEBUG_VALUE: set_env:buf_len <- $r6
	@DEBUG_VALUE: set_env:value_buf <- $r5
	@DEBUG_VALUE: set_env:key <- $r4
	@DEBUG_VALUE: set_env:result <- $r7
	.loc	2 1448 13                       @ packages/EasyFlash-v4.1.0/src/ef_env.c:1448:13
	movw	r0, :lower16:gc_request
	movt	r0, :upper16:gc_request
	ldrb	r0, [r0]
.Ltmp181:
	.loc	2 1448 13 is_stmt 0             @ packages/EasyFlash-v4.1.0/src/ef_env.c:1448:13
	cmp	r0, #1
	bne	.LBB11_12
.Ltmp182:
@ %bb.11:
	@DEBUG_VALUE: set_env:result <- $r7
	@DEBUG_VALUE: set_env:buf_len <- $r6
	@DEBUG_VALUE: set_env:value_buf <- $r5
	@DEBUG_VALUE: set_env:key <- $r4
	.loc	2 1449 13 is_stmt 1             @ packages/EasyFlash-v4.1.0/src/ef_env.c:1449:13
	bl	gc_collect
.Ltmp183:
.LBB11_12:
	@DEBUG_VALUE: set_env:result <- $r7
	@DEBUG_VALUE: set_env:buf_len <- $r6
	@DEBUG_VALUE: set_env:value_buf <- $r5
	@DEBUG_VALUE: set_env:key <- $r4
	.loc	2 1454 1                        @ packages/EasyFlash-v4.1.0/src/ef_env.c:1454:1
	mov	r0, r7
	pop.w	{r4, r5, r6, r7, r8, pc}
.Ltmp184:
.Lfunc_end11:
	.size	set_env, .Lfunc_end11-set_env
	.cfi_endproc
	.cantunwind
	.fnend
                                        @ -- End function
	.section	.text.ef_set_env,"ax",%progbits
	.hidden	ef_set_env                      @ -- Begin function ef_set_env
	.globl	ef_set_env
	.p2align	3
	.type	ef_set_env,%function
	.code	16                              @ @ef_set_env
	.thumb_func
ef_set_env:
.Lfunc_begin12:
	.loc	2 1497 0                        @ packages/EasyFlash-v4.1.0/src/ef_env.c:1497:0
	.fnstart
	.cfi_startproc
@ %bb.0:
	@DEBUG_VALUE: ef_set_env:key <- $r0
	@DEBUG_VALUE: ef_set_env:value <- $r1
	.save	{r4, r5, r7, lr}
	push	{r4, r5, r7, lr}
	.cfi_def_cfa_offset 16
	.cfi_offset lr, -4
	.cfi_offset r7, -8
	.cfi_offset r5, -12
	.cfi_offset r4, -16
	mov	r5, r0
.Ltmp185:
	@DEBUG_VALUE: ef_set_env:key <- $r5
	@DEBUG_VALUE: ef_set_env:value <- $r4
	@DEBUG_VALUE: ef_set_env:key <- $r5
	.loc	2 1498 40 prologue_end          @ packages/EasyFlash-v4.1.0/src/ef_env.c:1498:40
	mov	r0, r1
	mov	r4, r1
.Ltmp186:
	bl	strlen
	mov	r2, r0
	.loc	2 1498 12 is_stmt 0             @ packages/EasyFlash-v4.1.0/src/ef_env.c:1498:12
	mov	r0, r5
.Ltmp187:
	@DEBUG_VALUE: ef_set_env:key <- $r0
	mov	r1, r4
	bl	ef_set_env_blob
.Ltmp188:
	.loc	2 1498 5                        @ packages/EasyFlash-v4.1.0/src/ef_env.c:1498:5
	pop	{r4, r5, r7, pc}
.Ltmp189:
.Lfunc_end12:
	.size	ef_set_env, .Lfunc_end12-ef_set_env
	.cfi_endproc
	.cantunwind
	.fnend
                                        @ -- End function
	.section	.text.ef_set_and_save_env,"ax",%progbits
	.hidden	ef_set_and_save_env             @ -- Begin function ef_set_and_save_env
	.globl	ef_set_and_save_env
	.p2align	3
	.type	ef_set_and_save_env,%function
	.code	16                              @ @ef_set_and_save_env
	.thumb_func
ef_set_and_save_env:
.Lfunc_begin13:
	.loc	2 1513 0 is_stmt 1              @ packages/EasyFlash-v4.1.0/src/ef_env.c:1513:0
	.fnstart
	.cfi_startproc
@ %bb.0:
	@DEBUG_VALUE: ef_set_and_save_env:key <- $r0
	@DEBUG_VALUE: ef_set_and_save_env:value <- $r1
	.save	{r4, r5, r7, lr}
	push	{r4, r5, r7, lr}
	.cfi_def_cfa_offset 16
	.cfi_offset lr, -4
	.cfi_offset r7, -8
	.cfi_offset r5, -12
	.cfi_offset r4, -16
	mov	r5, r0
.Ltmp190:
	@DEBUG_VALUE: ef_set_and_save_env:key <- $r5
	@DEBUG_VALUE: ef_set_and_save_env:value <- $r4
	@DEBUG_VALUE: ef_set_and_save_env:key <- $r5
	.loc	2 1514 40 prologue_end          @ packages/EasyFlash-v4.1.0/src/ef_env.c:1514:40
	mov	r0, r1
	mov	r4, r1
.Ltmp191:
	bl	strlen
	mov	r2, r0
	.loc	2 1514 12 is_stmt 0             @ packages/EasyFlash-v4.1.0/src/ef_env.c:1514:12
	mov	r0, r5
.Ltmp192:
	@DEBUG_VALUE: ef_set_and_save_env:key <- $r0
	mov	r1, r4
	bl	ef_set_env_blob
.Ltmp193:
	.loc	2 1514 5                        @ packages/EasyFlash-v4.1.0/src/ef_env.c:1514:5
	pop	{r4, r5, r7, pc}
.Ltmp194:
.Lfunc_end13:
	.size	ef_set_and_save_env, .Lfunc_end13-ef_set_and_save_env
	.cfi_endproc
	.cantunwind
	.fnend
                                        @ -- End function
	.section	.text.ef_save_env,"ax",%progbits
	.hidden	ef_save_env                     @ -- Begin function ef_save_env
	.globl	ef_save_env
	.p2align	3
	.type	ef_save_env,%function
	.code	16                              @ @ef_save_env
	.thumb_func
ef_save_env:
.Lfunc_begin14:
	.loc	2 1523 0 is_stmt 1              @ packages/EasyFlash-v4.1.0/src/ef_env.c:1523:0
	.fnstart
	.cfi_startproc
@ %bb.0:
	.loc	2 1525 5 prologue_end           @ packages/EasyFlash-v4.1.0/src/ef_env.c:1525:5
	movs	r0, #0
	bx	lr
.Ltmp195:
.Lfunc_end14:
	.size	ef_save_env, .Lfunc_end14-ef_save_env
	.cfi_endproc
	.cantunwind
	.fnend
                                        @ -- End function
	.section	.text.ef_env_set_default,"ax",%progbits
	.hidden	ef_env_set_default              @ -- Begin function ef_env_set_default
	.globl	ef_env_set_default
	.p2align	3
	.type	ef_env_set_default,%function
	.code	16                              @ @ef_env_set_default
	.thumb_func
ef_env_set_default:
.Lfunc_begin15:
	.loc	2 1534 0                        @ packages/EasyFlash-v4.1.0/src/ef_env.c:1534:0
	.fnstart
	.cfi_startproc
@ %bb.0:
	.save	{r4, r5, r6, r7, r8, r9, r10, r11, lr}
	push.w	{r4, r5, r6, r7, r8, r9, r10, r11, lr}
	.cfi_def_cfa_offset 36
	.cfi_offset lr, -4
	.cfi_offset r11, -8
	.cfi_offset r10, -12
	.cfi_offset r9, -16
	.cfi_offset r8, -20
	.cfi_offset r7, -24
	.cfi_offset r6, -28
	.cfi_offset r5, -32
	.cfi_offset r4, -36
	.pad	#28
	sub	sp, #28
	.cfi_def_cfa_offset 64
.Ltmp196:
	@DEBUG_VALUE: ef_env_set_default:result <- 0
	.loc	2 1539 5 prologue_end           @ packages/EasyFlash-v4.1.0/src/ef_env.c:1539:5
	movw	r9, :lower16:default_env_set
	movt	r9, :upper16:default_env_set
	ldr.w	r0, [r9]
.Ltmp197:
	.loc	2 1539 5 is_stmt 0              @ packages/EasyFlash-v4.1.0/src/ef_env.c:1539:5
	cmp	r0, #0
	beq	.LBB15_12
.Ltmp198:
@ %bb.1:
	@DEBUG_VALUE: ef_env_set_default:result <- 0
	.loc	2 1540 5 is_stmt 1              @ packages/EasyFlash-v4.1.0/src/ef_env.c:1540:5
	movw	r0, :lower16:default_env_set_size
	movt	r0, :upper16:default_env_set_size
	ldr	r0, [r0]
.Ltmp199:
	.loc	2 1540 5 is_stmt 0              @ packages/EasyFlash-v4.1.0/src/ef_env.c:1540:5
	cmp	r0, #0
	beq	.LBB15_14
.Ltmp200:
@ %bb.2:
	@DEBUG_VALUE: ef_env_set_default:result <- 0
	.loc	2 1543 5 is_stmt 1              @ packages/EasyFlash-v4.1.0/src/ef_env.c:1543:5
	bl	ef_port_env_lock
	movs	r5, #0
.Ltmp201:
	@DEBUG_VALUE: ef_env_set_default:addr <- 0
	@DEBUG_VALUE: ef_env_set_default:result <- 0
	.p2align	2
.LBB15_3:                               @ =>This Inner Loop Header: Depth=1
	@DEBUG_VALUE: ef_env_set_default:addr <- $r5
	.loc	2 1546 18                       @ packages/EasyFlash-v4.1.0/src/ef_env.c:1546:18
	mov	r0, r5
	bl	format_sector
	mov	r4, r0
.Ltmp202:
	@DEBUG_VALUE: ef_env_set_default:addr <- [DW_OP_plus_uconst 4096, DW_OP_stack_value] $r5
	@DEBUG_VALUE: ef_env_set_default:result <- $r4
	.loc	2 1547 13                       @ packages/EasyFlash-v4.1.0/src/ef_env.c:1547:13
	cbnz	r0, .LBB15_11
.Ltmp203:
@ %bb.4:                                @   in Loop: Header=BB15_3 Depth=1
	@DEBUG_VALUE: ef_env_set_default:addr <- [DW_OP_plus_uconst 4096, DW_OP_stack_value] $r5
	@DEBUG_VALUE: ef_env_set_default:result <- $r4
	.loc	2 1545 77                       @ packages/EasyFlash-v4.1.0/src/ef_env.c:1545:77
	add.w	r5, r5, #4096
.Ltmp204:
	@DEBUG_VALUE: ef_env_set_default:addr <- [DW_OP_plus_uconst 4096, DW_OP_stack_value] $r5
	@DEBUG_VALUE: ef_env_set_default:result <- $r4
	.loc	2 1545 5 is_stmt 0              @ packages/EasyFlash-v4.1.0/src/ef_env.c:1545:5
	cmp.w	r5, #4096
	beq	.LBB15_3
.Ltmp205:
@ %bb.5:
	@DEBUG_VALUE: ef_env_set_default:addr <- [DW_OP_plus_uconst 4096, DW_OP_stack_value] $r5
	@DEBUG_VALUE: ef_env_set_default:result <- $r4
	@DEBUG_VALUE: ef_env_set_default:i <- 0
	.loc	2 1552 21 is_stmt 1             @ packages/EasyFlash-v4.1.0/src/ef_env.c:1552:21
	movw	r0, :lower16:default_env_set_size
	movt	r0, :upper16:default_env_set_size
	ldr	r0, [r0]
.Ltmp206:
	.loc	2 1552 5 is_stmt 0              @ packages/EasyFlash-v4.1.0/src/ef_env.c:1552:5
	cbz	r0, .LBB15_11
.Ltmp207:
@ %bb.6:
	@DEBUG_VALUE: ef_env_set_default:addr <- [DW_OP_plus_uconst 4096, DW_OP_stack_value] $r5
	@DEBUG_VALUE: ef_env_set_default:result <- $r4
	@DEBUG_VALUE: ef_env_set_default:i <- 0
	.loc	2 0 5                           @ packages/EasyFlash-v4.1.0/src/ef_env.c:0:5
	movs	r7, #1
	movs	r6, #0
	mov.w	r10, #-1
	add.w	r11, sp, #4
.Ltmp208:
	.p2align	2
.LBB15_7:                               @ =>This Inner Loop Header: Depth=1
	@DEBUG_VALUE: ef_env_set_default:result <- $r4
	@DEBUG_VALUE: ef_env_set_default:i <- [DW_OP_constu 1, DW_OP_minus, DW_OP_stack_value] $r7
	.loc	2 1555 13 is_stmt 1             @ packages/EasyFlash-v4.1.0/src/ef_env.c:1555:13
	ldr.w	r5, [r9]
	.loc	2 1555 32 is_stmt 0             @ packages/EasyFlash-v4.1.0/src/ef_env.c:1555:32
	add.w	r8, r5, r6
	ldr.w	r3, [r8, #8]
	cbnz	r3, .LBB15_9
.Ltmp209:
@ %bb.8:                                @   in Loop: Header=BB15_7 Depth=1
	@DEBUG_VALUE: ef_env_set_default:i <- [DW_OP_constu 1, DW_OP_minus, DW_OP_stack_value] $r7
	@DEBUG_VALUE: ef_env_set_default:result <- $r4
	.loc	2 1556 51 is_stmt 1             @ packages/EasyFlash-v4.1.0/src/ef_env.c:1556:51
	ldr.w	r0, [r8, #4]
	.loc	2 1556 25 is_stmt 0             @ packages/EasyFlash-v4.1.0/src/ef_env.c:1556:25
	bl	strlen
	mov	r3, r0
.Ltmp210:
	@DEBUG_VALUE: ef_env_set_default:value_len <- $r3
.LBB15_9:                               @   in Loop: Header=BB15_7 Depth=1
	@DEBUG_VALUE: ef_env_set_default:i <- [DW_OP_constu 1, DW_OP_minus, DW_OP_stack_value] $r7
	@DEBUG_VALUE: ef_env_set_default:result <- $r4
	@DEBUG_VALUE: ef_env_set_default:value_len <- $r3
	.loc	2 1560 26 is_stmt 1             @ packages/EasyFlash-v4.1.0/src/ef_env.c:1560:26
	str.w	r10, [sp, #24]
	.loc	2 1561 9                        @ packages/EasyFlash-v4.1.0/src/ef_env.c:1561:9
	mov	r0, r11
	.loc	2 1561 53 is_stmt 0             @ packages/EasyFlash-v4.1.0/src/ef_env.c:1561:53
	ldr	r1, [r5, r6]
	.loc	2 1561 77                       @ packages/EasyFlash-v4.1.0/src/ef_env.c:1561:77
	ldr.w	r2, [r8, #4]
	.loc	2 1561 9                        @ packages/EasyFlash-v4.1.0/src/ef_env.c:1561:9
	bl	create_env_blob
.Ltmp211:
	@DEBUG_VALUE: ef_env_set_default:i <- $r7
	.loc	2 0 9                           @ packages/EasyFlash-v4.1.0/src/ef_env.c:0:9
	cbnz	r4, .LBB15_11
.Ltmp212:
@ %bb.10:                               @   in Loop: Header=BB15_7 Depth=1
	@DEBUG_VALUE: ef_env_set_default:i <- $r7
	@DEBUG_VALUE: ef_env_set_default:result <- $r4
	movw	r0, :lower16:default_env_set_size
	.loc	2 1562 13 is_stmt 1             @ packages/EasyFlash-v4.1.0/src/ef_env.c:1562:13
	adds	r6, #12
	movt	r0, :upper16:default_env_set_size
	ldr	r0, [r0]
	cmp	r7, r0
	add.w	r7, r7, #1
.Ltmp213:
	.loc	2 0 13 is_stmt 0                @ packages/EasyFlash-v4.1.0/src/ef_env.c:0:13
	blo	.LBB15_7
.Ltmp214:
.LBB15_11:
	@DEBUG_VALUE: ef_env_set_default:result <- $r4
	@DEBUG_VALUE: ef_env_set_default:result <- $r4
	@DEBUG_LABEL: ef_env_set_default:__exit
	.loc	2 1569 5 is_stmt 1              @ packages/EasyFlash-v4.1.0/src/ef_env.c:1569:5
	bl	ef_port_env_unlock
	.loc	2 1571 5                        @ packages/EasyFlash-v4.1.0/src/ef_env.c:1571:5
	mov	r0, r4
	add	sp, #28
	pop.w	{r4, r5, r6, r7, r8, r9, r10, r11, pc}
.Ltmp215:
.LBB15_12:
	@DEBUG_VALUE: ef_env_set_default:result <- 0
	.loc	2 1539 5                        @ packages/EasyFlash-v4.1.0/src/ef_env.c:1539:5
	movw	r0, :lower16:.L.str.2
	movw	r2, :lower16:.L.str.3
	movw	r7, :lower16:.L__FUNCTION__.ef_env_set_default
	movt	r0, :upper16:.L.str.2
	movt	r2, :upper16:.L.str.3
	adr	r3, .LCPI15_1
	movw	r1, #1539
	movt	r7, :upper16:.L__FUNCTION__.ef_env_set_default
	str	r7, [sp]
	bl	ef_log_debug
.Ltmp216:
	.p2align	2
.LBB15_13:                              @ =>This Inner Loop Header: Depth=1
	@DEBUG_VALUE: ef_env_set_default:result <- 0
	b	.LBB15_13
.Ltmp217:
.LBB15_14:
	@DEBUG_VALUE: ef_env_set_default:result <- 0
	.loc	2 1540 5                        @ packages/EasyFlash-v4.1.0/src/ef_env.c:1540:5
	movw	r0, :lower16:.L.str.2
	movw	r2, :lower16:.L.str.3
	movw	r7, :lower16:.L__FUNCTION__.ef_env_set_default
	movt	r0, :upper16:.L.str.2
	movt	r2, :upper16:.L.str.3
	adr	r3, .LCPI15_0
	movw	r1, #1540
	movt	r7, :upper16:.L__FUNCTION__.ef_env_set_default
	str	r7, [sp]
	bl	ef_log_debug
.Ltmp218:
	.p2align	2
.LBB15_15:                              @ =>This Inner Loop Header: Depth=1
	@DEBUG_VALUE: ef_env_set_default:result <- 0
	b	.LBB15_15
.Ltmp219:
	.p2align	2
@ %bb.16:
	.loc	2 0 5 is_stmt 0                 @ packages/EasyFlash-v4.1.0/src/ef_env.c:0:5
.LCPI15_0:
.L.str.8:
	.asciz	"default_env_set_size\000\000\000"
.LCPI15_1:
.L.str.7:
	.asciz	"default_env_set"
.Lfunc_end15:
	.size	ef_env_set_default, .Lfunc_end15-ef_env_set_default
	.cfi_endproc
	.cantunwind
	.fnend
                                        @ -- End function
	.section	.text.format_sector,"ax",%progbits
	.p2align	3                               @ -- Begin function format_sector
	.type	format_sector,%function
	.code	16                              @ @format_sector
	.thumb_func
format_sector:
.Lfunc_begin16:
	.loc	2 935 0 is_stmt 1               @ packages/EasyFlash-v4.1.0/src/ef_env.c:935:0
	.fnstart
	.cfi_startproc
@ %bb.0:
	@DEBUG_VALUE: format_sector:addr <- $r0
	.save	{r4, r5, r6, lr}
	push	{r4, r5, r6, lr}
	.cfi_def_cfa_offset 16
	.cfi_offset lr, -4
	.cfi_offset r6, -8
	.cfi_offset r5, -12
	.cfi_offset r4, -16
	.pad	#24
	sub	sp, #24
	.cfi_def_cfa_offset 40
	mov	r4, r0
.Ltmp220:
	@DEBUG_VALUE: format_sector:result <- 0
	@DEBUG_VALUE: format_sector:combined_value <- -1
	@DEBUG_VALUE: format_sector:addr <- $r4
	.loc	2 939 5 prologue_end            @ packages/EasyFlash-v4.1.0/src/ef_env.c:939:5
	lsls	r0, r0, #20
	beq	.LBB16_3
.Ltmp221:
@ %bb.1:
	@DEBUG_VALUE: format_sector:addr <- $r4
	@DEBUG_VALUE: format_sector:combined_value <- -1
	@DEBUG_VALUE: format_sector:result <- 0
	.loc	2 939 5 is_stmt 0               @ packages/EasyFlash-v4.1.0/src/ef_env.c:939:5
	movw	r0, :lower16:.L.str.2
	movw	r2, :lower16:.L.str.3
	movw	r3, :lower16:.L.str.21
	movt	r0, :upper16:.L.str.2
	movt	r2, :upper16:.L.str.3
	movt	r3, :upper16:.L.str.21
	movw	r1, #939
	adr	r5, .LCPI16_0
	str	r5, [sp]
	bl	ef_log_debug
.Ltmp222:
	.p2align	2
.LBB16_2:                               @ =>This Inner Loop Header: Depth=1
	@DEBUG_VALUE: format_sector:addr <- $r4
	@DEBUG_VALUE: format_sector:combined_value <- -1
	@DEBUG_VALUE: format_sector:result <- 0
	b	.LBB16_2
.Ltmp223:
.LBB16_3:
	@DEBUG_VALUE: format_sector:addr <- $r4
	@DEBUG_VALUE: format_sector:combined_value <- -1
	@DEBUG_VALUE: format_sector:result <- 0
	.loc	2 941 14 is_stmt 1              @ packages/EasyFlash-v4.1.0/src/ef_env.c:941:14
	mov.w	r1, #4096
	mov	r0, r4
	bl	ef_port_erase
	mov	r5, r0
.Ltmp224:
	@DEBUG_VALUE: format_sector:result <- $r5
	.loc	2 942 9                         @ packages/EasyFlash-v4.1.0/src/ef_env.c:942:9
	cbnz	r0, .LBB16_5
.Ltmp225:
@ %bb.4:
	@DEBUG_VALUE: format_sector:result <- $r5
	@DEBUG_VALUE: format_sector:addr <- $r4
	@DEBUG_VALUE: format_sector:combined_value <- -1
	.loc	2 0 9 is_stmt 0                 @ packages/EasyFlash-v4.1.0/src/ef_env.c:0:9
	add	r5, sp, #8
.Ltmp226:
	.loc	2 945 9 is_stmt 1               @ packages/EasyFlash-v4.1.0/src/ef_env.c:945:9
	movs	r1, #4
	movs	r2, #1
	mov	r0, r5
	mov.w	r6, #-1
	.loc	2 944 9                         @ packages/EasyFlash-v4.1.0/src/ef_env.c:944:9
	strd	r6, r6, [sp, #16]
	strd	r6, r6, [sp, #8]
	.loc	2 945 9                         @ packages/EasyFlash-v4.1.0/src/ef_env.c:945:9
	bl	set_status
	.loc	2 946 20                        @ packages/EasyFlash-v4.1.0/src/ef_env.c:946:20
	adds	r0, r5, #1
	.loc	2 946 9 is_stmt 0               @ packages/EasyFlash-v4.1.0/src/ef_env.c:946:9
	movs	r1, #4
	movs	r2, #1
	bl	set_status
	movw	r0, #17989
	.loc	2 951 18 is_stmt 1              @ packages/EasyFlash-v4.1.0/src/ef_env.c:951:18
	movs	r2, #16
	movt	r0, #12340
	mov	r1, r5
	.loc	2 947 23                        @ packages/EasyFlash-v4.1.0/src/ef_env.c:947:23
	strd	r0, r6, [sp, #12]
	.loc	2 951 18                        @ packages/EasyFlash-v4.1.0/src/ef_env.c:951:18
	mov	r0, r4
	.loc	2 949 26                        @ packages/EasyFlash-v4.1.0/src/ef_env.c:949:26
	str	r6, [sp, #20]
	.loc	2 951 18                        @ packages/EasyFlash-v4.1.0/src/ef_env.c:951:18
	bl	ef_port_write
	mov	r5, r0
.Ltmp227:
	@DEBUG_VALUE: format_sector:result <- undef
	.loc	2 955 40                        @ packages/EasyFlash-v4.1.0/src/ef_env.c:955:40
	add.w	r1, r4, #4096
	.loc	2 955 9 is_stmt 0               @ packages/EasyFlash-v4.1.0/src/ef_env.c:955:9
	mov	r0, r4
	bl	update_sector_cache
.Ltmp228:
.LBB16_5:
	@DEBUG_VALUE: format_sector:addr <- $r4
	@DEBUG_VALUE: format_sector:combined_value <- -1
	@DEBUG_VALUE: format_sector:result <- $r5
	.loc	2 959 5 is_stmt 1               @ packages/EasyFlash-v4.1.0/src/ef_env.c:959:5
	mov	r0, r5
	add	sp, #24
	pop	{r4, r5, r6, pc}
.Ltmp229:
	.p2align	2
@ %bb.6:
	.loc	2 0 5 is_stmt 0                 @ packages/EasyFlash-v4.1.0/src/ef_env.c:0:5
.LCPI16_0:
.L__FUNCTION__.format_sector:
	.asciz	"format_sector\000\000"
.Lfunc_end16:
	.size	format_sector, .Lfunc_end16-format_sector
	.cfi_endproc
	.cantunwind
	.fnend
                                        @ -- End function
	.section	.text.create_env_blob,"ax",%progbits
	.p2align	3                               @ -- Begin function create_env_blob
	.type	create_env_blob,%function
	.code	16                              @ @create_env_blob
	.thumb_func
create_env_blob:
.Lfunc_begin17:
	.loc	2 1299 0 is_stmt 1              @ packages/EasyFlash-v4.1.0/src/ef_env.c:1299:0
	.fnstart
	.cfi_startproc
@ %bb.0:
	@DEBUG_VALUE: create_env_blob:sector <- $r0
	@DEBUG_VALUE: create_env_blob:key <- $r1
	@DEBUG_VALUE: create_env_blob:value <- $r2
	@DEBUG_VALUE: create_env_blob:len <- $r3
	.save	{r4, r5, r6, r7, r8, r9, lr}
	push.w	{r4, r5, r6, r7, r8, r9, lr}
	.cfi_def_cfa_offset 28
	.cfi_offset lr, -4
	.cfi_offset r9, -8
	.cfi_offset r8, -12
	.cfi_offset r7, -16
	.cfi_offset r6, -20
	.cfi_offset r5, -24
	.cfi_offset r4, -28
	.pad	#28
	sub	sp, #28
	.cfi_def_cfa_offset 56
	mov	r7, r0
.Ltmp230:
	@DEBUG_VALUE: create_env_blob:sector <- $r7
	movs	r0, #0
.Ltmp231:
	@DEBUG_VALUE: create_env_blob:is_full <- 0
	@DEBUG_VALUE: create_env_blob:result <- 0
	@DEBUG_VALUE: create_env_blob:len <- $r5
	@DEBUG_VALUE: create_env_blob:value <- $r8
	@DEBUG_VALUE: create_env_blob:key <- $r6
	@DEBUG_VALUE: create_env_blob:sector <- $r7
	.loc	2 1302 10 prologue_end          @ packages/EasyFlash-v4.1.0/src/ef_env.c:1302:10
	strb.w	r0, [sp, #3]
.Ltmp232:
	.loc	2 1305 9                        @ packages/EasyFlash-v4.1.0/src/ef_env.c:1305:9
	mov	r0, r1
	mov	r5, r3
.Ltmp233:
	.loc	2 0 9 is_stmt 0                 @ packages/EasyFlash-v4.1.0/src/ef_env.c:0:9
	mov	r8, r2
.Ltmp234:
	mov	r6, r1
.Ltmp235:
	.loc	2 1303 33 is_stmt 1             @ packages/EasyFlash-v4.1.0/src/ef_env.c:1303:33
	ldr	r4, [r7, #20]
.Ltmp236:
	@DEBUG_VALUE: create_env_blob:env_addr <- $r4
	.loc	2 1305 9                        @ packages/EasyFlash-v4.1.0/src/ef_env.c:1305:9
	bl	strlen
.Ltmp237:
	.loc	2 1305 9 is_stmt 0              @ packages/EasyFlash-v4.1.0/src/ef_env.c:1305:9
	cmp	r0, #33
	blo	.LBB17_2
.Ltmp238:
@ %bb.1:
	@DEBUG_VALUE: create_env_blob:sector <- $r7
	@DEBUG_VALUE: create_env_blob:env_addr <- $r4
	@DEBUG_VALUE: create_env_blob:result <- 0
	@DEBUG_VALUE: create_env_blob:is_full <- 0
	.loc	2 1306 9 is_stmt 1              @ packages/EasyFlash-v4.1.0/src/ef_env.c:1306:9
	adr	r0, .LCPI17_2
	movs	r1, #32
	bl	ef_log_info
	movs	r5, #4
	.loc	2 1307 9                        @ packages/EasyFlash-v4.1.0/src/ef_env.c:1307:9
	b	.LBB17_20
.Ltmp239:
.LBB17_2:
	@DEBUG_VALUE: create_env_blob:sector <- $r7
	@DEBUG_VALUE: create_env_blob:env_addr <- $r4
	@DEBUG_VALUE: create_env_blob:result <- 0
	@DEBUG_VALUE: create_env_blob:is_full <- 0
	.loc	2 0 9 is_stmt 0                 @ packages/EasyFlash-v4.1.0/src/ef_env.c:0:9
	mov.w	r1, #-1
	.loc	2 1310 5 is_stmt 1              @ packages/EasyFlash-v4.1.0/src/ef_env.c:1310:5
	str	r1, [sp, #4]
	strd	r1, r1, [sp, #16]
	movw	r1, #22091
	.loc	2 1312 22                       @ packages/EasyFlash-v4.1.0/src/ef_env.c:1312:22
	strb.w	r0, [sp, #20]
	movt	r1, #12340
	.loc	2 1311 19                       @ packages/EasyFlash-v4.1.0/src/ef_env.c:1311:19
	str	r1, [sp, #8]
	.loc	2 1314 37                       @ packages/EasyFlash-v4.1.0/src/ef_env.c:1314:37
	uxtab	r1, r5, r0
	.loc	2 1313 23                       @ packages/EasyFlash-v4.1.0/src/ef_env.c:1313:23
	str	r5, [sp, #24]
	.loc	2 1314 69                       @ packages/EasyFlash-v4.1.0/src/ef_env.c:1314:69
	adds	r1, #24
	.loc	2 1314 17 is_stmt 0             @ packages/EasyFlash-v4.1.0/src/ef_env.c:1314:17
	str	r1, [sp, #12]
	.loc	2 1316 9 is_stmt 1              @ packages/EasyFlash-v4.1.0/src/ef_env.c:1316:9
	cmp.w	r1, #4080
	bls	.LBB17_4
.Ltmp240:
@ %bb.3:
	@DEBUG_VALUE: create_env_blob:sector <- $r7
	@DEBUG_VALUE: create_env_blob:env_addr <- $r4
	@DEBUG_VALUE: create_env_blob:result <- 0
	@DEBUG_VALUE: create_env_blob:is_full <- 0
	.loc	2 1317 9                        @ packages/EasyFlash-v4.1.0/src/ef_env.c:1317:9
	adr	r0, .LCPI17_1
	bl	ef_log_info
	movs	r5, #6
	.loc	2 1318 9                        @ packages/EasyFlash-v4.1.0/src/ef_env.c:1318:9
	b	.LBB17_20
.Ltmp241:
.LBB17_4:
	@DEBUG_VALUE: create_env_blob:sector <- $r7
	@DEBUG_VALUE: create_env_blob:env_addr <- $r4
	@DEBUG_VALUE: create_env_blob:result <- 0
	@DEBUG_VALUE: create_env_blob:is_full <- 0
	.loc	2 1321 33                       @ packages/EasyFlash-v4.1.0/src/ef_env.c:1321:33
	adds	r0, r4, #1
	bne	.LBB17_6
.Ltmp242:
@ %bb.5:
	@DEBUG_VALUE: create_env_blob:sector <- $r7
	@DEBUG_VALUE: create_env_blob:env_addr <- $r4
	@DEBUG_VALUE: create_env_blob:result <- 0
	@DEBUG_VALUE: create_env_blob:is_full <- 0
	.loc	2 1321 48 is_stmt 0             @ packages/EasyFlash-v4.1.0/src/ef_env.c:1321:48
	mov	r0, r7
	bl	new_env
	mov	r4, r0
.Ltmp243:
	@DEBUG_VALUE: create_env_blob:env_addr <- $r4
	.loc	2 1321 9                        @ packages/EasyFlash-v4.1.0/src/ef_env.c:1321:9
	adds	r0, #1
	beq	.LBB17_19
.Ltmp244:
.LBB17_6:
	@DEBUG_VALUE: create_env_blob:sector <- $r7
	@DEBUG_VALUE: create_env_blob:env_addr <- $r4
	@DEBUG_VALUE: create_env_blob:result <- 0
	@DEBUG_VALUE: create_env_blob:is_full <- 0
	@DEBUG_VALUE: create_env_blob:env_addr <- $r4
	.loc	2 1325 56 is_stmt 1             @ packages/EasyFlash-v4.1.0/src/ef_env.c:1325:56
	ldr	r1, [sp, #12]
.Ltmp245:
	@DEBUG_VALUE: create_env_blob:is_full <- [DW_OP_plus_uconst 3, DW_OP_deref] $sp
	.loc	2 0 56 is_stmt 0                @ packages/EasyFlash-v4.1.0/src/ef_env.c:0:56
	add.w	r2, sp, #3
	.loc	2 1325 22                       @ packages/EasyFlash-v4.1.0/src/ef_env.c:1325:22
	mov	r0, r7
	bl	update_sec_status
	mov	r5, r0
.Ltmp246:
	@DEBUG_VALUE: create_env_blob:result <- $r5
	.loc	2 1327 13 is_stmt 1             @ packages/EasyFlash-v4.1.0/src/ef_env.c:1327:13
	cbz	r0, .LBB17_11
.Ltmp247:
@ %bb.7:
	@DEBUG_VALUE: create_env_blob:sector <- $r7
	@DEBUG_VALUE: create_env_blob:result <- $r5
	@DEBUG_VALUE: create_env_blob:env_addr <- $r4
	@DEBUG_VALUE: create_env_blob:is_full <- [DW_OP_plus_uconst 3, DW_OP_deref] $sp
	@DEBUG_VALUE: create_env_blob:result <- $r5
	.loc	2 1346 13                       @ packages/EasyFlash-v4.1.0/src/ef_env.c:1346:13
	cbz	r5, .LBB17_12
.Ltmp248:
.LBB17_8:
	@DEBUG_VALUE: create_env_blob:sector <- $r7
	@DEBUG_VALUE: create_env_blob:result <- $r5
	@DEBUG_VALUE: create_env_blob:env_addr <- $r4
	@DEBUG_VALUE: create_env_blob:is_full <- [DW_OP_plus_uconst 3, DW_OP_deref] $sp
	@DEBUG_VALUE: create_env_blob:result <- $r5
	.loc	2 1358 13                       @ packages/EasyFlash-v4.1.0/src/ef_env.c:1358:13
	cbz	r5, .LBB17_15
.Ltmp249:
.LBB17_9:
	@DEBUG_VALUE: create_env_blob:sector <- $r7
	@DEBUG_VALUE: create_env_blob:result <- $r5
	@DEBUG_VALUE: create_env_blob:env_addr <- $r4
	@DEBUG_VALUE: create_env_blob:result <- $r5
	.loc	2 1363 13                       @ packages/EasyFlash-v4.1.0/src/ef_env.c:1363:13
	cmp	r5, #0
	beq	.LBB17_16
.Ltmp250:
.LBB17_10:
	@DEBUG_VALUE: create_env_blob:sector <- $r7
	@DEBUG_VALUE: create_env_blob:result <- $r5
	@DEBUG_VALUE: create_env_blob:env_addr <- $r4
	@DEBUG_VALUE: create_env_blob:result <- $r5
	@DEBUG_VALUE: create_env_blob:is_full <- undef
	.loc	2 1367 33                       @ packages/EasyFlash-v4.1.0/src/ef_env.c:1367:33
	cmp	r5, #0
	beq	.LBB17_17
	b	.LBB17_20
.Ltmp251:
.LBB17_11:
	@DEBUG_VALUE: create_env_blob:sector <- $r7
	@DEBUG_VALUE: create_env_blob:result <- $r5
	@DEBUG_VALUE: create_env_blob:env_addr <- $r4
	@DEBUG_VALUE: create_env_blob:is_full <- [DW_OP_plus_uconst 3, DW_OP_deref] $sp
	.loc	2 0 33 is_stmt 0                @ packages/EasyFlash-v4.1.0/src/ef_env.c:0:33
	add	r0, sp, #4
.Ltmp252:
	.loc	2 1330 29 is_stmt 1             @ packages/EasyFlash-v4.1.0/src/ef_env.c:1330:29
	movs	r2, #8
.Ltmp253:
	.loc	2 0 0 is_stmt 0                 @ packages/EasyFlash-v4.1.0/src/ef_env.c:0:0
	add.w	r1, r0, #16
.Ltmp254:
	@DEBUG_VALUE: ff <- -1
	.loc	2 1330 29                       @ packages/EasyFlash-v4.1.0/src/ef_env.c:1330:29
	movs	r0, #0
	bl	ef_calc_crc32
	.loc	2 1331 71 is_stmt 1             @ packages/EasyFlash-v4.1.0/src/ef_env.c:1331:71
	ldrb.w	r2, [sp, #20]
	.loc	2 1331 29 is_stmt 0             @ packages/EasyFlash-v4.1.0/src/ef_env.c:1331:29
	mov	r1, r6
	.loc	2 1330 27 is_stmt 1             @ packages/EasyFlash-v4.1.0/src/ef_env.c:1330:27
	str	r0, [sp, #16]
	.loc	2 1331 29                       @ packages/EasyFlash-v4.1.0/src/ef_env.c:1331:29
	bl	ef_calc_crc32
	.loc	2 1336 73                       @ packages/EasyFlash-v4.1.0/src/ef_env.c:1336:73
	ldr	r2, [sp, #24]
	.loc	2 1336 29 is_stmt 0             @ packages/EasyFlash-v4.1.0/src/ef_env.c:1336:29
	mov	r1, r8
	.loc	2 1331 27 is_stmt 1             @ packages/EasyFlash-v4.1.0/src/ef_env.c:1331:27
	str	r0, [sp, #16]
.Ltmp255:
	@DEBUG_VALUE: align_remain <- -1
	.loc	2 1336 29                       @ packages/EasyFlash-v4.1.0/src/ef_env.c:1336:29
	bl	ef_calc_crc32
	.loc	2 1336 27 is_stmt 0             @ packages/EasyFlash-v4.1.0/src/ef_env.c:1336:27
	str	r0, [sp, #16]
	add	r1, sp, #4
	.loc	2 1342 22 is_stmt 1             @ packages/EasyFlash-v4.1.0/src/ef_env.c:1342:22
	mov	r0, r4
	bl	write_env_hdr
	mov	r5, r0
.Ltmp256:
	@DEBUG_VALUE: create_env_blob:result <- undef
	@DEBUG_VALUE: create_env_blob:result <- $r5
	.loc	2 1346 13                       @ packages/EasyFlash-v4.1.0/src/ef_env.c:1346:13
	cmp	r5, #0
	bne	.LBB17_8
.Ltmp257:
.LBB17_12:
	@DEBUG_VALUE: create_env_blob:sector <- $r7
	@DEBUG_VALUE: create_env_blob:result <- $r5
	@DEBUG_VALUE: create_env_blob:env_addr <- $r4
	@DEBUG_VALUE: create_env_blob:is_full <- [DW_OP_plus_uconst 3, DW_OP_deref] $sp
	.loc	2 1347 90                       @ packages/EasyFlash-v4.1.0/src/ef_env.c:1347:90
	ldrb.w	r2, [sp, #20]
	.loc	2 1347 43 is_stmt 0             @ packages/EasyFlash-v4.1.0/src/ef_env.c:1347:43
	add.w	r9, r4, #24
	.loc	2 1347 22                       @ packages/EasyFlash-v4.1.0/src/ef_env.c:1347:22
	mov	r0, r9
	mov	r1, r6
	bl	align_write
.Ltmp258:
	.loc	2 1350 18 is_stmt 1             @ packages/EasyFlash-v4.1.0/src/ef_env.c:1350:18
	ldrb.w	r1, [sp, #3]
.Ltmp259:
	@DEBUG_VALUE: create_env_blob:is_full <- $r1
	.loc	2 1347 22                       @ packages/EasyFlash-v4.1.0/src/ef_env.c:1347:22
	mov	r5, r0
.Ltmp260:
	@DEBUG_VALUE: create_env_blob:result <- undef
	.loc	2 1350 17                       @ packages/EasyFlash-v4.1.0/src/ef_env.c:1350:17
	cbnz	r1, .LBB17_14
.Ltmp261:
@ %bb.13:
	@DEBUG_VALUE: create_env_blob:sector <- $r7
	@DEBUG_VALUE: create_env_blob:env_addr <- $r4
	@DEBUG_VALUE: create_env_blob:is_full <- $r1
	.loc	2 1352 56                       @ packages/EasyFlash-v4.1.0/src/ef_env.c:1352:56
	ldrb.w	r0, [sp, #20]
	.loc	2 1352 88 is_stmt 0             @ packages/EasyFlash-v4.1.0/src/ef_env.c:1352:88
	ldr	r2, [sp, #24]
	.loc	2 1352 54                       @ packages/EasyFlash-v4.1.0/src/ef_env.c:1352:54
	add.w	r1, r9, r0
.Ltmp262:
	.loc	2 1351 45 is_stmt 1             @ packages/EasyFlash-v4.1.0/src/ef_env.c:1351:45
	ldr	r0, [r7, #4]
	.loc	2 1352 86                       @ packages/EasyFlash-v4.1.0/src/ef_env.c:1352:86
	add	r1, r2
	.loc	2 1351 17                       @ packages/EasyFlash-v4.1.0/src/ef_env.c:1351:17
	bl	update_sector_cache
.Ltmp263:
.LBB17_14:
	@DEBUG_VALUE: create_env_blob:sector <- $r7
	@DEBUG_VALUE: create_env_blob:env_addr <- $r4
	.loc	2 1354 43                       @ packages/EasyFlash-v4.1.0/src/ef_env.c:1354:43
	ldrb.w	r1, [sp, #20]
	.loc	2 1354 13 is_stmt 0             @ packages/EasyFlash-v4.1.0/src/ef_env.c:1354:13
	mov	r0, r6
	mov	r2, r4
	bl	update_env_cache
.Ltmp264:
	@DEBUG_VALUE: create_env_blob:result <- $r5
	.loc	2 1358 13 is_stmt 1             @ packages/EasyFlash-v4.1.0/src/ef_env.c:1358:13
	cmp	r5, #0
	bne	.LBB17_9
.Ltmp265:
.LBB17_15:
	@DEBUG_VALUE: create_env_blob:sector <- $r7
	@DEBUG_VALUE: create_env_blob:result <- $r5
	@DEBUG_VALUE: create_env_blob:env_addr <- $r4
	.loc	2 1359 65                       @ packages/EasyFlash-v4.1.0/src/ef_env.c:1359:65
	ldrb.w	r0, [sp, #20]
	.loc	2 1360 29                       @ packages/EasyFlash-v4.1.0/src/ef_env.c:1360:29
	ldr	r2, [sp, #24]
	.loc	2 1359 22                       @ packages/EasyFlash-v4.1.0/src/ef_env.c:1359:22
	mov	r1, r8
	.loc	2 1359 43 is_stmt 0             @ packages/EasyFlash-v4.1.0/src/ef_env.c:1359:43
	add	r0, r4
	.loc	2 1359 63                       @ packages/EasyFlash-v4.1.0/src/ef_env.c:1359:63
	adds	r0, #24
	.loc	2 1359 22                       @ packages/EasyFlash-v4.1.0/src/ef_env.c:1359:22
	bl	align_write
	mov	r5, r0
.Ltmp266:
	@DEBUG_VALUE: create_env_blob:result <- undef
	@DEBUG_VALUE: create_env_blob:result <- $r5
	.loc	2 1363 13 is_stmt 1             @ packages/EasyFlash-v4.1.0/src/ef_env.c:1363:13
	cmp	r5, #0
	bne	.LBB17_10
.Ltmp267:
.LBB17_16:
	@DEBUG_VALUE: create_env_blob:sector <- $r7
	@DEBUG_VALUE: create_env_blob:result <- $r5
	@DEBUG_VALUE: create_env_blob:env_addr <- $r4
	.loc	2 0 13 is_stmt 0                @ packages/EasyFlash-v4.1.0/src/ef_env.c:0:13
	add	r1, sp, #4
.Ltmp268:
	.loc	2 1364 22 is_stmt 1             @ packages/EasyFlash-v4.1.0/src/ef_env.c:1364:22
	movs	r2, #6
	movs	r3, #2
	mov	r0, r4
	bl	write_status
	mov	r5, r0
.Ltmp269:
	@DEBUG_VALUE: create_env_blob:result <- undef
	@DEBUG_VALUE: create_env_blob:result <- $r5
	@DEBUG_VALUE: create_env_blob:is_full <- undef
	.loc	2 1367 33                       @ packages/EasyFlash-v4.1.0/src/ef_env.c:1367:33
	cbnz	r5, .LBB17_20
.Ltmp270:
.LBB17_17:
	@DEBUG_VALUE: create_env_blob:sector <- $r7
	@DEBUG_VALUE: create_env_blob:result <- $r5
	@DEBUG_VALUE: create_env_blob:env_addr <- $r4
	.loc	2 0 33 is_stmt 0                @ packages/EasyFlash-v4.1.0/src/ef_env.c:0:33
	ldrb.w	r0, [sp, #3]
	.loc	2 1367 33                       @ packages/EasyFlash-v4.1.0/src/ef_env.c:1367:33
	cbz	r0, .LBB17_20
.Ltmp271:
@ %bb.18:
	@DEBUG_VALUE: create_env_blob:sector <- $r7
	@DEBUG_VALUE: create_env_blob:result <- $r5
	@DEBUG_VALUE: create_env_blob:env_addr <- $r4
	.loc	2 1368 13 is_stmt 1             @ packages/EasyFlash-v4.1.0/src/ef_env.c:1368:13
	movw	r0, :lower16:.L.str.2
	adr	r2, .LCPI17_0
	movt	r0, :upper16:.L.str.2
	mov.w	r1, #1368
	bl	ef_log_debug
	.loc	2 1369 24                       @ packages/EasyFlash-v4.1.0/src/ef_env.c:1369:24
	movw	r0, :lower16:gc_request
	movs	r1, #1
	movt	r0, :upper16:gc_request
	strb	r1, [r0]
	b	.LBB17_20
.Ltmp272:
.LBB17_19:
	@DEBUG_VALUE: create_env_blob:sector <- $r7
	@DEBUG_VALUE: create_env_blob:env_addr <- $r4
	@DEBUG_VALUE: create_env_blob:result <- 0
	@DEBUG_VALUE: create_env_blob:is_full <- 0
	.loc	2 0 24 is_stmt 0                @ packages/EasyFlash-v4.1.0/src/ef_env.c:0:24
	movs	r5, #6
.Ltmp273:
.LBB17_20:
	@DEBUG_VALUE: create_env_blob:sector <- $r7
	@DEBUG_VALUE: create_env_blob:env_addr <- $r4
	.loc	2 1376 1 is_stmt 1              @ packages/EasyFlash-v4.1.0/src/ef_env.c:1376:1
	mov	r0, r5
	add	sp, #28
	pop.w	{r4, r5, r6, r7, r8, r9, pc}
.Ltmp274:
	.p2align	2
@ %bb.21:
	.loc	2 0 1 is_stmt 0                 @ packages/EasyFlash-v4.1.0/src/ef_env.c:0:1
.LCPI17_0:
.L.str.24:
	.asciz	"Trigger a GC check after created ENV.\n\000"
.LCPI17_1:
.L.str.23:
	.asciz	"Error: The ENV size is too big\n"
.LCPI17_2:
.L.str.22:
	.asciz	"Error: The ENV name length is more than %d\n"
.Lfunc_end17:
	.size	create_env_blob, .Lfunc_end17-create_env_blob
	.cfi_endproc
	.cantunwind
	.fnend
                                        @ -- End function
	.section	.text.ef_print_env,"ax",%progbits
	.hidden	ef_print_env                    @ -- Begin function ef_print_env
	.globl	ef_print_env
	.p2align	3
	.type	ef_print_env,%function
	.code	16                              @ @ef_print_env
	.thumb_func
ef_print_env:
.Lfunc_begin18:
	.loc	2 1626 0 is_stmt 1              @ packages/EasyFlash-v4.1.0/src/ef_env.c:1626:0
	.fnstart
	.cfi_startproc
@ %bb.0:
	.save	{r7, lr}
	push	{r7, lr}
	.cfi_def_cfa_offset 8
	.cfi_offset lr, -4
	.cfi_offset r7, -8
	.pad	#64
	sub	sp, #64
	.cfi_def_cfa_offset 72
.Ltmp275:
	.loc	2 1630 10 prologue_end          @ packages/EasyFlash-v4.1.0/src/ef_env.c:1630:10
	movw	r0, :lower16:init_ok
	movt	r0, :upper16:init_ok
	ldrb	r0, [r0]
.Ltmp276:
	.loc	2 1630 9 is_stmt 0              @ packages/EasyFlash-v4.1.0/src/ef_env.c:1630:9
	cmp	r0, #0
	mov.w	r0, #0
.Ltmp277:
	@DEBUG_VALUE: ef_print_env:using_size <- 0
	.loc	2 1628 12 is_stmt 1             @ packages/EasyFlash-v4.1.0/src/ef_env.c:1628:12
	str	r0, [sp, #4]
	.loc	2 1630 9                        @ packages/EasyFlash-v4.1.0/src/ef_env.c:1630:9
	beq	.LBB18_2
.Ltmp278:
@ %bb.1:
	@DEBUG_VALUE: ef_print_env:using_size <- 0
	.loc	2 1636 5                        @ packages/EasyFlash-v4.1.0/src/ef_env.c:1636:5
	bl	ef_port_env_lock
.Ltmp279:
	@DEBUG_VALUE: ef_print_env:using_size <- [DW_OP_plus_uconst 4, DW_OP_deref] $sp
	.loc	2 1638 5                        @ packages/EasyFlash-v4.1.0/src/ef_env.c:1638:5
	movw	r3, :lower16:print_env_cb
	add	r0, sp, #8
	movt	r3, :upper16:print_env_cb
	add	r1, sp, #4
	movs	r2, #0
	bl	env_iterator
	.loc	2 1640 5                        @ packages/EasyFlash-v4.1.0/src/ef_env.c:1640:5
	adr	r0, .LCPI18_0
	bl	ef_print
	.loc	2 1641 40                       @ packages/EasyFlash-v4.1.0/src/ef_env.c:1641:40
	ldr	r0, [sp, #4]
.Ltmp280:
	@DEBUG_VALUE: ef_print_env:using_size <- $r0
	.loc	2 1641 5 is_stmt 0              @ packages/EasyFlash-v4.1.0/src/ef_env.c:1641:5
	mov.w	r2, #4096
	.loc	2 1641 51                       @ packages/EasyFlash-v4.1.0/src/ef_env.c:1641:51
	add.w	r1, r0, #16
	.loc	2 1641 5                        @ packages/EasyFlash-v4.1.0/src/ef_env.c:1641:5
	adr	r0, .LCPI18_1
.Ltmp281:
	bl	ef_print
	.loc	2 1645 5 is_stmt 1              @ packages/EasyFlash-v4.1.0/src/ef_env.c:1645:5
	bl	ef_port_env_unlock
	.loc	2 1646 1                        @ packages/EasyFlash-v4.1.0/src/ef_env.c:1646:1
	add	sp, #64
	pop	{r7, pc}
.LBB18_2:
.Ltmp282:
	@DEBUG_VALUE: ef_print_env:using_size <- 0
	.loc	2 1631 9                        @ packages/EasyFlash-v4.1.0/src/ef_env.c:1631:9
	movw	r0, :lower16:.L.str
	movt	r0, :upper16:.L.str
	bl	ef_log_info
.Ltmp283:
	.loc	2 1646 1                        @ packages/EasyFlash-v4.1.0/src/ef_env.c:1646:1
	add	sp, #64
	pop	{r7, pc}
.Ltmp284:
	.p2align	2
@ %bb.3:
	.loc	2 0 1 is_stmt 0                 @ packages/EasyFlash-v4.1.0/src/ef_env.c:0:1
.LCPI18_0:
.L.str.9:
	.asciz	"\nmode: next generation\n"
.LCPI18_1:
.L.str.10:
	.asciz	"size: %lu/%lu bytes.\n\000\000"
.Lfunc_end18:
	.size	ef_print_env, .Lfunc_end18-ef_print_env
	.cfi_endproc
	.cantunwind
	.fnend
                                        @ -- End function
	.section	.text.env_iterator,"ax",%progbits
	.p2align	3                               @ -- Begin function env_iterator
	.type	env_iterator,%function
	.code	16                              @ @env_iterator
	.thumb_func
env_iterator:
.Lfunc_begin19:
	.loc	2 682 0 is_stmt 1               @ packages/EasyFlash-v4.1.0/src/ef_env.c:682:0
	.fnstart
	.cfi_startproc
@ %bb.0:
	@DEBUG_VALUE: env_iterator:env <- $r0
	@DEBUG_VALUE: env_iterator:arg1 <- $r1
	@DEBUG_VALUE: env_iterator:arg2 <- $r2
	@DEBUG_VALUE: env_iterator:callback <- $r3
	.save	{r4, r5, r6, r7, r8, r9, lr}
	push.w	{r4, r5, r6, r7, r8, r9, lr}
	.cfi_def_cfa_offset 28
	.cfi_offset lr, -4
	.cfi_offset r9, -8
	.cfi_offset r8, -12
	.cfi_offset r7, -16
	.cfi_offset r6, -20
	.cfi_offset r5, -24
	.cfi_offset r4, -28
	.pad	#28
	sub	sp, #28
	.cfi_def_cfa_offset 56
	mov	r7, r0
.Ltmp285:
	@DEBUG_VALUE: env_iterator:env <- $r7
	add	r0, sp, #4
	mov	r4, r3
.Ltmp286:
	@DEBUG_VALUE: env_iterator:callback <- $r4
	mov	r5, r2
.Ltmp287:
	@DEBUG_VALUE: env_iterator:arg2 <- $r5
	mov	r6, r1
.Ltmp288:
	@DEBUG_VALUE: env_iterator:arg1 <- $r6
	mov.w	r9, #-1
	@DEBUG_VALUE: env_iterator:callback <- $r4
	@DEBUG_VALUE: env_iterator:arg2 <- $r5
	@DEBUG_VALUE: env_iterator:arg1 <- $r6
	@DEBUG_VALUE: env_iterator:env <- $r7
.Ltmp289:
	.loc	2 686 17 prologue_end           @ packages/EasyFlash-v4.1.0/src/ef_env.c:686:17
	str.w	r9, [sp, #8]
	.loc	2 688 24                        @ packages/EasyFlash-v4.1.0/src/ef_env.c:688:24
	bl	get_next_sector_addr
.Ltmp290:
	@DEBUG_VALUE: env_iterator:sec_addr <- $r0
	.loc	2 688 5 is_stmt 0               @ packages/EasyFlash-v4.1.0/src/ef_env.c:688:5
	adds	r1, r0, #1
	beq	.LBB19_9
.Ltmp291:
@ %bb.1:
	@DEBUG_VALUE: env_iterator:env <- $r7
	@DEBUG_VALUE: env_iterator:arg1 <- $r6
	@DEBUG_VALUE: env_iterator:arg2 <- $r5
	@DEBUG_VALUE: env_iterator:callback <- $r4
	@DEBUG_VALUE: env_iterator:sec_addr <- $r0
	.loc	2 0 5                           @ packages/EasyFlash-v4.1.0/src/ef_env.c:0:5
	add.w	r8, sp, #4
	b	.LBB19_3
.Ltmp292:
	.p2align	2
.LBB19_2:                               @   in Loop: Header=BB19_3 Depth=1
	@DEBUG_VALUE: env_iterator:env <- $r7
	@DEBUG_VALUE: env_iterator:arg1 <- $r6
	@DEBUG_VALUE: env_iterator:arg2 <- $r5
	@DEBUG_VALUE: env_iterator:callback <- $r4
	.loc	2 688 24                        @ packages/EasyFlash-v4.1.0/src/ef_env.c:688:24
	mov	r0, r8
	bl	get_next_sector_addr
.Ltmp293:
	@DEBUG_VALUE: env_iterator:sec_addr <- $r0
	.loc	2 688 5                         @ packages/EasyFlash-v4.1.0/src/ef_env.c:688:5
	adds	r1, r0, #1
	beq	.LBB19_9
.Ltmp294:
.LBB19_3:                               @ =>This Loop Header: Depth=1
                                        @     Child Loop BB19_7 Depth 2
	@DEBUG_VALUE: env_iterator:env <- $r7
	@DEBUG_VALUE: env_iterator:arg1 <- $r6
	@DEBUG_VALUE: env_iterator:arg2 <- $r5
	@DEBUG_VALUE: env_iterator:callback <- $r4
	@DEBUG_VALUE: env_iterator:sec_addr <- $r0
	.loc	2 689 13 is_stmt 1              @ packages/EasyFlash-v4.1.0/src/ef_env.c:689:13
	movs	r2, #0
	mov	r1, r8
	bl	read_sector_meta_data
.Ltmp295:
	.loc	2 689 13 is_stmt 0              @ packages/EasyFlash-v4.1.0/src/ef_env.c:689:13
	cmp	r4, #0
	beq	.LBB19_2
.Ltmp296:
@ %bb.4:                                @   in Loop: Header=BB19_3 Depth=1
	@DEBUG_VALUE: env_iterator:env <- $r7
	@DEBUG_VALUE: env_iterator:arg1 <- $r6
	@DEBUG_VALUE: env_iterator:arg2 <- $r5
	@DEBUG_VALUE: env_iterator:callback <- $r4
	cmp	r0, #0
	bne	.LBB19_2
.Ltmp297:
@ %bb.5:                                @   in Loop: Header=BB19_3 Depth=1
	@DEBUG_VALUE: env_iterator:env <- $r7
	@DEBUG_VALUE: env_iterator:arg1 <- $r6
	@DEBUG_VALUE: env_iterator:arg2 <- $r5
	@DEBUG_VALUE: env_iterator:callback <- $r4
	.loc	2 696 27 is_stmt 1              @ packages/EasyFlash-v4.1.0/src/ef_env.c:696:27
	ldrb.w	r0, [sp, #5]
	.loc	2 696 55 is_stmt 0              @ packages/EasyFlash-v4.1.0/src/ef_env.c:696:55
	and	r0, r0, #254
	cmp	r0, #2
	bne	.LBB19_2
.Ltmp298:
@ %bb.6:                                @   in Loop: Header=BB19_3 Depth=1
	@DEBUG_VALUE: env_iterator:env <- $r7
	@DEBUG_VALUE: env_iterator:arg1 <- $r6
	@DEBUG_VALUE: env_iterator:arg2 <- $r5
	@DEBUG_VALUE: env_iterator:callback <- $r4
	.loc	2 697 29 is_stmt 1              @ packages/EasyFlash-v4.1.0/src/ef_env.c:697:29
	str.w	r9, [r7, #48]
.Ltmp299:
	.p2align	2
.LBB19_7:                               @   Parent Loop BB19_3 Depth=1
                                        @ =>  This Inner Loop Header: Depth=2
	@DEBUG_VALUE: env_iterator:env <- $r7
	@DEBUG_VALUE: env_iterator:arg1 <- $r6
	@DEBUG_VALUE: env_iterator:arg2 <- $r5
	@DEBUG_VALUE: env_iterator:callback <- $r4
	.loc	2 699 39                        @ packages/EasyFlash-v4.1.0/src/ef_env.c:699:39
	mov	r0, r8
	mov	r1, r7
	bl	get_next_env_addr
	.loc	2 699 13 is_stmt 0              @ packages/EasyFlash-v4.1.0/src/ef_env.c:699:13
	adds	r1, r0, #1
	.loc	2 699 37                        @ packages/EasyFlash-v4.1.0/src/ef_env.c:699:37
	str	r0, [r7, #48]
	.loc	2 699 13                        @ packages/EasyFlash-v4.1.0/src/ef_env.c:699:13
	beq	.LBB19_2
.Ltmp300:
@ %bb.8:                                @   in Loop: Header=BB19_7 Depth=2
	@DEBUG_VALUE: env_iterator:env <- $r7
	@DEBUG_VALUE: env_iterator:arg1 <- $r6
	@DEBUG_VALUE: env_iterator:arg2 <- $r5
	@DEBUG_VALUE: env_iterator:callback <- $r4
	.loc	2 700 17 is_stmt 1              @ packages/EasyFlash-v4.1.0/src/ef_env.c:700:17
	mov	r0, r7
	bl	read_env
.Ltmp301:
	.loc	2 702 21                        @ packages/EasyFlash-v4.1.0/src/ef_env.c:702:21
	mov	r0, r7
	mov	r1, r6
	mov	r2, r5
	blx	r4
.Ltmp302:
	.loc	2 702 21 is_stmt 0              @ packages/EasyFlash-v4.1.0/src/ef_env.c:702:21
	cmp	r0, #0
	beq	.LBB19_7
.Ltmp303:
.LBB19_9:
	@DEBUG_VALUE: env_iterator:env <- $r7
	@DEBUG_VALUE: env_iterator:arg1 <- $r6
	@DEBUG_VALUE: env_iterator:arg2 <- $r5
	@DEBUG_VALUE: env_iterator:callback <- $r4
	.loc	2 708 1 is_stmt 1               @ packages/EasyFlash-v4.1.0/src/ef_env.c:708:1
	add	sp, #28
	pop.w	{r4, r5, r6, r7, r8, r9, pc}
.Ltmp304:
.Lfunc_end19:
	.size	env_iterator, .Lfunc_end19-env_iterator
	.cfi_endproc
	.cantunwind
	.fnend
                                        @ -- End function
	.section	.text.print_env_cb,"ax",%progbits
	.p2align	3                               @ -- Begin function print_env_cb
	.type	print_env_cb,%function
	.code	16                              @ @print_env_cb
	.thumb_func
print_env_cb:
.Lfunc_begin20:
	.loc	2 1575 0                        @ packages/EasyFlash-v4.1.0/src/ef_env.c:1575:0
	.fnstart
	.cfi_startproc
@ %bb.0:
	@DEBUG_VALUE: print_env_cb:env <- $r0
	@DEBUG_VALUE: print_env_cb:arg1 <- $r1
	@DEBUG_VALUE: print_env_cb:arg2 <- $r2
	.save	{r4, r5, r6, r7, r8, r9, r10, r11, lr}
	push.w	{r4, r5, r6, r7, r8, r9, r10, r11, lr}
	.cfi_def_cfa_offset 36
	.cfi_offset lr, -4
	.cfi_offset r11, -8
	.cfi_offset r10, -12
	.cfi_offset r9, -16
	.cfi_offset r8, -20
	.cfi_offset r7, -24
	.cfi_offset r6, -28
	.cfi_offset r5, -32
	.cfi_offset r4, -36
	.pad	#36
	sub	sp, #36
	.cfi_def_cfa_offset 72
	mov	r11, r0
.Ltmp305:
	@DEBUG_VALUE: print_env_cb:using_size <- undef
	@DEBUG_VALUE: print_env_cb:print_value <- 0
	@DEBUG_VALUE: print_env_cb:value_is_str <- 1
	@DEBUG_VALUE: print_env_cb:env <- $r11
	.loc	2 1579 14 prologue_end          @ packages/EasyFlash-v4.1.0/src/ef_env.c:1579:14
	ldrb	r0, [r0, #1]
.Ltmp306:
	.loc	2 1579 9 is_stmt 0              @ packages/EasyFlash-v4.1.0/src/ef_env.c:1579:9
	cmp	r0, #0
	@DEBUG_VALUE: print_env_cb:arg1 <- $r1
	beq	.LBB20_17
.Ltmp307:
@ %bb.1:
	@DEBUG_VALUE: print_env_cb:env <- $r11
	@DEBUG_VALUE: print_env_cb:arg2 <- $r2
	@DEBUG_VALUE: print_env_cb:arg1 <- $r1
	@DEBUG_VALUE: print_env_cb:value_is_str <- 1
	@DEBUG_VALUE: print_env_cb:print_value <- 0
	.loc	2 1583 18 is_stmt 1             @ packages/EasyFlash-v4.1.0/src/ef_env.c:1583:18
	ldrb.w	r0, [r11]
.Ltmp308:
	.loc	2 1581 21                       @ packages/EasyFlash-v4.1.0/src/ef_env.c:1581:21
	ldr	r3, [r1]
	.loc	2 1581 29 is_stmt 0             @ packages/EasyFlash-v4.1.0/src/ef_env.c:1581:29
	ldr.w	r2, [r11, #8]
.Ltmp309:
	@DEBUG_VALUE: print_env_cb:arg2 <- [DW_OP_LLVM_entry_value 1] $r2
	.loc	2 1583 13 is_stmt 1             @ packages/EasyFlash-v4.1.0/src/ef_env.c:1583:13
	cmp	r0, #2
	.loc	2 1581 21                       @ packages/EasyFlash-v4.1.0/src/ef_env.c:1581:21
	add.w	r0, r3, r2
	str	r0, [r1]
	.loc	2 1583 13                       @ packages/EasyFlash-v4.1.0/src/ef_env.c:1583:13
	bne	.LBB20_17
.Ltmp310:
@ %bb.2:
	@DEBUG_VALUE: print_env_cb:env <- $r11
	@DEBUG_VALUE: print_env_cb:arg1 <- $r1
	@DEBUG_VALUE: print_env_cb:arg2 <- [DW_OP_LLVM_entry_value 1] $r2
	@DEBUG_VALUE: print_env_cb:value_is_str <- 1
	@DEBUG_VALUE: print_env_cb:print_value <- 0
	.loc	2 1584 36                       @ packages/EasyFlash-v4.1.0/src/ef_env.c:1584:36
	ldrb.w	r1, [r11, #2]
.Ltmp311:
	@DEBUG_VALUE: print_env_cb:arg1 <- [DW_OP_LLVM_entry_value 1] $r1
	.loc	2 1584 46 is_stmt 0             @ packages/EasyFlash-v4.1.0/src/ef_env.c:1584:46
	add.w	r2, r11, #16
	.loc	2 1584 13                       @ packages/EasyFlash-v4.1.0/src/ef_env.c:1584:13
	adr	r0, .LCPI20_0
	bl	ef_print
.Ltmp312:
	.loc	2 1586 22 is_stmt 1             @ packages/EasyFlash-v4.1.0/src/ef_env.c:1586:22
	ldr.w	r0, [r11, #12]
	mov.w	r9, #0
.Ltmp313:
	.loc	2 1586 17 is_stmt 0             @ packages/EasyFlash-v4.1.0/src/ef_env.c:1586:17
	cmp	r0, #127
	bhi	.LBB20_10
.Ltmp314:
@ %bb.3:
	@DEBUG_VALUE: print_env_cb:env <- $r11
	@DEBUG_VALUE: print_env_cb:arg1 <- [DW_OP_LLVM_entry_value 1] $r1
	@DEBUG_VALUE: print_env_cb:arg2 <- [DW_OP_LLVM_entry_value 1] $r2
	@DEBUG_VALUE: print_env_cb:value_is_str <- 1
	@DEBUG_VALUE: print_env_cb:print_value <- 0
	.loc	2 0 17                          @ packages/EasyFlash-v4.1.0/src/ef_env.c:0:17
	mov.w	r8, #1
.Ltmp315:
.LBB20_4:
	@DEBUG_VALUE: print_env_cb:env <- $r11
	@DEBUG_VALUE: print_env_cb:arg1 <- [DW_OP_LLVM_entry_value 1] $r1
	@DEBUG_VALUE: print_env_cb:arg2 <- [DW_OP_LLVM_entry_value 1] $r2
	@DEBUG_VALUE: print_env_cb:value_is_str <- undef
	@DEBUG_VALUE: print_env_cb:print_value <- undef
	@DEBUG_LABEL: __reload
	.loc	2 1591 52 is_stmt 1             @ packages/EasyFlash-v4.1.0/src/ef_env.c:1591:52
	ldr.w	r0, [r11, #12]
.Ltmp316:
	.loc	2 1591 17 is_stmt 0             @ packages/EasyFlash-v4.1.0/src/ef_env.c:1591:17
	cbz	r0, .LBB20_11
.Ltmp317:
@ %bb.5:
	@DEBUG_VALUE: print_env_cb:env <- $r11
	@DEBUG_VALUE: print_env_cb:arg1 <- [DW_OP_LLVM_entry_value 1] $r1
	@DEBUG_VALUE: print_env_cb:arg2 <- [DW_OP_LLVM_entry_value 1] $r2
	.loc	2 0 17                          @ packages/EasyFlash-v4.1.0/src/ef_env.c:0:17
	movs	r6, #0
	add	r5, sp, #4
	lsl.w	r4, r9, #31
	adr.w	r10, .LCPI20_1
	b	.LBB20_8
.Ltmp318:
	.p2align	2
.LBB20_6:                               @   in Loop: Header=BB20_8 Depth=1
	@DEBUG_VALUE: print_env_cb:env <- $r11
	@DEBUG_VALUE: print_env_cb:arg1 <- [DW_OP_LLVM_entry_value 1] $r1
	@DEBUG_VALUE: print_env_cb:arg2 <- [DW_OP_LLVM_entry_value 1] $r2
	.loc	2 1599 25 is_stmt 1             @ packages/EasyFlash-v4.1.0/src/ef_env.c:1599:25
	mov	r0, r10
	mov	r1, r7
	mov	r2, r5
	bl	ef_print
.Ltmp319:
.LBB20_7:                               @   in Loop: Header=BB20_8 Depth=1
	@DEBUG_VALUE: print_env_cb:env <- $r11
	@DEBUG_VALUE: print_env_cb:arg1 <- [DW_OP_LLVM_entry_value 1] $r1
	@DEBUG_VALUE: print_env_cb:arg2 <- [DW_OP_LLVM_entry_value 1] $r2
	.loc	2 1591 67                       @ packages/EasyFlash-v4.1.0/src/ef_env.c:1591:67
	add	r6, r7
	.loc	2 1591 52 is_stmt 0             @ packages/EasyFlash-v4.1.0/src/ef_env.c:1591:52
	ldr.w	r0, [r11, #12]
.Ltmp320:
	.loc	2 1591 17                       @ packages/EasyFlash-v4.1.0/src/ef_env.c:1591:17
	cmp	r0, r6
	bls	.LBB20_11
.Ltmp321:
.LBB20_8:                               @ =>This Inner Loop Header: Depth=1
	@DEBUG_VALUE: print_env_cb:env <- $r11
	@DEBUG_VALUE: print_env_cb:arg1 <- [DW_OP_LLVM_entry_value 1] $r1
	@DEBUG_VALUE: print_env_cb:arg2 <- [DW_OP_LLVM_entry_value 1] $r2
	.loc	2 1592 29 is_stmt 1             @ packages/EasyFlash-v4.1.0/src/ef_env.c:1592:29
	add.w	r1, r6, #32
.Ltmp322:
	.loc	2 1592 25 is_stmt 0             @ packages/EasyFlash-v4.1.0/src/ef_env.c:1592:25
	subs	r7, r0, r6
	cmp	r1, r0
	.loc	2 1597 44 is_stmt 1             @ packages/EasyFlash-v4.1.0/src/ef_env.c:1597:44
	ldr.w	r0, [r11, #52]
	.loc	2 1592 25                       @ packages/EasyFlash-v4.1.0/src/ef_env.c:1592:25
	it	lo
	movlo	r7, #32
	.loc	2 1597 50                       @ packages/EasyFlash-v4.1.0/src/ef_env.c:1597:50
	add	r0, r6
	.loc	2 1597 21 is_stmt 0             @ packages/EasyFlash-v4.1.0/src/ef_env.c:1597:21
	mov	r1, r5
	mov	r2, r7
	bl	ef_port_read
	.loc	2 1598 25 is_stmt 1             @ packages/EasyFlash-v4.1.0/src/ef_env.c:1598:25
	cmp	r4, #0
	bne	.LBB20_6
.Ltmp323:
@ %bb.9:                                @   in Loop: Header=BB20_8 Depth=1
	@DEBUG_VALUE: print_env_cb:env <- $r11
	@DEBUG_VALUE: print_env_cb:arg1 <- [DW_OP_LLVM_entry_value 1] $r1
	@DEBUG_VALUE: print_env_cb:arg2 <- [DW_OP_LLVM_entry_value 1] $r2
	.loc	2 1600 33                       @ packages/EasyFlash-v4.1.0/src/ef_env.c:1600:33
	mov	r0, r5
	mov	r1, r7
	bl	ef_is_str
.Ltmp324:
	.loc	2 1600 32 is_stmt 0             @ packages/EasyFlash-v4.1.0/src/ef_env.c:1600:32
	cmp	r0, #0
	bne	.LBB20_7
.Ltmp325:
.LBB20_10:
	@DEBUG_VALUE: print_env_cb:env <- $r11
	@DEBUG_VALUE: print_env_cb:arg1 <- [DW_OP_LLVM_entry_value 1] $r1
	@DEBUG_VALUE: print_env_cb:arg2 <- [DW_OP_LLVM_entry_value 1] $r2
	.loc	2 0 32                          @ packages/EasyFlash-v4.1.0/src/ef_env.c:0:32
	mov.w	r8, #0
.Ltmp326:
.LBB20_11:
	@DEBUG_VALUE: print_env_cb:env <- $r11
	@DEBUG_VALUE: print_env_cb:arg1 <- [DW_OP_LLVM_entry_value 1] $r1
	@DEBUG_VALUE: print_env_cb:arg2 <- [DW_OP_LLVM_entry_value 1] $r2
	@DEBUG_VALUE: print_env_cb:value_is_str <- undef
	@DEBUG_VALUE: print_env_cb:print_value <- undef
	.loc	2 1608 30 is_stmt 1             @ packages/EasyFlash-v4.1.0/src/ef_env.c:1608:30
	lsls.w	r0, r9, #31
	bne	.LBB20_14
.Ltmp327:
@ %bb.12:
	@DEBUG_VALUE: print_env_cb:env <- $r11
	@DEBUG_VALUE: print_env_cb:arg1 <- [DW_OP_LLVM_entry_value 1] $r1
	@DEBUG_VALUE: print_env_cb:arg2 <- [DW_OP_LLVM_entry_value 1] $r2
	lsls.w	r0, r8, #31
	beq	.LBB20_14
.Ltmp328:
@ %bb.13:
	@DEBUG_VALUE: print_env_cb:env <- $r11
	@DEBUG_VALUE: print_env_cb:arg1 <- [DW_OP_LLVM_entry_value 1] $r1
	@DEBUG_VALUE: print_env_cb:arg2 <- [DW_OP_LLVM_entry_value 1] $r2
	.loc	2 0 30 is_stmt 0                @ packages/EasyFlash-v4.1.0/src/ef_env.c:0:30
	mov.w	r9, #1
	b	.LBB20_4
.Ltmp329:
.LBB20_14:
	@DEBUG_VALUE: print_env_cb:env <- $r11
	@DEBUG_VALUE: print_env_cb:arg1 <- [DW_OP_LLVM_entry_value 1] $r1
	@DEBUG_VALUE: print_env_cb:arg2 <- [DW_OP_LLVM_entry_value 1] $r2
	.loc	2 1611 24 is_stmt 1             @ packages/EasyFlash-v4.1.0/src/ef_env.c:1611:24
	lsls.w	r0, r8, #31
	bne	.LBB20_16
.Ltmp330:
@ %bb.15:
	@DEBUG_VALUE: print_env_cb:env <- $r11
	@DEBUG_VALUE: print_env_cb:arg1 <- [DW_OP_LLVM_entry_value 1] $r1
	@DEBUG_VALUE: print_env_cb:arg2 <- [DW_OP_LLVM_entry_value 1] $r2
	.loc	2 1612 72                       @ packages/EasyFlash-v4.1.0/src/ef_env.c:1612:72
	ldr.w	r2, [r11, #12]
	.loc	2 1612 17 is_stmt 0             @ packages/EasyFlash-v4.1.0/src/ef_env.c:1612:17
	adr	r0, .LCPI20_2
	.loc	2 1612 60                       @ packages/EasyFlash-v4.1.0/src/ef_env.c:1612:60
	ldr.w	r1, [r11, #52]
	.loc	2 1612 17                       @ packages/EasyFlash-v4.1.0/src/ef_env.c:1612:17
	bl	ef_print
.Ltmp331:
.LBB20_16:
	@DEBUG_VALUE: print_env_cb:env <- $r11
	@DEBUG_VALUE: print_env_cb:arg1 <- [DW_OP_LLVM_entry_value 1] $r1
	@DEBUG_VALUE: print_env_cb:arg2 <- [DW_OP_LLVM_entry_value 1] $r2
	.loc	2 1614 13 is_stmt 1             @ packages/EasyFlash-v4.1.0/src/ef_env.c:1614:13
	adr	r0, .LCPI20_3
	bl	ef_print
.Ltmp332:
.LBB20_17:
	@DEBUG_VALUE: print_env_cb:env <- $r11
	.loc	2 1618 5                        @ packages/EasyFlash-v4.1.0/src/ef_env.c:1618:5
	movs	r0, #0
	add	sp, #36
	pop.w	{r4, r5, r6, r7, r8, r9, r10, r11, pc}
.Ltmp333:
	.p2align	2
@ %bb.18:
	.loc	2 0 5 is_stmt 0                 @ packages/EasyFlash-v4.1.0/src/ef_env.c:0:5
.LCPI20_0:
.L.str.27:
	.asciz	"%.*s=\000\000"
.LCPI20_1:
.L.str.28:
	.asciz	"%.*s\000\000\000"
.LCPI20_2:
.L.str.29:
	.asciz	"blob @0x%08X %dbytes\000\000\000"
.LCPI20_3:
.L.str.30:
	.asciz	"\n\000\000"
.Lfunc_end20:
	.size	print_env_cb, .Lfunc_end20-print_env_cb
	.cfi_endproc
	.cantunwind
	.fnend
                                        @ -- End function
	.section	.text.ef_load_env,"ax",%progbits
	.hidden	ef_load_env                     @ -- Begin function ef_load_env
	.globl	ef_load_env
	.p2align	3
	.type	ef_load_env,%function
	.code	16                              @ @ef_load_env
	.thumb_func
ef_load_env:
.Lfunc_begin21:
	.loc	2 1741 0 is_stmt 1              @ packages/EasyFlash-v4.1.0/src/ef_env.c:1741:0
	.fnstart
	.cfi_startproc
@ %bb.0:
	.save	{r4, r5, r6, r7, lr}
	push	{r4, r5, r6, r7, lr}
	.cfi_def_cfa_offset 20
	.cfi_offset lr, -4
	.cfi_offset r7, -8
	.cfi_offset r6, -12
	.cfi_offset r5, -16
	.cfi_offset r4, -20
	.pad	#92
	sub	sp, #92
	.cfi_def_cfa_offset 112
.Ltmp334:
	.loc	2 1747 23 prologue_end          @ packages/EasyFlash-v4.1.0/src/ef_env.c:1747:23
	movw	r6, :lower16:in_recovery_check
	movs	r0, #1
	movt	r6, :upper16:in_recovery_check
	add	r2, sp, #8
	.loc	2 1749 5                        @ packages/EasyFlash-v4.1.0/src/ef_env.c:1749:5
	movs	r1, #0
	movs	r3, #0
	.loc	2 1747 23                       @ packages/EasyFlash-v4.1.0/src/ef_env.c:1747:23
	strb	r0, [r6]
.Ltmp335:
	@DEBUG_VALUE: ef_load_env:check_failed_count <- [DW_OP_plus_uconst 8, DW_OP_deref] $sp
	.loc	2 1749 5                        @ packages/EasyFlash-v4.1.0/src/ef_env.c:1749:5
	movw	r0, :lower16:check_sec_hdr_cb
	movt	r0, :upper16:check_sec_hdr_cb
	str	r0, [sp]
	add	r0, sp, #12
	movs	r4, #0
.Ltmp336:
	@DEBUG_VALUE: ef_load_env:check_failed_count <- 0
	@DEBUG_VALUE: ef_load_env:result <- 0
	.loc	2 1745 12                       @ packages/EasyFlash-v4.1.0/src/ef_env.c:1745:12
	str	r4, [sp, #8]
	.loc	2 1749 5                        @ packages/EasyFlash-v4.1.0/src/ef_env.c:1749:5
	str	r4, [sp, #4]
	bl	sector_iterator
.Ltmp337:
	.loc	2 1751 9                        @ packages/EasyFlash-v4.1.0/src/ef_env.c:1751:9
	ldr	r0, [sp, #8]
.Ltmp338:
	@DEBUG_VALUE: ef_load_env:check_failed_count <- $r0
	.loc	2 1751 9 is_stmt 0              @ packages/EasyFlash-v4.1.0/src/ef_env.c:1751:9
	cmp	r0, #2
	bne	.LBB21_2
.Ltmp339:
@ %bb.1:
	@DEBUG_VALUE: ef_load_env:check_failed_count <- $r0
	@DEBUG_VALUE: ef_load_env:result <- 0
	.loc	2 1752 9 is_stmt 1              @ packages/EasyFlash-v4.1.0/src/ef_env.c:1752:9
	adr	r0, .LCPI21_0
.Ltmp340:
	bl	ef_log_info
	.loc	2 1753 9                        @ packages/EasyFlash-v4.1.0/src/ef_env.c:1753:9
	bl	ef_env_set_default
.Ltmp341:
.LBB21_2:
	@DEBUG_VALUE: ef_load_env:result <- 0
	.loc	2 1757 5                        @ packages/EasyFlash-v4.1.0/src/ef_env.c:1757:5
	bl	ef_port_env_lock
	.loc	2 1759 5                        @ packages/EasyFlash-v4.1.0/src/ef_env.c:1759:5
	movw	r0, :lower16:check_and_recovery_gc_cb
	movs	r1, #0
	movt	r0, :upper16:check_and_recovery_gc_cb
	str	r0, [sp]
	add	r0, sp, #12
	movs	r2, #0
	movs	r3, #0
	str	r4, [sp, #4]
	bl	sector_iterator
	@DEBUG_LABEL: ef_load_env:__retry
	.loc	2 1763 5                        @ packages/EasyFlash-v4.1.0/src/ef_env.c:1763:5
	movw	r3, :lower16:check_and_recovery_env_cb
	add	r0, sp, #36
	movt	r3, :upper16:check_and_recovery_env_cb
	movs	r1, #0
	movs	r2, #0
	bl	env_iterator
.Ltmp342:
	.loc	2 1764 9                        @ packages/EasyFlash-v4.1.0/src/ef_env.c:1764:9
	movw	r7, :lower16:gc_request
	movt	r7, :upper16:gc_request
	ldrb	r0, [r7]
.Ltmp343:
	.loc	2 1764 9 is_stmt 0              @ packages/EasyFlash-v4.1.0/src/ef_env.c:1764:9
	cmp	r0, #1
	bne	.LBB21_5
.Ltmp344:
@ %bb.3:
	@DEBUG_VALUE: ef_load_env:result <- 0
	.loc	2 0 9                           @ packages/EasyFlash-v4.1.0/src/ef_env.c:0:9
	movw	r4, :lower16:check_and_recovery_env_cb
	add	r5, sp, #36
	movt	r4, :upper16:check_and_recovery_env_cb
.Ltmp345:
	.p2align	2
.LBB21_4:                               @ =>This Inner Loop Header: Depth=1
	@DEBUG_VALUE: ef_load_env:result <- 0
	.loc	2 1765 9 is_stmt 1              @ packages/EasyFlash-v4.1.0/src/ef_env.c:1765:9
	bl	gc_collect
.Ltmp346:
	@DEBUG_LABEL: ef_load_env:__retry
	.loc	2 1763 5                        @ packages/EasyFlash-v4.1.0/src/ef_env.c:1763:5
	movs	r1, #0
	movs	r2, #0
	mov	r0, r5
	mov	r3, r4
	bl	env_iterator
.Ltmp347:
	.loc	2 1764 9                        @ packages/EasyFlash-v4.1.0/src/ef_env.c:1764:9
	ldrb	r0, [r7]
.Ltmp348:
	.loc	2 1764 9 is_stmt 0              @ packages/EasyFlash-v4.1.0/src/ef_env.c:1764:9
	cmp	r0, #0
	bne	.LBB21_4
.Ltmp349:
.LBB21_5:
	@DEBUG_VALUE: ef_load_env:result <- 0
	.loc	2 0 9                           @ packages/EasyFlash-v4.1.0/src/ef_env.c:0:9
	movs	r0, #0
	.loc	2 1769 23 is_stmt 1             @ packages/EasyFlash-v4.1.0/src/ef_env.c:1769:23
	strb	r0, [r6]
	.loc	2 1772 5                        @ packages/EasyFlash-v4.1.0/src/ef_env.c:1772:5
	bl	ef_port_env_unlock
	.loc	2 1774 5                        @ packages/EasyFlash-v4.1.0/src/ef_env.c:1774:5
	movs	r0, #0
	add	sp, #92
	pop	{r4, r5, r6, r7, pc}
.Ltmp350:
	.p2align	2
@ %bb.6:
	.loc	2 0 5 is_stmt 0                 @ packages/EasyFlash-v4.1.0/src/ef_env.c:0:5
.LCPI21_0:
.L.str.11:
	.asciz	"Warning: All sector header check failed. Set it to default.\n\000\000\000"
.Lfunc_end21:
	.size	ef_load_env, .Lfunc_end21-ef_load_env
	.cfi_endproc
	.cantunwind
	.fnend
                                        @ -- End function
	.section	.text.sector_iterator,"ax",%progbits
	.p2align	3                               @ -- Begin function sector_iterator
	.type	sector_iterator,%function
	.code	16                              @ @sector_iterator
	.thumb_func
sector_iterator:
.Lfunc_begin22:
	.loc	2 993 0 is_stmt 1               @ packages/EasyFlash-v4.1.0/src/ef_env.c:993:0
	.fnstart
	.cfi_startproc
@ %bb.0:
	@DEBUG_VALUE: sector_iterator:sector <- $r0
	@DEBUG_VALUE: sector_iterator:status <- $r1
	@DEBUG_VALUE: sector_iterator:arg1 <- $r2
	@DEBUG_VALUE: sector_iterator:arg2 <- $r3
	.save	{r4, r5, r6, r7, r8, r9, r10, lr}
	push.w	{r4, r5, r6, r7, r8, r9, r10, lr}
	.cfi_def_cfa_offset 32
	.cfi_offset lr, -4
	.cfi_offset r10, -8
	.cfi_offset r9, -12
	.cfi_offset r8, -16
	.cfi_offset r7, -20
	.cfi_offset r6, -24
	.cfi_offset r5, -28
	.cfi_offset r4, -32
	mov	r7, r0
.Ltmp351:
	@DEBUG_VALUE: sector_iterator:sector <- $r7
	@DEBUG_VALUE: sector_iterator:traversal_env <- [DW_OP_LLVM_convert 1 7, DW_OP_LLVM_convert 8 7, DW_OP_stack_value] undef
	mov.w	r0, #-1
.Ltmp352:
	@DEBUG_VALUE: sector_iterator:callback <- [DW_OP_plus_uconst 32] [$sp+0]
	@DEBUG_VALUE: sector_iterator:arg2 <- $r8
	@DEBUG_VALUE: sector_iterator:arg1 <- $r10
	@DEBUG_VALUE: sector_iterator:status <- $r6
	@DEBUG_VALUE: sector_iterator:sector <- $r7
	mov	r8, r3
.Ltmp353:
	mov	r10, r2
.Ltmp354:
	.loc	2 997 18 prologue_end           @ packages/EasyFlash-v4.1.0/src/ef_env.c:997:18
	str	r0, [r7, #4]
	.loc	2 998 24                        @ packages/EasyFlash-v4.1.0/src/ef_env.c:998:24
	mov	r0, r7
	mov	r6, r1
.Ltmp355:
	bl	get_next_sector_addr
	mov	r4, r0
.Ltmp356:
	@DEBUG_VALUE: sector_iterator:sec_addr <- $r4
	.loc	2 998 5 is_stmt 0               @ packages/EasyFlash-v4.1.0/src/ef_env.c:998:5
	adds	r0, #1
	.loc	2 1010 1 is_stmt 1              @ packages/EasyFlash-v4.1.0/src/ef_env.c:1010:1
	it	eq
	popeq.w	{r4, r5, r6, r7, r8, r9, r10, pc}
.Ltmp357:
.LBB22_1:
	@DEBUG_VALUE: sector_iterator:traversal_env <- [DW_OP_LLVM_convert 1 7, DW_OP_LLVM_convert 8 7, DW_OP_stack_value] $r9
	.loc	2 0 1 is_stmt 0                 @ packages/EasyFlash-v4.1.0/src/ef_env.c:0:1
	ldrd	r5, r9, [sp, #32]
.Ltmp358:
	b	.LBB22_3
	.p2align	2
.LBB22_2:                               @   in Loop: Header=BB22_3 Depth=1
	.loc	2 998 24 is_stmt 1              @ packages/EasyFlash-v4.1.0/src/ef_env.c:998:24
	mov	r0, r7
	bl	get_next_sector_addr
	mov	r4, r0
.Ltmp359:
	@DEBUG_VALUE: sector_iterator:sec_addr <- $r4
	.loc	2 998 5 is_stmt 0               @ packages/EasyFlash-v4.1.0/src/ef_env.c:998:5
	adds	r0, #1
	beq	.LBB22_9
.Ltmp360:
.LBB22_3:                               @ =>This Inner Loop Header: Depth=1
	.loc	2 999 9 is_stmt 1               @ packages/EasyFlash-v4.1.0/src/ef_env.c:999:9
	movs	r2, #0
	mov	r0, r4
	mov	r1, r7
	bl	read_sector_meta_data
.Ltmp361:
	.loc	2 1000 43                       @ packages/EasyFlash-v4.1.0/src/ef_env.c:1000:43
	cbz	r6, .LBB22_5
@ %bb.4:                                @   in Loop: Header=BB22_3 Depth=1
	.loc	2 1000 71 is_stmt 0             @ packages/EasyFlash-v4.1.0/src/ef_env.c:1000:71
	ldrb	r0, [r7, #1]
.Ltmp362:
	.loc	2 1000 13                       @ packages/EasyFlash-v4.1.0/src/ef_env.c:1000:13
	cmp	r0, r6
	bne	.LBB22_2
.LBB22_5:                               @   in Loop: Header=BB22_3 Depth=1
.Ltmp363:
	.loc	2 1001 17 is_stmt 1             @ packages/EasyFlash-v4.1.0/src/ef_env.c:1001:17
	cmp.w	r9, #0
	beq	.LBB22_7
@ %bb.6:                                @   in Loop: Header=BB22_3 Depth=1
.Ltmp364:
	.loc	2 1002 17                       @ packages/EasyFlash-v4.1.0/src/ef_env.c:1002:17
	movs	r2, #1
	mov	r0, r4
	mov	r1, r7
	bl	read_sector_meta_data
.Ltmp365:
.LBB22_7:                               @   in Loop: Header=BB22_3 Depth=1
	.loc	2 1005 26                       @ packages/EasyFlash-v4.1.0/src/ef_env.c:1005:26
	cmp	r5, #0
	beq	.LBB22_2
@ %bb.8:                                @   in Loop: Header=BB22_3 Depth=1
	.loc	2 1005 29 is_stmt 0             @ packages/EasyFlash-v4.1.0/src/ef_env.c:1005:29
	mov	r0, r7
	mov	r1, r10
	mov	r2, r8
	blx	r5
.Ltmp366:
	.loc	2 1005 17                       @ packages/EasyFlash-v4.1.0/src/ef_env.c:1005:17
	cmp	r0, #0
	beq	.LBB22_2
.Ltmp367:
.LBB22_9:
	.loc	2 1010 1 is_stmt 1              @ packages/EasyFlash-v4.1.0/src/ef_env.c:1010:1
	pop.w	{r4, r5, r6, r7, r8, r9, r10, pc}
.Ltmp368:
.Lfunc_end22:
	.size	sector_iterator, .Lfunc_end22-sector_iterator
	.cfi_endproc
	.cantunwind
	.fnend
                                        @ -- End function
	.section	.text.check_sec_hdr_cb,"ax",%progbits
	.p2align	3                               @ -- Begin function check_sec_hdr_cb
	.type	check_sec_hdr_cb,%function
	.code	16                              @ @check_sec_hdr_cb
	.thumb_func
check_sec_hdr_cb:
.Lfunc_begin23:
	.loc	2 1688 0                        @ packages/EasyFlash-v4.1.0/src/ef_env.c:1688:0
	.fnstart
	.cfi_startproc
@ %bb.0:
	@DEBUG_VALUE: check_sec_hdr_cb:sector <- $r0
	@DEBUG_VALUE: check_sec_hdr_cb:arg1 <- $r1
	@DEBUG_VALUE: check_sec_hdr_cb:arg2 <- $r2
	.save	{r4, r5, r7, lr}
	push	{r4, r5, r7, lr}
	.cfi_def_cfa_offset 16
	.cfi_offset lr, -4
	.cfi_offset r7, -8
	.cfi_offset r5, -12
	.cfi_offset r4, -16
	mov	r4, r0
.Ltmp369:
	@DEBUG_VALUE: check_sec_hdr_cb:sector <- $r4
	.loc	2 1689 18 prologue_end          @ packages/EasyFlash-v4.1.0/src/ef_env.c:1689:18
	ldrb	r0, [r0]
.Ltmp370:
	@DEBUG_VALUE: check_sec_hdr_cb:arg1 <- $r1
	.loc	2 1689 9 is_stmt 0              @ packages/EasyFlash-v4.1.0/src/ef_env.c:1689:9
	cbz	r0, .LBB23_2
.Ltmp371:
@ %bb.1:
	@DEBUG_VALUE: check_sec_hdr_cb:sector <- $r4
	@DEBUG_VALUE: check_sec_hdr_cb:arg2 <- $r2
	@DEBUG_VALUE: check_sec_hdr_cb:arg1 <- $r1
	.loc	2 1697 5 is_stmt 1              @ packages/EasyFlash-v4.1.0/src/ef_env.c:1697:5
	movs	r0, #0
	pop	{r4, r5, r7, pc}
.Ltmp372:
.LBB23_2:
	@DEBUG_VALUE: check_sec_hdr_cb:sector <- $r4
	@DEBUG_VALUE: check_sec_hdr_cb:arg2 <- $r2
	@DEBUG_VALUE: check_sec_hdr_cb:arg1 <- $r1
	.loc	2 1692 9                        @ packages/EasyFlash-v4.1.0/src/ef_env.c:1692:9
	movw	r0, :lower16:.L.str.31
	mov	r5, r1
.Ltmp373:
	@DEBUG_VALUE: check_sec_hdr_cb:arg1 <- $r5
	@DEBUG_VALUE: check_sec_hdr_cb:arg1 <- $r5
	@DEBUG_VALUE: failed_count <- $r5
	ldr	r1, [r4, #4]
	movt	r0, :upper16:.L.str.31
	bl	ef_log_info
.Ltmp374:
	@DEBUG_VALUE: check_sec_hdr_cb:arg2 <- [DW_OP_LLVM_entry_value 1] $r2
	.loc	2 1693 25                       @ packages/EasyFlash-v4.1.0/src/ef_env.c:1693:25
	ldr	r0, [r5]
	adds	r0, #1
	str	r0, [r5]
	.loc	2 1694 31                       @ packages/EasyFlash-v4.1.0/src/ef_env.c:1694:31
	ldr	r0, [r4, #4]
	.loc	2 1694 9 is_stmt 0              @ packages/EasyFlash-v4.1.0/src/ef_env.c:1694:9
	bl	format_sector
.Ltmp375:
	.loc	2 1697 5 is_stmt 1              @ packages/EasyFlash-v4.1.0/src/ef_env.c:1697:5
	movs	r0, #0
	pop	{r4, r5, r7, pc}
.Ltmp376:
.Lfunc_end23:
	.size	check_sec_hdr_cb, .Lfunc_end23-check_sec_hdr_cb
	.cfi_endproc
	.cantunwind
	.fnend
                                        @ -- End function
	.section	.text.check_and_recovery_gc_cb,"ax",%progbits
	.p2align	3                               @ -- Begin function check_and_recovery_gc_cb
	.type	check_and_recovery_gc_cb,%function
	.code	16                              @ @check_and_recovery_gc_cb
	.thumb_func
check_and_recovery_gc_cb:
.Lfunc_begin24:
	.loc	2 1701 0                        @ packages/EasyFlash-v4.1.0/src/ef_env.c:1701:0
	.fnstart
	.cfi_startproc
@ %bb.0:
	@DEBUG_VALUE: check_and_recovery_gc_cb:sector <- $r0
	@DEBUG_VALUE: check_and_recovery_gc_cb:sector <- $r0
	@DEBUG_VALUE: check_and_recovery_gc_cb:arg1 <- $r1
	@DEBUG_VALUE: check_and_recovery_gc_cb:arg2 <- $r2
	.save	{r7, lr}
	push	{r7, lr}
	.cfi_def_cfa_offset 8
	.cfi_offset lr, -4
	.cfi_offset r7, -8
.Ltmp377:
	.loc	2 1702 17 prologue_end          @ packages/EasyFlash-v4.1.0/src/ef_env.c:1702:17
	ldrb	r1, [r0]
.Ltmp378:
	@DEBUG_VALUE: check_and_recovery_gc_cb:arg1 <- [DW_OP_LLVM_entry_value 1] $r1
	.loc	2 1702 26 is_stmt 0             @ packages/EasyFlash-v4.1.0/src/ef_env.c:1702:26
	cbz	r1, .LBB24_3
.Ltmp379:
@ %bb.1:
	@DEBUG_VALUE: check_and_recovery_gc_cb:arg2 <- $r2
	@DEBUG_VALUE: check_and_recovery_gc_cb:sector <- $r0
	@DEBUG_VALUE: check_and_recovery_gc_cb:arg1 <- [DW_OP_LLVM_entry_value 1] $r1
	.loc	2 1702 44                       @ packages/EasyFlash-v4.1.0/src/ef_env.c:1702:44
	ldrb	r0, [r0, #2]
.Ltmp380:
	@DEBUG_VALUE: check_and_recovery_gc_cb:sector <- [DW_OP_LLVM_entry_value 1] $r0
	.loc	2 1702 9                        @ packages/EasyFlash-v4.1.0/src/ef_env.c:1702:9
	cmp	r0, #3
	bne	.LBB24_3
.Ltmp381:
@ %bb.2:
	@DEBUG_VALUE: check_and_recovery_gc_cb:arg2 <- $r2
	@DEBUG_VALUE: check_and_recovery_gc_cb:sector <- [DW_OP_LLVM_entry_value 1] $r0
	@DEBUG_VALUE: check_and_recovery_gc_cb:arg1 <- [DW_OP_LLVM_entry_value 1] $r1
	.loc	2 1704 20 is_stmt 1             @ packages/EasyFlash-v4.1.0/src/ef_env.c:1704:20
	movw	r0, :lower16:gc_request
	movs	r1, #1
	movt	r0, :upper16:gc_request
	strb	r1, [r0]
	.loc	2 1706 9                        @ packages/EasyFlash-v4.1.0/src/ef_env.c:1706:9
	bl	gc_collect
.Ltmp382:
	@DEBUG_VALUE: check_and_recovery_gc_cb:arg2 <- [DW_OP_LLVM_entry_value 1] $r2
.LBB24_3:
	@DEBUG_VALUE: check_and_recovery_gc_cb:arg1 <- [DW_OP_LLVM_entry_value 1] $r1
	.loc	2 1709 5                        @ packages/EasyFlash-v4.1.0/src/ef_env.c:1709:5
	movs	r0, #0
	pop	{r7, pc}
.Ltmp383:
.Lfunc_end24:
	.size	check_and_recovery_gc_cb, .Lfunc_end24-check_and_recovery_gc_cb
	.cfi_endproc
	.cantunwind
	.fnend
                                        @ -- End function
	.section	.text.check_and_recovery_env_cb,"ax",%progbits
	.p2align	3                               @ -- Begin function check_and_recovery_env_cb
	.type	check_and_recovery_env_cb,%function
	.code	16                              @ @check_and_recovery_env_cb
	.thumb_func
check_and_recovery_env_cb:
.Lfunc_begin25:
	.loc	2 1713 0                        @ packages/EasyFlash-v4.1.0/src/ef_env.c:1713:0
	.fnstart
	.cfi_startproc
@ %bb.0:
	@DEBUG_VALUE: check_and_recovery_env_cb:env <- $r0
	@DEBUG_VALUE: check_and_recovery_env_cb:arg1 <- $r1
	@DEBUG_VALUE: check_and_recovery_env_cb:arg2 <- $r2
	.save	{r4, lr}
	push	{r4, lr}
	.cfi_def_cfa_offset 8
	.cfi_offset lr, -4
	.cfi_offset r4, -8
	.pad	#8
	sub	sp, #8
	.cfi_def_cfa_offset 16
	mov	r4, r0
.Ltmp384:
	@DEBUG_VALUE: check_and_recovery_env_cb:env <- $r4
	.loc	2 1715 14 prologue_end          @ packages/EasyFlash-v4.1.0/src/ef_env.c:1715:14
	ldrb	r0, [r0, #1]
	.loc	2 1715 24 is_stmt 0             @ packages/EasyFlash-v4.1.0/src/ef_env.c:1715:24
	cbz	r0, .LBB25_4
.Ltmp385:
@ %bb.1:
	@DEBUG_VALUE: check_and_recovery_env_cb:env <- $r4
	@DEBUG_VALUE: check_and_recovery_env_cb:arg2 <- $r2
	@DEBUG_VALUE: check_and_recovery_env_cb:arg1 <- $r1
	.loc	2 1715 32                       @ packages/EasyFlash-v4.1.0/src/ef_env.c:1715:32
	ldrb	r0, [r4]
.Ltmp386:
	.loc	2 1715 9                        @ packages/EasyFlash-v4.1.0/src/ef_env.c:1715:9
	cmp	r0, #3
	bne	.LBB25_4
.Ltmp387:
@ %bb.2:
	@DEBUG_VALUE: check_and_recovery_env_cb:env <- $r4
	@DEBUG_VALUE: check_and_recovery_env_cb:arg2 <- $r2
	@DEBUG_VALUE: check_and_recovery_env_cb:arg1 <- $r1
	.loc	2 1716 9 is_stmt 1              @ packages/EasyFlash-v4.1.0/src/ef_env.c:1716:9
	ldrb	r1, [r4, #2]
.Ltmp388:
	@DEBUG_VALUE: check_and_recovery_env_cb:arg1 <- [DW_OP_LLVM_entry_value 1] $r1
	movw	r0, :lower16:.L.str.32
	add.w	r2, r4, #16
.Ltmp389:
	@DEBUG_VALUE: check_and_recovery_env_cb:arg2 <- [DW_OP_LLVM_entry_value 1] $r2
	movt	r0, :upper16:.L.str.32
	bl	ef_log_info
.Ltmp390:
	.loc	2 1718 13                       @ packages/EasyFlash-v4.1.0/src/ef_env.c:1718:13
	mov	r0, r4
	bl	move_env
.Ltmp391:
	.loc	2 1718 13 is_stmt 0             @ packages/EasyFlash-v4.1.0/src/ef_env.c:1718:13
	cbz	r0, .LBB25_7
.Ltmp392:
@ %bb.3:
	@DEBUG_VALUE: check_and_recovery_env_cb:env <- $r4
	@DEBUG_VALUE: check_and_recovery_env_cb:arg2 <- [DW_OP_LLVM_entry_value 1] $r2
	@DEBUG_VALUE: check_and_recovery_env_cb:arg1 <- [DW_OP_LLVM_entry_value 1] $r1
	.loc	2 1721 13 is_stmt 1             @ packages/EasyFlash-v4.1.0/src/ef_env.c:1721:13
	movw	r0, :lower16:.L.str.2
	movw	r2, :lower16:.L.str.34
	ldr	r3, [r4, #8]
	movt	r0, :upper16:.L.str.2
	movt	r2, :upper16:.L.str.34
	movw	r1, #1721
	bl	ef_log_debug
	b	.LBB25_6
.Ltmp393:
.LBB25_4:
	@DEBUG_VALUE: check_and_recovery_env_cb:env <- $r4
	@DEBUG_VALUE: check_and_recovery_env_cb:arg2 <- $r2
	@DEBUG_VALUE: check_and_recovery_env_cb:arg1 <- $r1
	.loc	2 1724 21                       @ packages/EasyFlash-v4.1.0/src/ef_env.c:1724:21
	ldrb	r0, [r4]
.Ltmp394:
	.loc	2 1724 16 is_stmt 0             @ packages/EasyFlash-v4.1.0/src/ef_env.c:1724:16
	cmp	r0, #1
	bne	.LBB25_8
.Ltmp395:
@ %bb.5:
	@DEBUG_VALUE: check_and_recovery_env_cb:env <- $r4
	@DEBUG_VALUE: check_and_recovery_env_cb:arg2 <- $r2
	@DEBUG_VALUE: check_and_recovery_env_cb:arg1 <- $r1
	.loc	2 1728 32 is_stmt 1             @ packages/EasyFlash-v4.1.0/src/ef_env.c:1728:32
	ldr	r0, [r4, #48]
	add.w	r1, sp, #7
.Ltmp396:
	@DEBUG_VALUE: check_and_recovery_env_cb:arg1 <- [DW_OP_LLVM_entry_value 1] $r1
	.loc	2 1728 9 is_stmt 0              @ packages/EasyFlash-v4.1.0/src/ef_env.c:1728:9
	movs	r2, #6
.Ltmp397:
	@DEBUG_VALUE: check_and_recovery_env_cb:arg2 <- [DW_OP_LLVM_entry_value 1] $r2
	movs	r3, #5
	bl	write_status
.Ltmp398:
.LBB25_6:
	@DEBUG_VALUE: check_and_recovery_env_cb:env <- $r4
	@DEBUG_VALUE: check_and_recovery_env_cb:arg2 <- [DW_OP_LLVM_entry_value 1] $r2
	@DEBUG_VALUE: check_and_recovery_env_cb:arg1 <- [DW_OP_LLVM_entry_value 1] $r1
	.loc	2 0 9                           @ packages/EasyFlash-v4.1.0/src/ef_env.c:0:9
	movs	r0, #1
	.loc	2 1733 1 is_stmt 1              @ packages/EasyFlash-v4.1.0/src/ef_env.c:1733:1
	add	sp, #8
	pop	{r4, pc}
.Ltmp399:
.LBB25_7:
	@DEBUG_VALUE: check_and_recovery_env_cb:env <- $r4
	@DEBUG_VALUE: check_and_recovery_env_cb:arg2 <- [DW_OP_LLVM_entry_value 1] $r2
	@DEBUG_VALUE: check_and_recovery_env_cb:arg1 <- [DW_OP_LLVM_entry_value 1] $r1
	.loc	2 1719 13                       @ packages/EasyFlash-v4.1.0/src/ef_env.c:1719:13
	movw	r0, :lower16:.L.str.2
	adr	r2, .LCPI25_0
	movt	r0, :upper16:.L.str.2
	movw	r1, #1719
	bl	ef_log_debug
.Ltmp400:
.LBB25_8:
	@DEBUG_VALUE: check_and_recovery_env_cb:env <- $r4
	.loc	2 0 13 is_stmt 0                @ packages/EasyFlash-v4.1.0/src/ef_env.c:0:13
	movs	r0, #0
	.loc	2 1733 1 is_stmt 1              @ packages/EasyFlash-v4.1.0/src/ef_env.c:1733:1
	add	sp, #8
	pop	{r4, pc}
.Ltmp401:
	.p2align	2
@ %bb.9:
	.loc	2 0 1 is_stmt 0                 @ packages/EasyFlash-v4.1.0/src/ef_env.c:0:1
.LCPI25_0:
.L.str.33:
	.asciz	"Recovery the ENV successful.\n\000\000"
.Lfunc_end25:
	.size	check_and_recovery_env_cb, .Lfunc_end25-check_and_recovery_env_cb
	.cfi_endproc
	.cantunwind
	.fnend
                                        @ -- End function
	.section	.text.gc_collect,"ax",%progbits
	.p2align	3                               @ -- Begin function gc_collect
	.type	gc_collect,%function
	.code	16                              @ @gc_collect
	.thumb_func
gc_collect:
.Lfunc_begin26:
	.loc	2 1256 0 is_stmt 1              @ packages/EasyFlash-v4.1.0/src/ef_env.c:1256:0
	.fnstart
	.cfi_startproc
@ %bb.0:
	.save	{r4, r5, r7, lr}
	push	{r4, r5, r7, lr}
	.cfi_def_cfa_offset 16
	.cfi_offset lr, -4
	.cfi_offset r7, -8
	.cfi_offset r5, -12
	.cfi_offset r4, -16
	.pad	#40
	sub	sp, #40
	.cfi_def_cfa_offset 56
.Ltmp402:
	.loc	2 1261 5 prologue_end           @ packages/EasyFlash-v4.1.0/src/ef_env.c:1261:5
	movw	r0, :lower16:gc_check_cb
	add	r2, sp, #12
	movt	r0, :upper16:gc_check_cb
	str	r0, [sp]
	add	r0, sp, #16
	movs	r1, #1
	movs	r3, #0
	movs	r4, #0
.Ltmp403:
	@DEBUG_VALUE: gc_collect:empty_sec <- 0
	.loc	2 1258 12                       @ packages/EasyFlash-v4.1.0/src/ef_env.c:1258:12
	str	r4, [sp, #12]
.Ltmp404:
	@DEBUG_VALUE: gc_collect:empty_sec <- [DW_OP_plus_uconst 12, DW_OP_deref] $sp
	.loc	2 0 12 is_stmt 0                @ packages/EasyFlash-v4.1.0/src/ef_env.c:0:12
	movs	r5, #1
	.loc	2 1261 5 is_stmt 1              @ packages/EasyFlash-v4.1.0/src/ef_env.c:1261:5
	str	r4, [sp, #4]
	bl	sector_iterator
	.loc	2 1264 5                        @ packages/EasyFlash-v4.1.0/src/ef_env.c:1264:5
	movw	r0, :lower16:.L.str.2
	ldr	r3, [sp, #12]
.Ltmp405:
	@DEBUG_VALUE: gc_collect:empty_sec <- $r3
	movt	r0, :upper16:.L.str.2
	adr	r2, .LCPI26_0
	mov.w	r1, #1264
	str	r5, [sp]
	bl	ef_log_debug
.Ltmp406:
	.loc	2 1265 9                        @ packages/EasyFlash-v4.1.0/src/ef_env.c:1265:9
	ldr	r0, [sp, #12]
.Ltmp407:
	@DEBUG_VALUE: gc_collect:empty_sec <- $r0
	.loc	2 1265 9 is_stmt 0              @ packages/EasyFlash-v4.1.0/src/ef_env.c:1265:9
	cmp	r0, #1
	bhi	.LBB26_2
.Ltmp408:
@ %bb.1:
	@DEBUG_VALUE: gc_collect:empty_sec <- $r0
	.loc	2 1266 9 is_stmt 1              @ packages/EasyFlash-v4.1.0/src/ef_env.c:1266:9
	movw	r0, :lower16:do_gc
.Ltmp409:
	movs	r1, #0
	movt	r0, :upper16:do_gc
	str	r0, [sp]
	add	r0, sp, #16
	movs	r2, #0
	movs	r3, #0
	str	r4, [sp, #4]
	bl	sector_iterator
.Ltmp410:
.LBB26_2:
	.loc	2 1269 16                       @ packages/EasyFlash-v4.1.0/src/ef_env.c:1269:16
	movw	r0, :lower16:gc_request
	movt	r0, :upper16:gc_request
	strb	r4, [r0]
	.loc	2 1270 1                        @ packages/EasyFlash-v4.1.0/src/ef_env.c:1270:1
	add	sp, #40
	pop	{r4, r5, r7, pc}
.Ltmp411:
	.p2align	2
@ %bb.3:
	.loc	2 0 1 is_stmt 0                 @ packages/EasyFlash-v4.1.0/src/ef_env.c:0:1
.LCPI26_0:
.L.str.36:
	.asciz	"The remain empty sector is %d, GC threshold is %d.\n"
.Lfunc_end26:
	.size	gc_collect, .Lfunc_end26-gc_collect
	.cfi_endproc
	.cantunwind
	.fnend
                                        @ -- End function
	.section	.text.ef_env_init,"ax",%progbits
	.hidden	ef_env_init                     @ -- Begin function ef_env_init
	.globl	ef_env_init
	.p2align	3
	.type	ef_env_init,%function
	.code	16                              @ @ef_env_init
	.thumb_func
ef_env_init:
.Lfunc_begin27:
	.loc	2 1785 0 is_stmt 1              @ packages/EasyFlash-v4.1.0/src/ef_env.c:1785:0
	.fnstart
	.cfi_startproc
@ %bb.0:
	@DEBUG_VALUE: ef_env_init:default_env <- $r0
	@DEBUG_VALUE: ef_env_init:default_env <- $r0
	@DEBUG_VALUE: ef_env_init:default_env_size <- $r1
	.save	{r4, r5, r7, lr}
	push	{r4, r5, r7, lr}
	.cfi_def_cfa_offset 16
	.cfi_offset lr, -4
	.cfi_offset r7, -8
	.cfi_offset r5, -12
	.cfi_offset r4, -16
	.pad	#8
	sub	sp, #8
	.cfi_def_cfa_offset 24
.Ltmp412:
	@DEBUG_VALUE: ef_env_init:result <- 0
	@DEBUG_VALUE: ef_env_init:default_env_size <- $r1
	.loc	2 1792 5 prologue_end           @ packages/EasyFlash-v4.1.0/src/ef_env.c:1792:5
	cbz	r0, .LBB27_8
.Ltmp413:
@ %bb.1:
	@DEBUG_VALUE: ef_env_init:default_env_size <- $r1
	@DEBUG_VALUE: ef_env_init:default_env <- $r0
	@DEBUG_VALUE: ef_env_init:result <- 0
	.loc	2 1801 9                        @ packages/EasyFlash-v4.1.0/src/ef_env.c:1801:9
	movw	r5, :lower16:init_ok
	movt	r5, :upper16:init_ok
	ldrb	r2, [r5]
.Ltmp414:
	.loc	2 1801 9 is_stmt 0              @ packages/EasyFlash-v4.1.0/src/ef_env.c:1801:9
	cbnz	r2, .LBB27_7
.Ltmp415:
@ %bb.2:
	@DEBUG_VALUE: ef_env_init:default_env_size <- $r1
	@DEBUG_VALUE: ef_env_init:default_env <- $r0
	@DEBUG_VALUE: ef_env_init:result <- 0
	.loc	2 0 9                           @ packages/EasyFlash-v4.1.0/src/ef_env.c:0:9
	movw	r3, :lower16:sector_cache_table
	movs	r2, #0
	movt	r3, :upper16:sector_cache_table
	mov.w	r4, #-1
.Ltmp416:
	.p2align	2
.LBB27_3:                               @ =>This Inner Loop Header: Depth=1
	@DEBUG_VALUE: ef_env_init:default_env_size <- $r1
	@DEBUG_VALUE: ef_env_init:default_env <- $r0
	@DEBUG_VALUE: ef_env_init:result <- 0
	@DEBUG_VALUE: ef_env_init:i <- $r2
	.loc	2 1807 36 is_stmt 1             @ packages/EasyFlash-v4.1.0/src/ef_env.c:1807:36
	str.w	r4, [r3, r2, lsl #3]
.Ltmp417:
	.loc	2 1806 50                       @ packages/EasyFlash-v4.1.0/src/ef_env.c:1806:50
	adds	r2, #1
.Ltmp418:
	@DEBUG_VALUE: ef_env_init:i <- $r2
	.loc	2 1806 5 is_stmt 0              @ packages/EasyFlash-v4.1.0/src/ef_env.c:1806:5
	cmp	r2, #4
	bne	.LBB27_3
.Ltmp419:
@ %bb.4:
	@DEBUG_VALUE: ef_env_init:i <- $r2
	@DEBUG_VALUE: ef_env_init:default_env_size <- $r1
	@DEBUG_VALUE: ef_env_init:default_env <- $r0
	@DEBUG_VALUE: ef_env_init:result <- 0
	.loc	2 0 5                           @ packages/EasyFlash-v4.1.0/src/ef_env.c:0:5
	movw	r2, :lower16:env_cache_table
.Ltmp420:
	movs	r3, #16
	movt	r2, :upper16:env_cache_table
	mov.w	r4, #-1
	subs	r2, #4
.Ltmp421:
	.p2align	2
.LBB27_5:                               @ =>This Inner Loop Header: Depth=1
	@DEBUG_VALUE: ef_env_init:default_env_size <- $r1
	@DEBUG_VALUE: ef_env_init:default_env <- $r0
	@DEBUG_VALUE: ef_env_init:result <- 0
	@DEBUG_VALUE: ef_env_init:i <- undef
	.loc	2 1809 19 is_stmt 1             @ packages/EasyFlash-v4.1.0/src/ef_env.c:1809:19
	subs	r3, #1
.Ltmp422:
	.loc	2 1810 33                       @ packages/EasyFlash-v4.1.0/src/ef_env.c:1810:33
	str	r4, [r2, #8]!
.Ltmp423:
	@DEBUG_VALUE: ef_env_init:i <- [DW_OP_plus_uconst 1, DW_OP_stack_value] undef
	.loc	2 1809 5                        @ packages/EasyFlash-v4.1.0/src/ef_env.c:1809:5
	bne	.LBB27_5
.Ltmp424:
@ %bb.6:
	@DEBUG_VALUE: ef_env_init:default_env_size <- $r1
	@DEBUG_VALUE: ef_env_init:default_env <- $r0
	@DEBUG_VALUE: ef_env_init:result <- 0
	.loc	2 1815 21                       @ packages/EasyFlash-v4.1.0/src/ef_env.c:1815:21
	movw	r2, :lower16:default_env_set
	.loc	2 1818 5                        @ packages/EasyFlash-v4.1.0/src/ef_env.c:1818:5
	movs	r3, #0
	.loc	2 1815 21                       @ packages/EasyFlash-v4.1.0/src/ef_env.c:1815:21
	movt	r2, :upper16:default_env_set
	mov.w	r4, #8192
	.loc	2 1818 5                        @ packages/EasyFlash-v4.1.0/src/ef_env.c:1818:5
	str	r4, [sp]
	.loc	2 1815 21                       @ packages/EasyFlash-v4.1.0/src/ef_env.c:1815:21
	str	r0, [r2]
	.loc	2 1816 26                       @ packages/EasyFlash-v4.1.0/src/ef_env.c:1816:26
	movw	r0, :lower16:default_env_set_size
.Ltmp425:
	@DEBUG_VALUE: ef_env_init:default_env <- [DW_OP_LLVM_entry_value 1] $r0
	movt	r0, :upper16:default_env_set_size
	.loc	2 1818 5                        @ packages/EasyFlash-v4.1.0/src/ef_env.c:1818:5
	adr	r2, .LCPI27_0
	.loc	2 1816 26                       @ packages/EasyFlash-v4.1.0/src/ef_env.c:1816:26
	str	r1, [r0]
	.loc	2 1818 5                        @ packages/EasyFlash-v4.1.0/src/ef_env.c:1818:5
	movw	r0, :lower16:.L.str.2
	movt	r0, :upper16:.L.str.2
	movw	r1, #1818
.Ltmp426:
	@DEBUG_VALUE: ef_env_init:default_env_size <- [DW_OP_LLVM_entry_value 1] $r1
	bl	ef_log_debug
	.loc	2 1820 14                       @ packages/EasyFlash-v4.1.0/src/ef_env.c:1820:14
	bl	ef_load_env
	@DEBUG_VALUE: ef_env_init:result <- 0
	movs	r0, #1
.Ltmp427:
	.loc	2 1829 17                       @ packages/EasyFlash-v4.1.0/src/ef_env.c:1829:17
	strb	r0, [r5]
.Ltmp428:
.LBB27_7:
	@DEBUG_VALUE: ef_env_init:result <- 0
	.loc	2 1833 1                        @ packages/EasyFlash-v4.1.0/src/ef_env.c:1833:1
	movs	r0, #0
	add	sp, #8
	pop	{r4, r5, r7, pc}
.Ltmp429:
.LBB27_8:
	@DEBUG_VALUE: ef_env_init:default_env_size <- $r1
	@DEBUG_VALUE: ef_env_init:default_env <- $r0
	@DEBUG_VALUE: ef_env_init:result <- 0
	.loc	2 1792 5                        @ packages/EasyFlash-v4.1.0/src/ef_env.c:1792:5
	movw	r0, :lower16:.L.str.2
.Ltmp430:
	@DEBUG_VALUE: ef_env_init:default_env <- [DW_OP_LLVM_entry_value 1] $r0
	movw	r2, :lower16:.L.str.3
	movt	r0, :upper16:.L.str.2
	movt	r2, :upper16:.L.str.3
	adr	r3, .LCPI27_2
	mov.w	r1, #1792
.Ltmp431:
	@DEBUG_VALUE: ef_env_init:default_env_size <- [DW_OP_LLVM_entry_value 1] $r1
	adr	r5, .LCPI27_1
	str	r5, [sp]
	bl	ef_log_debug
.Ltmp432:
	.p2align	2
.LBB27_9:                               @ =>This Inner Loop Header: Depth=1
	@DEBUG_VALUE: ef_env_init:default_env_size <- [DW_OP_LLVM_entry_value 1] $r1
	@DEBUG_VALUE: ef_env_init:default_env <- [DW_OP_LLVM_entry_value 1] $r0
	@DEBUG_VALUE: ef_env_init:result <- 0
	b	.LBB27_9
.Ltmp433:
	.p2align	2
@ %bb.10:
	.loc	2 0 5 is_stmt 0                 @ packages/EasyFlash-v4.1.0/src/ef_env.c:0:5
.LCPI27_0:
.L.str.13:
	.asciz	"ENV start address is 0x%08X, size is %d bytes.\n"
.LCPI27_1:
.L__FUNCTION__.ef_env_init:
	.asciz	"ef_env_init"
.LCPI27_2:
.L.str.12:
	.asciz	"default_env"
.Lfunc_end27:
	.size	ef_env_init, .Lfunc_end27-ef_env_init
	.cfi_endproc
	.cantunwind
	.fnend
                                        @ -- End function
	.section	.text.get_env_from_cache,"ax",%progbits
	.p2align	3                               @ -- Begin function get_env_from_cache
	.type	get_env_from_cache,%function
	.code	16                              @ @get_env_from_cache
	.thumb_func
get_env_from_cache:
.Lfunc_begin28:
	.loc	2 397 0 is_stmt 1               @ packages/EasyFlash-v4.1.0/src/ef_env.c:397:0
	.fnstart
	.cfi_startproc
@ %bb.0:
	@DEBUG_VALUE: get_env_from_cache:name <- $r0
	@DEBUG_VALUE: get_env_from_cache:name_len <- $r1
	@DEBUG_VALUE: get_env_from_cache:addr <- $r2
	.save	{r4, r5, r6, r7, r8, r9, r10, r11, lr}
	push.w	{r4, r5, r6, r7, r8, r9, r10, r11, lr}
	.cfi_def_cfa_offset 36
	.cfi_offset lr, -4
	.cfi_offset r11, -8
	.cfi_offset r10, -12
	.cfi_offset r9, -16
	.cfi_offset r8, -20
	.cfi_offset r7, -24
	.cfi_offset r6, -28
	.cfi_offset r5, -32
	.cfi_offset r4, -36
	.pad	#36
	sub	sp, #36
	.cfi_def_cfa_offset 72
	mov	r9, r1
.Ltmp434:
	@DEBUG_VALUE: get_env_from_cache:name_len <- $r9
	mov	r10, r0
.Ltmp435:
	@DEBUG_VALUE: get_env_from_cache:name <- $r10
	@DEBUG_VALUE: get_env_from_cache:addr <- [$sp+0]
	@DEBUG_VALUE: get_env_from_cache:name_len <- $r9
	@DEBUG_VALUE: get_env_from_cache:name <- $r10
	str	r2, [sp]                        @ 4-byte Spill
.Ltmp436:
	.loc	2 399 37 prologue_end           @ packages/EasyFlash-v4.1.0/src/ef_env.c:399:37
	movs	r0, #0
	mov	r1, r10
	mov	r2, r9
	movs	r6, #0
	bl	ef_calc_crc32
	movw	r7, :lower16:env_cache_table
	.loc	2 399 70 is_stmt 0              @ packages/EasyFlash-v4.1.0/src/ef_env.c:399:70
	lsrs	r5, r0, #16
.Ltmp437:
	@DEBUG_VALUE: get_env_from_cache:name_crc <- [DW_OP_LLVM_convert 32 7, DW_OP_LLVM_convert 16 7, DW_OP_stack_value] $r5
	.loc	2 0 70                          @ packages/EasyFlash-v4.1.0/src/ef_env.c:0:70
	movs	r4, #1
.Ltmp438:
	@DEBUG_VALUE: get_env_from_cache:i <- 0
	movt	r7, :upper16:env_cache_table
	add.w	r11, sp, #4
	b	.LBB28_2
.Ltmp439:
	.p2align	2
.LBB28_1:                               @   in Loop: Header=BB28_2 Depth=1
	@DEBUG_VALUE: get_env_from_cache:name <- $r10
	@DEBUG_VALUE: get_env_from_cache:name_len <- $r9
	@DEBUG_VALUE: get_env_from_cache:i <- $r6
	@DEBUG_VALUE: get_env_from_cache:name_crc <- [DW_OP_LLVM_convert 32 7, DW_OP_LLVM_convert 16 7, DW_OP_stack_value] $r5
	@DEBUG_VALUE: get_env_from_cache:addr <- [$sp+0]
	.loc	2 401 19 is_stmt 1              @ packages/EasyFlash-v4.1.0/src/ef_env.c:401:19
	cmp	r6, #15
	.loc	2 401 47 is_stmt 0              @ packages/EasyFlash-v4.1.0/src/ef_env.c:401:47
	add.w	r6, r6, #1
.Ltmp440:
	@DEBUG_VALUE: get_env_from_cache:i <- $r6
	.loc	2 401 19                        @ packages/EasyFlash-v4.1.0/src/ef_env.c:401:19
	mov.w	r4, #0
	it	lo
	movlo	r4, #1
.Ltmp441:
	.loc	2 401 5                         @ packages/EasyFlash-v4.1.0/src/ef_env.c:401:5
	cmp	r6, #16
	@DEBUG_VALUE: get_env_from_cache:i <- $r6
	beq	.LBB28_6
.Ltmp442:
.LBB28_2:                               @ =>This Inner Loop Header: Depth=1
	@DEBUG_VALUE: get_env_from_cache:name <- $r10
	@DEBUG_VALUE: get_env_from_cache:name_len <- $r9
	@DEBUG_VALUE: get_env_from_cache:name_crc <- [DW_OP_LLVM_convert 32 7, DW_OP_LLVM_convert 16 7, DW_OP_stack_value] $r5
	@DEBUG_VALUE: get_env_from_cache:addr <- [$sp+0]
	@DEBUG_VALUE: get_env_from_cache:i <- $r6
	.loc	2 402 33 is_stmt 1              @ packages/EasyFlash-v4.1.0/src/ef_env.c:402:33
	add.w	r8, r7, r6, lsl #3
	ldr.w	r0, [r8, #4]
	.loc	2 402 54 is_stmt 0              @ packages/EasyFlash-v4.1.0/src/ef_env.c:402:54
	adds	r1, r0, #1
	beq	.LBB28_1
.Ltmp443:
@ %bb.3:                                @   in Loop: Header=BB28_2 Depth=1
	@DEBUG_VALUE: get_env_from_cache:name <- $r10
	@DEBUG_VALUE: get_env_from_cache:name_len <- $r9
	@DEBUG_VALUE: get_env_from_cache:i <- $r6
	@DEBUG_VALUE: get_env_from_cache:name_crc <- [DW_OP_LLVM_convert 32 7, DW_OP_LLVM_convert 16 7, DW_OP_stack_value] $r5
	@DEBUG_VALUE: get_env_from_cache:addr <- [$sp+0]
	.loc	2 402 77                        @ packages/EasyFlash-v4.1.0/src/ef_env.c:402:77
	ldrh.w	r1, [r7, r6, lsl #3]
.Ltmp444:
	.loc	2 402 13                        @ packages/EasyFlash-v4.1.0/src/ef_env.c:402:13
	cmp	r5, r1
	bne	.LBB28_1
.Ltmp445:
@ %bb.4:                                @   in Loop: Header=BB28_2 Depth=1
	@DEBUG_VALUE: get_env_from_cache:name <- $r10
	@DEBUG_VALUE: get_env_from_cache:name_len <- $r9
	@DEBUG_VALUE: get_env_from_cache:i <- $r6
	@DEBUG_VALUE: get_env_from_cache:name_crc <- [DW_OP_LLVM_convert 32 7, DW_OP_LLVM_convert 16 7, DW_OP_stack_value] $r5
	@DEBUG_VALUE: get_env_from_cache:addr <- [$sp+0]
	.loc	2 405 50 is_stmt 1              @ packages/EasyFlash-v4.1.0/src/ef_env.c:405:50
	adds	r0, #24
	.loc	2 405 13 is_stmt 0              @ packages/EasyFlash-v4.1.0/src/ef_env.c:405:13
	movs	r2, #32
	mov	r1, r11
	bl	ef_port_read
.Ltmp446:
	.loc	2 406 18 is_stmt 1              @ packages/EasyFlash-v4.1.0/src/ef_env.c:406:18
	mov	r0, r10
	mov	r1, r11
	mov	r2, r9
	bl	strncmp
.Ltmp447:
	.loc	2 406 17 is_stmt 0              @ packages/EasyFlash-v4.1.0/src/ef_env.c:406:17
	cmp	r0, #0
	bne	.LBB28_1
.Ltmp448:
@ %bb.5:
	@DEBUG_VALUE: get_env_from_cache:name <- $r10
	@DEBUG_VALUE: get_env_from_cache:name_len <- $r9
	@DEBUG_VALUE: get_env_from_cache:i <- $r6
	@DEBUG_VALUE: get_env_from_cache:name_crc <- [DW_OP_LLVM_convert 32 7, DW_OP_LLVM_convert 16 7, DW_OP_stack_value] $r5
	@DEBUG_VALUE: get_env_from_cache:addr <- [$sp+0]
	.loc	2 407 23 is_stmt 1              @ packages/EasyFlash-v4.1.0/src/ef_env.c:407:23
	ldr	r1, [sp]                        @ 4-byte Reload
	.loc	2 407 44 is_stmt 0              @ packages/EasyFlash-v4.1.0/src/ef_env.c:407:44
	ldr.w	r0, [r8, #4]
	movw	r2, #65518
	mvn	r3, #17
	.loc	2 407 23                        @ packages/EasyFlash-v4.1.0/src/ef_env.c:407:23
	str	r0, [r1]
.Ltmp449:
	.loc	2 408 40 is_stmt 1              @ packages/EasyFlash-v4.1.0/src/ef_env.c:408:40
	ldrh.w	r0, [r8, #2]
.Ltmp450:
	.loc	2 408 21 is_stmt 0              @ packages/EasyFlash-v4.1.0/src/ef_env.c:408:21
	add.w	r1, r0, #16
	cmp	r0, r2
	it	hi
	addhi.w	r1, r3, #17
.Ltmp451:
	.loc	2 0 0                           @ packages/EasyFlash-v4.1.0/src/ef_env.c:0:0
	strh.w	r1, [r8, #2]
.Ltmp452:
.LBB28_6:
	@DEBUG_VALUE: get_env_from_cache:name <- $r10
	@DEBUG_VALUE: get_env_from_cache:name_len <- $r9
	@DEBUG_VALUE: get_env_from_cache:i <- $r6
	@DEBUG_VALUE: get_env_from_cache:name_crc <- [DW_OP_LLVM_convert 32 7, DW_OP_LLVM_convert 16 7, DW_OP_stack_value] $r5
	@DEBUG_VALUE: get_env_from_cache:addr <- [$sp+0]
	.loc	2 419 1 is_stmt 1               @ packages/EasyFlash-v4.1.0/src/ef_env.c:419:1
	and	r0, r4, #1
	add	sp, #36
	pop.w	{r4, r5, r6, r7, r8, r9, r10, r11, pc}
.Ltmp453:
.Lfunc_end28:
	.size	get_env_from_cache, .Lfunc_end28-get_env_from_cache
	.cfi_endproc
	.cantunwind
	.fnend
                                        @ -- End function
	.section	.text.read_env,"ax",%progbits
	.p2align	3                               @ -- Begin function read_env
	.type	read_env,%function
	.code	16                              @ @read_env
	.thumb_func
read_env:
.Lfunc_begin29:
	.loc	2 523 0                         @ packages/EasyFlash-v4.1.0/src/ef_env.c:523:0
	.fnstart
	.cfi_startproc
@ %bb.0:
	@DEBUG_VALUE: read_env:env <- $r0
	.save	{r4, r5, r6, r7, r8, r9, lr}
	push.w	{r4, r5, r6, r7, r8, r9, lr}
	.cfi_def_cfa_offset 28
	.cfi_offset lr, -4
	.cfi_offset r9, -8
	.cfi_offset r8, -12
	.cfi_offset r7, -16
	.cfi_offset r6, -20
	.cfi_offset r5, -24
	.cfi_offset r4, -28
	.pad	#60
	sub	sp, #60
	.cfi_def_cfa_offset 88
	add	r5, sp, #36
	mov	r8, r0
.Ltmp454:
	@DEBUG_VALUE: read_env:result <- 0
	@DEBUG_VALUE: read_env:calc_crc32 <- 0
	@DEBUG_VALUE: read_env:env <- $r8
	.loc	2 530 28 prologue_end           @ packages/EasyFlash-v4.1.0/src/ef_env.c:530:28
	ldr	r0, [r0, #48]
	.loc	2 530 5 is_stmt 0               @ packages/EasyFlash-v4.1.0/src/ef_env.c:530:5
	movs	r2, #24
	mov	r1, r5
	movs	r6, #24
	bl	ef_port_read
	.loc	2 531 34 is_stmt 1              @ packages/EasyFlash-v4.1.0/src/ef_env.c:531:34
	movs	r1, #6
	mov	r0, r5
	bl	get_status
	.loc	2 532 24                        @ packages/EasyFlash-v4.1.0/src/ef_env.c:532:24
	ldr	r1, [sp, #44]
	movw	r2, #8177
.Ltmp455:
	.loc	2 534 26                        @ packages/EasyFlash-v4.1.0/src/ef_env.c:534:26
	sub.w	r4, r1, #16
.Ltmp456:
	.loc	2 531 17                        @ packages/EasyFlash-v4.1.0/src/ef_env.c:531:17
	strb.w	r0, [r8]
.Ltmp457:
	.loc	2 534 26                        @ packages/EasyFlash-v4.1.0/src/ef_env.c:534:26
	cmp	r4, r2
.Ltmp458:
	.loc	2 532 14                        @ packages/EasyFlash-v4.1.0/src/ef_env.c:532:14
	str.w	r1, [r8, #8]
.Ltmp459:
	.loc	2 534 26                        @ packages/EasyFlash-v4.1.0/src/ef_env.c:534:26
	blo	.LBB29_3
.Ltmp460:
@ %bb.1:
	@DEBUG_VALUE: read_env:env <- $r8
	@DEBUG_VALUE: read_env:calc_crc32 <- 0
	@DEBUG_VALUE: read_env:result <- 0
	.loc	2 531 19                        @ packages/EasyFlash-v4.1.0/src/ef_env.c:531:19
	uxtb	r0, r0
.Ltmp461:
	.loc	2 536 18                        @ packages/EasyFlash-v4.1.0/src/ef_env.c:536:18
	str.w	r6, [r8, #8]
	.loc	2 537 13                        @ packages/EasyFlash-v4.1.0/src/ef_env.c:537:13
	cmp	r0, #5
	beq	.LBB29_12
.Ltmp462:
@ %bb.2:
	@DEBUG_VALUE: read_env:env <- $r8
	@DEBUG_VALUE: read_env:calc_crc32 <- 0
	@DEBUG_VALUE: read_env:result <- 0
	.loc	2 0 13 is_stmt 0                @ packages/EasyFlash-v4.1.0/src/ef_env.c:0:13
	movs	r0, #5
.Ltmp463:
	.loc	2 538 25 is_stmt 1              @ packages/EasyFlash-v4.1.0/src/ef_env.c:538:25
	strb.w	r0, [r8]
	.loc	2 539 13                        @ packages/EasyFlash-v4.1.0/src/ef_env.c:539:13
	movw	r0, :lower16:.L.str.2
	ldr.w	r3, [r8, #48]
	movt	r0, :upper16:.L.str.2
	adr	r2, .LCPI29_2
	movw	r1, #539
	bl	ef_log_debug
	.loc	2 540 36                        @ packages/EasyFlash-v4.1.0/src/ef_env.c:540:36
	ldr.w	r0, [r8, #48]
	add	r1, sp, #36
	.loc	2 540 13 is_stmt 0              @ packages/EasyFlash-v4.1.0/src/ef_env.c:540:13
	movs	r2, #6
	movs	r3, #5
	bl	write_status
	b	.LBB29_12
.Ltmp464:
.LBB29_3:
	@DEBUG_VALUE: read_env:env <- $r8
	@DEBUG_VALUE: read_env:calc_crc32 <- 0
	@DEBUG_VALUE: read_env:result <- 0
	.loc	2 544 62 is_stmt 1              @ packages/EasyFlash-v4.1.0/src/ef_env.c:544:62
	subw	r0, r1, #4081
	movw	r1, #4110
	cmp	r0, r1
	bhi	.LBB29_6
.Ltmp465:
@ %bb.4:
	@DEBUG_VALUE: read_env:env <- $r8
	@DEBUG_VALUE: read_env:calc_crc32 <- 0
	@DEBUG_VALUE: read_env:result <- 0
	.loc	2 546 9                         @ packages/EasyFlash-v4.1.0/src/ef_env.c:546:9
	movw	r0, :lower16:.L.str.2
	movw	r2, :lower16:.L.str.3
	movt	r0, :upper16:.L.str.2
	movt	r2, :upper16:.L.str.3
	adr	r3, .LCPI29_1
	movw	r1, #546
	adr	r7, .LCPI29_0
	str	r7, [sp]
	bl	ef_log_debug
.Ltmp466:
	.p2align	2
.LBB29_5:                               @ =>This Inner Loop Header: Depth=1
	@DEBUG_VALUE: read_env:env <- $r8
	@DEBUG_VALUE: read_env:calc_crc32 <- 0
	@DEBUG_VALUE: read_env:result <- 0
	b	.LBB29_5
.Ltmp467:
.LBB29_6:
	@DEBUG_VALUE: read_env:env <- $r8
	@DEBUG_VALUE: read_env:calc_crc32 <- 0
	@DEBUG_VALUE: read_env:result <- 0
	@DEBUG_VALUE: read_env:calc_crc32 <- 0
	@DEBUG_VALUE: read_env:crc_data_len <- $r4
	@DEBUG_VALUE: read_env:len <- 0
	@DEBUG_VALUE: read_env:size <- 0
	.loc	2 552 5                         @ packages/EasyFlash-v4.1.0/src/ef_env.c:552:5
	cbz	r4, .LBB29_9
.Ltmp468:
@ %bb.7:
	@DEBUG_VALUE: read_env:env <- $r8
	@DEBUG_VALUE: read_env:crc_data_len <- $r4
	@DEBUG_VALUE: read_env:size <- 0
	@DEBUG_VALUE: read_env:len <- 0
	@DEBUG_VALUE: read_env:calc_crc32 <- 0
	@DEBUG_VALUE: read_env:result <- 0
	.loc	2 0 5 is_stmt 0                 @ packages/EasyFlash-v4.1.0/src/ef_env.c:0:5
	movs	r5, #0
	add.w	r9, sp, #4
	movs	r6, #0
.Ltmp469:
	.p2align	2
.LBB29_8:                               @ =>This Inner Loop Header: Depth=1
	@DEBUG_VALUE: read_env:env <- $r8
	@DEBUG_VALUE: read_env:crc_data_len <- $r4
	@DEBUG_VALUE: read_env:result <- 0
	@DEBUG_VALUE: read_env:calc_crc32 <- $r6
	@DEBUG_VALUE: read_env:len <- $r5
	.loc	2 553 17 is_stmt 1              @ packages/EasyFlash-v4.1.0/src/ef_env.c:553:17
	add.w	r0, r5, #32
.Ltmp470:
	.loc	2 553 13 is_stmt 0              @ packages/EasyFlash-v4.1.0/src/ef_env.c:553:13
	subs	r7, r4, r5
	.loc	2 559 32 is_stmt 1              @ packages/EasyFlash-v4.1.0/src/ef_env.c:559:32
	ldr.w	r1, [r8, #48]
	.loc	2 553 13                        @ packages/EasyFlash-v4.1.0/src/ef_env.c:553:13
	cmp	r0, r4
	it	lo
	movlo	r7, #32
.Ltmp471:
	@DEBUG_VALUE: read_env:size <- $r7
	.loc	2 559 38                        @ packages/EasyFlash-v4.1.0/src/ef_env.c:559:38
	adds	r0, r5, r1
	.loc	2 559 9 is_stmt 0               @ packages/EasyFlash-v4.1.0/src/ef_env.c:559:9
	mov	r1, r9
	.loc	2 559 60                        @ packages/EasyFlash-v4.1.0/src/ef_env.c:559:60
	adds	r0, #16
	.loc	2 559 9                         @ packages/EasyFlash-v4.1.0/src/ef_env.c:559:9
	mov	r2, r7
	bl	ef_port_read
	.loc	2 560 22 is_stmt 1              @ packages/EasyFlash-v4.1.0/src/ef_env.c:560:22
	mov	r0, r6
	mov	r1, r9
	mov	r2, r7
	bl	ef_calc_crc32
.Ltmp472:
	.loc	2 552 53                        @ packages/EasyFlash-v4.1.0/src/ef_env.c:552:53
	add	r5, r7
.Ltmp473:
	@DEBUG_VALUE: read_env:len <- $r5
	.loc	2 560 22                        @ packages/EasyFlash-v4.1.0/src/ef_env.c:560:22
	mov	r6, r0
.Ltmp474:
	@DEBUG_VALUE: read_env:calc_crc32 <- $r6
	.loc	2 552 5                         @ packages/EasyFlash-v4.1.0/src/ef_env.c:552:5
	cmp	r4, r5
	bhi	.LBB29_8
	b	.LBB29_10
.Ltmp475:
.LBB29_9:
	@DEBUG_VALUE: read_env:env <- $r8
	@DEBUG_VALUE: read_env:crc_data_len <- $r4
	@DEBUG_VALUE: read_env:size <- 0
	@DEBUG_VALUE: read_env:len <- 0
	@DEBUG_VALUE: read_env:calc_crc32 <- 0
	@DEBUG_VALUE: read_env:result <- 0
	.loc	2 0 5 is_stmt 0                 @ packages/EasyFlash-v4.1.0/src/ef_env.c:0:5
	movs	r6, #0
.Ltmp476:
.LBB29_10:
	@DEBUG_VALUE: read_env:env <- $r8
	@DEBUG_VALUE: read_env:crc_data_len <- $r4
	@DEBUG_VALUE: read_env:result <- 0
	.loc	2 563 31 is_stmt 1              @ packages/EasyFlash-v4.1.0/src/ef_env.c:563:31
	ldr	r0, [sp, #48]
.Ltmp477:
	.loc	2 563 9 is_stmt 0               @ packages/EasyFlash-v4.1.0/src/ef_env.c:563:9
	cmp	r6, r0
	bne	.LBB29_12
.Ltmp478:
@ %bb.11:
	@DEBUG_VALUE: read_env:env <- $r8
	@DEBUG_VALUE: read_env:crc_data_len <- $r4
	@DEBUG_VALUE: read_env:result <- 0
	.loc	2 0 9                           @ packages/EasyFlash-v4.1.0/src/ef_env.c:0:9
	movs	r0, #1
.Ltmp479:
	.loc	2 567 24 is_stmt 1              @ packages/EasyFlash-v4.1.0/src/ef_env.c:567:24
	strb.w	r0, [r8, #1]
	.loc	2 569 35                        @ packages/EasyFlash-v4.1.0/src/ef_env.c:569:35
	ldr.w	r0, [r8, #48]
	.loc	2 570 61                        @ packages/EasyFlash-v4.1.0/src/ef_env.c:570:61
	ldrb.w	r2, [sp, #52]
	.loc	2 569 41                        @ packages/EasyFlash-v4.1.0/src/ef_env.c:569:41
	add.w	r5, r0, #24
.Ltmp480:
	@DEBUG_VALUE: read_env:env_name_addr <- $r5
	.loc	2 570 50                        @ packages/EasyFlash-v4.1.0/src/ef_env.c:570:50
	add.w	r1, r8, #16
	.loc	2 570 9 is_stmt 0               @ packages/EasyFlash-v4.1.0/src/ef_env.c:570:9
	mov	r0, r5
	bl	ef_port_read
	.loc	2 572 43 is_stmt 1              @ packages/EasyFlash-v4.1.0/src/ef_env.c:572:43
	ldrb.w	r0, [sp, #52]
	.loc	2 574 23                        @ packages/EasyFlash-v4.1.0/src/ef_env.c:574:23
	strb.w	r0, [r8, #2]
	.loc	2 572 41                        @ packages/EasyFlash-v4.1.0/src/ef_env.c:572:41
	adds	r1, r5, r0
	.loc	2 572 25 is_stmt 0              @ packages/EasyFlash-v4.1.0/src/ef_env.c:572:25
	str.w	r1, [r8, #52]
	.loc	2 573 34 is_stmt 1              @ packages/EasyFlash-v4.1.0/src/ef_env.c:573:34
	ldr	r1, [sp, #56]
	.loc	2 573 24 is_stmt 0              @ packages/EasyFlash-v4.1.0/src/ef_env.c:573:24
	str.w	r1, [r8, #12]
.Ltmp481:
	.loc	2 578 1 is_stmt 1               @ packages/EasyFlash-v4.1.0/src/ef_env.c:578:1
	add	sp, #60
	pop.w	{r4, r5, r6, r7, r8, r9, pc}
.Ltmp482:
.LBB29_12:
	@DEBUG_VALUE: read_env:env <- $r8
	@DEBUG_VALUE: read_env:result <- 0
	.loc	2 0 1 is_stmt 0                 @ packages/EasyFlash-v4.1.0/src/ef_env.c:0:1
	movs	r0, #0
	strb.w	r0, [r8, #1]
	.loc	2 578 1                         @ packages/EasyFlash-v4.1.0/src/ef_env.c:578:1
	add	sp, #60
	pop.w	{r4, r5, r6, r7, r8, r9, pc}
.Ltmp483:
	.p2align	2
@ %bb.13:
	.loc	2 0 1                           @ packages/EasyFlash-v4.1.0/src/ef_env.c:0:1
.LCPI29_0:
.L__FUNCTION__.read_env:
	.asciz	"read_env\000\000\000"
.LCPI29_1:
.L.str.15:
	.asciz	"0\000\000"
.LCPI29_2:
.L.str.14:
	.asciz	"Error: The ENV @0x%08X length has an error.\n\000\000\000"
.Lfunc_end29:
	.size	read_env, .Lfunc_end29-read_env
	.cfi_endproc
	.cantunwind
	.fnend
                                        @ -- End function
	.section	.text.find_env_no_cache,"ax",%progbits
	.p2align	3                               @ -- Begin function find_env_no_cache
	.type	find_env_no_cache,%function
	.code	16                              @ @find_env_no_cache
	.thumb_func
find_env_no_cache:
.Lfunc_begin30:
	.loc	2 728 0 is_stmt 1               @ packages/EasyFlash-v4.1.0/src/ef_env.c:728:0
	.fnstart
	.cfi_startproc
@ %bb.0:
	@DEBUG_VALUE: find_env_no_cache:key <- $r0
	@DEBUG_VALUE: find_env_no_cache:env <- $r1
	.save	{r7, lr}
	push	{r7, lr}
	.cfi_def_cfa_offset 8
	.cfi_offset lr, -4
	.cfi_offset r7, -8
	.pad	#8
	sub	sp, #8
	.cfi_def_cfa_offset 16
	mov	r12, r0
.Ltmp484:
	.loc	2 731 5 prologue_end            @ packages/EasyFlash-v4.1.0/src/ef_env.c:731:5
	movw	r3, :lower16:find_env_cb
	movs	r0, #0
.Ltmp485:
	@DEBUG_VALUE: find_env_no_cache:key <- [DW_OP_LLVM_entry_value 1] $r0
	@DEBUG_VALUE: find_env_no_cache:find_ok <- 0
	@DEBUG_VALUE: find_env_no_cache:env <- $r1
	@DEBUG_VALUE: find_env_no_cache:key <- $r12
	.loc	2 729 10                        @ packages/EasyFlash-v4.1.0/src/ef_env.c:729:10
	strb.w	r0, [sp, #7]
.Ltmp486:
	@DEBUG_VALUE: find_env_no_cache:find_ok <- [DW_OP_plus_uconst 7, DW_OP_deref] $sp
	.loc	2 731 5                         @ packages/EasyFlash-v4.1.0/src/ef_env.c:731:5
	movt	r3, :upper16:find_env_cb
	add.w	r2, sp, #7
	mov	r0, r1
.Ltmp487:
	@DEBUG_VALUE: find_env_no_cache:env <- $r0
	mov	r1, r12
.Ltmp488:
	@DEBUG_VALUE: find_env_no_cache:key <- $r1
	bl	env_iterator
.Ltmp489:
	.loc	2 733 12                        @ packages/EasyFlash-v4.1.0/src/ef_env.c:733:12
	ldrb.w	r0, [sp, #7]
.Ltmp490:
	@DEBUG_VALUE: find_env_no_cache:find_ok <- undef
	.loc	2 733 5 is_stmt 0               @ packages/EasyFlash-v4.1.0/src/ef_env.c:733:5
	add	sp, #8
	pop	{r7, pc}
.Ltmp491:
.Lfunc_end30:
	.size	find_env_no_cache, .Lfunc_end30-find_env_no_cache
	.cfi_endproc
	.cantunwind
	.fnend
                                        @ -- End function
	.section	.text.update_env_cache,"ax",%progbits
	.p2align	3                               @ -- Begin function update_env_cache
	.type	update_env_cache,%function
	.code	16                              @ @update_env_cache
	.thumb_func
update_env_cache:
.Lfunc_begin31:
	.loc	2 353 0 is_stmt 1               @ packages/EasyFlash-v4.1.0/src/ef_env.c:353:0
	.fnstart
	.cfi_startproc
@ %bb.0:
	@DEBUG_VALUE: update_env_cache:name <- $r0
	@DEBUG_VALUE: update_env_cache:name_len <- $r1
	@DEBUG_VALUE: update_env_cache:addr <- $r2
	.save	{r4, r5, r6, r7, r8, lr}
	push.w	{r4, r5, r6, r7, r8, lr}
	.cfi_def_cfa_offset 24
	.cfi_offset lr, -4
	.cfi_offset r8, -8
	.cfi_offset r7, -12
	.cfi_offset r6, -16
	.cfi_offset r5, -20
	.cfi_offset r4, -24
	mov	r8, r2
.Ltmp492:
	@DEBUG_VALUE: update_env_cache:addr <- $r8
	mov	r2, r1
	mov	r1, r0
.Ltmp493:
	@DEBUG_VALUE: update_env_cache:name_len <- [DW_OP_LLVM_entry_value 1] $r1
	@DEBUG_VALUE: update_env_cache:min_activity_index <- 16
	@DEBUG_VALUE: update_env_cache:empty_index <- 16
	@DEBUG_VALUE: update_env_cache:addr <- $r8
	@DEBUG_VALUE: update_env_cache:name_len <- $r2
	@DEBUG_VALUE: update_env_cache:name <- $r1
	.loc	2 355 37 prologue_end           @ packages/EasyFlash-v4.1.0/src/ef_env.c:355:37
	movs	r0, #0
	movs	r5, #0
	@DEBUG_VALUE: update_env_cache:name_len <- $r2
	@DEBUG_VALUE: update_env_cache:name <- $r1
	bl	ef_calc_crc32
.Ltmp494:
	.loc	2 0 37 is_stmt 0                @ packages/EasyFlash-v4.1.0/src/ef_env.c:0:37
	movw	lr, :lower16:env_cache_table
	.loc	2 355 70                        @ packages/EasyFlash-v4.1.0/src/ef_env.c:355:70
	lsrs	r0, r0, #16
.Ltmp495:
	@DEBUG_VALUE: update_env_cache:name_crc <- [DW_OP_LLVM_convert 32 7, DW_OP_LLVM_convert 16 7, DW_OP_stack_value] $r0
	.loc	2 0 70                          @ packages/EasyFlash-v4.1.0/src/ef_env.c:0:70
	mov.w	r12, #16
	movw	r3, #65535
.Ltmp496:
	@DEBUG_VALUE: update_env_cache:i <- 0
	@DEBUG_VALUE: update_env_cache:min_activity <- -1
	movt	lr, :upper16:env_cache_table
	add.w	r6, r8, #1
	movs	r1, #16
	b	.LBB31_3
.Ltmp497:
	.p2align	2
.LBB31_1:                               @   in Loop: Header=BB31_3 Depth=1
	@DEBUG_VALUE: update_env_cache:min_activity_index <- $r12
	@DEBUG_VALUE: update_env_cache:addr <- $r8
	@DEBUG_VALUE: update_env_cache:i <- $r5
	@DEBUG_VALUE: update_env_cache:min_activity <- $r3
	@DEBUG_VALUE: update_env_cache:empty_index <- $r1
	@DEBUG_VALUE: update_env_cache:name_crc <- [DW_OP_LLVM_convert 32 7, DW_OP_LLVM_convert 16 7, DW_OP_stack_value] $r0
	.loc	2 374 20 is_stmt 1              @ packages/EasyFlash-v4.1.0/src/ef_env.c:374:20
	cmp	r0, r7
	beq	.LBB31_13
.Ltmp498:
.LBB31_2:                               @   in Loop: Header=BB31_3 Depth=1
	@DEBUG_VALUE: update_env_cache:addr <- $r8
	@DEBUG_VALUE: update_env_cache:i <- $r5
	@DEBUG_VALUE: update_env_cache:name_crc <- [DW_OP_LLVM_convert 32 7, DW_OP_LLVM_convert 16 7, DW_OP_stack_value] $r0
	@DEBUG_VALUE: update_env_cache:empty_index <- $r1
	@DEBUG_VALUE: update_env_cache:min_activity_index <- $r12
	@DEBUG_VALUE: update_env_cache:min_activity <- $r3
	.loc	2 357 47                        @ packages/EasyFlash-v4.1.0/src/ef_env.c:357:47
	adds	r5, #1
.Ltmp499:
	@DEBUG_VALUE: update_env_cache:i <- $r5
	.loc	2 357 5 is_stmt 0               @ packages/EasyFlash-v4.1.0/src/ef_env.c:357:5
	cmp	r5, #16
	beq	.LBB31_8
.Ltmp500:
.LBB31_3:                               @ =>This Inner Loop Header: Depth=1
	@DEBUG_VALUE: update_env_cache:addr <- $r8
	@DEBUG_VALUE: update_env_cache:name_crc <- [DW_OP_LLVM_convert 32 7, DW_OP_LLVM_convert 16 7, DW_OP_stack_value] $r0
	@DEBUG_VALUE: update_env_cache:empty_index <- $r1
	@DEBUG_VALUE: update_env_cache:min_activity_index <- $r12
	@DEBUG_VALUE: update_env_cache:min_activity <- $r3
	@DEBUG_VALUE: update_env_cache:i <- $r5
	.loc	2 0 0                           @ packages/EasyFlash-v4.1.0/src/ef_env.c:0:0
	ldrh.w	r7, [lr, r5, lsl #3]
.Ltmp501:
	.loc	2 358 13 is_stmt 1              @ packages/EasyFlash-v4.1.0/src/ef_env.c:358:13
	cmp	r6, #0
	beq	.LBB31_1
.Ltmp502:
@ %bb.4:                                @   in Loop: Header=BB31_3 Depth=1
	@DEBUG_VALUE: update_env_cache:min_activity_index <- $r12
	@DEBUG_VALUE: update_env_cache:addr <- $r8
	@DEBUG_VALUE: update_env_cache:i <- $r5
	@DEBUG_VALUE: update_env_cache:min_activity <- $r3
	@DEBUG_VALUE: update_env_cache:empty_index <- $r1
	@DEBUG_VALUE: update_env_cache:name_crc <- [DW_OP_LLVM_convert 32 7, DW_OP_LLVM_convert 16 7, DW_OP_stack_value] $r0
	.loc	2 360 17                        @ packages/EasyFlash-v4.1.0/src/ef_env.c:360:17
	cmp	r0, r7
	add.w	r7, lr, r5, lsl #3
	beq	.LBB31_10
.Ltmp503:
@ %bb.5:                                @   in Loop: Header=BB31_3 Depth=1
	@DEBUG_VALUE: update_env_cache:min_activity_index <- $r12
	@DEBUG_VALUE: update_env_cache:addr <- $r8
	@DEBUG_VALUE: update_env_cache:i <- $r5
	@DEBUG_VALUE: update_env_cache:min_activity <- $r3
	@DEBUG_VALUE: update_env_cache:empty_index <- $r1
	@DEBUG_VALUE: update_env_cache:name_crc <- [DW_OP_LLVM_convert 32 7, DW_OP_LLVM_convert 16 7, DW_OP_stack_value] $r0
	.loc	2 363 44                        @ packages/EasyFlash-v4.1.0/src/ef_env.c:363:44
	ldr	r2, [r7, #4]
	eor	r4, r1, #16
	.loc	2 363 65 is_stmt 0              @ packages/EasyFlash-v4.1.0/src/ef_env.c:363:65
	orn	r4, r4, r2
	cmp	r4, #0
	mov	r4, r1
	it	eq
	moveq	r4, r5
	adds	r2, #1
	beq	.LBB31_7
.Ltmp504:
@ %bb.6:                                @   in Loop: Header=BB31_3 Depth=1
	@DEBUG_VALUE: update_env_cache:min_activity_index <- $r12
	@DEBUG_VALUE: update_env_cache:addr <- $r8
	@DEBUG_VALUE: update_env_cache:i <- $r5
	@DEBUG_VALUE: update_env_cache:min_activity <- $r3
	@DEBUG_VALUE: update_env_cache:empty_index <- $r1
	@DEBUG_VALUE: update_env_cache:name_crc <- [DW_OP_LLVM_convert 32 7, DW_OP_LLVM_convert 16 7, DW_OP_stack_value] $r0
	.loc	2 366 40 is_stmt 1              @ packages/EasyFlash-v4.1.0/src/ef_env.c:366:40
	ldrh	r4, [r7, #2]
.Ltmp505:
	.loc	2 366 21 is_stmt 0              @ packages/EasyFlash-v4.1.0/src/ef_env.c:366:21
	cmp	r4, #0
.Ltmp506:
	.loc	2 367 46 is_stmt 1              @ packages/EasyFlash-v4.1.0/src/ef_env.c:367:46
	itt	ne
	subne	r2, r4, #1
	strhne	r2, [r7, #2]
.Ltmp507:
	.loc	2 369 40                        @ packages/EasyFlash-v4.1.0/src/ef_env.c:369:40
	ldrh	r2, [r7, #2]
.Ltmp508:
	.loc	2 369 21 is_stmt 0              @ packages/EasyFlash-v4.1.0/src/ef_env.c:369:21
	cmp	r2, r3
	itt	lo
	movlo	r12, r5
.Ltmp509:
	movlo	r3, r2
.Ltmp510:
	.loc	2 0 21                          @ packages/EasyFlash-v4.1.0/src/ef_env.c:0:21
	b	.LBB31_2
.Ltmp511:
	.p2align	2
.LBB31_7:                               @   in Loop: Header=BB31_3 Depth=1
	@DEBUG_VALUE: update_env_cache:min_activity_index <- $r12
	@DEBUG_VALUE: update_env_cache:addr <- $r8
	@DEBUG_VALUE: update_env_cache:i <- $r5
	@DEBUG_VALUE: update_env_cache:min_activity <- $r3
	@DEBUG_VALUE: update_env_cache:empty_index <- $r1
	@DEBUG_VALUE: update_env_cache:name_crc <- [DW_OP_LLVM_convert 32 7, DW_OP_LLVM_convert 16 7, DW_OP_stack_value] $r0
	mov	r1, r4
.Ltmp512:
	b	.LBB31_2
.Ltmp513:
.LBB31_8:
	@DEBUG_VALUE: update_env_cache:min_activity_index <- $r12
	@DEBUG_VALUE: update_env_cache:addr <- $r8
	@DEBUG_VALUE: update_env_cache:i <- $r5
	@DEBUG_VALUE: update_env_cache:min_activity <- $r3
	@DEBUG_VALUE: update_env_cache:empty_index <- $r1
	@DEBUG_VALUE: update_env_cache:name_crc <- [DW_OP_LLVM_convert 32 7, DW_OP_LLVM_convert 16 7, DW_OP_stack_value] $r0
	.loc	2 382 9 is_stmt 1               @ packages/EasyFlash-v4.1.0/src/ef_env.c:382:9
	cmp	r1, #15
	bhi	.LBB31_11
.Ltmp514:
@ %bb.9:
	@DEBUG_VALUE: update_env_cache:min_activity_index <- $r12
	@DEBUG_VALUE: update_env_cache:addr <- $r8
	@DEBUG_VALUE: update_env_cache:i <- $r5
	@DEBUG_VALUE: update_env_cache:min_activity <- $r3
	@DEBUG_VALUE: update_env_cache:empty_index <- $r1
	@DEBUG_VALUE: update_env_cache:name_crc <- [DW_OP_LLVM_convert 32 7, DW_OP_LLVM_convert 16 7, DW_OP_stack_value] $r0
	.loc	2 383 38                        @ packages/EasyFlash-v4.1.0/src/ef_env.c:383:38
	add.w	r2, lr, r1, lsl #3
	.loc	2 384 47                        @ packages/EasyFlash-v4.1.0/src/ef_env.c:384:47
	strh.w	r0, [lr, r1, lsl #3]
	movs	r0, #0
.Ltmp515:
	.loc	2 383 43                        @ packages/EasyFlash-v4.1.0/src/ef_env.c:383:43
	str.w	r8, [r2, #4]
	.loc	2 385 45                        @ packages/EasyFlash-v4.1.0/src/ef_env.c:385:45
	strh	r0, [r2, #2]
.Ltmp516:
	.loc	2 391 1                         @ packages/EasyFlash-v4.1.0/src/ef_env.c:391:1
	pop.w	{r4, r5, r6, r7, r8, pc}
.Ltmp517:
.LBB31_10:
	@DEBUG_VALUE: update_env_cache:min_activity_index <- $r12
	@DEBUG_VALUE: update_env_cache:addr <- $r8
	@DEBUG_VALUE: update_env_cache:i <- $r5
	@DEBUG_VALUE: update_env_cache:min_activity <- $r3
	@DEBUG_VALUE: update_env_cache:empty_index <- $r1
	@DEBUG_VALUE: update_env_cache:name_crc <- [DW_OP_LLVM_convert 32 7, DW_OP_LLVM_convert 16 7, DW_OP_stack_value] $r0
	.loc	2 361 41                        @ packages/EasyFlash-v4.1.0/src/ef_env.c:361:41
	str.w	r8, [r7, #4]
.Ltmp518:
	.loc	2 391 1                         @ packages/EasyFlash-v4.1.0/src/ef_env.c:391:1
	pop.w	{r4, r5, r6, r7, r8, pc}
.Ltmp519:
.LBB31_11:
	@DEBUG_VALUE: update_env_cache:min_activity_index <- $r12
	@DEBUG_VALUE: update_env_cache:addr <- $r8
	@DEBUG_VALUE: update_env_cache:i <- $r5
	@DEBUG_VALUE: update_env_cache:min_activity <- $r3
	@DEBUG_VALUE: update_env_cache:empty_index <- $r1
	@DEBUG_VALUE: update_env_cache:name_crc <- [DW_OP_LLVM_convert 32 7, DW_OP_LLVM_convert 16 7, DW_OP_stack_value] $r0
	.loc	2 386 16                        @ packages/EasyFlash-v4.1.0/src/ef_env.c:386:16
	cmp.w	r12, #15
.Ltmp520:
	.loc	2 391 1                         @ packages/EasyFlash-v4.1.0/src/ef_env.c:391:1
	it	hi
	pophi.w	{r4, r5, r6, r7, r8, pc}
.Ltmp521:
.LBB31_12:
	@DEBUG_VALUE: update_env_cache:min_activity_index <- $r12
	@DEBUG_VALUE: update_env_cache:min_activity <- $r3
	@DEBUG_VALUE: update_env_cache:empty_index <- $r1
	@DEBUG_VALUE: update_env_cache:name_crc <- [DW_OP_LLVM_convert 32 7, DW_OP_LLVM_convert 16 7, DW_OP_stack_value] $r0
	.loc	2 387 45                        @ packages/EasyFlash-v4.1.0/src/ef_env.c:387:45
	add.w	r1, lr, r12, lsl #3
.Ltmp522:
	.loc	2 388 54                        @ packages/EasyFlash-v4.1.0/src/ef_env.c:388:54
	strh.w	r0, [lr, r12, lsl #3]
	movs	r0, #0
.Ltmp523:
	.loc	2 387 50                        @ packages/EasyFlash-v4.1.0/src/ef_env.c:387:50
	str.w	r8, [r1, #4]
	.loc	2 389 52                        @ packages/EasyFlash-v4.1.0/src/ef_env.c:389:52
	strh	r0, [r1, #2]
.Ltmp524:
	.loc	2 391 1                         @ packages/EasyFlash-v4.1.0/src/ef_env.c:391:1
	pop.w	{r4, r5, r6, r7, r8, pc}
.Ltmp525:
.LBB31_13:
	@DEBUG_VALUE: update_env_cache:min_activity_index <- $r12
	@DEBUG_VALUE: update_env_cache:addr <- $r8
	@DEBUG_VALUE: update_env_cache:i <- $r5
	@DEBUG_VALUE: update_env_cache:min_activity <- $r3
	@DEBUG_VALUE: update_env_cache:empty_index <- $r1
	@DEBUG_VALUE: update_env_cache:name_crc <- [DW_OP_LLVM_convert 32 7, DW_OP_LLVM_convert 16 7, DW_OP_stack_value] $r0
	.loc	2 376 37                        @ packages/EasyFlash-v4.1.0/src/ef_env.c:376:37
	add.w	r0, lr, r5, lsl #3
.Ltmp526:
	.loc	2 0 37 is_stmt 0                @ packages/EasyFlash-v4.1.0/src/ef_env.c:0:37
	mov.w	r1, #-1
.Ltmp527:
	.loc	2 376 37                        @ packages/EasyFlash-v4.1.0/src/ef_env.c:376:37
	str	r1, [r0, #4]
	movs	r1, #0
	.loc	2 377 39 is_stmt 1              @ packages/EasyFlash-v4.1.0/src/ef_env.c:377:39
	strh	r1, [r0, #2]
.Ltmp528:
	.loc	2 391 1                         @ packages/EasyFlash-v4.1.0/src/ef_env.c:391:1
	pop.w	{r4, r5, r6, r7, r8, pc}
.Ltmp529:
.Lfunc_end31:
	.size	update_env_cache, .Lfunc_end31-update_env_cache
	.cfi_endproc
	.cantunwind
	.fnend
                                        @ -- End function
	.section	.text.get_status,"ax",%progbits
	.p2align	3                               @ -- Begin function get_status
	.type	get_status,%function
	.code	16                              @ @get_status
	.thumb_func
get_status:
.Lfunc_begin32:
	.loc	2 247 0                         @ packages/EasyFlash-v4.1.0/src/ef_env.c:247:0
	.fnstart
	.cfi_startproc
@ %bb.0:
	@DEBUG_VALUE: get_status:status_table <- $r0
	@DEBUG_VALUE: get_status:status_num <- $r1
	@DEBUG_VALUE: get_status:status_num <- $r1
	.save	{r7, lr}
	push	{r7, lr}
	.cfi_def_cfa_offset 8
	.cfi_offset lr, -4
	.cfi_offset r7, -8
.Ltmp530:
	.loc	2 248 36 prologue_end           @ packages/EasyFlash-v4.1.0/src/ef_env.c:248:36
	subs.w	r12, r1, #1
.Ltmp531:
	@DEBUG_VALUE: get_status:i <- 0
	@DEBUG_VALUE: get_status:status_num_bak <- $r12
	@DEBUG_VALUE: get_status:status_num <- [DW_OP_constu 2, DW_OP_minus, DW_OP_stack_value] $r1
	@DEBUG_VALUE: get_status:status_table <- $r0
	.loc	2 250 5                         @ packages/EasyFlash-v4.1.0/src/ef_env.c:250:5
	beq	.LBB32_6
.Ltmp532:
@ %bb.1:
	@DEBUG_VALUE: get_status:status_num_bak <- $r12
	@DEBUG_VALUE: get_status:status_num <- [DW_OP_constu 2, DW_OP_minus, DW_OP_stack_value] $r1
	@DEBUG_VALUE: get_status:status_table <- $r0
	@DEBUG_VALUE: get_status:i <- 0
	.loc	2 250 23 is_stmt 0              @ packages/EasyFlash-v4.1.0/src/ef_env.c:250:23
	subs	r3, r1, #2
.Ltmp533:
	@DEBUG_VALUE: get_status:status_num <- $r3
	.loc	2 0 23                          @ packages/EasyFlash-v4.1.0/src/ef_env.c:0:23
	movs	r1, #0
.Ltmp534:
	.p2align	2
.LBB32_2:                               @ =>This Inner Loop Header: Depth=1
	@DEBUG_VALUE: get_status:status_num_bak <- $r12
	@DEBUG_VALUE: get_status:status_num <- $r3
	@DEBUG_VALUE: get_status:status_table <- $r0
	@DEBUG_VALUE: get_status:i <- $r1
	.loc	2 253 38 is_stmt 1              @ packages/EasyFlash-v4.1.0/src/ef_env.c:253:38
	lsrs	r2, r3, #3
	.loc	2 253 14 is_stmt 0              @ packages/EasyFlash-v4.1.0/src/ef_env.c:253:14
	ldrb.w	lr, [r0, r2]
	.loc	2 253 66                        @ packages/EasyFlash-v4.1.0/src/ef_env.c:253:66
	and	r2, r3, #7
.Ltmp535:
	.loc	2 253 13                        @ packages/EasyFlash-v4.1.0/src/ef_env.c:253:13
	lsl.w	r2, lr, r2
	lsls	r2, r2, #24
	bpl	.LBB32_5
.Ltmp536:
@ %bb.3:                                @   in Loop: Header=BB32_2 Depth=1
	@DEBUG_VALUE: get_status:status_num_bak <- $r12
	@DEBUG_VALUE: get_status:status_num <- $r3
	@DEBUG_VALUE: get_status:i <- $r1
	@DEBUG_VALUE: get_status:status_table <- $r0
	.loc	2 250 23 is_stmt 1              @ packages/EasyFlash-v4.1.0/src/ef_env.c:250:23
	subs	r3, #1
.Ltmp537:
	@DEBUG_VALUE: get_status:status_num <- $r3
	.loc	2 261 10                        @ packages/EasyFlash-v4.1.0/src/ef_env.c:261:10
	adds	r1, #1
.Ltmp538:
	@DEBUG_VALUE: get_status:i <- $r1
	.loc	2 250 5                         @ packages/EasyFlash-v4.1.0/src/ef_env.c:250:5
	adds	r2, r3, #1
	bne	.LBB32_2
.Ltmp539:
@ %bb.4:
	@DEBUG_VALUE: get_status:status_num_bak <- $r12
	@DEBUG_VALUE: get_status:status_num <- $r3
	@DEBUG_VALUE: get_status:i <- $r1
	@DEBUG_VALUE: get_status:status_table <- $r0
	.loc	2 0 0 is_stmt 0                 @ packages/EasyFlash-v4.1.0/src/ef_env.c:0:0
	mov	r1, r12
.Ltmp540:
.LBB32_5:
	@DEBUG_VALUE: get_status:status_num_bak <- $r12
	@DEBUG_VALUE: get_status:status_num <- $r3
	@DEBUG_VALUE: get_status:status_table <- $r0
	.loc	2 264 27 is_stmt 1              @ packages/EasyFlash-v4.1.0/src/ef_env.c:264:27
	sub.w	r0, r12, r1
.Ltmp541:
	@DEBUG_VALUE: get_status:status_table <- [DW_OP_LLVM_entry_value 1] $r0
	.loc	2 264 5 is_stmt 0               @ packages/EasyFlash-v4.1.0/src/ef_env.c:264:5
	pop	{r7, pc}
.Ltmp542:
.LBB32_6:
	@DEBUG_VALUE: get_status:status_num_bak <- $r12
	@DEBUG_VALUE: get_status:status_num <- [DW_OP_constu 2, DW_OP_minus, DW_OP_stack_value] $r1
	@DEBUG_VALUE: get_status:status_table <- $r0
	@DEBUG_VALUE: get_status:i <- 0
	.loc	2 0 5                           @ packages/EasyFlash-v4.1.0/src/ef_env.c:0:5
	movs	r1, #0
.Ltmp543:
	.loc	2 264 27                        @ packages/EasyFlash-v4.1.0/src/ef_env.c:264:27
	sub.w	r0, r12, r1
.Ltmp544:
	@DEBUG_VALUE: get_status:status_table <- [DW_OP_LLVM_entry_value 1] $r0
	.loc	2 264 5                         @ packages/EasyFlash-v4.1.0/src/ef_env.c:264:5
	pop	{r7, pc}
.Ltmp545:
.Lfunc_end32:
	.size	get_status, .Lfunc_end32-get_status
	.cfi_endproc
	.cantunwind
	.fnend
                                        @ -- End function
	.section	.text.write_status,"ax",%progbits
	.p2align	3                               @ -- Begin function write_status
	.type	write_status,%function
	.code	16                              @ @write_status
	.thumb_func
write_status:
.Lfunc_begin33:
	.loc	2 268 0 is_stmt 1               @ packages/EasyFlash-v4.1.0/src/ef_env.c:268:0
	.fnstart
	.cfi_startproc
@ %bb.0:
	@DEBUG_VALUE: write_status:addr <- $r0
	@DEBUG_VALUE: write_status:status_table <- $r1
	@DEBUG_VALUE: write_status:status_num <- $r2
	@DEBUG_VALUE: write_status:status_num <- $r2
	@DEBUG_VALUE: write_status:status_index <- $r3
	@DEBUG_VALUE: write_status:status_index <- $r3
	.save	{r4, r5, r7, lr}
	push	{r4, r5, r7, lr}
	.cfi_def_cfa_offset 16
	.cfi_offset lr, -4
	.cfi_offset r7, -8
	.cfi_offset r5, -12
	.cfi_offset r4, -16
	.pad	#8
	sub	sp, #8
	.cfi_def_cfa_offset 24
.Ltmp546:
	.loc	2 272 5 prologue_end            @ packages/EasyFlash-v4.1.0/src/ef_env.c:272:5
	cmp	r3, r2
	@DEBUG_VALUE: write_status:status_table <- $r1
.Ltmp547:
	@DEBUG_VALUE: write_status:result <- 0
	@DEBUG_VALUE: write_status:addr <- $r0
	bhs	.LBB33_3
.Ltmp548:
@ %bb.1:
	@DEBUG_VALUE: write_status:status_index <- $r3
	@DEBUG_VALUE: write_status:status_num <- $r2
	@DEBUG_VALUE: write_status:status_table <- $r1
	@DEBUG_VALUE: write_status:addr <- $r0
	@DEBUG_VALUE: write_status:result <- 0
	.loc	2 0 5 is_stmt 0                 @ packages/EasyFlash-v4.1.0/src/ef_env.c:0:5
	mov	r4, r1
.Ltmp549:
	@DEBUG_VALUE: write_status:status_table <- $r4
	@DEBUG_VALUE: write_status:addr <- $r0
	.loc	2 273 5 is_stmt 1               @ packages/EasyFlash-v4.1.0/src/ef_env.c:273:5
	cbz	r1, .LBB33_5
.Ltmp550:
@ %bb.2:
	@DEBUG_VALUE: write_status:status_table <- $r4
	@DEBUG_VALUE: write_status:status_index <- $r3
	@DEBUG_VALUE: write_status:status_num <- $r2
	@DEBUG_VALUE: write_status:addr <- $r0
	@DEBUG_VALUE: write_status:result <- 0
	.loc	2 0 5 is_stmt 0                 @ packages/EasyFlash-v4.1.0/src/ef_env.c:0:5
	mov	r5, r0
.Ltmp551:
	@DEBUG_VALUE: write_status:addr <- $r5
	@DEBUG_VALUE: write_status:addr <- $r5
	.loc	2 276 18 is_stmt 1              @ packages/EasyFlash-v4.1.0/src/ef_env.c:276:18
	mov	r0, r4
	mov	r1, r2
	mov	r2, r3
.Ltmp552:
	@DEBUG_VALUE: write_status:status_num <- [DW_OP_LLVM_entry_value 1] $r2
	bl	set_status
.Ltmp553:
	@DEBUG_VALUE: write_status:status_index <- [DW_OP_LLVM_entry_value 1] $r3
	@DEBUG_VALUE: write_status:byte_index <- 0
	.loc	2 283 14                        @ packages/EasyFlash-v4.1.0/src/ef_env.c:283:14
	movs	r2, #1
	mov	r0, r5
	mov	r1, r4
	bl	ef_port_write
.Ltmp554:
	@DEBUG_VALUE: write_status:result <- undef
	.loc	2 291 1                         @ packages/EasyFlash-v4.1.0/src/ef_env.c:291:1
	add	sp, #8
	pop	{r4, r5, r7, pc}
.Ltmp555:
.LBB33_3:
	@DEBUG_VALUE: write_status:status_index <- $r3
	@DEBUG_VALUE: write_status:status_num <- $r2
	@DEBUG_VALUE: write_status:status_table <- $r1
	@DEBUG_VALUE: write_status:addr <- $r0
	@DEBUG_VALUE: write_status:result <- 0
	.loc	2 272 5                         @ packages/EasyFlash-v4.1.0/src/ef_env.c:272:5
	movw	r0, :lower16:.L.str.2
.Ltmp556:
	@DEBUG_VALUE: write_status:addr <- [DW_OP_LLVM_entry_value 1] $r0
	movw	r2, :lower16:.L.str.3
.Ltmp557:
	@DEBUG_VALUE: write_status:status_num <- [DW_OP_LLVM_entry_value 1] $r2
	movw	r5, :lower16:.L__FUNCTION__.write_status
	movt	r0, :upper16:.L.str.2
	movt	r2, :upper16:.L.str.3
	adr	r3, .LCPI33_0
.Ltmp558:
	@DEBUG_VALUE: write_status:status_index <- [DW_OP_LLVM_entry_value 1] $r3
	mov.w	r1, #272
.Ltmp559:
	@DEBUG_VALUE: write_status:status_table <- [DW_OP_LLVM_entry_value 1] $r1
	movt	r5, :upper16:.L__FUNCTION__.write_status
	str	r5, [sp]
	bl	ef_log_debug
.Ltmp560:
	.p2align	2
.LBB33_4:                               @ =>This Inner Loop Header: Depth=1
	@DEBUG_VALUE: write_status:status_table <- [DW_OP_LLVM_entry_value 1] $r1
	@DEBUG_VALUE: write_status:status_index <- [DW_OP_LLVM_entry_value 1] $r3
	@DEBUG_VALUE: write_status:status_num <- [DW_OP_LLVM_entry_value 1] $r2
	@DEBUG_VALUE: write_status:addr <- [DW_OP_LLVM_entry_value 1] $r0
	@DEBUG_VALUE: write_status:result <- 0
	b	.LBB33_4
.Ltmp561:
.LBB33_5:
	@DEBUG_VALUE: write_status:status_table <- $r4
	@DEBUG_VALUE: write_status:status_index <- $r3
	@DEBUG_VALUE: write_status:status_num <- $r2
	@DEBUG_VALUE: write_status:addr <- $r0
	@DEBUG_VALUE: write_status:result <- 0
	.loc	2 273 5                         @ packages/EasyFlash-v4.1.0/src/ef_env.c:273:5
	movw	r0, :lower16:.L.str.2
.Ltmp562:
	@DEBUG_VALUE: write_status:addr <- [DW_OP_LLVM_entry_value 1] $r0
	movw	r2, :lower16:.L.str.3
.Ltmp563:
	@DEBUG_VALUE: write_status:status_num <- [DW_OP_LLVM_entry_value 1] $r2
	movw	r3, :lower16:.L.str.17
.Ltmp564:
	@DEBUG_VALUE: write_status:status_index <- [DW_OP_LLVM_entry_value 1] $r3
	movw	r5, :lower16:.L__FUNCTION__.write_status
	movt	r0, :upper16:.L.str.2
	movt	r2, :upper16:.L.str.3
	movt	r3, :upper16:.L.str.17
	movw	r1, #273
	movt	r5, :upper16:.L__FUNCTION__.write_status
	str	r5, [sp]
	bl	ef_log_debug
.Ltmp565:
	.p2align	2
.LBB33_6:                               @ =>This Inner Loop Header: Depth=1
	@DEBUG_VALUE: write_status:status_table <- $r4
	@DEBUG_VALUE: write_status:status_index <- [DW_OP_LLVM_entry_value 1] $r3
	@DEBUG_VALUE: write_status:status_num <- [DW_OP_LLVM_entry_value 1] $r2
	@DEBUG_VALUE: write_status:addr <- [DW_OP_LLVM_entry_value 1] $r0
	@DEBUG_VALUE: write_status:result <- 0
	b	.LBB33_6
.Ltmp566:
	.p2align	2
@ %bb.7:
	.loc	2 0 5 is_stmt 0                 @ packages/EasyFlash-v4.1.0/src/ef_env.c:0:5
.LCPI33_0:
.L.str.16:
	.asciz	"status_index < status_num\000\000"
.Lfunc_end33:
	.size	write_status, .Lfunc_end33-write_status
	.cfi_endproc
	.cantunwind
	.fnend
                                        @ -- End function
	.section	.text.set_status,"ax",%progbits
	.p2align	3                               @ -- Begin function set_status
	.type	set_status,%function
	.code	16                              @ @set_status
	.thumb_func
set_status:
.Lfunc_begin34:
	.loc	2 223 0 is_stmt 1               @ packages/EasyFlash-v4.1.0/src/ef_env.c:223:0
	.fnstart
	.cfi_startproc
@ %bb.0:
	@DEBUG_VALUE: set_status:status_table <- $r0
	@DEBUG_VALUE: set_status:status_table <- $r0
	@DEBUG_VALUE: set_status:status_num <- $r1
	@DEBUG_VALUE: set_status:status_index <- $r2
	@DEBUG_VALUE: set_status:status_index <- $r2
	@DEBUG_VALUE: set_status:byte_index <- -1
	.loc	2 235 36 prologue_end           @ packages/EasyFlash-v4.1.0/src/ef_env.c:235:36
	subs	r1, r2, #1
.Ltmp567:
	@DEBUG_VALUE: set_status:status_num <- [DW_OP_LLVM_entry_value 1] $r1
	@DEBUG_VALUE: set_status:byte_index <- 0
	.loc	2 0 36 is_stmt 0                @ packages/EasyFlash-v4.1.0/src/ef_env.c:0:36
	mvn	r2, #128
.Ltmp568:
	@DEBUG_VALUE: set_status:status_index <- [DW_OP_LLVM_entry_value 1] $r2
	.loc	2 236 67 is_stmt 1              @ packages/EasyFlash-v4.1.0/src/ef_env.c:236:67
	and	r1, r1, #7
	.loc	2 236 37 is_stmt 0              @ packages/EasyFlash-v4.1.0/src/ef_env.c:236:37
	asr.w	r1, r2, r1
	.loc	2 236 34                        @ packages/EasyFlash-v4.1.0/src/ef_env.c:236:34
	strb	r1, [r0]
.Ltmp569:
	.loc	2 243 5 is_stmt 1               @ packages/EasyFlash-v4.1.0/src/ef_env.c:243:5
	bx	lr
.Ltmp570:
.Lfunc_end34:
	.size	set_status, .Lfunc_end34-set_status
	.cfi_endproc
	.cantunwind
	.fnend
                                        @ -- End function
	.section	.text.find_env_cb,"ax",%progbits
	.p2align	3                               @ -- Begin function find_env_cb
	.type	find_env_cb,%function
	.code	16                              @ @find_env_cb
	.thumb_func
find_env_cb:
.Lfunc_begin35:
	.loc	2 711 0                         @ packages/EasyFlash-v4.1.0/src/ef_env.c:711:0
	.fnstart
	.cfi_startproc
@ %bb.0:
	@DEBUG_VALUE: find_env_cb:env <- $r0
	@DEBUG_VALUE: find_env_cb:arg1 <- $r1
	@DEBUG_VALUE: find_env_cb:arg2 <- $r2
	.save	{r4, r5, r6, lr}
	push	{r4, r5, r6, lr}
	.cfi_def_cfa_offset 16
	.cfi_offset lr, -4
	.cfi_offset r6, -8
	.cfi_offset r5, -12
	.cfi_offset r4, -16
.Ltmp571:
	@DEBUG_VALUE: find_env_cb:key <- $r1
	@DEBUG_VALUE: find_env_cb:find_ok <- $r2
	mov	r6, r0
.Ltmp572:
	@DEBUG_VALUE: find_env_cb:env <- $r6
	@DEBUG_VALUE: find_env_cb:find_ok <- $r4
	@DEBUG_VALUE: find_env_cb:key <- $r5
	@DEBUG_VALUE: find_env_cb:arg2 <- $r4
	@DEBUG_VALUE: find_env_cb:arg1 <- $r5
	@DEBUG_VALUE: find_env_cb:env <- $r6
	.loc	2 714 22 prologue_end           @ packages/EasyFlash-v4.1.0/src/ef_env.c:714:22
	mov	r0, r1
	mov	r4, r2
.Ltmp573:
	.loc	2 0 22 is_stmt 0                @ packages/EasyFlash-v4.1.0/src/ef_env.c:0:22
	mov	r5, r1
.Ltmp574:
	.loc	2 714 22                        @ packages/EasyFlash-v4.1.0/src/ef_env.c:714:22
	bl	strlen
.Ltmp575:
	.loc	2 716 25 is_stmt 1              @ packages/EasyFlash-v4.1.0/src/ef_env.c:716:25
	ldrb	r1, [r6, #2]
.Ltmp576:
	@DEBUG_VALUE: find_env_cb:key_len <- $r0
	.loc	2 716 9 is_stmt 0               @ packages/EasyFlash-v4.1.0/src/ef_env.c:716:9
	cmp	r0, r1
	bne	.LBB35_4
.Ltmp577:
@ %bb.1:
	@DEBUG_VALUE: find_env_cb:env <- $r6
	@DEBUG_VALUE: find_env_cb:key_len <- $r0
	.loc	2 0 0                           @ packages/EasyFlash-v4.1.0/src/ef_env.c:0:0
	mov	r2, r0
.Ltmp578:
	@DEBUG_VALUE: find_env_cb:key_len <- $r2
	.loc	2 720 14 is_stmt 1              @ packages/EasyFlash-v4.1.0/src/ef_env.c:720:14
	ldrb	r0, [r6, #1]
	.loc	2 720 24 is_stmt 0              @ packages/EasyFlash-v4.1.0/src/ef_env.c:720:24
	cbz	r0, .LBB35_4
.Ltmp579:
@ %bb.2:
	@DEBUG_VALUE: find_env_cb:env <- $r6
	@DEBUG_VALUE: find_env_cb:key_len <- $r2
	.loc	2 720 32                        @ packages/EasyFlash-v4.1.0/src/ef_env.c:720:32
	ldrb	r0, [r6]
	.loc	2 720 52                        @ packages/EasyFlash-v4.1.0/src/ef_env.c:720:52
	cmp	r0, #2
	bne	.LBB35_4
.Ltmp580:
@ %bb.3:
	@DEBUG_VALUE: find_env_cb:env <- $r6
	@DEBUG_VALUE: find_env_cb:key_len <- $r2
	.loc	2 720 64                        @ packages/EasyFlash-v4.1.0/src/ef_env.c:720:64
	add.w	r0, r6, #16
	.loc	2 720 56                        @ packages/EasyFlash-v4.1.0/src/ef_env.c:720:56
	mov	r1, r5
	bl	strncmp
.Ltmp581:
	.loc	2 720 9                         @ packages/EasyFlash-v4.1.0/src/ef_env.c:720:9
	cbz	r0, .LBB35_5
.Ltmp582:
.LBB35_4:
	@DEBUG_VALUE: find_env_cb:env <- $r6
	.loc	2 0 9                           @ packages/EasyFlash-v4.1.0/src/ef_env.c:0:9
	movs	r0, #0
	.loc	2 725 1 is_stmt 1               @ packages/EasyFlash-v4.1.0/src/ef_env.c:725:1
	pop	{r4, r5, r6, pc}
.Ltmp583:
.LBB35_5:
	@DEBUG_VALUE: find_env_cb:env <- $r6
	.loc	2 0 1 is_stmt 0                 @ packages/EasyFlash-v4.1.0/src/ef_env.c:0:1
	movs	r0, #1
.Ltmp584:
	.loc	2 721 18 is_stmt 1              @ packages/EasyFlash-v4.1.0/src/ef_env.c:721:18
	strb	r0, [r4]
.Ltmp585:
	.loc	2 725 1                         @ packages/EasyFlash-v4.1.0/src/ef_env.c:725:1
	pop	{r4, r5, r6, pc}
.Ltmp586:
.Lfunc_end35:
	.size	find_env_cb, .Lfunc_end35-find_env_cb
	.cfi_endproc
	.cantunwind
	.fnend
                                        @ -- End function
	.section	.text.read_status,"ax",%progbits
	.p2align	3                               @ -- Begin function read_status
	.type	read_status,%function
	.code	16                              @ @read_status
	.thumb_func
read_status:
.Lfunc_begin36:
	.loc	2 294 0                         @ packages/EasyFlash-v4.1.0/src/ef_env.c:294:0
	.fnstart
	.cfi_startproc
@ %bb.0:
	@DEBUG_VALUE: read_status:addr <- $r0
	@DEBUG_VALUE: read_status:status_table <- $r1
	@DEBUG_VALUE: read_status:status_table <- $r1
	.save	{r4, lr}
	push	{r4, lr}
	.cfi_def_cfa_offset 8
	.cfi_offset lr, -4
	.cfi_offset r4, -8
	.pad	#8
	sub	sp, #8
	.cfi_def_cfa_offset 16
	@DEBUG_VALUE: read_status:total_num <- 4
	@DEBUG_VALUE: read_status:addr <- $r0
.Ltmp587:
	.loc	2 295 5 prologue_end            @ packages/EasyFlash-v4.1.0/src/ef_env.c:295:5
	cbz	r1, .LBB36_2
.Ltmp588:
@ %bb.1:
	@DEBUG_VALUE: read_status:status_table <- $r1
	@DEBUG_VALUE: read_status:addr <- $r0
	@DEBUG_VALUE: read_status:total_num <- 4
	.loc	2 297 5                         @ packages/EasyFlash-v4.1.0/src/ef_env.c:297:5
	movs	r2, #1
	mov	r4, r1
.Ltmp589:
	@DEBUG_VALUE: read_status:status_table <- $r4
	bl	ef_port_read
.Ltmp590:
	@DEBUG_VALUE: read_status:addr <- [DW_OP_LLVM_entry_value 1] $r0
	.loc	2 299 12                        @ packages/EasyFlash-v4.1.0/src/ef_env.c:299:12
	movs	r1, #4
	mov	r0, r4
	bl	get_status
	.loc	2 299 5 is_stmt 0               @ packages/EasyFlash-v4.1.0/src/ef_env.c:299:5
	add	sp, #8
	pop	{r4, pc}
.Ltmp591:
.LBB36_2:
	@DEBUG_VALUE: read_status:status_table <- $r1
	@DEBUG_VALUE: read_status:addr <- $r0
	@DEBUG_VALUE: read_status:total_num <- 4
	.loc	2 295 5 is_stmt 1               @ packages/EasyFlash-v4.1.0/src/ef_env.c:295:5
	movw	r0, :lower16:.L.str.2
.Ltmp592:
	@DEBUG_VALUE: read_status:addr <- [DW_OP_LLVM_entry_value 1] $r0
	movw	r2, :lower16:.L.str.3
	movw	r3, :lower16:.L.str.17
	movt	r0, :upper16:.L.str.2
	movt	r2, :upper16:.L.str.3
	movt	r3, :upper16:.L.str.17
	movw	r1, #295
.Ltmp593:
	@DEBUG_VALUE: read_status:status_table <- [DW_OP_LLVM_entry_value 1] $r1
	adr	r4, .LCPI36_0
	str	r4, [sp]
	bl	ef_log_debug
.Ltmp594:
	.p2align	2
.LBB36_3:                               @ =>This Inner Loop Header: Depth=1
	@DEBUG_VALUE: read_status:status_table <- [DW_OP_LLVM_entry_value 1] $r1
	@DEBUG_VALUE: read_status:addr <- [DW_OP_LLVM_entry_value 1] $r0
	@DEBUG_VALUE: read_status:total_num <- 4
	b	.LBB36_3
.Ltmp595:
	.p2align	2
@ %bb.4:
	.loc	2 0 5 is_stmt 0                 @ packages/EasyFlash-v4.1.0/src/ef_env.c:0:5
.LCPI36_0:
.L__FUNCTION__.read_status:
	.asciz	"read_status"
.Lfunc_end36:
	.size	read_status, .Lfunc_end36-read_status
	.cfi_endproc
	.cantunwind
	.fnend
                                        @ -- End function
	.section	.text.new_env_by_kv,"ax",%progbits
	.p2align	3                               @ -- Begin function new_env_by_kv
	.type	new_env_by_kv,%function
	.code	16                              @ @new_env_by_kv
	.thumb_func
new_env_by_kv:
.Lfunc_begin37:
	.loc	2 1206 0 is_stmt 1              @ packages/EasyFlash-v4.1.0/src/ef_env.c:1206:0
	.fnstart
	.cfi_startproc
@ %bb.0:
	@DEBUG_VALUE: new_env_by_kv:key_len <- $r0
	@DEBUG_VALUE: new_env_by_kv:key_len <- $r0
	@DEBUG_VALUE: new_env_by_kv:buf_len <- $r1
	@DEBUG_VALUE: new_env_by_kv:buf_len <- $r1
	.save	{r7, lr}
	push	{r7, lr}
	.cfi_def_cfa_offset 8
	.cfi_offset lr, -4
	.cfi_offset r7, -8
.Ltmp596:
	.loc	2 1207 40 prologue_end          @ packages/EasyFlash-v4.1.0/src/ef_env.c:1207:40
	add	r0, r1
.Ltmp597:
	@DEBUG_VALUE: new_env_by_kv:key_len <- [DW_OP_LLVM_entry_value 1] $r0
	.loc	2 1207 63 is_stmt 0             @ packages/EasyFlash-v4.1.0/src/ef_env.c:1207:63
	add.w	r1, r0, #24
.Ltmp598:
	@DEBUG_VALUE: new_env_by_kv:buf_len <- [DW_OP_LLVM_entry_value 1] $r1
	@DEBUG_VALUE: new_env_by_kv:env_len <- $r1
	.loc	2 1209 12 is_stmt 1             @ packages/EasyFlash-v4.1.0/src/ef_env.c:1209:12
	movw	r0, :lower16:set_env.sector
	movt	r0, :upper16:set_env.sector
.Ltmp599:
	@DEBUG_VALUE: new_env_by_kv:sector <- $r0
	bl	new_env
.Ltmp600:
	.loc	2 1209 5 is_stmt 0              @ packages/EasyFlash-v4.1.0/src/ef_env.c:1209:5
	pop	{r7, pc}
.Ltmp601:
.Lfunc_end37:
	.size	new_env_by_kv, .Lfunc_end37-new_env_by_kv
	.cfi_endproc
	.cantunwind
	.fnend
                                        @ -- End function
	.section	.text.new_env,"ax",%progbits
	.p2align	3                               @ -- Begin function new_env
	.type	new_env,%function
	.code	16                              @ @new_env
	.thumb_func
new_env:
.Lfunc_begin38:
	.loc	2 1189 0 is_stmt 1              @ packages/EasyFlash-v4.1.0/src/ef_env.c:1189:0
	.fnstart
	.cfi_startproc
@ %bb.0:
	@DEBUG_VALUE: new_env:sector <- $r0
	@DEBUG_VALUE: new_env:env_size <- $r1
	.save	{r4, r5, r7, lr}
	push	{r4, r5, r7, lr}
	.cfi_def_cfa_offset 16
	.cfi_offset lr, -4
	.cfi_offset r7, -8
	.cfi_offset r5, -12
	.cfi_offset r4, -16
	mov	r4, r1
	mov	r5, r0
	@DEBUG_LABEL: new_env:__retry
.Ltmp602:
	@DEBUG_VALUE: new_env:empty_env <- -1
	@DEBUG_VALUE: new_env:already_gc <- undef
	@DEBUG_VALUE: new_env:env_size <- $r4
	@DEBUG_VALUE: new_env:sector <- $r5
	.loc	2 1195 22 prologue_end          @ packages/EasyFlash-v4.1.0/src/ef_env.c:1195:22
	bl	alloc_env
.Ltmp603:
	@DEBUG_VALUE: new_env:empty_env <- $r0
	.loc	2 1195 66 is_stmt 0             @ packages/EasyFlash-v4.1.0/src/ef_env.c:1195:66
	adds	r1, r0, #1
	beq	.LBB38_2
.Ltmp604:
@ %bb.1:
	@DEBUG_VALUE: new_env:sector <- $r5
	@DEBUG_VALUE: new_env:env_size <- $r4
	@DEBUG_VALUE: new_env:empty_env <- $r0
	.loc	2 1202 5 is_stmt 1              @ packages/EasyFlash-v4.1.0/src/ef_env.c:1202:5
	pop	{r4, r5, r7, pc}
.Ltmp605:
.LBB38_2:
	@DEBUG_VALUE: new_env:sector <- $r5
	@DEBUG_VALUE: new_env:env_size <- $r4
	@DEBUG_VALUE: new_env:empty_env <- $r0
	.loc	2 1195 69                       @ packages/EasyFlash-v4.1.0/src/ef_env.c:1195:69
	movw	r1, :lower16:gc_request
	movt	r1, :upper16:gc_request
	ldrb	r1, [r1]
	.loc	2 1195 80 is_stmt 0             @ packages/EasyFlash-v4.1.0/src/ef_env.c:1195:80
	cmp	r1, #1
.Ltmp606:
	.loc	2 1202 5 is_stmt 1              @ packages/EasyFlash-v4.1.0/src/ef_env.c:1202:5
	it	ne
	popne	{r4, r5, r7, pc}
.Ltmp607:
.LBB38_3:
	@DEBUG_VALUE: new_env:empty_env <- $r0
	.loc	2 1196 9                        @ packages/EasyFlash-v4.1.0/src/ef_env.c:1196:9
	movw	r0, :lower16:.L.str.2
.Ltmp608:
	movw	r2, :lower16:.L.str.19
	movt	r0, :upper16:.L.str.2
	movt	r2, :upper16:.L.str.19
	movw	r1, #1196
	mov	r3, r4
	bl	ef_log_debug
	.loc	2 1197 9                        @ packages/EasyFlash-v4.1.0/src/ef_env.c:1197:9
	bl	gc_collect
.Ltmp609:
	@DEBUG_LABEL: new_env:__retry
	@DEBUG_VALUE: new_env:already_gc <- undef
	.loc	2 1195 22                       @ packages/EasyFlash-v4.1.0/src/ef_env.c:1195:22
	mov	r0, r5
	mov	r1, r4
	bl	alloc_env
.Ltmp610:
	@DEBUG_VALUE: new_env:empty_env <- $r0
	.loc	2 1202 5                        @ packages/EasyFlash-v4.1.0/src/ef_env.c:1202:5
	pop	{r4, r5, r7, pc}
.Ltmp611:
.Lfunc_end38:
	.size	new_env, .Lfunc_end38-new_env
	.cfi_endproc
	.cantunwind
	.fnend
                                        @ -- End function
	.section	.text.alloc_env,"ax",%progbits
	.p2align	3                               @ -- Begin function alloc_env
	.type	alloc_env,%function
	.code	16                              @ @alloc_env
	.thumb_func
alloc_env:
.Lfunc_begin39:
	.loc	2 1044 0                        @ packages/EasyFlash-v4.1.0/src/ef_env.c:1044:0
	.fnstart
	.cfi_startproc
@ %bb.0:
	@DEBUG_VALUE: alloc_env:sector <- $r0
	@DEBUG_VALUE: alloc_env:env_size <- $r1
	@DEBUG_VALUE: alloc_env:env_size <- $r1
	.save	{r4, r5, r6, lr}
	push	{r4, r5, r6, lr}
	.cfi_def_cfa_offset 16
	.cfi_offset lr, -4
	.cfi_offset r6, -8
	.cfi_offset r5, -12
	.cfi_offset r4, -16
	.pad	#24
	sub	sp, #24
	.cfi_def_cfa_offset 40
	mov	r4, r0
.Ltmp612:
	@DEBUG_VALUE: alloc_env:sector <- $r4
	@DEBUG_VALUE: alloc_env:sector <- $r4
	.loc	2 1049 5 prologue_end           @ packages/EasyFlash-v4.1.0/src/ef_env.c:1049:5
	movw	r0, :lower16:sector_statistics_cb
	str	r1, [sp, #20]
	mov.w	r1, #-1
.Ltmp613:
	@DEBUG_VALUE: alloc_env:env_size <- [DW_OP_LLVM_entry_value 1] $r1
	@DEBUG_VALUE: alloc_env:empty_env <- -1
	.loc	2 1045 14                       @ packages/EasyFlash-v4.1.0/src/ef_env.c:1045:14
	str	r1, [sp, #16]
	.loc	2 1049 5                        @ packages/EasyFlash-v4.1.0/src/ef_env.c:1049:5
	movt	r0, :upper16:sector_statistics_cb
	str	r0, [sp]
	add	r2, sp, #12
	add	r3, sp, #8
	movs	r1, #0
	mov	r0, r4
	movs	r6, #0
.Ltmp614:
	@DEBUG_VALUE: alloc_env:empty_sector <- 0
	.loc	2 1046 12                       @ packages/EasyFlash-v4.1.0/src/ef_env.c:1046:12
	str	r6, [sp, #12]
.Ltmp615:
	@DEBUG_VALUE: alloc_env:using_sector <- 0
	.loc	2 1046 30 is_stmt 0             @ packages/EasyFlash-v4.1.0/src/ef_env.c:1046:30
	str	r6, [sp, #8]
.Ltmp616:
	@DEBUG_VALUE: alloc_env:using_sector <- [DW_OP_plus_uconst 8, DW_OP_deref] $sp
	@DEBUG_VALUE: alloc_env:empty_sector <- [DW_OP_plus_uconst 12, DW_OP_deref] $sp
	.loc	2 1049 5 is_stmt 1              @ packages/EasyFlash-v4.1.0/src/ef_env.c:1049:5
	str	r6, [sp, #4]
	bl	sector_iterator
.Ltmp617:
	.loc	2 1050 9                        @ packages/EasyFlash-v4.1.0/src/ef_env.c:1050:9
	ldr	r0, [sp, #8]
.Ltmp618:
	@DEBUG_VALUE: alloc_env:using_sector <- $r0
	.loc	2 0 9 is_stmt 0                 @ packages/EasyFlash-v4.1.0/src/ef_env.c:0:9
	movw	r5, :lower16:alloc_env_cb
	movt	r5, :upper16:alloc_env_cb
.Ltmp619:
	.loc	2 1050 9                        @ packages/EasyFlash-v4.1.0/src/ef_env.c:1050:9
	cbz	r0, .LBB39_2
.Ltmp620:
@ %bb.1:
	@DEBUG_VALUE: alloc_env:sector <- $r4
	@DEBUG_VALUE: alloc_env:using_sector <- $r0
	@DEBUG_VALUE: alloc_env:empty_sector <- [DW_OP_plus_uconst 12, DW_OP_deref] $sp
	@DEBUG_VALUE: alloc_env:empty_env <- -1
	@DEBUG_VALUE: alloc_env:env_size <- [DW_OP_LLVM_entry_value 1] $r1
	@DEBUG_VALUE: alloc_env:env_size <- [DW_OP_plus_uconst 20, DW_OP_deref] $sp
	@DEBUG_VALUE: alloc_env:empty_env <- [DW_OP_plus_uconst 16, DW_OP_deref] $sp
	.loc	2 0 9                           @ packages/EasyFlash-v4.1.0/src/ef_env.c:0:9
	add	r2, sp, #20
	add	r3, sp, #16
.Ltmp621:
	.loc	2 1052 9 is_stmt 1              @ packages/EasyFlash-v4.1.0/src/ef_env.c:1052:9
	movs	r1, #2
	movs	r0, #1
.Ltmp622:
	str	r0, [sp, #4]
	mov	r0, r4
	str	r5, [sp]
	bl	sector_iterator
.Ltmp623:
.LBB39_2:
	@DEBUG_VALUE: alloc_env:sector <- $r4
	@DEBUG_VALUE: alloc_env:empty_sector <- [DW_OP_plus_uconst 12, DW_OP_deref] $sp
	.loc	2 1054 9                        @ packages/EasyFlash-v4.1.0/src/ef_env.c:1054:9
	ldr	r0, [sp, #12]
.Ltmp624:
	@DEBUG_VALUE: alloc_env:empty_sector <- $r0
	@DEBUG_VALUE: alloc_env:empty_env <- undef
	.loc	2 1054 26 is_stmt 0             @ packages/EasyFlash-v4.1.0/src/ef_env.c:1054:26
	cbz	r0, .LBB39_8
.Ltmp625:
@ %bb.3:
	@DEBUG_VALUE: alloc_env:sector <- $r4
	@DEBUG_VALUE: alloc_env:empty_sector <- $r0
	.loc	2 0 26                          @ packages/EasyFlash-v4.1.0/src/ef_env.c:0:26
	ldr	r1, [sp, #16]
.Ltmp626:
	@DEBUG_VALUE: alloc_env:empty_env <- $r1
	.loc	2 1054 26                       @ packages/EasyFlash-v4.1.0/src/ef_env.c:1054:26
	adds	r1, #1
.Ltmp627:
	bne	.LBB39_8
.Ltmp628:
@ %bb.4:
	@DEBUG_VALUE: alloc_env:sector <- $r4
	@DEBUG_VALUE: alloc_env:empty_sector <- $r0
	.loc	2 1055 54 is_stmt 1             @ packages/EasyFlash-v4.1.0/src/ef_env.c:1055:54
	cmp	r0, #1
	bhi	.LBB39_6
.Ltmp629:
@ %bb.5:
	@DEBUG_VALUE: alloc_env:sector <- $r4
	@DEBUG_VALUE: alloc_env:empty_sector <- $r0
	.loc	2 1055 57 is_stmt 0             @ packages/EasyFlash-v4.1.0/src/ef_env.c:1055:57
	movw	r6, :lower16:gc_request
	movt	r6, :upper16:gc_request
	ldrb	r0, [r6]
.Ltmp630:
	.loc	2 1055 13                       @ packages/EasyFlash-v4.1.0/src/ef_env.c:1055:13
	cmp	r0, #1
	bne	.LBB39_7
.Ltmp631:
.LBB39_6:
	@DEBUG_VALUE: alloc_env:sector <- $r4
	@DEBUG_VALUE: alloc_env:env_size <- [DW_OP_plus_uconst 20, DW_OP_deref] $sp
	@DEBUG_VALUE: alloc_env:empty_env <- [DW_OP_plus_uconst 16, DW_OP_deref] $sp
	.loc	2 0 13                          @ packages/EasyFlash-v4.1.0/src/ef_env.c:0:13
	add	r2, sp, #20
	add	r3, sp, #16
.Ltmp632:
	.loc	2 1056 13 is_stmt 1             @ packages/EasyFlash-v4.1.0/src/ef_env.c:1056:13
	movs	r1, #1
	movs	r0, #1
	str	r0, [sp, #4]
	mov	r0, r4
	str	r5, [sp]
	bl	sector_iterator
	.loc	2 1057 9                        @ packages/EasyFlash-v4.1.0/src/ef_env.c:1057:9
	b	.LBB39_8
.Ltmp633:
.LBB39_7:
	@DEBUG_VALUE: alloc_env:sector <- $r4
	.loc	2 1059 13                       @ packages/EasyFlash-v4.1.0/src/ef_env.c:1059:13
	movw	r0, :lower16:.L.str.2
	adr	r2, .LCPI39_0
	movt	r0, :upper16:.L.str.2
	movw	r1, #1059
	bl	ef_log_debug
	movs	r0, #1
	.loc	2 1060 24                       @ packages/EasyFlash-v4.1.0/src/ef_env.c:1060:24
	strb	r0, [r6]
.Ltmp634:
.LBB39_8:
	@DEBUG_VALUE: alloc_env:sector <- $r4
	.loc	2 1064 12                       @ packages/EasyFlash-v4.1.0/src/ef_env.c:1064:12
	ldr	r0, [sp, #16]
.Ltmp635:
	@DEBUG_VALUE: alloc_env:empty_env <- $r0
	.loc	2 1064 5 is_stmt 0              @ packages/EasyFlash-v4.1.0/src/ef_env.c:1064:5
	add	sp, #24
	pop	{r4, r5, r6, pc}
.Ltmp636:
	.p2align	2
@ %bb.9:
	.loc	2 0 5                           @ packages/EasyFlash-v4.1.0/src/ef_env.c:0:5
.LCPI39_0:
.L.str.20:
	.asciz	"Trigger a GC check after alloc ENV failed.\n"
.Lfunc_end39:
	.size	alloc_env, .Lfunc_end39-alloc_env
	.cfi_endproc
	.cantunwind
	.fnend
                                        @ -- End function
	.section	.text.sector_statistics_cb,"ax",%progbits
	.p2align	3                               @ -- Begin function sector_statistics_cb
	.type	sector_statistics_cb,%function
	.code	16                              @ @sector_statistics_cb
	.thumb_func
sector_statistics_cb:
.Lfunc_begin40:
	.loc	2 1013 0 is_stmt 1              @ packages/EasyFlash-v4.1.0/src/ef_env.c:1013:0
	.fnstart
	.cfi_startproc
@ %bb.0:
	@DEBUG_VALUE: sector_statistics_cb:sector <- $r0
	@DEBUG_VALUE: sector_statistics_cb:sector <- $r0
	@DEBUG_VALUE: sector_statistics_cb:arg1 <- $r1
	@DEBUG_VALUE: sector_statistics_cb:arg2 <- $r2
	@DEBUG_VALUE: sector_statistics_cb:empty_sector <- $r1
	@DEBUG_VALUE: sector_statistics_cb:using_sector <- $r2
	.loc	2 1016 17 prologue_end          @ packages/EasyFlash-v4.1.0/src/ef_env.c:1016:17
	ldrb.w	r12, [r0]
	.loc	2 1016 26 is_stmt 0             @ packages/EasyFlash-v4.1.0/src/ef_env.c:1016:26
	cmp.w	r12, #0
	@DEBUG_VALUE: sector_statistics_cb:using_sector <- $r2
	@DEBUG_VALUE: sector_statistics_cb:empty_sector <- $r1
	@DEBUG_VALUE: sector_statistics_cb:arg2 <- $r2
	@DEBUG_VALUE: sector_statistics_cb:arg1 <- $r1
	beq	.LBB40_6
.Ltmp637:
@ %bb.1:
	@DEBUG_VALUE: sector_statistics_cb:using_sector <- $r2
	@DEBUG_VALUE: sector_statistics_cb:arg2 <- $r2
	@DEBUG_VALUE: sector_statistics_cb:empty_sector <- $r1
	@DEBUG_VALUE: sector_statistics_cb:arg1 <- $r1
	@DEBUG_VALUE: sector_statistics_cb:sector <- $r0
	.loc	2 1016 44                       @ packages/EasyFlash-v4.1.0/src/ef_env.c:1016:44
	ldrb	r3, [r0, #1]
.Ltmp638:
	.loc	2 1016 9                        @ packages/EasyFlash-v4.1.0/src/ef_env.c:1016:9
	cmp	r3, #1
	bne	.LBB40_3
.Ltmp639:
@ %bb.2:
	@DEBUG_VALUE: sector_statistics_cb:using_sector <- $r2
	@DEBUG_VALUE: sector_statistics_cb:arg2 <- $r2
	@DEBUG_VALUE: sector_statistics_cb:empty_sector <- $r1
	@DEBUG_VALUE: sector_statistics_cb:arg1 <- $r1
	@DEBUG_VALUE: sector_statistics_cb:sector <- $r0
	.loc	2 1017 24 is_stmt 1             @ packages/EasyFlash-v4.1.0/src/ef_env.c:1017:24
	ldr	r0, [r1]
.Ltmp640:
	@DEBUG_VALUE: sector_statistics_cb:sector <- [DW_OP_LLVM_entry_value 1] $r0
	adds	r0, #1
	str	r0, [r1]
.Ltmp641:
	.loc	2 1022 5                        @ packages/EasyFlash-v4.1.0/src/ef_env.c:1022:5
	movs	r0, #0
	bx	lr
.Ltmp642:
.LBB40_3:
	@DEBUG_VALUE: sector_statistics_cb:using_sector <- $r2
	@DEBUG_VALUE: sector_statistics_cb:arg2 <- $r2
	@DEBUG_VALUE: sector_statistics_cb:empty_sector <- $r1
	@DEBUG_VALUE: sector_statistics_cb:arg1 <- $r1
	@DEBUG_VALUE: sector_statistics_cb:sector <- $r0
	.loc	2 1018 33                       @ packages/EasyFlash-v4.1.0/src/ef_env.c:1018:33
	cmp.w	r12, #0
	beq	.LBB40_6
.Ltmp643:
@ %bb.4:
	@DEBUG_VALUE: sector_statistics_cb:using_sector <- $r2
	@DEBUG_VALUE: sector_statistics_cb:arg2 <- $r2
	@DEBUG_VALUE: sector_statistics_cb:empty_sector <- $r1
	@DEBUG_VALUE: sector_statistics_cb:arg1 <- $r1
	@DEBUG_VALUE: sector_statistics_cb:sector <- $r0
	.loc	2 1018 51 is_stmt 0             @ packages/EasyFlash-v4.1.0/src/ef_env.c:1018:51
	ldrb	r0, [r0, #1]
.Ltmp644:
	@DEBUG_VALUE: sector_statistics_cb:sector <- [DW_OP_LLVM_entry_value 1] $r0
	.loc	2 1018 16                       @ packages/EasyFlash-v4.1.0/src/ef_env.c:1018:16
	cmp	r0, #2
	bne	.LBB40_6
.Ltmp645:
@ %bb.5:
	@DEBUG_VALUE: sector_statistics_cb:using_sector <- $r2
	@DEBUG_VALUE: sector_statistics_cb:arg2 <- $r2
	@DEBUG_VALUE: sector_statistics_cb:empty_sector <- $r1
	@DEBUG_VALUE: sector_statistics_cb:arg1 <- $r1
	@DEBUG_VALUE: sector_statistics_cb:sector <- [DW_OP_LLVM_entry_value 1] $r0
	.loc	2 1019 24 is_stmt 1             @ packages/EasyFlash-v4.1.0/src/ef_env.c:1019:24
	ldr	r0, [r2]
	adds	r0, #1
	str	r0, [r2]
.Ltmp646:
.LBB40_6:
	@DEBUG_VALUE: sector_statistics_cb:using_sector <- $r2
	@DEBUG_VALUE: sector_statistics_cb:arg2 <- $r2
	@DEBUG_VALUE: sector_statistics_cb:empty_sector <- $r1
	@DEBUG_VALUE: sector_statistics_cb:arg1 <- $r1
	.loc	2 1022 5                        @ packages/EasyFlash-v4.1.0/src/ef_env.c:1022:5
	movs	r0, #0
	bx	lr
.Ltmp647:
.Lfunc_end40:
	.size	sector_statistics_cb, .Lfunc_end40-sector_statistics_cb
	.cfi_endproc
	.cantunwind
	.fnend
                                        @ -- End function
	.section	.text.alloc_env_cb,"ax",%progbits
	.p2align	3                               @ -- Begin function alloc_env_cb
	.type	alloc_env_cb,%function
	.code	16                              @ @alloc_env_cb
	.thumb_func
alloc_env_cb:
.Lfunc_begin41:
	.loc	2 1026 0                        @ packages/EasyFlash-v4.1.0/src/ef_env.c:1026:0
	.fnstart
	.cfi_startproc
@ %bb.0:
	@DEBUG_VALUE: alloc_env_cb:sector <- $r0
	@DEBUG_VALUE: alloc_env_cb:sector <- $r0
	@DEBUG_VALUE: alloc_env_cb:arg1 <- $r1
	@DEBUG_VALUE: alloc_env_cb:arg2 <- $r2
	@DEBUG_VALUE: alloc_env_cb:env_size <- $r1
	@DEBUG_VALUE: alloc_env_cb:empty_env <- $r2
	.loc	2 1033 17 prologue_end          @ packages/EasyFlash-v4.1.0/src/ef_env.c:1033:17
	ldrb	r3, [r0]
	@DEBUG_VALUE: alloc_env_cb:empty_env <- $r2
	@DEBUG_VALUE: alloc_env_cb:env_size <- $r1
	@DEBUG_VALUE: alloc_env_cb:arg2 <- $r2
	@DEBUG_VALUE: alloc_env_cb:arg1 <- $r1
	.loc	2 1033 26 is_stmt 0             @ packages/EasyFlash-v4.1.0/src/ef_env.c:1033:26
	cbz	r3, .LBB41_5
.Ltmp648:
@ %bb.1:
	@DEBUG_VALUE: alloc_env_cb:empty_env <- $r2
	@DEBUG_VALUE: alloc_env_cb:arg2 <- $r2
	@DEBUG_VALUE: alloc_env_cb:env_size <- $r1
	@DEBUG_VALUE: alloc_env_cb:arg1 <- $r1
	@DEBUG_VALUE: alloc_env_cb:sector <- $r0
	@DEBUG_VALUE: alloc_env_cb:env_size <- $r1
	.loc	2 1033 37                       @ packages/EasyFlash-v4.1.0/src/ef_env.c:1033:37
	ldr	r3, [r0, #16]
	.loc	2 1033 46                       @ packages/EasyFlash-v4.1.0/src/ef_env.c:1033:46
	ldr	r1, [r1]
.Ltmp649:
	@DEBUG_VALUE: alloc_env_cb:arg1 <- [DW_OP_LLVM_entry_value 1] $r1
	.loc	2 1034 13 is_stmt 1             @ packages/EasyFlash-v4.1.0/src/ef_env.c:1034:13
	cmp	r3, r1
	bls	.LBB41_5
.Ltmp650:
@ %bb.2:
	@DEBUG_VALUE: alloc_env_cb:empty_env <- $r2
	@DEBUG_VALUE: alloc_env_cb:arg2 <- $r2
	@DEBUG_VALUE: alloc_env_cb:sector <- $r0
	@DEBUG_VALUE: alloc_env_cb:arg1 <- [DW_OP_LLVM_entry_value 1] $r1
	.loc	2 1034 33 is_stmt 0             @ packages/EasyFlash-v4.1.0/src/ef_env.c:1034:33
	ldrb	r1, [r0, #2]
	.loc	2 1035 21 is_stmt 1             @ packages/EasyFlash-v4.1.0/src/ef_env.c:1035:21
	cmp	r1, #1
	beq	.LBB41_6
.Ltmp651:
@ %bb.3:
	@DEBUG_VALUE: alloc_env_cb:empty_env <- $r2
	@DEBUG_VALUE: alloc_env_cb:arg2 <- $r2
	@DEBUG_VALUE: alloc_env_cb:sector <- $r0
	@DEBUG_VALUE: alloc_env_cb:arg1 <- [DW_OP_LLVM_entry_value 1] $r1
	cmp	r1, #2
	bne	.LBB41_5
.Ltmp652:
@ %bb.4:
	@DEBUG_VALUE: alloc_env_cb:empty_env <- $r2
	@DEBUG_VALUE: alloc_env_cb:arg2 <- $r2
	@DEBUG_VALUE: alloc_env_cb:sector <- $r0
	@DEBUG_VALUE: alloc_env_cb:arg1 <- [DW_OP_LLVM_entry_value 1] $r1
	.loc	2 1035 71 is_stmt 0             @ packages/EasyFlash-v4.1.0/src/ef_env.c:1035:71
	movw	r1, :lower16:gc_request
	movt	r1, :upper16:gc_request
	ldrb	r1, [r1]
.Ltmp653:
	.loc	2 1033 9 is_stmt 1              @ packages/EasyFlash-v4.1.0/src/ef_env.c:1033:9
	cbz	r1, .LBB41_6
.Ltmp654:
.LBB41_5:
	@DEBUG_VALUE: alloc_env_cb:empty_env <- $r2
	@DEBUG_VALUE: alloc_env_cb:arg2 <- $r2
	@DEBUG_VALUE: alloc_env_cb:sector <- $r0
	.loc	2 0 9 is_stmt 0                 @ packages/EasyFlash-v4.1.0/src/ef_env.c:0:9
	movs	r0, #0
.Ltmp655:
	@DEBUG_VALUE: alloc_env_cb:sector <- [DW_OP_LLVM_entry_value 1] $r0
	.loc	2 1041 1 is_stmt 1              @ packages/EasyFlash-v4.1.0/src/ef_env.c:1041:1
	bx	lr
.Ltmp656:
.LBB41_6:
	@DEBUG_VALUE: alloc_env_cb:empty_env <- $r2
	@DEBUG_VALUE: alloc_env_cb:arg2 <- $r2
	@DEBUG_VALUE: alloc_env_cb:sector <- $r0
	@DEBUG_VALUE: alloc_env_cb:arg1 <- [DW_OP_LLVM_entry_value 1] $r1
	.loc	2 1036 30                       @ packages/EasyFlash-v4.1.0/src/ef_env.c:1036:30
	ldr	r0, [r0, #20]
.Ltmp657:
	@DEBUG_VALUE: alloc_env_cb:sector <- [DW_OP_LLVM_entry_value 1] $r0
	.loc	2 1036 20 is_stmt 0             @ packages/EasyFlash-v4.1.0/src/ef_env.c:1036:20
	str	r0, [r2]
	movs	r0, #1
.Ltmp658:
	.loc	2 1041 1 is_stmt 1              @ packages/EasyFlash-v4.1.0/src/ef_env.c:1041:1
	bx	lr
.Ltmp659:
.Lfunc_end41:
	.size	alloc_env_cb, .Lfunc_end41-alloc_env_cb
	.cfi_endproc
	.cantunwind
	.fnend
                                        @ -- End function
	.section	.text.update_sector_cache,"ax",%progbits
	.p2align	3                               @ -- Begin function update_sector_cache
	.type	update_sector_cache,%function
	.code	16                              @ @update_sector_cache
	.thumb_func
update_sector_cache:
.Lfunc_begin42:
	.loc	2 307 0                         @ packages/EasyFlash-v4.1.0/src/ef_env.c:307:0
	.fnstart
	.cfi_startproc
@ %bb.0:
	@DEBUG_VALUE: update_sector_cache:sec_addr <- $r0
	@DEBUG_VALUE: update_sector_cache:sec_addr <- $r0
	@DEBUG_VALUE: update_sector_cache:empty_addr <- $r1
	@DEBUG_VALUE: update_sector_cache:empty_addr <- $r1
	.save	{r4, r5, r7, lr}
	push	{r4, r5, r7, lr}
	.cfi_def_cfa_offset 16
	.cfi_offset lr, -4
	.cfi_offset r7, -8
	.cfi_offset r5, -12
	.cfi_offset r4, -16
.Ltmp660:
	@DEBUG_VALUE: update_sector_cache:empty_index <- 4
	@DEBUG_VALUE: update_sector_cache:i <- 0
	movs	r2, #0
	add.w	r3, r0, #4096
	movs	r4, #0
	cmp	r1, r0
	it	hi
	movhi	r2, #1
	cmp	r3, r1
	movw	r12, :lower16:sector_cache_table
	it	hi
	movhi	r4, #1
	movs	r3, #0
	movt	r12, :upper16:sector_cache_table
	and.w	lr, r2, r4
	movs	r2, #4
	b	.LBB42_3
.Ltmp661:
	.p2align	2
.LBB42_1:                               @   in Loop: Header=BB42_3 Depth=1
	@DEBUG_VALUE: update_sector_cache:i <- $r3
	@DEBUG_VALUE: update_sector_cache:empty_index <- $r2
	@DEBUG_VALUE: update_sector_cache:empty_addr <- $r1
	@DEBUG_VALUE: update_sector_cache:sec_addr <- $r0
	.loc	2 320 20 prologue_end           @ packages/EasyFlash-v4.1.0/src/ef_env.c:320:20
	cmp	r4, r0
	beq	.LBB42_8
.Ltmp662:
.LBB42_2:                               @   in Loop: Header=BB42_3 Depth=1
	@DEBUG_VALUE: update_sector_cache:i <- $r3
	@DEBUG_VALUE: update_sector_cache:empty_addr <- $r1
	@DEBUG_VALUE: update_sector_cache:sec_addr <- $r0
	@DEBUG_VALUE: update_sector_cache:empty_index <- $r2
	.loc	2 310 50                        @ packages/EasyFlash-v4.1.0/src/ef_env.c:310:50
	adds	r3, #1
.Ltmp663:
	@DEBUG_VALUE: update_sector_cache:i <- $r3
	.loc	2 310 5 is_stmt 0               @ packages/EasyFlash-v4.1.0/src/ef_env.c:310:5
	cmp	r3, #4
	beq	.LBB42_6
.Ltmp664:
.LBB42_3:                               @ =>This Inner Loop Header: Depth=1
	@DEBUG_VALUE: update_sector_cache:empty_addr <- $r1
	@DEBUG_VALUE: update_sector_cache:sec_addr <- $r0
	@DEBUG_VALUE: update_sector_cache:empty_index <- $r2
	@DEBUG_VALUE: update_sector_cache:i <- $r3
	.loc	2 311 37 is_stmt 1              @ packages/EasyFlash-v4.1.0/src/ef_env.c:311:37
	cmp.w	lr, #0
	.loc	2 0 0 is_stmt 0                 @ packages/EasyFlash-v4.1.0/src/ef_env.c:0:0
	ldr.w	r4, [r12, r3, lsl #3]
	.loc	2 311 37                        @ packages/EasyFlash-v4.1.0/src/ef_env.c:311:37
	beq	.LBB42_1
.Ltmp665:
@ %bb.4:                                @   in Loop: Header=BB42_3 Depth=1
	@DEBUG_VALUE: update_sector_cache:i <- $r3
	@DEBUG_VALUE: update_sector_cache:empty_index <- $r2
	@DEBUG_VALUE: update_sector_cache:empty_addr <- $r1
	@DEBUG_VALUE: update_sector_cache:sec_addr <- $r0
	.loc	2 313 17 is_stmt 1              @ packages/EasyFlash-v4.1.0/src/ef_env.c:313:17
	cmp	r4, r0
	beq	.LBB42_9
.Ltmp666:
@ %bb.5:                                @   in Loop: Header=BB42_3 Depth=1
	@DEBUG_VALUE: update_sector_cache:i <- $r3
	@DEBUG_VALUE: update_sector_cache:empty_index <- $r2
	@DEBUG_VALUE: update_sector_cache:empty_addr <- $r1
	@DEBUG_VALUE: update_sector_cache:sec_addr <- $r0
	.loc	2 0 17 is_stmt 0                @ packages/EasyFlash-v4.1.0/src/ef_env.c:0:17
	eor	r5, r2, #4
.Ltmp667:
	.loc	2 317 68 is_stmt 1              @ packages/EasyFlash-v4.1.0/src/ef_env.c:317:68
	orn	r4, r5, r4
	cmp	r4, #0
	it	eq
	moveq	r2, r3
.Ltmp668:
	.loc	2 0 68 is_stmt 0                @ packages/EasyFlash-v4.1.0/src/ef_env.c:0:68
	b	.LBB42_2
.Ltmp669:
.LBB42_6:
	@DEBUG_VALUE: update_sector_cache:i <- $r3
	@DEBUG_VALUE: update_sector_cache:empty_index <- $r2
	@DEBUG_VALUE: update_sector_cache:empty_addr <- $r1
	@DEBUG_VALUE: update_sector_cache:sec_addr <- $r0
	.loc	2 327 9 is_stmt 1               @ packages/EasyFlash-v4.1.0/src/ef_env.c:327:9
	cmp	r2, #3
	.loc	2 331 1                         @ packages/EasyFlash-v4.1.0/src/ef_env.c:331:1
	it	hi
	pophi	{r4, r5, r7, pc}
.Ltmp670:
.LBB42_7:
	@DEBUG_VALUE: update_sector_cache:i <- $r3
	@DEBUG_VALUE: update_sector_cache:empty_index <- $r2
	@DEBUG_VALUE: update_sector_cache:empty_addr <- $r1
	@DEBUG_VALUE: update_sector_cache:sec_addr <- $r0
	.loc	2 328 41                        @ packages/EasyFlash-v4.1.0/src/ef_env.c:328:41
	add.w	r3, r12, r2, lsl #3
.Ltmp671:
	.loc	2 328 46 is_stmt 0              @ packages/EasyFlash-v4.1.0/src/ef_env.c:328:46
	str.w	r0, [r12, r2, lsl #3]
	.loc	2 329 52 is_stmt 1              @ packages/EasyFlash-v4.1.0/src/ef_env.c:329:52
	str	r1, [r3, #4]
.Ltmp672:
	.loc	2 331 1                         @ packages/EasyFlash-v4.1.0/src/ef_env.c:331:1
	pop	{r4, r5, r7, pc}
.Ltmp673:
.LBB42_8:
	@DEBUG_VALUE: update_sector_cache:i <- $r3
	@DEBUG_VALUE: update_sector_cache:empty_index <- $r2
	@DEBUG_VALUE: update_sector_cache:empty_addr <- $r1
	@DEBUG_VALUE: update_sector_cache:sec_addr <- $r0
	.loc	2 0 1 is_stmt 0                 @ packages/EasyFlash-v4.1.0/src/ef_env.c:0:1
	mov.w	r0, #-1
.Ltmp674:
	@DEBUG_VALUE: update_sector_cache:sec_addr <- [DW_OP_LLVM_entry_value 1] $r0
	.loc	2 322 40 is_stmt 1              @ packages/EasyFlash-v4.1.0/src/ef_env.c:322:40
	str.w	r0, [r12, r3, lsl #3]
.Ltmp675:
	.loc	2 331 1                         @ packages/EasyFlash-v4.1.0/src/ef_env.c:331:1
	pop	{r4, r5, r7, pc}
.Ltmp676:
.LBB42_9:
	@DEBUG_VALUE: update_sector_cache:i <- $r3
	@DEBUG_VALUE: update_sector_cache:empty_index <- $r2
	@DEBUG_VALUE: update_sector_cache:empty_addr <- $r1
	@DEBUG_VALUE: update_sector_cache:sec_addr <- $r0
	.loc	2 314 44                        @ packages/EasyFlash-v4.1.0/src/ef_env.c:314:44
	add.w	r2, r12, r3, lsl #3
.Ltmp677:
	str.w	r0, [r12, r3, lsl #3]
	.loc	2 315 50                        @ packages/EasyFlash-v4.1.0/src/ef_env.c:315:50
	str	r1, [r2, #4]
.Ltmp678:
	.loc	2 331 1                         @ packages/EasyFlash-v4.1.0/src/ef_env.c:331:1
	pop	{r4, r5, r7, pc}
.Ltmp679:
.Lfunc_end42:
	.size	update_sector_cache, .Lfunc_end42-update_sector_cache
	.cfi_endproc
	.cantunwind
	.fnend
                                        @ -- End function
	.section	.text.update_sec_status,"ax",%progbits
	.p2align	3                               @ -- Begin function update_sec_status
	.type	update_sec_status,%function
	.code	16                              @ @update_sec_status
	.thumb_func
update_sec_status:
.Lfunc_begin43:
	.loc	2 963 0                         @ packages/EasyFlash-v4.1.0/src/ef_env.c:963:0
	.fnstart
	.cfi_startproc
@ %bb.0:
	@DEBUG_VALUE: update_sec_status:sector <- $r0
	@DEBUG_VALUE: update_sec_status:new_env_len <- $r1
	@DEBUG_VALUE: update_sec_status:is_full <- $r2
	.save	{r4, r5, r7, lr}
	push	{r4, r5, r7, lr}
	.cfi_def_cfa_offset 16
	.cfi_offset lr, -4
	.cfi_offset r7, -8
	.cfi_offset r5, -12
	.cfi_offset r4, -16
	.pad	#8
	sub	sp, #8
	.cfi_def_cfa_offset 24
	mov	r5, r0
.Ltmp680:
	@DEBUG_VALUE: update_sec_status:result <- 0
	@DEBUG_VALUE: update_sec_status:sector <- $r5
	.loc	2 967 24 prologue_end           @ packages/EasyFlash-v4.1.0/src/ef_env.c:967:24
	ldrb	r0, [r0, #1]
.Ltmp681:
	.loc	2 967 9 is_stmt 0               @ packages/EasyFlash-v4.1.0/src/ef_env.c:967:9
	cmp	r0, #2
	@DEBUG_VALUE: update_sec_status:is_full <- $r2
	@DEBUG_VALUE: update_sec_status:new_env_len <- $r1
	beq	.LBB43_3
.Ltmp682:
@ %bb.1:
	@DEBUG_VALUE: update_sec_status:sector <- $r5
	@DEBUG_VALUE: update_sec_status:is_full <- $r2
	@DEBUG_VALUE: update_sec_status:new_env_len <- $r1
	@DEBUG_VALUE: update_sec_status:result <- 0
	cmp	r0, #1
	bne	.LBB43_6
.Ltmp683:
@ %bb.2:
	@DEBUG_VALUE: update_sec_status:sector <- $r5
	@DEBUG_VALUE: update_sec_status:is_full <- $r2
	@DEBUG_VALUE: update_sec_status:new_env_len <- $r1
	@DEBUG_VALUE: update_sec_status:result <- 0
	.loc	2 969 39 is_stmt 1              @ packages/EasyFlash-v4.1.0/src/ef_env.c:969:39
	ldr	r0, [r5, #4]
	add.w	r1, sp, #7
.Ltmp684:
	@DEBUG_VALUE: update_sec_status:new_env_len <- [DW_OP_LLVM_entry_value 1] $r1
	.loc	2 969 18 is_stmt 0              @ packages/EasyFlash-v4.1.0/src/ef_env.c:969:18
	movs	r2, #4
.Ltmp685:
	@DEBUG_VALUE: update_sec_status:is_full <- [DW_OP_LLVM_entry_value 1] $r2
	movs	r3, #2
	bl	write_status
	mov	r5, r0
.Ltmp686:
	@DEBUG_VALUE: update_sec_status:result <- undef
	.loc	2 970 5 is_stmt 1               @ packages/EasyFlash-v4.1.0/src/ef_env.c:970:5
	b	.LBB43_9
.Ltmp687:
.LBB43_3:
	@DEBUG_VALUE: update_sec_status:sector <- $r5
	@DEBUG_VALUE: update_sec_status:is_full <- $r2
	@DEBUG_VALUE: update_sec_status:new_env_len <- $r1
	@DEBUG_VALUE: update_sec_status:result <- 0
	.loc	2 972 21                        @ packages/EasyFlash-v4.1.0/src/ef_env.c:972:21
	ldr	r0, [r5, #16]
	mov	r4, r2
.Ltmp688:
	@DEBUG_VALUE: update_sec_status:is_full <- $r4
	@DEBUG_VALUE: update_sec_status:is_full <- $r4
	.loc	2 972 54 is_stmt 0              @ packages/EasyFlash-v4.1.0/src/ef_env.c:972:54
	cmp	r0, #56
	blo	.LBB43_7
.Ltmp689:
@ %bb.4:
	@DEBUG_VALUE: update_sec_status:sector <- $r5
	@DEBUG_VALUE: update_sec_status:is_full <- $r4
	@DEBUG_VALUE: update_sec_status:new_env_len <- $r1
	@DEBUG_VALUE: update_sec_status:result <- 0
	.loc	2 0 54                          @ packages/EasyFlash-v4.1.0/src/ef_env.c:0:54
	subs	r0, r0, r1
	.loc	2 972 54                        @ packages/EasyFlash-v4.1.0/src/ef_env.c:972:54
	cmp	r0, #55
	bls	.LBB43_7
.Ltmp690:
@ %bb.5:
	@DEBUG_VALUE: update_sec_status:sector <- $r5
	@DEBUG_VALUE: update_sec_status:is_full <- $r4
	@DEBUG_VALUE: update_sec_status:new_env_len <- $r1
	@DEBUG_VALUE: update_sec_status:result <- 0
	.loc	2 0 54                          @ packages/EasyFlash-v4.1.0/src/ef_env.c:0:54
	movs	r5, #0
.Ltmp691:
	.loc	2 984 20 is_stmt 1              @ packages/EasyFlash-v4.1.0/src/ef_env.c:984:20
	cmp	r4, #0
.Ltmp692:
	.loc	2 985 22                        @ packages/EasyFlash-v4.1.0/src/ef_env.c:985:22
	it	ne
	strbne	r5, [r4]
	b	.LBB43_9
.Ltmp693:
.LBB43_6:
	@DEBUG_VALUE: update_sec_status:sector <- $r5
	@DEBUG_VALUE: update_sec_status:is_full <- $r2
	@DEBUG_VALUE: update_sec_status:new_env_len <- $r1
	@DEBUG_VALUE: update_sec_status:result <- 0
	.loc	2 0 22 is_stmt 0                @ packages/EasyFlash-v4.1.0/src/ef_env.c:0:22
	movs	r5, #0
.Ltmp694:
	b	.LBB43_9
.Ltmp695:
.LBB43_7:
	@DEBUG_VALUE: update_sec_status:sector <- $r5
	@DEBUG_VALUE: update_sec_status:is_full <- $r4
	@DEBUG_VALUE: update_sec_status:new_env_len <- $r1
	@DEBUG_VALUE: update_sec_status:result <- 0
	.loc	2 974 43 is_stmt 1              @ packages/EasyFlash-v4.1.0/src/ef_env.c:974:43
	ldr	r0, [r5, #4]
	add.w	r1, sp, #7
.Ltmp696:
	@DEBUG_VALUE: update_sec_status:new_env_len <- [DW_OP_LLVM_entry_value 1] $r1
	.loc	2 974 22 is_stmt 0              @ packages/EasyFlash-v4.1.0/src/ef_env.c:974:22
	movs	r2, #4
	movs	r3, #3
	bl	write_status
	.loc	2 978 41 is_stmt 1              @ packages/EasyFlash-v4.1.0/src/ef_env.c:978:41
	ldr	r2, [r5, #4]
	.loc	2 974 22                        @ packages/EasyFlash-v4.1.0/src/ef_env.c:974:22
	mov	r5, r0
.Ltmp697:
	@DEBUG_VALUE: update_sec_status:result <- undef
	.loc	2 978 60                        @ packages/EasyFlash-v4.1.0/src/ef_env.c:978:60
	add.w	r1, r2, #4096
	.loc	2 978 13 is_stmt 0              @ packages/EasyFlash-v4.1.0/src/ef_env.c:978:13
	mov	r0, r2
	bl	update_sector_cache
	.loc	2 981 17 is_stmt 1              @ packages/EasyFlash-v4.1.0/src/ef_env.c:981:17
	cbz	r4, .LBB43_9
.Ltmp698:
@ %bb.8:
	@DEBUG_VALUE: update_sec_status:is_full <- $r4
	@DEBUG_VALUE: update_sec_status:new_env_len <- [DW_OP_LLVM_entry_value 1] $r1
	.loc	2 0 17 is_stmt 0                @ packages/EasyFlash-v4.1.0/src/ef_env.c:0:17
	movs	r0, #1
.Ltmp699:
	.loc	2 982 26 is_stmt 1              @ packages/EasyFlash-v4.1.0/src/ef_env.c:982:26
	strb	r0, [r4]
.Ltmp700:
.LBB43_9:
	@DEBUG_VALUE: update_sec_status:result <- $r5
	.loc	2 989 5                         @ packages/EasyFlash-v4.1.0/src/ef_env.c:989:5
	mov	r0, r5
	add	sp, #8
	pop	{r4, r5, r7, pc}
.Ltmp701:
.Lfunc_end43:
	.size	update_sec_status, .Lfunc_end43-update_sec_status
	.cfi_endproc
	.cantunwind
	.fnend
                                        @ -- End function
	.section	.text.write_env_hdr,"ax",%progbits
	.p2align	3                               @ -- Begin function write_env_hdr
	.type	write_env_hdr,%function
	.code	16                              @ @write_env_hdr
	.thumb_func
write_env_hdr:
.Lfunc_begin44:
	.loc	2 921 0                         @ packages/EasyFlash-v4.1.0/src/ef_env.c:921:0
	.fnstart
	.cfi_startproc
@ %bb.0:
	@DEBUG_VALUE: write_env_hdr:addr <- $r0
	@DEBUG_VALUE: write_env_hdr:env_hdr <- $r1
	.save	{r4, r5, r7, lr}
	push	{r4, r5, r7, lr}
	.cfi_def_cfa_offset 16
	.cfi_offset lr, -4
	.cfi_offset r7, -8
	.cfi_offset r5, -12
	.cfi_offset r4, -16
.Ltmp702:
	.loc	2 924 14 prologue_end           @ packages/EasyFlash-v4.1.0/src/ef_env.c:924:14
	movs	r2, #6
	movs	r3, #1
	mov	r4, r1
	mov	r5, r0
.Ltmp703:
	@DEBUG_VALUE: write_env_hdr:result <- 0
	@DEBUG_VALUE: write_env_hdr:env_hdr <- $r4
	@DEBUG_VALUE: write_env_hdr:addr <- $r5
	bl	write_status
.Ltmp704:
	@DEBUG_VALUE: write_env_hdr:result <- $r0
	.loc	2 925 9                         @ packages/EasyFlash-v4.1.0/src/ef_env.c:925:9
	cmp	r0, #0
	.loc	2 932 1                         @ packages/EasyFlash-v4.1.0/src/ef_env.c:932:1
	it	ne
	popne	{r4, r5, r7, pc}
.Ltmp705:
.LBB44_1:
	@DEBUG_VALUE: write_env_hdr:result <- $r0
	.loc	2 929 33                        @ packages/EasyFlash-v4.1.0/src/ef_env.c:929:33
	adds	r0, r5, #4
.Ltmp706:
	.loc	2 929 63 is_stmt 0              @ packages/EasyFlash-v4.1.0/src/ef_env.c:929:63
	adds	r1, r4, #4
	.loc	2 929 14                        @ packages/EasyFlash-v4.1.0/src/ef_env.c:929:14
	movs	r2, #20
	bl	ef_port_write
.Ltmp707:
	@DEBUG_VALUE: write_env_hdr:result <- undef
	.loc	2 932 1 is_stmt 1               @ packages/EasyFlash-v4.1.0/src/ef_env.c:932:1
	pop	{r4, r5, r7, pc}
.Ltmp708:
.Lfunc_end44:
	.size	write_env_hdr, .Lfunc_end44-write_env_hdr
	.cfi_endproc
	.cantunwind
	.fnend
                                        @ -- End function
	.section	.text.align_write,"ax",%progbits
	.p2align	3                               @ -- Begin function align_write
	.type	align_write,%function
	.code	16                              @ @align_write
	.thumb_func
align_write:
.Lfunc_begin45:
	.loc	2 1273 0                        @ packages/EasyFlash-v4.1.0/src/ef_env.c:1273:0
	.fnstart
	.cfi_startproc
@ %bb.0:
	@DEBUG_VALUE: align_write:addr <- $r0
	@DEBUG_VALUE: align_write:addr <- $r0
	@DEBUG_VALUE: align_write:buf <- $r1
	@DEBUG_VALUE: align_write:buf <- $r1
	@DEBUG_VALUE: align_write:size <- $r2
	@DEBUG_VALUE: align_write:size <- $r2
	@DEBUG_VALUE: align_write:size <- $r2
	@DEBUG_VALUE: align_write:buf <- $r1
	@DEBUG_VALUE: align_write:addr <- $r0
	.save	{r7, lr}
	push	{r7, lr}
	.cfi_def_cfa_offset 8
	.cfi_offset lr, -4
	.cfi_offset r7, -8
.Ltmp709:
	@DEBUG_VALUE: align_write:result <- 0
	@DEBUG_VALUE: align_write:align_data <- undef
	@DEBUG_VALUE: align_write:align_data_size <- 1
	.loc	2 1287 14 prologue_end          @ packages/EasyFlash-v4.1.0/src/ef_env.c:1287:14
	bl	ef_port_write
.Ltmp710:
	@DEBUG_VALUE: align_write:size <- [DW_OP_LLVM_entry_value 1] $r2
	@DEBUG_VALUE: align_write:buf <- [DW_OP_LLVM_entry_value 1] $r1
	@DEBUG_VALUE: align_write:addr <- [DW_OP_LLVM_entry_value 1] $r0
	@DEBUG_VALUE: align_write:align_remain <- 0
	@DEBUG_VALUE: align_write:result <- undef
	.loc	2 1295 5                        @ packages/EasyFlash-v4.1.0/src/ef_env.c:1295:5
	pop	{r7, pc}
.Ltmp711:
.Lfunc_end45:
	.size	align_write, .Lfunc_end45-align_write
	.cfi_endproc
	.cantunwind
	.fnend
                                        @ -- End function
	.section	.text.get_next_sector_addr,"ax",%progbits
	.p2align	3                               @ -- Begin function get_next_sector_addr
	.type	get_next_sector_addr,%function
	.code	16                              @ @get_next_sector_addr
	.thumb_func
get_next_sector_addr:
.Lfunc_begin46:
	.loc	2 658 0                         @ packages/EasyFlash-v4.1.0/src/ef_env.c:658:0
	.fnstart
	.cfi_startproc
@ %bb.0:
	@DEBUG_VALUE: get_next_sector_addr:pre_sec <- $r0
	@DEBUG_VALUE: get_next_sector_addr:pre_sec <- $r0
	.loc	2 661 18 prologue_end           @ packages/EasyFlash-v4.1.0/src/ef_env.c:661:18
	ldr	r1, [r0, #4]
.Ltmp712:
	.loc	2 661 9 is_stmt 0               @ packages/EasyFlash-v4.1.0/src/ef_env.c:661:9
	adds	r2, r1, #1
	beq	.LBB46_2
.Ltmp713:
@ %bb.1:
	@DEBUG_VALUE: get_next_sector_addr:pre_sec <- $r0
	.loc	2 665 22 is_stmt 1              @ packages/EasyFlash-v4.1.0/src/ef_env.c:665:22
	ldr	r0, [r0, #12]
.Ltmp714:
	@DEBUG_VALUE: get_next_sector_addr:pre_sec <- [DW_OP_LLVM_entry_value 1] $r0
	.loc	2 665 13 is_stmt 0              @ packages/EasyFlash-v4.1.0/src/ef_env.c:665:13
	lsls	r2, r0, #12
	adds	r0, #1
	it	eq
	moveq.w	r2, #4096
	adds	r0, r2, r1
.Ltmp715:
	@DEBUG_VALUE: get_next_sector_addr:next_addr <- $r0
	.loc	2 671 13 is_stmt 1              @ packages/EasyFlash-v4.1.0/src/ef_env.c:671:13
	cmp.w	r0, #8192
	it	hs
	movhs.w	r0, #-1
.Ltmp716:
	bx	lr
.Ltmp717:
.LBB46_2:
	@DEBUG_VALUE: get_next_sector_addr:pre_sec <- $r0
	.loc	2 678 1                         @ packages/EasyFlash-v4.1.0/src/ef_env.c:678:1
	movs	r0, #0
.Ltmp718:
	@DEBUG_VALUE: get_next_sector_addr:pre_sec <- [DW_OP_LLVM_entry_value 1] $r0
	bx	lr
.Ltmp719:
.Lfunc_end46:
	.size	get_next_sector_addr, .Lfunc_end46-get_next_sector_addr
	.cfi_endproc
	.cantunwind
	.fnend
                                        @ -- End function
	.section	.text.read_sector_meta_data,"ax",%progbits
	.p2align	3                               @ -- Begin function read_sector_meta_data
	.type	read_sector_meta_data,%function
	.code	16                              @ @read_sector_meta_data
	.thumb_func
read_sector_meta_data:
.Lfunc_begin47:
	.loc	2 581 0                         @ packages/EasyFlash-v4.1.0/src/ef_env.c:581:0
	.fnstart
	.cfi_startproc
@ %bb.0:
	@DEBUG_VALUE: read_sector_meta_data:addr <- $r0
	@DEBUG_VALUE: read_sector_meta_data:sector <- $r1
	@DEBUG_VALUE: read_sector_meta_data:traversal <- [DW_OP_LLVM_convert 1 7, DW_OP_LLVM_convert 8 7, DW_OP_stack_value] $r2
	.save	{r4, r5, r6, r7, r8, lr}
	push.w	{r4, r5, r6, r7, r8, lr}
	.cfi_def_cfa_offset 24
	.cfi_offset lr, -4
	.cfi_offset r8, -8
	.cfi_offset r7, -12
	.cfi_offset r6, -16
	.cfi_offset r5, -20
	.cfi_offset r4, -24
	.pad	#80
	sub	sp, #80
	.cfi_def_cfa_offset 104
	mov	r5, r0
.Ltmp720:
	@DEBUG_VALUE: read_sector_meta_data:result <- 0
	@DEBUG_VALUE: read_sector_meta_data:traversal <- [DW_OP_LLVM_convert 1 7, DW_OP_LLVM_convert 8 7, DW_OP_stack_value] undef
	@DEBUG_VALUE: read_sector_meta_data:addr <- $r5
	.loc	2 585 5 prologue_end            @ packages/EasyFlash-v4.1.0/src/ef_env.c:585:5
	lsls	r0, r0, #20
.Ltmp721:
	@DEBUG_VALUE: read_sector_meta_data:traversal <- [DW_OP_LLVM_convert 1 7, DW_OP_LLVM_convert 8 7, DW_OP_stack_value] $r2
	@DEBUG_VALUE: read_sector_meta_data:sector <- $r1
	beq	.LBB47_3
.Ltmp722:
@ %bb.1:
	@DEBUG_VALUE: read_sector_meta_data:addr <- $r5
	@DEBUG_VALUE: read_sector_meta_data:traversal <- [DW_OP_LLVM_convert 1 7, DW_OP_LLVM_convert 8 7, DW_OP_stack_value] $r2
	@DEBUG_VALUE: read_sector_meta_data:sector <- $r1
	@DEBUG_VALUE: read_sector_meta_data:result <- 0
	.loc	2 585 5 is_stmt 0               @ packages/EasyFlash-v4.1.0/src/ef_env.c:585:5
	movw	r0, :lower16:.L.str.2
	movw	r2, :lower16:.L.str.3
.Ltmp723:
	movw	r3, :lower16:.L.str.21
	movw	r7, :lower16:.L__FUNCTION__.read_sector_meta_data
	movt	r0, :upper16:.L.str.2
	movt	r2, :upper16:.L.str.3
	movt	r3, :upper16:.L.str.21
	movw	r1, #585
.Ltmp724:
	@DEBUG_VALUE: read_sector_meta_data:sector <- [DW_OP_LLVM_entry_value 1] $r1
	movt	r7, :upper16:.L__FUNCTION__.read_sector_meta_data
	str	r7, [sp]
	bl	ef_log_debug
.Ltmp725:
	.p2align	2
.LBB47_2:                               @ =>This Inner Loop Header: Depth=1
	@DEBUG_VALUE: read_sector_meta_data:addr <- $r5
	@DEBUG_VALUE: read_sector_meta_data:sector <- [DW_OP_LLVM_entry_value 1] $r1
	@DEBUG_VALUE: read_sector_meta_data:result <- 0
	b	.LBB47_2
.Ltmp726:
.LBB47_3:
	@DEBUG_VALUE: read_sector_meta_data:addr <- $r5
	@DEBUG_VALUE: read_sector_meta_data:traversal <- [DW_OP_LLVM_convert 1 7, DW_OP_LLVM_convert 8 7, DW_OP_stack_value] $r2
	@DEBUG_VALUE: read_sector_meta_data:sector <- $r1
	@DEBUG_VALUE: read_sector_meta_data:result <- 0
	@DEBUG_VALUE: read_sector_meta_data:traversal <- [DW_OP_LLVM_convert 1 7, DW_OP_LLVM_convert 8 7, DW_OP_stack_value] $r2
	.loc	2 0 5                           @ packages/EasyFlash-v4.1.0/src/ef_env.c:0:5
	mov	r4, r1
.Ltmp727:
	@DEBUG_VALUE: read_sector_meta_data:sector <- $r4
	.loc	2 586 5 is_stmt 1               @ packages/EasyFlash-v4.1.0/src/ef_env.c:586:5
	cbz	r1, .LBB47_9
.Ltmp728:
@ %bb.4:
	@DEBUG_VALUE: read_sector_meta_data:addr <- $r5
	@DEBUG_VALUE: read_sector_meta_data:sector <- $r4
	@DEBUG_VALUE: read_sector_meta_data:traversal <- [DW_OP_LLVM_convert 1 7, DW_OP_LLVM_convert 8 7, DW_OP_stack_value] $r2
	@DEBUG_VALUE: read_sector_meta_data:result <- 0
	.loc	2 0 5 is_stmt 0                 @ packages/EasyFlash-v4.1.0/src/ef_env.c:0:5
	add	r7, sp, #64
	mov	r6, r2
.Ltmp729:
	@DEBUG_VALUE: read_sector_meta_data:traversal <- [DW_OP_LLVM_convert 1 7, DW_OP_LLVM_convert 8 7, DW_OP_stack_value] $r6
	@DEBUG_VALUE: read_sector_meta_data:traversal <- [DW_OP_LLVM_convert 1 7, DW_OP_LLVM_convert 8 7, DW_OP_stack_value] $r6
	.loc	2 589 5 is_stmt 1               @ packages/EasyFlash-v4.1.0/src/ef_env.c:589:5
	movs	r2, #16
	mov	r0, r5
	mov	r1, r7
	bl	ef_port_read
	movw	r1, #17989
	.loc	2 592 29                        @ packages/EasyFlash-v4.1.0/src/ef_env.c:592:29
	ldr	r0, [sp, #68]
	movt	r1, #12340
	.loc	2 591 18                        @ packages/EasyFlash-v4.1.0/src/ef_env.c:591:18
	str	r5, [r4, #4]
	.loc	2 594 9                         @ packages/EasyFlash-v4.1.0/src/ef_env.c:594:9
	cmp	r0, r1
	.loc	2 592 19                        @ packages/EasyFlash-v4.1.0/src/ef_env.c:592:19
	str	r0, [r4, #8]
	.loc	2 594 9                         @ packages/EasyFlash-v4.1.0/src/ef_env.c:594:9
	bne	.LBB47_11
.Ltmp730:
@ %bb.5:
	@DEBUG_VALUE: read_sector_meta_data:traversal <- [DW_OP_LLVM_convert 1 7, DW_OP_LLVM_convert 8 7, DW_OP_stack_value] $r6
	@DEBUG_VALUE: read_sector_meta_data:addr <- $r5
	@DEBUG_VALUE: read_sector_meta_data:sector <- $r4
	@DEBUG_VALUE: read_sector_meta_data:result <- 0
	.loc	2 0 9 is_stmt 0                 @ packages/EasyFlash-v4.1.0/src/ef_env.c:0:9
	movs	r0, #1
	.loc	2 599 22 is_stmt 1              @ packages/EasyFlash-v4.1.0/src/ef_env.c:599:22
	strb	r0, [r4]
	.loc	2 601 32                        @ packages/EasyFlash-v4.1.0/src/ef_env.c:601:32
	ldr	r0, [sp, #72]
	.loc	2 601 22 is_stmt 0              @ packages/EasyFlash-v4.1.0/src/ef_env.c:601:22
	str	r0, [r4, #12]
	.loc	2 602 52 is_stmt 1              @ packages/EasyFlash-v4.1.0/src/ef_env.c:602:52
	movs	r1, #4
	mov	r0, r7
	bl	get_status
	mov	r8, r0
	.loc	2 602 26 is_stmt 0              @ packages/EasyFlash-v4.1.0/src/ef_env.c:602:26
	strb	r0, [r4, #1]
	.loc	2 603 63 is_stmt 1              @ packages/EasyFlash-v4.1.0/src/ef_env.c:603:63
	adds	r0, r7, #1
	.loc	2 603 52 is_stmt 0              @ packages/EasyFlash-v4.1.0/src/ef_env.c:603:52
	movs	r1, #4
	bl	get_status
	.loc	2 605 9 is_stmt 1               @ packages/EasyFlash-v4.1.0/src/ef_env.c:605:9
	cmp	r6, #0
	mov.w	r6, #0
.Ltmp731:
	.loc	2 603 26                        @ packages/EasyFlash-v4.1.0/src/ef_env.c:603:26
	strb	r0, [r4, #2]
	.loc	2 605 9                         @ packages/EasyFlash-v4.1.0/src/ef_env.c:605:9
	beq	.LBB47_12
.Ltmp732:
@ %bb.6:
	@DEBUG_VALUE: read_sector_meta_data:addr <- $r5
	@DEBUG_VALUE: read_sector_meta_data:sector <- $r4
	@DEBUG_VALUE: read_sector_meta_data:result <- 0
	.loc	2 602 28                        @ packages/EasyFlash-v4.1.0/src/ef_env.c:602:28
	uxtb.w	r0, r8
.Ltmp733:
	.loc	2 607 27                        @ packages/EasyFlash-v4.1.0/src/ef_env.c:607:27
	mov	r1, r4
	.loc	2 607 42 is_stmt 0              @ packages/EasyFlash-v4.1.0/src/ef_env.c:607:42
	add.w	r2, r5, #16
	.loc	2 608 13 is_stmt 1              @ packages/EasyFlash-v4.1.0/src/ef_env.c:608:13
	cmp	r0, #2
	.loc	2 607 27                        @ packages/EasyFlash-v4.1.0/src/ef_env.c:607:27
	str	r2, [r1, #20]!
	.loc	2 606 24                        @ packages/EasyFlash-v4.1.0/src/ef_env.c:606:24
	str	r6, [r1, #-4]
	.loc	2 608 13                        @ packages/EasyFlash-v4.1.0/src/ef_env.c:608:13
	beq	.LBB47_13
.Ltmp734:
@ %bb.7:
	@DEBUG_VALUE: read_sector_meta_data:addr <- $r5
	@DEBUG_VALUE: read_sector_meta_data:sector <- $r4
	@DEBUG_VALUE: read_sector_meta_data:result <- 0
	cmp	r0, #1
	bne	.LBB47_12
.Ltmp735:
@ %bb.8:
	@DEBUG_VALUE: read_sector_meta_data:addr <- $r5
	@DEBUG_VALUE: read_sector_meta_data:sector <- $r4
	@DEBUG_VALUE: read_sector_meta_data:result <- 0
	.loc	2 0 13 is_stmt 0                @ packages/EasyFlash-v4.1.0/src/ef_env.c:0:13
	mov.w	r0, #4080
.Ltmp736:
	.loc	2 609 28 is_stmt 1              @ packages/EasyFlash-v4.1.0/src/ef_env.c:609:28
	str	r0, [r4, #16]
	movs	r6, #0
.Ltmp737:
	@DEBUG_VALUE: read_sector_meta_data:result <- $r6
	.loc	2 0 28 is_stmt 0                @ packages/EasyFlash-v4.1.0/src/ef_env.c:0:28
	b	.LBB47_12
.Ltmp738:
.LBB47_9:
	@DEBUG_VALUE: read_sector_meta_data:addr <- $r5
	@DEBUG_VALUE: read_sector_meta_data:sector <- $r4
	@DEBUG_VALUE: read_sector_meta_data:traversal <- [DW_OP_LLVM_convert 1 7, DW_OP_LLVM_convert 8 7, DW_OP_stack_value] $r2
	@DEBUG_VALUE: read_sector_meta_data:result <- 0
	.loc	2 586 5 is_stmt 1               @ packages/EasyFlash-v4.1.0/src/ef_env.c:586:5
	movw	r0, :lower16:.L.str.2
	movw	r2, :lower16:.L.str.3
.Ltmp739:
	movw	r7, :lower16:.L__FUNCTION__.read_sector_meta_data
	movt	r0, :upper16:.L.str.2
	movt	r2, :upper16:.L.str.3
	adr	r3, .LCPI47_1
	movw	r1, #586
	movt	r7, :upper16:.L__FUNCTION__.read_sector_meta_data
	str	r7, [sp]
	bl	ef_log_debug
.Ltmp740:
	.p2align	2
.LBB47_10:                              @ =>This Inner Loop Header: Depth=1
	@DEBUG_VALUE: read_sector_meta_data:addr <- $r5
	@DEBUG_VALUE: read_sector_meta_data:sector <- $r4
	@DEBUG_VALUE: read_sector_meta_data:result <- 0
	b	.LBB47_10
.Ltmp741:
.LBB47_11:
	@DEBUG_VALUE: read_sector_meta_data:traversal <- [DW_OP_LLVM_convert 1 7, DW_OP_LLVM_convert 8 7, DW_OP_stack_value] $r6
	@DEBUG_VALUE: read_sector_meta_data:addr <- $r5
	@DEBUG_VALUE: read_sector_meta_data:sector <- $r4
	@DEBUG_VALUE: read_sector_meta_data:result <- 0
	.loc	2 0 5 is_stmt 0                 @ packages/EasyFlash-v4.1.0/src/ef_env.c:0:5
	movs	r0, #0
.Ltmp742:
	.loc	2 595 26 is_stmt 1              @ packages/EasyFlash-v4.1.0/src/ef_env.c:595:26
	strb	r0, [r4]
	mov.w	r0, #-1
	.loc	2 596 26                        @ packages/EasyFlash-v4.1.0/src/ef_env.c:596:26
	str	r0, [r4, #12]
	movs	r6, #7
.Ltmp743:
.LBB47_12:
	@DEBUG_VALUE: read_sector_meta_data:sector <- $r4
	.loc	2 655 1                         @ packages/EasyFlash-v4.1.0/src/ef_env.c:655:1
	mov	r0, r6
	add	sp, #80
	pop.w	{r4, r5, r6, r7, r8, pc}
.Ltmp744:
.LBB47_13:
	@DEBUG_VALUE: read_sector_meta_data:addr <- $r5
	@DEBUG_VALUE: read_sector_meta_data:sector <- $r4
	@DEBUG_VALUE: read_sector_meta_data:result <- 0
	.loc	2 614 17                        @ packages/EasyFlash-v4.1.0/src/ef_env.c:614:17
	mov	r0, r5
	bl	get_sector_from_cache
	mov	r5, r0
.Ltmp745:
	.loc	2 614 17 is_stmt 0              @ packages/EasyFlash-v4.1.0/src/ef_env.c:614:17
	cbz	r0, .LBB47_15
.Ltmp746:
@ %bb.14:
	@DEBUG_VALUE: read_sector_meta_data:sector <- $r4
	@DEBUG_VALUE: read_sector_meta_data:result <- 0
	.loc	2 615 77 is_stmt 1              @ packages/EasyFlash-v4.1.0/src/ef_env.c:615:77
	ldr	r0, [r4, #4]
	movs	r6, #0
	.loc	2 615 57 is_stmt 0              @ packages/EasyFlash-v4.1.0/src/ef_env.c:615:57
	ldr	r1, [r4, #20]
	.loc	2 615 46                        @ packages/EasyFlash-v4.1.0/src/ef_env.c:615:46
	subs	r0, r0, r1
	add.w	r0, r0, #4096
	.loc	2 615 32                        @ packages/EasyFlash-v4.1.0/src/ef_env.c:615:32
	str	r0, [r4, #16]
	b	.LBB47_25
.Ltmp747:
.LBB47_15:
	@DEBUG_VALUE: read_sector_meta_data:sector <- $r4
	@DEBUG_VALUE: read_sector_meta_data:result <- 0
	.loc	2 0 32                          @ packages/EasyFlash-v4.1.0/src/ef_env.c:0:32
	mov.w	r0, #4080
	.loc	2 620 28 is_stmt 1              @ packages/EasyFlash-v4.1.0/src/ef_env.c:620:28
	str	r0, [r4, #16]
	mov.w	r0, #-1
	.loc	2 621 33                        @ packages/EasyFlash-v4.1.0/src/ef_env.c:621:33
	str	r0, [sp, #56]
	add	r1, sp, #8
	.loc	2 622 43                        @ packages/EasyFlash-v4.1.0/src/ef_env.c:622:43
	mov	r0, r4
	bl	get_next_env_addr
	.loc	2 622 13 is_stmt 0              @ packages/EasyFlash-v4.1.0/src/ef_env.c:622:13
	adds	r1, r0, #1
	.loc	2 622 41                        @ packages/EasyFlash-v4.1.0/src/ef_env.c:622:41
	str	r0, [sp, #56]
	.loc	2 622 13                        @ packages/EasyFlash-v4.1.0/src/ef_env.c:622:13
	beq	.LBB47_21
.Ltmp748:
@ %bb.16:
	@DEBUG_VALUE: read_sector_meta_data:sector <- $r4
	@DEBUG_VALUE: read_sector_meta_data:result <- 0
	.loc	2 0 13                          @ packages/EasyFlash-v4.1.0/src/ef_env.c:0:13
	add	r6, sp, #8
	b	.LBB47_18
.Ltmp749:
.LBB47_17:                              @   in Loop: Header=BB47_18 Depth=1
	@DEBUG_VALUE: read_sector_meta_data:sector <- $r4
	@DEBUG_VALUE: read_sector_meta_data:result <- 0
	.loc	2 632 47 is_stmt 1              @ packages/EasyFlash-v4.1.0/src/ef_env.c:632:47
	ldr	r0, [sp, #16]
	.loc	2 633 32                        @ packages/EasyFlash-v4.1.0/src/ef_env.c:633:32
	ldrd	r1, r2, [r4, #16]
	subs	r1, r1, r0
	str	r1, [r4, #16]
	.loc	2 632 35                        @ packages/EasyFlash-v4.1.0/src/ef_env.c:632:35
	add	r0, r2
	str	r0, [r4, #20]
.Ltmp750:
	.loc	2 622 43                        @ packages/EasyFlash-v4.1.0/src/ef_env.c:622:43
	mov	r0, r4
	mov	r1, r6
	bl	get_next_env_addr
	.loc	2 622 13 is_stmt 0              @ packages/EasyFlash-v4.1.0/src/ef_env.c:622:13
	adds	r1, r0, #1
	.loc	2 622 41                        @ packages/EasyFlash-v4.1.0/src/ef_env.c:622:41
	str	r0, [sp, #56]
	.loc	2 622 13                        @ packages/EasyFlash-v4.1.0/src/ef_env.c:622:13
	beq	.LBB47_21
.Ltmp751:
.LBB47_18:                              @ =>This Inner Loop Header: Depth=1
	@DEBUG_VALUE: read_sector_meta_data:sector <- $r4
	@DEBUG_VALUE: read_sector_meta_data:result <- 0
	.loc	2 623 17 is_stmt 1              @ packages/EasyFlash-v4.1.0/src/ef_env.c:623:17
	mov	r0, r6
	bl	read_env
.Ltmp752:
	.loc	2 624 31                        @ packages/EasyFlash-v4.1.0/src/ef_env.c:624:31
	ldrb.w	r0, [sp, #9]
.Ltmp753:
	.loc	2 624 21 is_stmt 0              @ packages/EasyFlash-v4.1.0/src/ef_env.c:624:21
	cmp	r0, #0
	bne	.LBB47_17
.Ltmp754:
@ %bb.19:                               @   in Loop: Header=BB47_18 Depth=1
	@DEBUG_VALUE: read_sector_meta_data:sector <- $r4
	@DEBUG_VALUE: read_sector_meta_data:result <- 0
	.loc	2 625 34 is_stmt 1              @ packages/EasyFlash-v4.1.0/src/ef_env.c:625:34
	ldrb.w	r0, [sp, #8]
	.loc	2 625 58 is_stmt 0              @ packages/EasyFlash-v4.1.0/src/ef_env.c:625:58
	orr	r0, r0, #4
	cmp	r0, #5
	beq	.LBB47_17
.Ltmp755:
@ %bb.20:
	@DEBUG_VALUE: read_sector_meta_data:sector <- $r4
	@DEBUG_VALUE: read_sector_meta_data:result <- 0
	.loc	2 626 25 is_stmt 1              @ packages/EasyFlash-v4.1.0/src/ef_env.c:626:25
	ldr	r1, [sp, #56]
	adr	r0, .LCPI47_0
	bl	ef_log_info
	movs	r0, #0
	.loc	2 627 40                        @ packages/EasyFlash-v4.1.0/src/ef_env.c:627:40
	str	r0, [r4, #16]
	movs	r6, #2
.Ltmp756:
	@DEBUG_VALUE: read_sector_meta_data:result <- 2
	.loc	2 0 40 is_stmt 0                @ packages/EasyFlash-v4.1.0/src/ef_env.c:0:40
	b	.LBB47_22
.Ltmp757:
.LBB47_21:
	@DEBUG_VALUE: read_sector_meta_data:sector <- $r4
	@DEBUG_VALUE: read_sector_meta_data:result <- 0
	movs	r6, #0
.Ltmp758:
.LBB47_22:
	@DEBUG_VALUE: read_sector_meta_data:sector <- $r4
	@DEBUG_VALUE: read_sector_meta_data:result <- $r6
	.loc	2 639 71 is_stmt 1              @ packages/EasyFlash-v4.1.0/src/ef_env.c:639:71
	ldr	r1, [r4, #4]
	.loc	2 639 52 is_stmt 0              @ packages/EasyFlash-v4.1.0/src/ef_env.c:639:52
	ldr	r0, [r4, #20]
	.loc	2 639 76                        @ packages/EasyFlash-v4.1.0/src/ef_env.c:639:76
	add.w	r1, r1, #4096
	.loc	2 639 27                        @ packages/EasyFlash-v4.1.0/src/ef_env.c:639:27
	bl	continue_ff_addr
.Ltmp759:
	.loc	2 641 29 is_stmt 1              @ packages/EasyFlash-v4.1.0/src/ef_env.c:641:29
	ldr	r1, [r4, #20]
.Ltmp760:
	@DEBUG_VALUE: ff_addr <- $r0
	.loc	2 641 21 is_stmt 0              @ packages/EasyFlash-v4.1.0/src/ef_env.c:641:21
	cmp	r1, r0
	beq	.LBB47_24
.Ltmp761:
@ %bb.23:
	@DEBUG_VALUE: read_sector_meta_data:result <- $r6
	@DEBUG_VALUE: read_sector_meta_data:sector <- $r4
	@DEBUG_VALUE: ff_addr <- $r0
	.loc	2 644 71 is_stmt 1              @ packages/EasyFlash-v4.1.0/src/ef_env.c:644:71
	ldr	r1, [r4, #4]
	.loc	2 644 50 is_stmt 0              @ packages/EasyFlash-v4.1.0/src/ef_env.c:644:50
	subs	r1, r1, r0
	add.w	r1, r1, #4096
	.loc	2 644 36                        @ packages/EasyFlash-v4.1.0/src/ef_env.c:644:36
	strd	r1, r0, [r4, #16]
.Ltmp762:
.LBB47_24:
	@DEBUG_VALUE: read_sector_meta_data:result <- $r6
	@DEBUG_VALUE: read_sector_meta_data:sector <- $r4
	.loc	2 649 41 is_stmt 1              @ packages/EasyFlash-v4.1.0/src/ef_env.c:649:41
	ldr	r0, [r4, #4]
	.loc	2 649 55 is_stmt 0              @ packages/EasyFlash-v4.1.0/src/ef_env.c:649:55
	ldr	r1, [r4, #20]
	.loc	2 649 13                        @ packages/EasyFlash-v4.1.0/src/ef_env.c:649:13
	bl	update_sector_cache
.Ltmp763:
.LBB47_25:
	@DEBUG_VALUE: read_sector_meta_data:sector <- $r4
	@DEBUG_VALUE: read_sector_meta_data:result <- $r6
	.loc	2 0 13                          @ packages/EasyFlash-v4.1.0/src/ef_env.c:0:13
	cmp	r5, #0
	it	ne
	movne	r6, #0
.Ltmp764:
	b	.LBB47_12
.Ltmp765:
	.p2align	2
@ %bb.26:
.LCPI47_0:
.L.str.26:
	.asciz	"Error: The ENV (@0x%08X) CRC32 check failed!\n\000\000"
.LCPI47_1:
.L.str.25:
	.asciz	"sector\000"
.Lfunc_end47:
	.size	read_sector_meta_data, .Lfunc_end47-read_sector_meta_data
	.cfi_endproc
	.cantunwind
	.fnend
                                        @ -- End function
	.section	.text.get_next_env_addr,"ax",%progbits
	.p2align	3                               @ -- Begin function get_next_env_addr
	.type	get_next_env_addr,%function
	.code	16                              @ @get_next_env_addr
	.thumb_func
get_next_env_addr:
.Lfunc_begin48:
	.loc	2 487 0 is_stmt 1               @ packages/EasyFlash-v4.1.0/src/ef_env.c:487:0
	.fnstart
	.cfi_startproc
@ %bb.0:
	@DEBUG_VALUE: get_next_env_addr:sector <- $r0
	@DEBUG_VALUE: get_next_env_addr:pre_env <- $r1
	.save	{r4, r5, r7, lr}
	push	{r4, r5, r7, lr}
	.cfi_def_cfa_offset 16
	.cfi_offset lr, -4
	.cfi_offset r7, -8
	.cfi_offset r5, -12
	.cfi_offset r4, -16
	mov	r5, r0
.Ltmp766:
	@DEBUG_VALUE: get_next_env_addr:addr <- -1
	@DEBUG_VALUE: get_next_env_addr:sector <- $r5
	.loc	2 490 24 prologue_end           @ packages/EasyFlash-v4.1.0/src/ef_env.c:490:24
	ldrb	r0, [r0, #1]
.Ltmp767:
	.loc	2 490 9 is_stmt 0               @ packages/EasyFlash-v4.1.0/src/ef_env.c:490:9
	cmp	r0, #1
	@DEBUG_VALUE: get_next_env_addr:pre_env <- $r1
	bne	.LBB48_2
.Ltmp768:
@ %bb.1:
	@DEBUG_VALUE: get_next_env_addr:sector <- $r5
	@DEBUG_VALUE: get_next_env_addr:pre_env <- $r1
	@DEBUG_VALUE: get_next_env_addr:addr <- -1
	.loc	2 0 9                           @ packages/EasyFlash-v4.1.0/src/ef_env.c:0:9
	mov.w	r0, #-1
	.loc	2 520 1 is_stmt 1               @ packages/EasyFlash-v4.1.0/src/ef_env.c:520:1
	pop	{r4, r5, r7, pc}
.Ltmp769:
.LBB48_2:
	@DEBUG_VALUE: get_next_env_addr:sector <- $r5
	@DEBUG_VALUE: get_next_env_addr:pre_env <- $r1
	@DEBUG_VALUE: get_next_env_addr:addr <- -1
	.loc	2 494 23                        @ packages/EasyFlash-v4.1.0/src/ef_env.c:494:23
	ldr	r0, [r1, #48]
	mov	r4, r1
.Ltmp770:
	@DEBUG_VALUE: get_next_env_addr:pre_env <- $r4
	@DEBUG_VALUE: get_next_env_addr:pre_env <- $r4
	.loc	2 494 9 is_stmt 0               @ packages/EasyFlash-v4.1.0/src/ef_env.c:494:9
	adds	r1, r0, #1
.Ltmp771:
	.loc	2 0 0                           @ packages/EasyFlash-v4.1.0/src/ef_env.c:0:0
	ldr	r1, [r5, #4]
.Ltmp772:
	.loc	2 494 9                         @ packages/EasyFlash-v4.1.0/src/ef_env.c:494:9
	beq	.LBB48_6
.Ltmp773:
@ %bb.3:
	@DEBUG_VALUE: get_next_env_addr:sector <- $r5
	@DEBUG_VALUE: get_next_env_addr:pre_env <- $r4
	@DEBUG_VALUE: get_next_env_addr:addr <- -1
	.loc	2 498 49 is_stmt 1              @ packages/EasyFlash-v4.1.0/src/ef_env.c:498:49
	add.w	r2, r1, #4096
.Ltmp774:
	.loc	2 498 13 is_stmt 0              @ packages/EasyFlash-v4.1.0/src/ef_env.c:498:13
	cmp	r0, r2
	bhi	.LBB48_9
.Ltmp775:
@ %bb.4:
	@DEBUG_VALUE: get_next_env_addr:sector <- $r5
	@DEBUG_VALUE: get_next_env_addr:pre_env <- $r4
	@DEBUG_VALUE: get_next_env_addr:addr <- -1
	.loc	2 499 26 is_stmt 1              @ packages/EasyFlash-v4.1.0/src/ef_env.c:499:26
	ldrb	r2, [r4, #1]
.Ltmp776:
	.loc	2 499 17 is_stmt 0              @ packages/EasyFlash-v4.1.0/src/ef_env.c:499:17
	cbz	r2, .LBB48_7
.Ltmp777:
@ %bb.5:
	@DEBUG_VALUE: get_next_env_addr:sector <- $r5
	@DEBUG_VALUE: get_next_env_addr:pre_env <- $r4
	@DEBUG_VALUE: get_next_env_addr:addr <- -1
	.loc	2 500 55 is_stmt 1              @ packages/EasyFlash-v4.1.0/src/ef_env.c:500:55
	ldr	r2, [r4, #8]
.Ltmp778:
	@DEBUG_VALUE: get_next_env_addr:addr <- undef
	.loc	2 0 55 is_stmt 0                @ packages/EasyFlash-v4.1.0/src/ef_env.c:0:55
	b	.LBB48_8
.Ltmp779:
.LBB48_6:
	@DEBUG_VALUE: get_next_env_addr:sector <- $r5
	@DEBUG_VALUE: get_next_env_addr:pre_env <- $r4
	@DEBUG_VALUE: get_next_env_addr:addr <- -1
	.loc	2 496 29 is_stmt 1              @ packages/EasyFlash-v4.1.0/src/ef_env.c:496:29
	add.w	r0, r1, #16
.Ltmp780:
	@DEBUG_VALUE: get_next_env_addr:addr <- $r0
	@DEBUG_VALUE: get_next_env_addr:addr <- $r0
	.loc	2 520 1                         @ packages/EasyFlash-v4.1.0/src/ef_env.c:520:1
	pop	{r4, r5, r7, pc}
.Ltmp781:
.LBB48_7:
	@DEBUG_VALUE: get_next_env_addr:sector <- $r5
	@DEBUG_VALUE: get_next_env_addr:pre_env <- $r4
	@DEBUG_VALUE: get_next_env_addr:addr <- -1
	.loc	2 0 1 is_stmt 0                 @ packages/EasyFlash-v4.1.0/src/ef_env.c:0:1
	movs	r2, #1
.Ltmp782:
.LBB48_8:
	@DEBUG_VALUE: get_next_env_addr:sector <- $r5
	@DEBUG_VALUE: get_next_env_addr:pre_env <- $r4
	add	r0, r2
.Ltmp783:
	@DEBUG_VALUE: get_next_env_addr:addr <- $r0
	.loc	2 507 72 is_stmt 1              @ packages/EasyFlash-v4.1.0/src/ef_env.c:507:72
	add.w	r1, r1, #4080
	.loc	2 507 20 is_stmt 0              @ packages/EasyFlash-v4.1.0/src/ef_env.c:507:20
	bl	find_next_env_addr
.Ltmp784:
	.loc	2 509 32 is_stmt 1              @ packages/EasyFlash-v4.1.0/src/ef_env.c:509:32
	ldr	r1, [r5, #4]
	.loc	2 509 37 is_stmt 0              @ packages/EasyFlash-v4.1.0/src/ef_env.c:509:37
	add.w	r1, r1, #4096
.Ltmp785:
	@DEBUG_VALUE: get_next_env_addr:addr <- $r0
	.loc	2 509 51                        @ packages/EasyFlash-v4.1.0/src/ef_env.c:509:51
	cmp	r0, r1
	bls	.LBB48_10
.Ltmp786:
.LBB48_9:
	@DEBUG_VALUE: get_next_env_addr:sector <- $r5
	@DEBUG_VALUE: get_next_env_addr:pre_env <- $r4
	.loc	2 0 51                          @ packages/EasyFlash-v4.1.0/src/ef_env.c:0:51
	mov.w	r0, #-1
	.loc	2 520 1 is_stmt 1               @ packages/EasyFlash-v4.1.0/src/ef_env.c:520:1
	pop	{r4, r5, r7, pc}
.Ltmp787:
.LBB48_10:
	@DEBUG_VALUE: get_next_env_addr:sector <- $r5
	@DEBUG_VALUE: get_next_env_addr:pre_env <- $r4
	@DEBUG_VALUE: get_next_env_addr:addr <- $r0
	.loc	2 509 63                        @ packages/EasyFlash-v4.1.0/src/ef_env.c:509:63
	ldr	r1, [r4, #8]
.Ltmp788:
	.loc	2 509 17 is_stmt 0              @ packages/EasyFlash-v4.1.0/src/ef_env.c:509:17
	cmp	r1, #0
	it	eq
	moveq.w	r0, #-1
.Ltmp789:
	.loc	2 520 1 is_stmt 1               @ packages/EasyFlash-v4.1.0/src/ef_env.c:520:1
	pop	{r4, r5, r7, pc}
.Ltmp790:
.Lfunc_end48:
	.size	get_next_env_addr, .Lfunc_end48-get_next_env_addr
	.cfi_endproc
	.cantunwind
	.fnend
                                        @ -- End function
	.section	.text.get_sector_from_cache,"ax",%progbits
	.p2align	3                               @ -- Begin function get_sector_from_cache
	.type	get_sector_from_cache,%function
	.code	16                              @ @get_sector_from_cache
	.thumb_func
get_sector_from_cache:
.Lfunc_begin49:
	.loc	2 337 0                         @ packages/EasyFlash-v4.1.0/src/ef_env.c:337:0
	.fnstart
	.cfi_startproc
@ %bb.0:
	@DEBUG_VALUE: get_sector_from_cache:sec_addr <- $r0
	@DEBUG_VALUE: get_sector_from_cache:empty_addr <- $r1
	.save	{r4, lr}
	push	{r4, lr}
	.cfi_def_cfa_offset 8
	.cfi_offset lr, -4
	.cfi_offset r4, -8
.Ltmp791:
	.loc	2 341 35 prologue_end           @ packages/EasyFlash-v4.1.0/src/ef_env.c:341:35
	movw	r12, :lower16:sector_cache_table
	movt	r12, :upper16:sector_cache_table
	ldr.w	r2, [r12]
.Ltmp792:
	@DEBUG_VALUE: get_sector_from_cache:i <- 0
	@DEBUG_VALUE: get_sector_from_cache:sec_addr <- $r0
	.loc	2 341 13 is_stmt 0              @ packages/EasyFlash-v4.1.0/src/ef_env.c:341:13
	cmp	r2, r0
	@DEBUG_VALUE: get_sector_from_cache:empty_addr <- $r1
	mov.w	r2, #0
	bne	.LBB49_2
.Ltmp793:
@ %bb.1:
	@DEBUG_VALUE: get_sector_from_cache:empty_addr <- $r1
	@DEBUG_VALUE: get_sector_from_cache:sec_addr <- $r0
	@DEBUG_VALUE: get_sector_from_cache:i <- 0
	.loc	2 0 13                          @ packages/EasyFlash-v4.1.0/src/ef_env.c:0:13
	movs	r0, #1
.Ltmp794:
	@DEBUG_VALUE: get_sector_from_cache:sec_addr <- [DW_OP_LLVM_entry_value 1] $r0
	b	.LBB49_5
.Ltmp795:
.LBB49_2:
	@DEBUG_VALUE: get_sector_from_cache:empty_addr <- $r1
	@DEBUG_VALUE: get_sector_from_cache:sec_addr <- $r0
	@DEBUG_VALUE: get_sector_from_cache:i <- 0
	mov	lr, r0
.Ltmp796:
	@DEBUG_VALUE: get_sector_from_cache:sec_addr <- $lr
	@DEBUG_VALUE: get_sector_from_cache:sec_addr <- $lr
	movs	r3, #0
.Ltmp797:
	.p2align	2
.LBB49_3:                               @ =>This Inner Loop Header: Depth=1
	@DEBUG_VALUE: get_sector_from_cache:empty_addr <- $r1
	@DEBUG_VALUE: get_sector_from_cache:sec_addr <- $lr
	@DEBUG_VALUE: get_sector_from_cache:i <- undef
	.loc	2 340 19 is_stmt 1              @ packages/EasyFlash-v4.1.0/src/ef_env.c:340:19
	cmp	r3, #3
	mov.w	r0, #0
	it	lo
	movlo	r0, #1
.Ltmp798:
	.loc	2 340 5 is_stmt 0               @ packages/EasyFlash-v4.1.0/src/ef_env.c:340:5
	beq	.LBB49_7
.Ltmp799:
@ %bb.4:                                @   in Loop: Header=BB49_3 Depth=1
	@DEBUG_VALUE: get_sector_from_cache:empty_addr <- $r1
	@DEBUG_VALUE: get_sector_from_cache:sec_addr <- $lr
	.loc	2 341 35 is_stmt 1              @ packages/EasyFlash-v4.1.0/src/ef_env.c:341:35
	add.w	r2, r12, r3, lsl #3
	ldr	r4, [r2, #8]
.Ltmp800:
	.loc	2 0 0 is_stmt 0                 @ packages/EasyFlash-v4.1.0/src/ef_env.c:0:0
	adds	r2, r3, #1
.Ltmp801:
	@DEBUG_VALUE: get_sector_from_cache:i <- $r2
	.loc	2 341 13                        @ packages/EasyFlash-v4.1.0/src/ef_env.c:341:13
	cmp	r4, lr
	mov	r3, r2
	bne	.LBB49_3
.Ltmp802:
.LBB49_5:
	@DEBUG_VALUE: get_sector_from_cache:empty_addr <- $r1
	.loc	2 342 17 is_stmt 1              @ packages/EasyFlash-v4.1.0/src/ef_env.c:342:17
	cmp	r1, #0
.Ltmp803:
	.loc	2 350 1                         @ packages/EasyFlash-v4.1.0/src/ef_env.c:350:1
	it	eq
	popeq	{r4, pc}
.Ltmp804:
.LBB49_6:
	@DEBUG_VALUE: get_sector_from_cache:empty_addr <- $r1
	.loc	2 343 53                        @ packages/EasyFlash-v4.1.0/src/ef_env.c:343:53
	add.w	r2, r12, r2, lsl #3
	ldr	r2, [r2, #4]
	.loc	2 343 29 is_stmt 0              @ packages/EasyFlash-v4.1.0/src/ef_env.c:343:29
	str	r2, [r1]
.Ltmp805:
.LBB49_7:
	@DEBUG_VALUE: get_sector_from_cache:empty_addr <- $r1
	.loc	2 350 1 is_stmt 1               @ packages/EasyFlash-v4.1.0/src/ef_env.c:350:1
	pop	{r4, pc}
.Ltmp806:
.Lfunc_end49:
	.size	get_sector_from_cache, .Lfunc_end49-get_sector_from_cache
	.cfi_endproc
	.cantunwind
	.fnend
                                        @ -- End function
	.section	.text.continue_ff_addr,"ax",%progbits
	.p2align	3                               @ -- Begin function continue_ff_addr
	.type	continue_ff_addr,%function
	.code	16                              @ @continue_ff_addr
	.thumb_func
continue_ff_addr:
.Lfunc_begin50:
	.loc	2 426 0                         @ packages/EasyFlash-v4.1.0/src/ef_env.c:426:0
	.fnstart
	.cfi_startproc
@ %bb.0:
	@DEBUG_VALUE: continue_ff_addr:start <- $r0
	@DEBUG_VALUE: continue_ff_addr:end <- $r1
	.save	{r4, r5, r6, r7, r8, r9, r10, lr}
	push.w	{r4, r5, r6, r7, r8, r9, r10, lr}
	.cfi_def_cfa_offset 32
	.cfi_offset lr, -4
	.cfi_offset r10, -8
	.cfi_offset r9, -12
	.cfi_offset r8, -16
	.cfi_offset r7, -20
	.cfi_offset r6, -24
	.cfi_offset r5, -28
	.cfi_offset r4, -32
	.pad	#32
	sub	sp, #32
	.cfi_def_cfa_offset 64
	mov	r8, r1
	mov	r5, r0
.Ltmp807:
	@DEBUG_VALUE: continue_ff_addr:addr <- $r5
	@DEBUG_VALUE: continue_ff_addr:last_data <- 0
	@DEBUG_VALUE: continue_ff_addr:end <- $r8
	@DEBUG_VALUE: continue_ff_addr:start <- $r5
	movs	r6, #0
.Ltmp808:
	.loc	2 430 5 prologue_end            @ packages/EasyFlash-v4.1.0/src/ef_env.c:430:5
	cmp	r0, r1
	bhs	.LBB50_8
.Ltmp809:
@ %bb.1:
	@DEBUG_VALUE: continue_ff_addr:end <- $r8
	@DEBUG_VALUE: continue_ff_addr:start <- $r5
	@DEBUG_VALUE: continue_ff_addr:addr <- $r5
	@DEBUG_VALUE: continue_ff_addr:last_data <- 0
	.loc	2 0 5 is_stmt 0                 @ packages/EasyFlash-v4.1.0/src/ef_env.c:0:5
	mov	r9, sp
	mov	r7, r5
	b	.LBB50_3
.Ltmp810:
	.p2align	2
.LBB50_2:                               @   in Loop: Header=BB50_3 Depth=1
	@DEBUG_VALUE: continue_ff_addr:end <- $r8
	@DEBUG_VALUE: continue_ff_addr:start <- $r7
	@DEBUG_VALUE: continue_ff_addr:addr <- $r5
	@DEBUG_VALUE: continue_ff_addr:read_size <- $r4
	@DEBUG_VALUE: continue_ff_addr:start <- $r10
	@DEBUG_VALUE: continue_ff_addr:last_data <- $r6
	@DEBUG_VALUE: continue_ff_addr:addr <- $r5
	.loc	2 430 5                         @ packages/EasyFlash-v4.1.0/src/ef_env.c:430:5
	cmp	r10, r8
	mov	r7, r10
.Ltmp811:
	@DEBUG_VALUE: continue_ff_addr:start <- $r7
	@DEBUG_VALUE: continue_ff_addr:start <- $r7
	bhs	.LBB50_8
.Ltmp812:
.LBB50_3:                               @ =>This Loop Header: Depth=1
                                        @     Child Loop BB50_6 Depth 2
	@DEBUG_VALUE: continue_ff_addr:end <- $r8
	@DEBUG_VALUE: continue_ff_addr:addr <- $r5
	@DEBUG_VALUE: continue_ff_addr:start <- $r7
	@DEBUG_VALUE: continue_ff_addr:last_data <- $r6
	@DEBUG_VALUE: continue_ff_addr:addr <- $r5
	.loc	2 431 19 is_stmt 1              @ packages/EasyFlash-v4.1.0/src/ef_env.c:431:19
	add.w	r10, r7, #32
.Ltmp813:
	.loc	2 431 13 is_stmt 0              @ packages/EasyFlash-v4.1.0/src/ef_env.c:431:13
	sub.w	r4, r8, r7
	cmp	r10, r8
	.loc	2 436 9 is_stmt 1               @ packages/EasyFlash-v4.1.0/src/ef_env.c:436:9
	mov	r0, r7
	.loc	2 431 13                        @ packages/EasyFlash-v4.1.0/src/ef_env.c:431:13
	it	lo
	movlo	r4, #32
.Ltmp814:
	@DEBUG_VALUE: continue_ff_addr:read_size <- $r4
	.loc	2 436 9                         @ packages/EasyFlash-v4.1.0/src/ef_env.c:436:9
	mov	r1, r9
	mov	r2, r4
	bl	ef_port_read
.Ltmp815:
	@DEBUG_VALUE: continue_ff_addr:i <- 0
	.loc	2 437 9                         @ packages/EasyFlash-v4.1.0/src/ef_env.c:437:9
	cmp	r4, #0
	beq	.LBB50_2
.Ltmp816:
@ %bb.4:                                @   in Loop: Header=BB50_3 Depth=1
	@DEBUG_VALUE: continue_ff_addr:end <- $r8
	@DEBUG_VALUE: continue_ff_addr:start <- $r7
	@DEBUG_VALUE: continue_ff_addr:last_data <- $r6
	@DEBUG_VALUE: continue_ff_addr:addr <- $r5
	@DEBUG_VALUE: continue_ff_addr:read_size <- $r4
	@DEBUG_VALUE: continue_ff_addr:i <- 0
	.loc	2 0 9 is_stmt 0                 @ packages/EasyFlash-v4.1.0/src/ef_env.c:0:9
	movs	r0, #0
	b	.LBB50_6
.Ltmp817:
	.p2align	2
.LBB50_5:                               @   in Loop: Header=BB50_6 Depth=2
	@DEBUG_VALUE: continue_ff_addr:end <- $r8
	@DEBUG_VALUE: continue_ff_addr:start <- $r7
	@DEBUG_VALUE: continue_ff_addr:last_data <- $r6
	@DEBUG_VALUE: continue_ff_addr:read_size <- $r4
	@DEBUG_VALUE: continue_ff_addr:i <- $r0
	@DEBUG_VALUE: continue_ff_addr:addr <- $r5
	.loc	2 441 25 is_stmt 1              @ packages/EasyFlash-v4.1.0/src/ef_env.c:441:25
	ldrb.w	r6, [r9, r0]
.Ltmp818:
	@DEBUG_VALUE: continue_ff_addr:last_data <- undef
	.loc	2 437 37                        @ packages/EasyFlash-v4.1.0/src/ef_env.c:437:37
	adds	r0, #1
.Ltmp819:
	@DEBUG_VALUE: continue_ff_addr:i <- $r0
	.loc	2 437 9 is_stmt 0               @ packages/EasyFlash-v4.1.0/src/ef_env.c:437:9
	cmp	r0, r4
	bhs	.LBB50_2
.Ltmp820:
.LBB50_6:                               @   Parent Loop BB50_3 Depth=1
                                        @ =>  This Inner Loop Header: Depth=2
	@DEBUG_VALUE: continue_ff_addr:end <- $r8
	@DEBUG_VALUE: continue_ff_addr:start <- $r7
	@DEBUG_VALUE: continue_ff_addr:addr <- $r5
	@DEBUG_VALUE: continue_ff_addr:read_size <- $r4
	@DEBUG_VALUE: continue_ff_addr:last_data <- $r6
	@DEBUG_VALUE: continue_ff_addr:addr <- $r5
	@DEBUG_VALUE: continue_ff_addr:i <- $r0
	.loc	2 438 35 is_stmt 1              @ packages/EasyFlash-v4.1.0/src/ef_env.c:438:35
	cmp	r6, #255
	beq	.LBB50_5
.Ltmp821:
@ %bb.7:                                @   in Loop: Header=BB50_6 Depth=2
	@DEBUG_VALUE: continue_ff_addr:end <- $r8
	@DEBUG_VALUE: continue_ff_addr:start <- $r7
	@DEBUG_VALUE: continue_ff_addr:last_data <- $r6
	@DEBUG_VALUE: continue_ff_addr:addr <- $r5
	@DEBUG_VALUE: continue_ff_addr:read_size <- $r4
	@DEBUG_VALUE: continue_ff_addr:i <- $r0
	.loc	2 438 38 is_stmt 0              @ packages/EasyFlash-v4.1.0/src/ef_env.c:438:38
	ldrb.w	r1, [r9, r0]
.Ltmp822:
	.loc	2 438 17                        @ packages/EasyFlash-v4.1.0/src/ef_env.c:438:17
	cmp	r1, #255
	it	eq
	addeq	r5, r7, r0
.Ltmp823:
	.loc	2 0 17                          @ packages/EasyFlash-v4.1.0/src/ef_env.c:0:17
	b	.LBB50_5
.Ltmp824:
.LBB50_8:
	@DEBUG_VALUE: continue_ff_addr:end <- $r8
	@DEBUG_VALUE: continue_ff_addr:addr <- $r5
	.loc	2 445 9 is_stmt 1               @ packages/EasyFlash-v4.1.0/src/ef_env.c:445:9
	cmp	r6, #255
	it	eq
	moveq	r8, r5
.Ltmp825:
	@DEBUG_VALUE: continue_ff_addr:addr <- $r8
	.loc	2 450 1                         @ packages/EasyFlash-v4.1.0/src/ef_env.c:450:1
	mov	r0, r8
	add	sp, #32
	pop.w	{r4, r5, r6, r7, r8, r9, r10, pc}
.Ltmp826:
.Lfunc_end50:
	.size	continue_ff_addr, .Lfunc_end50-continue_ff_addr
	.cfi_endproc
	.cantunwind
	.fnend
                                        @ -- End function
	.section	.text.find_next_env_addr,"ax",%progbits
	.p2align	3                               @ -- Begin function find_next_env_addr
	.type	find_next_env_addr,%function
	.code	16                              @ @find_next_env_addr
	.thumb_func
find_next_env_addr:
.Lfunc_begin51:
	.loc	2 456 0                         @ packages/EasyFlash-v4.1.0/src/ef_env.c:456:0
	.fnstart
	.cfi_startproc
@ %bb.0:
	@DEBUG_VALUE: find_next_env_addr:start <- $r0
	@DEBUG_VALUE: find_next_env_addr:end <- $r1
	.save	{r4, r5, r6, r7, r8, r9, r10, lr}
	push.w	{r4, r5, r6, r7, r8, r9, r10, lr}
	.cfi_def_cfa_offset 32
	.cfi_offset lr, -4
	.cfi_offset r10, -8
	.cfi_offset r9, -12
	.cfi_offset r8, -16
	.cfi_offset r7, -20
	.cfi_offset r6, -24
	.cfi_offset r5, -28
	.cfi_offset r4, -32
	.pad	#40
	sub	sp, #40
	.cfi_def_cfa_offset 72
	movw	r2, #4095
	mov	r4, r1
.Ltmp827:
	@DEBUG_VALUE: find_next_env_addr:end <- $r4
	mov	r5, r0
.Ltmp828:
	@DEBUG_VALUE: find_next_env_addr:start_bak <- $r5
	@DEBUG_VALUE: find_next_env_addr:end <- $r4
	@DEBUG_VALUE: find_next_env_addr:start <- $r5
	.loc	2 464 31 prologue_end           @ packages/EasyFlash-v4.1.0/src/ef_env.c:464:31
