	.text
	.syntax unified
	.eabi_attribute	67, "2.09"	@ Tag_conformance
	.cpu	cortex-m7
	.eabi_attribute	6, 13	@ Tag_CPU_arch
	.eabi_attribute	7, 77	@ Tag_CPU_arch_profile
	.eabi_attribute	8, 0	@ Tag_ARM_ISA_use
	.eabi_attribute	9, 2	@ Tag_THUMB_ISA_use
	.fpu	fpv5-d16
	.eabi_attribute	36, 1	@ Tag_FP_HP_extension
	.eabi_attribute	34, 1	@ Tag_CPU_unaligned_access
	.eabi_attribute	17, 1	@ Tag_ABI_PCS_GOT_use
	.eabi_attribute	20, 2	@ Tag_ABI_FP_denormal
	.eabi_attribute	21, 0	@ Tag_ABI_FP_exceptions
	.eabi_attribute	23, 1	@ Tag_ABI_FP_number_model
	.eabi_attribute	24, 1	@ Tag_ABI_align_needed
	.eabi_attribute	25, 1	@ Tag_ABI_align_preserved
	.eabi_attribute	28, 1	@ Tag_ABI_VFP_args
	.eabi_attribute	38, 1	@ Tag_ABI_FP_16bit_format
	.eabi_attribute	18, 2	@ Tag_ABI_PCS_wchar_t
	.eabi_attribute	26, 1	@ Tag_ABI_enum_size
	.eabi_attribute	14, 0	@ Tag_ABI_PCS_R9_use
	.file	"etharp.c"
	.file	1 "E:\\STM32\\Learning\\STM32H750_ART_PI_RGBLCD" "./rt-thread/components/net/lwip-2.0.2/src/include\\lwip/etharp.h"
	.file	2 "E:\\STM32\\Learning\\STM32H750_ART_PI_RGBLCD" "./rt-thread/components/net/lwip-2.0.2/src/include\\lwip/pbuf.h"
	.file	3 "D:\\Keil_v5\\ARM\\ARMCLANG\\Bin\\..\\include" "stdint.h"
	.file	4 "E:\\STM32\\Learning\\STM32H750_ART_PI_RGBLCD" "./rt-thread/components/net/lwip-2.0.2/src/include\\lwip/arch.h"
	.file	5 "E:\\STM32\\Learning\\STM32H750_ART_PI_RGBLCD" "rt-thread/components/net/lwip-2.0.2/src/core/ipv4/etharp.c"
	.file	6 "E:\\STM32\\Learning\\STM32H750_ART_PI_RGBLCD" "./rt-thread/components/net/lwip-2.0.2/src/include\\lwip/ip4_addr.h"
	.file	7 "E:\\STM32\\Learning\\STM32H750_ART_PI_RGBLCD" "./rt-thread/components/net/lwip-2.0.2/src/include\\lwip/netif.h"
	.file	8 "E:\\STM32\\Learning\\STM32H750_ART_PI_RGBLCD" "./rt-thread/components/net/lwip-2.0.2/src/include\\lwip/ip_addr.h"
	.file	9 "E:\\STM32\\Learning\\STM32H750_ART_PI_RGBLCD" "./rt-thread/components/net/lwip-2.0.2/src/include\\lwip/err.h"
	.file	10 "E:\\STM32\\Learning\\STM32H750_ART_PI_RGBLCD" "./rt-thread/components/net/lwip-2.0.2/src/include\\lwip/prot/ethernet.h"
	.file	11 "E:\\STM32\\Learning\\STM32H750_ART_PI_RGBLCD" "./rt-thread/components/net/lwip-2.0.2/src/include\\lwip/prot/etharp.h"
	.file	12 "E:\\STM32\\Learning\\STM32H750_ART_PI_RGBLCD" "./rt-thread/components/net/lwip-2.0.2/src/include\\lwip/memp.h"
	.section	.text.etharp_tmr,"ax",%progbits
	.hidden	etharp_tmr                      @ -- Begin function etharp_tmr
	.globl	etharp_tmr
	.p2align	3
	.type	etharp_tmr,%function
	.code	16                              @ @etharp_tmr
	.thumb_func
etharp_tmr:
.Lfunc_begin0:
	.loc	5 200 0                         @ rt-thread/components/net/lwip-2.0.2/src/core/ipv4/etharp.c:200:0
	.fnstart
	.cfi_sections .debug_frame
	.cfi_startproc
@ %bb.0:
	.save	{r7, lr}
	push	{r7, lr}
	.cfi_def_cfa_offset 8
	.cfi_offset lr, -4
	.cfi_offset r7, -8
	.pad	#8
	sub	sp, #8
	.cfi_def_cfa_offset 16
	movs	r0, #0
.Ltmp0:
	.loc	5 205 10 prologue_end           @ rt-thread/components/net/lwip-2.0.2/src/core/ipv4/etharp.c:205:10
	strb.w	r0, [sp, #7]
	.loc	5 205 8 is_stmt 0               @ rt-thread/components/net/lwip-2.0.2/src/core/ipv4/etharp.c:205:8
	b	.LBB0_1
.LBB0_1:                                @ =>This Inner Loop Header: Depth=1
.Ltmp1:
	.loc	5 205 15                        @ rt-thread/components/net/lwip-2.0.2/src/core/ipv4/etharp.c:205:15
	ldrb.w	r0, [sp, #7]
.Ltmp2:
	.loc	5 205 3                         @ rt-thread/components/net/lwip-2.0.2/src/core/ipv4/etharp.c:205:3
	cmp	r0, #9
	bgt.w	.LBB0_19
	b	.LBB0_2
.LBB0_2:                                @   in Loop: Header=BB0_1 Depth=1
.Ltmp3:
	.loc	5 206 28 is_stmt 1              @ rt-thread/components/net/lwip-2.0.2/src/core/ipv4/etharp.c:206:28
	ldrb.w	r0, [sp, #7]
	.loc	5 206 18 is_stmt 0              @ rt-thread/components/net/lwip-2.0.2/src/core/ipv4/etharp.c:206:18
	add.w	r1, r0, r0, lsl #1
	movw	r0, :lower16:arp_table
	movt	r0, :upper16:arp_table
	add.w	r0, r0, r1, lsl #3
	.loc	5 206 31                        @ rt-thread/components/net/lwip-2.0.2/src/core/ipv4/etharp.c:206:31
	ldrb	r0, [r0, #20]
	.loc	5 206 10                        @ rt-thread/components/net/lwip-2.0.2/src/core/ipv4/etharp.c:206:10
	strb.w	r0, [sp, #6]
.Ltmp4:
	.loc	5 207 9 is_stmt 1               @ rt-thread/components/net/lwip-2.0.2/src/core/ipv4/etharp.c:207:9
	ldrb.w	r0, [sp, #6]
.Ltmp5:
	.loc	5 207 9 is_stmt 0               @ rt-thread/components/net/lwip-2.0.2/src/core/ipv4/etharp.c:207:9
	cmp	r0, #0
	beq.w	.LBB0_17
	b	.LBB0_3
.LBB0_3:                                @   in Loop: Header=BB0_1 Depth=1
.Ltmp6:
	.loc	5 212 17 is_stmt 1              @ rt-thread/components/net/lwip-2.0.2/src/core/ipv4/etharp.c:212:17
	ldrb.w	r0, [sp, #7]
	.loc	5 212 7 is_stmt 0               @ rt-thread/components/net/lwip-2.0.2/src/core/ipv4/etharp.c:212:7
	add.w	r1, r0, r0, lsl #1
	movw	r0, :lower16:arp_table
	movt	r0, :upper16:arp_table
	add.w	r2, r0, r1, lsl #3
	.loc	5 212 25                        @ rt-thread/components/net/lwip-2.0.2/src/core/ipv4/etharp.c:212:25
	ldrh	r1, [r2, #18]
	adds	r1, #1
	strh	r1, [r2, #18]
.Ltmp7:
	.loc	5 213 22 is_stmt 1              @ rt-thread/components/net/lwip-2.0.2/src/core/ipv4/etharp.c:213:22
	ldrb.w	r1, [sp, #7]
	.loc	5 213 12 is_stmt 0              @ rt-thread/components/net/lwip-2.0.2/src/core/ipv4/etharp.c:213:12
	add.w	r1, r1, r1, lsl #1
	add.w	r0, r0, r1, lsl #3
	.loc	5 213 25                        @ rt-thread/components/net/lwip-2.0.2/src/core/ipv4/etharp.c:213:25
	ldrh	r0, [r0, #18]
	.loc	5 213 46                        @ rt-thread/components/net/lwip-2.0.2/src/core/ipv4/etharp.c:213:46
	cmp.w	r0, #300
	bge	.LBB0_6
	b	.LBB0_4
.LBB0_4:                                @   in Loop: Header=BB0_1 Depth=1
	.loc	5 214 23 is_stmt 1              @ rt-thread/components/net/lwip-2.0.2/src/core/ipv4/etharp.c:214:23
	ldrb.w	r0, [sp, #7]
	.loc	5 214 13 is_stmt 0              @ rt-thread/components/net/lwip-2.0.2/src/core/ipv4/etharp.c:214:13
	add.w	r1, r0, r0, lsl #1
	movw	r0, :lower16:arp_table
	movt	r0, :upper16:arp_table
	add.w	r0, r0, r1, lsl #3
	.loc	5 214 26                        @ rt-thread/components/net/lwip-2.0.2/src/core/ipv4/etharp.c:214:26
	ldrb	r0, [r0, #20]
	.loc	5 214 58                        @ rt-thread/components/net/lwip-2.0.2/src/core/ipv4/etharp.c:214:58
	cmp	r0, #1
	bne	.LBB0_7
	b	.LBB0_5
.LBB0_5:                                @   in Loop: Header=BB0_1 Depth=1
	.loc	5 215 23 is_stmt 1              @ rt-thread/components/net/lwip-2.0.2/src/core/ipv4/etharp.c:215:23
	ldrb.w	r0, [sp, #7]
	.loc	5 215 13 is_stmt 0              @ rt-thread/components/net/lwip-2.0.2/src/core/ipv4/etharp.c:215:13
	add.w	r1, r0, r0, lsl #1
	movw	r0, :lower16:arp_table
	movt	r0, :upper16:arp_table
	add.w	r0, r0, r1, lsl #3
	.loc	5 215 26                        @ rt-thread/components/net/lwip-2.0.2/src/core/ipv4/etharp.c:215:26
	ldrh	r0, [r0, #18]
.Ltmp8:
	.loc	5 213 11 is_stmt 1              @ rt-thread/components/net/lwip-2.0.2/src/core/ipv4/etharp.c:213:11
	cmp	r0, #5
	blt	.LBB0_7
	b	.LBB0_6
.LBB0_6:                                @   in Loop: Header=BB0_1 Depth=1
.Ltmp9:
	.loc	5 220 27                        @ rt-thread/components/net/lwip-2.0.2/src/core/ipv4/etharp.c:220:27
	ldrb.w	r0, [sp, #7]
	.loc	5 220 9 is_stmt 0               @ rt-thread/components/net/lwip-2.0.2/src/core/ipv4/etharp.c:220:9
	bl	etharp_free_entry
	.loc	5 221 7 is_stmt 1               @ rt-thread/components/net/lwip-2.0.2/src/core/ipv4/etharp.c:221:7
	b	.LBB0_16
.Ltmp10:
.LBB0_7:                                @   in Loop: Header=BB0_1 Depth=1
	.loc	5 221 28 is_stmt 0              @ rt-thread/components/net/lwip-2.0.2/src/core/ipv4/etharp.c:221:28
	ldrb.w	r0, [sp, #7]
	.loc	5 221 18                        @ rt-thread/components/net/lwip-2.0.2/src/core/ipv4/etharp.c:221:18
	add.w	r1, r0, r0, lsl #1
	movw	r0, :lower16:arp_table
	movt	r0, :upper16:arp_table
	add.w	r0, r0, r1, lsl #3
	.loc	5 221 31                        @ rt-thread/components/net/lwip-2.0.2/src/core/ipv4/etharp.c:221:31
	ldrb	r0, [r0, #20]
.Ltmp11:
	.loc	5 221 18                        @ rt-thread/components/net/lwip-2.0.2/src/core/ipv4/etharp.c:221:18
	cmp	r0, #3
	bne	.LBB0_9
	b	.LBB0_8
.LBB0_8:                                @   in Loop: Header=BB0_1 Depth=1
.Ltmp12:
	.loc	5 223 19 is_stmt 1              @ rt-thread/components/net/lwip-2.0.2/src/core/ipv4/etharp.c:223:19
	ldrb.w	r0, [sp, #7]
	.loc	5 223 9 is_stmt 0               @ rt-thread/components/net/lwip-2.0.2/src/core/ipv4/etharp.c:223:9
	add.w	r1, r0, r0, lsl #1
	movw	r0, :lower16:arp_table
	movt	r0, :upper16:arp_table
	add.w	r1, r0, r1, lsl #3
	movs	r0, #4
	.loc	5 223 28                        @ rt-thread/components/net/lwip-2.0.2/src/core/ipv4/etharp.c:223:28
	strb	r0, [r1, #20]
	.loc	5 224 7 is_stmt 1               @ rt-thread/components/net/lwip-2.0.2/src/core/ipv4/etharp.c:224:7
	b	.LBB0_15
.Ltmp13:
.LBB0_9:                                @   in Loop: Header=BB0_1 Depth=1
	.loc	5 224 28 is_stmt 0              @ rt-thread/components/net/lwip-2.0.2/src/core/ipv4/etharp.c:224:28
	ldrb.w	r0, [sp, #7]
	.loc	5 224 18                        @ rt-thread/components/net/lwip-2.0.2/src/core/ipv4/etharp.c:224:18
	add.w	r1, r0, r0, lsl #1
	movw	r0, :lower16:arp_table
	movt	r0, :upper16:arp_table
	add.w	r0, r0, r1, lsl #3
	.loc	5 224 31                        @ rt-thread/components/net/lwip-2.0.2/src/core/ipv4/etharp.c:224:31
	ldrb	r0, [r0, #20]
.Ltmp14:
	.loc	5 224 18                        @ rt-thread/components/net/lwip-2.0.2/src/core/ipv4/etharp.c:224:18
	cmp	r0, #4
	bne	.LBB0_11
	b	.LBB0_10
.LBB0_10:                               @   in Loop: Header=BB0_1 Depth=1
.Ltmp15:
	.loc	5 227 19 is_stmt 1              @ rt-thread/components/net/lwip-2.0.2/src/core/ipv4/etharp.c:227:19
	ldrb.w	r0, [sp, #7]
	.loc	5 227 9 is_stmt 0               @ rt-thread/components/net/lwip-2.0.2/src/core/ipv4/etharp.c:227:9
	add.w	r1, r0, r0, lsl #1
	movw	r0, :lower16:arp_table
	movt	r0, :upper16:arp_table
	add.w	r1, r0, r1, lsl #3
	movs	r0, #2
	.loc	5 227 28                        @ rt-thread/components/net/lwip-2.0.2/src/core/ipv4/etharp.c:227:28
	strb	r0, [r1, #20]
	.loc	5 228 7 is_stmt 1               @ rt-thread/components/net/lwip-2.0.2/src/core/ipv4/etharp.c:228:7
	b	.LBB0_14
.Ltmp16:
.LBB0_11:                               @   in Loop: Header=BB0_1 Depth=1
	.loc	5 228 28 is_stmt 0              @ rt-thread/components/net/lwip-2.0.2/src/core/ipv4/etharp.c:228:28
	ldrb.w	r0, [sp, #7]
	.loc	5 228 18                        @ rt-thread/components/net/lwip-2.0.2/src/core/ipv4/etharp.c:228:18
	add.w	r1, r0, r0, lsl #1
	movw	r0, :lower16:arp_table
	movt	r0, :upper16:arp_table
	add.w	r0, r0, r1, lsl #3
	.loc	5 228 31                        @ rt-thread/components/net/lwip-2.0.2/src/core/ipv4/etharp.c:228:31
	ldrb	r0, [r0, #20]
.Ltmp17:
	.loc	5 228 18                        @ rt-thread/components/net/lwip-2.0.2/src/core/ipv4/etharp.c:228:18
	cmp	r0, #1
	bne	.LBB0_13
	b	.LBB0_12
.LBB0_12:                               @   in Loop: Header=BB0_1 Depth=1
.Ltmp18:
	.loc	5 230 34 is_stmt 1              @ rt-thread/components/net/lwip-2.0.2/src/core/ipv4/etharp.c:230:34
	ldrb.w	r0, [sp, #7]
	.loc	5 230 24 is_stmt 0              @ rt-thread/components/net/lwip-2.0.2/src/core/ipv4/etharp.c:230:24
	add.w	r1, r0, r0, lsl #1
	movw	r0, :lower16:arp_table
	movt	r0, :upper16:arp_table
	add.w	r1, r0, r1, lsl #3
	.loc	5 230 37                        @ rt-thread/components/net/lwip-2.0.2/src/core/ipv4/etharp.c:230:37
	ldr	r0, [r1, #8]
	.loc	5 230 58                        @ rt-thread/components/net/lwip-2.0.2/src/core/ipv4/etharp.c:230:58
	adds	r1, #4
	.loc	5 230 9                         @ rt-thread/components/net/lwip-2.0.2/src/core/ipv4/etharp.c:230:9
	bl	etharp_request
	.loc	5 231 7 is_stmt 1               @ rt-thread/components/net/lwip-2.0.2/src/core/ipv4/etharp.c:231:7
	b	.LBB0_13
.Ltmp19:
.LBB0_13:                               @   in Loop: Header=BB0_1 Depth=1
	.loc	5 0 7 is_stmt 0                 @ rt-thread/components/net/lwip-2.0.2/src/core/ipv4/etharp.c:0:7
	b	.LBB0_14
.LBB0_14:                               @   in Loop: Header=BB0_1 Depth=1
	b	.LBB0_15
.LBB0_15:                               @   in Loop: Header=BB0_1 Depth=1
	b	.LBB0_16
.LBB0_16:                               @   in Loop: Header=BB0_1 Depth=1
	.loc	5 232 5 is_stmt 1               @ rt-thread/components/net/lwip-2.0.2/src/core/ipv4/etharp.c:232:5
	b	.LBB0_17
.Ltmp20:
.LBB0_17:                               @   in Loop: Header=BB0_1 Depth=1
	.loc	5 233 3                         @ rt-thread/components/net/lwip-2.0.2/src/core/ipv4/etharp.c:233:3
	b	.LBB0_18
.Ltmp21:
.LBB0_18:                               @   in Loop: Header=BB0_1 Depth=1
	.loc	5 205 35                        @ rt-thread/components/net/lwip-2.0.2/src/core/ipv4/etharp.c:205:35
	ldrb.w	r0, [sp, #7]
	adds	r0, #1
	strb.w	r0, [sp, #7]
	.loc	5 205 3 is_stmt 0               @ rt-thread/components/net/lwip-2.0.2/src/core/ipv4/etharp.c:205:3
	b	.LBB0_1
.Ltmp22:
.LBB0_19:
	.loc	5 234 1 is_stmt 1               @ rt-thread/components/net/lwip-2.0.2/src/core/ipv4/etharp.c:234:1
	add	sp, #8
	pop	{r7, pc}
.Ltmp23:
.Lfunc_end0:
	.size	etharp_tmr, .Lfunc_end0-etharp_tmr
	.cfi_endproc
	.cantunwind
	.fnend
                                        @ -- End function
	.section	.text.etharp_free_entry,"ax",%progbits
	.p2align	3                               @ -- Begin function etharp_free_entry
	.type	etharp_free_entry,%function
	.code	16                              @ @etharp_free_entry
	.thumb_func
etharp_free_entry:
.Lfunc_begin1:
	.loc	5 171 0                         @ rt-thread/components/net/lwip-2.0.2/src/core/ipv4/etharp.c:171:0
	.fnstart
	.cfi_startproc
@ %bb.0:
	.save	{r7, lr}
	push	{r7, lr}
	.cfi_def_cfa_offset 8
	.cfi_offset lr, -4
	.cfi_offset r7, -8
	.pad	#8
	sub	sp, #8
	.cfi_def_cfa_offset 16
	str	r0, [sp, #4]
.Ltmp24:
	.loc	5 175 17 prologue_end           @ rt-thread/components/net/lwip-2.0.2/src/core/ipv4/etharp.c:175:17
	ldr	r0, [sp, #4]
	.loc	5 175 7 is_stmt 0               @ rt-thread/components/net/lwip-2.0.2/src/core/ipv4/etharp.c:175:7
	add.w	r1, r0, r0, lsl #1
	movw	r0, :lower16:arp_table
	movt	r0, :upper16:arp_table
	.loc	5 175 20                        @ rt-thread/components/net/lwip-2.0.2/src/core/ipv4/etharp.c:175:20
	ldr.w	r0, [r0, r1, lsl #3]
.Ltmp25:
	.loc	5 175 7                         @ rt-thread/components/net/lwip-2.0.2/src/core/ipv4/etharp.c:175:7
	cbz	r0, .LBB1_2
	b	.LBB1_1
.LBB1_1:
.Ltmp26:
	.loc	5 178 29 is_stmt 1              @ rt-thread/components/net/lwip-2.0.2/src/core/ipv4/etharp.c:178:29
	ldr	r0, [sp, #4]
	.loc	5 178 19 is_stmt 0              @ rt-thread/components/net/lwip-2.0.2/src/core/ipv4/etharp.c:178:19
	add.w	r1, r0, r0, lsl #1
	movw	r0, :lower16:arp_table
	movt	r0, :upper16:arp_table
	.loc	5 178 32                        @ rt-thread/components/net/lwip-2.0.2/src/core/ipv4/etharp.c:178:32
	str	r0, [sp]                        @ 4-byte Spill
	ldr.w	r0, [r0, r1, lsl #3]
	.loc	5 178 5                         @ rt-thread/components/net/lwip-2.0.2/src/core/ipv4/etharp.c:178:5
	bl	free_etharp_q
	ldr	r1, [sp]                        @ 4-byte Reload
	.loc	5 179 15 is_stmt 1              @ rt-thread/components/net/lwip-2.0.2/src/core/ipv4/etharp.c:179:15
	ldr	r0, [sp, #4]
	.loc	5 179 5 is_stmt 0               @ rt-thread/components/net/lwip-2.0.2/src/core/ipv4/etharp.c:179:5
	add.w	r2, r0, r0, lsl #1
	movs	r0, #0
	.loc	5 179 20                        @ rt-thread/components/net/lwip-2.0.2/src/core/ipv4/etharp.c:179:20
	str.w	r0, [r1, r2, lsl #3]
	.loc	5 180 3 is_stmt 1               @ rt-thread/components/net/lwip-2.0.2/src/core/ipv4/etharp.c:180:3
	b	.LBB1_2
.Ltmp27:
.LBB1_2:
	.loc	5 182 13                        @ rt-thread/components/net/lwip-2.0.2/src/core/ipv4/etharp.c:182:13
	ldr	r0, [sp, #4]
	.loc	5 182 3 is_stmt 0               @ rt-thread/components/net/lwip-2.0.2/src/core/ipv4/etharp.c:182:3
	add.w	r1, r0, r0, lsl #1
	movw	r0, :lower16:arp_table
	movt	r0, :upper16:arp_table
	add.w	r1, r0, r1, lsl #3
	movs	r0, #0
	.loc	5 182 22                        @ rt-thread/components/net/lwip-2.0.2/src/core/ipv4/etharp.c:182:22
	strb	r0, [r1, #20]
	.loc	5 190 1 is_stmt 1               @ rt-thread/components/net/lwip-2.0.2/src/core/ipv4/etharp.c:190:1
	add	sp, #8
	pop	{r7, pc}
.Ltmp28:
.Lfunc_end1:
	.size	etharp_free_entry, .Lfunc_end1-etharp_free_entry
	.cfi_endproc
	.cantunwind
	.fnend
                                        @ -- End function
	.section	.text.etharp_request,"ax",%progbits
	.hidden	etharp_request                  @ -- Begin function etharp_request
	.globl	etharp_request
	.p2align	3
	.type	etharp_request,%function
	.code	16                              @ @etharp_request
	.thumb_func
etharp_request:
.Lfunc_begin2:
	.loc	5 1200 0                        @ rt-thread/components/net/lwip-2.0.2/src/core/ipv4/etharp.c:1200:0
	.fnstart
	.cfi_startproc
@ %bb.0:
	.save	{r7, lr}
	push	{r7, lr}
	.cfi_def_cfa_offset 8
	.cfi_offset lr, -4
	.cfi_offset r7, -8
	.pad	#8
	sub	sp, #8
	.cfi_def_cfa_offset 16
	str	r0, [sp, #4]
	str	r1, [sp]
.Ltmp29:
	.loc	5 1202 29 prologue_end          @ rt-thread/components/net/lwip-2.0.2/src/core/ipv4/etharp.c:1202:29
	ldr	r0, [sp, #4]
	.loc	5 1202 36 is_stmt 0             @ rt-thread/components/net/lwip-2.0.2/src/core/ipv4/etharp.c:1202:36
	ldr	r1, [sp]
	.loc	5 1202 10                       @ rt-thread/components/net/lwip-2.0.2/src/core/ipv4/etharp.c:1202:10
	movw	r2, :lower16:ethbroadcast
	movt	r2, :upper16:ethbroadcast
	bl	etharp_request_dst
	.loc	5 1202 3                        @ rt-thread/components/net/lwip-2.0.2/src/core/ipv4/etharp.c:1202:3
	add	sp, #8
	pop	{r7, pc}
.Ltmp30:
.Lfunc_end2:
	.size	etharp_request, .Lfunc_end2-etharp_request
	.cfi_endproc
	.cantunwind
	.fnend
                                        @ -- End function
	.section	.text.etharp_cleanup_netif,"ax",%progbits
	.hidden	etharp_cleanup_netif            @ -- Begin function etharp_cleanup_netif
	.globl	etharp_cleanup_netif
	.p2align	3
	.type	etharp_cleanup_netif,%function
	.code	16                              @ @etharp_cleanup_netif
	.thumb_func
etharp_cleanup_netif:
.Lfunc_begin3:
	.loc	5 560 0 is_stmt 1               @ rt-thread/components/net/lwip-2.0.2/src/core/ipv4/etharp.c:560:0
	.fnstart
	.cfi_startproc
@ %bb.0:
	.save	{r7, lr}
	push	{r7, lr}
	.cfi_def_cfa_offset 8
	.cfi_offset lr, -4
	.cfi_offset r7, -8
	.pad	#8
	sub	sp, #8
	.cfi_def_cfa_offset 16
	str	r0, [sp, #4]
	movs	r0, #0
.Ltmp31:
	.loc	5 563 10 prologue_end           @ rt-thread/components/net/lwip-2.0.2/src/core/ipv4/etharp.c:563:10
	strb.w	r0, [sp, #3]
	.loc	5 563 8 is_stmt 0               @ rt-thread/components/net/lwip-2.0.2/src/core/ipv4/etharp.c:563:8
	b	.LBB3_1
.LBB3_1:                                @ =>This Inner Loop Header: Depth=1
.Ltmp32:
	.loc	5 563 15                        @ rt-thread/components/net/lwip-2.0.2/src/core/ipv4/etharp.c:563:15
	ldrb.w	r0, [sp, #3]
.Ltmp33:
	.loc	5 563 3                         @ rt-thread/components/net/lwip-2.0.2/src/core/ipv4/etharp.c:563:3
	cmp	r0, #9
	bgt	.LBB3_7
	b	.LBB3_2
.LBB3_2:                                @   in Loop: Header=BB3_1 Depth=1
.Ltmp34:
	.loc	5 564 28 is_stmt 1              @ rt-thread/components/net/lwip-2.0.2/src/core/ipv4/etharp.c:564:28
	ldrb.w	r0, [sp, #3]
	.loc	5 564 18 is_stmt 0              @ rt-thread/components/net/lwip-2.0.2/src/core/ipv4/etharp.c:564:18
	add.w	r1, r0, r0, lsl #1
	movw	r0, :lower16:arp_table
	movt	r0, :upper16:arp_table
	add.w	r0, r0, r1, lsl #3
	.loc	5 564 31                        @ rt-thread/components/net/lwip-2.0.2/src/core/ipv4/etharp.c:564:31
	ldrb	r0, [r0, #20]
	.loc	5 564 10                        @ rt-thread/components/net/lwip-2.0.2/src/core/ipv4/etharp.c:564:10
	strb.w	r0, [sp, #2]
.Ltmp35:
	.loc	5 565 10 is_stmt 1              @ rt-thread/components/net/lwip-2.0.2/src/core/ipv4/etharp.c:565:10
	ldrb.w	r0, [sp, #2]
	.loc	5 565 39 is_stmt 0              @ rt-thread/components/net/lwip-2.0.2/src/core/ipv4/etharp.c:565:39
	cbz	r0, .LBB3_5
	b	.LBB3_3
.LBB3_3:                                @   in Loop: Header=BB3_1 Depth=1
	.loc	5 565 53                        @ rt-thread/components/net/lwip-2.0.2/src/core/ipv4/etharp.c:565:53
	ldrb.w	r0, [sp, #3]
	.loc	5 565 43                        @ rt-thread/components/net/lwip-2.0.2/src/core/ipv4/etharp.c:565:43
	add.w	r1, r0, r0, lsl #1
	movw	r0, :lower16:arp_table
	movt	r0, :upper16:arp_table
	add.w	r0, r0, r1, lsl #3
	.loc	5 565 56                        @ rt-thread/components/net/lwip-2.0.2/src/core/ipv4/etharp.c:565:56
	ldr	r0, [r0, #8]
	.loc	5 565 65                        @ rt-thread/components/net/lwip-2.0.2/src/core/ipv4/etharp.c:565:65
	ldr	r1, [sp, #4]
.Ltmp36:
	.loc	5 565 9                         @ rt-thread/components/net/lwip-2.0.2/src/core/ipv4/etharp.c:565:9
	cmp	r0, r1
	bne	.LBB3_5
	b	.LBB3_4
.LBB3_4:                                @   in Loop: Header=BB3_1 Depth=1
.Ltmp37:
	.loc	5 566 25 is_stmt 1              @ rt-thread/components/net/lwip-2.0.2/src/core/ipv4/etharp.c:566:25
	ldrb.w	r0, [sp, #3]
	.loc	5 566 7 is_stmt 0               @ rt-thread/components/net/lwip-2.0.2/src/core/ipv4/etharp.c:566:7
	bl	etharp_free_entry
	.loc	5 567 5 is_stmt 1               @ rt-thread/components/net/lwip-2.0.2/src/core/ipv4/etharp.c:567:5
	b	.LBB3_5
.Ltmp38:
.LBB3_5:                                @   in Loop: Header=BB3_1 Depth=1
	.loc	5 568 3                         @ rt-thread/components/net/lwip-2.0.2/src/core/ipv4/etharp.c:568:3
	b	.LBB3_6
.Ltmp39:
.LBB3_6:                                @   in Loop: Header=BB3_1 Depth=1
	.loc	5 563 35                        @ rt-thread/components/net/lwip-2.0.2/src/core/ipv4/etharp.c:563:35
	ldrb.w	r0, [sp, #3]
	adds	r0, #1
	strb.w	r0, [sp, #3]
	.loc	5 563 3 is_stmt 0               @ rt-thread/components/net/lwip-2.0.2/src/core/ipv4/etharp.c:563:3
	b	.LBB3_1
.Ltmp40:
.LBB3_7:
	.loc	5 569 1 is_stmt 1               @ rt-thread/components/net/lwip-2.0.2/src/core/ipv4/etharp.c:569:1
	add	sp, #8
	pop	{r7, pc}
.Ltmp41:
.Lfunc_end3:
	.size	etharp_cleanup_netif, .Lfunc_end3-etharp_cleanup_netif
	.cfi_endproc
	.cantunwind
	.fnend
                                        @ -- End function
	.section	.text.etharp_find_addr,"ax",%progbits
	.hidden	etharp_find_addr                @ -- Begin function etharp_find_addr
	.globl	etharp_find_addr
	.p2align	3
	.type	etharp_find_addr,%function
	.code	16                              @ @etharp_find_addr
	.thumb_func
etharp_find_addr:
.Lfunc_begin4:
	.loc	5 585 0                         @ rt-thread/components/net/lwip-2.0.2/src/core/ipv4/etharp.c:585:0
	.fnstart
	.cfi_startproc
@ %bb.0:
	.save	{r7, lr}
	push	{r7, lr}
	.cfi_def_cfa_offset 8
	.cfi_offset lr, -4
	.cfi_offset r7, -8
	.pad	#24
	sub	sp, #24
	.cfi_def_cfa_offset 32
	str	r0, [sp, #16]
	str	r1, [sp, #12]
	str	r2, [sp, #8]
	str	r3, [sp, #4]
.Ltmp42:
	.loc	5 588 3 prologue_end            @ rt-thread/components/net/lwip-2.0.2/src/core/ipv4/etharp.c:588:3
	b	.LBB4_1
.LBB4_1:
.Ltmp43:
	.loc	5 588 3 is_stmt 0               @ rt-thread/components/net/lwip-2.0.2/src/core/ipv4/etharp.c:588:3
	ldr	r0, [sp, #8]
	cbz	r0, .LBB4_3
	b	.LBB4_2
.LBB4_2:
	ldr	r0, [sp, #4]
.Ltmp44:
	.loc	5 588 3                         @ rt-thread/components/net/lwip-2.0.2/src/core/ipv4/etharp.c:588:3
	cbnz	r0, .LBB4_6
	b	.LBB4_3
.LBB4_3:
.Ltmp45:
	.loc	5 588 3                         @ rt-thread/components/net/lwip-2.0.2/src/core/ipv4/etharp.c:588:3
	b	.LBB4_4
.LBB4_4:
.Ltmp46:
	.loc	5 588 3                         @ rt-thread/components/net/lwip-2.0.2/src/core/ipv4/etharp.c:588:3
	movw	r0, :lower16:.L.str
	movt	r0, :upper16:.L.str
	bl	rt_kprintf
	movw	r0, :lower16:.L.str.1
	movt	r0, :upper16:.L.str.1
	movw	r1, #589
	bl	sys_arch_assert
	b	.LBB4_5
.Ltmp47:
.LBB4_5:
	.loc	5 588 3                         @ rt-thread/components/net/lwip-2.0.2/src/core/ipv4/etharp.c:588:3
	b	.LBB4_6
.Ltmp48:
.LBB4_6:
	.loc	5 588 3                         @ rt-thread/components/net/lwip-2.0.2/src/core/ipv4/etharp.c:588:3
	b	.LBB4_7
.Ltmp49:
.LBB4_7:
	.loc	5 591 3 is_stmt 1               @ rt-thread/components/net/lwip-2.0.2/src/core/ipv4/etharp.c:591:3
	ldr	r2, [sp, #16]
	.loc	5 593 25                        @ rt-thread/components/net/lwip-2.0.2/src/core/ipv4/etharp.c:593:25
	ldr	r0, [sp, #12]
	movs	r1, #2
	.loc	5 593 7 is_stmt 0               @ rt-thread/components/net/lwip-2.0.2/src/core/ipv4/etharp.c:593:7
	bl	etharp_find_entry
	.loc	5 593 5                         @ rt-thread/components/net/lwip-2.0.2/src/core/ipv4/etharp.c:593:5
	strb.w	r0, [sp, #3]
.Ltmp50:
	.loc	5 594 8 is_stmt 1               @ rt-thread/components/net/lwip-2.0.2/src/core/ipv4/etharp.c:594:8
	ldrsb.w	r0, [sp, #3]
	.loc	5 594 16 is_stmt 0              @ rt-thread/components/net/lwip-2.0.2/src/core/ipv4/etharp.c:594:16
	cmp	r0, #0
	bmi	.LBB4_10
	b	.LBB4_8
.LBB4_8:
	.loc	5 594 30                        @ rt-thread/components/net/lwip-2.0.2/src/core/ipv4/etharp.c:594:30
	ldrsb.w	r0, [sp, #3]
	.loc	5 594 20                        @ rt-thread/components/net/lwip-2.0.2/src/core/ipv4/etharp.c:594:20
	add.w	r1, r0, r0, lsl #1
	movw	r0, :lower16:arp_table
	movt	r0, :upper16:arp_table
	add.w	r0, r0, r1, lsl #3
	.loc	5 594 33                        @ rt-thread/components/net/lwip-2.0.2/src/core/ipv4/etharp.c:594:33
	ldrb	r0, [r0, #20]
.Ltmp51:
	.loc	5 594 7                         @ rt-thread/components/net/lwip-2.0.2/src/core/ipv4/etharp.c:594:7
	cmp	r0, #2
	blt	.LBB4_10
	b	.LBB4_9
.LBB4_9:
.Ltmp52:
	.loc	5 595 29 is_stmt 1              @ rt-thread/components/net/lwip-2.0.2/src/core/ipv4/etharp.c:595:29
	ldrsb.w	r0, [sp, #3]
	.loc	5 595 19 is_stmt 0              @ rt-thread/components/net/lwip-2.0.2/src/core/ipv4/etharp.c:595:19
	add.w	r1, r0, r0, lsl #1
	movw	r0, :lower16:arp_table
	movt	r0, :upper16:arp_table
	add.w	r1, r0, r1, lsl #3
	.loc	5 595 32                        @ rt-thread/components/net/lwip-2.0.2/src/core/ipv4/etharp.c:595:32
	adds	r1, #12
	.loc	5 595 8                         @ rt-thread/components/net/lwip-2.0.2/src/core/ipv4/etharp.c:595:8
	ldr	r2, [sp, #8]
	.loc	5 595 16                        @ rt-thread/components/net/lwip-2.0.2/src/core/ipv4/etharp.c:595:16
	str	r1, [r2]
	.loc	5 596 28 is_stmt 1              @ rt-thread/components/net/lwip-2.0.2/src/core/ipv4/etharp.c:596:28
	ldrsb.w	r1, [sp, #3]
	.loc	5 596 18 is_stmt 0              @ rt-thread/components/net/lwip-2.0.2/src/core/ipv4/etharp.c:596:18
	add.w	r1, r1, r1, lsl #1
	add.w	r0, r0, r1, lsl #3
	.loc	5 596 31                        @ rt-thread/components/net/lwip-2.0.2/src/core/ipv4/etharp.c:596:31
	adds	r0, #4
	.loc	5 596 8                         @ rt-thread/components/net/lwip-2.0.2/src/core/ipv4/etharp.c:596:8
	ldr	r1, [sp, #4]
	.loc	5 596 15                        @ rt-thread/components/net/lwip-2.0.2/src/core/ipv4/etharp.c:596:15
	str	r0, [r1]
	.loc	5 597 14 is_stmt 1              @ rt-thread/components/net/lwip-2.0.2/src/core/ipv4/etharp.c:597:14
	ldrb.w	r0, [sp, #3]
	.loc	5 597 7 is_stmt 0               @ rt-thread/components/net/lwip-2.0.2/src/core/ipv4/etharp.c:597:7
	strb.w	r0, [sp, #23]
	b	.LBB4_11
.Ltmp53:
.LBB4_10:
	.loc	5 0 7                           @ rt-thread/components/net/lwip-2.0.2/src/core/ipv4/etharp.c:0:7
	movs	r0, #255
	.loc	5 599 3 is_stmt 1               @ rt-thread/components/net/lwip-2.0.2/src/core/ipv4/etharp.c:599:3
	strb.w	r0, [sp, #23]
	b	.LBB4_11
.LBB4_11:
	.loc	5 600 1                         @ rt-thread/components/net/lwip-2.0.2/src/core/ipv4/etharp.c:600:1
	ldrsb.w	r0, [sp, #23]
	add	sp, #24
	pop	{r7, pc}
.Ltmp54:
.Lfunc_end4:
	.size	etharp_find_addr, .Lfunc_end4-etharp_find_addr
	.cfi_endproc
	.cantunwind
	.fnend
                                        @ -- End function
	.section	.text.etharp_find_entry,"ax",%progbits
	.p2align	3                               @ -- Begin function etharp_find_entry
	.type	etharp_find_entry,%function
	.code	16                              @ @etharp_find_entry
	.thumb_func
etharp_find_entry:
.Lfunc_begin5:
	.loc	5 259 0                         @ rt-thread/components/net/lwip-2.0.2/src/core/ipv4/etharp.c:259:0
	.fnstart
	.cfi_startproc
@ %bb.0:
	.save	{r7, lr}
	push	{r7, lr}
	.cfi_def_cfa_offset 8
	.cfi_offset lr, -4
	.cfi_offset r7, -8
	.pad	#32
	sub	sp, #32
	.cfi_def_cfa_offset 40
                                        @ kill: def $r3 killed $r1
	str	r0, [sp, #24]
	strb.w	r1, [sp, #23]
	str	r2, [sp, #16]
	movs	r1, #10
.Ltmp55:
	.loc	5 260 8 prologue_end            @ rt-thread/components/net/lwip-2.0.2/src/core/ipv4/etharp.c:260:8
	strb.w	r1, [sp, #15]
	.loc	5 260 38 is_stmt 0              @ rt-thread/components/net/lwip-2.0.2/src/core/ipv4/etharp.c:260:38
	strb.w	r1, [sp, #14]
	.loc	5 261 8 is_stmt 1               @ rt-thread/components/net/lwip-2.0.2/src/core/ipv4/etharp.c:261:8
	strb.w	r1, [sp, #13]
	movs	r0, #0
	.loc	5 262 8                         @ rt-thread/components/net/lwip-2.0.2/src/core/ipv4/etharp.c:262:8
	strb.w	r0, [sp, #12]
	.loc	5 264 8                         @ rt-thread/components/net/lwip-2.0.2/src/core/ipv4/etharp.c:264:8
	strb.w	r1, [sp, #11]
	.loc	5 266 9                         @ rt-thread/components/net/lwip-2.0.2/src/core/ipv4/etharp.c:266:9
	strh.w	r0, [sp, #8]
	.loc	5 266 24 is_stmt 0              @ rt-thread/components/net/lwip-2.0.2/src/core/ipv4/etharp.c:266:24
	strh.w	r0, [sp, #6]
	.loc	5 266 41                        @ rt-thread/components/net/lwip-2.0.2/src/core/ipv4/etharp.c:266:41
	strh.w	r0, [sp, #4]
.Ltmp56:
	.loc	5 285 10 is_stmt 1              @ rt-thread/components/net/lwip-2.0.2/src/core/ipv4/etharp.c:285:10
	strb.w	r0, [sp, #12]
	.loc	5 285 8 is_stmt 0               @ rt-thread/components/net/lwip-2.0.2/src/core/ipv4/etharp.c:285:8
	b	.LBB5_1
.LBB5_1:                                @ =>This Inner Loop Header: Depth=1
.Ltmp57:
	.loc	5 285 15                        @ rt-thread/components/net/lwip-2.0.2/src/core/ipv4/etharp.c:285:15
	ldrb.w	r0, [sp, #12]
.Ltmp58:
	.loc	5 285 3                         @ rt-thread/components/net/lwip-2.0.2/src/core/ipv4/etharp.c:285:3
	cmp	r0, #9
	bgt.w	.LBB5_34
	b	.LBB5_2
.LBB5_2:                                @   in Loop: Header=BB5_1 Depth=1
.Ltmp59:
	.loc	5 286 28 is_stmt 1              @ rt-thread/components/net/lwip-2.0.2/src/core/ipv4/etharp.c:286:28
	ldrb.w	r0, [sp, #12]
	.loc	5 286 18 is_stmt 0              @ rt-thread/components/net/lwip-2.0.2/src/core/ipv4/etharp.c:286:18
	add.w	r1, r0, r0, lsl #1
	movw	r0, :lower16:arp_table
	movt	r0, :upper16:arp_table
	add.w	r0, r0, r1, lsl #3
	.loc	5 286 31                        @ rt-thread/components/net/lwip-2.0.2/src/core/ipv4/etharp.c:286:31
	ldrb	r0, [r0, #20]
	.loc	5 286 10                        @ rt-thread/components/net/lwip-2.0.2/src/core/ipv4/etharp.c:286:10
	strb.w	r0, [sp, #3]
.Ltmp60:
	.loc	5 288 10 is_stmt 1              @ rt-thread/components/net/lwip-2.0.2/src/core/ipv4/etharp.c:288:10
	ldrsb.w	r0, [sp, #13]
	.loc	5 288 35 is_stmt 0              @ rt-thread/components/net/lwip-2.0.2/src/core/ipv4/etharp.c:288:35
	cmp	r0, #10
	bne	.LBB5_5
	b	.LBB5_3
.LBB5_3:                                @   in Loop: Header=BB5_1 Depth=1
	.loc	5 288 39                        @ rt-thread/components/net/lwip-2.0.2/src/core/ipv4/etharp.c:288:39
	ldrb.w	r0, [sp, #3]
.Ltmp61:
	.loc	5 288 9                         @ rt-thread/components/net/lwip-2.0.2/src/core/ipv4/etharp.c:288:9
	cbnz	r0, .LBB5_5
	b	.LBB5_4
.LBB5_4:                                @   in Loop: Header=BB5_1 Depth=1
.Ltmp62:
	.loc	5 291 15 is_stmt 1              @ rt-thread/components/net/lwip-2.0.2/src/core/ipv4/etharp.c:291:15
	ldrb.w	r0, [sp, #12]
	.loc	5 291 13 is_stmt 0              @ rt-thread/components/net/lwip-2.0.2/src/core/ipv4/etharp.c:291:13
	strb.w	r0, [sp, #13]
	.loc	5 292 5 is_stmt 1               @ rt-thread/components/net/lwip-2.0.2/src/core/ipv4/etharp.c:292:5
	b	.LBB5_32
.Ltmp63:
.LBB5_5:                                @   in Loop: Header=BB5_1 Depth=1
	.loc	5 292 16 is_stmt 0              @ rt-thread/components/net/lwip-2.0.2/src/core/ipv4/etharp.c:292:16
	ldrb.w	r0, [sp, #3]
.Ltmp64:
	.loc	5 292 16                        @ rt-thread/components/net/lwip-2.0.2/src/core/ipv4/etharp.c:292:16
	cmp	r0, #0
	beq.w	.LBB5_31
	b	.LBB5_6
.LBB5_6:                                @   in Loop: Header=BB5_1 Depth=1
.Ltmp65:
	.loc	5 293 7 is_stmt 1               @ rt-thread/components/net/lwip-2.0.2/src/core/ipv4/etharp.c:293:7
	b	.LBB5_7
.LBB5_7:                                @   in Loop: Header=BB5_1 Depth=1
.Ltmp66:
	.loc	5 293 7 is_stmt 0               @ rt-thread/components/net/lwip-2.0.2/src/core/ipv4/etharp.c:293:7
	ldrb.w	r0, [sp, #3]
	cmp	r0, #1
	beq	.LBB5_12
	b	.LBB5_8
.LBB5_8:                                @   in Loop: Header=BB5_1 Depth=1
	ldrb.w	r0, [sp, #3]
.Ltmp67:
	.loc	5 293 7                         @ rt-thread/components/net/lwip-2.0.2/src/core/ipv4/etharp.c:293:7
	cmp	r0, #1
	bgt	.LBB5_12
	b	.LBB5_9
.LBB5_9:                                @   in Loop: Header=BB5_1 Depth=1
.Ltmp68:
	.loc	5 293 7                         @ rt-thread/components/net/lwip-2.0.2/src/core/ipv4/etharp.c:293:7
	b	.LBB5_10
.LBB5_10:                               @   in Loop: Header=BB5_1 Depth=1
.Ltmp69:
	.loc	5 293 7                         @ rt-thread/components/net/lwip-2.0.2/src/core/ipv4/etharp.c:293:7
	movw	r0, :lower16:.L.str.10
	movt	r0, :upper16:.L.str.10
	bl	rt_kprintf
	movw	r0, :lower16:.L.str.1
	movt	r0, :upper16:.L.str.1
	mov.w	r1, #294
	bl	sys_arch_assert
	b	.LBB5_11
.Ltmp70:
.LBB5_11:                               @   in Loop: Header=BB5_1 Depth=1
	.loc	5 293 7                         @ rt-thread/components/net/lwip-2.0.2/src/core/ipv4/etharp.c:293:7
	b	.LBB5_12
.Ltmp71:
.LBB5_12:                               @   in Loop: Header=BB5_1 Depth=1
	.loc	5 293 7                         @ rt-thread/components/net/lwip-2.0.2/src/core/ipv4/etharp.c:293:7
	b	.LBB5_13
.Ltmp72:
.LBB5_13:                               @   in Loop: Header=BB5_1 Depth=1
	.loc	5 296 11 is_stmt 1              @ rt-thread/components/net/lwip-2.0.2/src/core/ipv4/etharp.c:296:11
	ldr	r0, [sp, #24]
	.loc	5 296 18 is_stmt 0              @ rt-thread/components/net/lwip-2.0.2/src/core/ipv4/etharp.c:296:18
	cbz	r0, .LBB5_16
	b	.LBB5_14
.LBB5_14:                               @   in Loop: Header=BB5_1 Depth=1
	.loc	5 296 21                        @ rt-thread/components/net/lwip-2.0.2/src/core/ipv4/etharp.c:296:21
	ldr	r0, [sp, #24]
	ldr	r0, [r0]
	ldrb.w	r1, [sp, #12]
	add.w	r2, r1, r1, lsl #1
	movw	r1, :lower16:arp_table
	movt	r1, :upper16:arp_table
	add.w	r1, r1, r2, lsl #3
	ldr	r1, [r1, #4]
.Ltmp73:
	.loc	5 296 11                        @ rt-thread/components/net/lwip-2.0.2/src/core/ipv4/etharp.c:296:11
	cmp	r0, r1
	bne	.LBB5_16
	b	.LBB5_15
.LBB5_15:
.Ltmp74:
	.loc	5 303 16 is_stmt 1              @ rt-thread/components/net/lwip-2.0.2/src/core/ipv4/etharp.c:303:16
	ldrb.w	r0, [sp, #12]
	.loc	5 303 9 is_stmt 0               @ rt-thread/components/net/lwip-2.0.2/src/core/ipv4/etharp.c:303:9
	strb.w	r0, [sp, #31]
	b	.LBB5_77
.Ltmp75:
.LBB5_16:                               @   in Loop: Header=BB5_1 Depth=1
	.loc	5 306 11 is_stmt 1              @ rt-thread/components/net/lwip-2.0.2/src/core/ipv4/etharp.c:306:11
	ldrb.w	r0, [sp, #3]
.Ltmp76:
	.loc	5 306 11 is_stmt 0              @ rt-thread/components/net/lwip-2.0.2/src/core/ipv4/etharp.c:306:11
	cmp	r0, #1
	bne	.LBB5_25
	b	.LBB5_17
.LBB5_17:                               @   in Loop: Header=BB5_1 Depth=1
.Ltmp77:
	.loc	5 308 23 is_stmt 1              @ rt-thread/components/net/lwip-2.0.2/src/core/ipv4/etharp.c:308:23
	ldrb.w	r0, [sp, #12]
	.loc	5 308 13 is_stmt 0              @ rt-thread/components/net/lwip-2.0.2/src/core/ipv4/etharp.c:308:13
	add.w	r1, r0, r0, lsl #1
	movw	r0, :lower16:arp_table
	movt	r0, :upper16:arp_table
	.loc	5 308 26                        @ rt-thread/components/net/lwip-2.0.2/src/core/ipv4/etharp.c:308:26
	ldr.w	r0, [r0, r1, lsl #3]
.Ltmp78:
	.loc	5 308 13                        @ rt-thread/components/net/lwip-2.0.2/src/core/ipv4/etharp.c:308:13
	cbz	r0, .LBB5_21
	b	.LBB5_18
.LBB5_18:                               @   in Loop: Header=BB5_1 Depth=1
.Ltmp79:
	.loc	5 309 25 is_stmt 1              @ rt-thread/components/net/lwip-2.0.2/src/core/ipv4/etharp.c:309:25
	ldrb.w	r0, [sp, #12]
	.loc	5 309 15 is_stmt 0              @ rt-thread/components/net/lwip-2.0.2/src/core/ipv4/etharp.c:309:15
	add.w	r1, r0, r0, lsl #1
	movw	r0, :lower16:arp_table
	movt	r0, :upper16:arp_table
	add.w	r0, r0, r1, lsl #3
	.loc	5 309 28                        @ rt-thread/components/net/lwip-2.0.2/src/core/ipv4/etharp.c:309:28
	ldrh	r0, [r0, #18]
	.loc	5 309 37                        @ rt-thread/components/net/lwip-2.0.2/src/core/ipv4/etharp.c:309:37
	ldrh.w	r1, [sp, #8]
.Ltmp80:
	.loc	5 309 15                        @ rt-thread/components/net/lwip-2.0.2/src/core/ipv4/etharp.c:309:15
	cmp	r0, r1
	blt	.LBB5_20
	b	.LBB5_19
.LBB5_19:                               @   in Loop: Header=BB5_1 Depth=1
.Ltmp81:
	.loc	5 310 25 is_stmt 1              @ rt-thread/components/net/lwip-2.0.2/src/core/ipv4/etharp.c:310:25
	ldrb.w	r0, [sp, #12]
	.loc	5 310 23 is_stmt 0              @ rt-thread/components/net/lwip-2.0.2/src/core/ipv4/etharp.c:310:23
	strb.w	r0, [sp, #11]
	.loc	5 311 35 is_stmt 1              @ rt-thread/components/net/lwip-2.0.2/src/core/ipv4/etharp.c:311:35
	ldrb.w	r0, [sp, #12]
	.loc	5 311 25 is_stmt 0              @ rt-thread/components/net/lwip-2.0.2/src/core/ipv4/etharp.c:311:25
	add.w	r1, r0, r0, lsl #1
	movw	r0, :lower16:arp_table
	movt	r0, :upper16:arp_table
	add.w	r0, r0, r1, lsl #3
	.loc	5 311 38                        @ rt-thread/components/net/lwip-2.0.2/src/core/ipv4/etharp.c:311:38
	ldrh	r0, [r0, #18]
	.loc	5 311 23                        @ rt-thread/components/net/lwip-2.0.2/src/core/ipv4/etharp.c:311:23
	strh.w	r0, [sp, #8]
	.loc	5 312 11 is_stmt 1              @ rt-thread/components/net/lwip-2.0.2/src/core/ipv4/etharp.c:312:11
	b	.LBB5_20
.Ltmp82:
.LBB5_20:                               @   in Loop: Header=BB5_1 Depth=1
	.loc	5 313 9                         @ rt-thread/components/net/lwip-2.0.2/src/core/ipv4/etharp.c:313:9
	b	.LBB5_24
.Ltmp83:
.LBB5_21:                               @   in Loop: Header=BB5_1 Depth=1
	.loc	5 316 25                        @ rt-thread/components/net/lwip-2.0.2/src/core/ipv4/etharp.c:316:25
	ldrb.w	r0, [sp, #12]
	.loc	5 316 15 is_stmt 0              @ rt-thread/components/net/lwip-2.0.2/src/core/ipv4/etharp.c:316:15
	add.w	r1, r0, r0, lsl #1
	movw	r0, :lower16:arp_table
	movt	r0, :upper16:arp_table
	add.w	r0, r0, r1, lsl #3
	.loc	5 316 28                        @ rt-thread/components/net/lwip-2.0.2/src/core/ipv4/etharp.c:316:28
	ldrh	r0, [r0, #18]
	.loc	5 316 37                        @ rt-thread/components/net/lwip-2.0.2/src/core/ipv4/etharp.c:316:37
	ldrh.w	r1, [sp, #6]
.Ltmp84:
	.loc	5 316 15                        @ rt-thread/components/net/lwip-2.0.2/src/core/ipv4/etharp.c:316:15
	cmp	r0, r1
	blt	.LBB5_23
	b	.LBB5_22
.LBB5_22:                               @   in Loop: Header=BB5_1 Depth=1
.Ltmp85:
	.loc	5 317 27 is_stmt 1              @ rt-thread/components/net/lwip-2.0.2/src/core/ipv4/etharp.c:317:27
	ldrb.w	r0, [sp, #12]
	.loc	5 317 25 is_stmt 0              @ rt-thread/components/net/lwip-2.0.2/src/core/ipv4/etharp.c:317:25
	strb.w	r0, [sp, #15]
	.loc	5 318 37 is_stmt 1              @ rt-thread/components/net/lwip-2.0.2/src/core/ipv4/etharp.c:318:37
	ldrb.w	r0, [sp, #12]
	.loc	5 318 27 is_stmt 0              @ rt-thread/components/net/lwip-2.0.2/src/core/ipv4/etharp.c:318:27
	add.w	r1, r0, r0, lsl #1
	movw	r0, :lower16:arp_table
	movt	r0, :upper16:arp_table
	add.w	r0, r0, r1, lsl #3
	.loc	5 318 40                        @ rt-thread/components/net/lwip-2.0.2/src/core/ipv4/etharp.c:318:40
	ldrh	r0, [r0, #18]
	.loc	5 318 25                        @ rt-thread/components/net/lwip-2.0.2/src/core/ipv4/etharp.c:318:25
	strh.w	r0, [sp, #6]
	.loc	5 319 11 is_stmt 1              @ rt-thread/components/net/lwip-2.0.2/src/core/ipv4/etharp.c:319:11
	b	.LBB5_23
.Ltmp86:
.LBB5_23:                               @   in Loop: Header=BB5_1 Depth=1
	.loc	5 0 11 is_stmt 0                @ rt-thread/components/net/lwip-2.0.2/src/core/ipv4/etharp.c:0:11
	b	.LBB5_24
.LBB5_24:                               @   in Loop: Header=BB5_1 Depth=1
	.loc	5 322 7 is_stmt 1               @ rt-thread/components/net/lwip-2.0.2/src/core/ipv4/etharp.c:322:7
	b	.LBB5_30
.Ltmp87:
.LBB5_25:                               @   in Loop: Header=BB5_1 Depth=1
	.loc	5 322 18 is_stmt 0              @ rt-thread/components/net/lwip-2.0.2/src/core/ipv4/etharp.c:322:18
	ldrb.w	r0, [sp, #3]
.Ltmp88:
	.loc	5 322 18                        @ rt-thread/components/net/lwip-2.0.2/src/core/ipv4/etharp.c:322:18
	cmp	r0, #2
	blt	.LBB5_29
	b	.LBB5_26
.LBB5_26:                               @   in Loop: Header=BB5_1 Depth=1
.Ltmp89:
	.loc	5 329 25 is_stmt 1              @ rt-thread/components/net/lwip-2.0.2/src/core/ipv4/etharp.c:329:25
	ldrb.w	r0, [sp, #12]
	.loc	5 329 15 is_stmt 0              @ rt-thread/components/net/lwip-2.0.2/src/core/ipv4/etharp.c:329:15
	add.w	r1, r0, r0, lsl #1
	movw	r0, :lower16:arp_table
	movt	r0, :upper16:arp_table
	add.w	r0, r0, r1, lsl #3
	.loc	5 329 28                        @ rt-thread/components/net/lwip-2.0.2/src/core/ipv4/etharp.c:329:28
	ldrh	r0, [r0, #18]
	.loc	5 329 37                        @ rt-thread/components/net/lwip-2.0.2/src/core/ipv4/etharp.c:329:37
	ldrh.w	r1, [sp, #4]
.Ltmp90:
	.loc	5 329 15                        @ rt-thread/components/net/lwip-2.0.2/src/core/ipv4/etharp.c:329:15
	cmp	r0, r1
	blt	.LBB5_28
	b	.LBB5_27
.LBB5_27:                               @   in Loop: Header=BB5_1 Depth=1
.Ltmp91:
	.loc	5 330 26 is_stmt 1              @ rt-thread/components/net/lwip-2.0.2/src/core/ipv4/etharp.c:330:26
	ldrb.w	r0, [sp, #12]
	.loc	5 330 24 is_stmt 0              @ rt-thread/components/net/lwip-2.0.2/src/core/ipv4/etharp.c:330:24
	strb.w	r0, [sp, #14]
	.loc	5 331 36 is_stmt 1              @ rt-thread/components/net/lwip-2.0.2/src/core/ipv4/etharp.c:331:36
	ldrb.w	r0, [sp, #12]
	.loc	5 331 26 is_stmt 0              @ rt-thread/components/net/lwip-2.0.2/src/core/ipv4/etharp.c:331:26
	add.w	r1, r0, r0, lsl #1
	movw	r0, :lower16:arp_table
	movt	r0, :upper16:arp_table
	add.w	r0, r0, r1, lsl #3
	.loc	5 331 39                        @ rt-thread/components/net/lwip-2.0.2/src/core/ipv4/etharp.c:331:39
	ldrh	r0, [r0, #18]
	.loc	5 331 24                        @ rt-thread/components/net/lwip-2.0.2/src/core/ipv4/etharp.c:331:24
	strh.w	r0, [sp, #4]
	.loc	5 332 11 is_stmt 1              @ rt-thread/components/net/lwip-2.0.2/src/core/ipv4/etharp.c:332:11
	b	.LBB5_28
.Ltmp92:
.LBB5_28:                               @   in Loop: Header=BB5_1 Depth=1
	.loc	5 334 7                         @ rt-thread/components/net/lwip-2.0.2/src/core/ipv4/etharp.c:334:7
	b	.LBB5_29
.Ltmp93:
.LBB5_29:                               @   in Loop: Header=BB5_1 Depth=1
	.loc	5 0 7 is_stmt 0                 @ rt-thread/components/net/lwip-2.0.2/src/core/ipv4/etharp.c:0:7
	b	.LBB5_30
.LBB5_30:                               @   in Loop: Header=BB5_1 Depth=1
	.loc	5 335 5 is_stmt 1               @ rt-thread/components/net/lwip-2.0.2/src/core/ipv4/etharp.c:335:5
	b	.LBB5_31
.Ltmp94:
.LBB5_31:                               @   in Loop: Header=BB5_1 Depth=1
	.loc	5 0 5 is_stmt 0                 @ rt-thread/components/net/lwip-2.0.2/src/core/ipv4/etharp.c:0:5
	b	.LBB5_32
.LBB5_32:                               @   in Loop: Header=BB5_1 Depth=1
	.loc	5 336 3 is_stmt 1               @ rt-thread/components/net/lwip-2.0.2/src/core/ipv4/etharp.c:336:3
	b	.LBB5_33
.Ltmp95:
.LBB5_33:                               @   in Loop: Header=BB5_1 Depth=1
	.loc	5 285 35                        @ rt-thread/components/net/lwip-2.0.2/src/core/ipv4/etharp.c:285:35
	ldrb.w	r0, [sp, #12]
	adds	r0, #1
	strb.w	r0, [sp, #12]
	.loc	5 285 3 is_stmt 0               @ rt-thread/components/net/lwip-2.0.2/src/core/ipv4/etharp.c:285:3
	b	.LBB5_1
.Ltmp96:
.LBB5_34:
	.loc	5 340 9 is_stmt 1               @ rt-thread/components/net/lwip-2.0.2/src/core/ipv4/etharp.c:340:9
	ldrb.w	r0, [sp, #23]
	.loc	5 340 46 is_stmt 0              @ rt-thread/components/net/lwip-2.0.2/src/core/ipv4/etharp.c:340:46
	lsls	r0, r0, #30
	cmp	r0, #0
	bmi	.LBB5_37
	b	.LBB5_35
.LBB5_35:
	.loc	5 342 9 is_stmt 1               @ rt-thread/components/net/lwip-2.0.2/src/core/ipv4/etharp.c:342:9
	ldrsb.w	r0, [sp, #13]
	.loc	5 342 34 is_stmt 0              @ rt-thread/components/net/lwip-2.0.2/src/core/ipv4/etharp.c:342:34
	cmp	r0, #10
	bne	.LBB5_38
	b	.LBB5_36
.LBB5_36:
	.loc	5 342 39                        @ rt-thread/components/net/lwip-2.0.2/src/core/ipv4/etharp.c:342:39
	ldrb.w	r0, [sp, #23]
.Ltmp97:
	.loc	5 340 7 is_stmt 1               @ rt-thread/components/net/lwip-2.0.2/src/core/ipv4/etharp.c:340:7
	lsls	r0, r0, #31
	cbnz	r0, .LBB5_38
	b	.LBB5_37
.LBB5_37:
	.loc	5 0 7 is_stmt 0                 @ rt-thread/components/net/lwip-2.0.2/src/core/ipv4/etharp.c:0:7
	movs	r0, #255
.Ltmp98:
	.loc	5 344 5 is_stmt 1               @ rt-thread/components/net/lwip-2.0.2/src/core/ipv4/etharp.c:344:5
	strb.w	r0, [sp, #31]
	b	.LBB5_77
.Ltmp99:
.LBB5_38:
	.loc	5 357 7                         @ rt-thread/components/net/lwip-2.0.2/src/core/ipv4/etharp.c:357:7
	ldrsb.w	r0, [sp, #13]
.Ltmp100:
	.loc	5 357 7 is_stmt 0               @ rt-thread/components/net/lwip-2.0.2/src/core/ipv4/etharp.c:357:7
	cmp	r0, #9
	bgt	.LBB5_40
	b	.LBB5_39
.LBB5_39:
.Ltmp101:
	.loc	5 358 9 is_stmt 1               @ rt-thread/components/net/lwip-2.0.2/src/core/ipv4/etharp.c:358:9
	ldrb.w	r0, [sp, #13]
	.loc	5 358 7 is_stmt 0               @ rt-thread/components/net/lwip-2.0.2/src/core/ipv4/etharp.c:358:7
	strb.w	r0, [sp, #12]
	.loc	5 360 3 is_stmt 1               @ rt-thread/components/net/lwip-2.0.2/src/core/ipv4/etharp.c:360:3
	b	.LBB5_62
.Ltmp102:
.LBB5_40:
	.loc	5 362 9                         @ rt-thread/components/net/lwip-2.0.2/src/core/ipv4/etharp.c:362:9
	ldrsb.w	r0, [sp, #14]
.Ltmp103:
	.loc	5 362 9 is_stmt 0               @ rt-thread/components/net/lwip-2.0.2/src/core/ipv4/etharp.c:362:9
	cmp	r0, #9
	bgt	.LBB5_48
	b	.LBB5_41
.LBB5_41:
.Ltmp104:
	.loc	5 364 11 is_stmt 1              @ rt-thread/components/net/lwip-2.0.2/src/core/ipv4/etharp.c:364:11
	ldrb.w	r0, [sp, #14]
	.loc	5 364 9 is_stmt 0               @ rt-thread/components/net/lwip-2.0.2/src/core/ipv4/etharp.c:364:9
	strb.w	r0, [sp, #12]
	.loc	5 367 7 is_stmt 1               @ rt-thread/components/net/lwip-2.0.2/src/core/ipv4/etharp.c:367:7
	b	.LBB5_42
.LBB5_42:
.Ltmp105:
	.loc	5 367 7 is_stmt 0               @ rt-thread/components/net/lwip-2.0.2/src/core/ipv4/etharp.c:367:7
	ldrb.w	r0, [sp, #12]
	add.w	r1, r0, r0, lsl #1
	movw	r0, :lower16:arp_table
	movt	r0, :upper16:arp_table
	ldr.w	r0, [r0, r1, lsl #3]
.Ltmp106:
	.loc	5 367 7                         @ rt-thread/components/net/lwip-2.0.2/src/core/ipv4/etharp.c:367:7
	cbz	r0, .LBB5_46
	b	.LBB5_43
.LBB5_43:
.Ltmp107:
	.loc	5 367 7                         @ rt-thread/components/net/lwip-2.0.2/src/core/ipv4/etharp.c:367:7
	b	.LBB5_44
.LBB5_44:
.Ltmp108:
	.loc	5 367 7                         @ rt-thread/components/net/lwip-2.0.2/src/core/ipv4/etharp.c:367:7
	movw	r0, :lower16:.L.str.11
	movt	r0, :upper16:.L.str.11
	bl	rt_kprintf
	movw	r0, :lower16:.L.str.1
	movt	r0, :upper16:.L.str.1
	movw	r1, #367
	bl	sys_arch_assert
	b	.LBB5_45
.Ltmp109:
.LBB5_45:
	.loc	5 367 7                         @ rt-thread/components/net/lwip-2.0.2/src/core/ipv4/etharp.c:367:7
	b	.LBB5_46
.Ltmp110:
.LBB5_46:
	.loc	5 367 7                         @ rt-thread/components/net/lwip-2.0.2/src/core/ipv4/etharp.c:367:7
	b	.LBB5_47
.Ltmp111:
.LBB5_47:
	.loc	5 369 5 is_stmt 1               @ rt-thread/components/net/lwip-2.0.2/src/core/ipv4/etharp.c:369:5
	b	.LBB5_55
.Ltmp112:
.LBB5_48:
	.loc	5 369 16 is_stmt 0              @ rt-thread/components/net/lwip-2.0.2/src/core/ipv4/etharp.c:369:16
	ldrsb.w	r0, [sp, #15]
.Ltmp113:
	.loc	5 369 16                        @ rt-thread/components/net/lwip-2.0.2/src/core/ipv4/etharp.c:369:16
	cmp	r0, #9
	bgt	.LBB5_50
	b	.LBB5_49
.LBB5_49:
.Ltmp114:
	.loc	5 371 11 is_stmt 1              @ rt-thread/components/net/lwip-2.0.2/src/core/ipv4/etharp.c:371:11
	ldrb.w	r0, [sp, #15]
	.loc	5 371 9 is_stmt 0               @ rt-thread/components/net/lwip-2.0.2/src/core/ipv4/etharp.c:371:9
	strb.w	r0, [sp, #12]
	.loc	5 374 5 is_stmt 1               @ rt-thread/components/net/lwip-2.0.2/src/core/ipv4/etharp.c:374:5
	b	.LBB5_54
.Ltmp115:
.LBB5_50:
	.loc	5 374 16 is_stmt 0              @ rt-thread/components/net/lwip-2.0.2/src/core/ipv4/etharp.c:374:16
	ldrsb.w	r0, [sp, #11]
.Ltmp116:
	.loc	5 374 16                        @ rt-thread/components/net/lwip-2.0.2/src/core/ipv4/etharp.c:374:16
	cmp	r0, #9
	bgt	.LBB5_52
	b	.LBB5_51
.LBB5_51:
.Ltmp117:
	.loc	5 376 11 is_stmt 1              @ rt-thread/components/net/lwip-2.0.2/src/core/ipv4/etharp.c:376:11
	ldrb.w	r0, [sp, #11]
	.loc	5 376 9 is_stmt 0               @ rt-thread/components/net/lwip-2.0.2/src/core/ipv4/etharp.c:376:9
	strb.w	r0, [sp, #12]
	.loc	5 379 5 is_stmt 1               @ rt-thread/components/net/lwip-2.0.2/src/core/ipv4/etharp.c:379:5
	b	.LBB5_53
.Ltmp118:
.LBB5_52:
	.loc	5 0 5 is_stmt 0                 @ rt-thread/components/net/lwip-2.0.2/src/core/ipv4/etharp.c:0:5
	movs	r0, #255
.Ltmp119:
	.loc	5 381 7 is_stmt 1               @ rt-thread/components/net/lwip-2.0.2/src/core/ipv4/etharp.c:381:7
	strb.w	r0, [sp, #31]
	b	.LBB5_77
.Ltmp120:
.LBB5_53:
	.loc	5 0 7 is_stmt 0                 @ rt-thread/components/net/lwip-2.0.2/src/core/ipv4/etharp.c:0:7
	b	.LBB5_54
.LBB5_54:
	b	.LBB5_55
.LBB5_55:
	.loc	5 385 5 is_stmt 1               @ rt-thread/components/net/lwip-2.0.2/src/core/ipv4/etharp.c:385:5
	b	.LBB5_56
.LBB5_56:
.Ltmp121:
	.loc	5 385 5 is_stmt 0               @ rt-thread/components/net/lwip-2.0.2/src/core/ipv4/etharp.c:385:5
	ldrb.w	r0, [sp, #12]
.Ltmp122:
	.loc	5 385 5                         @ rt-thread/components/net/lwip-2.0.2/src/core/ipv4/etharp.c:385:5
	cmp	r0, #10
	blt	.LBB5_60
	b	.LBB5_57
.LBB5_57:
.Ltmp123:
	.loc	5 385 5                         @ rt-thread/components/net/lwip-2.0.2/src/core/ipv4/etharp.c:385:5
	b	.LBB5_58
.LBB5_58:
.Ltmp124:
	.loc	5 385 5                         @ rt-thread/components/net/lwip-2.0.2/src/core/ipv4/etharp.c:385:5
	movw	r0, :lower16:.L.str.12
	movt	r0, :upper16:.L.str.12
	bl	rt_kprintf
	movw	r0, :lower16:.L.str.1
	movt	r0, :upper16:.L.str.1
	movw	r1, #385
	bl	sys_arch_assert
	b	.LBB5_59
.Ltmp125:
.LBB5_59:
	.loc	5 385 5                         @ rt-thread/components/net/lwip-2.0.2/src/core/ipv4/etharp.c:385:5
	b	.LBB5_60
.Ltmp126:
.LBB5_60:
	.loc	5 385 5                         @ rt-thread/components/net/lwip-2.0.2/src/core/ipv4/etharp.c:385:5
	b	.LBB5_61
.Ltmp127:
.LBB5_61:
	.loc	5 386 23 is_stmt 1              @ rt-thread/components/net/lwip-2.0.2/src/core/ipv4/etharp.c:386:23
	ldrb.w	r0, [sp, #12]
	.loc	5 386 5 is_stmt 0               @ rt-thread/components/net/lwip-2.0.2/src/core/ipv4/etharp.c:386:5
	bl	etharp_free_entry
	b	.LBB5_62
.Ltmp128:
.LBB5_62:
	.loc	5 389 3 is_stmt 1               @ rt-thread/components/net/lwip-2.0.2/src/core/ipv4/etharp.c:389:3
	b	.LBB5_63
.LBB5_63:
.Ltmp129:
	.loc	5 389 3 is_stmt 0               @ rt-thread/components/net/lwip-2.0.2/src/core/ipv4/etharp.c:389:3
	ldrb.w	r0, [sp, #12]
.Ltmp130:
	.loc	5 389 3                         @ rt-thread/components/net/lwip-2.0.2/src/core/ipv4/etharp.c:389:3
	cmp	r0, #10
	blt	.LBB5_67
	b	.LBB5_64
.LBB5_64:
.Ltmp131:
	.loc	5 389 3                         @ rt-thread/components/net/lwip-2.0.2/src/core/ipv4/etharp.c:389:3
	b	.LBB5_65
.LBB5_65:
.Ltmp132:
	.loc	5 389 3                         @ rt-thread/components/net/lwip-2.0.2/src/core/ipv4/etharp.c:389:3
	movw	r0, :lower16:.L.str.12
	movt	r0, :upper16:.L.str.12
	bl	rt_kprintf
	movw	r0, :lower16:.L.str.1
	movt	r0, :upper16:.L.str.1
	movw	r1, #389
	bl	sys_arch_assert
	b	.LBB5_66
.Ltmp133:
.LBB5_66:
	.loc	5 389 3                         @ rt-thread/components/net/lwip-2.0.2/src/core/ipv4/etharp.c:389:3
	b	.LBB5_67
.Ltmp134:
.LBB5_67:
	.loc	5 389 3                         @ rt-thread/components/net/lwip-2.0.2/src/core/ipv4/etharp.c:389:3
	b	.LBB5_68
.Ltmp135:
.LBB5_68:
	.loc	5 390 3 is_stmt 1               @ rt-thread/components/net/lwip-2.0.2/src/core/ipv4/etharp.c:390:3
	b	.LBB5_69
.LBB5_69:
.Ltmp136:
	.loc	5 390 3 is_stmt 0               @ rt-thread/components/net/lwip-2.0.2/src/core/ipv4/etharp.c:390:3
	ldrb.w	r0, [sp, #12]
	add.w	r1, r0, r0, lsl #1
	movw	r0, :lower16:arp_table
	movt	r0, :upper16:arp_table
	add.w	r0, r0, r1, lsl #3
	ldrb	r0, [r0, #20]
.Ltmp137:
	.loc	5 390 3                         @ rt-thread/components/net/lwip-2.0.2/src/core/ipv4/etharp.c:390:3
	cbz	r0, .LBB5_73
	b	.LBB5_70
.LBB5_70:
.Ltmp138:
	.loc	5 390 3                         @ rt-thread/components/net/lwip-2.0.2/src/core/ipv4/etharp.c:390:3
	b	.LBB5_71
.LBB5_71:
.Ltmp139:
	.loc	5 390 3                         @ rt-thread/components/net/lwip-2.0.2/src/core/ipv4/etharp.c:390:3
	movw	r0, :lower16:.L.str.13
	movt	r0, :upper16:.L.str.13
	bl	rt_kprintf
	movw	r0, :lower16:.L.str.1
	movt	r0, :upper16:.L.str.1
	movw	r1, #391
	bl	sys_arch_assert
	b	.LBB5_72
.Ltmp140:
.LBB5_72:
	.loc	5 390 3                         @ rt-thread/components/net/lwip-2.0.2/src/core/ipv4/etharp.c:390:3
	b	.LBB5_73
.Ltmp141:
.LBB5_73:
	.loc	5 390 3                         @ rt-thread/components/net/lwip-2.0.2/src/core/ipv4/etharp.c:390:3
	b	.LBB5_74
.Ltmp142:
.LBB5_74:
	.loc	5 394 7 is_stmt 1               @ rt-thread/components/net/lwip-2.0.2/src/core/ipv4/etharp.c:394:7
	ldr	r0, [sp, #24]
.Ltmp143:
	.loc	5 394 7 is_stmt 0               @ rt-thread/components/net/lwip-2.0.2/src/core/ipv4/etharp.c:394:7
	cbz	r0, .LBB5_76
	b	.LBB5_75
.LBB5_75:
.Ltmp144:
	.loc	5 396 5 is_stmt 1               @ rt-thread/components/net/lwip-2.0.2/src/core/ipv4/etharp.c:396:5
	ldr	r0, [sp, #24]
	ldr	r0, [r0]
	ldrb.w	r1, [sp, #12]
	add.w	r2, r1, r1, lsl #1
	movw	r1, :lower16:arp_table
	movt	r1, :upper16:arp_table
	add.w	r1, r1, r2, lsl #3
	str	r0, [r1, #4]
	.loc	5 397 3                         @ rt-thread/components/net/lwip-2.0.2/src/core/ipv4/etharp.c:397:3
	b	.LBB5_76
.Ltmp145:
.LBB5_76:
	.loc	5 398 13                        @ rt-thread/components/net/lwip-2.0.2/src/core/ipv4/etharp.c:398:13
	ldrb.w	r0, [sp, #12]
	.loc	5 398 3 is_stmt 0               @ rt-thread/components/net/lwip-2.0.2/src/core/ipv4/etharp.c:398:3
	add.w	r1, r0, r0, lsl #1
	movw	r0, :lower16:arp_table
	movt	r0, :upper16:arp_table
	add.w	r1, r0, r1, lsl #3
	movs	r0, #0
	.loc	5 398 22                        @ rt-thread/components/net/lwip-2.0.2/src/core/ipv4/etharp.c:398:22
	strh	r0, [r1, #18]
	.loc	5 402 17 is_stmt 1              @ rt-thread/components/net/lwip-2.0.2/src/core/ipv4/etharp.c:402:17
	ldrb.w	r0, [sp, #12]
	.loc	5 402 3 is_stmt 0               @ rt-thread/components/net/lwip-2.0.2/src/core/ipv4/etharp.c:402:3
	strb.w	r0, [sp, #31]
	b	.LBB5_77
.LBB5_77:
	.loc	5 403 1 is_stmt 1               @ rt-thread/components/net/lwip-2.0.2/src/core/ipv4/etharp.c:403:1
	ldrsb.w	r0, [sp, #31]
	add	sp, #32
	pop	{r7, pc}
.Ltmp146:
.Lfunc_end5:
	.size	etharp_find_entry, .Lfunc_end5-etharp_find_entry
	.cfi_endproc
	.cantunwind
	.fnend
                                        @ -- End function
	.section	.text.etharp_get_entry,"ax",%progbits
	.hidden	etharp_get_entry                @ -- Begin function etharp_get_entry
	.globl	etharp_get_entry
	.p2align	3
	.type	etharp_get_entry,%function
	.code	16                              @ @etharp_get_entry
	.thumb_func
etharp_get_entry:
.Lfunc_begin6:
	.loc	5 613 0                         @ rt-thread/components/net/lwip-2.0.2/src/core/ipv4/etharp.c:613:0
	.fnstart
	.cfi_startproc
@ %bb.0:
	.save	{r7, lr}
	push	{r7, lr}
	.cfi_def_cfa_offset 8
	.cfi_offset lr, -4
	.cfi_offset r7, -8
	.pad	#16
	sub	sp, #16
	.cfi_def_cfa_offset 24
                                        @ kill: def $r12 killed $r0
	strb.w	r0, [sp, #14]
	str	r1, [sp, #8]
	str	r2, [sp, #4]
	str	r3, [sp]
.Ltmp147:
	.loc	5 614 3 prologue_end            @ rt-thread/components/net/lwip-2.0.2/src/core/ipv4/etharp.c:614:3
	b	.LBB6_1
.LBB6_1:
.Ltmp148:
	.loc	5 614 3 is_stmt 0               @ rt-thread/components/net/lwip-2.0.2/src/core/ipv4/etharp.c:614:3
	ldr	r0, [sp, #8]
.Ltmp149:
	.loc	5 614 3                         @ rt-thread/components/net/lwip-2.0.2/src/core/ipv4/etharp.c:614:3
	cbnz	r0, .LBB6_5
	b	.LBB6_2
.LBB6_2:
.Ltmp150:
	.loc	5 614 3                         @ rt-thread/components/net/lwip-2.0.2/src/core/ipv4/etharp.c:614:3
	b	.LBB6_3
.LBB6_3:
.Ltmp151:
	.loc	5 614 3                         @ rt-thread/components/net/lwip-2.0.2/src/core/ipv4/etharp.c:614:3
	movw	r0, :lower16:.L.str.2
	movt	r0, :upper16:.L.str.2
	bl	rt_kprintf
	movw	r0, :lower16:.L.str.1
	movt	r0, :upper16:.L.str.1
	movw	r1, #614
	bl	sys_arch_assert
	b	.LBB6_4
.Ltmp152:
.LBB6_4:
	.loc	5 614 3                         @ rt-thread/components/net/lwip-2.0.2/src/core/ipv4/etharp.c:614:3
	b	.LBB6_5
.Ltmp153:
.LBB6_5:
	.loc	5 614 3                         @ rt-thread/components/net/lwip-2.0.2/src/core/ipv4/etharp.c:614:3
	b	.LBB6_6
.Ltmp154:
.LBB6_6:
	.loc	5 615 3 is_stmt 1               @ rt-thread/components/net/lwip-2.0.2/src/core/ipv4/etharp.c:615:3
	b	.LBB6_7
.LBB6_7:
.Ltmp155:
	.loc	5 615 3 is_stmt 0               @ rt-thread/components/net/lwip-2.0.2/src/core/ipv4/etharp.c:615:3
	ldr	r0, [sp, #4]
.Ltmp156:
	.loc	5 615 3                         @ rt-thread/components/net/lwip-2.0.2/src/core/ipv4/etharp.c:615:3
	cbnz	r0, .LBB6_11
	b	.LBB6_8
.LBB6_8:
.Ltmp157:
	.loc	5 615 3                         @ rt-thread/components/net/lwip-2.0.2/src/core/ipv4/etharp.c:615:3
	b	.LBB6_9
.LBB6_9:
.Ltmp158:
	.loc	5 615 3                         @ rt-thread/components/net/lwip-2.0.2/src/core/ipv4/etharp.c:615:3
	movw	r0, :lower16:.L.str.3
	movt	r0, :upper16:.L.str.3
	bl	rt_kprintf
	movw	r0, :lower16:.L.str.1
	movt	r0, :upper16:.L.str.1
	movw	r1, #615
	bl	sys_arch_assert
	b	.LBB6_10
.Ltmp159:
.LBB6_10:
	.loc	5 615 3                         @ rt-thread/components/net/lwip-2.0.2/src/core/ipv4/etharp.c:615:3
	b	.LBB6_11
.Ltmp160:
.LBB6_11:
	.loc	5 615 3                         @ rt-thread/components/net/lwip-2.0.2/src/core/ipv4/etharp.c:615:3
	b	.LBB6_12
.Ltmp161:
.LBB6_12:
	.loc	5 616 3 is_stmt 1               @ rt-thread/components/net/lwip-2.0.2/src/core/ipv4/etharp.c:616:3
	b	.LBB6_13
.LBB6_13:
.Ltmp162:
	.loc	5 616 3 is_stmt 0               @ rt-thread/components/net/lwip-2.0.2/src/core/ipv4/etharp.c:616:3
	ldr	r0, [sp]
.Ltmp163:
	.loc	5 616 3                         @ rt-thread/components/net/lwip-2.0.2/src/core/ipv4/etharp.c:616:3
	cbnz	r0, .LBB6_17
	b	.LBB6_14
.LBB6_14:
.Ltmp164:
	.loc	5 616 3                         @ rt-thread/components/net/lwip-2.0.2/src/core/ipv4/etharp.c:616:3
	b	.LBB6_15
.LBB6_15:
.Ltmp165:
	.loc	5 616 3                         @ rt-thread/components/net/lwip-2.0.2/src/core/ipv4/etharp.c:616:3
	movw	r0, :lower16:.L.str.4
	movt	r0, :upper16:.L.str.4
	bl	rt_kprintf
	movw	r0, :lower16:.L.str.1
	movt	r0, :upper16:.L.str.1
	mov.w	r1, #616
	bl	sys_arch_assert
	b	.LBB6_16
.Ltmp166:
.LBB6_16:
	.loc	5 616 3                         @ rt-thread/components/net/lwip-2.0.2/src/core/ipv4/etharp.c:616:3
	b	.LBB6_17
.Ltmp167:
.LBB6_17:
	.loc	5 616 3                         @ rt-thread/components/net/lwip-2.0.2/src/core/ipv4/etharp.c:616:3
	b	.LBB6_18
.Ltmp168:
.LBB6_18:
	.loc	5 618 7 is_stmt 1               @ rt-thread/components/net/lwip-2.0.2/src/core/ipv4/etharp.c:618:7
	ldrb.w	r0, [sp, #14]
	.loc	5 618 27 is_stmt 0              @ rt-thread/components/net/lwip-2.0.2/src/core/ipv4/etharp.c:618:27
	cmp	r0, #9
	bgt	.LBB6_21
	b	.LBB6_19
.LBB6_19:
	.loc	5 618 41                        @ rt-thread/components/net/lwip-2.0.2/src/core/ipv4/etharp.c:618:41
	ldrb.w	r0, [sp, #14]
	.loc	5 618 31                        @ rt-thread/components/net/lwip-2.0.2/src/core/ipv4/etharp.c:618:31
	add.w	r1, r0, r0, lsl #1
	movw	r0, :lower16:arp_table
	movt	r0, :upper16:arp_table
	add.w	r0, r0, r1, lsl #3
	.loc	5 618 44                        @ rt-thread/components/net/lwip-2.0.2/src/core/ipv4/etharp.c:618:44
	ldrb	r0, [r0, #20]
.Ltmp169:
	.loc	5 618 6                         @ rt-thread/components/net/lwip-2.0.2/src/core/ipv4/etharp.c:618:6
	cmp	r0, #2
	blt	.LBB6_21
	b	.LBB6_20
.LBB6_20:
.Ltmp170:
	.loc	5 619 27 is_stmt 1              @ rt-thread/components/net/lwip-2.0.2/src/core/ipv4/etharp.c:619:27
	ldrb.w	r0, [sp, #14]
	.loc	5 619 17 is_stmt 0              @ rt-thread/components/net/lwip-2.0.2/src/core/ipv4/etharp.c:619:17
	add.w	r1, r0, r0, lsl #1
	movw	r0, :lower16:arp_table
	movt	r0, :upper16:arp_table
	add.w	r1, r0, r1, lsl #3
	.loc	5 619 30                        @ rt-thread/components/net/lwip-2.0.2/src/core/ipv4/etharp.c:619:30
	adds	r1, #4
	.loc	5 619 6                         @ rt-thread/components/net/lwip-2.0.2/src/core/ipv4/etharp.c:619:6
	ldr	r2, [sp, #8]
	.loc	5 619 14                        @ rt-thread/components/net/lwip-2.0.2/src/core/ipv4/etharp.c:619:14
	str	r1, [r2]
	.loc	5 620 26 is_stmt 1              @ rt-thread/components/net/lwip-2.0.2/src/core/ipv4/etharp.c:620:26
	ldrb.w	r1, [sp, #14]
	.loc	5 620 16 is_stmt 0              @ rt-thread/components/net/lwip-2.0.2/src/core/ipv4/etharp.c:620:16
	add.w	r1, r1, r1, lsl #1
	add.w	r1, r0, r1, lsl #3
	.loc	5 620 29                        @ rt-thread/components/net/lwip-2.0.2/src/core/ipv4/etharp.c:620:29
	ldr	r1, [r1, #8]
	.loc	5 620 6                         @ rt-thread/components/net/lwip-2.0.2/src/core/ipv4/etharp.c:620:6
	ldr	r2, [sp, #4]
	.loc	5 620 14                        @ rt-thread/components/net/lwip-2.0.2/src/core/ipv4/etharp.c:620:14
	str	r1, [r2]
	.loc	5 621 27 is_stmt 1              @ rt-thread/components/net/lwip-2.0.2/src/core/ipv4/etharp.c:621:27
	ldrb.w	r1, [sp, #14]
	.loc	5 621 17 is_stmt 0              @ rt-thread/components/net/lwip-2.0.2/src/core/ipv4/etharp.c:621:17
	add.w	r1, r1, r1, lsl #1
	add.w	r0, r0, r1, lsl #3
	.loc	5 621 30                        @ rt-thread/components/net/lwip-2.0.2/src/core/ipv4/etharp.c:621:30
	adds	r0, #12
	.loc	5 621 6                         @ rt-thread/components/net/lwip-2.0.2/src/core/ipv4/etharp.c:621:6
	ldr	r1, [sp]
	.loc	5 621 14                        @ rt-thread/components/net/lwip-2.0.2/src/core/ipv4/etharp.c:621:14
	str	r0, [r1]
	movs	r0, #1
	.loc	5 622 5 is_stmt 1               @ rt-thread/components/net/lwip-2.0.2/src/core/ipv4/etharp.c:622:5
	strb.w	r0, [sp, #15]
	b	.LBB6_22
.Ltmp171:
.LBB6_21:
	.loc	5 0 5 is_stmt 0                 @ rt-thread/components/net/lwip-2.0.2/src/core/ipv4/etharp.c:0:5
	movs	r0, #0
.Ltmp172:
	.loc	5 624 5 is_stmt 1               @ rt-thread/components/net/lwip-2.0.2/src/core/ipv4/etharp.c:624:5
	strb.w	r0, [sp, #15]
	b	.LBB6_22
.Ltmp173:
.LBB6_22:
	.loc	5 626 1                         @ rt-thread/components/net/lwip-2.0.2/src/core/ipv4/etharp.c:626:1
	ldrb.w	r0, [sp, #15]
	add	sp, #16
	pop	{r7, pc}
.Ltmp174:
.Lfunc_end6:
	.size	etharp_get_entry, .Lfunc_end6-etharp_get_entry
	.cfi_endproc
	.cantunwind
	.fnend
                                        @ -- End function
	.section	.text.etharp_input,"ax",%progbits
	.hidden	etharp_input                    @ -- Begin function etharp_input
	.globl	etharp_input
	.p2align	3
	.type	etharp_input,%function
	.code	16                              @ @etharp_input
	.thumb_func
etharp_input:
.Lfunc_begin7:
	.loc	5 642 0                         @ rt-thread/components/net/lwip-2.0.2/src/core/ipv4/etharp.c:642:0
	.fnstart
	.cfi_startproc
@ %bb.0:
	.save	{r7, lr}
	push	{r7, lr}
	.cfi_def_cfa_offset 8
	.cfi_offset lr, -4
	.cfi_offset r7, -8
	.pad	#48
	sub	sp, #48
	.cfi_def_cfa_offset 56
	str	r0, [sp, #44]
	str	r1, [sp, #40]
.Ltmp175:
	.loc	5 648 3 prologue_end            @ rt-thread/components/net/lwip-2.0.2/src/core/ipv4/etharp.c:648:3
	b	.LBB7_1
.LBB7_1:
.Ltmp176:
	.loc	5 648 3 is_stmt 0               @ rt-thread/components/net/lwip-2.0.2/src/core/ipv4/etharp.c:648:3
	ldr	r0, [sp, #40]
.Ltmp177:
	.loc	5 648 3                         @ rt-thread/components/net/lwip-2.0.2/src/core/ipv4/etharp.c:648:3
	cbnz	r0, .LBB7_5
	b	.LBB7_2
.LBB7_2:
.Ltmp178:
	.loc	5 648 3                         @ rt-thread/components/net/lwip-2.0.2/src/core/ipv4/etharp.c:648:3
	b	.LBB7_3
.LBB7_3:
.Ltmp179:
	.loc	5 648 3                         @ rt-thread/components/net/lwip-2.0.2/src/core/ipv4/etharp.c:648:3
	movw	r0, :lower16:.L.str.3
	movt	r0, :upper16:.L.str.3
	bl	rt_kprintf
	movw	r0, :lower16:.L.str.1
	movt	r0, :upper16:.L.str.1
	mov.w	r1, #648
	bl	sys_arch_assert
	b	.LBB7_4
.Ltmp180:
.LBB7_4:
	.loc	5 648 3                         @ rt-thread/components/net/lwip-2.0.2/src/core/ipv4/etharp.c:648:3
	b	.LBB7_26
.Ltmp181:
.LBB7_5:
	.loc	5 648 3                         @ rt-thread/components/net/lwip-2.0.2/src/core/ipv4/etharp.c:648:3
	b	.LBB7_6
.Ltmp182:
.LBB7_6:
	.loc	5 650 30 is_stmt 1              @ rt-thread/components/net/lwip-2.0.2/src/core/ipv4/etharp.c:650:30
	ldr	r0, [sp, #44]
	.loc	5 650 33 is_stmt 0              @ rt-thread/components/net/lwip-2.0.2/src/core/ipv4/etharp.c:650:33
	ldr	r0, [r0, #4]
	.loc	5 650 7                         @ rt-thread/components/net/lwip-2.0.2/src/core/ipv4/etharp.c:650:7
	str	r0, [sp, #36]
.Ltmp183:
	.loc	5 653 8 is_stmt 1               @ rt-thread/components/net/lwip-2.0.2/src/core/ipv4/etharp.c:653:8
	ldr	r0, [sp, #36]
	.loc	5 653 13 is_stmt 0              @ rt-thread/components/net/lwip-2.0.2/src/core/ipv4/etharp.c:653:13
	ldrh	r0, [r0]
	.loc	5 653 50                        @ rt-thread/components/net/lwip-2.0.2/src/core/ipv4/etharp.c:653:50
	cmp.w	r0, #256
	bne	.LBB7_10
	b	.LBB7_7
.LBB7_7:
	.loc	5 654 8 is_stmt 1               @ rt-thread/components/net/lwip-2.0.2/src/core/ipv4/etharp.c:654:8
	ldr	r0, [sp, #36]
	.loc	5 654 13 is_stmt 0              @ rt-thread/components/net/lwip-2.0.2/src/core/ipv4/etharp.c:654:13
	ldrb	r0, [r0, #4]
	.loc	5 654 38                        @ rt-thread/components/net/lwip-2.0.2/src/core/ipv4/etharp.c:654:38
	cmp	r0, #6
	bne	.LBB7_10
	b	.LBB7_8
.LBB7_8:
	.loc	5 655 8 is_stmt 1               @ rt-thread/components/net/lwip-2.0.2/src/core/ipv4/etharp.c:655:8
	ldr	r0, [sp, #36]
	.loc	5 655 13 is_stmt 0              @ rt-thread/components/net/lwip-2.0.2/src/core/ipv4/etharp.c:655:13
	ldrb	r0, [r0, #5]
	.loc	5 655 45                        @ rt-thread/components/net/lwip-2.0.2/src/core/ipv4/etharp.c:655:45
	cmp	r0, #4
	bne	.LBB7_10
	b	.LBB7_9
.LBB7_9:
	.loc	5 656 8 is_stmt 1               @ rt-thread/components/net/lwip-2.0.2/src/core/ipv4/etharp.c:656:8
	ldr	r0, [sp, #36]
	.loc	5 656 13 is_stmt 0              @ rt-thread/components/net/lwip-2.0.2/src/core/ipv4/etharp.c:656:13
	ldrh	r0, [r0, #2]
.Ltmp184:
	.loc	5 653 7 is_stmt 1               @ rt-thread/components/net/lwip-2.0.2/src/core/ipv4/etharp.c:653:7
	cmp	r0, #8
	beq	.LBB7_11
	b	.LBB7_10
.LBB7_10:
.Ltmp185:
	.loc	5 662 15                        @ rt-thread/components/net/lwip-2.0.2/src/core/ipv4/etharp.c:662:15
	ldr	r0, [sp, #44]
	.loc	5 662 5 is_stmt 0               @ rt-thread/components/net/lwip-2.0.2/src/core/ipv4/etharp.c:662:5
	bl	pbuf_free
	.loc	5 663 5 is_stmt 1               @ rt-thread/components/net/lwip-2.0.2/src/core/ipv4/etharp.c:663:5
	b	.LBB7_26
.Ltmp186:
.LBB7_11:
	.loc	5 676 3                         @ rt-thread/components/net/lwip-2.0.2/src/core/ipv4/etharp.c:676:3
	ldr	r0, [sp, #36]
	ldr.w	r0, [r0, #14]
	str	r0, [sp, #32]
	.loc	5 677 3                         @ rt-thread/components/net/lwip-2.0.2/src/core/ipv4/etharp.c:677:3
	ldr	r0, [sp, #36]
	ldr	r0, [r0, #24]
	str	r0, [sp, #28]
.Ltmp187:
	.loc	5 680 7                         @ rt-thread/components/net/lwip-2.0.2/src/core/ipv4/etharp.c:680:7
	ldr	r0, [sp, #40]
	ldr	r0, [r0, #4]
.Ltmp188:
	.loc	5 680 7 is_stmt 0               @ rt-thread/components/net/lwip-2.0.2/src/core/ipv4/etharp.c:680:7
	cbnz	r0, .LBB7_13
	b	.LBB7_12
.LBB7_12:
	.loc	5 0 7                           @ rt-thread/components/net/lwip-2.0.2/src/core/ipv4/etharp.c:0:7
	movs	r0, #0
.Ltmp189:
	.loc	5 681 12 is_stmt 1              @ rt-thread/components/net/lwip-2.0.2/src/core/ipv4/etharp.c:681:12
	strb.w	r0, [sp, #27]
	.loc	5 682 3                         @ rt-thread/components/net/lwip-2.0.2/src/core/ipv4/etharp.c:682:3
	b	.LBB7_14
.Ltmp190:
.LBB7_13:
	.loc	5 684 20                        @ rt-thread/components/net/lwip-2.0.2/src/core/ipv4/etharp.c:684:20
	ldr	r0, [sp, #28]
	ldr	r1, [sp, #40]
	ldr	r1, [r1, #4]
	subs	r0, r0, r1
	clz	r0, r0
	lsrs	r0, r0, #5
	.loc	5 684 12 is_stmt 0              @ rt-thread/components/net/lwip-2.0.2/src/core/ipv4/etharp.c:684:12
	strb.w	r0, [sp, #27]
	b	.LBB7_14
.Ltmp191:
.LBB7_14:
	.loc	5 692 27 is_stmt 1              @ rt-thread/components/net/lwip-2.0.2/src/core/ipv4/etharp.c:692:27
	ldr	r0, [sp, #40]
	.loc	5 692 46 is_stmt 0              @ rt-thread/components/net/lwip-2.0.2/src/core/ipv4/etharp.c:692:46
	ldr	r1, [sp, #36]
	.loc	5 692 51                        @ rt-thread/components/net/lwip-2.0.2/src/core/ipv4/etharp.c:692:51
	add.w	r2, r1, #8
	.loc	5 693 20 is_stmt 1              @ rt-thread/components/net/lwip-2.0.2/src/core/ipv4/etharp.c:693:20
	ldrb.w	r1, [sp, #27]
	movs	r3, #2
	cmp	r1, #0
	it	ne
	movne	r3, #1
	add	r1, sp, #32
	.loc	5 692 3                         @ rt-thread/components/net/lwip-2.0.2/src/core/ipv4/etharp.c:692:3
	bl	etharp_update_arp_entry
	.loc	5 696 11                        @ rt-thread/components/net/lwip-2.0.2/src/core/ipv4/etharp.c:696:11
	ldr	r0, [sp, #36]
	.loc	5 696 16 is_stmt 0              @ rt-thread/components/net/lwip-2.0.2/src/core/ipv4/etharp.c:696:16
	ldrh	r0, [r0, #6]
	.loc	5 696 3                         @ rt-thread/components/net/lwip-2.0.2/src/core/ipv4/etharp.c:696:3
	mov	r1, r0
	str	r1, [sp, #20]                   @ 4-byte Spill
	cmp.w	r0, #256
	beq	.LBB7_16
	b	.LBB7_15
.LBB7_15:
	ldr	r0, [sp, #20]                   @ 4-byte Reload
	cmp.w	r0, #512
	beq	.LBB7_23
	b	.LBB7_24
.LBB7_16:
.Ltmp192:
	.loc	5 705 9 is_stmt 1               @ rt-thread/components/net/lwip-2.0.2/src/core/ipv4/etharp.c:705:9
	ldrb.w	r0, [sp, #27]
.Ltmp193:
	.loc	5 705 9 is_stmt 0               @ rt-thread/components/net/lwip-2.0.2/src/core/ipv4/etharp.c:705:9
	cbz	r0, .LBB7_18
	b	.LBB7_17
.LBB7_17:
.Ltmp194:
	.loc	5 707 18 is_stmt 1              @ rt-thread/components/net/lwip-2.0.2/src/core/ipv4/etharp.c:707:18
	ldr	r0, [sp, #40]
	.loc	5 708 44                        @ rt-thread/components/net/lwip-2.0.2/src/core/ipv4/etharp.c:708:44
	add.w	r3, r0, #59
	.loc	5 708 53 is_stmt 0              @ rt-thread/components/net/lwip-2.0.2/src/core/ipv4/etharp.c:708:53
	ldr	r1, [sp, #36]
	.loc	5 708 58                        @ rt-thread/components/net/lwip-2.0.2/src/core/ipv4/etharp.c:708:58
	add.w	r2, r1, #8
	.loc	5 709 52 is_stmt 1              @ rt-thread/components/net/lwip-2.0.2/src/core/ipv4/etharp.c:709:52
	adds	r1, r0, #4
	.loc	5 707 7                         @ rt-thread/components/net/lwip-2.0.2/src/core/ipv4/etharp.c:707:7
	mov	r12, sp
	mov.w	lr, #2
	str.w	lr, [r12, #12]
	add.w	lr, sp, #32
	str.w	lr, [r12, #8]
	str.w	r2, [r12, #4]
	str.w	r1, [r12]
	mov	r1, r3
	bl	etharp_raw
	.loc	5 713 5                         @ rt-thread/components/net/lwip-2.0.2/src/core/ipv4/etharp.c:713:5
	b	.LBB7_22
.Ltmp195:
.LBB7_18:
	.loc	5 713 16 is_stmt 0              @ rt-thread/components/net/lwip-2.0.2/src/core/ipv4/etharp.c:713:16
	ldr	r0, [sp, #40]
	ldr	r0, [r0, #4]
.Ltmp196:
	.loc	5 713 16                        @ rt-thread/components/net/lwip-2.0.2/src/core/ipv4/etharp.c:713:16
	cbnz	r0, .LBB7_20
	b	.LBB7_19
.LBB7_19:
.Ltmp197:
	.loc	5 717 5 is_stmt 1               @ rt-thread/components/net/lwip-2.0.2/src/core/ipv4/etharp.c:717:5
	b	.LBB7_21
.Ltmp198:
.LBB7_20:
	.loc	5 0 5 is_stmt 0                 @ rt-thread/components/net/lwip-2.0.2/src/core/ipv4/etharp.c:0:5
	b	.LBB7_21
.LBB7_21:
	b	.LBB7_22
.LBB7_22:
	.loc	5 721 5 is_stmt 1               @ rt-thread/components/net/lwip-2.0.2/src/core/ipv4/etharp.c:721:5
	b	.LBB7_25
.LBB7_23:
	.loc	5 730 20                        @ rt-thread/components/net/lwip-2.0.2/src/core/ipv4/etharp.c:730:20
	ldr	r0, [sp, #40]
	add	r1, sp, #32
	.loc	5 730 5 is_stmt 0               @ rt-thread/components/net/lwip-2.0.2/src/core/ipv4/etharp.c:730:5
	bl	dhcp_arp_reply
	.loc	5 732 5 is_stmt 1               @ rt-thread/components/net/lwip-2.0.2/src/core/ipv4/etharp.c:732:5
	b	.LBB7_25
.LBB7_24:
	.loc	5 736 5                         @ rt-thread/components/net/lwip-2.0.2/src/core/ipv4/etharp.c:736:5
	b	.LBB7_25
.Ltmp199:
.LBB7_25:
	.loc	5 739 13                        @ rt-thread/components/net/lwip-2.0.2/src/core/ipv4/etharp.c:739:13
	ldr	r0, [sp, #44]
	.loc	5 739 3 is_stmt 0               @ rt-thread/components/net/lwip-2.0.2/src/core/ipv4/etharp.c:739:3
	bl	pbuf_free
	.loc	5 740 1 is_stmt 1               @ rt-thread/components/net/lwip-2.0.2/src/core/ipv4/etharp.c:740:1
	b	.LBB7_26
.LBB7_26:
	add	sp, #48
	pop	{r7, pc}
.Ltmp200:
.Lfunc_end7:
	.size	etharp_input, .Lfunc_end7-etharp_input
	.cfi_endproc
	.cantunwind
	.fnend
                                        @ -- End function
	.section	.text.etharp_update_arp_entry,"ax",%progbits
	.p2align	3                               @ -- Begin function etharp_update_arp_entry
	.type	etharp_update_arp_entry,%function
	.code	16                              @ @etharp_update_arp_entry
	.thumb_func
etharp_update_arp_entry:
.Lfunc_begin8:
	.loc	5 425 0                         @ rt-thread/components/net/lwip-2.0.2/src/core/ipv4/etharp.c:425:0
	.fnstart
	.cfi_startproc
@ %bb.0:
	.save	{r7, lr}
	push	{r7, lr}
	.cfi_def_cfa_offset 8
	.cfi_offset lr, -4
	.cfi_offset r7, -8
	.pad	#32
	sub	sp, #32
	.cfi_def_cfa_offset 40
                                        @ kill: def $r12 killed $r3
	str	r0, [sp, #24]
	str	r1, [sp, #20]
	str	r2, [sp, #16]
	strb.w	r3, [sp, #15]
.Ltmp201:
	.loc	5 427 3 prologue_end            @ rt-thread/components/net/lwip-2.0.2/src/core/ipv4/etharp.c:427:3
	b	.LBB8_1
.LBB8_1:
.Ltmp202:
	.loc	5 427 3 is_stmt 0               @ rt-thread/components/net/lwip-2.0.2/src/core/ipv4/etharp.c:427:3
	ldr	r0, [sp, #24]
	ldrb.w	r0, [r0, #58]
.Ltmp203:
	.loc	5 427 3                         @ rt-thread/components/net/lwip-2.0.2/src/core/ipv4/etharp.c:427:3
	cmp	r0, #6
	beq	.LBB8_5
	b	.LBB8_2
.LBB8_2:
.Ltmp204:
	.loc	5 427 3                         @ rt-thread/components/net/lwip-2.0.2/src/core/ipv4/etharp.c:427:3
	b	.LBB8_3
.LBB8_3:
.Ltmp205:
	.loc	5 427 3                         @ rt-thread/components/net/lwip-2.0.2/src/core/ipv4/etharp.c:427:3
	movw	r0, :lower16:.L.str.14
	movt	r0, :upper16:.L.str.14
	bl	rt_kprintf
	movw	r0, :lower16:.L.str.1
	movt	r0, :upper16:.L.str.1
	movw	r1, #427
	bl	sys_arch_assert
	b	.LBB8_4
.Ltmp206:
.LBB8_4:
	.loc	5 427 3                         @ rt-thread/components/net/lwip-2.0.2/src/core/ipv4/etharp.c:427:3
	b	.LBB8_5
.Ltmp207:
.LBB8_5:
	.loc	5 427 3                         @ rt-thread/components/net/lwip-2.0.2/src/core/ipv4/etharp.c:427:3
	b	.LBB8_6
.Ltmp208:
.LBB8_6:
	.loc	5 433 7 is_stmt 1               @ rt-thread/components/net/lwip-2.0.2/src/core/ipv4/etharp.c:433:7
	ldr	r0, [sp, #20]
	cbz	r0, .LBB8_10
	b	.LBB8_7
.LBB8_7:
	ldr	r0, [sp, #20]
	ldr	r0, [r0]
	.loc	5 433 30 is_stmt 0              @ rt-thread/components/net/lwip-2.0.2/src/core/ipv4/etharp.c:433:30
	cbz	r0, .LBB8_10
	b	.LBB8_8
.LBB8_8:
	.loc	5 434 7 is_stmt 1               @ rt-thread/components/net/lwip-2.0.2/src/core/ipv4/etharp.c:434:7
	ldr	r0, [sp, #20]
	ldr	r0, [r0]
	ldr	r1, [sp, #24]
	bl	ip4_addr_isbroadcast_u32
	.loc	5 434 43 is_stmt 0              @ rt-thread/components/net/lwip-2.0.2/src/core/ipv4/etharp.c:434:43
	cbnz	r0, .LBB8_10
	b	.LBB8_9
.LBB8_9:
	.loc	5 435 7 is_stmt 1               @ rt-thread/components/net/lwip-2.0.2/src/core/ipv4/etharp.c:435:7
	ldr	r0, [sp, #20]
	ldr	r0, [r0]
	and	r0, r0, #240
.Ltmp209:
	.loc	5 433 7                         @ rt-thread/components/net/lwip-2.0.2/src/core/ipv4/etharp.c:433:7
	cmp	r0, #224
	bne	.LBB8_11
	b	.LBB8_10
.LBB8_10:
	.loc	5 0 7 is_stmt 0                 @ rt-thread/components/net/lwip-2.0.2/src/core/ipv4/etharp.c:0:7
	movs	r0, #240
.Ltmp210:
	.loc	5 437 5 is_stmt 1               @ rt-thread/components/net/lwip-2.0.2/src/core/ipv4/etharp.c:437:5
	strb.w	r0, [sp, #31]
	b	.LBB8_17
.Ltmp211:
.LBB8_11:
	.loc	5 440 25                        @ rt-thread/components/net/lwip-2.0.2/src/core/ipv4/etharp.c:440:25
	ldr	r0, [sp, #20]
	.loc	5 440 33 is_stmt 0              @ rt-thread/components/net/lwip-2.0.2/src/core/ipv4/etharp.c:440:33
	ldrb.w	r1, [sp, #15]
	.loc	5 440 40                        @ rt-thread/components/net/lwip-2.0.2/src/core/ipv4/etharp.c:440:40
	ldr	r2, [sp, #24]
	.loc	5 440 7                         @ rt-thread/components/net/lwip-2.0.2/src/core/ipv4/etharp.c:440:7
	bl	etharp_find_entry
	.loc	5 440 5                         @ rt-thread/components/net/lwip-2.0.2/src/core/ipv4/etharp.c:440:5
	strb.w	r0, [sp, #14]
.Ltmp212:
	.loc	5 442 7 is_stmt 1               @ rt-thread/components/net/lwip-2.0.2/src/core/ipv4/etharp.c:442:7
	ldrsb.w	r0, [sp, #14]
.Ltmp213:
	.loc	5 442 7 is_stmt 0               @ rt-thread/components/net/lwip-2.0.2/src/core/ipv4/etharp.c:442:7
	cmp.w	r0, #-1
	bgt	.LBB8_13
	b	.LBB8_12
.LBB8_12:
.Ltmp214:
	.loc	5 443 19 is_stmt 1              @ rt-thread/components/net/lwip-2.0.2/src/core/ipv4/etharp.c:443:19
	ldrb.w	r0, [sp, #14]
	.loc	5 443 5 is_stmt 0               @ rt-thread/components/net/lwip-2.0.2/src/core/ipv4/etharp.c:443:5
	strb.w	r0, [sp, #31]
	b	.LBB8_17
.Ltmp215:
.LBB8_13:
	.loc	5 457 15 is_stmt 1              @ rt-thread/components/net/lwip-2.0.2/src/core/ipv4/etharp.c:457:15
	ldrsb.w	r0, [sp, #14]
	.loc	5 457 5 is_stmt 0               @ rt-thread/components/net/lwip-2.0.2/src/core/ipv4/etharp.c:457:5
	add.w	r1, r0, r0, lsl #1
	movw	r0, :lower16:arp_table
	movt	r0, :upper16:arp_table
	add.w	r2, r0, r1, lsl #3
	movs	r1, #2
	.loc	5 457 24                        @ rt-thread/components/net/lwip-2.0.2/src/core/ipv4/etharp.c:457:24
	strb	r1, [r2, #20]
.Ltmp216:
	.loc	5 461 24 is_stmt 1              @ rt-thread/components/net/lwip-2.0.2/src/core/ipv4/etharp.c:461:24
	ldr	r1, [sp, #24]
	.loc	5 461 13 is_stmt 0              @ rt-thread/components/net/lwip-2.0.2/src/core/ipv4/etharp.c:461:13
	ldrsb.w	r2, [sp, #14]
	.loc	5 461 3                         @ rt-thread/components/net/lwip-2.0.2/src/core/ipv4/etharp.c:461:3
	add.w	r2, r2, r2, lsl #1
	add.w	r2, r0, r2, lsl #3
	.loc	5 461 22                        @ rt-thread/components/net/lwip-2.0.2/src/core/ipv4/etharp.c:461:22
	str	r1, [r2, #8]
	.loc	5 467 3 is_stmt 1               @ rt-thread/components/net/lwip-2.0.2/src/core/ipv4/etharp.c:467:3
	ldrsb.w	r1, [sp, #14]
	add.w	r1, r1, r1, lsl #1
	add.w	r2, r0, r1, lsl #3
	ldr	r1, [sp, #16]
	ldrh	r3, [r1, #4]
	strh	r3, [r2, #16]
	ldr	r1, [r1]
	str	r1, [r2, #12]
	.loc	5 469 13                        @ rt-thread/components/net/lwip-2.0.2/src/core/ipv4/etharp.c:469:13
	ldrsb.w	r1, [sp, #14]
	.loc	5 469 3 is_stmt 0               @ rt-thread/components/net/lwip-2.0.2/src/core/ipv4/etharp.c:469:3
	add.w	r1, r1, r1, lsl #1
	add.w	r1, r0, r1, lsl #3
	movs	r0, #0
	.loc	5 469 22                        @ rt-thread/components/net/lwip-2.0.2/src/core/ipv4/etharp.c:469:22
	strh	r0, [r1, #18]
	.loc	5 472 3 is_stmt 1               @ rt-thread/components/net/lwip-2.0.2/src/core/ipv4/etharp.c:472:3
	b	.LBB8_14
.LBB8_14:                               @ =>This Inner Loop Header: Depth=1
	.loc	5 472 20 is_stmt 0              @ rt-thread/components/net/lwip-2.0.2/src/core/ipv4/etharp.c:472:20
	ldrsb.w	r0, [sp, #14]
	.loc	5 472 10                        @ rt-thread/components/net/lwip-2.0.2/src/core/ipv4/etharp.c:472:10
	add.w	r1, r0, r0, lsl #1
	movw	r0, :lower16:arp_table
	movt	r0, :upper16:arp_table
	.loc	5 472 23                        @ rt-thread/components/net/lwip-2.0.2/src/core/ipv4/etharp.c:472:23
	ldr.w	r0, [r0, r1, lsl #3]
	.loc	5 472 3                         @ rt-thread/components/net/lwip-2.0.2/src/core/ipv4/etharp.c:472:3
	cbz	r0, .LBB8_16
	b	.LBB8_15
.LBB8_15:                               @   in Loop: Header=BB8_14 Depth=1
.Ltmp217:
	.loc	5 475 42 is_stmt 1              @ rt-thread/components/net/lwip-2.0.2/src/core/ipv4/etharp.c:475:42
	ldrsb.w	r0, [sp, #14]
	.loc	5 475 32 is_stmt 0              @ rt-thread/components/net/lwip-2.0.2/src/core/ipv4/etharp.c:475:32
	add.w	r0, r0, r0, lsl #1
	movw	r1, :lower16:arp_table
	movt	r1, :upper16:arp_table
	.loc	5 475 45                        @ rt-thread/components/net/lwip-2.0.2/src/core/ipv4/etharp.c:475:45
	ldr.w	r0, [r1, r0, lsl #3]
	.loc	5 475 28                        @ rt-thread/components/net/lwip-2.0.2/src/core/ipv4/etharp.c:475:28
	str	r0, [sp, #4]
	.loc	5 477 22 is_stmt 1              @ rt-thread/components/net/lwip-2.0.2/src/core/ipv4/etharp.c:477:22
	ldr	r0, [sp, #4]
	.loc	5 477 25 is_stmt 0              @ rt-thread/components/net/lwip-2.0.2/src/core/ipv4/etharp.c:477:25
	ldr	r0, [r0]
	.loc	5 477 15                        @ rt-thread/components/net/lwip-2.0.2/src/core/ipv4/etharp.c:477:15
	ldrsb.w	r2, [sp, #14]
	.loc	5 477 5                         @ rt-thread/components/net/lwip-2.0.2/src/core/ipv4/etharp.c:477:5
	add.w	r2, r2, r2, lsl #1
	.loc	5 477 20                        @ rt-thread/components/net/lwip-2.0.2/src/core/ipv4/etharp.c:477:20
	str.w	r0, [r1, r2, lsl #3]
	.loc	5 479 9 is_stmt 1               @ rt-thread/components/net/lwip-2.0.2/src/core/ipv4/etharp.c:479:9
	ldr	r0, [sp, #4]
	.loc	5 479 12 is_stmt 0              @ rt-thread/components/net/lwip-2.0.2/src/core/ipv4/etharp.c:479:12
	ldr	r0, [r0, #4]
	.loc	5 479 7                         @ rt-thread/components/net/lwip-2.0.2/src/core/ipv4/etharp.c:479:7
	str	r0, [sp, #8]
	.loc	5 481 31 is_stmt 1              @ rt-thread/components/net/lwip-2.0.2/src/core/ipv4/etharp.c:481:31
	ldr	r1, [sp, #4]
	movs	r0, #9
	.loc	5 481 5 is_stmt 0               @ rt-thread/components/net/lwip-2.0.2/src/core/ipv4/etharp.c:481:5
	bl	memp_free
	.loc	5 488 21 is_stmt 1              @ rt-thread/components/net/lwip-2.0.2/src/core/ipv4/etharp.c:488:21
	ldr	r0, [sp, #24]
	.loc	5 488 28 is_stmt 0              @ rt-thread/components/net/lwip-2.0.2/src/core/ipv4/etharp.c:488:28
	ldr	r1, [sp, #8]
	.loc	5 488 57                        @ rt-thread/components/net/lwip-2.0.2/src/core/ipv4/etharp.c:488:57
	add.w	r2, r0, #59
	.loc	5 488 66                        @ rt-thread/components/net/lwip-2.0.2/src/core/ipv4/etharp.c:488:66
	ldr	r3, [sp, #16]
	.loc	5 488 5                         @ rt-thread/components/net/lwip-2.0.2/src/core/ipv4/etharp.c:488:5
	mov	lr, sp
	mov.w	r12, #2048
	str.w	r12, [lr]
	bl	ethernet_output
	.loc	5 490 15 is_stmt 1              @ rt-thread/components/net/lwip-2.0.2/src/core/ipv4/etharp.c:490:15
	ldr	r0, [sp, #8]
	.loc	5 490 5 is_stmt 0               @ rt-thread/components/net/lwip-2.0.2/src/core/ipv4/etharp.c:490:5
	bl	pbuf_free
.Ltmp218:
	.loc	5 472 3 is_stmt 1               @ rt-thread/components/net/lwip-2.0.2/src/core/ipv4/etharp.c:472:3
	b	.LBB8_14
.LBB8_16:
	.loc	5 0 3 is_stmt 0                 @ rt-thread/components/net/lwip-2.0.2/src/core/ipv4/etharp.c:0:3
	movs	r0, #0
	.loc	5 492 3 is_stmt 1               @ rt-thread/components/net/lwip-2.0.2/src/core/ipv4/etharp.c:492:3
	strb.w	r0, [sp, #31]
	b	.LBB8_17
.LBB8_17:
	.loc	5 493 1                         @ rt-thread/components/net/lwip-2.0.2/src/core/ipv4/etharp.c:493:1
	ldrsb.w	r0, [sp, #31]
	add	sp, #32
	pop	{r7, pc}
.Ltmp219:
.Lfunc_end8:
	.size	etharp_update_arp_entry, .Lfunc_end8-etharp_update_arp_entry
	.cfi_endproc
	.cantunwind
	.fnend
                                        @ -- End function
	.section	.text.etharp_raw,"ax",%progbits
	.p2align	3                               @ -- Begin function etharp_raw
	.type	etharp_raw,%function
	.code	16                              @ @etharp_raw
	.thumb_func
etharp_raw:
.Lfunc_begin9:
	.loc	5 1107 0                        @ rt-thread/components/net/lwip-2.0.2/src/core/ipv4/etharp.c:1107:0
	.fnstart
	.cfi_startproc
@ %bb.0:
	.save	{r7, lr}
	push	{r7, lr}
	.cfi_def_cfa_offset 8
	.cfi_offset lr, -4
	.cfi_offset r7, -8
	.pad	#40
	sub	sp, #40
	.cfi_def_cfa_offset 48
	mov	r12, r0
	ldr	r0, [sp, #60]
	ldr.w	lr, [sp, #56]
	ldr.w	lr, [sp, #52]
	ldr.w	lr, [sp, #48]
	str.w	r12, [sp, #32]
	str	r1, [sp, #28]
	str	r2, [sp, #24]
	str	r3, [sp, #20]
	strh.w	r0, [sp, #18]
	movs	r0, #0
.Ltmp220:
	.loc	5 1109 9 prologue_end           @ rt-thread/components/net/lwip-2.0.2/src/core/ipv4/etharp.c:1109:9
	strb.w	r0, [sp, #11]
	.loc	5 1112 3                        @ rt-thread/components/net/lwip-2.0.2/src/core/ipv4/etharp.c:1112:3
	b	.LBB9_1
.LBB9_1:
.Ltmp221:
	.loc	5 1112 3 is_stmt 0              @ rt-thread/components/net/lwip-2.0.2/src/core/ipv4/etharp.c:1112:3
	ldr	r0, [sp, #32]
.Ltmp222:
	.loc	5 1112 3                        @ rt-thread/components/net/lwip-2.0.2/src/core/ipv4/etharp.c:1112:3
	cbnz	r0, .LBB9_5
	b	.LBB9_2
.LBB9_2:
.Ltmp223:
	.loc	5 1112 3                        @ rt-thread/components/net/lwip-2.0.2/src/core/ipv4/etharp.c:1112:3
	b	.LBB9_3
.LBB9_3:
.Ltmp224:
	.loc	5 1112 3                        @ rt-thread/components/net/lwip-2.0.2/src/core/ipv4/etharp.c:1112:3
	movw	r0, :lower16:.L.str.3
	movt	r0, :upper16:.L.str.3
	bl	rt_kprintf
	movw	r0, :lower16:.L.str.1
	movt	r0, :upper16:.L.str.1
	mov.w	r1, #1112
	bl	sys_arch_assert
	b	.LBB9_4
.Ltmp225:
.LBB9_4:
	.loc	5 1112 3                        @ rt-thread/components/net/lwip-2.0.2/src/core/ipv4/etharp.c:1112:3
	b	.LBB9_5
.Ltmp226:
.LBB9_5:
	.loc	5 1112 3                        @ rt-thread/components/net/lwip-2.0.2/src/core/ipv4/etharp.c:1112:3
	b	.LBB9_6
.Ltmp227:
.LBB9_6:
	.loc	5 0 3                           @ rt-thread/components/net/lwip-2.0.2/src/core/ipv4/etharp.c:0:3
	movs	r0, #2
	movs	r1, #28
	movs	r2, #0
	.loc	5 1115 7 is_stmt 1              @ rt-thread/components/net/lwip-2.0.2/src/core/ipv4/etharp.c:1115:7
	bl	pbuf_alloc
	.loc	5 1115 5 is_stmt 0              @ rt-thread/components/net/lwip-2.0.2/src/core/ipv4/etharp.c:1115:5
	str	r0, [sp, #12]
.Ltmp228:
	.loc	5 1117 7 is_stmt 1              @ rt-thread/components/net/lwip-2.0.2/src/core/ipv4/etharp.c:1117:7
	ldr	r0, [sp, #12]
.Ltmp229:
	.loc	5 1117 7 is_stmt 0              @ rt-thread/components/net/lwip-2.0.2/src/core/ipv4/etharp.c:1117:7
	cbnz	r0, .LBB9_8
	b	.LBB9_7
.LBB9_7:
	.loc	5 0 7                           @ rt-thread/components/net/lwip-2.0.2/src/core/ipv4/etharp.c:0:7
	movs	r0, #255
.Ltmp230:
	.loc	5 1121 5 is_stmt 1              @ rt-thread/components/net/lwip-2.0.2/src/core/ipv4/etharp.c:1121:5
	strb.w	r0, [sp, #39]
	b	.LBB9_21
.Ltmp231:
.LBB9_8:
	.loc	5 1123 3                        @ rt-thread/components/net/lwip-2.0.2/src/core/ipv4/etharp.c:1123:3
	b	.LBB9_9
.LBB9_9:
.Ltmp232:
	.loc	5 1123 3 is_stmt 0              @ rt-thread/components/net/lwip-2.0.2/src/core/ipv4/etharp.c:1123:3
	ldr	r0, [sp, #12]
	ldrh	r0, [r0, #10]
.Ltmp233:
	.loc	5 1123 3                        @ rt-thread/components/net/lwip-2.0.2/src/core/ipv4/etharp.c:1123:3
	cmp	r0, #27
	bgt	.LBB9_13
	b	.LBB9_10
.LBB9_10:
.Ltmp234:
	.loc	5 1123 3                        @ rt-thread/components/net/lwip-2.0.2/src/core/ipv4/etharp.c:1123:3
	b	.LBB9_11
.LBB9_11:
.Ltmp235:
	.loc	5 1123 3                        @ rt-thread/components/net/lwip-2.0.2/src/core/ipv4/etharp.c:1123:3
	movw	r0, :lower16:.L.str.16
	movt	r0, :upper16:.L.str.16
	bl	rt_kprintf
	movw	r0, :lower16:.L.str.1
	movt	r0, :upper16:.L.str.1
	movw	r1, #1124
	bl	sys_arch_assert
	b	.LBB9_12
.Ltmp236:
.LBB9_12:
	.loc	5 1123 3                        @ rt-thread/components/net/lwip-2.0.2/src/core/ipv4/etharp.c:1123:3
	b	.LBB9_13
.Ltmp237:
.LBB9_13:
	.loc	5 1123 3                        @ rt-thread/components/net/lwip-2.0.2/src/core/ipv4/etharp.c:1123:3
	b	.LBB9_14
.Ltmp238:
.LBB9_14:
	.loc	5 1126 30 is_stmt 1             @ rt-thread/components/net/lwip-2.0.2/src/core/ipv4/etharp.c:1126:30
	ldr	r0, [sp, #12]
	.loc	5 1126 33 is_stmt 0             @ rt-thread/components/net/lwip-2.0.2/src/core/ipv4/etharp.c:1126:33
	ldr	r0, [r0, #4]
	.loc	5 1126 7                        @ rt-thread/components/net/lwip-2.0.2/src/core/ipv4/etharp.c:1126:7
	str	r0, [sp, #4]
	.loc	5 1128 28 is_stmt 1             @ rt-thread/components/net/lwip-2.0.2/src/core/ipv4/etharp.c:1128:28
	ldrh.w	r0, [sp, #18]
	.loc	5 1128 17 is_stmt 0             @ rt-thread/components/net/lwip-2.0.2/src/core/ipv4/etharp.c:1128:17
	bl	lwip_htons
	.loc	5 1128 3                        @ rt-thread/components/net/lwip-2.0.2/src/core/ipv4/etharp.c:1128:3
	ldr	r1, [sp, #4]
	.loc	5 1128 15                       @ rt-thread/components/net/lwip-2.0.2/src/core/ipv4/etharp.c:1128:15
	strh	r0, [r1, #6]
	.loc	5 1130 3 is_stmt 1              @ rt-thread/components/net/lwip-2.0.2/src/core/ipv4/etharp.c:1130:3
	b	.LBB9_15
.LBB9_15:
.Ltmp239:
	.loc	5 1130 3 is_stmt 0              @ rt-thread/components/net/lwip-2.0.2/src/core/ipv4/etharp.c:1130:3
	ldr	r0, [sp, #32]
	ldrb.w	r0, [r0, #58]
.Ltmp240:
	.loc	5 1130 3                        @ rt-thread/components/net/lwip-2.0.2/src/core/ipv4/etharp.c:1130:3
	cmp	r0, #6
	beq	.LBB9_19
	b	.LBB9_16
.LBB9_16:
.Ltmp241:
	.loc	5 1130 3                        @ rt-thread/components/net/lwip-2.0.2/src/core/ipv4/etharp.c:1130:3
	b	.LBB9_17
.LBB9_17:
.Ltmp242:
	.loc	5 1130 3                        @ rt-thread/components/net/lwip-2.0.2/src/core/ipv4/etharp.c:1130:3
	movw	r0, :lower16:.L.str.17
	movt	r0, :upper16:.L.str.17
	bl	rt_kprintf
	movw	r0, :lower16:.L.str.1
	movt	r0, :upper16:.L.str.1
	movw	r1, #1131
	bl	sys_arch_assert
	b	.LBB9_18
.Ltmp243:
.LBB9_18:
	.loc	5 1130 3                        @ rt-thread/components/net/lwip-2.0.2/src/core/ipv4/etharp.c:1130:3
	b	.LBB9_19
.Ltmp244:
.LBB9_19:
	.loc	5 1130 3                        @ rt-thread/components/net/lwip-2.0.2/src/core/ipv4/etharp.c:1130:3
	b	.LBB9_20
.Ltmp245:
.LBB9_20:
	.loc	5 1134 3 is_stmt 1              @ rt-thread/components/net/lwip-2.0.2/src/core/ipv4/etharp.c:1134:3
	ldr	r1, [sp, #4]
	ldr	r0, [sp, #20]
	ldrh	r2, [r0, #4]
	strh	r2, [r1, #12]
	ldr	r0, [r0]
	str	r0, [r1, #8]
	.loc	5 1135 3                        @ rt-thread/components/net/lwip-2.0.2/src/core/ipv4/etharp.c:1135:3
	ldr	r1, [sp, #4]
	ldr	r0, [sp, #52]
	ldrh	r2, [r0, #4]
	strh	r2, [r1, #22]
	ldr	r0, [r0]
	str.w	r0, [r1, #18]
	.loc	5 1138 3                        @ rt-thread/components/net/lwip-2.0.2/src/core/ipv4/etharp.c:1138:3
	ldr	r1, [sp, #4]
	ldr	r0, [sp, #48]
	ldr	r0, [r0]
	str.w	r0, [r1, #14]
	.loc	5 1139 3                        @ rt-thread/components/net/lwip-2.0.2/src/core/ipv4/etharp.c:1139:3
	ldr	r1, [sp, #4]
	ldr	r0, [sp, #56]
	ldr	r0, [r0]
	str	r0, [r1, #24]
	.loc	5 1141 3                        @ rt-thread/components/net/lwip-2.0.2/src/core/ipv4/etharp.c:1141:3
	ldr	r1, [sp, #4]
	mov.w	r0, #256
	.loc	5 1141 15 is_stmt 0             @ rt-thread/components/net/lwip-2.0.2/src/core/ipv4/etharp.c:1141:15
	strh	r0, [r1]
	.loc	5 1142 3 is_stmt 1              @ rt-thread/components/net/lwip-2.0.2/src/core/ipv4/etharp.c:1142:3
	ldr	r1, [sp, #4]
	movs	r0, #8
	.loc	5 1142 14 is_stmt 0             @ rt-thread/components/net/lwip-2.0.2/src/core/ipv4/etharp.c:1142:14
	strh	r0, [r1, #2]
	.loc	5 1144 3 is_stmt 1              @ rt-thread/components/net/lwip-2.0.2/src/core/ipv4/etharp.c:1144:3
	ldr	r1, [sp, #4]
	movs	r0, #6
	.loc	5 1144 14 is_stmt 0             @ rt-thread/components/net/lwip-2.0.2/src/core/ipv4/etharp.c:1144:14
	strb	r0, [r1, #4]
	.loc	5 1145 3 is_stmt 1              @ rt-thread/components/net/lwip-2.0.2/src/core/ipv4/etharp.c:1145:3
	ldr	r1, [sp, #4]
	movs	r0, #4
	.loc	5 1145 17 is_stmt 0             @ rt-thread/components/net/lwip-2.0.2/src/core/ipv4/etharp.c:1145:17
	strb	r0, [r1, #5]
.Ltmp246:
	.loc	5 1157 21 is_stmt 1             @ rt-thread/components/net/lwip-2.0.2/src/core/ipv4/etharp.c:1157:21
	ldr	r0, [sp, #32]
	.loc	5 1157 28 is_stmt 0             @ rt-thread/components/net/lwip-2.0.2/src/core/ipv4/etharp.c:1157:28
	ldr	r1, [sp, #12]
	.loc	5 1157 31                       @ rt-thread/components/net/lwip-2.0.2/src/core/ipv4/etharp.c:1157:31
	ldr	r2, [sp, #28]
	.loc	5 1157 44                       @ rt-thread/components/net/lwip-2.0.2/src/core/ipv4/etharp.c:1157:44
	ldr	r3, [sp, #24]
	.loc	5 1157 5                        @ rt-thread/components/net/lwip-2.0.2/src/core/ipv4/etharp.c:1157:5
	mov	lr, sp
	movw	r12, #2054
	str.w	r12, [lr]
	bl	ethernet_output
.Ltmp247:
	.loc	5 1162 13 is_stmt 1             @ rt-thread/components/net/lwip-2.0.2/src/core/ipv4/etharp.c:1162:13
	ldr	r0, [sp, #12]
	.loc	5 1162 3 is_stmt 0              @ rt-thread/components/net/lwip-2.0.2/src/core/ipv4/etharp.c:1162:3
	bl	pbuf_free
	movs	r0, #0
	.loc	5 1163 5 is_stmt 1              @ rt-thread/components/net/lwip-2.0.2/src/core/ipv4/etharp.c:1163:5
	str	r0, [sp, #12]
	.loc	5 1166 10                       @ rt-thread/components/net/lwip-2.0.2/src/core/ipv4/etharp.c:1166:10
	ldrb.w	r0, [sp, #11]
	.loc	5 1166 3 is_stmt 0              @ rt-thread/components/net/lwip-2.0.2/src/core/ipv4/etharp.c:1166:3
	strb.w	r0, [sp, #39]
	b	.LBB9_21
.LBB9_21:
	.loc	5 1167 1 is_stmt 1              @ rt-thread/components/net/lwip-2.0.2/src/core/ipv4/etharp.c:1167:1
	ldrsb.w	r0, [sp, #39]
	add	sp, #40
	pop	{r7, pc}
.Ltmp248:
.Lfunc_end9:
	.size	etharp_raw, .Lfunc_end9-etharp_raw
	.cfi_endproc
	.cantunwind
	.fnend
                                        @ -- End function
	.section	.text.etharp_output,"ax",%progbits
	.hidden	etharp_output                   @ -- Begin function etharp_output
	.globl	etharp_output
	.p2align	3
	.type	etharp_output,%function
	.code	16                              @ @etharp_output
	.thumb_func
etharp_output:
.Lfunc_begin10:
	.loc	5 790 0                         @ rt-thread/components/net/lwip-2.0.2/src/core/ipv4/etharp.c:790:0
	.fnstart
	.cfi_startproc
@ %bb.0:
	.save	{r7, lr}
	push	{r7, lr}
	.cfi_def_cfa_offset 8
	.cfi_offset lr, -4
	.cfi_offset r7, -8
	.pad	#40
	sub	sp, #40
	.cfi_def_cfa_offset 48
	str	r0, [sp, #32]
	str	r1, [sp, #28]
	str	r2, [sp, #24]
.Ltmp249:
	.loc	5 793 32 prologue_end           @ rt-thread/components/net/lwip-2.0.2/src/core/ipv4/etharp.c:793:32
	ldr	r0, [sp, #24]
	.loc	5 793 21 is_stmt 0              @ rt-thread/components/net/lwip-2.0.2/src/core/ipv4/etharp.c:793:21
	str	r0, [sp, #8]
	.loc	5 795 3 is_stmt 1               @ rt-thread/components/net/lwip-2.0.2/src/core/ipv4/etharp.c:795:3
	b	.LBB10_1
.LBB10_1:
.Ltmp250:
	.loc	5 795 3 is_stmt 0               @ rt-thread/components/net/lwip-2.0.2/src/core/ipv4/etharp.c:795:3
	ldr	r0, [sp, #32]
.Ltmp251:
	.loc	5 795 3                         @ rt-thread/components/net/lwip-2.0.2/src/core/ipv4/etharp.c:795:3
	cbnz	r0, .LBB10_5
	b	.LBB10_2
.LBB10_2:
.Ltmp252:
	.loc	5 795 3                         @ rt-thread/components/net/lwip-2.0.2/src/core/ipv4/etharp.c:795:3
	b	.LBB10_3
.LBB10_3:
.Ltmp253:
	.loc	5 795 3                         @ rt-thread/components/net/lwip-2.0.2/src/core/ipv4/etharp.c:795:3
	movw	r0, :lower16:.L.str.3
	movt	r0, :upper16:.L.str.3
	bl	rt_kprintf
	movw	r0, :lower16:.L.str.1
	movt	r0, :upper16:.L.str.1
	movw	r1, #795
	bl	sys_arch_assert
	b	.LBB10_4
.Ltmp254:
.LBB10_4:
	.loc	5 795 3                         @ rt-thread/components/net/lwip-2.0.2/src/core/ipv4/etharp.c:795:3
	b	.LBB10_5
.Ltmp255:
.LBB10_5:
	.loc	5 795 3                         @ rt-thread/components/net/lwip-2.0.2/src/core/ipv4/etharp.c:795:3
	b	.LBB10_6
.Ltmp256:
.LBB10_6:
	.loc	5 796 3 is_stmt 1               @ rt-thread/components/net/lwip-2.0.2/src/core/ipv4/etharp.c:796:3
	b	.LBB10_7
.LBB10_7:
.Ltmp257:
	.loc	5 796 3 is_stmt 0               @ rt-thread/components/net/lwip-2.0.2/src/core/ipv4/etharp.c:796:3
	ldr	r0, [sp, #28]
.Ltmp258:
	.loc	5 796 3                         @ rt-thread/components/net/lwip-2.0.2/src/core/ipv4/etharp.c:796:3
	cbnz	r0, .LBB10_11
	b	.LBB10_8
.LBB10_8:
.Ltmp259:
	.loc	5 796 3                         @ rt-thread/components/net/lwip-2.0.2/src/core/ipv4/etharp.c:796:3
	b	.LBB10_9
.LBB10_9:
.Ltmp260:
	.loc	5 796 3                         @ rt-thread/components/net/lwip-2.0.2/src/core/ipv4/etharp.c:796:3
	movw	r0, :lower16:.L.str.5
	movt	r0, :upper16:.L.str.5
	bl	rt_kprintf
	movw	r0, :lower16:.L.str.1
	movt	r0, :upper16:.L.str.1
	mov.w	r1, #796
	bl	sys_arch_assert
	b	.LBB10_10
.Ltmp261:
.LBB10_10:
	.loc	5 796 3                         @ rt-thread/components/net/lwip-2.0.2/src/core/ipv4/etharp.c:796:3
	b	.LBB10_11
.Ltmp262:
.LBB10_11:
	.loc	5 796 3                         @ rt-thread/components/net/lwip-2.0.2/src/core/ipv4/etharp.c:796:3
	b	.LBB10_12
.Ltmp263:
.LBB10_12:
	.loc	5 797 3 is_stmt 1               @ rt-thread/components/net/lwip-2.0.2/src/core/ipv4/etharp.c:797:3
	b	.LBB10_13
.LBB10_13:
.Ltmp264:
	.loc	5 797 3 is_stmt 0               @ rt-thread/components/net/lwip-2.0.2/src/core/ipv4/etharp.c:797:3
	ldr	r0, [sp, #24]
.Ltmp265:
	.loc	5 797 3                         @ rt-thread/components/net/lwip-2.0.2/src/core/ipv4/etharp.c:797:3
	cbnz	r0, .LBB10_17
	b	.LBB10_14
.LBB10_14:
.Ltmp266:
	.loc	5 797 3                         @ rt-thread/components/net/lwip-2.0.2/src/core/ipv4/etharp.c:797:3
	b	.LBB10_15
.LBB10_15:
.Ltmp267:
	.loc	5 797 3                         @ rt-thread/components/net/lwip-2.0.2/src/core/ipv4/etharp.c:797:3
	movw	r0, :lower16:.L.str.2
	movt	r0, :upper16:.L.str.2
	bl	rt_kprintf
	movw	r0, :lower16:.L.str.1
	movt	r0, :upper16:.L.str.1
	movw	r1, #797
	bl	sys_arch_assert
	b	.LBB10_16
.Ltmp268:
.LBB10_16:
	.loc	5 797 3                         @ rt-thread/components/net/lwip-2.0.2/src/core/ipv4/etharp.c:797:3
	b	.LBB10_17
.Ltmp269:
.LBB10_17:
	.loc	5 797 3                         @ rt-thread/components/net/lwip-2.0.2/src/core/ipv4/etharp.c:797:3
	b	.LBB10_18
.Ltmp270:
.LBB10_18:
	.loc	5 803 7 is_stmt 1               @ rt-thread/components/net/lwip-2.0.2/src/core/ipv4/etharp.c:803:7
	ldr	r0, [sp, #24]
	ldr	r0, [r0]
	ldr	r1, [sp, #32]
	bl	ip4_addr_isbroadcast_u32
.Ltmp271:
	.loc	5 803 7 is_stmt 0               @ rt-thread/components/net/lwip-2.0.2/src/core/ipv4/etharp.c:803:7
	cbz	r0, .LBB10_20
	b	.LBB10_19
.LBB10_19:
.Ltmp272:
	.loc	5 805 10 is_stmt 1              @ rt-thread/components/net/lwip-2.0.2/src/core/ipv4/etharp.c:805:10
	movw	r0, :lower16:ethbroadcast
	movt	r0, :upper16:ethbroadcast
	str	r0, [sp, #20]
	.loc	5 807 3                         @ rt-thread/components/net/lwip-2.0.2/src/core/ipv4/etharp.c:807:3
	b	.LBB10_40
.Ltmp273:
.LBB10_20:
	.loc	5 807 14 is_stmt 0              @ rt-thread/components/net/lwip-2.0.2/src/core/ipv4/etharp.c:807:14
	ldr	r0, [sp, #24]
	ldr	r0, [r0]
	and	r0, r0, #240
.Ltmp274:
	.loc	5 807 14                        @ rt-thread/components/net/lwip-2.0.2/src/core/ipv4/etharp.c:807:14
	cmp	r0, #224
	bne	.LBB10_22
	b	.LBB10_21
.LBB10_21:
	.loc	5 0 14                          @ rt-thread/components/net/lwip-2.0.2/src/core/ipv4/etharp.c:0:14
	movs	r0, #1
.Ltmp275:
	.loc	5 809 23 is_stmt 1              @ rt-thread/components/net/lwip-2.0.2/src/core/ipv4/etharp.c:809:23
	strb.w	r0, [sp, #12]
	movs	r0, #0
	.loc	5 810 23                        @ rt-thread/components/net/lwip-2.0.2/src/core/ipv4/etharp.c:810:23
	strb.w	r0, [sp, #13]
	movs	r0, #94
	.loc	5 811 23                        @ rt-thread/components/net/lwip-2.0.2/src/core/ipv4/etharp.c:811:23
	strb.w	r0, [sp, #14]
	.loc	5 812 25                        @ rt-thread/components/net/lwip-2.0.2/src/core/ipv4/etharp.c:812:25
	ldr	r0, [sp, #24]
	ldrb	r0, [r0, #1]
	.loc	5 812 43 is_stmt 0              @ rt-thread/components/net/lwip-2.0.2/src/core/ipv4/etharp.c:812:43
	and	r0, r0, #127
	.loc	5 812 23                        @ rt-thread/components/net/lwip-2.0.2/src/core/ipv4/etharp.c:812:23
	strb.w	r0, [sp, #15]
	.loc	5 813 25 is_stmt 1              @ rt-thread/components/net/lwip-2.0.2/src/core/ipv4/etharp.c:813:25
	ldr	r0, [sp, #24]
	ldrb	r0, [r0, #2]
	.loc	5 813 23 is_stmt 0              @ rt-thread/components/net/lwip-2.0.2/src/core/ipv4/etharp.c:813:23
	strb.w	r0, [sp, #16]
	.loc	5 814 25 is_stmt 1              @ rt-thread/components/net/lwip-2.0.2/src/core/ipv4/etharp.c:814:25
	ldr	r0, [sp, #24]
	ldrb	r0, [r0, #3]
	.loc	5 814 23 is_stmt 0              @ rt-thread/components/net/lwip-2.0.2/src/core/ipv4/etharp.c:814:23
	strb.w	r0, [sp, #17]
	add	r0, sp, #12
	.loc	5 816 10 is_stmt 1              @ rt-thread/components/net/lwip-2.0.2/src/core/ipv4/etharp.c:816:10
	str	r0, [sp, #20]
	.loc	5 818 3                         @ rt-thread/components/net/lwip-2.0.2/src/core/ipv4/etharp.c:818:3
	b	.LBB10_39
.Ltmp276:
.LBB10_22:
	.loc	5 822 10                        @ rt-thread/components/net/lwip-2.0.2/src/core/ipv4/etharp.c:822:10
	ldr	r0, [sp, #24]
	ldr	r0, [r0]
	ldr	r2, [sp, #32]
	ldr	r1, [r2, #4]
	ldr	r2, [r2, #8]
	ands	r0, r2
	ands	r1, r2
	.loc	5 822 83 is_stmt 0              @ rt-thread/components/net/lwip-2.0.2/src/core/ipv4/etharp.c:822:83
	cmp	r0, r1
	beq	.LBB10_28
	b	.LBB10_23
.LBB10_23:
	.loc	5 823 10 is_stmt 1              @ rt-thread/components/net/lwip-2.0.2/src/core/ipv4/etharp.c:823:10
	ldr	r0, [sp, #24]
	ldrh	r0, [r0]
	movw	r1, #65193
.Ltmp277:
	.loc	5 822 9                         @ rt-thread/components/net/lwip-2.0.2/src/core/ipv4/etharp.c:822:9
	cmp	r0, r1
	beq	.LBB10_28
	b	.LBB10_24
.LBB10_24:
.Ltmp278:
	.loc	5 841 16                        @ rt-thread/components/net/lwip-2.0.2/src/core/ipv4/etharp.c:841:16
	ldr	r0, [sp, #32]
	ldr	r0, [r0, #12]
.Ltmp279:
	.loc	5 841 15 is_stmt 0              @ rt-thread/components/net/lwip-2.0.2/src/core/ipv4/etharp.c:841:15
	cbz	r0, .LBB10_26
	b	.LBB10_25
.LBB10_25:
.Ltmp280:
	.loc	5 843 24 is_stmt 1              @ rt-thread/components/net/lwip-2.0.2/src/core/ipv4/etharp.c:843:24
	ldr	r0, [sp, #32]
	adds	r0, #12
	.loc	5 843 22 is_stmt 0              @ rt-thread/components/net/lwip-2.0.2/src/core/ipv4/etharp.c:843:22
	str	r0, [sp, #8]
	.loc	5 845 11 is_stmt 1              @ rt-thread/components/net/lwip-2.0.2/src/core/ipv4/etharp.c:845:11
	b	.LBB10_27
.Ltmp281:
.LBB10_26:
	.loc	5 0 11 is_stmt 0                @ rt-thread/components/net/lwip-2.0.2/src/core/ipv4/etharp.c:0:11
	movs	r0, #252
.Ltmp282:
	.loc	5 847 13 is_stmt 1              @ rt-thread/components/net/lwip-2.0.2/src/core/ipv4/etharp.c:847:13
	strb.w	r0, [sp, #39]
	b	.LBB10_41
.Ltmp283:
.LBB10_27:
	.loc	5 851 5                         @ rt-thread/components/net/lwip-2.0.2/src/core/ipv4/etharp.c:851:5
	b	.LBB10_28
.Ltmp284:
.LBB10_28:
	.loc	5 858 24                        @ rt-thread/components/net/lwip-2.0.2/src/core/ipv4/etharp.c:858:24
	movw	r0, :lower16:etharp_cached_entry
	movt	r0, :upper16:etharp_cached_entry
	ldrb	r0, [r0]
	.loc	5 858 14 is_stmt 0              @ rt-thread/components/net/lwip-2.0.2/src/core/ipv4/etharp.c:858:14
	add.w	r1, r0, r0, lsl #1
	movw	r0, :lower16:arp_table
	movt	r0, :upper16:arp_table
	add.w	r0, r0, r1, lsl #3
	.loc	5 858 45                        @ rt-thread/components/net/lwip-2.0.2/src/core/ipv4/etharp.c:858:45
	ldrb	r0, [r0, #20]
	.loc	5 858 75                        @ rt-thread/components/net/lwip-2.0.2/src/core/ipv4/etharp.c:858:75
	cmp	r0, #2
	blt	.LBB10_31
	b	.LBB10_29
.LBB10_29:
	.loc	5 862 14 is_stmt 1              @ rt-thread/components/net/lwip-2.0.2/src/core/ipv4/etharp.c:862:14
	ldr	r0, [sp, #8]
	ldr	r0, [r0]
	movw	r1, :lower16:etharp_cached_entry
	movt	r1, :upper16:etharp_cached_entry
	ldrb	r1, [r1]
	add.w	r2, r1, r1, lsl #1
	movw	r1, :lower16:arp_table
	movt	r1, :upper16:arp_table
	add.w	r1, r1, r2, lsl #3
	ldr	r1, [r1, #4]
.Ltmp285:
	.loc	5 858 13                        @ rt-thread/components/net/lwip-2.0.2/src/core/ipv4/etharp.c:858:13
	cmp	r0, r1
	bne	.LBB10_31
	b	.LBB10_30
.LBB10_30:
.Ltmp286:
	.loc	5 865 45                        @ rt-thread/components/net/lwip-2.0.2/src/core/ipv4/etharp.c:865:45
	ldr	r0, [sp, #32]
	.loc	5 865 52 is_stmt 0              @ rt-thread/components/net/lwip-2.0.2/src/core/ipv4/etharp.c:865:52
	ldr	r1, [sp, #28]
	.loc	5 865 55                        @ rt-thread/components/net/lwip-2.0.2/src/core/ipv4/etharp.c:865:55
	movw	r2, :lower16:etharp_cached_entry
	movt	r2, :upper16:etharp_cached_entry
	ldrb	r2, [r2]
	.loc	5 865 18                        @ rt-thread/components/net/lwip-2.0.2/src/core/ipv4/etharp.c:865:18
	bl	etharp_output_to_arp_index
	.loc	5 865 11                        @ rt-thread/components/net/lwip-2.0.2/src/core/ipv4/etharp.c:865:11
	strb.w	r0, [sp, #39]
	b	.LBB10_41
.Ltmp287:
.LBB10_31:
	.loc	5 0 11                          @ rt-thread/components/net/lwip-2.0.2/src/core/ipv4/etharp.c:0:11
	movs	r0, #0
.Ltmp288:
	.loc	5 874 12 is_stmt 1              @ rt-thread/components/net/lwip-2.0.2/src/core/ipv4/etharp.c:874:12
	strb.w	r0, [sp, #7]
	.loc	5 874 10 is_stmt 0              @ rt-thread/components/net/lwip-2.0.2/src/core/ipv4/etharp.c:874:10
	b	.LBB10_32
.LBB10_32:                              @ =>This Inner Loop Header: Depth=1
.Ltmp289:
	.loc	5 874 17                        @ rt-thread/components/net/lwip-2.0.2/src/core/ipv4/etharp.c:874:17
	ldrsb.w	r0, [sp, #7]
.Ltmp290:
	.loc	5 874 5                         @ rt-thread/components/net/lwip-2.0.2/src/core/ipv4/etharp.c:874:5
	cmp	r0, #9
	bgt	.LBB10_38
	b	.LBB10_33
.LBB10_33:                              @   in Loop: Header=BB10_32 Depth=1
.Ltmp291:
	.loc	5 875 22 is_stmt 1              @ rt-thread/components/net/lwip-2.0.2/src/core/ipv4/etharp.c:875:22
	ldrsb.w	r0, [sp, #7]
	.loc	5 875 12 is_stmt 0              @ rt-thread/components/net/lwip-2.0.2/src/core/ipv4/etharp.c:875:12
	add.w	r1, r0, r0, lsl #1
	movw	r0, :lower16:arp_table
	movt	r0, :upper16:arp_table
	add.w	r0, r0, r1, lsl #3
	.loc	5 875 25                        @ rt-thread/components/net/lwip-2.0.2/src/core/ipv4/etharp.c:875:25
	ldrb	r0, [r0, #20]
	.loc	5 875 55                        @ rt-thread/components/net/lwip-2.0.2/src/core/ipv4/etharp.c:875:55
	cmp	r0, #2
	blt	.LBB10_36
	b	.LBB10_34
.LBB10_34:                              @   in Loop: Header=BB10_32 Depth=1
	.loc	5 879 12 is_stmt 1              @ rt-thread/components/net/lwip-2.0.2/src/core/ipv4/etharp.c:879:12
	ldr	r0, [sp, #8]
	ldr	r0, [r0]
	ldrsb.w	r1, [sp, #7]
	add.w	r2, r1, r1, lsl #1
	movw	r1, :lower16:arp_table
	movt	r1, :upper16:arp_table
	add.w	r1, r1, r2, lsl #3
	ldr	r1, [r1, #4]
.Ltmp292:
	.loc	5 875 11                        @ rt-thread/components/net/lwip-2.0.2/src/core/ipv4/etharp.c:875:11
	cmp	r0, r1
	bne	.LBB10_36
	b	.LBB10_35
.LBB10_35:
.Ltmp293:
	.loc	5 881 9                         @ rt-thread/components/net/lwip-2.0.2/src/core/ipv4/etharp.c:881:9
	ldrb.w	r0, [sp, #7]
	movw	r1, :lower16:etharp_cached_entry
	movt	r1, :upper16:etharp_cached_entry
	strb	r0, [r1]
	.loc	5 882 43                        @ rt-thread/components/net/lwip-2.0.2/src/core/ipv4/etharp.c:882:43
	ldr	r0, [sp, #32]
	.loc	5 882 50 is_stmt 0              @ rt-thread/components/net/lwip-2.0.2/src/core/ipv4/etharp.c:882:50
	ldr	r1, [sp, #28]
	.loc	5 882 53                        @ rt-thread/components/net/lwip-2.0.2/src/core/ipv4/etharp.c:882:53
	ldrb.w	r2, [sp, #7]
	.loc	5 882 16                        @ rt-thread/components/net/lwip-2.0.2/src/core/ipv4/etharp.c:882:16
	bl	etharp_output_to_arp_index
	.loc	5 882 9                         @ rt-thread/components/net/lwip-2.0.2/src/core/ipv4/etharp.c:882:9
	strb.w	r0, [sp, #39]
	b	.LBB10_41
.Ltmp294:
.LBB10_36:                              @   in Loop: Header=BB10_32 Depth=1
	.loc	5 884 5 is_stmt 1               @ rt-thread/components/net/lwip-2.0.2/src/core/ipv4/etharp.c:884:5
	b	.LBB10_37
.Ltmp295:
.LBB10_37:                              @   in Loop: Header=BB10_32 Depth=1
	.loc	5 874 38                        @ rt-thread/components/net/lwip-2.0.2/src/core/ipv4/etharp.c:874:38
	ldrb.w	r0, [sp, #7]
	adds	r0, #1
	strb.w	r0, [sp, #7]
	.loc	5 874 5 is_stmt 0               @ rt-thread/components/net/lwip-2.0.2/src/core/ipv4/etharp.c:874:5
	b	.LBB10_32
.Ltmp296:
.LBB10_38:
	.loc	5 887 25 is_stmt 1              @ rt-thread/components/net/lwip-2.0.2/src/core/ipv4/etharp.c:887:25
	ldr	r0, [sp, #32]
	.loc	5 887 32 is_stmt 0              @ rt-thread/components/net/lwip-2.0.2/src/core/ipv4/etharp.c:887:32
	ldr	r1, [sp, #8]
	.loc	5 887 42                        @ rt-thread/components/net/lwip-2.0.2/src/core/ipv4/etharp.c:887:42
	ldr	r2, [sp, #28]
	.loc	5 887 12                        @ rt-thread/components/net/lwip-2.0.2/src/core/ipv4/etharp.c:887:12
	bl	etharp_query
	.loc	5 887 5                         @ rt-thread/components/net/lwip-2.0.2/src/core/ipv4/etharp.c:887:5
	strb.w	r0, [sp, #39]
	b	.LBB10_41
.Ltmp297:
.LBB10_39:
	.loc	5 0 5                           @ rt-thread/components/net/lwip-2.0.2/src/core/ipv4/etharp.c:0:5
	b	.LBB10_40
.LBB10_40:
	.loc	5 893 26 is_stmt 1              @ rt-thread/components/net/lwip-2.0.2/src/core/ipv4/etharp.c:893:26
	ldr	r0, [sp, #32]
	.loc	5 893 33 is_stmt 0              @ rt-thread/components/net/lwip-2.0.2/src/core/ipv4/etharp.c:893:33
	ldr	r1, [sp, #28]
	.loc	5 893 62                        @ rt-thread/components/net/lwip-2.0.2/src/core/ipv4/etharp.c:893:62
	add.w	r2, r0, #59
	.loc	5 893 71                        @ rt-thread/components/net/lwip-2.0.2/src/core/ipv4/etharp.c:893:71
	ldr	r3, [sp, #20]
	.loc	5 893 10                        @ rt-thread/components/net/lwip-2.0.2/src/core/ipv4/etharp.c:893:10
	mov	lr, sp
	mov.w	r12, #2048
	str.w	r12, [lr]
	bl	ethernet_output
	.loc	5 893 3                         @ rt-thread/components/net/lwip-2.0.2/src/core/ipv4/etharp.c:893:3
	strb.w	r0, [sp, #39]
	b	.LBB10_41
.LBB10_41:
	.loc	5 894 1 is_stmt 1               @ rt-thread/components/net/lwip-2.0.2/src/core/ipv4/etharp.c:894:1
	ldrsb.w	r0, [sp, #39]
	add	sp, #40
	pop	{r7, pc}
.Ltmp298:
.Lfunc_end10:
	.size	etharp_output, .Lfunc_end10-etharp_output
	.cfi_endproc
	.cantunwind
	.fnend
                                        @ -- End function
	.section	.text.etharp_output_to_arp_index,"ax",%progbits
	.p2align	3                               @ -- Begin function etharp_output_to_arp_index
	.type	etharp_output_to_arp_index,%function
	.code	16                              @ @etharp_output_to_arp_index
	.thumb_func
etharp_output_to_arp_index:
.Lfunc_begin11:
	.loc	5 747 0                         @ rt-thread/components/net/lwip-2.0.2/src/core/ipv4/etharp.c:747:0
	.fnstart
	.cfi_startproc
@ %bb.0:
	.save	{r7, lr}
	push	{r7, lr}
	.cfi_def_cfa_offset 8
	.cfi_offset lr, -4
	.cfi_offset r7, -8
	.pad	#16
	sub	sp, #16
	.cfi_def_cfa_offset 24
                                        @ kill: def $r3 killed $r2
	str	r0, [sp, #12]
	str	r1, [sp, #8]
	strb.w	r2, [sp, #7]
.Ltmp299:
	.loc	5 748 3 prologue_end            @ rt-thread/components/net/lwip-2.0.2/src/core/ipv4/etharp.c:748:3
	b	.LBB11_1
.LBB11_1:
.Ltmp300:
	.loc	5 748 3 is_stmt 0               @ rt-thread/components/net/lwip-2.0.2/src/core/ipv4/etharp.c:748:3
	ldrb.w	r0, [sp, #7]
	add.w	r1, r0, r0, lsl #1
	movw	r0, :lower16:arp_table
	movt	r0, :upper16:arp_table
	add.w	r0, r0, r1, lsl #3
	ldrb	r0, [r0, #20]
.Ltmp301:
	.loc	5 748 3                         @ rt-thread/components/net/lwip-2.0.2/src/core/ipv4/etharp.c:748:3
	cmp	r0, #1
	bgt	.LBB11_5
	b	.LBB11_2
.LBB11_2:
.Ltmp302:
	.loc	5 748 3                         @ rt-thread/components/net/lwip-2.0.2/src/core/ipv4/etharp.c:748:3
	b	.LBB11_3
.LBB11_3:
.Ltmp303:
	.loc	5 748 3                         @ rt-thread/components/net/lwip-2.0.2/src/core/ipv4/etharp.c:748:3
	movw	r0, :lower16:.L.str.15
	movt	r0, :upper16:.L.str.15
	bl	rt_kprintf
	movw	r0, :lower16:.L.str.1
	movt	r0, :upper16:.L.str.1
	movw	r1, #749
	bl	sys_arch_assert
	b	.LBB11_4
.Ltmp304:
.LBB11_4:
	.loc	5 748 3                         @ rt-thread/components/net/lwip-2.0.2/src/core/ipv4/etharp.c:748:3
	b	.LBB11_5
.Ltmp305:
.LBB11_5:
	.loc	5 748 3                         @ rt-thread/components/net/lwip-2.0.2/src/core/ipv4/etharp.c:748:3
	b	.LBB11_6
.Ltmp306:
.LBB11_6:
	.loc	5 753 17 is_stmt 1              @ rt-thread/components/net/lwip-2.0.2/src/core/ipv4/etharp.c:753:17
	ldrb.w	r0, [sp, #7]
	.loc	5 753 7 is_stmt 0               @ rt-thread/components/net/lwip-2.0.2/src/core/ipv4/etharp.c:753:7
	add.w	r1, r0, r0, lsl #1
	movw	r0, :lower16:arp_table
	movt	r0, :upper16:arp_table
	add.w	r0, r0, r1, lsl #3
	.loc	5 753 26                        @ rt-thread/components/net/lwip-2.0.2/src/core/ipv4/etharp.c:753:26
	ldrb	r0, [r0, #20]
.Ltmp307:
	.loc	5 753 7                         @ rt-thread/components/net/lwip-2.0.2/src/core/ipv4/etharp.c:753:7
	cmp	r0, #2
	bne	.LBB11_17
	b	.LBB11_7
.LBB11_7:
.Ltmp308:
	.loc	5 754 19 is_stmt 1              @ rt-thread/components/net/lwip-2.0.2/src/core/ipv4/etharp.c:754:19
	ldrb.w	r0, [sp, #7]
	.loc	5 754 9 is_stmt 0               @ rt-thread/components/net/lwip-2.0.2/src/core/ipv4/etharp.c:754:9
	add.w	r1, r0, r0, lsl #1
	movw	r0, :lower16:arp_table
	movt	r0, :upper16:arp_table
	add.w	r0, r0, r1, lsl #3
	.loc	5 754 28                        @ rt-thread/components/net/lwip-2.0.2/src/core/ipv4/etharp.c:754:28
	ldrh	r0, [r0, #18]
.Ltmp309:
	.loc	5 754 9                         @ rt-thread/components/net/lwip-2.0.2/src/core/ipv4/etharp.c:754:9
	cmp.w	r0, #284
	ble	.LBB11_11
	b	.LBB11_8
.LBB11_8:
.Ltmp310:
	.loc	5 756 26 is_stmt 1              @ rt-thread/components/net/lwip-2.0.2/src/core/ipv4/etharp.c:756:26
	ldr	r0, [sp, #12]
	.loc	5 756 44 is_stmt 0              @ rt-thread/components/net/lwip-2.0.2/src/core/ipv4/etharp.c:756:44
	ldrb.w	r1, [sp, #7]
	.loc	5 756 34                        @ rt-thread/components/net/lwip-2.0.2/src/core/ipv4/etharp.c:756:34
	add.w	r2, r1, r1, lsl #1
	movw	r1, :lower16:arp_table
	movt	r1, :upper16:arp_table
	add.w	r1, r1, r2, lsl #3
	.loc	5 756 53                        @ rt-thread/components/net/lwip-2.0.2/src/core/ipv4/etharp.c:756:53
	adds	r1, #4
	.loc	5 756 11                        @ rt-thread/components/net/lwip-2.0.2/src/core/ipv4/etharp.c:756:11
	bl	etharp_request
.Ltmp311:
	.loc	5 756 11                        @ rt-thread/components/net/lwip-2.0.2/src/core/ipv4/etharp.c:756:11
	cbnz	r0, .LBB11_10
	b	.LBB11_9
.LBB11_9:
.Ltmp312:
	.loc	5 757 19 is_stmt 1              @ rt-thread/components/net/lwip-2.0.2/src/core/ipv4/etharp.c:757:19
	ldrb.w	r0, [sp, #7]
	.loc	5 757 9 is_stmt 0               @ rt-thread/components/net/lwip-2.0.2/src/core/ipv4/etharp.c:757:9
	add.w	r1, r0, r0, lsl #1
	movw	r0, :lower16:arp_table
	movt	r0, :upper16:arp_table
	add.w	r1, r0, r1, lsl #3
	movs	r0, #3
	.loc	5 757 34                        @ rt-thread/components/net/lwip-2.0.2/src/core/ipv4/etharp.c:757:34
	strb	r0, [r1, #20]
	.loc	5 758 7 is_stmt 1               @ rt-thread/components/net/lwip-2.0.2/src/core/ipv4/etharp.c:758:7
	b	.LBB11_10
.Ltmp313:
.LBB11_10:
	.loc	5 759 5                         @ rt-thread/components/net/lwip-2.0.2/src/core/ipv4/etharp.c:759:5
	b	.LBB11_16
.Ltmp314:
.LBB11_11:
	.loc	5 759 26 is_stmt 0              @ rt-thread/components/net/lwip-2.0.2/src/core/ipv4/etharp.c:759:26
	ldrb.w	r0, [sp, #7]
	.loc	5 759 16                        @ rt-thread/components/net/lwip-2.0.2/src/core/ipv4/etharp.c:759:16
	add.w	r1, r0, r0, lsl #1
	movw	r0, :lower16:arp_table
	movt	r0, :upper16:arp_table
	add.w	r0, r0, r1, lsl #3
	.loc	5 759 35                        @ rt-thread/components/net/lwip-2.0.2/src/core/ipv4/etharp.c:759:35
	ldrh	r0, [r0, #18]
.Ltmp315:
	.loc	5 759 16                        @ rt-thread/components/net/lwip-2.0.2/src/core/ipv4/etharp.c:759:16
	cmp.w	r0, #270
	blt	.LBB11_15
	b	.LBB11_12
.LBB11_12:
.Ltmp316:
	.loc	5 761 30 is_stmt 1              @ rt-thread/components/net/lwip-2.0.2/src/core/ipv4/etharp.c:761:30
	ldr	r0, [sp, #12]
	.loc	5 761 48 is_stmt 0              @ rt-thread/components/net/lwip-2.0.2/src/core/ipv4/etharp.c:761:48
	ldrb.w	r1, [sp, #7]
	.loc	5 761 38                        @ rt-thread/components/net/lwip-2.0.2/src/core/ipv4/etharp.c:761:38
	add.w	r2, r1, r1, lsl #1
	movw	r1, :lower16:arp_table
	movt	r1, :upper16:arp_table
	add.w	r2, r1, r2, lsl #3
	.loc	5 761 57                        @ rt-thread/components/net/lwip-2.0.2/src/core/ipv4/etharp.c:761:57
	adds	r1, r2, #4
	.loc	5 761 85                        @ rt-thread/components/net/lwip-2.0.2/src/core/ipv4/etharp.c:761:85
	adds	r2, #12
	.loc	5 761 11                        @ rt-thread/components/net/lwip-2.0.2/src/core/ipv4/etharp.c:761:11
	bl	etharp_request_dst
.Ltmp317:
	.loc	5 761 11                        @ rt-thread/components/net/lwip-2.0.2/src/core/ipv4/etharp.c:761:11
	cbnz	r0, .LBB11_14
	b	.LBB11_13
.LBB11_13:
.Ltmp318:
	.loc	5 762 19 is_stmt 1              @ rt-thread/components/net/lwip-2.0.2/src/core/ipv4/etharp.c:762:19
	ldrb.w	r0, [sp, #7]
	.loc	5 762 9 is_stmt 0               @ rt-thread/components/net/lwip-2.0.2/src/core/ipv4/etharp.c:762:9
	add.w	r1, r0, r0, lsl #1
	movw	r0, :lower16:arp_table
	movt	r0, :upper16:arp_table
	add.w	r1, r0, r1, lsl #3
	movs	r0, #3
	.loc	5 762 34                        @ rt-thread/components/net/lwip-2.0.2/src/core/ipv4/etharp.c:762:34
	strb	r0, [r1, #20]
	.loc	5 763 7 is_stmt 1               @ rt-thread/components/net/lwip-2.0.2/src/core/ipv4/etharp.c:763:7
	b	.LBB11_14
.Ltmp319:
.LBB11_14:
	.loc	5 764 5                         @ rt-thread/components/net/lwip-2.0.2/src/core/ipv4/etharp.c:764:5
	b	.LBB11_15
.Ltmp320:
.LBB11_15:
	.loc	5 0 5 is_stmt 0                 @ rt-thread/components/net/lwip-2.0.2/src/core/ipv4/etharp.c:0:5
	b	.LBB11_16
.LBB11_16:
	.loc	5 765 3 is_stmt 1               @ rt-thread/components/net/lwip-2.0.2/src/core/ipv4/etharp.c:765:3
	b	.LBB11_17
.Ltmp321:
.LBB11_17:
	.loc	5 767 26                        @ rt-thread/components/net/lwip-2.0.2/src/core/ipv4/etharp.c:767:26
	ldr	r0, [sp, #12]
	.loc	5 767 33 is_stmt 0              @ rt-thread/components/net/lwip-2.0.2/src/core/ipv4/etharp.c:767:33
	ldr	r1, [sp, #8]
	.loc	5 767 62                        @ rt-thread/components/net/lwip-2.0.2/src/core/ipv4/etharp.c:767:62
	add.w	r2, r0, #59
	.loc	5 767 82                        @ rt-thread/components/net/lwip-2.0.2/src/core/ipv4/etharp.c:767:82
	ldrb.w	r3, [sp, #7]
	.loc	5 767 72                        @ rt-thread/components/net/lwip-2.0.2/src/core/ipv4/etharp.c:767:72
	add.w	r12, r3, r3, lsl #1
	movw	r3, :lower16:arp_table
	movt	r3, :upper16:arp_table
	add.w	r3, r3, r12, lsl #3
	.loc	5 767 91                        @ rt-thread/components/net/lwip-2.0.2/src/core/ipv4/etharp.c:767:91
	adds	r3, #12
	.loc	5 767 10                        @ rt-thread/components/net/lwip-2.0.2/src/core/ipv4/etharp.c:767:10
	mov	lr, sp
	mov.w	r12, #2048
	str.w	r12, [lr]
	bl	ethernet_output
	.loc	5 767 3                         @ rt-thread/components/net/lwip-2.0.2/src/core/ipv4/etharp.c:767:3
	add	sp, #16
	pop	{r7, pc}
.Ltmp322:
.Lfunc_end11:
	.size	etharp_output_to_arp_index, .Lfunc_end11-etharp_output_to_arp_index
	.cfi_endproc
	.cantunwind
	.fnend
                                        @ -- End function
	.section	.text.etharp_query,"ax",%progbits
	.hidden	etharp_query                    @ -- Begin function etharp_query
	.globl	etharp_query
	.p2align	3
	.type	etharp_query,%function
	.code	16                              @ @etharp_query
	.thumb_func
etharp_query:
.Lfunc_begin12:
	.loc	5 931 0 is_stmt 1               @ rt-thread/components/net/lwip-2.0.2/src/core/ipv4/etharp.c:931:0
	.fnstart
	.cfi_startproc
@ %bb.0:
	.save	{r7, lr}
	push	{r7, lr}
	.cfi_def_cfa_offset 8
	.cfi_offset lr, -4
	.cfi_offset r7, -8
	.pad	#64
	sub	sp, #64
	.cfi_def_cfa_offset 72
	str	r0, [sp, #56]
	str	r1, [sp, #52]
	str	r2, [sp, #48]
.Ltmp323:
	.loc	5 932 50 prologue_end           @ rt-thread/components/net/lwip-2.0.2/src/core/ipv4/etharp.c:932:50
	ldr	r0, [sp, #56]
	.loc	5 932 57 is_stmt 0              @ rt-thread/components/net/lwip-2.0.2/src/core/ipv4/etharp.c:932:57
	adds	r0, #59
	.loc	5 932 21                        @ rt-thread/components/net/lwip-2.0.2/src/core/ipv4/etharp.c:932:21
	str	r0, [sp, #44]
	movs	r0, #255
	.loc	5 933 9 is_stmt 1               @ rt-thread/components/net/lwip-2.0.2/src/core/ipv4/etharp.c:933:9
	strb.w	r0, [sp, #43]
	movs	r0, #0
	.loc	5 934 7                         @ rt-thread/components/net/lwip-2.0.2/src/core/ipv4/etharp.c:934:7
	str	r0, [sp, #36]
.Ltmp324:
	.loc	5 938 7                         @ rt-thread/components/net/lwip-2.0.2/src/core/ipv4/etharp.c:938:7
	ldr	r0, [sp, #52]
	ldr	r0, [r0]
	ldr	r1, [sp, #56]
	bl	ip4_addr_isbroadcast_u32
	.loc	5 938 43 is_stmt 0              @ rt-thread/components/net/lwip-2.0.2/src/core/ipv4/etharp.c:938:43
	cbnz	r0, .LBB12_4
	b	.LBB12_1
.LBB12_1:
	.loc	5 939 7 is_stmt 1               @ rt-thread/components/net/lwip-2.0.2/src/core/ipv4/etharp.c:939:7
	ldr	r0, [sp, #52]
	ldr	r0, [r0]
	and	r0, r0, #240
	.loc	5 939 36 is_stmt 0              @ rt-thread/components/net/lwip-2.0.2/src/core/ipv4/etharp.c:939:36
	cmp	r0, #224
	beq	.LBB12_4
	b	.LBB12_2
.LBB12_2:
	.loc	5 940 7 is_stmt 1               @ rt-thread/components/net/lwip-2.0.2/src/core/ipv4/etharp.c:940:7
	ldr	r0, [sp, #52]
	cbz	r0, .LBB12_4
	b	.LBB12_3
.LBB12_3:
	ldr	r0, [sp, #52]
	ldr	r0, [r0]
.Ltmp325:
	.loc	5 938 7                         @ rt-thread/components/net/lwip-2.0.2/src/core/ipv4/etharp.c:938:7
	cbnz	r0, .LBB12_5
	b	.LBB12_4
.LBB12_4:
	.loc	5 0 7 is_stmt 0                 @ rt-thread/components/net/lwip-2.0.2/src/core/ipv4/etharp.c:0:7
	movs	r0, #240
.Ltmp326:
	.loc	5 942 5 is_stmt 1               @ rt-thread/components/net/lwip-2.0.2/src/core/ipv4/etharp.c:942:5
	strb.w	r0, [sp, #63]
	b	.LBB12_70
.Ltmp327:
.LBB12_5:
	.loc	5 946 25                        @ rt-thread/components/net/lwip-2.0.2/src/core/ipv4/etharp.c:946:25
	ldr	r0, [sp, #52]
	.loc	5 946 55 is_stmt 0              @ rt-thread/components/net/lwip-2.0.2/src/core/ipv4/etharp.c:946:55
	ldr	r2, [sp, #56]
	movs	r1, #1
	.loc	5 946 7                         @ rt-thread/components/net/lwip-2.0.2/src/core/ipv4/etharp.c:946:7
	bl	etharp_find_entry
	.loc	5 946 5                         @ rt-thread/components/net/lwip-2.0.2/src/core/ipv4/etharp.c:946:5
	strb.w	r0, [sp, #35]
.Ltmp328:
	.loc	5 949 7 is_stmt 1               @ rt-thread/components/net/lwip-2.0.2/src/core/ipv4/etharp.c:949:7
	ldrsb.w	r0, [sp, #35]
.Ltmp329:
	.loc	5 949 7 is_stmt 0               @ rt-thread/components/net/lwip-2.0.2/src/core/ipv4/etharp.c:949:7
	cmp.w	r0, #-1
	bgt	.LBB12_9
	b	.LBB12_6
.LBB12_6:
.Ltmp330:
	.loc	5 951 9 is_stmt 1               @ rt-thread/components/net/lwip-2.0.2/src/core/ipv4/etharp.c:951:9
	ldr	r0, [sp, #48]
.Ltmp331:
	.loc	5 951 9 is_stmt 0               @ rt-thread/components/net/lwip-2.0.2/src/core/ipv4/etharp.c:951:9
	cbz	r0, .LBB12_8
	b	.LBB12_7
.LBB12_7:
.Ltmp332:
	.loc	5 954 5 is_stmt 1               @ rt-thread/components/net/lwip-2.0.2/src/core/ipv4/etharp.c:954:5
	b	.LBB12_8
.Ltmp333:
.LBB12_8:
	.loc	5 955 19                        @ rt-thread/components/net/lwip-2.0.2/src/core/ipv4/etharp.c:955:19
	ldrb.w	r0, [sp, #35]
	.loc	5 955 5 is_stmt 0               @ rt-thread/components/net/lwip-2.0.2/src/core/ipv4/etharp.c:955:5
	strb.w	r0, [sp, #63]
	b	.LBB12_70
.Ltmp334:
.LBB12_9:
	.loc	5 959 17 is_stmt 1              @ rt-thread/components/net/lwip-2.0.2/src/core/ipv4/etharp.c:959:17
	ldrsb.w	r0, [sp, #35]
	.loc	5 959 7 is_stmt 0               @ rt-thread/components/net/lwip-2.0.2/src/core/ipv4/etharp.c:959:7
	add.w	r1, r0, r0, lsl #1
	movw	r0, :lower16:arp_table
	movt	r0, :upper16:arp_table
	add.w	r0, r0, r1, lsl #3
	.loc	5 959 20                        @ rt-thread/components/net/lwip-2.0.2/src/core/ipv4/etharp.c:959:20
	ldrb	r0, [r0, #20]
.Ltmp335:
	.loc	5 959 7                         @ rt-thread/components/net/lwip-2.0.2/src/core/ipv4/etharp.c:959:7
	cbnz	r0, .LBB12_11
	b	.LBB12_10
.LBB12_10:
	.loc	5 0 7                           @ rt-thread/components/net/lwip-2.0.2/src/core/ipv4/etharp.c:0:7
	movs	r0, #1
.Ltmp336:
	.loc	5 960 18 is_stmt 1              @ rt-thread/components/net/lwip-2.0.2/src/core/ipv4/etharp.c:960:18
	str	r0, [sp, #36]
	.loc	5 961 15                        @ rt-thread/components/net/lwip-2.0.2/src/core/ipv4/etharp.c:961:15
	ldrsb.w	r1, [sp, #35]
	.loc	5 961 5 is_stmt 0               @ rt-thread/components/net/lwip-2.0.2/src/core/ipv4/etharp.c:961:5
	add.w	r2, r1, r1, lsl #1
	movw	r1, :lower16:arp_table
	movt	r1, :upper16:arp_table
	add.w	r2, r1, r2, lsl #3
	.loc	5 961 24                        @ rt-thread/components/net/lwip-2.0.2/src/core/ipv4/etharp.c:961:24
	strb	r0, [r2, #20]
	.loc	5 963 26 is_stmt 1              @ rt-thread/components/net/lwip-2.0.2/src/core/ipv4/etharp.c:963:26
	ldr	r0, [sp, #56]
	.loc	5 963 15 is_stmt 0              @ rt-thread/components/net/lwip-2.0.2/src/core/ipv4/etharp.c:963:15
	ldrsb.w	r2, [sp, #35]
	.loc	5 963 5                         @ rt-thread/components/net/lwip-2.0.2/src/core/ipv4/etharp.c:963:5
	add.w	r2, r2, r2, lsl #1
	add.w	r1, r1, r2, lsl #3
	.loc	5 963 24                        @ rt-thread/components/net/lwip-2.0.2/src/core/ipv4/etharp.c:963:24
	str	r0, [r1, #8]
	.loc	5 964 3 is_stmt 1               @ rt-thread/components/net/lwip-2.0.2/src/core/ipv4/etharp.c:964:3
	b	.LBB12_11
.Ltmp337:
.LBB12_11:
	.loc	5 967 3                         @ rt-thread/components/net/lwip-2.0.2/src/core/ipv4/etharp.c:967:3
	b	.LBB12_12
.LBB12_12:
.Ltmp338:
	.loc	5 967 3 is_stmt 0               @ rt-thread/components/net/lwip-2.0.2/src/core/ipv4/etharp.c:967:3
	ldrsb.w	r0, [sp, #35]
	add.w	r1, r0, r0, lsl #1
	movw	r0, :lower16:arp_table
	movt	r0, :upper16:arp_table
	add.w	r0, r0, r1, lsl #3
	ldrb	r0, [r0, #20]
	cmp	r0, #1
	beq	.LBB12_17
	b	.LBB12_13
.LBB12_13:
	ldrsb.w	r0, [sp, #35]
	add.w	r1, r0, r0, lsl #1
	movw	r0, :lower16:arp_table
	movt	r0, :upper16:arp_table
	add.w	r0, r0, r1, lsl #3
	ldrb	r0, [r0, #20]
.Ltmp339:
	.loc	5 967 3                         @ rt-thread/components/net/lwip-2.0.2/src/core/ipv4/etharp.c:967:3
	cmp	r0, #1
	bgt	.LBB12_17
	b	.LBB12_14
.LBB12_14:
.Ltmp340:
	.loc	5 967 3                         @ rt-thread/components/net/lwip-2.0.2/src/core/ipv4/etharp.c:967:3
	b	.LBB12_15
.LBB12_15:
.Ltmp341:
	.loc	5 967 3                         @ rt-thread/components/net/lwip-2.0.2/src/core/ipv4/etharp.c:967:3
	movw	r0, :lower16:.L.str.6
	movt	r0, :upper16:.L.str.6
	bl	rt_kprintf
	movw	r0, :lower16:.L.str.1
	movt	r0, :upper16:.L.str.1
	movw	r1, #969
	bl	sys_arch_assert
	b	.LBB12_16
.Ltmp342:
.LBB12_16:
	.loc	5 967 3                         @ rt-thread/components/net/lwip-2.0.2/src/core/ipv4/etharp.c:967:3
	b	.LBB12_17
.Ltmp343:
.LBB12_17:
	.loc	5 967 3                         @ rt-thread/components/net/lwip-2.0.2/src/core/ipv4/etharp.c:967:3
	b	.LBB12_18
.Ltmp344:
.LBB12_18:
	.loc	5 972 7 is_stmt 1               @ rt-thread/components/net/lwip-2.0.2/src/core/ipv4/etharp.c:972:7
	ldr	r0, [sp, #36]
	.loc	5 972 20 is_stmt 0              @ rt-thread/components/net/lwip-2.0.2/src/core/ipv4/etharp.c:972:20
	cbnz	r0, .LBB12_20
	b	.LBB12_19
.LBB12_19:
	.loc	5 972 24                        @ rt-thread/components/net/lwip-2.0.2/src/core/ipv4/etharp.c:972:24
	ldr	r0, [sp, #48]
.Ltmp345:
	.loc	5 972 7                         @ rt-thread/components/net/lwip-2.0.2/src/core/ipv4/etharp.c:972:7
	cbnz	r0, .LBB12_25
	b	.LBB12_20
.LBB12_20:
.Ltmp346:
	.loc	5 974 29 is_stmt 1              @ rt-thread/components/net/lwip-2.0.2/src/core/ipv4/etharp.c:974:29
	ldr	r0, [sp, #56]
	.loc	5 974 36 is_stmt 0              @ rt-thread/components/net/lwip-2.0.2/src/core/ipv4/etharp.c:974:36
	ldr	r1, [sp, #52]
	.loc	5 974 14                        @ rt-thread/components/net/lwip-2.0.2/src/core/ipv4/etharp.c:974:14
	bl	etharp_request
	.loc	5 974 12                        @ rt-thread/components/net/lwip-2.0.2/src/core/ipv4/etharp.c:974:12
	strb.w	r0, [sp, #43]
.Ltmp347:
	.loc	5 975 9 is_stmt 1               @ rt-thread/components/net/lwip-2.0.2/src/core/ipv4/etharp.c:975:9
	ldrsb.w	r0, [sp, #43]
.Ltmp348:
	.loc	5 975 9 is_stmt 0               @ rt-thread/components/net/lwip-2.0.2/src/core/ipv4/etharp.c:975:9
	cbz	r0, .LBB12_22
	b	.LBB12_21
.LBB12_21:
.Ltmp349:
	.loc	5 980 5 is_stmt 1               @ rt-thread/components/net/lwip-2.0.2/src/core/ipv4/etharp.c:980:5
	b	.LBB12_22
.Ltmp350:
.LBB12_22:
	.loc	5 981 9                         @ rt-thread/components/net/lwip-2.0.2/src/core/ipv4/etharp.c:981:9
	ldr	r0, [sp, #48]
.Ltmp351:
	.loc	5 981 9 is_stmt 0               @ rt-thread/components/net/lwip-2.0.2/src/core/ipv4/etharp.c:981:9
	cbnz	r0, .LBB12_24
	b	.LBB12_23
.LBB12_23:
.Ltmp352:
	.loc	5 982 14 is_stmt 1              @ rt-thread/components/net/lwip-2.0.2/src/core/ipv4/etharp.c:982:14
	ldrb.w	r0, [sp, #43]
	.loc	5 982 7 is_stmt 0               @ rt-thread/components/net/lwip-2.0.2/src/core/ipv4/etharp.c:982:7
	strb.w	r0, [sp, #63]
	b	.LBB12_70
.Ltmp353:
.LBB12_24:
	.loc	5 984 3 is_stmt 1               @ rt-thread/components/net/lwip-2.0.2/src/core/ipv4/etharp.c:984:3
	b	.LBB12_25
.Ltmp354:
.LBB12_25:
	.loc	5 987 3                         @ rt-thread/components/net/lwip-2.0.2/src/core/ipv4/etharp.c:987:3
	b	.LBB12_26
.LBB12_26:
.Ltmp355:
	.loc	5 987 3 is_stmt 0               @ rt-thread/components/net/lwip-2.0.2/src/core/ipv4/etharp.c:987:3
	ldr	r0, [sp, #48]
.Ltmp356:
	.loc	5 987 3                         @ rt-thread/components/net/lwip-2.0.2/src/core/ipv4/etharp.c:987:3
	cbnz	r0, .LBB12_30
	b	.LBB12_27
.LBB12_27:
.Ltmp357:
	.loc	5 987 3                         @ rt-thread/components/net/lwip-2.0.2/src/core/ipv4/etharp.c:987:3
	b	.LBB12_28
.LBB12_28:
.Ltmp358:
	.loc	5 987 3                         @ rt-thread/components/net/lwip-2.0.2/src/core/ipv4/etharp.c:987:3
	movw	r0, :lower16:.L.str.5
	movt	r0, :upper16:.L.str.5
	bl	rt_kprintf
	movw	r0, :lower16:.L.str.1
	movt	r0, :upper16:.L.str.1
	movw	r1, #987
	bl	sys_arch_assert
	b	.LBB12_29
.Ltmp359:
.LBB12_29:
	.loc	5 987 3                         @ rt-thread/components/net/lwip-2.0.2/src/core/ipv4/etharp.c:987:3
	b	.LBB12_30
.Ltmp360:
.LBB12_30:
	.loc	5 987 3                         @ rt-thread/components/net/lwip-2.0.2/src/core/ipv4/etharp.c:987:3
	b	.LBB12_31
.Ltmp361:
.LBB12_31:
	.loc	5 989 17 is_stmt 1              @ rt-thread/components/net/lwip-2.0.2/src/core/ipv4/etharp.c:989:17
	ldrsb.w	r0, [sp, #35]
	.loc	5 989 7 is_stmt 0               @ rt-thread/components/net/lwip-2.0.2/src/core/ipv4/etharp.c:989:7
	add.w	r1, r0, r0, lsl #1
	movw	r0, :lower16:arp_table
	movt	r0, :upper16:arp_table
	add.w	r0, r0, r1, lsl #3
	.loc	5 989 20                        @ rt-thread/components/net/lwip-2.0.2/src/core/ipv4/etharp.c:989:20
	ldrb	r0, [r0, #20]
.Ltmp362:
	.loc	5 989 7                         @ rt-thread/components/net/lwip-2.0.2/src/core/ipv4/etharp.c:989:7
	cmp	r0, #2
	blt	.LBB12_33
	b	.LBB12_32
.LBB12_32:
.Ltmp363:
	.loc	5 991 5 is_stmt 1               @ rt-thread/components/net/lwip-2.0.2/src/core/ipv4/etharp.c:991:5
	ldrb.w	r0, [sp, #35]
	movw	r1, :lower16:etharp_cached_entry
	movt	r1, :upper16:etharp_cached_entry
	strb	r0, [r1]
	.loc	5 993 30                        @ rt-thread/components/net/lwip-2.0.2/src/core/ipv4/etharp.c:993:30
	ldr	r0, [sp, #56]
	.loc	5 993 37 is_stmt 0              @ rt-thread/components/net/lwip-2.0.2/src/core/ipv4/etharp.c:993:37
	ldr	r1, [sp, #48]
	.loc	5 993 40                        @ rt-thread/components/net/lwip-2.0.2/src/core/ipv4/etharp.c:993:40
	ldr	r2, [sp, #44]
	.loc	5 993 61                        @ rt-thread/components/net/lwip-2.0.2/src/core/ipv4/etharp.c:993:61
	ldrsb.w	r3, [sp, #35]
	.loc	5 993 51                        @ rt-thread/components/net/lwip-2.0.2/src/core/ipv4/etharp.c:993:51
	add.w	r12, r3, r3, lsl #1
	movw	r3, :lower16:arp_table
	movt	r3, :upper16:arp_table
	add.w	r3, r3, r12, lsl #3
	.loc	5 993 64                        @ rt-thread/components/net/lwip-2.0.2/src/core/ipv4/etharp.c:993:64
	adds	r3, #12
	.loc	5 993 14                        @ rt-thread/components/net/lwip-2.0.2/src/core/ipv4/etharp.c:993:14
	mov	lr, sp
	mov.w	r12, #2048
	str.w	r12, [lr]
	bl	ethernet_output
	.loc	5 993 12                        @ rt-thread/components/net/lwip-2.0.2/src/core/ipv4/etharp.c:993:12
	strb.w	r0, [sp, #43]
	.loc	5 995 3 is_stmt 1               @ rt-thread/components/net/lwip-2.0.2/src/core/ipv4/etharp.c:995:3
	b	.LBB12_69
.Ltmp364:
.LBB12_33:
	.loc	5 995 24 is_stmt 0              @ rt-thread/components/net/lwip-2.0.2/src/core/ipv4/etharp.c:995:24
	ldrsb.w	r0, [sp, #35]
	.loc	5 995 14                        @ rt-thread/components/net/lwip-2.0.2/src/core/ipv4/etharp.c:995:14
	add.w	r1, r0, r0, lsl #1
	movw	r0, :lower16:arp_table
	movt	r0, :upper16:arp_table
	add.w	r0, r0, r1, lsl #3
	.loc	5 995 27                        @ rt-thread/components/net/lwip-2.0.2/src/core/ipv4/etharp.c:995:27
	ldrb	r0, [r0, #20]
.Ltmp365:
	.loc	5 995 14                        @ rt-thread/components/net/lwip-2.0.2/src/core/ipv4/etharp.c:995:14
	cmp	r0, #1
	bne.w	.LBB12_68
	b	.LBB12_34
.LBB12_34:
	.loc	5 0 14                          @ rt-thread/components/net/lwip-2.0.2/src/core/ipv4/etharp.c:0:14
	movs	r0, #0
.Ltmp366:
	.loc	5 998 9 is_stmt 1               @ rt-thread/components/net/lwip-2.0.2/src/core/ipv4/etharp.c:998:9
	str	r0, [sp, #24]
	.loc	5 1002 9                        @ rt-thread/components/net/lwip-2.0.2/src/core/ipv4/etharp.c:1002:9
	ldr	r0, [sp, #48]
	.loc	5 1002 7 is_stmt 0              @ rt-thread/components/net/lwip-2.0.2/src/core/ipv4/etharp.c:1002:7
	str	r0, [sp, #28]
	.loc	5 1003 5 is_stmt 1              @ rt-thread/components/net/lwip-2.0.2/src/core/ipv4/etharp.c:1003:5
	b	.LBB12_35
.LBB12_35:                              @ =>This Inner Loop Header: Depth=1
	.loc	5 1003 12 is_stmt 0             @ rt-thread/components/net/lwip-2.0.2/src/core/ipv4/etharp.c:1003:12
	ldr	r0, [sp, #28]
	.loc	5 1003 5                        @ rt-thread/components/net/lwip-2.0.2/src/core/ipv4/etharp.c:1003:5
	cbz	r0, .LBB12_46
	b	.LBB12_36
.LBB12_36:                              @   in Loop: Header=BB12_35 Depth=1
.Ltmp367:
	.loc	5 1004 7 is_stmt 1              @ rt-thread/components/net/lwip-2.0.2/src/core/ipv4/etharp.c:1004:7
	b	.LBB12_37
.LBB12_37:                              @   in Loop: Header=BB12_35 Depth=1
.Ltmp368:
	.loc	5 1004 7 is_stmt 0              @ rt-thread/components/net/lwip-2.0.2/src/core/ipv4/etharp.c:1004:7
	ldr	r1, [sp, #28]
	ldrh	r0, [r1, #10]
	ldrh	r1, [r1, #8]
	cmp	r0, r1
	bne	.LBB12_42
	b	.LBB12_38
.LBB12_38:                              @   in Loop: Header=BB12_35 Depth=1
	ldr	r0, [sp, #28]
	ldr	r0, [r0]
.Ltmp369:
	.loc	5 1004 7                        @ rt-thread/components/net/lwip-2.0.2/src/core/ipv4/etharp.c:1004:7
	cbz	r0, .LBB12_42
	b	.LBB12_39
.LBB12_39:                              @   in Loop: Header=BB12_35 Depth=1
.Ltmp370:
	.loc	5 1004 7                        @ rt-thread/components/net/lwip-2.0.2/src/core/ipv4/etharp.c:1004:7
	b	.LBB12_40
.LBB12_40:                              @   in Loop: Header=BB12_35 Depth=1
.Ltmp371:
	.loc	5 1004 7                        @ rt-thread/components/net/lwip-2.0.2/src/core/ipv4/etharp.c:1004:7
	movw	r0, :lower16:.L.str.7
	movt	r0, :upper16:.L.str.7
	bl	rt_kprintf
	movw	r0, :lower16:.L.str.1
	movt	r0, :upper16:.L.str.1
	mov.w	r1, #1004
	bl	sys_arch_assert
	b	.LBB12_41
.Ltmp372:
.LBB12_41:                              @   in Loop: Header=BB12_35 Depth=1
	.loc	5 1004 7                        @ rt-thread/components/net/lwip-2.0.2/src/core/ipv4/etharp.c:1004:7
	b	.LBB12_42
.Ltmp373:
.LBB12_42:                              @   in Loop: Header=BB12_35 Depth=1
	.loc	5 1004 7                        @ rt-thread/components/net/lwip-2.0.2/src/core/ipv4/etharp.c:1004:7
	b	.LBB12_43
.Ltmp374:
.LBB12_43:                              @   in Loop: Header=BB12_35 Depth=1
	.loc	5 1005 11 is_stmt 1             @ rt-thread/components/net/lwip-2.0.2/src/core/ipv4/etharp.c:1005:11
	ldr	r0, [sp, #28]
	.loc	5 1005 14 is_stmt 0             @ rt-thread/components/net/lwip-2.0.2/src/core/ipv4/etharp.c:1005:14
	ldrb	r0, [r0, #12]
.Ltmp375:
	.loc	5 1005 11                       @ rt-thread/components/net/lwip-2.0.2/src/core/ipv4/etharp.c:1005:11
	cmp	r0, #1
	beq	.LBB12_45
	b	.LBB12_44
.LBB12_44:
	.loc	5 0 11                          @ rt-thread/components/net/lwip-2.0.2/src/core/ipv4/etharp.c:0:11
	movs	r0, #1
.Ltmp376:
	.loc	5 1006 21 is_stmt 1             @ rt-thread/components/net/lwip-2.0.2/src/core/ipv4/etharp.c:1006:21
	str	r0, [sp, #24]
	.loc	5 1007 9                        @ rt-thread/components/net/lwip-2.0.2/src/core/ipv4/etharp.c:1007:9
	b	.LBB12_46
.Ltmp377:
.LBB12_45:                              @   in Loop: Header=BB12_35 Depth=1
	.loc	5 1009 11                       @ rt-thread/components/net/lwip-2.0.2/src/core/ipv4/etharp.c:1009:11
	ldr	r0, [sp, #28]
	.loc	5 1009 14 is_stmt 0             @ rt-thread/components/net/lwip-2.0.2/src/core/ipv4/etharp.c:1009:14
	ldr	r0, [r0]
	.loc	5 1009 9                        @ rt-thread/components/net/lwip-2.0.2/src/core/ipv4/etharp.c:1009:9
	str	r0, [sp, #28]
.Ltmp378:
	.loc	5 1003 5 is_stmt 1              @ rt-thread/components/net/lwip-2.0.2/src/core/ipv4/etharp.c:1003:5
	b	.LBB12_35
.LBB12_46:
.Ltmp379:
	.loc	5 1011 9                        @ rt-thread/components/net/lwip-2.0.2/src/core/ipv4/etharp.c:1011:9
	ldr	r0, [sp, #24]
.Ltmp380:
	.loc	5 1011 9 is_stmt 0              @ rt-thread/components/net/lwip-2.0.2/src/core/ipv4/etharp.c:1011:9
	cbz	r0, .LBB12_52
	b	.LBB12_47
.LBB12_47:
.Ltmp381:
	.loc	5 1013 33 is_stmt 1             @ rt-thread/components/net/lwip-2.0.2/src/core/ipv4/etharp.c:1013:33
	ldr	r0, [sp, #28]
	.loc	5 1013 36 is_stmt 0             @ rt-thread/components/net/lwip-2.0.2/src/core/ipv4/etharp.c:1013:36
	ldrh	r1, [r0, #8]
	movs	r0, #2
	movs	r2, #0
	.loc	5 1013 11                       @ rt-thread/components/net/lwip-2.0.2/src/core/ipv4/etharp.c:1013:11
	bl	pbuf_alloc
	.loc	5 1013 9                        @ rt-thread/components/net/lwip-2.0.2/src/core/ipv4/etharp.c:1013:9
	str	r0, [sp, #28]
.Ltmp382:
	.loc	5 1014 11 is_stmt 1             @ rt-thread/components/net/lwip-2.0.2/src/core/ipv4/etharp.c:1014:11
	ldr	r0, [sp, #28]
.Ltmp383:
	.loc	5 1014 11 is_stmt 0             @ rt-thread/components/net/lwip-2.0.2/src/core/ipv4/etharp.c:1014:11
	cbz	r0, .LBB12_51
	b	.LBB12_48
.LBB12_48:
.Ltmp384:
	.loc	5 1015 23 is_stmt 1             @ rt-thread/components/net/lwip-2.0.2/src/core/ipv4/etharp.c:1015:23
	ldr	r0, [sp, #28]
	.loc	5 1015 26 is_stmt 0             @ rt-thread/components/net/lwip-2.0.2/src/core/ipv4/etharp.c:1015:26
	ldr	r1, [sp, #48]
	.loc	5 1015 13                       @ rt-thread/components/net/lwip-2.0.2/src/core/ipv4/etharp.c:1015:13
	bl	pbuf_copy
.Ltmp385:
	.loc	5 1015 13                       @ rt-thread/components/net/lwip-2.0.2/src/core/ipv4/etharp.c:1015:13
	cbz	r0, .LBB12_50
	b	.LBB12_49
.LBB12_49:
.Ltmp386:
	.loc	5 1016 21 is_stmt 1             @ rt-thread/components/net/lwip-2.0.2/src/core/ipv4/etharp.c:1016:21
	ldr	r0, [sp, #28]
	.loc	5 1016 11 is_stmt 0             @ rt-thread/components/net/lwip-2.0.2/src/core/ipv4/etharp.c:1016:11
	bl	pbuf_free
	movs	r0, #0
	.loc	5 1017 13 is_stmt 1             @ rt-thread/components/net/lwip-2.0.2/src/core/ipv4/etharp.c:1017:13
	str	r0, [sp, #28]
	.loc	5 1018 9                        @ rt-thread/components/net/lwip-2.0.2/src/core/ipv4/etharp.c:1018:9
	b	.LBB12_50
.Ltmp387:
.LBB12_50:
	.loc	5 1019 7                        @ rt-thread/components/net/lwip-2.0.2/src/core/ipv4/etharp.c:1019:7
	b	.LBB12_51
.Ltmp388:
.LBB12_51:
	.loc	5 1020 5                        @ rt-thread/components/net/lwip-2.0.2/src/core/ipv4/etharp.c:1020:5
	b	.LBB12_53
.Ltmp389:
.LBB12_52:
	.loc	5 1022 11                       @ rt-thread/components/net/lwip-2.0.2/src/core/ipv4/etharp.c:1022:11
	ldr	r0, [sp, #48]
	.loc	5 1022 9 is_stmt 0              @ rt-thread/components/net/lwip-2.0.2/src/core/ipv4/etharp.c:1022:9
	str	r0, [sp, #28]
	.loc	5 1023 16 is_stmt 1             @ rt-thread/components/net/lwip-2.0.2/src/core/ipv4/etharp.c:1023:16
	ldr	r0, [sp, #28]
	.loc	5 1023 7 is_stmt 0              @ rt-thread/components/net/lwip-2.0.2/src/core/ipv4/etharp.c:1023:7
	bl	pbuf_ref
	b	.LBB12_53
.Ltmp390:
.LBB12_53:
	.loc	5 1026 9 is_stmt 1              @ rt-thread/components/net/lwip-2.0.2/src/core/ipv4/etharp.c:1026:9
	ldr	r0, [sp, #28]
.Ltmp391:
	.loc	5 1026 9 is_stmt 0              @ rt-thread/components/net/lwip-2.0.2/src/core/ipv4/etharp.c:1026:9
	cmp	r0, #0
	beq	.LBB12_66
	b	.LBB12_54
.LBB12_54:
.Ltmp392:
	.loc	5 1031 44 is_stmt 1             @ rt-thread/components/net/lwip-2.0.2/src/core/ipv4/etharp.c:1031:44
	movw	r1, :lower16:.L.str.1
	movt	r1, :upper16:.L.str.1
	movs	r0, #9
	movw	r2, #1031
	bl	memp_malloc_fn
	.loc	5 1031 17 is_stmt 0             @ rt-thread/components/net/lwip-2.0.2/src/core/ipv4/etharp.c:1031:17
	str	r0, [sp, #20]
.Ltmp393:
	.loc	5 1032 11 is_stmt 1             @ rt-thread/components/net/lwip-2.0.2/src/core/ipv4/etharp.c:1032:11
	ldr	r0, [sp, #20]
.Ltmp394:
	.loc	5 1032 11 is_stmt 0             @ rt-thread/components/net/lwip-2.0.2/src/core/ipv4/etharp.c:1032:11
	cmp	r0, #0
	beq	.LBB12_64
	b	.LBB12_55
.LBB12_55:
	.loc	5 0 11                          @ rt-thread/components/net/lwip-2.0.2/src/core/ipv4/etharp.c:0:11
	movs	r0, #0
.Ltmp395:
	.loc	5 1033 22 is_stmt 1             @ rt-thread/components/net/lwip-2.0.2/src/core/ipv4/etharp.c:1033:22
	str	r0, [sp, #16]
	.loc	5 1034 9                        @ rt-thread/components/net/lwip-2.0.2/src/core/ipv4/etharp.c:1034:9
	ldr	r1, [sp, #20]
	.loc	5 1034 25 is_stmt 0             @ rt-thread/components/net/lwip-2.0.2/src/core/ipv4/etharp.c:1034:25
	str	r0, [r1]
	.loc	5 1035 24 is_stmt 1             @ rt-thread/components/net/lwip-2.0.2/src/core/ipv4/etharp.c:1035:24
	ldr	r0, [sp, #28]
	.loc	5 1035 9 is_stmt 0              @ rt-thread/components/net/lwip-2.0.2/src/core/ipv4/etharp.c:1035:9
	ldr	r1, [sp, #20]
	.loc	5 1035 22                       @ rt-thread/components/net/lwip-2.0.2/src/core/ipv4/etharp.c:1035:22
	str	r0, [r1, #4]
.Ltmp396:
	.loc	5 1036 23 is_stmt 1             @ rt-thread/components/net/lwip-2.0.2/src/core/ipv4/etharp.c:1036:23
	ldrsb.w	r0, [sp, #35]
	.loc	5 1036 13 is_stmt 0             @ rt-thread/components/net/lwip-2.0.2/src/core/ipv4/etharp.c:1036:13
	add.w	r1, r0, r0, lsl #1
	movw	r0, :lower16:arp_table
	movt	r0, :upper16:arp_table
	.loc	5 1036 26                       @ rt-thread/components/net/lwip-2.0.2/src/core/ipv4/etharp.c:1036:26
	ldr.w	r0, [r0, r1, lsl #3]
.Ltmp397:
	.loc	5 1036 13                       @ rt-thread/components/net/lwip-2.0.2/src/core/ipv4/etharp.c:1036:13
	cbz	r0, .LBB12_60
	b	.LBB12_56
.LBB12_56:
.Ltmp398:
	.loc	5 1039 25 is_stmt 1             @ rt-thread/components/net/lwip-2.0.2/src/core/ipv4/etharp.c:1039:25
	ldrsb.w	r0, [sp, #35]
	.loc	5 1039 15 is_stmt 0             @ rt-thread/components/net/lwip-2.0.2/src/core/ipv4/etharp.c:1039:15
	add.w	r1, r0, r0, lsl #1
	movw	r0, :lower16:arp_table
	movt	r0, :upper16:arp_table
	.loc	5 1039 28                       @ rt-thread/components/net/lwip-2.0.2/src/core/ipv4/etharp.c:1039:28
	ldr.w	r0, [r0, r1, lsl #3]
	.loc	5 1039 13                       @ rt-thread/components/net/lwip-2.0.2/src/core/ipv4/etharp.c:1039:13
	str	r0, [sp, #12]
	.loc	5 1040 15 is_stmt 1             @ rt-thread/components/net/lwip-2.0.2/src/core/ipv4/etharp.c:1040:15
	ldr	r0, [sp, #16]
	adds	r0, #1
	str	r0, [sp, #16]
	.loc	5 1041 11                       @ rt-thread/components/net/lwip-2.0.2/src/core/ipv4/etharp.c:1041:11
	b	.LBB12_57
.LBB12_57:                              @ =>This Inner Loop Header: Depth=1
	.loc	5 1041 18 is_stmt 0             @ rt-thread/components/net/lwip-2.0.2/src/core/ipv4/etharp.c:1041:18
	ldr	r0, [sp, #12]
	.loc	5 1041 21                       @ rt-thread/components/net/lwip-2.0.2/src/core/ipv4/etharp.c:1041:21
	ldr	r0, [r0]
	.loc	5 1041 11                       @ rt-thread/components/net/lwip-2.0.2/src/core/ipv4/etharp.c:1041:11
	cbz	r0, .LBB12_59
	b	.LBB12_58
.LBB12_58:                              @   in Loop: Header=BB12_57 Depth=1
.Ltmp399:
	.loc	5 1042 17 is_stmt 1             @ rt-thread/components/net/lwip-2.0.2/src/core/ipv4/etharp.c:1042:17
	ldr	r0, [sp, #12]
	.loc	5 1042 20 is_stmt 0             @ rt-thread/components/net/lwip-2.0.2/src/core/ipv4/etharp.c:1042:20
	ldr	r0, [r0]
	.loc	5 1042 15                       @ rt-thread/components/net/lwip-2.0.2/src/core/ipv4/etharp.c:1042:15
	str	r0, [sp, #12]
	.loc	5 1043 17 is_stmt 1             @ rt-thread/components/net/lwip-2.0.2/src/core/ipv4/etharp.c:1043:17
	ldr	r0, [sp, #16]
	adds	r0, #1
	str	r0, [sp, #16]
.Ltmp400:
	.loc	5 1041 11                       @ rt-thread/components/net/lwip-2.0.2/src/core/ipv4/etharp.c:1041:11
	b	.LBB12_57
.LBB12_59:
	.loc	5 1045 21                       @ rt-thread/components/net/lwip-2.0.2/src/core/ipv4/etharp.c:1045:21
	ldr	r0, [sp, #20]
	.loc	5 1045 11 is_stmt 0             @ rt-thread/components/net/lwip-2.0.2/src/core/ipv4/etharp.c:1045:11
	ldr	r1, [sp, #12]
	.loc	5 1045 19                       @ rt-thread/components/net/lwip-2.0.2/src/core/ipv4/etharp.c:1045:19
	str	r0, [r1]
	.loc	5 1046 9 is_stmt 1              @ rt-thread/components/net/lwip-2.0.2/src/core/ipv4/etharp.c:1046:9
	b	.LBB12_61
.Ltmp401:
.LBB12_60:
	.loc	5 1048 28                       @ rt-thread/components/net/lwip-2.0.2/src/core/ipv4/etharp.c:1048:28
	ldr	r0, [sp, #20]
	.loc	5 1048 21 is_stmt 0             @ rt-thread/components/net/lwip-2.0.2/src/core/ipv4/etharp.c:1048:21
	ldrsb.w	r1, [sp, #35]
	.loc	5 1048 11                       @ rt-thread/components/net/lwip-2.0.2/src/core/ipv4/etharp.c:1048:11
	add.w	r2, r1, r1, lsl #1
	movw	r1, :lower16:arp_table
	movt	r1, :upper16:arp_table
	.loc	5 1048 26                       @ rt-thread/components/net/lwip-2.0.2/src/core/ipv4/etharp.c:1048:26
	str.w	r0, [r1, r2, lsl #3]
	b	.LBB12_61
.Ltmp402:
.LBB12_61:
	.loc	5 1051 13 is_stmt 1             @ rt-thread/components/net/lwip-2.0.2/src/core/ipv4/etharp.c:1051:13
	ldr	r0, [sp, #16]
.Ltmp403:
	.loc	5 1051 13 is_stmt 0             @ rt-thread/components/net/lwip-2.0.2/src/core/ipv4/etharp.c:1051:13
	cmp	r0, #3
	blo	.LBB12_63
	b	.LBB12_62
.LBB12_62:
.Ltmp404:
	.loc	5 1053 27 is_stmt 1             @ rt-thread/components/net/lwip-2.0.2/src/core/ipv4/etharp.c:1053:27
	ldrsb.w	r0, [sp, #35]
	.loc	5 1053 17 is_stmt 0             @ rt-thread/components/net/lwip-2.0.2/src/core/ipv4/etharp.c:1053:17
	add.w	r0, r0, r0, lsl #1
	movw	r1, :lower16:arp_table
	movt	r1, :upper16:arp_table
	.loc	5 1053 30                       @ rt-thread/components/net/lwip-2.0.2/src/core/ipv4/etharp.c:1053:30
	ldr.w	r0, [r1, r0, lsl #3]
	.loc	5 1053 15                       @ rt-thread/components/net/lwip-2.0.2/src/core/ipv4/etharp.c:1053:15
	str	r0, [sp, #8]
	.loc	5 1054 38 is_stmt 1             @ rt-thread/components/net/lwip-2.0.2/src/core/ipv4/etharp.c:1054:38
	ldrsb.w	r0, [sp, #35]
	.loc	5 1054 28 is_stmt 0             @ rt-thread/components/net/lwip-2.0.2/src/core/ipv4/etharp.c:1054:28
	add.w	r2, r0, r0, lsl #1
	.loc	5 1054 41                       @ rt-thread/components/net/lwip-2.0.2/src/core/ipv4/etharp.c:1054:41
	ldr.w	r0, [r1, r2, lsl #3]
	.loc	5 1054 44                       @ rt-thread/components/net/lwip-2.0.2/src/core/ipv4/etharp.c:1054:44
	ldr	r0, [r0]
	.loc	5 1054 26                       @ rt-thread/components/net/lwip-2.0.2/src/core/ipv4/etharp.c:1054:26
	str.w	r0, [r1, r2, lsl #3]
	.loc	5 1055 21 is_stmt 1             @ rt-thread/components/net/lwip-2.0.2/src/core/ipv4/etharp.c:1055:21
	ldr	r0, [sp, #8]
	.loc	5 1055 26 is_stmt 0             @ rt-thread/components/net/lwip-2.0.2/src/core/ipv4/etharp.c:1055:26
	ldr	r0, [r0, #4]
	.loc	5 1055 11                       @ rt-thread/components/net/lwip-2.0.2/src/core/ipv4/etharp.c:1055:11
	bl	pbuf_free
	.loc	5 1056 37 is_stmt 1             @ rt-thread/components/net/lwip-2.0.2/src/core/ipv4/etharp.c:1056:37
	ldr	r1, [sp, #8]
	movs	r0, #9
	.loc	5 1056 11 is_stmt 0             @ rt-thread/components/net/lwip-2.0.2/src/core/ipv4/etharp.c:1056:11
	bl	memp_free
	.loc	5 1057 9 is_stmt 1              @ rt-thread/components/net/lwip-2.0.2/src/core/ipv4/etharp.c:1057:9
	b	.LBB12_63
.Ltmp405:
.LBB12_63:
	.loc	5 0 9 is_stmt 0                 @ rt-thread/components/net/lwip-2.0.2/src/core/ipv4/etharp.c:0:9
	movs	r0, #0
	.loc	5 1060 16 is_stmt 1             @ rt-thread/components/net/lwip-2.0.2/src/core/ipv4/etharp.c:1060:16
	strb.w	r0, [sp, #43]
	.loc	5 1061 7                        @ rt-thread/components/net/lwip-2.0.2/src/core/ipv4/etharp.c:1061:7
	b	.LBB12_65
.Ltmp406:
.LBB12_64:
	.loc	5 1063 19                       @ rt-thread/components/net/lwip-2.0.2/src/core/ipv4/etharp.c:1063:19
	ldr	r0, [sp, #28]
	.loc	5 1063 9 is_stmt 0              @ rt-thread/components/net/lwip-2.0.2/src/core/ipv4/etharp.c:1063:9
	bl	pbuf_free
	movs	r0, #255
	.loc	5 1065 16 is_stmt 1             @ rt-thread/components/net/lwip-2.0.2/src/core/ipv4/etharp.c:1065:16
	strb.w	r0, [sp, #43]
	b	.LBB12_65
.Ltmp407:
.LBB12_65:
	.loc	5 1077 5                        @ rt-thread/components/net/lwip-2.0.2/src/core/ipv4/etharp.c:1077:5
	b	.LBB12_67
.Ltmp408:
.LBB12_66:
	.loc	5 0 5 is_stmt 0                 @ rt-thread/components/net/lwip-2.0.2/src/core/ipv4/etharp.c:0:5
	movs	r0, #255
.Ltmp409:
	.loc	5 1080 14 is_stmt 1             @ rt-thread/components/net/lwip-2.0.2/src/core/ipv4/etharp.c:1080:14
	strb.w	r0, [sp, #43]
	b	.LBB12_67
.Ltmp410:
.LBB12_67:
	.loc	5 1082 3                        @ rt-thread/components/net/lwip-2.0.2/src/core/ipv4/etharp.c:1082:3
	b	.LBB12_68
.Ltmp411:
.LBB12_68:
	.loc	5 0 3 is_stmt 0                 @ rt-thread/components/net/lwip-2.0.2/src/core/ipv4/etharp.c:0:3
	b	.LBB12_69
.LBB12_69:
	.loc	5 1083 10 is_stmt 1             @ rt-thread/components/net/lwip-2.0.2/src/core/ipv4/etharp.c:1083:10
	ldrb.w	r0, [sp, #43]
	.loc	5 1083 3 is_stmt 0              @ rt-thread/components/net/lwip-2.0.2/src/core/ipv4/etharp.c:1083:3
	strb.w	r0, [sp, #63]
	b	.LBB12_70
.LBB12_70:
	.loc	5 1084 1 is_stmt 1              @ rt-thread/components/net/lwip-2.0.2/src/core/ipv4/etharp.c:1084:1
	ldrsb.w	r0, [sp, #63]
	add	sp, #64
	pop	{r7, pc}
.Ltmp412:
.Lfunc_end12:
	.size	etharp_query, .Lfunc_end12-etharp_query
	.cfi_endproc
	.cantunwind
	.fnend
                                        @ -- End function
	.section	.text.etharp_request_dst,"ax",%progbits
	.p2align	3                               @ -- Begin function etharp_request_dst
	.type	etharp_request_dst,%function
	.code	16                              @ @etharp_request_dst
	.thumb_func
etharp_request_dst:
.Lfunc_begin13:
	.loc	5 1183 0                        @ rt-thread/components/net/lwip-2.0.2/src/core/ipv4/etharp.c:1183:0
	.fnstart
	.cfi_startproc
@ %bb.0:
	.save	{r4, lr}
	push	{r4, lr}
	.cfi_def_cfa_offset 8
	.cfi_offset lr, -4
	.cfi_offset r4, -8
	.pad	#32
	sub	sp, #32
	.cfi_def_cfa_offset 40
	str	r0, [sp, #28]
	str	r1, [sp, #24]
	str	r2, [sp, #20]
.Ltmp413:
	.loc	5 1184 21 prologue_end          @ rt-thread/components/net/lwip-2.0.2/src/core/ipv4/etharp.c:1184:21
	ldr	r0, [sp, #28]
	.loc	5 1184 54 is_stmt 0             @ rt-thread/components/net/lwip-2.0.2/src/core/ipv4/etharp.c:1184:54
	add.w	r3, r0, #59
	.loc	5 1184 62                       @ rt-thread/components/net/lwip-2.0.2/src/core/ipv4/etharp.c:1184:62
	ldr	r2, [sp, #20]
	.loc	5 1185 55 is_stmt 1             @ rt-thread/components/net/lwip-2.0.2/src/core/ipv4/etharp.c:1185:55
	adds	r1, r0, #4
	.loc	5 1186 21                       @ rt-thread/components/net/lwip-2.0.2/src/core/ipv4/etharp.c:1186:21
	ldr.w	lr, [sp, #24]
	.loc	5 1184 10                       @ rt-thread/components/net/lwip-2.0.2/src/core/ipv4/etharp.c:1184:10
	mov	r12, sp
	movs	r4, #1
	str.w	r4, [r12, #12]
	str.w	lr, [r12, #8]
	movw	lr, :lower16:ethzero
	movt	lr, :upper16:ethzero
	str.w	lr, [r12, #4]
	str.w	r1, [r12]
	mov	r1, r3
	bl	etharp_raw
	.loc	5 1184 3 is_stmt 0              @ rt-thread/components/net/lwip-2.0.2/src/core/ipv4/etharp.c:1184:3
	add	sp, #32
	pop	{r4, pc}
.Ltmp414:
.Lfunc_end13:
	.size	etharp_request_dst, .Lfunc_end13-etharp_request_dst
	.cfi_endproc
	.cantunwind
	.fnend
                                        @ -- End function
	.section	.text.free_etharp_q,"ax",%progbits
	.p2align	3                               @ -- Begin function free_etharp_q
	.type	free_etharp_q,%function
	.code	16                              @ @free_etharp_q
	.thumb_func
free_etharp_q:
.Lfunc_begin14:
	.loc	5 149 0 is_stmt 1               @ rt-thread/components/net/lwip-2.0.2/src/core/ipv4/etharp.c:149:0
	.fnstart
	.cfi_startproc
@ %bb.0:
	.save	{r7, lr}
	push	{r7, lr}
	.cfi_def_cfa_offset 8
	.cfi_offset lr, -4
	.cfi_offset r7, -8
	.pad	#8
	sub	sp, #8
	.cfi_def_cfa_offset 16
	str	r0, [sp, #4]
.Ltmp415:
	.loc	5 151 3 prologue_end            @ rt-thread/components/net/lwip-2.0.2/src/core/ipv4/etharp.c:151:3
	b	.LBB14_1
.LBB14_1:
.Ltmp416:
	.loc	5 151 3 is_stmt 0               @ rt-thread/components/net/lwip-2.0.2/src/core/ipv4/etharp.c:151:3
	ldr	r0, [sp, #4]
.Ltmp417:
	.loc	5 151 3                         @ rt-thread/components/net/lwip-2.0.2/src/core/ipv4/etharp.c:151:3
	cbnz	r0, .LBB14_5
	b	.LBB14_2
.LBB14_2:
.Ltmp418:
	.loc	5 151 3                         @ rt-thread/components/net/lwip-2.0.2/src/core/ipv4/etharp.c:151:3
	b	.LBB14_3
.LBB14_3:
.Ltmp419:
	.loc	5 151 3                         @ rt-thread/components/net/lwip-2.0.2/src/core/ipv4/etharp.c:151:3
	movw	r0, :lower16:.L.str.5
	movt	r0, :upper16:.L.str.5
	bl	rt_kprintf
	movw	r0, :lower16:.L.str.1
	movt	r0, :upper16:.L.str.1
	movs	r1, #151
	bl	sys_arch_assert
	b	.LBB14_4
.Ltmp420:
.LBB14_4:
	.loc	5 151 3                         @ rt-thread/components/net/lwip-2.0.2/src/core/ipv4/etharp.c:151:3
	b	.LBB14_5
.Ltmp421:
.LBB14_5:
	.loc	5 151 3                         @ rt-thread/components/net/lwip-2.0.2/src/core/ipv4/etharp.c:151:3
	b	.LBB14_6
.Ltmp422:
.LBB14_6:
	.loc	5 152 3 is_stmt 1               @ rt-thread/components/net/lwip-2.0.2/src/core/ipv4/etharp.c:152:3
	b	.LBB14_7
.LBB14_7:
.Ltmp423:
	.loc	5 152 3 is_stmt 0               @ rt-thread/components/net/lwip-2.0.2/src/core/ipv4/etharp.c:152:3
	ldr	r0, [sp, #4]
	ldr	r0, [r0, #4]
.Ltmp424:
	.loc	5 152 3                         @ rt-thread/components/net/lwip-2.0.2/src/core/ipv4/etharp.c:152:3
	cbnz	r0, .LBB14_11
	b	.LBB14_8
.LBB14_8:
.Ltmp425:
	.loc	5 152 3                         @ rt-thread/components/net/lwip-2.0.2/src/core/ipv4/etharp.c:152:3
	b	.LBB14_9
.LBB14_9:
.Ltmp426:
	.loc	5 152 3                         @ rt-thread/components/net/lwip-2.0.2/src/core/ipv4/etharp.c:152:3
	movw	r0, :lower16:.L.str.8
	movt	r0, :upper16:.L.str.8
	bl	rt_kprintf
	movw	r0, :lower16:.L.str.1
	movt	r0, :upper16:.L.str.1
	movs	r1, #152
	bl	sys_arch_assert
	b	.LBB14_10
.Ltmp427:
.LBB14_10:
	.loc	5 152 3                         @ rt-thread/components/net/lwip-2.0.2/src/core/ipv4/etharp.c:152:3
	b	.LBB14_11
.Ltmp428:
.LBB14_11:
	.loc	5 152 3                         @ rt-thread/components/net/lwip-2.0.2/src/core/ipv4/etharp.c:152:3
	b	.LBB14_12
.Ltmp429:
.LBB14_12:
	.loc	5 153 3 is_stmt 1               @ rt-thread/components/net/lwip-2.0.2/src/core/ipv4/etharp.c:153:3
	b	.LBB14_13
.LBB14_13:                              @ =>This Inner Loop Header: Depth=1
	.loc	5 153 10 is_stmt 0              @ rt-thread/components/net/lwip-2.0.2/src/core/ipv4/etharp.c:153:10
	ldr	r0, [sp, #4]
	.loc	5 153 3                         @ rt-thread/components/net/lwip-2.0.2/src/core/ipv4/etharp.c:153:3
	cbz	r0, .LBB14_21
	b	.LBB14_14
.LBB14_14:                              @   in Loop: Header=BB14_13 Depth=1
.Ltmp430:
	.loc	5 154 9 is_stmt 1               @ rt-thread/components/net/lwip-2.0.2/src/core/ipv4/etharp.c:154:9
	ldr	r0, [sp, #4]
	.loc	5 154 7 is_stmt 0               @ rt-thread/components/net/lwip-2.0.2/src/core/ipv4/etharp.c:154:7
	str	r0, [sp]
	.loc	5 155 9 is_stmt 1               @ rt-thread/components/net/lwip-2.0.2/src/core/ipv4/etharp.c:155:9
	ldr	r0, [sp, #4]
	.loc	5 155 12 is_stmt 0              @ rt-thread/components/net/lwip-2.0.2/src/core/ipv4/etharp.c:155:12
	ldr	r0, [r0]
	.loc	5 155 7                         @ rt-thread/components/net/lwip-2.0.2/src/core/ipv4/etharp.c:155:7
	str	r0, [sp, #4]
	.loc	5 156 5 is_stmt 1               @ rt-thread/components/net/lwip-2.0.2/src/core/ipv4/etharp.c:156:5
	b	.LBB14_15
.LBB14_15:                              @   in Loop: Header=BB14_13 Depth=1
.Ltmp431:
	.loc	5 156 5 is_stmt 0               @ rt-thread/components/net/lwip-2.0.2/src/core/ipv4/etharp.c:156:5
	ldr	r0, [sp]
	ldr	r0, [r0, #4]
.Ltmp432:
	.loc	5 156 5                         @ rt-thread/components/net/lwip-2.0.2/src/core/ipv4/etharp.c:156:5
	cbnz	r0, .LBB14_19
	b	.LBB14_16
.LBB14_16:                              @   in Loop: Header=BB14_13 Depth=1
.Ltmp433:
	.loc	5 156 5                         @ rt-thread/components/net/lwip-2.0.2/src/core/ipv4/etharp.c:156:5
	b	.LBB14_17
.LBB14_17:                              @   in Loop: Header=BB14_13 Depth=1
.Ltmp434:
	.loc	5 156 5                         @ rt-thread/components/net/lwip-2.0.2/src/core/ipv4/etharp.c:156:5
	movw	r0, :lower16:.L.str.9
	movt	r0, :upper16:.L.str.9
	bl	rt_kprintf
	movw	r0, :lower16:.L.str.1
	movt	r0, :upper16:.L.str.1
	movs	r1, #156
	bl	sys_arch_assert
	b	.LBB14_18
.Ltmp435:
.LBB14_18:                              @   in Loop: Header=BB14_13 Depth=1
	.loc	5 156 5                         @ rt-thread/components/net/lwip-2.0.2/src/core/ipv4/etharp.c:156:5
	b	.LBB14_19
.Ltmp436:
.LBB14_19:                              @   in Loop: Header=BB14_13 Depth=1
	.loc	5 156 5                         @ rt-thread/components/net/lwip-2.0.2/src/core/ipv4/etharp.c:156:5
	b	.LBB14_20
.Ltmp437:
.LBB14_20:                              @   in Loop: Header=BB14_13 Depth=1
	.loc	5 157 15 is_stmt 1              @ rt-thread/components/net/lwip-2.0.2/src/core/ipv4/etharp.c:157:15
	ldr	r0, [sp]
	.loc	5 157 18 is_stmt 0              @ rt-thread/components/net/lwip-2.0.2/src/core/ipv4/etharp.c:157:18
	ldr	r0, [r0, #4]
	.loc	5 157 5                         @ rt-thread/components/net/lwip-2.0.2/src/core/ipv4/etharp.c:157:5
	bl	pbuf_free
	.loc	5 158 31 is_stmt 1              @ rt-thread/components/net/lwip-2.0.2/src/core/ipv4/etharp.c:158:31
	ldr	r1, [sp]
	movs	r0, #9
	.loc	5 158 5 is_stmt 0               @ rt-thread/components/net/lwip-2.0.2/src/core/ipv4/etharp.c:158:5
	bl	memp_free
.Ltmp438:
	.loc	5 153 3 is_stmt 1               @ rt-thread/components/net/lwip-2.0.2/src/core/ipv4/etharp.c:153:3
	b	.LBB14_13
.LBB14_21:
	.loc	5 160 1                         @ rt-thread/components/net/lwip-2.0.2/src/core/ipv4/etharp.c:160:1
	add	sp, #8
	pop	{r7, pc}
.Ltmp439:
.Lfunc_end14:
	.size	free_etharp_q, .Lfunc_end14-free_etharp_q
	.cfi_endproc
	.cantunwind
	.fnend
                                        @ -- End function
	.type	arp_table,%object               @ @arp_table
	.section	.bss.arp_table,"aw",%nobits
	.p2align	2
arp_table:
	.zero	240
	.size	arp_table, 240

	.type	.L.str,%object                  @ @.str
	.section	.rodata.str1.1,"aMS",%progbits,1
.L.str:
	.asciz	"eth_ret != NULL && ip_ret != NULL"
	.size	.L.str, 34

	.type	.L.str.1,%object                @ @.str.1
.L.str.1:
	.asciz	"rt-thread/components/net/lwip-2.0.2/src/core/ipv4/etharp.c"
	.size	.L.str.1, 59

	.type	.L.str.2,%object                @ @.str.2
.L.str.2:
	.asciz	"ipaddr != NULL"
	.size	.L.str.2, 15

	.type	.L.str.3,%object                @ @.str.3
.L.str.3:
	.asciz	"netif != NULL"
	.size	.L.str.3, 14

	.type	.L.str.4,%object                @ @.str.4
.L.str.4:
	.asciz	"eth_ret != NULL"
	.size	.L.str.4, 16

	.type	.L.str.5,%object                @ @.str.5
.L.str.5:
	.asciz	"q != NULL"
	.size	.L.str.5, 10

	.type	etharp_cached_entry,%object     @ @etharp_cached_entry
	.section	.bss.etharp_cached_entry,"aw",%nobits
etharp_cached_entry:
	.byte	0                               @ 0x0
	.size	etharp_cached_entry, 1

	.type	.L.str.6,%object                @ @.str.6
	.section	.rodata.str1.1,"aMS",%progbits,1
.L.str.6:
	.asciz	"arp_table[i].state == PENDING or STABLE"
	.size	.L.str.6, 40

	.type	.L.str.7,%object                @ @.str.7
.L.str.7:
	.asciz	"no packet queues allowed!"
	.size	.L.str.7, 26

	.type	.L.str.8,%object                @ @.str.8
.L.str.8:
	.asciz	"q->p != NULL"
	.size	.L.str.8, 13

	.type	.L.str.9,%object                @ @.str.9
.L.str.9:
	.asciz	"r->p != NULL"
	.size	.L.str.9, 13

	.type	.L.str.10,%object               @ @.str.10
.L.str.10:
	.asciz	"state == ETHARP_STATE_PENDING || state >= ETHARP_STATE_STABLE"
	.size	.L.str.10, 62

	.type	.L.str.11,%object               @ @.str.11
.L.str.11:
	.asciz	"arp_table[i].q == NULL"
	.size	.L.str.11, 23

	.type	.L.str.12,%object               @ @.str.12
.L.str.12:
	.asciz	"i < ARP_TABLE_SIZE"
	.size	.L.str.12, 19

	.type	.L.str.13,%object               @ @.str.13
.L.str.13:
	.asciz	"arp_table[i].state == ETHARP_STATE_EMPTY"
	.size	.L.str.13, 41

	.type	.L.str.14,%object               @ @.str.14
.L.str.14:
	.asciz	"netif->hwaddr_len == ETH_HWADDR_LEN"
	.size	.L.str.14, 36

	.type	.L.str.15,%object               @ @.str.15
.L.str.15:
	.asciz	"arp_table[arp_idx].state >= ETHARP_STATE_STABLE"
	.size	.L.str.15, 48

	.type	.L.str.16,%object               @ @.str.16
.L.str.16:
	.asciz	"check that first pbuf can hold struct etharp_hdr"
	.size	.L.str.16, 49

	.type	.L.str.17,%object               @ @.str.17
.L.str.17:
	.asciz	"netif->hwaddr_len must be the same as ETH_HWADDR_LEN for etharp!"
	.size	.L.str.17, 65

	.section	".note.GNU-stack","",%progbits
	.eabi_attribute	30, 6	@ Tag_ABI_optimization_goals
	.ARM_attribute	16, 1	@ Tag_AV_eba