	.text
	.syntax unified
	.eabi_attribute	67, "2.09"	@ Tag_conformance
	.cpu	cortex-m7
	.eabi_attribute	6, 13	@ Tag_CPU_arch
	.eabi_attribute	7, 77	@ Tag_CPU_arch_profile
	.eabi_attribute	8, 0	@ Tag_ARM_ISA_use
	.eabi_attribute	9, 2	@ Tag_THUMB_ISA_use
	.fpu	fpv5-d16
	.eabi_attribute	36, 1	@ Tag_FP_HP_extension
	.eabi_attribute	34, 1	@ Tag_CPU_unaligned_access
	.eabi_attribute	17, 1	@ Tag_ABI_PCS_GOT_use
	.eabi_attribute	20, 2	@ Tag_ABI_FP_denormal
	.eabi_attribute	21, 0	@ Tag_ABI_FP_exceptions
	.eabi_attribute	23, 1	@ Tag_ABI_FP_number_model
	.eabi_attribute	24, 1	@ Tag_ABI_align_needed
	.eabi_attribute	25, 1	@ Tag_ABI_align_preserved
	.eabi_attribute	28, 1	@ Tag_ABI_VFP_args
	.eabi_attribute	38, 1	@ Tag_ABI_FP_16bit_format
	.eabi_attribute	18, 2	@ Tag_ABI_PCS_wchar_t
	.eabi_attribute	26, 1	@ Tag_ABI_enum_size
	.eabi_attribute	14, 0	@ Tag_ABI_PCS_R9_use
	.file	"ethernet.c"
	.file	1 "D:\\Keil_v5\\ARM\\ARMCLANG\\Bin\\..\\include" "stdint.h"
	.file	2 "E:\\Smart-access-control\\Hardware\\CODE" "./rt-thread/components/net/lwip-2.0.2/src/include\\lwip/arch.h"
	.file	3 "E:\\Smart-access-control\\Hardware\\CODE" "./rt-thread/components/net/lwip-2.0.2/src/include\\lwip/prot/ethernet.h"
	.file	4 "E:\\Smart-access-control\\Hardware\\CODE" "rt-thread/components/net/lwip-2.0.2/src/netif/ethernet.c"
	.file	5 "E:\\Smart-access-control\\Hardware\\CODE" "./rt-thread/components/net/lwip-2.0.2/src/include\\lwip/netif.h"
	.file	6 "E:\\Smart-access-control\\Hardware\\CODE" "./rt-thread/components/net/lwip-2.0.2/src/include\\lwip/err.h"
	.section	.text.ethernet_input,"ax",%progbits
	.hidden	ethernet_input                  @ -- Begin function ethernet_input
	.globl	ethernet_input
	.p2align	3
	.type	ethernet_input,%function
	.code	16                              @ @ethernet_input
	.thumb_func
ethernet_input:
.Lfunc_begin0:
	.loc	4 82 0                          @ rt-thread/components/net/lwip-2.0.2/src/netif/ethernet.c:82:0
	.fnstart
	.cfi_sections .debug_frame
	.cfi_startproc
@ %bb.0:
	@DEBUG_VALUE: ethernet_input:p <- $r0
	@DEBUG_VALUE: ethernet_input:netif <- $r1
	.save	{r4, r5, r6, r7, lr}
	push	{r4, r5, r6, r7, lr}
	.cfi_def_cfa_offset 20
	.cfi_offset lr, -4
	.cfi_offset r7, -8
	.cfi_offset r6, -12
	.cfi_offset r5, -16
	.cfi_offset r4, -20
	.pad	#4
	sub	sp, #4
	.cfi_def_cfa_offset 24
.Ltmp0:
	.loc	4 89 10 prologue_end            @ rt-thread/components/net/lwip-2.0.2/src/netif/ethernet.c:89:10
	ldrh	r6, [r0, #10]
	mov	r4, r0
.Ltmp1:
	@DEBUG_VALUE: ethernet_input:p <- $r4
	@DEBUG_VALUE: ethernet_input:ip_hdr_offset <- 14
	@DEBUG_VALUE: ethernet_input:p <- $r4
	.loc	4 89 7 is_stmt 0                @ rt-thread/components/net/lwip-2.0.2/src/netif/ethernet.c:89:7
	cmp	r6, #15
	@DEBUG_VALUE: ethernet_input:netif <- $r1
	blo	.LBB0_18
.Ltmp2:
@ %bb.1:
	@DEBUG_VALUE: ethernet_input:p <- $r4
	@DEBUG_VALUE: ethernet_input:netif <- $r1
	@DEBUG_VALUE: ethernet_input:ip_hdr_offset <- 14
	.loc	4 98 33 is_stmt 1               @ rt-thread/components/net/lwip-2.0.2/src/netif/ethernet.c:98:33
	ldr	r0, [r4, #4]
.Ltmp3:
	@DEBUG_VALUE: ethernet_input:ethhdr <- $r0
	.loc	4 0 33 is_stmt 0                @ rt-thread/components/net/lwip-2.0.2/src/netif/ethernet.c:0:33
	mov	r5, r1
.Ltmp4:
	@DEBUG_VALUE: ethernet_input:netif <- $r5
	@DEBUG_VALUE: ethernet_input:netif <- $r5
	.loc	4 140 7 is_stmt 1               @ rt-thread/components/net/lwip-2.0.2/src/netif/ethernet.c:140:7
	ldrb	r1, [r0]
.Ltmp5:
	.loc	4 107 18                        @ rt-thread/components/net/lwip-2.0.2/src/netif/ethernet.c:107:18
	ldrh	r7, [r0, #12]
.Ltmp6:
	@DEBUG_VALUE: ethernet_input:type <- undef
	.loc	4 140 7                         @ rt-thread/components/net/lwip-2.0.2/src/netif/ethernet.c:140:7
	lsls	r2, r1, #31
	beq	.LBB0_9
.Ltmp7:
@ %bb.2:
	@DEBUG_VALUE: ethernet_input:netif <- $r5
	@DEBUG_VALUE: ethernet_input:p <- $r4
	@DEBUG_VALUE: ethernet_input:ethhdr <- $r0
	@DEBUG_VALUE: ethernet_input:ip_hdr_offset <- 14
	.loc	4 142 9                         @ rt-thread/components/net/lwip-2.0.2/src/netif/ethernet.c:142:9
	cmp	r1, #1
	bne	.LBB0_6
.Ltmp8:
@ %bb.3:
	@DEBUG_VALUE: ethernet_input:netif <- $r5
	@DEBUG_VALUE: ethernet_input:p <- $r4
	@DEBUG_VALUE: ethernet_input:ethhdr <- $r0
	@DEBUG_VALUE: ethernet_input:ip_hdr_offset <- 14
	.loc	4 144 12                        @ rt-thread/components/net/lwip-2.0.2/src/netif/ethernet.c:144:12
	ldrb	r1, [r0, #1]
	.loc	4 144 61 is_stmt 0              @ rt-thread/components/net/lwip-2.0.2/src/netif/ethernet.c:144:61
	cbnz	r1, .LBB0_9
.Ltmp9:
@ %bb.4:
	@DEBUG_VALUE: ethernet_input:netif <- $r5
	@DEBUG_VALUE: ethernet_input:p <- $r4
	@DEBUG_VALUE: ethernet_input:ethhdr <- $r0
	@DEBUG_VALUE: ethernet_input:ip_hdr_offset <- 14
	.loc	4 145 12 is_stmt 1              @ rt-thread/components/net/lwip-2.0.2/src/netif/ethernet.c:145:12
	ldrb	r0, [r0, #2]
.Ltmp10:
	.loc	4 144 11                        @ rt-thread/components/net/lwip-2.0.2/src/netif/ethernet.c:144:11
	cmp	r0, #94
	bne	.LBB0_9
.Ltmp11:
@ %bb.5:
	@DEBUG_VALUE: ethernet_input:netif <- $r5
	@DEBUG_VALUE: ethernet_input:p <- $r4
	@DEBUG_VALUE: ethernet_input:ip_hdr_offset <- 14
	.loc	4 147 18                        @ rt-thread/components/net/lwip-2.0.2/src/netif/ethernet.c:147:18
	ldrb	r0, [r4, #13]
	orr	r0, r0, #16
	b	.LBB0_8
.Ltmp12:
.LBB0_6:
	@DEBUG_VALUE: ethernet_input:netif <- $r5
	@DEBUG_VALUE: ethernet_input:p <- $r4
	@DEBUG_VALUE: ethernet_input:ethhdr <- $r0
	@DEBUG_VALUE: ethernet_input:ip_hdr_offset <- 14
	.loc	4 158 14                        @ rt-thread/components/net/lwip-2.0.2/src/netif/ethernet.c:158:14
	movw	r1, :lower16:ethbroadcast
	movs	r2, #6
	movt	r1, :upper16:ethbroadcast
	bl	memcmp
.Ltmp13:
	.loc	4 158 14 is_stmt 0              @ rt-thread/components/net/lwip-2.0.2/src/netif/ethernet.c:158:14
	cbnz	r0, .LBB0_9
.Ltmp14:
@ %bb.7:
	@DEBUG_VALUE: ethernet_input:netif <- $r5
	@DEBUG_VALUE: ethernet_input:p <- $r4
	@DEBUG_VALUE: ethernet_input:ip_hdr_offset <- 14
	.loc	4 160 16 is_stmt 1              @ rt-thread/components/net/lwip-2.0.2/src/netif/ethernet.c:160:16
	ldrb	r0, [r4, #13]
	orr	r0, r0, #8
.Ltmp15:
.LBB0_8:
	@DEBUG_VALUE: ethernet_input:netif <- $r5
	@DEBUG_VALUE: ethernet_input:p <- $r4
	@DEBUG_VALUE: ethernet_input:ip_hdr_offset <- 14
	.loc	4 0 0 is_stmt 0                 @ rt-thread/components/net/lwip-2.0.2/src/netif/ethernet.c:0:0
	strb	r0, [r4, #13]
.Ltmp16:
.LBB0_9:
	@DEBUG_VALUE: ethernet_input:netif <- $r5
	@DEBUG_VALUE: ethernet_input:p <- $r4
	@DEBUG_VALUE: ethernet_input:ip_hdr_offset <- 14
	.loc	4 164 3 is_stmt 1               @ rt-thread/components/net/lwip-2.0.2/src/netif/ethernet.c:164:3
	cmp.w	r7, #1544
	beq	.LBB0_15
.Ltmp17:
@ %bb.10:
	@DEBUG_VALUE: ethernet_input:netif <- $r5
	@DEBUG_VALUE: ethernet_input:p <- $r4
	@DEBUG_VALUE: ethernet_input:ip_hdr_offset <- 14
	cmp	r7, #8
	bne	.LBB0_18
.Ltmp18:
@ %bb.11:
	@DEBUG_VALUE: ethernet_input:netif <- $r5
	@DEBUG_VALUE: ethernet_input:p <- $r4
	@DEBUG_VALUE: ethernet_input:ip_hdr_offset <- 14
	.loc	4 168 11                        @ rt-thread/components/net/lwip-2.0.2/src/netif/ethernet.c:168:11
	cmp	r6, #14
	blo	.LBB0_18
.Ltmp19:
@ %bb.12:
	@DEBUG_VALUE: ethernet_input:netif <- $r5
	@DEBUG_VALUE: ethernet_input:p <- $r4
	@DEBUG_VALUE: ethernet_input:ip_hdr_offset <- 14
	.loc	4 0 0 is_stmt 0                 @ rt-thread/components/net/lwip-2.0.2/src/netif/ethernet.c:0:0
	ldrb.w	r0, [r5, #65]
	ands	r0, r0, #8
	.loc	4 168 11                        @ rt-thread/components/net/lwip-2.0.2/src/netif/ethernet.c:168:11
	beq	.LBB0_18
.Ltmp20:
@ %bb.13:
	@DEBUG_VALUE: ethernet_input:netif <- $r5
	@DEBUG_VALUE: ethernet_input:p <- $r4
	@DEBUG_VALUE: ethernet_input:ip_hdr_offset <- 14
	.loc	4 172 39 is_stmt 1              @ rt-thread/components/net/lwip-2.0.2/src/netif/ethernet.c:172:39
	mvn	r1, #13
	mov	r0, r4
	bl	pbuf_header
.Ltmp21:
	.loc	4 172 11 is_stmt 0              @ rt-thread/components/net/lwip-2.0.2/src/netif/ethernet.c:172:11
	cbnz	r0, .LBB0_18
.Ltmp22:
@ %bb.14:
	@DEBUG_VALUE: ethernet_input:netif <- $r5
	@DEBUG_VALUE: ethernet_input:p <- $r4
	@DEBUG_VALUE: ethernet_input:ip_hdr_offset <- 14
	.loc	4 180 9 is_stmt 1               @ rt-thread/components/net/lwip-2.0.2/src/netif/ethernet.c:180:9
	mov	r0, r4
	mov	r1, r5
	bl	ip4_input
.Ltmp23:
	.loc	4 182 7                         @ rt-thread/components/net/lwip-2.0.2/src/netif/ethernet.c:182:7
	b	.LBB0_19
.Ltmp24:
.LBB0_15:
	@DEBUG_VALUE: ethernet_input:netif <- $r5
	@DEBUG_VALUE: ethernet_input:p <- $r4
	@DEBUG_VALUE: ethernet_input:ip_hdr_offset <- 14
	.loc	4 185 11                        @ rt-thread/components/net/lwip-2.0.2/src/netif/ethernet.c:185:11
	cmp	r6, #14
	blo	.LBB0_18
.Ltmp25:
@ %bb.16:
	@DEBUG_VALUE: ethernet_input:netif <- $r5
	@DEBUG_VALUE: ethernet_input:p <- $r4
	@DEBUG_VALUE: ethernet_input:ip_hdr_offset <- 14
	.loc	4 0 0 is_stmt 0                 @ rt-thread/components/net/lwip-2.0.2/src/netif/ethernet.c:0:0
	ldrb.w	r0, [r5, #65]
	ands	r0, r0, #8
	.loc	4 185 11                        @ rt-thread/components/net/lwip-2.0.2/src/netif/ethernet.c:185:11
	beq	.LBB0_18
.Ltmp26:
@ %bb.17:
	@DEBUG_VALUE: ethernet_input:netif <- $r5
	@DEBUG_VALUE: ethernet_input:p <- $r4
	@DEBUG_VALUE: ethernet_input:ip_hdr_offset <- 14
	.loc	4 189 39 is_stmt 1              @ rt-thread/components/net/lwip-2.0.2/src/netif/ethernet.c:189:39
	mvn	r1, #13
	mov	r0, r4
	bl	pbuf_header
.Ltmp27:
	.loc	4 189 11 is_stmt 0              @ rt-thread/components/net/lwip-2.0.2/src/netif/ethernet.c:189:11
	cbz	r0, .LBB0_20
.Ltmp28:
.LBB0_18:
	@DEBUG_VALUE: ethernet_input:p <- $r4
	@DEBUG_VALUE: ethernet_input:ip_hdr_offset <- 14
	@DEBUG_LABEL: ethernet_input:free_and_return
	.loc	4 245 3 is_stmt 1               @ rt-thread/components/net/lwip-2.0.2/src/netif/ethernet.c:245:3
	mov	r0, r4
	bl	pbuf_free
.Ltmp29:
.LBB0_19:
	@DEBUG_VALUE: ethernet_input:p <- $r4
	@DEBUG_VALUE: ethernet_input:ip_hdr_offset <- 14
	.loc	4 247 1                         @ rt-thread/components/net/lwip-2.0.2/src/netif/ethernet.c:247:1
	movs	r0, #0
	add	sp, #4
	pop	{r4, r5, r6, r7, pc}
.Ltmp30:
.LBB0_20:
	@DEBUG_VALUE: ethernet_input:netif <- $r5
	@DEBUG_VALUE: ethernet_input:p <- $r4
	@DEBUG_VALUE: ethernet_input:ip_hdr_offset <- 14
	.loc	4 199 9                         @ rt-thread/components/net/lwip-2.0.2/src/netif/ethernet.c:199:9
	mov	r0, r4
	mov	r1, r5
	bl	etharp_input
.Ltmp31:
	.loc	4 201 7                         @ rt-thread/components/net/lwip-2.0.2/src/netif/ethernet.c:201:7
	b	.LBB0_19
.Ltmp32:
.Lfunc_end0:
	.size	ethernet_input, .Lfunc_end0-ethernet_input
	.cfi_endproc
	.cantunwind
	.fnend
                                        @ -- End function
	.section	.text.ethernet_output,"ax",%progbits
	.hidden	ethernet_output                 @ -- Begin function ethernet_output
	.globl	ethernet_output
	.p2align	3
	.type	ethernet_output,%function
	.code	16                              @ @ethernet_output
	.thumb_func
ethernet_output:
.Lfunc_begin1:
	.loc	4 267 0                         @ rt-thread/components/net/lwip-2.0.2/src/netif/ethernet.c:267:0
	.fnstart
	.cfi_startproc
@ %bb.0:
	@DEBUG_VALUE: ethernet_output:netif <- $r0
	@DEBUG_VALUE: ethernet_output:p <- $r1
	@DEBUG_VALUE: ethernet_output:src <- $r2
	@DEBUG_VALUE: ethernet_output:dst <- $r3
	.save	{r4, r5, r6, r7, r8, lr}
	push.w	{r4, r5, r6, r7, r8, lr}
	.cfi_def_cfa_offset 24
	.cfi_offset lr, -4
	.cfi_offset r8, -8
	.cfi_offset r7, -12
	.cfi_offset r6, -16
	.cfi_offset r5, -20
	.cfi_offset r4, -24
	mov	r8, r0
.Ltmp33:
	@DEBUG_VALUE: ethernet_output:netif <- $r8
	ldr	r0, [sp, #24]
	@DEBUG_VALUE: ethernet_output:eth_type <- undef
.Ltmp34:
	@DEBUG_VALUE: ethernet_output:dst <- $r7
	@DEBUG_VALUE: ethernet_output:src <- $r6
	@DEBUG_VALUE: ethernet_output:p <- $r4
	@DEBUG_VALUE: ethernet_output:netif <- $r8
	mov	r7, r3
.Ltmp35:
	mov	r6, r2
.Ltmp36:
	mov	r4, r1
.Ltmp37:
	.loc	4 269 23 prologue_end           @ rt-thread/components/net/lwip-2.0.2/src/netif/ethernet.c:269:23
	bl	lwip_htons
	mov	r5, r0
.Ltmp38:
	@DEBUG_VALUE: ethernet_output:eth_type_be <- undef
	.loc	4 289 9                         @ rt-thread/components/net/lwip-2.0.2/src/netif/ethernet.c:289:9
	movs	r1, #14
	mov	r0, r4
	bl	pbuf_header
.Ltmp39:
	.loc	4 289 9 is_stmt 0               @ rt-thread/components/net/lwip-2.0.2/src/netif/ethernet.c:289:9
	cbz	r0, .LBB1_2
.Ltmp40:
@ %bb.1:
	@DEBUG_VALUE: ethernet_output:netif <- $r8
	.loc	4 0 9                           @ rt-thread/components/net/lwip-2.0.2/src/netif/ethernet.c:0:9
	movs	r0, #254
	.loc	4 312 1 is_stmt 1               @ rt-thread/components/net/lwip-2.0.2/src/netif/ethernet.c:312:1
	sxtb	r0, r0
	pop.w	{r4, r5, r6, r7, r8, pc}
.Ltmp41:
.LBB1_2:
	@DEBUG_VALUE: ethernet_output:netif <- $r8
	.loc	4 294 32                        @ rt-thread/components/net/lwip-2.0.2/src/netif/ethernet.c:294:32
	ldr	r0, [r4, #4]
.Ltmp42:
	@DEBUG_VALUE: ethernet_output:ethhdr <- $r0
	.loc	4 295 16                        @ rt-thread/components/net/lwip-2.0.2/src/netif/ethernet.c:295:16
	strh	r5, [r0, #12]
	.loc	4 296 3                         @ rt-thread/components/net/lwip-2.0.2/src/netif/ethernet.c:296:3
	ldrh	r1, [r7, #4]
	strh	r1, [r0, #4]
	ldr	r1, [r7]
	str	r1, [r0]
	.loc	4 297 3                         @ rt-thread/components/net/lwip-2.0.2/src/netif/ethernet.c:297:3
	ldrh	r1, [r6, #4]
	strh	r1, [r0, #10]
	ldr	r1, [r6]
	str.w	r1, [r0, #6]
.Ltmp43:
	.loc	4 299 3                         @ rt-thread/components/net/lwip-2.0.2/src/netif/ethernet.c:299:3
	ldrb.w	r0, [r8, #58]
.Ltmp44:
	.loc	4 299 3 is_stmt 0               @ rt-thread/components/net/lwip-2.0.2/src/netif/ethernet.c:299:3
	cmp	r0, #6
	beq	.LBB1_4
.Ltmp45:
@ %bb.3:
	@DEBUG_VALUE: ethernet_output:netif <- $r8
	.loc	4 299 3                         @ rt-thread/components/net/lwip-2.0.2/src/netif/ethernet.c:299:3
	adr	r0, .LCPI1_0
	bl	rt_kprintf
	adr	r0, .LCPI1_1
	mov.w	r1, #300
	bl	sys_arch_assert
.Ltmp46:
.LBB1_4:
	@DEBUG_VALUE: ethernet_output:netif <- $r8
	.loc	4 305 17 is_stmt 1              @ rt-thread/components/net/lwip-2.0.2/src/netif/ethernet.c:305:17
	ldr.w	r2, [r8, #24]
	.loc	4 305 10 is_stmt 0              @ rt-thread/components/net/lwip-2.0.2/src/netif/ethernet.c:305:10
	mov	r0, r8
	mov	r1, r4
	blx	r2
	.loc	4 312 1 is_stmt 1               @ rt-thread/components/net/lwip-2.0.2/src/netif/ethernet.c:312:1
	sxtb	r0, r0
	pop.w	{r4, r5, r6, r7, r8, pc}
.Ltmp47:
	.p2align	2
@ %bb.5:
	.loc	4 0 1 is_stmt 0                 @ rt-thread/components/net/lwip-2.0.2/src/netif/ethernet.c:0:1
.LCPI1_0:
.L.str:
	.asciz	"netif->hwaddr_len must be 6 for ethernet_output!\000\000\000"
.LCPI1_1:
.L.str.1:
	.asciz	"rt-thread/components/net/lwip-2.0.2/src/netif/ethernet.c\000\000\000"
.Lfunc_end1:
	.size	ethernet_output, .Lfunc_end1-ethernet_output
	.cfi_endproc
	.cantunwind
	.fnend
                                        @ -- End function
	.hidden	ethbroadcast                    @ @ethbroadcast
	.type	ethbroadcast,%object
	.section	.rodata.ethbroadcast,"a",%progbits
	.globl	ethbroadcast
ethbroadcast:
	.zero	6,255
	.size	ethbroadcast, 6

	.hidden	ethzero                         @ @ethzero
	.type	ethzero,%object
	.section	.rodata.ethzero,"a",%progbits
	.globl	ethzero
ethzero:
	.zero	6
	.size	ethzero, 6

	.file	7 "E:\\Smart-access-control\\Hardware\\CODE" "./rt-thread/components/net/lwip-2.0.2/src/include\\lwip/pbuf.h"
	.file	8 "E:\\Smart-access-control\\Hardware\\CODE" "./rt-thread/components/net/lwip-2.0.2/src/include\\lwip/ip4_addr.h"
	.file	9 "E:\\Smart-access-control\\Hardware\\CODE" "./rt-thread/components/net/lwip-2.0.2/src/include\\lwip/ip_addr.h"
	.section	".note.GNU-stack","",%progbits
	.eabi_attribute	30, 1	@ Tag_ABI_optimization_goals
	.ARM_attribute	16, 1	@ Tag_AV_eba