	.text
	.syntax unified
	.eabi_attribute	67, "2.09"	@ Tag_conformance
	.cpu	cortex-m7
	.eabi_attribute	6, 13	@ Tag_CPU_arch
	.eabi_attribute	7, 77	@ Tag_CPU_arch_profile
	.eabi_attribute	8, 0	@ Tag_ARM_ISA_use
	.eabi_attribute	9, 2	@ Tag_THUMB_ISA_use
	.fpu	fpv5-d16
	.eabi_attribute	36, 1	@ Tag_FP_HP_extension
	.eabi_attribute	34, 1	@ Tag_CPU_unaligned_access
	.eabi_attribute	17, 1	@ Tag_ABI_PCS_GOT_use
	.eabi_attribute	20, 2	@ Tag_ABI_FP_denormal
	.eabi_attribute	21, 0	@ Tag_ABI_FP_exceptions
	.eabi_attribute	23, 1	@ Tag_ABI_FP_number_model
	.eabi_attribute	24, 1	@ Tag_ABI_align_needed
	.eabi_attribute	25, 1	@ Tag_ABI_align_preserved
	.eabi_attribute	28, 1	@ Tag_ABI_VFP_args
	.eabi_attribute	38, 1	@ Tag_ABI_FP_16bit_format
	.eabi_attribute	18, 2	@ Tag_ABI_PCS_wchar_t
	.eabi_attribute	26, 1	@ Tag_ABI_enum_size
	.eabi_attribute	14, 0	@ Tag_ABI_PCS_R9_use
	.file	"ethernetif.c"
	.file	1 "E:\\STM32\\Learning\\STM32H750_ART_PI_RGBLCD" "rt-thread/include\\rtdef.h"
	.file	2 "E:\\STM32\\Learning\\STM32H750_ART_PI_RGBLCD" "./rt-thread/components/net/netdev/include\\netdev.h"
	.file	3 "D:\\Keil_v5\\ARM\\ARMCLANG\\Bin\\..\\include" "stdint.h"
	.file	4 "E:\\STM32\\Learning\\STM32H750_ART_PI_RGBLCD" "./rt-thread/components/net/lwip-2.0.2/src/include\\lwip/arch.h"
	.file	5 "E:\\STM32\\Learning\\STM32H750_ART_PI_RGBLCD" "./rt-thread/components/net/lwip-2.0.2/src/include\\lwip/ip4_addr.h"
	.file	6 "E:\\STM32\\Learning\\STM32H750_ART_PI_RGBLCD" "./rt-thread/components/net/lwip-2.0.2/src/include\\lwip/ip_addr.h"
	.file	7 "D:\\Keil_v5\\ARM\\ARMCLANG\\Bin\\..\\include" "stdlib.h"
	.file	8 "E:\\STM32\\Learning\\STM32H750_ART_PI_RGBLCD" "rt-thread/components/net/lwip-2.0.2/src/netif/ethernetif.c"
	.file	9 "E:\\STM32\\Learning\\STM32H750_ART_PI_RGBLCD" "rt-thread/components/finsh/finsh_api.h"
	.file	10 "E:\\STM32\\Learning\\STM32H750_ART_PI_RGBLCD" "./rt-thread/components/net/lwip-2.0.2/src/include\\lwip/err.h"
	.file	11 "E:\\STM32\\Learning\\STM32H750_ART_PI_RGBLCD" "./rt-thread/components/net/lwip-2.0.2/src/include\\lwip/netif.h"
	.file	12 "E:\\STM32\\Learning\\STM32H750_ART_PI_RGBLCD" "./rt-thread/components/net/lwip-2.0.2/src/include\\lwip/tcp.h"
	.file	13 "E:\\STM32\\Learning\\STM32H750_ART_PI_RGBLCD" "./rt-thread/components/net/lwip-2.0.2/src/include\\lwip/pbuf.h"
	.file	14 "E:\\STM32\\Learning\\STM32H750_ART_PI_RGBLCD" "./rt-thread/components/net/lwip-2.0.2/src/include\\lwip/priv/tcp_priv.h"
	.file	15 "E:\\STM32\\Learning\\STM32H750_ART_PI_RGBLCD" "./rt-thread/components/net/lwip-2.0.2/src/include\\lwip/prot/tcp.h"
	.file	16 "E:\\STM32\\Learning\\STM32H750_ART_PI_RGBLCD" "./rt-thread/components/net/lwip-2.0.2/src/include\\netif/ethernetif.h"
	.section	.text.lwip_netdev_ping,"ax",%progbits
	.hidden	lwip_netdev_ping                @ -- Begin function lwip_netdev_ping
	.globl	lwip_netdev_ping
	.p2align	3
	.type	lwip_netdev_ping,%function
	.code	16                              @ @lwip_netdev_ping
	.thumb_func
lwip_netdev_ping:
.Lfunc_begin0:
	.loc	8 188 0                         @ rt-thread/components/net/lwip-2.0.2/src/netif/ethernetif.c:188:0
	.fnstart
	.cfi_sections .debug_frame
	.cfi_startproc
@ %bb.0:
	.save	{r7, lr}
	push	{r7, lr}
	.cfi_def_cfa_offset 8
	.cfi_offset lr, -4
	.cfi_offset r7, -8
	.pad	#120
	sub	sp, #120
	.cfi_def_cfa_offset 128
	ldr.w	r12, [sp, #128]
	str	r0, [sp, #112]
	str	r1, [sp, #108]
	str	r2, [sp, #104]
	str	r3, [sp, #100]
	movs	r0, #0
.Ltmp0:
	.loc	8 189 27 prologue_end           @ rt-thread/components/net/lwip-2.0.2/src/netif/ethernetif.c:189:27
	str	r0, [sp, #84]
	.loc	8 193 37                        @ rt-thread/components/net/lwip-2.0.2/src/netif/ethernetif.c:193:37
	ldr	r2, [sp, #100]
	movw	r1, #19923
	movt	r1, #4194
	.loc	8 193 45 is_stmt 0              @ rt-thread/components/net/lwip-2.0.2/src/netif/ethernetif.c:193:45
	umull	r3, r2, r2, r1
	lsrs	r2, r2, #6
	.loc	8 193 35                        @ rt-thread/components/net/lwip-2.0.2/src/netif/ethernetif.c:193:35
	str	r2, [sp, #68]
	.loc	8 193 67                        @ rt-thread/components/net/lwip-2.0.2/src/netif/ethernetif.c:193:67
	ldr	r3, [sp, #100]
	.loc	8 193 75                        @ rt-thread/components/net/lwip-2.0.2/src/netif/ethernetif.c:193:75
	umull	r2, r1, r3, r1
	lsrs	r1, r1, #6
	mov.w	r2, #1000
	mls	r1, r1, r2, r3
	.loc	8 193 35                        @ rt-thread/components/net/lwip-2.0.2/src/netif/ethernetif.c:193:35
	str	r1, [sp, #72]
	.loc	8 198 28 is_stmt 1              @ rt-thread/components/net/lwip-2.0.2/src/netif/ethernetif.c:198:28
	str	r0, [sp, #28]
	.loc	8 199 25                        @ rt-thread/components/net/lwip-2.0.2/src/netif/ethernetif.c:199:25
	str	r0, [sp, #24]
.Ltmp1:
	.loc	8 202 5                         @ rt-thread/components/net/lwip-2.0.2/src/netif/ethernetif.c:202:5
	ldr	r0, [sp, #112]
.Ltmp2:
	.loc	8 202 5 is_stmt 0               @ rt-thread/components/net/lwip-2.0.2/src/netif/ethernetif.c:202:5
	cbnz	r0, .LBB0_2
	b	.LBB0_1
.LBB0_1:
.Ltmp3:
	.loc	8 202 5                         @ rt-thread/components/net/lwip-2.0.2/src/netif/ethernetif.c:202:5
	movw	r0, :lower16:.L.str
	movt	r0, :upper16:.L.str
	movw	r1, :lower16:.L__FUNCTION__.lwip_netdev_ping
	movt	r1, :upper16:.L__FUNCTION__.lwip_netdev_ping
	movs	r2, #202
	bl	rt_assert_handler
	b	.LBB0_2
.Ltmp4:
.LBB0_2:
	.loc	8 203 5 is_stmt 1               @ rt-thread/components/net/lwip-2.0.2/src/netif/ethernetif.c:203:5
	ldr	r0, [sp, #108]
.Ltmp5:
	.loc	8 203 5 is_stmt 0               @ rt-thread/components/net/lwip-2.0.2/src/netif/ethernetif.c:203:5
	cbnz	r0, .LBB0_4
	b	.LBB0_3
.LBB0_3:
.Ltmp6:
	.loc	8 203 5                         @ rt-thread/components/net/lwip-2.0.2/src/netif/ethernetif.c:203:5
	movw	r0, :lower16:.L.str.1
	movt	r0, :upper16:.L.str.1
	movw	r1, :lower16:.L__FUNCTION__.lwip_netdev_ping
	movt	r1, :upper16:.L__FUNCTION__.lwip_netdev_ping
	movs	r2, #203
	bl	rt_assert_handler
	b	.LBB0_4
.Ltmp7:
.LBB0_4:
	.loc	8 204 5 is_stmt 1               @ rt-thread/components/net/lwip-2.0.2/src/netif/ethernetif.c:204:5
	ldr	r0, [sp, #128]
.Ltmp8:
	.loc	8 204 5 is_stmt 0               @ rt-thread/components/net/lwip-2.0.2/src/netif/ethernetif.c:204:5
	cbnz	r0, .LBB0_6
	b	.LBB0_5
.LBB0_5:
.Ltmp9:
	.loc	8 204 5                         @ rt-thread/components/net/lwip-2.0.2/src/netif/ethernetif.c:204:5
	movw	r0, :lower16:.L.str.2
	movt	r0, :upper16:.L.str.2
	movw	r1, :lower16:.L__FUNCTION__.lwip_netdev_ping
	movt	r1, :upper16:.L__FUNCTION__.lwip_netdev_ping
	movs	r2, #204
	bl	rt_assert_handler
	b	.LBB0_6
.Ltmp10:
.LBB0_6:
	.loc	8 0 5                           @ rt-thread/components/net/lwip-2.0.2/src/netif/ethernetif.c:0:5
	add	r0, sp, #32
	str	r0, [sp, #16]                   @ 4-byte Spill
	movs	r1, #0
	str	r1, [sp, #12]                   @ 4-byte Spill
	movs	r2, #32
	.loc	8 206 5 is_stmt 1               @ rt-thread/components/net/lwip-2.0.2/src/netif/ethernetif.c:206:5
	bl	rt_memset
	ldr	r1, [sp, #12]                   @ 4-byte Reload
	ldr	r2, [sp, #16]                   @ 4-byte Reload
.Ltmp11:
	.loc	8 208 26                        @ rt-thread/components/net/lwip-2.0.2/src/netif/ethernetif.c:208:26
	ldr	r0, [sp, #108]
	add	r3, sp, #28
	.loc	8 208 9 is_stmt 0               @ rt-thread/components/net/lwip-2.0.2/src/netif/ethernetif.c:208:9
	bl	lwip_getaddrinfo
.Ltmp12:
	.loc	8 208 9                         @ rt-thread/components/net/lwip-2.0.2/src/netif/ethernetif.c:208:9
	cbz	r0, .LBB0_8
	b	.LBB0_7
.LBB0_7:
	.loc	8 0 9                           @ rt-thread/components/net/lwip-2.0.2/src/netif/ethernetif.c:0:9
	mov.w	r0, #-1
.Ltmp13:
	.loc	8 210 9 is_stmt 1               @ rt-thread/components/net/lwip-2.0.2/src/netif/ethernetif.c:210:9
	str	r0, [sp, #116]
	b	.LBB0_20
.Ltmp14:
.LBB0_8:
	.loc	8 212 20                        @ rt-thread/components/net/lwip-2.0.2/src/netif/ethernetif.c:212:20
	ldr	r0, [sp, #28]
	.loc	8 212 25 is_stmt 0              @ rt-thread/components/net/lwip-2.0.2/src/netif/ethernetif.c:212:25
	add.w	r1, r0, #20
	add	r0, sp, #24
	movs	r2, #4
	.loc	8 212 5                         @ rt-thread/components/net/lwip-2.0.2/src/netif/ethernetif.c:212:5
	str	r2, [sp, #4]                    @ 4-byte Spill
	bl	rt_memcpy
	ldr	r2, [sp, #4]                    @ 4-byte Reload
	.loc	8 213 22 is_stmt 1              @ rt-thread/components/net/lwip-2.0.2/src/netif/ethernetif.c:213:22
	ldr	r0, [sp, #24]
	.loc	8 213 25 is_stmt 0              @ rt-thread/components/net/lwip-2.0.2/src/netif/ethernetif.c:213:25
	adds	r1, r0, #4
	add	r0, sp, #20
	.loc	8 213 5                         @ rt-thread/components/net/lwip-2.0.2/src/netif/ethernetif.c:213:5
	str	r0, [sp, #8]                    @ 4-byte Spill
	bl	rt_memcpy
	.loc	8 214 23 is_stmt 1              @ rt-thread/components/net/lwip-2.0.2/src/netif/ethernetif.c:214:23
	ldr	r0, [sp, #28]
	.loc	8 214 5 is_stmt 0               @ rt-thread/components/net/lwip-2.0.2/src/netif/ethernetif.c:214:5
	bl	lwip_freeaddrinfo
	ldr	r0, [sp, #8]                    @ 4-byte Reload
.Ltmp15:
	.loc	8 215 9 is_stmt 1               @ rt-thread/components/net/lwip-2.0.2/src/netif/ethernetif.c:215:9
	bl	ip4addr_ntoa
	add	r1, sp, #64
	bl	ip4addr_aton
.Ltmp16:
	.loc	8 215 9 is_stmt 0               @ rt-thread/components/net/lwip-2.0.2/src/netif/ethernetif.c:215:9
	cbnz	r0, .LBB0_10
	b	.LBB0_9
.LBB0_9:
	.loc	8 0 9                           @ rt-thread/components/net/lwip-2.0.2/src/netif/ethernetif.c:0:9
	mov.w	r0, #-1
.Ltmp17:
	.loc	8 217 9 is_stmt 1               @ rt-thread/components/net/lwip-2.0.2/src/netif/ethernetif.c:217:9
	str	r0, [sp, #116]
	b	.LBB0_20
.Ltmp18:
.LBB0_10:
	.loc	8 219 17                        @ rt-thread/components/net/lwip-2.0.2/src/netif/ethernetif.c:219:17
	ldr	r0, [sp, #128]
	add	r1, sp, #64
	movs	r2, #4
	.loc	8 219 5 is_stmt 0               @ rt-thread/components/net/lwip-2.0.2/src/netif/ethernetif.c:219:5
	bl	rt_memcpy
	movs	r0, #2
	movs	r1, #3
	movs	r2, #1
.Ltmp19:
	.loc	8 222 14 is_stmt 1              @ rt-thread/components/net/lwip-2.0.2/src/netif/ethernetif.c:222:14
	bl	lwip_socket
	.loc	8 222 12 is_stmt 0              @ rt-thread/components/net/lwip-2.0.2/src/netif/ethernetif.c:222:12
	str	r0, [sp, #96]
.Ltmp20:
	.loc	8 222 9                         @ rt-thread/components/net/lwip-2.0.2/src/netif/ethernetif.c:222:9
	cmp.w	r0, #-1
	bgt	.LBB0_12
	b	.LBB0_11
.LBB0_11:
	.loc	8 0 9                           @ rt-thread/components/net/lwip-2.0.2/src/netif/ethernetif.c:0:9
	mov.w	r0, #-1
.Ltmp21:
	.loc	8 224 9 is_stmt 1               @ rt-thread/components/net/lwip-2.0.2/src/netif/ethernetif.c:224:9
	str	r0, [sp, #116]
	b	.LBB0_20
.Ltmp22:
.LBB0_12:
	.loc	8 227 21                        @ rt-thread/components/net/lwip-2.0.2/src/netif/ethernetif.c:227:21
	ldr	r0, [sp, #96]
	.loc	8 227 5 is_stmt 0               @ rt-thread/components/net/lwip-2.0.2/src/netif/ethernetif.c:227:5
	mov	r2, sp
	movs	r1, #8
	str	r1, [r2]
	movw	r1, #4095
	movw	r2, #4102
	add	r3, sp, #68
	bl	lwip_setsockopt
.Ltmp23:
	.loc	8 229 24 is_stmt 1              @ rt-thread/components/net/lwip-2.0.2/src/netif/ethernetif.c:229:24
	ldr	r0, [sp, #96]
	.loc	8 229 41 is_stmt 0              @ rt-thread/components/net/lwip-2.0.2/src/netif/ethernetif.c:229:41
	ldr	r2, [sp, #104]
	add	r1, sp, #64
	.loc	8 229 9                         @ rt-thread/components/net/lwip-2.0.2/src/netif/ethernetif.c:229:9
	bl	lwip_ping_send
.Ltmp24:
	.loc	8 229 9                         @ rt-thread/components/net/lwip-2.0.2/src/netif/ethernetif.c:229:9
	cbnz	r0, .LBB0_17
	b	.LBB0_13
.LBB0_13:
.Ltmp25:
	.loc	8 231 27 is_stmt 1              @ rt-thread/components/net/lwip-2.0.2/src/netif/ethernetif.c:231:27
	bl	rt_tick_get
	.loc	8 231 25 is_stmt 0              @ rt-thread/components/net/lwip-2.0.2/src/netif/ethernetif.c:231:25
	str	r0, [sp, #76]
.Ltmp26:
	.loc	8 232 40 is_stmt 1              @ rt-thread/components/net/lwip-2.0.2/src/netif/ethernetif.c:232:40
	ldr	r0, [sp, #96]
	add	r1, sp, #92
	.loc	8 232 25 is_stmt 0              @ rt-thread/components/net/lwip-2.0.2/src/netif/ethernetif.c:232:25
	bl	lwip_ping_recv
	.loc	8 232 23                        @ rt-thread/components/net/lwip-2.0.2/src/netif/ethernetif.c:232:23
	str	r0, [sp, #88]
.Ltmp27:
	.loc	8 232 13                        @ rt-thread/components/net/lwip-2.0.2/src/netif/ethernetif.c:232:13
	cmp	r0, #0
	bmi	.LBB0_15
	b	.LBB0_14
.LBB0_14:
.Ltmp28:
	.loc	8 234 29 is_stmt 1              @ rt-thread/components/net/lwip-2.0.2/src/netif/ethernetif.c:234:29
	bl	rt_tick_get
	.loc	8 234 45 is_stmt 0              @ rt-thread/components/net/lwip-2.0.2/src/netif/ethernetif.c:234:45
	ldr	r1, [sp, #76]
	.loc	8 234 43                        @ rt-thread/components/net/lwip-2.0.2/src/netif/ethernetif.c:234:43
	subs	r0, r0, r1
	mov.w	r1, #1000
	.loc	8 234 62                        @ rt-thread/components/net/lwip-2.0.2/src/netif/ethernetif.c:234:62
	muls	r0, r1, r0
	movw	r1, #19923
	movt	r1, #4194
	.loc	8 234 71                        @ rt-thread/components/net/lwip-2.0.2/src/netif/ethernetif.c:234:71
	umull	r1, r0, r0, r1
	lsrs	r0, r0, #6
	.loc	8 234 26                        @ rt-thread/components/net/lwip-2.0.2/src/netif/ethernetif.c:234:26
	str	r0, [sp, #80]
	.loc	8 235 35 is_stmt 1              @ rt-thread/components/net/lwip-2.0.2/src/netif/ethernetif.c:235:35
	ldr	r0, [sp, #88]
	.loc	8 235 13 is_stmt 0              @ rt-thread/components/net/lwip-2.0.2/src/netif/ethernetif.c:235:13
	ldr	r1, [sp, #128]
	.loc	8 235 33                        @ rt-thread/components/net/lwip-2.0.2/src/netif/ethernetif.c:235:33
	strh	r0, [r1, #4]
	.loc	8 236 30 is_stmt 1              @ rt-thread/components/net/lwip-2.0.2/src/netif/ethernetif.c:236:30
	ldr	r0, [sp, #92]
	.loc	8 236 13 is_stmt 0              @ rt-thread/components/net/lwip-2.0.2/src/netif/ethernetif.c:236:13
	ldr	r1, [sp, #128]
	.loc	8 236 28                        @ rt-thread/components/net/lwip-2.0.2/src/netif/ethernetif.c:236:28
	strh	r0, [r1, #6]
	.loc	8 237 32 is_stmt 1              @ rt-thread/components/net/lwip-2.0.2/src/netif/ethernetif.c:237:32
	ldr	r0, [sp, #80]
	.loc	8 237 13 is_stmt 0              @ rt-thread/components/net/lwip-2.0.2/src/netif/ethernetif.c:237:13
	ldr	r1, [sp, #128]
	.loc	8 237 30                        @ rt-thread/components/net/lwip-2.0.2/src/netif/ethernetif.c:237:30
	str	r0, [r1, #8]
	.loc	8 238 9 is_stmt 1               @ rt-thread/components/net/lwip-2.0.2/src/netif/ethernetif.c:238:9
	b	.LBB0_16
.Ltmp29:
.LBB0_15:
	.loc	8 0 9 is_stmt 0                 @ rt-thread/components/net/lwip-2.0.2/src/netif/ethernetif.c:0:9
	mvn	r0, #1
.Ltmp30:
	.loc	8 241 20 is_stmt 1              @ rt-thread/components/net/lwip-2.0.2/src/netif/ethernetif.c:241:20
	str	r0, [sp, #84]
	.loc	8 242 13                        @ rt-thread/components/net/lwip-2.0.2/src/netif/ethernetif.c:242:13
	b	.LBB0_19
.Ltmp31:
.LBB0_16:
	.loc	8 244 5                         @ rt-thread/components/net/lwip-2.0.2/src/netif/ethernetif.c:244:5
	b	.LBB0_18
.Ltmp32:
.LBB0_17:
	.loc	8 0 5 is_stmt 0                 @ rt-thread/components/net/lwip-2.0.2/src/netif/ethernetif.c:0:5
	mvn	r0, #1
.Ltmp33:
	.loc	8 247 16 is_stmt 1              @ rt-thread/components/net/lwip-2.0.2/src/netif/ethernetif.c:247:16
	str	r0, [sp, #84]
	.loc	8 248 9                         @ rt-thread/components/net/lwip-2.0.2/src/netif/ethernetif.c:248:9
	b	.LBB0_19
.Ltmp34:
.LBB0_18:
	.loc	8 229 54                        @ rt-thread/components/net/lwip-2.0.2/src/netif/ethernetif.c:229:54
	b	.LBB0_19
.Ltmp35:
.LBB0_19:
	@DEBUG_LABEL: lwip_netdev_ping:__exit
	.loc	8 252 16                        @ rt-thread/components/net/lwip-2.0.2/src/netif/ethernetif.c:252:16
	ldr	r0, [sp, #96]
	.loc	8 252 5 is_stmt 0               @ rt-thread/components/net/lwip-2.0.2/src/netif/ethernetif.c:252:5
	bl	lwip_close
	.loc	8 254 12 is_stmt 1              @ rt-thread/components/net/lwip-2.0.2/src/netif/ethernetif.c:254:12
	ldr	r0, [sp, #84]
	.loc	8 254 5 is_stmt 0               @ rt-thread/components/net/lwip-2.0.2/src/netif/ethernetif.c:254:5
	str	r0, [sp, #116]
	b	.LBB0_20
.LBB0_20:
	.loc	8 255 1 is_stmt 1               @ rt-thread/components/net/lwip-2.0.2/src/netif/ethernetif.c:255:1
	ldr	r0, [sp, #116]
	add	sp, #120
	pop	{r7, pc}
.Ltmp36:
.Lfunc_end0:
	.size	lwip_netdev_ping, .Lfunc_end0-lwip_netdev_ping
	.cfi_endproc
	.cantunwind
	.fnend
                                        @ -- End function
	.section	.text.lwip_netdev_netstat,"ax",%progbits
	.hidden	lwip_netdev_netstat             @ -- Begin function lwip_netdev_netstat
	.globl	lwip_netdev_netstat
	.p2align	3
	.type	lwip_netdev_netstat,%function
	.code	16                              @ @lwip_netdev_netstat
	.thumb_func
lwip_netdev_netstat:
.Lfunc_begin1:
	.loc	8 260 0                         @ rt-thread/components/net/lwip-2.0.2/src/netif/ethernetif.c:260:0
	.fnstart
	.cfi_startproc
@ %bb.0:
	.save	{r7, lr}
	push	{r7, lr}
	.cfi_def_cfa_offset 8
	.cfi_offset lr, -4
	.cfi_offset r7, -8
	.pad	#8
	sub	sp, #8
	.cfi_def_cfa_offset 16
	str	r0, [sp, #4]
.Ltmp37:
	.loc	8 265 5 prologue_end            @ rt-thread/components/net/lwip-2.0.2/src/netif/ethernetif.c:265:5
	bl	list_tcps
	.loc	8 268 5                         @ rt-thread/components/net/lwip-2.0.2/src/netif/ethernetif.c:268:5
	bl	list_udps
	.loc	8 270 1                         @ rt-thread/components/net/lwip-2.0.2/src/netif/ethernetif.c:270:1
	add	sp, #8
	pop	{r7, pc}
.Ltmp38:
.Lfunc_end1:
	.size	lwip_netdev_netstat, .Lfunc_end1-lwip_netdev_netstat
	.cfi_endproc
	.cantunwind
	.fnend
                                        @ -- End function
	.section	.text.list_tcps,"ax",%progbits
	.hidden	list_tcps                       @ -- Begin function list_tcps
	.globl	list_tcps
	.p2align	3
	.type	list_tcps,%function
	.code	16                              @ @list_tcps
	.thumb_func
list_tcps:
.Lfunc_begin2:
	.loc	8 917 0                         @ rt-thread/components/net/lwip-2.0.2/src/netif/ethernetif.c:917:0
	.fnstart
	.cfi_startproc
@ %bb.0:
	.save	{r4, r5, r7, lr}
	push	{r4, r5, r7, lr}
	.cfi_def_cfa_offset 16
	.cfi_offset lr, -4
	.cfi_offset r7, -8
	.cfi_offset r5, -12
	.cfi_offset r4, -16
	.pad	#72
	sub	sp, #72
	.cfi_def_cfa_offset 88
	movs	r0, #0
.Ltmp39:
	.loc	8 918 17 prologue_end           @ rt-thread/components/net/lwip-2.0.2/src/netif/ethernetif.c:918:17
	str	r0, [sp, #68]
	.loc	8 927 5                         @ rt-thread/components/net/lwip-2.0.2/src/netif/ethernetif.c:927:5
	bl	rt_enter_critical
	.loc	8 928 5                         @ rt-thread/components/net/lwip-2.0.2/src/netif/ethernetif.c:928:5
	movw	r0, :lower16:.L.str.33
	movt	r0, :upper16:.L.str.33
	bl	rt_kprintf
.Ltmp40:
	.loc	8 929 15                        @ rt-thread/components/net/lwip-2.0.2/src/netif/ethernetif.c:929:15
	movw	r0, :lower16:tcp_active_pcbs
	movt	r0, :upper16:tcp_active_pcbs
	ldr	r0, [r0]
	.loc	8 929 13 is_stmt 0              @ rt-thread/components/net/lwip-2.0.2/src/netif/ethernetif.c:929:13
	str	r0, [sp, #64]
	.loc	8 929 9                         @ rt-thread/components/net/lwip-2.0.2/src/netif/ethernetif.c:929:9
	b	.LBB2_1
.LBB2_1:                                @ =>This Inner Loop Header: Depth=1
.Ltmp41:
	.loc	8 929 32                        @ rt-thread/components/net/lwip-2.0.2/src/netif/ethernetif.c:929:32
	ldr	r0, [sp, #64]
.Ltmp42:
	.loc	8 929 5                         @ rt-thread/components/net/lwip-2.0.2/src/netif/ethernetif.c:929:5
	cmp	r0, #0
	beq	.LBB2_4
	b	.LBB2_2
.LBB2_2:                                @   in Loop: Header=BB2_1 Depth=1
.Ltmp43:
	.loc	8 931 30 is_stmt 1              @ rt-thread/components/net/lwip-2.0.2/src/netif/ethernetif.c:931:30
	ldr	r0, [sp, #64]
	bl	ip4addr_ntoa
	mov	r1, r0
	add	r0, sp, #48
	.loc	8 931 9 is_stmt 0               @ rt-thread/components/net/lwip-2.0.2/src/netif/ethernetif.c:931:9
	str	r0, [sp, #24]                   @ 4-byte Spill
	bl	strcpy
	.loc	8 932 31 is_stmt 1              @ rt-thread/components/net/lwip-2.0.2/src/netif/ethernetif.c:932:31
	ldr	r0, [sp, #64]
	adds	r0, #4
	bl	ip4addr_ntoa
	mov	r1, r0
	add	r0, sp, #32
	.loc	8 932 9 is_stmt 0               @ rt-thread/components/net/lwip-2.0.2/src/netif/ethernetif.c:932:9
	str	r0, [sp, #28]                   @ 4-byte Spill
	bl	strcpy
	ldr	r2, [sp, #24]                   @ 4-byte Reload
                                        @ kill: def $r1 killed $r0
	.loc	8 935 23 is_stmt 1              @ rt-thread/components/net/lwip-2.0.2/src/netif/ethernetif.c:935:23
	ldr	r0, [sp, #28]                   @ 4-byte Reload
	ldr	r1, [sp, #68]
	adds	r3, r1, #1
	str	r3, [sp, #68]
	.loc	8 937 20                        @ rt-thread/components/net/lwip-2.0.2/src/netif/ethernetif.c:937:20
	ldr.w	r12, [sp, #64]
	.loc	8 937 25 is_stmt 0              @ rt-thread/components/net/lwip-2.0.2/src/netif/ethernetif.c:937:25
	ldrh.w	r3, [r12, #22]
	.loc	8 939 25 is_stmt 1              @ rt-thread/components/net/lwip-2.0.2/src/netif/ethernetif.c:939:25
	ldrh.w	lr, [r12, #24]
	.loc	8 941 25                        @ rt-thread/components/net/lwip-2.0.2/src/netif/ethernetif.c:941:25
	ldr.w	r5, [r12, #36]
	.loc	8 940 25                        @ rt-thread/components/net/lwip-2.0.2/src/netif/ethernetif.c:940:25
	ldr.w	r4, [r12, #76]
	.loc	8 934 9                         @ rt-thread/components/net/lwip-2.0.2/src/netif/ethernetif.c:934:9
	mov	r12, sp
	str.w	r5, [r12, #12]
	str.w	r4, [r12, #8]
	str.w	lr, [r12, #4]
	str.w	r0, [r12]
	movw	r0, :lower16:.L.str.34
	movt	r0, :upper16:.L.str.34
	bl	rt_kprintf
	.loc	8 942 55                        @ rt-thread/components/net/lwip-2.0.2/src/netif/ethernetif.c:942:55
	ldr	r0, [sp, #64]
	.loc	8 942 60 is_stmt 0              @ rt-thread/components/net/lwip-2.0.2/src/netif/ethernetif.c:942:60
	ldrb	r0, [r0, #20]
	.loc	8 942 35                        @ rt-thread/components/net/lwip-2.0.2/src/netif/ethernetif.c:942:35
	bl	tcp_debug_state_str
	mov	r1, r0
	.loc	8 942 9                         @ rt-thread/components/net/lwip-2.0.2/src/netif/ethernetif.c:942:9
	movw	r0, :lower16:.L.str.35
	movt	r0, :upper16:.L.str.35
	bl	rt_kprintf
	.loc	8 943 5 is_stmt 1               @ rt-thread/components/net/lwip-2.0.2/src/netif/ethernetif.c:943:5
	b	.LBB2_3
.Ltmp44:
.LBB2_3:                                @   in Loop: Header=BB2_1 Depth=1
	.loc	8 929 51                        @ rt-thread/components/net/lwip-2.0.2/src/netif/ethernetif.c:929:51
	ldr	r0, [sp, #64]
	.loc	8 929 56 is_stmt 0              @ rt-thread/components/net/lwip-2.0.2/src/netif/ethernetif.c:929:56
	ldr	r0, [r0, #12]
	.loc	8 929 49                        @ rt-thread/components/net/lwip-2.0.2/src/netif/ethernetif.c:929:49
	str	r0, [sp, #64]
	.loc	8 929 5                         @ rt-thread/components/net/lwip-2.0.2/src/netif/ethernetif.c:929:5
	b	.LBB2_1
.Ltmp45:
.LBB2_4:
	.loc	8 945 5 is_stmt 1               @ rt-thread/components/net/lwip-2.0.2/src/netif/ethernetif.c:945:5
	movw	r0, :lower16:.L.str.36
	movt	r0, :upper16:.L.str.36
	bl	rt_kprintf
	movs	r0, #0
	.loc	8 946 9                         @ rt-thread/components/net/lwip-2.0.2/src/netif/ethernetif.c:946:9
	str	r0, [sp, #68]
.Ltmp46:
	.loc	8 947 49                        @ rt-thread/components/net/lwip-2.0.2/src/netif/ethernetif.c:947:49
	movw	r0, :lower16:tcp_listen_pcbs
	movt	r0, :upper16:tcp_listen_pcbs
	ldr	r0, [r0]
	.loc	8 947 13 is_stmt 0              @ rt-thread/components/net/lwip-2.0.2/src/netif/ethernetif.c:947:13
	str	r0, [sp, #64]
	.loc	8 947 9                         @ rt-thread/components/net/lwip-2.0.2/src/netif/ethernetif.c:947:9
	b	.LBB2_5
.LBB2_5:                                @ =>This Inner Loop Header: Depth=1
.Ltmp47:
	.loc	8 947 55                        @ rt-thread/components/net/lwip-2.0.2/src/netif/ethernetif.c:947:55
	ldr	r0, [sp, #64]
.Ltmp48:
	.loc	8 947 5                         @ rt-thread/components/net/lwip-2.0.2/src/netif/ethernetif.c:947:5
	cbz	r0, .LBB2_8
	b	.LBB2_6
.LBB2_6:                                @   in Loop: Header=BB2_5 Depth=1
.Ltmp49:
	.loc	8 949 45 is_stmt 1              @ rt-thread/components/net/lwip-2.0.2/src/netif/ethernetif.c:949:45
	ldr	r1, [sp, #68]
	adds	r0, r1, #1
	str	r0, [sp, #68]
	.loc	8 949 49 is_stmt 0              @ rt-thread/components/net/lwip-2.0.2/src/netif/ethernetif.c:949:49
	ldr	r0, [sp, #64]
	.loc	8 949 54                        @ rt-thread/components/net/lwip-2.0.2/src/netif/ethernetif.c:949:54
	ldrh	r2, [r0, #22]
	.loc	8 949 9                         @ rt-thread/components/net/lwip-2.0.2/src/netif/ethernetif.c:949:9
	movw	r0, :lower16:.L.str.37
	movt	r0, :upper16:.L.str.37
	bl	rt_kprintf
	.loc	8 950 55 is_stmt 1              @ rt-thread/components/net/lwip-2.0.2/src/netif/ethernetif.c:950:55
	ldr	r0, [sp, #64]
	.loc	8 950 60 is_stmt 0              @ rt-thread/components/net/lwip-2.0.2/src/netif/ethernetif.c:950:60
	ldrb	r0, [r0, #20]
	.loc	8 950 35                        @ rt-thread/components/net/lwip-2.0.2/src/netif/ethernetif.c:950:35
	bl	tcp_debug_state_str
	mov	r1, r0
	.loc	8 950 9                         @ rt-thread/components/net/lwip-2.0.2/src/netif/ethernetif.c:950:9
	movw	r0, :lower16:.L.str.35
	movt	r0, :upper16:.L.str.35
	bl	rt_kprintf
	.loc	8 951 5 is_stmt 1               @ rt-thread/components/net/lwip-2.0.2/src/netif/ethernetif.c:951:5
	b	.LBB2_7
.Ltmp50:
.LBB2_7:                                @   in Loop: Header=BB2_5 Depth=1
	.loc	8 947 74                        @ rt-thread/components/net/lwip-2.0.2/src/netif/ethernetif.c:947:74
	ldr	r0, [sp, #64]
	.loc	8 947 79 is_stmt 0              @ rt-thread/components/net/lwip-2.0.2/src/netif/ethernetif.c:947:79
	ldr	r0, [r0, #12]
	.loc	8 947 72                        @ rt-thread/components/net/lwip-2.0.2/src/netif/ethernetif.c:947:72
	str	r0, [sp, #64]
	.loc	8 947 5                         @ rt-thread/components/net/lwip-2.0.2/src/netif/ethernetif.c:947:5
	b	.LBB2_5
.Ltmp51:
.LBB2_8:
	.loc	8 953 5 is_stmt 1               @ rt-thread/components/net/lwip-2.0.2/src/netif/ethernetif.c:953:5
	movw	r0, :lower16:.L.str.38
	movt	r0, :upper16:.L.str.38
	bl	rt_kprintf
	movs	r0, #0
	.loc	8 954 9                         @ rt-thread/components/net/lwip-2.0.2/src/netif/ethernetif.c:954:9
	str	r0, [sp, #68]
.Ltmp52:
	.loc	8 955 15                        @ rt-thread/components/net/lwip-2.0.2/src/netif/ethernetif.c:955:15
	movw	r0, :lower16:tcp_tw_pcbs
	movt	r0, :upper16:tcp_tw_pcbs
	ldr	r0, [r0]
	.loc	8 955 13 is_stmt 0              @ rt-thread/components/net/lwip-2.0.2/src/netif/ethernetif.c:955:13
	str	r0, [sp, #64]
	.loc	8 955 9                         @ rt-thread/components/net/lwip-2.0.2/src/netif/ethernetif.c:955:9
	b	.LBB2_9
.LBB2_9:                                @ =>This Inner Loop Header: Depth=1
.Ltmp53:
	.loc	8 955 28                        @ rt-thread/components/net/lwip-2.0.2/src/netif/ethernetif.c:955:28
	ldr	r0, [sp, #64]
.Ltmp54:
	.loc	8 955 5                         @ rt-thread/components/net/lwip-2.0.2/src/netif/ethernetif.c:955:5
	cmp	r0, #0
	beq	.LBB2_12
	b	.LBB2_10
.LBB2_10:                               @   in Loop: Header=BB2_9 Depth=1
.Ltmp55:
	.loc	8 957 30 is_stmt 1              @ rt-thread/components/net/lwip-2.0.2/src/netif/ethernetif.c:957:30
	ldr	r0, [sp, #64]
	bl	ip4addr_ntoa
	mov	r1, r0
	add	r0, sp, #48
	.loc	8 957 9 is_stmt 0               @ rt-thread/components/net/lwip-2.0.2/src/netif/ethernetif.c:957:9
	str	r0, [sp, #16]                   @ 4-byte Spill
	bl	strcpy
	.loc	8 958 31 is_stmt 1              @ rt-thread/components/net/lwip-2.0.2/src/netif/ethernetif.c:958:31
	ldr	r0, [sp, #64]
	adds	r0, #4
	bl	ip4addr_ntoa
	mov	r1, r0
	add	r0, sp, #32
	.loc	8 958 9 is_stmt 0               @ rt-thread/components/net/lwip-2.0.2/src/netif/ethernetif.c:958:9
	str	r0, [sp, #20]                   @ 4-byte Spill
	bl	strcpy
	ldr	r2, [sp, #16]                   @ 4-byte Reload
                                        @ kill: def $r1 killed $r0
	.loc	8 961 23 is_stmt 1              @ rt-thread/components/net/lwip-2.0.2/src/netif/ethernetif.c:961:23
	ldr	r0, [sp, #20]                   @ 4-byte Reload
	ldr	r1, [sp, #68]
	adds	r3, r1, #1
	str	r3, [sp, #68]
	.loc	8 963 20                        @ rt-thread/components/net/lwip-2.0.2/src/netif/ethernetif.c:963:20
	ldr.w	r12, [sp, #64]
	.loc	8 963 25 is_stmt 0              @ rt-thread/components/net/lwip-2.0.2/src/netif/ethernetif.c:963:25
	ldrh.w	r3, [r12, #22]
	.loc	8 965 25 is_stmt 1              @ rt-thread/components/net/lwip-2.0.2/src/netif/ethernetif.c:965:25
	ldrh.w	lr, [r12, #24]
	.loc	8 967 25                        @ rt-thread/components/net/lwip-2.0.2/src/netif/ethernetif.c:967:25
	ldr.w	r5, [r12, #36]
	.loc	8 966 25                        @ rt-thread/components/net/lwip-2.0.2/src/netif/ethernetif.c:966:25
	ldr.w	r4, [r12, #76]
	.loc	8 960 9                         @ rt-thread/components/net/lwip-2.0.2/src/netif/ethernetif.c:960:9
	mov	r12, sp
	str.w	r5, [r12, #12]
	str.w	r4, [r12, #8]
	str.w	lr, [r12, #4]
	str.w	r0, [r12]
	movw	r0, :lower16:.L.str.34
	movt	r0, :upper16:.L.str.34
	bl	rt_kprintf
	.loc	8 968 55                        @ rt-thread/components/net/lwip-2.0.2/src/netif/ethernetif.c:968:55
	ldr	r0, [sp, #64]
	.loc	8 968 60 is_stmt 0              @ rt-thread/components/net/lwip-2.0.2/src/netif/ethernetif.c:968:60
	ldrb	r0, [r0, #20]
	.loc	8 968 35                        @ rt-thread/components/net/lwip-2.0.2/src/netif/ethernetif.c:968:35
	bl	tcp_debug_state_str
	mov	r1, r0
	.loc	8 968 9                         @ rt-thread/components/net/lwip-2.0.2/src/netif/ethernetif.c:968:9
	movw	r0, :lower16:.L.str.35
	movt	r0, :upper16:.L.str.35
	bl	rt_kprintf
	.loc	8 969 5 is_stmt 1               @ rt-thread/components/net/lwip-2.0.2/src/netif/ethernetif.c:969:5
	b	.LBB2_11
.Ltmp56:
.LBB2_11:                               @   in Loop: Header=BB2_9 Depth=1
	.loc	8 955 47                        @ rt-thread/components/net/lwip-2.0.2/src/netif/ethernetif.c:955:47
	ldr	r0, [sp, #64]
	.loc	8 955 52 is_stmt 0              @ rt-thread/components/net/lwip-2.0.2/src/netif/ethernetif.c:955:52
	ldr	r0, [r0, #12]
	.loc	8 955 45                        @ rt-thread/components/net/lwip-2.0.2/src/netif/ethernetif.c:955:45
	str	r0, [sp, #64]
	.loc	8 955 5                         @ rt-thread/components/net/lwip-2.0.2/src/netif/ethernetif.c:955:5
	b	.LBB2_9
.Ltmp57:
.LBB2_12:
	.loc	8 970 5 is_stmt 1               @ rt-thread/components/net/lwip-2.0.2/src/netif/ethernetif.c:970:5
	bl	rt_exit_critical
	.loc	8 971 1                         @ rt-thread/components/net/lwip-2.0.2/src/netif/ethernetif.c:971:1
	add	sp, #72
	pop	{r4, r5, r7, pc}
.Ltmp58:
.Lfunc_end2:
	.size	list_tcps, .Lfunc_end2-list_tcps
	.cfi_endproc
	.cantunwind
	.fnend
                                        @ -- End function
	.section	.text.list_udps,"ax",%progbits
	.hidden	list_udps                       @ -- Begin function list_udps
	.globl	list_udps
	.p2align	3
	.type	list_udps,%function
	.code	16                              @ @list_udps
	.thumb_func
list_udps:
.Lfunc_begin3:
	.loc	8 978 0                         @ rt-thread/components/net/lwip-2.0.2/src/netif/ethernetif.c:978:0
	.fnstart
	.cfi_startproc
@ %bb.0:
	.save	{r4, lr}
	push	{r4, lr}
	.cfi_def_cfa_offset 8
	.cfi_offset lr, -4
	.cfi_offset r4, -8
	.pad	#64
	sub	sp, #64
	.cfi_def_cfa_offset 72
	movs	r0, #0
.Ltmp59:
	.loc	8 980 17 prologue_end           @ rt-thread/components/net/lwip-2.0.2/src/netif/ethernetif.c:980:17
	str	r0, [sp, #56]
	.loc	8 984 5                         @ rt-thread/components/net/lwip-2.0.2/src/netif/ethernetif.c:984:5
	bl	rt_enter_critical
	.loc	8 985 5                         @ rt-thread/components/net/lwip-2.0.2/src/netif/ethernetif.c:985:5
	movw	r0, :lower16:.L.str.39
	movt	r0, :upper16:.L.str.39
	bl	rt_kprintf
.Ltmp60:
	.loc	8 986 16                        @ rt-thread/components/net/lwip-2.0.2/src/netif/ethernetif.c:986:16
	movw	r0, :lower16:udp_pcbs
	movt	r0, :upper16:udp_pcbs
	ldr	r0, [r0]
	.loc	8 986 14 is_stmt 0              @ rt-thread/components/net/lwip-2.0.2/src/netif/ethernetif.c:986:14
	str	r0, [sp, #60]
	.loc	8 986 10                        @ rt-thread/components/net/lwip-2.0.2/src/netif/ethernetif.c:986:10
	b	.LBB3_1
.LBB3_1:                                @ =>This Inner Loop Header: Depth=1
.Ltmp61:
	.loc	8 986 26                        @ rt-thread/components/net/lwip-2.0.2/src/netif/ethernetif.c:986:26
	ldr	r0, [sp, #60]
.Ltmp62:
	.loc	8 986 5                         @ rt-thread/components/net/lwip-2.0.2/src/netif/ethernetif.c:986:5
	cbz	r0, .LBB3_4
	b	.LBB3_2
.LBB3_2:                                @   in Loop: Header=BB3_1 Depth=1
.Ltmp63:
	.loc	8 988 30 is_stmt 1              @ rt-thread/components/net/lwip-2.0.2/src/netif/ethernetif.c:988:30
	ldr	r0, [sp, #60]
	bl	ip4addr_ntoa
	mov	r1, r0
	add	r0, sp, #40
	.loc	8 988 9 is_stmt 0               @ rt-thread/components/net/lwip-2.0.2/src/netif/ethernetif.c:988:9
	str	r0, [sp, #16]                   @ 4-byte Spill
	bl	strcpy
	.loc	8 989 31 is_stmt 1              @ rt-thread/components/net/lwip-2.0.2/src/netif/ethernetif.c:989:31
	ldr	r0, [sp, #60]
	adds	r0, #4
	bl	ip4addr_ntoa
	mov	r1, r0
	add	r0, sp, #24
	.loc	8 989 9 is_stmt 0               @ rt-thread/components/net/lwip-2.0.2/src/netif/ethernetif.c:989:9
	str	r0, [sp, #20]                   @ 4-byte Spill
	bl	strcpy
	ldr	r3, [sp, #16]                   @ 4-byte Reload
	ldr.w	lr, [sp, #20]                   @ 4-byte Reload
	.loc	8 992 20 is_stmt 1              @ rt-thread/components/net/lwip-2.0.2/src/netif/ethernetif.c:992:20
	ldr	r1, [sp, #56]
	.loc	8 992 30 is_stmt 0              @ rt-thread/components/net/lwip-2.0.2/src/netif/ethernetif.c:992:30
	ldr.w	r12, [sp, #60]
	.loc	8 992 35                        @ rt-thread/components/net/lwip-2.0.2/src/netif/ethernetif.c:992:35
	ldrb.w	r2, [r12, #16]
	.loc	8 994 25 is_stmt 1              @ rt-thread/components/net/lwip-2.0.2/src/netif/ethernetif.c:994:25
	ldrh.w	r0, [r12, #18]
	.loc	8 996 25                        @ rt-thread/components/net/lwip-2.0.2/src/netif/ethernetif.c:996:25
	ldrh.w	r4, [r12, #20]
	.loc	8 991 9                         @ rt-thread/components/net/lwip-2.0.2/src/netif/ethernetif.c:991:9
	mov	r12, sp
	str.w	r4, [r12, #8]
	str.w	lr, [r12, #4]
	str.w	r0, [r12]
	movw	r0, :lower16:.L.str.40
	movt	r0, :upper16:.L.str.40
	bl	rt_kprintf
	.loc	8 998 12                        @ rt-thread/components/net/lwip-2.0.2/src/netif/ethernetif.c:998:12
	ldr	r0, [sp, #56]
	adds	r0, #1
	str	r0, [sp, #56]
	.loc	8 999 5                         @ rt-thread/components/net/lwip-2.0.2/src/netif/ethernetif.c:999:5
	b	.LBB3_3
.Ltmp64:
.LBB3_3:                                @   in Loop: Header=BB3_1 Depth=1
	.loc	8 986 45                        @ rt-thread/components/net/lwip-2.0.2/src/netif/ethernetif.c:986:45
	ldr	r0, [sp, #60]
	.loc	8 986 50 is_stmt 0              @ rt-thread/components/net/lwip-2.0.2/src/netif/ethernetif.c:986:50
	ldr	r0, [r0, #12]
	.loc	8 986 43                        @ rt-thread/components/net/lwip-2.0.2/src/netif/ethernetif.c:986:43
	str	r0, [sp, #60]
	.loc	8 986 5                         @ rt-thread/components/net/lwip-2.0.2/src/netif/ethernetif.c:986:5
	b	.LBB3_1
.Ltmp65:
.LBB3_4:
	.loc	8 1000 5 is_stmt 1              @ rt-thread/components/net/lwip-2.0.2/src/netif/ethernetif.c:1000:5
	bl	rt_exit_critical
	.loc	8 1001 1                        @ rt-thread/components/net/lwip-2.0.2/src/netif/ethernetif.c:1001:1
	add	sp, #64
	pop	{r4, pc}
.Ltmp66:
.Lfunc_end3:
	.size	list_udps, .Lfunc_end3-list_udps
	.cfi_endproc
	.cantunwind
	.fnend
                                        @ -- End function
	.section	.text.lwip_netdev_set_up,"ax",%progbits
	.p2align	3                               @ -- Begin function lwip_netdev_set_up
	.type	lwip_netdev_set_up,%function
	.code	16                              @ @lwip_netdev_set_up
	.thumb_func
lwip_netdev_set_up:
.Lfunc_begin4:
	.loc	8 116 0                         @ rt-thread/components/net/lwip-2.0.2/src/netif/ethernetif.c:116:0
	.fnstart
	.cfi_startproc
@ %bb.0:
	.save	{r7, lr}
	push	{r7, lr}
	.cfi_def_cfa_offset 8
	.cfi_offset lr, -4
	.cfi_offset r7, -8
	.pad	#8
	sub	sp, #8
	.cfi_def_cfa_offset 16
	str	r0, [sp, #4]
.Ltmp67:
	.loc	8 117 34 prologue_end           @ rt-thread/components/net/lwip-2.0.2/src/netif/ethernetif.c:117:34
	ldr	r0, [sp, #4]
	.loc	8 117 41 is_stmt 0              @ rt-thread/components/net/lwip-2.0.2/src/netif/ethernetif.c:117:41
	ldr	r0, [r0, #64]
	.loc	8 117 5                         @ rt-thread/components/net/lwip-2.0.2/src/netif/ethernetif.c:117:5
	bl	netif_set_up
	movs	r0, #0
	.loc	8 118 5 is_stmt 1               @ rt-thread/components/net/lwip-2.0.2/src/netif/ethernetif.c:118:5
	add	sp, #8
	pop	{r7, pc}
.Ltmp68:
.Lfunc_end4:
	.size	lwip_netdev_set_up, .Lfunc_end4-lwip_netdev_set_up
	.cfi_endproc
	.cantunwind
	.fnend
                                        @ -- End function
	.section	.text.lwip_netdev_set_down,"ax",%progbits
	.p2align	3                               @ -- Begin function lwip_netdev_set_down
	.type	lwip_netdev_set_down,%function
	.code	16                              @ @lwip_netdev_set_down
	.thumb_func
lwip_netdev_set_down:
.Lfunc_begin5:
	.loc	8 122 0                         @ rt-thread/components/net/lwip-2.0.2/src/netif/ethernetif.c:122:0
	.fnstart
	.cfi_startproc
@ %bb.0:
	.save	{r7, lr}
	push	{r7, lr}
	.cfi_def_cfa_offset 8
	.cfi_offset lr, -4
	.cfi_offset r7, -8
	.pad	#8
	sub	sp, #8
	.cfi_def_cfa_offset 16
	str	r0, [sp, #4]
.Ltmp69:
	.loc	8 123 36 prologue_end           @ rt-thread/components/net/lwip-2.0.2/src/netif/ethernetif.c:123:36
	ldr	r0, [sp, #4]
	.loc	8 123 43 is_stmt 0              @ rt-thread/components/net/lwip-2.0.2/src/netif/ethernetif.c:123:43
	ldr	r0, [r0, #64]
	.loc	8 123 5                         @ rt-thread/components/net/lwip-2.0.2/src/netif/ethernetif.c:123:5
	bl	netif_set_down
	movs	r0, #0
	.loc	8 124 5 is_stmt 1               @ rt-thread/components/net/lwip-2.0.2/src/netif/ethernetif.c:124:5
	add	sp, #8
	pop	{r7, pc}
.Ltmp70:
.Lfunc_end5:
	.size	lwip_netdev_set_down, .Lfunc_end5-lwip_netdev_set_down
	.cfi_endproc
	.cantunwind
	.fnend
                                        @ -- End function
	.section	.text.lwip_netdev_set_addr_info,"ax",%progbits
	.p2align	3                               @ -- Begin function lwip_netdev_set_addr_info
	.type	lwip_netdev_set_addr_info,%function
	.code	16                              @ @lwip_netdev_set_addr_info
	.thumb_func
lwip_netdev_set_addr_info:
.Lfunc_begin6:
	.loc	8 128 0                         @ rt-thread/components/net/lwip-2.0.2/src/netif/ethernetif.c:128:0
	.fnstart
	.cfi_startproc
@ %bb.0:
	.save	{r7, lr}
	push	{r7, lr}
	.cfi_def_cfa_offset 8
	.cfi_offset lr, -4
	.cfi_offset r7, -8
	.pad	#16
	sub	sp, #16
	.cfi_def_cfa_offset 24
	str	r0, [sp, #12]
	str	r1, [sp, #8]
	str	r2, [sp, #4]
	str	r3, [sp]
.Ltmp71:
	.loc	8 129 9 prologue_end            @ rt-thread/components/net/lwip-2.0.2/src/netif/ethernetif.c:129:9
	ldr	r0, [sp, #8]
	.loc	8 129 17 is_stmt 0              @ rt-thread/components/net/lwip-2.0.2/src/netif/ethernetif.c:129:17
	cbz	r0, .LBB6_4
	b	.LBB6_1
.LBB6_1:
	.loc	8 129 20                        @ rt-thread/components/net/lwip-2.0.2/src/netif/ethernetif.c:129:20
	ldr	r0, [sp, #4]
	.loc	8 129 28                        @ rt-thread/components/net/lwip-2.0.2/src/netif/ethernetif.c:129:28
	cbz	r0, .LBB6_4
	b	.LBB6_2
.LBB6_2:
	.loc	8 129 31                        @ rt-thread/components/net/lwip-2.0.2/src/netif/ethernetif.c:129:31
	ldr	r0, [sp]
.Ltmp72:
	.loc	8 129 9                         @ rt-thread/components/net/lwip-2.0.2/src/netif/ethernetif.c:129:9
	cbz	r0, .LBB6_4
	b	.LBB6_3
.LBB6_3:
.Ltmp73:
	.loc	8 131 40 is_stmt 1              @ rt-thread/components/net/lwip-2.0.2/src/netif/ethernetif.c:131:40
	ldr	r0, [sp, #12]
	.loc	8 131 47 is_stmt 0              @ rt-thread/components/net/lwip-2.0.2/src/netif/ethernetif.c:131:47
	ldr	r0, [r0, #64]
	.loc	8 131 58                        @ rt-thread/components/net/lwip-2.0.2/src/netif/ethernetif.c:131:58
	ldr	r1, [sp, #8]
	.loc	8 131 77                        @ rt-thread/components/net/lwip-2.0.2/src/netif/ethernetif.c:131:77
	ldr	r2, [sp, #4]
	.loc	8 131 96                        @ rt-thread/components/net/lwip-2.0.2/src/netif/ethernetif.c:131:96
	ldr	r3, [sp]
	.loc	8 131 9                         @ rt-thread/components/net/lwip-2.0.2/src/netif/ethernetif.c:131:9
	bl	netif_set_addr
	.loc	8 132 5 is_stmt 1               @ rt-thread/components/net/lwip-2.0.2/src/netif/ethernetif.c:132:5
	b	.LBB6_11
.Ltmp74:
.LBB6_4:
	.loc	8 135 13                        @ rt-thread/components/net/lwip-2.0.2/src/netif/ethernetif.c:135:13
	ldr	r0, [sp, #8]
.Ltmp75:
	.loc	8 135 13 is_stmt 0              @ rt-thread/components/net/lwip-2.0.2/src/netif/ethernetif.c:135:13
	cbz	r0, .LBB6_6
	b	.LBB6_5
.LBB6_5:
.Ltmp76:
	.loc	8 137 46 is_stmt 1              @ rt-thread/components/net/lwip-2.0.2/src/netif/ethernetif.c:137:46
	ldr	r0, [sp, #12]
	.loc	8 137 53 is_stmt 0              @ rt-thread/components/net/lwip-2.0.2/src/netif/ethernetif.c:137:53
	ldr	r0, [r0, #64]
	.loc	8 137 64                        @ rt-thread/components/net/lwip-2.0.2/src/netif/ethernetif.c:137:64
	ldr	r1, [sp, #8]
	.loc	8 137 13                        @ rt-thread/components/net/lwip-2.0.2/src/netif/ethernetif.c:137:13
	bl	netif_set_ipaddr
	.loc	8 138 9 is_stmt 1               @ rt-thread/components/net/lwip-2.0.2/src/netif/ethernetif.c:138:9
	b	.LBB6_6
.Ltmp77:
.LBB6_6:
	.loc	8 140 13                        @ rt-thread/components/net/lwip-2.0.2/src/netif/ethernetif.c:140:13
	ldr	r0, [sp, #4]
.Ltmp78:
	.loc	8 140 13 is_stmt 0              @ rt-thread/components/net/lwip-2.0.2/src/netif/ethernetif.c:140:13
	cbz	r0, .LBB6_8
	b	.LBB6_7
.LBB6_7:
.Ltmp79:
	.loc	8 142 47 is_stmt 1              @ rt-thread/components/net/lwip-2.0.2/src/netif/ethernetif.c:142:47
	ldr	r0, [sp, #12]
	.loc	8 142 54 is_stmt 0              @ rt-thread/components/net/lwip-2.0.2/src/netif/ethernetif.c:142:54
	ldr	r0, [r0, #64]
	.loc	8 142 65                        @ rt-thread/components/net/lwip-2.0.2/src/netif/ethernetif.c:142:65
	ldr	r1, [sp, #4]
	.loc	8 142 13                        @ rt-thread/components/net/lwip-2.0.2/src/netif/ethernetif.c:142:13
	bl	netif_set_netmask
	.loc	8 143 9 is_stmt 1               @ rt-thread/components/net/lwip-2.0.2/src/netif/ethernetif.c:143:9
	b	.LBB6_8
.Ltmp80:
.LBB6_8:
	.loc	8 145 13                        @ rt-thread/components/net/lwip-2.0.2/src/netif/ethernetif.c:145:13
	ldr	r0, [sp]
.Ltmp81:
	.loc	8 145 13 is_stmt 0              @ rt-thread/components/net/lwip-2.0.2/src/netif/ethernetif.c:145:13
	cbz	r0, .LBB6_10
	b	.LBB6_9
.LBB6_9:
.Ltmp82:
	.loc	8 147 42 is_stmt 1              @ rt-thread/components/net/lwip-2.0.2/src/netif/ethernetif.c:147:42
	ldr	r0, [sp, #12]
	.loc	8 147 49 is_stmt 0              @ rt-thread/components/net/lwip-2.0.2/src/netif/ethernetif.c:147:49
	ldr	r0, [r0, #64]
	.loc	8 147 60                        @ rt-thread/components/net/lwip-2.0.2/src/netif/ethernetif.c:147:60
	ldr	r1, [sp]
	.loc	8 147 13                        @ rt-thread/components/net/lwip-2.0.2/src/netif/ethernetif.c:147:13
	bl	netif_set_gw
	.loc	8 148 9 is_stmt 1               @ rt-thread/components/net/lwip-2.0.2/src/netif/ethernetif.c:148:9
	b	.LBB6_10
.Ltmp83:
.LBB6_10:
	.loc	8 0 9 is_stmt 0                 @ rt-thread/components/net/lwip-2.0.2/src/netif/ethernetif.c:0:9
	b	.LBB6_11
.LBB6_11:
	movs	r0, #0
	.loc	8 151 5 is_stmt 1               @ rt-thread/components/net/lwip-2.0.2/src/netif/ethernetif.c:151:5
	add	sp, #16
	pop	{r7, pc}
.Ltmp84:
.Lfunc_end6:
	.size	lwip_netdev_set_addr_info, .Lfunc_end6-lwip_netdev_set_addr_info
	.cfi_endproc
	.cantunwind
	.fnend
                                        @ -- End function
	.section	.text.lwip_netdev_set_dns_server,"ax",%progbits
	.p2align	3                               @ -- Begin function lwip_netdev_set_dns_server
	.type	lwip_netdev_set_dns_server,%function
	.code	16                              @ @lwip_netdev_set_dns_server
	.thumb_func
lwip_netdev_set_dns_server:
.Lfunc_begin7:
	.loc	8 156 0                         @ rt-thread/components/net/lwip-2.0.2/src/netif/ethernetif.c:156:0
	.fnstart
	.cfi_startproc
@ %bb.0:
	.save	{r7, lr}
	push	{r7, lr}
	.cfi_def_cfa_offset 8
	.cfi_offset lr, -4
	.cfi_offset r7, -8
	.pad	#16
	sub	sp, #16
	.cfi_def_cfa_offset 24
                                        @ kill: def $r3 killed $r1
	str	r0, [sp, #12]
	strb.w	r1, [sp, #11]
	str	r2, [sp, #4]
.Ltmp85:
	.loc	8 158 19 prologue_end           @ rt-thread/components/net/lwip-2.0.2/src/netif/ethernetif.c:158:19
	ldrb.w	r0, [sp, #11]
	.loc	8 158 28 is_stmt 0              @ rt-thread/components/net/lwip-2.0.2/src/netif/ethernetif.c:158:28
	ldr	r1, [sp, #4]
	.loc	8 158 5                         @ rt-thread/components/net/lwip-2.0.2/src/netif/ethernetif.c:158:5
	bl	dns_setserver
	movs	r0, #0
	.loc	8 159 5 is_stmt 1               @ rt-thread/components/net/lwip-2.0.2/src/netif/ethernetif.c:159:5
	add	sp, #16
	pop	{r7, pc}
.Ltmp86:
.Lfunc_end7:
	.size	lwip_netdev_set_dns_server, .Lfunc_end7-lwip_netdev_set_dns_server
	.cfi_endproc
	.cantunwind
	.fnend
                                        @ -- End function
	.section	.text.lwip_netdev_set_dhcp,"ax",%progbits
	.p2align	3                               @ -- Begin function lwip_netdev_set_dhcp
	.type	lwip_netdev_set_dhcp,%function
	.code	16                              @ @lwip_netdev_set_dhcp
	.thumb_func
lwip_netdev_set_dhcp:
.Lfunc_begin8:
	.loc	8 165 0                         @ rt-thread/components/net/lwip-2.0.2/src/netif/ethernetif.c:165:0
	.fnstart
	.cfi_startproc
@ %bb.0:
	.save	{r7, lr}
	push	{r7, lr}
	.cfi_def_cfa_offset 8
	.cfi_offset lr, -4
	.cfi_offset r7, -8
	.pad	#8
	sub	sp, #8
	.cfi_def_cfa_offset 16
	str	r0, [sp, #4]
	str	r1, [sp]
.Ltmp87:
	.loc	8 166 38 prologue_end           @ rt-thread/components/net/lwip-2.0.2/src/netif/ethernetif.c:166:38
	ldr	r0, [sp, #4]
	.loc	8 166 45 is_stmt 0              @ rt-thread/components/net/lwip-2.0.2/src/netif/ethernetif.c:166:45
	ldr	r1, [sp]
	.loc	8 166 5                         @ rt-thread/components/net/lwip-2.0.2/src/netif/ethernetif.c:166:5
	bl	netdev_low_level_set_dhcp_status
.Ltmp88:
	.loc	8 169 8 is_stmt 1               @ rt-thread/components/net/lwip-2.0.2/src/netif/ethernetif.c:169:8
	ldr	r0, [sp]
.Ltmp89:
	.loc	8 169 8 is_stmt 0               @ rt-thread/components/net/lwip-2.0.2/src/netif/ethernetif.c:169:8
	cmp	r0, #1
	bne	.LBB8_2
	b	.LBB8_1
.LBB8_1:
.Ltmp90:
	.loc	8 171 36 is_stmt 1              @ rt-thread/components/net/lwip-2.0.2/src/netif/ethernetif.c:171:36
	ldr	r0, [sp, #4]
	.loc	8 171 43 is_stmt 0              @ rt-thread/components/net/lwip-2.0.2/src/netif/ethernetif.c:171:43
	ldr	r0, [r0, #64]
	.loc	8 171 9                         @ rt-thread/components/net/lwip-2.0.2/src/netif/ethernetif.c:171:9
	bl	dhcp_start
	.loc	8 172 5 is_stmt 1               @ rt-thread/components/net/lwip-2.0.2/src/netif/ethernetif.c:172:5
	b	.LBB8_3
.Ltmp91:
.LBB8_2:
	.loc	8 175 35                        @ rt-thread/components/net/lwip-2.0.2/src/netif/ethernetif.c:175:35
	ldr	r0, [sp, #4]
	.loc	8 175 42 is_stmt 0              @ rt-thread/components/net/lwip-2.0.2/src/netif/ethernetif.c:175:42
	ldr	r0, [r0, #64]
	.loc	8 175 9                         @ rt-thread/components/net/lwip-2.0.2/src/netif/ethernetif.c:175:9
	bl	dhcp_stop
	b	.LBB8_3
.Ltmp92:
.LBB8_3:
	.loc	8 0 9                           @ rt-thread/components/net/lwip-2.0.2/src/netif/ethernetif.c:0:9
	movs	r0, #0
	.loc	8 177 5 is_stmt 1               @ rt-thread/components/net/lwip-2.0.2/src/netif/ethernetif.c:177:5
	add	sp, #8
	pop	{r7, pc}
.Ltmp93:
.Lfunc_end8:
	.size	lwip_netdev_set_dhcp, .Lfunc_end8-lwip_netdev_set_dhcp
	.cfi_endproc
	.cantunwind
	.fnend
                                        @ -- End function
	.section	.text.lwip_netdev_set_default,"ax",%progbits
	.p2align	3                               @ -- Begin function lwip_netdev_set_default
	.type	lwip_netdev_set_default,%function
	.code	16                              @ @lwip_netdev_set_default
	.thumb_func
lwip_netdev_set_default:
.Lfunc_begin9:
	.loc	8 275 0                         @ rt-thread/components/net/lwip-2.0.2/src/netif/ethernetif.c:275:0
	.fnstart
	.cfi_startproc
@ %bb.0:
	.save	{r7, lr}
	push	{r7, lr}
	.cfi_def_cfa_offset 8
	.cfi_offset lr, -4
	.cfi_offset r7, -8
	.pad	#8
	sub	sp, #8
	.cfi_def_cfa_offset 16
	str	r0, [sp, #4]
.Ltmp94:
	.loc	8 276 39 prologue_end           @ rt-thread/components/net/lwip-2.0.2/src/netif/ethernetif.c:276:39
	ldr	r0, [sp, #4]
	.loc	8 276 46 is_stmt 0              @ rt-thread/components/net/lwip-2.0.2/src/netif/ethernetif.c:276:46
	ldr	r0, [r0, #64]
	.loc	8 276 5                         @ rt-thread/components/net/lwip-2.0.2/src/netif/ethernetif.c:276:5
	bl	netif_set_default
	movs	r0, #0
	.loc	8 277 5 is_stmt 1               @ rt-thread/components/net/lwip-2.0.2/src/netif/ethernetif.c:277:5
	add	sp, #8
	pop	{r7, pc}
.Ltmp95:
.Lfunc_end9:
	.size	lwip_netdev_set_default, .Lfunc_end9-lwip_netdev_set_default
	.cfi_endproc
	.cantunwind
	.fnend
                                        @ -- End function
	.section	.text.eth_device_init_with_flag,"ax",%progbits
	.hidden	eth_device_init_with_flag       @ -- Begin function eth_device_init_with_flag
	.globl	eth_device_init_with_flag
	.p2align	3
	.type	eth_device_init_with_flag,%function
	.code	16                              @ @eth_device_init_with_flag
	.thumb_func
eth_device_init_with_flag:
.Lfunc_begin10:
	.loc	8 492 0                         @ rt-thread/components/net/lwip-2.0.2/src/netif/ethernetif.c:492:0
	.fnstart
	.cfi_startproc
@ %bb.0:
	.save	{r7, lr}
	push	{r7, lr}
	.cfi_def_cfa_offset 8
	.cfi_offset lr, -4
	.cfi_offset r7, -8
	.pad	#56
	sub	sp, #56
	.cfi_def_cfa_offset 64
                                        @ kill: def $r3 killed $r2
	str	r0, [sp, #48]
	str	r1, [sp, #44]
	strh.w	r2, [sp, #42]
	movs	r0, #0
.Ltmp96:
	.loc	8 496 11 prologue_end           @ rt-thread/components/net/lwip-2.0.2/src/netif/ethernetif.c:496:11
	str	r0, [sp, #32]
	movs	r0, #1
	movs	r1, #92
	.loc	8 497 29                        @ rt-thread/components/net/lwip-2.0.2/src/netif/ethernetif.c:497:29
	bl	rt_calloc
	.loc	8 497 11 is_stmt 0              @ rt-thread/components/net/lwip-2.0.2/src/netif/ethernetif.c:497:11
	str	r0, [sp, #36]
.Ltmp97:
	.loc	8 501 9 is_stmt 1               @ rt-thread/components/net/lwip-2.0.2/src/netif/ethernetif.c:501:9
	ldr	r0, [sp, #36]
.Ltmp98:
	.loc	8 501 9 is_stmt 0               @ rt-thread/components/net/lwip-2.0.2/src/netif/ethernetif.c:501:9
	cbnz	r0, .LBB10_2
	b	.LBB10_1
.LBB10_1:
.Ltmp99:
	.loc	8 503 9 is_stmt 1               @ rt-thread/components/net/lwip-2.0.2/src/netif/ethernetif.c:503:9
	movw	r0, :lower16:.L.str.3
	movt	r0, :upper16:.L.str.3
	bl	rt_kprintf
	mov.w	r0, #-1
	.loc	8 504 9                         @ rt-thread/components/net/lwip-2.0.2/src/netif/ethernetif.c:504:9
	str	r0, [sp, #52]
	b	.LBB10_5
.Ltmp100:
.LBB10_2:
	.loc	8 508 18                        @ rt-thread/components/net/lwip-2.0.2/src/netif/ethernetif.c:508:18
	ldr	r0, [sp, #36]
	.loc	8 508 5 is_stmt 0               @ rt-thread/components/net/lwip-2.0.2/src/netif/ethernetif.c:508:5
	ldr	r1, [sp, #48]
	.loc	8 508 16                        @ rt-thread/components/net/lwip-2.0.2/src/netif/ethernetif.c:508:16
	str	r0, [r1, #80]
	.loc	8 510 18 is_stmt 1              @ rt-thread/components/net/lwip-2.0.2/src/netif/ethernetif.c:510:18
	ldrh.w	r0, [sp, #42]
	.loc	8 510 5 is_stmt 0               @ rt-thread/components/net/lwip-2.0.2/src/netif/ethernetif.c:510:5
	ldr	r1, [sp, #48]
	.loc	8 510 16                        @ rt-thread/components/net/lwip-2.0.2/src/netif/ethernetif.c:510:16
	strh.w	r0, [r1, #116]
	.loc	8 512 5 is_stmt 1               @ rt-thread/components/net/lwip-2.0.2/src/netif/ethernetif.c:512:5
	ldr	r1, [sp, #48]
	movs	r0, #0
	.loc	8 512 23 is_stmt 0              @ rt-thread/components/net/lwip-2.0.2/src/netif/ethernetif.c:512:23
	str	r0, [sp, #16]                   @ 4-byte Spill
	strb.w	r0, [r1, #118]
	.loc	8 513 5 is_stmt 1               @ rt-thread/components/net/lwip-2.0.2/src/netif/ethernetif.c:513:5
	ldr	r1, [sp, #48]
	movs	r0, #2
	.loc	8 513 22 is_stmt 0              @ rt-thread/components/net/lwip-2.0.2/src/netif/ethernetif.c:513:22
	strb	r0, [r1, #20]
	.loc	8 515 26 is_stmt 1              @ rt-thread/components/net/lwip-2.0.2/src/netif/ethernetif.c:515:26
	ldr	r0, [sp, #48]
	.loc	8 515 40 is_stmt 0              @ rt-thread/components/net/lwip-2.0.2/src/netif/ethernetif.c:515:40
	ldr	r1, [sp, #44]
	movs	r2, #3
	.loc	8 515 5                         @ rt-thread/components/net/lwip-2.0.2/src/netif/ethernetif.c:515:5
	bl	rt_device_register
	ldr	r3, [sp, #16]                   @ 4-byte Reload
	.loc	8 516 19 is_stmt 1              @ rt-thread/components/net/lwip-2.0.2/src/netif/ethernetif.c:516:19
	ldr	r0, [sp, #48]
	.loc	8 516 24 is_stmt 0              @ rt-thread/components/net/lwip-2.0.2/src/netif/ethernetif.c:516:24
	adds	r0, #84
	.loc	8 516 33                        @ rt-thread/components/net/lwip-2.0.2/src/netif/ethernetif.c:516:33
	ldr	r1, [sp, #44]
	.loc	8 516 5                         @ rt-thread/components/net/lwip-2.0.2/src/netif/ethernetif.c:516:5
	mov	r2, r3
	bl	rt_sem_init
	.loc	8 519 22 is_stmt 1              @ rt-thread/components/net/lwip-2.0.2/src/netif/ethernetif.c:519:22
	ldr	r0, [sp, #44]
	ldrb	r0, [r0]
	.loc	8 519 5 is_stmt 0               @ rt-thread/components/net/lwip-2.0.2/src/netif/ethernetif.c:519:5
	ldr	r1, [sp, #36]
	.loc	8 519 20                        @ rt-thread/components/net/lwip-2.0.2/src/netif/ethernetif.c:519:20
	strb.w	r0, [r1, #66]
	.loc	8 520 22 is_stmt 1              @ rt-thread/components/net/lwip-2.0.2/src/netif/ethernetif.c:520:22
	ldr	r0, [sp, #44]
	ldrb	r0, [r0, #1]
	.loc	8 520 5 is_stmt 0               @ rt-thread/components/net/lwip-2.0.2/src/netif/ethernetif.c:520:5
	ldr	r1, [sp, #36]
	.loc	8 520 20                        @ rt-thread/components/net/lwip-2.0.2/src/netif/ethernetif.c:520:20
	strb.w	r0, [r1, #67]
	.loc	8 523 5 is_stmt 1               @ rt-thread/components/net/lwip-2.0.2/src/netif/ethernetif.c:523:5
	ldr	r1, [sp, #36]
	movs	r0, #6
	.loc	8 523 25 is_stmt 0              @ rt-thread/components/net/lwip-2.0.2/src/netif/ethernetif.c:523:25
	strb.w	r0, [r1, #58]
	.loc	8 525 5 is_stmt 1               @ rt-thread/components/net/lwip-2.0.2/src/netif/ethernetif.c:525:5
	ldr	r1, [sp, #36]
	movw	r0, #1500
	.loc	8 525 25 is_stmt 0              @ rt-thread/components/net/lwip-2.0.2/src/netif/ethernetif.c:525:25
	strh	r0, [r1, #56]
	.loc	8 528 25 is_stmt 1              @ rt-thread/components/net/lwip-2.0.2/src/netif/ethernetif.c:528:25
	ldr	r0, [sp, #48]
	.loc	8 528 53 is_stmt 0              @ rt-thread/components/net/lwip-2.0.2/src/netif/ethernetif.c:528:53
	ldr	r1, [sp, #36]
	.loc	8 528 60                        @ rt-thread/components/net/lwip-2.0.2/src/netif/ethernetif.c:528:60
	add.w	r2, r1, #59
	movs	r1, #1
	.loc	8 528 5                         @ rt-thread/components/net/lwip-2.0.2/src/netif/ethernetif.c:528:5
	bl	rt_device_control
	.loc	8 531 5 is_stmt 1               @ rt-thread/components/net/lwip-2.0.2/src/netif/ethernetif.c:531:5
	ldr	r1, [sp, #36]
	.loc	8 531 25 is_stmt 0              @ rt-thread/components/net/lwip-2.0.2/src/netif/ethernetif.c:531:25
	movw	r0, :lower16:etharp_output
	movt	r0, :upper16:etharp_output
	str	r0, [r1, #20]
	.loc	8 532 5 is_stmt 1               @ rt-thread/components/net/lwip-2.0.2/src/netif/ethernetif.c:532:5
	ldr	r1, [sp, #36]
	.loc	8 532 25 is_stmt 0              @ rt-thread/components/net/lwip-2.0.2/src/netif/ethernetif.c:532:25
	movw	r0, :lower16:ethernetif_linkoutput
	movt	r0, :upper16:ethernetif_linkoutput
	str	r0, [r1, #24]
	.loc	8 536 24 is_stmt 1              @ rt-thread/components/net/lwip-2.0.2/src/netif/ethernetif.c:536:24
	ldr	r0, [sp, #36]
	.loc	8 536 30 is_stmt 0              @ rt-thread/components/net/lwip-2.0.2/src/netif/ethernetif.c:536:30
	adds	r0, #76
	.loc	8 536 14                        @ rt-thread/components/net/lwip-2.0.2/src/netif/ethernetif.c:536:14
	str	r0, [sp, #32]
	.loc	8 537 16 is_stmt 1              @ rt-thread/components/net/lwip-2.0.2/src/netif/ethernetif.c:537:16
	ldr	r0, [sp, #32]
	.loc	8 537 47 is_stmt 0              @ rt-thread/components/net/lwip-2.0.2/src/netif/ethernetif.c:537:47
	ldr	r1, [sp, #44]
	ldrsb.w	r2, [r1]
	.loc	8 537 56                        @ rt-thread/components/net/lwip-2.0.2/src/netif/ethernetif.c:537:56
	ldrsb.w	r3, [r1, #1]
	.loc	8 537 5                         @ rt-thread/components/net/lwip-2.0.2/src/netif/ethernetif.c:537:5
	movw	r1, :lower16:.L.str.4
	movt	r1, :upper16:.L.str.4
	bl	rt_sprintf
	.loc	8 538 23 is_stmt 1              @ rt-thread/components/net/lwip-2.0.2/src/netif/ethernetif.c:538:23
	ldr	r0, [sp, #32]
	.loc	8 538 5 is_stmt 0               @ rt-thread/components/net/lwip-2.0.2/src/netif/ethernetif.c:538:5
	ldr	r1, [sp, #36]
	.loc	8 538 21                        @ rt-thread/components/net/lwip-2.0.2/src/netif/ethernetif.c:538:21
	str	r0, [r1, #52]
.Ltmp101:
	.loc	8 542 9 is_stmt 1               @ rt-thread/components/net/lwip-2.0.2/src/netif/ethernetif.c:542:9
	movw	r0, :lower16:.L.str.5
	movt	r0, :upper16:.L.str.5
	bl	rt_thread_find
.Ltmp102:
	.loc	8 542 9 is_stmt 0               @ rt-thread/components/net/lwip-2.0.2/src/netif/ethernetif.c:542:9
	cbz	r0, .LBB10_4
	b	.LBB10_3
.LBB10_3:
	.loc	8 0 9                           @ rt-thread/components/net/lwip-2.0.2/src/netif/ethernetif.c:0:9
	movs	r0, #0
.Ltmp103:
	.loc	8 551 9 is_stmt 1               @ rt-thread/components/net/lwip-2.0.2/src/netif/ethernetif.c:551:9
	str	r0, [sp, #28]
	.loc	8 552 9                         @ rt-thread/components/net/lwip-2.0.2/src/netif/ethernetif.c:552:9
	str	r0, [sp, #20]
	.loc	8 553 9                         @ rt-thread/components/net/lwip-2.0.2/src/netif/ethernetif.c:553:9
	str	r0, [sp, #24]
	.loc	8 555 28                        @ rt-thread/components/net/lwip-2.0.2/src/netif/ethernetif.c:555:28
	ldr	r0, [sp, #36]
	.loc	8 555 59 is_stmt 0              @ rt-thread/components/net/lwip-2.0.2/src/netif/ethernetif.c:555:59
	ldr	r1, [sp, #48]
	.loc	8 555 9                         @ rt-thread/components/net/lwip-2.0.2/src/netif/ethernetif.c:555:9
	movw	r3, :lower16:tcpip_input
	movt	r3, :upper16:tcpip_input
	mov	r2, sp
	str	r3, [r2, #8]
	movw	r3, :lower16:eth_netif_device_init
	movt	r3, :upper16:eth_netif_device_init
	str	r3, [r2, #4]
	str	r1, [r2]
	add	r1, sp, #28
	add	r2, sp, #24
	add	r3, sp, #20
	bl	netifapi_netif_add
	.loc	8 556 5 is_stmt 1               @ rt-thread/components/net/lwip-2.0.2/src/netif/ethernetif.c:556:5
	b	.LBB10_4
.Ltmp104:
.LBB10_4:
	.loc	8 560 23                        @ rt-thread/components/net/lwip-2.0.2/src/netif/ethernetif.c:560:23
	ldr	r0, [sp, #36]
	.loc	8 560 5 is_stmt 0               @ rt-thread/components/net/lwip-2.0.2/src/netif/ethernetif.c:560:5
	bl	netdev_flags_sync
	movs	r0, #0
	.loc	8 563 5 is_stmt 1               @ rt-thread/components/net/lwip-2.0.2/src/netif/ethernetif.c:563:5
	str	r0, [sp, #52]
	b	.LBB10_5
.LBB10_5:
	.loc	8 564 1                         @ rt-thread/components/net/lwip-2.0.2/src/netif/ethernetif.c:564:1
	ldr	r0, [sp, #52]
	add	sp, #56
	pop	{r7, pc}
.Ltmp105:
.Lfunc_end10:
	.size	eth_device_init_with_flag, .Lfunc_end10-eth_device_init_with_flag
	.cfi_endproc
	.cantunwind
	.fnend
                                        @ -- End function
	.section	.text.ethernetif_linkoutput,"ax",%progbits
	.p2align	3                               @ -- Begin function ethernetif_linkoutput
	.type	ethernetif_linkoutput,%function
	.code	16                              @ @ethernetif_linkoutput
	.thumb_func
ethernetif_linkoutput:
.Lfunc_begin11:
	.loc	8 387 0                         @ rt-thread/components/net/lwip-2.0.2/src/netif/ethernetif.c:387:0
	.fnstart
	.cfi_startproc
@ %bb.0:
	.save	{r7, lr}
	push	{r7, lr}
	.cfi_def_cfa_offset 8
	.cfi_offset lr, -4
	.cfi_offset r7, -8
	.pad	#24
	sub	sp, #24
	.cfi_def_cfa_offset 32
	str	r0, [sp, #20]
	str	r1, [sp, #16]
.Ltmp106:
	.loc	8 392 5 prologue_end            @ rt-thread/components/net/lwip-2.0.2/src/netif/ethernetif.c:392:5
	ldr	r0, [sp, #20]
.Ltmp107:
	.loc	8 392 5 is_stmt 0               @ rt-thread/components/net/lwip-2.0.2/src/netif/ethernetif.c:392:5
	cbnz	r0, .LBB11_2
	b	.LBB11_1
.LBB11_1:
.Ltmp108:
	.loc	8 392 5                         @ rt-thread/components/net/lwip-2.0.2/src/netif/ethernetif.c:392:5
	movw	r0, :lower16:.L.str.41
	movt	r0, :upper16:.L.str.41
	movw	r1, :lower16:.L__FUNCTION__.ethernetif_linkoutput
	movt	r1, :upper16:.L__FUNCTION__.ethernetif_linkoutput
	mov.w	r2, #392
	bl	rt_assert_handler
	b	.LBB11_2
.Ltmp109:
.LBB11_2:
	.loc	8 393 34 is_stmt 1              @ rt-thread/components/net/lwip-2.0.2/src/netif/ethernetif.c:393:34
	ldr	r0, [sp, #20]
	.loc	8 393 41 is_stmt 0              @ rt-thread/components/net/lwip-2.0.2/src/netif/ethernetif.c:393:41
	ldr	r0, [r0, #36]
	.loc	8 393 12                        @ rt-thread/components/net/lwip-2.0.2/src/netif/ethernetif.c:393:12
	str	r0, [sp, #4]
	.loc	8 396 17 is_stmt 1              @ rt-thread/components/net/lwip-2.0.2/src/netif/ethernetif.c:396:17
	ldr	r0, [sp, #20]
	.loc	8 396 15 is_stmt 0              @ rt-thread/components/net/lwip-2.0.2/src/netif/ethernetif.c:396:15
	str	r0, [sp, #8]
	.loc	8 397 17 is_stmt 1              @ rt-thread/components/net/lwip-2.0.2/src/netif/ethernetif.c:397:17
	ldr	r0, [sp, #16]
	.loc	8 397 15 is_stmt 0              @ rt-thread/components/net/lwip-2.0.2/src/netif/ethernetif.c:397:15
	str	r0, [sp, #12]
.Ltmp110:
	.loc	8 398 9 is_stmt 1               @ rt-thread/components/net/lwip-2.0.2/src/netif/ethernetif.c:398:9
	movw	r0, :lower16:eth_tx_thread_mb
	movt	r0, :upper16:eth_tx_thread_mb
	add	r1, sp, #8
	bl	rt_mb_send
.Ltmp111:
	.loc	8 398 9 is_stmt 0               @ rt-thread/components/net/lwip-2.0.2/src/netif/ethernetif.c:398:9
	cbnz	r0, .LBB11_4
	b	.LBB11_3
.LBB11_3:
.Ltmp112:
	.loc	8 401 23 is_stmt 1              @ rt-thread/components/net/lwip-2.0.2/src/netif/ethernetif.c:401:23
	ldr	r0, [sp, #4]
	.loc	8 401 31 is_stmt 0              @ rt-thread/components/net/lwip-2.0.2/src/netif/ethernetif.c:401:31
	adds	r0, #84
	mov.w	r1, #-1
	.loc	8 401 9                         @ rt-thread/components/net/lwip-2.0.2/src/netif/ethernetif.c:401:9
	bl	rt_sem_take
	.loc	8 402 5 is_stmt 1               @ rt-thread/components/net/lwip-2.0.2/src/netif/ethernetif.c:402:5
	b	.LBB11_4
.Ltmp113:
.LBB11_4:
	.loc	8 0 5 is_stmt 0                 @ rt-thread/components/net/lwip-2.0.2/src/netif/ethernetif.c:0:5
	movs	r0, #0
	.loc	8 414 5 is_stmt 1               @ rt-thread/components/net/lwip-2.0.2/src/netif/ethernetif.c:414:5
	add	sp, #24
	pop	{r7, pc}
.Ltmp114:
.Lfunc_end11:
	.size	ethernetif_linkoutput, .Lfunc_end11-ethernetif_linkoutput
	.cfi_endproc
	.cantunwind
	.fnend
                                        @ -- End function
	.section	.text.eth_netif_device_init,"ax",%progbits
	.p2align	3                               @ -- Begin function eth_netif_device_init
	.type	eth_netif_device_init,%function
	.code	16                              @ @eth_netif_device_init
	.thumb_func
eth_netif_device_init:
.Lfunc_begin12:
	.loc	8 418 0                         @ rt-thread/components/net/lwip-2.0.2/src/netif/ethernetif.c:418:0
	.fnstart
	.cfi_startproc
@ %bb.0:
	.save	{r7, lr}
	push	{r7, lr}
	.cfi_def_cfa_offset 8
	.cfi_offset lr, -4
	.cfi_offset r7, -8
	.pad	#16
	sub	sp, #16
	.cfi_def_cfa_offset 24
	str	r0, [sp, #8]
.Ltmp115:
	.loc	8 423 16 prologue_end           @ rt-thread/components/net/lwip-2.0.2/src/netif/ethernetif.c:423:16
	ldr	r0, [sp, #8]
	.loc	8 423 5 is_stmt 0               @ rt-thread/components/net/lwip-2.0.2/src/netif/ethernetif.c:423:5
	bl	netdev_add
	.loc	8 426 33 is_stmt 1              @ rt-thread/components/net/lwip-2.0.2/src/netif/ethernetif.c:426:33
	ldr	r0, [sp, #8]
	.loc	8 426 40 is_stmt 0              @ rt-thread/components/net/lwip-2.0.2/src/netif/ethernetif.c:426:40
	ldr	r0, [r0, #36]
	.loc	8 426 11                        @ rt-thread/components/net/lwip-2.0.2/src/netif/ethernetif.c:426:11
	str	r0, [sp, #4]
.Ltmp116:
	.loc	8 427 9 is_stmt 1               @ rt-thread/components/net/lwip-2.0.2/src/netif/ethernetif.c:427:9
	ldr	r0, [sp, #4]
.Ltmp117:
	.loc	8 427 9 is_stmt 0               @ rt-thread/components/net/lwip-2.0.2/src/netif/ethernetif.c:427:9
	cbz	r0, .LBB12_8
	b	.LBB12_1
.LBB12_1:
.Ltmp118:
	.loc	8 432 32 is_stmt 1              @ rt-thread/components/net/lwip-2.0.2/src/netif/ethernetif.c:432:32
	ldr	r0, [sp, #4]
	.loc	8 432 16 is_stmt 0              @ rt-thread/components/net/lwip-2.0.2/src/netif/ethernetif.c:432:16
	str	r0, [sp]
.Ltmp119:
	.loc	8 433 28 is_stmt 1              @ rt-thread/components/net/lwip-2.0.2/src/netif/ethernetif.c:433:28
	ldr	r0, [sp]
	.loc	8 433 13 is_stmt 0              @ rt-thread/components/net/lwip-2.0.2/src/netif/ethernetif.c:433:13
	bl	rt_device_init
.Ltmp120:
	.loc	8 433 13                        @ rt-thread/components/net/lwip-2.0.2/src/netif/ethernetif.c:433:13
	cbz	r0, .LBB12_3
	b	.LBB12_2
.LBB12_2:
	.loc	8 0 13                          @ rt-thread/components/net/lwip-2.0.2/src/netif/ethernetif.c:0:13
	movs	r0, #244
.Ltmp121:
	.loc	8 435 13 is_stmt 1              @ rt-thread/components/net/lwip-2.0.2/src/netif/ethernetif.c:435:13
	strb.w	r0, [sp, #15]
	b	.LBB12_9
.Ltmp122:
.LBB12_3:
	.loc	8 439 25                        @ rt-thread/components/net/lwip-2.0.2/src/netif/ethernetif.c:439:25
	ldr	r0, [sp, #4]
	ldrh.w	r0, [r0, #116]
	.loc	8 439 9 is_stmt 0               @ rt-thread/components/net/lwip-2.0.2/src/netif/ethernetif.c:439:9
	ldr	r1, [sp, #8]
	.loc	8 439 22                        @ rt-thread/components/net/lwip-2.0.2/src/netif/ethernetif.c:439:22
	strb.w	r0, [r1, #65]
.Ltmp123:
	.loc	8 465 13 is_stmt 1              @ rt-thread/components/net/lwip-2.0.2/src/netif/ethernetif.c:465:13
	movw	r0, :lower16:netif_default
	movt	r0, :upper16:netif_default
	ldr	r0, [r0]
.Ltmp124:
	.loc	8 465 13 is_stmt 0              @ rt-thread/components/net/lwip-2.0.2/src/netif/ethernetif.c:465:13
	cbnz	r0, .LBB12_5
	b	.LBB12_4
.LBB12_4:
.Ltmp125:
	.loc	8 466 31 is_stmt 1              @ rt-thread/components/net/lwip-2.0.2/src/netif/ethernetif.c:466:31
	ldr	r0, [sp, #4]
	.loc	8 466 38 is_stmt 0              @ rt-thread/components/net/lwip-2.0.2/src/netif/ethernetif.c:466:38
	ldr	r0, [r0, #80]
	.loc	8 466 13                        @ rt-thread/components/net/lwip-2.0.2/src/netif/ethernetif.c:466:13
	bl	netif_set_default
	b	.LBB12_5
.Ltmp126:
.LBB12_5:
	.loc	8 470 22 is_stmt 1              @ rt-thread/components/net/lwip-2.0.2/src/netif/ethernetif.c:470:22
	ldr	r0, [sp, #4]
	.loc	8 470 29 is_stmt 0              @ rt-thread/components/net/lwip-2.0.2/src/netif/ethernetif.c:470:29
	ldr	r0, [r0, #80]
	.loc	8 470 9                         @ rt-thread/components/net/lwip-2.0.2/src/netif/ethernetif.c:470:9
	bl	netif_set_up
	.loc	8 472 20 is_stmt 1              @ rt-thread/components/net/lwip-2.0.2/src/netif/ethernetif.c:472:20
	ldr	r0, [sp, #4]
	.loc	8 472 27 is_stmt 0              @ rt-thread/components/net/lwip-2.0.2/src/netif/ethernetif.c:472:27
	ldr	r0, [r0, #80]
	.loc	8 472 9                         @ rt-thread/components/net/lwip-2.0.2/src/netif/ethernetif.c:472:9
	bl	dhcp_start
.Ltmp127:
	.loc	8 478 13 is_stmt 1              @ rt-thread/components/net/lwip-2.0.2/src/netif/ethernetif.c:478:13
	ldr	r0, [sp, #4]
	ldrh.w	r0, [r0, #116]
.Ltmp128:
	.loc	8 478 13 is_stmt 0              @ rt-thread/components/net/lwip-2.0.2/src/netif/ethernetif.c:478:13
	lsls	r0, r0, #23
	cmp	r0, #0
	bpl	.LBB12_7
	b	.LBB12_6
.LBB12_6:
.Ltmp129:
	.loc	8 481 31 is_stmt 1              @ rt-thread/components/net/lwip-2.0.2/src/netif/ethernetif.c:481:31
	ldr	r0, [sp, #4]
	.loc	8 481 38 is_stmt 0              @ rt-thread/components/net/lwip-2.0.2/src/netif/ethernetif.c:481:38
	ldr	r0, [r0, #80]
	.loc	8 481 13                        @ rt-thread/components/net/lwip-2.0.2/src/netif/ethernetif.c:481:13
	bl	netif_set_link_up
	.loc	8 482 9 is_stmt 1               @ rt-thread/components/net/lwip-2.0.2/src/netif/ethernetif.c:482:9
	b	.LBB12_7
.Ltmp130:
.LBB12_7:
	.loc	8 0 9 is_stmt 0                 @ rt-thread/components/net/lwip-2.0.2/src/netif/ethernetif.c:0:9
	movs	r0, #0
	.loc	8 484 9 is_stmt 1               @ rt-thread/components/net/lwip-2.0.2/src/netif/ethernetif.c:484:9
	strb.w	r0, [sp, #15]
	b	.LBB12_9
.Ltmp131:
.LBB12_8:
	.loc	8 0 9 is_stmt 0                 @ rt-thread/components/net/lwip-2.0.2/src/netif/ethernetif.c:0:9
	movs	r0, #244
	.loc	8 487 5 is_stmt 1               @ rt-thread/components/net/lwip-2.0.2/src/netif/ethernetif.c:487:5
	strb.w	r0, [sp, #15]
	b	.LBB12_9
.LBB12_9:
	.loc	8 488 1                         @ rt-thread/components/net/lwip-2.0.2/src/netif/ethernetif.c:488:1
	ldrsb.w	r0, [sp, #15]
	add	sp, #16
	pop	{r7, pc}
.Ltmp132:
.Lfunc_end12:
	.size	eth_netif_device_init, .Lfunc_end12-eth_netif_device_init
	.cfi_endproc
	.cantunwind
	.fnend
                                        @ -- End function
	.section	.text.netdev_flags_sync,"ax",%progbits
	.p2align	3                               @ -- Begin function netdev_flags_sync
	.type	netdev_flags_sync,%function
	.code	16                              @ @netdev_flags_sync
	.thumb_func
netdev_flags_sync:
.Lfunc_begin13:
	.loc	8 369 0                         @ rt-thread/components/net/lwip-2.0.2/src/netif/ethernetif.c:369:0
	.fnstart
	.cfi_startproc
@ %bb.0:
	.save	{r7, lr}
	push	{r7, lr}
	.cfi_def_cfa_offset 8
	.cfi_offset lr, -4
	.cfi_offset r7, -8
	.pad	#16
	sub	sp, #16
	.cfi_def_cfa_offset 24
	str	r0, [sp, #8]
	movs	r0, #0
.Ltmp133:
	.loc	8 370 20 prologue_end           @ rt-thread/components/net/lwip-2.0.2/src/netif/ethernetif.c:370:20
	str	r0, [sp, #4]
.Ltmp134:
	.loc	8 372 5                         @ rt-thread/components/net/lwip-2.0.2/src/netif/ethernetif.c:372:5
	ldr	r0, [sp, #8]
.Ltmp135:
	.loc	8 372 5 is_stmt 0               @ rt-thread/components/net/lwip-2.0.2/src/netif/ethernetif.c:372:5
	cbnz	r0, .LBB13_2
	b	.LBB13_1
.LBB13_1:
.Ltmp136:
	.loc	8 372 5                         @ rt-thread/components/net/lwip-2.0.2/src/netif/ethernetif.c:372:5
	movw	r0, :lower16:.L.str.42
	movt	r0, :upper16:.L.str.42
	movw	r1, :lower16:.L__FUNCTION__.netdev_flags_sync
	movt	r1, :upper16:.L__FUNCTION__.netdev_flags_sync
	mov.w	r2, #372
	bl	rt_assert_handler
	b	.LBB13_2
.Ltmp137:
.LBB13_2:
	.loc	8 374 33 is_stmt 1              @ rt-thread/components/net/lwip-2.0.2/src/netif/ethernetif.c:374:33
	ldr	r0, [sp, #8]
	.loc	8 374 45 is_stmt 0              @ rt-thread/components/net/lwip-2.0.2/src/netif/ethernetif.c:374:45
	adds	r0, #66
	.loc	8 374 14                        @ rt-thread/components/net/lwip-2.0.2/src/netif/ethernetif.c:374:14
	bl	netdev_get_by_name
	.loc	8 374 12                        @ rt-thread/components/net/lwip-2.0.2/src/netif/ethernetif.c:374:12
	str	r0, [sp, #4]
.Ltmp138:
	.loc	8 375 9 is_stmt 1               @ rt-thread/components/net/lwip-2.0.2/src/netif/ethernetif.c:375:9
	ldr	r0, [sp, #4]
.Ltmp139:
	.loc	8 375 9 is_stmt 0               @ rt-thread/components/net/lwip-2.0.2/src/netif/ethernetif.c:375:9
	cbnz	r0, .LBB13_4
	b	.LBB13_3
.LBB13_3:
	.loc	8 0 9                           @ rt-thread/components/net/lwip-2.0.2/src/netif/ethernetif.c:0:9
	movs	r0, #12
.Ltmp140:
	.loc	8 377 9 is_stmt 1               @ rt-thread/components/net/lwip-2.0.2/src/netif/ethernetif.c:377:9
	str	r0, [sp, #12]
	b	.LBB13_5
.Ltmp141:
.LBB13_4:
	.loc	8 380 22                        @ rt-thread/components/net/lwip-2.0.2/src/netif/ethernetif.c:380:22
	ldr	r0, [sp, #8]
	.loc	8 380 34 is_stmt 0              @ rt-thread/components/net/lwip-2.0.2/src/netif/ethernetif.c:380:34
	ldrb.w	r2, [r0, #65]
	.loc	8 380 5                         @ rt-thread/components/net/lwip-2.0.2/src/netif/ethernetif.c:380:5
	ldr	r1, [sp, #4]
	.loc	8 380 19                        @ rt-thread/components/net/lwip-2.0.2/src/netif/ethernetif.c:380:19
	ldrh	r0, [r1, #42]
	orrs	r0, r2
	strh	r0, [r1, #42]
	movs	r0, #0
	.loc	8 382 5 is_stmt 1               @ rt-thread/components/net/lwip-2.0.2/src/netif/ethernetif.c:382:5
	str	r0, [sp, #12]
	b	.LBB13_5
.LBB13_5:
	.loc	8 383 1                         @ rt-thread/components/net/lwip-2.0.2/src/netif/ethernetif.c:383:1
	ldr	r0, [sp, #12]
	add	sp, #16
	pop	{r7, pc}
.Ltmp142:
.Lfunc_end13:
	.size	netdev_flags_sync, .Lfunc_end13-netdev_flags_sync
	.cfi_endproc
	.cantunwind
	.fnend
                                        @ -- End function
	.section	.text.eth_device_init,"ax",%progbits
	.hidden	eth_device_init                 @ -- Begin function eth_device_init
	.globl	eth_device_init
	.p2align	3
	.type	eth_device_init,%function
	.code	16                              @ @eth_device_init
	.thumb_func
eth_device_init:
.Lfunc_begin14:
	.loc	8 567 0                         @ rt-thread/components/net/lwip-2.0.2/src/netif/ethernetif.c:567:0
	.fnstart
	.cfi_startproc
@ %bb.0:
	.save	{r7, lr}
	push	{r7, lr}
	.cfi_def_cfa_offset 8
	.cfi_offset lr, -4
	.cfi_offset r7, -8
	.pad	#16
	sub	sp, #16
	.cfi_def_cfa_offset 24
	str	r0, [sp, #12]
	str	r1, [sp, #8]
	movs	r0, #10
.Ltmp143:
	.loc	8 568 17 prologue_end           @ rt-thread/components/net/lwip-2.0.2/src/netif/ethernetif.c:568:17
	strh.w	r0, [sp, #6]
	.loc	8 572 11                        @ rt-thread/components/net/lwip-2.0.2/src/netif/ethernetif.c:572:11
	ldrh.w	r0, [sp, #6]
	orr	r0, r0, #32
	strh.w	r0, [sp, #6]
	.loc	8 575 38                        @ rt-thread/components/net/lwip-2.0.2/src/netif/ethernetif.c:575:38
	ldr	r0, [sp, #12]
	.loc	8 575 43 is_stmt 0              @ rt-thread/components/net/lwip-2.0.2/src/netif/ethernetif.c:575:43
	ldr	r1, [sp, #8]
	.loc	8 575 49                        @ rt-thread/components/net/lwip-2.0.2/src/netif/ethernetif.c:575:49
	ldrh.w	r2, [sp, #6]
	.loc	8 575 12                        @ rt-thread/components/net/lwip-2.0.2/src/netif/ethernetif.c:575:12
	bl	eth_device_init_with_flag
	.loc	8 575 5                         @ rt-thread/components/net/lwip-2.0.2/src/netif/ethernetif.c:575:5
	add	sp, #16
	pop	{r7, pc}
.Ltmp144:
.Lfunc_end14:
	.size	eth_device_init, .Lfunc_end14-eth_device_init
	.cfi_endproc
	.cantunwind
	.fnend
                                        @ -- End function
	.section	.text.eth_device_deinit,"ax",%progbits
	.hidden	eth_device_deinit               @ -- Begin function eth_device_deinit
	.globl	eth_device_deinit
	.p2align	3
	.type	eth_device_deinit,%function
	.code	16                              @ @eth_device_deinit
	.thumb_func
eth_device_deinit:
.Lfunc_begin15:
	.loc	8 579 0 is_stmt 1               @ rt-thread/components/net/lwip-2.0.2/src/netif/ethernetif.c:579:0
	.fnstart
	.cfi_startproc
@ %bb.0:
	.save	{r7, lr}
	push	{r7, lr}
	.cfi_def_cfa_offset 8
	.cfi_offset lr, -4
	.cfi_offset r7, -8
	.pad	#8
	sub	sp, #8
	.cfi_def_cfa_offset 16
	str	r0, [sp, #4]
.Ltmp145:
	.loc	8 580 27 prologue_end           @ rt-thread/components/net/lwip-2.0.2/src/netif/ethernetif.c:580:27
	ldr	r0, [sp, #4]
	.loc	8 580 32 is_stmt 0              @ rt-thread/components/net/lwip-2.0.2/src/netif/ethernetif.c:580:32
	ldr	r0, [r0, #80]
	.loc	8 580 19                        @ rt-thread/components/net/lwip-2.0.2/src/netif/ethernetif.c:580:19
	str	r0, [sp]
	.loc	8 583 15 is_stmt 1              @ rt-thread/components/net/lwip-2.0.2/src/netif/ethernetif.c:583:15
	ldr	r0, [sp]
	.loc	8 583 5 is_stmt 0               @ rt-thread/components/net/lwip-2.0.2/src/netif/ethernetif.c:583:5
	bl	dhcp_stop
	.loc	8 584 18 is_stmt 1              @ rt-thread/components/net/lwip-2.0.2/src/netif/ethernetif.c:584:18
	ldr	r0, [sp]
	.loc	8 584 5 is_stmt 0               @ rt-thread/components/net/lwip-2.0.2/src/netif/ethernetif.c:584:5
	bl	dhcp_cleanup
	.loc	8 586 20 is_stmt 1              @ rt-thread/components/net/lwip-2.0.2/src/netif/ethernetif.c:586:20
	ldr	r0, [sp]
	.loc	8 586 5 is_stmt 0               @ rt-thread/components/net/lwip-2.0.2/src/netif/ethernetif.c:586:5
	bl	netif_set_down
	.loc	8 587 18 is_stmt 1              @ rt-thread/components/net/lwip-2.0.2/src/netif/ethernetif.c:587:18
	ldr	r0, [sp]
	.loc	8 587 5 is_stmt 0               @ rt-thread/components/net/lwip-2.0.2/src/netif/ethernetif.c:587:5
	bl	netif_remove
	.loc	8 589 16 is_stmt 1              @ rt-thread/components/net/lwip-2.0.2/src/netif/ethernetif.c:589:16
	ldr	r0, [sp]
	.loc	8 589 5 is_stmt 0               @ rt-thread/components/net/lwip-2.0.2/src/netif/ethernetif.c:589:5
	bl	netdev_del
	.loc	8 591 23 is_stmt 1              @ rt-thread/components/net/lwip-2.0.2/src/netif/ethernetif.c:591:23
	ldr	r0, [sp, #4]
	.loc	8 591 5 is_stmt 0               @ rt-thread/components/net/lwip-2.0.2/src/netif/ethernetif.c:591:5
	bl	rt_device_close
	.loc	8 592 28 is_stmt 1              @ rt-thread/components/net/lwip-2.0.2/src/netif/ethernetif.c:592:28
	ldr	r0, [sp, #4]
	.loc	8 592 5 is_stmt 0               @ rt-thread/components/net/lwip-2.0.2/src/netif/ethernetif.c:592:5
	bl	rt_device_unregister
	.loc	8 593 21 is_stmt 1              @ rt-thread/components/net/lwip-2.0.2/src/netif/ethernetif.c:593:21
	ldr	r0, [sp, #4]
	.loc	8 593 26 is_stmt 0              @ rt-thread/components/net/lwip-2.0.2/src/netif/ethernetif.c:593:26
	adds	r0, #84
	.loc	8 593 5                         @ rt-thread/components/net/lwip-2.0.2/src/netif/ethernetif.c:593:5
	bl	rt_sem_detach
	.loc	8 594 13 is_stmt 1              @ rt-thread/components/net/lwip-2.0.2/src/netif/ethernetif.c:594:13
	ldr	r0, [sp]
	.loc	8 594 5 is_stmt 0               @ rt-thread/components/net/lwip-2.0.2/src/netif/ethernetif.c:594:5
	bl	rt_free
	.loc	8 595 1 is_stmt 1               @ rt-thread/components/net/lwip-2.0.2/src/netif/ethernetif.c:595:1
	add	sp, #8
	pop	{r7, pc}
.Ltmp146:
.Lfunc_end15:
	.size	eth_device_deinit, .Lfunc_end15-eth_device_deinit
	.cfi_endproc
	.cantunwind
	.fnend
                                        @ -- End function
	.section	.text.netdev_del,"ax",%progbits
	.p2align	3                               @ -- Begin function netdev_del
	.type	netdev_del,%function
	.code	16                              @ @netdev_del
	.thumb_func
netdev_del:
.Lfunc_begin16:
	.loc	8 355 0                         @ rt-thread/components/net/lwip-2.0.2/src/netif/ethernetif.c:355:0
	.fnstart
	.cfi_startproc
@ %bb.0:
	.save	{r7, lr}
	push	{r7, lr}
	.cfi_def_cfa_offset 8
	.cfi_offset lr, -4
	.cfi_offset r7, -8
	.pad	#16
	sub	sp, #16
	.cfi_def_cfa_offset 24
	str	r0, [sp, #12]
.Ltmp147:
	.loc	8 359 5 prologue_end            @ rt-thread/components/net/lwip-2.0.2/src/netif/ethernetif.c:359:5
	ldr	r0, [sp, #12]
.Ltmp148:
	.loc	8 359 5 is_stmt 0               @ rt-thread/components/net/lwip-2.0.2/src/netif/ethernetif.c:359:5
	cbnz	r0, .LBB16_2
	b	.LBB16_1
.LBB16_1:
.Ltmp149:
	.loc	8 359 5                         @ rt-thread/components/net/lwip-2.0.2/src/netif/ethernetif.c:359:5
	movw	r0, :lower16:.L.str.42
	movt	r0, :upper16:.L.str.42
	movw	r1, :lower16:.L__FUNCTION__.netdev_del
	movt	r1, :upper16:.L__FUNCTION__.netdev_del
	movw	r2, #359
	bl	rt_assert_handler
	b	.LBB16_2
.Ltmp150:
.LBB16_2:
	.loc	8 361 22 is_stmt 1              @ rt-thread/components/net/lwip-2.0.2/src/netif/ethernetif.c:361:22
	ldr	r0, [sp, #12]
	.loc	8 361 34 is_stmt 0              @ rt-thread/components/net/lwip-2.0.2/src/netif/ethernetif.c:361:34
	add.w	r1, r0, #66
	add.w	r0, sp, #9
	str	r0, [sp]                        @ 4-byte Spill
	movs	r2, #2
	.loc	8 361 5                         @ rt-thread/components/net/lwip-2.0.2/src/netif/ethernetif.c:361:5
	bl	rt_strncpy
                                        @ kill: def $r1 killed $r0
	.loc	8 362 14 is_stmt 1              @ rt-thread/components/net/lwip-2.0.2/src/netif/ethernetif.c:362:14
	ldr	r0, [sp]                        @ 4-byte Reload
	bl	netdev_get_by_name
	.loc	8 362 12 is_stmt 0              @ rt-thread/components/net/lwip-2.0.2/src/netif/ethernetif.c:362:12
	str	r0, [sp, #4]
	.loc	8 363 23 is_stmt 1              @ rt-thread/components/net/lwip-2.0.2/src/netif/ethernetif.c:363:23
	ldr	r0, [sp, #4]
	.loc	8 363 5 is_stmt 0               @ rt-thread/components/net/lwip-2.0.2/src/netif/ethernetif.c:363:5
	bl	netdev_unregister
	.loc	8 364 13 is_stmt 1              @ rt-thread/components/net/lwip-2.0.2/src/netif/ethernetif.c:364:13
	ldr	r0, [sp, #4]
	.loc	8 364 5 is_stmt 0               @ rt-thread/components/net/lwip-2.0.2/src/netif/ethernetif.c:364:5
	bl	rt_free
	.loc	8 365 1 is_stmt 1               @ rt-thread/components/net/lwip-2.0.2/src/netif/ethernetif.c:365:1
	add	sp, #16
	pop	{r7, pc}
.Ltmp151:
.Lfunc_end16:
	.size	netdev_del, .Lfunc_end16-netdev_del
	.cfi_endproc
	.cantunwind
	.fnend
                                        @ -- End function
	.section	.text.eth_device_ready,"ax",%progbits
	.hidden	eth_device_ready                @ -- Begin function eth_device_ready
	.globl	eth_device_ready
	.p2align	3
	.type	eth_device_ready,%function
	.code	16                              @ @eth_device_ready
	.thumb_func
eth_device_ready:
.Lfunc_begin17:
	.loc	8 599 0                         @ rt-thread/components/net/lwip-2.0.2/src/netif/ethernetif.c:599:0
	.fnstart
	.cfi_startproc
@ %bb.0:
	.save	{r7, lr}
	push	{r7, lr}
	.cfi_def_cfa_offset 8
	.cfi_offset lr, -4
	.cfi_offset r7, -8
	.pad	#8
	sub	sp, #8
	.cfi_def_cfa_offset 16
	str	r0, [sp]
.Ltmp152:
	.loc	8 600 9 prologue_end            @ rt-thread/components/net/lwip-2.0.2/src/netif/ethernetif.c:600:9
	ldr	r0, [sp]
	.loc	8 600 14 is_stmt 0              @ rt-thread/components/net/lwip-2.0.2/src/netif/ethernetif.c:600:14
	ldr	r0, [r0, #80]
.Ltmp153:
	.loc	8 600 9                         @ rt-thread/components/net/lwip-2.0.2/src/netif/ethernetif.c:600:9
	cbz	r0, .LBB17_2
	b	.LBB17_1
.LBB17_1:
.Ltmp154:
	.loc	8 602 59 is_stmt 1              @ rt-thread/components/net/lwip-2.0.2/src/netif/ethernetif.c:602:59
	ldr	r1, [sp]
	.loc	8 602 16 is_stmt 0              @ rt-thread/components/net/lwip-2.0.2/src/netif/ethernetif.c:602:16
	movw	r0, :lower16:eth_rx_thread_mb
	movt	r0, :upper16:eth_rx_thread_mb
	bl	rt_mb_send
	.loc	8 602 9                         @ rt-thread/components/net/lwip-2.0.2/src/netif/ethernetif.c:602:9
	str	r0, [sp, #4]
	b	.LBB17_3
.LBB17_2:
	.loc	8 0 9                           @ rt-thread/components/net/lwip-2.0.2/src/netif/ethernetif.c:0:9
	movs	r0, #0
	.loc	8 604 9 is_stmt 1               @ rt-thread/components/net/lwip-2.0.2/src/netif/ethernetif.c:604:9
	str	r0, [sp, #4]
	b	.LBB17_3
.Ltmp155:
.LBB17_3:
	.loc	8 605 1                         @ rt-thread/components/net/lwip-2.0.2/src/netif/ethernetif.c:605:1
	ldr	r0, [sp, #4]
	add	sp, #8
	pop	{r7, pc}
.Ltmp156:
.Lfunc_end17:
	.size	eth_device_ready, .Lfunc_end17-eth_device_ready
	.cfi_endproc
	.cantunwind
	.fnend
                                        @ -- End function
	.section	.text.eth_device_linkchange,"ax",%progbits
	.hidden	eth_device_linkchange           @ -- Begin function eth_device_linkchange
	.globl	eth_device_linkchange
	.p2align	3
	.type	eth_device_linkchange,%function
	.code	16                              @ @eth_device_linkchange
	.thumb_func
eth_device_linkchange:
.Lfunc_begin18:
	.loc	8 608 0                         @ rt-thread/components/net/lwip-2.0.2/src/netif/ethernetif.c:608:0
	.fnstart
	.cfi_startproc
@ %bb.0:
	.save	{r7, lr}
	push	{r7, lr}
	.cfi_def_cfa_offset 8
	.cfi_offset lr, -4
	.cfi_offset r7, -8
	.pad	#16
	sub	sp, #16
	.cfi_def_cfa_offset 24
	str	r0, [sp, #12]
	str	r1, [sp, #8]
.Ltmp157:
	.loc	8 611 5 prologue_end            @ rt-thread/components/net/lwip-2.0.2/src/netif/ethernetif.c:611:5
	ldr	r0, [sp, #12]
.Ltmp158:
	.loc	8 611 5 is_stmt 0               @ rt-thread/components/net/lwip-2.0.2/src/netif/ethernetif.c:611:5
	cbnz	r0, .LBB18_2
	b	.LBB18_1
.LBB18_1:
.Ltmp159:
	.loc	8 611 5                         @ rt-thread/components/net/lwip-2.0.2/src/netif/ethernetif.c:611:5
	movw	r0, :lower16:.L.str.6
	movt	r0, :upper16:.L.str.6
	movw	r1, :lower16:.L__FUNCTION__.eth_device_linkchange
	movt	r1, :upper16:.L__FUNCTION__.eth_device_linkchange
	movw	r2, #611
	bl	rt_assert_handler
	b	.LBB18_2
.Ltmp160:
.LBB18_2:
	.loc	8 613 13 is_stmt 1              @ rt-thread/components/net/lwip-2.0.2/src/netif/ethernetif.c:613:13
	bl	rt_hw_interrupt_disable
	.loc	8 613 11 is_stmt 0              @ rt-thread/components/net/lwip-2.0.2/src/netif/ethernetif.c:613:11
	str	r0, [sp, #4]
	.loc	8 614 5 is_stmt 1               @ rt-thread/components/net/lwip-2.0.2/src/netif/ethernetif.c:614:5
	ldr	r1, [sp, #12]
	movs	r0, #1
	.loc	8 614 23 is_stmt 0              @ rt-thread/components/net/lwip-2.0.2/src/netif/ethernetif.c:614:23
	strb.w	r0, [r1, #118]
.Ltmp161:
	.loc	8 615 9 is_stmt 1               @ rt-thread/components/net/lwip-2.0.2/src/netif/ethernetif.c:615:9
	ldr	r0, [sp, #8]
.Ltmp162:
	.loc	8 615 9 is_stmt 0               @ rt-thread/components/net/lwip-2.0.2/src/netif/ethernetif.c:615:9
	cmp	r0, #1
	bne	.LBB18_4
	b	.LBB18_3
.LBB18_3:
.Ltmp163:
	.loc	8 616 9 is_stmt 1               @ rt-thread/components/net/lwip-2.0.2/src/netif/ethernetif.c:616:9
	ldr	r1, [sp, #12]
	movs	r0, #1
	.loc	8 616 26 is_stmt 0              @ rt-thread/components/net/lwip-2.0.2/src/netif/ethernetif.c:616:26
	strb.w	r0, [r1, #119]
	.loc	8 616 9                         @ rt-thread/components/net/lwip-2.0.2/src/netif/ethernetif.c:616:9
	b	.LBB18_5
.LBB18_4:
	.loc	8 618 9 is_stmt 1               @ rt-thread/components/net/lwip-2.0.2/src/netif/ethernetif.c:618:9
	ldr	r1, [sp, #12]
	movs	r0, #0
	.loc	8 618 26 is_stmt 0              @ rt-thread/components/net/lwip-2.0.2/src/netif/ethernetif.c:618:26
	strb.w	r0, [r1, #119]
	b	.LBB18_5
.Ltmp164:
.LBB18_5:
	.loc	8 619 28 is_stmt 1              @ rt-thread/components/net/lwip-2.0.2/src/netif/ethernetif.c:619:28
	ldr	r0, [sp, #4]
	.loc	8 619 5 is_stmt 0               @ rt-thread/components/net/lwip-2.0.2/src/netif/ethernetif.c:619:5
	bl	rt_hw_interrupt_enable
	.loc	8 622 55 is_stmt 1              @ rt-thread/components/net/lwip-2.0.2/src/netif/ethernetif.c:622:55
	ldr	r1, [sp, #12]
	.loc	8 622 12 is_stmt 0              @ rt-thread/components/net/lwip-2.0.2/src/netif/ethernetif.c:622:12
	movw	r0, :lower16:eth_rx_thread_mb
	movt	r0, :upper16:eth_rx_thread_mb
	bl	rt_mb_send
	.loc	8 622 5                         @ rt-thread/components/net/lwip-2.0.2/src/netif/ethernetif.c:622:5
	add	sp, #16
	pop	{r7, pc}
.Ltmp165:
.Lfunc_end18:
	.size	eth_device_linkchange, .Lfunc_end18-eth_device_linkchange
	.cfi_endproc
	.cantunwind
	.fnend
                                        @ -- End function
	.section	.text.eth_system_device_init,"ax",%progbits
	.hidden	eth_system_device_init          @ -- Begin function eth_system_device_init
	.globl	eth_system_device_init
	.p2align	3
	.type	eth_system_device_init,%function
	.code	16                              @ @eth_system_device_init
	.thumb_func
eth_system_device_init:
.Lfunc_begin19:
	.loc	8 730 0 is_stmt 1               @ rt-thread/components/net/lwip-2.0.2/src/netif/ethernetif.c:730:0
	.fnstart
	.cfi_startproc
@ %bb.0:
	movs	r0, #0
.Ltmp166:
	.loc	8 731 5 prologue_end            @ rt-thread/components/net/lwip-2.0.2/src/netif/ethernetif.c:731:5
	bx	lr
.Ltmp167:
.Lfunc_end19:
	.size	eth_system_device_init, .Lfunc_end19-eth_system_device_init
	.cfi_endproc
	.cantunwind
	.fnend
                                        @ -- End function
	.section	.text.eth_system_device_init_private,"ax",%progbits
	.hidden	eth_system_device_init_private  @ -- Begin function eth_system_device_init_private
	.globl	eth_system_device_init_private
	.p2align	3
	.type	eth_system_device_init_private,%function
	.code	16                              @ @eth_system_device_init_private
	.thumb_func
eth_system_device_init_private:
.Lfunc_begin20:
	.loc	8 735 0                         @ rt-thread/components/net/lwip-2.0.2/src/netif/ethernetif.c:735:0
	.fnstart
	.cfi_startproc
@ %bb.0:
	.save	{r7, lr}
	push	{r7, lr}
	.cfi_def_cfa_offset 8
	.cfi_offset lr, -4
	.cfi_offset r7, -8
	.pad	#24
	sub	sp, #24
	.cfi_def_cfa_offset 32
	movs	r0, #0
.Ltmp168:
	.loc	8 736 14 prologue_end           @ rt-thread/components/net/lwip-2.0.2/src/netif/ethernetif.c:736:14
	str	r0, [sp, #20]
	.loc	8 741 14                        @ rt-thread/components/net/lwip-2.0.2/src/netif/ethernetif.c:741:14
	mov	r1, sp
	str	r0, [r1]
	movw	r0, :lower16:eth_rx_thread_mb
	movt	r0, :upper16:eth_rx_thread_mb
	movw	r1, :lower16:.L.str.7
	movt	r1, :upper16:.L.str.7
	movw	r2, :lower16:eth_rx_thread_mb_pool
	movt	r2, :upper16:eth_rx_thread_mb_pool
	movs	r3, #8
	bl	rt_mb_init
	.loc	8 741 12 is_stmt 0              @ rt-thread/components/net/lwip-2.0.2/src/netif/ethernetif.c:741:12
	str	r0, [sp, #20]
.Ltmp169:
	.loc	8 744 5 is_stmt 1               @ rt-thread/components/net/lwip-2.0.2/src/netif/ethernetif.c:744:5
	ldr	r0, [sp, #20]
.Ltmp170:
	.loc	8 744 5 is_stmt 0               @ rt-thread/components/net/lwip-2.0.2/src/netif/ethernetif.c:744:5
	cbz	r0, .LBB20_2
	b	.LBB20_1
.LBB20_1:
.Ltmp171:
	.loc	8 744 5                         @ rt-thread/components/net/lwip-2.0.2/src/netif/ethernetif.c:744:5
	movw	r0, :lower16:.L.str.8
	movt	r0, :upper16:.L.str.8
	movw	r1, :lower16:.L__FUNCTION__.eth_system_device_init_private
	movt	r1, :upper16:.L__FUNCTION__.eth_system_device_init_private
	mov.w	r2, #744
	bl	rt_assert_handler
	b	.LBB20_2
.Ltmp172:
.LBB20_2:
	.loc	8 746 14 is_stmt 1              @ rt-thread/components/net/lwip-2.0.2/src/netif/ethernetif.c:746:14
	mov	r1, sp
	movs	r0, #16
	str	r0, [r1, #12]
	movs	r0, #12
	str	r0, [r1, #8]
	mov.w	r0, #1024
	str	r0, [r1, #4]
	movw	r0, :lower16:eth_rx_thread_stack
	movt	r0, :upper16:eth_rx_thread_stack
	str	r0, [r1]
	movw	r0, :lower16:eth_rx_thread
	movt	r0, :upper16:eth_rx_thread
	movw	r1, :lower16:.L.str.9
	movt	r1, :upper16:.L.str.9
	movw	r2, :lower16:eth_rx_thread_entry
	movt	r2, :upper16:eth_rx_thread_entry
	movs	r3, #0
	bl	rt_thread_init
	.loc	8 746 12 is_stmt 0              @ rt-thread/components/net/lwip-2.0.2/src/netif/ethernetif.c:746:12
	str	r0, [sp, #20]
.Ltmp173:
	.loc	8 749 5 is_stmt 1               @ rt-thread/components/net/lwip-2.0.2/src/netif/ethernetif.c:749:5
	ldr	r0, [sp, #20]
.Ltmp174:
	.loc	8 749 5 is_stmt 0               @ rt-thread/components/net/lwip-2.0.2/src/netif/ethernetif.c:749:5
	cbz	r0, .LBB20_4
	b	.LBB20_3
.LBB20_3:
.Ltmp175:
	.loc	8 749 5                         @ rt-thread/components/net/lwip-2.0.2/src/netif/ethernetif.c:749:5
	movw	r0, :lower16:.L.str.8
	movt	r0, :upper16:.L.str.8
	movw	r1, :lower16:.L__FUNCTION__.eth_system_device_init_private
	movt	r1, :upper16:.L__FUNCTION__.eth_system_device_init_private
	movw	r2, #749
	bl	rt_assert_handler
	b	.LBB20_4
.Ltmp176:
.LBB20_4:
	.loc	8 750 14 is_stmt 1              @ rt-thread/components/net/lwip-2.0.2/src/netif/ethernetif.c:750:14
	movw	r0, :lower16:eth_rx_thread
	movt	r0, :upper16:eth_rx_thread
	bl	rt_thread_startup
	.loc	8 750 12 is_stmt 0              @ rt-thread/components/net/lwip-2.0.2/src/netif/ethernetif.c:750:12
	str	r0, [sp, #20]
.Ltmp177:
	.loc	8 751 5 is_stmt 1               @ rt-thread/components/net/lwip-2.0.2/src/netif/ethernetif.c:751:5
	ldr	r0, [sp, #20]
.Ltmp178:
	.loc	8 751 5 is_stmt 0               @ rt-thread/components/net/lwip-2.0.2/src/netif/ethernetif.c:751:5
	cbz	r0, .LBB20_6
	b	.LBB20_5
.LBB20_5:
.Ltmp179:
	.loc	8 751 5                         @ rt-thread/components/net/lwip-2.0.2/src/netif/ethernetif.c:751:5
	movw	r0, :lower16:.L.str.8
	movt	r0, :upper16:.L.str.8
	movw	r1, :lower16:.L__FUNCTION__.eth_system_device_init_private
	movt	r1, :upper16:.L__FUNCTION__.eth_system_device_init_private
	movw	r2, #751
	bl	rt_assert_handler
	b	.LBB20_6
.Ltmp180:
.LBB20_6:
	.loc	8 757 14 is_stmt 1              @ rt-thread/components/net/lwip-2.0.2/src/netif/ethernetif.c:757:14
	mov	r1, sp
	movs	r0, #0
	str	r0, [r1]
	movw	r0, :lower16:eth_tx_thread_mb
	movt	r0, :upper16:eth_tx_thread_mb
	movw	r1, :lower16:.L.str.10
	movt	r1, :upper16:.L.str.10
	movw	r2, :lower16:eth_tx_thread_mb_pool
	movt	r2, :upper16:eth_tx_thread_mb_pool
	movs	r3, #8
	bl	rt_mb_init
	.loc	8 757 12 is_stmt 0              @ rt-thread/components/net/lwip-2.0.2/src/netif/ethernetif.c:757:12
	str	r0, [sp, #20]
.Ltmp181:
	.loc	8 760 5 is_stmt 1               @ rt-thread/components/net/lwip-2.0.2/src/netif/ethernetif.c:760:5
	ldr	r0, [sp, #20]
.Ltmp182:
	.loc	8 760 5 is_stmt 0               @ rt-thread/components/net/lwip-2.0.2/src/netif/ethernetif.c:760:5
	cbz	r0, .LBB20_8
	b	.LBB20_7
.LBB20_7:
.Ltmp183:
	.loc	8 760 5                         @ rt-thread/components/net/lwip-2.0.2/src/netif/ethernetif.c:760:5
	movw	r0, :lower16:.L.str.8
	movt	r0, :upper16:.L.str.8
	movw	r1, :lower16:.L__FUNCTION__.eth_system_device_init_private
	movt	r1, :upper16:.L__FUNCTION__.eth_system_device_init_private
	mov.w	r2, #760
	bl	rt_assert_handler
	b	.LBB20_8
.Ltmp184:
.LBB20_8:
	.loc	8 762 14 is_stmt 1              @ rt-thread/components/net/lwip-2.0.2/src/netif/ethernetif.c:762:14
	mov	r1, sp
	movs	r0, #16
	str	r0, [r1, #12]
	movs	r0, #12
	str	r0, [r1, #8]
	mov.w	r0, #1024
	str	r0, [r1, #4]
	movw	r0, :lower16:eth_tx_thread_stack
	movt	r0, :upper16:eth_tx_thread_stack
	str	r0, [r1]
	movw	r0, :lower16:eth_tx_thread
	movt	r0, :upper16:eth_tx_thread
	movw	r1, :lower16:.L.str.11
	movt	r1, :upper16:.L.str.11
	movw	r2, :lower16:eth_tx_thread_entry
	movt	r2, :upper16:eth_tx_thread_entry
	movs	r3, #0
	bl	rt_thread_init
	.loc	8 762 12 is_stmt 0              @ rt-thread/components/net/lwip-2.0.2/src/netif/ethernetif.c:762:12
	str	r0, [sp, #20]
.Ltmp185:
	.loc	8 765 5 is_stmt 1               @ rt-thread/components/net/lwip-2.0.2/src/netif/ethernetif.c:765:5
	ldr	r0, [sp, #20]
.Ltmp186:
	.loc	8 765 5 is_stmt 0               @ rt-thread/components/net/lwip-2.0.2/src/netif/ethernetif.c:765:5
	cbz	r0, .LBB20_10
	b	.LBB20_9
.LBB20_9:
.Ltmp187:
	.loc	8 765 5                         @ rt-thread/components/net/lwip-2.0.2/src/netif/ethernetif.c:765:5
	movw	r0, :lower16:.L.str.8
	movt	r0, :upper16:.L.str.8
	movw	r1, :lower16:.L__FUNCTION__.eth_system_device_init_private
	movt	r1, :upper16:.L__FUNCTION__.eth_system_device_init_private
	movw	r2, #765
	bl	rt_assert_handler
	b	.LBB20_10
.Ltmp188:
.LBB20_10:
	.loc	8 767 14 is_stmt 1              @ rt-thread/components/net/lwip-2.0.2/src/netif/ethernetif.c:767:14
	movw	r0, :lower16:eth_tx_thread
	movt	r0, :upper16:eth_tx_thread
	bl	rt_thread_startup
	.loc	8 767 12 is_stmt 0              @ rt-thread/components/net/lwip-2.0.2/src/netif/ethernetif.c:767:12
	str	r0, [sp, #20]
.Ltmp189:
	.loc	8 768 5 is_stmt 1               @ rt-thread/components/net/lwip-2.0.2/src/netif/ethernetif.c:768:5
	ldr	r0, [sp, #20]
.Ltmp190:
	.loc	8 768 5 is_stmt 0               @ rt-thread/components/net/lwip-2.0.2/src/netif/ethernetif.c:768:5
	cbz	r0, .LBB20_12
	b	.LBB20_11
.LBB20_11:
.Ltmp191:
	.loc	8 768 5                         @ rt-thread/components/net/lwip-2.0.2/src/netif/ethernetif.c:768:5
	movw	r0, :lower16:.L.str.8
	movt	r0, :upper16:.L.str.8
	movw	r1, :lower16:.L__FUNCTION__.eth_system_device_init_private
	movt	r1, :upper16:.L__FUNCTION__.eth_system_device_init_private
	mov.w	r2, #768
	bl	rt_assert_handler
	b	.LBB20_12
.Ltmp192:
.LBB20_12:
	.loc	8 771 17 is_stmt 1              @ rt-thread/components/net/lwip-2.0.2/src/netif/ethernetif.c:771:17
	ldr	r0, [sp, #20]
	.loc	8 771 5 is_stmt 0               @ rt-thread/components/net/lwip-2.0.2/src/netif/ethernetif.c:771:5
	add	sp, #24
	pop	{r7, pc}
.Ltmp193:
.Lfunc_end20:
	.size	eth_system_device_init_private, .Lfunc_end20-eth_system_device_init_private
	.cfi_endproc
	.cantunwind
	.fnend
                                        @ -- End function
	.section	.text.eth_rx_thread_entry,"ax",%progbits
	.p2align	3                               @ -- Begin function eth_rx_thread_entry
	.type	eth_rx_thread_entry,%function
	.code	16                              @ @eth_rx_thread_entry
	.thumb_func
eth_rx_thread_entry:
.Lfunc_begin21:
	.loc	8 672 0 is_stmt 1               @ rt-thread/components/net/lwip-2.0.2/src/netif/ethernetif.c:672:0
	.fnstart
	.cfi_startproc
@ %bb.0:
	.save	{r7, lr}
	push	{r7, lr}
	.cfi_def_cfa_offset 8
	.cfi_offset lr, -4
	.cfi_offset r7, -8
	.pad	#24
	sub	sp, #24
	.cfi_def_cfa_offset 32
	str	r0, [sp, #20]
.Ltmp194:
	.loc	8 675 5 prologue_end            @ rt-thread/components/net/lwip-2.0.2/src/netif/ethernetif.c:675:5
	b	.LBB21_1
.LBB21_1:                               @ =>This Loop Header: Depth=1
                                        @     Child Loop BB21_8 Depth 2
.Ltmp195:
	.loc	8 677 13                        @ rt-thread/components/net/lwip-2.0.2/src/netif/ethernetif.c:677:13
	movw	r0, :lower16:eth_rx_thread_mb
	movt	r0, :upper16:eth_rx_thread_mb
	add	r1, sp, #16
	mov.w	r2, #-1
	bl	rt_mb_recv
.Ltmp196:
	.loc	8 677 13 is_stmt 0              @ rt-thread/components/net/lwip-2.0.2/src/netif/ethernetif.c:677:13
	cmp	r0, #0
	bne	.LBB21_17
	b	.LBB21_2
.LBB21_2:                               @   in Loop: Header=BB21_1 Depth=1
.Ltmp197:
	.loc	8 682 17 is_stmt 1              @ rt-thread/components/net/lwip-2.0.2/src/netif/ethernetif.c:682:17
	ldr	r0, [sp, #16]
	.loc	8 682 25 is_stmt 0              @ rt-thread/components/net/lwip-2.0.2/src/netif/ethernetif.c:682:25
	ldrb.w	r0, [r0, #118]
.Ltmp198:
	.loc	8 682 17                        @ rt-thread/components/net/lwip-2.0.2/src/netif/ethernetif.c:682:17
	cbz	r0, .LBB21_7
	b	.LBB21_3
.LBB21_3:                               @   in Loop: Header=BB21_1 Depth=1
.Ltmp199:
	.loc	8 687 25 is_stmt 1              @ rt-thread/components/net/lwip-2.0.2/src/netif/ethernetif.c:687:25
	bl	rt_hw_interrupt_disable
	.loc	8 687 23 is_stmt 0              @ rt-thread/components/net/lwip-2.0.2/src/netif/ethernetif.c:687:23
	str	r0, [sp, #4]
	.loc	8 688 26 is_stmt 1              @ rt-thread/components/net/lwip-2.0.2/src/netif/ethernetif.c:688:26
	ldr	r0, [sp, #16]
	.loc	8 688 34 is_stmt 0              @ rt-thread/components/net/lwip-2.0.2/src/netif/ethernetif.c:688:34
	ldrb.w	r0, [r0, #119]
	.loc	8 688 24                        @ rt-thread/components/net/lwip-2.0.2/src/netif/ethernetif.c:688:24
	str	r0, [sp, #8]
	.loc	8 689 17 is_stmt 1              @ rt-thread/components/net/lwip-2.0.2/src/netif/ethernetif.c:689:17
	ldr	r1, [sp, #16]
	movs	r0, #0
	.loc	8 689 38 is_stmt 0              @ rt-thread/components/net/lwip-2.0.2/src/netif/ethernetif.c:689:38
	strb.w	r0, [r1, #118]
	.loc	8 690 40 is_stmt 1              @ rt-thread/components/net/lwip-2.0.2/src/netif/ethernetif.c:690:40
	ldr	r0, [sp, #4]
	.loc	8 690 17 is_stmt 0              @ rt-thread/components/net/lwip-2.0.2/src/netif/ethernetif.c:690:17
	bl	rt_hw_interrupt_enable
.Ltmp200:
	.loc	8 692 21 is_stmt 1              @ rt-thread/components/net/lwip-2.0.2/src/netif/ethernetif.c:692:21
	ldr	r0, [sp, #8]
.Ltmp201:
	.loc	8 692 21 is_stmt 0              @ rt-thread/components/net/lwip-2.0.2/src/netif/ethernetif.c:692:21
	cbz	r0, .LBB21_5
	b	.LBB21_4
.LBB21_4:                               @   in Loop: Header=BB21_1 Depth=1
.Ltmp202:
	.loc	8 693 21 is_stmt 1              @ rt-thread/components/net/lwip-2.0.2/src/netif/ethernetif.c:693:21
	ldr	r0, [sp, #16]
	ldr	r0, [r0, #80]
	movw	r1, :lower16:netif_set_link_up
	movt	r1, :upper16:netif_set_link_up
	movs	r2, #0
	bl	netifapi_netif_common
	b	.LBB21_6
.LBB21_5:                               @   in Loop: Header=BB21_1 Depth=1
	.loc	8 695 21                        @ rt-thread/components/net/lwip-2.0.2/src/netif/ethernetif.c:695:21
	ldr	r0, [sp, #16]
	ldr	r0, [r0, #80]
	movw	r1, :lower16:netif_set_link_down
	movt	r1, :upper16:netif_set_link_down
	movs	r2, #0
	bl	netifapi_netif_common
	b	.LBB21_6
.Ltmp203:
.LBB21_6:                               @   in Loop: Header=BB21_1 Depth=1
	.loc	8 696 13                        @ rt-thread/components/net/lwip-2.0.2/src/netif/ethernetif.c:696:13
	b	.LBB21_7
.Ltmp204:
.LBB21_7:                               @   in Loop: Header=BB21_1 Depth=1
	.loc	8 699 13                        @ rt-thread/components/net/lwip-2.0.2/src/netif/ethernetif.c:699:13
	b	.LBB21_8
.LBB21_8:                               @   Parent Loop BB21_1 Depth=1
                                        @ =>  This Inner Loop Header: Depth=2
.Ltmp205:
	.loc	8 701 20                        @ rt-thread/components/net/lwip-2.0.2/src/netif/ethernetif.c:701:20
	ldr	r0, [sp, #16]
	.loc	8 701 28 is_stmt 0              @ rt-thread/components/net/lwip-2.0.2/src/netif/ethernetif.c:701:28
	ldr	r0, [r0, #120]
.Ltmp206:
	.loc	8 701 20                        @ rt-thread/components/net/lwip-2.0.2/src/netif/ethernetif.c:701:20
	cbnz	r0, .LBB21_10
	b	.LBB21_9
.LBB21_9:                               @   in Loop: Header=BB21_1 Depth=1
.Ltmp207:
	.loc	8 701 47                        @ rt-thread/components/net/lwip-2.0.2/src/netif/ethernetif.c:701:47
	b	.LBB21_16
.Ltmp208:
.LBB21_10:                              @   in Loop: Header=BB21_8 Depth=2
	.loc	8 703 21 is_stmt 1              @ rt-thread/components/net/lwip-2.0.2/src/netif/ethernetif.c:703:21
	ldr	r0, [sp, #16]
	.loc	8 703 29 is_stmt 0              @ rt-thread/components/net/lwip-2.0.2/src/netif/ethernetif.c:703:29
	ldr	r1, [r0, #120]
	.loc	8 703 21                        @ rt-thread/components/net/lwip-2.0.2/src/netif/ethernetif.c:703:21
	blx	r1
	.loc	8 703 19                        @ rt-thread/components/net/lwip-2.0.2/src/netif/ethernetif.c:703:19
	str	r0, [sp, #12]
.Ltmp209:
	.loc	8 704 21 is_stmt 1              @ rt-thread/components/net/lwip-2.0.2/src/netif/ethernetif.c:704:21
	ldr	r0, [sp, #12]
.Ltmp210:
	.loc	8 704 21 is_stmt 0              @ rt-thread/components/net/lwip-2.0.2/src/netif/ethernetif.c:704:21
	cbz	r0, .LBB21_14
	b	.LBB21_11
.LBB21_11:                              @   in Loop: Header=BB21_8 Depth=2
.Ltmp211:
	.loc	8 707 25 is_stmt 1              @ rt-thread/components/net/lwip-2.0.2/src/netif/ethernetif.c:707:25
	ldr	r0, [sp, #16]
	.loc	8 707 33 is_stmt 0              @ rt-thread/components/net/lwip-2.0.2/src/netif/ethernetif.c:707:33
	ldr	r1, [r0, #80]
	.loc	8 707 40                        @ rt-thread/components/net/lwip-2.0.2/src/netif/ethernetif.c:707:40
	ldr	r2, [r1, #16]
	.loc	8 707 46                        @ rt-thread/components/net/lwip-2.0.2/src/netif/ethernetif.c:707:46
	ldr	r0, [sp, #12]
	.loc	8 707 25                        @ rt-thread/components/net/lwip-2.0.2/src/netif/ethernetif.c:707:25
	blx	r2
.Ltmp212:
	.loc	8 707 25                        @ rt-thread/components/net/lwip-2.0.2/src/netif/ethernetif.c:707:25
	cbz	r0, .LBB21_13
	b	.LBB21_12
.LBB21_12:                              @   in Loop: Header=BB21_8 Depth=2
.Ltmp213:
	.loc	8 710 35 is_stmt 1              @ rt-thread/components/net/lwip-2.0.2/src/netif/ethernetif.c:710:35
	ldr	r0, [sp, #12]
	.loc	8 710 25 is_stmt 0              @ rt-thread/components/net/lwip-2.0.2/src/netif/ethernetif.c:710:25
	bl	pbuf_free
	movs	r0, #0
	.loc	8 711 27 is_stmt 1              @ rt-thread/components/net/lwip-2.0.2/src/netif/ethernetif.c:711:27
	str	r0, [sp, #12]
	.loc	8 712 21                        @ rt-thread/components/net/lwip-2.0.2/src/netif/ethernetif.c:712:21
	b	.LBB21_13
.Ltmp214:
.LBB21_13:                              @   in Loop: Header=BB21_8 Depth=2
	.loc	8 713 17                        @ rt-thread/components/net/lwip-2.0.2/src/netif/ethernetif.c:713:17
	b	.LBB21_15
.Ltmp215:
.LBB21_14:                              @   in Loop: Header=BB21_1 Depth=1
	.loc	8 714 22                        @ rt-thread/components/net/lwip-2.0.2/src/netif/ethernetif.c:714:22
	b	.LBB21_16
.Ltmp216:
.LBB21_15:                              @   in Loop: Header=BB21_8 Depth=2
	.loc	8 699 13                        @ rt-thread/components/net/lwip-2.0.2/src/netif/ethernetif.c:699:13
	b	.LBB21_8
.LBB21_16:                              @   in Loop: Header=BB21_1 Depth=1
	.loc	8 716 9                         @ rt-thread/components/net/lwip-2.0.2/src/netif/ethernetif.c:716:9
	b	.LBB21_22
.Ltmp217:
.LBB21_17:                              @   in Loop: Header=BB21_1 Depth=1
	.loc	8 719 13                        @ rt-thread/components/net/lwip-2.0.2/src/netif/ethernetif.c:719:13
	b	.LBB21_18
.LBB21_18:                              @   in Loop: Header=BB21_1 Depth=1
.Ltmp218:
	.loc	8 719 13 is_stmt 0              @ rt-thread/components/net/lwip-2.0.2/src/netif/ethernetif.c:719:13
	b	.LBB21_19
.LBB21_19:                              @   in Loop: Header=BB21_1 Depth=1
.Ltmp219:
	.loc	8 719 13                        @ rt-thread/components/net/lwip-2.0.2/src/netif/ethernetif.c:719:13
	movw	r0, :lower16:.L.str.43
	movt	r0, :upper16:.L.str.43
	bl	rt_kprintf
	movw	r0, :lower16:.L.str.44
	movt	r0, :upper16:.L.str.44
	movw	r1, #719
	bl	sys_arch_assert
	b	.LBB21_20
.Ltmp220:
.LBB21_20:                              @   in Loop: Header=BB21_1 Depth=1
	.loc	8 719 13                        @ rt-thread/components/net/lwip-2.0.2/src/netif/ethernetif.c:719:13
	b	.LBB21_21
.Ltmp221:
.LBB21_21:                              @   in Loop: Header=BB21_1 Depth=1
	.loc	8 0 13                          @ rt-thread/components/net/lwip-2.0.2/src/netif/ethernetif.c:0:13
	b	.LBB21_22
.LBB21_22:                              @   in Loop: Header=BB21_1 Depth=1
	.loc	8 675 5 is_stmt 1               @ rt-thread/components/net/lwip-2.0.2/src/netif/ethernetif.c:675:5
	b	.LBB21_1
.Ltmp222:
.Lfunc_end21:
	.size	eth_rx_thread_entry, .Lfunc_end21-eth_rx_thread_entry
	.cfi_endproc
	.cantunwind
	.fnend
                                        @ -- End function
	.section	.text.eth_tx_thread_entry,"ax",%progbits
	.p2align	3                               @ -- Begin function eth_tx_thread_entry
	.type	eth_tx_thread_entry,%function
	.code	16                              @ @eth_tx_thread_entry
	.thumb_func
eth_tx_thread_entry:
.Lfunc_begin22:
	.loc	8 640 0                         @ rt-thread/components/net/lwip-2.0.2/src/netif/ethernetif.c:640:0
	.fnstart
	.cfi_startproc
@ %bb.0:
	.save	{r7, lr}
	push	{r7, lr}
	.cfi_def_cfa_offset 8
	.cfi_offset lr, -4
	.cfi_offset r7, -8
	.pad	#16
	sub	sp, #16
	.cfi_def_cfa_offset 24
	str	r0, [sp, #12]
.Ltmp223:
	.loc	8 643 5 prologue_end            @ rt-thread/components/net/lwip-2.0.2/src/netif/ethernetif.c:643:5
	b	.LBB22_1
.LBB22_1:                               @ =>This Inner Loop Header: Depth=1
.Ltmp224:
	.loc	8 645 13                        @ rt-thread/components/net/lwip-2.0.2/src/netif/ethernetif.c:645:13
	movw	r0, :lower16:eth_tx_thread_mb
	movt	r0, :upper16:eth_tx_thread_mb
	add	r1, sp, #8
	mov.w	r2, #-1
	bl	rt_mb_recv
.Ltmp225:
	.loc	8 645 13 is_stmt 0              @ rt-thread/components/net/lwip-2.0.2/src/netif/ethernetif.c:645:13
	cbnz	r0, .LBB22_11
	b	.LBB22_2
.LBB22_2:                               @   in Loop: Header=BB22_1 Depth=1
.Ltmp226:
	.loc	8 649 13 is_stmt 1              @ rt-thread/components/net/lwip-2.0.2/src/netif/ethernetif.c:649:13
	ldr	r0, [sp, #8]
	ldr	r0, [r0]
.Ltmp227:
	.loc	8 649 13 is_stmt 0              @ rt-thread/components/net/lwip-2.0.2/src/netif/ethernetif.c:649:13
	cbnz	r0, .LBB22_4
	b	.LBB22_3
.LBB22_3:                               @   in Loop: Header=BB22_1 Depth=1
.Ltmp228:
	.loc	8 649 13                        @ rt-thread/components/net/lwip-2.0.2/src/netif/ethernetif.c:649:13
	movw	r0, :lower16:.L.str.45
	movt	r0, :upper16:.L.str.45
	movw	r1, :lower16:.L__FUNCTION__.eth_tx_thread_entry
	movt	r1, :upper16:.L__FUNCTION__.eth_tx_thread_entry
	movw	r2, #649
	bl	rt_assert_handler
	b	.LBB22_4
.Ltmp229:
.LBB22_4:                               @   in Loop: Header=BB22_1 Depth=1
	.loc	8 650 13 is_stmt 1              @ rt-thread/components/net/lwip-2.0.2/src/netif/ethernetif.c:650:13
	ldr	r0, [sp, #8]
	ldr	r0, [r0, #4]
.Ltmp230:
	.loc	8 650 13 is_stmt 0              @ rt-thread/components/net/lwip-2.0.2/src/netif/ethernetif.c:650:13
	cbnz	r0, .LBB22_6
	b	.LBB22_5
.LBB22_5:                               @   in Loop: Header=BB22_1 Depth=1
.Ltmp231:
	.loc	8 650 13                        @ rt-thread/components/net/lwip-2.0.2/src/netif/ethernetif.c:650:13
	movw	r0, :lower16:.L.str.46
	movt	r0, :upper16:.L.str.46
	movw	r1, :lower16:.L__FUNCTION__.eth_tx_thread_entry
	movt	r1, :upper16:.L__FUNCTION__.eth_tx_thread_entry
	movw	r2, #650
	bl	rt_assert_handler
	b	.LBB22_6
.Ltmp232:
.LBB22_6:                               @   in Loop: Header=BB22_1 Depth=1
	.loc	8 652 42 is_stmt 1              @ rt-thread/components/net/lwip-2.0.2/src/netif/ethernetif.c:652:42
	ldr	r0, [sp, #8]
	.loc	8 652 47 is_stmt 0              @ rt-thread/components/net/lwip-2.0.2/src/netif/ethernetif.c:652:47
	ldr	r0, [r0]
	.loc	8 652 54                        @ rt-thread/components/net/lwip-2.0.2/src/netif/ethernetif.c:652:54
	ldr	r0, [r0, #36]
	.loc	8 652 20                        @ rt-thread/components/net/lwip-2.0.2/src/netif/ethernetif.c:652:20
	str	r0, [sp, #4]
.Ltmp233:
	.loc	8 653 17 is_stmt 1              @ rt-thread/components/net/lwip-2.0.2/src/netif/ethernetif.c:653:17
	ldr	r0, [sp, #4]
.Ltmp234:
	.loc	8 653 17 is_stmt 0              @ rt-thread/components/net/lwip-2.0.2/src/netif/ethernetif.c:653:17
	cbz	r0, .LBB22_10
	b	.LBB22_7
.LBB22_7:                               @   in Loop: Header=BB22_1 Depth=1
.Ltmp235:
	.loc	8 656 21 is_stmt 1              @ rt-thread/components/net/lwip-2.0.2/src/netif/ethernetif.c:656:21
	ldr	r0, [sp, #4]
	.loc	8 656 29 is_stmt 0              @ rt-thread/components/net/lwip-2.0.2/src/netif/ethernetif.c:656:29
	ldr	r2, [r0, #124]
	.loc	8 656 55                        @ rt-thread/components/net/lwip-2.0.2/src/netif/ethernetif.c:656:55
	ldr	r1, [sp, #8]
	.loc	8 656 60                        @ rt-thread/components/net/lwip-2.0.2/src/netif/ethernetif.c:656:60
	ldr	r1, [r1, #4]
	.loc	8 656 21                        @ rt-thread/components/net/lwip-2.0.2/src/netif/ethernetif.c:656:21
	blx	r2
.Ltmp236:
	.loc	8 656 21                        @ rt-thread/components/net/lwip-2.0.2/src/netif/ethernetif.c:656:21
	cbz	r0, .LBB22_9
	b	.LBB22_8
.LBB22_8:                               @   in Loop: Header=BB22_1 Depth=1
.Ltmp237:
	.loc	8 659 17 is_stmt 1              @ rt-thread/components/net/lwip-2.0.2/src/netif/ethernetif.c:659:17
	b	.LBB22_9
.Ltmp238:
.LBB22_9:                               @   in Loop: Header=BB22_1 Depth=1
	.loc	8 660 13                        @ rt-thread/components/net/lwip-2.0.2/src/netif/ethernetif.c:660:13
	b	.LBB22_10
.Ltmp239:
.LBB22_10:                              @   in Loop: Header=BB22_1 Depth=1
	.loc	8 663 30                        @ rt-thread/components/net/lwip-2.0.2/src/netif/ethernetif.c:663:30
	ldr	r0, [sp, #4]
	.loc	8 663 38 is_stmt 0              @ rt-thread/components/net/lwip-2.0.2/src/netif/ethernetif.c:663:38
	adds	r0, #84
	.loc	8 663 13                        @ rt-thread/components/net/lwip-2.0.2/src/netif/ethernetif.c:663:13
	bl	rt_sem_release
	.loc	8 664 9 is_stmt 1               @ rt-thread/components/net/lwip-2.0.2/src/netif/ethernetif.c:664:9
	b	.LBB22_11
.Ltmp240:
.LBB22_11:                              @   in Loop: Header=BB22_1 Depth=1
	.loc	8 643 5                         @ rt-thread/components/net/lwip-2.0.2/src/netif/ethernetif.c:643:5
	b	.LBB22_1
.Ltmp241:
.Lfunc_end22:
	.size	eth_tx_thread_entry, .Lfunc_end22-eth_tx_thread_entry
	.cfi_endproc
	.cantunwind
	.fnend
                                        @ -- End function
	.section	.text.set_if,"ax",%progbits
	.hidden	set_if                          @ -- Begin function set_if
	.globl	set_if
	.p2align	3
	.type	set_if,%function
	.code	16                              @ @set_if
	.thumb_func
set_if:
.Lfunc_begin23:
	.loc	8 775 0                         @ rt-thread/components/net/lwip-2.0.2/src/netif/ethernetif.c:775:0
	.fnstart
	.cfi_startproc
@ %bb.0:
	.save	{r7, lr}
	push	{r7, lr}
	.cfi_def_cfa_offset 8
	.cfi_offset lr, -4
	.cfi_offset r7, -8
	.pad	#32
	sub	sp, #32
	.cfi_def_cfa_offset 40
	str	r0, [sp, #28]
	str	r1, [sp, #24]
	str	r2, [sp, #20]
	str	r3, [sp, #16]
.Ltmp242:
	.loc	8 778 28 prologue_end           @ rt-thread/components/net/lwip-2.0.2/src/netif/ethernetif.c:778:28
	movw	r0, :lower16:netif_list
	movt	r0, :upper16:netif_list
	ldr	r0, [r0]
	.loc	8 778 20 is_stmt 0              @ rt-thread/components/net/lwip-2.0.2/src/netif/ethernetif.c:778:20
	str	r0, [sp, #4]
.Ltmp243:
	.loc	8 780 15 is_stmt 1              @ rt-thread/components/net/lwip-2.0.2/src/netif/ethernetif.c:780:15
	ldr	r0, [sp, #28]
	.loc	8 780 8 is_stmt 0               @ rt-thread/components/net/lwip-2.0.2/src/netif/ethernetif.c:780:8
	bl	strlen
.Ltmp244:
	.loc	8 780 8                         @ rt-thread/components/net/lwip-2.0.2/src/netif/ethernetif.c:780:8
	cmp	r0, #3
	blo	.LBB23_2
	b	.LBB23_1
.LBB23_1:
.Ltmp245:
	.loc	8 782 9 is_stmt 1               @ rt-thread/components/net/lwip-2.0.2/src/netif/ethernetif.c:782:9
	movw	r0, :lower16:.L.str.12
	movt	r0, :upper16:.L.str.12
	bl	rt_kprintf
	.loc	8 783 9                         @ rt-thread/components/net/lwip-2.0.2/src/netif/ethernetif.c:783:9
	b	.LBB23_18
.Ltmp246:
.LBB23_2:
	.loc	8 786 5                         @ rt-thread/components/net/lwip-2.0.2/src/netif/ethernetif.c:786:5
	b	.LBB23_3
.LBB23_3:                               @ =>This Inner Loop Header: Depth=1
	.loc	8 786 11 is_stmt 0              @ rt-thread/components/net/lwip-2.0.2/src/netif/ethernetif.c:786:11
	ldr	r0, [sp, #4]
	.loc	8 786 5                         @ rt-thread/components/net/lwip-2.0.2/src/netif/ethernetif.c:786:5
	cbz	r0, .LBB23_9
	b	.LBB23_4
.LBB23_4:                               @   in Loop: Header=BB23_3 Depth=1
.Ltmp247:
	.loc	8 788 20 is_stmt 1              @ rt-thread/components/net/lwip-2.0.2/src/netif/ethernetif.c:788:20
	ldr	r0, [sp, #28]
	.loc	8 788 32 is_stmt 0              @ rt-thread/components/net/lwip-2.0.2/src/netif/ethernetif.c:788:32
	ldr	r1, [sp, #4]
	.loc	8 788 39                        @ rt-thread/components/net/lwip-2.0.2/src/netif/ethernetif.c:788:39
	adds	r1, #66
	movs	r2, #2
	.loc	8 788 12                        @ rt-thread/components/net/lwip-2.0.2/src/netif/ethernetif.c:788:12
	bl	strncmp
.Ltmp248:
	.loc	8 788 12                        @ rt-thread/components/net/lwip-2.0.2/src/netif/ethernetif.c:788:12
	cbnz	r0, .LBB23_6
	b	.LBB23_5
.LBB23_5:
.Ltmp249:
	.loc	8 789 13 is_stmt 1              @ rt-thread/components/net/lwip-2.0.2/src/netif/ethernetif.c:789:13
	b	.LBB23_9
.Ltmp250:
.LBB23_6:                               @   in Loop: Header=BB23_3 Depth=1
	.loc	8 791 17                        @ rt-thread/components/net/lwip-2.0.2/src/netif/ethernetif.c:791:17
	ldr	r0, [sp, #4]
	.loc	8 791 24 is_stmt 0              @ rt-thread/components/net/lwip-2.0.2/src/netif/ethernetif.c:791:24
	ldr	r0, [r0]
	.loc	8 791 15                        @ rt-thread/components/net/lwip-2.0.2/src/netif/ethernetif.c:791:15
	str	r0, [sp, #4]
.Ltmp251:
	.loc	8 792 13 is_stmt 1              @ rt-thread/components/net/lwip-2.0.2/src/netif/ethernetif.c:792:13
	ldr	r0, [sp, #4]
.Ltmp252:
	.loc	8 792 13 is_stmt 0              @ rt-thread/components/net/lwip-2.0.2/src/netif/ethernetif.c:792:13
	cbnz	r0, .LBB23_8
	b	.LBB23_7
.LBB23_7:
.Ltmp253:
	.loc	8 794 64 is_stmt 1              @ rt-thread/components/net/lwip-2.0.2/src/netif/ethernetif.c:794:64
	ldr	r1, [sp, #28]
	.loc	8 794 13 is_stmt 0              @ rt-thread/components/net/lwip-2.0.2/src/netif/ethernetif.c:794:13
	movw	r0, :lower16:.L.str.13
	movt	r0, :upper16:.L.str.13
	bl	rt_kprintf
	.loc	8 795 13 is_stmt 1              @ rt-thread/components/net/lwip-2.0.2/src/netif/ethernetif.c:795:13
	b	.LBB23_18
.Ltmp254:
.LBB23_8:                               @   in Loop: Header=BB23_3 Depth=1
	.loc	8 786 5                         @ rt-thread/components/net/lwip-2.0.2/src/netif/ethernetif.c:786:5
	b	.LBB23_3
.LBB23_9:
	.loc	8 0 5 is_stmt 0                 @ rt-thread/components/net/lwip-2.0.2/src/netif/ethernetif.c:0:5
	add	r0, sp, #8
	.loc	8 799 8 is_stmt 1               @ rt-thread/components/net/lwip-2.0.2/src/netif/ethernetif.c:799:8
	str	r0, [sp, #12]
.Ltmp255:
	.loc	8 802 10                        @ rt-thread/components/net/lwip-2.0.2/src/netif/ethernetif.c:802:10
	ldr	r0, [sp, #24]
	.loc	8 802 30 is_stmt 0              @ rt-thread/components/net/lwip-2.0.2/src/netif/ethernetif.c:802:30
	cbz	r0, .LBB23_12
	b	.LBB23_10
.LBB23_10:
	.loc	8 802 46                        @ rt-thread/components/net/lwip-2.0.2/src/netif/ethernetif.c:802:46
	ldr	r0, [sp, #24]
	add	r1, sp, #8
	.loc	8 802 33                        @ rt-thread/components/net/lwip-2.0.2/src/netif/ethernetif.c:802:33
	bl	ip4addr_aton
.Ltmp256:
	.loc	8 802 9                         @ rt-thread/components/net/lwip-2.0.2/src/netif/ethernetif.c:802:9
	cbz	r0, .LBB23_12
	b	.LBB23_11
.LBB23_11:
.Ltmp257:
	.loc	8 804 26 is_stmt 1              @ rt-thread/components/net/lwip-2.0.2/src/netif/ethernetif.c:804:26
	ldr	r0, [sp, #4]
	.loc	8 804 33 is_stmt 0              @ rt-thread/components/net/lwip-2.0.2/src/netif/ethernetif.c:804:33
	ldr	r1, [sp, #12]
	.loc	8 804 9                         @ rt-thread/components/net/lwip-2.0.2/src/netif/ethernetif.c:804:9
	bl	netif_set_ipaddr
	.loc	8 805 5 is_stmt 1               @ rt-thread/components/net/lwip-2.0.2/src/netif/ethernetif.c:805:5
	b	.LBB23_12
.Ltmp258:
.LBB23_12:
	.loc	8 808 10                        @ rt-thread/components/net/lwip-2.0.2/src/netif/ethernetif.c:808:10
	ldr	r0, [sp, #20]
	.loc	8 808 30 is_stmt 0              @ rt-thread/components/net/lwip-2.0.2/src/netif/ethernetif.c:808:30
	cbz	r0, .LBB23_15
	b	.LBB23_13
.LBB23_13:
	.loc	8 808 46                        @ rt-thread/components/net/lwip-2.0.2/src/netif/ethernetif.c:808:46
	ldr	r0, [sp, #20]
	add	r1, sp, #8
	.loc	8 808 33                        @ rt-thread/components/net/lwip-2.0.2/src/netif/ethernetif.c:808:33
	bl	ip4addr_aton
.Ltmp259:
	.loc	8 808 9                         @ rt-thread/components/net/lwip-2.0.2/src/netif/ethernetif.c:808:9
	cbz	r0, .LBB23_15
	b	.LBB23_14
.LBB23_14:
.Ltmp260:
	.loc	8 810 22 is_stmt 1              @ rt-thread/components/net/lwip-2.0.2/src/netif/ethernetif.c:810:22
	ldr	r0, [sp, #4]
	.loc	8 810 29 is_stmt 0              @ rt-thread/components/net/lwip-2.0.2/src/netif/ethernetif.c:810:29
	ldr	r1, [sp, #12]
	.loc	8 810 9                         @ rt-thread/components/net/lwip-2.0.2/src/netif/ethernetif.c:810:9
	bl	netif_set_gw
	.loc	8 811 5 is_stmt 1               @ rt-thread/components/net/lwip-2.0.2/src/netif/ethernetif.c:811:5
	b	.LBB23_15
.Ltmp261:
.LBB23_15:
	.loc	8 814 10                        @ rt-thread/components/net/lwip-2.0.2/src/netif/ethernetif.c:814:10
	ldr	r0, [sp, #16]
	.loc	8 814 30 is_stmt 0              @ rt-thread/components/net/lwip-2.0.2/src/netif/ethernetif.c:814:30
	cbz	r0, .LBB23_18
	b	.LBB23_16
.LBB23_16:
	.loc	8 814 46                        @ rt-thread/components/net/lwip-2.0.2/src/netif/ethernetif.c:814:46
	ldr	r0, [sp, #16]
	add	r1, sp, #8
	.loc	8 814 33                        @ rt-thread/components/net/lwip-2.0.2/src/netif/ethernetif.c:814:33
	bl	ip4addr_aton
.Ltmp262:
	.loc	8 814 9                         @ rt-thread/components/net/lwip-2.0.2/src/netif/ethernetif.c:814:9
	cbz	r0, .LBB23_18
	b	.LBB23_17
.LBB23_17:
.Ltmp263:
	.loc	8 816 27 is_stmt 1              @ rt-thread/components/net/lwip-2.0.2/src/netif/ethernetif.c:816:27
	ldr	r0, [sp, #4]
	.loc	8 816 34 is_stmt 0              @ rt-thread/components/net/lwip-2.0.2/src/netif/ethernetif.c:816:34
	ldr	r1, [sp, #12]
	.loc	8 816 9                         @ rt-thread/components/net/lwip-2.0.2/src/netif/ethernetif.c:816:9
	bl	netif_set_netmask
	.loc	8 817 5 is_stmt 1               @ rt-thread/components/net/lwip-2.0.2/src/netif/ethernetif.c:817:5
	b	.LBB23_18
.Ltmp264:
.LBB23_18:
	.loc	8 818 1                         @ rt-thread/components/net/lwip-2.0.2/src/netif/ethernetif.c:818:1
	add	sp, #32
	pop	{r7, pc}
.Ltmp265:
.Lfunc_end23:
	.size	set_if, .Lfunc_end23-set_if
	.cfi_endproc
	.cantunwind
	.fnend
                                        @ -- End function
	.section	.text.set_dns,"ax",%progbits
	.hidden	set_dns                         @ -- Begin function set_dns
	.globl	set_dns
	.p2align	3
	.type	set_dns,%function
	.code	16                              @ @set_dns
	.thumb_func
set_dns:
.Lfunc_begin24:
	.loc	8 827 0                         @ rt-thread/components/net/lwip-2.0.2/src/netif/ethernetif.c:827:0
	.fnstart
	.cfi_startproc
@ %bb.0:
	.save	{r7, lr}
	push	{r7, lr}
	.cfi_def_cfa_offset 8
	.cfi_offset lr, -4
	.cfi_offset r7, -8
	.pad	#16
	sub	sp, #16
	.cfi_def_cfa_offset 24
                                        @ kill: def $r2 killed $r0
	strb.w	r0, [sp, #15]
	str	r1, [sp, #8]
.Ltmp266:
	.loc	8 830 10 prologue_end           @ rt-thread/components/net/lwip-2.0.2/src/netif/ethernetif.c:830:10
	ldr	r0, [sp, #8]
	.loc	8 830 33 is_stmt 0              @ rt-thread/components/net/lwip-2.0.2/src/netif/ethernetif.c:830:33
	cbz	r0, .LBB24_3
	b	.LBB24_1
.LBB24_1:
	.loc	8 830 36                        @ rt-thread/components/net/lwip-2.0.2/src/netif/ethernetif.c:830:36
	ldr	r0, [sp, #8]
	add	r1, sp, #4
	bl	ip4addr_aton
.Ltmp267:
	.loc	8 830 9                         @ rt-thread/components/net/lwip-2.0.2/src/netif/ethernetif.c:830:9
	cbz	r0, .LBB24_3
	b	.LBB24_2
.LBB24_2:
.Ltmp268:
	.loc	8 832 23 is_stmt 1              @ rt-thread/components/net/lwip-2.0.2/src/netif/ethernetif.c:832:23
	ldrb.w	r0, [sp, #15]
	add	r1, sp, #4
	.loc	8 832 9 is_stmt 0               @ rt-thread/components/net/lwip-2.0.2/src/netif/ethernetif.c:832:9
	bl	dns_setserver
	.loc	8 833 5 is_stmt 1               @ rt-thread/components/net/lwip-2.0.2/src/netif/ethernetif.c:833:5
	b	.LBB24_3
.Ltmp269:
.LBB24_3:
	.loc	8 834 1                         @ rt-thread/components/net/lwip-2.0.2/src/netif/ethernetif.c:834:1
	add	sp, #16
	pop	{r7, pc}
.Ltmp270:
.Lfunc_end24:
	.size	set_dns, .Lfunc_end24-set_dns
	.cfi_endproc
	.cantunwind
	.fnend
                                        @ -- End function
	.section	.text.list_if,"ax",%progbits
	.hidden	list_if                         @ -- Begin function list_if
	.globl	list_if
	.p2align	3
	.type	list_if,%function
	.code	16                              @ @list_if
	.thumb_func
list_if:
.Lfunc_begin25:
	.loc	8 839 0                         @ rt-thread/components/net/lwip-2.0.2/src/netif/ethernetif.c:839:0
	.fnstart
	.cfi_startproc
@ %bb.0:
	.save	{r7, lr}
	push	{r7, lr}
	.cfi_def_cfa_offset 8
	.cfi_offset lr, -4
	.cfi_offset r7, -8
	.pad	#16
	sub	sp, #16
	.cfi_def_cfa_offset 24
.Ltmp271:
	.loc	8 843 5 prologue_end            @ rt-thread/components/net/lwip-2.0.2/src/netif/ethernetif.c:843:5
	bl	rt_enter_critical
	.loc	8 845 13                        @ rt-thread/components/net/lwip-2.0.2/src/netif/ethernetif.c:845:13
	movw	r0, :lower16:netif_list
	movt	r0, :upper16:netif_list
	ldr	r0, [r0]
	.loc	8 845 11 is_stmt 0              @ rt-thread/components/net/lwip-2.0.2/src/netif/ethernetif.c:845:11
	str	r0, [sp, #8]
	.loc	8 847 5 is_stmt 1               @ rt-thread/components/net/lwip-2.0.2/src/netif/ethernetif.c:847:5
	b	.LBB25_1
.LBB25_1:                               @ =>This Loop Header: Depth=1
                                        @     Child Loop BB25_3 Depth 2
	.loc	8 847 12 is_stmt 0              @ rt-thread/components/net/lwip-2.0.2/src/netif/ethernetif.c:847:12
	ldr	r0, [sp, #8]
	.loc	8 847 5                         @ rt-thread/components/net/lwip-2.0.2/src/netif/ethernetif.c:847:5
	cmp	r0, #0
	beq.w	.LBB25_19
	b	.LBB25_2
.LBB25_2:                               @   in Loop: Header=BB25_1 Depth=1
.Ltmp272:
	.loc	8 850 20 is_stmt 1              @ rt-thread/components/net/lwip-2.0.2/src/netif/ethernetif.c:850:20
	ldr.w	r12, [sp, #8]
	ldrsb.w	r1, [r12, #66]
	.loc	8 851 20                        @ rt-thread/components/net/lwip-2.0.2/src/netif/ethernetif.c:851:20
	ldrsb.w	r2, [r12, #67]
	.loc	8 852 30                        @ rt-thread/components/net/lwip-2.0.2/src/netif/ethernetif.c:852:30
	movw	r0, :lower16:netif_default
	movt	r0, :upper16:netif_default
	ldr.w	lr, [r0]
	.loc	8 852 20 is_stmt 0              @ rt-thread/components/net/lwip-2.0.2/src/netif/ethernetif.c:852:20
	movw	r0, :lower16:.L.str.15
	movt	r0, :upper16:.L.str.15
	movw	r3, :lower16:.L.str.16
	movt	r3, :upper16:.L.str.16
	cmp	r12, lr
	it	eq
	moveq	r3, r0
	.loc	8 849 9 is_stmt 1               @ rt-thread/components/net/lwip-2.0.2/src/netif/ethernetif.c:849:9
	movw	r0, :lower16:.L.str.14
	movt	r0, :upper16:.L.str.14
	bl	rt_kprintf
	.loc	8 853 33                        @ rt-thread/components/net/lwip-2.0.2/src/netif/ethernetif.c:853:33
	ldr	r0, [sp, #8]
	.loc	8 853 40 is_stmt 0              @ rt-thread/components/net/lwip-2.0.2/src/netif/ethernetif.c:853:40
	ldrh	r1, [r0, #56]
	.loc	8 853 9                         @ rt-thread/components/net/lwip-2.0.2/src/netif/ethernetif.c:853:9
	movw	r0, :lower16:.L.str.17
	movt	r0, :upper16:.L.str.17
	bl	rt_kprintf
	.loc	8 854 9 is_stmt 1               @ rt-thread/components/net/lwip-2.0.2/src/netif/ethernetif.c:854:9
	movw	r0, :lower16:.L.str.18
	movt	r0, :upper16:.L.str.18
	bl	rt_kprintf
	movs	r0, #0
.Ltmp273:
	.loc	8 855 20                        @ rt-thread/components/net/lwip-2.0.2/src/netif/ethernetif.c:855:20
	str	r0, [sp, #12]
	.loc	8 855 14 is_stmt 0              @ rt-thread/components/net/lwip-2.0.2/src/netif/ethernetif.c:855:14
	b	.LBB25_3
.LBB25_3:                               @   Parent Loop BB25_1 Depth=1
                                        @ =>  This Inner Loop Header: Depth=2
.Ltmp274:
	.loc	8 855 25                        @ rt-thread/components/net/lwip-2.0.2/src/netif/ethernetif.c:855:25
	ldr	r0, [sp, #12]
	.loc	8 855 33                        @ rt-thread/components/net/lwip-2.0.2/src/netif/ethernetif.c:855:33
	ldr	r1, [sp, #8]
	.loc	8 855 40                        @ rt-thread/components/net/lwip-2.0.2/src/netif/ethernetif.c:855:40
	ldrb.w	r1, [r1, #58]
.Ltmp275:
	.loc	8 855 9                         @ rt-thread/components/net/lwip-2.0.2/src/netif/ethernetif.c:855:9
	cmp	r0, r1
	bhs	.LBB25_6
	b	.LBB25_4
.LBB25_4:                               @   in Loop: Header=BB25_3 Depth=2
.Ltmp276:
	.loc	8 856 33 is_stmt 1              @ rt-thread/components/net/lwip-2.0.2/src/netif/ethernetif.c:856:33
	ldr	r0, [sp, #8]
	.loc	8 856 47 is_stmt 0              @ rt-thread/components/net/lwip-2.0.2/src/netif/ethernetif.c:856:47
	ldr	r1, [sp, #12]
	.loc	8 856 40                        @ rt-thread/components/net/lwip-2.0.2/src/netif/ethernetif.c:856:40
	add	r0, r1
	.loc	8 856 33                        @ rt-thread/components/net/lwip-2.0.2/src/netif/ethernetif.c:856:33
	ldrb.w	r1, [r0, #59]
	.loc	8 856 13                        @ rt-thread/components/net/lwip-2.0.2/src/netif/ethernetif.c:856:13
	movw	r0, :lower16:.L.str.19
	movt	r0, :upper16:.L.str.19
	bl	rt_kprintf
	b	.LBB25_5
.LBB25_5:                               @   in Loop: Header=BB25_3 Depth=2
	.loc	8 855 58 is_stmt 1              @ rt-thread/components/net/lwip-2.0.2/src/netif/ethernetif.c:855:58
	ldr	r0, [sp, #12]
	adds	r0, #1
	str	r0, [sp, #12]
	.loc	8 855 9 is_stmt 0               @ rt-thread/components/net/lwip-2.0.2/src/netif/ethernetif.c:855:9
	b	.LBB25_3
.Ltmp277:
.LBB25_6:                               @   in Loop: Header=BB25_1 Depth=1
	.loc	8 857 9 is_stmt 1               @ rt-thread/components/net/lwip-2.0.2/src/netif/ethernetif.c:857:9
	movw	r0, :lower16:.L.str.20
	movt	r0, :upper16:.L.str.20
	bl	rt_kprintf
.Ltmp278:
	.loc	8 858 13                        @ rt-thread/components/net/lwip-2.0.2/src/netif/ethernetif.c:858:13
	ldr	r0, [sp, #8]
	ldrb.w	r0, [r0, #65]
.Ltmp279:
	.loc	8 858 13 is_stmt 0              @ rt-thread/components/net/lwip-2.0.2/src/netif/ethernetif.c:858:13
	lsls	r0, r0, #31
	cbz	r0, .LBB25_8
	b	.LBB25_7
.LBB25_7:                               @   in Loop: Header=BB25_1 Depth=1
.Ltmp280:
	.loc	8 858 43                        @ rt-thread/components/net/lwip-2.0.2/src/netif/ethernetif.c:858:43
	movw	r0, :lower16:.L.str.21
	movt	r0, :upper16:.L.str.21
	bl	rt_kprintf
	b	.LBB25_9
.LBB25_8:                               @   in Loop: Header=BB25_1 Depth=1
	.loc	8 859 14 is_stmt 1              @ rt-thread/components/net/lwip-2.0.2/src/netif/ethernetif.c:859:14
	movw	r0, :lower16:.L.str.22
	movt	r0, :upper16:.L.str.22
	bl	rt_kprintf
	b	.LBB25_9
.Ltmp281:
.LBB25_9:                               @   in Loop: Header=BB25_1 Depth=1
	.loc	8 860 13                        @ rt-thread/components/net/lwip-2.0.2/src/netif/ethernetif.c:860:13
	ldr	r0, [sp, #8]
	ldrb.w	r0, [r0, #65]
.Ltmp282:
	.loc	8 860 13 is_stmt 0              @ rt-thread/components/net/lwip-2.0.2/src/netif/ethernetif.c:860:13
	lsls	r0, r0, #29
	cmp	r0, #0
	bpl	.LBB25_11
	b	.LBB25_10
.LBB25_10:                              @   in Loop: Header=BB25_1 Depth=1
.Ltmp283:
	.loc	8 860 48                        @ rt-thread/components/net/lwip-2.0.2/src/netif/ethernetif.c:860:48
	movw	r0, :lower16:.L.str.23
	movt	r0, :upper16:.L.str.23
	bl	rt_kprintf
	b	.LBB25_12
.LBB25_11:                              @   in Loop: Header=BB25_1 Depth=1
	.loc	8 861 14 is_stmt 1              @ rt-thread/components/net/lwip-2.0.2/src/netif/ethernetif.c:861:14
	movw	r0, :lower16:.L.str.24
	movt	r0, :upper16:.L.str.24
	bl	rt_kprintf
	b	.LBB25_12
.Ltmp284:
.LBB25_12:                              @   in Loop: Header=BB25_1 Depth=1
	.loc	8 862 13                        @ rt-thread/components/net/lwip-2.0.2/src/netif/ethernetif.c:862:13
	ldr	r0, [sp, #8]
	ldrb.w	r0, [r0, #65]
.Ltmp285:
	.loc	8 862 13 is_stmt 0              @ rt-thread/components/net/lwip-2.0.2/src/netif/ethernetif.c:862:13
	lsls	r0, r0, #28
	cmp	r0, #0
	bpl	.LBB25_14
	b	.LBB25_13
.LBB25_13:                              @   in Loop: Header=BB25_1 Depth=1
.Ltmp286:
	.loc	8 862 47                        @ rt-thread/components/net/lwip-2.0.2/src/netif/ethernetif.c:862:47
	movw	r0, :lower16:.L.str.25
	movt	r0, :upper16:.L.str.25
	bl	rt_kprintf
	b	.LBB25_14
.Ltmp287:
.LBB25_14:                              @   in Loop: Header=BB25_1 Depth=1
	.loc	8 863 13 is_stmt 1              @ rt-thread/components/net/lwip-2.0.2/src/netif/ethernetif.c:863:13
	ldr	r0, [sp, #8]
	ldrb.w	r0, [r0, #65]
.Ltmp288:
	.loc	8 863 13 is_stmt 0              @ rt-thread/components/net/lwip-2.0.2/src/netif/ethernetif.c:863:13
	lsls	r0, r0, #30
	cmp	r0, #0
	bpl	.LBB25_16
	b	.LBB25_15
.LBB25_15:                              @   in Loop: Header=BB25_1 Depth=1
.Ltmp289:
	.loc	8 863 50                        @ rt-thread/components/net/lwip-2.0.2/src/netif/ethernetif.c:863:50
	movw	r0, :lower16:.L.str.26
	movt	r0, :upper16:.L.str.26
	bl	rt_kprintf
	b	.LBB25_16
.Ltmp290:
.LBB25_16:                              @   in Loop: Header=BB25_1 Depth=1
	.loc	8 864 13 is_stmt 1              @ rt-thread/components/net/lwip-2.0.2/src/netif/ethernetif.c:864:13
	ldr	r0, [sp, #8]
	ldrb.w	r0, [r0, #65]
.Ltmp291:
	.loc	8 864 13 is_stmt 0              @ rt-thread/components/net/lwip-2.0.2/src/netif/ethernetif.c:864:13
	lsls	r0, r0, #26
	cmp	r0, #0
	bpl	.LBB25_18
	b	.LBB25_17
.LBB25_17:                              @   in Loop: Header=BB25_1 Depth=1
.Ltmp292:
	.loc	8 864 45                        @ rt-thread/components/net/lwip-2.0.2/src/netif/ethernetif.c:864:45
	movw	r0, :lower16:.L.str.27
	movt	r0, :upper16:.L.str.27
	bl	rt_kprintf
	b	.LBB25_18
.Ltmp293:
.LBB25_18:                              @   in Loop: Header=BB25_1 Depth=1
	.loc	8 865 9 is_stmt 1               @ rt-thread/components/net/lwip-2.0.2/src/netif/ethernetif.c:865:9
	movw	r0, :lower16:.L.str.28
	movt	r0, :upper16:.L.str.28
	bl	rt_kprintf
	.loc	8 866 40                        @ rt-thread/components/net/lwip-2.0.2/src/netif/ethernetif.c:866:40
	ldr	r0, [sp, #8]
	adds	r0, #4
	bl	ip4addr_ntoa
	mov	r1, r0
	.loc	8 866 9 is_stmt 0               @ rt-thread/components/net/lwip-2.0.2/src/netif/ethernetif.c:866:9
	movw	r0, :lower16:.L.str.29
	movt	r0, :upper16:.L.str.29
	bl	rt_kprintf
	.loc	8 867 40 is_stmt 1              @ rt-thread/components/net/lwip-2.0.2/src/netif/ethernetif.c:867:40
	ldr	r0, [sp, #8]
	adds	r0, #12
	bl	ip4addr_ntoa
	mov	r1, r0
	.loc	8 867 9 is_stmt 0               @ rt-thread/components/net/lwip-2.0.2/src/netif/ethernetif.c:867:9
	movw	r0, :lower16:.L.str.30
	movt	r0, :upper16:.L.str.30
	bl	rt_kprintf
	.loc	8 868 40 is_stmt 1              @ rt-thread/components/net/lwip-2.0.2/src/netif/ethernetif.c:868:40
	ldr	r0, [sp, #8]
	adds	r0, #8
	bl	ip4addr_ntoa
	mov	r1, r0
	.loc	8 868 9 is_stmt 0               @ rt-thread/components/net/lwip-2.0.2/src/netif/ethernetif.c:868:9
	movw	r0, :lower16:.L.str.31
	movt	r0, :upper16:.L.str.31
	bl	rt_kprintf
	.loc	8 893 17 is_stmt 1              @ rt-thread/components/net/lwip-2.0.2/src/netif/ethernetif.c:893:17
	ldr	r0, [sp, #8]
	.loc	8 893 24 is_stmt 0              @ rt-thread/components/net/lwip-2.0.2/src/netif/ethernetif.c:893:24
	ldr	r0, [r0]
	.loc	8 893 15                        @ rt-thread/components/net/lwip-2.0.2/src/netif/ethernetif.c:893:15
	str	r0, [sp, #8]
.Ltmp294:
	.loc	8 847 5 is_stmt 1               @ rt-thread/components/net/lwip-2.0.2/src/netif/ethernetif.c:847:5
	b	.LBB25_1
.LBB25_19:
	.loc	8 0 5 is_stmt 0                 @ rt-thread/components/net/lwip-2.0.2/src/netif/ethernetif.c:0:5
	movs	r0, #0
.Ltmp295:
	.loc	8 900 18 is_stmt 1              @ rt-thread/components/net/lwip-2.0.2/src/netif/ethernetif.c:900:18
	str	r0, [sp, #12]
	.loc	8 900 13 is_stmt 0              @ rt-thread/components/net/lwip-2.0.2/src/netif/ethernetif.c:900:13
	b	.LBB25_20
.LBB25_20:                              @ =>This Inner Loop Header: Depth=1
.Ltmp296:
	.loc	8 900 22                        @ rt-thread/components/net/lwip-2.0.2/src/netif/ethernetif.c:900:22
	ldr	r0, [sp, #12]
.Ltmp297:
	.loc	8 900 9                         @ rt-thread/components/net/lwip-2.0.2/src/netif/ethernetif.c:900:9
	cmp	r0, #1
	bhi	.LBB25_23
	b	.LBB25_21
.LBB25_21:                              @   in Loop: Header=BB25_20 Depth=1
.Ltmp298:
	.loc	8 902 37 is_stmt 1              @ rt-thread/components/net/lwip-2.0.2/src/netif/ethernetif.c:902:37
	ldrb.w	r0, [sp, #12]
	.loc	8 902 23 is_stmt 0              @ rt-thread/components/net/lwip-2.0.2/src/netif/ethernetif.c:902:23
	bl	dns_getserver
	.loc	8 902 21                        @ rt-thread/components/net/lwip-2.0.2/src/netif/ethernetif.c:902:21
	str	r0, [sp, #4]
	.loc	8 903 48 is_stmt 1              @ rt-thread/components/net/lwip-2.0.2/src/netif/ethernetif.c:903:48
	ldr	r0, [sp, #12]
	.loc	8 903 55 is_stmt 0              @ rt-thread/components/net/lwip-2.0.2/src/netif/ethernetif.c:903:55
	str	r0, [sp]                        @ 4-byte Spill
	ldr	r0, [sp, #4]
	bl	ip4addr_ntoa
	ldr	r1, [sp]                        @ 4-byte Reload
	mov	r2, r0
	.loc	8 903 13                        @ rt-thread/components/net/lwip-2.0.2/src/netif/ethernetif.c:903:13
	movw	r0, :lower16:.L.str.32
	movt	r0, :upper16:.L.str.32
	bl	rt_kprintf
	.loc	8 904 9 is_stmt 1               @ rt-thread/components/net/lwip-2.0.2/src/netif/ethernetif.c:904:9
	b	.LBB25_22
.Ltmp299:
.LBB25_22:                              @   in Loop: Header=BB25_20 Depth=1
	.loc	8 900 50                        @ rt-thread/components/net/lwip-2.0.2/src/netif/ethernetif.c:900:50
	ldr	r0, [sp, #12]
	adds	r0, #1
	str	r0, [sp, #12]
	.loc	8 900 9 is_stmt 0               @ rt-thread/components/net/lwip-2.0.2/src/netif/ethernetif.c:900:9
	b	.LBB25_20
.Ltmp300:
.LBB25_23:
	.loc	8 908 5 is_stmt 1               @ rt-thread/components/net/lwip-2.0.2/src/netif/ethernetif.c:908:5
	bl	rt_exit_critical
	.loc	8 909 1                         @ rt-thread/components/net/lwip-2.0.2/src/netif/ethernetif.c:909:1
	add	sp, #16
	pop	{r7, pc}
.Ltmp301:
.Lfunc_end25:
	.size	list_if, .Lfunc_end25-list_if
	.cfi_endproc
	.cantunwind
	.fnend
                                        @ -- End function
	.section	.text.netdev_add,"ax",%progbits
	.p2align	3                               @ -- Begin function netdev_add
	.type	netdev_add,%function
	.code	16                              @ @netdev_add
	.thumb_func
netdev_add:
.Lfunc_begin26:
	.loc	8 314 0                         @ rt-thread/components/net/lwip-2.0.2/src/netif/ethernetif.c:314:0
	.fnstart
	.cfi_startproc
@ %bb.0:
	.save	{r7, lr}
	push	{r7, lr}
	.cfi_def_cfa_offset 8
	.cfi_offset lr, -4
	.cfi_offset r7, -8
	.pad	#24
	sub	sp, #24
	.cfi_def_cfa_offset 32
	str	r0, [sp, #16]
	movs	r0, #0
.Ltmp302:
	.loc	8 316 9 prologue_end            @ rt-thread/components/net/lwip-2.0.2/src/netif/ethernetif.c:316:9
	str	r0, [sp, #12]
	.loc	8 317 20                        @ rt-thread/components/net/lwip-2.0.2/src/netif/ethernetif.c:317:20
	str	r0, [sp, #8]
	.loc	8 318 10                        @ rt-thread/components/net/lwip-2.0.2/src/netif/ethernetif.c:318:10
	strb.w	r0, [sp, #6]
	strh.w	r0, [sp, #4]
.Ltmp303:
	.loc	8 320 5                         @ rt-thread/components/net/lwip-2.0.2/src/netif/ethernetif.c:320:5
	ldr	r0, [sp, #16]
.Ltmp304:
	.loc	8 320 5 is_stmt 0               @ rt-thread/components/net/lwip-2.0.2/src/netif/ethernetif.c:320:5
	cbnz	r0, .LBB26_2
	b	.LBB26_1
.LBB26_1:
.Ltmp305:
	.loc	8 320 5                         @ rt-thread/components/net/lwip-2.0.2/src/netif/ethernetif.c:320:5
	movw	r0, :lower16:.L.str.42
	movt	r0, :upper16:.L.str.42
	movw	r1, :lower16:.L__FUNCTION__.netdev_add
	movt	r1, :upper16:.L__FUNCTION__.netdev_add
	mov.w	r2, #320
	bl	rt_assert_handler
	b	.LBB26_2
.Ltmp306:
.LBB26_2:
	.loc	8 0 5                           @ rt-thread/components/net/lwip-2.0.2/src/netif/ethernetif.c:0:5
	movs	r0, #1
	movs	r1, #68
	.loc	8 322 31 is_stmt 1              @ rt-thread/components/net/lwip-2.0.2/src/netif/ethernetif.c:322:31
	bl	rt_calloc
	.loc	8 322 12 is_stmt 0              @ rt-thread/components/net/lwip-2.0.2/src/netif/ethernetif.c:322:12
	str	r0, [sp, #8]
.Ltmp307:
	.loc	8 323 9 is_stmt 1               @ rt-thread/components/net/lwip-2.0.2/src/netif/ethernetif.c:323:9
	ldr	r0, [sp, #8]
.Ltmp308:
	.loc	8 323 9 is_stmt 0               @ rt-thread/components/net/lwip-2.0.2/src/netif/ethernetif.c:323:9
	cbnz	r0, .LBB26_4
	b	.LBB26_3
.LBB26_3:
	.loc	8 0 9                           @ rt-thread/components/net/lwip-2.0.2/src/netif/ethernetif.c:0:9
	movs	r0, #12
.Ltmp309:
	.loc	8 325 9 is_stmt 1               @ rt-thread/components/net/lwip-2.0.2/src/netif/ethernetif.c:325:9
	str	r0, [sp, #20]
	b	.LBB26_5
.Ltmp310:
.LBB26_4:
	.loc	8 331 33                        @ rt-thread/components/net/lwip-2.0.2/src/netif/ethernetif.c:331:33
	ldr	r0, [sp, #8]
	.loc	8 331 5 is_stmt 0               @ rt-thread/components/net/lwip-2.0.2/src/netif/ethernetif.c:331:5
	bl	sal_lwip_netdev_set_pf_info
	.loc	8 334 22 is_stmt 1              @ rt-thread/components/net/lwip-2.0.2/src/netif/ethernetif.c:334:22
	ldr	r0, [sp, #16]
	.loc	8 334 34 is_stmt 0              @ rt-thread/components/net/lwip-2.0.2/src/netif/ethernetif.c:334:34
	add.w	r1, r0, #66
	add	r0, sp, #4
	str	r0, [sp]                        @ 4-byte Spill
	movs	r2, #2
	.loc	8 334 5                         @ rt-thread/components/net/lwip-2.0.2/src/netif/ethernetif.c:334:5
	bl	rt_strncpy
	ldr	r1, [sp]                        @ 4-byte Reload
	.loc	8 335 30 is_stmt 1              @ rt-thread/components/net/lwip-2.0.2/src/netif/ethernetif.c:335:30
	ldr	r0, [sp, #8]
	.loc	8 335 52 is_stmt 0              @ rt-thread/components/net/lwip-2.0.2/src/netif/ethernetif.c:335:52
	ldr	r2, [sp, #16]
	.loc	8 335 14                        @ rt-thread/components/net/lwip-2.0.2/src/netif/ethernetif.c:335:14
	bl	netdev_register
	.loc	8 335 12                        @ rt-thread/components/net/lwip-2.0.2/src/netif/ethernetif.c:335:12
	str	r0, [sp, #12]
	.loc	8 338 21 is_stmt 1              @ rt-thread/components/net/lwip-2.0.2/src/netif/ethernetif.c:338:21
	ldr	r0, [sp, #16]
	.loc	8 338 33 is_stmt 0              @ rt-thread/components/net/lwip-2.0.2/src/netif/ethernetif.c:338:33
	ldrb.w	r0, [r0, #65]
	.loc	8 338 5                         @ rt-thread/components/net/lwip-2.0.2/src/netif/ethernetif.c:338:5
	ldr	r1, [sp, #8]
	.loc	8 338 19                        @ rt-thread/components/net/lwip-2.0.2/src/netif/ethernetif.c:338:19
	strh	r0, [r1, #42]
	.loc	8 339 19 is_stmt 1              @ rt-thread/components/net/lwip-2.0.2/src/netif/ethernetif.c:339:19
	ldr	r0, [sp, #16]
	.loc	8 339 31 is_stmt 0              @ rt-thread/components/net/lwip-2.0.2/src/netif/ethernetif.c:339:31
	ldrh	r0, [r0, #56]
	.loc	8 339 5                         @ rt-thread/components/net/lwip-2.0.2/src/netif/ethernetif.c:339:5
	ldr	r1, [sp, #8]
	.loc	8 339 17                        @ rt-thread/components/net/lwip-2.0.2/src/netif/ethernetif.c:339:17
	strh	r0, [r1, #44]
	.loc	8 340 5 is_stmt 1               @ rt-thread/components/net/lwip-2.0.2/src/netif/ethernetif.c:340:5
	ldr	r1, [sp, #8]
	.loc	8 340 17 is_stmt 0              @ rt-thread/components/net/lwip-2.0.2/src/netif/ethernetif.c:340:17
	movw	r0, :lower16:lwip_netdev_ops
	movt	r0, :upper16:lwip_netdev_ops
	str	r0, [r1, #48]
	.loc	8 341 27 is_stmt 1              @ rt-thread/components/net/lwip-2.0.2/src/netif/ethernetif.c:341:27
	ldr	r0, [sp, #16]
	.loc	8 341 39 is_stmt 0              @ rt-thread/components/net/lwip-2.0.2/src/netif/ethernetif.c:341:39
	ldrb.w	r0, [r0, #58]
	.loc	8 341 5                         @ rt-thread/components/net/lwip-2.0.2/src/netif/ethernetif.c:341:5
	ldr	r1, [sp, #8]
	.loc	8 341 24                        @ rt-thread/components/net/lwip-2.0.2/src/netif/ethernetif.c:341:24
	strb.w	r0, [r1, #32]
	.loc	8 342 15 is_stmt 1              @ rt-thread/components/net/lwip-2.0.2/src/netif/ethernetif.c:342:15
	ldr	r0, [sp, #8]
	.loc	8 342 23 is_stmt 0              @ rt-thread/components/net/lwip-2.0.2/src/netif/ethernetif.c:342:23
	adds	r0, #33
	.loc	8 342 31                        @ rt-thread/components/net/lwip-2.0.2/src/netif/ethernetif.c:342:31
	ldr	r2, [sp, #16]
	.loc	8 342 43                        @ rt-thread/components/net/lwip-2.0.2/src/netif/ethernetif.c:342:43
	add.w	r1, r2, #59
	.loc	8 342 63                        @ rt-thread/components/net/lwip-2.0.2/src/netif/ethernetif.c:342:63
	ldrb.w	r2, [r2, #58]
	.loc	8 342 5                         @ rt-thread/components/net/lwip-2.0.2/src/netif/ethernetif.c:342:5
	bl	rt_memcpy
	.loc	8 343 5 is_stmt 1               @ rt-thread/components/net/lwip-2.0.2/src/netif/ethernetif.c:343:5
	ldr	r1, [sp, #8]
	.loc	8 343 23 is_stmt 0              @ rt-thread/components/net/lwip-2.0.2/src/netif/ethernetif.c:343:23
	ldr	r0, [sp, #16]
	.loc	8 343 35                        @ rt-thread/components/net/lwip-2.0.2/src/netif/ethernetif.c:343:35
	ldr	r0, [r0, #4]
	str	r0, [r1, #12]
	.loc	8 344 5 is_stmt 1               @ rt-thread/components/net/lwip-2.0.2/src/netif/ethernetif.c:344:5
	ldr	r1, [sp, #8]
	.loc	8 344 18 is_stmt 0              @ rt-thread/components/net/lwip-2.0.2/src/netif/ethernetif.c:344:18
	ldr	r0, [sp, #16]
	.loc	8 344 30                        @ rt-thread/components/net/lwip-2.0.2/src/netif/ethernetif.c:344:30
	ldr	r0, [r0, #12]
	str	r0, [r1, #20]
	.loc	8 345 5 is_stmt 1               @ rt-thread/components/net/lwip-2.0.2/src/netif/ethernetif.c:345:5
	ldr	r1, [sp, #8]
	.loc	8 345 23 is_stmt 0              @ rt-thread/components/net/lwip-2.0.2/src/netif/ethernetif.c:345:23
	ldr	r0, [sp, #16]
	.loc	8 345 35                        @ rt-thread/components/net/lwip-2.0.2/src/netif/ethernetif.c:345:35
	ldr	r0, [r0, #8]
	str	r0, [r1, #16]
	.loc	8 348 38 is_stmt 1              @ rt-thread/components/net/lwip-2.0.2/src/netif/ethernetif.c:348:38
	ldr	r0, [sp, #8]
	movs	r1, #1
	.loc	8 348 5 is_stmt 0               @ rt-thread/components/net/lwip-2.0.2/src/netif/ethernetif.c:348:5
	bl	netdev_low_level_set_dhcp_status
	.loc	8 351 12 is_stmt 1              @ rt-thread/components/net/lwip-2.0.2/src/netif/ethernetif.c:351:12
	ldr	r0, [sp, #12]
	.loc	8 351 5 is_stmt 0               @ rt-thread/components/net/lwip-2.0.2/src/netif/ethernetif.c:351:5
	str	r0, [sp, #20]
	b	.LBB26_5
.LBB26_5:
	.loc	8 352 1 is_stmt 1               @ rt-thread/components/net/lwip-2.0.2/src/netif/ethernetif.c:352:1
	ldr	r0, [sp, #20]
	add	sp, #24
	pop	{r7, pc}
.Ltmp311:
.Lfunc_end26:
	.size	netdev_add, .Lfunc_end26-netdev_add
	.cfi_endproc
	.cantunwind
	.fnend
                                        @ -- End function
	.type	.L.str,%object                  @ @.str
	.section	.rodata.str1.1,"aMS",%progbits,1
.L.str:
	.asciz	"netif"
	.size	.L.str, 6

	.type	.L__FUNCTION__.lwip_netdev_ping,%object @ @__FUNCTION__.lwip_netdev_ping
.L__FUNCTION__.lwip_netdev_ping:
	.asciz	"lwip_netdev_ping"
	.size	.L__FUNCTION__.lwip_netdev_ping, 17

	.type	.L.str.1,%object                @ @.str.1
.L.str.1:
	.asciz	"host"
	.size	.L.str.1, 5

	.type	.L.str.2,%object                @ @.str.2
.L.str.2:
	.asciz	"ping_resp"
	.size	.L.str.2, 10

	.hidden	lwip_netdev_ops                 @ @lwip_netdev_ops
	.type	lwip_netdev_ops,%object
	.section	.rodata.lwip_netdev_ops,"a",%progbits
	.globl	lwip_netdev_ops
	.p2align	2
lwip_netdev_ops:
	.long	lwip_netdev_set_up
	.long	lwip_netdev_set_down
	.long	lwip_netdev_set_addr_info
	.long	lwip_netdev_set_dns_server
	.long	lwip_netdev_set_dhcp
	.long	lwip_netdev_ping
	.long	lwip_netdev_netstat
	.long	lwip_netdev_set_default
	.size	lwip_netdev_ops, 32

	.type	.L.str.3,%object                @ @.str.3
	.section	.rodata.str1.1,"aMS",%progbits,1
.L.str.3:
	.asciz	"malloc netif failed\n"
	.size	.L.str.3, 21

	.type	.L.str.4,%object                @ @.str.4
.L.str.4:
	.asciz	"rtthread_%02x%02x"
	.size	.L.str.4, 18

	.type	.L.str.5,%object                @ @.str.5
.L.str.5:
	.asciz	"tcpip"
	.size	.L.str.5, 6

	.type	eth_rx_thread_mb,%object        @ @eth_rx_thread_mb
	.section	.bss.eth_rx_thread_mb,"aw",%nobits
	.p2align	2
eth_rx_thread_mb:
	.zero	48
	.size	eth_rx_thread_mb, 48

	.type	.L.str.6,%object                @ @.str.6
	.section	.rodata.str1.1,"aMS",%progbits,1
.L.str.6:
	.asciz	"dev != RT_NULL"
	.size	.L.str.6, 15

	.type	.L__FUNCTION__.eth_device_linkchange,%object @ @__FUNCTION__.eth_device_linkchange
.L__FUNCTION__.eth_device_linkchange:
	.asciz	"eth_device_linkchange"
	.size	.L__FUNCTION__.eth_device_linkchange, 22

	.type	.L.str.7,%object                @ @.str.7
.L.str.7:
	.asciz	"erxmb"
	.size	.L.str.7, 6

	.type	eth_rx_thread_mb_pool,%object   @ @eth_rx_thread_mb_pool
	.section	.bss.eth_rx_thread_mb_pool,"aw",%nobits
eth_rx_thread_mb_pool:
	.zero	32
	.size	eth_rx_thread_mb_pool, 32

	.type	.L.str.8,%object                @ @.str.8
	.section	.rodata.str1.1,"aMS",%progbits,1
.L.str.8:
	.asciz	"result == RT_EOK"
	.size	.L.str.8, 17

	.type	.L__FUNCTION__.eth_system_device_init_private,%object @ @__FUNCTION__.eth_system_device_init_private
.L__FUNCTION__.eth_system_device_init_private:
	.asciz	"eth_system_device_init_private"
	.size	.L__FUNCTION__.eth_system_device_init_private, 31

	.type	eth_rx_thread,%object           @ @eth_rx_thread
	.section	.bss.eth_rx_thread,"aw",%nobits
	.p2align	2
eth_rx_thread:
	.zero	128
	.size	eth_rx_thread, 128

	.type	.L.str.9,%object                @ @.str.9
	.section	.rodata.str1.1,"aMS",%progbits,1
.L.str.9:
	.asciz	"erx"
	.size	.L.str.9, 4

	.type	eth_rx_thread_stack,%object     @ @eth_rx_thread_stack
	.section	.bss.eth_rx_thread_stack,"aw",%nobits
eth_rx_thread_stack:
	.zero	1024
	.size	eth_rx_thread_stack, 1024

	.type	eth_tx_thread_mb,%object        @ @eth_tx_thread_mb
	.section	.bss.eth_tx_thread_mb,"aw",%nobits
	.p2align	2
eth_tx_thread_mb:
	.zero	48
	.size	eth_tx_thread_mb, 48

	.type	.L.str.10,%object               @ @.str.10
	.section	.rodata.str1.1,"aMS",%progbits,1
.L.str.10:
	.asciz	"etxmb"
	.size	.L.str.10, 6

	.type	eth_tx_thread_mb_pool,%object   @ @eth_tx_thread_mb_pool
	.section	.bss.eth_tx_thread_mb_pool,"aw",%nobits
eth_tx_thread_mb_pool:
	.zero	32
	.size	eth_tx_thread_mb_pool, 32

	.type	eth_tx_thread,%object           @ @eth_tx_thread
	.section	.bss.eth_tx_thread,"aw",%nobits
	.p2align	2
eth_tx_thread:
	.zero	128
	.size	eth_tx_thread, 128

	.type	.L.str.11,%object               @ @.str.11
	.section	.rodata.str1.1,"aMS",%progbits,1
.L.str.11:
	.asciz	"etx"
	.size	.L.str.11, 4

	.type	eth_tx_thread_stack,%object     @ @eth_tx_thread_stack
	.section	.bss.eth_tx_thread_stack,"aw",%nobits
eth_tx_thread_stack:
	.zero	1024
	.size	eth_tx_thread_stack, 1024

	.type	.L.str.12,%object               @ @.str.12
	.section	.rodata.str1.1,"aMS",%progbits,1
.L.str.12:
	.asciz	"network interface name too long!\r\n"
	.size	.L.str.12, 35

	.type	.L.str.13,%object               @ @.str.13
.L.str.13:
	.asciz	"network interface: %s not found!\r\n"
	.size	.L.str.13, 35

	.hidden	__fsym_set_if_name              @ @__fsym_set_if_name
	.type	__fsym_set_if_name,%object
	.section	.rodata.name,"a",%progbits
	.globl	__fsym_set_if_name
__fsym_set_if_name:
	.asciz	"set_if"
	.size	__fsym_set_if_name, 7

	.hidden	__fsym_set_if_desc              @ @__fsym_set_if_desc
	.type	__fsym_set_if_desc,%object
	.globl	__fsym_set_if_desc
__fsym_set_if_desc:
	.asciz	"set network interface address"
	.size	__fsym_set_if_desc, 30

	.hidden	__fsym_set_if                   @ @__fsym_set_if
	.type	__fsym_set_if,%object
	.section	FSymTab,"a",%progbits
	.globl	__fsym_set_if
	.p2align	2
__fsym_set_if:
__tagsym$$used.0:
	.long	__fsym_set_if_name
	.long	__fsym_set_if_desc
	.long	set_if
	.size	__fsym_set_if, 12

	.hidden	__fsym_set_dns_name             @ @__fsym_set_dns_name
	.type	__fsym_set_dns_name,%object
	.section	.rodata.name,"a",%progbits
	.globl	__fsym_set_dns_name
__fsym_set_dns_name:
	.asciz	"set_dns"
	.size	__fsym_set_dns_name, 8

	.hidden	__fsym_set_dns_desc             @ @__fsym_set_dns_desc
	.type	__fsym_set_dns_desc,%object
	.globl	__fsym_set_dns_desc
__fsym_set_dns_desc:
	.asciz	"set DNS server address"
	.size	__fsym_set_dns_desc, 23

	.hidden	__fsym_set_dns                  @ @__fsym_set_dns
	.type	__fsym_set_dns,%object
	.section	FSymTab,"a",%progbits
	.globl	__fsym_set_dns
	.p2align	2
__fsym_set_dns:
__tagsym$$used.1:
	.long	__fsym_set_dns_name
	.long	__fsym_set_dns_desc
	.long	set_dns
	.size	__fsym_set_dns, 12

	.type	.L.str.14,%object               @ @.str.14
	.section	.rodata.str1.1,"aMS",%progbits,1
.L.str.14:
	.asciz	"network interface: %c%c%s\n"
	.size	.L.str.14, 27

	.type	.L.str.15,%object               @ @.str.15
.L.str.15:
	.asciz	" (Default)"
	.size	.L.str.15, 11

	.type	.L.str.16,%object               @ @.str.16
.L.str.16:
	.zero	1
	.size	.L.str.16, 1

	.type	.L.str.17,%object               @ @.str.17
.L.str.17:
	.asciz	"MTU: %d\n"
	.size	.L.str.17, 9

	.type	.L.str.18,%object               @ @.str.18
.L.str.18:
	.asciz	"MAC: "
	.size	.L.str.18, 6

	.type	.L.str.19,%object               @ @.str.19
.L.str.19:
	.asciz	"%02x "
	.size	.L.str.19, 6

	.type	.L.str.20,%object               @ @.str.20
.L.str.20:
	.asciz	"\nFLAGS:"
	.size	.L.str.20, 8

	.type	.L.str.21,%object               @ @.str.21
.L.str.21:
	.asciz	" UP"
	.size	.L.str.21, 4

	.type	.L.str.22,%object               @ @.str.22
.L.str.22:
	.asciz	" DOWN"
	.size	.L.str.22, 6

	.type	.L.str.23,%object               @ @.str.23
.L.str.23:
	.asciz	" LINK_UP"
	.size	.L.str.23, 9

	.type	.L.str.24,%object               @ @.str.24
.L.str.24:
	.asciz	" LINK_DOWN"
	.size	.L.str.24, 11

	.type	.L.str.25,%object               @ @.str.25
.L.str.25:
	.asciz	" ETHARP"
	.size	.L.str.25, 8

	.type	.L.str.26,%object               @ @.str.26
.L.str.26:
	.asciz	" BROADCAST"
	.size	.L.str.26, 11

	.type	.L.str.27,%object               @ @.str.27
.L.str.27:
	.asciz	" IGMP"
	.size	.L.str.27, 6

	.type	.L.str.28,%object               @ @.str.28
.L.str.28:
	.asciz	"\n"
	.size	.L.str.28, 2

	.type	.L.str.29,%object               @ @.str.29
.L.str.29:
	.asciz	"ip address: %s\n"
	.size	.L.str.29, 16

	.type	.L.str.30,%object               @ @.str.30
.L.str.30:
	.asciz	"gw address: %s\n"
	.size	.L.str.30, 16

	.type	.L.str.31,%object               @ @.str.31
.L.str.31:
	.asciz	"net mask  : %s\n"
	.size	.L.str.31, 16

	.type	.L.str.32,%object               @ @.str.32
.L.str.32:
	.asciz	"dns server #%d: %s\n"
	.size	.L.str.32, 20

	.hidden	__fsym_list_if_name             @ @__fsym_list_if_name
	.type	__fsym_list_if_name,%object
	.section	.rodata.name,"a",%progbits
	.globl	__fsym_list_if_name
__fsym_list_if_name:
	.asciz	"list_if"
	.size	__fsym_list_if_name, 8

	.hidden	__fsym_list_if_desc             @ @__fsym_list_if_desc
	.type	__fsym_list_if_desc,%object
	.globl	__fsym_list_if_desc
__fsym_list_if_desc:
	.asciz	"list network interface information"
	.size	__fsym_list_if_desc, 35

	.hidden	__fsym_list_if                  @ @__fsym_list_if
	.type	__fsym_list_if,%object
	.section	FSymTab,"a",%progbits
	.globl	__fsym_list_if
	.p2align	2
__fsym_list_if:
__tagsym$$used.2:
	.long	__fsym_list_if_name
	.long	__fsym_list_if_desc
	.long	list_if
	.size	__fsym_list_if, 12

	.type	.L.str.33,%object               @ @.str.33
	.section	.rodata.str1.1,"aMS",%progbits,1
.L.str.33:
	.asciz	"Active PCB states:\n"
	.size	.L.str.33, 20

	.type	.L.str.34,%object               @ @.str.34
.L.str.34:
	.asciz	"#%d %s:%d <==> %s:%d snd_nxt 0x%08X rcv_nxt 0x%08X "
	.size	.L.str.34, 52

	.type	.L.str.35,%object               @ @.str.35
.L.str.35:
	.asciz	"state: %s\n"
	.size	.L.str.35, 11

	.type	.L.str.36,%object               @ @.str.36
.L.str.36:
	.asciz	"Listen PCB states:\n"
	.size	.L.str.36, 20

	.type	.L.str.37,%object               @ @.str.37
.L.str.37:
	.asciz	"#%d local port %d "
	.size	.L.str.37, 19

	.type	.L.str.38,%object               @ @.str.38
.L.str.38:
	.asciz	"TIME-WAIT PCB states:\n"
	.size	.L.str.38, 23

	.hidden	__fsym_list_tcps_name           @ @__fsym_list_tcps_name
	.type	__fsym_list_tcps_name,%object
	.section	.rodata.name,"a",%progbits
	.globl	__fsym_list_tcps_name
__fsym_list_tcps_name:
	.asciz	"list_tcps"
	.size	__fsym_list_tcps_name, 10

	.hidden	__fsym_list_tcps_desc           @ @__fsym_list_tcps_desc
	.type	__fsym_list_tcps_desc,%object
	.globl	__fsym_list_tcps_desc
__fsym_list_tcps_desc:
	.asciz	"list all of tcp connections"
	.size	__fsym_list_tcps_desc, 28

	.hidden	__fsym_list_tcps                @ @__fsym_list_tcps
	.type	__fsym_list_tcps,%object
	.section	FSymTab,"a",%progbits
	.globl	__fsym_list_tcps
	.p2align	2
__fsym_list_tcps:
__tagsym$$used.3:
	.long	__fsym_list_tcps_name
	.long	__fsym_list_tcps_desc
	.long	list_tcps
	.size	__fsym_list_tcps, 12

	.type	.L.str.39,%object               @ @.str.39
	.section	.rodata.str1.1,"aMS",%progbits,1
.L.str.39:
	.asciz	"Active UDP PCB states:\n"
	.size	.L.str.39, 24

	.type	.L.str.40,%object               @ @.str.40
.L.str.40:
	.asciz	"#%d %d %s:%d <==> %s:%d \n"
	.size	.L.str.40, 26

	.hidden	__fsym_list_udps_name           @ @__fsym_list_udps_name
	.type	__fsym_list_udps_name,%object
	.section	.rodata.name,"a",%progbits
	.globl	__fsym_list_udps_name
__fsym_list_udps_name:
	.asciz	"list_udps"
	.size	__fsym_list_udps_name, 10

	.hidden	__fsym_list_udps_desc           @ @__fsym_list_udps_desc
	.type	__fsym_list_udps_desc,%object
	.globl	__fsym_list_udps_desc
__fsym_list_udps_desc:
	.asciz	"list all of udp connections"
	.size	__fsym_list_udps_desc, 28

	.hidden	__fsym_list_udps                @ @__fsym_list_udps
	.type	__fsym_list_udps,%object
	.section	FSymTab,"a",%progbits
	.globl	__fsym_list_udps
	.p2align	2
__fsym_list_udps:
__tagsym$$used.4:
	.long	__fsym_list_udps_name
	.long	__fsym_list_udps_desc
	.long	list_udps
	.size	__fsym_list_udps, 12

	.type	.L.str.41,%object               @ @.str.41
	.section	.rodata.str1.1,"aMS",%progbits,1
.L.str.41:
	.asciz	"netif != RT_NULL"
	.size	.L.str.41, 17

	.type	.L__FUNCTION__.ethernetif_linkoutput,%object @ @__FUNCTION__.ethernetif_linkoutput
.L__FUNCTION__.ethernetif_linkoutput:
	.asciz	"ethernetif_linkoutput"
	.size	.L__FUNCTION__.ethernetif_linkoutput, 22

	.type	.L.str.42,%object               @ @.str.42
.L.str.42:
	.asciz	"lwip_netif"
	.size	.L.str.42, 11

	.type	.L__FUNCTION__.netdev_add,%object @ @__FUNCTION__.netdev_add
.L__FUNCTION__.netdev_add:
	.asciz	"netdev_add"
	.size	.L__FUNCTION__.netdev_add, 11

	.type	.L__FUNCTION__.netdev_flags_sync,%object @ @__FUNCTION__.netdev_flags_sync
.L__FUNCTION__.netdev_flags_sync:
	.asciz	"netdev_flags_sync"
	.size	.L__FUNCTION__.netdev_flags_sync, 18

	.type	.L__FUNCTION__.netdev_del,%object @ @__FUNCTION__.netdev_del
.L__FUNCTION__.netdev_del:
	.asciz	"netdev_del"
	.size	.L__FUNCTION__.netdev_del, 11

	.type	.L.str.43,%object               @ @.str.43
.L.str.43:
	.asciz	"Should not happen!\n"
	.size	.L.str.43, 20

	.type	.L.str.44,%object               @ @.str.44
.L.str.44:
	.asciz	"rt-thread/components/net/lwip-2.0.2/src/netif/ethernetif.c"
	.size	.L.str.44, 59

	.type	.L.str.45,%object               @ @.str.45
.L.str.45:
	.asciz	"msg->netif != RT_NULL"
	.size	.L.str.45, 22

	.type	.L__FUNCTION__.eth_tx_thread_entry,%object @ @__FUNCTION__.eth_tx_thread_entry
.L__FUNCTION__.eth_tx_thread_entry:
	.asciz	"eth_tx_thread_entry"
	.size	.L__FUNCTION__.eth_tx_thread_entry, 20

	.type	.L.str.46,%object               @ @.str.46
.L.str.46:
	.asciz	"msg->buf != RT_NULL"
	.size	.L.str.46, 20

	.globl	__fsym_set_if
	.globl	__fsym_set_dns
	.globl	__fsym_list_if
	.globl	__fsym_list_tcps
	.globl	__fsym_list_udps
	.file	17 "E:\\STM32\\Learning\\STM32H750_ART_PI_RGBLCD" "rt-thread/components/libc/compilers/common\\sys/time.h"
	.file	18 "E:\\STM32\\Learning\\STM32H750_ART_PI_RGBLCD" "./rt-thread/components/net/lwip-2.0.2/src/include\\lwip/netdb.h"
	.file	19 "E:\\STM32\\Learning\\STM32H750_ART_PI_RGBLCD" "./rt-thread/components/net/lwip-2.0.2/src/include\\lwip/sockets.h"
	.file	20 "E:\\STM32\\Learning\\STM32H750_ART_PI_RGBLCD" "./rt-thread/components/net/lwip-2.0.2/src/include\\lwip/inet.h"
	.file	21 "E:\\STM32\\Learning\\STM32H750_ART_PI_RGBLCD" "./rt-thread/components/net/lwip-2.0.2/src/include\\lwip/udp.h"
	.section	".note.GNU-stack","",%progbits
	.eabi_attribute	30, 6	@ Tag_ABI_optimization_goals
	.ARM_attribute	16, 1	@ Tag_AV_eba