	.text
	.syntax unified
	.eabi_attribute	67, "2.09"	@ Tag_conformance
	.cpu	cortex-m7
	.eabi_attribute	6, 13	@ Tag_CPU_arch
	.eabi_attribute	7, 77	@ Tag_CPU_arch_profile
	.eabi_attribute	8, 0	@ Tag_ARM_ISA_use
	.eabi_attribute	9, 2	@ Tag_THUMB_ISA_use
	.fpu	fpv5-d16
	.eabi_attribute	36, 1	@ Tag_FP_HP_extension
	.eabi_attribute	34, 1	@ Tag_CPU_unaligned_access
	.eabi_attribute	17, 1	@ Tag_ABI_PCS_GOT_use
	.eabi_attribute	20, 2	@ Tag_ABI_FP_denormal
	.eabi_attribute	21, 0	@ Tag_ABI_FP_exceptions
	.eabi_attribute	23, 1	@ Tag_ABI_FP_number_model
	.eabi_attribute	24, 1	@ Tag_ABI_align_needed
	.eabi_attribute	25, 1	@ Tag_ABI_align_preserved
	.eabi_attribute	28, 1	@ Tag_ABI_VFP_args
	.eabi_attribute	38, 1	@ Tag_ABI_FP_16bit_format
	.eabi_attribute	18, 2	@ Tag_ABI_PCS_wchar_t
	.eabi_attribute	26, 1	@ Tag_ABI_enum_size
	.eabi_attribute	14, 0	@ Tag_ABI_PCS_R9_use
	.file	"fal_rtt.c"
	.file	1 "E:\\Smart-access-control\\Hardware\\CODE" "packages/fal-v0.5.0/src/fal_rtt.c"
	.file	2 "E:\\Smart-access-control\\Hardware\\CODE" "rt-thread/components/finsh/finsh_api.h"
	.file	3 "E:\\Smart-access-control\\Hardware\\CODE" "rt-thread/include\\rtdef.h"
	.file	4 "D:\\Keil_v5\\ARM\\ARMCLANG\\Bin\\..\\include" "stdint.h"
	.file	5 "E:\\Smart-access-control\\Hardware\\CODE" "rt-thread/components/dfs/include\\dfs_file.h"
	.file	6 "E:\\Smart-access-control\\Hardware\\CODE" "rt-thread/components/dfs/include\\dfs_fs.h"
	.file	7 "D:\\Keil_v5\\ARM\\ARMCLANG\\Bin\\..\\include" "time.h"
	.file	8 "E:\\Smart-access-control\\Hardware\\CODE" "rt-thread/components/dfs/include\\dfs.h"
	.file	9 "E:\\Smart-access-control\\Hardware\\CODE" "rt-thread/include/libc/libc_stat.h"
	.file	10 "E:\\Smart-access-control\\Hardware\\CODE" "rt-thread/include/rtlibc.h"
	.file	11 "E:\\Smart-access-control\\Hardware\\CODE" "rt-thread/components/drivers/include/ipc/poll.h"
	.file	12 "E:\\Smart-access-control\\Hardware\\CODE" "rt-thread/components/drivers/include/drivers/mtd_nor.h"
	.file	13 "E:\\Smart-access-control\\Hardware\\CODE" "./packages/fal-v0.5.0/inc/fal_def.h"
	.section	.text.fal_blk_device_create,"ax",%progbits
	.hidden	fal_blk_device_create           @ -- Begin function fal_blk_device_create
	.globl	fal_blk_device_create
	.p2align	3
	.type	fal_blk_device_create,%function
	.code	16                              @ @fal_blk_device_create
	.thumb_func
fal_blk_device_create:
.Lfunc_begin0:
	.loc	1 166 0                         @ packages/fal-v0.5.0/src/fal_rtt.c:166:0
	.fnstart
	.cfi_sections .debug_frame
	.cfi_startproc
@ %bb.0:
	@DEBUG_VALUE: fal_blk_device_create:parition_name <- $r0
	.save	{r4, r5, r6, lr}
	push	{r4, r5, r6, lr}
	.cfi_def_cfa_offset 16
	.cfi_offset lr, -4
	.cfi_offset r6, -8
	.cfi_offset r5, -12
	.cfi_offset r4, -16
	mov	r4, r0
.Ltmp0:
	@DEBUG_VALUE: fal_blk_device_create:parition_name <- $r4
	.loc	1 168 44 prologue_end           @ packages/fal-v0.5.0/src/fal_rtt.c:168:44
	bl	fal_partition_find
.Ltmp1:
	@DEBUG_VALUE: fal_blk_device_create:fal_flash <- 0
	@DEBUG_VALUE: fal_blk_device_create:fal_part <- $r0
	.loc	1 171 9                         @ packages/fal-v0.5.0/src/fal_rtt.c:171:9
	cmp	r0, #0
	beq	.LBB0_4
.Ltmp2:
@ %bb.1:
	@DEBUG_VALUE: fal_blk_device_create:parition_name <- $r4
	@DEBUG_VALUE: fal_blk_device_create:fal_part <- $r0
	@DEBUG_VALUE: fal_blk_device_create:fal_flash <- 0
	.loc	1 177 44                        @ packages/fal-v0.5.0/src/fal_rtt.c:177:44
	add.w	r4, r0, #28
.Ltmp3:
	@DEBUG_VALUE: fal_blk_device_create:parition_name <- [DW_OP_LLVM_entry_value 1] $r0
	.loc	1 0 0 is_stmt 0                 @ packages/fal-v0.5.0/src/fal_rtt.c:0:0
	mov	r5, r0
.Ltmp4:
	@DEBUG_VALUE: fal_blk_device_create:fal_part <- $r5
	@DEBUG_VALUE: fal_blk_device_create:fal_part <- $r5
	.loc	1 177 22                        @ packages/fal-v0.5.0/src/fal_rtt.c:177:22
	mov	r0, r4
	bl	fal_flash_device_find
.Ltmp5:
	@DEBUG_VALUE: fal_blk_device_create:fal_flash <- $r0
	.loc	1 177 9                         @ packages/fal-v0.5.0/src/fal_rtt.c:177:9
	cmp	r0, #0
	beq	.LBB0_5
.Ltmp6:
@ %bb.2:
	@DEBUG_VALUE: fal_blk_device_create:fal_part <- $r5
	@DEBUG_VALUE: fal_blk_device_create:fal_flash <- $r0
	@DEBUG_VALUE: fal_blk_device_create:parition_name <- [DW_OP_LLVM_entry_value 1] $r0
	.loc	1 0 0                           @ packages/fal-v0.5.0/src/fal_rtt.c:0:0
	mov	r6, r0
.Ltmp7:
	@DEBUG_VALUE: fal_blk_device_create:fal_flash <- $r6
	@DEBUG_VALUE: fal_blk_device_create:fal_flash <- $r6
	.loc	1 183 40 is_stmt 1              @ packages/fal-v0.5.0/src/fal_rtt.c:183:40
	movs	r0, #96
	bl	rt_malloc
	mov	r4, r0
.Ltmp8:
	@DEBUG_VALUE: fal_blk_device_create:blk_dev <- $r4
	.loc	1 184 9                         @ packages/fal-v0.5.0/src/fal_rtt.c:184:9
	cmp	r0, #0
	beq	.LBB0_7
.Ltmp9:
@ %bb.3:
	@DEBUG_VALUE: fal_blk_device_create:fal_flash <- $r6
	@DEBUG_VALUE: fal_blk_device_create:fal_part <- $r5
	@DEBUG_VALUE: fal_blk_device_create:blk_dev <- $r4
	@DEBUG_VALUE: fal_blk_device_create:parition_name <- [DW_OP_LLVM_entry_value 1] $r0
	@DEBUG_VALUE: fal_blk_device_create:blk_dev <- $r4
	.loc	1 187 57                        @ packages/fal-v0.5.0/src/fal_rtt.c:187:57
	ldr	r0, [r6, #32]
	.loc	1 189 52                        @ packages/fal-v0.5.0/src/fal_rtt.c:189:52
	ldr	r1, [r5, #56]
	.loc	1 187 44                        @ packages/fal-v0.5.0/src/fal_rtt.c:187:44
	str	r0, [r4, #84]
	.loc	1 201 31                        @ packages/fal-v0.5.0/src/fal_rtt.c:201:31
	movw	r2, :lower16:blk_dev_write
	.loc	1 188 38                        @ packages/fal-v0.5.0/src/fal_rtt.c:188:38
	str	r0, [r4, #88]
	.loc	1 201 31                        @ packages/fal-v0.5.0/src/fal_rtt.c:201:31
	movt	r2, :upper16:blk_dev_write
	.loc	1 189 56                        @ packages/fal-v0.5.0/src/fal_rtt.c:189:56
	udiv	r0, r1, r0
	.loc	1 189 40 is_stmt 0              @ packages/fal-v0.5.0/src/fal_rtt.c:189:40
	str	r0, [r4, #80]
	movs	r0, #1
	.loc	1 192 30 is_stmt 1              @ packages/fal-v0.5.0/src/fal_rtt.c:192:30
	strb	r0, [r4, #20]
	movs	r0, #0
	.loc	1 197 30                        @ packages/fal-v0.5.0/src/fal_rtt.c:197:30
	strd	r0, r0, [r4, #36]
	.loc	1 200 30                        @ packages/fal-v0.5.0/src/fal_rtt.c:200:30
	movw	r1, :lower16:blk_dev_read
	.loc	1 199 31                        @ packages/fal-v0.5.0/src/fal_rtt.c:199:31
	str	r0, [r4, #44]
	.loc	1 206 35                        @ packages/fal-v0.5.0/src/fal_rtt.c:206:35
	str	r0, [r4, #76]
	.loc	1 208 9                         @ packages/fal-v0.5.0/src/fal_rtt.c:208:9
	movw	r0, :lower16:.L.str.4
	.loc	1 200 30                        @ packages/fal-v0.5.0/src/fal_rtt.c:200:30
	movt	r1, :upper16:blk_dev_read
	str	r1, [r4, #48]
	.loc	1 202 33                        @ packages/fal-v0.5.0/src/fal_rtt.c:202:33
	movw	r1, :lower16:blk_dev_control
	.loc	1 208 9                         @ packages/fal-v0.5.0/src/fal_rtt.c:208:9
	movt	r0, :upper16:.L.str.4
	.loc	1 186 27                        @ packages/fal-v0.5.0/src/fal_rtt.c:186:27
	str	r5, [r4, #92]
	.loc	1 202 33                        @ packages/fal-v0.5.0/src/fal_rtt.c:202:33
	movt	r1, :upper16:blk_dev_control
	.loc	1 201 31                        @ packages/fal-v0.5.0/src/fal_rtt.c:201:31
	strd	r2, r1, [r4, #52]
	.loc	1 208 9                         @ packages/fal-v0.5.0/src/fal_rtt.c:208:9
	bl	rt_kprintf
	adds	r5, #4
.Ltmp10:
	adr	r0, .LCPI0_0
	mov	r1, r5
	bl	rt_kprintf
	movw	r0, :lower16:.L.str.2
	movt	r0, :upper16:.L.str.2
	bl	rt_kprintf
	.loc	1 209 9                         @ packages/fal-v0.5.0/src/fal_rtt.c:209:9
	movs	r2, #11
	mov	r0, r4
	mov	r1, r5
	bl	rt_device_register
.Ltmp11:
	.loc	1 217 1                         @ packages/fal-v0.5.0/src/fal_rtt.c:217:1
	mov	r0, r4
	pop	{r4, r5, r6, pc}
.Ltmp12:
.LBB0_4:
	@DEBUG_VALUE: fal_blk_device_create:parition_name <- $r4
	@DEBUG_VALUE: fal_blk_device_create:fal_part <- $r0
	@DEBUG_VALUE: fal_blk_device_create:fal_flash <- 0
	.loc	1 173 9                         @ packages/fal-v0.5.0/src/fal_rtt.c:173:9
	movw	r0, :lower16:.L.str
.Ltmp13:
	movw	r1, :lower16:.L__FUNCTION__.fal_blk_device_create
	movt	r0, :upper16:.L.str
	movt	r1, :upper16:.L__FUNCTION__.fal_blk_device_create
	movs	r2, #173
	bl	rt_kprintf
	movw	r0, :lower16:.L.str.1
	movt	r0, :upper16:.L.str.1
	b	.LBB0_6
.Ltmp14:
.LBB0_5:
	@DEBUG_VALUE: fal_blk_device_create:fal_part <- $r5
	@DEBUG_VALUE: fal_blk_device_create:fal_flash <- $r0
	@DEBUG_VALUE: fal_blk_device_create:parition_name <- [DW_OP_LLVM_entry_value 1] $r0
	.loc	1 179 9                         @ packages/fal-v0.5.0/src/fal_rtt.c:179:9
	movw	r0, :lower16:.L.str
.Ltmp15:
	movw	r1, :lower16:.L__FUNCTION__.fal_blk_device_create
	movt	r0, :upper16:.L.str
	movt	r1, :upper16:.L__FUNCTION__.fal_blk_device_create
	movs	r2, #179
	bl	rt_kprintf
	movw	r0, :lower16:.L.str.3
	movt	r0, :upper16:.L.str.3
.Ltmp16:
.LBB0_6:
	.loc	1 0 0 is_stmt 0                 @ packages/fal-v0.5.0/src/fal_rtt.c:0:0
	mov	r1, r4
	bl	rt_kprintf
	movw	r0, :lower16:.L.str.2
	movt	r0, :upper16:.L.str.2
	bl	rt_kprintf
	movs	r0, #0
	.loc	1 217 1 is_stmt 1               @ packages/fal-v0.5.0/src/fal_rtt.c:217:1
	pop	{r4, r5, r6, pc}
.LBB0_7:
.Ltmp17:
	@DEBUG_VALUE: fal_blk_device_create:fal_flash <- $r6
	@DEBUG_VALUE: fal_blk_device_create:fal_part <- $r5
	@DEBUG_VALUE: fal_blk_device_create:blk_dev <- $r4
	@DEBUG_VALUE: fal_blk_device_create:parition_name <- [DW_OP_LLVM_entry_value 1] $r0
	.loc	1 213 9                         @ packages/fal-v0.5.0/src/fal_rtt.c:213:9
	movw	r0, :lower16:.L.str
	movw	r1, :lower16:.L__FUNCTION__.fal_blk_device_create
	movt	r0, :upper16:.L.str
	movt	r1, :upper16:.L__FUNCTION__.fal_blk_device_create
	movs	r2, #213
	bl	rt_kprintf
	adr	r0, .LCPI0_1
	bl	rt_kprintf
	movw	r0, :lower16:.L.str.2
	movt	r0, :upper16:.L.str.2
	bl	rt_kprintf
.Ltmp18:
	.loc	1 217 1                         @ packages/fal-v0.5.0/src/fal_rtt.c:217:1
	mov	r0, r4
	pop	{r4, r5, r6, pc}
.Ltmp19:
	.p2align	2
@ %bb.8:
	.loc	1 0 1 is_stmt 0                 @ packages/fal-v0.5.0/src/fal_rtt.c:0:1
.LCPI0_0:
.L.str.5:
	.asciz	"The FAL block device (%s) created successfully\000"
.LCPI0_1:
.L.str.6:
	.asciz	"Error: no memory for create FAL block device\000\000\000"
.Lfunc_end0:
	.size	fal_blk_device_create, .Lfunc_end0-fal_blk_device_create
	.cfi_endproc
	.cantunwind
	.fnend
                                        @ -- End function
	.section	.text.blk_dev_read,"ax",%progbits
	.p2align	3                               @ -- Begin function blk_dev_read
	.type	blk_dev_read,%function
	.code	16                              @ @blk_dev_read
	.thumb_func
blk_dev_read:
.Lfunc_begin1:
	.loc	1 92 0 is_stmt 1                @ packages/fal-v0.5.0/src/fal_rtt.c:92:0
	.fnstart
	.cfi_startproc
@ %bb.0:
	@DEBUG_VALUE: blk_dev_read:dev <- $r0
	@DEBUG_VALUE: blk_dev_read:pos <- $r1
	@DEBUG_VALUE: blk_dev_read:buffer <- $r2
	@DEBUG_VALUE: blk_dev_read:size <- $r3
	@DEBUG_VALUE: blk_dev_read:dev <- $r0
	.save	{r4, r5, r7, lr}
	push	{r4, r5, r7, lr}
	.cfi_def_cfa_offset 16
	.cfi_offset lr, -4
	.cfi_offset r7, -8
	.cfi_offset r5, -12
	.cfi_offset r4, -16
.Ltmp20:
	@DEBUG_VALUE: blk_dev_read:part <- $r0
	@DEBUG_VALUE: blk_dev_read:ret <- 0
	@DEBUG_VALUE: blk_dev_read:part <- $r0
	@DEBUG_VALUE: blk_dev_read:size <- $r3
	@DEBUG_VALUE: blk_dev_read:buffer <- $r2
	@DEBUG_VALUE: blk_dev_read:pos <- $r1
	.loc	1 96 5 prologue_end             @ packages/fal-v0.5.0/src/fal_rtt.c:96:5
	cbz	r0, .LBB1_2
.Ltmp21:
@ %bb.1:
	@DEBUG_VALUE: blk_dev_read:size <- $r3
	@DEBUG_VALUE: blk_dev_read:buffer <- $r2
	@DEBUG_VALUE: blk_dev_read:pos <- $r1
	@DEBUG_VALUE: blk_dev_read:part <- $r0
	@DEBUG_VALUE: blk_dev_read:dev <- $r0
	@DEBUG_VALUE: blk_dev_read:ret <- 0
	.loc	1 0 5 is_stmt 0                 @ packages/fal-v0.5.0/src/fal_rtt.c:0:5
	mov	r5, r0
.Ltmp22:
	@DEBUG_VALUE: blk_dev_read:dev <- $r5
	@DEBUG_VALUE: blk_dev_read:part <- $r5
	.loc	1 98 67 is_stmt 1               @ packages/fal-v0.5.0/src/fal_rtt.c:98:67
	ldr	r0, [r0, #88]
	mov	r4, r3
.Ltmp23:
	@DEBUG_VALUE: blk_dev_read:size <- $r4
	@DEBUG_VALUE: blk_dev_read:part <- $r5
	.loc	1 98 50 is_stmt 0               @ packages/fal-v0.5.0/src/fal_rtt.c:98:50
	muls	r1, r0, r1
.Ltmp24:
	@DEBUG_VALUE: blk_dev_read:pos <- [DW_OP_LLVM_entry_value 1] $r1
	.loc	1 98 92                         @ packages/fal-v0.5.0/src/fal_rtt.c:98:92
	muls	r3, r0, r3
	.loc	1 98 36                         @ packages/fal-v0.5.0/src/fal_rtt.c:98:36
	ldr	r0, [r5, #92]
	.loc	1 98 11                         @ packages/fal-v0.5.0/src/fal_rtt.c:98:11
	bl	fal_partition_read
.Ltmp25:
	@DEBUG_VALUE: blk_dev_read:buffer <- [DW_OP_LLVM_entry_value 1] $r2
	.loc	1 100 44 is_stmt 1              @ packages/fal-v0.5.0/src/fal_rtt.c:100:44
	ldr	r1, [r5, #88]
	.loc	1 100 27 is_stmt 0              @ packages/fal-v0.5.0/src/fal_rtt.c:100:27
	muls	r1, r4, r1
.Ltmp26:
	@DEBUG_VALUE: blk_dev_read:ret <- $r0
	.loc	1 100 9                         @ packages/fal-v0.5.0/src/fal_rtt.c:100:9
	cmp	r0, r1
	it	ne
	movne	r4, #0
.Ltmp27:
	@DEBUG_VALUE: blk_dev_read:size <- [DW_OP_LLVM_entry_value 1] $r3
	@DEBUG_VALUE: blk_dev_read:ret <- $r4
	.loc	1 109 5 is_stmt 1               @ packages/fal-v0.5.0/src/fal_rtt.c:109:5
	mov	r0, r4
	pop	{r4, r5, r7, pc}
.Ltmp28:
.LBB1_2:
	@DEBUG_VALUE: blk_dev_read:size <- $r3
	@DEBUG_VALUE: blk_dev_read:buffer <- $r2
	@DEBUG_VALUE: blk_dev_read:pos <- $r1
	@DEBUG_VALUE: blk_dev_read:part <- $r0
	@DEBUG_VALUE: blk_dev_read:dev <- $r0
	@DEBUG_VALUE: blk_dev_read:ret <- 0
	.loc	1 96 5                          @ packages/fal-v0.5.0/src/fal_rtt.c:96:5
	movw	r0, :lower16:.L.str.11
.Ltmp29:
	@DEBUG_VALUE: blk_dev_read:dev <- [DW_OP_LLVM_entry_value 1] $r0
	movw	r1, :lower16:.L.str.12
.Ltmp30:
	@DEBUG_VALUE: blk_dev_read:pos <- [DW_OP_LLVM_entry_value 1] $r1
	movt	r0, :upper16:.L.str.11
	movt	r1, :upper16:.L.str.12
	adr	r2, .LCPI1_0
.Ltmp31:
	@DEBUG_VALUE: blk_dev_read:buffer <- [DW_OP_LLVM_entry_value 1] $r2
	bl	rt_kprintf
.Ltmp32:
	@DEBUG_VALUE: blk_dev_read:size <- [DW_OP_LLVM_entry_value 1] $r3
	.p2align	2
.LBB1_3:                                @ =>This Inner Loop Header: Depth=1
	@DEBUG_VALUE: blk_dev_read:size <- [DW_OP_LLVM_entry_value 1] $r3
	@DEBUG_VALUE: blk_dev_read:dev <- [DW_OP_LLVM_entry_value 1] $r0
	@DEBUG_VALUE: blk_dev_read:buffer <- [DW_OP_LLVM_entry_value 1] $r2
	@DEBUG_VALUE: blk_dev_read:pos <- [DW_OP_LLVM_entry_value 1] $r1
	@DEBUG_VALUE: blk_dev_read:ret <- 0
	b	.LBB1_3
.Ltmp33:
	.p2align	2
@ %bb.4:
	.loc	1 0 5 is_stmt 0                 @ packages/fal-v0.5.0/src/fal_rtt.c:0:5
.LCPI1_0:
.L__FUNCTION__.blk_dev_read:
	.asciz	"blk_dev_read\000\000\000"
.Lfunc_end1:
	.size	blk_dev_read, .Lfunc_end1-blk_dev_read
	.cfi_endproc
	.cantunwind
	.fnend
                                        @ -- End function
	.section	.text.blk_dev_write,"ax",%progbits
	.p2align	3                               @ -- Begin function blk_dev_write
	.type	blk_dev_write,%function
	.code	16                              @ @blk_dev_write
	.thumb_func
blk_dev_write:
.Lfunc_begin2:
	.loc	1 113 0 is_stmt 1               @ packages/fal-v0.5.0/src/fal_rtt.c:113:0
	.fnstart
	.cfi_startproc
@ %bb.0:
	@DEBUG_VALUE: blk_dev_write:dev <- $r0
	@DEBUG_VALUE: blk_dev_write:pos <- $r1
	@DEBUG_VALUE: blk_dev_write:buffer <- $r2
	@DEBUG_VALUE: blk_dev_write:size <- $r3
	@DEBUG_VALUE: blk_dev_write:dev <- $r0
	.save	{r4, r5, r6, r7, r8, lr}
	push.w	{r4, r5, r6, r7, r8, lr}
	.cfi_def_cfa_offset 24
	.cfi_offset lr, -4
	.cfi_offset r8, -8
	.cfi_offset r7, -12
	.cfi_offset r6, -16
	.cfi_offset r5, -20
	.cfi_offset r4, -24
.Ltmp34:
	@DEBUG_VALUE: blk_dev_write:part <- $r0
	@DEBUG_VALUE: blk_dev_write:ret <- 0
	@DEBUG_VALUE: blk_dev_write:part <- $r0
	@DEBUG_VALUE: blk_dev_write:size <- $r3
	@DEBUG_VALUE: blk_dev_write:buffer <- $r2
	@DEBUG_VALUE: blk_dev_write:pos <- $r1
	.loc	1 120 5 prologue_end            @ packages/fal-v0.5.0/src/fal_rtt.c:120:5
	cbz	r0, .LBB2_4
.Ltmp35:
@ %bb.1:
	@DEBUG_VALUE: blk_dev_write:size <- $r3
	@DEBUG_VALUE: blk_dev_write:buffer <- $r2
	@DEBUG_VALUE: blk_dev_write:pos <- $r1
	@DEBUG_VALUE: blk_dev_write:part <- $r0
	@DEBUG_VALUE: blk_dev_write:dev <- $r0
	@DEBUG_VALUE: blk_dev_write:ret <- 0
	.loc	1 0 5 is_stmt 0                 @ packages/fal-v0.5.0/src/fal_rtt.c:0:5
	mov	r7, r0
.Ltmp36:
	@DEBUG_VALUE: blk_dev_write:dev <- $r7
	@DEBUG_VALUE: blk_dev_write:part <- $r7
	.loc	1 123 36 is_stmt 1              @ packages/fal-v0.5.0/src/fal_rtt.c:123:36
	ldr	r0, [r0, #84]
	mov	r8, r2
.Ltmp37:
	@DEBUG_VALUE: blk_dev_write:buffer <- $r8
	@DEBUG_VALUE: blk_dev_write:buffer <- $r8
	@DEBUG_VALUE: blk_dev_write:part <- $r7
	.loc	1 0 36 is_stmt 0                @ packages/fal-v0.5.0/src/fal_rtt.c:0:36
	mov	r4, r3
.Ltmp38:
	@DEBUG_VALUE: blk_dev_write:size <- $r4
	.loc	1 123 19                        @ packages/fal-v0.5.0/src/fal_rtt.c:123:19
	mul	r6, r0, r1
.Ltmp39:
	@DEBUG_VALUE: blk_dev_write:phy_pos <- $r6
	.loc	1 124 21 is_stmt 1              @ packages/fal-v0.5.0/src/fal_rtt.c:124:21
	mul	r5, r0, r3
.Ltmp40:
	@DEBUG_VALUE: blk_dev_write:phy_size <- $r5
	.loc	1 126 37                        @ packages/fal-v0.5.0/src/fal_rtt.c:126:37
	ldr	r0, [r7, #92]
	.loc	1 126 11 is_stmt 0              @ packages/fal-v0.5.0/src/fal_rtt.c:126:11
	mov	r1, r6
.Ltmp41:
	@DEBUG_VALUE: blk_dev_write:pos <- [DW_OP_LLVM_entry_value 1] $r1
	mov	r2, r5
	bl	fal_partition_erase
.Ltmp42:
	@DEBUG_VALUE: blk_dev_write:ret <- $r0
	.loc	1 128 9 is_stmt 1               @ packages/fal-v0.5.0/src/fal_rtt.c:128:9
	cmp	r0, r5
	bne	.LBB2_3
.Ltmp43:
@ %bb.2:
	@DEBUG_VALUE: blk_dev_write:buffer <- $r8
	@DEBUG_VALUE: blk_dev_write:part <- $r7
	@DEBUG_VALUE: blk_dev_write:dev <- $r7
	@DEBUG_VALUE: blk_dev_write:phy_pos <- $r6
	@DEBUG_VALUE: blk_dev_write:phy_size <- $r5
	@DEBUG_VALUE: blk_dev_write:size <- $r4
	@DEBUG_VALUE: blk_dev_write:ret <- $r0
	@DEBUG_VALUE: blk_dev_write:pos <- [DW_OP_LLVM_entry_value 1] $r1
	.loc	1 130 41                        @ packages/fal-v0.5.0/src/fal_rtt.c:130:41
	ldr	r0, [r7, #92]
.Ltmp44:
	.loc	1 130 15 is_stmt 0              @ packages/fal-v0.5.0/src/fal_rtt.c:130:15
	mov	r1, r6
	mov	r2, r8
	mov	r3, r5
	bl	fal_partition_write
.Ltmp45:
	@DEBUG_VALUE: blk_dev_write:ret <- $r0
.LBB2_3:
	@DEBUG_VALUE: blk_dev_write:buffer <- $r8
	@DEBUG_VALUE: blk_dev_write:part <- $r7
	@DEBUG_VALUE: blk_dev_write:dev <- $r7
	@DEBUG_VALUE: blk_dev_write:phy_pos <- $r6
	@DEBUG_VALUE: blk_dev_write:phy_size <- $r5
	@DEBUG_VALUE: blk_dev_write:size <- $r4
	@DEBUG_VALUE: blk_dev_write:ret <- $r0
	@DEBUG_VALUE: blk_dev_write:pos <- [DW_OP_LLVM_entry_value 1] $r1
	@DEBUG_VALUE: blk_dev_write:ret <- $r0
	.loc	1 133 9 is_stmt 1               @ packages/fal-v0.5.0/src/fal_rtt.c:133:9
	cmp	r0, r5
	it	ne
	movne	r4, #0
.Ltmp46:
	@DEBUG_VALUE: blk_dev_write:size <- [DW_OP_LLVM_entry_value 1] $r3
	@DEBUG_VALUE: blk_dev_write:ret <- $r4
	.loc	1 142 5                         @ packages/fal-v0.5.0/src/fal_rtt.c:142:5
	mov	r0, r4
	pop.w	{r4, r5, r6, r7, r8, pc}
.Ltmp47:
.LBB2_4:
	@DEBUG_VALUE: blk_dev_write:size <- $r3
	@DEBUG_VALUE: blk_dev_write:buffer <- $r2
	@DEBUG_VALUE: blk_dev_write:pos <- $r1
	@DEBUG_VALUE: blk_dev_write:part <- $r0
	@DEBUG_VALUE: blk_dev_write:dev <- $r0
	@DEBUG_VALUE: blk_dev_write:ret <- 0
	.loc	1 120 5                         @ packages/fal-v0.5.0/src/fal_rtt.c:120:5
	movw	r0, :lower16:.L.str.11
.Ltmp48:
	@DEBUG_VALUE: blk_dev_write:dev <- [DW_OP_LLVM_entry_value 1] $r0
	movw	r1, :lower16:.L.str.12
.Ltmp49:
	@DEBUG_VALUE: blk_dev_write:pos <- [DW_OP_LLVM_entry_value 1] $r1
	movt	r0, :upper16:.L.str.11
	movt	r1, :upper16:.L.str.12
	adr	r2, .LCPI2_0
.Ltmp50:
	@DEBUG_VALUE: blk_dev_write:buffer <- [DW_OP_LLVM_entry_value 1] $r2
	bl	rt_kprintf
.Ltmp51:
	@DEBUG_VALUE: blk_dev_write:size <- [DW_OP_LLVM_entry_value 1] $r3
	.p2align	2
.LBB2_5:                                @ =>This Inner Loop Header: Depth=1
	@DEBUG_VALUE: blk_dev_write:size <- [DW_OP_LLVM_entry_value 1] $r3
	@DEBUG_VALUE: blk_dev_write:buffer <- [DW_OP_LLVM_entry_value 1] $r2
	@DEBUG_VALUE: blk_dev_write:dev <- [DW_OP_LLVM_entry_value 1] $r0
	@DEBUG_VALUE: blk_dev_write:pos <- [DW_OP_LLVM_entry_value 1] $r1
	@DEBUG_VALUE: blk_dev_write:ret <- 0
	b	.LBB2_5
.Ltmp52:
	.p2align	2
@ %bb.6:
	.loc	1 0 5 is_stmt 0                 @ packages/fal-v0.5.0/src/fal_rtt.c:0:5
.LCPI2_0:
.L__FUNCTION__.blk_dev_write:
	.asciz	"blk_dev_write\000\000"
.Lfunc_end2:
	.size	blk_dev_write, .Lfunc_end2-blk_dev_write
	.cfi_endproc
	.cantunwind
	.fnend
                                        @ -- End function
	.section	.text.blk_dev_control,"ax",%progbits
	.p2align	3                               @ -- Begin function blk_dev_control
	.type	blk_dev_control,%function
	.code	16                              @ @blk_dev_control
	.thumb_func
blk_dev_control:
.Lfunc_begin3:
	.loc	1 47 0 is_stmt 1                @ packages/fal-v0.5.0/src/fal_rtt.c:47:0
	.fnstart
	.cfi_startproc
@ %bb.0:
	@DEBUG_VALUE: blk_dev_control:dev <- $r0
	@DEBUG_VALUE: blk_dev_control:dev <- $r0
	@DEBUG_VALUE: blk_dev_control:cmd <- $r1
	@DEBUG_VALUE: blk_dev_control:args <- $r2
	.save	{r7, lr}
	push	{r7, lr}
	.cfi_def_cfa_offset 8
	.cfi_offset lr, -4
	.cfi_offset r7, -8
.Ltmp53:
	@DEBUG_VALUE: blk_dev_control:part <- $r0
	@DEBUG_VALUE: blk_dev_control:part <- $r0
	@DEBUG_VALUE: blk_dev_control:args <- $r2
	@DEBUG_VALUE: blk_dev_control:cmd <- $r1
	.loc	1 50 5 prologue_end             @ packages/fal-v0.5.0/src/fal_rtt.c:50:5
	cbz	r0, .LBB3_5
.Ltmp54:
@ %bb.1:
	@DEBUG_VALUE: blk_dev_control:args <- $r2
	@DEBUG_VALUE: blk_dev_control:cmd <- $r1
	@DEBUG_VALUE: blk_dev_control:part <- $r0
	@DEBUG_VALUE: blk_dev_control:dev <- $r0
	.loc	1 52 9                          @ packages/fal-v0.5.0/src/fal_rtt.c:52:9
	cmp	r1, #18
	beq	.LBB3_7
.Ltmp55:
@ %bb.2:
	@DEBUG_VALUE: blk_dev_control:args <- $r2
	@DEBUG_VALUE: blk_dev_control:cmd <- $r1
	@DEBUG_VALUE: blk_dev_control:part <- $r0
	@DEBUG_VALUE: blk_dev_control:dev <- $r0
	cmp	r1, #16
	bne	.LBB3_9
.Ltmp56:
@ %bb.3:
	@DEBUG_VALUE: blk_dev_control:args <- $r2
	@DEBUG_VALUE: blk_dev_control:cmd <- $r1
	@DEBUG_VALUE: blk_dev_control:part <- $r0
	@DEBUG_VALUE: blk_dev_control:dev <- $r0
	@DEBUG_VALUE: geometry <- $r2
	.loc	1 57 13                         @ packages/fal-v0.5.0/src/fal_rtt.c:57:13
	cbz	r2, .LBB3_10
.Ltmp57:
@ %bb.4:
	@DEBUG_VALUE: geometry <- $r2
	@DEBUG_VALUE: blk_dev_control:args <- $r2
	@DEBUG_VALUE: blk_dev_control:cmd <- $r1
	@DEBUG_VALUE: blk_dev_control:part <- $r0
	@DEBUG_VALUE: blk_dev_control:dev <- $r0
	.loc	1 62 9                          @ packages/fal-v0.5.0/src/fal_rtt.c:62:9
	ldrd	r1, r3, [r0, #80]
.Ltmp58:
	@DEBUG_VALUE: blk_dev_control:cmd <- [DW_OP_LLVM_entry_value 1] $r1
	ldr	r0, [r0, #88]
.Ltmp59:
	@DEBUG_VALUE: blk_dev_control:dev <- [DW_OP_LLVM_entry_value 1] $r0
	str	r0, [r2, #8]
	strd	r1, r3, [r2]
	b	.LBB3_9
.Ltmp60:
.LBB3_5:
	@DEBUG_VALUE: blk_dev_control:args <- $r2
	@DEBUG_VALUE: blk_dev_control:cmd <- $r1
	@DEBUG_VALUE: blk_dev_control:part <- $r0
	@DEBUG_VALUE: blk_dev_control:dev <- $r0
	.loc	1 50 5                          @ packages/fal-v0.5.0/src/fal_rtt.c:50:5
	movw	r0, :lower16:.L.str.11
.Ltmp61:
	@DEBUG_VALUE: blk_dev_control:dev <- [DW_OP_LLVM_entry_value 1] $r0
	movw	r1, :lower16:.L.str.12
.Ltmp62:
	@DEBUG_VALUE: blk_dev_control:cmd <- [DW_OP_LLVM_entry_value 1] $r1
	movt	r0, :upper16:.L.str.11
	movt	r1, :upper16:.L.str.12
	adr	r2, .LCPI3_0
.Ltmp63:
	@DEBUG_VALUE: blk_dev_control:args <- [DW_OP_LLVM_entry_value 1] $r2
	bl	rt_kprintf
.Ltmp64:
	.p2align	2
.LBB3_6:                                @ =>This Inner Loop Header: Depth=1
	@DEBUG_VALUE: blk_dev_control:args <- [DW_OP_LLVM_entry_value 1] $r2
	@DEBUG_VALUE: blk_dev_control:dev <- [DW_OP_LLVM_entry_value 1] $r0
	@DEBUG_VALUE: blk_dev_control:cmd <- [DW_OP_LLVM_entry_value 1] $r1
	b	.LBB3_6
.Ltmp65:
.LBB3_7:
	@DEBUG_VALUE: blk_dev_control:args <- $r2
	@DEBUG_VALUE: blk_dev_control:cmd <- $r1
	@DEBUG_VALUE: blk_dev_control:part <- $r0
	@DEBUG_VALUE: blk_dev_control:dev <- $r0
	@DEBUG_VALUE: addrs <- $r2
	@DEBUG_VALUE: start_addr <- undef
	@DEBUG_VALUE: end_addr <- undef
	.loc	1 66 65                         @ packages/fal-v0.5.0/src/fal_rtt.c:66:65
	ldrd	r1, r2, [r2]
.Ltmp66:
	@DEBUG_VALUE: blk_dev_control:args <- [DW_OP_LLVM_entry_value 1] $r2
	@DEBUG_VALUE: blk_dev_control:cmd <- [DW_OP_LLVM_entry_value 1] $r1
	.loc	1 69 13                         @ packages/fal-v0.5.0/src/fal_rtt.c:69:13
	cmp	r2, r1
	blo	.LBB3_10
.Ltmp67:
@ %bb.8:
	@DEBUG_VALUE: blk_dev_control:part <- $r0
	@DEBUG_VALUE: blk_dev_control:dev <- $r0
	@DEBUG_VALUE: blk_dev_control:args <- [DW_OP_LLVM_entry_value 1] $r2
	@DEBUG_VALUE: blk_dev_control:cmd <- [DW_OP_LLVM_entry_value 1] $r1
	@DEBUG_VALUE: end_addr <- undef
	.loc	1 74 13                         @ packages/fal-v0.5.0/src/fal_rtt.c:74:13
	subs	r2, r2, r1
	.loc	1 79 54                         @ packages/fal-v0.5.0/src/fal_rtt.c:79:54
	ldr	r3, [r0, #84]
	.loc	1 80 30                         @ packages/fal-v0.5.0/src/fal_rtt.c:80:30
	it	eq
	addeq	r2, #1
	.loc	1 79 37                         @ packages/fal-v0.5.0/src/fal_rtt.c:79:37
	muls	r1, r3, r1
.Ltmp68:
	@DEBUG_VALUE: phy_start_addr <- $r1
	.loc	1 82 39                         @ packages/fal-v0.5.0/src/fal_rtt.c:82:39
	ldr	r0, [r0, #92]
.Ltmp69:
	@DEBUG_VALUE: blk_dev_control:dev <- [DW_OP_LLVM_entry_value 1] $r0
	.loc	1 80 44                         @ packages/fal-v0.5.0/src/fal_rtt.c:80:44
	muls	r2, r3, r2
.Ltmp70:
	@DEBUG_VALUE: phy_size <- $r2
	.loc	1 82 13                         @ packages/fal-v0.5.0/src/fal_rtt.c:82:13
	bl	fal_partition_erase
.Ltmp71:
	.loc	1 82 13 is_stmt 0               @ packages/fal-v0.5.0/src/fal_rtt.c:82:13
	cmp	r0, #0
	bmi	.LBB3_10
.Ltmp72:
.LBB3_9:
	.loc	1 0 13                          @ packages/fal-v0.5.0/src/fal_rtt.c:0:13
	movs	r0, #0
	.loc	1 89 1 is_stmt 1                @ packages/fal-v0.5.0/src/fal_rtt.c:89:1
	pop	{r7, pc}
.LBB3_10:
	.loc	1 0 1 is_stmt 0                 @ packages/fal-v0.5.0/src/fal_rtt.c:0:1
	mov.w	r0, #-1
	.loc	1 89 1                          @ packages/fal-v0.5.0/src/fal_rtt.c:89:1
	pop	{r7, pc}
.Ltmp73:
	.p2align	2
@ %bb.11:
	.loc	1 0 1                           @ packages/fal-v0.5.0/src/fal_rtt.c:0:1
.LCPI3_0:
.L__FUNCTION__.blk_dev_control:
	.asciz	"blk_dev_control"
.Lfunc_end3:
	.size	blk_dev_control, .Lfunc_end3-blk_dev_control
	.cfi_endproc
	.cantunwind
	.fnend
                                        @ -- End function
	.section	.text.fal_mtd_nor_device_create,"ax",%progbits
	.hidden	fal_mtd_nor_device_create       @ -- Begin function fal_mtd_nor_device_create
	.globl	fal_mtd_nor_device_create
	.p2align	3
	.type	fal_mtd_nor_device_create,%function
	.code	16                              @ @fal_mtd_nor_device_create
	.thumb_func
fal_mtd_nor_device_create:
.Lfunc_begin4:
	.loc	1 308 0 is_stmt 1               @ packages/fal-v0.5.0/src/fal_rtt.c:308:0
	.fnstart
	.cfi_startproc
@ %bb.0:
	@DEBUG_VALUE: fal_mtd_nor_device_create:parition_name <- $r0
	.save	{r4, r5, r6, lr}
	push	{r4, r5, r6, lr}
	.cfi_def_cfa_offset 16
	.cfi_offset lr, -4
	.cfi_offset r6, -8
	.cfi_offset r5, -12
	.cfi_offset r4, -16
	mov	r4, r0
.Ltmp74:
	@DEBUG_VALUE: fal_mtd_nor_device_create:parition_name <- $r4
	.loc	1 310 44 prologue_end           @ packages/fal-v0.5.0/src/fal_rtt.c:310:44
	bl	fal_partition_find
.Ltmp75:
	@DEBUG_VALUE: fal_mtd_nor_device_create:fal_flash <- 0
	@DEBUG_VALUE: fal_mtd_nor_device_create:fal_part <- $r0
	.loc	1 313 9                         @ packages/fal-v0.5.0/src/fal_rtt.c:313:9
	cbz	r0, .LBB4_4
.Ltmp76:
@ %bb.1:
	@DEBUG_VALUE: fal_mtd_nor_device_create:parition_name <- $r4
	@DEBUG_VALUE: fal_mtd_nor_device_create:fal_part <- $r0
	@DEBUG_VALUE: fal_mtd_nor_device_create:fal_flash <- 0
	.loc	1 319 44                        @ packages/fal-v0.5.0/src/fal_rtt.c:319:44
	add.w	r4, r0, #28
.Ltmp77:
	@DEBUG_VALUE: fal_mtd_nor_device_create:parition_name <- [DW_OP_LLVM_entry_value 1] $r0
	.loc	1 0 0 is_stmt 0                 @ packages/fal-v0.5.0/src/fal_rtt.c:0:0
	mov	r5, r0
.Ltmp78:
	@DEBUG_VALUE: fal_mtd_nor_device_create:fal_part <- $r5
	@DEBUG_VALUE: fal_mtd_nor_device_create:fal_part <- $r5
	.loc	1 319 22                        @ packages/fal-v0.5.0/src/fal_rtt.c:319:22
	mov	r0, r4
	bl	fal_flash_device_find
.Ltmp79:
	@DEBUG_VALUE: fal_mtd_nor_device_create:fal_flash <- $r0
	.loc	1 319 9                         @ packages/fal-v0.5.0/src/fal_rtt.c:319:9
	cbz	r0, .LBB4_5
.Ltmp80:
@ %bb.2:
	@DEBUG_VALUE: fal_mtd_nor_device_create:fal_part <- $r5
	@DEBUG_VALUE: fal_mtd_nor_device_create:fal_flash <- $r0
	@DEBUG_VALUE: fal_mtd_nor_device_create:parition_name <- [DW_OP_LLVM_entry_value 1] $r0
	.loc	1 0 0                           @ packages/fal-v0.5.0/src/fal_rtt.c:0:0
	mov	r6, r0
.Ltmp81:
	@DEBUG_VALUE: fal_mtd_nor_device_create:fal_flash <- $r6
	@DEBUG_VALUE: fal_mtd_nor_device_create:fal_flash <- $r6
	.loc	1 325 48 is_stmt 1              @ packages/fal-v0.5.0/src/fal_rtt.c:325:48
	movs	r0, #100
	bl	rt_malloc
	mov	r4, r0
.Ltmp82:
	@DEBUG_VALUE: fal_mtd_nor_device_create:mtd_nor_dev <- $r4
	.loc	1 326 9                         @ packages/fal-v0.5.0/src/fal_rtt.c:326:9
	cmp	r0, #0
	beq	.LBB4_7
.Ltmp83:
@ %bb.3:
	@DEBUG_VALUE: fal_mtd_nor_device_create:fal_flash <- $r6
	@DEBUG_VALUE: fal_mtd_nor_device_create:fal_part <- $r5
	@DEBUG_VALUE: fal_mtd_nor_device_create:mtd_nor_dev <- $r4
	@DEBUG_VALUE: fal_mtd_nor_device_create:parition_name <- [DW_OP_LLVM_entry_value 1] $r0
	@DEBUG_VALUE: fal_mtd_nor_device_create:mtd_nor_dev <- $r4
	.loc	1 0 9 is_stmt 0                 @ packages/fal-v0.5.0/src/fal_rtt.c:0:9
	movs	r0, #0
.Ltmp84:
	.loc	1 330 41 is_stmt 1              @ packages/fal-v0.5.0/src/fal_rtt.c:330:41
	str	r0, [r4, #84]
	.loc	1 331 51                        @ packages/fal-v0.5.0/src/fal_rtt.c:331:51
	ldr	r0, [r5, #56]
	.loc	1 331 68 is_stmt 0              @ packages/fal-v0.5.0/src/fal_rtt.c:331:68
	ldr	r1, [r6, #32]
	.loc	1 328 31 is_stmt 1              @ packages/fal-v0.5.0/src/fal_rtt.c:328:31
	str	r5, [r4, #96]
	.loc	1 331 55                        @ packages/fal-v0.5.0/src/fal_rtt.c:331:55
	udiv	r0, r0, r1
	.loc	1 331 39 is_stmt 0              @ packages/fal-v0.5.0/src/fal_rtt.c:331:39
	str	r0, [r4, #88]
	.loc	1 335 33 is_stmt 1              @ packages/fal-v0.5.0/src/fal_rtt.c:335:33
	movw	r0, :lower16:_ops
	movt	r0, :upper16:_ops
	str	r0, [r4, #92]
	.loc	1 337 9                         @ packages/fal-v0.5.0/src/fal_rtt.c:337:9
	movw	r0, :lower16:.L.str.4
	.loc	1 332 40                        @ packages/fal-v0.5.0/src/fal_rtt.c:332:40
	str	r1, [r4, #80]
	.loc	1 337 9                         @ packages/fal-v0.5.0/src/fal_rtt.c:337:9
	movt	r0, :upper16:.L.str.4
	bl	rt_kprintf
	adds	r5, #4
.Ltmp85:
	adr	r0, .LCPI4_0
	mov	r1, r5
	bl	rt_kprintf
	movw	r0, :lower16:.L.str.2
	movt	r0, :upper16:.L.str.2
	bl	rt_kprintf
	.loc	1 338 9                         @ packages/fal-v0.5.0/src/fal_rtt.c:338:9
	mov	r0, r5
	mov	r1, r4
	bl	rt_mtd_nor_register_device
.Ltmp86:
	.loc	1 346 1                         @ packages/fal-v0.5.0/src/fal_rtt.c:346:1
	mov	r0, r4
	pop	{r4, r5, r6, pc}
.Ltmp87:
.LBB4_4:
	@DEBUG_VALUE: fal_mtd_nor_device_create:parition_name <- $r4
	@DEBUG_VALUE: fal_mtd_nor_device_create:fal_part <- $r0
	@DEBUG_VALUE: fal_mtd_nor_device_create:fal_flash <- 0
	.loc	1 315 9                         @ packages/fal-v0.5.0/src/fal_rtt.c:315:9
	movw	r0, :lower16:.L.str
.Ltmp88:
	movw	r1, :lower16:.L__FUNCTION__.fal_mtd_nor_device_create
	movt	r0, :upper16:.L.str
	movt	r1, :upper16:.L__FUNCTION__.fal_mtd_nor_device_create
	movw	r2, #315
	bl	rt_kprintf
	movw	r0, :lower16:.L.str.1
	movt	r0, :upper16:.L.str.1
	b	.LBB4_6
.Ltmp89:
.LBB4_5:
	@DEBUG_VALUE: fal_mtd_nor_device_create:fal_part <- $r5
	@DEBUG_VALUE: fal_mtd_nor_device_create:fal_flash <- $r0
	@DEBUG_VALUE: fal_mtd_nor_device_create:parition_name <- [DW_OP_LLVM_entry_value 1] $r0
	.loc	1 321 9                         @ packages/fal-v0.5.0/src/fal_rtt.c:321:9
	movw	r0, :lower16:.L.str
.Ltmp90:
	movw	r1, :lower16:.L__FUNCTION__.fal_mtd_nor_device_create
	movt	r0, :upper16:.L.str
	movt	r1, :upper16:.L__FUNCTION__.fal_mtd_nor_device_create
	movw	r2, #321
	bl	rt_kprintf
	movw	r0, :lower16:.L.str.3
	movt	r0, :upper16:.L.str.3
.Ltmp91:
.LBB4_6:
	.loc	1 0 0 is_stmt 0                 @ packages/fal-v0.5.0/src/fal_rtt.c:0:0
	mov	r1, r4
	bl	rt_kprintf
	movw	r0, :lower16:.L.str.2
	movt	r0, :upper16:.L.str.2
	bl	rt_kprintf
	movs	r0, #0
	.loc	1 346 1 is_stmt 1               @ packages/fal-v0.5.0/src/fal_rtt.c:346:1
	pop	{r4, r5, r6, pc}
.LBB4_7:
.Ltmp92:
	@DEBUG_VALUE: fal_mtd_nor_device_create:fal_flash <- $r6
	@DEBUG_VALUE: fal_mtd_nor_device_create:fal_part <- $r5
	@DEBUG_VALUE: fal_mtd_nor_device_create:mtd_nor_dev <- $r4
	@DEBUG_VALUE: fal_mtd_nor_device_create:parition_name <- [DW_OP_LLVM_entry_value 1] $r0
	.loc	1 342 9                         @ packages/fal-v0.5.0/src/fal_rtt.c:342:9
	movw	r0, :lower16:.L.str
	movw	r1, :lower16:.L__FUNCTION__.fal_mtd_nor_device_create
	movt	r0, :upper16:.L.str
	movt	r1, :upper16:.L__FUNCTION__.fal_mtd_nor_device_create
	mov.w	r2, #342
	bl	rt_kprintf
	adr	r0, .LCPI4_1
	bl	rt_kprintf
	movw	r0, :lower16:.L.str.2
	movt	r0, :upper16:.L.str.2
	bl	rt_kprintf
.Ltmp93:
	.loc	1 346 1                         @ packages/fal-v0.5.0/src/fal_rtt.c:346:1
	mov	r0, r4
	pop	{r4, r5, r6, pc}
.Ltmp94:
	.p2align	2
@ %bb.8:
	.loc	1 0 1 is_stmt 0                 @ packages/fal-v0.5.0/src/fal_rtt.c:0:1
.LCPI4_0:
.L.str.7:
	.asciz	"The FAL MTD NOR device (%s) created successfully\000\000\000"
.LCPI4_1:
.L.str.8:
	.asciz	"Error: no memory for create FAL MTD NOR device\000"
.Lfunc_end4:
	.size	fal_mtd_nor_device_create, .Lfunc_end4-fal_mtd_nor_device_create
	.cfi_endproc
	.cantunwind
	.fnend
                                        @ -- End function
	.section	.text.fal_char_device_create,"ax",%progbits
	.hidden	fal_char_device_create          @ -- Begin function fal_char_device_create
	.globl	fal_char_device_create
	.p2align	3
	.type	fal_char_device_create,%function
	.code	16                              @ @fal_char_device_create
	.thumb_func
fal_char_device_create:
.Lfunc_begin5:
	.loc	1 504 0 is_stmt 1               @ packages/fal-v0.5.0/src/fal_rtt.c:504:0
	.fnstart
	.cfi_startproc
@ %bb.0:
	@DEBUG_VALUE: fal_char_device_create:parition_name <- $r0
	.save	{r4, r5, r7, lr}
	push	{r4, r5, r7, lr}
	.cfi_def_cfa_offset 16
	.cfi_offset lr, -4
	.cfi_offset r7, -8
	.cfi_offset r5, -12
	.cfi_offset r4, -16
	mov	r4, r0
.Ltmp95:
	@DEBUG_VALUE: fal_char_device_create:parition_name <- $r4
	.loc	1 506 44 prologue_end           @ packages/fal-v0.5.0/src/fal_rtt.c:506:44
	bl	fal_partition_find
.Ltmp96:
	@DEBUG_VALUE: fal_char_device_create:fal_part <- $r0
	.loc	1 508 9                         @ packages/fal-v0.5.0/src/fal_rtt.c:508:9
	cbz	r0, .LBB5_4
.Ltmp97:
@ %bb.1:
	@DEBUG_VALUE: fal_char_device_create:parition_name <- $r4
	@DEBUG_VALUE: fal_char_device_create:fal_part <- $r0
	.loc	1 514 32                        @ packages/fal-v0.5.0/src/fal_rtt.c:514:32
	add.w	r4, r0, #28
.Ltmp98:
	@DEBUG_VALUE: fal_char_device_create:parition_name <- [DW_OP_LLVM_entry_value 1] $r0
	.loc	1 0 0 is_stmt 0                 @ packages/fal-v0.5.0/src/fal_rtt.c:0:0
	mov	r5, r0
.Ltmp99:
	@DEBUG_VALUE: fal_char_device_create:fal_part <- $r5
	@DEBUG_VALUE: fal_char_device_create:fal_part <- $r5
	.loc	1 514 10                        @ packages/fal-v0.5.0/src/fal_rtt.c:514:10
	mov	r0, r4
	bl	fal_flash_device_find
.Ltmp100:
	.loc	1 514 9                         @ packages/fal-v0.5.0/src/fal_rtt.c:514:9
	cmp	r0, #0
	beq	.LBB5_5
.Ltmp101:
@ %bb.2:
	@DEBUG_VALUE: fal_char_device_create:fal_part <- $r5
	@DEBUG_VALUE: fal_char_device_create:parition_name <- [DW_OP_LLVM_entry_value 1] $r0
	.loc	1 520 43 is_stmt 1              @ packages/fal-v0.5.0/src/fal_rtt.c:520:43
	movs	r0, #84
	bl	rt_malloc
	mov	r4, r0
.Ltmp102:
	@DEBUG_VALUE: fal_char_device_create:char_dev <- $r4
	.loc	1 521 9                         @ packages/fal-v0.5.0/src/fal_rtt.c:521:9
	cmp	r0, #0
	beq	.LBB5_7
.Ltmp103:
@ %bb.3:
	@DEBUG_VALUE: fal_char_device_create:fal_part <- $r5
	@DEBUG_VALUE: fal_char_device_create:char_dev <- $r4
	@DEBUG_VALUE: fal_char_device_create:parition_name <- [DW_OP_LLVM_entry_value 1] $r0
	@DEBUG_VALUE: fal_char_device_create:char_dev <- $r4
	.loc	1 523 28                        @ packages/fal-v0.5.0/src/fal_rtt.c:523:28
	str	r5, [r4, #80]
	.loc	1 534 31                        @ packages/fal-v0.5.0/src/fal_rtt.c:534:31
	movw	r1, :lower16:char_dev_read
	.loc	1 535 32                        @ packages/fal-v0.5.0/src/fal_rtt.c:535:32
	movw	r2, :lower16:char_dev_write
	.loc	1 541 49                        @ packages/fal-v0.5.0/src/fal_rtt.c:541:49
	adds	r5, #4
.Ltmp104:
	.loc	1 0 49 is_stmt 0                @ packages/fal-v0.5.0/src/fal_rtt.c:0:49
	movs	r0, #0
	.loc	1 526 31 is_stmt 1              @ packages/fal-v0.5.0/src/fal_rtt.c:526:31
	strb	r0, [r4, #20]
	.loc	1 531 31                        @ packages/fal-v0.5.0/src/fal_rtt.c:531:31
	strd	r0, r0, [r4, #36]
	.loc	1 534 31                        @ packages/fal-v0.5.0/src/fal_rtt.c:534:31
	movt	r1, :upper16:char_dev_read
	.loc	1 533 32                        @ packages/fal-v0.5.0/src/fal_rtt.c:533:32
	str	r0, [r4, #44]
	.loc	1 535 32                        @ packages/fal-v0.5.0/src/fal_rtt.c:535:32
	movt	r2, :upper16:char_dev_write
	.loc	1 536 34                        @ packages/fal-v0.5.0/src/fal_rtt.c:536:34
	str	r0, [r4, #56]
	.loc	1 534 31                        @ packages/fal-v0.5.0/src/fal_rtt.c:534:31
	strd	r1, r2, [r4, #48]
	.loc	1 538 36                        @ packages/fal-v0.5.0/src/fal_rtt.c:538:36
	str	r0, [r4, #76]
	.loc	1 541 9                         @ packages/fal-v0.5.0/src/fal_rtt.c:541:9
	movs	r2, #3
	mov	r0, r4
	mov	r1, r5
	bl	rt_device_register
	.loc	1 542 9                         @ packages/fal-v0.5.0/src/fal_rtt.c:542:9
	movw	r0, :lower16:.L.str.4
	movt	r0, :upper16:.L.str.4
	bl	rt_kprintf
	adr	r0, .LCPI5_0
	mov	r1, r5
	bl	rt_kprintf
	movw	r0, :lower16:.L.str.2
	movt	r0, :upper16:.L.str.2
	bl	rt_kprintf
	.loc	1 546 31                        @ packages/fal-v0.5.0/src/fal_rtt.c:546:31
	movw	r0, :lower16:char_dev_fops
	movt	r0, :upper16:char_dev_fops
	str	r0, [r4, #60]
.Ltmp105:
	.loc	1 556 1                         @ packages/fal-v0.5.0/src/fal_rtt.c:556:1
	mov	r0, r4
	pop	{r4, r5, r7, pc}
.Ltmp106:
.LBB5_4:
	@DEBUG_VALUE: fal_char_device_create:parition_name <- $r4
	@DEBUG_VALUE: fal_char_device_create:fal_part <- $r0
	.loc	1 510 9                         @ packages/fal-v0.5.0/src/fal_rtt.c:510:9
	movw	r0, :lower16:.L.str
.Ltmp107:
	movw	r1, :lower16:.L__FUNCTION__.fal_char_device_create
	movt	r0, :upper16:.L.str
	movt	r1, :upper16:.L__FUNCTION__.fal_char_device_create
	mov.w	r2, #510
	bl	rt_kprintf
	movw	r0, :lower16:.L.str.1
	movt	r0, :upper16:.L.str.1
	b	.LBB5_6
.Ltmp108:
.LBB5_5:
	@DEBUG_VALUE: fal_char_device_create:fal_part <- $r5
	@DEBUG_VALUE: fal_char_device_create:parition_name <- [DW_OP_LLVM_entry_value 1] $r0
	.loc	1 516 9                         @ packages/fal-v0.5.0/src/fal_rtt.c:516:9
	movw	r0, :lower16:.L.str
	movw	r1, :lower16:.L__FUNCTION__.fal_char_device_create
	movt	r0, :upper16:.L.str
	movt	r1, :upper16:.L__FUNCTION__.fal_char_device_create
	mov.w	r2, #516
	bl	rt_kprintf
	movw	r0, :lower16:.L.str.3
	movt	r0, :upper16:.L.str.3
.Ltmp109:
.LBB5_6:
	.loc	1 0 0 is_stmt 0                 @ packages/fal-v0.5.0/src/fal_rtt.c:0:0
	mov	r1, r4
	bl	rt_kprintf
	movw	r0, :lower16:.L.str.2
	movt	r0, :upper16:.L.str.2
	bl	rt_kprintf
	movs	r0, #0
	.loc	1 556 1 is_stmt 1               @ packages/fal-v0.5.0/src/fal_rtt.c:556:1
	pop	{r4, r5, r7, pc}
.LBB5_7:
.Ltmp110:
	@DEBUG_VALUE: fal_char_device_create:fal_part <- $r5
	@DEBUG_VALUE: fal_char_device_create:char_dev <- $r4
	@DEBUG_VALUE: fal_char_device_create:parition_name <- [DW_OP_LLVM_entry_value 1] $r0
	.loc	1 552 9                         @ packages/fal-v0.5.0/src/fal_rtt.c:552:9
	movw	r0, :lower16:.L.str
	movw	r1, :lower16:.L__FUNCTION__.fal_char_device_create
	movt	r0, :upper16:.L.str
	movt	r1, :upper16:.L__FUNCTION__.fal_char_device_create
	mov.w	r2, #552
	bl	rt_kprintf
	adr	r0, .LCPI5_1
	bl	rt_kprintf
	movw	r0, :lower16:.L.str.2
	movt	r0, :upper16:.L.str.2
	bl	rt_kprintf
.Ltmp111:
	.loc	1 556 1                         @ packages/fal-v0.5.0/src/fal_rtt.c:556:1
	mov	r0, r4
	pop	{r4, r5, r7, pc}
.Ltmp112:
	.p2align	2
@ %bb.8:
	.loc	1 0 1 is_stmt 0                 @ packages/fal-v0.5.0/src/fal_rtt.c:0:1
.LCPI5_0:
.L.str.9:
	.asciz	"The FAL char device (%s) created successfully\000\000"
.LCPI5_1:
.L.str.10:
	.asciz	"Error: no memory for create FAL char device"
.Lfunc_end5:
	.size	fal_char_device_create, .Lfunc_end5-fal_char_device_create
	.cfi_endproc
	.cantunwind
	.fnend
                                        @ -- End function
	.section	.text.char_dev_read,"ax",%progbits
	.p2align	3                               @ -- Begin function char_dev_read
	.type	char_dev_read,%function
	.code	16                              @ @char_dev_read
	.thumb_func
char_dev_read:
.Lfunc_begin6:
	.loc	1 360 0 is_stmt 1               @ packages/fal-v0.5.0/src/fal_rtt.c:360:0
	.fnstart
	.cfi_startproc
@ %bb.0:
	@DEBUG_VALUE: char_dev_read:dev <- $r0
	@DEBUG_VALUE: char_dev_read:dev <- $r0
	@DEBUG_VALUE: char_dev_read:pos <- $r1
	@DEBUG_VALUE: char_dev_read:buffer <- $r2
	@DEBUG_VALUE: char_dev_read:size <- $r3
	.save	{r4, lr}
	push	{r4, lr}
	.cfi_def_cfa_offset 8
	.cfi_offset lr, -4
	.cfi_offset r4, -8
.Ltmp113:
	@DEBUG_VALUE: char_dev_read:part <- $r0
	@DEBUG_VALUE: char_dev_read:part <- $r0
	@DEBUG_VALUE: char_dev_read:ret <- 0
	@DEBUG_VALUE: char_dev_read:size <- $r3
	@DEBUG_VALUE: char_dev_read:buffer <- $r2
	@DEBUG_VALUE: char_dev_read:pos <- $r1
	.loc	1 364 5 prologue_end            @ packages/fal-v0.5.0/src/fal_rtt.c:364:5
	cbz	r0, .LBB6_2
.Ltmp114:
@ %bb.1:
	@DEBUG_VALUE: char_dev_read:size <- $r3
	@DEBUG_VALUE: char_dev_read:buffer <- $r2
	@DEBUG_VALUE: char_dev_read:pos <- $r1
	@DEBUG_VALUE: char_dev_read:part <- $r0
	@DEBUG_VALUE: char_dev_read:dev <- $r0
	@DEBUG_VALUE: char_dev_read:ret <- 0
	.loc	1 366 28                        @ packages/fal-v0.5.0/src/fal_rtt.c:366:28
	ldr	r0, [r0, #80]
.Ltmp115:
	@DEBUG_VALUE: char_dev_read:dev <- [DW_OP_LLVM_entry_value 1] $r0
	.loc	1 0 28 is_stmt 0                @ packages/fal-v0.5.0/src/fal_rtt.c:0:28
	mov	r4, r3
.Ltmp116:
	@DEBUG_VALUE: char_dev_read:size <- $r4
	@DEBUG_VALUE: char_dev_read:part <- $r0
	.loc	1 366 13                        @ packages/fal-v0.5.0/src/fal_rtt.c:366:13
	add.w	r12, r3, r1
	.loc	1 366 38                        @ packages/fal-v0.5.0/src/fal_rtt.c:366:38
	ldr	r3, [r0, #56]
.Ltmp117:
	.loc	1 366 9                         @ packages/fal-v0.5.0/src/fal_rtt.c:366:9
	cmp	r12, r3
	it	hi
	subhi	r4, r3, r1
.Ltmp118:
	@DEBUG_VALUE: char_dev_read:size <- [DW_OP_LLVM_entry_value 1] $r3
	@DEBUG_VALUE: char_dev_read:size <- $r4
	.loc	1 369 11 is_stmt 1              @ packages/fal-v0.5.0/src/fal_rtt.c:369:11
	mov	r3, r4
	bl	fal_partition_read
.Ltmp119:
	@DEBUG_VALUE: char_dev_read:buffer <- [DW_OP_LLVM_entry_value 1] $r2
	@DEBUG_VALUE: char_dev_read:pos <- [DW_OP_LLVM_entry_value 1] $r1
	@DEBUG_VALUE: char_dev_read:ret <- $r0
	.loc	1 371 9                         @ packages/fal-v0.5.0/src/fal_rtt.c:371:9
	cmp	r0, r4
	it	ne
	movne	r0, #0
.Ltmp120:
	@DEBUG_VALUE: char_dev_read:ret <- $r0
	.loc	1 374 5                         @ packages/fal-v0.5.0/src/fal_rtt.c:374:5
	pop	{r4, pc}
.Ltmp121:
.LBB6_2:
	@DEBUG_VALUE: char_dev_read:size <- $r3
	@DEBUG_VALUE: char_dev_read:buffer <- $r2
	@DEBUG_VALUE: char_dev_read:pos <- $r1
	@DEBUG_VALUE: char_dev_read:part <- $r0
	@DEBUG_VALUE: char_dev_read:dev <- $r0
	@DEBUG_VALUE: char_dev_read:ret <- 0
	.loc	1 364 5                         @ packages/fal-v0.5.0/src/fal_rtt.c:364:5
	movw	r0, :lower16:.L.str.11
.Ltmp122:
	@DEBUG_VALUE: char_dev_read:dev <- [DW_OP_LLVM_entry_value 1] $r0
	movw	r1, :lower16:.L.str.12
.Ltmp123:
	@DEBUG_VALUE: char_dev_read:pos <- [DW_OP_LLVM_entry_value 1] $r1
	movt	r0, :upper16:.L.str.11
	movt	r1, :upper16:.L.str.12
	adr	r2, .LCPI6_0
.Ltmp124:
	@DEBUG_VALUE: char_dev_read:buffer <- [DW_OP_LLVM_entry_value 1] $r2
	bl	rt_kprintf
.Ltmp125:
	@DEBUG_VALUE: char_dev_read:size <- [DW_OP_LLVM_entry_value 1] $r3
	.p2align	2
.LBB6_3:                                @ =>This Inner Loop Header: Depth=1
	@DEBUG_VALUE: char_dev_read:size <- [DW_OP_LLVM_entry_value 1] $r3
	@DEBUG_VALUE: char_dev_read:buffer <- [DW_OP_LLVM_entry_value 1] $r2
	@DEBUG_VALUE: char_dev_read:pos <- [DW_OP_LLVM_entry_value 1] $r1
	@DEBUG_VALUE: char_dev_read:dev <- [DW_OP_LLVM_entry_value 1] $r0
	@DEBUG_VALUE: char_dev_read:ret <- 0
	b	.LBB6_3
.Ltmp126:
	.p2align	2
@ %bb.4:
	.loc	1 0 5 is_stmt 0                 @ packages/fal-v0.5.0/src/fal_rtt.c:0:5
.LCPI6_0:
.L__FUNCTION__.char_dev_read:
	.asciz	"char_dev_read\000\000"
.Lfunc_end6:
	.size	char_dev_read, .Lfunc_end6-char_dev_read
	.cfi_endproc
	.cantunwind
	.fnend
                                        @ -- End function
	.section	.text.char_dev_write,"ax",%progbits
	.p2align	3                               @ -- Begin function char_dev_write
	.type	char_dev_write,%function
	.code	16                              @ @char_dev_write
	.thumb_func
char_dev_write:
.Lfunc_begin7:
	.loc	1 378 0 is_stmt 1               @ packages/fal-v0.5.0/src/fal_rtt.c:378:0
	.fnstart
	.cfi_startproc
@ %bb.0:
	@DEBUG_VALUE: char_dev_write:dev <- $r0
	@DEBUG_VALUE: char_dev_write:pos <- $r1
	@DEBUG_VALUE: char_dev_write:buffer <- $r2
	@DEBUG_VALUE: char_dev_write:size <- $r3
	@DEBUG_VALUE: char_dev_write:dev <- $r0
	.save	{r4, r5, r6, r7, lr}
	push	{r4, r5, r6, r7, lr}
	.cfi_def_cfa_offset 20
	.cfi_offset lr, -4
	.cfi_offset r7, -8
	.cfi_offset r6, -12
	.cfi_offset r5, -16
	.cfi_offset r4, -20
	.pad	#4
	sub	sp, #4
	.cfi_def_cfa_offset 24
.Ltmp127:
	@DEBUG_VALUE: char_dev_write:part <- $r0
	@DEBUG_VALUE: char_dev_write:ret <- 0
	@DEBUG_VALUE: char_dev_write:part <- $r0
	@DEBUG_VALUE: char_dev_write:size <- $r3
	@DEBUG_VALUE: char_dev_write:buffer <- $r2
	@DEBUG_VALUE: char_dev_write:pos <- $r1
	.loc	1 383 5 prologue_end            @ packages/fal-v0.5.0/src/fal_rtt.c:383:5
	cbz	r0, .LBB7_3
.Ltmp128:
@ %bb.1:
	@DEBUG_VALUE: char_dev_write:size <- $r3
	@DEBUG_VALUE: char_dev_write:buffer <- $r2
	@DEBUG_VALUE: char_dev_write:pos <- $r1
	@DEBUG_VALUE: char_dev_write:part <- $r0
	@DEBUG_VALUE: char_dev_write:dev <- $r0
	@DEBUG_VALUE: char_dev_write:ret <- 0
	.loc	1 0 5 is_stmt 0                 @ packages/fal-v0.5.0/src/fal_rtt.c:0:5
	mov	r7, r0
.Ltmp129:
	@DEBUG_VALUE: char_dev_write:dev <- $r7
	@DEBUG_VALUE: char_dev_write:dev <- $r7
	@DEBUG_VALUE: char_dev_write:part <- $r7
	mov	r4, r3
.Ltmp130:
	@DEBUG_VALUE: char_dev_write:size <- $r4
	@DEBUG_VALUE: char_dev_write:size <- $r4
	mov	r5, r2
.Ltmp131:
	@DEBUG_VALUE: char_dev_write:buffer <- $r5
	@DEBUG_VALUE: char_dev_write:buffer <- $r5
	mov	r6, r1
.Ltmp132:
	@DEBUG_VALUE: char_dev_write:pos <- $r6
	.loc	1 385 9 is_stmt 1               @ packages/fal-v0.5.0/src/fal_rtt.c:385:9
	cbz	r1, .LBB7_5
.Ltmp133:
@ %bb.2:
	@DEBUG_VALUE: char_dev_write:part <- $r7
	@DEBUG_VALUE: char_dev_write:dev <- $r7
	@DEBUG_VALUE: char_dev_write:pos <- $r6
	@DEBUG_VALUE: char_dev_write:buffer <- $r5
	@DEBUG_VALUE: char_dev_write:size <- $r4
	@DEBUG_VALUE: char_dev_write:ret <- 0
	.loc	1 389 33                        @ packages/fal-v0.5.0/src/fal_rtt.c:389:33
	ldr	r0, [r7, #80]
	.loc	1 389 18 is_stmt 0              @ packages/fal-v0.5.0/src/fal_rtt.c:389:18
	adds	r1, r4, r6
	.loc	1 389 43                        @ packages/fal-v0.5.0/src/fal_rtt.c:389:43
	ldr	r0, [r0, #56]
.Ltmp134:
	.loc	1 389 14                        @ packages/fal-v0.5.0/src/fal_rtt.c:389:14
	cmp	r1, r0
	it	hi
	subhi	r4, r0, r6
.Ltmp135:
	@DEBUG_VALUE: char_dev_write:size <- [DW_OP_LLVM_entry_value 1] $r3
	.loc	1 0 14                          @ packages/fal-v0.5.0/src/fal_rtt.c:0:14
	b	.LBB7_6
.Ltmp136:
.LBB7_3:
	@DEBUG_VALUE: char_dev_write:size <- $r3
	@DEBUG_VALUE: char_dev_write:buffer <- $r2
	@DEBUG_VALUE: char_dev_write:pos <- $r1
	@DEBUG_VALUE: char_dev_write:part <- $r0
	@DEBUG_VALUE: char_dev_write:dev <- $r0
	@DEBUG_VALUE: char_dev_write:ret <- 0
	.loc	1 383 5 is_stmt 1               @ packages/fal-v0.5.0/src/fal_rtt.c:383:5
	movw	r0, :lower16:.L.str.11
.Ltmp137:
	@DEBUG_VALUE: char_dev_write:dev <- [DW_OP_LLVM_entry_value 1] $r0
	movw	r1, :lower16:.L.str.12
.Ltmp138:
	@DEBUG_VALUE: char_dev_write:pos <- [DW_OP_LLVM_entry_value 1] $r1
	movt	r0, :upper16:.L.str.11
	movt	r1, :upper16:.L.str.12
	adr	r2, .LCPI7_0
.Ltmp139:
	@DEBUG_VALUE: char_dev_write:buffer <- [DW_OP_LLVM_entry_value 1] $r2
	bl	rt_kprintf
.Ltmp140:
	@DEBUG_VALUE: char_dev_write:size <- [DW_OP_LLVM_entry_value 1] $r3
	.p2align	2
.LBB7_4:                                @ =>This Inner Loop Header: Depth=1
	@DEBUG_VALUE: char_dev_write:size <- [DW_OP_LLVM_entry_value 1] $r3
	@DEBUG_VALUE: char_dev_write:buffer <- [DW_OP_LLVM_entry_value 1] $r2
	@DEBUG_VALUE: char_dev_write:pos <- [DW_OP_LLVM_entry_value 1] $r1
	@DEBUG_VALUE: char_dev_write:dev <- [DW_OP_LLVM_entry_value 1] $r0
	@DEBUG_VALUE: char_dev_write:ret <- 0
	b	.LBB7_4
.Ltmp141:
.LBB7_5:
	@DEBUG_VALUE: char_dev_write:part <- $r7
	@DEBUG_VALUE: char_dev_write:dev <- $r7
	@DEBUG_VALUE: char_dev_write:pos <- $r6
	@DEBUG_VALUE: char_dev_write:buffer <- $r5
	@DEBUG_VALUE: char_dev_write:size <- $r4
	@DEBUG_VALUE: char_dev_write:ret <- 0
	.loc	1 387 39                        @ packages/fal-v0.5.0/src/fal_rtt.c:387:39
	ldr	r0, [r7, #80]
	.loc	1 387 9 is_stmt 0               @ packages/fal-v0.5.0/src/fal_rtt.c:387:9
	bl	fal_partition_erase_all
.Ltmp142:
.LBB7_6:
	@DEBUG_VALUE: char_dev_write:part <- $r7
	@DEBUG_VALUE: char_dev_write:dev <- $r7
	@DEBUG_VALUE: char_dev_write:pos <- $r6
	@DEBUG_VALUE: char_dev_write:buffer <- $r5
	@DEBUG_VALUE: char_dev_write:ret <- 0
	@DEBUG_VALUE: char_dev_write:size <- $r4
	.loc	1 394 37 is_stmt 1              @ packages/fal-v0.5.0/src/fal_rtt.c:394:37
	ldr	r0, [r7, #80]
	.loc	1 394 11 is_stmt 0              @ packages/fal-v0.5.0/src/fal_rtt.c:394:11
	mov	r1, r6
	mov	r2, r5
	mov	r3, r4
	bl	fal_partition_write
.Ltmp143:
	@DEBUG_VALUE: char_dev_write:ret <- $r0
	.loc	1 396 9 is_stmt 1               @ packages/fal-v0.5.0/src/fal_rtt.c:396:9
	cmp	r0, r4
	it	ne
	movne	r0, #0
.Ltmp144:
	@DEBUG_VALUE: char_dev_write:ret <- $r0
	.loc	1 399 5                         @ packages/fal-v0.5.0/src/fal_rtt.c:399:5
	add	sp, #4
	pop	{r4, r5, r6, r7, pc}
.Ltmp145:
	.p2align	2
@ %bb.7:
	.loc	1 0 5 is_stmt 0                 @ packages/fal-v0.5.0/src/fal_rtt.c:0:5
.LCPI7_0:
.L__FUNCTION__.char_dev_write:
	.asciz	"char_dev_write\000"
.Lfunc_end7:
	.size	char_dev_write, .Lfunc_end7-char_dev_write
	.cfi_endproc
	.cantunwind
	.fnend
                                        @ -- End function
	.section	.text.fal,"ax",%progbits
	.p2align	3                               @ -- Begin function fal
	.type	fal,%function
	.code	16                              @ @fal
	.thumb_func
fal:
.Lfunc_begin8:
	.loc	1 563 0 is_stmt 1               @ packages/fal-v0.5.0/src/fal_rtt.c:563:0
	.fnstart
	.cfi_startproc
@ %bb.0:
	@DEBUG_VALUE: fal:argc <- $r0
	@DEBUG_VALUE: fal:argv <- $r1
	.save	{r4, r5, r6, r7, r8, r9, r10, r11, lr}
	push.w	{r4, r5, r6, r7, r8, r9, r10, r11, lr}
	.cfi_def_cfa_offset 36
	.cfi_offset lr, -4
	.cfi_offset r11, -8
	.cfi_offset r10, -12
	.cfi_offset r9, -16
	.cfi_offset r8, -20
	.cfi_offset r7, -24
	.cfi_offset r6, -28
	.cfi_offset r5, -32
	.cfi_offset r4, -36
	.pad	#20
	sub	sp, #20
	.cfi_def_cfa_offset 56
	mov	r4, r1
.Ltmp146:
	@DEBUG_VALUE: fal:argv <- $r4
	mov	r5, r0
.Ltmp147:
	@DEBUG_VALUE: fal:argc <- $r5
	@DEBUG_VALUE: fal:j <- 0
	@DEBUG_VALUE: fal:i <- 0
	@DEBUG_VALUE: fal:argv <- $r4
	@DEBUG_VALUE: fal:argc <- $r5
	.loc	1 587 9 prologue_end            @ packages/fal-v0.5.0/src/fal_rtt.c:587:9
	bl	fal_init_check
.Ltmp148:
	.loc	1 587 9 is_stmt 0               @ packages/fal-v0.5.0/src/fal_rtt.c:587:9
	cmp	r0, #1
	bne	.LBB8_5
.Ltmp149:
@ %bb.1:
	@DEBUG_VALUE: fal:argc <- $r5
	@DEBUG_VALUE: fal:argv <- $r4
	@DEBUG_VALUE: fal:i <- 0
	@DEBUG_VALUE: fal:j <- 0
	@DEBUG_VALUE: fal:argc <- $r5
	.loc	1 593 9 is_stmt 1               @ packages/fal-v0.5.0/src/fal_rtt.c:593:9
	cmp	r5, #1
	bhi	.LBB8_7
.Ltmp150:
@ %bb.2:
	@DEBUG_VALUE: fal:argc <- $r5
	@DEBUG_VALUE: fal:argv <- $r4
	@DEBUG_VALUE: fal:i <- 0
	@DEBUG_VALUE: fal:j <- 0
	.loc	1 595 9                         @ packages/fal-v0.5.0/src/fal_rtt.c:595:9
	movw	r0, :lower16:.L.str.19
	movt	r0, :upper16:.L.str.19
	bl	rt_kprintf
	movw	r6, :lower16:.L__const.fal.help_info
	movw	r4, :lower16:.L.str.20
.Ltmp151:
	.loc	1 0 9 is_stmt 0                 @ packages/fal-v0.5.0/src/fal_rtt.c:0:9
	movs	r5, #0
.Ltmp152:
	@DEBUG_VALUE: fal:i <- 0
	movt	r6, :upper16:.L__const.fal.help_info
	movt	r4, :upper16:.L.str.20
.Ltmp153:
	.p2align	2
.LBB8_3:                                @ =>This Inner Loop Header: Depth=1
	@DEBUG_VALUE: fal:j <- 0
	@DEBUG_VALUE: fal:i <- $r5
	.loc	1 598 32 is_stmt 1              @ packages/fal-v0.5.0/src/fal_rtt.c:598:32
	ldr.w	r1, [r6, r5, lsl #2]
	.loc	1 598 13 is_stmt 0              @ packages/fal-v0.5.0/src/fal_rtt.c:598:13
	mov	r0, r4
	bl	rt_kprintf
.Ltmp154:
	.loc	1 596 61 is_stmt 1              @ packages/fal-v0.5.0/src/fal_rtt.c:596:61
	adds	r5, #1
.Ltmp155:
	@DEBUG_VALUE: fal:i <- $r5
	.loc	1 596 9 is_stmt 0               @ packages/fal-v0.5.0/src/fal_rtt.c:596:9
	cmp	r5, #5
	bne	.LBB8_3
.Ltmp156:
.LBB8_4:
	@DEBUG_VALUE: fal:i <- $r5
	@DEBUG_VALUE: fal:j <- 0
	.loc	1 0 0                           @ packages/fal-v0.5.0/src/fal_rtt.c:0:0
	movw	r0, :lower16:.L.str.21
	movt	r0, :upper16:.L.str.21
	b	.LBB8_6
.Ltmp157:
.LBB8_5:
	@DEBUG_VALUE: fal:argc <- $r5
	@DEBUG_VALUE: fal:argv <- $r4
	@DEBUG_VALUE: fal:i <- 0
	@DEBUG_VALUE: fal:j <- 0
	.loc	1 589 9 is_stmt 1               @ packages/fal-v0.5.0/src/fal_rtt.c:589:9
	adr.w	r0, .LCPI8_0
.Ltmp158:
.LBB8_6:
	@DEBUG_VALUE: fal:j <- 0
	.loc	1 0 0 is_stmt 0                 @ packages/fal-v0.5.0/src/fal_rtt.c:0:0
	bl	rt_kprintf
	.loc	1 926 1 is_stmt 1               @ packages/fal-v0.5.0/src/fal_rtt.c:926:1
	add	sp, #20
	pop.w	{r4, r5, r6, r7, r8, r9, r10, r11, pc}
.Ltmp159:
.LBB8_7:
	@DEBUG_VALUE: fal:argc <- $r5
	@DEBUG_VALUE: fal:argv <- $r4
	@DEBUG_VALUE: fal:i <- 0
	@DEBUG_VALUE: fal:j <- 0
	@DEBUG_VALUE: fal:argc <- $r5
	.loc	1 604 32                        @ packages/fal-v0.5.0/src/fal_rtt.c:604:32
	ldr	r6, [r4, #4]
.Ltmp160:
	@DEBUG_VALUE: operator <- $r6
	.loc	1 607 14                        @ packages/fal-v0.5.0/src/fal_rtt.c:607:14
	adr.w	r1, .LCPI8_1
	mov	r0, r6
	bl	strcmp
	movw	r10, :lower16:fal.flash_dev
	movt	r10, :upper16:fal.flash_dev
.Ltmp161:
	.loc	1 607 13 is_stmt 0              @ packages/fal-v0.5.0/src/fal_rtt.c:607:13
	cbz	r0, .LBB8_11
.Ltmp162:
@ %bb.8:
	@DEBUG_VALUE: operator <- $r6
	@DEBUG_VALUE: fal:argc <- $r5
	@DEBUG_VALUE: fal:argv <- $r4
	@DEBUG_VALUE: fal:i <- 0
	@DEBUG_VALUE: fal:j <- 0
	@DEBUG_VALUE: fal:argc <- $r5
	.loc	1 647 18 is_stmt 1              @ packages/fal-v0.5.0/src/fal_rtt.c:647:18
	ldr.w	r0, [r10]
	movw	r11, :lower16:fal.part_dev
	movt	r11, :upper16:fal.part_dev
	.loc	1 647 28 is_stmt 0              @ packages/fal-v0.5.0/src/fal_rtt.c:647:28
	cbnz	r0, .LBB8_14
.Ltmp163:
@ %bb.9:
	@DEBUG_VALUE: operator <- $r6
	@DEBUG_VALUE: fal:argc <- $r5
	@DEBUG_VALUE: fal:argv <- $r4
	@DEBUG_VALUE: fal:i <- 0
	@DEBUG_VALUE: fal:j <- 0
	.loc	1 0 28                          @ packages/fal-v0.5.0/src/fal_rtt.c:0:28
	ldr.w	r0, [r11]
	.loc	1 647 28                        @ packages/fal-v0.5.0/src/fal_rtt.c:647:28
	cbnz	r0, .LBB8_14
.Ltmp164:
@ %bb.10:
	@DEBUG_VALUE: operator <- $r6
	@DEBUG_VALUE: fal:argc <- $r5
	@DEBUG_VALUE: fal:argv <- $r4
	@DEBUG_VALUE: fal:i <- 0
	@DEBUG_VALUE: fal:j <- 0
	.loc	1 649 17 is_stmt 1              @ packages/fal-v0.5.0/src/fal_rtt.c:649:17
	movw	r0, :lower16:.L.str.28
	movt	r0, :upper16:.L.str.28
	b	.LBB8_6
.Ltmp165:
.LBB8_11:
	@DEBUG_VALUE: operator <- $r6
	@DEBUG_VALUE: fal:argc <- $r5
	@DEBUG_VALUE: fal:argv <- $r4
	@DEBUG_VALUE: fal:i <- 0
	@DEBUG_VALUE: fal:j <- 0
	.loc	1 609 17                        @ packages/fal-v0.5.0/src/fal_rtt.c:609:17
	cmp	r5, #3
	blo.w	.LBB8_41
.Ltmp166:
@ %bb.12:
	@DEBUG_VALUE: operator <- $r6
	@DEBUG_VALUE: fal:argc <- $r5
	@DEBUG_VALUE: fal:argv <- $r4
	@DEBUG_VALUE: fal:i <- 0
	@DEBUG_VALUE: fal:j <- 0
	.loc	1 611 34                        @ packages/fal-v0.5.0/src/fal_rtt.c:611:34
	ldr	r4, [r4, #8]
.Ltmp167:
	@DEBUG_VALUE: dev_name <- $r4
	.loc	1 612 34                        @ packages/fal-v0.5.0/src/fal_rtt.c:612:34
	mov	r0, r4
	bl	fal_flash_device_find
.Ltmp168:
	.loc	1 612 21 is_stmt 0              @ packages/fal-v0.5.0/src/fal_rtt.c:612:21
	cmp	r0, #0
.Ltmp169:
	.loc	1 612 32                        @ packages/fal-v0.5.0/src/fal_rtt.c:612:32
	str.w	r0, [r10]
.Ltmp170:
	.loc	1 612 21                        @ packages/fal-v0.5.0/src/fal_rtt.c:612:21
	beq	.LBB8_24
.Ltmp171:
@ %bb.13:
	@DEBUG_VALUE: operator <- $r6
	@DEBUG_VALUE: fal:argc <- $r5
	@DEBUG_VALUE: dev_name <- $r4
	@DEBUG_VALUE: fal:i <- 0
	@DEBUG_VALUE: fal:j <- 0
	.loc	1 614 30 is_stmt 1              @ packages/fal-v0.5.0/src/fal_rtt.c:614:30
	movw	r0, :lower16:fal.part_dev
	movs	r1, #0
	movt	r0, :upper16:fal.part_dev
	str	r1, [r0]
	b	.LBB8_41
.Ltmp172:
.LBB8_14:
	@DEBUG_VALUE: operator <- $r6
	@DEBUG_VALUE: fal:argc <- $r5
	@DEBUG_VALUE: fal:argv <- $r4
	@DEBUG_VALUE: fal:i <- 0
	@DEBUG_VALUE: fal:j <- 0
	@DEBUG_VALUE: fal:argc <- $r5
	.loc	1 652 18                        @ packages/fal-v0.5.0/src/fal_rtt.c:652:18
	adr.w	r1, .LCPI8_2
	mov	r0, r6
	bl	rt_strcmp
.Ltmp173:
	.loc	1 652 17 is_stmt 0              @ packages/fal-v0.5.0/src/fal_rtt.c:652:17
	cbz	r0, .LBB8_20
.Ltmp174:
@ %bb.15:
	@DEBUG_VALUE: operator <- $r6
	@DEBUG_VALUE: fal:argc <- $r5
	@DEBUG_VALUE: fal:argv <- $r4
	@DEBUG_VALUE: fal:i <- 0
	@DEBUG_VALUE: fal:j <- 0
	@DEBUG_VALUE: fal:argc <- $r5
	.loc	1 714 23 is_stmt 1              @ packages/fal-v0.5.0/src/fal_rtt.c:714:23
	adr.w	r1, .LCPI8_3
	mov	r0, r6
	bl	strcmp
.Ltmp175:
	.loc	1 714 22 is_stmt 0              @ packages/fal-v0.5.0/src/fal_rtt.c:714:22
	cbz	r0, .LBB8_22
.Ltmp176:
@ %bb.16:
	@DEBUG_VALUE: operator <- $r6
	@DEBUG_VALUE: fal:argc <- $r5
	@DEBUG_VALUE: fal:argv <- $r4
	@DEBUG_VALUE: fal:i <- 0
	@DEBUG_VALUE: fal:j <- 0
	.loc	1 758 23 is_stmt 1              @ packages/fal-v0.5.0/src/fal_rtt.c:758:23
	adr.w	r1, .LCPI8_4
	mov	r0, r6
	bl	rt_strcmp
.Ltmp177:
	.loc	1 758 22 is_stmt 0              @ packages/fal-v0.5.0/src/fal_rtt.c:758:22
	cmp	r0, #0
	beq	.LBB8_29
.Ltmp178:
@ %bb.17:
	@DEBUG_VALUE: operator <- $r6
	@DEBUG_VALUE: fal:argc <- $r5
	@DEBUG_VALUE: fal:argv <- $r4
	@DEBUG_VALUE: fal:i <- 0
	@DEBUG_VALUE: fal:j <- 0
	.loc	1 783 23 is_stmt 1              @ packages/fal-v0.5.0/src/fal_rtt.c:783:23
	adr.w	r1, .LCPI8_5
	mov	r0, r6
	bl	strcmp
.Ltmp179:
	.loc	1 783 22 is_stmt 0              @ packages/fal-v0.5.0/src/fal_rtt.c:783:22
	cmp	r0, #0
	beq.w	.LBB8_38
.Ltmp180:
@ %bb.18:
	@DEBUG_VALUE: operator <- $r6
	@DEBUG_VALUE: fal:argc <- $r5
	@DEBUG_VALUE: fal:argv <- $r4
	@DEBUG_VALUE: fal:i <- 0
	@DEBUG_VALUE: fal:j <- 0
	.loc	1 913 17 is_stmt 1              @ packages/fal-v0.5.0/src/fal_rtt.c:913:17
	movw	r0, :lower16:.L.str.19
	movt	r0, :upper16:.L.str.19
	bl	rt_kprintf
	movw	r6, :lower16:.L__const.fal.help_info
.Ltmp181:
	.loc	1 0 17 is_stmt 0                @ packages/fal-v0.5.0/src/fal_rtt.c:0:17
	movw	r4, :lower16:.L.str.20
.Ltmp182:
	movs	r5, #0
.Ltmp183:
	@DEBUG_VALUE: fal:i <- 0
	movt	r6, :upper16:.L__const.fal.help_info
	movt	r4, :upper16:.L.str.20
.Ltmp184:
	.p2align	2
.LBB8_19:                               @ =>This Inner Loop Header: Depth=1
	@DEBUG_VALUE: fal:j <- 0
	@DEBUG_VALUE: fal:i <- $r5
	.loc	1 916 40 is_stmt 1              @ packages/fal-v0.5.0/src/fal_rtt.c:916:40
	ldr.w	r1, [r6, r5, lsl #2]
	.loc	1 916 21 is_stmt 0              @ packages/fal-v0.5.0/src/fal_rtt.c:916:21
	mov	r0, r4
	bl	rt_kprintf
.Ltmp185:
	.loc	1 914 69 is_stmt 1              @ packages/fal-v0.5.0/src/fal_rtt.c:914:69
	adds	r5, #1
.Ltmp186:
	@DEBUG_VALUE: fal:i <- $r5
	.loc	1 914 17 is_stmt 0              @ packages/fal-v0.5.0/src/fal_rtt.c:914:17
	cmp	r5, #5
	bne	.LBB8_19
	b	.LBB8_4
.Ltmp187:
.LBB8_20:
	@DEBUG_VALUE: operator <- $r6
	@DEBUG_VALUE: fal:argc <- $r5
	@DEBUG_VALUE: fal:argv <- $r4
	@DEBUG_VALUE: fal:i <- 0
	@DEBUG_VALUE: fal:j <- 0
	.loc	1 654 21 is_stmt 1              @ packages/fal-v0.5.0/src/fal_rtt.c:654:21
	cmp	r5, #3
	bhi	.LBB8_26
.Ltmp188:
@ %bb.21:
	@DEBUG_VALUE: operator <- $r6
	@DEBUG_VALUE: fal:argc <- $r5
	@DEBUG_VALUE: fal:argv <- $r4
	@DEBUG_VALUE: fal:i <- 0
	@DEBUG_VALUE: fal:j <- 0
	.loc	1 656 21                        @ packages/fal-v0.5.0/src/fal_rtt.c:656:21
	movw	r0, :lower16:.L.str.27
	movw	r1, :lower16:.L.str.14
	movt	r0, :upper16:.L.str.27
	movt	r1, :upper16:.L.str.14
	b	.LBB8_51
.Ltmp189:
.LBB8_22:
	@DEBUG_VALUE: operator <- $r6
	@DEBUG_VALUE: fal:argc <- $r5
	@DEBUG_VALUE: fal:argv <- $r4
	@DEBUG_VALUE: fal:i <- 0
	@DEBUG_VALUE: fal:j <- 0
	@DEBUG_VALUE: fal:argc <- $r5
	.loc	1 716 21                        @ packages/fal-v0.5.0/src/fal_rtt.c:716:21
	cmp	r5, #3
	bhi	.LBB8_31
.Ltmp190:
@ %bb.23:
	@DEBUG_VALUE: operator <- $r6
	@DEBUG_VALUE: fal:argc <- $r5
	@DEBUG_VALUE: fal:argv <- $r4
	@DEBUG_VALUE: fal:i <- 0
	@DEBUG_VALUE: fal:j <- 0
	.loc	1 718 21                        @ packages/fal-v0.5.0/src/fal_rtt.c:718:21
	movw	r0, :lower16:.L.str.27
	movw	r1, :lower16:.L.str.15
	movt	r0, :upper16:.L.str.27
	movt	r1, :upper16:.L.str.15
	b	.LBB8_51
.Ltmp191:
.LBB8_24:
	@DEBUG_VALUE: operator <- $r6
	@DEBUG_VALUE: fal:argc <- $r5
	@DEBUG_VALUE: dev_name <- $r4
	@DEBUG_VALUE: fal:i <- 0
	@DEBUG_VALUE: fal:j <- 0
	.loc	1 616 38                        @ packages/fal-v0.5.0/src/fal_rtt.c:616:38
	mov	r0, r4
	bl	fal_partition_find
	.loc	1 616 36 is_stmt 0              @ packages/fal-v0.5.0/src/fal_rtt.c:616:36
	movw	r5, :lower16:fal.part_dev
.Ltmp192:
	.loc	1 616 26                        @ packages/fal-v0.5.0/src/fal_rtt.c:616:26
	cmp	r0, #0
.Ltmp193:
	.loc	1 616 36                        @ packages/fal-v0.5.0/src/fal_rtt.c:616:36
	movt	r5, :upper16:fal.part_dev
	str	r0, [r5]
.Ltmp194:
	.loc	1 616 26                        @ packages/fal-v0.5.0/src/fal_rtt.c:616:26
	beq	.LBB8_40
.Ltmp195:
@ %bb.25:
	@DEBUG_VALUE: operator <- $r6
	@DEBUG_VALUE: dev_name <- $r4
	@DEBUG_VALUE: fal:i <- 0
	@DEBUG_VALUE: fal:j <- 0
	.loc	1 0 26                          @ packages/fal-v0.5.0/src/fal_rtt.c:0:26
	movs	r0, #0
.Ltmp196:
	.loc	1 618 31 is_stmt 1              @ packages/fal-v0.5.0/src/fal_rtt.c:618:31
	str.w	r0, [r10]
	b	.LBB8_41
.Ltmp197:
.LBB8_26:
	@DEBUG_VALUE: operator <- $r6
	@DEBUG_VALUE: fal:argc <- $r5
	@DEBUG_VALUE: fal:argv <- $r4
	@DEBUG_VALUE: fal:i <- 0
	@DEBUG_VALUE: fal:j <- 0
	.loc	1 661 35                        @ packages/fal-v0.5.0/src/fal_rtt.c:661:35
	ldr	r0, [r4, #8]
	.loc	1 661 28 is_stmt 0              @ packages/fal-v0.5.0/src/fal_rtt.c:661:28
	movs	r1, #0
	movs	r2, #0
	bl	strtol
	str	r0, [sp, #16]                   @ 4-byte Spill
.Ltmp198:
	@DEBUG_VALUE: addr <- [DW_OP_plus_uconst 16] [$sp+0]
	.loc	1 662 35 is_stmt 1              @ packages/fal-v0.5.0/src/fal_rtt.c:662:35
	ldr	r0, [r4, #12]
	.loc	1 662 28 is_stmt 0              @ packages/fal-v0.5.0/src/fal_rtt.c:662:28
	movs	r1, #0
	movs	r2, #0
	bl	strtol
	mov	r7, r0
.Ltmp199:
	@DEBUG_VALUE: size <- $r7
	.loc	1 663 37 is_stmt 1              @ packages/fal-v0.5.0/src/fal_rtt.c:663:37
	bl	rt_malloc
.Ltmp200:
	@DEBUG_VALUE: data <- $r0
	.loc	1 664 25                        @ packages/fal-v0.5.0/src/fal_rtt.c:664:25
	cbz	r0, .LBB8_37
.Ltmp201:
@ %bb.27:
	@DEBUG_VALUE: size <- $r7
	@DEBUG_VALUE: operator <- $r6
	@DEBUG_VALUE: fal:argc <- $r5
	@DEBUG_VALUE: fal:argv <- $r4
	@DEBUG_VALUE: data <- $r0
	@DEBUG_VALUE: addr <- [DW_OP_plus_uconst 16] [$sp+0]
	@DEBUG_VALUE: fal:i <- 0
	@DEBUG_VALUE: fal:j <- 0
	.loc	1 0 0 is_stmt 0                 @ packages/fal-v0.5.0/src/fal_rtt.c:0:0
	mov	r4, r0
.Ltmp202:
	@DEBUG_VALUE: data <- $r4
	@DEBUG_VALUE: data <- $r4
	.loc	1 666 29 is_stmt 1              @ packages/fal-v0.5.0/src/fal_rtt.c:666:29
	ldr.w	r0, [r10]
.Ltmp203:
	.loc	1 666 29 is_stmt 0              @ packages/fal-v0.5.0/src/fal_rtt.c:666:29
	cmp	r0, #0
	beq.w	.LBB8_52
.Ltmp204:
@ %bb.28:
	@DEBUG_VALUE: size <- $r7
	@DEBUG_VALUE: operator <- $r6
	@DEBUG_VALUE: fal:argc <- $r5
	@DEBUG_VALUE: data <- $r4
	@DEBUG_VALUE: addr <- [DW_OP_plus_uconst 16] [$sp+0]
	@DEBUG_VALUE: fal:i <- 0
	@DEBUG_VALUE: fal:j <- 0
	.loc	1 668 53 is_stmt 1              @ packages/fal-v0.5.0/src/fal_rtt.c:668:53
	ldr	r3, [r0, #40]
	.loc	1 668 38 is_stmt 0              @ packages/fal-v0.5.0/src/fal_rtt.c:668:38
	ldr	r0, [sp, #16]                   @ 4-byte Reload
	mov	r1, r4
	mov	r2, r7
	blx	r3
.Ltmp205:
	@DEBUG_VALUE: fal:result <- $r0
	.loc	1 0 38                          @ packages/fal-v0.5.0/src/fal_rtt.c:0:38
	b	.LBB8_65
.Ltmp206:
.LBB8_29:
	@DEBUG_VALUE: operator <- $r6
	@DEBUG_VALUE: fal:argc <- $r5
	@DEBUG_VALUE: fal:argv <- $r4
	@DEBUG_VALUE: fal:i <- 0
	@DEBUG_VALUE: fal:j <- 0
	.loc	1 760 21 is_stmt 1              @ packages/fal-v0.5.0/src/fal_rtt.c:760:21
	cmp	r5, #3
	bhi.w	.LBB8_47
.Ltmp207:
@ %bb.30:
	@DEBUG_VALUE: operator <- $r6
	@DEBUG_VALUE: fal:argc <- $r5
	@DEBUG_VALUE: fal:argv <- $r4
	@DEBUG_VALUE: fal:i <- 0
	@DEBUG_VALUE: fal:j <- 0
	.loc	1 762 21                        @ packages/fal-v0.5.0/src/fal_rtt.c:762:21
	movw	r0, :lower16:.L.str.27
	movw	r1, :lower16:.L.str.16
	movt	r0, :upper16:.L.str.27
	movt	r1, :upper16:.L.str.16
	b	.LBB8_51
.Ltmp208:
.LBB8_31:
	@DEBUG_VALUE: operator <- $r6
	@DEBUG_VALUE: fal:argc <- $r5
	@DEBUG_VALUE: fal:argv <- $r4
	@DEBUG_VALUE: fal:i <- 0
	@DEBUG_VALUE: fal:j <- 0
	@DEBUG_VALUE: fal:argc <- $r5
	.loc	1 723 35                        @ packages/fal-v0.5.0/src/fal_rtt.c:723:35
	ldr	r0, [r4, #8]
	.loc	1 723 28 is_stmt 0              @ packages/fal-v0.5.0/src/fal_rtt.c:723:28
	movs	r1, #0
	movs	r2, #0
	bl	strtol
	.loc	1 724 33 is_stmt 1              @ packages/fal-v0.5.0/src/fal_rtt.c:724:33
	subs	r5, #3
.Ltmp209:
	@DEBUG_VALUE: size <- $r5
	.loc	1 723 28                        @ packages/fal-v0.5.0/src/fal_rtt.c:723:28
	mov	r8, r0
.Ltmp210:
	@DEBUG_VALUE: addr <- $r8
	.loc	1 725 37                        @ packages/fal-v0.5.0/src/fal_rtt.c:725:37
	mov	r0, r5
	bl	rt_malloc
.Ltmp211:
	@DEBUG_VALUE: data <- $r0
	.loc	1 726 25                        @ packages/fal-v0.5.0/src/fal_rtt.c:726:25
	cbz	r0, .LBB8_37
.Ltmp212:
@ %bb.32:
	@DEBUG_VALUE: addr <- $r8
	@DEBUG_VALUE: operator <- $r6
	@DEBUG_VALUE: size <- $r5
	@DEBUG_VALUE: fal:argv <- $r4
	@DEBUG_VALUE: data <- $r0
	@DEBUG_VALUE: fal:i <- 0
	@DEBUG_VALUE: fal:j <- 0
	.loc	1 0 0 is_stmt 0                 @ packages/fal-v0.5.0/src/fal_rtt.c:0:0
	mov	r9, r0
.Ltmp213:
	@DEBUG_VALUE: data <- $r9
	@DEBUG_VALUE: data <- $r9
	@DEBUG_VALUE: fal:i <- 0
	.loc	1 728 25 is_stmt 1              @ packages/fal-v0.5.0/src/fal_rtt.c:728:25
	cbz	r5, .LBB8_35
.Ltmp214:
@ %bb.33:
	@DEBUG_VALUE: data <- $r9
	@DEBUG_VALUE: addr <- $r8
	@DEBUG_VALUE: operator <- $r6
	@DEBUG_VALUE: size <- $r5
	@DEBUG_VALUE: fal:argv <- $r4
	@DEBUG_VALUE: fal:i <- 0
	@DEBUG_VALUE: fal:j <- 0
	sub.w	r7, r9, #1
	adds	r4, #8
.Ltmp215:
	.loc	1 0 25 is_stmt 0                @ packages/fal-v0.5.0/src/fal_rtt.c:0:25
	mov	r6, r5
.Ltmp216:
.LBB8_34:                               @ =>This Inner Loop Header: Depth=1
	@DEBUG_VALUE: data <- $r9
	@DEBUG_VALUE: addr <- $r8
	@DEBUG_VALUE: size <- $r5
	@DEBUG_VALUE: fal:j <- 0
	@DEBUG_VALUE: fal:i <- undef
	.loc	1 730 46 is_stmt 1              @ packages/fal-v0.5.0/src/fal_rtt.c:730:46
	ldr	r0, [r4, #4]!
	.loc	1 730 39 is_stmt 0              @ packages/fal-v0.5.0/src/fal_rtt.c:730:39
	movs	r1, #0
	movs	r2, #0
	bl	strtol
.Ltmp217:
	.loc	1 728 39 is_stmt 1              @ packages/fal-v0.5.0/src/fal_rtt.c:728:39
	subs	r6, #1
.Ltmp218:
	.loc	1 730 37                        @ packages/fal-v0.5.0/src/fal_rtt.c:730:37
	strb	r0, [r7, #1]!
.Ltmp219:
	@DEBUG_VALUE: fal:i <- [DW_OP_plus_uconst 1, DW_OP_stack_value] undef
	.loc	1 728 25                        @ packages/fal-v0.5.0/src/fal_rtt.c:728:25
	bne	.LBB8_34
.Ltmp220:
.LBB8_35:
	@DEBUG_VALUE: data <- $r9
	@DEBUG_VALUE: addr <- $r8
	@DEBUG_VALUE: size <- $r5
	@DEBUG_VALUE: fal:j <- 0
	.loc	1 732 29                        @ packages/fal-v0.5.0/src/fal_rtt.c:732:29
	ldr.w	r0, [r10]
.Ltmp221:
	.loc	1 732 29 is_stmt 0              @ packages/fal-v0.5.0/src/fal_rtt.c:732:29
	cmp	r0, #0
	beq.w	.LBB8_54
.Ltmp222:
@ %bb.36:
	@DEBUG_VALUE: data <- $r9
	@DEBUG_VALUE: addr <- $r8
	@DEBUG_VALUE: size <- $r5
	@DEBUG_VALUE: fal:j <- 0
	.loc	1 734 53 is_stmt 1              @ packages/fal-v0.5.0/src/fal_rtt.c:734:53
	ldr	r3, [r0, #44]
	.loc	1 734 38 is_stmt 0              @ packages/fal-v0.5.0/src/fal_rtt.c:734:38
	mov	r0, r8
	mov	r1, r9
	mov	r2, r5
	blx	r3
.Ltmp223:
	@DEBUG_VALUE: fal:result <- $r0
	.loc	1 0 38                          @ packages/fal-v0.5.0/src/fal_rtt.c:0:38
	b	.LBB8_81
.Ltmp224:
.LBB8_37:
	@DEBUG_VALUE: operator <- $r6
	@DEBUG_VALUE: fal:argv <- $r4
	@DEBUG_VALUE: fal:i <- 0
	@DEBUG_VALUE: fal:j <- 0
	movw	r0, :lower16:.L.str.36
	movt	r0, :upper16:.L.str.36
	bl	rt_kprintf
                                        @ implicit-def: $r2
	b	.LBB8_87
.Ltmp225:
.LBB8_38:
	@DEBUG_VALUE: operator <- $r6
	@DEBUG_VALUE: fal:argc <- $r5
	@DEBUG_VALUE: fal:argv <- $r4
	@DEBUG_VALUE: fal:i <- 0
	@DEBUG_VALUE: fal:j <- 0
	.loc	1 785 21 is_stmt 1              @ packages/fal-v0.5.0/src/fal_rtt.c:785:21
	cmp	r5, #2
	bhi	.LBB8_49
.Ltmp226:
@ %bb.39:
	@DEBUG_VALUE: operator <- $r6
	@DEBUG_VALUE: fal:argc <- $r5
	@DEBUG_VALUE: fal:argv <- $r4
	@DEBUG_VALUE: fal:i <- 0
	@DEBUG_VALUE: fal:j <- 0
	.loc	1 787 21                        @ packages/fal-v0.5.0/src/fal_rtt.c:787:21
	movw	r0, :lower16:.L.str.27
	movw	r1, :lower16:.L.str.17
	movt	r0, :upper16:.L.str.27
	movt	r1, :upper16:.L.str.17
	b	.LBB8_51
.Ltmp227:
.LBB8_40:
	@DEBUG_VALUE: operator <- $r6
	@DEBUG_VALUE: dev_name <- $r4
	@DEBUG_VALUE: fal:i <- 0
	@DEBUG_VALUE: fal:j <- 0
	.loc	1 622 21                        @ packages/fal-v0.5.0/src/fal_rtt.c:622:21
	movw	r0, :lower16:.L.str.23
	mov	r1, r4
	movt	r0, :upper16:.L.str.23
	bl	rt_kprintf
	movs	r0, #0
	.loc	1 623 31                        @ packages/fal-v0.5.0/src/fal_rtt.c:623:31
	str.w	r0, [r10]
	.loc	1 624 30                        @ packages/fal-v0.5.0/src/fal_rtt.c:624:30
	str	r0, [r5]
.Ltmp228:
.LBB8_41:
	@DEBUG_VALUE: operator <- $r6
	@DEBUG_VALUE: fal:i <- 0
	@DEBUG_VALUE: fal:j <- 0
	.loc	1 628 17                        @ packages/fal-v0.5.0/src/fal_rtt.c:628:17
	ldr.w	r1, [r10]
.Ltmp229:
	.loc	1 628 17 is_stmt 0              @ packages/fal-v0.5.0/src/fal_rtt.c:628:17
	cbz	r1, .LBB8_43
.Ltmp230:
@ %bb.42:
	@DEBUG_VALUE: operator <- $r6
	@DEBUG_VALUE: fal:i <- 0
	@DEBUG_VALUE: fal:j <- 0
	.loc	1 630 17 is_stmt 1              @ packages/fal-v0.5.0/src/fal_rtt.c:630:17
	movw	r0, :lower16:.L.str.24
	.loc	1 631 36                        @ packages/fal-v0.5.0/src/fal_rtt.c:631:36
	ldrd	r2, r3, [r1, #24]
	.loc	1 630 17                        @ packages/fal-v0.5.0/src/fal_rtt.c:630:17
	movt	r0, :upper16:.L.str.24
	b	.LBB8_45
.Ltmp231:
.LBB8_43:
	@DEBUG_VALUE: operator <- $r6
	@DEBUG_VALUE: fal:i <- 0
	@DEBUG_VALUE: fal:j <- 0
	.loc	1 633 22                        @ packages/fal-v0.5.0/src/fal_rtt.c:633:22
	movw	r0, :lower16:fal.part_dev
	movt	r0, :upper16:fal.part_dev
	ldr	r0, [r0]
.Ltmp232:
	.loc	1 633 22 is_stmt 0              @ packages/fal-v0.5.0/src/fal_rtt.c:633:22
	cbz	r0, .LBB8_46
.Ltmp233:
@ %bb.44:
	@DEBUG_VALUE: operator <- $r6
	@DEBUG_VALUE: fal:i <- 0
	@DEBUG_VALUE: fal:j <- 0
	.loc	1 636 25 is_stmt 1              @ packages/fal-v0.5.0/src/fal_rtt.c:636:25
	adds	r1, r0, #4
	.loc	1 636 41 is_stmt 0              @ packages/fal-v0.5.0/src/fal_rtt.c:636:41
	add.w	r2, r0, #28
	.loc	1 636 73                        @ packages/fal-v0.5.0/src/fal_rtt.c:636:73
	ldrd	r3, r7, [r0, #52]
	.loc	1 635 17 is_stmt 1              @ packages/fal-v0.5.0/src/fal_rtt.c:635:17
	movw	r0, :lower16:.L.str.25
	str	r7, [sp]
	movt	r0, :upper16:.L.str.25
.Ltmp234:
.LBB8_45:
	@DEBUG_VALUE: operator <- $r6
	@DEBUG_VALUE: fal:i <- 0
	@DEBUG_VALUE: fal:j <- 0
	.loc	1 0 0 is_stmt 0                 @ packages/fal-v0.5.0/src/fal_rtt.c:0:0
	bl	rt_kprintf
.Ltmp235:
	.loc	1 926 1 is_stmt 1               @ packages/fal-v0.5.0/src/fal_rtt.c:926:1
	add	sp, #20
	pop.w	{r4, r5, r6, r7, r8, r9, r10, r11, pc}
.Ltmp236:
.LBB8_46:
	@DEBUG_VALUE: operator <- $r6
	@DEBUG_VALUE: fal:i <- 0
	@DEBUG_VALUE: fal:j <- 0
	.loc	1 640 17                        @ packages/fal-v0.5.0/src/fal_rtt.c:640:17
	movw	r0, :lower16:.L.str.26
	movt	r0, :upper16:.L.str.26
	bl	rt_kprintf
	.loc	1 641 17                        @ packages/fal-v0.5.0/src/fal_rtt.c:641:17
	movw	r0, :lower16:.L.str.27
	movw	r1, :lower16:.L.str.13
	movt	r0, :upper16:.L.str.27
	movt	r1, :upper16:.L.str.13
	bl	rt_kprintf
	.loc	1 642 17                        @ packages/fal-v0.5.0/src/fal_rtt.c:642:17
	bl	fal_show_part_table
.Ltmp237:
	.loc	1 926 1                         @ packages/fal-v0.5.0/src/fal_rtt.c:926:1
	add	sp, #20
	pop.w	{r4, r5, r6, r7, r8, r9, r10, r11, pc}
.Ltmp238:
.LBB8_47:
	@DEBUG_VALUE: operator <- $r6
	@DEBUG_VALUE: fal:argc <- $r5
	@DEBUG_VALUE: fal:argv <- $r4
	@DEBUG_VALUE: fal:i <- 0
	@DEBUG_VALUE: fal:j <- 0
	.loc	1 767 35                        @ packages/fal-v0.5.0/src/fal_rtt.c:767:35
	ldr	r0, [r4, #8]
	.loc	1 767 28 is_stmt 0              @ packages/fal-v0.5.0/src/fal_rtt.c:767:28
	movs	r1, #0
	movs	r2, #0
	bl	strtol
	mov	r5, r0
.Ltmp239:
	@DEBUG_VALUE: addr <- $r5
	.loc	1 768 35 is_stmt 1              @ packages/fal-v0.5.0/src/fal_rtt.c:768:35
	ldr	r0, [r4, #12]
	.loc	1 768 28 is_stmt 0              @ packages/fal-v0.5.0/src/fal_rtt.c:768:28
	movs	r1, #0
	movs	r2, #0
	bl	strtol
.Ltmp240:
	.loc	1 769 25 is_stmt 1              @ packages/fal-v0.5.0/src/fal_rtt.c:769:25
	ldr.w	r1, [r10]
.Ltmp241:
	.loc	1 768 28                        @ packages/fal-v0.5.0/src/fal_rtt.c:768:28
	mov	r4, r0
.Ltmp242:
	@DEBUG_VALUE: size <- $r4
	.loc	1 769 25                        @ packages/fal-v0.5.0/src/fal_rtt.c:769:25
	cbz	r1, .LBB8_56
.Ltmp243:
@ %bb.48:
	@DEBUG_VALUE: operator <- $r6
	@DEBUG_VALUE: addr <- $r5
	@DEBUG_VALUE: size <- $r4
	@DEBUG_VALUE: fal:i <- 0
	@DEBUG_VALUE: fal:j <- 0
	.loc	1 771 49                        @ packages/fal-v0.5.0/src/fal_rtt.c:771:49
	ldr	r2, [r1, #48]
	.loc	1 771 34 is_stmt 0              @ packages/fal-v0.5.0/src/fal_rtt.c:771:34
	mov	r0, r5
	mov	r1, r4
	blx	r2
	b	.LBB8_58
.Ltmp244:
.LBB8_49:
	@DEBUG_VALUE: operator <- $r6
	@DEBUG_VALUE: fal:argc <- $r5
	@DEBUG_VALUE: fal:argv <- $r4
	@DEBUG_VALUE: fal:i <- 0
	@DEBUG_VALUE: fal:j <- 0
	.loc	1 790 36 is_stmt 1              @ packages/fal-v0.5.0/src/fal_rtt.c:790:36
	cmp	r5, #3
	bne	.LBB8_60
.Ltmp245:
.LBB8_50:
	@DEBUG_VALUE: operator <- $r6
	@DEBUG_VALUE: fal:argc <- $r5
	@DEBUG_VALUE: fal:argv <- $r4
	@DEBUG_VALUE: fal:i <- 0
	@DEBUG_VALUE: fal:j <- 0
	.loc	1 792 121                       @ packages/fal-v0.5.0/src/fal_rtt.c:792:121
	ldr	r0, [r4, #8]
	.loc	1 792 114 is_stmt 0             @ packages/fal-v0.5.0/src/fal_rtt.c:792:114
	movs	r1, #0
	movs	r2, #0
	bl	strtol
	mov	r1, r0
	.loc	1 792 21                        @ packages/fal-v0.5.0/src/fal_rtt.c:792:21
	movw	r0, :lower16:.L.str.46
	movt	r0, :upper16:.L.str.46
.Ltmp246:
.LBB8_51:
	@DEBUG_VALUE: operator <- $r6
	@DEBUG_VALUE: fal:argc <- $r5
	@DEBUG_VALUE: fal:argv <- $r4
	@DEBUG_VALUE: fal:i <- 0
	@DEBUG_VALUE: fal:j <- 0
	.loc	1 0 0                           @ packages/fal-v0.5.0/src/fal_rtt.c:0:0
	bl	rt_kprintf
.Ltmp247:
	.loc	1 926 1 is_stmt 1               @ packages/fal-v0.5.0/src/fal_rtt.c:926:1
	add	sp, #20
	pop.w	{r4, r5, r6, r7, r8, r9, r10, r11, pc}
.Ltmp248:
.LBB8_52:
	@DEBUG_VALUE: size <- $r7
	@DEBUG_VALUE: operator <- $r6
	@DEBUG_VALUE: fal:argc <- $r5
	@DEBUG_VALUE: data <- $r4
	@DEBUG_VALUE: addr <- [DW_OP_plus_uconst 16] [$sp+0]
	@DEBUG_VALUE: fal:i <- 0
	@DEBUG_VALUE: fal:j <- 0
	.loc	1 670 34                        @ packages/fal-v0.5.0/src/fal_rtt.c:670:34
	ldr.w	r0, [r11]
.Ltmp249:
	.loc	1 670 34 is_stmt 0              @ packages/fal-v0.5.0/src/fal_rtt.c:670:34
	cmp	r0, #0
	beq	.LBB8_64
.Ltmp250:
@ %bb.53:
	@DEBUG_VALUE: size <- $r7
	@DEBUG_VALUE: operator <- $r6
	@DEBUG_VALUE: fal:argc <- $r5
	@DEBUG_VALUE: data <- $r4
	@DEBUG_VALUE: addr <- [DW_OP_plus_uconst 16] [$sp+0]
	@DEBUG_VALUE: fal:i <- 0
	@DEBUG_VALUE: fal:j <- 0
	.loc	1 672 38 is_stmt 1              @ packages/fal-v0.5.0/src/fal_rtt.c:672:38
	ldr	r1, [sp, #16]                   @ 4-byte Reload
	mov	r2, r4
	mov	r3, r7
	bl	fal_partition_read
.Ltmp251:
	@DEBUG_VALUE: fal:result <- $r0
	.loc	1 0 38 is_stmt 0                @ packages/fal-v0.5.0/src/fal_rtt.c:0:38
	b	.LBB8_65
.Ltmp252:
.LBB8_54:
	@DEBUG_VALUE: data <- $r9
	@DEBUG_VALUE: addr <- $r8
	@DEBUG_VALUE: size <- $r5
	@DEBUG_VALUE: fal:j <- 0
	.loc	1 736 34 is_stmt 1              @ packages/fal-v0.5.0/src/fal_rtt.c:736:34
	ldr.w	r0, [r11]
.Ltmp253:
	.loc	1 736 34 is_stmt 0              @ packages/fal-v0.5.0/src/fal_rtt.c:736:34
	cmp	r0, #0
	beq.w	.LBB8_80
.Ltmp254:
@ %bb.55:
	@DEBUG_VALUE: data <- $r9
	@DEBUG_VALUE: addr <- $r8
	@DEBUG_VALUE: size <- $r5
	@DEBUG_VALUE: fal:j <- 0
	.loc	1 738 38 is_stmt 1              @ packages/fal-v0.5.0/src/fal_rtt.c:738:38
	mov	r1, r8
	mov	r2, r9
	mov	r3, r5
	bl	fal_partition_write
.Ltmp255:
	@DEBUG_VALUE: fal:result <- $r0
	.loc	1 0 38 is_stmt 0                @ packages/fal-v0.5.0/src/fal_rtt.c:0:38
	b	.LBB8_81
.Ltmp256:
.LBB8_56:
	@DEBUG_VALUE: operator <- $r6
	@DEBUG_VALUE: addr <- $r5
	@DEBUG_VALUE: size <- $r4
	@DEBUG_VALUE: fal:i <- 0
	@DEBUG_VALUE: fal:j <- 0
	.loc	1 773 30 is_stmt 1              @ packages/fal-v0.5.0/src/fal_rtt.c:773:30
	ldr.w	r0, [r11]
.Ltmp257:
	.loc	1 773 30 is_stmt 0              @ packages/fal-v0.5.0/src/fal_rtt.c:773:30
	cmp	r0, #0
	beq.w	.LBB8_90
.Ltmp258:
@ %bb.57:
	@DEBUG_VALUE: operator <- $r6
	@DEBUG_VALUE: addr <- $r5
	@DEBUG_VALUE: size <- $r4
	@DEBUG_VALUE: fal:i <- 0
	@DEBUG_VALUE: fal:j <- 0
	.loc	1 775 34 is_stmt 1              @ packages/fal-v0.5.0/src/fal_rtt.c:775:34
	mov	r1, r5
	mov	r2, r4
	bl	fal_partition_erase
.Ltmp259:
.LBB8_58:
	@DEBUG_VALUE: operator <- $r6
	@DEBUG_VALUE: addr <- $r5
	@DEBUG_VALUE: size <- $r4
	@DEBUG_VALUE: fal:i <- 0
	@DEBUG_VALUE: fal:j <- 0
	.loc	1 0 0 is_stmt 0                 @ packages/fal-v0.5.0/src/fal_rtt.c:0:0
	mov	r2, r0
.Ltmp260:
	@DEBUG_VALUE: fal:result <- $r2
	@DEBUG_VALUE: fal:result <- $r2
	.loc	1 777 25 is_stmt 1              @ packages/fal-v0.5.0/src/fal_rtt.c:777:25
	cmp	r2, #0
	bmi.w	.LBB8_87
.Ltmp261:
.LBB8_59:
	@DEBUG_VALUE: operator <- $r6
	@DEBUG_VALUE: addr <- $r5
	@DEBUG_VALUE: size <- $r4
	@DEBUG_VALUE: fal:result <- $r2
	@DEBUG_VALUE: fal:i <- 0
	@DEBUG_VALUE: fal:j <- 0
	.loc	1 779 25                        @ packages/fal-v0.5.0/src/fal_rtt.c:779:25
	movw	r0, :lower16:.L.str.43
	mov	r1, r5
	movt	r0, :upper16:.L.str.43
	mov	r5, r2
.Ltmp262:
	@DEBUG_VALUE: fal:result <- $r5
	mov	r2, r4
	bl	rt_kprintf
	mov	r2, r5
	b	.LBB8_87
.Ltmp263:
.LBB8_60:
	@DEBUG_VALUE: operator <- $r6
	@DEBUG_VALUE: fal:argc <- $r5
	@DEBUG_VALUE: fal:argv <- $r4
	@DEBUG_VALUE: fal:i <- 0
	@DEBUG_VALUE: fal:j <- 0
	.loc	1 790 46                        @ packages/fal-v0.5.0/src/fal_rtt.c:790:46
	ldr	r0, [r4, #12]
	.loc	1 790 39 is_stmt 0              @ packages/fal-v0.5.0/src/fal_rtt.c:790:39
	adr.w	r1, .LCPI8_6
	bl	strcmp
	.loc	1 790 63                        @ packages/fal-v0.5.0/src/fal_rtt.c:790:63
	cmp	r5, #4
	blo	.LBB8_50
.Ltmp264:
@ %bb.61:
	@DEBUG_VALUE: operator <- $r6
	@DEBUG_VALUE: fal:argc <- $r5
	@DEBUG_VALUE: fal:argv <- $r4
	@DEBUG_VALUE: fal:i <- 0
	@DEBUG_VALUE: fal:j <- 0
	cmp	r0, #0
	bne	.LBB8_50
.Ltmp265:
@ %bb.62:
	@DEBUG_VALUE: operator <- $r6
	@DEBUG_VALUE: fal:argc <- $r5
	@DEBUG_VALUE: fal:argv <- $r4
	@DEBUG_VALUE: fal:i <- 0
	@DEBUG_VALUE: fal:j <- 0
	.loc	1 797 44 is_stmt 1              @ packages/fal-v0.5.0/src/fal_rtt.c:797:44
	ldr	r0, [r4, #8]
	.loc	1 797 37 is_stmt 0              @ packages/fal-v0.5.0/src/fal_rtt.c:797:37
	movs	r1, #0
	movs	r2, #0
	bl	strtol
	mov	r7, r0
.Ltmp266:
	@DEBUG_VALUE: write_size <- $r7
	.loc	1 797 82                        @ packages/fal-v0.5.0/src/fal_rtt.c:797:82
	ldr	r0, [r4, #8]
	.loc	1 797 75                        @ packages/fal-v0.5.0/src/fal_rtt.c:797:75
	movs	r1, #0
	movs	r2, #0
	bl	strtol
	mov	r6, r0
.Ltmp267:
	@DEBUG_VALUE: read_size <- $r6
	.loc	1 798 50 is_stmt 1              @ packages/fal-v0.5.0/src/fal_rtt.c:798:50
	mov	r0, r7
	bl	rt_malloc
	mov	r4, r0
.Ltmp268:
	@DEBUG_VALUE: write_data <- $r4
	.loc	1 798 97 is_stmt 0              @ packages/fal-v0.5.0/src/fal_rtt.c:798:97
	mov	r0, r6
	str	r6, [sp, #16]                   @ 4-byte Spill
.Ltmp269:
	@DEBUG_VALUE: read_size <- [DW_OP_plus_uconst 16] [$sp+0]
	@DEBUG_VALUE: read_size <- [DW_OP_plus_uconst 16] [$sp+0]
	bl	rt_malloc
	mov	r9, r4
.Ltmp270:
	@DEBUG_VALUE: write_data <- $r9
	mov	r6, r0
.Ltmp271:
	@DEBUG_VALUE: read_data <- $r6
	.loc	1 800 32 is_stmt 1              @ packages/fal-v0.5.0/src/fal_rtt.c:800:32
	cmp	r4, #0
	it	ne
	cmpne	r6, #0
	bne.w	.LBB8_91
.Ltmp272:
@ %bb.63:
	@DEBUG_VALUE: write_data <- $r9
	@DEBUG_VALUE: write_size <- $r7
	@DEBUG_VALUE: read_data <- $r6
	@DEBUG_VALUE: fal:argc <- $r5
	@DEBUG_VALUE: read_size <- [DW_OP_plus_uconst 16] [$sp+0]
	@DEBUG_VALUE: fal:i <- 0
	@DEBUG_VALUE: fal:j <- 0
	.loc	1 906 21                        @ packages/fal-v0.5.0/src/fal_rtt.c:906:21
	movw	r0, :lower16:.L.str.36
	movt	r0, :upper16:.L.str.36
	bl	rt_kprintf
                                        @ implicit-def: $r4
	b	.LBB8_131
.Ltmp273:
.LBB8_64:
	@DEBUG_VALUE: size <- $r7
	@DEBUG_VALUE: operator <- $r6
	@DEBUG_VALUE: fal:argc <- $r5
	@DEBUG_VALUE: data <- $r4
	@DEBUG_VALUE: addr <- [DW_OP_plus_uconst 16] [$sp+0]
	@DEBUG_VALUE: fal:i <- 0
	@DEBUG_VALUE: fal:j <- 0
                                        @ implicit-def: $r0
.LBB8_65:
	@DEBUG_VALUE: size <- $r7
	@DEBUG_VALUE: operator <- $r6
	@DEBUG_VALUE: fal:argc <- $r5
	@DEBUG_VALUE: data <- $r4
	@DEBUG_VALUE: addr <- [DW_OP_plus_uconst 16] [$sp+0]
	@DEBUG_VALUE: fal:i <- 0
	@DEBUG_VALUE: fal:j <- 0
	@DEBUG_VALUE: fal:result <- $r0
	.loc	1 674 29                        @ packages/fal-v0.5.0/src/fal_rtt.c:674:29
	cmp	r0, #0
	str	r0, [sp, #12]                   @ 4-byte Spill
.Ltmp274:
	@DEBUG_VALUE: fal:result <- [DW_OP_plus_uconst 12] [$sp+0]
	@DEBUG_VALUE: fal:result <- [DW_OP_plus_uconst 12] [$sp+0]
	bmi	.LBB8_79
.Ltmp275:
@ %bb.66:
	@DEBUG_VALUE: size <- $r7
	@DEBUG_VALUE: operator <- $r6
	@DEBUG_VALUE: fal:argc <- $r5
	@DEBUG_VALUE: data <- $r4
	@DEBUG_VALUE: fal:result <- [DW_OP_plus_uconst 12] [$sp+0]
	@DEBUG_VALUE: addr <- [DW_OP_plus_uconst 16] [$sp+0]
	@DEBUG_VALUE: fal:i <- 0
	@DEBUG_VALUE: fal:j <- 0
	.loc	1 676 29                        @ packages/fal-v0.5.0/src/fal_rtt.c:676:29
	movw	r0, :lower16:.L.str.30
	ldr	r1, [sp, #16]                   @ 4-byte Reload
	movt	r0, :upper16:.L.str.30
	mov	r2, r7
	str	r4, [sp, #8]                    @ 4-byte Spill
.Ltmp276:
	@DEBUG_VALUE: data <- [DW_OP_plus_uconst 8] [$sp+0]
	bl	rt_kprintf
	.loc	1 678 29                        @ packages/fal-v0.5.0/src/fal_rtt.c:678:29
	movw	r0, :lower16:.L.str.31
	movt	r0, :upper16:.L.str.31
	bl	rt_kprintf
	@DEBUG_VALUE: fal:i <- 0
.Ltmp277:
	.loc	1 679 29                        @ packages/fal-v0.5.0/src/fal_rtt.c:679:29
	cmp	r7, #0
	beq	.LBB8_78
.Ltmp278:
@ %bb.67:
	@DEBUG_VALUE: data <- [DW_OP_plus_uconst 8] [$sp+0]
	@DEBUG_VALUE: size <- $r7
	@DEBUG_VALUE: operator <- $r6
	@DEBUG_VALUE: fal:argc <- $r5
	@DEBUG_VALUE: fal:result <- [DW_OP_plus_uconst 12] [$sp+0]
	@DEBUG_VALUE: addr <- [DW_OP_plus_uconst 16] [$sp+0]
	@DEBUG_VALUE: fal:i <- 0
	@DEBUG_VALUE: fal:j <- 0
	.loc	1 0 29 is_stmt 0                @ packages/fal-v0.5.0/src/fal_rtt.c:0:29
	movw	r6, :lower16:.L.str.33
.Ltmp279:
	mov.w	r8, #0
	movt	r6, :upper16:.L.str.33
	adr.w	r4, .LCPI8_12
	adr.w	r11, .LCPI8_11
	ldr.w	r9, [sp, #8]                    @ 4-byte Reload
.Ltmp280:
	@DEBUG_VALUE: data <- $r9
	b	.LBB8_69
.Ltmp281:
.LBB8_68:                               @   in Loop: Header=BB8_69 Depth=1
	@DEBUG_VALUE: fal:i <- $r8
	@DEBUG_VALUE: size <- $r7
	@DEBUG_VALUE: fal:j <- $r5
	@DEBUG_VALUE: fal:result <- [DW_OP_plus_uconst 12] [$sp+0]
	@DEBUG_VALUE: addr <- [DW_OP_plus_uconst 16] [$sp+0]
	.loc	1 702 33 is_stmt 1              @ packages/fal-v0.5.0/src/fal_rtt.c:702:33
	movw	r0, :lower16:.L.str.21
	movt	r0, :upper16:.L.str.21
	bl	rt_kprintf
.Ltmp282:
	.loc	1 679 53                        @ packages/fal-v0.5.0/src/fal_rtt.c:679:53
	add.w	r8, r8, #16
.Ltmp283:
	@DEBUG_VALUE: fal:i <- $r8
	.loc	1 679 29 is_stmt 0              @ packages/fal-v0.5.0/src/fal_rtt.c:679:29
	add.w	r9, r9, #16
	cmp	r8, r7
	bhs	.LBB8_78
.Ltmp284:
.LBB8_69:                               @ =>This Loop Header: Depth=1
                                        @     Child Loop BB8_72 Depth 2
                                        @     Child Loop BB8_76 Depth 2
	@DEBUG_VALUE: size <- $r7
	@DEBUG_VALUE: fal:result <- [DW_OP_plus_uconst 12] [$sp+0]
	@DEBUG_VALUE: addr <- [DW_OP_plus_uconst 16] [$sp+0]
	@DEBUG_VALUE: fal:i <- $r8
	.loc	1 681 60 is_stmt 1              @ packages/fal-v0.5.0/src/fal_rtt.c:681:60
	ldr	r0, [sp, #16]                   @ 4-byte Reload
	add.w	r1, r8, r0
	.loc	1 681 33 is_stmt 0              @ packages/fal-v0.5.0/src/fal_rtt.c:681:33
	movw	r0, :lower16:.L.str.32
	movt	r0, :upper16:.L.str.32
	bl	rt_kprintf
	mov.w	r10, #0
.Ltmp285:
	@DEBUG_VALUE: fal:j <- 0
	.loc	1 0 33                          @ packages/fal-v0.5.0/src/fal_rtt.c:0:33
	b	.LBB8_72
.Ltmp286:
	.p2align	2
.LBB8_70:                               @   in Loop: Header=BB8_72 Depth=2
	@DEBUG_VALUE: fal:j <- $r10
	@DEBUG_VALUE: fal:i <- $r8
	@DEBUG_VALUE: size <- $r7
	@DEBUG_VALUE: fal:result <- [DW_OP_plus_uconst 12] [$sp+0]
	@DEBUG_VALUE: addr <- [DW_OP_plus_uconst 16] [$sp+0]
	.loc	1 691 41 is_stmt 1              @ packages/fal-v0.5.0/src/fal_rtt.c:691:41
	mov	r0, r11
	bl	rt_kprintf
.Ltmp287:
.LBB8_71:                               @   in Loop: Header=BB8_72 Depth=2
	@DEBUG_VALUE: fal:j <- $r10
	@DEBUG_VALUE: fal:i <- $r8
	@DEBUG_VALUE: size <- $r7
	@DEBUG_VALUE: fal:result <- [DW_OP_plus_uconst 12] [$sp+0]
	@DEBUG_VALUE: addr <- [DW_OP_plus_uconst 16] [$sp+0]
	.loc	1 683 65                        @ packages/fal-v0.5.0/src/fal_rtt.c:683:65
	add.w	r10, r10, #1
.Ltmp288:
	@DEBUG_VALUE: fal:j <- $r10
	.loc	1 683 33 is_stmt 0              @ packages/fal-v0.5.0/src/fal_rtt.c:683:33
	cmp.w	r10, #16
	beq	.LBB8_74
.Ltmp289:
.LBB8_72:                               @   Parent Loop BB8_69 Depth=1
                                        @ =>  This Inner Loop Header: Depth=2
	@DEBUG_VALUE: fal:i <- $r8
	@DEBUG_VALUE: size <- $r7
	@DEBUG_VALUE: fal:result <- [DW_OP_plus_uconst 12] [$sp+0]
	@DEBUG_VALUE: addr <- [DW_OP_plus_uconst 16] [$sp+0]
	@DEBUG_VALUE: fal:j <- $r10
	.loc	1 685 47 is_stmt 1              @ packages/fal-v0.5.0/src/fal_rtt.c:685:47
	add.w	r0, r8, r10
.Ltmp290:
	.loc	1 685 41 is_stmt 0              @ packages/fal-v0.5.0/src/fal_rtt.c:685:41
	cmp	r0, r7
	bhs	.LBB8_70
.Ltmp291:
@ %bb.73:                               @   in Loop: Header=BB8_72 Depth=2
	@DEBUG_VALUE: fal:j <- $r10
	@DEBUG_VALUE: fal:i <- $r8
	@DEBUG_VALUE: size <- $r7
	@DEBUG_VALUE: fal:result <- [DW_OP_plus_uconst 12] [$sp+0]
	@DEBUG_VALUE: addr <- [DW_OP_plus_uconst 16] [$sp+0]
	.loc	1 687 61 is_stmt 1              @ packages/fal-v0.5.0/src/fal_rtt.c:687:61
	ldrb.w	r1, [r9, r10]
	.loc	1 687 41 is_stmt 0              @ packages/fal-v0.5.0/src/fal_rtt.c:687:41
	mov	r0, r6
	bl	rt_kprintf
	b	.LBB8_71
.Ltmp292:
.LBB8_74:                               @   in Loop: Header=BB8_69 Depth=1
	@DEBUG_VALUE: fal:j <- $r10
	@DEBUG_VALUE: fal:i <- $r8
	@DEBUG_VALUE: size <- $r7
	@DEBUG_VALUE: fal:result <- [DW_OP_plus_uconst 12] [$sp+0]
	@DEBUG_VALUE: addr <- [DW_OP_plus_uconst 16] [$sp+0]
	.loc	1 0 41                          @ packages/fal-v0.5.0/src/fal_rtt.c:0:41
	movs	r5, #0
	b	.LBB8_76
.Ltmp293:
	.p2align	2
.LBB8_75:                               @   in Loop: Header=BB8_76 Depth=2
	@DEBUG_VALUE: fal:i <- $r8
	@DEBUG_VALUE: size <- $r7
	@DEBUG_VALUE: fal:j <- $r5
	@DEBUG_VALUE: fal:result <- [DW_OP_plus_uconst 12] [$sp+0]
	@DEBUG_VALUE: addr <- [DW_OP_plus_uconst 16] [$sp+0]
	.loc	1 695 65 is_stmt 1              @ packages/fal-v0.5.0/src/fal_rtt.c:695:65
	adds	r5, #1
.Ltmp294:
	@DEBUG_VALUE: fal:j <- $r5
	.loc	1 695 33 is_stmt 0              @ packages/fal-v0.5.0/src/fal_rtt.c:695:33
	cmp	r5, #16
	beq	.LBB8_68
.Ltmp295:
.LBB8_76:                               @   Parent Loop BB8_69 Depth=1
                                        @ =>  This Inner Loop Header: Depth=2
	@DEBUG_VALUE: fal:i <- $r8
	@DEBUG_VALUE: size <- $r7
	@DEBUG_VALUE: fal:result <- [DW_OP_plus_uconst 12] [$sp+0]
	@DEBUG_VALUE: addr <- [DW_OP_plus_uconst 16] [$sp+0]
	@DEBUG_VALUE: fal:j <- $r5
	.loc	1 697 47 is_stmt 1              @ packages/fal-v0.5.0/src/fal_rtt.c:697:47
	add.w	r0, r8, r5
.Ltmp296:
	.loc	1 697 41 is_stmt 0              @ packages/fal-v0.5.0/src/fal_rtt.c:697:41
	cmp	r0, r7
	bhs	.LBB8_75
.Ltmp297:
@ %bb.77:                               @   in Loop: Header=BB8_76 Depth=2
	@DEBUG_VALUE: fal:i <- $r8
	@DEBUG_VALUE: size <- $r7
	@DEBUG_VALUE: fal:j <- $r5
	@DEBUG_VALUE: fal:result <- [DW_OP_plus_uconst 12] [$sp+0]
	@DEBUG_VALUE: addr <- [DW_OP_plus_uconst 16] [$sp+0]
	.loc	1 699 58 is_stmt 1              @ packages/fal-v0.5.0/src/fal_rtt.c:699:58
	ldrb.w	r1, [r9, r5]
	sub.w	r0, r1, #32
	cmp	r0, #95
	.loc	1 699 41 is_stmt 0              @ packages/fal-v0.5.0/src/fal_rtt.c:699:41
	mov	r0, r4
	.loc	1 699 58                        @ packages/fal-v0.5.0/src/fal_rtt.c:699:58
	it	hs
	movhs	r1, #46
	.loc	1 699 41                        @ packages/fal-v0.5.0/src/fal_rtt.c:699:41
	bl	rt_kprintf
	b	.LBB8_75
.Ltmp298:
.LBB8_78:
	@DEBUG_VALUE: size <- $r7
	@DEBUG_VALUE: fal:result <- [DW_OP_plus_uconst 12] [$sp+0]
	@DEBUG_VALUE: addr <- [DW_OP_plus_uconst 16] [$sp+0]
	.loc	1 704 29 is_stmt 1              @ packages/fal-v0.5.0/src/fal_rtt.c:704:29
	movw	r0, :lower16:.L.str.21
	movt	r0, :upper16:.L.str.21
	bl	rt_kprintf
	ldr	r4, [sp, #8]                    @ 4-byte Reload
.Ltmp299:
.LBB8_79:
	@DEBUG_VALUE: size <- $r7
	@DEBUG_VALUE: fal:result <- [DW_OP_plus_uconst 12] [$sp+0]
	@DEBUG_VALUE: addr <- [DW_OP_plus_uconst 16] [$sp+0]
	.loc	1 706 25                        @ packages/fal-v0.5.0/src/fal_rtt.c:706:25
	mov	r0, r4
	bl	rt_free
	ldr	r2, [sp, #12]                   @ 4-byte Reload
	b	.LBB8_87
.Ltmp300:
.LBB8_80:
	@DEBUG_VALUE: data <- $r9
	@DEBUG_VALUE: addr <- $r8
	@DEBUG_VALUE: size <- $r5
	@DEBUG_VALUE: fal:j <- 0
                                        @ implicit-def: $r0
.LBB8_81:
	@DEBUG_VALUE: data <- $r9
	@DEBUG_VALUE: addr <- $r8
	@DEBUG_VALUE: size <- $r5
	@DEBUG_VALUE: fal:j <- 0
	@DEBUG_VALUE: fal:result <- $r0
	.loc	1 0 25 is_stmt 0                @ packages/fal-v0.5.0/src/fal_rtt.c:0:25
	mov	r7, r0
.Ltmp301:
	@DEBUG_VALUE: fal:result <- $r7
	.loc	1 740 29 is_stmt 1              @ packages/fal-v0.5.0/src/fal_rtt.c:740:29
	cmp	r0, #0
	bmi	.LBB8_86
.Ltmp302:
@ %bb.82:
	@DEBUG_VALUE: data <- $r9
	@DEBUG_VALUE: addr <- $r8
	@DEBUG_VALUE: fal:result <- $r7
	@DEBUG_VALUE: size <- $r5
	@DEBUG_VALUE: fal:j <- 0
	.loc	1 742 29                        @ packages/fal-v0.5.0/src/fal_rtt.c:742:29
	movw	r0, :lower16:.L.str.38
	mov	r1, r8
	movt	r0, :upper16:.L.str.38
	mov	r2, r5
	bl	rt_kprintf
	.loc	1 743 29                        @ packages/fal-v0.5.0/src/fal_rtt.c:743:29
	adr	r0, .LCPI8_8
	bl	rt_kprintf
.Ltmp303:
	@DEBUG_VALUE: fal:i <- 0
	.loc	1 744 29                        @ packages/fal-v0.5.0/src/fal_rtt.c:744:29
	cbz	r5, .LBB8_85
.Ltmp304:
@ %bb.83:
	@DEBUG_VALUE: data <- $r9
	@DEBUG_VALUE: addr <- $r8
	@DEBUG_VALUE: fal:result <- $r7
	@DEBUG_VALUE: size <- $r5
	@DEBUG_VALUE: fal:i <- 0
	@DEBUG_VALUE: fal:j <- 0
	sub.w	r6, r9, #1
	adr	r4, .LCPI8_9
.Ltmp305:
.LBB8_84:                               @ =>This Inner Loop Header: Depth=1
	@DEBUG_VALUE: data <- $r9
	@DEBUG_VALUE: addr <- $r8
	@DEBUG_VALUE: fal:result <- $r7
	@DEBUG_VALUE: fal:j <- 0
	@DEBUG_VALUE: fal:i <- undef
	.loc	1 746 51                        @ packages/fal-v0.5.0/src/fal_rtt.c:746:51
	ldrb	r1, [r6, #1]!
	.loc	1 746 33 is_stmt 0              @ packages/fal-v0.5.0/src/fal_rtt.c:746:33
	mov	r0, r4
	bl	rt_kprintf
.Ltmp306:
	@DEBUG_VALUE: fal:i <- [DW_OP_plus_uconst 1, DW_OP_stack_value] undef
	.loc	1 744 43 is_stmt 1              @ packages/fal-v0.5.0/src/fal_rtt.c:744:43
	subs	r5, #1
.Ltmp307:
	.loc	1 744 29 is_stmt 0              @ packages/fal-v0.5.0/src/fal_rtt.c:744:29
	bne	.LBB8_84
.Ltmp308:
.LBB8_85:
	@DEBUG_VALUE: data <- $r9
	@DEBUG_VALUE: addr <- $r8
	@DEBUG_VALUE: fal:result <- $r7
	@DEBUG_VALUE: fal:j <- 0
	.loc	1 748 29 is_stmt 1              @ packages/fal-v0.5.0/src/fal_rtt.c:748:29
	adr	r0, .LCPI8_10
	bl	rt_kprintf
.Ltmp309:
.LBB8_86:
	@DEBUG_VALUE: data <- $r9
	@DEBUG_VALUE: addr <- $r8
	@DEBUG_VALUE: fal:result <- $r7
	@DEBUG_VALUE: fal:j <- 0
	.loc	1 750 25                        @ packages/fal-v0.5.0/src/fal_rtt.c:750:25
	mov	r0, r9
	bl	rt_free
	mov	r2, r7
.Ltmp310:
.LBB8_87:
	@DEBUG_VALUE: fal:result <- $r2
	.loc	1 921 17                        @ packages/fal-v0.5.0/src/fal_rtt.c:921:17
	cmp.w	r2, #-1
	bgt	.LBB8_89
.Ltmp311:
@ %bb.88:
	@DEBUG_VALUE: fal:result <- $r2
	.loc	1 922 17                        @ packages/fal-v0.5.0/src/fal_rtt.c:922:17
	movw	r0, :lower16:.L.str.57
	mov	r1, r2
	movt	r0, :upper16:.L.str.57
	bl	rt_kprintf
.Ltmp312:
.LBB8_89:
	.loc	1 926 1                         @ packages/fal-v0.5.0/src/fal_rtt.c:926:1
	add	sp, #20
	pop.w	{r4, r5, r6, r7, r8, r9, r10, r11, pc}
.LBB8_90:
.Ltmp313:
	@DEBUG_VALUE: operator <- $r6
	@DEBUG_VALUE: addr <- $r5
	@DEBUG_VALUE: size <- $r4
	@DEBUG_VALUE: fal:i <- 0
	@DEBUG_VALUE: fal:j <- 0
                                        @ implicit-def: $r2
	@DEBUG_VALUE: fal:result <- $r2
	.loc	1 777 25                        @ packages/fal-v0.5.0/src/fal_rtt.c:777:25
	cmp	r2, #0
	bpl.w	.LBB8_59
	b	.LBB8_87
.Ltmp314:
.LBB8_91:
	@DEBUG_VALUE: write_data <- $r9
	@DEBUG_VALUE: write_size <- $r7
	@DEBUG_VALUE: read_data <- $r6
	@DEBUG_VALUE: fal:argc <- $r5
	@DEBUG_VALUE: read_size <- [DW_OP_plus_uconst 16] [$sp+0]
	@DEBUG_VALUE: fal:i <- 0
	@DEBUG_VALUE: fal:j <- 0
	.loc	1 802 21                        @ packages/fal-v0.5.0/src/fal_rtt.c:802:21
	movs	r2, #85
	mov	r0, r9
	mov	r1, r7
	bl	__aeabi_memset
.Ltmp315:
	.loc	1 803 25                        @ packages/fal-v0.5.0/src/fal_rtt.c:803:25
	ldr.w	r0, [r10]
.Ltmp316:
	.loc	1 803 25 is_stmt 0              @ packages/fal-v0.5.0/src/fal_rtt.c:803:25
	cbz	r0, .LBB8_93
.Ltmp317:
@ %bb.92:
	@DEBUG_VALUE: write_data <- $r9
	@DEBUG_VALUE: write_size <- $r7
	@DEBUG_VALUE: read_data <- $r6
	@DEBUG_VALUE: fal:argc <- $r5
	@DEBUG_VALUE: read_size <- [DW_OP_plus_uconst 16] [$sp+0]
	@DEBUG_VALUE: fal:i <- 0
	@DEBUG_VALUE: fal:j <- 0
	.loc	1 805 43 is_stmt 1              @ packages/fal-v0.5.0/src/fal_rtt.c:805:43
	adds	r0, #28
.Ltmp318:
	@DEBUG_VALUE: size <- undef
	.loc	1 0 43 is_stmt 0                @ packages/fal-v0.5.0/src/fal_rtt.c:0:43
	b	.LBB8_95
.Ltmp319:
.LBB8_93:
	@DEBUG_VALUE: write_data <- $r9
	@DEBUG_VALUE: write_size <- $r7
	@DEBUG_VALUE: read_data <- $r6
	@DEBUG_VALUE: fal:argc <- $r5
	@DEBUG_VALUE: read_size <- [DW_OP_plus_uconst 16] [$sp+0]
	@DEBUG_VALUE: fal:i <- 0
	@DEBUG_VALUE: fal:j <- 0
	.loc	1 807 30 is_stmt 1              @ packages/fal-v0.5.0/src/fal_rtt.c:807:30
	ldr.w	r0, [r11]
.Ltmp320:
	.loc	1 807 30 is_stmt 0              @ packages/fal-v0.5.0/src/fal_rtt.c:807:30
	cmp	r0, #0
	beq.w	.LBB8_132
.Ltmp321:
@ %bb.94:
	@DEBUG_VALUE: write_data <- $r9
	@DEBUG_VALUE: write_size <- $r7
	@DEBUG_VALUE: read_data <- $r6
	@DEBUG_VALUE: fal:argc <- $r5
	@DEBUG_VALUE: read_size <- [DW_OP_plus_uconst 16] [$sp+0]
	@DEBUG_VALUE: fal:i <- 0
	@DEBUG_VALUE: fal:j <- 0
	.loc	1 809 42 is_stmt 1              @ packages/fal-v0.5.0/src/fal_rtt.c:809:42
	adds	r0, #56
.Ltmp322:
.LBB8_95:
	@DEBUG_VALUE: write_data <- $r9
	@DEBUG_VALUE: write_size <- $r7
	@DEBUG_VALUE: read_data <- $r6
	@DEBUG_VALUE: fal:argc <- $r5
	@DEBUG_VALUE: read_size <- [DW_OP_plus_uconst 16] [$sp+0]
	@DEBUG_VALUE: fal:i <- 0
	@DEBUG_VALUE: fal:j <- 0
	.loc	1 0 0 is_stmt 0                 @ packages/fal-v0.5.0/src/fal_rtt.c:0:0
	ldr	r5, [r0]
.Ltmp323:
	@DEBUG_VALUE: size <- $r5
.LBB8_96:
	@DEBUG_VALUE: write_data <- $r9
	@DEBUG_VALUE: write_size <- $r7
	@DEBUG_VALUE: read_data <- $r6
	@DEBUG_VALUE: read_size <- [DW_OP_plus_uconst 16] [$sp+0]
	@DEBUG_VALUE: fal:i <- 0
	@DEBUG_VALUE: fal:j <- 0
	@DEBUG_VALUE: size <- $r5
	.loc	1 812 21 is_stmt 1              @ packages/fal-v0.5.0/src/fal_rtt.c:812:21
	adr	r0, .LCPI8_7
	mov	r1, r5
	bl	rt_kprintf
	.loc	1 813 34                        @ packages/fal-v0.5.0/src/fal_rtt.c:813:34
	bl	rt_tick_get
.Ltmp324:
	.loc	1 814 25                        @ packages/fal-v0.5.0/src/fal_rtt.c:814:25
	ldr.w	r1, [r10]
.Ltmp325:
	.loc	1 813 34                        @ packages/fal-v0.5.0/src/fal_rtt.c:813:34
	mov	r4, r0
.Ltmp326:
	@DEBUG_VALUE: start_time <- $r4
	.loc	1 814 25                        @ packages/fal-v0.5.0/src/fal_rtt.c:814:25
	cbz	r1, .LBB8_98
.Ltmp327:
@ %bb.97:
	@DEBUG_VALUE: write_data <- $r9
	@DEBUG_VALUE: write_size <- $r7
	@DEBUG_VALUE: read_data <- $r6
	@DEBUG_VALUE: size <- $r5
	@DEBUG_VALUE: start_time <- $r4
	@DEBUG_VALUE: read_size <- [DW_OP_plus_uconst 16] [$sp+0]
	@DEBUG_VALUE: fal:i <- 0
	@DEBUG_VALUE: fal:j <- 0
	.loc	1 816 49                        @ packages/fal-v0.5.0/src/fal_rtt.c:816:49
	ldr	r2, [r1, #48]
	.loc	1 816 34 is_stmt 0              @ packages/fal-v0.5.0/src/fal_rtt.c:816:34
	movs	r0, #0
	mov	r1, r5
	blx	r2
	b	.LBB8_100
.Ltmp328:
.LBB8_98:
	@DEBUG_VALUE: write_data <- $r9
	@DEBUG_VALUE: write_size <- $r7
	@DEBUG_VALUE: read_data <- $r6
	@DEBUG_VALUE: size <- $r5
	@DEBUG_VALUE: start_time <- $r4
	@DEBUG_VALUE: read_size <- [DW_OP_plus_uconst 16] [$sp+0]
	@DEBUG_VALUE: fal:i <- 0
	@DEBUG_VALUE: fal:j <- 0
	.loc	1 818 30 is_stmt 1              @ packages/fal-v0.5.0/src/fal_rtt.c:818:30
	ldr.w	r0, [r11]
.Ltmp329:
	.loc	1 818 30 is_stmt 0              @ packages/fal-v0.5.0/src/fal_rtt.c:818:30
	cmp	r0, #0
	beq.w	.LBB8_133
.Ltmp330:
@ %bb.99:
	@DEBUG_VALUE: write_data <- $r9
	@DEBUG_VALUE: write_size <- $r7
	@DEBUG_VALUE: read_data <- $r6
	@DEBUG_VALUE: size <- $r5
	@DEBUG_VALUE: start_time <- $r4
	@DEBUG_VALUE: read_size <- [DW_OP_plus_uconst 16] [$sp+0]
	@DEBUG_VALUE: fal:i <- 0
	@DEBUG_VALUE: fal:j <- 0
	.loc	1 820 34 is_stmt 1              @ packages/fal-v0.5.0/src/fal_rtt.c:820:34
	movs	r1, #0
	mov	r2, r5
	bl	fal_partition_erase
.Ltmp331:
.LBB8_100:
	@DEBUG_VALUE: write_data <- $r9
	@DEBUG_VALUE: write_size <- $r7
	@DEBUG_VALUE: read_data <- $r6
	@DEBUG_VALUE: size <- $r5
	@DEBUG_VALUE: start_time <- $r4
	@DEBUG_VALUE: read_size <- [DW_OP_plus_uconst 16] [$sp+0]
	@DEBUG_VALUE: fal:i <- 0
	@DEBUG_VALUE: fal:j <- 0
	.loc	1 0 0 is_stmt 0                 @ packages/fal-v0.5.0/src/fal_rtt.c:0:0
	mov	r1, r0
.Ltmp332:
	@DEBUG_VALUE: fal:result <- $r1
.LBB8_101:
	@DEBUG_VALUE: write_data <- $r9
	@DEBUG_VALUE: write_size <- $r7
	@DEBUG_VALUE: read_data <- $r6
	@DEBUG_VALUE: size <- $r5
	@DEBUG_VALUE: start_time <- $r4
	@DEBUG_VALUE: read_size <- [DW_OP_plus_uconst 16] [$sp+0]
	@DEBUG_VALUE: fal:i <- 0
	@DEBUG_VALUE: fal:j <- 0
	@DEBUG_VALUE: fal:result <- $r1
	str	r6, [sp, #12]                   @ 4-byte Spill
.Ltmp333:
	@DEBUG_VALUE: read_data <- [DW_OP_plus_uconst 12] [$sp+0]
	movw	r6, #19923
	.loc	1 822 25 is_stmt 1              @ packages/fal-v0.5.0/src/fal_rtt.c:822:25
	cmp	r1, #0
	movt	r6, #4194
	bmi	.LBB8_103
.Ltmp334:
@ %bb.102:
	@DEBUG_VALUE: read_data <- [DW_OP_plus_uconst 12] [$sp+0]
	@DEBUG_VALUE: write_data <- $r9
	@DEBUG_VALUE: write_size <- $r7
	@DEBUG_VALUE: size <- $r5
	@DEBUG_VALUE: start_time <- $r4
	@DEBUG_VALUE: fal:result <- $r1
	@DEBUG_VALUE: read_size <- [DW_OP_plus_uconst 16] [$sp+0]
	@DEBUG_VALUE: fal:i <- 0
	@DEBUG_VALUE: fal:j <- 0
	.loc	1 0 25 is_stmt 0                @ packages/fal-v0.5.0/src/fal_rtt.c:0:25
	mov	r8, r1
.Ltmp335:
	@DEBUG_VALUE: fal:result <- $r8
	.loc	1 824 37 is_stmt 1              @ packages/fal-v0.5.0/src/fal_rtt.c:824:37
	bl	rt_tick_get
	.loc	1 824 51 is_stmt 0              @ packages/fal-v0.5.0/src/fal_rtt.c:824:51
	subs	r0, r0, r4
.Ltmp336:
	@DEBUG_VALUE: time_cast <- $r0
	.loc	1 825 98 is_stmt 1              @ packages/fal-v0.5.0/src/fal_rtt.c:825:98
	umull	r1, r2, r0, r6
	lsrs	r1, r2, #6
	mov.w	r2, #1000
	mls	r2, r1, r2, r0
	.loc	1 825 25 is_stmt 0              @ packages/fal-v0.5.0/src/fal_rtt.c:825:25
	movw	r0, :lower16:.L.str.48
.Ltmp337:
	movt	r0, :upper16:.L.str.48
	bl	rt_kprintf
	b	.LBB8_104
.Ltmp338:
.LBB8_103:
	@DEBUG_VALUE: read_data <- [DW_OP_plus_uconst 12] [$sp+0]
	@DEBUG_VALUE: write_data <- $r9
	@DEBUG_VALUE: write_size <- $r7
	@DEBUG_VALUE: size <- $r5
	@DEBUG_VALUE: start_time <- $r4
	@DEBUG_VALUE: fal:result <- $r1
	@DEBUG_VALUE: read_size <- [DW_OP_plus_uconst 16] [$sp+0]
	@DEBUG_VALUE: fal:i <- 0
	@DEBUG_VALUE: fal:j <- 0
	.loc	1 830 25 is_stmt 1              @ packages/fal-v0.5.0/src/fal_rtt.c:830:25
	movw	r0, :lower16:.L.str.49
	mov	r8, r1
	movt	r0, :upper16:.L.str.49
	bl	rt_kprintf
.Ltmp339:
.LBB8_104:
	@DEBUG_VALUE: read_data <- [DW_OP_plus_uconst 12] [$sp+0]
	@DEBUG_VALUE: write_data <- $r9
	@DEBUG_VALUE: write_size <- $r7
	@DEBUG_VALUE: size <- $r5
	@DEBUG_VALUE: start_time <- $r4
	@DEBUG_VALUE: read_size <- [DW_OP_plus_uconst 16] [$sp+0]
	@DEBUG_VALUE: fal:i <- 0
	@DEBUG_VALUE: fal:j <- 0
	.loc	1 833 21                        @ packages/fal-v0.5.0/src/fal_rtt.c:833:21
	movw	r0, :lower16:.L.str.50
	mov	r1, r5
	movt	r0, :upper16:.L.str.50
	mov	r6, r9
.Ltmp340:
	@DEBUG_VALUE: write_data <- $r6
	bl	rt_kprintf
	.loc	1 834 34                        @ packages/fal-v0.5.0/src/fal_rtt.c:834:34
	bl	rt_tick_get
	mov	r9, r0
.Ltmp341:
	@DEBUG_VALUE: start_time <- $r9
	@DEBUG_VALUE: fal:result <- $r8
	@DEBUG_VALUE: fal:i <- 0
	.loc	1 835 21                        @ packages/fal-v0.5.0/src/fal_rtt.c:835:21
	cbz	r5, .LBB8_113
.Ltmp342:
@ %bb.105:
	@DEBUG_VALUE: read_data <- [DW_OP_plus_uconst 12] [$sp+0]
	@DEBUG_VALUE: start_time <- $r9
	@DEBUG_VALUE: fal:result <- $r8
	@DEBUG_VALUE: write_size <- $r7
	@DEBUG_VALUE: write_data <- $r6
	@DEBUG_VALUE: size <- $r5
	@DEBUG_VALUE: read_size <- [DW_OP_plus_uconst 16] [$sp+0]
	@DEBUG_VALUE: fal:i <- 0
	@DEBUG_VALUE: fal:j <- 0
	.loc	1 0 21 is_stmt 0                @ packages/fal-v0.5.0/src/fal_rtt.c:0:21
	movs	r4, #0
	mov	r1, r8
.Ltmp343:
.LBB8_106:                              @ =>This Inner Loop Header: Depth=1
	@DEBUG_VALUE: read_data <- [DW_OP_plus_uconst 12] [$sp+0]
	@DEBUG_VALUE: start_time <- $r9
	@DEBUG_VALUE: write_size <- $r7
	@DEBUG_VALUE: write_data <- $r6
	@DEBUG_VALUE: size <- $r5
	@DEBUG_VALUE: read_size <- [DW_OP_plus_uconst 16] [$sp+0]
	@DEBUG_VALUE: fal:j <- 0
	@DEBUG_VALUE: fal:i <- $r4
	@DEBUG_VALUE: fal:result <- $r1
	.loc	1 837 29 is_stmt 1              @ packages/fal-v0.5.0/src/fal_rtt.c:837:29
	ldr.w	r0, [r10]
.Ltmp344:
	.loc	1 837 29 is_stmt 0              @ packages/fal-v0.5.0/src/fal_rtt.c:837:29
	cbz	r0, .LBB8_108
.Ltmp345:
@ %bb.107:                              @   in Loop: Header=BB8_106 Depth=1
	@DEBUG_VALUE: read_data <- [DW_OP_plus_uconst 12] [$sp+0]
	@DEBUG_VALUE: start_time <- $r9
	@DEBUG_VALUE: write_size <- $r7
	@DEBUG_VALUE: write_data <- $r6
	@DEBUG_VALUE: size <- $r5
	@DEBUG_VALUE: fal:i <- $r4
	@DEBUG_VALUE: fal:result <- $r1
	@DEBUG_VALUE: read_size <- [DW_OP_plus_uconst 16] [$sp+0]
	@DEBUG_VALUE: fal:j <- 0
	.loc	1 839 53 is_stmt 1              @ packages/fal-v0.5.0/src/fal_rtt.c:839:53
	ldr	r3, [r0, #44]
	.loc	1 839 38 is_stmt 0              @ packages/fal-v0.5.0/src/fal_rtt.c:839:38
	mov	r0, r4
	mov	r1, r6
.Ltmp346:
	mov	r2, r7
	blx	r3
	b	.LBB8_110
.Ltmp347:
.LBB8_108:                              @   in Loop: Header=BB8_106 Depth=1
	@DEBUG_VALUE: read_data <- [DW_OP_plus_uconst 12] [$sp+0]
	@DEBUG_VALUE: start_time <- $r9
	@DEBUG_VALUE: write_size <- $r7
	@DEBUG_VALUE: write_data <- $r6
	@DEBUG_VALUE: size <- $r5
	@DEBUG_VALUE: fal:i <- $r4
	@DEBUG_VALUE: fal:result <- $r1
	@DEBUG_VALUE: read_size <- [DW_OP_plus_uconst 16] [$sp+0]
	@DEBUG_VALUE: fal:j <- 0
	.loc	1 841 34 is_stmt 1              @ packages/fal-v0.5.0/src/fal_rtt.c:841:34
	ldr.w	r0, [r11]
.Ltmp348:
	.loc	1 841 34 is_stmt 0              @ packages/fal-v0.5.0/src/fal_rtt.c:841:34
	cbz	r0, .LBB8_111
.Ltmp349:
@ %bb.109:                              @   in Loop: Header=BB8_106 Depth=1
	@DEBUG_VALUE: read_data <- [DW_OP_plus_uconst 12] [$sp+0]
	@DEBUG_VALUE: start_time <- $r9
	@DEBUG_VALUE: write_size <- $r7
	@DEBUG_VALUE: write_data <- $r6
	@DEBUG_VALUE: size <- $r5
	@DEBUG_VALUE: fal:i <- $r4
	@DEBUG_VALUE: fal:result <- $r1
	@DEBUG_VALUE: read_size <- [DW_OP_plus_uconst 16] [$sp+0]
	@DEBUG_VALUE: fal:j <- 0
	.loc	1 843 38 is_stmt 1              @ packages/fal-v0.5.0/src/fal_rtt.c:843:38
	mov	r1, r4
.Ltmp350:
	mov	r2, r6
	mov	r3, r7
	bl	fal_partition_write
.Ltmp351:
.LBB8_110:                              @   in Loop: Header=BB8_106 Depth=1
	@DEBUG_VALUE: read_data <- [DW_OP_plus_uconst 12] [$sp+0]
	@DEBUG_VALUE: start_time <- $r9
	@DEBUG_VALUE: write_size <- $r7
	@DEBUG_VALUE: write_data <- $r6
	@DEBUG_VALUE: size <- $r5
	@DEBUG_VALUE: fal:i <- $r4
	@DEBUG_VALUE: read_size <- [DW_OP_plus_uconst 16] [$sp+0]
	@DEBUG_VALUE: fal:j <- 0
	.loc	1 0 0 is_stmt 0                 @ packages/fal-v0.5.0/src/fal_rtt.c:0:0
	mov	r1, r0
.Ltmp352:
	@DEBUG_VALUE: fal:result <- $r1
.LBB8_111:                              @   in Loop: Header=BB8_106 Depth=1
	@DEBUG_VALUE: read_data <- [DW_OP_plus_uconst 12] [$sp+0]
	@DEBUG_VALUE: start_time <- $r9
	@DEBUG_VALUE: write_size <- $r7
	@DEBUG_VALUE: write_data <- $r6
	@DEBUG_VALUE: size <- $r5
	@DEBUG_VALUE: fal:i <- $r4
	@DEBUG_VALUE: fal:result <- $r1
	@DEBUG_VALUE: read_size <- [DW_OP_plus_uconst 16] [$sp+0]
	@DEBUG_VALUE: fal:j <- 0
	@DEBUG_VALUE: fal:i <- undef
	@DEBUG_VALUE: fal:result <- $r1
	.loc	1 845 29 is_stmt 1              @ packages/fal-v0.5.0/src/fal_rtt.c:845:29
	cmp	r1, #0
	bmi	.LBB8_114
.Ltmp353:
@ %bb.112:                              @   in Loop: Header=BB8_106 Depth=1
	@DEBUG_VALUE: read_data <- [DW_OP_plus_uconst 12] [$sp+0]
	@DEBUG_VALUE: start_time <- $r9
	@DEBUG_VALUE: write_size <- $r7
	@DEBUG_VALUE: write_data <- $r6
	@DEBUG_VALUE: size <- $r5
	@DEBUG_VALUE: fal:result <- $r1
	@DEBUG_VALUE: read_size <- [DW_OP_plus_uconst 16] [$sp+0]
	@DEBUG_VALUE: fal:j <- 0
	.loc	1 0 0 is_stmt 0                 @ packages/fal-v0.5.0/src/fal_rtt.c:0:0
	add	r4, r7
.Ltmp354:
	@DEBUG_VALUE: fal:i <- $r4
	.loc	1 845 29                        @ packages/fal-v0.5.0/src/fal_rtt.c:845:29
	cmp	r4, r5
	blo	.LBB8_106
	b	.LBB8_114
.Ltmp355:
.LBB8_113:
	@DEBUG_VALUE: read_data <- [DW_OP_plus_uconst 12] [$sp+0]
	@DEBUG_VALUE: start_time <- $r9
	@DEBUG_VALUE: fal:result <- $r8
	@DEBUG_VALUE: write_size <- $r7
	@DEBUG_VALUE: write_data <- $r6
	@DEBUG_VALUE: size <- $r5
	@DEBUG_VALUE: read_size <- [DW_OP_plus_uconst 16] [$sp+0]
	@DEBUG_VALUE: fal:i <- 0
	@DEBUG_VALUE: fal:j <- 0
	.loc	1 0 29                          @ packages/fal-v0.5.0/src/fal_rtt.c:0:29
	mov	r1, r8
.Ltmp356:
.LBB8_114:
	@DEBUG_VALUE: read_data <- [DW_OP_plus_uconst 12] [$sp+0]
	@DEBUG_VALUE: start_time <- $r9
	@DEBUG_VALUE: write_size <- $r7
	@DEBUG_VALUE: write_data <- $r6
	@DEBUG_VALUE: size <- $r5
	@DEBUG_VALUE: read_size <- [DW_OP_plus_uconst 16] [$sp+0]
	@DEBUG_VALUE: fal:j <- 0
	@DEBUG_VALUE: fal:result <- $r1
	.loc	1 850 25 is_stmt 1              @ packages/fal-v0.5.0/src/fal_rtt.c:850:25
	cmp	r1, #0
	bmi	.LBB8_116
.Ltmp357:
@ %bb.115:
	@DEBUG_VALUE: read_data <- [DW_OP_plus_uconst 12] [$sp+0]
	@DEBUG_VALUE: start_time <- $r9
	@DEBUG_VALUE: write_size <- $r7
	@DEBUG_VALUE: write_data <- $r6
	@DEBUG_VALUE: size <- $r5
	@DEBUG_VALUE: fal:result <- $r1
	@DEBUG_VALUE: read_size <- [DW_OP_plus_uconst 16] [$sp+0]
	@DEBUG_VALUE: fal:j <- 0
	.loc	1 0 25 is_stmt 0                @ packages/fal-v0.5.0/src/fal_rtt.c:0:25
	mov	r4, r9
.Ltmp358:
	@DEBUG_VALUE: start_time <- $r4
	mov	r9, r1
.Ltmp359:
	@DEBUG_VALUE: fal:result <- $r9
	.loc	1 852 37 is_stmt 1              @ packages/fal-v0.5.0/src/fal_rtt.c:852:37
	bl	rt_tick_get
	.loc	1 853 98                        @ packages/fal-v0.5.0/src/fal_rtt.c:853:98
	movw	r1, #19923
	.loc	1 852 51                        @ packages/fal-v0.5.0/src/fal_rtt.c:852:51
	subs	r0, r0, r4
.Ltmp360:
	@DEBUG_VALUE: time_cast <- $r0
	.loc	1 853 98                        @ packages/fal-v0.5.0/src/fal_rtt.c:853:98
	movt	r1, #4194
	umull	r1, r2, r0, r1
	lsrs	r1, r2, #6
	mov.w	r2, #1000
	mls	r2, r1, r2, r0
	.loc	1 853 25 is_stmt 0              @ packages/fal-v0.5.0/src/fal_rtt.c:853:25
	movw	r0, :lower16:.L.str.51
.Ltmp361:
	movt	r0, :upper16:.L.str.51
	bl	rt_kprintf
	b	.LBB8_117
.Ltmp362:
.LBB8_116:
	@DEBUG_VALUE: read_data <- [DW_OP_plus_uconst 12] [$sp+0]
	@DEBUG_VALUE: start_time <- $r9
	@DEBUG_VALUE: write_size <- $r7
	@DEBUG_VALUE: write_data <- $r6
	@DEBUG_VALUE: size <- $r5
	@DEBUG_VALUE: fal:result <- $r1
	@DEBUG_VALUE: read_size <- [DW_OP_plus_uconst 16] [$sp+0]
	@DEBUG_VALUE: fal:j <- 0
	.loc	1 858 25 is_stmt 1              @ packages/fal-v0.5.0/src/fal_rtt.c:858:25
	movw	r0, :lower16:.L.str.52
	mov	r9, r1
.Ltmp363:
	movt	r0, :upper16:.L.str.52
	bl	rt_kprintf
.Ltmp364:
.LBB8_117:
	@DEBUG_VALUE: read_data <- [DW_OP_plus_uconst 12] [$sp+0]
	@DEBUG_VALUE: write_size <- $r7
	@DEBUG_VALUE: write_data <- $r6
	@DEBUG_VALUE: size <- $r5
	@DEBUG_VALUE: read_size <- [DW_OP_plus_uconst 16] [$sp+0]
	@DEBUG_VALUE: fal:j <- 0
	.loc	1 861 21                        @ packages/fal-v0.5.0/src/fal_rtt.c:861:21
	movw	r0, :lower16:.L.str.53
	mov	r1, r5
	movt	r0, :upper16:.L.str.53
	bl	rt_kprintf
	mov.w	r8, #0
	.loc	1 862 34                        @ packages/fal-v0.5.0/src/fal_rtt.c:862:34
	bl	rt_tick_get
.Ltmp365:
	.loc	1 0 0 is_stmt 0                 @ packages/fal-v0.5.0/src/fal_rtt.c:0:0
	ldr	r7, [sp, #16]                   @ 4-byte Reload
.Ltmp366:
	movs	r4, #0
	mov	r2, r9
.Ltmp367:
	.loc	1 862 34                        @ packages/fal-v0.5.0/src/fal_rtt.c:862:34
	str	r0, [sp, #4]                    @ 4-byte Spill
.Ltmp368:
	@DEBUG_VALUE: start_time <- [DW_OP_plus_uconst 4] [$sp+0]
	@DEBUG_VALUE: fal:i <- 0
	.loc	1 0 34                          @ packages/fal-v0.5.0/src/fal_rtt.c:0:34
	str	r5, [sp, #8]                    @ 4-byte Spill
	b	.LBB8_119
.Ltmp369:
.LBB8_118:                              @   in Loop: Header=BB8_119 Depth=1
	@DEBUG_VALUE: write_data <- $r6
	@DEBUG_VALUE: fal:i <- $r4
	@DEBUG_VALUE: start_time <- [DW_OP_plus_uconst 4] [$sp+0]
	@DEBUG_VALUE: read_size <- [DW_OP_plus_uconst 16] [$sp+0]
	@DEBUG_VALUE: fal:j <- 0
	ldr	r0, [sp, #16]                   @ 4-byte Reload
.Ltmp370:
	.loc	1 888 29 is_stmt 1              @ packages/fal-v0.5.0/src/fal_rtt.c:888:29
	cmp.w	r2, #-1
.Ltmp371:
	.loc	1 0 0 is_stmt 0                 @ packages/fal-v0.5.0/src/fal_rtt.c:0:0
	add	r4, r0
.Ltmp372:
	@DEBUG_VALUE: fal:result <- $r2
	.loc	1 888 29                        @ packages/fal-v0.5.0/src/fal_rtt.c:888:29
	add	r7, r0
	sub.w	r8, r8, r0
	ldr	r5, [sp, #8]                    @ 4-byte Reload
	ble	.LBB8_127
.Ltmp373:
.LBB8_119:                              @ =>This Inner Loop Header: Depth=1
	@DEBUG_VALUE: write_data <- $r6
	@DEBUG_VALUE: start_time <- [DW_OP_plus_uconst 4] [$sp+0]
	@DEBUG_VALUE: read_size <- [DW_OP_plus_uconst 16] [$sp+0]
	@DEBUG_VALUE: fal:j <- 0
	@DEBUG_VALUE: fal:i <- $r4
	@DEBUG_VALUE: fal:result <- $r2
	.loc	1 863 35 is_stmt 1              @ packages/fal-v0.5.0/src/fal_rtt.c:863:35
	mov	r0, r7
	cmp	r5, r7
	it	lo
	movlo	r0, r5
.Ltmp374:
	.loc	1 863 21 is_stmt 0              @ packages/fal-v0.5.0/src/fal_rtt.c:863:21
	cmp	r5, r4
	bls	.LBB8_127
.Ltmp375:
@ %bb.120:                              @   in Loop: Header=BB8_119 Depth=1
	@DEBUG_VALUE: write_data <- $r6
	@DEBUG_VALUE: fal:i <- $r4
	@DEBUG_VALUE: fal:result <- $r2
	@DEBUG_VALUE: start_time <- [DW_OP_plus_uconst 4] [$sp+0]
	@DEBUG_VALUE: read_size <- [DW_OP_plus_uconst 16] [$sp+0]
	@DEBUG_VALUE: fal:j <- 0
	.loc	1 873 29 is_stmt 1              @ packages/fal-v0.5.0/src/fal_rtt.c:873:29
	ldr.w	r1, [r10]
.Ltmp376:
	.loc	1 0 0 is_stmt 0                 @ packages/fal-v0.5.0/src/fal_rtt.c:0:0
	add.w	r5, r0, r8
.Ltmp377:
	@DEBUG_VALUE: cur_read_size <- undef
	.loc	1 873 29                        @ packages/fal-v0.5.0/src/fal_rtt.c:873:29
	cbz	r1, .LBB8_122
.Ltmp378:
@ %bb.121:                              @   in Loop: Header=BB8_119 Depth=1
	@DEBUG_VALUE: write_data <- $r6
	@DEBUG_VALUE: fal:i <- $r4
	@DEBUG_VALUE: fal:result <- $r2
	@DEBUG_VALUE: start_time <- [DW_OP_plus_uconst 4] [$sp+0]
	@DEBUG_VALUE: read_size <- [DW_OP_plus_uconst 16] [$sp+0]
	@DEBUG_VALUE: fal:j <- 0
	.loc	1 0 29                          @ packages/fal-v0.5.0/src/fal_rtt.c:0:29
	ldr.w	r9, [sp, #12]                   @ 4-byte Reload
.Ltmp379:
	@DEBUG_VALUE: read_data <- $r9
	.loc	1 875 53 is_stmt 1              @ packages/fal-v0.5.0/src/fal_rtt.c:875:53
	ldr	r3, [r1, #40]
	.loc	1 875 38 is_stmt 0              @ packages/fal-v0.5.0/src/fal_rtt.c:875:38
	mov	r0, r4
	mov	r1, r9
	mov	r2, r5
.Ltmp380:
	blx	r3
	b	.LBB8_124
.Ltmp381:
.LBB8_122:                              @   in Loop: Header=BB8_119 Depth=1
	@DEBUG_VALUE: write_data <- $r6
	@DEBUG_VALUE: fal:i <- $r4
	@DEBUG_VALUE: fal:result <- $r2
	@DEBUG_VALUE: start_time <- [DW_OP_plus_uconst 4] [$sp+0]
	@DEBUG_VALUE: read_size <- [DW_OP_plus_uconst 16] [$sp+0]
	@DEBUG_VALUE: fal:j <- 0
	.loc	1 877 34 is_stmt 1              @ packages/fal-v0.5.0/src/fal_rtt.c:877:34
	ldr.w	r0, [r11]
	ldr.w	r9, [sp, #12]                   @ 4-byte Reload
.Ltmp382:
	@DEBUG_VALUE: read_data <- $r9
	.loc	1 877 34 is_stmt 0              @ packages/fal-v0.5.0/src/fal_rtt.c:877:34
	cbz	r0, .LBB8_125
.Ltmp383:
@ %bb.123:                              @   in Loop: Header=BB8_119 Depth=1
	@DEBUG_VALUE: write_data <- $r6
	@DEBUG_VALUE: fal:i <- $r4
	@DEBUG_VALUE: fal:result <- $r2
	@DEBUG_VALUE: start_time <- [DW_OP_plus_uconst 4] [$sp+0]
	@DEBUG_VALUE: read_size <- [DW_OP_plus_uconst 16] [$sp+0]
	@DEBUG_VALUE: fal:j <- 0
	.loc	1 879 38 is_stmt 1              @ packages/fal-v0.5.0/src/fal_rtt.c:879:38
	mov	r1, r4
	mov	r2, r9
.Ltmp384:
	mov	r3, r5
	bl	fal_partition_read
.Ltmp385:
.LBB8_124:                              @   in Loop: Header=BB8_119 Depth=1
	@DEBUG_VALUE: write_data <- $r6
	@DEBUG_VALUE: fal:i <- $r4
	@DEBUG_VALUE: start_time <- [DW_OP_plus_uconst 4] [$sp+0]
	@DEBUG_VALUE: read_size <- [DW_OP_plus_uconst 16] [$sp+0]
	@DEBUG_VALUE: fal:j <- 0
	.loc	1 0 0 is_stmt 0                 @ packages/fal-v0.5.0/src/fal_rtt.c:0:0
	mov	r2, r0
.Ltmp386:
	@DEBUG_VALUE: fal:result <- $r2
.LBB8_125:                              @   in Loop: Header=BB8_119 Depth=1
	@DEBUG_VALUE: write_data <- $r6
	@DEBUG_VALUE: fal:i <- $r4
	@DEBUG_VALUE: fal:result <- $r2
	@DEBUG_VALUE: start_time <- [DW_OP_plus_uconst 4] [$sp+0]
	@DEBUG_VALUE: read_size <- [DW_OP_plus_uconst 16] [$sp+0]
	@DEBUG_VALUE: fal:j <- 0
	@DEBUG_VALUE: fal:result <- $r2
	mov	r0, r6
.Ltmp387:
	.loc	1 882 29 is_stmt 1              @ packages/fal-v0.5.0/src/fal_rtt.c:882:29
	mov	r1, r9
	mov	r9, r2
.Ltmp388:
	@DEBUG_VALUE: fal:result <- $r9
	@DEBUG_VALUE: fal:result <- $r9
	@DEBUG_VALUE: fal:result <- $r9
	mov	r2, r5
	bl	memcmp
	mov	r2, r9
.Ltmp389:
	@DEBUG_VALUE: fal:result <- $r2
	.loc	1 882 29 is_stmt 0              @ packages/fal-v0.5.0/src/fal_rtt.c:882:29
	cmp	r0, #0
	beq	.LBB8_118
.Ltmp390:
@ %bb.126:                              @   in Loop: Header=BB8_119 Depth=1
	@DEBUG_VALUE: write_data <- $r6
	@DEBUG_VALUE: fal:i <- $r4
	@DEBUG_VALUE: fal:result <- $r2
	@DEBUG_VALUE: start_time <- [DW_OP_plus_uconst 4] [$sp+0]
	@DEBUG_VALUE: read_size <- [DW_OP_plus_uconst 16] [$sp+0]
	@DEBUG_VALUE: fal:j <- 0
	@DEBUG_VALUE: fal:result <- -1
	.loc	1 885 29 is_stmt 1              @ packages/fal-v0.5.0/src/fal_rtt.c:885:29
	movw	r0, :lower16:.L.str.54
	movt	r0, :upper16:.L.str.54
	bl	rt_kprintf
	mov.w	r2, #-1
	b	.LBB8_118
.Ltmp391:
.LBB8_127:
	@DEBUG_VALUE: write_data <- $r6
	@DEBUG_VALUE: fal:result <- $r2
	@DEBUG_VALUE: start_time <- [DW_OP_plus_uconst 4] [$sp+0]
	@DEBUG_VALUE: read_size <- [DW_OP_plus_uconst 16] [$sp+0]
	@DEBUG_VALUE: fal:j <- 0
	@DEBUG_VALUE: fal:result <- $r2
	.loc	1 0 29 is_stmt 0                @ packages/fal-v0.5.0/src/fal_rtt.c:0:29
	mov	r9, r6
.Ltmp392:
	@DEBUG_VALUE: write_data <- $r9
	.loc	1 893 25 is_stmt 1              @ packages/fal-v0.5.0/src/fal_rtt.c:893:25
	cmp	r2, #0
	bmi	.LBB8_129
.Ltmp393:
@ %bb.128:
	@DEBUG_VALUE: write_data <- $r9
	@DEBUG_VALUE: fal:result <- $r2
	@DEBUG_VALUE: start_time <- [DW_OP_plus_uconst 4] [$sp+0]
	@DEBUG_VALUE: read_size <- [DW_OP_plus_uconst 16] [$sp+0]
	@DEBUG_VALUE: fal:j <- 0
	.loc	1 0 25 is_stmt 0                @ packages/fal-v0.5.0/src/fal_rtt.c:0:25
	mov	r4, r2
.Ltmp394:
	@DEBUG_VALUE: fal:result <- $r4
	.loc	1 895 37 is_stmt 1              @ packages/fal-v0.5.0/src/fal_rtt.c:895:37
	bl	rt_tick_get
	.loc	1 895 51 is_stmt 0              @ packages/fal-v0.5.0/src/fal_rtt.c:895:51
	ldr	r1, [sp, #4]                    @ 4-byte Reload
	subs	r0, r0, r1
.Ltmp395:
	@DEBUG_VALUE: time_cast <- $r0
	.loc	1 896 97 is_stmt 1              @ packages/fal-v0.5.0/src/fal_rtt.c:896:97
	movw	r1, #19923
	movt	r1, #4194
	umull	r1, r2, r0, r1
	lsrs	r1, r2, #6
	mov.w	r2, #1000
	mls	r2, r1, r2, r0
	.loc	1 896 25 is_stmt 0              @ packages/fal-v0.5.0/src/fal_rtt.c:896:25
	movw	r0, :lower16:.L.str.55
.Ltmp396:
	movt	r0, :upper16:.L.str.55
	bl	rt_kprintf
	b	.LBB8_130
.Ltmp397:
.LBB8_129:
	@DEBUG_VALUE: write_data <- $r9
	@DEBUG_VALUE: fal:result <- $r2
	@DEBUG_VALUE: start_time <- [DW_OP_plus_uconst 4] [$sp+0]
	@DEBUG_VALUE: read_size <- [DW_OP_plus_uconst 16] [$sp+0]
	@DEBUG_VALUE: fal:j <- 0
	.loc	1 901 25 is_stmt 1              @ packages/fal-v0.5.0/src/fal_rtt.c:901:25
	movw	r0, :lower16:.L.str.56
	mov	r1, r2
	movt	r0, :upper16:.L.str.56
	mov	r4, r2
.Ltmp398:
	@DEBUG_VALUE: fal:result <- $r4
	bl	rt_kprintf
.Ltmp399:
.LBB8_130:
	@DEBUG_VALUE: write_data <- $r9
	@DEBUG_VALUE: fal:result <- $r4
	@DEBUG_VALUE: start_time <- [DW_OP_plus_uconst 4] [$sp+0]
	@DEBUG_VALUE: read_size <- [DW_OP_plus_uconst 16] [$sp+0]
	@DEBUG_VALUE: fal:j <- 0
	.loc	1 0 25 is_stmt 0                @ packages/fal-v0.5.0/src/fal_rtt.c:0:25
	ldr	r6, [sp, #12]                   @ 4-byte Reload
.Ltmp400:
.LBB8_131:
	@DEBUG_VALUE: write_data <- $r9
	@DEBUG_VALUE: read_size <- [DW_OP_plus_uconst 16] [$sp+0]
	@DEBUG_VALUE: fal:j <- 0
	@DEBUG_VALUE: fal:result <- $r4
	.loc	1 908 17 is_stmt 1              @ packages/fal-v0.5.0/src/fal_rtt.c:908:17
	mov	r0, r9
	bl	rt_free
	.loc	1 909 17                        @ packages/fal-v0.5.0/src/fal_rtt.c:909:17
	mov	r0, r6
	bl	rt_free
	mov	r2, r4
.Ltmp401:
	@DEBUG_VALUE: fal:result <- $r2
	.loc	1 0 17 is_stmt 0                @ packages/fal-v0.5.0/src/fal_rtt.c:0:17
	b	.LBB8_87
.Ltmp402:
.LBB8_132:
	@DEBUG_VALUE: write_data <- $r9
	@DEBUG_VALUE: write_size <- $r7
	@DEBUG_VALUE: read_data <- $r6
	@DEBUG_VALUE: fal:argc <- $r5
	@DEBUG_VALUE: read_size <- [DW_OP_plus_uconst 16] [$sp+0]
	@DEBUG_VALUE: fal:i <- 0
	@DEBUG_VALUE: fal:j <- 0
                                        @ implicit-def: $r5
	b	.LBB8_96
.Ltmp403:
.LBB8_133:
	@DEBUG_VALUE: write_data <- $r9
	@DEBUG_VALUE: write_size <- $r7
	@DEBUG_VALUE: read_data <- $r6
	@DEBUG_VALUE: size <- $r5
	@DEBUG_VALUE: start_time <- $r4
	@DEBUG_VALUE: read_size <- [DW_OP_plus_uconst 16] [$sp+0]
	@DEBUG_VALUE: fal:i <- 0
	@DEBUG_VALUE: fal:j <- 0
                                        @ implicit-def: $r1
	b	.LBB8_101
.Ltmp404:
	.p2align	2
@ %bb.134:
.LCPI8_0:
.L.str.18:
	.asciz	"\n[Warning] FAL is not initialized or failed to initialize!\n\n\000\000\000"
.LCPI8_1:
.L.str.22:
	.asciz	"probe\000\000"
.LCPI8_2:
.L.str.29:
	.asciz	"read\000\000\000"
.LCPI8_3:
.L.str.37:
	.asciz	"write\000\000"
.LCPI8_4:
.L.str.42:
	.asciz	"erase\000\000"
.LCPI8_5:
.L.str.44:
	.asciz	"bench\000\000"
.LCPI8_6:
.L.str.45:
	.asciz	"yes"
.LCPI8_7:
.L.str.47:
	.asciz	"Erasing %ld bytes data, waiting...\n"
.LCPI8_8:
.L.str.39:
	.asciz	"Write data: \000\000\000"
.LCPI8_9:
.L.str.40:
	.asciz	"%d "
.LCPI8_10:
.L.str.41:
	.asciz	".\n\000"
.LCPI8_11:
.L.str.34:
	.asciz	"   "
.LCPI8_12:
.L.str.35:
	.asciz	"%c\000"
.Lfunc_end8:
	.size	fal, .Lfunc_end8-fal
	.cfi_endproc
	.cantunwind
	.fnend
                                        @ -- End function
	.section	.text.mtd_nor_dev_read,"ax",%progbits
	.p2align	3                               @ -- Begin function mtd_nor_dev_read
	.type	mtd_nor_dev_read,%function
	.code	16                              @ @mtd_nor_dev_read
	.thumb_func
mtd_nor_dev_read:
.Lfunc_begin9:
	.loc	1 229 0 is_stmt 1               @ packages/fal-v0.5.0/src/fal_rtt.c:229:0
	.fnstart
	.cfi_startproc
@ %bb.0:
	@DEBUG_VALUE: mtd_nor_dev_read:device <- $r0
	@DEBUG_VALUE: mtd_nor_dev_read:device <- $r0
	@DEBUG_VALUE: mtd_nor_dev_read:offset <- $r1
	@DEBUG_VALUE: mtd_nor_dev_read:data <- $r2
	@DEBUG_VALUE: mtd_nor_dev_read:length <- $r3
	.save	{r4, lr}
	push	{r4, lr}
	.cfi_def_cfa_offset 8
	.cfi_offset lr, -4
	.cfi_offset r4, -8
.Ltmp405:
	@DEBUG_VALUE: mtd_nor_dev_read:part <- $r0
	@DEBUG_VALUE: mtd_nor_dev_read:part <- $r0
	@DEBUG_VALUE: mtd_nor_dev_read:ret <- 0
	@DEBUG_VALUE: mtd_nor_dev_read:length <- $r3
	@DEBUG_VALUE: mtd_nor_dev_read:data <- $r2
	@DEBUG_VALUE: mtd_nor_dev_read:offset <- $r1
	.loc	1 233 5 prologue_end            @ packages/fal-v0.5.0/src/fal_rtt.c:233:5
	cbz	r0, .LBB9_2
.Ltmp406:
@ %bb.1:
	@DEBUG_VALUE: mtd_nor_dev_read:length <- $r3
	@DEBUG_VALUE: mtd_nor_dev_read:data <- $r2
	@DEBUG_VALUE: mtd_nor_dev_read:offset <- $r1
	@DEBUG_VALUE: mtd_nor_dev_read:part <- $r0
	@DEBUG_VALUE: mtd_nor_dev_read:device <- $r0
	@DEBUG_VALUE: mtd_nor_dev_read:ret <- 0
	.loc	1 235 36                        @ packages/fal-v0.5.0/src/fal_rtt.c:235:36
	ldr	r0, [r0, #96]
.Ltmp407:
	@DEBUG_VALUE: mtd_nor_dev_read:device <- [DW_OP_LLVM_entry_value 1] $r0
	.loc	1 0 36 is_stmt 0                @ packages/fal-v0.5.0/src/fal_rtt.c:0:36
	mov	r4, r3
.Ltmp408:
	@DEBUG_VALUE: mtd_nor_dev_read:length <- $r4
	@DEBUG_VALUE: mtd_nor_dev_read:part <- $r0
	.loc	1 235 11                        @ packages/fal-v0.5.0/src/fal_rtt.c:235:11
	bl	fal_partition_read
.Ltmp409:
	@DEBUG_VALUE: mtd_nor_dev_read:data <- [DW_OP_LLVM_entry_value 1] $r2
	@DEBUG_VALUE: mtd_nor_dev_read:offset <- [DW_OP_LLVM_entry_value 1] $r1
	@DEBUG_VALUE: mtd_nor_dev_read:ret <- $r0
	.loc	1 237 9 is_stmt 1               @ packages/fal-v0.5.0/src/fal_rtt.c:237:9
	cmp	r0, r4
	it	ne
	movne	r0, #0
.Ltmp410:
	@DEBUG_VALUE: mtd_nor_dev_read:ret <- $r0
	.loc	1 246 5                         @ packages/fal-v0.5.0/src/fal_rtt.c:246:5
	pop	{r4, pc}
.Ltmp411:
.LBB9_2:
	@DEBUG_VALUE: mtd_nor_dev_read:length <- $r3
	@DEBUG_VALUE: mtd_nor_dev_read:data <- $r2
	@DEBUG_VALUE: mtd_nor_dev_read:offset <- $r1
	@DEBUG_VALUE: mtd_nor_dev_read:part <- $r0
	@DEBUG_VALUE: mtd_nor_dev_read:device <- $r0
	@DEBUG_VALUE: mtd_nor_dev_read:ret <- 0
	.loc	1 233 5                         @ packages/fal-v0.5.0/src/fal_rtt.c:233:5
	movw	r0, :lower16:.L.str.11
.Ltmp412:
	@DEBUG_VALUE: mtd_nor_dev_read:device <- [DW_OP_LLVM_entry_value 1] $r0
	movw	r1, :lower16:.L.str.12
.Ltmp413:
	@DEBUG_VALUE: mtd_nor_dev_read:offset <- [DW_OP_LLVM_entry_value 1] $r1
	movt	r0, :upper16:.L.str.11
	movt	r1, :upper16:.L.str.12
	adr	r2, .LCPI9_0
.Ltmp414:
	@DEBUG_VALUE: mtd_nor_dev_read:data <- [DW_OP_LLVM_entry_value 1] $r2
	bl	rt_kprintf
.Ltmp415:
	@DEBUG_VALUE: mtd_nor_dev_read:length <- [DW_OP_LLVM_entry_value 1] $r3
	.p2align	2
.LBB9_3:                                @ =>This Inner Loop Header: Depth=1
	@DEBUG_VALUE: mtd_nor_dev_read:length <- [DW_OP_LLVM_entry_value 1] $r3
	@DEBUG_VALUE: mtd_nor_dev_read:data <- [DW_OP_LLVM_entry_value 1] $r2
	@DEBUG_VALUE: mtd_nor_dev_read:offset <- [DW_OP_LLVM_entry_value 1] $r1
	@DEBUG_VALUE: mtd_nor_dev_read:device <- [DW_OP_LLVM_entry_value 1] $r0
	@DEBUG_VALUE: mtd_nor_dev_read:ret <- 0
	b	.LBB9_3
.Ltmp416:
	.p2align	2
@ %bb.4:
	.loc	1 0 5 is_stmt 0                 @ packages/fal-v0.5.0/src/fal_rtt.c:0:5
.LCPI9_0:
.L__FUNCTION__.mtd_nor_dev_read:
	.asciz	"mtd_nor_dev_read\000\000\000"
.Lfunc_end9:
	.size	mtd_nor_dev_read, .Lfunc_end9-mtd_nor_dev_read
	.cfi_endproc
	.cantunwind
	.fnend
                                        @ -- End function
	.section	.text.mtd_nor_dev_write,"ax",%progbits
	.p2align	3                               @ -- Begin function mtd_nor_dev_write
	.type	mtd_nor_dev_write,%function
	.code	16                              @ @mtd_nor_dev_write
	.thumb_func
mtd_nor_dev_write:
.Lfunc_begin10:
	.loc	1 250 0 is_stmt 1               @ packages/fal-v0.5.0/src/fal_rtt.c:250:0
	.fnstart
	.cfi_startproc
@ %bb.0:
	@DEBUG_VALUE: mtd_nor_dev_write:device <- $r0
	@DEBUG_VALUE: mtd_nor_dev_write:device <- $r0
	@DEBUG_VALUE: mtd_nor_dev_write:offset <- $r1
	@DEBUG_VALUE: mtd_nor_dev_write:data <- $r2
	@DEBUG_VALUE: mtd_nor_dev_write:length <- $r3
	.save	{r4, lr}
	push	{r4, lr}
	.cfi_def_cfa_offset 8
	.cfi_offset lr, -4
	.cfi_offset r4, -8
.Ltmp417:
	@DEBUG_VALUE: mtd_nor_dev_write:part <- $r0
	@DEBUG_VALUE: mtd_nor_dev_write:part <- $r0
	@DEBUG_VALUE: mtd_nor_dev_write:ret <- 0
	@DEBUG_VALUE: mtd_nor_dev_write:length <- $r3
	@DEBUG_VALUE: mtd_nor_dev_write:data <- $r2
	@DEBUG_VALUE: mtd_nor_dev_write:offset <- $r1
	.loc	1 255 5 prologue_end            @ packages/fal-v0.5.0/src/fal_rtt.c:255:5
	cbz	r0, .LBB10_2
.Ltmp418:
@ %bb.1:
	@DEBUG_VALUE: mtd_nor_dev_write:length <- $r3
	@DEBUG_VALUE: mtd_nor_dev_write:data <- $r2
	@DEBUG_VALUE: mtd_nor_dev_write:offset <- $r1
	@DEBUG_VALUE: mtd_nor_dev_write:part <- $r0
	@DEBUG_VALUE: mtd_nor_dev_write:device <- $r0
	@DEBUG_VALUE: mtd_nor_dev_write:ret <- 0
	.loc	1 257 37                        @ packages/fal-v0.5.0/src/fal_rtt.c:257:37
	ldr	r0, [r0, #96]
.Ltmp419:
	@DEBUG_VALUE: mtd_nor_dev_write:device <- [DW_OP_LLVM_entry_value 1] $r0
	.loc	1 0 37 is_stmt 0                @ packages/fal-v0.5.0/src/fal_rtt.c:0:37
	mov	r4, r3
.Ltmp420:
	@DEBUG_VALUE: mtd_nor_dev_write:length <- $r4
	@DEBUG_VALUE: mtd_nor_dev_write:part <- $r0
	.loc	1 257 11                        @ packages/fal-v0.5.0/src/fal_rtt.c:257:11
	bl	fal_partition_write
.Ltmp421:
	@DEBUG_VALUE: mtd_nor_dev_write:data <- [DW_OP_LLVM_entry_value 1] $r2
	@DEBUG_VALUE: mtd_nor_dev_write:offset <- [DW_OP_LLVM_entry_value 1] $r1
	@DEBUG_VALUE: mtd_nor_dev_write:ret <- $r0
	.loc	1 259 9 is_stmt 1               @ packages/fal-v0.5.0/src/fal_rtt.c:259:9
	cmp	r0, r4
	it	ne
	movne	r0, #0
.Ltmp422:
	@DEBUG_VALUE: mtd_nor_dev_write:ret <- $r0
	.loc	1 268 5                         @ packages/fal-v0.5.0/src/fal_rtt.c:268:5
	pop	{r4, pc}
.Ltmp423:
.LBB10_2:
	@DEBUG_VALUE: mtd_nor_dev_write:length <- $r3
	@DEBUG_VALUE: mtd_nor_dev_write:data <- $r2
	@DEBUG_VALUE: mtd_nor_dev_write:offset <- $r1
	@DEBUG_VALUE: mtd_nor_dev_write:part <- $r0
	@DEBUG_VALUE: mtd_nor_dev_write:device <- $r0
	@DEBUG_VALUE: mtd_nor_dev_write:ret <- 0
	.loc	1 255 5                         @ packages/fal-v0.5.0/src/fal_rtt.c:255:5
	movw	r0, :lower16:.L.str.11
.Ltmp424:
	@DEBUG_VALUE: mtd_nor_dev_write:device <- [DW_OP_LLVM_entry_value 1] $r0
	movw	r1, :lower16:.L.str.12
.Ltmp425:
	@DEBUG_VALUE: mtd_nor_dev_write:offset <- [DW_OP_LLVM_entry_value 1] $r1
	movt	r0, :upper16:.L.str.11
	movt	r1, :upper16:.L.str.12
	adr	r2, .LCPI10_0
.Ltmp426:
	@DEBUG_VALUE: mtd_nor_dev_write:data <- [DW_OP_LLVM_entry_value 1] $r2
	bl	rt_kprintf
.Ltmp427:
	@DEBUG_VALUE: mtd_nor_dev_write:length <- [DW_OP_LLVM_entry_value 1] $r3
	.p2align	2
.LBB10_3:                               @ =>This Inner Loop Header: Depth=1
	@DEBUG_VALUE: mtd_nor_dev_write:length <- [DW_OP_LLVM_entry_value 1] $r3
	@DEBUG_VALUE: mtd_nor_dev_write:data <- [DW_OP_LLVM_entry_value 1] $r2
	@DEBUG_VALUE: mtd_nor_dev_write:offset <- [DW_OP_LLVM_entry_value 1] $r1
	@DEBUG_VALUE: mtd_nor_dev_write:device <- [DW_OP_LLVM_entry_value 1] $r0
	@DEBUG_VALUE: mtd_nor_dev_write:ret <- 0
	b	.LBB10_3
.Ltmp428:
	.p2align	2
@ %bb.4:
	.loc	1 0 5 is_stmt 0                 @ packages/fal-v0.5.0/src/fal_rtt.c:0:5
.LCPI10_0:
.L__FUNCTION__.mtd_nor_dev_write:
	.asciz	"mtd_nor_dev_write\000\000"
.Lfunc_end10:
	.size	mtd_nor_dev_write, .Lfunc_end10-mtd_nor_dev_write
	.cfi_endproc
	.cantunwind
	.fnend
                                        @ -- End function
	.section	.text.mtd_nor_dev_erase,"ax",%progbits
	.p2align	3                               @ -- Begin function mtd_nor_dev_erase
	.type	mtd_nor_dev_erase,%function
	.code	16                              @ @mtd_nor_dev_erase
	.thumb_func
mtd_nor_dev_erase:
.Lfunc_begin11:
	.loc	1 272 0 is_stmt 1               @ packages/fal-v0.5.0/src/fal_rtt.c:272:0
	.fnstart
	.cfi_startproc
@ %bb.0:
	@DEBUG_VALUE: mtd_nor_dev_erase:device <- $r0
	@DEBUG_VALUE: mtd_nor_dev_erase:device <- $r0
	@DEBUG_VALUE: mtd_nor_dev_erase:offset <- $r1
	@DEBUG_VALUE: mtd_nor_dev_erase:length <- $r2
	.save	{r4, lr}
	push	{r4, lr}
	.cfi_def_cfa_offset 8
	.cfi_offset lr, -4
	.cfi_offset r4, -8
.Ltmp429:
	@DEBUG_VALUE: mtd_nor_dev_erase:part <- $r0
	@DEBUG_VALUE: mtd_nor_dev_erase:part <- $r0
	@DEBUG_VALUE: mtd_nor_dev_erase:ret <- 0
	@DEBUG_VALUE: mtd_nor_dev_erase:length <- $r2
	@DEBUG_VALUE: mtd_nor_dev_erase:offset <- $r1
	.loc	1 277 5 prologue_end            @ packages/fal-v0.5.0/src/fal_rtt.c:277:5
	cbz	r0, .LBB11_2
.Ltmp430:
@ %bb.1:
	@DEBUG_VALUE: mtd_nor_dev_erase:length <- $r2
	@DEBUG_VALUE: mtd_nor_dev_erase:offset <- $r1
	@DEBUG_VALUE: mtd_nor_dev_erase:part <- $r0
	@DEBUG_VALUE: mtd_nor_dev_erase:device <- $r0
	@DEBUG_VALUE: mtd_nor_dev_erase:ret <- 0
	.loc	1 279 37                        @ packages/fal-v0.5.0/src/fal_rtt.c:279:37
	ldr	r0, [r0, #96]
.Ltmp431:
	@DEBUG_VALUE: mtd_nor_dev_erase:device <- [DW_OP_LLVM_entry_value 1] $r0
	.loc	1 0 37 is_stmt 0                @ packages/fal-v0.5.0/src/fal_rtt.c:0:37
	mov	r4, r2
.Ltmp432:
	@DEBUG_VALUE: mtd_nor_dev_erase:length <- $r4
	@DEBUG_VALUE: mtd_nor_dev_erase:part <- $r0
	.loc	1 279 11                        @ packages/fal-v0.5.0/src/fal_rtt.c:279:11
	bl	fal_partition_erase
.Ltmp433:
	@DEBUG_VALUE: mtd_nor_dev_erase:offset <- [DW_OP_LLVM_entry_value 1] $r1
	@DEBUG_VALUE: mtd_nor_dev_erase:ret <- $r0
	.loc	1 281 9 is_stmt 1               @ packages/fal-v0.5.0/src/fal_rtt.c:281:9
	subs	r0, r0, r4
.Ltmp434:
	it	ne
	movne.w	r0, #-1
	.loc	1 289 1                         @ packages/fal-v0.5.0/src/fal_rtt.c:289:1
	pop	{r4, pc}
.Ltmp435:
.LBB11_2:
	@DEBUG_VALUE: mtd_nor_dev_erase:length <- $r2
	@DEBUG_VALUE: mtd_nor_dev_erase:offset <- $r1
	@DEBUG_VALUE: mtd_nor_dev_erase:part <- $r0
	@DEBUG_VALUE: mtd_nor_dev_erase:device <- $r0
	@DEBUG_VALUE: mtd_nor_dev_erase:ret <- 0
	.loc	1 277 5                         @ packages/fal-v0.5.0/src/fal_rtt.c:277:5
	movw	r0, :lower16:.L.str.11
.Ltmp436:
	@DEBUG_VALUE: mtd_nor_dev_erase:device <- [DW_OP_LLVM_entry_value 1] $r0
	movw	r1, :lower16:.L.str.12
.Ltmp437:
	@DEBUG_VALUE: mtd_nor_dev_erase:offset <- [DW_OP_LLVM_entry_value 1] $r1
	movt	r0, :upper16:.L.str.11
	movt	r1, :upper16:.L.str.12
	adr	r2, .LCPI11_0
.Ltmp438:
	@DEBUG_VALUE: mtd_nor_dev_erase:length <- [DW_OP_LLVM_entry_value 1] $r2
	bl	rt_kprintf
.Ltmp439:
	.p2align	2
.LBB11_3:                               @ =>This Inner Loop Header: Depth=1
	@DEBUG_VALUE: mtd_nor_dev_erase:length <- [DW_OP_LLVM_entry_value 1] $r2
	@DEBUG_VALUE: mtd_nor_dev_erase:offset <- [DW_OP_LLVM_entry_value 1] $r1
	@DEBUG_VALUE: mtd_nor_dev_erase:device <- [DW_OP_LLVM_entry_value 1] $r0
	@DEBUG_VALUE: mtd_nor_dev_erase:ret <- 0
	b	.LBB11_3
.Ltmp440:
	.p2align	2
@ %bb.4:
	.loc	1 0 5 is_stmt 0                 @ packages/fal-v0.5.0/src/fal_rtt.c:0:5
.LCPI11_0:
.L__FUNCTION__.mtd_nor_dev_erase:
	.asciz	"mtd_nor_dev_erase\000\000"
.Lfunc_end11:
	.size	mtd_nor_dev_erase, .Lfunc_end11-mtd_nor_dev_erase
	.cfi_endproc
	.cantunwind
	.fnend
                                        @ -- End function
	.section	.text.char_dev_fopen,"ax",%progbits
	.p2align	3                               @ -- Begin function char_dev_fopen
	.type	char_dev_fopen,%function
	.code	16                              @ @char_dev_fopen
	.thumb_func
char_dev_fopen:
.Lfunc_begin12:
	.loc	1 419 0 is_stmt 1               @ packages/fal-v0.5.0/src/fal_rtt.c:419:0
	.fnstart
	.cfi_startproc
@ %bb.0:
	@DEBUG_VALUE: char_dev_fopen:fd <- $r0
	.save	{r4, lr}
	push	{r4, lr}
	.cfi_def_cfa_offset 8
	.cfi_offset lr, -4
	.cfi_offset r4, -8
	mov	r4, r0
.Ltmp441:
	@DEBUG_VALUE: char_dev_fopen:fd <- $r4
	.loc	1 420 67 prologue_end           @ packages/fal-v0.5.0/src/fal_rtt.c:420:67
	ldr	r0, [r0, #32]
.Ltmp442:
	@DEBUG_VALUE: char_dev_fopen:part <- $r0
	.loc	1 422 5                         @ packages/fal-v0.5.0/src/fal_rtt.c:422:5
	cbz	r0, .LBB12_4
.Ltmp443:
@ %bb.1:
	@DEBUG_VALUE: char_dev_fopen:fd <- $r4
	@DEBUG_VALUE: char_dev_fopen:part <- $r0
	.loc	1 0 5 is_stmt 0                 @ packages/fal-v0.5.0/src/fal_rtt.c:0:5
	movs	r2, #3
	.loc	1 424 17 is_stmt 1              @ packages/fal-v0.5.0/src/fal_rtt.c:424:17
	ldr	r1, [r4, #20]
	movt	r2, #32
	.loc	1 424 23 is_stmt 0              @ packages/fal-v0.5.0/src/fal_rtt.c:424:23
	ands	r1, r2
	.loc	1 424 5                         @ packages/fal-v0.5.0/src/fal_rtt.c:424:5
	subs	r1, #1
	cmp	r1, #1
	bhi	.LBB12_3
.Ltmp444:
@ %bb.2:
	@DEBUG_VALUE: char_dev_fopen:fd <- $r4
	@DEBUG_VALUE: char_dev_fopen:part <- $r0
	.loc	1 431 39 is_stmt 1              @ packages/fal-v0.5.0/src/fal_rtt.c:431:39
	ldr	r0, [r0, #80]
.Ltmp445:
	.loc	1 431 9 is_stmt 0               @ packages/fal-v0.5.0/src/fal_rtt.c:431:9
	bl	fal_partition_erase_all
.Ltmp446:
.LBB12_3:
	@DEBUG_VALUE: char_dev_fopen:fd <- $r4
	.loc	1 438 5 is_stmt 1               @ packages/fal-v0.5.0/src/fal_rtt.c:438:5
	movs	r0, #0
	movs	r1, #0
	.loc	1 436 13                        @ packages/fal-v0.5.0/src/fal_rtt.c:436:13
	str	r1, [r4, #28]
	.loc	1 438 5                         @ packages/fal-v0.5.0/src/fal_rtt.c:438:5
	pop	{r4, pc}
.Ltmp447:
.LBB12_4:
	@DEBUG_VALUE: char_dev_fopen:fd <- $r4
	@DEBUG_VALUE: char_dev_fopen:part <- $r0
	.loc	1 422 5                         @ packages/fal-v0.5.0/src/fal_rtt.c:422:5
	movw	r0, :lower16:.L.str.11
.Ltmp448:
	movw	r1, :lower16:.L.str.12
	movt	r0, :upper16:.L.str.11
	movt	r1, :upper16:.L.str.12
	adr	r2, .LCPI12_0
	bl	rt_kprintf
.Ltmp449:
	.p2align	2
.LBB12_5:                               @ =>This Inner Loop Header: Depth=1
	@DEBUG_VALUE: char_dev_fopen:fd <- $r4
	b	.LBB12_5
.Ltmp450:
	.p2align	2
@ %bb.6:
	.loc	1 0 5 is_stmt 0                 @ packages/fal-v0.5.0/src/fal_rtt.c:0:5
.LCPI12_0:
.L__FUNCTION__.char_dev_fopen:
	.asciz	"char_dev_fopen\000"
.Lfunc_end12:
	.size	char_dev_fopen, .Lfunc_end12-char_dev_fopen
	.cfi_endproc
	.cantunwind
	.fnend
                                        @ -- End function
	.section	.text.char_dev_fread,"ax",%progbits
	.p2align	3                               @ -- Begin function char_dev_fread
	.type	char_dev_fread,%function
	.code	16                              @ @char_dev_fread
	.thumb_func
char_dev_fread:
.Lfunc_begin13:
	.loc	1 442 0 is_stmt 1               @ packages/fal-v0.5.0/src/fal_rtt.c:442:0
	.fnstart
	.cfi_startproc
@ %bb.0:
	@DEBUG_VALUE: char_dev_fread:fd <- $r0
	@DEBUG_VALUE: char_dev_fread:buf <- $r1
	@DEBUG_VALUE: char_dev_fread:count <- $r2
	.save	{r4, r5, r7, lr}
	push	{r4, r5, r7, lr}
	.cfi_def_cfa_offset 16
	.cfi_offset lr, -4
	.cfi_offset r7, -8
	.cfi_offset r5, -12
	.cfi_offset r4, -16
	mov	r4, r0
.Ltmp451:
	@DEBUG_VALUE: char_dev_fread:ret <- 0
	@DEBUG_VALUE: char_dev_fread:fd <- $r4
	.loc	1 444 67 prologue_end           @ packages/fal-v0.5.0/src/fal_rtt.c:444:67
	ldr	r0, [r0, #32]
.Ltmp452:
	@DEBUG_VALUE: char_dev_fread:part <- $r0
	@DEBUG_VALUE: char_dev_fread:count <- $r2
	@DEBUG_VALUE: char_dev_fread:buf <- $r1
	.loc	1 446 5                         @ packages/fal-v0.5.0/src/fal_rtt.c:446:5
	cbz	r0, .LBB13_3
.Ltmp453:
@ %bb.1:
	@DEBUG_VALUE: char_dev_fread:fd <- $r4
	@DEBUG_VALUE: char_dev_fread:count <- $r2
	@DEBUG_VALUE: char_dev_fread:buf <- $r1
	@DEBUG_VALUE: char_dev_fread:part <- $r0
	@DEBUG_VALUE: char_dev_fread:ret <- 0
	.loc	1 448 33                        @ packages/fal-v0.5.0/src/fal_rtt.c:448:33
	ldr	r0, [r0, #80]
.Ltmp454:
	.loc	1 0 33 is_stmt 0                @ packages/fal-v0.5.0/src/fal_rtt.c:0:33
	mov	r12, r1
.Ltmp455:
	@DEBUG_VALUE: char_dev_fread:buf <- $r12
	.loc	1 448 13                        @ packages/fal-v0.5.0/src/fal_rtt.c:448:13
	ldr	r1, [r4, #28]
	mov	r5, r2
.Ltmp456:
	@DEBUG_VALUE: char_dev_fread:count <- $r5
	.loc	1 448 17                        @ packages/fal-v0.5.0/src/fal_rtt.c:448:17
	adds	r3, r1, r2
	.loc	1 448 43                        @ packages/fal-v0.5.0/src/fal_rtt.c:448:43
	ldr	r2, [r0, #56]
.Ltmp457:
	.loc	1 448 9                         @ packages/fal-v0.5.0/src/fal_rtt.c:448:9
	cmp	r3, r2
	it	hi
	subhi	r5, r2, r1
.Ltmp458:
	@DEBUG_VALUE: char_dev_fread:count <- [DW_OP_LLVM_entry_value 1] $r2
	@DEBUG_VALUE: char_dev_fread:count <- $r5
	.loc	1 451 11 is_stmt 1              @ packages/fal-v0.5.0/src/fal_rtt.c:451:11
	mov	r2, r12
	mov	r3, r5
	bl	fal_partition_read
.Ltmp459:
	@DEBUG_VALUE: char_dev_fread:ret <- $r0
	.loc	1 453 9                         @ packages/fal-v0.5.0/src/fal_rtt.c:453:9
	cmp	r0, r5
	bne	.LBB13_5
.Ltmp460:
@ %bb.2:
	@DEBUG_VALUE: char_dev_fread:count <- $r5
	@DEBUG_VALUE: char_dev_fread:fd <- $r4
	@DEBUG_VALUE: char_dev_fread:ret <- $r0
	.loc	1 456 13                        @ packages/fal-v0.5.0/src/fal_rtt.c:456:13
	ldr	r1, [r4, #28]
	add	r1, r0
	str	r1, [r4, #28]
	.loc	1 459 1                         @ packages/fal-v0.5.0/src/fal_rtt.c:459:1
	pop	{r4, r5, r7, pc}
.Ltmp461:
.LBB13_3:
	@DEBUG_VALUE: char_dev_fread:fd <- $r4
	@DEBUG_VALUE: char_dev_fread:count <- $r2
	@DEBUG_VALUE: char_dev_fread:buf <- $r1
	@DEBUG_VALUE: char_dev_fread:part <- $r0
	@DEBUG_VALUE: char_dev_fread:ret <- 0
	.loc	1 446 5                         @ packages/fal-v0.5.0/src/fal_rtt.c:446:5
	movw	r0, :lower16:.L.str.11
.Ltmp462:
	movw	r1, :lower16:.L.str.12
.Ltmp463:
	@DEBUG_VALUE: char_dev_fread:buf <- [DW_OP_LLVM_entry_value 1] $r1
	movt	r0, :upper16:.L.str.11
	movt	r1, :upper16:.L.str.12
	adr	r2, .LCPI13_0
.Ltmp464:
	@DEBUG_VALUE: char_dev_fread:count <- [DW_OP_LLVM_entry_value 1] $r2
	bl	rt_kprintf
.Ltmp465:
	.p2align	2
.LBB13_4:                               @ =>This Inner Loop Header: Depth=1
	@DEBUG_VALUE: char_dev_fread:fd <- $r4
	@DEBUG_VALUE: char_dev_fread:count <- [DW_OP_LLVM_entry_value 1] $r2
	@DEBUG_VALUE: char_dev_fread:buf <- [DW_OP_LLVM_entry_value 1] $r1
	@DEBUG_VALUE: char_dev_fread:ret <- 0
	b	.LBB13_4
.Ltmp466:
.LBB13_5:
	@DEBUG_VALUE: char_dev_fread:count <- $r5
	@DEBUG_VALUE: char_dev_fread:fd <- $r4
	@DEBUG_VALUE: char_dev_fread:ret <- $r0
	.loc	1 0 5 is_stmt 0                 @ packages/fal-v0.5.0/src/fal_rtt.c:0:5
	movs	r0, #0
.Ltmp467:
	.loc	1 459 1 is_stmt 1               @ packages/fal-v0.5.0/src/fal_rtt.c:459:1
	pop	{r4, r5, r7, pc}
.Ltmp468:
	.p2align	2
@ %bb.6:
	.loc	1 0 1 is_stmt 0                 @ packages/fal-v0.5.0/src/fal_rtt.c:0:1
.LCPI13_0:
.L__FUNCTION__.char_dev_fread:
	.asciz	"char_dev_fread\000"
.Lfunc_end13:
	.size	char_dev_fread, .Lfunc_end13-char_dev_fread
	.cfi_endproc
	.cantunwind
	.fnend
                                        @ -- End function
	.section	.text.char_dev_fwrite,"ax",%progbits
	.p2align	3                               @ -- Begin function char_dev_fwrite
	.type	char_dev_fwrite,%function
	.code	16                              @ @char_dev_fwrite
	.thumb_func
char_dev_fwrite:
.Lfunc_begin14:
	.loc	1 462 0 is_stmt 1               @ packages/fal-v0.5.0/src/fal_rtt.c:462:0
	.fnstart
	.cfi_startproc
@ %bb.0:
	@DEBUG_VALUE: char_dev_fwrite:fd <- $r0
	@DEBUG_VALUE: char_dev_fwrite:buf <- $r1
	@DEBUG_VALUE: char_dev_fwrite:count <- $r2
	.save	{r4, r5, r7, lr}
	push	{r4, r5, r7, lr}
	.cfi_def_cfa_offset 16
	.cfi_offset lr, -4
	.cfi_offset r7, -8
	.cfi_offset r5, -12
	.cfi_offset r4, -16
	mov	r4, r0
.Ltmp469:
	@DEBUG_VALUE: char_dev_fwrite:ret <- 0
	@DEBUG_VALUE: char_dev_fwrite:fd <- $r4
	.loc	1 464 67 prologue_end           @ packages/fal-v0.5.0/src/fal_rtt.c:464:67
	ldr	r0, [r0, #32]
.Ltmp470:
	@DEBUG_VALUE: char_dev_fwrite:part <- $r0
	@DEBUG_VALUE: char_dev_fwrite:count <- $r2
	@DEBUG_VALUE: char_dev_fwrite:buf <- $r1
	.loc	1 466 5                         @ packages/fal-v0.5.0/src/fal_rtt.c:466:5
	cbz	r0, .LBB14_3
.Ltmp471:
@ %bb.1:
	@DEBUG_VALUE: char_dev_fwrite:fd <- $r4
	@DEBUG_VALUE: char_dev_fwrite:count <- $r2
	@DEBUG_VALUE: char_dev_fwrite:buf <- $r1
	@DEBUG_VALUE: char_dev_fwrite:part <- $r0
	@DEBUG_VALUE: char_dev_fwrite:ret <- 0
	.loc	1 468 33                        @ packages/fal-v0.5.0/src/fal_rtt.c:468:33
	ldr	r0, [r0, #80]
.Ltmp472:
	.loc	1 0 33 is_stmt 0                @ packages/fal-v0.5.0/src/fal_rtt.c:0:33
	mov	r12, r1
.Ltmp473:
	@DEBUG_VALUE: char_dev_fwrite:buf <- $r12
	.loc	1 468 13                        @ packages/fal-v0.5.0/src/fal_rtt.c:468:13
	ldr	r1, [r4, #28]
	mov	r5, r2
.Ltmp474:
	@DEBUG_VALUE: char_dev_fwrite:count <- $r5
	.loc	1 468 17                        @ packages/fal-v0.5.0/src/fal_rtt.c:468:17
	adds	r3, r1, r2
	.loc	1 468 43                        @ packages/fal-v0.5.0/src/fal_rtt.c:468:43
	ldr	r2, [r0, #56]
.Ltmp475:
	.loc	1 468 9                         @ packages/fal-v0.5.0/src/fal_rtt.c:468:9
	cmp	r3, r2
	it	hi
	subhi	r5, r2, r1
.Ltmp476:
	@DEBUG_VALUE: char_dev_fwrite:count <- [DW_OP_LLVM_entry_value 1] $r2
	@DEBUG_VALUE: char_dev_fwrite:count <- $r5
	.loc	1 471 11 is_stmt 1              @ packages/fal-v0.5.0/src/fal_rtt.c:471:11
	mov	r2, r12
	mov	r3, r5
	bl	fal_partition_write
.Ltmp477:
	@DEBUG_VALUE: char_dev_fwrite:ret <- $r0
	.loc	1 473 9                         @ packages/fal-v0.5.0/src/fal_rtt.c:473:9
	cmp	r0, r5
	bne	.LBB14_5
.Ltmp478:
@ %bb.2:
	@DEBUG_VALUE: char_dev_fwrite:count <- $r5
	@DEBUG_VALUE: char_dev_fwrite:fd <- $r4
	@DEBUG_VALUE: char_dev_fwrite:ret <- $r0
	.loc	1 476 13                        @ packages/fal-v0.5.0/src/fal_rtt.c:476:13
	ldr	r1, [r4, #28]
	add	r1, r0
	str	r1, [r4, #28]
	.loc	1 479 1                         @ packages/fal-v0.5.0/src/fal_rtt.c:479:1
	pop	{r4, r5, r7, pc}
.Ltmp479:
.LBB14_3:
	@DEBUG_VALUE: char_dev_fwrite:fd <- $r4
	@DEBUG_VALUE: char_dev_fwrite:count <- $r2
	@DEBUG_VALUE: char_dev_fwrite:buf <- $r1
	@DEBUG_VALUE: char_dev_fwrite:part <- $r0
	@DEBUG_VALUE: char_dev_fwrite:ret <- 0
	.loc	1 466 5                         @ packages/fal-v0.5.0/src/fal_rtt.c:466:5
	movw	r0, :lower16:.L.str.11
.Ltmp480:
	movw	r1, :lower16:.L.str.12
.Ltmp481:
	@DEBUG_VALUE: char_dev_fwrite:buf <- [DW_OP_LLVM_entry_value 1] $r1
	movt	r0, :upper16:.L.str.11
	movt	r1, :upper16:.L.str.12
	adr	r2, .LCPI14_0
.Ltmp482:
	@DEBUG_VALUE: char_dev_fwrite:count <- [DW_OP_LLVM_entry_value 1] $r2
	bl	rt_kprintf
.Ltmp483:
	.p2align	2
.LBB14_4:                               @ =>This Inner Loop Header: Depth=1
	@DEBUG_VALUE: char_dev_fwrite:fd <- $r4
	@DEBUG_VALUE: char_dev_fwrite:count <- [DW_OP_LLVM_entry_value 1] $r2
	@DEBUG_VALUE: char_dev_fwrite:buf <- [DW_OP_LLVM_entry_value 1] $r1
	@DEBUG_VALUE: char_dev_fwrite:ret <- 0
	b	.LBB14_4
.Ltmp484:
.LBB14_5:
	@DEBUG_VALUE: char_dev_fwrite:count <- $r5
	@DEBUG_VALUE: char_dev_fwrite:fd <- $r4
	@DEBUG_VALUE: char_dev_fwrite:ret <- $r0
	.loc	1 0 5 is_stmt 0                 @ packages/fal-v0.5.0/src/fal_rtt.c:0:5
	movs	r0, #0
.Ltmp485:
	.loc	1 479 1 is_stmt 1               @ packages/fal-v0.5.0/src/fal_rtt.c:479:1
	pop	{r4, r5, r7, pc}
.Ltmp486:
	.p2align	2
@ %bb.6:
	.loc	1 0 1 is_stmt 0                 @ packages/fal-v0.5.0/src/fal_rtt.c:0:1
.LCPI14_0:
.L__FUNCTION__.char_dev_fwrite:
	.asciz	"char_dev_fwrite"
.Lfunc_end14:
	.size	char_dev_fwrite, .Lfunc_end14-char_dev_fwrite
	.cfi_endproc
	.cantunwind
	.fnend
                                        @ -- End function
	.type	.L.str,%object                  @ @.str
	.section	.rodata.str1.1,"aMS",%progbits,1
.L.str:
	.asciz	"\033[31;22m[E/FAL] (%s:%d) "
	.size	.L.str, 25

	.type	.L__FUNCTION__.fal_blk_device_create,%object @ @__FUNCTION__.fal_blk_device_create
.L__FUNCTION__.fal_blk_device_create:
	.asciz	"fal_blk_device_create"
	.size	.L__FUNCTION__.fal_blk_device_create, 22

	.type	.L.str.1,%object                @ @.str.1
.L.str.1:
	.asciz	"Error: the partition name (%s) is not found."
	.size	.L.str.1, 45

	.type	.L.str.2,%object                @ @.str.2
.L.str.2:
	.asciz	"\033[0m\n"
	.size	.L.str.2, 6

	.type	.L.str.3,%object                @ @.str.3
.L.str.3:
	.asciz	"Error: the flash device name (%s) is not found."
	.size	.L.str.3, 48

	.type	.L.str.4,%object                @ @.str.4
.L.str.4:
	.asciz	"\033[32;22m[I/FAL] "
	.size	.L.str.4, 17

	.type	.L__FUNCTION__.fal_mtd_nor_device_create,%object @ @__FUNCTION__.fal_mtd_nor_device_create
.L__FUNCTION__.fal_mtd_nor_device_create:
	.asciz	"fal_mtd_nor_device_create"
	.size	.L__FUNCTION__.fal_mtd_nor_device_create, 26

	.type	_ops,%object                    @ @_ops
	.section	.rodata._ops,"a",%progbits
	.p2align	2
_ops:
	.long	0
	.long	mtd_nor_dev_read
	.long	mtd_nor_dev_write
	.long	mtd_nor_dev_erase
	.size	_ops, 16

	.type	.L__FUNCTION__.fal_char_device_create,%object @ @__FUNCTION__.fal_char_device_create
	.section	.rodata.str1.1,"aMS",%progbits,1
.L__FUNCTION__.fal_char_device_create:
	.asciz	"fal_char_device_create"
	.size	.L__FUNCTION__.fal_char_device_create, 23

	.type	char_dev_fops,%object           @ @char_dev_fops
	.section	.rodata.char_dev_fops,"a",%progbits
	.p2align	2
char_dev_fops:
	.long	char_dev_fopen
	.long	0
	.long	0
	.long	char_dev_fread
	.long	char_dev_fwrite
	.long	0
	.long	0
	.long	0
	.long	0
	.size	char_dev_fops, 36

	.hidden	__fsym___cmd_fal_name           @ @__fsym___cmd_fal_name
	.type	__fsym___cmd_fal_name,%object
	.section	.rodata.name,"a",%progbits
	.globl	__fsym___cmd_fal_name
__fsym___cmd_fal_name:
	.asciz	"__cmd_fal"
	.size	__fsym___cmd_fal_name, 10

	.hidden	__fsym___cmd_fal_desc           @ @__fsym___cmd_fal_desc
	.type	__fsym___cmd_fal_desc,%object
	.globl	__fsym___cmd_fal_desc
__fsym___cmd_fal_desc:
	.asciz	"FAL (Flash Abstraction Layer) operate."
	.size	__fsym___cmd_fal_desc, 39

	.hidden	__fsym___cmd_fal                @ @__fsym___cmd_fal
	.type	__fsym___cmd_fal,%object
	.section	FSymTab,"a",%progbits
	.globl	__fsym___cmd_fal
	.p2align	2
__fsym___cmd_fal:
__tagsym$$used.0:
	.long	__fsym___cmd_fal_name
	.long	__fsym___cmd_fal_desc
	.long	fal
	.size	__fsym___cmd_fal, 12

	.type	.L.str.11,%object               @ @.str.11
	.section	.rodata.str1.1,"aMS",%progbits,1
.L.str.11:
	.asciz	"(%s) has assert failed at %s.\n"
	.size	.L.str.11, 31

	.type	.L.str.12,%object               @ @.str.12
.L.str.12:
	.asciz	"part != RT_NULL"
	.size	.L.str.12, 16

	.type	fal.flash_dev,%object           @ @fal.flash_dev
	.section	.bss.fal.flash_dev,"aw",%nobits
	.p2align	2
fal.flash_dev:
	.long	0
	.size	fal.flash_dev, 4

	.type	fal.part_dev,%object            @ @fal.part_dev
	.section	.bss.fal.part_dev,"aw",%nobits
	.p2align	2
fal.part_dev:
	.long	0
	.size	fal.part_dev, 4

	.type	.L.str.13,%object               @ @.str.13
	.section	.rodata.str1.1,"aMS",%progbits,1
.L.str.13:
	.asciz	"fal probe [dev_name|part_name]   - probe flash device or partition by given name"
	.size	.L.str.13, 81

	.type	.L.str.14,%object               @ @.str.14
.L.str.14:
	.asciz	"fal read addr size               - read 'size' bytes starting at 'addr'"
	.size	.L.str.14, 72

	.type	.L.str.15,%object               @ @.str.15
.L.str.15:
	.asciz	"fal write addr data1 ... dataN   - write some bytes 'data' starting at 'addr'"
	.size	.L.str.15, 78

	.type	.L.str.16,%object               @ @.str.16
.L.str.16:
	.asciz	"fal erase addr size              - erase 'size' bytes starting at 'addr'"
	.size	.L.str.16, 73

	.type	.L.str.17,%object               @ @.str.17
.L.str.17:
	.asciz	"fal bench <blk_size>             - benchmark test with per block size"
	.size	.L.str.17, 70

	.type	.L__const.fal.help_info,%object @ @__const.fal.help_info
	.section	.rodata..L__const.fal.help_info,"a",%progbits
	.p2align	2
.L__const.fal.help_info:
	.long	.L.str.13
	.long	.L.str.14
	.long	.L.str.15
	.long	.L.str.16
	.long	.L.str.17
	.size	.L__const.fal.help_info, 20

	.type	.L.str.19,%object               @ @.str.19
	.section	.rodata.str1.1,"aMS",%progbits,1
.L.str.19:
	.asciz	"Usage:\n"
	.size	.L.str.19, 8

	.type	.L.str.20,%object               @ @.str.20
.L.str.20:
	.asciz	"%s\n"
	.size	.L.str.20, 4

	.type	.L.str.21,%object               @ @.str.21
.L.str.21:
	.asciz	"\n"
	.size	.L.str.21, 2

	.type	.L.str.23,%object               @ @.str.23
.L.str.23:
	.asciz	"Device %s NOT found. Probe failed.\n"
	.size	.L.str.23, 36

	.type	.L.str.24,%object               @ @.str.24
.L.str.24:
	.asciz	"Probed a flash device | %s | addr: %ld | len: %d |.\n"
	.size	.L.str.24, 53

	.type	.L.str.25,%object               @ @.str.25
.L.str.25:
	.asciz	"Probed a flash partition | %s | flash_dev: %s | offset: %ld | len: %d |.\n"
	.size	.L.str.25, 74

	.type	.L.str.26,%object               @ @.str.26
.L.str.26:
	.asciz	"No flash device or partition was probed.\n"
	.size	.L.str.26, 42

	.type	.L.str.27,%object               @ @.str.27
.L.str.27:
	.asciz	"Usage: %s.\n"
	.size	.L.str.27, 12

	.type	.L.str.28,%object               @ @.str.28
.L.str.28:
	.asciz	"No flash device or partition was probed. Please run 'fal probe'.\n"
	.size	.L.str.28, 66

	.type	.L.str.30,%object               @ @.str.30
.L.str.30:
	.asciz	"Read data success. Start from 0x%08X, size is %ld. The data is:\n"
	.size	.L.str.30, 65

	.type	.L.str.31,%object               @ @.str.31
.L.str.31:
	.asciz	"Offset (h) 00 01 02 03 04 05 06 07 08 09 0A 0B 0C 0D 0E 0F\n"
	.size	.L.str.31, 60

	.type	.L.str.32,%object               @ @.str.32
.L.str.32:
	.asciz	"[%08X] "
	.size	.L.str.32, 8

	.type	.L.str.33,%object               @ @.str.33
.L.str.33:
	.asciz	"%02X "
	.size	.L.str.33, 6

	.type	.L.str.36,%object               @ @.str.36
.L.str.36:
	.asciz	"Low memory!\n"
	.size	.L.str.36, 13

	.type	.L.str.38,%object               @ @.str.38
.L.str.38:
	.asciz	"Write data success. Start from 0x%08X, size is %ld.\n"
	.size	.L.str.38, 53

	.type	.L.str.43,%object               @ @.str.43
.L.str.43:
	.asciz	"Erase data success. Start from 0x%08X, size is %ld.\n"
	.size	.L.str.43, 53

	.type	.L.str.46,%object               @ @.str.46
.L.str.46:
	.asciz	"DANGER: It will erase full chip or partition! Please run 'fal bench %d yes'.\n"
	.size	.L.str.46, 78

	.type	.L.str.48,%object               @ @.str.48
.L.str.48:
	.asciz	"Erase benchmark success, total time: %d.%03dS.\n"
	.size	.L.str.48, 48

	.type	.L.str.49,%object               @ @.str.49
.L.str.49:
	.asciz	"Erase benchmark has an error. Error code: %d.\n"
	.size	.L.str.49, 47

	.type	.L.str.50,%object               @ @.str.50
.L.str.50:
	.asciz	"Writing %ld bytes data, waiting...\n"
	.size	.L.str.50, 36

	.type	.L.str.51,%object               @ @.str.51
.L.str.51:
	.asciz	"Write benchmark success, total time: %d.%03dS.\n"
	.size	.L.str.51, 48

	.type	.L.str.52,%object               @ @.str.52
.L.str.52:
	.asciz	"Write benchmark has an error. Error code: %d.\n"
	.size	.L.str.52, 47

	.type	.L.str.53,%object               @ @.str.53
.L.str.53:
	.asciz	"Reading %ld bytes data, waiting...\n"
	.size	.L.str.53, 36

	.type	.L.str.54,%object               @ @.str.54
.L.str.54:
	.asciz	"Data check ERROR! Please check you flash by other command.\n"
	.size	.L.str.54, 60

	.type	.L.str.55,%object               @ @.str.55
.L.str.55:
	.asciz	"Read benchmark success, total time: %d.%03dS.\n"
	.size	.L.str.55, 47

	.type	.L.str.56,%object               @ @.str.56
.L.str.56:
	.asciz	"Read benchmark has an error. Error code: %d.\n"
	.size	.L.str.56, 46

	.type	.L.str.57,%object               @ @.str.57
.L.str.57:
	.asciz	"This operate has an error. Error code: %d.\n"
	.size	.L.str.57, 44

	.globl	__fsym___cmd_fal
	.section	".note.GNU-stack","",%progbits
	.eabi_attribute	30, 1	@ Tag_ABI_optimization_goals
	.ARM_attribute	16, 1	@ Tag_AV_eba