	.text
	.syntax unified
	.eabi_attribute	67, "2.09"	@ Tag_conformance
	.cpu	cortex-m7
	.eabi_attribute	6, 13	@ Tag_CPU_arch
	.eabi_attribute	7, 77	@ Tag_CPU_arch_profile
	.eabi_attribute	8, 0	@ Tag_ARM_ISA_use
	.eabi_attribute	9, 2	@ Tag_THUMB_ISA_use
	.fpu	fpv5-d16
	.eabi_attribute	36, 1	@ Tag_FP_HP_extension
	.eabi_attribute	34, 1	@ Tag_CPU_unaligned_access
	.eabi_attribute	17, 1	@ Tag_ABI_PCS_GOT_use
	.eabi_attribute	20, 2	@ Tag_ABI_FP_denormal
	.eabi_attribute	21, 0	@ Tag_ABI_FP_exceptions
	.eabi_attribute	23, 1	@ Tag_ABI_FP_number_model
	.eabi_attribute	24, 1	@ Tag_ABI_align_needed
	.eabi_attribute	25, 1	@ Tag_ABI_align_preserved
	.eabi_attribute	28, 1	@ Tag_ABI_VFP_args
	.eabi_attribute	38, 1	@ Tag_ABI_FP_16bit_format
	.eabi_attribute	18, 2	@ Tag_ABI_PCS_wchar_t
	.eabi_attribute	26, 1	@ Tag_ABI_enum_size
	.eabi_attribute	14, 0	@ Tag_ABI_PCS_R9_use
	.file	"fal_flash_sfud_port.c"
	.file	1 "E:\\STM32\\Learning\\STM32H750_ART_PI_RGBLCD" "./packages/fal-v0.5.0/inc/fal_def.h"
	.file	2 "D:\\Keil_v5\\ARM\\ARMCLANG\\Bin\\..\\include" "stdint.h"
	.file	3 "D:\\Keil_v5\\ARM\\ARMCLANG\\Bin\\..\\include" "time.h"
	.file	4 "E:\\STM32\\Learning\\STM32H750_ART_PI_RGBLCD" "packages/fal-v0.5.0/samples/porting/fal_flash_sfud_port.c"
	.file	5 "E:\\STM32\\Learning\\STM32H750_ART_PI_RGBLCD" "./rt-thread/components/drivers/spi/sfud/inc/sfud_def.h"
	.file	6 "E:\\STM32\\Learning\\STM32H750_ART_PI_RGBLCD" "./rt-thread/components/drivers/spi/sfud/inc/sfud_flash_def.h"
	.section	.text.init,"ax",%progbits
	.p2align	3                               @ -- Begin function init
	.type	init,%function
	.code	16                              @ @init
	.thumb_func
init:
.Lfunc_begin0:
	.loc	4 54 0                          @ packages/fal-v0.5.0/samples/porting/fal_flash_sfud_port.c:54:0
	.fnstart
	.cfi_sections .debug_frame
	.cfi_startproc
@ %bb.0:
	.save	{r7, lr}
	push	{r7, lr}
	.cfi_def_cfa_offset 8
	.cfi_offset lr, -4
	.cfi_offset r7, -8
	.pad	#8
	sub	sp, #8
	.cfi_def_cfa_offset 16
.Ltmp0:
	.loc	4 58 16 prologue_end            @ packages/fal-v0.5.0/samples/porting/fal_flash_sfud_port.c:58:16
	movw	r0, :lower16:.L.str
	movt	r0, :upper16:.L.str
	bl	rt_sfud_flash_find_by_dev_name
	mov	r1, r0
	.loc	4 58 14 is_stmt 0               @ packages/fal-v0.5.0/samples/porting/fal_flash_sfud_port.c:58:14
	movw	r0, :lower16:sfud_dev
	movt	r0, :upper16:sfud_dev
	str	r1, [r0]
.Ltmp1:
	.loc	4 65 17 is_stmt 1               @ packages/fal-v0.5.0/samples/porting/fal_flash_sfud_port.c:65:17
	ldr	r0, [r0]
.Ltmp2:
	.loc	4 65 9 is_stmt 0                @ packages/fal-v0.5.0/samples/porting/fal_flash_sfud_port.c:65:9
	cbnz	r0, .LBB0_2
	b	.LBB0_1
.LBB0_1:
	.loc	4 0 9                           @ packages/fal-v0.5.0/samples/porting/fal_flash_sfud_port.c:0:9
	mov.w	r0, #-1
.Ltmp3:
	.loc	4 67 9 is_stmt 1                @ packages/fal-v0.5.0/samples/porting/fal_flash_sfud_port.c:67:9
	str	r0, [sp, #4]
	b	.LBB0_3
.Ltmp4:
.LBB0_2:
	.loc	4 71 27                         @ packages/fal-v0.5.0/samples/porting/fal_flash_sfud_port.c:71:27
	movw	r0, :lower16:sfud_dev
	movt	r0, :upper16:sfud_dev
	ldr	r1, [r0]
	.loc	4 71 42 is_stmt 0               @ packages/fal-v0.5.0/samples/porting/fal_flash_sfud_port.c:71:42
	ldr	r2, [r1, #24]
	.loc	4 71 25                         @ packages/fal-v0.5.0/samples/porting/fal_flash_sfud_port.c:71:25
	movw	r1, :lower16:nor_flash0
	movt	r1, :upper16:nor_flash0
	str	r2, [r1, #32]
	.loc	4 72 22 is_stmt 1               @ packages/fal-v0.5.0/samples/porting/fal_flash_sfud_port.c:72:22
	ldr	r0, [r0]
	.loc	4 72 37 is_stmt 0               @ packages/fal-v0.5.0/samples/porting/fal_flash_sfud_port.c:72:37
	ldr	r0, [r0, #16]
	.loc	4 72 20                         @ packages/fal-v0.5.0/samples/porting/fal_flash_sfud_port.c:72:20
	str	r0, [r1, #28]
	movs	r0, #0
	.loc	4 74 5 is_stmt 1                @ packages/fal-v0.5.0/samples/porting/fal_flash_sfud_port.c:74:5
	str	r0, [sp, #4]
	b	.LBB0_3
.LBB0_3:
	.loc	4 75 1                          @ packages/fal-v0.5.0/samples/porting/fal_flash_sfud_port.c:75:1
	ldr	r0, [sp, #4]
	add	sp, #8
	pop	{r7, pc}
.Ltmp5:
.Lfunc_end0:
	.size	init, .Lfunc_end0-init
	.cfi_endproc
	.cantunwind
	.fnend
                                        @ -- End function
	.section	.text.read,"ax",%progbits
	.p2align	3                               @ -- Begin function read
	.type	read,%function
	.code	16                              @ @read
	.thumb_func
read:
.Lfunc_begin1:
	.loc	4 78 0                          @ packages/fal-v0.5.0/samples/porting/fal_flash_sfud_port.c:78:0
	.fnstart
	.cfi_startproc
@ %bb.0:
	.save	{r7, lr}
	push	{r7, lr}
	.cfi_def_cfa_offset 8
	.cfi_offset lr, -4
	.cfi_offset r7, -8
	.pad	#16
	sub	sp, #16
	.cfi_def_cfa_offset 24
	str	r0, [sp, #12]
	str	r1, [sp, #8]
	str	r2, [sp, #4]
.Ltmp6:
	.loc	4 79 5 prologue_end             @ packages/fal-v0.5.0/samples/porting/fal_flash_sfud_port.c:79:5
	movw	r0, :lower16:sfud_dev
	movt	r0, :upper16:sfud_dev
	ldr	r0, [r0]
.Ltmp7:
	.loc	4 79 5 is_stmt 0                @ packages/fal-v0.5.0/samples/porting/fal_flash_sfud_port.c:79:5
	cbnz	r0, .LBB1_3
	b	.LBB1_1
.LBB1_1:
.Ltmp8:
	.loc	4 79 5                          @ packages/fal-v0.5.0/samples/porting/fal_flash_sfud_port.c:79:5
	movw	r0, :lower16:.L.str.1
	movt	r0, :upper16:.L.str.1
	movw	r1, :lower16:.L.str.2
	movt	r1, :upper16:.L.str.2
	movw	r2, :lower16:.L__FUNCTION__.read
	movt	r2, :upper16:.L__FUNCTION__.read
	bl	rt_kprintf
	b	.LBB1_2
.LBB1_2:                                @ =>This Inner Loop Header: Depth=1
	b	.LBB1_2
.Ltmp9:
.LBB1_3:
	.loc	4 80 5 is_stmt 1                @ packages/fal-v0.5.0/samples/porting/fal_flash_sfud_port.c:80:5
	movw	r0, :lower16:sfud_dev
	movt	r0, :upper16:sfud_dev
	ldr	r0, [r0]
	ldrb.w	r0, [r0, #52]
.Ltmp10:
	.loc	4 80 5 is_stmt 0                @ packages/fal-v0.5.0/samples/porting/fal_flash_sfud_port.c:80:5
	lsls	r0, r0, #31
	cbnz	r0, .LBB1_6
	b	.LBB1_4
.LBB1_4:
.Ltmp11:
	.loc	4 80 5                          @ packages/fal-v0.5.0/samples/porting/fal_flash_sfud_port.c:80:5
	movw	r0, :lower16:.L.str.1
	movt	r0, :upper16:.L.str.1
	movw	r1, :lower16:.L.str.3
	movt	r1, :upper16:.L.str.3
	movw	r2, :lower16:.L__FUNCTION__.read
	movt	r2, :upper16:.L__FUNCTION__.read
	bl	rt_kprintf
	b	.LBB1_5
.LBB1_5:                                @ =>This Inner Loop Header: Depth=1
	b	.LBB1_5
.Ltmp12:
.LBB1_6:
	.loc	4 81 15 is_stmt 1               @ packages/fal-v0.5.0/samples/porting/fal_flash_sfud_port.c:81:15
	movw	r0, :lower16:sfud_dev
	movt	r0, :upper16:sfud_dev
	ldr	r0, [r0]
	.loc	4 81 36 is_stmt 0               @ packages/fal-v0.5.0/samples/porting/fal_flash_sfud_port.c:81:36
	movw	r1, :lower16:nor_flash0
	movt	r1, :upper16:nor_flash0
	ldr	r1, [r1, #24]
	.loc	4 81 43                         @ packages/fal-v0.5.0/samples/porting/fal_flash_sfud_port.c:81:43
	ldr	r2, [sp, #12]
	.loc	4 81 41                         @ packages/fal-v0.5.0/samples/porting/fal_flash_sfud_port.c:81:41
	add	r1, r2
	.loc	4 81 51                         @ packages/fal-v0.5.0/samples/porting/fal_flash_sfud_port.c:81:51
	ldr	r2, [sp, #4]
	.loc	4 81 57                         @ packages/fal-v0.5.0/samples/porting/fal_flash_sfud_port.c:81:57
	ldr	r3, [sp, #8]
	.loc	4 81 5                          @ packages/fal-v0.5.0/samples/porting/fal_flash_sfud_port.c:81:5
	bl	sfud_read
	.loc	4 83 12 is_stmt 1               @ packages/fal-v0.5.0/samples/porting/fal_flash_sfud_port.c:83:12
	ldr	r0, [sp, #4]
	.loc	4 83 5 is_stmt 0                @ packages/fal-v0.5.0/samples/porting/fal_flash_sfud_port.c:83:5
	add	sp, #16
	pop	{r7, pc}
.Ltmp13:
.Lfunc_end1:
	.size	read, .Lfunc_end1-read
	.cfi_endproc
	.cantunwind
	.fnend
                                        @ -- End function
	.section	.text.write,"ax",%progbits
	.p2align	3                               @ -- Begin function write
	.type	write,%function
	.code	16                              @ @write
	.thumb_func
write:
.Lfunc_begin2:
	.loc	4 87 0 is_stmt 1                @ packages/fal-v0.5.0/samples/porting/fal_flash_sfud_port.c:87:0
	.fnstart
	.cfi_startproc
@ %bb.0:
	.save	{r7, lr}
	push	{r7, lr}
	.cfi_def_cfa_offset 8
	.cfi_offset lr, -4
	.cfi_offset r7, -8
	.pad	#16
	sub	sp, #16
	.cfi_def_cfa_offset 24
	str	r0, [sp, #8]
	str	r1, [sp, #4]
	str	r2, [sp]
.Ltmp14:
	.loc	4 88 5 prologue_end             @ packages/fal-v0.5.0/samples/porting/fal_flash_sfud_port.c:88:5
	movw	r0, :lower16:sfud_dev
	movt	r0, :upper16:sfud_dev
	ldr	r0, [r0]
.Ltmp15:
	.loc	4 88 5 is_stmt 0                @ packages/fal-v0.5.0/samples/porting/fal_flash_sfud_port.c:88:5
	cbnz	r0, .LBB2_3
	b	.LBB2_1
.LBB2_1:
.Ltmp16:
	.loc	4 88 5                          @ packages/fal-v0.5.0/samples/porting/fal_flash_sfud_port.c:88:5
	movw	r0, :lower16:.L.str.1
	movt	r0, :upper16:.L.str.1
	movw	r1, :lower16:.L.str.2
	movt	r1, :upper16:.L.str.2
	movw	r2, :lower16:.L__FUNCTION__.write
	movt	r2, :upper16:.L__FUNCTION__.write
	bl	rt_kprintf
	b	.LBB2_2
.LBB2_2:                                @ =>This Inner Loop Header: Depth=1
	b	.LBB2_2
.Ltmp17:
.LBB2_3:
	.loc	4 89 5 is_stmt 1                @ packages/fal-v0.5.0/samples/porting/fal_flash_sfud_port.c:89:5
	movw	r0, :lower16:sfud_dev
	movt	r0, :upper16:sfud_dev
	ldr	r0, [r0]
	ldrb.w	r0, [r0, #52]
.Ltmp18:
	.loc	4 89 5 is_stmt 0                @ packages/fal-v0.5.0/samples/porting/fal_flash_sfud_port.c:89:5
	lsls	r0, r0, #31
	cbnz	r0, .LBB2_6
	b	.LBB2_4
.LBB2_4:
.Ltmp19:
	.loc	4 89 5                          @ packages/fal-v0.5.0/samples/porting/fal_flash_sfud_port.c:89:5
	movw	r0, :lower16:.L.str.1
	movt	r0, :upper16:.L.str.1
	movw	r1, :lower16:.L.str.3
	movt	r1, :upper16:.L.str.3
	movw	r2, :lower16:.L__FUNCTION__.write
	movt	r2, :upper16:.L__FUNCTION__.write
	bl	rt_kprintf
	b	.LBB2_5
.LBB2_5:                                @ =>This Inner Loop Header: Depth=1
	b	.LBB2_5
.Ltmp20:
.LBB2_6:
	.loc	4 90 20 is_stmt 1               @ packages/fal-v0.5.0/samples/porting/fal_flash_sfud_port.c:90:20
	movw	r0, :lower16:sfud_dev
	movt	r0, :upper16:sfud_dev
	ldr	r0, [r0]
	.loc	4 90 41 is_stmt 0               @ packages/fal-v0.5.0/samples/porting/fal_flash_sfud_port.c:90:41
	movw	r1, :lower16:nor_flash0
	movt	r1, :upper16:nor_flash0
	ldr	r1, [r1, #24]
	.loc	4 90 48                         @ packages/fal-v0.5.0/samples/porting/fal_flash_sfud_port.c:90:48
	ldr	r2, [sp, #8]
	.loc	4 90 46                         @ packages/fal-v0.5.0/samples/porting/fal_flash_sfud_port.c:90:46
	add	r1, r2
	.loc	4 90 56                         @ packages/fal-v0.5.0/samples/porting/fal_flash_sfud_port.c:90:56
	ldr	r2, [sp]
	.loc	4 90 62                         @ packages/fal-v0.5.0/samples/porting/fal_flash_sfud_port.c:90:62
	ldr	r3, [sp, #4]
	.loc	4 90 9                          @ packages/fal-v0.5.0/samples/porting/fal_flash_sfud_port.c:90:9
	bl	sfud_write
.Ltmp21:
	.loc	4 90 9                          @ packages/fal-v0.5.0/samples/porting/fal_flash_sfud_port.c:90:9
	cbz	r0, .LBB2_8
	b	.LBB2_7
.LBB2_7:
	.loc	4 0 9                           @ packages/fal-v0.5.0/samples/porting/fal_flash_sfud_port.c:0:9
	mov.w	r0, #-1
.Ltmp22:
	.loc	4 92 9 is_stmt 1                @ packages/fal-v0.5.0/samples/porting/fal_flash_sfud_port.c:92:9
	str	r0, [sp, #12]
	b	.LBB2_9
.Ltmp23:
.LBB2_8:
	.loc	4 95 12                         @ packages/fal-v0.5.0/samples/porting/fal_flash_sfud_port.c:95:12
	ldr	r0, [sp]
	.loc	4 95 5 is_stmt 0                @ packages/fal-v0.5.0/samples/porting/fal_flash_sfud_port.c:95:5
	str	r0, [sp, #12]
	b	.LBB2_9
.LBB2_9:
	.loc	4 96 1 is_stmt 1                @ packages/fal-v0.5.0/samples/porting/fal_flash_sfud_port.c:96:1
	ldr	r0, [sp, #12]
	add	sp, #16
	pop	{r7, pc}
.Ltmp24:
.Lfunc_end2:
	.size	write, .Lfunc_end2-write
	.cfi_endproc
	.cantunwind
	.fnend
                                        @ -- End function
	.section	.text.erase,"ax",%progbits
	.p2align	3                               @ -- Begin function erase
	.type	erase,%function
	.code	16                              @ @erase
	.thumb_func
erase:
.Lfunc_begin3:
	.loc	4 99 0                          @ packages/fal-v0.5.0/samples/porting/fal_flash_sfud_port.c:99:0
	.fnstart
	.cfi_startproc
@ %bb.0:
	.save	{r7, lr}
	push	{r7, lr}
	.cfi_def_cfa_offset 8
	.cfi_offset lr, -4
	.cfi_offset r7, -8
	.pad	#16
	sub	sp, #16
	.cfi_def_cfa_offset 24
	str	r0, [sp, #8]
	str	r1, [sp, #4]
.Ltmp25:
	.loc	4 100 5 prologue_end            @ packages/fal-v0.5.0/samples/porting/fal_flash_sfud_port.c:100:5
	movw	r0, :lower16:sfud_dev
	movt	r0, :upper16:sfud_dev
	ldr	r0, [r0]
.Ltmp26:
	.loc	4 100 5 is_stmt 0               @ packages/fal-v0.5.0/samples/porting/fal_flash_sfud_port.c:100:5
	cbnz	r0, .LBB3_3
	b	.LBB3_1
.LBB3_1:
.Ltmp27:
	.loc	4 100 5                         @ packages/fal-v0.5.0/samples/porting/fal_flash_sfud_port.c:100:5
	movw	r0, :lower16:.L.str.1
	movt	r0, :upper16:.L.str.1
	movw	r1, :lower16:.L.str.2
	movt	r1, :upper16:.L.str.2
	movw	r2, :lower16:.L__FUNCTION__.erase
	movt	r2, :upper16:.L__FUNCTION__.erase
	bl	rt_kprintf
	b	.LBB3_2
.LBB3_2:                                @ =>This Inner Loop Header: Depth=1
	b	.LBB3_2
.Ltmp28:
.LBB3_3:
	.loc	4 101 5 is_stmt 1               @ packages/fal-v0.5.0/samples/porting/fal_flash_sfud_port.c:101:5
	movw	r0, :lower16:sfud_dev
	movt	r0, :upper16:sfud_dev
	ldr	r0, [r0]
	ldrb.w	r0, [r0, #52]
.Ltmp29:
	.loc	4 101 5 is_stmt 0               @ packages/fal-v0.5.0/samples/porting/fal_flash_sfud_port.c:101:5
	lsls	r0, r0, #31
	cbnz	r0, .LBB3_6
	b	.LBB3_4
.LBB3_4:
.Ltmp30:
	.loc	4 101 5                         @ packages/fal-v0.5.0/samples/porting/fal_flash_sfud_port.c:101:5
	movw	r0, :lower16:.L.str.1
	movt	r0, :upper16:.L.str.1
	movw	r1, :lower16:.L.str.3
	movt	r1, :upper16:.L.str.3
	movw	r2, :lower16:.L__FUNCTION__.erase
	movt	r2, :upper16:.L__FUNCTION__.erase
	bl	rt_kprintf
	b	.LBB3_5
.LBB3_5:                                @ =>This Inner Loop Header: Depth=1
	b	.LBB3_5
.Ltmp31:
.LBB3_6:
	.loc	4 102 20 is_stmt 1              @ packages/fal-v0.5.0/samples/porting/fal_flash_sfud_port.c:102:20
	movw	r0, :lower16:sfud_dev
	movt	r0, :upper16:sfud_dev
	ldr	r0, [r0]
	.loc	4 102 41 is_stmt 0              @ packages/fal-v0.5.0/samples/porting/fal_flash_sfud_port.c:102:41
	movw	r1, :lower16:nor_flash0
	movt	r1, :upper16:nor_flash0
	ldr	r1, [r1, #24]
	.loc	4 102 48                        @ packages/fal-v0.5.0/samples/porting/fal_flash_sfud_port.c:102:48
	ldr	r2, [sp, #8]
	.loc	4 102 46                        @ packages/fal-v0.5.0/samples/porting/fal_flash_sfud_port.c:102:46
	add	r1, r2
	.loc	4 102 56                        @ packages/fal-v0.5.0/samples/porting/fal_flash_sfud_port.c:102:56
	ldr	r2, [sp, #4]
	.loc	4 102 9                         @ packages/fal-v0.5.0/samples/porting/fal_flash_sfud_port.c:102:9
	bl	sfud_erase
.Ltmp32:
	.loc	4 102 9                         @ packages/fal-v0.5.0/samples/porting/fal_flash_sfud_port.c:102:9
	cbz	r0, .LBB3_8
	b	.LBB3_7
.LBB3_7:
	.loc	4 0 9                           @ packages/fal-v0.5.0/samples/porting/fal_flash_sfud_port.c:0:9
	mov.w	r0, #-1
.Ltmp33:
	.loc	4 104 9 is_stmt 1               @ packages/fal-v0.5.0/samples/porting/fal_flash_sfud_port.c:104:9
	str	r0, [sp, #12]
	b	.LBB3_9
.Ltmp34:
.LBB3_8:
	.loc	4 107 12                        @ packages/fal-v0.5.0/samples/porting/fal_flash_sfud_port.c:107:12
	ldr	r0, [sp, #4]
	.loc	4 107 5 is_stmt 0               @ packages/fal-v0.5.0/samples/porting/fal_flash_sfud_port.c:107:5
	str	r0, [sp, #12]
	b	.LBB3_9
.LBB3_9:
	.loc	4 108 1 is_stmt 1               @ packages/fal-v0.5.0/samples/porting/fal_flash_sfud_port.c:108:1
	ldr	r0, [sp, #12]
	add	sp, #16
	pop	{r7, pc}
.Ltmp35:
.Lfunc_end3:
	.size	erase, .Lfunc_end3-erase
	.cfi_endproc
	.cantunwind
	.fnend
                                        @ -- End function
	.hidden	nor_flash0                      @ @nor_flash0
	.type	nor_flash0,%object
	.section	.data.nor_flash0,"aw",%progbits
	.globl	nor_flash0
	.p2align	2
nor_flash0:
	.asciz	"norflash0\000\000\000\000\000\000\000\000\000\000\000\000\000\000"
	.long	0                               @ 0x0
	.long	8388608                         @ 0x800000
	.long	4096                            @ 0x1000
	.long	init
	.long	read
	.long	write
	.long	erase
	.long	1                               @ 0x1
	.size	nor_flash0, 56

	.type	.L.str,%object                  @ @.str
	.section	.rodata.str1.1,"aMS",%progbits,1
.L.str:
	.asciz	"norflash0"
	.size	.L.str, 10

	.type	sfud_dev,%object                @ @sfud_dev
	.section	.bss.sfud_dev,"aw",%nobits
	.p2align	2
sfud_dev:
	.long	0
	.size	sfud_dev, 4

	.type	.L.str.1,%object                @ @.str.1
	.section	.rodata.str1.1,"aMS",%progbits,1
.L.str.1:
	.asciz	"(%s) has assert failed at %s.\n"
	.size	.L.str.1, 31

	.type	.L.str.2,%object                @ @.str.2
.L.str.2:
	.asciz	"sfud_dev"
	.size	.L.str.2, 9

	.type	.L__FUNCTION__.read,%object     @ @__FUNCTION__.read
.L__FUNCTION__.read:
	.asciz	"read"
	.size	.L__FUNCTION__.read, 5

	.type	.L.str.3,%object                @ @.str.3
.L.str.3:
	.asciz	"sfud_dev->init_ok"
	.size	.L.str.3, 18

	.type	.L__FUNCTION__.write,%object    @ @__FUNCTION__.write
.L__FUNCTION__.write:
	.asciz	"write"
	.size	.L__FUNCTION__.write, 6

	.type	.L__FUNCTION__.erase,%object    @ @__FUNCTION__.erase
.L__FUNCTION__.erase:
	.asciz	"erase"
	.size	.L__FUNCTION__.erase, 6

	.section	".note.GNU-stack","",%progbits
	.eabi_attribute	30, 6	@ Tag_ABI_optimization_goals
	.ARM_attribute	16, 1	@ Tag_AV_eba