	.text
	.syntax unified
	.eabi_attribute	67, "2.09"	@ Tag_conformance
	.cpu	cortex-m7
	.eabi_attribute	6, 13	@ Tag_CPU_arch
	.eabi_attribute	7, 77	@ Tag_CPU_arch_profile
	.eabi_attribute	8, 0	@ Tag_ARM_ISA_use
	.eabi_attribute	9, 2	@ Tag_THUMB_ISA_use
	.fpu	fpv5-d16
	.eabi_attribute	36, 1	@ Tag_FP_HP_extension
	.eabi_attribute	34, 1	@ Tag_CPU_unaligned_access
	.eabi_attribute	17, 1	@ Tag_ABI_PCS_GOT_use
	.eabi_attribute	20, 2	@ Tag_ABI_FP_denormal
	.eabi_attribute	21, 0	@ Tag_ABI_FP_exceptions
	.eabi_attribute	23, 1	@ Tag_ABI_FP_number_model
	.eabi_attribute	24, 1	@ Tag_ABI_align_needed
	.eabi_attribute	25, 1	@ Tag_ABI_align_preserved
	.eabi_attribute	28, 1	@ Tag_ABI_VFP_args
	.eabi_attribute	38, 1	@ Tag_ABI_FP_16bit_format
	.eabi_attribute	18, 2	@ Tag_ABI_PCS_wchar_t
	.eabi_attribute	26, 1	@ Tag_ABI_enum_size
	.eabi_attribute	14, 0	@ Tag_ABI_PCS_R9_use
	.file	"fal_flash.c"
	.file	1 "D:\\Keil_v5\\ARM\\ARMCLANG\\Bin\\..\\include" "time.h"
	.file	2 "E:\\STM32\\Learning\\STM32H750_ART_PI_RGBLCD" "packages/fal-v0.5.0/src/fal_flash.c"
	.file	3 "D:\\Keil_v5\\ARM\\ARMCLANG\\Bin\\..\\include" "stdint.h"
	.file	4 "E:\\STM32\\Learning\\STM32H750_ART_PI_RGBLCD" "./packages/fal-v0.5.0/inc/fal_def.h"
	.section	.text.fal_flash_init,"ax",%progbits
	.hidden	fal_flash_init                  @ -- Begin function fal_flash_init
	.globl	fal_flash_init
	.p2align	3
	.type	fal_flash_init,%function
	.code	16                              @ @fal_flash_init
	.thumb_func
fal_flash_init:
.Lfunc_begin0:
	.loc	2 43 0                          @ packages/fal-v0.5.0/src/fal_flash.c:43:0
	.fnstart
	.cfi_sections .debug_frame
	.cfi_startproc
@ %bb.0:
	.save	{r7, lr}
	push	{r7, lr}
	.cfi_def_cfa_offset 8
	.cfi_offset lr, -4
	.cfi_offset r7, -8
	.pad	#24
	sub	sp, #24
	.cfi_def_cfa_offset 32
.Ltmp0:
	.loc	2 46 9 prologue_end             @ packages/fal-v0.5.0/src/fal_flash.c:46:9
	movw	r0, :lower16:init_ok
	movt	r0, :upper16:init_ok
	ldrb	r0, [r0]
.Ltmp1:
	.loc	2 46 9 is_stmt 0                @ packages/fal-v0.5.0/src/fal_flash.c:46:9
	cbz	r0, .LBB0_2
	b	.LBB0_1
.LBB0_1:
	.loc	2 0 9                           @ packages/fal-v0.5.0/src/fal_flash.c:0:9
	movs	r0, #0
.Ltmp2:
	.loc	2 48 9 is_stmt 1                @ packages/fal-v0.5.0/src/fal_flash.c:48:9
	str	r0, [sp, #20]
	b	.LBB0_18
.Ltmp3:
.LBB0_2:
	.loc	2 0 9 is_stmt 0                 @ packages/fal-v0.5.0/src/fal_flash.c:0:9
	movs	r0, #0
.Ltmp4:
	.loc	2 51 12 is_stmt 1               @ packages/fal-v0.5.0/src/fal_flash.c:51:12
	str	r0, [sp, #16]
	.loc	2 51 10 is_stmt 0               @ packages/fal-v0.5.0/src/fal_flash.c:51:10
	b	.LBB0_3
.LBB0_3:                                @ =>This Inner Loop Header: Depth=1
.Ltmp5:
	.loc	2 51 17                         @ packages/fal-v0.5.0/src/fal_flash.c:51:17
	ldr	r0, [sp, #16]
.Ltmp6:
	.loc	2 51 5                          @ packages/fal-v0.5.0/src/fal_flash.c:51:5
	cmp	r0, #0
	bne.w	.LBB0_17
	b	.LBB0_4
.LBB0_4:                                @   in Loop: Header=BB0_3 Depth=1
.Ltmp7:
	.loc	2 53 9 is_stmt 1                @ packages/fal-v0.5.0/src/fal_flash.c:53:9
	ldr	r1, [sp, #16]
	movw	r0, :lower16:device_table
	movt	r0, :upper16:device_table
	ldr.w	r0, [r0, r1, lsl #2]
	ldr	r0, [r0, #40]
.Ltmp8:
	.loc	2 53 9 is_stmt 0                @ packages/fal-v0.5.0/src/fal_flash.c:53:9
	cbnz	r0, .LBB0_7
	b	.LBB0_5
.LBB0_5:
.Ltmp9:
	.loc	2 53 9                          @ packages/fal-v0.5.0/src/fal_flash.c:53:9
	movw	r0, :lower16:.L.str
	movt	r0, :upper16:.L.str
	movw	r1, :lower16:.L.str.1
	movt	r1, :upper16:.L.str.1
	movw	r2, :lower16:.L__FUNCTION__.fal_flash_init
	movt	r2, :upper16:.L__FUNCTION__.fal_flash_init
	bl	rt_kprintf
	b	.LBB0_6
.LBB0_6:                                @ =>This Inner Loop Header: Depth=1
	b	.LBB0_6
.Ltmp10:
.LBB0_7:                                @   in Loop: Header=BB0_3 Depth=1
	.loc	2 54 9 is_stmt 1                @ packages/fal-v0.5.0/src/fal_flash.c:54:9
	ldr	r1, [sp, #16]
	movw	r0, :lower16:device_table
	movt	r0, :upper16:device_table
	ldr.w	r0, [r0, r1, lsl #2]
	ldr	r0, [r0, #44]
.Ltmp11:
	.loc	2 54 9 is_stmt 0                @ packages/fal-v0.5.0/src/fal_flash.c:54:9
	cbnz	r0, .LBB0_10
	b	.LBB0_8
.LBB0_8:
.Ltmp12:
	.loc	2 54 9                          @ packages/fal-v0.5.0/src/fal_flash.c:54:9
	movw	r0, :lower16:.L.str
	movt	r0, :upper16:.L.str
	movw	r1, :lower16:.L.str.2
	movt	r1, :upper16:.L.str.2
	movw	r2, :lower16:.L__FUNCTION__.fal_flash_init
	movt	r2, :upper16:.L__FUNCTION__.fal_flash_init
	bl	rt_kprintf
	b	.LBB0_9
.LBB0_9:                                @ =>This Inner Loop Header: Depth=1
	b	.LBB0_9
.Ltmp13:
.LBB0_10:                               @   in Loop: Header=BB0_3 Depth=1
	.loc	2 55 9 is_stmt 1                @ packages/fal-v0.5.0/src/fal_flash.c:55:9
	ldr	r1, [sp, #16]
	movw	r0, :lower16:device_table
	movt	r0, :upper16:device_table
	ldr.w	r0, [r0, r1, lsl #2]
	ldr	r0, [r0, #48]
.Ltmp14:
	.loc	2 55 9 is_stmt 0                @ packages/fal-v0.5.0/src/fal_flash.c:55:9
	cbnz	r0, .LBB0_13
	b	.LBB0_11
.LBB0_11:
.Ltmp15:
	.loc	2 55 9                          @ packages/fal-v0.5.0/src/fal_flash.c:55:9
	movw	r0, :lower16:.L.str
	movt	r0, :upper16:.L.str
	movw	r1, :lower16:.L.str.3
	movt	r1, :upper16:.L.str.3
	movw	r2, :lower16:.L__FUNCTION__.fal_flash_init
	movt	r2, :upper16:.L__FUNCTION__.fal_flash_init
	bl	rt_kprintf
	b	.LBB0_12
.LBB0_12:                               @ =>This Inner Loop Header: Depth=1
	b	.LBB0_12
.Ltmp16:
.LBB0_13:                               @   in Loop: Header=BB0_3 Depth=1
	.loc	2 57 26 is_stmt 1               @ packages/fal-v0.5.0/src/fal_flash.c:57:26
	ldr	r1, [sp, #16]
	.loc	2 57 13 is_stmt 0               @ packages/fal-v0.5.0/src/fal_flash.c:57:13
	movw	r0, :lower16:device_table
	movt	r0, :upper16:device_table
	ldr.w	r0, [r0, r1, lsl #2]
	.loc	2 57 34                         @ packages/fal-v0.5.0/src/fal_flash.c:57:34
	ldr	r0, [r0, #36]
.Ltmp17:
	.loc	2 57 13                         @ packages/fal-v0.5.0/src/fal_flash.c:57:13
	cbz	r0, .LBB0_15
	b	.LBB0_14
.LBB0_14:                               @   in Loop: Header=BB0_3 Depth=1
.Ltmp18:
	.loc	2 59 26 is_stmt 1               @ packages/fal-v0.5.0/src/fal_flash.c:59:26
	ldr	r1, [sp, #16]
	.loc	2 59 13 is_stmt 0               @ packages/fal-v0.5.0/src/fal_flash.c:59:13
	movw	r0, :lower16:device_table
	movt	r0, :upper16:device_table
	ldr.w	r0, [r0, r1, lsl #2]
	.loc	2 59 34                         @ packages/fal-v0.5.0/src/fal_flash.c:59:34
	ldr	r0, [r0, #36]
	.loc	2 59 13                         @ packages/fal-v0.5.0/src/fal_flash.c:59:13
	blx	r0
	.loc	2 60 9 is_stmt 1                @ packages/fal-v0.5.0/src/fal_flash.c:60:9
	b	.LBB0_15
.Ltmp19:
.LBB0_15:                               @   in Loop: Header=BB0_3 Depth=1
	.loc	2 61 9                          @ packages/fal-v0.5.0/src/fal_flash.c:61:9
	movw	r0, :lower16:.L.str.4
	movt	r0, :upper16:.L.str.4
	movw	r1, :lower16:.L__FUNCTION__.fal_flash_init
	movt	r1, :upper16:.L__FUNCTION__.fal_flash_init
	movs	r2, #63
	bl	rt_kprintf
	ldr	r1, [sp, #16]
	movw	r0, :lower16:device_table
	movt	r0, :upper16:device_table
	ldr.w	r3, [r0, r1, lsl #2]
	ldr	r0, [r3, #24]
	ldr	r2, [r3, #28]
	ldr.w	r12, [r3, #32]
	mov	r1, sp
	str.w	r12, [r1, #8]
	str	r2, [r1, #4]
	str	r0, [r1]
	movw	r0, :lower16:.L.str.5
	movt	r0, :upper16:.L.str.5
	movs	r2, #24
	mov	r1, r2
	bl	rt_kprintf
	movw	r0, :lower16:.L.str.6
	movt	r0, :upper16:.L.str.6
	bl	rt_kprintf
	.loc	2 64 5                          @ packages/fal-v0.5.0/src/fal_flash.c:64:5
	b	.LBB0_16
.Ltmp20:
.LBB0_16:                               @   in Loop: Header=BB0_3 Depth=1
	.loc	2 51 40                         @ packages/fal-v0.5.0/src/fal_flash.c:51:40
	ldr	r0, [sp, #16]
	adds	r0, #1
	str	r0, [sp, #16]
	.loc	2 51 5 is_stmt 0                @ packages/fal-v0.5.0/src/fal_flash.c:51:5
	b	.LBB0_3
.Ltmp21:
.LBB0_17:
	.loc	2 66 13 is_stmt 1               @ packages/fal-v0.5.0/src/fal_flash.c:66:13
	movw	r1, :lower16:init_ok
	movt	r1, :upper16:init_ok
	movs	r0, #1
	strb	r0, [r1]
	movs	r0, #0
	.loc	2 67 5                          @ packages/fal-v0.5.0/src/fal_flash.c:67:5
	str	r0, [sp, #20]
	b	.LBB0_18
.LBB0_18:
	.loc	2 68 1                          @ packages/fal-v0.5.0/src/fal_flash.c:68:1
	ldr	r0, [sp, #20]
	add	sp, #24
	pop	{r7, pc}
.Ltmp22:
.Lfunc_end0:
	.size	fal_flash_init, .Lfunc_end0-fal_flash_init
	.cfi_endproc
	.cantunwind
	.fnend
                                        @ -- End function
	.section	.text.fal_flash_device_find,"ax",%progbits
	.hidden	fal_flash_device_find           @ -- Begin function fal_flash_device_find
	.globl	fal_flash_device_find
	.p2align	3
	.type	fal_flash_device_find,%function
	.code	16                              @ @fal_flash_device_find
	.thumb_func
fal_flash_device_find:
.Lfunc_begin1:
	.loc	2 79 0                          @ packages/fal-v0.5.0/src/fal_flash.c:79:0
	.fnstart
	.cfi_startproc
@ %bb.0:
	.save	{r7, lr}
	push	{r7, lr}
	.cfi_def_cfa_offset 8
	.cfi_offset lr, -4
	.cfi_offset r7, -8
	.pad	#16
	sub	sp, #16
	.cfi_def_cfa_offset 24
	str	r0, [sp, #8]
.Ltmp23:
	.loc	2 80 5 prologue_end             @ packages/fal-v0.5.0/src/fal_flash.c:80:5
	movw	r0, :lower16:init_ok
	movt	r0, :upper16:init_ok
	ldrb	r0, [r0]
.Ltmp24:
	.loc	2 80 5 is_stmt 0                @ packages/fal-v0.5.0/src/fal_flash.c:80:5
	cbnz	r0, .LBB1_3
	b	.LBB1_1
.LBB1_1:
.Ltmp25:
	.loc	2 80 5                          @ packages/fal-v0.5.0/src/fal_flash.c:80:5
	movw	r0, :lower16:.L.str
	movt	r0, :upper16:.L.str
	movw	r1, :lower16:.L.str.7
	movt	r1, :upper16:.L.str.7
	movw	r2, :lower16:.L__FUNCTION__.fal_flash_device_find
	movt	r2, :upper16:.L__FUNCTION__.fal_flash_device_find
	bl	rt_kprintf
	b	.LBB1_2
.LBB1_2:                                @ =>This Inner Loop Header: Depth=1
	b	.LBB1_2
.Ltmp26:
.LBB1_3:
	.loc	2 81 5 is_stmt 1                @ packages/fal-v0.5.0/src/fal_flash.c:81:5
	ldr	r0, [sp, #8]
.Ltmp27:
	.loc	2 81 5 is_stmt 0                @ packages/fal-v0.5.0/src/fal_flash.c:81:5
	cbnz	r0, .LBB1_6
	b	.LBB1_4
.LBB1_4:
.Ltmp28:
	.loc	2 81 5                          @ packages/fal-v0.5.0/src/fal_flash.c:81:5
	movw	r0, :lower16:.L.str
	movt	r0, :upper16:.L.str
	movw	r1, :lower16:.L.str.8
	movt	r1, :upper16:.L.str.8
	movw	r2, :lower16:.L__FUNCTION__.fal_flash_device_find
	movt	r2, :upper16:.L__FUNCTION__.fal_flash_device_find
	bl	rt_kprintf
	b	.LBB1_5
.LBB1_5:                                @ =>This Inner Loop Header: Depth=1
	b	.LBB1_5
.Ltmp29:
.LBB1_6:
	.loc	2 0 5                           @ packages/fal-v0.5.0/src/fal_flash.c:0:5
	movs	r0, #0
.Ltmp30:
	.loc	2 85 12 is_stmt 1               @ packages/fal-v0.5.0/src/fal_flash.c:85:12
	str	r0, [sp, #4]
	.loc	2 85 10 is_stmt 0               @ packages/fal-v0.5.0/src/fal_flash.c:85:10
	b	.LBB1_7
.LBB1_7:                                @ =>This Inner Loop Header: Depth=1
.Ltmp31:
	.loc	2 85 17                         @ packages/fal-v0.5.0/src/fal_flash.c:85:17
	ldr	r0, [sp, #4]
.Ltmp32:
	.loc	2 85 5                          @ packages/fal-v0.5.0/src/fal_flash.c:85:5
	cbnz	r0, .LBB1_12
	b	.LBB1_8
.LBB1_8:                                @   in Loop: Header=BB1_7 Depth=1
.Ltmp33:
	.loc	2 87 22 is_stmt 1               @ packages/fal-v0.5.0/src/fal_flash.c:87:22
	ldr	r0, [sp, #8]
	.loc	2 87 41 is_stmt 0               @ packages/fal-v0.5.0/src/fal_flash.c:87:41
	ldr	r2, [sp, #4]
	.loc	2 87 28                         @ packages/fal-v0.5.0/src/fal_flash.c:87:28
	movw	r1, :lower16:device_table
	movt	r1, :upper16:device_table
	ldr.w	r1, [r1, r2, lsl #2]
	movs	r2, #24
	.loc	2 87 14                         @ packages/fal-v0.5.0/src/fal_flash.c:87:14
	bl	strncmp
.Ltmp34:
	.loc	2 87 13                         @ packages/fal-v0.5.0/src/fal_flash.c:87:13
	cbnz	r0, .LBB1_10
	b	.LBB1_9
.LBB1_9:
.Ltmp35:
	.loc	2 88 33 is_stmt 1               @ packages/fal-v0.5.0/src/fal_flash.c:88:33
	ldr	r1, [sp, #4]
	.loc	2 88 20 is_stmt 0               @ packages/fal-v0.5.0/src/fal_flash.c:88:20
	movw	r0, :lower16:device_table
	movt	r0, :upper16:device_table
	ldr.w	r0, [r0, r1, lsl #2]
	.loc	2 88 13                         @ packages/fal-v0.5.0/src/fal_flash.c:88:13
	str	r0, [sp, #12]
	b	.LBB1_13
.Ltmp36:
.LBB1_10:                               @   in Loop: Header=BB1_7 Depth=1
	.loc	2 90 5 is_stmt 1                @ packages/fal-v0.5.0/src/fal_flash.c:90:5
	b	.LBB1_11
.Ltmp37:
.LBB1_11:                               @   in Loop: Header=BB1_7 Depth=1
	.loc	2 85 40                         @ packages/fal-v0.5.0/src/fal_flash.c:85:40
	ldr	r0, [sp, #4]
	adds	r0, #1
	str	r0, [sp, #4]
	.loc	2 85 5 is_stmt 0                @ packages/fal-v0.5.0/src/fal_flash.c:85:5
	b	.LBB1_7
.Ltmp38:
.LBB1_12:
	.loc	2 0 5                           @ packages/fal-v0.5.0/src/fal_flash.c:0:5
	movs	r0, #0
	.loc	2 92 5 is_stmt 1                @ packages/fal-v0.5.0/src/fal_flash.c:92:5
	str	r0, [sp, #12]
	b	.LBB1_13
.LBB1_13:
	.loc	2 93 1                          @ packages/fal-v0.5.0/src/fal_flash.c:93:1
	ldr	r0, [sp, #12]
	add	sp, #16
	pop	{r7, pc}
.Ltmp39:
.Lfunc_end1:
	.size	fal_flash_device_find, .Lfunc_end1-fal_flash_device_find
	.cfi_endproc
	.cantunwind
	.fnend
                                        @ -- End function
	.type	init_ok,%object                 @ @init_ok
	.section	.bss.init_ok,"aw",%nobits
init_ok:
	.byte	0                               @ 0x0
	.size	init_ok, 1

	.type	device_table,%object            @ @device_table
	.section	.rodata.device_table,"a",%progbits
	.p2align	2
device_table:
	.long	nor_flash0
	.size	device_table, 4

	.type	.L.str,%object                  @ @.str
	.section	.rodata.str1.1,"aMS",%progbits,1
.L.str:
	.asciz	"(%s) has assert failed at %s.\n"
	.size	.L.str, 31

	.type	.L.str.1,%object                @ @.str.1
.L.str.1:
	.asciz	"device_table[i]->ops.read"
	.size	.L.str.1, 26

	.type	.L__FUNCTION__.fal_flash_init,%object @ @__FUNCTION__.fal_flash_init
.L__FUNCTION__.fal_flash_init:
	.asciz	"fal_flash_init"
	.size	.L__FUNCTION__.fal_flash_init, 15

	.type	.L.str.2,%object                @ @.str.2
.L.str.2:
	.asciz	"device_table[i]->ops.write"
	.size	.L.str.2, 27

	.type	.L.str.3,%object                @ @.str.3
.L.str.3:
	.asciz	"device_table[i]->ops.erase"
	.size	.L.str.3, 27

	.type	.L.str.4,%object                @ @.str.4
.L.str.4:
	.asciz	"[D/FAL] (%s:%d) "
	.size	.L.str.4, 17

	.type	.L.str.5,%object                @ @.str.5
.L.str.5:
	.asciz	"Flash device | %*.*s | addr: 0x%08lx | len: 0x%08x | blk_size: 0x%08x |initialized finish."
	.size	.L.str.5, 91

	.type	.L.str.6,%object                @ @.str.6
.L.str.6:
	.asciz	"\n"
	.size	.L.str.6, 2

	.type	.L.str.7,%object                @ @.str.7
.L.str.7:
	.asciz	"init_ok"
	.size	.L.str.7, 8

	.type	.L__FUNCTION__.fal_flash_device_find,%object @ @__FUNCTION__.fal_flash_device_find
.L__FUNCTION__.fal_flash_device_find:
	.asciz	"fal_flash_device_find"
	.size	.L__FUNCTION__.fal_flash_device_find, 22

	.type	.L.str.8,%object                @ @.str.8
.L.str.8:
	.asciz	"name"
	.size	.L.str.8, 5

	.section	".note.GNU-stack","",%progbits
	.eabi_attribute	30, 6	@ Tag_ABI_optimization_goals
	.ARM_attribute	16, 1	@ Tag_AV_eba