	.text
	.syntax unified
	.eabi_attribute	67, "2.09"	@ Tag_conformance
	.cpu	cortex-m7
	.eabi_attribute	6, 13	@ Tag_CPU_arch
	.eabi_attribute	7, 77	@ Tag_CPU_arch_profile
	.eabi_attribute	8, 0	@ Tag_ARM_ISA_use
	.eabi_attribute	9, 2	@ Tag_THUMB_ISA_use
	.fpu	fpv5-d16
	.eabi_attribute	36, 1	@ Tag_FP_HP_extension
	.eabi_attribute	34, 1	@ Tag_CPU_unaligned_access
	.eabi_attribute	17, 1	@ Tag_ABI_PCS_GOT_use
	.eabi_attribute	20, 2	@ Tag_ABI_FP_denormal
	.eabi_attribute	21, 0	@ Tag_ABI_FP_exceptions
	.eabi_attribute	23, 1	@ Tag_ABI_FP_number_model
	.eabi_attribute	24, 1	@ Tag_ABI_align_needed
	.eabi_attribute	25, 1	@ Tag_ABI_align_preserved
	.eabi_attribute	28, 1	@ Tag_ABI_VFP_args
	.eabi_attribute	38, 1	@ Tag_ABI_FP_16bit_format
	.eabi_attribute	18, 2	@ Tag_ABI_PCS_wchar_t
	.eabi_attribute	26, 1	@ Tag_ABI_enum_size
	.eabi_attribute	14, 0	@ Tag_ABI_PCS_R9_use
	.file	"fal_partition.c"
	.file	1 "D:\\Keil_v5\\ARM\\ARMCLANG\\Bin\\..\\include" "stdint.h"
	.file	2 "E:\\Smart-access-control\\Hardware\\CODE" "./packages/fal-v0.5.0/inc/fal_def.h"
	.file	3 "D:\\Keil_v5\\ARM\\ARMCLANG\\Bin\\..\\include" "time.h"
	.file	4 "E:\\Smart-access-control\\Hardware\\CODE" "packages/fal-v0.5.0/src/fal_partition.c"
	.section	.text.fal_show_part_table,"ax",%progbits
	.hidden	fal_show_part_table             @ -- Begin function fal_show_part_table
	.globl	fal_show_part_table
	.p2align	3
	.type	fal_show_part_table,%function
	.code	16                              @ @fal_show_part_table
	.thumb_func
fal_show_part_table:
.Lfunc_begin0:
	.loc	4 82 0                          @ packages/fal-v0.5.0/src/fal_partition.c:82:0
	.fnstart
	.cfi_sections .debug_frame
	.cfi_startproc
@ %bb.0:
	.save	{r4, r5, r6, r7, r8, r9, r10, r11, lr}
	push.w	{r4, r5, r6, r7, r8, r9, r10, r11, lr}
	.cfi_def_cfa_offset 36
	.cfi_offset lr, -4
	.cfi_offset r11, -8
	.cfi_offset r10, -12
	.cfi_offset r9, -16
	.cfi_offset r8, -20
	.cfi_offset r7, -24
	.cfi_offset r6, -28
	.cfi_offset r5, -32
	.cfi_offset r4, -36
	.pad	#20
	sub	sp, #20
	.cfi_def_cfa_offset 56
.Ltmp0:
	@DEBUG_VALUE: fal_show_part_table:part_name_max <- 4
	@DEBUG_VALUE: fal_show_part_table:flash_dev_name_max <- 9
	.loc	4 87 9 prologue_end             @ packages/fal-v0.5.0/src/fal_partition.c:87:9
	movw	r10, :lower16:partition_table_len
	movw	r0, :lower16:partition_table
	movt	r10, :upper16:partition_table_len
	movt	r0, :upper16:partition_table
	ldr.w	r7, [r10]
.Ltmp1:
	@DEBUG_VALUE: fal_show_part_table:i <- 0
	@DEBUG_VALUE: fal_show_part_table:item2 <- undef
	@DEBUG_VALUE: fal_show_part_table:item1 <- undef
	.loc	4 87 9 is_stmt 0                @ packages/fal-v0.5.0/src/fal_partition.c:87:9
	cbz	r7, .LBB0_3
.Ltmp2:
@ %bb.1:
	@DEBUG_VALUE: fal_show_part_table:i <- 0
	@DEBUG_VALUE: fal_show_part_table:flash_dev_name_max <- 9
	@DEBUG_VALUE: fal_show_part_table:part_name_max <- 4
	.loc	4 0 9                           @ packages/fal-v0.5.0/src/fal_partition.c:0:9
	mov	r8, r0
	ldr	r0, [r0]
.Ltmp3:
	.loc	4 89 9 is_stmt 1                @ packages/fal-v0.5.0/src/fal_partition.c:89:9
	add.w	r5, r0, #28
	movs	r4, #4
	movs	r6, #9
.Ltmp4:
	.p2align	2
.LBB0_2:                                @ =>This Inner Loop Header: Depth=1
	@DEBUG_VALUE: fal_show_part_table:part_name_max <- $r4
	@DEBUG_VALUE: fal_show_part_table:flash_dev_name_max <- $r6
	@DEBUG_VALUE: fal_show_part_table:i <- undef
	@DEBUG_VALUE: fal_show_part_table:part <- undef
	.loc	4 92 17                         @ packages/fal-v0.5.0/src/fal_partition.c:92:17
	sub.w	r0, r5, #24
	bl	strlen
.Ltmp5:
	.loc	4 92 17 is_stmt 0               @ packages/fal-v0.5.0/src/fal_partition.c:92:17
	cmp	r0, r4
	it	hi
	movhi	r4, r0
.Ltmp6:
	@DEBUG_VALUE: fal_show_part_table:part_name_max <- $r4
	.loc	4 96 17 is_stmt 1               @ packages/fal-v0.5.0/src/fal_partition.c:96:17
	mov	r0, r5
	bl	strlen
.Ltmp7:
	.loc	4 96 17 is_stmt 0               @ packages/fal-v0.5.0/src/fal_partition.c:96:17
	cmp	r0, r6
.Ltmp8:
	.loc	4 89 23 is_stmt 1               @ packages/fal-v0.5.0/src/fal_partition.c:89:23
	add.w	r5, r5, #64
.Ltmp9:
	.loc	4 96 17                         @ packages/fal-v0.5.0/src/fal_partition.c:96:17
	it	hi
	movhi	r6, r0
.Ltmp10:
	@DEBUG_VALUE: fal_show_part_table:i <- [DW_OP_plus_uconst 1, DW_OP_stack_value] undef
	@DEBUG_VALUE: fal_show_part_table:flash_dev_name_max <- $r6
	.loc	4 89 23                         @ packages/fal-v0.5.0/src/fal_partition.c:89:23
	subs	r7, #1
.Ltmp11:
	.loc	4 89 9 is_stmt 0                @ packages/fal-v0.5.0/src/fal_partition.c:89:9
	bne	.LBB0_2
	b	.LBB0_4
.Ltmp12:
.LBB0_3:
	@DEBUG_VALUE: fal_show_part_table:i <- 0
	@DEBUG_VALUE: fal_show_part_table:flash_dev_name_max <- 9
	@DEBUG_VALUE: fal_show_part_table:part_name_max <- 4
	.loc	4 0 9                           @ packages/fal-v0.5.0/src/fal_partition.c:0:9
	mov	r8, r0
	movs	r6, #9
	movs	r4, #4
.Ltmp13:
.LBB0_4:
	@DEBUG_VALUE: fal_show_part_table:part_name_max <- $r4
	@DEBUG_VALUE: fal_show_part_table:flash_dev_name_max <- $r6
	.loc	4 102 5 is_stmt 1               @ packages/fal-v0.5.0/src/fal_partition.c:102:5
	movw	r5, :lower16:.L.str.2
	movt	r5, :upper16:.L.str.2
	mov	r0, r5
	bl	rt_kprintf
	movw	r0, :lower16:.L.str.3
	movt	r0, :upper16:.L.str.3
	bl	rt_kprintf
	movw	r7, :lower16:.L.str.4
	movt	r7, :upper16:.L.str.4
	mov	r0, r7
	bl	rt_kprintf
	.loc	4 103 5                         @ packages/fal-v0.5.0/src/fal_partition.c:103:5
	mov	r0, r5
	bl	rt_kprintf
	movs	r0, #24
	adr	r3, .LCPI0_2
	strd	r6, r0, [sp]
	adr	r0, .LCPI0_1
	movs	r2, #24
	adr	r1, .LCPI0_0
	str	r1, [sp, #8]
	mov	r1, r4
	bl	rt_kprintf
	mov	r0, r7
	bl	rt_kprintf
	.loc	4 105 5                         @ packages/fal-v0.5.0/src/fal_partition.c:105:5
	mov	r0, r5
	bl	rt_kprintf
	adr	r0, .LCPI0_3
	bl	rt_kprintf
	mov	r0, r7
	bl	rt_kprintf
.Ltmp14:
	@DEBUG_VALUE: fal_show_part_table:i <- 0
	.loc	4 106 21                        @ packages/fal-v0.5.0/src/fal_partition.c:106:21
	ldr.w	r0, [r10]
.Ltmp15:
	.loc	4 106 5 is_stmt 0               @ packages/fal-v0.5.0/src/fal_partition.c:106:5
	cbz	r0, .LBB0_7
.Ltmp16:
@ %bb.5:
	@DEBUG_VALUE: fal_show_part_table:flash_dev_name_max <- $r6
	@DEBUG_VALUE: fal_show_part_table:part_name_max <- $r4
	@DEBUG_VALUE: fal_show_part_table:i <- 0
	.loc	4 0 5                           @ packages/fal-v0.5.0/src/fal_partition.c:0:5
	mov	r5, r8
	mov.w	r9, #0
	mov.w	r8, #0
	movs	r7, #24
.Ltmp17:
	.p2align	2
.LBB0_6:                                @ =>This Inner Loop Header: Depth=1
	@DEBUG_VALUE: fal_show_part_table:flash_dev_name_max <- $r6
	@DEBUG_VALUE: fal_show_part_table:part_name_max <- $r4
	@DEBUG_VALUE: fal_show_part_table:i <- $r8
	.loc	4 115 9 is_stmt 1               @ packages/fal-v0.5.0/src/fal_partition.c:115:9
	movw	r0, :lower16:.L.str.2
	.loc	4 110 17                        @ packages/fal-v0.5.0/src/fal_partition.c:110:17
	ldr.w	r11, [r5]
.Ltmp18:
	@DEBUG_VALUE: fal_show_part_table:part <- undef
	.loc	4 115 9                         @ packages/fal-v0.5.0/src/fal_partition.c:115:9
	movt	r0, :upper16:.L.str.2
	bl	rt_kprintf
	add.w	r0, r11, r9
	adds	r3, r0, #4
	add.w	r1, r0, #28
	ldrd	r2, r0, [r0, #52]
	str	r0, [sp, #16]
	movw	r0, :lower16:.L.str.7
	strd	r1, r2, [sp, #8]
	movs	r2, #24
	movt	r0, :upper16:.L.str.7
	mov	r1, r4
	strd	r6, r7, [sp]
	bl	rt_kprintf
	movw	r0, :lower16:.L.str.4
	movt	r0, :upper16:.L.str.4
	bl	rt_kprintf
.Ltmp19:
	.loc	4 106 43                        @ packages/fal-v0.5.0/src/fal_partition.c:106:43
	add.w	r8, r8, #1
.Ltmp20:
	@DEBUG_VALUE: fal_show_part_table:i <- $r8
	.loc	4 106 21 is_stmt 0              @ packages/fal-v0.5.0/src/fal_partition.c:106:21
	ldr.w	r0, [r10]
.Ltmp21:
	.loc	4 106 5                         @ packages/fal-v0.5.0/src/fal_partition.c:106:5
	cmp	r8, r0
.Ltmp22:
	.loc	4 106 19                        @ packages/fal-v0.5.0/src/fal_partition.c:106:19
	add.w	r9, r9, #64
.Ltmp23:
	.loc	4 106 5                         @ packages/fal-v0.5.0/src/fal_partition.c:106:5
	blo	.LBB0_6
.Ltmp24:
.LBB0_7:
	@DEBUG_VALUE: fal_show_part_table:flash_dev_name_max <- $r6
	@DEBUG_VALUE: fal_show_part_table:part_name_max <- $r4
	.loc	4 118 5 is_stmt 1               @ packages/fal-v0.5.0/src/fal_partition.c:118:5
	movw	r0, :lower16:.L.str.2
	movt	r0, :upper16:.L.str.2
	bl	rt_kprintf
	movw	r0, :lower16:.L.str.8
	movt	r0, :upper16:.L.str.8
	bl	rt_kprintf
	movw	r0, :lower16:.L.str.4
	movt	r0, :upper16:.L.str.4
	bl	rt_kprintf
	.loc	4 119 1                         @ packages/fal-v0.5.0/src/fal_partition.c:119:1
	add	sp, #20
	pop.w	{r4, r5, r6, r7, r8, r9, r10, r11, pc}
.Ltmp25:
	.p2align	2
@ %bb.8:
	.loc	4 0 1 is_stmt 0                 @ packages/fal-v0.5.0/src/fal_partition.c:0:1
.LCPI0_0:
.L.str.1:
	.asciz	"flash_dev\000\000"
.LCPI0_1:
.L.str.5:
	.asciz	"| %-*.*s | %-*.*s |   offset   |    length  |\000\000"
.LCPI0_2:
.L.str:
	.asciz	"name\000\000\000"
.LCPI0_3:
.L.str.6:
	.asciz	"-------------------------------------------------------------\000\000"
.Lfunc_end0:
	.size	fal_show_part_table, .Lfunc_end0-fal_show_part_table
	.cfi_endproc
	.cantunwind
	.fnend
                                        @ -- End function
	.section	.text.fal_partition_init,"ax",%progbits
	.hidden	fal_partition_init              @ -- Begin function fal_partition_init
	.globl	fal_partition_init
	.p2align	3
	.type	fal_partition_init,%function
	.code	16                              @ @fal_partition_init
	.thumb_func
fal_partition_init:
.Lfunc_begin1:
	.loc	4 127 0 is_stmt 1               @ packages/fal-v0.5.0/src/fal_partition.c:127:0
	.fnstart
	.cfi_startproc
@ %bb.0:
	.save	{r4, r5, r6, r7, r8, r9, r10, r11, lr}
	push.w	{r4, r5, r6, r7, r8, r9, r10, r11, lr}
	.cfi_def_cfa_offset 36
	.cfi_offset lr, -4
	.cfi_offset r11, -8
	.cfi_offset r10, -12
	.cfi_offset r9, -16
	.cfi_offset r8, -20
	.cfi_offset r7, -24
	.cfi_offset r6, -28
	.cfi_offset r5, -32
	.cfi_offset r4, -36
	.pad	#4
	sub	sp, #4
	.cfi_def_cfa_offset 40
.Ltmp26:
	@DEBUG_VALUE: fal_partition_init:flash_dev <- 0
	.loc	4 131 9 prologue_end            @ packages/fal-v0.5.0/src/fal_partition.c:131:9
	movw	r0, :lower16:init_ok
	movw	r5, :lower16:partition_table_len
	movt	r0, :upper16:init_ok
	movt	r5, :upper16:partition_table_len
	ldrb	r0, [r0]
.Ltmp27:
	.loc	4 131 9 is_stmt 0               @ packages/fal-v0.5.0/src/fal_partition.c:131:9
	cmp	r0, #0
	bne	.LBB1_9
.Ltmp28:
@ %bb.1:
	@DEBUG_VALUE: fal_partition_init:flash_dev <- 0
	.loc	4 137 21 is_stmt 1              @ packages/fal-v0.5.0/src/fal_partition.c:137:21
	movw	r6, :lower16:partition_table
	movw	r9, :lower16:.L__FUNCTION__.fal_partition_init
	movt	r6, :upper16:partition_table
	movw	r0, :lower16:partition_table_def
	mov.w	r8, #0
	mov.w	r11, #52
.Ltmp29:
	@DEBUG_VALUE: fal_partition_init:i <- 0
	.loc	4 0 21 is_stmt 0                @ packages/fal-v0.5.0/src/fal_partition.c:0:21
	movt	r9, :upper16:.L__FUNCTION__.fal_partition_init
	adr.w	r10, .LCPI1_1
	adr	r7, .LCPI1_2
	.loc	4 137 21                        @ packages/fal-v0.5.0/src/fal_partition.c:137:21
	movt	r0, :upper16:partition_table_def
	str	r0, [r6]
	movs	r0, #5
	.loc	4 138 25 is_stmt 1              @ packages/fal-v0.5.0/src/fal_partition.c:138:25
	str	r0, [r5]
	b	.LBB1_4
.Ltmp30:
	.p2align	2
.LBB1_2:                                @   in Loop: Header=BB1_4 Depth=1
	@DEBUG_VALUE: fal_partition_init:i <- $r8
	@DEBUG_VALUE: fal_partition_init:flash_dev <- $r0
	.loc	4 272 13                        @ packages/fal-v0.5.0/src/fal_partition.c:272:13
	mov.w	r2, #272
	adr	r0, .LCPI1_0
.Ltmp31:
	mov	r1, r9
	bl	rt_kprintf
	ldr	r0, [r6]
	add	r0, r11
	sub.w	r1, r0, #24
	mov	r0, r10
	bl	rt_kprintf
	mov	r0, r7
	bl	rt_kprintf
.Ltmp32:
.LBB1_3:                                @   in Loop: Header=BB1_4 Depth=1
	@DEBUG_VALUE: fal_partition_init:i <- $r8
	.loc	4 267 43                        @ packages/fal-v0.5.0/src/fal_partition.c:267:43
	add.w	r8, r8, #1
.Ltmp33:
	@DEBUG_VALUE: fal_partition_init:i <- $r8
	.loc	4 267 21 is_stmt 0              @ packages/fal-v0.5.0/src/fal_partition.c:267:21
	ldr	r0, [r5]
.Ltmp34:
	.loc	4 267 5                         @ packages/fal-v0.5.0/src/fal_partition.c:267:5
	cmp	r8, r0
.Ltmp35:
	.loc	4 267 19                        @ packages/fal-v0.5.0/src/fal_partition.c:267:19
	add.w	r11, r11, #64
	bhs	.LBB1_7
.Ltmp36:
.LBB1_4:                                @ =>This Inner Loop Header: Depth=1
	@DEBUG_VALUE: fal_partition_init:i <- $r8
	.loc	4 269 43 is_stmt 1              @ packages/fal-v0.5.0/src/fal_partition.c:269:43
	ldr	r0, [r6]
	.loc	4 269 21 is_stmt 0              @ packages/fal-v0.5.0/src/fal_partition.c:269:21
	add	r0, r11
	subs	r0, #24
	bl	fal_flash_device_find
.Ltmp37:
	@DEBUG_VALUE: fal_partition_init:flash_dev <- $r0
	.loc	4 270 13 is_stmt 1              @ packages/fal-v0.5.0/src/fal_partition.c:270:13
	cmp	r0, #0
	beq	.LBB1_2
.Ltmp38:
@ %bb.5:                                @   in Loop: Header=BB1_4 Depth=1
	@DEBUG_VALUE: fal_partition_init:i <- $r8
	@DEBUG_VALUE: fal_partition_init:flash_dev <- $r0
	.loc	4 0 0 is_stmt 0                 @ packages/fal-v0.5.0/src/fal_partition.c:0:0
	mov	r4, r0
.Ltmp39:
	@DEBUG_VALUE: fal_partition_init:flash_dev <- $r4
	@DEBUG_VALUE: fal_partition_init:flash_dev <- $r4
	.loc	4 276 13 is_stmt 1              @ packages/fal-v0.5.0/src/fal_partition.c:276:13
	ldr	r0, [r6]
	.loc	4 276 32 is_stmt 0              @ packages/fal-v0.5.0/src/fal_partition.c:276:32
	ldr.w	r0, [r0, r11]
	.loc	4 276 59                        @ packages/fal-v0.5.0/src/fal_partition.c:276:59
	ldr	r1, [r4, #28]
.Ltmp40:
	.loc	4 276 13                        @ packages/fal-v0.5.0/src/fal_partition.c:276:13
	cmp	r0, r1
	blt	.LBB1_3
.Ltmp41:
@ %bb.6:
	@DEBUG_VALUE: fal_partition_init:i <- $r8
	@DEBUG_VALUE: fal_partition_init:flash_dev <- $r4
	.loc	4 278 13 is_stmt 1              @ packages/fal-v0.5.0/src/fal_partition.c:278:13
	movw	r0, :lower16:.L.str.12
	movw	r1, :lower16:.L__FUNCTION__.fal_partition_init
	movt	r0, :upper16:.L.str.12
	movt	r1, :upper16:.L__FUNCTION__.fal_partition_init
	movw	r2, #279
	bl	rt_kprintf
	ldr	r0, [r6]
	ldr	r3, [r4, #28]
	add.w	r1, r0, r11
	movw	r0, :lower16:.L.str.13
	movt	r0, :upper16:.L.str.13
	ldr	r2, [r1], #-48
	bl	rt_kprintf
	movw	r0, :lower16:.L.str.4
	movt	r0, :upper16:.L.str.4
	bl	rt_kprintf
	movs	r0, #0
	.loc	4 280 33                        @ packages/fal-v0.5.0/src/fal_partition.c:280:33
	str	r0, [r5]
	b	.LBB1_8
.Ltmp42:
.LBB1_7:
	@DEBUG_VALUE: fal_partition_init:i <- $r8
	.loc	4 285 13                        @ packages/fal-v0.5.0/src/fal_partition.c:285:13
	movw	r1, :lower16:init_ok
	movs	r0, #1
	movt	r1, :upper16:init_ok
	strb	r0, [r1]
.Ltmp43:
.LBB1_8:
	@DEBUG_VALUE: fal_partition_init:i <- $r8
	@DEBUG_LABEL: fal_partition_init:_exit
	.loc	4 290 5                         @ packages/fal-v0.5.0/src/fal_partition.c:290:5
	bl	fal_show_part_table
.Ltmp44:
.LBB1_9:
	.loc	4 0 0 is_stmt 0                 @ packages/fal-v0.5.0/src/fal_partition.c:0:0
	ldr	r0, [r5]
	.loc	4 301 1 is_stmt 1               @ packages/fal-v0.5.0/src/fal_partition.c:301:1
	add	sp, #4
	pop.w	{r4, r5, r6, r7, r8, r9, r10, r11, pc}
.Ltmp45:
	.p2align	2
@ %bb.10:
	.loc	4 0 1 is_stmt 0                 @ packages/fal-v0.5.0/src/fal_partition.c:0:1
.LCPI1_0:
.L.str.9:
	.asciz	"[D/FAL] (%s:%d) \000\000\000"
.LCPI1_1:
.L.str.10:
	.asciz	"Warning: Do NOT found the flash device(%s)."
.LCPI1_2:
.L.str.11:
	.asciz	"\n\000\000"
.Lfunc_end1:
	.size	fal_partition_init, .Lfunc_end1-fal_partition_init
	.cfi_endproc
	.cantunwind
	.fnend
                                        @ -- End function
	.section	.text.fal_partition_find,"ax",%progbits
	.hidden	fal_partition_find              @ -- Begin function fal_partition_find
	.globl	fal_partition_find
	.p2align	3
	.type	fal_partition_find,%function
	.code	16                              @ @fal_partition_find
	.thumb_func
fal_partition_find:
.Lfunc_begin2:
	.loc	4 312 0 is_stmt 1               @ packages/fal-v0.5.0/src/fal_partition.c:312:0
	.fnstart
	.cfi_startproc
@ %bb.0:
	@DEBUG_VALUE: fal_partition_find:name <- $r0
	.save	{r4, r5, r6, lr}
	push	{r4, r5, r6, lr}
	.cfi_def_cfa_offset 16
	.cfi_offset lr, -4
	.cfi_offset r6, -8
	.cfi_offset r5, -12
	.cfi_offset r4, -16
.Ltmp46:
	.loc	4 313 5 prologue_end            @ packages/fal-v0.5.0/src/fal_partition.c:313:5
	movw	r1, :lower16:init_ok
	movt	r1, :upper16:init_ok
	ldrb	r1, [r1]
.Ltmp47:
	.loc	4 313 5 is_stmt 0               @ packages/fal-v0.5.0/src/fal_partition.c:313:5
	cmp	r1, #1
	@DEBUG_VALUE: fal_partition_find:name <- $r0
	bne	.LBB2_7
.Ltmp48:
@ %bb.1:
	@DEBUG_VALUE: fal_partition_find:name <- $r0
	.loc	4 0 5                           @ packages/fal-v0.5.0/src/fal_partition.c:0:5
	mov	r4, r0
.Ltmp49:
	@DEBUG_VALUE: fal_partition_find:name <- $r4
	@DEBUG_VALUE: fal_partition_find:name <- $r4
	@DEBUG_VALUE: fal_partition_find:i <- 0
	.loc	4 317 21 is_stmt 1              @ packages/fal-v0.5.0/src/fal_partition.c:317:21
	movw	r0, :lower16:partition_table_len
	movt	r0, :upper16:partition_table_len
	ldr	r1, [r0]
.Ltmp50:
	.loc	4 317 5 is_stmt 0               @ packages/fal-v0.5.0/src/fal_partition.c:317:5
	cbz	r1, .LBB2_9
.Ltmp51:
@ %bb.2:
	@DEBUG_VALUE: fal_partition_find:name <- $r4
	@DEBUG_VALUE: fal_partition_find:i <- 0
	.loc	4 0 5                           @ packages/fal-v0.5.0/src/fal_partition.c:0:5
	ldr	r6, [r0]
	movw	r0, :lower16:partition_table
	movt	r0, :upper16:partition_table
	.loc	4 317 5                         @ packages/fal-v0.5.0/src/fal_partition.c:317:5
	cmp	r6, #1
	ldr	r5, [r0]
	it	ls
	movls	r6, #1
.Ltmp52:
	.p2align	2
.LBB2_3:                                @ =>This Inner Loop Header: Depth=1
	@DEBUG_VALUE: fal_partition_find:name <- $r4
	@DEBUG_VALUE: fal_partition_find:i <- undef
	.loc	4 319 14 is_stmt 1              @ packages/fal-v0.5.0/src/fal_partition.c:319:14
	adds	r1, r5, #4
	mov	r0, r4
	bl	strcmp
.Ltmp53:
	.loc	4 319 13 is_stmt 0              @ packages/fal-v0.5.0/src/fal_partition.c:319:13
	cbz	r0, .LBB2_6
.Ltmp54:
@ %bb.4:                                @   in Loop: Header=BB2_3 Depth=1
	@DEBUG_VALUE: fal_partition_find:name <- $r4
	@DEBUG_VALUE: fal_partition_find:i <- [DW_OP_plus_uconst 1, DW_OP_stack_value] undef
	.loc	4 317 19 is_stmt 1              @ packages/fal-v0.5.0/src/fal_partition.c:317:19
	subs	r6, #1
	add.w	r5, r5, #64
.Ltmp55:
	.loc	4 317 5 is_stmt 0               @ packages/fal-v0.5.0/src/fal_partition.c:317:5
	bne	.LBB2_3
.Ltmp56:
@ %bb.5:
	@DEBUG_VALUE: fal_partition_find:name <- $r4
	.loc	4 0 5                           @ packages/fal-v0.5.0/src/fal_partition.c:0:5
	movs	r5, #0
.Ltmp57:
.LBB2_6:
	@DEBUG_VALUE: fal_partition_find:name <- $r4
	.loc	4 326 1 is_stmt 1               @ packages/fal-v0.5.0/src/fal_partition.c:326:1
	mov	r0, r5
	pop	{r4, r5, r6, pc}
.Ltmp58:
.LBB2_7:
	@DEBUG_VALUE: fal_partition_find:name <- $r0
	.loc	4 313 5                         @ packages/fal-v0.5.0/src/fal_partition.c:313:5
	movw	r0, :lower16:.L.str.14
.Ltmp59:
	@DEBUG_VALUE: fal_partition_find:name <- [DW_OP_LLVM_entry_value 1] $r0
	movw	r1, :lower16:.L.str.15
	movt	r0, :upper16:.L.str.14
	movt	r1, :upper16:.L.str.15
	adr	r2, .LCPI2_0
	bl	rt_kprintf
.Ltmp60:
	.p2align	2
.LBB2_8:                                @ =>This Inner Loop Header: Depth=1
	@DEBUG_VALUE: fal_partition_find:name <- [DW_OP_LLVM_entry_value 1] $r0
	b	.LBB2_8
.Ltmp61:
.LBB2_9:
	@DEBUG_VALUE: fal_partition_find:name <- $r4
	@DEBUG_VALUE: fal_partition_find:i <- 0
	.loc	4 0 5 is_stmt 0                 @ packages/fal-v0.5.0/src/fal_partition.c:0:5
	movs	r0, #0
	.loc	4 326 1 is_stmt 1               @ packages/fal-v0.5.0/src/fal_partition.c:326:1
	pop	{r4, r5, r6, pc}
.Ltmp62:
	.p2align	2
@ %bb.10:
	.loc	4 0 1 is_stmt 0                 @ packages/fal-v0.5.0/src/fal_partition.c:0:1
.LCPI2_0:
.L__FUNCTION__.fal_partition_find:
	.asciz	"fal_partition_find\000"
.Lfunc_end2:
	.size	fal_partition_find, .Lfunc_end2-fal_partition_find
	.cfi_endproc
	.cantunwind
	.fnend
                                        @ -- End function
	.section	.text.fal_get_partition_table,"ax",%progbits
	.hidden	fal_get_partition_table         @ -- Begin function fal_get_partition_table
	.globl	fal_get_partition_table
	.p2align	3
	.type	fal_get_partition_table,%function
	.code	16                              @ @fal_get_partition_table
	.thumb_func
fal_get_partition_table:
.Lfunc_begin3:
	.loc	4 336 0 is_stmt 1               @ packages/fal-v0.5.0/src/fal_partition.c:336:0
	.fnstart
	.cfi_startproc
@ %bb.0:
	@DEBUG_VALUE: fal_get_partition_table:len <- $r0
	.save	{r7, lr}
	push	{r7, lr}
	.cfi_def_cfa_offset 8
	.cfi_offset lr, -4
	.cfi_offset r7, -8
.Ltmp63:
	.loc	4 337 5 prologue_end            @ packages/fal-v0.5.0/src/fal_partition.c:337:5
	movw	r1, :lower16:init_ok
	movt	r1, :upper16:init_ok
	ldrb	r1, [r1]
.Ltmp64:
	@DEBUG_VALUE: fal_get_partition_table:len <- $r0
	.loc	4 337 5 is_stmt 0               @ packages/fal-v0.5.0/src/fal_partition.c:337:5
	cbz	r1, .LBB3_3
.Ltmp65:
@ %bb.1:
	@DEBUG_VALUE: fal_get_partition_table:len <- $r0
	.loc	4 338 5 is_stmt 1               @ packages/fal-v0.5.0/src/fal_partition.c:338:5
	cbz	r0, .LBB3_5
.Ltmp66:
@ %bb.2:
	@DEBUG_VALUE: fal_get_partition_table:len <- $r0
	.loc	4 342 12                        @ packages/fal-v0.5.0/src/fal_partition.c:342:12
	movw	r1, :lower16:partition_table
	.loc	4 340 12                        @ packages/fal-v0.5.0/src/fal_partition.c:340:12
	movw	r2, :lower16:partition_table_len
	.loc	4 342 12                        @ packages/fal-v0.5.0/src/fal_partition.c:342:12
	movt	r1, :upper16:partition_table
	.loc	4 340 12                        @ packages/fal-v0.5.0/src/fal_partition.c:340:12
	movt	r2, :upper16:partition_table_len
	.loc	4 342 12                        @ packages/fal-v0.5.0/src/fal_partition.c:342:12
	ldr	r1, [r1]
	.loc	4 340 12                        @ packages/fal-v0.5.0/src/fal_partition.c:340:12
	ldr	r2, [r2]
	.loc	4 340 10 is_stmt 0              @ packages/fal-v0.5.0/src/fal_partition.c:340:10
	str	r2, [r0]
	.loc	4 342 5 is_stmt 1               @ packages/fal-v0.5.0/src/fal_partition.c:342:5
	mov	r0, r1
.Ltmp67:
	@DEBUG_VALUE: fal_get_partition_table:len <- [DW_OP_LLVM_entry_value 1] $r0
	pop	{r7, pc}
.Ltmp68:
.LBB3_3:
	@DEBUG_VALUE: fal_get_partition_table:len <- $r0
	.loc	4 337 5                         @ packages/fal-v0.5.0/src/fal_partition.c:337:5
	movw	r0, :lower16:.L.str.14
.Ltmp69:
	@DEBUG_VALUE: fal_get_partition_table:len <- [DW_OP_LLVM_entry_value 1] $r0
	movw	r1, :lower16:.L.str.15
	movw	r2, :lower16:.L__FUNCTION__.fal_get_partition_table
	movt	r0, :upper16:.L.str.14
	movt	r1, :upper16:.L.str.15
	movt	r2, :upper16:.L__FUNCTION__.fal_get_partition_table
	bl	rt_kprintf
.Ltmp70:
	.p2align	2
.LBB3_4:                                @ =>This Inner Loop Header: Depth=1
	@DEBUG_VALUE: fal_get_partition_table:len <- [DW_OP_LLVM_entry_value 1] $r0
	b	.LBB3_4
.Ltmp71:
.LBB3_5:
	@DEBUG_VALUE: fal_get_partition_table:len <- $r0
	.loc	4 338 5                         @ packages/fal-v0.5.0/src/fal_partition.c:338:5
	movw	r0, :lower16:.L.str.14
.Ltmp72:
	@DEBUG_VALUE: fal_get_partition_table:len <- [DW_OP_LLVM_entry_value 1] $r0
	movw	r2, :lower16:.L__FUNCTION__.fal_get_partition_table
	movt	r0, :upper16:.L.str.14
	adr	r1, .LCPI3_0
	movt	r2, :upper16:.L__FUNCTION__.fal_get_partition_table
	bl	rt_kprintf
.Ltmp73:
	.p2align	2
.LBB3_6:                                @ =>This Inner Loop Header: Depth=1
	@DEBUG_VALUE: fal_get_partition_table:len <- [DW_OP_LLVM_entry_value 1] $r0
	b	.LBB3_6
.Ltmp74:
	.p2align	2
@ %bb.7:
	.loc	4 0 5 is_stmt 0                 @ packages/fal-v0.5.0/src/fal_partition.c:0:5
.LCPI3_0:
.L.str.16:
	.asciz	"len"
.Lfunc_end3:
	.size	fal_get_partition_table, .Lfunc_end3-fal_get_partition_table
	.cfi_endproc
	.cantunwind
	.fnend
                                        @ -- End function
	.section	.text.fal_set_partition_table_temp,"ax",%progbits
	.hidden	fal_set_partition_table_temp    @ -- Begin function fal_set_partition_table_temp
	.globl	fal_set_partition_table_temp
	.p2align	3
	.type	fal_set_partition_table_temp,%function
	.code	16                              @ @fal_set_partition_table_temp
	.thumb_func
fal_set_partition_table_temp:
.Lfunc_begin4:
	.loc	4 353 0 is_stmt 1               @ packages/fal-v0.5.0/src/fal_partition.c:353:0
	.fnstart
	.cfi_startproc
@ %bb.0:
	@DEBUG_VALUE: fal_set_partition_table_temp:table <- $r0
	@DEBUG_VALUE: fal_set_partition_table_temp:len <- $r1
	.save	{r7, lr}
	push	{r7, lr}
	.cfi_def_cfa_offset 8
	.cfi_offset lr, -4
	.cfi_offset r7, -8
.Ltmp75:
	.loc	4 354 5 prologue_end            @ packages/fal-v0.5.0/src/fal_partition.c:354:5
	movw	r2, :lower16:init_ok
	movt	r2, :upper16:init_ok
	ldrb	r2, [r2]
.Ltmp76:
	@DEBUG_VALUE: fal_set_partition_table_temp:len <- $r1
	@DEBUG_VALUE: fal_set_partition_table_temp:table <- $r0
	.loc	4 354 5 is_stmt 0               @ packages/fal-v0.5.0/src/fal_partition.c:354:5
	cbz	r2, .LBB4_3
.Ltmp77:
@ %bb.1:
	@DEBUG_VALUE: fal_set_partition_table_temp:len <- $r1
	@DEBUG_VALUE: fal_set_partition_table_temp:table <- $r0
	.loc	4 355 5 is_stmt 1               @ packages/fal-v0.5.0/src/fal_partition.c:355:5
	cbz	r0, .LBB4_5
.Ltmp78:
@ %bb.2:
	@DEBUG_VALUE: fal_set_partition_table_temp:len <- $r1
	@DEBUG_VALUE: fal_set_partition_table_temp:table <- $r0
	.loc	4 357 25                        @ packages/fal-v0.5.0/src/fal_partition.c:357:25
	movw	r2, :lower16:partition_table_len
	movt	r2, :upper16:partition_table_len
	str	r1, [r2]
	.loc	4 358 21                        @ packages/fal-v0.5.0/src/fal_partition.c:358:21
	movw	r1, :lower16:partition_table
.Ltmp79:
	@DEBUG_VALUE: fal_set_partition_table_temp:len <- [DW_OP_LLVM_entry_value 1] $r1
	movt	r1, :upper16:partition_table
	str	r0, [r1]
	.loc	4 359 1                         @ packages/fal-v0.5.0/src/fal_partition.c:359:1
	pop	{r7, pc}
.Ltmp80:
.LBB4_3:
	@DEBUG_VALUE: fal_set_partition_table_temp:len <- $r1
	@DEBUG_VALUE: fal_set_partition_table_temp:table <- $r0
	.loc	4 354 5                         @ packages/fal-v0.5.0/src/fal_partition.c:354:5
	movw	r0, :lower16:.L.str.14
.Ltmp81:
	@DEBUG_VALUE: fal_set_partition_table_temp:table <- [DW_OP_LLVM_entry_value 1] $r0
	movw	r1, :lower16:.L.str.15
.Ltmp82:
	@DEBUG_VALUE: fal_set_partition_table_temp:len <- [DW_OP_LLVM_entry_value 1] $r1
	movw	r2, :lower16:.L__FUNCTION__.fal_set_partition_table_temp
	movt	r0, :upper16:.L.str.14
	movt	r1, :upper16:.L.str.15
	movt	r2, :upper16:.L__FUNCTION__.fal_set_partition_table_temp
	bl	rt_kprintf
.Ltmp83:
	.p2align	2
.LBB4_4:                                @ =>This Inner Loop Header: Depth=1
	@DEBUG_VALUE: fal_set_partition_table_temp:len <- [DW_OP_LLVM_entry_value 1] $r1
	@DEBUG_VALUE: fal_set_partition_table_temp:table <- [DW_OP_LLVM_entry_value 1] $r0
	b	.LBB4_4
.Ltmp84:
.LBB4_5:
	@DEBUG_VALUE: fal_set_partition_table_temp:len <- $r1
	@DEBUG_VALUE: fal_set_partition_table_temp:table <- $r0
	.loc	4 355 5                         @ packages/fal-v0.5.0/src/fal_partition.c:355:5
	movw	r0, :lower16:.L.str.14
.Ltmp85:
	@DEBUG_VALUE: fal_set_partition_table_temp:table <- [DW_OP_LLVM_entry_value 1] $r0
	movw	r2, :lower16:.L__FUNCTION__.fal_set_partition_table_temp
	movt	r0, :upper16:.L.str.14
	adr	r1, .LCPI4_0
.Ltmp86:
	@DEBUG_VALUE: fal_set_partition_table_temp:len <- [DW_OP_LLVM_entry_value 1] $r1
	movt	r2, :upper16:.L__FUNCTION__.fal_set_partition_table_temp
	bl	rt_kprintf
.Ltmp87:
	.p2align	2
.LBB4_6:                                @ =>This Inner Loop Header: Depth=1
	@DEBUG_VALUE: fal_set_partition_table_temp:len <- [DW_OP_LLVM_entry_value 1] $r1
	@DEBUG_VALUE: fal_set_partition_table_temp:table <- [DW_OP_LLVM_entry_value 1] $r0
	b	.LBB4_6
.Ltmp88:
	.p2align	2
@ %bb.7:
	.loc	4 0 5 is_stmt 0                 @ packages/fal-v0.5.0/src/fal_partition.c:0:5
.LCPI4_0:
.L.str.17:
	.asciz	"table\000\000"
.Lfunc_end4:
	.size	fal_set_partition_table_temp, .Lfunc_end4-fal_set_partition_table_temp
	.cfi_endproc
	.cantunwind
	.fnend
                                        @ -- End function
	.section	.text.fal_partition_read,"ax",%progbits
	.hidden	fal_partition_read              @ -- Begin function fal_partition_read
	.globl	fal_partition_read
	.p2align	3
	.type	fal_partition_read,%function
	.code	16                              @ @fal_partition_read
	.thumb_func
fal_partition_read:
.Lfunc_begin5:
	.loc	4 373 0 is_stmt 1               @ packages/fal-v0.5.0/src/fal_partition.c:373:0
	.fnstart
	.cfi_startproc
@ %bb.0:
	@DEBUG_VALUE: fal_partition_read:part <- $r0
	@DEBUG_VALUE: fal_partition_read:addr <- $r1
	@DEBUG_VALUE: fal_partition_read:buf <- $r2
	@DEBUG_VALUE: fal_partition_read:size <- $r3
	@DEBUG_VALUE: fal_partition_read:part <- $r0
	.save	{r4, r5, r6, r7, r8, lr}
	push.w	{r4, r5, r6, r7, r8, lr}
	.cfi_def_cfa_offset 24
	.cfi_offset lr, -4
	.cfi_offset r8, -8
	.cfi_offset r7, -12
	.cfi_offset r6, -16
	.cfi_offset r5, -20
	.cfi_offset r4, -24
.Ltmp89:
	@DEBUG_VALUE: fal_partition_read:flash_dev <- 0
	@DEBUG_VALUE: fal_partition_read:ret <- 0
	@DEBUG_VALUE: fal_partition_read:size <- $r3
	@DEBUG_VALUE: fal_partition_read:buf <- $r2
	@DEBUG_VALUE: fal_partition_read:addr <- $r1
	.loc	4 377 5 prologue_end            @ packages/fal-v0.5.0/src/fal_partition.c:377:5
	cbz	r0, .LBB5_4
.Ltmp90:
@ %bb.1:
	@DEBUG_VALUE: fal_partition_read:size <- $r3
	@DEBUG_VALUE: fal_partition_read:buf <- $r2
	@DEBUG_VALUE: fal_partition_read:addr <- $r1
	@DEBUG_VALUE: fal_partition_read:part <- $r0
	@DEBUG_VALUE: fal_partition_read:ret <- 0
	@DEBUG_VALUE: fal_partition_read:flash_dev <- 0
	@DEBUG_VALUE: fal_partition_read:part <- $r0
	@DEBUG_VALUE: fal_partition_read:size <- $r3
	.loc	4 0 5 is_stmt 0                 @ packages/fal-v0.5.0/src/fal_partition.c:0:5
	mov	r7, r2
.Ltmp91:
	@DEBUG_VALUE: fal_partition_read:buf <- $r7
	@DEBUG_VALUE: fal_partition_read:addr <- $r1
	.loc	4 378 5 is_stmt 1               @ packages/fal-v0.5.0/src/fal_partition.c:378:5
	cbz	r2, .LBB5_6
.Ltmp92:
@ %bb.2:
	@DEBUG_VALUE: fal_partition_read:buf <- $r7
	@DEBUG_VALUE: fal_partition_read:size <- $r3
	@DEBUG_VALUE: fal_partition_read:addr <- $r1
	@DEBUG_VALUE: fal_partition_read:part <- $r0
	@DEBUG_VALUE: fal_partition_read:ret <- 0
	@DEBUG_VALUE: fal_partition_read:flash_dev <- 0
	.loc	4 0 5 is_stmt 0                 @ packages/fal-v0.5.0/src/fal_partition.c:0:5
	mov	r5, r0
.Ltmp93:
	@DEBUG_VALUE: fal_partition_read:part <- $r5
	@DEBUG_VALUE: fal_partition_read:part <- $r5
	mov	r4, r1
.Ltmp94:
	@DEBUG_VALUE: fal_partition_read:addr <- $r4
	.loc	4 380 14 is_stmt 1              @ packages/fal-v0.5.0/src/fal_partition.c:380:14
	adds	r0, r3, r1
	mov	r6, r3
.Ltmp95:
	@DEBUG_VALUE: fal_partition_read:size <- $r6
	@DEBUG_VALUE: fal_partition_read:size <- $r6
	.loc	4 380 29 is_stmt 0              @ packages/fal-v0.5.0/src/fal_partition.c:380:29
	ldr	r1, [r5, #56]
.Ltmp96:
	.loc	4 380 9                         @ packages/fal-v0.5.0/src/fal_partition.c:380:9
	cmp	r0, r1
	bls	.LBB5_8
.Ltmp97:
@ %bb.3:
	@DEBUG_VALUE: fal_partition_read:buf <- $r7
	@DEBUG_VALUE: fal_partition_read:size <- $r6
	@DEBUG_VALUE: fal_partition_read:part <- $r5
	@DEBUG_VALUE: fal_partition_read:addr <- $r4
	@DEBUG_VALUE: fal_partition_read:ret <- 0
	@DEBUG_VALUE: fal_partition_read:flash_dev <- 0
	.loc	4 382 9 is_stmt 1               @ packages/fal-v0.5.0/src/fal_partition.c:382:9
	movw	r0, :lower16:.L.str.12
	movw	r1, :lower16:.L__FUNCTION__.fal_partition_read
	movt	r0, :upper16:.L.str.12
	movt	r1, :upper16:.L__FUNCTION__.fal_partition_read
	mov.w	r2, #382
	bl	rt_kprintf
	adr	r0, .LCPI5_1
	bl	rt_kprintf
	mov.w	r5, #-1
.Ltmp98:
	@DEBUG_VALUE: fal_partition_read:part <- [DW_OP_LLVM_entry_value 1] $r0
	.loc	4 0 9 is_stmt 0                 @ packages/fal-v0.5.0/src/fal_partition.c:0:9
	b	.LBB5_13
.Ltmp99:
.LBB5_4:
	@DEBUG_VALUE: fal_partition_read:size <- $r3
	@DEBUG_VALUE: fal_partition_read:buf <- $r2
	@DEBUG_VALUE: fal_partition_read:addr <- $r1
	@DEBUG_VALUE: fal_partition_read:part <- $r0
	@DEBUG_VALUE: fal_partition_read:ret <- 0
	@DEBUG_VALUE: fal_partition_read:flash_dev <- 0
	.loc	4 377 5 is_stmt 1               @ packages/fal-v0.5.0/src/fal_partition.c:377:5
	movw	r0, :lower16:.L.str.14
.Ltmp100:
	@DEBUG_VALUE: fal_partition_read:part <- [DW_OP_LLVM_entry_value 1] $r0
	movw	r1, :lower16:.L.str.18
.Ltmp101:
	@DEBUG_VALUE: fal_partition_read:addr <- [DW_OP_LLVM_entry_value 1] $r1
	movw	r2, :lower16:.L__FUNCTION__.fal_partition_read
.Ltmp102:
	@DEBUG_VALUE: fal_partition_read:buf <- [DW_OP_LLVM_entry_value 1] $r2
	movt	r0, :upper16:.L.str.14
	movt	r1, :upper16:.L.str.18
	movt	r2, :upper16:.L__FUNCTION__.fal_partition_read
	bl	rt_kprintf
.Ltmp103:
	@DEBUG_VALUE: fal_partition_read:size <- [DW_OP_LLVM_entry_value 1] $r3
	.p2align	2
.LBB5_5:                                @ =>This Inner Loop Header: Depth=1
	@DEBUG_VALUE: fal_partition_read:buf <- [DW_OP_LLVM_entry_value 1] $r2
	@DEBUG_VALUE: fal_partition_read:size <- [DW_OP_LLVM_entry_value 1] $r3
	@DEBUG_VALUE: fal_partition_read:addr <- [DW_OP_LLVM_entry_value 1] $r1
	@DEBUG_VALUE: fal_partition_read:part <- [DW_OP_LLVM_entry_value 1] $r0
	@DEBUG_VALUE: fal_partition_read:ret <- 0
	@DEBUG_VALUE: fal_partition_read:flash_dev <- 0
	b	.LBB5_5
.Ltmp104:
.LBB5_6:
	@DEBUG_VALUE: fal_partition_read:buf <- $r7
	@DEBUG_VALUE: fal_partition_read:size <- $r3
	@DEBUG_VALUE: fal_partition_read:addr <- $r1
	@DEBUG_VALUE: fal_partition_read:part <- $r0
	@DEBUG_VALUE: fal_partition_read:ret <- 0
	@DEBUG_VALUE: fal_partition_read:flash_dev <- 0
	.loc	4 378 5                         @ packages/fal-v0.5.0/src/fal_partition.c:378:5
	movw	r0, :lower16:.L.str.14
.Ltmp105:
	@DEBUG_VALUE: fal_partition_read:part <- [DW_OP_LLVM_entry_value 1] $r0
	movw	r1, :lower16:.L.str.19
.Ltmp106:
	@DEBUG_VALUE: fal_partition_read:addr <- [DW_OP_LLVM_entry_value 1] $r1
	movw	r2, :lower16:.L__FUNCTION__.fal_partition_read
	movt	r0, :upper16:.L.str.14
	movt	r1, :upper16:.L.str.19
	movt	r2, :upper16:.L__FUNCTION__.fal_partition_read
	bl	rt_kprintf
.Ltmp107:
	@DEBUG_VALUE: fal_partition_read:size <- [DW_OP_LLVM_entry_value 1] $r3
	.p2align	2
.LBB5_7:                                @ =>This Inner Loop Header: Depth=1
	@DEBUG_VALUE: fal_partition_read:buf <- $r7
	@DEBUG_VALUE: fal_partition_read:size <- [DW_OP_LLVM_entry_value 1] $r3
	@DEBUG_VALUE: fal_partition_read:addr <- [DW_OP_LLVM_entry_value 1] $r1
	@DEBUG_VALUE: fal_partition_read:part <- [DW_OP_LLVM_entry_value 1] $r0
	@DEBUG_VALUE: fal_partition_read:ret <- 0
	@DEBUG_VALUE: fal_partition_read:flash_dev <- 0
	b	.LBB5_7
.Ltmp108:
.LBB5_8:
	@DEBUG_VALUE: fal_partition_read:buf <- $r7
	@DEBUG_VALUE: fal_partition_read:size <- $r6
	@DEBUG_VALUE: fal_partition_read:part <- $r5
	@DEBUG_VALUE: fal_partition_read:addr <- $r4
	@DEBUG_VALUE: fal_partition_read:ret <- 0
	@DEBUG_VALUE: fal_partition_read:flash_dev <- 0
	.loc	4 386 39                        @ packages/fal-v0.5.0/src/fal_partition.c:386:39
	add.w	r8, r5, #28
	.loc	4 386 17 is_stmt 0              @ packages/fal-v0.5.0/src/fal_partition.c:386:17
	mov	r0, r8
	bl	fal_flash_device_find
.Ltmp109:
	@DEBUG_VALUE: fal_partition_read:flash_dev <- $r0
	.loc	4 387 9 is_stmt 1               @ packages/fal-v0.5.0/src/fal_partition.c:387:9
	cbz	r0, .LBB5_11
.Ltmp110:
@ %bb.9:
	@DEBUG_VALUE: fal_partition_read:buf <- $r7
	@DEBUG_VALUE: fal_partition_read:size <- $r6
	@DEBUG_VALUE: fal_partition_read:part <- $r5
	@DEBUG_VALUE: fal_partition_read:addr <- $r4
	@DEBUG_VALUE: fal_partition_read:flash_dev <- $r0
	@DEBUG_VALUE: fal_partition_read:ret <- 0
	.loc	4 393 37                        @ packages/fal-v0.5.0/src/fal_partition.c:393:37
	ldr	r1, [r5, #52]
	.loc	4 393 26 is_stmt 0              @ packages/fal-v0.5.0/src/fal_partition.c:393:26
	ldr	r3, [r0, #40]
	.loc	4 393 44                        @ packages/fal-v0.5.0/src/fal_partition.c:393:44
	adds	r0, r1, r4
.Ltmp111:
	.loc	4 393 11                        @ packages/fal-v0.5.0/src/fal_partition.c:393:11
	mov	r1, r7
	mov	r2, r6
	blx	r3
	mov	r5, r0
.Ltmp112:
	@DEBUG_VALUE: fal_partition_read:part <- [DW_OP_LLVM_entry_value 1] $r0
	@DEBUG_VALUE: fal_partition_read:ret <- $r5
	.loc	4 394 9 is_stmt 1               @ packages/fal-v0.5.0/src/fal_partition.c:394:9
	cmp.w	r0, #-1
	ble	.LBB5_12
.Ltmp113:
@ %bb.10:
	@DEBUG_VALUE: fal_partition_read:buf <- $r7
	@DEBUG_VALUE: fal_partition_read:size <- $r6
	@DEBUG_VALUE: fal_partition_read:ret <- $r5
	@DEBUG_VALUE: fal_partition_read:addr <- $r4
	@DEBUG_VALUE: fal_partition_read:part <- [DW_OP_LLVM_entry_value 1] $r0
	.loc	4 400 1                         @ packages/fal-v0.5.0/src/fal_partition.c:400:1
	mov	r0, r5
	pop.w	{r4, r5, r6, r7, r8, pc}
.Ltmp114:
.LBB5_11:
	@DEBUG_VALUE: fal_partition_read:buf <- $r7
	@DEBUG_VALUE: fal_partition_read:size <- $r6
	@DEBUG_VALUE: fal_partition_read:part <- $r5
	@DEBUG_VALUE: fal_partition_read:addr <- $r4
	@DEBUG_VALUE: fal_partition_read:flash_dev <- $r0
	@DEBUG_VALUE: fal_partition_read:ret <- 0
	.loc	4 389 9                         @ packages/fal-v0.5.0/src/fal_partition.c:389:9
	movw	r0, :lower16:.L.str.12
.Ltmp115:
	movw	r1, :lower16:.L__FUNCTION__.fal_partition_read
	movt	r0, :upper16:.L.str.12
	movt	r1, :upper16:.L__FUNCTION__.fal_partition_read
	movw	r2, #389
	bl	rt_kprintf
	movw	r0, :lower16:.L.str.21
	adds	r2, r5, #4
	movt	r0, :upper16:.L.str.21
	mov	r1, r8
	bl	rt_kprintf
	mov.w	r5, #-1
.Ltmp116:
	@DEBUG_VALUE: fal_partition_read:part <- [DW_OP_LLVM_entry_value 1] $r0
	.loc	4 0 9 is_stmt 0                 @ packages/fal-v0.5.0/src/fal_partition.c:0:9
	b	.LBB5_13
.Ltmp117:
.LBB5_12:
	@DEBUG_VALUE: fal_partition_read:buf <- $r7
	@DEBUG_VALUE: fal_partition_read:size <- $r6
	@DEBUG_VALUE: fal_partition_read:ret <- $r5
	@DEBUG_VALUE: fal_partition_read:addr <- $r4
	@DEBUG_VALUE: fal_partition_read:part <- [DW_OP_LLVM_entry_value 1] $r0
	.loc	4 396 9 is_stmt 1               @ packages/fal-v0.5.0/src/fal_partition.c:396:9
	movw	r0, :lower16:.L.str.12
	movw	r1, :lower16:.L__FUNCTION__.fal_partition_read
	movt	r0, :upper16:.L.str.12
	movt	r1, :upper16:.L__FUNCTION__.fal_partition_read
	mov.w	r2, #396
	bl	rt_kprintf
	adr	r0, .LCPI5_0
	mov	r1, r8
	bl	rt_kprintf
.Ltmp118:
.LBB5_13:
	@DEBUG_VALUE: fal_partition_read:buf <- $r7
	@DEBUG_VALUE: fal_partition_read:size <- $r6
	@DEBUG_VALUE: fal_partition_read:addr <- $r4
	@DEBUG_VALUE: fal_partition_read:part <- [DW_OP_LLVM_entry_value 1] $r0
	.loc	4 0 0 is_stmt 0                 @ packages/fal-v0.5.0/src/fal_partition.c:0:0
	movw	r0, :lower16:.L.str.4
	movt	r0, :upper16:.L.str.4
	bl	rt_kprintf
	.loc	4 400 1 is_stmt 1               @ packages/fal-v0.5.0/src/fal_partition.c:400:1
	mov	r0, r5
	pop.w	{r4, r5, r6, r7, r8, pc}
.Ltmp119:
	.p2align	2
@ %bb.14:
	.loc	4 0 1 is_stmt 0                 @ packages/fal-v0.5.0/src/fal_partition.c:0:1
.LCPI5_0:
.L.str.22:
	.asciz	"Partition read error! Flash device(%s) read error!\000"
.LCPI5_1:
.L.str.20:
	.asciz	"Partition read error! Partition address out of bound.\000\000"
.Lfunc_end5:
	.size	fal_partition_read, .Lfunc_end5-fal_partition_read
	.cfi_endproc
	.cantunwind
	.fnend
                                        @ -- End function
	.section	.text.fal_partition_write,"ax",%progbits
	.hidden	fal_partition_write             @ -- Begin function fal_partition_write
	.globl	fal_partition_write
	.p2align	3
	.type	fal_partition_write,%function
	.code	16                              @ @fal_partition_write
	.thumb_func
fal_partition_write:
.Lfunc_begin6:
	.loc	4 414 0 is_stmt 1               @ packages/fal-v0.5.0/src/fal_partition.c:414:0
	.fnstart
	.cfi_startproc
@ %bb.0:
	@DEBUG_VALUE: fal_partition_write:part <- $r0
	@DEBUG_VALUE: fal_partition_write:addr <- $r1
	@DEBUG_VALUE: fal_partition_write:buf <- $r2
	@DEBUG_VALUE: fal_partition_write:size <- $r3
	@DEBUG_VALUE: fal_partition_write:part <- $r0
	.save	{r4, r5, r6, r7, r8, lr}
	push.w	{r4, r5, r6, r7, r8, lr}
	.cfi_def_cfa_offset 24
	.cfi_offset lr, -4
	.cfi_offset r8, -8
	.cfi_offset r7, -12
	.cfi_offset r6, -16
	.cfi_offset r5, -20
	.cfi_offset r4, -24
.Ltmp120:
	@DEBUG_VALUE: fal_partition_write:flash_dev <- 0
	@DEBUG_VALUE: fal_partition_write:ret <- 0
	@DEBUG_VALUE: fal_partition_write:size <- $r3
	@DEBUG_VALUE: fal_partition_write:buf <- $r2
	@DEBUG_VALUE: fal_partition_write:addr <- $r1
	.loc	4 418 5 prologue_end            @ packages/fal-v0.5.0/src/fal_partition.c:418:5
	cbz	r0, .LBB6_4
.Ltmp121:
@ %bb.1:
	@DEBUG_VALUE: fal_partition_write:size <- $r3
	@DEBUG_VALUE: fal_partition_write:buf <- $r2
	@DEBUG_VALUE: fal_partition_write:addr <- $r1
	@DEBUG_VALUE: fal_partition_write:part <- $r0
	@DEBUG_VALUE: fal_partition_write:ret <- 0
	@DEBUG_VALUE: fal_partition_write:flash_dev <- 0
	@DEBUG_VALUE: fal_partition_write:part <- $r0
	@DEBUG_VALUE: fal_partition_write:size <- $r3
	.loc	4 0 5 is_stmt 0                 @ packages/fal-v0.5.0/src/fal_partition.c:0:5
	mov	r7, r2
.Ltmp122:
	@DEBUG_VALUE: fal_partition_write:buf <- $r7
	@DEBUG_VALUE: fal_partition_write:addr <- $r1
	.loc	4 419 5 is_stmt 1               @ packages/fal-v0.5.0/src/fal_partition.c:419:5
	cbz	r2, .LBB6_6
.Ltmp123:
@ %bb.2:
	@DEBUG_VALUE: fal_partition_write:buf <- $r7
	@DEBUG_VALUE: fal_partition_write:size <- $r3
	@DEBUG_VALUE: fal_partition_write:addr <- $r1
	@DEBUG_VALUE: fal_partition_write:part <- $r0
	@DEBUG_VALUE: fal_partition_write:ret <- 0
	@DEBUG_VALUE: fal_partition_write:flash_dev <- 0
	.loc	4 0 5 is_stmt 0                 @ packages/fal-v0.5.0/src/fal_partition.c:0:5
	mov	r5, r0
.Ltmp124:
	@DEBUG_VALUE: fal_partition_write:part <- $r5
	@DEBUG_VALUE: fal_partition_write:part <- $r5
	mov	r4, r1
.Ltmp125:
	@DEBUG_VALUE: fal_partition_write:addr <- $r4
	.loc	4 421 14 is_stmt 1              @ packages/fal-v0.5.0/src/fal_partition.c:421:14
	adds	r0, r3, r1
	mov	r6, r3
.Ltmp126:
	@DEBUG_VALUE: fal_partition_write:size <- $r6
	@DEBUG_VALUE: fal_partition_write:size <- $r6
	.loc	4 421 29 is_stmt 0              @ packages/fal-v0.5.0/src/fal_partition.c:421:29
	ldr	r1, [r5, #56]
.Ltmp127:
	.loc	4 421 9                         @ packages/fal-v0.5.0/src/fal_partition.c:421:9
	cmp	r0, r1
	bls	.LBB6_8
.Ltmp128:
@ %bb.3:
	@DEBUG_VALUE: fal_partition_write:buf <- $r7
	@DEBUG_VALUE: fal_partition_write:size <- $r6
	@DEBUG_VALUE: fal_partition_write:part <- $r5
	@DEBUG_VALUE: fal_partition_write:addr <- $r4
	@DEBUG_VALUE: fal_partition_write:ret <- 0
	@DEBUG_VALUE: fal_partition_write:flash_dev <- 0
	.loc	4 423 9 is_stmt 1               @ packages/fal-v0.5.0/src/fal_partition.c:423:9
	movw	r0, :lower16:.L.str.12
	movw	r1, :lower16:.L__FUNCTION__.fal_partition_write
	movt	r0, :upper16:.L.str.12
	movt	r1, :upper16:.L__FUNCTION__.fal_partition_write
	movw	r2, #423
	bl	rt_kprintf
	adr	r0, .LCPI6_1
	bl	rt_kprintf
	mov.w	r5, #-1
.Ltmp129:
	@DEBUG_VALUE: fal_partition_write:part <- [DW_OP_LLVM_entry_value 1] $r0
	.loc	4 0 9 is_stmt 0                 @ packages/fal-v0.5.0/src/fal_partition.c:0:9
	b	.LBB6_13
.Ltmp130:
.LBB6_4:
	@DEBUG_VALUE: fal_partition_write:size <- $r3
	@DEBUG_VALUE: fal_partition_write:buf <- $r2
	@DEBUG_VALUE: fal_partition_write:addr <- $r1
	@DEBUG_VALUE: fal_partition_write:part <- $r0
	@DEBUG_VALUE: fal_partition_write:ret <- 0
	@DEBUG_VALUE: fal_partition_write:flash_dev <- 0
	.loc	4 418 5 is_stmt 1               @ packages/fal-v0.5.0/src/fal_partition.c:418:5
	movw	r0, :lower16:.L.str.14
.Ltmp131:
	@DEBUG_VALUE: fal_partition_write:part <- [DW_OP_LLVM_entry_value 1] $r0
	movw	r1, :lower16:.L.str.18
.Ltmp132:
	@DEBUG_VALUE: fal_partition_write:addr <- [DW_OP_LLVM_entry_value 1] $r1
	movw	r2, :lower16:.L__FUNCTION__.fal_partition_write
.Ltmp133:
	@DEBUG_VALUE: fal_partition_write:buf <- [DW_OP_LLVM_entry_value 1] $r2
	movt	r0, :upper16:.L.str.14
	movt	r1, :upper16:.L.str.18
	movt	r2, :upper16:.L__FUNCTION__.fal_partition_write
	bl	rt_kprintf
.Ltmp134:
	@DEBUG_VALUE: fal_partition_write:size <- [DW_OP_LLVM_entry_value 1] $r3
	.p2align	2
.LBB6_5:                                @ =>This Inner Loop Header: Depth=1
	@DEBUG_VALUE: fal_partition_write:buf <- [DW_OP_LLVM_entry_value 1] $r2
	@DEBUG_VALUE: fal_partition_write:size <- [DW_OP_LLVM_entry_value 1] $r3
	@DEBUG_VALUE: fal_partition_write:addr <- [DW_OP_LLVM_entry_value 1] $r1
	@DEBUG_VALUE: fal_partition_write:part <- [DW_OP_LLVM_entry_value 1] $r0
	@DEBUG_VALUE: fal_partition_write:ret <- 0
	@DEBUG_VALUE: fal_partition_write:flash_dev <- 0
	b	.LBB6_5
.Ltmp135:
.LBB6_6:
	@DEBUG_VALUE: fal_partition_write:buf <- $r7
	@DEBUG_VALUE: fal_partition_write:size <- $r3
	@DEBUG_VALUE: fal_partition_write:addr <- $r1
	@DEBUG_VALUE: fal_partition_write:part <- $r0
	@DEBUG_VALUE: fal_partition_write:ret <- 0
	@DEBUG_VALUE: fal_partition_write:flash_dev <- 0
	.loc	4 419 5                         @ packages/fal-v0.5.0/src/fal_partition.c:419:5
	movw	r0, :lower16:.L.str.14
.Ltmp136:
	@DEBUG_VALUE: fal_partition_write:part <- [DW_OP_LLVM_entry_value 1] $r0
	movw	r1, :lower16:.L.str.19
.Ltmp137:
	@DEBUG_VALUE: fal_partition_write:addr <- [DW_OP_LLVM_entry_value 1] $r1
	movw	r2, :lower16:.L__FUNCTION__.fal_partition_write
	movt	r0, :upper16:.L.str.14
	movt	r1, :upper16:.L.str.19
	movt	r2, :upper16:.L__FUNCTION__.fal_partition_write
	bl	rt_kprintf
.Ltmp138:
	@DEBUG_VALUE: fal_partition_write:size <- [DW_OP_LLVM_entry_value 1] $r3
	.p2align	2
.LBB6_7:                                @ =>This Inner Loop Header: Depth=1
	@DEBUG_VALUE: fal_partition_write:buf <- $r7
	@DEBUG_VALUE: fal_partition_write:size <- [DW_OP_LLVM_entry_value 1] $r3
	@DEBUG_VALUE: fal_partition_write:addr <- [DW_OP_LLVM_entry_value 1] $r1
	@DEBUG_VALUE: fal_partition_write:part <- [DW_OP_LLVM_entry_value 1] $r0
	@DEBUG_VALUE: fal_partition_write:ret <- 0
	@DEBUG_VALUE: fal_partition_write:flash_dev <- 0
	b	.LBB6_7
.Ltmp139:
.LBB6_8:
	@DEBUG_VALUE: fal_partition_write:buf <- $r7
	@DEBUG_VALUE: fal_partition_write:size <- $r6
	@DEBUG_VALUE: fal_partition_write:part <- $r5
	@DEBUG_VALUE: fal_partition_write:addr <- $r4
	@DEBUG_VALUE: fal_partition_write:ret <- 0
	@DEBUG_VALUE: fal_partition_write:flash_dev <- 0
	.loc	4 427 39                        @ packages/fal-v0.5.0/src/fal_partition.c:427:39
	add.w	r8, r5, #28
	.loc	4 427 17 is_stmt 0              @ packages/fal-v0.5.0/src/fal_partition.c:427:17
	mov	r0, r8
	bl	fal_flash_device_find
.Ltmp140:
	@DEBUG_VALUE: fal_partition_write:flash_dev <- $r0
	.loc	4 428 9 is_stmt 1               @ packages/fal-v0.5.0/src/fal_partition.c:428:9
	cbz	r0, .LBB6_11
.Ltmp141:
@ %bb.9:
	@DEBUG_VALUE: fal_partition_write:buf <- $r7
	@DEBUG_VALUE: fal_partition_write:size <- $r6
	@DEBUG_VALUE: fal_partition_write:part <- $r5
	@DEBUG_VALUE: fal_partition_write:addr <- $r4
	@DEBUG_VALUE: fal_partition_write:flash_dev <- $r0
	@DEBUG_VALUE: fal_partition_write:ret <- 0
	.loc	4 434 38                        @ packages/fal-v0.5.0/src/fal_partition.c:434:38
	ldr	r1, [r5, #52]
	.loc	4 434 26 is_stmt 0              @ packages/fal-v0.5.0/src/fal_partition.c:434:26
	ldr	r3, [r0, #44]
	.loc	4 434 45                        @ packages/fal-v0.5.0/src/fal_partition.c:434:45
	adds	r0, r1, r4
.Ltmp142:
	.loc	4 434 11                        @ packages/fal-v0.5.0/src/fal_partition.c:434:11
	mov	r1, r7
	mov	r2, r6
	blx	r3
	mov	r5, r0
.Ltmp143:
	@DEBUG_VALUE: fal_partition_write:part <- [DW_OP_LLVM_entry_value 1] $r0
	@DEBUG_VALUE: fal_partition_write:ret <- $r5
	.loc	4 435 9 is_stmt 1               @ packages/fal-v0.5.0/src/fal_partition.c:435:9
	cmp.w	r0, #-1
	ble	.LBB6_12
.Ltmp144:
@ %bb.10:
	@DEBUG_VALUE: fal_partition_write:buf <- $r7
	@DEBUG_VALUE: fal_partition_write:size <- $r6
	@DEBUG_VALUE: fal_partition_write:ret <- $r5
	@DEBUG_VALUE: fal_partition_write:addr <- $r4
	@DEBUG_VALUE: fal_partition_write:part <- [DW_OP_LLVM_entry_value 1] $r0
	.loc	4 441 1                         @ packages/fal-v0.5.0/src/fal_partition.c:441:1
	mov	r0, r5
	pop.w	{r4, r5, r6, r7, r8, pc}
.Ltmp145:
.LBB6_11:
	@DEBUG_VALUE: fal_partition_write:buf <- $r7
	@DEBUG_VALUE: fal_partition_write:size <- $r6
	@DEBUG_VALUE: fal_partition_write:part <- $r5
	@DEBUG_VALUE: fal_partition_write:addr <- $r4
	@DEBUG_VALUE: fal_partition_write:flash_dev <- $r0
	@DEBUG_VALUE: fal_partition_write:ret <- 0
	.loc	4 430 9                         @ packages/fal-v0.5.0/src/fal_partition.c:430:9
	movw	r0, :lower16:.L.str.12
.Ltmp146:
	movw	r1, :lower16:.L__FUNCTION__.fal_partition_write
	movt	r0, :upper16:.L.str.12
	movt	r1, :upper16:.L__FUNCTION__.fal_partition_write
	mov.w	r2, #430
	bl	rt_kprintf
	movw	r0, :lower16:.L.str.24
	adds	r2, r5, #4
	movt	r0, :upper16:.L.str.24
	mov	r1, r8
	bl	rt_kprintf
	mov.w	r5, #-1
.Ltmp147:
	@DEBUG_VALUE: fal_partition_write:part <- [DW_OP_LLVM_entry_value 1] $r0
	.loc	4 0 9 is_stmt 0                 @ packages/fal-v0.5.0/src/fal_partition.c:0:9
	b	.LBB6_13
.Ltmp148:
.LBB6_12:
	@DEBUG_VALUE: fal_partition_write:buf <- $r7
	@DEBUG_VALUE: fal_partition_write:size <- $r6
	@DEBUG_VALUE: fal_partition_write:ret <- $r5
	@DEBUG_VALUE: fal_partition_write:addr <- $r4
	@DEBUG_VALUE: fal_partition_write:part <- [DW_OP_LLVM_entry_value 1] $r0
	.loc	4 437 9 is_stmt 1               @ packages/fal-v0.5.0/src/fal_partition.c:437:9
	movw	r0, :lower16:.L.str.12
	movw	r1, :lower16:.L__FUNCTION__.fal_partition_write
	movt	r0, :upper16:.L.str.12
	movt	r1, :upper16:.L__FUNCTION__.fal_partition_write
	movw	r2, #437
	bl	rt_kprintf
	adr	r0, .LCPI6_0
	mov	r1, r8
	bl	rt_kprintf
.Ltmp149:
.LBB6_13:
	@DEBUG_VALUE: fal_partition_write:buf <- $r7
	@DEBUG_VALUE: fal_partition_write:size <- $r6
	@DEBUG_VALUE: fal_partition_write:addr <- $r4
	@DEBUG_VALUE: fal_partition_write:part <- [DW_OP_LLVM_entry_value 1] $r0
	.loc	4 0 0 is_stmt 0                 @ packages/fal-v0.5.0/src/fal_partition.c:0:0
	movw	r0, :lower16:.L.str.4
	movt	r0, :upper16:.L.str.4
	bl	rt_kprintf
	.loc	4 441 1 is_stmt 1               @ packages/fal-v0.5.0/src/fal_partition.c:441:1
	mov	r0, r5
	pop.w	{r4, r5, r6, r7, r8, pc}
.Ltmp150:
	.p2align	2
@ %bb.14:
	.loc	4 0 1 is_stmt 0                 @ packages/fal-v0.5.0/src/fal_partition.c:0:1
.LCPI6_0:
.L.str.25:
	.asciz	"Partition write error! Flash device(%s) write error!\000\000\000"
.LCPI6_1:
.L.str.23:
	.asciz	"Partition write error! Partition address out of bound.\000"
.Lfunc_end6:
	.size	fal_partition_write, .Lfunc_end6-fal_partition_write
	.cfi_endproc
	.cantunwind
	.fnend
                                        @ -- End function
	.section	.text.fal_partition_erase,"ax",%progbits
	.hidden	fal_partition_erase             @ -- Begin function fal_partition_erase
	.globl	fal_partition_erase
	.p2align	3
	.type	fal_partition_erase,%function
	.code	16                              @ @fal_partition_erase
	.thumb_func
fal_partition_erase:
.Lfunc_begin7:
	.loc	4 454 0 is_stmt 1               @ packages/fal-v0.5.0/src/fal_partition.c:454:0
	.fnstart
	.cfi_startproc
@ %bb.0:
	@DEBUG_VALUE: fal_partition_erase:part <- $r0
	@DEBUG_VALUE: fal_partition_erase:addr <- $r1
	@DEBUG_VALUE: fal_partition_erase:size <- $r2
	@DEBUG_VALUE: fal_partition_erase:part <- $r0
	.save	{r4, r5, r6, r7, lr}
	push	{r4, r5, r6, r7, lr}
	.cfi_def_cfa_offset 20
	.cfi_offset lr, -4
	.cfi_offset r7, -8
	.cfi_offset r6, -12
	.cfi_offset r5, -16
	.cfi_offset r4, -20
	.pad	#4
	sub	sp, #4
	.cfi_def_cfa_offset 24
.Ltmp151:
	@DEBUG_VALUE: fal_partition_erase:flash_dev <- 0
	@DEBUG_VALUE: fal_partition_erase:ret <- 0
	@DEBUG_VALUE: fal_partition_erase:size <- $r2
	@DEBUG_VALUE: fal_partition_erase:addr <- $r1
	.loc	4 458 5 prologue_end            @ packages/fal-v0.5.0/src/fal_partition.c:458:5
	cbz	r0, .LBB7_3
.Ltmp152:
@ %bb.1:
	@DEBUG_VALUE: fal_partition_erase:size <- $r2
	@DEBUG_VALUE: fal_partition_erase:addr <- $r1
	@DEBUG_VALUE: fal_partition_erase:part <- $r0
	@DEBUG_VALUE: fal_partition_erase:ret <- 0
	@DEBUG_VALUE: fal_partition_erase:flash_dev <- 0
	.loc	4 0 5 is_stmt 0                 @ packages/fal-v0.5.0/src/fal_partition.c:0:5
	mov	r5, r0
.Ltmp153:
	@DEBUG_VALUE: fal_partition_erase:part <- $r5
	@DEBUG_VALUE: fal_partition_erase:part <- $r5
	mov	r7, r1
.Ltmp154:
	@DEBUG_VALUE: fal_partition_erase:addr <- $r7
	.loc	4 460 14 is_stmt 1              @ packages/fal-v0.5.0/src/fal_partition.c:460:14
	adds	r0, r2, r1
	mov	r6, r2
.Ltmp155:
	@DEBUG_VALUE: fal_partition_erase:size <- $r6
	@DEBUG_VALUE: fal_partition_erase:size <- $r6
	.loc	4 460 29 is_stmt 0              @ packages/fal-v0.5.0/src/fal_partition.c:460:29
	ldr	r1, [r5, #56]
.Ltmp156:
	.loc	4 460 9                         @ packages/fal-v0.5.0/src/fal_partition.c:460:9
	cmp	r0, r1
	bls	.LBB7_5
.Ltmp157:
@ %bb.2:
	@DEBUG_VALUE: fal_partition_erase:addr <- $r7
	@DEBUG_VALUE: fal_partition_erase:size <- $r6
	@DEBUG_VALUE: fal_partition_erase:part <- $r5
	@DEBUG_VALUE: fal_partition_erase:ret <- 0
	@DEBUG_VALUE: fal_partition_erase:flash_dev <- 0
	.loc	4 462 9 is_stmt 1               @ packages/fal-v0.5.0/src/fal_partition.c:462:9
	movw	r0, :lower16:.L.str.12
	movw	r1, :lower16:.L__FUNCTION__.fal_partition_erase
	movt	r0, :upper16:.L.str.12
	movt	r1, :upper16:.L__FUNCTION__.fal_partition_erase
	mov.w	r2, #462
	bl	rt_kprintf
	adr	r0, .LCPI7_1
	bl	rt_kprintf
	b	.LBB7_9
.Ltmp158:
.LBB7_3:
	@DEBUG_VALUE: fal_partition_erase:size <- $r2
	@DEBUG_VALUE: fal_partition_erase:addr <- $r1
	@DEBUG_VALUE: fal_partition_erase:part <- $r0
	@DEBUG_VALUE: fal_partition_erase:ret <- 0
	@DEBUG_VALUE: fal_partition_erase:flash_dev <- 0
	.loc	4 458 5                         @ packages/fal-v0.5.0/src/fal_partition.c:458:5
	movw	r0, :lower16:.L.str.14
.Ltmp159:
	@DEBUG_VALUE: fal_partition_erase:part <- [DW_OP_LLVM_entry_value 1] $r0
	movw	r1, :lower16:.L.str.18
.Ltmp160:
	@DEBUG_VALUE: fal_partition_erase:addr <- [DW_OP_LLVM_entry_value 1] $r1
	movw	r2, :lower16:.L__FUNCTION__.fal_partition_erase
.Ltmp161:
	@DEBUG_VALUE: fal_partition_erase:size <- [DW_OP_LLVM_entry_value 1] $r2
	movt	r0, :upper16:.L.str.14
	movt	r1, :upper16:.L.str.18
	movt	r2, :upper16:.L__FUNCTION__.fal_partition_erase
	bl	rt_kprintf
.Ltmp162:
	.p2align	2
.LBB7_4:                                @ =>This Inner Loop Header: Depth=1
	@DEBUG_VALUE: fal_partition_erase:size <- [DW_OP_LLVM_entry_value 1] $r2
	@DEBUG_VALUE: fal_partition_erase:addr <- [DW_OP_LLVM_entry_value 1] $r1
	@DEBUG_VALUE: fal_partition_erase:part <- [DW_OP_LLVM_entry_value 1] $r0
	@DEBUG_VALUE: fal_partition_erase:ret <- 0
	@DEBUG_VALUE: fal_partition_erase:flash_dev <- 0
	b	.LBB7_4
.Ltmp163:
.LBB7_5:
	@DEBUG_VALUE: fal_partition_erase:addr <- $r7
	@DEBUG_VALUE: fal_partition_erase:size <- $r6
	@DEBUG_VALUE: fal_partition_erase:part <- $r5
	@DEBUG_VALUE: fal_partition_erase:ret <- 0
	@DEBUG_VALUE: fal_partition_erase:flash_dev <- 0
	.loc	4 466 39                        @ packages/fal-v0.5.0/src/fal_partition.c:466:39
	add.w	r4, r5, #28
	.loc	4 466 17 is_stmt 0              @ packages/fal-v0.5.0/src/fal_partition.c:466:17
	mov	r0, r4
	bl	fal_flash_device_find
.Ltmp164:
	@DEBUG_VALUE: fal_partition_erase:flash_dev <- $r0
	.loc	4 467 9 is_stmt 1               @ packages/fal-v0.5.0/src/fal_partition.c:467:9
	cbz	r0, .LBB7_8
.Ltmp165:
@ %bb.6:
	@DEBUG_VALUE: fal_partition_erase:addr <- $r7
	@DEBUG_VALUE: fal_partition_erase:size <- $r6
	@DEBUG_VALUE: fal_partition_erase:part <- $r5
	@DEBUG_VALUE: fal_partition_erase:flash_dev <- $r0
	@DEBUG_VALUE: fal_partition_erase:ret <- 0
	.loc	4 473 38                        @ packages/fal-v0.5.0/src/fal_partition.c:473:38
	ldr	r1, [r5, #52]
	.loc	4 473 26 is_stmt 0              @ packages/fal-v0.5.0/src/fal_partition.c:473:26
	ldr	r2, [r0, #48]
	.loc	4 473 45                        @ packages/fal-v0.5.0/src/fal_partition.c:473:45
	adds	r0, r1, r7
.Ltmp166:
	.loc	4 473 11                        @ packages/fal-v0.5.0/src/fal_partition.c:473:11
	mov	r1, r6
	blx	r2
	mov	r5, r0
.Ltmp167:
	@DEBUG_VALUE: fal_partition_erase:part <- [DW_OP_LLVM_entry_value 1] $r0
	@DEBUG_VALUE: fal_partition_erase:ret <- $r5
	.loc	4 474 9 is_stmt 1               @ packages/fal-v0.5.0/src/fal_partition.c:474:9
	cmp.w	r0, #-1
	bgt	.LBB7_11
.Ltmp168:
@ %bb.7:
	@DEBUG_VALUE: fal_partition_erase:addr <- $r7
	@DEBUG_VALUE: fal_partition_erase:size <- $r6
	@DEBUG_VALUE: fal_partition_erase:ret <- $r5
	@DEBUG_VALUE: fal_partition_erase:part <- [DW_OP_LLVM_entry_value 1] $r0
	.loc	4 476 9                         @ packages/fal-v0.5.0/src/fal_partition.c:476:9
	movw	r0, :lower16:.L.str.12
	movw	r1, :lower16:.L__FUNCTION__.fal_partition_erase
	movt	r0, :upper16:.L.str.12
	movt	r1, :upper16:.L__FUNCTION__.fal_partition_erase
	mov.w	r2, #476
	bl	rt_kprintf
	adr	r0, .LCPI7_0
	mov	r1, r4
	bl	rt_kprintf
	b	.LBB7_10
.Ltmp169:
.LBB7_8:
	@DEBUG_VALUE: fal_partition_erase:addr <- $r7
	@DEBUG_VALUE: fal_partition_erase:size <- $r6
	@DEBUG_VALUE: fal_partition_erase:part <- $r5
	@DEBUG_VALUE: fal_partition_erase:flash_dev <- $r0
	@DEBUG_VALUE: fal_partition_erase:ret <- 0
	.loc	4 469 9                         @ packages/fal-v0.5.0/src/fal_partition.c:469:9
	movw	r0, :lower16:.L.str.12
.Ltmp170:
	movw	r1, :lower16:.L__FUNCTION__.fal_partition_erase
	movt	r0, :upper16:.L.str.12
	movt	r1, :upper16:.L__FUNCTION__.fal_partition_erase
	movw	r2, #469
	bl	rt_kprintf
	movw	r0, :lower16:.L.str.27
	adds	r2, r5, #4
	movt	r0, :upper16:.L.str.27
	mov	r1, r4
	bl	rt_kprintf
.Ltmp171:
.LBB7_9:
	@DEBUG_VALUE: fal_partition_erase:addr <- $r7
	@DEBUG_VALUE: fal_partition_erase:size <- $r6
	@DEBUG_VALUE: fal_partition_erase:part <- $r5
	@DEBUG_VALUE: fal_partition_erase:ret <- 0
	.loc	4 0 9 is_stmt 0                 @ packages/fal-v0.5.0/src/fal_partition.c:0:9
	mov.w	r5, #-1
.Ltmp172:
	@DEBUG_VALUE: fal_partition_erase:part <- [DW_OP_LLVM_entry_value 1] $r0
.LBB7_10:
	@DEBUG_VALUE: fal_partition_erase:addr <- $r7
	@DEBUG_VALUE: fal_partition_erase:size <- $r6
	@DEBUG_VALUE: fal_partition_erase:part <- [DW_OP_LLVM_entry_value 1] $r0
	movw	r0, :lower16:.L.str.4
	movt	r0, :upper16:.L.str.4
	bl	rt_kprintf
.Ltmp173:
.LBB7_11:
	@DEBUG_VALUE: fal_partition_erase:addr <- $r7
	@DEBUG_VALUE: fal_partition_erase:size <- $r6
	@DEBUG_VALUE: fal_partition_erase:part <- [DW_OP_LLVM_entry_value 1] $r0
	.loc	4 480 1 is_stmt 1               @ packages/fal-v0.5.0/src/fal_partition.c:480:1
	mov	r0, r5
	add	sp, #4
	pop	{r4, r5, r6, r7, pc}
.Ltmp174:
	.p2align	2
@ %bb.12:
	.loc	4 0 1 is_stmt 0                 @ packages/fal-v0.5.0/src/fal_partition.c:0:1
.LCPI7_0:
.L.str.28:
	.asciz	"Partition erase error! Flash device(%s) erase error!\000\000\000"
.LCPI7_1:
.L.str.26:
	.asciz	"Partition erase error! Partition address out of bound.\000"
.Lfunc_end7:
	.size	fal_partition_erase, .Lfunc_end7-fal_partition_erase
	.cfi_endproc
	.cantunwind
	.fnend
                                        @ -- End function
	.section	.text.fal_partition_erase_all,"ax",%progbits
	.hidden	fal_partition_erase_all         @ -- Begin function fal_partition_erase_all
	.globl	fal_partition_erase_all
	.p2align	3
	.type	fal_partition_erase_all,%function
	.code	16                              @ @fal_partition_erase_all
	.thumb_func
fal_partition_erase_all:
.Lfunc_begin8:
	.loc	4 491 0 is_stmt 1               @ packages/fal-v0.5.0/src/fal_partition.c:491:0
	.fnstart
	.cfi_startproc
@ %bb.0:
	@DEBUG_VALUE: fal_partition_erase_all:part <- $r0
	@DEBUG_VALUE: fal_partition_erase_all:part <- $r0
	.save	{r7, lr}
	push	{r7, lr}
	.cfi_def_cfa_offset 8
	.cfi_offset lr, -4
	.cfi_offset r7, -8
.Ltmp175:
	.loc	4 492 47 prologue_end           @ packages/fal-v0.5.0/src/fal_partition.c:492:47
	ldr	r2, [r0, #56]
	.loc	4 492 12 is_stmt 0              @ packages/fal-v0.5.0/src/fal_partition.c:492:12
	movs	r1, #0
	bl	fal_partition_erase
.Ltmp176:
	@DEBUG_VALUE: fal_partition_erase_all:part <- [DW_OP_LLVM_entry_value 1] $r0
	.loc	4 492 5                         @ packages/fal-v0.5.0/src/fal_partition.c:492:5
	pop	{r7, pc}
.Ltmp177:
.Lfunc_end8:
	.size	fal_partition_erase_all, .Lfunc_end8-fal_partition_erase_all
	.cfi_endproc
	.cantunwind
	.fnend
                                        @ -- End function
	.type	partition_table_def,%object     @ @partition_table_def
	.section	FalPartTable,"a",%progbits
	.p2align	2
partition_table_def:
__tagsym$$used.0:
	.long	1162883376                      @ 0x45503130
	.asciz	"wifi_image\000\000\000\000\000\000\000\000\000\000\000\000\000"
	.asciz	"norflash0\000\000\000\000\000\000\000\000\000\000\000\000\000\000"
	.long	0                               @ 0x0
	.long	524288                          @ 0x80000
	.long	0                               @ 0x0
	.long	1162883376                      @ 0x45503130
	.asciz	"bt_image\000\000\000\000\000\000\000\000\000\000\000\000\000\000\000"
	.asciz	"norflash0\000\000\000\000\000\000\000\000\000\000\000\000\000\000"
	.long	524288                          @ 0x80000
	.long	524288                          @ 0x80000
	.long	0                               @ 0x0
	.long	1162883376                      @ 0x45503130
	.asciz	"download\000\000\000\000\000\000\000\000\000\000\000\000\000\000\000"
	.asciz	"norflash0\000\000\000\000\000\000\000\000\000\000\000\000\000\000"
	.long	1048576                         @ 0x100000
	.long	2097152                         @ 0x200000
	.long	0                               @ 0x0
	.long	1162883376                      @ 0x45503130
	.asciz	"easyflash\000\000\000\000\000\000\000\000\000\000\000\000\000\000"
	.asciz	"norflash0\000\000\000\000\000\000\000\000\000\000\000\000\000\000"
	.long	3145728                         @ 0x300000
	.long	1048576                         @ 0x100000
	.long	0                               @ 0x0
	.long	1162883376                      @ 0x45503130
	.asciz	"filesystem\000\000\000\000\000\000\000\000\000\000\000\000\000"
	.asciz	"norflash0\000\000\000\000\000\000\000\000\000\000\000\000\000\000"
	.long	4194304                         @ 0x400000
	.long	12582912                        @ 0xc00000
	.long	0                               @ 0x0
	.size	partition_table_def, 320

	.type	partition_table_len,%object     @ @partition_table_len
	.section	.bss.partition_table_len,"aw",%nobits
	.p2align	2
partition_table_len:
	.long	0                               @ 0x0
	.size	partition_table_len, 4

	.type	partition_table,%object         @ @partition_table
	.section	.bss.partition_table,"aw",%nobits
	.p2align	2
partition_table:
	.long	0
	.size	partition_table, 4

	.type	.L.str.2,%object                @ @.str.2
	.section	.rodata.str1.1,"aMS",%progbits,1
.L.str.2:
	.asciz	"\033[32;22m[I/FAL] "
	.size	.L.str.2, 17

	.type	.L.str.3,%object                @ @.str.3
.L.str.3:
	.asciz	"==================== FAL partition table ===================="
	.size	.L.str.3, 62

	.type	.L.str.4,%object                @ @.str.4
.L.str.4:
	.asciz	"\033[0m\n"
	.size	.L.str.4, 6

	.type	.L.str.7,%object                @ @.str.7
.L.str.7:
	.asciz	"| %-*.*s | %-*.*s | 0x%08lx | 0x%08x |"
	.size	.L.str.7, 39

	.type	.L.str.8,%object                @ @.str.8
.L.str.8:
	.asciz	"============================================================="
	.size	.L.str.8, 62

	.type	init_ok,%object                 @ @init_ok
	.section	.bss.init_ok,"aw",%nobits
init_ok:
	.byte	0                               @ 0x0
	.size	init_ok, 1

	.type	.L__FUNCTION__.fal_partition_init,%object @ @__FUNCTION__.fal_partition_init
	.section	.rodata.str1.1,"aMS",%progbits,1
.L__FUNCTION__.fal_partition_init:
	.asciz	"fal_partition_init"
	.size	.L__FUNCTION__.fal_partition_init, 19

	.type	.L.str.12,%object               @ @.str.12
.L.str.12:
	.asciz	"\033[31;22m[E/FAL] (%s:%d) "
	.size	.L.str.12, 25

	.type	.L.str.13,%object               @ @.str.13
.L.str.13:
	.asciz	"Initialize failed! Partition(%s) offset address(%ld) out of flash bound(<%d)."
	.size	.L.str.13, 78

	.type	.L.str.14,%object               @ @.str.14
.L.str.14:
	.asciz	"(%s) has assert failed at %s.\n"
	.size	.L.str.14, 31

	.type	.L.str.15,%object               @ @.str.15
.L.str.15:
	.asciz	"init_ok"
	.size	.L.str.15, 8

	.type	.L__FUNCTION__.fal_get_partition_table,%object @ @__FUNCTION__.fal_get_partition_table
.L__FUNCTION__.fal_get_partition_table:
	.asciz	"fal_get_partition_table"
	.size	.L__FUNCTION__.fal_get_partition_table, 24

	.type	.L__FUNCTION__.fal_set_partition_table_temp,%object @ @__FUNCTION__.fal_set_partition_table_temp
.L__FUNCTION__.fal_set_partition_table_temp:
	.asciz	"fal_set_partition_table_temp"
	.size	.L__FUNCTION__.fal_set_partition_table_temp, 29

	.type	.L.str.18,%object               @ @.str.18
.L.str.18:
	.asciz	"part"
	.size	.L.str.18, 5

	.type	.L__FUNCTION__.fal_partition_read,%object @ @__FUNCTION__.fal_partition_read
.L__FUNCTION__.fal_partition_read:
	.asciz	"fal_partition_read"
	.size	.L__FUNCTION__.fal_partition_read, 19

	.type	.L.str.19,%object               @ @.str.19
.L.str.19:
	.asciz	"buf"
	.size	.L.str.19, 4

	.type	.L.str.21,%object               @ @.str.21
.L.str.21:
	.asciz	"Partition read error! Don't found flash device(%s) of the partition(%s)."
	.size	.L.str.21, 73

	.type	.L__FUNCTION__.fal_partition_write,%object @ @__FUNCTION__.fal_partition_write
.L__FUNCTION__.fal_partition_write:
	.asciz	"fal_partition_write"
	.size	.L__FUNCTION__.fal_partition_write, 20

	.type	.L.str.24,%object               @ @.str.24
.L.str.24:
	.asciz	"Partition write error!  Don't found flash device(%s) of the partition(%s)."
	.size	.L.str.24, 75

	.type	.L__FUNCTION__.fal_partition_erase,%object @ @__FUNCTION__.fal_partition_erase
.L__FUNCTION__.fal_partition_erase:
	.asciz	"fal_partition_erase"
	.size	.L__FUNCTION__.fal_partition_erase, 20

	.type	.L.str.27,%object               @ @.str.27
.L.str.27:
	.asciz	"Partition erase error! Don't found flash device(%s) of the partition(%s)."
	.size	.L.str.27, 74

	.section	".note.GNU-stack","",%progbits
	.eabi_attribute	30, 1	@ Tag_ABI_optimization_goals
	.ARM_attribute	16, 1	@ Tag_AV_eba