	.text
	.syntax unified
	.eabi_attribute	67, "2.09"	@ Tag_conformance
	.cpu	cortex-m7
	.eabi_attribute	6, 13	@ Tag_CPU_arch
	.eabi_attribute	7, 77	@ Tag_CPU_arch_profile
	.eabi_attribute	8, 0	@ Tag_ARM_ISA_use
	.eabi_attribute	9, 2	@ Tag_THUMB_ISA_use
	.fpu	fpv5-d16
	.eabi_attribute	36, 1	@ Tag_FP_HP_extension
	.eabi_attribute	34, 1	@ Tag_CPU_unaligned_access
	.eabi_attribute	17, 1	@ Tag_ABI_PCS_GOT_use
	.eabi_attribute	20, 2	@ Tag_ABI_FP_denormal
	.eabi_attribute	21, 0	@ Tag_ABI_FP_exceptions
	.eabi_attribute	23, 1	@ Tag_ABI_FP_number_model
	.eabi_attribute	24, 1	@ Tag_ABI_align_needed
	.eabi_attribute	25, 1	@ Tag_ABI_align_preserved
	.eabi_attribute	28, 1	@ Tag_ABI_VFP_args
	.eabi_attribute	38, 1	@ Tag_ABI_FP_16bit_format
	.eabi_attribute	18, 2	@ Tag_ABI_PCS_wchar_t
	.eabi_attribute	26, 1	@ Tag_ABI_enum_size
	.eabi_attribute	14, 0	@ Tag_ABI_PCS_R9_use
	.file	"ff.c"
	.file	1 "E:\\STM32\\Learning\\STM32H750_ART_PI_RGBLCD" "rt-thread/components/dfs/filesystems/elmfat/ff.c"
	.file	2 "E:\\STM32\\Learning\\STM32H750_ART_PI_RGBLCD" "rt-thread/components/dfs/filesystems/elmfat/integer.h"
	.file	3 "E:\\STM32\\Learning\\STM32H750_ART_PI_RGBLCD" "rt-thread/components/dfs/filesystems/elmfat/ff.h"
	.file	4 "E:\\STM32\\Learning\\STM32H750_ART_PI_RGBLCD" "rt-thread/components/dfs/filesystems/elmfat/diskio.h"
	.section	.text.f_mount,"ax",%progbits
	.hidden	f_mount                         @ -- Begin function f_mount
	.globl	f_mount
	.p2align	3
	.type	f_mount,%function
	.code	16                              @ @f_mount
	.thumb_func
f_mount:
.Lfunc_begin0:
	.loc	1 3202 0                        @ rt-thread/components/dfs/filesystems/elmfat/ff.c:3202:0
	.fnstart
	.cfi_sections .debug_frame
	.cfi_startproc
@ %bb.0:
	.save	{r7, lr}
	push	{r7, lr}
	.cfi_def_cfa_offset 8
	.cfi_offset lr, -4
	.cfi_offset r7, -8
	.pad	#32
	sub	sp, #32
	.cfi_def_cfa_offset 40
                                        @ kill: def $r3 killed $r2
	str	r0, [sp, #24]
	str	r1, [sp, #20]
	strb.w	r2, [sp, #19]
.Ltmp0:
	.loc	1 3206 20 prologue_end          @ rt-thread/components/dfs/filesystems/elmfat/ff.c:3206:20
	ldr	r0, [sp, #20]
	.loc	1 3206 15 is_stmt 0             @ rt-thread/components/dfs/filesystems/elmfat/ff.c:3206:15
	str	r0, [sp]
	mov	r0, sp
	.loc	1 3210 8 is_stmt 1              @ rt-thread/components/dfs/filesystems/elmfat/ff.c:3210:8
	bl	get_ldnumber
	.loc	1 3210 6 is_stmt 0              @ rt-thread/components/dfs/filesystems/elmfat/ff.c:3210:6
	str	r0, [sp, #8]
.Ltmp1:
	.loc	1 3211 6 is_stmt 1              @ rt-thread/components/dfs/filesystems/elmfat/ff.c:3211:6
	ldr	r0, [sp, #8]
.Ltmp2:
	.loc	1 3211 6 is_stmt 0              @ rt-thread/components/dfs/filesystems/elmfat/ff.c:3211:6
	cmp.w	r0, #-1
	bgt	.LBB0_2
	b	.LBB0_1
.LBB0_1:
	.loc	1 0 6                           @ rt-thread/components/dfs/filesystems/elmfat/ff.c:0:6
	movs	r0, #11
.Ltmp3:
	.loc	1 3211 15                       @ rt-thread/components/dfs/filesystems/elmfat/ff.c:3211:15
	strb.w	r0, [sp, #31]
	b	.LBB0_10
.Ltmp4:
.LBB0_2:
	.loc	1 3212 14 is_stmt 1             @ rt-thread/components/dfs/filesystems/elmfat/ff.c:3212:14
	ldr	r1, [sp, #8]
	.loc	1 3212 8 is_stmt 0              @ rt-thread/components/dfs/filesystems/elmfat/ff.c:3212:8
	movw	r0, :lower16:FatFs
	movt	r0, :upper16:FatFs
	ldr.w	r0, [r0, r1, lsl #2]
	.loc	1 3212 6                        @ rt-thread/components/dfs/filesystems/elmfat/ff.c:3212:6
	str	r0, [sp, #12]
.Ltmp5:
	.loc	1 3214 6 is_stmt 1              @ rt-thread/components/dfs/filesystems/elmfat/ff.c:3214:6
	ldr	r0, [sp, #12]
.Ltmp6:
	.loc	1 3214 6 is_stmt 0              @ rt-thread/components/dfs/filesystems/elmfat/ff.c:3214:6
	cbz	r0, .LBB0_4
	b	.LBB0_3
.LBB0_3:
.Ltmp7:
	.loc	1 3221 3 is_stmt 1              @ rt-thread/components/dfs/filesystems/elmfat/ff.c:3221:3
	ldr	r1, [sp, #12]
	movs	r0, #0
	.loc	1 3221 16 is_stmt 0             @ rt-thread/components/dfs/filesystems/elmfat/ff.c:3221:16
	strb	r0, [r1]
	.loc	1 3222 2 is_stmt 1              @ rt-thread/components/dfs/filesystems/elmfat/ff.c:3222:2
	b	.LBB0_4
.Ltmp8:
.LBB0_4:
	.loc	1 3224 6                        @ rt-thread/components/dfs/filesystems/elmfat/ff.c:3224:6
	ldr	r0, [sp, #24]
.Ltmp9:
	.loc	1 3224 6 is_stmt 0              @ rt-thread/components/dfs/filesystems/elmfat/ff.c:3224:6
	cbz	r0, .LBB0_6
	b	.LBB0_5
.LBB0_5:
.Ltmp10:
	.loc	1 3225 3 is_stmt 1              @ rt-thread/components/dfs/filesystems/elmfat/ff.c:3225:3
	ldr	r1, [sp, #24]
	movs	r0, #0
	.loc	1 3225 15 is_stmt 0             @ rt-thread/components/dfs/filesystems/elmfat/ff.c:3225:15
	strb	r0, [r1]
	.loc	1 3229 2 is_stmt 1              @ rt-thread/components/dfs/filesystems/elmfat/ff.c:3229:2
	b	.LBB0_6
.Ltmp11:
.LBB0_6:
	.loc	1 3230 15                       @ rt-thread/components/dfs/filesystems/elmfat/ff.c:3230:15
	ldr	r0, [sp, #24]
	.loc	1 3230 8 is_stmt 0              @ rt-thread/components/dfs/filesystems/elmfat/ff.c:3230:8
	ldr	r2, [sp, #8]
	.loc	1 3230 2                        @ rt-thread/components/dfs/filesystems/elmfat/ff.c:3230:2
	movw	r1, :lower16:FatFs
	movt	r1, :upper16:FatFs
	.loc	1 3230 13                       @ rt-thread/components/dfs/filesystems/elmfat/ff.c:3230:13
	str.w	r0, [r1, r2, lsl #2]
.Ltmp12:
	.loc	1 3232 7 is_stmt 1              @ rt-thread/components/dfs/filesystems/elmfat/ff.c:3232:7
	ldr	r0, [sp, #24]
	.loc	1 3232 10 is_stmt 0             @ rt-thread/components/dfs/filesystems/elmfat/ff.c:3232:10
	cbz	r0, .LBB0_8
	b	.LBB0_7
.LBB0_7:
	.loc	1 3232 13                       @ rt-thread/components/dfs/filesystems/elmfat/ff.c:3232:13
	ldrb.w	r0, [sp, #19]
.Ltmp13:
	.loc	1 3232 6                        @ rt-thread/components/dfs/filesystems/elmfat/ff.c:3232:6
	cmp	r0, #1
	beq	.LBB0_9
	b	.LBB0_8
.LBB0_8:
	.loc	1 0 6                           @ rt-thread/components/dfs/filesystems/elmfat/ff.c:0:6
	movs	r0, #0
.Ltmp14:
	.loc	1 3232 23                       @ rt-thread/components/dfs/filesystems/elmfat/ff.c:3232:23
	strb.w	r0, [sp, #31]
	b	.LBB0_10
.Ltmp15:
.LBB0_9:
	.loc	1 0 23                          @ rt-thread/components/dfs/filesystems/elmfat/ff.c:0:23
	add	r0, sp, #20
	add	r1, sp, #24
	movs	r2, #0
	.loc	1 3234 8 is_stmt 1              @ rt-thread/components/dfs/filesystems/elmfat/ff.c:3234:8
	bl	find_volume
	.loc	1 3234 6 is_stmt 0              @ rt-thread/components/dfs/filesystems/elmfat/ff.c:3234:6
	strb.w	r0, [sp, #7]
	.loc	1 3235 2 is_stmt 1              @ rt-thread/components/dfs/filesystems/elmfat/ff.c:3235:2
	ldrb.w	r0, [sp, #7]
	strb.w	r0, [sp, #31]
	b	.LBB0_10
.LBB0_10:
	.loc	1 3236 1                        @ rt-thread/components/dfs/filesystems/elmfat/ff.c:3236:1
	ldrb.w	r0, [sp, #31]
	add	sp, #32
	pop	{r7, pc}
.Ltmp16:
.Lfunc_end0:
	.size	f_mount, .Lfunc_end0-f_mount
	.cfi_endproc
	.cantunwind
	.fnend
                                        @ -- End function
	.section	.text.get_ldnumber,"ax",%progbits
	.p2align	3                               @ -- Begin function get_ldnumber
	.type	get_ldnumber,%function
	.code	16                              @ @get_ldnumber
	.thumb_func
get_ldnumber:
.Lfunc_begin1:
	.loc	1 2856 0                        @ rt-thread/components/dfs/filesystems/elmfat/ff.c:2856:0
	.fnstart
	.cfi_startproc
@ %bb.0:
	.pad	#28
	sub	sp, #28
	.cfi_def_cfa_offset 28
	str	r0, [sp, #20]
	mov.w	r0, #-1
.Ltmp17:
	.loc	1 2859 6 prologue_end           @ rt-thread/components/dfs/filesystems/elmfat/ff.c:2859:6
	str	r0, [sp, #4]
.Ltmp18:
	.loc	1 2868 7                        @ rt-thread/components/dfs/filesystems/elmfat/ff.c:2868:7
	ldr	r0, [sp, #20]
	.loc	1 2868 6 is_stmt 0              @ rt-thread/components/dfs/filesystems/elmfat/ff.c:2868:6
	ldr	r0, [r0]
.Ltmp19:
	.loc	1 2868 6                        @ rt-thread/components/dfs/filesystems/elmfat/ff.c:2868:6
	cmp	r0, #0
	beq	.LBB1_15
	b	.LBB1_1
.LBB1_1:
.Ltmp20:
	.loc	1 2869 14 is_stmt 1             @ rt-thread/components/dfs/filesystems/elmfat/ff.c:2869:14
	ldr	r0, [sp, #20]
	.loc	1 2869 13 is_stmt 0             @ rt-thread/components/dfs/filesystems/elmfat/ff.c:2869:13
	ldr	r0, [r0]
	.loc	1 2869 11                       @ rt-thread/components/dfs/filesystems/elmfat/ff.c:2869:11
	str	r0, [sp, #12]
	.loc	1 2869 8                        @ rt-thread/components/dfs/filesystems/elmfat/ff.c:2869:8
	b	.LBB1_2
.LBB1_2:                                @ =>This Inner Loop Header: Depth=1
.Ltmp21:
	.loc	1 2869 27                       @ rt-thread/components/dfs/filesystems/elmfat/ff.c:2869:27
	ldr	r0, [sp, #12]
	.loc	1 2869 26                       @ rt-thread/components/dfs/filesystems/elmfat/ff.c:2869:26
	ldrsb.w	r1, [r0]
	movs	r0, #0
	.loc	1 2869 56                       @ rt-thread/components/dfs/filesystems/elmfat/ff.c:2869:56
	cmp	r1, #32
	str	r0, [sp]                        @ 4-byte Spill
	blo	.LBB1_4
	b	.LBB1_3
.LBB1_3:                                @   in Loop: Header=BB1_2 Depth=1
	.loc	1 2869 60                       @ rt-thread/components/dfs/filesystems/elmfat/ff.c:2869:60
	ldr	r0, [sp, #12]
	.loc	1 2869 59                       @ rt-thread/components/dfs/filesystems/elmfat/ff.c:2869:59
	ldrsb.w	r0, [r0]
	.loc	1 2869 63                       @ rt-thread/components/dfs/filesystems/elmfat/ff.c:2869:63
	subs	r0, #58
	it	ne
	movne	r0, #1
	str	r0, [sp]                        @ 4-byte Spill
	b	.LBB1_4
.LBB1_4:                                @   in Loop: Header=BB1_2 Depth=1
	.loc	1 0 0                           @ rt-thread/components/dfs/filesystems/elmfat/ff.c:0:0
	ldr	r0, [sp]                        @ 4-byte Reload
.Ltmp22:
	.loc	1 2869 3                        @ rt-thread/components/dfs/filesystems/elmfat/ff.c:2869:3
	lsls	r0, r0, #31
	cbz	r0, .LBB1_7
	b	.LBB1_5
.LBB1_5:                                @   in Loop: Header=BB1_2 Depth=1
	b	.LBB1_6
.LBB1_6:                                @   in Loop: Header=BB1_2 Depth=1
.Ltmp23:
	.loc	1 2869 73                       @ rt-thread/components/dfs/filesystems/elmfat/ff.c:2869:73
	ldr	r0, [sp, #12]
	adds	r0, #1
	str	r0, [sp, #12]
	.loc	1 2869 3                        @ rt-thread/components/dfs/filesystems/elmfat/ff.c:2869:3
	b	.LBB1_2
.Ltmp24:
.LBB1_7:
	.loc	1 2870 8 is_stmt 1              @ rt-thread/components/dfs/filesystems/elmfat/ff.c:2870:8
	ldr	r0, [sp, #12]
	.loc	1 2870 7 is_stmt 0              @ rt-thread/components/dfs/filesystems/elmfat/ff.c:2870:7
	ldrsb.w	r0, [r0]
.Ltmp25:
	.loc	1 2870 7                        @ rt-thread/components/dfs/filesystems/elmfat/ff.c:2870:7
	cmp	r0, #58
	bne	.LBB1_14
	b	.LBB1_8
.LBB1_8:
.Ltmp26:
	.loc	1 2871 10 is_stmt 1             @ rt-thread/components/dfs/filesystems/elmfat/ff.c:2871:10
	ldr	r0, [sp, #20]
	.loc	1 2871 9 is_stmt 0              @ rt-thread/components/dfs/filesystems/elmfat/ff.c:2871:9
	ldr	r0, [r0]
	.loc	1 2871 7                        @ rt-thread/components/dfs/filesystems/elmfat/ff.c:2871:7
	str	r0, [sp, #16]
	.loc	1 2872 11 is_stmt 1             @ rt-thread/components/dfs/filesystems/elmfat/ff.c:2872:11
	ldr	r0, [sp, #16]
	adds	r1, r0, #1
	str	r1, [sp, #16]
	.loc	1 2872 8 is_stmt 0              @ rt-thread/components/dfs/filesystems/elmfat/ff.c:2872:8
	ldrsb.w	r0, [r0]
	.loc	1 2872 14                       @ rt-thread/components/dfs/filesystems/elmfat/ff.c:2872:14
	subs	r0, #48
	.loc	1 2872 6                        @ rt-thread/components/dfs/filesystems/elmfat/ff.c:2872:6
	str	r0, [sp, #8]
.Ltmp27:
	.loc	1 2873 8 is_stmt 1              @ rt-thread/components/dfs/filesystems/elmfat/ff.c:2873:8
	ldr	r0, [sp, #8]
	.loc	1 2873 15 is_stmt 0             @ rt-thread/components/dfs/filesystems/elmfat/ff.c:2873:15
	cmp	r0, #9
	bhi	.LBB1_13
	b	.LBB1_9
.LBB1_9:
	.loc	1 2873 18                       @ rt-thread/components/dfs/filesystems/elmfat/ff.c:2873:18
	ldr	r0, [sp, #16]
	.loc	1 2873 24                       @ rt-thread/components/dfs/filesystems/elmfat/ff.c:2873:24
	ldr	r1, [sp, #12]
.Ltmp28:
	.loc	1 2873 8                        @ rt-thread/components/dfs/filesystems/elmfat/ff.c:2873:8
	cmp	r0, r1
	bne	.LBB1_13
	b	.LBB1_10
.LBB1_10:
.Ltmp29:
	.loc	1 2874 9 is_stmt 1              @ rt-thread/components/dfs/filesystems/elmfat/ff.c:2874:9
	ldr	r0, [sp, #8]
.Ltmp30:
	.loc	1 2874 9 is_stmt 0              @ rt-thread/components/dfs/filesystems/elmfat/ff.c:2874:9
	cbnz	r0, .LBB1_12
	b	.LBB1_11
.LBB1_11:
.Ltmp31:
	.loc	1 2875 17 is_stmt 1             @ rt-thread/components/dfs/filesystems/elmfat/ff.c:2875:17
	ldr	r0, [sp, #8]
	.loc	1 2875 10 is_stmt 0             @ rt-thread/components/dfs/filesystems/elmfat/ff.c:2875:10
	str	r0, [sp, #4]
	.loc	1 2876 14 is_stmt 1             @ rt-thread/components/dfs/filesystems/elmfat/ff.c:2876:14
	ldr	r0, [sp, #12]
	adds	r0, #1
	str	r0, [sp, #12]
	.loc	1 2876 7 is_stmt 0              @ rt-thread/components/dfs/filesystems/elmfat/ff.c:2876:7
	ldr	r1, [sp, #20]
	.loc	1 2876 12                       @ rt-thread/components/dfs/filesystems/elmfat/ff.c:2876:12
	str	r0, [r1]
	.loc	1 2877 5 is_stmt 1              @ rt-thread/components/dfs/filesystems/elmfat/ff.c:2877:5
	b	.LBB1_12
.Ltmp32:
.LBB1_12:
	.loc	1 2878 4                        @ rt-thread/components/dfs/filesystems/elmfat/ff.c:2878:4
	b	.LBB1_13
.Ltmp33:
.LBB1_13:
	.loc	1 2895 11                       @ rt-thread/components/dfs/filesystems/elmfat/ff.c:2895:11
	ldr	r0, [sp, #4]
	.loc	1 2895 4 is_stmt 0              @ rt-thread/components/dfs/filesystems/elmfat/ff.c:2895:4
	str	r0, [sp, #24]
	b	.LBB1_16
.Ltmp34:
.LBB1_14:
	.loc	1 0 4                           @ rt-thread/components/dfs/filesystems/elmfat/ff.c:0:4
	movs	r0, #0
	.loc	1 2900 7 is_stmt 1              @ rt-thread/components/dfs/filesystems/elmfat/ff.c:2900:7
	str	r0, [sp, #4]
	.loc	1 2902 2                        @ rt-thread/components/dfs/filesystems/elmfat/ff.c:2902:2
	b	.LBB1_15
.Ltmp35:
.LBB1_15:
	.loc	1 2903 9                        @ rt-thread/components/dfs/filesystems/elmfat/ff.c:2903:9
	ldr	r0, [sp, #4]
	.loc	1 2903 2 is_stmt 0              @ rt-thread/components/dfs/filesystems/elmfat/ff.c:2903:2
	str	r0, [sp, #24]
	b	.LBB1_16
.LBB1_16:
	.loc	1 2904 1 is_stmt 1              @ rt-thread/components/dfs/filesystems/elmfat/ff.c:2904:1
	ldr	r0, [sp, #24]
	add	sp, #28
	bx	lr
.Ltmp36:
.Lfunc_end1:
	.size	get_ldnumber, .Lfunc_end1-get_ldnumber
	.cfi_endproc
	.cantunwind
	.fnend
                                        @ -- End function
	.section	.text.find_volume,"ax",%progbits
	.p2align	3                               @ -- Begin function find_volume
	.type	find_volume,%function
	.code	16                              @ @find_volume
	.thumb_func
find_volume:
.Lfunc_begin2:
	.loc	1 2947 0                        @ rt-thread/components/dfs/filesystems/elmfat/ff.c:2947:0
	.fnstart
	.cfi_startproc
@ %bb.0:
	.save	{r7, lr}
	push	{r7, lr}
	.cfi_def_cfa_offset 8
	.cfi_offset lr, -4
	.cfi_offset r7, -8
	.pad	#96
	sub	sp, #96
	.cfi_def_cfa_offset 104
                                        @ kill: def $r3 killed $r2
	str	r0, [sp, #88]
	str	r1, [sp, #84]
	strb.w	r2, [sp, #83]
.Ltmp37:
	.loc	1 2958 3 prologue_end           @ rt-thread/components/dfs/filesystems/elmfat/ff.c:2958:3
	ldr	r1, [sp, #84]
	movs	r0, #0
	.loc	1 2958 7 is_stmt 0              @ rt-thread/components/dfs/filesystems/elmfat/ff.c:2958:7
	str	r0, [r1]
	.loc	1 2959 21 is_stmt 1             @ rt-thread/components/dfs/filesystems/elmfat/ff.c:2959:21
	ldr	r0, [sp, #88]
	.loc	1 2959 8 is_stmt 0              @ rt-thread/components/dfs/filesystems/elmfat/ff.c:2959:8
	bl	get_ldnumber
	.loc	1 2959 6                        @ rt-thread/components/dfs/filesystems/elmfat/ff.c:2959:6
	str	r0, [sp, #72]
.Ltmp38:
	.loc	1 2960 6 is_stmt 1              @ rt-thread/components/dfs/filesystems/elmfat/ff.c:2960:6
	ldr	r0, [sp, #72]
.Ltmp39:
	.loc	1 2960 6 is_stmt 0              @ rt-thread/components/dfs/filesystems/elmfat/ff.c:2960:6
	cmp.w	r0, #-1
	bgt	.LBB2_2
	b	.LBB2_1
.LBB2_1:
	.loc	1 0 6                           @ rt-thread/components/dfs/filesystems/elmfat/ff.c:0:6
	movs	r0, #11
.Ltmp40:
	.loc	1 2960 15                       @ rt-thread/components/dfs/filesystems/elmfat/ff.c:2960:15
	strb.w	r0, [sp, #95]
	b	.LBB2_88
.Ltmp41:
.LBB2_2:
	.loc	1 2963 13 is_stmt 1             @ rt-thread/components/dfs/filesystems/elmfat/ff.c:2963:13
	ldr	r1, [sp, #72]
	.loc	1 2963 7 is_stmt 0              @ rt-thread/components/dfs/filesystems/elmfat/ff.c:2963:7
	movw	r0, :lower16:FatFs
	movt	r0, :upper16:FatFs
	ldr.w	r0, [r0, r1, lsl #2]
	.loc	1 2963 5                        @ rt-thread/components/dfs/filesystems/elmfat/ff.c:2963:5
	str	r0, [sp, #20]
.Ltmp42:
	.loc	1 2964 7 is_stmt 1              @ rt-thread/components/dfs/filesystems/elmfat/ff.c:2964:7
	ldr	r0, [sp, #20]
.Ltmp43:
	.loc	1 2964 6 is_stmt 0              @ rt-thread/components/dfs/filesystems/elmfat/ff.c:2964:6
	cbnz	r0, .LBB2_4
	b	.LBB2_3
.LBB2_3:
	.loc	1 0 6                           @ rt-thread/components/dfs/filesystems/elmfat/ff.c:0:6
	movs	r0, #12
.Ltmp44:
	.loc	1 2964 11                       @ rt-thread/components/dfs/filesystems/elmfat/ff.c:2964:11
	strb.w	r0, [sp, #95]
	b	.LBB2_88
.Ltmp45:
.LBB2_4:
	.loc	1 2967 9 is_stmt 1              @ rt-thread/components/dfs/filesystems/elmfat/ff.c:2967:9
	ldr	r0, [sp, #20]
	.loc	1 2967 3 is_stmt 0              @ rt-thread/components/dfs/filesystems/elmfat/ff.c:2967:3
	ldr	r1, [sp, #84]
	.loc	1 2967 7                        @ rt-thread/components/dfs/filesystems/elmfat/ff.c:2967:7
	str	r0, [r1]
	.loc	1 2969 7 is_stmt 1              @ rt-thread/components/dfs/filesystems/elmfat/ff.c:2969:7
	ldrb.w	r0, [sp, #83]
	and	r0, r0, #254
	strb.w	r0, [sp, #83]
.Ltmp46:
	.loc	1 2970 6                        @ rt-thread/components/dfs/filesystems/elmfat/ff.c:2970:6
	ldr	r0, [sp, #20]
	.loc	1 2970 10 is_stmt 0             @ rt-thread/components/dfs/filesystems/elmfat/ff.c:2970:10
	ldrb	r0, [r0]
.Ltmp47:
	.loc	1 2970 6                        @ rt-thread/components/dfs/filesystems/elmfat/ff.c:2970:6
	cbz	r0, .LBB2_11
	b	.LBB2_5
.LBB2_5:
.Ltmp48:
	.loc	1 2971 22 is_stmt 1             @ rt-thread/components/dfs/filesystems/elmfat/ff.c:2971:22
	ldr	r0, [sp, #20]
	.loc	1 2971 26 is_stmt 0             @ rt-thread/components/dfs/filesystems/elmfat/ff.c:2971:26
	ldrb	r0, [r0, #1]
	.loc	1 2971 10                       @ rt-thread/components/dfs/filesystems/elmfat/ff.c:2971:10
	bl	disk_status
	.loc	1 2971 8                        @ rt-thread/components/dfs/filesystems/elmfat/ff.c:2971:8
	strb.w	r0, [sp, #71]
.Ltmp49:
	.loc	1 2972 9 is_stmt 1              @ rt-thread/components/dfs/filesystems/elmfat/ff.c:2972:9
	ldrb.w	r0, [sp, #71]
.Ltmp50:
	.loc	1 2972 7 is_stmt 0              @ rt-thread/components/dfs/filesystems/elmfat/ff.c:2972:7
	lsls	r0, r0, #31
	cbnz	r0, .LBB2_10
	b	.LBB2_6
.LBB2_6:
.Ltmp51:
	.loc	1 2973 25 is_stmt 1             @ rt-thread/components/dfs/filesystems/elmfat/ff.c:2973:25
	ldrb.w	r0, [sp, #83]
	.loc	1 2973 30 is_stmt 0             @ rt-thread/components/dfs/filesystems/elmfat/ff.c:2973:30
	cbz	r0, .LBB2_9
	b	.LBB2_7
.LBB2_7:
	.loc	1 2973 34                       @ rt-thread/components/dfs/filesystems/elmfat/ff.c:2973:34
	ldrb.w	r0, [sp, #71]
.Ltmp52:
	.loc	1 2973 8                        @ rt-thread/components/dfs/filesystems/elmfat/ff.c:2973:8
	lsls	r0, r0, #29
	cmp	r0, #0
	bpl	.LBB2_9
	b	.LBB2_8
.LBB2_8:
	.loc	1 0 8                           @ rt-thread/components/dfs/filesystems/elmfat/ff.c:0:8
	movs	r0, #10
.Ltmp53:
	.loc	1 2974 5 is_stmt 1              @ rt-thread/components/dfs/filesystems/elmfat/ff.c:2974:5
	strb.w	r0, [sp, #95]
	b	.LBB2_88
.Ltmp54:
.LBB2_9:
	.loc	1 0 5 is_stmt 0                 @ rt-thread/components/dfs/filesystems/elmfat/ff.c:0:5
	movs	r0, #0
	.loc	1 2976 4 is_stmt 1              @ rt-thread/components/dfs/filesystems/elmfat/ff.c:2976:4
	strb.w	r0, [sp, #95]
	b	.LBB2_88
.Ltmp55:
.LBB2_10:
	.loc	1 2978 2                        @ rt-thread/components/dfs/filesystems/elmfat/ff.c:2978:2
	b	.LBB2_11
.Ltmp56:
.LBB2_11:
	.loc	1 2983 2                        @ rt-thread/components/dfs/filesystems/elmfat/ff.c:2983:2
	ldr	r1, [sp, #20]
	movs	r0, #0
	.loc	1 2983 14 is_stmt 0             @ rt-thread/components/dfs/filesystems/elmfat/ff.c:2983:14
	strb	r0, [r1]
	.loc	1 2984 12 is_stmt 1             @ rt-thread/components/dfs/filesystems/elmfat/ff.c:2984:12
	ldr	r0, [sp, #72]
	.loc	1 2984 2 is_stmt 0              @ rt-thread/components/dfs/filesystems/elmfat/ff.c:2984:2
	ldr	r1, [sp, #20]
	.loc	1 2984 10                       @ rt-thread/components/dfs/filesystems/elmfat/ff.c:2984:10
	strb	r0, [r1, #1]
	.loc	1 2985 25 is_stmt 1             @ rt-thread/components/dfs/filesystems/elmfat/ff.c:2985:25
	ldr	r0, [sp, #20]
	.loc	1 2985 29 is_stmt 0             @ rt-thread/components/dfs/filesystems/elmfat/ff.c:2985:29
	ldrb	r0, [r0, #1]
	.loc	1 2985 9                        @ rt-thread/components/dfs/filesystems/elmfat/ff.c:2985:9
	bl	disk_initialize
	.loc	1 2985 7                        @ rt-thread/components/dfs/filesystems/elmfat/ff.c:2985:7
	strb.w	r0, [sp, #71]
.Ltmp57:
	.loc	1 2986 6 is_stmt 1              @ rt-thread/components/dfs/filesystems/elmfat/ff.c:2986:6
	ldrb.w	r0, [sp, #71]
.Ltmp58:
	.loc	1 2986 6 is_stmt 0              @ rt-thread/components/dfs/filesystems/elmfat/ff.c:2986:6
	lsls	r0, r0, #31
	cbz	r0, .LBB2_13
	b	.LBB2_12
.LBB2_12:
	.loc	1 0 6                           @ rt-thread/components/dfs/filesystems/elmfat/ff.c:0:6
	movs	r0, #3
.Ltmp59:
	.loc	1 2987 3 is_stmt 1              @ rt-thread/components/dfs/filesystems/elmfat/ff.c:2987:3
	strb.w	r0, [sp, #95]
	b	.LBB2_88
.Ltmp60:
.LBB2_13:
	.loc	1 2989 23                       @ rt-thread/components/dfs/filesystems/elmfat/ff.c:2989:23
	ldrb.w	r0, [sp, #83]
	.loc	1 2989 28 is_stmt 0             @ rt-thread/components/dfs/filesystems/elmfat/ff.c:2989:28
	cbz	r0, .LBB2_16
	b	.LBB2_14
.LBB2_14:
	.loc	1 2989 32                       @ rt-thread/components/dfs/filesystems/elmfat/ff.c:2989:32
	ldrb.w	r0, [sp, #71]
.Ltmp61:
	.loc	1 2989 6                        @ rt-thread/components/dfs/filesystems/elmfat/ff.c:2989:6
	lsls	r0, r0, #29
	cmp	r0, #0
	bpl	.LBB2_16
	b	.LBB2_15
.LBB2_15:
	.loc	1 0 6                           @ rt-thread/components/dfs/filesystems/elmfat/ff.c:0:6
	movs	r0, #10
.Ltmp62:
	.loc	1 2990 3 is_stmt 1              @ rt-thread/components/dfs/filesystems/elmfat/ff.c:2990:3
	strb.w	r0, [sp, #95]
	b	.LBB2_88
.Ltmp63:
.LBB2_16:
	.loc	1 0 3 is_stmt 0                 @ rt-thread/components/dfs/filesystems/elmfat/ff.c:0:3
	movs	r0, #0
	.loc	1 2997 8 is_stmt 1              @ rt-thread/components/dfs/filesystems/elmfat/ff.c:2997:8
	str	r0, [sp, #64]
	.loc	1 2998 17                       @ rt-thread/components/dfs/filesystems/elmfat/ff.c:2998:17
	ldr	r0, [sp, #20]
	.loc	1 2998 21 is_stmt 0             @ rt-thread/components/dfs/filesystems/elmfat/ff.c:2998:21
	ldr	r1, [sp, #64]
	.loc	1 2998 8                        @ rt-thread/components/dfs/filesystems/elmfat/ff.c:2998:8
	bl	check_fs
	.loc	1 2998 6                        @ rt-thread/components/dfs/filesystems/elmfat/ff.c:2998:6
	strb.w	r0, [sp, #82]
.Ltmp64:
	.loc	1 2999 6 is_stmt 1              @ rt-thread/components/dfs/filesystems/elmfat/ff.c:2999:6
	ldrb.w	r0, [sp, #82]
	.loc	1 2999 15 is_stmt 0             @ rt-thread/components/dfs/filesystems/elmfat/ff.c:2999:15
	cmp	r0, #2
	beq	.LBB2_19
	b	.LBB2_17
.LBB2_17:
	.loc	1 2999 19                       @ rt-thread/components/dfs/filesystems/elmfat/ff.c:2999:19
	ldrb.w	r0, [sp, #82]
	.loc	1 2999 27                       @ rt-thread/components/dfs/filesystems/elmfat/ff.c:2999:27
	cmp	r0, #1
	bgt	.LBB2_37
	b	.LBB2_18
.Ltmp65:
.LBB2_18:
	.loc	1 0 27                          @ rt-thread/components/dfs/filesystems/elmfat/ff.c:0:27
	movs	r0, #1
	.loc	1 2999 6                        @ rt-thread/components/dfs/filesystems/elmfat/ff.c:2999:6
	cmp	r0, #0
	bne	.LBB2_37
	b	.LBB2_19
.LBB2_19:
	.loc	1 0 6                           @ rt-thread/components/dfs/filesystems/elmfat/ff.c:0:6
	movs	r0, #0
.Ltmp66:
	.loc	1 3000 10 is_stmt 1             @ rt-thread/components/dfs/filesystems/elmfat/ff.c:3000:10
	str	r0, [sp, #16]
	.loc	1 3000 8 is_stmt 0              @ rt-thread/components/dfs/filesystems/elmfat/ff.c:3000:8
	b	.LBB2_20
.LBB2_20:                               @ =>This Inner Loop Header: Depth=1
.Ltmp67:
	.loc	1 3000 15                       @ rt-thread/components/dfs/filesystems/elmfat/ff.c:3000:15
	ldr	r0, [sp, #16]
.Ltmp68:
	.loc	1 3000 3                        @ rt-thread/components/dfs/filesystems/elmfat/ff.c:3000:3
	cmp	r0, #3
	bhi	.LBB2_26
	b	.LBB2_21
.LBB2_21:                               @   in Loop: Header=BB2_20 Depth=1
.Ltmp69:
	.loc	1 3001 9 is_stmt 1              @ rt-thread/components/dfs/filesystems/elmfat/ff.c:3001:9
	ldr	r0, [sp, #20]
	.loc	1 3001 32 is_stmt 0             @ rt-thread/components/dfs/filesystems/elmfat/ff.c:3001:32
	ldr	r1, [sp, #16]
	.loc	1 3001 30                       @ rt-thread/components/dfs/filesystems/elmfat/ff.c:3001:30
	add.w	r0, r0, r1, lsl #4
	.loc	1 3001 17                       @ rt-thread/components/dfs/filesystems/elmfat/ff.c:3001:17
	add.w	r0, r0, #498
	.loc	1 3001 7                        @ rt-thread/components/dfs/filesystems/elmfat/ff.c:3001:7
	str	r0, [sp, #76]
	.loc	1 3002 12 is_stmt 1             @ rt-thread/components/dfs/filesystems/elmfat/ff.c:3002:12
	ldr	r0, [sp, #76]
	ldrb	r0, [r0, #4]
	cbz	r0, .LBB2_23
	b	.LBB2_22
.LBB2_22:                               @   in Loop: Header=BB2_20 Depth=1
	.loc	1 3002 38 is_stmt 0             @ rt-thread/components/dfs/filesystems/elmfat/ff.c:3002:38
	ldr	r0, [sp, #76]
	.loc	1 3002 41                       @ rt-thread/components/dfs/filesystems/elmfat/ff.c:3002:41
	adds	r0, #8
	.loc	1 3002 29                       @ rt-thread/components/dfs/filesystems/elmfat/ff.c:3002:29
	bl	ld_dword
	.loc	1 3002 12                       @ rt-thread/components/dfs/filesystems/elmfat/ff.c:3002:12
	str	r0, [sp, #12]                   @ 4-byte Spill
	b	.LBB2_24
.LBB2_23:                               @   in Loop: Header=BB2_20 Depth=1
	.loc	1 0 12                          @ rt-thread/components/dfs/filesystems/elmfat/ff.c:0:12
	movs	r0, #0
	.loc	1 3002 12                       @ rt-thread/components/dfs/filesystems/elmfat/ff.c:3002:12
	str	r0, [sp, #12]                   @ 4-byte Spill
	b	.LBB2_24
.LBB2_24:                               @   in Loop: Header=BB2_20 Depth=1
	ldr	r0, [sp, #12]                   @ 4-byte Reload
	.loc	1 3002 7                        @ rt-thread/components/dfs/filesystems/elmfat/ff.c:3002:7
	ldr	r2, [sp, #16]
	add	r1, sp, #28
	.loc	1 3002 10                       @ rt-thread/components/dfs/filesystems/elmfat/ff.c:3002:10
	str.w	r0, [r1, r2, lsl #2]
	.loc	1 3003 3 is_stmt 1              @ rt-thread/components/dfs/filesystems/elmfat/ff.c:3003:3
	b	.LBB2_25
.Ltmp70:
.LBB2_25:                               @   in Loop: Header=BB2_20 Depth=1
	.loc	1 3000 23                       @ rt-thread/components/dfs/filesystems/elmfat/ff.c:3000:23
	ldr	r0, [sp, #16]
	adds	r0, #1
	str	r0, [sp, #16]
	.loc	1 3000 3 is_stmt 0              @ rt-thread/components/dfs/filesystems/elmfat/ff.c:3000:3
	b	.LBB2_20
.Ltmp71:
.LBB2_26:
	.loc	1 0 3                           @ rt-thread/components/dfs/filesystems/elmfat/ff.c:0:3
	movs	r0, #0
	.loc	1 3004 5 is_stmt 1              @ rt-thread/components/dfs/filesystems/elmfat/ff.c:3004:5
	str	r0, [sp, #16]
.Ltmp72:
	.loc	1 3005 7                        @ rt-thread/components/dfs/filesystems/elmfat/ff.c:3005:7
	ldr	r0, [sp, #16]
.Ltmp73:
	.loc	1 3005 7 is_stmt 0              @ rt-thread/components/dfs/filesystems/elmfat/ff.c:3005:7
	cbz	r0, .LBB2_28
	b	.LBB2_27
.LBB2_27:
.Ltmp74:
	.loc	1 3005 11                       @ rt-thread/components/dfs/filesystems/elmfat/ff.c:3005:11
	ldr	r0, [sp, #16]
	subs	r0, #1
	str	r0, [sp, #16]
	.loc	1 3005 10                       @ rt-thread/components/dfs/filesystems/elmfat/ff.c:3005:10
	b	.LBB2_28
.Ltmp75:
.LBB2_28:
	.loc	1 3006 3 is_stmt 1              @ rt-thread/components/dfs/filesystems/elmfat/ff.c:3006:3
	b	.LBB2_29
.LBB2_29:                               @ =>This Inner Loop Header: Depth=1
.Ltmp76:
	.loc	1 3007 15                       @ rt-thread/components/dfs/filesystems/elmfat/ff.c:3007:15
	ldr	r1, [sp, #16]
	add	r0, sp, #28
	.loc	1 3007 12 is_stmt 0             @ rt-thread/components/dfs/filesystems/elmfat/ff.c:3007:12
	ldr.w	r0, [r0, r1, lsl #2]
	.loc	1 3007 10                       @ rt-thread/components/dfs/filesystems/elmfat/ff.c:3007:10
	str	r0, [sp, #64]
	.loc	1 3008 10 is_stmt 1             @ rt-thread/components/dfs/filesystems/elmfat/ff.c:3008:10
	ldr	r0, [sp, #64]
	cbz	r0, .LBB2_31
	b	.LBB2_30
.LBB2_30:                               @   in Loop: Header=BB2_29 Depth=1
	.loc	1 3008 27 is_stmt 0             @ rt-thread/components/dfs/filesystems/elmfat/ff.c:3008:27
	ldr	r0, [sp, #20]
	.loc	1 3008 31                       @ rt-thread/components/dfs/filesystems/elmfat/ff.c:3008:31
	ldr	r1, [sp, #64]
	.loc	1 3008 18                       @ rt-thread/components/dfs/filesystems/elmfat/ff.c:3008:18
	bl	check_fs
	.loc	1 3008 10                       @ rt-thread/components/dfs/filesystems/elmfat/ff.c:3008:10
	str	r0, [sp, #8]                    @ 4-byte Spill
	b	.LBB2_32
.LBB2_31:                               @   in Loop: Header=BB2_29 Depth=1
	.loc	1 0 10                          @ rt-thread/components/dfs/filesystems/elmfat/ff.c:0:10
	movs	r0, #3
	.loc	1 3008 10                       @ rt-thread/components/dfs/filesystems/elmfat/ff.c:3008:10
	str	r0, [sp, #8]                    @ 4-byte Spill
	b	.LBB2_32
.LBB2_32:                               @   in Loop: Header=BB2_29 Depth=1
	ldr	r0, [sp, #8]                    @ 4-byte Reload
	.loc	1 3008 8                        @ rt-thread/components/dfs/filesystems/elmfat/ff.c:3008:8
	strb.w	r0, [sp, #82]
	.loc	1 3009 3 is_stmt 1              @ rt-thread/components/dfs/filesystems/elmfat/ff.c:3009:3
	b	.LBB2_33
.Ltmp77:
.LBB2_33:                               @   in Loop: Header=BB2_29 Depth=1
	.loc	1 3009 27 is_stmt 0             @ rt-thread/components/dfs/filesystems/elmfat/ff.c:3009:27
	ldrb.w	r1, [sp, #82]
	movs	r0, #0
	.loc	1 3009 36                       @ rt-thread/components/dfs/filesystems/elmfat/ff.c:3009:36
	cmp	r1, #2
	str	r0, [sp, #4]                    @ 4-byte Spill
	blt	.LBB2_35
	b	.LBB2_34
.LBB2_34:                               @   in Loop: Header=BB2_29 Depth=1
	.loc	1 3009 39                       @ rt-thread/components/dfs/filesystems/elmfat/ff.c:3009:39
	ldr	r0, [sp, #16]
	adds	r1, r0, #1
	str	r1, [sp, #16]
	movs	r0, #0
	.loc	1 3009 43                       @ rt-thread/components/dfs/filesystems/elmfat/ff.c:3009:43
	cmp	r1, #4
	it	lo
	movlo	r0, #1
	str	r0, [sp, #4]                    @ 4-byte Spill
	b	.LBB2_35
.LBB2_35:                               @   in Loop: Header=BB2_29 Depth=1
	.loc	1 0 0                           @ rt-thread/components/dfs/filesystems/elmfat/ff.c:0:0
	ldr	r0, [sp, #4]                    @ 4-byte Reload
.Ltmp78:
	.loc	1 3009 3                        @ rt-thread/components/dfs/filesystems/elmfat/ff.c:3009:3
	lsls	r0, r0, #31
	cmp	r0, #0
	bne	.LBB2_29
	b	.LBB2_36
.Ltmp79:
.LBB2_36:
	.loc	1 3010 2 is_stmt 1              @ rt-thread/components/dfs/filesystems/elmfat/ff.c:3010:2
	b	.LBB2_37
.Ltmp80:
.LBB2_37:
	.loc	1 3011 6                        @ rt-thread/components/dfs/filesystems/elmfat/ff.c:3011:6
	ldrb.w	r0, [sp, #82]
.Ltmp81:
	.loc	1 3011 6 is_stmt 0              @ rt-thread/components/dfs/filesystems/elmfat/ff.c:3011:6
	cmp	r0, #4
	bne	.LBB2_39
	b	.LBB2_38
.LBB2_38:
	.loc	1 0 6                           @ rt-thread/components/dfs/filesystems/elmfat/ff.c:0:6
	movs	r0, #1
.Ltmp82:
	.loc	1 3011 16                       @ rt-thread/components/dfs/filesystems/elmfat/ff.c:3011:16
	strb.w	r0, [sp, #95]
	b	.LBB2_88
.Ltmp83:
.LBB2_39:
	.loc	1 3012 6 is_stmt 1              @ rt-thread/components/dfs/filesystems/elmfat/ff.c:3012:6
	ldrb.w	r0, [sp, #82]
.Ltmp84:
	.loc	1 3012 6 is_stmt 0              @ rt-thread/components/dfs/filesystems/elmfat/ff.c:3012:6
	cmp	r0, #2
	blt	.LBB2_41
	b	.LBB2_40
.LBB2_40:
	.loc	1 0 6                           @ rt-thread/components/dfs/filesystems/elmfat/ff.c:0:6
	movs	r0, #13
.Ltmp85:
	.loc	1 3012 16                       @ rt-thread/components/dfs/filesystems/elmfat/ff.c:3012:16
	strb.w	r0, [sp, #95]
	b	.LBB2_88
.Ltmp86:
.LBB2_41:
	.loc	1 3063 15 is_stmt 1             @ rt-thread/components/dfs/filesystems/elmfat/ff.c:3063:15
	ldr	r0, [sp, #20]
	.loc	1 3063 23 is_stmt 0             @ rt-thread/components/dfs/filesystems/elmfat/ff.c:3063:23
	adds	r0, #63
	.loc	1 3063 7                        @ rt-thread/components/dfs/filesystems/elmfat/ff.c:3063:7
	bl	ld_word
.Ltmp87:
	.loc	1 3063 7                        @ rt-thread/components/dfs/filesystems/elmfat/ff.c:3063:7
	cmp.w	r0, #512
	beq	.LBB2_43
	b	.LBB2_42
.LBB2_42:
	.loc	1 0 7                           @ rt-thread/components/dfs/filesystems/elmfat/ff.c:0:7
	movs	r0, #13
.Ltmp88:
	.loc	1 3063 52                       @ rt-thread/components/dfs/filesystems/elmfat/ff.c:3063:52
	strb.w	r0, [sp, #95]
	b	.LBB2_88
.Ltmp89:
.LBB2_43:
	.loc	1 3065 20 is_stmt 1             @ rt-thread/components/dfs/filesystems/elmfat/ff.c:3065:20
	ldr	r0, [sp, #20]
	.loc	1 3065 28 is_stmt 0             @ rt-thread/components/dfs/filesystems/elmfat/ff.c:3065:28
	adds	r0, #74
	.loc	1 3065 12                       @ rt-thread/components/dfs/filesystems/elmfat/ff.c:3065:12
	bl	ld_word
	.loc	1 3065 10                       @ rt-thread/components/dfs/filesystems/elmfat/ff.c:3065:10
	str	r0, [sp, #60]
.Ltmp90:
	.loc	1 3066 7 is_stmt 1              @ rt-thread/components/dfs/filesystems/elmfat/ff.c:3066:7
	ldr	r0, [sp, #60]
.Ltmp91:
	.loc	1 3066 7 is_stmt 0              @ rt-thread/components/dfs/filesystems/elmfat/ff.c:3066:7
	cbnz	r0, .LBB2_45
	b	.LBB2_44
.LBB2_44:
.Ltmp92:
	.loc	1 3066 38                       @ rt-thread/components/dfs/filesystems/elmfat/ff.c:3066:38
	ldr	r0, [sp, #20]
	.loc	1 3066 46                       @ rt-thread/components/dfs/filesystems/elmfat/ff.c:3066:46
	adds	r0, #88
	.loc	1 3066 29                       @ rt-thread/components/dfs/filesystems/elmfat/ff.c:3066:29
	bl	ld_dword
	.loc	1 3066 27                       @ rt-thread/components/dfs/filesystems/elmfat/ff.c:3066:27
	str	r0, [sp, #60]
	.loc	1 3066 20                       @ rt-thread/components/dfs/filesystems/elmfat/ff.c:3066:20
	b	.LBB2_45
.Ltmp93:
.LBB2_45:
	.loc	1 3067 15 is_stmt 1             @ rt-thread/components/dfs/filesystems/elmfat/ff.c:3067:15
	ldr	r0, [sp, #60]
	.loc	1 3067 3 is_stmt 0              @ rt-thread/components/dfs/filesystems/elmfat/ff.c:3067:3
	ldr	r1, [sp, #20]
	.loc	1 3067 13                       @ rt-thread/components/dfs/filesystems/elmfat/ff.c:3067:13
	str	r0, [r1, #28]
	.loc	1 3069 16 is_stmt 1             @ rt-thread/components/dfs/filesystems/elmfat/ff.c:3069:16
	ldr	r1, [sp, #20]
	ldrb.w	r0, [r1, #68]
	.loc	1 3069 14 is_stmt 0             @ rt-thread/components/dfs/filesystems/elmfat/ff.c:3069:14
	strb	r0, [r1, #2]
.Ltmp94:
	.loc	1 3070 7 is_stmt 1              @ rt-thread/components/dfs/filesystems/elmfat/ff.c:3070:7
	ldr	r0, [sp, #20]
	.loc	1 3070 11 is_stmt 0             @ rt-thread/components/dfs/filesystems/elmfat/ff.c:3070:11
	ldrb	r0, [r0, #2]
	.loc	1 3070 23                       @ rt-thread/components/dfs/filesystems/elmfat/ff.c:3070:23
	cmp	r0, #1
	beq	.LBB2_48
	b	.LBB2_46
.LBB2_46:
	.loc	1 3070 26                       @ rt-thread/components/dfs/filesystems/elmfat/ff.c:3070:26
	ldr	r0, [sp, #20]
	.loc	1 3070 30                       @ rt-thread/components/dfs/filesystems/elmfat/ff.c:3070:30
	ldrb	r0, [r0, #2]
.Ltmp95:
	.loc	1 3070 7                        @ rt-thread/components/dfs/filesystems/elmfat/ff.c:3070:7
	cmp	r0, #2
	beq	.LBB2_48
	b	.LBB2_47
.LBB2_47:
	.loc	1 0 7                           @ rt-thread/components/dfs/filesystems/elmfat/ff.c:0:7
	movs	r0, #13
.Ltmp96:
	.loc	1 3070 43                       @ rt-thread/components/dfs/filesystems/elmfat/ff.c:3070:43
	strb.w	r0, [sp, #95]
	b	.LBB2_88
.Ltmp97:
.LBB2_48:
	.loc	1 3071 13 is_stmt 1             @ rt-thread/components/dfs/filesystems/elmfat/ff.c:3071:13
	ldr	r0, [sp, #20]
	.loc	1 3071 17 is_stmt 0             @ rt-thread/components/dfs/filesystems/elmfat/ff.c:3071:17
	ldrb	r1, [r0, #2]
	.loc	1 3071 10                       @ rt-thread/components/dfs/filesystems/elmfat/ff.c:3071:10
	ldr	r0, [sp, #60]
	muls	r0, r1, r0
	str	r0, [sp, #60]
	.loc	1 3073 15 is_stmt 1             @ rt-thread/components/dfs/filesystems/elmfat/ff.c:3073:15
	ldr	r1, [sp, #20]
	ldrb.w	r0, [r1, #65]
	.loc	1 3073 13 is_stmt 0             @ rt-thread/components/dfs/filesystems/elmfat/ff.c:3073:13
	strh	r0, [r1, #10]
.Ltmp98:
	.loc	1 3074 7 is_stmt 1              @ rt-thread/components/dfs/filesystems/elmfat/ff.c:3074:7
	ldr	r0, [sp, #20]
	.loc	1 3074 11 is_stmt 0             @ rt-thread/components/dfs/filesystems/elmfat/ff.c:3074:11
	ldrh	r0, [r0, #10]
	.loc	1 3074 22                       @ rt-thread/components/dfs/filesystems/elmfat/ff.c:3074:22
	cbz	r0, .LBB2_50
	b	.LBB2_49
.LBB2_49:
	.loc	1 3074 26                       @ rt-thread/components/dfs/filesystems/elmfat/ff.c:3074:26
	ldr	r0, [sp, #20]
	.loc	1 3074 30                       @ rt-thread/components/dfs/filesystems/elmfat/ff.c:3074:30
	ldrh	r0, [r0, #10]
	.loc	1 3074 49                       @ rt-thread/components/dfs/filesystems/elmfat/ff.c:3074:49
	subs	r1, r0, #1
.Ltmp99:
	.loc	1 3074 7                        @ rt-thread/components/dfs/filesystems/elmfat/ff.c:3074:7
	tst	r0, r1
	beq	.LBB2_51
	b	.LBB2_50
.LBB2_50:
	.loc	1 0 7                           @ rt-thread/components/dfs/filesystems/elmfat/ff.c:0:7
	movs	r0, #13
.Ltmp100:
	.loc	1 3074 56                       @ rt-thread/components/dfs/filesystems/elmfat/ff.c:3074:56
	strb.w	r0, [sp, #95]
	b	.LBB2_88
.Ltmp101:
.LBB2_51:
	.loc	1 3076 27 is_stmt 1             @ rt-thread/components/dfs/filesystems/elmfat/ff.c:3076:27
	ldr	r0, [sp, #20]
	.loc	1 3076 35 is_stmt 0             @ rt-thread/components/dfs/filesystems/elmfat/ff.c:3076:35
	adds	r0, #69
	.loc	1 3076 19                       @ rt-thread/components/dfs/filesystems/elmfat/ff.c:3076:19
	bl	ld_word
	.loc	1 3076 3                        @ rt-thread/components/dfs/filesystems/elmfat/ff.c:3076:3
	ldr	r1, [sp, #20]
	.loc	1 3076 17                       @ rt-thread/components/dfs/filesystems/elmfat/ff.c:3076:17
	strh	r0, [r1, #8]
.Ltmp102:
	.loc	1 3077 7 is_stmt 1              @ rt-thread/components/dfs/filesystems/elmfat/ff.c:3077:7
	ldr	r0, [sp, #20]
.Ltmp103:
	.loc	1 3077 7 is_stmt 0              @ rt-thread/components/dfs/filesystems/elmfat/ff.c:3077:7
	ldrb	r0, [r0, #8]
	lsls	r0, r0, #28
	cbz	r0, .LBB2_53
	b	.LBB2_52
.LBB2_52:
	.loc	1 0 7                           @ rt-thread/components/dfs/filesystems/elmfat/ff.c:0:7
	movs	r0, #13
.Ltmp104:
	.loc	1 3077 42                       @ rt-thread/components/dfs/filesystems/elmfat/ff.c:3077:42
	strb.w	r0, [sp, #95]
	b	.LBB2_88
.Ltmp105:
.LBB2_53:
	.loc	1 3079 19 is_stmt 1             @ rt-thread/components/dfs/filesystems/elmfat/ff.c:3079:19
	ldr	r0, [sp, #20]
	.loc	1 3079 27 is_stmt 0             @ rt-thread/components/dfs/filesystems/elmfat/ff.c:3079:27
	adds	r0, #71
	.loc	1 3079 11                       @ rt-thread/components/dfs/filesystems/elmfat/ff.c:3079:11
	bl	ld_word
	.loc	1 3079 9                        @ rt-thread/components/dfs/filesystems/elmfat/ff.c:3079:9
	str	r0, [sp, #56]
.Ltmp106:
	.loc	1 3080 7 is_stmt 1              @ rt-thread/components/dfs/filesystems/elmfat/ff.c:3080:7
	ldr	r0, [sp, #56]
.Ltmp107:
	.loc	1 3080 7 is_stmt 0              @ rt-thread/components/dfs/filesystems/elmfat/ff.c:3080:7
	cbnz	r0, .LBB2_55
	b	.LBB2_54
.LBB2_54:
.Ltmp108:
	.loc	1 3080 36                       @ rt-thread/components/dfs/filesystems/elmfat/ff.c:3080:36
	ldr	r0, [sp, #20]
	.loc	1 3080 44                       @ rt-thread/components/dfs/filesystems/elmfat/ff.c:3080:44
	adds	r0, #84
	.loc	1 3080 27                       @ rt-thread/components/dfs/filesystems/elmfat/ff.c:3080:27
	bl	ld_dword
	.loc	1 3080 25                       @ rt-thread/components/dfs/filesystems/elmfat/ff.c:3080:25
	str	r0, [sp, #56]
	.loc	1 3080 19                       @ rt-thread/components/dfs/filesystems/elmfat/ff.c:3080:19
	b	.LBB2_55
.Ltmp109:
.LBB2_55:
	.loc	1 3082 18 is_stmt 1             @ rt-thread/components/dfs/filesystems/elmfat/ff.c:3082:18
	ldr	r0, [sp, #20]
	.loc	1 3082 26 is_stmt 0             @ rt-thread/components/dfs/filesystems/elmfat/ff.c:3082:26
	adds	r0, #66
	.loc	1 3082 10                       @ rt-thread/components/dfs/filesystems/elmfat/ff.c:3082:10
	bl	ld_word
	.loc	1 3082 8                        @ rt-thread/components/dfs/filesystems/elmfat/ff.c:3082:8
	strh.w	r0, [sp, #26]
.Ltmp110:
	.loc	1 3083 7 is_stmt 1              @ rt-thread/components/dfs/filesystems/elmfat/ff.c:3083:7
	ldrh.w	r0, [sp, #26]
.Ltmp111:
	.loc	1 3083 7 is_stmt 0              @ rt-thread/components/dfs/filesystems/elmfat/ff.c:3083:7
	cbnz	r0, .LBB2_57
	b	.LBB2_56
.LBB2_56:
	.loc	1 0 7                           @ rt-thread/components/dfs/filesystems/elmfat/ff.c:0:7
	movs	r0, #13
.Ltmp112:
	.loc	1 3083 18                       @ rt-thread/components/dfs/filesystems/elmfat/ff.c:3083:18
	strb.w	r0, [sp, #95]
	b	.LBB2_88
.Ltmp113:
.LBB2_57:
	.loc	1 3086 12 is_stmt 1             @ rt-thread/components/dfs/filesystems/elmfat/ff.c:3086:12
	ldrh.w	r0, [sp, #26]
	.loc	1 3086 19 is_stmt 0             @ rt-thread/components/dfs/filesystems/elmfat/ff.c:3086:19
	ldr	r1, [sp, #60]
	.loc	1 3086 17                       @ rt-thread/components/dfs/filesystems/elmfat/ff.c:3086:17
	add	r0, r1
	.loc	1 3086 28                       @ rt-thread/components/dfs/filesystems/elmfat/ff.c:3086:28
	ldr	r1, [sp, #20]
	.loc	1 3086 32                       @ rt-thread/components/dfs/filesystems/elmfat/ff.c:3086:32
	ldrh	r1, [r1, #8]
	.loc	1 3086 26                       @ rt-thread/components/dfs/filesystems/elmfat/ff.c:3086:26
	add.w	r0, r0, r1, lsr #4
	.loc	1 3086 10                       @ rt-thread/components/dfs/filesystems/elmfat/ff.c:3086:10
	str	r0, [sp, #52]
.Ltmp114:
	.loc	1 3087 7 is_stmt 1              @ rt-thread/components/dfs/filesystems/elmfat/ff.c:3087:7
	ldr	r0, [sp, #56]
	.loc	1 3087 15 is_stmt 0             @ rt-thread/components/dfs/filesystems/elmfat/ff.c:3087:15
	ldr	r1, [sp, #52]
.Ltmp115:
	.loc	1 3087 7                        @ rt-thread/components/dfs/filesystems/elmfat/ff.c:3087:7
	cmp	r0, r1
	bhs	.LBB2_59
	b	.LBB2_58
.LBB2_58:
	.loc	1 0 7                           @ rt-thread/components/dfs/filesystems/elmfat/ff.c:0:7
	movs	r0, #13
.Ltmp116:
	.loc	1 3087 23                       @ rt-thread/components/dfs/filesystems/elmfat/ff.c:3087:23
	strb.w	r0, [sp, #95]
	b	.LBB2_88
.Ltmp117:
.LBB2_59:
	.loc	1 3088 12 is_stmt 1             @ rt-thread/components/dfs/filesystems/elmfat/ff.c:3088:12
	ldr	r0, [sp, #56]
	.loc	1 3088 20 is_stmt 0             @ rt-thread/components/dfs/filesystems/elmfat/ff.c:3088:20
	ldr	r1, [sp, #52]
	.loc	1 3088 18                       @ rt-thread/components/dfs/filesystems/elmfat/ff.c:3088:18
	subs	r0, r0, r1
	.loc	1 3088 30                       @ rt-thread/components/dfs/filesystems/elmfat/ff.c:3088:30
	ldr	r1, [sp, #20]
	.loc	1 3088 34                       @ rt-thread/components/dfs/filesystems/elmfat/ff.c:3088:34
	ldrh	r1, [r1, #10]
	.loc	1 3088 28                       @ rt-thread/components/dfs/filesystems/elmfat/ff.c:3088:28
	udiv	r0, r0, r1
	.loc	1 3088 9                        @ rt-thread/components/dfs/filesystems/elmfat/ff.c:3088:9
	str	r0, [sp, #48]
.Ltmp118:
	.loc	1 3089 7 is_stmt 1              @ rt-thread/components/dfs/filesystems/elmfat/ff.c:3089:7
	ldr	r0, [sp, #48]
.Ltmp119:
	.loc	1 3089 7 is_stmt 0              @ rt-thread/components/dfs/filesystems/elmfat/ff.c:3089:7
	cbnz	r0, .LBB2_61
	b	.LBB2_60
.LBB2_60:
	.loc	1 0 7                           @ rt-thread/components/dfs/filesystems/elmfat/ff.c:0:7
	movs	r0, #13
.Ltmp120:
	.loc	1 3089 19                       @ rt-thread/components/dfs/filesystems/elmfat/ff.c:3089:19
	strb.w	r0, [sp, #95]
	b	.LBB2_88
.Ltmp121:
.LBB2_61:
	.loc	1 0 19                          @ rt-thread/components/dfs/filesystems/elmfat/ff.c:0:19
	movs	r0, #3
	.loc	1 3090 7 is_stmt 1              @ rt-thread/components/dfs/filesystems/elmfat/ff.c:3090:7
	strb.w	r0, [sp, #82]
.Ltmp122:
	.loc	1 3091 7                        @ rt-thread/components/dfs/filesystems/elmfat/ff.c:3091:7
	ldr	r0, [sp, #48]
	movw	r1, #65525
.Ltmp123:
	.loc	1 3091 7 is_stmt 0              @ rt-thread/components/dfs/filesystems/elmfat/ff.c:3091:7
	cmp	r0, r1
	bhi	.LBB2_63
	b	.LBB2_62
.LBB2_62:
	.loc	1 0 7                           @ rt-thread/components/dfs/filesystems/elmfat/ff.c:0:7
	movs	r0, #2
.Ltmp124:
	.loc	1 3091 31                       @ rt-thread/components/dfs/filesystems/elmfat/ff.c:3091:31
	strb.w	r0, [sp, #82]
	.loc	1 3091 27                       @ rt-thread/components/dfs/filesystems/elmfat/ff.c:3091:27
	b	.LBB2_63
.Ltmp125:
.LBB2_63:
	.loc	1 3092 7 is_stmt 1              @ rt-thread/components/dfs/filesystems/elmfat/ff.c:3092:7
	ldr	r0, [sp, #48]
	movw	r1, #4085
.Ltmp126:
	.loc	1 3092 7 is_stmt 0              @ rt-thread/components/dfs/filesystems/elmfat/ff.c:3092:7
	cmp	r0, r1
	bhi	.LBB2_65
	b	.LBB2_64
.LBB2_64:
	.loc	1 0 7                           @ rt-thread/components/dfs/filesystems/elmfat/ff.c:0:7
	movs	r0, #1
.Ltmp127:
	.loc	1 3092 31                       @ rt-thread/components/dfs/filesystems/elmfat/ff.c:3092:31
	strb.w	r0, [sp, #82]
	.loc	1 3092 27                       @ rt-thread/components/dfs/filesystems/elmfat/ff.c:3092:27
	b	.LBB2_65
.Ltmp128:
.LBB2_65:
	.loc	1 3095 18 is_stmt 1             @ rt-thread/components/dfs/filesystems/elmfat/ff.c:3095:18
	ldr	r0, [sp, #48]
	.loc	1 3095 24 is_stmt 0             @ rt-thread/components/dfs/filesystems/elmfat/ff.c:3095:24
	adds	r0, #2
	.loc	1 3095 3                        @ rt-thread/components/dfs/filesystems/elmfat/ff.c:3095:3
	ldr	r1, [sp, #20]
	.loc	1 3095 16                       @ rt-thread/components/dfs/filesystems/elmfat/ff.c:3095:16
	str	r0, [r1, #24]
	.loc	1 3096 17 is_stmt 1             @ rt-thread/components/dfs/filesystems/elmfat/ff.c:3096:17
	ldr	r0, [sp, #64]
	.loc	1 3096 3 is_stmt 0              @ rt-thread/components/dfs/filesystems/elmfat/ff.c:3096:3
	ldr	r1, [sp, #20]
	.loc	1 3096 15                       @ rt-thread/components/dfs/filesystems/elmfat/ff.c:3096:15
	str	r0, [r1, #32]
	.loc	1 3097 17 is_stmt 1             @ rt-thread/components/dfs/filesystems/elmfat/ff.c:3097:17
	ldr	r0, [sp, #64]
	.loc	1 3097 25 is_stmt 0             @ rt-thread/components/dfs/filesystems/elmfat/ff.c:3097:25
	ldrh.w	r1, [sp, #26]
	.loc	1 3097 23                       @ rt-thread/components/dfs/filesystems/elmfat/ff.c:3097:23
	add	r0, r1
	.loc	1 3097 3                        @ rt-thread/components/dfs/filesystems/elmfat/ff.c:3097:3
	ldr	r1, [sp, #20]
	.loc	1 3097 15                       @ rt-thread/components/dfs/filesystems/elmfat/ff.c:3097:15
	str	r0, [r1, #36]
	.loc	1 3098 18 is_stmt 1             @ rt-thread/components/dfs/filesystems/elmfat/ff.c:3098:18
	ldr	r0, [sp, #64]
	.loc	1 3098 26 is_stmt 0             @ rt-thread/components/dfs/filesystems/elmfat/ff.c:3098:26
	ldr	r1, [sp, #52]
	.loc	1 3098 24                       @ rt-thread/components/dfs/filesystems/elmfat/ff.c:3098:24
	add	r0, r1
	.loc	1 3098 3                        @ rt-thread/components/dfs/filesystems/elmfat/ff.c:3098:3
	ldr	r1, [sp, #20]
	.loc	1 3098 16                       @ rt-thread/components/dfs/filesystems/elmfat/ff.c:3098:16
	str	r0, [r1, #44]
.Ltmp129:
	.loc	1 3099 7 is_stmt 1              @ rt-thread/components/dfs/filesystems/elmfat/ff.c:3099:7
	ldrb.w	r0, [sp, #82]
.Ltmp130:
	.loc	1 3099 7 is_stmt 0              @ rt-thread/components/dfs/filesystems/elmfat/ff.c:3099:7
	cmp	r0, #3
	bne	.LBB2_71
	b	.LBB2_66
.LBB2_66:
.Ltmp131:
	.loc	1 3100 16 is_stmt 1             @ rt-thread/components/dfs/filesystems/elmfat/ff.c:3100:16
	ldr	r0, [sp, #20]
	.loc	1 3100 24 is_stmt 0             @ rt-thread/components/dfs/filesystems/elmfat/ff.c:3100:24
	adds	r0, #94
	.loc	1 3100 8                        @ rt-thread/components/dfs/filesystems/elmfat/ff.c:3100:8
	bl	ld_word
.Ltmp132:
	.loc	1 3100 8                        @ rt-thread/components/dfs/filesystems/elmfat/ff.c:3100:8
	cbz	r0, .LBB2_68
	b	.LBB2_67
.LBB2_67:
	.loc	1 0 8                           @ rt-thread/components/dfs/filesystems/elmfat/ff.c:0:8
	movs	r0, #13
.Ltmp133:
	.loc	1 3100 45                       @ rt-thread/components/dfs/filesystems/elmfat/ff.c:3100:45
	strb.w	r0, [sp, #95]
	b	.LBB2_88
.Ltmp134:
.LBB2_68:
	.loc	1 3101 8 is_stmt 1              @ rt-thread/components/dfs/filesystems/elmfat/ff.c:3101:8
	ldr	r0, [sp, #20]
	.loc	1 3101 12 is_stmt 0             @ rt-thread/components/dfs/filesystems/elmfat/ff.c:3101:12
	ldrh	r0, [r0, #8]
.Ltmp135:
	.loc	1 3101 8                        @ rt-thread/components/dfs/filesystems/elmfat/ff.c:3101:8
	cbz	r0, .LBB2_70
	b	.LBB2_69
.LBB2_69:
	.loc	1 0 8                           @ rt-thread/components/dfs/filesystems/elmfat/ff.c:0:8
	movs	r0, #13
.Ltmp136:
	.loc	1 3101 23                       @ rt-thread/components/dfs/filesystems/elmfat/ff.c:3101:23
	strb.w	r0, [sp, #95]
	b	.LBB2_88
.Ltmp137:
.LBB2_70:
	.loc	1 3102 27 is_stmt 1             @ rt-thread/components/dfs/filesystems/elmfat/ff.c:3102:27
	ldr	r0, [sp, #20]
	.loc	1 3102 35 is_stmt 0             @ rt-thread/components/dfs/filesystems/elmfat/ff.c:3102:35
	adds	r0, #96
	.loc	1 3102 18                       @ rt-thread/components/dfs/filesystems/elmfat/ff.c:3102:18
	bl	ld_dword
	.loc	1 3102 4                        @ rt-thread/components/dfs/filesystems/elmfat/ff.c:3102:4
	ldr	r1, [sp, #20]
	.loc	1 3102 16                       @ rt-thread/components/dfs/filesystems/elmfat/ff.c:3102:16
	str	r0, [r1, #40]
	.loc	1 3103 13 is_stmt 1             @ rt-thread/components/dfs/filesystems/elmfat/ff.c:3103:13
	ldr	r0, [sp, #20]
	.loc	1 3103 17 is_stmt 0             @ rt-thread/components/dfs/filesystems/elmfat/ff.c:3103:17
	ldr	r0, [r0, #24]
	.loc	1 3103 26                       @ rt-thread/components/dfs/filesystems/elmfat/ff.c:3103:26
	lsls	r0, r0, #2
	.loc	1 3103 11                       @ rt-thread/components/dfs/filesystems/elmfat/ff.c:3103:11
	str	r0, [sp, #44]
	.loc	1 3104 3 is_stmt 1              @ rt-thread/components/dfs/filesystems/elmfat/ff.c:3104:3
	b	.LBB2_77
.Ltmp138:
.LBB2_71:
	.loc	1 3105 8                        @ rt-thread/components/dfs/filesystems/elmfat/ff.c:3105:8
	ldr	r0, [sp, #20]
	.loc	1 3105 12 is_stmt 0             @ rt-thread/components/dfs/filesystems/elmfat/ff.c:3105:12
	ldrh	r0, [r0, #8]
.Ltmp139:
	.loc	1 3105 8                        @ rt-thread/components/dfs/filesystems/elmfat/ff.c:3105:8
	cbnz	r0, .LBB2_73
	b	.LBB2_72
.LBB2_72:
	.loc	1 0 8                           @ rt-thread/components/dfs/filesystems/elmfat/ff.c:0:8
	movs	r0, #13
.Ltmp140:
	.loc	1 3105 28                       @ rt-thread/components/dfs/filesystems/elmfat/ff.c:3105:28
	strb.w	r0, [sp, #95]
	b	.LBB2_88
.Ltmp141:
.LBB2_73:
	.loc	1 3106 18 is_stmt 1             @ rt-thread/components/dfs/filesystems/elmfat/ff.c:3106:18
	ldr	r1, [sp, #20]
	.loc	1 3106 22 is_stmt 0             @ rt-thread/components/dfs/filesystems/elmfat/ff.c:3106:22
	ldr	r0, [r1, #36]
	.loc	1 3106 32                       @ rt-thread/components/dfs/filesystems/elmfat/ff.c:3106:32
	ldr	r2, [sp, #60]
	.loc	1 3106 30                       @ rt-thread/components/dfs/filesystems/elmfat/ff.c:3106:30
	add	r0, r2
	.loc	1 3106 16                       @ rt-thread/components/dfs/filesystems/elmfat/ff.c:3106:16
	str	r0, [r1, #40]
	.loc	1 3107 14 is_stmt 1             @ rt-thread/components/dfs/filesystems/elmfat/ff.c:3107:14
	ldrb.w	r0, [sp, #82]
	.loc	1 3107 13 is_stmt 0             @ rt-thread/components/dfs/filesystems/elmfat/ff.c:3107:13
	cmp	r0, #2
	bne	.LBB2_75
	b	.LBB2_74
.LBB2_74:
	.loc	1 3108 5 is_stmt 1              @ rt-thread/components/dfs/filesystems/elmfat/ff.c:3108:5
	ldr	r0, [sp, #20]
	.loc	1 3108 9 is_stmt 0              @ rt-thread/components/dfs/filesystems/elmfat/ff.c:3108:9
	ldr	r0, [r0, #24]
	.loc	1 3108 18                       @ rt-thread/components/dfs/filesystems/elmfat/ff.c:3108:18
	lsls	r0, r0, #1
	.loc	1 3107 13 is_stmt 1             @ rt-thread/components/dfs/filesystems/elmfat/ff.c:3107:13
	str	r0, [sp]                        @ 4-byte Spill
	b	.LBB2_76
.LBB2_75:
	.loc	1 3108 24                       @ rt-thread/components/dfs/filesystems/elmfat/ff.c:3108:24
	ldr	r0, [sp, #20]
	.loc	1 3108 28 is_stmt 0             @ rt-thread/components/dfs/filesystems/elmfat/ff.c:3108:28
	ldr	r0, [r0, #24]
	.loc	1 3108 37                       @ rt-thread/components/dfs/filesystems/elmfat/ff.c:3108:37
	add.w	r1, r0, r0, lsl #1
	.loc	1 3108 61                       @ rt-thread/components/dfs/filesystems/elmfat/ff.c:3108:61
	and	r0, r0, #1
	.loc	1 3108 45                       @ rt-thread/components/dfs/filesystems/elmfat/ff.c:3108:45
	add.w	r0, r0, r1, lsr #1
	.loc	1 3107 13 is_stmt 1             @ rt-thread/components/dfs/filesystems/elmfat/ff.c:3107:13
	str	r0, [sp]                        @ 4-byte Spill
	b	.LBB2_76
.LBB2_76:
	ldr	r0, [sp]                        @ 4-byte Reload
	.loc	1 3107 11 is_stmt 0             @ rt-thread/components/dfs/filesystems/elmfat/ff.c:3107:11
	str	r0, [sp, #44]
	b	.LBB2_77
.Ltmp142:
.LBB2_77:
	.loc	1 3110 7 is_stmt 1              @ rt-thread/components/dfs/filesystems/elmfat/ff.c:3110:7
	ldr	r0, [sp, #20]
	.loc	1 3110 11 is_stmt 0             @ rt-thread/components/dfs/filesystems/elmfat/ff.c:3110:11
	ldr	r0, [r0, #28]
	.loc	1 3110 20                       @ rt-thread/components/dfs/filesystems/elmfat/ff.c:3110:20
	ldr	r1, [sp, #44]
	.loc	1 3110 27                       @ rt-thread/components/dfs/filesystems/elmfat/ff.c:3110:27
	addw	r1, r1, #511
.Ltmp143:
	.loc	1 3110 7                        @ rt-thread/components/dfs/filesystems/elmfat/ff.c:3110:7
	cmp.w	r0, r1, lsr #9
	bhs	.LBB2_79
	b	.LBB2_78
.LBB2_78:
	.loc	1 0 7                           @ rt-thread/components/dfs/filesystems/elmfat/ff.c:0:7
	movs	r0, #13
.Ltmp144:
	.loc	1 3110 53                       @ rt-thread/components/dfs/filesystems/elmfat/ff.c:3110:53
	strb.w	r0, [sp, #95]
	b	.LBB2_88
.Ltmp145:
.LBB2_79:
	.loc	1 3114 19 is_stmt 1             @ rt-thread/components/dfs/filesystems/elmfat/ff.c:3114:19
	ldr	r1, [sp, #20]
	mov.w	r0, #-1
	.loc	1 3114 33 is_stmt 0             @ rt-thread/components/dfs/filesystems/elmfat/ff.c:3114:33
	str	r0, [r1, #20]
	.loc	1 3114 3                        @ rt-thread/components/dfs/filesystems/elmfat/ff.c:3114:3
	ldr	r1, [sp, #20]
	.loc	1 3114 17                       @ rt-thread/components/dfs/filesystems/elmfat/ff.c:3114:17
	str	r0, [r1, #16]
	.loc	1 3115 3 is_stmt 1              @ rt-thread/components/dfs/filesystems/elmfat/ff.c:3115:3
	ldr	r1, [sp, #20]
	movs	r0, #128
	.loc	1 3115 16 is_stmt 0             @ rt-thread/components/dfs/filesystems/elmfat/ff.c:3115:16
	strb	r0, [r1, #4]
.Ltmp146:
	.loc	1 3117 7 is_stmt 1              @ rt-thread/components/dfs/filesystems/elmfat/ff.c:3117:7
	ldrb.w	r0, [sp, #82]
	.loc	1 3118 4                        @ rt-thread/components/dfs/filesystems/elmfat/ff.c:3118:4
	cmp	r0, #3
	bne	.LBB2_87
	b	.LBB2_80
.LBB2_80:
	.loc	1 3118 15 is_stmt 0             @ rt-thread/components/dfs/filesystems/elmfat/ff.c:3118:15
	ldr	r0, [sp, #20]
	.loc	1 3118 23                       @ rt-thread/components/dfs/filesystems/elmfat/ff.c:3118:23
	adds	r0, #100
	.loc	1 3118 7                        @ rt-thread/components/dfs/filesystems/elmfat/ff.c:3118:7
	bl	ld_word
	.loc	1 3119 4 is_stmt 1              @ rt-thread/components/dfs/filesystems/elmfat/ff.c:3119:4
	cmp	r0, #1
	bne	.LBB2_87
	b	.LBB2_81
.LBB2_81:
	.loc	1 3119 19 is_stmt 0             @ rt-thread/components/dfs/filesystems/elmfat/ff.c:3119:19
	ldr	r0, [sp, #20]
	.loc	1 3119 23                       @ rt-thread/components/dfs/filesystems/elmfat/ff.c:3119:23
	ldr	r1, [sp, #64]
	.loc	1 3119 29                       @ rt-thread/components/dfs/filesystems/elmfat/ff.c:3119:29
	adds	r1, #1
	.loc	1 3119 7                        @ rt-thread/components/dfs/filesystems/elmfat/ff.c:3119:7
	bl	move_window
.Ltmp147:
	.loc	1 3117 7 is_stmt 1              @ rt-thread/components/dfs/filesystems/elmfat/ff.c:3117:7
	cbnz	r0, .LBB2_87
	b	.LBB2_82
.LBB2_82:
.Ltmp148:
	.loc	1 3121 4                        @ rt-thread/components/dfs/filesystems/elmfat/ff.c:3121:4
	ldr	r1, [sp, #20]
	movs	r0, #0
	.loc	1 3121 17 is_stmt 0             @ rt-thread/components/dfs/filesystems/elmfat/ff.c:3121:17
	strb	r0, [r1, #4]
.Ltmp149:
	.loc	1 3122 16 is_stmt 1             @ rt-thread/components/dfs/filesystems/elmfat/ff.c:3122:16
	ldr	r0, [sp, #20]
	.loc	1 3122 24 is_stmt 0             @ rt-thread/components/dfs/filesystems/elmfat/ff.c:3122:24
	addw	r0, r0, #562
	.loc	1 3122 8                        @ rt-thread/components/dfs/filesystems/elmfat/ff.c:3122:8
	bl	ld_word
	movw	r1, #43605
	.loc	1 3123 5 is_stmt 1              @ rt-thread/components/dfs/filesystems/elmfat/ff.c:3123:5
	cmp	r0, r1
	bne	.LBB2_86
	b	.LBB2_83
.LBB2_83:
	.loc	1 3123 17 is_stmt 0             @ rt-thread/components/dfs/filesystems/elmfat/ff.c:3123:17
	ldr	r0, [sp, #20]
	.loc	1 3123 21                       @ rt-thread/components/dfs/filesystems/elmfat/ff.c:3123:21
	adds	r0, #52
	.loc	1 3123 8                        @ rt-thread/components/dfs/filesystems/elmfat/ff.c:3123:8
	bl	ld_dword
	movw	r1, #21074
	movt	r1, #16737
	.loc	1 3124 5 is_stmt 1              @ rt-thread/components/dfs/filesystems/elmfat/ff.c:3124:5
	cmp	r0, r1
	bne	.LBB2_86
	b	.LBB2_84
.LBB2_84:
	.loc	1 3124 17 is_stmt 0             @ rt-thread/components/dfs/filesystems/elmfat/ff.c:3124:17
	ldr	r0, [sp, #20]
	.loc	1 3124 25                       @ rt-thread/components/dfs/filesystems/elmfat/ff.c:3124:25
	add.w	r0, r0, #536
	.loc	1 3124 8                        @ rt-thread/components/dfs/filesystems/elmfat/ff.c:3124:8
	bl	ld_dword
	movw	r1, #29298
	movt	r1, #24897
.Ltmp150:
	.loc	1 3122 8 is_stmt 1              @ rt-thread/components/dfs/filesystems/elmfat/ff.c:3122:8
	cmp	r0, r1
	bne	.LBB2_86
	b	.LBB2_85
.LBB2_85:
.Ltmp151:
	.loc	1 3127 30                       @ rt-thread/components/dfs/filesystems/elmfat/ff.c:3127:30
	ldr	r0, [sp, #20]
	.loc	1 3127 38 is_stmt 0             @ rt-thread/components/dfs/filesystems/elmfat/ff.c:3127:38
	add.w	r0, r0, #540
	.loc	1 3127 21                       @ rt-thread/components/dfs/filesystems/elmfat/ff.c:3127:21
	bl	ld_dword
	.loc	1 3127 5                        @ rt-thread/components/dfs/filesystems/elmfat/ff.c:3127:5
	ldr	r1, [sp, #20]
	.loc	1 3127 19                       @ rt-thread/components/dfs/filesystems/elmfat/ff.c:3127:19
	str	r0, [r1, #20]
	.loc	1 3130 30 is_stmt 1             @ rt-thread/components/dfs/filesystems/elmfat/ff.c:3130:30
	ldr	r0, [sp, #20]
	.loc	1 3130 38 is_stmt 0             @ rt-thread/components/dfs/filesystems/elmfat/ff.c:3130:38
	add.w	r0, r0, #544
	.loc	1 3130 21                       @ rt-thread/components/dfs/filesystems/elmfat/ff.c:3130:21
	bl	ld_dword
	.loc	1 3130 5                        @ rt-thread/components/dfs/filesystems/elmfat/ff.c:3130:5
	ldr	r1, [sp, #20]
	.loc	1 3130 19                       @ rt-thread/components/dfs/filesystems/elmfat/ff.c:3130:19
	str	r0, [r1, #16]
	.loc	1 3132 4 is_stmt 1              @ rt-thread/components/dfs/filesystems/elmfat/ff.c:3132:4
	b	.LBB2_86
.Ltmp152:
.LBB2_86:
	.loc	1 3133 3                        @ rt-thread/components/dfs/filesystems/elmfat/ff.c:3133:3
	b	.LBB2_87
.Ltmp153:
.LBB2_87:
	.loc	1 3138 16                       @ rt-thread/components/dfs/filesystems/elmfat/ff.c:3138:16
	ldrb.w	r0, [sp, #82]
	.loc	1 3138 2 is_stmt 0              @ rt-thread/components/dfs/filesystems/elmfat/ff.c:3138:2
	ldr	r1, [sp, #20]
	.loc	1 3138 14                       @ rt-thread/components/dfs/filesystems/elmfat/ff.c:3138:14
	strb	r0, [r1]
	.loc	1 3139 11 is_stmt 1             @ rt-thread/components/dfs/filesystems/elmfat/ff.c:3139:11
	movw	r1, :lower16:Fsid
	movt	r1, :upper16:Fsid
	ldrh	r0, [r1]
	adds	r0, #1
	strh	r0, [r1]
	.loc	1 3139 2 is_stmt 0              @ rt-thread/components/dfs/filesystems/elmfat/ff.c:3139:2
	ldr	r1, [sp, #20]
	.loc	1 3139 9                        @ rt-thread/components/dfs/filesystems/elmfat/ff.c:3139:9
	strh	r0, [r1, #6]
	movs	r0, #0
	.loc	1 3152 2 is_stmt 1              @ rt-thread/components/dfs/filesystems/elmfat/ff.c:3152:2
	strb.w	r0, [sp, #95]
	b	.LBB2_88
.LBB2_88:
	.loc	1 3153 1                        @ rt-thread/components/dfs/filesystems/elmfat/ff.c:3153:1
	ldrb.w	r0, [sp, #95]
	add	sp, #96
	pop	{r7, pc}
.Ltmp154:
.Lfunc_end2:
	.size	find_volume, .Lfunc_end2-find_volume
	.cfi_endproc
	.cantunwind
	.fnend
                                        @ -- End function
	.section	.text.f_open,"ax",%progbits
	.hidden	f_open                          @ -- Begin function f_open
	.globl	f_open
	.p2align	3
	.type	f_open,%function
	.code	16                              @ @f_open
	.thumb_func
f_open:
.Lfunc_begin3:
	.loc	1 3250 0                        @ rt-thread/components/dfs/filesystems/elmfat/ff.c:3250:0
	.fnstart
	.cfi_startproc
@ %bb.0:
	.save	{r7, lr}
	push	{r7, lr}
	.cfi_def_cfa_offset 8
	.cfi_offset lr, -4
	.cfi_offset r7, -8
	.pad	#616
	sub.w	sp, sp, #616
	.cfi_def_cfa_offset 624
                                        @ kill: def $r3 killed $r2
	str	r0, [sp, #608]
	str	r1, [sp, #604]
	strb.w	r2, [sp, #603]
.Ltmp155:
	.loc	1 3261 7 prologue_end           @ rt-thread/components/dfs/filesystems/elmfat/ff.c:3261:7
	ldr	r0, [sp, #608]
.Ltmp156:
	.loc	1 3261 6 is_stmt 0              @ rt-thread/components/dfs/filesystems/elmfat/ff.c:3261:6
	cbnz	r0, .LBB3_2
	b	.LBB3_1
.LBB3_1:
	.loc	1 0 6                           @ rt-thread/components/dfs/filesystems/elmfat/ff.c:0:6
	movs	r0, #9
.Ltmp157:
	.loc	1 3261 11                       @ rt-thread/components/dfs/filesystems/elmfat/ff.c:3261:11
	strb.w	r0, [sp, #615]
	b	.LBB3_66
.Ltmp158:
.LBB3_2:
	.loc	1 3264 7 is_stmt 1              @ rt-thread/components/dfs/filesystems/elmfat/ff.c:3264:7
	ldrb.w	r0, [sp, #603]
	and	r0, r0, #63
	strb.w	r0, [sp, #603]
	.loc	1 3265 32                       @ rt-thread/components/dfs/filesystems/elmfat/ff.c:3265:32
	ldrb.w	r2, [sp, #603]
	add	r0, sp, #604
	add	r1, sp, #548
	.loc	1 3265 8 is_stmt 0              @ rt-thread/components/dfs/filesystems/elmfat/ff.c:3265:8
	bl	find_volume
	.loc	1 3265 6                        @ rt-thread/components/dfs/filesystems/elmfat/ff.c:3265:6
	strb.w	r0, [sp, #602]
.Ltmp159:
	.loc	1 3266 6 is_stmt 1              @ rt-thread/components/dfs/filesystems/elmfat/ff.c:3266:6
	ldrb.w	r0, [sp, #602]
.Ltmp160:
	.loc	1 3266 6 is_stmt 0              @ rt-thread/components/dfs/filesystems/elmfat/ff.c:3266:6
	cmp	r0, #0
	bne.w	.LBB3_63
	b	.LBB3_3
.LBB3_3:
.Ltmp161:
	.loc	1 3267 15 is_stmt 1             @ rt-thread/components/dfs/filesystems/elmfat/ff.c:3267:15
	ldr	r0, [sp, #548]
	.loc	1 3267 13 is_stmt 0             @ rt-thread/components/dfs/filesystems/elmfat/ff.c:3267:13
	str	r0, [sp, #552]
.Ltmp162:
	.loc	1 3268 3 is_stmt 1              @ rt-thread/components/dfs/filesystems/elmfat/ff.c:3268:3
	ldr	r1, [sp, #548]
	add	r0, sp, #12
	str	r0, [r1, #12]
.Ltmp163:
	.loc	1 3269 26                       @ rt-thread/components/dfs/filesystems/elmfat/ff.c:3269:26
	ldr	r1, [sp, #604]
	add	r0, sp, #552
	.loc	1 3269 9 is_stmt 0              @ rt-thread/components/dfs/filesystems/elmfat/ff.c:3269:9
	bl	follow_path
	.loc	1 3269 7                        @ rt-thread/components/dfs/filesystems/elmfat/ff.c:3269:7
	strb.w	r0, [sp, #602]
.Ltmp164:
	.loc	1 3271 7 is_stmt 1              @ rt-thread/components/dfs/filesystems/elmfat/ff.c:3271:7
	ldrb.w	r0, [sp, #602]
.Ltmp165:
	.loc	1 3271 7 is_stmt 0              @ rt-thread/components/dfs/filesystems/elmfat/ff.c:3271:7
	cbnz	r0, .LBB3_7
	b	.LBB3_4
.LBB3_4:
.Ltmp166:
	.loc	1 3272 8 is_stmt 1              @ rt-thread/components/dfs/filesystems/elmfat/ff.c:3272:8
	ldrb.w	r0, [sp, #595]
.Ltmp167:
	.loc	1 3272 8 is_stmt 0              @ rt-thread/components/dfs/filesystems/elmfat/ff.c:3272:8
	lsls	r0, r0, #24
	cmp	r0, #0
	bpl	.LBB3_6
	b	.LBB3_5
.LBB3_5:
	.loc	1 0 8                           @ rt-thread/components/dfs/filesystems/elmfat/ff.c:0:8
	movs	r0, #6
.Ltmp168:
	.loc	1 3273 9 is_stmt 1              @ rt-thread/components/dfs/filesystems/elmfat/ff.c:3273:9
	strb.w	r0, [sp, #602]
	.loc	1 3274 4                        @ rt-thread/components/dfs/filesystems/elmfat/ff.c:3274:4
	b	.LBB3_6
.Ltmp169:
.LBB3_6:
	.loc	1 3280 3                        @ rt-thread/components/dfs/filesystems/elmfat/ff.c:3280:3
	b	.LBB3_7
.Ltmp170:
.LBB3_7:
	.loc	1 3282 7                        @ rt-thread/components/dfs/filesystems/elmfat/ff.c:3282:7
	ldrb.w	r0, [sp, #603]
.Ltmp171:
	.loc	1 3282 7 is_stmt 0              @ rt-thread/components/dfs/filesystems/elmfat/ff.c:3282:7
	tst.w	r0, #28
	beq	.LBB3_26
	b	.LBB3_8
.LBB3_8:
.Ltmp172:
	.loc	1 3283 8 is_stmt 1              @ rt-thread/components/dfs/filesystems/elmfat/ff.c:3283:8
	ldrb.w	r0, [sp, #602]
.Ltmp173:
	.loc	1 3283 8 is_stmt 0              @ rt-thread/components/dfs/filesystems/elmfat/ff.c:3283:8
	cbz	r0, .LBB3_12
	b	.LBB3_9
.LBB3_9:
.Ltmp174:
	.loc	1 3284 9 is_stmt 1              @ rt-thread/components/dfs/filesystems/elmfat/ff.c:3284:9
	ldrb.w	r0, [sp, #602]
.Ltmp175:
	.loc	1 3284 9 is_stmt 0              @ rt-thread/components/dfs/filesystems/elmfat/ff.c:3284:9
	cmp	r0, #4
	bne	.LBB3_11
	b	.LBB3_10
.LBB3_10:
	.loc	1 0 9                           @ rt-thread/components/dfs/filesystems/elmfat/ff.c:0:9
	add	r0, sp, #552
.Ltmp176:
	.loc	1 3288 12 is_stmt 1             @ rt-thread/components/dfs/filesystems/elmfat/ff.c:3288:12
	bl	dir_register
	.loc	1 3288 10 is_stmt 0             @ rt-thread/components/dfs/filesystems/elmfat/ff.c:3288:10
	strb.w	r0, [sp, #602]
	.loc	1 3288 6                        @ rt-thread/components/dfs/filesystems/elmfat/ff.c:3288:6
	b	.LBB3_11
.Ltmp177:
.LBB3_11:
	.loc	1 3290 10 is_stmt 1             @ rt-thread/components/dfs/filesystems/elmfat/ff.c:3290:10
	ldrb.w	r0, [sp, #603]
	orr	r0, r0, #8
	strb.w	r0, [sp, #603]
	.loc	1 3291 4                        @ rt-thread/components/dfs/filesystems/elmfat/ff.c:3291:4
	b	.LBB3_18
.Ltmp178:
.LBB3_12:
	.loc	1 3293 9                        @ rt-thread/components/dfs/filesystems/elmfat/ff.c:3293:9
	ldrb.w	r0, [sp, #558]
.Ltmp179:
	.loc	1 3293 9 is_stmt 0              @ rt-thread/components/dfs/filesystems/elmfat/ff.c:3293:9
	tst.w	r0, #17
	beq	.LBB3_14
	b	.LBB3_13
.LBB3_13:
	.loc	1 0 9                           @ rt-thread/components/dfs/filesystems/elmfat/ff.c:0:9
	movs	r0, #7
.Ltmp180:
	.loc	1 3294 10 is_stmt 1             @ rt-thread/components/dfs/filesystems/elmfat/ff.c:3294:10
	strb.w	r0, [sp, #602]
	.loc	1 3295 5                        @ rt-thread/components/dfs/filesystems/elmfat/ff.c:3295:5
	b	.LBB3_17
.Ltmp181:
.LBB3_14:
	.loc	1 3296 10                       @ rt-thread/components/dfs/filesystems/elmfat/ff.c:3296:10
	ldrb.w	r0, [sp, #603]
.Ltmp182:
	.loc	1 3296 10 is_stmt 0             @ rt-thread/components/dfs/filesystems/elmfat/ff.c:3296:10
	lsls	r0, r0, #29
	cmp	r0, #0
	bpl	.LBB3_16
	b	.LBB3_15
.LBB3_15:
	.loc	1 0 10                          @ rt-thread/components/dfs/filesystems/elmfat/ff.c:0:10
	movs	r0, #8
.Ltmp183:
	.loc	1 3296 36                       @ rt-thread/components/dfs/filesystems/elmfat/ff.c:3296:36
	strb.w	r0, [sp, #602]
	.loc	1 3296 32                       @ rt-thread/components/dfs/filesystems/elmfat/ff.c:3296:32
	b	.LBB3_16
.Ltmp184:
.LBB3_16:
	.loc	1 0 32                          @ rt-thread/components/dfs/filesystems/elmfat/ff.c:0:32
	b	.LBB3_17
.LBB3_17:
	b	.LBB3_18
.LBB3_18:
.Ltmp185:
	.loc	1 3299 8 is_stmt 1              @ rt-thread/components/dfs/filesystems/elmfat/ff.c:3299:8
	ldrb.w	r0, [sp, #602]
	.loc	1 3299 21 is_stmt 0             @ rt-thread/components/dfs/filesystems/elmfat/ff.c:3299:21
	cmp	r0, #0
	bne	.LBB3_25
	b	.LBB3_19
.LBB3_19:
	.loc	1 3299 25                       @ rt-thread/components/dfs/filesystems/elmfat/ff.c:3299:25
	ldrb.w	r0, [sp, #603]
.Ltmp186:
	.loc	1 3299 8                        @ rt-thread/components/dfs/filesystems/elmfat/ff.c:3299:8
	lsls	r0, r0, #28
	cmp	r0, #0
	bpl	.LBB3_25
	b	.LBB3_20
.LBB3_20:
.Ltmp187:
	.loc	1 3300 10 is_stmt 1             @ rt-thread/components/dfs/filesystems/elmfat/ff.c:3300:10
	bl	get_fattime
	.loc	1 3300 8 is_stmt 0              @ rt-thread/components/dfs/filesystems/elmfat/ff.c:3300:8
	str	r0, [sp, #544]
.Ltmp188:
	.loc	1 3327 18 is_stmt 1             @ rt-thread/components/dfs/filesystems/elmfat/ff.c:3327:18
	ldr	r0, [sp, #580]
	.loc	1 3327 22 is_stmt 0             @ rt-thread/components/dfs/filesystems/elmfat/ff.c:3327:22
	adds	r0, #14
	.loc	1 3327 37                       @ rt-thread/components/dfs/filesystems/elmfat/ff.c:3327:37
	ldr	r1, [sp, #544]
	.loc	1 3327 6                        @ rt-thread/components/dfs/filesystems/elmfat/ff.c:3327:6
	bl	st_dword
	.loc	1 3328 18 is_stmt 1             @ rt-thread/components/dfs/filesystems/elmfat/ff.c:3328:18
	ldr	r0, [sp, #580]
	.loc	1 3328 22 is_stmt 0             @ rt-thread/components/dfs/filesystems/elmfat/ff.c:3328:22
	adds	r0, #22
	.loc	1 3328 37                       @ rt-thread/components/dfs/filesystems/elmfat/ff.c:3328:37
	ldr	r1, [sp, #544]
	.loc	1 3328 6                        @ rt-thread/components/dfs/filesystems/elmfat/ff.c:3328:6
	bl	st_dword
	.loc	1 3329 9 is_stmt 1              @ rt-thread/components/dfs/filesystems/elmfat/ff.c:3329:9
	ldr	r1, [sp, #580]
	movs	r0, #32
	.loc	1 3329 23 is_stmt 0             @ rt-thread/components/dfs/filesystems/elmfat/ff.c:3329:23
	strb	r0, [r1, #11]
	.loc	1 3330 20 is_stmt 1             @ rt-thread/components/dfs/filesystems/elmfat/ff.c:3330:20
	ldr	r0, [sp, #548]
	.loc	1 3330 27 is_stmt 0             @ rt-thread/components/dfs/filesystems/elmfat/ff.c:3330:27
	ldr	r1, [sp, #580]
	.loc	1 3330 11                       @ rt-thread/components/dfs/filesystems/elmfat/ff.c:3330:11
	bl	ld_clust
	.loc	1 3330 9                        @ rt-thread/components/dfs/filesystems/elmfat/ff.c:3330:9
	str	r0, [sp, #540]
	.loc	1 3331 15 is_stmt 1             @ rt-thread/components/dfs/filesystems/elmfat/ff.c:3331:15
	ldr	r0, [sp, #548]
	.loc	1 3331 22 is_stmt 0             @ rt-thread/components/dfs/filesystems/elmfat/ff.c:3331:22
	ldr	r1, [sp, #580]
	movs	r2, #0
	.loc	1 3331 6                        @ rt-thread/components/dfs/filesystems/elmfat/ff.c:3331:6
	str	r2, [sp, #8]                    @ 4-byte Spill
	bl	st_clust
	ldr	r1, [sp, #8]                    @ 4-byte Reload
	.loc	1 3332 18 is_stmt 1             @ rt-thread/components/dfs/filesystems/elmfat/ff.c:3332:18
	ldr	r0, [sp, #580]
	.loc	1 3332 22 is_stmt 0             @ rt-thread/components/dfs/filesystems/elmfat/ff.c:3332:22
	adds	r0, #28
	.loc	1 3332 6                        @ rt-thread/components/dfs/filesystems/elmfat/ff.c:3332:6
	bl	st_dword
	.loc	1 3333 6 is_stmt 1              @ rt-thread/components/dfs/filesystems/elmfat/ff.c:3333:6
	ldr	r1, [sp, #548]
	movs	r0, #1
	.loc	1 3333 16 is_stmt 0             @ rt-thread/components/dfs/filesystems/elmfat/ff.c:3333:16
	strb	r0, [r1, #3]
.Ltmp189:
	.loc	1 3335 10 is_stmt 1             @ rt-thread/components/dfs/filesystems/elmfat/ff.c:3335:10
	ldr	r0, [sp, #540]
.Ltmp190:
	.loc	1 3335 10 is_stmt 0             @ rt-thread/components/dfs/filesystems/elmfat/ff.c:3335:10
	cbz	r0, .LBB3_24
	b	.LBB3_21
.LBB3_21:
.Ltmp191:
	.loc	1 3336 12 is_stmt 1             @ rt-thread/components/dfs/filesystems/elmfat/ff.c:3336:12
	ldr	r0, [sp, #548]
	.loc	1 3336 16 is_stmt 0             @ rt-thread/components/dfs/filesystems/elmfat/ff.c:3336:16
	ldr	r0, [r0, #48]
	.loc	1 3336 10                       @ rt-thread/components/dfs/filesystems/elmfat/ff.c:3336:10
	str	r0, [sp, #544]
	.loc	1 3337 35 is_stmt 1             @ rt-thread/components/dfs/filesystems/elmfat/ff.c:3337:35
	ldr	r1, [sp, #540]
	add	r0, sp, #552
	movs	r2, #0
	.loc	1 3337 13 is_stmt 0             @ rt-thread/components/dfs/filesystems/elmfat/ff.c:3337:13
	bl	remove_chain
	.loc	1 3337 11                       @ rt-thread/components/dfs/filesystems/elmfat/ff.c:3337:11
	strb.w	r0, [sp, #602]
.Ltmp192:
	.loc	1 3338 11 is_stmt 1             @ rt-thread/components/dfs/filesystems/elmfat/ff.c:3338:11
	ldrb.w	r0, [sp, #602]
.Ltmp193:
	.loc	1 3338 11 is_stmt 0             @ rt-thread/components/dfs/filesystems/elmfat/ff.c:3338:11
	cbnz	r0, .LBB3_23
	b	.LBB3_22
.LBB3_22:
.Ltmp194:
	.loc	1 3339 26 is_stmt 1             @ rt-thread/components/dfs/filesystems/elmfat/ff.c:3339:26
	ldr	r0, [sp, #548]
	.loc	1 3339 30 is_stmt 0             @ rt-thread/components/dfs/filesystems/elmfat/ff.c:3339:30
	ldr	r1, [sp, #544]
	.loc	1 3339 14                       @ rt-thread/components/dfs/filesystems/elmfat/ff.c:3339:14
	bl	move_window
	.loc	1 3339 12                       @ rt-thread/components/dfs/filesystems/elmfat/ff.c:3339:12
	strb.w	r0, [sp, #602]
	.loc	1 3340 24 is_stmt 1             @ rt-thread/components/dfs/filesystems/elmfat/ff.c:3340:24
	ldr	r0, [sp, #540]
	.loc	1 3340 27 is_stmt 0             @ rt-thread/components/dfs/filesystems/elmfat/ff.c:3340:27
	subs	r0, #1
	.loc	1 3340 8                        @ rt-thread/components/dfs/filesystems/elmfat/ff.c:3340:8
	ldr	r1, [sp, #548]
	.loc	1 3340 22                       @ rt-thread/components/dfs/filesystems/elmfat/ff.c:3340:22
	str	r0, [r1, #16]
	.loc	1 3341 7 is_stmt 1              @ rt-thread/components/dfs/filesystems/elmfat/ff.c:3341:7
	b	.LBB3_23
.Ltmp195:
.LBB3_23:
	.loc	1 3342 6                        @ rt-thread/components/dfs/filesystems/elmfat/ff.c:3342:6
	b	.LBB3_24
.Ltmp196:
.LBB3_24:
	.loc	1 3344 4                        @ rt-thread/components/dfs/filesystems/elmfat/ff.c:3344:4
	b	.LBB3_25
.Ltmp197:
.LBB3_25:
	.loc	1 3345 3                        @ rt-thread/components/dfs/filesystems/elmfat/ff.c:3345:3
	b	.LBB3_35
.Ltmp198:
.LBB3_26:
	.loc	1 3347 8                        @ rt-thread/components/dfs/filesystems/elmfat/ff.c:3347:8
	ldrb.w	r0, [sp, #602]
.Ltmp199:
	.loc	1 3347 8 is_stmt 0              @ rt-thread/components/dfs/filesystems/elmfat/ff.c:3347:8
	cbnz	r0, .LBB3_34
	b	.LBB3_27
.LBB3_27:
.Ltmp200:
	.loc	1 3348 9 is_stmt 1              @ rt-thread/components/dfs/filesystems/elmfat/ff.c:3348:9
	ldrb.w	r0, [sp, #558]
.Ltmp201:
	.loc	1 3348 9 is_stmt 0              @ rt-thread/components/dfs/filesystems/elmfat/ff.c:3348:9
	lsls	r0, r0, #27
	cmp	r0, #0
	bpl	.LBB3_29
	b	.LBB3_28
.LBB3_28:
	.loc	1 0 9                           @ rt-thread/components/dfs/filesystems/elmfat/ff.c:0:9
	movs	r0, #4
.Ltmp202:
	.loc	1 3349 10 is_stmt 1             @ rt-thread/components/dfs/filesystems/elmfat/ff.c:3349:10
	strb.w	r0, [sp, #602]
	.loc	1 3350 5                        @ rt-thread/components/dfs/filesystems/elmfat/ff.c:3350:5
	b	.LBB3_33
.Ltmp203:
.LBB3_29:
	.loc	1 3351 11                       @ rt-thread/components/dfs/filesystems/elmfat/ff.c:3351:11
	ldrb.w	r0, [sp, #603]
	.loc	1 3351 28 is_stmt 0             @ rt-thread/components/dfs/filesystems/elmfat/ff.c:3351:28
	lsls	r0, r0, #30
	cmp	r0, #0
	bpl	.LBB3_32
	b	.LBB3_30
.LBB3_30:
	.loc	1 3351 32                       @ rt-thread/components/dfs/filesystems/elmfat/ff.c:3351:32
	ldrb.w	r0, [sp, #558]
.Ltmp204:
	.loc	1 3351 10                       @ rt-thread/components/dfs/filesystems/elmfat/ff.c:3351:10
	lsls	r0, r0, #31
	cbz	r0, .LBB3_32
	b	.LBB3_31
.LBB3_31:
	.loc	1 0 10                          @ rt-thread/components/dfs/filesystems/elmfat/ff.c:0:10
	movs	r0, #7
.Ltmp205:
	.loc	1 3352 11 is_stmt 1             @ rt-thread/components/dfs/filesystems/elmfat/ff.c:3352:11
	strb.w	r0, [sp, #602]
	.loc	1 3353 6                        @ rt-thread/components/dfs/filesystems/elmfat/ff.c:3353:6
	b	.LBB3_32
.Ltmp206:
.LBB3_32:
	.loc	1 0 6 is_stmt 0                 @ rt-thread/components/dfs/filesystems/elmfat/ff.c:0:6
	b	.LBB3_33
.LBB3_33:
	.loc	1 3355 4 is_stmt 1              @ rt-thread/components/dfs/filesystems/elmfat/ff.c:3355:4
	b	.LBB3_34
.Ltmp207:
.LBB3_34:
	.loc	1 0 4 is_stmt 0                 @ rt-thread/components/dfs/filesystems/elmfat/ff.c:0:4
	b	.LBB3_35
.LBB3_35:
.Ltmp208:
	.loc	1 3357 7 is_stmt 1              @ rt-thread/components/dfs/filesystems/elmfat/ff.c:3357:7
	ldrb.w	r0, [sp, #602]
.Ltmp209:
	.loc	1 3357 7 is_stmt 0              @ rt-thread/components/dfs/filesystems/elmfat/ff.c:3357:7
	cbnz	r0, .LBB3_39
	b	.LBB3_36
.LBB3_36:
.Ltmp210:
	.loc	1 3358 8 is_stmt 1              @ rt-thread/components/dfs/filesystems/elmfat/ff.c:3358:8
	ldrb.w	r0, [sp, #603]
.Ltmp211:
	.loc	1 3358 8 is_stmt 0              @ rt-thread/components/dfs/filesystems/elmfat/ff.c:3358:8
	lsls	r0, r0, #28
	cmp	r0, #0
	bpl	.LBB3_38
	b	.LBB3_37
.LBB3_37:
.Ltmp212:
	.loc	1 3359 10 is_stmt 1             @ rt-thread/components/dfs/filesystems/elmfat/ff.c:3359:10
	ldrb.w	r0, [sp, #603]
	orr	r0, r0, #64
	strb.w	r0, [sp, #603]
	.loc	1 3359 5 is_stmt 0              @ rt-thread/components/dfs/filesystems/elmfat/ff.c:3359:5
	b	.LBB3_38
.Ltmp213:
.LBB3_38:
	.loc	1 3360 19 is_stmt 1             @ rt-thread/components/dfs/filesystems/elmfat/ff.c:3360:19
	ldr	r0, [sp, #548]
	.loc	1 3360 23 is_stmt 0             @ rt-thread/components/dfs/filesystems/elmfat/ff.c:3360:23
	ldr	r0, [r0, #48]
	.loc	1 3360 4                        @ rt-thread/components/dfs/filesystems/elmfat/ff.c:3360:4
	ldr	r1, [sp, #608]
	.loc	1 3360 17                       @ rt-thread/components/dfs/filesystems/elmfat/ff.c:3360:17
	str	r0, [r1, #32]
	.loc	1 3361 21 is_stmt 1             @ rt-thread/components/dfs/filesystems/elmfat/ff.c:3361:21
	ldr	r0, [sp, #580]
	.loc	1 3361 4 is_stmt 0              @ rt-thread/components/dfs/filesystems/elmfat/ff.c:3361:4
	ldr	r1, [sp, #608]
	.loc	1 3361 16                       @ rt-thread/components/dfs/filesystems/elmfat/ff.c:3361:16
	str	r0, [r1, #36]
	.loc	1 3366 3 is_stmt 1              @ rt-thread/components/dfs/filesystems/elmfat/ff.c:3366:3
	b	.LBB3_39
.Ltmp214:
.LBB3_39:
	.loc	1 3379 7                        @ rt-thread/components/dfs/filesystems/elmfat/ff.c:3379:7
	ldrb.w	r0, [sp, #602]
.Ltmp215:
	.loc	1 3379 7 is_stmt 0              @ rt-thread/components/dfs/filesystems/elmfat/ff.c:3379:7
	cmp	r0, #0
	bne.w	.LBB3_62
	b	.LBB3_40
.LBB3_40:
.Ltmp216:
	.loc	1 3391 31 is_stmt 1             @ rt-thread/components/dfs/filesystems/elmfat/ff.c:3391:31
	ldr	r0, [sp, #548]
	.loc	1 3391 38 is_stmt 0             @ rt-thread/components/dfs/filesystems/elmfat/ff.c:3391:38
	ldr	r1, [sp, #580]
	.loc	1 3391 22                       @ rt-thread/components/dfs/filesystems/elmfat/ff.c:3391:22
	bl	ld_clust
	.loc	1 3391 5                        @ rt-thread/components/dfs/filesystems/elmfat/ff.c:3391:5
	ldr	r1, [sp, #608]
	.loc	1 3391 20                       @ rt-thread/components/dfs/filesystems/elmfat/ff.c:3391:20
	str	r0, [r1, #8]
	.loc	1 3392 35 is_stmt 1             @ rt-thread/components/dfs/filesystems/elmfat/ff.c:3392:35
	ldr	r0, [sp, #580]
	.loc	1 3392 39 is_stmt 0             @ rt-thread/components/dfs/filesystems/elmfat/ff.c:3392:39
	adds	r0, #28
	.loc	1 3392 23                       @ rt-thread/components/dfs/filesystems/elmfat/ff.c:3392:23
	bl	ld_dword
	.loc	1 3392 5                        @ rt-thread/components/dfs/filesystems/elmfat/ff.c:3392:5
	ldr	r1, [sp, #608]
	.loc	1 3392 21                       @ rt-thread/components/dfs/filesystems/elmfat/ff.c:3392:21
	str	r0, [r1, #12]
.Ltmp217:
	.loc	1 3395 4 is_stmt 1              @ rt-thread/components/dfs/filesystems/elmfat/ff.c:3395:4
	ldr	r0, [sp, #608]
	movs	r1, #0
	.loc	1 3395 14 is_stmt 0             @ rt-thread/components/dfs/filesystems/elmfat/ff.c:3395:14
	str	r1, [r0, #40]
	.loc	1 3397 17 is_stmt 1             @ rt-thread/components/dfs/filesystems/elmfat/ff.c:3397:17
	ldr	r0, [sp, #548]
	.loc	1 3397 4 is_stmt 0              @ rt-thread/components/dfs/filesystems/elmfat/ff.c:3397:4
	ldr	r2, [sp, #608]
	.loc	1 3397 15                       @ rt-thread/components/dfs/filesystems/elmfat/ff.c:3397:15
	str	r0, [r2]
	.loc	1 3398 17 is_stmt 1             @ rt-thread/components/dfs/filesystems/elmfat/ff.c:3398:17
	ldr	r0, [sp, #548]
	.loc	1 3398 21 is_stmt 0             @ rt-thread/components/dfs/filesystems/elmfat/ff.c:3398:21
	ldrh	r0, [r0, #6]
	.loc	1 3398 4                        @ rt-thread/components/dfs/filesystems/elmfat/ff.c:3398:4
	ldr	r2, [sp, #608]
	.loc	1 3398 15                       @ rt-thread/components/dfs/filesystems/elmfat/ff.c:3398:15
	strh	r0, [r2, #4]
	.loc	1 3399 15 is_stmt 1             @ rt-thread/components/dfs/filesystems/elmfat/ff.c:3399:15
	ldrb.w	r0, [sp, #603]
	.loc	1 3399 4 is_stmt 0              @ rt-thread/components/dfs/filesystems/elmfat/ff.c:3399:4
	ldr	r2, [sp, #608]
	.loc	1 3399 13                       @ rt-thread/components/dfs/filesystems/elmfat/ff.c:3399:13
	strb	r0, [r2, #16]
	.loc	1 3400 4 is_stmt 1              @ rt-thread/components/dfs/filesystems/elmfat/ff.c:3400:4
	ldr	r0, [sp, #608]
	.loc	1 3400 12 is_stmt 0             @ rt-thread/components/dfs/filesystems/elmfat/ff.c:3400:12
	strb	r1, [r0, #17]
	.loc	1 3401 4 is_stmt 1              @ rt-thread/components/dfs/filesystems/elmfat/ff.c:3401:4
	ldr	r0, [sp, #608]
	.loc	1 3401 13 is_stmt 0             @ rt-thread/components/dfs/filesystems/elmfat/ff.c:3401:13
	str	r1, [r0, #28]
	.loc	1 3402 4 is_stmt 1              @ rt-thread/components/dfs/filesystems/elmfat/ff.c:3402:4
	ldr	r0, [sp, #608]
	.loc	1 3402 13 is_stmt 0             @ rt-thread/components/dfs/filesystems/elmfat/ff.c:3402:13
	str	r1, [r0, #20]
	.loc	1 3405 12 is_stmt 1             @ rt-thread/components/dfs/filesystems/elmfat/ff.c:3405:12
	ldr	r0, [sp, #608]
	.loc	1 3405 16 is_stmt 0             @ rt-thread/components/dfs/filesystems/elmfat/ff.c:3405:16
	adds	r0, #44
	mov.w	r2, #512
	.loc	1 3405 4                        @ rt-thread/components/dfs/filesystems/elmfat/ff.c:3405:4
	bl	mem_set
.Ltmp218:
	.loc	1 3407 9 is_stmt 1              @ rt-thread/components/dfs/filesystems/elmfat/ff.c:3407:9
	ldrb.w	r0, [sp, #603]
	.loc	1 3407 28 is_stmt 0             @ rt-thread/components/dfs/filesystems/elmfat/ff.c:3407:28
	lsls	r0, r0, #26
	cmp	r0, #0
	bpl	.LBB3_61
	b	.LBB3_41
.LBB3_41:
	.loc	1 3407 31                       @ rt-thread/components/dfs/filesystems/elmfat/ff.c:3407:31
	ldr	r0, [sp, #608]
	.loc	1 3407 39                       @ rt-thread/components/dfs/filesystems/elmfat/ff.c:3407:39
	ldr	r0, [r0, #12]
.Ltmp219:
	.loc	1 3407 8                        @ rt-thread/components/dfs/filesystems/elmfat/ff.c:3407:8
	cmp	r0, #0
	beq	.LBB3_61
	b	.LBB3_42
.LBB3_42:
.Ltmp220:
	.loc	1 3408 16 is_stmt 1             @ rt-thread/components/dfs/filesystems/elmfat/ff.c:3408:16
	ldr	r1, [sp, #608]
	.loc	1 3408 24 is_stmt 0             @ rt-thread/components/dfs/filesystems/elmfat/ff.c:3408:24
	ldr	r0, [r1, #12]
	.loc	1 3408 14                       @ rt-thread/components/dfs/filesystems/elmfat/ff.c:3408:14
	str	r0, [r1, #20]
	.loc	1 3409 18 is_stmt 1             @ rt-thread/components/dfs/filesystems/elmfat/ff.c:3409:18
	ldr	r0, [sp, #548]
	.loc	1 3409 22 is_stmt 0             @ rt-thread/components/dfs/filesystems/elmfat/ff.c:3409:22
	ldrh	r0, [r0, #10]
	.loc	1 3409 28                       @ rt-thread/components/dfs/filesystems/elmfat/ff.c:3409:28
	lsls	r0, r0, #9
	.loc	1 3409 9                        @ rt-thread/components/dfs/filesystems/elmfat/ff.c:3409:9
	str	r0, [sp, #536]
	.loc	1 3410 12 is_stmt 1             @ rt-thread/components/dfs/filesystems/elmfat/ff.c:3410:12
	ldr	r0, [sp, #608]
	.loc	1 3410 20 is_stmt 0             @ rt-thread/components/dfs/filesystems/elmfat/ff.c:3410:20
	ldr	r0, [r0, #8]
	.loc	1 3410 10                       @ rt-thread/components/dfs/filesystems/elmfat/ff.c:3410:10
	str	r0, [sp, #532]
.Ltmp221:
	.loc	1 3411 16 is_stmt 1             @ rt-thread/components/dfs/filesystems/elmfat/ff.c:3411:16
	ldr	r0, [sp, #608]
	.loc	1 3411 24 is_stmt 0             @ rt-thread/components/dfs/filesystems/elmfat/ff.c:3411:24
	ldr	r0, [r0, #12]
	.loc	1 3411 14                       @ rt-thread/components/dfs/filesystems/elmfat/ff.c:3411:14
	str	r0, [sp, #524]
	.loc	1 3411 10                       @ rt-thread/components/dfs/filesystems/elmfat/ff.c:3411:10
	b	.LBB3_43
.LBB3_43:                               @ =>This Inner Loop Header: Depth=1
.Ltmp222:
	.loc	1 3411 33                       @ rt-thread/components/dfs/filesystems/elmfat/ff.c:3411:33
	ldrb.w	r1, [sp, #602]
	movs	r0, #0
	.loc	1 3411 46                       @ rt-thread/components/dfs/filesystems/elmfat/ff.c:3411:46
	str	r0, [sp, #4]                    @ 4-byte Spill
	cbnz	r1, .LBB3_45
	b	.LBB3_44
.LBB3_44:                               @   in Loop: Header=BB3_43 Depth=1
	.loc	1 3411 49                       @ rt-thread/components/dfs/filesystems/elmfat/ff.c:3411:49
	ldr	r1, [sp, #524]
	.loc	1 3411 55                       @ rt-thread/components/dfs/filesystems/elmfat/ff.c:3411:55
	ldr	r2, [sp, #536]
	movs	r0, #0
	.loc	1 3411 53                       @ rt-thread/components/dfs/filesystems/elmfat/ff.c:3411:53
	cmp	r1, r2
	it	hi
	movhi	r0, #1
	str	r0, [sp, #4]                    @ 4-byte Spill
	b	.LBB3_45
.LBB3_45:                               @   in Loop: Header=BB3_43 Depth=1
	.loc	1 0 0                           @ rt-thread/components/dfs/filesystems/elmfat/ff.c:0:0
	ldr	r0, [sp, #4]                    @ 4-byte Reload
.Ltmp223:
	.loc	1 3411 5                        @ rt-thread/components/dfs/filesystems/elmfat/ff.c:3411:5
	lsls	r0, r0, #31
	cbz	r0, .LBB3_52
	b	.LBB3_46
.LBB3_46:                               @   in Loop: Header=BB3_43 Depth=1
.Ltmp224:
	.loc	1 3412 22 is_stmt 1             @ rt-thread/components/dfs/filesystems/elmfat/ff.c:3412:22
	ldr	r0, [sp, #608]
	.loc	1 3412 31 is_stmt 0             @ rt-thread/components/dfs/filesystems/elmfat/ff.c:3412:31
	ldr	r1, [sp, #532]
	.loc	1 3412 13                       @ rt-thread/components/dfs/filesystems/elmfat/ff.c:3412:13
	bl	get_fat
	.loc	1 3412 11                       @ rt-thread/components/dfs/filesystems/elmfat/ff.c:3412:11
	str	r0, [sp, #532]
.Ltmp225:
	.loc	1 3413 10 is_stmt 1             @ rt-thread/components/dfs/filesystems/elmfat/ff.c:3413:10
	ldr	r0, [sp, #532]
.Ltmp226:
	.loc	1 3413 10 is_stmt 0             @ rt-thread/components/dfs/filesystems/elmfat/ff.c:3413:10
	cmp	r0, #1
	bhi	.LBB3_48
	b	.LBB3_47
.LBB3_47:                               @   in Loop: Header=BB3_43 Depth=1
	.loc	1 0 10                          @ rt-thread/components/dfs/filesystems/elmfat/ff.c:0:10
	movs	r0, #2
.Ltmp227:
	.loc	1 3413 25                       @ rt-thread/components/dfs/filesystems/elmfat/ff.c:3413:25
	strb.w	r0, [sp, #602]
	.loc	1 3413 21                       @ rt-thread/components/dfs/filesystems/elmfat/ff.c:3413:21
	b	.LBB3_48
.Ltmp228:
.LBB3_48:                               @   in Loop: Header=BB3_43 Depth=1
	.loc	1 3414 10 is_stmt 1             @ rt-thread/components/dfs/filesystems/elmfat/ff.c:3414:10
	ldr	r0, [sp, #532]
.Ltmp229:
	.loc	1 3414 10 is_stmt 0             @ rt-thread/components/dfs/filesystems/elmfat/ff.c:3414:10
	adds	r0, #1
	cbnz	r0, .LBB3_50
	b	.LBB3_49
.LBB3_49:                               @   in Loop: Header=BB3_43 Depth=1
	.loc	1 0 10                          @ rt-thread/components/dfs/filesystems/elmfat/ff.c:0:10
	movs	r0, #1
.Ltmp230:
	.loc	1 3414 34                       @ rt-thread/components/dfs/filesystems/elmfat/ff.c:3414:34
	strb.w	r0, [sp, #602]
	.loc	1 3414 30                       @ rt-thread/components/dfs/filesystems/elmfat/ff.c:3414:30
	b	.LBB3_50
.Ltmp231:
.LBB3_50:                               @   in Loop: Header=BB3_43 Depth=1
	.loc	1 3415 5 is_stmt 1              @ rt-thread/components/dfs/filesystems/elmfat/ff.c:3415:5
	b	.LBB3_51
.Ltmp232:
.LBB3_51:                               @   in Loop: Header=BB3_43 Depth=1
	.loc	1 3411 67                       @ rt-thread/components/dfs/filesystems/elmfat/ff.c:3411:67
	ldr	r1, [sp, #536]
	.loc	1 3411 64 is_stmt 0             @ rt-thread/components/dfs/filesystems/elmfat/ff.c:3411:64
	ldr	r0, [sp, #524]
	subs	r0, r0, r1
	str	r0, [sp, #524]
	.loc	1 3411 5                        @ rt-thread/components/dfs/filesystems/elmfat/ff.c:3411:5
	b	.LBB3_43
.Ltmp233:
.LBB3_52:
	.loc	1 3416 17 is_stmt 1             @ rt-thread/components/dfs/filesystems/elmfat/ff.c:3416:17
	ldr	r0, [sp, #532]
	.loc	1 3416 5 is_stmt 0              @ rt-thread/components/dfs/filesystems/elmfat/ff.c:3416:5
	ldr	r1, [sp, #608]
	.loc	1 3416 15                       @ rt-thread/components/dfs/filesystems/elmfat/ff.c:3416:15
	str	r0, [r1, #24]
.Ltmp234:
	.loc	1 3417 9 is_stmt 1              @ rt-thread/components/dfs/filesystems/elmfat/ff.c:3417:9
	ldrb.w	r0, [sp, #602]
	.loc	1 3417 22 is_stmt 0             @ rt-thread/components/dfs/filesystems/elmfat/ff.c:3417:22
	cbnz	r0, .LBB3_60
	b	.LBB3_53
.Ltmp235:
.LBB3_53:
	.loc	1 3417 9                        @ rt-thread/components/dfs/filesystems/elmfat/ff.c:3417:9
	ldrh.w	r0, [sp, #524]
	lsls	r0, r0, #23
	cbz	r0, .LBB3_60
	b	.LBB3_54
.LBB3_54:
.Ltmp236:
	.loc	1 3418 27 is_stmt 1             @ rt-thread/components/dfs/filesystems/elmfat/ff.c:3418:27
	ldr	r0, [sp, #548]
	.loc	1 3418 31 is_stmt 0             @ rt-thread/components/dfs/filesystems/elmfat/ff.c:3418:31
	ldr	r1, [sp, #532]
	.loc	1 3418 16                       @ rt-thread/components/dfs/filesystems/elmfat/ff.c:3418:16
	bl	clust2sect
	.loc	1 3418 14                       @ rt-thread/components/dfs/filesystems/elmfat/ff.c:3418:14
	str	r0, [sp, #528]
.Ltmp237:
	.loc	1 3418 10                       @ rt-thread/components/dfs/filesystems/elmfat/ff.c:3418:10
	cbnz	r0, .LBB3_56
	b	.LBB3_55
.LBB3_55:
	.loc	1 0 10                          @ rt-thread/components/dfs/filesystems/elmfat/ff.c:0:10
	movs	r0, #2
.Ltmp238:
	.loc	1 3419 11 is_stmt 1             @ rt-thread/components/dfs/filesystems/elmfat/ff.c:3419:11
	strb.w	r0, [sp, #602]
	.loc	1 3420 6                        @ rt-thread/components/dfs/filesystems/elmfat/ff.c:3420:6
	b	.LBB3_59
.Ltmp239:
.LBB3_56:
	.loc	1 3421 18                       @ rt-thread/components/dfs/filesystems/elmfat/ff.c:3421:18
	ldr	r0, [sp, #528]
	.loc	1 3421 31 is_stmt 0             @ rt-thread/components/dfs/filesystems/elmfat/ff.c:3421:31
	ldr	r1, [sp, #524]
	.loc	1 3421 21                       @ rt-thread/components/dfs/filesystems/elmfat/ff.c:3421:21
	add.w	r0, r0, r1, lsr #9
	.loc	1 3421 7                        @ rt-thread/components/dfs/filesystems/elmfat/ff.c:3421:7
	ldr	r1, [sp, #608]
	.loc	1 3421 16                       @ rt-thread/components/dfs/filesystems/elmfat/ff.c:3421:16
	str	r0, [r1, #28]
.Ltmp240:
	.loc	1 3423 21 is_stmt 1             @ rt-thread/components/dfs/filesystems/elmfat/ff.c:3423:21
	ldr	r0, [sp, #548]
	.loc	1 3423 25 is_stmt 0             @ rt-thread/components/dfs/filesystems/elmfat/ff.c:3423:25
	ldrb	r0, [r0, #1]
	.loc	1 3423 30                       @ rt-thread/components/dfs/filesystems/elmfat/ff.c:3423:30
	ldr	r2, [sp, #608]
	.loc	1 3423 34                       @ rt-thread/components/dfs/filesystems/elmfat/ff.c:3423:34
	add.w	r1, r2, #44
	.loc	1 3423 43                       @ rt-thread/components/dfs/filesystems/elmfat/ff.c:3423:43
	ldr	r2, [r2, #28]
	movs	r3, #1
	.loc	1 3423 11                       @ rt-thread/components/dfs/filesystems/elmfat/ff.c:3423:11
	bl	disk_read
.Ltmp241:
	.loc	1 3423 11                       @ rt-thread/components/dfs/filesystems/elmfat/ff.c:3423:11
	cbz	r0, .LBB3_58
	b	.LBB3_57
.LBB3_57:
	.loc	1 0 11                          @ rt-thread/components/dfs/filesystems/elmfat/ff.c:0:11
	movs	r0, #1
.Ltmp242:
	.loc	1 3423 67                       @ rt-thread/components/dfs/filesystems/elmfat/ff.c:3423:67
	strb.w	r0, [sp, #602]
	.loc	1 3423 63                       @ rt-thread/components/dfs/filesystems/elmfat/ff.c:3423:63
	b	.LBB3_58
.Ltmp243:
.LBB3_58:
	.loc	1 0 63                          @ rt-thread/components/dfs/filesystems/elmfat/ff.c:0:63
	b	.LBB3_59
.LBB3_59:
	.loc	1 3426 5 is_stmt 1              @ rt-thread/components/dfs/filesystems/elmfat/ff.c:3426:5
	b	.LBB3_60
.Ltmp244:
.LBB3_60:
	.loc	1 3427 4                        @ rt-thread/components/dfs/filesystems/elmfat/ff.c:3427:4
	b	.LBB3_61
.Ltmp245:
.LBB3_61:
	.loc	1 3429 3                        @ rt-thread/components/dfs/filesystems/elmfat/ff.c:3429:3
	b	.LBB3_62
.Ltmp246:
.LBB3_62:
	.loc	1 3432 2                        @ rt-thread/components/dfs/filesystems/elmfat/ff.c:3432:2
	b	.LBB3_63
.Ltmp247:
.LBB3_63:
	.loc	1 3434 6                        @ rt-thread/components/dfs/filesystems/elmfat/ff.c:3434:6
	ldrb.w	r0, [sp, #602]
.Ltmp248:
	.loc	1 3434 6 is_stmt 0              @ rt-thread/components/dfs/filesystems/elmfat/ff.c:3434:6
	cbz	r0, .LBB3_65
	b	.LBB3_64
.LBB3_64:
.Ltmp249:
	.loc	1 3434 20                       @ rt-thread/components/dfs/filesystems/elmfat/ff.c:3434:20
	ldr	r1, [sp, #608]
	movs	r0, #0
	.loc	1 3434 31                       @ rt-thread/components/dfs/filesystems/elmfat/ff.c:3434:31
	str	r0, [r1]
	.loc	1 3434 20                       @ rt-thread/components/dfs/filesystems/elmfat/ff.c:3434:20
	b	.LBB3_65
.Ltmp250:
.LBB3_65:
	.loc	1 3436 2 is_stmt 1              @ rt-thread/components/dfs/filesystems/elmfat/ff.c:3436:2
	ldrb.w	r0, [sp, #602]
	strb.w	r0, [sp, #615]
	b	.LBB3_66
.LBB3_66:
	.loc	1 3437 1                        @ rt-thread/components/dfs/filesystems/elmfat/ff.c:3437:1
	ldrb.w	r0, [sp, #615]
	add.w	sp, sp, #616
	pop	{r7, pc}
.Ltmp251:
.Lfunc_end3:
	.size	f_open, .Lfunc_end3-f_open
	.cfi_endproc
	.cantunwind
	.fnend
                                        @ -- End function
	.section	.text.follow_path,"ax",%progbits
	.p2align	3                               @ -- Begin function follow_path
	.type	follow_path,%function
	.code	16                              @ @follow_path
	.thumb_func
follow_path:
.Lfunc_begin4:
	.loc	1 2769 0                        @ rt-thread/components/dfs/filesystems/elmfat/ff.c:2769:0
	.fnstart
	.cfi_startproc
@ %bb.0:
	.save	{r7, lr}
	push	{r7, lr}
	.cfi_def_cfa_offset 8
	.cfi_offset lr, -4
	.cfi_offset r7, -8
	.pad	#24
	sub	sp, #24
	.cfi_def_cfa_offset 32
	str	r0, [sp, #20]
	str	r1, [sp, #16]
.Ltmp252:
	.loc	1 2772 16 prologue_end          @ rt-thread/components/dfs/filesystems/elmfat/ff.c:2772:16
	ldr	r0, [sp, #20]
	.loc	1 2772 9 is_stmt 0              @ rt-thread/components/dfs/filesystems/elmfat/ff.c:2772:9
	str	r0, [sp, #8]
	.loc	1 2773 14 is_stmt 1             @ rt-thread/components/dfs/filesystems/elmfat/ff.c:2773:14
	ldr	r0, [sp, #8]
	.loc	1 2773 19 is_stmt 0             @ rt-thread/components/dfs/filesystems/elmfat/ff.c:2773:19
	ldr	r0, [r0]
	.loc	1 2773 9                        @ rt-thread/components/dfs/filesystems/elmfat/ff.c:2773:9
	str	r0, [sp, #4]
.Ltmp253:
	.loc	1 2782 3 is_stmt 1              @ rt-thread/components/dfs/filesystems/elmfat/ff.c:2782:3
	b	.LBB4_1
.LBB4_1:                                @ =>This Inner Loop Header: Depth=1
	.loc	1 2782 11 is_stmt 0             @ rt-thread/components/dfs/filesystems/elmfat/ff.c:2782:11
	ldr	r0, [sp, #16]
	.loc	1 2782 10                       @ rt-thread/components/dfs/filesystems/elmfat/ff.c:2782:10
	ldrsb.w	r1, [r0]
	movs	r0, #1
	.loc	1 2782 23                       @ rt-thread/components/dfs/filesystems/elmfat/ff.c:2782:23
	cmp	r1, #47
	str	r0, [sp]                        @ 4-byte Spill
	beq	.LBB4_3
	b	.LBB4_2
.LBB4_2:                                @   in Loop: Header=BB4_1 Depth=1
	.loc	1 2782 27                       @ rt-thread/components/dfs/filesystems/elmfat/ff.c:2782:27
	ldr	r0, [sp, #16]
	.loc	1 2782 26                       @ rt-thread/components/dfs/filesystems/elmfat/ff.c:2782:26
	ldrsb.w	r0, [r0]
	.loc	1 2782 32                       @ rt-thread/components/dfs/filesystems/elmfat/ff.c:2782:32
	subs	r0, #92
	clz	r0, r0
	lsrs	r0, r0, #5
	.loc	1 2782 23                       @ rt-thread/components/dfs/filesystems/elmfat/ff.c:2782:23
	str	r0, [sp]                        @ 4-byte Spill
	b	.LBB4_3
.LBB4_3:                                @   in Loop: Header=BB4_1 Depth=1
	.loc	1 0 23                          @ rt-thread/components/dfs/filesystems/elmfat/ff.c:0:23
	ldr	r0, [sp]                        @ 4-byte Reload
	.loc	1 2782 3                        @ rt-thread/components/dfs/filesystems/elmfat/ff.c:2782:3
	lsls	r0, r0, #31
	cbz	r0, .LBB4_5
	b	.LBB4_4
.LBB4_4:                                @   in Loop: Header=BB4_1 Depth=1
	.loc	1 2782 45                       @ rt-thread/components/dfs/filesystems/elmfat/ff.c:2782:45
	ldr	r0, [sp, #16]
	adds	r0, #1
	str	r0, [sp, #16]
	.loc	1 2782 3                        @ rt-thread/components/dfs/filesystems/elmfat/ff.c:2782:3
	b	.LBB4_1
.LBB4_5:
	.loc	1 2783 3 is_stmt 1              @ rt-thread/components/dfs/filesystems/elmfat/ff.c:2783:3
	ldr	r1, [sp, #8]
	movs	r0, #0
	.loc	1 2783 15 is_stmt 0             @ rt-thread/components/dfs/filesystems/elmfat/ff.c:2783:15
	str	r0, [r1, #8]
.Ltmp254:
	.loc	1 2799 13 is_stmt 1             @ rt-thread/components/dfs/filesystems/elmfat/ff.c:2799:13
	ldr	r0, [sp, #16]
	.loc	1 2799 12 is_stmt 0             @ rt-thread/components/dfs/filesystems/elmfat/ff.c:2799:12
	ldrsb.w	r0, [r0]
.Ltmp255:
	.loc	1 2799 6                        @ rt-thread/components/dfs/filesystems/elmfat/ff.c:2799:6
	cmp	r0, #31
	bhi	.LBB4_7
	b	.LBB4_6
.LBB4_6:
.Ltmp256:
	.loc	1 2800 3 is_stmt 1              @ rt-thread/components/dfs/filesystems/elmfat/ff.c:2800:3
	ldr	r1, [sp, #20]
	movs	r0, #128
	.loc	1 2800 18 is_stmt 0             @ rt-thread/components/dfs/filesystems/elmfat/ff.c:2800:18
	strb.w	r0, [r1, #43]
	.loc	1 2801 17 is_stmt 1             @ rt-thread/components/dfs/filesystems/elmfat/ff.c:2801:17
	ldr	r0, [sp, #20]
	movs	r1, #0
	.loc	1 2801 9 is_stmt 0              @ rt-thread/components/dfs/filesystems/elmfat/ff.c:2801:9
	bl	dir_sdi
	.loc	1 2801 7                        @ rt-thread/components/dfs/filesystems/elmfat/ff.c:2801:7
	strb.w	r0, [sp, #15]
	.loc	1 2803 2 is_stmt 1              @ rt-thread/components/dfs/filesystems/elmfat/ff.c:2803:2
	b	.LBB4_22
.Ltmp257:
.LBB4_7:
	.loc	1 2804 3                        @ rt-thread/components/dfs/filesystems/elmfat/ff.c:2804:3
	b	.LBB4_8
.LBB4_8:                                @ =>This Inner Loop Header: Depth=1
.Ltmp258:
	.loc	1 2805 22                       @ rt-thread/components/dfs/filesystems/elmfat/ff.c:2805:22
	ldr	r0, [sp, #20]
	add	r1, sp, #16
	.loc	1 2805 10 is_stmt 0             @ rt-thread/components/dfs/filesystems/elmfat/ff.c:2805:10
	bl	create_name
	.loc	1 2805 8                        @ rt-thread/components/dfs/filesystems/elmfat/ff.c:2805:8
	strb.w	r0, [sp, #15]
.Ltmp259:
	.loc	1 2806 8 is_stmt 1              @ rt-thread/components/dfs/filesystems/elmfat/ff.c:2806:8
	ldrb.w	r0, [sp, #15]
.Ltmp260:
	.loc	1 2806 8 is_stmt 0              @ rt-thread/components/dfs/filesystems/elmfat/ff.c:2806:8
	cbz	r0, .LBB4_10
	b	.LBB4_9
.LBB4_9:
.Ltmp261:
	.loc	1 2806 22                       @ rt-thread/components/dfs/filesystems/elmfat/ff.c:2806:22
	b	.LBB4_21
.Ltmp262:
.LBB4_10:                               @   in Loop: Header=BB4_8 Depth=1
	.loc	1 2807 19 is_stmt 1             @ rt-thread/components/dfs/filesystems/elmfat/ff.c:2807:19
	ldr	r0, [sp, #20]
	.loc	1 2807 10 is_stmt 0             @ rt-thread/components/dfs/filesystems/elmfat/ff.c:2807:10
	bl	dir_find
	.loc	1 2807 8                        @ rt-thread/components/dfs/filesystems/elmfat/ff.c:2807:8
	strb.w	r0, [sp, #15]
	.loc	1 2808 9 is_stmt 1              @ rt-thread/components/dfs/filesystems/elmfat/ff.c:2808:9
	ldr	r0, [sp, #20]
	ldrb.w	r0, [r0, #43]
	.loc	1 2808 7 is_stmt 0              @ rt-thread/components/dfs/filesystems/elmfat/ff.c:2808:7
	strb.w	r0, [sp, #14]
.Ltmp263:
	.loc	1 2809 8 is_stmt 1              @ rt-thread/components/dfs/filesystems/elmfat/ff.c:2809:8
	ldrb.w	r0, [sp, #15]
.Ltmp264:
	.loc	1 2809 8 is_stmt 0              @ rt-thread/components/dfs/filesystems/elmfat/ff.c:2809:8
	cbz	r0, .LBB4_16
	b	.LBB4_11
.LBB4_11:
.Ltmp265:
	.loc	1 2810 9 is_stmt 1              @ rt-thread/components/dfs/filesystems/elmfat/ff.c:2810:9
	ldrb.w	r0, [sp, #15]
.Ltmp266:
	.loc	1 2810 9 is_stmt 0              @ rt-thread/components/dfs/filesystems/elmfat/ff.c:2810:9
	cmp	r0, #4
	bne	.LBB4_15
	b	.LBB4_12
.LBB4_12:
.Ltmp267:
	.loc	1 2816 13 is_stmt 1             @ rt-thread/components/dfs/filesystems/elmfat/ff.c:2816:13
	ldrb.w	r0, [sp, #14]
.Ltmp268:
	.loc	1 2816 11 is_stmt 0             @ rt-thread/components/dfs/filesystems/elmfat/ff.c:2816:11
	lsls	r0, r0, #29
	cmp	r0, #0
	bmi	.LBB4_14
	b	.LBB4_13
.LBB4_13:
	.loc	1 0 11                          @ rt-thread/components/dfs/filesystems/elmfat/ff.c:0:11
	movs	r0, #5
.Ltmp269:
	.loc	1 2816 32                       @ rt-thread/components/dfs/filesystems/elmfat/ff.c:2816:32
	strb.w	r0, [sp, #15]
	.loc	1 2816 28                       @ rt-thread/components/dfs/filesystems/elmfat/ff.c:2816:28
	b	.LBB4_14
.Ltmp270:
.LBB4_14:
	.loc	1 2818 5 is_stmt 1              @ rt-thread/components/dfs/filesystems/elmfat/ff.c:2818:5
	b	.LBB4_15
.Ltmp271:
.LBB4_15:
	.loc	1 2819 5                        @ rt-thread/components/dfs/filesystems/elmfat/ff.c:2819:5
	b	.LBB4_21
.Ltmp272:
.LBB4_16:                               @   in Loop: Header=BB4_8 Depth=1
	.loc	1 2821 8                        @ rt-thread/components/dfs/filesystems/elmfat/ff.c:2821:8
	ldrb.w	r0, [sp, #14]
.Ltmp273:
	.loc	1 2821 8 is_stmt 0              @ rt-thread/components/dfs/filesystems/elmfat/ff.c:2821:8
	lsls	r0, r0, #29
	cmp	r0, #0
	bpl	.LBB4_18
	b	.LBB4_17
.LBB4_17:
.Ltmp274:
	.loc	1 2821 22                       @ rt-thread/components/dfs/filesystems/elmfat/ff.c:2821:22
	b	.LBB4_21
.Ltmp275:
.LBB4_18:                               @   in Loop: Header=BB4_8 Depth=1
	.loc	1 2823 10 is_stmt 1             @ rt-thread/components/dfs/filesystems/elmfat/ff.c:2823:10
	ldr	r0, [sp, #8]
	ldrb	r0, [r0, #6]
.Ltmp276:
	.loc	1 2823 8 is_stmt 0              @ rt-thread/components/dfs/filesystems/elmfat/ff.c:2823:8
	lsls	r0, r0, #27
	cmp	r0, #0
	bmi	.LBB4_20
	b	.LBB4_19
.LBB4_19:
	.loc	1 0 8                           @ rt-thread/components/dfs/filesystems/elmfat/ff.c:0:8
	movs	r0, #5
.Ltmp277:
	.loc	1 2824 9 is_stmt 1              @ rt-thread/components/dfs/filesystems/elmfat/ff.c:2824:9
	strb.w	r0, [sp, #15]
	.loc	1 2824 23 is_stmt 0             @ rt-thread/components/dfs/filesystems/elmfat/ff.c:2824:23
	b	.LBB4_21
.Ltmp278:
.LBB4_20:                               @   in Loop: Header=BB4_8 Depth=1
	.loc	1 2837 28 is_stmt 1             @ rt-thread/components/dfs/filesystems/elmfat/ff.c:2837:28
	ldr	r0, [sp, #4]
	.loc	1 2837 42 is_stmt 0             @ rt-thread/components/dfs/filesystems/elmfat/ff.c:2837:42
	ldr	r1, [sp, #20]
	.loc	1 2837 46                       @ rt-thread/components/dfs/filesystems/elmfat/ff.c:2837:46
	ldr	r1, [r1, #16]
	.loc	1 2837 51                       @ rt-thread/components/dfs/filesystems/elmfat/ff.c:2837:51
	bfc	r1, #9, #23
	.loc	1 2837 36                       @ rt-thread/components/dfs/filesystems/elmfat/ff.c:2837:36
	add	r1, r0
	.loc	1 2837 40                       @ rt-thread/components/dfs/filesystems/elmfat/ff.c:2837:40
	adds	r1, #52
	.loc	1 2837 19                       @ rt-thread/components/dfs/filesystems/elmfat/ff.c:2837:19
	bl	ld_clust
	.loc	1 2837 5                        @ rt-thread/components/dfs/filesystems/elmfat/ff.c:2837:5
	ldr	r1, [sp, #8]
	.loc	1 2837 17                       @ rt-thread/components/dfs/filesystems/elmfat/ff.c:2837:17
	str	r0, [r1, #8]
.Ltmp279:
	.loc	1 2804 3 is_stmt 1              @ rt-thread/components/dfs/filesystems/elmfat/ff.c:2804:3
	b	.LBB4_8
.Ltmp280:
.LBB4_21:
	.loc	1 0 3 is_stmt 0                 @ rt-thread/components/dfs/filesystems/elmfat/ff.c:0:3
	b	.LBB4_22
.LBB4_22:
	.loc	1 2842 9 is_stmt 1              @ rt-thread/components/dfs/filesystems/elmfat/ff.c:2842:9
	ldrb.w	r0, [sp, #15]
	.loc	1 2842 2 is_stmt 0              @ rt-thread/components/dfs/filesystems/elmfat/ff.c:2842:2
	add	sp, #24
	pop	{r7, pc}
.Ltmp281:
.Lfunc_end4:
	.size	follow_path, .Lfunc_end4-follow_path
	.cfi_endproc
	.cantunwind
	.fnend
                                        @ -- End function
	.section	.text.dir_register,"ax",%progbits
	.p2align	3                               @ -- Begin function dir_register
	.type	dir_register,%function
	.code	16                              @ @dir_register
	.thumb_func
dir_register:
.Lfunc_begin5:
	.loc	1 2248 0 is_stmt 1              @ rt-thread/components/dfs/filesystems/elmfat/ff.c:2248:0
	.fnstart
	.cfi_startproc
@ %bb.0:
	.save	{r7, lr}
	push	{r7, lr}
	.cfi_def_cfa_offset 8
	.cfi_offset lr, -4
	.cfi_offset r7, -8
	.pad	#56
	sub	sp, #56
	.cfi_def_cfa_offset 64
	str	r0, [sp, #48]
.Ltmp282:
	.loc	1 2250 14 prologue_end          @ rt-thread/components/dfs/filesystems/elmfat/ff.c:2250:14
	ldr	r0, [sp, #48]
	.loc	1 2250 22 is_stmt 0             @ rt-thread/components/dfs/filesystems/elmfat/ff.c:2250:22
	ldr	r0, [r0]
	.loc	1 2250 9                        @ rt-thread/components/dfs/filesystems/elmfat/ff.c:2250:9
	str	r0, [sp, #40]
.Ltmp283:
	.loc	1 2256 6 is_stmt 1              @ rt-thread/components/dfs/filesystems/elmfat/ff.c:2256:6
	ldr	r0, [sp, #48]
	ldrb.w	r0, [r0, #43]
.Ltmp284:
	.loc	1 2256 6 is_stmt 0              @ rt-thread/components/dfs/filesystems/elmfat/ff.c:2256:6
	tst.w	r0, #160
	beq	.LBB5_2
	b	.LBB5_1
.LBB5_1:
	.loc	1 0 6                           @ rt-thread/components/dfs/filesystems/elmfat/ff.c:0:6
	movs	r0, #6
.Ltmp285:
	.loc	1 2256 45                       @ rt-thread/components/dfs/filesystems/elmfat/ff.c:2256:45
	strb.w	r0, [sp, #55]
	b	.LBB5_38
.Ltmp286:
.LBB5_2:
	.loc	1 0 45                          @ rt-thread/components/dfs/filesystems/elmfat/ff.c:0:45
	movs	r0, #0
.Ltmp287:
	.loc	1 2257 12 is_stmt 1             @ rt-thread/components/dfs/filesystems/elmfat/ff.c:2257:12
	str	r0, [sp, #32]
	.loc	1 2257 7 is_stmt 0              @ rt-thread/components/dfs/filesystems/elmfat/ff.c:2257:7
	b	.LBB5_3
.LBB5_3:                                @ =>This Inner Loop Header: Depth=1
.Ltmp288:
	.loc	1 2257 17                       @ rt-thread/components/dfs/filesystems/elmfat/ff.c:2257:17
	ldr	r0, [sp, #40]
	.loc	1 2257 21                       @ rt-thread/components/dfs/filesystems/elmfat/ff.c:2257:21
	ldr	r0, [r0, #12]
	.loc	1 2257 28                       @ rt-thread/components/dfs/filesystems/elmfat/ff.c:2257:28
	ldr	r1, [sp, #32]
	.loc	1 2257 17                       @ rt-thread/components/dfs/filesystems/elmfat/ff.c:2257:17
	ldrh.w	r0, [r0, r1, lsl #1]
.Ltmp289:
	.loc	1 2257 2                        @ rt-thread/components/dfs/filesystems/elmfat/ff.c:2257:2
	cbz	r0, .LBB5_6
	b	.LBB5_4
.LBB5_4:                                @   in Loop: Header=BB5_3 Depth=1
	b	.LBB5_5
.LBB5_5:                                @   in Loop: Header=BB5_3 Depth=1
.Ltmp290:
	.loc	1 2257 39                       @ rt-thread/components/dfs/filesystems/elmfat/ff.c:2257:39
	ldr	r0, [sp, #32]
	adds	r0, #1
	str	r0, [sp, #32]
	.loc	1 2257 2                        @ rt-thread/components/dfs/filesystems/elmfat/ff.c:2257:2
	b	.LBB5_3
.Ltmp291:
.LBB5_6:
	.loc	1 2287 14 is_stmt 1             @ rt-thread/components/dfs/filesystems/elmfat/ff.c:2287:14
	ldr	r0, [sp, #48]
	.loc	1 2287 18 is_stmt 0             @ rt-thread/components/dfs/filesystems/elmfat/ff.c:2287:18
	add.w	r1, r0, #32
	add	r0, sp, #16
	movs	r2, #12
	.loc	1 2287 2                        @ rt-thread/components/dfs/filesystems/elmfat/ff.c:2287:2
	bl	mem_cpy
.Ltmp292:
	.loc	1 2288 6 is_stmt 1              @ rt-thread/components/dfs/filesystems/elmfat/ff.c:2288:6
	ldrb.w	r0, [sp, #27]
.Ltmp293:
	.loc	1 2288 6 is_stmt 0              @ rt-thread/components/dfs/filesystems/elmfat/ff.c:2288:6
	lsls	r0, r0, #31
	cbz	r0, .LBB5_18
	b	.LBB5_7
.LBB5_7:
.Ltmp294:
	.loc	1 2289 3 is_stmt 1              @ rt-thread/components/dfs/filesystems/elmfat/ff.c:2289:3
	ldr	r1, [sp, #48]
	movs	r0, #64
	.loc	1 2289 18 is_stmt 0             @ rt-thread/components/dfs/filesystems/elmfat/ff.c:2289:18
	strb.w	r0, [r1, #43]
	movs	r0, #1
.Ltmp295:
	.loc	1 2290 10 is_stmt 1             @ rt-thread/components/dfs/filesystems/elmfat/ff.c:2290:10
	str	r0, [sp, #36]
	.loc	1 2290 8 is_stmt 0              @ rt-thread/components/dfs/filesystems/elmfat/ff.c:2290:8
	b	.LBB5_8
.LBB5_8:                                @ =>This Inner Loop Header: Depth=1
.Ltmp296:
	.loc	1 2290 15                       @ rt-thread/components/dfs/filesystems/elmfat/ff.c:2290:15
	ldr	r0, [sp, #36]
.Ltmp297:
	.loc	1 2290 3                        @ rt-thread/components/dfs/filesystems/elmfat/ff.c:2290:3
	cmp	r0, #99
	bhi	.LBB5_13
	b	.LBB5_9
.LBB5_9:                                @   in Loop: Header=BB5_8 Depth=1
.Ltmp298:
	.loc	1 2291 16 is_stmt 1             @ rt-thread/components/dfs/filesystems/elmfat/ff.c:2291:16
	ldr	r0, [sp, #48]
	.loc	1 2291 20 is_stmt 0             @ rt-thread/components/dfs/filesystems/elmfat/ff.c:2291:20
	adds	r0, #32
	.loc	1 2291 28                       @ rt-thread/components/dfs/filesystems/elmfat/ff.c:2291:28
	ldr	r1, [sp, #40]
	.loc	1 2291 32                       @ rt-thread/components/dfs/filesystems/elmfat/ff.c:2291:32
	ldr	r2, [r1, #12]
	.loc	1 2291 40                       @ rt-thread/components/dfs/filesystems/elmfat/ff.c:2291:40
	ldr	r3, [sp, #36]
	add	r1, sp, #16
	.loc	1 2291 4                        @ rt-thread/components/dfs/filesystems/elmfat/ff.c:2291:4
	bl	gen_numname
	.loc	1 2292 19 is_stmt 1             @ rt-thread/components/dfs/filesystems/elmfat/ff.c:2292:19
	ldr	r0, [sp, #48]
	.loc	1 2292 10 is_stmt 0             @ rt-thread/components/dfs/filesystems/elmfat/ff.c:2292:10
	bl	dir_find
	.loc	1 2292 8                        @ rt-thread/components/dfs/filesystems/elmfat/ff.c:2292:8
	strb.w	r0, [sp, #47]
.Ltmp299:
	.loc	1 2293 8 is_stmt 1              @ rt-thread/components/dfs/filesystems/elmfat/ff.c:2293:8
	ldrb.w	r0, [sp, #47]
.Ltmp300:
	.loc	1 2293 8 is_stmt 0              @ rt-thread/components/dfs/filesystems/elmfat/ff.c:2293:8
	cbz	r0, .LBB5_11
	b	.LBB5_10
.LBB5_10:
.Ltmp301:
	.loc	1 2293 22                       @ rt-thread/components/dfs/filesystems/elmfat/ff.c:2293:22
	b	.LBB5_13
.Ltmp302:
.LBB5_11:                               @   in Loop: Header=BB5_8 Depth=1
	.loc	1 2294 3 is_stmt 1              @ rt-thread/components/dfs/filesystems/elmfat/ff.c:2294:3
	b	.LBB5_12
.Ltmp303:
.LBB5_12:                               @   in Loop: Header=BB5_8 Depth=1
	.loc	1 2290 25                       @ rt-thread/components/dfs/filesystems/elmfat/ff.c:2290:25
	ldr	r0, [sp, #36]
	adds	r0, #1
	str	r0, [sp, #36]
	.loc	1 2290 3 is_stmt 0              @ rt-thread/components/dfs/filesystems/elmfat/ff.c:2290:3
	b	.LBB5_8
.Ltmp304:
.LBB5_13:
	.loc	1 2295 7 is_stmt 1              @ rt-thread/components/dfs/filesystems/elmfat/ff.c:2295:7
	ldr	r0, [sp, #36]
.Ltmp305:
	.loc	1 2295 7 is_stmt 0              @ rt-thread/components/dfs/filesystems/elmfat/ff.c:2295:7
	cmp	r0, #100
	bne	.LBB5_15
	b	.LBB5_14
.LBB5_14:
	.loc	1 0 7                           @ rt-thread/components/dfs/filesystems/elmfat/ff.c:0:7
	movs	r0, #7
.Ltmp306:
	.loc	1 2295 17                       @ rt-thread/components/dfs/filesystems/elmfat/ff.c:2295:17
	strb.w	r0, [sp, #55]
	b	.LBB5_38
.Ltmp307:
.LBB5_15:
	.loc	1 2296 7 is_stmt 1              @ rt-thread/components/dfs/filesystems/elmfat/ff.c:2296:7
	ldrb.w	r0, [sp, #47]
.Ltmp308:
	.loc	1 2296 7 is_stmt 0              @ rt-thread/components/dfs/filesystems/elmfat/ff.c:2296:7
	cmp	r0, #4
	beq	.LBB5_17
	b	.LBB5_16
.LBB5_16:
.Ltmp309:
	.loc	1 2296 33                       @ rt-thread/components/dfs/filesystems/elmfat/ff.c:2296:33
	ldrb.w	r0, [sp, #47]
	.loc	1 2296 26                       @ rt-thread/components/dfs/filesystems/elmfat/ff.c:2296:26
	strb.w	r0, [sp, #55]
	b	.LBB5_38
.Ltmp310:
.LBB5_17:
	.loc	1 2297 20 is_stmt 1             @ rt-thread/components/dfs/filesystems/elmfat/ff.c:2297:20
	ldrb.w	r0, [sp, #27]
	.loc	1 2297 3 is_stmt 0              @ rt-thread/components/dfs/filesystems/elmfat/ff.c:2297:3
	ldr	r1, [sp, #48]
	.loc	1 2297 18                       @ rt-thread/components/dfs/filesystems/elmfat/ff.c:2297:18
	strb.w	r0, [r1, #43]
	.loc	1 2298 2 is_stmt 1              @ rt-thread/components/dfs/filesystems/elmfat/ff.c:2298:2
	b	.LBB5_18
.Ltmp311:
.LBB5_18:
	.loc	1 2301 10                       @ rt-thread/components/dfs/filesystems/elmfat/ff.c:2301:10
	ldrb.w	r0, [sp, #27]
	.loc	1 2301 9 is_stmt 0              @ rt-thread/components/dfs/filesystems/elmfat/ff.c:2301:9
	lsls	r0, r0, #30
	cmp	r0, #0
	bpl	.LBB5_20
	b	.LBB5_19
.LBB5_19:
	.loc	1 2301 34                       @ rt-thread/components/dfs/filesystems/elmfat/ff.c:2301:34
	ldr	r0, [sp, #32]
	.loc	1 2301 39                       @ rt-thread/components/dfs/filesystems/elmfat/ff.c:2301:39
	adds	r0, #12
	movw	r1, #60495
	movt	r1, #20164
	.loc	1 2301 45                       @ rt-thread/components/dfs/filesystems/elmfat/ff.c:2301:45
	umull	r0, r1, r0, r1
	movs	r0, #1
	.loc	1 2301 50                       @ rt-thread/components/dfs/filesystems/elmfat/ff.c:2301:50
	add.w	r0, r0, r1, lsr #2
	.loc	1 2301 9                        @ rt-thread/components/dfs/filesystems/elmfat/ff.c:2301:9
	str	r0, [sp, #8]                    @ 4-byte Spill
	b	.LBB5_21
.LBB5_20:
	.loc	1 0 9                           @ rt-thread/components/dfs/filesystems/elmfat/ff.c:0:9
	movs	r0, #1
	.loc	1 2301 9                        @ rt-thread/components/dfs/filesystems/elmfat/ff.c:2301:9
	str	r0, [sp, #8]                    @ 4-byte Spill
	b	.LBB5_21
.LBB5_21:
	ldr	r0, [sp, #8]                    @ 4-byte Reload
	.loc	1 2301 7                        @ rt-thread/components/dfs/filesystems/elmfat/ff.c:2301:7
	str	r0, [sp, #28]
	.loc	1 2302 18 is_stmt 1             @ rt-thread/components/dfs/filesystems/elmfat/ff.c:2302:18
	ldr	r0, [sp, #48]
	.loc	1 2302 22 is_stmt 0             @ rt-thread/components/dfs/filesystems/elmfat/ff.c:2302:22
	ldr	r1, [sp, #28]
	.loc	1 2302 8                        @ rt-thread/components/dfs/filesystems/elmfat/ff.c:2302:8
	bl	dir_alloc
	.loc	1 2302 6                        @ rt-thread/components/dfs/filesystems/elmfat/ff.c:2302:6
	strb.w	r0, [sp, #47]
.Ltmp312:
	.loc	1 2303 6 is_stmt 1              @ rt-thread/components/dfs/filesystems/elmfat/ff.c:2303:6
	ldrb.w	r0, [sp, #47]
	.loc	1 2303 19 is_stmt 0             @ rt-thread/components/dfs/filesystems/elmfat/ff.c:2303:19
	cmp	r0, #0
	bne	.LBB5_33
	b	.LBB5_22
.LBB5_22:
	.loc	1 2303 22                       @ rt-thread/components/dfs/filesystems/elmfat/ff.c:2303:22
	ldr	r0, [sp, #28]
	subs	r0, #1
	str	r0, [sp, #28]
.Ltmp313:
	.loc	1 2303 6                        @ rt-thread/components/dfs/filesystems/elmfat/ff.c:2303:6
	cmp	r0, #0
	beq	.LBB5_33
	b	.LBB5_23
.LBB5_23:
.Ltmp314:
	.loc	1 2304 17 is_stmt 1             @ rt-thread/components/dfs/filesystems/elmfat/ff.c:2304:17
	ldr	r0, [sp, #48]
	.loc	1 2304 25 is_stmt 0             @ rt-thread/components/dfs/filesystems/elmfat/ff.c:2304:25
	ldr	r1, [r0, #16]
	.loc	1 2304 32                       @ rt-thread/components/dfs/filesystems/elmfat/ff.c:2304:32
	ldr	r2, [sp, #28]
	.loc	1 2304 30                       @ rt-thread/components/dfs/filesystems/elmfat/ff.c:2304:30
	sub.w	r1, r1, r2, lsl #5
	.loc	1 2304 9                        @ rt-thread/components/dfs/filesystems/elmfat/ff.c:2304:9
	bl	dir_sdi
	.loc	1 2304 7                        @ rt-thread/components/dfs/filesystems/elmfat/ff.c:2304:7
	strb.w	r0, [sp, #47]
.Ltmp315:
	.loc	1 2305 7 is_stmt 1              @ rt-thread/components/dfs/filesystems/elmfat/ff.c:2305:7
	ldrb.w	r0, [sp, #47]
.Ltmp316:
	.loc	1 2305 7 is_stmt 0              @ rt-thread/components/dfs/filesystems/elmfat/ff.c:2305:7
	cbnz	r0, .LBB5_32
	b	.LBB5_24
.LBB5_24:
.Ltmp317:
	.loc	1 2306 18 is_stmt 1             @ rt-thread/components/dfs/filesystems/elmfat/ff.c:2306:18
	ldr	r0, [sp, #48]
	.loc	1 2306 22 is_stmt 0             @ rt-thread/components/dfs/filesystems/elmfat/ff.c:2306:22
	adds	r0, #32
	.loc	1 2306 10                       @ rt-thread/components/dfs/filesystems/elmfat/ff.c:2306:10
	bl	sum_sfn
	.loc	1 2306 8                        @ rt-thread/components/dfs/filesystems/elmfat/ff.c:2306:8
	strb.w	r0, [sp, #15]
	.loc	1 2307 4 is_stmt 1              @ rt-thread/components/dfs/filesystems/elmfat/ff.c:2307:4
	b	.LBB5_25
.LBB5_25:                               @ =>This Inner Loop Header: Depth=1
.Ltmp318:
	.loc	1 2308 23                       @ rt-thread/components/dfs/filesystems/elmfat/ff.c:2308:23
	ldr	r0, [sp, #40]
	.loc	1 2308 27 is_stmt 0             @ rt-thread/components/dfs/filesystems/elmfat/ff.c:2308:27
	ldr	r1, [sp, #48]
	.loc	1 2308 31                       @ rt-thread/components/dfs/filesystems/elmfat/ff.c:2308:31
	ldr	r1, [r1, #24]
	.loc	1 2308 11                       @ rt-thread/components/dfs/filesystems/elmfat/ff.c:2308:11
	bl	move_window
	.loc	1 2308 9                        @ rt-thread/components/dfs/filesystems/elmfat/ff.c:2308:9
	strb.w	r0, [sp, #47]
.Ltmp319:
	.loc	1 2309 9 is_stmt 1              @ rt-thread/components/dfs/filesystems/elmfat/ff.c:2309:9
	ldrb.w	r0, [sp, #47]
.Ltmp320:
	.loc	1 2309 9 is_stmt 0              @ rt-thread/components/dfs/filesystems/elmfat/ff.c:2309:9
	cbz	r0, .LBB5_27
	b	.LBB5_26
.LBB5_26:
.Ltmp321:
	.loc	1 2309 23                       @ rt-thread/components/dfs/filesystems/elmfat/ff.c:2309:23
	b	.LBB5_31
.Ltmp322:
.LBB5_27:                               @   in Loop: Header=BB5_25 Depth=1
	.loc	1 2310 13 is_stmt 1             @ rt-thread/components/dfs/filesystems/elmfat/ff.c:2310:13
	ldr	r0, [sp, #40]
	.loc	1 2310 17 is_stmt 0             @ rt-thread/components/dfs/filesystems/elmfat/ff.c:2310:17
	ldr	r0, [r0, #12]
	.loc	1 2310 25                       @ rt-thread/components/dfs/filesystems/elmfat/ff.c:2310:25
	ldr	r1, [sp, #48]
	.loc	1 2310 29                       @ rt-thread/components/dfs/filesystems/elmfat/ff.c:2310:29
	ldr	r1, [r1, #28]
	.loc	1 2310 40                       @ rt-thread/components/dfs/filesystems/elmfat/ff.c:2310:40
	ldrb.w	r2, [sp, #28]
	.loc	1 2310 46                       @ rt-thread/components/dfs/filesystems/elmfat/ff.c:2310:46
	ldrb.w	r3, [sp, #15]
	.loc	1 2310 5                        @ rt-thread/components/dfs/filesystems/elmfat/ff.c:2310:5
	bl	put_lfn
	.loc	1 2311 5 is_stmt 1              @ rt-thread/components/dfs/filesystems/elmfat/ff.c:2311:5
	ldr	r1, [sp, #40]
	movs	r0, #1
	.loc	1 2311 15 is_stmt 0             @ rt-thread/components/dfs/filesystems/elmfat/ff.c:2311:15
	strb	r0, [r1, #3]
	.loc	1 2312 20 is_stmt 1             @ rt-thread/components/dfs/filesystems/elmfat/ff.c:2312:20
	ldr	r0, [sp, #48]
	movs	r1, #0
	.loc	1 2312 11 is_stmt 0             @ rt-thread/components/dfs/filesystems/elmfat/ff.c:2312:11
	bl	dir_next
	.loc	1 2312 9                        @ rt-thread/components/dfs/filesystems/elmfat/ff.c:2312:9
	strb.w	r0, [sp, #47]
	.loc	1 2313 4 is_stmt 1              @ rt-thread/components/dfs/filesystems/elmfat/ff.c:2313:4
	b	.LBB5_28
.Ltmp323:
.LBB5_28:                               @   in Loop: Header=BB5_25 Depth=1
	.loc	1 2313 13 is_stmt 0             @ rt-thread/components/dfs/filesystems/elmfat/ff.c:2313:13
	ldrb.w	r1, [sp, #47]
	movs	r0, #0
	.loc	1 2313 26                       @ rt-thread/components/dfs/filesystems/elmfat/ff.c:2313:26
	str	r0, [sp, #4]                    @ 4-byte Spill
	cbnz	r1, .LBB5_30
	b	.LBB5_29
.LBB5_29:                               @   in Loop: Header=BB5_25 Depth=1
	.loc	1 2313 29                       @ rt-thread/components/dfs/filesystems/elmfat/ff.c:2313:29
	ldr	r0, [sp, #28]
	subs	r0, #1
	str	r0, [sp, #28]
	.loc	1 2313 26                       @ rt-thread/components/dfs/filesystems/elmfat/ff.c:2313:26
	cmp	r0, #0
	it	ne
	movne	r0, #1
	str	r0, [sp, #4]                    @ 4-byte Spill
	b	.LBB5_30
.LBB5_30:                               @   in Loop: Header=BB5_25 Depth=1
	.loc	1 0 0                           @ rt-thread/components/dfs/filesystems/elmfat/ff.c:0:0
	ldr	r0, [sp, #4]                    @ 4-byte Reload
.Ltmp324:
	.loc	1 2313 4                        @ rt-thread/components/dfs/filesystems/elmfat/ff.c:2313:4
	lsls	r0, r0, #31
	cmp	r0, #0
	bne	.LBB5_25
	b	.LBB5_31
.Ltmp325:
.LBB5_31:
	.loc	1 2314 3 is_stmt 1              @ rt-thread/components/dfs/filesystems/elmfat/ff.c:2314:3
	b	.LBB5_32
.Ltmp326:
.LBB5_32:
	.loc	1 2315 2                        @ rt-thread/components/dfs/filesystems/elmfat/ff.c:2315:2
	b	.LBB5_33
.Ltmp327:
.LBB5_33:
	.loc	1 2323 6                        @ rt-thread/components/dfs/filesystems/elmfat/ff.c:2323:6
	ldrb.w	r0, [sp, #47]
.Ltmp328:
	.loc	1 2323 6 is_stmt 0              @ rt-thread/components/dfs/filesystems/elmfat/ff.c:2323:6
	cbnz	r0, .LBB5_37
	b	.LBB5_34
.LBB5_34:
.Ltmp329:
	.loc	1 2324 21 is_stmt 1             @ rt-thread/components/dfs/filesystems/elmfat/ff.c:2324:21
	ldr	r0, [sp, #40]
	.loc	1 2324 25 is_stmt 0             @ rt-thread/components/dfs/filesystems/elmfat/ff.c:2324:25
	ldr	r1, [sp, #48]
	.loc	1 2324 29                       @ rt-thread/components/dfs/filesystems/elmfat/ff.c:2324:29
	ldr	r1, [r1, #24]
	.loc	1 2324 9                        @ rt-thread/components/dfs/filesystems/elmfat/ff.c:2324:9
	bl	move_window
	.loc	1 2324 7                        @ rt-thread/components/dfs/filesystems/elmfat/ff.c:2324:7
	strb.w	r0, [sp, #47]
.Ltmp330:
	.loc	1 2325 7 is_stmt 1              @ rt-thread/components/dfs/filesystems/elmfat/ff.c:2325:7
	ldrb.w	r0, [sp, #47]
.Ltmp331:
	.loc	1 2325 7 is_stmt 0              @ rt-thread/components/dfs/filesystems/elmfat/ff.c:2325:7
	cbnz	r0, .LBB5_36
	b	.LBB5_35
.LBB5_35:
.Ltmp332:
	.loc	1 2326 12 is_stmt 1             @ rt-thread/components/dfs/filesystems/elmfat/ff.c:2326:12
	ldr	r0, [sp, #48]
	.loc	1 2326 16 is_stmt 0             @ rt-thread/components/dfs/filesystems/elmfat/ff.c:2326:16
	ldr	r0, [r0, #28]
	movs	r1, #0
	movs	r2, #32
	.loc	1 2326 4                        @ rt-thread/components/dfs/filesystems/elmfat/ff.c:2326:4
	bl	mem_set
	.loc	1 2327 12 is_stmt 1             @ rt-thread/components/dfs/filesystems/elmfat/ff.c:2327:12
	ldr	r1, [sp, #48]
	.loc	1 2327 16 is_stmt 0             @ rt-thread/components/dfs/filesystems/elmfat/ff.c:2327:16
	ldr	r0, [r1, #28]
	.loc	1 2327 36                       @ rt-thread/components/dfs/filesystems/elmfat/ff.c:2327:36
	adds	r1, #32
	movs	r2, #11
	.loc	1 2327 4                        @ rt-thread/components/dfs/filesystems/elmfat/ff.c:2327:4
	bl	mem_cpy
	.loc	1 2329 25 is_stmt 1             @ rt-thread/components/dfs/filesystems/elmfat/ff.c:2329:25
	ldr	r1, [sp, #48]
	ldrb.w	r0, [r1, #43]
	.loc	1 2329 40 is_stmt 0             @ rt-thread/components/dfs/filesystems/elmfat/ff.c:2329:40
	and	r0, r0, #24
	.loc	1 2329 8                        @ rt-thread/components/dfs/filesystems/elmfat/ff.c:2329:8
	ldr	r1, [r1, #28]
	.loc	1 2329 23                       @ rt-thread/components/dfs/filesystems/elmfat/ff.c:2329:23
	strb	r0, [r1, #12]
	.loc	1 2331 4 is_stmt 1              @ rt-thread/components/dfs/filesystems/elmfat/ff.c:2331:4
	ldr	r1, [sp, #40]
	movs	r0, #1
	.loc	1 2331 14 is_stmt 0             @ rt-thread/components/dfs/filesystems/elmfat/ff.c:2331:14
	strb	r0, [r1, #3]
	.loc	1 2332 3 is_stmt 1              @ rt-thread/components/dfs/filesystems/elmfat/ff.c:2332:3
	b	.LBB5_36
.Ltmp333:
.LBB5_36:
	.loc	1 2333 2                        @ rt-thread/components/dfs/filesystems/elmfat/ff.c:2333:2
	b	.LBB5_37
.Ltmp334:
.LBB5_37:
	.loc	1 2335 9                        @ rt-thread/components/dfs/filesystems/elmfat/ff.c:2335:9
	ldrb.w	r0, [sp, #47]
	.loc	1 2335 2 is_stmt 0              @ rt-thread/components/dfs/filesystems/elmfat/ff.c:2335:2
	strb.w	r0, [sp, #55]
	b	.LBB5_38
.LBB5_38:
	.loc	1 2336 1 is_stmt 1              @ rt-thread/components/dfs/filesystems/elmfat/ff.c:2336:1
	ldrb.w	r0, [sp, #55]
	add	sp, #56
	pop	{r7, pc}
.Ltmp335:
.Lfunc_end5:
	.size	dir_register, .Lfunc_end5-dir_register
	.cfi_endproc
	.cantunwind
	.fnend
                                        @ -- End function
	.section	.text.st_dword,"ax",%progbits
	.p2align	3                               @ -- Begin function st_dword
	.type	st_dword,%function
	.code	16                              @ @st_dword
	.thumb_func
st_dword:
.Lfunc_begin6:
	.loc	1 651 0                         @ rt-thread/components/dfs/filesystems/elmfat/ff.c:651:0
	.fnstart
	.cfi_startproc
@ %bb.0:
	.pad	#8
	sub	sp, #8
	.cfi_def_cfa_offset 8
	str	r0, [sp, #4]
	str	r1, [sp]
.Ltmp336:
	.loc	1 652 17 prologue_end           @ rt-thread/components/dfs/filesystems/elmfat/ff.c:652:17
	ldr	r0, [sp]
	.loc	1 652 6 is_stmt 0               @ rt-thread/components/dfs/filesystems/elmfat/ff.c:652:6
	ldr	r1, [sp, #4]
	adds	r2, r1, #1
	str	r2, [sp, #4]
	.loc	1 652 9                         @ rt-thread/components/dfs/filesystems/elmfat/ff.c:652:9
	strb	r0, [r1]
	.loc	1 652 26                        @ rt-thread/components/dfs/filesystems/elmfat/ff.c:652:26
	ldr	r0, [sp]
	lsrs	r0, r0, #8
	str	r0, [sp]
	.loc	1 653 17 is_stmt 1              @ rt-thread/components/dfs/filesystems/elmfat/ff.c:653:17
	ldr	r0, [sp]
	.loc	1 653 6 is_stmt 0               @ rt-thread/components/dfs/filesystems/elmfat/ff.c:653:6
	ldr	r1, [sp, #4]
	adds	r2, r1, #1
	str	r2, [sp, #4]
	.loc	1 653 9                         @ rt-thread/components/dfs/filesystems/elmfat/ff.c:653:9
	strb	r0, [r1]
	.loc	1 653 26                        @ rt-thread/components/dfs/filesystems/elmfat/ff.c:653:26
	ldr	r0, [sp]
	lsrs	r0, r0, #8
	str	r0, [sp]
	.loc	1 654 17 is_stmt 1              @ rt-thread/components/dfs/filesystems/elmfat/ff.c:654:17
	ldr	r0, [sp]
	.loc	1 654 6 is_stmt 0               @ rt-thread/components/dfs/filesystems/elmfat/ff.c:654:6
	ldr	r1, [sp, #4]
	adds	r2, r1, #1
	str	r2, [sp, #4]
	.loc	1 654 9                         @ rt-thread/components/dfs/filesystems/elmfat/ff.c:654:9
	strb	r0, [r1]
	.loc	1 654 26                        @ rt-thread/components/dfs/filesystems/elmfat/ff.c:654:26
	ldr	r0, [sp]
	lsrs	r0, r0, #8
	str	r0, [sp]
	.loc	1 655 17 is_stmt 1              @ rt-thread/components/dfs/filesystems/elmfat/ff.c:655:17
	ldr	r0, [sp]
	.loc	1 655 6 is_stmt 0               @ rt-thread/components/dfs/filesystems/elmfat/ff.c:655:6
	ldr	r1, [sp, #4]
	adds	r2, r1, #1
	str	r2, [sp, #4]
	.loc	1 655 9                         @ rt-thread/components/dfs/filesystems/elmfat/ff.c:655:9
	strb	r0, [r1]
	.loc	1 656 1 is_stmt 1               @ rt-thread/components/dfs/filesystems/elmfat/ff.c:656:1
	add	sp, #8
	bx	lr
.Ltmp337:
.Lfunc_end6:
	.size	st_dword, .Lfunc_end6-st_dword
	.cfi_endproc
	.cantunwind
	.fnend
                                        @ -- End function
	.section	.text.ld_clust,"ax",%progbits
	.p2align	3                               @ -- Begin function ld_clust
	.type	ld_clust,%function
	.code	16                              @ @ld_clust
	.thumb_func
ld_clust:
.Lfunc_begin7:
	.loc	1 1593 0                        @ rt-thread/components/dfs/filesystems/elmfat/ff.c:1593:0
	.fnstart
	.cfi_startproc
@ %bb.0:
	.save	{r7, lr}
	push	{r7, lr}
	.cfi_def_cfa_offset 8
	.cfi_offset lr, -4
	.cfi_offset r7, -8
	.pad	#16
	sub	sp, #16
	.cfi_def_cfa_offset 24
	str	r0, [sp, #12]
	str	r1, [sp, #8]
.Ltmp338:
	.loc	1 1596 15 prologue_end          @ rt-thread/components/dfs/filesystems/elmfat/ff.c:1596:15
	ldr	r0, [sp, #8]
	.loc	1 1596 19 is_stmt 0             @ rt-thread/components/dfs/filesystems/elmfat/ff.c:1596:19
	adds	r0, #26
	.loc	1 1596 7                        @ rt-thread/components/dfs/filesystems/elmfat/ff.c:1596:7
	bl	ld_word
	.loc	1 1596 5                        @ rt-thread/components/dfs/filesystems/elmfat/ff.c:1596:5
	str	r0, [sp, #4]
.Ltmp339:
	.loc	1 1597 6 is_stmt 1              @ rt-thread/components/dfs/filesystems/elmfat/ff.c:1597:6
	ldr	r0, [sp, #12]
	.loc	1 1597 10 is_stmt 0             @ rt-thread/components/dfs/filesystems/elmfat/ff.c:1597:10
	ldrb	r0, [r0]
.Ltmp340:
	.loc	1 1597 6                        @ rt-thread/components/dfs/filesystems/elmfat/ff.c:1597:6
	cmp	r0, #3
	bne	.LBB7_2
	b	.LBB7_1
.LBB7_1:
.Ltmp341:
	.loc	1 1598 24 is_stmt 1             @ rt-thread/components/dfs/filesystems/elmfat/ff.c:1598:24
	ldr	r0, [sp, #8]
	.loc	1 1598 28 is_stmt 0             @ rt-thread/components/dfs/filesystems/elmfat/ff.c:1598:28
	adds	r0, #20
	.loc	1 1598 16                       @ rt-thread/components/dfs/filesystems/elmfat/ff.c:1598:16
	bl	ld_word
	mov	r1, r0
	.loc	1 1598 6                        @ rt-thread/components/dfs/filesystems/elmfat/ff.c:1598:6
	ldr	r0, [sp, #4]
	orr.w	r0, r0, r1, lsl #16
	str	r0, [sp, #4]
	.loc	1 1599 2 is_stmt 1              @ rt-thread/components/dfs/filesystems/elmfat/ff.c:1599:2
	b	.LBB7_2
.Ltmp342:
.LBB7_2:
	.loc	1 1601 9                        @ rt-thread/components/dfs/filesystems/elmfat/ff.c:1601:9
	ldr	r0, [sp, #4]
	.loc	1 1601 2 is_stmt 0              @ rt-thread/components/dfs/filesystems/elmfat/ff.c:1601:2
	add	sp, #16
	pop	{r7, pc}
.Ltmp343:
.Lfunc_end7:
	.size	ld_clust, .Lfunc_end7-ld_clust
	.cfi_endproc
	.cantunwind
	.fnend
                                        @ -- End function
	.section	.text.st_clust,"ax",%progbits
	.p2align	3                               @ -- Begin function st_clust
	.type	st_clust,%function
	.code	16                              @ @st_clust
	.thumb_func
st_clust:
.Lfunc_begin8:
	.loc	1 1612 0 is_stmt 1              @ rt-thread/components/dfs/filesystems/elmfat/ff.c:1612:0
	.fnstart
	.cfi_startproc
@ %bb.0:
	.save	{r7, lr}
	push	{r7, lr}
	.cfi_def_cfa_offset 8
	.cfi_offset lr, -4
	.cfi_offset r7, -8
	.pad	#16
	sub	sp, #16
	.cfi_def_cfa_offset 24
	str	r0, [sp, #12]
	str	r1, [sp, #8]
	str	r2, [sp, #4]
.Ltmp344:
	.loc	1 1613 10 prologue_end          @ rt-thread/components/dfs/filesystems/elmfat/ff.c:1613:10
	ldr	r0, [sp, #8]
	.loc	1 1613 14 is_stmt 0             @ rt-thread/components/dfs/filesystems/elmfat/ff.c:1613:14
	adds	r0, #26
	.loc	1 1613 37                       @ rt-thread/components/dfs/filesystems/elmfat/ff.c:1613:37
	ldrh.w	r1, [sp, #4]
	.loc	1 1613 2                        @ rt-thread/components/dfs/filesystems/elmfat/ff.c:1613:2
	bl	st_word
.Ltmp345:
	.loc	1 1614 6 is_stmt 1              @ rt-thread/components/dfs/filesystems/elmfat/ff.c:1614:6
	ldr	r0, [sp, #12]
	.loc	1 1614 10 is_stmt 0             @ rt-thread/components/dfs/filesystems/elmfat/ff.c:1614:10
	ldrb	r0, [r0]
.Ltmp346:
	.loc	1 1614 6                        @ rt-thread/components/dfs/filesystems/elmfat/ff.c:1614:6
	cmp	r0, #3
	bne	.LBB8_2
	b	.LBB8_1
.LBB8_1:
.Ltmp347:
	.loc	1 1615 11 is_stmt 1             @ rt-thread/components/dfs/filesystems/elmfat/ff.c:1615:11
	ldr	r0, [sp, #8]
	.loc	1 1615 15 is_stmt 0             @ rt-thread/components/dfs/filesystems/elmfat/ff.c:1615:15
	adds	r0, #20
	.loc	1 1615 39                       @ rt-thread/components/dfs/filesystems/elmfat/ff.c:1615:39
	ldrh.w	r1, [sp, #6]
	.loc	1 1615 3                        @ rt-thread/components/dfs/filesystems/elmfat/ff.c:1615:3
	bl	st_word
	.loc	1 1616 2 is_stmt 1              @ rt-thread/components/dfs/filesystems/elmfat/ff.c:1616:2
	b	.LBB8_2
.Ltmp348:
.LBB8_2:
	.loc	1 1617 1                        @ rt-thread/components/dfs/filesystems/elmfat/ff.c:1617:1
	add	sp, #16
	pop	{r7, pc}
.Ltmp349:
.Lfunc_end8:
	.size	st_clust, .Lfunc_end8-st_clust
	.cfi_endproc
	.cantunwind
	.fnend
                                        @ -- End function
	.section	.text.remove_chain,"ax",%progbits
	.p2align	3                               @ -- Begin function remove_chain
	.type	remove_chain,%function
	.code	16                              @ @remove_chain
	.thumb_func
remove_chain:
.Lfunc_begin9:
	.loc	1 1237 0                        @ rt-thread/components/dfs/filesystems/elmfat/ff.c:1237:0
	.fnstart
	.cfi_startproc
@ %bb.0:
	.save	{r7, lr}
	push	{r7, lr}
	.cfi_def_cfa_offset 8
	.cfi_offset lr, -4
	.cfi_offset r7, -8
	.pad	#32
	sub	sp, #32
	.cfi_def_cfa_offset 40
	str	r0, [sp, #24]
	str	r1, [sp, #20]
	str	r2, [sp, #16]
	movs	r0, #0
.Ltmp350:
	.loc	1 1238 10 prologue_end          @ rt-thread/components/dfs/filesystems/elmfat/ff.c:1238:10
	strb.w	r0, [sp, #15]
	.loc	1 1240 14                       @ rt-thread/components/dfs/filesystems/elmfat/ff.c:1240:14
	ldr	r0, [sp, #24]
	.loc	1 1240 19 is_stmt 0             @ rt-thread/components/dfs/filesystems/elmfat/ff.c:1240:19
	ldr	r0, [r0]
	.loc	1 1240 9                        @ rt-thread/components/dfs/filesystems/elmfat/ff.c:1240:9
	str	r0, [sp, #4]
.Ltmp351:
	.loc	1 1248 6 is_stmt 1              @ rt-thread/components/dfs/filesystems/elmfat/ff.c:1248:6
	ldr	r0, [sp, #20]
	.loc	1 1248 15 is_stmt 0             @ rt-thread/components/dfs/filesystems/elmfat/ff.c:1248:15
	cmp	r0, #2
	blo	.LBB9_2
	b	.LBB9_1
.LBB9_1:
	.loc	1 1248 18                       @ rt-thread/components/dfs/filesystems/elmfat/ff.c:1248:18
	ldr	r0, [sp, #20]
	.loc	1 1248 26                       @ rt-thread/components/dfs/filesystems/elmfat/ff.c:1248:26
	ldr	r1, [sp, #4]
	.loc	1 1248 30                       @ rt-thread/components/dfs/filesystems/elmfat/ff.c:1248:30
	ldr	r1, [r1, #24]
.Ltmp352:
	.loc	1 1248 6                        @ rt-thread/components/dfs/filesystems/elmfat/ff.c:1248:6
	cmp	r0, r1
	blo	.LBB9_3
	b	.LBB9_2
.LBB9_2:
	.loc	1 0 6                           @ rt-thread/components/dfs/filesystems/elmfat/ff.c:0:6
	movs	r0, #2
.Ltmp353:
	.loc	1 1248 40                       @ rt-thread/components/dfs/filesystems/elmfat/ff.c:1248:40
	strb.w	r0, [sp, #31]
	b	.LBB9_21
.Ltmp354:
.LBB9_3:
	.loc	1 1251 6 is_stmt 1              @ rt-thread/components/dfs/filesystems/elmfat/ff.c:1251:6
	ldr	r0, [sp, #16]
.Ltmp355:
	.loc	1 1251 6 is_stmt 0              @ rt-thread/components/dfs/filesystems/elmfat/ff.c:1251:6
	cbz	r0, .LBB9_7
	b	.LBB9_4
.LBB9_4:
.Ltmp356:
	.loc	1 1252 17 is_stmt 1             @ rt-thread/components/dfs/filesystems/elmfat/ff.c:1252:17
	ldr	r0, [sp, #4]
	.loc	1 1252 21 is_stmt 0             @ rt-thread/components/dfs/filesystems/elmfat/ff.c:1252:21
	ldr	r1, [sp, #16]
	mov.w	r2, #-1
	.loc	1 1252 9                        @ rt-thread/components/dfs/filesystems/elmfat/ff.c:1252:9
	bl	put_fat
	.loc	1 1252 7                        @ rt-thread/components/dfs/filesystems/elmfat/ff.c:1252:7
	strb.w	r0, [sp, #15]
.Ltmp357:
	.loc	1 1253 7 is_stmt 1              @ rt-thread/components/dfs/filesystems/elmfat/ff.c:1253:7
	ldrb.w	r0, [sp, #15]
.Ltmp358:
	.loc	1 1253 7 is_stmt 0              @ rt-thread/components/dfs/filesystems/elmfat/ff.c:1253:7
	cbz	r0, .LBB9_6
	b	.LBB9_5
.LBB9_5:
.Ltmp359:
	.loc	1 1253 28                       @ rt-thread/components/dfs/filesystems/elmfat/ff.c:1253:28
	ldrb.w	r0, [sp, #15]
	.loc	1 1253 21                       @ rt-thread/components/dfs/filesystems/elmfat/ff.c:1253:21
	strb.w	r0, [sp, #31]
	b	.LBB9_21
.Ltmp360:
.LBB9_6:
	.loc	1 1254 2 is_stmt 1              @ rt-thread/components/dfs/filesystems/elmfat/ff.c:1254:2
	b	.LBB9_7
.Ltmp361:
.LBB9_7:
	.loc	1 1257 2                        @ rt-thread/components/dfs/filesystems/elmfat/ff.c:1257:2
	b	.LBB9_8
.LBB9_8:                                @ =>This Inner Loop Header: Depth=1
.Ltmp362:
	.loc	1 1258 17                       @ rt-thread/components/dfs/filesystems/elmfat/ff.c:1258:17
	ldr	r0, [sp, #24]
	.loc	1 1258 22 is_stmt 0             @ rt-thread/components/dfs/filesystems/elmfat/ff.c:1258:22
	ldr	r1, [sp, #20]
	.loc	1 1258 9                        @ rt-thread/components/dfs/filesystems/elmfat/ff.c:1258:9
	bl	get_fat
	.loc	1 1258 7                        @ rt-thread/components/dfs/filesystems/elmfat/ff.c:1258:7
	str	r0, [sp, #8]
.Ltmp363:
	.loc	1 1259 7 is_stmt 1              @ rt-thread/components/dfs/filesystems/elmfat/ff.c:1259:7
	ldr	r0, [sp, #8]
.Ltmp364:
	.loc	1 1259 7 is_stmt 0              @ rt-thread/components/dfs/filesystems/elmfat/ff.c:1259:7
	cbnz	r0, .LBB9_10
	b	.LBB9_9
.LBB9_9:
.Ltmp365:
	.loc	1 1259 17                       @ rt-thread/components/dfs/filesystems/elmfat/ff.c:1259:17
	b	.LBB9_20
.Ltmp366:
.LBB9_10:                               @   in Loop: Header=BB9_8 Depth=1
	.loc	1 1260 7 is_stmt 1              @ rt-thread/components/dfs/filesystems/elmfat/ff.c:1260:7
	ldr	r0, [sp, #8]
.Ltmp367:
	.loc	1 1260 7 is_stmt 0              @ rt-thread/components/dfs/filesystems/elmfat/ff.c:1260:7
	cmp	r0, #1
	bne	.LBB9_12
	b	.LBB9_11
.LBB9_11:
	.loc	1 0 7                           @ rt-thread/components/dfs/filesystems/elmfat/ff.c:0:7
	movs	r0, #2
.Ltmp368:
	.loc	1 1260 17                       @ rt-thread/components/dfs/filesystems/elmfat/ff.c:1260:17
	strb.w	r0, [sp, #31]
	b	.LBB9_21
.Ltmp369:
.LBB9_12:                               @   in Loop: Header=BB9_8 Depth=1
	.loc	1 1261 7 is_stmt 1              @ rt-thread/components/dfs/filesystems/elmfat/ff.c:1261:7
	ldr	r0, [sp, #8]
.Ltmp370:
	.loc	1 1261 7 is_stmt 0              @ rt-thread/components/dfs/filesystems/elmfat/ff.c:1261:7
	adds	r0, #1
	cbnz	r0, .LBB9_14
	b	.LBB9_13
.LBB9_13:
	.loc	1 0 7                           @ rt-thread/components/dfs/filesystems/elmfat/ff.c:0:7
	movs	r0, #1
.Ltmp371:
	.loc	1 1261 26                       @ rt-thread/components/dfs/filesystems/elmfat/ff.c:1261:26
	strb.w	r0, [sp, #31]
	b	.LBB9_21
.Ltmp372:
.LBB9_14:                               @   in Loop: Header=BB9_8 Depth=1
	.loc	1 1263 18 is_stmt 1             @ rt-thread/components/dfs/filesystems/elmfat/ff.c:1263:18
	ldr	r0, [sp, #4]
	.loc	1 1263 22 is_stmt 0             @ rt-thread/components/dfs/filesystems/elmfat/ff.c:1263:22
	ldr	r1, [sp, #20]
	movs	r2, #0
	.loc	1 1263 10                       @ rt-thread/components/dfs/filesystems/elmfat/ff.c:1263:10
	bl	put_fat
	.loc	1 1263 8                        @ rt-thread/components/dfs/filesystems/elmfat/ff.c:1263:8
	strb.w	r0, [sp, #15]
.Ltmp373:
	.loc	1 1264 8 is_stmt 1              @ rt-thread/components/dfs/filesystems/elmfat/ff.c:1264:8
	ldrb.w	r0, [sp, #15]
.Ltmp374:
	.loc	1 1264 8 is_stmt 0              @ rt-thread/components/dfs/filesystems/elmfat/ff.c:1264:8
	cbz	r0, .LBB9_16
	b	.LBB9_15
.LBB9_15:
.Ltmp375:
	.loc	1 1264 29                       @ rt-thread/components/dfs/filesystems/elmfat/ff.c:1264:29
	ldrb.w	r0, [sp, #15]
	.loc	1 1264 22                       @ rt-thread/components/dfs/filesystems/elmfat/ff.c:1264:22
	strb.w	r0, [sp, #31]
	b	.LBB9_21
.Ltmp376:
.LBB9_16:                               @   in Loop: Header=BB9_8 Depth=1
	.loc	1 1266 7 is_stmt 1              @ rt-thread/components/dfs/filesystems/elmfat/ff.c:1266:7
	ldr	r1, [sp, #4]
	.loc	1 1266 11 is_stmt 0             @ rt-thread/components/dfs/filesystems/elmfat/ff.c:1266:11
	ldr	r0, [r1, #20]
	.loc	1 1266 27                       @ rt-thread/components/dfs/filesystems/elmfat/ff.c:1266:27
	ldr	r1, [r1, #24]
	.loc	1 1266 36                       @ rt-thread/components/dfs/filesystems/elmfat/ff.c:1266:36
	subs	r1, #2
.Ltmp377:
	.loc	1 1266 7                        @ rt-thread/components/dfs/filesystems/elmfat/ff.c:1266:7
	cmp	r0, r1
	bhs	.LBB9_18
	b	.LBB9_17
.LBB9_17:                               @   in Loop: Header=BB9_8 Depth=1
.Ltmp378:
	.loc	1 1267 4 is_stmt 1              @ rt-thread/components/dfs/filesystems/elmfat/ff.c:1267:4
	ldr	r1, [sp, #4]
	.loc	1 1267 17 is_stmt 0             @ rt-thread/components/dfs/filesystems/elmfat/ff.c:1267:17
	ldr	r0, [r1, #20]
	adds	r0, #1
	str	r0, [r1, #20]
	.loc	1 1268 4 is_stmt 1              @ rt-thread/components/dfs/filesystems/elmfat/ff.c:1268:4
	ldr	r1, [sp, #4]
	.loc	1 1268 17 is_stmt 0             @ rt-thread/components/dfs/filesystems/elmfat/ff.c:1268:17
	ldrb	r0, [r1, #4]
	orr	r0, r0, #1
	strb	r0, [r1, #4]
	.loc	1 1269 3 is_stmt 1              @ rt-thread/components/dfs/filesystems/elmfat/ff.c:1269:3
	b	.LBB9_18
.Ltmp379:
.LBB9_18:                               @   in Loop: Header=BB9_8 Depth=1
	.loc	1 1288 10                       @ rt-thread/components/dfs/filesystems/elmfat/ff.c:1288:10
	ldr	r0, [sp, #8]
	.loc	1 1288 8 is_stmt 0              @ rt-thread/components/dfs/filesystems/elmfat/ff.c:1288:8
	str	r0, [sp, #20]
	.loc	1 1289 2 is_stmt 1              @ rt-thread/components/dfs/filesystems/elmfat/ff.c:1289:2
	b	.LBB9_19
.Ltmp380:
.LBB9_19:                               @   in Loop: Header=BB9_8 Depth=1
	.loc	1 1289 11 is_stmt 0             @ rt-thread/components/dfs/filesystems/elmfat/ff.c:1289:11
	ldr	r0, [sp, #20]
	.loc	1 1289 18                       @ rt-thread/components/dfs/filesystems/elmfat/ff.c:1289:18
	ldr	r1, [sp, #4]
	.loc	1 1289 22                       @ rt-thread/components/dfs/filesystems/elmfat/ff.c:1289:22
	ldr	r1, [r1, #24]
.Ltmp381:
	.loc	1 1289 2                        @ rt-thread/components/dfs/filesystems/elmfat/ff.c:1289:2
	cmp	r0, r1
	blo	.LBB9_8
	b	.LBB9_20
.Ltmp382:
.LBB9_20:
	.loc	1 0 2                           @ rt-thread/components/dfs/filesystems/elmfat/ff.c:0:2
	movs	r0, #0
	.loc	1 1302 2 is_stmt 1              @ rt-thread/components/dfs/filesystems/elmfat/ff.c:1302:2
	strb.w	r0, [sp, #31]
	b	.LBB9_21
.LBB9_21:
	.loc	1 1303 1                        @ rt-thread/components/dfs/filesystems/elmfat/ff.c:1303:1
	ldrb.w	r0, [sp, #31]
	add	sp, #32
	pop	{r7, pc}
.Ltmp383:
.Lfunc_end9:
	.size	remove_chain, .Lfunc_end9-remove_chain
	.cfi_endproc
	.cantunwind
	.fnend
                                        @ -- End function
	.section	.text.move_window,"ax",%progbits
	.p2align	3                               @ -- Begin function move_window
	.type	move_window,%function
	.code	16                              @ @move_window
	.thumb_func
move_window:
.Lfunc_begin10:
	.loc	1 901 0                         @ rt-thread/components/dfs/filesystems/elmfat/ff.c:901:0
	.fnstart
	.cfi_startproc
@ %bb.0:
	.save	{r7, lr}
	push	{r7, lr}
	.cfi_def_cfa_offset 8
	.cfi_offset lr, -4
	.cfi_offset r7, -8
	.pad	#16
	sub	sp, #16
	.cfi_def_cfa_offset 24
	str	r0, [sp, #12]
	str	r1, [sp, #8]
	movs	r0, #0
.Ltmp384:
	.loc	1 902 10 prologue_end           @ rt-thread/components/dfs/filesystems/elmfat/ff.c:902:10
	strb.w	r0, [sp, #7]
.Ltmp385:
	.loc	1 905 6                         @ rt-thread/components/dfs/filesystems/elmfat/ff.c:905:6
	ldr	r0, [sp, #8]
	.loc	1 905 16 is_stmt 0              @ rt-thread/components/dfs/filesystems/elmfat/ff.c:905:16
	ldr	r1, [sp, #12]
	.loc	1 905 20                        @ rt-thread/components/dfs/filesystems/elmfat/ff.c:905:20
	ldr	r1, [r1, #48]
.Ltmp386:
	.loc	1 905 6                         @ rt-thread/components/dfs/filesystems/elmfat/ff.c:905:6
	cmp	r0, r1
	beq	.LBB10_6
	b	.LBB10_1
.LBB10_1:
.Ltmp387:
	.loc	1 907 21 is_stmt 1              @ rt-thread/components/dfs/filesystems/elmfat/ff.c:907:21
	ldr	r0, [sp, #12]
	.loc	1 907 9 is_stmt 0               @ rt-thread/components/dfs/filesystems/elmfat/ff.c:907:9
	bl	sync_window
	.loc	1 907 7                         @ rt-thread/components/dfs/filesystems/elmfat/ff.c:907:7
	strb.w	r0, [sp, #7]
.Ltmp388:
	.loc	1 909 7 is_stmt 1               @ rt-thread/components/dfs/filesystems/elmfat/ff.c:909:7
	ldrb.w	r0, [sp, #7]
.Ltmp389:
	.loc	1 909 7 is_stmt 0               @ rt-thread/components/dfs/filesystems/elmfat/ff.c:909:7
	cbnz	r0, .LBB10_5
	b	.LBB10_2
.LBB10_2:
.Ltmp390:
	.loc	1 910 18 is_stmt 1              @ rt-thread/components/dfs/filesystems/elmfat/ff.c:910:18
	ldr	r1, [sp, #12]
	.loc	1 910 22 is_stmt 0              @ rt-thread/components/dfs/filesystems/elmfat/ff.c:910:22
	ldrb	r0, [r1, #1]
	.loc	1 910 31                        @ rt-thread/components/dfs/filesystems/elmfat/ff.c:910:31
	adds	r1, #52
	.loc	1 910 36                        @ rt-thread/components/dfs/filesystems/elmfat/ff.c:910:36
	ldr	r2, [sp, #8]
	movs	r3, #1
	.loc	1 910 8                         @ rt-thread/components/dfs/filesystems/elmfat/ff.c:910:8
	bl	disk_read
.Ltmp391:
	.loc	1 910 8                         @ rt-thread/components/dfs/filesystems/elmfat/ff.c:910:8
	cbz	r0, .LBB10_4
	b	.LBB10_3
.LBB10_3:
	.loc	1 0 8                           @ rt-thread/components/dfs/filesystems/elmfat/ff.c:0:8
	mov.w	r0, #-1
.Ltmp392:
	.loc	1 911 12 is_stmt 1              @ rt-thread/components/dfs/filesystems/elmfat/ff.c:911:12
	str	r0, [sp, #8]
	movs	r0, #1
	.loc	1 912 9                         @ rt-thread/components/dfs/filesystems/elmfat/ff.c:912:9
	strb.w	r0, [sp, #7]
	.loc	1 913 4                         @ rt-thread/components/dfs/filesystems/elmfat/ff.c:913:4
	b	.LBB10_4
.Ltmp393:
.LBB10_4:
	.loc	1 914 18                        @ rt-thread/components/dfs/filesystems/elmfat/ff.c:914:18
	ldr	r0, [sp, #8]
	.loc	1 914 4 is_stmt 0               @ rt-thread/components/dfs/filesystems/elmfat/ff.c:914:4
	ldr	r1, [sp, #12]
	.loc	1 914 16                        @ rt-thread/components/dfs/filesystems/elmfat/ff.c:914:16
	str	r0, [r1, #48]
	.loc	1 915 3 is_stmt 1               @ rt-thread/components/dfs/filesystems/elmfat/ff.c:915:3
	b	.LBB10_5
.Ltmp394:
.LBB10_5:
	.loc	1 916 2                         @ rt-thread/components/dfs/filesystems/elmfat/ff.c:916:2
	b	.LBB10_6
.Ltmp395:
.LBB10_6:
	.loc	1 917 9                         @ rt-thread/components/dfs/filesystems/elmfat/ff.c:917:9
	ldrb.w	r0, [sp, #7]
	.loc	1 917 2 is_stmt 0               @ rt-thread/components/dfs/filesystems/elmfat/ff.c:917:2
	add	sp, #16
	pop	{r7, pc}
.Ltmp396:
.Lfunc_end10:
	.size	move_window, .Lfunc_end10-move_window
	.cfi_endproc
	.cantunwind
	.fnend
                                        @ -- End function
	.section	.text.ld_dword,"ax",%progbits
	.p2align	3                               @ -- Begin function ld_dword
	.type	ld_dword,%function
	.code	16                              @ @ld_dword
	.thumb_func
ld_dword:
.Lfunc_begin11:
	.loc	1 613 0 is_stmt 1               @ rt-thread/components/dfs/filesystems/elmfat/ff.c:613:0
	.fnstart
	.cfi_startproc
@ %bb.0:
	.pad	#8
	sub	sp, #8
	.cfi_def_cfa_offset 8
	str	r0, [sp, #4]
.Ltmp397:
	.loc	1 616 7 prologue_end            @ rt-thread/components/dfs/filesystems/elmfat/ff.c:616:7
	ldr	r0, [sp, #4]
	ldrb	r0, [r0, #3]
	.loc	1 616 5 is_stmt 0               @ rt-thread/components/dfs/filesystems/elmfat/ff.c:616:5
	str	r0, [sp]
	.loc	1 617 7 is_stmt 1               @ rt-thread/components/dfs/filesystems/elmfat/ff.c:617:7
	ldr	r1, [sp]
	.loc	1 617 17 is_stmt 0              @ rt-thread/components/dfs/filesystems/elmfat/ff.c:617:17
	ldr	r0, [sp, #4]
	ldrb	r0, [r0, #2]
	.loc	1 617 15                        @ rt-thread/components/dfs/filesystems/elmfat/ff.c:617:15
	orr.w	r0, r0, r1, lsl #8
	.loc	1 617 5                         @ rt-thread/components/dfs/filesystems/elmfat/ff.c:617:5
	str	r0, [sp]
	.loc	1 618 7 is_stmt 1               @ rt-thread/components/dfs/filesystems/elmfat/ff.c:618:7
	ldr	r1, [sp]
	.loc	1 618 17 is_stmt 0              @ rt-thread/components/dfs/filesystems/elmfat/ff.c:618:17
	ldr	r0, [sp, #4]
	ldrb	r0, [r0, #1]
	.loc	1 618 15                        @ rt-thread/components/dfs/filesystems/elmfat/ff.c:618:15
	orr.w	r0, r0, r1, lsl #8
	.loc	1 618 5                         @ rt-thread/components/dfs/filesystems/elmfat/ff.c:618:5
	str	r0, [sp]
	.loc	1 619 7 is_stmt 1               @ rt-thread/components/dfs/filesystems/elmfat/ff.c:619:7
	ldr	r1, [sp]
	.loc	1 619 17 is_stmt 0              @ rt-thread/components/dfs/filesystems/elmfat/ff.c:619:17
	ldr	r0, [sp, #4]
	ldrb	r0, [r0]
	.loc	1 619 15                        @ rt-thread/components/dfs/filesystems/elmfat/ff.c:619:15
	orr.w	r0, r0, r1, lsl #8
	.loc	1 619 5                         @ rt-thread/components/dfs/filesystems/elmfat/ff.c:619:5
	str	r0, [sp]
	.loc	1 620 9 is_stmt 1               @ rt-thread/components/dfs/filesystems/elmfat/ff.c:620:9
	ldr	r0, [sp]
	.loc	1 620 2 is_stmt 0               @ rt-thread/components/dfs/filesystems/elmfat/ff.c:620:2
	add	sp, #8
	bx	lr
.Ltmp398:
.Lfunc_end11:
	.size	ld_dword, .Lfunc_end11-ld_dword
	.cfi_endproc
	.cantunwind
	.fnend
                                        @ -- End function
	.section	.text.mem_set,"ax",%progbits
	.p2align	3                               @ -- Begin function mem_set
	.type	mem_set,%function
	.code	16                              @ @mem_set
	.thumb_func
mem_set:
.Lfunc_begin12:
	.loc	1 693 0 is_stmt 1               @ rt-thread/components/dfs/filesystems/elmfat/ff.c:693:0
	.fnstart
	.cfi_startproc
@ %bb.0:
	.pad	#16
	sub	sp, #16
	.cfi_def_cfa_offset 16
	str	r0, [sp, #12]
	str	r1, [sp, #8]
	str	r2, [sp, #4]
.Ltmp399:
	.loc	1 694 19 prologue_end           @ rt-thread/components/dfs/filesystems/elmfat/ff.c:694:19
	ldr	r0, [sp, #12]
	.loc	1 694 8 is_stmt 0               @ rt-thread/components/dfs/filesystems/elmfat/ff.c:694:8
	str	r0, [sp]
	.loc	1 696 2 is_stmt 1               @ rt-thread/components/dfs/filesystems/elmfat/ff.c:696:2
	b	.LBB12_1
.LBB12_1:                               @ =>This Inner Loop Header: Depth=1
	.loc	1 696 18 is_stmt 0              @ rt-thread/components/dfs/filesystems/elmfat/ff.c:696:18
	ldr	r0, [sp, #8]
	.loc	1 696 7                         @ rt-thread/components/dfs/filesystems/elmfat/ff.c:696:7
	ldr	r1, [sp]
	adds	r2, r1, #1
	str	r2, [sp]
	.loc	1 696 10                        @ rt-thread/components/dfs/filesystems/elmfat/ff.c:696:10
	strb	r0, [r1]
	.loc	1 696 5                         @ rt-thread/components/dfs/filesystems/elmfat/ff.c:696:5
	b	.LBB12_2
.LBB12_2:                               @   in Loop: Header=BB12_1 Depth=1
	.loc	1 696 30                        @ rt-thread/components/dfs/filesystems/elmfat/ff.c:696:30
	ldr	r0, [sp, #4]
	subs	r0, #1
	str	r0, [sp, #4]
	.loc	1 696 5                         @ rt-thread/components/dfs/filesystems/elmfat/ff.c:696:5
	cmp	r0, #0
	bne	.LBB12_1
	b	.LBB12_3
.LBB12_3:
	.loc	1 697 1 is_stmt 1               @ rt-thread/components/dfs/filesystems/elmfat/ff.c:697:1
	add	sp, #16
	bx	lr
.Ltmp400:
.Lfunc_end12:
	.size	mem_set, .Lfunc_end12-mem_set
	.cfi_endproc
	.cantunwind
	.fnend
                                        @ -- End function
	.section	.text.get_fat,"ax",%progbits
	.p2align	3                               @ -- Begin function get_fat
	.type	get_fat,%function
	.code	16                              @ @get_fat
	.thumb_func
get_fat:
.Lfunc_begin13:
	.loc	1 990 0                         @ rt-thread/components/dfs/filesystems/elmfat/ff.c:990:0
	.fnstart
	.cfi_startproc
@ %bb.0:
	.save	{r7, lr}
	push	{r7, lr}
	.cfi_def_cfa_offset 8
	.cfi_offset lr, -4
	.cfi_offset r7, -8
	.pad	#32
	sub	sp, #32
	.cfi_def_cfa_offset 40
	str	r0, [sp, #28]
	str	r1, [sp, #24]
.Ltmp401:
	.loc	1 993 14 prologue_end           @ rt-thread/components/dfs/filesystems/elmfat/ff.c:993:14
	ldr	r0, [sp, #28]
	.loc	1 993 19 is_stmt 0              @ rt-thread/components/dfs/filesystems/elmfat/ff.c:993:19
	ldr	r0, [r0]
	.loc	1 993 9                         @ rt-thread/components/dfs/filesystems/elmfat/ff.c:993:9
	str	r0, [sp, #8]
.Ltmp402:
	.loc	1 996 6 is_stmt 1               @ rt-thread/components/dfs/filesystems/elmfat/ff.c:996:6
	ldr	r0, [sp, #24]
	.loc	1 996 15 is_stmt 0              @ rt-thread/components/dfs/filesystems/elmfat/ff.c:996:15
	cmp	r0, #2
	blo	.LBB13_2
	b	.LBB13_1
.LBB13_1:
	.loc	1 996 18                        @ rt-thread/components/dfs/filesystems/elmfat/ff.c:996:18
	ldr	r0, [sp, #24]
	.loc	1 996 26                        @ rt-thread/components/dfs/filesystems/elmfat/ff.c:996:26
	ldr	r1, [sp, #8]
	.loc	1 996 30                        @ rt-thread/components/dfs/filesystems/elmfat/ff.c:996:30
	ldr	r1, [r1, #24]
.Ltmp403:
	.loc	1 996 6                         @ rt-thread/components/dfs/filesystems/elmfat/ff.c:996:6
	cmp	r0, r1
	blo	.LBB13_3
	b	.LBB13_2
.LBB13_2:
	.loc	1 0 6                           @ rt-thread/components/dfs/filesystems/elmfat/ff.c:0:6
	movs	r0, #1
.Ltmp404:
	.loc	1 997 7 is_stmt 1               @ rt-thread/components/dfs/filesystems/elmfat/ff.c:997:7
	str	r0, [sp, #12]
	.loc	1 999 2                         @ rt-thread/components/dfs/filesystems/elmfat/ff.c:999:2
	b	.LBB13_22
.Ltmp405:
.LBB13_3:
	.loc	1 0 2 is_stmt 0                 @ rt-thread/components/dfs/filesystems/elmfat/ff.c:0:2
	mov.w	r0, #-1
.Ltmp406:
	.loc	1 1000 7 is_stmt 1              @ rt-thread/components/dfs/filesystems/elmfat/ff.c:1000:7
	str	r0, [sp, #12]
	.loc	1 1002 11                       @ rt-thread/components/dfs/filesystems/elmfat/ff.c:1002:11
	ldr	r0, [sp, #8]
	.loc	1 1002 15 is_stmt 0             @ rt-thread/components/dfs/filesystems/elmfat/ff.c:1002:15
	ldrb	r0, [r0]
	.loc	1 1002 3                        @ rt-thread/components/dfs/filesystems/elmfat/ff.c:1002:3
	mov	r1, r0
	str	r1, [sp, #4]                    @ 4-byte Spill
	cmp	r0, #1
	beq	.LBB13_6
	b	.LBB13_4
.LBB13_4:
	ldr	r0, [sp, #4]                    @ 4-byte Reload
	cmp	r0, #2
	beq	.LBB13_14
	b	.LBB13_5
.LBB13_5:
	ldr	r0, [sp, #4]                    @ 4-byte Reload
	cmp	r0, #3
	beq	.LBB13_17
	b	.LBB13_20
.LBB13_6:
.Ltmp407:
	.loc	1 1004 15 is_stmt 1             @ rt-thread/components/dfs/filesystems/elmfat/ff.c:1004:15
	ldr	r0, [sp, #24]
	.loc	1 1004 7 is_stmt 0              @ rt-thread/components/dfs/filesystems/elmfat/ff.c:1004:7
	str	r0, [sp, #16]
	.loc	1 1004 27                       @ rt-thread/components/dfs/filesystems/elmfat/ff.c:1004:27
	ldr	r0, [sp, #16]
	.loc	1 1004 24                       @ rt-thread/components/dfs/filesystems/elmfat/ff.c:1004:24
	add.w	r0, r0, r0, lsr #1
	str	r0, [sp, #16]
.Ltmp408:
	.loc	1 1005 20 is_stmt 1             @ rt-thread/components/dfs/filesystems/elmfat/ff.c:1005:20
	ldr	r0, [sp, #8]
	.loc	1 1005 28 is_stmt 0             @ rt-thread/components/dfs/filesystems/elmfat/ff.c:1005:28
	ldr	r1, [r0, #36]
	.loc	1 1005 39                       @ rt-thread/components/dfs/filesystems/elmfat/ff.c:1005:39
	ldr	r2, [sp, #16]
	.loc	1 1005 36                       @ rt-thread/components/dfs/filesystems/elmfat/ff.c:1005:36
	add.w	r1, r1, r2, lsr #9
	.loc	1 1005 8                        @ rt-thread/components/dfs/filesystems/elmfat/ff.c:1005:8
	bl	move_window
.Ltmp409:
	.loc	1 1005 8                        @ rt-thread/components/dfs/filesystems/elmfat/ff.c:1005:8
	cbz	r0, .LBB13_8
	b	.LBB13_7
.LBB13_7:
.Ltmp410:
	.loc	1 1005 63                       @ rt-thread/components/dfs/filesystems/elmfat/ff.c:1005:63
	b	.LBB13_21
.Ltmp411:
.LBB13_8:
	.loc	1 1006 9 is_stmt 1              @ rt-thread/components/dfs/filesystems/elmfat/ff.c:1006:9
	ldr	r0, [sp, #8]
	.loc	1 1006 19 is_stmt 0             @ rt-thread/components/dfs/filesystems/elmfat/ff.c:1006:19
	ldr	r1, [sp, #16]
	.loc	1 1006 22                       @ rt-thread/components/dfs/filesystems/elmfat/ff.c:1006:22
	mov	r2, r1
	bfc	r2, #9, #23
	.loc	1 1006 13                       @ rt-thread/components/dfs/filesystems/elmfat/ff.c:1006:13
	add	r0, r2
	.loc	1 1006 19                       @ rt-thread/components/dfs/filesystems/elmfat/ff.c:1006:19
	adds	r1, #1
	str	r1, [sp, #16]
	.loc	1 1006 9                        @ rt-thread/components/dfs/filesystems/elmfat/ff.c:1006:9
	ldrb.w	r0, [r0, #52]
	.loc	1 1006 7                        @ rt-thread/components/dfs/filesystems/elmfat/ff.c:1006:7
	str	r0, [sp, #20]
.Ltmp412:
	.loc	1 1007 20 is_stmt 1             @ rt-thread/components/dfs/filesystems/elmfat/ff.c:1007:20
	ldr	r0, [sp, #8]
	.loc	1 1007 28 is_stmt 0             @ rt-thread/components/dfs/filesystems/elmfat/ff.c:1007:28
	ldr	r1, [r0, #36]
	.loc	1 1007 39                       @ rt-thread/components/dfs/filesystems/elmfat/ff.c:1007:39
	ldr	r2, [sp, #16]
	.loc	1 1007 36                       @ rt-thread/components/dfs/filesystems/elmfat/ff.c:1007:36
	add.w	r1, r1, r2, lsr #9
	.loc	1 1007 8                        @ rt-thread/components/dfs/filesystems/elmfat/ff.c:1007:8
	bl	move_window
.Ltmp413:
	.loc	1 1007 8                        @ rt-thread/components/dfs/filesystems/elmfat/ff.c:1007:8
	cbz	r0, .LBB13_10
	b	.LBB13_9
.LBB13_9:
.Ltmp414:
	.loc	1 1007 63                       @ rt-thread/components/dfs/filesystems/elmfat/ff.c:1007:63
	b	.LBB13_21
.Ltmp415:
.LBB13_10:
	.loc	1 1008 10 is_stmt 1             @ rt-thread/components/dfs/filesystems/elmfat/ff.c:1008:10
	ldr	r0, [sp, #8]
	.loc	1 1008 18 is_stmt 0             @ rt-thread/components/dfs/filesystems/elmfat/ff.c:1008:18
	ldr	r1, [sp, #16]
	.loc	1 1008 21                       @ rt-thread/components/dfs/filesystems/elmfat/ff.c:1008:21
	bfc	r1, #9, #23
	.loc	1 1008 14                       @ rt-thread/components/dfs/filesystems/elmfat/ff.c:1008:14
	add	r0, r1
	.loc	1 1008 10                       @ rt-thread/components/dfs/filesystems/elmfat/ff.c:1008:10
	ldrb.w	r1, [r0, #52]
	.loc	1 1008 7                        @ rt-thread/components/dfs/filesystems/elmfat/ff.c:1008:7
	ldr	r0, [sp, #20]
	orr.w	r0, r0, r1, lsl #8
	str	r0, [sp, #20]
	.loc	1 1009 10 is_stmt 1             @ rt-thread/components/dfs/filesystems/elmfat/ff.c:1009:10
	ldrb.w	r0, [sp, #24]
	lsls	r0, r0, #31
	cbz	r0, .LBB13_12
	b	.LBB13_11
.LBB13_11:
	.loc	1 1009 24 is_stmt 0             @ rt-thread/components/dfs/filesystems/elmfat/ff.c:1009:24
	ldr	r0, [sp, #20]
	.loc	1 1009 27                       @ rt-thread/components/dfs/filesystems/elmfat/ff.c:1009:27
	lsrs	r0, r0, #4
	.loc	1 1009 10                       @ rt-thread/components/dfs/filesystems/elmfat/ff.c:1009:10
	str	r0, [sp]                        @ 4-byte Spill
	b	.LBB13_13
.LBB13_12:
	.loc	1 1009 36                       @ rt-thread/components/dfs/filesystems/elmfat/ff.c:1009:36
	ldr	r0, [sp, #20]
	.loc	1 1009 39                       @ rt-thread/components/dfs/filesystems/elmfat/ff.c:1009:39
	bfc	r0, #12, #20
	.loc	1 1009 10                       @ rt-thread/components/dfs/filesystems/elmfat/ff.c:1009:10
	str	r0, [sp]                        @ 4-byte Spill
	b	.LBB13_13
.LBB13_13:
	ldr	r0, [sp]                        @ 4-byte Reload
	.loc	1 1009 8                        @ rt-thread/components/dfs/filesystems/elmfat/ff.c:1009:8
	str	r0, [sp, #12]
	.loc	1 1010 4 is_stmt 1              @ rt-thread/components/dfs/filesystems/elmfat/ff.c:1010:4
	b	.LBB13_21
.LBB13_14:
.Ltmp416:
	.loc	1 1013 20                       @ rt-thread/components/dfs/filesystems/elmfat/ff.c:1013:20
	ldr	r0, [sp, #8]
	.loc	1 1013 28 is_stmt 0             @ rt-thread/components/dfs/filesystems/elmfat/ff.c:1013:28
	ldr	r1, [r0, #36]
	.loc	1 1013 39                       @ rt-thread/components/dfs/filesystems/elmfat/ff.c:1013:39
	ldr	r2, [sp, #24]
	.loc	1 1013 36                       @ rt-thread/components/dfs/filesystems/elmfat/ff.c:1013:36
	add.w	r1, r1, r2, lsr #8
	.loc	1 1013 8                        @ rt-thread/components/dfs/filesystems/elmfat/ff.c:1013:8
	bl	move_window
.Ltmp417:
	.loc	1 1013 8                        @ rt-thread/components/dfs/filesystems/elmfat/ff.c:1013:8
	cbz	r0, .LBB13_16
	b	.LBB13_15
.LBB13_15:
.Ltmp418:
	.loc	1 1013 71                       @ rt-thread/components/dfs/filesystems/elmfat/ff.c:1013:71
	b	.LBB13_21
.Ltmp419:
.LBB13_16:
	.loc	1 1014 18 is_stmt 1             @ rt-thread/components/dfs/filesystems/elmfat/ff.c:1014:18
	ldr	r0, [sp, #8]
	.loc	1 1014 28 is_stmt 0             @ rt-thread/components/dfs/filesystems/elmfat/ff.c:1014:28
	ldrb.w	r1, [sp, #24]
	.loc	1 1014 22                       @ rt-thread/components/dfs/filesystems/elmfat/ff.c:1014:22
	add.w	r0, r0, r1, lsl #1
	.loc	1 1014 26                       @ rt-thread/components/dfs/filesystems/elmfat/ff.c:1014:26
	adds	r0, #52
	.loc	1 1014 10                       @ rt-thread/components/dfs/filesystems/elmfat/ff.c:1014:10
	bl	ld_word
	.loc	1 1014 8                        @ rt-thread/components/dfs/filesystems/elmfat/ff.c:1014:8
	str	r0, [sp, #12]
	.loc	1 1015 4 is_stmt 1              @ rt-thread/components/dfs/filesystems/elmfat/ff.c:1015:4
	b	.LBB13_21
.LBB13_17:
.Ltmp420:
	.loc	1 1018 20                       @ rt-thread/components/dfs/filesystems/elmfat/ff.c:1018:20
	ldr	r0, [sp, #8]
	.loc	1 1018 28 is_stmt 0             @ rt-thread/components/dfs/filesystems/elmfat/ff.c:1018:28
	ldr	r1, [r0, #36]
	.loc	1 1018 39                       @ rt-thread/components/dfs/filesystems/elmfat/ff.c:1018:39
	ldr	r2, [sp, #24]
	.loc	1 1018 36                       @ rt-thread/components/dfs/filesystems/elmfat/ff.c:1018:36
	add.w	r1, r1, r2, lsr #7
	.loc	1 1018 8                        @ rt-thread/components/dfs/filesystems/elmfat/ff.c:1018:8
	bl	move_window
.Ltmp421:
	.loc	1 1018 8                        @ rt-thread/components/dfs/filesystems/elmfat/ff.c:1018:8
	cbz	r0, .LBB13_19
	b	.LBB13_18
.LBB13_18:
.Ltmp422:
	.loc	1 1018 71                       @ rt-thread/components/dfs/filesystems/elmfat/ff.c:1018:71
	b	.LBB13_21
.Ltmp423:
.LBB13_19:
	.loc	1 1019 19 is_stmt 1             @ rt-thread/components/dfs/filesystems/elmfat/ff.c:1019:19
	ldr	r0, [sp, #8]
	.loc	1 1019 29 is_stmt 0             @ rt-thread/components/dfs/filesystems/elmfat/ff.c:1019:29
	ldr	r1, [sp, #24]
	.loc	1 1019 38                       @ rt-thread/components/dfs/filesystems/elmfat/ff.c:1019:38
	and	r1, r1, #127
	.loc	1 1019 23                       @ rt-thread/components/dfs/filesystems/elmfat/ff.c:1019:23
	add.w	r0, r0, r1, lsl #2
	.loc	1 1019 27                       @ rt-thread/components/dfs/filesystems/elmfat/ff.c:1019:27
	adds	r0, #52
	.loc	1 1019 10                       @ rt-thread/components/dfs/filesystems/elmfat/ff.c:1019:10
	bl	ld_dword
	.loc	1 1019 48                       @ rt-thread/components/dfs/filesystems/elmfat/ff.c:1019:48
	bic	r0, r0, #-268435456
	.loc	1 1019 8                        @ rt-thread/components/dfs/filesystems/elmfat/ff.c:1019:8
	str	r0, [sp, #12]
	.loc	1 1020 4 is_stmt 1              @ rt-thread/components/dfs/filesystems/elmfat/ff.c:1020:4
	b	.LBB13_21
.LBB13_20:
	.loc	1 0 4 is_stmt 0                 @ rt-thread/components/dfs/filesystems/elmfat/ff.c:0:4
	movs	r0, #1
	.loc	1 1046 8 is_stmt 1              @ rt-thread/components/dfs/filesystems/elmfat/ff.c:1046:8
	str	r0, [sp, #12]
	.loc	1 1047 3                        @ rt-thread/components/dfs/filesystems/elmfat/ff.c:1047:3
	b	.LBB13_21
.Ltmp424:
.LBB13_21:
	.loc	1 0 3 is_stmt 0                 @ rt-thread/components/dfs/filesystems/elmfat/ff.c:0:3
	b	.LBB13_22
.LBB13_22:
	.loc	1 1050 9 is_stmt 1              @ rt-thread/components/dfs/filesystems/elmfat/ff.c:1050:9
	ldr	r0, [sp, #12]
	.loc	1 1050 2 is_stmt 0              @ rt-thread/components/dfs/filesystems/elmfat/ff.c:1050:2
	add	sp, #32
	pop	{r7, pc}
.Ltmp425:
.Lfunc_end13:
	.size	get_fat, .Lfunc_end13-get_fat
	.cfi_endproc
	.cantunwind
	.fnend
                                        @ -- End function
	.section	.text.clust2sect,"ax",%progbits
	.p2align	3                               @ -- Begin function clust2sect
	.type	clust2sect,%function
	.code	16                              @ @clust2sect
	.thumb_func
clust2sect:
.Lfunc_begin14:
	.loc	1 972 0 is_stmt 1               @ rt-thread/components/dfs/filesystems/elmfat/ff.c:972:0
	.fnstart
	.cfi_startproc
@ %bb.0:
	.pad	#12
	sub	sp, #12
	.cfi_def_cfa_offset 12
	str	r0, [sp, #4]
	str	r1, [sp]
.Ltmp426:
	.loc	1 973 7 prologue_end            @ rt-thread/components/dfs/filesystems/elmfat/ff.c:973:7
	ldr	r0, [sp]
	subs	r0, #2
	str	r0, [sp]
.Ltmp427:
	.loc	1 974 6                         @ rt-thread/components/dfs/filesystems/elmfat/ff.c:974:6
	ldr	r0, [sp]
	.loc	1 974 14 is_stmt 0              @ rt-thread/components/dfs/filesystems/elmfat/ff.c:974:14
	ldr	r1, [sp, #4]
	.loc	1 974 18                        @ rt-thread/components/dfs/filesystems/elmfat/ff.c:974:18
	ldr	r1, [r1, #24]
	.loc	1 974 27                        @ rt-thread/components/dfs/filesystems/elmfat/ff.c:974:27
	subs	r1, #2
.Ltmp428:
	.loc	1 974 6                         @ rt-thread/components/dfs/filesystems/elmfat/ff.c:974:6
	cmp	r0, r1
	blo	.LBB14_2
	b	.LBB14_1
.LBB14_1:
	.loc	1 0 6                           @ rt-thread/components/dfs/filesystems/elmfat/ff.c:0:6
	movs	r0, #0
.Ltmp429:
	.loc	1 974 32                        @ rt-thread/components/dfs/filesystems/elmfat/ff.c:974:32
	str	r0, [sp, #8]
	b	.LBB14_3
.Ltmp430:
.LBB14_2:
	.loc	1 975 9 is_stmt 1               @ rt-thread/components/dfs/filesystems/elmfat/ff.c:975:9
	ldr	r0, [sp]
	.loc	1 975 16 is_stmt 0              @ rt-thread/components/dfs/filesystems/elmfat/ff.c:975:16
	ldr	r2, [sp, #4]
	.loc	1 975 20                        @ rt-thread/components/dfs/filesystems/elmfat/ff.c:975:20
	ldrh	r1, [r2, #10]
	.loc	1 975 32                        @ rt-thread/components/dfs/filesystems/elmfat/ff.c:975:32
	ldr	r2, [r2, #44]
	.loc	1 975 26                        @ rt-thread/components/dfs/filesystems/elmfat/ff.c:975:26
	mla	r0, r0, r1, r2
	.loc	1 975 2                         @ rt-thread/components/dfs/filesystems/elmfat/ff.c:975:2
	str	r0, [sp, #8]
	b	.LBB14_3
.LBB14_3:
	.loc	1 976 1 is_stmt 1               @ rt-thread/components/dfs/filesystems/elmfat/ff.c:976:1
	ldr	r0, [sp, #8]
	add	sp, #12
	bx	lr
.Ltmp431:
.Lfunc_end14:
	.size	clust2sect, .Lfunc_end14-clust2sect
	.cfi_endproc
	.cantunwind
	.fnend
                                        @ -- End function
	.section	.text.f_read,"ax",%progbits
	.hidden	f_read                          @ -- Begin function f_read
	.globl	f_read
	.p2align	3
	.type	f_read,%function
	.code	16                              @ @f_read
	.thumb_func
f_read:
.Lfunc_begin15:
	.loc	1 3452 0                        @ rt-thread/components/dfs/filesystems/elmfat/ff.c:3452:0
	.fnstart
	.cfi_startproc
@ %bb.0:
	.save	{r7, lr}
	push	{r7, lr}
	.cfi_def_cfa_offset 8
	.cfi_offset lr, -4
	.cfi_offset r7, -8
	.pad	#56
	sub	sp, #56
	.cfi_def_cfa_offset 64
	str	r0, [sp, #48]
	str	r1, [sp, #44]
	str	r2, [sp, #40]
	str	r3, [sp, #36]
.Ltmp432:
	.loc	1 3458 23 prologue_end          @ rt-thread/components/dfs/filesystems/elmfat/ff.c:3458:23
	ldr	r0, [sp, #44]
	.loc	1 3458 8 is_stmt 0              @ rt-thread/components/dfs/filesystems/elmfat/ff.c:3458:8
	str	r0, [sp]
	.loc	1 3461 3 is_stmt 1              @ rt-thread/components/dfs/filesystems/elmfat/ff.c:3461:3
	ldr	r1, [sp, #36]
	movs	r0, #0
	.loc	1 3461 6 is_stmt 0              @ rt-thread/components/dfs/filesystems/elmfat/ff.c:3461:6
	str	r0, [r1]
	.loc	1 3462 18 is_stmt 1             @ rt-thread/components/dfs/filesystems/elmfat/ff.c:3462:18
	ldr	r0, [sp, #48]
	add	r1, sp, #28
	.loc	1 3462 8 is_stmt 0              @ rt-thread/components/dfs/filesystems/elmfat/ff.c:3462:8
	bl	validate
	.loc	1 3462 6                        @ rt-thread/components/dfs/filesystems/elmfat/ff.c:3462:6
	strb.w	r0, [sp, #35]
.Ltmp433:
	.loc	1 3463 6 is_stmt 1              @ rt-thread/components/dfs/filesystems/elmfat/ff.c:3463:6
	ldrb.w	r0, [sp, #35]
	.loc	1 3463 19 is_stmt 0             @ rt-thread/components/dfs/filesystems/elmfat/ff.c:3463:19
	cbnz	r0, .LBB15_2
	b	.LBB15_1
.LBB15_1:
	.loc	1 3463 38                       @ rt-thread/components/dfs/filesystems/elmfat/ff.c:3463:38
	ldr	r0, [sp, #48]
	.loc	1 3463 42                       @ rt-thread/components/dfs/filesystems/elmfat/ff.c:3463:42
	ldrb	r0, [r0, #17]
	.loc	1 3463 27                       @ rt-thread/components/dfs/filesystems/elmfat/ff.c:3463:27
	strb.w	r0, [sp, #35]
.Ltmp434:
	.loc	1 3463 6                        @ rt-thread/components/dfs/filesystems/elmfat/ff.c:3463:6
	cbz	r0, .LBB15_3
	b	.LBB15_2
.LBB15_2:
.Ltmp435:
	.loc	1 3463 57                       @ rt-thread/components/dfs/filesystems/elmfat/ff.c:3463:57
	ldrb.w	r0, [sp, #35]
	strb.w	r0, [sp, #55]
	b	.LBB15_47
.Ltmp436:
.LBB15_3:
	.loc	1 3464 8 is_stmt 1              @ rt-thread/components/dfs/filesystems/elmfat/ff.c:3464:8
	ldr	r0, [sp, #48]
	ldrb	r0, [r0, #16]
.Ltmp437:
	.loc	1 3464 6 is_stmt 0              @ rt-thread/components/dfs/filesystems/elmfat/ff.c:3464:6
	lsls	r0, r0, #31
	cbnz	r0, .LBB15_5
	b	.LBB15_4
.LBB15_4:
	.loc	1 0 6                           @ rt-thread/components/dfs/filesystems/elmfat/ff.c:0:6
	movs	r0, #7
.Ltmp438:
	.loc	1 3464 29                       @ rt-thread/components/dfs/filesystems/elmfat/ff.c:3464:29
	strb.w	r0, [sp, #55]
	b	.LBB15_47
.Ltmp439:
.LBB15_5:
	.loc	1 3465 11 is_stmt 1             @ rt-thread/components/dfs/filesystems/elmfat/ff.c:3465:11
	ldr	r1, [sp, #48]
	.loc	1 3465 19 is_stmt 0             @ rt-thread/components/dfs/filesystems/elmfat/ff.c:3465:19
	ldr	r0, [r1, #12]
	.loc	1 3465 33                       @ rt-thread/components/dfs/filesystems/elmfat/ff.c:3465:33
	ldr	r1, [r1, #20]
	.loc	1 3465 27                       @ rt-thread/components/dfs/filesystems/elmfat/ff.c:3465:27
	subs	r0, r0, r1
	.loc	1 3465 9                        @ rt-thread/components/dfs/filesystems/elmfat/ff.c:3465:9
	str	r0, [sp, #16]
.Ltmp440:
	.loc	1 3466 6 is_stmt 1              @ rt-thread/components/dfs/filesystems/elmfat/ff.c:3466:6
	ldr	r0, [sp, #40]
	.loc	1 3466 12 is_stmt 0             @ rt-thread/components/dfs/filesystems/elmfat/ff.c:3466:12
	ldr	r1, [sp, #16]
.Ltmp441:
	.loc	1 3466 6                        @ rt-thread/components/dfs/filesystems/elmfat/ff.c:3466:6
	cmp	r0, r1
	bls	.LBB15_7
	b	.LBB15_6
.LBB15_6:
.Ltmp442:
	.loc	1 3466 32                       @ rt-thread/components/dfs/filesystems/elmfat/ff.c:3466:32
	ldr	r0, [sp, #16]
	.loc	1 3466 24                       @ rt-thread/components/dfs/filesystems/elmfat/ff.c:3466:24
	str	r0, [sp, #40]
	.loc	1 3466 20                       @ rt-thread/components/dfs/filesystems/elmfat/ff.c:3466:20
	b	.LBB15_7
.Ltmp443:
.LBB15_7:
	.loc	1 3468 2 is_stmt 1              @ rt-thread/components/dfs/filesystems/elmfat/ff.c:3468:2
	b	.LBB15_8
.LBB15_8:                               @ =>This Inner Loop Header: Depth=1
.Ltmp444:
	.loc	1 3468 11 is_stmt 0             @ rt-thread/components/dfs/filesystems/elmfat/ff.c:3468:11
	ldr	r0, [sp, #40]
.Ltmp445:
	.loc	1 3468 2                        @ rt-thread/components/dfs/filesystems/elmfat/ff.c:3468:2
	cmp	r0, #0
	beq.w	.LBB15_46
	b	.LBB15_9
.LBB15_9:                               @   in Loop: Header=BB15_8 Depth=1
.Ltmp446:
	.loc	1 3470 7 is_stmt 1              @ rt-thread/components/dfs/filesystems/elmfat/ff.c:3470:7
	ldr	r0, [sp, #48]
.Ltmp447:
	.loc	1 3470 7 is_stmt 0              @ rt-thread/components/dfs/filesystems/elmfat/ff.c:3470:7
	ldrh	r0, [r0, #20]
	lsls	r0, r0, #23
	cmp	r0, #0
	bne.w	.LBB15_42
	b	.LBB15_10
.LBB15_10:                              @   in Loop: Header=BB15_8 Depth=1
.Ltmp448:
	.loc	1 3471 19 is_stmt 1             @ rt-thread/components/dfs/filesystems/elmfat/ff.c:3471:19
	ldr	r0, [sp, #48]
	.loc	1 3471 23 is_stmt 0             @ rt-thread/components/dfs/filesystems/elmfat/ff.c:3471:23
	ldr	r1, [r0, #20]
	.loc	1 3471 40                       @ rt-thread/components/dfs/filesystems/elmfat/ff.c:3471:40
	ldr	r0, [sp, #28]
	.loc	1 3471 44                       @ rt-thread/components/dfs/filesystems/elmfat/ff.c:3471:44
	ldrh	r0, [r0, #10]
	.loc	1 3471 50                       @ rt-thread/components/dfs/filesystems/elmfat/ff.c:3471:50
	subs	r0, #1
	.loc	1 3471 37                       @ rt-thread/components/dfs/filesystems/elmfat/ff.c:3471:37
	and.w	r0, r0, r1, lsr #9
	.loc	1 3471 10                       @ rt-thread/components/dfs/filesystems/elmfat/ff.c:3471:10
	str	r0, [sp, #4]
.Ltmp449:
	.loc	1 3472 8 is_stmt 1              @ rt-thread/components/dfs/filesystems/elmfat/ff.c:3472:8
	ldr	r0, [sp, #4]
.Ltmp450:
	.loc	1 3472 8 is_stmt 0              @ rt-thread/components/dfs/filesystems/elmfat/ff.c:3472:8
	cbnz	r0, .LBB15_22
	b	.LBB15_11
.LBB15_11:                              @   in Loop: Header=BB15_8 Depth=1
.Ltmp451:
	.loc	1 3473 9 is_stmt 1              @ rt-thread/components/dfs/filesystems/elmfat/ff.c:3473:9
	ldr	r0, [sp, #48]
	.loc	1 3473 13 is_stmt 0             @ rt-thread/components/dfs/filesystems/elmfat/ff.c:3473:13
	ldr	r0, [r0, #20]
.Ltmp452:
	.loc	1 3473 9                        @ rt-thread/components/dfs/filesystems/elmfat/ff.c:3473:9
	cbnz	r0, .LBB15_13
	b	.LBB15_12
.LBB15_12:                              @   in Loop: Header=BB15_8 Depth=1
.Ltmp453:
	.loc	1 3474 13 is_stmt 1             @ rt-thread/components/dfs/filesystems/elmfat/ff.c:3474:13
	ldr	r0, [sp, #48]
	.loc	1 3474 21 is_stmt 0             @ rt-thread/components/dfs/filesystems/elmfat/ff.c:3474:21
	ldr	r0, [r0, #8]
	.loc	1 3474 11                       @ rt-thread/components/dfs/filesystems/elmfat/ff.c:3474:11
	str	r0, [sp, #24]
	.loc	1 3475 5 is_stmt 1              @ rt-thread/components/dfs/filesystems/elmfat/ff.c:3475:5
	b	.LBB15_17
.Ltmp454:
.LBB15_13:                              @   in Loop: Header=BB15_8 Depth=1
	.loc	1 3477 10                       @ rt-thread/components/dfs/filesystems/elmfat/ff.c:3477:10
	ldr	r0, [sp, #48]
	.loc	1 3477 14 is_stmt 0             @ rt-thread/components/dfs/filesystems/elmfat/ff.c:3477:14
	ldr	r0, [r0, #40]
.Ltmp455:
	.loc	1 3477 10                       @ rt-thread/components/dfs/filesystems/elmfat/ff.c:3477:10
	cbz	r0, .LBB15_15
	b	.LBB15_14
.LBB15_14:                              @   in Loop: Header=BB15_8 Depth=1
.Ltmp456:
	.loc	1 3478 25 is_stmt 1             @ rt-thread/components/dfs/filesystems/elmfat/ff.c:3478:25
	ldr	r0, [sp, #48]
	.loc	1 3478 33 is_stmt 0             @ rt-thread/components/dfs/filesystems/elmfat/ff.c:3478:33
	ldr	r1, [r0, #20]
	.loc	1 3478 14                       @ rt-thread/components/dfs/filesystems/elmfat/ff.c:3478:14
	bl	clmt_clust
	.loc	1 3478 12                       @ rt-thread/components/dfs/filesystems/elmfat/ff.c:3478:12
	str	r0, [sp, #24]
	.loc	1 3479 6 is_stmt 1              @ rt-thread/components/dfs/filesystems/elmfat/ff.c:3479:6
	b	.LBB15_16
.Ltmp457:
.LBB15_15:                              @   in Loop: Header=BB15_8 Depth=1
	.loc	1 3482 23                       @ rt-thread/components/dfs/filesystems/elmfat/ff.c:3482:23
	ldr	r0, [sp, #48]
	.loc	1 3482 36 is_stmt 0             @ rt-thread/components/dfs/filesystems/elmfat/ff.c:3482:36
	ldr	r1, [r0, #24]
	.loc	1 3482 14                       @ rt-thread/components/dfs/filesystems/elmfat/ff.c:3482:14
	bl	get_fat
	.loc	1 3482 12                       @ rt-thread/components/dfs/filesystems/elmfat/ff.c:3482:12
	str	r0, [sp, #24]
	b	.LBB15_16
.Ltmp458:
.LBB15_16:                              @   in Loop: Header=BB15_8 Depth=1
	.loc	1 0 12                          @ rt-thread/components/dfs/filesystems/elmfat/ff.c:0:12
	b	.LBB15_17
.LBB15_17:                              @   in Loop: Header=BB15_8 Depth=1
.Ltmp459:
	.loc	1 3485 9 is_stmt 1              @ rt-thread/components/dfs/filesystems/elmfat/ff.c:3485:9
	ldr	r0, [sp, #24]
.Ltmp460:
	.loc	1 3485 9 is_stmt 0              @ rt-thread/components/dfs/filesystems/elmfat/ff.c:3485:9
	cmp	r0, #1
	bhi	.LBB15_19
	b	.LBB15_18
.LBB15_18:
.Ltmp461:
	.loc	1 3485 19                       @ rt-thread/components/dfs/filesystems/elmfat/ff.c:3485:19
	ldr	r1, [sp, #48]
	movs	r0, #2
	strb	r0, [r1, #17]
	strb.w	r0, [sp, #55]
	b	.LBB15_47
.Ltmp462:
.LBB15_19:                              @   in Loop: Header=BB15_8 Depth=1
	.loc	1 3486 9 is_stmt 1              @ rt-thread/components/dfs/filesystems/elmfat/ff.c:3486:9
	ldr	r0, [sp, #24]
.Ltmp463:
	.loc	1 3486 9 is_stmt 0              @ rt-thread/components/dfs/filesystems/elmfat/ff.c:3486:9
	adds	r0, #1
	cbnz	r0, .LBB15_21
	b	.LBB15_20
.LBB15_20:
.Ltmp464:
	.loc	1 3486 29                       @ rt-thread/components/dfs/filesystems/elmfat/ff.c:3486:29
	ldr	r1, [sp, #48]
	movs	r0, #1
	strb	r0, [r1, #17]
	strb.w	r0, [sp, #55]
	b	.LBB15_47
.Ltmp465:
.LBB15_21:                              @   in Loop: Header=BB15_8 Depth=1
	.loc	1 3487 17 is_stmt 1             @ rt-thread/components/dfs/filesystems/elmfat/ff.c:3487:17
	ldr	r0, [sp, #24]
	.loc	1 3487 5 is_stmt 0              @ rt-thread/components/dfs/filesystems/elmfat/ff.c:3487:5
	ldr	r1, [sp, #48]
	.loc	1 3487 15                       @ rt-thread/components/dfs/filesystems/elmfat/ff.c:3487:15
	str	r0, [r1, #24]
	.loc	1 3488 4 is_stmt 1              @ rt-thread/components/dfs/filesystems/elmfat/ff.c:3488:4
	b	.LBB15_22
.Ltmp466:
.LBB15_22:                              @   in Loop: Header=BB15_8 Depth=1
	.loc	1 3489 22                       @ rt-thread/components/dfs/filesystems/elmfat/ff.c:3489:22
	ldr	r0, [sp, #28]
	.loc	1 3489 26 is_stmt 0             @ rt-thread/components/dfs/filesystems/elmfat/ff.c:3489:26
	ldr	r1, [sp, #48]
	.loc	1 3489 30                       @ rt-thread/components/dfs/filesystems/elmfat/ff.c:3489:30
	ldr	r1, [r1, #24]
	.loc	1 3489 11                       @ rt-thread/components/dfs/filesystems/elmfat/ff.c:3489:11
	bl	clust2sect
	.loc	1 3489 9                        @ rt-thread/components/dfs/filesystems/elmfat/ff.c:3489:9
	str	r0, [sp, #20]
.Ltmp467:
	.loc	1 3490 9 is_stmt 1              @ rt-thread/components/dfs/filesystems/elmfat/ff.c:3490:9
	ldr	r0, [sp, #20]
.Ltmp468:
	.loc	1 3490 8 is_stmt 0              @ rt-thread/components/dfs/filesystems/elmfat/ff.c:3490:8
	cbnz	r0, .LBB15_24
	b	.LBB15_23
.LBB15_23:
.Ltmp469:
	.loc	1 3490 15                       @ rt-thread/components/dfs/filesystems/elmfat/ff.c:3490:15
	ldr	r1, [sp, #48]
	movs	r0, #2
	strb	r0, [r1, #17]
	strb.w	r0, [sp, #55]
	b	.LBB15_47
.Ltmp470:
.LBB15_24:                              @   in Loop: Header=BB15_8 Depth=1
	.loc	1 3491 12 is_stmt 1             @ rt-thread/components/dfs/filesystems/elmfat/ff.c:3491:12
	ldr	r1, [sp, #4]
	.loc	1 3491 9 is_stmt 0              @ rt-thread/components/dfs/filesystems/elmfat/ff.c:3491:9
	ldr	r0, [sp, #20]
	add	r0, r1
	str	r0, [sp, #20]
	.loc	1 3492 9 is_stmt 1              @ rt-thread/components/dfs/filesystems/elmfat/ff.c:3492:9
	ldr	r0, [sp, #40]
	.loc	1 3492 13 is_stmt 0             @ rt-thread/components/dfs/filesystems/elmfat/ff.c:3492:13
	lsrs	r0, r0, #9
	.loc	1 3492 7                        @ rt-thread/components/dfs/filesystems/elmfat/ff.c:3492:7
	str	r0, [sp, #8]
.Ltmp471:
	.loc	1 3493 8 is_stmt 1              @ rt-thread/components/dfs/filesystems/elmfat/ff.c:3493:8
	ldr	r0, [sp, #8]
.Ltmp472:
	.loc	1 3493 8 is_stmt 0              @ rt-thread/components/dfs/filesystems/elmfat/ff.c:3493:8
	cbz	r0, .LBB15_33
	b	.LBB15_25
.LBB15_25:                              @   in Loop: Header=BB15_8 Depth=1
.Ltmp473:
	.loc	1 3494 9 is_stmt 1              @ rt-thread/components/dfs/filesystems/elmfat/ff.c:3494:9
	ldr	r0, [sp, #4]
	.loc	1 3494 17 is_stmt 0             @ rt-thread/components/dfs/filesystems/elmfat/ff.c:3494:17
	ldr	r1, [sp, #8]
	.loc	1 3494 15                       @ rt-thread/components/dfs/filesystems/elmfat/ff.c:3494:15
	add	r0, r1
	.loc	1 3494 22                       @ rt-thread/components/dfs/filesystems/elmfat/ff.c:3494:22
	ldr	r1, [sp, #28]
	.loc	1 3494 26                       @ rt-thread/components/dfs/filesystems/elmfat/ff.c:3494:26
	ldrh	r1, [r1, #10]
.Ltmp474:
	.loc	1 3494 9                        @ rt-thread/components/dfs/filesystems/elmfat/ff.c:3494:9
	cmp	r0, r1
	bls	.LBB15_27
	b	.LBB15_26
.LBB15_26:                              @   in Loop: Header=BB15_8 Depth=1
.Ltmp475:
	.loc	1 3495 11 is_stmt 1             @ rt-thread/components/dfs/filesystems/elmfat/ff.c:3495:11
	ldr	r0, [sp, #28]
	.loc	1 3495 15 is_stmt 0             @ rt-thread/components/dfs/filesystems/elmfat/ff.c:3495:15
	ldrh	r0, [r0, #10]
	.loc	1 3495 23                       @ rt-thread/components/dfs/filesystems/elmfat/ff.c:3495:23
	ldr	r1, [sp, #4]
	.loc	1 3495 21                       @ rt-thread/components/dfs/filesystems/elmfat/ff.c:3495:21
	subs	r0, r0, r1
	.loc	1 3495 9                        @ rt-thread/components/dfs/filesystems/elmfat/ff.c:3495:9
	str	r0, [sp, #8]
	.loc	1 3496 5 is_stmt 1              @ rt-thread/components/dfs/filesystems/elmfat/ff.c:3496:5
	b	.LBB15_27
.Ltmp476:
.LBB15_27:                              @   in Loop: Header=BB15_8 Depth=1
	.loc	1 3497 19                       @ rt-thread/components/dfs/filesystems/elmfat/ff.c:3497:19
	ldr	r0, [sp, #28]
	.loc	1 3497 23 is_stmt 0             @ rt-thread/components/dfs/filesystems/elmfat/ff.c:3497:23
	ldrb	r0, [r0, #1]
	.loc	1 3497 28                       @ rt-thread/components/dfs/filesystems/elmfat/ff.c:3497:28
	ldr	r1, [sp]
	.loc	1 3497 35                       @ rt-thread/components/dfs/filesystems/elmfat/ff.c:3497:35
	ldr	r2, [sp, #20]
	.loc	1 3497 41                       @ rt-thread/components/dfs/filesystems/elmfat/ff.c:3497:41
	ldr	r3, [sp, #8]
	.loc	1 3497 9                        @ rt-thread/components/dfs/filesystems/elmfat/ff.c:3497:9
	bl	disk_read
.Ltmp477:
	.loc	1 3497 9                        @ rt-thread/components/dfs/filesystems/elmfat/ff.c:3497:9
	cbz	r0, .LBB15_29
	b	.LBB15_28
.LBB15_28:
.Ltmp478:
	.loc	1 3497 56                       @ rt-thread/components/dfs/filesystems/elmfat/ff.c:3497:56
	ldr	r1, [sp, #48]
	movs	r0, #1
	strb	r0, [r1, #17]
	strb.w	r0, [sp, #55]
	b	.LBB15_47
.Ltmp479:
.LBB15_29:                              @   in Loop: Header=BB15_8 Depth=1
	.loc	1 3504 10 is_stmt 1             @ rt-thread/components/dfs/filesystems/elmfat/ff.c:3504:10
	ldr	r0, [sp, #48]
	ldrb	r0, [r0, #16]
	.loc	1 3504 31 is_stmt 0             @ rt-thread/components/dfs/filesystems/elmfat/ff.c:3504:31
	lsls	r0, r0, #24
	cmp	r0, #0
	bpl	.LBB15_32
	b	.LBB15_30
.LBB15_30:                              @   in Loop: Header=BB15_8 Depth=1
	.loc	1 3504 34                       @ rt-thread/components/dfs/filesystems/elmfat/ff.c:3504:34
	ldr	r0, [sp, #48]
	.loc	1 3504 38                       @ rt-thread/components/dfs/filesystems/elmfat/ff.c:3504:38
	ldr	r0, [r0, #28]
	.loc	1 3504 45                       @ rt-thread/components/dfs/filesystems/elmfat/ff.c:3504:45
	ldr	r1, [sp, #20]
	.loc	1 3504 43                       @ rt-thread/components/dfs/filesystems/elmfat/ff.c:3504:43
	subs	r0, r0, r1
	.loc	1 3504 52                       @ rt-thread/components/dfs/filesystems/elmfat/ff.c:3504:52
	ldr	r1, [sp, #8]
.Ltmp480:
	.loc	1 3504 9                        @ rt-thread/components/dfs/filesystems/elmfat/ff.c:3504:9
	cmp	r0, r1
	bhs	.LBB15_32
	b	.LBB15_31
.LBB15_31:                              @   in Loop: Header=BB15_8 Depth=1
.Ltmp481:
	.loc	1 3505 14 is_stmt 1             @ rt-thread/components/dfs/filesystems/elmfat/ff.c:3505:14
	ldr	r0, [sp]
	.loc	1 3505 24 is_stmt 0             @ rt-thread/components/dfs/filesystems/elmfat/ff.c:3505:24
	ldr	r1, [sp, #48]
	.loc	1 3505 28                       @ rt-thread/components/dfs/filesystems/elmfat/ff.c:3505:28
	ldr	r2, [r1, #28]
	.loc	1 3505 35                       @ rt-thread/components/dfs/filesystems/elmfat/ff.c:3505:35
	ldr	r3, [sp, #20]
	.loc	1 3505 33                       @ rt-thread/components/dfs/filesystems/elmfat/ff.c:3505:33
	subs	r2, r2, r3
	.loc	1 3505 20                       @ rt-thread/components/dfs/filesystems/elmfat/ff.c:3505:20
	add.w	r0, r0, r2, lsl #9
	.loc	1 3505 56                       @ rt-thread/components/dfs/filesystems/elmfat/ff.c:3505:56
	adds	r1, #44
	mov.w	r2, #512
	.loc	1 3505 6                        @ rt-thread/components/dfs/filesystems/elmfat/ff.c:3505:6
	bl	mem_cpy
	.loc	1 3506 5 is_stmt 1              @ rt-thread/components/dfs/filesystems/elmfat/ff.c:3506:5
	b	.LBB15_32
.Ltmp482:
.LBB15_32:                              @   in Loop: Header=BB15_8 Depth=1
	.loc	1 3509 21                       @ rt-thread/components/dfs/filesystems/elmfat/ff.c:3509:21
	ldr	r0, [sp, #8]
	.loc	1 3509 19 is_stmt 0             @ rt-thread/components/dfs/filesystems/elmfat/ff.c:3509:19
	lsls	r0, r0, #9
	.loc	1 3509 10                       @ rt-thread/components/dfs/filesystems/elmfat/ff.c:3509:10
	str	r0, [sp, #12]
	.loc	1 3510 5 is_stmt 1              @ rt-thread/components/dfs/filesystems/elmfat/ff.c:3510:5
	b	.LBB15_45
.Ltmp483:
.LBB15_33:                              @   in Loop: Header=BB15_8 Depth=1
	.loc	1 3513 8                        @ rt-thread/components/dfs/filesystems/elmfat/ff.c:3513:8
	ldr	r0, [sp, #48]
	.loc	1 3513 12 is_stmt 0             @ rt-thread/components/dfs/filesystems/elmfat/ff.c:3513:12
	ldr	r0, [r0, #28]
	.loc	1 3513 20                       @ rt-thread/components/dfs/filesystems/elmfat/ff.c:3513:20
	ldr	r1, [sp, #20]
.Ltmp484:
	.loc	1 3513 8                        @ rt-thread/components/dfs/filesystems/elmfat/ff.c:3513:8
	cmp	r0, r1
	beq	.LBB15_41
	b	.LBB15_34
.LBB15_34:                              @   in Loop: Header=BB15_8 Depth=1
.Ltmp485:
	.loc	1 3515 9 is_stmt 1              @ rt-thread/components/dfs/filesystems/elmfat/ff.c:3515:9
	ldr	r0, [sp, #48]
	ldrb	r0, [r0, #16]
.Ltmp486:
	.loc	1 3515 9 is_stmt 0              @ rt-thread/components/dfs/filesystems/elmfat/ff.c:3515:9
	lsls	r0, r0, #24
	cmp	r0, #0
	bpl	.LBB15_38
	b	.LBB15_35
.LBB15_35:                              @   in Loop: Header=BB15_8 Depth=1
.Ltmp487:
	.loc	1 3516 21 is_stmt 1             @ rt-thread/components/dfs/filesystems/elmfat/ff.c:3516:21
	ldr	r0, [sp, #28]
	.loc	1 3516 25 is_stmt 0             @ rt-thread/components/dfs/filesystems/elmfat/ff.c:3516:25
	ldrb	r0, [r0, #1]
	.loc	1 3516 30                       @ rt-thread/components/dfs/filesystems/elmfat/ff.c:3516:30
	ldr	r2, [sp, #48]
	.loc	1 3516 34                       @ rt-thread/components/dfs/filesystems/elmfat/ff.c:3516:34
	add.w	r1, r2, #44
	.loc	1 3516 43                       @ rt-thread/components/dfs/filesystems/elmfat/ff.c:3516:43
	ldr	r2, [r2, #28]
	movs	r3, #1
	.loc	1 3516 10                       @ rt-thread/components/dfs/filesystems/elmfat/ff.c:3516:10
	bl	disk_write
.Ltmp488:
	.loc	1 3516 10                       @ rt-thread/components/dfs/filesystems/elmfat/ff.c:3516:10
	cbz	r0, .LBB15_37
	b	.LBB15_36
.LBB15_36:
.Ltmp489:
	.loc	1 3516 63                       @ rt-thread/components/dfs/filesystems/elmfat/ff.c:3516:63
	ldr	r1, [sp, #48]
	movs	r0, #1
	strb	r0, [r1, #17]
	strb.w	r0, [sp, #55]
	b	.LBB15_47
.Ltmp490:
.LBB15_37:                              @   in Loop: Header=BB15_8 Depth=1
	.loc	1 3517 6 is_stmt 1              @ rt-thread/components/dfs/filesystems/elmfat/ff.c:3517:6
	ldr	r1, [sp, #48]
	.loc	1 3517 15 is_stmt 0             @ rt-thread/components/dfs/filesystems/elmfat/ff.c:3517:15
	ldrb	r0, [r1, #16]
	and	r0, r0, #127
	strb	r0, [r1, #16]
	.loc	1 3518 5 is_stmt 1              @ rt-thread/components/dfs/filesystems/elmfat/ff.c:3518:5
	b	.LBB15_38
.Ltmp491:
.LBB15_38:                              @   in Loop: Header=BB15_8 Depth=1
	.loc	1 3520 19                       @ rt-thread/components/dfs/filesystems/elmfat/ff.c:3520:19
	ldr	r0, [sp, #28]
	.loc	1 3520 23 is_stmt 0             @ rt-thread/components/dfs/filesystems/elmfat/ff.c:3520:23
	ldrb	r0, [r0, #1]
	.loc	1 3520 28                       @ rt-thread/components/dfs/filesystems/elmfat/ff.c:3520:28
	ldr	r1, [sp, #48]
	.loc	1 3520 32                       @ rt-thread/components/dfs/filesystems/elmfat/ff.c:3520:32
	adds	r1, #44
	.loc	1 3520 37                       @ rt-thread/components/dfs/filesystems/elmfat/ff.c:3520:37
	ldr	r2, [sp, #20]
	movs	r3, #1
	.loc	1 3520 9                        @ rt-thread/components/dfs/filesystems/elmfat/ff.c:3520:9
	bl	disk_read
.Ltmp492:
	.loc	1 3520 9                        @ rt-thread/components/dfs/filesystems/elmfat/ff.c:3520:9
	cbz	r0, .LBB15_40
	b	.LBB15_39
.LBB15_39:
.Ltmp493:
	.loc	1 3520 57                       @ rt-thread/components/dfs/filesystems/elmfat/ff.c:3520:57
	ldr	r1, [sp, #48]
	movs	r0, #1
	strb	r0, [r1, #17]
	strb.w	r0, [sp, #55]
	b	.LBB15_47
.Ltmp494:
.LBB15_40:                              @   in Loop: Header=BB15_8 Depth=1
	.loc	1 3521 4 is_stmt 1              @ rt-thread/components/dfs/filesystems/elmfat/ff.c:3521:4
	b	.LBB15_41
.Ltmp495:
.LBB15_41:                              @   in Loop: Header=BB15_8 Depth=1
	.loc	1 3523 15                       @ rt-thread/components/dfs/filesystems/elmfat/ff.c:3523:15
	ldr	r0, [sp, #20]
	.loc	1 3523 4 is_stmt 0              @ rt-thread/components/dfs/filesystems/elmfat/ff.c:3523:4
	ldr	r1, [sp, #48]
	.loc	1 3523 13                       @ rt-thread/components/dfs/filesystems/elmfat/ff.c:3523:13
	str	r0, [r1, #28]
	.loc	1 3524 3 is_stmt 1              @ rt-thread/components/dfs/filesystems/elmfat/ff.c:3524:3
	b	.LBB15_42
.Ltmp496:
.LBB15_42:                              @   in Loop: Header=BB15_8 Depth=1
	.loc	1 3525 25                       @ rt-thread/components/dfs/filesystems/elmfat/ff.c:3525:25
	ldr	r0, [sp, #48]
	.loc	1 3525 29 is_stmt 0             @ rt-thread/components/dfs/filesystems/elmfat/ff.c:3525:29
	ldr	r0, [r0, #20]
	.loc	1 3525 34                       @ rt-thread/components/dfs/filesystems/elmfat/ff.c:3525:34
	bfc	r0, #9, #23
	.loc	1 3525 17                       @ rt-thread/components/dfs/filesystems/elmfat/ff.c:3525:17
	rsb.w	r0, r0, #512
	.loc	1 3525 8                        @ rt-thread/components/dfs/filesystems/elmfat/ff.c:3525:8
	str	r0, [sp, #12]
.Ltmp497:
	.loc	1 3526 7 is_stmt 1              @ rt-thread/components/dfs/filesystems/elmfat/ff.c:3526:7
	ldr	r0, [sp, #12]
	.loc	1 3526 14 is_stmt 0             @ rt-thread/components/dfs/filesystems/elmfat/ff.c:3526:14
	ldr	r1, [sp, #40]
.Ltmp498:
	.loc	1 3526 7                        @ rt-thread/components/dfs/filesystems/elmfat/ff.c:3526:7
	cmp	r0, r1
	bls	.LBB15_44
	b	.LBB15_43
.LBB15_43:                              @   in Loop: Header=BB15_8 Depth=1
.Ltmp499:
	.loc	1 3526 26                       @ rt-thread/components/dfs/filesystems/elmfat/ff.c:3526:26
	ldr	r0, [sp, #40]
	.loc	1 3526 24                       @ rt-thread/components/dfs/filesystems/elmfat/ff.c:3526:24
	str	r0, [sp, #12]
	.loc	1 3526 19                       @ rt-thread/components/dfs/filesystems/elmfat/ff.c:3526:19
	b	.LBB15_44
.Ltmp500:
.LBB15_44:                              @   in Loop: Header=BB15_8 Depth=1
	.loc	1 3531 11 is_stmt 1             @ rt-thread/components/dfs/filesystems/elmfat/ff.c:3531:11
	ldr	r0, [sp]
	.loc	1 3531 18 is_stmt 0             @ rt-thread/components/dfs/filesystems/elmfat/ff.c:3531:18
	ldr	r1, [sp, #48]
	.loc	1 3531 32                       @ rt-thread/components/dfs/filesystems/elmfat/ff.c:3531:32
	ldr	r2, [r1, #20]
	.loc	1 3531 37                       @ rt-thread/components/dfs/filesystems/elmfat/ff.c:3531:37
	bfc	r2, #9, #23
	.loc	1 3531 22                       @ rt-thread/components/dfs/filesystems/elmfat/ff.c:3531:22
	add	r1, r2
	.loc	1 3531 26                       @ rt-thread/components/dfs/filesystems/elmfat/ff.c:3531:26
	adds	r1, #44
	.loc	1 3531 47                       @ rt-thread/components/dfs/filesystems/elmfat/ff.c:3531:47
	ldr	r2, [sp, #12]
	.loc	1 3531 3                        @ rt-thread/components/dfs/filesystems/elmfat/ff.c:3531:3
	bl	mem_cpy
	.loc	1 3533 2 is_stmt 1              @ rt-thread/components/dfs/filesystems/elmfat/ff.c:3533:2
	b	.LBB15_45
.Ltmp501:
.LBB15_45:                              @   in Loop: Header=BB15_8 Depth=1
	.loc	1 3469 12                       @ rt-thread/components/dfs/filesystems/elmfat/ff.c:3469:12
	ldr	r1, [sp, #12]
	.loc	1 3469 9 is_stmt 0              @ rt-thread/components/dfs/filesystems/elmfat/ff.c:3469:9
	ldr	r0, [sp]
	add	r0, r1
	str	r0, [sp]
	.loc	1 3469 30                       @ rt-thread/components/dfs/filesystems/elmfat/ff.c:3469:30
	ldr	r2, [sp, #12]
	.loc	1 3469 18                       @ rt-thread/components/dfs/filesystems/elmfat/ff.c:3469:18
	ldr	r1, [sp, #48]
	.loc	1 3469 27                       @ rt-thread/components/dfs/filesystems/elmfat/ff.c:3469:27
	ldr	r0, [r1, #20]
	add	r0, r2
	str	r0, [r1, #20]
	.loc	1 3469 43                       @ rt-thread/components/dfs/filesystems/elmfat/ff.c:3469:43
	ldr	r2, [sp, #12]
	.loc	1 3469 37                       @ rt-thread/components/dfs/filesystems/elmfat/ff.c:3469:37
	ldr	r1, [sp, #36]
	.loc	1 3469 40                       @ rt-thread/components/dfs/filesystems/elmfat/ff.c:3469:40
	ldr	r0, [r1]
	add	r0, r2
	str	r0, [r1]
	.loc	1 3469 56                       @ rt-thread/components/dfs/filesystems/elmfat/ff.c:3469:56
	ldr	r1, [sp, #12]
	.loc	1 3469 53                       @ rt-thread/components/dfs/filesystems/elmfat/ff.c:3469:53
	ldr	r0, [sp, #40]
	subs	r0, r0, r1
	str	r0, [sp, #40]
	.loc	1 3468 2 is_stmt 1              @ rt-thread/components/dfs/filesystems/elmfat/ff.c:3468:2
	b	.LBB15_8
.Ltmp502:
.LBB15_46:
	.loc	1 0 2 is_stmt 0                 @ rt-thread/components/dfs/filesystems/elmfat/ff.c:0:2
	movs	r0, #0
	.loc	1 3535 2 is_stmt 1              @ rt-thread/components/dfs/filesystems/elmfat/ff.c:3535:2
	strb.w	r0, [sp, #55]
	b	.LBB15_47
.LBB15_47:
	.loc	1 3536 1                        @ rt-thread/components/dfs/filesystems/elmfat/ff.c:3536:1
	ldrb.w	r0, [sp, #55]
	add	sp, #56
	pop	{r7, pc}
.Ltmp503:
.Lfunc_end15:
	.size	f_read, .Lfunc_end15-f_read
	.cfi_endproc
	.cantunwind
	.fnend
                                        @ -- End function
	.section	.text.validate,"ax",%progbits
	.p2align	3                               @ -- Begin function validate
	.type	validate,%function
	.code	16                              @ @validate
	.thumb_func
validate:
.Lfunc_begin16:
	.loc	1 3167 0                        @ rt-thread/components/dfs/filesystems/elmfat/ff.c:3167:0
	.fnstart
	.cfi_startproc
@ %bb.0:
	.save	{r7, lr}
	push	{r7, lr}
	.cfi_def_cfa_offset 8
	.cfi_offset lr, -4
	.cfi_offset r7, -8
	.pad	#16
	sub	sp, #16
	.cfi_def_cfa_offset 24
	str	r0, [sp, #12]
	str	r1, [sp, #8]
.Ltmp504:
	.loc	1 3171 7 prologue_end           @ rt-thread/components/dfs/filesystems/elmfat/ff.c:3171:7
	ldr	r0, [sp, #12]
	.loc	1 3171 11 is_stmt 0             @ rt-thread/components/dfs/filesystems/elmfat/ff.c:3171:11
	cbz	r0, .LBB16_5
	b	.LBB16_1
.LBB16_1:
	.loc	1 3171 15                       @ rt-thread/components/dfs/filesystems/elmfat/ff.c:3171:15
	ldr	r0, [sp, #12]
	.loc	1 3171 20                       @ rt-thread/components/dfs/filesystems/elmfat/ff.c:3171:20
	ldr	r0, [r0]
	.loc	1 3171 23                       @ rt-thread/components/dfs/filesystems/elmfat/ff.c:3171:23
	cbz	r0, .LBB16_5
	b	.LBB16_2
.LBB16_2:
	.loc	1 3171 27                       @ rt-thread/components/dfs/filesystems/elmfat/ff.c:3171:27
	ldr	r0, [sp, #12]
	.loc	1 3171 32                       @ rt-thread/components/dfs/filesystems/elmfat/ff.c:3171:32
	ldr	r0, [r0]
	.loc	1 3171 36                       @ rt-thread/components/dfs/filesystems/elmfat/ff.c:3171:36
	ldrb	r0, [r0]
	.loc	1 3171 44                       @ rt-thread/components/dfs/filesystems/elmfat/ff.c:3171:44
	cbz	r0, .LBB16_5
	b	.LBB16_3
.LBB16_3:
	.loc	1 3171 47                       @ rt-thread/components/dfs/filesystems/elmfat/ff.c:3171:47
	ldr	r1, [sp, #12]
	.loc	1 3171 52                       @ rt-thread/components/dfs/filesystems/elmfat/ff.c:3171:52
	ldr	r0, [r1]
	.loc	1 3171 56                       @ rt-thread/components/dfs/filesystems/elmfat/ff.c:3171:56
	ldrh	r0, [r0, #6]
	.loc	1 3171 67                       @ rt-thread/components/dfs/filesystems/elmfat/ff.c:3171:67
	ldrh	r1, [r1, #4]
	.loc	1 3171 70                       @ rt-thread/components/dfs/filesystems/elmfat/ff.c:3171:70
	cmp	r0, r1
	bne	.LBB16_5
	b	.LBB16_4
.LBB16_4:
	.loc	1 3171 86                       @ rt-thread/components/dfs/filesystems/elmfat/ff.c:3171:86
	ldr	r0, [sp, #12]
	.loc	1 3171 91                       @ rt-thread/components/dfs/filesystems/elmfat/ff.c:3171:91
	ldr	r0, [r0]
	.loc	1 3171 95                       @ rt-thread/components/dfs/filesystems/elmfat/ff.c:3171:95
	ldrb	r0, [r0, #1]
	.loc	1 3171 74                       @ rt-thread/components/dfs/filesystems/elmfat/ff.c:3171:74
	bl	disk_status
.Ltmp505:
	.loc	1 3171 6                        @ rt-thread/components/dfs/filesystems/elmfat/ff.c:3171:6
	lsls	r0, r0, #31
	cbz	r0, .LBB16_6
	b	.LBB16_5
.LBB16_5:
.Ltmp506:
	.loc	1 3172 4 is_stmt 1              @ rt-thread/components/dfs/filesystems/elmfat/ff.c:3172:4
	ldr	r1, [sp, #8]
	movs	r0, #0
	.loc	1 3172 7 is_stmt 0              @ rt-thread/components/dfs/filesystems/elmfat/ff.c:3172:7
	str	r0, [r1]
	movs	r0, #9
	.loc	1 3173 7 is_stmt 1              @ rt-thread/components/dfs/filesystems/elmfat/ff.c:3173:7
	strb.w	r0, [sp, #7]
	.loc	1 3174 2                        @ rt-thread/components/dfs/filesystems/elmfat/ff.c:3174:2
	b	.LBB16_7
.Ltmp507:
.LBB16_6:
	.loc	1 3175 9                        @ rt-thread/components/dfs/filesystems/elmfat/ff.c:3175:9
	ldr	r0, [sp, #12]
	.loc	1 3175 14 is_stmt 0             @ rt-thread/components/dfs/filesystems/elmfat/ff.c:3175:14
	ldr	r0, [r0]
	.loc	1 3175 4                        @ rt-thread/components/dfs/filesystems/elmfat/ff.c:3175:4
	ldr	r1, [sp, #8]
	.loc	1 3175 7                        @ rt-thread/components/dfs/filesystems/elmfat/ff.c:3175:7
	str	r0, [r1]
	movs	r0, #0
	.loc	1 3177 7 is_stmt 1              @ rt-thread/components/dfs/filesystems/elmfat/ff.c:3177:7
	strb.w	r0, [sp, #7]
	b	.LBB16_7
.Ltmp508:
.LBB16_7:
	.loc	1 3179 9                        @ rt-thread/components/dfs/filesystems/elmfat/ff.c:3179:9
	ldrb.w	r0, [sp, #7]
	.loc	1 3179 2 is_stmt 0              @ rt-thread/components/dfs/filesystems/elmfat/ff.c:3179:2
	add	sp, #16
	pop	{r7, pc}
.Ltmp509:
.Lfunc_end16:
	.size	validate, .Lfunc_end16-validate
	.cfi_endproc
	.cantunwind
	.fnend
                                        @ -- End function
	.section	.text.clmt_clust,"ax",%progbits
	.p2align	3                               @ -- Begin function clmt_clust
	.type	clmt_clust,%function
	.code	16                              @ @clmt_clust
	.thumb_func
clmt_clust:
.Lfunc_begin17:
	.loc	1 1401 0 is_stmt 1              @ rt-thread/components/dfs/filesystems/elmfat/ff.c:1401:0
	.fnstart
	.cfi_startproc
@ %bb.0:
	.pad	#28
	sub	sp, #28
	.cfi_def_cfa_offset 28
	str	r0, [sp, #20]
	str	r1, [sp, #16]
.Ltmp510:
	.loc	1 1403 14 prologue_end          @ rt-thread/components/dfs/filesystems/elmfat/ff.c:1403:14
	ldr	r0, [sp, #20]
	.loc	1 1403 22 is_stmt 0             @ rt-thread/components/dfs/filesystems/elmfat/ff.c:1403:22
	ldr	r0, [r0]
	.loc	1 1403 9                        @ rt-thread/components/dfs/filesystems/elmfat/ff.c:1403:9
	str	r0, [sp]
	.loc	1 1406 8 is_stmt 1              @ rt-thread/components/dfs/filesystems/elmfat/ff.c:1406:8
	ldr	r0, [sp, #20]
	.loc	1 1406 12 is_stmt 0             @ rt-thread/components/dfs/filesystems/elmfat/ff.c:1406:12
	ldr	r0, [r0, #40]
	.loc	1 1406 18                       @ rt-thread/components/dfs/filesystems/elmfat/ff.c:1406:18
	adds	r0, #4
	.loc	1 1406 6                        @ rt-thread/components/dfs/filesystems/elmfat/ff.c:1406:6
	str	r0, [sp, #4]
	.loc	1 1407 15 is_stmt 1             @ rt-thread/components/dfs/filesystems/elmfat/ff.c:1407:15
	ldr	r0, [sp, #16]
	.loc	1 1407 19 is_stmt 0             @ rt-thread/components/dfs/filesystems/elmfat/ff.c:1407:19
	lsrs	r0, r0, #9
	.loc	1 1407 30                       @ rt-thread/components/dfs/filesystems/elmfat/ff.c:1407:30
	ldr	r1, [sp]
	.loc	1 1407 34                       @ rt-thread/components/dfs/filesystems/elmfat/ff.c:1407:34
	ldrh	r1, [r1, #10]
	.loc	1 1407 28                       @ rt-thread/components/dfs/filesystems/elmfat/ff.c:1407:28
	udiv	r0, r0, r1
	.loc	1 1407 5                        @ rt-thread/components/dfs/filesystems/elmfat/ff.c:1407:5
	str	r0, [sp, #12]
	.loc	1 1408 2 is_stmt 1              @ rt-thread/components/dfs/filesystems/elmfat/ff.c:1408:2
	b	.LBB17_1
.LBB17_1:                               @ =>This Inner Loop Header: Depth=1
.Ltmp511:
	.loc	1 1409 13                       @ rt-thread/components/dfs/filesystems/elmfat/ff.c:1409:13
	ldr	r0, [sp, #4]
	adds	r1, r0, #4
	str	r1, [sp, #4]
	.loc	1 1409 9 is_stmt 0              @ rt-thread/components/dfs/filesystems/elmfat/ff.c:1409:9
	ldr	r0, [r0]
	.loc	1 1409 7                        @ rt-thread/components/dfs/filesystems/elmfat/ff.c:1409:7
	str	r0, [sp, #8]
.Ltmp512:
	.loc	1 1410 7 is_stmt 1              @ rt-thread/components/dfs/filesystems/elmfat/ff.c:1410:7
	ldr	r0, [sp, #8]
.Ltmp513:
	.loc	1 1410 7 is_stmt 0              @ rt-thread/components/dfs/filesystems/elmfat/ff.c:1410:7
	cbnz	r0, .LBB17_3
	b	.LBB17_2
.LBB17_2:
	.loc	1 0 7                           @ rt-thread/components/dfs/filesystems/elmfat/ff.c:0:7
	movs	r0, #0
.Ltmp514:
	.loc	1 1410 17                       @ rt-thread/components/dfs/filesystems/elmfat/ff.c:1410:17
	str	r0, [sp, #24]
	b	.LBB17_7
.Ltmp515:
.LBB17_3:                               @   in Loop: Header=BB17_1 Depth=1
	.loc	1 1411 7 is_stmt 1              @ rt-thread/components/dfs/filesystems/elmfat/ff.c:1411:7
	ldr	r0, [sp, #12]
	.loc	1 1411 12 is_stmt 0             @ rt-thread/components/dfs/filesystems/elmfat/ff.c:1411:12
	ldr	r1, [sp, #8]
.Ltmp516:
	.loc	1 1411 7                        @ rt-thread/components/dfs/filesystems/elmfat/ff.c:1411:7
	cmp	r0, r1
	bhs	.LBB17_5
	b	.LBB17_4
.LBB17_4:
.Ltmp517:
	.loc	1 1411 17                       @ rt-thread/components/dfs/filesystems/elmfat/ff.c:1411:17
	b	.LBB17_6
.Ltmp518:
.LBB17_5:                               @   in Loop: Header=BB17_1 Depth=1
	.loc	1 1412 9 is_stmt 1              @ rt-thread/components/dfs/filesystems/elmfat/ff.c:1412:9
	ldr	r1, [sp, #8]
	.loc	1 1412 6 is_stmt 0              @ rt-thread/components/dfs/filesystems/elmfat/ff.c:1412:6
	ldr	r0, [sp, #12]
	subs	r0, r0, r1
	str	r0, [sp, #12]
	.loc	1 1412 17                       @ rt-thread/components/dfs/filesystems/elmfat/ff.c:1412:17
	ldr	r0, [sp, #4]
	adds	r0, #4
	str	r0, [sp, #4]
.Ltmp519:
	.loc	1 1408 2 is_stmt 1              @ rt-thread/components/dfs/filesystems/elmfat/ff.c:1408:2
	b	.LBB17_1
.Ltmp520:
.LBB17_6:
	.loc	1 1414 9                        @ rt-thread/components/dfs/filesystems/elmfat/ff.c:1414:9
	ldr	r0, [sp, #12]
	.loc	1 1414 15 is_stmt 0             @ rt-thread/components/dfs/filesystems/elmfat/ff.c:1414:15
	ldr	r1, [sp, #4]
	.loc	1 1414 14                       @ rt-thread/components/dfs/filesystems/elmfat/ff.c:1414:14
	ldr	r1, [r1]
	.loc	1 1414 12                       @ rt-thread/components/dfs/filesystems/elmfat/ff.c:1414:12
	add	r0, r1
	.loc	1 1414 2                        @ rt-thread/components/dfs/filesystems/elmfat/ff.c:1414:2
	str	r0, [sp, #24]
	b	.LBB17_7
.LBB17_7:
	.loc	1 1415 1 is_stmt 1              @ rt-thread/components/dfs/filesystems/elmfat/ff.c:1415:1
	ldr	r0, [sp, #24]
	add	sp, #28
	bx	lr
.Ltmp521:
.Lfunc_end17:
	.size	clmt_clust, .Lfunc_end17-clmt_clust
	.cfi_endproc
	.cantunwind
	.fnend
                                        @ -- End function
	.section	.text.mem_cpy,"ax",%progbits
	.p2align	3                               @ -- Begin function mem_cpy
	.type	mem_cpy,%function
	.code	16                              @ @mem_cpy
	.thumb_func
mem_cpy:
.Lfunc_begin18:
	.loc	1 682 0                         @ rt-thread/components/dfs/filesystems/elmfat/ff.c:682:0
	.fnstart
	.cfi_startproc
@ %bb.0:
	.pad	#20
	sub	sp, #20
	.cfi_def_cfa_offset 20
	str	r0, [sp, #16]
	str	r1, [sp, #12]
	str	r2, [sp, #8]
.Ltmp522:
	.loc	1 683 19 prologue_end           @ rt-thread/components/dfs/filesystems/elmfat/ff.c:683:19
	ldr	r0, [sp, #16]
	.loc	1 683 8 is_stmt 0               @ rt-thread/components/dfs/filesystems/elmfat/ff.c:683:8
	str	r0, [sp, #4]
	.loc	1 684 31 is_stmt 1              @ rt-thread/components/dfs/filesystems/elmfat/ff.c:684:31
	ldr	r0, [sp, #12]
	.loc	1 684 14 is_stmt 0              @ rt-thread/components/dfs/filesystems/elmfat/ff.c:684:14
	str	r0, [sp]
.Ltmp523:
	.loc	1 686 6 is_stmt 1               @ rt-thread/components/dfs/filesystems/elmfat/ff.c:686:6
	ldr	r0, [sp, #8]
.Ltmp524:
	.loc	1 686 6 is_stmt 0               @ rt-thread/components/dfs/filesystems/elmfat/ff.c:686:6
	cbz	r0, .LBB18_5
	b	.LBB18_1
.LBB18_1:
.Ltmp525:
	.loc	1 687 3 is_stmt 1               @ rt-thread/components/dfs/filesystems/elmfat/ff.c:687:3
	b	.LBB18_2
.LBB18_2:                               @ =>This Inner Loop Header: Depth=1
	.loc	1 687 15 is_stmt 0              @ rt-thread/components/dfs/filesystems/elmfat/ff.c:687:15
	ldr	r0, [sp]
	adds	r1, r0, #1
	str	r1, [sp]
	.loc	1 687 13                        @ rt-thread/components/dfs/filesystems/elmfat/ff.c:687:13
	ldrb	r0, [r0]
	.loc	1 687 8                         @ rt-thread/components/dfs/filesystems/elmfat/ff.c:687:8
	ldr	r1, [sp, #4]
	adds	r2, r1, #1
	str	r2, [sp, #4]
	.loc	1 687 11                        @ rt-thread/components/dfs/filesystems/elmfat/ff.c:687:11
	strb	r0, [r1]
	.loc	1 687 6                         @ rt-thread/components/dfs/filesystems/elmfat/ff.c:687:6
	b	.LBB18_3
.LBB18_3:                               @   in Loop: Header=BB18_2 Depth=1
	.loc	1 687 26                        @ rt-thread/components/dfs/filesystems/elmfat/ff.c:687:26
	ldr	r0, [sp, #8]
	subs	r0, #1
	str	r0, [sp, #8]
	.loc	1 687 6                         @ rt-thread/components/dfs/filesystems/elmfat/ff.c:687:6
	cmp	r0, #0
	bne	.LBB18_2
	b	.LBB18_4
.LBB18_4:
	.loc	1 688 2 is_stmt 1               @ rt-thread/components/dfs/filesystems/elmfat/ff.c:688:2
	b	.LBB18_5
.Ltmp526:
.LBB18_5:
	.loc	1 689 1                         @ rt-thread/components/dfs/filesystems/elmfat/ff.c:689:1
	add	sp, #20
	bx	lr
.Ltmp527:
.Lfunc_end18:
	.size	mem_cpy, .Lfunc_end18-mem_cpy
	.cfi_endproc
	.cantunwind
	.fnend
                                        @ -- End function
	.section	.text.f_write,"ax",%progbits
	.hidden	f_write                         @ -- Begin function f_write
	.globl	f_write
	.p2align	3
	.type	f_write,%function
	.code	16                              @ @f_write
	.thumb_func
f_write:
.Lfunc_begin19:
	.loc	1 3552 0                        @ rt-thread/components/dfs/filesystems/elmfat/ff.c:3552:0
	.fnstart
	.cfi_startproc
@ %bb.0:
	.save	{r7, lr}
	push	{r7, lr}
	.cfi_def_cfa_offset 8
	.cfi_offset lr, -4
	.cfi_offset r7, -8
	.pad	#56
	sub	sp, #56
	.cfi_def_cfa_offset 64
	str	r0, [sp, #48]
	str	r1, [sp, #44]
	str	r2, [sp, #40]
	str	r3, [sp, #36]
.Ltmp528:
	.loc	1 3557 35 prologue_end          @ rt-thread/components/dfs/filesystems/elmfat/ff.c:3557:35
	ldr	r0, [sp, #44]
	.loc	1 3557 14 is_stmt 0             @ rt-thread/components/dfs/filesystems/elmfat/ff.c:3557:14
	str	r0, [sp, #4]
	.loc	1 3560 3 is_stmt 1              @ rt-thread/components/dfs/filesystems/elmfat/ff.c:3560:3
	ldr	r1, [sp, #36]
	movs	r0, #0
	.loc	1 3560 6 is_stmt 0              @ rt-thread/components/dfs/filesystems/elmfat/ff.c:3560:6
	str	r0, [r1]
	.loc	1 3561 18 is_stmt 1             @ rt-thread/components/dfs/filesystems/elmfat/ff.c:3561:18
	ldr	r0, [sp, #48]
	add	r1, sp, #28
	.loc	1 3561 8 is_stmt 0              @ rt-thread/components/dfs/filesystems/elmfat/ff.c:3561:8
	bl	validate
	.loc	1 3561 6                        @ rt-thread/components/dfs/filesystems/elmfat/ff.c:3561:6
	strb.w	r0, [sp, #35]
.Ltmp529:
	.loc	1 3562 6 is_stmt 1              @ rt-thread/components/dfs/filesystems/elmfat/ff.c:3562:6
	ldrb.w	r0, [sp, #35]
	.loc	1 3562 19 is_stmt 0             @ rt-thread/components/dfs/filesystems/elmfat/ff.c:3562:19
	cbnz	r0, .LBB19_2
	b	.LBB19_1
.LBB19_1:
	.loc	1 3562 38                       @ rt-thread/components/dfs/filesystems/elmfat/ff.c:3562:38
	ldr	r0, [sp, #48]
	.loc	1 3562 42                       @ rt-thread/components/dfs/filesystems/elmfat/ff.c:3562:42
	ldrb	r0, [r0, #17]
	.loc	1 3562 27                       @ rt-thread/components/dfs/filesystems/elmfat/ff.c:3562:27
	strb.w	r0, [sp, #35]
.Ltmp530:
	.loc	1 3562 6                        @ rt-thread/components/dfs/filesystems/elmfat/ff.c:3562:6
	cbz	r0, .LBB19_3
	b	.LBB19_2
.LBB19_2:
.Ltmp531:
	.loc	1 3562 57                       @ rt-thread/components/dfs/filesystems/elmfat/ff.c:3562:57
	ldrb.w	r0, [sp, #35]
	strb.w	r0, [sp, #55]
	b	.LBB19_55
.Ltmp532:
.LBB19_3:
	.loc	1 3563 8 is_stmt 1              @ rt-thread/components/dfs/filesystems/elmfat/ff.c:3563:8
	ldr	r0, [sp, #48]
	ldrb	r0, [r0, #16]
.Ltmp533:
	.loc	1 3563 6 is_stmt 0              @ rt-thread/components/dfs/filesystems/elmfat/ff.c:3563:6
	lsls	r0, r0, #30
	cmp	r0, #0
	bmi	.LBB19_5
	b	.LBB19_4
.LBB19_4:
	.loc	1 0 6                           @ rt-thread/components/dfs/filesystems/elmfat/ff.c:0:6
	movs	r0, #7
.Ltmp534:
	.loc	1 3563 30                       @ rt-thread/components/dfs/filesystems/elmfat/ff.c:3563:30
	strb.w	r0, [sp, #55]
	b	.LBB19_55
.Ltmp535:
.LBB19_5:
	.loc	1 3566 57 is_stmt 1             @ rt-thread/components/dfs/filesystems/elmfat/ff.c:3566:57
	ldr	r0, [sp, #48]
	.loc	1 3566 61 is_stmt 0             @ rt-thread/components/dfs/filesystems/elmfat/ff.c:3566:61
	ldr	r1, [r0, #20]
	.loc	1 3566 68                       @ rt-thread/components/dfs/filesystems/elmfat/ff.c:3566:68
	ldr	r0, [sp, #40]
	.loc	1 3566 66                       @ rt-thread/components/dfs/filesystems/elmfat/ff.c:3566:66
	add	r0, r1
.Ltmp536:
	.loc	1 3566 6                        @ rt-thread/components/dfs/filesystems/elmfat/ff.c:3566:6
	cmp	r0, r1
	bhs	.LBB19_7
	b	.LBB19_6
.LBB19_6:
.Ltmp537:
	.loc	1 3567 36 is_stmt 1             @ rt-thread/components/dfs/filesystems/elmfat/ff.c:3567:36
	ldr	r0, [sp, #48]
	.loc	1 3567 40 is_stmt 0             @ rt-thread/components/dfs/filesystems/elmfat/ff.c:3567:40
	ldr	r0, [r0, #20]
	.loc	1 3567 27                       @ rt-thread/components/dfs/filesystems/elmfat/ff.c:3567:27
	mvns	r0, r0
	.loc	1 3567 7                        @ rt-thread/components/dfs/filesystems/elmfat/ff.c:3567:7
	str	r0, [sp, #40]
	.loc	1 3568 2 is_stmt 1              @ rt-thread/components/dfs/filesystems/elmfat/ff.c:3568:2
	b	.LBB19_7
.Ltmp538:
.LBB19_7:
	.loc	1 3570 2                        @ rt-thread/components/dfs/filesystems/elmfat/ff.c:3570:2
	b	.LBB19_8
.LBB19_8:                               @ =>This Inner Loop Header: Depth=1
.Ltmp539:
	.loc	1 3570 11 is_stmt 0             @ rt-thread/components/dfs/filesystems/elmfat/ff.c:3570:11
	ldr	r0, [sp, #40]
.Ltmp540:
	.loc	1 3570 2                        @ rt-thread/components/dfs/filesystems/elmfat/ff.c:3570:2
	cmp	r0, #0
	beq.w	.LBB19_54
	b	.LBB19_9
.LBB19_9:                               @   in Loop: Header=BB19_8 Depth=1
.Ltmp541:
	.loc	1 3572 7 is_stmt 1              @ rt-thread/components/dfs/filesystems/elmfat/ff.c:3572:7
	ldr	r0, [sp, #48]
.Ltmp542:
	.loc	1 3572 7 is_stmt 0              @ rt-thread/components/dfs/filesystems/elmfat/ff.c:3572:7
	ldrh	r0, [r0, #20]
	lsls	r0, r0, #23
	cmp	r0, #0
	bne.w	.LBB19_47
	b	.LBB19_10
.LBB19_10:                              @   in Loop: Header=BB19_8 Depth=1
.Ltmp543:
	.loc	1 3573 19 is_stmt 1             @ rt-thread/components/dfs/filesystems/elmfat/ff.c:3573:19
	ldr	r0, [sp, #48]
	.loc	1 3573 23 is_stmt 0             @ rt-thread/components/dfs/filesystems/elmfat/ff.c:3573:23
	ldr	r1, [r0, #20]
	.loc	1 3573 41                       @ rt-thread/components/dfs/filesystems/elmfat/ff.c:3573:41
	ldr	r0, [sp, #28]
	.loc	1 3573 45                       @ rt-thread/components/dfs/filesystems/elmfat/ff.c:3573:45
	ldrh	r0, [r0, #10]
	.loc	1 3573 51                       @ rt-thread/components/dfs/filesystems/elmfat/ff.c:3573:51
	subs	r0, #1
	.loc	1 3573 38                       @ rt-thread/components/dfs/filesystems/elmfat/ff.c:3573:38
	and.w	r0, r0, r1, lsr #9
	.loc	1 3573 10                       @ rt-thread/components/dfs/filesystems/elmfat/ff.c:3573:10
	str	r0, [sp, #8]
.Ltmp544:
	.loc	1 3574 8 is_stmt 1              @ rt-thread/components/dfs/filesystems/elmfat/ff.c:3574:8
	ldr	r0, [sp, #8]
.Ltmp545:
	.loc	1 3574 8 is_stmt 0              @ rt-thread/components/dfs/filesystems/elmfat/ff.c:3574:8
	cmp	r0, #0
	bne	.LBB19_28
	b	.LBB19_11
.LBB19_11:                              @   in Loop: Header=BB19_8 Depth=1
.Ltmp546:
	.loc	1 3575 9 is_stmt 1              @ rt-thread/components/dfs/filesystems/elmfat/ff.c:3575:9
	ldr	r0, [sp, #48]
	.loc	1 3575 13 is_stmt 0             @ rt-thread/components/dfs/filesystems/elmfat/ff.c:3575:13
	ldr	r0, [r0, #20]
.Ltmp547:
	.loc	1 3575 9                        @ rt-thread/components/dfs/filesystems/elmfat/ff.c:3575:9
	cbnz	r0, .LBB19_15
	b	.LBB19_12
.LBB19_12:                              @   in Loop: Header=BB19_8 Depth=1
.Ltmp548:
	.loc	1 3576 13 is_stmt 1             @ rt-thread/components/dfs/filesystems/elmfat/ff.c:3576:13
	ldr	r0, [sp, #48]
	.loc	1 3576 21 is_stmt 0             @ rt-thread/components/dfs/filesystems/elmfat/ff.c:3576:21
	ldr	r0, [r0, #8]
	.loc	1 3576 11                       @ rt-thread/components/dfs/filesystems/elmfat/ff.c:3576:11
	str	r0, [sp, #24]
.Ltmp549:
	.loc	1 3577 10 is_stmt 1             @ rt-thread/components/dfs/filesystems/elmfat/ff.c:3577:10
	ldr	r0, [sp, #24]
.Ltmp550:
	.loc	1 3577 10 is_stmt 0             @ rt-thread/components/dfs/filesystems/elmfat/ff.c:3577:10
	cbnz	r0, .LBB19_14
	b	.LBB19_13
.LBB19_13:                              @   in Loop: Header=BB19_8 Depth=1
.Ltmp551:
	.loc	1 3578 28 is_stmt 1             @ rt-thread/components/dfs/filesystems/elmfat/ff.c:3578:28
	ldr	r0, [sp, #48]
	movs	r1, #0
	.loc	1 3578 14 is_stmt 0             @ rt-thread/components/dfs/filesystems/elmfat/ff.c:3578:14
	bl	create_chain
	.loc	1 3578 12                       @ rt-thread/components/dfs/filesystems/elmfat/ff.c:3578:12
	str	r0, [sp, #24]
	.loc	1 3579 6 is_stmt 1              @ rt-thread/components/dfs/filesystems/elmfat/ff.c:3579:6
	b	.LBB19_14
.Ltmp552:
.LBB19_14:                              @   in Loop: Header=BB19_8 Depth=1
	.loc	1 3580 5                        @ rt-thread/components/dfs/filesystems/elmfat/ff.c:3580:5
	b	.LBB19_19
.Ltmp553:
.LBB19_15:                              @   in Loop: Header=BB19_8 Depth=1
	.loc	1 3582 10                       @ rt-thread/components/dfs/filesystems/elmfat/ff.c:3582:10
	ldr	r0, [sp, #48]
	.loc	1 3582 14 is_stmt 0             @ rt-thread/components/dfs/filesystems/elmfat/ff.c:3582:14
	ldr	r0, [r0, #40]
.Ltmp554:
	.loc	1 3582 10                       @ rt-thread/components/dfs/filesystems/elmfat/ff.c:3582:10
	cbz	r0, .LBB19_17
	b	.LBB19_16
.LBB19_16:                              @   in Loop: Header=BB19_8 Depth=1
.Ltmp555:
	.loc	1 3583 25 is_stmt 1             @ rt-thread/components/dfs/filesystems/elmfat/ff.c:3583:25
	ldr	r0, [sp, #48]
	.loc	1 3583 33 is_stmt 0             @ rt-thread/components/dfs/filesystems/elmfat/ff.c:3583:33
	ldr	r1, [r0, #20]
	.loc	1 3583 14                       @ rt-thread/components/dfs/filesystems/elmfat/ff.c:3583:14
	bl	clmt_clust
	.loc	1 3583 12                       @ rt-thread/components/dfs/filesystems/elmfat/ff.c:3583:12
	str	r0, [sp, #24]
	.loc	1 3584 6 is_stmt 1              @ rt-thread/components/dfs/filesystems/elmfat/ff.c:3584:6
	b	.LBB19_18
.Ltmp556:
.LBB19_17:                              @   in Loop: Header=BB19_8 Depth=1
	.loc	1 3587 28                       @ rt-thread/components/dfs/filesystems/elmfat/ff.c:3587:28
	ldr	r0, [sp, #48]
	.loc	1 3587 41 is_stmt 0             @ rt-thread/components/dfs/filesystems/elmfat/ff.c:3587:41
	ldr	r1, [r0, #24]
	.loc	1 3587 14                       @ rt-thread/components/dfs/filesystems/elmfat/ff.c:3587:14
	bl	create_chain
	.loc	1 3587 12                       @ rt-thread/components/dfs/filesystems/elmfat/ff.c:3587:12
	str	r0, [sp, #24]
	b	.LBB19_18
.Ltmp557:
.LBB19_18:                              @   in Loop: Header=BB19_8 Depth=1
	.loc	1 0 12                          @ rt-thread/components/dfs/filesystems/elmfat/ff.c:0:12
	b	.LBB19_19
.LBB19_19:                              @   in Loop: Header=BB19_8 Depth=1
.Ltmp558:
	.loc	1 3590 9 is_stmt 1              @ rt-thread/components/dfs/filesystems/elmfat/ff.c:3590:9
	ldr	r0, [sp, #24]
.Ltmp559:
	.loc	1 3590 9 is_stmt 0              @ rt-thread/components/dfs/filesystems/elmfat/ff.c:3590:9
	cbnz	r0, .LBB19_21
	b	.LBB19_20
.LBB19_20:
.Ltmp560:
	.loc	1 3590 20                       @ rt-thread/components/dfs/filesystems/elmfat/ff.c:3590:20
	b	.LBB19_54
.Ltmp561:
.LBB19_21:                              @   in Loop: Header=BB19_8 Depth=1
	.loc	1 3591 9 is_stmt 1              @ rt-thread/components/dfs/filesystems/elmfat/ff.c:3591:9
	ldr	r0, [sp, #24]
.Ltmp562:
	.loc	1 3591 9 is_stmt 0              @ rt-thread/components/dfs/filesystems/elmfat/ff.c:3591:9
	cmp	r0, #1
	bne	.LBB19_23
	b	.LBB19_22
.LBB19_22:
.Ltmp563:
	.loc	1 3591 20                       @ rt-thread/components/dfs/filesystems/elmfat/ff.c:3591:20
	ldr	r1, [sp, #48]
	movs	r0, #2
	strb	r0, [r1, #17]
	strb.w	r0, [sp, #55]
	b	.LBB19_55
.Ltmp564:
.LBB19_23:                              @   in Loop: Header=BB19_8 Depth=1
	.loc	1 3592 9 is_stmt 1              @ rt-thread/components/dfs/filesystems/elmfat/ff.c:3592:9
	ldr	r0, [sp, #24]
.Ltmp565:
	.loc	1 3592 9 is_stmt 0              @ rt-thread/components/dfs/filesystems/elmfat/ff.c:3592:9
	adds	r0, #1
	cbnz	r0, .LBB19_25
	b	.LBB19_24
.LBB19_24:
.Ltmp566:
	.loc	1 3592 29                       @ rt-thread/components/dfs/filesystems/elmfat/ff.c:3592:29
	ldr	r1, [sp, #48]
	movs	r0, #1
	strb	r0, [r1, #17]
	strb.w	r0, [sp, #55]
	b	.LBB19_55
.Ltmp567:
.LBB19_25:                              @   in Loop: Header=BB19_8 Depth=1
	.loc	1 3593 17 is_stmt 1             @ rt-thread/components/dfs/filesystems/elmfat/ff.c:3593:17
	ldr	r0, [sp, #24]
	.loc	1 3593 5 is_stmt 0              @ rt-thread/components/dfs/filesystems/elmfat/ff.c:3593:5
	ldr	r1, [sp, #48]
	.loc	1 3593 15                       @ rt-thread/components/dfs/filesystems/elmfat/ff.c:3593:15
	str	r0, [r1, #24]
.Ltmp568:
	.loc	1 3594 9 is_stmt 1              @ rt-thread/components/dfs/filesystems/elmfat/ff.c:3594:9
	ldr	r0, [sp, #48]
	.loc	1 3594 17 is_stmt 0             @ rt-thread/components/dfs/filesystems/elmfat/ff.c:3594:17
	ldr	r0, [r0, #8]
.Ltmp569:
	.loc	1 3594 9                        @ rt-thread/components/dfs/filesystems/elmfat/ff.c:3594:9
	cbnz	r0, .LBB19_27
	b	.LBB19_26
.LBB19_26:                              @   in Loop: Header=BB19_8 Depth=1
.Ltmp570:
	.loc	1 3594 47                       @ rt-thread/components/dfs/filesystems/elmfat/ff.c:3594:47
	ldr	r0, [sp, #24]
	.loc	1 3594 30                       @ rt-thread/components/dfs/filesystems/elmfat/ff.c:3594:30
	ldr	r1, [sp, #48]
	.loc	1 3594 45                       @ rt-thread/components/dfs/filesystems/elmfat/ff.c:3594:45
	str	r0, [r1, #8]
	.loc	1 3594 30                       @ rt-thread/components/dfs/filesystems/elmfat/ff.c:3594:30
	b	.LBB19_27
.Ltmp571:
.LBB19_27:                              @   in Loop: Header=BB19_8 Depth=1
	.loc	1 3595 4 is_stmt 1              @ rt-thread/components/dfs/filesystems/elmfat/ff.c:3595:4
	b	.LBB19_28
.Ltmp572:
.LBB19_28:                              @   in Loop: Header=BB19_8 Depth=1
	.loc	1 3599 8                        @ rt-thread/components/dfs/filesystems/elmfat/ff.c:3599:8
	ldr	r0, [sp, #48]
	ldrb	r0, [r0, #16]
.Ltmp573:
	.loc	1 3599 8 is_stmt 0              @ rt-thread/components/dfs/filesystems/elmfat/ff.c:3599:8
	lsls	r0, r0, #24
	cmp	r0, #0
	bpl	.LBB19_32
	b	.LBB19_29
.LBB19_29:                              @   in Loop: Header=BB19_8 Depth=1
.Ltmp574:
	.loc	1 3600 20 is_stmt 1             @ rt-thread/components/dfs/filesystems/elmfat/ff.c:3600:20
	ldr	r0, [sp, #28]
	.loc	1 3600 24 is_stmt 0             @ rt-thread/components/dfs/filesystems/elmfat/ff.c:3600:24
	ldrb	r0, [r0, #1]
	.loc	1 3600 29                       @ rt-thread/components/dfs/filesystems/elmfat/ff.c:3600:29
	ldr	r2, [sp, #48]
	.loc	1 3600 33                       @ rt-thread/components/dfs/filesystems/elmfat/ff.c:3600:33
	add.w	r1, r2, #44
	.loc	1 3600 42                       @ rt-thread/components/dfs/filesystems/elmfat/ff.c:3600:42
	ldr	r2, [r2, #28]
	movs	r3, #1
	.loc	1 3600 9                        @ rt-thread/components/dfs/filesystems/elmfat/ff.c:3600:9
	bl	disk_write
.Ltmp575:
	.loc	1 3600 9                        @ rt-thread/components/dfs/filesystems/elmfat/ff.c:3600:9
	cbz	r0, .LBB19_31
	b	.LBB19_30
.LBB19_30:
.Ltmp576:
	.loc	1 3600 62                       @ rt-thread/components/dfs/filesystems/elmfat/ff.c:3600:62
	ldr	r1, [sp, #48]
	movs	r0, #1
	strb	r0, [r1, #17]
	strb.w	r0, [sp, #55]
	b	.LBB19_55
.Ltmp577:
.LBB19_31:                              @   in Loop: Header=BB19_8 Depth=1
	.loc	1 3601 5 is_stmt 1              @ rt-thread/components/dfs/filesystems/elmfat/ff.c:3601:5
	ldr	r1, [sp, #48]
	.loc	1 3601 14 is_stmt 0             @ rt-thread/components/dfs/filesystems/elmfat/ff.c:3601:14
	ldrb	r0, [r1, #16]
	and	r0, r0, #127
	strb	r0, [r1, #16]
	.loc	1 3602 4 is_stmt 1              @ rt-thread/components/dfs/filesystems/elmfat/ff.c:3602:4
	b	.LBB19_32
.Ltmp578:
.LBB19_32:                              @   in Loop: Header=BB19_8 Depth=1
	.loc	1 3604 22                       @ rt-thread/components/dfs/filesystems/elmfat/ff.c:3604:22
	ldr	r0, [sp, #28]
	.loc	1 3604 26 is_stmt 0             @ rt-thread/components/dfs/filesystems/elmfat/ff.c:3604:26
	ldr	r1, [sp, #48]
	.loc	1 3604 30                       @ rt-thread/components/dfs/filesystems/elmfat/ff.c:3604:30
	ldr	r1, [r1, #24]
	.loc	1 3604 11                       @ rt-thread/components/dfs/filesystems/elmfat/ff.c:3604:11
	bl	clust2sect
	.loc	1 3604 9                        @ rt-thread/components/dfs/filesystems/elmfat/ff.c:3604:9
	str	r0, [sp, #20]
.Ltmp579:
	.loc	1 3605 9 is_stmt 1              @ rt-thread/components/dfs/filesystems/elmfat/ff.c:3605:9
	ldr	r0, [sp, #20]
.Ltmp580:
	.loc	1 3605 8 is_stmt 0              @ rt-thread/components/dfs/filesystems/elmfat/ff.c:3605:8
	cbnz	r0, .LBB19_34
	b	.LBB19_33
.LBB19_33:
.Ltmp581:
	.loc	1 3605 15                       @ rt-thread/components/dfs/filesystems/elmfat/ff.c:3605:15
	ldr	r1, [sp, #48]
	movs	r0, #2
	strb	r0, [r1, #17]
	strb.w	r0, [sp, #55]
	b	.LBB19_55
.Ltmp582:
.LBB19_34:                              @   in Loop: Header=BB19_8 Depth=1
	.loc	1 3606 12 is_stmt 1             @ rt-thread/components/dfs/filesystems/elmfat/ff.c:3606:12
	ldr	r1, [sp, #8]
	.loc	1 3606 9 is_stmt 0              @ rt-thread/components/dfs/filesystems/elmfat/ff.c:3606:9
	ldr	r0, [sp, #20]
	add	r0, r1
	str	r0, [sp, #20]
	.loc	1 3607 9 is_stmt 1              @ rt-thread/components/dfs/filesystems/elmfat/ff.c:3607:9
	ldr	r0, [sp, #40]
	.loc	1 3607 13 is_stmt 0             @ rt-thread/components/dfs/filesystems/elmfat/ff.c:3607:13
	lsrs	r0, r0, #9
	.loc	1 3607 7                        @ rt-thread/components/dfs/filesystems/elmfat/ff.c:3607:7
	str	r0, [sp, #12]
.Ltmp583:
	.loc	1 3608 8 is_stmt 1              @ rt-thread/components/dfs/filesystems/elmfat/ff.c:3608:8
	ldr	r0, [sp, #12]
.Ltmp584:
	.loc	1 3608 8 is_stmt 0              @ rt-thread/components/dfs/filesystems/elmfat/ff.c:3608:8
	cbz	r0, .LBB19_42
	b	.LBB19_35
.LBB19_35:                              @   in Loop: Header=BB19_8 Depth=1
.Ltmp585:
	.loc	1 3609 9 is_stmt 1              @ rt-thread/components/dfs/filesystems/elmfat/ff.c:3609:9
	ldr	r0, [sp, #8]
	.loc	1 3609 17 is_stmt 0             @ rt-thread/components/dfs/filesystems/elmfat/ff.c:3609:17
	ldr	r1, [sp, #12]
	.loc	1 3609 15                       @ rt-thread/components/dfs/filesystems/elmfat/ff.c:3609:15
	add	r0, r1
	.loc	1 3609 22                       @ rt-thread/components/dfs/filesystems/elmfat/ff.c:3609:22
	ldr	r1, [sp, #28]
	.loc	1 3609 26                       @ rt-thread/components/dfs/filesystems/elmfat/ff.c:3609:26
	ldrh	r1, [r1, #10]
.Ltmp586:
	.loc	1 3609 9                        @ rt-thread/components/dfs/filesystems/elmfat/ff.c:3609:9
	cmp	r0, r1
	bls	.LBB19_37
	b	.LBB19_36
.LBB19_36:                              @   in Loop: Header=BB19_8 Depth=1
.Ltmp587:
	.loc	1 3610 11 is_stmt 1             @ rt-thread/components/dfs/filesystems/elmfat/ff.c:3610:11
	ldr	r0, [sp, #28]
	.loc	1 3610 15 is_stmt 0             @ rt-thread/components/dfs/filesystems/elmfat/ff.c:3610:15
	ldrh	r0, [r0, #10]
	.loc	1 3610 23                       @ rt-thread/components/dfs/filesystems/elmfat/ff.c:3610:23
	ldr	r1, [sp, #8]
	.loc	1 3610 21                       @ rt-thread/components/dfs/filesystems/elmfat/ff.c:3610:21
	subs	r0, r0, r1
	.loc	1 3610 9                        @ rt-thread/components/dfs/filesystems/elmfat/ff.c:3610:9
	str	r0, [sp, #12]
	.loc	1 3611 5 is_stmt 1              @ rt-thread/components/dfs/filesystems/elmfat/ff.c:3611:5
	b	.LBB19_37
.Ltmp588:
.LBB19_37:                              @   in Loop: Header=BB19_8 Depth=1
	.loc	1 3612 20                       @ rt-thread/components/dfs/filesystems/elmfat/ff.c:3612:20
	ldr	r0, [sp, #28]
	.loc	1 3612 24 is_stmt 0             @ rt-thread/components/dfs/filesystems/elmfat/ff.c:3612:24
	ldrb	r0, [r0, #1]
	.loc	1 3612 29                       @ rt-thread/components/dfs/filesystems/elmfat/ff.c:3612:29
	ldr	r1, [sp, #4]
	.loc	1 3612 36                       @ rt-thread/components/dfs/filesystems/elmfat/ff.c:3612:36
	ldr	r2, [sp, #20]
	.loc	1 3612 42                       @ rt-thread/components/dfs/filesystems/elmfat/ff.c:3612:42
	ldr	r3, [sp, #12]
	.loc	1 3612 9                        @ rt-thread/components/dfs/filesystems/elmfat/ff.c:3612:9
	bl	disk_write
.Ltmp589:
	.loc	1 3612 9                        @ rt-thread/components/dfs/filesystems/elmfat/ff.c:3612:9
	cbz	r0, .LBB19_39
	b	.LBB19_38
.LBB19_38:
.Ltmp590:
	.loc	1 3612 57                       @ rt-thread/components/dfs/filesystems/elmfat/ff.c:3612:57
	ldr	r1, [sp, #48]
	movs	r0, #1
	strb	r0, [r1, #17]
	strb.w	r0, [sp, #55]
	b	.LBB19_55
.Ltmp591:
.LBB19_39:                              @   in Loop: Header=BB19_8 Depth=1
	.loc	1 3620 9 is_stmt 1              @ rt-thread/components/dfs/filesystems/elmfat/ff.c:3620:9
	ldr	r0, [sp, #48]
	.loc	1 3620 13 is_stmt 0             @ rt-thread/components/dfs/filesystems/elmfat/ff.c:3620:13
	ldr	r0, [r0, #28]
	.loc	1 3620 20                       @ rt-thread/components/dfs/filesystems/elmfat/ff.c:3620:20
	ldr	r1, [sp, #20]
	.loc	1 3620 18                       @ rt-thread/components/dfs/filesystems/elmfat/ff.c:3620:18
	subs	r0, r0, r1
	.loc	1 3620 27                       @ rt-thread/components/dfs/filesystems/elmfat/ff.c:3620:27
	ldr	r1, [sp, #12]
.Ltmp592:
	.loc	1 3620 9                        @ rt-thread/components/dfs/filesystems/elmfat/ff.c:3620:9
	cmp	r0, r1
	bhs	.LBB19_41
	b	.LBB19_40
.LBB19_40:                              @   in Loop: Header=BB19_8 Depth=1
.Ltmp593:
	.loc	1 3621 14 is_stmt 1             @ rt-thread/components/dfs/filesystems/elmfat/ff.c:3621:14
	ldr	r2, [sp, #48]
	.loc	1 3621 18 is_stmt 0             @ rt-thread/components/dfs/filesystems/elmfat/ff.c:3621:18
	add.w	r0, r2, #44
	.loc	1 3621 23                       @ rt-thread/components/dfs/filesystems/elmfat/ff.c:3621:23
	ldr	r1, [sp, #4]
	.loc	1 3621 37                       @ rt-thread/components/dfs/filesystems/elmfat/ff.c:3621:37
	ldr	r2, [r2, #28]
	.loc	1 3621 44                       @ rt-thread/components/dfs/filesystems/elmfat/ff.c:3621:44
	ldr	r3, [sp, #20]
	.loc	1 3621 42                       @ rt-thread/components/dfs/filesystems/elmfat/ff.c:3621:42
	subs	r2, r2, r3
	.loc	1 3621 29                       @ rt-thread/components/dfs/filesystems/elmfat/ff.c:3621:29
	add.w	r1, r1, r2, lsl #9
	mov.w	r2, #512
	.loc	1 3621 6                        @ rt-thread/components/dfs/filesystems/elmfat/ff.c:3621:6
	bl	mem_cpy
	.loc	1 3622 6 is_stmt 1              @ rt-thread/components/dfs/filesystems/elmfat/ff.c:3622:6
	ldr	r1, [sp, #48]
	.loc	1 3622 15 is_stmt 0             @ rt-thread/components/dfs/filesystems/elmfat/ff.c:3622:15
	ldrb	r0, [r1, #16]
	and	r0, r0, #127
	strb	r0, [r1, #16]
	.loc	1 3623 5 is_stmt 1              @ rt-thread/components/dfs/filesystems/elmfat/ff.c:3623:5
	b	.LBB19_41
.Ltmp594:
.LBB19_41:                              @   in Loop: Header=BB19_8 Depth=1
	.loc	1 3626 21                       @ rt-thread/components/dfs/filesystems/elmfat/ff.c:3626:21
	ldr	r0, [sp, #12]
	.loc	1 3626 19 is_stmt 0             @ rt-thread/components/dfs/filesystems/elmfat/ff.c:3626:19
	lsls	r0, r0, #9
	.loc	1 3626 10                       @ rt-thread/components/dfs/filesystems/elmfat/ff.c:3626:10
	str	r0, [sp, #16]
	.loc	1 3627 5 is_stmt 1              @ rt-thread/components/dfs/filesystems/elmfat/ff.c:3627:5
	b	.LBB19_50
.Ltmp595:
.LBB19_42:                              @   in Loop: Header=BB19_8 Depth=1
	.loc	1 3635 8                        @ rt-thread/components/dfs/filesystems/elmfat/ff.c:3635:8
	ldr	r0, [sp, #48]
	.loc	1 3635 12 is_stmt 0             @ rt-thread/components/dfs/filesystems/elmfat/ff.c:3635:12
	ldr	r0, [r0, #28]
	.loc	1 3635 20                       @ rt-thread/components/dfs/filesystems/elmfat/ff.c:3635:20
	ldr	r1, [sp, #20]
	.loc	1 3635 25                       @ rt-thread/components/dfs/filesystems/elmfat/ff.c:3635:25
	cmp	r0, r1
	beq	.LBB19_46
	b	.LBB19_43
.LBB19_43:                              @   in Loop: Header=BB19_8 Depth=1
	.loc	1 3636 5 is_stmt 1              @ rt-thread/components/dfs/filesystems/elmfat/ff.c:3636:5
	ldr	r0, [sp, #48]
	.loc	1 3636 24 is_stmt 0             @ rt-thread/components/dfs/filesystems/elmfat/ff.c:3636:24
	ldr	r1, [r0, #12]
	.loc	1 3636 9                        @ rt-thread/components/dfs/filesystems/elmfat/ff.c:3636:9
	ldr	r0, [r0, #20]
	.loc	1 3636 32                       @ rt-thread/components/dfs/filesystems/elmfat/ff.c:3636:32
	cmp	r0, r1
	bhs	.LBB19_46
	b	.LBB19_44
.LBB19_44:                              @   in Loop: Header=BB19_8 Depth=1
	.loc	1 3637 15 is_stmt 1             @ rt-thread/components/dfs/filesystems/elmfat/ff.c:3637:15
	ldr	r0, [sp, #28]
	.loc	1 3637 19 is_stmt 0             @ rt-thread/components/dfs/filesystems/elmfat/ff.c:3637:19
	ldrb	r0, [r0, #1]
	.loc	1 3637 24                       @ rt-thread/components/dfs/filesystems/elmfat/ff.c:3637:24
	ldr	r1, [sp, #48]
	.loc	1 3637 28                       @ rt-thread/components/dfs/filesystems/elmfat/ff.c:3637:28
	adds	r1, #44
	.loc	1 3637 33                       @ rt-thread/components/dfs/filesystems/elmfat/ff.c:3637:33
	ldr	r2, [sp, #20]
	movs	r3, #1
	.loc	1 3637 5                        @ rt-thread/components/dfs/filesystems/elmfat/ff.c:3637:5
	bl	disk_read
.Ltmp596:
	.loc	1 3635 8 is_stmt 1              @ rt-thread/components/dfs/filesystems/elmfat/ff.c:3635:8
	cbz	r0, .LBB19_46
	b	.LBB19_45
.LBB19_45:
.Ltmp597:
	.loc	1 3638 6                        @ rt-thread/components/dfs/filesystems/elmfat/ff.c:3638:6
	ldr	r1, [sp, #48]
	movs	r0, #1
	strb	r0, [r1, #17]
	strb.w	r0, [sp, #55]
	b	.LBB19_55
.Ltmp598:
.LBB19_46:                              @   in Loop: Header=BB19_8 Depth=1
	.loc	1 3641 15                       @ rt-thread/components/dfs/filesystems/elmfat/ff.c:3641:15
	ldr	r0, [sp, #20]
	.loc	1 3641 4 is_stmt 0              @ rt-thread/components/dfs/filesystems/elmfat/ff.c:3641:4
	ldr	r1, [sp, #48]
	.loc	1 3641 13                       @ rt-thread/components/dfs/filesystems/elmfat/ff.c:3641:13
	str	r0, [r1, #28]
	.loc	1 3642 3 is_stmt 1              @ rt-thread/components/dfs/filesystems/elmfat/ff.c:3642:3
	b	.LBB19_47
.Ltmp599:
.LBB19_47:                              @   in Loop: Header=BB19_8 Depth=1
	.loc	1 3643 25                       @ rt-thread/components/dfs/filesystems/elmfat/ff.c:3643:25
	ldr	r0, [sp, #48]
	.loc	1 3643 29 is_stmt 0             @ rt-thread/components/dfs/filesystems/elmfat/ff.c:3643:29
	ldr	r0, [r0, #20]
	.loc	1 3643 34                       @ rt-thread/components/dfs/filesystems/elmfat/ff.c:3643:34
	bfc	r0, #9, #23
	.loc	1 3643 17                       @ rt-thread/components/dfs/filesystems/elmfat/ff.c:3643:17
	rsb.w	r0, r0, #512
	.loc	1 3643 8                        @ rt-thread/components/dfs/filesystems/elmfat/ff.c:3643:8
	str	r0, [sp, #16]
.Ltmp600:
	.loc	1 3644 7 is_stmt 1              @ rt-thread/components/dfs/filesystems/elmfat/ff.c:3644:7
	ldr	r0, [sp, #16]
	.loc	1 3644 14 is_stmt 0             @ rt-thread/components/dfs/filesystems/elmfat/ff.c:3644:14
	ldr	r1, [sp, #40]
.Ltmp601:
	.loc	1 3644 7                        @ rt-thread/components/dfs/filesystems/elmfat/ff.c:3644:7
	cmp	r0, r1
	bls	.LBB19_49
	b	.LBB19_48
.LBB19_48:                              @   in Loop: Header=BB19_8 Depth=1
.Ltmp602:
	.loc	1 3644 26                       @ rt-thread/components/dfs/filesystems/elmfat/ff.c:3644:26
	ldr	r0, [sp, #40]
	.loc	1 3644 24                       @ rt-thread/components/dfs/filesystems/elmfat/ff.c:3644:24
	str	r0, [sp, #16]
	.loc	1 3644 19                       @ rt-thread/components/dfs/filesystems/elmfat/ff.c:3644:19
	b	.LBB19_49
.Ltmp603:
.LBB19_49:                              @   in Loop: Header=BB19_8 Depth=1
	.loc	1 3650 11 is_stmt 1             @ rt-thread/components/dfs/filesystems/elmfat/ff.c:3650:11
	ldr	r0, [sp, #48]
	.loc	1 3650 25 is_stmt 0             @ rt-thread/components/dfs/filesystems/elmfat/ff.c:3650:25
	ldr	r1, [r0, #20]
	.loc	1 3650 30                       @ rt-thread/components/dfs/filesystems/elmfat/ff.c:3650:30
	bfc	r1, #9, #23
	.loc	1 3650 15                       @ rt-thread/components/dfs/filesystems/elmfat/ff.c:3650:15
	add	r0, r1
	.loc	1 3650 19                       @ rt-thread/components/dfs/filesystems/elmfat/ff.c:3650:19
	adds	r0, #44
	.loc	1 3650 40                       @ rt-thread/components/dfs/filesystems/elmfat/ff.c:3650:40
	ldr	r1, [sp, #4]
	.loc	1 3650 47                       @ rt-thread/components/dfs/filesystems/elmfat/ff.c:3650:47
	ldr	r2, [sp, #16]
	.loc	1 3650 3                        @ rt-thread/components/dfs/filesystems/elmfat/ff.c:3650:3
	bl	mem_cpy
	.loc	1 3651 3 is_stmt 1              @ rt-thread/components/dfs/filesystems/elmfat/ff.c:3651:3
	ldr	r1, [sp, #48]
	.loc	1 3651 12 is_stmt 0             @ rt-thread/components/dfs/filesystems/elmfat/ff.c:3651:12
	ldrb	r0, [r1, #16]
	orr	r0, r0, #128
	strb	r0, [r1, #16]
	.loc	1 3653 2 is_stmt 1              @ rt-thread/components/dfs/filesystems/elmfat/ff.c:3653:2
	b	.LBB19_50
.Ltmp604:
.LBB19_50:                              @   in Loop: Header=BB19_8 Depth=1
	.loc	1 3571 12                       @ rt-thread/components/dfs/filesystems/elmfat/ff.c:3571:12
	ldr	r1, [sp, #16]
	.loc	1 3571 9 is_stmt 0              @ rt-thread/components/dfs/filesystems/elmfat/ff.c:3571:9
	ldr	r0, [sp, #4]
	add	r0, r1
	str	r0, [sp, #4]
	.loc	1 3571 30                       @ rt-thread/components/dfs/filesystems/elmfat/ff.c:3571:30
	ldr	r2, [sp, #16]
	.loc	1 3571 18                       @ rt-thread/components/dfs/filesystems/elmfat/ff.c:3571:18
	ldr	r1, [sp, #48]
	.loc	1 3571 27                       @ rt-thread/components/dfs/filesystems/elmfat/ff.c:3571:27
	ldr	r0, [r1, #20]
	add	r0, r2
	str	r0, [r1, #20]
	.loc	1 3571 55                       @ rt-thread/components/dfs/filesystems/elmfat/ff.c:3571:55
	ldr	r0, [sp, #48]
	.loc	1 3571 74                       @ rt-thread/components/dfs/filesystems/elmfat/ff.c:3571:74
	ldr	r1, [r0, #12]
	.loc	1 3571 59                       @ rt-thread/components/dfs/filesystems/elmfat/ff.c:3571:59
	ldr	r0, [r0, #20]
	.loc	1 3571 54                       @ rt-thread/components/dfs/filesystems/elmfat/ff.c:3571:54
	cmp	r0, r1
	bls	.LBB19_52
	b	.LBB19_51
.LBB19_51:                              @   in Loop: Header=BB19_8 Depth=1
	.loc	1 3571 85                       @ rt-thread/components/dfs/filesystems/elmfat/ff.c:3571:85
	ldr	r0, [sp, #48]
	.loc	1 3571 89                       @ rt-thread/components/dfs/filesystems/elmfat/ff.c:3571:89
	ldr	r0, [r0, #20]
	.loc	1 3571 54                       @ rt-thread/components/dfs/filesystems/elmfat/ff.c:3571:54
	str	r0, [sp]                        @ 4-byte Spill
	b	.LBB19_53
.LBB19_52:                              @   in Loop: Header=BB19_8 Depth=1
	.loc	1 3571 96                       @ rt-thread/components/dfs/filesystems/elmfat/ff.c:3571:96
	ldr	r0, [sp, #48]
	.loc	1 3571 104                      @ rt-thread/components/dfs/filesystems/elmfat/ff.c:3571:104
	ldr	r0, [r0, #12]
	.loc	1 3571 54                       @ rt-thread/components/dfs/filesystems/elmfat/ff.c:3571:54
	str	r0, [sp]                        @ 4-byte Spill
	b	.LBB19_53
.LBB19_53:                              @   in Loop: Header=BB19_8 Depth=1
	ldr	r0, [sp]                        @ 4-byte Reload
	.loc	1 3571 36                       @ rt-thread/components/dfs/filesystems/elmfat/ff.c:3571:36
	ldr	r1, [sp, #48]
	.loc	1 3571 52                       @ rt-thread/components/dfs/filesystems/elmfat/ff.c:3571:52
	str	r0, [r1, #12]
	.loc	1 3571 120                      @ rt-thread/components/dfs/filesystems/elmfat/ff.c:3571:120
	ldr	r2, [sp, #16]
	.loc	1 3571 114                      @ rt-thread/components/dfs/filesystems/elmfat/ff.c:3571:114
	ldr	r1, [sp, #36]
	.loc	1 3571 117                      @ rt-thread/components/dfs/filesystems/elmfat/ff.c:3571:117
	ldr	r0, [r1]
	add	r0, r2
	str	r0, [r1]
	.loc	1 3571 133                      @ rt-thread/components/dfs/filesystems/elmfat/ff.c:3571:133
	ldr	r1, [sp, #16]
	.loc	1 3571 130                      @ rt-thread/components/dfs/filesystems/elmfat/ff.c:3571:130
	ldr	r0, [sp, #40]
	subs	r0, r0, r1
	str	r0, [sp, #40]
	.loc	1 3570 2 is_stmt 1              @ rt-thread/components/dfs/filesystems/elmfat/ff.c:3570:2
	b	.LBB19_8
.Ltmp605:
.LBB19_54:
	.loc	1 3655 2                        @ rt-thread/components/dfs/filesystems/elmfat/ff.c:3655:2
	ldr	r1, [sp, #48]
	.loc	1 3655 11 is_stmt 0             @ rt-thread/components/dfs/filesystems/elmfat/ff.c:3655:11
	ldrb	r0, [r1, #16]
	orr	r0, r0, #64
	strb	r0, [r1, #16]
	movs	r0, #0
	.loc	1 3657 2 is_stmt 1              @ rt-thread/components/dfs/filesystems/elmfat/ff.c:3657:2
	strb.w	r0, [sp, #55]
	b	.LBB19_55
.LBB19_55:
	.loc	1 3658 1                        @ rt-thread/components/dfs/filesystems/elmfat/ff.c:3658:1
	ldrb.w	r0, [sp, #55]
	add	sp, #56
	pop	{r7, pc}
.Ltmp606:
.Lfunc_end19:
	.size	f_write, .Lfunc_end19-f_write
	.cfi_endproc
	.cantunwind
	.fnend
                                        @ -- End function
	.section	.text.create_chain,"ax",%progbits
	.p2align	3                               @ -- Begin function create_chain
	.type	create_chain,%function
	.code	16                              @ @create_chain
	.thumb_func
create_chain:
.Lfunc_begin20:
	.loc	1 1316 0                        @ rt-thread/components/dfs/filesystems/elmfat/ff.c:1316:0
	.fnstart
	.cfi_startproc
@ %bb.0:
	.save	{r7, lr}
	push	{r7, lr}
	.cfi_def_cfa_offset 8
	.cfi_offset lr, -4
	.cfi_offset r7, -8
	.pad	#32
	sub	sp, #32
	.cfi_def_cfa_offset 40
	str	r0, [sp, #24]
	str	r1, [sp, #20]
.Ltmp607:
	.loc	1 1319 14 prologue_end          @ rt-thread/components/dfs/filesystems/elmfat/ff.c:1319:14
	ldr	r0, [sp, #24]
	.loc	1 1319 19 is_stmt 0             @ rt-thread/components/dfs/filesystems/elmfat/ff.c:1319:19
	ldr	r0, [r0]
	.loc	1 1319 9                        @ rt-thread/components/dfs/filesystems/elmfat/ff.c:1319:9
	str	r0, [sp]
.Ltmp608:
	.loc	1 1322 6 is_stmt 1              @ rt-thread/components/dfs/filesystems/elmfat/ff.c:1322:6
	ldr	r0, [sp, #20]
.Ltmp609:
	.loc	1 1322 6 is_stmt 0              @ rt-thread/components/dfs/filesystems/elmfat/ff.c:1322:6
	cbnz	r0, .LBB20_5
	b	.LBB20_1
.LBB20_1:
.Ltmp610:
	.loc	1 1323 9 is_stmt 1              @ rt-thread/components/dfs/filesystems/elmfat/ff.c:1323:9
	ldr	r0, [sp]
	.loc	1 1323 13 is_stmt 0             @ rt-thread/components/dfs/filesystems/elmfat/ff.c:1323:13
	ldr	r0, [r0, #16]
	.loc	1 1323 7                        @ rt-thread/components/dfs/filesystems/elmfat/ff.c:1323:7
	str	r0, [sp, #8]
.Ltmp611:
	.loc	1 1324 7 is_stmt 1              @ rt-thread/components/dfs/filesystems/elmfat/ff.c:1324:7
	ldr	r0, [sp, #8]
	.loc	1 1324 16 is_stmt 0             @ rt-thread/components/dfs/filesystems/elmfat/ff.c:1324:16
	cbz	r0, .LBB20_3
	b	.LBB20_2
.LBB20_2:
	.loc	1 1324 19                       @ rt-thread/components/dfs/filesystems/elmfat/ff.c:1324:19
	ldr	r0, [sp, #8]
	.loc	1 1324 26                       @ rt-thread/components/dfs/filesystems/elmfat/ff.c:1324:26
	ldr	r1, [sp]
	.loc	1 1324 30                       @ rt-thread/components/dfs/filesystems/elmfat/ff.c:1324:30
	ldr	r1, [r1, #24]
.Ltmp612:
	.loc	1 1324 7                        @ rt-thread/components/dfs/filesystems/elmfat/ff.c:1324:7
	cmp	r0, r1
	blo	.LBB20_4
	b	.LBB20_3
.LBB20_3:
	.loc	1 0 7                           @ rt-thread/components/dfs/filesystems/elmfat/ff.c:0:7
	movs	r0, #1
.Ltmp613:
	.loc	1 1324 44                       @ rt-thread/components/dfs/filesystems/elmfat/ff.c:1324:44
	str	r0, [sp, #8]
	.loc	1 1324 40                       @ rt-thread/components/dfs/filesystems/elmfat/ff.c:1324:40
	b	.LBB20_4
.Ltmp614:
.LBB20_4:
	.loc	1 1325 2 is_stmt 1              @ rt-thread/components/dfs/filesystems/elmfat/ff.c:1325:2
	b	.LBB20_12
.Ltmp615:
.LBB20_5:
	.loc	1 1327 16                       @ rt-thread/components/dfs/filesystems/elmfat/ff.c:1327:16
	ldr	r0, [sp, #24]
	.loc	1 1327 21 is_stmt 0             @ rt-thread/components/dfs/filesystems/elmfat/ff.c:1327:21
	ldr	r1, [sp, #20]
	.loc	1 1327 8                        @ rt-thread/components/dfs/filesystems/elmfat/ff.c:1327:8
	bl	get_fat
	.loc	1 1327 6                        @ rt-thread/components/dfs/filesystems/elmfat/ff.c:1327:6
	str	r0, [sp, #16]
.Ltmp616:
	.loc	1 1328 7 is_stmt 1              @ rt-thread/components/dfs/filesystems/elmfat/ff.c:1328:7
	ldr	r0, [sp, #16]
.Ltmp617:
	.loc	1 1328 7 is_stmt 0              @ rt-thread/components/dfs/filesystems/elmfat/ff.c:1328:7
	cmp	r0, #1
	bhi	.LBB20_7
	b	.LBB20_6
.LBB20_6:
	.loc	1 0 7                           @ rt-thread/components/dfs/filesystems/elmfat/ff.c:0:7
	movs	r0, #1
.Ltmp618:
	.loc	1 1328 15                       @ rt-thread/components/dfs/filesystems/elmfat/ff.c:1328:15
	str	r0, [sp, #28]
	b	.LBB20_34
.Ltmp619:
.LBB20_7:
	.loc	1 1329 7 is_stmt 1              @ rt-thread/components/dfs/filesystems/elmfat/ff.c:1329:7
	ldr	r0, [sp, #16]
.Ltmp620:
	.loc	1 1329 7 is_stmt 0              @ rt-thread/components/dfs/filesystems/elmfat/ff.c:1329:7
	adds	r0, #1
	cbnz	r0, .LBB20_9
	b	.LBB20_8
.LBB20_8:
.Ltmp621:
	.loc	1 1329 32                       @ rt-thread/components/dfs/filesystems/elmfat/ff.c:1329:32
	ldr	r0, [sp, #16]
	.loc	1 1329 25                       @ rt-thread/components/dfs/filesystems/elmfat/ff.c:1329:25
	str	r0, [sp, #28]
	b	.LBB20_34
.Ltmp622:
.LBB20_9:
	.loc	1 1330 7 is_stmt 1              @ rt-thread/components/dfs/filesystems/elmfat/ff.c:1330:7
	ldr	r0, [sp, #16]
	.loc	1 1330 12 is_stmt 0             @ rt-thread/components/dfs/filesystems/elmfat/ff.c:1330:12
	ldr	r1, [sp]
	.loc	1 1330 16                       @ rt-thread/components/dfs/filesystems/elmfat/ff.c:1330:16
	ldr	r1, [r1, #24]
.Ltmp623:
	.loc	1 1330 7                        @ rt-thread/components/dfs/filesystems/elmfat/ff.c:1330:7
	cmp	r0, r1
	bhs	.LBB20_11
	b	.LBB20_10
.LBB20_10:
.Ltmp624:
	.loc	1 1330 33                       @ rt-thread/components/dfs/filesystems/elmfat/ff.c:1330:33
	ldr	r0, [sp, #16]
	.loc	1 1330 26                       @ rt-thread/components/dfs/filesystems/elmfat/ff.c:1330:26
	str	r0, [sp, #28]
	b	.LBB20_34
.Ltmp625:
.LBB20_11:
	.loc	1 1331 9 is_stmt 1              @ rt-thread/components/dfs/filesystems/elmfat/ff.c:1331:9
	ldr	r0, [sp, #20]
	.loc	1 1331 7 is_stmt 0              @ rt-thread/components/dfs/filesystems/elmfat/ff.c:1331:7
	str	r0, [sp, #8]
	b	.LBB20_12
.Ltmp626:
.LBB20_12:
	.loc	1 1352 9 is_stmt 1              @ rt-thread/components/dfs/filesystems/elmfat/ff.c:1352:9
	ldr	r0, [sp, #8]
	.loc	1 1352 7 is_stmt 0              @ rt-thread/components/dfs/filesystems/elmfat/ff.c:1352:7
	str	r0, [sp, #12]
	.loc	1 1353 3 is_stmt 1              @ rt-thread/components/dfs/filesystems/elmfat/ff.c:1353:3
	b	.LBB20_13
.LBB20_13:                              @ =>This Inner Loop Header: Depth=1
.Ltmp627:
	.loc	1 1354 7                        @ rt-thread/components/dfs/filesystems/elmfat/ff.c:1354:7
	ldr	r0, [sp, #12]
	adds	r0, #1
	str	r0, [sp, #12]
.Ltmp628:
	.loc	1 1355 8                        @ rt-thread/components/dfs/filesystems/elmfat/ff.c:1355:8
	ldr	r0, [sp, #12]
	.loc	1 1355 15 is_stmt 0             @ rt-thread/components/dfs/filesystems/elmfat/ff.c:1355:15
	ldr	r1, [sp]
	.loc	1 1355 19                       @ rt-thread/components/dfs/filesystems/elmfat/ff.c:1355:19
	ldr	r1, [r1, #24]
.Ltmp629:
	.loc	1 1355 8                        @ rt-thread/components/dfs/filesystems/elmfat/ff.c:1355:8
	cmp	r0, r1
	blo	.LBB20_17
	b	.LBB20_14
.LBB20_14:                              @   in Loop: Header=BB20_13 Depth=1
	.loc	1 0 8                           @ rt-thread/components/dfs/filesystems/elmfat/ff.c:0:8
	movs	r0, #2
.Ltmp630:
	.loc	1 1356 9 is_stmt 1              @ rt-thread/components/dfs/filesystems/elmfat/ff.c:1356:9
	str	r0, [sp, #12]
.Ltmp631:
	.loc	1 1357 9                        @ rt-thread/components/dfs/filesystems/elmfat/ff.c:1357:9
	ldr	r0, [sp, #12]
	.loc	1 1357 15 is_stmt 0             @ rt-thread/components/dfs/filesystems/elmfat/ff.c:1357:15
	ldr	r1, [sp, #8]
.Ltmp632:
	.loc	1 1357 9                        @ rt-thread/components/dfs/filesystems/elmfat/ff.c:1357:9
	cmp	r0, r1
	bls	.LBB20_16
	b	.LBB20_15
.LBB20_15:
	.loc	1 0 9                           @ rt-thread/components/dfs/filesystems/elmfat/ff.c:0:9
	movs	r0, #0
.Ltmp633:
	.loc	1 1357 20                       @ rt-thread/components/dfs/filesystems/elmfat/ff.c:1357:20
	str	r0, [sp, #28]
	b	.LBB20_34
.Ltmp634:
.LBB20_16:                              @   in Loop: Header=BB20_13 Depth=1
	.loc	1 1358 4 is_stmt 1              @ rt-thread/components/dfs/filesystems/elmfat/ff.c:1358:4
	b	.LBB20_17
.Ltmp635:
.LBB20_17:                              @   in Loop: Header=BB20_13 Depth=1
	.loc	1 1359 17                       @ rt-thread/components/dfs/filesystems/elmfat/ff.c:1359:17
	ldr	r0, [sp, #24]
	.loc	1 1359 22 is_stmt 0             @ rt-thread/components/dfs/filesystems/elmfat/ff.c:1359:22
	ldr	r1, [sp, #12]
	.loc	1 1359 9                        @ rt-thread/components/dfs/filesystems/elmfat/ff.c:1359:9
	bl	get_fat
	.loc	1 1359 7                        @ rt-thread/components/dfs/filesystems/elmfat/ff.c:1359:7
	str	r0, [sp, #16]
.Ltmp636:
	.loc	1 1360 8 is_stmt 1              @ rt-thread/components/dfs/filesystems/elmfat/ff.c:1360:8
	ldr	r0, [sp, #16]
.Ltmp637:
	.loc	1 1360 8 is_stmt 0              @ rt-thread/components/dfs/filesystems/elmfat/ff.c:1360:8
	cbnz	r0, .LBB20_19
	b	.LBB20_18
.LBB20_18:
.Ltmp638:
	.loc	1 1360 17                       @ rt-thread/components/dfs/filesystems/elmfat/ff.c:1360:17
	b	.LBB20_25
.Ltmp639:
.LBB20_19:                              @   in Loop: Header=BB20_13 Depth=1
	.loc	1 1361 8 is_stmt 1              @ rt-thread/components/dfs/filesystems/elmfat/ff.c:1361:8
	ldr	r0, [sp, #16]
	.loc	1 1361 16 is_stmt 0             @ rt-thread/components/dfs/filesystems/elmfat/ff.c:1361:16
	cmp	r0, #1
	beq	.LBB20_21
	b	.LBB20_20
.LBB20_20:                              @   in Loop: Header=BB20_13 Depth=1
	.loc	1 1361 19                       @ rt-thread/components/dfs/filesystems/elmfat/ff.c:1361:19
	ldr	r0, [sp, #16]
.Ltmp640:
	.loc	1 1361 8                        @ rt-thread/components/dfs/filesystems/elmfat/ff.c:1361:8
	adds	r0, #1
	cbnz	r0, .LBB20_22
	b	.LBB20_21
.LBB20_21:
.Ltmp641:
	.loc	1 1361 44                       @ rt-thread/components/dfs/filesystems/elmfat/ff.c:1361:44
	ldr	r0, [sp, #16]
	.loc	1 1361 37                       @ rt-thread/components/dfs/filesystems/elmfat/ff.c:1361:37
	str	r0, [sp, #28]
	b	.LBB20_34
.Ltmp642:
.LBB20_22:                              @   in Loop: Header=BB20_13 Depth=1
	.loc	1 1362 8 is_stmt 1              @ rt-thread/components/dfs/filesystems/elmfat/ff.c:1362:8
	ldr	r0, [sp, #12]
	.loc	1 1362 15 is_stmt 0             @ rt-thread/components/dfs/filesystems/elmfat/ff.c:1362:15
	ldr	r1, [sp, #8]
.Ltmp643:
	.loc	1 1362 8                        @ rt-thread/components/dfs/filesystems/elmfat/ff.c:1362:8
	cmp	r0, r1
	bne	.LBB20_24
	b	.LBB20_23
.LBB20_23:
	.loc	1 0 8                           @ rt-thread/components/dfs/filesystems/elmfat/ff.c:0:8
	movs	r0, #0
.Ltmp644:
	.loc	1 1362 20                       @ rt-thread/components/dfs/filesystems/elmfat/ff.c:1362:20
	str	r0, [sp, #28]
	b	.LBB20_34
.Ltmp645:
.LBB20_24:                              @   in Loop: Header=BB20_13 Depth=1
	.loc	1 1353 3 is_stmt 1              @ rt-thread/components/dfs/filesystems/elmfat/ff.c:1353:3
	b	.LBB20_13
.Ltmp646:
.LBB20_25:
	.loc	1 1369 17                       @ rt-thread/components/dfs/filesystems/elmfat/ff.c:1369:17
	ldr	r0, [sp]
	.loc	1 1369 21 is_stmt 0             @ rt-thread/components/dfs/filesystems/elmfat/ff.c:1369:21
	ldr	r1, [sp, #12]
	mov.w	r2, #-1
	.loc	1 1369 9                        @ rt-thread/components/dfs/filesystems/elmfat/ff.c:1369:9
	bl	put_fat
	.loc	1 1369 7                        @ rt-thread/components/dfs/filesystems/elmfat/ff.c:1369:7
	strb.w	r0, [sp, #7]
.Ltmp647:
	.loc	1 1370 7 is_stmt 1              @ rt-thread/components/dfs/filesystems/elmfat/ff.c:1370:7
	ldrb.w	r0, [sp, #7]
	.loc	1 1370 20 is_stmt 0             @ rt-thread/components/dfs/filesystems/elmfat/ff.c:1370:20
	cbnz	r0, .LBB20_28
	b	.LBB20_26
.LBB20_26:
	.loc	1 1370 23                       @ rt-thread/components/dfs/filesystems/elmfat/ff.c:1370:23
	ldr	r0, [sp, #20]
.Ltmp648:
	.loc	1 1370 7                        @ rt-thread/components/dfs/filesystems/elmfat/ff.c:1370:7
	cbz	r0, .LBB20_28
	b	.LBB20_27
.LBB20_27:
.Ltmp649:
	.loc	1 1371 18 is_stmt 1             @ rt-thread/components/dfs/filesystems/elmfat/ff.c:1371:18
	ldr	r0, [sp]
	.loc	1 1371 22 is_stmt 0             @ rt-thread/components/dfs/filesystems/elmfat/ff.c:1371:22
	ldr	r1, [sp, #20]
	.loc	1 1371 28                       @ rt-thread/components/dfs/filesystems/elmfat/ff.c:1371:28
	ldr	r2, [sp, #12]
	.loc	1 1371 10                       @ rt-thread/components/dfs/filesystems/elmfat/ff.c:1371:10
	bl	put_fat
	.loc	1 1371 8                        @ rt-thread/components/dfs/filesystems/elmfat/ff.c:1371:8
	strb.w	r0, [sp, #7]
	.loc	1 1372 3 is_stmt 1              @ rt-thread/components/dfs/filesystems/elmfat/ff.c:1372:3
	b	.LBB20_28
.Ltmp650:
.LBB20_28:
	.loc	1 1375 6                        @ rt-thread/components/dfs/filesystems/elmfat/ff.c:1375:6
	ldrb.w	r0, [sp, #7]
.Ltmp651:
	.loc	1 1375 6 is_stmt 0              @ rt-thread/components/dfs/filesystems/elmfat/ff.c:1375:6
	cbnz	r0, .LBB20_32
	b	.LBB20_29
.LBB20_29:
.Ltmp652:
	.loc	1 1376 19 is_stmt 1             @ rt-thread/components/dfs/filesystems/elmfat/ff.c:1376:19
	ldr	r0, [sp, #12]
	.loc	1 1376 3 is_stmt 0              @ rt-thread/components/dfs/filesystems/elmfat/ff.c:1376:3
	ldr	r1, [sp]
	.loc	1 1376 17                       @ rt-thread/components/dfs/filesystems/elmfat/ff.c:1376:17
	str	r0, [r1, #16]
.Ltmp653:
	.loc	1 1377 7 is_stmt 1              @ rt-thread/components/dfs/filesystems/elmfat/ff.c:1377:7
	ldr	r1, [sp]
	.loc	1 1377 11 is_stmt 0             @ rt-thread/components/dfs/filesystems/elmfat/ff.c:1377:11
	ldr	r0, [r1, #20]
	.loc	1 1377 27                       @ rt-thread/components/dfs/filesystems/elmfat/ff.c:1377:27
	ldr	r1, [r1, #24]
	.loc	1 1377 36                       @ rt-thread/components/dfs/filesystems/elmfat/ff.c:1377:36
	subs	r1, #2
.Ltmp654:
	.loc	1 1377 7                        @ rt-thread/components/dfs/filesystems/elmfat/ff.c:1377:7
	cmp	r0, r1
	bhs	.LBB20_31
	b	.LBB20_30
.LBB20_30:
.Ltmp655:
	.loc	1 1377 41                       @ rt-thread/components/dfs/filesystems/elmfat/ff.c:1377:41
	ldr	r1, [sp]
	.loc	1 1377 54                       @ rt-thread/components/dfs/filesystems/elmfat/ff.c:1377:54
	ldr	r0, [r1, #20]
	subs	r0, #1
	str	r0, [r1, #20]
	.loc	1 1377 41                       @ rt-thread/components/dfs/filesystems/elmfat/ff.c:1377:41
	b	.LBB20_31
.Ltmp656:
.LBB20_31:
	.loc	1 1378 3 is_stmt 1              @ rt-thread/components/dfs/filesystems/elmfat/ff.c:1378:3
	ldr	r1, [sp]
	.loc	1 1378 16 is_stmt 0             @ rt-thread/components/dfs/filesystems/elmfat/ff.c:1378:16
	ldrb	r0, [r1, #4]
	orr	r0, r0, #1
	strb	r0, [r1, #4]
