	.text
	.syntax unified
	.eabi_attribute	67, "2.09"	@ Tag_conformance
	.cpu	cortex-m7
	.eabi_attribute	6, 13	@ Tag_CPU_arch
	.eabi_attribute	7, 77	@ Tag_CPU_arch_profile
	.eabi_attribute	8, 0	@ Tag_ARM_ISA_use
	.eabi_attribute	9, 2	@ Tag_THUMB_ISA_use
	.fpu	fpv5-d16
	.eabi_attribute	36, 1	@ Tag_FP_HP_extension
	.eabi_attribute	34, 1	@ Tag_CPU_unaligned_access
	.eabi_attribute	17, 1	@ Tag_ABI_PCS_GOT_use
	.eabi_attribute	20, 2	@ Tag_ABI_FP_denormal
	.eabi_attribute	21, 0	@ Tag_ABI_FP_exceptions
	.eabi_attribute	23, 1	@ Tag_ABI_FP_number_model
	.eabi_attribute	24, 1	@ Tag_ABI_align_needed
	.eabi_attribute	25, 1	@ Tag_ABI_align_preserved
	.eabi_attribute	28, 1	@ Tag_ABI_VFP_args
	.eabi_attribute	38, 1	@ Tag_ABI_FP_16bit_format
	.eabi_attribute	18, 2	@ Tag_ABI_PCS_wchar_t
	.eabi_attribute	26, 1	@ Tag_ABI_enum_size
	.eabi_attribute	14, 0	@ Tag_ABI_PCS_R9_use
	.file	"filesystem.c"
	.file	1 "E:\\Smart-access-control\\Hardware\\CODE" "rt-thread/include\\rtdef.h"
	.file	2 "E:\\Smart-access-control\\Hardware\\CODE" "./rt-thread/components/dfs/filesystems/romfs\\dfs_romfs.h"
	.file	3 "E:\\Smart-access-control\\Hardware\\CODE" "board/port/filesystem.c"
	.section	.text.mount_init,"ax",%progbits
	.hidden	mount_init                      @ -- Begin function mount_init
	.globl	mount_init
	.p2align	3
	.type	mount_init,%function
	.code	16                              @ @mount_init
	.thumb_func
mount_init:
.Lfunc_begin0:
	.loc	3 104 0                         @ board/port/filesystem.c:104:0
	.fnstart
	.cfi_sections .debug_frame
	.cfi_startproc
@ %bb.0:
	.save	{r7, lr}
	push	{r7, lr}
	.cfi_def_cfa_offset 8
	.cfi_offset lr, -4
	.cfi_offset r7, -8
	.pad	#24
	sub	sp, #24
	.cfi_def_cfa_offset 32
.Ltmp0:
	.loc	3 105 9 prologue_end            @ board/port/filesystem.c:105:9
	movw	r0, :lower16:romfs_root
	movt	r0, :upper16:romfs_root
	mov	r1, sp
	str	r0, [r1]
	movw	r1, :lower16:.L.str
	movt	r1, :upper16:.L.str
	movw	r2, :lower16:.L.str.1
	movt	r2, :upper16:.L.str.1
	movs	r3, #0
	mov	r0, r3
	bl	dfs_mount
.Ltmp1:
	.loc	3 105 9 is_stmt 0               @ board/port/filesystem.c:105:9
	cbz	r0, .LBB0_4
	b	.LBB0_1
.LBB0_1:
.Ltmp2:
	.loc	3 107 9 is_stmt 1               @ board/port/filesystem.c:107:9
	b	.LBB0_2
.LBB0_2:
.Ltmp3:
	.loc	3 107 9 is_stmt 0               @ board/port/filesystem.c:107:9
	movw	r0, :lower16:.L.str.2
	movt	r0, :upper16:.L.str.2
	bl	rt_kprintf
	movw	r0, :lower16:.L.str.3
	movt	r0, :upper16:.L.str.3
	bl	rt_kprintf
	movw	r0, :lower16:.L.str.4
	movt	r0, :upper16:.L.str.4
	bl	rt_kprintf
	b	.LBB0_3
.Ltmp4:
.LBB0_3:
	.loc	3 108 5 is_stmt 1               @ board/port/filesystem.c:108:5
	b	.LBB0_4
.Ltmp5:
.LBB0_4:
	.loc	3 0 5 is_stmt 0                 @ board/port/filesystem.c:0:5
	movs	r0, #0
	.loc	3 110 23 is_stmt 1              @ board/port/filesystem.c:110:23
	str	r0, [sp, #20]
	.loc	3 116 17                        @ board/port/filesystem.c:116:17
	movw	r0, :lower16:.L.str.5
	movt	r0, :upper16:.L.str.5
	bl	fal_mtd_nor_device_create
	.loc	3 116 15 is_stmt 0              @ board/port/filesystem.c:116:15
	str	r0, [sp, #20]
.Ltmp6:
	.loc	3 118 9 is_stmt 1               @ board/port/filesystem.c:118:9
	ldr	r0, [sp, #20]
.Ltmp7:
	.loc	3 118 9 is_stmt 0               @ board/port/filesystem.c:118:9
	cmp	r0, #0
	beq	.LBB0_17
	b	.LBB0_5
.LBB0_5:
.Ltmp8:
	.loc	3 121 23 is_stmt 1              @ board/port/filesystem.c:121:23
	ldr	r0, [sp, #20]
	.loc	3 121 13 is_stmt 0              @ board/port/filesystem.c:121:13
	mov	r1, sp
	movs	r3, #0
	str	r3, [r1]
	movw	r1, :lower16:.L.str.6
	movt	r1, :upper16:.L.str.6
	movw	r2, :lower16:.L.str.7
	movt	r2, :upper16:.L.str.7
	bl	dfs_mount
.Ltmp9:
	.loc	3 121 13                        @ board/port/filesystem.c:121:13
	cmp	r0, #0
	beq	.LBB0_13
	b	.LBB0_6
.LBB0_6:
.Ltmp10:
	.loc	3 123 13 is_stmt 1              @ board/port/filesystem.c:123:13
	b	.LBB0_7
.LBB0_7:
.Ltmp11:
	.loc	3 123 13 is_stmt 0              @ board/port/filesystem.c:123:13
	movw	r0, :lower16:.L.str.8
	movt	r0, :upper16:.L.str.8
	bl	rt_kprintf
	ldr	r1, [sp, #20]
	movw	r0, :lower16:.L.str.9
	movt	r0, :upper16:.L.str.9
	bl	rt_kprintf
	movw	r0, :lower16:.L.str.4
	movt	r0, :upper16:.L.str.4
	bl	rt_kprintf
	b	.LBB0_8
.Ltmp12:
.LBB0_8:
	.loc	3 124 29 is_stmt 1              @ board/port/filesystem.c:124:29
	ldr	r1, [sp, #20]
	.loc	3 124 13 is_stmt 0              @ board/port/filesystem.c:124:13
	movw	r0, :lower16:.L.str.7
	movt	r0, :upper16:.L.str.7
	str	r0, [sp, #12]                   @ 4-byte Spill
	bl	dfs_mkfs
	ldr	r2, [sp, #12]                   @ 4-byte Reload
.Ltmp13:
	.loc	3 125 27 is_stmt 1              @ board/port/filesystem.c:125:27
	ldr	r0, [sp, #20]
	.loc	3 125 17 is_stmt 0              @ board/port/filesystem.c:125:17
	mov	r1, sp
	movs	r3, #0
	str	r3, [r1]
	movw	r1, :lower16:.L.str.6
	movt	r1, :upper16:.L.str.6
	bl	dfs_mount
.Ltmp14:
	.loc	3 125 17                        @ board/port/filesystem.c:125:17
	cbnz	r0, .LBB0_12
	b	.LBB0_9
.LBB0_9:
.Ltmp15:
	.loc	3 127 17 is_stmt 1              @ board/port/filesystem.c:127:17
	b	.LBB0_10
.LBB0_10:
.Ltmp16:
	.loc	3 127 17 is_stmt 0              @ board/port/filesystem.c:127:17
	movw	r0, :lower16:.L.str.10
	movt	r0, :upper16:.L.str.10
	bl	rt_kprintf
	movw	r0, :lower16:.L.str.11
	movt	r0, :upper16:.L.str.11
	bl	rt_kprintf
	movw	r0, :lower16:.L.str.4
	movt	r0, :upper16:.L.str.4
	bl	rt_kprintf
	b	.LBB0_11
.Ltmp17:
.LBB0_11:
	.loc	3 128 13 is_stmt 1              @ board/port/filesystem.c:128:13
	b	.LBB0_12
.Ltmp18:
.LBB0_12:
	.loc	3 129 9                         @ board/port/filesystem.c:129:9
	b	.LBB0_16
.Ltmp19:
.LBB0_13:
	.loc	3 132 13                        @ board/port/filesystem.c:132:13
	b	.LBB0_14
.LBB0_14:
.Ltmp20:
	.loc	3 132 13 is_stmt 0              @ board/port/filesystem.c:132:13
	movw	r0, :lower16:.L.str.10
	movt	r0, :upper16:.L.str.10
	bl	rt_kprintf
	movw	r0, :lower16:.L.str.11
	movt	r0, :upper16:.L.str.11
	bl	rt_kprintf
	movw	r0, :lower16:.L.str.4
	movt	r0, :upper16:.L.str.4
	bl	rt_kprintf
	b	.LBB0_15
.Ltmp21:
.LBB0_15:
	.loc	3 0 13                          @ board/port/filesystem.c:0:13
	b	.LBB0_16
.LBB0_16:
	.loc	3 134 5 is_stmt 1               @ board/port/filesystem.c:134:5
	b	.LBB0_20
.Ltmp22:
.LBB0_17:
	.loc	3 137 9                         @ board/port/filesystem.c:137:9
	b	.LBB0_18
.LBB0_18:
.Ltmp23:
	.loc	3 137 9 is_stmt 0               @ board/port/filesystem.c:137:9
	movw	r0, :lower16:.L.str.2
	movt	r0, :upper16:.L.str.2
	bl	rt_kprintf
	movw	r0, :lower16:.L.str.12
	movt	r0, :upper16:.L.str.12
	bl	rt_kprintf
	movw	r0, :lower16:.L.str.4
	movt	r0, :upper16:.L.str.4
	bl	rt_kprintf
	b	.LBB0_19
.Ltmp24:
.LBB0_19:
	.loc	3 0 9                           @ board/port/filesystem.c:0:9
	b	.LBB0_20
.LBB0_20:
	movs	r0, #53
	movs	r1, #2
	.loc	3 145 5 is_stmt 1               @ board/port/filesystem.c:145:5
	bl	rt_pin_mode
	.loc	3 147 11                        @ board/port/filesystem.c:147:11
	mov	r1, sp
	movs	r0, #20
	str	r0, [r1, #4]
	movs	r0, #30
	str	r0, [r1]
	movw	r0, :lower16:.L.str.13
	movt	r0, :upper16:.L.str.13
	movw	r1, :lower16:sd_mount
	movt	r1, :upper16:sd_mount
	movs	r2, #0
	mov.w	r3, #2048
	bl	rt_thread_create
	.loc	3 147 9 is_stmt 0               @ board/port/filesystem.c:147:9
	str	r0, [sp, #16]
.Ltmp25:
	.loc	3 149 9 is_stmt 1               @ board/port/filesystem.c:149:9
	ldr	r0, [sp, #16]
.Ltmp26:
	.loc	3 149 9 is_stmt 0               @ board/port/filesystem.c:149:9
	cbz	r0, .LBB0_22
	b	.LBB0_21
.LBB0_21:
.Ltmp27:
	.loc	3 151 27 is_stmt 1              @ board/port/filesystem.c:151:27
	ldr	r0, [sp, #16]
	.loc	3 151 9 is_stmt 0               @ board/port/filesystem.c:151:9
	bl	rt_thread_startup
	.loc	3 152 5 is_stmt 1               @ board/port/filesystem.c:152:5
	b	.LBB0_25
.Ltmp28:
.LBB0_22:
	.loc	3 155 9                         @ board/port/filesystem.c:155:9
	b	.LBB0_23
.LBB0_23:
.Ltmp29:
	.loc	3 155 9 is_stmt 0               @ board/port/filesystem.c:155:9
	movw	r0, :lower16:.L.str.2
	movt	r0, :upper16:.L.str.2
	bl	rt_kprintf
	movw	r0, :lower16:.L.str.14
	movt	r0, :upper16:.L.str.14
	bl	rt_kprintf
	movw	r0, :lower16:.L.str.4
	movt	r0, :upper16:.L.str.4
	bl	rt_kprintf
	b	.LBB0_24
.Ltmp30:
.LBB0_24:
	.loc	3 0 9                           @ board/port/filesystem.c:0:9
	b	.LBB0_25
.LBB0_25:
	movs	r0, #0
	.loc	3 158 5 is_stmt 1               @ board/port/filesystem.c:158:5
	add	sp, #24
	pop	{r7, pc}
.Ltmp31:
.Lfunc_end0:
	.size	mount_init, .Lfunc_end0-mount_init
	.cfi_endproc
	.cantunwind
	.fnend
                                        @ -- End function
	.section	.text.sd_mount,"ax",%progbits
	.p2align	3                               @ -- Begin function sd_mount
	.type	sd_mount,%function
	.code	16                              @ @sd_mount
	.thumb_func
sd_mount:
.Lfunc_begin1:
	.loc	3 79 0                          @ board/port/filesystem.c:79:0
	.fnstart
	.cfi_startproc
@ %bb.0:
	.save	{r7, lr}
	push	{r7, lr}
	.cfi_def_cfa_offset 8
	.cfi_offset lr, -4
	.cfi_offset r7, -8
	.pad	#8
	sub	sp, #8
	.cfi_def_cfa_offset 16
	str	r0, [sp, #4]
	movs	r0, #1
.Ltmp32:
	.loc	3 80 16 prologue_end            @ board/port/filesystem.c:80:16
	strb.w	r0, [sp, #3]
	movs	r0, #200
	.loc	3 81 5                          @ board/port/filesystem.c:81:5
	bl	rt_thread_mdelay
	movs	r0, #53
.Ltmp33:
	.loc	3 82 9                          @ board/port/filesystem.c:82:9
	bl	rt_pin_read
.Ltmp34:
	.loc	3 82 9 is_stmt 0                @ board/port/filesystem.c:82:9
	cbz	r0, .LBB1_2
	b	.LBB1_1
.LBB1_1:
.Ltmp35:
	.loc	3 84 9 is_stmt 1                @ board/port/filesystem.c:84:9
	bl	_sdcard_mount
	.loc	3 85 5                          @ board/port/filesystem.c:85:5
	b	.LBB1_2
.Ltmp36:
.LBB1_2:
	.loc	3 86 5                          @ board/port/filesystem.c:86:5
	b	.LBB1_3
.LBB1_3:                                @ =>This Inner Loop Header: Depth=1
	.loc	3 0 5 is_stmt 0                 @ board/port/filesystem.c:0:5
	movs	r0, #200
.Ltmp37:
	.loc	3 88 9 is_stmt 1                @ board/port/filesystem.c:88:9
	bl	rt_thread_mdelay
.Ltmp38:
	.loc	3 89 14                         @ board/port/filesystem.c:89:14
	ldrb.w	r0, [sp, #3]
	.loc	3 89 30 is_stmt 0               @ board/port/filesystem.c:89:30
	cbnz	r0, .LBB1_6
	b	.LBB1_4
.LBB1_4:                                @   in Loop: Header=BB1_3 Depth=1
	.loc	3 0 30                          @ board/port/filesystem.c:0:30
	movs	r0, #53
	.loc	3 89 52                         @ board/port/filesystem.c:89:52
	bl	rt_pin_read
	.loc	3 89 50                         @ board/port/filesystem.c:89:50
	strb.w	r0, [sp, #3]
.Ltmp39:
	.loc	3 89 13                         @ board/port/filesystem.c:89:13
	lsls	r0, r0, #24
	cbz	r0, .LBB1_6
	b	.LBB1_5
.LBB1_5:                                @   in Loop: Header=BB1_3 Depth=1
.Ltmp40:
	.loc	3 91 13 is_stmt 1               @ board/port/filesystem.c:91:13
	bl	_sdcard_mount
	.loc	3 92 9                          @ board/port/filesystem.c:92:9
	b	.LBB1_6
.Ltmp41:
.LBB1_6:                                @   in Loop: Header=BB1_3 Depth=1
	.loc	3 94 13                         @ board/port/filesystem.c:94:13
	ldrb.w	r0, [sp, #3]
	.loc	3 94 29 is_stmt 0               @ board/port/filesystem.c:94:29
	cbz	r0, .LBB1_9
	b	.LBB1_7
.LBB1_7:                                @   in Loop: Header=BB1_3 Depth=1
	.loc	3 0 29                          @ board/port/filesystem.c:0:29
	movs	r0, #53
	.loc	3 94 51                         @ board/port/filesystem.c:94:51
	bl	rt_pin_read
	.loc	3 94 49                         @ board/port/filesystem.c:94:49
	strb.w	r0, [sp, #3]
.Ltmp42:
	.loc	3 94 13                         @ board/port/filesystem.c:94:13
	lsls	r0, r0, #24
	cbnz	r0, .LBB1_9
	b	.LBB1_8
.LBB1_8:                                @   in Loop: Header=BB1_3 Depth=1
.Ltmp43:
	.loc	3 96 13 is_stmt 1               @ board/port/filesystem.c:96:13
	bl	_sdcard_unmount
	.loc	3 97 9                          @ board/port/filesystem.c:97:9
	b	.LBB1_9
.Ltmp44:
.LBB1_9:                                @   in Loop: Header=BB1_3 Depth=1
	.loc	3 86 5                          @ board/port/filesystem.c:86:5
	b	.LBB1_3
.Ltmp45:
.Lfunc_end1:
	.size	sd_mount, .Lfunc_end1-sd_mount
	.cfi_endproc
	.cantunwind
	.fnend
                                        @ -- End function
	.section	.text._sdcard_mount,"ax",%progbits
	.p2align	3                               @ -- Begin function _sdcard_mount
	.type	_sdcard_mount,%function
	.code	16                              @ @_sdcard_mount
	.thumb_func
_sdcard_mount:
.Lfunc_begin2:
	.loc	3 43 0                          @ board/port/filesystem.c:43:0
	.fnstart
	.cfi_startproc
@ %bb.0:
	.save	{r7, lr}
	push	{r7, lr}
	.cfi_def_cfa_offset 8
	.cfi_offset lr, -4
	.cfi_offset r7, -8
	.pad	#8
	sub	sp, #8
	.cfi_def_cfa_offset 16
.Ltmp46:
	.loc	3 46 14 prologue_end            @ board/port/filesystem.c:46:14
	movw	r0, :lower16:.L.str.17
	movt	r0, :upper16:.L.str.17
	bl	rt_device_find
	.loc	3 46 12 is_stmt 0               @ board/port/filesystem.c:46:12
	str	r0, [sp, #4]
.Ltmp47:
	.loc	3 47 9 is_stmt 1                @ board/port/filesystem.c:47:9
	ldr	r0, [sp, #4]
.Ltmp48:
	.loc	3 47 9 is_stmt 0                @ board/port/filesystem.c:47:9
	cbnz	r0, .LBB2_2
	b	.LBB2_1
.LBB2_1:
	.loc	3 0 9                           @ board/port/filesystem.c:0:9
	movs	r0, #0
.Ltmp49:
	.loc	3 49 9 is_stmt 1                @ board/port/filesystem.c:49:9
	bl	mmcsd_wait_cd_changed
	.loc	3 50 9                          @ board/port/filesystem.c:50:9
	bl	sdcard_change
	mov.w	r0, #-1
	.loc	3 51 9                          @ board/port/filesystem.c:51:9
	bl	mmcsd_wait_cd_changed
	.loc	3 52 18                         @ board/port/filesystem.c:52:18
	movw	r0, :lower16:.L.str.17
	movt	r0, :upper16:.L.str.17
	bl	rt_device_find
	.loc	3 52 16 is_stmt 0               @ board/port/filesystem.c:52:16
	str	r0, [sp, #4]
	.loc	3 53 5 is_stmt 1                @ board/port/filesystem.c:53:5
	b	.LBB2_2
.Ltmp50:
.LBB2_2:
	.loc	3 54 9                          @ board/port/filesystem.c:54:9
	ldr	r0, [sp, #4]
.Ltmp51:
	.loc	3 54 9 is_stmt 0                @ board/port/filesystem.c:54:9
	cmp	r0, #0
	beq	.LBB2_11
	b	.LBB2_3
.LBB2_3:
.Ltmp52:
	.loc	3 56 13 is_stmt 1               @ board/port/filesystem.c:56:13
	mov	r0, sp
	movs	r3, #0
	str	r3, [r0]
	movw	r0, :lower16:.L.str.17
	movt	r0, :upper16:.L.str.17
	movw	r1, :lower16:.L.str.18
	movt	r1, :upper16:.L.str.18
	movw	r2, :lower16:.L.str.19
	movt	r2, :upper16:.L.str.19
	bl	dfs_mount
.Ltmp53:
	.loc	3 56 13 is_stmt 0               @ board/port/filesystem.c:56:13
	cbnz	r0, .LBB2_7
	b	.LBB2_4
.LBB2_4:
.Ltmp54:
	.loc	3 58 13 is_stmt 1               @ board/port/filesystem.c:58:13
	b	.LBB2_5
.LBB2_5:
.Ltmp55:
	.loc	3 58 13 is_stmt 0               @ board/port/filesystem.c:58:13
	movw	r0, :lower16:.L.str.10
	movt	r0, :upper16:.L.str.10
	bl	rt_kprintf
	movw	r0, :lower16:.L.str.20
	movt	r0, :upper16:.L.str.20
	bl	rt_kprintf
	movw	r0, :lower16:.L.str.4
	movt	r0, :upper16:.L.str.4
	bl	rt_kprintf
	b	.LBB2_6
.Ltmp56:
.LBB2_6:
	.loc	3 59 9 is_stmt 1                @ board/port/filesystem.c:59:9
	b	.LBB2_10
.Ltmp57:
.LBB2_7:
	.loc	3 62 13                         @ board/port/filesystem.c:62:13
	b	.LBB2_8
.LBB2_8:
.Ltmp58:
	.loc	3 62 13 is_stmt 0               @ board/port/filesystem.c:62:13
	movw	r0, :lower16:.L.str.8
	movt	r0, :upper16:.L.str.8
	bl	rt_kprintf
	movw	r0, :lower16:.L.str.21
	movt	r0, :upper16:.L.str.21
	bl	rt_kprintf
	movw	r0, :lower16:.L.str.4
	movt	r0, :upper16:.L.str.4
	bl	rt_kprintf
	b	.LBB2_9
.Ltmp59:
.LBB2_9:
	.loc	3 0 13                          @ board/port/filesystem.c:0:13
	b	.LBB2_10
.LBB2_10:
	.loc	3 64 5 is_stmt 1                @ board/port/filesystem.c:64:5
	b	.LBB2_11
.Ltmp60:
.LBB2_11:
	.loc	3 65 1                          @ board/port/filesystem.c:65:1
	add	sp, #8
	pop	{r7, pc}
.Ltmp61:
.Lfunc_end2:
	.size	_sdcard_mount, .Lfunc_end2-_sdcard_mount
	.cfi_endproc
	.cantunwind
	.fnend
                                        @ -- End function
	.section	.text._sdcard_unmount,"ax",%progbits
	.p2align	3                               @ -- Begin function _sdcard_unmount
	.type	_sdcard_unmount,%function
	.code	16                              @ @_sdcard_unmount
	.thumb_func
_sdcard_unmount:
.Lfunc_begin3:
	.loc	3 68 0                          @ board/port/filesystem.c:68:0
	.fnstart
	.cfi_startproc
@ %bb.0:
	.save	{r7, lr}
	push	{r7, lr}
	.cfi_def_cfa_offset 8
	.cfi_offset lr, -4
	.cfi_offset r7, -8
	movs	r0, #200
.Ltmp62:
	.loc	3 69 5 prologue_end             @ board/port/filesystem.c:69:5
	bl	rt_thread_mdelay
	.loc	3 70 5                          @ board/port/filesystem.c:70:5
	movw	r0, :lower16:.L.str.18
	movt	r0, :upper16:.L.str.18
	bl	dfs_unmount
	.loc	3 71 5                          @ board/port/filesystem.c:71:5
	b	.LBB3_1
.LBB3_1:
.Ltmp63:
	.loc	3 71 5 is_stmt 0                @ board/port/filesystem.c:71:5
	movw	r0, :lower16:.L.str.10
	movt	r0, :upper16:.L.str.10
	bl	rt_kprintf
	movw	r0, :lower16:.L.str.22
	movt	r0, :upper16:.L.str.22
	bl	rt_kprintf
	movw	r0, :lower16:.L.str.4
	movt	r0, :upper16:.L.str.4
	bl	rt_kprintf
	b	.LBB3_2
.Ltmp64:
.LBB3_2:
	.loc	3 0 5                           @ board/port/filesystem.c:0:5
	movs	r0, #0
	.loc	3 73 5 is_stmt 1                @ board/port/filesystem.c:73:5
	bl	mmcsd_wait_cd_changed
	.loc	3 74 5                          @ board/port/filesystem.c:74:5
	bl	sdcard_change
	mov.w	r0, #-1
	.loc	3 75 5                          @ board/port/filesystem.c:75:5
	bl	mmcsd_wait_cd_changed
	.loc	3 76 1                          @ board/port/filesystem.c:76:1
	pop	{r7, pc}
.Ltmp65:
.Lfunc_end3:
	.size	_sdcard_unmount, .Lfunc_end3-_sdcard_unmount
	.cfi_endproc
	.cantunwind
	.fnend
                                        @ -- End function
	.type	.L.str,%object                  @ @.str
	.section	.rodata.str1.1,"aMS",%progbits,1
.L.str:
	.asciz	"/"
	.size	.L.str, 2

	.type	_romfs_root,%object             @ @_romfs_root
	.section	.rodata._romfs_root,"a",%progbits
	.p2align	2
_romfs_root:
	.long	1                               @ 0x1
	.long	.L.str.15
	.long	0
	.long	0                               @ 0x0
	.long	1                               @ 0x1
	.long	.L.str.16
	.long	0
	.long	0                               @ 0x0
	.size	_romfs_root, 32

	.hidden	romfs_root                      @ @romfs_root
	.type	romfs_root,%object
	.section	.rodata.romfs_root,"a",%progbits
	.globl	romfs_root
	.p2align	2
romfs_root:
	.long	1                               @ 0x1
	.long	.L.str
	.long	_romfs_root
	.long	2                               @ 0x2
	.size	romfs_root, 16

	.type	.L.str.1,%object                @ @.str.1
	.section	.rodata.str1.1,"aMS",%progbits,1
.L.str.1:
	.asciz	"rom"
	.size	.L.str.1, 4

	.type	.L.str.2,%object                @ @.str.2
.L.str.2:
	.asciz	"[E/app.filesystem] "
	.size	.L.str.2, 20

	.type	.L.str.3,%object                @ @.str.3
.L.str.3:
	.asciz	"rom mount to '/' failed!"
	.size	.L.str.3, 25

	.type	.L.str.4,%object                @ @.str.4
.L.str.4:
	.asciz	"\n"
	.size	.L.str.4, 2

	.type	.L.str.5,%object                @ @.str.5
.L.str.5:
	.asciz	"filesystem"
	.size	.L.str.5, 11

	.type	.L.str.6,%object                @ @.str.6
.L.str.6:
	.asciz	"/flash"
	.size	.L.str.6, 7

	.type	.L.str.7,%object                @ @.str.7
.L.str.7:
	.asciz	"lfs"
	.size	.L.str.7, 4

	.type	.L.str.8,%object                @ @.str.8
.L.str.8:
	.asciz	"[W/app.filesystem] "
	.size	.L.str.8, 20

	.type	.L.str.9,%object                @ @.str.9
.L.str.9:
	.asciz	"mount to '/flash' failed! try to mkfs %s"
	.size	.L.str.9, 41

	.type	.L.str.10,%object               @ @.str.10
.L.str.10:
	.asciz	"[I/app.filesystem] "
	.size	.L.str.10, 20

	.type	.L.str.11,%object               @ @.str.11
.L.str.11:
	.asciz	"mount to '/flash' success!"
	.size	.L.str.11, 27

	.type	.L.str.12,%object               @ @.str.12
.L.str.12:
	.asciz	"Can't create  block device  filesystem or bt_image partition."
	.size	.L.str.12, 62

	.type	.L.str.13,%object               @ @.str.13
.L.str.13:
	.asciz	"sd_mount"
	.size	.L.str.13, 9

	.type	.L.str.14,%object               @ @.str.14
.L.str.14:
	.asciz	"create sd_mount thread err!"
	.size	.L.str.14, 28

	.hidden	__rt_init_mount_init            @ @__rt_init_mount_init
	.type	__rt_init_mount_init,%object
	.section	.rti_fn.6,"a",%progbits
	.globl	__rt_init_mount_init
	.p2align	2
__rt_init_mount_init:
__tagsym$$used.0:
	.long	mount_init
	.size	__rt_init_mount_init, 4

	.type	.L.str.15,%object               @ @.str.15
	.section	.rodata.str1.1,"aMS",%progbits,1
.L.str.15:
	.asciz	"flash"
	.size	.L.str.15, 6

	.type	.L.str.16,%object               @ @.str.16
.L.str.16:
	.asciz	"sdcard"
	.size	.L.str.16, 7

	.type	.L.str.17,%object               @ @.str.17
.L.str.17:
	.asciz	"sd0"
	.size	.L.str.17, 4

	.type	.L.str.18,%object               @ @.str.18
.L.str.18:
	.asciz	"/sdcard"
	.size	.L.str.18, 8

	.type	.L.str.19,%object               @ @.str.19
.L.str.19:
	.asciz	"elm"
	.size	.L.str.19, 4

	.type	.L.str.20,%object               @ @.str.20
.L.str.20:
	.asciz	"sd card mount to '/sdcard'"
	.size	.L.str.20, 27

	.type	.L.str.21,%object               @ @.str.21
.L.str.21:
	.asciz	"sd card mount to '/sdcard' failed!"
	.size	.L.str.21, 35

	.type	.L.str.22,%object               @ @.str.22
.L.str.22:
	.asciz	"Unmount \"/sdcard\""
	.size	.L.str.22, 18

	.globl	__rt_init_mount_init
	.section	".note.GNU-stack","",%progbits
	.eabi_attribute	30, 6	@ Tag_ABI_optimization_goals
	.ARM_attribute	16, 1	@ Tag_AV_eba