	.text
	.syntax unified
	.eabi_attribute	67, "2.09"	@ Tag_conformance
	.cpu	cortex-m7
	.eabi_attribute	6, 13	@ Tag_CPU_arch
	.eabi_attribute	7, 77	@ Tag_CPU_arch_profile
	.eabi_attribute	8, 0	@ Tag_ARM_ISA_use
	.eabi_attribute	9, 2	@ Tag_THUMB_ISA_use
	.fpu	fpv5-d16
	.eabi_attribute	36, 1	@ Tag_FP_HP_extension
	.eabi_attribute	34, 1	@ Tag_CPU_unaligned_access
	.eabi_attribute	17, 1	@ Tag_ABI_PCS_GOT_use
	.eabi_attribute	20, 2	@ Tag_ABI_FP_denormal
	.eabi_attribute	21, 0	@ Tag_ABI_FP_exceptions
	.eabi_attribute	23, 1	@ Tag_ABI_FP_number_model
	.eabi_attribute	24, 1	@ Tag_ABI_align_needed
	.eabi_attribute	25, 1	@ Tag_ABI_align_preserved
	.eabi_attribute	28, 1	@ Tag_ABI_VFP_args
	.eabi_attribute	38, 1	@ Tag_ABI_FP_16bit_format
	.eabi_attribute	18, 2	@ Tag_ABI_PCS_wchar_t
	.eabi_attribute	26, 1	@ Tag_ABI_enum_size
	.eabi_attribute	14, 0	@ Tag_ABI_PCS_R9_use
	.file	"finsh_ops.c"
	.file	1 "E:\\STM32\\Learning\\STM32H750_ART_PI_RGBLCD" "rt-thread/components/finsh/finsh_ops.h"
	.file	2 "E:\\STM32\\Learning\\STM32H750_ART_PI_RGBLCD" "rt-thread/components/finsh/finsh_ops.c"
	.file	3 "E:\\STM32\\Learning\\STM32H750_ART_PI_RGBLCD" "rt-thread/include\\rtdef.h"
	.section	.text.OP_no_op,"ax",%progbits
	.hidden	OP_no_op                        @ -- Begin function OP_no_op
	.globl	OP_no_op
	.p2align	3
	.type	OP_no_op,%function
	.code	16                              @ @OP_no_op
	.thumb_func
OP_no_op:
.Lfunc_begin0:
	.loc	2 30 0                          @ rt-thread/components/finsh/finsh_ops.c:30:0
	.fnstart
	.cfi_sections .debug_frame
	.cfi_startproc
@ %bb.0:
	.loc	2 32 5 prologue_end             @ rt-thread/components/finsh/finsh_ops.c:32:5
	bx	lr
.Ltmp0:
.Lfunc_end0:
	.size	OP_no_op, .Lfunc_end0-OP_no_op
	.cfi_endproc
	.cantunwind
	.fnend
                                        @ -- End function
	.section	.text.OP_add_byte,"ax",%progbits
	.hidden	OP_add_byte                     @ -- Begin function OP_add_byte
	.globl	OP_add_byte
	.p2align	3
	.type	OP_add_byte,%function
	.code	16                              @ @OP_add_byte
	.thumb_func
OP_add_byte:
.Lfunc_begin1:
	.loc	2 37 0                          @ rt-thread/components/finsh/finsh_ops.c:37:0
	.fnstart
	.cfi_startproc
@ %bb.0:
	.loc	2 38 5 prologue_end             @ rt-thread/components/finsh/finsh_ops.c:38:5
	b	.LBB1_1
.LBB1_1:
.Ltmp1:
	.loc	2 38 5 is_stmt 0                @ rt-thread/components/finsh/finsh_ops.c:38:5
	movw	r1, :lower16:finsh_sp
	movt	r1, :upper16:finsh_sp
	ldr	r2, [r1]
	ldrb	r0, [r2, #-8]
	ldrb	r3, [r2, #-4]
	add	r0, r3
	strb	r0, [r2, #-8]
	ldr	r0, [r1]
	subs	r0, #4
	str	r0, [r1]
	b	.LBB1_2
.Ltmp2:
.LBB1_2:
	.loc	2 40 5 is_stmt 1                @ rt-thread/components/finsh/finsh_ops.c:40:5
	bx	lr
.Ltmp3:
.Lfunc_end1:
	.size	OP_add_byte, .Lfunc_end1-OP_add_byte
	.cfi_endproc
	.cantunwind
	.fnend
                                        @ -- End function
	.section	.text.OP_add_word,"ax",%progbits
	.hidden	OP_add_word                     @ -- Begin function OP_add_word
	.globl	OP_add_word
	.p2align	3
	.type	OP_add_word,%function
	.code	16                              @ @OP_add_word
	.thumb_func
OP_add_word:
.Lfunc_begin2:
	.loc	2 44 0                          @ rt-thread/components/finsh/finsh_ops.c:44:0
	.fnstart
	.cfi_startproc
@ %bb.0:
	.loc	2 45 5 prologue_end             @ rt-thread/components/finsh/finsh_ops.c:45:5
	b	.LBB2_1
.LBB2_1:
.Ltmp4:
	.loc	2 45 5 is_stmt 0                @ rt-thread/components/finsh/finsh_ops.c:45:5
	movw	r1, :lower16:finsh_sp
	movt	r1, :upper16:finsh_sp
	ldr	r2, [r1]
	ldrh	r0, [r2, #-8]
	ldrh	r3, [r2, #-4]
	add	r0, r3
	strh	r0, [r2, #-8]
	ldr	r0, [r1]
	subs	r0, #4
	str	r0, [r1]
	b	.LBB2_2
.Ltmp5:
.LBB2_2:
	.loc	2 47 5 is_stmt 1                @ rt-thread/components/finsh/finsh_ops.c:47:5
	bx	lr
.Ltmp6:
.Lfunc_end2:
	.size	OP_add_word, .Lfunc_end2-OP_add_word
	.cfi_endproc
	.cantunwind
	.fnend
                                        @ -- End function
	.section	.text.OP_add_dword,"ax",%progbits
	.hidden	OP_add_dword                    @ -- Begin function OP_add_dword
	.globl	OP_add_dword
	.p2align	3
	.type	OP_add_dword,%function
	.code	16                              @ @OP_add_dword
	.thumb_func
OP_add_dword:
.Lfunc_begin3:
	.loc	2 51 0                          @ rt-thread/components/finsh/finsh_ops.c:51:0
	.fnstart
	.cfi_startproc
@ %bb.0:
	.loc	2 52 5 prologue_end             @ rt-thread/components/finsh/finsh_ops.c:52:5
	b	.LBB3_1
.LBB3_1:
.Ltmp7:
	.loc	2 52 5 is_stmt 0                @ rt-thread/components/finsh/finsh_ops.c:52:5
	movw	r1, :lower16:finsh_sp
	movt	r1, :upper16:finsh_sp
	ldr	r2, [r1]
	ldr	r0, [r2, #-8]
	ldr	r3, [r2, #-4]
	add	r0, r3
	str	r0, [r2, #-8]
	ldr	r0, [r1]
	subs	r0, #4
	str	r0, [r1]
	b	.LBB3_2
.Ltmp8:
.LBB3_2:
	.loc	2 54 5 is_stmt 1                @ rt-thread/components/finsh/finsh_ops.c:54:5
	bx	lr
.Ltmp9:
.Lfunc_end3:
	.size	OP_add_dword, .Lfunc_end3-OP_add_dword
	.cfi_endproc
	.cantunwind
	.fnend
                                        @ -- End function
	.section	.text.OP_sub_byte,"ax",%progbits
	.hidden	OP_sub_byte                     @ -- Begin function OP_sub_byte
	.globl	OP_sub_byte
	.p2align	3
	.type	OP_sub_byte,%function
	.code	16                              @ @OP_sub_byte
	.thumb_func
OP_sub_byte:
.Lfunc_begin4:
	.loc	2 59 0                          @ rt-thread/components/finsh/finsh_ops.c:59:0
	.fnstart
	.cfi_startproc
@ %bb.0:
	.loc	2 60 5 prologue_end             @ rt-thread/components/finsh/finsh_ops.c:60:5
	b	.LBB4_1
.LBB4_1:
.Ltmp10:
	.loc	2 60 5 is_stmt 0                @ rt-thread/components/finsh/finsh_ops.c:60:5
	movw	r1, :lower16:finsh_sp
	movt	r1, :upper16:finsh_sp
	ldr	r2, [r1]
	ldrb	r0, [r2, #-8]
	ldrb	r3, [r2, #-4]
	subs	r0, r0, r3
	strb	r0, [r2, #-8]
	ldr	r0, [r1]
	subs	r0, #4
	str	r0, [r1]
	b	.LBB4_2
.Ltmp11:
.LBB4_2:
	.loc	2 62 5 is_stmt 1                @ rt-thread/components/finsh/finsh_ops.c:62:5
	bx	lr
.Ltmp12:
.Lfunc_end4:
	.size	OP_sub_byte, .Lfunc_end4-OP_sub_byte
	.cfi_endproc
	.cantunwind
	.fnend
                                        @ -- End function
	.section	.text.OP_sub_word,"ax",%progbits
	.hidden	OP_sub_word                     @ -- Begin function OP_sub_word
	.globl	OP_sub_word
	.p2align	3
	.type	OP_sub_word,%function
	.code	16                              @ @OP_sub_word
	.thumb_func
OP_sub_word:
.Lfunc_begin5:
	.loc	2 66 0                          @ rt-thread/components/finsh/finsh_ops.c:66:0
	.fnstart
	.cfi_startproc
@ %bb.0:
	.loc	2 67 5 prologue_end             @ rt-thread/components/finsh/finsh_ops.c:67:5
	b	.LBB5_1
.LBB5_1:
.Ltmp13:
	.loc	2 67 5 is_stmt 0                @ rt-thread/components/finsh/finsh_ops.c:67:5
	movw	r1, :lower16:finsh_sp
	movt	r1, :upper16:finsh_sp
	ldr	r2, [r1]
	ldrh	r0, [r2, #-8]
	ldrh	r3, [r2, #-4]
	subs	r0, r0, r3
	strh	r0, [r2, #-8]
	ldr	r0, [r1]
	subs	r0, #4
	str	r0, [r1]
	b	.LBB5_2
.Ltmp14:
.LBB5_2:
	.loc	2 69 5 is_stmt 1                @ rt-thread/components/finsh/finsh_ops.c:69:5
	bx	lr
.Ltmp15:
.Lfunc_end5:
	.size	OP_sub_word, .Lfunc_end5-OP_sub_word
	.cfi_endproc
	.cantunwind
	.fnend
                                        @ -- End function
	.section	.text.OP_sub_dword,"ax",%progbits
	.hidden	OP_sub_dword                    @ -- Begin function OP_sub_dword
	.globl	OP_sub_dword
	.p2align	3
	.type	OP_sub_dword,%function
	.code	16                              @ @OP_sub_dword
	.thumb_func
OP_sub_dword:
.Lfunc_begin6:
	.loc	2 73 0                          @ rt-thread/components/finsh/finsh_ops.c:73:0
	.fnstart
	.cfi_startproc
@ %bb.0:
	.loc	2 74 5 prologue_end             @ rt-thread/components/finsh/finsh_ops.c:74:5
	b	.LBB6_1
.LBB6_1:
.Ltmp16:
	.loc	2 74 5 is_stmt 0                @ rt-thread/components/finsh/finsh_ops.c:74:5
	movw	r1, :lower16:finsh_sp
	movt	r1, :upper16:finsh_sp
	ldr	r2, [r1]
	ldr	r0, [r2, #-8]
	ldr	r3, [r2, #-4]
	subs	r0, r0, r3
	str	r0, [r2, #-8]
	ldr	r0, [r1]
	subs	r0, #4
	str	r0, [r1]
	b	.LBB6_2
.Ltmp17:
.LBB6_2:
	.loc	2 76 5 is_stmt 1                @ rt-thread/components/finsh/finsh_ops.c:76:5
	bx	lr
.Ltmp18:
.Lfunc_end6:
	.size	OP_sub_dword, .Lfunc_end6-OP_sub_dword
	.cfi_endproc
	.cantunwind
	.fnend
                                        @ -- End function
	.section	.text.OP_div_byte,"ax",%progbits
	.hidden	OP_div_byte                     @ -- Begin function OP_div_byte
	.globl	OP_div_byte
	.p2align	3
	.type	OP_div_byte,%function
	.code	16                              @ @OP_div_byte
	.thumb_func
OP_div_byte:
.Lfunc_begin7:
	.loc	2 81 0                          @ rt-thread/components/finsh/finsh_ops.c:81:0
	.fnstart
	.cfi_startproc
@ %bb.0:
	.loc	2 82 5 prologue_end             @ rt-thread/components/finsh/finsh_ops.c:82:5
	b	.LBB7_1
.LBB7_1:
.Ltmp19:
	.loc	2 82 5 is_stmt 0                @ rt-thread/components/finsh/finsh_ops.c:82:5
	movw	r1, :lower16:finsh_sp
	movt	r1, :upper16:finsh_sp
	ldr	r2, [r1]
	ldrsb	r0, [r2, #-8]
	ldrsb	r3, [r2, #-4]
	sdiv	r0, r0, r3
	strb	r0, [r2, #-8]
	ldr	r0, [r1]
	subs	r0, #4
	str	r0, [r1]
	b	.LBB7_2
.Ltmp20:
.LBB7_2:
	.loc	2 84 5 is_stmt 1                @ rt-thread/components/finsh/finsh_ops.c:84:5
	bx	lr
.Ltmp21:
.Lfunc_end7:
	.size	OP_div_byte, .Lfunc_end7-OP_div_byte
	.cfi_endproc
	.cantunwind
	.fnend
                                        @ -- End function
	.section	.text.OP_div_word,"ax",%progbits
	.hidden	OP_div_word                     @ -- Begin function OP_div_word
	.globl	OP_div_word
	.p2align	3
	.type	OP_div_word,%function
	.code	16                              @ @OP_div_word
	.thumb_func
OP_div_word:
.Lfunc_begin8:
	.loc	2 88 0                          @ rt-thread/components/finsh/finsh_ops.c:88:0
	.fnstart
	.cfi_startproc
@ %bb.0:
	.loc	2 89 5 prologue_end             @ rt-thread/components/finsh/finsh_ops.c:89:5
	b	.LBB8_1
.LBB8_1:
.Ltmp22:
	.loc	2 89 5 is_stmt 0                @ rt-thread/components/finsh/finsh_ops.c:89:5
	movw	r1, :lower16:finsh_sp
	movt	r1, :upper16:finsh_sp
	ldr	r2, [r1]
	ldrsh	r0, [r2, #-8]
	ldrsh	r3, [r2, #-4]
	sdiv	r0, r0, r3
	strh	r0, [r2, #-8]
	ldr	r0, [r1]
	subs	r0, #4
	str	r0, [r1]
	b	.LBB8_2
.Ltmp23:
.LBB8_2:
	.loc	2 91 5 is_stmt 1                @ rt-thread/components/finsh/finsh_ops.c:91:5
	bx	lr
.Ltmp24:
.Lfunc_end8:
	.size	OP_div_word, .Lfunc_end8-OP_div_word
	.cfi_endproc
	.cantunwind
	.fnend
                                        @ -- End function
	.section	.text.OP_div_dword,"ax",%progbits
	.hidden	OP_div_dword                    @ -- Begin function OP_div_dword
	.globl	OP_div_dword
	.p2align	3
	.type	OP_div_dword,%function
	.code	16                              @ @OP_div_dword
	.thumb_func
OP_div_dword:
.Lfunc_begin9:
	.loc	2 95 0                          @ rt-thread/components/finsh/finsh_ops.c:95:0
	.fnstart
	.cfi_startproc
@ %bb.0:
	.loc	2 96 5 prologue_end             @ rt-thread/components/finsh/finsh_ops.c:96:5
	b	.LBB9_1
.LBB9_1:
.Ltmp25:
	.loc	2 96 5 is_stmt 0                @ rt-thread/components/finsh/finsh_ops.c:96:5
	movw	r1, :lower16:finsh_sp
	movt	r1, :upper16:finsh_sp
	ldr	r2, [r1]
	ldr	r0, [r2, #-8]
	ldr	r3, [r2, #-4]
	sdiv	r0, r0, r3
	str	r0, [r2, #-8]
	ldr	r0, [r1]
	subs	r0, #4
	str	r0, [r1]
	b	.LBB9_2
.Ltmp26:
.LBB9_2:
	.loc	2 98 5 is_stmt 1                @ rt-thread/components/finsh/finsh_ops.c:98:5
	bx	lr
.Ltmp27:
.Lfunc_end9:
	.size	OP_div_dword, .Lfunc_end9-OP_div_dword
	.cfi_endproc
	.cantunwind
	.fnend
                                        @ -- End function
	.section	.text.OP_mod_byte,"ax",%progbits
	.hidden	OP_mod_byte                     @ -- Begin function OP_mod_byte
	.globl	OP_mod_byte
	.p2align	3
	.type	OP_mod_byte,%function
	.code	16                              @ @OP_mod_byte
	.thumb_func
OP_mod_byte:
.Lfunc_begin10:
	.loc	2 103 0                         @ rt-thread/components/finsh/finsh_ops.c:103:0
	.fnstart
	.cfi_startproc
@ %bb.0:
	.loc	2 104 5 prologue_end            @ rt-thread/components/finsh/finsh_ops.c:104:5
	b	.LBB10_1
.LBB10_1:
.Ltmp28:
	.loc	2 104 5 is_stmt 0               @ rt-thread/components/finsh/finsh_ops.c:104:5
	movw	r1, :lower16:finsh_sp
	movt	r1, :upper16:finsh_sp
	ldr	r2, [r1]
	ldrsb	r12, [r2, #-8]
	ldrsb	r3, [r2, #-4]
	sdiv	r0, r12, r3
	mls	r0, r0, r3, r12
	strb	r0, [r2, #-8]
	ldr	r0, [r1]
	subs	r0, #4
	str	r0, [r1]
	b	.LBB10_2
.Ltmp29:
.LBB10_2:
	.loc	2 106 5 is_stmt 1               @ rt-thread/components/finsh/finsh_ops.c:106:5
	bx	lr
.Ltmp30:
.Lfunc_end10:
	.size	OP_mod_byte, .Lfunc_end10-OP_mod_byte
	.cfi_endproc
	.cantunwind
	.fnend
                                        @ -- End function
	.section	.text.OP_mod_word,"ax",%progbits
	.hidden	OP_mod_word                     @ -- Begin function OP_mod_word
	.globl	OP_mod_word
	.p2align	3
	.type	OP_mod_word,%function
	.code	16                              @ @OP_mod_word
	.thumb_func
OP_mod_word:
.Lfunc_begin11:
	.loc	2 110 0                         @ rt-thread/components/finsh/finsh_ops.c:110:0
	.fnstart
	.cfi_startproc
@ %bb.0:
	.loc	2 111 5 prologue_end            @ rt-thread/components/finsh/finsh_ops.c:111:5
	b	.LBB11_1
.LBB11_1:
.Ltmp31:
	.loc	2 111 5 is_stmt 0               @ rt-thread/components/finsh/finsh_ops.c:111:5
	movw	r1, :lower16:finsh_sp
	movt	r1, :upper16:finsh_sp
	ldr	r2, [r1]
	ldrsh	r12, [r2, #-8]
	ldrsh	r3, [r2, #-4]
	sdiv	r0, r12, r3
	mls	r0, r0, r3, r12
	strh	r0, [r2, #-8]
	ldr	r0, [r1]
	subs	r0, #4
	str	r0, [r1]
	b	.LBB11_2
.Ltmp32:
.LBB11_2:
	.loc	2 113 5 is_stmt 1               @ rt-thread/components/finsh/finsh_ops.c:113:5
	bx	lr
.Ltmp33:
.Lfunc_end11:
	.size	OP_mod_word, .Lfunc_end11-OP_mod_word
	.cfi_endproc
	.cantunwind
	.fnend
                                        @ -- End function
	.section	.text.OP_mod_dword,"ax",%progbits
	.hidden	OP_mod_dword                    @ -- Begin function OP_mod_dword
	.globl	OP_mod_dword
	.p2align	3
	.type	OP_mod_dword,%function
	.code	16                              @ @OP_mod_dword
	.thumb_func
OP_mod_dword:
.Lfunc_begin12:
	.loc	2 117 0                         @ rt-thread/components/finsh/finsh_ops.c:117:0
	.fnstart
	.cfi_startproc
@ %bb.0:
	.loc	2 118 5 prologue_end            @ rt-thread/components/finsh/finsh_ops.c:118:5
	b	.LBB12_1
.LBB12_1:
.Ltmp34:
	.loc	2 118 5 is_stmt 0               @ rt-thread/components/finsh/finsh_ops.c:118:5
	movw	r1, :lower16:finsh_sp
	movt	r1, :upper16:finsh_sp
	ldr	r2, [r1]
	ldr	r12, [r2, #-8]
	ldr	r3, [r2, #-4]
	sdiv	r0, r12, r3
	mls	r0, r0, r3, r12
	str	r0, [r2, #-8]
	ldr	r0, [r1]
	subs	r0, #4
	str	r0, [r1]
	b	.LBB12_2
.Ltmp35:
.LBB12_2:
	.loc	2 120 5 is_stmt 1               @ rt-thread/components/finsh/finsh_ops.c:120:5
	bx	lr
.Ltmp36:
.Lfunc_end12:
	.size	OP_mod_dword, .Lfunc_end12-OP_mod_dword
	.cfi_endproc
	.cantunwind
	.fnend
                                        @ -- End function
	.section	.text.OP_mul_byte,"ax",%progbits
	.hidden	OP_mul_byte                     @ -- Begin function OP_mul_byte
	.globl	OP_mul_byte
	.p2align	3
	.type	OP_mul_byte,%function
	.code	16                              @ @OP_mul_byte
	.thumb_func
OP_mul_byte:
.Lfunc_begin13:
	.loc	2 125 0                         @ rt-thread/components/finsh/finsh_ops.c:125:0
	.fnstart
	.cfi_startproc
@ %bb.0:
	.loc	2 126 5 prologue_end            @ rt-thread/components/finsh/finsh_ops.c:126:5
	b	.LBB13_1
.LBB13_1:
.Ltmp37:
	.loc	2 126 5 is_stmt 0               @ rt-thread/components/finsh/finsh_ops.c:126:5
	movw	r1, :lower16:finsh_sp
	movt	r1, :upper16:finsh_sp
	ldr	r2, [r1]
	ldrb	r0, [r2, #-8]
	ldrb	r3, [r2, #-4]
	muls	r0, r3, r0
	strb	r0, [r2, #-8]
	ldr	r0, [r1]
	subs	r0, #4
	str	r0, [r1]
	b	.LBB13_2
.Ltmp38:
.LBB13_2:
	.loc	2 128 5 is_stmt 1               @ rt-thread/components/finsh/finsh_ops.c:128:5
	bx	lr
.Ltmp39:
.Lfunc_end13:
	.size	OP_mul_byte, .Lfunc_end13-OP_mul_byte
	.cfi_endproc
	.cantunwind
	.fnend
                                        @ -- End function
	.section	.text.OP_mul_word,"ax",%progbits
	.hidden	OP_mul_word                     @ -- Begin function OP_mul_word
	.globl	OP_mul_word
	.p2align	3
	.type	OP_mul_word,%function
	.code	16                              @ @OP_mul_word
	.thumb_func
OP_mul_word:
.Lfunc_begin14:
	.loc	2 132 0                         @ rt-thread/components/finsh/finsh_ops.c:132:0
	.fnstart
	.cfi_startproc
@ %bb.0:
	.loc	2 133 5 prologue_end            @ rt-thread/components/finsh/finsh_ops.c:133:5
	b	.LBB14_1
.LBB14_1:
.Ltmp40:
	.loc	2 133 5 is_stmt 0               @ rt-thread/components/finsh/finsh_ops.c:133:5
	movw	r1, :lower16:finsh_sp
	movt	r1, :upper16:finsh_sp
	ldr	r2, [r1]
	ldrh	r0, [r2, #-8]
	ldrh	r3, [r2, #-4]
	muls	r0, r3, r0
	strh	r0, [r2, #-8]
	ldr	r0, [r1]
	subs	r0, #4
	str	r0, [r1]
	b	.LBB14_2
.Ltmp41:
.LBB14_2:
	.loc	2 135 5 is_stmt 1               @ rt-thread/components/finsh/finsh_ops.c:135:5
	bx	lr
.Ltmp42:
.Lfunc_end14:
	.size	OP_mul_word, .Lfunc_end14-OP_mul_word
	.cfi_endproc
	.cantunwind
	.fnend
                                        @ -- End function
	.section	.text.OP_mul_dword,"ax",%progbits
	.hidden	OP_mul_dword                    @ -- Begin function OP_mul_dword
	.globl	OP_mul_dword
	.p2align	3
	.type	OP_mul_dword,%function
	.code	16                              @ @OP_mul_dword
	.thumb_func
OP_mul_dword:
.Lfunc_begin15:
	.loc	2 139 0                         @ rt-thread/components/finsh/finsh_ops.c:139:0
	.fnstart
	.cfi_startproc
@ %bb.0:
	.loc	2 140 5 prologue_end            @ rt-thread/components/finsh/finsh_ops.c:140:5
	b	.LBB15_1
.LBB15_1:
.Ltmp43:
	.loc	2 140 5 is_stmt 0               @ rt-thread/components/finsh/finsh_ops.c:140:5
	movw	r1, :lower16:finsh_sp
	movt	r1, :upper16:finsh_sp
	ldr	r2, [r1]
	ldr	r0, [r2, #-8]
	ldr	r3, [r2, #-4]
	muls	r0, r3, r0
	str	r0, [r2, #-8]
	ldr	r0, [r1]
	subs	r0, #4
	str	r0, [r1]
	b	.LBB15_2
.Ltmp44:
.LBB15_2:
	.loc	2 142 5 is_stmt 1               @ rt-thread/components/finsh/finsh_ops.c:142:5
	bx	lr
.Ltmp45:
.Lfunc_end15:
	.size	OP_mul_dword, .Lfunc_end15-OP_mul_dword
	.cfi_endproc
	.cantunwind
	.fnend
                                        @ -- End function
	.section	.text.OP_and_byte,"ax",%progbits
	.hidden	OP_and_byte                     @ -- Begin function OP_and_byte
	.globl	OP_and_byte
	.p2align	3
	.type	OP_and_byte,%function
	.code	16                              @ @OP_and_byte
	.thumb_func
OP_and_byte:
.Lfunc_begin16:
	.loc	2 147 0                         @ rt-thread/components/finsh/finsh_ops.c:147:0
	.fnstart
	.cfi_startproc
@ %bb.0:
	.loc	2 148 5 prologue_end            @ rt-thread/components/finsh/finsh_ops.c:148:5
	b	.LBB16_1
.LBB16_1:
.Ltmp46:
	.loc	2 148 5 is_stmt 0               @ rt-thread/components/finsh/finsh_ops.c:148:5
	movw	r1, :lower16:finsh_sp
	movt	r1, :upper16:finsh_sp
	ldr	r2, [r1]
	ldrb	r0, [r2, #-8]
	ldrb	r3, [r2, #-4]
	ands	r0, r3
	strb	r0, [r2, #-8]
	ldr	r0, [r1]
	subs	r0, #4
	str	r0, [r1]
	b	.LBB16_2
.Ltmp47:
.LBB16_2:
	.loc	2 150 5 is_stmt 1               @ rt-thread/components/finsh/finsh_ops.c:150:5
	bx	lr
.Ltmp48:
.Lfunc_end16:
	.size	OP_and_byte, .Lfunc_end16-OP_and_byte
	.cfi_endproc
	.cantunwind
	.fnend
                                        @ -- End function
	.section	.text.OP_and_word,"ax",%progbits
	.hidden	OP_and_word                     @ -- Begin function OP_and_word
	.globl	OP_and_word
	.p2align	3
	.type	OP_and_word,%function
	.code	16                              @ @OP_and_word
	.thumb_func
OP_and_word:
.Lfunc_begin17:
	.loc	2 154 0                         @ rt-thread/components/finsh/finsh_ops.c:154:0
	.fnstart
	.cfi_startproc
@ %bb.0:
	.loc	2 155 5 prologue_end            @ rt-thread/components/finsh/finsh_ops.c:155:5
	b	.LBB17_1
.LBB17_1:
.Ltmp49:
	.loc	2 155 5 is_stmt 0               @ rt-thread/components/finsh/finsh_ops.c:155:5
	movw	r1, :lower16:finsh_sp
	movt	r1, :upper16:finsh_sp
	ldr	r2, [r1]
	ldrh	r0, [r2, #-8]
	ldrh	r3, [r2, #-4]
	ands	r0, r3
	strh	r0, [r2, #-8]
	ldr	r0, [r1]
	subs	r0, #4
	str	r0, [r1]
	b	.LBB17_2
.Ltmp50:
.LBB17_2:
	.loc	2 157 5 is_stmt 1               @ rt-thread/components/finsh/finsh_ops.c:157:5
	bx	lr
.Ltmp51:
.Lfunc_end17:
	.size	OP_and_word, .Lfunc_end17-OP_and_word
	.cfi_endproc
	.cantunwind
	.fnend
                                        @ -- End function
	.section	.text.OP_and_dword,"ax",%progbits
	.hidden	OP_and_dword                    @ -- Begin function OP_and_dword
	.globl	OP_and_dword
	.p2align	3
	.type	OP_and_dword,%function
	.code	16                              @ @OP_and_dword
	.thumb_func
OP_and_dword:
.Lfunc_begin18:
	.loc	2 161 0                         @ rt-thread/components/finsh/finsh_ops.c:161:0
	.fnstart
	.cfi_startproc
@ %bb.0:
	.loc	2 162 5 prologue_end            @ rt-thread/components/finsh/finsh_ops.c:162:5
	b	.LBB18_1
.LBB18_1:
.Ltmp52:
	.loc	2 162 5 is_stmt 0               @ rt-thread/components/finsh/finsh_ops.c:162:5
	movw	r1, :lower16:finsh_sp
	movt	r1, :upper16:finsh_sp
	ldr	r2, [r1]
	ldr	r0, [r2, #-8]
	ldr	r3, [r2, #-4]
	ands	r0, r3
	str	r0, [r2, #-8]
	ldr	r0, [r1]
	subs	r0, #4
	str	r0, [r1]
	b	.LBB18_2
.Ltmp53:
.LBB18_2:
	.loc	2 164 5 is_stmt 1               @ rt-thread/components/finsh/finsh_ops.c:164:5
	bx	lr
.Ltmp54:
.Lfunc_end18:
	.size	OP_and_dword, .Lfunc_end18-OP_and_dword
	.cfi_endproc
	.cantunwind
	.fnend
                                        @ -- End function
	.section	.text.OP_or_byte,"ax",%progbits
	.hidden	OP_or_byte                      @ -- Begin function OP_or_byte
	.globl	OP_or_byte
	.p2align	3
	.type	OP_or_byte,%function
	.code	16                              @ @OP_or_byte
	.thumb_func
OP_or_byte:
.Lfunc_begin19:
	.loc	2 169 0                         @ rt-thread/components/finsh/finsh_ops.c:169:0
	.fnstart
	.cfi_startproc
@ %bb.0:
	.loc	2 170 5 prologue_end            @ rt-thread/components/finsh/finsh_ops.c:170:5
	b	.LBB19_1
.LBB19_1:
.Ltmp55:
	.loc	2 170 5 is_stmt 0               @ rt-thread/components/finsh/finsh_ops.c:170:5
	movw	r1, :lower16:finsh_sp
	movt	r1, :upper16:finsh_sp
	ldr	r2, [r1]
	ldrb	r0, [r2, #-8]
	ldrb	r3, [r2, #-4]
	orrs	r0, r3
	strb	r0, [r2, #-8]
	ldr	r0, [r1]
	subs	r0, #4
	str	r0, [r1]
	b	.LBB19_2
.Ltmp56:
.LBB19_2:
	.loc	2 172 5 is_stmt 1               @ rt-thread/components/finsh/finsh_ops.c:172:5
	bx	lr
.Ltmp57:
.Lfunc_end19:
	.size	OP_or_byte, .Lfunc_end19-OP_or_byte
	.cfi_endproc
	.cantunwind
	.fnend
                                        @ -- End function
	.section	.text.OP_or_word,"ax",%progbits
	.hidden	OP_or_word                      @ -- Begin function OP_or_word
	.globl	OP_or_word
	.p2align	3
	.type	OP_or_word,%function
	.code	16                              @ @OP_or_word
	.thumb_func
OP_or_word:
.Lfunc_begin20:
	.loc	2 176 0                         @ rt-thread/components/finsh/finsh_ops.c:176:0
	.fnstart
	.cfi_startproc
@ %bb.0:
	.loc	2 177 5 prologue_end            @ rt-thread/components/finsh/finsh_ops.c:177:5
	b	.LBB20_1
.LBB20_1:
.Ltmp58:
	.loc	2 177 5 is_stmt 0               @ rt-thread/components/finsh/finsh_ops.c:177:5
	movw	r1, :lower16:finsh_sp
	movt	r1, :upper16:finsh_sp
	ldr	r2, [r1]
	ldrh	r0, [r2, #-8]
	ldrh	r3, [r2, #-4]
	orrs	r0, r3
	strh	r0, [r2, #-8]
	ldr	r0, [r1]
	subs	r0, #4
	str	r0, [r1]
	b	.LBB20_2
.Ltmp59:
.LBB20_2:
	.loc	2 179 5 is_stmt 1               @ rt-thread/components/finsh/finsh_ops.c:179:5
	bx	lr
.Ltmp60:
.Lfunc_end20:
	.size	OP_or_word, .Lfunc_end20-OP_or_word
	.cfi_endproc
	.cantunwind
	.fnend
                                        @ -- End function
	.section	.text.OP_or_dword,"ax",%progbits
	.hidden	OP_or_dword                     @ -- Begin function OP_or_dword
	.globl	OP_or_dword
	.p2align	3
	.type	OP_or_dword,%function
	.code	16                              @ @OP_or_dword
	.thumb_func
OP_or_dword:
.Lfunc_begin21:
	.loc	2 183 0                         @ rt-thread/components/finsh/finsh_ops.c:183:0
	.fnstart
	.cfi_startproc
@ %bb.0:
	.loc	2 184 5 prologue_end            @ rt-thread/components/finsh/finsh_ops.c:184:5
	b	.LBB21_1
.LBB21_1:
.Ltmp61:
	.loc	2 184 5 is_stmt 0               @ rt-thread/components/finsh/finsh_ops.c:184:5
	movw	r1, :lower16:finsh_sp
	movt	r1, :upper16:finsh_sp
	ldr	r2, [r1]
	ldr	r0, [r2, #-8]
	ldr	r3, [r2, #-4]
	orrs	r0, r3
	str	r0, [r2, #-8]
	ldr	r0, [r1]
	subs	r0, #4
	str	r0, [r1]
	b	.LBB21_2
.Ltmp62:
.LBB21_2:
	.loc	2 186 5 is_stmt 1               @ rt-thread/components/finsh/finsh_ops.c:186:5
	bx	lr
.Ltmp63:
.Lfunc_end21:
	.size	OP_or_dword, .Lfunc_end21-OP_or_dword
	.cfi_endproc
	.cantunwind
	.fnend
                                        @ -- End function
	.section	.text.OP_xor_byte,"ax",%progbits
	.hidden	OP_xor_byte                     @ -- Begin function OP_xor_byte
	.globl	OP_xor_byte
	.p2align	3
	.type	OP_xor_byte,%function
	.code	16                              @ @OP_xor_byte
	.thumb_func
OP_xor_byte:
.Lfunc_begin22:
	.loc	2 191 0                         @ rt-thread/components/finsh/finsh_ops.c:191:0
	.fnstart
	.cfi_startproc
@ %bb.0:
	.loc	2 192 5 prologue_end            @ rt-thread/components/finsh/finsh_ops.c:192:5
	b	.LBB22_1
.LBB22_1:
.Ltmp64:
	.loc	2 192 5 is_stmt 0               @ rt-thread/components/finsh/finsh_ops.c:192:5
	movw	r1, :lower16:finsh_sp
	movt	r1, :upper16:finsh_sp
	ldr	r2, [r1]
	ldrb	r0, [r2, #-8]
	ldrb	r3, [r2, #-4]
	eors	r0, r3
	strb	r0, [r2, #-8]
	ldr	r0, [r1]
	subs	r0, #4
	str	r0, [r1]
	b	.LBB22_2
.Ltmp65:
.LBB22_2:
	.loc	2 194 5 is_stmt 1               @ rt-thread/components/finsh/finsh_ops.c:194:5
	bx	lr
.Ltmp66:
.Lfunc_end22:
	.size	OP_xor_byte, .Lfunc_end22-OP_xor_byte
	.cfi_endproc
	.cantunwind
	.fnend
                                        @ -- End function
	.section	.text.OP_xor_word,"ax",%progbits
	.hidden	OP_xor_word                     @ -- Begin function OP_xor_word
	.globl	OP_xor_word
	.p2align	3
	.type	OP_xor_word,%function
	.code	16                              @ @OP_xor_word
	.thumb_func
OP_xor_word:
.Lfunc_begin23:
	.loc	2 198 0                         @ rt-thread/components/finsh/finsh_ops.c:198:0
	.fnstart
	.cfi_startproc
@ %bb.0:
	.loc	2 199 5 prologue_end            @ rt-thread/components/finsh/finsh_ops.c:199:5
	b	.LBB23_1
.LBB23_1:
.Ltmp67:
	.loc	2 199 5 is_stmt 0               @ rt-thread/components/finsh/finsh_ops.c:199:5
	movw	r1, :lower16:finsh_sp
	movt	r1, :upper16:finsh_sp
	ldr	r2, [r1]
	ldrh	r0, [r2, #-8]
	ldrh	r3, [r2, #-4]
	eors	r0, r3
	strh	r0, [r2, #-8]
	ldr	r0, [r1]
	subs	r0, #4
	str	r0, [r1]
	b	.LBB23_2
.Ltmp68:
.LBB23_2:
	.loc	2 201 5 is_stmt 1               @ rt-thread/components/finsh/finsh_ops.c:201:5
	bx	lr
.Ltmp69:
.Lfunc_end23:
	.size	OP_xor_word, .Lfunc_end23-OP_xor_word
	.cfi_endproc
	.cantunwind
	.fnend
                                        @ -- End function
	.section	.text.OP_xor_dword,"ax",%progbits
	.hidden	OP_xor_dword                    @ -- Begin function OP_xor_dword
	.globl	OP_xor_dword
	.p2align	3
	.type	OP_xor_dword,%function
	.code	16                              @ @OP_xor_dword
	.thumb_func
OP_xor_dword:
.Lfunc_begin24:
	.loc	2 205 0                         @ rt-thread/components/finsh/finsh_ops.c:205:0
	.fnstart
	.cfi_startproc
@ %bb.0:
	.loc	2 206 5 prologue_end            @ rt-thread/components/finsh/finsh_ops.c:206:5
	b	.LBB24_1
.LBB24_1:
.Ltmp70:
	.loc	2 206 5 is_stmt 0               @ rt-thread/components/finsh/finsh_ops.c:206:5
	movw	r1, :lower16:finsh_sp
	movt	r1, :upper16:finsh_sp
	ldr	r2, [r1]
	ldr	r0, [r2, #-8]
	ldr	r3, [r2, #-4]
	eors	r0, r3
	str	r0, [r2, #-8]
	ldr	r0, [r1]
	subs	r0, #4
	str	r0, [r1]
	b	.LBB24_2
.Ltmp71:
.LBB24_2:
	.loc	2 208 5 is_stmt 1               @ rt-thread/components/finsh/finsh_ops.c:208:5
	bx	lr
.Ltmp72:
.Lfunc_end24:
	.size	OP_xor_dword, .Lfunc_end24-OP_xor_dword
	.cfi_endproc
	.cantunwind
	.fnend
                                        @ -- End function
	.section	.text.OP_bw_byte,"ax",%progbits
	.hidden	OP_bw_byte                      @ -- Begin function OP_bw_byte
	.globl	OP_bw_byte
	.p2align	3
	.type	OP_bw_byte,%function
	.code	16                              @ @OP_bw_byte
	.thumb_func
OP_bw_byte:
.Lfunc_begin25:
	.loc	2 213 0                         @ rt-thread/components/finsh/finsh_ops.c:213:0
	.fnstart
	.cfi_startproc
@ %bb.0:
	.loc	2 214 38 prologue_end           @ rt-thread/components/finsh/finsh_ops.c:214:38
	movw	r0, :lower16:finsh_sp
	movt	r0, :upper16:finsh_sp
	ldr	r1, [r0]
	.loc	2 214 36 is_stmt 0              @ rt-thread/components/finsh/finsh_ops.c:214:36
	ldrb	r0, [r1, #-4]
	.loc	2 214 34                        @ rt-thread/components/finsh/finsh_ops.c:214:34
	mvns	r0, r0
	.loc	2 214 32                        @ rt-thread/components/finsh/finsh_ops.c:214:32
	strb	r0, [r1, #-4]
	.loc	2 216 5 is_stmt 1               @ rt-thread/components/finsh/finsh_ops.c:216:5
	bx	lr
.Ltmp73:
.Lfunc_end25:
	.size	OP_bw_byte, .Lfunc_end25-OP_bw_byte
	.cfi_endproc
	.cantunwind
	.fnend
                                        @ -- End function
	.section	.text.OP_bw_word,"ax",%progbits
	.hidden	OP_bw_word                      @ -- Begin function OP_bw_word
	.globl	OP_bw_word
	.p2align	3
	.type	OP_bw_word,%function
	.code	16                              @ @OP_bw_word
	.thumb_func
OP_bw_word:
.Lfunc_begin26:
	.loc	2 220 0                         @ rt-thread/components/finsh/finsh_ops.c:220:0
	.fnstart
	.cfi_startproc
@ %bb.0:
	.loc	2 221 39 prologue_end           @ rt-thread/components/finsh/finsh_ops.c:221:39
	movw	r0, :lower16:finsh_sp
	movt	r0, :upper16:finsh_sp
	ldr	r1, [r0]
	.loc	2 221 37 is_stmt 0              @ rt-thread/components/finsh/finsh_ops.c:221:37
	ldrh	r0, [r1, #-4]
	.loc	2 221 35                        @ rt-thread/components/finsh/finsh_ops.c:221:35
	mvns	r0, r0
	.loc	2 221 33                        @ rt-thread/components/finsh/finsh_ops.c:221:33
	strh	r0, [r1, #-4]
	.loc	2 223 5 is_stmt 1               @ rt-thread/components/finsh/finsh_ops.c:223:5
	bx	lr
.Ltmp74:
.Lfunc_end26:
	.size	OP_bw_word, .Lfunc_end26-OP_bw_word
	.cfi_endproc
	.cantunwind
	.fnend
                                        @ -- End function
	.section	.text.OP_bw_dword,"ax",%progbits
	.hidden	OP_bw_dword                     @ -- Begin function OP_bw_dword
	.globl	OP_bw_dword
	.p2align	3
	.type	OP_bw_dword,%function
	.code	16                              @ @OP_bw_dword
	.thumb_func
OP_bw_dword:
.Lfunc_begin27:
	.loc	2 227 0                         @ rt-thread/components/finsh/finsh_ops.c:227:0
	.fnstart
	.cfi_startproc
@ %bb.0:
	.loc	2 228 38 prologue_end           @ rt-thread/components/finsh/finsh_ops.c:228:38
	movw	r0, :lower16:finsh_sp
	movt	r0, :upper16:finsh_sp
	ldr	r1, [r0]
	.loc	2 228 53 is_stmt 0              @ rt-thread/components/finsh/finsh_ops.c:228:53
	ldr	r0, [r1, #-4]
	.loc	2 228 34                        @ rt-thread/components/finsh/finsh_ops.c:228:34
	mvns	r0, r0
	.loc	2 228 32                        @ rt-thread/components/finsh/finsh_ops.c:228:32
	str	r0, [r1, #-4]
	.loc	2 230 5 is_stmt 1               @ rt-thread/components/finsh/finsh_ops.c:230:5
	bx	lr
.Ltmp75:
.Lfunc_end27:
	.size	OP_bw_dword, .Lfunc_end27-OP_bw_dword
	.cfi_endproc
	.cantunwind
	.fnend
                                        @ -- End function
	.section	.text.OP_shl_byte,"ax",%progbits
	.hidden	OP_shl_byte                     @ -- Begin function OP_shl_byte
	.globl	OP_shl_byte
	.p2align	3
	.type	OP_shl_byte,%function
	.code	16                              @ @OP_shl_byte
	.thumb_func
OP_shl_byte:
.Lfunc_begin28:
	.loc	2 235 0                         @ rt-thread/components/finsh/finsh_ops.c:235:0
	.fnstart
	.cfi_startproc
@ %bb.0:
	.loc	2 236 5 prologue_end            @ rt-thread/components/finsh/finsh_ops.c:236:5
	b	.LBB28_1
.LBB28_1:
.Ltmp76:
	.loc	2 236 5 is_stmt 0               @ rt-thread/components/finsh/finsh_ops.c:236:5
	movw	r1, :lower16:finsh_sp
	movt	r1, :upper16:finsh_sp
	ldr	r2, [r1]
	ldrsb	r0, [r2, #-8]
	ldrsb	r3, [r2, #-4]
	lsls	r0, r3
	strb	r0, [r2, #-8]
	ldr	r0, [r1]
	subs	r0, #4
	str	r0, [r1]
	b	.LBB28_2
.Ltmp77:
.LBB28_2:
	.loc	2 238 5 is_stmt 1               @ rt-thread/components/finsh/finsh_ops.c:238:5
	bx	lr
.Ltmp78:
.Lfunc_end28:
	.size	OP_shl_byte, .Lfunc_end28-OP_shl_byte
	.cfi_endproc
	.cantunwind
	.fnend
                                        @ -- End function
	.section	.text.OP_shl_word,"ax",%progbits
	.hidden	OP_shl_word                     @ -- Begin function OP_shl_word
	.globl	OP_shl_word
	.p2align	3
	.type	OP_shl_word,%function
	.code	16                              @ @OP_shl_word
	.thumb_func
OP_shl_word:
.Lfunc_begin29:
	.loc	2 242 0                         @ rt-thread/components/finsh/finsh_ops.c:242:0
	.fnstart
	.cfi_startproc
@ %bb.0:
	.loc	2 243 5 prologue_end            @ rt-thread/components/finsh/finsh_ops.c:243:5
	b	.LBB29_1
.LBB29_1:
.Ltmp79:
	.loc	2 243 5 is_stmt 0               @ rt-thread/components/finsh/finsh_ops.c:243:5
	movw	r1, :lower16:finsh_sp
	movt	r1, :upper16:finsh_sp
	ldr	r2, [r1]
	ldrsh	r0, [r2, #-8]
	ldrsh	r3, [r2, #-4]
	lsls	r0, r3
	strh	r0, [r2, #-8]
	ldr	r0, [r1]
	subs	r0, #4
	str	r0, [r1]
	b	.LBB29_2
.Ltmp80:
.LBB29_2:
	.loc	2 245 5 is_stmt 1               @ rt-thread/components/finsh/finsh_ops.c:245:5
	bx	lr
.Ltmp81:
.Lfunc_end29:
	.size	OP_shl_word, .Lfunc_end29-OP_shl_word
	.cfi_endproc
	.cantunwind
	.fnend
                                        @ -- End function
	.section	.text.OP_shl_dword,"ax",%progbits
	.hidden	OP_shl_dword                    @ -- Begin function OP_shl_dword
	.globl	OP_shl_dword
	.p2align	3
	.type	OP_shl_dword,%function
	.code	16                              @ @OP_shl_dword
	.thumb_func
OP_shl_dword:
.Lfunc_begin30:
	.loc	2 249 0                         @ rt-thread/components/finsh/finsh_ops.c:249:0
	.fnstart
	.cfi_startproc
@ %bb.0:
	.loc	2 250 5 prologue_end            @ rt-thread/components/finsh/finsh_ops.c:250:5
	b	.LBB30_1
.LBB30_1:
.Ltmp82:
	.loc	2 250 5 is_stmt 0               @ rt-thread/components/finsh/finsh_ops.c:250:5
	movw	r1, :lower16:finsh_sp
	movt	r1, :upper16:finsh_sp
	ldr	r2, [r1]
	ldr	r0, [r2, #-8]
	ldr	r3, [r2, #-4]
	lsls	r0, r3
	str	r0, [r2, #-8]
	ldr	r0, [r1]
	subs	r0, #4
	str	r0, [r1]
	b	.LBB30_2
.Ltmp83:
.LBB30_2:
	.loc	2 252 5 is_stmt 1               @ rt-thread/components/finsh/finsh_ops.c:252:5
	bx	lr
.Ltmp84:
.Lfunc_end30:
	.size	OP_shl_dword, .Lfunc_end30-OP_shl_dword
	.cfi_endproc
	.cantunwind
	.fnend
                                        @ -- End function
	.section	.text.OP_shr_byte,"ax",%progbits
	.hidden	OP_shr_byte                     @ -- Begin function OP_shr_byte
	.globl	OP_shr_byte
	.p2align	3
	.type	OP_shr_byte,%function
	.code	16                              @ @OP_shr_byte
	.thumb_func
OP_shr_byte:
.Lfunc_begin31:
	.loc	2 257 0                         @ rt-thread/components/finsh/finsh_ops.c:257:0
	.fnstart
	.cfi_startproc
@ %bb.0:
	.loc	2 258 5 prologue_end            @ rt-thread/components/finsh/finsh_ops.c:258:5
	b	.LBB31_1
.LBB31_1:
.Ltmp85:
	.loc	2 258 5 is_stmt 0               @ rt-thread/components/finsh/finsh_ops.c:258:5
	movw	r1, :lower16:finsh_sp
	movt	r1, :upper16:finsh_sp
	ldr	r2, [r1]
	ldrsb	r0, [r2, #-8]
	ldrsb	r3, [r2, #-4]
	asrs	r0, r3
	strb	r0, [r2, #-8]
	ldr	r0, [r1]
	subs	r0, #4
	str	r0, [r1]
	b	.LBB31_2
.Ltmp86:
.LBB31_2:
	.loc	2 260 5 is_stmt 1               @ rt-thread/components/finsh/finsh_ops.c:260:5
	bx	lr
.Ltmp87:
.Lfunc_end31:
	.size	OP_shr_byte, .Lfunc_end31-OP_shr_byte
	.cfi_endproc
	.cantunwind
	.fnend
                                        @ -- End function
	.section	.text.OP_shr_word,"ax",%progbits
	.hidden	OP_shr_word                     @ -- Begin function OP_shr_word
	.globl	OP_shr_word
	.p2align	3
	.type	OP_shr_word,%function
	.code	16                              @ @OP_shr_word
	.thumb_func
OP_shr_word:
.Lfunc_begin32:
	.loc	2 264 0                         @ rt-thread/components/finsh/finsh_ops.c:264:0
	.fnstart
	.cfi_startproc
@ %bb.0:
	.loc	2 265 5 prologue_end            @ rt-thread/components/finsh/finsh_ops.c:265:5
	b	.LBB32_1
.LBB32_1:
.Ltmp88:
	.loc	2 265 5 is_stmt 0               @ rt-thread/components/finsh/finsh_ops.c:265:5
	movw	r1, :lower16:finsh_sp
	movt	r1, :upper16:finsh_sp
	ldr	r2, [r1]
	ldrsh	r0, [r2, #-8]
	ldrsh	r3, [r2, #-4]
	asrs	r0, r3
	strh	r0, [r2, #-8]
	ldr	r0, [r1]
	subs	r0, #4
	str	r0, [r1]
	b	.LBB32_2
.Ltmp89:
.LBB32_2:
	.loc	2 267 5 is_stmt 1               @ rt-thread/components/finsh/finsh_ops.c:267:5
	bx	lr
.Ltmp90:
.Lfunc_end32:
	.size	OP_shr_word, .Lfunc_end32-OP_shr_word
	.cfi_endproc
	.cantunwind
	.fnend
                                        @ -- End function
	.section	.text.OP_shr_dword,"ax",%progbits
	.hidden	OP_shr_dword                    @ -- Begin function OP_shr_dword
	.globl	OP_shr_dword
	.p2align	3
	.type	OP_shr_dword,%function
	.code	16                              @ @OP_shr_dword
	.thumb_func
OP_shr_dword:
.Lfunc_begin33:
	.loc	2 271 0                         @ rt-thread/components/finsh/finsh_ops.c:271:0
	.fnstart
	.cfi_startproc
@ %bb.0:
	.loc	2 272 5 prologue_end            @ rt-thread/components/finsh/finsh_ops.c:272:5
	b	.LBB33_1
.LBB33_1:
.Ltmp91:
	.loc	2 272 5 is_stmt 0               @ rt-thread/components/finsh/finsh_ops.c:272:5
	movw	r1, :lower16:finsh_sp
	movt	r1, :upper16:finsh_sp
	ldr	r2, [r1]
	ldr	r0, [r2, #-8]
	ldr	r3, [r2, #-4]
	asrs	r0, r3
	str	r0, [r2, #-8]
	ldr	r0, [r1]
	subs	r0, #4
	str	r0, [r1]
	b	.LBB33_2
.Ltmp92:
.LBB33_2:
	.loc	2 274 5 is_stmt 1               @ rt-thread/components/finsh/finsh_ops.c:274:5
	bx	lr
.Ltmp93:
.Lfunc_end33:
	.size	OP_shr_dword, .Lfunc_end33-OP_shr_dword
	.cfi_endproc
	.cantunwind
	.fnend
                                        @ -- End function
	.section	.text.OP_ld_byte,"ax",%progbits
	.hidden	OP_ld_byte                      @ -- Begin function OP_ld_byte
	.globl	OP_ld_byte
	.p2align	3
	.type	OP_ld_byte,%function
	.code	16                              @ @OP_ld_byte
	.thumb_func
OP_ld_byte:
.Lfunc_begin34:
	.loc	2 279 0                         @ rt-thread/components/finsh/finsh_ops.c:279:0
	.fnstart
	.cfi_startproc
@ %bb.0:
	.loc	2 280 29 prologue_end           @ rt-thread/components/finsh/finsh_ops.c:280:29
	movw	r1, :lower16:finsh_pc
	movt	r1, :upper16:finsh_pc
	ldr	r0, [r1]
	.loc	2 280 28 is_stmt 0              @ rt-thread/components/finsh/finsh_ops.c:280:28
	ldrb	r0, [r0]
	.loc	2 280 5                         @ rt-thread/components/finsh/finsh_ops.c:280:5
	movw	r2, :lower16:finsh_sp
	movt	r2, :upper16:finsh_sp
	ldr	r3, [r2]
	.loc	2 280 26                        @ rt-thread/components/finsh/finsh_ops.c:280:26
	strb	r0, [r3]
	.loc	2 282 13 is_stmt 1              @ rt-thread/components/finsh/finsh_ops.c:282:13
	ldr	r0, [r2]
	adds	r0, #4
	str	r0, [r2]
	.loc	2 283 13                        @ rt-thread/components/finsh/finsh_ops.c:283:13
	ldr	r0, [r1]
	adds	r0, #1
	str	r0, [r1]
	.loc	2 285 5                         @ rt-thread/components/finsh/finsh_ops.c:285:5
	bx	lr
.Ltmp94:
.Lfunc_end34:
	.size	OP_ld_byte, .Lfunc_end34-OP_ld_byte
	.cfi_endproc
	.cantunwind
	.fnend
                                        @ -- End function
	.section	.text.OP_ld_word,"ax",%progbits
	.hidden	OP_ld_word                      @ -- Begin function OP_ld_word
	.globl	OP_ld_word
	.p2align	3
	.type	OP_ld_word,%function
	.code	16                              @ @OP_ld_word
	.thumb_func
OP_ld_word:
.Lfunc_begin35:
	.loc	2 289 0                         @ rt-thread/components/finsh/finsh_ops.c:289:0
	.fnstart
	.cfi_startproc
@ %bb.0:
	.loc	2 290 29 prologue_end           @ rt-thread/components/finsh/finsh_ops.c:290:29
	movw	r1, :lower16:finsh_pc
	movt	r1, :upper16:finsh_pc
	ldr	r2, [r1]
	ldrb	r0, [r2]
	ldrb	r2, [r2, #1]
	orr.w	r0, r0, r2, lsl #8
	.loc	2 290 5 is_stmt 0               @ rt-thread/components/finsh/finsh_ops.c:290:5
	movw	r2, :lower16:finsh_sp
	movt	r2, :upper16:finsh_sp
	ldr	r3, [r2]
	.loc	2 290 27                        @ rt-thread/components/finsh/finsh_ops.c:290:27
	strh	r0, [r3]
	.loc	2 292 14 is_stmt 1              @ rt-thread/components/finsh/finsh_ops.c:292:14
	ldr	r0, [r2]
	adds	r0, #4
	str	r0, [r2]
	.loc	2 293 14                        @ rt-thread/components/finsh/finsh_ops.c:293:14
	ldr	r0, [r1]
	adds	r0, #2
	str	r0, [r1]
	.loc	2 295 5                         @ rt-thread/components/finsh/finsh_ops.c:295:5
	bx	lr
.Ltmp95:
.Lfunc_end35:
	.size	OP_ld_word, .Lfunc_end35-OP_ld_word
	.cfi_endproc
	.cantunwind
	.fnend
                                        @ -- End function
	.section	.text.OP_ld_dword,"ax",%progbits
	.hidden	OP_ld_dword                     @ -- Begin function OP_ld_dword
	.globl	OP_ld_dword
	.p2align	3
	.type	OP_ld_dword,%function
	.code	16                              @ @OP_ld_dword
	.thumb_func
OP_ld_dword:
.Lfunc_begin36:
	.loc	2 299 0                         @ rt-thread/components/finsh/finsh_ops.c:299:0
	.fnstart
	.cfi_startproc
@ %bb.0:
	.loc	2 300 28 prologue_end           @ rt-thread/components/finsh/finsh_ops.c:300:28
	movw	r1, :lower16:finsh_pc
	movt	r1, :upper16:finsh_pc
	ldr	r0, [r1]
	ldr	r0, [r0]
	.loc	2 300 5 is_stmt 0               @ rt-thread/components/finsh/finsh_ops.c:300:5
	movw	r2, :lower16:finsh_sp
	movt	r2, :upper16:finsh_sp
	ldr	r3, [r2]
	.loc	2 300 26                        @ rt-thread/components/finsh/finsh_ops.c:300:26
	str	r0, [r3]
	.loc	2 302 14 is_stmt 1              @ rt-thread/components/finsh/finsh_ops.c:302:14
	ldr	r0, [r2]
	adds	r0, #4
	str	r0, [r2]
	.loc	2 303 14                        @ rt-thread/components/finsh/finsh_ops.c:303:14
	ldr	r0, [r1]
	adds	r0, #4
	str	r0, [r1]
	.loc	2 305 5                         @ rt-thread/components/finsh/finsh_ops.c:305:5
	bx	lr
.Ltmp96:
.Lfunc_end36:
	.size	OP_ld_dword, .Lfunc_end36-OP_ld_dword
	.cfi_endproc
	.cantunwind
	.fnend
                                        @ -- End function
	.section	.text.OP_ld_value_byte,"ax",%progbits
	.hidden	OP_ld_value_byte                @ -- Begin function OP_ld_value_byte
	.globl	OP_ld_value_byte
	.p2align	3
	.type	OP_ld_value_byte,%function
	.code	16                              @ @OP_ld_value_byte
	.thumb_func
OP_ld_value_byte:
.Lfunc_begin37:
	.loc	2 309 0                         @ rt-thread/components/finsh/finsh_ops.c:309:0
	.fnstart
	.cfi_startproc
@ %bb.0:
	.pad	#4
	sub	sp, #4
	.cfi_def_cfa_offset 4
.Ltmp97:
	.loc	2 312 18 prologue_end           @ rt-thread/components/finsh/finsh_ops.c:312:18
	movw	r1, :lower16:finsh_pc
	movt	r1, :upper16:finsh_pc
	ldr	r0, [r1]
	ldr	r0, [r0]
	.loc	2 312 7 is_stmt 0               @ rt-thread/components/finsh/finsh_ops.c:312:7
	str	r0, [sp]
	.loc	2 314 29 is_stmt 1              @ rt-thread/components/finsh/finsh_ops.c:314:29
	ldr	r0, [sp]
	.loc	2 314 28 is_stmt 0              @ rt-thread/components/finsh/finsh_ops.c:314:28
	ldrb	r0, [r0]
	.loc	2 314 5                         @ rt-thread/components/finsh/finsh_ops.c:314:5
	movw	r2, :lower16:finsh_sp
	movt	r2, :upper16:finsh_sp
	ldr	r3, [r2]
	.loc	2 314 26                        @ rt-thread/components/finsh/finsh_ops.c:314:26
	strb	r0, [r3]
	.loc	2 316 14 is_stmt 1              @ rt-thread/components/finsh/finsh_ops.c:316:14
	ldr	r0, [r2]
	adds	r0, #4
	str	r0, [r2]
	.loc	2 317 14                        @ rt-thread/components/finsh/finsh_ops.c:317:14
	ldr	r0, [r1]
	adds	r0, #4
	str	r0, [r1]
	.loc	2 319 5                         @ rt-thread/components/finsh/finsh_ops.c:319:5
	add	sp, #4
	bx	lr
.Ltmp98:
.Lfunc_end37:
	.size	OP_ld_value_byte, .Lfunc_end37-OP_ld_value_byte
	.cfi_endproc
	.cantunwind
	.fnend
                                        @ -- End function
	.section	.text.OP_ld_value_byte_stack,"ax",%progbits
	.hidden	OP_ld_value_byte_stack          @ -- Begin function OP_ld_value_byte_stack
	.globl	OP_ld_value_byte_stack
	.p2align	3
	.type	OP_ld_value_byte_stack,%function
	.code	16                              @ @OP_ld_value_byte_stack
	.thumb_func
OP_ld_value_byte_stack:
.Lfunc_begin38:
	.loc	2 323 0                         @ rt-thread/components/finsh/finsh_ops.c:323:0
	.fnstart
	.cfi_startproc
@ %bb.0:
	.pad	#4
	sub	sp, #4
	.cfi_def_cfa_offset 4
.Ltmp99:
	.loc	2 326 18 prologue_end           @ rt-thread/components/finsh/finsh_ops.c:326:18
	movw	r1, :lower16:finsh_sp
	movt	r1, :upper16:finsh_sp
	ldr	r0, [r1]
	.loc	2 326 33 is_stmt 0              @ rt-thread/components/finsh/finsh_ops.c:326:33
	ldr	r0, [r0, #-4]
	.loc	2 326 7                         @ rt-thread/components/finsh/finsh_ops.c:326:7
	str	r0, [sp]
	.loc	2 327 35 is_stmt 1              @ rt-thread/components/finsh/finsh_ops.c:327:35
	ldr	r0, [sp]
	.loc	2 327 34 is_stmt 0              @ rt-thread/components/finsh/finsh_ops.c:327:34
	ldrb	r0, [r0]
	.loc	2 327 6                         @ rt-thread/components/finsh/finsh_ops.c:327:6
	ldr	r1, [r1]
	.loc	2 327 32                        @ rt-thread/components/finsh/finsh_ops.c:327:32
	strb	r0, [r1, #-4]
	.loc	2 329 5 is_stmt 1               @ rt-thread/components/finsh/finsh_ops.c:329:5
	add	sp, #4
	bx	lr
.Ltmp100:
.Lfunc_end38:
	.size	OP_ld_value_byte_stack, .Lfunc_end38-OP_ld_value_byte_stack
	.cfi_endproc
	.cantunwind
	.fnend
                                        @ -- End function
	.section	.text.OP_ld_value_word,"ax",%progbits
	.hidden	OP_ld_value_word                @ -- Begin function OP_ld_value_word
	.globl	OP_ld_value_word
	.p2align	3
	.type	OP_ld_value_word,%function
	.code	16                              @ @OP_ld_value_word
	.thumb_func
OP_ld_value_word:
.Lfunc_begin39:
	.loc	2 333 0                         @ rt-thread/components/finsh/finsh_ops.c:333:0
	.fnstart
	.cfi_startproc
@ %bb.0:
	.pad	#4
	sub	sp, #4
	.cfi_def_cfa_offset 4
.Ltmp101:
	.loc	2 336 19 prologue_end           @ rt-thread/components/finsh/finsh_ops.c:336:19
	movw	r1, :lower16:finsh_pc
	movt	r1, :upper16:finsh_pc
	ldr	r0, [r1]
	ldr	r0, [r0]
	.loc	2 336 7 is_stmt 0               @ rt-thread/components/finsh/finsh_ops.c:336:7
	str	r0, [sp]
	.loc	2 338 30 is_stmt 1              @ rt-thread/components/finsh/finsh_ops.c:338:30
	ldr	r0, [sp]
	.loc	2 338 29 is_stmt 0              @ rt-thread/components/finsh/finsh_ops.c:338:29
	ldrh	r0, [r0]
	.loc	2 338 5                         @ rt-thread/components/finsh/finsh_ops.c:338:5
	movw	r2, :lower16:finsh_sp
	movt	r2, :upper16:finsh_sp
	ldr	r3, [r2]
	.loc	2 338 27                        @ rt-thread/components/finsh/finsh_ops.c:338:27
	strh	r0, [r3]
	.loc	2 340 14 is_stmt 1              @ rt-thread/components/finsh/finsh_ops.c:340:14
	ldr	r0, [r2]
	adds	r0, #4
	str	r0, [r2]
	.loc	2 341 14                        @ rt-thread/components/finsh/finsh_ops.c:341:14
	ldr	r0, [r1]
	adds	r0, #4
	str	r0, [r1]
	.loc	2 343 5                         @ rt-thread/components/finsh/finsh_ops.c:343:5
	add	sp, #4
	bx	lr
.Ltmp102:
.Lfunc_end39:
	.size	OP_ld_value_word, .Lfunc_end39-OP_ld_value_word
	.cfi_endproc
	.cantunwind
	.fnend
                                        @ -- End function
	.section	.text.OP_ld_value_word_stack,"ax",%progbits
	.hidden	OP_ld_value_word_stack          @ -- Begin function OP_ld_value_word_stack
	.globl	OP_ld_value_word_stack
	.p2align	3
	.type	OP_ld_value_word_stack,%function
	.code	16                              @ @OP_ld_value_word_stack
	.thumb_func
OP_ld_value_word_stack:
.Lfunc_begin40:
	.loc	2 347 0                         @ rt-thread/components/finsh/finsh_ops.c:347:0
	.fnstart
	.cfi_startproc
@ %bb.0:
	.pad	#4
	sub	sp, #4
	.cfi_def_cfa_offset 4
.Ltmp103:
	.loc	2 350 19 prologue_end           @ rt-thread/components/finsh/finsh_ops.c:350:19
	movw	r1, :lower16:finsh_sp
	movt	r1, :upper16:finsh_sp
	ldr	r0, [r1]
	.loc	2 350 34 is_stmt 0              @ rt-thread/components/finsh/finsh_ops.c:350:34
	ldr	r0, [r0, #-4]
	.loc	2 350 7                         @ rt-thread/components/finsh/finsh_ops.c:350:7
	str	r0, [sp]
	.loc	2 351 36 is_stmt 1              @ rt-thread/components/finsh/finsh_ops.c:351:36
	ldr	r0, [sp]
	.loc	2 351 35 is_stmt 0              @ rt-thread/components/finsh/finsh_ops.c:351:35
	ldrh	r0, [r0]
	.loc	2 351 6                         @ rt-thread/components/finsh/finsh_ops.c:351:6
	ldr	r1, [r1]
	.loc	2 351 33                        @ rt-thread/components/finsh/finsh_ops.c:351:33
	strh	r0, [r1, #-4]
	.loc	2 353 5 is_stmt 1               @ rt-thread/components/finsh/finsh_ops.c:353:5
	add	sp, #4
	bx	lr
.Ltmp104:
.Lfunc_end40:
	.size	OP_ld_value_word_stack, .Lfunc_end40-OP_ld_value_word_stack
	.cfi_endproc
	.cantunwind
	.fnend
                                        @ -- End function
	.section	.text.OP_ld_value_dword,"ax",%progbits
	.hidden	OP_ld_value_dword               @ -- Begin function OP_ld_value_dword
	.globl	OP_ld_value_dword
	.p2align	3
	.type	OP_ld_value_dword,%function
	.code	16                              @ @OP_ld_value_dword
	.thumb_func
OP_ld_value_dword:
.Lfunc_begin41:
	.loc	2 357 0                         @ rt-thread/components/finsh/finsh_ops.c:357:0
	.fnstart
	.cfi_startproc
@ %bb.0:
	.pad	#4
	sub	sp, #4
	.cfi_def_cfa_offset 4
.Ltmp105:
	.loc	2 360 18 prologue_end           @ rt-thread/components/finsh/finsh_ops.c:360:18
	movw	r1, :lower16:finsh_pc
	movt	r1, :upper16:finsh_pc
	ldr	r0, [r1]
	ldr	r0, [r0]
	.loc	2 360 7 is_stmt 0               @ rt-thread/components/finsh/finsh_ops.c:360:7
	str	r0, [sp]
	.loc	2 362 29 is_stmt 1              @ rt-thread/components/finsh/finsh_ops.c:362:29
	ldr	r0, [sp]
	.loc	2 362 28 is_stmt 0              @ rt-thread/components/finsh/finsh_ops.c:362:28
	ldr	r0, [r0]
	.loc	2 362 5                         @ rt-thread/components/finsh/finsh_ops.c:362:5
	movw	r2, :lower16:finsh_sp
	movt	r2, :upper16:finsh_sp
	ldr	r3, [r2]
	.loc	2 362 26                        @ rt-thread/components/finsh/finsh_ops.c:362:26
	str	r0, [r3]
	.loc	2 364 14 is_stmt 1              @ rt-thread/components/finsh/finsh_ops.c:364:14
	ldr	r0, [r2]
	adds	r0, #4
	str	r0, [r2]
	.loc	2 365 14                        @ rt-thread/components/finsh/finsh_ops.c:365:14
	ldr	r0, [r1]
	adds	r0, #4
	str	r0, [r1]
	.loc	2 367 5                         @ rt-thread/components/finsh/finsh_ops.c:367:5
	add	sp, #4
	bx	lr
.Ltmp106:
.Lfunc_end41:
	.size	OP_ld_value_dword, .Lfunc_end41-OP_ld_value_dword
	.cfi_endproc
	.cantunwind
	.fnend
                                        @ -- End function
	.section	.text.OP_ld_value_dword_stack,"ax",%progbits
	.hidden	OP_ld_value_dword_stack         @ -- Begin function OP_ld_value_dword_stack
	.globl	OP_ld_value_dword_stack
	.p2align	3
	.type	OP_ld_value_dword_stack,%function
	.code	16                              @ @OP_ld_value_dword_stack
	.thumb_func
OP_ld_value_dword_stack:
.Lfunc_begin42:
	.loc	2 371 0                         @ rt-thread/components/finsh/finsh_ops.c:371:0
	.fnstart
	.cfi_startproc
@ %bb.0:
	.pad	#4
	sub	sp, #4
	.cfi_def_cfa_offset 4
.Ltmp107:
	.loc	2 374 18 prologue_end           @ rt-thread/components/finsh/finsh_ops.c:374:18
	movw	r1, :lower16:finsh_sp
	movt	r1, :upper16:finsh_sp
	ldr	r0, [r1]
	.loc	2 374 33 is_stmt 0              @ rt-thread/components/finsh/finsh_ops.c:374:33
	ldr	r0, [r0, #-4]
	.loc	2 374 7                         @ rt-thread/components/finsh/finsh_ops.c:374:7
	str	r0, [sp]
	.loc	2 375 35 is_stmt 1              @ rt-thread/components/finsh/finsh_ops.c:375:35
	ldr	r0, [sp]
	.loc	2 375 34 is_stmt 0              @ rt-thread/components/finsh/finsh_ops.c:375:34
	ldr	r0, [r0]
	.loc	2 375 6                         @ rt-thread/components/finsh/finsh_ops.c:375:6
	ldr	r1, [r1]
	.loc	2 375 32                        @ rt-thread/components/finsh/finsh_ops.c:375:32
	str	r0, [r1, #-4]
	.loc	2 377 5 is_stmt 1               @ rt-thread/components/finsh/finsh_ops.c:377:5
	add	sp, #4
	bx	lr
.Ltmp108:
.Lfunc_end42:
	.size	OP_ld_value_dword_stack, .Lfunc_end42-OP_ld_value_dword_stack
	.cfi_endproc
	.cantunwind
	.fnend
                                        @ -- End function
	.section	.text.OP_st_byte,"ax",%progbits
	.hidden	OP_st_byte                      @ -- Begin function OP_st_byte
	.globl	OP_st_byte
	.p2align	3
	.type	OP_st_byte,%function
	.code	16                              @ @OP_st_byte
	.thumb_func
OP_st_byte:
.Lfunc_begin43:
	.loc	2 386 0                         @ rt-thread/components/finsh/finsh_ops.c:386:0
	.fnstart
	.cfi_startproc
@ %bb.0:
	.loc	2 387 45 prologue_end           @ rt-thread/components/finsh/finsh_ops.c:387:45
	movw	r1, :lower16:finsh_sp
	movt	r1, :upper16:finsh_sp
	ldr	r2, [r1]
	.loc	2 387 60 is_stmt 0              @ rt-thread/components/finsh/finsh_ops.c:387:60
	ldrb	r0, [r2, #-4]
	.loc	2 387 30                        @ rt-thread/components/finsh/finsh_ops.c:387:30
	ldr	r2, [r2, #-8]
	.loc	2 387 42                        @ rt-thread/components/finsh/finsh_ops.c:387:42
	strb	r0, [r2]
	.loc	2 388 14 is_stmt 1              @ rt-thread/components/finsh/finsh_ops.c:388:14
	ldr	r0, [r1]
	subs	r0, #4
	str	r0, [r1]
	.loc	2 390 5                         @ rt-thread/components/finsh/finsh_ops.c:390:5
	bx	lr
.Ltmp109:
.Lfunc_end43:
	.size	OP_st_byte, .Lfunc_end43-OP_st_byte
	.cfi_endproc
	.cantunwind
	.fnend
                                        @ -- End function
	.section	.text.OP_st_word,"ax",%progbits
	.hidden	OP_st_word                      @ -- Begin function OP_st_word
	.globl	OP_st_word
	.p2align	3
	.type	OP_st_word,%function
	.code	16                              @ @OP_st_word
	.thumb_func
OP_st_word:
.Lfunc_begin44:
	.loc	2 398 0                         @ rt-thread/components/finsh/finsh_ops.c:398:0
	.fnstart
	.cfi_startproc
@ %bb.0:
	.loc	2 399 46 prologue_end           @ rt-thread/components/finsh/finsh_ops.c:399:46
	movw	r1, :lower16:finsh_sp
	movt	r1, :upper16:finsh_sp
	ldr	r2, [r1]
	.loc	2 399 61 is_stmt 0              @ rt-thread/components/finsh/finsh_ops.c:399:61
	ldrh	r0, [r2, #-4]
	.loc	2 399 31                        @ rt-thread/components/finsh/finsh_ops.c:399:31
	ldr	r2, [r2, #-8]
	.loc	2 399 43                        @ rt-thread/components/finsh/finsh_ops.c:399:43
	strh	r0, [r2]
	.loc	2 400 14 is_stmt 1              @ rt-thread/components/finsh/finsh_ops.c:400:14
	ldr	r0, [r1]
	subs	r0, #4
	str	r0, [r1]
	.loc	2 402 5                         @ rt-thread/components/finsh/finsh_ops.c:402:5
	bx	lr
.Ltmp110:
.Lfunc_end44:
	.size	OP_st_word, .Lfunc_end44-OP_st_word
	.cfi_endproc
	.cantunwind
	.fnend
                                        @ -- End function
	.section	.text.OP_st_dword,"ax",%progbits
	.hidden	OP_st_dword                     @ -- Begin function OP_st_dword
	.globl	OP_st_dword
	.p2align	3
	.type	OP_st_dword,%function
	.code	16                              @ @OP_st_dword
	.thumb_func
OP_st_dword:
.Lfunc_begin45:
	.loc	2 410 0                         @ rt-thread/components/finsh/finsh_ops.c:410:0
	.fnstart
	.cfi_startproc
@ %bb.0:
	.loc	2 411 45 prologue_end           @ rt-thread/components/finsh/finsh_ops.c:411:45
	movw	r1, :lower16:finsh_sp
	movt	r1, :upper16:finsh_sp
	ldr	r0, [r1]
	.loc	2 411 30 is_stmt 0              @ rt-thread/components/finsh/finsh_ops.c:411:30
	ldr	r2, [r0, #-8]
	.loc	2 411 60                        @ rt-thread/components/finsh/finsh_ops.c:411:60
	ldr	r0, [r0, #-4]
	.loc	2 411 42                        @ rt-thread/components/finsh/finsh_ops.c:411:42
	str	r0, [r2]
	.loc	2 412 14 is_stmt 1              @ rt-thread/components/finsh/finsh_ops.c:412:14
	ldr	r0, [r1]
	subs	r0, #4
	str	r0, [r1]
	.loc	2 414 5                         @ rt-thread/components/finsh/finsh_ops.c:414:5
	bx	lr
.Ltmp111:
.Lfunc_end45:
	.size	OP_st_dword, .Lfunc_end45-OP_st_dword
	.cfi_endproc
	.cantunwind
	.fnend
                                        @ -- End function
	.section	.text.OP_pop,"ax",%progbits
	.hidden	OP_pop                          @ -- Begin function OP_pop
	.globl	OP_pop
	.p2align	3
	.type	OP_pop,%function
	.code	16                              @ @OP_pop
	.thumb_func
OP_pop:
.Lfunc_begin46:
	.loc	2 419 0                         @ rt-thread/components/finsh/finsh_ops.c:419:0
	.fnstart
	.cfi_startproc
@ %bb.0:
	.loc	2 420 14 prologue_end           @ rt-thread/components/finsh/finsh_ops.c:420:14
	movw	r1, :lower16:finsh_sp
	movt	r1, :upper16:finsh_sp
	ldr	r0, [r1]
	subs	r0, #4
	str	r0, [r1]
	.loc	2 421 5                         @ rt-thread/components/finsh/finsh_ops.c:421:5
	bx	lr
.Ltmp112:
.Lfunc_end46:
	.size	OP_pop, .Lfunc_end46-OP_pop
	.cfi_endproc
	.cantunwind
	.fnend
                                        @ -- End function
	.section	.text.OP_call,"ax",%progbits
	.hidden	OP_call                         @ -- Begin function OP_call
	.globl	OP_call
	.p2align	3
	.type	OP_call,%function
	.code	16                              @ @OP_call
	.thumb_func
OP_call:
.Lfunc_begin47:
	.loc	2 426 0                         @ rt-thread/components/finsh/finsh_ops.c:426:0
	.fnstart
	.cfi_startproc
@ %bb.0:
	.save	{r4, r5, r6, r7, r8, r9, r10, r11, lr}
	push.w	{r4, r5, r6, r7, r8, r9, r10, r11, lr}
	.cfi_def_cfa_offset 36
	.cfi_offset lr, -4
	.cfi_offset r11, -8
	.cfi_offset r10, -12
	.cfi_offset r9, -16
	.cfi_offset r8, -20
	.cfi_offset r7, -24
	.cfi_offset r6, -28
	.cfi_offset r5, -32
	.cfi_offset r4, -36
	.pad	#196
	sub	sp, #196
	.cfi_def_cfa_offset 232
.Ltmp113:
	.loc	2 436 28 prologue_end           @ rt-thread/components/finsh/finsh_ops.c:436:28
	movw	r2, :lower16:finsh_pc
	movt	r2, :upper16:finsh_pc
	ldr	r0, [r2]
	adds	r1, r0, #1
	str	r1, [r2]
	.loc	2 436 18 is_stmt 0              @ rt-thread/components/finsh/finsh_ops.c:436:18
	ldrb	r0, [r0]
	.loc	2 436 16                        @ rt-thread/components/finsh/finsh_ops.c:436:16
	str	r0, [sp, #128]
	movs	r0, #0
	.loc	2 438 7 is_stmt 1               @ rt-thread/components/finsh/finsh_ops.c:438:7
	str	r0, [sp, #124]
	.loc	2 438 21 is_stmt 0              @ rt-thread/components/finsh/finsh_ops.c:438:21
	movw	r1, :lower16:finsh_sp
	movt	r1, :upper16:finsh_sp
	ldr	r0, [r1]
	subs	r0, #4
	str	r0, [r1]
	.loc	2 439 5 is_stmt 1               @ rt-thread/components/finsh/finsh_ops.c:439:5
	b	.LBB47_1
.LBB47_1:                               @ =>This Inner Loop Header: Depth=1
	.loc	2 439 12 is_stmt 0              @ rt-thread/components/finsh/finsh_ops.c:439:12
	ldr	r0, [sp, #124]
	.loc	2 439 16                        @ rt-thread/components/finsh/finsh_ops.c:439:16
	ldr	r1, [sp, #128]
	.loc	2 439 5                         @ rt-thread/components/finsh/finsh_ops.c:439:5
	cmp	r0, r1
	bhs	.LBB47_3
	b	.LBB47_2
.LBB47_2:                               @   in Loop: Header=BB47_1 Depth=1
.Ltmp114:
	.loc	2 441 42 is_stmt 1              @ rt-thread/components/finsh/finsh_ops.c:441:42
	movw	r1, :lower16:finsh_sp
	movt	r1, :upper16:finsh_sp
	ldr	r0, [r1]
	.loc	2 441 52 is_stmt 0              @ rt-thread/components/finsh/finsh_ops.c:441:52
	ldr	r0, [r0]
	.loc	2 441 20                        @ rt-thread/components/finsh/finsh_ops.c:441:20
	ldr	r2, [sp, #128]
	.loc	2 441 37                        @ rt-thread/components/finsh/finsh_ops.c:441:37
	ldr	r3, [sp, #124]
	.loc	2 441 35                        @ rt-thread/components/finsh/finsh_ops.c:441:35
	subs	r3, r2, r3
	add	r2, sp, #132
	.loc	2 441 9                         @ rt-thread/components/finsh/finsh_ops.c:441:9
	add.w	r2, r2, r3, lsl #2
	.loc	2 441 40                        @ rt-thread/components/finsh/finsh_ops.c:441:40
	str	r0, [r2, #-4]
	.loc	2 442 18 is_stmt 1              @ rt-thread/components/finsh/finsh_ops.c:442:18
	ldr	r0, [r1]
	subs	r0, #4
	str	r0, [r1]
	.loc	2 443 10                        @ rt-thread/components/finsh/finsh_ops.c:443:10
	ldr	r0, [sp, #124]
	adds	r0, #1
	str	r0, [sp, #124]
.Ltmp115:
	.loc	2 439 5                         @ rt-thread/components/finsh/finsh_ops.c:439:5
	b	.LBB47_1
.LBB47_3:
	.loc	2 446 19                        @ rt-thread/components/finsh/finsh_ops.c:446:19
	movw	r0, :lower16:finsh_sp
	movt	r0, :upper16:finsh_sp
	ldr	r0, [r0]
	.loc	2 446 29 is_stmt 0              @ rt-thread/components/finsh/finsh_ops.c:446:29
	ldr	r0, [r0]
	.loc	2 446 7                         @ rt-thread/components/finsh/finsh_ops.c:446:7
	str	r0, [sp, #120]
	.loc	2 447 13 is_stmt 1              @ rt-thread/components/finsh/finsh_ops.c:447:13
	ldr	r0, [sp, #128]
	.loc	2 447 5 is_stmt 0               @ rt-thread/components/finsh/finsh_ops.c:447:5
	str	r0, [sp, #112]                  @ 4-byte Spill
	cmp	r0, #16
	bhi.w	.LBB47_23
@ %bb.4:
	.loc	2 0 5                           @ rt-thread/components/finsh/finsh_ops.c:0:5
	ldr	r1, [sp, #112]                  @ 4-byte Reload
.LCPI47_0:
	tbh	[pc, r1, lsl #1]
@ %bb.5:
.LJTI47_0:
	.short	(.LBB47_6-(.LCPI47_0+4))/2
	.short	(.LBB47_7-(.LCPI47_0+4))/2
	.short	(.LBB47_8-(.LCPI47_0+4))/2
	.short	(.LBB47_9-(.LCPI47_0+4))/2
	.short	(.LBB47_10-(.LCPI47_0+4))/2
	.short	(.LBB47_11-(.LCPI47_0+4))/2
	.short	(.LBB47_12-(.LCPI47_0+4))/2
	.short	(.LBB47_13-(.LCPI47_0+4))/2
	.short	(.LBB47_14-(.LCPI47_0+4))/2
	.short	(.LBB47_15-(.LCPI47_0+4))/2
	.short	(.LBB47_16-(.LCPI47_0+4))/2
	.short	(.LBB47_17-(.LCPI47_0+4))/2
	.short	(.LBB47_18-(.LCPI47_0+4))/2
	.short	(.LBB47_19-(.LCPI47_0+4))/2
	.short	(.LBB47_20-(.LCPI47_0+4))/2
	.short	(.LBB47_21-(.LCPI47_0+4))/2
	.short	(.LBB47_22-(.LCPI47_0+4))/2
	.p2align	1
.LBB47_6:
.Ltmp116:
	.loc	2 450 13 is_stmt 1              @ rt-thread/components/finsh/finsh_ops.c:450:13
	ldr	r1, [sp, #120]
	movs	r0, #0
	blx	r1
	.loc	2 450 11 is_stmt 0              @ rt-thread/components/finsh/finsh_ops.c:450:11
	str	r0, [sp, #116]
	.loc	2 451 9 is_stmt 1               @ rt-thread/components/finsh/finsh_ops.c:451:9
	b	.LBB47_24
.LBB47_7:
	.loc	2 454 13                        @ rt-thread/components/finsh/finsh_ops.c:454:13
	ldr	r1, [sp, #120]
	.loc	2 454 15 is_stmt 0              @ rt-thread/components/finsh/finsh_ops.c:454:15
	ldr	r0, [sp, #132]
	.loc	2 454 13                        @ rt-thread/components/finsh/finsh_ops.c:454:13
	blx	r1
	.loc	2 454 11                        @ rt-thread/components/finsh/finsh_ops.c:454:11
	str	r0, [sp, #116]
	.loc	2 455 9 is_stmt 1               @ rt-thread/components/finsh/finsh_ops.c:455:9
	b	.LBB47_24
.LBB47_8:
	.loc	2 458 13                        @ rt-thread/components/finsh/finsh_ops.c:458:13
	ldr	r2, [sp, #120]
	.loc	2 458 15 is_stmt 0              @ rt-thread/components/finsh/finsh_ops.c:458:15
	ldr	r0, [sp, #132]
	.loc	2 458 30                        @ rt-thread/components/finsh/finsh_ops.c:458:30
	ldr	r1, [sp, #136]
	.loc	2 458 13                        @ rt-thread/components/finsh/finsh_ops.c:458:13
	blx	r2
	.loc	2 458 11                        @ rt-thread/components/finsh/finsh_ops.c:458:11
	str	r0, [sp, #116]
	.loc	2 459 9 is_stmt 1               @ rt-thread/components/finsh/finsh_ops.c:459:9
	b	.LBB47_24
.LBB47_9:
	.loc	2 462 13                        @ rt-thread/components/finsh/finsh_ops.c:462:13
	ldr	r3, [sp, #120]
	.loc	2 462 15 is_stmt 0              @ rt-thread/components/finsh/finsh_ops.c:462:15
	ldr	r0, [sp, #132]
	.loc	2 462 30                        @ rt-thread/components/finsh/finsh_ops.c:462:30
	ldr	r1, [sp, #136]
	.loc	2 462 45                        @ rt-thread/components/finsh/finsh_ops.c:462:45
	ldr	r2, [sp, #140]
	.loc	2 462 13                        @ rt-thread/components/finsh/finsh_ops.c:462:13
	blx	r3
	.loc	2 462 11                        @ rt-thread/components/finsh/finsh_ops.c:462:11
	str	r0, [sp, #116]
	.loc	2 463 9 is_stmt 1               @ rt-thread/components/finsh/finsh_ops.c:463:9
	b	.LBB47_24
.LBB47_10:
	.loc	2 466 13                        @ rt-thread/components/finsh/finsh_ops.c:466:13
	ldr.w	r12, [sp, #120]
	.loc	2 466 15 is_stmt 0              @ rt-thread/components/finsh/finsh_ops.c:466:15
	ldr	r0, [sp, #132]
	.loc	2 466 30                        @ rt-thread/components/finsh/finsh_ops.c:466:30
	ldr	r1, [sp, #136]
	.loc	2 466 45                        @ rt-thread/components/finsh/finsh_ops.c:466:45
	ldr	r2, [sp, #140]
	.loc	2 466 60                        @ rt-thread/components/finsh/finsh_ops.c:466:60
	ldr	r3, [sp, #144]
	.loc	2 466 13                        @ rt-thread/components/finsh/finsh_ops.c:466:13
	blx	r12
	.loc	2 466 11                        @ rt-thread/components/finsh/finsh_ops.c:466:11
	str	r0, [sp, #116]
	.loc	2 467 9 is_stmt 1               @ rt-thread/components/finsh/finsh_ops.c:467:9
	b	.LBB47_24
.LBB47_11:
	.loc	2 470 13                        @ rt-thread/components/finsh/finsh_ops.c:470:13
	ldr.w	r12, [sp, #120]
	.loc	2 470 15 is_stmt 0              @ rt-thread/components/finsh/finsh_ops.c:470:15
	ldr	r0, [sp, #132]
	.loc	2 470 30                        @ rt-thread/components/finsh/finsh_ops.c:470:30
	ldr	r1, [sp, #136]
	.loc	2 470 45                        @ rt-thread/components/finsh/finsh_ops.c:470:45
	ldr	r2, [sp, #140]
	.loc	2 470 60                        @ rt-thread/components/finsh/finsh_ops.c:470:60
	ldr	r3, [sp, #144]
	.loc	2 471 17 is_stmt 1              @ rt-thread/components/finsh/finsh_ops.c:471:17
	ldr.w	lr, [sp, #148]
	.loc	2 470 13                        @ rt-thread/components/finsh/finsh_ops.c:470:13
	mov	r4, sp
	str.w	lr, [r4]
	blx	r12
	.loc	2 470 11 is_stmt 0              @ rt-thread/components/finsh/finsh_ops.c:470:11
	str	r0, [sp, #116]
	.loc	2 472 9 is_stmt 1               @ rt-thread/components/finsh/finsh_ops.c:472:9
	b	.LBB47_24
.LBB47_12:
	.loc	2 475 13                        @ rt-thread/components/finsh/finsh_ops.c:475:13
	ldr.w	r12, [sp, #120]
	.loc	2 475 15 is_stmt 0              @ rt-thread/components/finsh/finsh_ops.c:475:15
	ldr	r0, [sp, #132]
	.loc	2 475 30                        @ rt-thread/components/finsh/finsh_ops.c:475:30
	ldr	r1, [sp, #136]
	.loc	2 475 45                        @ rt-thread/components/finsh/finsh_ops.c:475:45
	ldr	r2, [sp, #140]
	.loc	2 475 60                        @ rt-thread/components/finsh/finsh_ops.c:475:60
	ldr	r3, [sp, #144]
	.loc	2 476 17 is_stmt 1              @ rt-thread/components/finsh/finsh_ops.c:476:17
	ldr.w	lr, [sp, #148]
	.loc	2 476 32 is_stmt 0              @ rt-thread/components/finsh/finsh_ops.c:476:32
	ldr	r5, [sp, #152]
	.loc	2 475 13 is_stmt 1              @ rt-thread/components/finsh/finsh_ops.c:475:13
	mov	r4, sp
	str	r5, [r4, #4]
	str.w	lr, [r4]
	blx	r12
	.loc	2 475 11 is_stmt 0              @ rt-thread/components/finsh/finsh_ops.c:475:11
	str	r0, [sp, #116]
	.loc	2 477 9 is_stmt 1               @ rt-thread/components/finsh/finsh_ops.c:477:9
	b	.LBB47_24
.LBB47_13:
	.loc	2 480 13                        @ rt-thread/components/finsh/finsh_ops.c:480:13
	ldr.w	r12, [sp, #120]
	.loc	2 480 15 is_stmt 0              @ rt-thread/components/finsh/finsh_ops.c:480:15
	ldr	r0, [sp, #132]
	.loc	2 480 30                        @ rt-thread/components/finsh/finsh_ops.c:480:30
	ldr	r1, [sp, #136]
	.loc	2 480 45                        @ rt-thread/components/finsh/finsh_ops.c:480:45
	ldr	r2, [sp, #140]
	.loc	2 480 60                        @ rt-thread/components/finsh/finsh_ops.c:480:60
	ldr	r3, [sp, #144]
	.loc	2 481 17 is_stmt 1              @ rt-thread/components/finsh/finsh_ops.c:481:17
	ldr.w	lr, [sp, #148]
	.loc	2 481 32 is_stmt 0              @ rt-thread/components/finsh/finsh_ops.c:481:32
	ldr	r5, [sp, #152]
	.loc	2 481 47                        @ rt-thread/components/finsh/finsh_ops.c:481:47
	ldr	r6, [sp, #156]
	.loc	2 480 13 is_stmt 1              @ rt-thread/components/finsh/finsh_ops.c:480:13
	mov	r4, sp
	str	r6, [r4, #8]
	str	r5, [r4, #4]
	str.w	lr, [r4]
	blx	r12
	.loc	2 480 11 is_stmt 0              @ rt-thread/components/finsh/finsh_ops.c:480:11
	str	r0, [sp, #116]
	.loc	2 482 9 is_stmt 1               @ rt-thread/components/finsh/finsh_ops.c:482:9
	b	.LBB47_24
.LBB47_14:
	.loc	2 485 13                        @ rt-thread/components/finsh/finsh_ops.c:485:13
	ldr.w	r12, [sp, #120]
	.loc	2 485 15 is_stmt 0              @ rt-thread/components/finsh/finsh_ops.c:485:15
	ldr	r0, [sp, #132]
	.loc	2 485 30                        @ rt-thread/components/finsh/finsh_ops.c:485:30
	ldr	r1, [sp, #136]
	.loc	2 485 45                        @ rt-thread/components/finsh/finsh_ops.c:485:45
	ldr	r2, [sp, #140]
	.loc	2 485 60                        @ rt-thread/components/finsh/finsh_ops.c:485:60
	ldr	r3, [sp, #144]
	.loc	2 486 17 is_stmt 1              @ rt-thread/components/finsh/finsh_ops.c:486:17
	ldr.w	lr, [sp, #148]
	.loc	2 486 32 is_stmt 0              @ rt-thread/components/finsh/finsh_ops.c:486:32
	ldr	r5, [sp, #152]
	.loc	2 486 47                        @ rt-thread/components/finsh/finsh_ops.c:486:47
	ldr	r6, [sp, #156]
	.loc	2 486 62                        @ rt-thread/components/finsh/finsh_ops.c:486:62
	ldr	r7, [sp, #160]
	.loc	2 485 13 is_stmt 1              @ rt-thread/components/finsh/finsh_ops.c:485:13
	mov	r4, sp
	str	r7, [r4, #12]
	str	r6, [r4, #8]
	str	r5, [r4, #4]
	str.w	lr, [r4]
	blx	r12
	.loc	2 485 11 is_stmt 0              @ rt-thread/components/finsh/finsh_ops.c:485:11
	str	r0, [sp, #116]
	.loc	2 487 9 is_stmt 1               @ rt-thread/components/finsh/finsh_ops.c:487:9
	b	.LBB47_24
.LBB47_15:
	.loc	2 490 13                        @ rt-thread/components/finsh/finsh_ops.c:490:13
	ldr.w	r12, [sp, #120]
	.loc	2 490 15 is_stmt 0              @ rt-thread/components/finsh/finsh_ops.c:490:15
	ldr	r0, [sp, #132]
	.loc	2 490 30                        @ rt-thread/components/finsh/finsh_ops.c:490:30
	ldr	r1, [sp, #136]
	.loc	2 490 45                        @ rt-thread/components/finsh/finsh_ops.c:490:45
	ldr	r2, [sp, #140]
	.loc	2 490 60                        @ rt-thread/components/finsh/finsh_ops.c:490:60
	ldr	r3, [sp, #144]
	.loc	2 491 17 is_stmt 1              @ rt-thread/components/finsh/finsh_ops.c:491:17
	ldr.w	lr, [sp, #148]
	.loc	2 491 32 is_stmt 0              @ rt-thread/components/finsh/finsh_ops.c:491:32
	ldr	r5, [sp, #152]
	.loc	2 491 47                        @ rt-thread/components/finsh/finsh_ops.c:491:47
	ldr	r6, [sp, #156]
	.loc	2 491 62                        @ rt-thread/components/finsh/finsh_ops.c:491:62
	ldr	r7, [sp, #160]
	.loc	2 492 17 is_stmt 1              @ rt-thread/components/finsh/finsh_ops.c:492:17
	ldr.w	r8, [sp, #164]
	.loc	2 490 13                        @ rt-thread/components/finsh/finsh_ops.c:490:13
	mov	r4, sp
	str.w	r8, [r4, #16]
	str	r7, [r4, #12]
	str	r6, [r4, #8]
	str	r5, [r4, #4]
	str.w	lr, [r4]
	blx	r12
	.loc	2 490 11 is_stmt 0              @ rt-thread/components/finsh/finsh_ops.c:490:11
	str	r0, [sp, #116]
	.loc	2 493 9 is_stmt 1               @ rt-thread/components/finsh/finsh_ops.c:493:9
	b	.LBB47_24
.LBB47_16:
	.loc	2 496 13                        @ rt-thread/components/finsh/finsh_ops.c:496:13
	ldr.w	r12, [sp, #120]
	.loc	2 496 15 is_stmt 0              @ rt-thread/components/finsh/finsh_ops.c:496:15
	ldr	r0, [sp, #132]
	.loc	2 496 30                        @ rt-thread/components/finsh/finsh_ops.c:496:30
	ldr	r1, [sp, #136]
	.loc	2 496 45                        @ rt-thread/components/finsh/finsh_ops.c:496:45
	ldr	r2, [sp, #140]
	.loc	2 496 60                        @ rt-thread/components/finsh/finsh_ops.c:496:60
	ldr	r3, [sp, #144]
	.loc	2 497 17 is_stmt 1              @ rt-thread/components/finsh/finsh_ops.c:497:17
	ldr.w	lr, [sp, #148]
	.loc	2 497 32 is_stmt 0              @ rt-thread/components/finsh/finsh_ops.c:497:32
	ldr	r5, [sp, #152]
	.loc	2 497 47                        @ rt-thread/components/finsh/finsh_ops.c:497:47
	ldr	r6, [sp, #156]
	.loc	2 497 62                        @ rt-thread/components/finsh/finsh_ops.c:497:62
	ldr	r7, [sp, #160]
	.loc	2 498 17 is_stmt 1              @ rt-thread/components/finsh/finsh_ops.c:498:17
	ldr.w	r8, [sp, #164]
	.loc	2 498 32 is_stmt 0              @ rt-thread/components/finsh/finsh_ops.c:498:32
	ldr.w	r9, [sp, #168]
	.loc	2 496 13 is_stmt 1              @ rt-thread/components/finsh/finsh_ops.c:496:13
	mov	r4, sp
	str.w	r9, [r4, #20]
	str.w	r8, [r4, #16]
	str	r7, [r4, #12]
	str	r6, [r4, #8]
	str	r5, [r4, #4]
	str.w	lr, [r4]
	blx	r12
	.loc	2 496 11 is_stmt 0              @ rt-thread/components/finsh/finsh_ops.c:496:11
	str	r0, [sp, #116]
	.loc	2 499 9 is_stmt 1               @ rt-thread/components/finsh/finsh_ops.c:499:9
	b	.LBB47_24
.LBB47_17:
	.loc	2 502 13                        @ rt-thread/components/finsh/finsh_ops.c:502:13
	ldr.w	r12, [sp, #120]
	.loc	2 502 15 is_stmt 0              @ rt-thread/components/finsh/finsh_ops.c:502:15
	ldr	r0, [sp, #132]
	.loc	2 502 30                        @ rt-thread/components/finsh/finsh_ops.c:502:30
	ldr	r1, [sp, #136]
	.loc	2 502 45                        @ rt-thread/components/finsh/finsh_ops.c:502:45
	ldr	r2, [sp, #140]
	.loc	2 502 60                        @ rt-thread/components/finsh/finsh_ops.c:502:60
	ldr	r3, [sp, #144]
	.loc	2 503 17 is_stmt 1              @ rt-thread/components/finsh/finsh_ops.c:503:17
	ldr.w	lr, [sp, #148]
	.loc	2 503 32 is_stmt 0              @ rt-thread/components/finsh/finsh_ops.c:503:32
	ldr	r5, [sp, #152]
	.loc	2 503 47                        @ rt-thread/components/finsh/finsh_ops.c:503:47
	ldr	r6, [sp, #156]
	.loc	2 503 62                        @ rt-thread/components/finsh/finsh_ops.c:503:62
	ldr	r7, [sp, #160]
	.loc	2 504 17 is_stmt 1              @ rt-thread/components/finsh/finsh_ops.c:504:17
	ldr.w	r8, [sp, #164]
	.loc	2 504 32 is_stmt 0              @ rt-thread/components/finsh/finsh_ops.c:504:32
	ldr.w	r9, [sp, #168]
	.loc	2 504 47                        @ rt-thread/components/finsh/finsh_ops.c:504:47
	ldr.w	r10, [sp, #172]
	.loc	2 502 13 is_stmt 1              @ rt-thread/components/finsh/finsh_ops.c:502:13
	mov	r4, sp
	str.w	r10, [r4, #24]
	str.w	r9, [r4, #20]
	str.w	r8, [r4, #16]
	str	r7, [r4, #12]
	str	r6, [r4, #8]
	str	r5, [r4, #4]
	str.w	lr, [r4]
	blx	r12
	.loc	2 502 11 is_stmt 0              @ rt-thread/components/finsh/finsh_ops.c:502:11
	str	r0, [sp, #116]
	.loc	2 505 9 is_stmt 1               @ rt-thread/components/finsh/finsh_ops.c:505:9
	b	.LBB47_24
.LBB47_18:
	.loc	2 508 13                        @ rt-thread/components/finsh/finsh_ops.c:508:13
	ldr.w	r12, [sp, #120]
	.loc	2 508 15 is_stmt 0              @ rt-thread/components/finsh/finsh_ops.c:508:15
	ldr	r0, [sp, #132]
	.loc	2 508 30                        @ rt-thread/components/finsh/finsh_ops.c:508:30
	ldr	r1, [sp, #136]
	.loc	2 508 45                        @ rt-thread/components/finsh/finsh_ops.c:508:45
	ldr	r2, [sp, #140]
	.loc	2 508 60                        @ rt-thread/components/finsh/finsh_ops.c:508:60
	ldr	r3, [sp, #144]
	.loc	2 509 17 is_stmt 1              @ rt-thread/components/finsh/finsh_ops.c:509:17
	ldr.w	lr, [sp, #148]
	.loc	2 509 32 is_stmt 0              @ rt-thread/components/finsh/finsh_ops.c:509:32
	ldr	r5, [sp, #152]
	.loc	2 509 47                        @ rt-thread/components/finsh/finsh_ops.c:509:47
	ldr	r6, [sp, #156]
	.loc	2 509 62                        @ rt-thread/components/finsh/finsh_ops.c:509:62
	ldr	r7, [sp, #160]
	.loc	2 510 17 is_stmt 1              @ rt-thread/components/finsh/finsh_ops.c:510:17
	ldr.w	r8, [sp, #164]
	.loc	2 510 32 is_stmt 0              @ rt-thread/components/finsh/finsh_ops.c:510:32
	ldr.w	r9, [sp, #168]
	.loc	2 510 47                        @ rt-thread/components/finsh/finsh_ops.c:510:47
	ldr.w	r10, [sp, #172]
	.loc	2 510 63                        @ rt-thread/components/finsh/finsh_ops.c:510:63
	ldr.w	r11, [sp, #176]
	.loc	2 508 13 is_stmt 1              @ rt-thread/components/finsh/finsh_ops.c:508:13
	mov	r4, sp
	str	r4, [sp, #108]                  @ 4-byte Spill
	str.w	r11, [r4, #28]
	str.w	r10, [r4, #24]
	str.w	r9, [r4, #20]
	str.w	r8, [r4, #16]
	str	r7, [r4, #12]
	str	r6, [r4, #8]
	str	r5, [r4, #4]
	str.w	lr, [r4]
	blx	r12
	.loc	2 508 11 is_stmt 0              @ rt-thread/components/finsh/finsh_ops.c:508:11
	str	r0, [sp, #116]
	.loc	2 511 9 is_stmt 1               @ rt-thread/components/finsh/finsh_ops.c:511:9
	b	.LBB47_24
.LBB47_19:
	.loc	2 514 13                        @ rt-thread/components/finsh/finsh_ops.c:514:13
	ldr.w	r12, [sp, #120]
	.loc	2 514 15 is_stmt 0              @ rt-thread/components/finsh/finsh_ops.c:514:15
	ldr	r0, [sp, #132]
	.loc	2 514 30                        @ rt-thread/components/finsh/finsh_ops.c:514:30
	str	r0, [sp, #100]                  @ 4-byte Spill
	ldr	r1, [sp, #136]
	.loc	2 514 45                        @ rt-thread/components/finsh/finsh_ops.c:514:45
	ldr	r2, [sp, #140]
	.loc	2 514 60                        @ rt-thread/components/finsh/finsh_ops.c:514:60
	ldr	r3, [sp, #144]
	.loc	2 515 17 is_stmt 1              @ rt-thread/components/finsh/finsh_ops.c:515:17
	ldr.w	lr, [sp, #148]
	.loc	2 515 32 is_stmt 0              @ rt-thread/components/finsh/finsh_ops.c:515:32
	ldr	r5, [sp, #152]
	.loc	2 515 47                        @ rt-thread/components/finsh/finsh_ops.c:515:47
	ldr	r6, [sp, #156]
	.loc	2 515 62                        @ rt-thread/components/finsh/finsh_ops.c:515:62
	ldr	r7, [sp, #160]
	.loc	2 516 17 is_stmt 1              @ rt-thread/components/finsh/finsh_ops.c:516:17
	ldr.w	r8, [sp, #164]
	.loc	2 516 32 is_stmt 0              @ rt-thread/components/finsh/finsh_ops.c:516:32
	ldr.w	r9, [sp, #168]
	.loc	2 516 47                        @ rt-thread/components/finsh/finsh_ops.c:516:47
	ldr.w	r10, [sp, #172]
	.loc	2 516 63                        @ rt-thread/components/finsh/finsh_ops.c:516:63
	ldr.w	r11, [sp, #176]
	.loc	2 517 17 is_stmt 1              @ rt-thread/components/finsh/finsh_ops.c:517:17
	ldr	r4, [sp, #180]
	.loc	2 514 13                        @ rt-thread/components/finsh/finsh_ops.c:514:13
	mov	r0, sp
	str	r0, [sp, #104]                  @ 4-byte Spill
	str	r4, [r0, #32]
	ldr	r0, [sp, #100]                  @ 4-byte Reload
	ldr	r4, [sp, #104]                  @ 4-byte Reload
	str.w	r11, [r4, #28]
	str.w	r10, [r4, #24]
	str.w	r9, [r4, #20]
	str.w	r8, [r4, #16]
	str	r7, [r4, #12]
	str	r6, [r4, #8]
	str	r5, [r4, #4]
	str.w	lr, [r4]
	blx	r12
	.loc	2 514 11 is_stmt 0              @ rt-thread/components/finsh/finsh_ops.c:514:11
	str	r0, [sp, #116]
	.loc	2 518 9 is_stmt 1               @ rt-thread/components/finsh/finsh_ops.c:518:9
	b	.LBB47_24
.LBB47_20:
	.loc	2 521 13                        @ rt-thread/components/finsh/finsh_ops.c:521:13
	ldr.w	r12, [sp, #120]
	.loc	2 521 15 is_stmt 0              @ rt-thread/components/finsh/finsh_ops.c:521:15
	ldr	r0, [sp, #132]
	.loc	2 521 30                        @ rt-thread/components/finsh/finsh_ops.c:521:30
	str	r0, [sp, #92]                   @ 4-byte Spill
	ldr	r0, [sp, #136]
	.loc	2 521 45                        @ rt-thread/components/finsh/finsh_ops.c:521:45
	str	r0, [sp, #88]                   @ 4-byte Spill
	ldr	r2, [sp, #140]
	.loc	2 521 60                        @ rt-thread/components/finsh/finsh_ops.c:521:60
	ldr	r3, [sp, #144]
	.loc	2 522 17 is_stmt 1              @ rt-thread/components/finsh/finsh_ops.c:522:17
	ldr.w	lr, [sp, #148]
	.loc	2 522 32 is_stmt 0              @ rt-thread/components/finsh/finsh_ops.c:522:32
	ldr	r5, [sp, #152]
	.loc	2 522 47                        @ rt-thread/components/finsh/finsh_ops.c:522:47
	ldr	r6, [sp, #156]
	.loc	2 522 62                        @ rt-thread/components/finsh/finsh_ops.c:522:62
	ldr	r7, [sp, #160]
	.loc	2 523 17 is_stmt 1              @ rt-thread/components/finsh/finsh_ops.c:523:17
	ldr.w	r8, [sp, #164]
	.loc	2 523 32 is_stmt 0              @ rt-thread/components/finsh/finsh_ops.c:523:32
	ldr.w	r9, [sp, #168]
	.loc	2 523 47                        @ rt-thread/components/finsh/finsh_ops.c:523:47
	ldr.w	r10, [sp, #172]
	.loc	2 523 63                        @ rt-thread/components/finsh/finsh_ops.c:523:63
	ldr.w	r11, [sp, #176]
	.loc	2 524 17 is_stmt 1              @ rt-thread/components/finsh/finsh_ops.c:524:17
	ldr	r4, [sp, #180]
	.loc	2 524 33 is_stmt 0              @ rt-thread/components/finsh/finsh_ops.c:524:33
	ldr	r0, [sp, #184]
	.loc	2 521 13 is_stmt 1              @ rt-thread/components/finsh/finsh_ops.c:521:13
	mov	r1, sp
	str	r1, [sp, #96]                   @ 4-byte Spill
	str	r0, [r1, #36]
	ldr	r1, [sp, #88]                   @ 4-byte Reload
	ldr	r0, [sp, #96]                   @ 4-byte Reload
	str	r4, [r0, #32]
	ldr	r0, [sp, #92]                   @ 4-byte Reload
	ldr	r4, [sp, #96]                   @ 4-byte Reload
	str.w	r11, [r4, #28]
	str.w	r10, [r4, #24]
	str.w	r9, [r4, #20]
	str.w	r8, [r4, #16]
	str	r7, [r4, #12]
	str	r6, [r4, #8]
	str	r5, [r4, #4]
	str.w	lr, [r4]
	blx	r12
	.loc	2 521 11 is_stmt 0              @ rt-thread/components/finsh/finsh_ops.c:521:11
	str	r0, [sp, #116]
	.loc	2 525 9 is_stmt 1               @ rt-thread/components/finsh/finsh_ops.c:525:9
	b	.LBB47_24
.LBB47_21:
	.loc	2 528 13                        @ rt-thread/components/finsh/finsh_ops.c:528:13
	ldr.w	r12, [sp, #120]
	.loc	2 528 15 is_stmt 0              @ rt-thread/components/finsh/finsh_ops.c:528:15
	ldr	r0, [sp, #132]
	.loc	2 528 30                        @ rt-thread/components/finsh/finsh_ops.c:528:30
	str	r0, [sp, #80]                   @ 4-byte Spill
	ldr	r0, [sp, #136]
	.loc	2 528 45                        @ rt-thread/components/finsh/finsh_ops.c:528:45
	str	r0, [sp, #76]                   @ 4-byte Spill
	ldr	r2, [sp, #140]
	.loc	2 528 60                        @ rt-thread/components/finsh/finsh_ops.c:528:60
	ldr	r3, [sp, #144]
	.loc	2 529 17 is_stmt 1              @ rt-thread/components/finsh/finsh_ops.c:529:17
	ldr.w	lr, [sp, #148]
	.loc	2 529 32 is_stmt 0              @ rt-thread/components/finsh/finsh_ops.c:529:32
	ldr	r5, [sp, #152]
	.loc	2 529 47                        @ rt-thread/components/finsh/finsh_ops.c:529:47
	ldr	r6, [sp, #156]
	.loc	2 529 62                        @ rt-thread/components/finsh/finsh_ops.c:529:62
	ldr	r7, [sp, #160]
	.loc	2 530 17 is_stmt 1              @ rt-thread/components/finsh/finsh_ops.c:530:17
	ldr.w	r8, [sp, #164]
	.loc	2 530 32 is_stmt 0              @ rt-thread/components/finsh/finsh_ops.c:530:32
	ldr.w	r9, [sp, #168]
	.loc	2 530 47                        @ rt-thread/components/finsh/finsh_ops.c:530:47
	ldr.w	r10, [sp, #172]
	.loc	2 530 63                        @ rt-thread/components/finsh/finsh_ops.c:530:63
	ldr.w	r11, [sp, #176]
	.loc	2 531 17 is_stmt 1              @ rt-thread/components/finsh/finsh_ops.c:531:17
	ldr	r4, [sp, #180]
	.loc	2 531 33 is_stmt 0              @ rt-thread/components/finsh/finsh_ops.c:531:33
	ldr	r0, [sp, #184]
	.loc	2 531 49                        @ rt-thread/components/finsh/finsh_ops.c:531:49
	str	r0, [sp, #72]                   @ 4-byte Spill
	ldr	r1, [sp, #188]
	.loc	2 528 13 is_stmt 1              @ rt-thread/components/finsh/finsh_ops.c:528:13
	mov	r0, sp
	str	r0, [sp, #84]                   @ 4-byte Spill
	str	r1, [r0, #40]
	ldr	r0, [sp, #72]                   @ 4-byte Reload
	ldr	r1, [sp, #84]                   @ 4-byte Reload
	str	r0, [r1, #36]
	ldr	r1, [sp, #76]                   @ 4-byte Reload
	ldr	r0, [sp, #84]                   @ 4-byte Reload
	str	r4, [r0, #32]
	ldr	r0, [sp, #80]                   @ 4-byte Reload
	ldr	r4, [sp, #84]                   @ 4-byte Reload
	str.w	r11, [r4, #28]
	str.w	r10, [r4, #24]
	str.w	r9, [r4, #20]
	str.w	r8, [r4, #16]
	str	r7, [r4, #12]
	str	r6, [r4, #8]
	str	r5, [r4, #4]
	str.w	lr, [r4]
	blx	r12
	.loc	2 528 11 is_stmt 0              @ rt-thread/components/finsh/finsh_ops.c:528:11
	str	r0, [sp, #116]
	.loc	2 532 9 is_stmt 1               @ rt-thread/components/finsh/finsh_ops.c:532:9
	b	.LBB47_24
.LBB47_22:
	.loc	2 535 13                        @ rt-thread/components/finsh/finsh_ops.c:535:13
	ldr.w	r12, [sp, #120]
	.loc	2 535 15 is_stmt 0              @ rt-thread/components/finsh/finsh_ops.c:535:15
	ldr	r0, [sp, #132]
	.loc	2 535 30                        @ rt-thread/components/finsh/finsh_ops.c:535:30
	str	r0, [sp, #64]                   @ 4-byte Spill
	ldr	r0, [sp, #136]
	.loc	2 535 45                        @ rt-thread/components/finsh/finsh_ops.c:535:45
	str	r0, [sp, #60]                   @ 4-byte Spill
	ldr	r2, [sp, #140]
	.loc	2 535 60                        @ rt-thread/components/finsh/finsh_ops.c:535:60
	ldr	r3, [sp, #144]
	.loc	2 536 17 is_stmt 1              @ rt-thread/components/finsh/finsh_ops.c:536:17
	ldr.w	lr, [sp, #148]
	.loc	2 536 32 is_stmt 0              @ rt-thread/components/finsh/finsh_ops.c:536:32
	ldr	r5, [sp, #152]
	.loc	2 536 47                        @ rt-thread/components/finsh/finsh_ops.c:536:47
	ldr	r6, [sp, #156]
	.loc	2 536 62                        @ rt-thread/components/finsh/finsh_ops.c:536:62
	ldr	r7, [sp, #160]
	.loc	2 537 17 is_stmt 1              @ rt-thread/components/finsh/finsh_ops.c:537:17
	ldr.w	r8, [sp, #164]
	.loc	2 537 32 is_stmt 0              @ rt-thread/components/finsh/finsh_ops.c:537:32
	ldr.w	r9, [sp, #168]
	.loc	2 537 47                        @ rt-thread/components/finsh/finsh_ops.c:537:47
	ldr.w	r10, [sp, #172]
	.loc	2 537 63                        @ rt-thread/components/finsh/finsh_ops.c:537:63
	ldr.w	r11, [sp, #176]
	.loc	2 538 17 is_stmt 1              @ rt-thread/components/finsh/finsh_ops.c:538:17
	ldr	r4, [sp, #180]
	.loc	2 538 33 is_stmt 0              @ rt-thread/components/finsh/finsh_ops.c:538:33
	ldr	r0, [sp, #184]
	.loc	2 538 49                        @ rt-thread/components/finsh/finsh_ops.c:538:49
	str	r0, [sp, #56]                   @ 4-byte Spill
	ldr	r0, [sp, #188]
	.loc	2 538 65                        @ rt-thread/components/finsh/finsh_ops.c:538:65
	str	r0, [sp, #52]                   @ 4-byte Spill
	ldr	r0, [sp, #192]
	.loc	2 535 13 is_stmt 1              @ rt-thread/components/finsh/finsh_ops.c:535:13
	mov	r1, sp
	str	r1, [sp, #68]                   @ 4-byte Spill
	str	r0, [r1, #44]
	ldr	r1, [sp, #52]                   @ 4-byte Reload
	ldr	r0, [sp, #68]                   @ 4-byte Reload
	str	r1, [r0, #40]
	ldr	r0, [sp, #56]                   @ 4-byte Reload
	ldr	r1, [sp, #68]                   @ 4-byte Reload
	str	r0, [r1, #36]
	ldr	r1, [sp, #60]                   @ 4-byte Reload
	ldr	r0, [sp, #68]                   @ 4-byte Reload
	str	r4, [r0, #32]
	ldr	r0, [sp, #64]                   @ 4-byte Reload
	ldr	r4, [sp, #68]                   @ 4-byte Reload
	str.w	r11, [r4, #28]
	str.w	r10, [r4, #24]
	str.w	r9, [r4, #20]
	str.w	r8, [r4, #16]
	str	r7, [r4, #12]
	str	r6, [r4, #8]
	str	r5, [r4, #4]
	str.w	lr, [r4]
	blx	r12
	.loc	2 535 11 is_stmt 0              @ rt-thread/components/finsh/finsh_ops.c:535:11
	str	r0, [sp, #116]
	.loc	2 539 9 is_stmt 1               @ rt-thread/components/finsh/finsh_ops.c:539:9
	b	.LBB47_24
.LBB47_23:
	.loc	2 0 9 is_stmt 0                 @ rt-thread/components/finsh/finsh_ops.c:0:9
	movs	r0, #0
	.loc	2 542 11 is_stmt 1              @ rt-thread/components/finsh/finsh_ops.c:542:11
	str	r0, [sp, #116]
	.loc	2 543 9                         @ rt-thread/components/finsh/finsh_ops.c:543:9
	b	.LBB47_24
.Ltmp117:
.LBB47_24:
	.loc	2 546 28                        @ rt-thread/components/finsh/finsh_ops.c:546:28
	ldr	r0, [sp, #116]
	.loc	2 546 5 is_stmt 0               @ rt-thread/components/finsh/finsh_ops.c:546:5
	movw	r1, :lower16:finsh_sp
	movt	r1, :upper16:finsh_sp
	ldr	r2, [r1]
	.loc	2 546 26                        @ rt-thread/components/finsh/finsh_ops.c:546:26
	str	r0, [r2]
	.loc	2 547 14 is_stmt 1              @ rt-thread/components/finsh/finsh_ops.c:547:14
	ldr	r0, [r1]
	adds	r0, #4
	str	r0, [r1]
	.loc	2 549 5                         @ rt-thread/components/finsh/finsh_ops.c:549:5
	add	sp, #196
	pop.w	{r4, r5, r6, r7, r8, r9, r10, r11, pc}
.Ltmp118:
.Lfunc_end47:
	.size	OP_call, .Lfunc_end47-OP_call
	.cfi_endproc
	.cantunwind
	.fnend
                                        @ -- End function
	.hidden	op_table                        @ @op_table
	.type	op_table,%object
	.section	.rodata.op_table,"a",%progbits
	.globl	op_table
	.p2align	2
op_table:
	.long	OP_no_op
	.long	OP_add_byte
	.long	OP_add_word
	.long	OP_add_dword
	.long	OP_sub_byte
	.long	OP_sub_word
	.long	OP_sub_dword
	.long	OP_div_byte
	.long	OP_div_word
	.long	OP_div_dword
	.long	OP_mod_byte
	.long	OP_mod_word
	.long	OP_mod_dword
	.long	OP_mul_byte
	.long	OP_mul_word
	.long	OP_mul_dword
	.long	OP_and_byte
	.long	OP_and_word
	.long	OP_and_dword
	.long	OP_or_byte
	.long	OP_or_word
	.long	OP_or_dword
	.long	OP_xor_byte
	.long	OP_xor_word
	.long	OP_xor_dword
	.long	OP_bw_byte
	.long	OP_bw_word
	.long	OP_bw_dword
	.long	OP_shl_byte
	.long	OP_shl_word
	.long	OP_shl_dword
	.long	OP_shr_byte
	.long	OP_shr_word
	.long	OP_shr_dword
	.long	OP_ld_byte
	.long	OP_ld_word
	.long	OP_ld_dword
	.long	OP_ld_value_byte
	.long	OP_ld_value_word
	.long	OP_ld_value_dword
	.long	OP_st_byte
	.long	OP_st_word
	.long	OP_st_dword
	.long	OP_pop
	.long	OP_call
	.long	OP_ld_value_byte_stack
	.long	OP_ld_value_word_stack
	.long	OP_ld_value_dword_stack
	.long	0
	.size	op_table, 196

	.section	".note.GNU-stack","",%progbits
	.eabi_attribute	30, 6	@ Tag_ABI_optimization_goals
	.ARM_attribute	16, 1	@ Tag_AV_eba