	.text
	.syntax unified
	.eabi_attribute	67, "2.09"	@ Tag_conformance
	.cpu	cortex-m7
	.eabi_attribute	6, 13	@ Tag_CPU_arch
	.eabi_attribute	7, 77	@ Tag_CPU_arch_profile
	.eabi_attribute	8, 0	@ Tag_ARM_ISA_use
	.eabi_attribute	9, 2	@ Tag_THUMB_ISA_use
	.fpu	fpv5-d16
	.eabi_attribute	36, 1	@ Tag_FP_HP_extension
	.eabi_attribute	34, 1	@ Tag_CPU_unaligned_access
	.eabi_attribute	17, 1	@ Tag_ABI_PCS_GOT_use
	.eabi_attribute	20, 2	@ Tag_ABI_FP_denormal
	.eabi_attribute	21, 0	@ Tag_ABI_FP_exceptions
	.eabi_attribute	23, 1	@ Tag_ABI_FP_number_model
	.eabi_attribute	24, 1	@ Tag_ABI_align_needed
	.eabi_attribute	25, 1	@ Tag_ABI_align_preserved
	.eabi_attribute	28, 1	@ Tag_ABI_VFP_args
	.eabi_attribute	38, 1	@ Tag_ABI_FP_16bit_format
	.eabi_attribute	18, 2	@ Tag_ABI_PCS_wchar_t
	.eabi_attribute	26, 1	@ Tag_ABI_enum_size
	.eabi_attribute	14, 0	@ Tag_ABI_PCS_R9_use
	.file	"finsh_init.c"
	.section	.text.finsh_init,"ax",%progbits
	.hidden	finsh_init                      @ -- Begin function finsh_init
	.globl	finsh_init
	.p2align	3
	.type	finsh_init,%function
	.code	16                              @ @finsh_init
	.thumb_func
finsh_init:
.Lfunc_begin0:
	.file	1 "E:\\Smart-access-control\\Hardware\\CODE" "rt-thread/components/finsh/finsh_init.c"
	.loc	1 20 0                          @ rt-thread/components/finsh/finsh_init.c:20:0
	.fnstart
	.cfi_sections .debug_frame
	.cfi_startproc
@ %bb.0:
	@DEBUG_VALUE: finsh_init:parser <- $r0
	@DEBUG_VALUE: finsh_init:parser <- $r0
	@DEBUG_VALUE: finsh_init:parser <- $r0
	.save	{r7, lr}
	push	{r7, lr}
	.cfi_def_cfa_offset 8
	.cfi_offset lr, -4
	.cfi_offset r7, -8
.Ltmp0:
	.loc	1 21 5 prologue_end             @ rt-thread/components/finsh/finsh_init.c:21:5
	bl	finsh_parser_init
.Ltmp1:
	@DEBUG_VALUE: finsh_init:parser <- [DW_OP_LLVM_entry_value 1] $r0
	.loc	1 24 5                          @ rt-thread/components/finsh/finsh_init.c:24:5
	bl	finsh_node_init
	.loc	1 25 5                          @ rt-thread/components/finsh/finsh_init.c:25:5
	bl	finsh_var_init
	.loc	1 26 5                          @ rt-thread/components/finsh/finsh_init.c:26:5
	bl	finsh_error_init
	.loc	1 27 5                          @ rt-thread/components/finsh/finsh_init.c:27:5
	bl	finsh_heap_init
	.loc	1 29 5                          @ rt-thread/components/finsh/finsh_init.c:29:5
	movs	r0, #0
	pop	{r7, pc}
.Ltmp2:
.Lfunc_end0:
	.size	finsh_init, .Lfunc_end0-finsh_init
	.cfi_endproc
	.cantunwind
	.fnend
                                        @ -- End function
	.section	.text.finsh_stack_bottom,"ax",%progbits
	.hidden	finsh_stack_bottom              @ -- Begin function finsh_stack_bottom
	.globl	finsh_stack_bottom
	.p2align	3
	.type	finsh_stack_bottom,%function
	.code	16                              @ @finsh_stack_bottom
	.thumb_func
finsh_stack_bottom:
.Lfunc_begin1:
	.loc	1 33 0                          @ rt-thread/components/finsh/finsh_init.c:33:0
	.fnstart
	.cfi_startproc
@ %bb.0:
	.loc	1 34 30 prologue_end            @ rt-thread/components/finsh/finsh_init.c:34:30
	movw	r0, :lower16:finsh_vm_stack
	movt	r0, :upper16:finsh_vm_stack
	ldr	r0, [r0]
	.loc	1 34 5 is_stmt 0                @ rt-thread/components/finsh/finsh_init.c:34:5
	bx	lr
.Ltmp3:
.Lfunc_end1:
	.size	finsh_stack_bottom, .Lfunc_end1-finsh_stack_bottom
	.cfi_endproc
	.cantunwind
	.fnend
                                        @ -- End function
	.section	.text.finsh_flush,"ax",%progbits
	.hidden	finsh_flush                     @ -- Begin function finsh_flush
	.globl	finsh_flush
	.p2align	3
	.type	finsh_flush,%function
	.code	16                              @ @finsh_flush
	.thumb_func
finsh_flush:
.Lfunc_begin2:
	.loc	1 38 0 is_stmt 1                @ rt-thread/components/finsh/finsh_init.c:38:0
	.fnstart
	.cfi_startproc
@ %bb.0:
	@DEBUG_VALUE: finsh_flush:parser <- $r0
	@DEBUG_VALUE: finsh_flush:parser <- $r0
	@DEBUG_VALUE: finsh_flush:parser <- $r0
	.save	{r7, lr}
	push	{r7, lr}
	.cfi_def_cfa_offset 8
	.cfi_offset lr, -4
	.cfi_offset r7, -8
.Ltmp4:
	.loc	1 39 5 prologue_end             @ rt-thread/components/finsh/finsh_init.c:39:5
	bl	finsh_parser_init
.Ltmp5:
	@DEBUG_VALUE: finsh_flush:parser <- [DW_OP_LLVM_entry_value 1] $r0
	.loc	1 42 5                          @ rt-thread/components/finsh/finsh_init.c:42:5
	bl	finsh_node_init
	.loc	1 43 5                          @ rt-thread/components/finsh/finsh_init.c:43:5
	bl	finsh_error_init
	.loc	1 45 5                          @ rt-thread/components/finsh/finsh_init.c:45:5
	movs	r0, #0
	pop	{r7, pc}
.Ltmp6:
.Lfunc_end2:
	.size	finsh_flush, .Lfunc_end2-finsh_flush
	.cfi_endproc
	.cantunwind
	.fnend
                                        @ -- End function
	.section	.text.finsh_reset,"ax",%progbits
	.hidden	finsh_reset                     @ -- Begin function finsh_reset
	.globl	finsh_reset
	.p2align	3
	.type	finsh_reset,%function
	.code	16                              @ @finsh_reset
	.thumb_func
finsh_reset:
.Lfunc_begin3:
	.loc	1 49 0                          @ rt-thread/components/finsh/finsh_init.c:49:0
	.fnstart
	.cfi_startproc
@ %bb.0:
	@DEBUG_VALUE: finsh_reset:parser <- $r0
	.save	{r7, lr}
	push	{r7, lr}
	.cfi_def_cfa_offset 8
	.cfi_offset lr, -4
	.cfi_offset r7, -8
.Ltmp7:
	.loc	1 51 5 prologue_end             @ rt-thread/components/finsh/finsh_init.c:51:5
	bl	finsh_node_init
.Ltmp8:
	@DEBUG_VALUE: finsh_reset:parser <- [DW_OP_LLVM_entry_value 1] $r0
	.loc	1 52 5                          @ rt-thread/components/finsh/finsh_init.c:52:5
	bl	finsh_var_init
	.loc	1 53 5                          @ rt-thread/components/finsh/finsh_init.c:53:5
	bl	finsh_error_init
	.loc	1 54 5                          @ rt-thread/components/finsh/finsh_init.c:54:5
	bl	finsh_heap_init
	.loc	1 56 5                          @ rt-thread/components/finsh/finsh_init.c:56:5
	movs	r0, #0
	pop	{r7, pc}
.Ltmp9:
.Lfunc_end3:
	.size	finsh_reset, .Lfunc_end3-finsh_reset
	.cfi_endproc
	.cantunwind
	.fnend
                                        @ -- End function
	.file	2 "D:\\Keil_v5\\ARM\\ARMCLANG\\Bin\\..\\include" "stdint.h"
	.file	3 "E:\\Smart-access-control\\Hardware\\CODE" "rt-thread/components/finsh\\finsh.h"
	.file	4 "E:\\Smart-access-control\\Hardware\\CODE" "rt-thread/components/finsh/finsh_var.h"
	.file	5 "E:\\Smart-access-control\\Hardware\\CODE" "rt-thread/components/finsh/finsh_api.h"
	.section	".note.GNU-stack","",%progbits
	.eabi_attribute	30, 1	@ Tag_ABI_optimization_goals
	.ARM_attribute	16, 1	@ Tag_AV_eba