	.text
	.syntax unified
	.eabi_attribute	67, "2.09"	@ Tag_conformance
	.cpu	cortex-m7
	.eabi_attribute	6, 13	@ Tag_CPU_arch
	.eabi_attribute	7, 77	@ Tag_CPU_arch_profile
	.eabi_attribute	8, 0	@ Tag_ARM_ISA_use
	.eabi_attribute	9, 2	@ Tag_THUMB_ISA_use
	.fpu	fpv5-d16
	.eabi_attribute	36, 1	@ Tag_FP_HP_extension
	.eabi_attribute	34, 1	@ Tag_CPU_unaligned_access
	.eabi_attribute	17, 1	@ Tag_ABI_PCS_GOT_use
	.eabi_attribute	20, 2	@ Tag_ABI_FP_denormal
	.eabi_attribute	21, 0	@ Tag_ABI_FP_exceptions
	.eabi_attribute	23, 1	@ Tag_ABI_FP_number_model
	.eabi_attribute	24, 1	@ Tag_ABI_align_needed
	.eabi_attribute	25, 1	@ Tag_ABI_align_preserved
	.eabi_attribute	28, 1	@ Tag_ABI_VFP_args
	.eabi_attribute	38, 1	@ Tag_ABI_FP_16bit_format
	.eabi_attribute	18, 2	@ Tag_ABI_PCS_wchar_t
	.eabi_attribute	26, 1	@ Tag_ABI_enum_size
	.eabi_attribute	14, 0	@ Tag_ABI_PCS_R9_use
	.file	"finsh_compiler.c"
	.file	1 "E:\\Smart-access-control\\Hardware\\CODE" "rt-thread/components/finsh/finsh_vm.h"
	.file	2 "E:\\Smart-access-control\\Hardware\\CODE" "rt-thread/components/finsh/finsh_compiler.c"
	.file	3 "D:\\Keil_v5\\ARM\\ARMCLANG\\Bin\\..\\include" "stdint.h"
	.file	4 "E:\\Smart-access-control\\Hardware\\CODE" "rt-thread/include\\rtdef.h"
	.section	.text.finsh_compiler_run,"ax",%progbits
	.hidden	finsh_compiler_run              @ -- Begin function finsh_compiler_run
	.globl	finsh_compiler_run
	.p2align	3
	.type	finsh_compiler_run,%function
	.code	16                              @ @finsh_compiler_run
	.thumb_func
finsh_compiler_run:
.Lfunc_begin0:
	.loc	2 885 0                         @ rt-thread/components/finsh/finsh_compiler.c:885:0
	.fnstart
	.cfi_sections .debug_frame
	.cfi_startproc
@ %bb.0:
	@DEBUG_VALUE: finsh_compiler_run:node <- $r0
	.save	{r4, r5, r6, r7, r8, lr}
	push.w	{r4, r5, r6, r7, r8, lr}
	.cfi_def_cfa_offset 24
	.cfi_offset lr, -4
	.cfi_offset r8, -8
	.cfi_offset r7, -12
	.cfi_offset r6, -16
	.cfi_offset r5, -20
	.cfi_offset r4, -24
.Ltmp0:
	.loc	2 889 5 prologue_end            @ rt-thread/components/finsh/finsh_compiler.c:889:5
	movs	r1, #0
	mov	r4, r0
.Ltmp1:
	@DEBUG_VALUE: finsh_compiler_run:node <- $r4
	.loc	2 0 5 is_stmt 0                 @ rt-thread/components/finsh/finsh_compiler.c:0:5
	movs	r7, #0
	.loc	2 889 5                         @ rt-thread/components/finsh/finsh_compiler.c:889:5
	bl	finsh_type_check
	.loc	2 892 5 is_stmt 1               @ rt-thread/components/finsh/finsh_compiler.c:892:5
	movw	r5, :lower16:text_segment
	movs	r1, #128
	movt	r5, :upper16:text_segment
	mov	r0, r5
	bl	__aeabi_memclr
	.loc	2 893 5                         @ rt-thread/components/finsh/finsh_compiler.c:893:5
	movw	r6, :lower16:finsh_vm_stack
	mov.w	r1, #256
	movt	r6, :upper16:finsh_vm_stack
	mov	r0, r6
	bl	__aeabi_memclr4
	.loc	2 896 22                        @ rt-thread/components/finsh/finsh_compiler.c:896:22
	movw	r0, :lower16:finsh_compile_sp
	movt	r0, :upper16:finsh_compile_sp
	str	r6, [r0]
	.loc	2 897 22                        @ rt-thread/components/finsh/finsh_compiler.c:897:22
	movw	r6, :lower16:finsh_compile_pc
	movt	r6, :upper16:finsh_compile_pc
	str	r5, [r6]
.Ltmp2:
	@DEBUG_VALUE: finsh_compiler_run:sibling <- $r4
	.loc	2 901 5                         @ rt-thread/components/finsh/finsh_compiler.c:901:5
	cbz	r4, .LBB0_4
.Ltmp3:
@ %bb.1:
	@DEBUG_VALUE: finsh_compiler_run:sibling <- $r4
	@DEBUG_VALUE: finsh_compiler_run:node <- $r4
	@DEBUG_VALUE: finsh_compiler_run:sibling <- $r4
	@DEBUG_VALUE: current_node <- $r4
	.loc	2 911 9                         @ rt-thread/components/finsh/finsh_compiler.c:911:9
	mov	r0, r4
	.loc	2 907 33                        @ rt-thread/components/finsh/finsh_compiler.c:907:33
	ldr	r5, [r4, #12]
.Ltmp4:
	@DEBUG_VALUE: finsh_compiler_run:sibling <- $r5
	.loc	2 910 31                        @ rt-thread/components/finsh/finsh_compiler.c:910:31
	str	r7, [r4, #12]
	.loc	2 911 9                         @ rt-thread/components/finsh/finsh_compiler.c:911:9
	bl	finsh_compile
	.loc	2 914 13                        @ rt-thread/components/finsh/finsh_compiler.c:914:13
	cbz	r5, .LBB0_4
.Ltmp5:
@ %bb.2:
	@DEBUG_VALUE: finsh_compiler_run:sibling <- $r5
	@DEBUG_VALUE: current_node <- $r4
	@DEBUG_VALUE: finsh_compiler_run:node <- $r4
	.loc	2 0 13 is_stmt 0                @ rt-thread/components/finsh/finsh_compiler.c:0:13
	mov.w	r8, #43
	movs	r7, #0
.Ltmp6:
	.p2align	2
.LBB0_3:                                @ =>This Inner Loop Header: Depth=1
	@DEBUG_VALUE: finsh_compiler_run:sibling <- $r5
	.loc	2 914 30                        @ rt-thread/components/finsh/finsh_compiler.c:914:30
	ldr	r0, [r6]
	strb.w	r8, [r0]
	ldr	r0, [r6]
.Ltmp7:
	.loc	2 907 33 is_stmt 1              @ rt-thread/components/finsh/finsh_compiler.c:907:33
	ldr	r4, [r5, #12]
.Ltmp8:
	@DEBUG_VALUE: finsh_compiler_run:node <- [DW_OP_LLVM_entry_value 1] $r0
	@DEBUG_VALUE: finsh_compiler_run:sibling <- $r4
	.loc	2 914 30                        @ rt-thread/components/finsh/finsh_compiler.c:914:30
	adds	r0, #1
	str	r0, [r6]
.Ltmp9:
	@DEBUG_VALUE: current_node <- $r5
	@DEBUG_VALUE: finsh_compiler_run:sibling <- $r5
	.loc	2 911 9                         @ rt-thread/components/finsh/finsh_compiler.c:911:9
	mov	r0, r5
	.loc	2 910 31                        @ rt-thread/components/finsh/finsh_compiler.c:910:31
	str	r7, [r5, #12]
	.loc	2 911 9                         @ rt-thread/components/finsh/finsh_compiler.c:911:9
	bl	finsh_compile
	.loc	2 914 13                        @ rt-thread/components/finsh/finsh_compiler.c:914:13
	cmp	r4, #0
	mov	r5, r4
.Ltmp10:
	@DEBUG_VALUE: finsh_compiler_run:sibling <- $r5
	bne	.LBB0_3
.Ltmp11:
.LBB0_4:
	.loc	2 917 5                         @ rt-thread/components/finsh/finsh_compiler.c:917:5
	movs	r0, #0
	pop.w	{r4, r5, r6, r7, r8, pc}
.Ltmp12:
.Lfunc_end0:
	.size	finsh_compiler_run, .Lfunc_end0-finsh_compiler_run
	.cfi_endproc
	.cantunwind
	.fnend
                                        @ -- End function
	.section	.text.finsh_type_check,"ax",%progbits
	.p2align	3                               @ -- Begin function finsh_type_check
	.type	finsh_type_check,%function
	.code	16                              @ @finsh_type_check
	.thumb_func
finsh_type_check:
.Lfunc_begin1:
	.loc	2 741 0                         @ rt-thread/components/finsh/finsh_compiler.c:741:0
	.fnstart
	.cfi_startproc
@ %bb.0:
	@DEBUG_VALUE: finsh_type_check:node <- $r0
	@DEBUG_VALUE: finsh_type_check:is_addr <- $r1
	@DEBUG_VALUE: finsh_type_check:is_addr <- undef
	@DEBUG_VALUE: finsh_type_check:node <- $r0
	.save	{r4, r5, r7, lr}
	push	{r4, r5, r7, lr}
	.cfi_def_cfa_offset 16
	.cfi_offset lr, -4
	.cfi_offset r7, -8
	.cfi_offset r5, -12
	.cfi_offset r4, -16
.Ltmp13:
	@DEBUG_VALUE: finsh_type_check:is_addr <- $r1
	.loc	2 742 9 prologue_end            @ rt-thread/components/finsh/finsh_compiler.c:742:9
	cbz	r0, .LBB1_14
.Ltmp14:
@ %bb.1:
	@DEBUG_VALUE: finsh_type_check:is_addr <- $r1
	@DEBUG_VALUE: finsh_type_check:node <- $r0
	.loc	2 0 9 is_stmt 0                 @ rt-thread/components/finsh/finsh_compiler.c:0:9
	mov	r4, r0
.Ltmp15:
	@DEBUG_VALUE: finsh_type_check:node <- $r4
	.loc	2 745 19 is_stmt 1              @ rt-thread/components/finsh/finsh_compiler.c:745:19
	ldrb	r0, [r0]
	mov	r5, r1
.Ltmp16:
	@DEBUG_VALUE: finsh_type_check:is_addr <- $r5
	@DEBUG_VALUE: finsh_type_check:is_addr <- $r5
	@DEBUG_VALUE: finsh_type_check:is_addr <- $r5
	.loc	2 745 54 is_stmt 0              @ rt-thread/components/finsh/finsh_compiler.c:745:54
	cmp	r0, #26
	bhi	.LBB1_7
.Ltmp17:
@ %bb.2:
	@DEBUG_VALUE: finsh_type_check:is_addr <- $r5
	@DEBUG_VALUE: finsh_type_check:node <- $r4
	.loc	2 0 54                          @ rt-thread/components/finsh/finsh_compiler.c:0:54
	movs	r1, #1
	lsls	r1, r0
	tst.w	r1, #73924608
	beq	.LBB1_4
.Ltmp18:
@ %bb.3:
	@DEBUG_VALUE: finsh_type_check:is_addr <- $r5
	@DEBUG_VALUE: finsh_type_check:node <- $r4
	movs	r1, #8
	b	.LBB1_8
.Ltmp19:
.LBB1_4:
	@DEBUG_VALUE: finsh_type_check:is_addr <- $r5
	@DEBUG_VALUE: finsh_type_check:node <- $r4
	cmp	r0, #25
	bne	.LBB1_7
.Ltmp20:
@ %bb.5:
	@DEBUG_VALUE: finsh_type_check:is_addr <- $r5
	@DEBUG_VALUE: finsh_type_check:node <- $r4
	.loc	2 753 18 is_stmt 1              @ rt-thread/components/finsh/finsh_compiler.c:753:18
	cbz	r5, .LBB1_7
.Ltmp21:
@ %bb.6:
	@DEBUG_VALUE: finsh_type_check:is_addr <- $r5
	@DEBUG_VALUE: finsh_type_check:node <- $r4
	.loc	2 0 18 is_stmt 0                @ rt-thread/components/finsh/finsh_compiler.c:0:18
	movs	r1, #0
	b	.LBB1_8
.Ltmp22:
.LBB1_7:
	@DEBUG_VALUE: finsh_type_check:is_addr <- $r5
	@DEBUG_VALUE: finsh_type_check:node <- $r4
	@DEBUG_VALUE: finsh_type_check:is_addr <- $r5
	mov	r1, r5
.Ltmp23:
.LBB1_8:
	@DEBUG_VALUE: finsh_type_check:is_addr <- $r5
	@DEBUG_VALUE: finsh_type_check:node <- $r4
	ldr	r0, [r4, #16]
	bl	finsh_type_check
.Ltmp24:
	.loc	2 765 26 is_stmt 1              @ rt-thread/components/finsh/finsh_compiler.c:765:26
	ldr	r0, [r4, #12]
	.loc	2 765 9 is_stmt 0               @ rt-thread/components/finsh/finsh_compiler.c:765:9
	movs	r1, #0
	bl	finsh_type_check
.Ltmp25:
	.loc	2 770 19 is_stmt 1              @ rt-thread/components/finsh/finsh_compiler.c:770:19
	ldrb	r0, [r4, #2]
.Ltmp26:
	.loc	2 770 13 is_stmt 0              @ rt-thread/components/finsh/finsh_compiler.c:770:13
	cmp	r0, #4
	beq	.LBB1_10
.Ltmp27:
@ %bb.9:
	@DEBUG_VALUE: finsh_type_check:is_addr <- $r5
	@DEBUG_VALUE: finsh_type_check:node <- $r4
	.loc	2 770 64                        @ rt-thread/components/finsh/finsh_compiler.c:770:64
	orrs	r0, r5
	strb	r0, [r4, #2]
.Ltmp28:
.LBB1_10:
	@DEBUG_VALUE: finsh_type_check:is_addr <- $r5
	@DEBUG_VALUE: finsh_type_check:node <- $r4
	.loc	2 772 13 is_stmt 1              @ rt-thread/components/finsh/finsh_compiler.c:772:13
	ldr	r0, [r4, #16]
.Ltmp29:
	.loc	2 772 13 is_stmt 0              @ rt-thread/components/finsh/finsh_compiler.c:772:13
	cbz	r0, .LBB1_12
.Ltmp30:
@ %bb.11:
	@DEBUG_VALUE: finsh_type_check:is_addr <- $r5
	@DEBUG_VALUE: finsh_type_check:node <- $r4
	.loc	2 774 55 is_stmt 1              @ rt-thread/components/finsh/finsh_compiler.c:774:55
	ldrb	r0, [r0, #1]
	.loc	2 774 29 is_stmt 0              @ rt-thread/components/finsh/finsh_compiler.c:774:29
	strb	r0, [r4, #1]
.Ltmp31:
	.loc	2 882 1 is_stmt 1               @ rt-thread/components/finsh/finsh_compiler.c:882:1
	pop	{r4, r5, r7, pc}
.Ltmp32:
.LBB1_12:
	@DEBUG_VALUE: finsh_type_check:is_addr <- $r5
	@DEBUG_VALUE: finsh_type_check:node <- $r4
	.loc	2 778 19                        @ rt-thread/components/finsh/finsh_compiler.c:778:19
	ldrb	r0, [r4]
.Ltmp33:
	.loc	2 778 13 is_stmt 0              @ rt-thread/components/finsh/finsh_compiler.c:778:13
	subs	r1, r0, #3
	cmp	r1, #4
	bhs	.LBB1_15
.Ltmp34:
@ %bb.13:
	@DEBUG_VALUE: finsh_type_check:is_addr <- $r5
	@DEBUG_VALUE: finsh_type_check:node <- $r4
	.loc	2 0 13                          @ rt-thread/components/finsh/finsh_compiler.c:0:13
	movs	r0, #3
.Ltmp35:
	.loc	2 878 29 is_stmt 1              @ rt-thread/components/finsh/finsh_compiler.c:878:29
	strb	r0, [r4, #1]
.Ltmp36:
.LBB1_14:
	.loc	2 882 1                         @ rt-thread/components/finsh/finsh_compiler.c:882:1
	pop	{r4, r5, r7, pc}
.LBB1_15:
.Ltmp37:
	@DEBUG_VALUE: finsh_type_check:is_addr <- $r5
	@DEBUG_VALUE: finsh_type_check:node <- $r4
	.loc	2 778 13                        @ rt-thread/components/finsh/finsh_compiler.c:778:13
	cmp	r0, #2
	beq	.LBB1_28
.Ltmp38:
@ %bb.16:
	@DEBUG_VALUE: finsh_type_check:is_addr <- $r5
	@DEBUG_VALUE: finsh_type_check:node <- $r4
	cmp	r0, #1
	bne	.LBB1_14
.Ltmp39:
@ %bb.17:
	@DEBUG_VALUE: finsh_type_check:is_addr <- $r5
	@DEBUG_VALUE: finsh_type_check:node <- $r4
	.loc	2 780 23                        @ rt-thread/components/finsh/finsh_compiler.c:780:23
	ldrb	r0, [r4, #2]
.Ltmp40:
	.loc	2 780 17 is_stmt 0              @ rt-thread/components/finsh/finsh_compiler.c:780:17
	lsls	r1, r0, #31
	bne	.LBB1_23
.Ltmp41:
@ %bb.18:
	@DEBUG_VALUE: finsh_type_check:is_addr <- $r5
	@DEBUG_VALUE: finsh_type_check:node <- $r4
	.loc	2 824 22 is_stmt 1              @ rt-thread/components/finsh/finsh_compiler.c:824:22
	lsls	r0, r0, #30
	bpl	.LBB1_14
.Ltmp42:
@ %bb.19:
	@DEBUG_VALUE: finsh_type_check:is_addr <- $r5
	@DEBUG_VALUE: finsh_type_check:node <- $r4
	.loc	2 828 35                        @ rt-thread/components/finsh/finsh_compiler.c:828:35
	ldr	r0, [r4, #8]
.Ltmp43:
	@DEBUG_VALUE: sysvar <- $r0
	.loc	2 829 21                        @ rt-thread/components/finsh/finsh_compiler.c:829:21
	cmp	r0, #0
.Ltmp44:
	.loc	2 882 1                         @ rt-thread/components/finsh/finsh_compiler.c:882:1
	it	eq
	popeq	{r4, r5, r7, pc}
.Ltmp45:
.LBB1_20:
	@DEBUG_VALUE: sysvar <- $r0
	.loc	2 831 37                        @ rt-thread/components/finsh/finsh_compiler.c:831:37
	ldrb	r0, [r0, #8]
.Ltmp46:
	.loc	2 831 21 is_stmt 0              @ rt-thread/components/finsh/finsh_compiler.c:831:21
	subs	r0, #1
	cmp	r0, #13
	bhi	.LBB1_30
.Ltmp47:
@ %bb.21:
	.loc	2 0 21                          @ rt-thread/components/finsh/finsh_compiler.c:0:21
.LCPI1_0:
	tbb	[pc, r0]
@ %bb.22:
.LJTI1_1:
	.byte	(.LBB1_31-(.LCPI1_0+4))/2
	.byte	(.LBB1_27-(.LCPI1_0+4))/2
	.byte	(.LBB1_28-(.LCPI1_0+4))/2
	.byte	(.LBB1_28-(.LCPI1_0+4))/2
	.byte	(.LBB1_27-(.LCPI1_0+4))/2
	.byte	(.LBB1_29-(.LCPI1_0+4))/2
	.byte	(.LBB1_29-(.LCPI1_0+4))/2
	.byte	(.LBB1_27-(.LCPI1_0+4))/2
	.byte	(.LBB1_27-(.LCPI1_0+4))/2
	.byte	(.LBB1_27-(.LCPI1_0+4))/2
	.byte	(.LBB1_27-(.LCPI1_0+4))/2
	.byte	(.LBB1_27-(.LCPI1_0+4))/2
	.byte	(.LBB1_27-(.LCPI1_0+4))/2
	.byte	(.LBB1_27-(.LCPI1_0+4))/2
	.p2align	1
.LBB1_23:
.Ltmp48:
	@DEBUG_VALUE: finsh_type_check:is_addr <- $r5
	@DEBUG_VALUE: finsh_type_check:node <- $r4
	.loc	2 784 32 is_stmt 1              @ rt-thread/components/finsh/finsh_compiler.c:784:32
	ldr	r0, [r4, #8]
.Ltmp49:
	@DEBUG_VALUE: var <- $r0
	.loc	2 785 21                        @ rt-thread/components/finsh/finsh_compiler.c:785:21
	cmp	r0, #0
	beq	.LBB1_14
.Ltmp50:
@ %bb.24:
	@DEBUG_VALUE: finsh_type_check:is_addr <- $r5
	@DEBUG_VALUE: finsh_type_check:node <- $r4
	@DEBUG_VALUE: var <- $r0
	.loc	2 787 34                        @ rt-thread/components/finsh/finsh_compiler.c:787:34
	ldrb	r0, [r0, #17]
.Ltmp51:
	.loc	2 787 21 is_stmt 0              @ rt-thread/components/finsh/finsh_compiler.c:787:21
	subs	r0, #1
	cmp	r0, #13
	bhi	.LBB1_30
.Ltmp52:
@ %bb.25:
	@DEBUG_VALUE: finsh_type_check:is_addr <- $r5
	@DEBUG_VALUE: finsh_type_check:node <- $r4
	.loc	2 0 21                          @ rt-thread/components/finsh/finsh_compiler.c:0:21
.LCPI1_1:
	tbb	[pc, r0]
.Ltmp53:
@ %bb.26:
.LJTI1_0:
	.byte	(.LBB1_31-(.LCPI1_1+4))/2
	.byte	(.LBB1_27-(.LCPI1_1+4))/2
	.byte	(.LBB1_28-(.LCPI1_1+4))/2
	.byte	(.LBB1_28-(.LCPI1_1+4))/2
	.byte	(.LBB1_27-(.LCPI1_1+4))/2
	.byte	(.LBB1_29-(.LCPI1_1+4))/2
	.byte	(.LBB1_29-(.LCPI1_1+4))/2
	.byte	(.LBB1_27-(.LCPI1_1+4))/2
	.byte	(.LBB1_27-(.LCPI1_1+4))/2
	.byte	(.LBB1_27-(.LCPI1_1+4))/2
	.byte	(.LBB1_27-(.LCPI1_1+4))/2
	.byte	(.LBB1_27-(.LCPI1_1+4))/2
	.byte	(.LBB1_27-(.LCPI1_1+4))/2
	.byte	(.LBB1_27-(.LCPI1_1+4))/2
	.p2align	1
.LBB1_27:
	movs	r0, #3
	strb	r0, [r4, #1]
.Ltmp54:
	.loc	2 882 1 is_stmt 1               @ rt-thread/components/finsh/finsh_compiler.c:882:1
	pop	{r4, r5, r7, pc}
.LBB1_28:
	.loc	2 0 1 is_stmt 0                 @ rt-thread/components/finsh/finsh_compiler.c:0:1
	movs	r0, #1
.Ltmp55:
	strb	r0, [r4, #1]
.Ltmp56:
	.loc	2 882 1                         @ rt-thread/components/finsh/finsh_compiler.c:882:1
	pop	{r4, r5, r7, pc}
.LBB1_29:
	.loc	2 0 1                           @ rt-thread/components/finsh/finsh_compiler.c:0:1
	movs	r0, #2
.Ltmp57:
	strb	r0, [r4, #1]
.Ltmp58:
	.loc	2 882 1                         @ rt-thread/components/finsh/finsh_compiler.c:882:1
	pop	{r4, r5, r7, pc}
.LBB1_30:
.Ltmp59:
	.loc	2 0 0                           @ rt-thread/components/finsh/finsh_compiler.c:0:0
	movs	r0, #3
	bl	finsh_error_set
.Ltmp60:
	.loc	2 882 1                         @ rt-thread/components/finsh/finsh_compiler.c:882:1
	pop	{r4, r5, r7, pc}
.LBB1_31:
	.loc	2 0 1                           @ rt-thread/components/finsh/finsh_compiler.c:0:1
	movs	r0, #0
.Ltmp61:
	strb	r0, [r4, #1]
.Ltmp62:
	.loc	2 882 1                         @ rt-thread/components/finsh/finsh_compiler.c:882:1
	pop	{r4, r5, r7, pc}
.Ltmp63:
.Lfunc_end1:
	.size	finsh_type_check, .Lfunc_end1-finsh_type_check
	.cfi_endproc
	.cantunwind
	.fnend
                                        @ -- End function
	.section	.text.finsh_compile,"ax",%progbits
	.p2align	3                               @ -- Begin function finsh_compile
	.type	finsh_compile,%function
	.code	16                              @ @finsh_compile
	.thumb_func
finsh_compile:
.Lfunc_begin2:
	.loc	2 25 0 is_stmt 1                @ rt-thread/components/finsh/finsh_compiler.c:25:0
	.fnstart
	.cfi_startproc
@ %bb.0:
	@DEBUG_VALUE: finsh_compile:node <- $r0
	@DEBUG_VALUE: finsh_compile:node <- $r0
	.save	{r4, r5, r6, lr}
	push	{r4, r5, r6, lr}
	.cfi_def_cfa_offset 16
	.cfi_offset lr, -4
	.cfi_offset r6, -8
	.cfi_offset r5, -12
	.cfi_offset r4, -16
.Ltmp64:
	.loc	2 26 9 prologue_end             @ rt-thread/components/finsh/finsh_compiler.c:26:9
	cmp	r0, #0
	beq.w	.LBB2_142
.Ltmp65:
@ %bb.1:
	@DEBUG_VALUE: finsh_compile:node <- $r0
	.loc	2 0 9 is_stmt 0                 @ rt-thread/components/finsh/finsh_compiler.c:0:9
	mov	r4, r0
.Ltmp66:
	@DEBUG_VALUE: finsh_compile:node <- $r4
	.loc	2 29 13 is_stmt 1               @ rt-thread/components/finsh/finsh_compiler.c:29:13
	ldr	r0, [r0, #16]
.Ltmp67:
	.loc	2 29 13 is_stmt 0               @ rt-thread/components/finsh/finsh_compiler.c:29:13
	cbz	r0, .LBB2_3
.Ltmp68:
@ %bb.2:
	@DEBUG_VALUE: finsh_compile:node <- $r4
	.loc	2 30 13 is_stmt 1               @ rt-thread/components/finsh/finsh_compiler.c:30:13
	bl	finsh_compile
.Ltmp69:
.LBB2_3:
	@DEBUG_VALUE: finsh_compile:node <- $r4
	.loc	2 33 23                         @ rt-thread/components/finsh/finsh_compiler.c:33:23
	ldrb	r0, [r4]
	.loc	2 33 9 is_stmt 0                @ rt-thread/components/finsh/finsh_compiler.c:33:9
	subs	r0, #1
	cmp	r0, #26
	bhi.w	.LBB2_67
.Ltmp70:
@ %bb.4:
	@DEBUG_VALUE: finsh_compile:node <- $r4
	.loc	2 0 9                           @ rt-thread/components/finsh/finsh_compiler.c:0:9
.LCPI2_0:
	tbh	[pc, r0, lsl #1]
.Ltmp71:
@ %bb.5:
.LJTI2_0:
	.short	(.LBB2_9-(.LCPI2_0+4))/2
	.short	(.LBB2_15-(.LCPI2_0+4))/2
	.short	(.LBB2_6-(.LCPI2_0+4))/2
	.short	(.LBB2_6-(.LCPI2_0+4))/2
	.short	(.LBB2_6-(.LCPI2_0+4))/2
	.short	(.LBB2_6-(.LCPI2_0+4))/2
	.short	(.LBB2_16-(.LCPI2_0+4))/2
	.short	(.LBB2_20-(.LCPI2_0+4))/2
	.short	(.LBB2_24-(.LCPI2_0+4))/2
	.short	(.LBB2_28-(.LCPI2_0+4))/2
	.short	(.LBB2_32-(.LCPI2_0+4))/2
	.short	(.LBB2_36-(.LCPI2_0+4))/2
	.short	(.LBB2_40-(.LCPI2_0+4))/2
	.short	(.LBB2_44-(.LCPI2_0+4))/2
	.short	(.LBB2_48-(.LCPI2_0+4))/2
	.short	(.LBB2_52-(.LCPI2_0+4))/2
	.short	(.LBB2_56-(.LCPI2_0+4))/2
	.short	(.LBB2_60-(.LCPI2_0+4))/2
	.short	(.LBB2_64-(.LCPI2_0+4))/2
	.short	(.LBB2_67-(.LCPI2_0+4))/2
	.short	(.LBB2_69-(.LCPI2_0+4))/2
	.short	(.LBB2_75-(.LCPI2_0+4))/2
	.short	(.LBB2_82-(.LCPI2_0+4))/2
	.short	(.LBB2_88-(.LCPI2_0+4))/2
	.short	(.LBB2_94-(.LCPI2_0+4))/2
	.short	(.LBB2_140-(.LCPI2_0+4))/2
	.short	(.LBB2_99-(.LCPI2_0+4))/2
	.p2align	1
.LBB2_6:
.Ltmp72:
	@DEBUG_VALUE: finsh_compile:node <- $r4
	movw	r0, :lower16:finsh_compile_pc
	movs	r2, #36
	movt	r0, :upper16:finsh_compile_pc
	ldr	r1, [r0]
	strb	r2, [r1]
	ldr	r1, [r0]
	adds	r2, r1, #1
	str	r2, [r0]
	ldr	r2, [r4, #4]
	strb	r2, [r1, #1]
	ldr	r2, [r4, #4]
	lsrs	r2, r2, #8
	ldr	r1, [r0]
	strb	r2, [r1, #1]
	ldr	r1, [r0]
	ldrh	r2, [r4, #6]
	strb	r2, [r1, #2]
	ldrb	r2, [r4, #7]
.Ltmp73:
.LBB2_7:
	@DEBUG_VALUE: finsh_compile:node <- $r4
	ldr	r1, [r0]
	strb	r2, [r1, #3]
.Ltmp74:
.LBB2_8:
	@DEBUG_VALUE: finsh_compile:node <- $r4
	ldr	r1, [r0]
	adds	r1, #4
	str	r1, [r0]
	b	.LBB2_140
.Ltmp75:
.LBB2_9:
	@DEBUG_VALUE: finsh_compile:node <- $r4
	.loc	2 38 27 is_stmt 1               @ rt-thread/components/finsh/finsh_compiler.c:38:27
	ldrb	r1, [r4, #2]
.Ltmp76:
	.loc	2 38 21 is_stmt 0               @ rt-thread/components/finsh/finsh_compiler.c:38:21
	lsls	r0, r1, #29
	bmi.w	.LBB2_106
.Ltmp77:
@ %bb.10:
	@DEBUG_VALUE: finsh_compile:node <- $r4
	.loc	2 45 26 is_stmt 1               @ rt-thread/components/finsh/finsh_compiler.c:45:26
	lsls	r0, r1, #30
	bmi.w	.LBB2_107
.Ltmp78:
@ %bb.11:
	@DEBUG_VALUE: finsh_compile:node <- $r4
	.loc	2 115 36                        @ rt-thread/components/finsh/finsh_compiler.c:115:36
	ldr.w	r12, [r4, #8]
.Ltmp79:
	@DEBUG_VALUE: var <- $r12
	.loc	2 116 25                        @ rt-thread/components/finsh/finsh_compiler.c:116:25
	cmp.w	r12, #0
	beq.w	.LBB2_140
.Ltmp80:
@ %bb.12:
	@DEBUG_VALUE: var <- $r12
	@DEBUG_VALUE: finsh_compile:node <- $r4
	.loc	2 118 38                        @ rt-thread/components/finsh/finsh_compiler.c:118:38
	ldrb.w	r2, [r12, #17]
	.loc	2 118 25 is_stmt 0              @ rt-thread/components/finsh/finsh_compiler.c:118:25
	cmp	r2, #14
	bhi.w	.LBB2_140
.Ltmp81:
@ %bb.13:
	@DEBUG_VALUE: var <- $r12
	@DEBUG_VALUE: finsh_compile:node <- $r4
	.loc	2 0 25                          @ rt-thread/components/finsh/finsh_compiler.c:0:25
	movs	r3, #1
	movw	r0, #32544
	lsls	r3, r2
	tst	r3, r0
	beq.w	.LBB2_155
.Ltmp82:
@ %bb.14:
	@DEBUG_VALUE: var <- $r12
	@DEBUG_VALUE: finsh_compile:node <- $r4
	movw	r0, :lower16:finsh_compile_pc
.Ltmp83:
	.loc	2 160 33 is_stmt 1              @ rt-thread/components/finsh/finsh_compiler.c:160:33
	lsls	r1, r1, #28
.Ltmp84:
	.loc	2 0 0 is_stmt 0                 @ rt-thread/components/finsh/finsh_compiler.c:0:0
	movt	r0, :upper16:finsh_compile_pc
	mov.w	r1, #36
	ldr	r2, [r0]
.Ltmp85:
	.loc	2 160 33                        @ rt-thread/components/finsh/finsh_compiler.c:160:33
	it	pl
	movpl	r1, #39
	b.w	.LBB2_162
.Ltmp86:
.LBB2_15:
	@DEBUG_VALUE: finsh_compile:node <- $r4
	.loc	2 181 13 is_stmt 1              @ rt-thread/components/finsh/finsh_compiler.c:181:13
	movw	r0, :lower16:finsh_compile_pc
	movs	r2, #34
	movt	r0, :upper16:finsh_compile_pc
	ldr	r1, [r0]
	strb	r2, [r1]
	ldr	r1, [r0]
	adds	r2, r1, #1
	str	r2, [r0]
.Ltmp87:
	.loc	2 182 13                        @ rt-thread/components/finsh/finsh_compiler.c:182:13
	ldrb	r2, [r4, #4]
.Ltmp88:
	.loc	2 0 0 is_stmt 0                 @ rt-thread/components/finsh/finsh_compiler.c:0:0
	strb	r2, [r1, #1]
	b	.LBB2_139
.Ltmp89:
.LBB2_16:
	@DEBUG_VALUE: finsh_compile:node <- $r4
	.loc	2 199 23 is_stmt 1              @ rt-thread/components/finsh/finsh_compiler.c:199:23
	ldrb	r0, [r4, #1]
.Ltmp90:
	.loc	2 199 17 is_stmt 0              @ rt-thread/components/finsh/finsh_compiler.c:199:17
	cmp	r0, #3
	beq.w	.LBB2_111
.Ltmp91:
@ %bb.17:
	@DEBUG_VALUE: finsh_compile:node <- $r4
	cmp	r0, #2
	beq.w	.LBB2_112
.Ltmp92:
@ %bb.18:
	@DEBUG_VALUE: finsh_compile:node <- $r4
	cmp	r0, #1
	bne.w	.LBB2_140
.Ltmp93:
@ %bb.19:
	@DEBUG_VALUE: finsh_compile:node <- $r4
	.loc	2 199 58                        @ rt-thread/components/finsh/finsh_compiler.c:199:58
	movw	r0, :lower16:finsh_compile_pc
	movs	r2, #1
	b	.LBB2_138
.Ltmp94:
.LBB2_20:
	@DEBUG_VALUE: finsh_compile:node <- $r4
	.loc	2 205 23 is_stmt 1              @ rt-thread/components/finsh/finsh_compiler.c:205:23
	ldrb	r0, [r4, #1]
.Ltmp95:
	.loc	2 205 17 is_stmt 0              @ rt-thread/components/finsh/finsh_compiler.c:205:17
	cmp	r0, #3
	beq.w	.LBB2_113
.Ltmp96:
@ %bb.21:
	@DEBUG_VALUE: finsh_compile:node <- $r4
	cmp	r0, #2
	beq.w	.LBB2_114
.Ltmp97:
@ %bb.22:
	@DEBUG_VALUE: finsh_compile:node <- $r4
	cmp	r0, #1
	bne.w	.LBB2_140
.Ltmp98:
@ %bb.23:
	@DEBUG_VALUE: finsh_compile:node <- $r4
	.loc	2 205 58                        @ rt-thread/components/finsh/finsh_compiler.c:205:58
	movw	r0, :lower16:finsh_compile_pc
	movs	r2, #4
	b	.LBB2_138
.Ltmp99:
.LBB2_24:
	@DEBUG_VALUE: finsh_compile:node <- $r4
	.loc	2 211 23 is_stmt 1              @ rt-thread/components/finsh/finsh_compiler.c:211:23
	ldrb	r0, [r4, #1]
.Ltmp100:
	.loc	2 211 17 is_stmt 0              @ rt-thread/components/finsh/finsh_compiler.c:211:17
	cmp	r0, #3
	beq.w	.LBB2_115
.Ltmp101:
@ %bb.25:
	@DEBUG_VALUE: finsh_compile:node <- $r4
	cmp	r0, #2
	beq.w	.LBB2_116
.Ltmp102:
@ %bb.26:
	@DEBUG_VALUE: finsh_compile:node <- $r4
	cmp	r0, #1
	bne.w	.LBB2_140
.Ltmp103:
@ %bb.27:
	@DEBUG_VALUE: finsh_compile:node <- $r4
	.loc	2 211 58                        @ rt-thread/components/finsh/finsh_compiler.c:211:58
	movw	r0, :lower16:finsh_compile_pc
	movs	r2, #13
	b	.LBB2_138
.Ltmp104:
.LBB2_28:
	@DEBUG_VALUE: finsh_compile:node <- $r4
	.loc	2 217 23 is_stmt 1              @ rt-thread/components/finsh/finsh_compiler.c:217:23
	ldrb	r0, [r4, #1]
.Ltmp105:
	.loc	2 217 17 is_stmt 0              @ rt-thread/components/finsh/finsh_compiler.c:217:17
	cmp	r0, #3
	beq.w	.LBB2_117
.Ltmp106:
@ %bb.29:
	@DEBUG_VALUE: finsh_compile:node <- $r4
	cmp	r0, #2
	beq.w	.LBB2_118
.Ltmp107:
@ %bb.30:
	@DEBUG_VALUE: finsh_compile:node <- $r4
	cmp	r0, #1
	bne.w	.LBB2_140
.Ltmp108:
@ %bb.31:
	@DEBUG_VALUE: finsh_compile:node <- $r4
	.loc	2 217 58                        @ rt-thread/components/finsh/finsh_compiler.c:217:58
	movw	r0, :lower16:finsh_compile_pc
	movs	r2, #7
	b	.LBB2_138
.Ltmp109:
.LBB2_32:
	@DEBUG_VALUE: finsh_compile:node <- $r4
	.loc	2 223 23 is_stmt 1              @ rt-thread/components/finsh/finsh_compiler.c:223:23
	ldrb	r0, [r4, #1]
.Ltmp110:
	.loc	2 223 17 is_stmt 0              @ rt-thread/components/finsh/finsh_compiler.c:223:17
	cmp	r0, #3
	beq.w	.LBB2_119
.Ltmp111:
@ %bb.33:
	@DEBUG_VALUE: finsh_compile:node <- $r4
	cmp	r0, #2
	beq.w	.LBB2_120
.Ltmp112:
@ %bb.34:
	@DEBUG_VALUE: finsh_compile:node <- $r4
	cmp	r0, #1
	bne.w	.LBB2_140
.Ltmp113:
@ %bb.35:
	@DEBUG_VALUE: finsh_compile:node <- $r4
	.loc	2 223 58                        @ rt-thread/components/finsh/finsh_compiler.c:223:58
	movw	r0, :lower16:finsh_compile_pc
	movs	r2, #10
	b	.LBB2_138
.Ltmp114:
.LBB2_36:
	@DEBUG_VALUE: finsh_compile:node <- $r4
	.loc	2 230 23 is_stmt 1              @ rt-thread/components/finsh/finsh_compiler.c:230:23
	ldrb	r0, [r4, #1]
.Ltmp115:
	.loc	2 230 17 is_stmt 0              @ rt-thread/components/finsh/finsh_compiler.c:230:17
	cmp	r0, #3
	beq.w	.LBB2_121
.Ltmp116:
@ %bb.37:
	@DEBUG_VALUE: finsh_compile:node <- $r4
	cmp	r0, #2
	beq.w	.LBB2_122
.Ltmp117:
@ %bb.38:
	@DEBUG_VALUE: finsh_compile:node <- $r4
	cmp	r0, #1
	bne.w	.LBB2_140
.Ltmp118:
@ %bb.39:
	@DEBUG_VALUE: finsh_compile:node <- $r4
	.loc	2 230 58                        @ rt-thread/components/finsh/finsh_compiler.c:230:58
	movw	r0, :lower16:finsh_compile_pc
	movs	r2, #16
	b	.LBB2_138
.Ltmp119:
.LBB2_40:
	@DEBUG_VALUE: finsh_compile:node <- $r4
	.loc	2 236 23 is_stmt 1              @ rt-thread/components/finsh/finsh_compiler.c:236:23
	ldrb	r0, [r4, #1]
.Ltmp120:
	.loc	2 236 17 is_stmt 0              @ rt-thread/components/finsh/finsh_compiler.c:236:17
	cmp	r0, #3
	beq.w	.LBB2_123
.Ltmp121:
@ %bb.41:
	@DEBUG_VALUE: finsh_compile:node <- $r4
	cmp	r0, #2
	beq.w	.LBB2_124
.Ltmp122:
@ %bb.42:
	@DEBUG_VALUE: finsh_compile:node <- $r4
	cmp	r0, #1
	bne.w	.LBB2_140
.Ltmp123:
@ %bb.43:
	@DEBUG_VALUE: finsh_compile:node <- $r4
	.loc	2 236 58                        @ rt-thread/components/finsh/finsh_compiler.c:236:58
	movw	r0, :lower16:finsh_compile_pc
	movs	r2, #19
	b	.LBB2_138
.Ltmp124:
.LBB2_44:
	@DEBUG_VALUE: finsh_compile:node <- $r4
	.loc	2 242 23 is_stmt 1              @ rt-thread/components/finsh/finsh_compiler.c:242:23
	ldrb	r0, [r4, #1]
.Ltmp125:
	.loc	2 242 17 is_stmt 0              @ rt-thread/components/finsh/finsh_compiler.c:242:17
	cmp	r0, #3
	beq.w	.LBB2_125
.Ltmp126:
@ %bb.45:
	@DEBUG_VALUE: finsh_compile:node <- $r4
	cmp	r0, #2
	beq.w	.LBB2_126
.Ltmp127:
@ %bb.46:
	@DEBUG_VALUE: finsh_compile:node <- $r4
	cmp	r0, #1
	bne.w	.LBB2_140
.Ltmp128:
@ %bb.47:
	@DEBUG_VALUE: finsh_compile:node <- $r4
	.loc	2 242 58                        @ rt-thread/components/finsh/finsh_compiler.c:242:58
	movw	r0, :lower16:finsh_compile_pc
	movs	r2, #22
	b	.LBB2_138
.Ltmp129:
.LBB2_48:
	@DEBUG_VALUE: finsh_compile:node <- $r4
	.loc	2 248 23 is_stmt 1              @ rt-thread/components/finsh/finsh_compiler.c:248:23
	ldrb	r0, [r4, #1]
.Ltmp130:
	.loc	2 248 17 is_stmt 0              @ rt-thread/components/finsh/finsh_compiler.c:248:17
	cmp	r0, #3
	beq.w	.LBB2_127
.Ltmp131:
@ %bb.49:
	@DEBUG_VALUE: finsh_compile:node <- $r4
	cmp	r0, #2
	beq.w	.LBB2_128
.Ltmp132:
@ %bb.50:
	@DEBUG_VALUE: finsh_compile:node <- $r4
	cmp	r0, #1
	bne.w	.LBB2_140
.Ltmp133:
@ %bb.51:
	@DEBUG_VALUE: finsh_compile:node <- $r4
	.loc	2 248 58                        @ rt-thread/components/finsh/finsh_compiler.c:248:58
	movw	r0, :lower16:finsh_compile_pc
	movs	r2, #25
	b	.LBB2_138
.Ltmp134:
.LBB2_52:
	@DEBUG_VALUE: finsh_compile:node <- $r4
	.loc	2 254 23 is_stmt 1              @ rt-thread/components/finsh/finsh_compiler.c:254:23
	ldrb	r0, [r4, #1]
.Ltmp135:
	.loc	2 254 17 is_stmt 0              @ rt-thread/components/finsh/finsh_compiler.c:254:17
	cmp	r0, #3
	beq.w	.LBB2_129
.Ltmp136:
@ %bb.53:
	@DEBUG_VALUE: finsh_compile:node <- $r4
	cmp	r0, #2
	beq.w	.LBB2_130
.Ltmp137:
@ %bb.54:
	@DEBUG_VALUE: finsh_compile:node <- $r4
	cmp	r0, #1
	bne.w	.LBB2_140
.Ltmp138:
@ %bb.55:
	@DEBUG_VALUE: finsh_compile:node <- $r4
	.loc	2 254 58                        @ rt-thread/components/finsh/finsh_compiler.c:254:58
	movw	r0, :lower16:finsh_compile_pc
	movs	r2, #28
	b	.LBB2_138
.Ltmp139:
.LBB2_56:
	@DEBUG_VALUE: finsh_compile:node <- $r4
	.loc	2 260 23 is_stmt 1              @ rt-thread/components/finsh/finsh_compiler.c:260:23
	ldrb	r0, [r4, #1]
.Ltmp140:
	.loc	2 260 17 is_stmt 0              @ rt-thread/components/finsh/finsh_compiler.c:260:17
	cmp	r0, #3
	beq.w	.LBB2_131
.Ltmp141:
@ %bb.57:
	@DEBUG_VALUE: finsh_compile:node <- $r4
	cmp	r0, #2
	beq.w	.LBB2_132
.Ltmp142:
@ %bb.58:
	@DEBUG_VALUE: finsh_compile:node <- $r4
	cmp	r0, #1
	bne.w	.LBB2_140
.Ltmp143:
@ %bb.59:
	@DEBUG_VALUE: finsh_compile:node <- $r4
	.loc	2 260 58                        @ rt-thread/components/finsh/finsh_compiler.c:260:58
	movw	r0, :lower16:finsh_compile_pc
	movs	r2, #31
	b	.LBB2_138
.Ltmp144:
.LBB2_60:
	@DEBUG_VALUE: finsh_compile:node <- $r4
	@DEBUG_VALUE: parameters <- 0
	.loc	2 272 21 is_stmt 1              @ rt-thread/components/finsh/finsh_compiler.c:272:21
	ldr	r1, [r4, #16]
.Ltmp145:
	.loc	2 272 21 is_stmt 0              @ rt-thread/components/finsh/finsh_compiler.c:272:21
	cmp	r1, #0
	beq.w	.LBB2_140
.Ltmp146:
@ %bb.61:
	@DEBUG_VALUE: finsh_compile:node <- $r4
	@DEBUG_VALUE: parameters <- 0
	.loc	2 0 21                          @ rt-thread/components/finsh/finsh_compiler.c:0:21
	mov.w	r0, #-1
.Ltmp147:
	.p2align	2
.LBB2_62:                               @ =>This Inner Loop Header: Depth=1
	@DEBUG_VALUE: finsh_compile:node <- $r4
	ldr	r1, [r1, #12]
.Ltmp148:
	@DEBUG_VALUE: sibling <- undef
	@DEBUG_VALUE: parameters <- [DW_OP_plus_uconst 2, DW_OP_stack_value] $r0
	.loc	2 275 21 is_stmt 1              @ rt-thread/components/finsh/finsh_compiler.c:275:21
	adds	r0, #1
.Ltmp149:
	cmp	r1, #0
	bne	.LBB2_62
.Ltmp150:
@ %bb.63:
	@DEBUG_VALUE: finsh_compile:node <- $r4
	.loc	2 285 21                        @ rt-thread/components/finsh/finsh_compiler.c:285:21
	movw	r1, :lower16:finsh_compile_pc
	movs	r3, #44
	movt	r1, :upper16:finsh_compile_pc
	ldr	r2, [r1]
	strb	r3, [r2]
	ldr	r2, [r1]
	adds	r3, r2, #1
	str	r3, [r1]
.Ltmp151:
	.loc	2 286 21                        @ rt-thread/components/finsh/finsh_compiler.c:286:21
	strb	r0, [r2, #1]
	ldr	r0, [r1]
	adds	r0, #1
	str	r0, [r1]
	b	.LBB2_140
.Ltmp152:
.LBB2_64:
	@DEBUG_VALUE: finsh_compile:node <- $r4
	.loc	2 293 17                        @ rt-thread/components/finsh/finsh_compiler.c:293:17
	ldr	r0, [r4, #16]
	.loc	2 293 40 is_stmt 0              @ rt-thread/components/finsh/finsh_compiler.c:293:40
	cmp	r0, #0
	beq.w	.LBB2_100
.Ltmp153:
@ %bb.65:
	@DEBUG_VALUE: finsh_compile:node <- $r4
	.loc	2 293 67                        @ rt-thread/components/finsh/finsh_compiler.c:293:67
	ldrb	r1, [r0]
.Ltmp154:
	.loc	2 293 17                        @ rt-thread/components/finsh/finsh_compiler.c:293:17
	cmp	r1, #1
	bne.w	.LBB2_100
.Ltmp155:
@ %bb.66:
	@DEBUG_VALUE: finsh_compile:node <- $r4
	.loc	2 295 49 is_stmt 1              @ rt-thread/components/finsh/finsh_compiler.c:295:49
	ldrb	r0, [r0, #1]
	b	.LBB2_102
.Ltmp156:
.LBB2_67:
	@DEBUG_VALUE: finsh_compile:node <- $r4
	.loc	2 728 13                        @ rt-thread/components/finsh/finsh_compiler.c:728:13
	movs	r0, #8
.Ltmp157:
.LBB2_68:
	@DEBUG_VALUE: finsh_compile:node <- $r4
	.loc	2 0 0 is_stmt 0                 @ rt-thread/components/finsh/finsh_compiler.c:0:0
	bl	finsh_error_set
	b	.LBB2_140
.Ltmp158:
.LBB2_69:
	@DEBUG_VALUE: finsh_compile:node <- $r4
	.loc	2 355 17 is_stmt 1              @ rt-thread/components/finsh/finsh_compiler.c:355:17
	ldr	r0, [r4, #16]
	.loc	2 355 40 is_stmt 0              @ rt-thread/components/finsh/finsh_compiler.c:355:40
	cmp	r0, #0
	beq.w	.LBB2_140
.Ltmp159:
@ %bb.70:
	@DEBUG_VALUE: finsh_compile:node <- $r4
	.loc	2 355 67                        @ rt-thread/components/finsh/finsh_compiler.c:355:67
	ldrb	r1, [r0]
.Ltmp160:
	.loc	2 355 17                        @ rt-thread/components/finsh/finsh_compiler.c:355:17
	cmp	r1, #1
	bne.w	.LBB2_140
.Ltmp161:
@ %bb.71:
	@DEBUG_VALUE: finsh_compile:node <- $r4
	.loc	2 363 31 is_stmt 1              @ rt-thread/components/finsh/finsh_compiler.c:363:31
	ldrb	r1, [r4, #1]
	.loc	2 358 50                        @ rt-thread/components/finsh/finsh_compiler.c:358:50
	ldr	r0, [r0, #8]
.Ltmp162:
	@DEBUG_VALUE: var <- $r0
	.loc	2 363 17                        @ rt-thread/components/finsh/finsh_compiler.c:363:17
	cmp	r1, #3
	beq.w	.LBB2_151
.Ltmp163:
@ %bb.72:
	@DEBUG_VALUE: finsh_compile:node <- $r4
	@DEBUG_VALUE: var <- $r0
	cmp	r1, #2
	beq.w	.LBB2_153
.Ltmp164:
@ %bb.73:
	@DEBUG_VALUE: finsh_compile:node <- $r4
	@DEBUG_VALUE: var <- $r0
	cmp	r1, #1
	bne.w	.LBB2_140
.Ltmp165:
@ %bb.74:
	@DEBUG_VALUE: finsh_compile:node <- $r4
	@DEBUG_VALUE: var <- $r0
	.loc	2 370 21                        @ rt-thread/components/finsh/finsh_compiler.c:370:21
	movw	r1, :lower16:finsh_compile_pc
	movs	r3, #37
	movt	r1, :upper16:finsh_compile_pc
.Ltmp166:
	.loc	2 371 21                        @ rt-thread/components/finsh/finsh_compiler.c:371:21
	adds	r0, #20
.Ltmp167:
	.loc	2 370 21                        @ rt-thread/components/finsh/finsh_compiler.c:370:21
	ldr	r2, [r1]
	strb	r3, [r2]
	ldr	r2, [r1]
	adds	r3, r2, #1
	str	r3, [r1]
.Ltmp168:
	.loc	2 371 21                        @ rt-thread/components/finsh/finsh_compiler.c:371:21
	strb	r0, [r2, #1]
	lsrs	r3, r0, #8
	ldr	r2, [r1]
	strb	r3, [r2, #1]
	lsrs	r3, r0, #16
	ldr	r2, [r1]
	lsrs	r0, r0, #24
	strb	r3, [r2, #2]
	ldr	r2, [r1]
	strb	r0, [r2, #3]
	movs	r2, #34
.Ltmp169:
	.loc	2 371 21 is_stmt 0              @ rt-thread/components/finsh/finsh_compiler.c:371:21
	ldr	r0, [r1]
.Ltmp170:
	.loc	2 374 21 is_stmt 1              @ rt-thread/components/finsh/finsh_compiler.c:374:21
	strb	r2, [r0, #4]
	movw	r2, #257
	b	.LBB2_81
.Ltmp171:
.LBB2_75:
	@DEBUG_VALUE: finsh_compile:node <- $r4
	.loc	2 436 17                        @ rt-thread/components/finsh/finsh_compiler.c:436:17
	ldr	r0, [r4, #16]
	.loc	2 436 40 is_stmt 0              @ rt-thread/components/finsh/finsh_compiler.c:436:40
	cmp	r0, #0
	beq.w	.LBB2_140
.Ltmp172:
@ %bb.76:
	@DEBUG_VALUE: finsh_compile:node <- $r4
	.loc	2 436 67                        @ rt-thread/components/finsh/finsh_compiler.c:436:67
	ldrb	r1, [r0]
.Ltmp173:
	.loc	2 436 17                        @ rt-thread/components/finsh/finsh_compiler.c:436:17
	cmp	r1, #1
	bne.w	.LBB2_140
.Ltmp174:
@ %bb.77:
	@DEBUG_VALUE: finsh_compile:node <- $r4
	.loc	2 444 31 is_stmt 1              @ rt-thread/components/finsh/finsh_compiler.c:444:31
	ldrb	r1, [r4, #1]
	.loc	2 439 50                        @ rt-thread/components/finsh/finsh_compiler.c:439:50
	ldr	r0, [r0, #8]
.Ltmp175:
	@DEBUG_VALUE: var <- $r0
	.loc	2 444 17                        @ rt-thread/components/finsh/finsh_compiler.c:444:17
	cmp	r1, #3
	beq.w	.LBB2_143
.Ltmp176:
@ %bb.78:
	@DEBUG_VALUE: finsh_compile:node <- $r4
	@DEBUG_VALUE: var <- $r0
	cmp	r1, #2
	beq.w	.LBB2_144
.Ltmp177:
@ %bb.79:
	@DEBUG_VALUE: finsh_compile:node <- $r4
	@DEBUG_VALUE: var <- $r0
	cmp	r1, #1
	bne.w	.LBB2_140
.Ltmp178:
@ %bb.80:
	@DEBUG_VALUE: finsh_compile:node <- $r4
	@DEBUG_VALUE: var <- $r0
	.loc	2 451 21                        @ rt-thread/components/finsh/finsh_compiler.c:451:21
	movw	r1, :lower16:finsh_compile_pc
	movs	r3, #37
	movt	r1, :upper16:finsh_compile_pc
.Ltmp179:
	.loc	2 452 21                        @ rt-thread/components/finsh/finsh_compiler.c:452:21
	adds	r0, #20
.Ltmp180:
	.loc	2 451 21                        @ rt-thread/components/finsh/finsh_compiler.c:451:21
	ldr	r2, [r1]
	strb	r3, [r2]
	ldr	r2, [r1]
	adds	r3, r2, #1
	str	r3, [r1]
.Ltmp181:
	.loc	2 452 21                        @ rt-thread/components/finsh/finsh_compiler.c:452:21
	strb	r0, [r2, #1]
	lsrs	r3, r0, #8
	ldr	r2, [r1]
	strb	r3, [r2, #1]
	lsrs	r3, r0, #16
	ldr	r2, [r1]
	lsrs	r0, r0, #24
	strb	r3, [r2, #2]
	ldr	r2, [r1]
	strb	r0, [r2, #3]
	movs	r2, #34
.Ltmp182:
	.loc	2 452 21 is_stmt 0              @ rt-thread/components/finsh/finsh_compiler.c:452:21
	ldr	r0, [r1]
.Ltmp183:
	.loc	2 455 21 is_stmt 1              @ rt-thread/components/finsh/finsh_compiler.c:455:21
	strb	r2, [r0, #4]
	movw	r2, #1025
.Ltmp184:
.LBB2_81:
	@DEBUG_VALUE: finsh_compile:node <- $r4
	.loc	2 0 21 is_stmt 0                @ rt-thread/components/finsh/finsh_compiler.c:0:21
	movt	r2, #12072
	str.w	r2, [r0, #5]
	adds	r0, #9
	str	r0, [r1]
	b	.LBB2_140
.Ltmp185:
.LBB2_82:
	@DEBUG_VALUE: finsh_compile:node <- $r4
	.loc	2 517 17 is_stmt 1              @ rt-thread/components/finsh/finsh_compiler.c:517:17
	ldr	r0, [r4, #16]
	.loc	2 517 40 is_stmt 0              @ rt-thread/components/finsh/finsh_compiler.c:517:40
	cmp	r0, #0
	beq.w	.LBB2_140
.Ltmp186:
@ %bb.83:
	@DEBUG_VALUE: finsh_compile:node <- $r4
	.loc	2 517 67                        @ rt-thread/components/finsh/finsh_compiler.c:517:67
	ldrb	r1, [r0]
.Ltmp187:
	.loc	2 517 17                        @ rt-thread/components/finsh/finsh_compiler.c:517:17
	cmp	r1, #1
	bne.w	.LBB2_140
.Ltmp188:
@ %bb.84:
	@DEBUG_VALUE: finsh_compile:node <- $r4
	.loc	2 522 31 is_stmt 1              @ rt-thread/components/finsh/finsh_compiler.c:522:31
	ldrb	r1, [r4, #1]
	.loc	2 520 50                        @ rt-thread/components/finsh/finsh_compiler.c:520:50
	ldr	r0, [r0, #8]
.Ltmp189:
	@DEBUG_VALUE: var <- $r0
	.loc	2 522 17                        @ rt-thread/components/finsh/finsh_compiler.c:522:17
	cmp	r1, #3
	beq.w	.LBB2_145
.Ltmp190:
@ %bb.85:
	@DEBUG_VALUE: finsh_compile:node <- $r4
	@DEBUG_VALUE: var <- $r0
	cmp	r1, #2
	beq.w	.LBB2_146
.Ltmp191:
@ %bb.86:
	@DEBUG_VALUE: finsh_compile:node <- $r4
	@DEBUG_VALUE: var <- $r0
	cmp	r1, #1
	bne.w	.LBB2_140
.Ltmp192:
@ %bb.87:
	@DEBUG_VALUE: finsh_compile:node <- $r4
	@DEBUG_VALUE: var <- $r0
	.loc	2 530 21                        @ rt-thread/components/finsh/finsh_compiler.c:530:21
	movw	lr, :lower16:finsh_compile_pc
	movs	r3, #36
	movt	lr, :upper16:finsh_compile_pc
.Ltmp193:
	.loc	2 531 21                        @ rt-thread/components/finsh/finsh_compiler.c:531:21
	adds	r0, #20
.Ltmp194:
	lsrs	r6, r0, #8
	movs	r5, #37
.Ltmp195:
	.loc	2 530 21                        @ rt-thread/components/finsh/finsh_compiler.c:530:21
	ldr.w	r2, [lr]
.Ltmp196:
	.loc	2 531 21                        @ rt-thread/components/finsh/finsh_compiler.c:531:21
	lsrs	r1, r0, #24
.Ltmp197:
	.loc	2 530 21                        @ rt-thread/components/finsh/finsh_compiler.c:530:21
	strb	r3, [r2]
	ldr.w	r2, [lr]
	adds	r3, r2, #1
	str.w	r3, [lr]
.Ltmp198:
	.loc	2 531 21                        @ rt-thread/components/finsh/finsh_compiler.c:531:21
	strb	r0, [r2, #1]
	ldr.w	r2, [lr]
	strb	r6, [r2, #1]
	lsrs	r2, r0, #16
	ldr.w	r12, [lr]
	strb.w	r2, [r12, #2]
	ldr.w	r12, [lr]
	strb.w	r1, [r12, #3]
.Ltmp199:
	.loc	2 531 21 is_stmt 0              @ rt-thread/components/finsh/finsh_compiler.c:531:21
	ldr.w	r3, [lr]
.Ltmp200:
	.loc	2 535 21 is_stmt 1              @ rt-thread/components/finsh/finsh_compiler.c:535:21
	strb	r0, [r3, #5]
	movs	r0, #34
.Ltmp201:
	.loc	2 538 21                        @ rt-thread/components/finsh/finsh_compiler.c:538:21
	strb	r0, [r3, #9]
	movw	r0, #257
.Ltmp202:
	.loc	2 534 21                        @ rt-thread/components/finsh/finsh_compiler.c:534:21
	strb	r5, [r3, #4]
	movt	r0, #11048
.Ltmp203:
	.loc	2 535 21                        @ rt-thread/components/finsh/finsh_compiler.c:535:21
	strb	r6, [r3, #6]
	strb	r2, [r3, #7]
	strb	r1, [r3, #8]
.Ltmp204:
	.loc	2 539 21                        @ rt-thread/components/finsh/finsh_compiler.c:539:21
	str.w	r0, [r3, #10]
.Ltmp205:
	.loc	2 547 21                        @ rt-thread/components/finsh/finsh_compiler.c:547:21
	add.w	r0, r3, #14
	str.w	r0, [lr]
	b	.LBB2_140
.Ltmp206:
.LBB2_88:
	@DEBUG_VALUE: finsh_compile:node <- $r4
	.loc	2 607 17                        @ rt-thread/components/finsh/finsh_compiler.c:607:17
	ldr	r0, [r4, #16]
	.loc	2 607 40 is_stmt 0              @ rt-thread/components/finsh/finsh_compiler.c:607:40
	cmp	r0, #0
	beq.w	.LBB2_140
.Ltmp207:
@ %bb.89:
	@DEBUG_VALUE: finsh_compile:node <- $r4
	.loc	2 607 67                        @ rt-thread/components/finsh/finsh_compiler.c:607:67
	ldrb	r1, [r0]
.Ltmp208:
	.loc	2 607 17                        @ rt-thread/components/finsh/finsh_compiler.c:607:17
	cmp	r1, #1
	bne.w	.LBB2_140
.Ltmp209:
@ %bb.90:
	@DEBUG_VALUE: finsh_compile:node <- $r4
	.loc	2 612 31 is_stmt 1              @ rt-thread/components/finsh/finsh_compiler.c:612:31
	ldrb	r1, [r4, #1]
	.loc	2 610 50                        @ rt-thread/components/finsh/finsh_compiler.c:610:50
	ldr	r0, [r0, #8]
.Ltmp210:
	@DEBUG_VALUE: var <- $r0
	.loc	2 612 17                        @ rt-thread/components/finsh/finsh_compiler.c:612:17
	cmp	r1, #3
	beq.w	.LBB2_147
.Ltmp211:
@ %bb.91:
	@DEBUG_VALUE: finsh_compile:node <- $r4
	@DEBUG_VALUE: var <- $r0
	cmp	r1, #2
	beq.w	.LBB2_149
.Ltmp212:
@ %bb.92:
	@DEBUG_VALUE: finsh_compile:node <- $r4
	@DEBUG_VALUE: var <- $r0
	cmp	r1, #1
	bne.w	.LBB2_140
.Ltmp213:
@ %bb.93:
	@DEBUG_VALUE: finsh_compile:node <- $r4
	@DEBUG_VALUE: var <- $r0
	.loc	2 620 21                        @ rt-thread/components/finsh/finsh_compiler.c:620:21
	movw	r12, :lower16:finsh_compile_pc
	movs	r3, #36
	movt	r12, :upper16:finsh_compile_pc
.Ltmp214:
	.loc	2 621 21                        @ rt-thread/components/finsh/finsh_compiler.c:621:21
	adds	r0, #20
.Ltmp215:
	lsrs	r6, r0, #16
	movs	r1, #37
.Ltmp216:
	.loc	2 620 21                        @ rt-thread/components/finsh/finsh_compiler.c:620:21
	ldr.w	r2, [r12]
.Ltmp217:
	.loc	2 621 21                        @ rt-thread/components/finsh/finsh_compiler.c:621:21
	lsrs	r5, r0, #24
.Ltmp218:
	.loc	2 620 21                        @ rt-thread/components/finsh/finsh_compiler.c:620:21
	strb	r3, [r2]
	ldr.w	r2, [r12]
	adds	r3, r2, #1
	str.w	r3, [r12]
.Ltmp219:
	.loc	2 621 21                        @ rt-thread/components/finsh/finsh_compiler.c:621:21
	strb	r0, [r2, #1]
	lsrs	r3, r0, #8
	ldr.w	r2, [r12]
	strb	r3, [r2, #1]
	ldr.w	r2, [r12]
	strb	r6, [r2, #2]
	ldr.w	r2, [r12]
	strb	r5, [r2, #3]
.Ltmp220:
	.loc	2 621 21 is_stmt 0              @ rt-thread/components/finsh/finsh_compiler.c:621:21
	ldr.w	r2, [r12]
.Ltmp221:
	.loc	2 625 21 is_stmt 1              @ rt-thread/components/finsh/finsh_compiler.c:625:21
	strb	r0, [r2, #5]
	movs	r0, #34
.Ltmp222:
	.loc	2 628 21                        @ rt-thread/components/finsh/finsh_compiler.c:628:21
	strb	r0, [r2, #9]
	movw	r0, #1025
.Ltmp223:
	.loc	2 624 21                        @ rt-thread/components/finsh/finsh_compiler.c:624:21
	strb	r1, [r2, #4]
	movt	r0, #11048
.Ltmp224:
	.loc	2 625 21                        @ rt-thread/components/finsh/finsh_compiler.c:625:21
	strb	r3, [r2, #6]
	strb	r6, [r2, #7]
	strb	r5, [r2, #8]
.Ltmp225:
	.loc	2 629 21                        @ rt-thread/components/finsh/finsh_compiler.c:629:21
	str.w	r0, [r2, #10]
.Ltmp226:
	.loc	2 637 21                        @ rt-thread/components/finsh/finsh_compiler.c:637:21
	add.w	r0, r2, #14
	str.w	r0, [r12]
	b	.LBB2_140
.Ltmp227:
.LBB2_94:
	@DEBUG_VALUE: finsh_compile:node <- $r4
	.loc	2 700 23                        @ rt-thread/components/finsh/finsh_compiler.c:700:23
	ldrb	r0, [r4, #2]
.Ltmp228:
	.loc	2 700 17 is_stmt 0              @ rt-thread/components/finsh/finsh_compiler.c:700:17
	lsls	r0, r0, #28
	bmi.w	.LBB2_140
.Ltmp229:
@ %bb.95:
	@DEBUG_VALUE: finsh_compile:node <- $r4
	.loc	2 706 31 is_stmt 1              @ rt-thread/components/finsh/finsh_compiler.c:706:31
	ldrb	r0, [r4, #1]
	.loc	2 706 17 is_stmt 0              @ rt-thread/components/finsh/finsh_compiler.c:706:17
	cmp	r0, #3
	beq.w	.LBB2_136
.Ltmp230:
@ %bb.96:
	@DEBUG_VALUE: finsh_compile:node <- $r4
	cmp	r0, #2
	beq.w	.LBB2_137
.Ltmp231:
@ %bb.97:
	@DEBUG_VALUE: finsh_compile:node <- $r4
	cmp	r0, #1
	bne.w	.LBB2_140
.Ltmp232:
@ %bb.98:
	@DEBUG_VALUE: finsh_compile:node <- $r4
	.loc	2 709 21 is_stmt 1              @ rt-thread/components/finsh/finsh_compiler.c:709:21
	movw	r0, :lower16:finsh_compile_pc
	movs	r2, #45
	b	.LBB2_138
.Ltmp233:
.LBB2_99:
	@DEBUG_VALUE: finsh_compile:node <- $r4
	.loc	2 696 13                        @ rt-thread/components/finsh/finsh_compiler.c:696:13
	movw	r0, :lower16:finsh_compile_pc
	movs	r2, #0
	movt	r0, :upper16:finsh_compile_pc
	ldr	r1, [r0]
	strb	r2, [r1]
	ldr	r1, [r0]
	strb	r2, [r1, #1]
	ldr	r1, [r0]
	strb	r2, [r1, #2]
	b	.LBB2_7
.Ltmp234:
.LBB2_100:
	@DEBUG_VALUE: finsh_compile:node <- $r4
	.loc	2 322 46                        @ rt-thread/components/finsh/finsh_compiler.c:322:46
	ldrb	r1, [r0]
.Ltmp235:
	.loc	2 322 22 is_stmt 0              @ rt-thread/components/finsh/finsh_compiler.c:322:22
	cmp	r1, #25
	bne.w	.LBB2_140
.Ltmp236:
@ %bb.101:
	@DEBUG_VALUE: finsh_compile:node <- $r4
	.loc	2 324 50 is_stmt 1              @ rt-thread/components/finsh/finsh_compiler.c:324:50
	ldrb	r0, [r0, #1]
	.loc	2 324 61 is_stmt 0              @ rt-thread/components/finsh/finsh_compiler.c:324:61
	and	r0, r0, #15
.Ltmp237:
.LBB2_102:
	@DEBUG_VALUE: finsh_compile:node <- $r4
	.loc	2 0 0                           @ rt-thread/components/finsh/finsh_compiler.c:0:0
	cmp	r0, #3
	beq.w	.LBB2_134
.Ltmp238:
@ %bb.103:
	@DEBUG_VALUE: finsh_compile:node <- $r4
	cmp	r0, #2
	beq.w	.LBB2_133
.Ltmp239:
@ %bb.104:
	@DEBUG_VALUE: finsh_compile:node <- $r4
	cmp	r0, #1
	bne.w	.LBB2_135
.Ltmp240:
@ %bb.105:
	@DEBUG_VALUE: finsh_compile:node <- $r4
	movw	r0, :lower16:finsh_compile_pc
	movs	r2, #40
	movt	r0, :upper16:finsh_compile_pc
	ldr	r1, [r0]
	strb	r2, [r1]
	ldr	r1, [r0]
	adds	r2, r1, #1
	str	r2, [r0]
	movs	r2, #45
.Ltmp241:
	strb	r2, [r1, #1]
	b	.LBB2_139
.Ltmp242:
.LBB2_106:
	@DEBUG_VALUE: finsh_compile:node <- $r4
	.loc	2 41 21 is_stmt 1               @ rt-thread/components/finsh/finsh_compiler.c:41:21
	movw	r0, :lower16:finsh_compile_pc
	movs	r2, #36
	movt	r0, :upper16:finsh_compile_pc
	ldr	r1, [r0]
	strb	r2, [r1]
	ldr	r1, [r0]
	adds	r2, r1, #1
	str	r2, [r0]
.Ltmp243:
	.loc	2 42 21                         @ rt-thread/components/finsh/finsh_compiler.c:42:21
	ldr	r2, [r4, #8]
	ldr	r2, [r2, #8]
	strb	r2, [r1, #1]
	ldr	r1, [r4, #8]
	ldr	r2, [r0]
	ldr	r1, [r1, #8]
	lsrs	r1, r1, #8
	strb	r1, [r2, #1]
	ldr	r1, [r4, #8]
	ldr	r2, [r0]
	ldrh	r1, [r1, #10]
	strb	r1, [r2, #2]
	ldr	r1, [r4, #8]
	ldr	r2, [r0]
	ldrb	r1, [r1, #11]
	strb	r1, [r2, #3]
	b	.LBB2_8
.Ltmp244:
.LBB2_107:
	@DEBUG_VALUE: finsh_compile:node <- $r4
	.loc	2 49 39                         @ rt-thread/components/finsh/finsh_compiler.c:49:39
	ldr.w	r12, [r4, #8]
.Ltmp245:
	@DEBUG_VALUE: sysvar <- $r12
	.loc	2 50 25                         @ rt-thread/components/finsh/finsh_compiler.c:50:25
	cmp.w	r12, #0
	beq.w	.LBB2_140
.Ltmp246:
@ %bb.108:
	@DEBUG_VALUE: sysvar <- $r12
	@DEBUG_VALUE: finsh_compile:node <- $r4
	.loc	2 52 41                         @ rt-thread/components/finsh/finsh_compiler.c:52:41
	ldrb.w	r2, [r12, #8]
	.loc	2 52 25 is_stmt 0               @ rt-thread/components/finsh/finsh_compiler.c:52:25
	cmp	r2, #14
	bhi.w	.LBB2_140
.Ltmp247:
@ %bb.109:
	@DEBUG_VALUE: sysvar <- $r12
	@DEBUG_VALUE: finsh_compile:node <- $r4
	.loc	2 0 25                          @ rt-thread/components/finsh/finsh_compiler.c:0:25
	movs	r3, #1
	movw	r0, #32544
	lsls	r3, r2
	tst	r3, r0
	beq.w	.LBB2_158
.Ltmp248:
@ %bb.110:
	@DEBUG_VALUE: sysvar <- $r12
	@DEBUG_VALUE: finsh_compile:node <- $r4
	movw	r0, :lower16:finsh_compile_pc
.Ltmp249:
	.loc	2 94 33 is_stmt 1               @ rt-thread/components/finsh/finsh_compiler.c:94:33
	lsls	r1, r1, #28
.Ltmp250:
	.loc	2 0 0 is_stmt 0                 @ rt-thread/components/finsh/finsh_compiler.c:0:0
	movt	r0, :upper16:finsh_compile_pc
	mov.w	r1, #36
	ldr	r2, [r0]
.Ltmp251:
	.loc	2 94 33                         @ rt-thread/components/finsh/finsh_compiler.c:94:33
	it	pl
	movpl	r1, #39
	b	.LBB2_164
.Ltmp252:
.LBB2_111:
	@DEBUG_VALUE: finsh_compile:node <- $r4
	.loc	2 201 64 is_stmt 1              @ rt-thread/components/finsh/finsh_compiler.c:201:64
	movw	r0, :lower16:finsh_compile_pc
	movs	r2, #3
	b	.LBB2_138
.Ltmp253:
.LBB2_112:
	@DEBUG_VALUE: finsh_compile:node <- $r4
	.loc	2 200 63                        @ rt-thread/components/finsh/finsh_compiler.c:200:63
	movw	r0, :lower16:finsh_compile_pc
	movs	r2, #2
	b	.LBB2_138
.Ltmp254:
.LBB2_113:
	@DEBUG_VALUE: finsh_compile:node <- $r4
	.loc	2 207 64                        @ rt-thread/components/finsh/finsh_compiler.c:207:64
	movw	r0, :lower16:finsh_compile_pc
	movs	r2, #6
	b	.LBB2_138
.Ltmp255:
.LBB2_114:
	@DEBUG_VALUE: finsh_compile:node <- $r4
	.loc	2 206 63                        @ rt-thread/components/finsh/finsh_compiler.c:206:63
	movw	r0, :lower16:finsh_compile_pc
	movs	r2, #5
	b	.LBB2_138
.Ltmp256:
.LBB2_115:
	@DEBUG_VALUE: finsh_compile:node <- $r4
	.loc	2 213 64                        @ rt-thread/components/finsh/finsh_compiler.c:213:64
	movw	r0, :lower16:finsh_compile_pc
	movs	r2, #15
	b	.LBB2_138
.Ltmp257:
.LBB2_116:
	@DEBUG_VALUE: finsh_compile:node <- $r4
	.loc	2 212 63                        @ rt-thread/components/finsh/finsh_compiler.c:212:63
	movw	r0, :lower16:finsh_compile_pc
	movs	r2, #14
	b	.LBB2_138
.Ltmp258:
.LBB2_117:
	@DEBUG_VALUE: finsh_compile:node <- $r4
	.loc	2 219 64                        @ rt-thread/components/finsh/finsh_compiler.c:219:64
	movw	r0, :lower16:finsh_compile_pc
	movs	r2, #9
	b	.LBB2_138
.Ltmp259:
.LBB2_118:
	@DEBUG_VALUE: finsh_compile:node <- $r4
	.loc	2 218 63                        @ rt-thread/components/finsh/finsh_compiler.c:218:63
	movw	r0, :lower16:finsh_compile_pc
	movs	r2, #8
	b	.LBB2_138
.Ltmp260:
.LBB2_119:
	@DEBUG_VALUE: finsh_compile:node <- $r4
	.loc	2 225 64                        @ rt-thread/components/finsh/finsh_compiler.c:225:64
	movw	r0, :lower16:finsh_compile_pc
	movs	r2, #12
	b	.LBB2_138
.Ltmp261:
.LBB2_120:
	@DEBUG_VALUE: finsh_compile:node <- $r4
	.loc	2 224 63                        @ rt-thread/components/finsh/finsh_compiler.c:224:63
	movw	r0, :lower16:finsh_compile_pc
	movs	r2, #11
	b	.LBB2_138
.Ltmp262:
.LBB2_121:
	@DEBUG_VALUE: finsh_compile:node <- $r4
	.loc	2 232 64                        @ rt-thread/components/finsh/finsh_compiler.c:232:64
	movw	r0, :lower16:finsh_compile_pc
	movs	r2, #18
	b	.LBB2_138
.Ltmp263:
.LBB2_122:
	@DEBUG_VALUE: finsh_compile:node <- $r4
	.loc	2 231 63                        @ rt-thread/components/finsh/finsh_compiler.c:231:63
	movw	r0, :lower16:finsh_compile_pc
	movs	r2, #17
	b	.LBB2_138
.Ltmp264:
.LBB2_123:
	@DEBUG_VALUE: finsh_compile:node <- $r4
	.loc	2 238 64                        @ rt-thread/components/finsh/finsh_compiler.c:238:64
	movw	r0, :lower16:finsh_compile_pc
	movs	r2, #21
	b	.LBB2_138
.Ltmp265:
.LBB2_124:
	@DEBUG_VALUE: finsh_compile:node <- $r4
	.loc	2 237 63                        @ rt-thread/components/finsh/finsh_compiler.c:237:63
	movw	r0, :lower16:finsh_compile_pc
	movs	r2, #20
	b	.LBB2_138
.Ltmp266:
.LBB2_125:
	@DEBUG_VALUE: finsh_compile:node <- $r4
	.loc	2 244 64                        @ rt-thread/components/finsh/finsh_compiler.c:244:64
	movw	r0, :lower16:finsh_compile_pc
	movs	r2, #24
	b	.LBB2_138
.Ltmp267:
.LBB2_126:
	@DEBUG_VALUE: finsh_compile:node <- $r4
	.loc	2 243 63                        @ rt-thread/components/finsh/finsh_compiler.c:243:63
	movw	r0, :lower16:finsh_compile_pc
	movs	r2, #23
	b	.LBB2_138
.Ltmp268:
.LBB2_127:
	@DEBUG_VALUE: finsh_compile:node <- $r4
	.loc	2 250 64                        @ rt-thread/components/finsh/finsh_compiler.c:250:64
	movw	r0, :lower16:finsh_compile_pc
	movs	r2, #27
	b	.LBB2_138
.Ltmp269:
.LBB2_128:
	@DEBUG_VALUE: finsh_compile:node <- $r4
	.loc	2 249 63                        @ rt-thread/components/finsh/finsh_compiler.c:249:63
	movw	r0, :lower16:finsh_compile_pc
	movs	r2, #26
	b	.LBB2_138
.Ltmp270:
.LBB2_129:
	@DEBUG_VALUE: finsh_compile:node <- $r4
	.loc	2 256 64                        @ rt-thread/components/finsh/finsh_compiler.c:256:64
	movw	r0, :lower16:finsh_compile_pc
	movs	r2, #30
	b	.LBB2_138
.Ltmp271:
.LBB2_130:
	@DEBUG_VALUE: finsh_compile:node <- $r4
	.loc	2 255 63                        @ rt-thread/components/finsh/finsh_compiler.c:255:63
	movw	r0, :lower16:finsh_compile_pc
	movs	r2, #29
	b	.LBB2_138
.Ltmp272:
.LBB2_131:
	@DEBUG_VALUE: finsh_compile:node <- $r4
	.loc	2 262 64                        @ rt-thread/components/finsh/finsh_compiler.c:262:64
	movw	r0, :lower16:finsh_compile_pc
	movs	r2, #33
	b	.LBB2_138
.Ltmp273:
.LBB2_132:
	@DEBUG_VALUE: finsh_compile:node <- $r4
	.loc	2 261 63                        @ rt-thread/components/finsh/finsh_compiler.c:261:63
	movw	r0, :lower16:finsh_compile_pc
	movs	r2, #32
	b	.LBB2_138
.Ltmp274:
.LBB2_133:
	@DEBUG_VALUE: finsh_compile:node <- $r4
	.loc	2 0 0 is_stmt 0                 @ rt-thread/components/finsh/finsh_compiler.c:0:0
	movw	r0, :lower16:finsh_compile_pc
	movs	r2, #41
	movt	r0, :upper16:finsh_compile_pc
	ldr	r1, [r0]
	strb	r2, [r1]
	ldr	r1, [r0]
	adds	r2, r1, #1
	str	r2, [r0]
	movs	r2, #46
.Ltmp275:
	strb	r2, [r1, #1]
	b	.LBB2_139
.Ltmp276:
.LBB2_134:
	@DEBUG_VALUE: finsh_compile:node <- $r4
	movw	r0, :lower16:finsh_compile_pc
	movs	r2, #42
	movt	r0, :upper16:finsh_compile_pc
	ldr	r1, [r0]
	strb	r2, [r1]
	ldr	r1, [r0]
	adds	r2, r1, #1
	str	r2, [r0]
	movs	r2, #47
.Ltmp277:
	strb	r2, [r1, #1]
	b	.LBB2_139
.Ltmp278:
.LBB2_135:
	@DEBUG_VALUE: finsh_compile:node <- $r4
	movs	r0, #3
	b	.LBB2_68
.Ltmp279:
.LBB2_136:
	@DEBUG_VALUE: finsh_compile:node <- $r4
	.loc	2 715 21 is_stmt 1              @ rt-thread/components/finsh/finsh_compiler.c:715:21
	movw	r0, :lower16:finsh_compile_pc
	movs	r2, #47
	b	.LBB2_138
.Ltmp280:
.LBB2_137:
	@DEBUG_VALUE: finsh_compile:node <- $r4
	.loc	2 712 21                        @ rt-thread/components/finsh/finsh_compiler.c:712:21
	movw	r0, :lower16:finsh_compile_pc
	movs	r2, #46
.Ltmp281:
.LBB2_138:
	@DEBUG_VALUE: finsh_compile:node <- $r4
	.loc	2 0 0 is_stmt 0                 @ rt-thread/components/finsh/finsh_compiler.c:0:0
	movt	r0, :upper16:finsh_compile_pc
	ldr	r1, [r0]
	strb	r2, [r1]
.Ltmp282:
.LBB2_139:
	@DEBUG_VALUE: finsh_compile:node <- $r4
	ldr	r1, [r0]
	adds	r1, #1
	str	r1, [r0]
.Ltmp283:
.LBB2_140:
	@DEBUG_VALUE: finsh_compile:node <- $r4
	.loc	2 733 13 is_stmt 1              @ rt-thread/components/finsh/finsh_compiler.c:733:13
	ldr	r0, [r4, #12]
.Ltmp284:
	.loc	2 733 13 is_stmt 0              @ rt-thread/components/finsh/finsh_compiler.c:733:13
	cmp	r0, #0
.Ltmp285:
	.loc	2 737 5 is_stmt 1               @ rt-thread/components/finsh/finsh_compiler.c:737:5
	it	eq
	popeq	{r4, r5, r6, pc}
.Ltmp286:
.LBB2_141:
	.loc	2 734 13                        @ rt-thread/components/finsh/finsh_compiler.c:734:13
	bl	finsh_compile
.Ltmp287:
.LBB2_142:
	.loc	2 737 5                         @ rt-thread/components/finsh/finsh_compiler.c:737:5
	pop	{r4, r5, r6, pc}
.LBB2_143:
.Ltmp288:
	@DEBUG_VALUE: finsh_compile:node <- $r4
	@DEBUG_VALUE: var <- $r0
	.loc	2 495 21                        @ rt-thread/components/finsh/finsh_compiler.c:495:21
	movw	r1, :lower16:finsh_compile_pc
	movs	r3, #39
	movt	r1, :upper16:finsh_compile_pc
.Ltmp289:
	.loc	2 496 21                        @ rt-thread/components/finsh/finsh_compiler.c:496:21
	adds	r0, #20
.Ltmp290:
	.loc	2 495 21                        @ rt-thread/components/finsh/finsh_compiler.c:495:21
	ldr	r2, [r1]
	strb	r3, [r2]
	ldr	r2, [r1]
	adds	r3, r2, #1
	str	r3, [r1]
.Ltmp291:
	.loc	2 496 21                        @ rt-thread/components/finsh/finsh_compiler.c:496:21
	strb	r0, [r2, #1]
	lsrs	r3, r0, #8
	ldr	r2, [r1]
	strb	r3, [r2, #1]
	lsrs	r3, r0, #16
	ldr	r2, [r1]
	lsrs	r0, r0, #24
	strb	r3, [r2, #2]
	ldr	r2, [r1]
	strb	r0, [r2, #3]
	movs	r2, #36
.Ltmp292:
	.loc	2 496 21 is_stmt 0              @ rt-thread/components/finsh/finsh_compiler.c:496:21
	ldr	r0, [r1]
.Ltmp293:
	.loc	2 499 21 is_stmt 1              @ rt-thread/components/finsh/finsh_compiler.c:499:21
	strb	r2, [r0, #4]
	movs	r2, #1
.Ltmp294:
	.loc	2 500 21                        @ rt-thread/components/finsh/finsh_compiler.c:500:21
	str.w	r2, [r0, #5]
	movs	r2, #6
	b	.LBB2_152
.Ltmp295:
.LBB2_144:
	@DEBUG_VALUE: finsh_compile:node <- $r4
	@DEBUG_VALUE: var <- $r0
	.loc	2 473 21                        @ rt-thread/components/finsh/finsh_compiler.c:473:21
	movw	r1, :lower16:finsh_compile_pc
	movs	r3, #38
	movt	r1, :upper16:finsh_compile_pc
.Ltmp296:
	.loc	2 474 21                        @ rt-thread/components/finsh/finsh_compiler.c:474:21
	adds	r0, #20
.Ltmp297:
	.loc	2 473 21                        @ rt-thread/components/finsh/finsh_compiler.c:473:21
	ldr	r2, [r1]
	strb	r3, [r2]
	ldr	r2, [r1]
	adds	r3, r2, #1
	str	r3, [r1]
.Ltmp298:
	.loc	2 474 21                        @ rt-thread/components/finsh/finsh_compiler.c:474:21
	strb	r0, [r2, #1]
	lsrs	r3, r0, #8
	ldr	r2, [r1]
	strb	r3, [r2, #1]
	lsrs	r3, r0, #16
	ldr	r2, [r1]
	lsrs	r0, r0, #24
	strb	r3, [r2, #2]
	ldr	r2, [r1]
	strb	r0, [r2, #3]
	movs	r2, #35
.Ltmp299:
	.loc	2 474 21 is_stmt 0              @ rt-thread/components/finsh/finsh_compiler.c:474:21
	ldr	r0, [r1]
.Ltmp300:
	.loc	2 477 21 is_stmt 1              @ rt-thread/components/finsh/finsh_compiler.c:477:21
	strb	r2, [r0, #4]
	movs	r2, #1
.Ltmp301:
	.loc	2 478 21                        @ rt-thread/components/finsh/finsh_compiler.c:478:21
	strh.w	r2, [r0, #5]
	movs	r2, #5
	b	.LBB2_154
.Ltmp302:
.LBB2_145:
	@DEBUG_VALUE: finsh_compile:node <- $r4
	@DEBUG_VALUE: var <- $r0
	.loc	2 582 21                        @ rt-thread/components/finsh/finsh_compiler.c:582:21
	movw	lr, :lower16:finsh_compile_pc
	mov.w	r12, #36
	movt	lr, :upper16:finsh_compile_pc
.Ltmp303:
	.loc	2 583 21                        @ rt-thread/components/finsh/finsh_compiler.c:583:21
	adds	r0, #20
.Ltmp304:
	lsrs	r5, r0, #16
	movs	r1, #39
.Ltmp305:
	.loc	2 582 21                        @ rt-thread/components/finsh/finsh_compiler.c:582:21
	ldr.w	r2, [lr]
.Ltmp306:
	.loc	2 583 21                        @ rt-thread/components/finsh/finsh_compiler.c:583:21
	lsrs	r3, r0, #24
.Ltmp307:
	.loc	2 582 21                        @ rt-thread/components/finsh/finsh_compiler.c:582:21
	strb.w	r12, [r2]
	ldr.w	r2, [lr]
	adds	r6, r2, #1
	str.w	r6, [lr]
.Ltmp308:
	.loc	2 583 21                        @ rt-thread/components/finsh/finsh_compiler.c:583:21
	strb	r0, [r2, #1]
	lsrs	r6, r0, #8
	ldr.w	r2, [lr]
	strb	r6, [r2, #1]
	ldr.w	r2, [lr]
	strb	r5, [r2, #2]
	ldr.w	r2, [lr]
	strb	r3, [r2, #3]
.Ltmp309:
	.loc	2 583 21 is_stmt 0              @ rt-thread/components/finsh/finsh_compiler.c:583:21
	ldr.w	r2, [lr]
.Ltmp310:
	.loc	2 587 21 is_stmt 1              @ rt-thread/components/finsh/finsh_compiler.c:587:21
	strb	r0, [r2, #5]
	movs	r0, #1
.Ltmp311:
	.loc	2 591 21                        @ rt-thread/components/finsh/finsh_compiler.c:591:21
	str.w	r0, [r2, #10]
	movw	r0, #10755
.Ltmp312:
	.loc	2 586 21                        @ rt-thread/components/finsh/finsh_compiler.c:586:21
	strb	r1, [r2, #4]
.Ltmp313:
	.loc	2 587 21                        @ rt-thread/components/finsh/finsh_compiler.c:587:21
	strb	r6, [r2, #6]
	strb	r5, [r2, #7]
	strb	r3, [r2, #8]
.Ltmp314:
	.loc	2 590 21                        @ rt-thread/components/finsh/finsh_compiler.c:590:21
	strb.w	r12, [r2, #9]
	b	.LBB2_148
.Ltmp315:
.LBB2_146:
	@DEBUG_VALUE: finsh_compile:node <- $r4
	@DEBUG_VALUE: var <- $r0
	.loc	2 556 21                        @ rt-thread/components/finsh/finsh_compiler.c:556:21
	movw	r12, :lower16:finsh_compile_pc
	movs	r3, #36
	movt	r12, :upper16:finsh_compile_pc
.Ltmp316:
	.loc	2 557 21                        @ rt-thread/components/finsh/finsh_compiler.c:557:21
	adds	r0, #20
.Ltmp317:
	lsrs	r6, r0, #16
	movs	r1, #38
.Ltmp318:
	.loc	2 556 21                        @ rt-thread/components/finsh/finsh_compiler.c:556:21
	ldr.w	r2, [r12]
.Ltmp319:
	.loc	2 557 21                        @ rt-thread/components/finsh/finsh_compiler.c:557:21
	lsrs	r5, r0, #24
.Ltmp320:
	.loc	2 556 21                        @ rt-thread/components/finsh/finsh_compiler.c:556:21
	strb	r3, [r2]
	ldr.w	r2, [r12]
	adds	r3, r2, #1
	str.w	r3, [r12]
.Ltmp321:
	.loc	2 557 21                        @ rt-thread/components/finsh/finsh_compiler.c:557:21
	strb	r0, [r2, #1]
	lsrs	r3, r0, #8
	ldr.w	r2, [r12]
	strb	r3, [r2, #1]
	ldr.w	r2, [r12]
	strb	r6, [r2, #2]
	ldr.w	r2, [r12]
	strb	r5, [r2, #3]
.Ltmp322:
	.loc	2 557 21 is_stmt 0              @ rt-thread/components/finsh/finsh_compiler.c:557:21
	ldr.w	r2, [r12]
.Ltmp323:
	.loc	2 561 21 is_stmt 1              @ rt-thread/components/finsh/finsh_compiler.c:561:21
	strb	r0, [r2, #5]
	movs	r0, #35
.Ltmp324:
	.loc	2 564 21                        @ rt-thread/components/finsh/finsh_compiler.c:564:21
	strb	r0, [r2, #9]
	movs	r0, #1
.Ltmp325:
	.loc	2 565 21                        @ rt-thread/components/finsh/finsh_compiler.c:565:21
	strh	r0, [r2, #10]
	movs	r0, #2
.Ltmp326:
	.loc	2 560 21                        @ rt-thread/components/finsh/finsh_compiler.c:560:21
	strb	r1, [r2, #4]
.Ltmp327:
	.loc	2 561 21                        @ rt-thread/components/finsh/finsh_compiler.c:561:21
	strb	r3, [r2, #6]
	strb	r6, [r2, #7]
	strb	r5, [r2, #8]
	b	.LBB2_150
.Ltmp328:
.LBB2_147:
	@DEBUG_VALUE: finsh_compile:node <- $r4
	@DEBUG_VALUE: var <- $r0
	.loc	2 672 21                        @ rt-thread/components/finsh/finsh_compiler.c:672:21
	movw	lr, :lower16:finsh_compile_pc
	mov.w	r12, #36
	movt	lr, :upper16:finsh_compile_pc
.Ltmp329:
	.loc	2 673 21                        @ rt-thread/components/finsh/finsh_compiler.c:673:21
	adds	r0, #20
.Ltmp330:
	lsrs	r5, r0, #16
	movs	r1, #39
.Ltmp331:
	.loc	2 672 21                        @ rt-thread/components/finsh/finsh_compiler.c:672:21
	ldr.w	r2, [lr]
.Ltmp332:
	.loc	2 673 21                        @ rt-thread/components/finsh/finsh_compiler.c:673:21
	lsrs	r3, r0, #24
.Ltmp333:
	.loc	2 672 21                        @ rt-thread/components/finsh/finsh_compiler.c:672:21
	strb.w	r12, [r2]
	ldr.w	r2, [lr]
	adds	r6, r2, #1
	str.w	r6, [lr]
.Ltmp334:
	.loc	2 673 21                        @ rt-thread/components/finsh/finsh_compiler.c:673:21
	strb	r0, [r2, #1]
	lsrs	r6, r0, #8
	ldr.w	r2, [lr]
	strb	r6, [r2, #1]
	ldr.w	r2, [lr]
	strb	r5, [r2, #2]
	ldr.w	r2, [lr]
	strb	r3, [r2, #3]
.Ltmp335:
	.loc	2 673 21 is_stmt 0              @ rt-thread/components/finsh/finsh_compiler.c:673:21
	ldr.w	r2, [lr]
.Ltmp336:
	.loc	2 676 21 is_stmt 1              @ rt-thread/components/finsh/finsh_compiler.c:676:21
	strb	r1, [r2, #4]
.Ltmp337:
	.loc	2 677 21                        @ rt-thread/components/finsh/finsh_compiler.c:677:21
	strb	r0, [r2, #5]
	movs	r0, #1
	strb	r6, [r2, #6]
	strb	r5, [r2, #7]
	strb	r3, [r2, #8]
.Ltmp338:
	.loc	2 680 21                        @ rt-thread/components/finsh/finsh_compiler.c:680:21
	strb.w	r12, [r2, #9]
.Ltmp339:
	.loc	2 681 21                        @ rt-thread/components/finsh/finsh_compiler.c:681:21
	str.w	r0, [r2, #10]
	movw	r0, #10758
.Ltmp340:
.LBB2_148:
	@DEBUG_VALUE: finsh_compile:node <- $r4
	.loc	2 0 0 is_stmt 0                 @ rt-thread/components/finsh/finsh_compiler.c:0:0
	strh	r0, [r2, #14]
	movs	r0, #43
	strb	r0, [r2, #16]
	add.w	r0, r2, #17
	str.w	r0, [lr]
	b	.LBB2_140
.Ltmp341:
.LBB2_149:
	@DEBUG_VALUE: finsh_compile:node <- $r4
	@DEBUG_VALUE: var <- $r0
	.loc	2 646 21 is_stmt 1              @ rt-thread/components/finsh/finsh_compiler.c:646:21
	movw	r12, :lower16:finsh_compile_pc
	movs	r3, #36
	movt	r12, :upper16:finsh_compile_pc
.Ltmp342:
	.loc	2 647 21                        @ rt-thread/components/finsh/finsh_compiler.c:647:21
	adds	r0, #20
.Ltmp343:
	lsrs	r6, r0, #16
	movs	r1, #38
.Ltmp344:
	.loc	2 646 21                        @ rt-thread/components/finsh/finsh_compiler.c:646:21
	ldr.w	r2, [r12]
.Ltmp345:
	.loc	2 647 21                        @ rt-thread/components/finsh/finsh_compiler.c:647:21
	lsrs	r5, r0, #24
.Ltmp346:
	.loc	2 646 21                        @ rt-thread/components/finsh/finsh_compiler.c:646:21
	strb	r3, [r2]
	ldr.w	r2, [r12]
	adds	r3, r2, #1
	str.w	r3, [r12]
.Ltmp347:
	.loc	2 647 21                        @ rt-thread/components/finsh/finsh_compiler.c:647:21
	strb	r0, [r2, #1]
	lsrs	r3, r0, #8
	ldr.w	r2, [r12]
	strb	r3, [r2, #1]
	ldr.w	r2, [r12]
	strb	r6, [r2, #2]
	ldr.w	r2, [r12]
	strb	r5, [r2, #3]
.Ltmp348:
	.loc	2 647 21 is_stmt 0              @ rt-thread/components/finsh/finsh_compiler.c:647:21
	ldr.w	r2, [r12]
.Ltmp349:
	.loc	2 650 21 is_stmt 1              @ rt-thread/components/finsh/finsh_compiler.c:650:21
	strb	r1, [r2, #4]
.Ltmp350:
	.loc	2 651 21                        @ rt-thread/components/finsh/finsh_compiler.c:651:21
	strb	r0, [r2, #5]
	movs	r0, #35
	strb	r3, [r2, #6]
	strb	r6, [r2, #7]
	strb	r5, [r2, #8]
.Ltmp351:
	.loc	2 654 21                        @ rt-thread/components/finsh/finsh_compiler.c:654:21
	strb	r0, [r2, #9]
	movs	r0, #1
.Ltmp352:
	.loc	2 655 21                        @ rt-thread/components/finsh/finsh_compiler.c:655:21
	strh	r0, [r2, #10]
	movs	r0, #5
.Ltmp353:
.LBB2_150:
	@DEBUG_VALUE: finsh_compile:node <- $r4
	.loc	2 0 0 is_stmt 0                 @ rt-thread/components/finsh/finsh_compiler.c:0:0
	strb	r0, [r2, #12]
	movw	r0, #11049
	strh.w	r0, [r2, #13]
	add.w	r0, r2, #15
	str.w	r0, [r12]
	b	.LBB2_140
.Ltmp354:
.LBB2_151:
	@DEBUG_VALUE: finsh_compile:node <- $r4
	@DEBUG_VALUE: var <- $r0
	.loc	2 414 21 is_stmt 1              @ rt-thread/components/finsh/finsh_compiler.c:414:21
	movw	r1, :lower16:finsh_compile_pc
	movs	r3, #39
	movt	r1, :upper16:finsh_compile_pc
.Ltmp355:
	.loc	2 415 21                        @ rt-thread/components/finsh/finsh_compiler.c:415:21
	adds	r0, #20
.Ltmp356:
	.loc	2 414 21                        @ rt-thread/components/finsh/finsh_compiler.c:414:21
	ldr	r2, [r1]
	strb	r3, [r2]
	ldr	r2, [r1]
	adds	r3, r2, #1
	str	r3, [r1]
.Ltmp357:
	.loc	2 415 21                        @ rt-thread/components/finsh/finsh_compiler.c:415:21
	strb	r0, [r2, #1]
	lsrs	r3, r0, #8
	ldr	r2, [r1]
	strb	r3, [r2, #1]
	lsrs	r3, r0, #16
	ldr	r2, [r1]
	lsrs	r0, r0, #24
	strb	r3, [r2, #2]
	ldr	r2, [r1]
	strb	r0, [r2, #3]
	movs	r2, #36
.Ltmp358:
	.loc	2 415 21 is_stmt 0              @ rt-thread/components/finsh/finsh_compiler.c:415:21
	ldr	r0, [r1]
.Ltmp359:
	.loc	2 418 21 is_stmt 1              @ rt-thread/components/finsh/finsh_compiler.c:418:21
	strb	r2, [r0, #4]
	movs	r2, #1
.Ltmp360:
	.loc	2 419 21                        @ rt-thread/components/finsh/finsh_compiler.c:419:21
	str.w	r2, [r0, #5]
	movs	r2, #3
.Ltmp361:
.LBB2_152:
	@DEBUG_VALUE: finsh_compile:node <- $r4
	.loc	2 0 0 is_stmt 0                 @ rt-thread/components/finsh/finsh_compiler.c:0:0
	strb	r2, [r0, #9]
	movw	r2, #12074
	strh	r2, [r0, #10]
	adds	r0, #12
	str	r0, [r1]
	b	.LBB2_140
.Ltmp362:
.LBB2_153:
	@DEBUG_VALUE: finsh_compile:node <- $r4
	@DEBUG_VALUE: var <- $r0
	.loc	2 392 21 is_stmt 1              @ rt-thread/components/finsh/finsh_compiler.c:392:21
	movw	r1, :lower16:finsh_compile_pc
	movs	r3, #38
	movt	r1, :upper16:finsh_compile_pc
.Ltmp363:
	.loc	2 393 21                        @ rt-thread/components/finsh/finsh_compiler.c:393:21
	adds	r0, #20
.Ltmp364:
	.loc	2 392 21                        @ rt-thread/components/finsh/finsh_compiler.c:392:21
	ldr	r2, [r1]
	strb	r3, [r2]
	ldr	r2, [r1]
	adds	r3, r2, #1
	str	r3, [r1]
.Ltmp365:
	.loc	2 393 21                        @ rt-thread/components/finsh/finsh_compiler.c:393:21
	strb	r0, [r2, #1]
	lsrs	r3, r0, #8
	ldr	r2, [r1]
	strb	r3, [r2, #1]
	lsrs	r3, r0, #16
	ldr	r2, [r1]
	lsrs	r0, r0, #24
	strb	r3, [r2, #2]
	ldr	r2, [r1]
	strb	r0, [r2, #3]
	movs	r2, #35
.Ltmp366:
	.loc	2 393 21 is_stmt 0              @ rt-thread/components/finsh/finsh_compiler.c:393:21
	ldr	r0, [r1]
.Ltmp367:
	.loc	2 396 21 is_stmt 1              @ rt-thread/components/finsh/finsh_compiler.c:396:21
	strb	r2, [r0, #4]
	movs	r2, #1
.Ltmp368:
	.loc	2 397 21                        @ rt-thread/components/finsh/finsh_compiler.c:397:21
	strh.w	r2, [r0, #5]
	movs	r2, #2
.Ltmp369:
.LBB2_154:
	@DEBUG_VALUE: finsh_compile:node <- $r4
	.loc	2 0 0 is_stmt 0                 @ rt-thread/components/finsh/finsh_compiler.c:0:0
	strb	r2, [r0, #7]
	movw	r2, #12073
	strh	r2, [r0, #8]
	adds	r0, #10
	str	r0, [r1]
	b	.LBB2_140
.Ltmp370:
.LBB2_155:
	@DEBUG_VALUE: var <- $r12
	@DEBUG_VALUE: finsh_compile:node <- $r4
	tst.w	r3, #24
	bne	.LBB2_161
.Ltmp371:
@ %bb.156:
	@DEBUG_VALUE: var <- $r12
	@DEBUG_VALUE: finsh_compile:node <- $r4
	movs	r0, #1
	lsls	r0, r2
	tst.w	r0, #192
	beq.w	.LBB2_140
.Ltmp372:
@ %bb.157:
	@DEBUG_VALUE: var <- $r12
	@DEBUG_VALUE: finsh_compile:node <- $r4
	movw	r0, :lower16:finsh_compile_pc
.Ltmp373:
	.loc	2 138 33 is_stmt 1              @ rt-thread/components/finsh/finsh_compiler.c:138:33
	lsls	r1, r1, #28
.Ltmp374:
	.loc	2 0 0 is_stmt 0                 @ rt-thread/components/finsh/finsh_compiler.c:0:0
	movt	r0, :upper16:finsh_compile_pc
	mov.w	r1, #36
	ldr	r2, [r0]
.Ltmp375:
	.loc	2 138 33                        @ rt-thread/components/finsh/finsh_compiler.c:138:33
	it	pl
	movpl	r1, #38
	b	.LBB2_162
.Ltmp376:
.LBB2_158:
	@DEBUG_VALUE: sysvar <- $r12
	@DEBUG_VALUE: finsh_compile:node <- $r4
	.loc	2 0 33                          @ rt-thread/components/finsh/finsh_compiler.c:0:33
	tst.w	r3, #24
	bne	.LBB2_163
.Ltmp377:
@ %bb.159:
	@DEBUG_VALUE: sysvar <- $r12
	@DEBUG_VALUE: finsh_compile:node <- $r4
	movs	r0, #1
	lsls	r0, r2
	tst.w	r0, #192
	beq.w	.LBB2_140
.Ltmp378:
@ %bb.160:
	@DEBUG_VALUE: sysvar <- $r12
	@DEBUG_VALUE: finsh_compile:node <- $r4
	movw	r0, :lower16:finsh_compile_pc
.Ltmp379:
	.loc	2 72 33 is_stmt 1               @ rt-thread/components/finsh/finsh_compiler.c:72:33
	lsls	r1, r1, #28
.Ltmp380:
	.loc	2 0 0 is_stmt 0                 @ rt-thread/components/finsh/finsh_compiler.c:0:0
	movt	r0, :upper16:finsh_compile_pc
	mov.w	r1, #36
	ldr	r2, [r0]
.Ltmp381:
	.loc	2 72 33                         @ rt-thread/components/finsh/finsh_compiler.c:72:33
	it	pl
	movpl	r1, #38
	b	.LBB2_164
.Ltmp382:
.LBB2_161:
	@DEBUG_VALUE: var <- $r12
	@DEBUG_VALUE: finsh_compile:node <- $r4
	.loc	2 0 0                           @ rt-thread/components/finsh/finsh_compiler.c:0:0
	movw	r0, :lower16:finsh_compile_pc
.Ltmp383:
	.loc	2 122 33 is_stmt 1              @ rt-thread/components/finsh/finsh_compiler.c:122:33
	lsls	r1, r1, #28
.Ltmp384:
	.loc	2 0 0 is_stmt 0                 @ rt-thread/components/finsh/finsh_compiler.c:0:0
	movt	r0, :upper16:finsh_compile_pc
	mov.w	r1, #36
	ldr	r2, [r0]
.Ltmp385:
	.loc	2 122 33                        @ rt-thread/components/finsh/finsh_compiler.c:122:33
	it	pl
	movpl	r1, #37
.Ltmp386:
.LBB2_162:
	@DEBUG_VALUE: var <- $r12
	@DEBUG_VALUE: finsh_compile:node <- $r4
	.loc	2 0 0                           @ rt-thread/components/finsh/finsh_compiler.c:0:0
	strb	r1, [r2]
	ldr	r1, [r0]
	adds	r2, r1, #1
	str	r2, [r0]
	add.w	r2, r12, #20
	strb	r2, [r1, #1]
	lsrs	r3, r2, #8
	ldr	r1, [r0]
	strb	r3, [r1, #1]
	lsrs	r3, r2, #16
	ldr	r1, [r0]
	lsrs	r2, r2, #24
	strb	r3, [r1, #2]
	b.w	.LBB2_7
.Ltmp387:
.LBB2_163:
	@DEBUG_VALUE: sysvar <- $r12
	@DEBUG_VALUE: finsh_compile:node <- $r4
	movw	r0, :lower16:finsh_compile_pc
.Ltmp388:
	.loc	2 56 33 is_stmt 1               @ rt-thread/components/finsh/finsh_compiler.c:56:33
	lsls	r1, r1, #28
.Ltmp389:
	.loc	2 0 0 is_stmt 0                 @ rt-thread/components/finsh/finsh_compiler.c:0:0
	movt	r0, :upper16:finsh_compile_pc
	mov.w	r1, #36
	ldr	r2, [r0]
.Ltmp390:
	.loc	2 56 33                         @ rt-thread/components/finsh/finsh_compiler.c:56:33
	it	pl
	movpl	r1, #37
.Ltmp391:
.LBB2_164:
	@DEBUG_VALUE: sysvar <- $r12
	@DEBUG_VALUE: finsh_compile:node <- $r4
	.loc	2 0 0                           @ rt-thread/components/finsh/finsh_compiler.c:0:0
	strb	r1, [r2]
	ldr	r1, [r0]
	adds	r2, r1, #1
	str	r2, [r0]
	ldr.w	r2, [r12, #12]
	strb	r2, [r1, #1]
	ldr.w	r2, [r12, #12]
	lsrs	r2, r2, #8
	ldr	r1, [r0]
	strb	r2, [r1, #1]
	ldr	r1, [r0]
	ldrh.w	r2, [r12, #14]
	strb	r2, [r1, #2]
	ldrb.w	r2, [r12, #15]
	b.w	.LBB2_7
.Ltmp392:
.Lfunc_end2:
	.size	finsh_compile, .Lfunc_end2-finsh_compile
	.cfi_endproc
	.cantunwind
	.fnend
                                        @ -- End function
	.hidden	finsh_compile_sp                @ @finsh_compile_sp
	.type	finsh_compile_sp,%object
	.section	.bss.finsh_compile_sp,"aw",%nobits
	.globl	finsh_compile_sp
	.p2align	2
finsh_compile_sp:
	.long	0
	.size	finsh_compile_sp, 4

	.hidden	finsh_compile_pc                @ @finsh_compile_pc
	.type	finsh_compile_pc,%object
	.section	.bss.finsh_compile_pc,"aw",%nobits
	.globl	finsh_compile_pc
	.p2align	2
finsh_compile_pc:
	.long	0
	.size	finsh_compile_pc, 4

	.file	5 "E:\\Smart-access-control\\Hardware\\CODE" "rt-thread/components/finsh\\finsh.h"
	.file	6 "E:\\Smart-access-control\\Hardware\\CODE" "rt-thread/components/finsh/finsh_var.h"
	.file	7 "E:\\Smart-access-control\\Hardware\\CODE" "rt-thread/components/finsh/finsh_api.h"
	.section	".note.GNU-stack","",%progbits
	.eabi_attribute	30, 1	@ Tag_ABI_optimization_goals
	.ARM_attribute	16, 1	@ Tag_AV_eba