	.text
	.syntax unified
	.eabi_attribute	67, "2.09"	@ Tag_conformance
	.cpu	cortex-m7
	.eabi_attribute	6, 13	@ Tag_CPU_arch
	.eabi_attribute	7, 77	@ Tag_CPU_arch_profile
	.eabi_attribute	8, 0	@ Tag_ARM_ISA_use
	.eabi_attribute	9, 2	@ Tag_THUMB_ISA_use
	.fpu	fpv5-d16
	.eabi_attribute	36, 1	@ Tag_FP_HP_extension
	.eabi_attribute	34, 1	@ Tag_CPU_unaligned_access
	.eabi_attribute	17, 1	@ Tag_ABI_PCS_GOT_use
	.eabi_attribute	20, 2	@ Tag_ABI_FP_denormal
	.eabi_attribute	21, 0	@ Tag_ABI_FP_exceptions
	.eabi_attribute	23, 1	@ Tag_ABI_FP_number_model
	.eabi_attribute	24, 1	@ Tag_ABI_align_needed
	.eabi_attribute	25, 1	@ Tag_ABI_align_preserved
	.eabi_attribute	28, 1	@ Tag_ABI_VFP_args
	.eabi_attribute	38, 1	@ Tag_ABI_FP_16bit_format
	.eabi_attribute	18, 2	@ Tag_ABI_PCS_wchar_t
	.eabi_attribute	26, 1	@ Tag_ABI_enum_size
	.eabi_attribute	14, 0	@ Tag_ABI_PCS_R9_use
	.file	"finsh_heap.c"
	.file	1 "D:\\Keil_v5\\ARM\\ARMCLANG\\Bin\\..\\include" "stdint.h"
	.file	2 "E:\\Smart-access-control\\Hardware\\CODE" "rt-thread/components/finsh/finsh_heap.c"
	.file	3 "E:\\Smart-access-control\\Hardware\\CODE" "rt-thread/components/finsh\\finsh.h"
	.section	.text.finsh_heap_init,"ax",%progbits
	.hidden	finsh_heap_init                 @ -- Begin function finsh_heap_init
	.globl	finsh_heap_init
	.p2align	3
	.type	finsh_heap_init,%function
	.code	16                              @ @finsh_heap_init
	.thumb_func
finsh_heap_init:
.Lfunc_begin0:
	.loc	2 37 0                          @ rt-thread/components/finsh/finsh_heap.c:37:0
	.fnstart
	.cfi_sections .debug_frame
	.cfi_startproc
@ %bb.0:
	.save	{r4, lr}
	push	{r4, lr}
	.cfi_def_cfa_offset 8
	.cfi_offset lr, -4
	.cfi_offset r4, -8
.Ltmp0:
	.loc	2 39 5 prologue_end             @ rt-thread/components/finsh/finsh_heap.c:39:5
	movw	r4, :lower16:finsh_heap
	movs	r1, #128
	movt	r4, :upper16:finsh_heap
	mov	r0, r4
	bl	__aeabi_memclr4
	.loc	2 42 25                         @ rt-thread/components/finsh/finsh_heap.c:42:25
	movw	r0, :lower16:free_list
	.loc	2 46 25                         @ rt-thread/components/finsh/finsh_heap.c:46:25
	movw	r2, :lower16:allocate_list
	.loc	2 42 25                         @ rt-thread/components/finsh/finsh_heap.c:42:25
	movt	r0, :upper16:free_list
	.loc	2 46 25                         @ rt-thread/components/finsh/finsh_heap.c:46:25
	movt	r2, :upper16:allocate_list
	movs	r1, #0
	.loc	2 44 25                         @ rt-thread/components/finsh/finsh_heap.c:44:25
	str	r1, [r4, #4]
	.loc	2 42 25                         @ rt-thread/components/finsh/finsh_heap.c:42:25
	str	r4, [r0]
	movs	r0, #120
	.loc	2 43 25                         @ rt-thread/components/finsh/finsh_heap.c:43:25
	str	r0, [r4]
	.loc	2 48 5                          @ rt-thread/components/finsh/finsh_heap.c:48:5
	movs	r0, #0
	.loc	2 46 25                         @ rt-thread/components/finsh/finsh_heap.c:46:25
	str	r1, [r2]
	.loc	2 48 5                          @ rt-thread/components/finsh/finsh_heap.c:48:5
	pop	{r4, pc}
.Ltmp1:
.Lfunc_end0:
	.size	finsh_heap_init, .Lfunc_end0-finsh_heap_init
	.cfi_endproc
	.cantunwind
	.fnend
                                        @ -- End function
	.section	.text.finsh_heap_allocate,"ax",%progbits
	.hidden	finsh_heap_allocate             @ -- Begin function finsh_heap_allocate
	.globl	finsh_heap_allocate
	.p2align	3
	.type	finsh_heap_allocate,%function
	.code	16                              @ @finsh_heap_allocate
	.thumb_func
finsh_heap_allocate:
.Lfunc_begin1:
	.loc	2 55 0                          @ rt-thread/components/finsh/finsh_heap.c:55:0
	.fnstart
	.cfi_startproc
@ %bb.0:
	@DEBUG_VALUE: finsh_heap_allocate:size <- $r0
	.save	{r4, r5, r6, lr}
	push	{r4, r5, r6, lr}
	.cfi_def_cfa_offset 16
	.cfi_offset lr, -4
	.cfi_offset r6, -8
	.cfi_offset r5, -12
	.cfi_offset r4, -16
.Ltmp2:
	.loc	2 0 0 prologue_end              @ rt-thread/components/finsh/finsh_heap.c:0:0
	movw	r6, :lower16:free_list
.Ltmp3:
	.loc	2 58 12                         @ rt-thread/components/finsh/finsh_heap.c:58:12
	adds	r0, #3
.Ltmp4:
	@DEBUG_VALUE: finsh_heap_allocate:size <- [DW_OP_LLVM_entry_value 1] $r0
	.loc	2 0 0 is_stmt 0                 @ rt-thread/components/finsh/finsh_heap.c:0:0
	movt	r6, :upper16:free_list
.Ltmp5:
	@DEBUG_VALUE: finsh_heap_allocate:size <- $r0
	.loc	2 58 12                         @ rt-thread/components/finsh/finsh_heap.c:58:12
	bic	r4, r0, #3
.Ltmp6:
	@DEBUG_VALUE: finsh_heap_allocate:header <- undef
	@DEBUG_VALUE: finsh_heap_allocate:size <- $r4
	.loc	2 0 0                           @ rt-thread/components/finsh/finsh_heap.c:0:0
	ldr	r5, [r6]
.Ltmp7:
	@DEBUG_VALUE: finsh_heap_allocate:header <- $r5
	.loc	2 62 27 is_stmt 1               @ rt-thread/components/finsh/finsh_heap.c:62:27
	cbz	r5, .LBB1_4
.Ltmp8:
@ %bb.1:
	@DEBUG_VALUE: finsh_heap_allocate:header <- $r5
	@DEBUG_VALUE: finsh_heap_allocate:size <- $r4
	.loc	2 0 27 is_stmt 0                @ rt-thread/components/finsh/finsh_heap.c:0:27
	add.w	r0, r4, #8
.Ltmp9:
	.p2align	2
.LBB1_2:                                @ =>This Inner Loop Header: Depth=1
	@DEBUG_VALUE: finsh_heap_allocate:header <- $r5
	@DEBUG_VALUE: finsh_heap_allocate:size <- $r4
	.loc	2 62 39                         @ rt-thread/components/finsh/finsh_heap.c:62:39
	ldr	r1, [r5]
.Ltmp10:
	.loc	2 61 5 is_stmt 1                @ rt-thread/components/finsh/finsh_heap.c:61:5
	cmp	r1, r0
	bhi	.LBB1_9
.Ltmp11:
@ %bb.3:                                @   in Loop: Header=BB1_2 Depth=1
	@DEBUG_VALUE: finsh_heap_allocate:header <- $r5
	@DEBUG_VALUE: finsh_heap_allocate:size <- $r4
	@DEBUG_VALUE: finsh_heap_allocate:header <- undef
	.loc	2 0 0 is_stmt 0                 @ rt-thread/components/finsh/finsh_heap.c:0:0
	ldr	r5, [r5, #4]
.Ltmp12:
	@DEBUG_VALUE: finsh_heap_allocate:header <- $r5
	.loc	2 62 27 is_stmt 1               @ rt-thread/components/finsh/finsh_heap.c:62:27
	cmp	r5, #0
	bne	.LBB1_2
.Ltmp13:
.LBB1_4:
	@DEBUG_VALUE: finsh_heap_allocate:header <- $r5
	@DEBUG_VALUE: finsh_heap_allocate:size <- $r4
	.loc	2 67 9                          @ rt-thread/components/finsh/finsh_heap.c:67:9
	bl	finsh_heap_gc
.Ltmp14:
	@DEBUG_VALUE: finsh_heap_allocate:header <- undef
	.loc	2 0 0 is_stmt 0                 @ rt-thread/components/finsh/finsh_heap.c:0:0
	ldr	r5, [r6]
.Ltmp15:
	@DEBUG_VALUE: finsh_heap_allocate:header <- $r5
	.loc	2 71 31 is_stmt 1               @ rt-thread/components/finsh/finsh_heap.c:71:31
	cbz	r5, .LBB1_8
.Ltmp16:
@ %bb.5:
	@DEBUG_VALUE: finsh_heap_allocate:header <- $r5
	@DEBUG_VALUE: finsh_heap_allocate:size <- $r4
	.loc	2 0 31 is_stmt 0                @ rt-thread/components/finsh/finsh_heap.c:0:31
	add.w	r0, r4, #8
.Ltmp17:
	.p2align	2
.LBB1_6:                                @ =>This Inner Loop Header: Depth=1
	@DEBUG_VALUE: finsh_heap_allocate:header <- $r5
	@DEBUG_VALUE: finsh_heap_allocate:size <- $r4
	.loc	2 71 43                         @ rt-thread/components/finsh/finsh_heap.c:71:43
	ldr	r1, [r5]
.Ltmp18:
	.loc	2 70 9 is_stmt 1                @ rt-thread/components/finsh/finsh_heap.c:70:9
	cmp	r1, r0
	bhs	.LBB1_9
.Ltmp19:
@ %bb.7:                                @   in Loop: Header=BB1_6 Depth=1
	@DEBUG_VALUE: finsh_heap_allocate:header <- $r5
	@DEBUG_VALUE: finsh_heap_allocate:size <- $r4
	@DEBUG_VALUE: finsh_heap_allocate:header <- undef
	.loc	2 0 0 is_stmt 0                 @ rt-thread/components/finsh/finsh_heap.c:0:0
	ldr	r5, [r5, #4]
.Ltmp20:
	@DEBUG_VALUE: finsh_heap_allocate:header <- $r5
	.loc	2 71 31 is_stmt 1               @ rt-thread/components/finsh/finsh_heap.c:71:31
	cmp	r5, #0
	bne	.LBB1_6
.Ltmp21:
.LBB1_8:
	@DEBUG_VALUE: finsh_heap_allocate:header <- $r5
	@DEBUG_VALUE: finsh_heap_allocate:size <- $r4
	.loc	2 0 31 is_stmt 0                @ rt-thread/components/finsh/finsh_heap.c:0:31
	movs	r0, #0
	.loc	2 91 1 is_stmt 1                @ rt-thread/components/finsh/finsh_heap.c:91:1
	pop	{r4, r5, r6, pc}
.Ltmp22:
.LBB1_9:
	@DEBUG_VALUE: finsh_heap_allocate:header <- $r5
	@DEBUG_VALUE: finsh_heap_allocate:size <- $r4
	@DEBUG_VALUE: finsh_heap_allocate:header <- $r5
	.loc	2 79 5                          @ rt-thread/components/finsh/finsh_heap.c:79:5
	mov	r0, r5
	mov	r1, r4
	bl	finsh_block_split
	.loc	2 82 5                          @ rt-thread/components/finsh/finsh_heap.c:82:5
	movw	r0, :lower16:free_list
	mov	r1, r5
	movt	r0, :upper16:free_list
	bl	finsh_block_remove
	movs	r0, #0
	.loc	2 83 18                         @ rt-thread/components/finsh/finsh_heap.c:83:18
	str	r0, [r5, #4]
	.loc	2 86 5                          @ rt-thread/components/finsh/finsh_heap.c:86:5
	movw	r0, :lower16:allocate_list
	mov	r1, r5
	movt	r0, :upper16:allocate_list
	bl	finsh_block_insert
	.loc	2 88 12                         @ rt-thread/components/finsh/finsh_heap.c:88:12
	adds	r5, #8
.Ltmp23:
	.loc	2 88 5 is_stmt 0                @ rt-thread/components/finsh/finsh_heap.c:88:5
	mov	r1, r4
	mov	r0, r5
	bl	__aeabi_memclr
	.loc	2 91 1 is_stmt 1                @ rt-thread/components/finsh/finsh_heap.c:91:1
	mov	r0, r5
	pop	{r4, r5, r6, pc}
.Ltmp24:
.Lfunc_end1:
	.size	finsh_heap_allocate, .Lfunc_end1-finsh_heap_allocate
	.cfi_endproc
	.cantunwind
	.fnend
                                        @ -- End function
	.section	.text.finsh_heap_gc,"ax",%progbits
	.p2align	3                               @ -- Begin function finsh_heap_gc
	.type	finsh_heap_gc,%function
	.code	16                              @ @finsh_heap_gc
	.thumb_func
finsh_heap_gc:
.Lfunc_begin2:
	.loc	2 115 0                         @ rt-thread/components/finsh/finsh_heap.c:115:0
	.fnstart
	.cfi_startproc
@ %bb.0:
	.save	{r4, r5, r7, lr}
	push	{r4, r5, r7, lr}
	.cfi_def_cfa_offset 16
	.cfi_offset lr, -4
	.cfi_offset r7, -8
	.cfi_offset r5, -12
	.cfi_offset r4, -16
.Ltmp25:
	@DEBUG_VALUE: finsh_heap_gc:temp <- 0
	.loc	2 122 19 prologue_end           @ rt-thread/components/finsh/finsh_heap.c:122:19
	movw	r0, :lower16:allocate_list
	movt	r0, :upper16:allocate_list
	ldr	r4, [r0]
.Ltmp26:
	@DEBUG_VALUE: finsh_heap_gc:header <- $r4
	.loc	2 122 5 is_stmt 0               @ rt-thread/components/finsh/finsh_heap.c:122:5
	cmp	r4, #0
.Ltmp27:
	.loc	2 142 1 is_stmt 1               @ rt-thread/components/finsh/finsh_heap.c:142:1
	it	eq
	popeq	{r4, r5, r7, pc}
.Ltmp28:
.LBB2_1:
	@DEBUG_VALUE: finsh_heap_gc:temp <- 0
	.loc	2 0 1 is_stmt 0                 @ rt-thread/components/finsh/finsh_heap.c:0:1
	movw	r0, :lower16:global_variable
	movt	r0, :upper16:global_variable
	add.w	r5, r0, #17
	b	.LBB2_3
.Ltmp29:
	.p2align	2
.LBB2_2:                                @   in Loop: Header=BB2_3 Depth=1
	@DEBUG_VALUE: finsh_heap_gc:header <- $r4
	@DEBUG_VALUE: finsh_heap_gc:header <- $r4
	.loc	2 122 5 is_stmt 1               @ rt-thread/components/finsh/finsh_heap.c:122:5
	cbz	r4, .LBB2_10
.Ltmp30:
.LBB2_3:                                @ =>This Loop Header: Depth=1
                                        @     Child Loop BB2_5 Depth 2
	@DEBUG_VALUE: finsh_heap_gc:header <- $r4
	@DEBUG_VALUE: finsh_heap_gc:i <- 0
	.loc	2 0 5 is_stmt 0                 @ rt-thread/components/finsh/finsh_heap.c:0:5
	add.w	r0, r4, #8
	movs	r1, #0
	mov	r2, r5
	b	.LBB2_5
.Ltmp31:
	.p2align	2
.LBB2_4:                                @   in Loop: Header=BB2_5 Depth=2
	@DEBUG_VALUE: finsh_heap_gc:header <- $r4
	@DEBUG_VALUE: finsh_heap_gc:i <- $r1
	.loc	2 124 47 is_stmt 1              @ rt-thread/components/finsh/finsh_heap.c:124:47
	adds	r1, #1
.Ltmp32:
	@DEBUG_VALUE: finsh_heap_gc:i <- $r1
	.loc	2 124 23 is_stmt 0              @ rt-thread/components/finsh/finsh_heap.c:124:23
	adds	r2, #24
.Ltmp33:
	.loc	2 124 9                         @ rt-thread/components/finsh/finsh_heap.c:124:9
	cmp	r1, #8
	beq	.LBB2_7
.Ltmp34:
.LBB2_5:                                @   Parent Loop BB2_3 Depth=1
                                        @ =>  This Inner Loop Header: Depth=2
	@DEBUG_VALUE: finsh_heap_gc:header <- $r4
	@DEBUG_VALUE: finsh_heap_gc:i <- $r1
	.loc	2 126 36 is_stmt 1              @ rt-thread/components/finsh/finsh_heap.c:126:36
	ldrb	r3, [r2]
.Ltmp35:
	.loc	2 126 17 is_stmt 0              @ rt-thread/components/finsh/finsh_heap.c:126:17
	cmp	r3, #0
	beq	.LBB2_4
.Ltmp36:
@ %bb.6:                                @   in Loop: Header=BB2_5 Depth=2
	@DEBUG_VALUE: finsh_heap_gc:header <- $r4
	@DEBUG_VALUE: finsh_heap_gc:i <- $r1
	.loc	2 128 46 is_stmt 1              @ rt-thread/components/finsh/finsh_heap.c:128:46
	ldr.w	r3, [r2, #3]
.Ltmp37:
	.loc	2 128 21 is_stmt 0              @ rt-thread/components/finsh/finsh_heap.c:128:21
	cmp	r3, r0
	bne	.LBB2_4
	b	.LBB2_8
.Ltmp38:
	.p2align	2
.LBB2_7:                                @   in Loop: Header=BB2_3 Depth=1
	@DEBUG_VALUE: finsh_heap_gc:header <- $r4
	@DEBUG_VALUE: finsh_heap_gc:i <- $r1
	.loc	2 0 21                          @ rt-thread/components/finsh/finsh_heap.c:0:21
	movs	r1, #8
.Ltmp39:
.LBB2_8:                                @   in Loop: Header=BB2_3 Depth=1
	@DEBUG_VALUE: finsh_heap_gc:header <- $r4
	@DEBUG_VALUE: finsh_heap_gc:temp <- $r4
	.loc	2 137 13 is_stmt 1              @ rt-thread/components/finsh/finsh_heap.c:137:13
	cmp	r1, #8
	.loc	2 134 26                        @ rt-thread/components/finsh/finsh_heap.c:134:26
	ldr	r4, [r4, #4]
.Ltmp40:
	@DEBUG_VALUE: finsh_heap_gc:header <- $r4
	.loc	2 137 13                        @ rt-thread/components/finsh/finsh_heap.c:137:13
	bne	.LBB2_2
.Ltmp41:
@ %bb.9:                                @   in Loop: Header=BB2_3 Depth=1
	@DEBUG_VALUE: finsh_heap_gc:header <- $r4
	.loc	2 139 13                        @ rt-thread/components/finsh/finsh_heap.c:139:13
	bl	finsh_heap_free
	b	.LBB2_2
.Ltmp42:
.LBB2_10:
	@DEBUG_VALUE: finsh_heap_gc:header <- $r4
	.loc	2 142 1                         @ rt-thread/components/finsh/finsh_heap.c:142:1
	pop	{r4, r5, r7, pc}
.Ltmp43:
.Lfunc_end2:
	.size	finsh_heap_gc, .Lfunc_end2-finsh_heap_gc
	.cfi_endproc
	.cantunwind
	.fnend
                                        @ -- End function
	.section	.text.finsh_block_split,"ax",%progbits
	.p2align	3                               @ -- Begin function finsh_block_split
	.type	finsh_block_split,%function
	.code	16                              @ @finsh_block_split
	.thumb_func
finsh_block_split:
.Lfunc_begin3:
	.loc	2 214 0                         @ rt-thread/components/finsh/finsh_heap.c:214:0
	.fnstart
	.cfi_startproc
@ %bb.0:
	@DEBUG_VALUE: finsh_block_split:header <- $r0
	@DEBUG_VALUE: finsh_block_split:header <- $r0
	@DEBUG_VALUE: finsh_block_split:size <- $r1
	@DEBUG_VALUE: finsh_block_split:size <- $r1
	.loc	2 221 12 prologue_end           @ rt-thread/components/finsh/finsh_heap.c:221:12
	adds	r2, r0, r1
	.loc	2 222 28                        @ rt-thread/components/finsh/finsh_heap.c:222:28
	ldr	r3, [r0]
	.loc	2 222 71 is_stmt 0              @ rt-thread/components/finsh/finsh_heap.c:222:71
	subs	r3, r3, r1
	subs	r3, #8
	.loc	2 222 18                        @ rt-thread/components/finsh/finsh_heap.c:222:18
	str	r3, [r2, #8]!
.Ltmp44:
	@DEBUG_VALUE: finsh_block_split:next <- $r2
	.loc	2 223 20 is_stmt 1              @ rt-thread/components/finsh/finsh_heap.c:223:20
	str	r1, [r0]
	.loc	2 224 26                        @ rt-thread/components/finsh/finsh_heap.c:224:26
	ldr	r1, [r0, #4]
.Ltmp45:
	@DEBUG_VALUE: finsh_block_split:size <- [DW_OP_LLVM_entry_value 1] $r1
	.loc	2 224 16 is_stmt 0              @ rt-thread/components/finsh/finsh_heap.c:224:16
	str	r1, [r2, #4]
	.loc	2 226 18 is_stmt 1              @ rt-thread/components/finsh/finsh_heap.c:226:18
	str	r2, [r0, #4]
	.loc	2 227 1                         @ rt-thread/components/finsh/finsh_heap.c:227:1
	bx	lr
.Ltmp46:
.Lfunc_end3:
	.size	finsh_block_split, .Lfunc_end3-finsh_block_split
	.cfi_endproc
	.cantunwind
	.fnend
                                        @ -- End function
	.section	.text.finsh_block_remove,"ax",%progbits
	.p2align	3                               @ -- Begin function finsh_block_remove
	.type	finsh_block_remove,%function
	.code	16                              @ @finsh_block_remove
	.thumb_func
finsh_block_remove:
.Lfunc_begin4:
	.loc	2 187 0                         @ rt-thread/components/finsh/finsh_heap.c:187:0
	.fnstart
	.cfi_startproc
@ %bb.0:
	@DEBUG_VALUE: finsh_block_remove:list <- $r0
	@DEBUG_VALUE: finsh_block_remove:list <- $r0
	@DEBUG_VALUE: finsh_block_remove:header <- $r1
	.loc	2 190 12 prologue_end           @ rt-thread/components/finsh/finsh_heap.c:190:12
	ldr	r2, [r0]
.Ltmp47:
	@DEBUG_VALUE: finsh_block_remove:node <- $r2
	@DEBUG_VALUE: finsh_block_remove:header <- $r1
	.loc	2 191 9                         @ rt-thread/components/finsh/finsh_heap.c:191:9
	cmp	r2, r1
	beq	.LBB4_5
.Ltmp48:
	.p2align	2
.LBB4_1:                                @ =>This Inner Loop Header: Depth=1
	@DEBUG_VALUE: finsh_block_remove:header <- $r1
	@DEBUG_VALUE: finsh_block_remove:node <- $r2
	.loc	2 200 5                         @ rt-thread/components/finsh/finsh_heap.c:200:5
	cbz	r2, .LBB4_4
.Ltmp49:
@ %bb.2:                                @   in Loop: Header=BB4_1 Depth=1
	@DEBUG_VALUE: finsh_block_remove:node <- $r2
	@DEBUG_VALUE: finsh_block_remove:header <- $r1
	.loc	2 0 0 is_stmt 0                 @ rt-thread/components/finsh/finsh_heap.c:0:0
	mov	r0, r2
.Ltmp50:
	@DEBUG_VALUE: finsh_block_remove:list <- [DW_OP_LLVM_entry_value 1] $r0
	@DEBUG_VALUE: finsh_block_remove:node <- $r0
	.loc	2 202 19 is_stmt 1              @ rt-thread/components/finsh/finsh_heap.c:202:19
	ldr	r2, [r2, #4]
.Ltmp51:
	.loc	2 202 13 is_stmt 0              @ rt-thread/components/finsh/finsh_heap.c:202:13
	cmp	r2, r1
	bne	.LBB4_1
.Ltmp52:
@ %bb.3:
	@DEBUG_VALUE: finsh_block_remove:header <- $r1
	@DEBUG_VALUE: finsh_block_remove:node <- $r0
	.loc	2 204 34 is_stmt 1              @ rt-thread/components/finsh/finsh_heap.c:204:34
	ldr	r1, [r1, #4]
.Ltmp53:
	@DEBUG_VALUE: finsh_block_remove:header <- [DW_OP_LLVM_entry_value 1] $r1
	@DEBUG_VALUE: finsh_block_remove:header <- [DW_OP_LLVM_entry_value 1] $r1
	.loc	2 204 24 is_stmt 0              @ rt-thread/components/finsh/finsh_heap.c:204:24
	str	r1, [r0, #4]
.Ltmp54:
.LBB4_4:
	.loc	2 208 1 is_stmt 1               @ rt-thread/components/finsh/finsh_heap.c:208:1
	bx	lr
.LBB4_5:
.Ltmp55:
	@DEBUG_VALUE: finsh_block_remove:node <- $r2
	@DEBUG_VALUE: finsh_block_remove:header <- $r1
	@DEBUG_VALUE: finsh_block_remove:list <- $r0
	.loc	2 194 25                        @ rt-thread/components/finsh/finsh_heap.c:194:25
	ldr	r2, [r1, #4]
.Ltmp56:
	.loc	2 194 15 is_stmt 0              @ rt-thread/components/finsh/finsh_heap.c:194:15
	str	r2, [r0]
	movs	r0, #0
.Ltmp57:
	@DEBUG_VALUE: finsh_block_remove:list <- [DW_OP_LLVM_entry_value 1] $r0
	.loc	2 195 22 is_stmt 1              @ rt-thread/components/finsh/finsh_heap.c:195:22
	str	r0, [r1, #4]
.Ltmp58:
	.loc	2 208 1                         @ rt-thread/components/finsh/finsh_heap.c:208:1
	bx	lr
.Ltmp59:
.Lfunc_end4:
	.size	finsh_block_remove, .Lfunc_end4-finsh_block_remove
	.cfi_endproc
	.cantunwind
	.fnend
                                        @ -- End function
	.section	.text.finsh_block_insert,"ax",%progbits
	.p2align	3                               @ -- Begin function finsh_block_insert
	.type	finsh_block_insert,%function
	.code	16                              @ @finsh_block_insert
	.thumb_func
finsh_block_insert:
.Lfunc_begin5:
	.loc	2 148 0                         @ rt-thread/components/finsh/finsh_heap.c:148:0
	.fnstart
	.cfi_startproc
@ %bb.0:
	@DEBUG_VALUE: finsh_block_insert:list <- $r0
	@DEBUG_VALUE: finsh_block_insert:list <- $r0
	@DEBUG_VALUE: finsh_block_insert:header <- $r1
	.loc	2 151 9 prologue_end            @ rt-thread/components/finsh/finsh_heap.c:151:9
	ldr	r2, [r0]
.Ltmp60:
	@DEBUG_VALUE: finsh_block_insert:header <- $r1
	.loc	2 151 9 is_stmt 0               @ rt-thread/components/finsh/finsh_heap.c:151:9
	cbz	r2, .LBB5_6
.Ltmp61:
@ %bb.1:
	@DEBUG_VALUE: finsh_block_insert:header <- $r1
	@DEBUG_VALUE: finsh_block_insert:list <- $r0
	@DEBUG_VALUE: finsh_block_insert:node <- $r2
	.loc	2 160 9 is_stmt 1               @ rt-thread/components/finsh/finsh_heap.c:160:9
	cmp	r2, r1
	bls	.LBB5_3
.Ltmp62:
@ %bb.2:
	@DEBUG_VALUE: finsh_block_insert:node <- $r2
	@DEBUG_VALUE: finsh_block_insert:header <- $r1
	@DEBUG_VALUE: finsh_block_insert:list <- $r0
	.loc	2 163 22                        @ rt-thread/components/finsh/finsh_heap.c:163:22
	str	r2, [r1, #4]
.Ltmp63:
	.loc	2 0 0 is_stmt 0                 @ rt-thread/components/finsh/finsh_heap.c:0:0
	str	r1, [r0]
	.loc	2 181 1 is_stmt 1               @ rt-thread/components/finsh/finsh_heap.c:181:1
	bx	lr
.Ltmp64:
	.p2align	2
.LBB5_3:                                @ =>This Inner Loop Header: Depth=1
	@DEBUG_VALUE: finsh_block_insert:header <- $r1
	.loc	2 0 0 is_stmt 0                 @ rt-thread/components/finsh/finsh_heap.c:0:0
	mov	r0, r2
.Ltmp65:
	@DEBUG_VALUE: finsh_block_insert:list <- [DW_OP_LLVM_entry_value 1] $r0
	@DEBUG_VALUE: finsh_block_insert:node <- $r0
	.loc	2 172 23 is_stmt 1              @ rt-thread/components/finsh/finsh_heap.c:172:23
	ldr	r2, [r2, #4]
.Ltmp66:
	.loc	2 172 17 is_stmt 0              @ rt-thread/components/finsh/finsh_heap.c:172:17
	cmp	r2, r1
	bhi	.LBB5_5
.Ltmp67:
@ %bb.4:                                @   in Loop: Header=BB5_3 Depth=1
	@DEBUG_VALUE: finsh_block_insert:header <- $r1
	@DEBUG_VALUE: finsh_block_insert:node <- $r0
	cmp	r2, #0
	bne	.LBB5_3
.Ltmp68:
.LBB5_5:
	@DEBUG_VALUE: finsh_block_insert:header <- $r1
	@DEBUG_VALUE: finsh_block_insert:node <- $r0
	.loc	2 172 23                        @ rt-thread/components/finsh/finsh_heap.c:172:23
	adds	r0, #4
.Ltmp69:
	.loc	2 179 9 is_stmt 1               @ rt-thread/components/finsh/finsh_heap.c:179:9
	cmp	r2, #0
.Ltmp70:
	.loc	2 179 42 is_stmt 0              @ rt-thread/components/finsh/finsh_heap.c:179:42
	it	ne
	strne	r2, [r1, #4]
.Ltmp71:
.LBB5_6:
	@DEBUG_VALUE: finsh_block_insert:header <- $r1
	.loc	2 0 0                           @ rt-thread/components/finsh/finsh_heap.c:0:0
	str	r1, [r0]
	.loc	2 181 1 is_stmt 1               @ rt-thread/components/finsh/finsh_heap.c:181:1
	bx	lr
.Ltmp72:
.Lfunc_end5:
	.size	finsh_block_insert, .Lfunc_end5-finsh_block_insert
	.cfi_endproc
	.cantunwind
	.fnend
                                        @ -- End function
	.section	.text.finsh_heap_free,"ax",%progbits
	.hidden	finsh_heap_free                 @ -- Begin function finsh_heap_free
	.globl	finsh_heap_free
	.p2align	3
	.type	finsh_heap_free,%function
	.code	16                              @ @finsh_heap_free
	.thumb_func
finsh_heap_free:
.Lfunc_begin6:
	.loc	2 97 0                          @ rt-thread/components/finsh/finsh_heap.c:97:0
	.fnstart
	.cfi_startproc
@ %bb.0:
	@DEBUG_VALUE: finsh_heap_free:ptr <- $r0
	@DEBUG_VALUE: finsh_heap_free:ptr <- $r0
	.save	{r4, lr}
	push	{r4, lr}
	.cfi_def_cfa_offset 8
	.cfi_offset lr, -4
	.cfi_offset r4, -8
.Ltmp73:
	.loc	2 101 14 prologue_end           @ rt-thread/components/finsh/finsh_heap.c:101:14
	sub.w	r4, r0, #8
.Ltmp74:
	@DEBUG_VALUE: finsh_heap_free:header <- $r4
	.loc	2 104 5                         @ rt-thread/components/finsh/finsh_heap.c:104:5
	movw	r0, :lower16:allocate_list
.Ltmp75:
	@DEBUG_VALUE: finsh_heap_free:ptr <- [DW_OP_LLVM_entry_value 1] $r0
	movt	r0, :upper16:allocate_list
	mov	r1, r4
	bl	finsh_block_remove
	.loc	2 107 5                         @ rt-thread/components/finsh/finsh_heap.c:107:5
	movw	r0, :lower16:free_list
	mov	r1, r4
	movt	r0, :upper16:free_list
	bl	finsh_block_insert
	.loc	2 108 5                         @ rt-thread/components/finsh/finsh_heap.c:108:5
	mov	r0, r4
	bl	finsh_block_merge
	.loc	2 109 1                         @ rt-thread/components/finsh/finsh_heap.c:109:1
	pop	{r4, pc}
.Ltmp76:
.Lfunc_end6:
	.size	finsh_heap_free, .Lfunc_end6-finsh_heap_free
	.cfi_endproc
	.cantunwind
	.fnend
                                        @ -- End function
	.section	.text.finsh_block_merge,"ax",%progbits
	.p2align	3                               @ -- Begin function finsh_block_merge
	.type	finsh_block_merge,%function
	.code	16                              @ @finsh_block_merge
	.thumb_func
finsh_block_merge:
.Lfunc_begin7:
	.loc	2 230 0                         @ rt-thread/components/finsh/finsh_heap.c:230:0
	.fnstart
	.cfi_startproc
@ %bb.0:
	@DEBUG_VALUE: finsh_block_merge:header <- $r0
	.save	{r7, lr}
	push	{r7, lr}
	.cfi_def_cfa_offset 8
	.cfi_offset lr, -4
	.cfi_offset r7, -8
.Ltmp77:
	.loc	2 236 9 prologue_end            @ rt-thread/components/finsh/finsh_heap.c:236:9
	movw	r1, :lower16:free_list
.Ltmp78:
	.loc	2 234 25                        @ rt-thread/components/finsh/finsh_heap.c:234:25
	ldr.w	lr, [r0, #4]
.Ltmp79:
	@DEBUG_VALUE: finsh_block_merge:next_node <- $lr
	.loc	2 236 9                         @ rt-thread/components/finsh/finsh_heap.c:236:9
	movt	r1, :upper16:free_list
.Ltmp80:
	@DEBUG_VALUE: finsh_block_merge:list <- $r1
	ldr	r3, [r1]
.Ltmp81:
	@DEBUG_VALUE: finsh_block_merge:header <- $r0
	.loc	2 236 9 is_stmt 0               @ rt-thread/components/finsh/finsh_heap.c:236:9
	cmp	r3, r0
	beq	.LBB7_3
.Ltmp82:
	.p2align	2
.LBB7_1:                                @ =>This Inner Loop Header: Depth=1
	@DEBUG_VALUE: finsh_block_merge:list <- $r1
	@DEBUG_VALUE: finsh_block_merge:header <- $r0
	@DEBUG_VALUE: finsh_block_merge:next_node <- $lr
	@DEBUG_VALUE: finsh_block_merge:prev_node <- $r3
	.loc	2 240 9 is_stmt 1               @ rt-thread/components/finsh/finsh_heap.c:240:9
	cbz	r3, .LBB7_5
.Ltmp83:
@ %bb.2:                                @   in Loop: Header=BB7_1 Depth=1
	@DEBUG_VALUE: finsh_block_merge:prev_node <- $r3
	@DEBUG_VALUE: finsh_block_merge:list <- $r1
	@DEBUG_VALUE: finsh_block_merge:header <- $r0
	@DEBUG_VALUE: finsh_block_merge:next_node <- $lr
	.loc	2 0 0 is_stmt 0                 @ rt-thread/components/finsh/finsh_heap.c:0:0
	mov	r2, r3
.Ltmp84:
	@DEBUG_VALUE: finsh_block_merge:prev_node <- $r2
	.loc	2 242 28 is_stmt 1              @ rt-thread/components/finsh/finsh_heap.c:242:28
	ldr	r3, [r3, #4]
.Ltmp85:
	.loc	2 242 17 is_stmt 0              @ rt-thread/components/finsh/finsh_heap.c:242:17
	cmp	r3, r0
	bne	.LBB7_1
	b	.LBB7_4
.Ltmp86:
.LBB7_3:
	@DEBUG_VALUE: finsh_block_merge:list <- $r1
	@DEBUG_VALUE: finsh_block_merge:header <- $r0
	@DEBUG_VALUE: finsh_block_merge:next_node <- $lr
	.loc	2 0 17                          @ rt-thread/components/finsh/finsh_heap.c:0:17
	movs	r2, #0
.Ltmp87:
.LBB7_4:
	@DEBUG_VALUE: finsh_block_merge:list <- $r1
	@DEBUG_VALUE: finsh_block_merge:header <- $r0
	@DEBUG_VALUE: finsh_block_merge:next_node <- $lr
	@DEBUG_VALUE: finsh_block_merge:prev_node <- $r2
	.loc	2 250 27 is_stmt 1              @ rt-thread/components/finsh/finsh_heap.c:250:27
	cbnz	r2, .LBB7_6
	b	.LBB7_7
.Ltmp88:
.LBB7_5:
	@DEBUG_VALUE: finsh_block_merge:prev_node <- $r3
	@DEBUG_VALUE: finsh_block_merge:list <- $r1
	@DEBUG_VALUE: finsh_block_merge:header <- $r0
	@DEBUG_VALUE: finsh_block_merge:next_node <- $lr
	.loc	2 0 27 is_stmt 0                @ rt-thread/components/finsh/finsh_heap.c:0:27
	movs	r2, #0
.Ltmp89:
	@DEBUG_VALUE: finsh_block_merge:prev_node <- $r2
	.loc	2 250 27                        @ rt-thread/components/finsh/finsh_heap.c:250:27
	cbz	r2, .LBB7_7
.Ltmp90:
.LBB7_6:
	@DEBUG_VALUE: finsh_block_merge:prev_node <- $r2
	@DEBUG_VALUE: finsh_block_merge:list <- $r1
	@DEBUG_VALUE: finsh_block_merge:header <- $r0
	@DEBUG_VALUE: finsh_block_merge:next_node <- $lr
	.loc	2 251 43 is_stmt 1              @ rt-thread/components/finsh/finsh_heap.c:251:43
	ldr	r3, [r2]
	.loc	2 251 30 is_stmt 0              @ rt-thread/components/finsh/finsh_heap.c:251:30
	adds	r1, r2, r3
.Ltmp91:
	.loc	2 251 50                        @ rt-thread/components/finsh/finsh_heap.c:251:50
	adds	r1, #8
.Ltmp92:
	.loc	2 250 9 is_stmt 1               @ rt-thread/components/finsh/finsh_heap.c:250:9
	cmp	r1, r0
	beq	.LBB7_11
.Ltmp93:
.LBB7_7:
	@DEBUG_VALUE: finsh_block_merge:prev_node <- $r2
	@DEBUG_VALUE: finsh_block_merge:header <- $r0
	@DEBUG_VALUE: finsh_block_merge:next_node <- $lr
	.loc	2 272 30                        @ rt-thread/components/finsh/finsh_heap.c:272:30
	cmp.w	lr, #0
	beq	.LBB7_10
.Ltmp94:
@ %bb.8:
	@DEBUG_VALUE: finsh_block_merge:prev_node <- $r2
	@DEBUG_VALUE: finsh_block_merge:header <- $r0
	@DEBUG_VALUE: finsh_block_merge:next_node <- $lr
	.loc	2 273 37                        @ rt-thread/components/finsh/finsh_heap.c:273:37
	ldr	r2, [r0]
.Ltmp95:
	.loc	2 273 27 is_stmt 0              @ rt-thread/components/finsh/finsh_heap.c:273:27
	adds	r1, r0, r2
	.loc	2 273 44                        @ rt-thread/components/finsh/finsh_heap.c:273:44
	adds	r1, #8
.Ltmp96:
	.loc	2 272 10 is_stmt 1              @ rt-thread/components/finsh/finsh_heap.c:272:10
	cmp	r1, lr
.Ltmp97:
	.loc	2 279 1                         @ rt-thread/components/finsh/finsh_heap.c:279:1
	it	ne
	popne	{r7, pc}
.Ltmp98:
.LBB7_9:
	@DEBUG_VALUE: finsh_block_merge:header <- $r0
	@DEBUG_VALUE: finsh_block_merge:next_node <- $lr
	.loc	2 276 38                        @ rt-thread/components/finsh/finsh_heap.c:276:38
	ldr.w	r1, [lr]
	.loc	2 276 45 is_stmt 0              @ rt-thread/components/finsh/finsh_heap.c:276:45
	add	r1, r2
	.loc	2 276 24                        @ rt-thread/components/finsh/finsh_heap.c:276:24
	adds	r1, #8
	str	r1, [r0]
	.loc	2 277 35 is_stmt 1              @ rt-thread/components/finsh/finsh_heap.c:277:35
	ldr.w	r1, [lr, #4]
	.loc	2 277 22 is_stmt 0              @ rt-thread/components/finsh/finsh_heap.c:277:22
	str	r1, [r0, #4]
.Ltmp99:
.LBB7_10:
	@DEBUG_VALUE: finsh_block_merge:header <- $r0
	@DEBUG_VALUE: finsh_block_merge:next_node <- $lr
	.loc	2 279 1 is_stmt 1               @ rt-thread/components/finsh/finsh_heap.c:279:1
	pop	{r7, pc}
.Ltmp100:
.LBB7_11:
	@DEBUG_VALUE: finsh_block_merge:prev_node <- $r2
	@DEBUG_VALUE: finsh_block_merge:header <- $r0
	@DEBUG_VALUE: finsh_block_merge:next_node <- $lr
	.loc	2 255 33                        @ rt-thread/components/finsh/finsh_heap.c:255:33
	cmp.w	lr, #0
	beq	.LBB7_13
.Ltmp101:
@ %bb.12:
	@DEBUG_VALUE: finsh_block_merge:prev_node <- $r2
	@DEBUG_VALUE: finsh_block_merge:header <- $r0
	@DEBUG_VALUE: finsh_block_merge:next_node <- $lr
	.loc	2 256 41                        @ rt-thread/components/finsh/finsh_heap.c:256:41
	ldr.w	r12, [r0]
	.loc	2 256 31 is_stmt 0              @ rt-thread/components/finsh/finsh_heap.c:256:31
	add.w	r1, r0, r12
	.loc	2 256 48                        @ rt-thread/components/finsh/finsh_heap.c:256:48
	adds	r1, #8
.Ltmp102:
	.loc	2 255 13 is_stmt 1              @ rt-thread/components/finsh/finsh_heap.c:255:13
	cmp	r1, lr
	beq	.LBB7_14
.Ltmp103:
.LBB7_13:
	@DEBUG_VALUE: finsh_block_merge:prev_node <- $r2
	@DEBUG_VALUE: finsh_block_merge:header <- $r0
	@DEBUG_VALUE: finsh_block_merge:next_node <- $lr
	.loc	2 267 42                        @ rt-thread/components/finsh/finsh_heap.c:267:42
	ldr	r0, [r0]
.Ltmp104:
	@DEBUG_VALUE: finsh_block_merge:header <- [DW_OP_LLVM_entry_value 1] $r0
	.loc	2 267 49 is_stmt 0              @ rt-thread/components/finsh/finsh_heap.c:267:49
	add	r0, r3
	.loc	2 267 31                        @ rt-thread/components/finsh/finsh_heap.c:267:31
	adds	r0, #8
	strd	r0, lr, [r2]
.Ltmp105:
	.loc	2 279 1 is_stmt 1               @ rt-thread/components/finsh/finsh_heap.c:279:1
	pop	{r7, pc}
.Ltmp106:
.LBB7_14:
	@DEBUG_VALUE: finsh_block_merge:prev_node <- $r2
	@DEBUG_VALUE: finsh_block_merge:header <- $r0
	@DEBUG_VALUE: finsh_block_merge:next_node <- $lr
	.loc	2 260 49                        @ rt-thread/components/finsh/finsh_heap.c:260:49
	add.w	r0, r3, r12
.Ltmp107:
	@DEBUG_VALUE: finsh_block_merge:header <- [DW_OP_LLVM_entry_value 1] $r0
	.loc	2 260 62 is_stmt 0              @ rt-thread/components/finsh/finsh_heap.c:260:62
	ldr.w	r1, [lr]
	.loc	2 260 69                        @ rt-thread/components/finsh/finsh_heap.c:260:69
	add	r0, r1
	.loc	2 260 31                        @ rt-thread/components/finsh/finsh_heap.c:260:31
	adds	r0, #16
	str	r0, [r2]
	.loc	2 263 42 is_stmt 1              @ rt-thread/components/finsh/finsh_heap.c:263:42
	ldr.w	r0, [lr, #4]
	.loc	2 263 29 is_stmt 0              @ rt-thread/components/finsh/finsh_heap.c:263:29
	str	r0, [r2, #4]
.Ltmp108:
	.loc	2 279 1 is_stmt 1               @ rt-thread/components/finsh/finsh_heap.c:279:1
	pop	{r7, pc}
.Ltmp109:
.Lfunc_end7:
	.size	finsh_block_merge, .Lfunc_end7-finsh_block_merge
	.cfi_endproc
	.cantunwind
	.fnend
                                        @ -- End function
	.hidden	finsh_heap                      @ @finsh_heap
	.type	finsh_heap,%object
	.section	.bss.finsh_heap,"aw",%nobits
	.globl	finsh_heap
	.p2align	2
finsh_heap:
	.zero	128
	.size	finsh_heap, 128

	.type	free_list,%object               @ @free_list
	.section	.bss.free_list,"aw",%nobits
	.p2align	2
free_list:
	.long	0
	.size	free_list, 4

	.type	allocate_list,%object           @ @allocate_list
	.section	.bss.allocate_list,"aw",%nobits
	.p2align	2
allocate_list:
	.long	0
	.size	allocate_list, 4

	.file	4 "D:\\Keil_v5\\ARM\\ARMCLANG\\Bin\\..\\include" "time.h"
	.section	".note.GNU-stack","",%progbits
	.eabi_attribute	30, 1	@ Tag_ABI_optimization_goals
	.ARM_attribute	16, 1	@ Tag_AV_eba