	.text
	.syntax unified
	.eabi_attribute	67, "2.09"	@ Tag_conformance
	.cpu	cortex-m7
	.eabi_attribute	6, 13	@ Tag_CPU_arch
	.eabi_attribute	7, 77	@ Tag_CPU_arch_profile
	.eabi_attribute	8, 0	@ Tag_ARM_ISA_use
	.eabi_attribute	9, 2	@ Tag_THUMB_ISA_use
	.fpu	fpv5-d16
	.eabi_attribute	36, 1	@ Tag_FP_HP_extension
	.eabi_attribute	34, 1	@ Tag_CPU_unaligned_access
	.eabi_attribute	17, 1	@ Tag_ABI_PCS_GOT_use
	.eabi_attribute	20, 2	@ Tag_ABI_FP_denormal
	.eabi_attribute	21, 0	@ Tag_ABI_FP_exceptions
	.eabi_attribute	23, 1	@ Tag_ABI_FP_number_model
	.eabi_attribute	24, 1	@ Tag_ABI_align_needed
	.eabi_attribute	25, 1	@ Tag_ABI_align_preserved
	.eabi_attribute	28, 1	@ Tag_ABI_VFP_args
	.eabi_attribute	38, 1	@ Tag_ABI_FP_16bit_format
	.eabi_attribute	18, 2	@ Tag_ABI_PCS_wchar_t
	.eabi_attribute	26, 1	@ Tag_ABI_enum_size
	.eabi_attribute	14, 0	@ Tag_ABI_PCS_R9_use
	.file	"finsh_vm.c"
	.file	1 "E:\\Smart-access-control\\Hardware\\CODE" "rt-thread/components/finsh\\finsh.h"
	.file	2 "E:\\Smart-access-control\\Hardware\\CODE" "rt-thread/components/finsh/finsh_api.h"
	.file	3 "E:\\Smart-access-control\\Hardware\\CODE" "rt-thread/components/finsh/finsh_vm.c"
	.file	4 "E:\\Smart-access-control\\Hardware\\CODE" "rt-thread/components/finsh/finsh_vm.h"
	.file	5 "D:\\Keil_v5\\ARM\\ARMCLANG\\Bin\\..\\include" "stdint.h"
	.section	.text.finsh_vm_run,"ax",%progbits
	.hidden	finsh_vm_run                    @ -- Begin function finsh_vm_run
	.globl	finsh_vm_run
	.p2align	3
	.type	finsh_vm_run,%function
	.code	16                              @ @finsh_vm_run
	.thumb_func
finsh_vm_run:
.Lfunc_begin0:
	.loc	3 29 0                          @ rt-thread/components/finsh/finsh_vm.c:29:0
	.fnstart
	.cfi_sections .debug_frame
	.cfi_startproc
@ %bb.0:
	.save	{r7, lr}
	push	{r7, lr}
	.cfi_def_cfa_offset 8
	.cfi_offset lr, -4
	.cfi_offset r7, -8
	.pad	#8
	sub	sp, #8
	.cfi_def_cfa_offset 16
.Ltmp0:
	.loc	3 39 14 prologue_end            @ rt-thread/components/finsh/finsh_vm.c:39:14
	movw	r1, :lower16:finsh_sp
	movt	r1, :upper16:finsh_sp
	movw	r0, :lower16:finsh_vm_stack
	movt	r0, :upper16:finsh_vm_stack
	str	r0, [r1]
	.loc	3 42 14                         @ rt-thread/components/finsh/finsh_vm.c:42:14
	movw	r1, :lower16:finsh_pc
	movt	r1, :upper16:finsh_pc
	movw	r0, :lower16:text_segment
	movt	r0, :upper16:text_segment
	str	r0, [r1]
	.loc	3 44 5                          @ rt-thread/components/finsh/finsh_vm.c:44:5
	b	.LBB0_1
.LBB0_1:                                @ =>This Inner Loop Header: Depth=1
	.loc	3 44 13 is_stmt 0               @ rt-thread/components/finsh/finsh_vm.c:44:13
	movw	r0, :lower16:finsh_pc
	movt	r0, :upper16:finsh_pc
	ldr	r0, [r0]
	.loc	3 44 22                         @ rt-thread/components/finsh/finsh_vm.c:44:22
	movw	r1, :lower16:text_segment
	movt	r1, :upper16:text_segment
	subs	r1, r0, r1
	movs	r0, #0
	.loc	3 44 47                         @ rt-thread/components/finsh/finsh_vm.c:44:47
	cmp	r1, #0
	str	r0, [sp]                        @ 4-byte Spill
	bmi	.LBB0_3
	b	.LBB0_2
.LBB0_2:                                @   in Loop: Header=BB0_1 Depth=1
	.loc	3 45 10 is_stmt 1               @ rt-thread/components/finsh/finsh_vm.c:45:10
	movw	r0, :lower16:finsh_pc
	movt	r0, :upper16:finsh_pc
	ldr	r0, [r0]
	.loc	3 45 19 is_stmt 0               @ rt-thread/components/finsh/finsh_vm.c:45:19
	movw	r1, :lower16:text_segment
	movt	r1, :upper16:text_segment
	subs	r1, r0, r1
	movs	r0, #0
	.loc	3 45 38                         @ rt-thread/components/finsh/finsh_vm.c:45:38
	cmp	r1, #128
	it	lt
	movlt	r0, #1
	str	r0, [sp]                        @ 4-byte Spill
	b	.LBB0_3
.LBB0_3:                                @   in Loop: Header=BB0_1 Depth=1
	.loc	3 0 0                           @ rt-thread/components/finsh/finsh_vm.c:0:0
	ldr	r0, [sp]                        @ 4-byte Reload
	.loc	3 44 5 is_stmt 1                @ rt-thread/components/finsh/finsh_vm.c:44:5
	lsls	r0, r0, #31
	cbz	r0, .LBB0_5
	b	.LBB0_4
.LBB0_4:                                @   in Loop: Header=BB0_1 Depth=1
.Ltmp1:
	.loc	3 48 23                         @ rt-thread/components/finsh/finsh_vm.c:48:23
	movw	r2, :lower16:finsh_pc
	movt	r2, :upper16:finsh_pc
	ldr	r0, [r2]
	adds	r1, r0, #1
	str	r1, [r2]
	.loc	3 48 14 is_stmt 0               @ rt-thread/components/finsh/finsh_vm.c:48:14
	ldrb	r0, [r0]
	.loc	3 48 12                         @ rt-thread/components/finsh/finsh_vm.c:48:12
	strb.w	r0, [sp, #7]
	.loc	3 51 18 is_stmt 1               @ rt-thread/components/finsh/finsh_vm.c:51:18
	ldrb.w	r1, [sp, #7]
	.loc	3 51 9 is_stmt 0                @ rt-thread/components/finsh/finsh_vm.c:51:9
	movw	r0, :lower16:op_table
	movt	r0, :upper16:op_table
	ldr.w	r0, [r0, r1, lsl #2]
	blx	r0
.Ltmp2:
	.loc	3 44 5 is_stmt 1                @ rt-thread/components/finsh/finsh_vm.c:44:5
	b	.LBB0_1
.LBB0_5:
	.loc	3 53 1                          @ rt-thread/components/finsh/finsh_vm.c:53:1
	add	sp, #8
	pop	{r7, pc}
.Ltmp3:
.Lfunc_end0:
	.size	finsh_vm_run, .Lfunc_end0-finsh_vm_run
	.cfi_endproc
	.cantunwind
	.fnend
                                        @ -- End function
	.section	.text.finsh_syscall_append,"ax",%progbits
	.hidden	finsh_syscall_append            @ -- Begin function finsh_syscall_append
	.globl	finsh_syscall_append
	.p2align	3
	.type	finsh_syscall_append,%function
	.code	16                              @ @finsh_syscall_append
	.thumb_func
finsh_syscall_append:
.Lfunc_begin1:
	.loc	3 57 0                          @ rt-thread/components/finsh/finsh_vm.c:57:0
	.fnstart
	.cfi_startproc
@ %bb.0:
	.save	{r7, lr}
	push	{r7, lr}
	.cfi_def_cfa_offset 8
	.cfi_offset lr, -4
	.cfi_offset r7, -8
	.pad	#16
	sub	sp, #16
	.cfi_def_cfa_offset 24
	str	r0, [sp, #12]
	str	r1, [sp, #8]
	movs	r0, #16
.Ltmp4:
	.loc	3 61 40 prologue_end            @ rt-thread/components/finsh/finsh_vm.c:61:40
	bl	rt_malloc
	.loc	3 61 10 is_stmt 0               @ rt-thread/components/finsh/finsh_vm.c:61:10
	str	r0, [sp, #4]
.Ltmp5:
	.loc	3 62 9 is_stmt 1                @ rt-thread/components/finsh/finsh_vm.c:62:9
	ldr	r0, [sp, #4]
.Ltmp6:
	.loc	3 62 9 is_stmt 0                @ rt-thread/components/finsh/finsh_vm.c:62:9
	cbz	r0, .LBB1_5
	b	.LBB1_1
.LBB1_1:
.Ltmp7:
	.loc	3 64 9 is_stmt 1                @ rt-thread/components/finsh/finsh_vm.c:64:9
	ldr	r1, [sp, #4]
	movs	r0, #0
	.loc	3 64 20 is_stmt 0               @ rt-thread/components/finsh/finsh_vm.c:64:20
	str	r0, [r1]
	.loc	3 65 40 is_stmt 1               @ rt-thread/components/finsh/finsh_vm.c:65:40
	ldr	r0, [sp, #12]
	.loc	3 65 30 is_stmt 0               @ rt-thread/components/finsh/finsh_vm.c:65:30
	bl	rt_strdup
	.loc	3 65 9                          @ rt-thread/components/finsh/finsh_vm.c:65:9
	ldr	r1, [sp, #4]
	.loc	3 65 28                         @ rt-thread/components/finsh/finsh_vm.c:65:28
	str	r0, [r1, #4]
	.loc	3 66 30 is_stmt 1               @ rt-thread/components/finsh/finsh_vm.c:66:30
	ldr	r0, [sp, #8]
	.loc	3 66 9 is_stmt 0                @ rt-thread/components/finsh/finsh_vm.c:66:9
	ldr	r1, [sp, #4]
	.loc	3 66 28                         @ rt-thread/components/finsh/finsh_vm.c:66:28
	str	r0, [r1, #12]
.Ltmp8:
	.loc	3 68 13 is_stmt 1               @ rt-thread/components/finsh/finsh_vm.c:68:13
	movw	r0, :lower16:global_syscall_list
	movt	r0, :upper16:global_syscall_list
	ldr	r0, [r0]
.Ltmp9:
	.loc	3 68 13 is_stmt 0               @ rt-thread/components/finsh/finsh_vm.c:68:13
	cbnz	r0, .LBB1_3
	b	.LBB1_2
.LBB1_2:
.Ltmp10:
	.loc	3 70 35 is_stmt 1               @ rt-thread/components/finsh/finsh_vm.c:70:35
	ldr	r0, [sp, #4]
	.loc	3 70 33 is_stmt 0               @ rt-thread/components/finsh/finsh_vm.c:70:33
	movw	r1, :lower16:global_syscall_list
	movt	r1, :upper16:global_syscall_list
	str	r0, [r1]
	.loc	3 71 9 is_stmt 1                @ rt-thread/components/finsh/finsh_vm.c:71:9
	b	.LBB1_4
.Ltmp11:
.LBB1_3:
	.loc	3 74 26                         @ rt-thread/components/finsh/finsh_vm.c:74:26
	movw	r1, :lower16:global_syscall_list
	movt	r1, :upper16:global_syscall_list
	ldr	r0, [r1]
	.loc	3 74 13 is_stmt 0               @ rt-thread/components/finsh/finsh_vm.c:74:13
	ldr	r2, [sp, #4]
	.loc	3 74 24                         @ rt-thread/components/finsh/finsh_vm.c:74:24
	str	r0, [r2]
	.loc	3 75 35 is_stmt 1               @ rt-thread/components/finsh/finsh_vm.c:75:35
	ldr	r0, [sp, #4]
	.loc	3 75 33 is_stmt 0               @ rt-thread/components/finsh/finsh_vm.c:75:33
	str	r0, [r1]
	b	.LBB1_4
.Ltmp12:
.LBB1_4:
	.loc	3 77 5 is_stmt 1                @ rt-thread/components/finsh/finsh_vm.c:77:5
	b	.LBB1_5
.Ltmp13:
.LBB1_5:
	.loc	3 78 1                          @ rt-thread/components/finsh/finsh_vm.c:78:1
	add	sp, #16
	pop	{r7, pc}
.Ltmp14:
.Lfunc_end1:
	.size	finsh_syscall_append, .Lfunc_end1-finsh_syscall_append
	.cfi_endproc
	.cantunwind
	.fnend
                                        @ -- End function
	.section	.text.finsh_syscall_lookup,"ax",%progbits
	.hidden	finsh_syscall_lookup            @ -- Begin function finsh_syscall_lookup
	.globl	finsh_syscall_lookup
	.p2align	3
	.type	finsh_syscall_lookup,%function
	.code	16                              @ @finsh_syscall_lookup
	.thumb_func
finsh_syscall_lookup:
.Lfunc_begin2:
	.loc	3 82 0                          @ rt-thread/components/finsh/finsh_vm.c:82:0
	.fnstart
	.cfi_startproc
@ %bb.0:
	.save	{r7, lr}
	push	{r7, lr}
	.cfi_def_cfa_offset 8
	.cfi_offset lr, -4
	.cfi_offset r7, -8
	.pad	#24
	sub	sp, #24
	.cfi_def_cfa_offset 32
	str	r0, [sp, #16]
.Ltmp15:
	.loc	3 86 18 prologue_end            @ rt-thread/components/finsh/finsh_vm.c:86:18
	movw	r0, :lower16:_syscall_table_begin
	movt	r0, :upper16:_syscall_table_begin
	ldr	r0, [r0]
	.loc	3 86 16 is_stmt 0               @ rt-thread/components/finsh/finsh_vm.c:86:16
	str	r0, [sp, #12]
	.loc	3 86 10                         @ rt-thread/components/finsh/finsh_vm.c:86:10
	b	.LBB2_1
.LBB2_1:                                @ =>This Inner Loop Header: Depth=1
.Ltmp16:
	.loc	3 86 40                         @ rt-thread/components/finsh/finsh_vm.c:86:40
	ldr	r0, [sp, #12]
	.loc	3 86 48                         @ rt-thread/components/finsh/finsh_vm.c:86:48
	movw	r1, :lower16:_syscall_table_end
	movt	r1, :upper16:_syscall_table_end
	ldr	r1, [r1]
.Ltmp17:
	.loc	3 86 5                          @ rt-thread/components/finsh/finsh_vm.c:86:5
	cmp	r0, r1
	bhs	.LBB2_6
	b	.LBB2_2
.LBB2_2:                                @   in Loop: Header=BB2_1 Depth=1
.Ltmp18:
	.loc	3 88 20 is_stmt 1               @ rt-thread/components/finsh/finsh_vm.c:88:20
	ldr	r0, [sp, #12]
	.loc	3 88 27 is_stmt 0               @ rt-thread/components/finsh/finsh_vm.c:88:27
	ldr	r0, [r0]
	.loc	3 88 33                         @ rt-thread/components/finsh/finsh_vm.c:88:33
	ldr	r1, [sp, #16]
	.loc	3 88 13                         @ rt-thread/components/finsh/finsh_vm.c:88:13
	bl	strcmp
.Ltmp19:
	.loc	3 88 13                         @ rt-thread/components/finsh/finsh_vm.c:88:13
	cbnz	r0, .LBB2_4
	b	.LBB2_3
.LBB2_3:
.Ltmp20:
	.loc	3 89 20 is_stmt 1               @ rt-thread/components/finsh/finsh_vm.c:89:20
	ldr	r0, [sp, #12]
	.loc	3 89 13 is_stmt 0               @ rt-thread/components/finsh/finsh_vm.c:89:13
	str	r0, [sp, #20]
	b	.LBB2_12
.Ltmp21:
.LBB2_4:                                @   in Loop: Header=BB2_1 Depth=1
	.loc	3 90 5 is_stmt 1                @ rt-thread/components/finsh/finsh_vm.c:90:5
	b	.LBB2_5
.Ltmp22:
.LBB2_5:                                @   in Loop: Header=BB2_1 Depth=1
	.loc	3 86 68                         @ rt-thread/components/finsh/finsh_vm.c:86:68
	ldr	r0, [sp, #12]
	adds	r0, #12
	str	r0, [sp, #12]
	.loc	3 86 5 is_stmt 0                @ rt-thread/components/finsh/finsh_vm.c:86:5
	b	.LBB2_1
.Ltmp23:
.LBB2_6:
	.loc	3 93 12 is_stmt 1               @ rt-thread/components/finsh/finsh_vm.c:93:12
	movw	r0, :lower16:global_syscall_list
	movt	r0, :upper16:global_syscall_list
	ldr	r0, [r0]
	.loc	3 93 10 is_stmt 0               @ rt-thread/components/finsh/finsh_vm.c:93:10
	str	r0, [sp, #8]
	.loc	3 94 5 is_stmt 1                @ rt-thread/components/finsh/finsh_vm.c:94:5
	b	.LBB2_7
.LBB2_7:                                @ =>This Inner Loop Header: Depth=1
	.loc	3 94 12 is_stmt 0               @ rt-thread/components/finsh/finsh_vm.c:94:12
	ldr	r0, [sp, #8]
	.loc	3 94 5                          @ rt-thread/components/finsh/finsh_vm.c:94:5
	cbz	r0, .LBB2_11
	b	.LBB2_8
.LBB2_8:                                @   in Loop: Header=BB2_7 Depth=1
.Ltmp24:
	.loc	3 96 21 is_stmt 1               @ rt-thread/components/finsh/finsh_vm.c:96:21
	ldr	r0, [sp, #8]
	.loc	3 96 35 is_stmt 0               @ rt-thread/components/finsh/finsh_vm.c:96:35
	ldr	r0, [r0, #4]
	.loc	3 96 41                         @ rt-thread/components/finsh/finsh_vm.c:96:41
	str	r0, [sp, #4]                    @ 4-byte Spill
	ldr	r0, [sp, #16]
	.loc	3 96 47                         @ rt-thread/components/finsh/finsh_vm.c:96:47
	str	r0, [sp]                        @ 4-byte Spill
	bl	strlen
	ldr	r1, [sp]                        @ 4-byte Reload
	mov	r2, r0
	.loc	3 96 13                         @ rt-thread/components/finsh/finsh_vm.c:96:13
	ldr	r0, [sp, #4]                    @ 4-byte Reload
	bl	strncmp
.Ltmp25:
	.loc	3 96 13                         @ rt-thread/components/finsh/finsh_vm.c:96:13
	cbnz	r0, .LBB2_10
	b	.LBB2_9
.LBB2_9:
.Ltmp26:
	.loc	3 98 22 is_stmt 1               @ rt-thread/components/finsh/finsh_vm.c:98:22
	ldr	r0, [sp, #8]
	.loc	3 98 28 is_stmt 0               @ rt-thread/components/finsh/finsh_vm.c:98:28
	adds	r0, #4
	.loc	3 98 13                         @ rt-thread/components/finsh/finsh_vm.c:98:13
	str	r0, [sp, #20]
	b	.LBB2_12
.Ltmp27:
.LBB2_10:                               @   in Loop: Header=BB2_7 Depth=1
	.loc	3 101 16 is_stmt 1              @ rt-thread/components/finsh/finsh_vm.c:101:16
	ldr	r0, [sp, #8]
	.loc	3 101 22 is_stmt 0              @ rt-thread/components/finsh/finsh_vm.c:101:22
	ldr	r0, [r0]
	.loc	3 101 14                        @ rt-thread/components/finsh/finsh_vm.c:101:14
	str	r0, [sp, #8]
.Ltmp28:
	.loc	3 94 5 is_stmt 1                @ rt-thread/components/finsh/finsh_vm.c:94:5
	b	.LBB2_7
.LBB2_11:
	.loc	3 0 5 is_stmt 0                 @ rt-thread/components/finsh/finsh_vm.c:0:5
	movs	r0, #0
	.loc	3 104 5 is_stmt 1               @ rt-thread/components/finsh/finsh_vm.c:104:5
	str	r0, [sp, #20]
	b	.LBB2_12
.LBB2_12:
	.loc	3 105 1                         @ rt-thread/components/finsh/finsh_vm.c:105:1
	ldr	r0, [sp, #20]
	add	sp, #24
	pop	{r7, pc}
.Ltmp29:
.Lfunc_end2:
	.size	finsh_syscall_lookup, .Lfunc_end2-finsh_syscall_lookup
	.cfi_endproc
	.cantunwind
	.fnend
                                        @ -- End function
	.hidden	global_syscall_list             @ @global_syscall_list
	.type	global_syscall_list,%object
	.section	.bss.global_syscall_list,"aw",%nobits
	.globl	global_syscall_list
	.p2align	2
global_syscall_list:
	.long	0
	.size	global_syscall_list, 4

	.hidden	finsh_vm_stack                  @ @finsh_vm_stack
	.type	finsh_vm_stack,%object
	.section	.bss.finsh_vm_stack,"aw",%nobits
	.globl	finsh_vm_stack
	.p2align	2
finsh_vm_stack:
	.zero	256
	.size	finsh_vm_stack, 256

	.hidden	finsh_sp                        @ @finsh_sp
	.type	finsh_sp,%object
	.section	.bss.finsh_sp,"aw",%nobits
	.globl	finsh_sp
	.p2align	2
finsh_sp:
	.long	0
	.size	finsh_sp, 4

	.hidden	text_segment                    @ @text_segment
	.type	text_segment,%object
	.section	.bss.text_segment,"aw",%nobits
	.globl	text_segment
text_segment:
	.zero	128
	.size	text_segment, 128

	.hidden	finsh_pc                        @ @finsh_pc
	.type	finsh_pc,%object
	.section	.bss.finsh_pc,"aw",%nobits
	.globl	finsh_pc
	.p2align	2
finsh_pc:
	.long	0
	.size	finsh_pc, 4

	.section	".note.GNU-stack","",%progbits
	.eabi_attribute	30, 6	@ Tag_ABI_optimization_goals
	.ARM_attribute	16, 1	@ Tag_AV_eba