	.text
	.syntax unified
	.eabi_attribute	67, "2.09"	@ Tag_conformance
	.cpu	cortex-m7
	.eabi_attribute	6, 13	@ Tag_CPU_arch
	.eabi_attribute	7, 77	@ Tag_CPU_arch_profile
	.eabi_attribute	8, 0	@ Tag_ARM_ISA_use
	.eabi_attribute	9, 2	@ Tag_THUMB_ISA_use
	.fpu	fpv5-d16
	.eabi_attribute	36, 1	@ Tag_FP_HP_extension
	.eabi_attribute	34, 1	@ Tag_CPU_unaligned_access
	.eabi_attribute	17, 1	@ Tag_ABI_PCS_GOT_use
	.eabi_attribute	20, 2	@ Tag_ABI_FP_denormal
	.eabi_attribute	21, 0	@ Tag_ABI_FP_exceptions
	.eabi_attribute	23, 1	@ Tag_ABI_FP_number_model
	.eabi_attribute	24, 1	@ Tag_ABI_align_needed
	.eabi_attribute	25, 1	@ Tag_ABI_align_preserved
	.eabi_attribute	28, 1	@ Tag_ABI_VFP_args
	.eabi_attribute	38, 1	@ Tag_ABI_FP_16bit_format
	.eabi_attribute	18, 2	@ Tag_ABI_PCS_wchar_t
	.eabi_attribute	26, 1	@ Tag_ABI_enum_size
	.eabi_attribute	14, 0	@ Tag_ABI_PCS_R9_use
	.file	"finsh_parser.c"
	.file	1 "E:\\Smart-access-control\\Hardware\\CODE" "rt-thread/components/finsh/finsh_token.h"
	.file	2 "E:\\Smart-access-control\\Hardware\\CODE" "rt-thread/components/finsh\\finsh.h"
	.file	3 "D:\\Keil_v5\\ARM\\ARMCLANG\\Bin\\..\\include" "stdint.h"
	.section	.text.finsh_parser_run,"ax",%progbits
	.hidden	finsh_parser_run                @ -- Begin function finsh_parser_run
	.globl	finsh_parser_run
	.p2align	3
	.type	finsh_parser_run,%function
	.code	16                              @ @finsh_parser_run
	.thumb_func
finsh_parser_run:
.Lfunc_begin0:
	.file	4 "E:\\Smart-access-control\\Hardware\\CODE" "rt-thread/components/finsh/finsh_parser.c"
	.loc	4 898 0                         @ rt-thread/components/finsh/finsh_parser.c:898:0
	.fnstart
	.cfi_sections .debug_frame
	.cfi_startproc
@ %bb.0:
	.save	{r7, lr}
	push	{r7, lr}
	.cfi_def_cfa_offset 8
	.cfi_offset lr, -4
	.cfi_offset r7, -8
	.pad	#24
	sub	sp, #24
	.cfi_def_cfa_offset 32
	str	r0, [sp, #20]
	str	r1, [sp, #16]
	movs	r0, #0
.Ltmp0:
	.loc	4 902 10 prologue_end           @ rt-thread/components/finsh/finsh_parser.c:902:10
	str	r0, [sp, #8]
	.loc	4 905 37                        @ rt-thread/components/finsh/finsh_parser.c:905:37
	ldr	r0, [sp, #16]
	.loc	4 905 5 is_stmt 0               @ rt-thread/components/finsh/finsh_parser.c:905:5
	ldr	r1, [sp, #20]
	.loc	4 905 25                        @ rt-thread/components/finsh/finsh_parser.c:905:25
	str	r0, [r1]
	.loc	4 908 24 is_stmt 1              @ rt-thread/components/finsh/finsh_parser.c:908:24
	ldr	r0, [sp, #20]
	.loc	4 908 44 is_stmt 0              @ rt-thread/components/finsh/finsh_parser.c:908:44
	ldr	r1, [r0], #4
	.loc	4 908 5                         @ rt-thread/components/finsh/finsh_parser.c:908:5
	bl	finsh_token_init
	.loc	4 911 5 is_stmt 1               @ rt-thread/components/finsh/finsh_parser.c:911:5
	ldr	r0, [sp, #20]
	adds	r0, #4
	bl	finsh_token_token
	strb.w	r0, [sp, #15]
	.loc	4 912 5                         @ rt-thread/components/finsh/finsh_parser.c:912:5
	b	.LBB0_1
.LBB0_1:                                @ =>This Inner Loop Header: Depth=1
	.loc	4 912 12 is_stmt 0              @ rt-thread/components/finsh/finsh_parser.c:912:12
	ldrb.w	r1, [sp, #15]
	movs	r0, #0
	.loc	4 912 42                        @ rt-thread/components/finsh/finsh_parser.c:912:42
	cmp	r1, #33
	str	r0, [sp, #4]                    @ 4-byte Spill
	beq	.LBB0_3
	b	.LBB0_2
.LBB0_2:                                @   in Loop: Header=BB0_1 Depth=1
	.loc	4 912 45                        @ rt-thread/components/finsh/finsh_parser.c:912:45
	ldrb.w	r0, [sp, #15]
	.loc	4 912 51                        @ rt-thread/components/finsh/finsh_parser.c:912:51
	subs	r0, #32
	it	ne
	movne	r0, #1
	str	r0, [sp, #4]                    @ 4-byte Spill
	b	.LBB0_3
.LBB0_3:                                @   in Loop: Header=BB0_1 Depth=1
	.loc	4 0 0                           @ rt-thread/components/finsh/finsh_parser.c:0:0
	ldr	r0, [sp, #4]                    @ 4-byte Reload
	.loc	4 912 5                         @ rt-thread/components/finsh/finsh_parser.c:912:5
	lsls	r0, r0, #31
	cmp	r0, #0
	beq.w	.LBB0_34
	b	.LBB0_4
.LBB0_4:                                @   in Loop: Header=BB0_1 Depth=1
.Ltmp1:
	.loc	4 914 17 is_stmt 1              @ rt-thread/components/finsh/finsh_parser.c:914:17
	ldrb.w	r0, [sp, #15]
	.loc	4 914 9 is_stmt 0               @ rt-thread/components/finsh/finsh_parser.c:914:9
	cmp	r0, #31
	bne	.LBB0_11
	b	.LBB0_5
.LBB0_5:                                @   in Loop: Header=BB0_1 Depth=1
.Ltmp2:
	.loc	4 918 13 is_stmt 1              @ rt-thread/components/finsh/finsh_parser.c:918:13
	ldr	r1, [sp, #20]
	movs	r0, #1
	strb	r0, [r1, #5]
.Ltmp3:
	.loc	4 920 17                        @ rt-thread/components/finsh/finsh_parser.c:920:17
	ldr	r0, [sp, #20]
	.loc	4 920 23 is_stmt 0              @ rt-thread/components/finsh/finsh_parser.c:920:23
	ldr.w	r0, [r0, #152]
.Ltmp4:
	.loc	4 920 17                        @ rt-thread/components/finsh/finsh_parser.c:920:17
	cbz	r0, .LBB0_9
	b	.LBB0_6
.LBB0_6:                                @   in Loop: Header=BB0_1 Depth=1
.Ltmp5:
	.loc	4 922 64 is_stmt 1              @ rt-thread/components/finsh/finsh_parser.c:922:64
	ldr	r0, [sp, #20]
	.loc	4 922 44 is_stmt 0              @ rt-thread/components/finsh/finsh_parser.c:922:44
	bl	proc_expr_statement
	.loc	4 922 17                        @ rt-thread/components/finsh/finsh_parser.c:922:17
	ldr	r1, [sp, #8]
	.loc	4 922 42                        @ rt-thread/components/finsh/finsh_parser.c:922:42
	str	r0, [r1, #12]
.Ltmp6:
	.loc	4 923 21 is_stmt 1              @ rt-thread/components/finsh/finsh_parser.c:923:21
	ldr	r0, [sp, #8]
	ldr	r0, [r0, #12]
.Ltmp7:
	.loc	4 923 21 is_stmt 0              @ rt-thread/components/finsh/finsh_parser.c:923:21
	cbz	r0, .LBB0_8
	b	.LBB0_7
.LBB0_7:                                @   in Loop: Header=BB0_1 Depth=1
.Ltmp8:
	.loc	4 924 28 is_stmt 1              @ rt-thread/components/finsh/finsh_parser.c:924:28
	ldr	r0, [sp, #8]
	ldr	r0, [r0, #12]
	.loc	4 924 26 is_stmt 0              @ rt-thread/components/finsh/finsh_parser.c:924:26
	str	r0, [sp, #8]
	.loc	4 924 21                        @ rt-thread/components/finsh/finsh_parser.c:924:21
	b	.LBB0_8
.Ltmp9:
.LBB0_8:                                @   in Loop: Header=BB0_1 Depth=1
	.loc	4 925 13 is_stmt 1              @ rt-thread/components/finsh/finsh_parser.c:925:13
	b	.LBB0_10
.Ltmp10:
.LBB0_9:                                @   in Loop: Header=BB0_1 Depth=1
	.loc	4 928 44                        @ rt-thread/components/finsh/finsh_parser.c:928:44
	ldr	r0, [sp, #20]
	.loc	4 928 24 is_stmt 0              @ rt-thread/components/finsh/finsh_parser.c:928:24
	bl	proc_expr_statement
	.loc	4 928 22                        @ rt-thread/components/finsh/finsh_parser.c:928:22
	str	r0, [sp, #8]
	.loc	4 929 30 is_stmt 1              @ rt-thread/components/finsh/finsh_parser.c:929:30
	ldr	r0, [sp, #8]
	.loc	4 929 17 is_stmt 0              @ rt-thread/components/finsh/finsh_parser.c:929:17
	ldr	r1, [sp, #20]
	.loc	4 929 28                        @ rt-thread/components/finsh/finsh_parser.c:929:28
	str.w	r0, [r1, #152]
	b	.LBB0_10
.Ltmp11:
.LBB0_10:                               @   in Loop: Header=BB0_1 Depth=1
	.loc	4 931 13 is_stmt 1              @ rt-thread/components/finsh/finsh_parser.c:931:13
	b	.LBB0_31
.LBB0_11:                               @   in Loop: Header=BB0_1 Depth=1
.Ltmp12:
	.loc	4 934 17                        @ rt-thread/components/finsh/finsh_parser.c:934:17
	ldrb.w	r0, [sp, #15]
	cmp	r0, #20
	beq	.LBB0_17
	b	.LBB0_12
.LBB0_12:                               @   in Loop: Header=BB0_1 Depth=1
	ldrb.w	r0, [sp, #15]
	cmp	r0, #21
	beq	.LBB0_17
	b	.LBB0_13
.LBB0_13:                               @   in Loop: Header=BB0_1 Depth=1
	ldrb.w	r0, [sp, #15]
	cmp	r0, #22
	beq	.LBB0_17
	b	.LBB0_14
.LBB0_14:                               @   in Loop: Header=BB0_1 Depth=1
	ldrb.w	r0, [sp, #15]
	cmp	r0, #23
	beq	.LBB0_17
	b	.LBB0_15
.LBB0_15:                               @   in Loop: Header=BB0_1 Depth=1
	ldrb.w	r0, [sp, #15]
	.loc	4 934 37 is_stmt 0              @ rt-thread/components/finsh/finsh_parser.c:934:37
	cmp	r0, #24
	beq	.LBB0_17
	b	.LBB0_16
.LBB0_16:                               @   in Loop: Header=BB0_1 Depth=1
	.loc	4 934 40                        @ rt-thread/components/finsh/finsh_parser.c:934:40
	ldrb.w	r0, [sp, #15]
.Ltmp13:
	.loc	4 934 17                        @ rt-thread/components/finsh/finsh_parser.c:934:17
	cmp	r0, #25
	bne	.LBB0_23
	b	.LBB0_17
.LBB0_17:                               @   in Loop: Header=BB0_1 Depth=1
.Ltmp14:
	.loc	4 937 17 is_stmt 1              @ rt-thread/components/finsh/finsh_parser.c:937:17
	ldr	r1, [sp, #20]
	movs	r0, #1
	strb	r0, [r1, #5]
.Ltmp15:
	.loc	4 939 21                        @ rt-thread/components/finsh/finsh_parser.c:939:21
	ldr	r0, [sp, #20]
	.loc	4 939 27 is_stmt 0              @ rt-thread/components/finsh/finsh_parser.c:939:27
	ldr.w	r0, [r0, #152]
.Ltmp16:
	.loc	4 939 21                        @ rt-thread/components/finsh/finsh_parser.c:939:21
	cbz	r0, .LBB0_21
	b	.LBB0_18
.LBB0_18:                               @   in Loop: Header=BB0_1 Depth=1
.Ltmp17:
	.loc	4 941 67 is_stmt 1              @ rt-thread/components/finsh/finsh_parser.c:941:67
	ldr	r0, [sp, #20]
	.loc	4 941 48 is_stmt 0              @ rt-thread/components/finsh/finsh_parser.c:941:48
	bl	proc_variable_decl
	.loc	4 941 21                        @ rt-thread/components/finsh/finsh_parser.c:941:21
	ldr	r1, [sp, #8]
	.loc	4 941 46                        @ rt-thread/components/finsh/finsh_parser.c:941:46
	str	r0, [r1, #12]
.Ltmp18:
	.loc	4 942 25 is_stmt 1              @ rt-thread/components/finsh/finsh_parser.c:942:25
	ldr	r0, [sp, #8]
	ldr	r0, [r0, #12]
.Ltmp19:
	.loc	4 942 25 is_stmt 0              @ rt-thread/components/finsh/finsh_parser.c:942:25
	cbz	r0, .LBB0_20
	b	.LBB0_19
.LBB0_19:                               @   in Loop: Header=BB0_1 Depth=1
.Ltmp20:
	.loc	4 943 32 is_stmt 1              @ rt-thread/components/finsh/finsh_parser.c:943:32
	ldr	r0, [sp, #8]
	ldr	r0, [r0, #12]
	.loc	4 943 30 is_stmt 0              @ rt-thread/components/finsh/finsh_parser.c:943:30
	str	r0, [sp, #8]
	.loc	4 943 25                        @ rt-thread/components/finsh/finsh_parser.c:943:25
	b	.LBB0_20
.Ltmp21:
.LBB0_20:                               @   in Loop: Header=BB0_1 Depth=1
	.loc	4 944 17 is_stmt 1              @ rt-thread/components/finsh/finsh_parser.c:944:17
	b	.LBB0_22
.Ltmp22:
.LBB0_21:                               @   in Loop: Header=BB0_1 Depth=1
	.loc	4 947 47                        @ rt-thread/components/finsh/finsh_parser.c:947:47
	ldr	r0, [sp, #20]
	.loc	4 947 28 is_stmt 0              @ rt-thread/components/finsh/finsh_parser.c:947:28
	bl	proc_variable_decl
	.loc	4 947 26                        @ rt-thread/components/finsh/finsh_parser.c:947:26
	str	r0, [sp, #8]
	.loc	4 948 34 is_stmt 1              @ rt-thread/components/finsh/finsh_parser.c:948:34
	ldr	r0, [sp, #8]
	.loc	4 948 21 is_stmt 0              @ rt-thread/components/finsh/finsh_parser.c:948:21
	ldr	r1, [sp, #20]
	.loc	4 948 32                        @ rt-thread/components/finsh/finsh_parser.c:948:32
	str.w	r0, [r1, #152]
	b	.LBB0_22
.Ltmp23:
.LBB0_22:                               @   in Loop: Header=BB0_1 Depth=1
	.loc	4 950 13 is_stmt 1              @ rt-thread/components/finsh/finsh_parser.c:950:13
	b	.LBB0_30
.Ltmp24:
.LBB0_23:                               @   in Loop: Header=BB0_1 Depth=1
	.loc	4 954 17                        @ rt-thread/components/finsh/finsh_parser.c:954:17
	ldr	r1, [sp, #20]
	movs	r0, #1
	strb	r0, [r1, #5]
.Ltmp25:
	.loc	4 956 21                        @ rt-thread/components/finsh/finsh_parser.c:956:21
	ldr	r0, [sp, #20]
	.loc	4 956 27 is_stmt 0              @ rt-thread/components/finsh/finsh_parser.c:956:27
	ldr.w	r0, [r0, #152]
.Ltmp26:
	.loc	4 956 21                        @ rt-thread/components/finsh/finsh_parser.c:956:21
	cbz	r0, .LBB0_28
	b	.LBB0_24
.LBB0_24:                               @   in Loop: Header=BB0_1 Depth=1
.Ltmp27:
	.loc	4 958 68 is_stmt 1              @ rt-thread/components/finsh/finsh_parser.c:958:68
	ldr	r0, [sp, #20]
	.loc	4 958 48 is_stmt 0              @ rt-thread/components/finsh/finsh_parser.c:958:48
	bl	proc_expr_statement
	.loc	4 958 21                        @ rt-thread/components/finsh/finsh_parser.c:958:21
	ldr	r1, [sp, #8]
	.loc	4 958 46                        @ rt-thread/components/finsh/finsh_parser.c:958:46
	str	r0, [r1, #12]
.Ltmp28:
	.loc	4 959 25 is_stmt 1              @ rt-thread/components/finsh/finsh_parser.c:959:25
	ldr	r0, [sp, #8]
	ldr	r0, [r0, #12]
.Ltmp29:
	.loc	4 959 25 is_stmt 0              @ rt-thread/components/finsh/finsh_parser.c:959:25
	cbz	r0, .LBB0_26
	b	.LBB0_25
.LBB0_25:                               @   in Loop: Header=BB0_1 Depth=1
.Ltmp30:
	.loc	4 960 32 is_stmt 1              @ rt-thread/components/finsh/finsh_parser.c:960:32
	ldr	r0, [sp, #8]
	ldr	r0, [r0, #12]
	.loc	4 960 30 is_stmt 0              @ rt-thread/components/finsh/finsh_parser.c:960:30
	str	r0, [sp, #8]
	.loc	4 960 25                        @ rt-thread/components/finsh/finsh_parser.c:960:25
	b	.LBB0_27
.LBB0_26:                               @   in Loop: Header=BB0_1 Depth=1
	.loc	4 961 26 is_stmt 1              @ rt-thread/components/finsh/finsh_parser.c:961:26
	ldr	r0, [sp, #20]
	adds	r0, #4
	bl	finsh_token_token
	strb.w	r0, [sp, #15]
	b	.LBB0_27
.Ltmp31:
.LBB0_27:                               @   in Loop: Header=BB0_1 Depth=1
	.loc	4 962 17                        @ rt-thread/components/finsh/finsh_parser.c:962:17
	b	.LBB0_29
.Ltmp32:
.LBB0_28:                               @   in Loop: Header=BB0_1 Depth=1
	.loc	4 965 48                        @ rt-thread/components/finsh/finsh_parser.c:965:48
	ldr	r0, [sp, #20]
	.loc	4 965 28 is_stmt 0              @ rt-thread/components/finsh/finsh_parser.c:965:28
	bl	proc_expr_statement
	.loc	4 965 26                        @ rt-thread/components/finsh/finsh_parser.c:965:26
	str	r0, [sp, #8]
	.loc	4 966 34 is_stmt 1              @ rt-thread/components/finsh/finsh_parser.c:966:34
	ldr	r0, [sp, #8]
	.loc	4 966 21 is_stmt 0              @ rt-thread/components/finsh/finsh_parser.c:966:21
	ldr	r1, [sp, #20]
	.loc	4 966 32                        @ rt-thread/components/finsh/finsh_parser.c:966:32
	str.w	r0, [r1, #152]
	b	.LBB0_29
.Ltmp33:
.LBB0_29:                               @   in Loop: Header=BB0_1 Depth=1
	.loc	4 0 32                          @ rt-thread/components/finsh/finsh_parser.c:0:32
	b	.LBB0_30
.LBB0_30:                               @   in Loop: Header=BB0_1 Depth=1
	.loc	4 970 13 is_stmt 1              @ rt-thread/components/finsh/finsh_parser.c:970:13
	b	.LBB0_31
.Ltmp34:
.LBB0_31:                               @   in Loop: Header=BB0_1 Depth=1
	.loc	4 974 13                        @ rt-thread/components/finsh/finsh_parser.c:974:13
	ldr	r0, [sp, #20]
	.loc	4 974 19 is_stmt 0              @ rt-thread/components/finsh/finsh_parser.c:974:19
	ldr.w	r0, [r0, #152]
.Ltmp35:
	.loc	4 974 13                        @ rt-thread/components/finsh/finsh_parser.c:974:13
	cbnz	r0, .LBB0_33
	b	.LBB0_32
.LBB0_32:
.Ltmp36:
	.loc	4 974 33                        @ rt-thread/components/finsh/finsh_parser.c:974:33
	b	.LBB0_34
.Ltmp37:
.LBB0_33:                               @   in Loop: Header=BB0_1 Depth=1
	.loc	4 977 9 is_stmt 1               @ rt-thread/components/finsh/finsh_parser.c:977:9
	ldr	r0, [sp, #20]
	adds	r0, #4
	bl	finsh_token_token
	strb.w	r0, [sp, #15]
.Ltmp38:
	.loc	4 912 5                         @ rt-thread/components/finsh/finsh_parser.c:912:5
	b	.LBB0_1
.LBB0_34:
	.loc	4 979 1                         @ rt-thread/components/finsh/finsh_parser.c:979:1
	add	sp, #24
	pop	{r7, pc}
.Ltmp39:
.Lfunc_end0:
	.size	finsh_parser_run, .Lfunc_end0-finsh_parser_run
	.cfi_endproc
	.cantunwind
	.fnend
                                        @ -- End function
	.section	.text.proc_expr_statement,"ax",%progbits
	.p2align	3                               @ -- Begin function proc_expr_statement
	.type	proc_expr_statement,%function
	.code	16                              @ @proc_expr_statement
	.thumb_func
proc_expr_statement:
.Lfunc_begin1:
	.loc	4 394 0                         @ rt-thread/components/finsh/finsh_parser.c:394:0
	.fnstart
	.cfi_startproc
@ %bb.0:
	.save	{r7, lr}
	push	{r7, lr}
	.cfi_def_cfa_offset 8
	.cfi_offset lr, -4
	.cfi_offset r7, -8
	.pad	#16
	sub	sp, #16
	.cfi_def_cfa_offset 24
	str	r0, [sp, #12]
	movs	r0, #0
.Ltmp40:
	.loc	4 398 10 prologue_end           @ rt-thread/components/finsh/finsh_parser.c:398:10
	str	r0, [sp, #4]
	.loc	4 399 5                         @ rt-thread/components/finsh/finsh_parser.c:399:5
	ldr	r0, [sp, #12]
	adds	r0, #4
	bl	finsh_token_token
	strb.w	r0, [sp, #11]
.Ltmp41:
	.loc	4 400 10                        @ rt-thread/components/finsh/finsh_parser.c:400:10
	ldrb.w	r0, [sp, #11]
.Ltmp42:
	.loc	4 400 10 is_stmt 0              @ rt-thread/components/finsh/finsh_parser.c:400:10
	cmp	r0, #4
	beq	.LBB1_4
	b	.LBB1_1
.LBB1_1:
.Ltmp43:
	.loc	4 402 9 is_stmt 1               @ rt-thread/components/finsh/finsh_parser.c:402:9
	ldr	r1, [sp, #12]
	movs	r0, #1
	strb	r0, [r1, #5]
	.loc	4 403 26                        @ rt-thread/components/finsh/finsh_parser.c:403:26
	ldr	r0, [sp, #12]
	.loc	4 403 16 is_stmt 0              @ rt-thread/components/finsh/finsh_parser.c:403:16
	bl	proc_expr
	.loc	4 403 14                        @ rt-thread/components/finsh/finsh_parser.c:403:14
	str	r0, [sp, #4]
	.loc	4 405 9 is_stmt 1               @ rt-thread/components/finsh/finsh_parser.c:405:9
	ldr	r0, [sp, #12]
	adds	r0, #4
	bl	finsh_token_token
	strb.w	r0, [sp, #11]
.Ltmp44:
	.loc	4 405 9 is_stmt 0               @ rt-thread/components/finsh/finsh_parser.c:405:9
	ldrb.w	r0, [sp, #11]
.Ltmp45:
	.loc	4 405 9                         @ rt-thread/components/finsh/finsh_parser.c:405:9
	cmp	r0, #4
	beq	.LBB1_3
	b	.LBB1_2
.LBB1_2:
	.loc	4 0 9                           @ rt-thread/components/finsh/finsh_parser.c:0:9
	movs	r0, #1
.Ltmp46:
	.loc	4 405 9                         @ rt-thread/components/finsh/finsh_parser.c:405:9
	str	r0, [sp]                        @ 4-byte Spill
	bl	finsh_error_set
                                        @ kill: def $r1 killed $r0
	ldr	r0, [sp]                        @ 4-byte Reload
	ldr	r1, [sp, #12]
	strb	r0, [r1, #5]
	b	.LBB1_3
.Ltmp47:
.LBB1_3:
	.loc	4 406 5 is_stmt 1               @ rt-thread/components/finsh/finsh_parser.c:406:5
	b	.LBB1_4
.Ltmp48:
.LBB1_4:
	.loc	4 408 12                        @ rt-thread/components/finsh/finsh_parser.c:408:12
	ldr	r0, [sp, #4]
	.loc	4 408 5 is_stmt 0               @ rt-thread/components/finsh/finsh_parser.c:408:5
	add	sp, #16
	pop	{r7, pc}
.Ltmp49:
.Lfunc_end1:
	.size	proc_expr_statement, .Lfunc_end1-proc_expr_statement
	.cfi_endproc
	.cantunwind
	.fnend
                                        @ -- End function
	.section	.text.proc_variable_decl,"ax",%progbits
	.p2align	3                               @ -- Begin function proc_variable_decl
	.type	proc_variable_decl,%function
	.code	16                              @ @proc_variable_decl
	.thumb_func
proc_variable_decl:
.Lfunc_begin2:
	.loc	4 78 0 is_stmt 1                @ rt-thread/components/finsh/finsh_parser.c:78:0
	.fnstart
	.cfi_startproc
@ %bb.0:
	.save	{r7, lr}
	push	{r7, lr}
	.cfi_def_cfa_offset 8
	.cfi_offset lr, -4
	.cfi_offset r7, -8
	.pad	#64
	sub	sp, #64
	.cfi_def_cfa_offset 72
	str	r0, [sp, #56]
	movs	r0, #0
.Ltmp50:
	.loc	4 87 10 prologue_end            @ rt-thread/components/finsh/finsh_parser.c:87:10
	str	r0, [sp, #32]
	.loc	4 88 10                         @ rt-thread/components/finsh/finsh_parser.c:88:10
	str	r0, [sp, #28]
	.loc	4 91 22                         @ rt-thread/components/finsh/finsh_parser.c:91:22
	ldr	r0, [sp, #56]
	.loc	4 91 12 is_stmt 0               @ rt-thread/components/finsh/finsh_parser.c:91:12
	bl	proc_type
	.loc	4 91 10                         @ rt-thread/components/finsh/finsh_parser.c:91:10
	strb.w	r0, [sp, #54]
.Ltmp51:
	.loc	4 94 25 is_stmt 1               @ rt-thread/components/finsh/finsh_parser.c:94:25
	ldr	r0, [sp, #56]
	add.w	r1, sp, #37
	.loc	4 94 9 is_stmt 0                @ rt-thread/components/finsh/finsh_parser.c:94:9
	bl	proc_identifier
.Ltmp52:
	.loc	4 94 9                          @ rt-thread/components/finsh/finsh_parser.c:94:9
	cbnz	r0, .LBB2_4
	b	.LBB2_1
.LBB2_1:
.Ltmp53:
	.loc	4 97 34 is_stmt 1               @ rt-thread/components/finsh/finsh_parser.c:97:34
	ldrb.w	r1, [sp, #54]
	add.w	r0, sp, #37
	.loc	4 97 13 is_stmt 0               @ rt-thread/components/finsh/finsh_parser.c:97:13
	bl	finsh_var_insert
.Ltmp54:
	.loc	4 97 13                         @ rt-thread/components/finsh/finsh_parser.c:97:13
	cmp.w	r0, #-1
	bgt	.LBB2_3
	b	.LBB2_2
.LBB2_2:
	.loc	4 0 13                          @ rt-thread/components/finsh/finsh_parser.c:0:13
	movs	r0, #4
.Ltmp55:
	.loc	4 99 13 is_stmt 1               @ rt-thread/components/finsh/finsh_parser.c:99:13
	bl	finsh_error_set
	.loc	4 100 9                         @ rt-thread/components/finsh/finsh_parser.c:100:9
	b	.LBB2_3
.Ltmp56:
.LBB2_3:
	.loc	4 101 5                         @ rt-thread/components/finsh/finsh_parser.c:101:5
	b	.LBB2_4
.Ltmp57:
.LBB2_4:
	.loc	4 103 5                         @ rt-thread/components/finsh/finsh_parser.c:103:5
	ldr	r0, [sp, #56]
	adds	r0, #4
	bl	finsh_token_token
	strb.w	r0, [sp, #55]
	.loc	4 104 14                        @ rt-thread/components/finsh/finsh_parser.c:104:14
	ldrb.w	r0, [sp, #55]
	.loc	4 104 5 is_stmt 0               @ rt-thread/components/finsh/finsh_parser.c:104:5
	mov	r1, r0
	str	r1, [sp, #8]                    @ 4-byte Spill
	cmp	r0, #3
	beq	.LBB2_7
	b	.LBB2_5
.LBB2_5:
	ldr	r0, [sp, #8]                    @ 4-byte Reload
	cmp	r0, #4
	beq.w	.LBB2_51
	b	.LBB2_6
.LBB2_6:
	ldr	r0, [sp, #8]                    @ 4-byte Reload
	cmp	r0, #12
	beq.w	.LBB2_32
	b	.LBB2_52
.LBB2_7:
.Ltmp58:
	.loc	4 107 29 is_stmt 1              @ rt-thread/components/finsh/finsh_parser.c:107:29
	ldr	r0, [sp, #56]
	add.w	r1, sp, #37
	.loc	4 107 13 is_stmt 0              @ rt-thread/components/finsh/finsh_parser.c:107:13
	bl	proc_identifier
.Ltmp59:
	.loc	4 107 13                        @ rt-thread/components/finsh/finsh_parser.c:107:13
	cbnz	r0, .LBB2_11
	b	.LBB2_8
.LBB2_8:
.Ltmp60:
	.loc	4 110 38 is_stmt 1              @ rt-thread/components/finsh/finsh_parser.c:110:38
	ldrb.w	r1, [sp, #54]
	add.w	r0, sp, #37
	.loc	4 110 17 is_stmt 0              @ rt-thread/components/finsh/finsh_parser.c:110:17
	bl	finsh_var_insert
.Ltmp61:
	.loc	4 110 17                        @ rt-thread/components/finsh/finsh_parser.c:110:17
	cmp.w	r0, #-1
	bgt	.LBB2_10
	b	.LBB2_9
.LBB2_9:
	.loc	4 0 17                          @ rt-thread/components/finsh/finsh_parser.c:0:17
	movs	r0, #4
.Ltmp62:
	.loc	4 112 17 is_stmt 1              @ rt-thread/components/finsh/finsh_parser.c:112:17
	bl	finsh_error_set
	.loc	4 113 13                        @ rt-thread/components/finsh/finsh_parser.c:113:13
	b	.LBB2_10
.Ltmp63:
.LBB2_10:
	.loc	4 114 9                         @ rt-thread/components/finsh/finsh_parser.c:114:9
	b	.LBB2_11
.Ltmp64:
.LBB2_11:
	.loc	4 116 9                         @ rt-thread/components/finsh/finsh_parser.c:116:9
	ldr	r0, [sp, #56]
	adds	r0, #4
	bl	finsh_token_token
	strb.w	r0, [sp, #55]
.Ltmp65:
	.loc	4 117 14                        @ rt-thread/components/finsh/finsh_parser.c:117:14
	ldrb.w	r0, [sp, #55]
.Ltmp66:
	.loc	4 117 14 is_stmt 0              @ rt-thread/components/finsh/finsh_parser.c:117:14
	cmp	r0, #12
	bne	.LBB2_15
	b	.LBB2_12
.LBB2_12:
.Ltmp67:
	.loc	4 120 39 is_stmt 1              @ rt-thread/components/finsh/finsh_parser.c:120:39
	ldr	r0, [sp, #56]
	.loc	4 120 22 is_stmt 0              @ rt-thread/components/finsh/finsh_parser.c:120:22
	bl	proc_assign_expr
	.loc	4 120 20                        @ rt-thread/components/finsh/finsh_parser.c:120:20
	str	r0, [sp, #24]
.Ltmp68:
	.loc	4 122 17 is_stmt 1              @ rt-thread/components/finsh/finsh_parser.c:122:17
	ldr	r0, [sp, #24]
.Ltmp69:
	.loc	4 122 17 is_stmt 0              @ rt-thread/components/finsh/finsh_parser.c:122:17
	cbz	r0, .LBB2_14
	b	.LBB2_13
.LBB2_13:
	.loc	4 0 17                          @ rt-thread/components/finsh/finsh_parser.c:0:17
	add.w	r0, sp, #37
.Ltmp70:
	.loc	4 126 26 is_stmt 1              @ rt-thread/components/finsh/finsh_parser.c:126:26
	bl	finsh_node_new_id
	.loc	4 126 24 is_stmt 0              @ rt-thread/components/finsh/finsh_parser.c:126:24
	str	r0, [sp, #20]
	.loc	4 127 60 is_stmt 1              @ rt-thread/components/finsh/finsh_parser.c:127:60
	ldr	r1, [sp, #20]
	.loc	4 127 68 is_stmt 0              @ rt-thread/components/finsh/finsh_parser.c:127:68
	ldr	r2, [sp, #24]
	movs	r0, #19
	.loc	4 127 23                        @ rt-thread/components/finsh/finsh_parser.c:127:23
	bl	make_sys_node
	.loc	4 127 21                        @ rt-thread/components/finsh/finsh_parser.c:127:21
	str	r0, [sp, #28]
	.loc	4 128 24 is_stmt 1              @ rt-thread/components/finsh/finsh_parser.c:128:24
	ldr	r0, [sp, #28]
	.loc	4 128 22 is_stmt 0              @ rt-thread/components/finsh/finsh_parser.c:128:22
	str	r0, [sp, #32]
	.loc	4 130 17 is_stmt 1              @ rt-thread/components/finsh/finsh_parser.c:130:17
	ldr	r0, [sp, #56]
	adds	r0, #4
	bl	finsh_token_token
	strb.w	r0, [sp, #55]
	.loc	4 131 13                        @ rt-thread/components/finsh/finsh_parser.c:131:13
	b	.LBB2_14
.Ltmp71:
.LBB2_14:
	.loc	4 132 9                         @ rt-thread/components/finsh/finsh_parser.c:132:9
	b	.LBB2_15
.Ltmp72:
.LBB2_15:
	.loc	4 134 9                         @ rt-thread/components/finsh/finsh_parser.c:134:9
	b	.LBB2_16
.LBB2_16:                               @ =>This Inner Loop Header: Depth=1
	.loc	4 134 17 is_stmt 0              @ rt-thread/components/finsh/finsh_parser.c:134:17
	ldrb.w	r0, [sp, #55]
	.loc	4 134 9                         @ rt-thread/components/finsh/finsh_parser.c:134:9
	cmp	r0, #3
	bne	.LBB2_29
	b	.LBB2_17
.LBB2_17:                               @   in Loop: Header=BB2_16 Depth=1
.Ltmp73:
	.loc	4 136 33 is_stmt 1              @ rt-thread/components/finsh/finsh_parser.c:136:33
	ldr	r0, [sp, #56]
	add.w	r1, sp, #37
	.loc	4 136 17 is_stmt 0              @ rt-thread/components/finsh/finsh_parser.c:136:17
	bl	proc_identifier
.Ltmp74:
	.loc	4 136 17                        @ rt-thread/components/finsh/finsh_parser.c:136:17
	cbnz	r0, .LBB2_21
	b	.LBB2_18
.LBB2_18:                               @   in Loop: Header=BB2_16 Depth=1
.Ltmp75:
	.loc	4 139 42 is_stmt 1              @ rt-thread/components/finsh/finsh_parser.c:139:42
	ldrb.w	r1, [sp, #54]
	add.w	r0, sp, #37
	.loc	4 139 21 is_stmt 0              @ rt-thread/components/finsh/finsh_parser.c:139:21
	bl	finsh_var_insert
.Ltmp76:
	.loc	4 139 21                        @ rt-thread/components/finsh/finsh_parser.c:139:21
	cmp.w	r0, #-1
	bgt	.LBB2_20
	b	.LBB2_19
.LBB2_19:                               @   in Loop: Header=BB2_16 Depth=1
	.loc	4 0 21                          @ rt-thread/components/finsh/finsh_parser.c:0:21
	movs	r0, #4
.Ltmp77:
	.loc	4 141 21 is_stmt 1              @ rt-thread/components/finsh/finsh_parser.c:141:21
	bl	finsh_error_set
	.loc	4 142 17                        @ rt-thread/components/finsh/finsh_parser.c:142:17
	b	.LBB2_20
.Ltmp78:
.LBB2_20:                               @   in Loop: Header=BB2_16 Depth=1
	.loc	4 143 13                        @ rt-thread/components/finsh/finsh_parser.c:143:13
	b	.LBB2_21
.Ltmp79:
.LBB2_21:                               @   in Loop: Header=BB2_16 Depth=1
	.loc	4 145 13                        @ rt-thread/components/finsh/finsh_parser.c:145:13
	ldr	r0, [sp, #56]
	adds	r0, #4
	bl	finsh_token_token
	strb.w	r0, [sp, #55]
.Ltmp80:
	.loc	4 146 18                        @ rt-thread/components/finsh/finsh_parser.c:146:18
	ldrb.w	r0, [sp, #55]
.Ltmp81:
	.loc	4 146 18 is_stmt 0              @ rt-thread/components/finsh/finsh_parser.c:146:18
	cmp	r0, #12
	bne	.LBB2_28
	b	.LBB2_22
.LBB2_22:                               @   in Loop: Header=BB2_16 Depth=1
.Ltmp82:
	.loc	4 149 43 is_stmt 1              @ rt-thread/components/finsh/finsh_parser.c:149:43
	ldr	r0, [sp, #56]
	.loc	4 149 26 is_stmt 0              @ rt-thread/components/finsh/finsh_parser.c:149:26
	bl	proc_assign_expr
	.loc	4 149 24                        @ rt-thread/components/finsh/finsh_parser.c:149:24
	str	r0, [sp, #24]
.Ltmp83:
	.loc	4 151 21 is_stmt 1              @ rt-thread/components/finsh/finsh_parser.c:151:21
	ldr	r0, [sp, #24]
.Ltmp84:
	.loc	4 151 21 is_stmt 0              @ rt-thread/components/finsh/finsh_parser.c:151:21
	cbz	r0, .LBB2_27
	b	.LBB2_23
.LBB2_23:                               @   in Loop: Header=BB2_16 Depth=1
	.loc	4 0 21                          @ rt-thread/components/finsh/finsh_parser.c:0:21
	add.w	r0, sp, #37
.Ltmp85:
	.loc	4 155 30 is_stmt 1              @ rt-thread/components/finsh/finsh_parser.c:155:30
	bl	finsh_node_new_id
	.loc	4 155 28 is_stmt 0              @ rt-thread/components/finsh/finsh_parser.c:155:28
	str	r0, [sp, #16]
.Ltmp86:
	.loc	4 158 25 is_stmt 1              @ rt-thread/components/finsh/finsh_parser.c:158:25
	ldr	r0, [sp, #32]
.Ltmp87:
	.loc	4 158 25 is_stmt 0              @ rt-thread/components/finsh/finsh_parser.c:158:25
	cbz	r0, .LBB2_25
	b	.LBB2_24
.LBB2_24:                               @   in Loop: Header=BB2_16 Depth=1
.Ltmp88:
	.loc	4 160 88 is_stmt 1              @ rt-thread/components/finsh/finsh_parser.c:160:88
	ldr	r1, [sp, #16]
	.loc	4 160 96 is_stmt 0              @ rt-thread/components/finsh/finsh_parser.c:160:96
	ldr	r2, [sp, #24]
	movs	r0, #19
	.loc	4 160 51                        @ rt-thread/components/finsh/finsh_parser.c:160:51
	bl	make_sys_node
	.loc	4 160 25                        @ rt-thread/components/finsh/finsh_parser.c:160:25
	ldr	r1, [sp, #28]
	.loc	4 160 49                        @ rt-thread/components/finsh/finsh_parser.c:160:49
	str	r0, [r1, #12]
	.loc	4 161 31 is_stmt 1              @ rt-thread/components/finsh/finsh_parser.c:161:31
	ldr	r0, [sp, #28]
	ldr	r0, [r0, #12]
	.loc	4 161 29 is_stmt 0              @ rt-thread/components/finsh/finsh_parser.c:161:29
	str	r0, [sp, #28]
	.loc	4 162 21 is_stmt 1              @ rt-thread/components/finsh/finsh_parser.c:162:21
	b	.LBB2_26
.Ltmp89:
.LBB2_25:                               @   in Loop: Header=BB2_16 Depth=1
	.loc	4 165 68                        @ rt-thread/components/finsh/finsh_parser.c:165:68
	ldr	r1, [sp, #16]
	.loc	4 165 76 is_stmt 0              @ rt-thread/components/finsh/finsh_parser.c:165:76
	ldr	r2, [sp, #24]
	movs	r0, #19
	.loc	4 165 31                        @ rt-thread/components/finsh/finsh_parser.c:165:31
	bl	make_sys_node
	.loc	4 165 29                        @ rt-thread/components/finsh/finsh_parser.c:165:29
	str	r0, [sp, #28]
	.loc	4 166 32 is_stmt 1              @ rt-thread/components/finsh/finsh_parser.c:166:32
	ldr	r0, [sp, #28]
	.loc	4 166 30 is_stmt 0              @ rt-thread/components/finsh/finsh_parser.c:166:30
	str	r0, [sp, #32]
	b	.LBB2_26
.Ltmp90:
.LBB2_26:                               @   in Loop: Header=BB2_16 Depth=1
	.loc	4 169 21 is_stmt 1              @ rt-thread/components/finsh/finsh_parser.c:169:21
	ldr	r0, [sp, #56]
	adds	r0, #4
	bl	finsh_token_token
	strb.w	r0, [sp, #55]
	.loc	4 170 17                        @ rt-thread/components/finsh/finsh_parser.c:170:17
	b	.LBB2_27
.Ltmp91:
.LBB2_27:                               @   in Loop: Header=BB2_16 Depth=1
	.loc	4 171 13                        @ rt-thread/components/finsh/finsh_parser.c:171:13
	b	.LBB2_28
.Ltmp92:
.LBB2_28:                               @   in Loop: Header=BB2_16 Depth=1
	.loc	4 134 9                         @ rt-thread/components/finsh/finsh_parser.c:134:9
	b	.LBB2_16
.LBB2_29:
.Ltmp93:
	.loc	4 174 9                         @ rt-thread/components/finsh/finsh_parser.c:174:9
	ldrb.w	r0, [sp, #55]
.Ltmp94:
	.loc	4 174 9 is_stmt 0               @ rt-thread/components/finsh/finsh_parser.c:174:9
	cmp	r0, #4
	beq	.LBB2_31
	b	.LBB2_30
.LBB2_30:
	.loc	4 0 9                           @ rt-thread/components/finsh/finsh_parser.c:0:9
	movs	r0, #1
.Ltmp95:
	.loc	4 174 9                         @ rt-thread/components/finsh/finsh_parser.c:174:9
	str	r0, [sp, #4]                    @ 4-byte Spill
	bl	finsh_error_set
                                        @ kill: def $r1 killed $r0
	ldr	r0, [sp, #4]                    @ 4-byte Reload
	ldr	r1, [sp, #56]
	strb	r0, [r1, #5]
	b	.LBB2_31
.Ltmp96:
.LBB2_31:
	.loc	4 175 16 is_stmt 1              @ rt-thread/components/finsh/finsh_parser.c:175:16
	ldr	r0, [sp, #32]
	.loc	4 175 9 is_stmt 0               @ rt-thread/components/finsh/finsh_parser.c:175:9
	str	r0, [sp, #60]
	b	.LBB2_53
.LBB2_32:
.Ltmp97:
	.loc	4 181 35 is_stmt 1              @ rt-thread/components/finsh/finsh_parser.c:181:35
	ldr	r0, [sp, #56]
	.loc	4 181 18 is_stmt 0              @ rt-thread/components/finsh/finsh_parser.c:181:18
	bl	proc_assign_expr
	.loc	4 181 16                        @ rt-thread/components/finsh/finsh_parser.c:181:16
	str	r0, [sp, #24]
.Ltmp98:
	.loc	4 182 13 is_stmt 1              @ rt-thread/components/finsh/finsh_parser.c:182:13
	ldr	r0, [sp, #24]
.Ltmp99:
	.loc	4 182 13 is_stmt 0              @ rt-thread/components/finsh/finsh_parser.c:182:13
	cbz	r0, .LBB2_34
	b	.LBB2_33
.LBB2_33:
	.loc	4 0 13                          @ rt-thread/components/finsh/finsh_parser.c:0:13
	add.w	r0, sp, #37
.Ltmp100:
	.loc	4 184 22 is_stmt 1              @ rt-thread/components/finsh/finsh_parser.c:184:22
	bl	finsh_node_new_id
	.loc	4 184 20 is_stmt 0              @ rt-thread/components/finsh/finsh_parser.c:184:20
	str	r0, [sp, #12]
	.loc	4 187 56 is_stmt 1              @ rt-thread/components/finsh/finsh_parser.c:187:56
	ldr	r1, [sp, #12]
	.loc	4 187 64 is_stmt 0              @ rt-thread/components/finsh/finsh_parser.c:187:64
	ldr	r2, [sp, #24]
	movs	r0, #19
	.loc	4 187 19                        @ rt-thread/components/finsh/finsh_parser.c:187:19
	bl	make_sys_node
	.loc	4 187 17                        @ rt-thread/components/finsh/finsh_parser.c:187:17
	str	r0, [sp, #28]
	.loc	4 188 20 is_stmt 1              @ rt-thread/components/finsh/finsh_parser.c:188:20
	ldr	r0, [sp, #28]
	.loc	4 188 18 is_stmt 0              @ rt-thread/components/finsh/finsh_parser.c:188:18
	str	r0, [sp, #32]
	.loc	4 190 13 is_stmt 1              @ rt-thread/components/finsh/finsh_parser.c:190:13
	ldr	r0, [sp, #56]
	adds	r0, #4
	bl	finsh_token_token
	strb.w	r0, [sp, #55]
	.loc	4 191 9                         @ rt-thread/components/finsh/finsh_parser.c:191:9
	b	.LBB2_34
.Ltmp101:
.LBB2_34:
	.loc	4 193 9                         @ rt-thread/components/finsh/finsh_parser.c:193:9
	b	.LBB2_35
.LBB2_35:                               @ =>This Inner Loop Header: Depth=1
	.loc	4 193 17 is_stmt 0              @ rt-thread/components/finsh/finsh_parser.c:193:17
	ldrb.w	r0, [sp, #55]
	.loc	4 193 9                         @ rt-thread/components/finsh/finsh_parser.c:193:9
	cmp	r0, #3
	bne	.LBB2_48
	b	.LBB2_36
.LBB2_36:                               @   in Loop: Header=BB2_35 Depth=1
.Ltmp102:
	.loc	4 195 33 is_stmt 1              @ rt-thread/components/finsh/finsh_parser.c:195:33
	ldr	r0, [sp, #56]
	add.w	r1, sp, #37
	.loc	4 195 17 is_stmt 0              @ rt-thread/components/finsh/finsh_parser.c:195:17
	bl	proc_identifier
.Ltmp103:
	.loc	4 195 17                        @ rt-thread/components/finsh/finsh_parser.c:195:17
	cbnz	r0, .LBB2_40
	b	.LBB2_37
.LBB2_37:                               @   in Loop: Header=BB2_35 Depth=1
.Ltmp104:
	.loc	4 198 42 is_stmt 1              @ rt-thread/components/finsh/finsh_parser.c:198:42
	ldrb.w	r1, [sp, #54]
	add.w	r0, sp, #37
	.loc	4 198 21 is_stmt 0              @ rt-thread/components/finsh/finsh_parser.c:198:21
	bl	finsh_var_insert
.Ltmp105:
	.loc	4 198 21                        @ rt-thread/components/finsh/finsh_parser.c:198:21
	cmp.w	r0, #-1
	bgt	.LBB2_39
	b	.LBB2_38
.LBB2_38:                               @   in Loop: Header=BB2_35 Depth=1
	.loc	4 0 21                          @ rt-thread/components/finsh/finsh_parser.c:0:21
	movs	r0, #4
.Ltmp106:
	.loc	4 200 21 is_stmt 1              @ rt-thread/components/finsh/finsh_parser.c:200:21
	bl	finsh_error_set
	.loc	4 201 17                        @ rt-thread/components/finsh/finsh_parser.c:201:17
	b	.LBB2_39
.Ltmp107:
.LBB2_39:                               @   in Loop: Header=BB2_35 Depth=1
	.loc	4 202 13                        @ rt-thread/components/finsh/finsh_parser.c:202:13
	b	.LBB2_40
.Ltmp108:
.LBB2_40:                               @   in Loop: Header=BB2_35 Depth=1
	.loc	4 204 13                        @ rt-thread/components/finsh/finsh_parser.c:204:13
	ldr	r0, [sp, #56]
	adds	r0, #4
	bl	finsh_token_token
	strb.w	r0, [sp, #55]
.Ltmp109:
	.loc	4 205 17                        @ rt-thread/components/finsh/finsh_parser.c:205:17
	ldrb.w	r0, [sp, #55]
.Ltmp110:
	.loc	4 205 17 is_stmt 0              @ rt-thread/components/finsh/finsh_parser.c:205:17
	cmp	r0, #12
	bne	.LBB2_47
	b	.LBB2_41
.LBB2_41:                               @   in Loop: Header=BB2_35 Depth=1
.Ltmp111:
	.loc	4 208 43 is_stmt 1              @ rt-thread/components/finsh/finsh_parser.c:208:43
	ldr	r0, [sp, #56]
	.loc	4 208 26 is_stmt 0              @ rt-thread/components/finsh/finsh_parser.c:208:26
	bl	proc_assign_expr
	.loc	4 208 24                        @ rt-thread/components/finsh/finsh_parser.c:208:24
	str	r0, [sp, #24]
.Ltmp112:
	.loc	4 210 21 is_stmt 1              @ rt-thread/components/finsh/finsh_parser.c:210:21
	ldr	r0, [sp, #24]
.Ltmp113:
	.loc	4 210 21 is_stmt 0              @ rt-thread/components/finsh/finsh_parser.c:210:21
	cbz	r0, .LBB2_46
	b	.LBB2_42
.LBB2_42:                               @   in Loop: Header=BB2_35 Depth=1
	.loc	4 0 21                          @ rt-thread/components/finsh/finsh_parser.c:0:21
	add.w	r0, sp, #37
.Ltmp114:
	.loc	4 212 30 is_stmt 1              @ rt-thread/components/finsh/finsh_parser.c:212:30
	bl	finsh_node_new_id
	.loc	4 212 28 is_stmt 0              @ rt-thread/components/finsh/finsh_parser.c:212:28
	str	r0, [sp, #12]
.Ltmp115:
	.loc	4 215 25 is_stmt 1              @ rt-thread/components/finsh/finsh_parser.c:215:25
	ldr	r0, [sp, #32]
.Ltmp116:
	.loc	4 215 25 is_stmt 0              @ rt-thread/components/finsh/finsh_parser.c:215:25
	cbz	r0, .LBB2_44
	b	.LBB2_43
.LBB2_43:                               @   in Loop: Header=BB2_35 Depth=1
.Ltmp117:
	.loc	4 217 88 is_stmt 1              @ rt-thread/components/finsh/finsh_parser.c:217:88
	ldr	r1, [sp, #12]
	.loc	4 217 96 is_stmt 0              @ rt-thread/components/finsh/finsh_parser.c:217:96
	ldr	r2, [sp, #24]
	movs	r0, #19
	.loc	4 217 51                        @ rt-thread/components/finsh/finsh_parser.c:217:51
	bl	make_sys_node
	.loc	4 217 25                        @ rt-thread/components/finsh/finsh_parser.c:217:25
	ldr	r1, [sp, #28]
	.loc	4 217 49                        @ rt-thread/components/finsh/finsh_parser.c:217:49
	str	r0, [r1, #12]
	.loc	4 218 31 is_stmt 1              @ rt-thread/components/finsh/finsh_parser.c:218:31
	ldr	r0, [sp, #28]
	ldr	r0, [r0, #12]
	.loc	4 218 29 is_stmt 0              @ rt-thread/components/finsh/finsh_parser.c:218:29
	str	r0, [sp, #28]
	.loc	4 219 21 is_stmt 1              @ rt-thread/components/finsh/finsh_parser.c:219:21
	b	.LBB2_45
.Ltmp118:
.LBB2_44:                               @   in Loop: Header=BB2_35 Depth=1
	.loc	4 222 68                        @ rt-thread/components/finsh/finsh_parser.c:222:68
	ldr	r1, [sp, #12]
	.loc	4 222 76 is_stmt 0              @ rt-thread/components/finsh/finsh_parser.c:222:76
	ldr	r2, [sp, #24]
	movs	r0, #19
	.loc	4 222 31                        @ rt-thread/components/finsh/finsh_parser.c:222:31
	bl	make_sys_node
	.loc	4 222 29                        @ rt-thread/components/finsh/finsh_parser.c:222:29
	str	r0, [sp, #28]
	.loc	4 223 32 is_stmt 1              @ rt-thread/components/finsh/finsh_parser.c:223:32
	ldr	r0, [sp, #28]
	.loc	4 223 30 is_stmt 0              @ rt-thread/components/finsh/finsh_parser.c:223:30
	str	r0, [sp, #32]
	b	.LBB2_45
.Ltmp119:
.LBB2_45:                               @   in Loop: Header=BB2_35 Depth=1
	.loc	4 226 21 is_stmt 1              @ rt-thread/components/finsh/finsh_parser.c:226:21
	ldr	r0, [sp, #56]
	adds	r0, #4
	bl	finsh_token_token
	strb.w	r0, [sp, #55]
	.loc	4 227 17                        @ rt-thread/components/finsh/finsh_parser.c:227:17
	b	.LBB2_46
.Ltmp120:
.LBB2_46:                               @   in Loop: Header=BB2_35 Depth=1
	.loc	4 228 13                        @ rt-thread/components/finsh/finsh_parser.c:228:13
	b	.LBB2_47
.Ltmp121:
.LBB2_47:                               @   in Loop: Header=BB2_35 Depth=1
	.loc	4 193 9                         @ rt-thread/components/finsh/finsh_parser.c:193:9
	b	.LBB2_35
.LBB2_48:
.Ltmp122:
	.loc	4 231 9                         @ rt-thread/components/finsh/finsh_parser.c:231:9
	ldrb.w	r0, [sp, #55]
.Ltmp123:
	.loc	4 231 9 is_stmt 0               @ rt-thread/components/finsh/finsh_parser.c:231:9
	cmp	r0, #4
	beq	.LBB2_50
	b	.LBB2_49
.LBB2_49:
	.loc	4 0 9                           @ rt-thread/components/finsh/finsh_parser.c:0:9
	movs	r0, #1
.Ltmp124:
	.loc	4 231 9                         @ rt-thread/components/finsh/finsh_parser.c:231:9
	str	r0, [sp]                        @ 4-byte Spill
	bl	finsh_error_set
                                        @ kill: def $r1 killed $r0
	ldr	r0, [sp]                        @ 4-byte Reload
	ldr	r1, [sp, #56]
	strb	r0, [r1, #5]
	b	.LBB2_50
.Ltmp125:
.LBB2_50:
	.loc	4 232 16 is_stmt 1              @ rt-thread/components/finsh/finsh_parser.c:232:16
	ldr	r0, [sp, #32]
	.loc	4 232 9 is_stmt 0               @ rt-thread/components/finsh/finsh_parser.c:232:9
	str	r0, [sp, #60]
	b	.LBB2_53
.Ltmp126:
.LBB2_51:
	.loc	4 236 16 is_stmt 1              @ rt-thread/components/finsh/finsh_parser.c:236:16
	ldr	r0, [sp, #32]
	.loc	4 236 9 is_stmt 0               @ rt-thread/components/finsh/finsh_parser.c:236:9
	str	r0, [sp, #60]
	b	.LBB2_53
.LBB2_52:
	.loc	4 0 9                           @ rt-thread/components/finsh/finsh_parser.c:0:9
	movs	r0, #2
	.loc	4 239 9 is_stmt 1               @ rt-thread/components/finsh/finsh_parser.c:239:9
	bl	finsh_error_set
	movs	r0, #0
	.loc	4 241 9                         @ rt-thread/components/finsh/finsh_parser.c:241:9
	str	r0, [sp, #60]
	b	.LBB2_53
.Ltmp127:
.LBB2_53:
	.loc	4 243 1                         @ rt-thread/components/finsh/finsh_parser.c:243:1
	ldr	r0, [sp, #60]
	add	sp, #64
	pop	{r7, pc}
.Ltmp128:
.Lfunc_end2:
	.size	proc_variable_decl, .Lfunc_end2-proc_variable_decl
	.cfi_endproc
	.cantunwind
	.fnend
                                        @ -- End function
	.section	.text.finsh_parser_init,"ax",%progbits
	.hidden	finsh_parser_init               @ -- Begin function finsh_parser_init
	.globl	finsh_parser_init
	.p2align	3
	.type	finsh_parser_init,%function
	.code	16                              @ @finsh_parser_init
	.thumb_func
finsh_parser_init:
.Lfunc_begin3:
	.loc	4 982 0                         @ rt-thread/components/finsh/finsh_parser.c:982:0
	.fnstart
	.cfi_startproc
@ %bb.0:
	.save	{r7, lr}
	push	{r7, lr}
	.cfi_def_cfa_offset 8
	.cfi_offset lr, -4
	.cfi_offset r7, -8
	.pad	#8
	sub	sp, #8
	.cfi_def_cfa_offset 16
	str	r0, [sp, #4]
.Ltmp129:
	.loc	4 983 12 prologue_end           @ rt-thread/components/finsh/finsh_parser.c:983:12
	ldr	r0, [sp, #4]
	movs	r1, #156
	.loc	4 983 5 is_stmt 0               @ rt-thread/components/finsh/finsh_parser.c:983:5
	bl	__aeabi_memclr4
	movs	r0, #0
	.loc	4 985 5 is_stmt 1               @ rt-thread/components/finsh/finsh_parser.c:985:5
	add	sp, #8
	pop	{r7, pc}
.Ltmp130:
.Lfunc_end3:
	.size	finsh_parser_init, .Lfunc_end3-finsh_parser_init
	.cfi_endproc
	.cantunwind
	.fnend
                                        @ -- End function
	.section	.text.proc_expr,"ax",%progbits
	.p2align	3                               @ -- Begin function proc_expr
	.type	proc_expr,%function
	.code	16                              @ @proc_expr
	.thumb_func
proc_expr:
.Lfunc_begin4:
	.loc	4 415 0                         @ rt-thread/components/finsh/finsh_parser.c:415:0
	.fnstart
	.cfi_startproc
@ %bb.0:
	.save	{r7, lr}
	push	{r7, lr}
	.cfi_def_cfa_offset 8
	.cfi_offset lr, -4
	.cfi_offset r7, -8
	.pad	#8
	sub	sp, #8
	.cfi_def_cfa_offset 16
	str	r0, [sp, #4]
.Ltmp131:
	.loc	4 416 29 prologue_end           @ rt-thread/components/finsh/finsh_parser.c:416:29
	ldr	r0, [sp, #4]
	.loc	4 416 12 is_stmt 0              @ rt-thread/components/finsh/finsh_parser.c:416:12
	bl	proc_assign_expr
	.loc	4 416 5                         @ rt-thread/components/finsh/finsh_parser.c:416:5
	add	sp, #8
	pop	{r7, pc}
.Ltmp132:
.Lfunc_end4:
	.size	proc_expr, .Lfunc_end4-proc_expr
	.cfi_endproc
	.cantunwind
	.fnend
                                        @ -- End function
	.section	.text.proc_assign_expr,"ax",%progbits
	.p2align	3                               @ -- Begin function proc_assign_expr
	.type	proc_assign_expr,%function
	.code	16                              @ @proc_assign_expr
	.thumb_func
proc_assign_expr:
.Lfunc_begin5:
	.loc	4 424 0 is_stmt 1               @ rt-thread/components/finsh/finsh_parser.c:424:0
	.fnstart
	.cfi_startproc
@ %bb.0:
	.save	{r7, lr}
	push	{r7, lr}
	.cfi_def_cfa_offset 8
	.cfi_offset lr, -4
	.cfi_offset r7, -8
	.pad	#24
	sub	sp, #24
	.cfi_def_cfa_offset 32
	str	r0, [sp, #16]
.Ltmp133:
	.loc	4 429 33 prologue_end           @ rt-thread/components/finsh/finsh_parser.c:429:33
	ldr	r0, [sp, #16]
	.loc	4 429 10 is_stmt 0              @ rt-thread/components/finsh/finsh_parser.c:429:10
	bl	proc_inclusive_or_expr
	.loc	4 429 8                         @ rt-thread/components/finsh/finsh_parser.c:429:8
	str	r0, [sp, #8]
	.loc	4 431 5 is_stmt 1               @ rt-thread/components/finsh/finsh_parser.c:431:5
	ldr	r0, [sp, #16]
	adds	r0, #4
	bl	finsh_token_token
	strb.w	r0, [sp, #15]
.Ltmp134:
	.loc	4 433 9                         @ rt-thread/components/finsh/finsh_parser.c:433:9
	ldrb.w	r0, [sp, #15]
.Ltmp135:
	.loc	4 433 9 is_stmt 0               @ rt-thread/components/finsh/finsh_parser.c:433:9
	cmp	r0, #12
	bne	.LBB5_2
	b	.LBB5_1
.LBB5_1:
.Ltmp136:
	.loc	4 435 35 is_stmt 1              @ rt-thread/components/finsh/finsh_parser.c:435:35
	ldr	r0, [sp, #16]
	.loc	4 435 18 is_stmt 0              @ rt-thread/components/finsh/finsh_parser.c:435:18
	bl	proc_assign_expr
	.loc	4 435 16                        @ rt-thread/components/finsh/finsh_parser.c:435:16
	str	r0, [sp, #4]
	.loc	4 437 53 is_stmt 1              @ rt-thread/components/finsh/finsh_parser.c:437:53
	ldr	r1, [sp, #8]
	.loc	4 437 57 is_stmt 0              @ rt-thread/components/finsh/finsh_parser.c:437:57
	ldr	r2, [sp, #4]
	movs	r0, #19
	.loc	4 437 16                        @ rt-thread/components/finsh/finsh_parser.c:437:16
	bl	make_sys_node
	.loc	4 437 9                         @ rt-thread/components/finsh/finsh_parser.c:437:9
	str	r0, [sp, #20]
	b	.LBB5_4
.Ltmp137:
.LBB5_2:
	.loc	4 439 10 is_stmt 1              @ rt-thread/components/finsh/finsh_parser.c:439:10
	ldr	r1, [sp, #16]
	movs	r0, #1
	strb	r0, [r1, #5]
	b	.LBB5_3
.Ltmp138:
.LBB5_3:
	.loc	4 441 12                        @ rt-thread/components/finsh/finsh_parser.c:441:12
	ldr	r0, [sp, #8]
	.loc	4 441 5 is_stmt 0               @ rt-thread/components/finsh/finsh_parser.c:441:5
	str	r0, [sp, #20]
	b	.LBB5_4
.LBB5_4:
	.loc	4 442 1 is_stmt 1               @ rt-thread/components/finsh/finsh_parser.c:442:1
	ldr	r0, [sp, #20]
	add	sp, #24
	pop	{r7, pc}
.Ltmp139:
.Lfunc_end5:
	.size	proc_assign_expr, .Lfunc_end5-proc_assign_expr
	.cfi_endproc
	.cantunwind
	.fnend
                                        @ -- End function
	.section	.text.proc_inclusive_or_expr,"ax",%progbits
	.p2align	3                               @ -- Begin function proc_inclusive_or_expr
	.type	proc_inclusive_or_expr,%function
	.code	16                              @ @proc_inclusive_or_expr
	.thumb_func
proc_inclusive_or_expr:
.Lfunc_begin6:
	.loc	4 449 0                         @ rt-thread/components/finsh/finsh_parser.c:449:0
	.fnstart
	.cfi_startproc
@ %bb.0:
	.save	{r7, lr}
	push	{r7, lr}
	.cfi_def_cfa_offset 8
	.cfi_offset lr, -4
	.cfi_offset r7, -8
	.pad	#16
	sub	sp, #16
	.cfi_def_cfa_offset 24
	str	r0, [sp, #12]
.Ltmp140:
	.loc	4 454 34 prologue_end           @ rt-thread/components/finsh/finsh_parser.c:454:34
	ldr	r0, [sp, #12]
	.loc	4 454 11 is_stmt 0              @ rt-thread/components/finsh/finsh_parser.c:454:11
	bl	proc_exclusive_or_expr
	.loc	4 454 9                         @ rt-thread/components/finsh/finsh_parser.c:454:9
	str	r0, [sp, #4]
	.loc	4 456 5 is_stmt 1               @ rt-thread/components/finsh/finsh_parser.c:456:5
	ldr	r0, [sp, #12]
	adds	r0, #4
	bl	finsh_token_token
	strb.w	r0, [sp, #11]
	.loc	4 457 5                         @ rt-thread/components/finsh/finsh_parser.c:457:5
	b	.LBB6_1
.LBB6_1:                                @ =>This Inner Loop Header: Depth=1
	.loc	4 457 13 is_stmt 0              @ rt-thread/components/finsh/finsh_parser.c:457:13
	ldrb.w	r0, [sp, #11]
	.loc	4 457 5                         @ rt-thread/components/finsh/finsh_parser.c:457:5
	cmp	r0, #14
	bne	.LBB6_6
	b	.LBB6_2
.LBB6_2:                                @   in Loop: Header=BB6_1 Depth=1
.Ltmp141:
	.loc	4 459 42 is_stmt 1              @ rt-thread/components/finsh/finsh_parser.c:459:42
	ldr	r0, [sp, #12]
	.loc	4 459 19 is_stmt 0              @ rt-thread/components/finsh/finsh_parser.c:459:19
	bl	proc_exclusive_or_expr
	.loc	4 459 17                        @ rt-thread/components/finsh/finsh_parser.c:459:17
	str	r0, [sp]
.Ltmp142:
	.loc	4 461 13 is_stmt 1              @ rt-thread/components/finsh/finsh_parser.c:461:13
	ldr	r0, [sp]
.Ltmp143:
	.loc	4 461 13 is_stmt 0              @ rt-thread/components/finsh/finsh_parser.c:461:13
	cbnz	r0, .LBB6_4
	b	.LBB6_3
.LBB6_3:                                @   in Loop: Header=BB6_1 Depth=1
	.loc	4 0 13                          @ rt-thread/components/finsh/finsh_parser.c:0:13
	movs	r0, #5
.Ltmp144:
	.loc	4 461 30                        @ rt-thread/components/finsh/finsh_parser.c:461:30
	bl	finsh_error_set
	b	.LBB6_5
.LBB6_4:                                @   in Loop: Header=BB6_1 Depth=1
	.loc	4 462 53 is_stmt 1              @ rt-thread/components/finsh/finsh_parser.c:462:53
	ldr	r1, [sp, #4]
	.loc	4 462 58 is_stmt 0              @ rt-thread/components/finsh/finsh_parser.c:462:58
	ldr	r2, [sp]
	movs	r0, #13
	.loc	4 462 20                        @ rt-thread/components/finsh/finsh_parser.c:462:20
	bl	make_sys_node
	.loc	4 462 18                        @ rt-thread/components/finsh/finsh_parser.c:462:18
	str	r0, [sp, #4]
	b	.LBB6_5
.Ltmp145:
.LBB6_5:                                @   in Loop: Header=BB6_1 Depth=1
	.loc	4 464 9 is_stmt 1               @ rt-thread/components/finsh/finsh_parser.c:464:9
	ldr	r0, [sp, #12]
	adds	r0, #4
	bl	finsh_token_token
	strb.w	r0, [sp, #11]
.Ltmp146:
	.loc	4 457 5                         @ rt-thread/components/finsh/finsh_parser.c:457:5
	b	.LBB6_1
.LBB6_6:
	.loc	4 467 5                         @ rt-thread/components/finsh/finsh_parser.c:467:5
	ldr	r1, [sp, #12]
	movs	r0, #1
	strb	r0, [r1, #5]
	.loc	4 468 12                        @ rt-thread/components/finsh/finsh_parser.c:468:12
	ldr	r0, [sp, #4]
	.loc	4 468 5 is_stmt 0               @ rt-thread/components/finsh/finsh_parser.c:468:5
	add	sp, #16
	pop	{r7, pc}
.Ltmp147:
.Lfunc_end6:
	.size	proc_inclusive_or_expr, .Lfunc_end6-proc_inclusive_or_expr
	.cfi_endproc
	.cantunwind
	.fnend
                                        @ -- End function
	.section	.text.make_sys_node,"ax",%progbits
	.p2align	3                               @ -- Begin function make_sys_node
	.type	make_sys_node,%function
	.code	16                              @ @make_sys_node
	.thumb_func
make_sys_node:
.Lfunc_begin7:
	.loc	4 879 0 is_stmt 1               @ rt-thread/components/finsh/finsh_parser.c:879:0
	.fnstart
	.cfi_startproc
@ %bb.0:
	.save	{r7, lr}
	push	{r7, lr}
	.cfi_def_cfa_offset 8
	.cfi_offset lr, -4
	.cfi_offset r7, -8
	.pad	#16
	sub	sp, #16
	.cfi_def_cfa_offset 24
                                        @ kill: def $r3 killed $r0
	strb.w	r0, [sp, #15]
	str	r1, [sp, #8]
	str	r2, [sp, #4]
.Ltmp148:
	.loc	4 882 32 prologue_end           @ rt-thread/components/finsh/finsh_parser.c:882:32
	ldrb.w	r0, [sp, #15]
	.loc	4 882 12 is_stmt 0              @ rt-thread/components/finsh/finsh_parser.c:882:12
	bl	finsh_node_allocate
	.loc	4 882 10                        @ rt-thread/components/finsh/finsh_parser.c:882:10
	str	r0, [sp]
.Ltmp149:
	.loc	4 884 10 is_stmt 1              @ rt-thread/components/finsh/finsh_parser.c:884:10
	ldr	r0, [sp, #8]
	.loc	4 884 25 is_stmt 0              @ rt-thread/components/finsh/finsh_parser.c:884:25
	cbz	r0, .LBB7_3
	b	.LBB7_1
.LBB7_1:
	.loc	4 884 29                        @ rt-thread/components/finsh/finsh_parser.c:884:29
	ldr	r0, [sp]
.Ltmp150:
	.loc	4 884 9                         @ rt-thread/components/finsh/finsh_parser.c:884:9
	cbz	r0, .LBB7_3
	b	.LBB7_2
.LBB7_2:
.Ltmp151:
	.loc	4 886 34 is_stmt 1              @ rt-thread/components/finsh/finsh_parser.c:886:34
	ldr	r0, [sp, #8]
	.loc	4 886 9 is_stmt 0               @ rt-thread/components/finsh/finsh_parser.c:886:9
	ldr	r1, [sp]
	.loc	4 886 32                        @ rt-thread/components/finsh/finsh_parser.c:886:32
	str	r0, [r1, #16]
	.loc	4 887 37 is_stmt 1              @ rt-thread/components/finsh/finsh_parser.c:887:37
	ldr	r0, [sp, #4]
	.loc	4 887 9 is_stmt 0               @ rt-thread/components/finsh/finsh_parser.c:887:9
	ldr	r1, [sp, #8]
	.loc	4 887 35                        @ rt-thread/components/finsh/finsh_parser.c:887:35
	str	r0, [r1, #12]
	.loc	4 888 5 is_stmt 1               @ rt-thread/components/finsh/finsh_parser.c:888:5
	b	.LBB7_4
.Ltmp152:
.LBB7_3:
	.loc	4 0 5 is_stmt 0                 @ rt-thread/components/finsh/finsh_parser.c:0:5
	movs	r0, #14
	.loc	4 889 10 is_stmt 1              @ rt-thread/components/finsh/finsh_parser.c:889:10
	bl	finsh_error_set
	b	.LBB7_4
.Ltmp153:
.LBB7_4:
	.loc	4 891 12                        @ rt-thread/components/finsh/finsh_parser.c:891:12
	ldr	r0, [sp]
	.loc	4 891 5 is_stmt 0               @ rt-thread/components/finsh/finsh_parser.c:891:5
	add	sp, #16
	pop	{r7, pc}
.Ltmp154:
.Lfunc_end7:
	.size	make_sys_node, .Lfunc_end7-make_sys_node
	.cfi_endproc
	.cantunwind
	.fnend
                                        @ -- End function
	.section	.text.proc_exclusive_or_expr,"ax",%progbits
	.p2align	3                               @ -- Begin function proc_exclusive_or_expr
	.type	proc_exclusive_or_expr,%function
	.code	16                              @ @proc_exclusive_or_expr
	.thumb_func
proc_exclusive_or_expr:
.Lfunc_begin8:
	.loc	4 476 0 is_stmt 1               @ rt-thread/components/finsh/finsh_parser.c:476:0
	.fnstart
	.cfi_startproc
@ %bb.0:
	.save	{r7, lr}
	push	{r7, lr}
	.cfi_def_cfa_offset 8
	.cfi_offset lr, -4
	.cfi_offset r7, -8
	.pad	#16
	sub	sp, #16
	.cfi_def_cfa_offset 24
	str	r0, [sp, #12]
.Ltmp155:
	.loc	4 481 25 prologue_end           @ rt-thread/components/finsh/finsh_parser.c:481:25
	ldr	r0, [sp, #12]
	.loc	4 481 11 is_stmt 0              @ rt-thread/components/finsh/finsh_parser.c:481:11
	bl	proc_and_expr
	.loc	4 481 9                         @ rt-thread/components/finsh/finsh_parser.c:481:9
	str	r0, [sp, #4]
	.loc	4 482 5 is_stmt 1               @ rt-thread/components/finsh/finsh_parser.c:482:5
	ldr	r0, [sp, #12]
	adds	r0, #4
	bl	finsh_token_token
	strb.w	r0, [sp, #11]
	.loc	4 483 5                         @ rt-thread/components/finsh/finsh_parser.c:483:5
	b	.LBB8_1
.LBB8_1:                                @ =>This Inner Loop Header: Depth=1
	.loc	4 483 13 is_stmt 0              @ rt-thread/components/finsh/finsh_parser.c:483:13
	ldrb.w	r0, [sp, #11]
	.loc	4 483 5                         @ rt-thread/components/finsh/finsh_parser.c:483:5
	cmp	r0, #15
	bne	.LBB8_6
	b	.LBB8_2
.LBB8_2:                                @   in Loop: Header=BB8_1 Depth=1
.Ltmp156:
	.loc	4 485 33 is_stmt 1              @ rt-thread/components/finsh/finsh_parser.c:485:33
	ldr	r0, [sp, #12]
	.loc	4 485 19 is_stmt 0              @ rt-thread/components/finsh/finsh_parser.c:485:19
	bl	proc_and_expr
	.loc	4 485 17                        @ rt-thread/components/finsh/finsh_parser.c:485:17
	str	r0, [sp]
.Ltmp157:
	.loc	4 486 13 is_stmt 1              @ rt-thread/components/finsh/finsh_parser.c:486:13
	ldr	r0, [sp]
.Ltmp158:
	.loc	4 486 13 is_stmt 0              @ rt-thread/components/finsh/finsh_parser.c:486:13
	cbnz	r0, .LBB8_4
	b	.LBB8_3
.LBB8_3:                                @   in Loop: Header=BB8_1 Depth=1
	.loc	4 0 13                          @ rt-thread/components/finsh/finsh_parser.c:0:13
	movs	r0, #5
.Ltmp159:
	.loc	4 486 30                        @ rt-thread/components/finsh/finsh_parser.c:486:30
	bl	finsh_error_set
	b	.LBB8_5
.LBB8_4:                                @   in Loop: Header=BB8_1 Depth=1
	.loc	4 487 54 is_stmt 1              @ rt-thread/components/finsh/finsh_parser.c:487:54
	ldr	r1, [sp, #4]
	.loc	4 487 59 is_stmt 0              @ rt-thread/components/finsh/finsh_parser.c:487:59
	ldr	r2, [sp]
	movs	r0, #14
	.loc	4 487 20                        @ rt-thread/components/finsh/finsh_parser.c:487:20
	bl	make_sys_node
	.loc	4 487 18                        @ rt-thread/components/finsh/finsh_parser.c:487:18
	str	r0, [sp, #4]
	b	.LBB8_5
.Ltmp160:
.LBB8_5:                                @   in Loop: Header=BB8_1 Depth=1
	.loc	4 489 9 is_stmt 1               @ rt-thread/components/finsh/finsh_parser.c:489:9
	ldr	r0, [sp, #12]
	adds	r0, #4
	bl	finsh_token_token
	strb.w	r0, [sp, #11]
.Ltmp161:
	.loc	4 483 5                         @ rt-thread/components/finsh/finsh_parser.c:483:5
	b	.LBB8_1
.LBB8_6:
	.loc	4 492 5                         @ rt-thread/components/finsh/finsh_parser.c:492:5
	ldr	r1, [sp, #12]
	movs	r0, #1
	strb	r0, [r1, #5]
	.loc	4 493 12                        @ rt-thread/components/finsh/finsh_parser.c:493:12
	ldr	r0, [sp, #4]
	.loc	4 493 5 is_stmt 0               @ rt-thread/components/finsh/finsh_parser.c:493:5
	add	sp, #16
	pop	{r7, pc}
.Ltmp162:
.Lfunc_end8:
	.size	proc_exclusive_or_expr, .Lfunc_end8-proc_exclusive_or_expr
	.cfi_endproc
	.cantunwind
	.fnend
                                        @ -- End function
	.section	.text.proc_and_expr,"ax",%progbits
	.p2align	3                               @ -- Begin function proc_and_expr
	.type	proc_and_expr,%function
	.code	16                              @ @proc_and_expr
	.thumb_func
proc_and_expr:
.Lfunc_begin9:
	.loc	4 501 0 is_stmt 1               @ rt-thread/components/finsh/finsh_parser.c:501:0
	.fnstart
	.cfi_startproc
@ %bb.0:
	.save	{r7, lr}
	push	{r7, lr}
	.cfi_def_cfa_offset 8
	.cfi_offset lr, -4
	.cfi_offset r7, -8
	.pad	#16
	sub	sp, #16
	.cfi_def_cfa_offset 24
	str	r0, [sp, #12]
.Ltmp163:
	.loc	4 506 29 prologue_end           @ rt-thread/components/finsh/finsh_parser.c:506:29
	ldr	r0, [sp, #12]
	.loc	4 506 13 is_stmt 0              @ rt-thread/components/finsh/finsh_parser.c:506:13
	bl	proc_shift_expr
	.loc	4 506 11                        @ rt-thread/components/finsh/finsh_parser.c:506:11
	str	r0, [sp, #4]
	.loc	4 508 5 is_stmt 1               @ rt-thread/components/finsh/finsh_parser.c:508:5
	ldr	r0, [sp, #12]
	adds	r0, #4
	bl	finsh_token_token
	strb.w	r0, [sp, #11]
	.loc	4 509 5                         @ rt-thread/components/finsh/finsh_parser.c:509:5
	b	.LBB9_1
.LBB9_1:                                @ =>This Inner Loop Header: Depth=1
	.loc	4 509 13 is_stmt 0              @ rt-thread/components/finsh/finsh_parser.c:509:13
	ldrb.w	r0, [sp, #11]
	.loc	4 509 5                         @ rt-thread/components/finsh/finsh_parser.c:509:5
	cmp	r0, #13
	bne	.LBB9_6
	b	.LBB9_2
.LBB9_2:                                @   in Loop: Header=BB9_1 Depth=1
.Ltmp164:
	.loc	4 511 37 is_stmt 1              @ rt-thread/components/finsh/finsh_parser.c:511:37
	ldr	r0, [sp, #12]
	.loc	4 511 21 is_stmt 0              @ rt-thread/components/finsh/finsh_parser.c:511:21
	bl	proc_shift_expr
	.loc	4 511 19                        @ rt-thread/components/finsh/finsh_parser.c:511:19
	str	r0, [sp]
.Ltmp165:
	.loc	4 513 13 is_stmt 1              @ rt-thread/components/finsh/finsh_parser.c:513:13
	ldr	r0, [sp]
.Ltmp166:
	.loc	4 513 13 is_stmt 0              @ rt-thread/components/finsh/finsh_parser.c:513:13
	cbnz	r0, .LBB9_4
	b	.LBB9_3
.LBB9_3:                                @   in Loop: Header=BB9_1 Depth=1
	.loc	4 0 13                          @ rt-thread/components/finsh/finsh_parser.c:0:13
	movs	r0, #5
.Ltmp167:
	.loc	4 513 32                        @ rt-thread/components/finsh/finsh_parser.c:513:32
	bl	finsh_error_set
	b	.LBB9_5
.LBB9_4:                                @   in Loop: Header=BB9_1 Depth=1
	.loc	4 514 56 is_stmt 1              @ rt-thread/components/finsh/finsh_parser.c:514:56
	ldr	r1, [sp, #4]
	.loc	4 514 63 is_stmt 0              @ rt-thread/components/finsh/finsh_parser.c:514:63
	ldr	r2, [sp]
	movs	r0, #12
	.loc	4 514 22                        @ rt-thread/components/finsh/finsh_parser.c:514:22
	bl	make_sys_node
	.loc	4 514 20                        @ rt-thread/components/finsh/finsh_parser.c:514:20
	str	r0, [sp, #4]
	b	.LBB9_5
.Ltmp168:
.LBB9_5:                                @   in Loop: Header=BB9_1 Depth=1
	.loc	4 516 9 is_stmt 1               @ rt-thread/components/finsh/finsh_parser.c:516:9
	ldr	r0, [sp, #12]
	adds	r0, #4
	bl	finsh_token_token
	strb.w	r0, [sp, #11]
.Ltmp169:
	.loc	4 509 5                         @ rt-thread/components/finsh/finsh_parser.c:509:5
	b	.LBB9_1
.LBB9_6:
	.loc	4 519 5                         @ rt-thread/components/finsh/finsh_parser.c:519:5
	ldr	r1, [sp, #12]
	movs	r0, #1
	strb	r0, [r1, #5]
	.loc	4 520 12                        @ rt-thread/components/finsh/finsh_parser.c:520:12
	ldr	r0, [sp, #4]
	.loc	4 520 5 is_stmt 0               @ rt-thread/components/finsh/finsh_parser.c:520:5
	add	sp, #16
	pop	{r7, pc}
.Ltmp170:
.Lfunc_end9:
	.size	proc_and_expr, .Lfunc_end9-proc_and_expr
	.cfi_endproc
	.cantunwind
	.fnend
                                        @ -- End function
	.section	.text.proc_shift_expr,"ax",%progbits
	.p2align	3                               @ -- Begin function proc_shift_expr
	.type	proc_shift_expr,%function
	.code	16                              @ @proc_shift_expr
	.thumb_func
proc_shift_expr:
.Lfunc_begin10:
	.loc	4 529 0 is_stmt 1               @ rt-thread/components/finsh/finsh_parser.c:529:0
	.fnstart
	.cfi_startproc
@ %bb.0:
	.save	{r7, lr}
	push	{r7, lr}
	.cfi_def_cfa_offset 8
	.cfi_offset lr, -4
	.cfi_offset r7, -8
	.pad	#24
	sub	sp, #24
	.cfi_def_cfa_offset 32
	str	r0, [sp, #20]
.Ltmp171:
	.loc	4 534 30 prologue_end           @ rt-thread/components/finsh/finsh_parser.c:534:30
	ldr	r0, [sp, #20]
	.loc	4 534 11 is_stmt 0              @ rt-thread/components/finsh/finsh_parser.c:534:11
	bl	proc_additive_expr
	.loc	4 534 9                         @ rt-thread/components/finsh/finsh_parser.c:534:9
	str	r0, [sp, #12]
	.loc	4 536 5 is_stmt 1               @ rt-thread/components/finsh/finsh_parser.c:536:5
	ldr	r0, [sp, #20]
	adds	r0, #4
	bl	finsh_token_token
	strb.w	r0, [sp, #19]
	.loc	4 537 5                         @ rt-thread/components/finsh/finsh_parser.c:537:5
	b	.LBB10_1
.LBB10_1:                               @ =>This Inner Loop Header: Depth=1
	.loc	4 537 13 is_stmt 0              @ rt-thread/components/finsh/finsh_parser.c:537:13
	ldrb.w	r1, [sp, #19]
	movs	r0, #1
	.loc	4 537 43                        @ rt-thread/components/finsh/finsh_parser.c:537:43
	cmp	r1, #17
	str	r0, [sp, #4]                    @ 4-byte Spill
	beq	.LBB10_3
	b	.LBB10_2
.LBB10_2:                               @   in Loop: Header=BB10_1 Depth=1
	.loc	4 537 46                        @ rt-thread/components/finsh/finsh_parser.c:537:46
	ldrb.w	r0, [sp, #19]
	.loc	4 537 52                        @ rt-thread/components/finsh/finsh_parser.c:537:52
	subs	r0, #18
	clz	r0, r0
	lsrs	r0, r0, #5
	.loc	4 537 43                        @ rt-thread/components/finsh/finsh_parser.c:537:43
	str	r0, [sp, #4]                    @ 4-byte Spill
	b	.LBB10_3
.LBB10_3:                               @   in Loop: Header=BB10_1 Depth=1
	.loc	4 0 43                          @ rt-thread/components/finsh/finsh_parser.c:0:43
	ldr	r0, [sp, #4]                    @ 4-byte Reload
	.loc	4 537 5                         @ rt-thread/components/finsh/finsh_parser.c:537:5
	lsls	r0, r0, #31
	cbz	r0, .LBB10_13
	b	.LBB10_4
.LBB10_4:                               @   in Loop: Header=BB10_1 Depth=1
.Ltmp172:
	.loc	4 539 38 is_stmt 1              @ rt-thread/components/finsh/finsh_parser.c:539:38
	ldr	r0, [sp, #20]
	.loc	4 539 19 is_stmt 0              @ rt-thread/components/finsh/finsh_parser.c:539:19
	bl	proc_additive_expr
	.loc	4 539 17                        @ rt-thread/components/finsh/finsh_parser.c:539:17
	str	r0, [sp, #8]
.Ltmp173:
	.loc	4 540 13 is_stmt 1              @ rt-thread/components/finsh/finsh_parser.c:540:13
	ldr	r0, [sp, #8]
.Ltmp174:
	.loc	4 540 13 is_stmt 0              @ rt-thread/components/finsh/finsh_parser.c:540:13
	cbnz	r0, .LBB10_6
	b	.LBB10_5
.LBB10_5:                               @   in Loop: Header=BB10_1 Depth=1
	.loc	4 0 13                          @ rt-thread/components/finsh/finsh_parser.c:0:13
	movs	r0, #5
.Ltmp175:
	.loc	4 540 30                        @ rt-thread/components/finsh/finsh_parser.c:540:30
	bl	finsh_error_set
	b	.LBB10_12
.LBB10_6:                               @   in Loop: Header=BB10_1 Depth=1
.Ltmp176:
	.loc	4 543 21 is_stmt 1              @ rt-thread/components/finsh/finsh_parser.c:543:21
	ldrb.w	r0, [sp, #19]
	.loc	4 543 13 is_stmt 0              @ rt-thread/components/finsh/finsh_parser.c:543:13
	mov	r1, r0
	str	r1, [sp]                        @ 4-byte Spill
	cmp	r0, #17
	beq	.LBB10_8
	b	.LBB10_7
.LBB10_7:                               @   in Loop: Header=BB10_1 Depth=1
	ldr	r0, [sp]                        @ 4-byte Reload
	cmp	r0, #18
	beq	.LBB10_9
	b	.LBB10_10
.LBB10_8:                               @   in Loop: Header=BB10_1 Depth=1
.Ltmp177:
	.loc	4 546 57 is_stmt 1              @ rt-thread/components/finsh/finsh_parser.c:546:57
	ldr	r1, [sp, #12]
	.loc	4 546 62 is_stmt 0              @ rt-thread/components/finsh/finsh_parser.c:546:62
	ldr	r2, [sp, #8]
	movs	r0, #16
	.loc	4 546 23                        @ rt-thread/components/finsh/finsh_parser.c:546:23
	bl	make_sys_node
	.loc	4 546 21                        @ rt-thread/components/finsh/finsh_parser.c:546:21
	str	r0, [sp, #12]
	.loc	4 547 17 is_stmt 1              @ rt-thread/components/finsh/finsh_parser.c:547:17
	b	.LBB10_11
.LBB10_9:                               @   in Loop: Header=BB10_1 Depth=1
	.loc	4 549 57                        @ rt-thread/components/finsh/finsh_parser.c:549:57
	ldr	r1, [sp, #12]
	.loc	4 549 62 is_stmt 0              @ rt-thread/components/finsh/finsh_parser.c:549:62
	ldr	r2, [sp, #8]
	movs	r0, #17
	.loc	4 549 23                        @ rt-thread/components/finsh/finsh_parser.c:549:23
	bl	make_sys_node
	.loc	4 549 21                        @ rt-thread/components/finsh/finsh_parser.c:549:21
	str	r0, [sp, #12]
	.loc	4 550 17 is_stmt 1              @ rt-thread/components/finsh/finsh_parser.c:550:17
	b	.LBB10_11
.LBB10_10:                              @   in Loop: Header=BB10_1 Depth=1
	.loc	4 0 17 is_stmt 0                @ rt-thread/components/finsh/finsh_parser.c:0:17
	movs	r0, #5
	.loc	4 552 17 is_stmt 1              @ rt-thread/components/finsh/finsh_parser.c:552:17
	bl	finsh_error_set
	.loc	4 553 17                        @ rt-thread/components/finsh/finsh_parser.c:553:17
	b	.LBB10_11
.Ltmp178:
.LBB10_11:                              @   in Loop: Header=BB10_1 Depth=1
	.loc	4 0 17 is_stmt 0                @ rt-thread/components/finsh/finsh_parser.c:0:17
	b	.LBB10_12
.LBB10_12:                              @   in Loop: Header=BB10_1 Depth=1
	.loc	4 556 9 is_stmt 1               @ rt-thread/components/finsh/finsh_parser.c:556:9
	ldr	r0, [sp, #20]
	adds	r0, #4
	bl	finsh_token_token
	strb.w	r0, [sp, #19]
.Ltmp179:
	.loc	4 537 5                         @ rt-thread/components/finsh/finsh_parser.c:537:5
	b	.LBB10_1
.LBB10_13:
	.loc	4 559 5                         @ rt-thread/components/finsh/finsh_parser.c:559:5
	ldr	r1, [sp, #20]
	movs	r0, #1
	strb	r0, [r1, #5]
	.loc	4 560 12                        @ rt-thread/components/finsh/finsh_parser.c:560:12
	ldr	r0, [sp, #12]
	.loc	4 560 5 is_stmt 0               @ rt-thread/components/finsh/finsh_parser.c:560:5
	add	sp, #24
	pop	{r7, pc}
.Ltmp180:
.Lfunc_end10:
	.size	proc_shift_expr, .Lfunc_end10-proc_shift_expr
	.cfi_endproc
	.cantunwind
	.fnend
                                        @ -- End function
	.section	.text.proc_additive_expr,"ax",%progbits
	.p2align	3                               @ -- Begin function proc_additive_expr
	.type	proc_additive_expr,%function
	.code	16                              @ @proc_additive_expr
	.thumb_func
proc_additive_expr:
.Lfunc_begin11:
	.loc	4 569 0 is_stmt 1               @ rt-thread/components/finsh/finsh_parser.c:569:0
	.fnstart
	.cfi_startproc
@ %bb.0:
	.save	{r7, lr}
	push	{r7, lr}
	.cfi_def_cfa_offset 8
	.cfi_offset lr, -4
	.cfi_offset r7, -8
	.pad	#24
	sub	sp, #24
	.cfi_def_cfa_offset 32
	str	r0, [sp, #20]
.Ltmp181:
	.loc	4 574 36 prologue_end           @ rt-thread/components/finsh/finsh_parser.c:574:36
	ldr	r0, [sp, #20]
	.loc	4 574 11 is_stmt 0              @ rt-thread/components/finsh/finsh_parser.c:574:11
	bl	proc_multiplicative_expr
	.loc	4 574 9                         @ rt-thread/components/finsh/finsh_parser.c:574:9
	str	r0, [sp, #12]
	.loc	4 576 5 is_stmt 1               @ rt-thread/components/finsh/finsh_parser.c:576:5
	ldr	r0, [sp, #20]
	adds	r0, #4
	bl	finsh_token_token
	strb.w	r0, [sp, #19]
	.loc	4 577 5                         @ rt-thread/components/finsh/finsh_parser.c:577:5
	b	.LBB11_1
.LBB11_1:                               @ =>This Inner Loop Header: Depth=1
	.loc	4 577 13 is_stmt 0              @ rt-thread/components/finsh/finsh_parser.c:577:13
	ldrb.w	r1, [sp, #19]
	movs	r0, #1
	.loc	4 577 43                        @ rt-thread/components/finsh/finsh_parser.c:577:43
	cmp	r1, #8
	str	r0, [sp, #4]                    @ 4-byte Spill
	beq	.LBB11_3
	b	.LBB11_2
.LBB11_2:                               @   in Loop: Header=BB11_1 Depth=1
	.loc	4 577 46                        @ rt-thread/components/finsh/finsh_parser.c:577:46
	ldrb.w	r0, [sp, #19]
	.loc	4 577 52                        @ rt-thread/components/finsh/finsh_parser.c:577:52
	subs	r0, #6
	clz	r0, r0
	lsrs	r0, r0, #5
	.loc	4 577 43                        @ rt-thread/components/finsh/finsh_parser.c:577:43
	str	r0, [sp, #4]                    @ 4-byte Spill
	b	.LBB11_3
.LBB11_3:                               @   in Loop: Header=BB11_1 Depth=1
	.loc	4 0 43                          @ rt-thread/components/finsh/finsh_parser.c:0:43
	ldr	r0, [sp, #4]                    @ 4-byte Reload
	.loc	4 577 5                         @ rt-thread/components/finsh/finsh_parser.c:577:5
	lsls	r0, r0, #31
	cbz	r0, .LBB11_13
	b	.LBB11_4
.LBB11_4:                               @   in Loop: Header=BB11_1 Depth=1
.Ltmp182:
	.loc	4 579 44 is_stmt 1              @ rt-thread/components/finsh/finsh_parser.c:579:44
	ldr	r0, [sp, #20]
	.loc	4 579 19 is_stmt 0              @ rt-thread/components/finsh/finsh_parser.c:579:19
	bl	proc_multiplicative_expr
	.loc	4 579 17                        @ rt-thread/components/finsh/finsh_parser.c:579:17
	str	r0, [sp, #8]
.Ltmp183:
	.loc	4 580 13 is_stmt 1              @ rt-thread/components/finsh/finsh_parser.c:580:13
	ldr	r0, [sp, #8]
.Ltmp184:
	.loc	4 580 13 is_stmt 0              @ rt-thread/components/finsh/finsh_parser.c:580:13
	cbnz	r0, .LBB11_6
	b	.LBB11_5
.LBB11_5:                               @   in Loop: Header=BB11_1 Depth=1
	.loc	4 0 13                          @ rt-thread/components/finsh/finsh_parser.c:0:13
	movs	r0, #5
.Ltmp185:
	.loc	4 580 30                        @ rt-thread/components/finsh/finsh_parser.c:580:30
	bl	finsh_error_set
	b	.LBB11_12
.LBB11_6:                               @   in Loop: Header=BB11_1 Depth=1
.Ltmp186:
	.loc	4 583 21 is_stmt 1              @ rt-thread/components/finsh/finsh_parser.c:583:21
	ldrb.w	r0, [sp, #19]
	.loc	4 583 13 is_stmt 0              @ rt-thread/components/finsh/finsh_parser.c:583:13
	mov	r1, r0
	str	r1, [sp]                        @ 4-byte Spill
	cmp	r0, #6
	beq	.LBB11_9
	b	.LBB11_7
.LBB11_7:                               @   in Loop: Header=BB11_1 Depth=1
	ldr	r0, [sp]                        @ 4-byte Reload
	cmp	r0, #8
	bne	.LBB11_10
	b	.LBB11_8
.LBB11_8:                               @   in Loop: Header=BB11_1 Depth=1
.Ltmp187:
	.loc	4 586 57 is_stmt 1              @ rt-thread/components/finsh/finsh_parser.c:586:57
	ldr	r1, [sp, #12]
	.loc	4 586 62 is_stmt 0              @ rt-thread/components/finsh/finsh_parser.c:586:62
	ldr	r2, [sp, #8]
	movs	r0, #8
	.loc	4 586 23                        @ rt-thread/components/finsh/finsh_parser.c:586:23
	bl	make_sys_node
	.loc	4 586 21                        @ rt-thread/components/finsh/finsh_parser.c:586:21
	str	r0, [sp, #12]
	.loc	4 587 17 is_stmt 1              @ rt-thread/components/finsh/finsh_parser.c:587:17
	b	.LBB11_11
.LBB11_9:                               @   in Loop: Header=BB11_1 Depth=1
	.loc	4 589 57                        @ rt-thread/components/finsh/finsh_parser.c:589:57
	ldr	r1, [sp, #12]
	.loc	4 589 62 is_stmt 0              @ rt-thread/components/finsh/finsh_parser.c:589:62
	ldr	r2, [sp, #8]
	movs	r0, #7
	.loc	4 589 23                        @ rt-thread/components/finsh/finsh_parser.c:589:23
	bl	make_sys_node
	.loc	4 589 21                        @ rt-thread/components/finsh/finsh_parser.c:589:21
	str	r0, [sp, #12]
	.loc	4 590 17 is_stmt 1              @ rt-thread/components/finsh/finsh_parser.c:590:17
	b	.LBB11_11
.LBB11_10:                              @   in Loop: Header=BB11_1 Depth=1
	.loc	4 0 17 is_stmt 0                @ rt-thread/components/finsh/finsh_parser.c:0:17
	movs	r0, #5
	.loc	4 592 17 is_stmt 1              @ rt-thread/components/finsh/finsh_parser.c:592:17
	bl	finsh_error_set
	.loc	4 593 17                        @ rt-thread/components/finsh/finsh_parser.c:593:17
	b	.LBB11_11
.Ltmp188:
.LBB11_11:                              @   in Loop: Header=BB11_1 Depth=1
	.loc	4 0 17 is_stmt 0                @ rt-thread/components/finsh/finsh_parser.c:0:17
	b	.LBB11_12
.LBB11_12:                              @   in Loop: Header=BB11_1 Depth=1
	.loc	4 596 9 is_stmt 1               @ rt-thread/components/finsh/finsh_parser.c:596:9
	ldr	r0, [sp, #20]
	adds	r0, #4
	bl	finsh_token_token
	strb.w	r0, [sp, #19]
.Ltmp189:
	.loc	4 577 5                         @ rt-thread/components/finsh/finsh_parser.c:577:5
	b	.LBB11_1
.LBB11_13:
	.loc	4 599 5                         @ rt-thread/components/finsh/finsh_parser.c:599:5
	ldr	r1, [sp, #20]
	movs	r0, #1
	strb	r0, [r1, #5]
	.loc	4 600 12                        @ rt-thread/components/finsh/finsh_parser.c:600:12
	ldr	r0, [sp, #12]
	.loc	4 600 5 is_stmt 0               @ rt-thread/components/finsh/finsh_parser.c:600:5
	add	sp, #24
	pop	{r7, pc}
.Ltmp190:
.Lfunc_end11:
	.size	proc_additive_expr, .Lfunc_end11-proc_additive_expr
	.cfi_endproc
	.cantunwind
	.fnend
                                        @ -- End function
	.section	.text.proc_multiplicative_expr,"ax",%progbits
	.p2align	3                               @ -- Begin function proc_multiplicative_expr
	.type	proc_multiplicative_expr,%function
	.code	16                              @ @proc_multiplicative_expr
	.thumb_func
proc_multiplicative_expr:
.Lfunc_begin12:
	.loc	4 610 0 is_stmt 1               @ rt-thread/components/finsh/finsh_parser.c:610:0
	.fnstart
	.cfi_startproc
@ %bb.0:
	.save	{r7, lr}
	push	{r7, lr}
	.cfi_def_cfa_offset 8
	.cfi_offset lr, -4
	.cfi_offset r7, -8
	.pad	#24
	sub	sp, #24
	.cfi_def_cfa_offset 32
	str	r0, [sp, #20]
.Ltmp191:
	.loc	4 615 27 prologue_end           @ rt-thread/components/finsh/finsh_parser.c:615:27
	ldr	r0, [sp, #20]
	.loc	4 615 12 is_stmt 0              @ rt-thread/components/finsh/finsh_parser.c:615:12
	bl	proc_cast_expr
	.loc	4 615 10                        @ rt-thread/components/finsh/finsh_parser.c:615:10
	str	r0, [sp, #12]
	.loc	4 616 5 is_stmt 1               @ rt-thread/components/finsh/finsh_parser.c:616:5
	ldr	r0, [sp, #20]
	adds	r0, #4
	bl	finsh_token_token
	strb.w	r0, [sp, #19]
	.loc	4 617 5                         @ rt-thread/components/finsh/finsh_parser.c:617:5
	b	.LBB12_1
.LBB12_1:                               @ =>This Inner Loop Header: Depth=1
	.loc	4 617 12 is_stmt 0              @ rt-thread/components/finsh/finsh_parser.c:617:12
	ldrb.w	r1, [sp, #19]
	movs	r0, #1
	.loc	4 617 42                        @ rt-thread/components/finsh/finsh_parser.c:617:42
	cmp	r1, #5
	str	r0, [sp, #4]                    @ 4-byte Spill
	beq	.LBB12_4
	b	.LBB12_2
.LBB12_2:                               @   in Loop: Header=BB12_1 Depth=1
	.loc	4 618 9 is_stmt 1               @ rt-thread/components/finsh/finsh_parser.c:618:9
	ldrb.w	r1, [sp, #19]
	movs	r0, #1
	.loc	4 618 39 is_stmt 0              @ rt-thread/components/finsh/finsh_parser.c:618:39
	cmp	r1, #10
	str	r0, [sp, #4]                    @ 4-byte Spill
	beq	.LBB12_4
	b	.LBB12_3
.LBB12_3:                               @   in Loop: Header=BB12_1 Depth=1
	.loc	4 619 9 is_stmt 1               @ rt-thread/components/finsh/finsh_parser.c:619:9
	ldrb.w	r0, [sp, #19]
	.loc	4 619 15 is_stmt 0              @ rt-thread/components/finsh/finsh_parser.c:619:15
	subs	r0, #11
	clz	r0, r0
	lsrs	r0, r0, #5
	.loc	4 618 39 is_stmt 1              @ rt-thread/components/finsh/finsh_parser.c:618:39
	str	r0, [sp, #4]                    @ 4-byte Spill
	b	.LBB12_4
.LBB12_4:                               @   in Loop: Header=BB12_1 Depth=1
	.loc	4 0 39 is_stmt 0                @ rt-thread/components/finsh/finsh_parser.c:0:39
	ldr	r0, [sp, #4]                    @ 4-byte Reload
	.loc	4 617 5 is_stmt 1               @ rt-thread/components/finsh/finsh_parser.c:617:5
	lsls	r0, r0, #31
	cbz	r0, .LBB12_16
	b	.LBB12_5
.LBB12_5:                               @   in Loop: Header=BB12_1 Depth=1
.Ltmp192:
	.loc	4 621 35                        @ rt-thread/components/finsh/finsh_parser.c:621:35
	ldr	r0, [sp, #20]
	.loc	4 621 20 is_stmt 0              @ rt-thread/components/finsh/finsh_parser.c:621:20
	bl	proc_cast_expr
	.loc	4 621 18                        @ rt-thread/components/finsh/finsh_parser.c:621:18
	str	r0, [sp, #8]
.Ltmp193:
	.loc	4 622 13 is_stmt 1              @ rt-thread/components/finsh/finsh_parser.c:622:13
	ldr	r0, [sp, #8]
.Ltmp194:
	.loc	4 622 13 is_stmt 0              @ rt-thread/components/finsh/finsh_parser.c:622:13
	cbnz	r0, .LBB12_7
	b	.LBB12_6
.LBB12_6:                               @   in Loop: Header=BB12_1 Depth=1
	.loc	4 0 13                          @ rt-thread/components/finsh/finsh_parser.c:0:13
	movs	r0, #5
.Ltmp195:
	.loc	4 622 31                        @ rt-thread/components/finsh/finsh_parser.c:622:31
	bl	finsh_error_set
	b	.LBB12_15
.LBB12_7:                               @   in Loop: Header=BB12_1 Depth=1
.Ltmp196:
	.loc	4 625 21 is_stmt 1              @ rt-thread/components/finsh/finsh_parser.c:625:21
	ldrb.w	r0, [sp, #19]
	.loc	4 625 13 is_stmt 0              @ rt-thread/components/finsh/finsh_parser.c:625:13
	mov	r1, r0
	str	r1, [sp]                        @ 4-byte Spill
	cmp	r0, #5
	beq	.LBB12_10
	b	.LBB12_8
.LBB12_8:                               @   in Loop: Header=BB12_1 Depth=1
	ldr	r0, [sp]                        @ 4-byte Reload
	cmp	r0, #10
	beq	.LBB12_11
	b	.LBB12_9
.LBB12_9:                               @   in Loop: Header=BB12_1 Depth=1
	ldr	r0, [sp]                        @ 4-byte Reload
	cmp	r0, #11
	beq	.LBB12_12
	b	.LBB12_13
.LBB12_10:                              @   in Loop: Header=BB12_1 Depth=1
.Ltmp197:
	.loc	4 628 58 is_stmt 1              @ rt-thread/components/finsh/finsh_parser.c:628:58
	ldr	r1, [sp, #12]
	.loc	4 628 64 is_stmt 0              @ rt-thread/components/finsh/finsh_parser.c:628:64
	ldr	r2, [sp, #8]
	movs	r0, #9
	.loc	4 628 24                        @ rt-thread/components/finsh/finsh_parser.c:628:24
	bl	make_sys_node
	.loc	4 628 22                        @ rt-thread/components/finsh/finsh_parser.c:628:22
	str	r0, [sp, #12]
	.loc	4 629 17 is_stmt 1              @ rt-thread/components/finsh/finsh_parser.c:629:17
	b	.LBB12_14
.LBB12_11:                              @   in Loop: Header=BB12_1 Depth=1
	.loc	4 632 58                        @ rt-thread/components/finsh/finsh_parser.c:632:58
	ldr	r1, [sp, #12]
	.loc	4 632 64 is_stmt 0              @ rt-thread/components/finsh/finsh_parser.c:632:64
	ldr	r2, [sp, #8]
	movs	r0, #10
	.loc	4 632 24                        @ rt-thread/components/finsh/finsh_parser.c:632:24
	bl	make_sys_node
	.loc	4 632 22                        @ rt-thread/components/finsh/finsh_parser.c:632:22
	str	r0, [sp, #12]
	.loc	4 633 17 is_stmt 1              @ rt-thread/components/finsh/finsh_parser.c:633:17
	b	.LBB12_14
.LBB12_12:                              @   in Loop: Header=BB12_1 Depth=1
	.loc	4 636 58                        @ rt-thread/components/finsh/finsh_parser.c:636:58
	ldr	r1, [sp, #12]
	.loc	4 636 64 is_stmt 0              @ rt-thread/components/finsh/finsh_parser.c:636:64
	ldr	r2, [sp, #8]
	movs	r0, #11
	.loc	4 636 24                        @ rt-thread/components/finsh/finsh_parser.c:636:24
	bl	make_sys_node
	.loc	4 636 22                        @ rt-thread/components/finsh/finsh_parser.c:636:22
	str	r0, [sp, #12]
	.loc	4 637 17 is_stmt 1              @ rt-thread/components/finsh/finsh_parser.c:637:17
	b	.LBB12_14
.LBB12_13:                              @   in Loop: Header=BB12_1 Depth=1
	.loc	4 0 17 is_stmt 0                @ rt-thread/components/finsh/finsh_parser.c:0:17
	movs	r0, #5
	.loc	4 640 17 is_stmt 1              @ rt-thread/components/finsh/finsh_parser.c:640:17
	bl	finsh_error_set
	.loc	4 641 17                        @ rt-thread/components/finsh/finsh_parser.c:641:17
	b	.LBB12_14
.Ltmp198:
.LBB12_14:                              @   in Loop: Header=BB12_1 Depth=1
	.loc	4 0 17 is_stmt 0                @ rt-thread/components/finsh/finsh_parser.c:0:17
	b	.LBB12_15
.LBB12_15:                              @   in Loop: Header=BB12_1 Depth=1
	.loc	4 644 9 is_stmt 1               @ rt-thread/components/finsh/finsh_parser.c:644:9
	ldr	r0, [sp, #20]
	adds	r0, #4
	bl	finsh_token_token
	strb.w	r0, [sp, #19]
.Ltmp199:
	.loc	4 617 5                         @ rt-thread/components/finsh/finsh_parser.c:617:5
	b	.LBB12_1
.LBB12_16:
	.loc	4 647 5                         @ rt-thread/components/finsh/finsh_parser.c:647:5
	ldr	r1, [sp, #20]
	movs	r0, #1
	strb	r0, [r1, #5]
	.loc	4 648 12                        @ rt-thread/components/finsh/finsh_parser.c:648:12
	ldr	r0, [sp, #12]
	.loc	4 648 5 is_stmt 0               @ rt-thread/components/finsh/finsh_parser.c:648:5
	add	sp, #24
	pop	{r7, pc}
.Ltmp200:
.Lfunc_end12:
	.size	proc_multiplicative_expr, .Lfunc_end12-proc_multiplicative_expr
	.cfi_endproc
	.cantunwind
	.fnend
                                        @ -- End function
	.section	.text.proc_cast_expr,"ax",%progbits
	.p2align	3                               @ -- Begin function proc_cast_expr
	.type	proc_cast_expr,%function
	.code	16                              @ @proc_cast_expr
	.thumb_func
proc_cast_expr:
.Lfunc_begin13:
	.loc	4 657 0 is_stmt 1               @ rt-thread/components/finsh/finsh_parser.c:657:0
	.fnstart
	.cfi_startproc
@ %bb.0:
	.save	{r7, lr}
	push	{r7, lr}
	.cfi_def_cfa_offset 8
	.cfi_offset lr, -4
	.cfi_offset r7, -8
	.pad	#24
	sub	sp, #24
	.cfi_def_cfa_offset 32
	str	r0, [sp, #16]
.Ltmp201:
	.loc	4 662 5 prologue_end            @ rt-thread/components/finsh/finsh_parser.c:662:5
	ldr	r0, [sp, #16]
	adds	r0, #4
	bl	finsh_token_token
	strb.w	r0, [sp, #15]
.Ltmp202:
	.loc	4 663 9                         @ rt-thread/components/finsh/finsh_parser.c:663:9
	ldrb.w	r0, [sp, #15]
.Ltmp203:
	.loc	4 663 9 is_stmt 0               @ rt-thread/components/finsh/finsh_parser.c:663:9
	cmp	r0, #1
	bne	.LBB13_6
	b	.LBB13_1
.LBB13_1:
.Ltmp204:
	.loc	4 665 26 is_stmt 1              @ rt-thread/components/finsh/finsh_parser.c:665:26
	ldr	r0, [sp, #16]
	.loc	4 665 16 is_stmt 0              @ rt-thread/components/finsh/finsh_parser.c:665:16
	bl	proc_type
	.loc	4 665 14                        @ rt-thread/components/finsh/finsh_parser.c:665:14
	strb.w	r0, [sp, #14]
	.loc	4 666 9 is_stmt 1               @ rt-thread/components/finsh/finsh_parser.c:666:9
	ldr	r0, [sp, #16]
	adds	r0, #4
	bl	finsh_token_token
	strb.w	r0, [sp, #15]
.Ltmp205:
	.loc	4 666 9 is_stmt 0               @ rt-thread/components/finsh/finsh_parser.c:666:9
	ldrb.w	r0, [sp, #15]
.Ltmp206:
	.loc	4 666 9                         @ rt-thread/components/finsh/finsh_parser.c:666:9
	cmp	r0, #2
	beq	.LBB13_3
	b	.LBB13_2
.LBB13_2:
	.loc	4 0 9                           @ rt-thread/components/finsh/finsh_parser.c:0:9
	movs	r0, #1
.Ltmp207:
	.loc	4 666 9                         @ rt-thread/components/finsh/finsh_parser.c:666:9
	str	r0, [sp, #4]                    @ 4-byte Spill
	bl	finsh_error_set
                                        @ kill: def $r1 killed $r0
	ldr	r0, [sp, #4]                    @ 4-byte Reload
	ldr	r1, [sp, #16]
	strb	r0, [r1, #5]
	b	.LBB13_3
.Ltmp208:
.LBB13_3:
	.loc	4 668 31 is_stmt 1              @ rt-thread/components/finsh/finsh_parser.c:668:31
	ldr	r0, [sp, #16]
	.loc	4 668 16 is_stmt 0              @ rt-thread/components/finsh/finsh_parser.c:668:16
	bl	proc_cast_expr
	.loc	4 668 14                        @ rt-thread/components/finsh/finsh_parser.c:668:14
	str	r0, [sp, #8]
.Ltmp209:
	.loc	4 669 13 is_stmt 1              @ rt-thread/components/finsh/finsh_parser.c:669:13
	ldr	r0, [sp, #8]
.Ltmp210:
	.loc	4 669 13 is_stmt 0              @ rt-thread/components/finsh/finsh_parser.c:669:13
	cbz	r0, .LBB13_5
	b	.LBB13_4
.LBB13_4:
.Ltmp211:
	.loc	4 671 31 is_stmt 1              @ rt-thread/components/finsh/finsh_parser.c:671:31
	ldrb.w	r0, [sp, #14]
	.loc	4 671 13 is_stmt 0              @ rt-thread/components/finsh/finsh_parser.c:671:13
	ldr	r1, [sp, #8]
	.loc	4 671 29                        @ rt-thread/components/finsh/finsh_parser.c:671:29
	strb	r0, [r1, #1]
	.loc	4 672 20 is_stmt 1              @ rt-thread/components/finsh/finsh_parser.c:672:20
	ldr	r0, [sp, #8]
	.loc	4 672 13 is_stmt 0              @ rt-thread/components/finsh/finsh_parser.c:672:13
	str	r0, [sp, #20]
	b	.LBB13_7
.Ltmp212:
.LBB13_5:
	.loc	4 674 5 is_stmt 1               @ rt-thread/components/finsh/finsh_parser.c:674:5
	b	.LBB13_6
.Ltmp213:
.LBB13_6:
	.loc	4 676 5                         @ rt-thread/components/finsh/finsh_parser.c:676:5
	ldr	r1, [sp, #16]
	movs	r0, #1
	strb	r0, [r1, #5]
	.loc	4 677 28                        @ rt-thread/components/finsh/finsh_parser.c:677:28
	ldr	r0, [sp, #16]
	.loc	4 677 12 is_stmt 0              @ rt-thread/components/finsh/finsh_parser.c:677:12
	bl	proc_unary_expr
	.loc	4 677 5                         @ rt-thread/components/finsh/finsh_parser.c:677:5
	str	r0, [sp, #20]
	b	.LBB13_7
.LBB13_7:
	.loc	4 678 1 is_stmt 1               @ rt-thread/components/finsh/finsh_parser.c:678:1
	ldr	r0, [sp, #20]
	add	sp, #24
	pop	{r7, pc}
.Ltmp214:
.Lfunc_end13:
	.size	proc_cast_expr, .Lfunc_end13-proc_cast_expr
	.cfi_endproc
	.cantunwind
	.fnend
                                        @ -- End function
	.section	.text.proc_type,"ax",%progbits
	.p2align	3                               @ -- Begin function proc_type
	.type	proc_type,%function
	.code	16                              @ @proc_type
	.thumb_func
proc_type:
.Lfunc_begin14:
	.loc	4 255 0                         @ rt-thread/components/finsh/finsh_parser.c:255:0
	.fnstart
	.cfi_startproc
@ %bb.0:
	.save	{r7, lr}
	push	{r7, lr}
	.cfi_def_cfa_offset 8
	.cfi_offset lr, -4
	.cfi_offset r7, -8
	.pad	#24
	sub	sp, #24
	.cfi_def_cfa_offset 32
	str	r0, [sp, #16]
	movs	r0, #0
.Ltmp215:
	.loc	4 260 10 prologue_end           @ rt-thread/components/finsh/finsh_parser.c:260:10
	strb.w	r0, [sp, #15]
	.loc	4 262 5                         @ rt-thread/components/finsh/finsh_parser.c:262:5
	ldr	r0, [sp, #16]
	adds	r0, #4
	bl	finsh_token_token
	strb.w	r0, [sp, #14]
.Ltmp216:
	.loc	4 263 10                        @ rt-thread/components/finsh/finsh_parser.c:263:10
	ldrb.w	r0, [sp, #14]
	cmp	r0, #20
	beq	.LBB14_5
	b	.LBB14_1
.LBB14_1:
	ldrb.w	r0, [sp, #14]
	cmp	r0, #21
	beq	.LBB14_5
	b	.LBB14_2
.LBB14_2:
	ldrb.w	r0, [sp, #14]
	cmp	r0, #22
	beq	.LBB14_5
	b	.LBB14_3
.LBB14_3:
	ldrb.w	r0, [sp, #14]
	cmp	r0, #23
	beq	.LBB14_5
	b	.LBB14_4
.LBB14_4:
	ldrb.w	r0, [sp, #14]
.Ltmp217:
	.loc	4 263 10 is_stmt 0              @ rt-thread/components/finsh/finsh_parser.c:263:10
	cmp	r0, #24
	bne	.LBB14_15
	b	.LBB14_5
.LBB14_5:
.Ltmp218:
	.loc	4 265 17 is_stmt 1              @ rt-thread/components/finsh/finsh_parser.c:265:17
	ldrb.w	r0, [sp, #14]
	.loc	4 265 9 is_stmt 0               @ rt-thread/components/finsh/finsh_parser.c:265:9
	subs	r0, #20
	mov	r1, r0
	str	r1, [sp, #8]                    @ 4-byte Spill
	cmp	r0, #4
	bhi	.LBB14_13
@ %bb.6:
	.loc	4 0 9                           @ rt-thread/components/finsh/finsh_parser.c:0:9
	ldr	r1, [sp, #8]                    @ 4-byte Reload
.LCPI14_0:
	tbb	[pc, r1]
@ %bb.7:
.LJTI14_1:
	.byte	(.LBB14_8-(.LCPI14_0+4))/2
	.byte	(.LBB14_9-(.LCPI14_0+4))/2
	.byte	(.LBB14_10-(.LCPI14_0+4))/2
	.byte	(.LBB14_11-(.LCPI14_0+4))/2
	.byte	(.LBB14_12-(.LCPI14_0+4))/2
	.p2align	1
.LBB14_8:
	movs	r0, #1
.Ltmp219:
	.loc	4 268 18 is_stmt 1              @ rt-thread/components/finsh/finsh_parser.c:268:18
	strb.w	r0, [sp, #15]
	.loc	4 269 13                        @ rt-thread/components/finsh/finsh_parser.c:269:13
	b	.LBB14_14
.LBB14_9:
	.loc	4 0 13 is_stmt 0                @ rt-thread/components/finsh/finsh_parser.c:0:13
	movs	r0, #3
	.loc	4 272 18 is_stmt 1              @ rt-thread/components/finsh/finsh_parser.c:272:18
	strb.w	r0, [sp, #15]
	.loc	4 273 13                        @ rt-thread/components/finsh/finsh_parser.c:273:13
	b	.LBB14_14
.LBB14_10:
	.loc	4 0 13 is_stmt 0                @ rt-thread/components/finsh/finsh_parser.c:0:13
	movs	r0, #6
	.loc	4 276 18 is_stmt 1              @ rt-thread/components/finsh/finsh_parser.c:276:18
	strb.w	r0, [sp, #15]
	.loc	4 277 13                        @ rt-thread/components/finsh/finsh_parser.c:277:13
	b	.LBB14_14
.LBB14_11:
	.loc	4 0 13 is_stmt 0                @ rt-thread/components/finsh/finsh_parser.c:0:13
	movs	r0, #9
	.loc	4 280 18 is_stmt 1              @ rt-thread/components/finsh/finsh_parser.c:280:18
	strb.w	r0, [sp, #15]
	.loc	4 281 13                        @ rt-thread/components/finsh/finsh_parser.c:281:13
	b	.LBB14_14
.LBB14_12:
	.loc	4 0 13 is_stmt 0                @ rt-thread/components/finsh/finsh_parser.c:0:13
	movs	r0, #12
	.loc	4 284 18 is_stmt 1              @ rt-thread/components/finsh/finsh_parser.c:284:18
	strb.w	r0, [sp, #15]
	.loc	4 285 13                        @ rt-thread/components/finsh/finsh_parser.c:285:13
	b	.LBB14_14
.LBB14_13:
	.loc	4 288 13                        @ rt-thread/components/finsh/finsh_parser.c:288:13
	b	.LBB14_47
.Ltmp220:
.LBB14_14:
	.loc	4 290 5                         @ rt-thread/components/finsh/finsh_parser.c:290:5
	b	.LBB14_34
.Ltmp221:
.LBB14_15:
	.loc	4 291 15                        @ rt-thread/components/finsh/finsh_parser.c:291:15
	ldrb.w	r0, [sp, #14]
.Ltmp222:
	.loc	4 291 15 is_stmt 0              @ rt-thread/components/finsh/finsh_parser.c:291:15
	cmp	r0, #25
	bne	.LBB14_32
	b	.LBB14_16
.LBB14_16:
.Ltmp223:
	.loc	4 293 9 is_stmt 1               @ rt-thread/components/finsh/finsh_parser.c:293:9
	ldr	r0, [sp, #16]
	adds	r0, #4
	bl	finsh_token_token
	strb.w	r0, [sp, #14]
.Ltmp224:
	.loc	4 294 14                        @ rt-thread/components/finsh/finsh_parser.c:294:14
	ldrb.w	r0, [sp, #14]
	cmp	r0, #20
	beq	.LBB14_21
	b	.LBB14_17
.LBB14_17:
	ldrb.w	r0, [sp, #14]
	cmp	r0, #21
	beq	.LBB14_21
	b	.LBB14_18
.LBB14_18:
	ldrb.w	r0, [sp, #14]
	cmp	r0, #22
	beq	.LBB14_21
	b	.LBB14_19
.LBB14_19:
	ldrb.w	r0, [sp, #14]
	cmp	r0, #23
	beq	.LBB14_21
	b	.LBB14_20
.LBB14_20:
	ldrb.w	r0, [sp, #14]
.Ltmp225:
	.loc	4 294 14 is_stmt 0              @ rt-thread/components/finsh/finsh_parser.c:294:14
	cmp	r0, #24
	bne	.LBB14_30
	b	.LBB14_21
.LBB14_21:
.Ltmp226:
	.loc	4 296 21 is_stmt 1              @ rt-thread/components/finsh/finsh_parser.c:296:21
	ldrb.w	r0, [sp, #14]
	.loc	4 296 13 is_stmt 0              @ rt-thread/components/finsh/finsh_parser.c:296:13
	subs	r0, #21
	mov	r1, r0
	str	r1, [sp, #4]                    @ 4-byte Spill
	cmp	r0, #3
	bhi	.LBB14_28
@ %bb.22:
	.loc	4 0 13                          @ rt-thread/components/finsh/finsh_parser.c:0:13
	ldr	r1, [sp, #4]                    @ 4-byte Reload
.LCPI14_1:
	tbb	[pc, r1]
@ %bb.23:
.LJTI14_0:
	.byte	(.LBB14_24-(.LCPI14_1+4))/2
	.byte	(.LBB14_25-(.LCPI14_1+4))/2
	.byte	(.LBB14_26-(.LCPI14_1+4))/2
	.byte	(.LBB14_27-(.LCPI14_1+4))/2
	.p2align	1
.LBB14_24:
	movs	r0, #4
.Ltmp227:
	.loc	4 299 22 is_stmt 1              @ rt-thread/components/finsh/finsh_parser.c:299:22
	strb.w	r0, [sp, #15]
	.loc	4 300 17                        @ rt-thread/components/finsh/finsh_parser.c:300:17
	b	.LBB14_29
.LBB14_25:
	.loc	4 0 17 is_stmt 0                @ rt-thread/components/finsh/finsh_parser.c:0:17
	movs	r0, #7
	.loc	4 303 22 is_stmt 1              @ rt-thread/components/finsh/finsh_parser.c:303:22
	strb.w	r0, [sp, #15]
	.loc	4 304 17                        @ rt-thread/components/finsh/finsh_parser.c:304:17
	b	.LBB14_29
.LBB14_26:
	.loc	4 0 17 is_stmt 0                @ rt-thread/components/finsh/finsh_parser.c:0:17
	movs	r0, #10
	.loc	4 307 22 is_stmt 1              @ rt-thread/components/finsh/finsh_parser.c:307:22
	strb.w	r0, [sp, #15]
	.loc	4 308 17                        @ rt-thread/components/finsh/finsh_parser.c:308:17
	b	.LBB14_29
.LBB14_27:
	.loc	4 0 17 is_stmt 0                @ rt-thread/components/finsh/finsh_parser.c:0:17
	movs	r0, #13
	.loc	4 311 22 is_stmt 1              @ rt-thread/components/finsh/finsh_parser.c:311:22
	strb.w	r0, [sp, #15]
	.loc	4 312 17                        @ rt-thread/components/finsh/finsh_parser.c:312:17
	b	.LBB14_29
.LBB14_28:
	.loc	4 315 17                        @ rt-thread/components/finsh/finsh_parser.c:315:17
	b	.LBB14_47
.Ltmp228:
.LBB14_29:
	.loc	4 317 9                         @ rt-thread/components/finsh/finsh_parser.c:317:9
	b	.LBB14_31
.Ltmp229:
.LBB14_30:
	.loc	4 320 13                        @ rt-thread/components/finsh/finsh_parser.c:320:13
	ldr	r1, [sp, #16]
	movs	r0, #1
	strb	r0, [r1, #5]
	movs	r0, #2
	.loc	4 321 13                        @ rt-thread/components/finsh/finsh_parser.c:321:13
	bl	finsh_error_set
	b	.LBB14_31
.Ltmp230:
.LBB14_31:
	.loc	4 323 5                         @ rt-thread/components/finsh/finsh_parser.c:323:5
	b	.LBB14_33
.Ltmp231:
.LBB14_32:
	.loc	4 326 9                         @ rt-thread/components/finsh/finsh_parser.c:326:9
	b	.LBB14_47
.Ltmp232:
.LBB14_33:
	.loc	4 0 9 is_stmt 0                 @ rt-thread/components/finsh/finsh_parser.c:0:9
	b	.LBB14_34
.LBB14_34:
	.loc	4 330 5 is_stmt 1               @ rt-thread/components/finsh/finsh_parser.c:330:5
	ldr	r0, [sp, #16]
	adds	r0, #4
	bl	finsh_token_token
	strb.w	r0, [sp, #14]
.Ltmp233:
	.loc	4 331 9                         @ rt-thread/components/finsh/finsh_parser.c:331:9
	ldrb.w	r0, [sp, #14]
.Ltmp234:
	.loc	4 331 9 is_stmt 0               @ rt-thread/components/finsh/finsh_parser.c:331:9
	cmp	r0, #5
	bne	.LBB14_45
	b	.LBB14_35
.LBB14_35:
.Ltmp235:
	.loc	4 333 17 is_stmt 1              @ rt-thread/components/finsh/finsh_parser.c:333:17
	ldrb.w	r0, [sp, #15]
	.loc	4 333 9 is_stmt 0               @ rt-thread/components/finsh/finsh_parser.c:333:9
	subs	r0, #1
	mov	r1, r0
	str	r1, [sp]                        @ 4-byte Spill
	cmp	r0, #12
	bhi	.LBB14_43
@ %bb.36:
	.loc	4 0 9                           @ rt-thread/components/finsh/finsh_parser.c:0:9
	ldr	r1, [sp]                        @ 4-byte Reload
.LCPI14_2:
	tbb	[pc, r1]
@ %bb.37:
.LJTI14_2:
	.byte	(.LBB14_38-(.LCPI14_2+4))/2
	.byte	(.LBB14_43-(.LCPI14_2+4))/2
	.byte	(.LBB14_39-(.LCPI14_2+4))/2
	.byte	(.LBB14_39-(.LCPI14_2+4))/2
	.byte	(.LBB14_43-(.LCPI14_2+4))/2
	.byte	(.LBB14_40-(.LCPI14_2+4))/2
	.byte	(.LBB14_40-(.LCPI14_2+4))/2
	.byte	(.LBB14_43-(.LCPI14_2+4))/2
	.byte	(.LBB14_41-(.LCPI14_2+4))/2
	.byte	(.LBB14_41-(.LCPI14_2+4))/2
	.byte	(.LBB14_43-(.LCPI14_2+4))/2
	.byte	(.LBB14_42-(.LCPI14_2+4))/2
	.byte	(.LBB14_42-(.LCPI14_2+4))/2
	.p2align	1
.LBB14_38:
	movs	r0, #2
.Ltmp236:
	.loc	4 336 18 is_stmt 1              @ rt-thread/components/finsh/finsh_parser.c:336:18
	strb.w	r0, [sp, #15]
	.loc	4 337 13                        @ rt-thread/components/finsh/finsh_parser.c:337:13
	b	.LBB14_44
.LBB14_39:
	.loc	4 0 13 is_stmt 0                @ rt-thread/components/finsh/finsh_parser.c:0:13
	movs	r0, #5
	.loc	4 341 18 is_stmt 1              @ rt-thread/components/finsh/finsh_parser.c:341:18
	strb.w	r0, [sp, #15]
	.loc	4 342 13                        @ rt-thread/components/finsh/finsh_parser.c:342:13
	b	.LBB14_44
.LBB14_40:
	.loc	4 0 13 is_stmt 0                @ rt-thread/components/finsh/finsh_parser.c:0:13
	movs	r0, #8
	.loc	4 346 18 is_stmt 1              @ rt-thread/components/finsh/finsh_parser.c:346:18
	strb.w	r0, [sp, #15]
	.loc	4 347 13                        @ rt-thread/components/finsh/finsh_parser.c:347:13
	b	.LBB14_44
.LBB14_41:
	.loc	4 0 13 is_stmt 0                @ rt-thread/components/finsh/finsh_parser.c:0:13
	movs	r0, #11
	.loc	4 351 18 is_stmt 1              @ rt-thread/components/finsh/finsh_parser.c:351:18
	strb.w	r0, [sp, #15]
	.loc	4 352 13                        @ rt-thread/components/finsh/finsh_parser.c:352:13
	b	.LBB14_44
.LBB14_42:
	.loc	4 0 13 is_stmt 0                @ rt-thread/components/finsh/finsh_parser.c:0:13
	movs	r0, #14
	.loc	4 356 18 is_stmt 1              @ rt-thread/components/finsh/finsh_parser.c:356:18
	strb.w	r0, [sp, #15]
	.loc	4 357 13                        @ rt-thread/components/finsh/finsh_parser.c:357:13
	b	.LBB14_44
.LBB14_43:
	.loc	4 0 13 is_stmt 0                @ rt-thread/components/finsh/finsh_parser.c:0:13
	movs	r0, #2
	.loc	4 360 18 is_stmt 1              @ rt-thread/components/finsh/finsh_parser.c:360:18
	strb.w	r0, [sp, #15]
	.loc	4 361 13                        @ rt-thread/components/finsh/finsh_parser.c:361:13
	b	.LBB14_44
.Ltmp237:
.LBB14_44:
	.loc	4 363 5                         @ rt-thread/components/finsh/finsh_parser.c:363:5
	b	.LBB14_46
.Ltmp238:
.LBB14_45:
	.loc	4 364 10                        @ rt-thread/components/finsh/finsh_parser.c:364:10
	ldr	r1, [sp, #16]
	movs	r0, #1
	strb	r0, [r1, #5]
	b	.LBB14_46
.Ltmp239:
.LBB14_46:
	.loc	4 366 12                        @ rt-thread/components/finsh/finsh_parser.c:366:12
	ldrb.w	r0, [sp, #15]
	.loc	4 366 5 is_stmt 0               @ rt-thread/components/finsh/finsh_parser.c:366:5
	strb.w	r0, [sp, #23]
	b	.LBB14_48
.LBB14_47:
.Ltmp240:
	@DEBUG_LABEL: proc_type:__return
	.loc	4 369 5 is_stmt 1               @ rt-thread/components/finsh/finsh_parser.c:369:5
	ldr	r1, [sp, #16]
	movs	r0, #1
	strb	r0, [r1, #5]
	movs	r0, #3
	.loc	4 370 5                         @ rt-thread/components/finsh/finsh_parser.c:370:5
	bl	finsh_error_set
	.loc	4 372 12                        @ rt-thread/components/finsh/finsh_parser.c:372:12
	ldrb.w	r0, [sp, #15]
	.loc	4 372 5 is_stmt 0               @ rt-thread/components/finsh/finsh_parser.c:372:5
	strb.w	r0, [sp, #23]
	b	.LBB14_48
.LBB14_48:
	.loc	4 373 1 is_stmt 1               @ rt-thread/components/finsh/finsh_parser.c:373:1
	ldrb.w	r0, [sp, #23]
	add	sp, #24
	pop	{r7, pc}
.Ltmp241:
.Lfunc_end14:
	.size	proc_type, .Lfunc_end14-proc_type
	.cfi_endproc
	.cantunwind
	.fnend
                                        @ -- End function
	.section	.text.proc_unary_expr,"ax",%progbits
	.p2align	3                               @ -- Begin function proc_unary_expr
	.type	proc_unary_expr,%function
	.code	16                              @ @proc_unary_expr
	.thumb_func
proc_unary_expr:
.Lfunc_begin15:
	.loc	4 692 0                         @ rt-thread/components/finsh/finsh_parser.c:692:0
	.fnstart
	.cfi_startproc
@ %bb.0:
	.save	{r7, lr}
	push	{r7, lr}
	.cfi_def_cfa_offset 8
	.cfi_offset lr, -4
	.cfi_offset r7, -8
	.pad	#24
	sub	sp, #24
	.cfi_def_cfa_offset 32
	str	r0, [sp, #16]
.Ltmp242:
	.loc	4 696 5 prologue_end            @ rt-thread/components/finsh/finsh_parser.c:696:5
	ldr	r0, [sp, #16]
	adds	r0, #4
	bl	finsh_token_token
	strb.w	r0, [sp, #15]
	.loc	4 697 13                        @ rt-thread/components/finsh/finsh_parser.c:697:13
	ldrb.w	r0, [sp, #15]
	.loc	4 697 5 is_stmt 0               @ rt-thread/components/finsh/finsh_parser.c:697:5
	subs	r0, #5
	mov	r1, r0
	str	r1, [sp, #4]                    @ 4-byte Spill
	cmp	r0, #11
	bhi	.LBB15_10
@ %bb.1:
	.loc	4 0 5                           @ rt-thread/components/finsh/finsh_parser.c:0:5
	ldr	r1, [sp, #4]                    @ 4-byte Reload
.LCPI15_0:
	tbb	[pc, r1]
@ %bb.2:
.LJTI15_0:
	.byte	(.LBB15_8-(.LCPI15_0+4))/2
	.byte	(.LBB15_3-(.LCPI15_0+4))/2
	.byte	(.LBB15_4-(.LCPI15_0+4))/2
	.byte	(.LBB15_5-(.LCPI15_0+4))/2
	.byte	(.LBB15_6-(.LCPI15_0+4))/2
	.byte	(.LBB15_10-(.LCPI15_0+4))/2
	.byte	(.LBB15_10-(.LCPI15_0+4))/2
	.byte	(.LBB15_10-(.LCPI15_0+4))/2
	.byte	(.LBB15_9-(.LCPI15_0+4))/2
	.byte	(.LBB15_10-(.LCPI15_0+4))/2
	.byte	(.LBB15_10-(.LCPI15_0+4))/2
	.byte	(.LBB15_7-(.LCPI15_0+4))/2
	.p2align	1
.LBB15_3:
.Ltmp243:
	.loc	4 700 31 is_stmt 1              @ rt-thread/components/finsh/finsh_parser.c:700:31
	ldr	r0, [sp, #16]
	.loc	4 700 16 is_stmt 0              @ rt-thread/components/finsh/finsh_parser.c:700:16
	bl	proc_cast_expr
	.loc	4 700 14                        @ rt-thread/components/finsh/finsh_parser.c:700:14
	str	r0, [sp, #8]
	.loc	4 701 16 is_stmt 1              @ rt-thread/components/finsh/finsh_parser.c:701:16
	ldr	r0, [sp, #8]
	.loc	4 701 9 is_stmt 0               @ rt-thread/components/finsh/finsh_parser.c:701:9
	str	r0, [sp, #20]
	b	.LBB15_11
.LBB15_4:
	.loc	4 704 31 is_stmt 1              @ rt-thread/components/finsh/finsh_parser.c:704:31
	ldr	r0, [sp, #16]
	.loc	4 704 16 is_stmt 0              @ rt-thread/components/finsh/finsh_parser.c:704:16
	bl	proc_cast_expr
	.loc	4 704 14                        @ rt-thread/components/finsh/finsh_parser.c:704:14
	str	r0, [sp, #8]
	.loc	4 705 53 is_stmt 1              @ rt-thread/components/finsh/finsh_parser.c:705:53
	ldr	r1, [sp, #8]
	movs	r0, #21
	movs	r2, #0
	.loc	4 705 16 is_stmt 0              @ rt-thread/components/finsh/finsh_parser.c:705:16
	bl	make_sys_node
	.loc	4 705 9                         @ rt-thread/components/finsh/finsh_parser.c:705:9
	str	r0, [sp, #20]
	b	.LBB15_11
.LBB15_5:
	.loc	4 708 31 is_stmt 1              @ rt-thread/components/finsh/finsh_parser.c:708:31
	ldr	r0, [sp, #16]
	.loc	4 708 16 is_stmt 0              @ rt-thread/components/finsh/finsh_parser.c:708:16
	bl	proc_cast_expr
	.loc	4 708 14                        @ rt-thread/components/finsh/finsh_parser.c:708:14
	str	r0, [sp, #8]
	movs	r0, #0
	.loc	4 709 50 is_stmt 1              @ rt-thread/components/finsh/finsh_parser.c:709:50
	bl	finsh_node_new_long
	mov	r1, r0
	.loc	4 709 74 is_stmt 0              @ rt-thread/components/finsh/finsh_parser.c:709:74
	ldr	r2, [sp, #8]
	movs	r0, #8
	.loc	4 709 16                        @ rt-thread/components/finsh/finsh_parser.c:709:16
	bl	make_sys_node
	.loc	4 709 9                         @ rt-thread/components/finsh/finsh_parser.c:709:9
	str	r0, [sp, #20]
	b	.LBB15_11
.LBB15_6:
	.loc	4 712 31 is_stmt 1              @ rt-thread/components/finsh/finsh_parser.c:712:31
	ldr	r0, [sp, #16]
	.loc	4 712 16 is_stmt 0              @ rt-thread/components/finsh/finsh_parser.c:712:16
	bl	proc_cast_expr
	.loc	4 712 14                        @ rt-thread/components/finsh/finsh_parser.c:712:14
	str	r0, [sp, #8]
	.loc	4 713 53 is_stmt 1              @ rt-thread/components/finsh/finsh_parser.c:713:53
	ldr	r1, [sp, #8]
	movs	r0, #22
	movs	r2, #0
	.loc	4 713 16 is_stmt 0              @ rt-thread/components/finsh/finsh_parser.c:713:16
	bl	make_sys_node
	.loc	4 713 9                         @ rt-thread/components/finsh/finsh_parser.c:713:9
	str	r0, [sp, #20]
	b	.LBB15_11
.LBB15_7:
	.loc	4 716 31 is_stmt 1              @ rt-thread/components/finsh/finsh_parser.c:716:31
	ldr	r0, [sp, #16]
	.loc	4 716 16 is_stmt 0              @ rt-thread/components/finsh/finsh_parser.c:716:16
	bl	proc_cast_expr
	.loc	4 716 14                        @ rt-thread/components/finsh/finsh_parser.c:716:14
	str	r0, [sp, #8]
	.loc	4 717 54 is_stmt 1              @ rt-thread/components/finsh/finsh_parser.c:717:54
	ldr	r1, [sp, #8]
	movs	r0, #15
	movs	r2, #0
	.loc	4 717 16 is_stmt 0              @ rt-thread/components/finsh/finsh_parser.c:717:16
	bl	make_sys_node
	.loc	4 717 9                         @ rt-thread/components/finsh/finsh_parser.c:717:9
	str	r0, [sp, #20]
	b	.LBB15_11
.LBB15_8:
	.loc	4 720 31 is_stmt 1              @ rt-thread/components/finsh/finsh_parser.c:720:31
	ldr	r0, [sp, #16]
	.loc	4 720 16 is_stmt 0              @ rt-thread/components/finsh/finsh_parser.c:720:16
	bl	proc_cast_expr
	.loc	4 720 14                        @ rt-thread/components/finsh/finsh_parser.c:720:14
	str	r0, [sp, #8]
	.loc	4 721 55 is_stmt 1              @ rt-thread/components/finsh/finsh_parser.c:721:55
	ldr	r1, [sp, #8]
	movs	r0, #25
	movs	r2, #0
	.loc	4 721 16 is_stmt 0              @ rt-thread/components/finsh/finsh_parser.c:721:16
	bl	make_sys_node
	.loc	4 721 9                         @ rt-thread/components/finsh/finsh_parser.c:721:9
	str	r0, [sp, #20]
	b	.LBB15_11
.LBB15_9:
	.loc	4 724 31 is_stmt 1              @ rt-thread/components/finsh/finsh_parser.c:724:31
	ldr	r0, [sp, #16]
	.loc	4 724 16 is_stmt 0              @ rt-thread/components/finsh/finsh_parser.c:724:16
	bl	proc_cast_expr
	.loc	4 724 14                        @ rt-thread/components/finsh/finsh_parser.c:724:14
	str	r0, [sp, #8]
	.loc	4 725 54 is_stmt 1              @ rt-thread/components/finsh/finsh_parser.c:725:54
	ldr	r1, [sp, #8]
	movs	r0, #26
	movs	r2, #0
	.loc	4 725 16 is_stmt 0              @ rt-thread/components/finsh/finsh_parser.c:725:16
	bl	make_sys_node
	.loc	4 725 9                         @ rt-thread/components/finsh/finsh_parser.c:725:9
	str	r0, [sp, #20]
	b	.LBB15_11
.LBB15_10:
	.loc	4 728 9 is_stmt 1               @ rt-thread/components/finsh/finsh_parser.c:728:9
	ldr	r1, [sp, #16]
	movs	r0, #1
	strb	r0, [r1, #5]
	.loc	4 729 34                        @ rt-thread/components/finsh/finsh_parser.c:729:34
	ldr	r0, [sp, #16]
	.loc	4 729 16 is_stmt 0              @ rt-thread/components/finsh/finsh_parser.c:729:16
	bl	proc_postfix_expr
	.loc	4 729 9                         @ rt-thread/components/finsh/finsh_parser.c:729:9
	str	r0, [sp, #20]
	b	.LBB15_11
.Ltmp244:
.LBB15_11:
	.loc	4 731 1 is_stmt 1               @ rt-thread/components/finsh/finsh_parser.c:731:1
	ldr	r0, [sp, #20]
	add	sp, #24
	pop	{r7, pc}
.Ltmp245:
.Lfunc_end15:
	.size	proc_unary_expr, .Lfunc_end15-proc_unary_expr
	.cfi_endproc
	.cantunwind
	.fnend
                                        @ -- End function
	.section	.text.proc_postfix_expr,"ax",%progbits
	.p2align	3                               @ -- Begin function proc_postfix_expr
	.type	proc_postfix_expr,%function
	.code	16                              @ @proc_postfix_expr
	.thumb_func
proc_postfix_expr:
.Lfunc_begin16:
	.loc	4 740 0                         @ rt-thread/components/finsh/finsh_parser.c:740:0
	.fnstart
	.cfi_startproc
@ %bb.0:
	.save	{r7, lr}
	push	{r7, lr}
	.cfi_def_cfa_offset 8
	.cfi_offset lr, -4
	.cfi_offset r7, -8
	.pad	#32
	sub	sp, #32
	.cfi_def_cfa_offset 40
	str	r0, [sp, #28]
.Ltmp246:
	.loc	4 744 33 prologue_end           @ rt-thread/components/finsh/finsh_parser.c:744:33
	ldr	r0, [sp, #28]
	.loc	4 744 15 is_stmt 0              @ rt-thread/components/finsh/finsh_parser.c:744:15
	bl	proc_primary_expr
	.loc	4 744 13                        @ rt-thread/components/finsh/finsh_parser.c:744:13
	str	r0, [sp, #20]
	.loc	4 746 5 is_stmt 1               @ rt-thread/components/finsh/finsh_parser.c:746:5
	ldr	r0, [sp, #28]
	adds	r0, #4
	bl	finsh_token_token
	strb.w	r0, [sp, #27]
	.loc	4 747 5                         @ rt-thread/components/finsh/finsh_parser.c:747:5
	b	.LBB16_1
.LBB16_1:                               @ =>This Inner Loop Header: Depth=1
	.loc	4 747 13 is_stmt 0              @ rt-thread/components/finsh/finsh_parser.c:747:13
	ldrb.w	r1, [sp, #27]
	movs	r0, #1
	.loc	4 747 45                        @ rt-thread/components/finsh/finsh_parser.c:747:45
	cmp	r1, #7
	str	r0, [sp, #12]                   @ 4-byte Spill
	beq	.LBB16_4
	b	.LBB16_2
.LBB16_2:                               @   in Loop: Header=BB16_1 Depth=1
	.loc	4 748 9 is_stmt 1               @ rt-thread/components/finsh/finsh_parser.c:748:9
	ldrb.w	r1, [sp, #27]
	movs	r0, #1
	.loc	4 748 45 is_stmt 0              @ rt-thread/components/finsh/finsh_parser.c:748:45
	cmp	r1, #9
	str	r0, [sp, #12]                   @ 4-byte Spill
	beq	.LBB16_4
	b	.LBB16_3
.LBB16_3:                               @   in Loop: Header=BB16_1 Depth=1
	.loc	4 749 9 is_stmt 1               @ rt-thread/components/finsh/finsh_parser.c:749:9
	ldrb.w	r0, [sp, #27]
	.loc	4 749 15 is_stmt 0              @ rt-thread/components/finsh/finsh_parser.c:749:15
	subs	r0, #1
	clz	r0, r0
	lsrs	r0, r0, #5
	.loc	4 748 45 is_stmt 1              @ rt-thread/components/finsh/finsh_parser.c:748:45
	str	r0, [sp, #12]                   @ 4-byte Spill
	b	.LBB16_4
.LBB16_4:                               @   in Loop: Header=BB16_1 Depth=1
	.loc	4 0 45 is_stmt 0                @ rt-thread/components/finsh/finsh_parser.c:0:45
	ldr	r0, [sp, #12]                   @ 4-byte Reload
	.loc	4 747 5 is_stmt 1               @ rt-thread/components/finsh/finsh_parser.c:747:5
	lsls	r0, r0, #31
	cmp	r0, #0
	beq	.LBB16_17
	b	.LBB16_5
.LBB16_5:                               @   in Loop: Header=BB16_1 Depth=1
.Ltmp247:
	.loc	4 751 17                        @ rt-thread/components/finsh/finsh_parser.c:751:17
	ldrb.w	r0, [sp, #27]
	.loc	4 751 9 is_stmt 0               @ rt-thread/components/finsh/finsh_parser.c:751:9
	mov	r1, r0
	str	r1, [sp, #8]                    @ 4-byte Spill
	cmp	r0, #1
	beq	.LBB16_10
	b	.LBB16_6
.LBB16_6:                               @   in Loop: Header=BB16_1 Depth=1
	ldr	r0, [sp, #8]                    @ 4-byte Reload
	cmp	r0, #7
	beq	.LBB16_8
	b	.LBB16_7
.LBB16_7:                               @   in Loop: Header=BB16_1 Depth=1
	ldr	r0, [sp, #8]                    @ 4-byte Reload
	cmp	r0, #9
	beq	.LBB16_9
	b	.LBB16_15
.LBB16_8:                               @   in Loop: Header=BB16_1 Depth=1
.Ltmp248:
	.loc	4 754 57 is_stmt 1              @ rt-thread/components/finsh/finsh_parser.c:754:57
	ldr	r1, [sp, #20]
	movs	r0, #23
	movs	r2, #0
	.loc	4 754 23 is_stmt 0              @ rt-thread/components/finsh/finsh_parser.c:754:23
	bl	make_sys_node
	.loc	4 754 21                        @ rt-thread/components/finsh/finsh_parser.c:754:21
	str	r0, [sp, #20]
	.loc	4 755 13 is_stmt 1              @ rt-thread/components/finsh/finsh_parser.c:755:13
	b	.LBB16_16
.LBB16_9:                               @   in Loop: Header=BB16_1 Depth=1
	.loc	4 758 57                        @ rt-thread/components/finsh/finsh_parser.c:758:57
	ldr	r1, [sp, #20]
	movs	r0, #24
	movs	r2, #0
	.loc	4 758 23 is_stmt 0              @ rt-thread/components/finsh/finsh_parser.c:758:23
	bl	make_sys_node
	.loc	4 758 21                        @ rt-thread/components/finsh/finsh_parser.c:758:21
	str	r0, [sp, #20]
	.loc	4 759 13 is_stmt 1              @ rt-thread/components/finsh/finsh_parser.c:759:13
	b	.LBB16_16
.LBB16_10:                              @   in Loop: Header=BB16_1 Depth=1
	.loc	4 0 13 is_stmt 0                @ rt-thread/components/finsh/finsh_parser.c:0:13
	movs	r0, #0
.Ltmp249:
	.loc	4 765 28 is_stmt 1              @ rt-thread/components/finsh/finsh_parser.c:765:28
	str	r0, [sp, #16]
	.loc	4 766 17                        @ rt-thread/components/finsh/finsh_parser.c:766:17
	ldr	r0, [sp, #28]
	adds	r0, #4
	bl	finsh_token_token
	strb.w	r0, [sp, #27]
.Ltmp250:
	.loc	4 767 21                        @ rt-thread/components/finsh/finsh_parser.c:767:21
	ldrb.w	r0, [sp, #27]
.Ltmp251:
	.loc	4 767 21 is_stmt 0              @ rt-thread/components/finsh/finsh_parser.c:767:21
	cmp	r0, #2
	beq	.LBB16_14
	b	.LBB16_11
.LBB16_11:                              @   in Loop: Header=BB16_1 Depth=1
.Ltmp252:
	.loc	4 769 21 is_stmt 1              @ rt-thread/components/finsh/finsh_parser.c:769:21
	ldr	r1, [sp, #28]
	movs	r0, #1
	strb	r0, [r1, #5]
	.loc	4 770 50                        @ rt-thread/components/finsh/finsh_parser.c:770:50
	ldr	r0, [sp, #28]
	.loc	4 770 34 is_stmt 0              @ rt-thread/components/finsh/finsh_parser.c:770:34
	bl	proc_param_list
	.loc	4 770 32                        @ rt-thread/components/finsh/finsh_parser.c:770:32
	str	r0, [sp, #16]
	.loc	4 772 21 is_stmt 1              @ rt-thread/components/finsh/finsh_parser.c:772:21
	ldr	r0, [sp, #28]
	adds	r0, #4
	bl	finsh_token_token
	strb.w	r0, [sp, #27]
.Ltmp253:
	.loc	4 772 21 is_stmt 0              @ rt-thread/components/finsh/finsh_parser.c:772:21
	ldrb.w	r0, [sp, #27]
.Ltmp254:
	.loc	4 772 21                        @ rt-thread/components/finsh/finsh_parser.c:772:21
	cmp	r0, #2
	beq	.LBB16_13
	b	.LBB16_12
.LBB16_12:                              @   in Loop: Header=BB16_1 Depth=1
	.loc	4 0 21                          @ rt-thread/components/finsh/finsh_parser.c:0:21
	movs	r0, #1
.Ltmp255:
	.loc	4 772 21                        @ rt-thread/components/finsh/finsh_parser.c:772:21
	str	r0, [sp, #4]                    @ 4-byte Spill
	bl	finsh_error_set
                                        @ kill: def $r1 killed $r0
	ldr	r0, [sp, #4]                    @ 4-byte Reload
	ldr	r1, [sp, #28]
	strb	r0, [r1, #5]
	b	.LBB16_13
.Ltmp256:
.LBB16_13:                              @   in Loop: Header=BB16_1 Depth=1
	.loc	4 773 17 is_stmt 1              @ rt-thread/components/finsh/finsh_parser.c:773:17
	b	.LBB16_14
.Ltmp257:
.LBB16_14:                              @   in Loop: Header=BB16_1 Depth=1
	.loc	4 775 62                        @ rt-thread/components/finsh/finsh_parser.c:775:62
	ldr	r1, [sp, #20]
	.loc	4 775 71 is_stmt 0              @ rt-thread/components/finsh/finsh_parser.c:775:71
	ldr	r2, [sp, #16]
	movs	r0, #18
	.loc	4 775 27                        @ rt-thread/components/finsh/finsh_parser.c:775:27
	bl	make_sys_node
	.loc	4 775 25                        @ rt-thread/components/finsh/finsh_parser.c:775:25
	str	r0, [sp, #20]
.Ltmp258:
	.loc	4 777 13 is_stmt 1              @ rt-thread/components/finsh/finsh_parser.c:777:13
	b	.LBB16_16
.LBB16_15:                              @   in Loop: Header=BB16_1 Depth=1
	.loc	4 780 13                        @ rt-thread/components/finsh/finsh_parser.c:780:13
	b	.LBB16_16
.Ltmp259:
.LBB16_16:                              @   in Loop: Header=BB16_1 Depth=1
	.loc	4 783 9                         @ rt-thread/components/finsh/finsh_parser.c:783:9
	ldr	r0, [sp, #28]
	adds	r0, #4
	bl	finsh_token_token
	strb.w	r0, [sp, #27]
.Ltmp260:
	.loc	4 747 5                         @ rt-thread/components/finsh/finsh_parser.c:747:5
	b	.LBB16_1
.LBB16_17:
	.loc	4 786 5                         @ rt-thread/components/finsh/finsh_parser.c:786:5
	ldr	r1, [sp, #28]
	movs	r0, #1
	strb	r0, [r1, #5]
	.loc	4 787 12                        @ rt-thread/components/finsh/finsh_parser.c:787:12
	ldr	r0, [sp, #20]
	.loc	4 787 5 is_stmt 0               @ rt-thread/components/finsh/finsh_parser.c:787:5
	add	sp, #32
	pop	{r7, pc}
.Ltmp261:
.Lfunc_end16:
	.size	proc_postfix_expr, .Lfunc_end16-proc_postfix_expr
	.cfi_endproc
	.cantunwind
	.fnend
                                        @ -- End function
	.section	.text.proc_primary_expr,"ax",%progbits
	.p2align	3                               @ -- Begin function proc_primary_expr
	.type	proc_primary_expr,%function
	.code	16                              @ @proc_primary_expr
	.thumb_func
proc_primary_expr:
.Lfunc_begin17:
	.loc	4 796 0 is_stmt 1               @ rt-thread/components/finsh/finsh_parser.c:796:0
	.fnstart
	.cfi_startproc
@ %bb.0:
	.save	{r7, lr}
	push	{r7, lr}
	.cfi_def_cfa_offset 8
	.cfi_offset lr, -4
	.cfi_offset r7, -8
	.pad	#48
	sub	sp, #48
	.cfi_def_cfa_offset 56
	str	r0, [sp, #40]
.Ltmp262:
	.loc	4 800 5 prologue_end            @ rt-thread/components/finsh/finsh_parser.c:800:5
	ldr	r0, [sp, #40]
	adds	r0, #4
	bl	finsh_token_token
	strb.w	r0, [sp, #39]
	.loc	4 801 14                        @ rt-thread/components/finsh/finsh_parser.c:801:14
	ldrb.w	r0, [sp, #39]
	.loc	4 801 5 is_stmt 0               @ rt-thread/components/finsh/finsh_parser.c:801:5
	subs	r0, #1
	mov	r1, r0
	str	r1, [sp, #8]                    @ 4-byte Spill
	cmp	r0, #30
	bhi.w	.LBB17_12
@ %bb.1:
	.loc	4 0 5                           @ rt-thread/components/finsh/finsh_parser.c:0:5
	ldr	r1, [sp, #8]                    @ 4-byte Reload
.LCPI17_0:
	tbb	[pc, r1]
@ %bb.2:
.LJTI17_0:
	.byte	(.LBB17_4-(.LCPI17_0+4))/2
	.byte	(.LBB17_12-(.LCPI17_0+4))/2
	.byte	(.LBB17_12-(.LCPI17_0+4))/2
	.byte	(.LBB17_12-(.LCPI17_0+4))/2
	.byte	(.LBB17_12-(.LCPI17_0+4))/2
	.byte	(.LBB17_12-(.LCPI17_0+4))/2
	.byte	(.LBB17_12-(.LCPI17_0+4))/2
	.byte	(.LBB17_12-(.LCPI17_0+4))/2
	.byte	(.LBB17_12-(.LCPI17_0+4))/2
	.byte	(.LBB17_12-(.LCPI17_0+4))/2
	.byte	(.LBB17_12-(.LCPI17_0+4))/2
	.byte	(.LBB17_12-(.LCPI17_0+4))/2
	.byte	(.LBB17_12-(.LCPI17_0+4))/2
	.byte	(.LBB17_12-(.LCPI17_0+4))/2
	.byte	(.LBB17_12-(.LCPI17_0+4))/2
	.byte	(.LBB17_12-(.LCPI17_0+4))/2
	.byte	(.LBB17_12-(.LCPI17_0+4))/2
	.byte	(.LBB17_12-(.LCPI17_0+4))/2
	.byte	(.LBB17_12-(.LCPI17_0+4))/2
	.byte	(.LBB17_12-(.LCPI17_0+4))/2
	.byte	(.LBB17_12-(.LCPI17_0+4))/2
	.byte	(.LBB17_12-(.LCPI17_0+4))/2
	.byte	(.LBB17_12-(.LCPI17_0+4))/2
	.byte	(.LBB17_12-(.LCPI17_0+4))/2
	.byte	(.LBB17_12-(.LCPI17_0+4))/2
	.byte	(.LBB17_9-(.LCPI17_0+4))/2
	.byte	(.LBB17_7-(.LCPI17_0+4))/2
	.byte	(.LBB17_8-(.LCPI17_0+4))/2
	.byte	(.LBB17_10-(.LCPI17_0+4))/2
	.byte	(.LBB17_11-(.LCPI17_0+4))/2
	.byte	(.LBB17_3-(.LCPI17_0+4))/2
	.p2align	1
.LBB17_3:
.Ltmp263:
	.loc	4 807 13 is_stmt 1              @ rt-thread/components/finsh/finsh_parser.c:807:13
	ldr	r1, [sp, #40]
	movs	r0, #1
	strb	r0, [r1, #5]
	.loc	4 808 29                        @ rt-thread/components/finsh/finsh_parser.c:808:29
	ldr	r0, [sp, #40]
	add.w	r1, sp, #15
	.loc	4 808 13 is_stmt 0              @ rt-thread/components/finsh/finsh_parser.c:808:13
	str	r1, [sp, #4]                    @ 4-byte Spill
	bl	proc_identifier
                                        @ kill: def $r1 killed $r0
	.loc	4 809 20 is_stmt 1              @ rt-thread/components/finsh/finsh_parser.c:809:20
	ldr	r0, [sp, #4]                    @ 4-byte Reload
	bl	finsh_node_new_id
	.loc	4 809 13 is_stmt 0              @ rt-thread/components/finsh/finsh_parser.c:809:13
	str	r0, [sp, #44]
	b	.LBB17_14
.Ltmp264:
.LBB17_4:
	.loc	4 813 26 is_stmt 1              @ rt-thread/components/finsh/finsh_parser.c:813:26
	ldr	r0, [sp, #40]
	.loc	4 813 16 is_stmt 0              @ rt-thread/components/finsh/finsh_parser.c:813:16
	bl	proc_expr
	.loc	4 813 14                        @ rt-thread/components/finsh/finsh_parser.c:813:14
	str	r0, [sp, #32]
	.loc	4 814 9 is_stmt 1               @ rt-thread/components/finsh/finsh_parser.c:814:9
	ldr	r0, [sp, #40]
	adds	r0, #4
	bl	finsh_token_token
	strb.w	r0, [sp, #39]
.Ltmp265:
	.loc	4 814 9 is_stmt 0               @ rt-thread/components/finsh/finsh_parser.c:814:9
	ldrb.w	r0, [sp, #39]
.Ltmp266:
	.loc	4 814 9                         @ rt-thread/components/finsh/finsh_parser.c:814:9
	cmp	r0, #2
	beq	.LBB17_6
	b	.LBB17_5
.LBB17_5:
	.loc	4 0 9                           @ rt-thread/components/finsh/finsh_parser.c:0:9
	movs	r0, #1
.Ltmp267:
	.loc	4 814 9                         @ rt-thread/components/finsh/finsh_parser.c:814:9
	str	r0, [sp]                        @ 4-byte Spill
	bl	finsh_error_set
                                        @ kill: def $r1 killed $r0
	ldr	r0, [sp]                        @ 4-byte Reload
	ldr	r1, [sp, #40]
	strb	r0, [r1, #5]
	b	.LBB17_6
.Ltmp268:
.LBB17_6:
	.loc	4 815 16 is_stmt 1              @ rt-thread/components/finsh/finsh_parser.c:815:16
	ldr	r0, [sp, #32]
	.loc	4 815 9 is_stmt 0               @ rt-thread/components/finsh/finsh_parser.c:815:9
	str	r0, [sp, #44]
	b	.LBB17_14
.LBB17_7:
	.loc	4 818 35 is_stmt 1              @ rt-thread/components/finsh/finsh_parser.c:818:35
	ldr	r0, [sp, #40]
	.loc	4 818 53 is_stmt 0              @ rt-thread/components/finsh/finsh_parser.c:818:53
	ldr	r0, [r0, #16]
	.loc	4 818 16                        @ rt-thread/components/finsh/finsh_parser.c:818:16
	bl	finsh_node_new_int
	.loc	4 818 9                         @ rt-thread/components/finsh/finsh_parser.c:818:9
	str	r0, [sp, #44]
	b	.LBB17_14
.LBB17_8:
	.loc	4 821 36 is_stmt 1              @ rt-thread/components/finsh/finsh_parser.c:821:36
	ldr	r0, [sp, #40]
	.loc	4 821 54 is_stmt 0              @ rt-thread/components/finsh/finsh_parser.c:821:54
	ldr	r0, [r0, #16]
	.loc	4 821 16                        @ rt-thread/components/finsh/finsh_parser.c:821:16
	bl	finsh_node_new_long
	.loc	4 821 9                         @ rt-thread/components/finsh/finsh_parser.c:821:9
	str	r0, [sp, #44]
	b	.LBB17_14
.LBB17_9:
	.loc	4 824 36 is_stmt 1              @ rt-thread/components/finsh/finsh_parser.c:824:36
	ldr	r0, [sp, #40]
	.loc	4 824 54 is_stmt 0              @ rt-thread/components/finsh/finsh_parser.c:824:54
	ldrsb.w	r0, [r0, #16]
	.loc	4 824 16                        @ rt-thread/components/finsh/finsh_parser.c:824:16
	bl	finsh_node_new_char
	.loc	4 824 9                         @ rt-thread/components/finsh/finsh_parser.c:824:9
	str	r0, [sp, #44]
	b	.LBB17_14
.LBB17_10:
	.loc	4 827 45 is_stmt 1              @ rt-thread/components/finsh/finsh_parser.c:827:45
	ldr	r0, [sp, #40]
	.loc	4 827 57 is_stmt 0              @ rt-thread/components/finsh/finsh_parser.c:827:57
	adds	r0, #20
	.loc	4 827 16                        @ rt-thread/components/finsh/finsh_parser.c:827:16
	bl	finsh_node_new_string
	.loc	4 827 9                         @ rt-thread/components/finsh/finsh_parser.c:827:9
	str	r0, [sp, #44]
	b	.LBB17_14
.LBB17_11:
	.loc	4 0 9                           @ rt-thread/components/finsh/finsh_parser.c:0:9
	movs	r0, #0
	.loc	4 830 16 is_stmt 1              @ rt-thread/components/finsh/finsh_parser.c:830:16
	bl	finsh_node_new_ptr
	.loc	4 830 9 is_stmt 0               @ rt-thread/components/finsh/finsh_parser.c:830:9
	str	r0, [sp, #44]
	b	.LBB17_14
.LBB17_12:
	.loc	4 0 9                           @ rt-thread/components/finsh/finsh_parser.c:0:9
	movs	r0, #1
	.loc	4 833 9 is_stmt 1               @ rt-thread/components/finsh/finsh_parser.c:833:9
	bl	finsh_error_set
	.loc	4 834 9                         @ rt-thread/components/finsh/finsh_parser.c:834:9
	b	.LBB17_13
.Ltmp269:
.LBB17_13:
	.loc	4 0 9 is_stmt 0                 @ rt-thread/components/finsh/finsh_parser.c:0:9
	movs	r0, #0
	.loc	4 837 5 is_stmt 1               @ rt-thread/components/finsh/finsh_parser.c:837:5
	str	r0, [sp, #44]
	b	.LBB17_14
.LBB17_14:
	.loc	4 838 1                         @ rt-thread/components/finsh/finsh_parser.c:838:1
	ldr	r0, [sp, #44]
	add	sp, #48
	pop	{r7, pc}
.Ltmp270:
.Lfunc_end17:
	.size	proc_primary_expr, .Lfunc_end17-proc_primary_expr
	.cfi_endproc
	.cantunwind
	.fnend
                                        @ -- End function
	.section	.text.proc_param_list,"ax",%progbits
	.p2align	3                               @ -- Begin function proc_param_list
	.type	proc_param_list,%function
	.code	16                              @ @proc_param_list
	.thumb_func
proc_param_list:
.Lfunc_begin18:
	.loc	4 846 0                         @ rt-thread/components/finsh/finsh_parser.c:846:0
	.fnstart
	.cfi_startproc
@ %bb.0:
	.save	{r7, lr}
	push	{r7, lr}
	.cfi_def_cfa_offset 8
	.cfi_offset lr, -4
	.cfi_offset r7, -8
	.pad	#24
	sub	sp, #24
	.cfi_def_cfa_offset 32
	str	r0, [sp, #16]
.Ltmp271:
	.loc	4 850 31 prologue_end           @ rt-thread/components/finsh/finsh_parser.c:850:31
	ldr	r0, [sp, #16]
	.loc	4 850 14 is_stmt 0              @ rt-thread/components/finsh/finsh_parser.c:850:14
	bl	proc_assign_expr
	.loc	4 850 12                        @ rt-thread/components/finsh/finsh_parser.c:850:12
	str	r0, [sp, #4]
.Ltmp272:
	.loc	4 851 9 is_stmt 1               @ rt-thread/components/finsh/finsh_parser.c:851:9
	ldr	r0, [sp, #4]
.Ltmp273:
	.loc	4 851 9 is_stmt 0               @ rt-thread/components/finsh/finsh_parser.c:851:9
	cbnz	r0, .LBB18_2
	b	.LBB18_1
.LBB18_1:
	.loc	4 0 9                           @ rt-thread/components/finsh/finsh_parser.c:0:9
	movs	r0, #0
.Ltmp274:
	.loc	4 851 25                        @ rt-thread/components/finsh/finsh_parser.c:851:25
	str	r0, [sp, #20]
	b	.LBB18_9
.Ltmp275:
.LBB18_2:
	.loc	4 852 12 is_stmt 1              @ rt-thread/components/finsh/finsh_parser.c:852:12
	ldr	r0, [sp, #4]
	.loc	4 852 10 is_stmt 0              @ rt-thread/components/finsh/finsh_parser.c:852:10
	str	r0, [sp, #8]
	.loc	4 854 5 is_stmt 1               @ rt-thread/components/finsh/finsh_parser.c:854:5
	ldr	r0, [sp, #16]
	adds	r0, #4
	bl	finsh_token_token
	strb.w	r0, [sp, #15]
	.loc	4 855 5                         @ rt-thread/components/finsh/finsh_parser.c:855:5
	b	.LBB18_3
.LBB18_3:                               @ =>This Inner Loop Header: Depth=1
	.loc	4 855 12 is_stmt 0              @ rt-thread/components/finsh/finsh_parser.c:855:12
	ldrb.w	r0, [sp, #15]
	.loc	4 855 5                         @ rt-thread/components/finsh/finsh_parser.c:855:5
	cmp	r0, #3
	bne	.LBB18_8
	b	.LBB18_4
.LBB18_4:                               @   in Loop: Header=BB18_3 Depth=1
.Ltmp276:
	.loc	4 857 55 is_stmt 1              @ rt-thread/components/finsh/finsh_parser.c:857:55
	ldr	r0, [sp, #16]
	.loc	4 857 38 is_stmt 0              @ rt-thread/components/finsh/finsh_parser.c:857:38
	bl	proc_assign_expr
	.loc	4 857 9                         @ rt-thread/components/finsh/finsh_parser.c:857:9
	ldr	r1, [sp, #4]
	.loc	4 857 36                        @ rt-thread/components/finsh/finsh_parser.c:857:36
	str	r0, [r1, #12]
.Ltmp277:
	.loc	4 859 13 is_stmt 1              @ rt-thread/components/finsh/finsh_parser.c:859:13
	ldr	r0, [sp, #4]
	ldr	r0, [r0, #12]
.Ltmp278:
	.loc	4 859 13 is_stmt 0              @ rt-thread/components/finsh/finsh_parser.c:859:13
	cbz	r0, .LBB18_6
	b	.LBB18_5
.LBB18_5:                               @   in Loop: Header=BB18_3 Depth=1
.Ltmp279:
	.loc	4 859 58                        @ rt-thread/components/finsh/finsh_parser.c:859:58
	ldr	r0, [sp, #4]
	ldr	r0, [r0, #12]
	.loc	4 859 56                        @ rt-thread/components/finsh/finsh_parser.c:859:56
	str	r0, [sp, #4]
	.loc	4 859 49                        @ rt-thread/components/finsh/finsh_parser.c:859:49
	b	.LBB18_7
.LBB18_6:                               @   in Loop: Header=BB18_3 Depth=1
	.loc	4 0 49                          @ rt-thread/components/finsh/finsh_parser.c:0:49
	movs	r0, #5
	.loc	4 860 14 is_stmt 1              @ rt-thread/components/finsh/finsh_parser.c:860:14
	bl	finsh_error_set
	b	.LBB18_7
.Ltmp280:
.LBB18_7:                               @   in Loop: Header=BB18_3 Depth=1
	.loc	4 862 9                         @ rt-thread/components/finsh/finsh_parser.c:862:9
	ldr	r0, [sp, #16]
	adds	r0, #4
	bl	finsh_token_token
	strb.w	r0, [sp, #15]
.Ltmp281:
	.loc	4 855 5                         @ rt-thread/components/finsh/finsh_parser.c:855:5
	b	.LBB18_3
.LBB18_8:
	.loc	4 865 5                         @ rt-thread/components/finsh/finsh_parser.c:865:5
	ldr	r1, [sp, #16]
	movs	r0, #1
	strb	r0, [r1, #5]
	.loc	4 867 12                        @ rt-thread/components/finsh/finsh_parser.c:867:12
	ldr	r0, [sp, #8]
	.loc	4 867 5 is_stmt 0               @ rt-thread/components/finsh/finsh_parser.c:867:5
	str	r0, [sp, #20]
	b	.LBB18_9
.LBB18_9:
	.loc	4 868 1 is_stmt 1               @ rt-thread/components/finsh/finsh_parser.c:868:1
	ldr	r0, [sp, #20]
	add	sp, #24
	pop	{r7, pc}
.Ltmp282:
.Lfunc_end18:
	.size	proc_param_list, .Lfunc_end18-proc_param_list
	.cfi_endproc
	.cantunwind
	.fnend
                                        @ -- End function
	.section	.text.proc_identifier,"ax",%progbits
	.p2align	3                               @ -- Begin function proc_identifier
	.type	proc_identifier,%function
	.code	16                              @ @proc_identifier
	.thumb_func
proc_identifier:
.Lfunc_begin19:
	.loc	4 379 0                         @ rt-thread/components/finsh/finsh_parser.c:379:0
	.fnstart
	.cfi_startproc
@ %bb.0:
	.save	{r7, lr}
	push	{r7, lr}
	.cfi_def_cfa_offset 8
	.cfi_offset lr, -4
	.cfi_offset r7, -8
	.pad	#16
	sub	sp, #16
	.cfi_def_cfa_offset 24
	str	r0, [sp, #12]
	str	r1, [sp, #8]
.Ltmp283:
	.loc	4 382 5 prologue_end            @ rt-thread/components/finsh/finsh_parser.c:382:5
	ldr	r0, [sp, #12]
	adds	r0, #4
	bl	finsh_token_token
	strb.w	r0, [sp, #7]
.Ltmp284:
	.loc	4 382 5 is_stmt 0               @ rt-thread/components/finsh/finsh_parser.c:382:5
	ldrb.w	r0, [sp, #7]
.Ltmp285:
	.loc	4 382 5                         @ rt-thread/components/finsh/finsh_parser.c:382:5
	cmp	r0, #31
	beq	.LBB19_2
	b	.LBB19_1
.LBB19_1:
	.loc	4 0 5                           @ rt-thread/components/finsh/finsh_parser.c:0:5
	movs	r0, #1
.Ltmp286:
	.loc	4 382 5                         @ rt-thread/components/finsh/finsh_parser.c:382:5
	str	r0, [sp]                        @ 4-byte Spill
	bl	finsh_error_set
                                        @ kill: def $r1 killed $r0
	ldr	r0, [sp]                        @ 4-byte Reload
	ldr	r1, [sp, #12]
	strb	r0, [r1, #5]
	b	.LBB19_2
.Ltmp287:
.LBB19_2:
	.loc	4 384 13 is_stmt 1              @ rt-thread/components/finsh/finsh_parser.c:384:13
	ldr	r0, [sp, #8]
	.loc	4 384 24 is_stmt 0              @ rt-thread/components/finsh/finsh_parser.c:384:24
	ldr	r1, [sp, #12]
	.loc	4 384 36                        @ rt-thread/components/finsh/finsh_parser.c:384:36
	adds	r1, #20
	movs	r2, #16
	.loc	4 384 5                         @ rt-thread/components/finsh/finsh_parser.c:384:5
	bl	strncpy
	movs	r0, #0
	.loc	4 386 5 is_stmt 1               @ rt-thread/components/finsh/finsh_parser.c:386:5
	add	sp, #16
	pop	{r7, pc}
.Ltmp288:
.Lfunc_end19:
	.size	proc_identifier, .Lfunc_end19-proc_identifier
	.cfi_endproc
	.cantunwind
	.fnend
                                        @ -- End function
	.file	5 "E:\\Smart-access-control\\Hardware\\CODE" "rt-thread/components/finsh/finsh_var.h"
	.file	6 "E:\\Smart-access-control\\Hardware\\CODE" "rt-thread/components/finsh/finsh_api.h"
	.section	".note.GNU-stack","",%progbits
	.eabi_attribute	30, 6	@ Tag_ABI_optimization_goals
	.ARM_attribute	16, 1	@ Tag_AV_eba