	.text
	.syntax unified
	.eabi_attribute	67, "2.09"	@ Tag_conformance
	.cpu	cortex-m7
	.eabi_attribute	6, 13	@ Tag_CPU_arch
	.eabi_attribute	7, 77	@ Tag_CPU_arch_profile
	.eabi_attribute	8, 0	@ Tag_ARM_ISA_use
	.eabi_attribute	9, 2	@ Tag_THUMB_ISA_use
	.fpu	fpv5-d16
	.eabi_attribute	36, 1	@ Tag_FP_HP_extension
	.eabi_attribute	34, 1	@ Tag_CPU_unaligned_access
	.eabi_attribute	17, 1	@ Tag_ABI_PCS_GOT_use
	.eabi_attribute	20, 2	@ Tag_ABI_FP_denormal
	.eabi_attribute	21, 0	@ Tag_ABI_FP_exceptions
	.eabi_attribute	23, 1	@ Tag_ABI_FP_number_model
	.eabi_attribute	24, 1	@ Tag_ABI_align_needed
	.eabi_attribute	25, 1	@ Tag_ABI_align_preserved
	.eabi_attribute	28, 1	@ Tag_ABI_VFP_args
	.eabi_attribute	38, 1	@ Tag_ABI_FP_16bit_format
	.eabi_attribute	18, 2	@ Tag_ABI_PCS_wchar_t
	.eabi_attribute	26, 1	@ Tag_ABI_enum_size
	.eabi_attribute	14, 0	@ Tag_ABI_PCS_R9_use
	.file	"finsh_node.c"
	.file	1 "D:\\Keil_v5\\ARM\\ARMCLANG\\Bin\\..\\include" "stdint.h"
	.file	2 "E:\\Smart-access-control\\Hardware\\CODE" "rt-thread/components/finsh\\finsh.h"
	.file	3 "E:\\Smart-access-control\\Hardware\\CODE" "rt-thread/components/finsh/finsh_var.h"
	.file	4 "E:\\Smart-access-control\\Hardware\\CODE" "rt-thread/components/finsh/finsh_api.h"
	.file	5 "E:\\Smart-access-control\\Hardware\\CODE" "rt-thread/components/finsh/finsh_node.c"
	.section	.text.finsh_node_init,"ax",%progbits
	.hidden	finsh_node_init                 @ -- Begin function finsh_node_init
	.globl	finsh_node_init
	.p2align	3
	.type	finsh_node_init,%function
	.code	16                              @ @finsh_node_init
	.thumb_func
finsh_node_init:
.Lfunc_begin0:
	.loc	5 20 0                          @ rt-thread/components/finsh/finsh_node.c:20:0
	.fnstart
	.cfi_sections .debug_frame
	.cfi_startproc
@ %bb.0:
	.save	{r7, lr}
	push	{r7, lr}
	.cfi_def_cfa_offset 8
	.cfi_offset lr, -4
	.cfi_offset r7, -8
.Ltmp0:
	.loc	5 21 5 prologue_end             @ rt-thread/components/finsh/finsh_node.c:21:5
	movw	r0, :lower16:global_node_table
	mov.w	r1, #320
	movt	r0, :upper16:global_node_table
	bl	__aeabi_memclr4
	.loc	5 23 5                          @ rt-thread/components/finsh/finsh_node.c:23:5
	movs	r0, #0
	pop	{r7, pc}
.Ltmp1:
.Lfunc_end0:
	.size	finsh_node_init, .Lfunc_end0-finsh_node_init
	.cfi_endproc
	.cantunwind
	.fnend
                                        @ -- End function
	.section	.text.finsh_node_allocate,"ax",%progbits
	.hidden	finsh_node_allocate             @ -- Begin function finsh_node_allocate
	.globl	finsh_node_allocate
	.p2align	3
	.type	finsh_node_allocate,%function
	.code	16                              @ @finsh_node_allocate
	.thumb_func
finsh_node_allocate:
.Lfunc_begin1:
	.loc	5 27 0                          @ rt-thread/components/finsh/finsh_node.c:27:0
	.fnstart
	.cfi_startproc
@ %bb.0:
	@DEBUG_VALUE: finsh_node_allocate:type <- $r0
	movw	r12, :lower16:global_node_table
	movs	r1, #0
	movt	r12, :upper16:global_node_table
.Ltmp2:
	@DEBUG_VALUE: finsh_node_allocate:i <- 0
	@DEBUG_VALUE: finsh_node_allocate:type <- $r0
	@DEBUG_VALUE: finsh_node_allocate:type <- undef
	mov	r3, r12
.Ltmp3:
	.p2align	2
.LBB1_1:                                @ =>This Inner Loop Header: Depth=1
	@DEBUG_VALUE: finsh_node_allocate:i <- $r1
	.loc	5 33 34 prologue_end            @ rt-thread/components/finsh/finsh_node.c:33:34
	ldrb	r2, [r3]
.Ltmp4:
	.loc	5 33 13 is_stmt 0               @ rt-thread/components/finsh/finsh_node.c:33:13
	cbz	r2, .LBB1_4
.Ltmp5:
@ %bb.2:                                @   in Loop: Header=BB1_1 Depth=1
	@DEBUG_VALUE: finsh_node_allocate:i <- $r1
	.loc	5 31 39 is_stmt 1               @ rt-thread/components/finsh/finsh_node.c:31:39
	adds	r1, #1
.Ltmp6:
	@DEBUG_VALUE: finsh_node_allocate:i <- $r1
	.loc	5 31 19 is_stmt 0               @ rt-thread/components/finsh/finsh_node.c:31:19
	adds	r3, #20
.Ltmp7:
	.loc	5 31 5                          @ rt-thread/components/finsh/finsh_node.c:31:5
	cmp	r1, #16
	bne	.LBB1_1
.Ltmp8:
@ %bb.3:
	@DEBUG_VALUE: finsh_node_allocate:i <- $r1
	.loc	5 0 5                           @ rt-thread/components/finsh/finsh_node.c:0:5
	movs	r1, #16
.Ltmp9:
.LBB1_4:
	.loc	5 36 9 is_stmt 1                @ rt-thread/components/finsh/finsh_node.c:36:9
	cmp	r1, #16
	bne	.LBB1_6
@ %bb.5:
	.loc	5 0 9 is_stmt 0                 @ rt-thread/components/finsh/finsh_node.c:0:9
	movs	r0, #0
	.loc	5 43 1 is_stmt 1                @ rt-thread/components/finsh/finsh_node.c:43:1
	bx	lr
.LBB1_6:
	.loc	5 39 5                          @ rt-thread/components/finsh/finsh_node.c:39:5
	add.w	r2, r1, r1, lsl #2
	add.w	r1, r12, r2, lsl #2
	.loc	5 39 36 is_stmt 0               @ rt-thread/components/finsh/finsh_node.c:39:36
	strb.w	r0, [r12, r2, lsl #2]
	.loc	5 43 1 is_stmt 1                @ rt-thread/components/finsh/finsh_node.c:43:1
	mov	r0, r1
	bx	lr
.Ltmp10:
.Lfunc_end1:
	.size	finsh_node_allocate, .Lfunc_end1-finsh_node_allocate
	.cfi_endproc
	.cantunwind
	.fnend
                                        @ -- End function
	.section	.text.finsh_node_new_id,"ax",%progbits
	.hidden	finsh_node_new_id               @ -- Begin function finsh_node_new_id
	.globl	finsh_node_new_id
	.p2align	3
	.type	finsh_node_new_id,%function
	.code	16                              @ @finsh_node_new_id
	.thumb_func
finsh_node_new_id:
.Lfunc_begin2:
	.loc	5 46 0                          @ rt-thread/components/finsh/finsh_node.c:46:0
	.fnstart
	.cfi_startproc
@ %bb.0:
	@DEBUG_VALUE: finsh_node_new_id:id <- $r0
	.save	{r4, r5, r7, lr}
	push	{r4, r5, r7, lr}
	.cfi_def_cfa_offset 16
	.cfi_offset lr, -4
	.cfi_offset r7, -8
	.cfi_offset r5, -12
	.cfi_offset r4, -16
	mov	r5, r0
.Ltmp11:
	@DEBUG_VALUE: finsh_node_new_id:node <- 0
	@DEBUG_VALUE: finsh_node_new_id:type <- 0
	@DEBUG_VALUE: finsh_node_new_id:symbol <- 0
	@DEBUG_VALUE: finsh_node_new_id:id <- $r5
	.loc	5 56 21 prologue_end            @ rt-thread/components/finsh/finsh_node.c:56:21
	bl	finsh_var_lookup
.Ltmp12:
	@DEBUG_VALUE: finsh_node_new_id:symbol <- $r0
	.loc	5 57 9                          @ rt-thread/components/finsh/finsh_node.c:57:9
	cbz	r0, .LBB2_2
.Ltmp13:
@ %bb.1:
	@DEBUG_VALUE: finsh_node_new_id:id <- $r5
	@DEBUG_VALUE: finsh_node_new_id:symbol <- $r0
	@DEBUG_VALUE: finsh_node_new_id:type <- 0
	@DEBUG_VALUE: finsh_node_new_id:node <- 0
	.loc	5 0 9 is_stmt 0                 @ rt-thread/components/finsh/finsh_node.c:0:9
	mov	r4, r0
.Ltmp14:
	@DEBUG_VALUE: finsh_node_new_id:symbol <- $r4
	@DEBUG_VALUE: finsh_node_new_id:symbol <- $r4
	movs	r5, #1
.Ltmp15:
	@DEBUG_VALUE: finsh_node_new_id:type <- 1
	@DEBUG_VALUE: finsh_node_new_id:symbol <- $r4
	@DEBUG_VALUE: finsh_node_new_id:symbol <- $r4
	@DEBUG_VALUE: finsh_node_new_id:type <- $r5
	.loc	5 71 9 is_stmt 1                @ rt-thread/components/finsh/finsh_node.c:71:9
	cbnz	r4, .LBB2_4
	b	.LBB2_9
.Ltmp16:
.LBB2_2:
	@DEBUG_VALUE: finsh_node_new_id:id <- $r5
	@DEBUG_VALUE: finsh_node_new_id:symbol <- $r0
	@DEBUG_VALUE: finsh_node_new_id:type <- 0
	@DEBUG_VALUE: finsh_node_new_id:node <- 0
	.loc	5 60 25                         @ rt-thread/components/finsh/finsh_node.c:60:25
	mov	r0, r5
.Ltmp17:
	bl	finsh_sysvar_lookup
.Ltmp18:
	@DEBUG_VALUE: finsh_node_new_id:symbol <- $r0
	.loc	5 61 13                         @ rt-thread/components/finsh/finsh_node.c:61:13
	cbz	r0, .LBB2_8
.Ltmp19:
@ %bb.3:
	@DEBUG_VALUE: finsh_node_new_id:id <- $r5
	@DEBUG_VALUE: finsh_node_new_id:symbol <- $r0
	@DEBUG_VALUE: finsh_node_new_id:type <- 0
	@DEBUG_VALUE: finsh_node_new_id:node <- 0
	.loc	5 0 13 is_stmt 0                @ rt-thread/components/finsh/finsh_node.c:0:13
	mov	r4, r0
.Ltmp20:
	@DEBUG_VALUE: finsh_node_new_id:symbol <- $r4
	@DEBUG_VALUE: finsh_node_new_id:symbol <- $r4
	movs	r5, #2
.Ltmp21:
	@DEBUG_VALUE: finsh_node_new_id:type <- 2
	@DEBUG_VALUE: finsh_node_new_id:symbol <- $r4
	@DEBUG_VALUE: finsh_node_new_id:symbol <- $r4
	@DEBUG_VALUE: finsh_node_new_id:type <- $r5
	.loc	5 71 9 is_stmt 1                @ rt-thread/components/finsh/finsh_node.c:71:9
	cbz	r4, .LBB2_9
.Ltmp22:
.LBB2_4:
	@DEBUG_VALUE: finsh_node_new_id:type <- $r5
	@DEBUG_VALUE: finsh_node_new_id:symbol <- $r4
	@DEBUG_VALUE: finsh_node_new_id:node <- 0
	.loc	5 74 16                         @ rt-thread/components/finsh/finsh_node.c:74:16
	movs	r0, #1
	bl	finsh_node_allocate
.Ltmp23:
	@DEBUG_VALUE: finsh_node_new_id:node <- $r0
	.loc	5 77 13                         @ rt-thread/components/finsh/finsh_node.c:77:13
	cbz	r0, .LBB2_7
.Ltmp24:
@ %bb.5:
	@DEBUG_VALUE: finsh_node_new_id:type <- $r5
	@DEBUG_VALUE: finsh_node_new_id:symbol <- $r4
	@DEBUG_VALUE: finsh_node_new_id:node <- $r0
	.loc	5 84 9                          @ rt-thread/components/finsh/finsh_node.c:84:9
	cmp	r5, #4
	it	ne
	cmpne	r5, #2
	bne	.LBB2_11
.Ltmp25:
@ %bb.6:
	@DEBUG_VALUE: finsh_node_new_id:type <- $r5
	@DEBUG_VALUE: finsh_node_new_id:symbol <- $r4
	@DEBUG_VALUE: finsh_node_new_id:node <- $r0
	.loc	5 0 0 is_stmt 0                 @ rt-thread/components/finsh/finsh_node.c:0:0
	str	r4, [r0, #8]
.Ltmp26:
	.loc	5 99 22 is_stmt 1               @ rt-thread/components/finsh/finsh_node.c:99:22
	strb	r5, [r0, #2]
.Ltmp27:
	.loc	5 104 1                         @ rt-thread/components/finsh/finsh_node.c:104:1
	pop	{r4, r5, r7, pc}
.Ltmp28:
.LBB2_7:
	@DEBUG_VALUE: finsh_node_new_id:type <- $r5
	@DEBUG_VALUE: finsh_node_new_id:symbol <- $r4
	@DEBUG_VALUE: finsh_node_new_id:node <- $r0
	.loc	5 79 13                         @ rt-thread/components/finsh/finsh_node.c:79:13
	movs	r0, #6
.Ltmp29:
	.loc	5 0 13 is_stmt 0                @ rt-thread/components/finsh/finsh_node.c:0:13
	b	.LBB2_10
.Ltmp30:
.LBB2_8:
	@DEBUG_VALUE: finsh_node_new_id:id <- $r5
	@DEBUG_VALUE: finsh_node_new_id:symbol <- $r0
	@DEBUG_VALUE: finsh_node_new_id:type <- 0
	@DEBUG_VALUE: finsh_node_new_id:node <- 0
	.loc	5 64 29 is_stmt 1               @ rt-thread/components/finsh/finsh_node.c:64:29
	mov	r0, r5
.Ltmp31:
	bl	finsh_syscall_lookup
	mov	r4, r0
.Ltmp32:
	@DEBUG_VALUE: finsh_node_new_id:symbol <- $r4
	cmp	r0, #0
	it	ne
	movne	r0, #1
	.loc	5 65 17                         @ rt-thread/components/finsh/finsh_node.c:65:17
	lsls	r5, r0, #2
.Ltmp33:
	@DEBUG_VALUE: finsh_node_new_id:symbol <- $r4
	@DEBUG_VALUE: finsh_node_new_id:type <- $r5
	.loc	5 71 9                          @ rt-thread/components/finsh/finsh_node.c:71:9
	cmp	r4, #0
	bne	.LBB2_4
.Ltmp34:
.LBB2_9:
	@DEBUG_VALUE: finsh_node_new_id:type <- $r5
	@DEBUG_VALUE: finsh_node_new_id:symbol <- $r4
	@DEBUG_VALUE: finsh_node_new_id:node <- 0
	.loc	5 101 10                        @ rt-thread/components/finsh/finsh_node.c:101:10
	movs	r0, #13
.Ltmp35:
.LBB2_10:
	@DEBUG_VALUE: finsh_node_new_id:type <- $r5
	@DEBUG_VALUE: finsh_node_new_id:symbol <- $r4
	.loc	5 0 0 is_stmt 0                 @ rt-thread/components/finsh/finsh_node.c:0:0
	bl	finsh_error_set
	movs	r0, #0
.Ltmp36:
	.loc	5 104 1 is_stmt 1               @ rt-thread/components/finsh/finsh_node.c:104:1
	pop	{r4, r5, r7, pc}
.Ltmp37:
.LBB2_11:
	@DEBUG_VALUE: finsh_node_new_id:type <- $r5
	@DEBUG_VALUE: finsh_node_new_id:symbol <- $r4
	@DEBUG_VALUE: finsh_node_new_id:node <- $r0
	.loc	5 84 9                          @ rt-thread/components/finsh/finsh_node.c:84:9
	cmp	r5, #1
.Ltmp38:
	.loc	5 0 0 is_stmt 0                 @ rt-thread/components/finsh/finsh_node.c:0:0
	it	eq
	streq	r4, [r0, #8]
.Ltmp39:
	.loc	5 99 22 is_stmt 1               @ rt-thread/components/finsh/finsh_node.c:99:22
	strb	r5, [r0, #2]
.Ltmp40:
	.loc	5 104 1                         @ rt-thread/components/finsh/finsh_node.c:104:1
	pop	{r4, r5, r7, pc}
.Ltmp41:
.Lfunc_end2:
	.size	finsh_node_new_id, .Lfunc_end2-finsh_node_new_id
	.cfi_endproc
	.cantunwind
	.fnend
                                        @ -- End function
	.section	.text.finsh_node_new_char,"ax",%progbits
	.hidden	finsh_node_new_char             @ -- Begin function finsh_node_new_char
	.globl	finsh_node_new_char
	.p2align	3
	.type	finsh_node_new_char,%function
	.code	16                              @ @finsh_node_new_char
	.thumb_func
finsh_node_new_char:
.Lfunc_begin3:
	.loc	5 107 0                         @ rt-thread/components/finsh/finsh_node.c:107:0
	.fnstart
	.cfi_startproc
@ %bb.0:
	@DEBUG_VALUE: finsh_node_new_char:c <- $r0
	.save	{r4, lr}
	push	{r4, lr}
	.cfi_def_cfa_offset 8
	.cfi_offset lr, -4
	.cfi_offset r4, -8
	mov	r4, r0
.Ltmp42:
	@DEBUG_VALUE: finsh_node_new_char:c <- $r4
	@DEBUG_VALUE: finsh_node_new_char:c <- $r4
	.loc	5 110 12 prologue_end           @ rt-thread/components/finsh/finsh_node.c:110:12
	movs	r0, #2
	bl	finsh_node_allocate
.Ltmp43:
	@DEBUG_VALUE: finsh_node_new_char:node <- $r0
	.loc	5 111 9                         @ rt-thread/components/finsh/finsh_node.c:111:9
	cbz	r0, .LBB3_2
.Ltmp44:
@ %bb.1:
	@DEBUG_VALUE: finsh_node_new_char:c <- $r4
	@DEBUG_VALUE: finsh_node_new_char:node <- $r0
	@DEBUG_VALUE: finsh_node_new_char:c <- $r4
	.loc	5 117 28                        @ rt-thread/components/finsh/finsh_node.c:117:28
	strb	r4, [r0, #4]
	.loc	5 119 1                         @ rt-thread/components/finsh/finsh_node.c:119:1
	pop	{r4, pc}
.Ltmp45:
.LBB3_2:
	@DEBUG_VALUE: finsh_node_new_char:c <- $r4
	@DEBUG_VALUE: finsh_node_new_char:node <- $r0
	.loc	5 113 9                         @ rt-thread/components/finsh/finsh_node.c:113:9
	movs	r0, #6
.Ltmp46:
	bl	finsh_error_set
	movs	r0, #0
.Ltmp47:
	.loc	5 119 1                         @ rt-thread/components/finsh/finsh_node.c:119:1
	pop	{r4, pc}
.Ltmp48:
.Lfunc_end3:
	.size	finsh_node_new_char, .Lfunc_end3-finsh_node_new_char
	.cfi_endproc
	.cantunwind
	.fnend
                                        @ -- End function
	.section	.text.finsh_node_new_int,"ax",%progbits
	.hidden	finsh_node_new_int              @ -- Begin function finsh_node_new_int
	.globl	finsh_node_new_int
	.p2align	3
	.type	finsh_node_new_int,%function
	.code	16                              @ @finsh_node_new_int
	.thumb_func
finsh_node_new_int:
.Lfunc_begin4:
	.loc	5 122 0                         @ rt-thread/components/finsh/finsh_node.c:122:0
	.fnstart
	.cfi_startproc
@ %bb.0:
	@DEBUG_VALUE: finsh_node_new_int:i <- $r0
	.save	{r4, lr}
	push	{r4, lr}
	.cfi_def_cfa_offset 8
	.cfi_offset lr, -4
	.cfi_offset r4, -8
	mov	r4, r0
.Ltmp49:
	@DEBUG_VALUE: finsh_node_new_int:i <- $r4
	@DEBUG_VALUE: finsh_node_new_int:i <- $r4
	.loc	5 125 12 prologue_end           @ rt-thread/components/finsh/finsh_node.c:125:12
	movs	r0, #3
	bl	finsh_node_allocate
.Ltmp50:
	@DEBUG_VALUE: finsh_node_new_int:node <- $r0
	.loc	5 126 9                         @ rt-thread/components/finsh/finsh_node.c:126:9
	cbz	r0, .LBB4_2
.Ltmp51:
@ %bb.1:
	@DEBUG_VALUE: finsh_node_new_int:i <- $r4
	@DEBUG_VALUE: finsh_node_new_int:node <- $r0
	.loc	5 132 27                        @ rt-thread/components/finsh/finsh_node.c:132:27
	str	r4, [r0, #4]
	.loc	5 134 1                         @ rt-thread/components/finsh/finsh_node.c:134:1
	pop	{r4, pc}
.Ltmp52:
.LBB4_2:
	@DEBUG_VALUE: finsh_node_new_int:i <- $r4
	@DEBUG_VALUE: finsh_node_new_int:node <- $r0
	.loc	5 128 9                         @ rt-thread/components/finsh/finsh_node.c:128:9
	movs	r0, #6
.Ltmp53:
	bl	finsh_error_set
	movs	r0, #0
.Ltmp54:
	.loc	5 134 1                         @ rt-thread/components/finsh/finsh_node.c:134:1
	pop	{r4, pc}
.Ltmp55:
.Lfunc_end4:
	.size	finsh_node_new_int, .Lfunc_end4-finsh_node_new_int
	.cfi_endproc
	.cantunwind
	.fnend
                                        @ -- End function
	.section	.text.finsh_node_new_long,"ax",%progbits
	.hidden	finsh_node_new_long             @ -- Begin function finsh_node_new_long
	.globl	finsh_node_new_long
	.p2align	3
	.type	finsh_node_new_long,%function
	.code	16                              @ @finsh_node_new_long
	.thumb_func
finsh_node_new_long:
.Lfunc_begin5:
	.loc	5 137 0                         @ rt-thread/components/finsh/finsh_node.c:137:0
	.fnstart
	.cfi_startproc
@ %bb.0:
	@DEBUG_VALUE: finsh_node_new_long:l <- $r0
	.save	{r4, lr}
	push	{r4, lr}
	.cfi_def_cfa_offset 8
	.cfi_offset lr, -4
	.cfi_offset r4, -8
	mov	r4, r0
.Ltmp56:
	@DEBUG_VALUE: finsh_node_new_long:l <- $r4
	@DEBUG_VALUE: finsh_node_new_long:l <- $r4
	.loc	5 140 12 prologue_end           @ rt-thread/components/finsh/finsh_node.c:140:12
	movs	r0, #4
	bl	finsh_node_allocate
.Ltmp57:
	@DEBUG_VALUE: finsh_node_new_long:node <- $r0
	.loc	5 141 9                         @ rt-thread/components/finsh/finsh_node.c:141:9
	cbz	r0, .LBB5_2
.Ltmp58:
@ %bb.1:
	@DEBUG_VALUE: finsh_node_new_long:l <- $r4
	@DEBUG_VALUE: finsh_node_new_long:node <- $r0
	.loc	5 147 28                        @ rt-thread/components/finsh/finsh_node.c:147:28
	str	r4, [r0, #4]
	.loc	5 149 1                         @ rt-thread/components/finsh/finsh_node.c:149:1
	pop	{r4, pc}
.Ltmp59:
.LBB5_2:
	@DEBUG_VALUE: finsh_node_new_long:l <- $r4
	@DEBUG_VALUE: finsh_node_new_long:node <- $r0
	.loc	5 143 9                         @ rt-thread/components/finsh/finsh_node.c:143:9
	movs	r0, #6
.Ltmp60:
	bl	finsh_error_set
	movs	r0, #0
.Ltmp61:
	.loc	5 149 1                         @ rt-thread/components/finsh/finsh_node.c:149:1
	pop	{r4, pc}
.Ltmp62:
.Lfunc_end5:
	.size	finsh_node_new_long, .Lfunc_end5-finsh_node_new_long
	.cfi_endproc
	.cantunwind
	.fnend
                                        @ -- End function
	.section	.text.finsh_node_new_string,"ax",%progbits
	.hidden	finsh_node_new_string           @ -- Begin function finsh_node_new_string
	.globl	finsh_node_new_string
	.p2align	3
	.type	finsh_node_new_string,%function
	.code	16                              @ @finsh_node_new_string
	.thumb_func
finsh_node_new_string:
.Lfunc_begin6:
	.loc	5 152 0                         @ rt-thread/components/finsh/finsh_node.c:152:0
	.fnstart
	.cfi_startproc
@ %bb.0:
	@DEBUG_VALUE: finsh_node_new_string:s <- $r0
	.save	{r4, r5, r6, lr}
	push	{r4, r5, r6, lr}
	.cfi_def_cfa_offset 16
	.cfi_offset lr, -4
	.cfi_offset r6, -8
	.cfi_offset r5, -12
	.cfi_offset r4, -16
	mov	r5, r0
.Ltmp63:
	@DEBUG_VALUE: finsh_node_new_string:s <- $r5
	@DEBUG_VALUE: finsh_node_new_string:s <- $r5
	.loc	5 155 12 prologue_end           @ rt-thread/components/finsh/finsh_node.c:155:12
	movs	r0, #5
	bl	finsh_node_allocate
.Ltmp64:
	@DEBUG_VALUE: finsh_node_new_string:node <- $r0
	.loc	5 156 9                         @ rt-thread/components/finsh/finsh_node.c:156:9
	cbz	r0, .LBB6_2
.Ltmp65:
@ %bb.1:
	@DEBUG_VALUE: finsh_node_new_string:s <- $r5
	@DEBUG_VALUE: finsh_node_new_string:node <- $r0
	.loc	5 0 0 is_stmt 0                 @ rt-thread/components/finsh/finsh_node.c:0:0
	mov	r4, r0
.Ltmp66:
	@DEBUG_VALUE: finsh_node_new_string:node <- $r4
	@DEBUG_VALUE: finsh_node_new_string:node <- $r4
	.loc	5 163 43 is_stmt 1              @ rt-thread/components/finsh/finsh_node.c:163:43
	mov	r0, r5
	bl	strlen
	.loc	5 163 53 is_stmt 0              @ rt-thread/components/finsh/finsh_node.c:163:53
	adds	r0, #1
	.loc	5 163 23                        @ rt-thread/components/finsh/finsh_node.c:163:23
	bl	finsh_heap_allocate
	mov	r6, r0
	.loc	5 163 21                        @ rt-thread/components/finsh/finsh_node.c:163:21
	str	r0, [r4, #4]
	.loc	5 164 33 is_stmt 1              @ rt-thread/components/finsh/finsh_node.c:164:33
	mov	r0, r5
	bl	strlen
	mov	r2, r0
	.loc	5 164 5 is_stmt 0               @ rt-thread/components/finsh/finsh_node.c:164:5
	mov	r0, r6
	mov	r1, r5
	bl	strncpy
	.loc	5 165 33 is_stmt 1              @ rt-thread/components/finsh/finsh_node.c:165:33
	mov	r0, r5
	.loc	5 165 28 is_stmt 0              @ rt-thread/components/finsh/finsh_node.c:165:28
	ldr	r6, [r4, #4]
	.loc	5 165 33                        @ rt-thread/components/finsh/finsh_node.c:165:33
	bl	strlen
	movs	r1, #0
	.loc	5 165 44                        @ rt-thread/components/finsh/finsh_node.c:165:44
	strb	r1, [r6, r0]
	.loc	5 168 1 is_stmt 1               @ rt-thread/components/finsh/finsh_node.c:168:1
	mov	r0, r4
	pop	{r4, r5, r6, pc}
.Ltmp67:
.LBB6_2:
	@DEBUG_VALUE: finsh_node_new_string:s <- $r5
	@DEBUG_VALUE: finsh_node_new_string:node <- $r0
	.loc	5 158 9                         @ rt-thread/components/finsh/finsh_node.c:158:9
	movs	r0, #6
.Ltmp68:
	bl	finsh_error_set
	movs	r0, #0
.Ltmp69:
	.loc	5 168 1                         @ rt-thread/components/finsh/finsh_node.c:168:1
	pop	{r4, r5, r6, pc}
.Ltmp70:
.Lfunc_end6:
	.size	finsh_node_new_string, .Lfunc_end6-finsh_node_new_string
	.cfi_endproc
	.cantunwind
	.fnend
                                        @ -- End function
	.section	.text.finsh_node_new_ptr,"ax",%progbits
	.hidden	finsh_node_new_ptr              @ -- Begin function finsh_node_new_ptr
	.globl	finsh_node_new_ptr
	.p2align	3
	.type	finsh_node_new_ptr,%function
	.code	16                              @ @finsh_node_new_ptr
	.thumb_func
finsh_node_new_ptr:
.Lfunc_begin7:
	.loc	5 171 0                         @ rt-thread/components/finsh/finsh_node.c:171:0
	.fnstart
	.cfi_startproc
@ %bb.0:
	@DEBUG_VALUE: finsh_node_new_ptr:ptr <- $r0
	.save	{r4, lr}
	push	{r4, lr}
	.cfi_def_cfa_offset 8
	.cfi_offset lr, -4
	.cfi_offset r4, -8
	mov	r4, r0
.Ltmp71:
	@DEBUG_VALUE: finsh_node_new_ptr:ptr <- $r4
	@DEBUG_VALUE: finsh_node_new_ptr:ptr <- $r4
	.loc	5 174 12 prologue_end           @ rt-thread/components/finsh/finsh_node.c:174:12
	movs	r0, #6
	bl	finsh_node_allocate
.Ltmp72:
	@DEBUG_VALUE: finsh_node_new_ptr:node <- $r0
	.loc	5 175 9                         @ rt-thread/components/finsh/finsh_node.c:175:9
	cbz	r0, .LBB7_2
.Ltmp73:
@ %bb.1:
	@DEBUG_VALUE: finsh_node_new_ptr:ptr <- $r4
	@DEBUG_VALUE: finsh_node_new_ptr:node <- $r0
	.loc	5 181 21                        @ rt-thread/components/finsh/finsh_node.c:181:21
	str	r4, [r0, #4]
	.loc	5 183 1                         @ rt-thread/components/finsh/finsh_node.c:183:1
	pop	{r4, pc}
.Ltmp74:
.LBB7_2:
	@DEBUG_VALUE: finsh_node_new_ptr:ptr <- $r4
	@DEBUG_VALUE: finsh_node_new_ptr:node <- $r0
	.loc	5 177 9                         @ rt-thread/components/finsh/finsh_node.c:177:9
	movs	r0, #6
.Ltmp75:
	bl	finsh_error_set
	movs	r0, #0
.Ltmp76:
	.loc	5 183 1                         @ rt-thread/components/finsh/finsh_node.c:183:1
	pop	{r4, pc}
.Ltmp77:
.Lfunc_end7:
	.size	finsh_node_new_ptr, .Lfunc_end7-finsh_node_new_ptr
	.cfi_endproc
	.cantunwind
	.fnend
                                        @ -- End function
	.hidden	global_node_table               @ @global_node_table
	.type	global_node_table,%object
	.section	.bss.global_node_table,"aw",%nobits
	.globl	global_node_table
	.p2align	2
global_node_table:
	.zero	320
	.size	global_node_table, 320

	.section	".note.GNU-stack","",%progbits
	.eabi_attribute	30, 1	@ Tag_ABI_optimization_goals
	.ARM_attribute	16, 1	@ Tag_AV_eba