	.text
	.syntax unified
	.eabi_attribute	67, "2.09"	@ Tag_conformance
	.cpu	cortex-m7
	.eabi_attribute	6, 13	@ Tag_CPU_arch
	.eabi_attribute	7, 77	@ Tag_CPU_arch_profile
	.eabi_attribute	8, 0	@ Tag_ARM_ISA_use
	.eabi_attribute	9, 2	@ Tag_THUMB_ISA_use
	.fpu	fpv5-d16
	.eabi_attribute	36, 1	@ Tag_FP_HP_extension
	.eabi_attribute	34, 1	@ Tag_CPU_unaligned_access
	.eabi_attribute	17, 1	@ Tag_ABI_PCS_GOT_use
	.eabi_attribute	20, 2	@ Tag_ABI_FP_denormal
	.eabi_attribute	21, 0	@ Tag_ABI_FP_exceptions
	.eabi_attribute	23, 1	@ Tag_ABI_FP_number_model
	.eabi_attribute	24, 1	@ Tag_ABI_align_needed
	.eabi_attribute	25, 1	@ Tag_ABI_align_preserved
	.eabi_attribute	28, 1	@ Tag_ABI_VFP_args
	.eabi_attribute	38, 1	@ Tag_ABI_FP_16bit_format
	.eabi_attribute	18, 2	@ Tag_ABI_PCS_wchar_t
	.eabi_attribute	26, 1	@ Tag_ABI_enum_size
	.eabi_attribute	14, 0	@ Tag_ABI_PCS_R9_use
	.file	"finsh_token.c"
	.file	1 "E:\\Smart-access-control\\Hardware\\CODE" "rt-thread/components/finsh/finsh_token.c"
	.file	2 "E:\\Smart-access-control\\Hardware\\CODE" "rt-thread/components/finsh/finsh_token.h"
	.section	.text.finsh_token_init,"ax",%progbits
	.hidden	finsh_token_init                @ -- Begin function finsh_token_init
	.globl	finsh_token_init
	.p2align	3
	.type	finsh_token_init,%function
	.code	16                              @ @finsh_token_init
	.thumb_func
finsh_token_init:
.Lfunc_begin0:
	.loc	1 56 0                          @ rt-thread/components/finsh/finsh_token.c:56:0
	.fnstart
	.cfi_sections .debug_frame
	.cfi_startproc
@ %bb.0:
	.save	{r7, lr}
	push	{r7, lr}
	.cfi_def_cfa_offset 8
	.cfi_offset lr, -4
	.cfi_offset r7, -8
	.pad	#8
	sub	sp, #8
	.cfi_def_cfa_offset 16
	str	r0, [sp, #4]
	str	r1, [sp]
.Ltmp0:
	.loc	1 57 12 prologue_end            @ rt-thread/components/finsh/finsh_token.c:57:12
	ldr	r0, [sp, #4]
	movs	r1, #148
	.loc	1 57 5 is_stmt 0                @ rt-thread/components/finsh/finsh_token.c:57:5
	bl	__aeabi_memclr4
	.loc	1 59 18 is_stmt 1               @ rt-thread/components/finsh/finsh_token.c:59:18
	ldr	r0, [sp]
	.loc	1 59 5 is_stmt 0                @ rt-thread/components/finsh/finsh_token.c:59:5
	ldr	r1, [sp, #4]
	.loc	1 59 16                         @ rt-thread/components/finsh/finsh_token.c:59:16
	str.w	r0, [r1, #144]
	.loc	1 60 1 is_stmt 1                @ rt-thread/components/finsh/finsh_token.c:60:1
	add	sp, #8
	pop	{r7, pc}
.Ltmp1:
.Lfunc_end0:
	.size	finsh_token_init, .Lfunc_end0-finsh_token_init
	.cfi_endproc
	.cantunwind
	.fnend
                                        @ -- End function
	.section	.text.finsh_token_token,"ax",%progbits
	.hidden	finsh_token_token               @ -- Begin function finsh_token_token
	.globl	finsh_token_token
	.p2align	3
	.type	finsh_token_token,%function
	.code	16                              @ @finsh_token_token
	.thumb_func
finsh_token_token:
.Lfunc_begin1:
	.loc	1 63 0                          @ rt-thread/components/finsh/finsh_token.c:63:0
	.fnstart
	.cfi_startproc
@ %bb.0:
	.save	{r7, lr}
	push	{r7, lr}
	.cfi_def_cfa_offset 8
	.cfi_offset lr, -4
	.cfi_offset r7, -8
	.pad	#8
	sub	sp, #8
	.cfi_def_cfa_offset 16
	str	r0, [sp, #4]
.Ltmp2:
	.loc	1 64 10 prologue_end            @ rt-thread/components/finsh/finsh_token.c:64:10
	ldr	r0, [sp, #4]
	.loc	1 64 16 is_stmt 0               @ rt-thread/components/finsh/finsh_token.c:64:16
	ldrb	r0, [r0, #1]
.Ltmp3:
	.loc	1 64 10                         @ rt-thread/components/finsh/finsh_token.c:64:10
	cbz	r0, .LBB1_2
	b	.LBB1_1
.LBB1_1:
.Ltmp4:
	.loc	1 64 25                         @ rt-thread/components/finsh/finsh_token.c:64:25
	ldr	r1, [sp, #4]
	movs	r0, #0
	.loc	1 64 38                         @ rt-thread/components/finsh/finsh_token.c:64:38
	strb	r0, [r1, #1]
	.loc	1 64 25                         @ rt-thread/components/finsh/finsh_token.c:64:25
	b	.LBB1_3
.LBB1_2:
	.loc	1 65 20 is_stmt 1               @ rt-thread/components/finsh/finsh_token.c:65:20
	ldr	r0, [sp, #4]
	.loc	1 65 10 is_stmt 0               @ rt-thread/components/finsh/finsh_token.c:65:10
	bl	token_run
	b	.LBB1_3
.Ltmp5:
.LBB1_3:
	.loc	1 67 35 is_stmt 1               @ rt-thread/components/finsh/finsh_token.c:67:35
	ldr	r0, [sp, #4]
	.loc	1 67 41 is_stmt 0               @ rt-thread/components/finsh/finsh_token.c:67:41
	ldrb	r0, [r0, #8]
	.loc	1 67 5                          @ rt-thread/components/finsh/finsh_token.c:67:5
	add	sp, #8
	pop	{r7, pc}
.Ltmp6:
.Lfunc_end1:
	.size	finsh_token_token, .Lfunc_end1-finsh_token_token
	.cfi_endproc
	.cantunwind
	.fnend
                                        @ -- End function
	.section	.text.token_run,"ax",%progbits
	.p2align	3                               @ -- Begin function token_run
	.type	token_run,%function
	.code	16                              @ @token_run
	.thumb_func
token_run:
.Lfunc_begin2:
	.loc	1 131 0 is_stmt 1               @ rt-thread/components/finsh/finsh_token.c:131:0
	.fnstart
	.cfi_startproc
@ %bb.0:
	.save	{r7, lr}
	push	{r7, lr}
	.cfi_def_cfa_offset 8
	.cfi_offset lr, -4
	.cfi_offset r7, -8
	.pad	#16
	sub	sp, #16
	.cfi_def_cfa_offset 24
	str	r0, [sp, #12]
.Ltmp7:
	.loc	1 134 22 prologue_end           @ rt-thread/components/finsh/finsh_token.c:134:22
	ldr	r0, [sp, #12]
	.loc	1 134 5 is_stmt 0               @ rt-thread/components/finsh/finsh_token.c:134:5
	bl	token_trim_space
	.loc	1 135 22 is_stmt 1              @ rt-thread/components/finsh/finsh_token.c:135:22
	ldr	r0, [sp, #12]
	.loc	1 135 36 is_stmt 0              @ rt-thread/components/finsh/finsh_token.c:135:36
	add.w	r1, r0, #16
	.loc	1 135 5                         @ rt-thread/components/finsh/finsh_token.c:135:5
	bl	token_get_string
.Ltmp8:
	.loc	1 137 10 is_stmt 1              @ rt-thread/components/finsh/finsh_token.c:137:10
	ldr	r0, [sp, #12]
	ldrb	r0, [r0]
.Ltmp9:
	.loc	1 137 10 is_stmt 0              @ rt-thread/components/finsh/finsh_token.c:137:10
	cbz	r0, .LBB2_2
	b	.LBB2_1
.LBB2_1:
.Ltmp10:
	.loc	1 139 9 is_stmt 1               @ rt-thread/components/finsh/finsh_token.c:139:9
	ldr	r1, [sp, #12]
	movs	r0, #33
	.loc	1 139 29 is_stmt 0              @ rt-thread/components/finsh/finsh_token.c:139:29
	strb	r0, [r1, #8]
	.loc	1 140 9 is_stmt 1               @ rt-thread/components/finsh/finsh_token.c:140:9
	b	.LBB2_47
.Ltmp11:
.LBB2_2:
	.loc	1 143 9                         @ rt-thread/components/finsh/finsh_token.c:143:9
	ldr	r0, [sp, #12]
	ldrb	r0, [r0, #16]
.Ltmp12:
	.loc	1 143 9 is_stmt 0               @ rt-thread/components/finsh/finsh_token.c:143:9
	cbz	r0, .LBB2_6
	b	.LBB2_3
.LBB2_3:
.Ltmp13:
	.loc	1 145 32 is_stmt 1              @ rt-thread/components/finsh/finsh_token.c:145:32
	ldr	r0, [sp, #12]
	.loc	1 145 51 is_stmt 0              @ rt-thread/components/finsh/finsh_token.c:145:51
	add.w	r1, r0, #16
	.loc	1 145 15                        @ rt-thread/components/finsh/finsh_token.c:145:15
	bl	token_match_name
.Ltmp14:
	.loc	1 145 14                        @ rt-thread/components/finsh/finsh_token.c:145:14
	cbnz	r0, .LBB2_5
	b	.LBB2_4
.LBB2_4:
.Ltmp15:
	.loc	1 147 13 is_stmt 1              @ rt-thread/components/finsh/finsh_token.c:147:13
	ldr	r1, [sp, #12]
	movs	r0, #31
	.loc	1 147 33 is_stmt 0              @ rt-thread/components/finsh/finsh_token.c:147:33
	strb	r0, [r1, #8]
	.loc	1 148 9 is_stmt 1               @ rt-thread/components/finsh/finsh_token.c:148:9
	b	.LBB2_5
.Ltmp16:
.LBB2_5:
	.loc	1 149 5                         @ rt-thread/components/finsh/finsh_token.c:149:5
	b	.LBB2_47
.Ltmp17:
.LBB2_6:
	.loc	1 152 30                        @ rt-thread/components/finsh/finsh_token.c:152:30
	ldr	r0, [sp, #12]
	.loc	1 152 14 is_stmt 0              @ rt-thread/components/finsh/finsh_token.c:152:14
	bl	token_next_char
	.loc	1 152 12                        @ rt-thread/components/finsh/finsh_token.c:152:12
	strb.w	r0, [sp, #11]
	.loc	1 154 18 is_stmt 1              @ rt-thread/components/finsh/finsh_token.c:154:18
	ldrsb.w	r0, [sp, #11]
	.loc	1 154 9 is_stmt 0               @ rt-thread/components/finsh/finsh_token.c:154:9
	subs	r0, #34
	mov	r1, r0
	str	r1, [sp, #4]                    @ 4-byte Spill
	cmp	r0, #92
	bhi.w	.LBB2_42
@ %bb.7:
	.loc	1 0 9                           @ rt-thread/components/finsh/finsh_token.c:0:9
	ldr	r1, [sp, #4]                    @ 4-byte Reload
.LCPI2_0:
	tbh	[pc, r1, lsl #1]
@ %bb.8:
.LJTI2_0:
	.short	(.LBB2_41-(.LCPI2_0+4))/2
	.short	(.LBB2_42-(.LCPI2_0+4))/2
	.short	(.LBB2_42-(.LCPI2_0+4))/2
	.short	(.LBB2_36-(.LCPI2_0+4))/2
	.short	(.LBB2_13-(.LCPI2_0+4))/2
	.short	(.LBB2_40-(.LCPI2_0+4))/2
	.short	(.LBB2_9-(.LCPI2_0+4))/2
	.short	(.LBB2_10-(.LCPI2_0+4))/2
	.short	(.LBB2_14-(.LCPI2_0+4))/2
	.short	(.LBB2_15-(.LCPI2_0+4))/2
	.short	(.LBB2_11-(.LCPI2_0+4))/2
	.short	(.LBB2_19-(.LCPI2_0+4))/2
	.short	(.LBB2_42-(.LCPI2_0+4))/2
	.short	(.LBB2_23-(.LCPI2_0+4))/2
	.short	(.LBB2_42-(.LCPI2_0+4))/2
	.short	(.LBB2_42-(.LCPI2_0+4))/2
	.short	(.LBB2_42-(.LCPI2_0+4))/2
	.short	(.LBB2_42-(.LCPI2_0+4))/2
	.short	(.LBB2_42-(.LCPI2_0+4))/2
	.short	(.LBB2_42-(.LCPI2_0+4))/2
	.short	(.LBB2_42-(.LCPI2_0+4))/2
	.short	(.LBB2_42-(.LCPI2_0+4))/2
	.short	(.LBB2_42-(.LCPI2_0+4))/2
	.short	(.LBB2_42-(.LCPI2_0+4))/2
	.short	(.LBB2_42-(.LCPI2_0+4))/2
	.short	(.LBB2_12-(.LCPI2_0+4))/2
	.short	(.LBB2_27-(.LCPI2_0+4))/2
	.short	(.LBB2_39-(.LCPI2_0+4))/2
	.short	(.LBB2_31-(.LCPI2_0+4))/2
	.short	(.LBB2_42-(.LCPI2_0+4))/2
	.short	(.LBB2_42-(.LCPI2_0+4))/2
	.short	(.LBB2_42-(.LCPI2_0+4))/2
	.short	(.LBB2_42-(.LCPI2_0+4))/2
	.short	(.LBB2_42-(.LCPI2_0+4))/2
	.short	(.LBB2_42-(.LCPI2_0+4))/2
	.short	(.LBB2_42-(.LCPI2_0+4))/2
	.short	(.LBB2_42-(.LCPI2_0+4))/2
	.short	(.LBB2_42-(.LCPI2_0+4))/2
	.short	(.LBB2_42-(.LCPI2_0+4))/2
	.short	(.LBB2_42-(.LCPI2_0+4))/2
	.short	(.LBB2_42-(.LCPI2_0+4))/2
	.short	(.LBB2_42-(.LCPI2_0+4))/2
	.short	(.LBB2_42-(.LCPI2_0+4))/2
	.short	(.LBB2_42-(.LCPI2_0+4))/2
	.short	(.LBB2_42-(.LCPI2_0+4))/2
	.short	(.LBB2_42-(.LCPI2_0+4))/2
	.short	(.LBB2_42-(.LCPI2_0+4))/2
	.short	(.LBB2_42-(.LCPI2_0+4))/2
	.short	(.LBB2_42-(.LCPI2_0+4))/2
	.short	(.LBB2_42-(.LCPI2_0+4))/2
	.short	(.LBB2_42-(.LCPI2_0+4))/2
	.short	(.LBB2_42-(.LCPI2_0+4))/2
	.short	(.LBB2_42-(.LCPI2_0+4))/2
	.short	(.LBB2_42-(.LCPI2_0+4))/2
	.short	(.LBB2_42-(.LCPI2_0+4))/2
	.short	(.LBB2_42-(.LCPI2_0+4))/2
	.short	(.LBB2_42-(.LCPI2_0+4))/2
	.short	(.LBB2_42-(.LCPI2_0+4))/2
	.short	(.LBB2_42-(.LCPI2_0+4))/2
	.short	(.LBB2_42-(.LCPI2_0+4))/2
	.short	(.LBB2_38-(.LCPI2_0+4))/2
	.short	(.LBB2_42-(.LCPI2_0+4))/2
	.short	(.LBB2_42-(.LCPI2_0+4))/2
	.short	(.LBB2_42-(.LCPI2_0+4))/2
	.short	(.LBB2_42-(.LCPI2_0+4))/2
	.short	(.LBB2_42-(.LCPI2_0+4))/2
	.short	(.LBB2_42-(.LCPI2_0+4))/2
	.short	(.LBB2_42-(.LCPI2_0+4))/2
	.short	(.LBB2_42-(.LCPI2_0+4))/2
	.short	(.LBB2_42-(.LCPI2_0+4))/2
	.short	(.LBB2_42-(.LCPI2_0+4))/2
	.short	(.LBB2_42-(.LCPI2_0+4))/2
	.short	(.LBB2_42-(.LCPI2_0+4))/2
	.short	(.LBB2_42-(.LCPI2_0+4))/2
	.short	(.LBB2_42-(.LCPI2_0+4))/2
	.short	(.LBB2_42-(.LCPI2_0+4))/2
	.short	(.LBB2_42-(.LCPI2_0+4))/2
	.short	(.LBB2_42-(.LCPI2_0+4))/2
	.short	(.LBB2_42-(.LCPI2_0+4))/2
	.short	(.LBB2_42-(.LCPI2_0+4))/2
	.short	(.LBB2_42-(.LCPI2_0+4))/2
	.short	(.LBB2_42-(.LCPI2_0+4))/2
	.short	(.LBB2_42-(.LCPI2_0+4))/2
	.short	(.LBB2_42-(.LCPI2_0+4))/2
	.short	(.LBB2_42-(.LCPI2_0+4))/2
	.short	(.LBB2_42-(.LCPI2_0+4))/2
	.short	(.LBB2_42-(.LCPI2_0+4))/2
	.short	(.LBB2_42-(.LCPI2_0+4))/2
	.short	(.LBB2_42-(.LCPI2_0+4))/2
	.short	(.LBB2_42-(.LCPI2_0+4))/2
	.short	(.LBB2_35-(.LCPI2_0+4))/2
	.short	(.LBB2_42-(.LCPI2_0+4))/2
	.short	(.LBB2_37-(.LCPI2_0+4))/2
	.p2align	1
.LBB2_9:
.Ltmp18:
	.loc	1 157 13 is_stmt 1              @ rt-thread/components/finsh/finsh_token.c:157:13
	ldr	r1, [sp, #12]
	movs	r0, #1
	.loc	1 157 33 is_stmt 0              @ rt-thread/components/finsh/finsh_token.c:157:33
	strb	r0, [r1, #8]
	.loc	1 158 13 is_stmt 1              @ rt-thread/components/finsh/finsh_token.c:158:13
	b	.LBB2_46
.LBB2_10:
	.loc	1 161 13                        @ rt-thread/components/finsh/finsh_token.c:161:13
	ldr	r1, [sp, #12]
	movs	r0, #2
	.loc	1 161 33 is_stmt 0              @ rt-thread/components/finsh/finsh_token.c:161:33
	strb	r0, [r1, #8]
	.loc	1 162 13 is_stmt 1              @ rt-thread/components/finsh/finsh_token.c:162:13
	b	.LBB2_46
.LBB2_11:
	.loc	1 165 13                        @ rt-thread/components/finsh/finsh_token.c:165:13
	ldr	r1, [sp, #12]
	movs	r0, #3
	.loc	1 165 33 is_stmt 0              @ rt-thread/components/finsh/finsh_token.c:165:33
	strb	r0, [r1, #8]
	.loc	1 166 13 is_stmt 1              @ rt-thread/components/finsh/finsh_token.c:166:13
	b	.LBB2_46
.LBB2_12:
	.loc	1 169 13                        @ rt-thread/components/finsh/finsh_token.c:169:13
	ldr	r1, [sp, #12]
	movs	r0, #4
	.loc	1 169 33 is_stmt 0              @ rt-thread/components/finsh/finsh_token.c:169:33
	strb	r0, [r1, #8]
	.loc	1 170 13 is_stmt 1              @ rt-thread/components/finsh/finsh_token.c:170:13
	b	.LBB2_46
.LBB2_13:
	.loc	1 173 13                        @ rt-thread/components/finsh/finsh_token.c:173:13
	ldr	r1, [sp, #12]
	movs	r0, #13
	.loc	1 173 33 is_stmt 0              @ rt-thread/components/finsh/finsh_token.c:173:33
	strb	r0, [r1, #8]
	.loc	1 174 13 is_stmt 1              @ rt-thread/components/finsh/finsh_token.c:174:13
	b	.LBB2_46
.LBB2_14:
	.loc	1 177 13                        @ rt-thread/components/finsh/finsh_token.c:177:13
	ldr	r1, [sp, #12]
	movs	r0, #5
	.loc	1 177 33 is_stmt 0              @ rt-thread/components/finsh/finsh_token.c:177:33
	strb	r0, [r1, #8]
	.loc	1 178 13 is_stmt 1              @ rt-thread/components/finsh/finsh_token.c:178:13
	b	.LBB2_46
.LBB2_15:
	.loc	1 181 34                        @ rt-thread/components/finsh/finsh_token.c:181:34
	ldr	r0, [sp, #12]
	.loc	1 181 18 is_stmt 0              @ rt-thread/components/finsh/finsh_token.c:181:18
	bl	token_next_char
	.loc	1 181 16                        @ rt-thread/components/finsh/finsh_token.c:181:16
	strb.w	r0, [sp, #11]
.Ltmp19:
	.loc	1 183 18 is_stmt 1              @ rt-thread/components/finsh/finsh_token.c:183:18
	ldrsb.w	r0, [sp, #11]
.Ltmp20:
	.loc	1 183 18 is_stmt 0              @ rt-thread/components/finsh/finsh_token.c:183:18
	cmp	r0, #43
	bne	.LBB2_17
	b	.LBB2_16
.LBB2_16:
.Ltmp21:
	.loc	1 185 17 is_stmt 1              @ rt-thread/components/finsh/finsh_token.c:185:17
	ldr	r1, [sp, #12]
	movs	r0, #7
	.loc	1 185 37 is_stmt 0              @ rt-thread/components/finsh/finsh_token.c:185:37
	strb	r0, [r1, #8]
	.loc	1 186 13 is_stmt 1              @ rt-thread/components/finsh/finsh_token.c:186:13
	b	.LBB2_18
.Ltmp22:
.LBB2_17:
	.loc	1 189 33                        @ rt-thread/components/finsh/finsh_token.c:189:33
	ldr	r0, [sp, #12]
	.loc	1 189 17 is_stmt 0              @ rt-thread/components/finsh/finsh_token.c:189:17
	bl	token_prev_char
	.loc	1 190 17 is_stmt 1              @ rt-thread/components/finsh/finsh_token.c:190:17
	ldr	r1, [sp, #12]
	movs	r0, #6
	.loc	1 190 37 is_stmt 0              @ rt-thread/components/finsh/finsh_token.c:190:37
	strb	r0, [r1, #8]
	b	.LBB2_18
.Ltmp23:
.LBB2_18:
	.loc	1 192 13 is_stmt 1              @ rt-thread/components/finsh/finsh_token.c:192:13
	b	.LBB2_46
.LBB2_19:
	.loc	1 195 34                        @ rt-thread/components/finsh/finsh_token.c:195:34
	ldr	r0, [sp, #12]
	.loc	1 195 18 is_stmt 0              @ rt-thread/components/finsh/finsh_token.c:195:18
	bl	token_next_char
	.loc	1 195 16                        @ rt-thread/components/finsh/finsh_token.c:195:16
	strb.w	r0, [sp, #11]
.Ltmp24:
	.loc	1 197 18 is_stmt 1              @ rt-thread/components/finsh/finsh_token.c:197:18
	ldrsb.w	r0, [sp, #11]
.Ltmp25:
	.loc	1 197 18 is_stmt 0              @ rt-thread/components/finsh/finsh_token.c:197:18
	cmp	r0, #45
	bne	.LBB2_21
	b	.LBB2_20
.LBB2_20:
.Ltmp26:
	.loc	1 199 17 is_stmt 1              @ rt-thread/components/finsh/finsh_token.c:199:17
	ldr	r1, [sp, #12]
	movs	r0, #9
	.loc	1 199 37 is_stmt 0              @ rt-thread/components/finsh/finsh_token.c:199:37
	strb	r0, [r1, #8]
	.loc	1 200 13 is_stmt 1              @ rt-thread/components/finsh/finsh_token.c:200:13
	b	.LBB2_22
.Ltmp27:
.LBB2_21:
	.loc	1 203 33                        @ rt-thread/components/finsh/finsh_token.c:203:33
	ldr	r0, [sp, #12]
	.loc	1 203 17 is_stmt 0              @ rt-thread/components/finsh/finsh_token.c:203:17
	bl	token_prev_char
	.loc	1 204 17 is_stmt 1              @ rt-thread/components/finsh/finsh_token.c:204:17
	ldr	r1, [sp, #12]
	movs	r0, #8
	.loc	1 204 37 is_stmt 0              @ rt-thread/components/finsh/finsh_token.c:204:37
	strb	r0, [r1, #8]
	b	.LBB2_22
.Ltmp28:
.LBB2_22:
	.loc	1 206 13 is_stmt 1              @ rt-thread/components/finsh/finsh_token.c:206:13
	b	.LBB2_46
.LBB2_23:
	.loc	1 209 34                        @ rt-thread/components/finsh/finsh_token.c:209:34
	ldr	r0, [sp, #12]
	.loc	1 209 18 is_stmt 0              @ rt-thread/components/finsh/finsh_token.c:209:18
	bl	token_next_char
	.loc	1 209 16                        @ rt-thread/components/finsh/finsh_token.c:209:16
	strb.w	r0, [sp, #11]
.Ltmp29:
	.loc	1 210 17 is_stmt 1              @ rt-thread/components/finsh/finsh_token.c:210:17
	ldrsb.w	r0, [sp, #11]
.Ltmp30:
	.loc	1 210 17 is_stmt 0              @ rt-thread/components/finsh/finsh_token.c:210:17
	cmp	r0, #47
	bne	.LBB2_25
	b	.LBB2_24
.LBB2_24:
.Ltmp31:
	.loc	1 213 17 is_stmt 1              @ rt-thread/components/finsh/finsh_token.c:213:17
	ldr	r1, [sp, #12]
	movs	r0, #33
	.loc	1 213 37 is_stmt 0              @ rt-thread/components/finsh/finsh_token.c:213:37
	strb	r0, [r1, #8]
	.loc	1 214 13 is_stmt 1              @ rt-thread/components/finsh/finsh_token.c:214:13
	b	.LBB2_26
.Ltmp32:
.LBB2_25:
	.loc	1 217 33                        @ rt-thread/components/finsh/finsh_token.c:217:33
	ldr	r0, [sp, #12]
	.loc	1 217 17 is_stmt 0              @ rt-thread/components/finsh/finsh_token.c:217:17
	bl	token_prev_char
	.loc	1 218 17 is_stmt 1              @ rt-thread/components/finsh/finsh_token.c:218:17
	ldr	r1, [sp, #12]
	movs	r0, #10
	.loc	1 218 37 is_stmt 0              @ rt-thread/components/finsh/finsh_token.c:218:37
	strb	r0, [r1, #8]
	b	.LBB2_26
.Ltmp33:
.LBB2_26:
	.loc	1 220 13 is_stmt 1              @ rt-thread/components/finsh/finsh_token.c:220:13
	b	.LBB2_46
.LBB2_27:
	.loc	1 223 34                        @ rt-thread/components/finsh/finsh_token.c:223:34
	ldr	r0, [sp, #12]
	.loc	1 223 18 is_stmt 0              @ rt-thread/components/finsh/finsh_token.c:223:18
	bl	token_next_char
	.loc	1 223 16                        @ rt-thread/components/finsh/finsh_token.c:223:16
	strb.w	r0, [sp, #11]
.Ltmp34:
	.loc	1 225 18 is_stmt 1              @ rt-thread/components/finsh/finsh_token.c:225:18
	ldrsb.w	r0, [sp, #11]
.Ltmp35:
	.loc	1 225 18 is_stmt 0              @ rt-thread/components/finsh/finsh_token.c:225:18
	cmp	r0, #60
	bne	.LBB2_29
	b	.LBB2_28
.LBB2_28:
.Ltmp36:
	.loc	1 227 17 is_stmt 1              @ rt-thread/components/finsh/finsh_token.c:227:17
	ldr	r1, [sp, #12]
	movs	r0, #17
	.loc	1 227 37 is_stmt 0              @ rt-thread/components/finsh/finsh_token.c:227:37
	strb	r0, [r1, #8]
	.loc	1 228 13 is_stmt 1              @ rt-thread/components/finsh/finsh_token.c:228:13
	b	.LBB2_30
.Ltmp37:
.LBB2_29:
	.loc	1 231 33                        @ rt-thread/components/finsh/finsh_token.c:231:33
	ldr	r0, [sp, #12]
	.loc	1 231 17 is_stmt 0              @ rt-thread/components/finsh/finsh_token.c:231:17
	bl	token_prev_char
	.loc	1 232 17 is_stmt 1              @ rt-thread/components/finsh/finsh_token.c:232:17
	ldr	r1, [sp, #12]
	movs	r0, #32
	.loc	1 232 37 is_stmt 0              @ rt-thread/components/finsh/finsh_token.c:232:37
	strb	r0, [r1, #8]
	b	.LBB2_30
.Ltmp38:
.LBB2_30:
	.loc	1 234 13 is_stmt 1              @ rt-thread/components/finsh/finsh_token.c:234:13
	b	.LBB2_46
.LBB2_31:
	.loc	1 237 34                        @ rt-thread/components/finsh/finsh_token.c:237:34
	ldr	r0, [sp, #12]
	.loc	1 237 18 is_stmt 0              @ rt-thread/components/finsh/finsh_token.c:237:18
	bl	token_next_char
	.loc	1 237 16                        @ rt-thread/components/finsh/finsh_token.c:237:16
	strb.w	r0, [sp, #11]
.Ltmp39:
	.loc	1 239 18 is_stmt 1              @ rt-thread/components/finsh/finsh_token.c:239:18
	ldrsb.w	r0, [sp, #11]
.Ltmp40:
	.loc	1 239 18 is_stmt 0              @ rt-thread/components/finsh/finsh_token.c:239:18
	cmp	r0, #62
	bne	.LBB2_33
	b	.LBB2_32
.LBB2_32:
.Ltmp41:
	.loc	1 241 17 is_stmt 1              @ rt-thread/components/finsh/finsh_token.c:241:17
	ldr	r1, [sp, #12]
	movs	r0, #18
	.loc	1 241 37 is_stmt 0              @ rt-thread/components/finsh/finsh_token.c:241:37
	strb	r0, [r1, #8]
	.loc	1 242 13 is_stmt 1              @ rt-thread/components/finsh/finsh_token.c:242:13
	b	.LBB2_34
.Ltmp42:
.LBB2_33:
	.loc	1 245 33                        @ rt-thread/components/finsh/finsh_token.c:245:33
	ldr	r0, [sp, #12]
	.loc	1 245 17 is_stmt 0              @ rt-thread/components/finsh/finsh_token.c:245:17
	bl	token_prev_char
	.loc	1 246 17 is_stmt 1              @ rt-thread/components/finsh/finsh_token.c:246:17
	ldr	r1, [sp, #12]
	movs	r0, #32
	.loc	1 246 37 is_stmt 0              @ rt-thread/components/finsh/finsh_token.c:246:37
	strb	r0, [r1, #8]
	b	.LBB2_34
.Ltmp43:
.LBB2_34:
	.loc	1 248 13 is_stmt 1              @ rt-thread/components/finsh/finsh_token.c:248:13
	b	.LBB2_46
.LBB2_35:
	.loc	1 251 13                        @ rt-thread/components/finsh/finsh_token.c:251:13
	ldr	r1, [sp, #12]
	movs	r0, #14
	.loc	1 251 33 is_stmt 0              @ rt-thread/components/finsh/finsh_token.c:251:33
	strb	r0, [r1, #8]
	.loc	1 252 13 is_stmt 1              @ rt-thread/components/finsh/finsh_token.c:252:13
	b	.LBB2_46
.LBB2_36:
	.loc	1 255 13                        @ rt-thread/components/finsh/finsh_token.c:255:13
	ldr	r1, [sp, #12]
	movs	r0, #11
	.loc	1 255 33 is_stmt 0              @ rt-thread/components/finsh/finsh_token.c:255:33
	strb	r0, [r1, #8]
	.loc	1 256 13 is_stmt 1              @ rt-thread/components/finsh/finsh_token.c:256:13
	b	.LBB2_46
.LBB2_37:
	.loc	1 259 13                        @ rt-thread/components/finsh/finsh_token.c:259:13
	ldr	r1, [sp, #12]
	movs	r0, #16
	.loc	1 259 33 is_stmt 0              @ rt-thread/components/finsh/finsh_token.c:259:33
	strb	r0, [r1, #8]
	.loc	1 260 13 is_stmt 1              @ rt-thread/components/finsh/finsh_token.c:260:13
	b	.LBB2_46
.LBB2_38:
	.loc	1 263 13                        @ rt-thread/components/finsh/finsh_token.c:263:13
	ldr	r1, [sp, #12]
	movs	r0, #15
	.loc	1 263 33 is_stmt 0              @ rt-thread/components/finsh/finsh_token.c:263:33
	strb	r0, [r1, #8]
	.loc	1 264 13 is_stmt 1              @ rt-thread/components/finsh/finsh_token.c:264:13
	b	.LBB2_46
.LBB2_39:
	.loc	1 267 13                        @ rt-thread/components/finsh/finsh_token.c:267:13
	ldr	r1, [sp, #12]
	movs	r0, #12
	.loc	1 267 33 is_stmt 0              @ rt-thread/components/finsh/finsh_token.c:267:33
	strb	r0, [r1, #8]
	.loc	1 268 13 is_stmt 1              @ rt-thread/components/finsh/finsh_token.c:268:13
	b	.LBB2_46
.LBB2_40:
	.loc	1 271 54                        @ rt-thread/components/finsh/finsh_token.c:271:54
	ldr	r0, [sp, #12]
	.loc	1 271 38 is_stmt 0              @ rt-thread/components/finsh/finsh_token.c:271:38
	bl	token_proc_char
	.loc	1 271 13                        @ rt-thread/components/finsh/finsh_token.c:271:13
	ldr	r1, [sp, #12]
	.loc	1 271 36                        @ rt-thread/components/finsh/finsh_token.c:271:36
	strb	r0, [r1, #12]
	.loc	1 272 13 is_stmt 1              @ rt-thread/components/finsh/finsh_token.c:272:13
	ldr	r1, [sp, #12]
	movs	r0, #26
	.loc	1 272 33 is_stmt 0              @ rt-thread/components/finsh/finsh_token.c:272:33
	strb	r0, [r1, #8]
	.loc	1 273 13 is_stmt 1              @ rt-thread/components/finsh/finsh_token.c:273:13
	b	.LBB2_46
.LBB2_41:
	.loc	1 276 31                        @ rt-thread/components/finsh/finsh_token.c:276:31
	ldr	r0, [sp, #12]
	.loc	1 276 13 is_stmt 0              @ rt-thread/components/finsh/finsh_token.c:276:13
	bl	token_proc_string
	.loc	1 277 13 is_stmt 1              @ rt-thread/components/finsh/finsh_token.c:277:13
	ldr	r1, [sp, #12]
	movs	r0, #29
	.loc	1 277 33 is_stmt 0              @ rt-thread/components/finsh/finsh_token.c:277:33
	strb	r0, [r1, #8]
	.loc	1 278 13 is_stmt 1              @ rt-thread/components/finsh/finsh_token.c:278:13
	b	.LBB2_46
.LBB2_42:
.Ltmp44:
	.loc	1 281 18                        @ rt-thread/components/finsh/finsh_token.c:281:18
	ldrsb.w	r0, [sp, #11]
	cmp	r0, #48
	blt	.LBB2_45
	b	.LBB2_43
.LBB2_43:
	ldrsb.w	r0, [sp, #11]
.Ltmp45:
	.loc	1 281 18 is_stmt 0              @ rt-thread/components/finsh/finsh_token.c:281:18
	cmp	r0, #57
	bgt	.LBB2_45
	b	.LBB2_44
.LBB2_44:
.Ltmp46:
	.loc	1 283 33 is_stmt 1              @ rt-thread/components/finsh/finsh_token.c:283:33
	ldr	r0, [sp, #12]
	.loc	1 283 17 is_stmt 0              @ rt-thread/components/finsh/finsh_token.c:283:17
	bl	token_prev_char
	.loc	1 284 35 is_stmt 1              @ rt-thread/components/finsh/finsh_token.c:284:35
	ldr	r0, [sp, #12]
	.loc	1 284 17 is_stmt 0              @ rt-thread/components/finsh/finsh_token.c:284:17
	bl	token_proc_number
	.loc	1 285 17 is_stmt 1              @ rt-thread/components/finsh/finsh_token.c:285:17
	b	.LBB2_46
.Ltmp47:
.LBB2_45:
	.loc	1 0 17 is_stmt 0                @ rt-thread/components/finsh/finsh_token.c:0:17
	movs	r0, #11
	.loc	1 288 13 is_stmt 1              @ rt-thread/components/finsh/finsh_token.c:288:13
	bl	finsh_error_set
	.loc	1 289 13                        @ rt-thread/components/finsh/finsh_token.c:289:13
	ldr	r1, [sp, #12]
	movs	r0, #32
	.loc	1 289 33 is_stmt 0              @ rt-thread/components/finsh/finsh_token.c:289:33
	strb	r0, [r1, #8]
	.loc	1 291 13 is_stmt 1              @ rt-thread/components/finsh/finsh_token.c:291:13
	b	.LBB2_46
.Ltmp48:
.LBB2_46:
	.loc	1 0 13 is_stmt 0                @ rt-thread/components/finsh/finsh_token.c:0:13
	b	.LBB2_47
.LBB2_47:
	.loc	1 294 1 is_stmt 1               @ rt-thread/components/finsh/finsh_token.c:294:1
	add	sp, #16
	pop	{r7, pc}
.Ltmp49:
.Lfunc_end2:
	.size	token_run, .Lfunc_end2-token_run
	.cfi_endproc
	.cantunwind
	.fnend
                                        @ -- End function
	.section	.text.finsh_token_get_token,"ax",%progbits
	.hidden	finsh_token_get_token           @ -- Begin function finsh_token_get_token
	.globl	finsh_token_get_token
	.p2align	3
	.type	finsh_token_get_token,%function
	.code	16                              @ @finsh_token_get_token
	.thumb_func
finsh_token_get_token:
.Lfunc_begin3:
	.loc	1 71 0                          @ rt-thread/components/finsh/finsh_token.c:71:0
	.fnstart
	.cfi_startproc
@ %bb.0:
	.save	{r7, lr}
	push	{r7, lr}
	.cfi_def_cfa_offset 8
	.cfi_offset lr, -4
	.cfi_offset r7, -8
	.pad	#8
	sub	sp, #8
	.cfi_def_cfa_offset 16
	str	r0, [sp, #4]
	str	r1, [sp]
.Ltmp50:
	.loc	1 72 20 prologue_end            @ rt-thread/components/finsh/finsh_token.c:72:20
	ldr	r0, [sp]
	.loc	1 72 34 is_stmt 0               @ rt-thread/components/finsh/finsh_token.c:72:34
	ldr	r1, [sp, #4]
	.loc	1 72 40                         @ rt-thread/components/finsh/finsh_token.c:72:40
	adds	r1, #16
	movs	r2, #16
	.loc	1 72 5                          @ rt-thread/components/finsh/finsh_token.c:72:5
	bl	strncpy
	.loc	1 73 1 is_stmt 1                @ rt-thread/components/finsh/finsh_token.c:73:1
	add	sp, #8
	pop	{r7, pc}
.Ltmp51:
.Lfunc_end3:
	.size	finsh_token_get_token, .Lfunc_end3-finsh_token_get_token
	.cfi_endproc
	.cantunwind
	.fnend
                                        @ -- End function
	.section	.text.token_get_string,"ax",%progbits
	.hidden	token_get_string                @ -- Begin function token_get_string
	.globl	token_get_string
	.p2align	3
	.type	token_get_string,%function
	.code	16                              @ @token_get_string
	.thumb_func
token_get_string:
.Lfunc_begin4:
	.loc	1 76 0                          @ rt-thread/components/finsh/finsh_token.c:76:0
	.fnstart
	.cfi_startproc
@ %bb.0:
	.save	{r7, lr}
	push	{r7, lr}
	.cfi_def_cfa_offset 8
	.cfi_offset lr, -4
	.cfi_offset r7, -8
	.pad	#32
	sub	sp, #32
	.cfi_def_cfa_offset 40
	str	r0, [sp, #24]
	str	r1, [sp, #20]
.Ltmp52:
	.loc	1 77 22 prologue_end            @ rt-thread/components/finsh/finsh_token.c:77:22
	ldr	r0, [sp, #20]
	.loc	1 77 20 is_stmt 0               @ rt-thread/components/finsh/finsh_token.c:77:20
	str	r0, [sp, #16]
	.loc	1 80 26 is_stmt 1               @ rt-thread/components/finsh/finsh_token.c:80:26
	ldr	r0, [sp, #24]
	.loc	1 80 10 is_stmt 0               @ rt-thread/components/finsh/finsh_token.c:80:10
	bl	token_next_char
	.loc	1 80 8                          @ rt-thread/components/finsh/finsh_token.c:80:8
	strb.w	r0, [sp, #15]
.Ltmp53:
	.loc	1 81 9 is_stmt 1                @ rt-thread/components/finsh/finsh_token.c:81:9
	ldr	r0, [sp, #24]
	ldrb	r0, [r0]
.Ltmp54:
	.loc	1 81 9 is_stmt 0                @ rt-thread/components/finsh/finsh_token.c:81:9
	cbz	r0, .LBB4_2
	b	.LBB4_1
.LBB4_1:
	.loc	1 0 9                           @ rt-thread/components/finsh/finsh_token.c:0:9
	mov.w	r0, #-1
.Ltmp55:
	.loc	1 81 23                         @ rt-thread/components/finsh/finsh_token.c:81:23
	str	r0, [sp, #28]
	b	.LBB4_17
.Ltmp56:
.LBB4_2:
	.loc	1 83 5 is_stmt 1                @ rt-thread/components/finsh/finsh_token.c:83:5
	ldr	r1, [sp, #20]
	movs	r0, #0
	.loc	1 83 12 is_stmt 0               @ rt-thread/components/finsh/finsh_token.c:83:12
	strb	r0, [r1]
.Ltmp57:
	.loc	1 85 10 is_stmt 1               @ rt-thread/components/finsh/finsh_token.c:85:10
	ldrsb.w	r0, [sp, #15]
	cmp	r0, #48
	blt	.LBB4_5
	b	.LBB4_3
.LBB4_3:
	ldrsb.w	r0, [sp, #15]
.Ltmp58:
	.loc	1 85 10 is_stmt 0               @ rt-thread/components/finsh/finsh_token.c:85:10
	cmp	r0, #57
	bgt	.LBB4_5
	b	.LBB4_4
.LBB4_4:
.Ltmp59:
	.loc	1 87 25 is_stmt 1               @ rt-thread/components/finsh/finsh_token.c:87:25
	ldr	r0, [sp, #24]
	.loc	1 87 9 is_stmt 0                @ rt-thread/components/finsh/finsh_token.c:87:9
	bl	token_prev_char
	mov.w	r0, #-1
	.loc	1 88 9 is_stmt 1                @ rt-thread/components/finsh/finsh_token.c:88:9
	str	r0, [sp, #28]
	b	.LBB4_17
.Ltmp60:
.LBB4_5:
	.loc	1 91 5                          @ rt-thread/components/finsh/finsh_token.c:91:5
	b	.LBB4_6
.LBB4_6:                                @ =>This Inner Loop Header: Depth=1
	.loc	1 91 13 is_stmt 0               @ rt-thread/components/finsh/finsh_token.c:91:13
	ldrsb.w	r0, [sp, #15]
	cmp	r0, #97
	blt	.LBB4_8
	b	.LBB4_7
.LBB4_7:                                @   in Loop: Header=BB4_6 Depth=1
	ldrsb.w	r0, [sp, #15]
	cmp	r0, #123
	blt	.LBB4_13
	b	.LBB4_8
.LBB4_8:                                @   in Loop: Header=BB4_6 Depth=1
	ldrsb.w	r0, [sp, #15]
	cmp	r0, #65
	blt	.LBB4_10
	b	.LBB4_9
.LBB4_9:                                @   in Loop: Header=BB4_6 Depth=1
	ldrsb.w	r0, [sp, #15]
	cmp	r0, #91
	blt	.LBB4_13
	b	.LBB4_10
.LBB4_10:                               @   in Loop: Header=BB4_6 Depth=1
	ldrsb.w	r0, [sp, #15]
	cmp	r0, #48
	blt	.LBB4_12
	b	.LBB4_11
.LBB4_11:                               @   in Loop: Header=BB4_6 Depth=1
	ldrsb.w	r0, [sp, #15]
	cmp	r0, #58
	blt	.LBB4_13
	b	.LBB4_12
.LBB4_12:                               @   in Loop: Header=BB4_6 Depth=1
	ldrsb.w	r1, [sp, #15]
	movs	r0, #0
	.loc	1 91 30                         @ rt-thread/components/finsh/finsh_token.c:91:30
	cmp	r1, #95
	str	r0, [sp, #8]                    @ 4-byte Spill
	bne	.LBB4_14
	b	.LBB4_13
.LBB4_13:                               @   in Loop: Header=BB4_6 Depth=1
	.loc	1 91 34                         @ rt-thread/components/finsh/finsh_token.c:91:34
	ldr	r0, [sp, #24]
	ldrb	r0, [r0]
	.loc	1 91 33                         @ rt-thread/components/finsh/finsh_token.c:91:33
	clz	r0, r0
	lsrs	r0, r0, #5
	str	r0, [sp, #8]                    @ 4-byte Spill
	b	.LBB4_14
.LBB4_14:                               @   in Loop: Header=BB4_6 Depth=1
	.loc	1 0 0                           @ rt-thread/components/finsh/finsh_token.c:0:0
	ldr	r0, [sp, #8]                    @ 4-byte Reload
	.loc	1 91 5                          @ rt-thread/components/finsh/finsh_token.c:91:5
	lsls	r0, r0, #31
	cbz	r0, .LBB4_16
	b	.LBB4_15
.LBB4_15:                               @   in Loop: Header=BB4_6 Depth=1
.Ltmp61:
	.loc	1 93 16 is_stmt 1               @ rt-thread/components/finsh/finsh_token.c:93:16
	ldrb.w	r0, [sp, #15]
	.loc	1 93 11 is_stmt 0               @ rt-thread/components/finsh/finsh_token.c:93:11
	ldr	r1, [sp, #16]
	adds	r2, r1, #1
	str	r2, [sp, #16]
	.loc	1 93 14                         @ rt-thread/components/finsh/finsh_token.c:93:14
	strb	r0, [r1]
	.loc	1 95 30 is_stmt 1               @ rt-thread/components/finsh/finsh_token.c:95:30
	ldr	r0, [sp, #24]
	.loc	1 95 14 is_stmt 0               @ rt-thread/components/finsh/finsh_token.c:95:14
	bl	token_next_char
	.loc	1 95 12                         @ rt-thread/components/finsh/finsh_token.c:95:12
	strb.w	r0, [sp, #15]
.Ltmp62:
	.loc	1 91 5 is_stmt 1                @ rt-thread/components/finsh/finsh_token.c:91:5
	b	.LBB4_6
.LBB4_16:
	.loc	1 97 5                          @ rt-thread/components/finsh/finsh_token.c:97:5
	ldr	r1, [sp, #24]
	movs	r0, #0
	.loc	1 97 15 is_stmt 0               @ rt-thread/components/finsh/finsh_token.c:97:15
	str	r0, [sp, #4]                    @ 4-byte Spill
	strb	r0, [r1]
	.loc	1 99 21 is_stmt 1               @ rt-thread/components/finsh/finsh_token.c:99:21
	ldr	r0, [sp, #24]
	.loc	1 99 5 is_stmt 0                @ rt-thread/components/finsh/finsh_token.c:99:5
	bl	token_prev_char
	ldr	r0, [sp, #4]                    @ 4-byte Reload
	.loc	1 100 6 is_stmt 1               @ rt-thread/components/finsh/finsh_token.c:100:6
	ldr	r1, [sp, #16]
	.loc	1 100 8 is_stmt 0               @ rt-thread/components/finsh/finsh_token.c:100:8
	strb	r0, [r1]
	.loc	1 102 5 is_stmt 1               @ rt-thread/components/finsh/finsh_token.c:102:5
	str	r0, [sp, #28]
	b	.LBB4_17
.LBB4_17:
	.loc	1 103 1                         @ rt-thread/components/finsh/finsh_token.c:103:1
	ldr	r0, [sp, #28]
	add	sp, #32
	pop	{r7, pc}
.Ltmp63:
.Lfunc_end4:
	.size	token_get_string, .Lfunc_end4-token_get_string
	.cfi_endproc
	.cantunwind
	.fnend
                                        @ -- End function
	.section	.text.token_next_char,"ax",%progbits
	.p2align	3                               @ -- Begin function token_next_char
	.type	token_next_char,%function
	.code	16                              @ @token_next_char
	.thumb_func
token_next_char:
.Lfunc_begin5:
	.loc	1 109 0                         @ rt-thread/components/finsh/finsh_token.c:109:0
	.fnstart
	.cfi_startproc
@ %bb.0:
	.save	{r7, lr}
	push	{r7, lr}
	.cfi_def_cfa_offset 8
	.cfi_offset lr, -4
	.cfi_offset r7, -8
	.pad	#16
	sub	sp, #16
	.cfi_def_cfa_offset 24
	str	r0, [sp, #8]
.Ltmp64:
	.loc	1 110 9 prologue_end            @ rt-thread/components/finsh/finsh_token.c:110:9
	ldr	r0, [sp, #8]
	.loc	1 110 15 is_stmt 0              @ rt-thread/components/finsh/finsh_token.c:110:15
	ldrb	r0, [r0]
.Ltmp65:
	.loc	1 110 9                         @ rt-thread/components/finsh/finsh_token.c:110:9
	cbz	r0, .LBB5_2
	b	.LBB5_1
.LBB5_1:
	.loc	1 0 9                           @ rt-thread/components/finsh/finsh_token.c:0:9
	movs	r0, #0
.Ltmp66:
	.loc	1 110 20                        @ rt-thread/components/finsh/finsh_token.c:110:20
	strb.w	r0, [sp, #15]
	b	.LBB5_6
.Ltmp67:
.LBB5_2:
	.loc	1 112 9 is_stmt 1               @ rt-thread/components/finsh/finsh_token.c:112:9
	ldr	r0, [sp, #8]
	.loc	1 112 15 is_stmt 0              @ rt-thread/components/finsh/finsh_token.c:112:15
	ldr	r1, [r0, #4]
	.loc	1 112 52                        @ rt-thread/components/finsh/finsh_token.c:112:52
	str	r1, [sp, #4]                    @ 4-byte Spill
	ldr.w	r0, [r0, #144]
	.loc	1 112 32                        @ rt-thread/components/finsh/finsh_token.c:112:32
	bl	strlen
	mov	r1, r0
	.loc	1 112 58                        @ rt-thread/components/finsh/finsh_token.c:112:58
	ldr	r0, [sp, #4]                    @ 4-byte Reload
	cmp	r0, r1
	beq	.LBB5_4
	b	.LBB5_3
.LBB5_3:
	.loc	1 112 61                        @ rt-thread/components/finsh/finsh_token.c:112:61
	ldr	r0, [sp, #8]
	.loc	1 112 78                        @ rt-thread/components/finsh/finsh_token.c:112:78
	ldr	r1, [r0, #4]
	.loc	1 112 67                        @ rt-thread/components/finsh/finsh_token.c:112:67
	ldr.w	r0, [r0, #144]
	.loc	1 112 61                        @ rt-thread/components/finsh/finsh_token.c:112:61
	ldrb	r0, [r0, r1]
.Ltmp68:
	.loc	1 112 9                         @ rt-thread/components/finsh/finsh_token.c:112:9
	cmp	r0, #10
	bne	.LBB5_5
	b	.LBB5_4
.LBB5_4:
.Ltmp69:
	.loc	1 114 13 is_stmt 1              @ rt-thread/components/finsh/finsh_token.c:114:13
	ldr	r1, [sp, #8]
	movs	r0, #1
	.loc	1 114 23 is_stmt 0              @ rt-thread/components/finsh/finsh_token.c:114:23
	strb	r0, [r1]
	.loc	1 115 13 is_stmt 1              @ rt-thread/components/finsh/finsh_token.c:115:13
	ldr	r1, [sp, #8]
	movs	r0, #0
	.loc	1 115 28 is_stmt 0              @ rt-thread/components/finsh/finsh_token.c:115:28
	str	r0, [r1, #4]
	.loc	1 116 13 is_stmt 1              @ rt-thread/components/finsh/finsh_token.c:116:13
	strb.w	r0, [sp, #15]
	b	.LBB5_6
.Ltmp70:
.LBB5_5:
	.loc	1 119 12                        @ rt-thread/components/finsh/finsh_token.c:119:12
	ldr	r3, [sp, #8]
	.loc	1 119 37 is_stmt 0              @ rt-thread/components/finsh/finsh_token.c:119:37
	ldr	r1, [r3, #4]
	.loc	1 119 18                        @ rt-thread/components/finsh/finsh_token.c:119:18
	ldr.w	r0, [r3, #144]
	.loc	1 119 37                        @ rt-thread/components/finsh/finsh_token.c:119:37
	adds	r2, r1, #1
	str	r2, [r3, #4]
	.loc	1 119 12                        @ rt-thread/components/finsh/finsh_token.c:119:12
	ldrb	r0, [r0, r1]
	.loc	1 119 5                         @ rt-thread/components/finsh/finsh_token.c:119:5
	strb.w	r0, [sp, #15]
	b	.LBB5_6
.LBB5_6:
	.loc	1 120 1 is_stmt 1               @ rt-thread/components/finsh/finsh_token.c:120:1
	ldrsb.w	r0, [sp, #15]
	add	sp, #16
	pop	{r7, pc}
.Ltmp71:
.Lfunc_end5:
	.size	token_next_char, .Lfunc_end5-token_next_char
	.cfi_endproc
	.cantunwind
	.fnend
                                        @ -- End function
	.section	.text.token_prev_char,"ax",%progbits
	.p2align	3                               @ -- Begin function token_prev_char
	.type	token_prev_char,%function
	.code	16                              @ @token_prev_char
	.thumb_func
token_prev_char:
.Lfunc_begin6:
	.loc	1 123 0                         @ rt-thread/components/finsh/finsh_token.c:123:0
	.fnstart
	.cfi_startproc
@ %bb.0:
	.pad	#4
	sub	sp, #4
	.cfi_def_cfa_offset 4
	str	r0, [sp]
.Ltmp72:
	.loc	1 124 10 prologue_end           @ rt-thread/components/finsh/finsh_token.c:124:10
	ldr	r0, [sp]
	.loc	1 124 16 is_stmt 0              @ rt-thread/components/finsh/finsh_token.c:124:16
	ldrb	r0, [r0]
.Ltmp73:
	.loc	1 124 10                        @ rt-thread/components/finsh/finsh_token.c:124:10
	cbz	r0, .LBB6_2
	b	.LBB6_1
.LBB6_1:
.Ltmp74:
	.loc	1 124 22                        @ rt-thread/components/finsh/finsh_token.c:124:22
	b	.LBB6_5
.Ltmp75:
.LBB6_2:
	.loc	1 126 10 is_stmt 1              @ rt-thread/components/finsh/finsh_token.c:126:10
	ldr	r0, [sp]
	.loc	1 126 16 is_stmt 0              @ rt-thread/components/finsh/finsh_token.c:126:16
	ldr	r0, [r0, #4]
.Ltmp76:
	.loc	1 126 10                        @ rt-thread/components/finsh/finsh_token.c:126:10
	cbnz	r0, .LBB6_4
	b	.LBB6_3
.LBB6_3:
.Ltmp77:
	.loc	1 126 32                        @ rt-thread/components/finsh/finsh_token.c:126:32
	b	.LBB6_5
.LBB6_4:
	.loc	1 127 10 is_stmt 1              @ rt-thread/components/finsh/finsh_token.c:127:10
	ldr	r1, [sp]
	.loc	1 127 24 is_stmt 0              @ rt-thread/components/finsh/finsh_token.c:127:24
	ldr	r0, [r1, #4]
	subs	r0, #1
	str	r0, [r1, #4]
	b	.LBB6_5
.Ltmp78:
.LBB6_5:
	.loc	1 128 1 is_stmt 1               @ rt-thread/components/finsh/finsh_token.c:128:1
	add	sp, #4
	bx	lr
.Ltmp79:
.Lfunc_end6:
	.size	token_prev_char, .Lfunc_end6-token_prev_char
	.cfi_endproc
	.cantunwind
	.fnend
                                        @ -- End function
	.section	.text.token_trim_space,"ax",%progbits
	.p2align	3                               @ -- Begin function token_trim_space
	.type	token_trim_space,%function
	.code	16                              @ @token_trim_space
	.thumb_func
token_trim_space:
.Lfunc_begin7:
	.loc	1 313 0                         @ rt-thread/components/finsh/finsh_token.c:313:0
	.fnstart
	.cfi_startproc
@ %bb.0:
	.save	{r7, lr}
	push	{r7, lr}
	.cfi_def_cfa_offset 8
	.cfi_offset lr, -4
	.cfi_offset r7, -8
	.pad	#16
	sub	sp, #16
	.cfi_def_cfa_offset 24
	str	r0, [sp, #12]
.Ltmp80:
	.loc	1 315 5 prologue_end            @ rt-thread/components/finsh/finsh_token.c:315:5
	b	.LBB7_1
.LBB7_1:                                @ =>This Inner Loop Header: Depth=1
	.loc	1 315 35 is_stmt 0              @ rt-thread/components/finsh/finsh_token.c:315:35
	ldr	r0, [sp, #12]
	.loc	1 315 19                        @ rt-thread/components/finsh/finsh_token.c:315:19
	bl	token_next_char
	mov	r1, r0
	.loc	1 315 17                        @ rt-thread/components/finsh/finsh_token.c:315:17
	strb.w	r1, [sp, #11]
	movs	r0, #1
	.loc	1 315 48                        @ rt-thread/components/finsh/finsh_token.c:315:48
	cmp	r1, #32
	str	r0, [sp, #4]                    @ 4-byte Spill
	beq	.LBB7_4
	b	.LBB7_2
.LBB7_2:                                @   in Loop: Header=BB7_1 Depth=1
	.loc	1 316 9 is_stmt 1               @ rt-thread/components/finsh/finsh_token.c:316:9
	ldrsb.w	r1, [sp, #11]
	movs	r0, #1
	.loc	1 316 20 is_stmt 0              @ rt-thread/components/finsh/finsh_token.c:316:20
	cmp	r1, #9
	str	r0, [sp, #4]                    @ 4-byte Spill
	beq	.LBB7_4
	b	.LBB7_3
.LBB7_3:                                @   in Loop: Header=BB7_1 Depth=1
	.loc	1 317 9 is_stmt 1               @ rt-thread/components/finsh/finsh_token.c:317:9
	ldrsb.w	r0, [sp, #11]
	.loc	1 317 12 is_stmt 0              @ rt-thread/components/finsh/finsh_token.c:317:12
	subs	r0, #13
	clz	r0, r0
	lsrs	r0, r0, #5
	.loc	1 316 20 is_stmt 1              @ rt-thread/components/finsh/finsh_token.c:316:20
	str	r0, [sp, #4]                    @ 4-byte Spill
	b	.LBB7_4
.LBB7_4:                                @   in Loop: Header=BB7_1 Depth=1
	.loc	1 0 20 is_stmt 0                @ rt-thread/components/finsh/finsh_token.c:0:20
	ldr	r0, [sp, #4]                    @ 4-byte Reload
	.loc	1 315 5 is_stmt 1               @ rt-thread/components/finsh/finsh_token.c:315:5
	lsls	r0, r0, #31
	cbz	r0, .LBB7_6
	b	.LBB7_5
.LBB7_5:                                @   in Loop: Header=BB7_1 Depth=1
	b	.LBB7_1
.LBB7_6:
	.loc	1 319 21                        @ rt-thread/components/finsh/finsh_token.c:319:21
	ldr	r0, [sp, #12]
	.loc	1 319 5 is_stmt 0               @ rt-thread/components/finsh/finsh_token.c:319:5
	bl	token_prev_char
	.loc	1 320 1 is_stmt 1               @ rt-thread/components/finsh/finsh_token.c:320:1
	add	sp, #16
	pop	{r7, pc}
.Ltmp81:
.Lfunc_end7:
	.size	token_trim_space, .Lfunc_end7-token_trim_space
	.cfi_endproc
	.cantunwind
	.fnend
                                        @ -- End function
	.section	.text.token_match_name,"ax",%progbits
	.p2align	3                               @ -- Begin function token_match_name
	.type	token_match_name,%function
	.code	16                              @ @token_match_name
	.thumb_func
token_match_name:
.Lfunc_begin8:
	.loc	1 297 0                         @ rt-thread/components/finsh/finsh_token.c:297:0
	.fnstart
	.cfi_startproc
@ %bb.0:
	.save	{r7, lr}
	push	{r7, lr}
	.cfi_def_cfa_offset 8
	.cfi_offset lr, -4
	.cfi_offset r7, -8
	.pad	#16
	sub	sp, #16
	.cfi_def_cfa_offset 24
	str	r0, [sp, #8]
	str	r1, [sp, #4]
	movs	r0, #0
.Ltmp82:
	.loc	1 300 12 prologue_end           @ rt-thread/components/finsh/finsh_token.c:300:12
	str	r0, [sp]
	.loc	1 300 10 is_stmt 0              @ rt-thread/components/finsh/finsh_token.c:300:10
	b	.LBB8_1
.LBB8_1:                                @ =>This Inner Loop Header: Depth=1
.Ltmp83:
	.loc	1 300 17                        @ rt-thread/components/finsh/finsh_token.c:300:17
	ldr	r0, [sp]
.Ltmp84:
	.loc	1 300 5                         @ rt-thread/components/finsh/finsh_token.c:300:5
	cmp	r0, #7
	bhi	.LBB8_6
	b	.LBB8_2
.LBB8_2:                                @   in Loop: Header=BB8_1 Depth=1
.Ltmp85:
	.loc	1 302 38 is_stmt 1              @ rt-thread/components/finsh/finsh_token.c:302:38
	ldr	r1, [sp]
	.loc	1 302 21 is_stmt 0              @ rt-thread/components/finsh/finsh_token.c:302:21
	movw	r0, :lower16:finsh_name_table
	movt	r0, :upper16:finsh_name_table
	.loc	1 302 41                        @ rt-thread/components/finsh/finsh_token.c:302:41
	ldr.w	r0, [r0, r1, lsl #3]
	.loc	1 302 47                        @ rt-thread/components/finsh/finsh_token.c:302:47
	ldr	r1, [sp, #4]
	.loc	1 302 14                        @ rt-thread/components/finsh/finsh_token.c:302:14
	bl	strcmp
.Ltmp86:
	.loc	1 302 14                        @ rt-thread/components/finsh/finsh_token.c:302:14
	cbnz	r0, .LBB8_4
	b	.LBB8_3
.LBB8_3:
.Ltmp87:
	.loc	1 304 52 is_stmt 1              @ rt-thread/components/finsh/finsh_token.c:304:52
	ldr	r1, [sp]
	.loc	1 304 35 is_stmt 0              @ rt-thread/components/finsh/finsh_token.c:304:35
	movw	r0, :lower16:finsh_name_table
	movt	r0, :upper16:finsh_name_table
	add.w	r0, r0, r1, lsl #3
	.loc	1 304 55                        @ rt-thread/components/finsh/finsh_token.c:304:55
	ldrb	r0, [r0, #4]
	.loc	1 304 13                        @ rt-thread/components/finsh/finsh_token.c:304:13
	ldr	r1, [sp, #8]
	.loc	1 304 33                        @ rt-thread/components/finsh/finsh_token.c:304:33
	strb	r0, [r1, #8]
	movs	r0, #1
	.loc	1 305 13 is_stmt 1              @ rt-thread/components/finsh/finsh_token.c:305:13
	str	r0, [sp, #12]
	b	.LBB8_7
.Ltmp88:
.LBB8_4:                                @   in Loop: Header=BB8_1 Depth=1
	.loc	1 307 5                         @ rt-thread/components/finsh/finsh_token.c:307:5
	b	.LBB8_5
.Ltmp89:
.LBB8_5:                                @   in Loop: Header=BB8_1 Depth=1
	.loc	1 300 74                        @ rt-thread/components/finsh/finsh_token.c:300:74
	ldr	r0, [sp]
	adds	r0, #1
	str	r0, [sp]
	.loc	1 300 5 is_stmt 0               @ rt-thread/components/finsh/finsh_token.c:300:5
	b	.LBB8_1
.Ltmp90:
.LBB8_6:
	.loc	1 0 5                           @ rt-thread/components/finsh/finsh_token.c:0:5
	movs	r0, #0
	.loc	1 309 5 is_stmt 1               @ rt-thread/components/finsh/finsh_token.c:309:5
	str	r0, [sp, #12]
	b	.LBB8_7
.LBB8_7:
	.loc	1 310 1                         @ rt-thread/components/finsh/finsh_token.c:310:1
	ldr	r0, [sp, #12]
	add	sp, #16
	pop	{r7, pc}
.Ltmp91:
.Lfunc_end8:
	.size	token_match_name, .Lfunc_end8-token_match_name
	.cfi_endproc
	.cantunwind
	.fnend
                                        @ -- End function
	.section	.text.token_proc_char,"ax",%progbits
	.p2align	3                               @ -- Begin function token_proc_char
	.type	token_proc_char,%function
	.code	16                              @ @token_proc_char
	.thumb_func
token_proc_char:
.Lfunc_begin9:
	.loc	1 323 0                         @ rt-thread/components/finsh/finsh_token.c:323:0
	.fnstart
	.cfi_startproc
@ %bb.0:
	.save	{r7, lr}
	push	{r7, lr}
	.cfi_def_cfa_offset 8
	.cfi_offset lr, -4
	.cfi_offset r7, -8
	.pad	#32
	sub	sp, #32
	.cfi_def_cfa_offset 40
	str	r0, [sp, #24]
	add.w	r0, sp, #19
.Ltmp92:
	.loc	1 327 7 prologue_end            @ rt-thread/components/finsh/finsh_token.c:327:7
	str	r0, [sp, #12]
	.loc	1 328 26                        @ rt-thread/components/finsh/finsh_token.c:328:26
	ldr	r0, [sp, #24]
	.loc	1 328 10 is_stmt 0              @ rt-thread/components/finsh/finsh_token.c:328:10
	bl	token_next_char
	.loc	1 328 8                         @ rt-thread/components/finsh/finsh_token.c:328:8
	strb.w	r0, [sp, #23]
.Ltmp93:
	.loc	1 330 10 is_stmt 1              @ rt-thread/components/finsh/finsh_token.c:330:10
	ldrsb.w	r0, [sp, #23]
.Ltmp94:
	.loc	1 330 10 is_stmt 0              @ rt-thread/components/finsh/finsh_token.c:330:10
	cmp	r0, #92
	bne	.LBB9_22
	b	.LBB9_1
.LBB9_1:
.Ltmp95:
	.loc	1 332 30 is_stmt 1              @ rt-thread/components/finsh/finsh_token.c:332:30
	ldr	r0, [sp, #24]
	.loc	1 332 14 is_stmt 0              @ rt-thread/components/finsh/finsh_token.c:332:14
	bl	token_next_char
	.loc	1 332 12                        @ rt-thread/components/finsh/finsh_token.c:332:12
	strb.w	r0, [sp, #23]
	.loc	1 333 18 is_stmt 1              @ rt-thread/components/finsh/finsh_token.c:333:18
	ldrsb.w	r0, [sp, #23]
	.loc	1 333 9 is_stmt 0               @ rt-thread/components/finsh/finsh_token.c:333:9
	mov	r1, r0
	str	r1, [sp, #8]                    @ 4-byte Spill
	cmp	r0, #39
	beq	.LBB9_14
	b	.LBB9_2
.LBB9_2:
	ldr	r0, [sp, #8]                    @ 4-byte Reload
	cmp	r0, #92
	beq	.LBB9_13
	b	.LBB9_3
.LBB9_3:
	ldr	r0, [sp, #8]                    @ 4-byte Reload
	cmp	r0, #98
	beq	.LBB9_11
	b	.LBB9_4
.LBB9_4:
	ldr	r0, [sp, #8]                    @ 4-byte Reload
	cmp	r0, #110
	beq	.LBB9_8
	b	.LBB9_5
.LBB9_5:
	ldr	r0, [sp, #8]                    @ 4-byte Reload
	cmp	r0, #114
	beq	.LBB9_12
	b	.LBB9_6
.LBB9_6:
	ldr	r0, [sp, #8]                    @ 4-byte Reload
	cmp	r0, #116
	beq	.LBB9_9
	b	.LBB9_7
.LBB9_7:
	ldr	r0, [sp, #8]                    @ 4-byte Reload
	cmp	r0, #118
	beq	.LBB9_10
	b	.LBB9_15
.LBB9_8:
	.loc	1 0 9                           @ rt-thread/components/finsh/finsh_token.c:0:9
	movs	r0, #10
.Ltmp96:
	.loc	1 335 22 is_stmt 1              @ rt-thread/components/finsh/finsh_token.c:335:22
	strb.w	r0, [sp, #23]
	.loc	1 335 30 is_stmt 0              @ rt-thread/components/finsh/finsh_token.c:335:30
	b	.LBB9_21
.LBB9_9:
	.loc	1 0 30                          @ rt-thread/components/finsh/finsh_token.c:0:30
	movs	r0, #9
	.loc	1 336 22 is_stmt 1              @ rt-thread/components/finsh/finsh_token.c:336:22
	strb.w	r0, [sp, #23]
	.loc	1 336 30 is_stmt 0              @ rt-thread/components/finsh/finsh_token.c:336:30
	b	.LBB9_21
.LBB9_10:
	.loc	1 0 30                          @ rt-thread/components/finsh/finsh_token.c:0:30
	movs	r0, #11
	.loc	1 337 22 is_stmt 1              @ rt-thread/components/finsh/finsh_token.c:337:22
	strb.w	r0, [sp, #23]
	.loc	1 337 30 is_stmt 0              @ rt-thread/components/finsh/finsh_token.c:337:30
	b	.LBB9_21
.LBB9_11:
	.loc	1 0 30                          @ rt-thread/components/finsh/finsh_token.c:0:30
	movs	r0, #8
	.loc	1 338 22 is_stmt 1              @ rt-thread/components/finsh/finsh_token.c:338:22
	strb.w	r0, [sp, #23]
	.loc	1 338 30 is_stmt 0              @ rt-thread/components/finsh/finsh_token.c:338:30
	b	.LBB9_21
.LBB9_12:
	.loc	1 0 30                          @ rt-thread/components/finsh/finsh_token.c:0:30
	movs	r0, #13
	.loc	1 339 22 is_stmt 1              @ rt-thread/components/finsh/finsh_token.c:339:22
	strb.w	r0, [sp, #23]
	.loc	1 339 30 is_stmt 0              @ rt-thread/components/finsh/finsh_token.c:339:30
	b	.LBB9_21
.LBB9_13:
	.loc	1 0 30                          @ rt-thread/components/finsh/finsh_token.c:0:30
	movs	r0, #92
	.loc	1 340 23 is_stmt 1              @ rt-thread/components/finsh/finsh_token.c:340:23
	strb.w	r0, [sp, #23]
	.loc	1 340 32 is_stmt 0              @ rt-thread/components/finsh/finsh_token.c:340:32
	b	.LBB9_21
.LBB9_14:
	.loc	1 0 32                          @ rt-thread/components/finsh/finsh_token.c:0:32
	movs	r0, #39
	.loc	1 341 23 is_stmt 1              @ rt-thread/components/finsh/finsh_token.c:341:23
	strb.w	r0, [sp, #23]
	.loc	1 341 32 is_stmt 0              @ rt-thread/components/finsh/finsh_token.c:341:32
	b	.LBB9_21
.LBB9_15:
	.loc	1 343 13 is_stmt 1              @ rt-thread/components/finsh/finsh_token.c:343:13
	b	.LBB9_16
.LBB9_16:                               @ =>This Inner Loop Header: Depth=1
	.loc	1 343 21 is_stmt 0              @ rt-thread/components/finsh/finsh_token.c:343:21
	ldrsb.w	r1, [sp, #23]
	movs	r0, #0
	cmp	r1, #48
	str	r0, [sp, #4]                    @ 4-byte Spill
	blt	.LBB9_18
	b	.LBB9_17
.LBB9_17:                               @   in Loop: Header=BB9_16 Depth=1
	ldrsb.w	r1, [sp, #23]
	movs	r0, #0
	cmp	r1, #58
	it	lt
	movlt	r0, #1
	str	r0, [sp, #4]                    @ 4-byte Spill
	b	.LBB9_18
.LBB9_18:                               @   in Loop: Header=BB9_16 Depth=1
	.loc	1 0 0                           @ rt-thread/components/finsh/finsh_token.c:0:0
	ldr	r0, [sp, #4]                    @ 4-byte Reload
	.loc	1 343 13                        @ rt-thread/components/finsh/finsh_token.c:343:13
	lsls	r0, r0, #31
	cbz	r0, .LBB9_20
	b	.LBB9_19
.LBB9_19:                               @   in Loop: Header=BB9_16 Depth=1
.Ltmp97:
	.loc	1 345 38 is_stmt 1              @ rt-thread/components/finsh/finsh_token.c:345:38
	ldr	r0, [sp, #24]
	.loc	1 345 22 is_stmt 0              @ rt-thread/components/finsh/finsh_token.c:345:22
	bl	token_next_char
	.loc	1 345 20                        @ rt-thread/components/finsh/finsh_token.c:345:20
	strb.w	r0, [sp, #23]
	.loc	1 346 24 is_stmt 1              @ rt-thread/components/finsh/finsh_token.c:346:24
	ldrb.w	r0, [sp, #23]
	.loc	1 346 19 is_stmt 0              @ rt-thread/components/finsh/finsh_token.c:346:19
	ldr	r1, [sp, #12]
	adds	r2, r1, #1
	str	r2, [sp, #12]
	.loc	1 346 22                        @ rt-thread/components/finsh/finsh_token.c:346:22
	strb	r0, [r1]
.Ltmp98:
	.loc	1 343 13 is_stmt 1              @ rt-thread/components/finsh/finsh_token.c:343:13
	b	.LBB9_16
.LBB9_20:
	.loc	1 349 29                        @ rt-thread/components/finsh/finsh_token.c:349:29
	ldr	r0, [sp, #24]
	.loc	1 349 13 is_stmt 0              @ rt-thread/components/finsh/finsh_token.c:349:13
	bl	token_prev_char
	.loc	1 350 14 is_stmt 1              @ rt-thread/components/finsh/finsh_token.c:350:14
	ldr	r1, [sp, #12]
	movs	r0, #0
	.loc	1 350 16 is_stmt 0              @ rt-thread/components/finsh/finsh_token.c:350:16
	strb	r0, [r1]
	.loc	1 351 23 is_stmt 1              @ rt-thread/components/finsh/finsh_token.c:351:23
	ldr	r0, [sp, #12]
	.loc	1 351 18 is_stmt 0              @ rt-thread/components/finsh/finsh_token.c:351:18
	bl	atoi
	.loc	1 351 16                        @ rt-thread/components/finsh/finsh_token.c:351:16
	strb.w	r0, [sp, #23]
	.loc	1 352 13 is_stmt 1              @ rt-thread/components/finsh/finsh_token.c:352:13
	b	.LBB9_21
.Ltmp99:
.LBB9_21:
	.loc	1 354 5                         @ rt-thread/components/finsh/finsh_token.c:354:5
	b	.LBB9_22
.Ltmp100:
.LBB9_22:
	.loc	1 356 26                        @ rt-thread/components/finsh/finsh_token.c:356:26
	ldr	r0, [sp, #24]
	.loc	1 356 10 is_stmt 0              @ rt-thread/components/finsh/finsh_token.c:356:10
	bl	token_next_char
.Ltmp101:
	.loc	1 356 10                        @ rt-thread/components/finsh/finsh_token.c:356:10
	cmp	r0, #39
	beq	.LBB9_24
	b	.LBB9_23
.LBB9_23:
.Ltmp102:
	.loc	1 358 25 is_stmt 1              @ rt-thread/components/finsh/finsh_token.c:358:25
	ldr	r0, [sp, #24]
	.loc	1 358 9 is_stmt 0               @ rt-thread/components/finsh/finsh_token.c:358:9
	bl	token_prev_char
	movs	r0, #9
	.loc	1 359 9 is_stmt 1               @ rt-thread/components/finsh/finsh_token.c:359:9
	bl	finsh_error_set
	.loc	1 360 16                        @ rt-thread/components/finsh/finsh_token.c:360:16
	ldrb.w	r0, [sp, #23]
	.loc	1 360 9 is_stmt 0               @ rt-thread/components/finsh/finsh_token.c:360:9
	strb.w	r0, [sp, #31]
	b	.LBB9_25
.Ltmp103:
.LBB9_24:
	.loc	1 363 12 is_stmt 1              @ rt-thread/components/finsh/finsh_token.c:363:12
	ldrb.w	r0, [sp, #23]
	.loc	1 363 5 is_stmt 0               @ rt-thread/components/finsh/finsh_token.c:363:5
	strb.w	r0, [sp, #31]
	b	.LBB9_25
.LBB9_25:
	.loc	1 364 1 is_stmt 1               @ rt-thread/components/finsh/finsh_token.c:364:1
	ldrsb.w	r0, [sp, #31]
	add	sp, #32
	pop	{r7, pc}
.Ltmp104:
.Lfunc_end9:
	.size	token_proc_char, .Lfunc_end9-token_proc_char
	.cfi_endproc
	.cantunwind
	.fnend
                                        @ -- End function
	.section	.text.token_proc_string,"ax",%progbits
	.p2align	3                               @ -- Begin function token_proc_string
	.type	token_proc_string,%function
	.code	16                              @ @token_proc_string
	.thumb_func
token_proc_string:
.Lfunc_begin10:
	.loc	1 367 0                         @ rt-thread/components/finsh/finsh_token.c:367:0
	.fnstart
	.cfi_startproc
@ %bb.0:
	.save	{r7, lr}
	push	{r7, lr}
	.cfi_def_cfa_offset 8
	.cfi_offset lr, -4
	.cfi_offset r7, -8
	.pad	#16
	sub	sp, #16
	.cfi_def_cfa_offset 24
	str	r0, [sp, #8]
.Ltmp105:
	.loc	1 370 16 prologue_end           @ rt-thread/components/finsh/finsh_token.c:370:16
	ldr	r0, [sp, #8]
	.loc	1 370 22 is_stmt 0              @ rt-thread/components/finsh/finsh_token.c:370:22
	adds	r0, #16
	.loc	1 370 13                        @ rt-thread/components/finsh/finsh_token.c:370:13
	str	r0, [sp, #4]
	.loc	1 370 11                        @ rt-thread/components/finsh/finsh_token.c:370:11
	b	.LBB10_1
.LBB10_1:                               @ =>This Inner Loop Header: Depth=1
.Ltmp106:
	.loc	1 370 33                        @ rt-thread/components/finsh/finsh_token.c:370:33
	ldr	r0, [sp, #4]
	.loc	1 370 39                        @ rt-thread/components/finsh/finsh_token.c:370:39
	ldr	r1, [sp, #8]
	.loc	1 370 35                        @ rt-thread/components/finsh/finsh_token.c:370:35
	subs	r0, r0, r1
	subs	r0, #16
.Ltmp107:
	.loc	1 370 5                         @ rt-thread/components/finsh/finsh_token.c:370:5
	cmp	r0, #127
	bgt	.LBB10_10
	b	.LBB10_2
.LBB10_2:                               @   in Loop: Header=BB10_1 Depth=1
.Ltmp108:
	.loc	1 372 35 is_stmt 1              @ rt-thread/components/finsh/finsh_token.c:372:35
	ldr	r0, [sp, #8]
	.loc	1 372 19 is_stmt 0              @ rt-thread/components/finsh/finsh_token.c:372:19
	bl	token_next_char
	.loc	1 372 14                        @ rt-thread/components/finsh/finsh_token.c:372:14
	strb.w	r0, [sp, #3]
.Ltmp109:
	.loc	1 374 14 is_stmt 1              @ rt-thread/components/finsh/finsh_token.c:374:14
	ldr	r0, [sp, #8]
	ldrb	r0, [r0]
.Ltmp110:
	.loc	1 374 14 is_stmt 0              @ rt-thread/components/finsh/finsh_token.c:374:14
	cbz	r0, .LBB10_4
	b	.LBB10_3
.LBB10_3:
	.loc	1 0 14                          @ rt-thread/components/finsh/finsh_token.c:0:14
	movs	r0, #10
.Ltmp111:
	.loc	1 376 13 is_stmt 1              @ rt-thread/components/finsh/finsh_token.c:376:13
	bl	finsh_error_set
	movs	r0, #0
	.loc	1 377 13                        @ rt-thread/components/finsh/finsh_token.c:377:13
	str	r0, [sp, #12]
	b	.LBB10_11
.Ltmp112:
.LBB10_4:                               @   in Loop: Header=BB10_1 Depth=1
	.loc	1 379 14                        @ rt-thread/components/finsh/finsh_token.c:379:14
	ldrsb.w	r0, [sp, #3]
.Ltmp113:
	.loc	1 379 14 is_stmt 0              @ rt-thread/components/finsh/finsh_token.c:379:14
	cmp	r0, #92
	bne	.LBB10_6
	b	.LBB10_5
.LBB10_5:                               @   in Loop: Header=BB10_1 Depth=1
.Ltmp114:
	.loc	1 381 36 is_stmt 1              @ rt-thread/components/finsh/finsh_token.c:381:36
	ldr	r0, [sp, #8]
	.loc	1 381 18 is_stmt 0              @ rt-thread/components/finsh/finsh_token.c:381:18
	bl	token_proc_escape
	.loc	1 381 16                        @ rt-thread/components/finsh/finsh_token.c:381:16
	strb.w	r0, [sp, #3]
	.loc	1 382 9 is_stmt 1               @ rt-thread/components/finsh/finsh_token.c:382:9
	b	.LBB10_9
.Ltmp115:
.LBB10_6:                               @   in Loop: Header=BB10_1 Depth=1
	.loc	1 383 19                        @ rt-thread/components/finsh/finsh_token.c:383:19
	ldrsb.w	r0, [sp, #3]
.Ltmp116:
	.loc	1 383 19 is_stmt 0              @ rt-thread/components/finsh/finsh_token.c:383:19
	cmp	r0, #34
	bne	.LBB10_8
	b	.LBB10_7
.LBB10_7:
.Ltmp117:
	.loc	1 385 14 is_stmt 1              @ rt-thread/components/finsh/finsh_token.c:385:14
	ldr	r1, [sp, #4]
	movs	r0, #0
	.loc	1 385 16 is_stmt 0              @ rt-thread/components/finsh/finsh_token.c:385:16
	strb	r0, [r1]
	.loc	1 386 20 is_stmt 1              @ rt-thread/components/finsh/finsh_token.c:386:20
	ldr	r0, [sp, #8]
	.loc	1 386 26 is_stmt 0              @ rt-thread/components/finsh/finsh_token.c:386:26
	adds	r0, #16
	.loc	1 386 13                        @ rt-thread/components/finsh/finsh_token.c:386:13
	str	r0, [sp, #12]
	b	.LBB10_11
.Ltmp118:
.LBB10_8:                               @   in Loop: Header=BB10_1 Depth=1
	.loc	1 0 13                          @ rt-thread/components/finsh/finsh_token.c:0:13
	b	.LBB10_9
.LBB10_9:                               @   in Loop: Header=BB10_1 Depth=1
	.loc	1 389 16 is_stmt 1              @ rt-thread/components/finsh/finsh_token.c:389:16
	ldrb.w	r0, [sp, #3]
	.loc	1 389 11 is_stmt 0              @ rt-thread/components/finsh/finsh_token.c:389:11
	ldr	r1, [sp, #4]
	adds	r2, r1, #1
	str	r2, [sp, #4]
	.loc	1 389 14                        @ rt-thread/components/finsh/finsh_token.c:389:14
	strb	r0, [r1]
.Ltmp119:
	.loc	1 370 5 is_stmt 1               @ rt-thread/components/finsh/finsh_token.c:370:5
	b	.LBB10_1
.Ltmp120:
.LBB10_10:
	.loc	1 0 5 is_stmt 0                 @ rt-thread/components/finsh/finsh_token.c:0:5
	movs	r0, #0
	.loc	1 392 5 is_stmt 1               @ rt-thread/components/finsh/finsh_token.c:392:5
	str	r0, [sp, #12]
	b	.LBB10_11
.LBB10_11:
	.loc	1 393 1                         @ rt-thread/components/finsh/finsh_token.c:393:1
	ldr	r0, [sp, #12]
	add	sp, #16
	pop	{r7, pc}
.Ltmp121:
.Lfunc_end10:
	.size	token_proc_string, .Lfunc_end10-token_proc_string
	.cfi_endproc
	.cantunwind
	.fnend
                                        @ -- End function
	.section	.text.token_proc_number,"ax",%progbits
	.p2align	3                               @ -- Begin function token_proc_number
	.type	token_proc_number,%function
	.code	16                              @ @token_proc_number
	.thumb_func
token_proc_number:
.Lfunc_begin11:
	.loc	1 460 0                         @ rt-thread/components/finsh/finsh_token.c:460:0
	.fnstart
	.cfi_startproc
@ %bb.0:
	.save	{r7, lr}
	push	{r7, lr}
	.cfi_def_cfa_offset 8
	.cfi_offset lr, -4
	.cfi_offset r7, -8
	.pad	#168
	sub	sp, #168
	.cfi_def_cfa_offset 176
	str	r0, [sp, #164]
	movs	r0, #0
.Ltmp122:
	.loc	1 465 11 prologue_end           @ rt-thread/components/finsh/finsh_token.c:465:11
	str	r0, [sp, #24]
	add	r0, sp, #28
	.loc	1 466 7                         @ rt-thread/components/finsh/finsh_token.c:466:7
	str	r0, [sp, #156]
	.loc	1 468 27                        @ rt-thread/components/finsh/finsh_token.c:468:27
	ldr	r0, [sp, #164]
	.loc	1 468 11 is_stmt 0              @ rt-thread/components/finsh/finsh_token.c:468:11
	bl	token_next_char
	.loc	1 468 9                         @ rt-thread/components/finsh/finsh_token.c:468:9
	strb.w	r0, [sp, #163]
.Ltmp123:
	.loc	1 469 10 is_stmt 1              @ rt-thread/components/finsh/finsh_token.c:469:10
	ldrsb.w	r0, [sp, #163]
.Ltmp124:
	.loc	1 469 10 is_stmt 0              @ rt-thread/components/finsh/finsh_token.c:469:10
	cmp	r0, #48
	bne.w	.LBB11_30
	b	.LBB11_1
.LBB11_1:
.Ltmp125:
	.loc	1 472 30 is_stmt 1              @ rt-thread/components/finsh/finsh_token.c:472:30
	ldr	r0, [sp, #164]
	.loc	1 472 14 is_stmt 0              @ rt-thread/components/finsh/finsh_token.c:472:14
	bl	token_next_char
	.loc	1 472 12                        @ rt-thread/components/finsh/finsh_token.c:472:12
	strb.w	r0, [sp, #163]
.Ltmp126:
	.loc	1 473 14 is_stmt 1              @ rt-thread/components/finsh/finsh_token.c:473:14
	ldrsb.w	r0, [sp, #163]
	.loc	1 473 24 is_stmt 0              @ rt-thread/components/finsh/finsh_token.c:473:24
	cmp	r0, #120
	beq	.LBB11_3
	b	.LBB11_2
.LBB11_2:
	.loc	1 473 27                        @ rt-thread/components/finsh/finsh_token.c:473:27
	ldrsb.w	r0, [sp, #163]
.Ltmp127:
	.loc	1 473 14                        @ rt-thread/components/finsh/finsh_token.c:473:14
	cmp	r0, #88
	bne	.LBB11_10
	b	.LBB11_3
.LBB11_3:
	.loc	1 0 14                          @ rt-thread/components/finsh/finsh_token.c:0:14
	movs	r0, #16
.Ltmp128:
	.loc	1 475 15 is_stmt 1              @ rt-thread/components/finsh/finsh_token.c:475:15
	str	r0, [sp, #20]
	.loc	1 476 34                        @ rt-thread/components/finsh/finsh_token.c:476:34
	ldr	r0, [sp, #164]
	.loc	1 476 18 is_stmt 0              @ rt-thread/components/finsh/finsh_token.c:476:18
	bl	token_next_char
	.loc	1 476 16                        @ rt-thread/components/finsh/finsh_token.c:476:16
	strb.w	r0, [sp, #163]
	.loc	1 477 13 is_stmt 1              @ rt-thread/components/finsh/finsh_token.c:477:13
	b	.LBB11_4
.LBB11_4:                               @ =>This Inner Loop Header: Depth=1
	.loc	1 477 21 is_stmt 0              @ rt-thread/components/finsh/finsh_token.c:477:21
	ldrsb.w	r0, [sp, #163]
	cmp	r0, #48
	blt	.LBB11_6
	b	.LBB11_5
.LBB11_5:                               @   in Loop: Header=BB11_4 Depth=1
	ldrsb.w	r1, [sp, #163]
	movs	r0, #1
	.loc	1 477 34                        @ rt-thread/components/finsh/finsh_token.c:477:34
	cmp	r1, #58
	str	r0, [sp, #16]                   @ 4-byte Spill
	blt	.LBB11_7
	b	.LBB11_6
.LBB11_6:                               @   in Loop: Header=BB11_4 Depth=1
	.loc	1 477 37                        @ rt-thread/components/finsh/finsh_token.c:477:37
	ldrsb.w	r0, [sp, #163]
	orr	r0, r0, #32
	sub.w	r1, r0, #97
	movs	r0, #0
	cmp	r1, #26
	it	lo
	movlo	r0, #1
	.loc	1 477 34                        @ rt-thread/components/finsh/finsh_token.c:477:34
	str	r0, [sp, #16]                   @ 4-byte Spill
	b	.LBB11_7
.LBB11_7:                               @   in Loop: Header=BB11_4 Depth=1
	.loc	1 0 34                          @ rt-thread/components/finsh/finsh_token.c:0:34
	ldr	r0, [sp, #16]                   @ 4-byte Reload
	.loc	1 477 13                        @ rt-thread/components/finsh/finsh_token.c:477:13
	lsls	r0, r0, #31
	cbz	r0, .LBB11_9
	b	.LBB11_8
.LBB11_8:                               @   in Loop: Header=BB11_4 Depth=1
.Ltmp129:
	.loc	1 479 24 is_stmt 1              @ rt-thread/components/finsh/finsh_token.c:479:24
	ldrb.w	r0, [sp, #163]
	.loc	1 479 19 is_stmt 0              @ rt-thread/components/finsh/finsh_token.c:479:19
	ldr	r1, [sp, #156]
	adds	r2, r1, #1
	str	r2, [sp, #156]
	.loc	1 479 22                        @ rt-thread/components/finsh/finsh_token.c:479:22
	strb	r0, [r1]
	.loc	1 480 38 is_stmt 1              @ rt-thread/components/finsh/finsh_token.c:480:38
	ldr	r0, [sp, #164]
	.loc	1 480 22 is_stmt 0              @ rt-thread/components/finsh/finsh_token.c:480:22
	bl	token_next_char
	.loc	1 480 20                        @ rt-thread/components/finsh/finsh_token.c:480:20
	strb.w	r0, [sp, #163]
.Ltmp130:
	.loc	1 477 13 is_stmt 1              @ rt-thread/components/finsh/finsh_token.c:477:13
	b	.LBB11_4
.LBB11_9:
	.loc	1 483 14                        @ rt-thread/components/finsh/finsh_token.c:483:14
	ldr	r1, [sp, #156]
	movs	r0, #0
	.loc	1 483 16 is_stmt 0              @ rt-thread/components/finsh/finsh_token.c:483:16
	strb	r0, [r1]
	.loc	1 484 9 is_stmt 1               @ rt-thread/components/finsh/finsh_token.c:484:9
	b	.LBB11_29
.Ltmp131:
.LBB11_10:
	.loc	1 485 19                        @ rt-thread/components/finsh/finsh_token.c:485:19
	ldrsb.w	r0, [sp, #163]
	.loc	1 485 29 is_stmt 0              @ rt-thread/components/finsh/finsh_token.c:485:29
	cmp	r0, #98
	beq	.LBB11_12
	b	.LBB11_11
.LBB11_11:
	.loc	1 485 32                        @ rt-thread/components/finsh/finsh_token.c:485:32
	ldrsb.w	r0, [sp, #163]
.Ltmp132:
	.loc	1 485 19                        @ rt-thread/components/finsh/finsh_token.c:485:19
	cmp	r0, #66
	bne	.LBB11_18
	b	.LBB11_12
.LBB11_12:
	.loc	1 0 19                          @ rt-thread/components/finsh/finsh_token.c:0:19
	movs	r0, #2
.Ltmp133:
	.loc	1 487 15 is_stmt 1              @ rt-thread/components/finsh/finsh_token.c:487:15
	str	r0, [sp, #20]
	.loc	1 488 34                        @ rt-thread/components/finsh/finsh_token.c:488:34
	ldr	r0, [sp, #164]
	.loc	1 488 18 is_stmt 0              @ rt-thread/components/finsh/finsh_token.c:488:18
	bl	token_next_char
	.loc	1 488 16                        @ rt-thread/components/finsh/finsh_token.c:488:16
	strb.w	r0, [sp, #163]
	.loc	1 489 13 is_stmt 1              @ rt-thread/components/finsh/finsh_token.c:489:13
	b	.LBB11_13
.LBB11_13:                              @ =>This Inner Loop Header: Depth=1
	.loc	1 489 22 is_stmt 0              @ rt-thread/components/finsh/finsh_token.c:489:22
	ldrsb.w	r1, [sp, #163]
	movs	r0, #1
	.loc	1 489 30                        @ rt-thread/components/finsh/finsh_token.c:489:30
	cmp	r1, #48
	str	r0, [sp, #12]                   @ 4-byte Spill
	beq	.LBB11_15
	b	.LBB11_14
.LBB11_14:                              @   in Loop: Header=BB11_13 Depth=1
	.loc	1 489 33                        @ rt-thread/components/finsh/finsh_token.c:489:33
	ldrsb.w	r0, [sp, #163]
	.loc	1 489 35                        @ rt-thread/components/finsh/finsh_token.c:489:35
	subs	r0, #49
	clz	r0, r0
	lsrs	r0, r0, #5
	.loc	1 489 30                        @ rt-thread/components/finsh/finsh_token.c:489:30
	str	r0, [sp, #12]                   @ 4-byte Spill
	b	.LBB11_15
.LBB11_15:                              @   in Loop: Header=BB11_13 Depth=1
	.loc	1 0 30                          @ rt-thread/components/finsh/finsh_token.c:0:30
	ldr	r0, [sp, #12]                   @ 4-byte Reload
	.loc	1 489 13                        @ rt-thread/components/finsh/finsh_token.c:489:13
	lsls	r0, r0, #31
	cbz	r0, .LBB11_17
	b	.LBB11_16
.LBB11_16:                              @   in Loop: Header=BB11_13 Depth=1
.Ltmp134:
	.loc	1 491 24 is_stmt 1              @ rt-thread/components/finsh/finsh_token.c:491:24
	ldrb.w	r0, [sp, #163]
	.loc	1 491 19 is_stmt 0              @ rt-thread/components/finsh/finsh_token.c:491:19
	ldr	r1, [sp, #156]
	adds	r2, r1, #1
	str	r2, [sp, #156]
	.loc	1 491 22                        @ rt-thread/components/finsh/finsh_token.c:491:22
	strb	r0, [r1]
	.loc	1 492 38 is_stmt 1              @ rt-thread/components/finsh/finsh_token.c:492:38
	ldr	r0, [sp, #164]
	.loc	1 492 22 is_stmt 0              @ rt-thread/components/finsh/finsh_token.c:492:22
	bl	token_next_char
	.loc	1 492 20                        @ rt-thread/components/finsh/finsh_token.c:492:20
	strb.w	r0, [sp, #163]
.Ltmp135:
	.loc	1 489 13 is_stmt 1              @ rt-thread/components/finsh/finsh_token.c:489:13
	b	.LBB11_13
.LBB11_17:
	.loc	1 495 14                        @ rt-thread/components/finsh/finsh_token.c:495:14
	ldr	r1, [sp, #156]
	movs	r0, #0
	.loc	1 495 16 is_stmt 0              @ rt-thread/components/finsh/finsh_token.c:495:16
	strb	r0, [r1]
	.loc	1 496 9 is_stmt 1               @ rt-thread/components/finsh/finsh_token.c:496:9
	b	.LBB11_28
.Ltmp136:
.LBB11_18:
	.loc	1 497 26                        @ rt-thread/components/finsh/finsh_token.c:497:26
	ldrsb.w	r0, [sp, #163]
	.loc	1 497 29 is_stmt 0              @ rt-thread/components/finsh/finsh_token.c:497:29
	cmp	r0, #48
	blt	.LBB11_26
	b	.LBB11_19
.LBB11_19:
	.loc	1 497 32                        @ rt-thread/components/finsh/finsh_token.c:497:32
	ldrsb.w	r0, [sp, #163]
.Ltmp137:
	.loc	1 497 19                        @ rt-thread/components/finsh/finsh_token.c:497:19
	cmp	r0, #55
	bgt	.LBB11_26
	b	.LBB11_20
.LBB11_20:
	.loc	1 0 19                          @ rt-thread/components/finsh/finsh_token.c:0:19
	movs	r0, #8
.Ltmp138:
	.loc	1 499 15 is_stmt 1              @ rt-thread/components/finsh/finsh_token.c:499:15
	str	r0, [sp, #20]
	.loc	1 500 13                        @ rt-thread/components/finsh/finsh_token.c:500:13
	b	.LBB11_21
.LBB11_21:                              @ =>This Inner Loop Header: Depth=1
	.loc	1 500 28 is_stmt 0              @ rt-thread/components/finsh/finsh_token.c:500:28
	ldrsb.w	r1, [sp, #163]
	movs	r0, #0
	.loc	1 500 31                        @ rt-thread/components/finsh/finsh_token.c:500:31
	cmp	r1, #48
	str	r0, [sp, #8]                    @ 4-byte Spill
	blt	.LBB11_23
	b	.LBB11_22
.LBB11_22:                              @   in Loop: Header=BB11_21 Depth=1
	.loc	1 500 34                        @ rt-thread/components/finsh/finsh_token.c:500:34
	ldrsb.w	r1, [sp, #163]
	movs	r0, #0
	.loc	1 500 37                        @ rt-thread/components/finsh/finsh_token.c:500:37
	cmp	r1, #56
	it	lt
	movlt	r0, #1
	str	r0, [sp, #8]                    @ 4-byte Spill
	b	.LBB11_23
.LBB11_23:                              @   in Loop: Header=BB11_21 Depth=1
	.loc	1 0 0                           @ rt-thread/components/finsh/finsh_token.c:0:0
	ldr	r0, [sp, #8]                    @ 4-byte Reload
	.loc	1 500 13                        @ rt-thread/components/finsh/finsh_token.c:500:13
	lsls	r0, r0, #31
	cbz	r0, .LBB11_25
	b	.LBB11_24
.LBB11_24:                              @   in Loop: Header=BB11_21 Depth=1
.Ltmp139:
	.loc	1 502 24 is_stmt 1              @ rt-thread/components/finsh/finsh_token.c:502:24
	ldrb.w	r0, [sp, #163]
	.loc	1 502 19 is_stmt 0              @ rt-thread/components/finsh/finsh_token.c:502:19
	ldr	r1, [sp, #156]
	adds	r2, r1, #1
	str	r2, [sp, #156]
	.loc	1 502 22                        @ rt-thread/components/finsh/finsh_token.c:502:22
	strb	r0, [r1]
	.loc	1 503 38 is_stmt 1              @ rt-thread/components/finsh/finsh_token.c:503:38
	ldr	r0, [sp, #164]
	.loc	1 503 22 is_stmt 0              @ rt-thread/components/finsh/finsh_token.c:503:22
	bl	token_next_char
	.loc	1 503 20                        @ rt-thread/components/finsh/finsh_token.c:503:20
	strb.w	r0, [sp, #163]
.Ltmp140:
	.loc	1 500 13 is_stmt 1              @ rt-thread/components/finsh/finsh_token.c:500:13
	b	.LBB11_21
.LBB11_25:
	.loc	1 506 14                        @ rt-thread/components/finsh/finsh_token.c:506:14
	ldr	r1, [sp, #156]
	movs	r0, #0
	.loc	1 506 16 is_stmt 0              @ rt-thread/components/finsh/finsh_token.c:506:16
	strb	r0, [r1]
	.loc	1 507 9 is_stmt 1               @ rt-thread/components/finsh/finsh_token.c:507:9
	b	.LBB11_27
.Ltmp141:
.LBB11_26:
	.loc	1 510 29                        @ rt-thread/components/finsh/finsh_token.c:510:29
	ldr	r0, [sp, #164]
	.loc	1 510 13 is_stmt 0              @ rt-thread/components/finsh/finsh_token.c:510:13
	bl	token_prev_char
	.loc	1 513 13 is_stmt 1              @ rt-thread/components/finsh/finsh_token.c:513:13
	ldr	r1, [sp, #164]
	movs	r0, #0
	.loc	1 513 35 is_stmt 0              @ rt-thread/components/finsh/finsh_token.c:513:35
	str	r0, [r1, #12]
	.loc	1 514 13 is_stmt 1              @ rt-thread/components/finsh/finsh_token.c:514:13
	ldr	r1, [sp, #164]
	movs	r0, #27
	.loc	1 514 33 is_stmt 0              @ rt-thread/components/finsh/finsh_token.c:514:33
	strb	r0, [r1, #8]
	.loc	1 515 13 is_stmt 1              @ rt-thread/components/finsh/finsh_token.c:515:13
	b	.LBB11_39
.Ltmp142:
.LBB11_27:
	.loc	1 0 13 is_stmt 0                @ rt-thread/components/finsh/finsh_token.c:0:13
	b	.LBB11_28
.LBB11_28:
	b	.LBB11_29
.LBB11_29:
	add	r0, sp, #28
	.loc	1 518 56 is_stmt 1              @ rt-thread/components/finsh/finsh_token.c:518:56
	str	r0, [sp, #4]                    @ 4-byte Spill
	bl	strlen
	mov	r1, r0
	.loc	1 518 69 is_stmt 0              @ rt-thread/components/finsh/finsh_token.c:518:69
	ldr	r0, [sp, #4]                    @ 4-byte Reload
	ldr	r2, [sp, #20]
	.loc	1 518 33                        @ rt-thread/components/finsh/finsh_token.c:518:33
	bl	token_spec_number
	.loc	1 518 9                         @ rt-thread/components/finsh/finsh_token.c:518:9
	ldr	r1, [sp, #164]
	.loc	1 518 31                        @ rt-thread/components/finsh/finsh_token.c:518:31
	str	r0, [r1, #12]
	.loc	1 519 9 is_stmt 1               @ rt-thread/components/finsh/finsh_token.c:519:9
	ldr	r1, [sp, #164]
	movs	r0, #27
	.loc	1 519 29 is_stmt 0              @ rt-thread/components/finsh/finsh_token.c:519:29
	strb	r0, [r1, #8]
	.loc	1 520 5 is_stmt 1               @ rt-thread/components/finsh/finsh_token.c:520:5
	b	.LBB11_36
.Ltmp143:
.LBB11_30:
	.loc	1 523 9                         @ rt-thread/components/finsh/finsh_token.c:523:9
	b	.LBB11_31
.LBB11_31:                              @ =>This Inner Loop Header: Depth=1
	.loc	1 523 17 is_stmt 0              @ rt-thread/components/finsh/finsh_token.c:523:17
	ldrsb.w	r1, [sp, #163]
	movs	r0, #0
	cmp	r1, #48
	str	r0, [sp]                        @ 4-byte Spill
	blt	.LBB11_33
	b	.LBB11_32
.LBB11_32:                              @   in Loop: Header=BB11_31 Depth=1
	ldrsb.w	r1, [sp, #163]
	movs	r0, #0
	cmp	r1, #58
	it	lt
	movlt	r0, #1
	str	r0, [sp]                        @ 4-byte Spill
	b	.LBB11_33
.LBB11_33:                              @   in Loop: Header=BB11_31 Depth=1
	.loc	1 0 0                           @ rt-thread/components/finsh/finsh_token.c:0:0
	ldr	r0, [sp]                        @ 4-byte Reload
	.loc	1 523 9                         @ rt-thread/components/finsh/finsh_token.c:523:9
	lsls	r0, r0, #31
	cbz	r0, .LBB11_35
	b	.LBB11_34
.LBB11_34:                              @   in Loop: Header=BB11_31 Depth=1
.Ltmp144:
	.loc	1 525 21 is_stmt 1              @ rt-thread/components/finsh/finsh_token.c:525:21
	ldr	r0, [sp, #24]
	.loc	1 525 26 is_stmt 0              @ rt-thread/components/finsh/finsh_token.c:525:26
	add.w	r1, r0, r0, lsl #2
	.loc	1 525 34                        @ rt-thread/components/finsh/finsh_token.c:525:34
	ldrsb.w	r0, [sp, #163]
	.loc	1 525 30                        @ rt-thread/components/finsh/finsh_token.c:525:30
	add.w	r0, r0, r1, lsl #1
	subs	r0, #48
	.loc	1 525 19                        @ rt-thread/components/finsh/finsh_token.c:525:19
	str	r0, [sp, #24]
	.loc	1 526 34 is_stmt 1              @ rt-thread/components/finsh/finsh_token.c:526:34
	ldr	r0, [sp, #164]
	.loc	1 526 18 is_stmt 0              @ rt-thread/components/finsh/finsh_token.c:526:18
	bl	token_next_char
	.loc	1 526 16                        @ rt-thread/components/finsh/finsh_token.c:526:16
	strb.w	r0, [sp, #163]
.Ltmp145:
	.loc	1 523 9 is_stmt 1               @ rt-thread/components/finsh/finsh_token.c:523:9
	b	.LBB11_31
.LBB11_35:
	.loc	1 529 33                        @ rt-thread/components/finsh/finsh_token.c:529:33
	ldr	r0, [sp, #24]
	.loc	1 529 9 is_stmt 0               @ rt-thread/components/finsh/finsh_token.c:529:9
	ldr	r1, [sp, #164]
	.loc	1 529 31                        @ rt-thread/components/finsh/finsh_token.c:529:31
	str	r0, [r1, #12]
	.loc	1 530 9 is_stmt 1               @ rt-thread/components/finsh/finsh_token.c:530:9
	ldr	r1, [sp, #164]
	movs	r0, #27
	.loc	1 530 29 is_stmt 0              @ rt-thread/components/finsh/finsh_token.c:530:29
	strb	r0, [r1, #8]
	b	.LBB11_36
.Ltmp146:
.LBB11_36:
	.loc	1 533 14 is_stmt 1              @ rt-thread/components/finsh/finsh_token.c:533:14
	ldrsb.w	r0, [sp, #163]
	.loc	1 533 5 is_stmt 0               @ rt-thread/components/finsh/finsh_token.c:533:5
	orr	r0, r0, #32
	cmp	r0, #108
	beq	.LBB11_37
	b	.LBB11_38
.LBB11_37:
.Ltmp147:
	.loc	1 537 9 is_stmt 1               @ rt-thread/components/finsh/finsh_token.c:537:9
	ldr	r1, [sp, #164]
	movs	r0, #28
	.loc	1 537 29 is_stmt 0              @ rt-thread/components/finsh/finsh_token.c:537:29
	strb	r0, [r1, #8]
	.loc	1 538 9 is_stmt 1               @ rt-thread/components/finsh/finsh_token.c:538:9
	b	.LBB11_39
.LBB11_38:
	.loc	1 541 25                        @ rt-thread/components/finsh/finsh_token.c:541:25
	ldr	r0, [sp, #164]
	.loc	1 541 9 is_stmt 0               @ rt-thread/components/finsh/finsh_token.c:541:9
	bl	token_prev_char
	.loc	1 542 9 is_stmt 1               @ rt-thread/components/finsh/finsh_token.c:542:9
	b	.LBB11_39
.Ltmp148:
.LBB11_39:
	.loc	1 544 1                         @ rt-thread/components/finsh/finsh_token.c:544:1
	add	sp, #168
	pop	{r7, pc}
.Ltmp149:
.Lfunc_end11:
	.size	token_proc_number, .Lfunc_end11-token_proc_number
	.cfi_endproc
	.cantunwind
	.fnend
                                        @ -- End function
	.section	.text.token_proc_escape,"ax",%progbits
	.p2align	3                               @ -- Begin function token_proc_escape
	.type	token_proc_escape,%function
	.code	16                              @ @token_proc_escape
	.thumb_func
token_proc_escape:
.Lfunc_begin12:
	.loc	1 396 0                         @ rt-thread/components/finsh/finsh_token.c:396:0
	.fnstart
	.cfi_startproc
@ %bb.0:
	.save	{r7, lr}
	push	{r7, lr}
	.cfi_def_cfa_offset 8
	.cfi_offset lr, -4
	.cfi_offset r7, -8
	.pad	#32
	sub	sp, #32
	.cfi_def_cfa_offset 40
	str	r0, [sp, #28]
	movs	r0, #0
.Ltmp150:
	.loc	1 398 9 prologue_end            @ rt-thread/components/finsh/finsh_token.c:398:9
	str	r0, [sp, #20]
	.loc	1 400 26                        @ rt-thread/components/finsh/finsh_token.c:400:26
	ldr	r0, [sp, #28]
	.loc	1 400 10 is_stmt 0              @ rt-thread/components/finsh/finsh_token.c:400:10
	bl	token_next_char
	.loc	1 400 8                         @ rt-thread/components/finsh/finsh_token.c:400:8
	strb.w	r0, [sp, #27]
	.loc	1 401 13 is_stmt 1              @ rt-thread/components/finsh/finsh_token.c:401:13
	ldrsb.w	r0, [sp, #27]
	.loc	1 401 5 is_stmt 0               @ rt-thread/components/finsh/finsh_token.c:401:5
	subs	r0, #34
	mov	r1, r0
	str	r1, [sp, #16]                   @ 4-byte Spill
	cmp	r0, #86
	bhi.w	.LBB12_21
@ %bb.1:
	.loc	1 0 5                           @ rt-thread/components/finsh/finsh_token.c:0:5
	ldr	r1, [sp, #16]                   @ 4-byte Reload
.LCPI12_0:
	tbh	[pc, r1, lsl #1]
@ %bb.2:
.LJTI12_0:
	.short	(.LBB12_10-(.LCPI12_0+4))/2
	.short	(.LBB12_21-(.LCPI12_0+4))/2
	.short	(.LBB12_21-(.LCPI12_0+4))/2
	.short	(.LBB12_21-(.LCPI12_0+4))/2
	.short	(.LBB12_21-(.LCPI12_0+4))/2
	.short	(.LBB12_21-(.LCPI12_0+4))/2
	.short	(.LBB12_21-(.LCPI12_0+4))/2
	.short	(.LBB12_21-(.LCPI12_0+4))/2
	.short	(.LBB12_21-(.LCPI12_0+4))/2
	.short	(.LBB12_21-(.LCPI12_0+4))/2
	.short	(.LBB12_21-(.LCPI12_0+4))/2
	.short	(.LBB12_21-(.LCPI12_0+4))/2
	.short	(.LBB12_21-(.LCPI12_0+4))/2
	.short	(.LBB12_21-(.LCPI12_0+4))/2
	.short	(.LBB12_21-(.LCPI12_0+4))/2
	.short	(.LBB12_21-(.LCPI12_0+4))/2
	.short	(.LBB12_21-(.LCPI12_0+4))/2
	.short	(.LBB12_21-(.LCPI12_0+4))/2
	.short	(.LBB12_21-(.LCPI12_0+4))/2
	.short	(.LBB12_21-(.LCPI12_0+4))/2
	.short	(.LBB12_21-(.LCPI12_0+4))/2
	.short	(.LBB12_21-(.LCPI12_0+4))/2
	.short	(.LBB12_21-(.LCPI12_0+4))/2
	.short	(.LBB12_21-(.LCPI12_0+4))/2
	.short	(.LBB12_21-(.LCPI12_0+4))/2
	.short	(.LBB12_21-(.LCPI12_0+4))/2
	.short	(.LBB12_21-(.LCPI12_0+4))/2
	.short	(.LBB12_21-(.LCPI12_0+4))/2
	.short	(.LBB12_21-(.LCPI12_0+4))/2
	.short	(.LBB12_21-(.LCPI12_0+4))/2
	.short	(.LBB12_21-(.LCPI12_0+4))/2
	.short	(.LBB12_21-(.LCPI12_0+4))/2
	.short	(.LBB12_21-(.LCPI12_0+4))/2
	.short	(.LBB12_21-(.LCPI12_0+4))/2
	.short	(.LBB12_21-(.LCPI12_0+4))/2
	.short	(.LBB12_21-(.LCPI12_0+4))/2
	.short	(.LBB12_21-(.LCPI12_0+4))/2
	.short	(.LBB12_21-(.LCPI12_0+4))/2
	.short	(.LBB12_21-(.LCPI12_0+4))/2
	.short	(.LBB12_21-(.LCPI12_0+4))/2
	.short	(.LBB12_21-(.LCPI12_0+4))/2
	.short	(.LBB12_21-(.LCPI12_0+4))/2
	.short	(.LBB12_21-(.LCPI12_0+4))/2
	.short	(.LBB12_21-(.LCPI12_0+4))/2
	.short	(.LBB12_21-(.LCPI12_0+4))/2
	.short	(.LBB12_21-(.LCPI12_0+4))/2
	.short	(.LBB12_21-(.LCPI12_0+4))/2
	.short	(.LBB12_21-(.LCPI12_0+4))/2
	.short	(.LBB12_21-(.LCPI12_0+4))/2
	.short	(.LBB12_21-(.LCPI12_0+4))/2
	.short	(.LBB12_21-(.LCPI12_0+4))/2
	.short	(.LBB12_21-(.LCPI12_0+4))/2
	.short	(.LBB12_21-(.LCPI12_0+4))/2
	.short	(.LBB12_21-(.LCPI12_0+4))/2
	.short	(.LBB12_11-(.LCPI12_0+4))/2
	.short	(.LBB12_21-(.LCPI12_0+4))/2
	.short	(.LBB12_21-(.LCPI12_0+4))/2
	.short	(.LBB12_21-(.LCPI12_0+4))/2
	.short	(.LBB12_21-(.LCPI12_0+4))/2
	.short	(.LBB12_21-(.LCPI12_0+4))/2
	.short	(.LBB12_21-(.LCPI12_0+4))/2
	.short	(.LBB12_21-(.LCPI12_0+4))/2
	.short	(.LBB12_21-(.LCPI12_0+4))/2
	.short	(.LBB12_9-(.LCPI12_0+4))/2
	.short	(.LBB12_6-(.LCPI12_0+4))/2
	.short	(.LBB12_21-(.LCPI12_0+4))/2
	.short	(.LBB12_21-(.LCPI12_0+4))/2
	.short	(.LBB12_21-(.LCPI12_0+4))/2
	.short	(.LBB12_8-(.LCPI12_0+4))/2
	.short	(.LBB12_21-(.LCPI12_0+4))/2
	.short	(.LBB12_21-(.LCPI12_0+4))/2
	.short	(.LBB12_21-(.LCPI12_0+4))/2
	.short	(.LBB12_21-(.LCPI12_0+4))/2
	.short	(.LBB12_21-(.LCPI12_0+4))/2
	.short	(.LBB12_21-(.LCPI12_0+4))/2
	.short	(.LBB12_21-(.LCPI12_0+4))/2
	.short	(.LBB12_3-(.LCPI12_0+4))/2
	.short	(.LBB12_21-(.LCPI12_0+4))/2
	.short	(.LBB12_21-(.LCPI12_0+4))/2
	.short	(.LBB12_21-(.LCPI12_0+4))/2
	.short	(.LBB12_7-(.LCPI12_0+4))/2
	.short	(.LBB12_21-(.LCPI12_0+4))/2
	.short	(.LBB12_4-(.LCPI12_0+4))/2
	.short	(.LBB12_21-(.LCPI12_0+4))/2
	.short	(.LBB12_5-(.LCPI12_0+4))/2
	.short	(.LBB12_21-(.LCPI12_0+4))/2
	.short	(.LBB12_11-(.LCPI12_0+4))/2
	.p2align	1
.LBB12_3:
	movs	r0, #10
.Ltmp151:
	.loc	1 404 16 is_stmt 1              @ rt-thread/components/finsh/finsh_token.c:404:16
	str	r0, [sp, #20]
	.loc	1 405 9                         @ rt-thread/components/finsh/finsh_token.c:405:9
	b	.LBB12_27
.LBB12_4:
	.loc	1 0 9 is_stmt 0                 @ rt-thread/components/finsh/finsh_token.c:0:9
	movs	r0, #9
	.loc	1 407 16 is_stmt 1              @ rt-thread/components/finsh/finsh_token.c:407:16
	str	r0, [sp, #20]
	.loc	1 408 9                         @ rt-thread/components/finsh/finsh_token.c:408:9
	b	.LBB12_27
.LBB12_5:
	.loc	1 0 9 is_stmt 0                 @ rt-thread/components/finsh/finsh_token.c:0:9
	movs	r0, #11
	.loc	1 410 16 is_stmt 1              @ rt-thread/components/finsh/finsh_token.c:410:16
	str	r0, [sp, #20]
	.loc	1 411 9                         @ rt-thread/components/finsh/finsh_token.c:411:9
	b	.LBB12_27
.LBB12_6:
	.loc	1 0 9 is_stmt 0                 @ rt-thread/components/finsh/finsh_token.c:0:9
	movs	r0, #8
	.loc	1 413 16 is_stmt 1              @ rt-thread/components/finsh/finsh_token.c:413:16
	str	r0, [sp, #20]
	.loc	1 414 9                         @ rt-thread/components/finsh/finsh_token.c:414:9
	b	.LBB12_27
.LBB12_7:
	.loc	1 0 9 is_stmt 0                 @ rt-thread/components/finsh/finsh_token.c:0:9
	movs	r0, #13
	.loc	1 416 16 is_stmt 1              @ rt-thread/components/finsh/finsh_token.c:416:16
	str	r0, [sp, #20]
	.loc	1 417 9                         @ rt-thread/components/finsh/finsh_token.c:417:9
	b	.LBB12_27
.LBB12_8:
	.loc	1 0 9 is_stmt 0                 @ rt-thread/components/finsh/finsh_token.c:0:9
	movs	r0, #12
	.loc	1 419 16 is_stmt 1              @ rt-thread/components/finsh/finsh_token.c:419:16
	str	r0, [sp, #20]
	.loc	1 420 9                         @ rt-thread/components/finsh/finsh_token.c:420:9
	b	.LBB12_27
.LBB12_9:
	.loc	1 0 9 is_stmt 0                 @ rt-thread/components/finsh/finsh_token.c:0:9
	movs	r0, #7
	.loc	1 422 16 is_stmt 1              @ rt-thread/components/finsh/finsh_token.c:422:16
	str	r0, [sp, #20]
	.loc	1 423 9                         @ rt-thread/components/finsh/finsh_token.c:423:9
	b	.LBB12_27
.LBB12_10:
	.loc	1 0 9 is_stmt 0                 @ rt-thread/components/finsh/finsh_token.c:0:9
	movs	r0, #34
	.loc	1 425 16 is_stmt 1              @ rt-thread/components/finsh/finsh_token.c:425:16
	str	r0, [sp, #20]
	.loc	1 426 9                         @ rt-thread/components/finsh/finsh_token.c:426:9
	b	.LBB12_27
.LBB12_11:
	.loc	1 0 9 is_stmt 0                 @ rt-thread/components/finsh/finsh_token.c:0:9
	movs	r0, #0
	.loc	1 429 16 is_stmt 1              @ rt-thread/components/finsh/finsh_token.c:429:16
	str	r0, [sp, #20]
	.loc	1 430 31                        @ rt-thread/components/finsh/finsh_token.c:430:31
	ldr	r0, [sp, #28]
	.loc	1 430 15 is_stmt 0              @ rt-thread/components/finsh/finsh_token.c:430:15
	bl	token_next_char
	.loc	1 430 13                        @ rt-thread/components/finsh/finsh_token.c:430:13
	strb.w	r0, [sp, #27]
	.loc	1 431 9 is_stmt 1               @ rt-thread/components/finsh/finsh_token.c:431:9
	b	.LBB12_12
.LBB12_12:                              @ =>This Inner Loop Header: Depth=1
	.loc	1 431 16 is_stmt 0              @ rt-thread/components/finsh/finsh_token.c:431:16
	ldrsb.w	r0, [sp, #27]
	cmp	r0, #48
	blt	.LBB12_14
	b	.LBB12_13
.LBB12_13:                              @   in Loop: Header=BB12_12 Depth=1
	ldrsb.w	r1, [sp, #27]
	movs	r0, #1
	cmp	r1, #58
	str	r0, [sp, #12]                   @ 4-byte Spill
	blt	.LBB12_15
	b	.LBB12_14
.LBB12_14:                              @   in Loop: Header=BB12_12 Depth=1
	ldrsb.w	r0, [sp, #27]
	orr	r0, r0, #32
	sub.w	r1, r0, #97
	movs	r0, #0
	cmp	r1, #6
	it	lo
	movlo	r0, #1
	str	r0, [sp, #12]                   @ 4-byte Spill
	b	.LBB12_15
.LBB12_15:                              @   in Loop: Header=BB12_12 Depth=1
	.loc	1 0 16                          @ rt-thread/components/finsh/finsh_token.c:0:16
	ldr	r0, [sp, #12]                   @ 4-byte Reload
	.loc	1 431 9                         @ rt-thread/components/finsh/finsh_token.c:431:9
	lsls	r0, r0, #31
	cbz	r0, .LBB12_20
	b	.LBB12_16
.LBB12_16:                              @   in Loop: Header=BB12_12 Depth=1
.Ltmp152:
	.loc	1 433 22 is_stmt 1              @ rt-thread/components/finsh/finsh_token.c:433:22
	ldr	r0, [sp, #20]
	.loc	1 433 29 is_stmt 0              @ rt-thread/components/finsh/finsh_token.c:433:29
	lsls	r0, r0, #4
	.loc	1 433 38                        @ rt-thread/components/finsh/finsh_token.c:433:38
	str	r0, [sp, #8]                    @ 4-byte Spill
	ldrsb.w	r0, [sp, #27]
	.loc	1 433 37                        @ rt-thread/components/finsh/finsh_token.c:433:37
	cmp	r0, #64
	bgt	.LBB12_18
	b	.LBB12_17
.LBB12_17:                              @   in Loop: Header=BB12_12 Depth=1
	.loc	1 433 51                        @ rt-thread/components/finsh/finsh_token.c:433:51
	ldrsb.w	r0, [sp, #27]
	.loc	1 433 54                        @ rt-thread/components/finsh/finsh_token.c:433:54
	subs	r0, #48
	.loc	1 433 37                        @ rt-thread/components/finsh/finsh_token.c:433:37
	str	r0, [sp, #4]                    @ 4-byte Spill
	b	.LBB12_19
.LBB12_18:                              @   in Loop: Header=BB12_12 Depth=1
	.loc	1 433 64                        @ rt-thread/components/finsh/finsh_token.c:433:64
	ldrsb.w	r0, [sp, #27]
	.loc	1 433 67                        @ rt-thread/components/finsh/finsh_token.c:433:67
	orr	r0, r0, #32
	.loc	1 433 81                        @ rt-thread/components/finsh/finsh_token.c:433:81
	subs	r0, #87
	.loc	1 433 37                        @ rt-thread/components/finsh/finsh_token.c:433:37
	str	r0, [sp, #4]                    @ 4-byte Spill
	b	.LBB12_19
.LBB12_19:                              @   in Loop: Header=BB12_12 Depth=1
	ldr	r0, [sp, #8]                    @ 4-byte Reload
	ldr	r1, [sp, #4]                    @ 4-byte Reload
	.loc	1 433 34                        @ rt-thread/components/finsh/finsh_token.c:433:34
	add	r0, r1
	.loc	1 433 20                        @ rt-thread/components/finsh/finsh_token.c:433:20
	str	r0, [sp, #20]
	.loc	1 434 34 is_stmt 1              @ rt-thread/components/finsh/finsh_token.c:434:34
	ldr	r0, [sp, #28]
	.loc	1 434 18 is_stmt 0              @ rt-thread/components/finsh/finsh_token.c:434:18
	bl	token_next_char
	.loc	1 434 16                        @ rt-thread/components/finsh/finsh_token.c:434:16
	strb.w	r0, [sp, #27]
.Ltmp153:
	.loc	1 431 9 is_stmt 1               @ rt-thread/components/finsh/finsh_token.c:431:9
	b	.LBB12_12
.LBB12_20:
	.loc	1 436 25                        @ rt-thread/components/finsh/finsh_token.c:436:25
	ldr	r0, [sp, #28]
	.loc	1 436 9 is_stmt 0               @ rt-thread/components/finsh/finsh_token.c:436:9
	bl	token_prev_char
	.loc	1 437 9 is_stmt 1               @ rt-thread/components/finsh/finsh_token.c:437:9
	b	.LBB12_27
.LBB12_21:
.Ltmp154:
	.loc	1 439 15                        @ rt-thread/components/finsh/finsh_token.c:439:15
	ldrsb.w	r0, [sp, #27]
	.loc	1 439 18 is_stmt 0              @ rt-thread/components/finsh/finsh_token.c:439:18
	subs	r0, #48
.Ltmp155:
	.loc	1 439 14                        @ rt-thread/components/finsh/finsh_token.c:439:14
	cmp	r0, #7
	bhi	.LBB12_26
	b	.LBB12_22
.LBB12_22:
	.loc	1 0 14                          @ rt-thread/components/finsh/finsh_token.c:0:14
	movs	r0, #0
.Ltmp156:
	.loc	1 441 20 is_stmt 1              @ rt-thread/components/finsh/finsh_token.c:441:20
	str	r0, [sp, #20]
	.loc	1 442 13                        @ rt-thread/components/finsh/finsh_token.c:442:13
	b	.LBB12_23
.LBB12_23:                              @ =>This Inner Loop Header: Depth=1
	.loc	1 442 22 is_stmt 0              @ rt-thread/components/finsh/finsh_token.c:442:22
	ldrsb.w	r0, [sp, #27]
	.loc	1 442 25                        @ rt-thread/components/finsh/finsh_token.c:442:25
	subs	r0, #48
	.loc	1 442 13                        @ rt-thread/components/finsh/finsh_token.c:442:13
	cmp	r0, #7
	bhi	.LBB12_25
	b	.LBB12_24
.LBB12_24:                              @   in Loop: Header=BB12_23 Depth=1
.Ltmp157:
	.loc	1 444 26 is_stmt 1              @ rt-thread/components/finsh/finsh_token.c:444:26
	ldr	r1, [sp, #20]
	.loc	1 444 37 is_stmt 0              @ rt-thread/components/finsh/finsh_token.c:444:37
	ldrsb.w	r0, [sp, #27]
	.loc	1 444 35                        @ rt-thread/components/finsh/finsh_token.c:444:35
	add.w	r0, r0, r1, lsl #3
	.loc	1 444 40                        @ rt-thread/components/finsh/finsh_token.c:444:40
	subs	r0, #48
	.loc	1 444 24                        @ rt-thread/components/finsh/finsh_token.c:444:24
	str	r0, [sp, #20]
	.loc	1 445 38 is_stmt 1              @ rt-thread/components/finsh/finsh_token.c:445:38
	ldr	r0, [sp, #28]
	.loc	1 445 22 is_stmt 0              @ rt-thread/components/finsh/finsh_token.c:445:22
	bl	token_next_char
	.loc	1 445 20                        @ rt-thread/components/finsh/finsh_token.c:445:20
	strb.w	r0, [sp, #27]
.Ltmp158:
	.loc	1 442 13 is_stmt 1              @ rt-thread/components/finsh/finsh_token.c:442:13
	b	.LBB12_23
.LBB12_25:
	.loc	1 448 29                        @ rt-thread/components/finsh/finsh_token.c:448:29
	ldr	r0, [sp, #28]
	.loc	1 448 13 is_stmt 0              @ rt-thread/components/finsh/finsh_token.c:448:13
	bl	token_prev_char
	.loc	1 449 9 is_stmt 1               @ rt-thread/components/finsh/finsh_token.c:449:9
	b	.LBB12_26
.Ltmp159:
.LBB12_26:
	.loc	1 450 9                         @ rt-thread/components/finsh/finsh_token.c:450:9
	b	.LBB12_27
.Ltmp160:
.LBB12_27:
	.loc	1 453 12                        @ rt-thread/components/finsh/finsh_token.c:453:12
	ldr	r0, [sp, #20]
	.loc	1 453 5 is_stmt 0               @ rt-thread/components/finsh/finsh_token.c:453:5
	add	sp, #32
	pop	{r7, pc}
.Ltmp161:
.Lfunc_end12:
	.size	token_proc_escape, .Lfunc_end12-token_proc_escape
	.cfi_endproc
	.cantunwind
	.fnend
                                        @ -- End function
	.section	.text.token_spec_number,"ax",%progbits
	.p2align	3                               @ -- Begin function token_spec_number
	.type	token_spec_number,%function
	.code	16                              @ @token_spec_number
	.thumb_func
token_spec_number:
.Lfunc_begin13:
	.loc	1 550 0 is_stmt 1               @ rt-thread/components/finsh/finsh_token.c:550:0
	.fnstart
	.cfi_startproc
@ %bb.0:
	.pad	#52
	sub	sp, #52
	.cfi_def_cfa_offset 52
	str	r0, [sp, #48]
	str	r1, [sp, #44]
	str	r2, [sp, #40]
	movs	r0, #1
.Ltmp162:
	.loc	1 553 15 prologue_end           @ rt-thread/components/finsh/finsh_token.c:553:15
	str	r0, [sp, #20]
	.loc	1 557 9                         @ rt-thread/components/finsh/finsh_token.c:557:9
	ldr	r0, [sp, #48]
	.loc	1 557 7 is_stmt 0               @ rt-thread/components/finsh/finsh_token.c:557:7
	str	r0, [sp, #36]
	movs	r0, #0
	.loc	1 558 7 is_stmt 1               @ rt-thread/components/finsh/finsh_token.c:558:7
	str	r0, [sp, #28]
	.loc	1 560 14                        @ rt-thread/components/finsh/finsh_token.c:560:14
	ldr	r0, [sp, #40]
	.loc	1 560 5 is_stmt 0               @ rt-thread/components/finsh/finsh_token.c:560:5
	str	r0, [sp]                        @ 4-byte Spill
	cmp	r0, #2
	beq	.LBB13_5
	b	.LBB13_1
.LBB13_1:
	ldr	r0, [sp]                        @ 4-byte Reload
	cmp	r0, #8
	beq	.LBB13_4
	b	.LBB13_2
.LBB13_2:
	ldr	r0, [sp]                        @ 4-byte Reload
	cmp	r0, #16
	bne	.LBB13_6
	b	.LBB13_3
.LBB13_3:
	.loc	1 0 5                           @ rt-thread/components/finsh/finsh_token.c:0:5
	movs	r0, #4
.Ltmp163:
	.loc	1 562 20 is_stmt 1              @ rt-thread/components/finsh/finsh_token.c:562:20
	str	r0, [sp, #20]
	.loc	1 563 9                         @ rt-thread/components/finsh/finsh_token.c:563:9
	b	.LBB13_7
.LBB13_4:
	.loc	1 0 9 is_stmt 0                 @ rt-thread/components/finsh/finsh_token.c:0:9
	movs	r0, #3
	.loc	1 564 20 is_stmt 1              @ rt-thread/components/finsh/finsh_token.c:564:20
	str	r0, [sp, #20]
	.loc	1 565 9                         @ rt-thread/components/finsh/finsh_token.c:565:9
	b	.LBB13_7
.LBB13_5:
	.loc	1 0 9 is_stmt 0                 @ rt-thread/components/finsh/finsh_token.c:0:9
	movs	r0, #1
	.loc	1 566 20 is_stmt 1              @ rt-thread/components/finsh/finsh_token.c:566:20
	str	r0, [sp, #20]
	.loc	1 567 9                         @ rt-thread/components/finsh/finsh_token.c:567:9
	b	.LBB13_7
.LBB13_6:
	.loc	1 568 14                        @ rt-thread/components/finsh/finsh_token.c:568:14
	b	.LBB13_7
.Ltmp164:
.LBB13_7:
	.loc	1 0 14 is_stmt 0                @ rt-thread/components/finsh/finsh_token.c:0:14
	movs	r0, #0
.Ltmp165:
	.loc	1 571 12 is_stmt 1              @ rt-thread/components/finsh/finsh_token.c:571:12
	str	r0, [sp, #24]
	.loc	1 571 11 is_stmt 0              @ rt-thread/components/finsh/finsh_token.c:571:11
	b	.LBB13_8
.LBB13_8:                               @ =>This Inner Loop Header: Depth=1
.Ltmp166:
	.loc	1 571 16                        @ rt-thread/components/finsh/finsh_token.c:571:16
	ldr	r0, [sp, #24]
.Ltmp167:
	.loc	1 571 5                         @ rt-thread/components/finsh/finsh_token.c:571:5
	cmp	r0, #1
	bgt	.LBB13_11
	b	.LBB13_9
.LBB13_9:                               @   in Loop: Header=BB13_8 Depth=1
.Ltmp168:
	.loc	1 571 36                        @ rt-thread/components/finsh/finsh_token.c:571:36
	ldr	r2, [sp, #24]
	add	r1, sp, #12
	movs	r0, #0
	.loc	1 571 39                        @ rt-thread/components/finsh/finsh_token.c:571:39
	str.w	r0, [r1, r2, lsl #2]
	.loc	1 571 33                        @ rt-thread/components/finsh/finsh_token.c:571:33
	b	.LBB13_10
.LBB13_10:                              @   in Loop: Header=BB13_8 Depth=1
	.loc	1 571 29                        @ rt-thread/components/finsh/finsh_token.c:571:29
	ldr	r0, [sp, #24]
	adds	r0, #1
	str	r0, [sp, #24]
	.loc	1 571 5                         @ rt-thread/components/finsh/finsh_token.c:571:5
	b	.LBB13_8
.Ltmp169:
.LBB13_11:
	.loc	1 573 5 is_stmt 1               @ rt-thread/components/finsh/finsh_token.c:573:5
	b	.LBB13_12
.LBB13_12:                              @ =>This Loop Header: Depth=1
                                        @     Child Loop BB13_22 Depth 2
	.loc	1 573 13 is_stmt 0              @ rt-thread/components/finsh/finsh_token.c:573:13
	ldr	r0, [sp, #28]
	.loc	1 573 15                        @ rt-thread/components/finsh/finsh_token.c:573:15
	ldr	r1, [sp, #44]
	.loc	1 573 5                         @ rt-thread/components/finsh/finsh_token.c:573:5
	cmp	r0, r1
	bge	.LBB13_26
	b	.LBB13_13
.LBB13_13:                              @   in Loop: Header=BB13_12 Depth=1
.Ltmp170:
	.loc	1 575 15 is_stmt 1              @ rt-thread/components/finsh/finsh_token.c:575:15
	ldr	r0, [sp, #36]
	adds	r1, r0, #1
	str	r1, [sp, #36]
	.loc	1 575 13 is_stmt 0              @ rt-thread/components/finsh/finsh_token.c:575:13
	ldrsb.w	r0, [r0]
	.loc	1 575 11                        @ rt-thread/components/finsh/finsh_token.c:575:11
	str	r0, [sp, #32]
.Ltmp171:
	.loc	1 576 14 is_stmt 1              @ rt-thread/components/finsh/finsh_token.c:576:14
	ldr	r0, [sp, #32]
	.loc	1 576 21 is_stmt 0              @ rt-thread/components/finsh/finsh_token.c:576:21
	cmp	r0, #97
	blt	.LBB13_16
	b	.LBB13_14
.LBB13_14:                              @   in Loop: Header=BB13_12 Depth=1
	.loc	1 576 24                        @ rt-thread/components/finsh/finsh_token.c:576:24
	ldr	r0, [sp, #32]
.Ltmp172:
	.loc	1 576 14                        @ rt-thread/components/finsh/finsh_token.c:576:14
	cmp	r0, #102
	bgt	.LBB13_16
	b	.LBB13_15
.LBB13_15:                              @   in Loop: Header=BB13_12 Depth=1
.Ltmp173:
	.loc	1 578 17 is_stmt 1              @ rt-thread/components/finsh/finsh_token.c:578:17
	ldr	r0, [sp, #32]
	.loc	1 578 25 is_stmt 0              @ rt-thread/components/finsh/finsh_token.c:578:25
	subs	r0, #87
	.loc	1 578 15                        @ rt-thread/components/finsh/finsh_token.c:578:15
	str	r0, [sp, #32]
	.loc	1 579 9 is_stmt 1               @ rt-thread/components/finsh/finsh_token.c:579:9
	b	.LBB13_21
.Ltmp174:
.LBB13_16:                              @   in Loop: Header=BB13_12 Depth=1
	.loc	1 580 19                        @ rt-thread/components/finsh/finsh_token.c:580:19
	ldr	r0, [sp, #32]
	.loc	1 580 27 is_stmt 0              @ rt-thread/components/finsh/finsh_token.c:580:27
	cmp	r0, #65
	blt	.LBB13_19
	b	.LBB13_17
.LBB13_17:                              @   in Loop: Header=BB13_12 Depth=1
	.loc	1 580 30                        @ rt-thread/components/finsh/finsh_token.c:580:30
	ldr	r0, [sp, #32]
.Ltmp175:
	.loc	1 580 19                        @ rt-thread/components/finsh/finsh_token.c:580:19
	cmp	r0, #70
	bgt	.LBB13_19
	b	.LBB13_18
.LBB13_18:                              @   in Loop: Header=BB13_12 Depth=1
.Ltmp176:
	.loc	1 582 17 is_stmt 1              @ rt-thread/components/finsh/finsh_token.c:582:17
	ldr	r0, [sp, #32]
	.loc	1 582 25 is_stmt 0              @ rt-thread/components/finsh/finsh_token.c:582:25
	subs	r0, #55
	.loc	1 582 15                        @ rt-thread/components/finsh/finsh_token.c:582:15
	str	r0, [sp, #32]
	.loc	1 583 9 is_stmt 1               @ rt-thread/components/finsh/finsh_token.c:583:9
	b	.LBB13_20
.Ltmp177:
.LBB13_19:                              @   in Loop: Header=BB13_12 Depth=1
	.loc	1 584 18                        @ rt-thread/components/finsh/finsh_token.c:584:18
	ldr	r0, [sp, #32]
	.loc	1 584 20 is_stmt 0              @ rt-thread/components/finsh/finsh_token.c:584:20
	subs	r0, #48
	.loc	1 584 16                        @ rt-thread/components/finsh/finsh_token.c:584:16
	str	r0, [sp, #32]
	b	.LBB13_20
.Ltmp178:
.LBB13_20:                              @   in Loop: Header=BB13_12 Depth=1
	.loc	1 0 16                          @ rt-thread/components/finsh/finsh_token.c:0:16
	b	.LBB13_21
.LBB13_21:                              @   in Loop: Header=BB13_12 Depth=1
	movs	r0, #0
.Ltmp179:
	.loc	1 586 16 is_stmt 1              @ rt-thread/components/finsh/finsh_token.c:586:16
	str	r0, [sp, #24]
	.loc	1 586 15 is_stmt 0              @ rt-thread/components/finsh/finsh_token.c:586:15
	b	.LBB13_22
.LBB13_22:                              @   Parent Loop BB13_12 Depth=1
                                        @ =>  This Inner Loop Header: Depth=2
.Ltmp180:
	.loc	1 586 20                        @ rt-thread/components/finsh/finsh_token.c:586:20
	ldr	r0, [sp, #24]
.Ltmp181:
	.loc	1 586 9                         @ rt-thread/components/finsh/finsh_token.c:586:9
	cmp	r0, #1
	bgt	.LBB13_25
	b	.LBB13_23
.LBB13_23:                              @   in Loop: Header=BB13_22 Depth=2
.Ltmp182:
	.loc	1 588 20 is_stmt 1              @ rt-thread/components/finsh/finsh_token.c:588:20
	ldr	r0, [sp, #24]
	add	r1, sp, #12
	.loc	1 588 17 is_stmt 0              @ rt-thread/components/finsh/finsh_token.c:588:17
	ldr.w	r0, [r1, r0, lsl #2]
	.loc	1 588 15                        @ rt-thread/components/finsh/finsh_token.c:588:15
	str	r0, [sp, #8]
	.loc	1 589 22 is_stmt 1              @ rt-thread/components/finsh/finsh_token.c:589:22
	ldr	r0, [sp, #8]
	.loc	1 589 25 is_stmt 0              @ rt-thread/components/finsh/finsh_token.c:589:25
	ldr	r2, [sp, #20]
	.loc	1 589 23                        @ rt-thread/components/finsh/finsh_token.c:589:23
	lsls	r0, r2
	.loc	1 589 34                        @ rt-thread/components/finsh/finsh_token.c:589:34
	ldr	r2, [sp, #32]
	.loc	1 589 32                        @ rt-thread/components/finsh/finsh_token.c:589:32
	orrs	r0, r2
	.loc	1 589 16                        @ rt-thread/components/finsh/finsh_token.c:589:16
	ldr	r2, [sp, #24]
	.loc	1 589 19                        @ rt-thread/components/finsh/finsh_token.c:589:19
	str.w	r0, [r1, r2, lsl #2]
	.loc	1 590 17 is_stmt 1              @ rt-thread/components/finsh/finsh_token.c:590:17
	ldr	r0, [sp, #8]
	.loc	1 590 28 is_stmt 0              @ rt-thread/components/finsh/finsh_token.c:590:28
	ldr	r1, [sp, #20]
	.loc	1 590 26                        @ rt-thread/components/finsh/finsh_token.c:590:26
	rsb.w	r1, r1, #32
	.loc	1 590 19                        @ rt-thread/components/finsh/finsh_token.c:590:19
	lsrs	r0, r1
	.loc	1 590 15                        @ rt-thread/components/finsh/finsh_token.c:590:15
	str	r0, [sp, #32]
	.loc	1 591 9 is_stmt 1               @ rt-thread/components/finsh/finsh_token.c:591:9
	b	.LBB13_24
.Ltmp183:
.LBB13_24:                              @   in Loop: Header=BB13_22 Depth=2
	.loc	1 586 33                        @ rt-thread/components/finsh/finsh_token.c:586:33
	ldr	r0, [sp, #24]
	adds	r0, #1
	str	r0, [sp, #24]
	.loc	1 586 9 is_stmt 0               @ rt-thread/components/finsh/finsh_token.c:586:9
	b	.LBB13_22
.Ltmp184:
.LBB13_25:                              @   in Loop: Header=BB13_12 Depth=1
	.loc	1 592 10 is_stmt 1              @ rt-thread/components/finsh/finsh_token.c:592:10
	ldr	r0, [sp, #28]
	adds	r0, #1
	str	r0, [sp, #28]
.Ltmp185:
	.loc	1 573 5                         @ rt-thread/components/finsh/finsh_token.c:573:5
	b	.LBB13_12
.LBB13_26:
	.loc	1 595 15                        @ rt-thread/components/finsh/finsh_token.c:595:15
	ldr	r0, [sp, #12]
	.loc	1 595 7 is_stmt 0               @ rt-thread/components/finsh/finsh_token.c:595:7
	str	r0, [sp, #4]
	.loc	1 597 12 is_stmt 1              @ rt-thread/components/finsh/finsh_token.c:597:12
	ldr	r0, [sp, #4]
	.loc	1 597 5 is_stmt 0               @ rt-thread/components/finsh/finsh_token.c:597:5
	add	sp, #52
	bx	lr
.Ltmp186:
.Lfunc_end13:
	.size	token_spec_number, .Lfunc_end13-token_spec_number
	.cfi_endproc
	.cantunwind
	.fnend
                                        @ -- End function
	.type	finsh_name_table,%object        @ @finsh_name_table
	.section	.rodata.finsh_name_table,"a",%progbits
	.p2align	2
finsh_name_table:
	.long	.L.str
	.byte	20                              @ 0x14
	.zero	3
	.long	.L.str.1
	.byte	21                              @ 0x15
	.zero	3
	.long	.L.str.2
	.byte	22                              @ 0x16
	.zero	3
	.long	.L.str.3
	.byte	23                              @ 0x17
	.zero	3
	.long	.L.str.4
	.byte	24                              @ 0x18
	.zero	3
	.long	.L.str.5
	.byte	25                              @ 0x19
	.zero	3
	.long	.L.str.6
	.byte	30                              @ 0x1e
	.zero	3
	.long	.L.str.7
	.byte	30                              @ 0x1e
	.zero	3
	.size	finsh_name_table, 64

	.type	.L.str,%object                  @ @.str
	.section	.rodata.str1.1,"aMS",%progbits,1
.L.str:
	.asciz	"void"
	.size	.L.str, 5

	.type	.L.str.1,%object                @ @.str.1
.L.str.1:
	.asciz	"char"
	.size	.L.str.1, 5

	.type	.L.str.2,%object                @ @.str.2
.L.str.2:
	.asciz	"short"
	.size	.L.str.2, 6

	.type	.L.str.3,%object                @ @.str.3
.L.str.3:
	.asciz	"int"
	.size	.L.str.3, 4

	.type	.L.str.4,%object                @ @.str.4
.L.str.4:
	.asciz	"long"
	.size	.L.str.4, 5

	.type	.L.str.5,%object                @ @.str.5
.L.str.5:
	.asciz	"unsigned"
	.size	.L.str.5, 9

	.type	.L.str.6,%object                @ @.str.6
.L.str.6:
	.asciz	"NULL"
	.size	.L.str.6, 5

	.type	.L.str.7,%object                @ @.str.7
.L.str.7:
	.asciz	"null"
	.size	.L.str.7, 5

	.file	3 "D:\\Keil_v5\\ARM\\ARMCLANG\\Bin\\..\\include" "stdint.h"
	.file	4 "E:\\Smart-access-control\\Hardware\\CODE" "rt-thread/components/finsh\\finsh.h"
	.section	".note.GNU-stack","",%progbits
	.eabi_attribute	30, 6	@ Tag_ABI_optimization_goals
	.ARM_attribute	16, 1	@ Tag_AV_eba