	.text
	.syntax unified
	.eabi_attribute	67, "2.09"	@ Tag_conformance
	.cpu	cortex-m7
	.eabi_attribute	6, 13	@ Tag_CPU_arch
	.eabi_attribute	7, 77	@ Tag_CPU_arch_profile
	.eabi_attribute	8, 0	@ Tag_ARM_ISA_use
	.eabi_attribute	9, 2	@ Tag_THUMB_ISA_use
	.fpu	fpv5-d16
	.eabi_attribute	36, 1	@ Tag_FP_HP_extension
	.eabi_attribute	34, 1	@ Tag_CPU_unaligned_access
	.eabi_attribute	17, 1	@ Tag_ABI_PCS_GOT_use
	.eabi_attribute	20, 2	@ Tag_ABI_FP_denormal
	.eabi_attribute	21, 0	@ Tag_ABI_FP_exceptions
	.eabi_attribute	23, 1	@ Tag_ABI_FP_number_model
	.eabi_attribute	24, 1	@ Tag_ABI_align_needed
	.eabi_attribute	25, 1	@ Tag_ABI_align_preserved
	.eabi_attribute	28, 1	@ Tag_ABI_VFP_args
	.eabi_attribute	38, 1	@ Tag_ABI_FP_16bit_format
	.eabi_attribute	18, 2	@ Tag_ABI_PCS_wchar_t
	.eabi_attribute	26, 1	@ Tag_ABI_enum_size
	.eabi_attribute	14, 0	@ Tag_ABI_PCS_R9_use
	.file	"gt9147.c"
	.file	1 "E:\\Smart-access-control\\Hardware\\CODE" "applications/TOUCH/gt9147.c"
	.file	2 "D:\\Keil_v5\\ARM\\ARMCLANG\\Bin\\..\\include" "stdint.h"
	.file	3 "E:\\Smart-access-control\\Hardware\\CODE" "libraries/STM32H7xx_HAL/STM32H7xx_HAL_Driver/Inc\\stm32h7xx_hal_gpio.h"
	.file	4 "E:\\Smart-access-control\\Hardware\\CODE" "libraries/STM32H7xx_HAL/CMSIS/Device/ST/STM32H7xx/Include/stm32h750xx.h"
	.section	.text.GT9147_Send_Cfg,"ax",%progbits
	.hidden	GT9147_Send_Cfg                 @ -- Begin function GT9147_Send_Cfg
	.globl	GT9147_Send_Cfg
	.p2align	3
	.type	GT9147_Send_Cfg,%function
	.code	16                              @ @GT9147_Send_Cfg
	.thumb_func
GT9147_Send_Cfg:
.Lfunc_begin0:
	.loc	1 52 0                          @ applications/TOUCH/gt9147.c:52:0
	.fnstart
	.cfi_sections .debug_frame
	.cfi_startproc
@ %bb.0:
	.save	{r7, lr}
	push	{r7, lr}
	.cfi_def_cfa_offset 8
	.cfi_offset lr, -4
	.cfi_offset r7, -8
	.pad	#8
	sub	sp, #8
	.cfi_def_cfa_offset 16
                                        @ kill: def $r1 killed $r0
	strb.w	r0, [sp, #7]
	movs	r0, #0
.Ltmp0:
	.loc	1 54 10 prologue_end            @ applications/TOUCH/gt9147.c:54:10
	strb.w	r0, [sp, #4]
	.loc	1 55 8                          @ applications/TOUCH/gt9147.c:55:8
	strb.w	r0, [sp, #5]
	.loc	1 56 9                          @ applications/TOUCH/gt9147.c:56:9
	ldrb.w	r1, [sp, #7]
	.loc	1 56 8 is_stmt 0                @ applications/TOUCH/gt9147.c:56:8
	strb.w	r1, [sp, #6]
.Ltmp1:
	.loc	1 57 7 is_stmt 1                @ applications/TOUCH/gt9147.c:57:7
	strb.w	r0, [sp, #4]
	.loc	1 57 6 is_stmt 0                @ applications/TOUCH/gt9147.c:57:6
	b	.LBB0_1
.LBB0_1:                                @ =>This Inner Loop Header: Depth=1
.Ltmp2:
	.loc	1 57 10                         @ applications/TOUCH/gt9147.c:57:10
	ldrb.w	r0, [sp, #4]
.Ltmp3:
	.loc	1 57 2                          @ applications/TOUCH/gt9147.c:57:2
	cmp	r0, #183
	bhi	.LBB0_4
	b	.LBB0_2
.LBB0_2:                                @   in Loop: Header=BB0_1 Depth=1
.Ltmp4:
	.loc	1 57 62                         @ applications/TOUCH/gt9147.c:57:62
	ldrb.w	r1, [sp, #4]
	.loc	1 57 47                         @ applications/TOUCH/gt9147.c:57:47
	movw	r0, :lower16:GT9147_CFG_TBL
	movt	r0, :upper16:GT9147_CFG_TBL
	ldrb	r1, [r0, r1]
	.loc	1 57 45                         @ applications/TOUCH/gt9147.c:57:45
	ldrb.w	r0, [sp, #5]
	add	r0, r1
	strb.w	r0, [sp, #5]
	.loc	1 57 39                         @ applications/TOUCH/gt9147.c:57:39
	b	.LBB0_3
.LBB0_3:                                @   in Loop: Header=BB0_1 Depth=1
	.loc	1 57 36                         @ applications/TOUCH/gt9147.c:57:36
	ldrb.w	r0, [sp, #4]
	adds	r0, #1
	strb.w	r0, [sp, #4]
	.loc	1 57 2                          @ applications/TOUCH/gt9147.c:57:2
	b	.LBB0_1
.Ltmp5:
.LBB0_4:
	.loc	1 58 14 is_stmt 1               @ applications/TOUCH/gt9147.c:58:14
	ldrb.w	r0, [sp, #5]
	.loc	1 58 21 is_stmt 0               @ applications/TOUCH/gt9147.c:58:21
	rsbs	r0, r0, #0
	.loc	1 58 11                         @ applications/TOUCH/gt9147.c:58:11
	strb.w	r0, [sp, #5]
	.loc	1 59 2 is_stmt 1                @ applications/TOUCH/gt9147.c:59:2
	movw	r1, :lower16:GT9147_CFG_TBL
	movt	r1, :upper16:GT9147_CFG_TBL
	movw	r0, #32839
	movs	r2, #184
	bl	GT9147_WR_Reg
	movw	r0, #33023
	add.w	r1, sp, #5
	movs	r2, #2
	.loc	1 60 2                          @ applications/TOUCH/gt9147.c:60:2
	bl	GT9147_WR_Reg
	movs	r0, #0
	.loc	1 61 2                          @ applications/TOUCH/gt9147.c:61:2
	add	sp, #8
	pop	{r7, pc}
.Ltmp6:
.Lfunc_end0:
	.size	GT9147_Send_Cfg, .Lfunc_end0-GT9147_Send_Cfg
	.cfi_endproc
	.cantunwind
	.fnend
                                        @ -- End function
	.section	.text.GT9147_WR_Reg,"ax",%progbits
	.hidden	GT9147_WR_Reg                   @ -- Begin function GT9147_WR_Reg
	.globl	GT9147_WR_Reg
	.p2align	3
	.type	GT9147_WR_Reg,%function
	.code	16                              @ @GT9147_WR_Reg
	.thumb_func
GT9147_WR_Reg:
.Lfunc_begin1:
	.loc	1 69 0                          @ applications/TOUCH/gt9147.c:69:0
	.fnstart
	.cfi_startproc
@ %bb.0:
	.save	{r7, lr}
	push	{r7, lr}
	.cfi_def_cfa_offset 8
	.cfi_offset lr, -4
	.cfi_offset r7, -8
	.pad	#16
	sub	sp, #16
	.cfi_def_cfa_offset 24
                                        @ kill: def $r3 killed $r2
                                        @ kill: def $r3 killed $r0
	strh.w	r0, [sp, #14]
	str	r1, [sp, #8]
	strb.w	r2, [sp, #7]
	movs	r0, #0
.Ltmp7:
	.loc	1 71 10 prologue_end            @ applications/TOUCH/gt9147.c:71:10
	str	r0, [sp]                        @ 4-byte Spill
	strb.w	r0, [sp, #5]
	.loc	1 72 2                          @ applications/TOUCH/gt9147.c:72:2
	bl	CT_IIC_Start
	movs	r0, #40
	.loc	1 73 3                          @ applications/TOUCH/gt9147.c:73:3
	bl	CT_IIC_Send_Byte
	.loc	1 74 2                          @ applications/TOUCH/gt9147.c:74:2
	bl	CT_IIC_Wait_Ack
	.loc	1 75 19                         @ applications/TOUCH/gt9147.c:75:19
	ldrb.w	r0, [sp, #15]
	.loc	1 75 2 is_stmt 0                @ applications/TOUCH/gt9147.c:75:2
	bl	CT_IIC_Send_Byte
	.loc	1 76 2 is_stmt 1                @ applications/TOUCH/gt9147.c:76:2
	bl	CT_IIC_Wait_Ack
	.loc	1 77 19                         @ applications/TOUCH/gt9147.c:77:19
	ldrb.w	r0, [sp, #14]
	.loc	1 77 2 is_stmt 0                @ applications/TOUCH/gt9147.c:77:2
	bl	CT_IIC_Send_Byte
	.loc	1 78 2 is_stmt 1                @ applications/TOUCH/gt9147.c:78:2
	bl	CT_IIC_Wait_Ack
                                        @ kill: def $r1 killed $r0
.Ltmp8:
	.loc	1 79 7                          @ applications/TOUCH/gt9147.c:79:7
	ldr	r0, [sp]                        @ 4-byte Reload
	strb.w	r0, [sp, #6]
	.loc	1 79 6 is_stmt 0                @ applications/TOUCH/gt9147.c:79:6
	b	.LBB1_1
.LBB1_1:                                @ =>This Inner Loop Header: Depth=1
.Ltmp9:
	.loc	1 79 10                         @ applications/TOUCH/gt9147.c:79:10
	ldrb.w	r0, [sp, #6]
	.loc	1 79 12                         @ applications/TOUCH/gt9147.c:79:12
	ldrb.w	r1, [sp, #7]
.Ltmp10:
	.loc	1 79 2                          @ applications/TOUCH/gt9147.c:79:2
	cmp	r0, r1
	bge	.LBB1_6
	b	.LBB1_2
.LBB1_2:                                @   in Loop: Header=BB1_1 Depth=1
.Ltmp11:
	.loc	1 81 23 is_stmt 1               @ applications/TOUCH/gt9147.c:81:23
	ldr	r0, [sp, #8]
	.loc	1 81 27 is_stmt 0               @ applications/TOUCH/gt9147.c:81:27
	ldrb.w	r1, [sp, #6]
	.loc	1 81 23                         @ applications/TOUCH/gt9147.c:81:23
	ldrb	r0, [r0, r1]
	.loc	1 81 6                          @ applications/TOUCH/gt9147.c:81:6
	bl	CT_IIC_Send_Byte
	.loc	1 82 7 is_stmt 1                @ applications/TOUCH/gt9147.c:82:7
	bl	CT_IIC_Wait_Ack
	.loc	1 82 6 is_stmt 0                @ applications/TOUCH/gt9147.c:82:6
	strb.w	r0, [sp, #5]
.Ltmp12:
	.loc	1 83 6 is_stmt 1                @ applications/TOUCH/gt9147.c:83:6
	ldrb.w	r0, [sp, #5]
.Ltmp13:
	.loc	1 83 6 is_stmt 0                @ applications/TOUCH/gt9147.c:83:6
	cbz	r0, .LBB1_4
	b	.LBB1_3
.LBB1_3:
.Ltmp14:
	.loc	1 83 10                         @ applications/TOUCH/gt9147.c:83:10
	b	.LBB1_6
.Ltmp15:
.LBB1_4:                                @   in Loop: Header=BB1_1 Depth=1
	.loc	1 84 2 is_stmt 1                @ applications/TOUCH/gt9147.c:84:2
	b	.LBB1_5
.Ltmp16:
.LBB1_5:                                @   in Loop: Header=BB1_1 Depth=1
	.loc	1 79 17                         @ applications/TOUCH/gt9147.c:79:17
	ldrb.w	r0, [sp, #6]
	adds	r0, #1
	strb.w	r0, [sp, #6]
	.loc	1 79 2 is_stmt 0                @ applications/TOUCH/gt9147.c:79:2
	b	.LBB1_1
.Ltmp17:
.LBB1_6:
	.loc	1 85 5 is_stmt 1                @ applications/TOUCH/gt9147.c:85:5
	bl	CT_IIC_Stop
	.loc	1 86 9                          @ applications/TOUCH/gt9147.c:86:9
	ldrb.w	r0, [sp, #5]
	.loc	1 86 2 is_stmt 0                @ applications/TOUCH/gt9147.c:86:2
	add	sp, #16
	pop	{r7, pc}
.Ltmp18:
.Lfunc_end1:
	.size	GT9147_WR_Reg, .Lfunc_end1-GT9147_WR_Reg
	.cfi_endproc
	.cantunwind
	.fnend
                                        @ -- End function
	.section	.text.GT9147_RD_Reg,"ax",%progbits
	.hidden	GT9147_RD_Reg                   @ -- Begin function GT9147_RD_Reg
	.globl	GT9147_RD_Reg
	.p2align	3
	.type	GT9147_RD_Reg,%function
	.code	16                              @ @GT9147_RD_Reg
	.thumb_func
GT9147_RD_Reg:
.Lfunc_begin2:
	.loc	1 93 0 is_stmt 1                @ applications/TOUCH/gt9147.c:93:0
	.fnstart
	.cfi_startproc
@ %bb.0:
	.save	{r7, lr}
	push	{r7, lr}
	.cfi_def_cfa_offset 8
	.cfi_offset lr, -4
	.cfi_offset r7, -8
	.pad	#16
	sub	sp, #16
	.cfi_def_cfa_offset 24
                                        @ kill: def $r3 killed $r2
                                        @ kill: def $r3 killed $r0
	strh.w	r0, [sp, #14]
	str	r1, [sp, #8]
	strb.w	r2, [sp, #7]
.Ltmp19:
	.loc	1 95 3 prologue_end             @ applications/TOUCH/gt9147.c:95:3
	bl	CT_IIC_Start
	movs	r0, #40
	.loc	1 96 3                          @ applications/TOUCH/gt9147.c:96:3
	bl	CT_IIC_Send_Byte
	.loc	1 97 2                          @ applications/TOUCH/gt9147.c:97:2
	bl	CT_IIC_Wait_Ack
	.loc	1 98 20                         @ applications/TOUCH/gt9147.c:98:20
	ldrb.w	r0, [sp, #15]
	.loc	1 98 3 is_stmt 0                @ applications/TOUCH/gt9147.c:98:3
	bl	CT_IIC_Send_Byte
	.loc	1 99 2 is_stmt 1                @ applications/TOUCH/gt9147.c:99:2
	bl	CT_IIC_Wait_Ack
	.loc	1 100 20                        @ applications/TOUCH/gt9147.c:100:20
	ldrb.w	r0, [sp, #14]
	.loc	1 100 3 is_stmt 0               @ applications/TOUCH/gt9147.c:100:3
	bl	CT_IIC_Send_Byte
	.loc	1 101 2 is_stmt 1               @ applications/TOUCH/gt9147.c:101:2
	bl	CT_IIC_Wait_Ack
	.loc	1 102 3                         @ applications/TOUCH/gt9147.c:102:3
	bl	CT_IIC_Start
	movs	r0, #41
	.loc	1 103 2                         @ applications/TOUCH/gt9147.c:103:2
	bl	CT_IIC_Send_Byte
	.loc	1 104 2                         @ applications/TOUCH/gt9147.c:104:2
	bl	CT_IIC_Wait_Ack
	movs	r0, #0
.Ltmp20:
	.loc	1 105 7                         @ applications/TOUCH/gt9147.c:105:7
	strb.w	r0, [sp, #6]
	.loc	1 105 6 is_stmt 0               @ applications/TOUCH/gt9147.c:105:6
	b	.LBB2_1
.LBB2_1:                                @ =>This Inner Loop Header: Depth=1
.Ltmp21:
	.loc	1 105 10                        @ applications/TOUCH/gt9147.c:105:10
	ldrb.w	r0, [sp, #6]
	.loc	1 105 12                        @ applications/TOUCH/gt9147.c:105:12
	ldrb.w	r1, [sp, #7]
.Ltmp22:
	.loc	1 105 2                         @ applications/TOUCH/gt9147.c:105:2
	cmp	r0, r1
	bge	.LBB2_4
	b	.LBB2_2
.LBB2_2:                                @   in Loop: Header=BB2_1 Depth=1
.Ltmp23:
	.loc	1 107 30 is_stmt 1              @ applications/TOUCH/gt9147.c:107:30
	ldrb.w	r0, [sp, #6]
	.loc	1 107 34 is_stmt 0              @ applications/TOUCH/gt9147.c:107:34
	ldrb.w	r1, [sp, #7]
	.loc	1 107 37                        @ applications/TOUCH/gt9147.c:107:37
	subs	r1, #1
	.loc	1 107 31                        @ applications/TOUCH/gt9147.c:107:31
	subs	r0, r0, r1
	it	ne
	movne	r0, #1
	.loc	1 107 13                        @ applications/TOUCH/gt9147.c:107:13
	bl	CT_IIC_Read_Byte
	.loc	1 107 6                         @ applications/TOUCH/gt9147.c:107:6
	ldr	r1, [sp, #8]
	.loc	1 107 10                        @ applications/TOUCH/gt9147.c:107:10
	ldrb.w	r2, [sp, #6]
	.loc	1 107 12                        @ applications/TOUCH/gt9147.c:107:12
	strb	r0, [r1, r2]
	.loc	1 108 2 is_stmt 1               @ applications/TOUCH/gt9147.c:108:2
	b	.LBB2_3
.Ltmp24:
.LBB2_3:                                @   in Loop: Header=BB2_1 Depth=1
	.loc	1 105 17                        @ applications/TOUCH/gt9147.c:105:17
	ldrb.w	r0, [sp, #6]
	adds	r0, #1
	strb.w	r0, [sp, #6]
	.loc	1 105 2 is_stmt 0               @ applications/TOUCH/gt9147.c:105:2
	b	.LBB2_1
.Ltmp25:
.LBB2_4:
	.loc	1 109 5 is_stmt 1               @ applications/TOUCH/gt9147.c:109:5
	bl	CT_IIC_Stop
	.loc	1 110 1                         @ applications/TOUCH/gt9147.c:110:1
	add	sp, #16
	pop	{r7, pc}
.Ltmp26:
.Lfunc_end2:
	.size	GT9147_RD_Reg, .Lfunc_end2-GT9147_RD_Reg
	.cfi_endproc
	.cantunwind
	.fnend
                                        @ -- End function
	.section	.text.GT9147_Init,"ax",%progbits
	.hidden	GT9147_Init                     @ -- Begin function GT9147_Init
	.globl	GT9147_Init
	.p2align	3
	.type	GT9147_Init,%function
	.code	16                              @ @GT9147_Init
	.thumb_func
GT9147_Init:
.Lfunc_begin3:
	.loc	1 114 0                         @ applications/TOUCH/gt9147.c:114:0
	.fnstart
	.cfi_startproc
@ %bb.0:
	.save	{r7, lr}
	push	{r7, lr}
	.cfi_def_cfa_offset 8
	.cfi_offset lr, -4
	.cfi_offset r7, -8
	.pad	#88
	sub	sp, #88
	.cfi_def_cfa_offset 96
.Ltmp27:
	.loc	1 118 5 prologue_end            @ applications/TOUCH/gt9147.c:118:5
	b	.LBB3_1
.LBB3_1:
	.loc	1 0 5 is_stmt 0                 @ applications/TOUCH/gt9147.c:0:5
	movw	r0, #17632
	movt	r0, #22530
.Ltmp28:
	.loc	1 118 5                         @ applications/TOUCH/gt9147.c:118:5
	ldr	r1, [r0]
	orr	r1, r1, #8
	str	r1, [r0]
	ldr	r0, [r0]
	and	r0, r0, #8
	str	r0, [sp, #56]
	ldr	r0, [sp, #56]
	b	.LBB3_2
.Ltmp29:
.LBB3_2:
	.loc	1 119 5 is_stmt 1               @ applications/TOUCH/gt9147.c:119:5
	b	.LBB3_3
.LBB3_3:
	.loc	1 0 5 is_stmt 0                 @ applications/TOUCH/gt9147.c:0:5
	movw	r0, #17632
	movt	r0, #22530
.Ltmp30:
	.loc	1 119 5                         @ applications/TOUCH/gt9147.c:119:5
	ldr	r1, [r0]
	orr	r1, r1, #64
	str	r1, [r0]
	ldr	r0, [r0]
	and	r0, r0, #64
	str	r0, [sp, #52]
	ldr	r0, [sp, #52]
	b	.LBB3_4
.Ltmp31:
.LBB3_4:
	.loc	1 0 5                           @ applications/TOUCH/gt9147.c:0:5
	mov.w	r0, #4096
	.loc	1 122 21 is_stmt 1              @ applications/TOUCH/gt9147.c:122:21
	str	r0, [sp, #28]                   @ 4-byte Spill
	str	r0, [sp, #60]
	movs	r0, #0
	.loc	1 123 22                        @ applications/TOUCH/gt9147.c:123:22
	str	r0, [sp, #44]                   @ 4-byte Spill
	str	r0, [sp, #64]
	movs	r0, #1
	.loc	1 124 22                        @ applications/TOUCH/gt9147.c:124:22
	str	r0, [sp, #16]                   @ 4-byte Spill
	str	r0, [sp, #68]
	movs	r0, #3
	.loc	1 125 23                        @ applications/TOUCH/gt9147.c:125:23
	str	r0, [sp, #32]                   @ 4-byte Spill
	str	r0, [sp, #72]
	movw	r0, #6144
	movt	r0, #22530
	str	r0, [sp, #40]                   @ 4-byte Spill
	add	r1, sp, #60
	.loc	1 126 5                         @ applications/TOUCH/gt9147.c:126:5
	str	r1, [sp, #36]                   @ 4-byte Spill
	bl	HAL_GPIO_Init
	ldr	r0, [sp, #16]                   @ 4-byte Reload
	ldr	r1, [sp, #36]                   @ 4-byte Reload
	movs	r2, #8
	.loc	1 129 21                        @ applications/TOUCH/gt9147.c:129:21
	str	r2, [sp, #12]                   @ 4-byte Spill
	str	r2, [sp, #60]
	.loc	1 130 22                        @ applications/TOUCH/gt9147.c:130:22
	str	r0, [sp, #64]
	movw	r0, #3072
	movt	r0, #22530
	.loc	1 131 5                         @ applications/TOUCH/gt9147.c:131:5
	str	r0, [sp, #20]                   @ 4-byte Spill
	bl	HAL_GPIO_Init
	.loc	1 132 2                         @ applications/TOUCH/gt9147.c:132:2
	bl	CT_IIC_Init
	ldr	r0, [sp, #20]                   @ 4-byte Reload
	ldr	r1, [sp, #12]                   @ 4-byte Reload
	ldr	r2, [sp, #44]                   @ 4-byte Reload
	.loc	1 133 2                         @ applications/TOUCH/gt9147.c:133:2
	bl	HAL_GPIO_WritePin
	movs	r0, #10
	.loc	1 134 2                         @ applications/TOUCH/gt9147.c:134:2
	str	r0, [sp, #24]                   @ 4-byte Spill
	bl	rt_thread_mdelay
	ldr	r1, [sp, #12]                   @ 4-byte Reload
	ldr	r2, [sp, #16]                   @ 4-byte Reload
                                        @ kill: def $r3 killed $r0
	.loc	1 135 3                         @ applications/TOUCH/gt9147.c:135:3
	ldr	r0, [sp, #20]                   @ 4-byte Reload
	bl	HAL_GPIO_WritePin
	ldr	r0, [sp, #24]                   @ 4-byte Reload
	.loc	1 136 2                         @ applications/TOUCH/gt9147.c:136:2
	bl	rt_thread_mdelay
	ldr.w	r12, [sp, #28]                  @ 4-byte Reload
	ldr	r2, [sp, #32]                   @ 4-byte Reload
	ldr	r1, [sp, #36]                   @ 4-byte Reload
	ldr	r3, [sp, #44]                   @ 4-byte Reload
                                        @ kill: def $lr killed $r0
	.loc	1 137 21                        @ applications/TOUCH/gt9147.c:137:21
	ldr	r0, [sp, #40]                   @ 4-byte Reload
	str.w	r12, [sp, #60]
	.loc	1 138 22                        @ applications/TOUCH/gt9147.c:138:22
	str	r3, [sp, #64]
	.loc	1 139 22                        @ applications/TOUCH/gt9147.c:139:22
	str	r3, [sp, #68]
	.loc	1 140 23                        @ applications/TOUCH/gt9147.c:140:23
	str	r2, [sp, #72]
	.loc	1 141 5                         @ applications/TOUCH/gt9147.c:141:5
	bl	HAL_GPIO_Init
	movs	r0, #100
	.loc	1 142 2                         @ applications/TOUCH/gt9147.c:142:2
	bl	rt_thread_mdelay
	movw	r0, #33088
	add.w	r1, sp, #82
	str	r1, [sp, #48]                   @ 4-byte Spill
	movs	r2, #4
	.loc	1 143 2                         @ applications/TOUCH/gt9147.c:143:2
	bl	GT9147_RD_Reg
	ldr	r0, [sp, #44]                   @ 4-byte Reload
	ldr	r1, [sp, #48]                   @ 4-byte Reload
	.loc	1 144 9                         @ applications/TOUCH/gt9147.c:144:9
	strb.w	r0, [sp, #86]
	.loc	1 145 2                         @ applications/TOUCH/gt9147.c:145:2
	movw	r0, :lower16:.L.str
	movt	r0, :upper16:.L.str
	bl	rt_kprintf
	ldr	r0, [sp, #48]                   @ 4-byte Reload
.Ltmp32:
	.loc	1 146 5                         @ applications/TOUCH/gt9147.c:146:5
	movw	r1, :lower16:.L.str.1
	movt	r1, :upper16:.L.str.1
	bl	rt_strcmp
.Ltmp33:
	.loc	1 146 5 is_stmt 0               @ applications/TOUCH/gt9147.c:146:5
	cbnz	r0, .LBB3_8
	b	.LBB3_5
.LBB3_5:
	.loc	1 0 5                           @ applications/TOUCH/gt9147.c:0:5
	movs	r0, #2
.Ltmp34:
	.loc	1 148 10 is_stmt 1              @ applications/TOUCH/gt9147.c:148:10
	strb.w	r0, [sp, #82]
	movw	r0, #32832
	add.w	r1, sp, #82
	str	r1, [sp, #4]                    @ 4-byte Spill
	movs	r2, #1
	.loc	1 149 3                         @ applications/TOUCH/gt9147.c:149:3
	str	r2, [sp, #8]                    @ 4-byte Spill
	bl	GT9147_WR_Reg
	ldr	r1, [sp, #4]                    @ 4-byte Reload
	ldr	r2, [sp, #8]                    @ 4-byte Reload
	movw	r0, #32839
	.loc	1 150 3                         @ applications/TOUCH/gt9147.c:150:3
	bl	GT9147_RD_Reg
.Ltmp35:
	.loc	1 151 6                         @ applications/TOUCH/gt9147.c:151:6
	ldrb.w	r0, [sp, #82]
.Ltmp36:
	.loc	1 151 6 is_stmt 0               @ applications/TOUCH/gt9147.c:151:6
	cmp	r0, #95
	bgt	.LBB3_7
	b	.LBB3_6
.LBB3_6:
.Ltmp37:
	.loc	1 153 36 is_stmt 1              @ applications/TOUCH/gt9147.c:153:36
	ldrb.w	r1, [sp, #82]
	.loc	1 153 4 is_stmt 0               @ applications/TOUCH/gt9147.c:153:4
	movw	r0, :lower16:.L.str.2
	movt	r0, :upper16:.L.str.2
	bl	rt_kprintf
	.loc	1 155 3 is_stmt 1               @ applications/TOUCH/gt9147.c:155:3
	b	.LBB3_7
.Ltmp38:
.LBB3_7:
	.loc	1 0 3 is_stmt 0                 @ applications/TOUCH/gt9147.c:0:3
	movs	r0, #10
	.loc	1 156 3 is_stmt 1               @ applications/TOUCH/gt9147.c:156:3
	bl	rt_thread_mdelay
	movs	r0, #0
	.loc	1 157 10                        @ applications/TOUCH/gt9147.c:157:10
	str	r0, [sp]                        @ 4-byte Spill
	strb.w	r0, [sp, #82]
	movw	r0, #32832
	add.w	r1, sp, #82
	movs	r2, #1
	.loc	1 158 3                         @ applications/TOUCH/gt9147.c:158:3
	bl	GT9147_WR_Reg
                                        @ kill: def $r1 killed $r0
	.loc	1 159 3                         @ applications/TOUCH/gt9147.c:159:3
	ldr	r0, [sp]                        @ 4-byte Reload
	strb.w	r0, [sp, #87]
	b	.LBB3_9
.Ltmp39:
.LBB3_8:
	.loc	1 0 3 is_stmt 0                 @ applications/TOUCH/gt9147.c:0:3
	movs	r0, #0
	.loc	1 161 2 is_stmt 1               @ applications/TOUCH/gt9147.c:161:2
	strb.w	r0, [sp, #87]
	b	.LBB3_9
.LBB3_9:
	.loc	1 162 1                         @ applications/TOUCH/gt9147.c:162:1
	ldrb.w	r0, [sp, #87]
	add	sp, #88
	pop	{r7, pc}
.Ltmp40:
.Lfunc_end3:
	.size	GT9147_Init, .Lfunc_end3-GT9147_Init
	.cfi_endproc
	.cantunwind
	.fnend
                                        @ -- End function
	.section	.text.GT9147_Scan,"ax",%progbits
	.hidden	GT9147_Scan                     @ -- Begin function GT9147_Scan
	.globl	GT9147_Scan
	.p2align	3
	.type	GT9147_Scan,%function
	.code	16                              @ @GT9147_Scan
	.thumb_func
GT9147_Scan:
.Lfunc_begin4:
	.loc	1 169 0                         @ applications/TOUCH/gt9147.c:169:0
	.fnstart
	.cfi_startproc
@ %bb.0:
	.save	{r7, lr}
	push	{r7, lr}
	.cfi_def_cfa_offset 8
	.cfi_offset lr, -4
	.cfi_offset r7, -8
	.pad	#16
	sub	sp, #16
	.cfi_def_cfa_offset 24
                                        @ kill: def $r1 killed $r0
	strb.w	r0, [sp, #15]
	movs	r0, #0
.Ltmp41:
	.loc	1 171 10 prologue_end           @ applications/TOUCH/gt9147.c:171:10
	strb.w	r0, [sp, #10]
	.loc	1 172 10                        @ applications/TOUCH/gt9147.c:172:10
	strb.w	r0, [sp, #9]
	movw	r0, #33102
	add.w	r1, sp, #15
	movs	r2, #1
.Ltmp42:
	.loc	1 179 3                         @ applications/TOUCH/gt9147.c:179:3
	bl	GT9147_RD_Reg
.Ltmp43:
	.loc	1 180 7                         @ applications/TOUCH/gt9147.c:180:7
	ldrb.w	r0, [sp, #15]
	.loc	1 180 16 is_stmt 0              @ applications/TOUCH/gt9147.c:180:16
	lsls	r0, r0, #24
	cmp	r0, #0
	bpl	.LBB4_3
	b	.LBB4_1
.LBB4_1:
	.loc	1 180 20                        @ applications/TOUCH/gt9147.c:180:20
	ldrb.w	r0, [sp, #15]
	.loc	1 180 24                        @ applications/TOUCH/gt9147.c:180:24
	and	r0, r0, #15
.Ltmp44:
	.loc	1 180 7                         @ applications/TOUCH/gt9147.c:180:7
	cmp	r0, #5
	bgt	.LBB4_3
	b	.LBB4_2
.LBB4_2:
	.loc	1 0 7                           @ applications/TOUCH/gt9147.c:0:7
	movs	r0, #0
.Ltmp45:
	.loc	1 182 5 is_stmt 1               @ applications/TOUCH/gt9147.c:182:5
	strb.w	r0, [sp, #10]
	movw	r0, #33102
	add.w	r1, sp, #10
	movs	r2, #1
	.loc	1 183 4                         @ applications/TOUCH/gt9147.c:183:4
	bl	GT9147_WR_Reg
	.loc	1 184 3                         @ applications/TOUCH/gt9147.c:184:3
	b	.LBB4_3
.Ltmp46:
.LBB4_3:
	.loc	1 185 7                         @ applications/TOUCH/gt9147.c:185:7
	ldrb.w	r0, [sp, #15]
	.loc	1 185 16 is_stmt 0              @ applications/TOUCH/gt9147.c:185:16
	lsls	r0, r0, #28
	cmp	r0, #0
	beq.w	.LBB4_22
	b	.LBB4_4
.LBB4_4:
	.loc	1 185 20                        @ applications/TOUCH/gt9147.c:185:20
	ldrb.w	r0, [sp, #15]
	.loc	1 185 24                        @ applications/TOUCH/gt9147.c:185:24
	and	r0, r0, #15
.Ltmp47:
	.loc	1 185 6                         @ applications/TOUCH/gt9147.c:185:6
	cmp	r0, #5
	bgt.w	.LBB4_22
	b	.LBB4_5
.LBB4_5:
.Ltmp48:
	.loc	1 187 18 is_stmt 1              @ applications/TOUCH/gt9147.c:187:18
	ldrb.w	r0, [sp, #15]
	.loc	1 187 22 is_stmt 0              @ applications/TOUCH/gt9147.c:187:22
	and	r1, r0, #15
	movw	r0, #65535
	.loc	1 187 15                        @ applications/TOUCH/gt9147.c:187:15
	lsls	r0, r1
	.loc	1 187 8                         @ applications/TOUCH/gt9147.c:187:8
	strh.w	r0, [sp, #6]
	.loc	1 188 19 is_stmt 1              @ applications/TOUCH/gt9147.c:188:19
	movw	r1, :lower16:tp_dev
	movt	r1, :upper16:tp_dev
	ldrh	r0, [r1, #52]
	.loc	1 188 11 is_stmt 0              @ applications/TOUCH/gt9147.c:188:11
	strh.w	r0, [sp, #4]
	.loc	1 189 17 is_stmt 1              @ applications/TOUCH/gt9147.c:189:17
	ldrh.w	r2, [sp, #6]
	mov.w	r0, #49152
	.loc	1 189 35 is_stmt 0              @ applications/TOUCH/gt9147.c:189:35
	orn	r0, r0, r2
	.loc	1 189 14                        @ applications/TOUCH/gt9147.c:189:14
	strh	r0, [r1, #52]
	.loc	1 190 16 is_stmt 1              @ applications/TOUCH/gt9147.c:190:16
	ldrh	r0, [r1, #12]
	.loc	1 190 15 is_stmt 0              @ applications/TOUCH/gt9147.c:190:15
	strh	r0, [r1, #20]
	.loc	1 191 16 is_stmt 1              @ applications/TOUCH/gt9147.c:191:16
	ldrh	r0, [r1, #32]
	.loc	1 191 15 is_stmt 0              @ applications/TOUCH/gt9147.c:191:15
	strh	r0, [r1, #40]
	movs	r0, #0
.Ltmp49:
	.loc	1 192 9 is_stmt 1               @ applications/TOUCH/gt9147.c:192:9
	strb.w	r0, [sp, #10]
	.loc	1 192 8 is_stmt 0               @ applications/TOUCH/gt9147.c:192:8
	b	.LBB4_6
.LBB4_6:                                @ =>This Inner Loop Header: Depth=1
.Ltmp50:
	.loc	1 192 12                        @ applications/TOUCH/gt9147.c:192:12
	ldrb.w	r0, [sp, #10]
.Ltmp51:
	.loc	1 192 4                         @ applications/TOUCH/gt9147.c:192:4
	cmp	r0, #0
	bgt	.LBB4_14
	b	.LBB4_7
.LBB4_7:                                @   in Loop: Header=BB4_6 Depth=1
.Ltmp52:
	.loc	1 194 15 is_stmt 1              @ applications/TOUCH/gt9147.c:194:15
	movw	r0, :lower16:tp_dev
	movt	r0, :upper16:tp_dev
	ldrh	r0, [r0, #52]
	.loc	1 194 23 is_stmt 0              @ applications/TOUCH/gt9147.c:194:23
	ldrb.w	r1, [sp, #10]
.Ltmp53:
	.loc	1 194 8                         @ applications/TOUCH/gt9147.c:194:8
	lsrs	r0, r1
	lsls	r0, r0, #31
	cmp	r0, #0
	beq	.LBB4_12
	b	.LBB4_8
.LBB4_8:                                @   in Loop: Header=BB4_6 Depth=1
.Ltmp54:
	.loc	1 196 35 is_stmt 1              @ applications/TOUCH/gt9147.c:196:35
	ldrb.w	r1, [sp, #10]
	.loc	1 196 20 is_stmt 0              @ applications/TOUCH/gt9147.c:196:20
	movw	r0, :lower16:GT9147_TPX_TBL
	movt	r0, :upper16:GT9147_TPX_TBL
	ldrh.w	r0, [r0, r1, lsl #1]
	add.w	r1, sp, #11
	movs	r2, #4
	.loc	1 196 6                         @ applications/TOUCH/gt9147.c:196:6
	bl	GT9147_RD_Reg
.Ltmp55:
	.loc	1 198 35 is_stmt 1              @ applications/TOUCH/gt9147.c:198:35
	movw	r0, :lower16:tp_dev
	movt	r0, :upper16:tp_dev
	.loc	1 198 28 is_stmt 0              @ applications/TOUCH/gt9147.c:198:28
	ldrb.w	r0, [r0, #68]
.Ltmp56:
	.loc	1 198 28                        @ applications/TOUCH/gt9147.c:198:28
	lsls	r0, r0, #31
	cbz	r0, .LBB4_10
	b	.LBB4_9
.LBB4_9:                                @   in Loop: Header=BB4_6 Depth=1
.Ltmp57:
	.loc	1 200 64 is_stmt 1              @ applications/TOUCH/gt9147.c:200:64
	ldrb.w	r0, [sp, #11]
	.loc	1 200 43 is_stmt 0              @ applications/TOUCH/gt9147.c:200:43
	ldrb.w	r1, [sp, #12]
	.loc	1 200 63                        @ applications/TOUCH/gt9147.c:200:63
	orr.w	r0, r0, r1, lsl #8
	.loc	1 200 38                        @ applications/TOUCH/gt9147.c:200:38
	ldrb.w	r2, [sp, #10]
	.loc	1 200 29                        @ applications/TOUCH/gt9147.c:200:29
	movw	r1, :lower16:tp_dev
	movt	r1, :upper16:tp_dev
	add.w	r2, r1, r2, lsl #1
	.loc	1 200 40                        @ applications/TOUCH/gt9147.c:200:40
	strh	r0, [r2, #12]
	.loc	1 201 64 is_stmt 1              @ applications/TOUCH/gt9147.c:201:64
	ldrb.w	r0, [sp, #13]
	.loc	1 201 43 is_stmt 0              @ applications/TOUCH/gt9147.c:201:43
	ldrb.w	r2, [sp, #14]
	.loc	1 201 63                        @ applications/TOUCH/gt9147.c:201:63
	orr.w	r0, r0, r2, lsl #8
	.loc	1 201 38                        @ applications/TOUCH/gt9147.c:201:38
	ldrb.w	r2, [sp, #10]
	.loc	1 201 29                        @ applications/TOUCH/gt9147.c:201:29
	add.w	r1, r1, r2, lsl #1
	.loc	1 201 40                        @ applications/TOUCH/gt9147.c:201:40
	strh	r0, [r1, #32]
	.loc	1 202 25 is_stmt 1              @ applications/TOUCH/gt9147.c:202:25
	b	.LBB4_11
.Ltmp58:
.LBB4_10:                               @   in Loop: Header=BB4_6 Depth=1
	.loc	1 204 63                        @ applications/TOUCH/gt9147.c:204:63
	ldrb.w	r0, [sp, #11]
	.loc	1 204 42 is_stmt 0              @ applications/TOUCH/gt9147.c:204:42
	ldrb.w	r1, [sp, #12]
	.loc	1 204 62                        @ applications/TOUCH/gt9147.c:204:62
	orr.w	r0, r0, r1, lsl #8
	.loc	1 204 38                        @ applications/TOUCH/gt9147.c:204:38
	ldrb.w	r2, [sp, #10]
	.loc	1 204 29                        @ applications/TOUCH/gt9147.c:204:29
	movw	r1, :lower16:tp_dev
	movt	r1, :upper16:tp_dev
	add.w	r2, r1, r2, lsl #1
	.loc	1 204 40                        @ applications/TOUCH/gt9147.c:204:40
	strh	r0, [r2, #32]
	.loc	1 205 68 is_stmt 1              @ applications/TOUCH/gt9147.c:205:68
	ldrb.w	r0, [sp, #13]
	.loc	1 205 47 is_stmt 0              @ applications/TOUCH/gt9147.c:205:47
	ldrb.w	r2, [sp, #14]
	.loc	1 205 67                        @ applications/TOUCH/gt9147.c:205:67
	orr.w	r0, r0, r2, lsl #8
	.loc	1 205 44                        @ applications/TOUCH/gt9147.c:205:44
	rsb.w	r0, r0, #272
	.loc	1 205 38                        @ applications/TOUCH/gt9147.c:205:38
	ldrb.w	r2, [sp, #10]
	.loc	1 205 29                        @ applications/TOUCH/gt9147.c:205:29
	add.w	r1, r1, r2, lsl #1
	.loc	1 205 40                        @ applications/TOUCH/gt9147.c:205:40
	strh	r0, [r1, #12]
	b	.LBB4_11
.Ltmp59:
.LBB4_11:                               @   in Loop: Header=BB4_6 Depth=1
	.loc	1 209 5 is_stmt 1               @ applications/TOUCH/gt9147.c:209:5
	b	.LBB4_12
.Ltmp60:
.LBB4_12:                               @   in Loop: Header=BB4_6 Depth=1
	.loc	1 210 4                         @ applications/TOUCH/gt9147.c:210:4
	b	.LBB4_13
.Ltmp61:
.LBB4_13:                               @   in Loop: Header=BB4_6 Depth=1
	.loc	1 192 17                        @ applications/TOUCH/gt9147.c:192:17
	ldrb.w	r0, [sp, #10]
	adds	r0, #1
	strb.w	r0, [sp, #10]
	.loc	1 192 4 is_stmt 0               @ applications/TOUCH/gt9147.c:192:4
	b	.LBB4_6
.Ltmp62:
.LBB4_14:
	.loc	1 0 4                           @ applications/TOUCH/gt9147.c:0:4
	movs	r0, #1
	.loc	1 211 7 is_stmt 1               @ applications/TOUCH/gt9147.c:211:7
	strb.w	r0, [sp, #9]
.Ltmp63:
	.loc	1 212 7                         @ applications/TOUCH/gt9147.c:212:7
	movw	r0, :lower16:tp_dev
	movt	r0, :upper16:tp_dev
	ldrh	r0, [r0, #12]
	.loc	1 212 28 is_stmt 0              @ applications/TOUCH/gt9147.c:212:28
	cmp.w	r0, #480
	bgt	.LBB4_16
	b	.LBB4_15
.LBB4_15:
	.loc	1 212 30                        @ applications/TOUCH/gt9147.c:212:30
	movw	r0, :lower16:tp_dev
	movt	r0, :upper16:tp_dev
	ldrh	r0, [r0, #32]
.Ltmp64:
	.loc	1 212 7                         @ applications/TOUCH/gt9147.c:212:7
	cmp.w	r0, #272
	ble	.LBB4_20
	b	.LBB4_16
.LBB4_16:
.Ltmp65:
	.loc	1 214 9 is_stmt 1               @ applications/TOUCH/gt9147.c:214:9
	ldrb.w	r0, [sp, #15]
	.loc	1 214 13 is_stmt 0              @ applications/TOUCH/gt9147.c:214:13
	and	r0, r0, #15
.Ltmp66:
	.loc	1 214 8                         @ applications/TOUCH/gt9147.c:214:8
	cmp	r0, #2
	blt	.LBB4_18
	b	.LBB4_17
.LBB4_17:
.Ltmp67:
	.loc	1 216 18 is_stmt 1              @ applications/TOUCH/gt9147.c:216:18
	movw	r1, :lower16:tp_dev
	movt	r1, :upper16:tp_dev
	ldrh	r0, [r1, #14]
	.loc	1 216 17 is_stmt 0              @ applications/TOUCH/gt9147.c:216:17
	strh	r0, [r1, #12]
	.loc	1 217 18 is_stmt 1              @ applications/TOUCH/gt9147.c:217:18
	ldrh	r0, [r1, #34]
	.loc	1 217 17 is_stmt 0              @ applications/TOUCH/gt9147.c:217:17
	strh	r0, [r1, #32]
	.loc	1 218 7 is_stmt 1               @ applications/TOUCH/gt9147.c:218:7
	movw	r1, :lower16:GT9147_Scan.t
	movt	r1, :upper16:GT9147_Scan.t
	movs	r0, #0
	strb	r0, [r1]
	.loc	1 219 5                         @ applications/TOUCH/gt9147.c:219:5
	b	.LBB4_19
.Ltmp68:
.LBB4_18:
	.loc	1 221 18                        @ applications/TOUCH/gt9147.c:221:18
	movw	r1, :lower16:tp_dev
	movt	r1, :upper16:tp_dev
	ldrh	r0, [r1, #20]
	.loc	1 221 17 is_stmt 0              @ applications/TOUCH/gt9147.c:221:17
	strh	r0, [r1, #12]
	.loc	1 222 18 is_stmt 1              @ applications/TOUCH/gt9147.c:222:18
	ldrh	r0, [r1, #40]
	.loc	1 222 17 is_stmt 0              @ applications/TOUCH/gt9147.c:222:17
	strh	r0, [r1, #32]
	movs	r0, #128
	.loc	1 223 10 is_stmt 1              @ applications/TOUCH/gt9147.c:223:10
	strb.w	r0, [sp, #15]
	.loc	1 224 17                        @ applications/TOUCH/gt9147.c:224:17
	ldrh.w	r0, [sp, #4]
	.loc	1 224 16 is_stmt 0              @ applications/TOUCH/gt9147.c:224:16
	strh	r0, [r1, #52]
	b	.LBB4_19
.Ltmp69:
.LBB4_19:
	.loc	1 226 4 is_stmt 1               @ applications/TOUCH/gt9147.c:226:4
	b	.LBB4_21
.Ltmp70:
.LBB4_20:
	.loc	1 226 11 is_stmt 0              @ applications/TOUCH/gt9147.c:226:11
	movw	r1, :lower16:GT9147_Scan.t
	movt	r1, :upper16:GT9147_Scan.t
	movs	r0, #0
	strb	r0, [r1]
	b	.LBB4_21
.Ltmp71:
.LBB4_21:
	.loc	1 227 3 is_stmt 1               @ applications/TOUCH/gt9147.c:227:3
	b	.LBB4_22
.Ltmp72:
.LBB4_22:
	.loc	1 229 6                         @ applications/TOUCH/gt9147.c:229:6
	ldrb.w	r0, [sp, #15]
	.loc	1 229 10 is_stmt 0              @ applications/TOUCH/gt9147.c:229:10
	and	r0, r0, #143
.Ltmp73:
	.loc	1 229 5                         @ applications/TOUCH/gt9147.c:229:5
	cmp	r0, #128
	bne	.LBB4_27
	b	.LBB4_23
.LBB4_23:
.Ltmp74:
	.loc	1 231 13 is_stmt 1              @ applications/TOUCH/gt9147.c:231:13
	movw	r0, :lower16:tp_dev
	movt	r0, :upper16:tp_dev
	.loc	1 231 6 is_stmt 0               @ applications/TOUCH/gt9147.c:231:6
	ldrh	r0, [r0, #52]
.Ltmp75:
	.loc	1 231 6                         @ applications/TOUCH/gt9147.c:231:6
	lsls	r0, r0, #16
	cmp	r0, #0
	bpl	.LBB4_25
	b	.LBB4_24
.LBB4_24:
.Ltmp76:
	.loc	1 233 14 is_stmt 1              @ applications/TOUCH/gt9147.c:233:14
	movw	r1, :lower16:tp_dev
	movt	r1, :upper16:tp_dev
	ldrh	r0, [r1, #52]
	bfc	r0, #15, #17
	strh	r0, [r1, #52]
	.loc	1 234 3                         @ applications/TOUCH/gt9147.c:234:3
	b	.LBB4_26
.Ltmp77:
.LBB4_25:
	.loc	1 236 15                        @ applications/TOUCH/gt9147.c:236:15
	movw	r1, :lower16:tp_dev
	movt	r1, :upper16:tp_dev
	movw	r0, #65535
	strh	r0, [r1, #12]
	.loc	1 237 15                        @ applications/TOUCH/gt9147.c:237:15
	strh	r0, [r1, #32]
	.loc	1 238 14                        @ applications/TOUCH/gt9147.c:238:14
	ldrh	r0, [r1, #52]
	and	r0, r0, #57344
	strh	r0, [r1, #52]
	b	.LBB4_26
.Ltmp78:
.LBB4_26:
	.loc	1 240 2                         @ applications/TOUCH/gt9147.c:240:2
	b	.LBB4_27
.Ltmp79:
.LBB4_27:
	.loc	1 241 5                         @ applications/TOUCH/gt9147.c:241:5
	movw	r0, :lower16:GT9147_Scan.t
	movt	r0, :upper16:GT9147_Scan.t
	ldrb	r0, [r0]
.Ltmp80:
	.loc	1 241 5 is_stmt 0               @ applications/TOUCH/gt9147.c:241:5
	cmp	r0, #241
	blt	.LBB4_29
	b	.LBB4_28
.LBB4_28:
.Ltmp81:
	.loc	1 241 12                        @ applications/TOUCH/gt9147.c:241:12
	movw	r1, :lower16:GT9147_Scan.t
	movt	r1, :upper16:GT9147_Scan.t
	movs	r0, #10
	strb	r0, [r1]
	.loc	1 241 11                        @ applications/TOUCH/gt9147.c:241:11
	b	.LBB4_29
.Ltmp82:
.LBB4_29:
	.loc	1 242 9 is_stmt 1               @ applications/TOUCH/gt9147.c:242:9
	ldrb.w	r0, [sp, #9]
	.loc	1 242 2 is_stmt 0               @ applications/TOUCH/gt9147.c:242:2
	add	sp, #16
	pop	{r7, pc}
.Ltmp83:
.Lfunc_end4:
	.size	GT9147_Scan, .Lfunc_end4-GT9147_Scan
	.cfi_endproc
	.cantunwind
	.fnend
                                        @ -- End function
	.hidden	GT9147_CFG_TBL                  @ @GT9147_CFG_TBL
	.type	GT9147_CFG_TBL,%object
	.section	.rodata.GT9147_CFG_TBL,"a",%progbits
	.globl	GT9147_CFG_TBL
GT9147_CFG_TBL:
	.ascii	"`\340\001 \003\0055\000\002\b\036\bP<\017\005\000\000\377gP\000\000\030\032\036\024\211(\n0.\273\n\003\000\000\0023\035\000\000\000\000\000\000\0002\000\000*\034Z\224\305\002\007\000\000\000\265\037\000\220(\000w2\000b?\000RP\000R\000\000\000\000\000\000\000\000\000\000\000\000\000\000\000\000\000\000\000\000\000\000\000\017\017\003\006\020B\370\017\024\000\000\000\000\032\030\026\024\022\020\016\f\n\b\000\000\000\000\000\000\000\000\000\000\000\000\000\000\000\000\000\000\000\000)($\" \037\036\035\016\f\n\b\006\005\004\002\000\377\000\000\000\000\000\000\000\000\000\000\000\377\377\377\377\377\377\377\377\377\377\377\377\377"
	.size	GT9147_CFG_TBL, 184

	.type	.L.str,%object                  @ @.str
	.section	.rodata.str1.1,"aMS",%progbits,1
.L.str:
	.asciz	"CTP ID:%s\r\n"
	.size	.L.str, 12

	.type	.L.str.1,%object                @ @.str.1
.L.str.1:
	.asciz	"9147"
	.size	.L.str.1, 5

	.type	.L.str.2,%object                @ @.str.2
.L.str.2:
	.asciz	"Default Ver:%d\r\n"
	.size	.L.str.2, 17

	.hidden	GT9147_TPX_TBL                  @ @GT9147_TPX_TBL
	.type	GT9147_TPX_TBL,%object
	.section	.rodata.GT9147_TPX_TBL,"a",%progbits
	.globl	GT9147_TPX_TBL
	.p2align	1
GT9147_TPX_TBL:
	.short	33104                           @ 0x8150
	.short	33112                           @ 0x8158
	.short	33120                           @ 0x8160
	.short	33128                           @ 0x8168
	.short	33136                           @ 0x8170
	.size	GT9147_TPX_TBL, 10

	.type	GT9147_Scan.t,%object           @ @GT9147_Scan.t
	.section	.bss.GT9147_Scan.t,"aw",%nobits
GT9147_Scan.t:
	.byte	0                               @ 0x0
	.size	GT9147_Scan.t, 1

	.section	".note.GNU-stack","",%progbits
	.eabi_attribute	30, 6	@ Tag_ABI_optimization_goals
	.ARM_attribute	16, 1	@ Tag_AV_eba