	.text
	.syntax unified
	.eabi_attribute	67, "2.09"	@ Tag_conformance
	.cpu	cortex-m7
	.eabi_attribute	6, 13	@ Tag_CPU_arch
	.eabi_attribute	7, 77	@ Tag_CPU_arch_profile
	.eabi_attribute	8, 0	@ Tag_ARM_ISA_use
	.eabi_attribute	9, 2	@ Tag_THUMB_ISA_use
	.fpu	fpv5-d16
	.eabi_attribute	36, 1	@ Tag_FP_HP_extension
	.eabi_attribute	34, 1	@ Tag_CPU_unaligned_access
	.eabi_attribute	17, 1	@ Tag_ABI_PCS_GOT_use
	.eabi_attribute	20, 2	@ Tag_ABI_FP_denormal
	.eabi_attribute	21, 0	@ Tag_ABI_FP_exceptions
	.eabi_attribute	23, 1	@ Tag_ABI_FP_number_model
	.eabi_attribute	24, 1	@ Tag_ABI_align_needed
	.eabi_attribute	25, 1	@ Tag_ABI_align_preserved
	.eabi_attribute	28, 1	@ Tag_ABI_VFP_args
	.eabi_attribute	38, 1	@ Tag_ABI_FP_16bit_format
	.eabi_attribute	18, 2	@ Tag_ABI_PCS_wchar_t
	.eabi_attribute	26, 1	@ Tag_ABI_enum_size
	.eabi_attribute	14, 0	@ Tag_ABI_PCS_R9_use
	.file	"i2c-bit-ops.c"
	.file	1 "E:\\Smart-access-control\\Hardware\\CODE" "rt-thread/include\\rtdef.h"
	.file	2 "E:\\Smart-access-control\\Hardware\\CODE" "rt-thread/components/drivers/include/drivers/i2c.h"
	.file	3 "E:\\Smart-access-control\\Hardware\\CODE" "rt-thread/components/drivers/i2c/i2c-bit-ops.c"
	.file	4 "E:\\Smart-access-control\\Hardware\\CODE" "rt-thread/components/drivers/include/drivers/i2c-bit-ops.h"
	.section	.text.rt_i2c_bit_add_bus,"ax",%progbits
	.hidden	rt_i2c_bit_add_bus              @ -- Begin function rt_i2c_bit_add_bus
	.globl	rt_i2c_bit_add_bus
	.p2align	3
	.type	rt_i2c_bit_add_bus,%function
	.code	16                              @ @rt_i2c_bit_add_bus
	.thumb_func
rt_i2c_bit_add_bus:
.Lfunc_begin0:
	.loc	3 441 0                         @ rt-thread/components/drivers/i2c/i2c-bit-ops.c:441:0
	.fnstart
	.cfi_sections .debug_frame
	.cfi_startproc
@ %bb.0:
	@DEBUG_VALUE: rt_i2c_bit_add_bus:bus <- $r0
	@DEBUG_VALUE: rt_i2c_bit_add_bus:bus_name <- $r1
	.save	{r7, lr}
	push	{r7, lr}
	.cfi_def_cfa_offset 8
	.cfi_offset lr, -4
	.cfi_offset r7, -8
.Ltmp0:
	.loc	3 442 14 prologue_end           @ rt-thread/components/drivers/i2c/i2c-bit-ops.c:442:14
	movw	r2, :lower16:i2c_bit_bus_ops
	movt	r2, :upper16:i2c_bit_bus_ops
	@DEBUG_VALUE: rt_i2c_bit_add_bus:bus_name <- $r1
	@DEBUG_VALUE: rt_i2c_bit_add_bus:bus <- $r0
	str	r2, [r0, #80]
	@DEBUG_VALUE: rt_i2c_bit_add_bus:bus_name <- $r1
	.loc	3 444 12                        @ rt-thread/components/drivers/i2c/i2c-bit-ops.c:444:12
	bl	rt_i2c_bus_device_register
.Ltmp1:
	@DEBUG_VALUE: rt_i2c_bit_add_bus:bus_name <- [DW_OP_LLVM_entry_value 1] $r1
	@DEBUG_VALUE: rt_i2c_bit_add_bus:bus <- [DW_OP_LLVM_entry_value 1] $r0
	.loc	3 444 5 is_stmt 0               @ rt-thread/components/drivers/i2c/i2c-bit-ops.c:444:5
	pop	{r7, pc}
.Ltmp2:
.Lfunc_end0:
	.size	rt_i2c_bit_add_bus, .Lfunc_end0-rt_i2c_bit_add_bus
	.cfi_endproc
	.cantunwind
	.fnend
                                        @ -- End function
	.section	.text.i2c_bit_xfer,"ax",%progbits
	.p2align	3                               @ -- Begin function i2c_bit_xfer
	.type	i2c_bit_xfer,%function
	.code	16                              @ @i2c_bit_xfer
	.thumb_func
i2c_bit_xfer:
.Lfunc_begin1:
	.loc	3 372 0 is_stmt 1               @ rt-thread/components/drivers/i2c/i2c-bit-ops.c:372:0
	.fnstart
	.cfi_startproc
@ %bb.0:
	@DEBUG_VALUE: i2c_bit_xfer:bus <- $r0
	@DEBUG_VALUE: i2c_bit_xfer:msgs <- $r1
	@DEBUG_VALUE: i2c_bit_xfer:num <- $r2
	.save	{r4, r5, r6, r7, r8, r9, lr}
	push.w	{r4, r5, r6, r7, r8, r9, lr}
	.cfi_def_cfa_offset 28
	.cfi_offset lr, -4
	.cfi_offset r9, -8
	.cfi_offset r8, -12
	.cfi_offset r7, -16
	.cfi_offset r6, -20
	.cfi_offset r5, -24
	.cfi_offset r4, -28
	.pad	#4
	sub	sp, #4
	.cfi_def_cfa_offset 32
.Ltmp3:
	.loc	3 374 64 prologue_end           @ rt-thread/components/drivers/i2c/i2c-bit-ops.c:374:64
	ldr.w	r8, [r0, #132]
.Ltmp4:
	@DEBUG_VALUE: i2c_bit_xfer:ops <- $r8
	.loc	3 0 64 is_stmt 0                @ rt-thread/components/drivers/i2c/i2c-bit-ops.c:0:64
	mov	r7, r0
.Ltmp5:
	@DEBUG_VALUE: i2c_bit_xfer:bus <- $r7
	@DEBUG_VALUE: i2c_bit_xfer:num <- $r9
	@DEBUG_VALUE: i2c_bit_xfer:msgs <- $r6
	@DEBUG_VALUE: i2c_bit_xfer:bus <- $r7
	.loc	3 379 5 is_stmt 1               @ rt-thread/components/drivers/i2c/i2c-bit-ops.c:379:5
	mov	r0, r8
	mov	r9, r2
.Ltmp6:
	.loc	3 0 5 is_stmt 0                 @ rt-thread/components/drivers/i2c/i2c-bit-ops.c:0:5
	mov	r6, r1
.Ltmp7:
	.loc	3 379 5                         @ rt-thread/components/drivers/i2c/i2c-bit-ops.c:379:5
	bl	i2c_start
.Ltmp8:
	@DEBUG_VALUE: i2c_bit_xfer:i <- 0
	.loc	3 380 5 is_stmt 1               @ rt-thread/components/drivers/i2c/i2c-bit-ops.c:380:5
	cmp.w	r9, #0
	beq	.LBB1_12
.Ltmp9:
@ %bb.1:
	@DEBUG_VALUE: i2c_bit_xfer:ops <- $r8
	@DEBUG_VALUE: i2c_bit_xfer:bus <- $r7
	@DEBUG_VALUE: i2c_bit_xfer:i <- 0
	.loc	3 0 5 is_stmt 0                 @ rt-thread/components/drivers/i2c/i2c-bit-ops.c:0:5
	movs	r4, #0
	b	.LBB1_4
.Ltmp10:
	.p2align	2
.LBB1_2:                                @   in Loop: Header=BB1_4 Depth=1
	@DEBUG_VALUE: i2c_bit_xfer:ops <- $r8
	@DEBUG_VALUE: i2c_bit_xfer:bus <- $r7
	@DEBUG_VALUE: i2c_bit_xfer:i <- $r4
	.loc	3 400 19 is_stmt 1              @ rt-thread/components/drivers/i2c/i2c-bit-ops.c:400:19
	mov	r0, r7
	mov	r1, r6
	bl	i2c_recv_bytes
.Ltmp11:
	.loc	3 403 28                        @ rt-thread/components/drivers/i2c/i2c-bit-ops.c:403:28
	ldrh	r1, [r6, #4]
.Ltmp12:
	@DEBUG_VALUE: i2c_bit_xfer:ret <- $r0
	.loc	3 403 17 is_stmt 0              @ rt-thread/components/drivers/i2c/i2c-bit-ops.c:403:17
	cmp	r0, r1
	blt	.LBB1_13
.Ltmp13:
.LBB1_3:                                @   in Loop: Header=BB1_4 Depth=1
	@DEBUG_VALUE: i2c_bit_xfer:ops <- $r8
	@DEBUG_VALUE: i2c_bit_xfer:bus <- $r7
	@DEBUG_VALUE: i2c_bit_xfer:i <- $r4
	@DEBUG_VALUE: i2c_bit_xfer:ret <- $r0
	.loc	3 380 27 is_stmt 1              @ rt-thread/components/drivers/i2c/i2c-bit-ops.c:380:27
	adds	r4, #1
.Ltmp14:
	@DEBUG_VALUE: i2c_bit_xfer:i <- $r4
	.loc	3 380 19 is_stmt 0              @ rt-thread/components/drivers/i2c/i2c-bit-ops.c:380:19
	adds	r6, #12
.Ltmp15:
	.loc	3 380 5                         @ rt-thread/components/drivers/i2c/i2c-bit-ops.c:380:5
	cmp	r9, r4
	beq	.LBB1_15
.Ltmp16:
.LBB1_4:                                @ =>This Inner Loop Header: Depth=1
	@DEBUG_VALUE: i2c_bit_xfer:ops <- $r8
	@DEBUG_VALUE: i2c_bit_xfer:bus <- $r7
	@DEBUG_VALUE: i2c_bit_xfer:i <- $r4
	@DEBUG_VALUE: i2c_bit_xfer:msg <- undef
	.loc	3 383 28 is_stmt 1              @ rt-thread/components/drivers/i2c/i2c-bit-ops.c:383:28
	ldrh	r5, [r6, #2]
.Ltmp17:
	@DEBUG_VALUE: i2c_bit_xfer:ignore_nack <- undef
	.loc	3 384 13                        @ rt-thread/components/drivers/i2c/i2c-bit-ops.c:384:13
	lsls	r0, r5, #27
	bmi	.LBB1_9
.Ltmp18:
@ %bb.5:                                @   in Loop: Header=BB1_4 Depth=1
	@DEBUG_VALUE: i2c_bit_xfer:ops <- $r8
	@DEBUG_VALUE: i2c_bit_xfer:bus <- $r7
	@DEBUG_VALUE: i2c_bit_xfer:i <- $r4
	@DEBUG_VALUE: i2c_bit_xfer:ignore_nack <- undef
	.loc	3 386 17                        @ rt-thread/components/drivers/i2c/i2c-bit-ops.c:386:17
	cbz	r4, .LBB1_7
.Ltmp19:
@ %bb.6:                                @   in Loop: Header=BB1_4 Depth=1
	@DEBUG_VALUE: i2c_bit_xfer:ops <- $r8
	@DEBUG_VALUE: i2c_bit_xfer:bus <- $r7
	@DEBUG_VALUE: i2c_bit_xfer:i <- $r4
	.loc	3 388 17                        @ rt-thread/components/drivers/i2c/i2c-bit-ops.c:388:17
	mov	r0, r8
	bl	i2c_restart
.Ltmp20:
.LBB1_7:                                @   in Loop: Header=BB1_4 Depth=1
	@DEBUG_VALUE: i2c_bit_xfer:ops <- $r8
	@DEBUG_VALUE: i2c_bit_xfer:bus <- $r7
	@DEBUG_VALUE: i2c_bit_xfer:i <- $r4
	.loc	3 390 19                        @ rt-thread/components/drivers/i2c/i2c-bit-ops.c:390:19
	mov	r0, r7
	mov	r1, r6
.Ltmp21:
	.loc	3 0 0 is_stmt 0                 @ rt-thread/components/drivers/i2c/i2c-bit-ops.c:0:0
	and	r5, r5, #32
.Ltmp22:
	@DEBUG_VALUE: i2c_bit_xfer:ignore_nack <- $r5
	.loc	3 390 19                        @ rt-thread/components/drivers/i2c/i2c-bit-ops.c:390:19
	bl	i2c_bit_send_address
.Ltmp23:
	@DEBUG_VALUE: i2c_bit_xfer:ret <- $r0
	.loc	3 391 33 is_stmt 1              @ rt-thread/components/drivers/i2c/i2c-bit-ops.c:391:33
	cbnz	r5, .LBB1_9
.Ltmp24:
@ %bb.8:                                @   in Loop: Header=BB1_4 Depth=1
	@DEBUG_VALUE: i2c_bit_xfer:ops <- $r8
	@DEBUG_VALUE: i2c_bit_xfer:bus <- $r7
	@DEBUG_VALUE: i2c_bit_xfer:ignore_nack <- $r5
	@DEBUG_VALUE: i2c_bit_xfer:i <- $r4
	@DEBUG_VALUE: i2c_bit_xfer:ret <- $r0
	cbnz	r0, .LBB1_14
.Ltmp25:
.LBB1_9:                                @   in Loop: Header=BB1_4 Depth=1
	@DEBUG_VALUE: i2c_bit_xfer:ops <- $r8
	@DEBUG_VALUE: i2c_bit_xfer:bus <- $r7
	@DEBUG_VALUE: i2c_bit_xfer:i <- $r4
	.loc	3 398 18                        @ rt-thread/components/drivers/i2c/i2c-bit-ops.c:398:18
	ldrh	r0, [r6, #2]
.Ltmp26:
	.loc	3 398 13 is_stmt 0              @ rt-thread/components/drivers/i2c/i2c-bit-ops.c:398:13
	lsls	r0, r0, #31
	bne	.LBB1_2
.Ltmp27:
@ %bb.10:                               @   in Loop: Header=BB1_4 Depth=1
	@DEBUG_VALUE: i2c_bit_xfer:ops <- $r8
	@DEBUG_VALUE: i2c_bit_xfer:bus <- $r7
	@DEBUG_VALUE: i2c_bit_xfer:i <- $r4
	.loc	3 412 19 is_stmt 1              @ rt-thread/components/drivers/i2c/i2c-bit-ops.c:412:19
	mov	r0, r7
	mov	r1, r6
	bl	i2c_send_bytes
.Ltmp28:
	.loc	3 415 28                        @ rt-thread/components/drivers/i2c/i2c-bit-ops.c:415:28
	ldrh	r1, [r6, #4]
.Ltmp29:
	@DEBUG_VALUE: i2c_bit_xfer:ret <- $r0
	.loc	3 415 17 is_stmt 0              @ rt-thread/components/drivers/i2c/i2c-bit-ops.c:415:17
	cmp	r0, r1
	bge	.LBB1_3
.Ltmp30:
@ %bb.11:
	@DEBUG_VALUE: i2c_bit_xfer:ops <- $r8
	@DEBUG_VALUE: i2c_bit_xfer:bus <- $r7
	@DEBUG_VALUE: i2c_bit_xfer:i <- $r4
	@DEBUG_VALUE: i2c_bit_xfer:ret <- $r0
	.loc	3 417 21 is_stmt 1              @ rt-thread/components/drivers/i2c/i2c-bit-ops.c:417:21
	cmp.w	r0, #-1
	it	ge
	movge.w	r0, #-1
.Ltmp31:
	.loc	3 0 0 is_stmt 0                 @ rt-thread/components/drivers/i2c/i2c-bit-ops.c:0:0
	mov	r9, r0
.Ltmp32:
	.loc	3 417 21                        @ rt-thread/components/drivers/i2c/i2c-bit-ops.c:417:21
	b	.LBB1_15
.Ltmp33:
.LBB1_12:
	@DEBUG_VALUE: i2c_bit_xfer:ops <- $r8
	@DEBUG_VALUE: i2c_bit_xfer:bus <- $r7
	@DEBUG_VALUE: i2c_bit_xfer:i <- 0
	.loc	3 0 21                          @ rt-thread/components/drivers/i2c/i2c-bit-ops.c:0:21
	mov.w	r9, #0
	b	.LBB1_15
.Ltmp34:
.LBB1_13:
	@DEBUG_VALUE: i2c_bit_xfer:ops <- $r8
	@DEBUG_VALUE: i2c_bit_xfer:bus <- $r7
	@DEBUG_VALUE: i2c_bit_xfer:i <- $r4
	@DEBUG_VALUE: i2c_bit_xfer:ret <- $r0
	.loc	3 405 21 is_stmt 1              @ rt-thread/components/drivers/i2c/i2c-bit-ops.c:405:21
	cmp.w	r0, #-1
	it	gt
	mvngt	r0, #7
.Ltmp35:
	.loc	3 0 0 is_stmt 0                 @ rt-thread/components/drivers/i2c/i2c-bit-ops.c:0:0
	mov	r9, r0
.Ltmp36:
	.loc	3 405 21                        @ rt-thread/components/drivers/i2c/i2c-bit-ops.c:405:21
	b	.LBB1_15
.Ltmp37:
.LBB1_14:
	@DEBUG_VALUE: i2c_bit_xfer:ops <- $r8
	@DEBUG_VALUE: i2c_bit_xfer:bus <- $r7
	@DEBUG_VALUE: i2c_bit_xfer:ignore_nack <- $r5
	@DEBUG_VALUE: i2c_bit_xfer:i <- $r4
	@DEBUG_VALUE: i2c_bit_xfer:ret <- $r0
	.loc	3 0 0                           @ rt-thread/components/drivers/i2c/i2c-bit-ops.c:0:0
	mov	r9, r0
.Ltmp38:
	@DEBUG_VALUE: i2c_bit_xfer:ret <- $r9
.LBB1_15:
	@DEBUG_VALUE: i2c_bit_xfer:ops <- $r8
	@DEBUG_VALUE: i2c_bit_xfer:bus <- $r7
	@DEBUG_VALUE: i2c_bit_xfer:ret <- $r9
	@DEBUG_LABEL: i2c_bit_xfer:out
	.loc	3 427 5 is_stmt 1               @ rt-thread/components/drivers/i2c/i2c-bit-ops.c:427:5
	mov	r0, r8
	bl	i2c_stop
	.loc	3 429 5                         @ rt-thread/components/drivers/i2c/i2c-bit-ops.c:429:5
	mov	r0, r9
	add	sp, #4
	pop.w	{r4, r5, r6, r7, r8, r9, pc}
.Ltmp39:
.Lfunc_end1:
	.size	i2c_bit_xfer, .Lfunc_end1-i2c_bit_xfer
	.cfi_endproc
	.cantunwind
	.fnend
                                        @ -- End function
	.section	.text.i2c_start,"ax",%progbits
	.p2align	3                               @ -- Begin function i2c_start
	.type	i2c_start,%function
	.code	16                              @ @i2c_start
	.thumb_func
i2c_start:
.Lfunc_begin2:
	.loc	3 74 0                          @ rt-thread/components/drivers/i2c/i2c-bit-ops.c:74:0
	.fnstart
	.cfi_startproc
@ %bb.0:
	@DEBUG_VALUE: i2c_start:ops <- $r0
	.save	{r4, lr}
	push	{r4, lr}
	.cfi_def_cfa_offset 8
	.cfi_offset lr, -4
	.cfi_offset r4, -8
	mov	r4, r0
.Ltmp40:
	@DEBUG_VALUE: i2c_start:ops <- $r4
	.loc	3 85 5 prologue_end             @ rt-thread/components/drivers/i2c/i2c-bit-ops.c:85:5
	ldr	r0, [r0]
	movs	r1, #0
	ldr	r2, [r4, #4]
	blx	r2
	.loc	3 86 5                          @ rt-thread/components/drivers/i2c/i2c-bit-ops.c:86:5
	mov	r0, r4
	bl	i2c_delay
	.loc	3 87 5                          @ rt-thread/components/drivers/i2c/i2c-bit-ops.c:87:5
	ldr	r0, [r4]
	movs	r1, #0
	ldr	r2, [r4, #8]
	blx	r2
	.loc	3 88 1                          @ rt-thread/components/drivers/i2c/i2c-bit-ops.c:88:1
	pop	{r4, pc}
.Ltmp41:
.Lfunc_end2:
	.size	i2c_start, .Lfunc_end2-i2c_start
	.cfi_endproc
	.cantunwind
	.fnend
                                        @ -- End function
	.section	.text.i2c_restart,"ax",%progbits
	.p2align	3                               @ -- Begin function i2c_restart
	.type	i2c_restart,%function
	.code	16                              @ @i2c_restart
	.thumb_func
i2c_restart:
.Lfunc_begin3:
	.loc	3 91 0                          @ rt-thread/components/drivers/i2c/i2c-bit-ops.c:91:0
	.fnstart
	.cfi_startproc
@ %bb.0:
	@DEBUG_VALUE: i2c_restart:ops <- $r0
	.save	{r4, lr}
	push	{r4, lr}
	.cfi_def_cfa_offset 8
	.cfi_offset lr, -4
	.cfi_offset r4, -8
	mov	r4, r0
.Ltmp42:
	@DEBUG_VALUE: i2c_restart:ops <- $r4
	.loc	3 92 5 prologue_end             @ rt-thread/components/drivers/i2c/i2c-bit-ops.c:92:5
	ldr	r0, [r0]
	movs	r1, #1
	ldr	r2, [r4, #4]
	blx	r2
	.loc	3 93 5                          @ rt-thread/components/drivers/i2c/i2c-bit-ops.c:93:5
	mov	r0, r4
	bl	SCL_H
	.loc	3 94 5                          @ rt-thread/components/drivers/i2c/i2c-bit-ops.c:94:5
	mov	r0, r4
	bl	i2c_delay
	.loc	3 95 5                          @ rt-thread/components/drivers/i2c/i2c-bit-ops.c:95:5
	ldrd	r0, r2, [r4]
	movs	r1, #0
	blx	r2
	.loc	3 96 5                          @ rt-thread/components/drivers/i2c/i2c-bit-ops.c:96:5
	mov	r0, r4
	bl	i2c_delay
	.loc	3 97 5                          @ rt-thread/components/drivers/i2c/i2c-bit-ops.c:97:5
	ldr	r0, [r4]
	movs	r1, #0
	ldr	r2, [r4, #8]
	blx	r2
	.loc	3 98 1                          @ rt-thread/components/drivers/i2c/i2c-bit-ops.c:98:1
	pop	{r4, pc}
.Ltmp43:
.Lfunc_end3:
	.size	i2c_restart, .Lfunc_end3-i2c_restart
	.cfi_endproc
	.cantunwind
	.fnend
                                        @ -- End function
	.section	.text.i2c_bit_send_address,"ax",%progbits
	.p2align	3                               @ -- Begin function i2c_bit_send_address
	.type	i2c_bit_send_address,%function
	.code	16                              @ @i2c_bit_send_address
	.thumb_func
i2c_bit_send_address:
.Lfunc_begin4:
	.loc	3 308 0                         @ rt-thread/components/drivers/i2c/i2c-bit-ops.c:308:0
	.fnstart
	.cfi_startproc
@ %bb.0:
	@DEBUG_VALUE: i2c_bit_send_address:bus <- $r0
	@DEBUG_VALUE: i2c_bit_send_address:msg <- $r1
	@DEBUG_VALUE: i2c_bit_send_address:msg <- $r1
	.save	{r4, r5, r6, r7, r8, r9, r10, lr}
	push.w	{r4, r5, r6, r7, r8, r9, r10, lr}
	.cfi_def_cfa_offset 32
	.cfi_offset lr, -4
	.cfi_offset r10, -8
	.cfi_offset r9, -12
	.cfi_offset r8, -16
	.cfi_offset r7, -20
	.cfi_offset r6, -24
	.cfi_offset r5, -28
	.cfi_offset r4, -32
.Ltmp44:
	.loc	3 309 30 prologue_end           @ rt-thread/components/drivers/i2c/i2c-bit-ops.c:309:30
	ldrh	r6, [r1, #2]
.Ltmp45:
	@DEBUG_VALUE: i2c_bit_send_address:flags <- $r6
	.loc	3 0 30 is_stmt 0                @ rt-thread/components/drivers/i2c/i2c-bit-ops.c:0:30
	mov	r5, r0
.Ltmp46:
	@DEBUG_VALUE: i2c_bit_send_address:bus <- $r5
	@DEBUG_VALUE: i2c_bit_send_address:bus <- $r5
	.loc	3 310 42 is_stmt 1              @ rt-thread/components/drivers/i2c/i2c-bit-ops.c:310:42
	ands	r10, r6, #32
.Ltmp47:
	@DEBUG_VALUE: i2c_bit_send_address:ops <- undef
	@DEBUG_VALUE: i2c_bit_send_address:ignore_nack <- $r10
	.loc	3 317 15                        @ rt-thread/components/drivers/i2c/i2c-bit-ops.c:317:15
	bne	.LBB4_2
.Ltmp48:
@ %bb.1:
	@DEBUG_VALUE: i2c_bit_send_address:ignore_nack <- $r10
	@DEBUG_VALUE: i2c_bit_send_address:flags <- $r6
	@DEBUG_VALUE: i2c_bit_send_address:bus <- $r5
	@DEBUG_VALUE: i2c_bit_send_address:msg <- $r1
	.loc	3 317 38 is_stmt 0              @ rt-thread/components/drivers/i2c/i2c-bit-ops.c:317:38
	ldr.w	r4, [r5, #128]
	b	.LBB4_3
.Ltmp49:
.LBB4_2:
	@DEBUG_VALUE: i2c_bit_send_address:ignore_nack <- $r10
	@DEBUG_VALUE: i2c_bit_send_address:flags <- $r6
	@DEBUG_VALUE: i2c_bit_send_address:bus <- $r5
	@DEBUG_VALUE: i2c_bit_send_address:msg <- $r1
	.loc	3 0 38                          @ rt-thread/components/drivers/i2c/i2c-bit-ops.c:0:38
	movs	r4, #0
.Ltmp50:
.LBB4_3:
	@DEBUG_VALUE: i2c_bit_send_address:ignore_nack <- $r10
	@DEBUG_VALUE: i2c_bit_send_address:flags <- $r6
	@DEBUG_VALUE: i2c_bit_send_address:bus <- $r5
	@DEBUG_VALUE: i2c_bit_send_address:msg <- $r1
	@DEBUG_VALUE: i2c_bit_send_address:ops <- undef
	@DEBUG_VALUE: i2c_bit_send_address:retries <- $r4
	ldrh	r7, [r1]
.Ltmp51:
	.loc	3 319 9 is_stmt 1               @ rt-thread/components/drivers/i2c/i2c-bit-ops.c:319:9
	lsls	r0, r6, #29
	bmi	.LBB4_7
.Ltmp52:
@ %bb.4:
	@DEBUG_VALUE: i2c_bit_send_address:ignore_nack <- $r10
	@DEBUG_VALUE: i2c_bit_send_address:flags <- $r6
	@DEBUG_VALUE: i2c_bit_send_address:bus <- $r5
	@DEBUG_VALUE: i2c_bit_send_address:retries <- $r4
	@DEBUG_VALUE: i2c_bit_send_address:msg <- $r1
	@DEBUG_VALUE: i2c_bit_send_address:addr1 <- undef
	.loc	3 359 13                        @ rt-thread/components/drivers/i2c/i2c-bit-ops.c:359:13
	and	r0, r6, #1
	.loc	3 361 15                        @ rt-thread/components/drivers/i2c/i2c-bit-ops.c:361:15
	mov	r2, r4
	.loc	3 359 13                        @ rt-thread/components/drivers/i2c/i2c-bit-ops.c:359:13
	orr.w	r0, r0, r7, lsl #1
.Ltmp53:
	@DEBUG_VALUE: i2c_bit_send_address:addr1 <- $r0
	.loc	3 361 15                        @ rt-thread/components/drivers/i2c/i2c-bit-ops.c:361:15
	uxtb	r1, r0
.Ltmp54:
	@DEBUG_VALUE: i2c_bit_send_address:msg <- [DW_OP_LLVM_entry_value 1] $r1
	mov	r0, r5
.Ltmp55:
	bl	i2c_send_address
.Ltmp56:
	.loc	3 362 24                        @ rt-thread/components/drivers/i2c/i2c-bit-ops.c:362:24
	cmp.w	r10, #0
.Ltmp57:
	@DEBUG_VALUE: i2c_bit_send_address:ret <- $r0
	bne	.LBB4_6
.Ltmp58:
@ %bb.5:
	@DEBUG_VALUE: i2c_bit_send_address:ignore_nack <- $r10
	@DEBUG_VALUE: i2c_bit_send_address:flags <- $r6
	@DEBUG_VALUE: i2c_bit_send_address:bus <- $r5
	@DEBUG_VALUE: i2c_bit_send_address:retries <- $r4
	@DEBUG_VALUE: i2c_bit_send_address:ret <- $r0
	@DEBUG_VALUE: i2c_bit_send_address:msg <- [DW_OP_LLVM_entry_value 1] $r1
	cmp	r0, #1
	itt	ne
	mvnne	r0, #7
.Ltmp59:
	.loc	3 367 1                         @ rt-thread/components/drivers/i2c/i2c-bit-ops.c:367:1
	popne.w	{r4, r5, r6, r7, r8, r9, r10, pc}
.Ltmp60:
.LBB4_6:
	@DEBUG_VALUE: i2c_bit_send_address:msg <- [DW_OP_LLVM_entry_value 1] $r1
	.loc	3 0 1 is_stmt 0                 @ rt-thread/components/drivers/i2c/i2c-bit-ops.c:0:1
	movs	r0, #0
	.loc	3 367 1                         @ rt-thread/components/drivers/i2c/i2c-bit-ops.c:367:1
	pop.w	{r4, r5, r6, r7, r8, r9, r10, pc}
.Ltmp61:
.LBB4_7:
	@DEBUG_VALUE: i2c_bit_send_address:ignore_nack <- $r10
	@DEBUG_VALUE: i2c_bit_send_address:flags <- $r6
	@DEBUG_VALUE: i2c_bit_send_address:bus <- $r5
	@DEBUG_VALUE: i2c_bit_send_address:retries <- $r4
	@DEBUG_VALUE: i2c_bit_send_address:msg <- $r1
	.loc	3 0 1                           @ rt-thread/components/drivers/i2c/i2c-bit-ops.c:0:1
	movs	r0, #6
.Ltmp62:
	.loc	3 326 15 is_stmt 1              @ rt-thread/components/drivers/i2c/i2c-bit-ops.c:326:15
	mov	r2, r4
	.loc	3 321 17                        @ rt-thread/components/drivers/i2c/i2c-bit-ops.c:321:17
	and.w	r9, r0, r7, lsr #7
	.loc	3 326 15                        @ rt-thread/components/drivers/i2c/i2c-bit-ops.c:326:15
	mov	r0, r5
	.loc	3 321 17                        @ rt-thread/components/drivers/i2c/i2c-bit-ops.c:321:17
	add.w	r1, r9, #240
.Ltmp63:
	@DEBUG_VALUE: i2c_bit_send_address:msg <- [DW_OP_LLVM_entry_value 1] $r1
	@DEBUG_VALUE: i2c_bit_send_address:addr2 <- [DW_OP_constu 255, DW_OP_and, DW_OP_LLVM_convert 16 7, DW_OP_LLVM_convert 32 7, DW_OP_LLVM_convert 32 7, DW_OP_LLVM_convert 8 7, DW_OP_stack_value] $r7
	@DEBUG_VALUE: i2c_bit_send_address:addr1 <- $r1
	.loc	3 0 17 is_stmt 0                @ rt-thread/components/drivers/i2c/i2c-bit-ops.c:0:17
	ldr.w	r8, [r5, #132]
.Ltmp64:
	@DEBUG_VALUE: i2c_bit_send_address:ops <- $r8
	.loc	3 326 15 is_stmt 1              @ rt-thread/components/drivers/i2c/i2c-bit-ops.c:326:15
	bl	i2c_send_address
.Ltmp65:
	.loc	3 327 24                        @ rt-thread/components/drivers/i2c/i2c-bit-ops.c:327:24
	cmp.w	r10, #0
.Ltmp66:
	@DEBUG_VALUE: i2c_bit_send_address:ret <- $r0
	bne	.LBB4_10
.Ltmp67:
@ %bb.8:
	@DEBUG_VALUE: i2c_bit_send_address:ignore_nack <- $r10
	@DEBUG_VALUE: i2c_bit_send_address:ops <- $r8
	@DEBUG_VALUE: i2c_bit_send_address:addr2 <- [DW_OP_constu 255, DW_OP_and, DW_OP_LLVM_convert 16 7, DW_OP_LLVM_convert 32 7, DW_OP_LLVM_convert 32 7, DW_OP_LLVM_convert 8 7, DW_OP_stack_value] $r7
	@DEBUG_VALUE: i2c_bit_send_address:flags <- $r6
	@DEBUG_VALUE: i2c_bit_send_address:bus <- $r5
	@DEBUG_VALUE: i2c_bit_send_address:retries <- $r4
	@DEBUG_VALUE: i2c_bit_send_address:ret <- $r0
	@DEBUG_VALUE: i2c_bit_send_address:msg <- [DW_OP_LLVM_entry_value 1] $r1
	cmp	r0, #1
	beq	.LBB4_10
.Ltmp68:
@ %bb.9:
	@DEBUG_VALUE: i2c_bit_send_address:ignore_nack <- $r10
	@DEBUG_VALUE: i2c_bit_send_address:ops <- $r8
	@DEBUG_VALUE: i2c_bit_send_address:addr2 <- [DW_OP_constu 255, DW_OP_and, DW_OP_LLVM_convert 16 7, DW_OP_LLVM_convert 32 7, DW_OP_LLVM_convert 32 7, DW_OP_LLVM_convert 8 7, DW_OP_stack_value] $r7
	@DEBUG_VALUE: i2c_bit_send_address:flags <- $r6
	@DEBUG_VALUE: i2c_bit_send_address:bus <- $r5
	@DEBUG_VALUE: i2c_bit_send_address:retries <- $r4
	@DEBUG_VALUE: i2c_bit_send_address:ret <- $r0
	@DEBUG_VALUE: i2c_bit_send_address:msg <- [DW_OP_LLVM_entry_value 1] $r1
	.loc	3 329 13                        @ rt-thread/components/drivers/i2c/i2c-bit-ops.c:329:13
	movw	r0, :lower16:.L.str
.Ltmp69:
	movt	r0, :upper16:.L.str
	bl	rt_kprintf
	adr	r0, .LCPI4_0
	b	.LBB4_17
.Ltmp70:
.LBB4_10:
	@DEBUG_VALUE: i2c_bit_send_address:ignore_nack <- $r10
	@DEBUG_VALUE: i2c_bit_send_address:ops <- $r8
	@DEBUG_VALUE: i2c_bit_send_address:addr2 <- [DW_OP_constu 255, DW_OP_and, DW_OP_LLVM_convert 16 7, DW_OP_LLVM_convert 32 7, DW_OP_LLVM_convert 32 7, DW_OP_LLVM_convert 8 7, DW_OP_stack_value] $r7
	@DEBUG_VALUE: i2c_bit_send_address:flags <- $r6
	@DEBUG_VALUE: i2c_bit_send_address:bus <- $r5
	@DEBUG_VALUE: i2c_bit_send_address:retries <- $r4
	@DEBUG_VALUE: i2c_bit_send_address:ret <- $r0
	@DEBUG_VALUE: i2c_bit_send_address:msg <- [DW_OP_LLVM_entry_value 1] $r1
	@DEBUG_VALUE: i2c_bit_send_address:addr2 <- [DW_OP_constu 255, DW_OP_and, DW_OP_LLVM_convert 16 7, DW_OP_LLVM_convert 32 7, DW_OP_LLVM_convert 32 7, DW_OP_LLVM_convert 8 7, DW_OP_stack_value] $r7
	.loc	3 334 15                        @ rt-thread/components/drivers/i2c/i2c-bit-ops.c:334:15
	uxtb	r1, r7
.Ltmp71:
	@DEBUG_VALUE: i2c_bit_send_address:addr2 <- $r1
	mov	r0, r5
.Ltmp72:
	bl	i2c_writeb
.Ltmp73:
	.loc	3 335 24                        @ rt-thread/components/drivers/i2c/i2c-bit-ops.c:335:24
	cmp.w	r10, #0
.Ltmp74:
	@DEBUG_VALUE: i2c_bit_send_address:ret <- $r0
	bne	.LBB4_13
.Ltmp75:
@ %bb.11:
	@DEBUG_VALUE: i2c_bit_send_address:ignore_nack <- $r10
	@DEBUG_VALUE: i2c_bit_send_address:ops <- $r8
	@DEBUG_VALUE: i2c_bit_send_address:flags <- $r6
	@DEBUG_VALUE: i2c_bit_send_address:bus <- $r5
	@DEBUG_VALUE: i2c_bit_send_address:retries <- $r4
	@DEBUG_VALUE: i2c_bit_send_address:ret <- $r0
	@DEBUG_VALUE: i2c_bit_send_address:msg <- [DW_OP_LLVM_entry_value 1] $r1
	cmp	r0, #1
	beq	.LBB4_13
.Ltmp76:
@ %bb.12:
	@DEBUG_VALUE: i2c_bit_send_address:ignore_nack <- $r10
	@DEBUG_VALUE: i2c_bit_send_address:ops <- $r8
	@DEBUG_VALUE: i2c_bit_send_address:flags <- $r6
	@DEBUG_VALUE: i2c_bit_send_address:bus <- $r5
	@DEBUG_VALUE: i2c_bit_send_address:retries <- $r4
	@DEBUG_VALUE: i2c_bit_send_address:ret <- $r0
	@DEBUG_VALUE: i2c_bit_send_address:msg <- [DW_OP_LLVM_entry_value 1] $r1
	.loc	3 337 13                        @ rt-thread/components/drivers/i2c/i2c-bit-ops.c:337:13
	movw	r0, :lower16:.L.str
.Ltmp77:
	movt	r0, :upper16:.L.str
	bl	rt_kprintf
	adr	r0, .LCPI4_1
	b	.LBB4_17
.Ltmp78:
.LBB4_13:
	@DEBUG_VALUE: i2c_bit_send_address:ignore_nack <- $r10
	@DEBUG_VALUE: i2c_bit_send_address:ops <- $r8
	@DEBUG_VALUE: i2c_bit_send_address:flags <- $r6
	@DEBUG_VALUE: i2c_bit_send_address:bus <- $r5
	@DEBUG_VALUE: i2c_bit_send_address:retries <- $r4
	@DEBUG_VALUE: i2c_bit_send_address:ret <- $r0
	@DEBUG_VALUE: i2c_bit_send_address:msg <- [DW_OP_LLVM_entry_value 1] $r1
	.loc	3 341 13                        @ rt-thread/components/drivers/i2c/i2c-bit-ops.c:341:13
	lsls	r0, r6, #31
.Ltmp79:
	beq	.LBB4_6
.Ltmp80:
@ %bb.14:
	@DEBUG_VALUE: i2c_bit_send_address:ignore_nack <- $r10
	@DEBUG_VALUE: i2c_bit_send_address:ops <- $r8
	@DEBUG_VALUE: i2c_bit_send_address:flags <- $r6
	@DEBUG_VALUE: i2c_bit_send_address:bus <- $r5
	@DEBUG_VALUE: i2c_bit_send_address:retries <- $r4
	@DEBUG_VALUE: i2c_bit_send_address:msg <- [DW_OP_LLVM_entry_value 1] $r1
	.loc	3 344 13                        @ rt-thread/components/drivers/i2c/i2c-bit-ops.c:344:13
	mov	r0, r8
	bl	i2c_restart
	.loc	3 345 19                        @ rt-thread/components/drivers/i2c/i2c-bit-ops.c:345:19
	orr	r1, r9, #241
.Ltmp81:
	@DEBUG_VALUE: i2c_bit_send_address:addr1 <- $r1
	.loc	3 346 19                        @ rt-thread/components/drivers/i2c/i2c-bit-ops.c:346:19
	mov	r0, r5
	mov	r2, r4
	bl	i2c_send_address
.Ltmp82:
	.loc	3 347 28                        @ rt-thread/components/drivers/i2c/i2c-bit-ops.c:347:28
	cmp.w	r10, #0
.Ltmp83:
	@DEBUG_VALUE: i2c_bit_send_address:ret <- $r0
	bne	.LBB4_6
.Ltmp84:
@ %bb.15:
	@DEBUG_VALUE: i2c_bit_send_address:ignore_nack <- $r10
	@DEBUG_VALUE: i2c_bit_send_address:ops <- $r8
	@DEBUG_VALUE: i2c_bit_send_address:flags <- $r6
	@DEBUG_VALUE: i2c_bit_send_address:bus <- $r5
	@DEBUG_VALUE: i2c_bit_send_address:retries <- $r4
	@DEBUG_VALUE: i2c_bit_send_address:ret <- $r0
	@DEBUG_VALUE: i2c_bit_send_address:msg <- [DW_OP_LLVM_entry_value 1] $r1
	cmp	r0, #1
	beq	.LBB4_6
.Ltmp85:
@ %bb.16:
	@DEBUG_VALUE: i2c_bit_send_address:ignore_nack <- $r10
	@DEBUG_VALUE: i2c_bit_send_address:ops <- $r8
	@DEBUG_VALUE: i2c_bit_send_address:flags <- $r6
	@DEBUG_VALUE: i2c_bit_send_address:bus <- $r5
	@DEBUG_VALUE: i2c_bit_send_address:retries <- $r4
	@DEBUG_VALUE: i2c_bit_send_address:ret <- $r0
	@DEBUG_VALUE: i2c_bit_send_address:msg <- [DW_OP_LLVM_entry_value 1] $r1
	.loc	3 349 17                        @ rt-thread/components/drivers/i2c/i2c-bit-ops.c:349:17
	movw	r0, :lower16:.L.str.4
.Ltmp86:
	movt	r0, :upper16:.L.str.4
	bl	rt_kprintf
	adr	r0, .LCPI4_2
.Ltmp87:
.LBB4_17:
	@DEBUG_VALUE: i2c_bit_send_address:ignore_nack <- $r10
	@DEBUG_VALUE: i2c_bit_send_address:ops <- $r8
	@DEBUG_VALUE: i2c_bit_send_address:flags <- $r6
	@DEBUG_VALUE: i2c_bit_send_address:bus <- $r5
	@DEBUG_VALUE: i2c_bit_send_address:retries <- $r4
	@DEBUG_VALUE: i2c_bit_send_address:msg <- [DW_OP_LLVM_entry_value 1] $r1
	.loc	3 0 0 is_stmt 0                 @ rt-thread/components/drivers/i2c/i2c-bit-ops.c:0:0
	bl	rt_kprintf
	movw	r0, :lower16:.L.str.2
	movt	r0, :upper16:.L.str.2
	bl	rt_kprintf
	mvn	r0, #7
.Ltmp88:
	.loc	3 367 1 is_stmt 1               @ rt-thread/components/drivers/i2c/i2c-bit-ops.c:367:1
	pop.w	{r4, r5, r6, r7, r8, r9, r10, pc}
.Ltmp89:
	.p2align	2
@ %bb.18:
	.loc	3 0 1 is_stmt 0                 @ rt-thread/components/drivers/i2c/i2c-bit-ops.c:0:1
.LCPI4_0:
.L.str.1:
	.asciz	"NACK: sending first addr\000\000\000"
.LCPI4_1:
.L.str.3:
	.asciz	"NACK: sending second addr\000\000"
.LCPI4_2:
.L.str.5:
	.asciz	"NACK: sending repeated addr"
.Lfunc_end4:
	.size	i2c_bit_send_address, .Lfunc_end4-i2c_bit_send_address
	.cfi_endproc
	.cantunwind
	.fnend
                                        @ -- End function
	.section	.text.i2c_recv_bytes,"ax",%progbits
	.p2align	3                               @ -- Begin function i2c_recv_bytes
	.type	i2c_recv_bytes,%function
	.code	16                              @ @i2c_recv_bytes
	.thumb_func
i2c_recv_bytes:
.Lfunc_begin5:
	.loc	3 245 0 is_stmt 1               @ rt-thread/components/drivers/i2c/i2c-bit-ops.c:245:0
	.fnstart
	.cfi_startproc
@ %bb.0:
	@DEBUG_VALUE: i2c_recv_bytes:bus <- $r0
	@DEBUG_VALUE: i2c_recv_bytes:msg <- $r1
	@DEBUG_VALUE: i2c_recv_bytes:msg <- $r1
	.save	{r4, r5, r6, r7, r8, r9, lr}
	push.w	{r4, r5, r6, r7, r8, r9, lr}
	.cfi_def_cfa_offset 28
	.cfi_offset lr, -4
	.cfi_offset r9, -8
	.cfi_offset r8, -12
	.cfi_offset r7, -16
	.cfi_offset r6, -20
	.cfi_offset r5, -24
	.cfi_offset r4, -28
	.pad	#4
	sub	sp, #4
	.cfi_def_cfa_offset 32
.Ltmp90:
	.loc	3 249 29 prologue_end           @ rt-thread/components/drivers/i2c/i2c-bit-ops.c:249:29
	ldrh.w	r8, [r1, #4]
.Ltmp91:
	@DEBUG_VALUE: i2c_recv_bytes:bytes <- 0
	@DEBUG_VALUE: i2c_recv_bytes:ptr <- undef
	@DEBUG_VALUE: i2c_recv_bytes:flags <- [DW_OP_LLVM_convert 16 7, DW_OP_LLVM_convert 32 7, DW_OP_stack_value] undef
	@DEBUG_VALUE: i2c_recv_bytes:count <- [DW_OP_LLVM_convert 16 7, DW_OP_LLVM_convert 32 7, DW_OP_stack_value] undef
	.loc	3 252 5                         @ rt-thread/components/drivers/i2c/i2c-bit-ops.c:252:5
	cmp.w	r8, #0
	@DEBUG_VALUE: i2c_recv_bytes:ptr <- undef
	@DEBUG_VALUE: i2c_recv_bytes:bus <- $r0
	beq	.LBB5_7
.Ltmp92:
@ %bb.1:
	@DEBUG_VALUE: i2c_recv_bytes:msg <- $r1
	@DEBUG_VALUE: i2c_recv_bytes:bus <- $r0
	@DEBUG_VALUE: i2c_recv_bytes:bytes <- 0
	.loc	3 0 5 is_stmt 0                 @ rt-thread/components/drivers/i2c/i2c-bit-ops.c:0:5
	mov	r5, r0
.Ltmp93:
	@DEBUG_VALUE: i2c_recv_bytes:bus <- $r5
	@DEBUG_VALUE: i2c_recv_bytes:bus <- $r5
	@DEBUG_VALUE: i2c_recv_bytes:count <- $r8
	.loc	3 250 36 is_stmt 1              @ rt-thread/components/drivers/i2c/i2c-bit-ops.c:250:36
	ldrh	r0, [r1, #2]
.Ltmp94:
	@DEBUG_VALUE: i2c_recv_bytes:flags <- [DW_OP_LLVM_convert 16 7, DW_OP_LLVM_convert 32 7, DW_OP_stack_value] undef
	.loc	3 248 28                        @ rt-thread/components/drivers/i2c/i2c-bit-ops.c:248:28
	ldr.w	r9, [r1, #8]
.Ltmp95:
	@DEBUG_VALUE: i2c_recv_bytes:ptr <- $r9
	.loc	3 252 5                         @ rt-thread/components/drivers/i2c/i2c-bit-ops.c:252:5
	sub.w	r6, r8, #1
	and	r7, r0, #64
	movs	r4, #0
	b	.LBB5_3
.Ltmp96:
	.p2align	2
.LBB5_2:                                @   in Loop: Header=BB5_3 Depth=1
	@DEBUG_VALUE: i2c_recv_bytes:count <- $r6
	@DEBUG_VALUE: i2c_recv_bytes:bus <- $r5
	@DEBUG_VALUE: i2c_recv_bytes:val <- $r0
	.loc	3 252 18 is_stmt 0              @ rt-thread/components/drivers/i2c/i2c-bit-ops.c:252:18
	subs	r6, #1
.Ltmp97:
	.loc	3 0 0                           @ rt-thread/components/drivers/i2c/i2c-bit-ops.c:0:0
	adds	r4, #1
.Ltmp98:
	@DEBUG_VALUE: i2c_recv_bytes:bytes <- $r4
	@DEBUG_VALUE: i2c_recv_bytes:ptr <- [DW_OP_plus_uconst 1, DW_OP_stack_value] undef
	@DEBUG_VALUE: i2c_recv_bytes:count <- $r6
	.loc	3 252 5                         @ rt-thread/components/drivers/i2c/i2c-bit-ops.c:252:5
	adds	r0, r6, #1
.Ltmp99:
	beq	.LBB5_8
.Ltmp100:
.LBB5_3:                                @ =>This Inner Loop Header: Depth=1
	@DEBUG_VALUE: i2c_recv_bytes:bus <- $r5
	@DEBUG_VALUE: i2c_recv_bytes:count <- [DW_OP_plus_uconst 1, DW_OP_stack_value] $r6
	@DEBUG_VALUE: i2c_recv_bytes:ptr <- undef
	@DEBUG_VALUE: i2c_recv_bytes:bytes <- $r4
	.loc	3 254 15 is_stmt 1              @ rt-thread/components/drivers/i2c/i2c-bit-ops.c:254:15
	mov	r0, r5
	bl	i2c_readb
.Ltmp101:
	@DEBUG_VALUE: i2c_recv_bytes:msg <- [DW_OP_LLVM_entry_value 1] $r1
	@DEBUG_VALUE: i2c_recv_bytes:val <- $r0
	.loc	3 255 13                        @ rt-thread/components/drivers/i2c/i2c-bit-ops.c:255:13
	cmp	r0, #0
	bmi	.LBB5_9
.Ltmp102:
@ %bb.4:                                @   in Loop: Header=BB5_3 Depth=1
	@DEBUG_VALUE: i2c_recv_bytes:count <- [DW_OP_plus_uconst 1, DW_OP_stack_value] $r6
	@DEBUG_VALUE: i2c_recv_bytes:bus <- $r5
	@DEBUG_VALUE: i2c_recv_bytes:bytes <- $r4
	@DEBUG_VALUE: i2c_recv_bytes:val <- $r0
	.loc	3 272 13                        @ rt-thread/components/drivers/i2c/i2c-bit-ops.c:272:13
	cmp	r7, #0
.Ltmp103:
	.loc	3 257 18                        @ rt-thread/components/drivers/i2c/i2c-bit-ops.c:257:18
	strb.w	r0, [r9, r4]
.Ltmp104:
	@DEBUG_VALUE: i2c_recv_bytes:bytes <- undef
	@DEBUG_VALUE: i2c_recv_bytes:ptr <- [DW_OP_plus_uconst 1, DW_OP_stack_value] undef
	@DEBUG_VALUE: i2c_recv_bytes:count <- $r6
	.loc	3 272 13                        @ rt-thread/components/drivers/i2c/i2c-bit-ops.c:272:13
	bne	.LBB5_2
.Ltmp105:
@ %bb.5:                                @   in Loop: Header=BB5_3 Depth=1
	@DEBUG_VALUE: i2c_recv_bytes:count <- $r6
	@DEBUG_VALUE: i2c_recv_bytes:bus <- $r5
	@DEBUG_VALUE: i2c_recv_bytes:val <- $r0
	.loc	3 274 19                        @ rt-thread/components/drivers/i2c/i2c-bit-ops.c:274:19
	mov	r0, r5
.Ltmp106:
	mov	r1, r6
	bl	i2c_send_ack_or_nack
.Ltmp107:
	@DEBUG_VALUE: i2c_recv_bytes:val <- $r0
	.loc	3 275 17                        @ rt-thread/components/drivers/i2c/i2c-bit-ops.c:275:17
	cmp	r0, #0
	bpl	.LBB5_2
.Ltmp108:
@ %bb.6:
	@DEBUG_VALUE: i2c_recv_bytes:count <- $r6
	@DEBUG_VALUE: i2c_recv_bytes:bus <- $r5
	@DEBUG_VALUE: i2c_recv_bytes:val <- $r0
	.loc	3 0 0 is_stmt 0                 @ rt-thread/components/drivers/i2c/i2c-bit-ops.c:0:0
	mov	r4, r0
.Ltmp109:
	@DEBUG_VALUE: i2c_recv_bytes:val <- $r4
	@DEBUG_VALUE: i2c_recv_bytes:val <- $r4
	b	.LBB5_9
.Ltmp110:
.LBB5_7:
	@DEBUG_VALUE: i2c_recv_bytes:msg <- $r1
	@DEBUG_VALUE: i2c_recv_bytes:bus <- $r0
	@DEBUG_VALUE: i2c_recv_bytes:bytes <- 0
	movs	r4, #0
	b	.LBB5_9
.Ltmp111:
.LBB5_8:
	@DEBUG_VALUE: i2c_recv_bytes:count <- $r6
	@DEBUG_VALUE: i2c_recv_bytes:bus <- $r5
	@DEBUG_VALUE: i2c_recv_bytes:bytes <- $r4
	mov	r4, r8
.Ltmp112:
.LBB5_9:
	.loc	3 281 1 is_stmt 1               @ rt-thread/components/drivers/i2c/i2c-bit-ops.c:281:1
	mov	r0, r4
	add	sp, #4
	pop.w	{r4, r5, r6, r7, r8, r9, pc}
.Ltmp113:
.Lfunc_end5:
	.size	i2c_recv_bytes, .Lfunc_end5-i2c_recv_bytes
	.cfi_endproc
	.cantunwind
	.fnend
                                        @ -- End function
	.section	.text.i2c_send_bytes,"ax",%progbits
	.p2align	3                               @ -- Begin function i2c_send_bytes
	.type	i2c_send_bytes,%function
	.code	16                              @ @i2c_send_bytes
	.thumb_func
i2c_send_bytes:
.Lfunc_begin6:
	.loc	3 191 0                         @ rt-thread/components/drivers/i2c/i2c-bit-ops.c:191:0
	.fnstart
	.cfi_startproc
@ %bb.0:
	@DEBUG_VALUE: i2c_send_bytes:bus <- $r0
	@DEBUG_VALUE: i2c_send_bytes:msg <- $r1
	@DEBUG_VALUE: i2c_send_bytes:msg <- $r1
	.save	{r4, r5, r6, r7, r8, r9, r10, lr}
	push.w	{r4, r5, r6, r7, r8, r9, r10, lr}
	.cfi_def_cfa_offset 32
	.cfi_offset lr, -4
	.cfi_offset r10, -8
	.cfi_offset r9, -12
	.cfi_offset r8, -16
	.cfi_offset r7, -20
	.cfi_offset r6, -24
	.cfi_offset r5, -28
	.cfi_offset r4, -32
.Ltmp114:
	.loc	3 195 29 prologue_end           @ rt-thread/components/drivers/i2c/i2c-bit-ops.c:195:29
	ldrh.w	r8, [r1, #4]
.Ltmp115:
	@DEBUG_VALUE: i2c_send_bytes:bytes <- 0
	@DEBUG_VALUE: i2c_send_bytes:ptr <- undef
	@DEBUG_VALUE: i2c_send_bytes:ignore_nack <- [DW_OP_constu 32, DW_OP_and, DW_OP_stack_value] undef
	@DEBUG_VALUE: i2c_send_bytes:count <- [DW_OP_LLVM_convert 16 7, DW_OP_LLVM_convert 32 7, DW_OP_stack_value] undef
	.loc	3 198 5                         @ rt-thread/components/drivers/i2c/i2c-bit-ops.c:198:5
	cmp.w	r8, #0
	@DEBUG_VALUE: i2c_send_bytes:ptr <- undef
	@DEBUG_VALUE: i2c_send_bytes:bus <- $r0
	beq	.LBB6_8
.Ltmp116:
@ %bb.1:
	@DEBUG_VALUE: i2c_send_bytes:msg <- $r1
	@DEBUG_VALUE: i2c_send_bytes:bus <- $r0
	@DEBUG_VALUE: i2c_send_bytes:bytes <- 0
	.loc	3 0 5 is_stmt 0                 @ rt-thread/components/drivers/i2c/i2c-bit-ops.c:0:5
	mov	r9, r0
.Ltmp117:
	@DEBUG_VALUE: i2c_send_bytes:bus <- $r9
	@DEBUG_VALUE: i2c_send_bytes:bus <- $r9
	@DEBUG_VALUE: i2c_send_bytes:count <- $r8
	.loc	3 196 36 is_stmt 1              @ rt-thread/components/drivers/i2c/i2c-bit-ops.c:196:36
	ldrh	r0, [r1, #2]
.Ltmp118:
	@DEBUG_VALUE: i2c_send_bytes:ignore_nack <- [DW_OP_constu 32, DW_OP_and, DW_OP_stack_value] undef
	.loc	3 194 34                        @ rt-thread/components/drivers/i2c/i2c-bit-ops.c:194:34
	ldr	r4, [r1, #8]
.Ltmp119:
	@DEBUG_VALUE: i2c_send_bytes:ptr <- $r4
	.loc	3 0 34 is_stmt 0                @ rt-thread/components/drivers/i2c/i2c-bit-ops.c:0:34
	mov	r5, r8
	.loc	3 196 42 is_stmt 1              @ rt-thread/components/drivers/i2c/i2c-bit-ops.c:196:42
	and	r10, r0, #32
.Ltmp120:
	@DEBUG_VALUE: i2c_send_bytes:ignore_nack <- $r10
	.loc	3 0 42 is_stmt 0                @ rt-thread/components/drivers/i2c/i2c-bit-ops.c:0:42
	b	.LBB6_3
.Ltmp121:
	.p2align	2
.LBB6_2:                                @   in Loop: Header=BB6_3 Depth=1
	@DEBUG_VALUE: i2c_send_bytes:ignore_nack <- $r10
	@DEBUG_VALUE: i2c_send_bytes:bus <- $r9
	@DEBUG_VALUE: i2c_send_bytes:ptr <- $r4
	@DEBUG_VALUE: i2c_send_bytes:count <- [DW_OP_constu 1, DW_OP_minus, DW_OP_stack_value] undef
	.loc	3 198 18 is_stmt 1              @ rt-thread/components/drivers/i2c/i2c-bit-ops.c:198:18
	subs	r5, #1
.Ltmp122:
	.loc	3 205 17                        @ rt-thread/components/drivers/i2c/i2c-bit-ops.c:205:17
	add.w	r4, r4, #1
.Ltmp123:
	@DEBUG_VALUE: i2c_send_bytes:bytes <- [DW_OP_plus_uconst 1, DW_OP_stack_value] undef
	@DEBUG_VALUE: i2c_send_bytes:ptr <- $r4
	.loc	3 198 5                         @ rt-thread/components/drivers/i2c/i2c-bit-ops.c:198:5
	beq	.LBB6_7
.Ltmp124:
.LBB6_3:                                @ =>This Inner Loop Header: Depth=1
	@DEBUG_VALUE: i2c_send_bytes:ignore_nack <- $r10
	@DEBUG_VALUE: i2c_send_bytes:bus <- $r9
	@DEBUG_VALUE: i2c_send_bytes:ptr <- $r4
	.loc	3 200 31                        @ rt-thread/components/drivers/i2c/i2c-bit-ops.c:200:31
	ldrb	r1, [r4]
.Ltmp125:
	@DEBUG_VALUE: i2c_send_bytes:msg <- [DW_OP_LLVM_entry_value 1] $r1
	.loc	3 0 31 is_stmt 0                @ rt-thread/components/drivers/i2c/i2c-bit-ops.c:0:31
	mov	r7, r10
	.loc	3 200 15                        @ rt-thread/components/drivers/i2c/i2c-bit-ops.c:200:15
	mov	r0, r9
	cmp.w	r10, #0
	it	ne
	movne	r7, #1
.Ltmp126:
	@DEBUG_VALUE: i2c_send_bytes:bytes <- undef
	@DEBUG_VALUE: i2c_send_bytes:ptr <- $r4
	@DEBUG_VALUE: i2c_send_bytes:count <- undef
	bl	i2c_writeb
.Ltmp127:
	@DEBUG_VALUE: i2c_send_bytes:ret <- $r0
	.loc	3 202 23 is_stmt 1              @ rt-thread/components/drivers/i2c/i2c-bit-ops.c:202:23
	cmp	r0, #0
	bgt	.LBB6_2
.Ltmp128:
@ %bb.4:                                @   in Loop: Header=BB6_3 Depth=1
	@DEBUG_VALUE: i2c_send_bytes:ignore_nack <- $r10
	@DEBUG_VALUE: i2c_send_bytes:bus <- $r9
	@DEBUG_VALUE: i2c_send_bytes:ptr <- $r4
	@DEBUG_VALUE: i2c_send_bytes:ret <- $r0
	.loc	3 0 23 is_stmt 0                @ rt-thread/components/drivers/i2c/i2c-bit-ops.c:0:23
	mov	r6, r0
.Ltmp129:
	@DEBUG_VALUE: i2c_send_bytes:ret <- $r6
	clz	r0, r0
	lsrs	r0, r0, #5
	ands	r0, r7
	.loc	3 202 23                        @ rt-thread/components/drivers/i2c/i2c-bit-ops.c:202:23
	bne	.LBB6_2
.Ltmp130:
@ %bb.5:
	@DEBUG_VALUE: i2c_send_bytes:ignore_nack <- $r10
	@DEBUG_VALUE: i2c_send_bytes:bus <- $r9
	@DEBUG_VALUE: i2c_send_bytes:ret <- $r6
	@DEBUG_VALUE: i2c_send_bytes:ptr <- $r4
	.loc	3 208 18 is_stmt 1              @ rt-thread/components/drivers/i2c/i2c-bit-ops.c:208:18
	cbz	r6, .LBB6_8
.Ltmp131:
@ %bb.6:
	@DEBUG_VALUE: i2c_send_bytes:ignore_nack <- $r10
	@DEBUG_VALUE: i2c_send_bytes:bus <- $r9
	@DEBUG_VALUE: i2c_send_bytes:ret <- $r6
	@DEBUG_VALUE: i2c_send_bytes:ptr <- $r4
	.loc	3 216 13                        @ rt-thread/components/drivers/i2c/i2c-bit-ops.c:216:13
	movw	r0, :lower16:.L.str.4
	movt	r0, :upper16:.L.str.4
	bl	rt_kprintf
	adr	r0, .LCPI6_0
	mov	r1, r6
	bl	rt_kprintf
	movw	r0, :lower16:.L.str.2
	movt	r0, :upper16:.L.str.2
	bl	rt_kprintf
.Ltmp132:
	.loc	3 0 0 is_stmt 0                 @ rt-thread/components/drivers/i2c/i2c-bit-ops.c:0:0
	mov	r8, r6
.Ltmp133:
	@DEBUG_VALUE: i2c_send_bytes:ret <- $r8
	@DEBUG_VALUE: i2c_send_bytes:ret <- $r8
.LBB6_7:
	@DEBUG_VALUE: i2c_send_bytes:ignore_nack <- $r10
	@DEBUG_VALUE: i2c_send_bytes:bus <- $r9
	@DEBUG_VALUE: i2c_send_bytes:ptr <- $r4
	.loc	3 223 1 is_stmt 1               @ rt-thread/components/drivers/i2c/i2c-bit-ops.c:223:1
	mov	r0, r8
	pop.w	{r4, r5, r6, r7, r8, r9, r10, pc}
.Ltmp134:
.LBB6_8:
	.loc	3 0 1 is_stmt 0                 @ rt-thread/components/drivers/i2c/i2c-bit-ops.c:0:1
	movs	r0, #0
	.loc	3 223 1                         @ rt-thread/components/drivers/i2c/i2c-bit-ops.c:223:1
	pop.w	{r4, r5, r6, r7, r8, r9, r10, pc}
.Ltmp135:
	.p2align	2
@ %bb.9:
	.loc	3 0 1                           @ rt-thread/components/drivers/i2c/i2c-bit-ops.c:0:1
.LCPI6_0:
.L.str.8:
	.asciz	"send bytes: error %d\000\000\000"
.Lfunc_end6:
	.size	i2c_send_bytes, .Lfunc_end6-i2c_send_bytes
	.cfi_endproc
	.cantunwind
	.fnend
                                        @ -- End function
	.section	.text.i2c_stop,"ax",%progbits
	.p2align	3                               @ -- Begin function i2c_stop
	.type	i2c_stop,%function
	.code	16                              @ @i2c_stop
	.thumb_func
i2c_stop:
.Lfunc_begin7:
	.loc	3 101 0 is_stmt 1               @ rt-thread/components/drivers/i2c/i2c-bit-ops.c:101:0
	.fnstart
	.cfi_startproc
@ %bb.0:
	@DEBUG_VALUE: i2c_stop:ops <- $r0
	.save	{r4, lr}
	push	{r4, lr}
	.cfi_def_cfa_offset 8
	.cfi_offset lr, -4
	.cfi_offset r4, -8
	mov	r4, r0
.Ltmp136:
	@DEBUG_VALUE: i2c_stop:ops <- $r4
	.loc	3 102 5 prologue_end            @ rt-thread/components/drivers/i2c/i2c-bit-ops.c:102:5
	ldr	r0, [r0]
	movs	r1, #0
	ldr	r2, [r4, #4]
	blx	r2
	.loc	3 103 5                         @ rt-thread/components/drivers/i2c/i2c-bit-ops.c:103:5
	mov	r0, r4
	bl	i2c_delay
	.loc	3 104 5                         @ rt-thread/components/drivers/i2c/i2c-bit-ops.c:104:5
	mov	r0, r4
	bl	SCL_H
	.loc	3 105 5                         @ rt-thread/components/drivers/i2c/i2c-bit-ops.c:105:5
	mov	r0, r4
	bl	i2c_delay
	.loc	3 106 5                         @ rt-thread/components/drivers/i2c/i2c-bit-ops.c:106:5
	ldrd	r0, r2, [r4]
	movs	r1, #1
	blx	r2
	.loc	3 107 5                         @ rt-thread/components/drivers/i2c/i2c-bit-ops.c:107:5
	mov	r0, r4
	bl	i2c_delay2
	.loc	3 108 1                         @ rt-thread/components/drivers/i2c/i2c-bit-ops.c:108:1
	pop	{r4, pc}
.Ltmp137:
.Lfunc_end7:
	.size	i2c_stop, .Lfunc_end7-i2c_stop
	.cfi_endproc
	.cantunwind
	.fnend
                                        @ -- End function
	.section	.text.i2c_delay,"ax",%progbits
	.p2align	3                               @ -- Begin function i2c_delay
	.type	i2c_delay,%function
	.code	16                              @ @i2c_delay
	.thumb_func
i2c_delay:
.Lfunc_begin8:
	.loc	3 27 0                          @ rt-thread/components/drivers/i2c/i2c-bit-ops.c:27:0
	.fnstart
	.cfi_startproc
@ %bb.0:
	@DEBUG_VALUE: i2c_delay:ops <- $r0
	@DEBUG_VALUE: i2c_delay:ops <- $r0
	.save	{r7, lr}
	push	{r7, lr}
	.cfi_def_cfa_offset 8
	.cfi_offset lr, -4
	.cfi_offset r7, -8
.Ltmp138:
	.loc	3 28 23 prologue_end            @ rt-thread/components/drivers/i2c/i2c-bit-ops.c:28:23
	ldr	r1, [r0, #24]
	.loc	3 28 10 is_stmt 0               @ rt-thread/components/drivers/i2c/i2c-bit-ops.c:28:10
	ldr	r2, [r0, #20]
	.loc	3 28 32                         @ rt-thread/components/drivers/i2c/i2c-bit-ops.c:28:32
	adds	r1, #1
	.loc	3 28 37                         @ rt-thread/components/drivers/i2c/i2c-bit-ops.c:28:37
	lsrs	r0, r1, #1
.Ltmp139:
	@DEBUG_VALUE: i2c_delay:ops <- [DW_OP_LLVM_entry_value 1] $r0
	.loc	3 28 5                          @ rt-thread/components/drivers/i2c/i2c-bit-ops.c:28:5
	blx	r2
	.loc	3 29 1 is_stmt 1                @ rt-thread/components/drivers/i2c/i2c-bit-ops.c:29:1
	pop	{r7, pc}
.Ltmp140:
.Lfunc_end8:
	.size	i2c_delay, .Lfunc_end8-i2c_delay
	.cfi_endproc
	.cantunwind
	.fnend
                                        @ -- End function
	.section	.text.SCL_H,"ax",%progbits
	.p2align	3                               @ -- Begin function SCL_H
	.type	SCL_H,%function
	.code	16                              @ @SCL_H
	.thumb_func
SCL_H:
.Lfunc_begin9:
	.loc	3 44 0                          @ rt-thread/components/drivers/i2c/i2c-bit-ops.c:44:0
	.fnstart
	.cfi_startproc
@ %bb.0:
	@DEBUG_VALUE: SCL_H:ops <- $r0
	.save	{r4, r5, r7, lr}
	push	{r4, r5, r7, lr}
	.cfi_def_cfa_offset 16
	.cfi_offset lr, -4
	.cfi_offset r7, -8
	.cfi_offset r5, -12
	.cfi_offset r4, -16
	mov	r4, r0
.Ltmp141:
	@DEBUG_VALUE: SCL_H:ops <- $r4
	.loc	3 47 5 prologue_end             @ rt-thread/components/drivers/i2c/i2c-bit-ops.c:47:5
	ldr	r0, [r0]
	movs	r1, #1
	ldr	r2, [r4, #8]
	blx	r2
.Ltmp142:
	.loc	3 49 15                         @ rt-thread/components/drivers/i2c/i2c-bit-ops.c:49:15
	ldr	r0, [r4, #16]
.Ltmp143:
	.loc	3 49 9 is_stmt 0                @ rt-thread/components/drivers/i2c/i2c-bit-ops.c:49:9
	cbz	r0, .LBB9_5
.Ltmp144:
@ %bb.1:
	@DEBUG_VALUE: SCL_H:ops <- $r4
	.loc	3 52 13 is_stmt 1               @ rt-thread/components/drivers/i2c/i2c-bit-ops.c:52:13
	bl	rt_tick_get
	mov	r5, r0
.Ltmp145:
	@DEBUG_VALUE: SCL_H:start <- $r5
	.p2align	2
.LBB9_2:                                @ =>This Inner Loop Header: Depth=1
	@DEBUG_VALUE: SCL_H:start <- $r5
	@DEBUG_VALUE: SCL_H:ops <- $r4
	.loc	3 53 13                         @ rt-thread/components/drivers/i2c/i2c-bit-ops.c:53:13
	ldr	r0, [r4]
	ldr	r1, [r4, #16]
	blx	r1
	.loc	3 53 5 is_stmt 0                @ rt-thread/components/drivers/i2c/i2c-bit-ops.c:53:5
	cbnz	r0, .LBB9_5
.Ltmp146:
@ %bb.3:                                @   in Loop: Header=BB9_2 Depth=1
	@DEBUG_VALUE: SCL_H:start <- $r5
	@DEBUG_VALUE: SCL_H:ops <- $r4
	.loc	3 55 14 is_stmt 1               @ rt-thread/components/drivers/i2c/i2c-bit-ops.c:55:14
	bl	rt_tick_get
	.loc	3 55 28 is_stmt 0               @ rt-thread/components/drivers/i2c/i2c-bit-ops.c:55:28
	subs	r1, r0, r5
	.loc	3 55 44                         @ rt-thread/components/drivers/i2c/i2c-bit-ops.c:55:44
	ldr	r0, [r4, #28]
.Ltmp147:
	.loc	3 55 13                         @ rt-thread/components/drivers/i2c/i2c-bit-ops.c:55:13
	cmp	r1, r0
	bhi	.LBB9_6
.Ltmp148:
@ %bb.4:                                @   in Loop: Header=BB9_2 Depth=1
	@DEBUG_VALUE: SCL_H:start <- $r5
	@DEBUG_VALUE: SCL_H:ops <- $r4
	.loc	3 57 39 is_stmt 1               @ rt-thread/components/drivers/i2c/i2c-bit-ops.c:57:39
	adds	r0, #1
	.loc	3 57 44 is_stmt 0               @ rt-thread/components/drivers/i2c/i2c-bit-ops.c:57:44
	lsrs	r0, r0, #1
	.loc	3 57 9                          @ rt-thread/components/drivers/i2c/i2c-bit-ops.c:57:9
	bl	rt_thread_delay
	b	.LBB9_2
.Ltmp149:
.LBB9_5:
	@DEBUG_VALUE: SCL_H:ops <- $r4
	@DEBUG_LABEL: SCL_H:done
	.loc	3 68 5 is_stmt 1                @ rt-thread/components/drivers/i2c/i2c-bit-ops.c:68:5
	mov	r0, r4
	bl	i2c_delay
	movs	r0, #0
	.loc	3 71 1                          @ rt-thread/components/drivers/i2c/i2c-bit-ops.c:71:1
	pop	{r4, r5, r7, pc}
.Ltmp150:
.LBB9_6:
	@DEBUG_VALUE: SCL_H:start <- $r5
	@DEBUG_VALUE: SCL_H:ops <- $r4
	.loc	3 0 1 is_stmt 0                 @ rt-thread/components/drivers/i2c/i2c-bit-ops.c:0:1
	mvn	r0, #1
	.loc	3 71 1                          @ rt-thread/components/drivers/i2c/i2c-bit-ops.c:71:1
	pop	{r4, r5, r7, pc}
.Ltmp151:
.Lfunc_end9:
	.size	SCL_H, .Lfunc_end9-SCL_H
	.cfi_endproc
	.cantunwind
	.fnend
                                        @ -- End function
	.section	.text.i2c_send_address,"ax",%progbits
	.p2align	3                               @ -- Begin function i2c_send_address
	.type	i2c_send_address,%function
	.code	16                              @ @i2c_send_address
	.thumb_func
i2c_send_address:
.Lfunc_begin10:
	.loc	3 286 0 is_stmt 1               @ rt-thread/components/drivers/i2c/i2c-bit-ops.c:286:0
	.fnstart
	.cfi_startproc
@ %bb.0:
	@DEBUG_VALUE: i2c_send_address:bus <- $r0
	@DEBUG_VALUE: i2c_send_address:addr <- $r1
	@DEBUG_VALUE: i2c_send_address:retries <- $r2
	@DEBUG_VALUE: i2c_send_address:retries <- $r2
	.save	{r4, r5, r6, r7, lr}
	push	{r4, r5, r6, r7, lr}
	.cfi_def_cfa_offset 20
	.cfi_offset lr, -4
	.cfi_offset r7, -8
	.cfi_offset r6, -12
	.cfi_offset r5, -16
	.cfi_offset r4, -20
	.pad	#4
	sub	sp, #4
	.cfi_def_cfa_offset 24
.Ltmp152:
	.loc	3 291 5 prologue_end            @ rt-thread/components/drivers/i2c/i2c-bit-ops.c:291:5
	cmp	r2, #0
	@DEBUG_VALUE: i2c_send_address:addr <- $r1
.Ltmp153:
	@DEBUG_VALUE: i2c_send_address:i <- 0
	@DEBUG_VALUE: i2c_send_address:ret <- 0
	@DEBUG_VALUE: i2c_send_address:ops <- undef
	@DEBUG_VALUE: i2c_send_address:bus <- $r0
	bmi	.LBB10_3
.Ltmp154:
@ %bb.1:
	@DEBUG_VALUE: i2c_send_address:retries <- $r2
	@DEBUG_VALUE: i2c_send_address:addr <- $r1
	@DEBUG_VALUE: i2c_send_address:bus <- $r0
	@DEBUG_VALUE: i2c_send_address:ret <- 0
	@DEBUG_VALUE: i2c_send_address:i <- 0
	.loc	3 0 5 is_stmt 0                 @ rt-thread/components/drivers/i2c/i2c-bit-ops.c:0:5
	mov	r7, r2
.Ltmp155:
	@DEBUG_VALUE: i2c_send_address:retries <- $r7
	@DEBUG_VALUE: i2c_send_address:retries <- $r7
	mov	r4, r1
.Ltmp156:
	@DEBUG_VALUE: i2c_send_address:addr <- $r4
	mov	r5, r0
.Ltmp157:
	@DEBUG_VALUE: i2c_send_address:bus <- $r5
	@DEBUG_VALUE: i2c_send_address:addr <- $r4
	ldr.w	r6, [r0, #132]
	@DEBUG_VALUE: i2c_send_address:i <- 0
.Ltmp158:
	@DEBUG_VALUE: i2c_send_address:ops <- $r6
	.loc	3 293 15 is_stmt 1              @ rt-thread/components/drivers/i2c/i2c-bit-ops.c:293:15
	bl	i2c_writeb
.Ltmp159:
	@DEBUG_VALUE: i2c_send_address:ret <- $r0
	.loc	3 294 22                        @ rt-thread/components/drivers/i2c/i2c-bit-ops.c:294:22
	cmp	r0, #1
	bne	.LBB10_4
.Ltmp160:
@ %bb.2:
	@DEBUG_VALUE: i2c_send_address:retries <- $r7
	@DEBUG_VALUE: i2c_send_address:ops <- $r6
	@DEBUG_VALUE: i2c_send_address:bus <- $r5
	@DEBUG_VALUE: i2c_send_address:addr <- $r4
	@DEBUG_VALUE: i2c_send_address:ret <- $r0
	@DEBUG_VALUE: i2c_send_address:i <- 0
	.loc	3 0 22 is_stmt 0                @ rt-thread/components/drivers/i2c/i2c-bit-ops.c:0:22
	movs	r0, #1
.Ltmp161:
	@DEBUG_VALUE: i2c_send_address:ret <- $r0
	.loc	3 303 5 is_stmt 1               @ rt-thread/components/drivers/i2c/i2c-bit-ops.c:303:5
	add	sp, #4
	pop	{r4, r5, r6, r7, pc}
.Ltmp162:
.LBB10_3:
	@DEBUG_VALUE: i2c_send_address:retries <- $r2
	@DEBUG_VALUE: i2c_send_address:addr <- $r1
	@DEBUG_VALUE: i2c_send_address:bus <- $r0
	@DEBUG_VALUE: i2c_send_address:ret <- 0
	@DEBUG_VALUE: i2c_send_address:i <- 0
	.loc	3 0 5 is_stmt 0                 @ rt-thread/components/drivers/i2c/i2c-bit-ops.c:0:5
	movs	r0, #0
.Ltmp163:
	@DEBUG_VALUE: i2c_send_address:bus <- [DW_OP_LLVM_entry_value 1] $r0
	@DEBUG_VALUE: i2c_send_address:ret <- $r0
	.loc	3 303 5                         @ rt-thread/components/drivers/i2c/i2c-bit-ops.c:303:5
	add	sp, #4
	pop	{r4, r5, r6, r7, pc}
.Ltmp164:
.LBB10_4:
	@DEBUG_VALUE: i2c_send_address:retries <- $r7
	@DEBUG_VALUE: i2c_send_address:ops <- $r6
	@DEBUG_VALUE: i2c_send_address:bus <- $r5
	@DEBUG_VALUE: i2c_send_address:addr <- $r4
	@DEBUG_VALUE: i2c_send_address:ret <- $r0
	@DEBUG_VALUE: i2c_send_address:i <- 0
	.loc	3 294 13 is_stmt 1              @ rt-thread/components/drivers/i2c/i2c-bit-ops.c:294:13
	adds	r7, #1
.Ltmp165:
	@DEBUG_VALUE: i2c_send_address:retries <- [DW_OP_LLVM_entry_value 1] $r2
	.p2align	2
.LBB10_5:                               @ =>This Inner Loop Header: Depth=1
	@DEBUG_VALUE: i2c_send_address:ops <- $r6
	@DEBUG_VALUE: i2c_send_address:bus <- $r5
	@DEBUG_VALUE: i2c_send_address:addr <- $r4
	@DEBUG_VALUE: i2c_send_address:ret <- $r0
	@DEBUG_VALUE: i2c_send_address:retries <- [DW_OP_LLVM_entry_value 1] $r2
	@DEBUG_VALUE: i2c_send_address:i <- undef
	.loc	3 294 27 is_stmt 0              @ rt-thread/components/drivers/i2c/i2c-bit-ops.c:294:27
	subs	r7, #1
.Ltmp166:
	.loc	3 294 13                        @ rt-thread/components/drivers/i2c/i2c-bit-ops.c:294:13
	beq	.LBB10_8
.Ltmp167:
@ %bb.6:                                @   in Loop: Header=BB10_5 Depth=1
	@DEBUG_VALUE: i2c_send_address:ops <- $r6
	@DEBUG_VALUE: i2c_send_address:bus <- $r5
	@DEBUG_VALUE: i2c_send_address:addr <- $r4
	@DEBUG_VALUE: i2c_send_address:ret <- $r0
	@DEBUG_VALUE: i2c_send_address:retries <- [DW_OP_LLVM_entry_value 1] $r2
	.loc	3 297 9 is_stmt 1               @ rt-thread/components/drivers/i2c/i2c-bit-ops.c:297:9
	mov	r0, r6
.Ltmp168:
	bl	i2c_stop
	.loc	3 298 9                         @ rt-thread/components/drivers/i2c/i2c-bit-ops.c:298:9
	mov	r0, r6
	bl	i2c_delay2
	.loc	3 300 9                         @ rt-thread/components/drivers/i2c/i2c-bit-ops.c:300:9
	mov	r0, r6
	bl	i2c_start
.Ltmp169:
	@DEBUG_VALUE: i2c_send_address:i <- [DW_OP_plus_uconst 1, DW_OP_stack_value] undef
	@DEBUG_VALUE: i2c_send_address:ret <- undef
	.loc	3 293 15                        @ rt-thread/components/drivers/i2c/i2c-bit-ops.c:293:15
	mov	r0, r5
	mov	r1, r4
	bl	i2c_writeb
.Ltmp170:
	@DEBUG_VALUE: i2c_send_address:ret <- $r0
	.loc	3 294 22                        @ rt-thread/components/drivers/i2c/i2c-bit-ops.c:294:22
	cmp	r0, #1
	bne	.LBB10_5
.Ltmp171:
@ %bb.7:
	@DEBUG_VALUE: i2c_send_address:ops <- $r6
	@DEBUG_VALUE: i2c_send_address:bus <- $r5
	@DEBUG_VALUE: i2c_send_address:addr <- $r4
	@DEBUG_VALUE: i2c_send_address:ret <- $r0
	@DEBUG_VALUE: i2c_send_address:retries <- [DW_OP_LLVM_entry_value 1] $r2
	.loc	3 0 22 is_stmt 0                @ rt-thread/components/drivers/i2c/i2c-bit-ops.c:0:22
	movs	r0, #1
.Ltmp172:
.LBB10_8:
	@DEBUG_VALUE: i2c_send_address:ops <- $r6
	@DEBUG_VALUE: i2c_send_address:bus <- $r5
	@DEBUG_VALUE: i2c_send_address:addr <- $r4
	@DEBUG_VALUE: i2c_send_address:retries <- [DW_OP_LLVM_entry_value 1] $r2
	@DEBUG_VALUE: i2c_send_address:ret <- $r0
	.loc	3 303 5 is_stmt 1               @ rt-thread/components/drivers/i2c/i2c-bit-ops.c:303:5
	add	sp, #4
	pop	{r4, r5, r6, r7, pc}
.Ltmp173:
.Lfunc_end10:
	.size	i2c_send_address, .Lfunc_end10-i2c_send_address
	.cfi_endproc
	.cantunwind
	.fnend
                                        @ -- End function
	.section	.text.i2c_writeb,"ax",%progbits
	.p2align	3                               @ -- Begin function i2c_writeb
	.type	i2c_writeb,%function
	.code	16                              @ @i2c_writeb
	.thumb_func
i2c_writeb:
.Lfunc_begin11:
	.loc	3 133 0                         @ rt-thread/components/drivers/i2c/i2c-bit-ops.c:133:0
	.fnstart
	.cfi_startproc
@ %bb.0:
	@DEBUG_VALUE: i2c_writeb:bus <- $r0
	@DEBUG_VALUE: i2c_writeb:data <- $r1
	.save	{r4, r5, r6, lr}
	push	{r4, r5, r6, lr}
	.cfi_def_cfa_offset 16
	.cfi_offset lr, -4
	.cfi_offset r6, -8
	.cfi_offset r5, -12
	.cfi_offset r4, -16
	mov	r5, r1
.Ltmp174:
	@DEBUG_VALUE: i2c_writeb:data <- $r5
	@DEBUG_VALUE: i2c_writeb:data <- $r5
	@DEBUG_VALUE: i2c_writeb:bus <- $r0
	.loc	3 137 64 prologue_end           @ rt-thread/components/drivers/i2c/i2c-bit-ops.c:137:64
	ldr.w	r4, [r0, #132]
.Ltmp175:
	@DEBUG_VALUE: i2c_writeb:ops <- $r4
	.loc	3 0 64 is_stmt 0                @ rt-thread/components/drivers/i2c/i2c-bit-ops.c:0:64
	movs	r6, #7
.Ltmp176:
	@DEBUG_VALUE: i2c_writeb:i <- 7
	.p2align	2
.LBB11_1:                               @ =>This Inner Loop Header: Depth=1
	@DEBUG_VALUE: i2c_writeb:data <- $r5
	@DEBUG_VALUE: i2c_writeb:ops <- $r4
	@DEBUG_VALUE: i2c_writeb:i <- $r6
	.loc	3 141 9 is_stmt 1               @ rt-thread/components/drivers/i2c/i2c-bit-ops.c:141:9
	ldr	r0, [r4]
.Ltmp177:
	@DEBUG_VALUE: i2c_writeb:bus <- [DW_OP_LLVM_entry_value 1] $r0
	movs	r1, #0
	ldr	r2, [r4, #8]
	blx	r2
	.loc	3 142 21                        @ rt-thread/components/drivers/i2c/i2c-bit-ops.c:142:21
	lsr.w	r0, r5, r6
	.loc	3 142 15 is_stmt 0              @ rt-thread/components/drivers/i2c/i2c-bit-ops.c:142:15
	and	r1, r0, #1
.Ltmp178:
	@DEBUG_VALUE: i2c_writeb:bit <- [DW_OP_LLVM_convert 32 7, DW_OP_LLVM_convert 8 7, DW_OP_constu 1, DW_OP_and, DW_OP_stack_value] undef
	.loc	3 143 9 is_stmt 1               @ rt-thread/components/drivers/i2c/i2c-bit-ops.c:143:9
	ldrd	r0, r2, [r4]
	blx	r2
	.loc	3 144 9                         @ rt-thread/components/drivers/i2c/i2c-bit-ops.c:144:9
	mov	r0, r4
	bl	i2c_delay
.Ltmp179:
	.loc	3 145 13                        @ rt-thread/components/drivers/i2c/i2c-bit-ops.c:145:13
	mov	r0, r4
	bl	SCL_H
.Ltmp180:
	@DEBUG_VALUE: i2c_writeb:i <- [DW_OP_constu 1, DW_OP_minus, DW_OP_stack_value] $r6
	.loc	3 145 13 is_stmt 0              @ rt-thread/components/drivers/i2c/i2c-bit-ops.c:145:13
	cmp	r0, #0
	bmi	.LBB11_4
.Ltmp181:
@ %bb.2:                                @   in Loop: Header=BB11_1 Depth=1
	@DEBUG_VALUE: i2c_writeb:i <- [DW_OP_constu 1, DW_OP_minus, DW_OP_stack_value] $r6
	@DEBUG_VALUE: i2c_writeb:data <- $r5
	@DEBUG_VALUE: i2c_writeb:ops <- $r4
	.loc	3 139 26 is_stmt 1              @ rt-thread/components/drivers/i2c/i2c-bit-ops.c:139:26
	subs	r6, #1
.Ltmp182:
	@DEBUG_VALUE: i2c_writeb:i <- [DW_OP_constu 1, DW_OP_minus, DW_OP_stack_value] $r6
	.loc	3 139 5 is_stmt 0               @ rt-thread/components/drivers/i2c/i2c-bit-ops.c:139:5
	adds	r0, r6, #1
	bne	.LBB11_1
.Ltmp183:
@ %bb.3:
	@DEBUG_VALUE: i2c_writeb:i <- [DW_OP_constu 1, DW_OP_minus, DW_OP_stack_value] $r6
	@DEBUG_VALUE: i2c_writeb:data <- $r5
	@DEBUG_VALUE: i2c_writeb:ops <- $r4
	.loc	3 154 5 is_stmt 1               @ rt-thread/components/drivers/i2c/i2c-bit-ops.c:154:5
	ldr	r0, [r4]
	movs	r1, #0
	ldr	r2, [r4, #8]
	blx	r2
	.loc	3 155 5                         @ rt-thread/components/drivers/i2c/i2c-bit-ops.c:155:5
	mov	r0, r4
	bl	i2c_delay
	.loc	3 157 12                        @ rt-thread/components/drivers/i2c/i2c-bit-ops.c:157:12
	mov	r0, r4
	bl	i2c_waitack
	.loc	3 158 1                         @ rt-thread/components/drivers/i2c/i2c-bit-ops.c:158:1
	pop	{r4, r5, r6, pc}
.Ltmp184:
.LBB11_4:
	@DEBUG_VALUE: i2c_writeb:i <- [DW_OP_constu 1, DW_OP_minus, DW_OP_stack_value] $r6
	@DEBUG_VALUE: i2c_writeb:data <- $r5
	@DEBUG_VALUE: i2c_writeb:ops <- $r4
	.loc	3 0 1 is_stmt 0                 @ rt-thread/components/drivers/i2c/i2c-bit-ops.c:0:1
	mvn	r0, #1
	.loc	3 158 1                         @ rt-thread/components/drivers/i2c/i2c-bit-ops.c:158:1
	pop	{r4, r5, r6, pc}
.Ltmp185:
.Lfunc_end11:
	.size	i2c_writeb, .Lfunc_end11-i2c_writeb
	.cfi_endproc
	.cantunwind
	.fnend
                                        @ -- End function
	.section	.text.i2c_delay2,"ax",%progbits
	.p2align	3                               @ -- Begin function i2c_delay2
	.type	i2c_delay2,%function
	.code	16                              @ @i2c_delay2
	.thumb_func
i2c_delay2:
.Lfunc_begin12:
	.loc	3 32 0 is_stmt 1                @ rt-thread/components/drivers/i2c/i2c-bit-ops.c:32:0
	.fnstart
	.cfi_startproc
@ %bb.0:
	@DEBUG_VALUE: i2c_delay2:ops <- $r0
	@DEBUG_VALUE: i2c_delay2:ops <- $r0
	.save	{r7, lr}
	push	{r7, lr}
	.cfi_def_cfa_offset 8
	.cfi_offset lr, -4
	.cfi_offset r7, -8
.Ltmp186:
	.loc	3 33 10 prologue_end            @ rt-thread/components/drivers/i2c/i2c-bit-ops.c:33:10
	ldrd	r1, r0, [r0, #20]
.Ltmp187:
	@DEBUG_VALUE: i2c_delay2:ops <- [DW_OP_LLVM_entry_value 1] $r0
	.loc	3 33 5 is_stmt 0                @ rt-thread/components/drivers/i2c/i2c-bit-ops.c:33:5
	blx	r1
	.loc	3 34 1 is_stmt 1                @ rt-thread/components/drivers/i2c/i2c-bit-ops.c:34:1
	pop	{r7, pc}
.Ltmp188:
.Lfunc_end12:
	.size	i2c_delay2, .Lfunc_end12-i2c_delay2
	.cfi_endproc
	.cantunwind
	.fnend
                                        @ -- End function
	.section	.text.i2c_waitack,"ax",%progbits
	.p2align	3                               @ -- Begin function i2c_waitack
	.type	i2c_waitack,%function
	.code	16                              @ @i2c_waitack
	.thumb_func
i2c_waitack:
.Lfunc_begin13:
	.loc	3 111 0                         @ rt-thread/components/drivers/i2c/i2c-bit-ops.c:111:0
	.fnstart
	.cfi_startproc
@ %bb.0:
	@DEBUG_VALUE: i2c_waitack:ops <- $r0
	.save	{r4, r5, r7, lr}
	push	{r4, r5, r7, lr}
	.cfi_def_cfa_offset 16
	.cfi_offset lr, -4
	.cfi_offset r7, -8
	.cfi_offset r5, -12
	.cfi_offset r4, -16
	mov	r4, r0
.Ltmp189:
	@DEBUG_VALUE: i2c_waitack:ops <- $r4
	.loc	3 114 5 prologue_end            @ rt-thread/components/drivers/i2c/i2c-bit-ops.c:114:5
	ldr	r0, [r0]
	movs	r1, #1
	ldr	r2, [r4, #4]
	blx	r2
	.loc	3 115 5                         @ rt-thread/components/drivers/i2c/i2c-bit-ops.c:115:5
	mov	r0, r4
	bl	i2c_delay
.Ltmp190:
	.loc	3 117 9                         @ rt-thread/components/drivers/i2c/i2c-bit-ops.c:117:9
	mov	r0, r4
	bl	SCL_H
.Ltmp191:
	.loc	3 117 9 is_stmt 0               @ rt-thread/components/drivers/i2c/i2c-bit-ops.c:117:9
	cmp.w	r0, #-1
	ble	.LBB13_2
.Ltmp192:
@ %bb.1:
	@DEBUG_VALUE: i2c_waitack:ops <- $r4
	.loc	3 124 12 is_stmt 1              @ rt-thread/components/drivers/i2c/i2c-bit-ops.c:124:12
	ldr	r0, [r4]
	ldr	r1, [r4, #12]
	blx	r1
	.loc	3 124 11 is_stmt 0              @ rt-thread/components/drivers/i2c/i2c-bit-ops.c:124:11
	clz	r0, r0
	.loc	3 127 5 is_stmt 1               @ rt-thread/components/drivers/i2c/i2c-bit-ops.c:127:5
	ldr	r2, [r4, #8]
	.loc	3 124 11                        @ rt-thread/components/drivers/i2c/i2c-bit-ops.c:124:11
	lsrs	r5, r0, #5
.Ltmp193:
	@DEBUG_VALUE: i2c_waitack:ack <- $r5
	.loc	3 127 5                         @ rt-thread/components/drivers/i2c/i2c-bit-ops.c:127:5
	ldr	r0, [r4]
	movs	r1, #0
	blx	r2
	.loc	3 130 1                         @ rt-thread/components/drivers/i2c/i2c-bit-ops.c:130:1
	mov	r0, r5
	pop	{r4, r5, r7, pc}
.Ltmp194:
.LBB13_2:
	@DEBUG_VALUE: i2c_waitack:ops <- $r4
	.loc	3 119 9                         @ rt-thread/components/drivers/i2c/i2c-bit-ops.c:119:9
	movw	r0, :lower16:.L.str
	movt	r0, :upper16:.L.str
	bl	rt_kprintf
	adr	r0, .LCPI13_0
	bl	rt_kprintf
	movw	r0, :lower16:.L.str.2
	movt	r0, :upper16:.L.str.2
	bl	rt_kprintf
	mvn	r0, #1
.Ltmp195:
	.loc	3 130 1                         @ rt-thread/components/drivers/i2c/i2c-bit-ops.c:130:1
	pop	{r4, r5, r7, pc}
.Ltmp196:
	.p2align	2
@ %bb.3:
	.loc	3 0 1 is_stmt 0                 @ rt-thread/components/drivers/i2c/i2c-bit-ops.c:0:1
.LCPI13_0:
.L.str.6:
	.asciz	"wait ack timeout\000\000\000"
.Lfunc_end13:
	.size	i2c_waitack, .Lfunc_end13-i2c_waitack
	.cfi_endproc
	.cantunwind
	.fnend
                                        @ -- End function
	.section	.text.i2c_readb,"ax",%progbits
	.p2align	3                               @ -- Begin function i2c_readb
	.type	i2c_readb,%function
	.code	16                              @ @i2c_readb
	.thumb_func
i2c_readb:
.Lfunc_begin14:
	.loc	3 161 0 is_stmt 1               @ rt-thread/components/drivers/i2c/i2c-bit-ops.c:161:0
	.fnstart
	.cfi_startproc
@ %bb.0:
	@DEBUG_VALUE: i2c_readb:bus <- $r0
	@DEBUG_VALUE: i2c_readb:bus <- $r0
	.save	{r4, r5, r6, lr}
	push	{r4, r5, r6, lr}
	.cfi_def_cfa_offset 16
	.cfi_offset lr, -4
	.cfi_offset r6, -8
	.cfi_offset r5, -12
	.cfi_offset r4, -16
.Ltmp197:
	@DEBUG_VALUE: i2c_readb:data <- 0
	.loc	3 164 64 prologue_end           @ rt-thread/components/drivers/i2c/i2c-bit-ops.c:164:64
	ldr.w	r4, [r0, #132]
.Ltmp198:
	@DEBUG_VALUE: i2c_readb:ops <- $r4
	.loc	3 166 5                         @ rt-thread/components/drivers/i2c/i2c-bit-ops.c:166:5
	movs	r1, #1
	ldrd	r0, r2, [r4]
.Ltmp199:
	@DEBUG_VALUE: i2c_readb:bus <- [DW_OP_LLVM_entry_value 1] $r0
	blx	r2
	.loc	3 167 5                         @ rt-thread/components/drivers/i2c/i2c-bit-ops.c:167:5
	mov	r0, r4
	bl	i2c_delay
	movs	r5, #0
.Ltmp200:
	@DEBUG_VALUE: i2c_readb:i <- 0
	.loc	3 0 5 is_stmt 0                 @ rt-thread/components/drivers/i2c/i2c-bit-ops.c:0:5
	movs	r6, #0
.Ltmp201:
	.p2align	2
.LBB14_1:                               @ =>This Inner Loop Header: Depth=1
	@DEBUG_VALUE: i2c_readb:ops <- $r4
	@DEBUG_VALUE: i2c_readb:bus <- [DW_OP_LLVM_entry_value 1] $r0
	@DEBUG_VALUE: i2c_readb:data <- [DW_OP_constu 1, DW_OP_shl, DW_OP_stack_value] $r5
	@DEBUG_VALUE: i2c_readb:i <- $r6
	.loc	3 172 13 is_stmt 1              @ rt-thread/components/drivers/i2c/i2c-bit-ops.c:172:13
	mov	r0, r4
	bl	SCL_H
.Ltmp202:
	.loc	3 172 13 is_stmt 0              @ rt-thread/components/drivers/i2c/i2c-bit-ops.c:172:13
	cmp	r0, #0
	bmi	.LBB14_4
.Ltmp203:
@ %bb.2:                                @   in Loop: Header=BB14_1 Depth=1
	@DEBUG_VALUE: i2c_readb:i <- $r6
	@DEBUG_VALUE: i2c_readb:data <- [DW_OP_constu 1, DW_OP_shl, DW_OP_stack_value] $r5
	@DEBUG_VALUE: i2c_readb:ops <- $r4
	@DEBUG_VALUE: i2c_readb:bus <- [DW_OP_LLVM_entry_value 1] $r0
	@DEBUG_VALUE: i2c_readb:data <- undef
	.loc	3 180 13 is_stmt 1              @ rt-thread/components/drivers/i2c/i2c-bit-ops.c:180:13
	ldr	r0, [r4]
	ldr	r1, [r4, #12]
	blx	r1
	cmp	r0, #0
.Ltmp204:
	.loc	3 182 9                         @ rt-thread/components/drivers/i2c/i2c-bit-ops.c:182:9
	mov.w	r1, #0
.Ltmp205:
	.loc	3 180 13                        @ rt-thread/components/drivers/i2c/i2c-bit-ops.c:180:13
	it	ne
	movne	r0, #1
.Ltmp206:
	.loc	3 182 9                         @ rt-thread/components/drivers/i2c/i2c-bit-ops.c:182:9
	ldr	r2, [r4, #8]
	.loc	3 180 13                        @ rt-thread/components/drivers/i2c/i2c-bit-ops.c:180:13
	orr.w	r5, r0, r5, lsl #1
.Ltmp207:
	@DEBUG_VALUE: i2c_readb:data <- $r5
	.loc	3 182 9                         @ rt-thread/components/drivers/i2c/i2c-bit-ops.c:182:9
	ldr	r0, [r4]
	blx	r2
	.loc	3 183 9                         @ rt-thread/components/drivers/i2c/i2c-bit-ops.c:183:9
	mov	r0, r4
	bl	i2c_delay2
.Ltmp208:
	.loc	3 168 5                         @ rt-thread/components/drivers/i2c/i2c-bit-ops.c:168:5
	cmp	r6, #7
.Ltmp209:
	.loc	3 168 25 is_stmt 0              @ rt-thread/components/drivers/i2c/i2c-bit-ops.c:168:25
	add.w	r6, r6, #1
.Ltmp210:
	@DEBUG_VALUE: i2c_readb:i <- $r6
	@DEBUG_VALUE: i2c_readb:i <- $r6
	.loc	3 168 5                         @ rt-thread/components/drivers/i2c/i2c-bit-ops.c:168:5
	blo	.LBB14_1
.Ltmp211:
@ %bb.3:
	@DEBUG_VALUE: i2c_readb:i <- $r6
	@DEBUG_VALUE: i2c_readb:data <- $r5
	@DEBUG_VALUE: i2c_readb:ops <- $r4
	@DEBUG_VALUE: i2c_readb:bus <- [DW_OP_LLVM_entry_value 1] $r0
	.loc	3 186 12 is_stmt 1              @ rt-thread/components/drivers/i2c/i2c-bit-ops.c:186:12
	uxtb	r0, r5
	.loc	3 187 1                         @ rt-thread/components/drivers/i2c/i2c-bit-ops.c:187:1
	pop	{r4, r5, r6, pc}
.Ltmp212:
.LBB14_4:
	@DEBUG_VALUE: i2c_readb:i <- $r6
	@DEBUG_VALUE: i2c_readb:data <- [DW_OP_constu 1, DW_OP_shl, DW_OP_stack_value] $r5
	@DEBUG_VALUE: i2c_readb:ops <- $r4
	@DEBUG_VALUE: i2c_readb:bus <- [DW_OP_LLVM_entry_value 1] $r0
	.loc	3 0 1 is_stmt 0                 @ rt-thread/components/drivers/i2c/i2c-bit-ops.c:0:1
	mvn	r0, #1
	.loc	3 187 1                         @ rt-thread/components/drivers/i2c/i2c-bit-ops.c:187:1
	pop	{r4, r5, r6, pc}
.Ltmp213:
.Lfunc_end14:
	.size	i2c_readb, .Lfunc_end14-i2c_readb
	.cfi_endproc
	.cantunwind
	.fnend
                                        @ -- End function
	.section	.text.i2c_send_ack_or_nack,"ax",%progbits
	.p2align	3                               @ -- Begin function i2c_send_ack_or_nack
	.type	i2c_send_ack_or_nack,%function
	.code	16                              @ @i2c_send_ack_or_nack
	.thumb_func
i2c_send_ack_or_nack:
.Lfunc_begin15:
	.loc	3 226 0 is_stmt 1               @ rt-thread/components/drivers/i2c/i2c-bit-ops.c:226:0
	.fnstart
	.cfi_startproc
@ %bb.0:
	@DEBUG_VALUE: i2c_send_ack_or_nack:bus <- $r0
	@DEBUG_VALUE: i2c_send_ack_or_nack:ack <- $r1
	@DEBUG_VALUE: i2c_send_ack_or_nack:ack <- $r1
	.save	{r4, lr}
	push	{r4, lr}
	.cfi_def_cfa_offset 8
	.cfi_offset lr, -4
	.cfi_offset r4, -8
	@DEBUG_VALUE: i2c_send_ack_or_nack:bus <- $r0
.Ltmp214:
	.loc	3 227 64 prologue_end           @ rt-thread/components/drivers/i2c/i2c-bit-ops.c:227:64
	ldr.w	r4, [r0, #132]
.Ltmp215:
	@DEBUG_VALUE: i2c_send_ack_or_nack:ops <- $r4
	.loc	3 229 9                         @ rt-thread/components/drivers/i2c/i2c-bit-ops.c:229:9
	cbz	r1, .LBB15_2
.Ltmp216:
@ %bb.1:
	@DEBUG_VALUE: i2c_send_ack_or_nack:ops <- $r4
	@DEBUG_VALUE: i2c_send_ack_or_nack:ack <- $r1
	@DEBUG_VALUE: i2c_send_ack_or_nack:bus <- $r0
	.loc	3 230 9                         @ rt-thread/components/drivers/i2c/i2c-bit-ops.c:230:9
	ldrd	r0, r2, [r4]
.Ltmp217:
	@DEBUG_VALUE: i2c_send_ack_or_nack:bus <- [DW_OP_LLVM_entry_value 1] $r0
	movs	r1, #0
.Ltmp218:
	@DEBUG_VALUE: i2c_send_ack_or_nack:ack <- [DW_OP_LLVM_entry_value 1] $r1
	blx	r2
.Ltmp219:
.LBB15_2:
	@DEBUG_VALUE: i2c_send_ack_or_nack:ops <- $r4
	.loc	3 231 5                         @ rt-thread/components/drivers/i2c/i2c-bit-ops.c:231:5
	mov	r0, r4
	bl	i2c_delay
.Ltmp220:
	.loc	3 232 9                         @ rt-thread/components/drivers/i2c/i2c-bit-ops.c:232:9
	mov	r0, r4
	bl	SCL_H
.Ltmp221:
	.loc	3 232 9 is_stmt 0               @ rt-thread/components/drivers/i2c/i2c-bit-ops.c:232:9
	cmp.w	r0, #-1
	ble	.LBB15_4
.Ltmp222:
@ %bb.3:
	@DEBUG_VALUE: i2c_send_ack_or_nack:ops <- $r4
	.loc	3 238 5 is_stmt 1               @ rt-thread/components/drivers/i2c/i2c-bit-ops.c:238:5
	ldr	r0, [r4]
	movs	r1, #0
	ldr	r2, [r4, #8]
	movs	r4, #0
.Ltmp223:
	blx	r2
	.loc	3 241 1                         @ rt-thread/components/drivers/i2c/i2c-bit-ops.c:241:1
	mov	r0, r4
	pop	{r4, pc}
.LBB15_4:
.Ltmp224:
	@DEBUG_VALUE: i2c_send_ack_or_nack:ops <- $r4
	.loc	3 234 9                         @ rt-thread/components/drivers/i2c/i2c-bit-ops.c:234:9
	movw	r0, :lower16:.L.str.4
	movt	r0, :upper16:.L.str.4
	bl	rt_kprintf
	adr	r0, .LCPI15_0
	bl	rt_kprintf
	movw	r0, :lower16:.L.str.2
	movt	r0, :upper16:.L.str.2
	bl	rt_kprintf
	mvn	r0, #1
.Ltmp225:
	.loc	3 241 1                         @ rt-thread/components/drivers/i2c/i2c-bit-ops.c:241:1
	pop	{r4, pc}
.Ltmp226:
	.p2align	2
@ %bb.5:
	.loc	3 0 1 is_stmt 0                 @ rt-thread/components/drivers/i2c/i2c-bit-ops.c:0:1
.LCPI15_0:
.L.str.7:
	.asciz	"ACK or NACK timeout.\000\000\000"
.Lfunc_end15:
	.size	i2c_send_ack_or_nack, .Lfunc_end15-i2c_send_ack_or_nack
	.cfi_endproc
	.cantunwind
	.fnend
                                        @ -- End function
	.type	i2c_bit_bus_ops,%object         @ @i2c_bit_bus_ops
	.section	.rodata.i2c_bit_bus_ops,"a",%progbits
	.p2align	2
i2c_bit_bus_ops:
	.long	i2c_bit_xfer
	.long	0
	.long	0
	.size	i2c_bit_bus_ops, 12

	.type	.L.str,%object                  @ @.str
	.section	.rodata.str1.1,"aMS",%progbits,1
.L.str:
	.asciz	"[W/I2C] "
	.size	.L.str, 9

	.type	.L.str.2,%object                @ @.str.2
.L.str.2:
	.asciz	"\n"
	.size	.L.str.2, 2

	.type	.L.str.4,%object                @ @.str.4
.L.str.4:
	.asciz	"[E/I2C] "
	.size	.L.str.4, 9

	.section	".note.GNU-stack","",%progbits
	.eabi_attribute	30, 1	@ Tag_ABI_optimization_goals
	.ARM_attribute	16, 1	@ Tag_AV_eba