	.text
	.syntax unified
	.eabi_attribute	67, "2.09"	@ Tag_conformance
	.cpu	cortex-m7
	.eabi_attribute	6, 13	@ Tag_CPU_arch
	.eabi_attribute	7, 77	@ Tag_CPU_arch_profile
	.eabi_attribute	8, 0	@ Tag_ARM_ISA_use
	.eabi_attribute	9, 2	@ Tag_THUMB_ISA_use
	.fpu	fpv5-d16
	.eabi_attribute	36, 1	@ Tag_FP_HP_extension
	.eabi_attribute	34, 1	@ Tag_CPU_unaligned_access
	.eabi_attribute	17, 1	@ Tag_ABI_PCS_GOT_use
	.eabi_attribute	20, 2	@ Tag_ABI_FP_denormal
	.eabi_attribute	21, 0	@ Tag_ABI_FP_exceptions
	.eabi_attribute	23, 1	@ Tag_ABI_FP_number_model
	.eabi_attribute	24, 1	@ Tag_ABI_align_needed
	.eabi_attribute	25, 1	@ Tag_ABI_align_preserved
	.eabi_attribute	28, 1	@ Tag_ABI_VFP_args
	.eabi_attribute	38, 1	@ Tag_ABI_FP_16bit_format
	.eabi_attribute	18, 2	@ Tag_ABI_PCS_wchar_t
	.eabi_attribute	26, 1	@ Tag_ABI_enum_size
	.eabi_attribute	14, 0	@ Tag_ABI_PCS_R9_use
	.file	"i2c_dev.c"
	.file	1 "E:\\Smart-access-control\\Hardware\\CODE" "rt-thread/include\\rtdef.h"
	.file	2 "E:\\Smart-access-control\\Hardware\\CODE" "rt-thread/components/drivers/include/drivers/i2c.h"
	.file	3 "E:\\Smart-access-control\\Hardware\\CODE" "rt-thread/components/drivers/include/drivers/i2c_dev.h"
	.section	.text.rt_i2c_bus_device_device_init,"ax",%progbits
	.hidden	rt_i2c_bus_device_device_init   @ -- Begin function rt_i2c_bus_device_device_init
	.globl	rt_i2c_bus_device_device_init
	.p2align	3
	.type	rt_i2c_bus_device_device_init,%function
	.code	16                              @ @rt_i2c_bus_device_device_init
	.thumb_func
rt_i2c_bus_device_device_init:
.Lfunc_begin0:
	.file	4 "E:\\Smart-access-control\\Hardware\\CODE" "rt-thread/components/drivers/i2c/i2c_dev.c"
	.loc	4 113 0                         @ rt-thread/components/drivers/i2c/i2c_dev.c:113:0
	.fnstart
	.cfi_sections .debug_frame
	.cfi_startproc
@ %bb.0:
	.save	{r7, lr}
	push	{r7, lr}
	.cfi_def_cfa_offset 8
	.cfi_offset lr, -4
	.cfi_offset r7, -8
	.pad	#16
	sub	sp, #16
	.cfi_def_cfa_offset 24
	str	r0, [sp, #12]
	str	r1, [sp, #8]
.Ltmp0:
	.loc	4 115 5 prologue_end            @ rt-thread/components/drivers/i2c/i2c_dev.c:115:5
	ldr	r0, [sp, #12]
.Ltmp1:
	.loc	4 115 5 is_stmt 0               @ rt-thread/components/drivers/i2c/i2c_dev.c:115:5
	cbnz	r0, .LBB0_2
	b	.LBB0_1
.LBB0_1:
.Ltmp2:
	.loc	4 115 5                         @ rt-thread/components/drivers/i2c/i2c_dev.c:115:5
	movw	r0, :lower16:.L.str
	movt	r0, :upper16:.L.str
	movw	r1, :lower16:.L__FUNCTION__.rt_i2c_bus_device_device_init
	movt	r1, :upper16:.L__FUNCTION__.rt_i2c_bus_device_device_init
	movs	r2, #115
	bl	rt_assert_handler
	b	.LBB0_2
.Ltmp3:
.LBB0_2:
	.loc	4 117 15 is_stmt 1              @ rt-thread/components/drivers/i2c/i2c_dev.c:117:15
	ldr	r0, [sp, #12]
	.loc	4 117 12 is_stmt 0              @ rt-thread/components/drivers/i2c/i2c_dev.c:117:12
	str	r0, [sp, #4]
	.loc	4 119 25 is_stmt 1              @ rt-thread/components/drivers/i2c/i2c_dev.c:119:25
	ldr	r0, [sp, #12]
	.loc	4 119 5 is_stmt 0               @ rt-thread/components/drivers/i2c/i2c_dev.c:119:5
	ldr	r1, [sp, #4]
	.loc	4 119 23                        @ rt-thread/components/drivers/i2c/i2c_dev.c:119:23
	str	r0, [r1, #76]
	.loc	4 122 5 is_stmt 1               @ rt-thread/components/drivers/i2c/i2c_dev.c:122:5
	ldr	r1, [sp, #4]
	movs	r0, #8
	.loc	4 122 21 is_stmt 0              @ rt-thread/components/drivers/i2c/i2c_dev.c:122:21
	strb	r0, [r1, #20]
	.loc	4 127 5 is_stmt 1               @ rt-thread/components/drivers/i2c/i2c_dev.c:127:5
	ldr	r1, [sp, #4]
	movs	r0, #0
	.loc	4 127 21 is_stmt 0              @ rt-thread/components/drivers/i2c/i2c_dev.c:127:21
	str	r0, [sp]                        @ 4-byte Spill
	str	r0, [r1, #36]
	.loc	4 128 5 is_stmt 1               @ rt-thread/components/drivers/i2c/i2c_dev.c:128:5
	ldr	r1, [sp, #4]
	.loc	4 128 21 is_stmt 0              @ rt-thread/components/drivers/i2c/i2c_dev.c:128:21
	str	r0, [r1, #40]
	.loc	4 129 5 is_stmt 1               @ rt-thread/components/drivers/i2c/i2c_dev.c:129:5
	ldr	r1, [sp, #4]
	.loc	4 129 21 is_stmt 0              @ rt-thread/components/drivers/i2c/i2c_dev.c:129:21
	str	r0, [r1, #44]
	.loc	4 130 5 is_stmt 1               @ rt-thread/components/drivers/i2c/i2c_dev.c:130:5
	ldr	r1, [sp, #4]
	.loc	4 130 21 is_stmt 0              @ rt-thread/components/drivers/i2c/i2c_dev.c:130:21
	movw	r0, :lower16:i2c_bus_device_read
	movt	r0, :upper16:i2c_bus_device_read
	str	r0, [r1, #48]
	.loc	4 131 5 is_stmt 1               @ rt-thread/components/drivers/i2c/i2c_dev.c:131:5
	ldr	r1, [sp, #4]
	.loc	4 131 21 is_stmt 0              @ rt-thread/components/drivers/i2c/i2c_dev.c:131:21
	movw	r0, :lower16:i2c_bus_device_write
	movt	r0, :upper16:i2c_bus_device_write
	str	r0, [r1, #52]
	.loc	4 132 5 is_stmt 1               @ rt-thread/components/drivers/i2c/i2c_dev.c:132:5
	ldr	r1, [sp, #4]
	.loc	4 132 21 is_stmt 0              @ rt-thread/components/drivers/i2c/i2c_dev.c:132:21
	movw	r0, :lower16:i2c_bus_device_control
	movt	r0, :upper16:i2c_bus_device_control
	str	r0, [r1, #56]
	.loc	4 136 24 is_stmt 1              @ rt-thread/components/drivers/i2c/i2c_dev.c:136:24
	ldr	r0, [sp, #4]
	.loc	4 136 32 is_stmt 0              @ rt-thread/components/drivers/i2c/i2c_dev.c:136:32
	ldr	r1, [sp, #8]
	movs	r2, #3
	.loc	4 136 5                         @ rt-thread/components/drivers/i2c/i2c_dev.c:136:5
	bl	rt_device_register
                                        @ kill: def $r1 killed $r0
	.loc	4 138 5 is_stmt 1               @ rt-thread/components/drivers/i2c/i2c_dev.c:138:5
	ldr	r0, [sp]                        @ 4-byte Reload
	add	sp, #16
	pop	{r7, pc}
.Ltmp4:
.Lfunc_end0:
	.size	rt_i2c_bus_device_device_init, .Lfunc_end0-rt_i2c_bus_device_device_init
	.cfi_endproc
	.cantunwind
	.fnend
                                        @ -- End function
	.section	.text.i2c_bus_device_read,"ax",%progbits
	.p2align	3                               @ -- Begin function i2c_bus_device_read
	.type	i2c_bus_device_read,%function
	.code	16                              @ @i2c_bus_device_read
	.thumb_func
i2c_bus_device_read:
.Lfunc_begin1:
	.loc	4 26 0                          @ rt-thread/components/drivers/i2c/i2c_dev.c:26:0
	.fnstart
	.cfi_startproc
@ %bb.0:
	.save	{r7, lr}
	push	{r7, lr}
	.cfi_def_cfa_offset 8
	.cfi_offset lr, -4
	.cfi_offset r7, -8
	.pad	#32
	sub	sp, #32
	.cfi_def_cfa_offset 40
	str	r0, [sp, #28]
	str	r1, [sp, #24]
	str	r2, [sp, #20]
	str	r3, [sp, #16]
.Ltmp5:
	.loc	4 29 65 prologue_end            @ rt-thread/components/drivers/i2c/i2c_dev.c:29:65
	ldr	r0, [sp, #28]
	.loc	4 29 70 is_stmt 0               @ rt-thread/components/drivers/i2c/i2c_dev.c:29:70
	ldr	r0, [r0, #76]
	.loc	4 29 31                         @ rt-thread/components/drivers/i2c/i2c_dev.c:29:31
	str	r0, [sp, #8]
.Ltmp6:
	.loc	4 31 5 is_stmt 1                @ rt-thread/components/drivers/i2c/i2c_dev.c:31:5
	ldr	r0, [sp, #8]
.Ltmp7:
	.loc	4 31 5 is_stmt 0                @ rt-thread/components/drivers/i2c/i2c_dev.c:31:5
	cbnz	r0, .LBB1_2
	b	.LBB1_1
.LBB1_1:
.Ltmp8:
	.loc	4 31 5                          @ rt-thread/components/drivers/i2c/i2c_dev.c:31:5
	movw	r0, :lower16:.L.str
	movt	r0, :upper16:.L.str
	movw	r1, :lower16:.L__FUNCTION__.i2c_bus_device_read
	movt	r1, :upper16:.L__FUNCTION__.i2c_bus_device_read
	movs	r2, #31
	bl	rt_assert_handler
	b	.LBB1_2
.Ltmp9:
.LBB1_2:
	.loc	4 32 5 is_stmt 1                @ rt-thread/components/drivers/i2c/i2c_dev.c:32:5
	ldr	r0, [sp, #20]
.Ltmp10:
	.loc	4 32 5 is_stmt 0                @ rt-thread/components/drivers/i2c/i2c_dev.c:32:5
	cbnz	r0, .LBB1_4
	b	.LBB1_3
.LBB1_3:
.Ltmp11:
	.loc	4 32 5                          @ rt-thread/components/drivers/i2c/i2c_dev.c:32:5
	movw	r0, :lower16:.L.str.1
	movt	r0, :upper16:.L.str.1
	movw	r1, :lower16:.L__FUNCTION__.i2c_bus_device_read
	movt	r1, :upper16:.L__FUNCTION__.i2c_bus_device_read
	movs	r2, #32
	bl	rt_assert_handler
	b	.LBB1_4
.Ltmp12:
.LBB1_4:
	.loc	4 36 12 is_stmt 1               @ rt-thread/components/drivers/i2c/i2c_dev.c:36:12
	ldr	r0, [sp, #24]
	.loc	4 36 10 is_stmt 0               @ rt-thread/components/drivers/i2c/i2c_dev.c:36:10
	strh.w	r0, [sp, #14]
	.loc	4 37 14 is_stmt 1               @ rt-thread/components/drivers/i2c/i2c_dev.c:37:14
	ldrh.w	r0, [sp, #26]
	.loc	4 37 11 is_stmt 0               @ rt-thread/components/drivers/i2c/i2c_dev.c:37:11
	strh.w	r0, [sp, #12]
	.loc	4 39 31 is_stmt 1               @ rt-thread/components/drivers/i2c/i2c_dev.c:39:31
	ldr	r0, [sp, #8]
	.loc	4 39 36 is_stmt 0               @ rt-thread/components/drivers/i2c/i2c_dev.c:39:36
	ldrh.w	r1, [sp, #14]
	.loc	4 39 42                         @ rt-thread/components/drivers/i2c/i2c_dev.c:39:42
	ldrh.w	r2, [sp, #12]
	.loc	4 39 63                         @ rt-thread/components/drivers/i2c/i2c_dev.c:39:63
	ldr	r3, [sp, #20]
	.loc	4 39 71                         @ rt-thread/components/drivers/i2c/i2c_dev.c:39:71
	ldr.w	r12, [sp, #16]
	.loc	4 39 12                         @ rt-thread/components/drivers/i2c/i2c_dev.c:39:12
	mov	lr, sp
	str.w	r12, [lr]
	bl	rt_i2c_master_recv
	.loc	4 39 5                          @ rt-thread/components/drivers/i2c/i2c_dev.c:39:5
	add	sp, #32
	pop	{r7, pc}
.Ltmp13:
.Lfunc_end1:
	.size	i2c_bus_device_read, .Lfunc_end1-i2c_bus_device_read
	.cfi_endproc
	.cantunwind
	.fnend
                                        @ -- End function
	.section	.text.i2c_bus_device_write,"ax",%progbits
	.p2align	3                               @ -- Begin function i2c_bus_device_write
	.type	i2c_bus_device_write,%function
	.code	16                              @ @i2c_bus_device_write
	.thumb_func
i2c_bus_device_write:
.Lfunc_begin2:
	.loc	4 46 0 is_stmt 1                @ rt-thread/components/drivers/i2c/i2c_dev.c:46:0
	.fnstart
	.cfi_startproc
@ %bb.0:
	.save	{r7, lr}
	push	{r7, lr}
	.cfi_def_cfa_offset 8
	.cfi_offset lr, -4
	.cfi_offset r7, -8
	.pad	#32
	sub	sp, #32
	.cfi_def_cfa_offset 40
	str	r0, [sp, #28]
	str	r1, [sp, #24]
	str	r2, [sp, #20]
	str	r3, [sp, #16]
.Ltmp14:
	.loc	4 49 65 prologue_end            @ rt-thread/components/drivers/i2c/i2c_dev.c:49:65
	ldr	r0, [sp, #28]
	.loc	4 49 70 is_stmt 0               @ rt-thread/components/drivers/i2c/i2c_dev.c:49:70
	ldr	r0, [r0, #76]
	.loc	4 49 31                         @ rt-thread/components/drivers/i2c/i2c_dev.c:49:31
	str	r0, [sp, #8]
.Ltmp15:
	.loc	4 51 5 is_stmt 1                @ rt-thread/components/drivers/i2c/i2c_dev.c:51:5
	ldr	r0, [sp, #8]
.Ltmp16:
	.loc	4 51 5 is_stmt 0                @ rt-thread/components/drivers/i2c/i2c_dev.c:51:5
	cbnz	r0, .LBB2_2
	b	.LBB2_1
.LBB2_1:
.Ltmp17:
	.loc	4 51 5                          @ rt-thread/components/drivers/i2c/i2c_dev.c:51:5
	movw	r0, :lower16:.L.str
	movt	r0, :upper16:.L.str
	movw	r1, :lower16:.L__FUNCTION__.i2c_bus_device_write
	movt	r1, :upper16:.L__FUNCTION__.i2c_bus_device_write
	movs	r2, #51
	bl	rt_assert_handler
	b	.LBB2_2
.Ltmp18:
.LBB2_2:
	.loc	4 52 5 is_stmt 1                @ rt-thread/components/drivers/i2c/i2c_dev.c:52:5
	ldr	r0, [sp, #20]
.Ltmp19:
	.loc	4 52 5 is_stmt 0                @ rt-thread/components/drivers/i2c/i2c_dev.c:52:5
	cbnz	r0, .LBB2_4
	b	.LBB2_3
.LBB2_3:
.Ltmp20:
	.loc	4 52 5                          @ rt-thread/components/drivers/i2c/i2c_dev.c:52:5
	movw	r0, :lower16:.L.str.1
	movt	r0, :upper16:.L.str.1
	movw	r1, :lower16:.L__FUNCTION__.i2c_bus_device_write
	movt	r1, :upper16:.L__FUNCTION__.i2c_bus_device_write
	movs	r2, #52
	bl	rt_assert_handler
	b	.LBB2_4
.Ltmp21:
.LBB2_4:
	.loc	4 56 12 is_stmt 1               @ rt-thread/components/drivers/i2c/i2c_dev.c:56:12
	ldr	r0, [sp, #24]
	.loc	4 56 10 is_stmt 0               @ rt-thread/components/drivers/i2c/i2c_dev.c:56:10
	strh.w	r0, [sp, #14]
	.loc	4 57 14 is_stmt 1               @ rt-thread/components/drivers/i2c/i2c_dev.c:57:14
	ldrh.w	r0, [sp, #26]
	.loc	4 57 11 is_stmt 0               @ rt-thread/components/drivers/i2c/i2c_dev.c:57:11
	strh.w	r0, [sp, #12]
	.loc	4 59 31 is_stmt 1               @ rt-thread/components/drivers/i2c/i2c_dev.c:59:31
	ldr	r0, [sp, #8]
	.loc	4 59 36 is_stmt 0               @ rt-thread/components/drivers/i2c/i2c_dev.c:59:36
	ldrh.w	r1, [sp, #14]
	.loc	4 59 42                         @ rt-thread/components/drivers/i2c/i2c_dev.c:59:42
	ldrh.w	r2, [sp, #12]
	.loc	4 59 69                         @ rt-thread/components/drivers/i2c/i2c_dev.c:59:69
	ldr	r3, [sp, #20]
	.loc	4 59 77                         @ rt-thread/components/drivers/i2c/i2c_dev.c:59:77
	ldr.w	r12, [sp, #16]
	.loc	4 59 12                         @ rt-thread/components/drivers/i2c/i2c_dev.c:59:12
	mov	lr, sp
	str.w	r12, [lr]
	bl	rt_i2c_master_send
	.loc	4 59 5                          @ rt-thread/components/drivers/i2c/i2c_dev.c:59:5
	add	sp, #32
	pop	{r7, pc}
.Ltmp22:
.Lfunc_end2:
	.size	i2c_bus_device_write, .Lfunc_end2-i2c_bus_device_write
	.cfi_endproc
	.cantunwind
	.fnend
                                        @ -- End function
	.section	.text.i2c_bus_device_control,"ax",%progbits
	.p2align	3                               @ -- Begin function i2c_bus_device_control
	.type	i2c_bus_device_control,%function
	.code	16                              @ @i2c_bus_device_control
	.thumb_func
i2c_bus_device_control:
.Lfunc_begin3:
	.loc	4 65 0 is_stmt 1                @ rt-thread/components/drivers/i2c/i2c_dev.c:65:0
	.fnstart
	.cfi_startproc
@ %bb.0:
	.save	{r7, lr}
	push	{r7, lr}
	.cfi_def_cfa_offset 8
	.cfi_offset lr, -4
	.cfi_offset r7, -8
	.pad	#32
	sub	sp, #32
	.cfi_def_cfa_offset 40
	str	r0, [sp, #24]
	str	r1, [sp, #20]
	str	r2, [sp, #16]
.Ltmp23:
	.loc	4 68 65 prologue_end            @ rt-thread/components/drivers/i2c/i2c_dev.c:68:65
	ldr	r0, [sp, #24]
	.loc	4 68 70 is_stmt 0               @ rt-thread/components/drivers/i2c/i2c_dev.c:68:70
	ldr	r0, [r0, #76]
	.loc	4 68 31                         @ rt-thread/components/drivers/i2c/i2c_dev.c:68:31
	str	r0, [sp, #4]
.Ltmp24:
	.loc	4 70 5 is_stmt 1                @ rt-thread/components/drivers/i2c/i2c_dev.c:70:5
	ldr	r0, [sp, #4]
.Ltmp25:
	.loc	4 70 5 is_stmt 0                @ rt-thread/components/drivers/i2c/i2c_dev.c:70:5
	cbnz	r0, .LBB3_2
	b	.LBB3_1
.LBB3_1:
.Ltmp26:
	.loc	4 70 5                          @ rt-thread/components/drivers/i2c/i2c_dev.c:70:5
	movw	r0, :lower16:.L.str
	movt	r0, :upper16:.L.str
	movw	r1, :lower16:.L__FUNCTION__.i2c_bus_device_control
	movt	r1, :upper16:.L__FUNCTION__.i2c_bus_device_control
	movs	r2, #70
	bl	rt_assert_handler
	b	.LBB3_2
.Ltmp27:
.LBB3_2:
	.loc	4 72 13 is_stmt 1               @ rt-thread/components/drivers/i2c/i2c_dev.c:72:13
	ldr	r0, [sp, #20]
	.loc	4 72 5 is_stmt 0                @ rt-thread/components/drivers/i2c/i2c_dev.c:72:5
	subs	r0, #32
	mov	r1, r0
	str	r1, [sp]                        @ 4-byte Spill
	cmp	r0, #3
	bhi	.LBB3_11
@ %bb.3:
	.loc	4 0 5                           @ rt-thread/components/drivers/i2c/i2c_dev.c:0:5
	ldr	r1, [sp]                        @ 4-byte Reload
.LCPI3_0:
	tbb	[pc, r1]
@ %bb.4:
.LJTI3_0:
	.byte	(.LBB3_5-(.LCPI3_0+4))/2
	.byte	(.LBB3_6-(.LCPI3_0+4))/2
	.byte	(.LBB3_7-(.LCPI3_0+4))/2
	.byte	(.LBB3_8-(.LCPI3_0+4))/2
	.p2align	1
.LBB3_5:
.Ltmp28:
	.loc	4 76 9 is_stmt 1                @ rt-thread/components/drivers/i2c/i2c_dev.c:76:9
	ldr	r1, [sp, #4]
	.loc	4 76 20 is_stmt 0               @ rt-thread/components/drivers/i2c/i2c_dev.c:76:20
	ldrh.w	r0, [r1, #84]
	orr	r0, r0, #4
	strh.w	r0, [r1, #84]
	.loc	4 77 9 is_stmt 1                @ rt-thread/components/drivers/i2c/i2c_dev.c:77:9
	b	.LBB3_12
.LBB3_6:
	.loc	4 79 37                         @ rt-thread/components/drivers/i2c/i2c_dev.c:79:37
	ldr	r0, [sp, #16]
	.loc	4 79 21 is_stmt 0               @ rt-thread/components/drivers/i2c/i2c_dev.c:79:21
	ldrh	r0, [r0]
	.loc	4 79 9                          @ rt-thread/components/drivers/i2c/i2c_dev.c:79:9
	ldr	r1, [sp, #4]
	.loc	4 79 19                         @ rt-thread/components/drivers/i2c/i2c_dev.c:79:19
	strh.w	r0, [r1, #86]
	.loc	4 80 9 is_stmt 1                @ rt-thread/components/drivers/i2c/i2c_dev.c:80:9
	b	.LBB3_12
.LBB3_7:
	.loc	4 82 40                         @ rt-thread/components/drivers/i2c/i2c_dev.c:82:40
	ldr	r0, [sp, #16]
	.loc	4 82 24 is_stmt 0               @ rt-thread/components/drivers/i2c/i2c_dev.c:82:24
	ldr	r0, [r0]
	.loc	4 82 9                          @ rt-thread/components/drivers/i2c/i2c_dev.c:82:9
	ldr	r1, [sp, #4]
	.loc	4 82 22                         @ rt-thread/components/drivers/i2c/i2c_dev.c:82:22
	str	r0, [r1, #124]
	.loc	4 83 9 is_stmt 1                @ rt-thread/components/drivers/i2c/i2c_dev.c:83:9
	b	.LBB3_12
.LBB3_8:
	.loc	4 85 48                         @ rt-thread/components/drivers/i2c/i2c_dev.c:85:48
	ldr	r0, [sp, #16]
	.loc	4 85 19 is_stmt 0               @ rt-thread/components/drivers/i2c/i2c_dev.c:85:19
	str	r0, [sp, #8]
	.loc	4 86 31 is_stmt 1               @ rt-thread/components/drivers/i2c/i2c_dev.c:86:31
	ldr	r0, [sp, #4]
	.loc	4 86 36 is_stmt 0               @ rt-thread/components/drivers/i2c/i2c_dev.c:86:36
	ldr	r2, [sp, #8]
	.loc	4 86 47                         @ rt-thread/components/drivers/i2c/i2c_dev.c:86:47
	ldr	r1, [r2]
	.loc	4 86 64                         @ rt-thread/components/drivers/i2c/i2c_dev.c:86:64
	ldr	r2, [r2, #4]
	.loc	4 86 15                         @ rt-thread/components/drivers/i2c/i2c_dev.c:86:15
	bl	rt_i2c_transfer
	.loc	4 86 13                         @ rt-thread/components/drivers/i2c/i2c_dev.c:86:13
	str	r0, [sp, #12]
.Ltmp29:
	.loc	4 87 13 is_stmt 1               @ rt-thread/components/drivers/i2c/i2c_dev.c:87:13
	ldr	r0, [sp, #12]
.Ltmp30:
	.loc	4 87 13 is_stmt 0               @ rt-thread/components/drivers/i2c/i2c_dev.c:87:13
	cmp.w	r0, #-1
	bgt	.LBB3_10
	b	.LBB3_9
.LBB3_9:
	.loc	4 0 13                          @ rt-thread/components/drivers/i2c/i2c_dev.c:0:13
	mvn	r0, #7
.Ltmp31:
	.loc	4 89 13 is_stmt 1               @ rt-thread/components/drivers/i2c/i2c_dev.c:89:13
	str	r0, [sp, #28]
	b	.LBB3_13
.Ltmp32:
.LBB3_10:
	.loc	4 91 9                          @ rt-thread/components/drivers/i2c/i2c_dev.c:91:9
	b	.LBB3_12
.LBB3_11:
	.loc	4 93 9                          @ rt-thread/components/drivers/i2c/i2c_dev.c:93:9
	b	.LBB3_12
.Ltmp33:
.LBB3_12:
	.loc	4 0 9 is_stmt 0                 @ rt-thread/components/drivers/i2c/i2c_dev.c:0:9
	movs	r0, #0
	.loc	4 96 5 is_stmt 1                @ rt-thread/components/drivers/i2c/i2c_dev.c:96:5
	str	r0, [sp, #28]
	b	.LBB3_13
.LBB3_13:
	.loc	4 97 1                          @ rt-thread/components/drivers/i2c/i2c_dev.c:97:1
	ldr	r0, [sp, #28]
	add	sp, #32
	pop	{r7, pc}
.Ltmp34:
.Lfunc_end3:
	.size	i2c_bus_device_control, .Lfunc_end3-i2c_bus_device_control
	.cfi_endproc
	.cantunwind
	.fnend
                                        @ -- End function
	.type	.L.str,%object                  @ @.str
	.section	.rodata.str1.1,"aMS",%progbits,1
.L.str:
	.asciz	"bus != RT_NULL"
	.size	.L.str, 15

	.type	.L__FUNCTION__.rt_i2c_bus_device_device_init,%object @ @__FUNCTION__.rt_i2c_bus_device_device_init
.L__FUNCTION__.rt_i2c_bus_device_device_init:
	.asciz	"rt_i2c_bus_device_device_init"
	.size	.L__FUNCTION__.rt_i2c_bus_device_device_init, 30

	.type	.L__FUNCTION__.i2c_bus_device_read,%object @ @__FUNCTION__.i2c_bus_device_read
.L__FUNCTION__.i2c_bus_device_read:
	.asciz	"i2c_bus_device_read"
	.size	.L__FUNCTION__.i2c_bus_device_read, 20

	.type	.L.str.1,%object                @ @.str.1
.L.str.1:
	.asciz	"buffer != RT_NULL"
	.size	.L.str.1, 18

	.type	.L__FUNCTION__.i2c_bus_device_write,%object @ @__FUNCTION__.i2c_bus_device_write
.L__FUNCTION__.i2c_bus_device_write:
	.asciz	"i2c_bus_device_write"
	.size	.L__FUNCTION__.i2c_bus_device_write, 21

	.type	.L__FUNCTION__.i2c_bus_device_control,%object @ @__FUNCTION__.i2c_bus_device_control
.L__FUNCTION__.i2c_bus_device_control:
	.asciz	"i2c_bus_device_control"
	.size	.L__FUNCTION__.i2c_bus_device_control, 23

	.section	".note.GNU-stack","",%progbits
	.eabi_attribute	30, 6	@ Tag_ABI_optimization_goals
	.ARM_attribute	16, 1	@ Tag_AV_eba