	.text
	.syntax unified
	.eabi_attribute	67, "2.09"	@ Tag_conformance
	.cpu	cortex-m7
	.eabi_attribute	6, 13	@ Tag_CPU_arch
	.eabi_attribute	7, 77	@ Tag_CPU_arch_profile
	.eabi_attribute	8, 0	@ Tag_ARM_ISA_use
	.eabi_attribute	9, 2	@ Tag_THUMB_ISA_use
	.fpu	fpv5-d16
	.eabi_attribute	36, 1	@ Tag_FP_HP_extension
	.eabi_attribute	34, 1	@ Tag_CPU_unaligned_access
	.eabi_attribute	17, 1	@ Tag_ABI_PCS_GOT_use
	.eabi_attribute	20, 2	@ Tag_ABI_FP_denormal
	.eabi_attribute	21, 0	@ Tag_ABI_FP_exceptions
	.eabi_attribute	23, 1	@ Tag_ABI_FP_number_model
	.eabi_attribute	24, 1	@ Tag_ABI_align_needed
	.eabi_attribute	25, 1	@ Tag_ABI_align_preserved
	.eabi_attribute	28, 1	@ Tag_ABI_VFP_args
	.eabi_attribute	38, 1	@ Tag_ABI_FP_16bit_format
	.eabi_attribute	18, 2	@ Tag_ABI_PCS_wchar_t
	.eabi_attribute	26, 1	@ Tag_ABI_enum_size
	.eabi_attribute	14, 0	@ Tag_ABI_PCS_R9_use
	.file	"icmp.c"
	.file	1 "E:\\STM32\\Learning\\STM32H750_ART_PI_RGBLCD" "./rt-thread/components/net/lwip-2.0.2/src/include\\lwip/netif.h"
	.file	2 "E:\\STM32\\Learning\\STM32H750_ART_PI_RGBLCD" "./rt-thread/components/net/lwip-2.0.2/src/include\\lwip/pbuf.h"
	.file	3 "E:\\STM32\\Learning\\STM32H750_ART_PI_RGBLCD" "./rt-thread/components/net/lwip-2.0.2/src/include\\lwip/err.h"
	.file	4 "E:\\STM32\\Learning\\STM32H750_ART_PI_RGBLCD" "./rt-thread/components/net/lwip-2.0.2/src/include\\lwip/icmp.h"
	.file	5 "D:\\Keil_v5\\ARM\\ARMCLANG\\Bin\\..\\include" "stdint.h"
	.file	6 "E:\\STM32\\Learning\\STM32H750_ART_PI_RGBLCD" "./rt-thread/components/net/lwip-2.0.2/src/include\\lwip/arch.h"
	.file	7 "E:\\STM32\\Learning\\STM32H750_ART_PI_RGBLCD" "./rt-thread/components/net/lwip-2.0.2/src/include\\lwip/prot/ip4.h"
	.file	8 "E:\\STM32\\Learning\\STM32H750_ART_PI_RGBLCD" "./rt-thread/components/net/lwip-2.0.2/src/include\\lwip/prot/icmp.h"
	.section	.text.icmp_input,"ax",%progbits
	.hidden	icmp_input                      @ -- Begin function icmp_input
	.globl	icmp_input
	.p2align	3
	.type	icmp_input,%function
	.code	16                              @ @icmp_input
	.thumb_func
icmp_input:
.Lfunc_begin0:
	.file	9 "E:\\STM32\\Learning\\STM32H750_ART_PI_RGBLCD" "rt-thread/components/net/lwip-2.0.2/src/core/ipv4/icmp.c"
	.loc	9 81 0                          @ rt-thread/components/net/lwip-2.0.2/src/core/ipv4/icmp.c:81:0
	.fnstart
	.cfi_sections .debug_frame
	.cfi_startproc
@ %bb.0:
	.save	{r7, lr}
	push	{r7, lr}
	.cfi_def_cfa_offset 8
	.cfi_offset lr, -4
	.cfi_offset r7, -8
	.pad	#64
	sub	sp, #64
	.cfi_def_cfa_offset 72
	str	r0, [sp, #60]
	str	r1, [sp, #56]
.Ltmp0:
	.loc	9 94 14 prologue_end            @ rt-thread/components/net/lwip-2.0.2/src/core/ipv4/icmp.c:94:14
	movw	r0, :lower16:ip_data
	movt	r0, :upper16:ip_data
	ldr	r0, [r0, #8]
	.loc	9 94 12 is_stmt 0               @ rt-thread/components/net/lwip-2.0.2/src/core/ipv4/icmp.c:94:12
	str	r0, [sp, #44]
	.loc	9 95 10 is_stmt 1               @ rt-thread/components/net/lwip-2.0.2/src/core/ipv4/icmp.c:95:10
	ldr	r0, [sp, #44]
	ldrb	r0, [r0]
	and	r0, r0, #15
	.loc	9 95 27 is_stmt 0               @ rt-thread/components/net/lwip-2.0.2/src/core/ipv4/icmp.c:95:27
	lsls	r0, r0, #2
	.loc	9 95 8                          @ rt-thread/components/net/lwip-2.0.2/src/core/ipv4/icmp.c:95:8
	strh.w	r0, [sp, #42]
.Ltmp1:
	.loc	9 96 7 is_stmt 1                @ rt-thread/components/net/lwip-2.0.2/src/core/ipv4/icmp.c:96:7
	ldrh.w	r0, [sp, #42]
.Ltmp2:
	.loc	9 96 7 is_stmt 0                @ rt-thread/components/net/lwip-2.0.2/src/core/ipv4/icmp.c:96:7
	cmp	r0, #19
	bgt	.LBB0_2
	b	.LBB0_1
.LBB0_1:
.Ltmp3:
	.loc	9 98 5 is_stmt 1                @ rt-thread/components/net/lwip-2.0.2/src/core/ipv4/icmp.c:98:5
	b	.LBB0_73
.Ltmp4:
.LBB0_2:
	.loc	9 100 7                         @ rt-thread/components/net/lwip-2.0.2/src/core/ipv4/icmp.c:100:7
	ldr	r0, [sp, #60]
	.loc	9 100 10 is_stmt 0              @ rt-thread/components/net/lwip-2.0.2/src/core/ipv4/icmp.c:100:10
	ldrh	r0, [r0, #10]
.Ltmp5:
	.loc	9 100 7                         @ rt-thread/components/net/lwip-2.0.2/src/core/ipv4/icmp.c:100:7
	cmp	r0, #3
	bhi	.LBB0_4
	b	.LBB0_3
.LBB0_3:
.Ltmp6:
	.loc	9 102 5 is_stmt 1               @ rt-thread/components/net/lwip-2.0.2/src/core/ipv4/icmp.c:102:5
	b	.LBB0_73
.Ltmp7:
.LBB0_4:
	.loc	9 105 20                        @ rt-thread/components/net/lwip-2.0.2/src/core/ipv4/icmp.c:105:20
	ldr	r0, [sp, #60]
	.loc	9 105 23 is_stmt 0              @ rt-thread/components/net/lwip-2.0.2/src/core/ipv4/icmp.c:105:23
	ldr	r0, [r0, #4]
	.loc	9 105 10                        @ rt-thread/components/net/lwip-2.0.2/src/core/ipv4/icmp.c:105:10
	ldrb	r0, [r0]
	.loc	9 105 8                         @ rt-thread/components/net/lwip-2.0.2/src/core/ipv4/icmp.c:105:8
	strb.w	r0, [sp, #55]
	.loc	9 109 11 is_stmt 1              @ rt-thread/components/net/lwip-2.0.2/src/core/ipv4/icmp.c:109:11
	ldrb.w	r0, [sp, #55]
	.loc	9 109 3 is_stmt 0               @ rt-thread/components/net/lwip-2.0.2/src/core/ipv4/icmp.c:109:3
	mov	r1, r0
	str	r1, [sp, #20]                   @ 4-byte Spill
	cbz	r0, .LBB0_6
	b	.LBB0_5
.LBB0_5:
	ldr	r0, [sp, #20]                   @ 4-byte Reload
	cmp	r0, #8
	beq	.LBB0_7
	b	.LBB0_45
.LBB0_6:
.Ltmp8:
	.loc	9 114 5 is_stmt 1               @ rt-thread/components/net/lwip-2.0.2/src/core/ipv4/icmp.c:114:5
	b	.LBB0_72
.LBB0_7:
	.loc	9 117 9                         @ rt-thread/components/net/lwip-2.0.2/src/core/ipv4/icmp.c:117:9
	movw	r0, :lower16:ip_data
	movt	r0, :upper16:ip_data
	add.w	r1, r0, #20
	str	r1, [sp, #36]
.Ltmp9:
	.loc	9 119 9                         @ rt-thread/components/net/lwip-2.0.2/src/core/ipv4/icmp.c:119:9
	ldr	r0, [r0, #20]
	and	r0, r0, #240
.Ltmp10:
	.loc	9 119 9 is_stmt 0               @ rt-thread/components/net/lwip-2.0.2/src/core/ipv4/icmp.c:119:9
	cmp	r0, #224
	bne	.LBB0_9
	b	.LBB0_8
.LBB0_8:
.Ltmp11:
	.loc	9 125 7 is_stmt 1               @ rt-thread/components/net/lwip-2.0.2/src/core/ipv4/icmp.c:125:7
	b	.LBB0_74
.Ltmp12:
.LBB0_9:
	.loc	9 129 9                         @ rt-thread/components/net/lwip-2.0.2/src/core/ipv4/icmp.c:129:9
	movw	r0, :lower16:ip_data
	movt	r0, :upper16:ip_data
	ldr	r1, [r0]
	ldr	r0, [r0, #20]
	bl	ip4_addr_isbroadcast_u32
.Ltmp13:
	.loc	9 129 9 is_stmt 0               @ rt-thread/components/net/lwip-2.0.2/src/core/ipv4/icmp.c:129:9
	cbz	r0, .LBB0_11
	b	.LBB0_10
.LBB0_10:
.Ltmp14:
	.loc	9 135 7 is_stmt 1               @ rt-thread/components/net/lwip-2.0.2/src/core/ipv4/icmp.c:135:7
	b	.LBB0_74
.Ltmp15:
.LBB0_11:
	.loc	9 139 9                         @ rt-thread/components/net/lwip-2.0.2/src/core/ipv4/icmp.c:139:9
	ldr	r0, [sp, #60]
	.loc	9 139 12 is_stmt 0              @ rt-thread/components/net/lwip-2.0.2/src/core/ipv4/icmp.c:139:12
	ldrh	r0, [r0, #8]
.Ltmp16:
	.loc	9 139 9                         @ rt-thread/components/net/lwip-2.0.2/src/core/ipv4/icmp.c:139:9
	cmp	r0, #7
	bhi	.LBB0_13
	b	.LBB0_12
.LBB0_12:
.Ltmp17:
	.loc	9 141 7 is_stmt 1               @ rt-thread/components/net/lwip-2.0.2/src/core/ipv4/icmp.c:141:7
	b	.LBB0_73
.Ltmp18:
.LBB0_13:
	.loc	9 145 28                        @ rt-thread/components/net/lwip-2.0.2/src/core/ipv4/icmp.c:145:28
	ldr	r0, [sp, #60]
	.loc	9 145 11 is_stmt 0              @ rt-thread/components/net/lwip-2.0.2/src/core/ipv4/icmp.c:145:11
	bl	inet_chksum_pbuf
.Ltmp19:
	.loc	9 145 11                        @ rt-thread/components/net/lwip-2.0.2/src/core/ipv4/icmp.c:145:11
	cbz	r0, .LBB0_15
	b	.LBB0_14
.LBB0_14:
.Ltmp20:
	.loc	9 147 19 is_stmt 1              @ rt-thread/components/net/lwip-2.0.2/src/core/ipv4/icmp.c:147:19
	ldr	r0, [sp, #60]
	.loc	9 147 9 is_stmt 0               @ rt-thread/components/net/lwip-2.0.2/src/core/ipv4/icmp.c:147:9
	bl	pbuf_free
	.loc	9 150 9 is_stmt 1               @ rt-thread/components/net/lwip-2.0.2/src/core/ipv4/icmp.c:150:9
	b	.LBB0_75
.Ltmp21:
.LBB0_15:
	.loc	9 155 21                        @ rt-thread/components/net/lwip-2.0.2/src/core/ipv4/icmp.c:155:21
	ldr	r0, [sp, #60]
	.loc	9 155 32 is_stmt 0              @ rt-thread/components/net/lwip-2.0.2/src/core/ipv4/icmp.c:155:32
	ldrh.w	r1, [sp, #42]
	.loc	9 155 37                        @ rt-thread/components/net/lwip-2.0.2/src/core/ipv4/icmp.c:155:37
	adds	r1, #16
	.loc	9 155 9                         @ rt-thread/components/net/lwip-2.0.2/src/core/ipv4/icmp.c:155:9
	sxth	r1, r1
	bl	pbuf_header
.Ltmp22:
	.loc	9 155 9                         @ rt-thread/components/net/lwip-2.0.2/src/core/ipv4/icmp.c:155:9
	cmp	r0, #0
	beq	.LBB0_29
	b	.LBB0_16
.LBB0_16:
.Ltmp23:
	.loc	9 161 33 is_stmt 1              @ rt-thread/components/net/lwip-2.0.2/src/core/ipv4/icmp.c:161:33
	ldr	r0, [sp, #60]
	ldrh	r0, [r0, #8]
	.loc	9 161 46 is_stmt 0              @ rt-thread/components/net/lwip-2.0.2/src/core/ipv4/icmp.c:161:46
	ldrh.w	r1, [sp, #42]
	.loc	9 161 44                        @ rt-thread/components/net/lwip-2.0.2/src/core/ipv4/icmp.c:161:44
	add	r0, r1
	.loc	9 161 11                        @ rt-thread/components/net/lwip-2.0.2/src/core/ipv4/icmp.c:161:11
	uxth	r1, r0
	movs	r0, #2
	movs	r2, #0
	bl	pbuf_alloc
	.loc	9 161 9                         @ rt-thread/components/net/lwip-2.0.2/src/core/ipv4/icmp.c:161:9
	str	r0, [sp, #32]
.Ltmp24:
	.loc	9 162 11 is_stmt 1              @ rt-thread/components/net/lwip-2.0.2/src/core/ipv4/icmp.c:162:11
	ldr	r0, [sp, #32]
.Ltmp25:
	.loc	9 162 11 is_stmt 0              @ rt-thread/components/net/lwip-2.0.2/src/core/ipv4/icmp.c:162:11
	cbnz	r0, .LBB0_18
	b	.LBB0_17
.LBB0_17:
.Ltmp26:
	.loc	9 164 9 is_stmt 1               @ rt-thread/components/net/lwip-2.0.2/src/core/ipv4/icmp.c:164:9
	b	.LBB0_74
.Ltmp27:
.LBB0_18:
	.loc	9 166 11                        @ rt-thread/components/net/lwip-2.0.2/src/core/ipv4/icmp.c:166:11
	ldr	r0, [sp, #32]
	.loc	9 166 14 is_stmt 0              @ rt-thread/components/net/lwip-2.0.2/src/core/ipv4/icmp.c:166:14
	ldrh	r0, [r0, #10]
	.loc	9 166 20                        @ rt-thread/components/net/lwip-2.0.2/src/core/ipv4/icmp.c:166:20
	ldrh.w	r1, [sp, #42]
	.loc	9 166 25                        @ rt-thread/components/net/lwip-2.0.2/src/core/ipv4/icmp.c:166:25
	adds	r1, #8
.Ltmp28:
	.loc	9 166 11                        @ rt-thread/components/net/lwip-2.0.2/src/core/ipv4/icmp.c:166:11
	cmp	r0, r1
	bhs	.LBB0_20
	b	.LBB0_19
.LBB0_19:
.Ltmp29:
	.loc	9 168 19 is_stmt 1              @ rt-thread/components/net/lwip-2.0.2/src/core/ipv4/icmp.c:168:19
	ldr	r0, [sp, #32]
	.loc	9 168 9 is_stmt 0               @ rt-thread/components/net/lwip-2.0.2/src/core/ipv4/icmp.c:168:9
	bl	pbuf_free
	.loc	9 169 9 is_stmt 1               @ rt-thread/components/net/lwip-2.0.2/src/core/ipv4/icmp.c:169:9
	b	.LBB0_74
.Ltmp30:
.LBB0_20:
	.loc	9 172 7                         @ rt-thread/components/net/lwip-2.0.2/src/core/ipv4/icmp.c:172:7
	ldr	r0, [sp, #32]
	ldr	r0, [r0, #4]
	ldr	r1, [sp, #44]
	ldrh.w	r2, [sp, #42]
	bl	__aeabi_memcpy
.Ltmp31:
	.loc	9 174 23                        @ rt-thread/components/net/lwip-2.0.2/src/core/ipv4/icmp.c:174:23
	ldr	r0, [sp, #32]
	.loc	9 174 34 is_stmt 0              @ rt-thread/components/net/lwip-2.0.2/src/core/ipv4/icmp.c:174:34
	ldrh.w	r1, [sp, #42]
	.loc	9 174 33                        @ rt-thread/components/net/lwip-2.0.2/src/core/ipv4/icmp.c:174:33
	rsbs	r1, r1, #0
	.loc	9 174 11                        @ rt-thread/components/net/lwip-2.0.2/src/core/ipv4/icmp.c:174:11
	sxth	r1, r1
	bl	pbuf_header
.Ltmp32:
	.loc	9 174 11                        @ rt-thread/components/net/lwip-2.0.2/src/core/ipv4/icmp.c:174:11
	cbz	r0, .LBB0_26
	b	.LBB0_21
.LBB0_21:
.Ltmp33:
	.loc	9 175 9 is_stmt 1               @ rt-thread/components/net/lwip-2.0.2/src/core/ipv4/icmp.c:175:9
	b	.LBB0_22
.LBB0_22:
.Ltmp34:
	.loc	9 175 9 is_stmt 0               @ rt-thread/components/net/lwip-2.0.2/src/core/ipv4/icmp.c:175:9
	b	.LBB0_23
.LBB0_23:
.Ltmp35:
	.loc	9 175 9                         @ rt-thread/components/net/lwip-2.0.2/src/core/ipv4/icmp.c:175:9
	movw	r0, :lower16:.L.str
	movt	r0, :upper16:.L.str
	bl	rt_kprintf
	movw	r0, :lower16:.L.str.1
	movt	r0, :upper16:.L.str.1
	movs	r1, #175
	bl	sys_arch_assert
	b	.LBB0_24
.Ltmp36:
.LBB0_24:
	.loc	9 175 9                         @ rt-thread/components/net/lwip-2.0.2/src/core/ipv4/icmp.c:175:9
	b	.LBB0_25
.Ltmp37:
.LBB0_25:
	.loc	9 176 19 is_stmt 1              @ rt-thread/components/net/lwip-2.0.2/src/core/ipv4/icmp.c:176:19
	ldr	r0, [sp, #32]
	.loc	9 176 9 is_stmt 0               @ rt-thread/components/net/lwip-2.0.2/src/core/ipv4/icmp.c:176:9
	bl	pbuf_free
	.loc	9 177 9 is_stmt 1               @ rt-thread/components/net/lwip-2.0.2/src/core/ipv4/icmp.c:177:9
	b	.LBB0_74
.Ltmp38:
.LBB0_26:
	.loc	9 180 21                        @ rt-thread/components/net/lwip-2.0.2/src/core/ipv4/icmp.c:180:21
	ldr	r0, [sp, #32]
	.loc	9 180 24 is_stmt 0              @ rt-thread/components/net/lwip-2.0.2/src/core/ipv4/icmp.c:180:24
	ldr	r1, [sp, #60]
	.loc	9 180 11                        @ rt-thread/components/net/lwip-2.0.2/src/core/ipv4/icmp.c:180:11
	bl	pbuf_copy
.Ltmp39:
	.loc	9 180 11                        @ rt-thread/components/net/lwip-2.0.2/src/core/ipv4/icmp.c:180:11
	cbz	r0, .LBB0_28
	b	.LBB0_27
.LBB0_27:
.Ltmp40:
	.loc	9 182 19 is_stmt 1              @ rt-thread/components/net/lwip-2.0.2/src/core/ipv4/icmp.c:182:19
	ldr	r0, [sp, #32]
	.loc	9 182 9 is_stmt 0               @ rt-thread/components/net/lwip-2.0.2/src/core/ipv4/icmp.c:182:9
	bl	pbuf_free
	.loc	9 183 9 is_stmt 1               @ rt-thread/components/net/lwip-2.0.2/src/core/ipv4/icmp.c:183:9
	b	.LBB0_74
.Ltmp41:
.LBB0_28:
	.loc	9 186 17                        @ rt-thread/components/net/lwip-2.0.2/src/core/ipv4/icmp.c:186:17
	ldr	r0, [sp, #60]
	.loc	9 186 7 is_stmt 0               @ rt-thread/components/net/lwip-2.0.2/src/core/ipv4/icmp.c:186:7
	bl	pbuf_free
	.loc	9 188 11 is_stmt 1              @ rt-thread/components/net/lwip-2.0.2/src/core/ipv4/icmp.c:188:11
	ldr	r0, [sp, #32]
	.loc	9 188 9 is_stmt 0               @ rt-thread/components/net/lwip-2.0.2/src/core/ipv4/icmp.c:188:9
	str	r0, [sp, #60]
	.loc	9 189 5 is_stmt 1               @ rt-thread/components/net/lwip-2.0.2/src/core/ipv4/icmp.c:189:5
	b	.LBB0_36
.Ltmp42:
.LBB0_29:
	.loc	9 191 23                        @ rt-thread/components/net/lwip-2.0.2/src/core/ipv4/icmp.c:191:23
	ldr	r0, [sp, #60]
	.loc	9 191 35 is_stmt 0              @ rt-thread/components/net/lwip-2.0.2/src/core/ipv4/icmp.c:191:35
	ldrh.w	r2, [sp, #42]
	mvn	r1, #15
	.loc	9 191 26                        @ rt-thread/components/net/lwip-2.0.2/src/core/ipv4/icmp.c:191:26
	subs	r1, r1, r2
	.loc	9 191 11                        @ rt-thread/components/net/lwip-2.0.2/src/core/ipv4/icmp.c:191:11
	sxth	r1, r1
	bl	pbuf_header
.Ltmp43:
	.loc	9 191 11                        @ rt-thread/components/net/lwip-2.0.2/src/core/ipv4/icmp.c:191:11
	cbz	r0, .LBB0_35
	b	.LBB0_30
.LBB0_30:
.Ltmp44:
	.loc	9 192 9 is_stmt 1               @ rt-thread/components/net/lwip-2.0.2/src/core/ipv4/icmp.c:192:9
	b	.LBB0_31
.LBB0_31:
.Ltmp45:
	.loc	9 192 9 is_stmt 0               @ rt-thread/components/net/lwip-2.0.2/src/core/ipv4/icmp.c:192:9
	b	.LBB0_32
.LBB0_32:
.Ltmp46:
	.loc	9 192 9                         @ rt-thread/components/net/lwip-2.0.2/src/core/ipv4/icmp.c:192:9
	movw	r0, :lower16:.L.str.2
	movt	r0, :upper16:.L.str.2
	bl	rt_kprintf
	movw	r0, :lower16:.L.str.1
	movt	r0, :upper16:.L.str.1
	movs	r1, #192
	bl	sys_arch_assert
	b	.LBB0_33
.Ltmp47:
.LBB0_33:
	.loc	9 192 9                         @ rt-thread/components/net/lwip-2.0.2/src/core/ipv4/icmp.c:192:9
	b	.LBB0_34
.Ltmp48:
.LBB0_34:
	.loc	9 193 9 is_stmt 1               @ rt-thread/components/net/lwip-2.0.2/src/core/ipv4/icmp.c:193:9
	b	.LBB0_74
.Ltmp49:
.LBB0_35:
	.loc	9 0 9 is_stmt 0                 @ rt-thread/components/net/lwip-2.0.2/src/core/ipv4/icmp.c:0:9
	b	.LBB0_36
.LBB0_36:
	.loc	9 200 37 is_stmt 1              @ rt-thread/components/net/lwip-2.0.2/src/core/ipv4/icmp.c:200:37
	ldr	r0, [sp, #60]
	.loc	9 200 40 is_stmt 0              @ rt-thread/components/net/lwip-2.0.2/src/core/ipv4/icmp.c:200:40
	ldr	r0, [r0, #4]
	.loc	9 200 11                        @ rt-thread/components/net/lwip-2.0.2/src/core/ipv4/icmp.c:200:11
	str	r0, [sp, #48]
.Ltmp50:
	.loc	9 201 21 is_stmt 1              @ rt-thread/components/net/lwip-2.0.2/src/core/ipv4/icmp.c:201:21
	ldr	r0, [sp, #60]
	.loc	9 201 31 is_stmt 0              @ rt-thread/components/net/lwip-2.0.2/src/core/ipv4/icmp.c:201:31
	ldrsh.w	r1, [sp, #42]
	.loc	9 201 9                         @ rt-thread/components/net/lwip-2.0.2/src/core/ipv4/icmp.c:201:9
	bl	pbuf_header
.Ltmp51:
	.loc	9 201 9                         @ rt-thread/components/net/lwip-2.0.2/src/core/ipv4/icmp.c:201:9
	cbz	r0, .LBB0_38
	b	.LBB0_37
.LBB0_37:
.Ltmp52:
	.loc	9 203 5 is_stmt 1               @ rt-thread/components/net/lwip-2.0.2/src/core/ipv4/icmp.c:203:5
	b	.LBB0_44
.Ltmp53:
.LBB0_38:
	.loc	9 205 46                        @ rt-thread/components/net/lwip-2.0.2/src/core/ipv4/icmp.c:205:46
	ldr	r0, [sp, #60]
	.loc	9 205 49 is_stmt 0              @ rt-thread/components/net/lwip-2.0.2/src/core/ipv4/icmp.c:205:49
	ldr	r0, [r0, #4]
	.loc	9 205 22                        @ rt-thread/components/net/lwip-2.0.2/src/core/ipv4/icmp.c:205:22
	str	r0, [sp, #24]
	.loc	9 206 7 is_stmt 1               @ rt-thread/components/net/lwip-2.0.2/src/core/ipv4/icmp.c:206:7
	ldr	r0, [sp, #36]
	ldr	r0, [r0]
	ldr	r1, [sp, #24]
	str	r0, [r1, #12]
	.loc	9 207 7                         @ rt-thread/components/net/lwip-2.0.2/src/core/ipv4/icmp.c:207:7
	movw	r0, :lower16:ip_data
	movt	r0, :upper16:ip_data
	ldr	r0, [r0, #16]
	ldr	r1, [sp, #24]
	str	r0, [r1, #16]
	.loc	9 208 7                         @ rt-thread/components/net/lwip-2.0.2/src/core/ipv4/icmp.c:208:7
	ldr	r1, [sp, #48]
	movs	r0, #0
	strb	r0, [r1]
.Ltmp54:
	.loc	9 212 13                        @ rt-thread/components/net/lwip-2.0.2/src/core/ipv4/icmp.c:212:13
	ldr	r0, [sp, #48]
	.loc	9 212 20 is_stmt 0              @ rt-thread/components/net/lwip-2.0.2/src/core/ipv4/icmp.c:212:20
	ldrh	r0, [r0, #2]
	movw	r1, #65528
.Ltmp55:
	.loc	9 212 13                        @ rt-thread/components/net/lwip-2.0.2/src/core/ipv4/icmp.c:212:13
	cmp	r0, r1
	blo	.LBB0_40
	b	.LBB0_39
.LBB0_39:
.Ltmp56:
	.loc	9 213 11 is_stmt 1              @ rt-thread/components/net/lwip-2.0.2/src/core/ipv4/icmp.c:213:11
	ldr	r1, [sp, #48]
	.loc	9 213 25 is_stmt 0              @ rt-thread/components/net/lwip-2.0.2/src/core/ipv4/icmp.c:213:25
	ldrh	r0, [r1, #2]
	adds	r0, #9
	strh	r0, [r1, #2]
	.loc	9 214 9 is_stmt 1               @ rt-thread/components/net/lwip-2.0.2/src/core/ipv4/icmp.c:214:9
	b	.LBB0_41
.Ltmp57:
.LBB0_40:
	.loc	9 215 11                        @ rt-thread/components/net/lwip-2.0.2/src/core/ipv4/icmp.c:215:11
	ldr	r1, [sp, #48]
	.loc	9 215 25 is_stmt 0              @ rt-thread/components/net/lwip-2.0.2/src/core/ipv4/icmp.c:215:25
	ldrh	r0, [r1, #2]
	adds	r0, #8
	strh	r0, [r1, #2]
	b	.LBB0_41
.Ltmp58:
.LBB0_41:
	.loc	9 228 7 is_stmt 1               @ rt-thread/components/net/lwip-2.0.2/src/core/ipv4/icmp.c:228:7
	ldr	r1, [sp, #24]
	movs	r0, #255
	str	r0, [sp, #16]                   @ 4-byte Spill
	strb	r0, [r1, #8]
	.loc	9 229 7                         @ rt-thread/components/net/lwip-2.0.2/src/core/ipv4/icmp.c:229:7
	ldr	r1, [sp, #24]
	movs	r0, #0
	str	r0, [sp, #12]                   @ 4-byte Spill
	strh	r0, [r1, #10]
.Ltmp59:
	.loc	9 232 9                         @ rt-thread/components/net/lwip-2.0.2/src/core/ipv4/icmp.c:232:9
	ldr	r0, [sp, #24]
	ldrh.w	r1, [sp, #42]
	bl	inet_chksum
	ldr	r2, [sp, #12]                   @ 4-byte Reload
	ldr	r3, [sp, #16]                   @ 4-byte Reload
	ldr	r1, [sp, #24]
	strh	r0, [r1, #10]
.Ltmp60:
	.loc	9 243 27                        @ rt-thread/components/net/lwip-2.0.2/src/core/ipv4/icmp.c:243:27
	ldr	r0, [sp, #60]
	.loc	9 243 30 is_stmt 0              @ rt-thread/components/net/lwip-2.0.2/src/core/ipv4/icmp.c:243:30
	ldr	r1, [sp, #36]
	.loc	9 244 48 is_stmt 1              @ rt-thread/components/net/lwip-2.0.2/src/core/ipv4/icmp.c:244:48
	ldr.w	lr, [sp, #56]
	.loc	9 243 13                        @ rt-thread/components/net/lwip-2.0.2/src/core/ipv4/icmp.c:243:13
	mov	r12, sp
	str.w	lr, [r12, #8]
	mov.w	lr, #1
	str.w	lr, [r12, #4]
	str.w	r2, [r12]
	bl	ip4_output_if
	.loc	9 243 11 is_stmt 0              @ rt-thread/components/net/lwip-2.0.2/src/core/ipv4/icmp.c:243:11
	strb.w	r0, [sp, #31]
.Ltmp61:
	.loc	9 245 11 is_stmt 1              @ rt-thread/components/net/lwip-2.0.2/src/core/ipv4/icmp.c:245:11
	ldrsb.w	r0, [sp, #31]
.Ltmp62:
	.loc	9 245 11 is_stmt 0              @ rt-thread/components/net/lwip-2.0.2/src/core/ipv4/icmp.c:245:11
	cbz	r0, .LBB0_43
	b	.LBB0_42
.LBB0_42:
.Ltmp63:
	.loc	9 247 7 is_stmt 1               @ rt-thread/components/net/lwip-2.0.2/src/core/ipv4/icmp.c:247:7
	b	.LBB0_43
.Ltmp64:
.LBB0_43:
	.loc	9 0 7 is_stmt 0                 @ rt-thread/components/net/lwip-2.0.2/src/core/ipv4/icmp.c:0:7
	b	.LBB0_44
.LBB0_44:
	.loc	9 249 5 is_stmt 1               @ rt-thread/components/net/lwip-2.0.2/src/core/ipv4/icmp.c:249:5
	b	.LBB0_72
.LBB0_45:
.Ltmp65:
	.loc	9 251 9                         @ rt-thread/components/net/lwip-2.0.2/src/core/ipv4/icmp.c:251:9
	ldrb.w	r0, [sp, #55]
.Ltmp66:
	.loc	9 251 9 is_stmt 0               @ rt-thread/components/net/lwip-2.0.2/src/core/ipv4/icmp.c:251:9
	cmp	r0, #3
	bne	.LBB0_47
	b	.LBB0_46
.LBB0_46:
.Ltmp67:
	.loc	9 253 5 is_stmt 1               @ rt-thread/components/net/lwip-2.0.2/src/core/ipv4/icmp.c:253:5
	b	.LBB0_71
.Ltmp68:
.LBB0_47:
	.loc	9 253 16 is_stmt 0              @ rt-thread/components/net/lwip-2.0.2/src/core/ipv4/icmp.c:253:16
	ldrb.w	r0, [sp, #55]
.Ltmp69:
	.loc	9 253 16                        @ rt-thread/components/net/lwip-2.0.2/src/core/ipv4/icmp.c:253:16
	cmp	r0, #11
	bne	.LBB0_49
	b	.LBB0_48
.LBB0_48:
.Ltmp70:
	.loc	9 255 5 is_stmt 1               @ rt-thread/components/net/lwip-2.0.2/src/core/ipv4/icmp.c:255:5
	b	.LBB0_70
.Ltmp71:
.LBB0_49:
	.loc	9 255 16 is_stmt 0              @ rt-thread/components/net/lwip-2.0.2/src/core/ipv4/icmp.c:255:16
	ldrb.w	r0, [sp, #55]
.Ltmp72:
	.loc	9 255 16                        @ rt-thread/components/net/lwip-2.0.2/src/core/ipv4/icmp.c:255:16
	cmp	r0, #12
	bne	.LBB0_51
	b	.LBB0_50
.LBB0_50:
.Ltmp73:
	.loc	9 257 5 is_stmt 1               @ rt-thread/components/net/lwip-2.0.2/src/core/ipv4/icmp.c:257:5
	b	.LBB0_69
.Ltmp74:
.LBB0_51:
	.loc	9 257 16 is_stmt 0              @ rt-thread/components/net/lwip-2.0.2/src/core/ipv4/icmp.c:257:16
	ldrb.w	r0, [sp, #55]
.Ltmp75:
	.loc	9 257 16                        @ rt-thread/components/net/lwip-2.0.2/src/core/ipv4/icmp.c:257:16
	cmp	r0, #4
	bne	.LBB0_53
	b	.LBB0_52
.LBB0_52:
.Ltmp76:
	.loc	9 259 5 is_stmt 1               @ rt-thread/components/net/lwip-2.0.2/src/core/ipv4/icmp.c:259:5
	b	.LBB0_68
.Ltmp77:
.LBB0_53:
	.loc	9 259 16 is_stmt 0              @ rt-thread/components/net/lwip-2.0.2/src/core/ipv4/icmp.c:259:16
	ldrb.w	r0, [sp, #55]
.Ltmp78:
	.loc	9 259 16                        @ rt-thread/components/net/lwip-2.0.2/src/core/ipv4/icmp.c:259:16
	cmp	r0, #5
	bne	.LBB0_55
	b	.LBB0_54
.LBB0_54:
.Ltmp79:
	.loc	9 261 5 is_stmt 1               @ rt-thread/components/net/lwip-2.0.2/src/core/ipv4/icmp.c:261:5
	b	.LBB0_67
.Ltmp80:
.LBB0_55:
	.loc	9 261 16 is_stmt 0              @ rt-thread/components/net/lwip-2.0.2/src/core/ipv4/icmp.c:261:16
	ldrb.w	r0, [sp, #55]
.Ltmp81:
	.loc	9 261 16                        @ rt-thread/components/net/lwip-2.0.2/src/core/ipv4/icmp.c:261:16
	cmp	r0, #13
	bne	.LBB0_57
	b	.LBB0_56
.LBB0_56:
.Ltmp82:
	.loc	9 263 5 is_stmt 1               @ rt-thread/components/net/lwip-2.0.2/src/core/ipv4/icmp.c:263:5
	b	.LBB0_66
.Ltmp83:
.LBB0_57:
	.loc	9 263 16 is_stmt 0              @ rt-thread/components/net/lwip-2.0.2/src/core/ipv4/icmp.c:263:16
	ldrb.w	r0, [sp, #55]
.Ltmp84:
	.loc	9 263 16                        @ rt-thread/components/net/lwip-2.0.2/src/core/ipv4/icmp.c:263:16
	cmp	r0, #14
	bne	.LBB0_59
	b	.LBB0_58
.LBB0_58:
.Ltmp85:
	.loc	9 265 5 is_stmt 1               @ rt-thread/components/net/lwip-2.0.2/src/core/ipv4/icmp.c:265:5
	b	.LBB0_65
.Ltmp86:
.LBB0_59:
	.loc	9 265 16 is_stmt 0              @ rt-thread/components/net/lwip-2.0.2/src/core/ipv4/icmp.c:265:16
	ldrb.w	r0, [sp, #55]
.Ltmp87:
	.loc	9 265 16                        @ rt-thread/components/net/lwip-2.0.2/src/core/ipv4/icmp.c:265:16
	cmp	r0, #17
	bne	.LBB0_61
	b	.LBB0_60
.LBB0_60:
.Ltmp88:
	.loc	9 267 5 is_stmt 1               @ rt-thread/components/net/lwip-2.0.2/src/core/ipv4/icmp.c:267:5
	b	.LBB0_64
.Ltmp89:
.LBB0_61:
	.loc	9 267 16 is_stmt 0              @ rt-thread/components/net/lwip-2.0.2/src/core/ipv4/icmp.c:267:16
	ldrb.w	r0, [sp, #55]
.Ltmp90:
	.loc	9 267 16                        @ rt-thread/components/net/lwip-2.0.2/src/core/ipv4/icmp.c:267:16
	cmp	r0, #18
	bne	.LBB0_63
	b	.LBB0_62
.LBB0_62:
.Ltmp91:
	.loc	9 269 5 is_stmt 1               @ rt-thread/components/net/lwip-2.0.2/src/core/ipv4/icmp.c:269:5
	b	.LBB0_63
.Ltmp92:
.LBB0_63:
	.loc	9 0 5 is_stmt 0                 @ rt-thread/components/net/lwip-2.0.2/src/core/ipv4/icmp.c:0:5
	b	.LBB0_64
.LBB0_64:
	b	.LBB0_65
.LBB0_65:
	b	.LBB0_66
.LBB0_66:
	b	.LBB0_67
.LBB0_67:
	b	.LBB0_68
.LBB0_68:
	b	.LBB0_69
.LBB0_69:
	b	.LBB0_70
.LBB0_70:
	b	.LBB0_71
.LBB0_71:
	.loc	9 274 3 is_stmt 1               @ rt-thread/components/net/lwip-2.0.2/src/core/ipv4/icmp.c:274:3
	b	.LBB0_72
.Ltmp93:
.LBB0_72:
	.loc	9 275 13                        @ rt-thread/components/net/lwip-2.0.2/src/core/ipv4/icmp.c:275:13
	ldr	r0, [sp, #60]
	.loc	9 275 3 is_stmt 0               @ rt-thread/components/net/lwip-2.0.2/src/core/ipv4/icmp.c:275:3
	bl	pbuf_free
	.loc	9 276 3 is_stmt 1               @ rt-thread/components/net/lwip-2.0.2/src/core/ipv4/icmp.c:276:3
	b	.LBB0_75
.LBB0_73:
.Ltmp94:
	@DEBUG_LABEL: icmp_input:lenerr
	.loc	9 278 13                        @ rt-thread/components/net/lwip-2.0.2/src/core/ipv4/icmp.c:278:13
	ldr	r0, [sp, #60]
	.loc	9 278 3 is_stmt 0               @ rt-thread/components/net/lwip-2.0.2/src/core/ipv4/icmp.c:278:3
	bl	pbuf_free
	.loc	9 281 3 is_stmt 1               @ rt-thread/components/net/lwip-2.0.2/src/core/ipv4/icmp.c:281:3
	b	.LBB0_75
.LBB0_74:
.Ltmp95:
	@DEBUG_LABEL: icmp_input:icmperr
	.loc	9 284 13                        @ rt-thread/components/net/lwip-2.0.2/src/core/ipv4/icmp.c:284:13
	ldr	r0, [sp, #60]
	.loc	9 284 3 is_stmt 0               @ rt-thread/components/net/lwip-2.0.2/src/core/ipv4/icmp.c:284:3
	bl	pbuf_free
	.loc	9 287 3 is_stmt 1               @ rt-thread/components/net/lwip-2.0.2/src/core/ipv4/icmp.c:287:3
	b	.LBB0_75
.LBB0_75:
	.loc	9 289 1                         @ rt-thread/components/net/lwip-2.0.2/src/core/ipv4/icmp.c:289:1
	add	sp, #64
	pop	{r7, pc}
.Ltmp96:
.Lfunc_end0:
	.size	icmp_input, .Lfunc_end0-icmp_input
	.cfi_endproc
	.cantunwind
	.fnend
                                        @ -- End function
	.section	.text.icmp_dest_unreach,"ax",%progbits
	.hidden	icmp_dest_unreach               @ -- Begin function icmp_dest_unreach
	.globl	icmp_dest_unreach
	.p2align	3
	.type	icmp_dest_unreach,%function
	.code	16                              @ @icmp_dest_unreach
	.thumb_func
icmp_dest_unreach:
.Lfunc_begin1:
	.loc	9 302 0                         @ rt-thread/components/net/lwip-2.0.2/src/core/ipv4/icmp.c:302:0
	.fnstart
	.cfi_startproc
@ %bb.0:
	.save	{r7, lr}
	push	{r7, lr}
	.cfi_def_cfa_offset 8
	.cfi_offset lr, -4
	.cfi_offset r7, -8
	.pad	#8
	sub	sp, #8
	.cfi_def_cfa_offset 16
                                        @ kill: def $r2 killed $r1
	str	r0, [sp, #4]
	strb.w	r1, [sp, #3]
.Ltmp97:
	.loc	9 304 22 prologue_end           @ rt-thread/components/net/lwip-2.0.2/src/core/ipv4/icmp.c:304:22
	ldr	r0, [sp, #4]
	.loc	9 304 35 is_stmt 0              @ rt-thread/components/net/lwip-2.0.2/src/core/ipv4/icmp.c:304:35
	ldrb.w	r2, [sp, #3]
	movs	r1, #3
	.loc	9 304 3                         @ rt-thread/components/net/lwip-2.0.2/src/core/ipv4/icmp.c:304:3
	bl	icmp_send_response
	.loc	9 305 1 is_stmt 1               @ rt-thread/components/net/lwip-2.0.2/src/core/ipv4/icmp.c:305:1
	add	sp, #8
	pop	{r7, pc}
.Ltmp98:
.Lfunc_end1:
	.size	icmp_dest_unreach, .Lfunc_end1-icmp_dest_unreach
	.cfi_endproc
	.cantunwind
	.fnend
                                        @ -- End function
	.section	.text.icmp_send_response,"ax",%progbits
	.p2align	3                               @ -- Begin function icmp_send_response
	.type	icmp_send_response,%function
	.code	16                              @ @icmp_send_response
	.thumb_func
icmp_send_response:
.Lfunc_begin2:
	.loc	9 334 0                         @ rt-thread/components/net/lwip-2.0.2/src/core/ipv4/icmp.c:334:0
	.fnstart
	.cfi_startproc
@ %bb.0:
	.save	{r7, lr}
	push	{r7, lr}
	.cfi_def_cfa_offset 8
	.cfi_offset lr, -4
	.cfi_offset r7, -8
	.pad	#48
	sub	sp, #48
	.cfi_def_cfa_offset 56
                                        @ kill: def $r3 killed $r2
                                        @ kill: def $r3 killed $r1
	str	r0, [sp, #44]
	strb.w	r1, [sp, #43]
	strb.w	r2, [sp, #42]
	movs	r0, #1
	movs	r1, #36
	movs	r2, #0
.Ltmp99:
	.loc	9 346 7 prologue_end            @ rt-thread/components/net/lwip-2.0.2/src/core/ipv4/icmp.c:346:7
	bl	pbuf_alloc
	.loc	9 346 5 is_stmt 0               @ rt-thread/components/net/lwip-2.0.2/src/core/ipv4/icmp.c:346:5
	str	r0, [sp, #36]
.Ltmp100:
	.loc	9 348 7 is_stmt 1               @ rt-thread/components/net/lwip-2.0.2/src/core/ipv4/icmp.c:348:7
	ldr	r0, [sp, #36]
.Ltmp101:
	.loc	9 348 7 is_stmt 0               @ rt-thread/components/net/lwip-2.0.2/src/core/ipv4/icmp.c:348:7
	cbnz	r0, .LBB2_2
	b	.LBB2_1
.LBB2_1:
.Ltmp102:
	.loc	9 351 5 is_stmt 1               @ rt-thread/components/net/lwip-2.0.2/src/core/ipv4/icmp.c:351:5
	b	.LBB2_11
.Ltmp103:
.LBB2_2:
	.loc	9 353 3                         @ rt-thread/components/net/lwip-2.0.2/src/core/ipv4/icmp.c:353:3
	b	.LBB2_3
.LBB2_3:
.Ltmp104:
	.loc	9 353 3 is_stmt 0               @ rt-thread/components/net/lwip-2.0.2/src/core/ipv4/icmp.c:353:3
	ldr	r0, [sp, #36]
	ldrh	r0, [r0, #10]
.Ltmp105:
	.loc	9 353 3                         @ rt-thread/components/net/lwip-2.0.2/src/core/ipv4/icmp.c:353:3
	cmp	r0, #35
	bhi	.LBB2_7
	b	.LBB2_4
.LBB2_4:
.Ltmp106:
	.loc	9 353 3                         @ rt-thread/components/net/lwip-2.0.2/src/core/ipv4/icmp.c:353:3
	b	.LBB2_5
.LBB2_5:
.Ltmp107:
	.loc	9 353 3                         @ rt-thread/components/net/lwip-2.0.2/src/core/ipv4/icmp.c:353:3
	movw	r0, :lower16:.L.str.3
	movt	r0, :upper16:.L.str.3
	bl	rt_kprintf
	movw	r0, :lower16:.L.str.1
	movt	r0, :upper16:.L.str.1
	mov.w	r1, #354
	bl	sys_arch_assert
	b	.LBB2_6
.Ltmp108:
.LBB2_6:
	.loc	9 353 3                         @ rt-thread/components/net/lwip-2.0.2/src/core/ipv4/icmp.c:353:3
	b	.LBB2_7
.Ltmp109:
.LBB2_7:
	.loc	9 353 3                         @ rt-thread/components/net/lwip-2.0.2/src/core/ipv4/icmp.c:353:3
	b	.LBB2_8
.Ltmp110:
.LBB2_8:
	.loc	9 356 28 is_stmt 1              @ rt-thread/components/net/lwip-2.0.2/src/core/ipv4/icmp.c:356:28
	ldr	r0, [sp, #44]
	.loc	9 356 31 is_stmt 0              @ rt-thread/components/net/lwip-2.0.2/src/core/ipv4/icmp.c:356:31
	ldr	r0, [r0, #4]
	.loc	9 356 9                         @ rt-thread/components/net/lwip-2.0.2/src/core/ipv4/icmp.c:356:9
	str	r0, [sp, #32]
	.loc	9 363 37 is_stmt 1              @ rt-thread/components/net/lwip-2.0.2/src/core/ipv4/icmp.c:363:37
	ldr	r0, [sp, #36]
	.loc	9 363 40 is_stmt 0              @ rt-thread/components/net/lwip-2.0.2/src/core/ipv4/icmp.c:363:40
	ldr	r0, [r0, #4]
	.loc	9 363 11                        @ rt-thread/components/net/lwip-2.0.2/src/core/ipv4/icmp.c:363:11
	str	r0, [sp, #28]
	.loc	9 364 19 is_stmt 1              @ rt-thread/components/net/lwip-2.0.2/src/core/ipv4/icmp.c:364:19
	ldrb.w	r0, [sp, #43]
	.loc	9 364 3 is_stmt 0               @ rt-thread/components/net/lwip-2.0.2/src/core/ipv4/icmp.c:364:3
	ldr	r1, [sp, #28]
	.loc	9 364 17                        @ rt-thread/components/net/lwip-2.0.2/src/core/ipv4/icmp.c:364:17
	strb	r0, [r1]
	.loc	9 365 19 is_stmt 1              @ rt-thread/components/net/lwip-2.0.2/src/core/ipv4/icmp.c:365:19
	ldrb.w	r0, [sp, #42]
	.loc	9 365 3 is_stmt 0               @ rt-thread/components/net/lwip-2.0.2/src/core/ipv4/icmp.c:365:3
	ldr	r1, [sp, #28]
	.loc	9 365 17                        @ rt-thread/components/net/lwip-2.0.2/src/core/ipv4/icmp.c:365:17
	strb	r0, [r1, #1]
	.loc	9 366 3 is_stmt 1               @ rt-thread/components/net/lwip-2.0.2/src/core/ipv4/icmp.c:366:3
	ldr	r1, [sp, #28]
	movs	r0, #0
	.loc	9 366 15 is_stmt 0              @ rt-thread/components/net/lwip-2.0.2/src/core/ipv4/icmp.c:366:15
	strh	r0, [r1, #4]
	.loc	9 367 3 is_stmt 1               @ rt-thread/components/net/lwip-2.0.2/src/core/ipv4/icmp.c:367:3
	ldr	r1, [sp, #28]
	.loc	9 367 18 is_stmt 0              @ rt-thread/components/net/lwip-2.0.2/src/core/ipv4/icmp.c:367:18
	strh	r0, [r1, #6]
	.loc	9 370 3 is_stmt 1               @ rt-thread/components/net/lwip-2.0.2/src/core/ipv4/icmp.c:370:3
	ldr	r0, [sp, #36]
	ldr	r0, [r0, #4]
	adds	r0, #8
	ldr	r1, [sp, #44]
	ldr	r1, [r1, #4]
	movs	r2, #28
	bl	__aeabi_memcpy
	.loc	9 373 3                         @ rt-thread/components/net/lwip-2.0.2/src/core/ipv4/icmp.c:373:3
	ldr	r0, [sp, #32]
	ldr	r0, [r0, #12]
	str	r0, [sp, #24]
	add	r0, sp, #24
	.loc	9 381 11                        @ rt-thread/components/net/lwip-2.0.2/src/core/ipv4/icmp.c:381:11
	bl	ip4_route
	.loc	9 381 9 is_stmt 0               @ rt-thread/components/net/lwip-2.0.2/src/core/ipv4/icmp.c:381:9
	str	r0, [sp, #20]
.Ltmp111:
	.loc	9 383 7 is_stmt 1               @ rt-thread/components/net/lwip-2.0.2/src/core/ipv4/icmp.c:383:7
	ldr	r0, [sp, #20]
.Ltmp112:
	.loc	9 383 7 is_stmt 0               @ rt-thread/components/net/lwip-2.0.2/src/core/ipv4/icmp.c:383:7
	cbz	r0, .LBB2_10
	b	.LBB2_9
.LBB2_9:
.Ltmp113:
	.loc	9 385 5 is_stmt 1               @ rt-thread/components/net/lwip-2.0.2/src/core/ipv4/icmp.c:385:5
	ldr	r1, [sp, #28]
	movs	r0, #0
	.loc	9 385 21 is_stmt 0              @ rt-thread/components/net/lwip-2.0.2/src/core/ipv4/icmp.c:385:21
	str	r0, [sp, #16]                   @ 4-byte Spill
	strh	r0, [r1, #2]
.Ltmp114:
	.loc	9 388 37 is_stmt 1              @ rt-thread/components/net/lwip-2.0.2/src/core/ipv4/icmp.c:388:37
	ldr	r0, [sp, #28]
	.loc	9 388 46 is_stmt 0              @ rt-thread/components/net/lwip-2.0.2/src/core/ipv4/icmp.c:388:46
	ldr	r1, [sp, #36]
	.loc	9 388 49                        @ rt-thread/components/net/lwip-2.0.2/src/core/ipv4/icmp.c:388:49
	ldrh	r1, [r1, #10]
	.loc	9 388 25                        @ rt-thread/components/net/lwip-2.0.2/src/core/ipv4/icmp.c:388:25
	bl	inet_chksum
	ldr	r1, [sp, #16]                   @ 4-byte Reload
	.loc	9 388 7                         @ rt-thread/components/net/lwip-2.0.2/src/core/ipv4/icmp.c:388:7
	ldr	r2, [sp, #28]
	.loc	9 388 23                        @ rt-thread/components/net/lwip-2.0.2/src/core/ipv4/icmp.c:388:23
	strh	r0, [r2, #2]
.Ltmp115:
	.loc	9 392 19 is_stmt 1              @ rt-thread/components/net/lwip-2.0.2/src/core/ipv4/icmp.c:392:19
	ldr	r0, [sp, #36]
	.loc	9 392 68 is_stmt 0              @ rt-thread/components/net/lwip-2.0.2/src/core/ipv4/icmp.c:392:68
	ldr	r3, [sp, #20]
	.loc	9 392 5                         @ rt-thread/components/net/lwip-2.0.2/src/core/ipv4/icmp.c:392:5
	mov	r2, sp
	str	r3, [r2, #8]
	movs	r3, #1
	str	r3, [r2, #4]
	str	r1, [r2]
	add	r2, sp, #24
	movs	r3, #255
	bl	ip4_output_if
	.loc	9 393 3 is_stmt 1               @ rt-thread/components/net/lwip-2.0.2/src/core/ipv4/icmp.c:393:3
	b	.LBB2_10
.Ltmp116:
.LBB2_10:
	.loc	9 394 13                        @ rt-thread/components/net/lwip-2.0.2/src/core/ipv4/icmp.c:394:13
	ldr	r0, [sp, #36]
	.loc	9 394 3 is_stmt 0               @ rt-thread/components/net/lwip-2.0.2/src/core/ipv4/icmp.c:394:3
	bl	pbuf_free
	.loc	9 395 1 is_stmt 1               @ rt-thread/components/net/lwip-2.0.2/src/core/ipv4/icmp.c:395:1
	b	.LBB2_11
.LBB2_11:
	add	sp, #48
	pop	{r7, pc}
.Ltmp117:
.Lfunc_end2:
	.size	icmp_send_response, .Lfunc_end2-icmp_send_response
	.cfi_endproc
	.cantunwind
	.fnend
                                        @ -- End function
	.type	.L.str,%object                  @ @.str
	.section	.rodata.str1.1,"aMS",%progbits,1
.L.str:
	.asciz	"icmp_input: moving r->payload to icmp header failed\n"
	.size	.L.str, 53

	.type	.L.str.1,%object                @ @.str.1
.L.str.1:
	.asciz	"rt-thread/components/net/lwip-2.0.2/src/core/ipv4/icmp.c"
	.size	.L.str.1, 57

	.type	.L.str.2,%object                @ @.str.2
.L.str.2:
	.asciz	"icmp_input: restoring original p->payload failed\n"
	.size	.L.str.2, 50

	.type	.L.str.3,%object                @ @.str.3
.L.str.3:
	.asciz	"check that first pbuf can hold icmp message"
	.size	.L.str.3, 44

	.file	10 "E:\\STM32\\Learning\\STM32H750_ART_PI_RGBLCD" "./rt-thread/components/net/lwip-2.0.2/src/include\\lwip/ip4_addr.h"
	.file	11 "E:\\STM32\\Learning\\STM32H750_ART_PI_RGBLCD" "./rt-thread/components/net/lwip-2.0.2/src/include\\lwip/ip_addr.h"
	.section	".note.GNU-stack","",%progbits
	.eabi_attribute	30, 6	@ Tag_ABI_optimization_goals
	.ARM_attribute	16, 1	@ Tag_AV_eba