	.text
	.syntax unified
	.eabi_attribute	67, "2.09"	@ Tag_conformance
	.cpu	cortex-m7
	.eabi_attribute	6, 13	@ Tag_CPU_arch
	.eabi_attribute	7, 77	@ Tag_CPU_arch_profile
	.eabi_attribute	8, 0	@ Tag_ARM_ISA_use
	.eabi_attribute	9, 2	@ Tag_THUMB_ISA_use
	.fpu	fpv5-d16
	.eabi_attribute	36, 1	@ Tag_FP_HP_extension
	.eabi_attribute	34, 1	@ Tag_CPU_unaligned_access
	.eabi_attribute	17, 1	@ Tag_ABI_PCS_GOT_use
	.eabi_attribute	20, 2	@ Tag_ABI_FP_denormal
	.eabi_attribute	21, 0	@ Tag_ABI_FP_exceptions
	.eabi_attribute	23, 1	@ Tag_ABI_FP_number_model
	.eabi_attribute	24, 1	@ Tag_ABI_align_needed
	.eabi_attribute	25, 1	@ Tag_ABI_align_preserved
	.eabi_attribute	28, 1	@ Tag_ABI_VFP_args
	.eabi_attribute	38, 1	@ Tag_ABI_FP_16bit_format
	.eabi_attribute	18, 2	@ Tag_ABI_PCS_wchar_t
	.eabi_attribute	26, 1	@ Tag_ABI_enum_size
	.eabi_attribute	14, 0	@ Tag_ABI_PCS_R9_use
	.file	"idle.c"
	.file	1 "E:\\Smart-access-control\\Hardware\\CODE" "rt-thread/include\\rtdef.h"
	.file	2 "E:\\Smart-access-control\\Hardware\\CODE" "rt-thread/src/idle.c"
	.section	.text.rt_thread_idle_sethook,"ax",%progbits
	.hidden	rt_thread_idle_sethook          @ -- Begin function rt_thread_idle_sethook
	.globl	rt_thread_idle_sethook
	.p2align	3
	.type	rt_thread_idle_sethook,%function
	.code	16                              @ @rt_thread_idle_sethook
	.thumb_func
rt_thread_idle_sethook:
.Lfunc_begin0:
	.loc	2 73 0                          @ rt-thread/src/idle.c:73:0
	.fnstart
	.cfi_sections .debug_frame
	.cfi_startproc
@ %bb.0:
	.save	{r7, lr}
	push	{r7, lr}
	.cfi_def_cfa_offset 8
	.cfi_offset lr, -4
	.cfi_offset r7, -8
	.pad	#16
	sub	sp, #16
	.cfi_def_cfa_offset 24
	str	r0, [sp, #12]
	mvn	r0, #2
.Ltmp0:
	.loc	2 76 14 prologue_end            @ rt-thread/src/idle.c:76:14
	str	r0, [sp]
	.loc	2 79 13                         @ rt-thread/src/idle.c:79:13
	bl	rt_hw_interrupt_disable
	.loc	2 79 11 is_stmt 0               @ rt-thread/src/idle.c:79:11
	str	r0, [sp, #4]
	movs	r0, #0
.Ltmp1:
	.loc	2 81 12 is_stmt 1               @ rt-thread/src/idle.c:81:12
	str	r0, [sp, #8]
	.loc	2 81 10 is_stmt 0               @ rt-thread/src/idle.c:81:10
	b	.LBB0_1
.LBB0_1:                                @ =>This Inner Loop Header: Depth=1
.Ltmp2:
	.loc	2 81 17                         @ rt-thread/src/idle.c:81:17
	ldr	r0, [sp, #8]
.Ltmp3:
	.loc	2 81 5                          @ rt-thread/src/idle.c:81:5
	cmp	r0, #3
	bhi	.LBB0_6
	b	.LBB0_2
.LBB0_2:                                @   in Loop: Header=BB0_1 Depth=1
.Ltmp4:
	.loc	2 83 28 is_stmt 1               @ rt-thread/src/idle.c:83:28
	ldr	r1, [sp, #8]
	.loc	2 83 13 is_stmt 0               @ rt-thread/src/idle.c:83:13
	movw	r0, :lower16:idle_hook_list
	movt	r0, :upper16:idle_hook_list
	ldr.w	r0, [r0, r1, lsl #2]
.Ltmp5:
	.loc	2 83 13                         @ rt-thread/src/idle.c:83:13
	cbnz	r0, .LBB0_4
	b	.LBB0_3
.LBB0_3:
.Ltmp6:
	.loc	2 85 33 is_stmt 1               @ rt-thread/src/idle.c:85:33
	ldr	r0, [sp, #12]
	.loc	2 85 28 is_stmt 0               @ rt-thread/src/idle.c:85:28
	ldr	r2, [sp, #8]
	.loc	2 85 13                         @ rt-thread/src/idle.c:85:13
	movw	r1, :lower16:idle_hook_list
	movt	r1, :upper16:idle_hook_list
	.loc	2 85 31                         @ rt-thread/src/idle.c:85:31
	str.w	r0, [r1, r2, lsl #2]
	movs	r0, #0
	.loc	2 86 17 is_stmt 1               @ rt-thread/src/idle.c:86:17
	str	r0, [sp]
	.loc	2 87 13                         @ rt-thread/src/idle.c:87:13
	b	.LBB0_6
.Ltmp7:
.LBB0_4:                                @   in Loop: Header=BB0_1 Depth=1
	.loc	2 89 5                          @ rt-thread/src/idle.c:89:5
	b	.LBB0_5
.Ltmp8:
.LBB0_5:                                @   in Loop: Header=BB0_1 Depth=1
	.loc	2 81 46                         @ rt-thread/src/idle.c:81:46
	ldr	r0, [sp, #8]
	adds	r0, #1
	str	r0, [sp, #8]
	.loc	2 81 5 is_stmt 0                @ rt-thread/src/idle.c:81:5
	b	.LBB0_1
.Ltmp9:
.LBB0_6:
	.loc	2 91 28 is_stmt 1               @ rt-thread/src/idle.c:91:28
	ldr	r0, [sp, #4]
	.loc	2 91 5 is_stmt 0                @ rt-thread/src/idle.c:91:5
	bl	rt_hw_interrupt_enable
	.loc	2 93 12 is_stmt 1               @ rt-thread/src/idle.c:93:12
	ldr	r0, [sp]
	.loc	2 93 5 is_stmt 0                @ rt-thread/src/idle.c:93:5
	add	sp, #16
	pop	{r7, pc}
.Ltmp10:
.Lfunc_end0:
	.size	rt_thread_idle_sethook, .Lfunc_end0-rt_thread_idle_sethook
	.cfi_endproc
	.cantunwind
	.fnend
                                        @ -- End function
	.section	.text.rt_thread_idle_delhook,"ax",%progbits
	.hidden	rt_thread_idle_delhook          @ -- Begin function rt_thread_idle_delhook
	.globl	rt_thread_idle_delhook
	.p2align	3
	.type	rt_thread_idle_delhook,%function
	.code	16                              @ @rt_thread_idle_delhook
	.thumb_func
rt_thread_idle_delhook:
.Lfunc_begin1:
	.loc	2 105 0 is_stmt 1               @ rt-thread/src/idle.c:105:0
	.fnstart
	.cfi_startproc
@ %bb.0:
	.save	{r7, lr}
	push	{r7, lr}
	.cfi_def_cfa_offset 8
	.cfi_offset lr, -4
	.cfi_offset r7, -8
	.pad	#16
	sub	sp, #16
	.cfi_def_cfa_offset 24
	str	r0, [sp, #12]
	mvn	r0, #5
.Ltmp11:
	.loc	2 108 14 prologue_end           @ rt-thread/src/idle.c:108:14
	str	r0, [sp]
	.loc	2 111 13                        @ rt-thread/src/idle.c:111:13
	bl	rt_hw_interrupt_disable
	.loc	2 111 11 is_stmt 0              @ rt-thread/src/idle.c:111:11
	str	r0, [sp, #4]
	movs	r0, #0
.Ltmp12:
	.loc	2 113 12 is_stmt 1              @ rt-thread/src/idle.c:113:12
	str	r0, [sp, #8]
	.loc	2 113 10 is_stmt 0              @ rt-thread/src/idle.c:113:10
	b	.LBB1_1
.LBB1_1:                                @ =>This Inner Loop Header: Depth=1
.Ltmp13:
	.loc	2 113 17                        @ rt-thread/src/idle.c:113:17
	ldr	r0, [sp, #8]
.Ltmp14:
	.loc	2 113 5                         @ rt-thread/src/idle.c:113:5
	cmp	r0, #3
	bhi	.LBB1_6
	b	.LBB1_2
.LBB1_2:                                @   in Loop: Header=BB1_1 Depth=1
.Ltmp15:
	.loc	2 115 28 is_stmt 1              @ rt-thread/src/idle.c:115:28
	ldr	r1, [sp, #8]
	.loc	2 115 13 is_stmt 0              @ rt-thread/src/idle.c:115:13
	movw	r0, :lower16:idle_hook_list
	movt	r0, :upper16:idle_hook_list
	ldr.w	r0, [r0, r1, lsl #2]
	.loc	2 115 34                        @ rt-thread/src/idle.c:115:34
	ldr	r1, [sp, #12]
.Ltmp16:
	.loc	2 115 13                        @ rt-thread/src/idle.c:115:13
	cmp	r0, r1
	bne	.LBB1_4
	b	.LBB1_3
.LBB1_3:
.Ltmp17:
	.loc	2 117 28 is_stmt 1              @ rt-thread/src/idle.c:117:28
	ldr	r2, [sp, #8]
	.loc	2 117 13 is_stmt 0              @ rt-thread/src/idle.c:117:13
	movw	r1, :lower16:idle_hook_list
	movt	r1, :upper16:idle_hook_list
	movs	r0, #0
	.loc	2 117 31                        @ rt-thread/src/idle.c:117:31
	str.w	r0, [r1, r2, lsl #2]
	.loc	2 118 17 is_stmt 1              @ rt-thread/src/idle.c:118:17
	str	r0, [sp]
	.loc	2 119 13                        @ rt-thread/src/idle.c:119:13
	b	.LBB1_6
.Ltmp18:
.LBB1_4:                                @   in Loop: Header=BB1_1 Depth=1
	.loc	2 121 5                         @ rt-thread/src/idle.c:121:5
	b	.LBB1_5
.Ltmp19:
.LBB1_5:                                @   in Loop: Header=BB1_1 Depth=1
	.loc	2 113 46                        @ rt-thread/src/idle.c:113:46
	ldr	r0, [sp, #8]
	adds	r0, #1
	str	r0, [sp, #8]
	.loc	2 113 5 is_stmt 0               @ rt-thread/src/idle.c:113:5
	b	.LBB1_1
.Ltmp20:
.LBB1_6:
	.loc	2 123 28 is_stmt 1              @ rt-thread/src/idle.c:123:28
	ldr	r0, [sp, #4]
	.loc	2 123 5 is_stmt 0               @ rt-thread/src/idle.c:123:5
	bl	rt_hw_interrupt_enable
	.loc	2 125 12 is_stmt 1              @ rt-thread/src/idle.c:125:12
	ldr	r0, [sp]
	.loc	2 125 5 is_stmt 0               @ rt-thread/src/idle.c:125:5
	add	sp, #16
	pop	{r7, pc}
.Ltmp21:
.Lfunc_end1:
	.size	rt_thread_idle_delhook, .Lfunc_end1-rt_thread_idle_delhook
	.cfi_endproc
	.cantunwind
	.fnend
                                        @ -- End function
	.section	.text.rt_thread_idle_excute,"ax",%progbits
	.hidden	rt_thread_idle_excute           @ -- Begin function rt_thread_idle_excute
	.globl	rt_thread_idle_excute
	.p2align	3
	.type	rt_thread_idle_excute,%function
	.code	16                              @ @rt_thread_idle_excute
	.thumb_func
rt_thread_idle_excute:
.Lfunc_begin2:
	.loc	2 150 0 is_stmt 1               @ rt-thread/src/idle.c:150:0
	.fnstart
	.cfi_startproc
@ %bb.0:
	.save	{r7, lr}
	push	{r7, lr}
	.cfi_def_cfa_offset 8
	.cfi_offset lr, -4
	.cfi_offset r7, -8
	.pad	#16
	sub	sp, #16
	.cfi_def_cfa_offset 24
.Ltmp22:
	.loc	2 153 5 prologue_end            @ rt-thread/src/idle.c:153:5
	b	.LBB2_1
.LBB2_1:                                @ =>This Inner Loop Header: Depth=1
	.loc	2 153 12 is_stmt 0              @ rt-thread/src/idle.c:153:12
	bl	_has_defunct_thread
	.loc	2 153 5                         @ rt-thread/src/idle.c:153:5
	cmp	r0, #0
	beq	.LBB2_14
	b	.LBB2_2
.LBB2_2:                                @   in Loop: Header=BB2_1 Depth=1
.Ltmp23:
	.loc	2 160 9 is_stmt 1               @ rt-thread/src/idle.c:160:9
	b	.LBB2_3
.LBB2_3:                                @   in Loop: Header=BB2_1 Depth=1
.Ltmp24:
	.loc	2 160 9 is_stmt 0               @ rt-thread/src/idle.c:160:9
	bl	rt_hw_interrupt_disable
	str	r0, [sp, #4]
.Ltmp25:
	.loc	2 160 9                         @ rt-thread/src/idle.c:160:9
	bl	rt_interrupt_get_nest
.Ltmp26:
	.loc	2 160 9                         @ rt-thread/src/idle.c:160:9
	cbz	r0, .LBB2_5
	b	.LBB2_4
.LBB2_4:                                @   in Loop: Header=BB2_1 Depth=1
.Ltmp27:
	.loc	2 160 9                         @ rt-thread/src/idle.c:160:9
	movw	r0, :lower16:.L.str
	movt	r0, :upper16:.L.str
	movw	r1, :lower16:.L__FUNCTION__.rt_thread_idle_excute
	movt	r1, :upper16:.L__FUNCTION__.rt_thread_idle_excute
	movs	r2, #160
	bl	rt_assert_handler
.Ltmp28:
	.loc	2 160 9                         @ rt-thread/src/idle.c:160:9
	b	.LBB2_5
.Ltmp29:
.LBB2_5:                                @   in Loop: Header=BB2_1 Depth=1
	.loc	2 160 9                         @ rt-thread/src/idle.c:160:9
	ldr	r0, [sp, #4]
	bl	rt_hw_interrupt_enable
	b	.LBB2_6
.Ltmp30:
.LBB2_6:                                @   in Loop: Header=BB2_1 Depth=1
	.loc	2 163 16 is_stmt 1              @ rt-thread/src/idle.c:163:16
	bl	rt_hw_interrupt_disable
	.loc	2 163 14 is_stmt 0              @ rt-thread/src/idle.c:163:14
	str	r0, [sp, #12]
.Ltmp31:
	.loc	2 166 13 is_stmt 1              @ rt-thread/src/idle.c:166:13
	bl	_has_defunct_thread
.Ltmp32:
	.loc	2 166 13 is_stmt 0              @ rt-thread/src/idle.c:166:13
	cbz	r0, .LBB2_12
	b	.LBB2_7
.LBB2_7:                                @   in Loop: Header=BB2_1 Depth=1
.Ltmp33:
	.loc	2 169 22 is_stmt 1              @ rt-thread/src/idle.c:169:22
	movw	r0, :lower16:rt_thread_defunct
	movt	r0, :upper16:rt_thread_defunct
	ldr	r0, [r0]
	subs	r0, #20
	.loc	2 169 20 is_stmt 0              @ rt-thread/src/idle.c:169:20
	str	r0, [sp, #8]
	.loc	2 180 30 is_stmt 1              @ rt-thread/src/idle.c:180:30
	ldr	r0, [sp, #8]
	.loc	2 180 38 is_stmt 0              @ rt-thread/src/idle.c:180:38
	adds	r0, #20
	.loc	2 180 13                        @ rt-thread/src/idle.c:180:13
	bl	rt_list_remove
	.loc	2 183 13 is_stmt 1              @ rt-thread/src/idle.c:183:13
	bl	rt_enter_critical
.Ltmp34:
	.loc	2 186 17                        @ rt-thread/src/idle.c:186:17
	ldr	r0, [sp, #8]
	.loc	2 186 25 is_stmt 0              @ rt-thread/src/idle.c:186:25
	ldr	r0, [r0, #120]
.Ltmp35:
	.loc	2 186 17                        @ rt-thread/src/idle.c:186:17
	cbz	r0, .LBB2_9
	b	.LBB2_8
.LBB2_8:                                @   in Loop: Header=BB2_1 Depth=1
.Ltmp36:
	.loc	2 187 17 is_stmt 1              @ rt-thread/src/idle.c:187:17
	ldr	r0, [sp, #8]
	.loc	2 187 25 is_stmt 0              @ rt-thread/src/idle.c:187:25
	ldr	r1, [r0, #120]
	.loc	2 187 17                        @ rt-thread/src/idle.c:187:17
	blx	r1
	b	.LBB2_9
.Ltmp37:
.LBB2_9:                                @   in Loop: Header=BB2_1 Depth=1
	.loc	2 194 56 is_stmt 1              @ rt-thread/src/idle.c:194:56
	ldr	r0, [sp, #8]
	.loc	2 194 17 is_stmt 0              @ rt-thread/src/idle.c:194:17
	bl	rt_object_is_systemobject
.Ltmp38:
	.loc	2 194 17                        @ rt-thread/src/idle.c:194:17
	cmp	r0, #1
	bne	.LBB2_11
	b	.LBB2_10
.LBB2_10:
.Ltmp39:
	.loc	2 197 47 is_stmt 1              @ rt-thread/src/idle.c:197:47
	ldr	r0, [sp, #8]
	.loc	2 197 17 is_stmt 0              @ rt-thread/src/idle.c:197:17
	bl	rt_object_detach
	.loc	2 199 17 is_stmt 1              @ rt-thread/src/idle.c:199:17
	bl	rt_exit_critical
	.loc	2 202 40                        @ rt-thread/src/idle.c:202:40
	ldr	r0, [sp, #12]
	.loc	2 202 17 is_stmt 0              @ rt-thread/src/idle.c:202:17
	bl	rt_hw_interrupt_enable
	.loc	2 204 17 is_stmt 1              @ rt-thread/src/idle.c:204:17
	b	.LBB2_14
.Ltmp40:
.LBB2_11:                               @   in Loop: Header=BB2_1 Depth=1
	.loc	2 208 13                        @ rt-thread/src/idle.c:208:13
	bl	rt_exit_critical
	.loc	2 209 9                         @ rt-thread/src/idle.c:209:9
	b	.LBB2_13
.Ltmp41:
.LBB2_12:
	.loc	2 213 36                        @ rt-thread/src/idle.c:213:36
	ldr	r0, [sp, #12]
	.loc	2 213 13 is_stmt 0              @ rt-thread/src/idle.c:213:13
	bl	rt_hw_interrupt_enable
	.loc	2 216 13 is_stmt 1              @ rt-thread/src/idle.c:216:13
	b	.LBB2_14
.Ltmp42:
.LBB2_13:                               @   in Loop: Header=BB2_1 Depth=1
	.loc	2 220 32                        @ rt-thread/src/idle.c:220:32
	ldr	r0, [sp, #12]
	.loc	2 220 9 is_stmt 0               @ rt-thread/src/idle.c:220:9
	bl	rt_hw_interrupt_enable
	.loc	2 224 9 is_stmt 1               @ rt-thread/src/idle.c:224:9
	ldr	r0, [sp, #8]
	ldr	r0, [r0, #40]
	bl	rt_free
	.loc	2 226 39                        @ rt-thread/src/idle.c:226:39
	ldr	r0, [sp, #8]
	.loc	2 226 9 is_stmt 0               @ rt-thread/src/idle.c:226:9
	bl	rt_object_delete
.Ltmp43:
	.loc	2 153 5 is_stmt 1               @ rt-thread/src/idle.c:153:5
	b	.LBB2_1
.LBB2_14:
	.loc	2 229 1                         @ rt-thread/src/idle.c:229:1
	add	sp, #16
	pop	{r7, pc}
.Ltmp44:
.Lfunc_end2:
	.size	rt_thread_idle_excute, .Lfunc_end2-rt_thread_idle_excute
	.cfi_endproc
	.cantunwind
	.fnend
                                        @ -- End function
	.section	.text._has_defunct_thread,"ax",%progbits
	.p2align	3                               @ -- Begin function _has_defunct_thread
	.type	_has_defunct_thread,%function
	.code	16                              @ @_has_defunct_thread
	.thumb_func
_has_defunct_thread:
.Lfunc_begin3:
	.loc	2 132 0                         @ rt-thread/src/idle.c:132:0
	.fnstart
	.cfi_startproc
@ %bb.0:
	.pad	#4
	sub	sp, #4
	.cfi_def_cfa_offset 4
.Ltmp45:
	.loc	2 139 31 prologue_end           @ rt-thread/src/idle.c:139:31
	movw	r0, :lower16:rt_thread_defunct
	movt	r0, :upper16:rt_thread_defunct
	str	r0, [sp]
	.loc	2 141 12                        @ rt-thread/src/idle.c:141:12
	ldr	r0, [sp]
	.loc	2 141 15 is_stmt 0              @ rt-thread/src/idle.c:141:15
	ldr	r0, [r0]
	.loc	2 141 23                        @ rt-thread/src/idle.c:141:23
	ldr	r1, [sp]
	.loc	2 141 20                        @ rt-thread/src/idle.c:141:20
	subs	r0, r0, r1
	it	ne
	movne	r0, #1
	.loc	2 141 5                         @ rt-thread/src/idle.c:141:5
	add	sp, #4
	bx	lr
.Ltmp46:
.Lfunc_end3:
	.size	_has_defunct_thread, .Lfunc_end3-_has_defunct_thread
	.cfi_endproc
	.cantunwind
	.fnend
                                        @ -- End function
	.section	.text.rt_list_remove,"ax",%progbits
	.p2align	3                               @ -- Begin function rt_list_remove
	.type	rt_list_remove,%function
	.code	16                              @ @rt_list_remove
	.thumb_func
rt_list_remove:
.Lfunc_begin4:
	.file	3 "E:\\Smart-access-control\\Hardware\\CODE" "rt-thread/include\\rtservice.h"
	.loc	3 87 0 is_stmt 1                @ rt-thread/include\rtservice.h:87:0
	.fnstart
	.cfi_startproc
@ %bb.0:
	.pad	#4
	sub	sp, #4
	.cfi_def_cfa_offset 4
	str	r0, [sp]
.Ltmp47:
	.loc	3 88 21 prologue_end            @ rt-thread/include\rtservice.h:88:21
	ldr	r0, [sp]
	.loc	3 88 8 is_stmt 0                @ rt-thread/include\rtservice.h:88:8
	ldr	r1, [r0]
	.loc	3 88 24                         @ rt-thread/include\rtservice.h:88:24
	ldr	r0, [r0, #4]
	.loc	3 88 19                         @ rt-thread/include\rtservice.h:88:19
	str	r0, [r1, #4]
	.loc	3 89 21 is_stmt 1               @ rt-thread/include\rtservice.h:89:21
	ldr	r1, [sp]
	.loc	3 89 24 is_stmt 0               @ rt-thread/include\rtservice.h:89:24
	ldr	r0, [r1]
	.loc	3 89 8                          @ rt-thread/include\rtservice.h:89:8
	ldr	r1, [r1, #4]
	.loc	3 89 19                         @ rt-thread/include\rtservice.h:89:19
	str	r0, [r1]
	.loc	3 91 25 is_stmt 1               @ rt-thread/include\rtservice.h:91:25
	ldr	r0, [sp]
	.loc	3 91 23 is_stmt 0               @ rt-thread/include\rtservice.h:91:23
	str	r0, [r0, #4]
	.loc	3 91 5                          @ rt-thread/include\rtservice.h:91:5
	ldr	r1, [sp]
	.loc	3 91 13                         @ rt-thread/include\rtservice.h:91:13
	str	r0, [r1]
	.loc	3 92 1 is_stmt 1                @ rt-thread/include\rtservice.h:92:1
	add	sp, #4
	bx	lr
.Ltmp48:
.Lfunc_end4:
	.size	rt_list_remove, .Lfunc_end4-rt_list_remove
	.cfi_endproc
	.cantunwind
	.fnend
                                        @ -- End function
	.section	.text.rt_thread_idle_init,"ax",%progbits
	.hidden	rt_thread_idle_init             @ -- Begin function rt_thread_idle_init
	.globl	rt_thread_idle_init
	.p2align	3
	.type	rt_thread_idle_init,%function
	.code	16                              @ @rt_thread_idle_init
	.thumb_func
rt_thread_idle_init:
.Lfunc_begin5:
	.loc	2 273 0                         @ rt-thread/src/idle.c:273:0
	.fnstart
	.cfi_startproc
@ %bb.0:
	.save	{r7, lr}
	push	{r7, lr}
	.cfi_def_cfa_offset 8
	.cfi_offset lr, -4
	.cfi_offset r7, -8
	.pad	#40
	sub	sp, #40
	.cfi_def_cfa_offset 48
	movs	r0, #0
.Ltmp49:
	.loc	2 277 12 prologue_end           @ rt-thread/src/idle.c:277:12
	str	r0, [sp, #36]
	.loc	2 277 10 is_stmt 0              @ rt-thread/src/idle.c:277:10
	b	.LBB5_1
.LBB5_1:                                @ =>This Inner Loop Header: Depth=1
.Ltmp50:
	.loc	2 277 17                        @ rt-thread/src/idle.c:277:17
	ldr	r0, [sp, #36]
.Ltmp51:
	.loc	2 277 5                         @ rt-thread/src/idle.c:277:5
	cbnz	r0, .LBB5_4
	b	.LBB5_2
.LBB5_2:                                @   in Loop: Header=BB5_1 Depth=1
.Ltmp52:
	.loc	2 279 43 is_stmt 1              @ rt-thread/src/idle.c:279:43
	ldr	r2, [sp, #36]
	.loc	2 279 9 is_stmt 0               @ rt-thread/src/idle.c:279:9
	movw	r1, :lower16:.L.str.1
	movt	r1, :upper16:.L.str.1
	add	r0, sp, #28
	str	r0, [sp, #20]                   @ 4-byte Spill
	bl	rt_sprintf
	ldr	r1, [sp, #20]                   @ 4-byte Reload
	.loc	2 280 30 is_stmt 1              @ rt-thread/src/idle.c:280:30
	ldr	r3, [sp, #36]
	.loc	2 280 25 is_stmt 0              @ rt-thread/src/idle.c:280:25
	movw	r0, :lower16:idle
	movt	r0, :upper16:idle
	str	r0, [sp, #24]                   @ 4-byte Spill
	add.w	r0, r0, r3, lsl #7
	.loc	2 284 18 is_stmt 1              @ rt-thread/src/idle.c:284:18
	movw	r2, :lower16:rt_thread_stack
	movt	r2, :upper16:rt_thread_stack
	add.w	r2, r2, r3, lsl #9
	.loc	2 280 9                         @ rt-thread/src/idle.c:280:9
	mov	r3, sp
	mov.w	r12, #32
	str.w	r12, [r3, #12]
	mov.w	r12, #31
	str.w	r12, [r3, #8]
	mov.w	r12, #512
	str.w	r12, [r3, #4]
	str	r2, [r3]
	movw	r2, :lower16:rt_thread_idle_entry
	movt	r2, :upper16:rt_thread_idle_entry
	movs	r3, #0
	bl	rt_thread_init
                                        @ kill: def $r1 killed $r0
	.loc	2 292 33                        @ rt-thread/src/idle.c:292:33
	ldr	r0, [sp, #24]                   @ 4-byte Reload
	ldr	r1, [sp, #36]
	.loc	2 292 28 is_stmt 0              @ rt-thread/src/idle.c:292:28
	add.w	r0, r0, r1, lsl #7
	.loc	2 292 9                         @ rt-thread/src/idle.c:292:9
	bl	rt_thread_startup
	.loc	2 293 5 is_stmt 1               @ rt-thread/src/idle.c:293:5
	b	.LBB5_3
.Ltmp53:
.LBB5_3:                                @   in Loop: Header=BB5_1 Depth=1
	.loc	2 277 32                        @ rt-thread/src/idle.c:277:32
	ldr	r0, [sp, #36]
	adds	r0, #1
	str	r0, [sp, #36]
	.loc	2 277 5 is_stmt 0               @ rt-thread/src/idle.c:277:5
	b	.LBB5_1
.Ltmp54:
.LBB5_4:
	.loc	2 294 1 is_stmt 1               @ rt-thread/src/idle.c:294:1
	add	sp, #40
	pop	{r7, pc}
.Ltmp55:
.Lfunc_end5:
	.size	rt_thread_idle_init, .Lfunc_end5-rt_thread_idle_init
	.cfi_endproc
	.cantunwind
	.fnend
                                        @ -- End function
	.section	.text.rt_thread_idle_entry,"ax",%progbits
	.p2align	3                               @ -- Begin function rt_thread_idle_entry
	.type	rt_thread_idle_entry,%function
	.code	16                              @ @rt_thread_idle_entry
	.thumb_func
rt_thread_idle_entry:
.Lfunc_begin6:
	.loc	2 233 0                         @ rt-thread/src/idle.c:233:0
	.fnstart
	.cfi_startproc
@ %bb.0:
	.save	{r7, lr}
	push	{r7, lr}
	.cfi_def_cfa_offset 8
	.cfi_offset lr, -4
	.cfi_offset r7, -8
	.pad	#8
	sub	sp, #8
	.cfi_def_cfa_offset 16
	str	r0, [sp, #4]
.Ltmp56:
	.loc	2 244 5 prologue_end            @ rt-thread/src/idle.c:244:5
	b	.LBB6_1
.LBB6_1:                                @ =>This Loop Header: Depth=1
                                        @     Child Loop BB6_2 Depth 2
	.loc	2 0 5 is_stmt 0                 @ rt-thread/src/idle.c:0:5
	movs	r0, #0
.Ltmp57:
	.loc	2 249 16 is_stmt 1              @ rt-thread/src/idle.c:249:16
	str	r0, [sp]
	.loc	2 249 14 is_stmt 0              @ rt-thread/src/idle.c:249:14
	b	.LBB6_2
.LBB6_2:                                @   Parent Loop BB6_1 Depth=1
                                        @ =>  This Inner Loop Header: Depth=2
.Ltmp58:
	.loc	2 249 21                        @ rt-thread/src/idle.c:249:21
	ldr	r0, [sp]
.Ltmp59:
	.loc	2 249 9                         @ rt-thread/src/idle.c:249:9
	cmp	r0, #3
	bhi	.LBB6_7
	b	.LBB6_3
.LBB6_3:                                @   in Loop: Header=BB6_2 Depth=2
.Ltmp60:
	.loc	2 251 32 is_stmt 1              @ rt-thread/src/idle.c:251:32
	ldr	r1, [sp]
	.loc	2 251 17 is_stmt 0              @ rt-thread/src/idle.c:251:17
	movw	r0, :lower16:idle_hook_list
	movt	r0, :upper16:idle_hook_list
	ldr.w	r0, [r0, r1, lsl #2]
.Ltmp61:
	.loc	2 251 17                        @ rt-thread/src/idle.c:251:17
	cbz	r0, .LBB6_5
	b	.LBB6_4
.LBB6_4:                                @   in Loop: Header=BB6_2 Depth=2
.Ltmp62:
	.loc	2 253 32 is_stmt 1              @ rt-thread/src/idle.c:253:32
	ldr	r1, [sp]
	.loc	2 253 17 is_stmt 0              @ rt-thread/src/idle.c:253:17
	movw	r0, :lower16:idle_hook_list
	movt	r0, :upper16:idle_hook_list
	ldr.w	r0, [r0, r1, lsl #2]
	blx	r0
	.loc	2 254 13 is_stmt 1              @ rt-thread/src/idle.c:254:13
	b	.LBB6_5
.Ltmp63:
.LBB6_5:                                @   in Loop: Header=BB6_2 Depth=2
	.loc	2 255 9                         @ rt-thread/src/idle.c:255:9
	b	.LBB6_6
.Ltmp64:
.LBB6_6:                                @   in Loop: Header=BB6_2 Depth=2
	.loc	2 249 50                        @ rt-thread/src/idle.c:249:50
	ldr	r0, [sp]
	adds	r0, #1
	str	r0, [sp]
	.loc	2 249 9 is_stmt 0               @ rt-thread/src/idle.c:249:9
	b	.LBB6_2
.Ltmp65:
.LBB6_7:                                @   in Loop: Header=BB6_1 Depth=1
	.loc	2 258 9 is_stmt 1               @ rt-thread/src/idle.c:258:9
	bl	rt_thread_idle_excute
.Ltmp66:
	.loc	2 244 5                         @ rt-thread/src/idle.c:244:5
	b	.LBB6_1
.Ltmp67:
.Lfunc_end6:
	.size	rt_thread_idle_entry, .Lfunc_end6-rt_thread_idle_entry
	.cfi_endproc
	.cantunwind
	.fnend
                                        @ -- End function
	.section	.text.rt_thread_idle_gethandler,"ax",%progbits
	.hidden	rt_thread_idle_gethandler       @ -- Begin function rt_thread_idle_gethandler
	.globl	rt_thread_idle_gethandler
	.p2align	3
	.type	rt_thread_idle_gethandler,%function
	.code	16                              @ @rt_thread_idle_gethandler
	.thumb_func
rt_thread_idle_gethandler:
.Lfunc_begin7:
	.loc	2 303 0                         @ rt-thread/src/idle.c:303:0
	.fnstart
	.cfi_startproc
@ %bb.0:
	.pad	#4
	sub	sp, #4
	.cfi_def_cfa_offset 4
	movs	r0, #0
.Ltmp68:
	.loc	2 307 18 prologue_end           @ rt-thread/src/idle.c:307:18
	str	r0, [sp]
	.loc	2 310 32                        @ rt-thread/src/idle.c:310:32
	ldr	r1, [sp]
	.loc	2 310 27 is_stmt 0              @ rt-thread/src/idle.c:310:27
	movw	r0, :lower16:idle
	movt	r0, :upper16:idle
	add.w	r0, r0, r1, lsl #7
	.loc	2 310 5                         @ rt-thread/src/idle.c:310:5
	add	sp, #4
	bx	lr
.Ltmp69:
.Lfunc_end7:
	.size	rt_thread_idle_gethandler, .Lfunc_end7-rt_thread_idle_gethandler
	.cfi_endproc
	.cantunwind
	.fnend
                                        @ -- End function
	.type	idle_hook_list,%object          @ @idle_hook_list
	.section	.bss.idle_hook_list,"aw",%nobits
	.p2align	2
idle_hook_list:
	.zero	16
	.size	idle_hook_list, 16

	.type	.L.str,%object                  @ @.str
	.section	.rodata.str1.1,"aMS",%progbits,1
.L.str:
	.asciz	"0"
	.size	.L.str, 2

	.type	.L__FUNCTION__.rt_thread_idle_excute,%object @ @__FUNCTION__.rt_thread_idle_excute
.L__FUNCTION__.rt_thread_idle_excute:
	.asciz	"rt_thread_idle_excute"
	.size	.L__FUNCTION__.rt_thread_idle_excute, 22

	.type	.L.str.1,%object                @ @.str.1
.L.str.1:
	.asciz	"tidle%d"
	.size	.L.str.1, 8

	.type	idle,%object                    @ @idle
	.section	.bss.idle,"aw",%nobits
	.p2align	2
idle:
	.zero	128
	.size	idle, 128

	.type	rt_thread_stack,%object         @ @rt_thread_stack
	.section	.bss.rt_thread_stack,"aw",%nobits
	.p2align	2
rt_thread_stack:
	.zero	512
	.size	rt_thread_stack, 512

	.section	".note.GNU-stack","",%progbits
	.eabi_attribute	30, 6	@ Tag_ABI_optimization_goals
	.ARM_attribute	16, 1	@ Tag_AV_eba