	.text
	.syntax unified
	.eabi_attribute	67, "2.09"	@ Tag_conformance
	.cpu	cortex-m7
	.eabi_attribute	6, 13	@ Tag_CPU_arch
	.eabi_attribute	7, 77	@ Tag_CPU_arch_profile
	.eabi_attribute	8, 0	@ Tag_ARM_ISA_use
	.eabi_attribute	9, 2	@ Tag_THUMB_ISA_use
	.fpu	fpv5-d16
	.eabi_attribute	36, 1	@ Tag_FP_HP_extension
	.eabi_attribute	34, 1	@ Tag_CPU_unaligned_access
	.eabi_attribute	17, 1	@ Tag_ABI_PCS_GOT_use
	.eabi_attribute	20, 2	@ Tag_ABI_FP_denormal
	.eabi_attribute	21, 0	@ Tag_ABI_FP_exceptions
	.eabi_attribute	23, 1	@ Tag_ABI_FP_number_model
	.eabi_attribute	24, 1	@ Tag_ABI_align_needed
	.eabi_attribute	25, 1	@ Tag_ABI_align_preserved
	.eabi_attribute	28, 1	@ Tag_ABI_VFP_args
	.eabi_attribute	38, 1	@ Tag_ABI_FP_16bit_format
	.eabi_attribute	18, 2	@ Tag_ABI_PCS_wchar_t
	.eabi_attribute	26, 1	@ Tag_ABI_enum_size
	.eabi_attribute	14, 0	@ Tag_ABI_PCS_R9_use
	.file	"igmp.c"
	.file	1 "D:\\Keil_v5\\ARM\\ARMCLANG\\Bin\\..\\include" "stdint.h"
	.file	2 "E:\\Smart-access-control\\Hardware\\CODE" "./rt-thread/components/net/lwip-2.0.2/src/include\\lwip/arch.h"
	.file	3 "E:\\Smart-access-control\\Hardware\\CODE" "./rt-thread/components/net/lwip-2.0.2/src/include\\lwip/ip4_addr.h"
	.file	4 "E:\\Smart-access-control\\Hardware\\CODE" "rt-thread/components/net/lwip-2.0.2/src/core/ipv4/igmp.c"
	.file	5 "E:\\Smart-access-control\\Hardware\\CODE" "./rt-thread/components/net/lwip-2.0.2/src/include\\lwip/netif.h"
	.file	6 "E:\\Smart-access-control\\Hardware\\CODE" "./rt-thread/components/net/lwip-2.0.2/src/include\\lwip/err.h"
	.file	7 "E:\\Smart-access-control\\Hardware\\CODE" "./rt-thread/components/net/lwip-2.0.2/src/include\\lwip/memp.h"
	.file	8 "E:\\Smart-access-control\\Hardware\\CODE" "./rt-thread/components/net/lwip-2.0.2/src/include\\lwip/pbuf.h"
	.file	9 "E:\\Smart-access-control\\Hardware\\CODE" "./rt-thread/components/net/lwip-2.0.2/src/include\\lwip/igmp.h"
	.file	10 "E:\\Smart-access-control\\Hardware\\CODE" "./rt-thread/components/net/lwip-2.0.2/src/include\\lwip/prot/igmp.h"
	.file	11 "E:\\Smart-access-control\\Hardware\\CODE" "./rt-thread/components/net/lwip-2.0.2/src/include\\lwip/prot/ip4.h"
	.section	.text.igmp_init,"ax",%progbits
	.hidden	igmp_init                       @ -- Begin function igmp_init
	.globl	igmp_init
	.p2align	3
	.type	igmp_init,%function
	.code	16                              @ @igmp_init
	.thumb_func
igmp_init:
.Lfunc_begin0:
	.loc	4 115 0                         @ rt-thread/components/net/lwip-2.0.2/src/core/ipv4/igmp.c:115:0
	.fnstart
	.cfi_sections .debug_frame
	.cfi_startproc
@ %bb.0:
	.loc	4 118 3 prologue_end            @ rt-thread/components/net/lwip-2.0.2/src/core/ipv4/igmp.c:118:3
	movw	r1, :lower16:allsystems
	movt	r1, :upper16:allsystems
	movs	r0, #224
	movt	r0, #256
	str	r0, [r1]
	.loc	4 119 3                         @ rt-thread/components/net/lwip-2.0.2/src/core/ipv4/igmp.c:119:3
	movw	r1, :lower16:allrouters
	movt	r1, :upper16:allrouters
	movs	r0, #224
	movt	r0, #512
	str	r0, [r1]
	.loc	4 120 1                         @ rt-thread/components/net/lwip-2.0.2/src/core/ipv4/igmp.c:120:1
	bx	lr
.Ltmp0:
.Lfunc_end0:
	.size	igmp_init, .Lfunc_end0-igmp_init
	.cfi_endproc
	.cantunwind
	.fnend
                                        @ -- End function
	.section	.text.igmp_start,"ax",%progbits
	.hidden	igmp_start                      @ -- Begin function igmp_start
	.globl	igmp_start
	.p2align	3
	.type	igmp_start,%function
	.code	16                              @ @igmp_start
	.thumb_func
igmp_start:
.Lfunc_begin1:
	.loc	4 129 0                         @ rt-thread/components/net/lwip-2.0.2/src/core/ipv4/igmp.c:129:0
	.fnstart
	.cfi_startproc
@ %bb.0:
	.save	{r7, lr}
	push	{r7, lr}
	.cfi_def_cfa_offset 8
	.cfi_offset lr, -4
	.cfi_offset r7, -8
	.pad	#16
	sub	sp, #16
	.cfi_def_cfa_offset 24
	str	r0, [sp, #8]
.Ltmp1:
	.loc	4 134 29 prologue_end           @ rt-thread/components/net/lwip-2.0.2/src/core/ipv4/igmp.c:134:29
	ldr	r0, [sp, #8]
	.loc	4 134 11 is_stmt 0              @ rt-thread/components/net/lwip-2.0.2/src/core/ipv4/igmp.c:134:11
	movw	r1, :lower16:allsystems
	movt	r1, :upper16:allsystems
	bl	igmp_lookup_group
	.loc	4 134 9                         @ rt-thread/components/net/lwip-2.0.2/src/core/ipv4/igmp.c:134:9
	str	r0, [sp, #4]
.Ltmp2:
	.loc	4 136 7 is_stmt 1               @ rt-thread/components/net/lwip-2.0.2/src/core/ipv4/igmp.c:136:7
	ldr	r0, [sp, #4]
.Ltmp3:
	.loc	4 136 7 is_stmt 0               @ rt-thread/components/net/lwip-2.0.2/src/core/ipv4/igmp.c:136:7
	cbz	r0, .LBB1_4
	b	.LBB1_1
.LBB1_1:
.Ltmp4:
	.loc	4 137 5 is_stmt 1               @ rt-thread/components/net/lwip-2.0.2/src/core/ipv4/igmp.c:137:5
	ldr	r1, [sp, #4]
	movs	r0, #2
	.loc	4 137 24 is_stmt 0              @ rt-thread/components/net/lwip-2.0.2/src/core/ipv4/igmp.c:137:24
	strb	r0, [r1, #9]
	.loc	4 138 5 is_stmt 1               @ rt-thread/components/net/lwip-2.0.2/src/core/ipv4/igmp.c:138:5
	ldr	r1, [sp, #4]
	.loc	4 138 15 is_stmt 0              @ rt-thread/components/net/lwip-2.0.2/src/core/ipv4/igmp.c:138:15
	ldrb	r0, [r1, #12]
	adds	r0, #1
	strb	r0, [r1, #12]
.Ltmp5:
	.loc	4 141 9 is_stmt 1               @ rt-thread/components/net/lwip-2.0.2/src/core/ipv4/igmp.c:141:9
	ldr	r0, [sp, #8]
	.loc	4 141 16 is_stmt 0              @ rt-thread/components/net/lwip-2.0.2/src/core/ipv4/igmp.c:141:16
	ldr	r0, [r0, #72]
.Ltmp6:
	.loc	4 141 9                         @ rt-thread/components/net/lwip-2.0.2/src/core/ipv4/igmp.c:141:9
	cbz	r0, .LBB1_3
	b	.LBB1_2
.LBB1_2:
.Ltmp7:
	.loc	4 145 7 is_stmt 1               @ rt-thread/components/net/lwip-2.0.2/src/core/ipv4/igmp.c:145:7
	ldr	r0, [sp, #8]
	.loc	4 145 14 is_stmt 0              @ rt-thread/components/net/lwip-2.0.2/src/core/ipv4/igmp.c:145:14
	ldr	r3, [r0, #72]
	.loc	4 145 7                         @ rt-thread/components/net/lwip-2.0.2/src/core/ipv4/igmp.c:145:7
	movw	r1, :lower16:allsystems
	movt	r1, :upper16:allsystems
	movs	r2, #1
	blx	r3
	.loc	4 146 5 is_stmt 1               @ rt-thread/components/net/lwip-2.0.2/src/core/ipv4/igmp.c:146:5
	b	.LBB1_3
.Ltmp8:
.LBB1_3:
	.loc	4 0 5 is_stmt 0                 @ rt-thread/components/net/lwip-2.0.2/src/core/ipv4/igmp.c:0:5
	movs	r0, #0
	.loc	4 148 5 is_stmt 1               @ rt-thread/components/net/lwip-2.0.2/src/core/ipv4/igmp.c:148:5
	strb.w	r0, [sp, #15]
	b	.LBB1_5
.Ltmp9:
.LBB1_4:
	.loc	4 0 5 is_stmt 0                 @ rt-thread/components/net/lwip-2.0.2/src/core/ipv4/igmp.c:0:5
	movs	r0, #255
	.loc	4 151 3 is_stmt 1               @ rt-thread/components/net/lwip-2.0.2/src/core/ipv4/igmp.c:151:3
	strb.w	r0, [sp, #15]
	b	.LBB1_5
.LBB1_5:
	.loc	4 152 1                         @ rt-thread/components/net/lwip-2.0.2/src/core/ipv4/igmp.c:152:1
	ldrsb.w	r0, [sp, #15]
	add	sp, #16
	pop	{r7, pc}
.Ltmp10:
.Lfunc_end1:
	.size	igmp_start, .Lfunc_end1-igmp_start
	.cfi_endproc
	.cantunwind
	.fnend
                                        @ -- End function
	.section	.text.igmp_lookup_group,"ax",%progbits
	.p2align	3                               @ -- Begin function igmp_lookup_group
	.type	igmp_lookup_group,%function
	.code	16                              @ @igmp_lookup_group
	.thumb_func
igmp_lookup_group:
.Lfunc_begin2:
	.loc	4 245 0                         @ rt-thread/components/net/lwip-2.0.2/src/core/ipv4/igmp.c:245:0
	.fnstart
	.cfi_startproc
@ %bb.0:
	.save	{r7, lr}
	push	{r7, lr}
	.cfi_def_cfa_offset 8
	.cfi_offset lr, -4
	.cfi_offset r7, -8
	.pad	#24
	sub	sp, #24
	.cfi_def_cfa_offset 32
	str	r0, [sp, #16]
	str	r1, [sp, #12]
.Ltmp11:
	.loc	4 247 34 prologue_end           @ rt-thread/components/net/lwip-2.0.2/src/core/ipv4/igmp.c:247:34
	ldr	r0, [sp, #16]
	ldr	r0, [r0, #44]
	.loc	4 247 22 is_stmt 0              @ rt-thread/components/net/lwip-2.0.2/src/core/ipv4/igmp.c:247:22
	str	r0, [sp, #4]
	.loc	4 250 30 is_stmt 1              @ rt-thread/components/net/lwip-2.0.2/src/core/ipv4/igmp.c:250:30
	ldr	r0, [sp, #16]
	.loc	4 250 35 is_stmt 0              @ rt-thread/components/net/lwip-2.0.2/src/core/ipv4/igmp.c:250:35
	ldr	r1, [sp, #12]
	.loc	4 250 11                        @ rt-thread/components/net/lwip-2.0.2/src/core/ipv4/igmp.c:250:11
	bl	igmp_lookfor_group
	.loc	4 250 9                         @ rt-thread/components/net/lwip-2.0.2/src/core/ipv4/igmp.c:250:9
	str	r0, [sp, #8]
.Ltmp12:
	.loc	4 251 7 is_stmt 1               @ rt-thread/components/net/lwip-2.0.2/src/core/ipv4/igmp.c:251:7
	ldr	r0, [sp, #8]
.Ltmp13:
	.loc	4 251 7 is_stmt 0               @ rt-thread/components/net/lwip-2.0.2/src/core/ipv4/igmp.c:251:7
	cbz	r0, .LBB2_2
	b	.LBB2_1
.LBB2_1:
.Ltmp14:
	.loc	4 253 12 is_stmt 1              @ rt-thread/components/net/lwip-2.0.2/src/core/ipv4/igmp.c:253:12
	ldr	r0, [sp, #8]
	.loc	4 253 5 is_stmt 0               @ rt-thread/components/net/lwip-2.0.2/src/core/ipv4/igmp.c:253:5
	str	r0, [sp, #20]
	b	.LBB2_23
.Ltmp15:
.LBB2_2:
	.loc	4 257 32 is_stmt 1              @ rt-thread/components/net/lwip-2.0.2/src/core/ipv4/igmp.c:257:32
	movw	r1, :lower16:.L.str.1
	movt	r1, :upper16:.L.str.1
	movs	r0, #10
	movw	r2, #257
	bl	memp_malloc_fn
	.loc	4 257 9 is_stmt 0               @ rt-thread/components/net/lwip-2.0.2/src/core/ipv4/igmp.c:257:9
	str	r0, [sp, #8]
.Ltmp16:
	.loc	4 258 7 is_stmt 1               @ rt-thread/components/net/lwip-2.0.2/src/core/ipv4/igmp.c:258:7
	ldr	r0, [sp, #8]
.Ltmp17:
	.loc	4 258 7 is_stmt 0               @ rt-thread/components/net/lwip-2.0.2/src/core/ipv4/igmp.c:258:7
	cmp	r0, #0
	beq	.LBB2_22
	b	.LBB2_3
.LBB2_3:
.Ltmp18:
	.loc	4 259 5 is_stmt 1               @ rt-thread/components/net/lwip-2.0.2/src/core/ipv4/igmp.c:259:5
	ldr	r0, [sp, #12]
	cbnz	r0, .LBB2_5
	b	.LBB2_4
.LBB2_4:
	.loc	4 0 5 is_stmt 0                 @ rt-thread/components/net/lwip-2.0.2/src/core/ipv4/igmp.c:0:5
	movs	r0, #0
	.loc	4 259 5                         @ rt-thread/components/net/lwip-2.0.2/src/core/ipv4/igmp.c:259:5
	str	r0, [sp]                        @ 4-byte Spill
	b	.LBB2_6
.LBB2_5:
	ldr	r0, [sp, #12]
	ldr	r0, [r0]
	str	r0, [sp]                        @ 4-byte Spill
	b	.LBB2_6
.LBB2_6:
	ldr	r0, [sp]                        @ 4-byte Reload
	ldr	r1, [sp, #8]
	str	r0, [r1, #4]
	.loc	4 260 5 is_stmt 1               @ rt-thread/components/net/lwip-2.0.2/src/core/ipv4/igmp.c:260:5
	ldr	r1, [sp, #8]
	movs	r0, #0
	.loc	4 260 31 is_stmt 0              @ rt-thread/components/net/lwip-2.0.2/src/core/ipv4/igmp.c:260:31
	strh	r0, [r1, #10]
	.loc	4 261 5 is_stmt 1               @ rt-thread/components/net/lwip-2.0.2/src/core/ipv4/igmp.c:261:5
	ldr	r1, [sp, #8]
	.loc	4 261 31 is_stmt 0              @ rt-thread/components/net/lwip-2.0.2/src/core/ipv4/igmp.c:261:31
	strb	r0, [r1, #9]
	.loc	4 262 5 is_stmt 1               @ rt-thread/components/net/lwip-2.0.2/src/core/ipv4/igmp.c:262:5
	ldr	r1, [sp, #8]
	.loc	4 262 31 is_stmt 0              @ rt-thread/components/net/lwip-2.0.2/src/core/ipv4/igmp.c:262:31
	strb	r0, [r1, #8]
	.loc	4 263 5 is_stmt 1               @ rt-thread/components/net/lwip-2.0.2/src/core/ipv4/igmp.c:263:5
	ldr	r1, [sp, #8]
	.loc	4 263 31 is_stmt 0              @ rt-thread/components/net/lwip-2.0.2/src/core/ipv4/igmp.c:263:31
	strb	r0, [r1, #12]
.Ltmp19:
	.loc	4 266 9 is_stmt 1               @ rt-thread/components/net/lwip-2.0.2/src/core/ipv4/igmp.c:266:9
	ldr	r0, [sp, #4]
.Ltmp20:
	.loc	4 266 9 is_stmt 0               @ rt-thread/components/net/lwip-2.0.2/src/core/ipv4/igmp.c:266:9
	cbnz	r0, .LBB2_14
	b	.LBB2_7
.LBB2_7:
.Ltmp21:
	.loc	4 268 7 is_stmt 1               @ rt-thread/components/net/lwip-2.0.2/src/core/ipv4/igmp.c:268:7
	b	.LBB2_8
.LBB2_8:
.Ltmp22:
	.loc	4 268 7 is_stmt 0               @ rt-thread/components/net/lwip-2.0.2/src/core/ipv4/igmp.c:268:7
	ldr	r0, [sp, #12]
	ldr	r0, [r0]
	movw	r1, :lower16:allsystems
	movt	r1, :upper16:allsystems
	ldr	r1, [r1]
.Ltmp23:
	.loc	4 268 7                         @ rt-thread/components/net/lwip-2.0.2/src/core/ipv4/igmp.c:268:7
	cmp	r0, r1
	beq	.LBB2_12
	b	.LBB2_9
.LBB2_9:
.Ltmp24:
	.loc	4 268 7                         @ rt-thread/components/net/lwip-2.0.2/src/core/ipv4/igmp.c:268:7
	b	.LBB2_10
.LBB2_10:
.Ltmp25:
	.loc	4 268 7                         @ rt-thread/components/net/lwip-2.0.2/src/core/ipv4/igmp.c:268:7
	movw	r0, :lower16:.L.str.11
	movt	r0, :upper16:.L.str.11
	bl	rt_kprintf
	movw	r0, :lower16:.L.str.1
	movt	r0, :upper16:.L.str.1
	movw	r1, #269
	bl	sys_arch_assert
	b	.LBB2_11
.Ltmp26:
.LBB2_11:
	.loc	4 268 7                         @ rt-thread/components/net/lwip-2.0.2/src/core/ipv4/igmp.c:268:7
	b	.LBB2_12
.Ltmp27:
.LBB2_12:
	.loc	4 268 7                         @ rt-thread/components/net/lwip-2.0.2/src/core/ipv4/igmp.c:268:7
	b	.LBB2_13
.Ltmp28:
.LBB2_13:
	.loc	4 270 7 is_stmt 1               @ rt-thread/components/net/lwip-2.0.2/src/core/ipv4/igmp.c:270:7
	ldr	r1, [sp, #8]
	movs	r0, #0
	.loc	4 270 19 is_stmt 0              @ rt-thread/components/net/lwip-2.0.2/src/core/ipv4/igmp.c:270:19
	str	r0, [r1]
	.loc	4 271 7 is_stmt 1               @ rt-thread/components/net/lwip-2.0.2/src/core/ipv4/igmp.c:271:7
	ldr	r0, [sp, #8]
	ldr	r1, [sp, #16]
	str	r0, [r1, #44]
	.loc	4 272 5                         @ rt-thread/components/net/lwip-2.0.2/src/core/ipv4/igmp.c:272:5
	b	.LBB2_21
.Ltmp29:
.LBB2_14:
	.loc	4 274 7                         @ rt-thread/components/net/lwip-2.0.2/src/core/ipv4/igmp.c:274:7
	b	.LBB2_15
.LBB2_15:
.Ltmp30:
	.loc	4 274 7 is_stmt 0               @ rt-thread/components/net/lwip-2.0.2/src/core/ipv4/igmp.c:274:7
	ldr	r0, [sp, #12]
	ldr	r0, [r0]
	movw	r1, :lower16:allsystems
	movt	r1, :upper16:allsystems
	ldr	r1, [r1]
.Ltmp31:
	.loc	4 274 7                         @ rt-thread/components/net/lwip-2.0.2/src/core/ipv4/igmp.c:274:7
	cmp	r0, r1
	bne	.LBB2_19
	b	.LBB2_16
.LBB2_16:
.Ltmp32:
	.loc	4 274 7                         @ rt-thread/components/net/lwip-2.0.2/src/core/ipv4/igmp.c:274:7
	b	.LBB2_17
.LBB2_17:
.Ltmp33:
	.loc	4 274 7                         @ rt-thread/components/net/lwip-2.0.2/src/core/ipv4/igmp.c:274:7
	movw	r0, :lower16:.L.str.12
	movt	r0, :upper16:.L.str.12
	bl	rt_kprintf
	movw	r0, :lower16:.L.str.1
	movt	r0, :upper16:.L.str.1
	movw	r1, #275
	bl	sys_arch_assert
	b	.LBB2_18
.Ltmp34:
.LBB2_18:
	.loc	4 274 7                         @ rt-thread/components/net/lwip-2.0.2/src/core/ipv4/igmp.c:274:7
	b	.LBB2_19
.Ltmp35:
.LBB2_19:
	.loc	4 274 7                         @ rt-thread/components/net/lwip-2.0.2/src/core/ipv4/igmp.c:274:7
	b	.LBB2_20
.Ltmp36:
.LBB2_20:
	.loc	4 276 21 is_stmt 1              @ rt-thread/components/net/lwip-2.0.2/src/core/ipv4/igmp.c:276:21
	ldr	r0, [sp, #4]
	.loc	4 276 32 is_stmt 0              @ rt-thread/components/net/lwip-2.0.2/src/core/ipv4/igmp.c:276:32
	ldr	r0, [r0]
	.loc	4 276 7                         @ rt-thread/components/net/lwip-2.0.2/src/core/ipv4/igmp.c:276:7
	ldr	r1, [sp, #8]
	.loc	4 276 19                        @ rt-thread/components/net/lwip-2.0.2/src/core/ipv4/igmp.c:276:19
	str	r0, [r1]
	.loc	4 277 25 is_stmt 1              @ rt-thread/components/net/lwip-2.0.2/src/core/ipv4/igmp.c:277:25
	ldr	r0, [sp, #8]
	.loc	4 277 7 is_stmt 0               @ rt-thread/components/net/lwip-2.0.2/src/core/ipv4/igmp.c:277:7
	ldr	r1, [sp, #4]
	.loc	4 277 23                        @ rt-thread/components/net/lwip-2.0.2/src/core/ipv4/igmp.c:277:23
	str	r0, [r1]
	b	.LBB2_21
.Ltmp37:
.LBB2_21:
	.loc	4 279 3 is_stmt 1               @ rt-thread/components/net/lwip-2.0.2/src/core/ipv4/igmp.c:279:3
	b	.LBB2_22
.Ltmp38:
.LBB2_22:
	.loc	4 285 10                        @ rt-thread/components/net/lwip-2.0.2/src/core/ipv4/igmp.c:285:10
	ldr	r0, [sp, #8]
	.loc	4 285 3 is_stmt 0               @ rt-thread/components/net/lwip-2.0.2/src/core/ipv4/igmp.c:285:3
	str	r0, [sp, #20]
	b	.LBB2_23
.LBB2_23:
	.loc	4 286 1 is_stmt 1               @ rt-thread/components/net/lwip-2.0.2/src/core/ipv4/igmp.c:286:1
	ldr	r0, [sp, #20]
	add	sp, #24
	pop	{r7, pc}
.Ltmp39:
.Lfunc_end2:
	.size	igmp_lookup_group, .Lfunc_end2-igmp_lookup_group
	.cfi_endproc
	.cantunwind
	.fnend
                                        @ -- End function
	.section	.text.igmp_stop,"ax",%progbits
	.hidden	igmp_stop                       @ -- Begin function igmp_stop
	.globl	igmp_stop
	.p2align	3
	.type	igmp_stop,%function
	.code	16                              @ @igmp_stop
	.thumb_func
igmp_stop:
.Lfunc_begin3:
	.loc	4 161 0                         @ rt-thread/components/net/lwip-2.0.2/src/core/ipv4/igmp.c:161:0
	.fnstart
	.cfi_startproc
@ %bb.0:
	.save	{r7, lr}
	push	{r7, lr}
	.cfi_def_cfa_offset 8
	.cfi_offset lr, -4
	.cfi_offset r7, -8
	.pad	#16
	sub	sp, #16
	.cfi_def_cfa_offset 24
	str	r0, [sp, #12]
.Ltmp40:
	.loc	4 162 30 prologue_end           @ rt-thread/components/net/lwip-2.0.2/src/core/ipv4/igmp.c:162:30
	ldr	r0, [sp, #12]
	ldr	r0, [r0, #44]
	.loc	4 162 22 is_stmt 0              @ rt-thread/components/net/lwip-2.0.2/src/core/ipv4/igmp.c:162:22
	str	r0, [sp, #8]
	.loc	4 164 3 is_stmt 1               @ rt-thread/components/net/lwip-2.0.2/src/core/ipv4/igmp.c:164:3
	ldr	r1, [sp, #12]
	movs	r0, #0
	str	r0, [r1, #44]
	.loc	4 166 3                         @ rt-thread/components/net/lwip-2.0.2/src/core/ipv4/igmp.c:166:3
	b	.LBB3_1
.LBB3_1:                                @ =>This Inner Loop Header: Depth=1
	.loc	4 166 10 is_stmt 0              @ rt-thread/components/net/lwip-2.0.2/src/core/ipv4/igmp.c:166:10
	ldr	r0, [sp, #8]
	.loc	4 166 3                         @ rt-thread/components/net/lwip-2.0.2/src/core/ipv4/igmp.c:166:3
	cbz	r0, .LBB3_5
	b	.LBB3_2
.LBB3_2:                                @   in Loop: Header=BB3_1 Depth=1
.Ltmp41:
	.loc	4 167 31 is_stmt 1              @ rt-thread/components/net/lwip-2.0.2/src/core/ipv4/igmp.c:167:31
	ldr	r0, [sp, #8]
	.loc	4 167 38 is_stmt 0              @ rt-thread/components/net/lwip-2.0.2/src/core/ipv4/igmp.c:167:38
	ldr	r0, [r0]
	.loc	4 167 24                        @ rt-thread/components/net/lwip-2.0.2/src/core/ipv4/igmp.c:167:24
	str	r0, [sp, #4]
.Ltmp42:
	.loc	4 170 9 is_stmt 1               @ rt-thread/components/net/lwip-2.0.2/src/core/ipv4/igmp.c:170:9
	ldr	r0, [sp, #12]
	.loc	4 170 16 is_stmt 0              @ rt-thread/components/net/lwip-2.0.2/src/core/ipv4/igmp.c:170:16
	ldr	r0, [r0, #72]
.Ltmp43:
	.loc	4 170 9                         @ rt-thread/components/net/lwip-2.0.2/src/core/ipv4/igmp.c:170:9
	cbz	r0, .LBB3_4
	b	.LBB3_3
.LBB3_3:                                @   in Loop: Header=BB3_1 Depth=1
.Ltmp44:
	.loc	4 174 7 is_stmt 1               @ rt-thread/components/net/lwip-2.0.2/src/core/ipv4/igmp.c:174:7
	ldr	r0, [sp, #12]
	.loc	4 174 14 is_stmt 0              @ rt-thread/components/net/lwip-2.0.2/src/core/ipv4/igmp.c:174:14
	ldr	r3, [r0, #72]
	.loc	4 174 39                        @ rt-thread/components/net/lwip-2.0.2/src/core/ipv4/igmp.c:174:39
	ldr	r1, [sp, #8]
	.loc	4 174 46                        @ rt-thread/components/net/lwip-2.0.2/src/core/ipv4/igmp.c:174:46
	adds	r1, #4
	movs	r2, #0
	.loc	4 174 7                         @ rt-thread/components/net/lwip-2.0.2/src/core/ipv4/igmp.c:174:7
	blx	r3
	.loc	4 175 5 is_stmt 1               @ rt-thread/components/net/lwip-2.0.2/src/core/ipv4/igmp.c:175:5
	b	.LBB3_4
.Ltmp45:
.LBB3_4:                                @   in Loop: Header=BB3_1 Depth=1
	.loc	4 178 32                        @ rt-thread/components/net/lwip-2.0.2/src/core/ipv4/igmp.c:178:32
	ldr	r1, [sp, #8]
	movs	r0, #10
	.loc	4 178 5 is_stmt 0               @ rt-thread/components/net/lwip-2.0.2/src/core/ipv4/igmp.c:178:5
	bl	memp_free
	.loc	4 181 13 is_stmt 1              @ rt-thread/components/net/lwip-2.0.2/src/core/ipv4/igmp.c:181:13
	ldr	r0, [sp, #4]
	.loc	4 181 11 is_stmt 0              @ rt-thread/components/net/lwip-2.0.2/src/core/ipv4/igmp.c:181:11
	str	r0, [sp, #8]
.Ltmp46:
	.loc	4 166 3 is_stmt 1               @ rt-thread/components/net/lwip-2.0.2/src/core/ipv4/igmp.c:166:3
	b	.LBB3_1
.LBB3_5:
	.loc	4 0 3 is_stmt 0                 @ rt-thread/components/net/lwip-2.0.2/src/core/ipv4/igmp.c:0:3
	movs	r0, #0
	.loc	4 183 3 is_stmt 1               @ rt-thread/components/net/lwip-2.0.2/src/core/ipv4/igmp.c:183:3
	add	sp, #16
	pop	{r7, pc}
.Ltmp47:
.Lfunc_end3:
	.size	igmp_stop, .Lfunc_end3-igmp_stop
	.cfi_endproc
	.cantunwind
	.fnend
                                        @ -- End function
	.section	.text.igmp_report_groups,"ax",%progbits
	.hidden	igmp_report_groups              @ -- Begin function igmp_report_groups
	.globl	igmp_report_groups
	.p2align	3
	.type	igmp_report_groups,%function
	.code	16                              @ @igmp_report_groups
	.thumb_func
igmp_report_groups:
.Lfunc_begin4:
	.loc	4 193 0                         @ rt-thread/components/net/lwip-2.0.2/src/core/ipv4/igmp.c:193:0
	.fnstart
	.cfi_startproc
@ %bb.0:
	.save	{r7, lr}
	push	{r7, lr}
	.cfi_def_cfa_offset 8
	.cfi_offset lr, -4
	.cfi_offset r7, -8
	.pad	#8
	sub	sp, #8
	.cfi_def_cfa_offset 16
	str	r0, [sp, #4]
.Ltmp48:
	.loc	4 194 30 prologue_end           @ rt-thread/components/net/lwip-2.0.2/src/core/ipv4/igmp.c:194:30
	ldr	r0, [sp, #4]
	ldr	r0, [r0, #44]
	.loc	4 194 22 is_stmt 0              @ rt-thread/components/net/lwip-2.0.2/src/core/ipv4/igmp.c:194:22
	str	r0, [sp]
.Ltmp49:
	.loc	4 199 6 is_stmt 1               @ rt-thread/components/net/lwip-2.0.2/src/core/ipv4/igmp.c:199:6
	ldr	r0, [sp]
.Ltmp50:
	.loc	4 199 6 is_stmt 0               @ rt-thread/components/net/lwip-2.0.2/src/core/ipv4/igmp.c:199:6
	cbz	r0, .LBB4_2
	b	.LBB4_1
.LBB4_1:
.Ltmp51:
	.loc	4 200 13 is_stmt 1              @ rt-thread/components/net/lwip-2.0.2/src/core/ipv4/igmp.c:200:13
	ldr	r0, [sp]
	.loc	4 200 20 is_stmt 0              @ rt-thread/components/net/lwip-2.0.2/src/core/ipv4/igmp.c:200:20
	ldr	r0, [r0]
	.loc	4 200 11                        @ rt-thread/components/net/lwip-2.0.2/src/core/ipv4/igmp.c:200:11
	str	r0, [sp]
	.loc	4 201 3 is_stmt 1               @ rt-thread/components/net/lwip-2.0.2/src/core/ipv4/igmp.c:201:3
	b	.LBB4_2
.Ltmp52:
.LBB4_2:
	.loc	4 203 3                         @ rt-thread/components/net/lwip-2.0.2/src/core/ipv4/igmp.c:203:3
	b	.LBB4_3
.LBB4_3:                                @ =>This Inner Loop Header: Depth=1
	.loc	4 203 10 is_stmt 0              @ rt-thread/components/net/lwip-2.0.2/src/core/ipv4/igmp.c:203:10
	ldr	r0, [sp]
	.loc	4 203 3                         @ rt-thread/components/net/lwip-2.0.2/src/core/ipv4/igmp.c:203:3
	cbz	r0, .LBB4_5
	b	.LBB4_4
.LBB4_4:                                @   in Loop: Header=BB4_3 Depth=1
.Ltmp53:
	.loc	4 204 26 is_stmt 1              @ rt-thread/components/net/lwip-2.0.2/src/core/ipv4/igmp.c:204:26
	ldr	r0, [sp]
	movs	r1, #5
	.loc	4 204 5 is_stmt 0               @ rt-thread/components/net/lwip-2.0.2/src/core/ipv4/igmp.c:204:5
	bl	igmp_delaying_member
	.loc	4 205 13 is_stmt 1              @ rt-thread/components/net/lwip-2.0.2/src/core/ipv4/igmp.c:205:13
	ldr	r0, [sp]
	.loc	4 205 20 is_stmt 0              @ rt-thread/components/net/lwip-2.0.2/src/core/ipv4/igmp.c:205:20
	ldr	r0, [r0]
	.loc	4 205 11                        @ rt-thread/components/net/lwip-2.0.2/src/core/ipv4/igmp.c:205:11
	str	r0, [sp]
.Ltmp54:
	.loc	4 203 3 is_stmt 1               @ rt-thread/components/net/lwip-2.0.2/src/core/ipv4/igmp.c:203:3
	b	.LBB4_3
.LBB4_5:
	.loc	4 207 1                         @ rt-thread/components/net/lwip-2.0.2/src/core/ipv4/igmp.c:207:1
	add	sp, #8
	pop	{r7, pc}
.Ltmp55:
.Lfunc_end4:
	.size	igmp_report_groups, .Lfunc_end4-igmp_report_groups
	.cfi_endproc
	.cantunwind
	.fnend
                                        @ -- End function
	.section	.text.igmp_delaying_member,"ax",%progbits
	.p2align	3                               @ -- Begin function igmp_delaying_member
	.type	igmp_delaying_member,%function
	.code	16                              @ @igmp_delaying_member
	.thumb_func
igmp_delaying_member:
.Lfunc_begin5:
	.loc	4 713 0                         @ rt-thread/components/net/lwip-2.0.2/src/core/ipv4/igmp.c:713:0
	.fnstart
	.cfi_startproc
@ %bb.0:
	.save	{r7, lr}
	push	{r7, lr}
	.cfi_def_cfa_offset 8
	.cfi_offset lr, -4
	.cfi_offset r7, -8
	.pad	#8
	sub	sp, #8
	.cfi_def_cfa_offset 16
                                        @ kill: def $r2 killed $r1
	str	r0, [sp, #4]
	strb.w	r1, [sp, #3]
.Ltmp56:
	.loc	4 714 8 prologue_end            @ rt-thread/components/net/lwip-2.0.2/src/core/ipv4/igmp.c:714:8
	ldr	r0, [sp, #4]
	.loc	4 714 15 is_stmt 0              @ rt-thread/components/net/lwip-2.0.2/src/core/ipv4/igmp.c:714:15
	ldrb	r0, [r0, #9]
	.loc	4 714 54                        @ rt-thread/components/net/lwip-2.0.2/src/core/ipv4/igmp.c:714:54
	cmp	r0, #2
	beq	.LBB5_4
	b	.LBB5_1
.LBB5_1:
	.loc	4 715 8 is_stmt 1               @ rt-thread/components/net/lwip-2.0.2/src/core/ipv4/igmp.c:715:8
	ldr	r0, [sp, #4]
	.loc	4 715 15 is_stmt 0              @ rt-thread/components/net/lwip-2.0.2/src/core/ipv4/igmp.c:715:15
	ldrb	r0, [r0, #9]
	.loc	4 715 58                        @ rt-thread/components/net/lwip-2.0.2/src/core/ipv4/igmp.c:715:58
	cmp	r0, #1
	bne	.LBB5_5
	b	.LBB5_2
.LBB5_2:
	.loc	4 716 9 is_stmt 1               @ rt-thread/components/net/lwip-2.0.2/src/core/ipv4/igmp.c:716:9
	ldr	r0, [sp, #4]
	.loc	4 716 16 is_stmt 0              @ rt-thread/components/net/lwip-2.0.2/src/core/ipv4/igmp.c:716:16
	ldrh	r0, [r0, #10]
	.loc	4 716 28                        @ rt-thread/components/net/lwip-2.0.2/src/core/ipv4/igmp.c:716:28
	cbz	r0, .LBB5_4
	b	.LBB5_3
.LBB5_3:
	.loc	4 716 32                        @ rt-thread/components/net/lwip-2.0.2/src/core/ipv4/igmp.c:716:32
	ldrb.w	r0, [sp, #3]
	.loc	4 716 42                        @ rt-thread/components/net/lwip-2.0.2/src/core/ipv4/igmp.c:716:42
	ldr	r1, [sp, #4]
	.loc	4 716 49                        @ rt-thread/components/net/lwip-2.0.2/src/core/ipv4/igmp.c:716:49
	ldrh	r1, [r1, #10]
.Ltmp57:
	.loc	4 714 7 is_stmt 1               @ rt-thread/components/net/lwip-2.0.2/src/core/ipv4/igmp.c:714:7
	cmp	r0, r1
	bge	.LBB5_5
	b	.LBB5_4
.LBB5_4:
.Ltmp58:
	.loc	4 717 22                        @ rt-thread/components/net/lwip-2.0.2/src/core/ipv4/igmp.c:717:22
	ldr	r0, [sp, #4]
	.loc	4 717 29 is_stmt 0              @ rt-thread/components/net/lwip-2.0.2/src/core/ipv4/igmp.c:717:29
	ldrb.w	r1, [sp, #3]
	.loc	4 717 5                         @ rt-thread/components/net/lwip-2.0.2/src/core/ipv4/igmp.c:717:5
	bl	igmp_start_timer
	.loc	4 718 5 is_stmt 1               @ rt-thread/components/net/lwip-2.0.2/src/core/ipv4/igmp.c:718:5
	ldr	r1, [sp, #4]
	movs	r0, #1
	.loc	4 718 24 is_stmt 0              @ rt-thread/components/net/lwip-2.0.2/src/core/ipv4/igmp.c:718:24
	strb	r0, [r1, #9]
	.loc	4 719 3 is_stmt 1               @ rt-thread/components/net/lwip-2.0.2/src/core/ipv4/igmp.c:719:3
	b	.LBB5_5
.Ltmp59:
.LBB5_5:
	.loc	4 720 1                         @ rt-thread/components/net/lwip-2.0.2/src/core/ipv4/igmp.c:720:1
	add	sp, #8
	pop	{r7, pc}
.Ltmp60:
.Lfunc_end5:
	.size	igmp_delaying_member, .Lfunc_end5-igmp_delaying_member
	.cfi_endproc
	.cantunwind
	.fnend
                                        @ -- End function
	.section	.text.igmp_lookfor_group,"ax",%progbits
	.hidden	igmp_lookfor_group              @ -- Begin function igmp_lookfor_group
	.globl	igmp_lookfor_group
	.p2align	3
	.type	igmp_lookfor_group,%function
	.code	16                              @ @igmp_lookfor_group
	.thumb_func
igmp_lookfor_group:
.Lfunc_begin6:
	.loc	4 219 0                         @ rt-thread/components/net/lwip-2.0.2/src/core/ipv4/igmp.c:219:0
	.fnstart
	.cfi_startproc
@ %bb.0:
	.pad	#16
	sub	sp, #16
	.cfi_def_cfa_offset 16
	str	r0, [sp, #8]
	str	r1, [sp, #4]
.Ltmp61:
	.loc	4 220 30 prologue_end           @ rt-thread/components/net/lwip-2.0.2/src/core/ipv4/igmp.c:220:30
	ldr	r0, [sp, #8]
	ldr	r0, [r0, #44]
	.loc	4 220 22 is_stmt 0              @ rt-thread/components/net/lwip-2.0.2/src/core/ipv4/igmp.c:220:22
	str	r0, [sp]
	.loc	4 222 3 is_stmt 1               @ rt-thread/components/net/lwip-2.0.2/src/core/ipv4/igmp.c:222:3
	b	.LBB6_1
.LBB6_1:                                @ =>This Inner Loop Header: Depth=1
	.loc	4 222 10 is_stmt 0              @ rt-thread/components/net/lwip-2.0.2/src/core/ipv4/igmp.c:222:10
	ldr	r0, [sp]
	.loc	4 222 3                         @ rt-thread/components/net/lwip-2.0.2/src/core/ipv4/igmp.c:222:3
	cbz	r0, .LBB6_5
	b	.LBB6_2
.LBB6_2:                                @   in Loop: Header=BB6_1 Depth=1
.Ltmp62:
	.loc	4 223 9 is_stmt 1               @ rt-thread/components/net/lwip-2.0.2/src/core/ipv4/igmp.c:223:9
	ldr	r0, [sp]
	ldr	r0, [r0, #4]
	ldr	r1, [sp, #4]
	ldr	r1, [r1]
.Ltmp63:
	.loc	4 223 9 is_stmt 0               @ rt-thread/components/net/lwip-2.0.2/src/core/ipv4/igmp.c:223:9
	cmp	r0, r1
	bne	.LBB6_4
	b	.LBB6_3
.LBB6_3:
.Ltmp64:
	.loc	4 224 14 is_stmt 1              @ rt-thread/components/net/lwip-2.0.2/src/core/ipv4/igmp.c:224:14
	ldr	r0, [sp]
	.loc	4 224 7 is_stmt 0               @ rt-thread/components/net/lwip-2.0.2/src/core/ipv4/igmp.c:224:7
	str	r0, [sp, #12]
	b	.LBB6_6
.Ltmp65:
.LBB6_4:                                @   in Loop: Header=BB6_1 Depth=1
	.loc	4 226 13 is_stmt 1              @ rt-thread/components/net/lwip-2.0.2/src/core/ipv4/igmp.c:226:13
	ldr	r0, [sp]
	.loc	4 226 20 is_stmt 0              @ rt-thread/components/net/lwip-2.0.2/src/core/ipv4/igmp.c:226:20
	ldr	r0, [r0]
	.loc	4 226 11                        @ rt-thread/components/net/lwip-2.0.2/src/core/ipv4/igmp.c:226:11
	str	r0, [sp]
.Ltmp66:
	.loc	4 222 3 is_stmt 1               @ rt-thread/components/net/lwip-2.0.2/src/core/ipv4/igmp.c:222:3
	b	.LBB6_1
.LBB6_5:
	.loc	4 0 3 is_stmt 0                 @ rt-thread/components/net/lwip-2.0.2/src/core/ipv4/igmp.c:0:3
	movs	r0, #0
	.loc	4 232 3 is_stmt 1               @ rt-thread/components/net/lwip-2.0.2/src/core/ipv4/igmp.c:232:3
	str	r0, [sp, #12]
	b	.LBB6_6
.LBB6_6:
	.loc	4 233 1                         @ rt-thread/components/net/lwip-2.0.2/src/core/ipv4/igmp.c:233:1
	ldr	r0, [sp, #12]
	add	sp, #16
	bx	lr
.Ltmp67:
.Lfunc_end6:
	.size	igmp_lookfor_group, .Lfunc_end6-igmp_lookfor_group
	.cfi_endproc
	.cantunwind
	.fnend
                                        @ -- End function
	.section	.text.igmp_input,"ax",%progbits
	.hidden	igmp_input                      @ -- Begin function igmp_input
	.globl	igmp_input
	.p2align	3
	.type	igmp_input,%function
	.code	16                              @ @igmp_input
	.thumb_func
igmp_input:
.Lfunc_begin7:
	.loc	4 324 0                         @ rt-thread/components/net/lwip-2.0.2/src/core/ipv4/igmp.c:324:0
	.fnstart
	.cfi_startproc
@ %bb.0:
	.save	{r7, lr}
	push	{r7, lr}
	.cfi_def_cfa_offset 8
	.cfi_offset lr, -4
	.cfi_offset r7, -8
	.pad	#32
	sub	sp, #32
	.cfi_def_cfa_offset 40
	str	r0, [sp, #28]
	str	r1, [sp, #24]
	str	r2, [sp, #20]
.Ltmp68:
	.loc	4 332 7 prologue_end            @ rt-thread/components/net/lwip-2.0.2/src/core/ipv4/igmp.c:332:7
	ldr	r0, [sp, #28]
	.loc	4 332 10 is_stmt 0              @ rt-thread/components/net/lwip-2.0.2/src/core/ipv4/igmp.c:332:10
	ldrh	r0, [r0, #10]
.Ltmp69:
	.loc	4 332 7                         @ rt-thread/components/net/lwip-2.0.2/src/core/ipv4/igmp.c:332:7
	cmp	r0, #7
	bgt	.LBB7_2
	b	.LBB7_1
.LBB7_1:
.Ltmp70:
	.loc	4 333 15 is_stmt 1              @ rt-thread/components/net/lwip-2.0.2/src/core/ipv4/igmp.c:333:15
	ldr	r0, [sp, #28]
	.loc	4 333 5 is_stmt 0               @ rt-thread/components/net/lwip-2.0.2/src/core/ipv4/igmp.c:333:5
	bl	pbuf_free
	.loc	4 336 5 is_stmt 1               @ rt-thread/components/net/lwip-2.0.2/src/core/ipv4/igmp.c:336:5
	b	.LBB7_37
.Ltmp71:
.LBB7_2:
	.loc	4 346 29                        @ rt-thread/components/net/lwip-2.0.2/src/core/ipv4/igmp.c:346:29
	ldr	r0, [sp, #28]
	.loc	4 346 32 is_stmt 0              @ rt-thread/components/net/lwip-2.0.2/src/core/ipv4/igmp.c:346:32
	ldr	r0, [r0, #4]
	.loc	4 346 8                         @ rt-thread/components/net/lwip-2.0.2/src/core/ipv4/igmp.c:346:8
	str	r0, [sp, #16]
.Ltmp72:
	.loc	4 347 19 is_stmt 1              @ rt-thread/components/net/lwip-2.0.2/src/core/ipv4/igmp.c:347:19
	ldr	r0, [sp, #16]
	.loc	4 347 25 is_stmt 0              @ rt-thread/components/net/lwip-2.0.2/src/core/ipv4/igmp.c:347:25
	ldr	r1, [sp, #28]
	.loc	4 347 28                        @ rt-thread/components/net/lwip-2.0.2/src/core/ipv4/igmp.c:347:28
	ldrh	r1, [r1, #10]
	.loc	4 347 7                         @ rt-thread/components/net/lwip-2.0.2/src/core/ipv4/igmp.c:347:7
	bl	inet_chksum
.Ltmp73:
	.loc	4 347 7                         @ rt-thread/components/net/lwip-2.0.2/src/core/ipv4/igmp.c:347:7
	cbz	r0, .LBB7_4
	b	.LBB7_3
.LBB7_3:
.Ltmp74:
	.loc	4 348 15 is_stmt 1              @ rt-thread/components/net/lwip-2.0.2/src/core/ipv4/igmp.c:348:15
	ldr	r0, [sp, #28]
	.loc	4 348 5 is_stmt 0               @ rt-thread/components/net/lwip-2.0.2/src/core/ipv4/igmp.c:348:5
	bl	pbuf_free
	.loc	4 351 5 is_stmt 1               @ rt-thread/components/net/lwip-2.0.2/src/core/ipv4/igmp.c:351:5
	b	.LBB7_37
.Ltmp75:
.LBB7_4:
	.loc	4 355 30                        @ rt-thread/components/net/lwip-2.0.2/src/core/ipv4/igmp.c:355:30
	ldr	r0, [sp, #24]
	.loc	4 355 35 is_stmt 0              @ rt-thread/components/net/lwip-2.0.2/src/core/ipv4/igmp.c:355:35
	ldr	r1, [sp, #20]
	.loc	4 355 11                        @ rt-thread/components/net/lwip-2.0.2/src/core/ipv4/igmp.c:355:11
	bl	igmp_lookfor_group
	.loc	4 355 9                         @ rt-thread/components/net/lwip-2.0.2/src/core/ipv4/igmp.c:355:9
	str	r0, [sp, #12]
.Ltmp76:
	.loc	4 358 8 is_stmt 1               @ rt-thread/components/net/lwip-2.0.2/src/core/ipv4/igmp.c:358:8
	ldr	r0, [sp, #12]
.Ltmp77:
	.loc	4 358 7 is_stmt 0               @ rt-thread/components/net/lwip-2.0.2/src/core/ipv4/igmp.c:358:7
	cbnz	r0, .LBB7_6
	b	.LBB7_5
.LBB7_5:
.Ltmp78:
	.loc	4 359 15 is_stmt 1              @ rt-thread/components/net/lwip-2.0.2/src/core/ipv4/igmp.c:359:15
	ldr	r0, [sp, #28]
	.loc	4 359 5 is_stmt 0               @ rt-thread/components/net/lwip-2.0.2/src/core/ipv4/igmp.c:359:5
	bl	pbuf_free
	.loc	4 362 5 is_stmt 1               @ rt-thread/components/net/lwip-2.0.2/src/core/ipv4/igmp.c:362:5
	b	.LBB7_37
.Ltmp79:
.LBB7_6:
	.loc	4 366 11                        @ rt-thread/components/net/lwip-2.0.2/src/core/ipv4/igmp.c:366:11
	ldr	r0, [sp, #16]
	.loc	4 366 17 is_stmt 0              @ rt-thread/components/net/lwip-2.0.2/src/core/ipv4/igmp.c:366:17
	ldrb	r0, [r0]
	.loc	4 366 3                         @ rt-thread/components/net/lwip-2.0.2/src/core/ipv4/igmp.c:366:3
	mov	r1, r0
	str	r1, [sp]                        @ 4-byte Spill
	cmp	r0, #17
	beq	.LBB7_8
	b	.LBB7_7
.LBB7_7:
	ldr	r0, [sp]                        @ 4-byte Reload
	cmp	r0, #22
	beq	.LBB7_32
	b	.LBB7_35
.LBB7_8:
.Ltmp80:
	.loc	4 369 10 is_stmt 1              @ rt-thread/components/net/lwip-2.0.2/src/core/ipv4/igmp.c:369:10
	ldr	r0, [sp, #20]
	ldr	r0, [r0]
	movw	r1, :lower16:allsystems
	movt	r1, :upper16:allsystems
	ldr	r1, [r1]
	.loc	4 369 43 is_stmt 0              @ rt-thread/components/net/lwip-2.0.2/src/core/ipv4/igmp.c:369:43
	cmp	r0, r1
	bne	.LBB7_20
	b	.LBB7_9
.LBB7_9:
	.loc	4 369 46                        @ rt-thread/components/net/lwip-2.0.2/src/core/ipv4/igmp.c:369:46
	ldr	r0, [sp, #16]
	adds	r0, #4
	cbz	r0, .LBB7_11
	b	.LBB7_10
.LBB7_10:
	ldr	r0, [sp, #16]
	ldr	r0, [r0, #4]
.Ltmp81:
	.loc	4 369 9                         @ rt-thread/components/net/lwip-2.0.2/src/core/ipv4/igmp.c:369:9
	cbnz	r0, .LBB7_20
	b	.LBB7_11
.LBB7_11:
.Ltmp82:
	.loc	4 373 11 is_stmt 1              @ rt-thread/components/net/lwip-2.0.2/src/core/ipv4/igmp.c:373:11
	ldr	r0, [sp, #16]
	.loc	4 373 17 is_stmt 0              @ rt-thread/components/net/lwip-2.0.2/src/core/ipv4/igmp.c:373:17
	ldrb	r0, [r0, #1]
.Ltmp83:
	.loc	4 373 11                        @ rt-thread/components/net/lwip-2.0.2/src/core/ipv4/igmp.c:373:11
	cbnz	r0, .LBB7_13
	b	.LBB7_12
.LBB7_12:
.Ltmp84:
	.loc	4 376 9 is_stmt 1               @ rt-thread/components/net/lwip-2.0.2/src/core/ipv4/igmp.c:376:9
	ldr	r1, [sp, #16]
	movs	r0, #10
	.loc	4 376 28 is_stmt 0              @ rt-thread/components/net/lwip-2.0.2/src/core/ipv4/igmp.c:376:28
	strb	r0, [r1, #1]
	.loc	4 377 7 is_stmt 1               @ rt-thread/components/net/lwip-2.0.2/src/core/ipv4/igmp.c:377:7
	b	.LBB7_14
.Ltmp85:
.LBB7_13:
	.loc	4 0 7 is_stmt 0                 @ rt-thread/components/net/lwip-2.0.2/src/core/ipv4/igmp.c:0:7
	b	.LBB7_14
.LBB7_14:
	.loc	4 381 18 is_stmt 1              @ rt-thread/components/net/lwip-2.0.2/src/core/ipv4/igmp.c:381:18
	ldr	r0, [sp, #24]
	ldr	r0, [r0, #44]
	.loc	4 381 16 is_stmt 0              @ rt-thread/components/net/lwip-2.0.2/src/core/ipv4/igmp.c:381:16
	str	r0, [sp, #8]
.Ltmp86:
	.loc	4 385 10 is_stmt 1              @ rt-thread/components/net/lwip-2.0.2/src/core/ipv4/igmp.c:385:10
	ldr	r0, [sp, #8]
.Ltmp87:
	.loc	4 385 10 is_stmt 0              @ rt-thread/components/net/lwip-2.0.2/src/core/ipv4/igmp.c:385:10
	cbz	r0, .LBB7_16
	b	.LBB7_15
.LBB7_15:
.Ltmp88:
	.loc	4 386 20 is_stmt 1              @ rt-thread/components/net/lwip-2.0.2/src/core/ipv4/igmp.c:386:20
	ldr	r0, [sp, #8]
	.loc	4 386 30 is_stmt 0              @ rt-thread/components/net/lwip-2.0.2/src/core/ipv4/igmp.c:386:30
	ldr	r0, [r0]
	.loc	4 386 18                        @ rt-thread/components/net/lwip-2.0.2/src/core/ipv4/igmp.c:386:18
	str	r0, [sp, #8]
	.loc	4 387 7 is_stmt 1               @ rt-thread/components/net/lwip-2.0.2/src/core/ipv4/igmp.c:387:7
	b	.LBB7_16
.Ltmp89:
.LBB7_16:
	.loc	4 389 7                         @ rt-thread/components/net/lwip-2.0.2/src/core/ipv4/igmp.c:389:7
	b	.LBB7_17
.LBB7_17:                               @ =>This Inner Loop Header: Depth=1
	.loc	4 389 14 is_stmt 0              @ rt-thread/components/net/lwip-2.0.2/src/core/ipv4/igmp.c:389:14
	ldr	r0, [sp, #8]
	.loc	4 389 7                         @ rt-thread/components/net/lwip-2.0.2/src/core/ipv4/igmp.c:389:7
	cbz	r0, .LBB7_19
	b	.LBB7_18
.LBB7_18:                               @   in Loop: Header=BB7_17 Depth=1
.Ltmp90:
	.loc	4 390 30 is_stmt 1              @ rt-thread/components/net/lwip-2.0.2/src/core/ipv4/igmp.c:390:30
	ldr	r0, [sp, #8]
	.loc	4 390 40 is_stmt 0              @ rt-thread/components/net/lwip-2.0.2/src/core/ipv4/igmp.c:390:40
	ldr	r1, [sp, #16]
	.loc	4 390 46                        @ rt-thread/components/net/lwip-2.0.2/src/core/ipv4/igmp.c:390:46
	ldrb	r1, [r1, #1]
	.loc	4 390 9                         @ rt-thread/components/net/lwip-2.0.2/src/core/ipv4/igmp.c:390:9
	bl	igmp_delaying_member
	.loc	4 391 20 is_stmt 1              @ rt-thread/components/net/lwip-2.0.2/src/core/ipv4/igmp.c:391:20
	ldr	r0, [sp, #8]
	.loc	4 391 30 is_stmt 0              @ rt-thread/components/net/lwip-2.0.2/src/core/ipv4/igmp.c:391:30
	ldr	r0, [r0]
	.loc	4 391 18                        @ rt-thread/components/net/lwip-2.0.2/src/core/ipv4/igmp.c:391:18
	str	r0, [sp, #8]
.Ltmp91:
	.loc	4 389 7 is_stmt 1               @ rt-thread/components/net/lwip-2.0.2/src/core/ipv4/igmp.c:389:7
	b	.LBB7_17
.LBB7_19:
	.loc	4 393 5                         @ rt-thread/components/net/lwip-2.0.2/src/core/ipv4/igmp.c:393:5
	b	.LBB7_31
.Ltmp92:
.LBB7_20:
	.loc	4 395 12                        @ rt-thread/components/net/lwip-2.0.2/src/core/ipv4/igmp.c:395:12
	ldr	r0, [sp, #16]
	adds	r0, #4
	cbz	r0, .LBB7_29
	b	.LBB7_21
.LBB7_21:
	ldr	r0, [sp, #16]
	ldr	r0, [r0, #4]
.Ltmp93:
	.loc	4 395 11 is_stmt 0              @ rt-thread/components/net/lwip-2.0.2/src/core/ipv4/igmp.c:395:11
	cbz	r0, .LBB7_29
	b	.LBB7_22
.LBB7_22:
.Ltmp94:
	.loc	4 398 13 is_stmt 1              @ rt-thread/components/net/lwip-2.0.2/src/core/ipv4/igmp.c:398:13
	ldr	r0, [sp, #20]
	ldr	r0, [r0]
	movw	r1, :lower16:allsystems
	movt	r1, :upper16:allsystems
	ldr	r1, [r1]
.Ltmp95:
	.loc	4 398 13 is_stmt 0              @ rt-thread/components/net/lwip-2.0.2/src/core/ipv4/igmp.c:398:13
	cmp	r0, r1
	bne	.LBB7_24
	b	.LBB7_23
.LBB7_23:
.Ltmp96:
	.loc	4 402 11 is_stmt 1              @ rt-thread/components/net/lwip-2.0.2/src/core/ipv4/igmp.c:402:11
	ldr	r0, [sp, #16]
	ldr	r0, [r0, #4]
	str	r0, [sp, #4]
	.loc	4 403 38                        @ rt-thread/components/net/lwip-2.0.2/src/core/ipv4/igmp.c:403:38
	ldr	r0, [sp, #24]
	add	r1, sp, #4
	.loc	4 403 19 is_stmt 0              @ rt-thread/components/net/lwip-2.0.2/src/core/ipv4/igmp.c:403:19
	bl	igmp_lookfor_group
	.loc	4 403 17                        @ rt-thread/components/net/lwip-2.0.2/src/core/ipv4/igmp.c:403:17
	str	r0, [sp, #12]
	.loc	4 404 9 is_stmt 1               @ rt-thread/components/net/lwip-2.0.2/src/core/ipv4/igmp.c:404:9
	b	.LBB7_25
.Ltmp97:
.LBB7_24:
	.loc	4 0 9 is_stmt 0                 @ rt-thread/components/net/lwip-2.0.2/src/core/ipv4/igmp.c:0:9
	b	.LBB7_25
.LBB7_25:
.Ltmp98:
	.loc	4 408 13 is_stmt 1              @ rt-thread/components/net/lwip-2.0.2/src/core/ipv4/igmp.c:408:13
	ldr	r0, [sp, #12]
.Ltmp99:
	.loc	4 408 13 is_stmt 0              @ rt-thread/components/net/lwip-2.0.2/src/core/ipv4/igmp.c:408:13
	cbz	r0, .LBB7_27
	b	.LBB7_26
.LBB7_26:
.Ltmp100:
	.loc	4 410 32 is_stmt 1              @ rt-thread/components/net/lwip-2.0.2/src/core/ipv4/igmp.c:410:32
	ldr	r0, [sp, #12]
	.loc	4 410 39 is_stmt 0              @ rt-thread/components/net/lwip-2.0.2/src/core/ipv4/igmp.c:410:39
	ldr	r1, [sp, #16]
	.loc	4 410 45                        @ rt-thread/components/net/lwip-2.0.2/src/core/ipv4/igmp.c:410:45
	ldrb	r1, [r1, #1]
	.loc	4 410 11                        @ rt-thread/components/net/lwip-2.0.2/src/core/ipv4/igmp.c:410:11
	bl	igmp_delaying_member
	.loc	4 411 9 is_stmt 1               @ rt-thread/components/net/lwip-2.0.2/src/core/ipv4/igmp.c:411:9
	b	.LBB7_28
.Ltmp101:
.LBB7_27:
	.loc	4 0 9 is_stmt 0                 @ rt-thread/components/net/lwip-2.0.2/src/core/ipv4/igmp.c:0:9
	b	.LBB7_28
.LBB7_28:
	.loc	4 414 7 is_stmt 1               @ rt-thread/components/net/lwip-2.0.2/src/core/ipv4/igmp.c:414:7
	b	.LBB7_30
.Ltmp102:
.LBB7_29:
	.loc	4 0 7 is_stmt 0                 @ rt-thread/components/net/lwip-2.0.2/src/core/ipv4/igmp.c:0:7
	b	.LBB7_30
.LBB7_30:
	b	.LBB7_31
.LBB7_31:
	.loc	4 418 5 is_stmt 1               @ rt-thread/components/net/lwip-2.0.2/src/core/ipv4/igmp.c:418:5
	b	.LBB7_36
.LBB7_32:
.Ltmp103:
	.loc	4 422 9                         @ rt-thread/components/net/lwip-2.0.2/src/core/ipv4/igmp.c:422:9
	ldr	r0, [sp, #12]
	.loc	4 422 16 is_stmt 0              @ rt-thread/components/net/lwip-2.0.2/src/core/ipv4/igmp.c:422:16
	ldrb	r0, [r0, #9]
.Ltmp104:
	.loc	4 422 9                         @ rt-thread/components/net/lwip-2.0.2/src/core/ipv4/igmp.c:422:9
	cmp	r0, #1
	bne	.LBB7_34
	b	.LBB7_33
.LBB7_33:
.Ltmp105:
	.loc	4 424 7 is_stmt 1               @ rt-thread/components/net/lwip-2.0.2/src/core/ipv4/igmp.c:424:7
	ldr	r1, [sp, #12]
	movs	r0, #0
	.loc	4 424 20 is_stmt 0              @ rt-thread/components/net/lwip-2.0.2/src/core/ipv4/igmp.c:424:20
	strh	r0, [r1, #10]
	.loc	4 425 7 is_stmt 1               @ rt-thread/components/net/lwip-2.0.2/src/core/ipv4/igmp.c:425:7
	ldr	r2, [sp, #12]
	movs	r1, #2
	.loc	4 425 26 is_stmt 0              @ rt-thread/components/net/lwip-2.0.2/src/core/ipv4/igmp.c:425:26
	strb	r1, [r2, #9]
	.loc	4 426 7 is_stmt 1               @ rt-thread/components/net/lwip-2.0.2/src/core/ipv4/igmp.c:426:7
	ldr	r1, [sp, #12]
	.loc	4 426 33 is_stmt 0              @ rt-thread/components/net/lwip-2.0.2/src/core/ipv4/igmp.c:426:33
	strb	r0, [r1, #8]
	.loc	4 427 5 is_stmt 1               @ rt-thread/components/net/lwip-2.0.2/src/core/ipv4/igmp.c:427:5
	b	.LBB7_34
.Ltmp106:
.LBB7_34:
	.loc	4 428 5                         @ rt-thread/components/net/lwip-2.0.2/src/core/ipv4/igmp.c:428:5
	b	.LBB7_36
.LBB7_35:
	.loc	4 433 5                         @ rt-thread/components/net/lwip-2.0.2/src/core/ipv4/igmp.c:433:5
	b	.LBB7_36
.Ltmp107:
.LBB7_36:
	.loc	4 436 13                        @ rt-thread/components/net/lwip-2.0.2/src/core/ipv4/igmp.c:436:13
	ldr	r0, [sp, #28]
	.loc	4 436 3 is_stmt 0               @ rt-thread/components/net/lwip-2.0.2/src/core/ipv4/igmp.c:436:3
	bl	pbuf_free
	.loc	4 437 3 is_stmt 1               @ rt-thread/components/net/lwip-2.0.2/src/core/ipv4/igmp.c:437:3
	b	.LBB7_37
.LBB7_37:
	.loc	4 438 1                         @ rt-thread/components/net/lwip-2.0.2/src/core/ipv4/igmp.c:438:1
	add	sp, #32
	pop	{r7, pc}
.Ltmp108:
.Lfunc_end7:
	.size	igmp_input, .Lfunc_end7-igmp_input
	.cfi_endproc
	.cantunwind
	.fnend
                                        @ -- End function
	.section	.text.igmp_joingroup,"ax",%progbits
	.hidden	igmp_joingroup                  @ -- Begin function igmp_joingroup
	.globl	igmp_joingroup
	.p2align	3
	.type	igmp_joingroup,%function
	.code	16                              @ @igmp_joingroup
	.thumb_func
igmp_joingroup:
.Lfunc_begin8:
	.loc	4 450 0                         @ rt-thread/components/net/lwip-2.0.2/src/core/ipv4/igmp.c:450:0
	.fnstart
	.cfi_startproc
@ %bb.0:
	.save	{r7, lr}
	push	{r7, lr}
	.cfi_def_cfa_offset 8
	.cfi_offset lr, -4
	.cfi_offset r7, -8
	.pad	#24
	sub	sp, #24
	.cfi_def_cfa_offset 32
	str	r0, [sp, #16]
	str	r1, [sp, #12]
	movs	r0, #250
.Ltmp109:
	.loc	4 451 9 prologue_end            @ rt-thread/components/net/lwip-2.0.2/src/core/ipv4/igmp.c:451:9
	strb.w	r0, [sp, #11]
	.loc	4 455 3                         @ rt-thread/components/net/lwip-2.0.2/src/core/ipv4/igmp.c:455:3
	b	.LBB8_1
.LBB8_1:
.Ltmp110:
	.loc	4 455 3 is_stmt 0               @ rt-thread/components/net/lwip-2.0.2/src/core/ipv4/igmp.c:455:3
	ldr	r0, [sp, #12]
	ldr	r0, [r0]
	and	r0, r0, #240
.Ltmp111:
	.loc	4 455 3                         @ rt-thread/components/net/lwip-2.0.2/src/core/ipv4/igmp.c:455:3
	cmp	r0, #224
	beq	.LBB8_5
	b	.LBB8_2
.LBB8_2:
.Ltmp112:
	.loc	4 455 3                         @ rt-thread/components/net/lwip-2.0.2/src/core/ipv4/igmp.c:455:3
	b	.LBB8_3
.LBB8_3:
.Ltmp113:
	.loc	4 455 3                         @ rt-thread/components/net/lwip-2.0.2/src/core/ipv4/igmp.c:455:3
	movw	r0, :lower16:.L.str
	movt	r0, :upper16:.L.str
	bl	rt_kprintf
	movw	r0, :lower16:.L.str.1
	movt	r0, :upper16:.L.str.1
	movw	r1, #455
	bl	sys_arch_assert
	b	.LBB8_4
.Ltmp114:
.LBB8_4:
	.loc	4 0 3                           @ rt-thread/components/net/lwip-2.0.2/src/core/ipv4/igmp.c:0:3
	movs	r0, #250
	.loc	4 455 3                         @ rt-thread/components/net/lwip-2.0.2/src/core/ipv4/igmp.c:455:3
	strb.w	r0, [sp, #23]
	b	.LBB8_23
.Ltmp115:
.LBB8_5:
	.loc	4 455 3                         @ rt-thread/components/net/lwip-2.0.2/src/core/ipv4/igmp.c:455:3
	b	.LBB8_6
.Ltmp116:
.LBB8_6:
	.loc	4 456 3 is_stmt 1               @ rt-thread/components/net/lwip-2.0.2/src/core/ipv4/igmp.c:456:3
	b	.LBB8_7
.LBB8_7:
.Ltmp117:
	.loc	4 456 3 is_stmt 0               @ rt-thread/components/net/lwip-2.0.2/src/core/ipv4/igmp.c:456:3
	ldr	r0, [sp, #12]
	ldr	r0, [r0]
	movw	r1, :lower16:allsystems
	movt	r1, :upper16:allsystems
	ldr	r1, [r1]
.Ltmp118:
	.loc	4 456 3                         @ rt-thread/components/net/lwip-2.0.2/src/core/ipv4/igmp.c:456:3
	cmp	r0, r1
	bne	.LBB8_11
	b	.LBB8_8
.LBB8_8:
.Ltmp119:
	.loc	4 456 3                         @ rt-thread/components/net/lwip-2.0.2/src/core/ipv4/igmp.c:456:3
	b	.LBB8_9
.LBB8_9:
.Ltmp120:
	.loc	4 456 3                         @ rt-thread/components/net/lwip-2.0.2/src/core/ipv4/igmp.c:456:3
	movw	r0, :lower16:.L.str.2
	movt	r0, :upper16:.L.str.2
	bl	rt_kprintf
	movw	r0, :lower16:.L.str.1
	movt	r0, :upper16:.L.str.1
	mov.w	r1, #456
	bl	sys_arch_assert
	b	.LBB8_10
.Ltmp121:
.LBB8_10:
	.loc	4 0 3                           @ rt-thread/components/net/lwip-2.0.2/src/core/ipv4/igmp.c:0:3
	movs	r0, #250
	.loc	4 456 3                         @ rt-thread/components/net/lwip-2.0.2/src/core/ipv4/igmp.c:456:3
	strb.w	r0, [sp, #23]
	b	.LBB8_23
.Ltmp122:
.LBB8_11:
	.loc	4 456 3                         @ rt-thread/components/net/lwip-2.0.2/src/core/ipv4/igmp.c:456:3
	b	.LBB8_12
.Ltmp123:
.LBB8_12:
	.loc	4 459 11 is_stmt 1              @ rt-thread/components/net/lwip-2.0.2/src/core/ipv4/igmp.c:459:11
	movw	r0, :lower16:netif_list
	movt	r0, :upper16:netif_list
	ldr	r0, [r0]
	.loc	4 459 9 is_stmt 0               @ rt-thread/components/net/lwip-2.0.2/src/core/ipv4/igmp.c:459:9
	str	r0, [sp, #4]
	.loc	4 460 3 is_stmt 1               @ rt-thread/components/net/lwip-2.0.2/src/core/ipv4/igmp.c:460:3
	b	.LBB8_13
.LBB8_13:                               @ =>This Inner Loop Header: Depth=1
	.loc	4 460 10 is_stmt 0              @ rt-thread/components/net/lwip-2.0.2/src/core/ipv4/igmp.c:460:10
	ldr	r0, [sp, #4]
	.loc	4 460 3                         @ rt-thread/components/net/lwip-2.0.2/src/core/ipv4/igmp.c:460:3
	cbz	r0, .LBB8_22
	b	.LBB8_14
.LBB8_14:                               @   in Loop: Header=BB8_13 Depth=1
.Ltmp124:
	.loc	4 462 10 is_stmt 1              @ rt-thread/components/net/lwip-2.0.2/src/core/ipv4/igmp.c:462:10
	ldr	r0, [sp, #4]
	ldrb.w	r0, [r0, #65]
	.loc	4 462 42 is_stmt 0              @ rt-thread/components/net/lwip-2.0.2/src/core/ipv4/igmp.c:462:42
	lsls	r0, r0, #26
	cmp	r0, #0
	bpl	.LBB8_21
	b	.LBB8_15
.LBB8_15:                               @   in Loop: Header=BB8_13 Depth=1
	.loc	4 462 47                        @ rt-thread/components/net/lwip-2.0.2/src/core/ipv4/igmp.c:462:47
	ldr	r0, [sp, #16]
	cbz	r0, .LBB8_18
	b	.LBB8_16
.LBB8_16:                               @   in Loop: Header=BB8_13 Depth=1
	ldr	r0, [sp, #16]
	ldr	r0, [r0]
	.loc	4 462 70                        @ rt-thread/components/net/lwip-2.0.2/src/core/ipv4/igmp.c:462:70
	cbz	r0, .LBB8_18
	b	.LBB8_17
.LBB8_17:                               @   in Loop: Header=BB8_13 Depth=1
	.loc	4 462 73                        @ rt-thread/components/net/lwip-2.0.2/src/core/ipv4/igmp.c:462:73
	ldr	r0, [sp, #4]
	ldr	r0, [r0, #4]
	ldr	r1, [sp, #16]
	ldr	r1, [r1]
.Ltmp125:
	.loc	4 462 9                         @ rt-thread/components/net/lwip-2.0.2/src/core/ipv4/igmp.c:462:9
	cmp	r0, r1
	bne	.LBB8_21
	b	.LBB8_18
.LBB8_18:                               @   in Loop: Header=BB8_13 Depth=1
.Ltmp126:
	.loc	4 463 34 is_stmt 1              @ rt-thread/components/net/lwip-2.0.2/src/core/ipv4/igmp.c:463:34
	ldr	r0, [sp, #4]
	.loc	4 463 41 is_stmt 0              @ rt-thread/components/net/lwip-2.0.2/src/core/ipv4/igmp.c:463:41
	ldr	r1, [sp, #12]
	.loc	4 463 13                        @ rt-thread/components/net/lwip-2.0.2/src/core/ipv4/igmp.c:463:13
	bl	igmp_joingroup_netif
	.loc	4 463 11                        @ rt-thread/components/net/lwip-2.0.2/src/core/ipv4/igmp.c:463:11
	strb.w	r0, [sp, #11]
.Ltmp127:
	.loc	4 464 11 is_stmt 1              @ rt-thread/components/net/lwip-2.0.2/src/core/ipv4/igmp.c:464:11
	ldrsb.w	r0, [sp, #11]
.Ltmp128:
	.loc	4 464 11 is_stmt 0              @ rt-thread/components/net/lwip-2.0.2/src/core/ipv4/igmp.c:464:11
	cbz	r0, .LBB8_20
	b	.LBB8_19
.LBB8_19:
.Ltmp129:
	.loc	4 467 16 is_stmt 1              @ rt-thread/components/net/lwip-2.0.2/src/core/ipv4/igmp.c:467:16
	ldrb.w	r0, [sp, #11]
	.loc	4 467 9 is_stmt 0               @ rt-thread/components/net/lwip-2.0.2/src/core/ipv4/igmp.c:467:9
	strb.w	r0, [sp, #23]
	b	.LBB8_23
.Ltmp130:
.LBB8_20:                               @   in Loop: Header=BB8_13 Depth=1
	.loc	4 469 5 is_stmt 1               @ rt-thread/components/net/lwip-2.0.2/src/core/ipv4/igmp.c:469:5
	b	.LBB8_21
.Ltmp131:
.LBB8_21:                               @   in Loop: Header=BB8_13 Depth=1
	.loc	4 471 13                        @ rt-thread/components/net/lwip-2.0.2/src/core/ipv4/igmp.c:471:13
	ldr	r0, [sp, #4]
	.loc	4 471 20 is_stmt 0              @ rt-thread/components/net/lwip-2.0.2/src/core/ipv4/igmp.c:471:20
	ldr	r0, [r0]
	.loc	4 471 11                        @ rt-thread/components/net/lwip-2.0.2/src/core/ipv4/igmp.c:471:11
	str	r0, [sp, #4]
.Ltmp132:
	.loc	4 460 3 is_stmt 1               @ rt-thread/components/net/lwip-2.0.2/src/core/ipv4/igmp.c:460:3
	b	.LBB8_13
.LBB8_22:
	.loc	4 474 10                        @ rt-thread/components/net/lwip-2.0.2/src/core/ipv4/igmp.c:474:10
	ldrb.w	r0, [sp, #11]
	.loc	4 474 3 is_stmt 0               @ rt-thread/components/net/lwip-2.0.2/src/core/ipv4/igmp.c:474:3
	strb.w	r0, [sp, #23]
	b	.LBB8_23
.LBB8_23:
	.loc	4 475 1 is_stmt 1               @ rt-thread/components/net/lwip-2.0.2/src/core/ipv4/igmp.c:475:1
	ldrsb.w	r0, [sp, #23]
	add	sp, #24
	pop	{r7, pc}
.Ltmp133:
.Lfunc_end8:
	.size	igmp_joingroup, .Lfunc_end8-igmp_joingroup
	.cfi_endproc
	.cantunwind
	.fnend
                                        @ -- End function
	.section	.text.igmp_joingroup_netif,"ax",%progbits
	.hidden	igmp_joingroup_netif            @ -- Begin function igmp_joingroup_netif
	.globl	igmp_joingroup_netif
	.p2align	3
	.type	igmp_joingroup_netif,%function
	.code	16                              @ @igmp_joingroup_netif
	.thumb_func
igmp_joingroup_netif:
.Lfunc_begin9:
	.loc	4 487 0                         @ rt-thread/components/net/lwip-2.0.2/src/core/ipv4/igmp.c:487:0
	.fnstart
	.cfi_startproc
@ %bb.0:
	.save	{r7, lr}
	push	{r7, lr}
	.cfi_def_cfa_offset 8
	.cfi_offset lr, -4
	.cfi_offset r7, -8
	.pad	#16
	sub	sp, #16
	.cfi_def_cfa_offset 24
	str	r0, [sp, #8]
	str	r1, [sp, #4]
.Ltmp134:
	.loc	4 491 3 prologue_end            @ rt-thread/components/net/lwip-2.0.2/src/core/ipv4/igmp.c:491:3
	b	.LBB9_1
.LBB9_1:
.Ltmp135:
	.loc	4 491 3 is_stmt 0               @ rt-thread/components/net/lwip-2.0.2/src/core/ipv4/igmp.c:491:3
	ldr	r0, [sp, #4]
	ldr	r0, [r0]
	and	r0, r0, #240
.Ltmp136:
	.loc	4 491 3                         @ rt-thread/components/net/lwip-2.0.2/src/core/ipv4/igmp.c:491:3
	cmp	r0, #224
	beq	.LBB9_5
	b	.LBB9_2
.LBB9_2:
.Ltmp137:
	.loc	4 491 3                         @ rt-thread/components/net/lwip-2.0.2/src/core/ipv4/igmp.c:491:3
	b	.LBB9_3
.LBB9_3:
.Ltmp138:
	.loc	4 491 3                         @ rt-thread/components/net/lwip-2.0.2/src/core/ipv4/igmp.c:491:3
	movw	r0, :lower16:.L.str.3
	movt	r0, :upper16:.L.str.3
	bl	rt_kprintf
	movw	r0, :lower16:.L.str.1
	movt	r0, :upper16:.L.str.1
	movw	r1, #491
	bl	sys_arch_assert
	b	.LBB9_4
.Ltmp139:
.LBB9_4:
	.loc	4 0 3                           @ rt-thread/components/net/lwip-2.0.2/src/core/ipv4/igmp.c:0:3
	movs	r0, #250
	.loc	4 491 3                         @ rt-thread/components/net/lwip-2.0.2/src/core/ipv4/igmp.c:491:3
	strb.w	r0, [sp, #15]
	b	.LBB9_27
.Ltmp140:
.LBB9_5:
	.loc	4 491 3                         @ rt-thread/components/net/lwip-2.0.2/src/core/ipv4/igmp.c:491:3
	b	.LBB9_6
.Ltmp141:
.LBB9_6:
	.loc	4 492 3 is_stmt 1               @ rt-thread/components/net/lwip-2.0.2/src/core/ipv4/igmp.c:492:3
	b	.LBB9_7
.LBB9_7:
.Ltmp142:
	.loc	4 492 3 is_stmt 0               @ rt-thread/components/net/lwip-2.0.2/src/core/ipv4/igmp.c:492:3
	ldr	r0, [sp, #4]
	ldr	r0, [r0]
	movw	r1, :lower16:allsystems
	movt	r1, :upper16:allsystems
	ldr	r1, [r1]
.Ltmp143:
	.loc	4 492 3                         @ rt-thread/components/net/lwip-2.0.2/src/core/ipv4/igmp.c:492:3
	cmp	r0, r1
	bne	.LBB9_11
	b	.LBB9_8
.LBB9_8:
.Ltmp144:
	.loc	4 492 3                         @ rt-thread/components/net/lwip-2.0.2/src/core/ipv4/igmp.c:492:3
	b	.LBB9_9
.LBB9_9:
.Ltmp145:
	.loc	4 492 3                         @ rt-thread/components/net/lwip-2.0.2/src/core/ipv4/igmp.c:492:3
	movw	r0, :lower16:.L.str.4
	movt	r0, :upper16:.L.str.4
	bl	rt_kprintf
	movw	r0, :lower16:.L.str.1
	movt	r0, :upper16:.L.str.1
	mov.w	r1, #492
	bl	sys_arch_assert
	b	.LBB9_10
.Ltmp146:
.LBB9_10:
	.loc	4 0 3                           @ rt-thread/components/net/lwip-2.0.2/src/core/ipv4/igmp.c:0:3
	movs	r0, #250
	.loc	4 492 3                         @ rt-thread/components/net/lwip-2.0.2/src/core/ipv4/igmp.c:492:3
	strb.w	r0, [sp, #15]
	b	.LBB9_27
.Ltmp147:
.LBB9_11:
	.loc	4 492 3                         @ rt-thread/components/net/lwip-2.0.2/src/core/ipv4/igmp.c:492:3
	b	.LBB9_12
.Ltmp148:
.LBB9_12:
	.loc	4 495 3 is_stmt 1               @ rt-thread/components/net/lwip-2.0.2/src/core/ipv4/igmp.c:495:3
	b	.LBB9_13
.LBB9_13:
.Ltmp149:
	.loc	4 495 3 is_stmt 0               @ rt-thread/components/net/lwip-2.0.2/src/core/ipv4/igmp.c:495:3
	ldr	r0, [sp, #8]
	ldrb.w	r0, [r0, #65]
.Ltmp150:
	.loc	4 495 3                         @ rt-thread/components/net/lwip-2.0.2/src/core/ipv4/igmp.c:495:3
	lsls	r0, r0, #26
	cmp	r0, #0
	bmi	.LBB9_17
	b	.LBB9_14
.LBB9_14:
.Ltmp151:
	.loc	4 495 3                         @ rt-thread/components/net/lwip-2.0.2/src/core/ipv4/igmp.c:495:3
	b	.LBB9_15
.LBB9_15:
.Ltmp152:
	.loc	4 495 3                         @ rt-thread/components/net/lwip-2.0.2/src/core/ipv4/igmp.c:495:3
	movw	r0, :lower16:.L.str.5
	movt	r0, :upper16:.L.str.5
	bl	rt_kprintf
	movw	r0, :lower16:.L.str.1
	movt	r0, :upper16:.L.str.1
	movw	r1, #495
	bl	sys_arch_assert
	b	.LBB9_16
.Ltmp153:
.LBB9_16:
	.loc	4 0 3                           @ rt-thread/components/net/lwip-2.0.2/src/core/ipv4/igmp.c:0:3
	movs	r0, #250
	.loc	4 495 3                         @ rt-thread/components/net/lwip-2.0.2/src/core/ipv4/igmp.c:495:3
	strb.w	r0, [sp, #15]
	b	.LBB9_27
.Ltmp154:
.LBB9_17:
	.loc	4 495 3                         @ rt-thread/components/net/lwip-2.0.2/src/core/ipv4/igmp.c:495:3
	b	.LBB9_18
.Ltmp155:
.LBB9_18:
	.loc	4 498 29 is_stmt 1              @ rt-thread/components/net/lwip-2.0.2/src/core/ipv4/igmp.c:498:29
	ldr	r0, [sp, #8]
	.loc	4 498 36 is_stmt 0              @ rt-thread/components/net/lwip-2.0.2/src/core/ipv4/igmp.c:498:36
	ldr	r1, [sp, #4]
	.loc	4 498 11                        @ rt-thread/components/net/lwip-2.0.2/src/core/ipv4/igmp.c:498:11
	bl	igmp_lookup_group
	.loc	4 498 9                         @ rt-thread/components/net/lwip-2.0.2/src/core/ipv4/igmp.c:498:9
	str	r0, [sp]
.Ltmp156:
	.loc	4 500 7 is_stmt 1               @ rt-thread/components/net/lwip-2.0.2/src/core/ipv4/igmp.c:500:7
	ldr	r0, [sp]
.Ltmp157:
	.loc	4 500 7 is_stmt 0               @ rt-thread/components/net/lwip-2.0.2/src/core/ipv4/igmp.c:500:7
	cbz	r0, .LBB9_26
	b	.LBB9_19
.LBB9_19:
.Ltmp158:
	.loc	4 502 9 is_stmt 1               @ rt-thread/components/net/lwip-2.0.2/src/core/ipv4/igmp.c:502:9
	ldr	r0, [sp]
	.loc	4 502 16 is_stmt 0              @ rt-thread/components/net/lwip-2.0.2/src/core/ipv4/igmp.c:502:16
	ldrb	r0, [r0, #9]
.Ltmp159:
	.loc	4 502 9                         @ rt-thread/components/net/lwip-2.0.2/src/core/ipv4/igmp.c:502:9
	cbz	r0, .LBB9_21
	b	.LBB9_20
.LBB9_20:
.Ltmp160:
	.loc	4 504 5 is_stmt 1               @ rt-thread/components/net/lwip-2.0.2/src/core/ipv4/igmp.c:504:5
	b	.LBB9_25
.Ltmp161:
.LBB9_21:
	.loc	4 511 12                        @ rt-thread/components/net/lwip-2.0.2/src/core/ipv4/igmp.c:511:12
	ldr	r0, [sp]
	.loc	4 511 19 is_stmt 0              @ rt-thread/components/net/lwip-2.0.2/src/core/ipv4/igmp.c:511:19
	ldrb	r0, [r0, #12]
	.loc	4 511 27                        @ rt-thread/components/net/lwip-2.0.2/src/core/ipv4/igmp.c:511:27
	cbnz	r0, .LBB9_24
	b	.LBB9_22
.LBB9_22:
	.loc	4 511 31                        @ rt-thread/components/net/lwip-2.0.2/src/core/ipv4/igmp.c:511:31
	ldr	r0, [sp, #8]
	.loc	4 511 38                        @ rt-thread/components/net/lwip-2.0.2/src/core/ipv4/igmp.c:511:38
	ldr	r0, [r0, #72]
.Ltmp162:
	.loc	4 511 11                        @ rt-thread/components/net/lwip-2.0.2/src/core/ipv4/igmp.c:511:11
	cbz	r0, .LBB9_24
	b	.LBB9_23
.LBB9_23:
.Ltmp163:
	.loc	4 515 9 is_stmt 1               @ rt-thread/components/net/lwip-2.0.2/src/core/ipv4/igmp.c:515:9
	ldr	r0, [sp, #8]
	.loc	4 515 16 is_stmt 0              @ rt-thread/components/net/lwip-2.0.2/src/core/ipv4/igmp.c:515:16
	ldr	r3, [r0, #72]
	.loc	4 515 39                        @ rt-thread/components/net/lwip-2.0.2/src/core/ipv4/igmp.c:515:39
	ldr	r1, [sp, #4]
	movs	r2, #1
	.loc	4 515 9                         @ rt-thread/components/net/lwip-2.0.2/src/core/ipv4/igmp.c:515:9
	blx	r3
	.loc	4 516 7 is_stmt 1               @ rt-thread/components/net/lwip-2.0.2/src/core/ipv4/igmp.c:516:7
	b	.LBB9_24
.Ltmp164:
.LBB9_24:
	.loc	4 519 17                        @ rt-thread/components/net/lwip-2.0.2/src/core/ipv4/igmp.c:519:17
	ldr	r0, [sp, #8]
	.loc	4 519 24 is_stmt 0              @ rt-thread/components/net/lwip-2.0.2/src/core/ipv4/igmp.c:519:24
	ldr	r1, [sp]
	movs	r2, #22
	.loc	4 519 7                         @ rt-thread/components/net/lwip-2.0.2/src/core/ipv4/igmp.c:519:7
	bl	igmp_send
	.loc	4 521 24 is_stmt 1              @ rt-thread/components/net/lwip-2.0.2/src/core/ipv4/igmp.c:521:24
	ldr	r0, [sp]
	movs	r1, #5
	.loc	4 521 7 is_stmt 0               @ rt-thread/components/net/lwip-2.0.2/src/core/ipv4/igmp.c:521:7
	bl	igmp_start_timer
	.loc	4 524 7 is_stmt 1               @ rt-thread/components/net/lwip-2.0.2/src/core/ipv4/igmp.c:524:7
	ldr	r1, [sp]
	movs	r0, #1
	.loc	4 524 26 is_stmt 0              @ rt-thread/components/net/lwip-2.0.2/src/core/ipv4/igmp.c:524:26
	strb	r0, [r1, #9]
	b	.LBB9_25
.Ltmp165:
.LBB9_25:
	.loc	4 527 5 is_stmt 1               @ rt-thread/components/net/lwip-2.0.2/src/core/ipv4/igmp.c:527:5
	ldr	r1, [sp]
	.loc	4 527 15 is_stmt 0              @ rt-thread/components/net/lwip-2.0.2/src/core/ipv4/igmp.c:527:15
	ldrb	r0, [r1, #12]
	adds	r0, #1
	strb	r0, [r1, #12]
	movs	r0, #0
	.loc	4 529 5 is_stmt 1               @ rt-thread/components/net/lwip-2.0.2/src/core/ipv4/igmp.c:529:5
	strb.w	r0, [sp, #15]
	b	.LBB9_27
.Ltmp166:
.LBB9_26:
	.loc	4 0 5 is_stmt 0                 @ rt-thread/components/net/lwip-2.0.2/src/core/ipv4/igmp.c:0:5
	movs	r0, #255
.Ltmp167:
	.loc	4 532 5 is_stmt 1               @ rt-thread/components/net/lwip-2.0.2/src/core/ipv4/igmp.c:532:5
	strb.w	r0, [sp, #15]
	b	.LBB9_27
.Ltmp168:
.LBB9_27:
	.loc	4 534 1                         @ rt-thread/components/net/lwip-2.0.2/src/core/ipv4/igmp.c:534:1
	ldrsb.w	r0, [sp, #15]
	add	sp, #16
	pop	{r7, pc}
.Ltmp169:
.Lfunc_end9:
	.size	igmp_joingroup_netif, .Lfunc_end9-igmp_joingroup_netif
	.cfi_endproc
	.cantunwind
	.fnend
                                        @ -- End function
	.section	.text.igmp_send,"ax",%progbits
	.p2align	3                               @ -- Begin function igmp_send
	.type	igmp_send,%function
	.code	16                              @ @igmp_send
	.thumb_func
igmp_send:
.Lfunc_begin10:
	.loc	4 758 0                         @ rt-thread/components/net/lwip-2.0.2/src/core/ipv4/igmp.c:758:0
	.fnstart
	.cfi_startproc
@ %bb.0:
	.save	{r7, lr}
	push	{r7, lr}
	.cfi_def_cfa_offset 8
	.cfi_offset lr, -4
	.cfi_offset r7, -8
	.pad	#32
	sub	sp, #32
	.cfi_def_cfa_offset 40
                                        @ kill: def $r3 killed $r2
	str	r0, [sp, #28]
	str	r1, [sp, #24]
	strb.w	r2, [sp, #23]
	movs	r2, #0
.Ltmp170:
	.loc	4 759 20 prologue_end           @ rt-thread/components/net/lwip-2.0.2/src/core/ipv4/igmp.c:759:20
	str	r2, [sp, #16]
	.loc	4 760 20                        @ rt-thread/components/net/lwip-2.0.2/src/core/ipv4/igmp.c:760:20
	str	r2, [sp, #12]
	.loc	4 761 23                        @ rt-thread/components/net/lwip-2.0.2/src/core/ipv4/igmp.c:761:23
	movw	r0, :lower16:ip_addr_any
	movt	r0, :upper16:ip_addr_any
	ldr	r0, [r0]
	str	r0, [sp, #8]
	.loc	4 762 16                        @ rt-thread/components/net/lwip-2.0.2/src/core/ipv4/igmp.c:762:16
	str	r2, [sp, #4]
	movs	r1, #8
	.loc	4 765 7                         @ rt-thread/components/net/lwip-2.0.2/src/core/ipv4/igmp.c:765:7
	mov	r0, r2
	bl	pbuf_alloc
	.loc	4 765 5 is_stmt 0               @ rt-thread/components/net/lwip-2.0.2/src/core/ipv4/igmp.c:765:5
	str	r0, [sp, #16]
.Ltmp171:
	.loc	4 767 7 is_stmt 1               @ rt-thread/components/net/lwip-2.0.2/src/core/ipv4/igmp.c:767:7
	ldr	r0, [sp, #16]
.Ltmp172:
	.loc	4 767 7 is_stmt 0               @ rt-thread/components/net/lwip-2.0.2/src/core/ipv4/igmp.c:767:7
	cmp	r0, #0
	beq	.LBB10_16
	b	.LBB10_1
.LBB10_1:
.Ltmp173:
	.loc	4 768 31 is_stmt 1              @ rt-thread/components/net/lwip-2.0.2/src/core/ipv4/igmp.c:768:31
	ldr	r0, [sp, #16]
	.loc	4 768 34 is_stmt 0              @ rt-thread/components/net/lwip-2.0.2/src/core/ipv4/igmp.c:768:34
	ldr	r0, [r0, #4]
	.loc	4 768 10                        @ rt-thread/components/net/lwip-2.0.2/src/core/ipv4/igmp.c:768:10
	str	r0, [sp, #12]
	.loc	4 769 5 is_stmt 1               @ rt-thread/components/net/lwip-2.0.2/src/core/ipv4/igmp.c:769:5
	b	.LBB10_2
.LBB10_2:
.Ltmp174:
	.loc	4 769 5 is_stmt 0               @ rt-thread/components/net/lwip-2.0.2/src/core/ipv4/igmp.c:769:5
	ldr	r0, [sp, #16]
	ldrh	r0, [r0, #10]
.Ltmp175:
	.loc	4 769 5                         @ rt-thread/components/net/lwip-2.0.2/src/core/ipv4/igmp.c:769:5
	cmp	r0, #7
	bhi	.LBB10_6
	b	.LBB10_3
.LBB10_3:
.Ltmp176:
	.loc	4 769 5                         @ rt-thread/components/net/lwip-2.0.2/src/core/ipv4/igmp.c:769:5
	b	.LBB10_4
.LBB10_4:
.Ltmp177:
	.loc	4 769 5                         @ rt-thread/components/net/lwip-2.0.2/src/core/ipv4/igmp.c:769:5
	movw	r0, :lower16:.L.str.13
	movt	r0, :upper16:.L.str.13
	bl	rt_kprintf
	movw	r0, :lower16:.L.str.1
	movt	r0, :upper16:.L.str.1
	movw	r1, #770
	bl	sys_arch_assert
	b	.LBB10_5
.Ltmp178:
.LBB10_5:
	.loc	4 769 5                         @ rt-thread/components/net/lwip-2.0.2/src/core/ipv4/igmp.c:769:5
	b	.LBB10_6
.Ltmp179:
.LBB10_6:
	.loc	4 769 5                         @ rt-thread/components/net/lwip-2.0.2/src/core/ipv4/igmp.c:769:5
	b	.LBB10_7
.Ltmp180:
.LBB10_7:
	.loc	4 771 5 is_stmt 1               @ rt-thread/components/net/lwip-2.0.2/src/core/ipv4/igmp.c:771:5
	ldr	r0, [sp, #28]
	ldr	r0, [r0, #4]
	str	r0, [sp, #8]
.Ltmp181:
	.loc	4 773 9                         @ rt-thread/components/net/lwip-2.0.2/src/core/ipv4/igmp.c:773:9
	ldrb.w	r0, [sp, #23]
.Ltmp182:
	.loc	4 773 9 is_stmt 0               @ rt-thread/components/net/lwip-2.0.2/src/core/ipv4/igmp.c:773:9
	cmp	r0, #22
	bne	.LBB10_9
	b	.LBB10_8
.LBB10_8:
.Ltmp183:
	.loc	4 774 16 is_stmt 1              @ rt-thread/components/net/lwip-2.0.2/src/core/ipv4/igmp.c:774:16
	ldr	r0, [sp, #24]
	.loc	4 774 23 is_stmt 0              @ rt-thread/components/net/lwip-2.0.2/src/core/ipv4/igmp.c:774:23
	adds	r0, #4
	.loc	4 774 12                        @ rt-thread/components/net/lwip-2.0.2/src/core/ipv4/igmp.c:774:12
	str	r0, [sp, #4]
	.loc	4 775 7 is_stmt 1               @ rt-thread/components/net/lwip-2.0.2/src/core/ipv4/igmp.c:775:7
	ldr	r0, [sp, #24]
	ldr	r0, [r0, #4]
	ldr	r1, [sp, #12]
	str	r0, [r1, #4]
	.loc	4 776 7                         @ rt-thread/components/net/lwip-2.0.2/src/core/ipv4/igmp.c:776:7
	ldr	r1, [sp, #24]
	movs	r0, #1
	.loc	4 776 33 is_stmt 0              @ rt-thread/components/net/lwip-2.0.2/src/core/ipv4/igmp.c:776:33
	strb	r0, [r1, #8]
	.loc	4 777 5 is_stmt 1               @ rt-thread/components/net/lwip-2.0.2/src/core/ipv4/igmp.c:777:5
	b	.LBB10_12
.Ltmp184:
.LBB10_9:
	.loc	4 778 11                        @ rt-thread/components/net/lwip-2.0.2/src/core/ipv4/igmp.c:778:11
	ldrb.w	r0, [sp, #23]
.Ltmp185:
	.loc	4 778 11 is_stmt 0              @ rt-thread/components/net/lwip-2.0.2/src/core/ipv4/igmp.c:778:11
	cmp	r0, #23
	bne	.LBB10_11
	b	.LBB10_10
.LBB10_10:
.Ltmp186:
	.loc	4 779 14 is_stmt 1              @ rt-thread/components/net/lwip-2.0.2/src/core/ipv4/igmp.c:779:14
	movw	r0, :lower16:allrouters
	movt	r0, :upper16:allrouters
	str	r0, [sp, #4]
	.loc	4 780 9                         @ rt-thread/components/net/lwip-2.0.2/src/core/ipv4/igmp.c:780:9
	ldr	r0, [sp, #24]
	ldr	r0, [r0, #4]
	ldr	r1, [sp, #12]
	str	r0, [r1, #4]
	.loc	4 781 7                         @ rt-thread/components/net/lwip-2.0.2/src/core/ipv4/igmp.c:781:7
	b	.LBB10_11
.Ltmp187:
.LBB10_11:
	.loc	4 0 7 is_stmt 0                 @ rt-thread/components/net/lwip-2.0.2/src/core/ipv4/igmp.c:0:7
	b	.LBB10_12
.LBB10_12:
.Ltmp188:
	.loc	4 784 10 is_stmt 1              @ rt-thread/components/net/lwip-2.0.2/src/core/ipv4/igmp.c:784:10
	ldrb.w	r0, [sp, #23]
	.loc	4 784 39 is_stmt 0              @ rt-thread/components/net/lwip-2.0.2/src/core/ipv4/igmp.c:784:39
	cmp	r0, #22
	beq	.LBB10_14
	b	.LBB10_13
.LBB10_13:
	.loc	4 784 43                        @ rt-thread/components/net/lwip-2.0.2/src/core/ipv4/igmp.c:784:43
	ldrb.w	r0, [sp, #23]
.Ltmp189:
	.loc	4 784 9                         @ rt-thread/components/net/lwip-2.0.2/src/core/ipv4/igmp.c:784:9
	cmp	r0, #23
	bne	.LBB10_15
	b	.LBB10_14
.LBB10_14:
.Ltmp190:
	.loc	4 785 29 is_stmt 1              @ rt-thread/components/net/lwip-2.0.2/src/core/ipv4/igmp.c:785:29
	ldrb.w	r0, [sp, #23]
	.loc	4 785 7 is_stmt 0               @ rt-thread/components/net/lwip-2.0.2/src/core/ipv4/igmp.c:785:7
	ldr	r1, [sp, #12]
	.loc	4 785 27                        @ rt-thread/components/net/lwip-2.0.2/src/core/ipv4/igmp.c:785:27
	strb	r0, [r1]
	.loc	4 786 7 is_stmt 1               @ rt-thread/components/net/lwip-2.0.2/src/core/ipv4/igmp.c:786:7
	ldr	r1, [sp, #12]
	movs	r0, #0
	.loc	4 786 27 is_stmt 0              @ rt-thread/components/net/lwip-2.0.2/src/core/ipv4/igmp.c:786:27
	strb	r0, [r1, #1]
	.loc	4 787 7 is_stmt 1               @ rt-thread/components/net/lwip-2.0.2/src/core/ipv4/igmp.c:787:7
	ldr	r1, [sp, #12]
	.loc	4 787 27 is_stmt 0              @ rt-thread/components/net/lwip-2.0.2/src/core/ipv4/igmp.c:787:27
	strh	r0, [r1, #2]
	.loc	4 788 41 is_stmt 1              @ rt-thread/components/net/lwip-2.0.2/src/core/ipv4/igmp.c:788:41
	ldr	r0, [sp, #12]
	movs	r1, #8
	.loc	4 788 29 is_stmt 0              @ rt-thread/components/net/lwip-2.0.2/src/core/ipv4/igmp.c:788:29
	bl	inet_chksum
	.loc	4 788 7                         @ rt-thread/components/net/lwip-2.0.2/src/core/ipv4/igmp.c:788:7
	ldr	r1, [sp, #12]
	.loc	4 788 27                        @ rt-thread/components/net/lwip-2.0.2/src/core/ipv4/igmp.c:788:27
	strh	r0, [r1, #2]
	.loc	4 790 25 is_stmt 1              @ rt-thread/components/net/lwip-2.0.2/src/core/ipv4/igmp.c:790:25
	ldr	r0, [sp, #16]
	.loc	4 790 34 is_stmt 0              @ rt-thread/components/net/lwip-2.0.2/src/core/ipv4/igmp.c:790:34
	ldr	r2, [sp, #4]
	.loc	4 790 40                        @ rt-thread/components/net/lwip-2.0.2/src/core/ipv4/igmp.c:790:40
	ldr	r3, [sp, #28]
	add	r1, sp, #8
	.loc	4 790 7                         @ rt-thread/components/net/lwip-2.0.2/src/core/ipv4/igmp.c:790:7
	bl	igmp_ip_output_if
	.loc	4 791 5 is_stmt 1               @ rt-thread/components/net/lwip-2.0.2/src/core/ipv4/igmp.c:791:5
	b	.LBB10_15
.Ltmp191:
.LBB10_15:
	.loc	4 793 15                        @ rt-thread/components/net/lwip-2.0.2/src/core/ipv4/igmp.c:793:15
	ldr	r0, [sp, #16]
	.loc	4 793 5 is_stmt 0               @ rt-thread/components/net/lwip-2.0.2/src/core/ipv4/igmp.c:793:5
	bl	pbuf_free
	.loc	4 794 3 is_stmt 1               @ rt-thread/components/net/lwip-2.0.2/src/core/ipv4/igmp.c:794:3
	b	.LBB10_17
.Ltmp192:
.LBB10_16:
	.loc	4 0 3 is_stmt 0                 @ rt-thread/components/net/lwip-2.0.2/src/core/ipv4/igmp.c:0:3
	b	.LBB10_17
.LBB10_17:
	.loc	4 798 1 is_stmt 1               @ rt-thread/components/net/lwip-2.0.2/src/core/ipv4/igmp.c:798:1
	add	sp, #32
	pop	{r7, pc}
.Ltmp193:
.Lfunc_end10:
	.size	igmp_send, .Lfunc_end10-igmp_send
	.cfi_endproc
	.cantunwind
	.fnend
                                        @ -- End function
	.section	.text.igmp_start_timer,"ax",%progbits
	.p2align	3                               @ -- Begin function igmp_start_timer
	.type	igmp_start_timer,%function
	.code	16                              @ @igmp_start_timer
	.thumb_func
igmp_start_timer:
.Lfunc_begin11:
	.loc	4 692 0                         @ rt-thread/components/net/lwip-2.0.2/src/core/ipv4/igmp.c:692:0
	.fnstart
	.cfi_startproc
@ %bb.0:
	.save	{r7, lr}
	push	{r7, lr}
	.cfi_def_cfa_offset 8
	.cfi_offset lr, -4
	.cfi_offset r7, -8
	.pad	#16
	sub	sp, #16
	.cfi_def_cfa_offset 24
                                        @ kill: def $r2 killed $r1
	str	r0, [sp, #12]
	strb.w	r1, [sp, #11]
.Ltmp194:
	.loc	4 694 18 prologue_end           @ rt-thread/components/net/lwip-2.0.2/src/core/ipv4/igmp.c:694:18
	ldrb.w	r0, [sp, #11]
	cmp	r0, #3
	blt	.LBB11_2
	b	.LBB11_1
.LBB11_1:
	.loc	4 694 34 is_stmt 0              @ rt-thread/components/net/lwip-2.0.2/src/core/ipv4/igmp.c:694:34
	bl	rand
	mov	r2, r0
	.loc	4 694 48                        @ rt-thread/components/net/lwip-2.0.2/src/core/ipv4/igmp.c:694:48
	ldrb.w	r1, [sp, #11]
	.loc	4 694 46                        @ rt-thread/components/net/lwip-2.0.2/src/core/ipv4/igmp.c:694:46
	sdiv	r0, r2, r1
	mls	r0, r0, r1, r2
	.loc	4 694 18                        @ rt-thread/components/net/lwip-2.0.2/src/core/ipv4/igmp.c:694:18
	str	r0, [sp, #4]                    @ 4-byte Spill
	b	.LBB11_3
.LBB11_2:
	.loc	4 0 18                          @ rt-thread/components/net/lwip-2.0.2/src/core/ipv4/igmp.c:0:18
	movs	r0, #1
	.loc	4 694 18                        @ rt-thread/components/net/lwip-2.0.2/src/core/ipv4/igmp.c:694:18
	str	r0, [sp, #4]                    @ 4-byte Spill
	b	.LBB11_3
.LBB11_3:
	ldr	r0, [sp, #4]                    @ 4-byte Reload
	.loc	4 694 3                         @ rt-thread/components/net/lwip-2.0.2/src/core/ipv4/igmp.c:694:3
	ldr	r1, [sp, #12]
	.loc	4 694 16                        @ rt-thread/components/net/lwip-2.0.2/src/core/ipv4/igmp.c:694:16
	strh	r0, [r1, #10]
.Ltmp195:
	.loc	4 700 7 is_stmt 1               @ rt-thread/components/net/lwip-2.0.2/src/core/ipv4/igmp.c:700:7
	ldr	r0, [sp, #12]
	.loc	4 700 14 is_stmt 0              @ rt-thread/components/net/lwip-2.0.2/src/core/ipv4/igmp.c:700:14
	ldrh	r0, [r0, #10]
.Ltmp196:
	.loc	4 700 7                         @ rt-thread/components/net/lwip-2.0.2/src/core/ipv4/igmp.c:700:7
	cbnz	r0, .LBB11_5
	b	.LBB11_4
.LBB11_4:
.Ltmp197:
	.loc	4 701 5 is_stmt 1               @ rt-thread/components/net/lwip-2.0.2/src/core/ipv4/igmp.c:701:5
	ldr	r1, [sp, #12]
	movs	r0, #1
	.loc	4 701 18 is_stmt 0              @ rt-thread/components/net/lwip-2.0.2/src/core/ipv4/igmp.c:701:18
	strh	r0, [r1, #10]
	.loc	4 702 3 is_stmt 1               @ rt-thread/components/net/lwip-2.0.2/src/core/ipv4/igmp.c:702:3
	b	.LBB11_5
.Ltmp198:
.LBB11_5:
	.loc	4 703 1                         @ rt-thread/components/net/lwip-2.0.2/src/core/ipv4/igmp.c:703:1
	add	sp, #16
	pop	{r7, pc}
.Ltmp199:
.Lfunc_end11:
	.size	igmp_start_timer, .Lfunc_end11-igmp_start_timer
	.cfi_endproc
	.cantunwind
	.fnend
                                        @ -- End function
	.section	.text.igmp_leavegroup,"ax",%progbits
	.hidden	igmp_leavegroup                 @ -- Begin function igmp_leavegroup
	.globl	igmp_leavegroup
	.p2align	3
	.type	igmp_leavegroup,%function
	.code	16                              @ @igmp_leavegroup
	.thumb_func
igmp_leavegroup:
.Lfunc_begin12:
	.loc	4 546 0                         @ rt-thread/components/net/lwip-2.0.2/src/core/ipv4/igmp.c:546:0
	.fnstart
	.cfi_startproc
@ %bb.0:
	.save	{r7, lr}
	push	{r7, lr}
	.cfi_def_cfa_offset 8
	.cfi_offset lr, -4
	.cfi_offset r7, -8
	.pad	#24
	sub	sp, #24
	.cfi_def_cfa_offset 32
	str	r0, [sp, #16]
	str	r1, [sp, #12]
	movs	r0, #250
.Ltmp200:
	.loc	4 547 9 prologue_end            @ rt-thread/components/net/lwip-2.0.2/src/core/ipv4/igmp.c:547:9
	strb.w	r0, [sp, #11]
	.loc	4 551 3                         @ rt-thread/components/net/lwip-2.0.2/src/core/ipv4/igmp.c:551:3
	b	.LBB12_1
.LBB12_1:
.Ltmp201:
	.loc	4 551 3 is_stmt 0               @ rt-thread/components/net/lwip-2.0.2/src/core/ipv4/igmp.c:551:3
	ldr	r0, [sp, #12]
	ldr	r0, [r0]
	and	r0, r0, #240
.Ltmp202:
	.loc	4 551 3                         @ rt-thread/components/net/lwip-2.0.2/src/core/ipv4/igmp.c:551:3
	cmp	r0, #224
	beq	.LBB12_5
	b	.LBB12_2
.LBB12_2:
.Ltmp203:
	.loc	4 551 3                         @ rt-thread/components/net/lwip-2.0.2/src/core/ipv4/igmp.c:551:3
	b	.LBB12_3
.LBB12_3:
.Ltmp204:
	.loc	4 551 3                         @ rt-thread/components/net/lwip-2.0.2/src/core/ipv4/igmp.c:551:3
	movw	r0, :lower16:.L.str.6
	movt	r0, :upper16:.L.str.6
	bl	rt_kprintf
	movw	r0, :lower16:.L.str.1
	movt	r0, :upper16:.L.str.1
	movw	r1, #551
	bl	sys_arch_assert
	b	.LBB12_4
.Ltmp205:
.LBB12_4:
	.loc	4 0 3                           @ rt-thread/components/net/lwip-2.0.2/src/core/ipv4/igmp.c:0:3
	movs	r0, #250
	.loc	4 551 3                         @ rt-thread/components/net/lwip-2.0.2/src/core/ipv4/igmp.c:551:3
	strb.w	r0, [sp, #23]
	b	.LBB12_23
.Ltmp206:
.LBB12_5:
	.loc	4 551 3                         @ rt-thread/components/net/lwip-2.0.2/src/core/ipv4/igmp.c:551:3
	b	.LBB12_6
.Ltmp207:
.LBB12_6:
	.loc	4 552 3 is_stmt 1               @ rt-thread/components/net/lwip-2.0.2/src/core/ipv4/igmp.c:552:3
	b	.LBB12_7
.LBB12_7:
.Ltmp208:
	.loc	4 552 3 is_stmt 0               @ rt-thread/components/net/lwip-2.0.2/src/core/ipv4/igmp.c:552:3
	ldr	r0, [sp, #12]
	ldr	r0, [r0]
	movw	r1, :lower16:allsystems
	movt	r1, :upper16:allsystems
	ldr	r1, [r1]
.Ltmp209:
	.loc	4 552 3                         @ rt-thread/components/net/lwip-2.0.2/src/core/ipv4/igmp.c:552:3
	cmp	r0, r1
	bne	.LBB12_11
	b	.LBB12_8
.LBB12_8:
.Ltmp210:
	.loc	4 552 3                         @ rt-thread/components/net/lwip-2.0.2/src/core/ipv4/igmp.c:552:3
	b	.LBB12_9
.LBB12_9:
.Ltmp211:
	.loc	4 552 3                         @ rt-thread/components/net/lwip-2.0.2/src/core/ipv4/igmp.c:552:3
	movw	r0, :lower16:.L.str.7
	movt	r0, :upper16:.L.str.7
	bl	rt_kprintf
	movw	r0, :lower16:.L.str.1
	movt	r0, :upper16:.L.str.1
	mov.w	r1, #552
	bl	sys_arch_assert
	b	.LBB12_10
.Ltmp212:
.LBB12_10:
	.loc	4 0 3                           @ rt-thread/components/net/lwip-2.0.2/src/core/ipv4/igmp.c:0:3
	movs	r0, #250
	.loc	4 552 3                         @ rt-thread/components/net/lwip-2.0.2/src/core/ipv4/igmp.c:552:3
	strb.w	r0, [sp, #23]
	b	.LBB12_23
.Ltmp213:
.LBB12_11:
	.loc	4 552 3                         @ rt-thread/components/net/lwip-2.0.2/src/core/ipv4/igmp.c:552:3
	b	.LBB12_12
.Ltmp214:
.LBB12_12:
	.loc	4 555 11 is_stmt 1              @ rt-thread/components/net/lwip-2.0.2/src/core/ipv4/igmp.c:555:11
	movw	r0, :lower16:netif_list
	movt	r0, :upper16:netif_list
	ldr	r0, [r0]
	.loc	4 555 9 is_stmt 0               @ rt-thread/components/net/lwip-2.0.2/src/core/ipv4/igmp.c:555:9
	str	r0, [sp, #4]
	.loc	4 556 3 is_stmt 1               @ rt-thread/components/net/lwip-2.0.2/src/core/ipv4/igmp.c:556:3
	b	.LBB12_13
.LBB12_13:                              @ =>This Inner Loop Header: Depth=1
	.loc	4 556 10 is_stmt 0              @ rt-thread/components/net/lwip-2.0.2/src/core/ipv4/igmp.c:556:10
	ldr	r0, [sp, #4]
	.loc	4 556 3                         @ rt-thread/components/net/lwip-2.0.2/src/core/ipv4/igmp.c:556:3
	cbz	r0, .LBB12_22
	b	.LBB12_14
.LBB12_14:                              @   in Loop: Header=BB12_13 Depth=1
.Ltmp215:
	.loc	4 558 10 is_stmt 1              @ rt-thread/components/net/lwip-2.0.2/src/core/ipv4/igmp.c:558:10
	ldr	r0, [sp, #4]
	ldrb.w	r0, [r0, #65]
	.loc	4 558 42 is_stmt 0              @ rt-thread/components/net/lwip-2.0.2/src/core/ipv4/igmp.c:558:42
	lsls	r0, r0, #26
	cmp	r0, #0
	bpl	.LBB12_21
	b	.LBB12_15
.LBB12_15:                              @   in Loop: Header=BB12_13 Depth=1
	.loc	4 558 47                        @ rt-thread/components/net/lwip-2.0.2/src/core/ipv4/igmp.c:558:47
	ldr	r0, [sp, #16]
	cbz	r0, .LBB12_18
	b	.LBB12_16
.LBB12_16:                              @   in Loop: Header=BB12_13 Depth=1
	ldr	r0, [sp, #16]
	ldr	r0, [r0]
	.loc	4 558 70                        @ rt-thread/components/net/lwip-2.0.2/src/core/ipv4/igmp.c:558:70
	cbz	r0, .LBB12_18
	b	.LBB12_17
.LBB12_17:                              @   in Loop: Header=BB12_13 Depth=1
	.loc	4 558 73                        @ rt-thread/components/net/lwip-2.0.2/src/core/ipv4/igmp.c:558:73
	ldr	r0, [sp, #4]
	ldr	r0, [r0, #4]
	ldr	r1, [sp, #16]
	ldr	r1, [r1]
.Ltmp216:
	.loc	4 558 9                         @ rt-thread/components/net/lwip-2.0.2/src/core/ipv4/igmp.c:558:9
	cmp	r0, r1
	bne	.LBB12_21
	b	.LBB12_18
.LBB12_18:                              @   in Loop: Header=BB12_13 Depth=1
.Ltmp217:
	.loc	4 559 41 is_stmt 1              @ rt-thread/components/net/lwip-2.0.2/src/core/ipv4/igmp.c:559:41
	ldr	r0, [sp, #4]
	.loc	4 559 48 is_stmt 0              @ rt-thread/components/net/lwip-2.0.2/src/core/ipv4/igmp.c:559:48
	ldr	r1, [sp, #12]
	.loc	4 559 19                        @ rt-thread/components/net/lwip-2.0.2/src/core/ipv4/igmp.c:559:19
	bl	igmp_leavegroup_netif
	.loc	4 559 13                        @ rt-thread/components/net/lwip-2.0.2/src/core/ipv4/igmp.c:559:13
	strb.w	r0, [sp, #3]
.Ltmp218:
	.loc	4 560 11 is_stmt 1              @ rt-thread/components/net/lwip-2.0.2/src/core/ipv4/igmp.c:560:11
	ldrsb.w	r0, [sp, #11]
.Ltmp219:
	.loc	4 560 11 is_stmt 0              @ rt-thread/components/net/lwip-2.0.2/src/core/ipv4/igmp.c:560:11
	cbz	r0, .LBB12_20
	b	.LBB12_19
.LBB12_19:                              @   in Loop: Header=BB12_13 Depth=1
.Ltmp220:
	.loc	4 562 15 is_stmt 1              @ rt-thread/components/net/lwip-2.0.2/src/core/ipv4/igmp.c:562:15
	ldrb.w	r0, [sp, #3]
	.loc	4 562 13 is_stmt 0              @ rt-thread/components/net/lwip-2.0.2/src/core/ipv4/igmp.c:562:13
	strb.w	r0, [sp, #11]
	.loc	4 563 7 is_stmt 1               @ rt-thread/components/net/lwip-2.0.2/src/core/ipv4/igmp.c:563:7
	b	.LBB12_20
.Ltmp221:
.LBB12_20:                              @   in Loop: Header=BB12_13 Depth=1
	.loc	4 564 5                         @ rt-thread/components/net/lwip-2.0.2/src/core/ipv4/igmp.c:564:5
	b	.LBB12_21
.Ltmp222:
.LBB12_21:                              @   in Loop: Header=BB12_13 Depth=1
	.loc	4 566 13                        @ rt-thread/components/net/lwip-2.0.2/src/core/ipv4/igmp.c:566:13
	ldr	r0, [sp, #4]
	.loc	4 566 20 is_stmt 0              @ rt-thread/components/net/lwip-2.0.2/src/core/ipv4/igmp.c:566:20
	ldr	r0, [r0]
	.loc	4 566 11                        @ rt-thread/components/net/lwip-2.0.2/src/core/ipv4/igmp.c:566:11
	str	r0, [sp, #4]
.Ltmp223:
	.loc	4 556 3 is_stmt 1               @ rt-thread/components/net/lwip-2.0.2/src/core/ipv4/igmp.c:556:3
	b	.LBB12_13
.LBB12_22:
	.loc	4 569 10                        @ rt-thread/components/net/lwip-2.0.2/src/core/ipv4/igmp.c:569:10
	ldrb.w	r0, [sp, #11]
	.loc	4 569 3 is_stmt 0               @ rt-thread/components/net/lwip-2.0.2/src/core/ipv4/igmp.c:569:3
	strb.w	r0, [sp, #23]
	b	.LBB12_23
.LBB12_23:
	.loc	4 570 1 is_stmt 1               @ rt-thread/components/net/lwip-2.0.2/src/core/ipv4/igmp.c:570:1
	ldrsb.w	r0, [sp, #23]
	add	sp, #24
	pop	{r7, pc}
.Ltmp224:
.Lfunc_end12:
	.size	igmp_leavegroup, .Lfunc_end12-igmp_leavegroup
	.cfi_endproc
	.cantunwind
	.fnend
                                        @ -- End function
	.section	.text.igmp_leavegroup_netif,"ax",%progbits
	.hidden	igmp_leavegroup_netif           @ -- Begin function igmp_leavegroup_netif
	.globl	igmp_leavegroup_netif
	.p2align	3
	.type	igmp_leavegroup_netif,%function
	.code	16                              @ @igmp_leavegroup_netif
	.thumb_func
igmp_leavegroup_netif:
.Lfunc_begin13:
	.loc	4 582 0                         @ rt-thread/components/net/lwip-2.0.2/src/core/ipv4/igmp.c:582:0
	.fnstart
	.cfi_startproc
@ %bb.0:
	.save	{r7, lr}
	push	{r7, lr}
	.cfi_def_cfa_offset 8
	.cfi_offset lr, -4
	.cfi_offset r7, -8
	.pad	#16
	sub	sp, #16
	.cfi_def_cfa_offset 24
	str	r0, [sp, #8]
	str	r1, [sp, #4]
.Ltmp225:
	.loc	4 586 3 prologue_end            @ rt-thread/components/net/lwip-2.0.2/src/core/ipv4/igmp.c:586:3
	b	.LBB13_1
.LBB13_1:
.Ltmp226:
	.loc	4 586 3 is_stmt 0               @ rt-thread/components/net/lwip-2.0.2/src/core/ipv4/igmp.c:586:3
	ldr	r0, [sp, #4]
	ldr	r0, [r0]
	and	r0, r0, #240
.Ltmp227:
	.loc	4 586 3                         @ rt-thread/components/net/lwip-2.0.2/src/core/ipv4/igmp.c:586:3
	cmp	r0, #224
	beq	.LBB13_5
	b	.LBB13_2
.LBB13_2:
.Ltmp228:
	.loc	4 586 3                         @ rt-thread/components/net/lwip-2.0.2/src/core/ipv4/igmp.c:586:3
	b	.LBB13_3
.LBB13_3:
.Ltmp229:
	.loc	4 586 3                         @ rt-thread/components/net/lwip-2.0.2/src/core/ipv4/igmp.c:586:3
	movw	r0, :lower16:.L.str.8
	movt	r0, :upper16:.L.str.8
	bl	rt_kprintf
	movw	r0, :lower16:.L.str.1
	movt	r0, :upper16:.L.str.1
	movw	r1, #586
	bl	sys_arch_assert
	b	.LBB13_4
.Ltmp230:
.LBB13_4:
	.loc	4 0 3                           @ rt-thread/components/net/lwip-2.0.2/src/core/ipv4/igmp.c:0:3
	movs	r0, #250
	.loc	4 586 3                         @ rt-thread/components/net/lwip-2.0.2/src/core/ipv4/igmp.c:586:3
	strb.w	r0, [sp, #15]
	b	.LBB13_28
.Ltmp231:
.LBB13_5:
	.loc	4 586 3                         @ rt-thread/components/net/lwip-2.0.2/src/core/ipv4/igmp.c:586:3
	b	.LBB13_6
.Ltmp232:
.LBB13_6:
	.loc	4 587 3 is_stmt 1               @ rt-thread/components/net/lwip-2.0.2/src/core/ipv4/igmp.c:587:3
	b	.LBB13_7
.LBB13_7:
.Ltmp233:
	.loc	4 587 3 is_stmt 0               @ rt-thread/components/net/lwip-2.0.2/src/core/ipv4/igmp.c:587:3
	ldr	r0, [sp, #4]
	ldr	r0, [r0]
	movw	r1, :lower16:allsystems
	movt	r1, :upper16:allsystems
	ldr	r1, [r1]
.Ltmp234:
	.loc	4 587 3                         @ rt-thread/components/net/lwip-2.0.2/src/core/ipv4/igmp.c:587:3
	cmp	r0, r1
	bne	.LBB13_11
	b	.LBB13_8
.LBB13_8:
.Ltmp235:
	.loc	4 587 3                         @ rt-thread/components/net/lwip-2.0.2/src/core/ipv4/igmp.c:587:3
	b	.LBB13_9
.LBB13_9:
.Ltmp236:
	.loc	4 587 3                         @ rt-thread/components/net/lwip-2.0.2/src/core/ipv4/igmp.c:587:3
	movw	r0, :lower16:.L.str.9
	movt	r0, :upper16:.L.str.9
	bl	rt_kprintf
	movw	r0, :lower16:.L.str.1
	movt	r0, :upper16:.L.str.1
	movw	r1, #587
	bl	sys_arch_assert
	b	.LBB13_10
.Ltmp237:
.LBB13_10:
	.loc	4 0 3                           @ rt-thread/components/net/lwip-2.0.2/src/core/ipv4/igmp.c:0:3
	movs	r0, #250
	.loc	4 587 3                         @ rt-thread/components/net/lwip-2.0.2/src/core/ipv4/igmp.c:587:3
	strb.w	r0, [sp, #15]
	b	.LBB13_28
.Ltmp238:
.LBB13_11:
	.loc	4 587 3                         @ rt-thread/components/net/lwip-2.0.2/src/core/ipv4/igmp.c:587:3
	b	.LBB13_12
.Ltmp239:
.LBB13_12:
	.loc	4 590 3 is_stmt 1               @ rt-thread/components/net/lwip-2.0.2/src/core/ipv4/igmp.c:590:3
	b	.LBB13_13
.LBB13_13:
.Ltmp240:
	.loc	4 590 3 is_stmt 0               @ rt-thread/components/net/lwip-2.0.2/src/core/ipv4/igmp.c:590:3
	ldr	r0, [sp, #8]
	ldrb.w	r0, [r0, #65]
.Ltmp241:
	.loc	4 590 3                         @ rt-thread/components/net/lwip-2.0.2/src/core/ipv4/igmp.c:590:3
	lsls	r0, r0, #26
	cmp	r0, #0
	bmi	.LBB13_17
	b	.LBB13_14
.LBB13_14:
.Ltmp242:
	.loc	4 590 3                         @ rt-thread/components/net/lwip-2.0.2/src/core/ipv4/igmp.c:590:3
	b	.LBB13_15
.LBB13_15:
.Ltmp243:
	.loc	4 590 3                         @ rt-thread/components/net/lwip-2.0.2/src/core/ipv4/igmp.c:590:3
	movw	r0, :lower16:.L.str.10
	movt	r0, :upper16:.L.str.10
	bl	rt_kprintf
	movw	r0, :lower16:.L.str.1
	movt	r0, :upper16:.L.str.1
	movw	r1, #590
	bl	sys_arch_assert
	b	.LBB13_16
.Ltmp244:
.LBB13_16:
	.loc	4 0 3                           @ rt-thread/components/net/lwip-2.0.2/src/core/ipv4/igmp.c:0:3
	movs	r0, #250
	.loc	4 590 3                         @ rt-thread/components/net/lwip-2.0.2/src/core/ipv4/igmp.c:590:3
	strb.w	r0, [sp, #15]
	b	.LBB13_28
.Ltmp245:
.LBB13_17:
	.loc	4 590 3                         @ rt-thread/components/net/lwip-2.0.2/src/core/ipv4/igmp.c:590:3
	b	.LBB13_18
.Ltmp246:
.LBB13_18:
	.loc	4 593 30 is_stmt 1              @ rt-thread/components/net/lwip-2.0.2/src/core/ipv4/igmp.c:593:30
	ldr	r0, [sp, #8]
	.loc	4 593 37 is_stmt 0              @ rt-thread/components/net/lwip-2.0.2/src/core/ipv4/igmp.c:593:37
	ldr	r1, [sp, #4]
	.loc	4 593 11                        @ rt-thread/components/net/lwip-2.0.2/src/core/ipv4/igmp.c:593:11
	bl	igmp_lookfor_group
	.loc	4 593 9                         @ rt-thread/components/net/lwip-2.0.2/src/core/ipv4/igmp.c:593:9
	str	r0, [sp]
.Ltmp247:
	.loc	4 595 7 is_stmt 1               @ rt-thread/components/net/lwip-2.0.2/src/core/ipv4/igmp.c:595:7
	ldr	r0, [sp]
.Ltmp248:
	.loc	4 595 7 is_stmt 0               @ rt-thread/components/net/lwip-2.0.2/src/core/ipv4/igmp.c:595:7
	cbz	r0, .LBB13_27
	b	.LBB13_19
.LBB13_19:
.Ltmp249:
	.loc	4 602 9 is_stmt 1               @ rt-thread/components/net/lwip-2.0.2/src/core/ipv4/igmp.c:602:9
	ldr	r0, [sp]
	.loc	4 602 16 is_stmt 0              @ rt-thread/components/net/lwip-2.0.2/src/core/ipv4/igmp.c:602:16
	ldrb	r0, [r0, #12]
.Ltmp250:
	.loc	4 602 9                         @ rt-thread/components/net/lwip-2.0.2/src/core/ipv4/igmp.c:602:9
	cmp	r0, #1
	bgt	.LBB13_25
	b	.LBB13_20
.LBB13_20:
.Ltmp251:
	.loc	4 604 25 is_stmt 1              @ rt-thread/components/net/lwip-2.0.2/src/core/ipv4/igmp.c:604:25
	ldr	r0, [sp, #8]
	.loc	4 604 32 is_stmt 0              @ rt-thread/components/net/lwip-2.0.2/src/core/ipv4/igmp.c:604:32
	ldr	r1, [sp]
	.loc	4 604 7                         @ rt-thread/components/net/lwip-2.0.2/src/core/ipv4/igmp.c:604:7
	bl	igmp_remove_group
.Ltmp252:
	.loc	4 607 11 is_stmt 1              @ rt-thread/components/net/lwip-2.0.2/src/core/ipv4/igmp.c:607:11
	ldr	r0, [sp]
	.loc	4 607 18 is_stmt 0              @ rt-thread/components/net/lwip-2.0.2/src/core/ipv4/igmp.c:607:18
	ldrb	r0, [r0, #8]
.Ltmp253:
	.loc	4 607 11                        @ rt-thread/components/net/lwip-2.0.2/src/core/ipv4/igmp.c:607:11
	cbz	r0, .LBB13_22
	b	.LBB13_21
.LBB13_21:
.Ltmp254:
	.loc	4 610 19 is_stmt 1              @ rt-thread/components/net/lwip-2.0.2/src/core/ipv4/igmp.c:610:19
	ldr	r0, [sp, #8]
	.loc	4 610 26 is_stmt 0              @ rt-thread/components/net/lwip-2.0.2/src/core/ipv4/igmp.c:610:26
	ldr	r1, [sp]
	movs	r2, #23
	.loc	4 610 9                         @ rt-thread/components/net/lwip-2.0.2/src/core/ipv4/igmp.c:610:9
	bl	igmp_send
	.loc	4 611 7 is_stmt 1               @ rt-thread/components/net/lwip-2.0.2/src/core/ipv4/igmp.c:611:7
	b	.LBB13_22
.Ltmp255:
.LBB13_22:
	.loc	4 614 11                        @ rt-thread/components/net/lwip-2.0.2/src/core/ipv4/igmp.c:614:11
	ldr	r0, [sp, #8]
	.loc	4 614 18 is_stmt 0              @ rt-thread/components/net/lwip-2.0.2/src/core/ipv4/igmp.c:614:18
	ldr	r0, [r0, #72]
.Ltmp256:
	.loc	4 614 11                        @ rt-thread/components/net/lwip-2.0.2/src/core/ipv4/igmp.c:614:11
	cbz	r0, .LBB13_24
	b	.LBB13_23
.LBB13_23:
.Ltmp257:
	.loc	4 618 9 is_stmt 1               @ rt-thread/components/net/lwip-2.0.2/src/core/ipv4/igmp.c:618:9
	ldr	r0, [sp, #8]
	.loc	4 618 16 is_stmt 0              @ rt-thread/components/net/lwip-2.0.2/src/core/ipv4/igmp.c:618:16
	ldr	r3, [r0, #72]
	.loc	4 618 39                        @ rt-thread/components/net/lwip-2.0.2/src/core/ipv4/igmp.c:618:39
	ldr	r1, [sp, #4]
	movs	r2, #0
	.loc	4 618 9                         @ rt-thread/components/net/lwip-2.0.2/src/core/ipv4/igmp.c:618:9
	blx	r3
	.loc	4 619 7 is_stmt 1               @ rt-thread/components/net/lwip-2.0.2/src/core/ipv4/igmp.c:619:7
	b	.LBB13_24
.Ltmp258:
.LBB13_24:
	.loc	4 622 34                        @ rt-thread/components/net/lwip-2.0.2/src/core/ipv4/igmp.c:622:34
	ldr	r1, [sp]
	movs	r0, #10
	.loc	4 622 7 is_stmt 0               @ rt-thread/components/net/lwip-2.0.2/src/core/ipv4/igmp.c:622:7
	bl	memp_free
	.loc	4 623 5 is_stmt 1               @ rt-thread/components/net/lwip-2.0.2/src/core/ipv4/igmp.c:623:5
	b	.LBB13_26
.Ltmp259:
.LBB13_25:
	.loc	4 625 7                         @ rt-thread/components/net/lwip-2.0.2/src/core/ipv4/igmp.c:625:7
	ldr	r1, [sp]
	.loc	4 625 17 is_stmt 0              @ rt-thread/components/net/lwip-2.0.2/src/core/ipv4/igmp.c:625:17
	ldrb	r0, [r1, #12]
	subs	r0, #1
	strb	r0, [r1, #12]
	b	.LBB13_26
.Ltmp260:
.LBB13_26:
	.loc	4 0 17                          @ rt-thread/components/net/lwip-2.0.2/src/core/ipv4/igmp.c:0:17
	movs	r0, #0
	.loc	4 627 5 is_stmt 1               @ rt-thread/components/net/lwip-2.0.2/src/core/ipv4/igmp.c:627:5
	strb.w	r0, [sp, #15]
	b	.LBB13_28
.Ltmp261:
.LBB13_27:
	.loc	4 0 5 is_stmt 0                 @ rt-thread/components/net/lwip-2.0.2/src/core/ipv4/igmp.c:0:5
	movs	r0, #250
.Ltmp262:
	.loc	4 630 5 is_stmt 1               @ rt-thread/components/net/lwip-2.0.2/src/core/ipv4/igmp.c:630:5
	strb.w	r0, [sp, #15]
	b	.LBB13_28
.Ltmp263:
.LBB13_28:
	.loc	4 632 1                         @ rt-thread/components/net/lwip-2.0.2/src/core/ipv4/igmp.c:632:1
	ldrsb.w	r0, [sp, #15]
	add	sp, #16
	pop	{r7, pc}
.Ltmp264:
.Lfunc_end13:
	.size	igmp_leavegroup_netif, .Lfunc_end13-igmp_leavegroup_netif
	.cfi_endproc
	.cantunwind
	.fnend
                                        @ -- End function
	.section	.text.igmp_remove_group,"ax",%progbits
	.p2align	3                               @ -- Begin function igmp_remove_group
	.type	igmp_remove_group,%function
	.code	16                              @ @igmp_remove_group
	.thumb_func
igmp_remove_group:
.Lfunc_begin14:
	.loc	4 296 0                         @ rt-thread/components/net/lwip-2.0.2/src/core/ipv4/igmp.c:296:0
	.fnstart
	.cfi_startproc
@ %bb.0:
	.pad	#16
	sub	sp, #16
	.cfi_def_cfa_offset 16
	str	r0, [sp, #12]
	str	r1, [sp, #8]
	movs	r0, #0
.Ltmp265:
	.loc	4 297 9 prologue_end            @ rt-thread/components/net/lwip-2.0.2/src/core/ipv4/igmp.c:297:9
	strb.w	r0, [sp, #7]
.Ltmp266:
	.loc	4 301 20                        @ rt-thread/components/net/lwip-2.0.2/src/core/ipv4/igmp.c:301:20
	ldr	r0, [sp, #12]
	ldr	r0, [r0, #44]
	.loc	4 301 18 is_stmt 0              @ rt-thread/components/net/lwip-2.0.2/src/core/ipv4/igmp.c:301:18
	str	r0, [sp]
	.loc	4 301 8                         @ rt-thread/components/net/lwip-2.0.2/src/core/ipv4/igmp.c:301:8
	b	.LBB14_1
.LBB14_1:                               @ =>This Inner Loop Header: Depth=1
.Ltmp267:
	.loc	4 301 44                        @ rt-thread/components/net/lwip-2.0.2/src/core/ipv4/igmp.c:301:44
	ldr	r0, [sp]
.Ltmp268:
	.loc	4 301 3                         @ rt-thread/components/net/lwip-2.0.2/src/core/ipv4/igmp.c:301:3
	cbz	r0, .LBB14_6
	b	.LBB14_2
.LBB14_2:                               @   in Loop: Header=BB14_1 Depth=1
.Ltmp269:
	.loc	4 302 9 is_stmt 1               @ rt-thread/components/net/lwip-2.0.2/src/core/ipv4/igmp.c:302:9
	ldr	r0, [sp]
	.loc	4 302 20 is_stmt 0              @ rt-thread/components/net/lwip-2.0.2/src/core/ipv4/igmp.c:302:20
	ldr	r0, [r0]
	.loc	4 302 28                        @ rt-thread/components/net/lwip-2.0.2/src/core/ipv4/igmp.c:302:28
	ldr	r1, [sp, #8]
.Ltmp270:
	.loc	4 302 9                         @ rt-thread/components/net/lwip-2.0.2/src/core/ipv4/igmp.c:302:9
	cmp	r0, r1
	bne	.LBB14_4
	b	.LBB14_3
.LBB14_3:
.Ltmp271:
	.loc	4 303 25 is_stmt 1              @ rt-thread/components/net/lwip-2.0.2/src/core/ipv4/igmp.c:303:25
	ldr	r0, [sp, #8]
	.loc	4 303 32 is_stmt 0              @ rt-thread/components/net/lwip-2.0.2/src/core/ipv4/igmp.c:303:32
	ldr	r0, [r0]
	.loc	4 303 7                         @ rt-thread/components/net/lwip-2.0.2/src/core/ipv4/igmp.c:303:7
	ldr	r1, [sp]
	.loc	4 303 23                        @ rt-thread/components/net/lwip-2.0.2/src/core/ipv4/igmp.c:303:23
	str	r0, [r1]
	.loc	4 304 7 is_stmt 1               @ rt-thread/components/net/lwip-2.0.2/src/core/ipv4/igmp.c:304:7
	b	.LBB14_6
.Ltmp272:
.LBB14_4:                               @   in Loop: Header=BB14_1 Depth=1
	.loc	4 306 3                         @ rt-thread/components/net/lwip-2.0.2/src/core/ipv4/igmp.c:306:3
	b	.LBB14_5
.Ltmp273:
.LBB14_5:                               @   in Loop: Header=BB14_1 Depth=1
	.loc	4 301 75                        @ rt-thread/components/net/lwip-2.0.2/src/core/ipv4/igmp.c:301:75
	ldr	r0, [sp]
	.loc	4 301 86 is_stmt 0              @ rt-thread/components/net/lwip-2.0.2/src/core/ipv4/igmp.c:301:86
	ldr	r0, [r0]
	.loc	4 301 73                        @ rt-thread/components/net/lwip-2.0.2/src/core/ipv4/igmp.c:301:73
	str	r0, [sp]
	.loc	4 301 3                         @ rt-thread/components/net/lwip-2.0.2/src/core/ipv4/igmp.c:301:3
	b	.LBB14_1
.Ltmp274:
.LBB14_6:
	.loc	4 308 7 is_stmt 1               @ rt-thread/components/net/lwip-2.0.2/src/core/ipv4/igmp.c:308:7
	ldr	r0, [sp]
.Ltmp275:
	.loc	4 308 7 is_stmt 0               @ rt-thread/components/net/lwip-2.0.2/src/core/ipv4/igmp.c:308:7
	cbnz	r0, .LBB14_8
	b	.LBB14_7
.LBB14_7:
	.loc	4 0 7                           @ rt-thread/components/net/lwip-2.0.2/src/core/ipv4/igmp.c:0:7
	movs	r0, #240
.Ltmp276:
	.loc	4 309 9 is_stmt 1               @ rt-thread/components/net/lwip-2.0.2/src/core/ipv4/igmp.c:309:9
	strb.w	r0, [sp, #7]
	.loc	4 310 3                         @ rt-thread/components/net/lwip-2.0.2/src/core/ipv4/igmp.c:310:3
	b	.LBB14_8
.Ltmp277:
.LBB14_8:
	.loc	4 312 10                        @ rt-thread/components/net/lwip-2.0.2/src/core/ipv4/igmp.c:312:10
	ldrsb.w	r0, [sp, #7]
	.loc	4 312 3 is_stmt 0               @ rt-thread/components/net/lwip-2.0.2/src/core/ipv4/igmp.c:312:3
	add	sp, #16
	bx	lr
.Ltmp278:
.Lfunc_end14:
	.size	igmp_remove_group, .Lfunc_end14-igmp_remove_group
	.cfi_endproc
	.cantunwind
	.fnend
                                        @ -- End function
	.section	.text.igmp_tmr,"ax",%progbits
	.hidden	igmp_tmr                        @ -- Begin function igmp_tmr
	.globl	igmp_tmr
	.p2align	3
	.type	igmp_tmr,%function
	.code	16                              @ @igmp_tmr
	.thumb_func
igmp_tmr:
.Lfunc_begin15:
	.loc	4 640 0 is_stmt 1               @ rt-thread/components/net/lwip-2.0.2/src/core/ipv4/igmp.c:640:0
	.fnstart
	.cfi_startproc
@ %bb.0:
	.save	{r7, lr}
	push	{r7, lr}
	.cfi_def_cfa_offset 8
	.cfi_offset lr, -4
	.cfi_offset r7, -8
	.pad	#8
	sub	sp, #8
	.cfi_def_cfa_offset 16
.Ltmp279:
	.loc	4 641 25 prologue_end           @ rt-thread/components/net/lwip-2.0.2/src/core/ipv4/igmp.c:641:25
	movw	r0, :lower16:netif_list
	movt	r0, :upper16:netif_list
	ldr	r0, [r0]
	.loc	4 641 17 is_stmt 0              @ rt-thread/components/net/lwip-2.0.2/src/core/ipv4/igmp.c:641:17
	str	r0, [sp, #4]
	.loc	4 643 3 is_stmt 1               @ rt-thread/components/net/lwip-2.0.2/src/core/ipv4/igmp.c:643:3
	b	.LBB15_1
.LBB15_1:                               @ =>This Loop Header: Depth=1
                                        @     Child Loop BB15_3 Depth 2
	.loc	4 643 10 is_stmt 0              @ rt-thread/components/net/lwip-2.0.2/src/core/ipv4/igmp.c:643:10
	ldr	r0, [sp, #4]
	.loc	4 643 3                         @ rt-thread/components/net/lwip-2.0.2/src/core/ipv4/igmp.c:643:3
	cbz	r0, .LBB15_10
	b	.LBB15_2
.LBB15_2:                               @   in Loop: Header=BB15_1 Depth=1
.Ltmp280:
	.loc	4 644 32 is_stmt 1              @ rt-thread/components/net/lwip-2.0.2/src/core/ipv4/igmp.c:644:32
	ldr	r0, [sp, #4]
	ldr	r0, [r0, #44]
	.loc	4 644 24 is_stmt 0              @ rt-thread/components/net/lwip-2.0.2/src/core/ipv4/igmp.c:644:24
	str	r0, [sp]
	.loc	4 646 5 is_stmt 1               @ rt-thread/components/net/lwip-2.0.2/src/core/ipv4/igmp.c:646:5
	b	.LBB15_3
.LBB15_3:                               @   Parent Loop BB15_1 Depth=1
                                        @ =>  This Inner Loop Header: Depth=2
	.loc	4 646 12 is_stmt 0              @ rt-thread/components/net/lwip-2.0.2/src/core/ipv4/igmp.c:646:12
	ldr	r0, [sp]
	.loc	4 646 5                         @ rt-thread/components/net/lwip-2.0.2/src/core/ipv4/igmp.c:646:5
	cbz	r0, .LBB15_9
	b	.LBB15_4
.LBB15_4:                               @   in Loop: Header=BB15_3 Depth=2
.Ltmp281:
	.loc	4 647 11 is_stmt 1              @ rt-thread/components/net/lwip-2.0.2/src/core/ipv4/igmp.c:647:11
	ldr	r0, [sp]
	.loc	4 647 18 is_stmt 0              @ rt-thread/components/net/lwip-2.0.2/src/core/ipv4/igmp.c:647:18
	ldrh	r0, [r0, #10]
.Ltmp282:
	.loc	4 647 11                        @ rt-thread/components/net/lwip-2.0.2/src/core/ipv4/igmp.c:647:11
	cmp	r0, #1
	blt	.LBB15_8
	b	.LBB15_5
.LBB15_5:                               @   in Loop: Header=BB15_3 Depth=2
.Ltmp283:
	.loc	4 648 9 is_stmt 1               @ rt-thread/components/net/lwip-2.0.2/src/core/ipv4/igmp.c:648:9
	ldr	r1, [sp]
	.loc	4 648 21 is_stmt 0              @ rt-thread/components/net/lwip-2.0.2/src/core/ipv4/igmp.c:648:21
	ldrh	r0, [r1, #10]
	subs	r0, #1
	strh	r0, [r1, #10]
.Ltmp284:
	.loc	4 649 13 is_stmt 1              @ rt-thread/components/net/lwip-2.0.2/src/core/ipv4/igmp.c:649:13
	ldr	r0, [sp]
	.loc	4 649 20 is_stmt 0              @ rt-thread/components/net/lwip-2.0.2/src/core/ipv4/igmp.c:649:20
	ldrh	r0, [r0, #10]
.Ltmp285:
	.loc	4 649 13                        @ rt-thread/components/net/lwip-2.0.2/src/core/ipv4/igmp.c:649:13
	cbnz	r0, .LBB15_7
	b	.LBB15_6
.LBB15_6:                               @   in Loop: Header=BB15_3 Depth=2
.Ltmp286:
	.loc	4 650 24 is_stmt 1              @ rt-thread/components/net/lwip-2.0.2/src/core/ipv4/igmp.c:650:24
	ldr	r0, [sp, #4]
	.loc	4 650 31 is_stmt 0              @ rt-thread/components/net/lwip-2.0.2/src/core/ipv4/igmp.c:650:31
	ldr	r1, [sp]
	.loc	4 650 11                        @ rt-thread/components/net/lwip-2.0.2/src/core/ipv4/igmp.c:650:11
	bl	igmp_timeout
	.loc	4 651 9 is_stmt 1               @ rt-thread/components/net/lwip-2.0.2/src/core/ipv4/igmp.c:651:9
	b	.LBB15_7
.Ltmp287:
.LBB15_7:                               @   in Loop: Header=BB15_3 Depth=2
	.loc	4 652 7                         @ rt-thread/components/net/lwip-2.0.2/src/core/ipv4/igmp.c:652:7
	b	.LBB15_8
.Ltmp288:
.LBB15_8:                               @   in Loop: Header=BB15_3 Depth=2
	.loc	4 653 15                        @ rt-thread/components/net/lwip-2.0.2/src/core/ipv4/igmp.c:653:15
	ldr	r0, [sp]
	.loc	4 653 22 is_stmt 0              @ rt-thread/components/net/lwip-2.0.2/src/core/ipv4/igmp.c:653:22
	ldr	r0, [r0]
	.loc	4 653 13                        @ rt-thread/components/net/lwip-2.0.2/src/core/ipv4/igmp.c:653:13
	str	r0, [sp]
.Ltmp289:
	.loc	4 646 5 is_stmt 1               @ rt-thread/components/net/lwip-2.0.2/src/core/ipv4/igmp.c:646:5
	b	.LBB15_3
.LBB15_9:                               @   in Loop: Header=BB15_1 Depth=1
	.loc	4 655 13                        @ rt-thread/components/net/lwip-2.0.2/src/core/ipv4/igmp.c:655:13
	ldr	r0, [sp, #4]
	.loc	4 655 20 is_stmt 0              @ rt-thread/components/net/lwip-2.0.2/src/core/ipv4/igmp.c:655:20
	ldr	r0, [r0]
	.loc	4 655 11                        @ rt-thread/components/net/lwip-2.0.2/src/core/ipv4/igmp.c:655:11
	str	r0, [sp, #4]
.Ltmp290:
	.loc	4 643 3 is_stmt 1               @ rt-thread/components/net/lwip-2.0.2/src/core/ipv4/igmp.c:643:3
	b	.LBB15_1
.LBB15_10:
	.loc	4 657 1                         @ rt-thread/components/net/lwip-2.0.2/src/core/ipv4/igmp.c:657:1
	add	sp, #8
	pop	{r7, pc}
.Ltmp291:
.Lfunc_end15:
	.size	igmp_tmr, .Lfunc_end15-igmp_tmr
	.cfi_endproc
	.cantunwind
	.fnend
                                        @ -- End function
	.section	.text.igmp_timeout,"ax",%progbits
	.p2align	3                               @ -- Begin function igmp_timeout
	.type	igmp_timeout,%function
	.code	16                              @ @igmp_timeout
	.thumb_func
igmp_timeout:
.Lfunc_begin16:
	.loc	4 667 0                         @ rt-thread/components/net/lwip-2.0.2/src/core/ipv4/igmp.c:667:0
	.fnstart
	.cfi_startproc
@ %bb.0:
	.save	{r7, lr}
	push	{r7, lr}
	.cfi_def_cfa_offset 8
	.cfi_offset lr, -4
	.cfi_offset r7, -8
	.pad	#8
	sub	sp, #8
	.cfi_def_cfa_offset 16
	str	r0, [sp, #4]
	str	r1, [sp]
.Ltmp292:
	.loc	4 670 8 prologue_end            @ rt-thread/components/net/lwip-2.0.2/src/core/ipv4/igmp.c:670:8
	ldr	r0, [sp]
	.loc	4 670 15 is_stmt 0              @ rt-thread/components/net/lwip-2.0.2/src/core/ipv4/igmp.c:670:15
	ldrb	r0, [r0, #9]
	.loc	4 670 58                        @ rt-thread/components/net/lwip-2.0.2/src/core/ipv4/igmp.c:670:58
	cmp	r0, #1
	bne	.LBB16_3
	b	.LBB16_1
.LBB16_1:
	.loc	4 671 10 is_stmt 1              @ rt-thread/components/net/lwip-2.0.2/src/core/ipv4/igmp.c:671:10
	ldr	r0, [sp]
	ldr	r0, [r0, #4]
	movw	r1, :lower16:allsystems
	movt	r1, :upper16:allsystems
	ldr	r1, [r1]
.Ltmp293:
	.loc	4 670 7                         @ rt-thread/components/net/lwip-2.0.2/src/core/ipv4/igmp.c:670:7
	cmp	r0, r1
	beq	.LBB16_3
	b	.LBB16_2
.LBB16_2:
.Ltmp294:
	.loc	4 676 5                         @ rt-thread/components/net/lwip-2.0.2/src/core/ipv4/igmp.c:676:5
	ldr	r1, [sp]
	movs	r0, #2
	.loc	4 676 24 is_stmt 0              @ rt-thread/components/net/lwip-2.0.2/src/core/ipv4/igmp.c:676:24
	strb	r0, [r1, #9]
	.loc	4 679 15 is_stmt 1              @ rt-thread/components/net/lwip-2.0.2/src/core/ipv4/igmp.c:679:15
	ldr	r0, [sp, #4]
	.loc	4 679 22 is_stmt 0              @ rt-thread/components/net/lwip-2.0.2/src/core/ipv4/igmp.c:679:22
	ldr	r1, [sp]
	movs	r2, #22
	.loc	4 679 5                         @ rt-thread/components/net/lwip-2.0.2/src/core/ipv4/igmp.c:679:5
	bl	igmp_send
	.loc	4 680 3 is_stmt 1               @ rt-thread/components/net/lwip-2.0.2/src/core/ipv4/igmp.c:680:3
	b	.LBB16_3
.Ltmp295:
.LBB16_3:
	.loc	4 681 1                         @ rt-thread/components/net/lwip-2.0.2/src/core/ipv4/igmp.c:681:1
	add	sp, #8
	pop	{r7, pc}
.Ltmp296:
.Lfunc_end16:
	.size	igmp_timeout, .Lfunc_end16-igmp_timeout
	.cfi_endproc
	.cantunwind
	.fnend
                                        @ -- End function
	.section	.text.igmp_ip_output_if,"ax",%progbits
	.p2align	3                               @ -- Begin function igmp_ip_output_if
	.type	igmp_ip_output_if,%function
	.code	16                              @ @igmp_ip_output_if
	.thumb_func
igmp_ip_output_if:
.Lfunc_begin17:
	.loc	4 741 0                         @ rt-thread/components/net/lwip-2.0.2/src/core/ipv4/igmp.c:741:0
	.fnstart
	.cfi_startproc
@ %bb.0:
	.save	{r4, lr}
	push	{r4, lr}
	.cfi_def_cfa_offset 8
	.cfi_offset lr, -4
	.cfi_offset r4, -8
	.pad	#40
	sub	sp, #40
	.cfi_def_cfa_offset 48
	str	r0, [sp, #36]
	str	r1, [sp, #32]
	str	r2, [sp, #28]
	str	r3, [sp, #24]
	movw	r0, #1172
.Ltmp297:
	.loc	4 744 9 prologue_end            @ rt-thread/components/net/lwip-2.0.2/src/core/ipv4/igmp.c:744:9
	strh.w	r0, [sp, #20]
	movs	r3, #0
	.loc	4 745 9                         @ rt-thread/components/net/lwip-2.0.2/src/core/ipv4/igmp.c:745:9
	strh.w	r3, [sp, #22]
	.loc	4 747 28                        @ rt-thread/components/net/lwip-2.0.2/src/core/ipv4/igmp.c:747:28
	ldr	r0, [sp, #36]
	.loc	4 747 31 is_stmt 0              @ rt-thread/components/net/lwip-2.0.2/src/core/ipv4/igmp.c:747:31
	ldr	r1, [sp, #32]
	.loc	4 747 36                        @ rt-thread/components/net/lwip-2.0.2/src/core/ipv4/igmp.c:747:36
	ldr	r2, [sp, #28]
	.loc	4 747 70                        @ rt-thread/components/net/lwip-2.0.2/src/core/ipv4/igmp.c:747:70
	ldr.w	lr, [sp, #24]
	.loc	4 747 10                        @ rt-thread/components/net/lwip-2.0.2/src/core/ipv4/igmp.c:747:10
	mov	r12, sp
	movs	r4, #4
	str.w	r4, [r12, #16]
	add	r4, sp, #20
	str.w	r4, [r12, #12]
	str.w	lr, [r12, #8]
	mov.w	lr, #2
	str.w	lr, [r12, #4]
	str.w	r3, [r12]
	movs	r3, #1
	bl	ip4_output_if_opt
	.loc	4 747 3                         @ rt-thread/components/net/lwip-2.0.2/src/core/ipv4/igmp.c:747:3
	add	sp, #40
	pop	{r4, pc}
.Ltmp298:
.Lfunc_end17:
	.size	igmp_ip_output_if, .Lfunc_end17-igmp_ip_output_if
	.cfi_endproc
	.cantunwind
	.fnend
                                        @ -- End function
	.type	allsystems,%object              @ @allsystems
	.section	.bss.allsystems,"aw",%nobits
	.p2align	2
allsystems:
	.zero	4
	.size	allsystems, 4

	.type	allrouters,%object              @ @allrouters
	.section	.bss.allrouters,"aw",%nobits
	.p2align	2
allrouters:
	.zero	4
	.size	allrouters, 4

	.type	.L.str,%object                  @ @.str
	.section	.rodata.str1.1,"aMS",%progbits,1
.L.str:
	.asciz	"igmp_joingroup: attempt to join non-multicast address"
	.size	.L.str, 54

	.type	.L.str.1,%object                @ @.str.1
.L.str.1:
	.asciz	"rt-thread/components/net/lwip-2.0.2/src/core/ipv4/igmp.c"
	.size	.L.str.1, 57

	.type	.L.str.2,%object                @ @.str.2
.L.str.2:
	.asciz	"igmp_joingroup: attempt to join allsystems address"
	.size	.L.str.2, 51

	.type	.L.str.3,%object                @ @.str.3
.L.str.3:
	.asciz	"igmp_joingroup_netif: attempt to join non-multicast address"
	.size	.L.str.3, 60

	.type	.L.str.4,%object                @ @.str.4
.L.str.4:
	.asciz	"igmp_joingroup_netif: attempt to join allsystems address"
	.size	.L.str.4, 57

	.type	.L.str.5,%object                @ @.str.5
.L.str.5:
	.asciz	"igmp_joingroup_netif: attempt to join on non-IGMP netif"
	.size	.L.str.5, 56

	.type	.L.str.6,%object                @ @.str.6
.L.str.6:
	.asciz	"igmp_leavegroup: attempt to leave non-multicast address"
	.size	.L.str.6, 56

	.type	.L.str.7,%object                @ @.str.7
.L.str.7:
	.asciz	"igmp_leavegroup: attempt to leave allsystems address"
	.size	.L.str.7, 53

	.type	.L.str.8,%object                @ @.str.8
.L.str.8:
	.asciz	"igmp_leavegroup_netif: attempt to leave non-multicast address"
	.size	.L.str.8, 62

	.type	.L.str.9,%object                @ @.str.9
.L.str.9:
	.asciz	"igmp_leavegroup_netif: attempt to leave allsystems address"
	.size	.L.str.9, 59

	.type	.L.str.10,%object               @ @.str.10
.L.str.10:
	.asciz	"igmp_leavegroup_netif: attempt to leave on non-IGMP netif"
	.size	.L.str.10, 58

	.type	.L.str.11,%object               @ @.str.11
.L.str.11:
	.asciz	"igmp_lookup_group: first group must be allsystems"
	.size	.L.str.11, 50

	.type	.L.str.12,%object               @ @.str.12
.L.str.12:
	.asciz	"igmp_lookup_group: all except first group must not be allsystems"
	.size	.L.str.12, 65

	.type	.L.str.13,%object               @ @.str.13
.L.str.13:
	.asciz	"igmp_send: check that first pbuf can hold struct igmp_msg"
	.size	.L.str.13, 58

	.file	12 "E:\\Smart-access-control\\Hardware\\CODE" "./rt-thread/components/net/lwip-2.0.2/src/include\\lwip/ip_addr.h"
	.section	".note.GNU-stack","",%progbits
	.eabi_attribute	30, 6	@ Tag_ABI_optimization_goals
	.ARM_attribute	16, 1	@ Tag_AV_eba