	.text
	.syntax unified
	.eabi_attribute	67, "2.09"	@ Tag_conformance
	.cpu	cortex-m7
	.eabi_attribute	6, 13	@ Tag_CPU_arch
	.eabi_attribute	7, 77	@ Tag_CPU_arch_profile
	.eabi_attribute	8, 0	@ Tag_ARM_ISA_use
	.eabi_attribute	9, 2	@ Tag_THUMB_ISA_use
	.fpu	fpv5-d16
	.eabi_attribute	36, 1	@ Tag_FP_HP_extension
	.eabi_attribute	34, 1	@ Tag_CPU_unaligned_access
	.eabi_attribute	17, 1	@ Tag_ABI_PCS_GOT_use
	.eabi_attribute	20, 2	@ Tag_ABI_FP_denormal
	.eabi_attribute	21, 0	@ Tag_ABI_FP_exceptions
	.eabi_attribute	23, 1	@ Tag_ABI_FP_number_model
	.eabi_attribute	24, 1	@ Tag_ABI_align_needed
	.eabi_attribute	25, 1	@ Tag_ABI_align_preserved
	.eabi_attribute	28, 1	@ Tag_ABI_VFP_args
	.eabi_attribute	38, 1	@ Tag_ABI_FP_16bit_format
	.eabi_attribute	18, 2	@ Tag_ABI_PCS_wchar_t
	.eabi_attribute	26, 1	@ Tag_ABI_enum_size
	.eabi_attribute	14, 0	@ Tag_ABI_PCS_R9_use
	.file	"inet_chksum.c"
	.file	1 "D:\\Keil_v5\\ARM\\ARMCLANG\\Bin\\..\\include" "stdint.h"
	.file	2 "E:\\Smart-access-control\\Hardware\\CODE" "./rt-thread/components/net/lwip-2.0.2/src/include\\lwip/arch.h"
	.section	.text.lwip_standard_chksum,"ax",%progbits
	.hidden	lwip_standard_chksum            @ -- Begin function lwip_standard_chksum
	.globl	lwip_standard_chksum
	.p2align	3
	.type	lwip_standard_chksum,%function
	.code	16                              @ @lwip_standard_chksum
	.thumb_func
lwip_standard_chksum:
.Lfunc_begin0:
	.file	3 "E:\\Smart-access-control\\Hardware\\CODE" "rt-thread/components/net/lwip-2.0.2/src/core/inet_chksum.c"
	.loc	3 134 0                         @ rt-thread/components/net/lwip-2.0.2/src/core/inet_chksum.c:134:0
	.fnstart
	.cfi_sections .debug_frame
	.cfi_startproc
@ %bb.0:
	@DEBUG_VALUE: lwip_standard_chksum:dataptr <- $r0
	@DEBUG_VALUE: lwip_standard_chksum:dataptr <- $r0
	@DEBUG_VALUE: lwip_standard_chksum:len <- $r1
	@DEBUG_VALUE: lwip_standard_chksum:len <- $r1
	.save	{r4, lr}
	push	{r4, lr}
	.cfi_def_cfa_offset 8
	.cfi_offset lr, -4
	.cfi_offset r4, -8
.Ltmp0:
	@DEBUG_VALUE: lwip_standard_chksum:pb <- $r0
	@DEBUG_VALUE: lwip_standard_chksum:pb <- $r0
	@DEBUG_VALUE: lwip_standard_chksum:t <- [DW_OP_LLVM_fragment 0 8] 0
	@DEBUG_VALUE: lwip_standard_chksum:t <- [DW_OP_LLVM_fragment 8 8] 0
	@DEBUG_VALUE: lwip_standard_chksum:sum <- 0
	.loc	3 142 11 prologue_end           @ rt-thread/components/net/lwip-2.0.2/src/core/inet_chksum.c:142:11
	cmp	r1, #1
.Ltmp1:
	.loc	3 139 28                        @ rt-thread/components/net/lwip-2.0.2/src/core/inet_chksum.c:139:28
	and	r12, r0, #1
.Ltmp2:
	@DEBUG_VALUE: lwip_standard_chksum:odd <- $r12
	.loc	3 0 28 is_stmt 0                @ rt-thread/components/net/lwip-2.0.2/src/core/inet_chksum.c:0:28
	mov.w	lr, #0
.Ltmp3:
	.loc	3 142 11 is_stmt 1              @ rt-thread/components/net/lwip-2.0.2/src/core/inet_chksum.c:142:11
	blt	.LBB0_2
.Ltmp4:
@ %bb.1:
	@DEBUG_VALUE: lwip_standard_chksum:odd <- $r12
	@DEBUG_VALUE: lwip_standard_chksum:len <- $r1
	@DEBUG_VALUE: lwip_standard_chksum:pb <- $r0
	@DEBUG_VALUE: lwip_standard_chksum:dataptr <- $r0
	@DEBUG_VALUE: lwip_standard_chksum:sum <- 0
	@DEBUG_VALUE: lwip_standard_chksum:t <- [DW_OP_LLVM_fragment 8 8] 0
	@DEBUG_VALUE: lwip_standard_chksum:t <- [DW_OP_LLVM_fragment 0 8] 0
	cmp.w	r12, #0
.Ltmp5:
	.loc	3 143 23                        @ rt-thread/components/net/lwip-2.0.2/src/core/inet_chksum.c:143:23
	ittt	ne
	ldrbne	r2, [r0], #1
.Ltmp6:
	@DEBUG_VALUE: lwip_standard_chksum:dataptr <- [DW_OP_LLVM_entry_value 1] $r0
	@DEBUG_VALUE: lwip_standard_chksum:t <- [DW_OP_LLVM_fragment 8 8] undef
	@DEBUG_VALUE: lwip_standard_chksum:pb <- $r0
	.loc	3 144 8                         @ rt-thread/components/net/lwip-2.0.2/src/core/inet_chksum.c:144:8
	subne	r1, #1
.Ltmp7:
	@DEBUG_VALUE: lwip_standard_chksum:len <- [DW_OP_LLVM_entry_value 1] $r1
	@DEBUG_VALUE: lwip_standard_chksum:len <- $r1
	.loc	3 145 3                         @ rt-thread/components/net/lwip-2.0.2/src/core/inet_chksum.c:145:3
	lslne.w	lr, r2, #8
.Ltmp8:
.LBB0_2:
	@DEBUG_VALUE: lwip_standard_chksum:odd <- $r12
	@DEBUG_VALUE: lwip_standard_chksum:len <- $r1
	@DEBUG_VALUE: lwip_standard_chksum:pb <- $r0
	@DEBUG_VALUE: lwip_standard_chksum:sum <- 0
	@DEBUG_VALUE: lwip_standard_chksum:t <- [DW_OP_LLVM_fragment 0 8] 0
	@DEBUG_VALUE: lwip_standard_chksum:len <- $r1
	@DEBUG_VALUE: lwip_standard_chksum:pb <- $r0
	@DEBUG_VALUE: lwip_standard_chksum:t <- [DW_OP_LLVM_fragment 8 8] undef
	@DEBUG_VALUE: lwip_standard_chksum:sum <- 0
	@DEBUG_VALUE: lwip_standard_chksum:ps <- $r0
	.loc	3 0 3 is_stmt 0                 @ rt-thread/components/net/lwip-2.0.2/src/core/inet_chksum.c:0:3
	movs	r2, #0
	.loc	3 149 3 is_stmt 1               @ rt-thread/components/net/lwip-2.0.2/src/core/inet_chksum.c:149:3
	cmp	r1, #2
	blt	.LBB0_5
.Ltmp9:
@ %bb.3:
	@DEBUG_VALUE: lwip_standard_chksum:odd <- $r12
	@DEBUG_VALUE: lwip_standard_chksum:len <- $r1
	@DEBUG_VALUE: lwip_standard_chksum:ps <- $r0
	@DEBUG_VALUE: lwip_standard_chksum:pb <- $r0
	@DEBUG_VALUE: lwip_standard_chksum:sum <- 0
	@DEBUG_VALUE: lwip_standard_chksum:t <- [DW_OP_LLVM_fragment 0 8] 0
	.loc	3 0 3 is_stmt 0                 @ rt-thread/components/net/lwip-2.0.2/src/core/inet_chksum.c:0:3
	mov	r3, r1
.Ltmp10:
	.p2align	2
.LBB0_4:                                @ =>This Inner Loop Header: Depth=1
	@DEBUG_VALUE: lwip_standard_chksum:odd <- $r12
	@DEBUG_VALUE: lwip_standard_chksum:len <- $r1
	@DEBUG_VALUE: lwip_standard_chksum:ps <- $r0
	@DEBUG_VALUE: lwip_standard_chksum:t <- [DW_OP_LLVM_fragment 0 8] 0
	@DEBUG_VALUE: lwip_standard_chksum:len <- $r3
	@DEBUG_VALUE: lwip_standard_chksum:sum <- $r2
	@DEBUG_VALUE: lwip_standard_chksum:ps <- $r0
	.loc	3 150 12 is_stmt 1              @ rt-thread/components/net/lwip-2.0.2/src/core/inet_chksum.c:150:12
	ldrh	r4, [r0], #2
.Ltmp11:
	@DEBUG_VALUE: lwip_standard_chksum:ps <- $r0
	.loc	3 151 9                         @ rt-thread/components/net/lwip-2.0.2/src/core/inet_chksum.c:151:9
	subs	r1, r3, #2
.Ltmp12:
	@DEBUG_VALUE: lwip_standard_chksum:len <- $r1
	.loc	3 149 3                         @ rt-thread/components/net/lwip-2.0.2/src/core/inet_chksum.c:149:3
	cmp	r3, #3
	mov	r3, r1
.Ltmp13:
	.loc	3 150 9                         @ rt-thread/components/net/lwip-2.0.2/src/core/inet_chksum.c:150:9
	add	r2, r4
.Ltmp14:
	@DEBUG_VALUE: lwip_standard_chksum:sum <- $r2
	.loc	3 149 3                         @ rt-thread/components/net/lwip-2.0.2/src/core/inet_chksum.c:149:3
	bgt	.LBB0_4
.Ltmp15:
.LBB0_5:
	@DEBUG_VALUE: lwip_standard_chksum:odd <- $r12
	@DEBUG_VALUE: lwip_standard_chksum:len <- $r1
	@DEBUG_VALUE: lwip_standard_chksum:ps <- $r0
	@DEBUG_VALUE: lwip_standard_chksum:t <- [DW_OP_LLVM_fragment 0 8] 0
	.loc	3 155 7                         @ rt-thread/components/net/lwip-2.0.2/src/core/inet_chksum.c:155:7
	cmp	r1, #1
	bne	.LBB0_7
.Ltmp16:
@ %bb.6:
	@DEBUG_VALUE: lwip_standard_chksum:odd <- $r12
	@DEBUG_VALUE: lwip_standard_chksum:len <- $r1
	@DEBUG_VALUE: lwip_standard_chksum:ps <- $r0
	@DEBUG_VALUE: lwip_standard_chksum:t <- [DW_OP_LLVM_fragment 0 8] 0
	.loc	3 156 23                        @ rt-thread/components/net/lwip-2.0.2/src/core/inet_chksum.c:156:23
	ldrb	r0, [r0]
.Ltmp17:
	@DEBUG_VALUE: lwip_standard_chksum:t <- [DW_OP_LLVM_fragment 0 8] undef
	.loc	3 0 23 is_stmt 0                @ rt-thread/components/net/lwip-2.0.2/src/core/inet_chksum.c:0:23
	b	.LBB0_8
.Ltmp18:
.LBB0_7:
	@DEBUG_VALUE: lwip_standard_chksum:odd <- $r12
	@DEBUG_VALUE: lwip_standard_chksum:len <- $r1
	@DEBUG_VALUE: lwip_standard_chksum:ps <- $r0
	@DEBUG_VALUE: lwip_standard_chksum:t <- [DW_OP_LLVM_fragment 0 8] 0
	movs	r0, #0
.Ltmp19:
.LBB0_8:
	@DEBUG_VALUE: lwip_standard_chksum:odd <- $r12
	@DEBUG_VALUE: lwip_standard_chksum:len <- $r1
	@DEBUG_VALUE: lwip_standard_chksum:t <- [DW_OP_LLVM_fragment 0 8] undef
	.loc	3 160 10 is_stmt 1              @ rt-thread/components/net/lwip-2.0.2/src/core/inet_chksum.c:160:10
	orr.w	r0, r0, lr
	.loc	3 168 7                         @ rt-thread/components/net/lwip-2.0.2/src/core/inet_chksum.c:168:7
	cmp.w	r12, #0
	.loc	3 160 7                         @ rt-thread/components/net/lwip-2.0.2/src/core/inet_chksum.c:160:7
	add	r0, r2
.Ltmp20:
	@DEBUG_VALUE: lwip_standard_chksum:sum <- $r0
	.loc	3 164 9                         @ rt-thread/components/net/lwip-2.0.2/src/core/inet_chksum.c:164:9
	lsr.w	r1, r0, #16
.Ltmp21:
	uxtah	r0, r1, r0
.Ltmp22:
	@DEBUG_VALUE: lwip_standard_chksum:sum <- $r0
	.loc	3 165 9                         @ rt-thread/components/net/lwip-2.0.2/src/core/inet_chksum.c:165:9
	lsr.w	r1, r0, #16
	uxtah	r0, r1, r0
.Ltmp23:
	@DEBUG_VALUE: lwip_standard_chksum:sum <- $r0
	.loc	3 168 7                         @ rt-thread/components/net/lwip-2.0.2/src/core/inet_chksum.c:168:7
	rev	r1, r0
	it	ne
	lsrne	r0, r1, #16
.Ltmp24:
	@DEBUG_VALUE: lwip_standard_chksum:sum <- $r0
	.loc	3 172 3                         @ rt-thread/components/net/lwip-2.0.2/src/core/inet_chksum.c:172:3
	uxth	r0, r0
.Ltmp25:
	pop	{r4, pc}
.Ltmp26:
.Lfunc_end0:
	.size	lwip_standard_chksum, .Lfunc_end0-lwip_standard_chksum
	.cfi_endproc
	.cantunwind
	.fnend
                                        @ -- End function
	.section	.text.inet_chksum_pseudo,"ax",%progbits
	.hidden	inet_chksum_pseudo              @ -- Begin function inet_chksum_pseudo
	.globl	inet_chksum_pseudo
	.p2align	3
	.type	inet_chksum_pseudo,%function
	.code	16                              @ @inet_chksum_pseudo
	.thumb_func
inet_chksum_pseudo:
.Lfunc_begin1:
	.loc	3 312 0                         @ rt-thread/components/net/lwip-2.0.2/src/core/inet_chksum.c:312:0
	.fnstart
	.cfi_startproc
@ %bb.0:
	@DEBUG_VALUE: inet_chksum_pseudo:p <- $r0
	@DEBUG_VALUE: inet_chksum_pseudo:proto <- $r1
	@DEBUG_VALUE: inet_chksum_pseudo:proto_len <- $r2
	@DEBUG_VALUE: inet_chksum_pseudo:src <- $r3
	.save	{r4, lr}
	push	{r4, lr}
	.cfi_def_cfa_offset 8
	.cfi_offset lr, -4
	.cfi_offset r4, -8
	ldr.w	r12, [sp, #8]
.Ltmp27:
	@DEBUG_VALUE: inet_chksum_pseudo:dest <- [DW_OP_plus_uconst 8] [$sp+0]
	@DEBUG_VALUE: inet_chksum_pseudo:src <- $r3
	.loc	3 316 10 prologue_end           @ rt-thread/components/net/lwip-2.0.2/src/core/inet_chksum.c:316:10
	ldr	r4, [r3]
.Ltmp28:
	@DEBUG_VALUE: inet_chksum_pseudo:acc <- undef
	@DEBUG_VALUE: inet_chksum_pseudo:addr <- $r4
	.loc	3 318 17                        @ rt-thread/components/net/lwip-2.0.2/src/core/inet_chksum.c:318:17
	lsr.w	lr, r4, #16
	.loc	3 318 7 is_stmt 0               @ rt-thread/components/net/lwip-2.0.2/src/core/inet_chksum.c:318:7
	uxtah	r4, lr, r4
.Ltmp29:
	@DEBUG_VALUE: inet_chksum_pseudo:acc <- $r4
	.loc	3 319 10 is_stmt 1              @ rt-thread/components/net/lwip-2.0.2/src/core/inet_chksum.c:319:10
	ldr.w	r3, [r12]
.Ltmp30:
	@DEBUG_VALUE: inet_chksum_pseudo:src <- [DW_OP_LLVM_entry_value 1] $r3
	@DEBUG_VALUE: inet_chksum_pseudo:addr <- $r3
	.loc	3 320 7                         @ rt-thread/components/net/lwip-2.0.2/src/core/inet_chksum.c:320:7
	uxtah	r4, r4, r3
.Ltmp31:
	@DEBUG_VALUE: inet_chksum_pseudo:acc <- $r4
	.loc	3 321 7                         @ rt-thread/components/net/lwip-2.0.2/src/core/inet_chksum.c:321:7
	add.w	r3, r4, r3, lsr #16
.Ltmp32:
	@DEBUG_VALUE: inet_chksum_pseudo:acc <- $r3
	.loc	3 323 9                         @ rt-thread/components/net/lwip-2.0.2/src/core/inet_chksum.c:323:9
	lsrs	r4, r3, #16
	uxtah	r3, r4, r3
.Ltmp33:
	@DEBUG_VALUE: inet_chksum_pseudo:acc <- $r3
	@DEBUG_VALUE: inet_chksum_pseudo:proto_len <- $r2
	@DEBUG_VALUE: inet_chksum_pseudo:proto <- $r1
	@DEBUG_VALUE: inet_chksum_pseudo:p <- $r0
	.loc	3 324 9                         @ rt-thread/components/net/lwip-2.0.2/src/core/inet_chksum.c:324:9
	lsrs	r4, r3, #16
	uxtah	r3, r4, r3
.Ltmp34:
	@DEBUG_VALUE: inet_chksum_pseudo:acc <- $r3
	@DEBUG_VALUE: inet_chksum_pseudo:proto_len <- $r2
	@DEBUG_VALUE: inet_chksum_pseudo:proto <- $r1
	@DEBUG_VALUE: inet_chksum_pseudo:p <- $r0
	.loc	3 326 10                        @ rt-thread/components/net/lwip-2.0.2/src/core/inet_chksum.c:326:10
	bl	inet_cksum_pseudo_base
.Ltmp35:
	@DEBUG_VALUE: inet_chksum_pseudo:proto_len <- [DW_OP_LLVM_entry_value 1] $r2
	@DEBUG_VALUE: inet_chksum_pseudo:proto <- [DW_OP_LLVM_entry_value 1] $r1
	@DEBUG_VALUE: inet_chksum_pseudo:p <- [DW_OP_LLVM_entry_value 1] $r0
	.loc	3 326 3 is_stmt 0               @ rt-thread/components/net/lwip-2.0.2/src/core/inet_chksum.c:326:3
	pop	{r4, pc}
.Ltmp36:
.Lfunc_end1:
	.size	inet_chksum_pseudo, .Lfunc_end1-inet_chksum_pseudo
	.cfi_endproc
	.cantunwind
	.fnend
                                        @ -- End function
	.section	.text.inet_cksum_pseudo_base,"ax",%progbits
	.p2align	3                               @ -- Begin function inet_cksum_pseudo_base
	.type	inet_cksum_pseudo_base,%function
	.code	16                              @ @inet_cksum_pseudo_base
	.thumb_func
inet_cksum_pseudo_base:
.Lfunc_begin2:
	.loc	3 261 0 is_stmt 1               @ rt-thread/components/net/lwip-2.0.2/src/core/inet_chksum.c:261:0
	.fnstart
	.cfi_startproc
@ %bb.0:
	@DEBUG_VALUE: inet_cksum_pseudo_base:p <- $r0
	@DEBUG_VALUE: inet_cksum_pseudo_base:proto <- $r1
	@DEBUG_VALUE: inet_cksum_pseudo_base:proto_len <- $r2
	@DEBUG_VALUE: inet_cksum_pseudo_base:acc <- $r3
	@DEBUG_VALUE: inet_cksum_pseudo_base:proto_len <- undef
	@DEBUG_VALUE: inet_cksum_pseudo_base:proto <- undef
	@DEBUG_VALUE: inet_cksum_pseudo_base:p <- $r0
	.save	{r4, r5, r6, r7, r8, r9, lr}
	push.w	{r4, r5, r6, r7, r8, r9, lr}
	.cfi_def_cfa_offset 28
	.cfi_offset lr, -4
	.cfi_offset r9, -8
	.cfi_offset r8, -12
	.cfi_offset r7, -16
	.cfi_offset r6, -20
	.cfi_offset r5, -24
	.cfi_offset r4, -28
	.pad	#4
	sub	sp, #4
	.cfi_def_cfa_offset 32
.Ltmp37:
	@DEBUG_VALUE: inet_cksum_pseudo_base:q <- $r0
	@DEBUG_VALUE: inet_cksum_pseudo_base:swapped <- 0
	@DEBUG_VALUE: inet_cksum_pseudo_base:q <- $r0
	mov	r5, r3
.Ltmp38:
	@DEBUG_VALUE: inet_cksum_pseudo_base:acc <- $r5
	@DEBUG_VALUE: inet_cksum_pseudo_base:acc <- $r5
	mov	r8, r2
.Ltmp39:
	@DEBUG_VALUE: inet_cksum_pseudo_base:proto_len <- $r8
	mov	r9, r1
.Ltmp40:
	@DEBUG_VALUE: inet_cksum_pseudo_base:proto <- $r9
	.loc	3 266 3 prologue_end            @ rt-thread/components/net/lwip-2.0.2/src/core/inet_chksum.c:266:3
	cbz	r0, .LBB2_4
.Ltmp41:
@ %bb.1:
	@DEBUG_VALUE: inet_cksum_pseudo_base:proto <- $r9
	@DEBUG_VALUE: inet_cksum_pseudo_base:proto_len <- $r8
	@DEBUG_VALUE: inet_cksum_pseudo_base:acc <- $r5
	@DEBUG_VALUE: inet_cksum_pseudo_base:q <- $r0
	@DEBUG_VALUE: inet_cksum_pseudo_base:p <- $r0
	@DEBUG_VALUE: inet_cksum_pseudo_base:swapped <- 0
	.loc	3 0 3 is_stmt 0                 @ rt-thread/components/net/lwip-2.0.2/src/core/inet_chksum.c:0:3
	mov	r7, r0
.Ltmp42:
	@DEBUG_VALUE: inet_cksum_pseudo_base:p <- $r7
	@DEBUG_VALUE: inet_cksum_pseudo_base:p <- $r7
	@DEBUG_VALUE: inet_cksum_pseudo_base:q <- $r7
	movs	r6, #0
.Ltmp43:
	.p2align	2
.LBB2_2:                                @ =>This Inner Loop Header: Depth=1
	@DEBUG_VALUE: inet_cksum_pseudo_base:proto <- $r9
	@DEBUG_VALUE: inet_cksum_pseudo_base:proto_len <- $r8
	@DEBUG_VALUE: inet_cksum_pseudo_base:q <- $r7
	@DEBUG_VALUE: inet_cksum_pseudo_base:acc <- $r5
	@DEBUG_VALUE: inet_cksum_pseudo_base:acc <- $r5
	@DEBUG_VALUE: inet_cksum_pseudo_base:q <- $r7
	@DEBUG_VALUE: inet_cksum_pseudo_base:swapped <- $r6
	.loc	3 269 39 is_stmt 1              @ rt-thread/components/net/lwip-2.0.2/src/core/inet_chksum.c:269:39
	ldrh	r4, [r7, #10]
	.loc	3 269 27 is_stmt 0              @ rt-thread/components/net/lwip-2.0.2/src/core/inet_chksum.c:269:27
	ldr	r0, [r7, #4]
	.loc	3 269 12                        @ rt-thread/components/net/lwip-2.0.2/src/core/inet_chksum.c:269:12
	mov	r1, r4
	bl	lwip_standard_chksum
	.loc	3 269 9                         @ rt-thread/components/net/lwip-2.0.2/src/core/inet_chksum.c:269:9
	add	r0, r5
.Ltmp44:
	@DEBUG_VALUE: inet_cksum_pseudo_base:acc <- $r0
	.loc	3 273 11 is_stmt 1              @ rt-thread/components/net/lwip-2.0.2/src/core/inet_chksum.c:273:11
	lsrs	r1, r0, #16
	uxtah	r5, r1, r0
.Ltmp45:
	@DEBUG_VALUE: inet_cksum_pseudo_base:acc <- $r5
	.loc	3 274 16                        @ rt-thread/components/net/lwip-2.0.2/src/core/inet_chksum.c:274:16
	ands	r0, r4, #1
.Ltmp46:
	.loc	3 274 9 is_stmt 0               @ rt-thread/components/net/lwip-2.0.2/src/core/inet_chksum.c:274:9
	rev	r0, r5
	it	ne
	lsrne	r5, r0, #16
.Ltmp47:
	@DEBUG_VALUE: inet_cksum_pseudo_base:acc <- $r5
	.loc	3 266 33 is_stmt 1              @ rt-thread/components/net/lwip-2.0.2/src/core/inet_chksum.c:266:33
	ldr	r7, [r7]
.Ltmp48:
	@DEBUG_VALUE: inet_cksum_pseudo_base:p <- [DW_OP_LLVM_entry_value 1] $r0
	@DEBUG_VALUE: inet_cksum_pseudo_base:q <- $r7
	.loc	3 274 9                         @ rt-thread/components/net/lwip-2.0.2/src/core/inet_chksum.c:274:9
	it	ne
	rsbne.w	r6, r6, #1
.Ltmp49:
	@DEBUG_VALUE: inet_cksum_pseudo_base:swapped <- $r6
	.loc	3 266 3                         @ rt-thread/components/net/lwip-2.0.2/src/core/inet_chksum.c:266:3
	cmp	r7, #0
	bne	.LBB2_2
.Ltmp50:
@ %bb.3:
	@DEBUG_VALUE: inet_cksum_pseudo_base:proto <- $r9
	@DEBUG_VALUE: inet_cksum_pseudo_base:proto_len <- $r8
	@DEBUG_VALUE: inet_cksum_pseudo_base:q <- $r7
	@DEBUG_VALUE: inet_cksum_pseudo_base:swapped <- $r6
	@DEBUG_VALUE: inet_cksum_pseudo_base:acc <- $r5
	.loc	3 281 7                         @ rt-thread/components/net/lwip-2.0.2/src/core/inet_chksum.c:281:7
	uxtb	r0, r6
	clz	r0, r0
	lsrs	r0, r0, #5
	b	.LBB2_5
.Ltmp51:
.LBB2_4:
	@DEBUG_VALUE: inet_cksum_pseudo_base:proto <- $r9
	@DEBUG_VALUE: inet_cksum_pseudo_base:proto_len <- $r8
	@DEBUG_VALUE: inet_cksum_pseudo_base:acc <- $r5
	@DEBUG_VALUE: inet_cksum_pseudo_base:q <- $r0
	@DEBUG_VALUE: inet_cksum_pseudo_base:p <- $r0
	@DEBUG_VALUE: inet_cksum_pseudo_base:swapped <- 0
	.loc	3 0 7 is_stmt 0                 @ rt-thread/components/net/lwip-2.0.2/src/core/inet_chksum.c:0:7
	movs	r0, #1
.Ltmp52:
	@DEBUG_VALUE: inet_cksum_pseudo_base:p <- [DW_OP_LLVM_entry_value 1] $r0
.LBB2_5:
	@DEBUG_VALUE: inet_cksum_pseudo_base:proto <- $r9
	@DEBUG_VALUE: inet_cksum_pseudo_base:proto_len <- $r8
	@DEBUG_VALUE: inet_cksum_pseudo_base:acc <- $r5
	.loc	3 281 7                         @ rt-thread/components/net/lwip-2.0.2/src/core/inet_chksum.c:281:7
	rev	r1, r5
	cmp	r0, #0
	.loc	3 285 17 is_stmt 1              @ rt-thread/components/net/lwip-2.0.2/src/core/inet_chksum.c:285:17
	mov	r0, r9
	.loc	3 281 7                         @ rt-thread/components/net/lwip-2.0.2/src/core/inet_chksum.c:281:7
	it	eq
	lsreq	r5, r1, #16
.Ltmp53:
	@DEBUG_VALUE: inet_cksum_pseudo_base:acc <- $r5
	.loc	3 285 17                        @ rt-thread/components/net/lwip-2.0.2/src/core/inet_chksum.c:285:17
	bl	lwip_htons
	.loc	3 285 7 is_stmt 0               @ rt-thread/components/net/lwip-2.0.2/src/core/inet_chksum.c:285:7
	adds	r4, r5, r0
.Ltmp54:
	@DEBUG_VALUE: inet_cksum_pseudo_base:acc <- $r4
	.loc	3 286 17 is_stmt 1              @ rt-thread/components/net/lwip-2.0.2/src/core/inet_chksum.c:286:17
	mov	r0, r8
	bl	lwip_htons
	.loc	3 286 7 is_stmt 0               @ rt-thread/components/net/lwip-2.0.2/src/core/inet_chksum.c:286:7
	add	r0, r4
.Ltmp55:
	@DEBUG_VALUE: inet_cksum_pseudo_base:acc <- $r0
	.loc	3 290 9 is_stmt 1               @ rt-thread/components/net/lwip-2.0.2/src/core/inet_chksum.c:290:9
	lsrs	r1, r0, #16
	uxtah	r0, r1, r0
.Ltmp56:
	@DEBUG_VALUE: inet_cksum_pseudo_base:acc <- $r0
	.loc	3 291 9                         @ rt-thread/components/net/lwip-2.0.2/src/core/inet_chksum.c:291:9
	add.w	r0, r0, r0, lsr #16
.Ltmp57:
	@DEBUG_VALUE: inet_cksum_pseudo_base:acc <- undef
	.loc	3 293 10                        @ rt-thread/components/net/lwip-2.0.2/src/core/inet_chksum.c:293:10
	mvns	r0, r0
	.loc	3 293 3 is_stmt 0               @ rt-thread/components/net/lwip-2.0.2/src/core/inet_chksum.c:293:3
	uxth	r0, r0
	add	sp, #4
	pop.w	{r4, r5, r6, r7, r8, r9, pc}
.Ltmp58:
.Lfunc_end2:
	.size	inet_cksum_pseudo_base, .Lfunc_end2-inet_cksum_pseudo_base
	.cfi_endproc
	.cantunwind
	.fnend
                                        @ -- End function
	.section	.text.ip_chksum_pseudo,"ax",%progbits
	.hidden	ip_chksum_pseudo                @ -- Begin function ip_chksum_pseudo
	.globl	ip_chksum_pseudo
	.p2align	3
	.type	ip_chksum_pseudo,%function
	.code	16                              @ @ip_chksum_pseudo
	.thumb_func
ip_chksum_pseudo:
.Lfunc_begin3:
	.loc	3 381 0 is_stmt 1               @ rt-thread/components/net/lwip-2.0.2/src/core/inet_chksum.c:381:0
	.fnstart
	.cfi_startproc
@ %bb.0:
	@DEBUG_VALUE: ip_chksum_pseudo:p <- $r0
	@DEBUG_VALUE: ip_chksum_pseudo:proto <- $r1
	@DEBUG_VALUE: ip_chksum_pseudo:proto_len <- $r2
	@DEBUG_VALUE: ip_chksum_pseudo:src <- $r3
	.save	{r7, lr}
	push	{r7, lr}
	.cfi_def_cfa_offset 8
	.cfi_offset lr, -4
	.cfi_offset r7, -8
	.pad	#8
	sub	sp, #8
	.cfi_def_cfa_offset 16
	ldr.w	r12, [sp, #16]
.Ltmp59:
	@DEBUG_VALUE: ip_chksum_pseudo:dest <- [DW_OP_plus_uconst 16] [$sp+0]
	@DEBUG_VALUE: ip_chksum_pseudo:src <- $r3
	@DEBUG_VALUE: ip_chksum_pseudo:proto_len <- $r2
	@DEBUG_VALUE: ip_chksum_pseudo:proto <- $r1
	@DEBUG_VALUE: ip_chksum_pseudo:p <- $r0
	.loc	3 392 12 prologue_end           @ rt-thread/components/net/lwip-2.0.2/src/core/inet_chksum.c:392:12
	str.w	r12, [sp]
	@DEBUG_VALUE: ip_chksum_pseudo:src <- $r3
	@DEBUG_VALUE: ip_chksum_pseudo:proto_len <- $r2
	@DEBUG_VALUE: ip_chksum_pseudo:proto <- $r1
	@DEBUG_VALUE: ip_chksum_pseudo:p <- $r0
	bl	inet_chksum_pseudo
.Ltmp60:
	@DEBUG_VALUE: ip_chksum_pseudo:src <- [DW_OP_LLVM_entry_value 1] $r3
	@DEBUG_VALUE: ip_chksum_pseudo:proto_len <- [DW_OP_LLVM_entry_value 1] $r2
	@DEBUG_VALUE: ip_chksum_pseudo:proto <- [DW_OP_LLVM_entry_value 1] $r1
	@DEBUG_VALUE: ip_chksum_pseudo:p <- [DW_OP_LLVM_entry_value 1] $r0
	.loc	3 392 5 is_stmt 0               @ rt-thread/components/net/lwip-2.0.2/src/core/inet_chksum.c:392:5
	add	sp, #8
	pop	{r7, pc}
.Ltmp61:
.Lfunc_end3:
	.size	ip_chksum_pseudo, .Lfunc_end3-ip_chksum_pseudo
	.cfi_endproc
	.cantunwind
	.fnend
                                        @ -- End function
	.section	.text.inet_chksum_pseudo_partial,"ax",%progbits
	.hidden	inet_chksum_pseudo_partial      @ -- Begin function inet_chksum_pseudo_partial
	.globl	inet_chksum_pseudo_partial
	.p2align	3
	.type	inet_chksum_pseudo_partial,%function
	.code	16                              @ @inet_chksum_pseudo_partial
	.thumb_func
inet_chksum_pseudo_partial:
.Lfunc_begin4:
	.loc	3 458 0 is_stmt 1               @ rt-thread/components/net/lwip-2.0.2/src/core/inet_chksum.c:458:0
	.fnstart
	.cfi_startproc
@ %bb.0:
	@DEBUG_VALUE: inet_chksum_pseudo_partial:p <- $r0
	@DEBUG_VALUE: inet_chksum_pseudo_partial:proto <- $r1
	@DEBUG_VALUE: inet_chksum_pseudo_partial:proto_len <- $r2
	@DEBUG_VALUE: inet_chksum_pseudo_partial:chksum_len <- $r3
	.save	{r4, r5, r7, lr}
	push	{r4, r5, r7, lr}
	.cfi_def_cfa_offset 16
	.cfi_offset lr, -4
	.cfi_offset r7, -8
	.cfi_offset r5, -12
	.cfi_offset r4, -16
	.pad	#8
	sub	sp, #8
	.cfi_def_cfa_offset 24
	ldrd	r12, lr, [sp, #24]
.Ltmp62:
	@DEBUG_VALUE: inet_chksum_pseudo_partial:dest <- [DW_OP_plus_uconst 28] [$sp+0]
	@DEBUG_VALUE: inet_chksum_pseudo_partial:src <- [DW_OP_plus_uconst 24] [$sp+0]
	.loc	3 462 10 prologue_end           @ rt-thread/components/net/lwip-2.0.2/src/core/inet_chksum.c:462:10
	ldr.w	r12, [r12]
.Ltmp63:
	@DEBUG_VALUE: inet_chksum_pseudo_partial:acc <- undef
	@DEBUG_VALUE: inet_chksum_pseudo_partial:addr <- $r12
	.loc	3 465 10                        @ rt-thread/components/net/lwip-2.0.2/src/core/inet_chksum.c:465:10
	ldr.w	r4, [lr]
.Ltmp64:
	@DEBUG_VALUE: inet_chksum_pseudo_partial:addr <- $r4
	.loc	3 464 17                        @ rt-thread/components/net/lwip-2.0.2/src/core/inet_chksum.c:464:17
	lsr.w	r5, r12, #16
	.loc	3 464 7 is_stmt 0               @ rt-thread/components/net/lwip-2.0.2/src/core/inet_chksum.c:464:7
	uxtah	r5, r5, r12
.Ltmp65:
	@DEBUG_VALUE: inet_chksum_pseudo_partial:acc <- $r5
	.loc	3 466 7 is_stmt 1               @ rt-thread/components/net/lwip-2.0.2/src/core/inet_chksum.c:466:7
	uxtah	r5, r5, r4
.Ltmp66:
	@DEBUG_VALUE: inet_chksum_pseudo_partial:acc <- $r5
	.loc	3 467 7                         @ rt-thread/components/net/lwip-2.0.2/src/core/inet_chksum.c:467:7
	add.w	r5, r5, r4, lsr #16
.Ltmp67:
	@DEBUG_VALUE: inet_chksum_pseudo_partial:acc <- $r5
	.loc	3 469 9                         @ rt-thread/components/net/lwip-2.0.2/src/core/inet_chksum.c:469:9
	lsrs	r4, r5, #16
.Ltmp68:
	uxtah	r5, r4, r5
.Ltmp69:
	@DEBUG_VALUE: inet_chksum_pseudo_partial:acc <- $r5
	@DEBUG_VALUE: inet_chksum_pseudo_partial:chksum_len <- $r3
	@DEBUG_VALUE: inet_chksum_pseudo_partial:proto_len <- $r2
	@DEBUG_VALUE: inet_chksum_pseudo_partial:proto <- $r1
	@DEBUG_VALUE: inet_chksum_pseudo_partial:p <- $r0
	.loc	3 470 9                         @ rt-thread/components/net/lwip-2.0.2/src/core/inet_chksum.c:470:9
	lsrs	r4, r5, #16
	uxtah	r5, r4, r5
.Ltmp70:
	@DEBUG_VALUE: inet_chksum_pseudo_partial:acc <- $r5
	.loc	3 472 10                        @ rt-thread/components/net/lwip-2.0.2/src/core/inet_chksum.c:472:10
	str	r5, [sp]
	@DEBUG_VALUE: inet_chksum_pseudo_partial:chksum_len <- $r3
	@DEBUG_VALUE: inet_chksum_pseudo_partial:proto_len <- $r2
	@DEBUG_VALUE: inet_chksum_pseudo_partial:proto <- $r1
	@DEBUG_VALUE: inet_chksum_pseudo_partial:p <- $r0
	bl	inet_cksum_pseudo_partial_base
.Ltmp71:
	@DEBUG_VALUE: inet_chksum_pseudo_partial:chksum_len <- [DW_OP_LLVM_entry_value 1] $r3
	@DEBUG_VALUE: inet_chksum_pseudo_partial:proto_len <- [DW_OP_LLVM_entry_value 1] $r2
	@DEBUG_VALUE: inet_chksum_pseudo_partial:proto <- [DW_OP_LLVM_entry_value 1] $r1
	@DEBUG_VALUE: inet_chksum_pseudo_partial:p <- [DW_OP_LLVM_entry_value 1] $r0
	.loc	3 472 3 is_stmt 0               @ rt-thread/components/net/lwip-2.0.2/src/core/inet_chksum.c:472:3
	add	sp, #8
	pop	{r4, r5, r7, pc}
.Ltmp72:
.Lfunc_end4:
	.size	inet_chksum_pseudo_partial, .Lfunc_end4-inet_chksum_pseudo_partial
	.cfi_endproc
	.cantunwind
	.fnend
                                        @ -- End function
	.section	.text.inet_cksum_pseudo_partial_base,"ax",%progbits
	.p2align	3                               @ -- Begin function inet_cksum_pseudo_partial_base
	.type	inet_cksum_pseudo_partial_base,%function
	.code	16                              @ @inet_cksum_pseudo_partial_base
	.thumb_func
inet_cksum_pseudo_partial_base:
.Lfunc_begin5:
	.loc	3 401 0 is_stmt 1               @ rt-thread/components/net/lwip-2.0.2/src/core/inet_chksum.c:401:0
	.fnstart
	.cfi_startproc
@ %bb.0:
	@DEBUG_VALUE: inet_cksum_pseudo_partial_base:p <- $r0
	@DEBUG_VALUE: inet_cksum_pseudo_partial_base:proto <- $r1
	@DEBUG_VALUE: inet_cksum_pseudo_partial_base:proto_len <- $r2
	@DEBUG_VALUE: inet_cksum_pseudo_partial_base:chksum_len <- $r3
	.save	{r4, r5, r6, r7, r8, r9, r10, r11, lr}
	push.w	{r4, r5, r6, r7, r8, r9, r10, r11, lr}
	.cfi_def_cfa_offset 36
	.cfi_offset lr, -4
	.cfi_offset r11, -8
	.cfi_offset r10, -12
	.cfi_offset r9, -16
	.cfi_offset r8, -20
	.cfi_offset r7, -24
	.cfi_offset r6, -28
	.cfi_offset r5, -32
	.cfi_offset r4, -36
	.pad	#12
	sub	sp, #12
	.cfi_def_cfa_offset 48
.Ltmp73:
	@DEBUG_VALUE: inet_cksum_pseudo_partial_base:q <- $r0
	mov	r8, r2
.Ltmp74:
	@DEBUG_VALUE: inet_cksum_pseudo_partial_base:proto_len <- $r8
	mov	r2, r1
	mov	r7, r0
.Ltmp75:
	@DEBUG_VALUE: inet_cksum_pseudo_partial_base:p <- $r7
	@DEBUG_VALUE: inet_cksum_pseudo_partial_base:q <- $r7
	@DEBUG_VALUE: inet_cksum_pseudo_partial_base:acc <- [DW_OP_plus_uconst 48] [$sp+0]
	@DEBUG_VALUE: inet_cksum_pseudo_partial_base:chksum_len <- $r3
	@DEBUG_VALUE: inet_cksum_pseudo_partial_base:proto_len <- $r8
	@DEBUG_VALUE: inet_cksum_pseudo_partial_base:proto <- $r2
	@DEBUG_VALUE: inet_cksum_pseudo_partial_base:p <- $r7
	ldr	r5, [sp, #48]
	movs	r0, #1
.Ltmp76:
	@DEBUG_VALUE: inet_cksum_pseudo_partial_base:swapped <- 0
	@DEBUG_VALUE: inet_cksum_pseudo_partial_base:chksum_len <- $r3
	.loc	3 407 3 prologue_end            @ rt-thread/components/net/lwip-2.0.2/src/core/inet_chksum.c:407:3
	cmp	r3, #0
	it	ne
	cmpne	r7, #0
	beq	.LBB5_6
.Ltmp77:
@ %bb.1:
	@DEBUG_VALUE: inet_cksum_pseudo_partial_base:proto_len <- $r8
	@DEBUG_VALUE: inet_cksum_pseudo_partial_base:q <- $r7
	@DEBUG_VALUE: inet_cksum_pseudo_partial_base:p <- $r7
	@DEBUG_VALUE: inet_cksum_pseudo_partial_base:chksum_len <- $r3
	@DEBUG_VALUE: inet_cksum_pseudo_partial_base:proto <- $r2
	@DEBUG_VALUE: inet_cksum_pseudo_partial_base:acc <- [DW_OP_plus_uconst 48] [$sp+0]
	@DEBUG_VALUE: inet_cksum_pseudo_partial_base:swapped <- 0
	.loc	3 0 3 is_stmt 0                 @ rt-thread/components/net/lwip-2.0.2/src/core/inet_chksum.c:0:3
	mov	r6, r3
.Ltmp78:
	@DEBUG_VALUE: inet_cksum_pseudo_partial_base:chksum_len <- $r6
	@DEBUG_VALUE: inet_cksum_pseudo_partial_base:chksum_len <- $r6
	movw	r9, #32767
	strd	r2, r8, [sp, #4]                @ 8-byte Folded Spill
	mov.w	r8, #0
.Ltmp79:
	adr.w	r10, .LCPI5_0
	adr.w	r11, .LCPI5_1
	b	.LBB5_3
.Ltmp80:
	.p2align	2
.LBB5_2:                                @   in Loop: Header=BB5_3 Depth=1
	@DEBUG_VALUE: inet_cksum_pseudo_partial_base:swapped <- $r8
	@DEBUG_VALUE: inet_cksum_pseudo_partial_base:q <- $r7
	@DEBUG_VALUE: inet_cksum_pseudo_partial_base:chksum_len <- $r6
	adds	r0, r5, r4
.Ltmp81:
	@DEBUG_VALUE: inet_cksum_pseudo_partial_base:acc <- $r0
	.loc	3 420 12 is_stmt 1              @ rt-thread/components/net/lwip-2.0.2/src/core/inet_chksum.c:420:12
	ldrh	r2, [r7, #10]
.Ltmp82:
	.loc	3 419 11                        @ rt-thread/components/net/lwip-2.0.2/src/core/inet_chksum.c:419:11
	lsrs	r1, r0, #16
	uxtah	r5, r1, r0
.Ltmp83:
	@DEBUG_VALUE: inet_cksum_pseudo_partial_base:acc <- $r5
	.loc	3 420 16                        @ rt-thread/components/net/lwip-2.0.2/src/core/inet_chksum.c:420:16
	ands	r0, r2, #1
.Ltmp84:
	.loc	3 420 9 is_stmt 0               @ rt-thread/components/net/lwip-2.0.2/src/core/inet_chksum.c:420:9
	rev	r0, r5
	itt	ne
	lsrne	r5, r0, #16
.Ltmp85:
	@DEBUG_VALUE: inet_cksum_pseudo_partial_base:acc <- $r5
	rsbne.w	r8, r8, #1
.Ltmp86:
	@DEBUG_VALUE: inet_cksum_pseudo_partial_base:swapped <- $r8
	@DEBUG_VALUE: inet_cksum_pseudo_partial_base:q <- undef
	@DEBUG_VALUE: inet_cksum_pseudo_partial_base:chksum_len <- $r6
	.loc	3 407 3 is_stmt 1               @ rt-thread/components/net/lwip-2.0.2/src/core/inet_chksum.c:407:3
	lsls	r0, r6, #16
	@DEBUG_VALUE: inet_cksum_pseudo_partial_base:chksum_len <- $r6
	.loc	3 0 0 is_stmt 0                 @ rt-thread/components/net/lwip-2.0.2/src/core/inet_chksum.c:0:0
	itt	ne
	ldrne	r7, [r7]
.Ltmp87:
	@DEBUG_VALUE: inet_cksum_pseudo_partial_base:q <- $r7
	.loc	3 407 3                         @ rt-thread/components/net/lwip-2.0.2/src/core/inet_chksum.c:407:3
	cmpne	r7, #0
	beq	.LBB5_5
.Ltmp88:
.LBB5_3:                                @ =>This Inner Loop Header: Depth=1
	@DEBUG_VALUE: inet_cksum_pseudo_partial_base:q <- $r7
	@DEBUG_VALUE: inet_cksum_pseudo_partial_base:chksum_len <- $r6
	@DEBUG_VALUE: inet_cksum_pseudo_partial_base:chksum_len <- $r6
	@DEBUG_VALUE: inet_cksum_pseudo_partial_base:acc <- $r5
	@DEBUG_VALUE: inet_cksum_pseudo_partial_base:q <- $r7
	@DEBUG_VALUE: inet_cksum_pseudo_partial_base:swapped <- $r8
	.loc	3 411 16 is_stmt 1              @ rt-thread/components/net/lwip-2.0.2/src/core/inet_chksum.c:411:16
	uxth	r0, r6
.Ltmp89:
	.loc	3 410 17                        @ rt-thread/components/net/lwip-2.0.2/src/core/inet_chksum.c:410:17
	ldrh	r4, [r7, #10]
.Ltmp90:
	@DEBUG_VALUE: inet_cksum_pseudo_partial_base:chklen <- $r4
	.loc	3 411 9                         @ rt-thread/components/net/lwip-2.0.2/src/core/inet_chksum.c:411:9
	cmp	r4, r0
	it	hi
	movhi	r4, r6
.Ltmp91:
	@DEBUG_VALUE: inet_cksum_pseudo_partial_base:chklen <- $r4
	.loc	3 414 27                        @ rt-thread/components/net/lwip-2.0.2/src/core/inet_chksum.c:414:27
	ldr	r0, [r7, #4]
	.loc	3 414 36 is_stmt 0              @ rt-thread/components/net/lwip-2.0.2/src/core/inet_chksum.c:414:36
	uxth	r1, r4
	.loc	3 414 12                        @ rt-thread/components/net/lwip-2.0.2/src/core/inet_chksum.c:414:12
	bl	lwip_standard_chksum
	.loc	3 415 16 is_stmt 1              @ rt-thread/components/net/lwip-2.0.2/src/core/inet_chksum.c:415:16
	subs	r6, r6, r4
.Ltmp92:
	@DEBUG_VALUE: inet_cksum_pseudo_partial_base:chksum_len <- $r6
	.loc	3 414 12                        @ rt-thread/components/net/lwip-2.0.2/src/core/inet_chksum.c:414:12
	mov	r4, r0
.Ltmp93:
	@DEBUG_VALUE: inet_cksum_pseudo_partial_base:acc <- undef
	.loc	3 415 16                        @ rt-thread/components/net/lwip-2.0.2/src/core/inet_chksum.c:415:16
	uxth	r1, r6
.Ltmp94:
	.loc	3 416 5                         @ rt-thread/components/net/lwip-2.0.2/src/core/inet_chksum.c:416:5
	cmp	r1, r9
	blo	.LBB5_2
.Ltmp95:
@ %bb.4:                                @   in Loop: Header=BB5_3 Depth=1
	@DEBUG_VALUE: inet_cksum_pseudo_partial_base:swapped <- $r8
	@DEBUG_VALUE: inet_cksum_pseudo_partial_base:q <- $r7
	@DEBUG_VALUE: inet_cksum_pseudo_partial_base:chksum_len <- $r6
	.loc	3 416 5 is_stmt 0               @ rt-thread/components/net/lwip-2.0.2/src/core/inet_chksum.c:416:5
	mov	r0, r10
	bl	rt_kprintf
	mov.w	r1, #416
	mov	r0, r11
	bl	sys_arch_assert
	b	.LBB5_2
.Ltmp96:
.LBB5_5:
	@DEBUG_VALUE: inet_cksum_pseudo_partial_base:swapped <- $r8
	@DEBUG_VALUE: inet_cksum_pseudo_partial_base:q <- $r7
	@DEBUG_VALUE: inet_cksum_pseudo_partial_base:chksum_len <- $r6
	@DEBUG_VALUE: inet_cksum_pseudo_partial_base:acc <- $r5
	.loc	3 427 7 is_stmt 1               @ rt-thread/components/net/lwip-2.0.2/src/core/inet_chksum.c:427:7
	uxtb.w	r0, r8
	clz	r0, r0
	lsrs	r0, r0, #5
	ldrd	r2, r8, [sp, #4]                @ 8-byte Folded Reload
.Ltmp97:
.LBB5_6:
	@DEBUG_VALUE: inet_cksum_pseudo_partial_base:q <- $r7
	.loc	3 427 7 is_stmt 0               @ rt-thread/components/net/lwip-2.0.2/src/core/inet_chksum.c:427:7
	rev	r1, r5
	cmp	r0, #0
	.loc	3 431 17 is_stmt 1              @ rt-thread/components/net/lwip-2.0.2/src/core/inet_chksum.c:431:17
	mov	r0, r2
	.loc	3 427 7                         @ rt-thread/components/net/lwip-2.0.2/src/core/inet_chksum.c:427:7
	it	eq
	lsreq	r5, r1, #16
.Ltmp98:
	@DEBUG_VALUE: inet_cksum_pseudo_partial_base:acc <- $r5
	.loc	3 431 17                        @ rt-thread/components/net/lwip-2.0.2/src/core/inet_chksum.c:431:17
	bl	lwip_htons
	.loc	3 431 7 is_stmt 0               @ rt-thread/components/net/lwip-2.0.2/src/core/inet_chksum.c:431:7
	adds	r4, r5, r0
.Ltmp99:
	@DEBUG_VALUE: inet_cksum_pseudo_partial_base:acc <- $r4
	.loc	3 432 17 is_stmt 1              @ rt-thread/components/net/lwip-2.0.2/src/core/inet_chksum.c:432:17
	mov	r0, r8
	bl	lwip_htons
	.loc	3 432 7 is_stmt 0               @ rt-thread/components/net/lwip-2.0.2/src/core/inet_chksum.c:432:7
	add	r0, r4
.Ltmp100:
	@DEBUG_VALUE: inet_cksum_pseudo_partial_base:acc <- $r0
	.loc	3 436 9 is_stmt 1               @ rt-thread/components/net/lwip-2.0.2/src/core/inet_chksum.c:436:9
	lsrs	r1, r0, #16
	uxtah	r0, r1, r0
.Ltmp101:
	@DEBUG_VALUE: inet_cksum_pseudo_partial_base:acc <- $r0
	.loc	3 437 9                         @ rt-thread/components/net/lwip-2.0.2/src/core/inet_chksum.c:437:9
	add.w	r0, r0, r0, lsr #16
.Ltmp102:
	@DEBUG_VALUE: inet_cksum_pseudo_partial_base:acc <- undef
	.loc	3 439 10                        @ rt-thread/components/net/lwip-2.0.2/src/core/inet_chksum.c:439:10
	mvns	r0, r0
	.loc	3 439 3 is_stmt 0               @ rt-thread/components/net/lwip-2.0.2/src/core/inet_chksum.c:439:3
	uxth	r0, r0
	add	sp, #12
	pop.w	{r4, r5, r6, r7, r8, r9, r10, r11, pc}
.Ltmp103:
	.p2align	2
@ %bb.7:
	.loc	3 0 3                           @ rt-thread/components/net/lwip-2.0.2/src/core/inet_chksum.c:0:3
.LCPI5_0:
.L.str:
	.asciz	"delete me\000\000"
.LCPI5_1:
.L.str.1:
	.asciz	"rt-thread/components/net/lwip-2.0.2/src/core/inet_chksum.c\000"
.Lfunc_end5:
	.size	inet_cksum_pseudo_partial_base, .Lfunc_end5-inet_cksum_pseudo_partial_base
	.cfi_endproc
	.cantunwind
	.fnend
                                        @ -- End function
	.section	.text.ip_chksum_pseudo_partial,"ax",%progbits
	.hidden	ip_chksum_pseudo_partial        @ -- Begin function ip_chksum_pseudo_partial
	.globl	ip_chksum_pseudo_partial
	.p2align	3
	.type	ip_chksum_pseudo_partial,%function
	.code	16                              @ @ip_chksum_pseudo_partial
	.thumb_func
ip_chksum_pseudo_partial:
.Lfunc_begin6:
	.loc	3 528 0 is_stmt 1               @ rt-thread/components/net/lwip-2.0.2/src/core/inet_chksum.c:528:0
	.fnstart
	.cfi_startproc
@ %bb.0:
	@DEBUG_VALUE: ip_chksum_pseudo_partial:p <- $r0
	@DEBUG_VALUE: ip_chksum_pseudo_partial:proto <- $r1
	@DEBUG_VALUE: ip_chksum_pseudo_partial:proto_len <- $r2
	@DEBUG_VALUE: ip_chksum_pseudo_partial:chksum_len <- $r3
	.save	{r7, lr}
	push	{r7, lr}
	.cfi_def_cfa_offset 8
	.cfi_offset lr, -4
	.cfi_offset r7, -8
	.pad	#8
	sub	sp, #8
	.cfi_def_cfa_offset 16
	ldrd	r12, lr, [sp, #16]
.Ltmp104:
	@DEBUG_VALUE: ip_chksum_pseudo_partial:dest <- [DW_OP_plus_uconst 20] [$sp+0]
	@DEBUG_VALUE: ip_chksum_pseudo_partial:src <- [DW_OP_plus_uconst 16] [$sp+0]
	@DEBUG_VALUE: ip_chksum_pseudo_partial:chksum_len <- $r3
	@DEBUG_VALUE: ip_chksum_pseudo_partial:proto_len <- $r2
	@DEBUG_VALUE: ip_chksum_pseudo_partial:proto <- $r1
	@DEBUG_VALUE: ip_chksum_pseudo_partial:p <- $r0
	.loc	3 539 12 prologue_end           @ rt-thread/components/net/lwip-2.0.2/src/core/inet_chksum.c:539:12
	strd	r12, lr, [sp]
	@DEBUG_VALUE: ip_chksum_pseudo_partial:chksum_len <- $r3
	@DEBUG_VALUE: ip_chksum_pseudo_partial:proto_len <- $r2
	@DEBUG_VALUE: ip_chksum_pseudo_partial:proto <- $r1
	@DEBUG_VALUE: ip_chksum_pseudo_partial:p <- $r0
	bl	inet_chksum_pseudo_partial
.Ltmp105:
	@DEBUG_VALUE: ip_chksum_pseudo_partial:chksum_len <- [DW_OP_LLVM_entry_value 1] $r3
	@DEBUG_VALUE: ip_chksum_pseudo_partial:proto_len <- [DW_OP_LLVM_entry_value 1] $r2
	@DEBUG_VALUE: ip_chksum_pseudo_partial:proto <- [DW_OP_LLVM_entry_value 1] $r1
	@DEBUG_VALUE: ip_chksum_pseudo_partial:p <- [DW_OP_LLVM_entry_value 1] $r0
	.loc	3 539 5 is_stmt 0               @ rt-thread/components/net/lwip-2.0.2/src/core/inet_chksum.c:539:5
	add	sp, #8
	pop	{r7, pc}
.Ltmp106:
.Lfunc_end6:
	.size	ip_chksum_pseudo_partial, .Lfunc_end6-ip_chksum_pseudo_partial
	.cfi_endproc
	.cantunwind
	.fnend
                                        @ -- End function
	.section	.text.inet_chksum,"ax",%progbits
	.hidden	inet_chksum                     @ -- Begin function inet_chksum
	.globl	inet_chksum
	.p2align	3
	.type	inet_chksum,%function
	.code	16                              @ @inet_chksum
	.thumb_func
inet_chksum:
.Lfunc_begin7:
	.loc	3 556 0 is_stmt 1               @ rt-thread/components/net/lwip-2.0.2/src/core/inet_chksum.c:556:0
	.fnstart
	.cfi_startproc
@ %bb.0:
	@DEBUG_VALUE: inet_chksum:dataptr <- $r0
	@DEBUG_VALUE: inet_chksum:dataptr <- $r0
	@DEBUG_VALUE: inet_chksum:len <- $r1
	@DEBUG_VALUE: inet_chksum:len <- $r1
	@DEBUG_VALUE: inet_chksum:len <- $r1
	@DEBUG_VALUE: inet_chksum:dataptr <- $r0
	.save	{r7, lr}
	push	{r7, lr}
	.cfi_def_cfa_offset 8
	.cfi_offset lr, -4
	.cfi_offset r7, -8
.Ltmp107:
	.loc	3 557 32 prologue_end           @ rt-thread/components/net/lwip-2.0.2/src/core/inet_chksum.c:557:32
	bl	lwip_standard_chksum
.Ltmp108:
	@DEBUG_VALUE: inet_chksum:len <- [DW_OP_LLVM_entry_value 1] $r1
	@DEBUG_VALUE: inet_chksum:dataptr <- [DW_OP_LLVM_entry_value 1] $r0
	.loc	3 0 32 is_stmt 0                @ rt-thread/components/net/lwip-2.0.2/src/core/inet_chksum.c:0:32
	movw	r1, #65535
	.loc	3 557 3                         @ rt-thread/components/net/lwip-2.0.2/src/core/inet_chksum.c:557:3
	eors	r0, r1
	pop	{r7, pc}
.Ltmp109:
.Lfunc_end7:
	.size	inet_chksum, .Lfunc_end7-inet_chksum
	.cfi_endproc
	.cantunwind
	.fnend
                                        @ -- End function
	.section	.text.inet_chksum_pbuf,"ax",%progbits
	.hidden	inet_chksum_pbuf                @ -- Begin function inet_chksum_pbuf
	.globl	inet_chksum_pbuf
	.p2align	3
	.type	inet_chksum_pbuf,%function
	.code	16                              @ @inet_chksum_pbuf
	.thumb_func
inet_chksum_pbuf:
.Lfunc_begin8:
	.loc	3 569 0 is_stmt 1               @ rt-thread/components/net/lwip-2.0.2/src/core/inet_chksum.c:569:0
	.fnstart
	.cfi_startproc
@ %bb.0:
	@DEBUG_VALUE: inet_chksum_pbuf:p <- $r0
	@DEBUG_VALUE: inet_chksum_pbuf:p <- $r0
	.save	{r4, r5, r6, r7, lr}
	push	{r4, r5, r6, r7, lr}
	.cfi_def_cfa_offset 20
	.cfi_offset lr, -4
	.cfi_offset r7, -8
	.cfi_offset r6, -12
	.cfi_offset r5, -16
	.cfi_offset r4, -20
	.pad	#4
	sub	sp, #4
	.cfi_def_cfa_offset 24
.Ltmp110:
	@DEBUG_VALUE: inet_chksum_pbuf:q <- $r0
	@DEBUG_VALUE: inet_chksum_pbuf:swapped <- 0
	@DEBUG_VALUE: inet_chksum_pbuf:acc <- 0
	@DEBUG_VALUE: inet_chksum_pbuf:q <- $r0
	.loc	3 576 3 prologue_end            @ rt-thread/components/net/lwip-2.0.2/src/core/inet_chksum.c:576:3
	cbz	r0, .LBB8_4
.Ltmp111:
@ %bb.1:
	@DEBUG_VALUE: inet_chksum_pbuf:q <- $r0
	@DEBUG_VALUE: inet_chksum_pbuf:p <- $r0
	@DEBUG_VALUE: inet_chksum_pbuf:acc <- 0
	@DEBUG_VALUE: inet_chksum_pbuf:swapped <- 0
	.loc	3 0 3 is_stmt 0                 @ rt-thread/components/net/lwip-2.0.2/src/core/inet_chksum.c:0:3
	mov	r4, r0
.Ltmp112:
	@DEBUG_VALUE: inet_chksum_pbuf:p <- $r4
	@DEBUG_VALUE: inet_chksum_pbuf:p <- $r4
	@DEBUG_VALUE: inet_chksum_pbuf:q <- $r4
	movs	r7, #0
	movs	r6, #0
.Ltmp113:
	.p2align	2
.LBB8_2:                                @ =>This Inner Loop Header: Depth=1
	@DEBUG_VALUE: inet_chksum_pbuf:q <- $r4
	@DEBUG_VALUE: inet_chksum_pbuf:q <- $r4
	@DEBUG_VALUE: inet_chksum_pbuf:acc <- $r6
	@DEBUG_VALUE: inet_chksum_pbuf:swapped <- $r7
	.loc	3 577 39 is_stmt 1              @ rt-thread/components/net/lwip-2.0.2/src/core/inet_chksum.c:577:39
	ldrh	r5, [r4, #10]
	.loc	3 577 27 is_stmt 0              @ rt-thread/components/net/lwip-2.0.2/src/core/inet_chksum.c:577:27
	ldr	r0, [r4, #4]
	.loc	3 577 12                        @ rt-thread/components/net/lwip-2.0.2/src/core/inet_chksum.c:577:12
	mov	r1, r5
	bl	lwip_standard_chksum
	.loc	3 577 9                         @ rt-thread/components/net/lwip-2.0.2/src/core/inet_chksum.c:577:9
	add	r0, r6
.Ltmp114:
	@DEBUG_VALUE: inet_chksum_pbuf:acc <- $r0
	.loc	3 578 11 is_stmt 1              @ rt-thread/components/net/lwip-2.0.2/src/core/inet_chksum.c:578:11
	lsrs	r1, r0, #16
	uxtah	r6, r1, r0
.Ltmp115:
	@DEBUG_VALUE: inet_chksum_pbuf:acc <- $r6
	.loc	3 579 16                        @ rt-thread/components/net/lwip-2.0.2/src/core/inet_chksum.c:579:16
	ands	r0, r5, #1
.Ltmp116:
	.loc	3 579 9 is_stmt 0               @ rt-thread/components/net/lwip-2.0.2/src/core/inet_chksum.c:579:9
	rev	r0, r6
	it	ne
	lsrne	r6, r0, #16
.Ltmp117:
	@DEBUG_VALUE: inet_chksum_pbuf:acc <- $r6
	.loc	3 576 33 is_stmt 1              @ rt-thread/components/net/lwip-2.0.2/src/core/inet_chksum.c:576:33
	ldr	r4, [r4]
.Ltmp118:
	@DEBUG_VALUE: inet_chksum_pbuf:p <- [DW_OP_LLVM_entry_value 1] $r0
	@DEBUG_VALUE: inet_chksum_pbuf:q <- $r4
	.loc	3 579 9                         @ rt-thread/components/net/lwip-2.0.2/src/core/inet_chksum.c:579:9
	it	ne
	rsbne.w	r7, r7, #1
.Ltmp119:
	@DEBUG_VALUE: inet_chksum_pbuf:swapped <- $r7
	.loc	3 576 3                         @ rt-thread/components/net/lwip-2.0.2/src/core/inet_chksum.c:576:3
	cmp	r4, #0
	bne	.LBB8_2
.Ltmp120:
@ %bb.3:
	@DEBUG_VALUE: inet_chksum_pbuf:swapped <- $r7
	@DEBUG_VALUE: inet_chksum_pbuf:acc <- $r6
	@DEBUG_VALUE: inet_chksum_pbuf:q <- $r4
	.loc	3 585 7                         @ rt-thread/components/net/lwip-2.0.2/src/core/inet_chksum.c:585:7
	uxtb	r0, r7
	clz	r0, r0
	lsrs	r0, r0, #5
	b	.LBB8_5
.Ltmp121:
.LBB8_4:
	@DEBUG_VALUE: inet_chksum_pbuf:q <- $r0
	@DEBUG_VALUE: inet_chksum_pbuf:p <- $r0
	@DEBUG_VALUE: inet_chksum_pbuf:acc <- 0
	@DEBUG_VALUE: inet_chksum_pbuf:swapped <- 0
	.loc	3 0 7 is_stmt 0                 @ rt-thread/components/net/lwip-2.0.2/src/core/inet_chksum.c:0:7
	movs	r0, #1
.Ltmp122:
	@DEBUG_VALUE: inet_chksum_pbuf:p <- [DW_OP_LLVM_entry_value 1] $r0
	movs	r6, #0
.Ltmp123:
.LBB8_5:
	.loc	3 585 7                         @ rt-thread/components/net/lwip-2.0.2/src/core/inet_chksum.c:585:7
	rev	r1, r6
	cmp	r0, #0
	it	eq
	lsreq	r6, r1, #16
.Ltmp124:
	@DEBUG_VALUE: inet_chksum_pbuf:acc <- $r6
	.loc	3 588 10 is_stmt 1              @ rt-thread/components/net/lwip-2.0.2/src/core/inet_chksum.c:588:10
	mvns	r0, r6
	.loc	3 588 3 is_stmt 0               @ rt-thread/components/net/lwip-2.0.2/src/core/inet_chksum.c:588:3
	uxth	r0, r0
	add	sp, #4
	pop	{r4, r5, r6, r7, pc}
.Ltmp125:
.Lfunc_end8:
	.size	inet_chksum_pbuf, .Lfunc_end8-inet_chksum_pbuf
	.cfi_endproc
	.cantunwind
	.fnend
                                        @ -- End function
	.file	4 "E:\\Smart-access-control\\Hardware\\CODE" "./rt-thread/components/net/lwip-2.0.2/src/include\\lwip/pbuf.h"
	.file	5 "E:\\Smart-access-control\\Hardware\\CODE" "./rt-thread/components/net/lwip-2.0.2/src/include\\lwip/ip4_addr.h"
	.file	6 "E:\\Smart-access-control\\Hardware\\CODE" "./rt-thread/components/net/lwip-2.0.2/src/include\\lwip/ip_addr.h"
	.section	".note.GNU-stack","",%progbits
	.eabi_attribute	30, 1	@ Tag_ABI_optimization_goals
	.ARM_attribute	16, 1	@ Tag_AV_eba