	.text
	.syntax unified
	.eabi_attribute	67, "2.09"	@ Tag_conformance
	.cpu	cortex-m7
	.eabi_attribute	6, 13	@ Tag_CPU_arch
	.eabi_attribute	7, 77	@ Tag_CPU_arch_profile
	.eabi_attribute	8, 0	@ Tag_ARM_ISA_use
	.eabi_attribute	9, 2	@ Tag_THUMB_ISA_use
	.fpu	fpv5-d16
	.eabi_attribute	36, 1	@ Tag_FP_HP_extension
	.eabi_attribute	34, 1	@ Tag_CPU_unaligned_access
	.eabi_attribute	17, 1	@ Tag_ABI_PCS_GOT_use
	.eabi_attribute	20, 2	@ Tag_ABI_FP_denormal
	.eabi_attribute	21, 0	@ Tag_ABI_FP_exceptions
	.eabi_attribute	23, 1	@ Tag_ABI_FP_number_model
	.eabi_attribute	24, 1	@ Tag_ABI_align_needed
	.eabi_attribute	25, 1	@ Tag_ABI_align_preserved
	.eabi_attribute	28, 1	@ Tag_ABI_VFP_args
	.eabi_attribute	38, 1	@ Tag_ABI_FP_16bit_format
	.eabi_attribute	18, 2	@ Tag_ABI_PCS_wchar_t
	.eabi_attribute	26, 1	@ Tag_ABI_enum_size
	.eabi_attribute	14, 0	@ Tag_ABI_PCS_R9_use
	.file	"inet_chksum.c"
	.file	1 "D:\\Keil_v5\\ARM\\ARMCLANG\\Bin\\..\\include" "stdint.h"
	.file	2 "E:\\STM32\\Learning\\STM32H750_ART_PI_RGBLCD" "./rt-thread/components/net/lwip-2.0.2/src/include\\lwip/arch.h"
	.section	.text.lwip_standard_chksum,"ax",%progbits
	.hidden	lwip_standard_chksum            @ -- Begin function lwip_standard_chksum
	.globl	lwip_standard_chksum
	.p2align	3
	.type	lwip_standard_chksum,%function
	.code	16                              @ @lwip_standard_chksum
	.thumb_func
lwip_standard_chksum:
.Lfunc_begin0:
	.file	3 "E:\\STM32\\Learning\\STM32H750_ART_PI_RGBLCD" "rt-thread/components/net/lwip-2.0.2/src/core/inet_chksum.c"
	.loc	3 134 0                         @ rt-thread/components/net/lwip-2.0.2/src/core/inet_chksum.c:134:0
	.fnstart
	.cfi_sections .debug_frame
	.cfi_startproc
@ %bb.0:
	.pad	#28
	sub	sp, #28
	.cfi_def_cfa_offset 28
	str	r0, [sp, #24]
	str	r1, [sp, #20]
.Ltmp0:
	.loc	3 135 34 prologue_end           @ rt-thread/components/net/lwip-2.0.2/src/core/inet_chksum.c:135:34
	ldr	r0, [sp, #24]
	.loc	3 135 15 is_stmt 0              @ rt-thread/components/net/lwip-2.0.2/src/core/inet_chksum.c:135:15
	str	r0, [sp, #16]
	movs	r0, #0
	.loc	3 137 9 is_stmt 1               @ rt-thread/components/net/lwip-2.0.2/src/core/inet_chksum.c:137:9
	strh.w	r0, [sp, #10]
	.loc	3 138 9                         @ rt-thread/components/net/lwip-2.0.2/src/core/inet_chksum.c:138:9
	str	r0, [sp, #4]
	.loc	3 139 25                        @ rt-thread/components/net/lwip-2.0.2/src/core/inet_chksum.c:139:25
	ldr	r0, [sp, #16]
	.loc	3 139 28 is_stmt 0              @ rt-thread/components/net/lwip-2.0.2/src/core/inet_chksum.c:139:28
	and	r0, r0, #1
	.loc	3 139 7                         @ rt-thread/components/net/lwip-2.0.2/src/core/inet_chksum.c:139:7
	str	r0, [sp]
.Ltmp1:
	.loc	3 142 7 is_stmt 1               @ rt-thread/components/net/lwip-2.0.2/src/core/inet_chksum.c:142:7
	ldr	r0, [sp]
	.loc	3 142 11 is_stmt 0              @ rt-thread/components/net/lwip-2.0.2/src/core/inet_chksum.c:142:11
	cbz	r0, .LBB0_3
	b	.LBB0_1
.LBB0_1:
	.loc	3 142 14                        @ rt-thread/components/net/lwip-2.0.2/src/core/inet_chksum.c:142:14
	ldr	r0, [sp, #20]
.Ltmp2:
	.loc	3 142 7                         @ rt-thread/components/net/lwip-2.0.2/src/core/inet_chksum.c:142:7
	cmp	r0, #1
	blt	.LBB0_3
	b	.LBB0_2
.LBB0_2:
.Ltmp3:
	.loc	3 143 26 is_stmt 1              @ rt-thread/components/net/lwip-2.0.2/src/core/inet_chksum.c:143:26
	ldr	r0, [sp, #16]
	adds	r1, r0, #1
	str	r1, [sp, #16]
	.loc	3 143 23 is_stmt 0              @ rt-thread/components/net/lwip-2.0.2/src/core/inet_chksum.c:143:23
	ldrb	r0, [r0]
	.loc	3 143 21                        @ rt-thread/components/net/lwip-2.0.2/src/core/inet_chksum.c:143:21
	strb.w	r0, [sp, #11]
	.loc	3 144 8 is_stmt 1               @ rt-thread/components/net/lwip-2.0.2/src/core/inet_chksum.c:144:8
	ldr	r0, [sp, #20]
	subs	r0, #1
	str	r0, [sp, #20]
	.loc	3 145 3                         @ rt-thread/components/net/lwip-2.0.2/src/core/inet_chksum.c:145:3
	b	.LBB0_3
.Ltmp4:
.LBB0_3:
	.loc	3 148 37                        @ rt-thread/components/net/lwip-2.0.2/src/core/inet_chksum.c:148:37
	ldr	r0, [sp, #16]
	.loc	3 148 6 is_stmt 0               @ rt-thread/components/net/lwip-2.0.2/src/core/inet_chksum.c:148:6
	str	r0, [sp, #12]
	.loc	3 149 3 is_stmt 1               @ rt-thread/components/net/lwip-2.0.2/src/core/inet_chksum.c:149:3
	b	.LBB0_4
.LBB0_4:                                @ =>This Inner Loop Header: Depth=1
	.loc	3 149 10 is_stmt 0              @ rt-thread/components/net/lwip-2.0.2/src/core/inet_chksum.c:149:10
	ldr	r0, [sp, #20]
	.loc	3 149 3                         @ rt-thread/components/net/lwip-2.0.2/src/core/inet_chksum.c:149:3
	cmp	r0, #2
	blt	.LBB0_6
	b	.LBB0_5
.LBB0_5:                                @   in Loop: Header=BB0_4 Depth=1
.Ltmp5:
	.loc	3 150 15 is_stmt 1              @ rt-thread/components/net/lwip-2.0.2/src/core/inet_chksum.c:150:15
	ldr	r0, [sp, #12]
	adds	r1, r0, #2
	str	r1, [sp, #12]
	.loc	3 150 12 is_stmt 0              @ rt-thread/components/net/lwip-2.0.2/src/core/inet_chksum.c:150:12
	ldrh	r1, [r0]
	.loc	3 150 9                         @ rt-thread/components/net/lwip-2.0.2/src/core/inet_chksum.c:150:9
	ldr	r0, [sp, #4]
	add	r0, r1
	str	r0, [sp, #4]
	.loc	3 151 9 is_stmt 1               @ rt-thread/components/net/lwip-2.0.2/src/core/inet_chksum.c:151:9
	ldr	r0, [sp, #20]
	subs	r0, #2
	str	r0, [sp, #20]
.Ltmp6:
	.loc	3 149 3                         @ rt-thread/components/net/lwip-2.0.2/src/core/inet_chksum.c:149:3
	b	.LBB0_4
.LBB0_6:
.Ltmp7:
	.loc	3 155 7                         @ rt-thread/components/net/lwip-2.0.2/src/core/inet_chksum.c:155:7
	ldr	r0, [sp, #20]
.Ltmp8:
	.loc	3 155 7 is_stmt 0               @ rt-thread/components/net/lwip-2.0.2/src/core/inet_chksum.c:155:7
	cmp	r0, #1
	blt	.LBB0_8
	b	.LBB0_7
.LBB0_7:
.Ltmp9:
	.loc	3 156 38 is_stmt 1              @ rt-thread/components/net/lwip-2.0.2/src/core/inet_chksum.c:156:38
	ldr	r0, [sp, #12]
	.loc	3 156 23 is_stmt 0              @ rt-thread/components/net/lwip-2.0.2/src/core/inet_chksum.c:156:23
	ldrb	r0, [r0]
	.loc	3 156 21                        @ rt-thread/components/net/lwip-2.0.2/src/core/inet_chksum.c:156:21
	strb.w	r0, [sp, #10]
	.loc	3 157 3 is_stmt 1               @ rt-thread/components/net/lwip-2.0.2/src/core/inet_chksum.c:157:3
	b	.LBB0_8
.Ltmp10:
.LBB0_8:
	.loc	3 160 10                        @ rt-thread/components/net/lwip-2.0.2/src/core/inet_chksum.c:160:10
	ldrh.w	r1, [sp, #10]
	.loc	3 160 7 is_stmt 0               @ rt-thread/components/net/lwip-2.0.2/src/core/inet_chksum.c:160:7
	ldr	r0, [sp, #4]
	add	r0, r1
	str	r0, [sp, #4]
	.loc	3 164 9 is_stmt 1               @ rt-thread/components/net/lwip-2.0.2/src/core/inet_chksum.c:164:9
	ldr	r1, [sp, #4]
	lsrs	r0, r1, #16
	uxtah	r0, r0, r1
	.loc	3 164 7 is_stmt 0               @ rt-thread/components/net/lwip-2.0.2/src/core/inet_chksum.c:164:7
	str	r0, [sp, #4]
	.loc	3 165 9 is_stmt 1               @ rt-thread/components/net/lwip-2.0.2/src/core/inet_chksum.c:165:9
	ldr	r1, [sp, #4]
	lsrs	r0, r1, #16
	uxtah	r0, r0, r1
	.loc	3 165 7 is_stmt 0               @ rt-thread/components/net/lwip-2.0.2/src/core/inet_chksum.c:165:7
	str	r0, [sp, #4]
.Ltmp11:
	.loc	3 168 7 is_stmt 1               @ rt-thread/components/net/lwip-2.0.2/src/core/inet_chksum.c:168:7
	ldr	r0, [sp]
.Ltmp12:
	.loc	3 168 7 is_stmt 0               @ rt-thread/components/net/lwip-2.0.2/src/core/inet_chksum.c:168:7
	cbz	r0, .LBB0_10
	b	.LBB0_9
.LBB0_9:
.Ltmp13:
	.loc	3 169 11 is_stmt 1              @ rt-thread/components/net/lwip-2.0.2/src/core/inet_chksum.c:169:11
	ldr	r0, [sp, #4]
	rev	r0, r0
	lsrs	r0, r0, #16
	.loc	3 169 9 is_stmt 0               @ rt-thread/components/net/lwip-2.0.2/src/core/inet_chksum.c:169:9
	str	r0, [sp, #4]
	.loc	3 170 3 is_stmt 1               @ rt-thread/components/net/lwip-2.0.2/src/core/inet_chksum.c:170:3
	b	.LBB0_10
.Ltmp14:
.LBB0_10:
	.loc	3 172 17                        @ rt-thread/components/net/lwip-2.0.2/src/core/inet_chksum.c:172:17
	ldrh.w	r0, [sp, #4]
	.loc	3 172 3 is_stmt 0               @ rt-thread/components/net/lwip-2.0.2/src/core/inet_chksum.c:172:3
	add	sp, #28
	bx	lr
.Ltmp15:
.Lfunc_end0:
	.size	lwip_standard_chksum, .Lfunc_end0-lwip_standard_chksum
	.cfi_endproc
	.cantunwind
	.fnend
                                        @ -- End function
	.section	.text.inet_chksum_pseudo,"ax",%progbits
	.hidden	inet_chksum_pseudo              @ -- Begin function inet_chksum_pseudo
	.globl	inet_chksum_pseudo
	.p2align	3
	.type	inet_chksum_pseudo,%function
	.code	16                              @ @inet_chksum_pseudo
	.thumb_func
inet_chksum_pseudo:
.Lfunc_begin1:
	.loc	3 312 0 is_stmt 1               @ rt-thread/components/net/lwip-2.0.2/src/core/inet_chksum.c:312:0
	.fnstart
	.cfi_startproc
@ %bb.0:
	.save	{r7, lr}
	push	{r7, lr}
	.cfi_def_cfa_offset 8
	.cfi_offset lr, -4
	.cfi_offset r7, -8
	.pad	#24
	sub	sp, #24
	.cfi_def_cfa_offset 32
	ldr.w	r12, [sp, #32]
                                        @ kill: def $r12 killed $r2
                                        @ kill: def $r12 killed $r1
	str	r0, [sp, #20]
	strb.w	r1, [sp, #19]
	strh.w	r2, [sp, #16]
	str	r3, [sp, #12]
.Ltmp16:
	.loc	3 316 10 prologue_end           @ rt-thread/components/net/lwip-2.0.2/src/core/inet_chksum.c:316:10
	ldr	r0, [sp, #12]
	ldr	r0, [r0]
	.loc	3 316 8 is_stmt 0               @ rt-thread/components/net/lwip-2.0.2/src/core/inet_chksum.c:316:8
	str	r0, [sp, #4]
	.loc	3 317 10 is_stmt 1              @ rt-thread/components/net/lwip-2.0.2/src/core/inet_chksum.c:317:10
	ldrh.w	r0, [sp, #4]
	.loc	3 317 7 is_stmt 0               @ rt-thread/components/net/lwip-2.0.2/src/core/inet_chksum.c:317:7
	str	r0, [sp, #8]
	.loc	3 318 12 is_stmt 1              @ rt-thread/components/net/lwip-2.0.2/src/core/inet_chksum.c:318:12
	ldrh.w	r1, [sp, #6]
	.loc	3 318 7 is_stmt 0               @ rt-thread/components/net/lwip-2.0.2/src/core/inet_chksum.c:318:7
	ldr	r0, [sp, #8]
	add	r0, r1
	str	r0, [sp, #8]
	.loc	3 319 10 is_stmt 1              @ rt-thread/components/net/lwip-2.0.2/src/core/inet_chksum.c:319:10
	ldr	r0, [sp, #32]
	ldr	r0, [r0]
	.loc	3 319 8 is_stmt 0               @ rt-thread/components/net/lwip-2.0.2/src/core/inet_chksum.c:319:8
	str	r0, [sp, #4]
	.loc	3 320 11 is_stmt 1              @ rt-thread/components/net/lwip-2.0.2/src/core/inet_chksum.c:320:11
	ldrh.w	r1, [sp, #4]
	.loc	3 320 7 is_stmt 0               @ rt-thread/components/net/lwip-2.0.2/src/core/inet_chksum.c:320:7
	ldr	r0, [sp, #8]
	add	r0, r1
	str	r0, [sp, #8]
	.loc	3 321 12 is_stmt 1              @ rt-thread/components/net/lwip-2.0.2/src/core/inet_chksum.c:321:12
	ldrh.w	r1, [sp, #6]
	.loc	3 321 7 is_stmt 0               @ rt-thread/components/net/lwip-2.0.2/src/core/inet_chksum.c:321:7
	ldr	r0, [sp, #8]
	add	r0, r1
	str	r0, [sp, #8]
	.loc	3 323 9 is_stmt 1               @ rt-thread/components/net/lwip-2.0.2/src/core/inet_chksum.c:323:9
	ldr	r1, [sp, #8]
	lsrs	r0, r1, #16
	uxtah	r0, r0, r1
	.loc	3 323 7 is_stmt 0               @ rt-thread/components/net/lwip-2.0.2/src/core/inet_chksum.c:323:7
	str	r0, [sp, #8]
	.loc	3 324 9 is_stmt 1               @ rt-thread/components/net/lwip-2.0.2/src/core/inet_chksum.c:324:9
	ldr	r1, [sp, #8]
	lsrs	r0, r1, #16
	uxtah	r0, r0, r1
	.loc	3 324 7 is_stmt 0               @ rt-thread/components/net/lwip-2.0.2/src/core/inet_chksum.c:324:7
	str	r0, [sp, #8]
	.loc	3 326 33 is_stmt 1              @ rt-thread/components/net/lwip-2.0.2/src/core/inet_chksum.c:326:33
	ldr	r0, [sp, #20]
	.loc	3 326 36 is_stmt 0              @ rt-thread/components/net/lwip-2.0.2/src/core/inet_chksum.c:326:36
	ldrb.w	r1, [sp, #19]
	.loc	3 326 43                        @ rt-thread/components/net/lwip-2.0.2/src/core/inet_chksum.c:326:43
	ldrh.w	r2, [sp, #16]
	.loc	3 326 54                        @ rt-thread/components/net/lwip-2.0.2/src/core/inet_chksum.c:326:54
	ldr	r3, [sp, #8]
	.loc	3 326 10                        @ rt-thread/components/net/lwip-2.0.2/src/core/inet_chksum.c:326:10
	bl	inet_cksum_pseudo_base
	.loc	3 326 3                         @ rt-thread/components/net/lwip-2.0.2/src/core/inet_chksum.c:326:3
	add	sp, #24
	pop	{r7, pc}
.Ltmp17:
.Lfunc_end1:
	.size	inet_chksum_pseudo, .Lfunc_end1-inet_chksum_pseudo
	.cfi_endproc
	.cantunwind
	.fnend
                                        @ -- End function
	.section	.text.inet_cksum_pseudo_base,"ax",%progbits
	.p2align	3                               @ -- Begin function inet_cksum_pseudo_base
	.type	inet_cksum_pseudo_base,%function
	.code	16                              @ @inet_cksum_pseudo_base
	.thumb_func
inet_cksum_pseudo_base:
.Lfunc_begin2:
	.loc	3 261 0 is_stmt 1               @ rt-thread/components/net/lwip-2.0.2/src/core/inet_chksum.c:261:0
	.fnstart
	.cfi_startproc
@ %bb.0:
	.save	{r7, lr}
	push	{r7, lr}
	.cfi_def_cfa_offset 8
	.cfi_offset lr, -4
	.cfi_offset r7, -8
	.pad	#24
	sub	sp, #24
	.cfi_def_cfa_offset 32
                                        @ kill: def $r12 killed $r2
                                        @ kill: def $r12 killed $r1
	str	r0, [sp, #20]
	strb.w	r1, [sp, #19]
	strh.w	r2, [sp, #16]
	str	r3, [sp, #12]
	movs	r0, #0
.Ltmp18:
	.loc	3 263 8 prologue_end            @ rt-thread/components/net/lwip-2.0.2/src/core/inet_chksum.c:263:8
	strb.w	r0, [sp, #7]
.Ltmp19:
	.loc	3 266 12                        @ rt-thread/components/net/lwip-2.0.2/src/core/inet_chksum.c:266:12
	ldr	r0, [sp, #20]
	.loc	3 266 10 is_stmt 0              @ rt-thread/components/net/lwip-2.0.2/src/core/inet_chksum.c:266:10
	str	r0, [sp, #8]
	.loc	3 266 8                         @ rt-thread/components/net/lwip-2.0.2/src/core/inet_chksum.c:266:8
	b	.LBB2_1
.LBB2_1:                                @ =>This Inner Loop Header: Depth=1
.Ltmp20:
	.loc	3 266 15                        @ rt-thread/components/net/lwip-2.0.2/src/core/inet_chksum.c:266:15
	ldr	r0, [sp, #8]
.Ltmp21:
	.loc	3 266 3                         @ rt-thread/components/net/lwip-2.0.2/src/core/inet_chksum.c:266:3
	cbz	r0, .LBB2_6
	b	.LBB2_2
.LBB2_2:                                @   in Loop: Header=BB2_1 Depth=1
.Ltmp22:
	.loc	3 269 24 is_stmt 1              @ rt-thread/components/net/lwip-2.0.2/src/core/inet_chksum.c:269:24
	ldr	r1, [sp, #8]
	.loc	3 269 27 is_stmt 0              @ rt-thread/components/net/lwip-2.0.2/src/core/inet_chksum.c:269:27
	ldr	r0, [r1, #4]
	.loc	3 269 39                        @ rt-thread/components/net/lwip-2.0.2/src/core/inet_chksum.c:269:39
	ldrh	r1, [r1, #10]
	.loc	3 269 12                        @ rt-thread/components/net/lwip-2.0.2/src/core/inet_chksum.c:269:12
	bl	lwip_standard_chksum
	mov	r1, r0
	.loc	3 269 9                         @ rt-thread/components/net/lwip-2.0.2/src/core/inet_chksum.c:269:9
	ldr	r0, [sp, #12]
	add	r0, r1
	str	r0, [sp, #12]
	.loc	3 273 11 is_stmt 1              @ rt-thread/components/net/lwip-2.0.2/src/core/inet_chksum.c:273:11
	ldr	r1, [sp, #12]
	lsrs	r0, r1, #16
	uxtah	r0, r0, r1
	.loc	3 273 9 is_stmt 0               @ rt-thread/components/net/lwip-2.0.2/src/core/inet_chksum.c:273:9
	str	r0, [sp, #12]
.Ltmp23:
	.loc	3 274 9 is_stmt 1               @ rt-thread/components/net/lwip-2.0.2/src/core/inet_chksum.c:274:9
	ldr	r0, [sp, #8]
	ldrh	r0, [r0, #10]
.Ltmp24:
	.loc	3 274 9 is_stmt 0               @ rt-thread/components/net/lwip-2.0.2/src/core/inet_chksum.c:274:9
	lsls	r0, r0, #31
	cbz	r0, .LBB2_4
	b	.LBB2_3
.LBB2_3:                                @   in Loop: Header=BB2_1 Depth=1
.Ltmp25:
	.loc	3 275 21 is_stmt 1              @ rt-thread/components/net/lwip-2.0.2/src/core/inet_chksum.c:275:21
	ldrb.w	r0, [sp, #7]
	.loc	3 275 19 is_stmt 0              @ rt-thread/components/net/lwip-2.0.2/src/core/inet_chksum.c:275:19
	rsb.w	r0, r0, #1
	.loc	3 275 15                        @ rt-thread/components/net/lwip-2.0.2/src/core/inet_chksum.c:275:15
	strb.w	r0, [sp, #7]
	.loc	3 276 13 is_stmt 1              @ rt-thread/components/net/lwip-2.0.2/src/core/inet_chksum.c:276:13
	ldr	r0, [sp, #12]
	rev	r0, r0
	lsrs	r0, r0, #16
	.loc	3 276 11 is_stmt 0              @ rt-thread/components/net/lwip-2.0.2/src/core/inet_chksum.c:276:11
	str	r0, [sp, #12]
	.loc	3 277 5 is_stmt 1               @ rt-thread/components/net/lwip-2.0.2/src/core/inet_chksum.c:277:5
	b	.LBB2_4
.Ltmp26:
.LBB2_4:                                @   in Loop: Header=BB2_1 Depth=1
	.loc	3 279 3                         @ rt-thread/components/net/lwip-2.0.2/src/core/inet_chksum.c:279:3
	b	.LBB2_5
.Ltmp27:
.LBB2_5:                                @   in Loop: Header=BB2_1 Depth=1
	.loc	3 266 30                        @ rt-thread/components/net/lwip-2.0.2/src/core/inet_chksum.c:266:30
	ldr	r0, [sp, #8]
	.loc	3 266 33 is_stmt 0              @ rt-thread/components/net/lwip-2.0.2/src/core/inet_chksum.c:266:33
	ldr	r0, [r0]
	.loc	3 266 28                        @ rt-thread/components/net/lwip-2.0.2/src/core/inet_chksum.c:266:28
	str	r0, [sp, #8]
	.loc	3 266 3                         @ rt-thread/components/net/lwip-2.0.2/src/core/inet_chksum.c:266:3
	b	.LBB2_1
.Ltmp28:
.LBB2_6:
	.loc	3 281 7 is_stmt 1               @ rt-thread/components/net/lwip-2.0.2/src/core/inet_chksum.c:281:7
	ldrb.w	r0, [sp, #7]
.Ltmp29:
	.loc	3 281 7 is_stmt 0               @ rt-thread/components/net/lwip-2.0.2/src/core/inet_chksum.c:281:7
	cbz	r0, .LBB2_8
	b	.LBB2_7
.LBB2_7:
.Ltmp30:
	.loc	3 282 11 is_stmt 1              @ rt-thread/components/net/lwip-2.0.2/src/core/inet_chksum.c:282:11
	ldr	r0, [sp, #12]
	rev	r0, r0
	lsrs	r0, r0, #16
	.loc	3 282 9 is_stmt 0               @ rt-thread/components/net/lwip-2.0.2/src/core/inet_chksum.c:282:9
	str	r0, [sp, #12]
	.loc	3 283 3 is_stmt 1               @ rt-thread/components/net/lwip-2.0.2/src/core/inet_chksum.c:283:3
	b	.LBB2_8
.Ltmp31:
.LBB2_8:
	.loc	3 285 35                        @ rt-thread/components/net/lwip-2.0.2/src/core/inet_chksum.c:285:35
	ldrb.w	r0, [sp, #19]
	.loc	3 285 17 is_stmt 0              @ rt-thread/components/net/lwip-2.0.2/src/core/inet_chksum.c:285:17
	bl	lwip_htons
	mov	r1, r0
	.loc	3 285 7                         @ rt-thread/components/net/lwip-2.0.2/src/core/inet_chksum.c:285:7
	ldr	r0, [sp, #12]
	add	r0, r1
	str	r0, [sp, #12]
	.loc	3 286 28 is_stmt 1              @ rt-thread/components/net/lwip-2.0.2/src/core/inet_chksum.c:286:28
	ldrh.w	r0, [sp, #16]
	.loc	3 286 17 is_stmt 0              @ rt-thread/components/net/lwip-2.0.2/src/core/inet_chksum.c:286:17
	bl	lwip_htons
	mov	r1, r0
	.loc	3 286 7                         @ rt-thread/components/net/lwip-2.0.2/src/core/inet_chksum.c:286:7
	ldr	r0, [sp, #12]
	add	r0, r1
	str	r0, [sp, #12]
	.loc	3 290 9 is_stmt 1               @ rt-thread/components/net/lwip-2.0.2/src/core/inet_chksum.c:290:9
	ldr	r1, [sp, #12]
	lsrs	r0, r1, #16
	uxtah	r0, r0, r1
	.loc	3 290 7 is_stmt 0               @ rt-thread/components/net/lwip-2.0.2/src/core/inet_chksum.c:290:7
	str	r0, [sp, #12]
	.loc	3 291 9 is_stmt 1               @ rt-thread/components/net/lwip-2.0.2/src/core/inet_chksum.c:291:9
	ldr	r1, [sp, #12]
	lsrs	r0, r1, #16
	uxtah	r0, r0, r1
	.loc	3 291 7 is_stmt 0               @ rt-thread/components/net/lwip-2.0.2/src/core/inet_chksum.c:291:7
	str	r0, [sp, #12]
	.loc	3 293 19 is_stmt 1              @ rt-thread/components/net/lwip-2.0.2/src/core/inet_chksum.c:293:19
	ldrh.w	r0, [sp, #12]
	movw	r1, #65535
	eors	r0, r1
	.loc	3 293 3 is_stmt 0               @ rt-thread/components/net/lwip-2.0.2/src/core/inet_chksum.c:293:3
	add	sp, #24
	pop	{r7, pc}
.Ltmp32:
.Lfunc_end2:
	.size	inet_cksum_pseudo_base, .Lfunc_end2-inet_cksum_pseudo_base
	.cfi_endproc
	.cantunwind
	.fnend
                                        @ -- End function
	.section	.text.ip_chksum_pseudo,"ax",%progbits
	.hidden	ip_chksum_pseudo                @ -- Begin function ip_chksum_pseudo
	.globl	ip_chksum_pseudo
	.p2align	3
	.type	ip_chksum_pseudo,%function
	.code	16                              @ @ip_chksum_pseudo
	.thumb_func
ip_chksum_pseudo:
.Lfunc_begin3:
	.loc	3 381 0 is_stmt 1               @ rt-thread/components/net/lwip-2.0.2/src/core/inet_chksum.c:381:0
	.fnstart
	.cfi_startproc
@ %bb.0:
	.save	{r7, lr}
	push	{r7, lr}
	.cfi_def_cfa_offset 8
	.cfi_offset lr, -4
	.cfi_offset r7, -8
	.pad	#16
	sub	sp, #16
	.cfi_def_cfa_offset 24
	ldr.w	r12, [sp, #24]
                                        @ kill: def $r12 killed $r2
                                        @ kill: def $r12 killed $r1
	str	r0, [sp, #12]
	strb.w	r1, [sp, #11]
	strh.w	r2, [sp, #8]
	str	r3, [sp, #4]
.Ltmp33:
	.loc	3 392 31 prologue_end           @ rt-thread/components/net/lwip-2.0.2/src/core/inet_chksum.c:392:31
	ldr	r0, [sp, #12]
	.loc	3 392 34 is_stmt 0              @ rt-thread/components/net/lwip-2.0.2/src/core/inet_chksum.c:392:34
	ldrb.w	r1, [sp, #11]
	.loc	3 392 41                        @ rt-thread/components/net/lwip-2.0.2/src/core/inet_chksum.c:392:41
	ldrh.w	r2, [sp, #8]
	.loc	3 392 52                        @ rt-thread/components/net/lwip-2.0.2/src/core/inet_chksum.c:392:52
	ldr	r3, [sp, #4]
	.loc	3 392 67                        @ rt-thread/components/net/lwip-2.0.2/src/core/inet_chksum.c:392:67
	ldr.w	r12, [sp, #24]
	.loc	3 392 12                        @ rt-thread/components/net/lwip-2.0.2/src/core/inet_chksum.c:392:12
	mov	lr, sp
	str.w	r12, [lr]
	bl	inet_chksum_pseudo
	.loc	3 392 5                         @ rt-thread/components/net/lwip-2.0.2/src/core/inet_chksum.c:392:5
	add	sp, #16
	pop	{r7, pc}
.Ltmp34:
.Lfunc_end3:
	.size	ip_chksum_pseudo, .Lfunc_end3-ip_chksum_pseudo
	.cfi_endproc
	.cantunwind
	.fnend
                                        @ -- End function
	.section	.text.inet_chksum_pseudo_partial,"ax",%progbits
	.hidden	inet_chksum_pseudo_partial      @ -- Begin function inet_chksum_pseudo_partial
	.globl	inet_chksum_pseudo_partial
	.p2align	3
	.type	inet_chksum_pseudo_partial,%function
	.code	16                              @ @inet_chksum_pseudo_partial
	.thumb_func
inet_chksum_pseudo_partial:
.Lfunc_begin4:
	.loc	3 458 0 is_stmt 1               @ rt-thread/components/net/lwip-2.0.2/src/core/inet_chksum.c:458:0
	.fnstart
	.cfi_startproc
@ %bb.0:
	.save	{r7, lr}
	push	{r7, lr}
	.cfi_def_cfa_offset 8
	.cfi_offset lr, -4
	.cfi_offset r7, -8
	.pad	#24
	sub	sp, #24
	.cfi_def_cfa_offset 32
	ldr.w	r12, [sp, #36]
	ldr.w	r12, [sp, #32]
                                        @ kill: def $r12 killed $r3
                                        @ kill: def $r12 killed $r2
                                        @ kill: def $r12 killed $r1
	str	r0, [sp, #20]
	strb.w	r1, [sp, #19]
	strh.w	r2, [sp, #16]
	strh.w	r3, [sp, #14]
.Ltmp35:
	.loc	3 462 10 prologue_end           @ rt-thread/components/net/lwip-2.0.2/src/core/inet_chksum.c:462:10
	ldr	r0, [sp, #32]
	ldr	r0, [r0]
	.loc	3 462 8 is_stmt 0               @ rt-thread/components/net/lwip-2.0.2/src/core/inet_chksum.c:462:8
	str	r0, [sp, #4]
	.loc	3 463 10 is_stmt 1              @ rt-thread/components/net/lwip-2.0.2/src/core/inet_chksum.c:463:10
	ldrh.w	r0, [sp, #4]
	.loc	3 463 7 is_stmt 0               @ rt-thread/components/net/lwip-2.0.2/src/core/inet_chksum.c:463:7
	str	r0, [sp, #8]
	.loc	3 464 12 is_stmt 1              @ rt-thread/components/net/lwip-2.0.2/src/core/inet_chksum.c:464:12
	ldrh.w	r1, [sp, #6]
	.loc	3 464 7 is_stmt 0               @ rt-thread/components/net/lwip-2.0.2/src/core/inet_chksum.c:464:7
	ldr	r0, [sp, #8]
	add	r0, r1
	str	r0, [sp, #8]
	.loc	3 465 10 is_stmt 1              @ rt-thread/components/net/lwip-2.0.2/src/core/inet_chksum.c:465:10
	ldr	r0, [sp, #36]
	ldr	r0, [r0]
	.loc	3 465 8 is_stmt 0               @ rt-thread/components/net/lwip-2.0.2/src/core/inet_chksum.c:465:8
	str	r0, [sp, #4]
	.loc	3 466 11 is_stmt 1              @ rt-thread/components/net/lwip-2.0.2/src/core/inet_chksum.c:466:11
	ldrh.w	r1, [sp, #4]
	.loc	3 466 7 is_stmt 0               @ rt-thread/components/net/lwip-2.0.2/src/core/inet_chksum.c:466:7
	ldr	r0, [sp, #8]
	add	r0, r1
	str	r0, [sp, #8]
	.loc	3 467 12 is_stmt 1              @ rt-thread/components/net/lwip-2.0.2/src/core/inet_chksum.c:467:12
	ldrh.w	r1, [sp, #6]
	.loc	3 467 7 is_stmt 0               @ rt-thread/components/net/lwip-2.0.2/src/core/inet_chksum.c:467:7
	ldr	r0, [sp, #8]
	add	r0, r1
	str	r0, [sp, #8]
	.loc	3 469 9 is_stmt 1               @ rt-thread/components/net/lwip-2.0.2/src/core/inet_chksum.c:469:9
	ldr	r1, [sp, #8]
	lsrs	r0, r1, #16
	uxtah	r0, r0, r1
	.loc	3 469 7 is_stmt 0               @ rt-thread/components/net/lwip-2.0.2/src/core/inet_chksum.c:469:7
	str	r0, [sp, #8]
	.loc	3 470 9 is_stmt 1               @ rt-thread/components/net/lwip-2.0.2/src/core/inet_chksum.c:470:9
	ldr	r1, [sp, #8]
	lsrs	r0, r1, #16
	uxtah	r0, r0, r1
	.loc	3 470 7 is_stmt 0               @ rt-thread/components/net/lwip-2.0.2/src/core/inet_chksum.c:470:7
	str	r0, [sp, #8]
	.loc	3 472 41 is_stmt 1              @ rt-thread/components/net/lwip-2.0.2/src/core/inet_chksum.c:472:41
	ldr	r0, [sp, #20]
	.loc	3 472 44 is_stmt 0              @ rt-thread/components/net/lwip-2.0.2/src/core/inet_chksum.c:472:44
	ldrb.w	r1, [sp, #19]
	.loc	3 472 51                        @ rt-thread/components/net/lwip-2.0.2/src/core/inet_chksum.c:472:51
	ldrh.w	r2, [sp, #16]
	.loc	3 472 62                        @ rt-thread/components/net/lwip-2.0.2/src/core/inet_chksum.c:472:62
	ldrh.w	r3, [sp, #14]
	.loc	3 472 74                        @ rt-thread/components/net/lwip-2.0.2/src/core/inet_chksum.c:472:74
	ldr.w	r12, [sp, #8]
	.loc	3 472 10                        @ rt-thread/components/net/lwip-2.0.2/src/core/inet_chksum.c:472:10
	mov	lr, sp
	str.w	r12, [lr]
	bl	inet_cksum_pseudo_partial_base
	.loc	3 472 3                         @ rt-thread/components/net/lwip-2.0.2/src/core/inet_chksum.c:472:3
	add	sp, #24
	pop	{r7, pc}
.Ltmp36:
.Lfunc_end4:
	.size	inet_chksum_pseudo_partial, .Lfunc_end4-inet_chksum_pseudo_partial
	.cfi_endproc
	.cantunwind
	.fnend
                                        @ -- End function
	.section	.text.inet_cksum_pseudo_partial_base,"ax",%progbits
	.p2align	3                               @ -- Begin function inet_cksum_pseudo_partial_base
	.type	inet_cksum_pseudo_partial_base,%function
	.code	16                              @ @inet_cksum_pseudo_partial_base
	.thumb_func
inet_cksum_pseudo_partial_base:
.Lfunc_begin5:
	.loc	3 401 0 is_stmt 1               @ rt-thread/components/net/lwip-2.0.2/src/core/inet_chksum.c:401:0
	.fnstart
	.cfi_startproc
@ %bb.0:
	.save	{r7, lr}
	push	{r7, lr}
	.cfi_def_cfa_offset 8
	.cfi_offset lr, -4
	.cfi_offset r7, -8
	.pad	#24
	sub	sp, #24
	.cfi_def_cfa_offset 32
	ldr.w	r12, [sp, #32]
                                        @ kill: def $r12 killed $r3
                                        @ kill: def $r12 killed $r2
                                        @ kill: def $r12 killed $r1
	str	r0, [sp, #20]
	strb.w	r1, [sp, #19]
	strh.w	r2, [sp, #16]
	strh.w	r3, [sp, #14]
	movs	r0, #0
.Ltmp37:
	.loc	3 403 8 prologue_end            @ rt-thread/components/net/lwip-2.0.2/src/core/inet_chksum.c:403:8
	strb.w	r0, [sp, #7]
.Ltmp38:
	.loc	3 407 12                        @ rt-thread/components/net/lwip-2.0.2/src/core/inet_chksum.c:407:12
	ldr	r0, [sp, #20]
	.loc	3 407 10 is_stmt 0              @ rt-thread/components/net/lwip-2.0.2/src/core/inet_chksum.c:407:10
	str	r0, [sp, #8]
	.loc	3 407 8                         @ rt-thread/components/net/lwip-2.0.2/src/core/inet_chksum.c:407:8
	b	.LBB5_1
.LBB5_1:                                @ =>This Inner Loop Header: Depth=1
.Ltmp39:
	.loc	3 407 16                        @ rt-thread/components/net/lwip-2.0.2/src/core/inet_chksum.c:407:16
	ldr	r1, [sp, #8]
	movs	r0, #0
	.loc	3 407 27                        @ rt-thread/components/net/lwip-2.0.2/src/core/inet_chksum.c:407:27
	str	r0, [sp]                        @ 4-byte Spill
	cbz	r1, .LBB5_3
	b	.LBB5_2
.LBB5_2:                                @   in Loop: Header=BB5_1 Depth=1
	.loc	3 407 31                        @ rt-thread/components/net/lwip-2.0.2/src/core/inet_chksum.c:407:31
	ldrh.w	r1, [sp, #14]
	movs	r0, #0
	.loc	3 407 42                        @ rt-thread/components/net/lwip-2.0.2/src/core/inet_chksum.c:407:42
	cmp	r1, #0
	it	gt
	movgt	r0, #1
	str	r0, [sp]                        @ 4-byte Spill
	b	.LBB5_3
.LBB5_3:                                @   in Loop: Header=BB5_1 Depth=1
	.loc	3 0 0                           @ rt-thread/components/net/lwip-2.0.2/src/core/inet_chksum.c:0:0
	ldr	r0, [sp]                        @ 4-byte Reload
.Ltmp40:
	.loc	3 407 3                         @ rt-thread/components/net/lwip-2.0.2/src/core/inet_chksum.c:407:3
	lsls	r0, r0, #31
	cmp	r0, #0
	beq	.LBB5_16
	b	.LBB5_4
.LBB5_4:                                @   in Loop: Header=BB5_1 Depth=1
.Ltmp41:
	.loc	3 410 14 is_stmt 1              @ rt-thread/components/net/lwip-2.0.2/src/core/inet_chksum.c:410:14
	ldr	r0, [sp, #8]
	.loc	3 410 17 is_stmt 0              @ rt-thread/components/net/lwip-2.0.2/src/core/inet_chksum.c:410:17
	ldrh	r0, [r0, #10]
	.loc	3 410 12                        @ rt-thread/components/net/lwip-2.0.2/src/core/inet_chksum.c:410:12
	strh.w	r0, [sp, #4]
.Ltmp42:
	.loc	3 411 9 is_stmt 1               @ rt-thread/components/net/lwip-2.0.2/src/core/inet_chksum.c:411:9
	ldrh.w	r0, [sp, #4]
	.loc	3 411 18 is_stmt 0              @ rt-thread/components/net/lwip-2.0.2/src/core/inet_chksum.c:411:18
	ldrh.w	r1, [sp, #14]
.Ltmp43:
	.loc	3 411 9                         @ rt-thread/components/net/lwip-2.0.2/src/core/inet_chksum.c:411:9
	cmp	r0, r1
	ble	.LBB5_6
	b	.LBB5_5
.LBB5_5:                                @   in Loop: Header=BB5_1 Depth=1
.Ltmp44:
	.loc	3 412 16 is_stmt 1              @ rt-thread/components/net/lwip-2.0.2/src/core/inet_chksum.c:412:16
	ldrh.w	r0, [sp, #14]
	.loc	3 412 14 is_stmt 0              @ rt-thread/components/net/lwip-2.0.2/src/core/inet_chksum.c:412:14
	strh.w	r0, [sp, #4]
	.loc	3 413 5 is_stmt 1               @ rt-thread/components/net/lwip-2.0.2/src/core/inet_chksum.c:413:5
	b	.LBB5_6
.Ltmp45:
.LBB5_6:                                @   in Loop: Header=BB5_1 Depth=1
	.loc	3 414 24                        @ rt-thread/components/net/lwip-2.0.2/src/core/inet_chksum.c:414:24
	ldr	r0, [sp, #8]
	.loc	3 414 27 is_stmt 0              @ rt-thread/components/net/lwip-2.0.2/src/core/inet_chksum.c:414:27
	ldr	r0, [r0, #4]
	.loc	3 414 36                        @ rt-thread/components/net/lwip-2.0.2/src/core/inet_chksum.c:414:36
	ldrh.w	r1, [sp, #4]
	.loc	3 414 12                        @ rt-thread/components/net/lwip-2.0.2/src/core/inet_chksum.c:414:12
	bl	lwip_standard_chksum
	mov	r1, r0
	.loc	3 414 9                         @ rt-thread/components/net/lwip-2.0.2/src/core/inet_chksum.c:414:9
	ldr	r0, [sp, #32]
	add	r0, r1
	str	r0, [sp, #32]
	.loc	3 415 19 is_stmt 1              @ rt-thread/components/net/lwip-2.0.2/src/core/inet_chksum.c:415:19
	ldrh.w	r1, [sp, #4]
	.loc	3 415 16 is_stmt 0              @ rt-thread/components/net/lwip-2.0.2/src/core/inet_chksum.c:415:16
	ldrh.w	r0, [sp, #14]
	subs	r0, r0, r1
	strh.w	r0, [sp, #14]
	.loc	3 416 5 is_stmt 1               @ rt-thread/components/net/lwip-2.0.2/src/core/inet_chksum.c:416:5
	b	.LBB5_7
.LBB5_7:                                @   in Loop: Header=BB5_1 Depth=1
.Ltmp46:
	.loc	3 416 5 is_stmt 0               @ rt-thread/components/net/lwip-2.0.2/src/core/inet_chksum.c:416:5
	ldrh.w	r0, [sp, #14]
	movw	r1, #32767
.Ltmp47:
	.loc	3 416 5                         @ rt-thread/components/net/lwip-2.0.2/src/core/inet_chksum.c:416:5
	cmp	r0, r1
	blt	.LBB5_11
	b	.LBB5_8
.LBB5_8:                                @   in Loop: Header=BB5_1 Depth=1
.Ltmp48:
	.loc	3 416 5                         @ rt-thread/components/net/lwip-2.0.2/src/core/inet_chksum.c:416:5
	b	.LBB5_9
.LBB5_9:                                @   in Loop: Header=BB5_1 Depth=1
.Ltmp49:
	.loc	3 416 5                         @ rt-thread/components/net/lwip-2.0.2/src/core/inet_chksum.c:416:5
	movw	r0, :lower16:.L.str
	movt	r0, :upper16:.L.str
	bl	rt_kprintf
	movw	r0, :lower16:.L.str.1
	movt	r0, :upper16:.L.str.1
	mov.w	r1, #416
	bl	sys_arch_assert
	b	.LBB5_10
.Ltmp50:
.LBB5_10:                               @   in Loop: Header=BB5_1 Depth=1
	.loc	3 416 5                         @ rt-thread/components/net/lwip-2.0.2/src/core/inet_chksum.c:416:5
	b	.LBB5_11
.Ltmp51:
.LBB5_11:                               @   in Loop: Header=BB5_1 Depth=1
	.loc	3 416 5                         @ rt-thread/components/net/lwip-2.0.2/src/core/inet_chksum.c:416:5
	b	.LBB5_12
.Ltmp52:
.LBB5_12:                               @   in Loop: Header=BB5_1 Depth=1
	.loc	3 419 11 is_stmt 1              @ rt-thread/components/net/lwip-2.0.2/src/core/inet_chksum.c:419:11
	ldr	r1, [sp, #32]
	lsrs	r0, r1, #16
	uxtah	r0, r0, r1
	.loc	3 419 9 is_stmt 0               @ rt-thread/components/net/lwip-2.0.2/src/core/inet_chksum.c:419:9
	str	r0, [sp, #32]
.Ltmp53:
	.loc	3 420 9 is_stmt 1               @ rt-thread/components/net/lwip-2.0.2/src/core/inet_chksum.c:420:9
	ldr	r0, [sp, #8]
	ldrh	r0, [r0, #10]
.Ltmp54:
	.loc	3 420 9 is_stmt 0               @ rt-thread/components/net/lwip-2.0.2/src/core/inet_chksum.c:420:9
	lsls	r0, r0, #31
	cbz	r0, .LBB5_14
	b	.LBB5_13
.LBB5_13:                               @   in Loop: Header=BB5_1 Depth=1
.Ltmp55:
	.loc	3 421 21 is_stmt 1              @ rt-thread/components/net/lwip-2.0.2/src/core/inet_chksum.c:421:21
	ldrb.w	r0, [sp, #7]
	.loc	3 421 19 is_stmt 0              @ rt-thread/components/net/lwip-2.0.2/src/core/inet_chksum.c:421:19
	rsb.w	r0, r0, #1
	.loc	3 421 15                        @ rt-thread/components/net/lwip-2.0.2/src/core/inet_chksum.c:421:15
	strb.w	r0, [sp, #7]
	.loc	3 422 13 is_stmt 1              @ rt-thread/components/net/lwip-2.0.2/src/core/inet_chksum.c:422:13
	ldr	r0, [sp, #32]
	rev	r0, r0
	lsrs	r0, r0, #16
	.loc	3 422 11 is_stmt 0              @ rt-thread/components/net/lwip-2.0.2/src/core/inet_chksum.c:422:11
	str	r0, [sp, #32]
	.loc	3 423 5 is_stmt 1               @ rt-thread/components/net/lwip-2.0.2/src/core/inet_chksum.c:423:5
	b	.LBB5_14
.Ltmp56:
.LBB5_14:                               @   in Loop: Header=BB5_1 Depth=1
	.loc	3 425 3                         @ rt-thread/components/net/lwip-2.0.2/src/core/inet_chksum.c:425:3
	b	.LBB5_15
.Ltmp57:
.LBB5_15:                               @   in Loop: Header=BB5_1 Depth=1
	.loc	3 407 52                        @ rt-thread/components/net/lwip-2.0.2/src/core/inet_chksum.c:407:52
	ldr	r0, [sp, #8]
	.loc	3 407 55 is_stmt 0              @ rt-thread/components/net/lwip-2.0.2/src/core/inet_chksum.c:407:55
	ldr	r0, [r0]
	.loc	3 407 50                        @ rt-thread/components/net/lwip-2.0.2/src/core/inet_chksum.c:407:50
	str	r0, [sp, #8]
	.loc	3 407 3                         @ rt-thread/components/net/lwip-2.0.2/src/core/inet_chksum.c:407:3
	b	.LBB5_1
.Ltmp58:
.LBB5_16:
	.loc	3 427 7 is_stmt 1               @ rt-thread/components/net/lwip-2.0.2/src/core/inet_chksum.c:427:7
	ldrb.w	r0, [sp, #7]
.Ltmp59:
	.loc	3 427 7 is_stmt 0               @ rt-thread/components/net/lwip-2.0.2/src/core/inet_chksum.c:427:7
	cbz	r0, .LBB5_18
	b	.LBB5_17
.LBB5_17:
.Ltmp60:
	.loc	3 428 11 is_stmt 1              @ rt-thread/components/net/lwip-2.0.2/src/core/inet_chksum.c:428:11
	ldr	r0, [sp, #32]
	rev	r0, r0
	lsrs	r0, r0, #16
	.loc	3 428 9 is_stmt 0               @ rt-thread/components/net/lwip-2.0.2/src/core/inet_chksum.c:428:9
	str	r0, [sp, #32]
	.loc	3 429 3 is_stmt 1               @ rt-thread/components/net/lwip-2.0.2/src/core/inet_chksum.c:429:3
	b	.LBB5_18
.Ltmp61:
.LBB5_18:
	.loc	3 431 35                        @ rt-thread/components/net/lwip-2.0.2/src/core/inet_chksum.c:431:35
	ldrb.w	r0, [sp, #19]
	.loc	3 431 17 is_stmt 0              @ rt-thread/components/net/lwip-2.0.2/src/core/inet_chksum.c:431:17
	bl	lwip_htons
	mov	r1, r0
	.loc	3 431 7                         @ rt-thread/components/net/lwip-2.0.2/src/core/inet_chksum.c:431:7
	ldr	r0, [sp, #32]
	add	r0, r1
	str	r0, [sp, #32]
	.loc	3 432 28 is_stmt 1              @ rt-thread/components/net/lwip-2.0.2/src/core/inet_chksum.c:432:28
	ldrh.w	r0, [sp, #16]
	.loc	3 432 17 is_stmt 0              @ rt-thread/components/net/lwip-2.0.2/src/core/inet_chksum.c:432:17
	bl	lwip_htons
	mov	r1, r0
	.loc	3 432 7                         @ rt-thread/components/net/lwip-2.0.2/src/core/inet_chksum.c:432:7
	ldr	r0, [sp, #32]
	add	r0, r1
	str	r0, [sp, #32]
	.loc	3 436 9 is_stmt 1               @ rt-thread/components/net/lwip-2.0.2/src/core/inet_chksum.c:436:9
	ldr	r1, [sp, #32]
	lsrs	r0, r1, #16
	uxtah	r0, r0, r1
	.loc	3 436 7 is_stmt 0               @ rt-thread/components/net/lwip-2.0.2/src/core/inet_chksum.c:436:7
	str	r0, [sp, #32]
	.loc	3 437 9 is_stmt 1               @ rt-thread/components/net/lwip-2.0.2/src/core/inet_chksum.c:437:9
	ldr	r1, [sp, #32]
	lsrs	r0, r1, #16
	uxtah	r0, r0, r1
	.loc	3 437 7 is_stmt 0               @ rt-thread/components/net/lwip-2.0.2/src/core/inet_chksum.c:437:7
	str	r0, [sp, #32]
	.loc	3 439 19 is_stmt 1              @ rt-thread/components/net/lwip-2.0.2/src/core/inet_chksum.c:439:19
	ldrh.w	r0, [sp, #32]
	movw	r1, #65535
	eors	r0, r1
	.loc	3 439 3 is_stmt 0               @ rt-thread/components/net/lwip-2.0.2/src/core/inet_chksum.c:439:3
	add	sp, #24
	pop	{r7, pc}
.Ltmp62:
.Lfunc_end5:
	.size	inet_cksum_pseudo_partial_base, .Lfunc_end5-inet_cksum_pseudo_partial_base
	.cfi_endproc
	.cantunwind
	.fnend
                                        @ -- End function
	.section	.text.ip_chksum_pseudo_partial,"ax",%progbits
	.hidden	ip_chksum_pseudo_partial        @ -- Begin function ip_chksum_pseudo_partial
	.globl	ip_chksum_pseudo_partial
	.p2align	3
	.type	ip_chksum_pseudo_partial,%function
	.code	16                              @ @ip_chksum_pseudo_partial
	.thumb_func
ip_chksum_pseudo_partial:
.Lfunc_begin6:
	.loc	3 528 0 is_stmt 1               @ rt-thread/components/net/lwip-2.0.2/src/core/inet_chksum.c:528:0
	.fnstart
	.cfi_startproc
@ %bb.0:
	.save	{r4, lr}
	push	{r4, lr}
	.cfi_def_cfa_offset 8
	.cfi_offset lr, -4
	.cfi_offset r4, -8
	.pad	#24
	sub	sp, #24
	.cfi_def_cfa_offset 32
	ldr.w	r12, [sp, #36]
	ldr.w	r12, [sp, #32]
                                        @ kill: def $r12 killed $r3
                                        @ kill: def $r12 killed $r2
                                        @ kill: def $r12 killed $r1
	str	r0, [sp, #20]
	strb.w	r1, [sp, #19]
	strh.w	r2, [sp, #16]
	strh.w	r3, [sp, #14]
.Ltmp63:
	.loc	3 539 39 prologue_end           @ rt-thread/components/net/lwip-2.0.2/src/core/inet_chksum.c:539:39
	ldr	r0, [sp, #20]
	.loc	3 539 42 is_stmt 0              @ rt-thread/components/net/lwip-2.0.2/src/core/inet_chksum.c:539:42
	ldrb.w	r1, [sp, #19]
	.loc	3 539 49                        @ rt-thread/components/net/lwip-2.0.2/src/core/inet_chksum.c:539:49
	ldrh.w	r2, [sp, #16]
	.loc	3 539 60                        @ rt-thread/components/net/lwip-2.0.2/src/core/inet_chksum.c:539:60
	ldrh.w	r3, [sp, #14]
	.loc	3 539 72                        @ rt-thread/components/net/lwip-2.0.2/src/core/inet_chksum.c:539:72
	ldr.w	r12, [sp, #32]
	.loc	3 539 87                        @ rt-thread/components/net/lwip-2.0.2/src/core/inet_chksum.c:539:87
	ldr	r4, [sp, #36]
	.loc	3 539 12                        @ rt-thread/components/net/lwip-2.0.2/src/core/inet_chksum.c:539:12
	mov	lr, sp
	str.w	r4, [lr, #4]
	str.w	r12, [lr]
	bl	inet_chksum_pseudo_partial
	.loc	3 539 5                         @ rt-thread/components/net/lwip-2.0.2/src/core/inet_chksum.c:539:5
	add	sp, #24
	pop	{r4, pc}
.Ltmp64:
.Lfunc_end6:
	.size	ip_chksum_pseudo_partial, .Lfunc_end6-ip_chksum_pseudo_partial
	.cfi_endproc
	.cantunwind
	.fnend
                                        @ -- End function
	.section	.text.inet_chksum,"ax",%progbits
	.hidden	inet_chksum                     @ -- Begin function inet_chksum
	.globl	inet_chksum
	.p2align	3
	.type	inet_chksum,%function
	.code	16                              @ @inet_chksum
	.thumb_func
inet_chksum:
.Lfunc_begin7:
	.loc	3 556 0 is_stmt 1               @ rt-thread/components/net/lwip-2.0.2/src/core/inet_chksum.c:556:0
	.fnstart
	.cfi_startproc
@ %bb.0:
	.save	{r7, lr}
	push	{r7, lr}
	.cfi_def_cfa_offset 8
	.cfi_offset lr, -4
	.cfi_offset r7, -8
	.pad	#8
	sub	sp, #8
	.cfi_def_cfa_offset 16
                                        @ kill: def $r2 killed $r1
	str	r0, [sp, #4]
	strh.w	r1, [sp, #2]
.Ltmp65:
	.loc	3 557 44 prologue_end           @ rt-thread/components/net/lwip-2.0.2/src/core/inet_chksum.c:557:44
	ldr	r0, [sp, #4]
	.loc	3 557 53 is_stmt 0              @ rt-thread/components/net/lwip-2.0.2/src/core/inet_chksum.c:557:53
	ldrh.w	r1, [sp, #2]
	.loc	3 557 32                        @ rt-thread/components/net/lwip-2.0.2/src/core/inet_chksum.c:557:32
	bl	lwip_standard_chksum
	movw	r1, #65535
	.loc	3 557 3                         @ rt-thread/components/net/lwip-2.0.2/src/core/inet_chksum.c:557:3
	eors	r0, r1
	add	sp, #8
	pop	{r7, pc}
.Ltmp66:
.Lfunc_end7:
	.size	inet_chksum, .Lfunc_end7-inet_chksum
	.cfi_endproc
	.cantunwind
	.fnend
                                        @ -- End function
	.section	.text.inet_chksum_pbuf,"ax",%progbits
	.hidden	inet_chksum_pbuf                @ -- Begin function inet_chksum_pbuf
	.globl	inet_chksum_pbuf
	.p2align	3
	.type	inet_chksum_pbuf,%function
	.code	16                              @ @inet_chksum_pbuf
	.thumb_func
inet_chksum_pbuf:
.Lfunc_begin8:
	.loc	3 569 0 is_stmt 1               @ rt-thread/components/net/lwip-2.0.2/src/core/inet_chksum.c:569:0
	.fnstart
	.cfi_startproc
@ %bb.0:
	.save	{r7, lr}
	push	{r7, lr}
	.cfi_def_cfa_offset 8
	.cfi_offset lr, -4
	.cfi_offset r7, -8
	.pad	#16
	sub	sp, #16
	.cfi_def_cfa_offset 24
	str	r0, [sp, #12]
	movs	r0, #0
.Ltmp67:
	.loc	3 574 7 prologue_end            @ rt-thread/components/net/lwip-2.0.2/src/core/inet_chksum.c:574:7
	str	r0, [sp, #8]
	.loc	3 575 11                        @ rt-thread/components/net/lwip-2.0.2/src/core/inet_chksum.c:575:11
	strb.w	r0, [sp, #3]
.Ltmp68:
	.loc	3 576 12                        @ rt-thread/components/net/lwip-2.0.2/src/core/inet_chksum.c:576:12
	ldr	r0, [sp, #12]
	.loc	3 576 10 is_stmt 0              @ rt-thread/components/net/lwip-2.0.2/src/core/inet_chksum.c:576:10
	str	r0, [sp, #4]
	.loc	3 576 8                         @ rt-thread/components/net/lwip-2.0.2/src/core/inet_chksum.c:576:8
	b	.LBB8_1
.LBB8_1:                                @ =>This Inner Loop Header: Depth=1
.Ltmp69:
	.loc	3 576 15                        @ rt-thread/components/net/lwip-2.0.2/src/core/inet_chksum.c:576:15
	ldr	r0, [sp, #4]
.Ltmp70:
	.loc	3 576 3                         @ rt-thread/components/net/lwip-2.0.2/src/core/inet_chksum.c:576:3
	cbz	r0, .LBB8_6
	b	.LBB8_2
.LBB8_2:                                @   in Loop: Header=BB8_1 Depth=1
.Ltmp71:
	.loc	3 577 24 is_stmt 1              @ rt-thread/components/net/lwip-2.0.2/src/core/inet_chksum.c:577:24
	ldr	r1, [sp, #4]
	.loc	3 577 27 is_stmt 0              @ rt-thread/components/net/lwip-2.0.2/src/core/inet_chksum.c:577:27
	ldr	r0, [r1, #4]
	.loc	3 577 39                        @ rt-thread/components/net/lwip-2.0.2/src/core/inet_chksum.c:577:39
	ldrh	r1, [r1, #10]
	.loc	3 577 12                        @ rt-thread/components/net/lwip-2.0.2/src/core/inet_chksum.c:577:12
	bl	lwip_standard_chksum
	mov	r1, r0
	.loc	3 577 9                         @ rt-thread/components/net/lwip-2.0.2/src/core/inet_chksum.c:577:9
	ldr	r0, [sp, #8]
	add	r0, r1
	str	r0, [sp, #8]
	.loc	3 578 11 is_stmt 1              @ rt-thread/components/net/lwip-2.0.2/src/core/inet_chksum.c:578:11
	ldr	r1, [sp, #8]
	lsrs	r0, r1, #16
	uxtah	r0, r0, r1
	.loc	3 578 9 is_stmt 0               @ rt-thread/components/net/lwip-2.0.2/src/core/inet_chksum.c:578:9
	str	r0, [sp, #8]
.Ltmp72:
	.loc	3 579 9 is_stmt 1               @ rt-thread/components/net/lwip-2.0.2/src/core/inet_chksum.c:579:9
	ldr	r0, [sp, #4]
	ldrh	r0, [r0, #10]
.Ltmp73:
	.loc	3 579 9 is_stmt 0               @ rt-thread/components/net/lwip-2.0.2/src/core/inet_chksum.c:579:9
	lsls	r0, r0, #31
	cbz	r0, .LBB8_4
	b	.LBB8_3
.LBB8_3:                                @   in Loop: Header=BB8_1 Depth=1
.Ltmp74:
	.loc	3 580 21 is_stmt 1              @ rt-thread/components/net/lwip-2.0.2/src/core/inet_chksum.c:580:21
	ldrb.w	r0, [sp, #3]
	.loc	3 580 19 is_stmt 0              @ rt-thread/components/net/lwip-2.0.2/src/core/inet_chksum.c:580:19
	rsb.w	r0, r0, #1
	.loc	3 580 15                        @ rt-thread/components/net/lwip-2.0.2/src/core/inet_chksum.c:580:15
	strb.w	r0, [sp, #3]
	.loc	3 581 13 is_stmt 1              @ rt-thread/components/net/lwip-2.0.2/src/core/inet_chksum.c:581:13
	ldr	r0, [sp, #8]
	rev	r0, r0
	lsrs	r0, r0, #16
	.loc	3 581 11 is_stmt 0              @ rt-thread/components/net/lwip-2.0.2/src/core/inet_chksum.c:581:11
	str	r0, [sp, #8]
	.loc	3 582 5 is_stmt 1               @ rt-thread/components/net/lwip-2.0.2/src/core/inet_chksum.c:582:5
	b	.LBB8_4
.Ltmp75:
.LBB8_4:                                @   in Loop: Header=BB8_1 Depth=1
	.loc	3 583 3                         @ rt-thread/components/net/lwip-2.0.2/src/core/inet_chksum.c:583:3
	b	.LBB8_5
.Ltmp76:
.LBB8_5:                                @   in Loop: Header=BB8_1 Depth=1
	.loc	3 576 30                        @ rt-thread/components/net/lwip-2.0.2/src/core/inet_chksum.c:576:30
	ldr	r0, [sp, #4]
	.loc	3 576 33 is_stmt 0              @ rt-thread/components/net/lwip-2.0.2/src/core/inet_chksum.c:576:33
	ldr	r0, [r0]
	.loc	3 576 28                        @ rt-thread/components/net/lwip-2.0.2/src/core/inet_chksum.c:576:28
	str	r0, [sp, #4]
	.loc	3 576 3                         @ rt-thread/components/net/lwip-2.0.2/src/core/inet_chksum.c:576:3
	b	.LBB8_1
.Ltmp77:
.LBB8_6:
	.loc	3 585 7 is_stmt 1               @ rt-thread/components/net/lwip-2.0.2/src/core/inet_chksum.c:585:7
	ldrb.w	r0, [sp, #3]
.Ltmp78:
	.loc	3 585 7 is_stmt 0               @ rt-thread/components/net/lwip-2.0.2/src/core/inet_chksum.c:585:7
	cbz	r0, .LBB8_8
	b	.LBB8_7
.LBB8_7:
.Ltmp79:
	.loc	3 586 11 is_stmt 1              @ rt-thread/components/net/lwip-2.0.2/src/core/inet_chksum.c:586:11
	ldr	r0, [sp, #8]
	rev	r0, r0
	lsrs	r0, r0, #16
	.loc	3 586 9 is_stmt 0               @ rt-thread/components/net/lwip-2.0.2/src/core/inet_chksum.c:586:9
	str	r0, [sp, #8]
	.loc	3 587 3 is_stmt 1               @ rt-thread/components/net/lwip-2.0.2/src/core/inet_chksum.c:587:3
	b	.LBB8_8
.Ltmp80:
.LBB8_8:
	.loc	3 588 19                        @ rt-thread/components/net/lwip-2.0.2/src/core/inet_chksum.c:588:19
	ldrh.w	r0, [sp, #8]
	movw	r1, #65535
	eors	r0, r1
	.loc	3 588 3 is_stmt 0               @ rt-thread/components/net/lwip-2.0.2/src/core/inet_chksum.c:588:3
	add	sp, #16
	pop	{r7, pc}
.Ltmp81:
.Lfunc_end8:
	.size	inet_chksum_pbuf, .Lfunc_end8-inet_chksum_pbuf
	.cfi_endproc
	.cantunwind
	.fnend
                                        @ -- End function
	.type	.L.str,%object                  @ @.str
	.section	.rodata.str1.1,"aMS",%progbits,1
.L.str:
	.asciz	"delete me"
	.size	.L.str, 10

	.type	.L.str.1,%object                @ @.str.1
.L.str.1:
	.asciz	"rt-thread/components/net/lwip-2.0.2/src/core/inet_chksum.c"
	.size	.L.str.1, 59

	.file	4 "E:\\STM32\\Learning\\STM32H750_ART_PI_RGBLCD" "./rt-thread/components/net/lwip-2.0.2/src/include\\lwip/pbuf.h"
	.file	5 "E:\\STM32\\Learning\\STM32H750_ART_PI_RGBLCD" "./rt-thread/components/net/lwip-2.0.2/src/include\\lwip/ip4_addr.h"
	.file	6 "E:\\STM32\\Learning\\STM32H750_ART_PI_RGBLCD" "./rt-thread/components/net/lwip-2.0.2/src/include\\lwip/ip_addr.h"
	.section	".note.GNU-stack","",%progbits
	.eabi_attribute	30, 6	@ Tag_ABI_optimization_goals
	.ARM_attribute	16, 1	@ Tag_AV_eba