	.text
	.syntax unified
	.eabi_attribute	67, "2.09"	@ Tag_conformance
	.cpu	cortex-m7
	.eabi_attribute	6, 13	@ Tag_CPU_arch
	.eabi_attribute	7, 77	@ Tag_CPU_arch_profile
	.eabi_attribute	8, 0	@ Tag_ARM_ISA_use
	.eabi_attribute	9, 2	@ Tag_THUMB_ISA_use
	.fpu	fpv5-d16
	.eabi_attribute	36, 1	@ Tag_FP_HP_extension
	.eabi_attribute	34, 1	@ Tag_CPU_unaligned_access
	.eabi_attribute	17, 1	@ Tag_ABI_PCS_GOT_use
	.eabi_attribute	20, 2	@ Tag_ABI_FP_denormal
	.eabi_attribute	21, 0	@ Tag_ABI_FP_exceptions
	.eabi_attribute	23, 1	@ Tag_ABI_FP_number_model
	.eabi_attribute	24, 1	@ Tag_ABI_align_needed
	.eabi_attribute	25, 1	@ Tag_ABI_align_preserved
	.eabi_attribute	28, 1	@ Tag_ABI_VFP_args
	.eabi_attribute	38, 1	@ Tag_ABI_FP_16bit_format
	.eabi_attribute	18, 2	@ Tag_ABI_PCS_wchar_t
	.eabi_attribute	26, 1	@ Tag_ABI_enum_size
	.eabi_attribute	14, 0	@ Tag_ABI_PCS_R9_use
	.file	"ip4.c"
	.file	1 "D:\\Keil_v5\\ARM\\ARMCLANG\\Bin\\..\\include" "stdint.h"
	.file	2 "E:\\Smart-access-control\\Hardware\\CODE" "./rt-thread/components/net/lwip-2.0.2/src/include\\lwip/arch.h"
	.file	3 "E:\\Smart-access-control\\Hardware\\CODE" "rt-thread/components/net/lwip-2.0.2/src/core/ipv4/ip4.c"
	.file	4 "E:\\Smart-access-control\\Hardware\\CODE" "./rt-thread/components/net/lwip-2.0.2/src/include\\lwip/netif.h"
	.file	5 "E:\\Smart-access-control\\Hardware\\CODE" "./rt-thread/components/net/lwip-2.0.2/src/include\\lwip/ip4_addr.h"
	.file	6 "E:\\Smart-access-control\\Hardware\\CODE" "./rt-thread/components/net/lwip-2.0.2/src/include\\lwip/ip_addr.h"
	.file	7 "E:\\Smart-access-control\\Hardware\\CODE" "./rt-thread/components/net/lwip-2.0.2/src/include\\lwip/err.h"
	.file	8 "E:\\Smart-access-control\\Hardware\\CODE" "./rt-thread/components/net/lwip-2.0.2/src/include\\lwip/pbuf.h"
	.file	9 "E:\\Smart-access-control\\Hardware\\CODE" "./rt-thread/components/net/lwip-2.0.2/src/include\\lwip/icmp.h"
	.file	10 "E:\\Smart-access-control\\Hardware\\CODE" "./rt-thread/components/net/lwip-2.0.2/src/include\\lwip/prot/ip4.h"
	.file	11 "E:\\Smart-access-control\\Hardware\\CODE" "./rt-thread/components/net/lwip-2.0.2/src/include\\lwip/prot/udp.h"
	.section	.text.ip4_set_default_multicast_netif,"ax",%progbits
	.hidden	ip4_set_default_multicast_netif @ -- Begin function ip4_set_default_multicast_netif
	.globl	ip4_set_default_multicast_netif
	.p2align	3
	.type	ip4_set_default_multicast_netif,%function
	.code	16                              @ @ip4_set_default_multicast_netif
	.thumb_func
ip4_set_default_multicast_netif:
.Lfunc_begin0:
	.loc	3 118 0                         @ rt-thread/components/net/lwip-2.0.2/src/core/ipv4/ip4.c:118:0
	.fnstart
	.cfi_sections .debug_frame
	.cfi_startproc
@ %bb.0:
	@DEBUG_VALUE: ip4_set_default_multicast_netif:default_multicast_netif <- $r0
	.loc	3 119 31 prologue_end           @ rt-thread/components/net/lwip-2.0.2/src/core/ipv4/ip4.c:119:31
	movw	r1, :lower16:ip4_default_multicast_netif
	movt	r1, :upper16:ip4_default_multicast_netif
	@DEBUG_VALUE: ip4_set_default_multicast_netif:default_multicast_netif <- $r0
	str	r0, [r1]
	.loc	3 120 1                         @ rt-thread/components/net/lwip-2.0.2/src/core/ipv4/ip4.c:120:1
	bx	lr
.Ltmp0:
.Lfunc_end0:
	.size	ip4_set_default_multicast_netif, .Lfunc_end0-ip4_set_default_multicast_netif
	.cfi_endproc
	.cantunwind
	.fnend
                                        @ -- End function
	.section	.text.ip4_route,"ax",%progbits
	.hidden	ip4_route                       @ -- Begin function ip4_route
	.globl	ip4_route
	.p2align	3
	.type	ip4_route,%function
	.code	16                              @ @ip4_route
	.thumb_func
ip4_route:
.Lfunc_begin1:
	.loc	3 153 0                         @ rt-thread/components/net/lwip-2.0.2/src/core/ipv4/ip4.c:153:0
	.fnstart
	.cfi_startproc
@ %bb.0:
	@DEBUG_VALUE: ip4_route:dest <- $r0
	@DEBUG_VALUE: ip4_route:dest <- $r0
	.loc	3 158 7 prologue_end            @ rt-thread/components/net/lwip-2.0.2/src/core/ipv4/ip4.c:158:7
	ldr.w	r12, [r0]
	and	r0, r12, #240
.Ltmp1:
	@DEBUG_VALUE: ip4_route:dest <- [DW_OP_LLVM_entry_value 1] $r0
	.loc	3 158 34 is_stmt 0              @ rt-thread/components/net/lwip-2.0.2/src/core/ipv4/ip4.c:158:34
	cmp	r0, #224
	bne	.LBB1_2
.Ltmp2:
@ %bb.1:
	@DEBUG_VALUE: ip4_route:dest <- [DW_OP_LLVM_entry_value 1] $r0
	.loc	3 0 34                          @ rt-thread/components/net/lwip-2.0.2/src/core/ipv4/ip4.c:0:34
	movw	r0, :lower16:ip4_default_multicast_netif
	movt	r0, :upper16:ip4_default_multicast_netif
	ldr	r0, [r0]
	.loc	3 158 34                        @ rt-thread/components/net/lwip-2.0.2/src/core/ipv4/ip4.c:158:34
	cmp	r0, #0
.Ltmp3:
	.loc	3 0 0                           @ rt-thread/components/net/lwip-2.0.2/src/core/ipv4/ip4.c:0:0
	it	ne
	bxne	lr
.Ltmp4:
.LBB1_2:
	@DEBUG_VALUE: ip4_route:dest <- [DW_OP_LLVM_entry_value 1] $r0
	movw	r0, :lower16:netif_list
	movt	r0, :upper16:netif_list
.Ltmp5:
	.p2align	2
.LBB1_3:                                @ =>This Inner Loop Header: Depth=1
	@DEBUG_VALUE: ip4_route:dest <- [DW_OP_LLVM_entry_value 1] $r0
	ldr	r0, [r0]
.Ltmp6:
	@DEBUG_VALUE: ip4_route:netif <- $r0
	.loc	3 164 3 is_stmt 1               @ rt-thread/components/net/lwip-2.0.2/src/core/ipv4/ip4.c:164:3
	cbz	r0, .LBB1_10
.Ltmp7:
@ %bb.4:                                @   in Loop: Header=BB1_3 Depth=1
	@DEBUG_VALUE: ip4_route:netif <- $r0
	@DEBUG_VALUE: ip4_route:dest <- [DW_OP_LLVM_entry_value 1] $r0
	.loc	3 166 9                         @ rt-thread/components/net/lwip-2.0.2/src/core/ipv4/ip4.c:166:9
	ldrb.w	r2, [r0, #65]
	.loc	3 166 28 is_stmt 0              @ rt-thread/components/net/lwip-2.0.2/src/core/ipv4/ip4.c:166:28
	and	r3, r2, #5
	cmp	r3, #5
	bne	.LBB1_3
.Ltmp8:
@ %bb.5:                                @   in Loop: Header=BB1_3 Depth=1
	@DEBUG_VALUE: ip4_route:netif <- $r0
	@DEBUG_VALUE: ip4_route:dest <- [DW_OP_LLVM_entry_value 1] $r0
	.loc	3 166 59                        @ rt-thread/components/net/lwip-2.0.2/src/core/ipv4/ip4.c:166:59
	ldr	r3, [r0, #4]
.Ltmp9:
	.loc	3 166 9                         @ rt-thread/components/net/lwip-2.0.2/src/core/ipv4/ip4.c:166:9
	cmp	r3, #0
	beq	.LBB1_3
.Ltmp10:
@ %bb.6:                                @   in Loop: Header=BB1_3 Depth=1
	@DEBUG_VALUE: ip4_route:netif <- $r0
	@DEBUG_VALUE: ip4_route:dest <- [DW_OP_LLVM_entry_value 1] $r0
	.loc	3 168 11 is_stmt 1              @ rt-thread/components/net/lwip-2.0.2/src/core/ipv4/ip4.c:168:11
	ldr	r1, [r0, #8]
	eor.w	r3, r3, r12
.Ltmp11:
	.loc	3 168 11 is_stmt 0              @ rt-thread/components/net/lwip-2.0.2/src/core/ipv4/ip4.c:168:11
	tst	r1, r3
	beq	.LBB1_9
.Ltmp12:
@ %bb.7:                                @   in Loop: Header=BB1_3 Depth=1
	@DEBUG_VALUE: ip4_route:netif <- $r0
	@DEBUG_VALUE: ip4_route:dest <- [DW_OP_LLVM_entry_value 1] $r0
	.loc	3 173 56 is_stmt 1              @ rt-thread/components/net/lwip-2.0.2/src/core/ipv4/ip4.c:173:56
	lsls	r1, r2, #30
	bmi	.LBB1_3
.Ltmp13:
@ %bb.8:                                @   in Loop: Header=BB1_3 Depth=1
	@DEBUG_VALUE: ip4_route:netif <- $r0
	@DEBUG_VALUE: ip4_route:dest <- [DW_OP_LLVM_entry_value 1] $r0
	.loc	3 173 59 is_stmt 0              @ rt-thread/components/net/lwip-2.0.2/src/core/ipv4/ip4.c:173:59
	ldr	r1, [r0, #12]
.Ltmp14:
	.loc	3 173 11                        @ rt-thread/components/net/lwip-2.0.2/src/core/ipv4/ip4.c:173:11
	cmp	r12, r1
	bne	.LBB1_3
.Ltmp15:
.LBB1_9:
	@DEBUG_VALUE: ip4_route:netif <- $r0
	@DEBUG_VALUE: ip4_route:dest <- [DW_OP_LLVM_entry_value 1] $r0
	.loc	3 0 0                           @ rt-thread/components/net/lwip-2.0.2/src/core/ipv4/ip4.c:0:0
	bx	lr
.Ltmp16:
.LBB1_10:
	@DEBUG_VALUE: ip4_route:netif <- $r0
	@DEBUG_VALUE: ip4_route:dest <- [DW_OP_LLVM_entry_value 1] $r0
	.loc	3 209 8 is_stmt 1               @ rt-thread/components/net/lwip-2.0.2/src/core/ipv4/ip4.c:209:8
	movw	r0, :lower16:netif_default
.Ltmp17:
	movt	r0, :upper16:netif_default
	ldr	r1, [r0]
	.loc	3 209 31 is_stmt 0              @ rt-thread/components/net/lwip-2.0.2/src/core/ipv4/ip4.c:209:31
	cbz	r1, .LBB1_13
.Ltmp18:
@ %bb.11:
	@DEBUG_VALUE: ip4_route:dest <- [DW_OP_LLVM_entry_value 1] $r0
	.loc	3 209 35                        @ rt-thread/components/net/lwip-2.0.2/src/core/ipv4/ip4.c:209:35
	ldrb.w	r0, [r1, #65]
	.loc	3 209 62                        @ rt-thread/components/net/lwip-2.0.2/src/core/ipv4/ip4.c:209:62
	and	r0, r0, #5
	cmp	r0, #5
	bne	.LBB1_13
.Ltmp19:
@ %bb.12:
	@DEBUG_VALUE: ip4_route:dest <- [DW_OP_LLVM_entry_value 1] $r0
	.loc	3 210 7 is_stmt 1               @ rt-thread/components/net/lwip-2.0.2/src/core/ipv4/ip4.c:210:7
	ldr	r0, [r1, #4]
.Ltmp20:
	.loc	3 209 7                         @ rt-thread/components/net/lwip-2.0.2/src/core/ipv4/ip4.c:209:7
	cmp	r0, #0
	it	ne
	movne	r0, r1
	.loc	3 0 0 is_stmt 0                 @ rt-thread/components/net/lwip-2.0.2/src/core/ipv4/ip4.c:0:0
	bx	lr
.Ltmp21:
.LBB1_13:
	@DEBUG_VALUE: ip4_route:dest <- [DW_OP_LLVM_entry_value 1] $r0
	movs	r0, #0
	bx	lr
.Ltmp22:
.Lfunc_end1:
	.size	ip4_route, .Lfunc_end1-ip4_route
	.cfi_endproc
	.cantunwind
	.fnend
                                        @ -- End function
	.section	.text.ip4_input,"ax",%progbits
	.hidden	ip4_input                       @ -- Begin function ip4_input
	.globl	ip4_input
	.p2align	3
	.type	ip4_input,%function
	.code	16                              @ @ip4_input
	.thumb_func
ip4_input:
.Lfunc_begin2:
	.loc	3 375 0 is_stmt 1               @ rt-thread/components/net/lwip-2.0.2/src/core/ipv4/ip4.c:375:0
	.fnstart
	.cfi_startproc
@ %bb.0:
	@DEBUG_VALUE: ip4_input:p <- $r0
	@DEBUG_VALUE: ip4_input:inp <- $r1
	.save	{r4, r5, r6, r7, r8, r9, r10, r11, lr}
	push.w	{r4, r5, r6, r7, r8, r9, r10, r11, lr}
	.cfi_def_cfa_offset 36
	.cfi_offset lr, -4
	.cfi_offset r11, -8
	.cfi_offset r10, -12
	.cfi_offset r9, -16
	.cfi_offset r8, -20
	.cfi_offset r7, -24
	.cfi_offset r6, -28
	.cfi_offset r5, -32
	.cfi_offset r4, -36
	.pad	#4
	sub	sp, #4
	.cfi_def_cfa_offset 40
.Ltmp23:
	.loc	3 388 31 prologue_end           @ rt-thread/components/net/lwip-2.0.2/src/core/ipv4/ip4.c:388:31
	ldr	r5, [r0, #4]
.Ltmp24:
	@DEBUG_VALUE: ip4_input:iphdr <- $r5
	.loc	3 0 31 is_stmt 0                @ rt-thread/components/net/lwip-2.0.2/src/core/ipv4/ip4.c:0:31
	mov	r4, r0
.Ltmp25:
	@DEBUG_VALUE: ip4_input:p <- $r4
	@DEBUG_VALUE: ip4_input:check_ip_src <- 1
	@DEBUG_VALUE: ip4_input:p <- $r4
	.loc	3 389 7 is_stmt 1               @ rt-thread/components/net/lwip-2.0.2/src/core/ipv4/ip4.c:389:7
	ldrb	r2, [r5]
	.loc	3 389 20 is_stmt 0              @ rt-thread/components/net/lwip-2.0.2/src/core/ipv4/ip4.c:389:20
	and	r0, r2, #240
.Ltmp26:
	.loc	3 389 7                         @ rt-thread/components/net/lwip-2.0.2/src/core/ipv4/ip4.c:389:7
	cmp	r0, #64
	@DEBUG_VALUE: ip4_input:inp <- $r1
	bne	.LBB2_5
.Ltmp27:
@ %bb.1:
	@DEBUG_VALUE: ip4_input:iphdr <- $r5
	@DEBUG_VALUE: ip4_input:p <- $r4
	@DEBUG_VALUE: ip4_input:inp <- $r1
	@DEBUG_VALUE: ip4_input:check_ip_src <- 1
	.loc	3 411 15 is_stmt 1              @ rt-thread/components/net/lwip-2.0.2/src/core/ipv4/ip4.c:411:15
	ldrh	r0, [r5, #2]
	mov	r10, r1
.Ltmp28:
	@DEBUG_VALUE: ip4_input:inp <- $r10
	@DEBUG_VALUE: ip4_input:inp <- $r10
	@DEBUG_VALUE: ip4_input:iphdr_hlen <- [DW_OP_constu 15, DW_OP_and, DW_OP_LLVM_convert 8 7, DW_OP_LLVM_convert 32 7, DW_OP_stack_value] $r2
	.loc	3 0 15 is_stmt 0                @ rt-thread/components/net/lwip-2.0.2/src/core/ipv4/ip4.c:0:15
	movs	r1, #60
	.loc	3 409 14 is_stmt 1              @ rt-thread/components/net/lwip-2.0.2/src/core/ipv4/ip4.c:409:14
	and.w	r8, r1, r2, lsl #2
.Ltmp29:
	@DEBUG_VALUE: ip4_input:iphdr_hlen <- undef
	.loc	3 411 15                        @ rt-thread/components/net/lwip-2.0.2/src/core/ipv4/ip4.c:411:15
	bl	lwip_htons
.Ltmp30:
	.loc	3 414 22                        @ rt-thread/components/net/lwip-2.0.2/src/core/ipv4/ip4.c:414:22
	ldrh	r1, [r4, #8]
.Ltmp31:
	.loc	3 411 15                        @ rt-thread/components/net/lwip-2.0.2/src/core/ipv4/ip4.c:411:15
	mov	r7, r0
.Ltmp32:
	@DEBUG_VALUE: ip4_input:iphdr_len <- $r7
	.loc	3 414 7                         @ rt-thread/components/net/lwip-2.0.2/src/core/ipv4/ip4.c:414:7
	cmp	r0, r1
	bhs	.LBB2_3
.Ltmp33:
@ %bb.2:
	@DEBUG_VALUE: ip4_input:inp <- $r10
	@DEBUG_VALUE: ip4_input:iphdr_len <- $r7
	@DEBUG_VALUE: ip4_input:iphdr <- $r5
	@DEBUG_VALUE: ip4_input:p <- $r4
	@DEBUG_VALUE: ip4_input:check_ip_src <- 1
	.loc	3 415 5                         @ rt-thread/components/net/lwip-2.0.2/src/core/ipv4/ip4.c:415:5
	mov	r0, r4
	mov	r1, r7
	bl	pbuf_realloc
.Ltmp34:
.LBB2_3:
	@DEBUG_VALUE: ip4_input:inp <- $r10
	@DEBUG_VALUE: ip4_input:iphdr_len <- $r7
	@DEBUG_VALUE: ip4_input:iphdr <- $r5
	@DEBUG_VALUE: ip4_input:p <- $r4
	@DEBUG_VALUE: ip4_input:check_ip_src <- 1
	.loc	3 419 24                        @ rt-thread/components/net/lwip-2.0.2/src/core/ipv4/ip4.c:419:24
	ldrh	r0, [r4, #10]
	.loc	3 419 29 is_stmt 0              @ rt-thread/components/net/lwip-2.0.2/src/core/ipv4/ip4.c:419:29
	cmp	r0, r8
	bhs	.LBB2_7
.Ltmp35:
.LBB2_4:
	@DEBUG_VALUE: ip4_input:inp <- $r10
	@DEBUG_VALUE: ip4_input:iphdr_len <- $r7
	@DEBUG_VALUE: ip4_input:iphdr <- $r5
	@DEBUG_VALUE: ip4_input:p <- $r4
	@DEBUG_VALUE: ip4_input:check_ip_src <- 1
	.loc	3 435 5 is_stmt 1               @ rt-thread/components/net/lwip-2.0.2/src/core/ipv4/ip4.c:435:5
	mov	r0, r4
	bl	pbuf_free
	.loc	3 439 5                         @ rt-thread/components/net/lwip-2.0.2/src/core/ipv4/ip4.c:439:5
	b	.LBB2_6
.Ltmp36:
.LBB2_5:
	@DEBUG_VALUE: ip4_input:iphdr <- $r5
	@DEBUG_VALUE: ip4_input:p <- $r4
	@DEBUG_VALUE: ip4_input:inp <- $r1
	@DEBUG_VALUE: ip4_input:check_ip_src <- 1
	.loc	3 392 5                         @ rt-thread/components/net/lwip-2.0.2/src/core/ipv4/ip4.c:392:5
	mov	r0, r4
	bl	pbuf_free
.Ltmp37:
	@DEBUG_VALUE: ip4_input:inp <- [DW_OP_LLVM_entry_value 1] $r1
.LBB2_6:
	@DEBUG_VALUE: ip4_input:iphdr <- $r5
	@DEBUG_VALUE: ip4_input:p <- $r4
	.loc	3 727 1                         @ rt-thread/components/net/lwip-2.0.2/src/core/ipv4/ip4.c:727:1
	movs	r0, #0
	add	sp, #4
	pop.w	{r4, r5, r6, r7, r8, r9, r10, r11, pc}
.Ltmp38:
.LBB2_7:
	@DEBUG_VALUE: ip4_input:inp <- $r10
	@DEBUG_VALUE: ip4_input:iphdr_len <- $r7
	@DEBUG_VALUE: ip4_input:iphdr <- $r5
	@DEBUG_VALUE: ip4_input:p <- $r4
	@DEBUG_VALUE: ip4_input:check_ip_src <- 1
	.loc	3 419 57                        @ rt-thread/components/net/lwip-2.0.2/src/core/ipv4/ip4.c:419:57
	cmp.w	r8, #20
	blo	.LBB2_4
.Ltmp39:
@ %bb.8:
	@DEBUG_VALUE: ip4_input:inp <- $r10
	@DEBUG_VALUE: ip4_input:iphdr_len <- $r7
	@DEBUG_VALUE: ip4_input:iphdr <- $r5
	@DEBUG_VALUE: ip4_input:p <- $r4
	@DEBUG_VALUE: ip4_input:check_ip_src <- 1
	.loc	3 0 0 is_stmt 0                 @ rt-thread/components/net/lwip-2.0.2/src/core/ipv4/ip4.c:0:0
	ldrh	r0, [r4, #8]
	.loc	3 419 57                        @ rt-thread/components/net/lwip-2.0.2/src/core/ipv4/ip4.c:419:57
	cmp	r7, r0
	bhi	.LBB2_4
.Ltmp40:
@ %bb.9:
	@DEBUG_VALUE: ip4_input:inp <- $r10
	@DEBUG_VALUE: ip4_input:iphdr_len <- $r7
	@DEBUG_VALUE: ip4_input:iphdr <- $r5
	@DEBUG_VALUE: ip4_input:p <- $r4
	@DEBUG_VALUE: ip4_input:check_ip_src <- 1
	.loc	3 445 9 is_stmt 1               @ rt-thread/components/net/lwip-2.0.2/src/core/ipv4/ip4.c:445:9
	mov	r0, r5
	mov	r1, r8
	bl	inet_chksum
.Ltmp41:
	.loc	3 445 9 is_stmt 0               @ rt-thread/components/net/lwip-2.0.2/src/core/ipv4/ip4.c:445:9
	cbz	r0, .LBB2_11
.Ltmp42:
@ %bb.10:
	@DEBUG_VALUE: ip4_input:inp <- $r10
	@DEBUG_VALUE: ip4_input:iphdr_len <- $r7
	@DEBUG_VALUE: ip4_input:iphdr <- $r5
	@DEBUG_VALUE: ip4_input:p <- $r4
	@DEBUG_VALUE: ip4_input:check_ip_src <- 1
	.loc	3 450 7 is_stmt 1               @ rt-thread/components/net/lwip-2.0.2/src/core/ipv4/ip4.c:450:7
	mov	r0, r4
	bl	pbuf_free
	.loc	3 454 7                         @ rt-thread/components/net/lwip-2.0.2/src/core/ipv4/ip4.c:454:7
	b	.LBB2_6
.Ltmp43:
.LBB2_11:
	@DEBUG_VALUE: ip4_input:inp <- $r10
	@DEBUG_VALUE: ip4_input:iphdr_len <- $r7
	@DEBUG_VALUE: ip4_input:iphdr <- $r5
	@DEBUG_VALUE: ip4_input:p <- $r4
	@DEBUG_VALUE: ip4_input:check_ip_src <- 1
	.loc	3 460 3                         @ rt-thread/components/net/lwip-2.0.2/src/core/ipv4/ip4.c:460:3
	ldr	r1, [r5, #16]
	movw	r9, :lower16:ip_data
	movt	r9, :upper16:ip_data
.Ltmp44:
	.loc	3 464 7                         @ rt-thread/components/net/lwip-2.0.2/src/core/ipv4/ip4.c:464:7
	and	r2, r1, #240
.Ltmp45:
	.loc	3 464 7 is_stmt 0               @ rt-thread/components/net/lwip-2.0.2/src/core/ipv4/ip4.c:464:7
	cmp	r2, #224
	.loc	3 461 3 is_stmt 1               @ rt-thread/components/net/lwip-2.0.2/src/core/ipv4/ip4.c:461:3
	ldr	r0, [r5, #12]
	str.w	r0, [r9, #16]
	.loc	3 460 3                         @ rt-thread/components/net/lwip-2.0.2/src/core/ipv4/ip4.c:460:3
	str.w	r1, [r9, #20]
	.loc	3 464 7                         @ rt-thread/components/net/lwip-2.0.2/src/core/ipv4/ip4.c:464:7
	bne	.LBB2_15
.Ltmp46:
@ %bb.12:
	@DEBUG_VALUE: ip4_input:inp <- $r10
	@DEBUG_VALUE: ip4_input:iphdr_len <- $r7
	@DEBUG_VALUE: ip4_input:iphdr <- $r5
	@DEBUG_VALUE: ip4_input:p <- $r4
	@DEBUG_VALUE: ip4_input:check_ip_src <- 1
	.loc	3 466 15                        @ rt-thread/components/net/lwip-2.0.2/src/core/ipv4/ip4.c:466:15
	ldrb.w	r0, [r10, #65]
	.loc	3 466 40 is_stmt 0              @ rt-thread/components/net/lwip-2.0.2/src/core/ipv4/ip4.c:466:40
	lsls	r0, r0, #26
	bpl	.LBB2_23
.Ltmp47:
@ %bb.13:
	@DEBUG_VALUE: ip4_input:inp <- $r10
	@DEBUG_VALUE: ip4_input:iphdr_len <- $r7
	@DEBUG_VALUE: ip4_input:iphdr <- $r5
	@DEBUG_VALUE: ip4_input:p <- $r4
	@DEBUG_VALUE: ip4_input:check_ip_src <- 1
	.loc	3 466 44                        @ rt-thread/components/net/lwip-2.0.2/src/core/ipv4/ip4.c:466:44
	add.w	r1, r9, #20
	mov	r0, r10
	bl	igmp_lookfor_group
.Ltmp48:
	.loc	3 466 9                         @ rt-thread/components/net/lwip-2.0.2/src/core/ipv4/ip4.c:466:9
	cbz	r0, .LBB2_23
.Ltmp49:
@ %bb.14:
	@DEBUG_VALUE: ip4_input:inp <- $r10
	@DEBUG_VALUE: ip4_input:iphdr_len <- $r7
	@DEBUG_VALUE: ip4_input:iphdr <- $r5
	@DEBUG_VALUE: ip4_input:p <- $r4
	@DEBUG_VALUE: ip4_input:check_ip_src <- 1
	@DEBUG_VALUE: allsystems <- 16777440
	.loc	3 470 11 is_stmt 1              @ rt-thread/components/net/lwip-2.0.2/src/core/ipv4/ip4.c:470:11
	ldr.w	r0, [r9, #20]
	ldr.w	r1, [r9, #16]
	eor	r0, r0, #16777216
.Ltmp50:
	.loc	3 0 0 is_stmt 0                 @ rt-thread/components/net/lwip-2.0.2/src/core/ipv4/ip4.c:0:0
	mov	r7, r10
.Ltmp51:
	@DEBUG_VALUE: allsystems <- 16777440
	.loc	3 470 11                        @ rt-thread/components/net/lwip-2.0.2/src/core/ipv4/ip4.c:470:11
	eor	r0, r0, #224
	.loc	3 470 62                        @ rt-thread/components/net/lwip-2.0.2/src/core/ipv4/ip4.c:470:62
	orrs.w	r6, r0, r1
	it	ne
	movne	r6, #1
.Ltmp52:
	@DEBUG_VALUE: ip4_input:netif <- $r10
	@DEBUG_VALUE: ip4_input:check_ip_src <- $r6
	@DEBUG_VALUE: ip4_input:check_ip_src <- $r6
	@DEBUG_VALUE: ip4_input:netif <- $r7
	.loc	3 555 7 is_stmt 1               @ rt-thread/components/net/lwip-2.0.2/src/core/ipv4/ip4.c:555:7
	cbnz	r7, .LBB2_28
	b	.LBB2_26
.Ltmp53:
.LBB2_15:
	@DEBUG_VALUE: ip4_input:inp <- $r10
	@DEBUG_VALUE: ip4_input:iphdr_len <- $r7
	@DEBUG_VALUE: ip4_input:iphdr <- $r5
	@DEBUG_VALUE: ip4_input:p <- $r4
	@DEBUG_VALUE: ip4_input:check_ip_src <- 1
	.loc	3 0 7 is_stmt 0                 @ rt-thread/components/net/lwip-2.0.2/src/core/ipv4/ip4.c:0:7
	movw	r11, :lower16:netif_list
	movs	r6, #0
	movt	r11, :upper16:netif_list
.Ltmp54:
	mov	r7, r10
.Ltmp55:
	b	.LBB2_17
.Ltmp56:
	.p2align	2
.LBB2_16:                               @   in Loop: Header=BB2_17 Depth=1
	@DEBUG_VALUE: ip4_input:inp <- $r10
	@DEBUG_VALUE: ip4_input:iphdr <- $r5
	@DEBUG_VALUE: ip4_input:p <- $r4
	@DEBUG_VALUE: ip4_input:check_ip_src <- 1
	ldr	r7, [r7]
.Ltmp57:
	@DEBUG_VALUE: first <- 0
	@DEBUG_VALUE: ip4_input:netif <- $r7
	movs	r6, #1
.Ltmp58:
	.loc	3 539 11 is_stmt 1              @ rt-thread/components/net/lwip-2.0.2/src/core/ipv4/ip4.c:539:11
	cmp	r7, r10
.Ltmp59:
	.loc	3 540 24                        @ rt-thread/components/net/lwip-2.0.2/src/core/ipv4/ip4.c:540:24
	it	eq
	ldreq	r7, [r7]
.Ltmp60:
	@DEBUG_VALUE: ip4_input:netif <- $r7
	.loc	3 542 5                         @ rt-thread/components/net/lwip-2.0.2/src/core/ipv4/ip4.c:542:5
	cbz	r7, .LBB2_25
.Ltmp61:
.LBB2_17:                               @ =>This Inner Loop Header: Depth=1
	@DEBUG_VALUE: ip4_input:inp <- $r10
	@DEBUG_VALUE: ip4_input:iphdr <- $r5
	@DEBUG_VALUE: ip4_input:p <- $r4
	@DEBUG_VALUE: ip4_input:check_ip_src <- 1
	@DEBUG_VALUE: ip4_input:netif <- $r7
	@DEBUG_VALUE: first <- undef
	.loc	3 499 12                        @ rt-thread/components/net/lwip-2.0.2/src/core/ipv4/ip4.c:499:12
	ldrb.w	r0, [r7, #65]
	.loc	3 499 32 is_stmt 0              @ rt-thread/components/net/lwip-2.0.2/src/core/ipv4/ip4.c:499:32
	lsls	r0, r0, #31
	beq	.LBB2_21
.Ltmp62:
@ %bb.18:                               @   in Loop: Header=BB2_17 Depth=1
	@DEBUG_VALUE: ip4_input:inp <- $r10
	@DEBUG_VALUE: ip4_input:netif <- $r7
	@DEBUG_VALUE: ip4_input:iphdr <- $r5
	@DEBUG_VALUE: ip4_input:p <- $r4
	@DEBUG_VALUE: ip4_input:check_ip_src <- 1
	.loc	3 499 37                        @ rt-thread/components/net/lwip-2.0.2/src/core/ipv4/ip4.c:499:37
	ldr	r1, [r7, #4]
	cbz	r1, .LBB2_21
.Ltmp63:
@ %bb.19:                               @   in Loop: Header=BB2_17 Depth=1
	@DEBUG_VALUE: ip4_input:inp <- $r10
	@DEBUG_VALUE: ip4_input:netif <- $r7
	@DEBUG_VALUE: ip4_input:iphdr <- $r5
	@DEBUG_VALUE: ip4_input:p <- $r4
	@DEBUG_VALUE: ip4_input:check_ip_src <- 1
	.loc	3 501 13 is_stmt 1              @ rt-thread/components/net/lwip-2.0.2/src/core/ipv4/ip4.c:501:13
	ldr.w	r0, [r9, #20]
	.loc	3 501 74 is_stmt 0              @ rt-thread/components/net/lwip-2.0.2/src/core/ipv4/ip4.c:501:74
	cmp	r0, r1
	beq	.LBB2_24
.Ltmp64:
@ %bb.20:                               @   in Loop: Header=BB2_17 Depth=1
	@DEBUG_VALUE: ip4_input:inp <- $r10
	@DEBUG_VALUE: ip4_input:netif <- $r7
	@DEBUG_VALUE: ip4_input:iphdr <- $r5
	@DEBUG_VALUE: ip4_input:p <- $r4
	@DEBUG_VALUE: ip4_input:check_ip_src <- 1
	.loc	3 503 13 is_stmt 1              @ rt-thread/components/net/lwip-2.0.2/src/core/ipv4/ip4.c:503:13
	mov	r1, r7
	bl	ip4_addr_isbroadcast_u32
.Ltmp65:
	.loc	3 501 13                        @ rt-thread/components/net/lwip-2.0.2/src/core/ipv4/ip4.c:501:13
	cbnz	r0, .LBB2_24
.Ltmp66:
.LBB2_21:                               @   in Loop: Header=BB2_17 Depth=1
	@DEBUG_VALUE: ip4_input:inp <- $r10
	@DEBUG_VALUE: ip4_input:netif <- $r7
	@DEBUG_VALUE: ip4_input:iphdr <- $r5
	@DEBUG_VALUE: ip4_input:p <- $r4
	@DEBUG_VALUE: ip4_input:check_ip_src <- 1
	.loc	3 524 11                        @ rt-thread/components/net/lwip-2.0.2/src/core/ipv4/ip4.c:524:11
	lsls	r0, r6, #31
	bne	.LBB2_16
.Ltmp67:
@ %bb.22:                               @   in Loop: Header=BB2_17 Depth=1
	@DEBUG_VALUE: ip4_input:inp <- $r10
	@DEBUG_VALUE: ip4_input:netif <- $r7
	@DEBUG_VALUE: ip4_input:iphdr <- $r5
	@DEBUG_VALUE: ip4_input:p <- $r4
	@DEBUG_VALUE: ip4_input:check_ip_src <- 1
	.loc	3 529 13                        @ rt-thread/components/net/lwip-2.0.2/src/core/ipv4/ip4.c:529:13
	ldrb.w	r0, [r9, #20]
	mov	r7, r11
.Ltmp68:
	.loc	3 529 13 is_stmt 0              @ rt-thread/components/net/lwip-2.0.2/src/core/ipv4/ip4.c:529:13
	cmp	r0, #127
	bne	.LBB2_16
.Ltmp69:
.LBB2_23:
	@DEBUG_VALUE: ip4_input:inp <- $r10
	@DEBUG_VALUE: ip4_input:iphdr <- $r5
	@DEBUG_VALUE: ip4_input:p <- $r4
	@DEBUG_VALUE: ip4_input:check_ip_src <- 1
	.loc	3 0 13                          @ rt-thread/components/net/lwip-2.0.2/src/core/ipv4/ip4.c:0:13
	movs	r7, #0
.Ltmp70:
.LBB2_24:
	@DEBUG_VALUE: ip4_input:inp <- $r10
	@DEBUG_VALUE: ip4_input:iphdr <- $r5
	@DEBUG_VALUE: ip4_input:p <- $r4
	@DEBUG_VALUE: ip4_input:check_ip_src <- 1
	movs	r6, #1
.Ltmp71:
	@DEBUG_VALUE: ip4_input:check_ip_src <- $r6
	@DEBUG_VALUE: ip4_input:netif <- $r7
	.loc	3 555 7 is_stmt 1               @ rt-thread/components/net/lwip-2.0.2/src/core/ipv4/ip4.c:555:7
	cbnz	r7, .LBB2_28
	b	.LBB2_26
.Ltmp72:
.LBB2_25:
	@DEBUG_VALUE: ip4_input:inp <- $r10
	@DEBUG_VALUE: ip4_input:netif <- $r7
	@DEBUG_VALUE: ip4_input:iphdr <- $r5
	@DEBUG_VALUE: ip4_input:p <- $r4
	@DEBUG_VALUE: ip4_input:check_ip_src <- 1
	.loc	3 0 7 is_stmt 0                 @ rt-thread/components/net/lwip-2.0.2/src/core/ipv4/ip4.c:0:7
	movs	r7, #0
.Ltmp73:
	@DEBUG_VALUE: ip4_input:check_ip_src <- $r6
	@DEBUG_VALUE: ip4_input:netif <- $r7
	.loc	3 555 7                         @ rt-thread/components/net/lwip-2.0.2/src/core/ipv4/ip4.c:555:7
	cbnz	r7, .LBB2_28
.Ltmp74:
.LBB2_26:
	@DEBUG_VALUE: ip4_input:inp <- $r10
	@DEBUG_VALUE: ip4_input:netif <- $r7
	@DEBUG_VALUE: ip4_input:check_ip_src <- $r6
	@DEBUG_VALUE: ip4_input:iphdr <- $r5
	@DEBUG_VALUE: ip4_input:p <- $r4
	.loc	3 557 9 is_stmt 1               @ rt-thread/components/net/lwip-2.0.2/src/core/ipv4/ip4.c:557:9
	ldrb	r0, [r5, #9]
	movs	r7, #0
.Ltmp75:
	.loc	3 557 9 is_stmt 0               @ rt-thread/components/net/lwip-2.0.2/src/core/ipv4/ip4.c:557:9
	cmp	r0, #17
	bne	.LBB2_28
.Ltmp76:
@ %bb.27:
	@DEBUG_VALUE: ip4_input:inp <- $r10
	@DEBUG_VALUE: ip4_input:check_ip_src <- $r6
	@DEBUG_VALUE: ip4_input:iphdr <- $r5
	@DEBUG_VALUE: ip4_input:p <- $r4
	.loc	3 558 65 is_stmt 1              @ rt-thread/components/net/lwip-2.0.2/src/core/ipv4/ip4.c:558:65
	add.w	r0, r5, r8
.Ltmp77:
	@DEBUG_VALUE: udphdr <- $r0
	.loc	3 561 11                        @ rt-thread/components/net/lwip-2.0.2/src/core/ipv4/ip4.c:561:11
	ldrh	r0, [r0, #2]
.Ltmp78:
	.loc	3 561 11 is_stmt 0              @ rt-thread/components/net/lwip-2.0.2/src/core/ipv4/ip4.c:561:11
	subs.w	r1, r0, #17408
	it	eq
	moveq	r6, r1
.Ltmp79:
	@DEBUG_VALUE: ip4_input:check_ip_src <- $r6
	cmp.w	r0, #17408
	it	eq
	moveq	r7, r10
.Ltmp80:
	@DEBUG_VALUE: ip4_input:netif <- $r7
.LBB2_28:
	@DEBUG_VALUE: ip4_input:inp <- $r10
	@DEBUG_VALUE: ip4_input:check_ip_src <- $r6
	@DEBUG_VALUE: ip4_input:iphdr <- $r5
	@DEBUG_VALUE: ip4_input:p <- $r4
	@DEBUG_VALUE: ip4_input:check_ip_src <- $r6
	@DEBUG_VALUE: ip4_input:netif <- $r7
	.loc	3 575 7 is_stmt 1               @ rt-thread/components/net/lwip-2.0.2/src/core/ipv4/ip4.c:575:7
	cbz	r6, .LBB2_33
.Ltmp81:
@ %bb.29:
	@DEBUG_VALUE: ip4_input:inp <- $r10
	@DEBUG_VALUE: ip4_input:netif <- $r7
	@DEBUG_VALUE: ip4_input:check_ip_src <- $r6
	@DEBUG_VALUE: ip4_input:iphdr <- $r5
	@DEBUG_VALUE: ip4_input:p <- $r4
	.loc	3 0 7 is_stmt 0                 @ rt-thread/components/net/lwip-2.0.2/src/core/ipv4/ip4.c:0:7
	ldr.w	r0, [r9, #16]
	.loc	3 575 7                         @ rt-thread/components/net/lwip-2.0.2/src/core/ipv4/ip4.c:575:7
	cbz	r0, .LBB2_33
.Ltmp82:
@ %bb.30:
	@DEBUG_VALUE: ip4_input:inp <- $r10
	@DEBUG_VALUE: ip4_input:netif <- $r7
	@DEBUG_VALUE: ip4_input:check_ip_src <- $r6
	@DEBUG_VALUE: ip4_input:iphdr <- $r5
	@DEBUG_VALUE: ip4_input:p <- $r4
	.loc	3 580 10 is_stmt 1              @ rt-thread/components/net/lwip-2.0.2/src/core/ipv4/ip4.c:580:10
	mov	r1, r10
	bl	ip4_addr_isbroadcast_u32
	.loc	3 580 61 is_stmt 0              @ rt-thread/components/net/lwip-2.0.2/src/core/ipv4/ip4.c:580:61
	cbnz	r0, .LBB2_32
.Ltmp83:
@ %bb.31:
	@DEBUG_VALUE: ip4_input:inp <- $r10
	@DEBUG_VALUE: ip4_input:netif <- $r7
	@DEBUG_VALUE: ip4_input:check_ip_src <- $r6
	@DEBUG_VALUE: ip4_input:iphdr <- $r5
	@DEBUG_VALUE: ip4_input:p <- $r4
	.loc	3 581 10 is_stmt 1              @ rt-thread/components/net/lwip-2.0.2/src/core/ipv4/ip4.c:581:10
	ldr.w	r0, [r9, #16]
	and	r0, r0, #240
.Ltmp84:
	.loc	3 580 9                         @ rt-thread/components/net/lwip-2.0.2/src/core/ipv4/ip4.c:580:9
	cmp	r0, #224
	bne	.LBB2_33
.Ltmp85:
.LBB2_32:
	@DEBUG_VALUE: ip4_input:inp <- $r10
	@DEBUG_VALUE: ip4_input:netif <- $r7
	@DEBUG_VALUE: ip4_input:check_ip_src <- $r6
	@DEBUG_VALUE: ip4_input:iphdr <- $r5
	@DEBUG_VALUE: ip4_input:p <- $r4
	.loc	3 585 7                         @ rt-thread/components/net/lwip-2.0.2/src/core/ipv4/ip4.c:585:7
	mov	r0, r4
	bl	pbuf_free
	.loc	3 589 7                         @ rt-thread/components/net/lwip-2.0.2/src/core/ipv4/ip4.c:589:7
	b	.LBB2_6
.Ltmp86:
.LBB2_33:
	@DEBUG_VALUE: ip4_input:inp <- $r10
	@DEBUG_VALUE: ip4_input:netif <- $r7
	@DEBUG_VALUE: ip4_input:check_ip_src <- $r6
	@DEBUG_VALUE: ip4_input:iphdr <- $r5
	@DEBUG_VALUE: ip4_input:p <- $r4
	.loc	3 594 7                         @ rt-thread/components/net/lwip-2.0.2/src/core/ipv4/ip4.c:594:7
	cbz	r7, .LBB2_36
.Ltmp87:
@ %bb.34:
	@DEBUG_VALUE: ip4_input:inp <- $r10
	@DEBUG_VALUE: ip4_input:netif <- $r7
	@DEBUG_VALUE: ip4_input:check_ip_src <- $r6
	@DEBUG_VALUE: ip4_input:iphdr <- $r5
	@DEBUG_VALUE: ip4_input:p <- $r4
	.loc	3 613 8                         @ rt-thread/components/net/lwip-2.0.2/src/core/ipv4/ip4.c:613:8
	ldrh	r0, [r5, #6]
	mvn	r1, #192
.Ltmp88:
	.loc	3 613 7 is_stmt 0               @ rt-thread/components/net/lwip-2.0.2/src/core/ipv4/ip4.c:613:7
	tst	r0, r1
	beq	.LBB2_37
.Ltmp89:
@ %bb.35:
	@DEBUG_VALUE: ip4_input:inp <- $r10
	@DEBUG_VALUE: ip4_input:netif <- $r7
	@DEBUG_VALUE: ip4_input:check_ip_src <- $r6
	@DEBUG_VALUE: ip4_input:iphdr <- $r5
	@DEBUG_VALUE: ip4_input:p <- $r4
	.loc	3 625 5 is_stmt 1               @ rt-thread/components/net/lwip-2.0.2/src/core/ipv4/ip4.c:625:5
	mov	r0, r4
	bl	pbuf_free
	.loc	3 632 5                         @ rt-thread/components/net/lwip-2.0.2/src/core/ipv4/ip4.c:632:5
	b	.LBB2_6
.Ltmp90:
.LBB2_36:
	@DEBUG_VALUE: ip4_input:inp <- $r10
	@DEBUG_VALUE: ip4_input:netif <- $r7
	@DEBUG_VALUE: ip4_input:check_ip_src <- $r6
	@DEBUG_VALUE: ip4_input:iphdr <- $r5
	@DEBUG_VALUE: ip4_input:p <- $r4
	.loc	3 609 5                         @ rt-thread/components/net/lwip-2.0.2/src/core/ipv4/ip4.c:609:5
	mov	r0, r4
	bl	pbuf_free
	.loc	3 610 5                         @ rt-thread/components/net/lwip-2.0.2/src/core/ipv4/ip4.c:610:5
	b	.LBB2_6
.Ltmp91:
.LBB2_37:
	@DEBUG_VALUE: ip4_input:inp <- $r10
	@DEBUG_VALUE: ip4_input:netif <- $r7
	@DEBUG_VALUE: ip4_input:check_ip_src <- $r6
	@DEBUG_VALUE: ip4_input:iphdr <- $r5
	@DEBUG_VALUE: ip4_input:p <- $r4
	.loc	3 662 39                        @ rt-thread/components/net/lwip-2.0.2/src/core/ipv4/ip4.c:662:39
	ldrb	r0, [r5]
	movs	r1, #60
	.loc	3 659 25                        @ rt-thread/components/net/lwip-2.0.2/src/core/ipv4/ip4.c:659:25
	strd	r7, r10, [r9]
	.loc	3 662 53                        @ rt-thread/components/net/lwip-2.0.2/src/core/ipv4/ip4.c:662:53
	and.w	r0, r1, r0, lsl #2
	.loc	3 662 37 is_stmt 0              @ rt-thread/components/net/lwip-2.0.2/src/core/ipv4/ip4.c:662:37
	strh.w	r0, [r9, #12]
.Ltmp92:
	.loc	3 666 7 is_stmt 1               @ rt-thread/components/net/lwip-2.0.2/src/core/ipv4/ip4.c:666:7
	mov	r0, r4
	mov	r1, r10
.Ltmp93:
	.loc	3 661 30                        @ rt-thread/components/net/lwip-2.0.2/src/core/ipv4/ip4.c:661:30
	str.w	r5, [r9, #8]
.Ltmp94:
	.loc	3 666 7                         @ rt-thread/components/net/lwip-2.0.2/src/core/ipv4/ip4.c:666:7
	bl	raw_input
.Ltmp95:
	.loc	3 666 7 is_stmt 0               @ rt-thread/components/net/lwip-2.0.2/src/core/ipv4/ip4.c:666:7
	cbz	r0, .LBB2_39
.Ltmp96:
.LBB2_38:
	@DEBUG_VALUE: ip4_input:inp <- $r10
	@DEBUG_VALUE: ip4_input:netif <- $r7
	@DEBUG_VALUE: ip4_input:check_ip_src <- $r6
	@DEBUG_VALUE: ip4_input:iphdr <- $r5
	@DEBUG_VALUE: ip4_input:p <- $r4
	.loc	3 0 7                           @ rt-thread/components/net/lwip-2.0.2/src/core/ipv4/ip4.c:0:7
	movs	r0, #0
	.loc	3 720 31 is_stmt 1              @ rt-thread/components/net/lwip-2.0.2/src/core/ipv4/ip4.c:720:31
	str.w	r0, [r9, #8]
	.loc	3 723 3                         @ rt-thread/components/net/lwip-2.0.2/src/core/ipv4/ip4.c:723:3
	strd	r0, r0, [r9, #16]
	.loc	3 720 31                        @ rt-thread/components/net/lwip-2.0.2/src/core/ipv4/ip4.c:720:31
	strd	r0, r0, [r9]
	strh.w	r0, [r9, #12]
	b	.LBB2_6
.Ltmp97:
.LBB2_39:
	@DEBUG_VALUE: ip4_input:inp <- $r10
	@DEBUG_VALUE: ip4_input:netif <- $r7
	@DEBUG_VALUE: ip4_input:check_ip_src <- $r6
	@DEBUG_VALUE: ip4_input:iphdr <- $r5
	@DEBUG_VALUE: ip4_input:p <- $r4
	.loc	3 669 20                        @ rt-thread/components/net/lwip-2.0.2/src/core/ipv4/ip4.c:669:20
	rsb.w	r1, r8, #0
	.loc	3 669 5 is_stmt 0               @ rt-thread/components/net/lwip-2.0.2/src/core/ipv4/ip4.c:669:5
	mov	r0, r4
	bl	pbuf_header
	.loc	3 671 13 is_stmt 1              @ rt-thread/components/net/lwip-2.0.2/src/core/ipv4/ip4.c:671:13
	ldrb	r0, [r5, #9]
	.loc	3 671 5 is_stmt 0               @ rt-thread/components/net/lwip-2.0.2/src/core/ipv4/ip4.c:671:5
	subs	r0, #1
	cmp	r0, #16
	bhi	.LBB2_44
.Ltmp98:
@ %bb.40:
	@DEBUG_VALUE: ip4_input:inp <- $r10
	@DEBUG_VALUE: ip4_input:netif <- $r7
	@DEBUG_VALUE: ip4_input:check_ip_src <- $r6
	@DEBUG_VALUE: ip4_input:iphdr <- $r5
	@DEBUG_VALUE: ip4_input:p <- $r4
	.loc	3 0 5                           @ rt-thread/components/net/lwip-2.0.2/src/core/ipv4/ip4.c:0:5
.LCPI2_0:
	tbb	[pc, r0]
.Ltmp99:
@ %bb.41:
.LJTI2_0:
	.byte	(.LBB2_42-(.LCPI2_0+4))/2
	.byte	(.LBB2_43-(.LCPI2_0+4))/2
	.byte	(.LBB2_44-(.LCPI2_0+4))/2
	.byte	(.LBB2_44-(.LCPI2_0+4))/2
	.byte	(.LBB2_44-(.LCPI2_0+4))/2
	.byte	(.LBB2_48-(.LCPI2_0+4))/2
	.byte	(.LBB2_44-(.LCPI2_0+4))/2
	.byte	(.LBB2_44-(.LCPI2_0+4))/2
	.byte	(.LBB2_44-(.LCPI2_0+4))/2
	.byte	(.LBB2_44-(.LCPI2_0+4))/2
	.byte	(.LBB2_44-(.LCPI2_0+4))/2
	.byte	(.LBB2_44-(.LCPI2_0+4))/2
	.byte	(.LBB2_44-(.LCPI2_0+4))/2
	.byte	(.LBB2_44-(.LCPI2_0+4))/2
	.byte	(.LBB2_44-(.LCPI2_0+4))/2
	.byte	(.LBB2_44-(.LCPI2_0+4))/2
	.byte	(.LBB2_49-(.LCPI2_0+4))/2
	.p2align	1
.LBB2_42:
.Ltmp100:
	@DEBUG_VALUE: ip4_input:inp <- $r10
	@DEBUG_VALUE: ip4_input:netif <- $r7
	@DEBUG_VALUE: ip4_input:check_ip_src <- $r6
	@DEBUG_VALUE: ip4_input:iphdr <- $r5
	@DEBUG_VALUE: ip4_input:p <- $r4
	.loc	3 690 7 is_stmt 1               @ rt-thread/components/net/lwip-2.0.2/src/core/ipv4/ip4.c:690:7
	mov	r0, r4
	mov	r1, r10
	bl	icmp_input
	b	.LBB2_38
.Ltmp101:
.LBB2_43:
	@DEBUG_VALUE: ip4_input:inp <- $r10
	@DEBUG_VALUE: ip4_input:netif <- $r7
	@DEBUG_VALUE: ip4_input:check_ip_src <- $r6
	@DEBUG_VALUE: ip4_input:iphdr <- $r5
	@DEBUG_VALUE: ip4_input:p <- $r4
	.loc	3 695 7                         @ rt-thread/components/net/lwip-2.0.2/src/core/ipv4/ip4.c:695:7
	add.w	r2, r9, #20
	mov	r0, r4
	mov	r1, r10
	bl	igmp_input
	b	.LBB2_38
.Ltmp102:
.LBB2_44:
	@DEBUG_VALUE: ip4_input:inp <- $r10
	@DEBUG_VALUE: ip4_input:netif <- $r7
	@DEBUG_VALUE: ip4_input:check_ip_src <- $r6
	@DEBUG_VALUE: ip4_input:iphdr <- $r5
	@DEBUG_VALUE: ip4_input:p <- $r4
	.loc	3 701 12                        @ rt-thread/components/net/lwip-2.0.2/src/core/ipv4/ip4.c:701:12
	ldr.w	r0, [r9, #20]
	mov	r1, r7
	bl	ip4_addr_isbroadcast_u32
	.loc	3 701 65 is_stmt 0              @ rt-thread/components/net/lwip-2.0.2/src/core/ipv4/ip4.c:701:65
	cbnz	r0, .LBB2_47
.Ltmp103:
@ %bb.45:
	@DEBUG_VALUE: ip4_input:inp <- $r10
	@DEBUG_VALUE: ip4_input:netif <- $r7
	@DEBUG_VALUE: ip4_input:check_ip_src <- $r6
	@DEBUG_VALUE: ip4_input:iphdr <- $r5
	@DEBUG_VALUE: ip4_input:p <- $r4
	.loc	3 702 12 is_stmt 1              @ rt-thread/components/net/lwip-2.0.2/src/core/ipv4/ip4.c:702:12
	ldr.w	r0, [r9, #20]
	and	r0, r0, #240
.Ltmp104:
	.loc	3 701 11                        @ rt-thread/components/net/lwip-2.0.2/src/core/ipv4/ip4.c:701:11
	cmp	r0, #224
	beq	.LBB2_47
.Ltmp105:
@ %bb.46:
	@DEBUG_VALUE: ip4_input:inp <- $r10
	@DEBUG_VALUE: ip4_input:netif <- $r7
	@DEBUG_VALUE: ip4_input:check_ip_src <- $r6
	@DEBUG_VALUE: ip4_input:iphdr <- $r5
	@DEBUG_VALUE: ip4_input:p <- $r4
	.loc	3 703 9                         @ rt-thread/components/net/lwip-2.0.2/src/core/ipv4/ip4.c:703:9
	mov	r0, r4
	mov	r1, r8
	bl	pbuf_header_force
	.loc	3 705 9                         @ rt-thread/components/net/lwip-2.0.2/src/core/ipv4/ip4.c:705:9
	movs	r1, #2
	mov	r0, r4
	.loc	3 704 20                        @ rt-thread/components/net/lwip-2.0.2/src/core/ipv4/ip4.c:704:20
	str	r5, [r4, #4]
	.loc	3 705 9                         @ rt-thread/components/net/lwip-2.0.2/src/core/ipv4/ip4.c:705:9
	bl	icmp_dest_unreach
.Ltmp106:
.LBB2_47:
	@DEBUG_VALUE: ip4_input:inp <- $r10
	@DEBUG_VALUE: ip4_input:netif <- $r7
	@DEBUG_VALUE: ip4_input:check_ip_src <- $r6
	@DEBUG_VALUE: ip4_input:iphdr <- $r5
	@DEBUG_VALUE: ip4_input:p <- $r4
	.loc	3 708 7                         @ rt-thread/components/net/lwip-2.0.2/src/core/ipv4/ip4.c:708:7
	mov	r0, r4
	bl	pbuf_free
	b	.LBB2_38
.Ltmp107:
.LBB2_48:
	@DEBUG_VALUE: ip4_input:inp <- $r10
	@DEBUG_VALUE: ip4_input:netif <- $r7
	@DEBUG_VALUE: ip4_input:check_ip_src <- $r6
	@DEBUG_VALUE: ip4_input:iphdr <- $r5
	@DEBUG_VALUE: ip4_input:p <- $r4
	.loc	3 684 7                         @ rt-thread/components/net/lwip-2.0.2/src/core/ipv4/ip4.c:684:7
	mov	r0, r4
	mov	r1, r10
	bl	tcp_input
	b	.LBB2_38
.Ltmp108:
.LBB2_49:
	@DEBUG_VALUE: ip4_input:inp <- $r10
	@DEBUG_VALUE: ip4_input:netif <- $r7
	@DEBUG_VALUE: ip4_input:check_ip_src <- $r6
	@DEBUG_VALUE: ip4_input:iphdr <- $r5
	@DEBUG_VALUE: ip4_input:p <- $r4
	.loc	3 678 7                         @ rt-thread/components/net/lwip-2.0.2/src/core/ipv4/ip4.c:678:7
	mov	r0, r4
	mov	r1, r10
	bl	udp_input
	b	.LBB2_38
.Ltmp109:
.Lfunc_end2:
	.size	ip4_input, .Lfunc_end2-ip4_input
	.cfi_endproc
	.cantunwind
	.fnend
                                        @ -- End function
	.section	.text.ip4_output_if,"ax",%progbits
	.hidden	ip4_output_if                   @ -- Begin function ip4_output_if
	.globl	ip4_output_if
	.p2align	3
	.type	ip4_output_if,%function
	.code	16                              @ @ip4_output_if
	.thumb_func
ip4_output_if:
.Lfunc_begin3:
	.loc	3 758 0                         @ rt-thread/components/net/lwip-2.0.2/src/core/ipv4/ip4.c:758:0
	.fnstart
	.cfi_startproc
@ %bb.0:
	@DEBUG_VALUE: ip4_output_if:p <- $r0
	@DEBUG_VALUE: ip4_output_if:src <- $r1
	@DEBUG_VALUE: ip4_output_if:dest <- $r2
	@DEBUG_VALUE: ip4_output_if:ttl <- $r3
	.save	{r4, lr}
	push	{r4, lr}
	.cfi_def_cfa_offset 8
	.cfi_offset lr, -4
	.cfi_offset r4, -8
	.pad	#24
	sub	sp, #24
	.cfi_def_cfa_offset 32
	ldrd	r12, lr, [sp, #32]
	ldr	r4, [sp, #40]
	@DEBUG_VALUE: ip4_output_if:proto <- undef
	@DEBUG_VALUE: ip4_output_if:tos <- undef
.Ltmp110:
	@DEBUG_VALUE: ip4_output_if:netif <- [DW_OP_plus_uconst 40] [$sp+0]
	@DEBUG_VALUE: ip4_output_if:ttl <- $r3
	@DEBUG_VALUE: ip4_output_if:dest <- $r2
	@DEBUG_VALUE: ip4_output_if:src <- $r1
	@DEBUG_VALUE: ip4_output_if:p <- $r0
	.loc	3 760 10 prologue_end           @ rt-thread/components/net/lwip-2.0.2/src/core/ipv4/ip4.c:760:10
	str	r4, [sp, #8]
	strd	r12, lr, [sp]
	movs	r4, #0
	strd	r4, r4, [sp, #12]
	@DEBUG_VALUE: ip4_output_if:ttl <- $r3
	@DEBUG_VALUE: ip4_output_if:dest <- $r2
	@DEBUG_VALUE: ip4_output_if:src <- $r1
	@DEBUG_VALUE: ip4_output_if:p <- $r0
	bl	ip4_output_if_opt
.Ltmp111:
	@DEBUG_VALUE: ip4_output_if:ttl <- [DW_OP_LLVM_entry_value 1] $r3
	@DEBUG_VALUE: ip4_output_if:dest <- [DW_OP_LLVM_entry_value 1] $r2
	@DEBUG_VALUE: ip4_output_if:src <- [DW_OP_LLVM_entry_value 1] $r1
	@DEBUG_VALUE: ip4_output_if:p <- [DW_OP_LLVM_entry_value 1] $r0
	.loc	3 760 3 is_stmt 0               @ rt-thread/components/net/lwip-2.0.2/src/core/ipv4/ip4.c:760:3
	add	sp, #24
	pop	{r4, pc}
.Ltmp112:
.Lfunc_end3:
	.size	ip4_output_if, .Lfunc_end3-ip4_output_if
	.cfi_endproc
	.cantunwind
	.fnend
                                        @ -- End function
	.section	.text.ip4_output_if_opt,"ax",%progbits
	.hidden	ip4_output_if_opt               @ -- Begin function ip4_output_if_opt
	.globl	ip4_output_if_opt
	.p2align	3
	.type	ip4_output_if_opt,%function
	.code	16                              @ @ip4_output_if_opt
	.thumb_func
ip4_output_if_opt:
.Lfunc_begin4:
	.loc	3 773 0 is_stmt 1               @ rt-thread/components/net/lwip-2.0.2/src/core/ipv4/ip4.c:773:0
	.fnstart
	.cfi_startproc
@ %bb.0:
	@DEBUG_VALUE: ip4_output_if_opt:p <- $r0
	@DEBUG_VALUE: ip4_output_if_opt:src <- $r1
	@DEBUG_VALUE: ip4_output_if_opt:dest <- $r2
	@DEBUG_VALUE: ip4_output_if_opt:ttl <- $r3
	.save	{r4, r5, r6, r7, lr}
	push	{r4, r5, r6, r7, lr}
	.cfi_def_cfa_offset 20
	.cfi_offset lr, -4
	.cfi_offset r7, -8
	.cfi_offset r6, -12
	.cfi_offset r5, -16
	.cfi_offset r4, -20
	.pad	#20
	sub	sp, #20
	.cfi_def_cfa_offset 40
.Ltmp113:
	@DEBUG_VALUE: ip4_output_if_opt:src_used <- $r1
	ldr.w	r12, [sp, #56]
.Ltmp114:
	@DEBUG_VALUE: ip4_output_if_opt:proto <- $r5
	ldrd	r4, lr, [sp, #48]
.Ltmp115:
	@DEBUG_VALUE: ip4_output_if_opt:optlen <- $r12
	@DEBUG_VALUE: ip4_output_if_opt:src_used <- $r1
	@DEBUG_VALUE: ip4_output_if_opt:ip_options <- [DW_OP_plus_uconst 52] [$sp+0]
	@DEBUG_VALUE: ip4_output_if_opt:netif <- [DW_OP_plus_uconst 48] [$sp+0]
	@DEBUG_VALUE: ip4_output_if_opt:ttl <- $r3
	@DEBUG_VALUE: ip4_output_if_opt:dest <- $r2
	@DEBUG_VALUE: ip4_output_if_opt:src <- $r1
	@DEBUG_VALUE: ip4_output_if_opt:p <- $r0
	ldrd	r6, r5, [sp, #40]
.Ltmp116:
	@DEBUG_VALUE: ip4_output_if_opt:proto <- [DW_OP_LLVM_entry_value 1] $r5
	@DEBUG_VALUE: ip4_output_if_opt:tos <- $r6
	.loc	3 776 7 prologue_end            @ rt-thread/components/net/lwip-2.0.2/src/core/ipv4/ip4.c:776:7
	cbz	r2, .LBB4_4
.Ltmp117:
@ %bb.1:
	@DEBUG_VALUE: ip4_output_if_opt:optlen <- $r12
	@DEBUG_VALUE: ip4_output_if_opt:tos <- $r6
	@DEBUG_VALUE: ip4_output_if_opt:ttl <- $r3
	@DEBUG_VALUE: ip4_output_if_opt:dest <- $r2
	@DEBUG_VALUE: ip4_output_if_opt:src_used <- $r1
	@DEBUG_VALUE: ip4_output_if_opt:src <- $r1
	@DEBUG_VALUE: ip4_output_if_opt:p <- $r0
	@DEBUG_VALUE: ip4_output_if_opt:netif <- [DW_OP_plus_uconst 48] [$sp+0]
	@DEBUG_VALUE: ip4_output_if_opt:ip_options <- [DW_OP_plus_uconst 52] [$sp+0]
	@DEBUG_VALUE: ip4_output_if_opt:proto <- [DW_OP_LLVM_entry_value 1] $r5
	.loc	3 777 9                         @ rt-thread/components/net/lwip-2.0.2/src/core/ipv4/ip4.c:777:9
	cbz	r1, .LBB4_3
.Ltmp118:
@ %bb.2:
	@DEBUG_VALUE: ip4_output_if_opt:optlen <- $r12
	@DEBUG_VALUE: ip4_output_if_opt:tos <- $r6
	@DEBUG_VALUE: ip4_output_if_opt:ttl <- $r3
	@DEBUG_VALUE: ip4_output_if_opt:dest <- $r2
	@DEBUG_VALUE: ip4_output_if_opt:src_used <- $r1
	@DEBUG_VALUE: ip4_output_if_opt:src <- $r1
	@DEBUG_VALUE: ip4_output_if_opt:p <- $r0
	@DEBUG_VALUE: ip4_output_if_opt:netif <- [DW_OP_plus_uconst 48] [$sp+0]
	@DEBUG_VALUE: ip4_output_if_opt:ip_options <- [DW_OP_plus_uconst 52] [$sp+0]
	@DEBUG_VALUE: ip4_output_if_opt:proto <- [DW_OP_LLVM_entry_value 1] $r5
	ldr	r7, [r1]
.Ltmp119:
	.loc	3 777 9 is_stmt 0               @ rt-thread/components/net/lwip-2.0.2/src/core/ipv4/ip4.c:777:9
	cmp	r7, #0
.Ltmp120:
	.loc	3 778 18 is_stmt 1              @ rt-thread/components/net/lwip-2.0.2/src/core/ipv4/ip4.c:778:18
	it	eq
	addeq	r1, r4, #4
.Ltmp121:
	@DEBUG_VALUE: ip4_output_if_opt:src <- [DW_OP_LLVM_entry_value 1] $r1
	@DEBUG_VALUE: ip4_output_if_opt:src_used <- $r1
	.loc	3 0 18 is_stmt 0                @ rt-thread/components/net/lwip-2.0.2/src/core/ipv4/ip4.c:0:18
	b	.LBB4_4
.Ltmp122:
.LBB4_3:
	@DEBUG_VALUE: ip4_output_if_opt:optlen <- $r12
	@DEBUG_VALUE: ip4_output_if_opt:tos <- $r6
	@DEBUG_VALUE: ip4_output_if_opt:ttl <- $r3
	@DEBUG_VALUE: ip4_output_if_opt:dest <- $r2
	@DEBUG_VALUE: ip4_output_if_opt:src_used <- $r1
	@DEBUG_VALUE: ip4_output_if_opt:src <- $r1
	@DEBUG_VALUE: ip4_output_if_opt:p <- $r0
	@DEBUG_VALUE: ip4_output_if_opt:netif <- [DW_OP_plus_uconst 48] [$sp+0]
	@DEBUG_VALUE: ip4_output_if_opt:ip_options <- [DW_OP_plus_uconst 52] [$sp+0]
	@DEBUG_VALUE: ip4_output_if_opt:proto <- [DW_OP_LLVM_entry_value 1] $r5
	.loc	3 778 18                        @ rt-thread/components/net/lwip-2.0.2/src/core/ipv4/ip4.c:778:18
	adds	r1, r4, #4
.Ltmp123:
	@DEBUG_VALUE: ip4_output_if_opt:src <- [DW_OP_LLVM_entry_value 1] $r1
	@DEBUG_VALUE: ip4_output_if_opt:src_used <- $r1
.LBB4_4:
	@DEBUG_VALUE: ip4_output_if_opt:optlen <- $r12
	@DEBUG_VALUE: ip4_output_if_opt:tos <- $r6
	@DEBUG_VALUE: ip4_output_if_opt:ttl <- $r3
	@DEBUG_VALUE: ip4_output_if_opt:dest <- $r2
	@DEBUG_VALUE: ip4_output_if_opt:src_used <- $r1
	@DEBUG_VALUE: ip4_output_if_opt:p <- $r0
	@DEBUG_VALUE: ip4_output_if_opt:netif <- [DW_OP_plus_uconst 48] [$sp+0]
	@DEBUG_VALUE: ip4_output_if_opt:ip_options <- [DW_OP_plus_uconst 52] [$sp+0]
	@DEBUG_VALUE: ip4_output_if_opt:proto <- [DW_OP_LLVM_entry_value 1] $r5
	@DEBUG_VALUE: ip4_output_if_opt:src_used <- $r1
	.loc	3 783 10 is_stmt 1              @ rt-thread/components/net/lwip-2.0.2/src/core/ipv4/ip4.c:783:10
	strd	r6, r5, [sp]
	strd	r4, lr, [sp, #8]
	str.w	r12, [sp, #16]
	bl	ip4_output_if_opt_src
.Ltmp124:
	@DEBUG_VALUE: ip4_output_if_opt:ttl <- [DW_OP_LLVM_entry_value 1] $r3
	@DEBUG_VALUE: ip4_output_if_opt:dest <- [DW_OP_LLVM_entry_value 1] $r2
	@DEBUG_VALUE: ip4_output_if_opt:p <- [DW_OP_LLVM_entry_value 1] $r0
	.loc	3 783 3 is_stmt 0               @ rt-thread/components/net/lwip-2.0.2/src/core/ipv4/ip4.c:783:3
	add	sp, #20
	pop	{r4, r5, r6, r7, pc}
.Ltmp125:
.Lfunc_end4:
	.size	ip4_output_if_opt, .Lfunc_end4-ip4_output_if_opt
	.cfi_endproc
	.cantunwind
	.fnend
                                        @ -- End function
	.section	.text.ip4_output_if_opt_src,"ax",%progbits
	.hidden	ip4_output_if_opt_src           @ -- Begin function ip4_output_if_opt_src
	.globl	ip4_output_if_opt_src
	.p2align	3
	.type	ip4_output_if_opt_src,%function
	.code	16                              @ @ip4_output_if_opt_src
	.thumb_func
ip4_output_if_opt_src:
.Lfunc_begin5:
	.loc	3 811 0 is_stmt 1               @ rt-thread/components/net/lwip-2.0.2/src/core/ipv4/ip4.c:811:0
	.fnstart
	.cfi_startproc
@ %bb.0:
	@DEBUG_VALUE: ip4_output_if_opt_src:p <- $r0
	@DEBUG_VALUE: ip4_output_if_opt_src:src <- $r1
	@DEBUG_VALUE: ip4_output_if_opt_src:dest <- $r2
	@DEBUG_VALUE: ip4_output_if_opt_src:ttl <- $r3
	.save	{r4, r5, r6, r7, r8, r9, r10, r11, lr}
	push.w	{r4, r5, r6, r7, r8, r9, r10, r11, lr}
	.cfi_def_cfa_offset 36
	.cfi_offset lr, -4
	.cfi_offset r11, -8
	.cfi_offset r10, -12
	.cfi_offset r9, -16
	.cfi_offset r8, -20
	.cfi_offset r7, -24
	.cfi_offset r6, -28
	.cfi_offset r5, -32
	.cfi_offset r4, -36
	.pad	#12
	sub	sp, #12
	.cfi_def_cfa_offset 48
	mov	r4, r0
.Ltmp126:
	@DEBUG_VALUE: ip4_output_if_opt_src:chk_sum <- 0
	@DEBUG_VALUE: ip4_output_if_opt_src:tos <- undef
	@DEBUG_VALUE: ip4_output_if_opt_src:proto <- undef
	@DEBUG_VALUE: ip4_output_if_opt_src:optlen <- undef
	@DEBUG_VALUE: ip4_output_if_opt_src:ip_options <- [DW_OP_plus_uconst 60] [$sp+0]
	@DEBUG_VALUE: ip4_output_if_opt_src:netif <- [DW_OP_plus_uconst 56] [$sp+0]
	@DEBUG_VALUE: ip4_output_if_opt_src:ttl <- undef
	@DEBUG_VALUE: ip4_output_if_opt_src:p <- $r4
	.loc	3 819 3 prologue_end            @ rt-thread/components/net/lwip-2.0.2/src/core/ipv4/ip4.c:819:3
	ldrh	r0, [r0, #14]
	mov	r9, r3
.Ltmp127:
	@DEBUG_VALUE: ip4_output_if_opt_src:ttl <- $r9
	.loc	3 0 3 is_stmt 0                 @ rt-thread/components/net/lwip-2.0.2/src/core/ipv4/ip4.c:0:3
	mov	r5, r2
.Ltmp128:
	@DEBUG_VALUE: ip4_output_if_opt_src:dest <- $r5
	@DEBUG_VALUE: ip4_output_if_opt_src:dest <- $r5
	.loc	3 819 3                         @ rt-thread/components/net/lwip-2.0.2/src/core/ipv4/ip4.c:819:3
	cmp	r0, #1
	mov	r8, r1
.Ltmp129:
	@DEBUG_VALUE: ip4_output_if_opt_src:src <- $r8
	@DEBUG_VALUE: ip4_output_if_opt_src:src <- $r8
	beq	.LBB5_2
.Ltmp130:
@ %bb.1:
	@DEBUG_VALUE: ip4_output_if_opt_src:ttl <- $r9
	@DEBUG_VALUE: ip4_output_if_opt_src:src <- $r8
	@DEBUG_VALUE: ip4_output_if_opt_src:dest <- $r5
	@DEBUG_VALUE: ip4_output_if_opt_src:p <- $r4
	@DEBUG_VALUE: ip4_output_if_opt_src:netif <- [DW_OP_plus_uconst 56] [$sp+0]
	@DEBUG_VALUE: ip4_output_if_opt_src:ip_options <- [DW_OP_plus_uconst 60] [$sp+0]
	@DEBUG_VALUE: ip4_output_if_opt_src:chk_sum <- 0
	.loc	3 819 3                         @ rt-thread/components/net/lwip-2.0.2/src/core/ipv4/ip4.c:819:3
	movw	r0, :lower16:.L.str
	movt	r0, :upper16:.L.str
	bl	rt_kprintf
	movw	r0, :lower16:.L.str.1
	movw	r1, #819
	movt	r0, :upper16:.L.str.1
	bl	sys_arch_assert
.Ltmp131:
.LBB5_2:
	@DEBUG_VALUE: ip4_output_if_opt_src:ttl <- $r9
	@DEBUG_VALUE: ip4_output_if_opt_src:src <- $r8
	@DEBUG_VALUE: ip4_output_if_opt_src:dest <- $r5
	@DEBUG_VALUE: ip4_output_if_opt_src:p <- $r4
	@DEBUG_VALUE: ip4_output_if_opt_src:netif <- [DW_OP_plus_uconst 56] [$sp+0]
	@DEBUG_VALUE: ip4_output_if_opt_src:ip_options <- [DW_OP_plus_uconst 60] [$sp+0]
	@DEBUG_VALUE: ip4_output_if_opt_src:chk_sum <- 0
	@DEBUG_VALUE: ip4_output_if_opt_src:ttl <- $r9
	@DEBUG_VALUE: ip4_output_if_opt_src:optlen <- undef
	@DEBUG_VALUE: ip4_output_if_opt_src:proto <- undef
	@DEBUG_VALUE: ip4_output_if_opt_src:tos <- undef
	.loc	3 824 7 is_stmt 1               @ rt-thread/components/net/lwip-2.0.2/src/core/ipv4/ip4.c:824:7
	cbz	r5, .LBB5_7
.Ltmp132:
@ %bb.3:
	@DEBUG_VALUE: ip4_output_if_opt_src:ttl <- $r9
	@DEBUG_VALUE: ip4_output_if_opt_src:src <- $r8
	@DEBUG_VALUE: ip4_output_if_opt_src:dest <- $r5
	@DEBUG_VALUE: ip4_output_if_opt_src:p <- $r4
	@DEBUG_VALUE: ip4_output_if_opt_src:netif <- [DW_OP_plus_uconst 56] [$sp+0]
	@DEBUG_VALUE: ip4_output_if_opt_src:ip_options <- [DW_OP_plus_uconst 60] [$sp+0]
	@DEBUG_VALUE: ip4_output_if_opt_src:chk_sum <- 0
	.loc	3 0 7 is_stmt 0                 @ rt-thread/components/net/lwip-2.0.2/src/core/ipv4/ip4.c:0:7
	ldr	r7, [sp, #64]
.Ltmp133:
	@DEBUG_VALUE: optlen_aligned <- 0
	@DEBUG_VALUE: ip_hlen <- 20
	@DEBUG_VALUE: ip4_output_if_opt_src:tos <- undef
	@DEBUG_VALUE: ip4_output_if_opt_src:proto <- undef
	@DEBUG_VALUE: ip4_output_if_opt_src:optlen <- $r7
	@DEBUG_VALUE: ip4_output_if_opt_src:ttl <- $r9
	.loc	3 828 9 is_stmt 1               @ rt-thread/components/net/lwip-2.0.2/src/core/ipv4/ip4.c:828:9
	cbz	r7, .LBB5_8
.Ltmp134:
@ %bb.4:
	@DEBUG_VALUE: ip4_output_if_opt_src:ttl <- $r9
	@DEBUG_VALUE: ip4_output_if_opt_src:src <- $r8
	@DEBUG_VALUE: ip4_output_if_opt_src:optlen <- $r7
	@DEBUG_VALUE: ip4_output_if_opt_src:dest <- $r5
	@DEBUG_VALUE: ip4_output_if_opt_src:p <- $r4
	@DEBUG_VALUE: ip4_output_if_opt_src:netif <- [DW_OP_plus_uconst 56] [$sp+0]
	@DEBUG_VALUE: ip4_output_if_opt_src:ip_options <- [DW_OP_plus_uconst 60] [$sp+0]
	@DEBUG_VALUE: ip_hlen <- 20
	@DEBUG_VALUE: optlen_aligned <- 0
	@DEBUG_VALUE: ip4_output_if_opt_src:chk_sum <- 0
	.loc	3 833 33                        @ rt-thread/components/net/lwip-2.0.2/src/core/ipv4/ip4.c:833:33
	adds	r6, r7, #3
	movw	r0, #65532
	.loc	3 833 38 is_stmt 0              @ rt-thread/components/net/lwip-2.0.2/src/core/ipv4/ip4.c:833:38
	bic	r10, r6, #3
.Ltmp135:
	@DEBUG_VALUE: optlen_aligned <- $r10
	.loc	3 834 18 is_stmt 1              @ rt-thread/components/net/lwip-2.0.2/src/core/ipv4/ip4.c:834:18
	ands	r0, r6
.Ltmp136:
	@DEBUG_VALUE: ip_hlen <- [DW_OP_LLVM_convert 32 7, DW_OP_LLVM_convert 16 7, DW_OP_stack_value] undef
	.loc	3 836 11                        @ rt-thread/components/net/lwip-2.0.2/src/core/ipv4/ip4.c:836:11
	sxth.w	r1, r10
	str	r0, [sp, #4]                    @ 4-byte Spill
	mov	r0, r4
	bl	pbuf_header
	mov	r11, r0
.Ltmp137:
	.loc	3 836 11 is_stmt 0              @ rt-thread/components/net/lwip-2.0.2/src/core/ipv4/ip4.c:836:11
	cbz	r0, .LBB5_11
.Ltmp138:
.LBB5_5:
	@DEBUG_VALUE: optlen_aligned <- $r10
	@DEBUG_VALUE: ip4_output_if_opt_src:ttl <- $r9
	@DEBUG_VALUE: ip4_output_if_opt_src:src <- $r8
	@DEBUG_VALUE: ip4_output_if_opt_src:optlen <- $r7
	@DEBUG_VALUE: ip4_output_if_opt_src:dest <- $r5
	@DEBUG_VALUE: ip4_output_if_opt_src:p <- $r4
	@DEBUG_VALUE: ip4_output_if_opt_src:netif <- [DW_OP_plus_uconst 56] [$sp+0]
	@DEBUG_VALUE: ip4_output_if_opt_src:ip_options <- [DW_OP_plus_uconst 60] [$sp+0]
	@DEBUG_VALUE: ip4_output_if_opt_src:chk_sum <- 0
	.loc	3 0 11                          @ rt-thread/components/net/lwip-2.0.2/src/core/ipv4/ip4.c:0:11
	movs	r7, #0
.Ltmp139:
	@DEBUG_VALUE: ip4_output_if_opt_src:chk_sum <- $r7
	@DEBUG_VALUE: ip_hlen <- [DW_OP_LLVM_convert 32 7, DW_OP_LLVM_convert 16 7, DW_OP_stack_value] undef
	cmp.w	r11, #0
	bne	.LBB5_17
.Ltmp140:
.LBB5_6:
	@DEBUG_VALUE: optlen_aligned <- $r10
	@DEBUG_VALUE: ip4_output_if_opt_src:ttl <- $r9
	@DEBUG_VALUE: ip4_output_if_opt_src:src <- $r8
	@DEBUG_VALUE: ip4_output_if_opt_src:chk_sum <- $r7
	@DEBUG_VALUE: ip4_output_if_opt_src:dest <- $r5
	@DEBUG_VALUE: ip4_output_if_opt_src:p <- $r4
	@DEBUG_VALUE: ip4_output_if_opt_src:netif <- [DW_OP_plus_uconst 56] [$sp+0]
	@DEBUG_VALUE: ip4_output_if_opt_src:ip_options <- [DW_OP_plus_uconst 60] [$sp+0]
	ldr	r0, [sp, #4]                    @ 4-byte Reload
	add.w	r10, r0, #20
	@DEBUG_VALUE: ip_hlen <- [DW_OP_LLVM_convert 32 7, DW_OP_LLVM_convert 16 7, DW_OP_stack_value] $r10
	b	.LBB5_9
.Ltmp141:
.LBB5_7:
	@DEBUG_VALUE: ip4_output_if_opt_src:ttl <- $r9
	@DEBUG_VALUE: ip4_output_if_opt_src:src <- $r8
	@DEBUG_VALUE: ip4_output_if_opt_src:dest <- $r5
	@DEBUG_VALUE: ip4_output_if_opt_src:p <- $r4
	@DEBUG_VALUE: ip4_output_if_opt_src:netif <- [DW_OP_plus_uconst 56] [$sp+0]
	@DEBUG_VALUE: ip4_output_if_opt_src:ip_options <- [DW_OP_plus_uconst 60] [$sp+0]
	@DEBUG_VALUE: ip4_output_if_opt_src:chk_sum <- 0
	.loc	3 927 33 is_stmt 1              @ rt-thread/components/net/lwip-2.0.2/src/core/ipv4/ip4.c:927:33
	ldr	r0, [r4, #4]
.Ltmp142:
	@DEBUG_VALUE: ip4_output_if_opt_src:iphdr <- $r0
	.loc	3 0 33 is_stmt 0                @ rt-thread/components/net/lwip-2.0.2/src/core/ipv4/ip4.c:0:33
	add	r5, sp, #8
.Ltmp143:
	@DEBUG_VALUE: ip4_output_if_opt_src:dest <- [DW_OP_LLVM_entry_value 1] $r2
	@DEBUG_VALUE: ip4_output_if_opt_src:dest <- [DW_OP_plus_uconst 8, DW_OP_stack_value] $sp
	.loc	3 928 5 is_stmt 1               @ rt-thread/components/net/lwip-2.0.2/src/core/ipv4/ip4.c:928:5
	ldr	r0, [r0, #16]
.Ltmp144:
	str	r0, [sp, #8]
	b	.LBB5_21
.Ltmp145:
.LBB5_8:
	@DEBUG_VALUE: ip4_output_if_opt_src:ttl <- $r9
	@DEBUG_VALUE: ip4_output_if_opt_src:src <- $r8
	@DEBUG_VALUE: ip4_output_if_opt_src:optlen <- $r7
	@DEBUG_VALUE: ip4_output_if_opt_src:dest <- $r5
	@DEBUG_VALUE: ip4_output_if_opt_src:p <- $r4
	@DEBUG_VALUE: ip4_output_if_opt_src:netif <- [DW_OP_plus_uconst 56] [$sp+0]
	@DEBUG_VALUE: ip4_output_if_opt_src:ip_options <- [DW_OP_plus_uconst 60] [$sp+0]
	@DEBUG_VALUE: ip_hlen <- 20
	@DEBUG_VALUE: optlen_aligned <- 0
	@DEBUG_VALUE: ip4_output_if_opt_src:chk_sum <- 0
	.loc	3 0 5 is_stmt 0                 @ rt-thread/components/net/lwip-2.0.2/src/core/ipv4/ip4.c:0:5
	mov.w	r10, #20
	movs	r7, #0
.Ltmp146:
.LBB5_9:
	@DEBUG_VALUE: ip4_output_if_opt_src:ttl <- $r9
	@DEBUG_VALUE: ip4_output_if_opt_src:src <- $r8
	@DEBUG_VALUE: ip4_output_if_opt_src:dest <- $r5
	@DEBUG_VALUE: ip4_output_if_opt_src:p <- $r4
	@DEBUG_VALUE: ip4_output_if_opt_src:netif <- [DW_OP_plus_uconst 56] [$sp+0]
	@DEBUG_VALUE: ip4_output_if_opt_src:ip_options <- [DW_OP_plus_uconst 60] [$sp+0]
	@DEBUG_VALUE: ip4_output_if_opt_src:ttl <- $r9
	@DEBUG_VALUE: ip4_output_if_opt_src:proto <- undef
	@DEBUG_VALUE: ip4_output_if_opt_src:tos <- undef
	@DEBUG_VALUE: ip4_output_if_opt_src:chk_sum <- $r7
	@DEBUG_VALUE: ip_hlen <- undef
	.loc	3 855 9 is_stmt 1               @ rt-thread/components/net/lwip-2.0.2/src/core/ipv4/ip4.c:855:9
	movs	r1, #20
	mov	r0, r4
	bl	pbuf_header
	cbz	r0, .LBB5_18
.Ltmp147:
@ %bb.10:
	@DEBUG_VALUE: ip4_output_if_opt_src:ttl <- $r9
	@DEBUG_VALUE: ip4_output_if_opt_src:src <- $r8
	@DEBUG_VALUE: ip4_output_if_opt_src:chk_sum <- $r7
	@DEBUG_VALUE: ip4_output_if_opt_src:dest <- $r5
	@DEBUG_VALUE: ip4_output_if_opt_src:p <- $r4
	@DEBUG_VALUE: ip4_output_if_opt_src:netif <- [DW_OP_plus_uconst 56] [$sp+0]
	@DEBUG_VALUE: ip4_output_if_opt_src:ip_options <- [DW_OP_plus_uconst 60] [$sp+0]
	.loc	3 0 9 is_stmt 0                 @ rt-thread/components/net/lwip-2.0.2/src/core/ipv4/ip4.c:0:9
	movs	r0, #254
	b	.LBB5_22
.Ltmp148:
.LBB5_11:
	@DEBUG_VALUE: optlen_aligned <- $r10
	@DEBUG_VALUE: ip4_output_if_opt_src:ttl <- $r9
	@DEBUG_VALUE: ip4_output_if_opt_src:src <- $r8
	@DEBUG_VALUE: ip4_output_if_opt_src:optlen <- $r7
	@DEBUG_VALUE: ip4_output_if_opt_src:dest <- $r5
	@DEBUG_VALUE: ip4_output_if_opt_src:p <- $r4
	@DEBUG_VALUE: ip4_output_if_opt_src:netif <- [DW_OP_plus_uconst 56] [$sp+0]
	@DEBUG_VALUE: ip4_output_if_opt_src:ip_options <- [DW_OP_plus_uconst 60] [$sp+0]
	@DEBUG_VALUE: ip4_output_if_opt_src:chk_sum <- 0
	ldr	r1, [sp, #60]
.Ltmp149:
	.loc	3 842 7 is_stmt 1               @ rt-thread/components/net/lwip-2.0.2/src/core/ipv4/ip4.c:842:7
	ldr	r0, [r4, #4]
	mov	r2, r7
	bl	__aeabi_memcpy
.Ltmp150:
	.loc	3 843 18                        @ rt-thread/components/net/lwip-2.0.2/src/core/ipv4/ip4.c:843:18
	uxth.w	r0, r10
.Ltmp151:
	.loc	3 843 11 is_stmt 0              @ rt-thread/components/net/lwip-2.0.2/src/core/ipv4/ip4.c:843:11
	cmp	r0, r7
	bls	.LBB5_13
.Ltmp152:
@ %bb.12:
	@DEBUG_VALUE: optlen_aligned <- $r10
	@DEBUG_VALUE: ip4_output_if_opt_src:ttl <- $r9
	@DEBUG_VALUE: ip4_output_if_opt_src:src <- $r8
	@DEBUG_VALUE: ip4_output_if_opt_src:optlen <- $r7
	@DEBUG_VALUE: ip4_output_if_opt_src:dest <- $r5
	@DEBUG_VALUE: ip4_output_if_opt_src:p <- $r4
	@DEBUG_VALUE: ip4_output_if_opt_src:netif <- [DW_OP_plus_uconst 56] [$sp+0]
	@DEBUG_VALUE: ip4_output_if_opt_src:ip_options <- [DW_OP_plus_uconst 60] [$sp+0]
	@DEBUG_VALUE: ip4_output_if_opt_src:chk_sum <- 0
	.loc	3 845 27 is_stmt 1              @ rt-thread/components/net/lwip-2.0.2/src/core/ipv4/ip4.c:845:27
	ldr	r0, [r4, #4]
	.loc	3 845 64 is_stmt 0              @ rt-thread/components/net/lwip-2.0.2/src/core/ipv4/ip4.c:845:64
	ldr	r1, [sp, #4]                    @ 4-byte Reload
	.loc	3 845 36                        @ rt-thread/components/net/lwip-2.0.2/src/core/ipv4/ip4.c:845:36
	add	r0, r7
	.loc	3 845 64                        @ rt-thread/components/net/lwip-2.0.2/src/core/ipv4/ip4.c:845:64
	subs	r1, r1, r7
	.loc	3 845 9                         @ rt-thread/components/net/lwip-2.0.2/src/core/ipv4/ip4.c:845:9
	bl	__aeabi_memclr
.Ltmp153:
.LBB5_13:
	@DEBUG_VALUE: optlen_aligned <- $r10
	@DEBUG_VALUE: ip4_output_if_opt_src:ttl <- $r9
	@DEBUG_VALUE: ip4_output_if_opt_src:src <- $r8
	@DEBUG_VALUE: ip4_output_if_opt_src:optlen <- $r7
	@DEBUG_VALUE: ip4_output_if_opt_src:dest <- $r5
	@DEBUG_VALUE: ip4_output_if_opt_src:p <- $r4
	@DEBUG_VALUE: ip4_output_if_opt_src:netif <- [DW_OP_plus_uconst 56] [$sp+0]
	@DEBUG_VALUE: ip4_output_if_opt_src:ip_options <- [DW_OP_plus_uconst 60] [$sp+0]
	@DEBUG_VALUE: ip4_output_if_opt_src:chk_sum <- 0
	@DEBUG_VALUE: ip4_output_if_opt_src:chk_sum <- 0
	@DEBUG_VALUE: i <- 0
	.loc	3 848 7 is_stmt 1               @ rt-thread/components/net/lwip-2.0.2/src/core/ipv4/ip4.c:848:7
	lsls.w	r0, r10, #16
	beq	.LBB5_5
.Ltmp154:
@ %bb.14:
	@DEBUG_VALUE: optlen_aligned <- $r10
	@DEBUG_VALUE: ip4_output_if_opt_src:ttl <- $r9
	@DEBUG_VALUE: ip4_output_if_opt_src:src <- $r8
	@DEBUG_VALUE: ip4_output_if_opt_src:optlen <- $r7
	@DEBUG_VALUE: ip4_output_if_opt_src:dest <- $r5
	@DEBUG_VALUE: ip4_output_if_opt_src:p <- $r4
	@DEBUG_VALUE: ip4_output_if_opt_src:netif <- [DW_OP_plus_uconst 56] [$sp+0]
	@DEBUG_VALUE: ip4_output_if_opt_src:ip_options <- [DW_OP_plus_uconst 60] [$sp+0]
	@DEBUG_VALUE: i <- 0
	@DEBUG_VALUE: ip4_output_if_opt_src:chk_sum <- 0
	.loc	3 0 7 is_stmt 0                 @ rt-thread/components/net/lwip-2.0.2/src/core/ipv4/ip4.c:0:7
	movw	r0, #32766
	ldr	r1, [r4, #4]
	.loc	3 848 7                         @ rt-thread/components/net/lwip-2.0.2/src/core/ipv4/ip4.c:848:7
	and.w	r0, r0, r6, lsr #1
	subs	r1, #2
	movs	r7, #0
.Ltmp155:
	cmp	r0, #0
	it	eq
	moveq	r0, #1
.Ltmp156:
	.p2align	2
.LBB5_15:                               @ =>This Inner Loop Header: Depth=1
	@DEBUG_VALUE: optlen_aligned <- $r10
	@DEBUG_VALUE: ip4_output_if_opt_src:ttl <- $r9
	@DEBUG_VALUE: ip4_output_if_opt_src:src <- $r8
	@DEBUG_VALUE: ip4_output_if_opt_src:dest <- $r5
	@DEBUG_VALUE: ip4_output_if_opt_src:p <- $r4
	@DEBUG_VALUE: ip4_output_if_opt_src:netif <- [DW_OP_plus_uconst 56] [$sp+0]
	@DEBUG_VALUE: ip4_output_if_opt_src:ip_options <- [DW_OP_plus_uconst 60] [$sp+0]
	@DEBUG_VALUE: ip4_output_if_opt_src:chk_sum <- $r7
	@DEBUG_VALUE: i <- undef
	.loc	3 849 20 is_stmt 1              @ rt-thread/components/net/lwip-2.0.2/src/core/ipv4/ip4.c:849:20
	ldrh	r2, [r1, #2]!
.Ltmp157:
	.loc	3 848 21                        @ rt-thread/components/net/lwip-2.0.2/src/core/ipv4/ip4.c:848:21
	subs	r0, #1
.Ltmp158:
	.loc	3 849 17                        @ rt-thread/components/net/lwip-2.0.2/src/core/ipv4/ip4.c:849:17
	add	r7, r2
.Ltmp159:
	@DEBUG_VALUE: i <- [DW_OP_plus_uconst 1, DW_OP_stack_value] undef
	@DEBUG_VALUE: ip4_output_if_opt_src:chk_sum <- $r7
	.loc	3 848 7                         @ rt-thread/components/net/lwip-2.0.2/src/core/ipv4/ip4.c:848:7
	bne	.LBB5_15
.Ltmp160:
@ %bb.16:
	@DEBUG_VALUE: optlen_aligned <- $r10
	@DEBUG_VALUE: ip4_output_if_opt_src:ttl <- $r9
	@DEBUG_VALUE: ip4_output_if_opt_src:src <- $r8
	@DEBUG_VALUE: ip4_output_if_opt_src:chk_sum <- $r7
	@DEBUG_VALUE: ip4_output_if_opt_src:dest <- $r5
	@DEBUG_VALUE: ip4_output_if_opt_src:p <- $r4
	@DEBUG_VALUE: ip4_output_if_opt_src:netif <- [DW_OP_plus_uconst 56] [$sp+0]
	@DEBUG_VALUE: ip4_output_if_opt_src:ip_options <- [DW_OP_plus_uconst 60] [$sp+0]
	@DEBUG_VALUE: ip4_output_if_opt_src:chk_sum <- $r7
	@DEBUG_VALUE: ip_hlen <- [DW_OP_LLVM_convert 32 7, DW_OP_LLVM_convert 16 7, DW_OP_stack_value] undef
	.loc	3 0 7 is_stmt 0                 @ rt-thread/components/net/lwip-2.0.2/src/core/ipv4/ip4.c:0:7
	cmp.w	r11, #0
	beq	.LBB5_6
.Ltmp161:
.LBB5_17:
	@DEBUG_VALUE: optlen_aligned <- $r10
	@DEBUG_VALUE: ip4_output_if_opt_src:ttl <- $r9
	@DEBUG_VALUE: ip4_output_if_opt_src:src <- $r8
	@DEBUG_VALUE: ip4_output_if_opt_src:chk_sum <- $r7
	@DEBUG_VALUE: ip4_output_if_opt_src:dest <- $r5
	@DEBUG_VALUE: ip4_output_if_opt_src:p <- $r4
	@DEBUG_VALUE: ip4_output_if_opt_src:netif <- [DW_OP_plus_uconst 56] [$sp+0]
	@DEBUG_VALUE: ip4_output_if_opt_src:ip_options <- [DW_OP_plus_uconst 60] [$sp+0]
	movs	r0, #254
	b	.LBB5_22
.Ltmp162:
.LBB5_18:
	@DEBUG_VALUE: ip4_output_if_opt_src:ttl <- $r9
	@DEBUG_VALUE: ip4_output_if_opt_src:src <- $r8
	@DEBUG_VALUE: ip4_output_if_opt_src:chk_sum <- $r7
	@DEBUG_VALUE: ip4_output_if_opt_src:dest <- $r5
	@DEBUG_VALUE: ip4_output_if_opt_src:p <- $r4
	@DEBUG_VALUE: ip4_output_if_opt_src:netif <- [DW_OP_plus_uconst 56] [$sp+0]
	@DEBUG_VALUE: ip4_output_if_opt_src:ip_options <- [DW_OP_plus_uconst 60] [$sp+0]
	.loc	3 864 5 is_stmt 1               @ rt-thread/components/net/lwip-2.0.2/src/core/ipv4/ip4.c:864:5
	ldrh	r0, [r4, #10]
	str.w	r8, [sp, #4]                    @ 4-byte Spill
.Ltmp163:
	@DEBUG_VALUE: ip4_output_if_opt_src:src <- [DW_OP_plus_uconst 4] [$sp+0]
	.loc	3 0 5 is_stmt 0                 @ rt-thread/components/net/lwip-2.0.2/src/core/ipv4/ip4.c:0:5
	ldr.w	r8, [sp, #52]
.Ltmp164:
	@DEBUG_VALUE: ip4_output_if_opt_src:proto <- $r8
	.loc	3 863 33 is_stmt 1              @ rt-thread/components/net/lwip-2.0.2/src/core/ipv4/ip4.c:863:33
	ldr	r6, [r4, #4]
.Ltmp165:
	@DEBUG_VALUE: ip4_output_if_opt_src:iphdr <- $r6
	.loc	3 864 5                         @ rt-thread/components/net/lwip-2.0.2/src/core/ipv4/ip4.c:864:5
	cmp	r0, #19
.Ltmp166:
	@DEBUG_VALUE: ip4_output_if_opt_src:tos <- undef
	@DEBUG_VALUE: ip4_output_if_opt_src:ttl <- $r9
	bhi	.LBB5_20
.Ltmp167:
@ %bb.19:
	@DEBUG_VALUE: ip4_output_if_opt_src:src <- [DW_OP_plus_uconst 4] [$sp+0]
	@DEBUG_VALUE: ip4_output_if_opt_src:ttl <- $r9
	@DEBUG_VALUE: ip4_output_if_opt_src:proto <- $r8
	@DEBUG_VALUE: ip4_output_if_opt_src:chk_sum <- $r7
	@DEBUG_VALUE: ip4_output_if_opt_src:iphdr <- $r6
	@DEBUG_VALUE: ip4_output_if_opt_src:dest <- $r5
	@DEBUG_VALUE: ip4_output_if_opt_src:p <- $r4
	@DEBUG_VALUE: ip4_output_if_opt_src:netif <- [DW_OP_plus_uconst 56] [$sp+0]
	@DEBUG_VALUE: ip4_output_if_opt_src:ip_options <- [DW_OP_plus_uconst 60] [$sp+0]
	.loc	3 864 5 is_stmt 0               @ rt-thread/components/net/lwip-2.0.2/src/core/ipv4/ip4.c:864:5
	adr	r0, .LCPI5_0
	bl	rt_kprintf
	movw	r0, :lower16:.L.str.1
	movw	r1, #865
	movt	r0, :upper16:.L.str.1
	bl	sys_arch_assert
.Ltmp168:
.LBB5_20:
	@DEBUG_VALUE: ip4_output_if_opt_src:src <- [DW_OP_plus_uconst 4] [$sp+0]
	@DEBUG_VALUE: ip4_output_if_opt_src:ttl <- $r9
	@DEBUG_VALUE: ip4_output_if_opt_src:proto <- $r8
	@DEBUG_VALUE: ip4_output_if_opt_src:chk_sum <- $r7
	@DEBUG_VALUE: ip4_output_if_opt_src:iphdr <- $r6
	@DEBUG_VALUE: ip4_output_if_opt_src:dest <- $r5
	@DEBUG_VALUE: ip4_output_if_opt_src:p <- $r4
	@DEBUG_VALUE: ip4_output_if_opt_src:netif <- [DW_OP_plus_uconst 56] [$sp+0]
	@DEBUG_VALUE: ip4_output_if_opt_src:ip_options <- [DW_OP_plus_uconst 60] [$sp+0]
	.loc	3 0 5                           @ rt-thread/components/net/lwip-2.0.2/src/core/ipv4/ip4.c:0:5
	movs	r0, #64
.Ltmp169:
	@DEBUG_VALUE: ip4_output_if_opt_src:chk_sum <- undef
	.loc	3 868 5 is_stmt 1               @ rt-thread/components/net/lwip-2.0.2/src/core/ipv4/ip4.c:868:5
	strb.w	r8, [r6, #9]
	@DEBUG_VALUE: ip4_output_if_opt_src:chk_sum <- undef
	.loc	3 880 5                         @ rt-thread/components/net/lwip-2.0.2/src/core/ipv4/ip4.c:880:5
	orr.w	r8, r0, r10, lsr #2
.Ltmp170:
	.loc	3 885 5                         @ rt-thread/components/net/lwip-2.0.2/src/core/ipv4/ip4.c:885:5
	ldrh	r0, [r4, #8]
	.loc	3 867 5                         @ rt-thread/components/net/lwip-2.0.2/src/core/ipv4/ip4.c:867:5
	strb.w	r9, [r6, #8]
	.loc	3 874 5                         @ rt-thread/components/net/lwip-2.0.2/src/core/ipv4/ip4.c:874:5
	ldr.w	r11, [r5]
	str.w	r11, [r6, #16]
	ldr	r1, [sp, #48]
	.loc	3 880 5                         @ rt-thread/components/net/lwip-2.0.2/src/core/ipv4/ip4.c:880:5
	strb.w	r8, [r6]
	.loc	3 881 5                         @ rt-thread/components/net/lwip-2.0.2/src/core/ipv4/ip4.c:881:5
	strb	r1, [r6, #1]
	@DEBUG_VALUE: ip4_output_if_opt_src:chk_sum <- undef
	.loc	3 885 5                         @ rt-thread/components/net/lwip-2.0.2/src/core/ipv4/ip4.c:885:5
	bl	lwip_htons
	mov	r10, r0
	.loc	3 890 5                         @ rt-thread/components/net/lwip-2.0.2/src/core/ipv4/ip4.c:890:5
	movw	r0, :lower16:ip_id
	movt	r0, :upper16:ip_id
	.loc	3 885 5                         @ rt-thread/components/net/lwip-2.0.2/src/core/ipv4/ip4.c:885:5
	strh.w	r10, [r6, #2]
	movs	r1, #0
	@DEBUG_VALUE: ip4_output_if_opt_src:chk_sum <- undef
	.loc	3 889 5                         @ rt-thread/components/net/lwip-2.0.2/src/core/ipv4/ip4.c:889:5
	strh	r1, [r6, #6]
	.loc	3 890 5                         @ rt-thread/components/net/lwip-2.0.2/src/core/ipv4/ip4.c:890:5
	ldrh	r0, [r0]
	bl	lwip_htons
	.loc	3 870 16                        @ rt-thread/components/net/lwip-2.0.2/src/core/ipv4/ip4.c:870:16
	ldr	r2, [sp, #48]
	.loc	3 896 9                         @ rt-thread/components/net/lwip-2.0.2/src/core/ipv4/ip4.c:896:9
	movw	r1, :lower16:ip_addr_any
	movt	r1, :upper16:ip_addr_any
	ldr	r3, [sp, #4]                    @ 4-byte Reload
.Ltmp171:
	@DEBUG_VALUE: ip4_output_if_opt_src:src <- $r3
	.loc	3 870 16                        @ rt-thread/components/net/lwip-2.0.2/src/core/ipv4/ip4.c:870:16
	orr.w	r12, r9, r2, lsl #8
	.loc	3 870 13 is_stmt 0              @ rt-thread/components/net/lwip-2.0.2/src/core/ipv4/ip4.c:870:13
	ldr	r2, [sp, #52]
	.loc	3 896 9 is_stmt 1               @ rt-thread/components/net/lwip-2.0.2/src/core/ipv4/ip4.c:896:9
	cmp	r3, #0
	.loc	3 870 13                        @ rt-thread/components/net/lwip-2.0.2/src/core/ipv4/ip4.c:870:13
	add.w	r2, r12, r2, lsl #8
	.loc	3 876 13                        @ rt-thread/components/net/lwip-2.0.2/src/core/ipv4/ip4.c:876:13
	add	r2, r7
	movw	r7, :lower16:ip_id
	.loc	3 877 13                        @ rt-thread/components/net/lwip-2.0.2/src/core/ipv4/ip4.c:877:13
	uxtab	r2, r2, r8
	movt	r7, :upper16:ip_id
	.loc	3 896 9                         @ rt-thread/components/net/lwip-2.0.2/src/core/ipv4/ip4.c:896:9
	it	ne
	movne	r1, r3
	.loc	3 883 16                        @ rt-thread/components/net/lwip-2.0.2/src/core/ipv4/ip4.c:883:16
	uxtah	r2, r2, r11
	.loc	3 890 5                         @ rt-thread/components/net/lwip-2.0.2/src/core/ipv4/ip4.c:890:5
	strh	r0, [r6, #4]
	@DEBUG_VALUE: ip4_output_if_opt_src:chk_sum <- undef
	.loc	3 883 13                        @ rt-thread/components/net/lwip-2.0.2/src/core/ipv4/ip4.c:883:13
	add.w	r2, r2, r11, lsr #16
.Ltmp172:
	.loc	3 0 0 is_stmt 0                 @ rt-thread/components/net/lwip-2.0.2/src/core/ipv4/ip4.c:0:0
	ldr	r1, [r1]
.Ltmp173:
	.loc	3 887 13 is_stmt 1              @ rt-thread/components/net/lwip-2.0.2/src/core/ipv4/ip4.c:887:13
	add	r2, r10
.Ltmp174:
	.loc	3 0 0 is_stmt 0                 @ rt-thread/components/net/lwip-2.0.2/src/core/ipv4/ip4.c:0:0
	str	r1, [r6, #12]
.Ltmp175:
	@DEBUG_VALUE: ip4_output_if_opt_src:chk_sum <- undef
	.loc	3 892 13 is_stmt 1              @ rt-thread/components/net/lwip-2.0.2/src/core/ipv4/ip4.c:892:13
	add	r2, r0
	.loc	3 904 13                        @ rt-thread/components/net/lwip-2.0.2/src/core/ipv4/ip4.c:904:13
	uxtah	r2, r2, r1
	.loc	3 905 13                        @ rt-thread/components/net/lwip-2.0.2/src/core/ipv4/ip4.c:905:13
	add.w	r0, r2, r1, lsr #16
.Ltmp176:
	@DEBUG_VALUE: ip4_output_if_opt_src:chk_sum <- $r0
	.loc	3 894 5                         @ rt-thread/components/net/lwip-2.0.2/src/core/ipv4/ip4.c:894:5
	ldrh	r2, [r7]
	.loc	3 906 24                        @ rt-thread/components/net/lwip-2.0.2/src/core/ipv4/ip4.c:906:24
	lsrs	r3, r0, #16
.Ltmp177:
	@DEBUG_VALUE: ip4_output_if_opt_src:src <- [DW_OP_LLVM_entry_value 1] $r1
	.loc	3 906 31 is_stmt 0              @ rt-thread/components/net/lwip-2.0.2/src/core/ipv4/ip4.c:906:31
	uxtah	r0, r3, r0
.Ltmp178:
	@DEBUG_VALUE: ip4_output_if_opt_src:chk_sum <- $r0
	.loc	3 894 5 is_stmt 1               @ rt-thread/components/net/lwip-2.0.2/src/core/ipv4/ip4.c:894:5
	adds	r2, #1
	strh	r2, [r7]
	.loc	3 907 31                        @ rt-thread/components/net/lwip-2.0.2/src/core/ipv4/ip4.c:907:31
	add.w	r0, r0, r0, lsr #16
.Ltmp179:
	@DEBUG_VALUE: ip4_output_if_opt_src:chk_sum <- [DW_OP_constu 18446744073709551615, DW_OP_xor, DW_OP_stack_value] $r0
	.loc	3 910 24                        @ rt-thread/components/net/lwip-2.0.2/src/core/ipv4/ip4.c:910:24
	mvns	r0, r0
.Ltmp180:
	.loc	3 910 22 is_stmt 0              @ rt-thread/components/net/lwip-2.0.2/src/core/ipv4/ip4.c:910:22
	strh	r0, [r6, #10]
.Ltmp181:
.LBB5_21:
	@DEBUG_VALUE: ip4_output_if_opt_src:ttl <- $r9
	@DEBUG_VALUE: ip4_output_if_opt_src:p <- $r4
	@DEBUG_VALUE: ip4_output_if_opt_src:netif <- [DW_OP_plus_uconst 56] [$sp+0]
	@DEBUG_VALUE: ip4_output_if_opt_src:ip_options <- [DW_OP_plus_uconst 60] [$sp+0]
	.loc	3 0 22                          @ rt-thread/components/net/lwip-2.0.2/src/core/ipv4/ip4.c:0:22
	ldr	r0, [sp, #56]
.Ltmp182:
	@DEBUG_VALUE: ip4_output_if_opt_src:dest <- $r5
	.loc	3 961 10 is_stmt 1              @ rt-thread/components/net/lwip-2.0.2/src/core/ipv4/ip4.c:961:10
	mov	r1, r4
	mov	r2, r5
	.loc	3 961 17 is_stmt 0              @ rt-thread/components/net/lwip-2.0.2/src/core/ipv4/ip4.c:961:17
	ldr	r3, [r0, #20]
	.loc	3 961 10                        @ rt-thread/components/net/lwip-2.0.2/src/core/ipv4/ip4.c:961:10
	blx	r3
.Ltmp183:
.LBB5_22:
	@DEBUG_VALUE: ip4_output_if_opt_src:ttl <- $r9
	@DEBUG_VALUE: ip4_output_if_opt_src:dest <- $r5
	@DEBUG_VALUE: ip4_output_if_opt_src:p <- $r4
	@DEBUG_VALUE: ip4_output_if_opt_src:netif <- [DW_OP_plus_uconst 56] [$sp+0]
	@DEBUG_VALUE: ip4_output_if_opt_src:ip_options <- [DW_OP_plus_uconst 60] [$sp+0]
	.loc	3 962 1 is_stmt 1               @ rt-thread/components/net/lwip-2.0.2/src/core/ipv4/ip4.c:962:1
	sxtb	r0, r0
	add	sp, #12
	pop.w	{r4, r5, r6, r7, r8, r9, r10, r11, pc}
.Ltmp184:
	.p2align	2
@ %bb.23:
	.loc	3 0 1 is_stmt 0                 @ rt-thread/components/net/lwip-2.0.2/src/core/ipv4/ip4.c:0:1
.LCPI5_0:
.L.str.2:
	.asciz	"check that first pbuf can hold struct ip_hdr\000\000\000"
.Lfunc_end5:
	.size	ip4_output_if_opt_src, .Lfunc_end5-ip4_output_if_opt_src
	.cfi_endproc
	.cantunwind
	.fnend
                                        @ -- End function
	.section	.text.ip4_output_if_src,"ax",%progbits
	.hidden	ip4_output_if_src               @ -- Begin function ip4_output_if_src
	.globl	ip4_output_if_src
	.p2align	3
	.type	ip4_output_if_src,%function
	.code	16                              @ @ip4_output_if_src
	.thumb_func
ip4_output_if_src:
.Lfunc_begin6:
	.loc	3 798 0 is_stmt 1               @ rt-thread/components/net/lwip-2.0.2/src/core/ipv4/ip4.c:798:0
	.fnstart
	.cfi_startproc
@ %bb.0:
	@DEBUG_VALUE: ip4_output_if_src:p <- $r0
	@DEBUG_VALUE: ip4_output_if_src:src <- $r1
	@DEBUG_VALUE: ip4_output_if_src:dest <- $r2
	@DEBUG_VALUE: ip4_output_if_src:ttl <- $r3
	.save	{r4, lr}
	push	{r4, lr}
	.cfi_def_cfa_offset 8
	.cfi_offset lr, -4
	.cfi_offset r4, -8
	.pad	#24
	sub	sp, #24
	.cfi_def_cfa_offset 32
	ldrd	r12, lr, [sp, #32]
	ldr	r4, [sp, #40]
	@DEBUG_VALUE: ip4_output_if_src:proto <- undef
	@DEBUG_VALUE: ip4_output_if_src:tos <- undef
.Ltmp185:
	@DEBUG_VALUE: ip4_output_if_src:netif <- [DW_OP_plus_uconst 40] [$sp+0]
	@DEBUG_VALUE: ip4_output_if_src:ttl <- $r3
	@DEBUG_VALUE: ip4_output_if_src:dest <- $r2
	@DEBUG_VALUE: ip4_output_if_src:src <- $r1
	@DEBUG_VALUE: ip4_output_if_src:p <- $r0
	.loc	3 800 10 prologue_end           @ rt-thread/components/net/lwip-2.0.2/src/core/ipv4/ip4.c:800:10
	str	r4, [sp, #8]
	strd	r12, lr, [sp]
	movs	r4, #0
	strd	r4, r4, [sp, #12]
	@DEBUG_VALUE: ip4_output_if_src:ttl <- $r3
	@DEBUG_VALUE: ip4_output_if_src:dest <- $r2
	@DEBUG_VALUE: ip4_output_if_src:src <- $r1
	@DEBUG_VALUE: ip4_output_if_src:p <- $r0
	bl	ip4_output_if_opt_src
.Ltmp186:
	@DEBUG_VALUE: ip4_output_if_src:ttl <- [DW_OP_LLVM_entry_value 1] $r3
	@DEBUG_VALUE: ip4_output_if_src:dest <- [DW_OP_LLVM_entry_value 1] $r2
	@DEBUG_VALUE: ip4_output_if_src:src <- [DW_OP_LLVM_entry_value 1] $r1
	@DEBUG_VALUE: ip4_output_if_src:p <- [DW_OP_LLVM_entry_value 1] $r0
	.loc	3 800 3 is_stmt 0               @ rt-thread/components/net/lwip-2.0.2/src/core/ipv4/ip4.c:800:3
	add	sp, #24
	pop	{r4, pc}
.Ltmp187:
.Lfunc_end6:
	.size	ip4_output_if_src, .Lfunc_end6-ip4_output_if_src
	.cfi_endproc
	.cantunwind
	.fnend
                                        @ -- End function
	.section	.text.ip4_output,"ax",%progbits
	.hidden	ip4_output                      @ -- Begin function ip4_output
	.globl	ip4_output
	.p2align	3
	.type	ip4_output,%function
	.code	16                              @ @ip4_output
	.thumb_func
ip4_output:
.Lfunc_begin7:
	.loc	3 984 0 is_stmt 1               @ rt-thread/components/net/lwip-2.0.2/src/core/ipv4/ip4.c:984:0
	.fnstart
	.cfi_startproc
@ %bb.0:
	@DEBUG_VALUE: ip4_output:p <- $r0
	@DEBUG_VALUE: ip4_output:src <- $r1
	@DEBUG_VALUE: ip4_output:dest <- $r2
	@DEBUG_VALUE: ip4_output:ttl <- $r3
	.save	{r4, r5, r6, r7, lr}
	push	{r4, r5, r6, r7, lr}
	.cfi_def_cfa_offset 20
	.cfi_offset lr, -4
	.cfi_offset r7, -8
	.cfi_offset r6, -12
	.cfi_offset r5, -16
	.cfi_offset r4, -20
	.pad	#12
	sub	sp, #12
	.cfi_def_cfa_offset 32
	mov	r5, r0
	@DEBUG_VALUE: ip4_output:tos <- undef
	@DEBUG_VALUE: ip4_output:proto <- undef
.Ltmp188:
	@DEBUG_VALUE: ip4_output:ttl <- undef
	@DEBUG_VALUE: ip4_output:p <- $r5
	.loc	3 987 3 prologue_end            @ rt-thread/components/net/lwip-2.0.2/src/core/ipv4/ip4.c:987:3
	ldrh	r0, [r0, #14]
	mov	r4, r3
.Ltmp189:
	@DEBUG_VALUE: ip4_output:ttl <- $r4
	.loc	3 0 3 is_stmt 0                 @ rt-thread/components/net/lwip-2.0.2/src/core/ipv4/ip4.c:0:3
	mov	r6, r2
.Ltmp190:
	@DEBUG_VALUE: ip4_output:dest <- $r6
	@DEBUG_VALUE: ip4_output:dest <- $r6
	.loc	3 987 3                         @ rt-thread/components/net/lwip-2.0.2/src/core/ipv4/ip4.c:987:3
	cmp	r0, #1
	mov	r7, r1
.Ltmp191:
	@DEBUG_VALUE: ip4_output:src <- $r7
	@DEBUG_VALUE: ip4_output:src <- $r7
	beq	.LBB7_2
.Ltmp192:
@ %bb.1:
	@DEBUG_VALUE: ip4_output:src <- $r7
	@DEBUG_VALUE: ip4_output:dest <- $r6
	@DEBUG_VALUE: ip4_output:p <- $r5
	@DEBUG_VALUE: ip4_output:ttl <- $r4
	.loc	3 987 3                         @ rt-thread/components/net/lwip-2.0.2/src/core/ipv4/ip4.c:987:3
	movw	r0, :lower16:.L.str
	movt	r0, :upper16:.L.str
	bl	rt_kprintf
	movw	r0, :lower16:.L.str.1
	movw	r1, #987
	movt	r0, :upper16:.L.str.1
	bl	sys_arch_assert
.Ltmp193:
.LBB7_2:
	@DEBUG_VALUE: ip4_output:src <- $r7
	@DEBUG_VALUE: ip4_output:dest <- $r6
	@DEBUG_VALUE: ip4_output:p <- $r5
	@DEBUG_VALUE: ip4_output:ttl <- $r4
	@DEBUG_VALUE: ip4_output:ttl <- $r4
	@DEBUG_VALUE: ip4_output:proto <- undef
	@DEBUG_VALUE: ip4_output:tos <- undef
	.loc	3 989 16 is_stmt 1              @ rt-thread/components/net/lwip-2.0.2/src/core/ipv4/ip4.c:989:16
	mov	r0, r6
	bl	ip4_route
.Ltmp194:
	@DEBUG_VALUE: ip4_output:netif <- $r0
	.loc	3 989 7 is_stmt 0               @ rt-thread/components/net/lwip-2.0.2/src/core/ipv4/ip4.c:989:7
	cbz	r0, .LBB7_4
.Ltmp195:
@ %bb.3:
	@DEBUG_VALUE: ip4_output:src <- $r7
	@DEBUG_VALUE: ip4_output:dest <- $r6
	@DEBUG_VALUE: ip4_output:p <- $r5
	@DEBUG_VALUE: ip4_output:ttl <- $r4
	@DEBUG_VALUE: ip4_output:netif <- $r0
	@DEBUG_VALUE: ip4_output:proto <- $r1
	.loc	3 0 7                           @ rt-thread/components/net/lwip-2.0.2/src/core/ipv4/ip4.c:0:7
	ldrd	r2, r1, [sp, #32]
.Ltmp196:
	@DEBUG_VALUE: ip4_output:tos <- $r2
	@DEBUG_VALUE: ip4_output:ttl <- $r4
	.loc	3 996 10 is_stmt 1              @ rt-thread/components/net/lwip-2.0.2/src/core/ipv4/ip4.c:996:10
	strd	r2, r1, [sp]
	str	r0, [sp, #8]
	mov	r0, r5
.Ltmp197:
	mov	r1, r7
	mov	r2, r6
.Ltmp198:
	mov	r3, r4
	bl	ip4_output_if
	b	.LBB7_5
.Ltmp199:
.LBB7_4:
	@DEBUG_VALUE: ip4_output:src <- $r7
	@DEBUG_VALUE: ip4_output:dest <- $r6
	@DEBUG_VALUE: ip4_output:p <- $r5
	@DEBUG_VALUE: ip4_output:ttl <- $r4
	@DEBUG_VALUE: ip4_output:netif <- $r0
	.loc	3 0 10 is_stmt 0                @ rt-thread/components/net/lwip-2.0.2/src/core/ipv4/ip4.c:0:10
	movs	r0, #252
.Ltmp200:
.LBB7_5:
	@DEBUG_VALUE: ip4_output:src <- $r7
	@DEBUG_VALUE: ip4_output:dest <- $r6
	@DEBUG_VALUE: ip4_output:p <- $r5
	@DEBUG_VALUE: ip4_output:ttl <- $r4
	.loc	3 997 1 is_stmt 1               @ rt-thread/components/net/lwip-2.0.2/src/core/ipv4/ip4.c:997:1
	sxtb	r0, r0
	add	sp, #12
	pop	{r4, r5, r6, r7, pc}
.Ltmp201:
.Lfunc_end7:
	.size	ip4_output, .Lfunc_end7-ip4_output
	.cfi_endproc
	.cantunwind
	.fnend
                                        @ -- End function
	.type	ip4_default_multicast_netif,%object @ @ip4_default_multicast_netif
	.section	.bss.ip4_default_multicast_netif,"aw",%nobits
	.p2align	2
ip4_default_multicast_netif:
	.long	0
	.size	ip4_default_multicast_netif, 4

	.type	.L.str,%object                  @ @.str
	.section	.rodata.str1.1,"aMS",%progbits,1
.L.str:
	.asciz	"p->ref == 1"
	.size	.L.str, 12

	.type	.L.str.1,%object                @ @.str.1
.L.str.1:
	.asciz	"rt-thread/components/net/lwip-2.0.2/src/core/ipv4/ip4.c"
	.size	.L.str.1, 56

	.type	ip_id,%object                   @ @ip_id
	.section	.bss.ip_id,"aw",%nobits
	.p2align	1
ip_id:
	.short	0                               @ 0x0
	.size	ip_id, 2

	.section	".note.GNU-stack","",%progbits
	.eabi_attribute	30, 1	@ Tag_ABI_optimization_goals
	.ARM_attribute	16, 1	@ Tag_AV_eba