	.text
	.syntax unified
	.eabi_attribute	67, "2.09"	@ Tag_conformance
	.cpu	cortex-m7
	.eabi_attribute	6, 13	@ Tag_CPU_arch
	.eabi_attribute	7, 77	@ Tag_CPU_arch_profile
	.eabi_attribute	8, 0	@ Tag_ARM_ISA_use
	.eabi_attribute	9, 2	@ Tag_THUMB_ISA_use
	.fpu	fpv5-d16
	.eabi_attribute	36, 1	@ Tag_FP_HP_extension
	.eabi_attribute	34, 1	@ Tag_CPU_unaligned_access
	.eabi_attribute	17, 1	@ Tag_ABI_PCS_GOT_use
	.eabi_attribute	20, 2	@ Tag_ABI_FP_denormal
	.eabi_attribute	21, 0	@ Tag_ABI_FP_exceptions
	.eabi_attribute	23, 1	@ Tag_ABI_FP_number_model
	.eabi_attribute	24, 1	@ Tag_ABI_align_needed
	.eabi_attribute	25, 1	@ Tag_ABI_align_preserved
	.eabi_attribute	28, 1	@ Tag_ABI_VFP_args
	.eabi_attribute	38, 1	@ Tag_ABI_FP_16bit_format
	.eabi_attribute	18, 2	@ Tag_ABI_PCS_wchar_t
	.eabi_attribute	26, 1	@ Tag_ABI_enum_size
	.eabi_attribute	14, 0	@ Tag_ABI_PCS_R9_use
	.file	"ip4_addr.c"
	.file	1 "D:\\Keil_v5\\ARM\\ARMCLANG\\Bin\\..\\include" "stdint.h"
	.file	2 "E:\\Smart-access-control\\Hardware\\CODE" "./rt-thread/components/net/lwip-2.0.2/src/include\\lwip/arch.h"
	.file	3 "E:\\Smart-access-control\\Hardware\\CODE" "./rt-thread/components/net/lwip-2.0.2/src/include\\lwip/ip4_addr.h"
	.file	4 "E:\\Smart-access-control\\Hardware\\CODE" "./rt-thread/components/net/lwip-2.0.2/src/include\\lwip/ip_addr.h"
	.file	5 "E:\\Smart-access-control\\Hardware\\CODE" "rt-thread/components/net/lwip-2.0.2/src/core/ipv4/ip4_addr.c"
	.file	6 "E:\\Smart-access-control\\Hardware\\CODE" "./rt-thread/components/net/lwip-2.0.2/src/include\\lwip/netif.h"
	.section	.text.ip4_addr_isbroadcast_u32,"ax",%progbits
	.hidden	ip4_addr_isbroadcast_u32        @ -- Begin function ip4_addr_isbroadcast_u32
	.globl	ip4_addr_isbroadcast_u32
	.p2align	3
	.type	ip4_addr_isbroadcast_u32,%function
	.code	16                              @ @ip4_addr_isbroadcast_u32
	.thumb_func
ip4_addr_isbroadcast_u32:
.Lfunc_begin0:
	.loc	5 59 0                          @ rt-thread/components/net/lwip-2.0.2/src/core/ipv4/ip4_addr.c:59:0
	.fnstart
	.cfi_sections .debug_frame
	.cfi_startproc
@ %bb.0:
	.pad	#16
	sub	sp, #16
	.cfi_def_cfa_offset 16
	str	r0, [sp, #8]
	str	r1, [sp, #4]
.Ltmp0:
	.loc	5 61 3 prologue_end             @ rt-thread/components/net/lwip-2.0.2/src/core/ipv4/ip4_addr.c:61:3
	ldr	r0, [sp, #8]
	str	r0, [sp]
.Ltmp1:
	.loc	5 64 9                          @ rt-thread/components/net/lwip-2.0.2/src/core/ipv4/ip4_addr.c:64:9
	ldr	r0, [sp, #8]
	.loc	5 64 29 is_stmt 0               @ rt-thread/components/net/lwip-2.0.2/src/core/ipv4/ip4_addr.c:64:29
	adds	r0, #1
	cbz	r0, .LBB0_2
	b	.LBB0_1
.LBB0_1:
	.loc	5 65 8 is_stmt 1                @ rt-thread/components/net/lwip-2.0.2/src/core/ipv4/ip4_addr.c:65:8
	ldr	r0, [sp, #8]
.Ltmp2:
	.loc	5 64 7                          @ rt-thread/components/net/lwip-2.0.2/src/core/ipv4/ip4_addr.c:64:7
	cbnz	r0, .LBB0_3
	b	.LBB0_2
.LBB0_2:
	.loc	5 0 7 is_stmt 0                 @ rt-thread/components/net/lwip-2.0.2/src/core/ipv4/ip4_addr.c:0:7
	movs	r0, #1
.Ltmp3:
	.loc	5 66 5 is_stmt 1                @ rt-thread/components/net/lwip-2.0.2/src/core/ipv4/ip4_addr.c:66:5
	strb.w	r0, [sp, #15]
	b	.LBB0_11
.Ltmp4:
.LBB0_3:
	.loc	5 68 15                         @ rt-thread/components/net/lwip-2.0.2/src/core/ipv4/ip4_addr.c:68:15
	ldr	r0, [sp, #4]
	ldrb.w	r0, [r0, #65]
.Ltmp5:
	.loc	5 68 14 is_stmt 0               @ rt-thread/components/net/lwip-2.0.2/src/core/ipv4/ip4_addr.c:68:14
	lsls	r0, r0, #30
	cmp	r0, #0
	bmi	.LBB0_5
	b	.LBB0_4
.LBB0_4:
	.loc	5 0 14                          @ rt-thread/components/net/lwip-2.0.2/src/core/ipv4/ip4_addr.c:0:14
	movs	r0, #0
.Ltmp6:
	.loc	5 71 5 is_stmt 1                @ rt-thread/components/net/lwip-2.0.2/src/core/ipv4/ip4_addr.c:71:5
	strb.w	r0, [sp, #15]
	b	.LBB0_11
.Ltmp7:
.LBB0_5:
	.loc	5 73 14                         @ rt-thread/components/net/lwip-2.0.2/src/core/ipv4/ip4_addr.c:73:14
	ldr	r0, [sp, #8]
	.loc	5 73 22 is_stmt 0               @ rt-thread/components/net/lwip-2.0.2/src/core/ipv4/ip4_addr.c:73:22
	ldr	r1, [sp, #4]
	ldr	r1, [r1, #4]
.Ltmp8:
	.loc	5 73 14                         @ rt-thread/components/net/lwip-2.0.2/src/core/ipv4/ip4_addr.c:73:14
	cmp	r0, r1
	bne	.LBB0_7
	b	.LBB0_6
.LBB0_6:
	.loc	5 0 14                          @ rt-thread/components/net/lwip-2.0.2/src/core/ipv4/ip4_addr.c:0:14
	movs	r0, #0
.Ltmp9:
	.loc	5 74 5 is_stmt 1                @ rt-thread/components/net/lwip-2.0.2/src/core/ipv4/ip4_addr.c:74:5
	strb.w	r0, [sp, #15]
	b	.LBB0_11
.Ltmp10:
.LBB0_7:
	.loc	5 76 14                         @ rt-thread/components/net/lwip-2.0.2/src/core/ipv4/ip4_addr.c:76:14
	ldr	r0, [sp]
	ldr	r2, [sp, #4]
	ldr	r1, [r2, #4]
	ldr	r2, [r2, #8]
	ands	r0, r2
	ands	r1, r2
	.loc	5 78 11                         @ rt-thread/components/net/lwip-2.0.2/src/core/ipv4/ip4_addr.c:78:11
	cmp	r0, r1
	bne	.LBB0_10
	b	.LBB0_8
.LBB0_8:
	.loc	5 78 16 is_stmt 0               @ rt-thread/components/net/lwip-2.0.2/src/core/ipv4/ip4_addr.c:78:16
	ldr	r0, [sp, #8]
	.loc	5 78 24                         @ rt-thread/components/net/lwip-2.0.2/src/core/ipv4/ip4_addr.c:78:24
	ldr	r1, [sp, #4]
	ldr	r2, [r1, #8]
	.loc	5 78 23                         @ rt-thread/components/net/lwip-2.0.2/src/core/ipv4/ip4_addr.c:78:23
	mvns	r1, r2
	.loc	5 78 21                         @ rt-thread/components/net/lwip-2.0.2/src/core/ipv4/ip4_addr.c:78:21
	bics	r0, r2
.Ltmp11:
	.loc	5 76 14 is_stmt 1               @ rt-thread/components/net/lwip-2.0.2/src/core/ipv4/ip4_addr.c:76:14
	cmp	r0, r1
	bne	.LBB0_10
	b	.LBB0_9
.LBB0_9:
	.loc	5 0 14 is_stmt 0                @ rt-thread/components/net/lwip-2.0.2/src/core/ipv4/ip4_addr.c:0:14
	movs	r0, #1
.Ltmp12:
	.loc	5 81 5 is_stmt 1                @ rt-thread/components/net/lwip-2.0.2/src/core/ipv4/ip4_addr.c:81:5
	strb.w	r0, [sp, #15]
	b	.LBB0_11
.Ltmp13:
.LBB0_10:
	.loc	5 0 5 is_stmt 0                 @ rt-thread/components/net/lwip-2.0.2/src/core/ipv4/ip4_addr.c:0:5
	movs	r0, #0
.Ltmp14:
	.loc	5 83 5 is_stmt 1                @ rt-thread/components/net/lwip-2.0.2/src/core/ipv4/ip4_addr.c:83:5
	strb.w	r0, [sp, #15]
	b	.LBB0_11
.Ltmp15:
.LBB0_11:
	.loc	5 85 1                          @ rt-thread/components/net/lwip-2.0.2/src/core/ipv4/ip4_addr.c:85:1
	ldrb.w	r0, [sp, #15]
	add	sp, #16
	bx	lr
.Ltmp16:
.Lfunc_end0:
	.size	ip4_addr_isbroadcast_u32, .Lfunc_end0-ip4_addr_isbroadcast_u32
	.cfi_endproc
	.cantunwind
	.fnend
                                        @ -- End function
	.section	.text.ip4_addr_netmask_valid,"ax",%progbits
	.hidden	ip4_addr_netmask_valid          @ -- Begin function ip4_addr_netmask_valid
	.globl	ip4_addr_netmask_valid
	.p2align	3
	.type	ip4_addr_netmask_valid,%function
	.code	16                              @ @ip4_addr_netmask_valid
	.thumb_func
ip4_addr_netmask_valid:
.Lfunc_begin1:
	.loc	5 94 0                          @ rt-thread/components/net/lwip-2.0.2/src/core/ipv4/ip4_addr.c:94:0
	.fnstart
	.cfi_startproc
@ %bb.0:
	.save	{r7, lr}
	push	{r7, lr}
	.cfi_def_cfa_offset 8
	.cfi_offset lr, -4
	.cfi_offset r7, -8
	.pad	#16
	sub	sp, #16
	.cfi_def_cfa_offset 24
	str	r0, [sp, #8]
.Ltmp17:
	.loc	5 96 35 prologue_end            @ rt-thread/components/net/lwip-2.0.2/src/core/ipv4/ip4_addr.c:96:35
	ldr	r0, [sp, #8]
	.loc	5 96 24 is_stmt 0               @ rt-thread/components/net/lwip-2.0.2/src/core/ipv4/ip4_addr.c:96:24
	bl	lwip_htonl
	.loc	5 96 9                          @ rt-thread/components/net/lwip-2.0.2/src/core/ipv4/ip4_addr.c:96:9
	str	r0, [sp]
	mov.w	r0, #-2147483648
.Ltmp18:
	.loc	5 99 13 is_stmt 1               @ rt-thread/components/net/lwip-2.0.2/src/core/ipv4/ip4_addr.c:99:13
	str	r0, [sp, #4]
	.loc	5 99 8 is_stmt 0                @ rt-thread/components/net/lwip-2.0.2/src/core/ipv4/ip4_addr.c:99:8
	b	.LBB1_1
.LBB1_1:                                @ =>This Inner Loop Header: Depth=1
.Ltmp19:
	.loc	5 99 27                         @ rt-thread/components/net/lwip-2.0.2/src/core/ipv4/ip4_addr.c:99:27
	ldr	r0, [sp, #4]
.Ltmp20:
	.loc	5 99 3                          @ rt-thread/components/net/lwip-2.0.2/src/core/ipv4/ip4_addr.c:99:3
	cbz	r0, .LBB1_6
	b	.LBB1_2
.LBB1_2:                                @   in Loop: Header=BB1_1 Depth=1
.Ltmp21:
	.loc	5 100 10 is_stmt 1              @ rt-thread/components/net/lwip-2.0.2/src/core/ipv4/ip4_addr.c:100:10
	ldr	r0, [sp]
	.loc	5 100 25 is_stmt 0              @ rt-thread/components/net/lwip-2.0.2/src/core/ipv4/ip4_addr.c:100:25
	ldr	r1, [sp, #4]
.Ltmp22:
	.loc	5 100 9                         @ rt-thread/components/net/lwip-2.0.2/src/core/ipv4/ip4_addr.c:100:9
	tst	r0, r1
	bne	.LBB1_4
	b	.LBB1_3
.LBB1_3:
.Ltmp23:
	.loc	5 101 7 is_stmt 1               @ rt-thread/components/net/lwip-2.0.2/src/core/ipv4/ip4_addr.c:101:7
	b	.LBB1_6
.Ltmp24:
.LBB1_4:                                @   in Loop: Header=BB1_1 Depth=1
	.loc	5 103 3                         @ rt-thread/components/net/lwip-2.0.2/src/core/ipv4/ip4_addr.c:103:3
	b	.LBB1_5
.Ltmp25:
.LBB1_5:                                @   in Loop: Header=BB1_1 Depth=1
	.loc	5 99 43                         @ rt-thread/components/net/lwip-2.0.2/src/core/ipv4/ip4_addr.c:99:43
	ldr	r0, [sp, #4]
	lsrs	r0, r0, #1
	str	r0, [sp, #4]
	.loc	5 99 3 is_stmt 0                @ rt-thread/components/net/lwip-2.0.2/src/core/ipv4/ip4_addr.c:99:3
	b	.LBB1_1
.Ltmp26:
.LBB1_6:
	.loc	5 105 3 is_stmt 1               @ rt-thread/components/net/lwip-2.0.2/src/core/ipv4/ip4_addr.c:105:3
	b	.LBB1_7
.LBB1_7:                                @ =>This Inner Loop Header: Depth=1
.Ltmp27:
	.loc	5 105 10 is_stmt 0              @ rt-thread/components/net/lwip-2.0.2/src/core/ipv4/ip4_addr.c:105:10
	ldr	r0, [sp, #4]
.Ltmp28:
	.loc	5 105 3                         @ rt-thread/components/net/lwip-2.0.2/src/core/ipv4/ip4_addr.c:105:3
	cbz	r0, .LBB1_12
	b	.LBB1_8
.LBB1_8:                                @   in Loop: Header=BB1_7 Depth=1
.Ltmp29:
	.loc	5 106 10 is_stmt 1              @ rt-thread/components/net/lwip-2.0.2/src/core/ipv4/ip4_addr.c:106:10
	ldr	r0, [sp]
	.loc	5 106 25 is_stmt 0              @ rt-thread/components/net/lwip-2.0.2/src/core/ipv4/ip4_addr.c:106:25
	ldr	r1, [sp, #4]
.Ltmp30:
	.loc	5 106 9                         @ rt-thread/components/net/lwip-2.0.2/src/core/ipv4/ip4_addr.c:106:9
	tst	r0, r1
	beq	.LBB1_10
	b	.LBB1_9
.LBB1_9:
	.loc	5 0 9                           @ rt-thread/components/net/lwip-2.0.2/src/core/ipv4/ip4_addr.c:0:9
	movs	r0, #0
.Ltmp31:
	.loc	5 108 7 is_stmt 1               @ rt-thread/components/net/lwip-2.0.2/src/core/ipv4/ip4_addr.c:108:7
	strb.w	r0, [sp, #15]
	b	.LBB1_13
.Ltmp32:
.LBB1_10:                               @   in Loop: Header=BB1_7 Depth=1
	.loc	5 110 3                         @ rt-thread/components/net/lwip-2.0.2/src/core/ipv4/ip4_addr.c:110:3
	b	.LBB1_11
.Ltmp33:
.LBB1_11:                               @   in Loop: Header=BB1_7 Depth=1
	.loc	5 105 26                        @ rt-thread/components/net/lwip-2.0.2/src/core/ipv4/ip4_addr.c:105:26
	ldr	r0, [sp, #4]
	lsrs	r0, r0, #1
	str	r0, [sp, #4]
	.loc	5 105 3 is_stmt 0               @ rt-thread/components/net/lwip-2.0.2/src/core/ipv4/ip4_addr.c:105:3
	b	.LBB1_7
.Ltmp34:
.LBB1_12:
	.loc	5 0 3                           @ rt-thread/components/net/lwip-2.0.2/src/core/ipv4/ip4_addr.c:0:3
	movs	r0, #1
	.loc	5 112 3 is_stmt 1               @ rt-thread/components/net/lwip-2.0.2/src/core/ipv4/ip4_addr.c:112:3
	strb.w	r0, [sp, #15]
	b	.LBB1_13
.LBB1_13:
	.loc	5 113 1                         @ rt-thread/components/net/lwip-2.0.2/src/core/ipv4/ip4_addr.c:113:1
	ldrb.w	r0, [sp, #15]
	add	sp, #16
	pop	{r7, pc}
.Ltmp35:
.Lfunc_end1:
	.size	ip4_addr_netmask_valid, .Lfunc_end1-ip4_addr_netmask_valid
	.cfi_endproc
	.cantunwind
	.fnend
                                        @ -- End function
	.section	.text.ipaddr_addr,"ax",%progbits
	.hidden	ipaddr_addr                     @ -- Begin function ipaddr_addr
	.globl	ipaddr_addr
	.p2align	3
	.type	ipaddr_addr,%function
	.code	16                              @ @ipaddr_addr
	.thumb_func
ipaddr_addr:
.Lfunc_begin2:
	.loc	5 134 0                         @ rt-thread/components/net/lwip-2.0.2/src/core/ipv4/ip4_addr.c:134:0
	.fnstart
	.cfi_startproc
@ %bb.0:
	.save	{r7, lr}
	push	{r7, lr}
	.cfi_def_cfa_offset 8
	.cfi_offset lr, -4
	.cfi_offset r7, -8
	.pad	#16
	sub	sp, #16
	.cfi_def_cfa_offset 24
	str	r0, [sp, #8]
.Ltmp36:
	.loc	5 137 20 prologue_end           @ rt-thread/components/net/lwip-2.0.2/src/core/ipv4/ip4_addr.c:137:20
	ldr	r0, [sp, #8]
	add	r1, sp, #4
	.loc	5 137 7 is_stmt 0               @ rt-thread/components/net/lwip-2.0.2/src/core/ipv4/ip4_addr.c:137:7
	bl	ip4addr_aton
.Ltmp37:
	.loc	5 137 7                         @ rt-thread/components/net/lwip-2.0.2/src/core/ipv4/ip4_addr.c:137:7
	cbz	r0, .LBB2_2
	b	.LBB2_1
.LBB2_1:
.Ltmp38:
	.loc	5 138 12 is_stmt 1              @ rt-thread/components/net/lwip-2.0.2/src/core/ipv4/ip4_addr.c:138:12
	ldr	r0, [sp, #4]
	.loc	5 138 5 is_stmt 0               @ rt-thread/components/net/lwip-2.0.2/src/core/ipv4/ip4_addr.c:138:5
	str	r0, [sp, #12]
	b	.LBB2_3
.Ltmp39:
.LBB2_2:
	.loc	5 0 5                           @ rt-thread/components/net/lwip-2.0.2/src/core/ipv4/ip4_addr.c:0:5
	mov.w	r0, #-1
	.loc	5 140 3 is_stmt 1               @ rt-thread/components/net/lwip-2.0.2/src/core/ipv4/ip4_addr.c:140:3
	str	r0, [sp, #12]
	b	.LBB2_3
.LBB2_3:
	.loc	5 141 1                         @ rt-thread/components/net/lwip-2.0.2/src/core/ipv4/ip4_addr.c:141:1
	ldr	r0, [sp, #12]
	add	sp, #16
	pop	{r7, pc}
.Ltmp40:
.Lfunc_end2:
	.size	ipaddr_addr, .Lfunc_end2-ipaddr_addr
	.cfi_endproc
	.cantunwind
	.fnend
                                        @ -- End function
	.section	.text.ip4addr_aton,"ax",%progbits
	.hidden	ip4addr_aton                    @ -- Begin function ip4addr_aton
	.globl	ip4addr_aton
	.p2align	3
	.type	ip4addr_aton,%function
	.code	16                              @ @ip4addr_aton
	.thumb_func
ip4addr_aton:
.Lfunc_begin3:
	.loc	5 156 0                         @ rt-thread/components/net/lwip-2.0.2/src/core/ipv4/ip4_addr.c:156:0
	.fnstart
	.cfi_startproc
@ %bb.0:
	.save	{r7, lr}
	push	{r7, lr}
	.cfi_def_cfa_offset 8
	.cfi_offset lr, -4
	.cfi_offset r7, -8
	.pad	#56
	sub	sp, #56
	.cfi_def_cfa_offset 64
	str	r0, [sp, #48]
	str	r1, [sp, #44]
	add	r0, sp, #20
.Ltmp41:
	.loc	5 161 10 prologue_end           @ rt-thread/components/net/lwip-2.0.2/src/core/ipv4/ip4_addr.c:161:10
	str	r0, [sp, #16]
	.loc	5 163 8                         @ rt-thread/components/net/lwip-2.0.2/src/core/ipv4/ip4_addr.c:163:8
	ldr	r0, [sp, #48]
	.loc	5 163 7 is_stmt 0               @ rt-thread/components/net/lwip-2.0.2/src/core/ipv4/ip4_addr.c:163:7
	ldrb	r0, [r0]
	.loc	5 163 5                         @ rt-thread/components/net/lwip-2.0.2/src/core/ipv4/ip4_addr.c:163:5
	strb.w	r0, [sp, #38]
	.loc	5 164 3 is_stmt 1               @ rt-thread/components/net/lwip-2.0.2/src/core/ipv4/ip4_addr.c:164:3
	b	.LBB3_1
.LBB3_1:                                @ =>This Loop Header: Depth=1
                                        @     Child Loop BB3_11 Depth 2
.Ltmp42:
	.loc	5 170 10                        @ rt-thread/components/net/lwip-2.0.2/src/core/ipv4/ip4_addr.c:170:10
	ldrb.w	r0, [sp, #38]
	cmp	r0, #48
	blt	.LBB3_3
	b	.LBB3_2
.LBB3_2:                                @   in Loop: Header=BB3_1 Depth=1
	ldrb.w	r0, [sp, #38]
.Ltmp43:
	.loc	5 170 9 is_stmt 0               @ rt-thread/components/net/lwip-2.0.2/src/core/ipv4/ip4_addr.c:170:9
	cmp	r0, #58
	blt	.LBB3_4
	b	.LBB3_3
.LBB3_3:
	.loc	5 0 9                           @ rt-thread/components/net/lwip-2.0.2/src/core/ipv4/ip4_addr.c:0:9
	movs	r0, #0
.Ltmp44:
	.loc	5 171 7 is_stmt 1               @ rt-thread/components/net/lwip-2.0.2/src/core/ipv4/ip4_addr.c:171:7
	str	r0, [sp, #52]
	b	.LBB3_72
.Ltmp45:
.LBB3_4:                                @   in Loop: Header=BB3_1 Depth=1
	.loc	5 0 7 is_stmt 0                 @ rt-thread/components/net/lwip-2.0.2/src/core/ipv4/ip4_addr.c:0:7
	movs	r0, #0
	.loc	5 173 9 is_stmt 1               @ rt-thread/components/net/lwip-2.0.2/src/core/ipv4/ip4_addr.c:173:9
	str	r0, [sp, #40]
	movs	r0, #10
	.loc	5 174 10                        @ rt-thread/components/net/lwip-2.0.2/src/core/ipv4/ip4_addr.c:174:10
	strb.w	r0, [sp, #39]
.Ltmp46:
	.loc	5 175 9                         @ rt-thread/components/net/lwip-2.0.2/src/core/ipv4/ip4_addr.c:175:9
	ldrsb.w	r0, [sp, #38]
.Ltmp47:
	.loc	5 175 9 is_stmt 0               @ rt-thread/components/net/lwip-2.0.2/src/core/ipv4/ip4_addr.c:175:9
	cmp	r0, #48
	bne	.LBB3_10
	b	.LBB3_5
.LBB3_5:                                @   in Loop: Header=BB3_1 Depth=1
.Ltmp48:
	.loc	5 176 12 is_stmt 1              @ rt-thread/components/net/lwip-2.0.2/src/core/ipv4/ip4_addr.c:176:12
	ldr	r0, [sp, #48]
	adds	r1, r0, #1
	str	r1, [sp, #48]
	.loc	5 176 11 is_stmt 0              @ rt-thread/components/net/lwip-2.0.2/src/core/ipv4/ip4_addr.c:176:11
	ldrb	r0, [r0, #1]
	.loc	5 176 9                         @ rt-thread/components/net/lwip-2.0.2/src/core/ipv4/ip4_addr.c:176:9
	strb.w	r0, [sp, #38]
.Ltmp49:
	.loc	5 177 11 is_stmt 1              @ rt-thread/components/net/lwip-2.0.2/src/core/ipv4/ip4_addr.c:177:11
	ldrsb.w	r0, [sp, #38]
	.loc	5 177 20 is_stmt 0              @ rt-thread/components/net/lwip-2.0.2/src/core/ipv4/ip4_addr.c:177:20
	cmp	r0, #120
	beq	.LBB3_7
	b	.LBB3_6
.LBB3_6:                                @   in Loop: Header=BB3_1 Depth=1
	.loc	5 177 23                        @ rt-thread/components/net/lwip-2.0.2/src/core/ipv4/ip4_addr.c:177:23
	ldrsb.w	r0, [sp, #38]
.Ltmp50:
	.loc	5 177 11                        @ rt-thread/components/net/lwip-2.0.2/src/core/ipv4/ip4_addr.c:177:11
	cmp	r0, #88
	bne	.LBB3_8
	b	.LBB3_7
.LBB3_7:                                @   in Loop: Header=BB3_1 Depth=1
	.loc	5 0 11                          @ rt-thread/components/net/lwip-2.0.2/src/core/ipv4/ip4_addr.c:0:11
	movs	r0, #16
.Ltmp51:
	.loc	5 178 14 is_stmt 1              @ rt-thread/components/net/lwip-2.0.2/src/core/ipv4/ip4_addr.c:178:14
	strb.w	r0, [sp, #39]
	.loc	5 179 14                        @ rt-thread/components/net/lwip-2.0.2/src/core/ipv4/ip4_addr.c:179:14
	ldr	r0, [sp, #48]
	adds	r1, r0, #1
	str	r1, [sp, #48]
	.loc	5 179 13 is_stmt 0              @ rt-thread/components/net/lwip-2.0.2/src/core/ipv4/ip4_addr.c:179:13
	ldrb	r0, [r0, #1]
	.loc	5 179 11                        @ rt-thread/components/net/lwip-2.0.2/src/core/ipv4/ip4_addr.c:179:11
	strb.w	r0, [sp, #38]
	.loc	5 180 7 is_stmt 1               @ rt-thread/components/net/lwip-2.0.2/src/core/ipv4/ip4_addr.c:180:7
	b	.LBB3_9
.Ltmp52:
.LBB3_8:                                @   in Loop: Header=BB3_1 Depth=1
	.loc	5 0 7 is_stmt 0                 @ rt-thread/components/net/lwip-2.0.2/src/core/ipv4/ip4_addr.c:0:7
	movs	r0, #8
.Ltmp53:
	.loc	5 181 14 is_stmt 1              @ rt-thread/components/net/lwip-2.0.2/src/core/ipv4/ip4_addr.c:181:14
	strb.w	r0, [sp, #39]
	b	.LBB3_9
.Ltmp54:
.LBB3_9:                                @   in Loop: Header=BB3_1 Depth=1
	.loc	5 183 5                         @ rt-thread/components/net/lwip-2.0.2/src/core/ipv4/ip4_addr.c:183:5
	b	.LBB3_10
.Ltmp55:
.LBB3_10:                               @   in Loop: Header=BB3_1 Depth=1
	.loc	5 184 5                         @ rt-thread/components/net/lwip-2.0.2/src/core/ipv4/ip4_addr.c:184:5
	b	.LBB3_11
.LBB3_11:                               @   Parent Loop BB3_1 Depth=1
                                        @ =>  This Inner Loop Header: Depth=2
.Ltmp56:
	.loc	5 185 11                        @ rt-thread/components/net/lwip-2.0.2/src/core/ipv4/ip4_addr.c:185:11
	ldrb.w	r0, [sp, #38]
	cmp	r0, #48
	blt	.LBB3_14
	b	.LBB3_12
.LBB3_12:                               @   in Loop: Header=BB3_11 Depth=2
	ldrb.w	r0, [sp, #38]
.Ltmp57:
	.loc	5 185 11 is_stmt 0              @ rt-thread/components/net/lwip-2.0.2/src/core/ipv4/ip4_addr.c:185:11
	cmp	r0, #57
	bgt	.LBB3_14
	b	.LBB3_13
.LBB3_13:                               @   in Loop: Header=BB3_11 Depth=2
.Ltmp58:
	.loc	5 186 16 is_stmt 1              @ rt-thread/components/net/lwip-2.0.2/src/core/ipv4/ip4_addr.c:186:16
	ldr	r0, [sp, #40]
	.loc	5 186 22 is_stmt 0              @ rt-thread/components/net/lwip-2.0.2/src/core/ipv4/ip4_addr.c:186:22
	ldrb.w	r1, [sp, #39]
	.loc	5 186 38                        @ rt-thread/components/net/lwip-2.0.2/src/core/ipv4/ip4_addr.c:186:38
	ldrsb.w	r2, [sp, #38]
	.loc	5 186 28                        @ rt-thread/components/net/lwip-2.0.2/src/core/ipv4/ip4_addr.c:186:28
	mla	r0, r0, r1, r2
	subs	r0, #48
	.loc	5 186 13                        @ rt-thread/components/net/lwip-2.0.2/src/core/ipv4/ip4_addr.c:186:13
	str	r0, [sp, #40]
	.loc	5 187 14 is_stmt 1              @ rt-thread/components/net/lwip-2.0.2/src/core/ipv4/ip4_addr.c:187:14
	ldr	r0, [sp, #48]
	adds	r1, r0, #1
	str	r1, [sp, #48]
	.loc	5 187 13 is_stmt 0              @ rt-thread/components/net/lwip-2.0.2/src/core/ipv4/ip4_addr.c:187:13
	ldrb	r0, [r0, #1]
	.loc	5 187 11                        @ rt-thread/components/net/lwip-2.0.2/src/core/ipv4/ip4_addr.c:187:11
	strb.w	r0, [sp, #38]
	.loc	5 188 7 is_stmt 1               @ rt-thread/components/net/lwip-2.0.2/src/core/ipv4/ip4_addr.c:188:7
	b	.LBB3_26
.Ltmp59:
.LBB3_14:                               @   in Loop: Header=BB3_11 Depth=2
	.loc	5 188 18 is_stmt 0              @ rt-thread/components/net/lwip-2.0.2/src/core/ipv4/ip4_addr.c:188:18
	ldrb.w	r0, [sp, #39]
	.loc	5 188 29                        @ rt-thread/components/net/lwip-2.0.2/src/core/ipv4/ip4_addr.c:188:29
	cmp	r0, #16
	bne	.LBB3_24
	b	.LBB3_15
.LBB3_15:                               @   in Loop: Header=BB3_11 Depth=2
	.loc	5 188 32                        @ rt-thread/components/net/lwip-2.0.2/src/core/ipv4/ip4_addr.c:188:32
	ldrb.w	r0, [sp, #38]
	cmp	r0, #48
	blt	.LBB3_17
	b	.LBB3_16
.LBB3_16:                               @   in Loop: Header=BB3_11 Depth=2
	ldrb.w	r0, [sp, #38]
	cmp	r0, #58
	blt	.LBB3_21
	b	.LBB3_17
.LBB3_17:                               @   in Loop: Header=BB3_11 Depth=2
	ldrb.w	r0, [sp, #38]
	cmp	r0, #97
	blt	.LBB3_19
	b	.LBB3_18
.LBB3_18:                               @   in Loop: Header=BB3_11 Depth=2
	ldrb.w	r0, [sp, #38]
	cmp	r0, #103
	blt	.LBB3_21
	b	.LBB3_19
.LBB3_19:                               @   in Loop: Header=BB3_11 Depth=2
	ldrb.w	r0, [sp, #38]
	cmp	r0, #65
	blt	.LBB3_24
	b	.LBB3_20
.LBB3_20:                               @   in Loop: Header=BB3_11 Depth=2
	ldrb.w	r0, [sp, #38]
.Ltmp60:
	.loc	5 188 18                        @ rt-thread/components/net/lwip-2.0.2/src/core/ipv4/ip4_addr.c:188:18
	cmp	r0, #70
	bgt	.LBB3_24
	b	.LBB3_21
.LBB3_21:                               @   in Loop: Header=BB3_11 Depth=2
.Ltmp61:
	.loc	5 189 16 is_stmt 1              @ rt-thread/components/net/lwip-2.0.2/src/core/ipv4/ip4_addr.c:189:16
	ldr	r0, [sp, #40]
	.loc	5 189 20 is_stmt 0              @ rt-thread/components/net/lwip-2.0.2/src/core/ipv4/ip4_addr.c:189:20
	lsls	r0, r0, #4
	.loc	5 189 36                        @ rt-thread/components/net/lwip-2.0.2/src/core/ipv4/ip4_addr.c:189:36
	str	r0, [sp, #4]                    @ 4-byte Spill
	ldrb.w	r1, [sp, #38]
	sxtb	r0, r1
	.loc	5 189 38                        @ rt-thread/components/net/lwip-2.0.2/src/core/ipv4/ip4_addr.c:189:38
	adds	r0, #10
	str	r0, [sp, #8]                    @ 4-byte Spill
	movs	r0, #0
	.loc	5 189 46                        @ rt-thread/components/net/lwip-2.0.2/src/core/ipv4/ip4_addr.c:189:46
	cmp	r1, #97
	str	r0, [sp, #12]                   @ 4-byte Spill
	blt	.LBB3_23
	b	.LBB3_22
.LBB3_22:                               @   in Loop: Header=BB3_11 Depth=2
	ldrb.w	r1, [sp, #38]
	movs	r0, #0
	cmp	r1, #123
	it	lt
	movlt	r0, #1
	str	r0, [sp, #12]                   @ 4-byte Spill
	b	.LBB3_23
.LBB3_23:                               @   in Loop: Header=BB3_11 Depth=2
	.loc	5 0 0                           @ rt-thread/components/net/lwip-2.0.2/src/core/ipv4/ip4_addr.c:0:0
	ldr	r0, [sp, #4]                    @ 4-byte Reload
	ldr	r1, [sp, #8]                    @ 4-byte Reload
	ldr	r2, [sp, #12]                   @ 4-byte Reload
	.loc	5 189 46                        @ rt-thread/components/net/lwip-2.0.2/src/core/ipv4/ip4_addr.c:189:46
	lsls	r3, r2, #31
	movs	r2, #65
	cmp	r3, #0
	it	ne
	movne	r2, #97
	.loc	5 189 43                        @ rt-thread/components/net/lwip-2.0.2/src/core/ipv4/ip4_addr.c:189:43
	subs	r1, r1, r2
	.loc	5 189 26                        @ rt-thread/components/net/lwip-2.0.2/src/core/ipv4/ip4_addr.c:189:26
	orrs	r0, r1
	.loc	5 189 13                        @ rt-thread/components/net/lwip-2.0.2/src/core/ipv4/ip4_addr.c:189:13
	str	r0, [sp, #40]
	.loc	5 190 14 is_stmt 1              @ rt-thread/components/net/lwip-2.0.2/src/core/ipv4/ip4_addr.c:190:14
	ldr	r0, [sp, #48]
	adds	r1, r0, #1
	str	r1, [sp, #48]
	.loc	5 190 13 is_stmt 0              @ rt-thread/components/net/lwip-2.0.2/src/core/ipv4/ip4_addr.c:190:13
	ldrb	r0, [r0, #1]
	.loc	5 190 11                        @ rt-thread/components/net/lwip-2.0.2/src/core/ipv4/ip4_addr.c:190:11
	strb.w	r0, [sp, #38]
	.loc	5 191 7 is_stmt 1               @ rt-thread/components/net/lwip-2.0.2/src/core/ipv4/ip4_addr.c:191:7
	b	.LBB3_25
.Ltmp62:
.LBB3_24:                               @   in Loop: Header=BB3_1 Depth=1
	.loc	5 192 9                         @ rt-thread/components/net/lwip-2.0.2/src/core/ipv4/ip4_addr.c:192:9
	b	.LBB3_27
.Ltmp63:
.LBB3_25:                               @   in Loop: Header=BB3_11 Depth=2
	.loc	5 0 9 is_stmt 0                 @ rt-thread/components/net/lwip-2.0.2/src/core/ipv4/ip4_addr.c:0:9
	b	.LBB3_26
.LBB3_26:                               @   in Loop: Header=BB3_11 Depth=2
	.loc	5 184 5 is_stmt 1               @ rt-thread/components/net/lwip-2.0.2/src/core/ipv4/ip4_addr.c:184:5
	b	.LBB3_11
.Ltmp64:
.LBB3_27:                               @   in Loop: Header=BB3_1 Depth=1
	.loc	5 195 9                         @ rt-thread/components/net/lwip-2.0.2/src/core/ipv4/ip4_addr.c:195:9
	ldrsb.w	r0, [sp, #38]
.Ltmp65:
	.loc	5 195 9 is_stmt 0               @ rt-thread/components/net/lwip-2.0.2/src/core/ipv4/ip4_addr.c:195:9
	cmp	r0, #46
	bne	.LBB3_31
	b	.LBB3_28
.LBB3_28:                               @   in Loop: Header=BB3_1 Depth=1
.Ltmp66:
	.loc	5 202 11 is_stmt 1              @ rt-thread/components/net/lwip-2.0.2/src/core/ipv4/ip4_addr.c:202:11
	ldr	r0, [sp, #16]
	add	r1, sp, #20
	.loc	5 202 23 is_stmt 0              @ rt-thread/components/net/lwip-2.0.2/src/core/ipv4/ip4_addr.c:202:23
	adds	r1, #12
.Ltmp67:
	.loc	5 202 11                        @ rt-thread/components/net/lwip-2.0.2/src/core/ipv4/ip4_addr.c:202:11
	cmp	r0, r1
	blo	.LBB3_30
	b	.LBB3_29
.LBB3_29:
	.loc	5 0 11                          @ rt-thread/components/net/lwip-2.0.2/src/core/ipv4/ip4_addr.c:0:11
	movs	r0, #0
.Ltmp68:
	.loc	5 203 9 is_stmt 1               @ rt-thread/components/net/lwip-2.0.2/src/core/ipv4/ip4_addr.c:203:9
	str	r0, [sp, #52]
	b	.LBB3_72
.Ltmp69:
.LBB3_30:                               @   in Loop: Header=BB3_1 Depth=1
	.loc	5 205 15                        @ rt-thread/components/net/lwip-2.0.2/src/core/ipv4/ip4_addr.c:205:15
	ldr	r0, [sp, #40]
	.loc	5 205 10 is_stmt 0              @ rt-thread/components/net/lwip-2.0.2/src/core/ipv4/ip4_addr.c:205:10
	ldr	r1, [sp, #16]
	adds	r2, r1, #4
	str	r2, [sp, #16]
	.loc	5 205 13                        @ rt-thread/components/net/lwip-2.0.2/src/core/ipv4/ip4_addr.c:205:13
	str	r0, [r1]
	.loc	5 206 12 is_stmt 1              @ rt-thread/components/net/lwip-2.0.2/src/core/ipv4/ip4_addr.c:206:12
	ldr	r0, [sp, #48]
	adds	r1, r0, #1
	str	r1, [sp, #48]
	.loc	5 206 11 is_stmt 0              @ rt-thread/components/net/lwip-2.0.2/src/core/ipv4/ip4_addr.c:206:11
	ldrb	r0, [r0, #1]
	.loc	5 206 9                         @ rt-thread/components/net/lwip-2.0.2/src/core/ipv4/ip4_addr.c:206:9
	strb.w	r0, [sp, #38]
	.loc	5 207 5 is_stmt 1               @ rt-thread/components/net/lwip-2.0.2/src/core/ipv4/ip4_addr.c:207:5
	b	.LBB3_32
.Ltmp70:
.LBB3_31:
	.loc	5 208 7                         @ rt-thread/components/net/lwip-2.0.2/src/core/ipv4/ip4_addr.c:208:7
	b	.LBB3_33
.Ltmp71:
.LBB3_32:                               @   in Loop: Header=BB3_1 Depth=1
	.loc	5 164 3                         @ rt-thread/components/net/lwip-2.0.2/src/core/ipv4/ip4_addr.c:164:3
	b	.LBB3_1
.Ltmp72:
.LBB3_33:
	.loc	5 214 7                         @ rt-thread/components/net/lwip-2.0.2/src/core/ipv4/ip4_addr.c:214:7
	ldrsb.w	r0, [sp, #38]
	.loc	5 214 17 is_stmt 0              @ rt-thread/components/net/lwip-2.0.2/src/core/ipv4/ip4_addr.c:214:17
	cbz	r0, .LBB3_41
	b	.LBB3_34
.LBB3_34:
	.loc	5 214 21                        @ rt-thread/components/net/lwip-2.0.2/src/core/ipv4/ip4_addr.c:214:21
	ldrsb.w	r0, [sp, #38]
	cmp	r0, #32
	beq	.LBB3_41
	b	.LBB3_35
.LBB3_35:
	ldrsb.w	r0, [sp, #38]
	cmp	r0, #12
	beq	.LBB3_41
	b	.LBB3_36
.LBB3_36:
	ldrsb.w	r0, [sp, #38]
	cmp	r0, #10
	beq	.LBB3_41
	b	.LBB3_37
.LBB3_37:
	ldrsb.w	r0, [sp, #38]
	cmp	r0, #13
	beq	.LBB3_41
	b	.LBB3_38
.LBB3_38:
	ldrsb.w	r0, [sp, #38]
	cmp	r0, #9
	beq	.LBB3_41
	b	.LBB3_39
.LBB3_39:
	ldrsb.w	r0, [sp, #38]
.Ltmp73:
	.loc	5 214 7                         @ rt-thread/components/net/lwip-2.0.2/src/core/ipv4/ip4_addr.c:214:7
	cmp	r0, #11
	beq	.LBB3_41
	b	.LBB3_40
.LBB3_40:
	.loc	5 0 7                           @ rt-thread/components/net/lwip-2.0.2/src/core/ipv4/ip4_addr.c:0:7
	movs	r0, #0
.Ltmp74:
	.loc	5 215 5 is_stmt 1               @ rt-thread/components/net/lwip-2.0.2/src/core/ipv4/ip4_addr.c:215:5
	str	r0, [sp, #52]
	b	.LBB3_72
.Ltmp75:
.LBB3_41:
	.loc	5 221 11                        @ rt-thread/components/net/lwip-2.0.2/src/core/ipv4/ip4_addr.c:221:11
	ldr	r0, [sp, #16]
	add	r1, sp, #20
	.loc	5 221 14 is_stmt 0              @ rt-thread/components/net/lwip-2.0.2/src/core/ipv4/ip4_addr.c:221:14
	subs	r1, r0, r1
	movs	r0, #1
	.loc	5 221 22                        @ rt-thread/components/net/lwip-2.0.2/src/core/ipv4/ip4_addr.c:221:22
	add.w	r0, r0, r1, asr #2
	.loc	5 221 3                         @ rt-thread/components/net/lwip-2.0.2/src/core/ipv4/ip4_addr.c:221:3
	mov	r1, r0
	str	r1, [sp]                        @ 4-byte Spill
	cmp	r0, #4
	bhi	.LBB3_64
@ %bb.42:
	.loc	5 0 3                           @ rt-thread/components/net/lwip-2.0.2/src/core/ipv4/ip4_addr.c:0:3
	ldr	r1, [sp]                        @ 4-byte Reload
.LCPI3_0:
	tbb	[pc, r1]
@ %bb.43:
.LJTI3_0:
	.byte	(.LBB3_44-(.LCPI3_0+4))/2
	.byte	(.LBB3_45-(.LCPI3_0+4))/2
	.byte	(.LBB3_46-(.LCPI3_0+4))/2
	.byte	(.LBB3_51-(.LCPI3_0+4))/2
	.byte	(.LBB3_57-(.LCPI3_0+4))/2
	.p2align	1
.LBB3_44:
	movs	r0, #0
.Ltmp76:
	.loc	5 224 5 is_stmt 1               @ rt-thread/components/net/lwip-2.0.2/src/core/ipv4/ip4_addr.c:224:5
	str	r0, [sp, #52]
	b	.LBB3_72
.LBB3_45:
	.loc	5 227 5                         @ rt-thread/components/net/lwip-2.0.2/src/core/ipv4/ip4_addr.c:227:5
	b	.LBB3_69
.LBB3_46:
.Ltmp77:
	.loc	5 230 9                         @ rt-thread/components/net/lwip-2.0.2/src/core/ipv4/ip4_addr.c:230:9
	ldr	r0, [sp, #40]
.Ltmp78:
	.loc	5 230 9 is_stmt 0               @ rt-thread/components/net/lwip-2.0.2/src/core/ipv4/ip4_addr.c:230:9
	cmp.w	r0, #16777216
	blo	.LBB3_48
	b	.LBB3_47
.LBB3_47:
	.loc	5 0 9                           @ rt-thread/components/net/lwip-2.0.2/src/core/ipv4/ip4_addr.c:0:9
	movs	r0, #0
.Ltmp79:
	.loc	5 231 7 is_stmt 1               @ rt-thread/components/net/lwip-2.0.2/src/core/ipv4/ip4_addr.c:231:7
	str	r0, [sp, #52]
	b	.LBB3_72
.Ltmp80:
.LBB3_48:
	.loc	5 233 9                         @ rt-thread/components/net/lwip-2.0.2/src/core/ipv4/ip4_addr.c:233:9
	ldr	r0, [sp, #20]
.Ltmp81:
	.loc	5 233 9 is_stmt 0               @ rt-thread/components/net/lwip-2.0.2/src/core/ipv4/ip4_addr.c:233:9
	cmp.w	r0, #256
	blo	.LBB3_50
	b	.LBB3_49
.LBB3_49:
	.loc	5 0 9                           @ rt-thread/components/net/lwip-2.0.2/src/core/ipv4/ip4_addr.c:0:9
	movs	r0, #0
.Ltmp82:
	.loc	5 234 7 is_stmt 1               @ rt-thread/components/net/lwip-2.0.2/src/core/ipv4/ip4_addr.c:234:7
	str	r0, [sp, #52]
	b	.LBB3_72
.Ltmp83:
.LBB3_50:
	.loc	5 236 12                        @ rt-thread/components/net/lwip-2.0.2/src/core/ipv4/ip4_addr.c:236:12
	ldr	r1, [sp, #20]
	.loc	5 236 9 is_stmt 0               @ rt-thread/components/net/lwip-2.0.2/src/core/ipv4/ip4_addr.c:236:9
	ldr	r0, [sp, #40]
	orr.w	r0, r0, r1, lsl #24
	str	r0, [sp, #40]
	.loc	5 237 5 is_stmt 1               @ rt-thread/components/net/lwip-2.0.2/src/core/ipv4/ip4_addr.c:237:5
	b	.LBB3_69
.LBB3_51:
.Ltmp84:
	.loc	5 240 9                         @ rt-thread/components/net/lwip-2.0.2/src/core/ipv4/ip4_addr.c:240:9
	ldr	r0, [sp, #40]
.Ltmp85:
	.loc	5 240 9 is_stmt 0               @ rt-thread/components/net/lwip-2.0.2/src/core/ipv4/ip4_addr.c:240:9
	cmp.w	r0, #65536
	blo	.LBB3_53
	b	.LBB3_52
.LBB3_52:
	.loc	5 0 9                           @ rt-thread/components/net/lwip-2.0.2/src/core/ipv4/ip4_addr.c:0:9
	movs	r0, #0
.Ltmp86:
	.loc	5 241 7 is_stmt 1               @ rt-thread/components/net/lwip-2.0.2/src/core/ipv4/ip4_addr.c:241:7
	str	r0, [sp, #52]
	b	.LBB3_72
.Ltmp87:
.LBB3_53:
	.loc	5 243 10                        @ rt-thread/components/net/lwip-2.0.2/src/core/ipv4/ip4_addr.c:243:10
	ldr	r0, [sp, #20]
	.loc	5 243 27 is_stmt 0              @ rt-thread/components/net/lwip-2.0.2/src/core/ipv4/ip4_addr.c:243:27
	cmp	r0, #255
	bhi	.LBB3_55
	b	.LBB3_54
.LBB3_54:
	.loc	5 243 31                        @ rt-thread/components/net/lwip-2.0.2/src/core/ipv4/ip4_addr.c:243:31
	ldr	r0, [sp, #24]
.Ltmp88:
	.loc	5 243 9                         @ rt-thread/components/net/lwip-2.0.2/src/core/ipv4/ip4_addr.c:243:9
	cmp.w	r0, #256
	blo	.LBB3_56
	b	.LBB3_55
.LBB3_55:
	.loc	5 0 9                           @ rt-thread/components/net/lwip-2.0.2/src/core/ipv4/ip4_addr.c:0:9
	movs	r0, #0
.Ltmp89:
	.loc	5 244 7 is_stmt 1               @ rt-thread/components/net/lwip-2.0.2/src/core/ipv4/ip4_addr.c:244:7
	str	r0, [sp, #52]
	b	.LBB3_72
.Ltmp90:
.LBB3_56:
	.loc	5 246 13                        @ rt-thread/components/net/lwip-2.0.2/src/core/ipv4/ip4_addr.c:246:13
	ldr	r0, [sp, #20]
	.loc	5 246 32 is_stmt 0              @ rt-thread/components/net/lwip-2.0.2/src/core/ipv4/ip4_addr.c:246:32
	ldr	r1, [sp, #24]
	.loc	5 246 22                        @ rt-thread/components/net/lwip-2.0.2/src/core/ipv4/ip4_addr.c:246:22
	lsls	r0, r0, #24
	.loc	5 246 29                        @ rt-thread/components/net/lwip-2.0.2/src/core/ipv4/ip4_addr.c:246:29
	orr.w	r1, r0, r1, lsl #16
	.loc	5 246 9                         @ rt-thread/components/net/lwip-2.0.2/src/core/ipv4/ip4_addr.c:246:9
	ldr	r0, [sp, #40]
	orrs	r0, r1
	str	r0, [sp, #40]
	.loc	5 247 5 is_stmt 1               @ rt-thread/components/net/lwip-2.0.2/src/core/ipv4/ip4_addr.c:247:5
	b	.LBB3_69
.LBB3_57:
.Ltmp91:
	.loc	5 250 9                         @ rt-thread/components/net/lwip-2.0.2/src/core/ipv4/ip4_addr.c:250:9
	ldr	r0, [sp, #40]
.Ltmp92:
	.loc	5 250 9 is_stmt 0               @ rt-thread/components/net/lwip-2.0.2/src/core/ipv4/ip4_addr.c:250:9
	cmp.w	r0, #256
	blo	.LBB3_59
	b	.LBB3_58
.LBB3_58:
	.loc	5 0 9                           @ rt-thread/components/net/lwip-2.0.2/src/core/ipv4/ip4_addr.c:0:9
	movs	r0, #0
.Ltmp93:
	.loc	5 251 7 is_stmt 1               @ rt-thread/components/net/lwip-2.0.2/src/core/ipv4/ip4_addr.c:251:7
	str	r0, [sp, #52]
	b	.LBB3_72
.Ltmp94:
.LBB3_59:
	.loc	5 253 10                        @ rt-thread/components/net/lwip-2.0.2/src/core/ipv4/ip4_addr.c:253:10
	ldr	r0, [sp, #20]
	.loc	5 253 27 is_stmt 0              @ rt-thread/components/net/lwip-2.0.2/src/core/ipv4/ip4_addr.c:253:27
	cmp	r0, #255
	bhi	.LBB3_62
	b	.LBB3_60
.LBB3_60:
	.loc	5 253 31                        @ rt-thread/components/net/lwip-2.0.2/src/core/ipv4/ip4_addr.c:253:31
	ldr	r0, [sp, #24]
	.loc	5 253 48                        @ rt-thread/components/net/lwip-2.0.2/src/core/ipv4/ip4_addr.c:253:48
	cmp	r0, #255
	bhi	.LBB3_62
	b	.LBB3_61
.LBB3_61:
	.loc	5 253 52                        @ rt-thread/components/net/lwip-2.0.2/src/core/ipv4/ip4_addr.c:253:52
	ldr	r0, [sp, #28]
.Ltmp95:
	.loc	5 253 9                         @ rt-thread/components/net/lwip-2.0.2/src/core/ipv4/ip4_addr.c:253:9
	cmp.w	r0, #256
	blo	.LBB3_63
	b	.LBB3_62
.LBB3_62:
	.loc	5 0 9                           @ rt-thread/components/net/lwip-2.0.2/src/core/ipv4/ip4_addr.c:0:9
	movs	r0, #0
.Ltmp96:
	.loc	5 254 7 is_stmt 1               @ rt-thread/components/net/lwip-2.0.2/src/core/ipv4/ip4_addr.c:254:7
	str	r0, [sp, #52]
	b	.LBB3_72
.Ltmp97:
.LBB3_63:
	.loc	5 256 13                        @ rt-thread/components/net/lwip-2.0.2/src/core/ipv4/ip4_addr.c:256:13
	ldr	r0, [sp, #20]
	.loc	5 256 32 is_stmt 0              @ rt-thread/components/net/lwip-2.0.2/src/core/ipv4/ip4_addr.c:256:32
	ldr	r2, [sp, #24]
	.loc	5 256 51                        @ rt-thread/components/net/lwip-2.0.2/src/core/ipv4/ip4_addr.c:256:51
	ldr	r1, [sp, #28]
	.loc	5 256 22                        @ rt-thread/components/net/lwip-2.0.2/src/core/ipv4/ip4_addr.c:256:22
	lsls	r0, r0, #24
	.loc	5 256 29                        @ rt-thread/components/net/lwip-2.0.2/src/core/ipv4/ip4_addr.c:256:29
	orr.w	r0, r0, r2, lsl #16
	.loc	5 256 48                        @ rt-thread/components/net/lwip-2.0.2/src/core/ipv4/ip4_addr.c:256:48
	orr.w	r1, r0, r1, lsl #8
	.loc	5 256 9                         @ rt-thread/components/net/lwip-2.0.2/src/core/ipv4/ip4_addr.c:256:9
	ldr	r0, [sp, #40]
	orrs	r0, r1
	str	r0, [sp, #40]
	.loc	5 257 5 is_stmt 1               @ rt-thread/components/net/lwip-2.0.2/src/core/ipv4/ip4_addr.c:257:5
	b	.LBB3_69
.LBB3_64:
	.loc	5 259 5                         @ rt-thread/components/net/lwip-2.0.2/src/core/ipv4/ip4_addr.c:259:5
	b	.LBB3_65
.LBB3_65:
.Ltmp98:
	.loc	5 259 5 is_stmt 0               @ rt-thread/components/net/lwip-2.0.2/src/core/ipv4/ip4_addr.c:259:5
	b	.LBB3_66
.LBB3_66:
.Ltmp99:
	.loc	5 259 5                         @ rt-thread/components/net/lwip-2.0.2/src/core/ipv4/ip4_addr.c:259:5
	movw	r0, :lower16:.L.str
	movt	r0, :upper16:.L.str
	bl	rt_kprintf
	movw	r0, :lower16:.L.str.1
	movt	r0, :upper16:.L.str.1
	movw	r1, #259
	bl	sys_arch_assert
	b	.LBB3_67
.Ltmp100:
.LBB3_67:
	.loc	5 259 5                         @ rt-thread/components/net/lwip-2.0.2/src/core/ipv4/ip4_addr.c:259:5
	b	.LBB3_68
.Ltmp101:
.LBB3_68:
	.loc	5 260 5 is_stmt 1               @ rt-thread/components/net/lwip-2.0.2/src/core/ipv4/ip4_addr.c:260:5
	b	.LBB3_69
.Ltmp102:
.LBB3_69:
	.loc	5 262 7                         @ rt-thread/components/net/lwip-2.0.2/src/core/ipv4/ip4_addr.c:262:7
	ldr	r0, [sp, #44]
.Ltmp103:
	.loc	5 262 7 is_stmt 0               @ rt-thread/components/net/lwip-2.0.2/src/core/ipv4/ip4_addr.c:262:7
	cbz	r0, .LBB3_71
	b	.LBB3_70
.LBB3_70:
.Ltmp104:
	.loc	5 263 5 is_stmt 1               @ rt-thread/components/net/lwip-2.0.2/src/core/ipv4/ip4_addr.c:263:5
	ldr	r0, [sp, #40]
	bl	lwip_htonl
	ldr	r1, [sp, #44]
	str	r0, [r1]
	.loc	5 264 3                         @ rt-thread/components/net/lwip-2.0.2/src/core/ipv4/ip4_addr.c:264:3
	b	.LBB3_71
.Ltmp105:
.LBB3_71:
	.loc	5 0 3 is_stmt 0                 @ rt-thread/components/net/lwip-2.0.2/src/core/ipv4/ip4_addr.c:0:3
	movs	r0, #1
	.loc	5 265 3 is_stmt 1               @ rt-thread/components/net/lwip-2.0.2/src/core/ipv4/ip4_addr.c:265:3
	str	r0, [sp, #52]
	b	.LBB3_72
.LBB3_72:
	.loc	5 266 1                         @ rt-thread/components/net/lwip-2.0.2/src/core/ipv4/ip4_addr.c:266:1
	ldr	r0, [sp, #52]
	add	sp, #56
	pop	{r7, pc}
.Ltmp106:
.Lfunc_end3:
	.size	ip4addr_aton, .Lfunc_end3-ip4addr_aton
	.cfi_endproc
	.cantunwind
	.fnend
                                        @ -- End function
	.section	.text.ip4addr_ntoa,"ax",%progbits
	.hidden	ip4addr_ntoa                    @ -- Begin function ip4addr_ntoa
	.globl	ip4addr_ntoa
	.p2align	3
	.type	ip4addr_ntoa,%function
	.code	16                              @ @ip4addr_ntoa
	.thumb_func
ip4addr_ntoa:
.Lfunc_begin4:
	.loc	5 278 0                         @ rt-thread/components/net/lwip-2.0.2/src/core/ipv4/ip4_addr.c:278:0
	.fnstart
	.cfi_startproc
@ %bb.0:
	.save	{r7, lr}
	push	{r7, lr}
	.cfi_def_cfa_offset 8
	.cfi_offset lr, -4
	.cfi_offset r7, -8
	.pad	#8
	sub	sp, #8
	.cfi_def_cfa_offset 16
	str	r0, [sp, #4]
.Ltmp107:
	.loc	5 280 25 prologue_end           @ rt-thread/components/net/lwip-2.0.2/src/core/ipv4/ip4_addr.c:280:25
	ldr	r0, [sp, #4]
	.loc	5 280 10 is_stmt 0              @ rt-thread/components/net/lwip-2.0.2/src/core/ipv4/ip4_addr.c:280:10
	movw	r1, :lower16:ip4addr_ntoa.str
	movt	r1, :upper16:ip4addr_ntoa.str
	movs	r2, #16
	bl	ip4addr_ntoa_r
	.loc	5 280 3                         @ rt-thread/components/net/lwip-2.0.2/src/core/ipv4/ip4_addr.c:280:3
	add	sp, #8
	pop	{r7, pc}
.Ltmp108:
.Lfunc_end4:
	.size	ip4addr_ntoa, .Lfunc_end4-ip4addr_ntoa
	.cfi_endproc
	.cantunwind
	.fnend
                                        @ -- End function
	.section	.text.ip4addr_ntoa_r,"ax",%progbits
	.hidden	ip4addr_ntoa_r                  @ -- Begin function ip4addr_ntoa_r
	.globl	ip4addr_ntoa_r
	.p2align	3
	.type	ip4addr_ntoa_r,%function
	.code	16                              @ @ip4addr_ntoa_r
	.thumb_func
ip4addr_ntoa_r:
.Lfunc_begin5:
	.loc	5 294 0 is_stmt 1               @ rt-thread/components/net/lwip-2.0.2/src/core/ipv4/ip4_addr.c:294:0
	.fnstart
	.cfi_startproc
@ %bb.0:
	.pad	#40
	sub	sp, #40
	.cfi_def_cfa_offset 40
	str	r0, [sp, #32]
	str	r1, [sp, #28]
	str	r2, [sp, #24]
	movs	r0, #0
.Ltmp109:
	.loc	5 302 7 prologue_end            @ rt-thread/components/net/lwip-2.0.2/src/core/ipv4/ip4_addr.c:302:7
	str	r0, [sp]
	.loc	5 304 12                        @ rt-thread/components/net/lwip-2.0.2/src/core/ipv4/ip4_addr.c:304:12
	ldr	r1, [sp, #32]
	ldr	r1, [r1]
	.loc	5 304 10 is_stmt 0              @ rt-thread/components/net/lwip-2.0.2/src/core/ipv4/ip4_addr.c:304:10
	str	r1, [sp, #20]
	.loc	5 306 8 is_stmt 1               @ rt-thread/components/net/lwip-2.0.2/src/core/ipv4/ip4_addr.c:306:8
	ldr	r1, [sp, #28]
	.loc	5 306 6 is_stmt 0               @ rt-thread/components/net/lwip-2.0.2/src/core/ipv4/ip4_addr.c:306:6
	str	r1, [sp, #12]
	add	r1, sp, #20
	.loc	5 307 6 is_stmt 1               @ rt-thread/components/net/lwip-2.0.2/src/core/ipv4/ip4_addr.c:307:6
	str	r1, [sp, #8]
.Ltmp110:
	.loc	5 308 10                        @ rt-thread/components/net/lwip-2.0.2/src/core/ipv4/ip4_addr.c:308:10
	strb.w	r0, [sp, #6]
	.loc	5 308 8 is_stmt 0               @ rt-thread/components/net/lwip-2.0.2/src/core/ipv4/ip4_addr.c:308:8
	b	.LBB5_1
.LBB5_1:                                @ =>This Loop Header: Depth=1
                                        @     Child Loop BB5_3 Depth 2
                                        @     Child Loop BB5_6 Depth 2
.Ltmp111:
	.loc	5 308 15                        @ rt-thread/components/net/lwip-2.0.2/src/core/ipv4/ip4_addr.c:308:15
	ldrb.w	r0, [sp, #6]
.Ltmp112:
	.loc	5 308 3                         @ rt-thread/components/net/lwip-2.0.2/src/core/ipv4/ip4_addr.c:308:3
	cmp	r0, #3
	bgt	.LBB5_14
	b	.LBB5_2
.LBB5_2:                                @   in Loop: Header=BB5_1 Depth=1
	.loc	5 0 3                           @ rt-thread/components/net/lwip-2.0.2/src/core/ipv4/ip4_addr.c:0:3
	movs	r0, #0
.Ltmp113:
	.loc	5 309 7 is_stmt 1               @ rt-thread/components/net/lwip-2.0.2/src/core/ipv4/ip4_addr.c:309:7
	strb.w	r0, [sp, #5]
	.loc	5 310 5                         @ rt-thread/components/net/lwip-2.0.2/src/core/ipv4/ip4_addr.c:310:5
	b	.LBB5_3
.LBB5_3:                                @   Parent Loop BB5_1 Depth=1
                                        @ =>  This Inner Loop Header: Depth=2
.Ltmp114:
	.loc	5 311 14                        @ rt-thread/components/net/lwip-2.0.2/src/core/ipv4/ip4_addr.c:311:14
	ldr	r0, [sp, #8]
	.loc	5 311 13 is_stmt 0              @ rt-thread/components/net/lwip-2.0.2/src/core/ipv4/ip4_addr.c:311:13
	ldrb	r0, [r0]
	movw	r2, #52429
	movt	r2, #52428
	.loc	5 311 17                        @ rt-thread/components/net/lwip-2.0.2/src/core/ipv4/ip4_addr.c:311:17
	umull	r3, r1, r0, r2
	lsrs	r1, r1, #3
	add.w	r1, r1, r1, lsl #2
	sub.w	r0, r0, r1, lsl #1
	.loc	5 311 11                        @ rt-thread/components/net/lwip-2.0.2/src/core/ipv4/ip4_addr.c:311:11
	strb.w	r0, [sp, #7]
	.loc	5 312 8 is_stmt 1               @ rt-thread/components/net/lwip-2.0.2/src/core/ipv4/ip4_addr.c:312:8
	ldr	r1, [sp, #8]
	.loc	5 312 11 is_stmt 0              @ rt-thread/components/net/lwip-2.0.2/src/core/ipv4/ip4_addr.c:312:11
	ldrb	r0, [r1]
	umull	r2, r0, r0, r2
	lsrs	r0, r0, #3
	strb	r0, [r1]
	.loc	5 313 31 is_stmt 1              @ rt-thread/components/net/lwip-2.0.2/src/core/ipv4/ip4_addr.c:313:31
	ldrb.w	r0, [sp, #7]
	.loc	5 313 29 is_stmt 0              @ rt-thread/components/net/lwip-2.0.2/src/core/ipv4/ip4_addr.c:313:29
	adds	r0, #48
	.loc	5 313 12                        @ rt-thread/components/net/lwip-2.0.2/src/core/ipv4/ip4_addr.c:313:12
	ldrb.w	r2, [sp, #5]
	adds	r1, r2, #1
	strb.w	r1, [sp, #5]
	add.w	r1, sp, #17
	.loc	5 313 16                        @ rt-thread/components/net/lwip-2.0.2/src/core/ipv4/ip4_addr.c:313:16
	strb	r0, [r1, r2]
	.loc	5 314 5 is_stmt 1               @ rt-thread/components/net/lwip-2.0.2/src/core/ipv4/ip4_addr.c:314:5
	b	.LBB5_4
.Ltmp115:
.LBB5_4:                                @   in Loop: Header=BB5_3 Depth=2
	.loc	5 314 15 is_stmt 0              @ rt-thread/components/net/lwip-2.0.2/src/core/ipv4/ip4_addr.c:314:15
	ldr	r0, [sp, #8]
	.loc	5 314 14                        @ rt-thread/components/net/lwip-2.0.2/src/core/ipv4/ip4_addr.c:314:14
	ldrb	r0, [r0]
.Ltmp116:
	.loc	5 314 5                         @ rt-thread/components/net/lwip-2.0.2/src/core/ipv4/ip4_addr.c:314:5
	cmp	r0, #0
	bne	.LBB5_3
	b	.LBB5_5
.Ltmp117:
.LBB5_5:                                @   in Loop: Header=BB5_1 Depth=1
	.loc	5 315 5 is_stmt 1               @ rt-thread/components/net/lwip-2.0.2/src/core/ipv4/ip4_addr.c:315:5
	b	.LBB5_6
.LBB5_6:                                @   Parent Loop BB5_1 Depth=1
                                        @ =>  This Inner Loop Header: Depth=2
	.loc	5 315 13 is_stmt 0              @ rt-thread/components/net/lwip-2.0.2/src/core/ipv4/ip4_addr.c:315:13
	ldrb.w	r0, [sp, #5]
	subs	r1, r0, #1
	strb.w	r1, [sp, #5]
	.loc	5 315 5                         @ rt-thread/components/net/lwip-2.0.2/src/core/ipv4/ip4_addr.c:315:5
	cbz	r0, .LBB5_10
	b	.LBB5_7
.LBB5_7:                                @   in Loop: Header=BB5_6 Depth=2
.Ltmp118:
	.loc	5 316 14 is_stmt 1              @ rt-thread/components/net/lwip-2.0.2/src/core/ipv4/ip4_addr.c:316:14
	ldr	r0, [sp]
	adds	r1, r0, #1
	str	r1, [sp]
	.loc	5 316 20 is_stmt 0              @ rt-thread/components/net/lwip-2.0.2/src/core/ipv4/ip4_addr.c:316:20
	ldr	r1, [sp, #24]
.Ltmp119:
	.loc	5 316 11                        @ rt-thread/components/net/lwip-2.0.2/src/core/ipv4/ip4_addr.c:316:11
	cmp	r0, r1
	blt	.LBB5_9
	b	.LBB5_8
.LBB5_8:
	.loc	5 0 11                          @ rt-thread/components/net/lwip-2.0.2/src/core/ipv4/ip4_addr.c:0:11
	movs	r0, #0
.Ltmp120:
	.loc	5 317 9 is_stmt 1               @ rt-thread/components/net/lwip-2.0.2/src/core/ipv4/ip4_addr.c:317:9
	str	r0, [sp, #36]
	b	.LBB5_15
.Ltmp121:
.LBB5_9:                                @   in Loop: Header=BB5_6 Depth=2
	.loc	5 319 19                        @ rt-thread/components/net/lwip-2.0.2/src/core/ipv4/ip4_addr.c:319:19
	ldrb.w	r1, [sp, #5]
	add.w	r0, sp, #17
	.loc	5 319 15 is_stmt 0              @ rt-thread/components/net/lwip-2.0.2/src/core/ipv4/ip4_addr.c:319:15
	ldrb	r0, [r0, r1]
	.loc	5 319 10                        @ rt-thread/components/net/lwip-2.0.2/src/core/ipv4/ip4_addr.c:319:10
	ldr	r1, [sp, #12]
	adds	r2, r1, #1
	str	r2, [sp, #12]
	.loc	5 319 13                        @ rt-thread/components/net/lwip-2.0.2/src/core/ipv4/ip4_addr.c:319:13
	strb	r0, [r1]
.Ltmp122:
	.loc	5 315 5 is_stmt 1               @ rt-thread/components/net/lwip-2.0.2/src/core/ipv4/ip4_addr.c:315:5
	b	.LBB5_6
.LBB5_10:                               @   in Loop: Header=BB5_1 Depth=1
.Ltmp123:
	.loc	5 321 12                        @ rt-thread/components/net/lwip-2.0.2/src/core/ipv4/ip4_addr.c:321:12
	ldr	r0, [sp]
	adds	r1, r0, #1
	str	r1, [sp]
	.loc	5 321 18 is_stmt 0              @ rt-thread/components/net/lwip-2.0.2/src/core/ipv4/ip4_addr.c:321:18
	ldr	r1, [sp, #24]
.Ltmp124:
	.loc	5 321 9                         @ rt-thread/components/net/lwip-2.0.2/src/core/ipv4/ip4_addr.c:321:9
	cmp	r0, r1
	blt	.LBB5_12
	b	.LBB5_11
.LBB5_11:
	.loc	5 0 9                           @ rt-thread/components/net/lwip-2.0.2/src/core/ipv4/ip4_addr.c:0:9
	movs	r0, #0
.Ltmp125:
	.loc	5 322 7 is_stmt 1               @ rt-thread/components/net/lwip-2.0.2/src/core/ipv4/ip4_addr.c:322:7
	str	r0, [sp, #36]
	b	.LBB5_15
.Ltmp126:
.LBB5_12:                               @   in Loop: Header=BB5_1 Depth=1
	.loc	5 324 8                         @ rt-thread/components/net/lwip-2.0.2/src/core/ipv4/ip4_addr.c:324:8
	ldr	r1, [sp, #12]
	adds	r0, r1, #1
	str	r0, [sp, #12]
	movs	r0, #46
	.loc	5 324 11 is_stmt 0              @ rt-thread/components/net/lwip-2.0.2/src/core/ipv4/ip4_addr.c:324:11
	strb	r0, [r1]
	.loc	5 325 7 is_stmt 1               @ rt-thread/components/net/lwip-2.0.2/src/core/ipv4/ip4_addr.c:325:7
	ldr	r0, [sp, #8]
	adds	r0, #1
	str	r0, [sp, #8]
	.loc	5 326 3                         @ rt-thread/components/net/lwip-2.0.2/src/core/ipv4/ip4_addr.c:326:3
	b	.LBB5_13
.Ltmp127:
.LBB5_13:                               @   in Loop: Header=BB5_1 Depth=1
	.loc	5 308 23                        @ rt-thread/components/net/lwip-2.0.2/src/core/ipv4/ip4_addr.c:308:23
	ldrb.w	r0, [sp, #6]
	adds	r0, #1
	strb.w	r0, [sp, #6]
	.loc	5 308 3 is_stmt 0               @ rt-thread/components/net/lwip-2.0.2/src/core/ipv4/ip4_addr.c:308:3
	b	.LBB5_1
.Ltmp128:
.LBB5_14:
	.loc	5 327 4 is_stmt 1               @ rt-thread/components/net/lwip-2.0.2/src/core/ipv4/ip4_addr.c:327:4
	ldr	r1, [sp, #12]
	subs	r0, r1, #1
	str	r0, [sp, #12]
	movs	r0, #0
	.loc	5 327 9 is_stmt 0               @ rt-thread/components/net/lwip-2.0.2/src/core/ipv4/ip4_addr.c:327:9
	strb	r0, [r1, #-1]
	.loc	5 328 10 is_stmt 1              @ rt-thread/components/net/lwip-2.0.2/src/core/ipv4/ip4_addr.c:328:10
	ldr	r0, [sp, #28]
	.loc	5 328 3 is_stmt 0               @ rt-thread/components/net/lwip-2.0.2/src/core/ipv4/ip4_addr.c:328:3
	str	r0, [sp, #36]
	b	.LBB5_15
.LBB5_15:
	.loc	5 329 1 is_stmt 1               @ rt-thread/components/net/lwip-2.0.2/src/core/ipv4/ip4_addr.c:329:1
	ldr	r0, [sp, #36]
	add	sp, #40
	bx	lr
.Ltmp129:
.Lfunc_end5:
	.size	ip4addr_ntoa_r, .Lfunc_end5-ip4addr_ntoa_r
	.cfi_endproc
	.cantunwind
	.fnend
                                        @ -- End function
	.hidden	ip_addr_any                     @ @ip_addr_any
	.type	ip_addr_any,%object
	.section	.rodata.ip_addr_any,"a",%progbits
	.globl	ip_addr_any
	.p2align	2
ip_addr_any:
	.zero	4
	.size	ip_addr_any, 4

	.hidden	ip_addr_broadcast               @ @ip_addr_broadcast
	.type	ip_addr_broadcast,%object
	.section	.rodata.ip_addr_broadcast,"a",%progbits
	.globl	ip_addr_broadcast
	.p2align	2
ip_addr_broadcast:
	.long	4294967295                      @ 0xffffffff
	.size	ip_addr_broadcast, 4

	.type	.L.str,%object                  @ @.str
	.section	.rodata.str1.1,"aMS",%progbits,1
.L.str:
	.asciz	"unhandled"
	.size	.L.str, 10

	.type	.L.str.1,%object                @ @.str.1
.L.str.1:
	.asciz	"rt-thread/components/net/lwip-2.0.2/src/core/ipv4/ip4_addr.c"
	.size	.L.str.1, 61

	.type	ip4addr_ntoa.str,%object        @ @ip4addr_ntoa.str
	.section	.bss.ip4addr_ntoa.str,"aw",%nobits
ip4addr_ntoa.str:
	.zero	16
	.size	ip4addr_ntoa.str, 16

	.file	7 "E:\\Smart-access-control\\Hardware\\CODE" "./rt-thread/components/net/lwip-2.0.2/src/include\\lwip/err.h"
	.file	8 "E:\\Smart-access-control\\Hardware\\CODE" "./rt-thread/components/net/lwip-2.0.2/src/include\\lwip/pbuf.h"
	.section	".note.GNU-stack","",%progbits
	.eabi_attribute	30, 6	@ Tag_ABI_optimization_goals
	.ARM_attribute	16, 1	@ Tag_AV_eba