	.text
	.syntax unified
	.eabi_attribute	67, "2.09"	@ Tag_conformance
	.cpu	cortex-m7
	.eabi_attribute	6, 13	@ Tag_CPU_arch
	.eabi_attribute	7, 77	@ Tag_CPU_arch_profile
	.eabi_attribute	8, 0	@ Tag_ARM_ISA_use
	.eabi_attribute	9, 2	@ Tag_THUMB_ISA_use
	.fpu	fpv5-d16
	.eabi_attribute	36, 1	@ Tag_FP_HP_extension
	.eabi_attribute	34, 1	@ Tag_CPU_unaligned_access
	.eabi_attribute	17, 1	@ Tag_ABI_PCS_GOT_use
	.eabi_attribute	20, 2	@ Tag_ABI_FP_denormal
	.eabi_attribute	21, 0	@ Tag_ABI_FP_exceptions
	.eabi_attribute	23, 1	@ Tag_ABI_FP_number_model
	.eabi_attribute	24, 1	@ Tag_ABI_align_needed
	.eabi_attribute	25, 1	@ Tag_ABI_align_preserved
	.eabi_attribute	28, 1	@ Tag_ABI_VFP_args
	.eabi_attribute	38, 1	@ Tag_ABI_FP_16bit_format
	.eabi_attribute	18, 2	@ Tag_ABI_PCS_wchar_t
	.eabi_attribute	26, 1	@ Tag_ABI_enum_size
	.eabi_attribute	14, 0	@ Tag_ABI_PCS_R9_use
	.file	"ipc.c"
	.file	1 "E:\\Smart-access-control\\Hardware\\CODE" "rt-thread/include\\rtdef.h"
	.file	2 "E:\\Smart-access-control\\Hardware\\CODE" "rt-thread/src/ipc.c"
	.section	.text.rt_sem_init,"ax",%progbits
	.hidden	rt_sem_init                     @ -- Begin function rt_sem_init
	.globl	rt_sem_init
	.p2align	3
	.type	rt_sem_init,%function
	.code	16                              @ @rt_sem_init
	.thumb_func
rt_sem_init:
.Lfunc_begin0:
	.loc	2 203 0                         @ rt-thread/src/ipc.c:203:0
	.fnstart
	.cfi_sections .debug_frame
	.cfi_startproc
@ %bb.0:
	.save	{r7, lr}
	push	{r7, lr}
	.cfi_def_cfa_offset 8
	.cfi_offset lr, -4
	.cfi_offset r7, -8
	.pad	#16
	sub	sp, #16
	.cfi_def_cfa_offset 24
                                        @ kill: def $r12 killed $r3
	str	r0, [sp, #12]
	str	r1, [sp, #8]
	str	r2, [sp, #4]
	strb.w	r3, [sp, #3]
.Ltmp0:
	.loc	2 204 5 prologue_end            @ rt-thread/src/ipc.c:204:5
	ldr	r0, [sp, #12]
.Ltmp1:
	.loc	2 204 5 is_stmt 0               @ rt-thread/src/ipc.c:204:5
	cbnz	r0, .LBB0_2
	b	.LBB0_1
.LBB0_1:
.Ltmp2:
	.loc	2 204 5                         @ rt-thread/src/ipc.c:204:5
	movw	r0, :lower16:.L.str
	movt	r0, :upper16:.L.str
	movw	r1, :lower16:.L__FUNCTION__.rt_sem_init
	movt	r1, :upper16:.L__FUNCTION__.rt_sem_init
	movs	r2, #204
	bl	rt_assert_handler
	b	.LBB0_2
.Ltmp3:
.LBB0_2:
	.loc	2 205 5 is_stmt 1               @ rt-thread/src/ipc.c:205:5
	ldr	r0, [sp, #4]
.Ltmp4:
	.loc	2 205 5 is_stmt 0               @ rt-thread/src/ipc.c:205:5
	cmp.w	r0, #65536
	blo	.LBB0_4
	b	.LBB0_3
.LBB0_3:
.Ltmp5:
	.loc	2 205 5                         @ rt-thread/src/ipc.c:205:5
	movw	r0, :lower16:.L.str.1
	movt	r0, :upper16:.L.str.1
	movw	r1, :lower16:.L__FUNCTION__.rt_sem_init
	movt	r1, :upper16:.L__FUNCTION__.rt_sem_init
	movs	r2, #205
	bl	rt_assert_handler
	b	.LBB0_4
.Ltmp6:
.LBB0_4:
	.loc	2 208 22 is_stmt 1              @ rt-thread/src/ipc.c:208:22
	ldr	r0, [sp, #12]
	.loc	2 208 70 is_stmt 0              @ rt-thread/src/ipc.c:208:70
	ldr	r2, [sp, #8]
	movs	r1, #2
	.loc	2 208 5                         @ rt-thread/src/ipc.c:208:5
	bl	rt_object_init
	.loc	2 211 26 is_stmt 1              @ rt-thread/src/ipc.c:211:26
	ldr	r0, [sp, #12]
	.loc	2 211 5 is_stmt 0               @ rt-thread/src/ipc.c:211:5
	bl	rt_ipc_object_init
	.loc	2 214 31 is_stmt 1              @ rt-thread/src/ipc.c:214:31
	ldr	r0, [sp, #4]
	.loc	2 214 5 is_stmt 0               @ rt-thread/src/ipc.c:214:5
	ldr	r1, [sp, #12]
	.loc	2 214 16                        @ rt-thread/src/ipc.c:214:16
	strh	r0, [r1, #28]
	.loc	2 217 31 is_stmt 1              @ rt-thread/src/ipc.c:217:31
	ldrb.w	r0, [sp, #3]
	.loc	2 217 5 is_stmt 0               @ rt-thread/src/ipc.c:217:5
	ldr	r1, [sp, #12]
	.loc	2 217 29                        @ rt-thread/src/ipc.c:217:29
	strb	r0, [r1, #9]
	movs	r0, #0
	.loc	2 219 5 is_stmt 1               @ rt-thread/src/ipc.c:219:5
	add	sp, #16
	pop	{r7, pc}
.Ltmp7:
.Lfunc_end0:
	.size	rt_sem_init, .Lfunc_end0-rt_sem_init
	.cfi_endproc
	.cantunwind
	.fnend
                                        @ -- End function
	.section	.text.rt_ipc_object_init,"ax",%progbits
	.p2align	3                               @ -- Begin function rt_ipc_object_init
	.type	rt_ipc_object_init,%function
	.code	16                              @ @rt_ipc_object_init
	.thumb_func
rt_ipc_object_init:
.Lfunc_begin1:
	.loc	2 62 0                          @ rt-thread/src/ipc.c:62:0
	.fnstart
	.cfi_startproc
@ %bb.0:
	.save	{r7, lr}
	push	{r7, lr}
	.cfi_def_cfa_offset 8
	.cfi_offset lr, -4
	.cfi_offset r7, -8
	.pad	#8
	sub	sp, #8
	.cfi_def_cfa_offset 16
	str	r0, [sp, #4]
.Ltmp8:
	.loc	2 64 20 prologue_end            @ rt-thread/src/ipc.c:64:20
	ldr	r0, [sp, #4]
	.loc	2 64 25 is_stmt 0               @ rt-thread/src/ipc.c:64:25
	adds	r0, #20
	.loc	2 64 5                          @ rt-thread/src/ipc.c:64:5
	bl	rt_list_init
	movs	r0, #0
	.loc	2 66 5 is_stmt 1                @ rt-thread/src/ipc.c:66:5
	add	sp, #8
	pop	{r7, pc}
.Ltmp9:
.Lfunc_end1:
	.size	rt_ipc_object_init, .Lfunc_end1-rt_ipc_object_init
	.cfi_endproc
	.cantunwind
	.fnend
                                        @ -- End function
	.section	.text.rt_sem_detach,"ax",%progbits
	.hidden	rt_sem_detach                   @ -- Begin function rt_sem_detach
	.globl	rt_sem_detach
	.p2align	3
	.type	rt_sem_detach,%function
	.code	16                              @ @rt_sem_detach
	.thumb_func
rt_sem_detach:
.Lfunc_begin2:
	.loc	2 233 0                         @ rt-thread/src/ipc.c:233:0
	.fnstart
	.cfi_startproc
@ %bb.0:
	.save	{r7, lr}
	push	{r7, lr}
	.cfi_def_cfa_offset 8
	.cfi_offset lr, -4
	.cfi_offset r7, -8
	.pad	#8
	sub	sp, #8
	.cfi_def_cfa_offset 16
	str	r0, [sp, #4]
.Ltmp10:
	.loc	2 235 5 prologue_end            @ rt-thread/src/ipc.c:235:5
	ldr	r0, [sp, #4]
.Ltmp11:
	.loc	2 235 5 is_stmt 0               @ rt-thread/src/ipc.c:235:5
	cbnz	r0, .LBB2_2
	b	.LBB2_1
.LBB2_1:
.Ltmp12:
	.loc	2 235 5                         @ rt-thread/src/ipc.c:235:5
	movw	r0, :lower16:.L.str
	movt	r0, :upper16:.L.str
	movw	r1, :lower16:.L__FUNCTION__.rt_sem_detach
	movt	r1, :upper16:.L__FUNCTION__.rt_sem_detach
	movs	r2, #235
	bl	rt_assert_handler
	b	.LBB2_2
.Ltmp13:
.LBB2_2:
	.loc	2 236 5 is_stmt 1               @ rt-thread/src/ipc.c:236:5
	ldr	r0, [sp, #4]
	bl	rt_object_get_type
.Ltmp14:
	.loc	2 236 5 is_stmt 0               @ rt-thread/src/ipc.c:236:5
	cmp	r0, #2
	beq	.LBB2_4
	b	.LBB2_3
.LBB2_3:
.Ltmp15:
	.loc	2 236 5                         @ rt-thread/src/ipc.c:236:5
	movw	r0, :lower16:.L.str.2
	movt	r0, :upper16:.L.str.2
	movw	r1, :lower16:.L__FUNCTION__.rt_sem_detach
	movt	r1, :upper16:.L__FUNCTION__.rt_sem_detach
	movs	r2, #236
	bl	rt_assert_handler
	b	.LBB2_4
.Ltmp16:
.LBB2_4:
	.loc	2 237 5 is_stmt 1               @ rt-thread/src/ipc.c:237:5
	ldr	r0, [sp, #4]
	bl	rt_object_is_systemobject
.Ltmp17:
	.loc	2 237 5 is_stmt 0               @ rt-thread/src/ipc.c:237:5
	cbnz	r0, .LBB2_6
	b	.LBB2_5
.LBB2_5:
.Ltmp18:
	.loc	2 237 5                         @ rt-thread/src/ipc.c:237:5
	movw	r0, :lower16:.L.str.3
	movt	r0, :upper16:.L.str.3
	movw	r1, :lower16:.L__FUNCTION__.rt_sem_detach
	movt	r1, :upper16:.L__FUNCTION__.rt_sem_detach
	movs	r2, #237
	bl	rt_assert_handler
	b	.LBB2_6
.Ltmp19:
.LBB2_6:
	.loc	2 240 30 is_stmt 1              @ rt-thread/src/ipc.c:240:30
	ldr	r0, [sp, #4]
	.loc	2 240 42 is_stmt 0              @ rt-thread/src/ipc.c:240:42
	adds	r0, #20
	.loc	2 240 5                         @ rt-thread/src/ipc.c:240:5
	bl	rt_ipc_list_resume_all
	.loc	2 243 24 is_stmt 1              @ rt-thread/src/ipc.c:243:24
	ldr	r0, [sp, #4]
	.loc	2 243 5 is_stmt 0               @ rt-thread/src/ipc.c:243:5
	bl	rt_object_detach
	movs	r0, #0
	.loc	2 245 5 is_stmt 1               @ rt-thread/src/ipc.c:245:5
	add	sp, #8
	pop	{r7, pc}
.Ltmp20:
.Lfunc_end2:
	.size	rt_sem_detach, .Lfunc_end2-rt_sem_detach
	.cfi_endproc
	.cantunwind
	.fnend
                                        @ -- End function
	.section	.text.rt_ipc_list_resume_all,"ax",%progbits
	.p2align	3                               @ -- Begin function rt_ipc_list_resume_all
	.type	rt_ipc_list_resume_all,%function
	.code	16                              @ @rt_ipc_list_resume_all
	.thumb_func
rt_ipc_list_resume_all:
.Lfunc_begin3:
	.loc	2 158 0                         @ rt-thread/src/ipc.c:158:0
	.fnstart
	.cfi_startproc
@ %bb.0:
	.save	{r7, lr}
	push	{r7, lr}
	.cfi_def_cfa_offset 8
	.cfi_offset lr, -4
	.cfi_offset r7, -8
	.pad	#16
	sub	sp, #16
	.cfi_def_cfa_offset 24
	str	r0, [sp, #12]
.Ltmp21:
	.loc	2 163 5 prologue_end            @ rt-thread/src/ipc.c:163:5
	b	.LBB3_1
.LBB3_1:                                @ =>This Inner Loop Header: Depth=1
	.loc	2 163 29 is_stmt 0              @ rt-thread/src/ipc.c:163:29
	ldr	r0, [sp, #12]
	.loc	2 163 13                        @ rt-thread/src/ipc.c:163:13
	bl	rt_list_isempty
	.loc	2 163 5                         @ rt-thread/src/ipc.c:163:5
	cbnz	r0, .LBB3_3
	b	.LBB3_2
.LBB3_2:                                @   in Loop: Header=BB3_1 Depth=1
.Ltmp22:
	.loc	2 166 16 is_stmt 1              @ rt-thread/src/ipc.c:166:16
	bl	rt_hw_interrupt_disable
	.loc	2 166 14 is_stmt 0              @ rt-thread/src/ipc.c:166:14
	str	r0, [sp, #4]
	.loc	2 169 18 is_stmt 1              @ rt-thread/src/ipc.c:169:18
	ldr	r0, [sp, #12]
	ldr	r0, [r0]
	subs	r0, #20
	.loc	2 169 16 is_stmt 0              @ rt-thread/src/ipc.c:169:16
	str	r0, [sp, #8]
	.loc	2 171 9 is_stmt 1               @ rt-thread/src/ipc.c:171:9
	ldr	r1, [sp, #8]
	mov.w	r0, #-1
	.loc	2 171 23 is_stmt 0              @ rt-thread/src/ipc.c:171:23
	str	r0, [r1, #48]
	.loc	2 178 26 is_stmt 1              @ rt-thread/src/ipc.c:178:26
	ldr	r0, [sp, #8]
	.loc	2 178 9 is_stmt 0               @ rt-thread/src/ipc.c:178:9
	bl	rt_thread_resume
	.loc	2 181 32 is_stmt 1              @ rt-thread/src/ipc.c:181:32
	ldr	r0, [sp, #4]
	.loc	2 181 9 is_stmt 0               @ rt-thread/src/ipc.c:181:9
	bl	rt_hw_interrupt_enable
.Ltmp23:
	.loc	2 163 5 is_stmt 1               @ rt-thread/src/ipc.c:163:5
	b	.LBB3_1
.LBB3_3:
	.loc	2 0 5 is_stmt 0                 @ rt-thread/src/ipc.c:0:5
	movs	r0, #0
	.loc	2 184 5 is_stmt 1               @ rt-thread/src/ipc.c:184:5
	add	sp, #16
	pop	{r7, pc}
.Ltmp24:
.Lfunc_end3:
	.size	rt_ipc_list_resume_all, .Lfunc_end3-rt_ipc_list_resume_all
	.cfi_endproc
	.cantunwind
	.fnend
                                        @ -- End function
	.section	.text.rt_sem_create,"ax",%progbits
	.hidden	rt_sem_create                   @ -- Begin function rt_sem_create
	.globl	rt_sem_create
	.p2align	3
	.type	rt_sem_create,%function
	.code	16                              @ @rt_sem_create
	.thumb_func
rt_sem_create:
.Lfunc_begin4:
	.loc	2 262 0                         @ rt-thread/src/ipc.c:262:0
	.fnstart
	.cfi_startproc
@ %bb.0:
	.save	{r7, lr}
	push	{r7, lr}
	.cfi_def_cfa_offset 8
	.cfi_offset lr, -4
	.cfi_offset r7, -8
	.pad	#24
	sub	sp, #24
	.cfi_def_cfa_offset 32
                                        @ kill: def $r3 killed $r2
	str	r0, [sp, #16]
	str	r1, [sp, #12]
	strb.w	r2, [sp, #11]
.Ltmp25:
	.loc	2 265 5 prologue_end            @ rt-thread/src/ipc.c:265:5
	b	.LBB4_1
.LBB4_1:
.Ltmp26:
	.loc	2 265 5 is_stmt 0               @ rt-thread/src/ipc.c:265:5
	bl	rt_hw_interrupt_disable
	str	r0, [sp]
.Ltmp27:
	.loc	2 265 5                         @ rt-thread/src/ipc.c:265:5
	bl	rt_interrupt_get_nest
.Ltmp28:
	.loc	2 265 5                         @ rt-thread/src/ipc.c:265:5
	cbz	r0, .LBB4_3
	b	.LBB4_2
.LBB4_2:
.Ltmp29:
	.loc	2 265 5                         @ rt-thread/src/ipc.c:265:5
	movw	r0, :lower16:.L.str.4
	movt	r0, :upper16:.L.str.4
	movw	r1, :lower16:.L__FUNCTION__.rt_sem_create
	movt	r1, :upper16:.L__FUNCTION__.rt_sem_create
	movw	r2, #265
	bl	rt_assert_handler
.Ltmp30:
	.loc	2 265 5                         @ rt-thread/src/ipc.c:265:5
	b	.LBB4_3
.Ltmp31:
.LBB4_3:
	.loc	2 265 5                         @ rt-thread/src/ipc.c:265:5
	ldr	r0, [sp]
	bl	rt_hw_interrupt_enable
	b	.LBB4_4
.Ltmp32:
.LBB4_4:
	.loc	2 266 5 is_stmt 1               @ rt-thread/src/ipc.c:266:5
	ldr	r0, [sp, #12]
.Ltmp33:
	.loc	2 266 5 is_stmt 0               @ rt-thread/src/ipc.c:266:5
	cmp.w	r0, #65536
	blo	.LBB4_6
	b	.LBB4_5
.LBB4_5:
.Ltmp34:
	.loc	2 266 5                         @ rt-thread/src/ipc.c:266:5
	movw	r0, :lower16:.L.str.1
	movt	r0, :upper16:.L.str.1
	movw	r1, :lower16:.L__FUNCTION__.rt_sem_create
	movt	r1, :upper16:.L__FUNCTION__.rt_sem_create
	mov.w	r2, #266
	bl	rt_assert_handler
	b	.LBB4_6
.Ltmp35:
.LBB4_6:
	.loc	2 269 67 is_stmt 1              @ rt-thread/src/ipc.c:269:67
	ldr	r1, [sp, #16]
	movs	r0, #2
	.loc	2 269 21 is_stmt 0              @ rt-thread/src/ipc.c:269:21
	bl	rt_object_allocate
	.loc	2 269 9                         @ rt-thread/src/ipc.c:269:9
	str	r0, [sp, #4]
.Ltmp36:
	.loc	2 270 9 is_stmt 1               @ rt-thread/src/ipc.c:270:9
	ldr	r0, [sp, #4]
.Ltmp37:
	.loc	2 270 9 is_stmt 0               @ rt-thread/src/ipc.c:270:9
	cbnz	r0, .LBB4_8
	b	.LBB4_7
.LBB4_7:
.Ltmp38:
	.loc	2 271 16 is_stmt 1              @ rt-thread/src/ipc.c:271:16
	ldr	r0, [sp, #4]
	.loc	2 271 9 is_stmt 0               @ rt-thread/src/ipc.c:271:9
	str	r0, [sp, #20]
	b	.LBB4_9
.Ltmp39:
.LBB4_8:
	.loc	2 274 26 is_stmt 1              @ rt-thread/src/ipc.c:274:26
	ldr	r0, [sp, #4]
	.loc	2 274 5 is_stmt 0               @ rt-thread/src/ipc.c:274:5
	bl	rt_ipc_object_init
	.loc	2 277 18 is_stmt 1              @ rt-thread/src/ipc.c:277:18
	ldr	r0, [sp, #12]
	.loc	2 277 5 is_stmt 0               @ rt-thread/src/ipc.c:277:5
	ldr	r1, [sp, #4]
	.loc	2 277 16                        @ rt-thread/src/ipc.c:277:16
	strh	r0, [r1, #28]
	.loc	2 280 31 is_stmt 1              @ rt-thread/src/ipc.c:280:31
	ldrb.w	r0, [sp, #11]
	.loc	2 280 5 is_stmt 0               @ rt-thread/src/ipc.c:280:5
	ldr	r1, [sp, #4]
	.loc	2 280 29                        @ rt-thread/src/ipc.c:280:29
	strb	r0, [r1, #9]
	.loc	2 282 12 is_stmt 1              @ rt-thread/src/ipc.c:282:12
	ldr	r0, [sp, #4]
	.loc	2 282 5 is_stmt 0               @ rt-thread/src/ipc.c:282:5
	str	r0, [sp, #20]
	b	.LBB4_9
.LBB4_9:
	.loc	2 283 1 is_stmt 1               @ rt-thread/src/ipc.c:283:1
	ldr	r0, [sp, #20]
	add	sp, #24
	pop	{r7, pc}
.Ltmp40:
.Lfunc_end4:
	.size	rt_sem_create, .Lfunc_end4-rt_sem_create
	.cfi_endproc
	.cantunwind
	.fnend
                                        @ -- End function
	.section	.text.rt_sem_delete,"ax",%progbits
	.hidden	rt_sem_delete                   @ -- Begin function rt_sem_delete
	.globl	rt_sem_delete
	.p2align	3
	.type	rt_sem_delete,%function
	.code	16                              @ @rt_sem_delete
	.thumb_func
rt_sem_delete:
.Lfunc_begin5:
	.loc	2 296 0                         @ rt-thread/src/ipc.c:296:0
	.fnstart
	.cfi_startproc
@ %bb.0:
	.save	{r7, lr}
	push	{r7, lr}
	.cfi_def_cfa_offset 8
	.cfi_offset lr, -4
	.cfi_offset r7, -8
	.pad	#8
	sub	sp, #8
	.cfi_def_cfa_offset 16
	str	r0, [sp, #4]
.Ltmp41:
	.loc	2 297 5 prologue_end            @ rt-thread/src/ipc.c:297:5
	b	.LBB5_1
.LBB5_1:
.Ltmp42:
	.loc	2 297 5 is_stmt 0               @ rt-thread/src/ipc.c:297:5
	bl	rt_hw_interrupt_disable
	str	r0, [sp]
.Ltmp43:
	.loc	2 297 5                         @ rt-thread/src/ipc.c:297:5
	bl	rt_interrupt_get_nest
.Ltmp44:
	.loc	2 297 5                         @ rt-thread/src/ipc.c:297:5
	cbz	r0, .LBB5_3
	b	.LBB5_2
.LBB5_2:
.Ltmp45:
	.loc	2 297 5                         @ rt-thread/src/ipc.c:297:5
	movw	r0, :lower16:.L.str.4
	movt	r0, :upper16:.L.str.4
	movw	r1, :lower16:.L__FUNCTION__.rt_sem_delete
	movt	r1, :upper16:.L__FUNCTION__.rt_sem_delete
	movw	r2, #297
	bl	rt_assert_handler
.Ltmp46:
	.loc	2 297 5                         @ rt-thread/src/ipc.c:297:5
	b	.LBB5_3
.Ltmp47:
.LBB5_3:
	.loc	2 297 5                         @ rt-thread/src/ipc.c:297:5
	ldr	r0, [sp]
	bl	rt_hw_interrupt_enable
	b	.LBB5_4
.Ltmp48:
.LBB5_4:
	.loc	2 300 5 is_stmt 1               @ rt-thread/src/ipc.c:300:5
	ldr	r0, [sp, #4]
.Ltmp49:
	.loc	2 300 5 is_stmt 0               @ rt-thread/src/ipc.c:300:5
	cbnz	r0, .LBB5_6
	b	.LBB5_5
.LBB5_5:
.Ltmp50:
	.loc	2 300 5                         @ rt-thread/src/ipc.c:300:5
	movw	r0, :lower16:.L.str
	movt	r0, :upper16:.L.str
	movw	r1, :lower16:.L__FUNCTION__.rt_sem_delete
	movt	r1, :upper16:.L__FUNCTION__.rt_sem_delete
	mov.w	r2, #300
	bl	rt_assert_handler
	b	.LBB5_6
.Ltmp51:
.LBB5_6:
	.loc	2 301 5 is_stmt 1               @ rt-thread/src/ipc.c:301:5
	ldr	r0, [sp, #4]
	bl	rt_object_get_type
.Ltmp52:
	.loc	2 301 5 is_stmt 0               @ rt-thread/src/ipc.c:301:5
	cmp	r0, #2
	beq	.LBB5_8
	b	.LBB5_7
.LBB5_7:
.Ltmp53:
	.loc	2 301 5                         @ rt-thread/src/ipc.c:301:5
	movw	r0, :lower16:.L.str.2
	movt	r0, :upper16:.L.str.2
	movw	r1, :lower16:.L__FUNCTION__.rt_sem_delete
	movt	r1, :upper16:.L__FUNCTION__.rt_sem_delete
	movw	r2, #301
	bl	rt_assert_handler
	b	.LBB5_8
.Ltmp54:
.LBB5_8:
	.loc	2 302 5 is_stmt 1               @ rt-thread/src/ipc.c:302:5
	ldr	r0, [sp, #4]
	bl	rt_object_is_systemobject
.Ltmp55:
	.loc	2 302 5 is_stmt 0               @ rt-thread/src/ipc.c:302:5
	cbz	r0, .LBB5_10
	b	.LBB5_9
.LBB5_9:
.Ltmp56:
	.loc	2 302 5                         @ rt-thread/src/ipc.c:302:5
	movw	r0, :lower16:.L.str.5
	movt	r0, :upper16:.L.str.5
	movw	r1, :lower16:.L__FUNCTION__.rt_sem_delete
	movt	r1, :upper16:.L__FUNCTION__.rt_sem_delete
	mov.w	r2, #302
	bl	rt_assert_handler
	b	.LBB5_10
.Ltmp57:
.LBB5_10:
	.loc	2 305 30 is_stmt 1              @ rt-thread/src/ipc.c:305:30
	ldr	r0, [sp, #4]
	.loc	2 305 42 is_stmt 0              @ rt-thread/src/ipc.c:305:42
	adds	r0, #20
	.loc	2 305 5                         @ rt-thread/src/ipc.c:305:5
	bl	rt_ipc_list_resume_all
	.loc	2 308 24 is_stmt 1              @ rt-thread/src/ipc.c:308:24
	ldr	r0, [sp, #4]
	.loc	2 308 5 is_stmt 0               @ rt-thread/src/ipc.c:308:5
	bl	rt_object_delete
	movs	r0, #0
	.loc	2 310 5 is_stmt 1               @ rt-thread/src/ipc.c:310:5
	add	sp, #8
	pop	{r7, pc}
.Ltmp58:
.Lfunc_end5:
	.size	rt_sem_delete, .Lfunc_end5-rt_sem_delete
	.cfi_endproc
	.cantunwind
	.fnend
                                        @ -- End function
	.section	.text.rt_sem_take,"ax",%progbits
	.hidden	rt_sem_take                     @ -- Begin function rt_sem_take
	.globl	rt_sem_take
	.p2align	3
	.type	rt_sem_take,%function
	.code	16                              @ @rt_sem_take
	.thumb_func
rt_sem_take:
.Lfunc_begin6:
	.loc	2 325 0                         @ rt-thread/src/ipc.c:325:0
	.fnstart
	.cfi_startproc
@ %bb.0:
	.save	{r7, lr}
	push	{r7, lr}
	.cfi_def_cfa_offset 8
	.cfi_offset lr, -4
	.cfi_offset r7, -8
	.pad	#32
	sub	sp, #32
	.cfi_def_cfa_offset 40
	str	r0, [sp, #24]
	str	r1, [sp, #20]
.Ltmp59:
	.loc	2 330 5 prologue_end            @ rt-thread/src/ipc.c:330:5
	ldr	r0, [sp, #24]
.Ltmp60:
	.loc	2 330 5 is_stmt 0               @ rt-thread/src/ipc.c:330:5
	cbnz	r0, .LBB6_2
	b	.LBB6_1
.LBB6_1:
.Ltmp61:
	.loc	2 330 5                         @ rt-thread/src/ipc.c:330:5
	movw	r0, :lower16:.L.str
	movt	r0, :upper16:.L.str
	movw	r1, :lower16:.L__FUNCTION__.rt_sem_take
	movt	r1, :upper16:.L__FUNCTION__.rt_sem_take
	mov.w	r2, #330
	bl	rt_assert_handler
	b	.LBB6_2
.Ltmp62:
.LBB6_2:
	.loc	2 331 5 is_stmt 1               @ rt-thread/src/ipc.c:331:5
	ldr	r0, [sp, #24]
	bl	rt_object_get_type
.Ltmp63:
	.loc	2 331 5 is_stmt 0               @ rt-thread/src/ipc.c:331:5
	cmp	r0, #2
	beq	.LBB6_4
	b	.LBB6_3
.LBB6_3:
.Ltmp64:
	.loc	2 331 5                         @ rt-thread/src/ipc.c:331:5
	movw	r0, :lower16:.L.str.2
	movt	r0, :upper16:.L.str.2
	movw	r1, :lower16:.L__FUNCTION__.rt_sem_take
	movt	r1, :upper16:.L__FUNCTION__.rt_sem_take
	movw	r2, #331
	bl	rt_assert_handler
	b	.LBB6_4
.Ltmp65:
.LBB6_4:
	.loc	2 333 5 is_stmt 1               @ rt-thread/src/ipc.c:333:5
	b	.LBB6_5
.LBB6_5:
.Ltmp66:
	.loc	2 333 5 is_stmt 0               @ rt-thread/src/ipc.c:333:5
	movw	r0, :lower16:rt_object_trytake_hook
	movt	r0, :upper16:rt_object_trytake_hook
	ldr	r0, [r0]
.Ltmp67:
	.loc	2 333 5                         @ rt-thread/src/ipc.c:333:5
	cbz	r0, .LBB6_7
	b	.LBB6_6
.LBB6_6:
.Ltmp68:
	.loc	2 333 5                         @ rt-thread/src/ipc.c:333:5
	movw	r0, :lower16:rt_object_trytake_hook
	movt	r0, :upper16:rt_object_trytake_hook
	ldr	r1, [r0]
	ldr	r0, [sp, #24]
	blx	r1
	b	.LBB6_7
.Ltmp69:
.LBB6_7:
	.loc	2 333 5                         @ rt-thread/src/ipc.c:333:5
	b	.LBB6_8
.Ltmp70:
.LBB6_8:
	.loc	2 336 12 is_stmt 1              @ rt-thread/src/ipc.c:336:12
	bl	rt_hw_interrupt_disable
	.loc	2 336 10 is_stmt 0              @ rt-thread/src/ipc.c:336:10
	str	r0, [sp, #16]
	.loc	2 338 5 is_stmt 1               @ rt-thread/src/ipc.c:338:5
	b	.LBB6_9
.LBB6_9:
.Ltmp71:
	.loc	2 338 5 is_stmt 0               @ rt-thread/src/ipc.c:338:5
	b	.LBB6_10
.Ltmp72:
.LBB6_10:
	.loc	2 343 9 is_stmt 1               @ rt-thread/src/ipc.c:343:9
	ldr	r0, [sp, #24]
	.loc	2 343 14 is_stmt 0              @ rt-thread/src/ipc.c:343:14
	ldrh	r0, [r0, #28]
.Ltmp73:
	.loc	2 343 9                         @ rt-thread/src/ipc.c:343:9
	cmp	r0, #1
	blt	.LBB6_12
	b	.LBB6_11
.LBB6_11:
.Ltmp74:
	.loc	2 346 9 is_stmt 1               @ rt-thread/src/ipc.c:346:9
	ldr	r1, [sp, #24]
	.loc	2 346 20 is_stmt 0              @ rt-thread/src/ipc.c:346:20
	ldrh	r0, [r1, #28]
	subs	r0, #1
	strh	r0, [r1, #28]
	.loc	2 349 32 is_stmt 1              @ rt-thread/src/ipc.c:349:32
	ldr	r0, [sp, #16]
	.loc	2 349 9 is_stmt 0               @ rt-thread/src/ipc.c:349:9
	bl	rt_hw_interrupt_enable
	.loc	2 350 5 is_stmt 1               @ rt-thread/src/ipc.c:350:5
	b	.LBB6_32
.Ltmp75:
.LBB6_12:
	.loc	2 354 13                        @ rt-thread/src/ipc.c:354:13
	ldr	r0, [sp, #20]
.Ltmp76:
	.loc	2 354 13 is_stmt 0              @ rt-thread/src/ipc.c:354:13
	cbnz	r0, .LBB6_14
	b	.LBB6_13
.LBB6_13:
.Ltmp77:
	.loc	2 356 36 is_stmt 1              @ rt-thread/src/ipc.c:356:36
	ldr	r0, [sp, #16]
	.loc	2 356 13 is_stmt 0              @ rt-thread/src/ipc.c:356:13
	bl	rt_hw_interrupt_enable
	mvn	r0, #1
	.loc	2 358 13 is_stmt 1              @ rt-thread/src/ipc.c:358:13
	str	r0, [sp, #28]
	b	.LBB6_37
.Ltmp78:
.LBB6_14:
	.loc	2 363 13                        @ rt-thread/src/ipc.c:363:13
	b	.LBB6_15
.LBB6_15:
.Ltmp79:
	.loc	2 363 13 is_stmt 0              @ rt-thread/src/ipc.c:363:13
	bl	rt_hw_interrupt_disable
	str	r0, [sp, #8]
.Ltmp80:
	.loc	2 363 13                        @ rt-thread/src/ipc.c:363:13
	bl	rt_thread_self
.Ltmp81:
	.loc	2 363 13                        @ rt-thread/src/ipc.c:363:13
	cbnz	r0, .LBB6_17
	b	.LBB6_16
.LBB6_16:
.Ltmp82:
	.loc	2 363 13                        @ rt-thread/src/ipc.c:363:13
	movw	r0, :lower16:.L.str.6
	movt	r0, :upper16:.L.str.6
	movw	r1, :lower16:.L__FUNCTION__.rt_sem_take
	movt	r1, :upper16:.L__FUNCTION__.rt_sem_take
	str	r1, [sp]                        @ 4-byte Spill
	bl	rt_kprintf
	ldr	r1, [sp]                        @ 4-byte Reload
.Ltmp83:
	.loc	2 363 13                        @ rt-thread/src/ipc.c:363:13
	movw	r0, :lower16:.L.str.4
	movt	r0, :upper16:.L.str.4
	movw	r2, #363
	bl	rt_assert_handler
.Ltmp84:
	.loc	2 363 13                        @ rt-thread/src/ipc.c:363:13
	b	.LBB6_17
.Ltmp85:
.LBB6_17:
	.loc	2 363 13                        @ rt-thread/src/ipc.c:363:13
	b	.LBB6_18
.LBB6_18:
.Ltmp86:
	.loc	2 363 13                        @ rt-thread/src/ipc.c:363:13
	bl	rt_hw_interrupt_disable
	str	r0, [sp, #4]
.Ltmp87:
	.loc	2 363 13                        @ rt-thread/src/ipc.c:363:13
	bl	rt_interrupt_get_nest
.Ltmp88:
	.loc	2 363 13                        @ rt-thread/src/ipc.c:363:13
	cbz	r0, .LBB6_20
	b	.LBB6_19
.LBB6_19:
.Ltmp89:
	.loc	2 363 13                        @ rt-thread/src/ipc.c:363:13
	movw	r0, :lower16:.L.str.4
	movt	r0, :upper16:.L.str.4
	movw	r1, :lower16:.L__FUNCTION__.rt_sem_take
	movt	r1, :upper16:.L__FUNCTION__.rt_sem_take
	movw	r2, #363
	bl	rt_assert_handler
.Ltmp90:
	.loc	2 363 13                        @ rt-thread/src/ipc.c:363:13
	b	.LBB6_20
.Ltmp91:
.LBB6_20:
	.loc	2 363 13                        @ rt-thread/src/ipc.c:363:13
	ldr	r0, [sp, #4]
	bl	rt_hw_interrupt_enable
	b	.LBB6_21
.Ltmp92:
.LBB6_21:
	.loc	2 363 13                        @ rt-thread/src/ipc.c:363:13
	ldr	r0, [sp, #8]
	bl	rt_hw_interrupt_enable
	b	.LBB6_22
.Ltmp93:
.LBB6_22:
	.loc	2 367 22 is_stmt 1              @ rt-thread/src/ipc.c:367:22
	bl	rt_thread_self
	.loc	2 367 20 is_stmt 0              @ rt-thread/src/ipc.c:367:20
	str	r0, [sp, #12]
	.loc	2 370 13 is_stmt 1              @ rt-thread/src/ipc.c:370:13
	ldr	r1, [sp, #12]
	movs	r0, #0
	.loc	2 370 27 is_stmt 0              @ rt-thread/src/ipc.c:370:27
	str	r0, [r1, #48]
	.loc	2 372 13 is_stmt 1              @ rt-thread/src/ipc.c:372:13
	b	.LBB6_23
.LBB6_23:
.Ltmp94:
	.loc	2 372 13 is_stmt 0              @ rt-thread/src/ipc.c:372:13
	b	.LBB6_24
.Ltmp95:
.LBB6_24:
	.loc	2 376 35 is_stmt 1              @ rt-thread/src/ipc.c:376:35
	ldr	r2, [sp, #24]
	.loc	2 376 47 is_stmt 0              @ rt-thread/src/ipc.c:376:47
	add.w	r0, r2, #20
	.loc	2 377 33 is_stmt 1              @ rt-thread/src/ipc.c:377:33
	ldr	r1, [sp, #12]
	.loc	2 378 52                        @ rt-thread/src/ipc.c:378:52
	ldrb	r2, [r2, #9]
	.loc	2 376 13                        @ rt-thread/src/ipc.c:376:13
	bl	rt_ipc_list_suspend
.Ltmp96:
	.loc	2 381 17                        @ rt-thread/src/ipc.c:381:17
	ldr	r0, [sp, #20]
.Ltmp97:
	.loc	2 381 17 is_stmt 0              @ rt-thread/src/ipc.c:381:17
	cmp	r0, #1
	blt	.LBB6_28
	b	.LBB6_25
.LBB6_25:
.Ltmp98:
	.loc	2 383 17 is_stmt 1              @ rt-thread/src/ipc.c:383:17
	b	.LBB6_26
.LBB6_26:
.Ltmp99:
	.loc	2 383 17 is_stmt 0              @ rt-thread/src/ipc.c:383:17
	b	.LBB6_27
.Ltmp100:
.LBB6_27:
	.loc	2 387 36 is_stmt 1              @ rt-thread/src/ipc.c:387:36
	ldr	r0, [sp, #12]
	.loc	2 387 44 is_stmt 0              @ rt-thread/src/ipc.c:387:44
	adds	r0, #76
	movs	r1, #0
	add	r2, sp, #20
	.loc	2 387 17                        @ rt-thread/src/ipc.c:387:17
	bl	rt_timer_control
	.loc	2 390 34 is_stmt 1              @ rt-thread/src/ipc.c:390:34
	ldr	r0, [sp, #12]
	.loc	2 390 42 is_stmt 0              @ rt-thread/src/ipc.c:390:42
	adds	r0, #76
	.loc	2 390 17                        @ rt-thread/src/ipc.c:390:17
	bl	rt_timer_start
	.loc	2 391 13 is_stmt 1              @ rt-thread/src/ipc.c:391:13
	b	.LBB6_28
.Ltmp101:
.LBB6_28:
	.loc	2 394 36                        @ rt-thread/src/ipc.c:394:36
	ldr	r0, [sp, #16]
	.loc	2 394 13 is_stmt 0              @ rt-thread/src/ipc.c:394:13
	bl	rt_hw_interrupt_enable
	.loc	2 397 13 is_stmt 1              @ rt-thread/src/ipc.c:397:13
	bl	rt_schedule
.Ltmp102:
	.loc	2 399 17                        @ rt-thread/src/ipc.c:399:17
	ldr	r0, [sp, #12]
	.loc	2 399 25 is_stmt 0              @ rt-thread/src/ipc.c:399:25
	ldr	r0, [r0, #48]
.Ltmp103:
	.loc	2 399 17                        @ rt-thread/src/ipc.c:399:17
	cbz	r0, .LBB6_30
	b	.LBB6_29
.LBB6_29:
.Ltmp104:
	.loc	2 401 24 is_stmt 1              @ rt-thread/src/ipc.c:401:24
	ldr	r0, [sp, #12]
	.loc	2 401 32 is_stmt 0              @ rt-thread/src/ipc.c:401:32
	ldr	r0, [r0, #48]
	.loc	2 401 17                        @ rt-thread/src/ipc.c:401:17
	str	r0, [sp, #28]
	b	.LBB6_37
.Ltmp105:
.LBB6_30:
	.loc	2 0 17                          @ rt-thread/src/ipc.c:0:17
	b	.LBB6_31
.LBB6_31:
	b	.LBB6_32
.LBB6_32:
	.loc	2 406 5 is_stmt 1               @ rt-thread/src/ipc.c:406:5
	b	.LBB6_33
.LBB6_33:
.Ltmp106:
	.loc	2 406 5 is_stmt 0               @ rt-thread/src/ipc.c:406:5
	movw	r0, :lower16:rt_object_take_hook
	movt	r0, :upper16:rt_object_take_hook
	ldr	r0, [r0]
.Ltmp107:
	.loc	2 406 5                         @ rt-thread/src/ipc.c:406:5
	cbz	r0, .LBB6_35
	b	.LBB6_34
.LBB6_34:
.Ltmp108:
	.loc	2 406 5                         @ rt-thread/src/ipc.c:406:5
	movw	r0, :lower16:rt_object_take_hook
	movt	r0, :upper16:rt_object_take_hook
	ldr	r1, [r0]
	ldr	r0, [sp, #24]
	blx	r1
	b	.LBB6_35
.Ltmp109:
.LBB6_35:
	.loc	2 406 5                         @ rt-thread/src/ipc.c:406:5
	b	.LBB6_36
.Ltmp110:
.LBB6_36:
	.loc	2 0 5                           @ rt-thread/src/ipc.c:0:5
	movs	r0, #0
	.loc	2 408 5 is_stmt 1               @ rt-thread/src/ipc.c:408:5
	str	r0, [sp, #28]
	b	.LBB6_37
.LBB6_37:
	.loc	2 409 1                         @ rt-thread/src/ipc.c:409:1
	ldr	r0, [sp, #28]
	add	sp, #32
	pop	{r7, pc}
.Ltmp111:
.Lfunc_end6:
	.size	rt_sem_take, .Lfunc_end6-rt_sem_take
	.cfi_endproc
	.cantunwind
	.fnend
                                        @ -- End function
	.section	.text.rt_ipc_list_suspend,"ax",%progbits
	.p2align	3                               @ -- Begin function rt_ipc_list_suspend
	.type	rt_ipc_list_suspend,%function
	.code	16                              @ @rt_ipc_list_suspend
	.thumb_func
rt_ipc_list_suspend:
.Lfunc_begin7:
	.loc	2 83 0                          @ rt-thread/src/ipc.c:83:0
	.fnstart
	.cfi_startproc
@ %bb.0:
	.save	{r7, lr}
	push	{r7, lr}
	.cfi_def_cfa_offset 8
	.cfi_offset lr, -4
	.cfi_offset r7, -8
	.pad	#24
	sub	sp, #24
	.cfi_def_cfa_offset 32
                                        @ kill: def $r3 killed $r2
	str	r0, [sp, #20]
	str	r1, [sp, #16]
	strb.w	r2, [sp, #15]
.Ltmp112:
	.loc	2 85 23 prologue_end            @ rt-thread/src/ipc.c:85:23
	ldr	r0, [sp, #16]
	.loc	2 85 5 is_stmt 0                @ rt-thread/src/ipc.c:85:5
	bl	rt_thread_suspend
	.loc	2 87 13 is_stmt 1               @ rt-thread/src/ipc.c:87:13
	ldrb.w	r0, [sp, #15]
	.loc	2 87 5 is_stmt 0                @ rt-thread/src/ipc.c:87:5
	mov	r1, r0
	str	r1, [sp]                        @ 4-byte Spill
	cbz	r0, .LBB7_2
	b	.LBB7_1
.LBB7_1:
	ldr	r0, [sp]                        @ 4-byte Reload
	cmp	r0, #1
	beq	.LBB7_3
	b	.LBB7_12
.LBB7_2:
.Ltmp113:
	.loc	2 90 31 is_stmt 1               @ rt-thread/src/ipc.c:90:31
	ldr	r0, [sp, #20]
	.loc	2 90 39 is_stmt 0               @ rt-thread/src/ipc.c:90:39
	ldr	r1, [sp, #16]
	.loc	2 90 47                         @ rt-thread/src/ipc.c:90:47
	adds	r1, #20
	.loc	2 90 9                          @ rt-thread/src/ipc.c:90:9
	bl	rt_list_insert_before
	.loc	2 91 9 is_stmt 1                @ rt-thread/src/ipc.c:91:9
	b	.LBB7_12
.LBB7_3:
.Ltmp114:
	.loc	2 99 22                         @ rt-thread/src/ipc.c:99:22
	ldr	r0, [sp, #20]
	.loc	2 99 28 is_stmt 0               @ rt-thread/src/ipc.c:99:28
	ldr	r0, [r0]
	.loc	2 99 20                         @ rt-thread/src/ipc.c:99:20
	str	r0, [sp, #8]
	.loc	2 99 18                         @ rt-thread/src/ipc.c:99:18
	b	.LBB7_4
.LBB7_4:                                @ =>This Inner Loop Header: Depth=1
.Ltmp115:
	.loc	2 99 34                         @ rt-thread/src/ipc.c:99:34
	ldr	r0, [sp, #8]
	.loc	2 99 39                         @ rt-thread/src/ipc.c:99:39
	ldr	r1, [sp, #20]
.Ltmp116:
	.loc	2 99 13                         @ rt-thread/src/ipc.c:99:13
	cmp	r0, r1
	beq	.LBB7_9
	b	.LBB7_5
.LBB7_5:                                @   in Loop: Header=BB7_4 Depth=1
.Ltmp117:
	.loc	2 101 27 is_stmt 1              @ rt-thread/src/ipc.c:101:27
	ldr	r0, [sp, #8]
	subs	r0, #20
	.loc	2 101 25 is_stmt 0              @ rt-thread/src/ipc.c:101:25
	str	r0, [sp, #4]
.Ltmp118:
	.loc	2 104 21 is_stmt 1              @ rt-thread/src/ipc.c:104:21
	ldr	r0, [sp, #16]
	.loc	2 104 29 is_stmt 0              @ rt-thread/src/ipc.c:104:29
	ldrb.w	r0, [r0, #53]
	.loc	2 104 48                        @ rt-thread/src/ipc.c:104:48
	ldr	r1, [sp, #4]
	.loc	2 104 57                        @ rt-thread/src/ipc.c:104:57
	ldrb.w	r1, [r1, #53]
.Ltmp119:
	.loc	2 104 21                        @ rt-thread/src/ipc.c:104:21
	cmp	r0, r1
	bge	.LBB7_7
	b	.LBB7_6
.LBB7_6:
.Ltmp120:
	.loc	2 107 45 is_stmt 1              @ rt-thread/src/ipc.c:107:45
	ldr	r0, [sp, #4]
	.loc	2 107 54 is_stmt 0              @ rt-thread/src/ipc.c:107:54
	adds	r0, #20
	.loc	2 107 64                        @ rt-thread/src/ipc.c:107:64
	ldr	r1, [sp, #16]
	.loc	2 107 72                        @ rt-thread/src/ipc.c:107:72
	adds	r1, #20
	.loc	2 107 21                        @ rt-thread/src/ipc.c:107:21
	bl	rt_list_insert_before
	.loc	2 108 21 is_stmt 1              @ rt-thread/src/ipc.c:108:21
	b	.LBB7_9
.Ltmp121:
.LBB7_7:                                @   in Loop: Header=BB7_4 Depth=1
	.loc	2 110 13                        @ rt-thread/src/ipc.c:110:13
	b	.LBB7_8
.Ltmp122:
.LBB7_8:                                @   in Loop: Header=BB7_4 Depth=1
	.loc	2 99 49                         @ rt-thread/src/ipc.c:99:49
	ldr	r0, [sp, #8]
	.loc	2 99 52 is_stmt 0               @ rt-thread/src/ipc.c:99:52
	ldr	r0, [r0]
	.loc	2 99 47                         @ rt-thread/src/ipc.c:99:47
	str	r0, [sp, #8]
	.loc	2 99 13                         @ rt-thread/src/ipc.c:99:13
	b	.LBB7_4
.Ltmp123:
.LBB7_9:
	.loc	2 116 17 is_stmt 1              @ rt-thread/src/ipc.c:116:17
	ldr	r0, [sp, #8]
	.loc	2 116 22 is_stmt 0              @ rt-thread/src/ipc.c:116:22
	ldr	r1, [sp, #20]
.Ltmp124:
	.loc	2 116 17                        @ rt-thread/src/ipc.c:116:17
	cmp	r0, r1
	bne	.LBB7_11
	b	.LBB7_10
.LBB7_10:
.Ltmp125:
	.loc	2 117 39 is_stmt 1              @ rt-thread/src/ipc.c:117:39
	ldr	r0, [sp, #20]
	.loc	2 117 47 is_stmt 0              @ rt-thread/src/ipc.c:117:47
	ldr	r1, [sp, #16]
	.loc	2 117 55                        @ rt-thread/src/ipc.c:117:55
	adds	r1, #20
	.loc	2 117 17                        @ rt-thread/src/ipc.c:117:17
	bl	rt_list_insert_before
	b	.LBB7_11
.Ltmp126:
.LBB7_11:
	.loc	2 119 9 is_stmt 1               @ rt-thread/src/ipc.c:119:9
	b	.LBB7_12
.Ltmp127:
.LBB7_12:
	.loc	2 0 9 is_stmt 0                 @ rt-thread/src/ipc.c:0:9
	movs	r0, #0
	.loc	2 122 5 is_stmt 1               @ rt-thread/src/ipc.c:122:5
	add	sp, #24
	pop	{r7, pc}
.Ltmp128:
.Lfunc_end7:
	.size	rt_ipc_list_suspend, .Lfunc_end7-rt_ipc_list_suspend
	.cfi_endproc
	.cantunwind
	.fnend
                                        @ -- End function
	.section	.text.rt_sem_trytake,"ax",%progbits
	.hidden	rt_sem_trytake                  @ -- Begin function rt_sem_trytake
	.globl	rt_sem_trytake
	.p2align	3
	.type	rt_sem_trytake,%function
	.code	16                              @ @rt_sem_trytake
	.thumb_func
rt_sem_trytake:
.Lfunc_begin8:
	.loc	2 420 0                         @ rt-thread/src/ipc.c:420:0
	.fnstart
	.cfi_startproc
@ %bb.0:
	.save	{r7, lr}
	push	{r7, lr}
	.cfi_def_cfa_offset 8
	.cfi_offset lr, -4
	.cfi_offset r7, -8
	.pad	#8
	sub	sp, #8
	.cfi_def_cfa_offset 16
	str	r0, [sp, #4]
.Ltmp129:
	.loc	2 421 24 prologue_end           @ rt-thread/src/ipc.c:421:24
	ldr	r0, [sp, #4]
	movs	r1, #0
	.loc	2 421 12 is_stmt 0              @ rt-thread/src/ipc.c:421:12
	bl	rt_sem_take
	.loc	2 421 5                         @ rt-thread/src/ipc.c:421:5
	add	sp, #8
	pop	{r7, pc}
.Ltmp130:
.Lfunc_end8:
	.size	rt_sem_trytake, .Lfunc_end8-rt_sem_trytake
	.cfi_endproc
	.cantunwind
	.fnend
                                        @ -- End function
	.section	.text.rt_sem_release,"ax",%progbits
	.hidden	rt_sem_release                  @ -- Begin function rt_sem_release
	.globl	rt_sem_release
	.p2align	3
	.type	rt_sem_release,%function
	.code	16                              @ @rt_sem_release
	.thumb_func
rt_sem_release:
.Lfunc_begin9:
	.loc	2 434 0 is_stmt 1               @ rt-thread/src/ipc.c:434:0
	.fnstart
	.cfi_startproc
@ %bb.0:
	.save	{r7, lr}
	push	{r7, lr}
	.cfi_def_cfa_offset 8
	.cfi_offset lr, -4
	.cfi_offset r7, -8
	.pad	#16
	sub	sp, #16
	.cfi_def_cfa_offset 24
	str	r0, [sp, #12]
.Ltmp131:
	.loc	2 439 5 prologue_end            @ rt-thread/src/ipc.c:439:5
	ldr	r0, [sp, #12]
.Ltmp132:
	.loc	2 439 5 is_stmt 0               @ rt-thread/src/ipc.c:439:5
	cbnz	r0, .LBB9_2
	b	.LBB9_1
.LBB9_1:
.Ltmp133:
	.loc	2 439 5                         @ rt-thread/src/ipc.c:439:5
	movw	r0, :lower16:.L.str
	movt	r0, :upper16:.L.str
	movw	r1, :lower16:.L__FUNCTION__.rt_sem_release
	movt	r1, :upper16:.L__FUNCTION__.rt_sem_release
	movw	r2, #439
	bl	rt_assert_handler
	b	.LBB9_2
.Ltmp134:
.LBB9_2:
	.loc	2 440 5 is_stmt 1               @ rt-thread/src/ipc.c:440:5
	ldr	r0, [sp, #12]
	bl	rt_object_get_type
.Ltmp135:
	.loc	2 440 5 is_stmt 0               @ rt-thread/src/ipc.c:440:5
	cmp	r0, #2
	beq	.LBB9_4
	b	.LBB9_3
.LBB9_3:
.Ltmp136:
	.loc	2 440 5                         @ rt-thread/src/ipc.c:440:5
	movw	r0, :lower16:.L.str.2
	movt	r0, :upper16:.L.str.2
	movw	r1, :lower16:.L__FUNCTION__.rt_sem_release
	movt	r1, :upper16:.L__FUNCTION__.rt_sem_release
	mov.w	r2, #440
	bl	rt_assert_handler
	b	.LBB9_4
.Ltmp137:
.LBB9_4:
	.loc	2 442 5 is_stmt 1               @ rt-thread/src/ipc.c:442:5
	b	.LBB9_5
.LBB9_5:
.Ltmp138:
	.loc	2 442 5 is_stmt 0               @ rt-thread/src/ipc.c:442:5
	movw	r0, :lower16:rt_object_put_hook
	movt	r0, :upper16:rt_object_put_hook
	ldr	r0, [r0]
.Ltmp139:
	.loc	2 442 5                         @ rt-thread/src/ipc.c:442:5
	cbz	r0, .LBB9_7
	b	.LBB9_6
.LBB9_6:
.Ltmp140:
	.loc	2 442 5                         @ rt-thread/src/ipc.c:442:5
	movw	r0, :lower16:rt_object_put_hook
	movt	r0, :upper16:rt_object_put_hook
	ldr	r1, [r0]
	ldr	r0, [sp, #12]
	blx	r1
	b	.LBB9_7
.Ltmp141:
.LBB9_7:
	.loc	2 442 5                         @ rt-thread/src/ipc.c:442:5
	b	.LBB9_8
.Ltmp142:
.LBB9_8:
	.loc	2 0 5                           @ rt-thread/src/ipc.c:0:5
	movs	r0, #0
	.loc	2 444 19 is_stmt 1              @ rt-thread/src/ipc.c:444:19
	str	r0, [sp, #4]
	.loc	2 447 12                        @ rt-thread/src/ipc.c:447:12
	bl	rt_hw_interrupt_disable
	.loc	2 447 10 is_stmt 0              @ rt-thread/src/ipc.c:447:10
	str	r0, [sp, #8]
	.loc	2 449 5 is_stmt 1               @ rt-thread/src/ipc.c:449:5
	b	.LBB9_9
.LBB9_9:
.Ltmp143:
	.loc	2 449 5 is_stmt 0               @ rt-thread/src/ipc.c:449:5
	b	.LBB9_10
.Ltmp144:
.LBB9_10:
	.loc	2 454 27 is_stmt 1              @ rt-thread/src/ipc.c:454:27
	ldr	r0, [sp, #12]
	.loc	2 454 39 is_stmt 0              @ rt-thread/src/ipc.c:454:39
	adds	r0, #20
	.loc	2 454 10                        @ rt-thread/src/ipc.c:454:10
	bl	rt_list_isempty
.Ltmp145:
	.loc	2 454 9                         @ rt-thread/src/ipc.c:454:9
	cbnz	r0, .LBB9_12
	b	.LBB9_11
.LBB9_11:
.Ltmp146:
	.loc	2 457 30 is_stmt 1              @ rt-thread/src/ipc.c:457:30
	ldr	r0, [sp, #12]
	.loc	2 457 42 is_stmt 0              @ rt-thread/src/ipc.c:457:42
	adds	r0, #20
	.loc	2 457 9                         @ rt-thread/src/ipc.c:457:9
	bl	rt_ipc_list_resume
	movs	r0, #1
	.loc	2 458 23 is_stmt 1              @ rt-thread/src/ipc.c:458:23
	str	r0, [sp, #4]
	.loc	2 459 5                         @ rt-thread/src/ipc.c:459:5
	b	.LBB9_13
.Ltmp147:
.LBB9_12:
	.loc	2 461 9                         @ rt-thread/src/ipc.c:461:9
	ldr	r1, [sp, #12]
	.loc	2 461 20 is_stmt 0              @ rt-thread/src/ipc.c:461:20
	ldrh	r0, [r1, #28]
	adds	r0, #1
	strh	r0, [r1, #28]
	b	.LBB9_13
.Ltmp148:
.LBB9_13:
	.loc	2 464 28 is_stmt 1              @ rt-thread/src/ipc.c:464:28
	ldr	r0, [sp, #8]
	.loc	2 464 5 is_stmt 0               @ rt-thread/src/ipc.c:464:5
	bl	rt_hw_interrupt_enable
.Ltmp149:
	.loc	2 467 9 is_stmt 1               @ rt-thread/src/ipc.c:467:9
	ldr	r0, [sp, #4]
.Ltmp150:
	.loc	2 467 9 is_stmt 0               @ rt-thread/src/ipc.c:467:9
	cmp	r0, #1
	bne	.LBB9_15
	b	.LBB9_14
.LBB9_14:
.Ltmp151:
	.loc	2 468 9 is_stmt 1               @ rt-thread/src/ipc.c:468:9
	bl	rt_schedule
	b	.LBB9_15
.Ltmp152:
.LBB9_15:
	.loc	2 0 9 is_stmt 0                 @ rt-thread/src/ipc.c:0:9
	movs	r0, #0
	.loc	2 470 5 is_stmt 1               @ rt-thread/src/ipc.c:470:5
	add	sp, #16
	pop	{r7, pc}
.Ltmp153:
.Lfunc_end9:
	.size	rt_sem_release, .Lfunc_end9-rt_sem_release
	.cfi_endproc
	.cantunwind
	.fnend
                                        @ -- End function
	.section	.text.rt_list_isempty,"ax",%progbits
	.p2align	3                               @ -- Begin function rt_list_isempty
	.type	rt_list_isempty,%function
	.code	16                              @ @rt_list_isempty
	.thumb_func
rt_list_isempty:
.Lfunc_begin10:
	.file	3 "E:\\Smart-access-control\\Hardware\\CODE" "rt-thread/include\\rtservice.h"
	.loc	3 99 0                          @ rt-thread/include\rtservice.h:99:0
	.fnstart
	.cfi_startproc
@ %bb.0:
	.pad	#4
	sub	sp, #4
	.cfi_def_cfa_offset 4
	str	r0, [sp]
.Ltmp154:
	.loc	3 100 12 prologue_end           @ rt-thread/include\rtservice.h:100:12
	ldr	r1, [sp]
	.loc	3 100 15 is_stmt 0              @ rt-thread/include\rtservice.h:100:15
	ldr	r0, [r1]
	.loc	3 100 20                        @ rt-thread/include\rtservice.h:100:20
	subs	r0, r0, r1
	clz	r0, r0
	lsrs	r0, r0, #5
	.loc	3 100 5                         @ rt-thread/include\rtservice.h:100:5
	add	sp, #4
	bx	lr
.Ltmp155:
.Lfunc_end10:
	.size	rt_list_isempty, .Lfunc_end10-rt_list_isempty
	.cfi_endproc
	.cantunwind
	.fnend
                                        @ -- End function
	.section	.text.rt_ipc_list_resume,"ax",%progbits
	.p2align	3                               @ -- Begin function rt_ipc_list_resume
	.type	rt_ipc_list_resume,%function
	.code	16                              @ @rt_ipc_list_resume
	.thumb_func
rt_ipc_list_resume:
.Lfunc_begin11:
	.loc	2 135 0 is_stmt 1               @ rt-thread/src/ipc.c:135:0
	.fnstart
	.cfi_startproc
@ %bb.0:
	.save	{r7, lr}
	push	{r7, lr}
	.cfi_def_cfa_offset 8
	.cfi_offset lr, -4
	.cfi_offset r7, -8
	.pad	#8
	sub	sp, #8
	.cfi_def_cfa_offset 16
	str	r0, [sp, #4]
.Ltmp156:
	.loc	2 139 14 prologue_end           @ rt-thread/src/ipc.c:139:14
	ldr	r0, [sp, #4]
	ldr	r0, [r0]
	subs	r0, #20
	.loc	2 139 12 is_stmt 0              @ rt-thread/src/ipc.c:139:12
	str	r0, [sp]
	.loc	2 141 5 is_stmt 1               @ rt-thread/src/ipc.c:141:5
	b	.LBB11_1
.LBB11_1:
.Ltmp157:
	.loc	2 141 5 is_stmt 0               @ rt-thread/src/ipc.c:141:5
	b	.LBB11_2
.Ltmp158:
.LBB11_2:
	.loc	2 144 22 is_stmt 1              @ rt-thread/src/ipc.c:144:22
	ldr	r0, [sp]
	.loc	2 144 5 is_stmt 0               @ rt-thread/src/ipc.c:144:5
	bl	rt_thread_resume
	movs	r0, #0
	.loc	2 146 5 is_stmt 1               @ rt-thread/src/ipc.c:146:5
	add	sp, #8
	pop	{r7, pc}
.Ltmp159:
.Lfunc_end11:
	.size	rt_ipc_list_resume, .Lfunc_end11-rt_ipc_list_resume
	.cfi_endproc
	.cantunwind
	.fnend
                                        @ -- End function
	.section	.text.rt_sem_control,"ax",%progbits
	.hidden	rt_sem_control                  @ -- Begin function rt_sem_control
	.globl	rt_sem_control
	.p2align	3
	.type	rt_sem_control,%function
	.code	16                              @ @rt_sem_control
	.thumb_func
rt_sem_control:
.Lfunc_begin12:
	.loc	2 484 0                         @ rt-thread/src/ipc.c:484:0
	.fnstart
	.cfi_startproc
@ %bb.0:
	.save	{r7, lr}
	push	{r7, lr}
	.cfi_def_cfa_offset 8
	.cfi_offset lr, -4
	.cfi_offset r7, -8
	.pad	#24
	sub	sp, #24
	.cfi_def_cfa_offset 32
	str	r0, [sp, #16]
	str	r1, [sp, #12]
	str	r2, [sp, #8]
.Ltmp160:
	.loc	2 488 5 prologue_end            @ rt-thread/src/ipc.c:488:5
	ldr	r0, [sp, #16]
.Ltmp161:
	.loc	2 488 5 is_stmt 0               @ rt-thread/src/ipc.c:488:5
	cbnz	r0, .LBB12_2
	b	.LBB12_1
.LBB12_1:
.Ltmp162:
	.loc	2 488 5                         @ rt-thread/src/ipc.c:488:5
	movw	r0, :lower16:.L.str
	movt	r0, :upper16:.L.str
	movw	r1, :lower16:.L__FUNCTION__.rt_sem_control
	movt	r1, :upper16:.L__FUNCTION__.rt_sem_control
	mov.w	r2, #488
	bl	rt_assert_handler
	b	.LBB12_2
.Ltmp163:
.LBB12_2:
	.loc	2 489 5 is_stmt 1               @ rt-thread/src/ipc.c:489:5
	ldr	r0, [sp, #16]
	bl	rt_object_get_type
.Ltmp164:
	.loc	2 489 5 is_stmt 0               @ rt-thread/src/ipc.c:489:5
	cmp	r0, #2
	beq	.LBB12_4
	b	.LBB12_3
.LBB12_3:
.Ltmp165:
	.loc	2 489 5                         @ rt-thread/src/ipc.c:489:5
	movw	r0, :lower16:.L.str.2
	movt	r0, :upper16:.L.str.2
	movw	r1, :lower16:.L__FUNCTION__.rt_sem_control
	movt	r1, :upper16:.L__FUNCTION__.rt_sem_control
	movw	r2, #489
	bl	rt_assert_handler
	b	.LBB12_4
.Ltmp166:
.LBB12_4:
	.loc	2 491 9 is_stmt 1               @ rt-thread/src/ipc.c:491:9
	ldr	r0, [sp, #12]
.Ltmp167:
	.loc	2 491 9 is_stmt 0               @ rt-thread/src/ipc.c:491:9
	cmp	r0, #1
	bne	.LBB12_6
	b	.LBB12_5
.LBB12_5:
.Ltmp168:
	.loc	2 496 29 is_stmt 1              @ rt-thread/src/ipc.c:496:29
	ldr	r0, [sp, #8]
	.loc	2 496 15 is_stmt 0              @ rt-thread/src/ipc.c:496:15
	str	r0, [sp]
	.loc	2 498 17 is_stmt 1              @ rt-thread/src/ipc.c:498:17
	bl	rt_hw_interrupt_disable
	.loc	2 498 15 is_stmt 0              @ rt-thread/src/ipc.c:498:15
	str	r0, [sp, #4]
	.loc	2 501 33 is_stmt 1              @ rt-thread/src/ipc.c:501:33
	ldr	r0, [sp, #16]
	.loc	2 501 45 is_stmt 0              @ rt-thread/src/ipc.c:501:45
	adds	r0, #20
	.loc	2 501 9                         @ rt-thread/src/ipc.c:501:9
	bl	rt_ipc_list_resume_all
	.loc	2 504 35 is_stmt 1              @ rt-thread/src/ipc.c:504:35
	ldr	r0, [sp]
	.loc	2 504 9 is_stmt 0               @ rt-thread/src/ipc.c:504:9
	ldr	r1, [sp, #16]
	.loc	2 504 20                        @ rt-thread/src/ipc.c:504:20
	strh	r0, [r1, #28]
	.loc	2 507 32 is_stmt 1              @ rt-thread/src/ipc.c:507:32
	ldr	r0, [sp, #4]
	.loc	2 507 9 is_stmt 0               @ rt-thread/src/ipc.c:507:9
	bl	rt_hw_interrupt_enable
	.loc	2 509 9 is_stmt 1               @ rt-thread/src/ipc.c:509:9
	bl	rt_schedule
	movs	r0, #0
	.loc	2 511 9                         @ rt-thread/src/ipc.c:511:9
	str	r0, [sp, #20]
	b	.LBB12_7
.Ltmp169:
.LBB12_6:
	.loc	2 0 9 is_stmt 0                 @ rt-thread/src/ipc.c:0:9
	mov.w	r0, #-1
	.loc	2 514 5 is_stmt 1               @ rt-thread/src/ipc.c:514:5
	str	r0, [sp, #20]
	b	.LBB12_7
.LBB12_7:
	.loc	2 515 1                         @ rt-thread/src/ipc.c:515:1
	ldr	r0, [sp, #20]
	add	sp, #24
	pop	{r7, pc}
.Ltmp170:
.Lfunc_end12:
	.size	rt_sem_control, .Lfunc_end12-rt_sem_control
	.cfi_endproc
	.cantunwind
	.fnend
                                        @ -- End function
	.section	.text.rt_mutex_init,"ax",%progbits
	.hidden	rt_mutex_init                   @ -- Begin function rt_mutex_init
	.globl	rt_mutex_init
	.p2align	3
	.type	rt_mutex_init,%function
	.code	16                              @ @rt_mutex_init
	.thumb_func
rt_mutex_init:
.Lfunc_begin13:
	.loc	2 531 0                         @ rt-thread/src/ipc.c:531:0
	.fnstart
	.cfi_startproc
@ %bb.0:
	.save	{r7, lr}
	push	{r7, lr}
	.cfi_def_cfa_offset 8
	.cfi_offset lr, -4
	.cfi_offset r7, -8
	.pad	#16
	sub	sp, #16
	.cfi_def_cfa_offset 24
                                        @ kill: def $r3 killed $r2
	str	r0, [sp, #12]
	str	r1, [sp, #8]
	strb.w	r2, [sp, #7]
.Ltmp171:
	.loc	2 533 5 prologue_end            @ rt-thread/src/ipc.c:533:5
	ldr	r0, [sp, #12]
.Ltmp172:
	.loc	2 533 5 is_stmt 0               @ rt-thread/src/ipc.c:533:5
	cbnz	r0, .LBB13_2
	b	.LBB13_1
.LBB13_1:
.Ltmp173:
	.loc	2 533 5                         @ rt-thread/src/ipc.c:533:5
	movw	r0, :lower16:.L.str.7
	movt	r0, :upper16:.L.str.7
	movw	r1, :lower16:.L__FUNCTION__.rt_mutex_init
	movt	r1, :upper16:.L__FUNCTION__.rt_mutex_init
	movw	r2, #533
	bl	rt_assert_handler
	b	.LBB13_2
.Ltmp174:
.LBB13_2:
	.loc	2 536 22 is_stmt 1              @ rt-thread/src/ipc.c:536:22
	ldr	r0, [sp, #12]
	.loc	2 536 68 is_stmt 0              @ rt-thread/src/ipc.c:536:68
	ldr	r2, [sp, #8]
	movs	r1, #3
	.loc	2 536 5                         @ rt-thread/src/ipc.c:536:5
	bl	rt_object_init
	.loc	2 539 26 is_stmt 1              @ rt-thread/src/ipc.c:539:26
	ldr	r0, [sp, #12]
	.loc	2 539 5 is_stmt 0               @ rt-thread/src/ipc.c:539:5
	bl	rt_ipc_object_init
	.loc	2 541 5 is_stmt 1               @ rt-thread/src/ipc.c:541:5
	ldr	r1, [sp, #12]
	movs	r0, #1
	.loc	2 541 18 is_stmt 0              @ rt-thread/src/ipc.c:541:18
	strh	r0, [r1, #28]
	.loc	2 542 5 is_stmt 1               @ rt-thread/src/ipc.c:542:5
	ldr	r1, [sp, #12]
	movs	r0, #0
	.loc	2 542 18 is_stmt 0              @ rt-thread/src/ipc.c:542:18
	str	r0, [r1, #32]
	.loc	2 543 5 is_stmt 1               @ rt-thread/src/ipc.c:543:5
	ldr	r2, [sp, #12]
	movs	r1, #255
	.loc	2 543 30 is_stmt 0              @ rt-thread/src/ipc.c:543:30
	strb	r1, [r2, #30]
	.loc	2 544 5 is_stmt 1               @ rt-thread/src/ipc.c:544:5
	ldr	r1, [sp, #12]
	.loc	2 544 18 is_stmt 0              @ rt-thread/src/ipc.c:544:18
	strb	r0, [r1, #31]
	.loc	2 547 33 is_stmt 1              @ rt-thread/src/ipc.c:547:33
	ldrb.w	r1, [sp, #7]
	.loc	2 547 5 is_stmt 0               @ rt-thread/src/ipc.c:547:5
	ldr	r2, [sp, #12]
	.loc	2 547 31                        @ rt-thread/src/ipc.c:547:31
	strb	r1, [r2, #9]
	.loc	2 549 5 is_stmt 1               @ rt-thread/src/ipc.c:549:5
	add	sp, #16
	pop	{r7, pc}
.Ltmp175:
.Lfunc_end13:
	.size	rt_mutex_init, .Lfunc_end13-rt_mutex_init
	.cfi_endproc
	.cantunwind
	.fnend
                                        @ -- End function
	.section	.text.rt_mutex_detach,"ax",%progbits
	.hidden	rt_mutex_detach                 @ -- Begin function rt_mutex_detach
	.globl	rt_mutex_detach
	.p2align	3
	.type	rt_mutex_detach,%function
	.code	16                              @ @rt_mutex_detach
	.thumb_func
rt_mutex_detach:
.Lfunc_begin14:
	.loc	2 563 0                         @ rt-thread/src/ipc.c:563:0
	.fnstart
	.cfi_startproc
@ %bb.0:
	.save	{r7, lr}
	push	{r7, lr}
	.cfi_def_cfa_offset 8
	.cfi_offset lr, -4
	.cfi_offset r7, -8
	.pad	#8
	sub	sp, #8
	.cfi_def_cfa_offset 16
	str	r0, [sp, #4]
.Ltmp176:
	.loc	2 565 5 prologue_end            @ rt-thread/src/ipc.c:565:5
	ldr	r0, [sp, #4]
.Ltmp177:
	.loc	2 565 5 is_stmt 0               @ rt-thread/src/ipc.c:565:5
	cbnz	r0, .LBB14_2
	b	.LBB14_1
.LBB14_1:
.Ltmp178:
	.loc	2 565 5                         @ rt-thread/src/ipc.c:565:5
	movw	r0, :lower16:.L.str.7
	movt	r0, :upper16:.L.str.7
	movw	r1, :lower16:.L__FUNCTION__.rt_mutex_detach
	movt	r1, :upper16:.L__FUNCTION__.rt_mutex_detach
	movw	r2, #565
	bl	rt_assert_handler
	b	.LBB14_2
.Ltmp179:
.LBB14_2:
	.loc	2 566 5 is_stmt 1               @ rt-thread/src/ipc.c:566:5
	ldr	r0, [sp, #4]
	bl	rt_object_get_type
.Ltmp180:
	.loc	2 566 5 is_stmt 0               @ rt-thread/src/ipc.c:566:5
	cmp	r0, #3
	beq	.LBB14_4
	b	.LBB14_3
.LBB14_3:
.Ltmp181:
	.loc	2 566 5                         @ rt-thread/src/ipc.c:566:5
	movw	r0, :lower16:.L.str.8
	movt	r0, :upper16:.L.str.8
	movw	r1, :lower16:.L__FUNCTION__.rt_mutex_detach
	movt	r1, :upper16:.L__FUNCTION__.rt_mutex_detach
	movw	r2, #566
	bl	rt_assert_handler
	b	.LBB14_4
.Ltmp182:
.LBB14_4:
	.loc	2 567 5 is_stmt 1               @ rt-thread/src/ipc.c:567:5
	ldr	r0, [sp, #4]
	bl	rt_object_is_systemobject
.Ltmp183:
	.loc	2 567 5 is_stmt 0               @ rt-thread/src/ipc.c:567:5
	cbnz	r0, .LBB14_6
	b	.LBB14_5
.LBB14_5:
.Ltmp184:
	.loc	2 567 5                         @ rt-thread/src/ipc.c:567:5
	movw	r0, :lower16:.L.str.9
	movt	r0, :upper16:.L.str.9
	movw	r1, :lower16:.L__FUNCTION__.rt_mutex_detach
	movt	r1, :upper16:.L__FUNCTION__.rt_mutex_detach
	movw	r2, #567
	bl	rt_assert_handler
	b	.LBB14_6
.Ltmp185:
.LBB14_6:
	.loc	2 570 30 is_stmt 1              @ rt-thread/src/ipc.c:570:30
	ldr	r0, [sp, #4]
	.loc	2 570 44 is_stmt 0              @ rt-thread/src/ipc.c:570:44
	adds	r0, #20
	.loc	2 570 5                         @ rt-thread/src/ipc.c:570:5
	bl	rt_ipc_list_resume_all
	.loc	2 573 24 is_stmt 1              @ rt-thread/src/ipc.c:573:24
	ldr	r0, [sp, #4]
	.loc	2 573 5 is_stmt 0               @ rt-thread/src/ipc.c:573:5
	bl	rt_object_detach
	movs	r0, #0
	.loc	2 575 5 is_stmt 1               @ rt-thread/src/ipc.c:575:5
	add	sp, #8
	pop	{r7, pc}
.Ltmp186:
.Lfunc_end14:
	.size	rt_mutex_detach, .Lfunc_end14-rt_mutex_detach
	.cfi_endproc
	.cantunwind
	.fnend
                                        @ -- End function
	.section	.text.rt_mutex_create,"ax",%progbits
	.hidden	rt_mutex_create                 @ -- Begin function rt_mutex_create
	.globl	rt_mutex_create
	.p2align	3
	.type	rt_mutex_create,%function
	.code	16                              @ @rt_mutex_create
	.thumb_func
rt_mutex_create:
.Lfunc_begin15:
	.loc	2 591 0                         @ rt-thread/src/ipc.c:591:0
	.fnstart
	.cfi_startproc
@ %bb.0:
	.save	{r7, lr}
	push	{r7, lr}
	.cfi_def_cfa_offset 8
	.cfi_offset lr, -4
	.cfi_offset r7, -8
	.pad	#24
	sub	sp, #24
	.cfi_def_cfa_offset 32
                                        @ kill: def $r2 killed $r1
	str	r0, [sp, #16]
	strb.w	r1, [sp, #15]
.Ltmp187:
	.loc	2 594 5 prologue_end            @ rt-thread/src/ipc.c:594:5
	b	.LBB15_1
.LBB15_1:
.Ltmp188:
	.loc	2 594 5 is_stmt 0               @ rt-thread/src/ipc.c:594:5
	bl	rt_hw_interrupt_disable
	str	r0, [sp, #4]
.Ltmp189:
	.loc	2 594 5                         @ rt-thread/src/ipc.c:594:5
	bl	rt_interrupt_get_nest
.Ltmp190:
	.loc	2 594 5                         @ rt-thread/src/ipc.c:594:5
	cbz	r0, .LBB15_3
	b	.LBB15_2
.LBB15_2:
.Ltmp191:
	.loc	2 594 5                         @ rt-thread/src/ipc.c:594:5
	movw	r0, :lower16:.L.str.4
	movt	r0, :upper16:.L.str.4
	movw	r1, :lower16:.L__FUNCTION__.rt_mutex_create
	movt	r1, :upper16:.L__FUNCTION__.rt_mutex_create
	movw	r2, #594
	bl	rt_assert_handler
.Ltmp192:
	.loc	2 594 5                         @ rt-thread/src/ipc.c:594:5
	b	.LBB15_3
.Ltmp193:
.LBB15_3:
	.loc	2 594 5                         @ rt-thread/src/ipc.c:594:5
	ldr	r0, [sp, #4]
	bl	rt_hw_interrupt_enable
	b	.LBB15_4
.Ltmp194:
.LBB15_4:
	.loc	2 597 67 is_stmt 1              @ rt-thread/src/ipc.c:597:67
	ldr	r1, [sp, #16]
	movs	r0, #3
	.loc	2 597 25 is_stmt 0              @ rt-thread/src/ipc.c:597:25
	bl	rt_object_allocate
	.loc	2 597 11                        @ rt-thread/src/ipc.c:597:11
	str	r0, [sp, #8]
.Ltmp195:
	.loc	2 598 9 is_stmt 1               @ rt-thread/src/ipc.c:598:9
	ldr	r0, [sp, #8]
.Ltmp196:
	.loc	2 598 9 is_stmt 0               @ rt-thread/src/ipc.c:598:9
	cbnz	r0, .LBB15_6
	b	.LBB15_5
.LBB15_5:
.Ltmp197:
	.loc	2 599 16 is_stmt 1              @ rt-thread/src/ipc.c:599:16
	ldr	r0, [sp, #8]
	.loc	2 599 9 is_stmt 0               @ rt-thread/src/ipc.c:599:9
	str	r0, [sp, #20]
	b	.LBB15_7
.Ltmp198:
.LBB15_6:
	.loc	2 602 26 is_stmt 1              @ rt-thread/src/ipc.c:602:26
	ldr	r0, [sp, #8]
	.loc	2 602 5 is_stmt 0               @ rt-thread/src/ipc.c:602:5
	bl	rt_ipc_object_init
	.loc	2 604 5 is_stmt 1               @ rt-thread/src/ipc.c:604:5
	ldr	r1, [sp, #8]
	movs	r0, #1
	.loc	2 604 31 is_stmt 0              @ rt-thread/src/ipc.c:604:31
	strh	r0, [r1, #28]
	.loc	2 605 5 is_stmt 1               @ rt-thread/src/ipc.c:605:5
	ldr	r1, [sp, #8]
	movs	r0, #0
	.loc	2 605 31 is_stmt 0              @ rt-thread/src/ipc.c:605:31
	str	r0, [r1, #32]
	.loc	2 606 5 is_stmt 1               @ rt-thread/src/ipc.c:606:5
	ldr	r2, [sp, #8]
	movs	r1, #255
	.loc	2 606 31 is_stmt 0              @ rt-thread/src/ipc.c:606:31
	strb	r1, [r2, #30]
	.loc	2 607 5 is_stmt 1               @ rt-thread/src/ipc.c:607:5
	ldr	r1, [sp, #8]
	.loc	2 607 31 is_stmt 0              @ rt-thread/src/ipc.c:607:31
	strb	r0, [r1, #31]
	.loc	2 610 33 is_stmt 1              @ rt-thread/src/ipc.c:610:33
	ldrb.w	r0, [sp, #15]
	.loc	2 610 5 is_stmt 0               @ rt-thread/src/ipc.c:610:5
	ldr	r1, [sp, #8]
	.loc	2 610 31                        @ rt-thread/src/ipc.c:610:31
	strb	r0, [r1, #9]
	.loc	2 612 12 is_stmt 1              @ rt-thread/src/ipc.c:612:12
	ldr	r0, [sp, #8]
	.loc	2 612 5 is_stmt 0               @ rt-thread/src/ipc.c:612:5
	str	r0, [sp, #20]
	b	.LBB15_7
.LBB15_7:
	.loc	2 613 1 is_stmt 1               @ rt-thread/src/ipc.c:613:1
	ldr	r0, [sp, #20]
	add	sp, #24
	pop	{r7, pc}
.Ltmp199:
.Lfunc_end15:
	.size	rt_mutex_create, .Lfunc_end15-rt_mutex_create
	.cfi_endproc
	.cantunwind
	.fnend
                                        @ -- End function
	.section	.text.rt_mutex_delete,"ax",%progbits
	.hidden	rt_mutex_delete                 @ -- Begin function rt_mutex_delete
	.globl	rt_mutex_delete
	.p2align	3
	.type	rt_mutex_delete,%function
	.code	16                              @ @rt_mutex_delete
	.thumb_func
rt_mutex_delete:
.Lfunc_begin16:
	.loc	2 626 0                         @ rt-thread/src/ipc.c:626:0
	.fnstart
	.cfi_startproc
@ %bb.0:
	.save	{r7, lr}
	push	{r7, lr}
	.cfi_def_cfa_offset 8
	.cfi_offset lr, -4
	.cfi_offset r7, -8
	.pad	#8
	sub	sp, #8
	.cfi_def_cfa_offset 16
	str	r0, [sp, #4]
.Ltmp200:
	.loc	2 627 5 prologue_end            @ rt-thread/src/ipc.c:627:5
	b	.LBB16_1
.LBB16_1:
.Ltmp201:
	.loc	2 627 5 is_stmt 0               @ rt-thread/src/ipc.c:627:5
	bl	rt_hw_interrupt_disable
	str	r0, [sp]
.Ltmp202:
	.loc	2 627 5                         @ rt-thread/src/ipc.c:627:5
	bl	rt_interrupt_get_nest
.Ltmp203:
	.loc	2 627 5                         @ rt-thread/src/ipc.c:627:5
	cbz	r0, .LBB16_3
	b	.LBB16_2
.LBB16_2:
.Ltmp204:
	.loc	2 627 5                         @ rt-thread/src/ipc.c:627:5
	movw	r0, :lower16:.L.str.4
	movt	r0, :upper16:.L.str.4
	movw	r1, :lower16:.L__FUNCTION__.rt_mutex_delete
	movt	r1, :upper16:.L__FUNCTION__.rt_mutex_delete
	movw	r2, #627
	bl	rt_assert_handler
.Ltmp205:
	.loc	2 627 5                         @ rt-thread/src/ipc.c:627:5
	b	.LBB16_3
.Ltmp206:
.LBB16_3:
	.loc	2 627 5                         @ rt-thread/src/ipc.c:627:5
	ldr	r0, [sp]
	bl	rt_hw_interrupt_enable
	b	.LBB16_4
.Ltmp207:
.LBB16_4:
	.loc	2 630 5 is_stmt 1               @ rt-thread/src/ipc.c:630:5
	ldr	r0, [sp, #4]
.Ltmp208:
	.loc	2 630 5 is_stmt 0               @ rt-thread/src/ipc.c:630:5
	cbnz	r0, .LBB16_6
	b	.LBB16_5
.LBB16_5:
.Ltmp209:
	.loc	2 630 5                         @ rt-thread/src/ipc.c:630:5
	movw	r0, :lower16:.L.str.7
	movt	r0, :upper16:.L.str.7
	movw	r1, :lower16:.L__FUNCTION__.rt_mutex_delete
	movt	r1, :upper16:.L__FUNCTION__.rt_mutex_delete
	movw	r2, #630
	bl	rt_assert_handler
	b	.LBB16_6
.Ltmp210:
.LBB16_6:
	.loc	2 631 5 is_stmt 1               @ rt-thread/src/ipc.c:631:5
	ldr	r0, [sp, #4]
	bl	rt_object_get_type
.Ltmp211:
	.loc	2 631 5 is_stmt 0               @ rt-thread/src/ipc.c:631:5
	cmp	r0, #3
	beq	.LBB16_8
	b	.LBB16_7
.LBB16_7:
.Ltmp212:
	.loc	2 631 5                         @ rt-thread/src/ipc.c:631:5
	movw	r0, :lower16:.L.str.8
	movt	r0, :upper16:.L.str.8
	movw	r1, :lower16:.L__FUNCTION__.rt_mutex_delete
	movt	r1, :upper16:.L__FUNCTION__.rt_mutex_delete
	movw	r2, #631
	bl	rt_assert_handler
	b	.LBB16_8
.Ltmp213:
.LBB16_8:
	.loc	2 632 5 is_stmt 1               @ rt-thread/src/ipc.c:632:5
	ldr	r0, [sp, #4]
	bl	rt_object_is_systemobject
.Ltmp214:
	.loc	2 632 5 is_stmt 0               @ rt-thread/src/ipc.c:632:5
	cbz	r0, .LBB16_10
	b	.LBB16_9
.LBB16_9:
.Ltmp215:
	.loc	2 632 5                         @ rt-thread/src/ipc.c:632:5
	movw	r0, :lower16:.L.str.10
	movt	r0, :upper16:.L.str.10
	movw	r1, :lower16:.L__FUNCTION__.rt_mutex_delete
	movt	r1, :upper16:.L__FUNCTION__.rt_mutex_delete
	mov.w	r2, #632
	bl	rt_assert_handler
	b	.LBB16_10
.Ltmp216:
.LBB16_10:
	.loc	2 635 30 is_stmt 1              @ rt-thread/src/ipc.c:635:30
	ldr	r0, [sp, #4]
	.loc	2 635 44 is_stmt 0              @ rt-thread/src/ipc.c:635:44
	adds	r0, #20
	.loc	2 635 5                         @ rt-thread/src/ipc.c:635:5
	bl	rt_ipc_list_resume_all
	.loc	2 638 24 is_stmt 1              @ rt-thread/src/ipc.c:638:24
	ldr	r0, [sp, #4]
	.loc	2 638 5 is_stmt 0               @ rt-thread/src/ipc.c:638:5
	bl	rt_object_delete
	movs	r0, #0
	.loc	2 640 5 is_stmt 1               @ rt-thread/src/ipc.c:640:5
	add	sp, #8
	pop	{r7, pc}
.Ltmp217:
.Lfunc_end16:
	.size	rt_mutex_delete, .Lfunc_end16-rt_mutex_delete
	.cfi_endproc
	.cantunwind
	.fnend
                                        @ -- End function
	.section	.text.rt_mutex_take,"ax",%progbits
	.hidden	rt_mutex_take                   @ -- Begin function rt_mutex_take
	.globl	rt_mutex_take
	.p2align	3
	.type	rt_mutex_take,%function
	.code	16                              @ @rt_mutex_take
	.thumb_func
rt_mutex_take:
.Lfunc_begin17:
	.loc	2 655 0                         @ rt-thread/src/ipc.c:655:0
	.fnstart
	.cfi_startproc
@ %bb.0:
	.save	{r7, lr}
	push	{r7, lr}
	.cfi_def_cfa_offset 8
	.cfi_offset lr, -4
	.cfi_offset r7, -8
	.pad	#40
	sub	sp, #40
	.cfi_def_cfa_offset 48
	str	r0, [sp, #32]
	str	r1, [sp, #28]
.Ltmp218:
	.loc	2 660 5 prologue_end            @ rt-thread/src/ipc.c:660:5
	b	.LBB17_1
.LBB17_1:
.Ltmp219:
	.loc	2 660 5 is_stmt 0               @ rt-thread/src/ipc.c:660:5
	bl	rt_hw_interrupt_disable
	str	r0, [sp, #16]
.Ltmp220:
	.loc	2 660 5                         @ rt-thread/src/ipc.c:660:5
	bl	rt_thread_self
.Ltmp221:
	.loc	2 660 5                         @ rt-thread/src/ipc.c:660:5
	cbnz	r0, .LBB17_3
	b	.LBB17_2
.LBB17_2:
.Ltmp222:
	.loc	2 660 5                         @ rt-thread/src/ipc.c:660:5
	movw	r0, :lower16:.L.str.6
	movt	r0, :upper16:.L.str.6
	movw	r1, :lower16:.L__FUNCTION__.rt_mutex_take
	movt	r1, :upper16:.L__FUNCTION__.rt_mutex_take
	str	r1, [sp, #8]                    @ 4-byte Spill
	bl	rt_kprintf
	ldr	r1, [sp, #8]                    @ 4-byte Reload
.Ltmp223:
	.loc	2 660 5                         @ rt-thread/src/ipc.c:660:5
	movw	r0, :lower16:.L.str.4
	movt	r0, :upper16:.L.str.4
	mov.w	r2, #660
	bl	rt_assert_handler
.Ltmp224:
	.loc	2 660 5                         @ rt-thread/src/ipc.c:660:5
	b	.LBB17_3
.Ltmp225:
.LBB17_3:
	.loc	2 660 5                         @ rt-thread/src/ipc.c:660:5
	b	.LBB17_4
.LBB17_4:
.Ltmp226:
	.loc	2 660 5                         @ rt-thread/src/ipc.c:660:5
	bl	rt_hw_interrupt_disable
	str	r0, [sp, #12]
.Ltmp227:
	.loc	2 660 5                         @ rt-thread/src/ipc.c:660:5
	bl	rt_interrupt_get_nest
.Ltmp228:
	.loc	2 660 5                         @ rt-thread/src/ipc.c:660:5
	cbz	r0, .LBB17_6
	b	.LBB17_5
.LBB17_5:
.Ltmp229:
	.loc	2 660 5                         @ rt-thread/src/ipc.c:660:5
	movw	r0, :lower16:.L.str.4
	movt	r0, :upper16:.L.str.4
	movw	r1, :lower16:.L__FUNCTION__.rt_mutex_take
	movt	r1, :upper16:.L__FUNCTION__.rt_mutex_take
	mov.w	r2, #660
	bl	rt_assert_handler
.Ltmp230:
	.loc	2 660 5                         @ rt-thread/src/ipc.c:660:5
	b	.LBB17_6
.Ltmp231:
.LBB17_6:
	.loc	2 660 5                         @ rt-thread/src/ipc.c:660:5
	ldr	r0, [sp, #12]
	bl	rt_hw_interrupt_enable
	b	.LBB17_7
.Ltmp232:
.LBB17_7:
	.loc	2 660 5                         @ rt-thread/src/ipc.c:660:5
	ldr	r0, [sp, #16]
	bl	rt_hw_interrupt_enable
	b	.LBB17_8
.Ltmp233:
.LBB17_8:
	.loc	2 663 5 is_stmt 1               @ rt-thread/src/ipc.c:663:5
	ldr	r0, [sp, #32]
.Ltmp234:
	.loc	2 663 5 is_stmt 0               @ rt-thread/src/ipc.c:663:5
	cbnz	r0, .LBB17_10
	b	.LBB17_9
.LBB17_9:
.Ltmp235:
	.loc	2 663 5                         @ rt-thread/src/ipc.c:663:5
	movw	r0, :lower16:.L.str.7
	movt	r0, :upper16:.L.str.7
	movw	r1, :lower16:.L__FUNCTION__.rt_mutex_take
	movt	r1, :upper16:.L__FUNCTION__.rt_mutex_take
	movw	r2, #663
	bl	rt_assert_handler
	b	.LBB17_10
.Ltmp236:
.LBB17_10:
	.loc	2 664 5 is_stmt 1               @ rt-thread/src/ipc.c:664:5
	ldr	r0, [sp, #32]
	bl	rt_object_get_type
.Ltmp237:
	.loc	2 664 5 is_stmt 0               @ rt-thread/src/ipc.c:664:5
	cmp	r0, #3
	beq	.LBB17_12
	b	.LBB17_11
.LBB17_11:
.Ltmp238:
	.loc	2 664 5                         @ rt-thread/src/ipc.c:664:5
	movw	r0, :lower16:.L.str.8
	movt	r0, :upper16:.L.str.8
	movw	r1, :lower16:.L__FUNCTION__.rt_mutex_take
	movt	r1, :upper16:.L__FUNCTION__.rt_mutex_take
	mov.w	r2, #664
	bl	rt_assert_handler
	b	.LBB17_12
.Ltmp239:
.LBB17_12:
	.loc	2 667 14 is_stmt 1              @ rt-thread/src/ipc.c:667:14
	bl	rt_thread_self
	.loc	2 667 12 is_stmt 0              @ rt-thread/src/ipc.c:667:12
	str	r0, [sp, #20]
	.loc	2 670 12 is_stmt 1              @ rt-thread/src/ipc.c:670:12
	bl	rt_hw_interrupt_disable
	.loc	2 670 10 is_stmt 0              @ rt-thread/src/ipc.c:670:10
	str	r0, [sp, #24]
	.loc	2 672 5 is_stmt 1               @ rt-thread/src/ipc.c:672:5
	b	.LBB17_13
.LBB17_13:
.Ltmp240:
	.loc	2 672 5 is_stmt 0               @ rt-thread/src/ipc.c:672:5
	movw	r0, :lower16:rt_object_trytake_hook
	movt	r0, :upper16:rt_object_trytake_hook
	ldr	r0, [r0]
.Ltmp241:
	.loc	2 672 5                         @ rt-thread/src/ipc.c:672:5
	cbz	r0, .LBB17_15
	b	.LBB17_14
.LBB17_14:
.Ltmp242:
	.loc	2 672 5                         @ rt-thread/src/ipc.c:672:5
	movw	r0, :lower16:rt_object_trytake_hook
	movt	r0, :upper16:rt_object_trytake_hook
	ldr	r1, [r0]
	ldr	r0, [sp, #32]
	blx	r1
	b	.LBB17_15
.Ltmp243:
.LBB17_15:
	.loc	2 672 5                         @ rt-thread/src/ipc.c:672:5
	b	.LBB17_16
.Ltmp244:
.LBB17_16:
	.loc	2 674 5 is_stmt 1               @ rt-thread/src/ipc.c:674:5
	b	.LBB17_17
.LBB17_17:
.Ltmp245:
	.loc	2 674 5 is_stmt 0               @ rt-thread/src/ipc.c:674:5
	b	.LBB17_18
.Ltmp246:
.LBB17_18:
	.loc	2 679 5 is_stmt 1               @ rt-thread/src/ipc.c:679:5
	ldr	r1, [sp, #20]
	movs	r0, #0
	.loc	2 679 19 is_stmt 0              @ rt-thread/src/ipc.c:679:19
	str	r0, [r1, #48]
.Ltmp247:
	.loc	2 681 9 is_stmt 1               @ rt-thread/src/ipc.c:681:9
	ldr	r0, [sp, #32]
	.loc	2 681 16 is_stmt 0              @ rt-thread/src/ipc.c:681:16
	ldr	r0, [r0, #32]
	.loc	2 681 25                        @ rt-thread/src/ipc.c:681:25
	ldr	r1, [sp, #20]
.Ltmp248:
	.loc	2 681 9                         @ rt-thread/src/ipc.c:681:9
	cmp	r0, r1
	bne	.LBB17_20
	b	.LBB17_19
.LBB17_19:
.Ltmp249:
	.loc	2 684 9 is_stmt 1               @ rt-thread/src/ipc.c:684:9
	ldr	r1, [sp, #32]
	.loc	2 684 21 is_stmt 0              @ rt-thread/src/ipc.c:684:21
	ldrb	r0, [r1, #31]
	adds	r0, #1
	strb	r0, [r1, #31]
	.loc	2 685 5 is_stmt 1               @ rt-thread/src/ipc.c:685:5
	b	.LBB17_41
.Ltmp250:
.LBB17_20:
	.loc	2 687 5                         @ rt-thread/src/ipc.c:687:5
	b	.LBB17_21
.LBB17_21:                              @ =>This Inner Loop Header: Depth=1
.Ltmp251:
	@DEBUG_LABEL: __again
	.loc	2 692 13                        @ rt-thread/src/ipc.c:692:13
	ldr	r0, [sp, #32]
	.loc	2 692 20 is_stmt 0              @ rt-thread/src/ipc.c:692:20
	ldrh	r0, [r0, #28]
.Ltmp252:
	.loc	2 692 13                        @ rt-thread/src/ipc.c:692:13
	cmp	r0, #1
	blt	.LBB17_23
	b	.LBB17_22
.LBB17_22:
.Ltmp253:
	.loc	2 695 13 is_stmt 1              @ rt-thread/src/ipc.c:695:13
	ldr	r1, [sp, #32]
	.loc	2 695 26 is_stmt 0              @ rt-thread/src/ipc.c:695:26
	ldrh	r0, [r1, #28]
	subs	r0, #1
	strh	r0, [r1, #28]
	.loc	2 698 40 is_stmt 1              @ rt-thread/src/ipc.c:698:40
	ldr	r0, [sp, #20]
	.loc	2 698 13 is_stmt 0              @ rt-thread/src/ipc.c:698:13
	ldr	r1, [sp, #32]
	.loc	2 698 38                        @ rt-thread/src/ipc.c:698:38
	str	r0, [r1, #32]
	.loc	2 699 40 is_stmt 1              @ rt-thread/src/ipc.c:699:40
	ldr	r0, [sp, #20]
	.loc	2 699 48 is_stmt 0              @ rt-thread/src/ipc.c:699:48
	ldrb.w	r0, [r0, #53]
	.loc	2 699 13                        @ rt-thread/src/ipc.c:699:13
	ldr	r1, [sp, #32]
	.loc	2 699 38                        @ rt-thread/src/ipc.c:699:38
	strb	r0, [r1, #30]
	.loc	2 700 13 is_stmt 1              @ rt-thread/src/ipc.c:700:13
	ldr	r1, [sp, #32]
	.loc	2 700 25 is_stmt 0              @ rt-thread/src/ipc.c:700:25
	ldrb	r0, [r1, #31]
	adds	r0, #1
	strb	r0, [r1, #31]
	.loc	2 701 9 is_stmt 1               @ rt-thread/src/ipc.c:701:9
	b	.LBB17_40
.Ltmp254:
.LBB17_23:                              @   in Loop: Header=BB17_21 Depth=1
	.loc	2 705 17                        @ rt-thread/src/ipc.c:705:17
	ldr	r0, [sp, #28]
.Ltmp255:
	.loc	2 705 17 is_stmt 0              @ rt-thread/src/ipc.c:705:17
	cbnz	r0, .LBB17_25
	b	.LBB17_24
.LBB17_24:
.Ltmp256:
	.loc	2 708 17 is_stmt 1              @ rt-thread/src/ipc.c:708:17
	ldr	r1, [sp, #20]
	mvn	r0, #1
	.loc	2 708 31 is_stmt 0              @ rt-thread/src/ipc.c:708:31
	str	r0, [sp, #4]                    @ 4-byte Spill
	str	r0, [r1, #48]
	.loc	2 711 40 is_stmt 1              @ rt-thread/src/ipc.c:711:40
	ldr	r0, [sp, #24]
	.loc	2 711 17 is_stmt 0              @ rt-thread/src/ipc.c:711:17
	bl	rt_hw_interrupt_enable
	ldr	r0, [sp, #4]                    @ 4-byte Reload
	.loc	2 713 17 is_stmt 1              @ rt-thread/src/ipc.c:713:17
	str	r0, [sp, #36]
	b	.LBB17_46
.Ltmp257:
.LBB17_25:                              @   in Loop: Header=BB17_21 Depth=1
	.loc	2 718 17                        @ rt-thread/src/ipc.c:718:17
	b	.LBB17_26
.LBB17_26:                              @   in Loop: Header=BB17_21 Depth=1
.Ltmp258:
	.loc	2 718 17 is_stmt 0              @ rt-thread/src/ipc.c:718:17
	b	.LBB17_27
.Ltmp259:
.LBB17_27:                              @   in Loop: Header=BB17_21 Depth=1
	.loc	2 722 21 is_stmt 1              @ rt-thread/src/ipc.c:722:21
	ldr	r0, [sp, #20]
	.loc	2 722 29 is_stmt 0              @ rt-thread/src/ipc.c:722:29
	ldrb.w	r0, [r0, #53]
	.loc	2 722 48                        @ rt-thread/src/ipc.c:722:48
	ldr	r1, [sp, #32]
	.loc	2 722 55                        @ rt-thread/src/ipc.c:722:55
	ldr	r1, [r1, #32]
	.loc	2 722 62                        @ rt-thread/src/ipc.c:722:62
	ldrb.w	r1, [r1, #53]
.Ltmp260:
	.loc	2 722 21                        @ rt-thread/src/ipc.c:722:21
	cmp	r0, r1
	bge	.LBB17_29
	b	.LBB17_28
.LBB17_28:                              @   in Loop: Header=BB17_21 Depth=1
.Ltmp261:
	.loc	2 725 39 is_stmt 1              @ rt-thread/src/ipc.c:725:39
	ldr	r0, [sp, #32]
	.loc	2 725 46 is_stmt 0              @ rt-thread/src/ipc.c:725:46
	ldr	r0, [r0, #32]
	.loc	2 727 40 is_stmt 1              @ rt-thread/src/ipc.c:727:40
	ldr	r1, [sp, #20]
	.loc	2 727 48 is_stmt 0              @ rt-thread/src/ipc.c:727:48
	add.w	r2, r1, #53
	movs	r1, #2
	.loc	2 725 21 is_stmt 1              @ rt-thread/src/ipc.c:725:21
	bl	rt_thread_control
	.loc	2 728 17                        @ rt-thread/src/ipc.c:728:17
	b	.LBB17_29
.Ltmp262:
.LBB17_29:                              @   in Loop: Header=BB17_21 Depth=1
	.loc	2 731 39                        @ rt-thread/src/ipc.c:731:39
	ldr	r2, [sp, #32]
	.loc	2 731 53 is_stmt 0              @ rt-thread/src/ipc.c:731:53
	add.w	r0, r2, #20
	.loc	2 732 37 is_stmt 1              @ rt-thread/src/ipc.c:732:37
	ldr	r1, [sp, #20]
	.loc	2 733 58                        @ rt-thread/src/ipc.c:733:58
	ldrb	r2, [r2, #9]
	.loc	2 731 17                        @ rt-thread/src/ipc.c:731:17
	bl	rt_ipc_list_suspend
.Ltmp263:
	.loc	2 736 21                        @ rt-thread/src/ipc.c:736:21
	ldr	r0, [sp, #28]
.Ltmp264:
	.loc	2 736 21 is_stmt 0              @ rt-thread/src/ipc.c:736:21
	cmp	r0, #1
	blt	.LBB17_33
	b	.LBB17_30
.LBB17_30:                              @   in Loop: Header=BB17_21 Depth=1
.Ltmp265:
	.loc	2 738 21 is_stmt 1              @ rt-thread/src/ipc.c:738:21
	b	.LBB17_31
.LBB17_31:                              @   in Loop: Header=BB17_21 Depth=1
.Ltmp266:
	.loc	2 738 21 is_stmt 0              @ rt-thread/src/ipc.c:738:21
	b	.LBB17_32
.Ltmp267:
.LBB17_32:                              @   in Loop: Header=BB17_21 Depth=1
	.loc	2 743 40 is_stmt 1              @ rt-thread/src/ipc.c:743:40
	ldr	r0, [sp, #20]
	.loc	2 743 48 is_stmt 0              @ rt-thread/src/ipc.c:743:48
	adds	r0, #76
	movs	r1, #0
	add	r2, sp, #28
	.loc	2 743 21                        @ rt-thread/src/ipc.c:743:21
	bl	rt_timer_control
	.loc	2 746 38 is_stmt 1              @ rt-thread/src/ipc.c:746:38
	ldr	r0, [sp, #20]
	.loc	2 746 46 is_stmt 0              @ rt-thread/src/ipc.c:746:46
	adds	r0, #76
	.loc	2 746 21                        @ rt-thread/src/ipc.c:746:21
	bl	rt_timer_start
	.loc	2 747 17 is_stmt 1              @ rt-thread/src/ipc.c:747:17
	b	.LBB17_33
.Ltmp268:
.LBB17_33:                              @   in Loop: Header=BB17_21 Depth=1
	.loc	2 750 40                        @ rt-thread/src/ipc.c:750:40
	ldr	r0, [sp, #24]
	.loc	2 750 17 is_stmt 0              @ rt-thread/src/ipc.c:750:17
	bl	rt_hw_interrupt_enable
	.loc	2 753 17 is_stmt 1              @ rt-thread/src/ipc.c:753:17
	bl	rt_schedule
.Ltmp269:
	.loc	2 755 21                        @ rt-thread/src/ipc.c:755:21
	ldr	r0, [sp, #20]
	.loc	2 755 29 is_stmt 0              @ rt-thread/src/ipc.c:755:29
	ldr	r0, [r0, #48]
.Ltmp270:
	.loc	2 755 21                        @ rt-thread/src/ipc.c:755:21
	cbz	r0, .LBB17_37
	b	.LBB17_34
.LBB17_34:                              @   in Loop: Header=BB17_21 Depth=1
.Ltmp271:
	.loc	2 758 25 is_stmt 1              @ rt-thread/src/ipc.c:758:25
	ldr	r0, [sp, #20]
	.loc	2 758 33 is_stmt 0              @ rt-thread/src/ipc.c:758:33
	ldr	r0, [r0, #48]
.Ltmp272:
	.loc	2 758 25                        @ rt-thread/src/ipc.c:758:25
	adds	r0, #9
	cbnz	r0, .LBB17_36
	b	.LBB17_35
.LBB17_35:                              @   in Loop: Header=BB17_21 Depth=1
.Ltmp273:
	.loc	2 758 53                        @ rt-thread/src/ipc.c:758:53
	b	.LBB17_21
.Ltmp274:
.LBB17_36:
	.loc	2 761 28 is_stmt 1              @ rt-thread/src/ipc.c:761:28
	ldr	r0, [sp, #20]
	.loc	2 761 36 is_stmt 0              @ rt-thread/src/ipc.c:761:36
	ldr	r0, [r0, #48]
	.loc	2 761 21                        @ rt-thread/src/ipc.c:761:21
	str	r0, [sp, #36]
	b	.LBB17_46
.Ltmp275:
.LBB17_37:
	.loc	2 767 28 is_stmt 1              @ rt-thread/src/ipc.c:767:28
	bl	rt_hw_interrupt_disable
	.loc	2 767 26 is_stmt 0              @ rt-thread/src/ipc.c:767:26
	str	r0, [sp, #24]
	b	.LBB17_38
.Ltmp276:
.LBB17_38:
	.loc	2 0 26                          @ rt-thread/src/ipc.c:0:26
	b	.LBB17_39
.LBB17_39:
	b	.LBB17_40
.LBB17_40:
	b	.LBB17_41
.LBB17_41:
	.loc	2 774 28 is_stmt 1              @ rt-thread/src/ipc.c:774:28
	ldr	r0, [sp, #24]
	.loc	2 774 5 is_stmt 0               @ rt-thread/src/ipc.c:774:5
	bl	rt_hw_interrupt_enable
	.loc	2 776 5 is_stmt 1               @ rt-thread/src/ipc.c:776:5
	b	.LBB17_42
.LBB17_42:
.Ltmp277:
	.loc	2 776 5 is_stmt 0               @ rt-thread/src/ipc.c:776:5
	movw	r0, :lower16:rt_object_take_hook
	movt	r0, :upper16:rt_object_take_hook
	ldr	r0, [r0]
.Ltmp278:
	.loc	2 776 5                         @ rt-thread/src/ipc.c:776:5
	cbz	r0, .LBB17_44
	b	.LBB17_43
.LBB17_43:
.Ltmp279:
	.loc	2 776 5                         @ rt-thread/src/ipc.c:776:5
	movw	r0, :lower16:rt_object_take_hook
	movt	r0, :upper16:rt_object_take_hook
	ldr	r1, [r0]
	ldr	r0, [sp, #32]
	blx	r1
	b	.LBB17_44
.Ltmp280:
.LBB17_44:
	.loc	2 776 5                         @ rt-thread/src/ipc.c:776:5
	b	.LBB17_45
.Ltmp281:
.LBB17_45:
	.loc	2 0 5                           @ rt-thread/src/ipc.c:0:5
	movs	r0, #0
	.loc	2 778 5 is_stmt 1               @ rt-thread/src/ipc.c:778:5
	str	r0, [sp, #36]
	b	.LBB17_46
.LBB17_46:
	.loc	2 779 1                         @ rt-thread/src/ipc.c:779:1
	ldr	r0, [sp, #36]
	add	sp, #40
	pop	{r7, pc}
.Ltmp282:
.Lfunc_end17:
	.size	rt_mutex_take, .Lfunc_end17-rt_mutex_take
	.cfi_endproc
	.cantunwind
	.fnend
                                        @ -- End function
	.section	.text.rt_mutex_release,"ax",%progbits
	.hidden	rt_mutex_release                @ -- Begin function rt_mutex_release
	.globl	rt_mutex_release
	.p2align	3
	.type	rt_mutex_release,%function
	.code	16                              @ @rt_mutex_release
	.thumb_func
rt_mutex_release:
.Lfunc_begin18:
	.loc	2 791 0                         @ rt-thread/src/ipc.c:791:0
	.fnstart
	.cfi_startproc
@ %bb.0:
	.save	{r7, lr}
	push	{r7, lr}
	.cfi_def_cfa_offset 8
	.cfi_offset lr, -4
	.cfi_offset r7, -8
	.pad	#40
	sub	sp, #40
	.cfi_def_cfa_offset 48
	str	r0, [sp, #32]
.Ltmp283:
	.loc	2 797 5 prologue_end            @ rt-thread/src/ipc.c:797:5
	ldr	r0, [sp, #32]
.Ltmp284:
	.loc	2 797 5 is_stmt 0               @ rt-thread/src/ipc.c:797:5
	cbnz	r0, .LBB18_2
	b	.LBB18_1
.LBB18_1:
.Ltmp285:
	.loc	2 797 5                         @ rt-thread/src/ipc.c:797:5
	movw	r0, :lower16:.L.str.7
	movt	r0, :upper16:.L.str.7
	movw	r1, :lower16:.L__FUNCTION__.rt_mutex_release
	movt	r1, :upper16:.L__FUNCTION__.rt_mutex_release
	movw	r2, #797
	bl	rt_assert_handler
	b	.LBB18_2
.Ltmp286:
.LBB18_2:
	.loc	2 798 5 is_stmt 1               @ rt-thread/src/ipc.c:798:5
	ldr	r0, [sp, #32]
	bl	rt_object_get_type
.Ltmp287:
	.loc	2 798 5 is_stmt 0               @ rt-thread/src/ipc.c:798:5
	cmp	r0, #3
	beq	.LBB18_4
	b	.LBB18_3
.LBB18_3:
.Ltmp288:
	.loc	2 798 5                         @ rt-thread/src/ipc.c:798:5
	movw	r0, :lower16:.L.str.8
	movt	r0, :upper16:.L.str.8
	movw	r1, :lower16:.L__FUNCTION__.rt_mutex_release
	movt	r1, :upper16:.L__FUNCTION__.rt_mutex_release
	movw	r2, #798
	bl	rt_assert_handler
	b	.LBB18_4
.Ltmp289:
.LBB18_4:
	.loc	2 0 5                           @ rt-thread/src/ipc.c:0:5
	movs	r0, #0
	.loc	2 800 19 is_stmt 1              @ rt-thread/src/ipc.c:800:19
	str	r0, [sp, #20]
	.loc	2 803 5                         @ rt-thread/src/ipc.c:803:5
	b	.LBB18_5
.LBB18_5:
.Ltmp290:
	.loc	2 803 5 is_stmt 0               @ rt-thread/src/ipc.c:803:5
	bl	rt_hw_interrupt_disable
	str	r0, [sp, #16]
.Ltmp291:
	.loc	2 803 5                         @ rt-thread/src/ipc.c:803:5
	bl	rt_thread_self
.Ltmp292:
	.loc	2 803 5                         @ rt-thread/src/ipc.c:803:5
	cbnz	r0, .LBB18_7
	b	.LBB18_6
.LBB18_6:
.Ltmp293:
	.loc	2 803 5                         @ rt-thread/src/ipc.c:803:5
	movw	r0, :lower16:.L.str.6
	movt	r0, :upper16:.L.str.6
	movw	r1, :lower16:.L__FUNCTION__.rt_mutex_release
	movt	r1, :upper16:.L__FUNCTION__.rt_mutex_release
	str	r1, [sp, #8]                    @ 4-byte Spill
	bl	rt_kprintf
	ldr	r1, [sp, #8]                    @ 4-byte Reload
.Ltmp294:
	.loc	2 803 5                         @ rt-thread/src/ipc.c:803:5
	movw	r0, :lower16:.L.str.4
	movt	r0, :upper16:.L.str.4
	movw	r2, #803
	bl	rt_assert_handler
.Ltmp295:
	.loc	2 803 5                         @ rt-thread/src/ipc.c:803:5
	b	.LBB18_7
.Ltmp296:
.LBB18_7:
	.loc	2 803 5                         @ rt-thread/src/ipc.c:803:5
	b	.LBB18_8
.LBB18_8:
.Ltmp297:
	.loc	2 803 5                         @ rt-thread/src/ipc.c:803:5
	bl	rt_hw_interrupt_disable
	str	r0, [sp, #12]
.Ltmp298:
	.loc	2 803 5                         @ rt-thread/src/ipc.c:803:5
	bl	rt_interrupt_get_nest
.Ltmp299:
	.loc	2 803 5                         @ rt-thread/src/ipc.c:803:5
	cbz	r0, .LBB18_10
	b	.LBB18_9
.LBB18_9:
.Ltmp300:
	.loc	2 803 5                         @ rt-thread/src/ipc.c:803:5
	movw	r0, :lower16:.L.str.4
	movt	r0, :upper16:.L.str.4
	movw	r1, :lower16:.L__FUNCTION__.rt_mutex_release
	movt	r1, :upper16:.L__FUNCTION__.rt_mutex_release
	movw	r2, #803
	bl	rt_assert_handler
.Ltmp301:
	.loc	2 803 5                         @ rt-thread/src/ipc.c:803:5
	b	.LBB18_10
.Ltmp302:
.LBB18_10:
	.loc	2 803 5                         @ rt-thread/src/ipc.c:803:5
	ldr	r0, [sp, #12]
	bl	rt_hw_interrupt_enable
	b	.LBB18_11
.Ltmp303:
.LBB18_11:
	.loc	2 803 5                         @ rt-thread/src/ipc.c:803:5
	ldr	r0, [sp, #16]
	bl	rt_hw_interrupt_enable
	b	.LBB18_12
.Ltmp304:
.LBB18_12:
	.loc	2 806 14 is_stmt 1              @ rt-thread/src/ipc.c:806:14
	bl	rt_thread_self
	.loc	2 806 12 is_stmt 0              @ rt-thread/src/ipc.c:806:12
	str	r0, [sp, #24]
	.loc	2 809 12 is_stmt 1              @ rt-thread/src/ipc.c:809:12
	bl	rt_hw_interrupt_disable
	.loc	2 809 10 is_stmt 0              @ rt-thread/src/ipc.c:809:10
	str	r0, [sp, #28]
	.loc	2 811 5 is_stmt 1               @ rt-thread/src/ipc.c:811:5
	b	.LBB18_13
.LBB18_13:
.Ltmp305:
	.loc	2 811 5 is_stmt 0               @ rt-thread/src/ipc.c:811:5
	b	.LBB18_14
.Ltmp306:
.LBB18_14:
	.loc	2 815 5 is_stmt 1               @ rt-thread/src/ipc.c:815:5
	b	.LBB18_15
.LBB18_15:
.Ltmp307:
	.loc	2 815 5 is_stmt 0               @ rt-thread/src/ipc.c:815:5
	movw	r0, :lower16:rt_object_put_hook
	movt	r0, :upper16:rt_object_put_hook
	ldr	r0, [r0]
.Ltmp308:
	.loc	2 815 5                         @ rt-thread/src/ipc.c:815:5
	cbz	r0, .LBB18_17
	b	.LBB18_16
.LBB18_16:
.Ltmp309:
	.loc	2 815 5                         @ rt-thread/src/ipc.c:815:5
	movw	r0, :lower16:rt_object_put_hook
	movt	r0, :upper16:rt_object_put_hook
	ldr	r1, [r0]
	ldr	r0, [sp, #32]
	blx	r1
	b	.LBB18_17
.Ltmp310:
.LBB18_17:
	.loc	2 815 5                         @ rt-thread/src/ipc.c:815:5
	b	.LBB18_18
.Ltmp311:
.LBB18_18:
	.loc	2 818 9 is_stmt 1               @ rt-thread/src/ipc.c:818:9
	ldr	r0, [sp, #24]
	.loc	2 818 19 is_stmt 0              @ rt-thread/src/ipc.c:818:19
	ldr	r1, [sp, #32]
	.loc	2 818 26                        @ rt-thread/src/ipc.c:818:26
	ldr	r1, [r1, #32]
.Ltmp312:
	.loc	2 818 9                         @ rt-thread/src/ipc.c:818:9
	cmp	r0, r1
	beq	.LBB18_20
	b	.LBB18_19
.LBB18_19:
.Ltmp313:
	.loc	2 820 9 is_stmt 1               @ rt-thread/src/ipc.c:820:9
	ldr	r1, [sp, #24]
	mov.w	r0, #-1
	.loc	2 820 23 is_stmt 0              @ rt-thread/src/ipc.c:820:23
	str	r0, [sp, #4]                    @ 4-byte Spill
	str	r0, [r1, #48]
	.loc	2 823 32 is_stmt 1              @ rt-thread/src/ipc.c:823:32
	ldr	r0, [sp, #28]
	.loc	2 823 9 is_stmt 0               @ rt-thread/src/ipc.c:823:9
	bl	rt_hw_interrupt_enable
	ldr	r0, [sp, #4]                    @ 4-byte Reload
	.loc	2 825 9 is_stmt 1               @ rt-thread/src/ipc.c:825:9
	str	r0, [sp, #36]
	b	.LBB18_32
.Ltmp314:
.LBB18_20:
	.loc	2 829 5                         @ rt-thread/src/ipc.c:829:5
	ldr	r1, [sp, #32]
	.loc	2 829 17 is_stmt 0              @ rt-thread/src/ipc.c:829:17
	ldrb	r0, [r1, #31]
	subs	r0, #1
	strb	r0, [r1, #31]
.Ltmp315:
	.loc	2 831 9 is_stmt 1               @ rt-thread/src/ipc.c:831:9
	ldr	r0, [sp, #32]
	.loc	2 831 16 is_stmt 0              @ rt-thread/src/ipc.c:831:16
	ldrb	r0, [r0, #31]
.Ltmp316:
	.loc	2 831 9                         @ rt-thread/src/ipc.c:831:9
	cbnz	r0, .LBB18_29
	b	.LBB18_21
.LBB18_21:
.Ltmp317:
	.loc	2 834 13 is_stmt 1              @ rt-thread/src/ipc.c:834:13
	ldr	r1, [sp, #32]
	.loc	2 834 20 is_stmt 0              @ rt-thread/src/ipc.c:834:20
	ldrb	r0, [r1, #30]
	.loc	2 834 48                        @ rt-thread/src/ipc.c:834:48
	ldr	r1, [r1, #32]
	.loc	2 834 55                        @ rt-thread/src/ipc.c:834:55
	ldrb.w	r1, [r1, #53]
.Ltmp318:
	.loc	2 834 13                        @ rt-thread/src/ipc.c:834:13
	cmp	r0, r1
	beq	.LBB18_23
	b	.LBB18_22
.LBB18_22:
.Ltmp319:
	.loc	2 836 31 is_stmt 1              @ rt-thread/src/ipc.c:836:31
	ldr	r1, [sp, #32]
	.loc	2 836 38 is_stmt 0              @ rt-thread/src/ipc.c:836:38
	ldr	r0, [r1, #32]
	.loc	2 838 40 is_stmt 1              @ rt-thread/src/ipc.c:838:40
	add.w	r2, r1, #30
	movs	r1, #2
	.loc	2 836 13                        @ rt-thread/src/ipc.c:836:13
	bl	rt_thread_control
	.loc	2 839 9                         @ rt-thread/src/ipc.c:839:9
	b	.LBB18_23
.Ltmp320:
.LBB18_23:
	.loc	2 842 31                        @ rt-thread/src/ipc.c:842:31
	ldr	r0, [sp, #32]
	.loc	2 842 45 is_stmt 0              @ rt-thread/src/ipc.c:842:45
	adds	r0, #20
	.loc	2 842 14                        @ rt-thread/src/ipc.c:842:14
	bl	rt_list_isempty
.Ltmp321:
	.loc	2 842 13                        @ rt-thread/src/ipc.c:842:13
	cbnz	r0, .LBB18_27
	b	.LBB18_24
.LBB18_24:
.Ltmp322:
	.loc	2 845 22 is_stmt 1              @ rt-thread/src/ipc.c:845:22
	ldr	r0, [sp, #32]
	ldr	r0, [r0, #20]
	subs	r0, #20
	.loc	2 845 20 is_stmt 0              @ rt-thread/src/ipc.c:845:20
	str	r0, [sp, #24]
	.loc	2 849 13 is_stmt 1              @ rt-thread/src/ipc.c:849:13
	b	.LBB18_25
.LBB18_25:
.Ltmp323:
	.loc	2 849 13 is_stmt 0              @ rt-thread/src/ipc.c:849:13
	b	.LBB18_26
.Ltmp324:
.LBB18_26:
	.loc	2 853 40 is_stmt 1              @ rt-thread/src/ipc.c:853:40
	ldr	r0, [sp, #24]
	.loc	2 853 13 is_stmt 0              @ rt-thread/src/ipc.c:853:13
	ldr	r1, [sp, #32]
	.loc	2 853 38                        @ rt-thread/src/ipc.c:853:38
	str	r0, [r1, #32]
	.loc	2 854 40 is_stmt 1              @ rt-thread/src/ipc.c:854:40
	ldr	r0, [sp, #24]
	.loc	2 854 48 is_stmt 0              @ rt-thread/src/ipc.c:854:48
	ldrb.w	r0, [r0, #53]
	.loc	2 854 13                        @ rt-thread/src/ipc.c:854:13
	ldr	r1, [sp, #32]
	.loc	2 854 38                        @ rt-thread/src/ipc.c:854:38
	strb	r0, [r1, #30]
	.loc	2 855 13 is_stmt 1              @ rt-thread/src/ipc.c:855:13
	ldr	r1, [sp, #32]
	.loc	2 855 25 is_stmt 0              @ rt-thread/src/ipc.c:855:25
	ldrb	r0, [r1, #31]
	adds	r0, #1
	strb	r0, [r1, #31]
	.loc	2 858 34 is_stmt 1              @ rt-thread/src/ipc.c:858:34
	ldr	r0, [sp, #32]
	.loc	2 858 48 is_stmt 0              @ rt-thread/src/ipc.c:858:48
	adds	r0, #20
	.loc	2 858 13                        @ rt-thread/src/ipc.c:858:13
	bl	rt_ipc_list_resume
	movs	r0, #1
	.loc	2 860 27 is_stmt 1              @ rt-thread/src/ipc.c:860:27
	str	r0, [sp, #20]
	.loc	2 861 9                         @ rt-thread/src/ipc.c:861:9
	b	.LBB18_28
.Ltmp325:
.LBB18_27:
	.loc	2 865 13                        @ rt-thread/src/ipc.c:865:13
	ldr	r1, [sp, #32]
	.loc	2 865 26 is_stmt 0              @ rt-thread/src/ipc.c:865:26
	ldrh	r0, [r1, #28]
	adds	r0, #1
	strh	r0, [r1, #28]
	.loc	2 868 13 is_stmt 1              @ rt-thread/src/ipc.c:868:13
	ldr	r1, [sp, #32]
	movs	r0, #0
	.loc	2 868 38 is_stmt 0              @ rt-thread/src/ipc.c:868:38
	str	r0, [r1, #32]
	.loc	2 869 13 is_stmt 1              @ rt-thread/src/ipc.c:869:13
	ldr	r1, [sp, #32]
	movs	r0, #255
	.loc	2 869 38 is_stmt 0              @ rt-thread/src/ipc.c:869:38
	strb	r0, [r1, #30]
	b	.LBB18_28
.Ltmp326:
.LBB18_28:
	.loc	2 871 5 is_stmt 1               @ rt-thread/src/ipc.c:871:5
	b	.LBB18_29
.Ltmp327:
.LBB18_29:
	.loc	2 874 28                        @ rt-thread/src/ipc.c:874:28
	ldr	r0, [sp, #28]
	.loc	2 874 5 is_stmt 0               @ rt-thread/src/ipc.c:874:5
	bl	rt_hw_interrupt_enable
.Ltmp328:
	.loc	2 877 9 is_stmt 1               @ rt-thread/src/ipc.c:877:9
	ldr	r0, [sp, #20]
.Ltmp329:
	.loc	2 877 9 is_stmt 0               @ rt-thread/src/ipc.c:877:9
	cmp	r0, #1
	bne	.LBB18_31
	b	.LBB18_30
.LBB18_30:
.Ltmp330:
	.loc	2 878 9 is_stmt 1               @ rt-thread/src/ipc.c:878:9
	bl	rt_schedule
	b	.LBB18_31
.Ltmp331:
.LBB18_31:
	.loc	2 0 9 is_stmt 0                 @ rt-thread/src/ipc.c:0:9
	movs	r0, #0
	.loc	2 880 5 is_stmt 1               @ rt-thread/src/ipc.c:880:5
	str	r0, [sp, #36]
	b	.LBB18_32
.LBB18_32:
	.loc	2 881 1                         @ rt-thread/src/ipc.c:881:1
	ldr	r0, [sp, #36]
	add	sp, #40
	pop	{r7, pc}
.Ltmp332:
.Lfunc_end18:
	.size	rt_mutex_release, .Lfunc_end18-rt_mutex_release
	.cfi_endproc
	.cantunwind
	.fnend
                                        @ -- End function
	.section	.text.rt_mutex_control,"ax",%progbits
	.hidden	rt_mutex_control                @ -- Begin function rt_mutex_control
	.globl	rt_mutex_control
	.p2align	3
	.type	rt_mutex_control,%function
	.code	16                              @ @rt_mutex_control
	.thumb_func
rt_mutex_control:
.Lfunc_begin19:
	.loc	2 894 0                         @ rt-thread/src/ipc.c:894:0
	.fnstart
	.cfi_startproc
@ %bb.0:
	.save	{r7, lr}
	push	{r7, lr}
	.cfi_def_cfa_offset 8
	.cfi_offset lr, -4
	.cfi_offset r7, -8
	.pad	#16
	sub	sp, #16
	.cfi_def_cfa_offset 24
	str	r0, [sp, #12]
	str	r1, [sp, #8]
	str	r2, [sp, #4]
.Ltmp333:
	.loc	2 896 5 prologue_end            @ rt-thread/src/ipc.c:896:5
	ldr	r0, [sp, #12]
.Ltmp334:
	.loc	2 896 5 is_stmt 0               @ rt-thread/src/ipc.c:896:5
	cbnz	r0, .LBB19_2
	b	.LBB19_1
.LBB19_1:
.Ltmp335:
	.loc	2 896 5                         @ rt-thread/src/ipc.c:896:5
	movw	r0, :lower16:.L.str.7
	movt	r0, :upper16:.L.str.7
	movw	r1, :lower16:.L__FUNCTION__.rt_mutex_control
	movt	r1, :upper16:.L__FUNCTION__.rt_mutex_control
	mov.w	r2, #896
	bl	rt_assert_handler
	b	.LBB19_2
.Ltmp336:
.LBB19_2:
	.loc	2 897 5 is_stmt 1               @ rt-thread/src/ipc.c:897:5
	ldr	r0, [sp, #12]
	bl	rt_object_get_type
.Ltmp337:
	.loc	2 897 5 is_stmt 0               @ rt-thread/src/ipc.c:897:5
	cmp	r0, #3
	beq	.LBB19_4
	b	.LBB19_3
.LBB19_3:
.Ltmp338:
	.loc	2 897 5                         @ rt-thread/src/ipc.c:897:5
	movw	r0, :lower16:.L.str.8
	movt	r0, :upper16:.L.str.8
	movw	r1, :lower16:.L__FUNCTION__.rt_mutex_control
	movt	r1, :upper16:.L__FUNCTION__.rt_mutex_control
	movw	r2, #897
	bl	rt_assert_handler
	b	.LBB19_4
.Ltmp339:
.LBB19_4:
	.loc	2 0 5                           @ rt-thread/src/ipc.c:0:5
	mov.w	r0, #-1
	.loc	2 899 5 is_stmt 1               @ rt-thread/src/ipc.c:899:5
	add	sp, #16
	pop	{r7, pc}
.Ltmp340:
.Lfunc_end19:
	.size	rt_mutex_control, .Lfunc_end19-rt_mutex_control
	.cfi_endproc
	.cantunwind
	.fnend
                                        @ -- End function
	.section	.text.rt_event_init,"ax",%progbits
	.hidden	rt_event_init                   @ -- Begin function rt_event_init
	.globl	rt_event_init
	.p2align	3
	.type	rt_event_init,%function
	.code	16                              @ @rt_event_init
	.thumb_func
rt_event_init:
.Lfunc_begin20:
	.loc	2 916 0                         @ rt-thread/src/ipc.c:916:0
	.fnstart
	.cfi_startproc
@ %bb.0:
	.save	{r7, lr}
	push	{r7, lr}
	.cfi_def_cfa_offset 8
	.cfi_offset lr, -4
	.cfi_offset r7, -8
	.pad	#16
	sub	sp, #16
	.cfi_def_cfa_offset 24
                                        @ kill: def $r3 killed $r2
	str	r0, [sp, #12]
	str	r1, [sp, #8]
	strb.w	r2, [sp, #7]
.Ltmp341:
	.loc	2 918 5 prologue_end            @ rt-thread/src/ipc.c:918:5
	ldr	r0, [sp, #12]
.Ltmp342:
	.loc	2 918 5 is_stmt 0               @ rt-thread/src/ipc.c:918:5
	cbnz	r0, .LBB20_2
	b	.LBB20_1
.LBB20_1:
.Ltmp343:
	.loc	2 918 5                         @ rt-thread/src/ipc.c:918:5
	movw	r0, :lower16:.L.str.11
	movt	r0, :upper16:.L.str.11
	movw	r1, :lower16:.L__FUNCTION__.rt_event_init
	movt	r1, :upper16:.L__FUNCTION__.rt_event_init
	movw	r2, #918
	bl	rt_assert_handler
	b	.LBB20_2
.Ltmp344:
.LBB20_2:
	.loc	2 921 22 is_stmt 1              @ rt-thread/src/ipc.c:921:22
	ldr	r0, [sp, #12]
	.loc	2 921 68 is_stmt 0              @ rt-thread/src/ipc.c:921:68
	ldr	r2, [sp, #8]
	movs	r1, #4
	.loc	2 921 5                         @ rt-thread/src/ipc.c:921:5
	bl	rt_object_init
	.loc	2 924 33 is_stmt 1              @ rt-thread/src/ipc.c:924:33
	ldrb.w	r0, [sp, #7]
	.loc	2 924 5 is_stmt 0               @ rt-thread/src/ipc.c:924:5
	ldr	r1, [sp, #12]
	.loc	2 924 31                        @ rt-thread/src/ipc.c:924:31
	strb	r0, [r1, #9]
	.loc	2 927 26 is_stmt 1              @ rt-thread/src/ipc.c:927:26
	ldr	r0, [sp, #12]
	.loc	2 927 5 is_stmt 0               @ rt-thread/src/ipc.c:927:5
	bl	rt_ipc_object_init
	.loc	2 930 5 is_stmt 1               @ rt-thread/src/ipc.c:930:5
	ldr	r1, [sp, #12]
	movs	r0, #0
	.loc	2 930 16 is_stmt 0              @ rt-thread/src/ipc.c:930:16
	str	r0, [r1, #28]
	.loc	2 932 5 is_stmt 1               @ rt-thread/src/ipc.c:932:5
	add	sp, #16
	pop	{r7, pc}
.Ltmp345:
.Lfunc_end20:
	.size	rt_event_init, .Lfunc_end20-rt_event_init
	.cfi_endproc
	.cantunwind
	.fnend
                                        @ -- End function
	.section	.text.rt_event_detach,"ax",%progbits
	.hidden	rt_event_detach                 @ -- Begin function rt_event_detach
	.globl	rt_event_detach
	.p2align	3
	.type	rt_event_detach,%function
	.code	16                              @ @rt_event_detach
	.thumb_func
rt_event_detach:
.Lfunc_begin21:
	.loc	2 944 0                         @ rt-thread/src/ipc.c:944:0
	.fnstart
	.cfi_startproc
@ %bb.0:
	.save	{r7, lr}
	push	{r7, lr}
	.cfi_def_cfa_offset 8
	.cfi_offset lr, -4
	.cfi_offset r7, -8
	.pad	#8
	sub	sp, #8
	.cfi_def_cfa_offset 16
	str	r0, [sp, #4]
.Ltmp346:
	.loc	2 946 5 prologue_end            @ rt-thread/src/ipc.c:946:5
	ldr	r0, [sp, #4]
.Ltmp347:
	.loc	2 946 5 is_stmt 0               @ rt-thread/src/ipc.c:946:5
	cbnz	r0, .LBB21_2
	b	.LBB21_1
.LBB21_1:
.Ltmp348:
	.loc	2 946 5                         @ rt-thread/src/ipc.c:946:5
	movw	r0, :lower16:.L.str.11
	movt	r0, :upper16:.L.str.11
	movw	r1, :lower16:.L__FUNCTION__.rt_event_detach
	movt	r1, :upper16:.L__FUNCTION__.rt_event_detach
	movw	r2, #946
	bl	rt_assert_handler
	b	.LBB21_2
.Ltmp349:
.LBB21_2:
	.loc	2 947 5 is_stmt 1               @ rt-thread/src/ipc.c:947:5
	ldr	r0, [sp, #4]
	bl	rt_object_get_type
.Ltmp350:
	.loc	2 947 5 is_stmt 0               @ rt-thread/src/ipc.c:947:5
	cmp	r0, #4
	beq	.LBB21_4
	b	.LBB21_3
.LBB21_3:
.Ltmp351:
	.loc	2 947 5                         @ rt-thread/src/ipc.c:947:5
	movw	r0, :lower16:.L.str.12
	movt	r0, :upper16:.L.str.12
	movw	r1, :lower16:.L__FUNCTION__.rt_event_detach
	movt	r1, :upper16:.L__FUNCTION__.rt_event_detach
	movw	r2, #947
	bl	rt_assert_handler
	b	.LBB21_4
.Ltmp352:
.LBB21_4:
	.loc	2 948 5 is_stmt 1               @ rt-thread/src/ipc.c:948:5
	ldr	r0, [sp, #4]
	bl	rt_object_is_systemobject
.Ltmp353:
	.loc	2 948 5 is_stmt 0               @ rt-thread/src/ipc.c:948:5
	cbnz	r0, .LBB21_6
	b	.LBB21_5
.LBB21_5:
.Ltmp354:
	.loc	2 948 5                         @ rt-thread/src/ipc.c:948:5
	movw	r0, :lower16:.L.str.13
	movt	r0, :upper16:.L.str.13
	movw	r1, :lower16:.L__FUNCTION__.rt_event_detach
	movt	r1, :upper16:.L__FUNCTION__.rt_event_detach
	mov.w	r2, #948
	bl	rt_assert_handler
	b	.LBB21_6
.Ltmp355:
.LBB21_6:
	.loc	2 951 30 is_stmt 1              @ rt-thread/src/ipc.c:951:30
	ldr	r0, [sp, #4]
	.loc	2 951 44 is_stmt 0              @ rt-thread/src/ipc.c:951:44
	adds	r0, #20
	.loc	2 951 5                         @ rt-thread/src/ipc.c:951:5
	bl	rt_ipc_list_resume_all
	.loc	2 954 24 is_stmt 1              @ rt-thread/src/ipc.c:954:24
	ldr	r0, [sp, #4]
	.loc	2 954 5 is_stmt 0               @ rt-thread/src/ipc.c:954:5
	bl	rt_object_detach
	movs	r0, #0
	.loc	2 956 5 is_stmt 1               @ rt-thread/src/ipc.c:956:5
	add	sp, #8
	pop	{r7, pc}
.Ltmp356:
.Lfunc_end21:
	.size	rt_event_detach, .Lfunc_end21-rt_event_detach
	.cfi_endproc
	.cantunwind
	.fnend
                                        @ -- End function
	.section	.text.rt_event_create,"ax",%progbits
	.hidden	rt_event_create                 @ -- Begin function rt_event_create
	.globl	rt_event_create
	.p2align	3
	.type	rt_event_create,%function
	.code	16                              @ @rt_event_create
	.thumb_func
rt_event_create:
.Lfunc_begin22:
	.loc	2 970 0                         @ rt-thread/src/ipc.c:970:0
	.fnstart
	.cfi_startproc
@ %bb.0:
	.save	{r7, lr}
	push	{r7, lr}
	.cfi_def_cfa_offset 8
	.cfi_offset lr, -4
	.cfi_offset r7, -8
	.pad	#24
	sub	sp, #24
	.cfi_def_cfa_offset 32
                                        @ kill: def $r2 killed $r1
	str	r0, [sp, #16]
	strb.w	r1, [sp, #15]
.Ltmp357:
	.loc	2 973 5 prologue_end            @ rt-thread/src/ipc.c:973:5
	b	.LBB22_1
.LBB22_1:
.Ltmp358:
	.loc	2 973 5 is_stmt 0               @ rt-thread/src/ipc.c:973:5
	bl	rt_hw_interrupt_disable
	str	r0, [sp, #4]
.Ltmp359:
	.loc	2 973 5                         @ rt-thread/src/ipc.c:973:5
	bl	rt_interrupt_get_nest
.Ltmp360:
	.loc	2 973 5                         @ rt-thread/src/ipc.c:973:5
	cbz	r0, .LBB22_3
	b	.LBB22_2
.LBB22_2:
.Ltmp361:
	.loc	2 973 5                         @ rt-thread/src/ipc.c:973:5
	movw	r0, :lower16:.L.str.4
	movt	r0, :upper16:.L.str.4
	movw	r1, :lower16:.L__FUNCTION__.rt_event_create
	movt	r1, :upper16:.L__FUNCTION__.rt_event_create
	movw	r2, #973
	bl	rt_assert_handler
.Ltmp362:
	.loc	2 973 5                         @ rt-thread/src/ipc.c:973:5
	b	.LBB22_3
.Ltmp363:
.LBB22_3:
	.loc	2 973 5                         @ rt-thread/src/ipc.c:973:5
	ldr	r0, [sp, #4]
	bl	rt_hw_interrupt_enable
	b	.LBB22_4
.Ltmp364:
.LBB22_4:
	.loc	2 976 67 is_stmt 1              @ rt-thread/src/ipc.c:976:67
	ldr	r1, [sp, #16]
	movs	r0, #4
	.loc	2 976 25 is_stmt 0              @ rt-thread/src/ipc.c:976:25
	bl	rt_object_allocate
	.loc	2 976 11                        @ rt-thread/src/ipc.c:976:11
	str	r0, [sp, #8]
.Ltmp365:
	.loc	2 977 9 is_stmt 1               @ rt-thread/src/ipc.c:977:9
	ldr	r0, [sp, #8]
.Ltmp366:
	.loc	2 977 9 is_stmt 0               @ rt-thread/src/ipc.c:977:9
	cbnz	r0, .LBB22_6
	b	.LBB22_5
.LBB22_5:
.Ltmp367:
	.loc	2 978 16 is_stmt 1              @ rt-thread/src/ipc.c:978:16
	ldr	r0, [sp, #8]
	.loc	2 978 9 is_stmt 0               @ rt-thread/src/ipc.c:978:9
	str	r0, [sp, #20]
	b	.LBB22_7
.Ltmp368:
.LBB22_6:
	.loc	2 981 33 is_stmt 1              @ rt-thread/src/ipc.c:981:33
	ldrb.w	r0, [sp, #15]
	.loc	2 981 5 is_stmt 0               @ rt-thread/src/ipc.c:981:5
	ldr	r1, [sp, #8]
	.loc	2 981 31                        @ rt-thread/src/ipc.c:981:31
	strb	r0, [r1, #9]
	.loc	2 984 26 is_stmt 1              @ rt-thread/src/ipc.c:984:26
	ldr	r0, [sp, #8]
	.loc	2 984 5 is_stmt 0               @ rt-thread/src/ipc.c:984:5
	bl	rt_ipc_object_init
	.loc	2 987 5 is_stmt 1               @ rt-thread/src/ipc.c:987:5
	ldr	r1, [sp, #8]
	movs	r0, #0
	.loc	2 987 16 is_stmt 0              @ rt-thread/src/ipc.c:987:16
	str	r0, [r1, #28]
	.loc	2 989 12 is_stmt 1              @ rt-thread/src/ipc.c:989:12
	ldr	r0, [sp, #8]
	.loc	2 989 5 is_stmt 0               @ rt-thread/src/ipc.c:989:5
	str	r0, [sp, #20]
	b	.LBB22_7
.LBB22_7:
	.loc	2 990 1 is_stmt 1               @ rt-thread/src/ipc.c:990:1
	ldr	r0, [sp, #20]
	add	sp, #24
	pop	{r7, pc}
.Ltmp369:
.Lfunc_end22:
	.size	rt_event_create, .Lfunc_end22-rt_event_create
	.cfi_endproc
	.cantunwind
	.fnend
                                        @ -- End function
	.section	.text.rt_event_delete,"ax",%progbits
	.hidden	rt_event_delete                 @ -- Begin function rt_event_delete
	.globl	rt_event_delete
	.p2align	3
	.type	rt_event_delete,%function
	.code	16                              @ @rt_event_delete
	.thumb_func
rt_event_delete:
.Lfunc_begin23:
	.loc	2 1001 0                        @ rt-thread/src/ipc.c:1001:0
	.fnstart
	.cfi_startproc
@ %bb.0:
	.save	{r7, lr}
	push	{r7, lr}
	.cfi_def_cfa_offset 8
	.cfi_offset lr, -4
	.cfi_offset r7, -8
	.pad	#8
	sub	sp, #8
	.cfi_def_cfa_offset 16
	str	r0, [sp, #4]
.Ltmp370:
	.loc	2 1003 5 prologue_end           @ rt-thread/src/ipc.c:1003:5
	ldr	r0, [sp, #4]
.Ltmp371:
	.loc	2 1003 5 is_stmt 0              @ rt-thread/src/ipc.c:1003:5
	cbnz	r0, .LBB23_2
	b	.LBB23_1
.LBB23_1:
.Ltmp372:
	.loc	2 1003 5                        @ rt-thread/src/ipc.c:1003:5
	movw	r0, :lower16:.L.str.11
	movt	r0, :upper16:.L.str.11
	movw	r1, :lower16:.L__FUNCTION__.rt_event_delete
	movt	r1, :upper16:.L__FUNCTION__.rt_event_delete
	movw	r2, #1003
	bl	rt_assert_handler
	b	.LBB23_2
.Ltmp373:
.LBB23_2:
	.loc	2 1004 5 is_stmt 1              @ rt-thread/src/ipc.c:1004:5
	ldr	r0, [sp, #4]
	bl	rt_object_get_type
.Ltmp374:
	.loc	2 1004 5 is_stmt 0              @ rt-thread/src/ipc.c:1004:5
	cmp	r0, #4
	beq	.LBB23_4
	b	.LBB23_3
.LBB23_3:
.Ltmp375:
	.loc	2 1004 5                        @ rt-thread/src/ipc.c:1004:5
	movw	r0, :lower16:.L.str.12
	movt	r0, :upper16:.L.str.12
	movw	r1, :lower16:.L__FUNCTION__.rt_event_delete
	movt	r1, :upper16:.L__FUNCTION__.rt_event_delete
	mov.w	r2, #1004
	bl	rt_assert_handler
	b	.LBB23_4
.Ltmp376:
.LBB23_4:
	.loc	2 1005 5 is_stmt 1              @ rt-thread/src/ipc.c:1005:5
	ldr	r0, [sp, #4]
	bl	rt_object_is_systemobject
.Ltmp377:
	.loc	2 1005 5 is_stmt 0              @ rt-thread/src/ipc.c:1005:5
	cbz	r0, .LBB23_6
	b	.LBB23_5
.LBB23_5:
.Ltmp378:
	.loc	2 1005 5                        @ rt-thread/src/ipc.c:1005:5
	movw	r0, :lower16:.L.str.14
	movt	r0, :upper16:.L.str.14
	movw	r1, :lower16:.L__FUNCTION__.rt_event_delete
	movt	r1, :upper16:.L__FUNCTION__.rt_event_delete
	movw	r2, #1005
	bl	rt_assert_handler
	b	.LBB23_6
.Ltmp379:
.LBB23_6:
	.loc	2 1007 5 is_stmt 1              @ rt-thread/src/ipc.c:1007:5
	b	.LBB23_7
.LBB23_7:
.Ltmp380:
	.loc	2 1007 5 is_stmt 0              @ rt-thread/src/ipc.c:1007:5
	bl	rt_hw_interrupt_disable
	str	r0, [sp]
.Ltmp381:
	.loc	2 1007 5                        @ rt-thread/src/ipc.c:1007:5
	bl	rt_interrupt_get_nest
.Ltmp382:
	.loc	2 1007 5                        @ rt-thread/src/ipc.c:1007:5
	cbz	r0, .LBB23_9
	b	.LBB23_8
.LBB23_8:
.Ltmp383:
	.loc	2 1007 5                        @ rt-thread/src/ipc.c:1007:5
	movw	r0, :lower16:.L.str.4
	movt	r0, :upper16:.L.str.4
	movw	r1, :lower16:.L__FUNCTION__.rt_event_delete
	movt	r1, :upper16:.L__FUNCTION__.rt_event_delete
	movw	r2, #1007
	bl	rt_assert_handler
.Ltmp384:
	.loc	2 1007 5                        @ rt-thread/src/ipc.c:1007:5
	b	.LBB23_9
.Ltmp385:
.LBB23_9:
	.loc	2 1007 5                        @ rt-thread/src/ipc.c:1007:5
	ldr	r0, [sp]
	bl	rt_hw_interrupt_enable
	b	.LBB23_10
.Ltmp386:
.LBB23_10:
	.loc	2 1010 30 is_stmt 1             @ rt-thread/src/ipc.c:1010:30
	ldr	r0, [sp, #4]
	.loc	2 1010 44 is_stmt 0             @ rt-thread/src/ipc.c:1010:44
	adds	r0, #20
	.loc	2 1010 5                        @ rt-thread/src/ipc.c:1010:5
	bl	rt_ipc_list_resume_all
	.loc	2 1013 24 is_stmt 1             @ rt-thread/src/ipc.c:1013:24
	ldr	r0, [sp, #4]
	.loc	2 1013 5 is_stmt 0              @ rt-thread/src/ipc.c:1013:5
	bl	rt_object_delete
	movs	r0, #0
	.loc	2 1015 5 is_stmt 1              @ rt-thread/src/ipc.c:1015:5
	add	sp, #8
	pop	{r7, pc}
.Ltmp387:
.Lfunc_end23:
	.size	rt_event_delete, .Lfunc_end23-rt_event_delete
	.cfi_endproc
	.cantunwind
	.fnend
                                        @ -- End function
	.section	.text.rt_event_send,"ax",%progbits
	.hidden	rt_event_send                   @ -- Begin function rt_event_send
	.globl	rt_event_send
	.p2align	3
	.type	rt_event_send,%function
	.code	16                              @ @rt_event_send
	.thumb_func
rt_event_send:
.Lfunc_begin24:
	.loc	2 1030 0                        @ rt-thread/src/ipc.c:1030:0
	.fnstart
	.cfi_startproc
@ %bb.0:
	.save	{r7, lr}
	push	{r7, lr}
	.cfi_def_cfa_offset 8
	.cfi_offset lr, -4
	.cfi_offset r7, -8
	.pad	#32
	sub	sp, #32
	.cfi_def_cfa_offset 40
	str	r0, [sp, #24]
	str	r1, [sp, #20]
.Ltmp388:
	.loc	2 1038 5 prologue_end           @ rt-thread/src/ipc.c:1038:5
	ldr	r0, [sp, #24]
.Ltmp389:
	.loc	2 1038 5 is_stmt 0              @ rt-thread/src/ipc.c:1038:5
	cbnz	r0, .LBB24_2
	b	.LBB24_1
.LBB24_1:
.Ltmp390:
	.loc	2 1038 5                        @ rt-thread/src/ipc.c:1038:5
	movw	r0, :lower16:.L.str.11
	movt	r0, :upper16:.L.str.11
	movw	r1, :lower16:.L__FUNCTION__.rt_event_send
	movt	r1, :upper16:.L__FUNCTION__.rt_event_send
	movw	r2, #1038
	bl	rt_assert_handler
	b	.LBB24_2
.Ltmp391:
.LBB24_2:
	.loc	2 1039 5 is_stmt 1              @ rt-thread/src/ipc.c:1039:5
	ldr	r0, [sp, #24]
	bl	rt_object_get_type
.Ltmp392:
	.loc	2 1039 5 is_stmt 0              @ rt-thread/src/ipc.c:1039:5
	cmp	r0, #4
	beq	.LBB24_4
	b	.LBB24_3
.LBB24_3:
.Ltmp393:
	.loc	2 1039 5                        @ rt-thread/src/ipc.c:1039:5
	movw	r0, :lower16:.L.str.12
	movt	r0, :upper16:.L.str.12
	movw	r1, :lower16:.L__FUNCTION__.rt_event_send
	movt	r1, :upper16:.L__FUNCTION__.rt_event_send
	movw	r2, #1039
	bl	rt_assert_handler
	b	.LBB24_4
.Ltmp394:
.LBB24_4:
	.loc	2 1041 9 is_stmt 1              @ rt-thread/src/ipc.c:1041:9
	ldr	r0, [sp, #20]
.Ltmp395:
	.loc	2 1041 9 is_stmt 0              @ rt-thread/src/ipc.c:1041:9
	cbnz	r0, .LBB24_6
	b	.LBB24_5
.LBB24_5:
	.loc	2 0 9                           @ rt-thread/src/ipc.c:0:9
	mov.w	r0, #-1
.Ltmp396:
	.loc	2 1042 9 is_stmt 1              @ rt-thread/src/ipc.c:1042:9
	str	r0, [sp, #28]
	b	.LBB24_31
.Ltmp397:
.LBB24_6:
	.loc	2 0 9 is_stmt 0                 @ rt-thread/src/ipc.c:0:9
	movs	r0, #0
	.loc	2 1044 19 is_stmt 1             @ rt-thread/src/ipc.c:1044:19
	str	r0, [sp]
	.loc	2 1047 13                       @ rt-thread/src/ipc.c:1047:13
	bl	rt_hw_interrupt_disable
	.loc	2 1047 11 is_stmt 0             @ rt-thread/src/ipc.c:1047:11
	str	r0, [sp, #8]
	.loc	2 1050 19 is_stmt 1             @ rt-thread/src/ipc.c:1050:19
	ldr	r2, [sp, #20]
	.loc	2 1050 5 is_stmt 0              @ rt-thread/src/ipc.c:1050:5
	ldr	r1, [sp, #24]
	.loc	2 1050 16                       @ rt-thread/src/ipc.c:1050:16
	ldr	r0, [r1, #28]
	orrs	r0, r2
	str	r0, [r1, #28]
	.loc	2 1052 5 is_stmt 1              @ rt-thread/src/ipc.c:1052:5
	b	.LBB24_7
.LBB24_7:
.Ltmp398:
	.loc	2 1052 5 is_stmt 0              @ rt-thread/src/ipc.c:1052:5
	movw	r0, :lower16:rt_object_put_hook
	movt	r0, :upper16:rt_object_put_hook
	ldr	r0, [r0]
.Ltmp399:
	.loc	2 1052 5                        @ rt-thread/src/ipc.c:1052:5
	cbz	r0, .LBB24_9
	b	.LBB24_8
.LBB24_8:
.Ltmp400:
	.loc	2 1052 5                        @ rt-thread/src/ipc.c:1052:5
	movw	r0, :lower16:rt_object_put_hook
	movt	r0, :upper16:rt_object_put_hook
	ldr	r1, [r0]
	ldr	r0, [sp, #24]
	blx	r1
	b	.LBB24_9
.Ltmp401:
.LBB24_9:
	.loc	2 1052 5                        @ rt-thread/src/ipc.c:1052:5
	b	.LBB24_10
.Ltmp402:
.LBB24_10:
	.loc	2 1054 27 is_stmt 1             @ rt-thread/src/ipc.c:1054:27
	ldr	r0, [sp, #24]
	.loc	2 1054 41 is_stmt 0             @ rt-thread/src/ipc.c:1054:41
	adds	r0, #20
	.loc	2 1054 10                       @ rt-thread/src/ipc.c:1054:10
	bl	rt_list_isempty
.Ltmp403:
	.loc	2 1054 9                        @ rt-thread/src/ipc.c:1054:9
	cmp	r0, #0
	bne	.LBB24_28
	b	.LBB24_11
.LBB24_11:
.Ltmp404:
	.loc	2 1057 13 is_stmt 1             @ rt-thread/src/ipc.c:1057:13
	ldr	r0, [sp, #24]
	.loc	2 1057 42 is_stmt 0             @ rt-thread/src/ipc.c:1057:42
	ldr	r0, [r0, #20]
	.loc	2 1057 11                       @ rt-thread/src/ipc.c:1057:11
	str	r0, [sp, #16]
	.loc	2 1058 9 is_stmt 1              @ rt-thread/src/ipc.c:1058:9
	b	.LBB24_12
.LBB24_12:                              @ =>This Inner Loop Header: Depth=1
	.loc	2 1058 16 is_stmt 0             @ rt-thread/src/ipc.c:1058:16
	ldr	r0, [sp, #16]
	.loc	2 1058 23                       @ rt-thread/src/ipc.c:1058:23
	ldr	r1, [sp, #24]
	.loc	2 1058 37                       @ rt-thread/src/ipc.c:1058:37
	adds	r1, #20
	.loc	2 1058 9                        @ rt-thread/src/ipc.c:1058:9
	cmp	r0, r1
	beq	.LBB24_27
	b	.LBB24_13
.LBB24_13:                              @   in Loop: Header=BB24_12 Depth=1
.Ltmp405:
	.loc	2 1061 22 is_stmt 1             @ rt-thread/src/ipc.c:1061:22
	ldr	r0, [sp, #16]
	subs	r0, #20
	.loc	2 1061 20 is_stmt 0             @ rt-thread/src/ipc.c:1061:20
	str	r0, [sp, #12]
	mov.w	r0, #-1
	.loc	2 1063 20 is_stmt 1             @ rt-thread/src/ipc.c:1063:20
	str	r0, [sp, #4]
.Ltmp406:
	.loc	2 1064 17                       @ rt-thread/src/ipc.c:1064:17
	ldr	r0, [sp, #12]
	ldrb.w	r0, [r0, #64]
.Ltmp407:
	.loc	2 1064 17 is_stmt 0             @ rt-thread/src/ipc.c:1064:17
	lsls	r0, r0, #31
	cbz	r0, .LBB24_17
	b	.LBB24_14
.LBB24_14:                              @   in Loop: Header=BB24_12 Depth=1
.Ltmp408:
	.loc	2 1066 22 is_stmt 1             @ rt-thread/src/ipc.c:1066:22
	ldr	r0, [sp, #12]
	.loc	2 1066 30 is_stmt 0             @ rt-thread/src/ipc.c:1066:30
	ldr	r1, [r0, #60]
	.loc	2 1066 42                       @ rt-thread/src/ipc.c:1066:42
	ldr	r0, [sp, #24]
	.loc	2 1066 49                       @ rt-thread/src/ipc.c:1066:49
	ldr	r0, [r0, #28]
	.loc	2 1066 40                       @ rt-thread/src/ipc.c:1066:40
	ands	r0, r1
.Ltmp409:
	.loc	2 1066 21                       @ rt-thread/src/ipc.c:1066:21
	cmp	r0, r1
	bne	.LBB24_16
	b	.LBB24_15
.LBB24_15:                              @   in Loop: Header=BB24_12 Depth=1
	.loc	2 0 21                          @ rt-thread/src/ipc.c:0:21
	movs	r0, #0
.Ltmp410:
	.loc	2 1069 28 is_stmt 1             @ rt-thread/src/ipc.c:1069:28
	str	r0, [sp, #4]
	.loc	2 1070 17                       @ rt-thread/src/ipc.c:1070:17
	b	.LBB24_16
.Ltmp411:
.LBB24_16:                              @   in Loop: Header=BB24_12 Depth=1
	.loc	2 1071 13                       @ rt-thread/src/ipc.c:1071:13
	b	.LBB24_22
.Ltmp412:
.LBB24_17:                              @   in Loop: Header=BB24_12 Depth=1
	.loc	2 1072 22                       @ rt-thread/src/ipc.c:1072:22
	ldr	r0, [sp, #12]
	ldrb.w	r0, [r0, #64]
.Ltmp413:
	.loc	2 1072 22 is_stmt 0             @ rt-thread/src/ipc.c:1072:22
	lsls	r0, r0, #30
	cmp	r0, #0
	bpl	.LBB24_21
	b	.LBB24_18
.LBB24_18:                              @   in Loop: Header=BB24_12 Depth=1
.Ltmp414:
	.loc	2 1074 21 is_stmt 1             @ rt-thread/src/ipc.c:1074:21
	ldr	r0, [sp, #12]
	.loc	2 1074 29 is_stmt 0             @ rt-thread/src/ipc.c:1074:29
	ldr	r0, [r0, #60]
	.loc	2 1074 41                       @ rt-thread/src/ipc.c:1074:41
	ldr	r1, [sp, #24]
	.loc	2 1074 48                       @ rt-thread/src/ipc.c:1074:48
	ldr	r1, [r1, #28]
.Ltmp415:
	.loc	2 1074 21                       @ rt-thread/src/ipc.c:1074:21
	tst	r0, r1
	beq	.LBB24_20
	b	.LBB24_19
.LBB24_19:                              @   in Loop: Header=BB24_12 Depth=1
.Ltmp416:
	.loc	2 1077 41 is_stmt 1             @ rt-thread/src/ipc.c:1077:41
	ldr	r1, [sp, #12]
	.loc	2 1077 49 is_stmt 0             @ rt-thread/src/ipc.c:1077:49
	ldr	r0, [r1, #60]
	.loc	2 1077 61                       @ rt-thread/src/ipc.c:1077:61
	ldr	r2, [sp, #24]
	.loc	2 1077 68                       @ rt-thread/src/ipc.c:1077:68
	ldr	r2, [r2, #28]
	.loc	2 1077 59                       @ rt-thread/src/ipc.c:1077:59
	ands	r0, r2
	.loc	2 1077 39                       @ rt-thread/src/ipc.c:1077:39
	str	r0, [r1, #60]
	movs	r0, #0
	.loc	2 1080 28 is_stmt 1             @ rt-thread/src/ipc.c:1080:28
	str	r0, [sp, #4]
	.loc	2 1081 17                       @ rt-thread/src/ipc.c:1081:17
	b	.LBB24_20
.Ltmp417:
.LBB24_20:                              @   in Loop: Header=BB24_12 Depth=1
	.loc	2 1082 13                       @ rt-thread/src/ipc.c:1082:13
	b	.LBB24_21
.Ltmp418:
.LBB24_21:                              @   in Loop: Header=BB24_12 Depth=1
	.loc	2 0 13 is_stmt 0                @ rt-thread/src/ipc.c:0:13
	b	.LBB24_22
.LBB24_22:                              @   in Loop: Header=BB24_12 Depth=1
	.loc	2 1085 17 is_stmt 1             @ rt-thread/src/ipc.c:1085:17
	ldr	r0, [sp, #16]
	.loc	2 1085 20 is_stmt 0             @ rt-thread/src/ipc.c:1085:20
	ldr	r0, [r0]
	.loc	2 1085 15                       @ rt-thread/src/ipc.c:1085:15
	str	r0, [sp, #16]
.Ltmp419:
	.loc	2 1088 17 is_stmt 1             @ rt-thread/src/ipc.c:1088:17
	ldr	r0, [sp, #4]
.Ltmp420:
	.loc	2 1088 17 is_stmt 0             @ rt-thread/src/ipc.c:1088:17
	cbnz	r0, .LBB24_26
	b	.LBB24_23
.LBB24_23:                              @   in Loop: Header=BB24_12 Depth=1
.Ltmp421:
	.loc	2 1091 21 is_stmt 1             @ rt-thread/src/ipc.c:1091:21
	ldr	r0, [sp, #12]
	ldrb.w	r0, [r0, #64]
.Ltmp422:
	.loc	2 1091 21 is_stmt 0             @ rt-thread/src/ipc.c:1091:21
	lsls	r0, r0, #29
	cmp	r0, #0
	bpl	.LBB24_25
	b	.LBB24_24
.LBB24_24:                              @   in Loop: Header=BB24_12 Depth=1
.Ltmp423:
	.loc	2 1092 36 is_stmt 1             @ rt-thread/src/ipc.c:1092:36
	ldr	r0, [sp, #12]
	.loc	2 1092 44 is_stmt 0             @ rt-thread/src/ipc.c:1092:44
	ldr	r2, [r0, #60]
	.loc	2 1092 21                       @ rt-thread/src/ipc.c:1092:21
	ldr	r1, [sp, #24]
	.loc	2 1092 32                       @ rt-thread/src/ipc.c:1092:32
	ldr	r0, [r1, #28]
	bics	r0, r2
	str	r0, [r1, #28]
	.loc	2 1092 21                       @ rt-thread/src/ipc.c:1092:21
	b	.LBB24_25
.Ltmp424:
.LBB24_25:                              @   in Loop: Header=BB24_12 Depth=1
	.loc	2 1095 34 is_stmt 1             @ rt-thread/src/ipc.c:1095:34
	ldr	r0, [sp, #12]
	.loc	2 1095 17 is_stmt 0             @ rt-thread/src/ipc.c:1095:17
	bl	rt_thread_resume
	movs	r0, #1
	.loc	2 1098 31 is_stmt 1             @ rt-thread/src/ipc.c:1098:31
	str	r0, [sp]
	.loc	2 1099 13                       @ rt-thread/src/ipc.c:1099:13
	b	.LBB24_26
.Ltmp425:
.LBB24_26:                              @   in Loop: Header=BB24_12 Depth=1
	.loc	2 1058 9                        @ rt-thread/src/ipc.c:1058:9
	b	.LBB24_12
.LBB24_27:
	.loc	2 1101 5                        @ rt-thread/src/ipc.c:1101:5
	b	.LBB24_28
.Ltmp426:
.LBB24_28:
	.loc	2 1104 28                       @ rt-thread/src/ipc.c:1104:28
	ldr	r0, [sp, #8]
	.loc	2 1104 5 is_stmt 0              @ rt-thread/src/ipc.c:1104:5
	bl	rt_hw_interrupt_enable
.Ltmp427:
	.loc	2 1107 9 is_stmt 1              @ rt-thread/src/ipc.c:1107:9
	ldr	r0, [sp]
.Ltmp428:
	.loc	2 1107 9 is_stmt 0              @ rt-thread/src/ipc.c:1107:9
	cmp	r0, #1
	bne	.LBB24_30
	b	.LBB24_29
.LBB24_29:
.Ltmp429:
	.loc	2 1108 9 is_stmt 1              @ rt-thread/src/ipc.c:1108:9
	bl	rt_schedule
	b	.LBB24_30
.Ltmp430:
.LBB24_30:
	.loc	2 0 9 is_stmt 0                 @ rt-thread/src/ipc.c:0:9
	movs	r0, #0
	.loc	2 1110 5 is_stmt 1              @ rt-thread/src/ipc.c:1110:5
	str	r0, [sp, #28]
	b	.LBB24_31
.LBB24_31:
	.loc	2 1111 1                        @ rt-thread/src/ipc.c:1111:1
	ldr	r0, [sp, #28]
	add	sp, #32
	pop	{r7, pc}
.Ltmp431:
.Lfunc_end24:
	.size	rt_event_send, .Lfunc_end24-rt_event_send
	.cfi_endproc
	.cantunwind
	.fnend
                                        @ -- End function
	.section	.text.rt_event_recv,"ax",%progbits
	.hidden	rt_event_recv                   @ -- Begin function rt_event_recv
	.globl	rt_event_recv
	.p2align	3
	.type	rt_event_recv,%function
	.code	16                              @ @rt_event_recv
	.thumb_func
rt_event_recv:
.Lfunc_begin25:
	.loc	2 1132 0                        @ rt-thread/src/ipc.c:1132:0
	.fnstart
	.cfi_startproc
@ %bb.0:
	.save	{r7, lr}
	push	{r7, lr}
	.cfi_def_cfa_offset 8
	.cfi_offset lr, -4
	.cfi_offset r7, -8
	.pad	#48
	sub	sp, #48
	.cfi_def_cfa_offset 56
	ldr.w	r12, [sp, #56]
                                        @ kill: def $r12 killed $r2
	str	r0, [sp, #40]
	str	r1, [sp, #36]
	strb.w	r2, [sp, #35]
	str	r3, [sp, #28]
.Ltmp432:
	.loc	2 1137 5 prologue_end           @ rt-thread/src/ipc.c:1137:5
	b	.LBB25_1
.LBB25_1:
.Ltmp433:
	.loc	2 1137 5 is_stmt 0              @ rt-thread/src/ipc.c:1137:5
	bl	rt_hw_interrupt_disable
	str	r0, [sp, #12]
.Ltmp434:
	.loc	2 1137 5                        @ rt-thread/src/ipc.c:1137:5
	bl	rt_thread_self
.Ltmp435:
	.loc	2 1137 5                        @ rt-thread/src/ipc.c:1137:5
	cbnz	r0, .LBB25_3
	b	.LBB25_2
.LBB25_2:
.Ltmp436:
	.loc	2 1137 5                        @ rt-thread/src/ipc.c:1137:5
	movw	r0, :lower16:.L.str.6
	movt	r0, :upper16:.L.str.6
	movw	r1, :lower16:.L__FUNCTION__.rt_event_recv
	movt	r1, :upper16:.L__FUNCTION__.rt_event_recv
	str	r1, [sp, #4]                    @ 4-byte Spill
	bl	rt_kprintf
	ldr	r1, [sp, #4]                    @ 4-byte Reload
.Ltmp437:
	.loc	2 1137 5                        @ rt-thread/src/ipc.c:1137:5
	movw	r0, :lower16:.L.str.4
	movt	r0, :upper16:.L.str.4
	movw	r2, #1137
	bl	rt_assert_handler
.Ltmp438:
	.loc	2 1137 5                        @ rt-thread/src/ipc.c:1137:5
	b	.LBB25_3
.Ltmp439:
.LBB25_3:
	.loc	2 1137 5                        @ rt-thread/src/ipc.c:1137:5
	b	.LBB25_4
.LBB25_4:
.Ltmp440:
	.loc	2 1137 5                        @ rt-thread/src/ipc.c:1137:5
	bl	rt_hw_interrupt_disable
	str	r0, [sp, #8]
.Ltmp441:
	.loc	2 1137 5                        @ rt-thread/src/ipc.c:1137:5
	bl	rt_interrupt_get_nest
.Ltmp442:
	.loc	2 1137 5                        @ rt-thread/src/ipc.c:1137:5
	cbz	r0, .LBB25_6
	b	.LBB25_5
.LBB25_5:
.Ltmp443:
	.loc	2 1137 5                        @ rt-thread/src/ipc.c:1137:5
	movw	r0, :lower16:.L.str.4
	movt	r0, :upper16:.L.str.4
	movw	r1, :lower16:.L__FUNCTION__.rt_event_recv
	movt	r1, :upper16:.L__FUNCTION__.rt_event_recv
	movw	r2, #1137
	bl	rt_assert_handler
.Ltmp444:
	.loc	2 1137 5                        @ rt-thread/src/ipc.c:1137:5
	b	.LBB25_6
.Ltmp445:
.LBB25_6:
	.loc	2 1137 5                        @ rt-thread/src/ipc.c:1137:5
	ldr	r0, [sp, #8]
	bl	rt_hw_interrupt_enable
	b	.LBB25_7
.Ltmp446:
.LBB25_7:
	.loc	2 1137 5                        @ rt-thread/src/ipc.c:1137:5
	ldr	r0, [sp, #12]
	bl	rt_hw_interrupt_enable
	b	.LBB25_8
.Ltmp447:
.LBB25_8:
	.loc	2 1140 5 is_stmt 1              @ rt-thread/src/ipc.c:1140:5
	ldr	r0, [sp, #40]
.Ltmp448:
	.loc	2 1140 5 is_stmt 0              @ rt-thread/src/ipc.c:1140:5
	cbnz	r0, .LBB25_10
	b	.LBB25_9
.LBB25_9:
.Ltmp449:
	.loc	2 1140 5                        @ rt-thread/src/ipc.c:1140:5
	movw	r0, :lower16:.L.str.11
	movt	r0, :upper16:.L.str.11
	movw	r1, :lower16:.L__FUNCTION__.rt_event_recv
	movt	r1, :upper16:.L__FUNCTION__.rt_event_recv
	movw	r2, #1140
	bl	rt_assert_handler
	b	.LBB25_10
.Ltmp450:
.LBB25_10:
	.loc	2 1141 5 is_stmt 1              @ rt-thread/src/ipc.c:1141:5
	ldr	r0, [sp, #40]
	bl	rt_object_get_type
.Ltmp451:
	.loc	2 1141 5 is_stmt 0              @ rt-thread/src/ipc.c:1141:5
	cmp	r0, #4
	beq	.LBB25_12
	b	.LBB25_11
.LBB25_11:
.Ltmp452:
	.loc	2 1141 5                        @ rt-thread/src/ipc.c:1141:5
	movw	r0, :lower16:.L.str.12
	movt	r0, :upper16:.L.str.12
	movw	r1, :lower16:.L__FUNCTION__.rt_event_recv
	movt	r1, :upper16:.L__FUNCTION__.rt_event_recv
	movw	r2, #1141
	bl	rt_assert_handler
	b	.LBB25_12
.Ltmp453:
.LBB25_12:
	.loc	2 1143 9 is_stmt 1              @ rt-thread/src/ipc.c:1143:9
	ldr	r0, [sp, #36]
.Ltmp454:
	.loc	2 1143 9 is_stmt 0              @ rt-thread/src/ipc.c:1143:9
	cbnz	r0, .LBB25_14
	b	.LBB25_13
.LBB25_13:
	.loc	2 0 9                           @ rt-thread/src/ipc.c:0:9
	mov.w	r0, #-1
.Ltmp455:
	.loc	2 1144 9 is_stmt 1              @ rt-thread/src/ipc.c:1144:9
	str	r0, [sp, #44]
	b	.LBB25_49
.Ltmp456:
.LBB25_14:
	.loc	2 0 9 is_stmt 0                 @ rt-thread/src/ipc.c:0:9
	mov.w	r0, #-1
	.loc	2 1147 12 is_stmt 1             @ rt-thread/src/ipc.c:1147:12
	str	r0, [sp, #16]
	.loc	2 1149 14                       @ rt-thread/src/ipc.c:1149:14
	bl	rt_thread_self
	.loc	2 1149 12 is_stmt 0             @ rt-thread/src/ipc.c:1149:12
	str	r0, [sp, #24]
	.loc	2 1151 5 is_stmt 1              @ rt-thread/src/ipc.c:1151:5
	ldr	r1, [sp, #24]
	movs	r0, #0
	.loc	2 1151 19 is_stmt 0             @ rt-thread/src/ipc.c:1151:19
	str	r0, [r1, #48]
	.loc	2 1153 5 is_stmt 1              @ rt-thread/src/ipc.c:1153:5
	b	.LBB25_15
.LBB25_15:
.Ltmp457:
	.loc	2 1153 5 is_stmt 0              @ rt-thread/src/ipc.c:1153:5
	movw	r0, :lower16:rt_object_trytake_hook
	movt	r0, :upper16:rt_object_trytake_hook
	ldr	r0, [r0]
.Ltmp458:
	.loc	2 1153 5                        @ rt-thread/src/ipc.c:1153:5
	cbz	r0, .LBB25_17
	b	.LBB25_16
.LBB25_16:
.Ltmp459:
	.loc	2 1153 5                        @ rt-thread/src/ipc.c:1153:5
	movw	r0, :lower16:rt_object_trytake_hook
	movt	r0, :upper16:rt_object_trytake_hook
	ldr	r1, [r0]
	ldr	r0, [sp, #40]
	blx	r1
	b	.LBB25_17
.Ltmp460:
.LBB25_17:
	.loc	2 1153 5                        @ rt-thread/src/ipc.c:1153:5
	b	.LBB25_18
.Ltmp461:
.LBB25_18:
	.loc	2 1156 13 is_stmt 1             @ rt-thread/src/ipc.c:1156:13
	bl	rt_hw_interrupt_disable
	.loc	2 1156 11 is_stmt 0             @ rt-thread/src/ipc.c:1156:11
	str	r0, [sp, #20]
.Ltmp462:
	.loc	2 1159 9 is_stmt 1              @ rt-thread/src/ipc.c:1159:9
	ldrb.w	r0, [sp, #35]
.Ltmp463:
	.loc	2 1159 9 is_stmt 0              @ rt-thread/src/ipc.c:1159:9
	lsls	r0, r0, #31
	cbz	r0, .LBB25_22
	b	.LBB25_19
.LBB25_19:
.Ltmp464:
	.loc	2 1161 14 is_stmt 1             @ rt-thread/src/ipc.c:1161:14
	ldr	r0, [sp, #40]
	.loc	2 1161 21 is_stmt 0             @ rt-thread/src/ipc.c:1161:21
	ldr	r0, [r0, #28]
	.loc	2 1161 27                       @ rt-thread/src/ipc.c:1161:27
	ldr	r1, [sp, #36]
	.loc	2 1161 25                       @ rt-thread/src/ipc.c:1161:25
	ands	r0, r1
.Ltmp465:
	.loc	2 1161 13                       @ rt-thread/src/ipc.c:1161:13
	cmp	r0, r1
	bne	.LBB25_21
	b	.LBB25_20
.LBB25_20:
	.loc	2 0 13                          @ rt-thread/src/ipc.c:0:13
	movs	r0, #0
.Ltmp466:
	.loc	2 1162 20 is_stmt 1             @ rt-thread/src/ipc.c:1162:20
	str	r0, [sp, #16]
	.loc	2 1162 13 is_stmt 0             @ rt-thread/src/ipc.c:1162:13
	b	.LBB25_21
.Ltmp467:
.LBB25_21:
	.loc	2 1163 5 is_stmt 1              @ rt-thread/src/ipc.c:1163:5
	b	.LBB25_28
.Ltmp468:
.LBB25_22:
	.loc	2 1164 14                       @ rt-thread/src/ipc.c:1164:14
	ldrb.w	r0, [sp, #35]
.Ltmp469:
	.loc	2 1164 14 is_stmt 0             @ rt-thread/src/ipc.c:1164:14
	lsls	r0, r0, #30
	cmp	r0, #0
	bpl	.LBB25_26
	b	.LBB25_23
.LBB25_23:
.Ltmp470:
	.loc	2 1166 13 is_stmt 1             @ rt-thread/src/ipc.c:1166:13
	ldr	r0, [sp, #40]
	.loc	2 1166 20 is_stmt 0             @ rt-thread/src/ipc.c:1166:20
	ldr	r0, [r0, #28]
	.loc	2 1166 26                       @ rt-thread/src/ipc.c:1166:26
	ldr	r1, [sp, #36]
.Ltmp471:
	.loc	2 1166 13                       @ rt-thread/src/ipc.c:1166:13
	tst	r0, r1
	beq	.LBB25_25
	b	.LBB25_24
.LBB25_24:
	.loc	2 0 13                          @ rt-thread/src/ipc.c:0:13
	movs	r0, #0
.Ltmp472:
	.loc	2 1167 20 is_stmt 1             @ rt-thread/src/ipc.c:1167:20
	str	r0, [sp, #16]
	.loc	2 1167 13 is_stmt 0             @ rt-thread/src/ipc.c:1167:13
	b	.LBB25_25
.Ltmp473:
.LBB25_25:
	.loc	2 1168 5 is_stmt 1              @ rt-thread/src/ipc.c:1168:5
	b	.LBB25_27
.Ltmp474:
.LBB25_26:
	.loc	2 1172 9                        @ rt-thread/src/ipc.c:1172:9
	movw	r0, :lower16:.L.str.4
	movt	r0, :upper16:.L.str.4
	movw	r1, :lower16:.L__FUNCTION__.rt_event_recv
	movt	r1, :upper16:.L__FUNCTION__.rt_event_recv
	movw	r2, #1172
	bl	rt_assert_handler
	b	.LBB25_27
.Ltmp475:
.LBB25_27:
	.loc	2 0 9 is_stmt 0                 @ rt-thread/src/ipc.c:0:9
	b	.LBB25_28
.LBB25_28:
.Ltmp476:
	.loc	2 1175 9 is_stmt 1              @ rt-thread/src/ipc.c:1175:9
	ldr	r0, [sp, #16]
.Ltmp477:
	.loc	2 1175 9 is_stmt 0              @ rt-thread/src/ipc.c:1175:9
	cbnz	r0, .LBB25_34
	b	.LBB25_29
.LBB25_29:
.Ltmp478:
	.loc	2 1178 13 is_stmt 1             @ rt-thread/src/ipc.c:1178:13
	ldr	r0, [sp, #56]
.Ltmp479:
	.loc	2 1178 13 is_stmt 0             @ rt-thread/src/ipc.c:1178:13
	cbz	r0, .LBB25_31
	b	.LBB25_30
.LBB25_30:
.Ltmp480:
	.loc	2 1179 24 is_stmt 1             @ rt-thread/src/ipc.c:1179:24
	ldr	r0, [sp, #40]
	.loc	2 1179 31 is_stmt 0             @ rt-thread/src/ipc.c:1179:31
	ldr	r0, [r0, #28]
	.loc	2 1179 37                       @ rt-thread/src/ipc.c:1179:37
	ldr	r1, [sp, #36]
	.loc	2 1179 35                       @ rt-thread/src/ipc.c:1179:35
	ands	r0, r1
	.loc	2 1179 14                       @ rt-thread/src/ipc.c:1179:14
	ldr	r1, [sp, #56]
	.loc	2 1179 21                       @ rt-thread/src/ipc.c:1179:21
	str	r0, [r1]
	.loc	2 1179 13                       @ rt-thread/src/ipc.c:1179:13
	b	.LBB25_31
.Ltmp481:
.LBB25_31:
	.loc	2 1182 13 is_stmt 1             @ rt-thread/src/ipc.c:1182:13
	ldrb.w	r0, [sp, #35]
.Ltmp482:
	.loc	2 1182 13 is_stmt 0             @ rt-thread/src/ipc.c:1182:13
	lsls	r0, r0, #29
	cmp	r0, #0
	bpl	.LBB25_33
	b	.LBB25_32
.LBB25_32:
.Ltmp483:
	.loc	2 1183 28 is_stmt 1             @ rt-thread/src/ipc.c:1183:28
	ldr	r2, [sp, #36]
	.loc	2 1183 13 is_stmt 0             @ rt-thread/src/ipc.c:1183:13
	ldr	r1, [sp, #40]
	.loc	2 1183 24                       @ rt-thread/src/ipc.c:1183:24
	ldr	r0, [r1, #28]
	bics	r0, r2
	str	r0, [r1, #28]
	.loc	2 1183 13                       @ rt-thread/src/ipc.c:1183:13
	b	.LBB25_33
.Ltmp484:
.LBB25_33:
	.loc	2 1184 5 is_stmt 1              @ rt-thread/src/ipc.c:1184:5
	b	.LBB25_44
.Ltmp485:
.LBB25_34:
	.loc	2 1185 14                       @ rt-thread/src/ipc.c:1185:14
	ldr	r0, [sp, #28]
.Ltmp486:
	.loc	2 1185 14 is_stmt 0             @ rt-thread/src/ipc.c:1185:14
	cbnz	r0, .LBB25_36
	b	.LBB25_35
.LBB25_35:
.Ltmp487:
	.loc	2 1188 9 is_stmt 1              @ rt-thread/src/ipc.c:1188:9
	ldr	r1, [sp, #24]
	mvn	r0, #1
	.loc	2 1188 23 is_stmt 0             @ rt-thread/src/ipc.c:1188:23
	str	r0, [sp]                        @ 4-byte Spill
	str	r0, [r1, #48]
	.loc	2 1191 32 is_stmt 1             @ rt-thread/src/ipc.c:1191:32
	ldr	r0, [sp, #20]
	.loc	2 1191 9 is_stmt 0              @ rt-thread/src/ipc.c:1191:9
	bl	rt_hw_interrupt_enable
	ldr	r0, [sp]                        @ 4-byte Reload
	.loc	2 1193 9 is_stmt 1              @ rt-thread/src/ipc.c:1193:9
	str	r0, [sp, #44]
	b	.LBB25_49
.Ltmp488:
.LBB25_36:
	.loc	2 1198 30                       @ rt-thread/src/ipc.c:1198:30
	ldr	r0, [sp, #36]
	.loc	2 1198 9 is_stmt 0              @ rt-thread/src/ipc.c:1198:9
	ldr	r1, [sp, #24]
	.loc	2 1198 28                       @ rt-thread/src/ipc.c:1198:28
	str	r0, [r1, #60]
	.loc	2 1199 30 is_stmt 1             @ rt-thread/src/ipc.c:1199:30
	ldrb.w	r0, [sp, #35]
	.loc	2 1199 9 is_stmt 0              @ rt-thread/src/ipc.c:1199:9
	ldr	r1, [sp, #24]
	.loc	2 1199 28                       @ rt-thread/src/ipc.c:1199:28
	strb.w	r0, [r1, #64]
	.loc	2 1202 31 is_stmt 1             @ rt-thread/src/ipc.c:1202:31
	ldr	r2, [sp, #40]
	.loc	2 1202 45 is_stmt 0             @ rt-thread/src/ipc.c:1202:45
	add.w	r0, r2, #20
	.loc	2 1203 29 is_stmt 1             @ rt-thread/src/ipc.c:1203:29
	ldr	r1, [sp, #24]
	.loc	2 1204 50                       @ rt-thread/src/ipc.c:1204:50
	ldrb	r2, [r2, #9]
	.loc	2 1202 9                        @ rt-thread/src/ipc.c:1202:9
	bl	rt_ipc_list_suspend
.Ltmp489:
	.loc	2 1207 13                       @ rt-thread/src/ipc.c:1207:13
	ldr	r0, [sp, #28]
.Ltmp490:
	.loc	2 1207 13 is_stmt 0             @ rt-thread/src/ipc.c:1207:13
	cmp	r0, #1
	blt	.LBB25_38
	b	.LBB25_37
.LBB25_37:
.Ltmp491:
	.loc	2 1210 32 is_stmt 1             @ rt-thread/src/ipc.c:1210:32
	ldr	r0, [sp, #24]
	.loc	2 1210 40 is_stmt 0             @ rt-thread/src/ipc.c:1210:40
	adds	r0, #76
	movs	r1, #0
	add	r2, sp, #28
	.loc	2 1210 13                       @ rt-thread/src/ipc.c:1210:13
	bl	rt_timer_control
	.loc	2 1213 30 is_stmt 1             @ rt-thread/src/ipc.c:1213:30
	ldr	r0, [sp, #24]
	.loc	2 1213 38 is_stmt 0             @ rt-thread/src/ipc.c:1213:38
	adds	r0, #76
	.loc	2 1213 13                       @ rt-thread/src/ipc.c:1213:13
	bl	rt_timer_start
	.loc	2 1214 9 is_stmt 1              @ rt-thread/src/ipc.c:1214:9
	b	.LBB25_38
.Ltmp492:
.LBB25_38:
	.loc	2 1217 32                       @ rt-thread/src/ipc.c:1217:32
	ldr	r0, [sp, #20]
	.loc	2 1217 9 is_stmt 0              @ rt-thread/src/ipc.c:1217:9
	bl	rt_hw_interrupt_enable
	.loc	2 1220 9 is_stmt 1              @ rt-thread/src/ipc.c:1220:9
	bl	rt_schedule
.Ltmp493:
	.loc	2 1222 13                       @ rt-thread/src/ipc.c:1222:13
	ldr	r0, [sp, #24]
	.loc	2 1222 21 is_stmt 0             @ rt-thread/src/ipc.c:1222:21
	ldr	r0, [r0, #48]
.Ltmp494:
	.loc	2 1222 13                       @ rt-thread/src/ipc.c:1222:13
	cbz	r0, .LBB25_40
	b	.LBB25_39
.LBB25_39:
.Ltmp495:
	.loc	2 1225 20 is_stmt 1             @ rt-thread/src/ipc.c:1225:20
	ldr	r0, [sp, #24]
	.loc	2 1225 28 is_stmt 0             @ rt-thread/src/ipc.c:1225:28
	ldr	r0, [r0, #48]
	.loc	2 1225 13                       @ rt-thread/src/ipc.c:1225:13
	str	r0, [sp, #44]
	b	.LBB25_49
.Ltmp496:
.LBB25_40:
	.loc	2 1229 17 is_stmt 1             @ rt-thread/src/ipc.c:1229:17
	bl	rt_hw_interrupt_disable
	.loc	2 1229 15 is_stmt 0             @ rt-thread/src/ipc.c:1229:15
	str	r0, [sp, #20]
.Ltmp497:
	.loc	2 1232 13 is_stmt 1             @ rt-thread/src/ipc.c:1232:13
	ldr	r0, [sp, #56]
.Ltmp498:
	.loc	2 1232 13 is_stmt 0             @ rt-thread/src/ipc.c:1232:13
	cbz	r0, .LBB25_42
	b	.LBB25_41
.LBB25_41:
.Ltmp499:
	.loc	2 1233 23 is_stmt 1             @ rt-thread/src/ipc.c:1233:23
	ldr	r0, [sp, #24]
	.loc	2 1233 31 is_stmt 0             @ rt-thread/src/ipc.c:1233:31
	ldr	r0, [r0, #60]
	.loc	2 1233 14                       @ rt-thread/src/ipc.c:1233:14
	ldr	r1, [sp, #56]
	.loc	2 1233 21                       @ rt-thread/src/ipc.c:1233:21
	str	r0, [r1]
	.loc	2 1233 13                       @ rt-thread/src/ipc.c:1233:13
	b	.LBB25_42
.Ltmp500:
.LBB25_42:
	.loc	2 0 13                          @ rt-thread/src/ipc.c:0:13
	b	.LBB25_43
.LBB25_43:
	b	.LBB25_44
.LBB25_44:
	.loc	2 1237 28 is_stmt 1             @ rt-thread/src/ipc.c:1237:28
	ldr	r0, [sp, #20]
	.loc	2 1237 5 is_stmt 0              @ rt-thread/src/ipc.c:1237:5
	bl	rt_hw_interrupt_enable
	.loc	2 1239 5 is_stmt 1              @ rt-thread/src/ipc.c:1239:5
	b	.LBB25_45
.LBB25_45:
.Ltmp501:
	.loc	2 1239 5 is_stmt 0              @ rt-thread/src/ipc.c:1239:5
	movw	r0, :lower16:rt_object_take_hook
	movt	r0, :upper16:rt_object_take_hook
	ldr	r0, [r0]
.Ltmp502:
	.loc	2 1239 5                        @ rt-thread/src/ipc.c:1239:5
	cbz	r0, .LBB25_47
	b	.LBB25_46
.LBB25_46:
.Ltmp503:
	.loc	2 1239 5                        @ rt-thread/src/ipc.c:1239:5
	movw	r0, :lower16:rt_object_take_hook
	movt	r0, :upper16:rt_object_take_hook
	ldr	r1, [r0]
	ldr	r0, [sp, #40]
	blx	r1
	b	.LBB25_47
.Ltmp504:
.LBB25_47:
	.loc	2 1239 5                        @ rt-thread/src/ipc.c:1239:5
	b	.LBB25_48
.Ltmp505:
.LBB25_48:
	.loc	2 1241 12 is_stmt 1             @ rt-thread/src/ipc.c:1241:12
	ldr	r0, [sp, #24]
	.loc	2 1241 20 is_stmt 0             @ rt-thread/src/ipc.c:1241:20
	ldr	r0, [r0, #48]
	.loc	2 1241 5                        @ rt-thread/src/ipc.c:1241:5
	str	r0, [sp, #44]
	b	.LBB25_49
.LBB25_49:
	.loc	2 1242 1 is_stmt 1              @ rt-thread/src/ipc.c:1242:1
	ldr	r0, [sp, #44]
	add	sp, #48
	pop	{r7, pc}
.Ltmp506:
.Lfunc_end25:
	.size	rt_event_recv, .Lfunc_end25-rt_event_recv
	.cfi_endproc
	.cantunwind
	.fnend
                                        @ -- End function
	.section	.text.rt_event_control,"ax",%progbits
	.hidden	rt_event_control                @ -- Begin function rt_event_control
	.globl	rt_event_control
	.p2align	3
	.type	rt_event_control,%function
	.code	16                              @ @rt_event_control
	.thumb_func
rt_event_control:
.Lfunc_begin26:
	.loc	2 1255 0                        @ rt-thread/src/ipc.c:1255:0
	.fnstart
	.cfi_startproc
@ %bb.0:
	.save	{r7, lr}
	push	{r7, lr}
	.cfi_def_cfa_offset 8
	.cfi_offset lr, -4
	.cfi_offset r7, -8
	.pad	#24
	sub	sp, #24
	.cfi_def_cfa_offset 32
	str	r0, [sp, #16]
	str	r1, [sp, #12]
	str	r2, [sp, #8]
.Ltmp507:
	.loc	2 1259 5 prologue_end           @ rt-thread/src/ipc.c:1259:5
	ldr	r0, [sp, #16]
.Ltmp508:
	.loc	2 1259 5 is_stmt 0              @ rt-thread/src/ipc.c:1259:5
	cbnz	r0, .LBB26_2
	b	.LBB26_1
.LBB26_1:
.Ltmp509:
	.loc	2 1259 5                        @ rt-thread/src/ipc.c:1259:5
	movw	r0, :lower16:.L.str.11
	movt	r0, :upper16:.L.str.11
	movw	r1, :lower16:.L__FUNCTION__.rt_event_control
	movt	r1, :upper16:.L__FUNCTION__.rt_event_control
	movw	r2, #1259
	bl	rt_assert_handler
	b	.LBB26_2
.Ltmp510:
.LBB26_2:
	.loc	2 1260 5 is_stmt 1              @ rt-thread/src/ipc.c:1260:5
	ldr	r0, [sp, #16]
	bl	rt_object_get_type
.Ltmp511:
	.loc	2 1260 5 is_stmt 0              @ rt-thread/src/ipc.c:1260:5
	cmp	r0, #4
	beq	.LBB26_4
	b	.LBB26_3
.LBB26_3:
.Ltmp512:
	.loc	2 1260 5                        @ rt-thread/src/ipc.c:1260:5
	movw	r0, :lower16:.L.str.12
	movt	r0, :upper16:.L.str.12
	movw	r1, :lower16:.L__FUNCTION__.rt_event_control
	movt	r1, :upper16:.L__FUNCTION__.rt_event_control
	movw	r2, #1260
	bl	rt_assert_handler
	b	.LBB26_4
.Ltmp513:
.LBB26_4:
	.loc	2 1262 9 is_stmt 1              @ rt-thread/src/ipc.c:1262:9
	ldr	r0, [sp, #12]
.Ltmp514:
	.loc	2 1262 9 is_stmt 0              @ rt-thread/src/ipc.c:1262:9
	cmp	r0, #1
	bne	.LBB26_6
	b	.LBB26_5
.LBB26_5:
.Ltmp515:
	.loc	2 1265 17 is_stmt 1             @ rt-thread/src/ipc.c:1265:17
	bl	rt_hw_interrupt_disable
	.loc	2 1265 15 is_stmt 0             @ rt-thread/src/ipc.c:1265:15
	str	r0, [sp, #4]
	.loc	2 1268 33 is_stmt 1             @ rt-thread/src/ipc.c:1268:33
	ldr	r0, [sp, #16]
	.loc	2 1268 47 is_stmt 0             @ rt-thread/src/ipc.c:1268:47
	adds	r0, #20
	.loc	2 1268 9                        @ rt-thread/src/ipc.c:1268:9
	bl	rt_ipc_list_resume_all
	.loc	2 1271 9 is_stmt 1              @ rt-thread/src/ipc.c:1271:9
	ldr	r1, [sp, #16]
	movs	r0, #0
	.loc	2 1271 20 is_stmt 0             @ rt-thread/src/ipc.c:1271:20
	str	r0, [sp]                        @ 4-byte Spill
	str	r0, [r1, #28]
	.loc	2 1274 32 is_stmt 1             @ rt-thread/src/ipc.c:1274:32
	ldr	r0, [sp, #4]
	.loc	2 1274 9 is_stmt 0              @ rt-thread/src/ipc.c:1274:9
	bl	rt_hw_interrupt_enable
	.loc	2 1276 9 is_stmt 1              @ rt-thread/src/ipc.c:1276:9
	bl	rt_schedule
	ldr	r0, [sp]                        @ 4-byte Reload
	.loc	2 1278 9                        @ rt-thread/src/ipc.c:1278:9
	str	r0, [sp, #20]
	b	.LBB26_7
.Ltmp516:
.LBB26_6:
	.loc	2 0 9 is_stmt 0                 @ rt-thread/src/ipc.c:0:9
	mov.w	r0, #-1
	.loc	2 1281 5 is_stmt 1              @ rt-thread/src/ipc.c:1281:5
	str	r0, [sp, #20]
	b	.LBB26_7
.LBB26_7:
	.loc	2 1282 1                        @ rt-thread/src/ipc.c:1282:1
	ldr	r0, [sp, #20]
	add	sp, #24
	pop	{r7, pc}
.Ltmp517:
.Lfunc_end26:
	.size	rt_event_control, .Lfunc_end26-rt_event_control
	.cfi_endproc
	.cantunwind
	.fnend
                                        @ -- End function
	.section	.text.rt_mb_init,"ax",%progbits
	.hidden	rt_mb_init                      @ -- Begin function rt_mb_init
	.globl	rt_mb_init
	.p2align	3
	.type	rt_mb_init,%function
	.code	16                              @ @rt_mb_init
	.thumb_func
rt_mb_init:
.Lfunc_begin27:
	.loc	2 1304 0                        @ rt-thread/src/ipc.c:1304:0
	.fnstart
	.cfi_startproc
@ %bb.0:
	.save	{r7, lr}
	push	{r7, lr}
	.cfi_def_cfa_offset 8
	.cfi_offset lr, -4
	.cfi_offset r7, -8
	.pad	#24
	sub	sp, #24
	.cfi_def_cfa_offset 32
	mov	r12, r0
	ldr	r0, [sp, #32]
	str.w	r12, [sp, #20]
	str	r1, [sp, #16]
	str	r2, [sp, #12]
	str	r3, [sp, #8]
	strb.w	r0, [sp, #7]
.Ltmp518:
	.loc	2 1305 5 prologue_end           @ rt-thread/src/ipc.c:1305:5
	ldr	r0, [sp, #20]
.Ltmp519:
	.loc	2 1305 5 is_stmt 0              @ rt-thread/src/ipc.c:1305:5
	cbnz	r0, .LBB27_2
	b	.LBB27_1
.LBB27_1:
.Ltmp520:
	.loc	2 1305 5                        @ rt-thread/src/ipc.c:1305:5
	movw	r0, :lower16:.L.str.15
	movt	r0, :upper16:.L.str.15
	movw	r1, :lower16:.L__FUNCTION__.rt_mb_init
	movt	r1, :upper16:.L__FUNCTION__.rt_mb_init
	movw	r2, #1305
	bl	rt_assert_handler
	b	.LBB27_2
.Ltmp521:
.LBB27_2:
	.loc	2 1308 22 is_stmt 1             @ rt-thread/src/ipc.c:1308:22
	ldr	r0, [sp, #20]
	.loc	2 1308 67 is_stmt 0             @ rt-thread/src/ipc.c:1308:67
	ldr	r2, [sp, #16]
	movs	r1, #5
	.loc	2 1308 5                        @ rt-thread/src/ipc.c:1308:5
	bl	rt_object_init
	.loc	2 1311 30 is_stmt 1             @ rt-thread/src/ipc.c:1311:30
	ldrb.w	r0, [sp, #7]
	.loc	2 1311 5 is_stmt 0              @ rt-thread/src/ipc.c:1311:5
	ldr	r1, [sp, #20]
	.loc	2 1311 28                       @ rt-thread/src/ipc.c:1311:28
	strb	r0, [r1, #9]
	.loc	2 1314 26 is_stmt 1             @ rt-thread/src/ipc.c:1314:26
	ldr	r0, [sp, #20]
	.loc	2 1314 5 is_stmt 0              @ rt-thread/src/ipc.c:1314:5
	bl	rt_ipc_object_init
	.loc	2 1317 36 is_stmt 1             @ rt-thread/src/ipc.c:1317:36
	ldr	r0, [sp, #12]
	.loc	2 1317 5 is_stmt 0              @ rt-thread/src/ipc.c:1317:5
	ldr	r1, [sp, #20]
	.loc	2 1317 20                       @ rt-thread/src/ipc.c:1317:20
	str	r0, [r1, #28]
	.loc	2 1318 22 is_stmt 1             @ rt-thread/src/ipc.c:1318:22
	ldr	r0, [sp, #8]
	.loc	2 1318 5 is_stmt 0              @ rt-thread/src/ipc.c:1318:5
	ldr	r1, [sp, #20]
	.loc	2 1318 20                       @ rt-thread/src/ipc.c:1318:20
	strh	r0, [r1, #32]
	.loc	2 1319 5 is_stmt 1              @ rt-thread/src/ipc.c:1319:5
	ldr	r1, [sp, #20]
	movs	r0, #0
	.loc	2 1319 20 is_stmt 0             @ rt-thread/src/ipc.c:1319:20
	str	r0, [sp]                        @ 4-byte Spill
	strh	r0, [r1, #34]
	.loc	2 1320 5 is_stmt 1              @ rt-thread/src/ipc.c:1320:5
	ldr	r1, [sp, #20]
	.loc	2 1320 20 is_stmt 0             @ rt-thread/src/ipc.c:1320:20
	strh	r0, [r1, #36]
	.loc	2 1321 5 is_stmt 1              @ rt-thread/src/ipc.c:1321:5
	ldr	r1, [sp, #20]
	.loc	2 1321 20 is_stmt 0             @ rt-thread/src/ipc.c:1321:20
	strh	r0, [r1, #38]
	.loc	2 1324 20 is_stmt 1             @ rt-thread/src/ipc.c:1324:20
	ldr	r0, [sp, #20]
	.loc	2 1324 24 is_stmt 0             @ rt-thread/src/ipc.c:1324:24
	adds	r0, #40
	.loc	2 1324 5                        @ rt-thread/src/ipc.c:1324:5
	bl	rt_list_init
	ldr	r0, [sp]                        @ 4-byte Reload
	.loc	2 1326 5 is_stmt 1              @ rt-thread/src/ipc.c:1326:5
	add	sp, #24
	pop	{r7, pc}
.Ltmp522:
.Lfunc_end27:
	.size	rt_mb_init, .Lfunc_end27-rt_mb_init
	.cfi_endproc
	.cantunwind
	.fnend
                                        @ -- End function
	.section	.text.rt_list_init,"ax",%progbits
	.p2align	3                               @ -- Begin function rt_list_init
	.type	rt_list_init,%function
	.code	16                              @ @rt_list_init
	.thumb_func
rt_list_init:
.Lfunc_begin28:
	.loc	3 48 0                          @ rt-thread/include\rtservice.h:48:0
	.fnstart
	.cfi_startproc
@ %bb.0:
	.pad	#4
	sub	sp, #4
	.cfi_def_cfa_offset 4
	str	r0, [sp]
.Ltmp523:
	.loc	3 49 25 prologue_end            @ rt-thread/include\rtservice.h:49:25
	ldr	r0, [sp]
	.loc	3 49 23 is_stmt 0               @ rt-thread/include\rtservice.h:49:23
	str	r0, [r0, #4]
	.loc	3 49 5                          @ rt-thread/include\rtservice.h:49:5
	ldr	r1, [sp]
	.loc	3 49 13                         @ rt-thread/include\rtservice.h:49:13
	str	r0, [r1]
	.loc	3 50 1 is_stmt 1                @ rt-thread/include\rtservice.h:50:1
	add	sp, #4
	bx	lr
.Ltmp524:
.Lfunc_end28:
	.size	rt_list_init, .Lfunc_end28-rt_list_init
	.cfi_endproc
	.cantunwind
	.fnend
                                        @ -- End function
	.section	.text.rt_mb_detach,"ax",%progbits
	.hidden	rt_mb_detach                    @ -- Begin function rt_mb_detach
	.globl	rt_mb_detach
	.p2align	3
	.type	rt_mb_detach,%function
	.code	16                              @ @rt_mb_detach
	.thumb_func
rt_mb_detach:
.Lfunc_begin29:
	.loc	2 1338 0                        @ rt-thread/src/ipc.c:1338:0
	.fnstart
	.cfi_startproc
@ %bb.0:
	.save	{r7, lr}
	push	{r7, lr}
	.cfi_def_cfa_offset 8
	.cfi_offset lr, -4
	.cfi_offset r7, -8
	.pad	#8
	sub	sp, #8
	.cfi_def_cfa_offset 16
	str	r0, [sp, #4]
.Ltmp525:
	.loc	2 1340 5 prologue_end           @ rt-thread/src/ipc.c:1340:5
	ldr	r0, [sp, #4]
.Ltmp526:
	.loc	2 1340 5 is_stmt 0              @ rt-thread/src/ipc.c:1340:5
	cbnz	r0, .LBB29_2
	b	.LBB29_1
.LBB29_1:
.Ltmp527:
	.loc	2 1340 5                        @ rt-thread/src/ipc.c:1340:5
	movw	r0, :lower16:.L.str.15
	movt	r0, :upper16:.L.str.15
	movw	r1, :lower16:.L__FUNCTION__.rt_mb_detach
	movt	r1, :upper16:.L__FUNCTION__.rt_mb_detach
	movw	r2, #1340
	bl	rt_assert_handler
	b	.LBB29_2
.Ltmp528:
.LBB29_2:
	.loc	2 1341 5 is_stmt 1              @ rt-thread/src/ipc.c:1341:5
	ldr	r0, [sp, #4]
	bl	rt_object_get_type
.Ltmp529:
	.loc	2 1341 5 is_stmt 0              @ rt-thread/src/ipc.c:1341:5
	cmp	r0, #5
	beq	.LBB29_4
	b	.LBB29_3
.LBB29_3:
.Ltmp530:
	.loc	2 1341 5                        @ rt-thread/src/ipc.c:1341:5
	movw	r0, :lower16:.L.str.16
	movt	r0, :upper16:.L.str.16
	movw	r1, :lower16:.L__FUNCTION__.rt_mb_detach
	movt	r1, :upper16:.L__FUNCTION__.rt_mb_detach
	movw	r2, #1341
	bl	rt_assert_handler
	b	.LBB29_4
.Ltmp531:
.LBB29_4:
	.loc	2 1342 5 is_stmt 1              @ rt-thread/src/ipc.c:1342:5
	ldr	r0, [sp, #4]
	bl	rt_object_is_systemobject
.Ltmp532:
	.loc	2 1342 5 is_stmt 0              @ rt-thread/src/ipc.c:1342:5
	cbnz	r0, .LBB29_6
	b	.LBB29_5
.LBB29_5:
.Ltmp533:
	.loc	2 1342 5                        @ rt-thread/src/ipc.c:1342:5
	movw	r0, :lower16:.L.str.17
	movt	r0, :upper16:.L.str.17
	movw	r1, :lower16:.L__FUNCTION__.rt_mb_detach
	movt	r1, :upper16:.L__FUNCTION__.rt_mb_detach
	movw	r2, #1342
	bl	rt_assert_handler
	b	.LBB29_6
.Ltmp534:
.LBB29_6:
	.loc	2 1345 30 is_stmt 1             @ rt-thread/src/ipc.c:1345:30
	ldr	r0, [sp, #4]
	.loc	2 1345 41 is_stmt 0             @ rt-thread/src/ipc.c:1345:41
	adds	r0, #20
	.loc	2 1345 5                        @ rt-thread/src/ipc.c:1345:5
	bl	rt_ipc_list_resume_all
	.loc	2 1347 30 is_stmt 1             @ rt-thread/src/ipc.c:1347:30
	ldr	r0, [sp, #4]
	.loc	2 1347 34 is_stmt 0             @ rt-thread/src/ipc.c:1347:34
	adds	r0, #40
	.loc	2 1347 5                        @ rt-thread/src/ipc.c:1347:5
	bl	rt_ipc_list_resume_all
	.loc	2 1350 24 is_stmt 1             @ rt-thread/src/ipc.c:1350:24
	ldr	r0, [sp, #4]
	.loc	2 1350 5 is_stmt 0              @ rt-thread/src/ipc.c:1350:5
	bl	rt_object_detach
	movs	r0, #0
	.loc	2 1352 5 is_stmt 1              @ rt-thread/src/ipc.c:1352:5
	add	sp, #8
	pop	{r7, pc}
.Ltmp535:
.Lfunc_end29:
	.size	rt_mb_detach, .Lfunc_end29-rt_mb_detach
	.cfi_endproc
	.cantunwind
	.fnend
                                        @ -- End function
	.section	.text.rt_mb_create,"ax",%progbits
	.hidden	rt_mb_create                    @ -- Begin function rt_mb_create
	.globl	rt_mb_create
	.p2align	3
	.type	rt_mb_create,%function
	.code	16                              @ @rt_mb_create
	.thumb_func
rt_mb_create:
.Lfunc_begin30:
	.loc	2 1367 0                        @ rt-thread/src/ipc.c:1367:0
	.fnstart
	.cfi_startproc
@ %bb.0:
	.save	{r7, lr}
	push	{r7, lr}
	.cfi_def_cfa_offset 8
	.cfi_offset lr, -4
	.cfi_offset r7, -8
	.pad	#24
	sub	sp, #24
	.cfi_def_cfa_offset 32
                                        @ kill: def $r3 killed $r2
	str	r0, [sp, #16]
	str	r1, [sp, #12]
	strb.w	r2, [sp, #11]
.Ltmp536:
	.loc	2 1370 5 prologue_end           @ rt-thread/src/ipc.c:1370:5
	b	.LBB30_1
.LBB30_1:
.Ltmp537:
	.loc	2 1370 5 is_stmt 0              @ rt-thread/src/ipc.c:1370:5
	bl	rt_hw_interrupt_disable
	str	r0, [sp]
.Ltmp538:
	.loc	2 1370 5                        @ rt-thread/src/ipc.c:1370:5
	bl	rt_interrupt_get_nest
.Ltmp539:
	.loc	2 1370 5                        @ rt-thread/src/ipc.c:1370:5
	cbz	r0, .LBB30_3
	b	.LBB30_2
.LBB30_2:
.Ltmp540:
	.loc	2 1370 5                        @ rt-thread/src/ipc.c:1370:5
	movw	r0, :lower16:.L.str.4
	movt	r0, :upper16:.L.str.4
	movw	r1, :lower16:.L__FUNCTION__.rt_mb_create
	movt	r1, :upper16:.L__FUNCTION__.rt_mb_create
	movw	r2, #1370
	bl	rt_assert_handler
.Ltmp541:
	.loc	2 1370 5                        @ rt-thread/src/ipc.c:1370:5
	b	.LBB30_3
.Ltmp542:
.LBB30_3:
	.loc	2 1370 5                        @ rt-thread/src/ipc.c:1370:5
	ldr	r0, [sp]
	bl	rt_hw_interrupt_enable
	b	.LBB30_4
.Ltmp543:
.LBB30_4:
	.loc	2 1373 68 is_stmt 1             @ rt-thread/src/ipc.c:1373:68
	ldr	r1, [sp, #16]
	movs	r0, #5
	.loc	2 1373 24 is_stmt 0             @ rt-thread/src/ipc.c:1373:24
	bl	rt_object_allocate
	.loc	2 1373 8                        @ rt-thread/src/ipc.c:1373:8
	str	r0, [sp, #4]
.Ltmp544:
	.loc	2 1374 9 is_stmt 1              @ rt-thread/src/ipc.c:1374:9
	ldr	r0, [sp, #4]
.Ltmp545:
	.loc	2 1374 9 is_stmt 0              @ rt-thread/src/ipc.c:1374:9
	cbnz	r0, .LBB30_6
	b	.LBB30_5
.LBB30_5:
.Ltmp546:
	.loc	2 1375 16 is_stmt 1             @ rt-thread/src/ipc.c:1375:16
	ldr	r0, [sp, #4]
	.loc	2 1375 9 is_stmt 0              @ rt-thread/src/ipc.c:1375:9
	str	r0, [sp, #20]
	b	.LBB30_9
.Ltmp547:
.LBB30_6:
	.loc	2 1378 30 is_stmt 1             @ rt-thread/src/ipc.c:1378:30
	ldrb.w	r0, [sp, #11]
	.loc	2 1378 5 is_stmt 0              @ rt-thread/src/ipc.c:1378:5
	ldr	r1, [sp, #4]
	.loc	2 1378 28                       @ rt-thread/src/ipc.c:1378:28
	strb	r0, [r1, #9]
	.loc	2 1381 26 is_stmt 1             @ rt-thread/src/ipc.c:1381:26
	ldr	r0, [sp, #4]
	.loc	2 1381 5 is_stmt 0              @ rt-thread/src/ipc.c:1381:5
	bl	rt_ipc_object_init
	.loc	2 1384 20 is_stmt 1             @ rt-thread/src/ipc.c:1384:20
	ldr	r0, [sp, #12]
	.loc	2 1384 5 is_stmt 0              @ rt-thread/src/ipc.c:1384:5
	ldr	r1, [sp, #4]
	.loc	2 1384 18                       @ rt-thread/src/ipc.c:1384:18
	strh	r0, [r1, #32]
	.loc	2 1385 34 is_stmt 1             @ rt-thread/src/ipc.c:1385:34
	ldr	r0, [sp, #4]
	ldrh	r0, [r0, #32]
	lsls	r0, r0, #2
	bl	rt_malloc
	.loc	2 1385 5 is_stmt 0              @ rt-thread/src/ipc.c:1385:5
	ldr	r1, [sp, #4]
	.loc	2 1385 18                       @ rt-thread/src/ipc.c:1385:18
	str	r0, [r1, #28]
.Ltmp548:
	.loc	2 1386 9 is_stmt 1              @ rt-thread/src/ipc.c:1386:9
	ldr	r0, [sp, #4]
	.loc	2 1386 13 is_stmt 0             @ rt-thread/src/ipc.c:1386:13
	ldr	r0, [r0, #28]
.Ltmp549:
	.loc	2 1386 9                        @ rt-thread/src/ipc.c:1386:9
	cbnz	r0, .LBB30_8
	b	.LBB30_7
.LBB30_7:
.Ltmp550:
	.loc	2 1389 28 is_stmt 1             @ rt-thread/src/ipc.c:1389:28
	ldr	r0, [sp, #4]
	.loc	2 1389 9 is_stmt 0              @ rt-thread/src/ipc.c:1389:9
	bl	rt_object_delete
	movs	r0, #0
	.loc	2 1391 9 is_stmt 1              @ rt-thread/src/ipc.c:1391:9
	str	r0, [sp, #20]
	b	.LBB30_9
.Ltmp551:
.LBB30_8:
	.loc	2 1393 5                        @ rt-thread/src/ipc.c:1393:5
	ldr	r1, [sp, #4]
	movs	r0, #0
	.loc	2 1393 20 is_stmt 0             @ rt-thread/src/ipc.c:1393:20
	strh	r0, [r1, #34]
	.loc	2 1394 5 is_stmt 1              @ rt-thread/src/ipc.c:1394:5
	ldr	r1, [sp, #4]
	.loc	2 1394 20 is_stmt 0             @ rt-thread/src/ipc.c:1394:20
	strh	r0, [r1, #36]
	.loc	2 1395 5 is_stmt 1              @ rt-thread/src/ipc.c:1395:5
	ldr	r1, [sp, #4]
	.loc	2 1395 20 is_stmt 0             @ rt-thread/src/ipc.c:1395:20
	strh	r0, [r1, #38]
	.loc	2 1398 20 is_stmt 1             @ rt-thread/src/ipc.c:1398:20
	ldr	r0, [sp, #4]
	.loc	2 1398 24 is_stmt 0             @ rt-thread/src/ipc.c:1398:24
	adds	r0, #40
	.loc	2 1398 5                        @ rt-thread/src/ipc.c:1398:5
	bl	rt_list_init
	.loc	2 1400 12 is_stmt 1             @ rt-thread/src/ipc.c:1400:12
	ldr	r0, [sp, #4]
	.loc	2 1400 5 is_stmt 0              @ rt-thread/src/ipc.c:1400:5
	str	r0, [sp, #20]
	b	.LBB30_9
.LBB30_9:
	.loc	2 1401 1 is_stmt 1              @ rt-thread/src/ipc.c:1401:1
	ldr	r0, [sp, #20]
	add	sp, #24
	pop	{r7, pc}
.Ltmp552:
.Lfunc_end30:
	.size	rt_mb_create, .Lfunc_end30-rt_mb_create
	.cfi_endproc
	.cantunwind
	.fnend
                                        @ -- End function
	.section	.text.rt_mb_delete,"ax",%progbits
	.hidden	rt_mb_delete                    @ -- Begin function rt_mb_delete
	.globl	rt_mb_delete
	.p2align	3
	.type	rt_mb_delete,%function
	.code	16                              @ @rt_mb_delete
	.thumb_func
rt_mb_delete:
.Lfunc_begin31:
	.loc	2 1412 0                        @ rt-thread/src/ipc.c:1412:0
	.fnstart
	.cfi_startproc
@ %bb.0:
	.save	{r7, lr}
	push	{r7, lr}
	.cfi_def_cfa_offset 8
	.cfi_offset lr, -4
	.cfi_offset r7, -8
	.pad	#8
	sub	sp, #8
	.cfi_def_cfa_offset 16
	str	r0, [sp, #4]
.Ltmp553:
	.loc	2 1413 5 prologue_end           @ rt-thread/src/ipc.c:1413:5
	b	.LBB31_1
.LBB31_1:
.Ltmp554:
	.loc	2 1413 5 is_stmt 0              @ rt-thread/src/ipc.c:1413:5
	bl	rt_hw_interrupt_disable
	str	r0, [sp]
.Ltmp555:
	.loc	2 1413 5                        @ rt-thread/src/ipc.c:1413:5
	bl	rt_interrupt_get_nest
.Ltmp556:
	.loc	2 1413 5                        @ rt-thread/src/ipc.c:1413:5
	cbz	r0, .LBB31_3
	b	.LBB31_2
.LBB31_2:
.Ltmp557:
	.loc	2 1413 5                        @ rt-thread/src/ipc.c:1413:5
	movw	r0, :lower16:.L.str.4
	movt	r0, :upper16:.L.str.4
	movw	r1, :lower16:.L__FUNCTION__.rt_mb_delete
	movt	r1, :upper16:.L__FUNCTION__.rt_mb_delete
	movw	r2, #1413
	bl	rt_assert_handler
.Ltmp558:
	.loc	2 1413 5                        @ rt-thread/src/ipc.c:1413:5
	b	.LBB31_3
.Ltmp559:
.LBB31_3:
	.loc	2 1413 5                        @ rt-thread/src/ipc.c:1413:5
	ldr	r0, [sp]
	bl	rt_hw_interrupt_enable
	b	.LBB31_4
.Ltmp560:
.LBB31_4:
	.loc	2 1416 5 is_stmt 1              @ rt-thread/src/ipc.c:1416:5
	ldr	r0, [sp, #4]
.Ltmp561:
	.loc	2 1416 5 is_stmt 0              @ rt-thread/src/ipc.c:1416:5
	cbnz	r0, .LBB31_6
	b	.LBB31_5
.LBB31_5:
.Ltmp562:
	.loc	2 1416 5                        @ rt-thread/src/ipc.c:1416:5
	movw	r0, :lower16:.L.str.15
	movt	r0, :upper16:.L.str.15
	movw	r1, :lower16:.L__FUNCTION__.rt_mb_delete
	movt	r1, :upper16:.L__FUNCTION__.rt_mb_delete
	mov.w	r2, #1416
	bl	rt_assert_handler
	b	.LBB31_6
.Ltmp563:
.LBB31_6:
	.loc	2 1417 5 is_stmt 1              @ rt-thread/src/ipc.c:1417:5
	ldr	r0, [sp, #4]
	bl	rt_object_get_type
.Ltmp564:
	.loc	2 1417 5 is_stmt 0              @ rt-thread/src/ipc.c:1417:5
	cmp	r0, #5
	beq	.LBB31_8
	b	.LBB31_7
.LBB31_7:
.Ltmp565:
	.loc	2 1417 5                        @ rt-thread/src/ipc.c:1417:5
	movw	r0, :lower16:.L.str.16
	movt	r0, :upper16:.L.str.16
	movw	r1, :lower16:.L__FUNCTION__.rt_mb_delete
	movt	r1, :upper16:.L__FUNCTION__.rt_mb_delete
	movw	r2, #1417
	bl	rt_assert_handler
	b	.LBB31_8
.Ltmp566:
.LBB31_8:
	.loc	2 1418 5 is_stmt 1              @ rt-thread/src/ipc.c:1418:5
	ldr	r0, [sp, #4]
	bl	rt_object_is_systemobject
.Ltmp567:
	.loc	2 1418 5 is_stmt 0              @ rt-thread/src/ipc.c:1418:5
	cbz	r0, .LBB31_10
	b	.LBB31_9
.LBB31_9:
.Ltmp568:
	.loc	2 1418 5                        @ rt-thread/src/ipc.c:1418:5
	movw	r0, :lower16:.L.str.18
	movt	r0, :upper16:.L.str.18
	movw	r1, :lower16:.L__FUNCTION__.rt_mb_delete
	movt	r1, :upper16:.L__FUNCTION__.rt_mb_delete
	movw	r2, #1418
	bl	rt_assert_handler
	b	.LBB31_10
.Ltmp569:
.LBB31_10:
	.loc	2 1421 30 is_stmt 1             @ rt-thread/src/ipc.c:1421:30
	ldr	r0, [sp, #4]
	.loc	2 1421 41 is_stmt 0             @ rt-thread/src/ipc.c:1421:41
	adds	r0, #20
	.loc	2 1421 5                        @ rt-thread/src/ipc.c:1421:5
	bl	rt_ipc_list_resume_all
	.loc	2 1424 30 is_stmt 1             @ rt-thread/src/ipc.c:1424:30
	ldr	r0, [sp, #4]
	.loc	2 1424 34 is_stmt 0             @ rt-thread/src/ipc.c:1424:34
	adds	r0, #40
	.loc	2 1424 5                        @ rt-thread/src/ipc.c:1424:5
	bl	rt_ipc_list_resume_all
	.loc	2 1427 5 is_stmt 1              @ rt-thread/src/ipc.c:1427:5
	ldr	r0, [sp, #4]
	ldr	r0, [r0, #28]
	bl	rt_free
	.loc	2 1430 24                       @ rt-thread/src/ipc.c:1430:24
	ldr	r0, [sp, #4]
	.loc	2 1430 5 is_stmt 0              @ rt-thread/src/ipc.c:1430:5
	bl	rt_object_delete
	movs	r0, #0
	.loc	2 1432 5 is_stmt 1              @ rt-thread/src/ipc.c:1432:5
	add	sp, #8
	pop	{r7, pc}
.Ltmp570:
.Lfunc_end31:
	.size	rt_mb_delete, .Lfunc_end31-rt_mb_delete
	.cfi_endproc
	.cantunwind
	.fnend
                                        @ -- End function
	.section	.text.rt_mb_send_wait,"ax",%progbits
	.hidden	rt_mb_send_wait                 @ -- Begin function rt_mb_send_wait
	.globl	rt_mb_send_wait
	.p2align	3
	.type	rt_mb_send_wait,%function
	.code	16                              @ @rt_mb_send_wait
	.thumb_func
rt_mb_send_wait:
.Lfunc_begin32:
	.loc	2 1450 0                        @ rt-thread/src/ipc.c:1450:0
	.fnstart
	.cfi_startproc
@ %bb.0:
	.save	{r7, lr}
	push	{r7, lr}
	.cfi_def_cfa_offset 8
	.cfi_offset lr, -4
	.cfi_offset r7, -8
	.pad	#40
	sub	sp, #40
	.cfi_def_cfa_offset 48
	str	r0, [sp, #32]
	str	r1, [sp, #28]
	str	r2, [sp, #24]
.Ltmp571:
	.loc	2 1456 5 prologue_end           @ rt-thread/src/ipc.c:1456:5
	ldr	r0, [sp, #32]
.Ltmp572:
	.loc	2 1456 5 is_stmt 0              @ rt-thread/src/ipc.c:1456:5
	cbnz	r0, .LBB32_2
	b	.LBB32_1
.LBB32_1:
.Ltmp573:
	.loc	2 1456 5                        @ rt-thread/src/ipc.c:1456:5
	movw	r0, :lower16:.L.str.15
	movt	r0, :upper16:.L.str.15
	movw	r1, :lower16:.L__FUNCTION__.rt_mb_send_wait
	movt	r1, :upper16:.L__FUNCTION__.rt_mb_send_wait
	mov.w	r2, #1456
	bl	rt_assert_handler
	b	.LBB32_2
.Ltmp574:
.LBB32_2:
	.loc	2 1457 5 is_stmt 1              @ rt-thread/src/ipc.c:1457:5
	ldr	r0, [sp, #32]
	bl	rt_object_get_type
.Ltmp575:
	.loc	2 1457 5 is_stmt 0              @ rt-thread/src/ipc.c:1457:5
	cmp	r0, #5
	beq	.LBB32_4
	b	.LBB32_3
.LBB32_3:
.Ltmp576:
	.loc	2 1457 5                        @ rt-thread/src/ipc.c:1457:5
	movw	r0, :lower16:.L.str.16
	movt	r0, :upper16:.L.str.16
	movw	r1, :lower16:.L__FUNCTION__.rt_mb_send_wait
	movt	r1, :upper16:.L__FUNCTION__.rt_mb_send_wait
	movw	r2, #1457
	bl	rt_assert_handler
	b	.LBB32_4
.Ltmp577:
.LBB32_4:
	.loc	2 0 5                           @ rt-thread/src/ipc.c:0:5
	movs	r0, #0
	.loc	2 1460 16 is_stmt 1             @ rt-thread/src/ipc.c:1460:16
	str	r0, [sp, #12]
	.loc	2 1462 14                       @ rt-thread/src/ipc.c:1462:14
	bl	rt_thread_self
	.loc	2 1462 12 is_stmt 0             @ rt-thread/src/ipc.c:1462:12
	str	r0, [sp, #20]
	.loc	2 1464 5 is_stmt 1              @ rt-thread/src/ipc.c:1464:5
	b	.LBB32_5
.LBB32_5:
.Ltmp578:
	.loc	2 1464 5 is_stmt 0              @ rt-thread/src/ipc.c:1464:5
	movw	r0, :lower16:rt_object_put_hook
	movt	r0, :upper16:rt_object_put_hook
	ldr	r0, [r0]
.Ltmp579:
	.loc	2 1464 5                        @ rt-thread/src/ipc.c:1464:5
	cbz	r0, .LBB32_7
	b	.LBB32_6
.LBB32_6:
.Ltmp580:
	.loc	2 1464 5                        @ rt-thread/src/ipc.c:1464:5
	movw	r0, :lower16:rt_object_put_hook
	movt	r0, :upper16:rt_object_put_hook
	ldr	r1, [r0]
	ldr	r0, [sp, #32]
	blx	r1
	b	.LBB32_7
.Ltmp581:
.LBB32_7:
	.loc	2 1464 5                        @ rt-thread/src/ipc.c:1464:5
	b	.LBB32_8
.Ltmp582:
.LBB32_8:
	.loc	2 1467 12 is_stmt 1             @ rt-thread/src/ipc.c:1467:12
	bl	rt_hw_interrupt_disable
	.loc	2 1467 10 is_stmt 0             @ rt-thread/src/ipc.c:1467:10
	str	r0, [sp, #16]
.Ltmp583:
	.loc	2 1470 9 is_stmt 1              @ rt-thread/src/ipc.c:1470:9
	ldr	r1, [sp, #32]
	.loc	2 1470 13 is_stmt 0             @ rt-thread/src/ipc.c:1470:13
	ldrh	r0, [r1, #34]
	.loc	2 1470 26                       @ rt-thread/src/ipc.c:1470:26
	ldrh	r1, [r1, #32]
	.loc	2 1470 31                       @ rt-thread/src/ipc.c:1470:31
	cmp	r0, r1
	bne	.LBB32_11
	b	.LBB32_9
.LBB32_9:
	.loc	2 1470 34                       @ rt-thread/src/ipc.c:1470:34
	ldr	r0, [sp, #24]
.Ltmp584:
	.loc	2 1470 9                        @ rt-thread/src/ipc.c:1470:9
	cbnz	r0, .LBB32_11
	b	.LBB32_10
.LBB32_10:
.Ltmp585:
	.loc	2 1472 32 is_stmt 1             @ rt-thread/src/ipc.c:1472:32
	ldr	r0, [sp, #16]
	.loc	2 1472 9 is_stmt 0              @ rt-thread/src/ipc.c:1472:9
	bl	rt_hw_interrupt_enable
	mvn	r0, #2
	.loc	2 1474 9 is_stmt 1              @ rt-thread/src/ipc.c:1474:9
	str	r0, [sp, #36]
	b	.LBB32_39
.Ltmp586:
.LBB32_11:
	.loc	2 1478 5                        @ rt-thread/src/ipc.c:1478:5
	b	.LBB32_12
.LBB32_12:                              @ =>This Inner Loop Header: Depth=1
	.loc	2 1478 12 is_stmt 0             @ rt-thread/src/ipc.c:1478:12
	ldr	r1, [sp, #32]
	.loc	2 1478 16                       @ rt-thread/src/ipc.c:1478:16
	ldrh	r0, [r1, #34]
	.loc	2 1478 29                       @ rt-thread/src/ipc.c:1478:29
	ldrh	r1, [r1, #32]
	.loc	2 1478 5                        @ rt-thread/src/ipc.c:1478:5
	cmp	r0, r1
	bne.w	.LBB32_34
	b	.LBB32_13
.LBB32_13:                              @   in Loop: Header=BB32_12 Depth=1
.Ltmp587:
	.loc	2 1481 9 is_stmt 1              @ rt-thread/src/ipc.c:1481:9
	ldr	r1, [sp, #20]
	movs	r0, #0
	.loc	2 1481 23 is_stmt 0             @ rt-thread/src/ipc.c:1481:23
	str	r0, [r1, #48]
.Ltmp588:
	.loc	2 1484 13 is_stmt 1             @ rt-thread/src/ipc.c:1484:13
	ldr	r0, [sp, #24]
.Ltmp589:
	.loc	2 1484 13 is_stmt 0             @ rt-thread/src/ipc.c:1484:13
	cbnz	r0, .LBB32_15
	b	.LBB32_14
.LBB32_14:
.Ltmp590:
	.loc	2 1487 36 is_stmt 1             @ rt-thread/src/ipc.c:1487:36
	ldr	r0, [sp, #16]
	.loc	2 1487 13 is_stmt 0             @ rt-thread/src/ipc.c:1487:13
	bl	rt_hw_interrupt_enable
	mvn	r0, #2
	.loc	2 1489 13 is_stmt 1             @ rt-thread/src/ipc.c:1489:13
	str	r0, [sp, #36]
	b	.LBB32_39
.Ltmp591:
.LBB32_15:                              @   in Loop: Header=BB32_12 Depth=1
	.loc	2 1492 9                        @ rt-thread/src/ipc.c:1492:9
	b	.LBB32_16
.LBB32_16:                              @   in Loop: Header=BB32_12 Depth=1
.Ltmp592:
	.loc	2 1492 9 is_stmt 0              @ rt-thread/src/ipc.c:1492:9
	bl	rt_hw_interrupt_disable
	str	r0, [sp, #8]
.Ltmp593:
	.loc	2 1492 9                        @ rt-thread/src/ipc.c:1492:9
	bl	rt_thread_self
.Ltmp594:
	.loc	2 1492 9                        @ rt-thread/src/ipc.c:1492:9
	cbnz	r0, .LBB32_18
	b	.LBB32_17
.LBB32_17:                              @   in Loop: Header=BB32_12 Depth=1
.Ltmp595:
	.loc	2 1492 9                        @ rt-thread/src/ipc.c:1492:9
	movw	r0, :lower16:.L.str.6
	movt	r0, :upper16:.L.str.6
	movw	r1, :lower16:.L__FUNCTION__.rt_mb_send_wait
	movt	r1, :upper16:.L__FUNCTION__.rt_mb_send_wait
	str	r1, [sp]                        @ 4-byte Spill
	bl	rt_kprintf
	ldr	r1, [sp]                        @ 4-byte Reload
.Ltmp596:
	.loc	2 1492 9                        @ rt-thread/src/ipc.c:1492:9
	movw	r0, :lower16:.L.str.4
	movt	r0, :upper16:.L.str.4
	movw	r2, #1492
	bl	rt_assert_handler
.Ltmp597:
	.loc	2 1492 9                        @ rt-thread/src/ipc.c:1492:9
	b	.LBB32_18
.Ltmp598:
.LBB32_18:                              @   in Loop: Header=BB32_12 Depth=1
	.loc	2 1492 9                        @ rt-thread/src/ipc.c:1492:9
	b	.LBB32_19
.LBB32_19:                              @   in Loop: Header=BB32_12 Depth=1
.Ltmp599:
	.loc	2 1492 9                        @ rt-thread/src/ipc.c:1492:9
	bl	rt_hw_interrupt_disable
	str	r0, [sp, #4]
.Ltmp600:
	.loc	2 1492 9                        @ rt-thread/src/ipc.c:1492:9
	bl	rt_interrupt_get_nest
.Ltmp601:
	.loc	2 1492 9                        @ rt-thread/src/ipc.c:1492:9
	cbz	r0, .LBB32_21
	b	.LBB32_20
.LBB32_20:                              @   in Loop: Header=BB32_12 Depth=1
.Ltmp602:
	.loc	2 1492 9                        @ rt-thread/src/ipc.c:1492:9
	movw	r0, :lower16:.L.str.4
	movt	r0, :upper16:.L.str.4
	movw	r1, :lower16:.L__FUNCTION__.rt_mb_send_wait
	movt	r1, :upper16:.L__FUNCTION__.rt_mb_send_wait
	movw	r2, #1492
	bl	rt_assert_handler
.Ltmp603:
	.loc	2 1492 9                        @ rt-thread/src/ipc.c:1492:9
	b	.LBB32_21
.Ltmp604:
.LBB32_21:                              @   in Loop: Header=BB32_12 Depth=1
	.loc	2 1492 9                        @ rt-thread/src/ipc.c:1492:9
	ldr	r0, [sp, #4]
	bl	rt_hw_interrupt_enable
	b	.LBB32_22
.Ltmp605:
.LBB32_22:                              @   in Loop: Header=BB32_12 Depth=1
	.loc	2 1492 9                        @ rt-thread/src/ipc.c:1492:9
	ldr	r0, [sp, #8]
	bl	rt_hw_interrupt_enable
	b	.LBB32_23
.Ltmp606:
.LBB32_23:                              @   in Loop: Header=BB32_12 Depth=1
	.loc	2 1494 31 is_stmt 1             @ rt-thread/src/ipc.c:1494:31
	ldr	r2, [sp, #32]
	.loc	2 1494 35 is_stmt 0             @ rt-thread/src/ipc.c:1494:35
	add.w	r0, r2, #40
	.loc	2 1495 29 is_stmt 1             @ rt-thread/src/ipc.c:1495:29
	ldr	r1, [sp, #20]
	.loc	2 1496 47                       @ rt-thread/src/ipc.c:1496:47
	ldrb	r2, [r2, #9]
	.loc	2 1494 9                        @ rt-thread/src/ipc.c:1494:9
	bl	rt_ipc_list_suspend
.Ltmp607:
	.loc	2 1499 13                       @ rt-thread/src/ipc.c:1499:13
	ldr	r0, [sp, #24]
.Ltmp608:
	.loc	2 1499 13 is_stmt 0             @ rt-thread/src/ipc.c:1499:13
	cmp	r0, #1
	blt	.LBB32_27
	b	.LBB32_24
.LBB32_24:                              @   in Loop: Header=BB32_12 Depth=1
.Ltmp609:
	.loc	2 1502 26 is_stmt 1             @ rt-thread/src/ipc.c:1502:26
	bl	rt_tick_get
	.loc	2 1502 24 is_stmt 0             @ rt-thread/src/ipc.c:1502:24
	str	r0, [sp, #12]
	.loc	2 1504 13 is_stmt 1             @ rt-thread/src/ipc.c:1504:13
	b	.LBB32_25
.LBB32_25:                              @   in Loop: Header=BB32_12 Depth=1
.Ltmp610:
	.loc	2 1504 13 is_stmt 0             @ rt-thread/src/ipc.c:1504:13
	b	.LBB32_26
.Ltmp611:
.LBB32_26:                              @   in Loop: Header=BB32_12 Depth=1
	.loc	2 1508 32 is_stmt 1             @ rt-thread/src/ipc.c:1508:32
	ldr	r0, [sp, #20]
	.loc	2 1508 40 is_stmt 0             @ rt-thread/src/ipc.c:1508:40
	adds	r0, #76
	movs	r1, #0
	add	r2, sp, #24
	.loc	2 1508 13                       @ rt-thread/src/ipc.c:1508:13
	bl	rt_timer_control
	.loc	2 1511 30 is_stmt 1             @ rt-thread/src/ipc.c:1511:30
	ldr	r0, [sp, #20]
	.loc	2 1511 38 is_stmt 0             @ rt-thread/src/ipc.c:1511:38
	adds	r0, #76
	.loc	2 1511 13                       @ rt-thread/src/ipc.c:1511:13
	bl	rt_timer_start
	.loc	2 1512 9 is_stmt 1              @ rt-thread/src/ipc.c:1512:9
	b	.LBB32_27
.Ltmp612:
.LBB32_27:                              @   in Loop: Header=BB32_12 Depth=1
	.loc	2 1515 32                       @ rt-thread/src/ipc.c:1515:32
	ldr	r0, [sp, #16]
	.loc	2 1515 9 is_stmt 0              @ rt-thread/src/ipc.c:1515:9
	bl	rt_hw_interrupt_enable
	.loc	2 1518 9 is_stmt 1              @ rt-thread/src/ipc.c:1518:9
	bl	rt_schedule
.Ltmp613:
	.loc	2 1521 13                       @ rt-thread/src/ipc.c:1521:13
	ldr	r0, [sp, #20]
	.loc	2 1521 21 is_stmt 0             @ rt-thread/src/ipc.c:1521:21
	ldr	r0, [r0, #48]
.Ltmp614:
	.loc	2 1521 13                       @ rt-thread/src/ipc.c:1521:13
	cbz	r0, .LBB32_29
	b	.LBB32_28
.LBB32_28:
.Ltmp615:
	.loc	2 1524 20 is_stmt 1             @ rt-thread/src/ipc.c:1524:20
	ldr	r0, [sp, #20]
	.loc	2 1524 28 is_stmt 0             @ rt-thread/src/ipc.c:1524:28
	ldr	r0, [r0, #48]
	.loc	2 1524 13                       @ rt-thread/src/ipc.c:1524:13
	str	r0, [sp, #36]
	b	.LBB32_39
.Ltmp616:
.LBB32_29:                              @   in Loop: Header=BB32_12 Depth=1
	.loc	2 1528 16 is_stmt 1             @ rt-thread/src/ipc.c:1528:16
	bl	rt_hw_interrupt_disable
	.loc	2 1528 14 is_stmt 0             @ rt-thread/src/ipc.c:1528:14
	str	r0, [sp, #16]
.Ltmp617:
	.loc	2 1531 13 is_stmt 1             @ rt-thread/src/ipc.c:1531:13
	ldr	r0, [sp, #24]
.Ltmp618:
	.loc	2 1531 13 is_stmt 0             @ rt-thread/src/ipc.c:1531:13
	cmp	r0, #1
	blt	.LBB32_33
	b	.LBB32_30
.LBB32_30:                              @   in Loop: Header=BB32_12 Depth=1
.Ltmp619:
	.loc	2 1533 26 is_stmt 1             @ rt-thread/src/ipc.c:1533:26
	bl	rt_tick_get
	.loc	2 1533 42 is_stmt 0             @ rt-thread/src/ipc.c:1533:42
	ldr	r1, [sp, #12]
	.loc	2 1533 40                       @ rt-thread/src/ipc.c:1533:40
	subs	r0, r0, r1
	.loc	2 1533 24                       @ rt-thread/src/ipc.c:1533:24
	str	r0, [sp, #12]
	.loc	2 1534 24 is_stmt 1             @ rt-thread/src/ipc.c:1534:24
	ldr	r1, [sp, #12]
	.loc	2 1534 21 is_stmt 0             @ rt-thread/src/ipc.c:1534:21
	ldr	r0, [sp, #24]
	subs	r0, r0, r1
	str	r0, [sp, #24]
.Ltmp620:
	.loc	2 1535 17 is_stmt 1             @ rt-thread/src/ipc.c:1535:17
	ldr	r0, [sp, #24]
.Ltmp621:
	.loc	2 1535 17 is_stmt 0             @ rt-thread/src/ipc.c:1535:17
	cmp.w	r0, #-1
	bgt	.LBB32_32
	b	.LBB32_31
.LBB32_31:                              @   in Loop: Header=BB32_12 Depth=1
	.loc	2 0 17                          @ rt-thread/src/ipc.c:0:17
	movs	r0, #0
.Ltmp622:
	.loc	2 1536 25 is_stmt 1             @ rt-thread/src/ipc.c:1536:25
	str	r0, [sp, #24]
	.loc	2 1536 17 is_stmt 0             @ rt-thread/src/ipc.c:1536:17
	b	.LBB32_32
.Ltmp623:
.LBB32_32:                              @   in Loop: Header=BB32_12 Depth=1
	.loc	2 1537 9 is_stmt 1              @ rt-thread/src/ipc.c:1537:9
	b	.LBB32_33
.Ltmp624:
.LBB32_33:                              @   in Loop: Header=BB32_12 Depth=1
	.loc	2 1478 5                        @ rt-thread/src/ipc.c:1478:5
	b	.LBB32_12
.LBB32_34:
	.loc	2 1541 35                       @ rt-thread/src/ipc.c:1541:35
	ldr	r0, [sp, #28]
	.loc	2 1541 5 is_stmt 0              @ rt-thread/src/ipc.c:1541:5
	ldr	r2, [sp, #32]
	.loc	2 1541 9                        @ rt-thread/src/ipc.c:1541:9
	ldr	r1, [r2, #28]
	.loc	2 1541 22                       @ rt-thread/src/ipc.c:1541:22
	ldrh	r2, [r2, #36]
	.loc	2 1541 33                       @ rt-thread/src/ipc.c:1541:33
	str.w	r0, [r1, r2, lsl #2]
	.loc	2 1543 8 is_stmt 1              @ rt-thread/src/ipc.c:1543:8
	ldr	r1, [sp, #32]
	.loc	2 1543 5 is_stmt 0              @ rt-thread/src/ipc.c:1543:5
	ldrh	r0, [r1, #36]
	adds	r0, #1
	strh	r0, [r1, #36]
.Ltmp625:
	.loc	2 1544 9 is_stmt 1              @ rt-thread/src/ipc.c:1544:9
	ldr	r1, [sp, #32]
	.loc	2 1544 13 is_stmt 0             @ rt-thread/src/ipc.c:1544:13
	ldrh	r0, [r1, #36]
	.loc	2 1544 30                       @ rt-thread/src/ipc.c:1544:30
	ldrh	r1, [r1, #32]
.Ltmp626:
	.loc	2 1544 9                        @ rt-thread/src/ipc.c:1544:9
	cmp	r0, r1
	blt	.LBB32_36
	b	.LBB32_35
.LBB32_35:
.Ltmp627:
	.loc	2 1545 9 is_stmt 1              @ rt-thread/src/ipc.c:1545:9
	ldr	r1, [sp, #32]
	movs	r0, #0
	.loc	2 1545 23 is_stmt 0             @ rt-thread/src/ipc.c:1545:23
	strh	r0, [r1, #36]
	.loc	2 1545 9                        @ rt-thread/src/ipc.c:1545:9
	b	.LBB32_36
.Ltmp628:
.LBB32_36:
	.loc	2 1547 5 is_stmt 1              @ rt-thread/src/ipc.c:1547:5
	ldr	r1, [sp, #32]
	.loc	2 1547 15 is_stmt 0             @ rt-thread/src/ipc.c:1547:15
	ldrh	r0, [r1, #34]
	adds	r0, #1
	strh	r0, [r1, #34]
.Ltmp629:
	.loc	2 1550 27 is_stmt 1             @ rt-thread/src/ipc.c:1550:27
	ldr	r0, [sp, #32]
	.loc	2 1550 38 is_stmt 0             @ rt-thread/src/ipc.c:1550:38
	adds	r0, #20
	.loc	2 1550 10                       @ rt-thread/src/ipc.c:1550:10
	bl	rt_list_isempty
.Ltmp630:
	.loc	2 1550 9                        @ rt-thread/src/ipc.c:1550:9
	cbnz	r0, .LBB32_38
	b	.LBB32_37
.LBB32_37:
.Ltmp631:
	.loc	2 1552 30 is_stmt 1             @ rt-thread/src/ipc.c:1552:30
	ldr	r0, [sp, #32]
	.loc	2 1552 41 is_stmt 0             @ rt-thread/src/ipc.c:1552:41
	adds	r0, #20
	.loc	2 1552 9                        @ rt-thread/src/ipc.c:1552:9
	bl	rt_ipc_list_resume
	.loc	2 1555 32 is_stmt 1             @ rt-thread/src/ipc.c:1555:32
	ldr	r0, [sp, #16]
	.loc	2 1555 9 is_stmt 0              @ rt-thread/src/ipc.c:1555:9
	bl	rt_hw_interrupt_enable
	.loc	2 1557 9 is_stmt 1              @ rt-thread/src/ipc.c:1557:9
	bl	rt_schedule
	movs	r0, #0
	.loc	2 1559 9                        @ rt-thread/src/ipc.c:1559:9
	str	r0, [sp, #36]
	b	.LBB32_39
.Ltmp632:
.LBB32_38:
	.loc	2 1563 28                       @ rt-thread/src/ipc.c:1563:28
	ldr	r0, [sp, #16]
	.loc	2 1563 5 is_stmt 0              @ rt-thread/src/ipc.c:1563:5
	bl	rt_hw_interrupt_enable
	movs	r0, #0
	.loc	2 1565 5 is_stmt 1              @ rt-thread/src/ipc.c:1565:5
	str	r0, [sp, #36]
	b	.LBB32_39
.LBB32_39:
	.loc	2 1566 1                        @ rt-thread/src/ipc.c:1566:1
	ldr	r0, [sp, #36]
	add	sp, #40
	pop	{r7, pc}
.Ltmp633:
.Lfunc_end32:
	.size	rt_mb_send_wait, .Lfunc_end32-rt_mb_send_wait
	.cfi_endproc
	.cantunwind
	.fnend
                                        @ -- End function
	.section	.text.rt_mb_send,"ax",%progbits
	.hidden	rt_mb_send                      @ -- Begin function rt_mb_send
	.globl	rt_mb_send
	.p2align	3
	.type	rt_mb_send,%function
	.code	16                              @ @rt_mb_send
	.thumb_func
rt_mb_send:
.Lfunc_begin33:
	.loc	2 1580 0                        @ rt-thread/src/ipc.c:1580:0
	.fnstart
	.cfi_startproc
@ %bb.0:
	.save	{r7, lr}
	push	{r7, lr}
	.cfi_def_cfa_offset 8
	.cfi_offset lr, -4
	.cfi_offset r7, -8
	.pad	#8
	sub	sp, #8
	.cfi_def_cfa_offset 16
	str	r0, [sp, #4]
	str	r1, [sp]
.Ltmp634:
	.loc	2 1581 28 prologue_end          @ rt-thread/src/ipc.c:1581:28
	ldr	r0, [sp, #4]
	.loc	2 1581 32 is_stmt 0             @ rt-thread/src/ipc.c:1581:32
	ldr	r1, [sp]
	movs	r2, #0
	.loc	2 1581 12                       @ rt-thread/src/ipc.c:1581:12
	bl	rt_mb_send_wait
	.loc	2 1581 5                        @ rt-thread/src/ipc.c:1581:5
	add	sp, #8
	pop	{r7, pc}
.Ltmp635:
.Lfunc_end33:
	.size	rt_mb_send, .Lfunc_end33-rt_mb_send
	.cfi_endproc
	.cantunwind
	.fnend
                                        @ -- End function
	.section	.text.rt_mb_recv,"ax",%progbits
	.hidden	rt_mb_recv                      @ -- Begin function rt_mb_recv
	.globl	rt_mb_recv
	.p2align	3
	.type	rt_mb_recv,%function
	.code	16                              @ @rt_mb_recv
	.thumb_func
rt_mb_recv:
.Lfunc_begin34:
	.loc	2 1596 0 is_stmt 1              @ rt-thread/src/ipc.c:1596:0
	.fnstart
	.cfi_startproc
@ %bb.0:
	.save	{r7, lr}
	push	{r7, lr}
	.cfi_def_cfa_offset 8
	.cfi_offset lr, -4
	.cfi_offset r7, -8
	.pad	#40
	sub	sp, #40
	.cfi_def_cfa_offset 48
	str	r0, [sp, #32]
	str	r1, [sp, #28]
	str	r2, [sp, #24]
.Ltmp636:
	.loc	2 1602 5 prologue_end           @ rt-thread/src/ipc.c:1602:5
	ldr	r0, [sp, #32]
.Ltmp637:
	.loc	2 1602 5 is_stmt 0              @ rt-thread/src/ipc.c:1602:5
	cbnz	r0, .LBB34_2
	b	.LBB34_1
.LBB34_1:
.Ltmp638:
	.loc	2 1602 5                        @ rt-thread/src/ipc.c:1602:5
	movw	r0, :lower16:.L.str.15
	movt	r0, :upper16:.L.str.15
	movw	r1, :lower16:.L__FUNCTION__.rt_mb_recv
	movt	r1, :upper16:.L__FUNCTION__.rt_mb_recv
	movw	r2, #1602
	bl	rt_assert_handler
	b	.LBB34_2
.Ltmp639:
.LBB34_2:
	.loc	2 1603 5 is_stmt 1              @ rt-thread/src/ipc.c:1603:5
	ldr	r0, [sp, #32]
	bl	rt_object_get_type
.Ltmp640:
	.loc	2 1603 5 is_stmt 0              @ rt-thread/src/ipc.c:1603:5
	cmp	r0, #5
	beq	.LBB34_4
	b	.LBB34_3
.LBB34_3:
.Ltmp641:
	.loc	2 1603 5                        @ rt-thread/src/ipc.c:1603:5
	movw	r0, :lower16:.L.str.16
	movt	r0, :upper16:.L.str.16
	movw	r1, :lower16:.L__FUNCTION__.rt_mb_recv
	movt	r1, :upper16:.L__FUNCTION__.rt_mb_recv
	movw	r2, #1603
	bl	rt_assert_handler
	b	.LBB34_4
.Ltmp642:
.LBB34_4:
	.loc	2 0 5                           @ rt-thread/src/ipc.c:0:5
	movs	r0, #0
	.loc	2 1606 16 is_stmt 1             @ rt-thread/src/ipc.c:1606:16
	str	r0, [sp, #12]
	.loc	2 1608 14                       @ rt-thread/src/ipc.c:1608:14
	bl	rt_thread_self
	.loc	2 1608 12 is_stmt 0             @ rt-thread/src/ipc.c:1608:12
	str	r0, [sp, #20]
	.loc	2 1610 5 is_stmt 1              @ rt-thread/src/ipc.c:1610:5
	b	.LBB34_5
.LBB34_5:
.Ltmp643:
	.loc	2 1610 5 is_stmt 0              @ rt-thread/src/ipc.c:1610:5
	movw	r0, :lower16:rt_object_trytake_hook
	movt	r0, :upper16:rt_object_trytake_hook
	ldr	r0, [r0]
.Ltmp644:
	.loc	2 1610 5                        @ rt-thread/src/ipc.c:1610:5
	cbz	r0, .LBB34_7
	b	.LBB34_6
.LBB34_6:
.Ltmp645:
	.loc	2 1610 5                        @ rt-thread/src/ipc.c:1610:5
	movw	r0, :lower16:rt_object_trytake_hook
	movt	r0, :upper16:rt_object_trytake_hook
	ldr	r1, [r0]
	ldr	r0, [sp, #32]
	blx	r1
	b	.LBB34_7
.Ltmp646:
.LBB34_7:
	.loc	2 1610 5                        @ rt-thread/src/ipc.c:1610:5
	b	.LBB34_8
.Ltmp647:
.LBB34_8:
	.loc	2 1613 12 is_stmt 1             @ rt-thread/src/ipc.c:1613:12
	bl	rt_hw_interrupt_disable
	.loc	2 1613 10 is_stmt 0             @ rt-thread/src/ipc.c:1613:10
	str	r0, [sp, #16]
.Ltmp648:
	.loc	2 1616 9 is_stmt 1              @ rt-thread/src/ipc.c:1616:9
	ldr	r0, [sp, #32]
	.loc	2 1616 13 is_stmt 0             @ rt-thread/src/ipc.c:1616:13
	ldrh	r0, [r0, #34]
	.loc	2 1616 24                       @ rt-thread/src/ipc.c:1616:24
	cbnz	r0, .LBB34_11
	b	.LBB34_9
.LBB34_9:
	.loc	2 1616 27                       @ rt-thread/src/ipc.c:1616:27
	ldr	r0, [sp, #24]
.Ltmp649:
	.loc	2 1616 9                        @ rt-thread/src/ipc.c:1616:9
	cbnz	r0, .LBB34_11
	b	.LBB34_10
.LBB34_10:
.Ltmp650:
	.loc	2 1618 32 is_stmt 1             @ rt-thread/src/ipc.c:1618:32
	ldr	r0, [sp, #16]
	.loc	2 1618 9 is_stmt 0              @ rt-thread/src/ipc.c:1618:9
	bl	rt_hw_interrupt_enable
	mvn	r0, #1
	.loc	2 1620 9 is_stmt 1              @ rt-thread/src/ipc.c:1620:9
	str	r0, [sp, #36]
	b	.LBB34_47
.Ltmp651:
.LBB34_11:
	.loc	2 1624 5                        @ rt-thread/src/ipc.c:1624:5
	b	.LBB34_12
.LBB34_12:                              @ =>This Inner Loop Header: Depth=1
	.loc	2 1624 12 is_stmt 0             @ rt-thread/src/ipc.c:1624:12
	ldr	r0, [sp, #32]
	.loc	2 1624 16                       @ rt-thread/src/ipc.c:1624:16
	ldrh	r0, [r0, #34]
	.loc	2 1624 5                        @ rt-thread/src/ipc.c:1624:5
	cmp	r0, #0
	bne.w	.LBB34_34
	b	.LBB34_13
.LBB34_13:                              @   in Loop: Header=BB34_12 Depth=1
.Ltmp652:
	.loc	2 1627 9 is_stmt 1              @ rt-thread/src/ipc.c:1627:9
	ldr	r1, [sp, #20]
	movs	r0, #0
	.loc	2 1627 23 is_stmt 0             @ rt-thread/src/ipc.c:1627:23
	str	r0, [r1, #48]
.Ltmp653:
	.loc	2 1630 13 is_stmt 1             @ rt-thread/src/ipc.c:1630:13
	ldr	r0, [sp, #24]
.Ltmp654:
	.loc	2 1630 13 is_stmt 0             @ rt-thread/src/ipc.c:1630:13
	cbnz	r0, .LBB34_15
	b	.LBB34_14
.LBB34_14:
.Ltmp655:
	.loc	2 1633 36 is_stmt 1             @ rt-thread/src/ipc.c:1633:36
	ldr	r0, [sp, #16]
	.loc	2 1633 13 is_stmt 0             @ rt-thread/src/ipc.c:1633:13
	bl	rt_hw_interrupt_enable
	.loc	2 1635 13 is_stmt 1             @ rt-thread/src/ipc.c:1635:13
	ldr	r1, [sp, #20]
	mvn	r0, #1
	.loc	2 1635 27 is_stmt 0             @ rt-thread/src/ipc.c:1635:27
	str	r0, [r1, #48]
	.loc	2 1637 13 is_stmt 1             @ rt-thread/src/ipc.c:1637:13
	str	r0, [sp, #36]
	b	.LBB34_47
.Ltmp656:
.LBB34_15:                              @   in Loop: Header=BB34_12 Depth=1
	.loc	2 1640 9                        @ rt-thread/src/ipc.c:1640:9
	b	.LBB34_16
.LBB34_16:                              @   in Loop: Header=BB34_12 Depth=1
.Ltmp657:
	.loc	2 1640 9 is_stmt 0              @ rt-thread/src/ipc.c:1640:9
	bl	rt_hw_interrupt_disable
	str	r0, [sp, #8]
.Ltmp658:
	.loc	2 1640 9                        @ rt-thread/src/ipc.c:1640:9
	bl	rt_thread_self
.Ltmp659:
	.loc	2 1640 9                        @ rt-thread/src/ipc.c:1640:9
	cbnz	r0, .LBB34_18
	b	.LBB34_17
.LBB34_17:                              @   in Loop: Header=BB34_12 Depth=1
.Ltmp660:
	.loc	2 1640 9                        @ rt-thread/src/ipc.c:1640:9
	movw	r0, :lower16:.L.str.6
	movt	r0, :upper16:.L.str.6
	movw	r1, :lower16:.L__FUNCTION__.rt_mb_recv
	movt	r1, :upper16:.L__FUNCTION__.rt_mb_recv
	str	r1, [sp]                        @ 4-byte Spill
	bl	rt_kprintf
	ldr	r1, [sp]                        @ 4-byte Reload
.Ltmp661:
	.loc	2 1640 9                        @ rt-thread/src/ipc.c:1640:9
	movw	r0, :lower16:.L.str.4
	movt	r0, :upper16:.L.str.4
	mov.w	r2, #1640
	bl	rt_assert_handler
.Ltmp662:
	.loc	2 1640 9                        @ rt-thread/src/ipc.c:1640:9
	b	.LBB34_18
.Ltmp663:
.LBB34_18:                              @   in Loop: Header=BB34_12 Depth=1
	.loc	2 1640 9                        @ rt-thread/src/ipc.c:1640:9
	b	.LBB34_19
.LBB34_19:                              @   in Loop: Header=BB34_12 Depth=1
.Ltmp664:
	.loc	2 1640 9                        @ rt-thread/src/ipc.c:1640:9
	bl	rt_hw_interrupt_disable
	str	r0, [sp, #4]
.Ltmp665:
	.loc	2 1640 9                        @ rt-thread/src/ipc.c:1640:9
	bl	rt_interrupt_get_nest
.Ltmp666:
	.loc	2 1640 9                        @ rt-thread/src/ipc.c:1640:9
	cbz	r0, .LBB34_21
	b	.LBB34_20
.LBB34_20:                              @   in Loop: Header=BB34_12 Depth=1
.Ltmp667:
	.loc	2 1640 9                        @ rt-thread/src/ipc.c:1640:9
	movw	r0, :lower16:.L.str.4
	movt	r0, :upper16:.L.str.4
	movw	r1, :lower16:.L__FUNCTION__.rt_mb_recv
	movt	r1, :upper16:.L__FUNCTION__.rt_mb_recv
	mov.w	r2, #1640
	bl	rt_assert_handler
.Ltmp668:
	.loc	2 1640 9                        @ rt-thread/src/ipc.c:1640:9
	b	.LBB34_21
.Ltmp669:
.LBB34_21:                              @   in Loop: Header=BB34_12 Depth=1
	.loc	2 1640 9                        @ rt-thread/src/ipc.c:1640:9
	ldr	r0, [sp, #4]
	bl	rt_hw_interrupt_enable
	b	.LBB34_22
.Ltmp670:
.LBB34_22:                              @   in Loop: Header=BB34_12 Depth=1
	.loc	2 1640 9                        @ rt-thread/src/ipc.c:1640:9
	ldr	r0, [sp, #8]
	bl	rt_hw_interrupt_enable
	b	.LBB34_23
.Ltmp671:
.LBB34_23:                              @   in Loop: Header=BB34_12 Depth=1
	.loc	2 1642 31 is_stmt 1             @ rt-thread/src/ipc.c:1642:31
	ldr	r2, [sp, #32]
	.loc	2 1642 42 is_stmt 0             @ rt-thread/src/ipc.c:1642:42
	add.w	r0, r2, #20
	.loc	2 1643 29 is_stmt 1             @ rt-thread/src/ipc.c:1643:29
	ldr	r1, [sp, #20]
	.loc	2 1644 47                       @ rt-thread/src/ipc.c:1644:47
	ldrb	r2, [r2, #9]
	.loc	2 1642 9                        @ rt-thread/src/ipc.c:1642:9
	bl	rt_ipc_list_suspend
.Ltmp672:
	.loc	2 1647 13                       @ rt-thread/src/ipc.c:1647:13
	ldr	r0, [sp, #24]
.Ltmp673:
	.loc	2 1647 13 is_stmt 0             @ rt-thread/src/ipc.c:1647:13
	cmp	r0, #1
	blt	.LBB34_27
	b	.LBB34_24
.LBB34_24:                              @   in Loop: Header=BB34_12 Depth=1
.Ltmp674:
	.loc	2 1650 26 is_stmt 1             @ rt-thread/src/ipc.c:1650:26
	bl	rt_tick_get
	.loc	2 1650 24 is_stmt 0             @ rt-thread/src/ipc.c:1650:24
	str	r0, [sp, #12]
	.loc	2 1652 13 is_stmt 1             @ rt-thread/src/ipc.c:1652:13
	b	.LBB34_25
.LBB34_25:                              @   in Loop: Header=BB34_12 Depth=1
.Ltmp675:
	.loc	2 1652 13 is_stmt 0             @ rt-thread/src/ipc.c:1652:13
	b	.LBB34_26
.Ltmp676:
.LBB34_26:                              @   in Loop: Header=BB34_12 Depth=1
	.loc	2 1656 32 is_stmt 1             @ rt-thread/src/ipc.c:1656:32
	ldr	r0, [sp, #20]
	.loc	2 1656 40 is_stmt 0             @ rt-thread/src/ipc.c:1656:40
	adds	r0, #76
	movs	r1, #0
	add	r2, sp, #24
	.loc	2 1656 13                       @ rt-thread/src/ipc.c:1656:13
	bl	rt_timer_control
	.loc	2 1659 30 is_stmt 1             @ rt-thread/src/ipc.c:1659:30
	ldr	r0, [sp, #20]
	.loc	2 1659 38 is_stmt 0             @ rt-thread/src/ipc.c:1659:38
	adds	r0, #76
	.loc	2 1659 13                       @ rt-thread/src/ipc.c:1659:13
	bl	rt_timer_start
	.loc	2 1660 9 is_stmt 1              @ rt-thread/src/ipc.c:1660:9
	b	.LBB34_27
.Ltmp677:
.LBB34_27:                              @   in Loop: Header=BB34_12 Depth=1
	.loc	2 1663 32                       @ rt-thread/src/ipc.c:1663:32
	ldr	r0, [sp, #16]
	.loc	2 1663 9 is_stmt 0              @ rt-thread/src/ipc.c:1663:9
	bl	rt_hw_interrupt_enable
	.loc	2 1666 9 is_stmt 1              @ rt-thread/src/ipc.c:1666:9
	bl	rt_schedule
.Ltmp678:
	.loc	2 1669 13                       @ rt-thread/src/ipc.c:1669:13
	ldr	r0, [sp, #20]
	.loc	2 1669 21 is_stmt 0             @ rt-thread/src/ipc.c:1669:21
	ldr	r0, [r0, #48]
.Ltmp679:
	.loc	2 1669 13                       @ rt-thread/src/ipc.c:1669:13
	cbz	r0, .LBB34_29
	b	.LBB34_28
.LBB34_28:
.Ltmp680:
	.loc	2 1672 20 is_stmt 1             @ rt-thread/src/ipc.c:1672:20
	ldr	r0, [sp, #20]
	.loc	2 1672 28 is_stmt 0             @ rt-thread/src/ipc.c:1672:28
	ldr	r0, [r0, #48]
	.loc	2 1672 13                       @ rt-thread/src/ipc.c:1672:13
	str	r0, [sp, #36]
	b	.LBB34_47
.Ltmp681:
.LBB34_29:                              @   in Loop: Header=BB34_12 Depth=1
	.loc	2 1676 16 is_stmt 1             @ rt-thread/src/ipc.c:1676:16
	bl	rt_hw_interrupt_disable
	.loc	2 1676 14 is_stmt 0             @ rt-thread/src/ipc.c:1676:14
	str	r0, [sp, #16]
.Ltmp682:
	.loc	2 1679 13 is_stmt 1             @ rt-thread/src/ipc.c:1679:13
	ldr	r0, [sp, #24]
.Ltmp683:
	.loc	2 1679 13 is_stmt 0             @ rt-thread/src/ipc.c:1679:13
	cmp	r0, #1
	blt	.LBB34_33
	b	.LBB34_30
.LBB34_30:                              @   in Loop: Header=BB34_12 Depth=1
.Ltmp684:
	.loc	2 1681 26 is_stmt 1             @ rt-thread/src/ipc.c:1681:26
	bl	rt_tick_get
	.loc	2 1681 42 is_stmt 0             @ rt-thread/src/ipc.c:1681:42
	ldr	r1, [sp, #12]
	.loc	2 1681 40                       @ rt-thread/src/ipc.c:1681:40
	subs	r0, r0, r1
	.loc	2 1681 24                       @ rt-thread/src/ipc.c:1681:24
	str	r0, [sp, #12]
	.loc	2 1682 24 is_stmt 1             @ rt-thread/src/ipc.c:1682:24
	ldr	r1, [sp, #12]
	.loc	2 1682 21 is_stmt 0             @ rt-thread/src/ipc.c:1682:21
	ldr	r0, [sp, #24]
	subs	r0, r0, r1
	str	r0, [sp, #24]
.Ltmp685:
	.loc	2 1683 17 is_stmt 1             @ rt-thread/src/ipc.c:1683:17
	ldr	r0, [sp, #24]
.Ltmp686:
	.loc	2 1683 17 is_stmt 0             @ rt-thread/src/ipc.c:1683:17
	cmp.w	r0, #-1
	bgt	.LBB34_32
	b	.LBB34_31
.LBB34_31:                              @   in Loop: Header=BB34_12 Depth=1
	.loc	2 0 17                          @ rt-thread/src/ipc.c:0:17
	movs	r0, #0
.Ltmp687:
	.loc	2 1684 25 is_stmt 1             @ rt-thread/src/ipc.c:1684:25
	str	r0, [sp, #24]
	.loc	2 1684 17 is_stmt 0             @ rt-thread/src/ipc.c:1684:17
	b	.LBB34_32
.Ltmp688:
.LBB34_32:                              @   in Loop: Header=BB34_12 Depth=1
	.loc	2 1685 9 is_stmt 1              @ rt-thread/src/ipc.c:1685:9
	b	.LBB34_33
.Ltmp689:
.LBB34_33:                              @   in Loop: Header=BB34_12 Depth=1
	.loc	2 1624 5                        @ rt-thread/src/ipc.c:1624:5
	b	.LBB34_12
.LBB34_34:
	.loc	2 1689 14                       @ rt-thread/src/ipc.c:1689:14
	ldr	r1, [sp, #32]
	.loc	2 1689 18 is_stmt 0             @ rt-thread/src/ipc.c:1689:18
	ldr	r0, [r1, #28]
	.loc	2 1689 31                       @ rt-thread/src/ipc.c:1689:31
	ldrh	r1, [r1, #38]
	.loc	2 1689 14                       @ rt-thread/src/ipc.c:1689:14
	ldr.w	r0, [r0, r1, lsl #2]
	.loc	2 1689 6                        @ rt-thread/src/ipc.c:1689:6
	ldr	r1, [sp, #28]
	.loc	2 1689 12                       @ rt-thread/src/ipc.c:1689:12
	str	r0, [r1]
	.loc	2 1692 8 is_stmt 1              @ rt-thread/src/ipc.c:1692:8
	ldr	r1, [sp, #32]
	.loc	2 1692 5 is_stmt 0              @ rt-thread/src/ipc.c:1692:5
	ldrh	r0, [r1, #38]
	adds	r0, #1
	strh	r0, [r1, #38]
.Ltmp690:
	.loc	2 1693 9 is_stmt 1              @ rt-thread/src/ipc.c:1693:9
	ldr	r1, [sp, #32]
	.loc	2 1693 13 is_stmt 0             @ rt-thread/src/ipc.c:1693:13
	ldrh	r0, [r1, #38]
	.loc	2 1693 31                       @ rt-thread/src/ipc.c:1693:31
	ldrh	r1, [r1, #32]
.Ltmp691:
	.loc	2 1693 9                        @ rt-thread/src/ipc.c:1693:9
	cmp	r0, r1
	blt	.LBB34_36
	b	.LBB34_35
.LBB34_35:
.Ltmp692:
	.loc	2 1694 9 is_stmt 1              @ rt-thread/src/ipc.c:1694:9
	ldr	r1, [sp, #32]
	movs	r0, #0
	.loc	2 1694 24 is_stmt 0             @ rt-thread/src/ipc.c:1694:24
	strh	r0, [r1, #38]
	.loc	2 1694 9                        @ rt-thread/src/ipc.c:1694:9
	b	.LBB34_36
.Ltmp693:
.LBB34_36:
	.loc	2 1696 5 is_stmt 1              @ rt-thread/src/ipc.c:1696:5
	ldr	r1, [sp, #32]
	.loc	2 1696 15 is_stmt 0             @ rt-thread/src/ipc.c:1696:15
	ldrh	r0, [r1, #34]
	subs	r0, #1
	strh	r0, [r1, #34]
.Ltmp694:
	.loc	2 1699 28 is_stmt 1             @ rt-thread/src/ipc.c:1699:28
	ldr	r0, [sp, #32]
	.loc	2 1699 32 is_stmt 0             @ rt-thread/src/ipc.c:1699:32
	adds	r0, #40
	.loc	2 1699 10                       @ rt-thread/src/ipc.c:1699:10
	bl	rt_list_isempty
.Ltmp695:
	.loc	2 1699 9                        @ rt-thread/src/ipc.c:1699:9
	cbnz	r0, .LBB34_42
	b	.LBB34_37
.LBB34_37:
.Ltmp696:
	.loc	2 1701 30 is_stmt 1             @ rt-thread/src/ipc.c:1701:30
	ldr	r0, [sp, #32]
	.loc	2 1701 34 is_stmt 0             @ rt-thread/src/ipc.c:1701:34
	adds	r0, #40
	.loc	2 1701 9                        @ rt-thread/src/ipc.c:1701:9
	bl	rt_ipc_list_resume
	.loc	2 1704 32 is_stmt 1             @ rt-thread/src/ipc.c:1704:32
	ldr	r0, [sp, #16]
	.loc	2 1704 9 is_stmt 0              @ rt-thread/src/ipc.c:1704:9
	bl	rt_hw_interrupt_enable
	.loc	2 1706 9 is_stmt 1              @ rt-thread/src/ipc.c:1706:9
	b	.LBB34_38
.LBB34_38:
.Ltmp697:
	.loc	2 1706 9 is_stmt 0              @ rt-thread/src/ipc.c:1706:9
	movw	r0, :lower16:rt_object_take_hook
	movt	r0, :upper16:rt_object_take_hook
	ldr	r0, [r0]
.Ltmp698:
	.loc	2 1706 9                        @ rt-thread/src/ipc.c:1706:9
	cbz	r0, .LBB34_40
	b	.LBB34_39
.LBB34_39:
.Ltmp699:
	.loc	2 1706 9                        @ rt-thread/src/ipc.c:1706:9
	movw	r0, :lower16:rt_object_take_hook
	movt	r0, :upper16:rt_object_take_hook
	ldr	r1, [r0]
	ldr	r0, [sp, #32]
	blx	r1
	b	.LBB34_40
.Ltmp700:
.LBB34_40:
	.loc	2 1706 9                        @ rt-thread/src/ipc.c:1706:9
	b	.LBB34_41
.Ltmp701:
.LBB34_41:
	.loc	2 1708 9 is_stmt 1              @ rt-thread/src/ipc.c:1708:9
	bl	rt_schedule
	movs	r0, #0
	.loc	2 1710 9                        @ rt-thread/src/ipc.c:1710:9
	str	r0, [sp, #36]
	b	.LBB34_47
.Ltmp702:
.LBB34_42:
	.loc	2 1714 28                       @ rt-thread/src/ipc.c:1714:28
	ldr	r0, [sp, #16]
	.loc	2 1714 5 is_stmt 0              @ rt-thread/src/ipc.c:1714:5
	bl	rt_hw_interrupt_enable
	.loc	2 1716 5 is_stmt 1              @ rt-thread/src/ipc.c:1716:5
	b	.LBB34_43
.LBB34_43:
.Ltmp703:
	.loc	2 1716 5 is_stmt 0              @ rt-thread/src/ipc.c:1716:5
	movw	r0, :lower16:rt_object_take_hook
	movt	r0, :upper16:rt_object_take_hook
	ldr	r0, [r0]
.Ltmp704:
	.loc	2 1716 5                        @ rt-thread/src/ipc.c:1716:5
	cbz	r0, .LBB34_45
	b	.LBB34_44
.LBB34_44:
.Ltmp705:
	.loc	2 1716 5                        @ rt-thread/src/ipc.c:1716:5
	movw	r0, :lower16:rt_object_take_hook
	movt	r0, :upper16:rt_object_take_hook
	ldr	r1, [r0]
	ldr	r0, [sp, #32]
	blx	r1
	b	.LBB34_45
.Ltmp706:
.LBB34_45:
	.loc	2 1716 5                        @ rt-thread/src/ipc.c:1716:5
	b	.LBB34_46
.Ltmp707:
.LBB34_46:
	.loc	2 0 5                           @ rt-thread/src/ipc.c:0:5
	movs	r0, #0
	.loc	2 1718 5 is_stmt 1              @ rt-thread/src/ipc.c:1718:5
	str	r0, [sp, #36]
	b	.LBB34_47
.LBB34_47:
	.loc	2 1719 1                        @ rt-thread/src/ipc.c:1719:1
	ldr	r0, [sp, #36]
	add	sp, #40
	pop	{r7, pc}
.Ltmp708:
.Lfunc_end34:
	.size	rt_mb_recv, .Lfunc_end34-rt_mb_recv
	.cfi_endproc
	.cantunwind
	.fnend
                                        @ -- End function
	.section	.text.rt_mb_control,"ax",%progbits
	.hidden	rt_mb_control                   @ -- Begin function rt_mb_control
	.globl	rt_mb_control
	.p2align	3
	.type	rt_mb_control,%function
	.code	16                              @ @rt_mb_control
	.thumb_func
rt_mb_control:
.Lfunc_begin35:
	.loc	2 1732 0                        @ rt-thread/src/ipc.c:1732:0
	.fnstart
	.cfi_startproc
@ %bb.0:
	.save	{r7, lr}
	push	{r7, lr}
	.cfi_def_cfa_offset 8
	.cfi_offset lr, -4
	.cfi_offset r7, -8
	.pad	#24
	sub	sp, #24
	.cfi_def_cfa_offset 32
	str	r0, [sp, #16]
	str	r1, [sp, #12]
	str	r2, [sp, #8]
.Ltmp709:
	.loc	2 1736 5 prologue_end           @ rt-thread/src/ipc.c:1736:5
	ldr	r0, [sp, #16]
.Ltmp710:
	.loc	2 1736 5 is_stmt 0              @ rt-thread/src/ipc.c:1736:5
	cbnz	r0, .LBB35_2
	b	.LBB35_1
.LBB35_1:
.Ltmp711:
	.loc	2 1736 5                        @ rt-thread/src/ipc.c:1736:5
	movw	r0, :lower16:.L.str.15
	movt	r0, :upper16:.L.str.15
	movw	r1, :lower16:.L__FUNCTION__.rt_mb_control
	movt	r1, :upper16:.L__FUNCTION__.rt_mb_control
	mov.w	r2, #1736
	bl	rt_assert_handler
	b	.LBB35_2
.Ltmp712:
.LBB35_2:
	.loc	2 1737 5 is_stmt 1              @ rt-thread/src/ipc.c:1737:5
	ldr	r0, [sp, #16]
	bl	rt_object_get_type
.Ltmp713:
	.loc	2 1737 5 is_stmt 0              @ rt-thread/src/ipc.c:1737:5
	cmp	r0, #5
	beq	.LBB35_4
	b	.LBB35_3
.LBB35_3:
.Ltmp714:
	.loc	2 1737 5                        @ rt-thread/src/ipc.c:1737:5
	movw	r0, :lower16:.L.str.16
	movt	r0, :upper16:.L.str.16
	movw	r1, :lower16:.L__FUNCTION__.rt_mb_control
	movt	r1, :upper16:.L__FUNCTION__.rt_mb_control
	movw	r2, #1737
	bl	rt_assert_handler
	b	.LBB35_4
.Ltmp715:
.LBB35_4:
	.loc	2 1739 9 is_stmt 1              @ rt-thread/src/ipc.c:1739:9
	ldr	r0, [sp, #12]
.Ltmp716:
	.loc	2 1739 9 is_stmt 0              @ rt-thread/src/ipc.c:1739:9
	cmp	r0, #1
	bne	.LBB35_6
	b	.LBB35_5
.LBB35_5:
.Ltmp717:
	.loc	2 1742 17 is_stmt 1             @ rt-thread/src/ipc.c:1742:17
	bl	rt_hw_interrupt_disable
	.loc	2 1742 15 is_stmt 0             @ rt-thread/src/ipc.c:1742:15
	str	r0, [sp, #4]
	.loc	2 1745 34 is_stmt 1             @ rt-thread/src/ipc.c:1745:34
	ldr	r0, [sp, #16]
	.loc	2 1745 45 is_stmt 0             @ rt-thread/src/ipc.c:1745:45
	adds	r0, #20
	.loc	2 1745 9                        @ rt-thread/src/ipc.c:1745:9
	bl	rt_ipc_list_resume_all
	.loc	2 1747 34 is_stmt 1             @ rt-thread/src/ipc.c:1747:34
	ldr	r0, [sp, #16]
	.loc	2 1747 38 is_stmt 0             @ rt-thread/src/ipc.c:1747:38
	adds	r0, #40
	.loc	2 1747 9                        @ rt-thread/src/ipc.c:1747:9
	bl	rt_ipc_list_resume_all
	.loc	2 1750 9 is_stmt 1              @ rt-thread/src/ipc.c:1750:9
	ldr	r1, [sp, #16]
	movs	r0, #0
	.loc	2 1750 24 is_stmt 0             @ rt-thread/src/ipc.c:1750:24
	str	r0, [sp]                        @ 4-byte Spill
	strh	r0, [r1, #34]
	.loc	2 1751 9 is_stmt 1              @ rt-thread/src/ipc.c:1751:9
	ldr	r1, [sp, #16]
	.loc	2 1751 24 is_stmt 0             @ rt-thread/src/ipc.c:1751:24
	strh	r0, [r1, #36]
	.loc	2 1752 9 is_stmt 1              @ rt-thread/src/ipc.c:1752:9
	ldr	r1, [sp, #16]
	.loc	2 1752 24 is_stmt 0             @ rt-thread/src/ipc.c:1752:24
	strh	r0, [r1, #38]
	.loc	2 1755 32 is_stmt 1             @ rt-thread/src/ipc.c:1755:32
	ldr	r0, [sp, #4]
	.loc	2 1755 9 is_stmt 0              @ rt-thread/src/ipc.c:1755:9
	bl	rt_hw_interrupt_enable
	.loc	2 1757 9 is_stmt 1              @ rt-thread/src/ipc.c:1757:9
	bl	rt_schedule
	ldr	r0, [sp]                        @ 4-byte Reload
	.loc	2 1759 9                        @ rt-thread/src/ipc.c:1759:9
	str	r0, [sp, #20]
	b	.LBB35_7
.Ltmp718:
.LBB35_6:
	.loc	2 0 9 is_stmt 0                 @ rt-thread/src/ipc.c:0:9
	mov.w	r0, #-1
	.loc	2 1762 5 is_stmt 1              @ rt-thread/src/ipc.c:1762:5
	str	r0, [sp, #20]
	b	.LBB35_7
.LBB35_7:
	.loc	2 1763 1                        @ rt-thread/src/ipc.c:1763:1
	ldr	r0, [sp, #20]
	add	sp, #24
	pop	{r7, pc}
.Ltmp719:
.Lfunc_end35:
	.size	rt_mb_control, .Lfunc_end35-rt_mb_control
	.cfi_endproc
	.cantunwind
	.fnend
                                        @ -- End function
	.section	.text.rt_mq_init,"ax",%progbits
	.hidden	rt_mq_init                      @ -- Begin function rt_mq_init
	.globl	rt_mq_init
	.p2align	3
	.type	rt_mq_init,%function
	.code	16                              @ @rt_mq_init
	.thumb_func
rt_mq_init:
.Lfunc_begin36:
	.loc	2 1792 0                        @ rt-thread/src/ipc.c:1792:0
	.fnstart
	.cfi_startproc
@ %bb.0:
	.save	{r7, lr}
	push	{r7, lr}
	.cfi_def_cfa_offset 8
	.cfi_offset lr, -4
	.cfi_offset r7, -8
	.pad	#32
	sub	sp, #32
	.cfi_def_cfa_offset 40
	mov	r12, r0
	ldr	r0, [sp, #44]
	ldr.w	lr, [sp, #40]
	str.w	r12, [sp, #28]
	str	r1, [sp, #24]
	str	r2, [sp, #20]
	str	r3, [sp, #16]
	strb.w	r0, [sp, #15]
.Ltmp720:
	.loc	2 1797 5 prologue_end           @ rt-thread/src/ipc.c:1797:5
	ldr	r0, [sp, #28]
.Ltmp721:
	.loc	2 1797 5 is_stmt 0              @ rt-thread/src/ipc.c:1797:5
	cbnz	r0, .LBB36_2
	b	.LBB36_1
.LBB36_1:
.Ltmp722:
	.loc	2 1797 5                        @ rt-thread/src/ipc.c:1797:5
	movw	r0, :lower16:.L.str.19
	movt	r0, :upper16:.L.str.19
	movw	r1, :lower16:.L__FUNCTION__.rt_mq_init
	movt	r1, :upper16:.L__FUNCTION__.rt_mq_init
	movw	r2, #1797
	bl	rt_assert_handler
	b	.LBB36_2
.Ltmp723:
.LBB36_2:
	.loc	2 1800 22 is_stmt 1             @ rt-thread/src/ipc.c:1800:22
	ldr	r0, [sp, #28]
	.loc	2 1800 72 is_stmt 0             @ rt-thread/src/ipc.c:1800:72
	ldr	r2, [sp, #24]
	movs	r1, #6
	.loc	2 1800 5                        @ rt-thread/src/ipc.c:1800:5
	bl	rt_object_init
	.loc	2 1803 30 is_stmt 1             @ rt-thread/src/ipc.c:1803:30
	ldrb.w	r0, [sp, #15]
	.loc	2 1803 5 is_stmt 0              @ rt-thread/src/ipc.c:1803:5
	ldr	r1, [sp, #28]
	.loc	2 1803 28                       @ rt-thread/src/ipc.c:1803:28
	strb	r0, [r1, #9]
	.loc	2 1806 26 is_stmt 1             @ rt-thread/src/ipc.c:1806:26
	ldr	r0, [sp, #28]
	.loc	2 1806 5 is_stmt 0              @ rt-thread/src/ipc.c:1806:5
	bl	rt_ipc_object_init
	.loc	2 1809 20 is_stmt 1             @ rt-thread/src/ipc.c:1809:20
	ldr	r0, [sp, #20]
	.loc	2 1809 5 is_stmt 0              @ rt-thread/src/ipc.c:1809:5
	ldr	r1, [sp, #28]
	.loc	2 1809 18                       @ rt-thread/src/ipc.c:1809:18
	str	r0, [r1, #28]
	.loc	2 1812 20 is_stmt 1             @ rt-thread/src/ipc.c:1812:20
	ldr	r0, [sp, #16]
	adds	r0, #3
	bic	r0, r0, #3
	.loc	2 1812 5 is_stmt 0              @ rt-thread/src/ipc.c:1812:5
	ldr	r1, [sp, #28]
	.loc	2 1812 18                       @ rt-thread/src/ipc.c:1812:18
	strh	r0, [r1, #32]
	.loc	2 1813 20 is_stmt 1             @ rt-thread/src/ipc.c:1813:20
	ldr	r0, [sp, #40]
	.loc	2 1813 33 is_stmt 0             @ rt-thread/src/ipc.c:1813:33
	ldr	r1, [sp, #28]
	.loc	2 1813 37                       @ rt-thread/src/ipc.c:1813:37
	ldrh	r2, [r1, #32]
	.loc	2 1813 46                       @ rt-thread/src/ipc.c:1813:46
	adds	r2, #4
	.loc	2 1813 30                       @ rt-thread/src/ipc.c:1813:30
	udiv	r0, r0, r2
	.loc	2 1813 18                       @ rt-thread/src/ipc.c:1813:18
	strh	r0, [r1, #34]
	.loc	2 1816 5 is_stmt 1              @ rt-thread/src/ipc.c:1816:5
	ldr	r1, [sp, #28]
	movs	r0, #0
	.loc	2 1816 24 is_stmt 0             @ rt-thread/src/ipc.c:1816:24
	str	r0, [r1, #40]
	.loc	2 1817 5 is_stmt 1              @ rt-thread/src/ipc.c:1817:5
	ldr	r1, [sp, #28]
	.loc	2 1817 24 is_stmt 0             @ rt-thread/src/ipc.c:1817:24
	str	r0, [r1, #44]
	.loc	2 1820 5 is_stmt 1              @ rt-thread/src/ipc.c:1820:5
	ldr	r1, [sp, #28]
	.loc	2 1820 24 is_stmt 0             @ rt-thread/src/ipc.c:1820:24
	str	r0, [r1, #48]
.Ltmp724:
	.loc	2 1821 15 is_stmt 1             @ rt-thread/src/ipc.c:1821:15
	str	r0, [sp, #4]
	.loc	2 1821 10 is_stmt 0             @ rt-thread/src/ipc.c:1821:10
	b	.LBB36_3
.LBB36_3:                               @ =>This Inner Loop Header: Depth=1
.Ltmp725:
	.loc	2 1821 20                       @ rt-thread/src/ipc.c:1821:20
	ldr	r0, [sp, #4]
	.loc	2 1821 27                       @ rt-thread/src/ipc.c:1821:27
	ldr	r1, [sp, #28]
	.loc	2 1821 31                       @ rt-thread/src/ipc.c:1821:31
	ldrh	r1, [r1, #34]
.Ltmp726:
	.loc	2 1821 5                        @ rt-thread/src/ipc.c:1821:5
	cmp	r0, r1
	bge	.LBB36_6
	b	.LBB36_4
.LBB36_4:                               @   in Loop: Header=BB36_3 Depth=1
.Ltmp727:
	.loc	2 1823 55 is_stmt 1             @ rt-thread/src/ipc.c:1823:55
	ldr	r1, [sp, #28]
	.loc	2 1823 59 is_stmt 0             @ rt-thread/src/ipc.c:1823:59
	ldr	r2, [r1, #28]
	.loc	2 1824 41 is_stmt 1             @ rt-thread/src/ipc.c:1824:41
	ldr	r0, [sp, #4]
	.loc	2 1824 53 is_stmt 0             @ rt-thread/src/ipc.c:1824:53
	ldrh	r1, [r1, #32]
	.loc	2 1824 62                       @ rt-thread/src/ipc.c:1824:62
	adds	r1, #4
	.loc	2 1823 68 is_stmt 1             @ rt-thread/src/ipc.c:1823:68
	mla	r0, r0, r1, r2
	.loc	2 1823 14 is_stmt 0             @ rt-thread/src/ipc.c:1823:14
	str	r0, [sp, #8]
	.loc	2 1825 46 is_stmt 1             @ rt-thread/src/ipc.c:1825:46
	ldr	r0, [sp, #28]
	.loc	2 1825 50 is_stmt 0             @ rt-thread/src/ipc.c:1825:50
	ldr	r0, [r0, #48]
	.loc	2 1825 9                        @ rt-thread/src/ipc.c:1825:9
	ldr	r1, [sp, #8]
	.loc	2 1825 20                       @ rt-thread/src/ipc.c:1825:20
	str	r0, [r1]
	.loc	2 1826 30 is_stmt 1             @ rt-thread/src/ipc.c:1826:30
	ldr	r0, [sp, #8]
	.loc	2 1826 9 is_stmt 0              @ rt-thread/src/ipc.c:1826:9
	ldr	r1, [sp, #28]
	.loc	2 1826 28                       @ rt-thread/src/ipc.c:1826:28
	str	r0, [r1, #48]
	.loc	2 1827 5 is_stmt 1              @ rt-thread/src/ipc.c:1827:5
	b	.LBB36_5
.Ltmp728:
.LBB36_5:                               @   in Loop: Header=BB36_3 Depth=1
	.loc	2 1821 46                       @ rt-thread/src/ipc.c:1821:46
	ldr	r0, [sp, #4]
	adds	r0, #1
	str	r0, [sp, #4]
	.loc	2 1821 5 is_stmt 0              @ rt-thread/src/ipc.c:1821:5
	b	.LBB36_3
.Ltmp729:
.LBB36_6:
	.loc	2 1830 5 is_stmt 1              @ rt-thread/src/ipc.c:1830:5
	ldr	r1, [sp, #28]
	movs	r0, #0
	.loc	2 1830 15 is_stmt 0             @ rt-thread/src/ipc.c:1830:15
	str	r0, [sp]                        @ 4-byte Spill
	strh	r0, [r1, #36]
	.loc	2 1833 20 is_stmt 1             @ rt-thread/src/ipc.c:1833:20
	ldr	r0, [sp, #28]
	.loc	2 1833 24 is_stmt 0             @ rt-thread/src/ipc.c:1833:24
	adds	r0, #52
	.loc	2 1833 5                        @ rt-thread/src/ipc.c:1833:5
	bl	rt_list_init
	ldr	r0, [sp]                        @ 4-byte Reload
	.loc	2 1835 5 is_stmt 1              @ rt-thread/src/ipc.c:1835:5
	add	sp, #32
	pop	{r7, pc}
.Ltmp730:
.Lfunc_end36:
	.size	rt_mq_init, .Lfunc_end36-rt_mq_init
	.cfi_endproc
	.cantunwind
	.fnend
                                        @ -- End function
	.section	.text.rt_mq_detach,"ax",%progbits
	.hidden	rt_mq_detach                    @ -- Begin function rt_mq_detach
	.globl	rt_mq_detach
	.p2align	3
	.type	rt_mq_detach,%function
	.code	16                              @ @rt_mq_detach
	.thumb_func
rt_mq_detach:
.Lfunc_begin37:
	.loc	2 1847 0                        @ rt-thread/src/ipc.c:1847:0
	.fnstart
	.cfi_startproc
@ %bb.0:
	.save	{r7, lr}
	push	{r7, lr}
	.cfi_def_cfa_offset 8
	.cfi_offset lr, -4
	.cfi_offset r7, -8
	.pad	#8
	sub	sp, #8
	.cfi_def_cfa_offset 16
	str	r0, [sp, #4]
.Ltmp731:
	.loc	2 1849 5 prologue_end           @ rt-thread/src/ipc.c:1849:5
	ldr	r0, [sp, #4]
.Ltmp732:
	.loc	2 1849 5 is_stmt 0              @ rt-thread/src/ipc.c:1849:5
	cbnz	r0, .LBB37_2
	b	.LBB37_1
.LBB37_1:
.Ltmp733:
	.loc	2 1849 5                        @ rt-thread/src/ipc.c:1849:5
	movw	r0, :lower16:.L.str.19
	movt	r0, :upper16:.L.str.19
	movw	r1, :lower16:.L__FUNCTION__.rt_mq_detach
	movt	r1, :upper16:.L__FUNCTION__.rt_mq_detach
	movw	r2, #1849
	bl	rt_assert_handler
	b	.LBB37_2
.Ltmp734:
.LBB37_2:
	.loc	2 1850 5 is_stmt 1              @ rt-thread/src/ipc.c:1850:5
	ldr	r0, [sp, #4]
	bl	rt_object_get_type
.Ltmp735:
	.loc	2 1850 5 is_stmt 0              @ rt-thread/src/ipc.c:1850:5
	cmp	r0, #6
	beq	.LBB37_4
	b	.LBB37_3
.LBB37_3:
.Ltmp736:
	.loc	2 1850 5                        @ rt-thread/src/ipc.c:1850:5
	movw	r0, :lower16:.L.str.20
	movt	r0, :upper16:.L.str.20
	movw	r1, :lower16:.L__FUNCTION__.rt_mq_detach
	movt	r1, :upper16:.L__FUNCTION__.rt_mq_detach
	movw	r2, #1850
	bl	rt_assert_handler
	b	.LBB37_4
.Ltmp737:
.LBB37_4:
	.loc	2 1851 5 is_stmt 1              @ rt-thread/src/ipc.c:1851:5
	ldr	r0, [sp, #4]
	bl	rt_object_is_systemobject
.Ltmp738:
	.loc	2 1851 5 is_stmt 0              @ rt-thread/src/ipc.c:1851:5
	cbnz	r0, .LBB37_6
	b	.LBB37_5
.LBB37_5:
.Ltmp739:
	.loc	2 1851 5                        @ rt-thread/src/ipc.c:1851:5
	movw	r0, :lower16:.L.str.21
	movt	r0, :upper16:.L.str.21
	movw	r1, :lower16:.L__FUNCTION__.rt_mq_detach
	movt	r1, :upper16:.L__FUNCTION__.rt_mq_detach
	movw	r2, #1851
	bl	rt_assert_handler
	b	.LBB37_6
.Ltmp740:
.LBB37_6:
	.loc	2 1854 29 is_stmt 1             @ rt-thread/src/ipc.c:1854:29
	ldr	r0, [sp, #4]
	.loc	2 1854 40 is_stmt 0             @ rt-thread/src/ipc.c:1854:40
	adds	r0, #20
	.loc	2 1854 5                        @ rt-thread/src/ipc.c:1854:5
	bl	rt_ipc_list_resume_all
	.loc	2 1856 30 is_stmt 1             @ rt-thread/src/ipc.c:1856:30
	ldr	r0, [sp, #4]
	.loc	2 1856 34 is_stmt 0             @ rt-thread/src/ipc.c:1856:34
	adds	r0, #52
	.loc	2 1856 5                        @ rt-thread/src/ipc.c:1856:5
	bl	rt_ipc_list_resume_all
	.loc	2 1859 24 is_stmt 1             @ rt-thread/src/ipc.c:1859:24
	ldr	r0, [sp, #4]
	.loc	2 1859 5 is_stmt 0              @ rt-thread/src/ipc.c:1859:5
	bl	rt_object_detach
	movs	r0, #0
	.loc	2 1861 5 is_stmt 1              @ rt-thread/src/ipc.c:1861:5
	add	sp, #8
	pop	{r7, pc}
.Ltmp741:
.Lfunc_end37:
	.size	rt_mq_detach, .Lfunc_end37-rt_mq_detach
	.cfi_endproc
	.cantunwind
	.fnend
                                        @ -- End function
	.section	.text.rt_mq_create,"ax",%progbits
	.hidden	rt_mq_create                    @ -- Begin function rt_mq_create
	.globl	rt_mq_create
	.p2align	3
	.type	rt_mq_create,%function
	.code	16                              @ @rt_mq_create
	.thumb_func
rt_mq_create:
.Lfunc_begin38:
	.loc	2 1880 0                        @ rt-thread/src/ipc.c:1880:0
	.fnstart
	.cfi_startproc
@ %bb.0:
	.save	{r7, lr}
	push	{r7, lr}
	.cfi_def_cfa_offset 8
	.cfi_offset lr, -4
	.cfi_offset r7, -8
	.pad	#40
	sub	sp, #40
	.cfi_def_cfa_offset 48
                                        @ kill: def $r12 killed $r3
	str	r0, [sp, #32]
	str	r1, [sp, #28]
	str	r2, [sp, #24]
	strb.w	r3, [sp, #23]
.Ltmp742:
	.loc	2 1885 5 prologue_end           @ rt-thread/src/ipc.c:1885:5
	b	.LBB38_1
.LBB38_1:
.Ltmp743:
	.loc	2 1885 5 is_stmt 0              @ rt-thread/src/ipc.c:1885:5
	bl	rt_hw_interrupt_disable
	str	r0, [sp, #4]
.Ltmp744:
	.loc	2 1885 5                        @ rt-thread/src/ipc.c:1885:5
	bl	rt_interrupt_get_nest
.Ltmp745:
	.loc	2 1885 5                        @ rt-thread/src/ipc.c:1885:5
	cbz	r0, .LBB38_3
	b	.LBB38_2
.LBB38_2:
.Ltmp746:
	.loc	2 1885 5                        @ rt-thread/src/ipc.c:1885:5
	movw	r0, :lower16:.L.str.4
	movt	r0, :upper16:.L.str.4
	movw	r1, :lower16:.L__FUNCTION__.rt_mq_create
	movt	r1, :upper16:.L__FUNCTION__.rt_mq_create
	movw	r2, #1885
	bl	rt_assert_handler
.Ltmp747:
	.loc	2 1885 5                        @ rt-thread/src/ipc.c:1885:5
	b	.LBB38_3
.Ltmp748:
.LBB38_3:
	.loc	2 1885 5                        @ rt-thread/src/ipc.c:1885:5
	ldr	r0, [sp, #4]
	bl	rt_hw_interrupt_enable
	b	.LBB38_4
.Ltmp749:
.LBB38_4:
	.loc	2 1888 68 is_stmt 1             @ rt-thread/src/ipc.c:1888:68
	ldr	r1, [sp, #32]
	movs	r0, #6
	.loc	2 1888 19 is_stmt 0             @ rt-thread/src/ipc.c:1888:19
	bl	rt_object_allocate
	.loc	2 1888 8                        @ rt-thread/src/ipc.c:1888:8
	str	r0, [sp, #16]
.Ltmp750:
	.loc	2 1889 9 is_stmt 1              @ rt-thread/src/ipc.c:1889:9
	ldr	r0, [sp, #16]
.Ltmp751:
	.loc	2 1889 9 is_stmt 0              @ rt-thread/src/ipc.c:1889:9
	cbnz	r0, .LBB38_6
	b	.LBB38_5
.LBB38_5:
.Ltmp752:
	.loc	2 1890 16 is_stmt 1             @ rt-thread/src/ipc.c:1890:16
	ldr	r0, [sp, #16]
	.loc	2 1890 9 is_stmt 0              @ rt-thread/src/ipc.c:1890:9
	str	r0, [sp, #36]
	b	.LBB38_13
.Ltmp753:
.LBB38_6:
	.loc	2 1893 30 is_stmt 1             @ rt-thread/src/ipc.c:1893:30
	ldrb.w	r0, [sp, #23]
	.loc	2 1893 5 is_stmt 0              @ rt-thread/src/ipc.c:1893:5
	ldr	r1, [sp, #16]
	.loc	2 1893 28                       @ rt-thread/src/ipc.c:1893:28
	strb	r0, [r1, #9]
	.loc	2 1896 26 is_stmt 1             @ rt-thread/src/ipc.c:1896:26
	ldr	r0, [sp, #16]
	.loc	2 1896 5 is_stmt 0              @ rt-thread/src/ipc.c:1896:5
	bl	rt_ipc_object_init
	.loc	2 1901 20 is_stmt 1             @ rt-thread/src/ipc.c:1901:20
	ldr	r0, [sp, #28]
	adds	r0, #3
	bic	r0, r0, #3
	.loc	2 1901 5 is_stmt 0              @ rt-thread/src/ipc.c:1901:5
	ldr	r1, [sp, #16]
	.loc	2 1901 18                       @ rt-thread/src/ipc.c:1901:18
	strh	r0, [r1, #32]
	.loc	2 1902 20 is_stmt 1             @ rt-thread/src/ipc.c:1902:20
	ldr	r0, [sp, #24]
	.loc	2 1902 5 is_stmt 0              @ rt-thread/src/ipc.c:1902:5
	ldr	r1, [sp, #16]
	.loc	2 1902 18                       @ rt-thread/src/ipc.c:1902:18
	strh	r0, [r1, #34]
	.loc	2 1905 20 is_stmt 1             @ rt-thread/src/ipc.c:1905:20
	ldr	r1, [sp, #16]
	ldrh	r0, [r1, #32]
	adds	r0, #4
	ldrh	r1, [r1, #34]
	muls	r0, r1, r0
	bl	rt_malloc
	.loc	2 1905 5 is_stmt 0              @ rt-thread/src/ipc.c:1905:5
	ldr	r1, [sp, #16]
	.loc	2 1905 18                       @ rt-thread/src/ipc.c:1905:18
	str	r0, [r1, #28]
.Ltmp754:
	.loc	2 1906 9 is_stmt 1              @ rt-thread/src/ipc.c:1906:9
	ldr	r0, [sp, #16]
	.loc	2 1906 13 is_stmt 0             @ rt-thread/src/ipc.c:1906:13
	ldr	r0, [r0, #28]
.Ltmp755:
	.loc	2 1906 9                        @ rt-thread/src/ipc.c:1906:9
	cbnz	r0, .LBB38_8
	b	.LBB38_7
.LBB38_7:
.Ltmp756:
	.loc	2 1908 28 is_stmt 1             @ rt-thread/src/ipc.c:1908:28
	ldr	r0, [sp, #16]
	.loc	2 1908 9 is_stmt 0              @ rt-thread/src/ipc.c:1908:9
	bl	rt_object_delete
	movs	r0, #0
	.loc	2 1910 9 is_stmt 1              @ rt-thread/src/ipc.c:1910:9
	str	r0, [sp, #36]
	b	.LBB38_13
.Ltmp757:
.LBB38_8:
	.loc	2 1914 5                        @ rt-thread/src/ipc.c:1914:5
	ldr	r1, [sp, #16]
	movs	r0, #0
	.loc	2 1914 24 is_stmt 0             @ rt-thread/src/ipc.c:1914:24
	str	r0, [r1, #40]
	.loc	2 1915 5 is_stmt 1              @ rt-thread/src/ipc.c:1915:5
	ldr	r1, [sp, #16]
	.loc	2 1915 24 is_stmt 0             @ rt-thread/src/ipc.c:1915:24
	str	r0, [r1, #44]
	.loc	2 1918 5 is_stmt 1              @ rt-thread/src/ipc.c:1918:5
	ldr	r1, [sp, #16]
	.loc	2 1918 24 is_stmt 0             @ rt-thread/src/ipc.c:1918:24
	str	r0, [r1, #48]
.Ltmp758:
	.loc	2 1919 15 is_stmt 1             @ rt-thread/src/ipc.c:1919:15
	str	r0, [sp, #8]
	.loc	2 1919 10 is_stmt 0             @ rt-thread/src/ipc.c:1919:10
	b	.LBB38_9
.LBB38_9:                               @ =>This Inner Loop Header: Depth=1
.Ltmp759:
	.loc	2 1919 20                       @ rt-thread/src/ipc.c:1919:20
	ldr	r0, [sp, #8]
	.loc	2 1919 27                       @ rt-thread/src/ipc.c:1919:27
	ldr	r1, [sp, #16]
	.loc	2 1919 31                       @ rt-thread/src/ipc.c:1919:31
	ldrh	r1, [r1, #34]
.Ltmp760:
	.loc	2 1919 5                        @ rt-thread/src/ipc.c:1919:5
	cmp	r0, r1
	bge	.LBB38_12
	b	.LBB38_10
.LBB38_10:                              @   in Loop: Header=BB38_9 Depth=1
.Ltmp761:
	.loc	2 1921 55 is_stmt 1             @ rt-thread/src/ipc.c:1921:55
	ldr	r1, [sp, #16]
	.loc	2 1921 59 is_stmt 0             @ rt-thread/src/ipc.c:1921:59
	ldr	r2, [r1, #28]
	.loc	2 1922 41 is_stmt 1             @ rt-thread/src/ipc.c:1922:41
	ldr	r0, [sp, #8]
	.loc	2 1922 53 is_stmt 0             @ rt-thread/src/ipc.c:1922:53
	ldrh	r1, [r1, #32]
	.loc	2 1922 62                       @ rt-thread/src/ipc.c:1922:62
	adds	r1, #4
	.loc	2 1921 68 is_stmt 1             @ rt-thread/src/ipc.c:1921:68
	mla	r0, r0, r1, r2
	.loc	2 1921 14 is_stmt 0             @ rt-thread/src/ipc.c:1921:14
	str	r0, [sp, #12]
	.loc	2 1923 46 is_stmt 1             @ rt-thread/src/ipc.c:1923:46
	ldr	r0, [sp, #16]
	.loc	2 1923 50 is_stmt 0             @ rt-thread/src/ipc.c:1923:50
	ldr	r0, [r0, #48]
	.loc	2 1923 9                        @ rt-thread/src/ipc.c:1923:9
	ldr	r1, [sp, #12]
	.loc	2 1923 20                       @ rt-thread/src/ipc.c:1923:20
	str	r0, [r1]
	.loc	2 1924 30 is_stmt 1             @ rt-thread/src/ipc.c:1924:30
	ldr	r0, [sp, #12]
	.loc	2 1924 9 is_stmt 0              @ rt-thread/src/ipc.c:1924:9
	ldr	r1, [sp, #16]
	.loc	2 1924 28                       @ rt-thread/src/ipc.c:1924:28
	str	r0, [r1, #48]
	.loc	2 1925 5 is_stmt 1              @ rt-thread/src/ipc.c:1925:5
	b	.LBB38_11
.Ltmp762:
.LBB38_11:                              @   in Loop: Header=BB38_9 Depth=1
	.loc	2 1919 46                       @ rt-thread/src/ipc.c:1919:46
	ldr	r0, [sp, #8]
	adds	r0, #1
	str	r0, [sp, #8]
	.loc	2 1919 5 is_stmt 0              @ rt-thread/src/ipc.c:1919:5
	b	.LBB38_9
.Ltmp763:
.LBB38_12:
	.loc	2 1928 5 is_stmt 1              @ rt-thread/src/ipc.c:1928:5
	ldr	r1, [sp, #16]
	movs	r0, #0
	.loc	2 1928 15 is_stmt 0             @ rt-thread/src/ipc.c:1928:15
	strh	r0, [r1, #36]
	.loc	2 1931 20 is_stmt 1             @ rt-thread/src/ipc.c:1931:20
	ldr	r0, [sp, #16]
	.loc	2 1931 24 is_stmt 0             @ rt-thread/src/ipc.c:1931:24
	adds	r0, #52
	.loc	2 1931 5                        @ rt-thread/src/ipc.c:1931:5
	bl	rt_list_init
	.loc	2 1933 12 is_stmt 1             @ rt-thread/src/ipc.c:1933:12
	ldr	r0, [sp, #16]
	.loc	2 1933 5 is_stmt 0              @ rt-thread/src/ipc.c:1933:5
	str	r0, [sp, #36]
	b	.LBB38_13
.LBB38_13:
	.loc	2 1934 1 is_stmt 1              @ rt-thread/src/ipc.c:1934:1
	ldr	r0, [sp, #36]
	add	sp, #40
	pop	{r7, pc}
.Ltmp764:
.Lfunc_end38:
	.size	rt_mq_create, .Lfunc_end38-rt_mq_create
	.cfi_endproc
	.cantunwind
	.fnend
                                        @ -- End function
	.section	.text.rt_mq_delete,"ax",%progbits
	.hidden	rt_mq_delete                    @ -- Begin function rt_mq_delete
	.globl	rt_mq_delete
	.p2align	3
	.type	rt_mq_delete,%function
	.code	16                              @ @rt_mq_delete
	.thumb_func
rt_mq_delete:
.Lfunc_begin39:
	.loc	2 1945 0                        @ rt-thread/src/ipc.c:1945:0
	.fnstart
	.cfi_startproc
@ %bb.0:
	.save	{r7, lr}
	push	{r7, lr}
	.cfi_def_cfa_offset 8
	.cfi_offset lr, -4
	.cfi_offset r7, -8
	.pad	#8
	sub	sp, #8
	.cfi_def_cfa_offset 16
	str	r0, [sp, #4]
.Ltmp765:
	.loc	2 1946 5 prologue_end           @ rt-thread/src/ipc.c:1946:5
	b	.LBB39_1
.LBB39_1:
.Ltmp766:
	.loc	2 1946 5 is_stmt 0              @ rt-thread/src/ipc.c:1946:5
	bl	rt_hw_interrupt_disable
	str	r0, [sp]
.Ltmp767:
	.loc	2 1946 5                        @ rt-thread/src/ipc.c:1946:5
	bl	rt_interrupt_get_nest
.Ltmp768:
	.loc	2 1946 5                        @ rt-thread/src/ipc.c:1946:5
	cbz	r0, .LBB39_3
	b	.LBB39_2
.LBB39_2:
.Ltmp769:
	.loc	2 1946 5                        @ rt-thread/src/ipc.c:1946:5
	movw	r0, :lower16:.L.str.4
	movt	r0, :upper16:.L.str.4
	movw	r1, :lower16:.L__FUNCTION__.rt_mq_delete
	movt	r1, :upper16:.L__FUNCTION__.rt_mq_delete
	movw	r2, #1946
	bl	rt_assert_handler
.Ltmp770:
	.loc	2 1946 5                        @ rt-thread/src/ipc.c:1946:5
	b	.LBB39_3
.Ltmp771:
.LBB39_3:
	.loc	2 1946 5                        @ rt-thread/src/ipc.c:1946:5
	ldr	r0, [sp]
	bl	rt_hw_interrupt_enable
	b	.LBB39_4
.Ltmp772:
.LBB39_4:
	.loc	2 1949 5 is_stmt 1              @ rt-thread/src/ipc.c:1949:5
	ldr	r0, [sp, #4]
.Ltmp773:
	.loc	2 1949 5 is_stmt 0              @ rt-thread/src/ipc.c:1949:5
	cbnz	r0, .LBB39_6
	b	.LBB39_5
.LBB39_5:
.Ltmp774:
	.loc	2 1949 5                        @ rt-thread/src/ipc.c:1949:5
	movw	r0, :lower16:.L.str.19
	movt	r0, :upper16:.L.str.19
	movw	r1, :lower16:.L__FUNCTION__.rt_mq_delete
	movt	r1, :upper16:.L__FUNCTION__.rt_mq_delete
	movw	r2, #1949
	bl	rt_assert_handler
	b	.LBB39_6
.Ltmp775:
.LBB39_6:
	.loc	2 1950 5 is_stmt 1              @ rt-thread/src/ipc.c:1950:5
	ldr	r0, [sp, #4]
	bl	rt_object_get_type
.Ltmp776:
	.loc	2 1950 5 is_stmt 0              @ rt-thread/src/ipc.c:1950:5
	cmp	r0, #6
	beq	.LBB39_8
	b	.LBB39_7
.LBB39_7:
.Ltmp777:
	.loc	2 1950 5                        @ rt-thread/src/ipc.c:1950:5
	movw	r0, :lower16:.L.str.20
	movt	r0, :upper16:.L.str.20
	movw	r1, :lower16:.L__FUNCTION__.rt_mq_delete
	movt	r1, :upper16:.L__FUNCTION__.rt_mq_delete
	movw	r2, #1950
	bl	rt_assert_handler
	b	.LBB39_8
.Ltmp778:
.LBB39_8:
	.loc	2 1951 5 is_stmt 1              @ rt-thread/src/ipc.c:1951:5
	ldr	r0, [sp, #4]
	bl	rt_object_is_systemobject
.Ltmp779:
	.loc	2 1951 5 is_stmt 0              @ rt-thread/src/ipc.c:1951:5
	cbz	r0, .LBB39_10
	b	.LBB39_9
.LBB39_9:
.Ltmp780:
	.loc	2 1951 5                        @ rt-thread/src/ipc.c:1951:5
	movw	r0, :lower16:.L.str.22
	movt	r0, :upper16:.L.str.22
	movw	r1, :lower16:.L__FUNCTION__.rt_mq_delete
	movt	r1, :upper16:.L__FUNCTION__.rt_mq_delete
	movw	r2, #1951
	bl	rt_assert_handler
	b	.LBB39_10
.Ltmp781:
.LBB39_10:
	.loc	2 1954 30 is_stmt 1             @ rt-thread/src/ipc.c:1954:30
	ldr	r0, [sp, #4]
	.loc	2 1954 41 is_stmt 0             @ rt-thread/src/ipc.c:1954:41
	adds	r0, #20
	.loc	2 1954 5                        @ rt-thread/src/ipc.c:1954:5
	bl	rt_ipc_list_resume_all
	.loc	2 1956 30 is_stmt 1             @ rt-thread/src/ipc.c:1956:30
	ldr	r0, [sp, #4]
	.loc	2 1956 34 is_stmt 0             @ rt-thread/src/ipc.c:1956:34
	adds	r0, #52
	.loc	2 1956 5                        @ rt-thread/src/ipc.c:1956:5
	bl	rt_ipc_list_resume_all
	.loc	2 1959 5 is_stmt 1              @ rt-thread/src/ipc.c:1959:5
	ldr	r0, [sp, #4]
	ldr	r0, [r0, #28]
	bl	rt_free
	.loc	2 1962 24                       @ rt-thread/src/ipc.c:1962:24
	ldr	r0, [sp, #4]
	.loc	2 1962 5 is_stmt 0              @ rt-thread/src/ipc.c:1962:5
	bl	rt_object_delete
	movs	r0, #0
	.loc	2 1964 5 is_stmt 1              @ rt-thread/src/ipc.c:1964:5
	add	sp, #8
	pop	{r7, pc}
.Ltmp782:
.Lfunc_end39:
	.size	rt_mq_delete, .Lfunc_end39-rt_mq_delete
	.cfi_endproc
	.cantunwind
	.fnend
                                        @ -- End function
	.section	.text.rt_mq_send_wait,"ax",%progbits
	.hidden	rt_mq_send_wait                 @ -- Begin function rt_mq_send_wait
	.globl	rt_mq_send_wait
	.p2align	3
	.type	rt_mq_send_wait,%function
	.code	16                              @ @rt_mq_send_wait
	.thumb_func
rt_mq_send_wait:
.Lfunc_begin40:
	.loc	2 1984 0                        @ rt-thread/src/ipc.c:1984:0
	.fnstart
	.cfi_startproc
@ %bb.0:
	.save	{r7, lr}
	push	{r7, lr}
	.cfi_def_cfa_offset 8
	.cfi_offset lr, -4
	.cfi_offset r7, -8
	.pad	#48
	sub	sp, #48
	.cfi_def_cfa_offset 56
	str	r0, [sp, #40]
	str	r1, [sp, #36]
	str	r2, [sp, #32]
	str	r3, [sp, #28]
.Ltmp783:
	.loc	2 1991 5 prologue_end           @ rt-thread/src/ipc.c:1991:5
	ldr	r0, [sp, #40]
.Ltmp784:
	.loc	2 1991 5 is_stmt 0              @ rt-thread/src/ipc.c:1991:5
	cbnz	r0, .LBB40_2
	b	.LBB40_1
.LBB40_1:
.Ltmp785:
	.loc	2 1991 5                        @ rt-thread/src/ipc.c:1991:5
	movw	r0, :lower16:.L.str.19
	movt	r0, :upper16:.L.str.19
	movw	r1, :lower16:.L__FUNCTION__.rt_mq_send_wait
	movt	r1, :upper16:.L__FUNCTION__.rt_mq_send_wait
	movw	r2, #1991
	bl	rt_assert_handler
	b	.LBB40_2
.Ltmp786:
.LBB40_2:
	.loc	2 1992 5 is_stmt 1              @ rt-thread/src/ipc.c:1992:5
	ldr	r0, [sp, #40]
	bl	rt_object_get_type
.Ltmp787:
	.loc	2 1992 5 is_stmt 0              @ rt-thread/src/ipc.c:1992:5
	cmp	r0, #6
	beq	.LBB40_4
	b	.LBB40_3
.LBB40_3:
.Ltmp788:
	.loc	2 1992 5                        @ rt-thread/src/ipc.c:1992:5
	movw	r0, :lower16:.L.str.20
	movt	r0, :upper16:.L.str.20
	movw	r1, :lower16:.L__FUNCTION__.rt_mq_send_wait
	movt	r1, :upper16:.L__FUNCTION__.rt_mq_send_wait
	mov.w	r2, #1992
	bl	rt_assert_handler
	b	.LBB40_4
.Ltmp789:
.LBB40_4:
	.loc	2 1993 5 is_stmt 1              @ rt-thread/src/ipc.c:1993:5
	ldr	r0, [sp, #36]
.Ltmp790:
	.loc	2 1993 5 is_stmt 0              @ rt-thread/src/ipc.c:1993:5
	cbnz	r0, .LBB40_6
	b	.LBB40_5
.LBB40_5:
.Ltmp791:
	.loc	2 1993 5                        @ rt-thread/src/ipc.c:1993:5
	movw	r0, :lower16:.L.str.23
	movt	r0, :upper16:.L.str.23
	movw	r1, :lower16:.L__FUNCTION__.rt_mq_send_wait
	movt	r1, :upper16:.L__FUNCTION__.rt_mq_send_wait
	movw	r2, #1993
	bl	rt_assert_handler
	b	.LBB40_6
.Ltmp792:
.LBB40_6:
	.loc	2 1994 5 is_stmt 1              @ rt-thread/src/ipc.c:1994:5
	ldr	r0, [sp, #32]
.Ltmp793:
	.loc	2 1994 5 is_stmt 0              @ rt-thread/src/ipc.c:1994:5
	cbnz	r0, .LBB40_8
	b	.LBB40_7
.LBB40_7:
.Ltmp794:
	.loc	2 1994 5                        @ rt-thread/src/ipc.c:1994:5
	movw	r0, :lower16:.L.str.24
	movt	r0, :upper16:.L.str.24
	movw	r1, :lower16:.L__FUNCTION__.rt_mq_send_wait
	movt	r1, :upper16:.L__FUNCTION__.rt_mq_send_wait
	movw	r2, #1994
	bl	rt_assert_handler
	b	.LBB40_8
.Ltmp795:
.LBB40_8:
	.loc	2 1997 9 is_stmt 1              @ rt-thread/src/ipc.c:1997:9
	ldr	r0, [sp, #32]
	.loc	2 1997 16 is_stmt 0             @ rt-thread/src/ipc.c:1997:16
	ldr	r1, [sp, #40]
	.loc	2 1997 20                       @ rt-thread/src/ipc.c:1997:20
	ldrh	r1, [r1, #32]
.Ltmp796:
	.loc	2 1997 9                        @ rt-thread/src/ipc.c:1997:9
	cmp	r0, r1
	bls	.LBB40_10
	b	.LBB40_9
.LBB40_9:
	.loc	2 0 9                           @ rt-thread/src/ipc.c:0:9
	mov.w	r0, #-1
.Ltmp797:
	.loc	2 1998 9 is_stmt 1              @ rt-thread/src/ipc.c:1998:9
	str	r0, [sp, #44]
	b	.LBB40_47
.Ltmp798:
.LBB40_10:
	.loc	2 0 9 is_stmt 0                 @ rt-thread/src/ipc.c:0:9
	movs	r0, #0
	.loc	2 2001 16 is_stmt 1             @ rt-thread/src/ipc.c:2001:16
	str	r0, [sp, #16]
	.loc	2 2003 14                       @ rt-thread/src/ipc.c:2003:14
	bl	rt_thread_self
	.loc	2 2003 12 is_stmt 0             @ rt-thread/src/ipc.c:2003:12
	str	r0, [sp, #12]
	.loc	2 2005 5 is_stmt 1              @ rt-thread/src/ipc.c:2005:5
	b	.LBB40_11
.LBB40_11:
.Ltmp799:
	.loc	2 2005 5 is_stmt 0              @ rt-thread/src/ipc.c:2005:5
	movw	r0, :lower16:rt_object_put_hook
	movt	r0, :upper16:rt_object_put_hook
	ldr	r0, [r0]
.Ltmp800:
	.loc	2 2005 5                        @ rt-thread/src/ipc.c:2005:5
	cbz	r0, .LBB40_13
	b	.LBB40_12
.LBB40_12:
.Ltmp801:
	.loc	2 2005 5                        @ rt-thread/src/ipc.c:2005:5
	movw	r0, :lower16:rt_object_put_hook
	movt	r0, :upper16:rt_object_put_hook
	ldr	r1, [r0]
	ldr	r0, [sp, #40]
	blx	r1
	b	.LBB40_13
.Ltmp802:
.LBB40_13:
	.loc	2 2005 5                        @ rt-thread/src/ipc.c:2005:5
	b	.LBB40_14
.Ltmp803:
.LBB40_14:
	.loc	2 2008 12 is_stmt 1             @ rt-thread/src/ipc.c:2008:12
	bl	rt_hw_interrupt_disable
	.loc	2 2008 10 is_stmt 0             @ rt-thread/src/ipc.c:2008:10
	str	r0, [sp, #24]
	.loc	2 2011 35 is_stmt 1             @ rt-thread/src/ipc.c:2011:35
	ldr	r0, [sp, #40]
	.loc	2 2011 39 is_stmt 0             @ rt-thread/src/ipc.c:2011:39
	ldr	r0, [r0, #48]
	.loc	2 2011 9                        @ rt-thread/src/ipc.c:2011:9
	str	r0, [sp, #20]
.Ltmp804:
	.loc	2 2013 9 is_stmt 1              @ rt-thread/src/ipc.c:2013:9
	ldr	r0, [sp, #20]
	.loc	2 2013 24 is_stmt 0             @ rt-thread/src/ipc.c:2013:24
	cbnz	r0, .LBB40_17
	b	.LBB40_15
.LBB40_15:
	.loc	2 2013 27                       @ rt-thread/src/ipc.c:2013:27
	ldr	r0, [sp, #28]
.Ltmp805:
	.loc	2 2013 9                        @ rt-thread/src/ipc.c:2013:9
	cbnz	r0, .LBB40_17
	b	.LBB40_16
.LBB40_16:
.Ltmp806:
	.loc	2 2016 32 is_stmt 1             @ rt-thread/src/ipc.c:2016:32
	ldr	r0, [sp, #24]
	.loc	2 2016 9 is_stmt 0              @ rt-thread/src/ipc.c:2016:9
	bl	rt_hw_interrupt_enable
	mvn	r0, #2
	.loc	2 2018 9 is_stmt 1              @ rt-thread/src/ipc.c:2018:9
	str	r0, [sp, #44]
	b	.LBB40_47
.Ltmp807:
.LBB40_17:
	.loc	2 2022 5                        @ rt-thread/src/ipc.c:2022:5
	b	.LBB40_18
.LBB40_18:                              @ =>This Inner Loop Header: Depth=1
	.loc	2 2022 19 is_stmt 0             @ rt-thread/src/ipc.c:2022:19
	ldr	r0, [sp, #40]
	.loc	2 2022 23                       @ rt-thread/src/ipc.c:2022:23
	ldr	r0, [r0, #48]
	.loc	2 2022 17                       @ rt-thread/src/ipc.c:2022:17
	str	r0, [sp, #20]
	.loc	2 2022 5                        @ rt-thread/src/ipc.c:2022:5
	cmp	r0, #0
	bne.w	.LBB40_40
	b	.LBB40_19
.LBB40_19:                              @   in Loop: Header=BB40_18 Depth=1
.Ltmp808:
	.loc	2 2025 9 is_stmt 1              @ rt-thread/src/ipc.c:2025:9
	ldr	r1, [sp, #12]
	movs	r0, #0
	.loc	2 2025 23 is_stmt 0             @ rt-thread/src/ipc.c:2025:23
	str	r0, [r1, #48]
.Ltmp809:
	.loc	2 2028 13 is_stmt 1             @ rt-thread/src/ipc.c:2028:13
	ldr	r0, [sp, #28]
.Ltmp810:
	.loc	2 2028 13 is_stmt 0             @ rt-thread/src/ipc.c:2028:13
	cbnz	r0, .LBB40_21
	b	.LBB40_20
.LBB40_20:
.Ltmp811:
	.loc	2 2031 36 is_stmt 1             @ rt-thread/src/ipc.c:2031:36
	ldr	r0, [sp, #24]
	.loc	2 2031 13 is_stmt 0             @ rt-thread/src/ipc.c:2031:13
	bl	rt_hw_interrupt_enable
	mvn	r0, #2
	.loc	2 2033 13 is_stmt 1             @ rt-thread/src/ipc.c:2033:13
	str	r0, [sp, #44]
	b	.LBB40_47
.Ltmp812:
.LBB40_21:                              @   in Loop: Header=BB40_18 Depth=1
	.loc	2 2036 9                        @ rt-thread/src/ipc.c:2036:9
	b	.LBB40_22
.LBB40_22:                              @   in Loop: Header=BB40_18 Depth=1
.Ltmp813:
	.loc	2 2036 9 is_stmt 0              @ rt-thread/src/ipc.c:2036:9
	bl	rt_hw_interrupt_disable
	str	r0, [sp, #8]
.Ltmp814:
	.loc	2 2036 9                        @ rt-thread/src/ipc.c:2036:9
	bl	rt_thread_self
.Ltmp815:
	.loc	2 2036 9                        @ rt-thread/src/ipc.c:2036:9
	cbnz	r0, .LBB40_24
	b	.LBB40_23
.LBB40_23:                              @   in Loop: Header=BB40_18 Depth=1
.Ltmp816:
	.loc	2 2036 9                        @ rt-thread/src/ipc.c:2036:9
	movw	r0, :lower16:.L.str.6
	movt	r0, :upper16:.L.str.6
	movw	r1, :lower16:.L__FUNCTION__.rt_mq_send_wait
	movt	r1, :upper16:.L__FUNCTION__.rt_mq_send_wait
	str	r1, [sp]                        @ 4-byte Spill
	bl	rt_kprintf
	ldr	r1, [sp]                        @ 4-byte Reload
.Ltmp817:
	.loc	2 2036 9                        @ rt-thread/src/ipc.c:2036:9
	movw	r0, :lower16:.L.str.4
	movt	r0, :upper16:.L.str.4
	movw	r2, #2036
	bl	rt_assert_handler
.Ltmp818:
	.loc	2 2036 9                        @ rt-thread/src/ipc.c:2036:9
	b	.LBB40_24
.Ltmp819:
.LBB40_24:                              @   in Loop: Header=BB40_18 Depth=1
	.loc	2 2036 9                        @ rt-thread/src/ipc.c:2036:9
	b	.LBB40_25
.LBB40_25:                              @   in Loop: Header=BB40_18 Depth=1
.Ltmp820:
	.loc	2 2036 9                        @ rt-thread/src/ipc.c:2036:9
	bl	rt_hw_interrupt_disable
	str	r0, [sp, #4]
.Ltmp821:
	.loc	2 2036 9                        @ rt-thread/src/ipc.c:2036:9
	bl	rt_interrupt_get_nest
.Ltmp822:
	.loc	2 2036 9                        @ rt-thread/src/ipc.c:2036:9
	cbz	r0, .LBB40_27
	b	.LBB40_26
.LBB40_26:                              @   in Loop: Header=BB40_18 Depth=1
.Ltmp823:
	.loc	2 2036 9                        @ rt-thread/src/ipc.c:2036:9
	movw	r0, :lower16:.L.str.4
	movt	r0, :upper16:.L.str.4
	movw	r1, :lower16:.L__FUNCTION__.rt_mq_send_wait
	movt	r1, :upper16:.L__FUNCTION__.rt_mq_send_wait
	movw	r2, #2036
	bl	rt_assert_handler
.Ltmp824:
	.loc	2 2036 9                        @ rt-thread/src/ipc.c:2036:9
	b	.LBB40_27
.Ltmp825:
.LBB40_27:                              @   in Loop: Header=BB40_18 Depth=1
	.loc	2 2036 9                        @ rt-thread/src/ipc.c:2036:9
	ldr	r0, [sp, #4]
	bl	rt_hw_interrupt_enable
	b	.LBB40_28
.Ltmp826:
.LBB40_28:                              @   in Loop: Header=BB40_18 Depth=1
	.loc	2 2036 9                        @ rt-thread/src/ipc.c:2036:9
	ldr	r0, [sp, #8]
	bl	rt_hw_interrupt_enable
	b	.LBB40_29
.Ltmp827:
.LBB40_29:                              @   in Loop: Header=BB40_18 Depth=1
	.loc	2 2038 31 is_stmt 1             @ rt-thread/src/ipc.c:2038:31
	ldr	r2, [sp, #40]
	.loc	2 2038 35 is_stmt 0             @ rt-thread/src/ipc.c:2038:35
	add.w	r0, r2, #52
	.loc	2 2039 29 is_stmt 1             @ rt-thread/src/ipc.c:2039:29
	ldr	r1, [sp, #12]
	.loc	2 2040 47                       @ rt-thread/src/ipc.c:2040:47
	ldrb	r2, [r2, #9]
	.loc	2 2038 9                        @ rt-thread/src/ipc.c:2038:9
	bl	rt_ipc_list_suspend
.Ltmp828:
	.loc	2 2043 13                       @ rt-thread/src/ipc.c:2043:13
	ldr	r0, [sp, #28]
.Ltmp829:
	.loc	2 2043 13 is_stmt 0             @ rt-thread/src/ipc.c:2043:13
	cmp	r0, #1
	blt	.LBB40_33
	b	.LBB40_30
.LBB40_30:                              @   in Loop: Header=BB40_18 Depth=1
.Ltmp830:
	.loc	2 2046 26 is_stmt 1             @ rt-thread/src/ipc.c:2046:26
	bl	rt_tick_get
	.loc	2 2046 24 is_stmt 0             @ rt-thread/src/ipc.c:2046:24
	str	r0, [sp, #16]
	.loc	2 2048 13 is_stmt 1             @ rt-thread/src/ipc.c:2048:13
	b	.LBB40_31
.LBB40_31:                              @   in Loop: Header=BB40_18 Depth=1
.Ltmp831:
	.loc	2 2048 13 is_stmt 0             @ rt-thread/src/ipc.c:2048:13
	b	.LBB40_32
.Ltmp832:
.LBB40_32:                              @   in Loop: Header=BB40_18 Depth=1
	.loc	2 2052 32 is_stmt 1             @ rt-thread/src/ipc.c:2052:32
	ldr	r0, [sp, #12]
	.loc	2 2052 40 is_stmt 0             @ rt-thread/src/ipc.c:2052:40
	adds	r0, #76
	movs	r1, #0
	add	r2, sp, #28
	.loc	2 2052 13                       @ rt-thread/src/ipc.c:2052:13
	bl	rt_timer_control
	.loc	2 2055 30 is_stmt 1             @ rt-thread/src/ipc.c:2055:30
	ldr	r0, [sp, #12]
	.loc	2 2055 38 is_stmt 0             @ rt-thread/src/ipc.c:2055:38
	adds	r0, #76
	.loc	2 2055 13                       @ rt-thread/src/ipc.c:2055:13
	bl	rt_timer_start
	.loc	2 2056 9 is_stmt 1              @ rt-thread/src/ipc.c:2056:9
	b	.LBB40_33
.Ltmp833:
.LBB40_33:                              @   in Loop: Header=BB40_18 Depth=1
	.loc	2 2059 32                       @ rt-thread/src/ipc.c:2059:32
	ldr	r0, [sp, #24]
	.loc	2 2059 9 is_stmt 0              @ rt-thread/src/ipc.c:2059:9
	bl	rt_hw_interrupt_enable
	.loc	2 2062 9 is_stmt 1              @ rt-thread/src/ipc.c:2062:9
	bl	rt_schedule
.Ltmp834:
	.loc	2 2065 13                       @ rt-thread/src/ipc.c:2065:13
	ldr	r0, [sp, #12]
	.loc	2 2065 21 is_stmt 0             @ rt-thread/src/ipc.c:2065:21
	ldr	r0, [r0, #48]
.Ltmp835:
	.loc	2 2065 13                       @ rt-thread/src/ipc.c:2065:13
	cbz	r0, .LBB40_35
	b	.LBB40_34
.LBB40_34:
.Ltmp836:
	.loc	2 2068 20 is_stmt 1             @ rt-thread/src/ipc.c:2068:20
	ldr	r0, [sp, #12]
	.loc	2 2068 28 is_stmt 0             @ rt-thread/src/ipc.c:2068:28
	ldr	r0, [r0, #48]
	.loc	2 2068 13                       @ rt-thread/src/ipc.c:2068:13
	str	r0, [sp, #44]
	b	.LBB40_47
.Ltmp837:
.LBB40_35:                              @   in Loop: Header=BB40_18 Depth=1
	.loc	2 2072 16 is_stmt 1             @ rt-thread/src/ipc.c:2072:16
	bl	rt_hw_interrupt_disable
	.loc	2 2072 14 is_stmt 0             @ rt-thread/src/ipc.c:2072:14
	str	r0, [sp, #24]
.Ltmp838:
	.loc	2 2075 13 is_stmt 1             @ rt-thread/src/ipc.c:2075:13
	ldr	r0, [sp, #28]
.Ltmp839:
	.loc	2 2075 13 is_stmt 0             @ rt-thread/src/ipc.c:2075:13
	cmp	r0, #1
	blt	.LBB40_39
	b	.LBB40_36
.LBB40_36:                              @   in Loop: Header=BB40_18 Depth=1
.Ltmp840:
	.loc	2 2077 26 is_stmt 1             @ rt-thread/src/ipc.c:2077:26
	bl	rt_tick_get
	.loc	2 2077 42 is_stmt 0             @ rt-thread/src/ipc.c:2077:42
	ldr	r1, [sp, #16]
	.loc	2 2077 40                       @ rt-thread/src/ipc.c:2077:40
	subs	r0, r0, r1
	.loc	2 2077 24                       @ rt-thread/src/ipc.c:2077:24
	str	r0, [sp, #16]
	.loc	2 2078 24 is_stmt 1             @ rt-thread/src/ipc.c:2078:24
	ldr	r1, [sp, #16]
	.loc	2 2078 21 is_stmt 0             @ rt-thread/src/ipc.c:2078:21
	ldr	r0, [sp, #28]
	subs	r0, r0, r1
	str	r0, [sp, #28]
.Ltmp841:
	.loc	2 2079 17 is_stmt 1             @ rt-thread/src/ipc.c:2079:17
	ldr	r0, [sp, #28]
.Ltmp842:
	.loc	2 2079 17 is_stmt 0             @ rt-thread/src/ipc.c:2079:17
	cmp.w	r0, #-1
	bgt	.LBB40_38
	b	.LBB40_37
.LBB40_37:                              @   in Loop: Header=BB40_18 Depth=1
	.loc	2 0 17                          @ rt-thread/src/ipc.c:0:17
	movs	r0, #0
.Ltmp843:
	.loc	2 2080 25 is_stmt 1             @ rt-thread/src/ipc.c:2080:25
	str	r0, [sp, #28]
	.loc	2 2080 17 is_stmt 0             @ rt-thread/src/ipc.c:2080:17
	b	.LBB40_38
.Ltmp844:
.LBB40_38:                              @   in Loop: Header=BB40_18 Depth=1
	.loc	2 2081 9 is_stmt 1              @ rt-thread/src/ipc.c:2081:9
	b	.LBB40_39
.Ltmp845:
.LBB40_39:                              @   in Loop: Header=BB40_18 Depth=1
	.loc	2 2022 5                        @ rt-thread/src/ipc.c:2022:5
	b	.LBB40_18
.LBB40_40:
	.loc	2 2085 26                       @ rt-thread/src/ipc.c:2085:26
	ldr	r0, [sp, #20]
	.loc	2 2085 31 is_stmt 0             @ rt-thread/src/ipc.c:2085:31
	ldr	r0, [r0]
	.loc	2 2085 5                        @ rt-thread/src/ipc.c:2085:5
	ldr	r1, [sp, #40]
	.loc	2 2085 24                       @ rt-thread/src/ipc.c:2085:24
	str	r0, [r1, #48]
	.loc	2 2088 28 is_stmt 1             @ rt-thread/src/ipc.c:2088:28
	ldr	r0, [sp, #24]
	.loc	2 2088 5 is_stmt 0              @ rt-thread/src/ipc.c:2088:5
	bl	rt_hw_interrupt_enable
	.loc	2 2091 5 is_stmt 1              @ rt-thread/src/ipc.c:2091:5
	ldr	r1, [sp, #20]
	movs	r0, #0
	.loc	2 2091 15 is_stmt 0             @ rt-thread/src/ipc.c:2091:15
	str	r0, [r1]
	.loc	2 2093 15 is_stmt 1             @ rt-thread/src/ipc.c:2093:15
	ldr	r0, [sp, #20]
	.loc	2 2093 19 is_stmt 0             @ rt-thread/src/ipc.c:2093:19
	adds	r0, #4
	.loc	2 2093 24                       @ rt-thread/src/ipc.c:2093:24
	ldr	r1, [sp, #36]
	.loc	2 2093 32                       @ rt-thread/src/ipc.c:2093:32
	ldr	r2, [sp, #32]
	.loc	2 2093 5                        @ rt-thread/src/ipc.c:2093:5
	bl	rt_memcpy
	.loc	2 2096 12 is_stmt 1             @ rt-thread/src/ipc.c:2096:12
	bl	rt_hw_interrupt_disable
	.loc	2 2096 10 is_stmt 0             @ rt-thread/src/ipc.c:2096:10
	str	r0, [sp, #24]
.Ltmp846:
	.loc	2 2098 9 is_stmt 1              @ rt-thread/src/ipc.c:2098:9
	ldr	r0, [sp, #40]
	.loc	2 2098 13 is_stmt 0             @ rt-thread/src/ipc.c:2098:13
	ldr	r0, [r0, #44]
.Ltmp847:
	.loc	2 2098 9                        @ rt-thread/src/ipc.c:2098:9
	cbz	r0, .LBB40_42
	b	.LBB40_41
.LBB40_41:
.Ltmp848:
	.loc	2 2101 62 is_stmt 1             @ rt-thread/src/ipc.c:2101:62
	ldr	r0, [sp, #20]
	.loc	2 2101 34 is_stmt 0             @ rt-thread/src/ipc.c:2101:34
	ldr	r1, [sp, #40]
	.loc	2 2101 38                       @ rt-thread/src/ipc.c:2101:38
	ldr	r1, [r1, #44]
	.loc	2 2101 60                       @ rt-thread/src/ipc.c:2101:60
	str	r0, [r1]
	.loc	2 2102 5 is_stmt 1              @ rt-thread/src/ipc.c:2102:5
	b	.LBB40_42
.Ltmp849:
.LBB40_42:
	.loc	2 2105 26                       @ rt-thread/src/ipc.c:2105:26
	ldr	r0, [sp, #20]
	.loc	2 2105 5 is_stmt 0              @ rt-thread/src/ipc.c:2105:5
	ldr	r1, [sp, #40]
	.loc	2 2105 24                       @ rt-thread/src/ipc.c:2105:24
	str	r0, [r1, #44]
.Ltmp850:
	.loc	2 2107 9 is_stmt 1              @ rt-thread/src/ipc.c:2107:9
	ldr	r0, [sp, #40]
	.loc	2 2107 13 is_stmt 0             @ rt-thread/src/ipc.c:2107:13
	ldr	r0, [r0, #40]
.Ltmp851:
	.loc	2 2107 9                        @ rt-thread/src/ipc.c:2107:9
	cbnz	r0, .LBB40_44
	b	.LBB40_43
.LBB40_43:
.Ltmp852:
	.loc	2 2108 30 is_stmt 1             @ rt-thread/src/ipc.c:2108:30
	ldr	r0, [sp, #20]
	.loc	2 2108 9 is_stmt 0              @ rt-thread/src/ipc.c:2108:9
	ldr	r1, [sp, #40]
	.loc	2 2108 28                       @ rt-thread/src/ipc.c:2108:28
	str	r0, [r1, #40]
	.loc	2 2108 9                        @ rt-thread/src/ipc.c:2108:9
	b	.LBB40_44
.Ltmp853:
.LBB40_44:
	.loc	2 2111 5 is_stmt 1              @ rt-thread/src/ipc.c:2111:5
	ldr	r1, [sp, #40]
	.loc	2 2111 15 is_stmt 0             @ rt-thread/src/ipc.c:2111:15
	ldrh	r0, [r1, #36]
	adds	r0, #1
	strh	r0, [r1, #36]
.Ltmp854:
	.loc	2 2114 27 is_stmt 1             @ rt-thread/src/ipc.c:2114:27
	ldr	r0, [sp, #40]
	.loc	2 2114 38 is_stmt 0             @ rt-thread/src/ipc.c:2114:38
	adds	r0, #20
	.loc	2 2114 10                       @ rt-thread/src/ipc.c:2114:10
	bl	rt_list_isempty
.Ltmp855:
	.loc	2 2114 9                        @ rt-thread/src/ipc.c:2114:9
	cbnz	r0, .LBB40_46
	b	.LBB40_45
.LBB40_45:
.Ltmp856:
	.loc	2 2116 30 is_stmt 1             @ rt-thread/src/ipc.c:2116:30
	ldr	r0, [sp, #40]
	.loc	2 2116 41 is_stmt 0             @ rt-thread/src/ipc.c:2116:41
	adds	r0, #20
	.loc	2 2116 9                        @ rt-thread/src/ipc.c:2116:9
	bl	rt_ipc_list_resume
	.loc	2 2119 32 is_stmt 1             @ rt-thread/src/ipc.c:2119:32
	ldr	r0, [sp, #24]
	.loc	2 2119 9 is_stmt 0              @ rt-thread/src/ipc.c:2119:9
	bl	rt_hw_interrupt_enable
	.loc	2 2121 9 is_stmt 1              @ rt-thread/src/ipc.c:2121:9
	bl	rt_schedule
	movs	r0, #0
	.loc	2 2123 9                        @ rt-thread/src/ipc.c:2123:9
	str	r0, [sp, #44]
	b	.LBB40_47
.Ltmp857:
.LBB40_46:
	.loc	2 2127 28                       @ rt-thread/src/ipc.c:2127:28
	ldr	r0, [sp, #24]
	.loc	2 2127 5 is_stmt 0              @ rt-thread/src/ipc.c:2127:5
	bl	rt_hw_interrupt_enable
	movs	r0, #0
	.loc	2 2129 5 is_stmt 1              @ rt-thread/src/ipc.c:2129:5
	str	r0, [sp, #44]
	b	.LBB40_47
.LBB40_47:
	.loc	2 2130 1                        @ rt-thread/src/ipc.c:2130:1
	ldr	r0, [sp, #44]
	add	sp, #48
	pop	{r7, pc}
.Ltmp858:
.Lfunc_end40:
	.size	rt_mq_send_wait, .Lfunc_end40-rt_mq_send_wait
	.cfi_endproc
	.cantunwind
	.fnend
                                        @ -- End function
	.section	.text.rt_mq_send,"ax",%progbits
	.hidden	rt_mq_send                      @ -- Begin function rt_mq_send
	.globl	rt_mq_send
	.p2align	3
	.type	rt_mq_send,%function
	.code	16                              @ @rt_mq_send
	.thumb_func
rt_mq_send:
.Lfunc_begin41:
	.loc	2 2144 0                        @ rt-thread/src/ipc.c:2144:0
	.fnstart
	.cfi_startproc
@ %bb.0:
	.save	{r7, lr}
	push	{r7, lr}
	.cfi_def_cfa_offset 8
	.cfi_offset lr, -4
	.cfi_offset r7, -8
	.pad	#16
	sub	sp, #16
	.cfi_def_cfa_offset 24
	str	r0, [sp, #12]
	str	r1, [sp, #8]
	str	r2, [sp, #4]
.Ltmp859:
	.loc	2 2145 28 prologue_end          @ rt-thread/src/ipc.c:2145:28
	ldr	r0, [sp, #12]
	.loc	2 2145 32 is_stmt 0             @ rt-thread/src/ipc.c:2145:32
	ldr	r1, [sp, #8]
	.loc	2 2145 40                       @ rt-thread/src/ipc.c:2145:40
	ldr	r2, [sp, #4]
	movs	r3, #0
	.loc	2 2145 12                       @ rt-thread/src/ipc.c:2145:12
	bl	rt_mq_send_wait
	.loc	2 2145 5                        @ rt-thread/src/ipc.c:2145:5
	add	sp, #16
	pop	{r7, pc}
.Ltmp860:
.Lfunc_end41:
	.size	rt_mq_send, .Lfunc_end41-rt_mq_send
	.cfi_endproc
	.cantunwind
	.fnend
                                        @ -- End function
	.section	.text.rt_mq_urgent,"ax",%progbits
	.hidden	rt_mq_urgent                    @ -- Begin function rt_mq_urgent
	.globl	rt_mq_urgent
	.p2align	3
	.type	rt_mq_urgent,%function
	.code	16                              @ @rt_mq_urgent
	.thumb_func
rt_mq_urgent:
.Lfunc_begin42:
	.loc	2 2161 0 is_stmt 1              @ rt-thread/src/ipc.c:2161:0
	.fnstart
	.cfi_startproc
@ %bb.0:
	.save	{r7, lr}
	push	{r7, lr}
	.cfi_def_cfa_offset 8
	.cfi_offset lr, -4
	.cfi_offset r7, -8
	.pad	#24
	sub	sp, #24
	.cfi_def_cfa_offset 32
	str	r0, [sp, #16]
	str	r1, [sp, #12]
	str	r2, [sp, #8]
.Ltmp861:
	.loc	2 2166 5 prologue_end           @ rt-thread/src/ipc.c:2166:5
	ldr	r0, [sp, #16]
.Ltmp862:
	.loc	2 2166 5 is_stmt 0              @ rt-thread/src/ipc.c:2166:5
	cbnz	r0, .LBB42_2
	b	.LBB42_1
.LBB42_1:
.Ltmp863:
	.loc	2 2166 5                        @ rt-thread/src/ipc.c:2166:5
	movw	r0, :lower16:.L.str.19
	movt	r0, :upper16:.L.str.19
	movw	r1, :lower16:.L__FUNCTION__.rt_mq_urgent
	movt	r1, :upper16:.L__FUNCTION__.rt_mq_urgent
	movw	r2, #2166
	bl	rt_assert_handler
	b	.LBB42_2
.Ltmp864:
.LBB42_2:
	.loc	2 2167 5 is_stmt 1              @ rt-thread/src/ipc.c:2167:5
	ldr	r0, [sp, #16]
	bl	rt_object_get_type
.Ltmp865:
	.loc	2 2167 5 is_stmt 0              @ rt-thread/src/ipc.c:2167:5
	cmp	r0, #6
	beq	.LBB42_4
	b	.LBB42_3
.LBB42_3:
.Ltmp866:
	.loc	2 2167 5                        @ rt-thread/src/ipc.c:2167:5
	movw	r0, :lower16:.L.str.20
	movt	r0, :upper16:.L.str.20
	movw	r1, :lower16:.L__FUNCTION__.rt_mq_urgent
	movt	r1, :upper16:.L__FUNCTION__.rt_mq_urgent
	movw	r2, #2167
	bl	rt_assert_handler
	b	.LBB42_4
.Ltmp867:
.LBB42_4:
	.loc	2 2168 5 is_stmt 1              @ rt-thread/src/ipc.c:2168:5
	ldr	r0, [sp, #12]
.Ltmp868:
	.loc	2 2168 5 is_stmt 0              @ rt-thread/src/ipc.c:2168:5
	cbnz	r0, .LBB42_6
	b	.LBB42_5
.LBB42_5:
.Ltmp869:
	.loc	2 2168 5                        @ rt-thread/src/ipc.c:2168:5
	movw	r0, :lower16:.L.str.23
	movt	r0, :upper16:.L.str.23
	movw	r1, :lower16:.L__FUNCTION__.rt_mq_urgent
	movt	r1, :upper16:.L__FUNCTION__.rt_mq_urgent
	movw	r2, #2168
	bl	rt_assert_handler
	b	.LBB42_6
.Ltmp870:
.LBB42_6:
	.loc	2 2169 5 is_stmt 1              @ rt-thread/src/ipc.c:2169:5
	ldr	r0, [sp, #8]
.Ltmp871:
	.loc	2 2169 5 is_stmt 0              @ rt-thread/src/ipc.c:2169:5
	cbnz	r0, .LBB42_8
	b	.LBB42_7
.LBB42_7:
.Ltmp872:
	.loc	2 2169 5                        @ rt-thread/src/ipc.c:2169:5
	movw	r0, :lower16:.L.str.24
	movt	r0, :upper16:.L.str.24
	movw	r1, :lower16:.L__FUNCTION__.rt_mq_urgent
	movt	r1, :upper16:.L__FUNCTION__.rt_mq_urgent
	movw	r2, #2169
	bl	rt_assert_handler
	b	.LBB42_8
.Ltmp873:
.LBB42_8:
	.loc	2 2172 9 is_stmt 1              @ rt-thread/src/ipc.c:2172:9
	ldr	r0, [sp, #8]
	.loc	2 2172 16 is_stmt 0             @ rt-thread/src/ipc.c:2172:16
	ldr	r1, [sp, #16]
	.loc	2 2172 20                       @ rt-thread/src/ipc.c:2172:20
	ldrh	r1, [r1, #32]
.Ltmp874:
	.loc	2 2172 9                        @ rt-thread/src/ipc.c:2172:9
	cmp	r0, r1
	bls	.LBB42_10
	b	.LBB42_9
.LBB42_9:
	.loc	2 0 9                           @ rt-thread/src/ipc.c:0:9
	mov.w	r0, #-1
.Ltmp875:
	.loc	2 2173 9 is_stmt 1              @ rt-thread/src/ipc.c:2173:9
	str	r0, [sp, #20]
	b	.LBB42_21
.Ltmp876:
.LBB42_10:
	.loc	2 2175 5                        @ rt-thread/src/ipc.c:2175:5
	b	.LBB42_11
.LBB42_11:
.Ltmp877:
	.loc	2 2175 5 is_stmt 0              @ rt-thread/src/ipc.c:2175:5
	movw	r0, :lower16:rt_object_put_hook
	movt	r0, :upper16:rt_object_put_hook
	ldr	r0, [r0]
.Ltmp878:
	.loc	2 2175 5                        @ rt-thread/src/ipc.c:2175:5
	cbz	r0, .LBB42_13
	b	.LBB42_12
.LBB42_12:
.Ltmp879:
	.loc	2 2175 5                        @ rt-thread/src/ipc.c:2175:5
	movw	r0, :lower16:rt_object_put_hook
	movt	r0, :upper16:rt_object_put_hook
	ldr	r1, [r0]
	ldr	r0, [sp, #16]
	blx	r1
	b	.LBB42_13
.Ltmp880:
.LBB42_13:
	.loc	2 2175 5                        @ rt-thread/src/ipc.c:2175:5
	b	.LBB42_14
.Ltmp881:
.LBB42_14:
	.loc	2 2178 12 is_stmt 1             @ rt-thread/src/ipc.c:2178:12
	bl	rt_hw_interrupt_disable
	.loc	2 2178 10 is_stmt 0             @ rt-thread/src/ipc.c:2178:10
	str	r0, [sp, #4]
	.loc	2 2181 35 is_stmt 1             @ rt-thread/src/ipc.c:2181:35
	ldr	r0, [sp, #16]
	.loc	2 2181 39 is_stmt 0             @ rt-thread/src/ipc.c:2181:39
	ldr	r0, [r0, #48]
	.loc	2 2181 9                        @ rt-thread/src/ipc.c:2181:9
	str	r0, [sp]
.Ltmp882:
	.loc	2 2183 9 is_stmt 1              @ rt-thread/src/ipc.c:2183:9
	ldr	r0, [sp]
.Ltmp883:
	.loc	2 2183 9 is_stmt 0              @ rt-thread/src/ipc.c:2183:9
	cbnz	r0, .LBB42_16
	b	.LBB42_15
.LBB42_15:
.Ltmp884:
	.loc	2 2186 32 is_stmt 1             @ rt-thread/src/ipc.c:2186:32
	ldr	r0, [sp, #4]
	.loc	2 2186 9 is_stmt 0              @ rt-thread/src/ipc.c:2186:9
	bl	rt_hw_interrupt_enable
	mvn	r0, #2
	.loc	2 2188 9 is_stmt 1              @ rt-thread/src/ipc.c:2188:9
	str	r0, [sp, #20]
	b	.LBB42_21
.Ltmp885:
.LBB42_16:
	.loc	2 2191 26                       @ rt-thread/src/ipc.c:2191:26
	ldr	r0, [sp]
	.loc	2 2191 31 is_stmt 0             @ rt-thread/src/ipc.c:2191:31
	ldr	r0, [r0]
	.loc	2 2191 5                        @ rt-thread/src/ipc.c:2191:5
	ldr	r1, [sp, #16]
	.loc	2 2191 24                       @ rt-thread/src/ipc.c:2191:24
	str	r0, [r1, #48]
	.loc	2 2194 28 is_stmt 1             @ rt-thread/src/ipc.c:2194:28
	ldr	r0, [sp, #4]
	.loc	2 2194 5 is_stmt 0              @ rt-thread/src/ipc.c:2194:5
	bl	rt_hw_interrupt_enable
	.loc	2 2197 15 is_stmt 1             @ rt-thread/src/ipc.c:2197:15
	ldr	r0, [sp]
	.loc	2 2197 19 is_stmt 0             @ rt-thread/src/ipc.c:2197:19
	adds	r0, #4
	.loc	2 2197 24                       @ rt-thread/src/ipc.c:2197:24
	ldr	r1, [sp, #12]
	.loc	2 2197 32                       @ rt-thread/src/ipc.c:2197:32
	ldr	r2, [sp, #8]
	.loc	2 2197 5                        @ rt-thread/src/ipc.c:2197:5
	bl	rt_memcpy
	.loc	2 2200 12 is_stmt 1             @ rt-thread/src/ipc.c:2200:12
	bl	rt_hw_interrupt_disable
	.loc	2 2200 10 is_stmt 0             @ rt-thread/src/ipc.c:2200:10
	str	r0, [sp, #4]
	.loc	2 2203 41 is_stmt 1             @ rt-thread/src/ipc.c:2203:41
	ldr	r0, [sp, #16]
	.loc	2 2203 45 is_stmt 0             @ rt-thread/src/ipc.c:2203:45
	ldr	r0, [r0, #40]
	.loc	2 2203 5                        @ rt-thread/src/ipc.c:2203:5
	ldr	r1, [sp]
	.loc	2 2203 15                       @ rt-thread/src/ipc.c:2203:15
	str	r0, [r1]
	.loc	2 2204 26 is_stmt 1             @ rt-thread/src/ipc.c:2204:26
	ldr	r0, [sp]
	.loc	2 2204 5 is_stmt 0              @ rt-thread/src/ipc.c:2204:5
	ldr	r1, [sp, #16]
	.loc	2 2204 24                       @ rt-thread/src/ipc.c:2204:24
	str	r0, [r1, #40]
.Ltmp886:
	.loc	2 2207 9 is_stmt 1              @ rt-thread/src/ipc.c:2207:9
	ldr	r0, [sp, #16]
	.loc	2 2207 13 is_stmt 0             @ rt-thread/src/ipc.c:2207:13
	ldr	r0, [r0, #44]
.Ltmp887:
	.loc	2 2207 9                        @ rt-thread/src/ipc.c:2207:9
	cbnz	r0, .LBB42_18
	b	.LBB42_17
.LBB42_17:
.Ltmp888:
	.loc	2 2208 30 is_stmt 1             @ rt-thread/src/ipc.c:2208:30
	ldr	r0, [sp]
	.loc	2 2208 9 is_stmt 0              @ rt-thread/src/ipc.c:2208:9
	ldr	r1, [sp, #16]
	.loc	2 2208 28                       @ rt-thread/src/ipc.c:2208:28
	str	r0, [r1, #44]
	.loc	2 2208 9                        @ rt-thread/src/ipc.c:2208:9
	b	.LBB42_18
.Ltmp889:
.LBB42_18:
	.loc	2 2211 5 is_stmt 1              @ rt-thread/src/ipc.c:2211:5
	ldr	r1, [sp, #16]
	.loc	2 2211 15 is_stmt 0             @ rt-thread/src/ipc.c:2211:15
	ldrh	r0, [r1, #36]
	adds	r0, #1
	strh	r0, [r1, #36]
.Ltmp890:
	.loc	2 2214 27 is_stmt 1             @ rt-thread/src/ipc.c:2214:27
	ldr	r0, [sp, #16]
	.loc	2 2214 38 is_stmt 0             @ rt-thread/src/ipc.c:2214:38
	adds	r0, #20
	.loc	2 2214 10                       @ rt-thread/src/ipc.c:2214:10
	bl	rt_list_isempty
.Ltmp891:
	.loc	2 2214 9                        @ rt-thread/src/ipc.c:2214:9
	cbnz	r0, .LBB42_20
	b	.LBB42_19
.LBB42_19:
.Ltmp892:
	.loc	2 2216 30 is_stmt 1             @ rt-thread/src/ipc.c:2216:30
	ldr	r0, [sp, #16]
	.loc	2 2216 41 is_stmt 0             @ rt-thread/src/ipc.c:2216:41
	adds	r0, #20
	.loc	2 2216 9                        @ rt-thread/src/ipc.c:2216:9
	bl	rt_ipc_list_resume
	.loc	2 2219 32 is_stmt 1             @ rt-thread/src/ipc.c:2219:32
	ldr	r0, [sp, #4]
	.loc	2 2219 9 is_stmt 0              @ rt-thread/src/ipc.c:2219:9
	bl	rt_hw_interrupt_enable
	.loc	2 2221 9 is_stmt 1              @ rt-thread/src/ipc.c:2221:9
	bl	rt_schedule
	movs	r0, #0
	.loc	2 2223 9                        @ rt-thread/src/ipc.c:2223:9
	str	r0, [sp, #20]
	b	.LBB42_21
.Ltmp893:
.LBB42_20:
	.loc	2 2227 28                       @ rt-thread/src/ipc.c:2227:28
	ldr	r0, [sp, #4]
	.loc	2 2227 5 is_stmt 0              @ rt-thread/src/ipc.c:2227:5
	bl	rt_hw_interrupt_enable
	movs	r0, #0
	.loc	2 2229 5 is_stmt 1              @ rt-thread/src/ipc.c:2229:5
	str	r0, [sp, #20]
	b	.LBB42_21
.LBB42_21:
	.loc	2 2230 1                        @ rt-thread/src/ipc.c:2230:1
	ldr	r0, [sp, #20]
	add	sp, #24
	pop	{r7, pc}
.Ltmp894:
.Lfunc_end42:
	.size	rt_mq_urgent, .Lfunc_end42-rt_mq_urgent
	.cfi_endproc
	.cantunwind
	.fnend
                                        @ -- End function
	.section	.text.rt_mq_recv,"ax",%progbits
	.hidden	rt_mq_recv                      @ -- Begin function rt_mq_recv
	.globl	rt_mq_recv
	.p2align	3
	.type	rt_mq_recv,%function
	.code	16                              @ @rt_mq_recv
	.thumb_func
rt_mq_recv:
.Lfunc_begin43:
	.loc	2 2249 0                        @ rt-thread/src/ipc.c:2249:0
	.fnstart
	.cfi_startproc
@ %bb.0:
	.save	{r7, lr}
	push	{r7, lr}
	.cfi_def_cfa_offset 8
	.cfi_offset lr, -4
	.cfi_offset r7, -8
	.pad	#64
	sub	sp, #64
	.cfi_def_cfa_offset 72
	str	r0, [sp, #56]
	str	r1, [sp, #52]
	str	r2, [sp, #48]
	str	r3, [sp, #44]
.Ltmp895:
	.loc	2 2256 5 prologue_end           @ rt-thread/src/ipc.c:2256:5
	ldr	r0, [sp, #56]
.Ltmp896:
	.loc	2 2256 5 is_stmt 0              @ rt-thread/src/ipc.c:2256:5
	cbnz	r0, .LBB43_2
	b	.LBB43_1
.LBB43_1:
.Ltmp897:
	.loc	2 2256 5                        @ rt-thread/src/ipc.c:2256:5
	movw	r0, :lower16:.L.str.19
	movt	r0, :upper16:.L.str.19
	movw	r1, :lower16:.L__FUNCTION__.rt_mq_recv
	movt	r1, :upper16:.L__FUNCTION__.rt_mq_recv
	mov.w	r2, #2256
	bl	rt_assert_handler
	b	.LBB43_2
.Ltmp898:
.LBB43_2:
	.loc	2 2257 5 is_stmt 1              @ rt-thread/src/ipc.c:2257:5
	ldr	r0, [sp, #56]
	bl	rt_object_get_type
.Ltmp899:
	.loc	2 2257 5 is_stmt 0              @ rt-thread/src/ipc.c:2257:5
	cmp	r0, #6
	beq	.LBB43_4
	b	.LBB43_3
.LBB43_3:
.Ltmp900:
	.loc	2 2257 5                        @ rt-thread/src/ipc.c:2257:5
	movw	r0, :lower16:.L.str.20
	movt	r0, :upper16:.L.str.20
	movw	r1, :lower16:.L__FUNCTION__.rt_mq_recv
	movt	r1, :upper16:.L__FUNCTION__.rt_mq_recv
	movw	r2, #2257
	bl	rt_assert_handler
	b	.LBB43_4
.Ltmp901:
.LBB43_4:
	.loc	2 2258 5 is_stmt 1              @ rt-thread/src/ipc.c:2258:5
	ldr	r0, [sp, #52]
.Ltmp902:
	.loc	2 2258 5 is_stmt 0              @ rt-thread/src/ipc.c:2258:5
	cbnz	r0, .LBB43_6
	b	.LBB43_5
.LBB43_5:
.Ltmp903:
	.loc	2 2258 5                        @ rt-thread/src/ipc.c:2258:5
	movw	r0, :lower16:.L.str.23
	movt	r0, :upper16:.L.str.23
	movw	r1, :lower16:.L__FUNCTION__.rt_mq_recv
	movt	r1, :upper16:.L__FUNCTION__.rt_mq_recv
	movw	r2, #2258
	bl	rt_assert_handler
	b	.LBB43_6
.Ltmp904:
.LBB43_6:
	.loc	2 2259 5 is_stmt 1              @ rt-thread/src/ipc.c:2259:5
	ldr	r0, [sp, #48]
.Ltmp905:
	.loc	2 2259 5 is_stmt 0              @ rt-thread/src/ipc.c:2259:5
	cbnz	r0, .LBB43_8
	b	.LBB43_7
.LBB43_7:
.Ltmp906:
	.loc	2 2259 5                        @ rt-thread/src/ipc.c:2259:5
	movw	r0, :lower16:.L.str.24
	movt	r0, :upper16:.L.str.24
	movw	r1, :lower16:.L__FUNCTION__.rt_mq_recv
	movt	r1, :upper16:.L__FUNCTION__.rt_mq_recv
	movw	r2, #2259
	bl	rt_assert_handler
	b	.LBB43_8
.Ltmp907:
.LBB43_8:
	.loc	2 0 5                           @ rt-thread/src/ipc.c:0:5
	movs	r0, #0
	.loc	2 2262 16 is_stmt 1             @ rt-thread/src/ipc.c:2262:16
	str	r0, [sp, #28]
	.loc	2 2264 14                       @ rt-thread/src/ipc.c:2264:14
	bl	rt_thread_self
	.loc	2 2264 12 is_stmt 0             @ rt-thread/src/ipc.c:2264:12
	str	r0, [sp, #40]
	.loc	2 2265 5 is_stmt 1              @ rt-thread/src/ipc.c:2265:5
	b	.LBB43_9
.LBB43_9:
.Ltmp908:
	.loc	2 2265 5 is_stmt 0              @ rt-thread/src/ipc.c:2265:5
	movw	r0, :lower16:rt_object_trytake_hook
	movt	r0, :upper16:rt_object_trytake_hook
	ldr	r0, [r0]
.Ltmp909:
	.loc	2 2265 5                        @ rt-thread/src/ipc.c:2265:5
	cbz	r0, .LBB43_11
	b	.LBB43_10
.LBB43_10:
.Ltmp910:
	.loc	2 2265 5                        @ rt-thread/src/ipc.c:2265:5
	movw	r0, :lower16:rt_object_trytake_hook
	movt	r0, :upper16:rt_object_trytake_hook
	ldr	r1, [r0]
	ldr	r0, [sp, #56]
	blx	r1
	b	.LBB43_11
.Ltmp911:
.LBB43_11:
	.loc	2 2265 5                        @ rt-thread/src/ipc.c:2265:5
	b	.LBB43_12
.Ltmp912:
.LBB43_12:
	.loc	2 2268 12 is_stmt 1             @ rt-thread/src/ipc.c:2268:12
	bl	rt_hw_interrupt_disable
	.loc	2 2268 10 is_stmt 0             @ rt-thread/src/ipc.c:2268:10
	str	r0, [sp, #36]
.Ltmp913:
	.loc	2 2271 9 is_stmt 1              @ rt-thread/src/ipc.c:2271:9
	ldr	r0, [sp, #56]
	.loc	2 2271 13 is_stmt 0             @ rt-thread/src/ipc.c:2271:13
	ldrh	r0, [r0, #36]
	.loc	2 2271 24                       @ rt-thread/src/ipc.c:2271:24
	cbnz	r0, .LBB43_15
	b	.LBB43_13
.LBB43_13:
	.loc	2 2271 27                       @ rt-thread/src/ipc.c:2271:27
	ldr	r0, [sp, #44]
.Ltmp914:
	.loc	2 2271 9                        @ rt-thread/src/ipc.c:2271:9
	cbnz	r0, .LBB43_15
	b	.LBB43_14
.LBB43_14:
.Ltmp915:
	.loc	2 2273 32 is_stmt 1             @ rt-thread/src/ipc.c:2273:32
	ldr	r0, [sp, #36]
	.loc	2 2273 9 is_stmt 0              @ rt-thread/src/ipc.c:2273:9
	bl	rt_hw_interrupt_enable
	mvn	r0, #1
	.loc	2 2275 9 is_stmt 1              @ rt-thread/src/ipc.c:2275:9
	str	r0, [sp, #60]
	b	.LBB43_54
.Ltmp916:
.LBB43_15:
	.loc	2 2279 5                        @ rt-thread/src/ipc.c:2279:5
	b	.LBB43_16
.LBB43_16:                              @ =>This Inner Loop Header: Depth=1
	.loc	2 2279 12 is_stmt 0             @ rt-thread/src/ipc.c:2279:12
	ldr	r0, [sp, #56]
	.loc	2 2279 16                       @ rt-thread/src/ipc.c:2279:16
	ldrh	r0, [r0, #36]
	.loc	2 2279 5                        @ rt-thread/src/ipc.c:2279:5
	cmp	r0, #0
	bne.w	.LBB43_38
	b	.LBB43_17
.LBB43_17:                              @   in Loop: Header=BB43_16 Depth=1
.Ltmp917:
	.loc	2 2281 9 is_stmt 1              @ rt-thread/src/ipc.c:2281:9
	b	.LBB43_18
.LBB43_18:                              @   in Loop: Header=BB43_16 Depth=1
.Ltmp918:
	.loc	2 2281 9 is_stmt 0              @ rt-thread/src/ipc.c:2281:9
	bl	rt_hw_interrupt_disable
	str	r0, [sp, #24]
.Ltmp919:
	.loc	2 2281 9                        @ rt-thread/src/ipc.c:2281:9
	bl	rt_thread_self
.Ltmp920:
	.loc	2 2281 9                        @ rt-thread/src/ipc.c:2281:9
	cbnz	r0, .LBB43_20
	b	.LBB43_19
.LBB43_19:                              @   in Loop: Header=BB43_16 Depth=1
.Ltmp921:
	.loc	2 2281 9                        @ rt-thread/src/ipc.c:2281:9
	movw	r0, :lower16:.L.str.6
	movt	r0, :upper16:.L.str.6
	movw	r1, :lower16:.L__FUNCTION__.rt_mq_recv
	movt	r1, :upper16:.L__FUNCTION__.rt_mq_recv
	str	r1, [sp, #16]                   @ 4-byte Spill
	bl	rt_kprintf
	ldr	r1, [sp, #16]                   @ 4-byte Reload
.Ltmp922:
	.loc	2 2281 9                        @ rt-thread/src/ipc.c:2281:9
	movw	r0, :lower16:.L.str.4
	movt	r0, :upper16:.L.str.4
	movw	r2, #2281
	bl	rt_assert_handler
.Ltmp923:
	.loc	2 2281 9                        @ rt-thread/src/ipc.c:2281:9
	b	.LBB43_20
.Ltmp924:
.LBB43_20:                              @   in Loop: Header=BB43_16 Depth=1
	.loc	2 2281 9                        @ rt-thread/src/ipc.c:2281:9
	b	.LBB43_21
.LBB43_21:                              @   in Loop: Header=BB43_16 Depth=1
.Ltmp925:
	.loc	2 2281 9                        @ rt-thread/src/ipc.c:2281:9
	bl	rt_hw_interrupt_disable
	str	r0, [sp, #20]
.Ltmp926:
	.loc	2 2281 9                        @ rt-thread/src/ipc.c:2281:9
	bl	rt_interrupt_get_nest
.Ltmp927:
	.loc	2 2281 9                        @ rt-thread/src/ipc.c:2281:9
	cbz	r0, .LBB43_23
	b	.LBB43_22
.LBB43_22:                              @   in Loop: Header=BB43_16 Depth=1
.Ltmp928:
	.loc	2 2281 9                        @ rt-thread/src/ipc.c:2281:9
	movw	r0, :lower16:.L.str.4
	movt	r0, :upper16:.L.str.4
	movw	r1, :lower16:.L__FUNCTION__.rt_mq_recv
	movt	r1, :upper16:.L__FUNCTION__.rt_mq_recv
	movw	r2, #2281
	bl	rt_assert_handler
.Ltmp929:
	.loc	2 2281 9                        @ rt-thread/src/ipc.c:2281:9
	b	.LBB43_23
.Ltmp930:
.LBB43_23:                              @   in Loop: Header=BB43_16 Depth=1
	.loc	2 2281 9                        @ rt-thread/src/ipc.c:2281:9
	ldr	r0, [sp, #20]
	bl	rt_hw_interrupt_enable
	b	.LBB43_24
.Ltmp931:
.LBB43_24:                              @   in Loop: Header=BB43_16 Depth=1
	.loc	2 2281 9                        @ rt-thread/src/ipc.c:2281:9
	ldr	r0, [sp, #24]
	bl	rt_hw_interrupt_enable
	b	.LBB43_25
.Ltmp932:
.LBB43_25:                              @   in Loop: Header=BB43_16 Depth=1
	.loc	2 2284 9 is_stmt 1              @ rt-thread/src/ipc.c:2284:9
	ldr	r1, [sp, #40]
	movs	r0, #0
	.loc	2 2284 23 is_stmt 0             @ rt-thread/src/ipc.c:2284:23
	str	r0, [r1, #48]
.Ltmp933:
	.loc	2 2287 13 is_stmt 1             @ rt-thread/src/ipc.c:2287:13
	ldr	r0, [sp, #44]
.Ltmp934:
	.loc	2 2287 13 is_stmt 0             @ rt-thread/src/ipc.c:2287:13
	cbnz	r0, .LBB43_27
	b	.LBB43_26
.LBB43_26:
.Ltmp935:
	.loc	2 2290 36 is_stmt 1             @ rt-thread/src/ipc.c:2290:36
	ldr	r0, [sp, #36]
	.loc	2 2290 13 is_stmt 0             @ rt-thread/src/ipc.c:2290:13
	bl	rt_hw_interrupt_enable
	.loc	2 2292 13 is_stmt 1             @ rt-thread/src/ipc.c:2292:13
	ldr	r1, [sp, #40]
	mvn	r0, #1
	.loc	2 2292 27 is_stmt 0             @ rt-thread/src/ipc.c:2292:27
	str	r0, [r1, #48]
	.loc	2 2294 13 is_stmt 1             @ rt-thread/src/ipc.c:2294:13
	str	r0, [sp, #60]
	b	.LBB43_54
.Ltmp936:
.LBB43_27:                              @   in Loop: Header=BB43_16 Depth=1
	.loc	2 2298 31                       @ rt-thread/src/ipc.c:2298:31
	ldr	r2, [sp, #56]
	.loc	2 2298 42 is_stmt 0             @ rt-thread/src/ipc.c:2298:42
	add.w	r0, r2, #20
	.loc	2 2299 29 is_stmt 1             @ rt-thread/src/ipc.c:2299:29
	ldr	r1, [sp, #40]
	.loc	2 2300 47                       @ rt-thread/src/ipc.c:2300:47
	ldrb	r2, [r2, #9]
	.loc	2 2298 9                        @ rt-thread/src/ipc.c:2298:9
	bl	rt_ipc_list_suspend
.Ltmp937:
	.loc	2 2303 13                       @ rt-thread/src/ipc.c:2303:13
	ldr	r0, [sp, #44]
.Ltmp938:
	.loc	2 2303 13 is_stmt 0             @ rt-thread/src/ipc.c:2303:13
	cmp	r0, #1
	blt	.LBB43_31
	b	.LBB43_28
.LBB43_28:                              @   in Loop: Header=BB43_16 Depth=1
.Ltmp939:
	.loc	2 2306 26 is_stmt 1             @ rt-thread/src/ipc.c:2306:26
	bl	rt_tick_get
	.loc	2 2306 24 is_stmt 0             @ rt-thread/src/ipc.c:2306:24
	str	r0, [sp, #28]
	.loc	2 2308 13 is_stmt 1             @ rt-thread/src/ipc.c:2308:13
	b	.LBB43_29
.LBB43_29:                              @   in Loop: Header=BB43_16 Depth=1
.Ltmp940:
	.loc	2 2308 13 is_stmt 0             @ rt-thread/src/ipc.c:2308:13
	b	.LBB43_30
.Ltmp941:
.LBB43_30:                              @   in Loop: Header=BB43_16 Depth=1
	.loc	2 2312 32 is_stmt 1             @ rt-thread/src/ipc.c:2312:32
	ldr	r0, [sp, #40]
	.loc	2 2312 40 is_stmt 0             @ rt-thread/src/ipc.c:2312:40
	adds	r0, #76
	movs	r1, #0
	add	r2, sp, #44
	.loc	2 2312 13                       @ rt-thread/src/ipc.c:2312:13
	bl	rt_timer_control
	.loc	2 2315 30 is_stmt 1             @ rt-thread/src/ipc.c:2315:30
	ldr	r0, [sp, #40]
	.loc	2 2315 38 is_stmt 0             @ rt-thread/src/ipc.c:2315:38
	adds	r0, #76
	.loc	2 2315 13                       @ rt-thread/src/ipc.c:2315:13
	bl	rt_timer_start
	.loc	2 2316 9 is_stmt 1              @ rt-thread/src/ipc.c:2316:9
	b	.LBB43_31
.Ltmp942:
.LBB43_31:                              @   in Loop: Header=BB43_16 Depth=1
	.loc	2 2319 32                       @ rt-thread/src/ipc.c:2319:32
	ldr	r0, [sp, #36]
	.loc	2 2319 9 is_stmt 0              @ rt-thread/src/ipc.c:2319:9
	bl	rt_hw_interrupt_enable
	.loc	2 2322 9 is_stmt 1              @ rt-thread/src/ipc.c:2322:9
	bl	rt_schedule
.Ltmp943:
	.loc	2 2325 13                       @ rt-thread/src/ipc.c:2325:13
	ldr	r0, [sp, #40]
	.loc	2 2325 21 is_stmt 0             @ rt-thread/src/ipc.c:2325:21
	ldr	r0, [r0, #48]
.Ltmp944:
	.loc	2 2325 13                       @ rt-thread/src/ipc.c:2325:13
	cbz	r0, .LBB43_33
	b	.LBB43_32
.LBB43_32:
.Ltmp945:
	.loc	2 2328 20 is_stmt 1             @ rt-thread/src/ipc.c:2328:20
	ldr	r0, [sp, #40]
	.loc	2 2328 28 is_stmt 0             @ rt-thread/src/ipc.c:2328:28
	ldr	r0, [r0, #48]
	.loc	2 2328 13                       @ rt-thread/src/ipc.c:2328:13
	str	r0, [sp, #60]
	b	.LBB43_54
.Ltmp946:
.LBB43_33:                              @   in Loop: Header=BB43_16 Depth=1
	.loc	2 2332 16 is_stmt 1             @ rt-thread/src/ipc.c:2332:16
	bl	rt_hw_interrupt_disable
	.loc	2 2332 14 is_stmt 0             @ rt-thread/src/ipc.c:2332:14
	str	r0, [sp, #36]
.Ltmp947:
	.loc	2 2335 13 is_stmt 1             @ rt-thread/src/ipc.c:2335:13
	ldr	r0, [sp, #44]
.Ltmp948:
	.loc	2 2335 13 is_stmt 0             @ rt-thread/src/ipc.c:2335:13
	cmp	r0, #1
	blt	.LBB43_37
	b	.LBB43_34
.LBB43_34:                              @   in Loop: Header=BB43_16 Depth=1
.Ltmp949:
	.loc	2 2337 26 is_stmt 1             @ rt-thread/src/ipc.c:2337:26
	bl	rt_tick_get
	.loc	2 2337 42 is_stmt 0             @ rt-thread/src/ipc.c:2337:42
	ldr	r1, [sp, #28]
	.loc	2 2337 40                       @ rt-thread/src/ipc.c:2337:40
	subs	r0, r0, r1
	.loc	2 2337 24                       @ rt-thread/src/ipc.c:2337:24
	str	r0, [sp, #28]
	.loc	2 2338 24 is_stmt 1             @ rt-thread/src/ipc.c:2338:24
	ldr	r1, [sp, #28]
	.loc	2 2338 21 is_stmt 0             @ rt-thread/src/ipc.c:2338:21
	ldr	r0, [sp, #44]
	subs	r0, r0, r1
	str	r0, [sp, #44]
.Ltmp950:
	.loc	2 2339 17 is_stmt 1             @ rt-thread/src/ipc.c:2339:17
	ldr	r0, [sp, #44]
.Ltmp951:
	.loc	2 2339 17 is_stmt 0             @ rt-thread/src/ipc.c:2339:17
