	.text
	.syntax unified
	.eabi_attribute	67, "2.09"	@ Tag_conformance
	.cpu	cortex-m7
	.eabi_attribute	6, 13	@ Tag_CPU_arch
	.eabi_attribute	7, 77	@ Tag_CPU_arch_profile
	.eabi_attribute	8, 0	@ Tag_ARM_ISA_use
	.eabi_attribute	9, 2	@ Tag_THUMB_ISA_use
	.fpu	fpv5-d16
	.eabi_attribute	36, 1	@ Tag_FP_HP_extension
	.eabi_attribute	34, 1	@ Tag_CPU_unaligned_access
	.eabi_attribute	17, 1	@ Tag_ABI_PCS_GOT_use
	.eabi_attribute	20, 2	@ Tag_ABI_FP_denormal
	.eabi_attribute	21, 0	@ Tag_ABI_FP_exceptions
	.eabi_attribute	23, 1	@ Tag_ABI_FP_number_model
	.eabi_attribute	24, 1	@ Tag_ABI_align_needed
	.eabi_attribute	25, 1	@ Tag_ABI_align_preserved
	.eabi_attribute	28, 1	@ Tag_ABI_VFP_args
	.eabi_attribute	38, 1	@ Tag_ABI_FP_16bit_format
	.eabi_attribute	18, 2	@ Tag_ABI_PCS_wchar_t
	.eabi_attribute	26, 1	@ Tag_ABI_enum_size
	.eabi_attribute	14, 0	@ Tag_ABI_PCS_R9_use
	.file	"jdev.c"
	.file	1 "E:\\STM32\\Learning\\STM32H750_ART_PI_RGBLCD" "applications/jdev.c"
	.file	2 "D:\\Keil_v5\\ARM\\ARMCLANG\\Bin\\..\\include" "stdint.h"
	.file	3 "E:\\STM32\\Learning\\STM32H750_ART_PI_RGBLCD" "./packages/tjpgd1d/src\\tjpgd.h"
	.file	4 "E:\\STM32\\Learning\\STM32H750_ART_PI_RGBLCD" "applications/jdev.h"
	.section	.text.input_func,"ax",%progbits
	.hidden	input_func                      @ -- Begin function input_func
	.globl	input_func
	.p2align	3
	.type	input_func,%function
	.code	16                              @ @input_func
	.thumb_func
input_func:
.Lfunc_begin0:
	.loc	1 31 0                          @ applications/jdev.c:31:0
	.fnstart
	.cfi_sections .debug_frame
	.cfi_startproc
@ %bb.0:
	.save	{r7, lr}
	push	{r7, lr}
	.cfi_def_cfa_offset 8
	.cfi_offset lr, -4
	.cfi_offset r7, -8
	.pad	#32
	sub	sp, #32
	.cfi_def_cfa_offset 40
	str	r0, [sp, #24]
	str	r1, [sp, #20]
	str	r2, [sp, #16]
.Ltmp0:
	.loc	1 33 23 prologue_end            @ applications/jdev.c:33:23
	ldr	r0, [sp, #24]
	.loc	1 33 27 is_stmt 0               @ applications/jdev.c:33:27
	ldr	r0, [r0, #116]
	.loc	1 33 9                          @ applications/jdev.c:33:9
	str	r0, [sp, #8]
.Ltmp1:
	.loc	1 36 6 is_stmt 1                @ applications/jdev.c:36:6
	ldr	r0, [sp, #20]
.Ltmp2:
	.loc	1 36 6 is_stmt 0                @ applications/jdev.c:36:6
	cbz	r0, .LBB0_2
	b	.LBB0_1
.LBB0_1:
.Ltmp3:
	.loc	1 38 13 is_stmt 1               @ applications/jdev.c:38:13
	ldr	r0, [sp, #20]
	.loc	1 38 18 is_stmt 0               @ applications/jdev.c:38:18
	ldr	r1, [sp, #8]
	.loc	1 38 23                         @ applications/jdev.c:38:23
	ldr	r1, [r1]
	.loc	1 38 26                         @ applications/jdev.c:38:26
	movw	r2, :lower16:offset
	movt	r2, :upper16:offset
	str	r2, [sp, #4]                    @ 4-byte Spill
	ldr	r2, [r2]
	.loc	1 38 25                         @ applications/jdev.c:38:25
	add	r1, r2
	.loc	1 38 33                         @ applications/jdev.c:38:33
	ldr	r2, [sp, #16]
	.loc	1 38 3                          @ applications/jdev.c:38:3
	bl	rt_memcpy
	ldr	r1, [sp, #4]                    @ 4-byte Reload
	.loc	1 39 11 is_stmt 1               @ applications/jdev.c:39:11
	ldr	r2, [sp, #16]
	.loc	1 39 9 is_stmt 0                @ applications/jdev.c:39:9
	ldr	r0, [r1]
	add	r0, r2
	str	r0, [r1]
	.loc	1 40 6 is_stmt 1                @ applications/jdev.c:40:6
	ldr	r0, [sp, #16]
	.loc	1 40 5 is_stmt 0                @ applications/jdev.c:40:5
	str	r0, [sp, #12]
	.loc	1 41 24 is_stmt 1               @ applications/jdev.c:41:24
	ldr	r0, [sp, #12]
	.loc	1 41 3 is_stmt 0                @ applications/jdev.c:41:3
	str	r0, [sp, #28]
	b	.LBB0_3
.Ltmp4:
.LBB0_2:
	.loc	1 0 3                           @ applications/jdev.c:0:3
	mov.w	r0, #-1
	.loc	1 47 2 is_stmt 1                @ applications/jdev.c:47:2
	str	r0, [sp, #28]
	b	.LBB0_3
.LBB0_3:
	.loc	1 48 1                          @ applications/jdev.c:48:1
	ldr	r0, [sp, #28]
	add	sp, #32
	pop	{r7, pc}
.Ltmp5:
.Lfunc_end0:
	.size	input_func, .Lfunc_end0-input_func
	.cfi_endproc
	.cantunwind
	.fnend
                                        @ -- End function
	.section	.text.output_func,"ax",%progbits
	.hidden	output_func                     @ -- Begin function output_func
	.globl	output_func
	.p2align	3
	.type	output_func,%function
	.code	16                              @ @output_func
	.thumb_func
output_func:
.Lfunc_begin1:
	.loc	1 59 0                          @ applications/jdev.c:59:0
	.fnstart
	.cfi_startproc
@ %bb.0:
	.save	{r7, lr}
	push	{r7, lr}
	.cfi_def_cfa_offset 8
	.cfi_offset lr, -4
	.cfi_offset r7, -8
	.pad	#40
	sub	sp, #40
	.cfi_def_cfa_offset 48
	str	r0, [sp, #36]
	str	r1, [sp, #32]
	str	r2, [sp, #28]
.Ltmp6:
	.loc	1 62 23 prologue_end            @ applications/jdev.c:62:23
	ldr	r0, [sp, #36]
	.loc	1 62 27 is_stmt 0               @ applications/jdev.c:62:27
	ldr	r0, [r0, #116]
	.loc	1 62 9                          @ applications/jdev.c:62:9
	str	r0, [sp]
.Ltmp7:
	.loc	1 66 19 is_stmt 1               @ applications/jdev.c:66:19
	ldr	r0, [sp, #28]
	.loc	1 66 25 is_stmt 0               @ applications/jdev.c:66:25
	ldrh	r0, [r0]
.Ltmp8:
	.loc	1 66 6                          @ applications/jdev.c:66:6
	cbnz	r0, .LBB1_2
	b	.LBB1_1
.LBB1_1:
.Ltmp9:
	.loc	1 67 22 is_stmt 1               @ applications/jdev.c:67:22
	ldr	r0, [sp, #28]
	.loc	1 67 28 is_stmt 0               @ applications/jdev.c:67:28
	ldrh	r0, [r0, #4]
	.loc	1 67 35                         @ applications/jdev.c:67:35
	ldr	r1, [sp, #36]
	.loc	1 67 39                         @ applications/jdev.c:67:39
	ldrb	r2, [r1, #13]
	.loc	1 67 32                         @ applications/jdev.c:67:32
	lsls	r0, r2
	movs	r2, #100
	.loc	1 67 46                         @ applications/jdev.c:67:46
	muls	r0, r2, r0
	.loc	1 67 60                         @ applications/jdev.c:67:60
	ldrh	r1, [r1, #30]
	.loc	1 67 54                         @ applications/jdev.c:67:54
	udiv	r1, r0, r1
	.loc	1 67 3                          @ applications/jdev.c:67:3
	movw	r0, :lower16:.L.str
	movt	r0, :upper16:.L.str
	bl	printf
	.loc	1 68 2 is_stmt 1                @ applications/jdev.c:68:2
	b	.LBB1_2
.Ltmp10:
.LBB1_2:
	.loc	1 70 9                          @ applications/jdev.c:70:9
	ldr	r1, [sp, #28]
	.loc	1 70 15 is_stmt 0               @ applications/jdev.c:70:15
	ldrh	r0, [r1, #2]
	.loc	1 70 29                         @ applications/jdev.c:70:29
	ldrh	r1, [r1]
	.loc	1 70 21                         @ applications/jdev.c:70:21
	subs	r0, r0, r1
	.loc	1 70 34                         @ applications/jdev.c:70:34
	add.w	r0, r0, r0, lsl #1
	.loc	1 70 39                         @ applications/jdev.c:70:39
	adds	r0, #3
	.loc	1 70 6                          @ applications/jdev.c:70:6
	str	r0, [sp, #20]
	.loc	1 71 7 is_stmt 1                @ applications/jdev.c:71:7
	ldr	r1, [sp, #28]
	.loc	1 71 13 is_stmt 0               @ applications/jdev.c:71:13
	ldrh	r0, [r1, #6]
	.loc	1 71 28                         @ applications/jdev.c:71:28
	ldrh	r1, [r1, #4]
	.loc	1 71 20                         @ applications/jdev.c:71:20
	subs	r0, r0, r1
	.loc	1 71 32                         @ applications/jdev.c:71:32
	adds	r0, #1
	.loc	1 71 5                          @ applications/jdev.c:71:5
	str	r0, [sp, #24]
	.loc	1 72 18 is_stmt 1               @ applications/jdev.c:72:18
	ldr	r0, [sp, #32]
	.loc	1 72 6 is_stmt 0                @ applications/jdev.c:72:6
	str	r0, [sp, #8]
	.loc	1 74 7 is_stmt 1                @ applications/jdev.c:74:7
	ldr	r0, [sp]
	.loc	1 74 12 is_stmt 0               @ applications/jdev.c:74:12
	ldr	r0, [r0, #8]
	.loc	1 74 5                          @ applications/jdev.c:74:5
	str	r0, [sp, #12]
	.loc	1 75 8 is_stmt 1                @ applications/jdev.c:75:8
	ldr	r0, [sp]
	.loc	1 75 13 is_stmt 0               @ applications/jdev.c:75:13
	ldr	r3, [r0, #4]
	.loc	1 75 22                         @ applications/jdev.c:75:22
	ldr	r1, [sp, #28]
	.loc	1 75 28                         @ applications/jdev.c:75:28
	ldrh	r0, [r1, #4]
	.loc	1 75 34                         @ applications/jdev.c:75:34
	ldr	r2, [sp, #12]
	.loc	1 75 20                         @ applications/jdev.c:75:20
	mla	r0, r0, r2, r3
	.loc	1 75 45                         @ applications/jdev.c:75:45
	ldrh	r1, [r1]
	.loc	1 75 50                         @ applications/jdev.c:75:50
	add.w	r1, r1, r1, lsl #1
	.loc	1 75 37                         @ applications/jdev.c:75:37
	add	r0, r1
	.loc	1 75 6                          @ applications/jdev.c:75:6
	str	r0, [sp, #4]
	.loc	1 78 2 is_stmt 1                @ applications/jdev.c:78:2
	b	.LBB1_3
.LBB1_3:                                @ =>This Loop Header: Depth=1
                                        @     Child Loop BB1_4 Depth 2
.Ltmp11:
	.loc	1 79 8                          @ applications/jdev.c:79:8
	ldr	r0, [sp, #20]
	.loc	1 79 6 is_stmt 0                @ applications/jdev.c:79:6
	str	r0, [sp, #16]
	.loc	1 80 3 is_stmt 1                @ applications/jdev.c:80:3
	b	.LBB1_4
.LBB1_4:                                @   Parent Loop BB1_3 Depth=1
                                        @ =>  This Inner Loop Header: Depth=2
.Ltmp12:
	.loc	1 81 17                         @ applications/jdev.c:81:17
	ldr	r0, [sp, #8]
	adds	r1, r0, #1
	str	r1, [sp, #8]
	.loc	1 81 13 is_stmt 0               @ applications/jdev.c:81:13
	ldrb	r0, [r0]
	.loc	1 81 8                          @ applications/jdev.c:81:8
	ldr	r1, [sp, #4]
	adds	r2, r1, #1
	str	r2, [sp, #4]
	.loc	1 81 11                         @ applications/jdev.c:81:11
	strb	r0, [r1]
	.loc	1 82 3 is_stmt 1                @ applications/jdev.c:82:3
	b	.LBB1_5
.Ltmp13:
.LBB1_5:                                @   in Loop: Header=BB1_4 Depth=2
	.loc	1 82 12 is_stmt 0               @ applications/jdev.c:82:12
	ldr	r0, [sp, #16]
	subs	r0, #1
	str	r0, [sp, #16]
.Ltmp14:
	.loc	1 82 3                          @ applications/jdev.c:82:3
	cmp	r0, #0
	bne	.LBB1_4
	b	.LBB1_6
.Ltmp15:
.LBB1_6:                                @   in Loop: Header=BB1_3 Depth=1
	.loc	1 83 10 is_stmt 1               @ applications/jdev.c:83:10
	ldr	r0, [sp, #12]
	.loc	1 83 15 is_stmt 0               @ applications/jdev.c:83:15
	ldr	r1, [sp, #20]
	.loc	1 83 13                         @ applications/jdev.c:83:13
	subs	r1, r0, r1
	.loc	1 83 7                          @ applications/jdev.c:83:7
	ldr	r0, [sp, #4]
	add	r0, r1
	str	r0, [sp, #4]
	.loc	1 84 2 is_stmt 1                @ applications/jdev.c:84:2
	b	.LBB1_7
.Ltmp16:
.LBB1_7:                                @   in Loop: Header=BB1_3 Depth=1
	.loc	1 84 11 is_stmt 0               @ applications/jdev.c:84:11
	ldr	r0, [sp, #24]
	subs	r0, #1
	str	r0, [sp, #24]
.Ltmp17:
	.loc	1 84 2                          @ applications/jdev.c:84:2
	cmp	r0, #0
	bne	.LBB1_3
	b	.LBB1_8
.Ltmp18:
.LBB1_8:
	.loc	1 0 2                           @ applications/jdev.c:0:2
	movs	r0, #1
	.loc	1 86 2 is_stmt 1                @ applications/jdev.c:86:2
	add	sp, #40
	pop	{r7, pc}
.Ltmp19:
.Lfunc_end1:
	.size	output_func, .Lfunc_end1-output_func
	.cfi_endproc
	.cantunwind
	.fnend
                                        @ -- End function
	.section	.text.jpegtest,"ax",%progbits
	.hidden	jpegtest                        @ -- Begin function jpegtest
	.globl	jpegtest
	.p2align	3
	.type	jpegtest,%function
	.code	16                              @ @jpegtest
	.thumb_func
jpegtest:
.Lfunc_begin2:
	.loc	1 92 0                          @ applications/jdev.c:92:0
	.fnstart
	.cfi_startproc
@ %bb.0:
	.save	{r7, lr}
	push	{r7, lr}
	.cfi_def_cfa_offset 8
	.cfi_offset lr, -4
	.cfi_offset r7, -8
	.pad	#432
	sub	sp, #432
	.cfi_def_cfa_offset 440
	str	r0, [sp, #428]
	mov.w	r0, #4096
.Ltmp20:
	.loc	1 93 15 prologue_end            @ applications/jdev.c:93:15
	str	r0, [sp, #424]
	.loc	1 102 15                        @ applications/jdev.c:102:15
	ldr	r1, [sp, #428]
	.loc	1 102 2 is_stmt 0               @ applications/jdev.c:102:2
	movw	r0, :lower16:.L.str.1
	movt	r0, :upper16:.L.str.1
	bl	printf
.Ltmp21:
	.loc	1 106 12 is_stmt 1              @ applications/jdev.c:106:12
	ldr	r0, [sp, #288]
.Ltmp22:
	.loc	1 106 6 is_stmt 0               @ applications/jdev.c:106:6
	cmp	r0, #0
	beq	.LBB2_8
	b	.LBB2_1
.LBB2_1:
	.loc	1 0 6                           @ applications/jdev.c:0:6
	mov.w	r0, #4096
.Ltmp23:
	.loc	1 108 12 is_stmt 1              @ applications/jdev.c:108:12
	str	r0, [sp, #12]                   @ 4-byte Spill
	bl	rt_malloc
	ldr	r3, [sp, #12]                   @ 4-byte Reload
	.loc	1 108 10 is_stmt 0              @ applications/jdev.c:108:10
	str	r0, [sp, #420]
	.loc	1 110 36 is_stmt 1              @ applications/jdev.c:110:36
	ldr	r2, [sp, #420]
	.loc	1 110 8 is_stmt 0               @ applications/jdev.c:110:8
	mov	r1, sp
	add	r0, sp, #288
	str	r0, [r1]
	movw	r1, :lower16:input_func
	movt	r1, :upper16:input_func
	add	r0, sp, #300
	bl	jd_prepare
	.loc	1 110 6                         @ applications/jdev.c:110:6
	strb.w	r0, [sp, #287]
.Ltmp24:
	.loc	1 112 8 is_stmt 1               @ applications/jdev.c:112:8
	ldrb.w	r0, [sp, #287]
.Ltmp25:
	.loc	1 112 7 is_stmt 0               @ applications/jdev.c:112:7
	cmp	r0, #0
	bne	.LBB2_6
	b	.LBB2_2
.LBB2_2:
.Ltmp26:
	.loc	1 118 5 is_stmt 1               @ applications/jdev.c:118:5
	movw	r0, :lower16:.L.str.2
	movt	r0, :upper16:.L.str.2
	bl	printf
.Ltmp27:
	.loc	1 120 12                        @ applications/jdev.c:120:12
	ldrh.w	r0, [sp, #328]
	.loc	1 120 7 is_stmt 0               @ applications/jdev.c:120:7
	str	r0, [sp, #276]
	.loc	1 121 12 is_stmt 1              @ applications/jdev.c:121:12
	ldrh.w	r0, [sp, #330]
	.loc	1 121 7 is_stmt 0               @ applications/jdev.c:121:7
	str	r0, [sp, #272]
	.loc	1 122 10 is_stmt 1              @ applications/jdev.c:122:10
	ldr	r0, [sp, #276]
	.loc	1 122 13 is_stmt 0              @ applications/jdev.c:122:13
	add.w	r0, r0, r0, lsl #1
	.loc	1 122 17                        @ applications/jdev.c:122:17
	adds	r0, #3
	.loc	1 122 22                        @ applications/jdev.c:122:22
	bic	r0, r0, #3
	.loc	1 122 7                         @ applications/jdev.c:122:7
	str	r0, [sp, #280]
	.loc	1 123 18 is_stmt 1              @ applications/jdev.c:123:18
	ldr	r0, [sp, #280]
	.loc	1 123 16 is_stmt 0              @ applications/jdev.c:123:16
	str	r0, [sp, #296]
	.loc	1 124 19 is_stmt 1              @ applications/jdev.c:124:19
	movw	r0, :lower16:rgb_frame_buf
	movt	r0, :upper16:rgb_frame_buf
	ldr	r0, [r0]
	.loc	1 124 17 is_stmt 0              @ applications/jdev.c:124:17
	str	r0, [sp, #292]
	.loc	1 125 9 is_stmt 1               @ applications/jdev.c:125:9
	movw	r1, :lower16:output_func
	movt	r1, :upper16:output_func
	add	r0, sp, #300
	movs	r2, #0
	bl	jd_decomp
	.loc	1 125 7 is_stmt 0               @ applications/jdev.c:125:7
	strb.w	r0, [sp, #287]
.Ltmp28:
	.loc	1 126 9 is_stmt 1               @ applications/jdev.c:126:9
	ldrb.w	r0, [sp, #287]
.Ltmp29:
	.loc	1 126 8 is_stmt 0               @ applications/jdev.c:126:8
	cbnz	r0, .LBB2_4
	b	.LBB2_3
.LBB2_3:
.Ltmp30:
	.loc	1 130 6 is_stmt 1               @ applications/jdev.c:130:6
	movw	r0, :lower16:.L.str.3
	movt	r0, :upper16:.L.str.3
	bl	printf
	.loc	1 131 18                        @ applications/jdev.c:131:18
	ldr	r1, [sp, #428]
	add	r0, sp, #16
	.loc	1 131 6 is_stmt 0               @ applications/jdev.c:131:6
	str	r0, [sp, #8]                    @ 4-byte Spill
	bl	strcpy
                                        @ kill: def $r1 killed $r0
	.loc	1 132 19 is_stmt 1              @ applications/jdev.c:132:19
	ldr	r0, [sp, #8]                    @ 4-byte Reload
	bl	strlen
	mov	r1, r0
	.loc	1 132 17 is_stmt 0              @ applications/jdev.c:132:17
	ldr	r0, [sp, #8]                    @ 4-byte Reload
	add	r0, r1
	.loc	1 132 31                        @ applications/jdev.c:132:31
	subs	r0, #4
	.loc	1 132 6                         @ applications/jdev.c:132:6
	movw	r1, :lower16:.L.str.4
	movt	r1, :upper16:.L.str.4
	bl	strcpy
.Ltmp31:
	.loc	1 135 4 is_stmt 1               @ applications/jdev.c:135:4
	b	.LBB2_5
.Ltmp32:
.LBB2_4:
	.loc	1 139 28                        @ applications/jdev.c:139:28
	ldrb.w	r1, [sp, #287]
	.loc	1 139 6 is_stmt 0               @ applications/jdev.c:139:6
	movw	r0, :lower16:.L.str.5
	movt	r0, :upper16:.L.str.5
	bl	printf
	b	.LBB2_5
.Ltmp33:
.LBB2_5:
	.loc	1 143 3 is_stmt 1               @ applications/jdev.c:143:3
	b	.LBB2_7
.Ltmp34:
.LBB2_6:
	.loc	1 147 25                        @ applications/jdev.c:147:25
	ldrb.w	r1, [sp, #287]
	.loc	1 147 5 is_stmt 0               @ applications/jdev.c:147:5
	movw	r0, :lower16:.L.str.6
	movt	r0, :upper16:.L.str.6
	bl	printf
	b	.LBB2_7
.Ltmp35:
.LBB2_7:
	.loc	1 151 11 is_stmt 1              @ applications/jdev.c:151:11
	ldr	r0, [sp, #420]
	.loc	1 151 3 is_stmt 0               @ applications/jdev.c:151:3
	bl	rt_free
	.loc	1 154 2 is_stmt 1               @ applications/jdev.c:154:2
	b	.LBB2_8
.Ltmp36:
.LBB2_8:
	.loc	1 156 2                         @ applications/jdev.c:156:2
	movw	r0, :lower16:.L.str.2
	movt	r0, :upper16:.L.str.2
	bl	printf
	.loc	1 157 1                         @ applications/jdev.c:157:1
	add	sp, #432
	pop	{r7, pc}
.Ltmp37:
.Lfunc_end2:
	.size	jpegtest, .Lfunc_end2-jpegtest
	.cfi_endproc
	.cantunwind
	.fnend
                                        @ -- End function
	.hidden	offset                          @ @offset
	.type	offset,%object
	.section	.bss.offset,"aw",%nobits
	.globl	offset
	.p2align	2
offset:
	.long	0                               @ 0x0
	.size	offset, 4

	.type	.L.str,%object                  @ @.str
	.section	.rodata.str1.1,"aMS",%progbits,1
.L.str:
	.asciz	"\r%lu%%"
	.size	.L.str, 7

	.type	.L.str.1,%object                @ @.str.1
.L.str.1:
	.asciz	"%s"
	.size	.L.str.1, 3

	.type	.L.str.2,%object                @ @.str.2
.L.str.2:
	.asciz	"\n"
	.size	.L.str.2, 2

	.hidden	rgb_frame_buf                   @ @rgb_frame_buf
	.type	rgb_frame_buf,%object
	.section	.bss.rgb_frame_buf,"aw",%nobits
	.globl	rgb_frame_buf
	.p2align	2
rgb_frame_buf:
	.long	0
	.size	rgb_frame_buf, 4

	.type	.L.str.3,%object                @ @.str.3
	.section	.rodata.str1.1,"aMS",%progbits,1
.L.str.3:
	.asciz	"\rOK  "
	.size	.L.str.3, 6

	.type	.L.str.4,%object                @ @.str.4
.L.str.4:
	.asciz	".bmp"
	.size	.L.str.4, 5

	.type	.L.str.5,%object                @ @.str.5
.L.str.5:
	.asciz	"\rError(%d)"
	.size	.L.str.5, 11

	.type	.L.str.6,%object                @ @.str.6
.L.str.6:
	.asciz	"\nErr: %d"
	.size	.L.str.6, 9

	.file	5 "D:\\Keil_v5\\ARM\\ARMCLANG\\Bin\\..\\include" "stdio.h"
	.section	".note.GNU-stack","",%progbits
	.eabi_attribute	30, 6	@ Tag_ABI_optimization_goals
	.ARM_attribute	16, 1	@ Tag_AV_eba