	.text
	.syntax unified
	.eabi_attribute	67, "2.09"	@ Tag_conformance
	.cpu	cortex-m7
	.eabi_attribute	6, 13	@ Tag_CPU_arch
	.eabi_attribute	7, 77	@ Tag_CPU_arch_profile
	.eabi_attribute	8, 0	@ Tag_ARM_ISA_use
	.eabi_attribute	9, 2	@ Tag_THUMB_ISA_use
	.fpu	fpv5-d16
	.eabi_attribute	36, 1	@ Tag_FP_HP_extension
	.eabi_attribute	34, 1	@ Tag_CPU_unaligned_access
	.eabi_attribute	17, 1	@ Tag_ABI_PCS_GOT_use
	.eabi_attribute	20, 2	@ Tag_ABI_FP_denormal
	.eabi_attribute	21, 0	@ Tag_ABI_FP_exceptions
	.eabi_attribute	23, 1	@ Tag_ABI_FP_number_model
	.eabi_attribute	24, 1	@ Tag_ABI_align_needed
	.eabi_attribute	25, 1	@ Tag_ABI_align_preserved
	.eabi_attribute	28, 1	@ Tag_ABI_VFP_args
	.eabi_attribute	38, 1	@ Tag_ABI_FP_16bit_format
	.eabi_attribute	18, 2	@ Tag_ABI_PCS_wchar_t
	.eabi_attribute	26, 1	@ Tag_ABI_enum_size
	.eabi_attribute	14, 0	@ Tag_ABI_PCS_R9_use
	.file	"kservice.c"
	.file	1 "E:\\Smart-access-control\\Hardware\\CODE" "rt-thread/src/kservice.c"
	.file	2 "E:\\Smart-access-control\\Hardware\\CODE" "rt-thread/include\\rtdef.h"
	.section	.text.rt_get_errno,"ax",%progbits
	.hidden	rt_get_errno                    @ -- Begin function rt_get_errno
	.globl	rt_get_errno
	.p2align	3
	.type	rt_get_errno,%function
	.code	16                              @ @rt_get_errno
	.thumb_func
rt_get_errno:
.Lfunc_begin0:
	.loc	1 51 0                          @ rt-thread/src/kservice.c:51:0
	.fnstart
	.cfi_sections .debug_frame
	.cfi_startproc
@ %bb.0:
	.save	{r7, lr}
	push	{r7, lr}
	.cfi_def_cfa_offset 8
	.cfi_offset lr, -4
	.cfi_offset r7, -8
	.pad	#8
	sub	sp, #8
	.cfi_def_cfa_offset 16
.Ltmp0:
	.loc	1 54 9 prologue_end             @ rt-thread/src/kservice.c:54:9
	bl	rt_interrupt_get_nest
.Ltmp1:
	.loc	1 54 9 is_stmt 0                @ rt-thread/src/kservice.c:54:9
	cbz	r0, .LBB0_2
	b	.LBB0_1
.LBB0_1:
.Ltmp2:
	.loc	1 57 16 is_stmt 1               @ rt-thread/src/kservice.c:57:16
	movw	r0, :lower16:__rt_errno
	movt	r0, :upper16:__rt_errno
	ldr	r0, [r0]
	.loc	1 57 9 is_stmt 0                @ rt-thread/src/kservice.c:57:9
	str	r0, [sp, #4]
	b	.LBB0_5
.Ltmp3:
.LBB0_2:
	.loc	1 60 11 is_stmt 1               @ rt-thread/src/kservice.c:60:11
	bl	rt_thread_self
	.loc	1 60 9 is_stmt 0                @ rt-thread/src/kservice.c:60:9
	str	r0, [sp]
.Ltmp4:
	.loc	1 61 9 is_stmt 1                @ rt-thread/src/kservice.c:61:9
	ldr	r0, [sp]
.Ltmp5:
	.loc	1 61 9 is_stmt 0                @ rt-thread/src/kservice.c:61:9
	cbnz	r0, .LBB0_4
	b	.LBB0_3
.LBB0_3:
.Ltmp6:
	.loc	1 62 16 is_stmt 1               @ rt-thread/src/kservice.c:62:16
	movw	r0, :lower16:__rt_errno
	movt	r0, :upper16:__rt_errno
	ldr	r0, [r0]
	.loc	1 62 9 is_stmt 0                @ rt-thread/src/kservice.c:62:9
	str	r0, [sp, #4]
	b	.LBB0_5
.Ltmp7:
.LBB0_4:
	.loc	1 64 12 is_stmt 1               @ rt-thread/src/kservice.c:64:12
	ldr	r0, [sp]
	.loc	1 64 17 is_stmt 0               @ rt-thread/src/kservice.c:64:17
	ldr	r0, [r0, #48]
	.loc	1 64 5                          @ rt-thread/src/kservice.c:64:5
	str	r0, [sp, #4]
	b	.LBB0_5
.LBB0_5:
	.loc	1 65 1 is_stmt 1                @ rt-thread/src/kservice.c:65:1
	ldr	r0, [sp, #4]
	add	sp, #8
	pop	{r7, pc}
.Ltmp8:
.Lfunc_end0:
	.size	rt_get_errno, .Lfunc_end0-rt_get_errno
	.cfi_endproc
	.cantunwind
	.fnend
                                        @ -- End function
	.section	.text.rt_set_errno,"ax",%progbits
	.hidden	rt_set_errno                    @ -- Begin function rt_set_errno
	.globl	rt_set_errno
	.p2align	3
	.type	rt_set_errno,%function
	.code	16                              @ @rt_set_errno
	.thumb_func
rt_set_errno:
.Lfunc_begin1:
	.loc	1 74 0                          @ rt-thread/src/kservice.c:74:0
	.fnstart
	.cfi_startproc
@ %bb.0:
	.save	{r7, lr}
	push	{r7, lr}
	.cfi_def_cfa_offset 8
	.cfi_offset lr, -4
	.cfi_offset r7, -8
	.pad	#8
	sub	sp, #8
	.cfi_def_cfa_offset 16
	str	r0, [sp, #4]
.Ltmp9:
	.loc	1 77 9 prologue_end             @ rt-thread/src/kservice.c:77:9
	bl	rt_interrupt_get_nest
.Ltmp10:
	.loc	1 77 9 is_stmt 0                @ rt-thread/src/kservice.c:77:9
	cbz	r0, .LBB1_2
	b	.LBB1_1
.LBB1_1:
.Ltmp11:
	.loc	1 80 22 is_stmt 1               @ rt-thread/src/kservice.c:80:22
	ldr	r0, [sp, #4]
	.loc	1 80 20 is_stmt 0               @ rt-thread/src/kservice.c:80:20
	movw	r1, :lower16:__rt_errno
	movt	r1, :upper16:__rt_errno
	str	r0, [r1]
	.loc	1 82 9 is_stmt 1                @ rt-thread/src/kservice.c:82:9
	b	.LBB1_5
.Ltmp12:
.LBB1_2:
	.loc	1 85 11                         @ rt-thread/src/kservice.c:85:11
	bl	rt_thread_self
	.loc	1 85 9 is_stmt 0                @ rt-thread/src/kservice.c:85:9
	str	r0, [sp]
.Ltmp13:
	.loc	1 86 9 is_stmt 1                @ rt-thread/src/kservice.c:86:9
	ldr	r0, [sp]
.Ltmp14:
	.loc	1 86 9 is_stmt 0                @ rt-thread/src/kservice.c:86:9
	cbnz	r0, .LBB1_4
	b	.LBB1_3
.LBB1_3:
.Ltmp15:
	.loc	1 88 22 is_stmt 1               @ rt-thread/src/kservice.c:88:22
	ldr	r0, [sp, #4]
	.loc	1 88 20 is_stmt 0               @ rt-thread/src/kservice.c:88:20
	movw	r1, :lower16:__rt_errno
	movt	r1, :upper16:__rt_errno
	str	r0, [r1]
	.loc	1 90 9 is_stmt 1                @ rt-thread/src/kservice.c:90:9
	b	.LBB1_5
.Ltmp16:
.LBB1_4:
	.loc	1 93 18                         @ rt-thread/src/kservice.c:93:18
	ldr	r0, [sp, #4]
	.loc	1 93 5 is_stmt 0                @ rt-thread/src/kservice.c:93:5
	ldr	r1, [sp]
	.loc	1 93 16                         @ rt-thread/src/kservice.c:93:16
	str	r0, [r1, #48]
	.loc	1 94 1 is_stmt 1                @ rt-thread/src/kservice.c:94:1
	b	.LBB1_5
.LBB1_5:
	add	sp, #8
	pop	{r7, pc}
.Ltmp17:
.Lfunc_end1:
	.size	rt_set_errno, .Lfunc_end1-rt_set_errno
	.cfi_endproc
	.cantunwind
	.fnend
                                        @ -- End function
	.section	.text._rt_errno,"ax",%progbits
	.hidden	_rt_errno                       @ -- Begin function _rt_errno
	.globl	_rt_errno
	.p2align	3
	.type	_rt_errno,%function
	.code	16                              @ @_rt_errno
	.thumb_func
_rt_errno:
.Lfunc_begin2:
	.loc	1 103 0                         @ rt-thread/src/kservice.c:103:0
	.fnstart
	.cfi_startproc
@ %bb.0:
	.save	{r7, lr}
	push	{r7, lr}
	.cfi_def_cfa_offset 8
	.cfi_offset lr, -4
	.cfi_offset r7, -8
	.pad	#8
	sub	sp, #8
	.cfi_def_cfa_offset 16
.Ltmp18:
	.loc	1 106 9 prologue_end            @ rt-thread/src/kservice.c:106:9
	bl	rt_interrupt_get_nest
.Ltmp19:
	.loc	1 106 9 is_stmt 0               @ rt-thread/src/kservice.c:106:9
	cbz	r0, .LBB2_2
	b	.LBB2_1
.LBB2_1:
.Ltmp20:
	.loc	1 107 9 is_stmt 1               @ rt-thread/src/kservice.c:107:9
	movw	r0, :lower16:__rt_errno
	movt	r0, :upper16:__rt_errno
	str	r0, [sp, #4]
	b	.LBB2_5
.Ltmp21:
.LBB2_2:
	.loc	1 109 11                        @ rt-thread/src/kservice.c:109:11
	bl	rt_thread_self
	.loc	1 109 9 is_stmt 0               @ rt-thread/src/kservice.c:109:9
	str	r0, [sp]
.Ltmp22:
	.loc	1 110 9 is_stmt 1               @ rt-thread/src/kservice.c:110:9
	ldr	r0, [sp]
.Ltmp23:
	.loc	1 110 9 is_stmt 0               @ rt-thread/src/kservice.c:110:9
	cbz	r0, .LBB2_4
	b	.LBB2_3
.LBB2_3:
.Ltmp24:
	.loc	1 111 27 is_stmt 1              @ rt-thread/src/kservice.c:111:27
	ldr	r0, [sp]
	.loc	1 111 32 is_stmt 0              @ rt-thread/src/kservice.c:111:32
	adds	r0, #48
	.loc	1 111 9                         @ rt-thread/src/kservice.c:111:9
	str	r0, [sp, #4]
	b	.LBB2_5
.Ltmp25:
.LBB2_4:
	.loc	1 113 5 is_stmt 1               @ rt-thread/src/kservice.c:113:5
	movw	r0, :lower16:__rt_errno
	movt	r0, :upper16:__rt_errno
	str	r0, [sp, #4]
	b	.LBB2_5
.LBB2_5:
	.loc	1 114 1                         @ rt-thread/src/kservice.c:114:1
	ldr	r0, [sp, #4]
	add	sp, #8
	pop	{r7, pc}
.Ltmp26:
.Lfunc_end2:
	.size	_rt_errno, .Lfunc_end2-_rt_errno
	.cfi_endproc
	.cantunwind
	.fnend
                                        @ -- End function
	.section	.text.rt_memset,"ax",%progbits
	.hidden	rt_memset                       @ -- Begin function rt_memset
	.globl	rt_memset
	.p2align	3
	.type	rt_memset,%function
	.code	16                              @ @rt_memset
	.thumb_func
rt_memset:
.Lfunc_begin3:
	.loc	1 127 0                         @ rt-thread/src/kservice.c:127:0
	.fnstart
	.cfi_startproc
@ %bb.0:
	.pad	#32
	sub	sp, #32
	.cfi_def_cfa_offset 32
	str	r0, [sp, #28]
	str	r1, [sp, #24]
	str	r2, [sp, #20]
.Ltmp27:
	.loc	1 141 23 prologue_end           @ rt-thread/src/kservice.c:141:23
	ldr	r0, [sp, #28]
	.loc	1 141 11 is_stmt 0              @ rt-thread/src/kservice.c:141:11
	str	r0, [sp, #12]
	.loc	1 144 22 is_stmt 1              @ rt-thread/src/kservice.c:144:22
	ldrb.w	r0, [sp, #24]
	.loc	1 144 18 is_stmt 0              @ rt-thread/src/kservice.c:144:18
	str	r0, [sp]
.Ltmp28:
	.loc	1 147 10 is_stmt 1              @ rt-thread/src/kservice.c:147:10
	ldr	r0, [sp, #20]
	.loc	1 147 27 is_stmt 0              @ rt-thread/src/kservice.c:147:27
	cmp	r0, #4
	blo	.LBB3_9
	b	.LBB3_1
.Ltmp29:
.LBB3_1:
	.loc	1 147 9                         @ rt-thread/src/kservice.c:147:9
	ldrb.w	r0, [sp, #28]
	lsls	r0, r0, #30
	cbnz	r0, .LBB3_9
	b	.LBB3_2
.LBB3_2:
.Ltmp30:
	.loc	1 150 41 is_stmt 1              @ rt-thread/src/kservice.c:150:41
	ldr	r0, [sp, #28]
	.loc	1 150 22 is_stmt 0              @ rt-thread/src/kservice.c:150:22
	str	r0, [sp, #4]
.Ltmp31:
	.loc	1 157 23 is_stmt 1              @ rt-thread/src/kservice.c:157:23
	ldr	r0, [sp]
	.loc	1 157 31 is_stmt 0              @ rt-thread/src/kservice.c:157:31
	orr.w	r0, r0, r0, lsl #8
	.loc	1 157 20                        @ rt-thread/src/kservice.c:157:20
	str	r0, [sp, #8]
	.loc	1 158 24 is_stmt 1              @ rt-thread/src/kservice.c:158:24
	ldr	r0, [sp, #8]
	.loc	1 158 20 is_stmt 0              @ rt-thread/src/kservice.c:158:20
	orr.w	r0, r0, r0, lsl #16
	str	r0, [sp, #8]
.Ltmp32:
	.loc	1 167 9 is_stmt 1               @ rt-thread/src/kservice.c:167:9
	b	.LBB3_3
.LBB3_3:                                @ =>This Inner Loop Header: Depth=1
	.loc	1 167 16 is_stmt 0              @ rt-thread/src/kservice.c:167:16
	ldr	r0, [sp, #20]
	.loc	1 167 9                         @ rt-thread/src/kservice.c:167:9
	cmp	r0, #16
	blo	.LBB3_5
	b	.LBB3_4
.LBB3_4:                                @   in Loop: Header=BB3_3 Depth=1
.Ltmp33:
	.loc	1 169 31 is_stmt 1              @ rt-thread/src/kservice.c:169:31
	ldr	r0, [sp, #8]
	.loc	1 169 26 is_stmt 0              @ rt-thread/src/kservice.c:169:26
	ldr	r1, [sp, #4]
	adds	r2, r1, #4
	str	r2, [sp, #4]
	.loc	1 169 29                        @ rt-thread/src/kservice.c:169:29
	str	r0, [r1]
	.loc	1 170 31 is_stmt 1              @ rt-thread/src/kservice.c:170:31
	ldr	r0, [sp, #8]
	.loc	1 170 26 is_stmt 0              @ rt-thread/src/kservice.c:170:26
	ldr	r1, [sp, #4]
	adds	r2, r1, #4
	str	r2, [sp, #4]
	.loc	1 170 29                        @ rt-thread/src/kservice.c:170:29
	str	r0, [r1]
	.loc	1 171 31 is_stmt 1              @ rt-thread/src/kservice.c:171:31
	ldr	r0, [sp, #8]
	.loc	1 171 26 is_stmt 0              @ rt-thread/src/kservice.c:171:26
	ldr	r1, [sp, #4]
	adds	r2, r1, #4
	str	r2, [sp, #4]
	.loc	1 171 29                        @ rt-thread/src/kservice.c:171:29
	str	r0, [r1]
	.loc	1 172 31 is_stmt 1              @ rt-thread/src/kservice.c:172:31
	ldr	r0, [sp, #8]
	.loc	1 172 26 is_stmt 0              @ rt-thread/src/kservice.c:172:26
	ldr	r1, [sp, #4]
	adds	r2, r1, #4
	str	r2, [sp, #4]
	.loc	1 172 29                        @ rt-thread/src/kservice.c:172:29
	str	r0, [r1]
	.loc	1 173 19 is_stmt 1              @ rt-thread/src/kservice.c:173:19
	ldr	r0, [sp, #20]
	subs	r0, #16
	str	r0, [sp, #20]
.Ltmp34:
	.loc	1 167 9                         @ rt-thread/src/kservice.c:167:9
	b	.LBB3_3
.LBB3_5:
	.loc	1 176 9                         @ rt-thread/src/kservice.c:176:9
	b	.LBB3_6
.LBB3_6:                                @ =>This Inner Loop Header: Depth=1
	.loc	1 176 16 is_stmt 0              @ rt-thread/src/kservice.c:176:16
	ldr	r0, [sp, #20]
	.loc	1 176 9                         @ rt-thread/src/kservice.c:176:9
	cmp	r0, #4
	blo	.LBB3_8
	b	.LBB3_7
.LBB3_7:                                @   in Loop: Header=BB3_6 Depth=1
.Ltmp35:
	.loc	1 178 31 is_stmt 1              @ rt-thread/src/kservice.c:178:31
	ldr	r0, [sp, #8]
	.loc	1 178 26 is_stmt 0              @ rt-thread/src/kservice.c:178:26
	ldr	r1, [sp, #4]
	adds	r2, r1, #4
	str	r2, [sp, #4]
	.loc	1 178 29                        @ rt-thread/src/kservice.c:178:29
	str	r0, [r1]
	.loc	1 179 19 is_stmt 1              @ rt-thread/src/kservice.c:179:19
	ldr	r0, [sp, #20]
	subs	r0, #4
	str	r0, [sp, #20]
.Ltmp36:
	.loc	1 176 9                         @ rt-thread/src/kservice.c:176:9
	b	.LBB3_6
.LBB3_8:
	.loc	1 183 21                        @ rt-thread/src/kservice.c:183:21
	ldr	r0, [sp, #4]
	.loc	1 183 11 is_stmt 0              @ rt-thread/src/kservice.c:183:11
	str	r0, [sp, #12]
	.loc	1 184 5 is_stmt 1               @ rt-thread/src/kservice.c:184:5
	b	.LBB3_9
.Ltmp37:
.LBB3_9:
	.loc	1 186 5                         @ rt-thread/src/kservice.c:186:5
	b	.LBB3_10
.LBB3_10:                               @ =>This Inner Loop Header: Depth=1
	.loc	1 186 17 is_stmt 0              @ rt-thread/src/kservice.c:186:17
	ldr	r0, [sp, #20]
	subs	r1, r0, #1
	str	r1, [sp, #20]
	.loc	1 186 5                         @ rt-thread/src/kservice.c:186:5
	cbz	r0, .LBB3_12
	b	.LBB3_11
.LBB3_11:                               @   in Loop: Header=BB3_10 Depth=1
.Ltmp38:
	.loc	1 188 22 is_stmt 1              @ rt-thread/src/kservice.c:188:22
	ldr	r0, [sp]
	.loc	1 188 11 is_stmt 0              @ rt-thread/src/kservice.c:188:11
	ldr	r1, [sp, #12]
	adds	r2, r1, #1
	str	r2, [sp, #12]
	.loc	1 188 14                        @ rt-thread/src/kservice.c:188:14
	strb	r0, [r1]
.Ltmp39:
	.loc	1 186 5 is_stmt 1               @ rt-thread/src/kservice.c:186:5
	b	.LBB3_10
.LBB3_12:
	.loc	1 191 12                        @ rt-thread/src/kservice.c:191:12
	ldr	r0, [sp, #28]
	.loc	1 191 5 is_stmt 0               @ rt-thread/src/kservice.c:191:5
	add	sp, #32
	bx	lr
.Ltmp40:
.Lfunc_end3:
	.size	rt_memset, .Lfunc_end3-rt_memset
	.cfi_endproc
	.cantunwind
	.fnend
                                        @ -- End function
	.section	.text.rt_memcpy,"ax",%progbits
	.hidden	rt_memcpy                       @ -- Begin function rt_memcpy
	.globl	rt_memcpy
	.p2align	3
	.type	rt_memcpy,%function
	.code	16                              @ @rt_memcpy
	.thumb_func
rt_memcpy:
.Lfunc_begin4:
	.loc	1 211 0 is_stmt 1               @ rt-thread/src/kservice.c:211:0
	.fnstart
	.cfi_startproc
@ %bb.0:
	.pad	#32
	sub	sp, #32
	.cfi_def_cfa_offset 32
	str	r0, [sp, #28]
	str	r1, [sp, #24]
	str	r2, [sp, #20]
.Ltmp41:
	.loc	1 236 29 prologue_end           @ rt-thread/src/kservice.c:236:29
	ldr	r0, [sp, #28]
	.loc	1 236 11 is_stmt 0              @ rt-thread/src/kservice.c:236:11
	str	r0, [sp, #16]
	.loc	1 237 29 is_stmt 1              @ rt-thread/src/kservice.c:237:29
	ldr	r0, [sp, #24]
	.loc	1 237 11 is_stmt 0              @ rt-thread/src/kservice.c:237:11
	str	r0, [sp, #12]
	.loc	1 240 15 is_stmt 1              @ rt-thread/src/kservice.c:240:15
	ldr	r0, [sp, #20]
	.loc	1 240 9 is_stmt 0               @ rt-thread/src/kservice.c:240:9
	str	r0, [sp]
.Ltmp42:
	.loc	1 244 10 is_stmt 1              @ rt-thread/src/kservice.c:244:10
	ldr	r0, [sp]
	.loc	1 244 25 is_stmt 0              @ rt-thread/src/kservice.c:244:25
	cmp	r0, #16
	blo	.LBB4_9
	b	.LBB4_1
.LBB4_1:
	.loc	1 244 29                        @ rt-thread/src/kservice.c:244:29
	ldr	r0, [sp, #12]
	ldr	r1, [sp, #16]
	orrs	r0, r1
.Ltmp43:
	.loc	1 244 9                         @ rt-thread/src/kservice.c:244:9
	lsls	r0, r0, #30
	cmp	r0, #0
	bne	.LBB4_9
	b	.LBB4_2
.LBB4_2:
.Ltmp44:
	.loc	1 246 31 is_stmt 1              @ rt-thread/src/kservice.c:246:31
	ldr	r0, [sp, #16]
	.loc	1 246 21 is_stmt 0              @ rt-thread/src/kservice.c:246:21
	str	r0, [sp, #8]
	.loc	1 247 31 is_stmt 1              @ rt-thread/src/kservice.c:247:31
	ldr	r0, [sp, #12]
	.loc	1 247 21 is_stmt 0              @ rt-thread/src/kservice.c:247:21
	str	r0, [sp, #4]
	.loc	1 250 9 is_stmt 1               @ rt-thread/src/kservice.c:250:9
	b	.LBB4_3
.LBB4_3:                                @ =>This Inner Loop Header: Depth=1
	.loc	1 250 16 is_stmt 0              @ rt-thread/src/kservice.c:250:16
	ldr	r0, [sp]
	.loc	1 250 9                         @ rt-thread/src/kservice.c:250:9
	cmp	r0, #16
	blo	.LBB4_5
	b	.LBB4_4
.LBB4_4:                                @   in Loop: Header=BB4_3 Depth=1
.Ltmp45:
	.loc	1 252 42 is_stmt 1              @ rt-thread/src/kservice.c:252:42
	ldr	r0, [sp, #4]
	adds	r1, r0, #4
	str	r1, [sp, #4]
	.loc	1 252 30 is_stmt 0              @ rt-thread/src/kservice.c:252:30
	ldr	r0, [r0]
	.loc	1 252 25                        @ rt-thread/src/kservice.c:252:25
	ldr	r1, [sp, #8]
	adds	r2, r1, #4
	str	r2, [sp, #8]
	.loc	1 252 28                        @ rt-thread/src/kservice.c:252:28
	str	r0, [r1]
	.loc	1 253 42 is_stmt 1              @ rt-thread/src/kservice.c:253:42
	ldr	r0, [sp, #4]
	adds	r1, r0, #4
	str	r1, [sp, #4]
	.loc	1 253 30 is_stmt 0              @ rt-thread/src/kservice.c:253:30
	ldr	r0, [r0]
	.loc	1 253 25                        @ rt-thread/src/kservice.c:253:25
	ldr	r1, [sp, #8]
	adds	r2, r1, #4
	str	r2, [sp, #8]
	.loc	1 253 28                        @ rt-thread/src/kservice.c:253:28
	str	r0, [r1]
	.loc	1 254 42 is_stmt 1              @ rt-thread/src/kservice.c:254:42
	ldr	r0, [sp, #4]
	adds	r1, r0, #4
	str	r1, [sp, #4]
	.loc	1 254 30 is_stmt 0              @ rt-thread/src/kservice.c:254:30
	ldr	r0, [r0]
	.loc	1 254 25                        @ rt-thread/src/kservice.c:254:25
	ldr	r1, [sp, #8]
	adds	r2, r1, #4
	str	r2, [sp, #8]
	.loc	1 254 28                        @ rt-thread/src/kservice.c:254:28
	str	r0, [r1]
	.loc	1 255 42 is_stmt 1              @ rt-thread/src/kservice.c:255:42
	ldr	r0, [sp, #4]
	adds	r1, r0, #4
	str	r1, [sp, #4]
	.loc	1 255 30 is_stmt 0              @ rt-thread/src/kservice.c:255:30
	ldr	r0, [r0]
	.loc	1 255 25                        @ rt-thread/src/kservice.c:255:25
	ldr	r1, [sp, #8]
	adds	r2, r1, #4
	str	r2, [sp, #8]
	.loc	1 255 28                        @ rt-thread/src/kservice.c:255:28
	str	r0, [r1]
	.loc	1 256 17 is_stmt 1              @ rt-thread/src/kservice.c:256:17
	ldr	r0, [sp]
	subs	r0, #16
	str	r0, [sp]
.Ltmp46:
	.loc	1 250 9                         @ rt-thread/src/kservice.c:250:9
	b	.LBB4_3
.LBB4_5:
	.loc	1 260 9                         @ rt-thread/src/kservice.c:260:9
	b	.LBB4_6
.LBB4_6:                                @ =>This Inner Loop Header: Depth=1
	.loc	1 260 16 is_stmt 0              @ rt-thread/src/kservice.c:260:16
	ldr	r0, [sp]
	.loc	1 260 9                         @ rt-thread/src/kservice.c:260:9
	cmp	r0, #4
	blo	.LBB4_8
	b	.LBB4_7
.LBB4_7:                                @   in Loop: Header=BB4_6 Depth=1
.Ltmp47:
	.loc	1 262 42 is_stmt 1              @ rt-thread/src/kservice.c:262:42
	ldr	r0, [sp, #4]
	adds	r1, r0, #4
	str	r1, [sp, #4]
	.loc	1 262 30 is_stmt 0              @ rt-thread/src/kservice.c:262:30
	ldr	r0, [r0]
	.loc	1 262 25                        @ rt-thread/src/kservice.c:262:25
	ldr	r1, [sp, #8]
	adds	r2, r1, #4
	str	r2, [sp, #8]
	.loc	1 262 28                        @ rt-thread/src/kservice.c:262:28
	str	r0, [r1]
	.loc	1 263 17 is_stmt 1              @ rt-thread/src/kservice.c:263:17
	ldr	r0, [sp]
	subs	r0, #4
	str	r0, [sp]
.Ltmp48:
	.loc	1 260 9                         @ rt-thread/src/kservice.c:260:9
	b	.LBB4_6
.LBB4_8:
	.loc	1 267 27                        @ rt-thread/src/kservice.c:267:27
	ldr	r0, [sp, #8]
	.loc	1 267 17 is_stmt 0              @ rt-thread/src/kservice.c:267:17
	str	r0, [sp, #16]
	.loc	1 268 27 is_stmt 1              @ rt-thread/src/kservice.c:268:27
	ldr	r0, [sp, #4]
	.loc	1 268 17 is_stmt 0              @ rt-thread/src/kservice.c:268:17
	str	r0, [sp, #12]
	.loc	1 269 5 is_stmt 1               @ rt-thread/src/kservice.c:269:5
	b	.LBB4_9
.Ltmp49:
.LBB4_9:
	.loc	1 271 5                         @ rt-thread/src/kservice.c:271:5
	b	.LBB4_10
.LBB4_10:                               @ =>This Inner Loop Header: Depth=1
	.loc	1 271 15 is_stmt 0              @ rt-thread/src/kservice.c:271:15
	ldr	r0, [sp]
	subs	r1, r0, #1
	str	r1, [sp]
	.loc	1 271 5                         @ rt-thread/src/kservice.c:271:5
	cbz	r0, .LBB4_12
	b	.LBB4_11
.LBB4_11:                               @   in Loop: Header=BB4_10 Depth=1
	.loc	1 272 30 is_stmt 1              @ rt-thread/src/kservice.c:272:30
	ldr	r0, [sp, #12]
	adds	r1, r0, #1
	str	r1, [sp, #12]
	.loc	1 272 22 is_stmt 0              @ rt-thread/src/kservice.c:272:22
	ldrb	r0, [r0]
	.loc	1 272 17                        @ rt-thread/src/kservice.c:272:17
	ldr	r1, [sp, #16]
	adds	r2, r1, #1
	str	r2, [sp, #16]
	.loc	1 272 20                        @ rt-thread/src/kservice.c:272:20
	strb	r0, [r1]
	.loc	1 271 5 is_stmt 1               @ rt-thread/src/kservice.c:271:5
	b	.LBB4_10
.LBB4_12:
	.loc	1 274 12                        @ rt-thread/src/kservice.c:274:12
	ldr	r0, [sp, #28]
	.loc	1 274 5 is_stmt 0               @ rt-thread/src/kservice.c:274:5
	add	sp, #32
	bx	lr
.Ltmp50:
.Lfunc_end4:
	.size	rt_memcpy, .Lfunc_end4-rt_memcpy
	.cfi_endproc
	.cantunwind
	.fnend
                                        @ -- End function
	.section	.text.rt_memmove,"ax",%progbits
	.hidden	rt_memmove                      @ -- Begin function rt_memmove
	.globl	rt_memmove
	.p2align	3
	.type	rt_memmove,%function
	.code	16                              @ @rt_memmove
	.thumb_func
rt_memmove:
.Lfunc_begin5:
	.loc	1 294 0 is_stmt 1               @ rt-thread/src/kservice.c:294:0
	.fnstart
	.cfi_startproc
@ %bb.0:
	.pad	#20
	sub	sp, #20
	.cfi_def_cfa_offset 20
	str	r0, [sp, #16]
	str	r1, [sp, #12]
	str	r2, [sp, #8]
.Ltmp51:
	.loc	1 295 25 prologue_end           @ rt-thread/src/kservice.c:295:25
	ldr	r0, [sp, #16]
	.loc	1 295 11 is_stmt 0              @ rt-thread/src/kservice.c:295:11
	str	r0, [sp, #4]
	.loc	1 295 44                        @ rt-thread/src/kservice.c:295:44
	ldr	r0, [sp, #12]
	.loc	1 295 32                        @ rt-thread/src/kservice.c:295:32
	str	r0, [sp]
.Ltmp52:
	.loc	1 297 9 is_stmt 1               @ rt-thread/src/kservice.c:297:9
	ldr	r0, [sp]
	.loc	1 297 13 is_stmt 0              @ rt-thread/src/kservice.c:297:13
	ldr	r1, [sp, #4]
	.loc	1 297 17                        @ rt-thread/src/kservice.c:297:17
	cmp	r0, r1
	bhs	.LBB5_6
	b	.LBB5_1
.LBB5_1:
	.loc	1 297 20                        @ rt-thread/src/kservice.c:297:20
	ldr	r0, [sp, #4]
	.loc	1 297 26                        @ rt-thread/src/kservice.c:297:26
	ldr	r1, [sp]
	.loc	1 297 30                        @ rt-thread/src/kservice.c:297:30
	ldr	r2, [sp, #8]
	.loc	1 297 28                        @ rt-thread/src/kservice.c:297:28
	add	r1, r2
.Ltmp53:
	.loc	1 297 9                         @ rt-thread/src/kservice.c:297:9
	cmp	r0, r1
	bhs	.LBB5_6
	b	.LBB5_2
.LBB5_2:
.Ltmp54:
	.loc	1 299 16 is_stmt 1              @ rt-thread/src/kservice.c:299:16
	ldr	r1, [sp, #8]
	.loc	1 299 13 is_stmt 0              @ rt-thread/src/kservice.c:299:13
	ldr	r0, [sp, #4]
	add	r0, r1
	str	r0, [sp, #4]
	.loc	1 300 14 is_stmt 1              @ rt-thread/src/kservice.c:300:14
	ldr	r1, [sp, #8]
	.loc	1 300 11 is_stmt 0              @ rt-thread/src/kservice.c:300:11
	ldr	r0, [sp]
	add	r0, r1
	str	r0, [sp]
	.loc	1 302 9 is_stmt 1               @ rt-thread/src/kservice.c:302:9
	b	.LBB5_3
.LBB5_3:                                @ =>This Inner Loop Header: Depth=1
	.loc	1 302 17 is_stmt 0              @ rt-thread/src/kservice.c:302:17
	ldr	r0, [sp, #8]
	subs	r1, r0, #1
	str	r1, [sp, #8]
	.loc	1 302 9                         @ rt-thread/src/kservice.c:302:9
	cbz	r0, .LBB5_5
	b	.LBB5_4
.LBB5_4:                                @   in Loop: Header=BB5_3 Depth=1
	.loc	1 303 26 is_stmt 1              @ rt-thread/src/kservice.c:303:26
	ldr	r0, [sp]
	subs	r1, r0, #1
	str	r1, [sp]
	.loc	1 303 24 is_stmt 0              @ rt-thread/src/kservice.c:303:24
	ldrb	r0, [r0, #-1]
	.loc	1 303 15                        @ rt-thread/src/kservice.c:303:15
	ldr	r1, [sp, #4]
	subs	r2, r1, #1
	str	r2, [sp, #4]
	.loc	1 303 22                        @ rt-thread/src/kservice.c:303:22
	strb	r0, [r1, #-1]
	.loc	1 302 9 is_stmt 1               @ rt-thread/src/kservice.c:302:9
	b	.LBB5_3
.LBB5_5:
	.loc	1 304 5                         @ rt-thread/src/kservice.c:304:5
	b	.LBB5_10
.Ltmp55:
.LBB5_6:
	.loc	1 307 9                         @ rt-thread/src/kservice.c:307:9
	b	.LBB5_7
.LBB5_7:                                @ =>This Inner Loop Header: Depth=1
	.loc	1 307 17 is_stmt 0              @ rt-thread/src/kservice.c:307:17
	ldr	r0, [sp, #8]
	subs	r1, r0, #1
	str	r1, [sp, #8]
	.loc	1 307 9                         @ rt-thread/src/kservice.c:307:9
	cbz	r0, .LBB5_9
	b	.LBB5_8
.LBB5_8:                                @   in Loop: Header=BB5_7 Depth=1
	.loc	1 308 24 is_stmt 1              @ rt-thread/src/kservice.c:308:24
	ldr	r0, [sp]
	adds	r1, r0, #1
	str	r1, [sp]
	.loc	1 308 22 is_stmt 0              @ rt-thread/src/kservice.c:308:22
	ldrb	r0, [r0]
	.loc	1 308 17                        @ rt-thread/src/kservice.c:308:17
	ldr	r1, [sp, #4]
	adds	r2, r1, #1
	str	r2, [sp, #4]
	.loc	1 308 20                        @ rt-thread/src/kservice.c:308:20
	strb	r0, [r1]
	.loc	1 307 9 is_stmt 1               @ rt-thread/src/kservice.c:307:9
	b	.LBB5_7
.Ltmp56:
.LBB5_9:
	.loc	1 0 9 is_stmt 0                 @ rt-thread/src/kservice.c:0:9
	b	.LBB5_10
.LBB5_10:
	.loc	1 311 12 is_stmt 1              @ rt-thread/src/kservice.c:311:12
	ldr	r0, [sp, #16]
	.loc	1 311 5 is_stmt 0               @ rt-thread/src/kservice.c:311:5
	add	sp, #20
	bx	lr
.Ltmp57:
.Lfunc_end5:
	.size	rt_memmove, .Lfunc_end5-rt_memmove
	.cfi_endproc
	.cantunwind
	.fnend
                                        @ -- End function
	.section	.text.rt_memcmp,"ax",%progbits
	.hidden	rt_memcmp                       @ -- Begin function rt_memcmp
	.globl	rt_memcmp
	.p2align	3
	.type	rt_memcmp,%function
	.code	16                              @ @rt_memcmp
	.thumb_func
rt_memcmp:
.Lfunc_begin6:
	.loc	1 325 0 is_stmt 1               @ rt-thread/src/kservice.c:325:0
	.fnstart
	.cfi_startproc
@ %bb.0:
	.pad	#24
	sub	sp, #24
	.cfi_def_cfa_offset 24
	str	r0, [sp, #20]
	str	r1, [sp, #16]
	str	r2, [sp, #12]
	movs	r0, #0
.Ltmp58:
	.loc	1 327 9 prologue_end            @ rt-thread/src/kservice.c:327:9
	str	r0, [sp]
.Ltmp59:
	.loc	1 329 39                        @ rt-thread/src/kservice.c:329:39
	ldr	r0, [sp, #20]
	.loc	1 329 14 is_stmt 0              @ rt-thread/src/kservice.c:329:14
	str	r0, [sp, #8]
	.loc	1 329 72                        @ rt-thread/src/kservice.c:329:72
	ldr	r0, [sp, #16]
	.loc	1 329 47                        @ rt-thread/src/kservice.c:329:47
	str	r0, [sp, #4]
	.loc	1 329 10                        @ rt-thread/src/kservice.c:329:10
	b	.LBB6_1
.LBB6_1:                                @ =>This Inner Loop Header: Depth=1
.Ltmp60:
	.loc	1 329 80                        @ rt-thread/src/kservice.c:329:80
	ldr	r0, [sp, #12]
.Ltmp61:
	.loc	1 329 5                         @ rt-thread/src/kservice.c:329:5
	cbz	r0, .LBB6_6
	b	.LBB6_2
.LBB6_2:                                @   in Loop: Header=BB6_1 Depth=1
.Ltmp62:
	.loc	1 330 21 is_stmt 1              @ rt-thread/src/kservice.c:330:21
	ldr	r0, [sp, #8]
	.loc	1 330 20 is_stmt 0              @ rt-thread/src/kservice.c:330:20
	ldrb	r0, [r0]
	.loc	1 330 28                        @ rt-thread/src/kservice.c:330:28
	ldr	r1, [sp, #4]
	.loc	1 330 27                        @ rt-thread/src/kservice.c:330:27
	ldrb	r1, [r1]
	.loc	1 330 25                        @ rt-thread/src/kservice.c:330:25
	subs	r0, r0, r1
	.loc	1 330 18                        @ rt-thread/src/kservice.c:330:18
	str	r0, [sp]
.Ltmp63:
	.loc	1 330 13                        @ rt-thread/src/kservice.c:330:13
	cbz	r0, .LBB6_4
	b	.LBB6_3
.LBB6_3:
.Ltmp64:
	.loc	1 331 13 is_stmt 1              @ rt-thread/src/kservice.c:331:13
	b	.LBB6_6
.LBB6_4:                                @   in Loop: Header=BB6_1 Depth=1
	.loc	1 330 36                        @ rt-thread/src/kservice.c:330:36
	b	.LBB6_5
.Ltmp65:
.LBB6_5:                                @   in Loop: Header=BB6_1 Depth=1
	.loc	1 329 87                        @ rt-thread/src/kservice.c:329:87
	ldr	r0, [sp, #8]
	adds	r0, #1
	str	r0, [sp, #8]
	.loc	1 329 94 is_stmt 0              @ rt-thread/src/kservice.c:329:94
	ldr	r0, [sp, #4]
	adds	r0, #1
	str	r0, [sp, #4]
	.loc	1 329 106                       @ rt-thread/src/kservice.c:329:106
	ldr	r0, [sp, #12]
	subs	r0, #1
	str	r0, [sp, #12]
	.loc	1 329 5                         @ rt-thread/src/kservice.c:329:5
	b	.LBB6_1
.Ltmp66:
.LBB6_6:
	.loc	1 333 12 is_stmt 1              @ rt-thread/src/kservice.c:333:12
	ldr	r0, [sp]
	.loc	1 333 5 is_stmt 0               @ rt-thread/src/kservice.c:333:5
	add	sp, #24
	bx	lr
.Ltmp67:
.Lfunc_end6:
	.size	rt_memcmp, .Lfunc_end6-rt_memcmp
	.cfi_endproc
	.cantunwind
	.fnend
                                        @ -- End function
	.section	.text.rt_strstr,"ax",%progbits
	.hidden	rt_strstr                       @ -- Begin function rt_strstr
	.globl	rt_strstr
	.p2align	3
	.type	rt_strstr,%function
	.code	16                              @ @rt_strstr
	.thumb_func
rt_strstr:
.Lfunc_begin7:
	.loc	1 346 0 is_stmt 1               @ rt-thread/src/kservice.c:346:0
	.fnstart
	.cfi_startproc
@ %bb.0:
	.save	{r7, lr}
	push	{r7, lr}
	.cfi_def_cfa_offset 8
	.cfi_offset lr, -4
	.cfi_offset r7, -8
	.pad	#24
	sub	sp, #24
	.cfi_def_cfa_offset 32
	str	r0, [sp, #16]
	str	r1, [sp, #12]
.Ltmp68:
	.loc	1 349 20 prologue_end           @ rt-thread/src/kservice.c:349:20
	ldr	r0, [sp, #12]
	.loc	1 349 10 is_stmt 0              @ rt-thread/src/kservice.c:349:10
	bl	rt_strlen
	.loc	1 349 8                         @ rt-thread/src/kservice.c:349:8
	str	r0, [sp, #4]
.Ltmp69:
	.loc	1 350 10 is_stmt 1              @ rt-thread/src/kservice.c:350:10
	ldr	r0, [sp, #4]
.Ltmp70:
	.loc	1 350 9 is_stmt 0               @ rt-thread/src/kservice.c:350:9
	cbnz	r0, .LBB7_2
	b	.LBB7_1
.LBB7_1:
.Ltmp71:
	.loc	1 351 24 is_stmt 1              @ rt-thread/src/kservice.c:351:24
	ldr	r0, [sp, #16]
	.loc	1 351 9 is_stmt 0               @ rt-thread/src/kservice.c:351:9
	str	r0, [sp, #20]
	b	.LBB7_8
.Ltmp72:
.LBB7_2:
	.loc	1 352 20 is_stmt 1              @ rt-thread/src/kservice.c:352:20
	ldr	r0, [sp, #16]
	.loc	1 352 10 is_stmt 0              @ rt-thread/src/kservice.c:352:10
	bl	rt_strlen
	.loc	1 352 8                         @ rt-thread/src/kservice.c:352:8
	str	r0, [sp, #8]
	.loc	1 353 5 is_stmt 1               @ rt-thread/src/kservice.c:353:5
	b	.LBB7_3
.LBB7_3:                                @ =>This Inner Loop Header: Depth=1
	.loc	1 353 12 is_stmt 0              @ rt-thread/src/kservice.c:353:12
	ldr	r0, [sp, #8]
	.loc	1 353 18                        @ rt-thread/src/kservice.c:353:18
	ldr	r1, [sp, #4]
	.loc	1 353 5                         @ rt-thread/src/kservice.c:353:5
	cmp	r0, r1
	blt	.LBB7_7
	b	.LBB7_4
.LBB7_4:                                @   in Loop: Header=BB7_3 Depth=1
.Ltmp73:
	.loc	1 355 12 is_stmt 1              @ rt-thread/src/kservice.c:355:12
	ldr	r0, [sp, #8]
	subs	r0, #1
	str	r0, [sp, #8]
.Ltmp74:
	.loc	1 356 24                        @ rt-thread/src/kservice.c:356:24
	ldr	r0, [sp, #16]
	.loc	1 356 28 is_stmt 0              @ rt-thread/src/kservice.c:356:28
	ldr	r1, [sp, #12]
	.loc	1 356 32                        @ rt-thread/src/kservice.c:356:32
	ldr	r2, [sp, #4]
	.loc	1 356 14                        @ rt-thread/src/kservice.c:356:14
	bl	rt_memcmp
.Ltmp75:
	.loc	1 356 13                        @ rt-thread/src/kservice.c:356:13
	cbnz	r0, .LBB7_6
	b	.LBB7_5
.LBB7_5:
.Ltmp76:
	.loc	1 357 28 is_stmt 1              @ rt-thread/src/kservice.c:357:28
	ldr	r0, [sp, #16]
	.loc	1 357 13 is_stmt 0              @ rt-thread/src/kservice.c:357:13
	str	r0, [sp, #20]
	b	.LBB7_8
.Ltmp77:
.LBB7_6:                                @   in Loop: Header=BB7_3 Depth=1
	.loc	1 358 12 is_stmt 1              @ rt-thread/src/kservice.c:358:12
	ldr	r0, [sp, #16]
	adds	r0, #1
	str	r0, [sp, #16]
.Ltmp78:
	.loc	1 353 5                         @ rt-thread/src/kservice.c:353:5
	b	.LBB7_3
.LBB7_7:
	.loc	1 0 5 is_stmt 0                 @ rt-thread/src/kservice.c:0:5
	movs	r0, #0
	.loc	1 361 5 is_stmt 1               @ rt-thread/src/kservice.c:361:5
	str	r0, [sp, #20]
	b	.LBB7_8
.LBB7_8:
	.loc	1 362 1                         @ rt-thread/src/kservice.c:362:1
	ldr	r0, [sp, #20]
	add	sp, #24
	pop	{r7, pc}
.Ltmp79:
.Lfunc_end7:
	.size	rt_strstr, .Lfunc_end7-rt_strstr
	.cfi_endproc
	.cantunwind
	.fnend
                                        @ -- End function
	.section	.text.rt_strlen,"ax",%progbits
	.hidden	rt_strlen                       @ -- Begin function rt_strlen
	.globl	rt_strlen
	.p2align	3
	.type	rt_strlen,%function
	.code	16                              @ @rt_strlen
	.thumb_func
rt_strlen:
.Lfunc_begin8:
	.loc	1 496 0                         @ rt-thread/src/kservice.c:496:0
	.fnstart
	.cfi_startproc
@ %bb.0:
	.pad	#8
	sub	sp, #8
	.cfi_def_cfa_offset 8
	str	r0, [sp, #4]
.Ltmp80:
	.loc	1 499 15 prologue_end           @ rt-thread/src/kservice.c:499:15
	ldr	r0, [sp, #4]
	.loc	1 499 13 is_stmt 0              @ rt-thread/src/kservice.c:499:13
	str	r0, [sp]
	.loc	1 499 10                        @ rt-thread/src/kservice.c:499:10
	b	.LBB8_1
.LBB8_1:                                @ =>This Inner Loop Header: Depth=1
.Ltmp81:
	.loc	1 499 19                        @ rt-thread/src/kservice.c:499:19
	ldr	r0, [sp]
	.loc	1 499 18                        @ rt-thread/src/kservice.c:499:18
	ldrsb.w	r0, [r0]
.Ltmp82:
	.loc	1 499 5                         @ rt-thread/src/kservice.c:499:5
	cbz	r0, .LBB8_4
	b	.LBB8_2
.LBB8_2:                                @   in Loop: Header=BB8_1 Depth=1
	b	.LBB8_3
.LBB8_3:                                @   in Loop: Header=BB8_1 Depth=1
.Ltmp83:
	.loc	1 499 31                        @ rt-thread/src/kservice.c:499:31
	ldr	r0, [sp]
	adds	r0, #1
	str	r0, [sp]
	.loc	1 499 5                         @ rt-thread/src/kservice.c:499:5
	b	.LBB8_1
.Ltmp84:
.LBB8_4:
	.loc	1 502 12 is_stmt 1              @ rt-thread/src/kservice.c:502:12
	ldr	r0, [sp]
	.loc	1 502 17 is_stmt 0              @ rt-thread/src/kservice.c:502:17
	ldr	r1, [sp, #4]
	.loc	1 502 15                        @ rt-thread/src/kservice.c:502:15
	subs	r0, r0, r1
	.loc	1 502 5                         @ rt-thread/src/kservice.c:502:5
	add	sp, #8
	bx	lr
.Ltmp85:
.Lfunc_end8:
	.size	rt_strlen, .Lfunc_end8-rt_strlen
	.cfi_endproc
	.cantunwind
	.fnend
                                        @ -- End function
	.section	.text.rt_strcasecmp,"ax",%progbits
	.hidden	rt_strcasecmp                   @ -- Begin function rt_strcasecmp
	.globl	rt_strcasecmp
	.p2align	3
	.type	rt_strcasecmp,%function
	.code	16                              @ @rt_strcasecmp
	.thumb_func
rt_strcasecmp:
.Lfunc_begin9:
	.loc	1 374 0 is_stmt 1               @ rt-thread/src/kservice.c:374:0
	.fnstart
	.cfi_startproc
@ %bb.0:
	.pad	#20
	sub	sp, #20
	.cfi_def_cfa_offset 20
	str	r0, [sp, #16]
	str	r1, [sp, #12]
.Ltmp86:
	.loc	1 377 5 prologue_end            @ rt-thread/src/kservice.c:377:5
	b	.LBB9_1
.LBB9_1:                                @ =>This Inner Loop Header: Depth=1
.Ltmp87:
	.loc	1 379 16                        @ rt-thread/src/kservice.c:379:16
	ldr	r0, [sp, #16]
	adds	r1, r0, #1
	str	r1, [sp, #16]
	.loc	1 379 14 is_stmt 0              @ rt-thread/src/kservice.c:379:14
	ldrb	r0, [r0]
	.loc	1 379 12                        @ rt-thread/src/kservice.c:379:12
	str	r0, [sp, #8]
	.loc	1 380 16 is_stmt 1              @ rt-thread/src/kservice.c:380:16
	ldr	r0, [sp, #12]
	adds	r1, r0, #1
	str	r1, [sp, #12]
	.loc	1 380 14 is_stmt 0              @ rt-thread/src/kservice.c:380:14
	ldrb	r0, [r0]
	.loc	1 380 12                        @ rt-thread/src/kservice.c:380:12
	str	r0, [sp, #4]
.Ltmp88:
	.loc	1 381 13 is_stmt 1              @ rt-thread/src/kservice.c:381:13
	ldr	r0, [sp, #8]
	.loc	1 381 23 is_stmt 0              @ rt-thread/src/kservice.c:381:23
	cmp	r0, #65
	blt	.LBB9_4
	b	.LBB9_2
.LBB9_2:                                @   in Loop: Header=BB9_1 Depth=1
	.loc	1 381 26                        @ rt-thread/src/kservice.c:381:26
	ldr	r0, [sp, #8]
.Ltmp89:
	.loc	1 381 13                        @ rt-thread/src/kservice.c:381:13
	cmp	r0, #90
	bgt	.LBB9_4
	b	.LBB9_3
.LBB9_3:                                @   in Loop: Header=BB9_1 Depth=1
.Ltmp90:
	.loc	1 382 16 is_stmt 1              @ rt-thread/src/kservice.c:382:16
	ldr	r0, [sp, #8]
	adds	r0, #32
	str	r0, [sp, #8]
	.loc	1 382 13 is_stmt 0              @ rt-thread/src/kservice.c:382:13
	b	.LBB9_4
.Ltmp91:
.LBB9_4:                                @   in Loop: Header=BB9_1 Depth=1
	.loc	1 383 13 is_stmt 1              @ rt-thread/src/kservice.c:383:13
	ldr	r0, [sp, #4]
	.loc	1 383 23 is_stmt 0              @ rt-thread/src/kservice.c:383:23
	cmp	r0, #65
	blt	.LBB9_7
	b	.LBB9_5
.LBB9_5:                                @   in Loop: Header=BB9_1 Depth=1
	.loc	1 383 26                        @ rt-thread/src/kservice.c:383:26
	ldr	r0, [sp, #4]
.Ltmp92:
	.loc	1 383 13                        @ rt-thread/src/kservice.c:383:13
	cmp	r0, #90
	bgt	.LBB9_7
	b	.LBB9_6
.LBB9_6:                                @   in Loop: Header=BB9_1 Depth=1
.Ltmp93:
	.loc	1 384 16 is_stmt 1              @ rt-thread/src/kservice.c:384:16
	ldr	r0, [sp, #4]
	adds	r0, #32
	str	r0, [sp, #4]
	.loc	1 384 13 is_stmt 0              @ rt-thread/src/kservice.c:384:13
	b	.LBB9_7
.Ltmp94:
.LBB9_7:                                @   in Loop: Header=BB9_1 Depth=1
	.loc	1 385 5 is_stmt 1               @ rt-thread/src/kservice.c:385:5
	b	.LBB9_8
.Ltmp95:
.LBB9_8:                                @   in Loop: Header=BB9_1 Depth=1
	.loc	1 386 12                        @ rt-thread/src/kservice.c:386:12
	ldr	r1, [sp, #8]
	.loc	1 386 18 is_stmt 0              @ rt-thread/src/kservice.c:386:18
	ldr	r2, [sp, #4]
	movs	r0, #0
	.loc	1 386 21                        @ rt-thread/src/kservice.c:386:21
	cmp	r1, r2
	str	r0, [sp]                        @ 4-byte Spill
	bne	.LBB9_10
	b	.LBB9_9
.LBB9_9:                                @   in Loop: Header=BB9_1 Depth=1
	.loc	1 386 24                        @ rt-thread/src/kservice.c:386:24
	ldr	r0, [sp, #8]
	.loc	1 386 27                        @ rt-thread/src/kservice.c:386:27
	cmp	r0, #0
	it	ne
	movne	r0, #1
	str	r0, [sp]                        @ 4-byte Spill
	b	.LBB9_10
.LBB9_10:                               @   in Loop: Header=BB9_1 Depth=1
	.loc	1 0 0                           @ rt-thread/src/kservice.c:0:0
	ldr	r0, [sp]                        @ 4-byte Reload
.Ltmp96:
	.loc	1 385 5 is_stmt 1               @ rt-thread/src/kservice.c:385:5
	lsls	r0, r0, #31
	cmp	r0, #0
	bne	.LBB9_1
	b	.LBB9_11
.Ltmp97:
.LBB9_11:
	.loc	1 388 12                        @ rt-thread/src/kservice.c:388:12
	ldr	r0, [sp, #8]
	.loc	1 388 17 is_stmt 0              @ rt-thread/src/kservice.c:388:17
	ldr	r1, [sp, #4]
	.loc	1 388 15                        @ rt-thread/src/kservice.c:388:15
	subs	r0, r0, r1
	.loc	1 388 5                         @ rt-thread/src/kservice.c:388:5
	add	sp, #20
	bx	lr
.Ltmp98:
.Lfunc_end9:
	.size	rt_strcasecmp, .Lfunc_end9-rt_strcasecmp
	.cfi_endproc
	.cantunwind
	.fnend
                                        @ -- End function
	.section	.text.rt_strncpy,"ax",%progbits
	.hidden	rt_strncpy                      @ -- Begin function rt_strncpy
	.globl	rt_strncpy
	.p2align	3
	.type	rt_strncpy,%function
	.code	16                              @ @rt_strncpy
	.thumb_func
rt_strncpy:
.Lfunc_begin10:
	.loc	1 402 0 is_stmt 1               @ rt-thread/src/kservice.c:402:0
	.fnstart
	.cfi_startproc
@ %bb.0:
	.pad	#20
	sub	sp, #20
	.cfi_def_cfa_offset 20
	str	r0, [sp, #16]
	str	r1, [sp, #12]
	str	r2, [sp, #8]
.Ltmp99:
	.loc	1 403 9 prologue_end            @ rt-thread/src/kservice.c:403:9
	ldr	r0, [sp, #8]
.Ltmp100:
	.loc	1 403 9 is_stmt 0               @ rt-thread/src/kservice.c:403:9
	cbz	r0, .LBB10_10
	b	.LBB10_1
.LBB10_1:
.Ltmp101:
	.loc	1 405 19 is_stmt 1              @ rt-thread/src/kservice.c:405:19
	ldr	r0, [sp, #16]
	.loc	1 405 15 is_stmt 0              @ rt-thread/src/kservice.c:405:15
	str	r0, [sp, #4]
	.loc	1 406 25 is_stmt 1              @ rt-thread/src/kservice.c:406:25
	ldr	r0, [sp, #12]
	.loc	1 406 21 is_stmt 0              @ rt-thread/src/kservice.c:406:21
	str	r0, [sp]
	.loc	1 408 9 is_stmt 1               @ rt-thread/src/kservice.c:408:9
	b	.LBB10_2
.LBB10_2:                               @ =>This Inner Loop Header: Depth=1
.Ltmp102:
	.loc	1 410 27                        @ rt-thread/src/kservice.c:410:27
	ldr	r0, [sp]
	adds	r1, r0, #1
	str	r1, [sp]
	.loc	1 410 20 is_stmt 0              @ rt-thread/src/kservice.c:410:20
	ldr	r1, [sp, #4]
	adds	r2, r1, #1
	.loc	1 410 17                        @ rt-thread/src/kservice.c:410:17
	ldrsb.w	r0, [r0]
	.loc	1 410 20                        @ rt-thread/src/kservice.c:410:20
	str	r2, [sp, #4]
	.loc	1 410 23                        @ rt-thread/src/kservice.c:410:23
	strb	r0, [r1]
.Ltmp103:
	.loc	1 410 17                        @ rt-thread/src/kservice.c:410:17
	cbnz	r0, .LBB10_7
	b	.LBB10_3
.LBB10_3:
.Ltmp104:
	.loc	1 413 17 is_stmt 1              @ rt-thread/src/kservice.c:413:17
	b	.LBB10_4
.LBB10_4:                               @ =>This Inner Loop Header: Depth=1
	.loc	1 413 24 is_stmt 0              @ rt-thread/src/kservice.c:413:24
	ldr	r0, [sp, #8]
	subs	r0, #1
	str	r0, [sp, #8]
	.loc	1 413 17                        @ rt-thread/src/kservice.c:413:17
	cbz	r0, .LBB10_6
	b	.LBB10_5
.LBB10_5:                               @   in Loop: Header=BB10_4 Depth=1
	.loc	1 414 23 is_stmt 1              @ rt-thread/src/kservice.c:414:23
	ldr	r1, [sp, #4]
	adds	r0, r1, #1
	str	r0, [sp, #4]
	movs	r0, #0
	.loc	1 414 26 is_stmt 0              @ rt-thread/src/kservice.c:414:26
	strb	r0, [r1]
	.loc	1 413 17 is_stmt 1              @ rt-thread/src/kservice.c:413:17
	b	.LBB10_4
.LBB10_6:
	.loc	1 415 17                        @ rt-thread/src/kservice.c:415:17
	b	.LBB10_9
.Ltmp105:
.LBB10_7:                               @   in Loop: Header=BB10_2 Depth=1
	.loc	1 417 9                         @ rt-thread/src/kservice.c:417:9
	b	.LBB10_8
.Ltmp106:
.LBB10_8:                               @   in Loop: Header=BB10_2 Depth=1
	.loc	1 417 18 is_stmt 0              @ rt-thread/src/kservice.c:417:18
	ldr	r0, [sp, #8]
	subs	r0, #1
	str	r0, [sp, #8]
.Ltmp107:
	.loc	1 417 9                         @ rt-thread/src/kservice.c:417:9
	cmp	r0, #0
	bne	.LBB10_2
	b	.LBB10_9
.Ltmp108:
.LBB10_9:
	.loc	1 418 5 is_stmt 1               @ rt-thread/src/kservice.c:418:5
	b	.LBB10_10
.Ltmp109:
.LBB10_10:
	.loc	1 420 13                        @ rt-thread/src/kservice.c:420:13
	ldr	r0, [sp, #16]
	.loc	1 420 5 is_stmt 0               @ rt-thread/src/kservice.c:420:5
	add	sp, #20
	bx	lr
.Ltmp110:
.Lfunc_end10:
	.size	rt_strncpy, .Lfunc_end10-rt_strncpy
	.cfi_endproc
	.cantunwind
	.fnend
                                        @ -- End function
	.section	.text.rt_strncmp,"ax",%progbits
	.hidden	rt_strncmp                      @ -- Begin function rt_strncmp
	.globl	rt_strncmp
	.p2align	3
	.type	rt_strncmp,%function
	.code	16                              @ @rt_strncmp
	.thumb_func
rt_strncmp:
.Lfunc_begin11:
	.loc	1 434 0 is_stmt 1               @ rt-thread/src/kservice.c:434:0
	.fnstart
	.cfi_startproc
@ %bb.0:
	.pad	#16
	sub	sp, #16
	.cfi_def_cfa_offset 16
	str	r0, [sp, #12]
	str	r1, [sp, #8]
	str	r2, [sp, #4]
	movs	r0, #0
.Ltmp111:
	.loc	1 435 26 prologue_end           @ rt-thread/src/kservice.c:435:26
	strb.w	r0, [sp, #3]
	.loc	1 437 5                         @ rt-thread/src/kservice.c:437:5
	b	.LBB11_1
.LBB11_1:                               @ =>This Inner Loop Header: Depth=1
	.loc	1 437 12 is_stmt 0              @ rt-thread/src/kservice.c:437:12
	ldr	r0, [sp, #4]
	.loc	1 437 5                         @ rt-thread/src/kservice.c:437:5
	cbz	r0, .LBB11_6
	b	.LBB11_2
.LBB11_2:                               @   in Loop: Header=BB11_1 Depth=1
.Ltmp112:
	.loc	1 439 23 is_stmt 1              @ rt-thread/src/kservice.c:439:23
	ldr	r0, [sp, #12]
	.loc	1 439 22 is_stmt 0              @ rt-thread/src/kservice.c:439:22
	ldrsb.w	r0, [r0]
	.loc	1 439 31                        @ rt-thread/src/kservice.c:439:31
	ldr	r1, [sp, #8]
	adds	r2, r1, #1
	str	r2, [sp, #8]
	.loc	1 439 28                        @ rt-thread/src/kservice.c:439:28
	ldrsb.w	r1, [r1]
	.loc	1 439 26                        @ rt-thread/src/kservice.c:439:26
	subs	r0, r0, r1
	.loc	1 439 20                        @ rt-thread/src/kservice.c:439:20
	strb.w	r0, [sp, #3]
	.loc	1 439 40                        @ rt-thread/src/kservice.c:439:40
	lsls	r0, r0, #24
	cbnz	r0, .LBB11_4
	b	.LBB11_3
.LBB11_3:                               @   in Loop: Header=BB11_1 Depth=1
	.loc	1 439 47                        @ rt-thread/src/kservice.c:439:47
	ldr	r0, [sp, #12]
	adds	r1, r0, #1
	str	r1, [sp, #12]
	.loc	1 439 44                        @ rt-thread/src/kservice.c:439:44
	ldrb	r0, [r0]
.Ltmp113:
	.loc	1 439 13                        @ rt-thread/src/kservice.c:439:13
	cbnz	r0, .LBB11_5
	b	.LBB11_4
.LBB11_4:
.Ltmp114:
	.loc	1 440 13 is_stmt 1              @ rt-thread/src/kservice.c:440:13
	b	.LBB11_6
.Ltmp115:
.LBB11_5:                               @   in Loop: Header=BB11_1 Depth=1
	.loc	1 441 15                        @ rt-thread/src/kservice.c:441:15
	ldr	r0, [sp, #4]
	subs	r0, #1
	str	r0, [sp, #4]
.Ltmp116:
	.loc	1 437 5                         @ rt-thread/src/kservice.c:437:5
	b	.LBB11_1
.LBB11_6:
	.loc	1 444 12                        @ rt-thread/src/kservice.c:444:12
	ldrsb.w	r0, [sp, #3]
	.loc	1 444 5 is_stmt 0               @ rt-thread/src/kservice.c:444:5
	add	sp, #16
	bx	lr
.Ltmp117:
.Lfunc_end11:
	.size	rt_strncmp, .Lfunc_end11-rt_strncmp
	.cfi_endproc
	.cantunwind
	.fnend
                                        @ -- End function
	.section	.text.rt_strcmp,"ax",%progbits
	.hidden	rt_strcmp                       @ -- Begin function rt_strcmp
	.globl	rt_strcmp
	.p2align	3
	.type	rt_strcmp,%function
	.code	16                              @ @rt_strcmp
	.thumb_func
rt_strcmp:
.Lfunc_begin12:
	.loc	1 457 0 is_stmt 1               @ rt-thread/src/kservice.c:457:0
	.fnstart
	.cfi_startproc
@ %bb.0:
	.pad	#12
	sub	sp, #12
	.cfi_def_cfa_offset 12
	str	r0, [sp, #8]
	str	r1, [sp, #4]
.Ltmp118:
	.loc	1 458 5 prologue_end            @ rt-thread/src/kservice.c:458:5
	b	.LBB12_1
.LBB12_1:                               @ =>This Inner Loop Header: Depth=1
	.loc	1 458 13 is_stmt 0              @ rt-thread/src/kservice.c:458:13
	ldr	r0, [sp, #8]
	.loc	1 458 12                        @ rt-thread/src/kservice.c:458:12
	ldrsb.w	r1, [r0]
	movs	r0, #0
	.loc	1 458 16                        @ rt-thread/src/kservice.c:458:16
	str	r0, [sp]                        @ 4-byte Spill
	cbz	r1, .LBB12_3
	b	.LBB12_2
.LBB12_2:                               @   in Loop: Header=BB12_1 Depth=1
	.loc	1 458 20                        @ rt-thread/src/kservice.c:458:20
	ldr	r0, [sp, #8]
	.loc	1 458 19                        @ rt-thread/src/kservice.c:458:19
	ldrsb.w	r0, [r0]
	.loc	1 458 27                        @ rt-thread/src/kservice.c:458:27
	ldr	r1, [sp, #4]
	.loc	1 458 26                        @ rt-thread/src/kservice.c:458:26
	ldrsb.w	r1, [r1]
	.loc	1 458 23                        @ rt-thread/src/kservice.c:458:23
	subs	r0, r0, r1
	clz	r0, r0
	lsrs	r0, r0, #5
	str	r0, [sp]                        @ 4-byte Spill
	b	.LBB12_3
.LBB12_3:                               @   in Loop: Header=BB12_1 Depth=1
	.loc	1 0 0                           @ rt-thread/src/kservice.c:0:0
	ldr	r0, [sp]                        @ 4-byte Reload
	.loc	1 458 5                         @ rt-thread/src/kservice.c:458:5
	lsls	r0, r0, #31
	cbz	r0, .LBB12_5
	b	.LBB12_4
.LBB12_4:                               @   in Loop: Header=BB12_1 Depth=1
	.loc	1 459 11 is_stmt 1              @ rt-thread/src/kservice.c:459:11
	ldr	r0, [sp, #8]
	adds	r0, #1
	str	r0, [sp, #8]
	.loc	1 459 17 is_stmt 0              @ rt-thread/src/kservice.c:459:17
	ldr	r0, [sp, #4]
	adds	r0, #1
	str	r0, [sp, #4]
	.loc	1 458 5 is_stmt 1               @ rt-thread/src/kservice.c:458:5
	b	.LBB12_1
.LBB12_5:
	.loc	1 461 14                        @ rt-thread/src/kservice.c:461:14
	ldr	r0, [sp, #8]
	.loc	1 461 13 is_stmt 0              @ rt-thread/src/kservice.c:461:13
	ldrsb.w	r0, [r0]
	.loc	1 461 20                        @ rt-thread/src/kservice.c:461:20
	ldr	r1, [sp, #4]
	.loc	1 461 19                        @ rt-thread/src/kservice.c:461:19
	ldrsb.w	r1, [r1]
	.loc	1 461 17                        @ rt-thread/src/kservice.c:461:17
	subs	r0, r0, r1
	.loc	1 461 5                         @ rt-thread/src/kservice.c:461:5
	add	sp, #12
	bx	lr
.Ltmp119:
.Lfunc_end12:
	.size	rt_strcmp, .Lfunc_end12-rt_strcmp
	.cfi_endproc
	.cantunwind
	.fnend
                                        @ -- End function
	.section	.text.rt_strnlen,"ax",%progbits
	.hidden	rt_strnlen                      @ -- Begin function rt_strnlen
	.globl	rt_strnlen
	.p2align	3
	.type	rt_strnlen,%function
	.code	16                              @ @rt_strnlen
	.thumb_func
rt_strnlen:
.Lfunc_begin13:
	.loc	1 477 0 is_stmt 1               @ rt-thread/src/kservice.c:477:0
	.fnstart
	.cfi_startproc
@ %bb.0:
	.pad	#16
	sub	sp, #16
	.cfi_def_cfa_offset 16
	str	r0, [sp, #12]
	str	r1, [sp, #8]
.Ltmp120:
	.loc	1 480 15 prologue_end           @ rt-thread/src/kservice.c:480:15
	ldr	r0, [sp, #12]
	.loc	1 480 13 is_stmt 0              @ rt-thread/src/kservice.c:480:13
	str	r0, [sp, #4]
	.loc	1 480 10                        @ rt-thread/src/kservice.c:480:10
	b	.LBB13_1
.LBB13_1:                               @ =>This Inner Loop Header: Depth=1
.Ltmp121:
	.loc	1 480 19                        @ rt-thread/src/kservice.c:480:19
	ldr	r0, [sp, #4]
	.loc	1 480 18                        @ rt-thread/src/kservice.c:480:18
	ldrsb.w	r1, [r0]
	movs	r0, #0
	.loc	1 480 30                        @ rt-thread/src/kservice.c:480:30
	str	r0, [sp]                        @ 4-byte Spill
	cbz	r1, .LBB13_3
	b	.LBB13_2
.LBB13_2:                               @   in Loop: Header=BB13_1 Depth=1
	.loc	1 480 46                        @ rt-thread/src/kservice.c:480:46
	ldr	r0, [sp, #4]
	.loc	1 480 51                        @ rt-thread/src/kservice.c:480:51
	ldr	r1, [sp, #12]
	.loc	1 480 49                        @ rt-thread/src/kservice.c:480:49
	subs	r1, r0, r1
	.loc	1 480 56                        @ rt-thread/src/kservice.c:480:56
	ldr	r2, [sp, #8]
	movs	r0, #0
	.loc	1 480 54                        @ rt-thread/src/kservice.c:480:54
	cmp	r1, r2
	it	lo
	movlo	r0, #1
	str	r0, [sp]                        @ 4-byte Spill
	b	.LBB13_3
.LBB13_3:                               @   in Loop: Header=BB13_1 Depth=1
	.loc	1 0 0                           @ rt-thread/src/kservice.c:0:0
	ldr	r0, [sp]                        @ 4-byte Reload
.Ltmp122:
	.loc	1 480 5                         @ rt-thread/src/kservice.c:480:5
	lsls	r0, r0, #31
	cbz	r0, .LBB13_6
	b	.LBB13_4
.LBB13_4:                               @   in Loop: Header=BB13_1 Depth=1
	b	.LBB13_5
.LBB13_5:                               @   in Loop: Header=BB13_1 Depth=1
.Ltmp123:
	.loc	1 480 64                        @ rt-thread/src/kservice.c:480:64
	ldr	r0, [sp, #4]
	adds	r0, #1
	str	r0, [sp, #4]
	.loc	1 480 5                         @ rt-thread/src/kservice.c:480:5
	b	.LBB13_1
.Ltmp124:
.LBB13_6:
	.loc	1 483 12 is_stmt 1              @ rt-thread/src/kservice.c:483:12
	ldr	r0, [sp, #4]
	.loc	1 483 17 is_stmt 0              @ rt-thread/src/kservice.c:483:17
	ldr	r1, [sp, #12]
	.loc	1 483 15                        @ rt-thread/src/kservice.c:483:15
	subs	r0, r0, r1
	.loc	1 483 5                         @ rt-thread/src/kservice.c:483:5
	add	sp, #16
	bx	lr
.Ltmp125:
.Lfunc_end13:
	.size	rt_strnlen, .Lfunc_end13-rt_strnlen
	.cfi_endproc
	.cantunwind
	.fnend
                                        @ -- End function
	.section	.text.rt_strdup,"ax",%progbits
	.hidden	rt_strdup                       @ -- Begin function rt_strdup
	.globl	rt_strdup
	.p2align	3
	.type	rt_strdup,%function
	.code	16                              @ @rt_strdup
	.thumb_func
rt_strdup:
.Lfunc_begin14:
	.loc	1 515 0 is_stmt 1               @ rt-thread/src/kservice.c:515:0
	.fnstart
	.cfi_startproc
@ %bb.0:
	.save	{r7, lr}
	push	{r7, lr}
	.cfi_def_cfa_offset 8
	.cfi_offset lr, -4
	.cfi_offset r7, -8
	.pad	#16
	sub	sp, #16
	.cfi_def_cfa_offset 24
	str	r0, [sp, #8]
.Ltmp126:
	.loc	1 516 31 prologue_end           @ rt-thread/src/kservice.c:516:31
	ldr	r0, [sp, #8]
	.loc	1 516 21 is_stmt 0              @ rt-thread/src/kservice.c:516:21
	bl	rt_strlen
	.loc	1 516 34                        @ rt-thread/src/kservice.c:516:34
	adds	r0, #1
	.loc	1 516 15                        @ rt-thread/src/kservice.c:516:15
	str	r0, [sp, #4]
	.loc	1 517 35 is_stmt 1              @ rt-thread/src/kservice.c:517:35
	ldr	r0, [sp, #4]
	.loc	1 517 25 is_stmt 0              @ rt-thread/src/kservice.c:517:25
	bl	rt_malloc
	.loc	1 517 11                        @ rt-thread/src/kservice.c:517:11
	str	r0, [sp]
.Ltmp127:
	.loc	1 519 10 is_stmt 1              @ rt-thread/src/kservice.c:519:10
	ldr	r0, [sp]
.Ltmp128:
	.loc	1 519 9 is_stmt 0               @ rt-thread/src/kservice.c:519:9
	cbnz	r0, .LBB14_2
	b	.LBB14_1
.LBB14_1:
	.loc	1 0 9                           @ rt-thread/src/kservice.c:0:9
	movs	r0, #0
.Ltmp129:
	.loc	1 520 9 is_stmt 1               @ rt-thread/src/kservice.c:520:9
	str	r0, [sp, #12]
	b	.LBB14_3
.Ltmp130:
.LBB14_2:
	.loc	1 522 15                        @ rt-thread/src/kservice.c:522:15
	ldr	r0, [sp]
	.loc	1 522 20 is_stmt 0              @ rt-thread/src/kservice.c:522:20
	ldr	r1, [sp, #8]
	.loc	1 522 23                        @ rt-thread/src/kservice.c:522:23
	ldr	r2, [sp, #4]
	.loc	1 522 5                         @ rt-thread/src/kservice.c:522:5
	bl	rt_memcpy
	.loc	1 524 12 is_stmt 1              @ rt-thread/src/kservice.c:524:12
	ldr	r0, [sp]
	.loc	1 524 5 is_stmt 0               @ rt-thread/src/kservice.c:524:5
	str	r0, [sp, #12]
	b	.LBB14_3
.LBB14_3:
	.loc	1 525 1 is_stmt 1               @ rt-thread/src/kservice.c:525:1
	ldr	r0, [sp, #12]
	add	sp, #16
	pop	{r7, pc}
.Ltmp131:
.Lfunc_end14:
	.size	rt_strdup, .Lfunc_end14-rt_strdup
	.cfi_endproc
	.cantunwind
	.fnend
                                        @ -- End function
	.section	.text.rt_show_version,"ax",%progbits
	.hidden	rt_show_version                 @ -- Begin function rt_show_version
	.globl	rt_show_version
	.p2align	3
	.type	rt_show_version,%function
	.code	16                              @ @rt_show_version
	.thumb_func
rt_show_version:
.Lfunc_begin15:
	.loc	1 536 0                         @ rt-thread/src/kservice.c:536:0
	.fnstart
	.cfi_startproc
@ %bb.0:
	.save	{r7, lr}
	push	{r7, lr}
	.cfi_def_cfa_offset 8
	.cfi_offset lr, -4
	.cfi_offset r7, -8
	.pad	#8
	sub	sp, #8
	.cfi_def_cfa_offset 16
.Ltmp132:
	.loc	1 537 5 prologue_end            @ rt-thread/src/kservice.c:537:5
	movw	r0, :lower16:.L.str
	movt	r0, :upper16:.L.str
	bl	rt_kprintf
	.loc	1 538 5                         @ rt-thread/src/kservice.c:538:5
	movw	r0, :lower16:.L.str.1
	movt	r0, :upper16:.L.str.1
	bl	rt_kprintf
	.loc	1 539 5                         @ rt-thread/src/kservice.c:539:5
	movw	r0, :lower16:.L.str.3
	movt	r0, :upper16:.L.str.3
	mov	r1, sp
	str	r0, [r1]
	movw	r0, :lower16:.L.str.2
	movt	r0, :upper16:.L.str.2
	movs	r1, #4
	movs	r2, #0
	movs	r3, #3
	bl	rt_kprintf
	.loc	1 541 5                         @ rt-thread/src/kservice.c:541:5
	movw	r0, :lower16:.L.str.4
	movt	r0, :upper16:.L.str.4
	bl	rt_kprintf
	.loc	1 542 1                         @ rt-thread/src/kservice.c:542:1
	add	sp, #8
	pop	{r7, pc}
.Ltmp133:
.Lfunc_end15:
	.size	rt_show_version, .Lfunc_end15-rt_show_version
	.cfi_endproc
	.cantunwind
	.fnend
                                        @ -- End function
	.section	.text.rt_kprintf,"ax",%progbits
	.hidden	rt_kprintf                      @ -- Begin function rt_kprintf
	.globl	rt_kprintf
	.p2align	3
	.type	rt_kprintf,%function
	.code	16                              @ @rt_kprintf
	.thumb_func
rt_kprintf:
.Lfunc_begin16:
	.loc	1 1184 0                        @ rt-thread/src/kservice.c:1184:0
	.fnstart
	.cfi_startproc
@ %bb.0:
	.pad	#12
	sub	sp, #12
	.cfi_def_cfa_offset 12
	.save	{r7, lr}
	push	{r7, lr}
	.cfi_def_cfa_offset 20
	.cfi_offset lr, -16
	.cfi_offset r7, -20
	.pad	#20
	sub	sp, #20
	.cfi_def_cfa_offset 40
	str	r3, [sp, #36]
	str	r2, [sp, #32]
	str	r1, [sp, #28]
	str	r0, [sp, #16]
	add	r0, sp, #28
.Ltmp134:
	.loc	1 1189 5 prologue_end           @ rt-thread/src/kservice.c:1189:5
	str	r0, [sp, #12]
	.loc	1 1195 63                       @ rt-thread/src/kservice.c:1195:63
	ldr	r2, [sp, #16]
	.loc	1 1195 14 is_stmt 0             @ rt-thread/src/kservice.c:1195:14
	ldr	r3, [sp, #12]
	movw	r0, :lower16:rt_kprintf.rt_log_buf
	movt	r0, :upper16:rt_kprintf.rt_log_buf
	movs	r1, #127
	bl	rt_vsnprintf
	.loc	1 1195 12                       @ rt-thread/src/kservice.c:1195:12
	str	r0, [sp, #8]
.Ltmp135:
	.loc	1 1196 9 is_stmt 1              @ rt-thread/src/kservice.c:1196:9
	ldr	r0, [sp, #8]
.Ltmp136:
	.loc	1 1196 9 is_stmt 0              @ rt-thread/src/kservice.c:1196:9
	cmp	r0, #128
	blo	.LBB16_2
	b	.LBB16_1
.LBB16_1:
	.loc	1 0 9                           @ rt-thread/src/kservice.c:0:9
	movs	r0, #127
.Ltmp137:
	.loc	1 1197 16 is_stmt 1             @ rt-thread/src/kservice.c:1197:16
	str	r0, [sp, #8]
	.loc	1 1197 9 is_stmt 0              @ rt-thread/src/kservice.c:1197:9
	b	.LBB16_2
.Ltmp138:
.LBB16_2:
	.loc	1 1199 9 is_stmt 1              @ rt-thread/src/kservice.c:1199:9
	movw	r0, :lower16:_console_device
	movt	r0, :upper16:_console_device
	ldr	r0, [r0]
.Ltmp139:
	.loc	1 1199 9 is_stmt 0              @ rt-thread/src/kservice.c:1199:9
	cbnz	r0, .LBB16_4
	b	.LBB16_3
.LBB16_3:
.Ltmp140:
	.loc	1 1201 9 is_stmt 1              @ rt-thread/src/kservice.c:1201:9
	movw	r0, :lower16:rt_kprintf.rt_log_buf
	movt	r0, :upper16:rt_kprintf.rt_log_buf
	bl	rt_hw_console_output
	.loc	1 1202 5                        @ rt-thread/src/kservice.c:1202:5
	b	.LBB16_5
.Ltmp141:
.LBB16_4:
	.loc	1 1205 32                       @ rt-thread/src/kservice.c:1205:32
	movw	r0, :lower16:_console_device
	movt	r0, :upper16:_console_device
	str	r0, [sp]                        @ 4-byte Spill
	ldr	r1, [r0]
	.loc	1 1205 49 is_stmt 0             @ rt-thread/src/kservice.c:1205:49
	ldrh	r1, [r1, #24]
	.loc	1 1205 21                       @ rt-thread/src/kservice.c:1205:21
	strh.w	r1, [sp, #6]
	.loc	1 1207 9 is_stmt 1              @ rt-thread/src/kservice.c:1207:9
	ldr	r2, [r0]
	.loc	1 1207 36 is_stmt 0             @ rt-thread/src/kservice.c:1207:36
	ldrh	r1, [r2, #24]
	orr	r1, r1, #64
	strh	r1, [r2, #24]
	.loc	1 1208 25 is_stmt 1             @ rt-thread/src/kservice.c:1208:25
	ldr	r0, [r0]
	.loc	1 1208 57 is_stmt 0             @ rt-thread/src/kservice.c:1208:57
	ldr	r3, [sp, #8]
	.loc	1 1208 9                        @ rt-thread/src/kservice.c:1208:9
	movw	r2, :lower16:rt_kprintf.rt_log_buf
	movt	r2, :upper16:rt_kprintf.rt_log_buf
	movs	r1, #0
	bl	rt_device_write
	ldr	r1, [sp]                        @ 4-byte Reload
	.loc	1 1209 38 is_stmt 1             @ rt-thread/src/kservice.c:1209:38
	ldrh.w	r0, [sp, #6]
	.loc	1 1209 9 is_stmt 0              @ rt-thread/src/kservice.c:1209:9
	ldr	r1, [r1]
	.loc	1 1209 36                       @ rt-thread/src/kservice.c:1209:36
	strh	r0, [r1, #24]
	b	.LBB16_5
.Ltmp142:
.LBB16_5:
	.loc	1 1215 1 is_stmt 1              @ rt-thread/src/kservice.c:1215:1
	add	sp, #20
	pop.w	{r7, lr}
	add	sp, #12
	bx	lr
.Ltmp143:
.Lfunc_end16:
	.size	rt_kprintf, .Lfunc_end16-rt_kprintf
	.cfi_endproc
	.cantunwind
	.fnend
                                        @ -- End function
	.section	.text.rt_vsnprintf,"ax",%progbits
	.hidden	rt_vsnprintf                    @ -- Begin function rt_vsnprintf
	.globl	rt_vsnprintf
	.p2align	3
	.type	rt_vsnprintf,%function
	.code	16                              @ @rt_vsnprintf
	.thumb_func
rt_vsnprintf:
.Lfunc_begin17:
	.loc	1 781 0                         @ rt-thread/src/kservice.c:781:0
	.fnstart
	.cfi_startproc
@ %bb.0:
	.save	{r4, r5, r7, lr}
	push	{r4, r5, r7, lr}
	.cfi_def_cfa_offset 16
	.cfi_offset lr, -4
	.cfi_offset r7, -8
	.cfi_offset r5, -12
	.cfi_offset r4, -16
	.pad	#72
	sub	sp, #72
	.cfi_def_cfa_offset 88
	str	r3, [sp, #68]
	str	r0, [sp, #64]
	str	r1, [sp, #60]
	str	r2, [sp, #56]
.Ltmp144:
	.loc	1 800 11 prologue_end           @ rt-thread/src/kservice.c:800:11
	ldr	r0, [sp, #64]
	.loc	1 800 9 is_stmt 0               @ rt-thread/src/kservice.c:800:9
	str	r0, [sp, #40]
	.loc	1 801 11 is_stmt 1              @ rt-thread/src/kservice.c:801:11
	ldr	r0, [sp, #64]
	.loc	1 801 17 is_stmt 0              @ rt-thread/src/kservice.c:801:17
	ldr	r1, [sp, #60]
	.loc	1 801 15                        @ rt-thread/src/kservice.c:801:15
	add	r0, r1
	.loc	1 801 9                         @ rt-thread/src/kservice.c:801:9
	str	r0, [sp, #36]
.Ltmp145:
	.loc	1 804 9 is_stmt 1               @ rt-thread/src/kservice.c:804:9
	ldr	r0, [sp, #36]
	.loc	1 804 15 is_stmt 0              @ rt-thread/src/kservice.c:804:15
	ldr	r1, [sp, #64]
.Ltmp146:
	.loc	1 804 9                         @ rt-thread/src/kservice.c:804:9
	cmp	r0, r1
	bhs	.LBB17_2
	b	.LBB17_1
.LBB17_1:
	.loc	1 0 9                           @ rt-thread/src/kservice.c:0:9
	mov.w	r0, #-1
.Ltmp147:
	.loc	1 806 14 is_stmt 1              @ rt-thread/src/kservice.c:806:14
	str	r0, [sp, #36]
	.loc	1 807 16                        @ rt-thread/src/kservice.c:807:16
	ldr	r0, [sp, #36]
	.loc	1 807 22 is_stmt 0              @ rt-thread/src/kservice.c:807:22
	ldr	r1, [sp, #64]
	.loc	1 807 20                        @ rt-thread/src/kservice.c:807:20
	subs	r0, r0, r1
	.loc	1 807 14                        @ rt-thread/src/kservice.c:807:14
	str	r0, [sp, #60]
	.loc	1 808 5 is_stmt 1               @ rt-thread/src/kservice.c:808:5
	b	.LBB17_2
.Ltmp148:
.LBB17_2:
	.loc	1 810 5                         @ rt-thread/src/kservice.c:810:5
	b	.LBB17_3
.LBB17_3:                               @ =>This Loop Header: Depth=1
                                        @     Child Loop BB17_9 Depth 2
                                        @     Child Loop BB17_69 Depth 2
                                        @     Child Loop BB17_75 Depth 2
                                        @     Child Loop BB17_81 Depth 2
                                        @     Child Loop BB17_49 Depth 2
                                        @     Child Loop BB17_57 Depth 2
.Ltmp149:
	.loc	1 810 13 is_stmt 0              @ rt-thread/src/kservice.c:810:13
	ldr	r0, [sp, #56]
	.loc	1 810 12                        @ rt-thread/src/kservice.c:810:12
	ldrb	r0, [r0]
.Ltmp150:
	.loc	1 810 5                         @ rt-thread/src/kservice.c:810:5
	cmp	r0, #0
	beq.w	.LBB17_119
	b	.LBB17_4
.LBB17_4:                               @   in Loop: Header=BB17_3 Depth=1
.Ltmp151:
	.loc	1 812 14 is_stmt 1              @ rt-thread/src/kservice.c:812:14
	ldr	r0, [sp, #56]
	.loc	1 812 13 is_stmt 0              @ rt-thread/src/kservice.c:812:13
	ldrsb.w	r0, [r0]
.Ltmp152:
	.loc	1 812 13                        @ rt-thread/src/kservice.c:812:13
	cmp	r0, #37
	beq	.LBB17_8
	b	.LBB17_5
.LBB17_5:                               @   in Loop: Header=BB17_3 Depth=1
.Ltmp153:
	.loc	1 814 17 is_stmt 1              @ rt-thread/src/kservice.c:814:17
	ldr	r0, [sp, #40]
	.loc	1 814 23 is_stmt 0              @ rt-thread/src/kservice.c:814:23
	ldr	r1, [sp, #36]
.Ltmp154:
	.loc	1 814 17                        @ rt-thread/src/kservice.c:814:17
	cmp	r0, r1
	bhs	.LBB17_7
	b	.LBB17_6
.LBB17_6:                               @   in Loop: Header=BB17_3 Depth=1
.Ltmp155:
	.loc	1 815 25 is_stmt 1              @ rt-thread/src/kservice.c:815:25
	ldr	r0, [sp, #56]
	.loc	1 815 24 is_stmt 0              @ rt-thread/src/kservice.c:815:24
	ldrb	r0, [r0]
	.loc	1 815 18                        @ rt-thread/src/kservice.c:815:18
	ldr	r1, [sp, #40]
	.loc	1 815 22                        @ rt-thread/src/kservice.c:815:22
	strb	r0, [r1]
	.loc	1 815 17                        @ rt-thread/src/kservice.c:815:17
	b	.LBB17_7
.Ltmp156:
.LBB17_7:                               @   in Loop: Header=BB17_3 Depth=1
	.loc	1 816 13 is_stmt 1              @ rt-thread/src/kservice.c:816:13
	ldr	r0, [sp, #40]
	adds	r0, #1
	str	r0, [sp, #40]
	.loc	1 817 13                        @ rt-thread/src/kservice.c:817:13
	b	.LBB17_118
.Ltmp157:
.LBB17_8:                               @   in Loop: Header=BB17_3 Depth=1
	.loc	1 0 13 is_stmt 0                @ rt-thread/src/kservice.c:0:13
	movs	r0, #0
	.loc	1 821 15 is_stmt 1              @ rt-thread/src/kservice.c:821:15
	strb.w	r0, [sp, #26]
	.loc	1 823 9                         @ rt-thread/src/kservice.c:823:9
	b	.LBB17_9
.LBB17_9:                               @   Parent Loop BB17_3 Depth=1
                                        @ =>  This Inner Loop Header: Depth=2
.Ltmp158:
	.loc	1 826 13                        @ rt-thread/src/kservice.c:826:13
	ldr	r0, [sp, #56]
	adds	r0, #1
	str	r0, [sp, #56]
.Ltmp159:
	.loc	1 827 18                        @ rt-thread/src/kservice.c:827:18
	ldr	r0, [sp, #56]
	.loc	1 827 17 is_stmt 0              @ rt-thread/src/kservice.c:827:17
	ldrsb.w	r0, [r0]
.Ltmp160:
	.loc	1 827 17                        @ rt-thread/src/kservice.c:827:17
	cmp	r0, #45
	bne	.LBB17_11
	b	.LBB17_10
.LBB17_10:                              @   in Loop: Header=BB17_9 Depth=2
.Ltmp161:
	.loc	1 827 36                        @ rt-thread/src/kservice.c:827:36
	ldrb.w	r0, [sp, #26]
	orr	r0, r0, #16
	strb.w	r0, [sp, #26]
	.loc	1 827 30                        @ rt-thread/src/kservice.c:827:30
	b	.LBB17_24
.LBB17_11:                              @   in Loop: Header=BB17_9 Depth=2
.Ltmp162:
	.loc	1 828 23 is_stmt 1              @ rt-thread/src/kservice.c:828:23
	ldr	r0, [sp, #56]
	.loc	1 828 22 is_stmt 0              @ rt-thread/src/kservice.c:828:22
	ldrsb.w	r0, [r0]
.Ltmp163:
	.loc	1 828 22                        @ rt-thread/src/kservice.c:828:22
	cmp	r0, #43
	bne	.LBB17_13
	b	.LBB17_12
.LBB17_12:                              @   in Loop: Header=BB17_9 Depth=2
.Ltmp164:
	.loc	1 828 41                        @ rt-thread/src/kservice.c:828:41
	ldrb.w	r0, [sp, #26]
	orr	r0, r0, #4
	strb.w	r0, [sp, #26]
	.loc	1 828 35                        @ rt-thread/src/kservice.c:828:35
	b	.LBB17_23
.LBB17_13:                              @   in Loop: Header=BB17_9 Depth=2
.Ltmp165:
	.loc	1 829 23 is_stmt 1              @ rt-thread/src/kservice.c:829:23
	ldr	r0, [sp, #56]
	.loc	1 829 22 is_stmt 0              @ rt-thread/src/kservice.c:829:22
	ldrsb.w	r0, [r0]
.Ltmp166:
	.loc	1 829 22                        @ rt-thread/src/kservice.c:829:22
	cmp	r0, #32
	bne	.LBB17_15
	b	.LBB17_14
.LBB17_14:                              @   in Loop: Header=BB17_9 Depth=2
.Ltmp167:
	.loc	1 829 41                        @ rt-thread/src/kservice.c:829:41
	ldrb.w	r0, [sp, #26]
	orr	r0, r0, #8
	strb.w	r0, [sp, #26]
	.loc	1 829 35                        @ rt-thread/src/kservice.c:829:35
	b	.LBB17_22
.LBB17_15:                              @   in Loop: Header=BB17_9 Depth=2
.Ltmp168:
	.loc	1 830 23 is_stmt 1              @ rt-thread/src/kservice.c:830:23
	ldr	r0, [sp, #56]
	.loc	1 830 22 is_stmt 0              @ rt-thread/src/kservice.c:830:22
	ldrsb.w	r0, [r0]
.Ltmp169:
	.loc	1 830 22                        @ rt-thread/src/kservice.c:830:22
	cmp	r0, #35
	bne	.LBB17_17
	b	.LBB17_16
.LBB17_16:                              @   in Loop: Header=BB17_9 Depth=2
.Ltmp170:
	.loc	1 830 41                        @ rt-thread/src/kservice.c:830:41
	ldrb.w	r0, [sp, #26]
	orr	r0, r0, #32
	strb.w	r0, [sp, #26]
	.loc	1 830 35                        @ rt-thread/src/kservice.c:830:35
	b	.LBB17_21
.LBB17_17:                              @   in Loop: Header=BB17_9 Depth=2
.Ltmp171:
	.loc	1 831 23 is_stmt 1              @ rt-thread/src/kservice.c:831:23
	ldr	r0, [sp, #56]
	.loc	1 831 22 is_stmt 0              @ rt-thread/src/kservice.c:831:22
	ldrsb.w	r0, [r0]
.Ltmp172:
	.loc	1 831 22                        @ rt-thread/src/kservice.c:831:22
	cmp	r0, #48
	bne	.LBB17_19
	b	.LBB17_18
.LBB17_18:                              @   in Loop: Header=BB17_9 Depth=2
.Ltmp173:
	.loc	1 831 41                        @ rt-thread/src/kservice.c:831:41
	ldrb.w	r0, [sp, #26]
	orr	r0, r0, #1
	strb.w	r0, [sp, #26]
	.loc	1 831 35                        @ rt-thread/src/kservice.c:831:35
	b	.LBB17_20
.LBB17_19:                              @   in Loop: Header=BB17_3 Depth=1
	.loc	1 832 18 is_stmt 1              @ rt-thread/src/kservice.c:832:18
	b	.LBB17_25
.Ltmp174:
.LBB17_20:                              @   in Loop: Header=BB17_9 Depth=2
	.loc	1 0 18 is_stmt 0                @ rt-thread/src/kservice.c:0:18
	b	.LBB17_21
.LBB17_21:                              @   in Loop: Header=BB17_9 Depth=2
	b	.LBB17_22
.LBB17_22:                              @   in Loop: Header=BB17_9 Depth=2
	b	.LBB17_23
.LBB17_23:                              @   in Loop: Header=BB17_9 Depth=2
	b	.LBB17_24
.LBB17_24:                              @   in Loop: Header=BB17_9 Depth=2
	.loc	1 823 9 is_stmt 1               @ rt-thread/src/kservice.c:823:9
	b	.LBB17_9
.LBB17_25:                              @   in Loop: Header=BB17_3 Depth=1
	.loc	1 0 9 is_stmt 0                 @ rt-thread/src/kservice.c:0:9
	mov.w	r0, #-1
	.loc	1 836 21 is_stmt 1              @ rt-thread/src/kservice.c:836:21
	str	r0, [sp, #20]
.Ltmp175:
	.loc	1 837 13                        @ rt-thread/src/kservice.c:837:13
	ldr	r0, [sp, #56]
	ldrsb.w	r0, [r0]
	subs	r0, #48
.Ltmp176:
	.loc	1 837 13 is_stmt 0              @ rt-thread/src/kservice.c:837:13
	cmp	r0, #9
	bhi	.LBB17_27
	b	.LBB17_26
.LBB17_26:                              @   in Loop: Header=BB17_3 Depth=1
	.loc	1 0 13                          @ rt-thread/src/kservice.c:0:13
	add	r0, sp, #56
.Ltmp177:
	.loc	1 837 42                        @ rt-thread/src/kservice.c:837:42
	bl	skip_atoi
	.loc	1 837 40                        @ rt-thread/src/kservice.c:837:40
	str	r0, [sp, #20]
	.loc	1 837 28                        @ rt-thread/src/kservice.c:837:28
	b	.LBB17_32
.LBB17_27:                              @   in Loop: Header=BB17_3 Depth=1
.Ltmp178:
	.loc	1 838 19 is_stmt 1              @ rt-thread/src/kservice.c:838:19
	ldr	r0, [sp, #56]
	.loc	1 838 18 is_stmt 0              @ rt-thread/src/kservice.c:838:18
	ldrsb.w	r0, [r0]
.Ltmp179:
	.loc	1 838 18                        @ rt-thread/src/kservice.c:838:18
	cmp	r0, #42
	bne	.LBB17_31
	b	.LBB17_28
.LBB17_28:                              @   in Loop: Header=BB17_3 Depth=1
.Ltmp180:
	.loc	1 840 13 is_stmt 1              @ rt-thread/src/kservice.c:840:13
	ldr	r0, [sp, #56]
	adds	r0, #1
	str	r0, [sp, #56]
	.loc	1 842 27                        @ rt-thread/src/kservice.c:842:27
	ldr	r0, [sp, #68]
	adds	r1, r0, #4
	str	r1, [sp, #68]
	ldr	r0, [r0]
	.loc	1 842 25 is_stmt 0              @ rt-thread/src/kservice.c:842:25
	str	r0, [sp, #20]
.Ltmp181:
	.loc	1 843 17 is_stmt 1              @ rt-thread/src/kservice.c:843:17
	ldr	r0, [sp, #20]
.Ltmp182:
	.loc	1 843 17 is_stmt 0              @ rt-thread/src/kservice.c:843:17
	cmp.w	r0, #-1
	bgt	.LBB17_30
	b	.LBB17_29
.LBB17_29:                              @   in Loop: Header=BB17_3 Depth=1
.Ltmp183:
	.loc	1 845 32 is_stmt 1              @ rt-thread/src/kservice.c:845:32
	ldr	r0, [sp, #20]
	.loc	1 845 31 is_stmt 0              @ rt-thread/src/kservice.c:845:31
	rsbs	r0, r0, #0
	.loc	1 845 29                        @ rt-thread/src/kservice.c:845:29
	str	r0, [sp, #20]
	.loc	1 846 23 is_stmt 1              @ rt-thread/src/kservice.c:846:23
	ldrb.w	r0, [sp, #26]
	orr	r0, r0, #16
	strb.w	r0, [sp, #26]
	.loc	1 847 13                        @ rt-thread/src/kservice.c:847:13
	b	.LBB17_30
.Ltmp184:
.LBB17_30:                              @   in Loop: Header=BB17_3 Depth=1
	.loc	1 848 9                         @ rt-thread/src/kservice.c:848:9
	b	.LBB17_31
.Ltmp185:
.LBB17_31:                              @   in Loop: Header=BB17_3 Depth=1
	.loc	1 0 9 is_stmt 0                 @ rt-thread/src/kservice.c:0:9
	b	.LBB17_32
.LBB17_32:                              @   in Loop: Header=BB17_3 Depth=1
	mov.w	r0, #-1
	.loc	1 852 19 is_stmt 1              @ rt-thread/src/kservice.c:852:19
	str	r0, [sp, #16]
.Ltmp186:
	.loc	1 853 14                        @ rt-thread/src/kservice.c:853:14
	ldr	r0, [sp, #56]
	.loc	1 853 13 is_stmt 0              @ rt-thread/src/kservice.c:853:13
	ldrsb.w	r0, [r0]
.Ltmp187:
	.loc	1 853 13                        @ rt-thread/src/kservice.c:853:13
	cmp	r0, #46
	bne	.LBB17_41
	b	.LBB17_33
.LBB17_33:                              @   in Loop: Header=BB17_3 Depth=1
.Ltmp188:
	.loc	1 855 13 is_stmt 1              @ rt-thread/src/kservice.c:855:13
	ldr	r0, [sp, #56]
	adds	r0, #1
	str	r0, [sp, #56]
.Ltmp189:
	.loc	1 856 17                        @ rt-thread/src/kservice.c:856:17
	ldr	r0, [sp, #56]
	ldrsb.w	r0, [r0]
	subs	r0, #48
.Ltmp190:
	.loc	1 856 17 is_stmt 0              @ rt-thread/src/kservice.c:856:17
	cmp	r0, #9
	bhi	.LBB17_35
	b	.LBB17_34
.LBB17_34:                              @   in Loop: Header=BB17_3 Depth=1
	.loc	1 0 17                          @ rt-thread/src/kservice.c:0:17
	add	r0, sp, #56
.Ltmp191:
	.loc	1 856 44                        @ rt-thread/src/kservice.c:856:44
	bl	skip_atoi
	.loc	1 856 42                        @ rt-thread/src/kservice.c:856:42
	str	r0, [sp, #16]
	.loc	1 856 32                        @ rt-thread/src/kservice.c:856:32
	b	.LBB17_38
.LBB17_35:                              @   in Loop: Header=BB17_3 Depth=1
.Ltmp192:
	.loc	1 857 23 is_stmt 1              @ rt-thread/src/kservice.c:857:23
	ldr	r0, [sp, #56]
	.loc	1 857 22 is_stmt 0              @ rt-thread/src/kservice.c:857:22
	ldrsb.w	r0, [r0]
.Ltmp193:
	.loc	1 857 22                        @ rt-thread/src/kservice.c:857:22
	cmp	r0, #42
	bne	.LBB17_37
	b	.LBB17_36
.LBB17_36:                              @   in Loop: Header=BB17_3 Depth=1
.Ltmp194:
	.loc	1 859 17 is_stmt 1              @ rt-thread/src/kservice.c:859:17
	ldr	r0, [sp, #56]
	adds	r0, #1
	str	r0, [sp, #56]
	.loc	1 861 29                        @ rt-thread/src/kservice.c:861:29
	ldr	r0, [sp, #68]
	adds	r1, r0, #4
	str	r1, [sp, #68]
	ldr	r0, [r0]
	.loc	1 861 27 is_stmt 0              @ rt-thread/src/kservice.c:861:27
	str	r0, [sp, #16]
	.loc	1 862 13 is_stmt 1              @ rt-thread/src/kservice.c:862:13
	b	.LBB17_37
.Ltmp195:
.LBB17_37:                              @   in Loop: Header=BB17_3 Depth=1
	.loc	1 0 13 is_stmt 0                @ rt-thread/src/kservice.c:0:13
	b	.LBB17_38
.LBB17_38:                              @   in Loop: Header=BB17_3 Depth=1
.Ltmp196:
	.loc	1 863 17 is_stmt 1              @ rt-thread/src/kservice.c:863:17
	ldr	r0, [sp, #16]
.Ltmp197:
	.loc	1 863 17 is_stmt 0              @ rt-thread/src/kservice.c:863:17
	cmp.w	r0, #-1
	bgt	.LBB17_40
	b	.LBB17_39
.LBB17_39:                              @   in Loop: Header=BB17_3 Depth=1
	.loc	1 0 17                          @ rt-thread/src/kservice.c:0:17
	movs	r0, #0
.Ltmp198:
	.loc	1 863 42                        @ rt-thread/src/kservice.c:863:42
	str	r0, [sp, #16]
	.loc	1 863 32                        @ rt-thread/src/kservice.c:863:32
	b	.LBB17_40
.Ltmp199:
.LBB17_40:                              @   in Loop: Header=BB17_3 Depth=1
	.loc	1 864 9 is_stmt 1               @ rt-thread/src/kservice.c:864:9
	b	.LBB17_41
.Ltmp200:
.LBB17_41:                              @   in Loop: Header=BB17_3 Depth=1
	.loc	1 0 9 is_stmt 0                 @ rt-thread/src/kservice.c:0:9
	movs	r0, #0
	.loc	1 867 19 is_stmt 1              @ rt-thread/src/kservice.c:867:19
	strb.w	r0, [sp, #25]
.Ltmp201:
	.loc	1 871 14                        @ rt-thread/src/kservice.c:871:14
	ldr	r0, [sp, #56]
	.loc	1 871 13 is_stmt 0              @ rt-thread/src/kservice.c:871:13
	ldrsb.w	r0, [r0]
	.loc	1 871 25                        @ rt-thread/src/kservice.c:871:25
	cmp	r0, #104
	beq	.LBB17_43
	b	.LBB17_42
.LBB17_42:                              @   in Loop: Header=BB17_3 Depth=1
	.loc	1 871 29                        @ rt-thread/src/kservice.c:871:29
	ldr	r0, [sp, #56]
	.loc	1 871 28                        @ rt-thread/src/kservice.c:871:28
	ldrsb.w	r0, [r0]
.Ltmp202:
	.loc	1 871 13                        @ rt-thread/src/kservice.c:871:13
	cmp	r0, #108
	bne	.LBB17_44
	b	.LBB17_43
.LBB17_43:                              @   in Loop: Header=BB17_3 Depth=1
.Ltmp203:
	.loc	1 874 26 is_stmt 1              @ rt-thread/src/kservice.c:874:26
	ldr	r0, [sp, #56]
	.loc	1 874 25 is_stmt 0              @ rt-thread/src/kservice.c:874:25
	ldrb	r0, [r0]
	.loc	1 874 23                        @ rt-thread/src/kservice.c:874:23
	strb.w	r0, [sp, #25]
	.loc	1 875 13 is_stmt 1              @ rt-thread/src/kservice.c:875:13
	ldr	r0, [sp, #56]
	adds	r0, #1
	str	r0, [sp, #56]
	.loc	1 883 9                         @ rt-thread/src/kservice.c:883:9
	b	.LBB17_44
.Ltmp204:
.LBB17_44:                              @   in Loop: Header=BB17_3 Depth=1
	.loc	1 0 9 is_stmt 0                 @ rt-thread/src/kservice.c:0:9
	movs	r0, #10
	.loc	1 886 14 is_stmt 1              @ rt-thread/src/kservice.c:886:14
	strb.w	r0, [sp, #27]
	.loc	1 888 18                        @ rt-thread/src/kservice.c:888:18
	ldr	r0, [sp, #56]
	.loc	1 888 17 is_stmt 0              @ rt-thread/src/kservice.c:888:17
	ldrsb.w	r0, [r0]
	.loc	1 888 9                         @ rt-thread/src/kservice.c:888:9
	subs	r0, #37
	mov	r1, r0
	str	r1, [sp, #12]                   @ 4-byte Spill
	cmp	r0, #83
	bhi.w	.LBB17_97
@ %bb.45:                               @   in Loop: Header=BB17_3 Depth=1
	.loc	1 0 9                           @ rt-thread/src/kservice.c:0:9
	ldr	r1, [sp, #12]                   @ 4-byte Reload
.LCPI17_0:
	tbh	[pc, r1, lsl #1]
@ %bb.46:
.LJTI17_0:
	.short	(.LBB17_89-(.LCPI17_0+4))/2
	.short	(.LBB17_97-(.LCPI17_0+4))/2
	.short	(.LBB17_97-(.LCPI17_0+4))/2
	.short	(.LBB17_97-(.LCPI17_0+4))/2
	.short	(.LBB17_97-(.LCPI17_0+4))/2
	.short	(.LBB17_97-(.LCPI17_0+4))/2
	.short	(.LBB17_97-(.LCPI17_0+4))/2
	.short	(.LBB17_97-(.LCPI17_0+4))/2
	.short	(.LBB17_97-(.LCPI17_0+4))/2
	.short	(.LBB17_97-(.LCPI17_0+4))/2
	.short	(.LBB17_97-(.LCPI17_0+4))/2
	.short	(.LBB17_97-(.LCPI17_0+4))/2
	.short	(.LBB17_97-(.LCPI17_0+4))/2
	.short	(.LBB17_97-(.LCPI17_0+4))/2
	.short	(.LBB17_97-(.LCPI17_0+4))/2
	.short	(.LBB17_97-(.LCPI17_0+4))/2
	.short	(.LBB17_97-(.LCPI17_0+4))/2
	.short	(.LBB17_97-(.LCPI17_0+4))/2
	.short	(.LBB17_97-(.LCPI17_0+4))/2
	.short	(.LBB17_97-(.LCPI17_0+4))/2
	.short	(.LBB17_97-(.LCPI17_0+4))/2
	.short	(.LBB17_97-(.LCPI17_0+4))/2
	.short	(.LBB17_97-(.LCPI17_0+4))/2
	.short	(.LBB17_97-(.LCPI17_0+4))/2
	.short	(.LBB17_97-(.LCPI17_0+4))/2
	.short	(.LBB17_97-(.LCPI17_0+4))/2
	.short	(.LBB17_97-(.LCPI17_0+4))/2
	.short	(.LBB17_97-(.LCPI17_0+4))/2
	.short	(.LBB17_97-(.LCPI17_0+4))/2
	.short	(.LBB17_97-(.LCPI17_0+4))/2
	.short	(.LBB17_97-(.LCPI17_0+4))/2
	.short	(.LBB17_97-(.LCPI17_0+4))/2
	.short	(.LBB17_97-(.LCPI17_0+4))/2
	.short	(.LBB17_97-(.LCPI17_0+4))/2
	.short	(.LBB17_97-(.LCPI17_0+4))/2
	.short	(.LBB17_97-(.LCPI17_0+4))/2
	.short	(.LBB17_97-(.LCPI17_0+4))/2
	.short	(.LBB17_97-(.LCPI17_0+4))/2
	.short	(.LBB17_97-(.LCPI17_0+4))/2
	.short	(.LBB17_97-(.LCPI17_0+4))/2
	.short	(.LBB17_97-(.LCPI17_0+4))/2
	.short	(.LBB17_97-(.LCPI17_0+4))/2
	.short	(.LBB17_97-(.LCPI17_0+4))/2
	.short	(.LBB17_97-(.LCPI17_0+4))/2
	.short	(.LBB17_97-(.LCPI17_0+4))/2
	.short	(.LBB17_97-(.LCPI17_0+4))/2
	.short	(.LBB17_97-(.LCPI17_0+4))/2
	.short	(.LBB17_97-(.LCPI17_0+4))/2
	.short	(.LBB17_97-(.LCPI17_0+4))/2
	.short	(.LBB17_97-(.LCPI17_0+4))/2
	.short	(.LBB17_97-(.LCPI17_0+4))/2
	.short	(.LBB17_93-(.LCPI17_0+4))/2
	.short	(.LBB17_97-(.LCPI17_0+4))/2
	.short	(.LBB17_97-(.LCPI17_0+4))/2
	.short	(.LBB17_97-(.LCPI17_0+4))/2
	.short	(.LBB17_97-(.LCPI17_0+4))/2
	.short	(.LBB17_97-(.LCPI17_0+4))/2
	.short	(.LBB17_97-(.LCPI17_0+4))/2
	.short	(.LBB17_97-(.LCPI17_0+4))/2
	.short	(.LBB17_97-(.LCPI17_0+4))/2
	.short	(.LBB17_97-(.LCPI17_0+4))/2
	.short	(.LBB17_97-(.LCPI17_0+4))/2
	.short	(.LBB17_47-(.LCPI17_0+4))/2
	.short	(.LBB17_95-(.LCPI17_0+4))/2
	.short	(.LBB17_97-(.LCPI17_0+4))/2
	.short	(.LBB17_97-(.LCPI17_0+4))/2
	.short	(.LBB17_97-(.LCPI17_0+4))/2
	.short	(.LBB17_97-(.LCPI17_0+4))/2
	.short	(.LBB17_95-(.LCPI17_0+4))/2
	.short	(.LBB17_97-(.LCPI17_0+4))/2
	.short	(.LBB17_97-(.LCPI17_0+4))/2
	.short	(.LBB17_97-(.LCPI17_0+4))/2
	.short	(.LBB17_97-(.LCPI17_0+4))/2
	.short	(.LBB17_97-(.LCPI17_0+4))/2
	.short	(.LBB17_92-(.LCPI17_0+4))/2
	.short	(.LBB17_86-(.LCPI17_0+4))/2
	.short	(.LBB17_97-(.LCPI17_0+4))/2
	.short	(.LBB17_97-(.LCPI17_0+4))/2
	.short	(.LBB17_62-(.LCPI17_0+4))/2
	.short	(.LBB17_97-(.LCPI17_0+4))/2
	.short	(.LBB17_96-(.LCPI17_0+4))/2
	.short	(.LBB17_97-(.LCPI17_0+4))/2
	.short	(.LBB17_97-(.LCPI17_0+4))/2
	.short	(.LBB17_94-(.LCPI17_0+4))/2
	.p2align	1
.LBB17_47:                              @   in Loop: Header=BB17_3 Depth=1
.Ltmp205:
	.loc	1 891 19 is_stmt 1              @ rt-thread/src/kservice.c:891:19
	ldrb.w	r0, [sp, #26]
.Ltmp206:
	.loc	1 891 17 is_stmt 0              @ rt-thread/src/kservice.c:891:17
	lsls	r0, r0, #27
	cmp	r0, #0
	bmi	.LBB17_54
	b	.LBB17_48
.LBB17_48:                              @   in Loop: Header=BB17_3 Depth=1
.Ltmp207:
	.loc	1 893 17 is_stmt 1              @ rt-thread/src/kservice.c:893:17
	b	.LBB17_49
.LBB17_49:                              @   Parent Loop BB17_3 Depth=1
                                        @ =>  This Inner Loop Header: Depth=2
	.loc	1 893 24 is_stmt 0              @ rt-thread/src/kservice.c:893:24
	ldr	r0, [sp, #20]
	subs	r0, #1
	str	r0, [sp, #20]
	.loc	1 893 17                        @ rt-thread/src/kservice.c:893:17
	cmp	r0, #1
	blt	.LBB17_53
	b	.LBB17_50
.LBB17_50:                              @   in Loop: Header=BB17_49 Depth=2
.Ltmp208:
	.loc	1 895 25 is_stmt 1              @ rt-thread/src/kservice.c:895:25
	ldr	r0, [sp, #40]
	.loc	1 895 31 is_stmt 0              @ rt-thread/src/kservice.c:895:31
	ldr	r1, [sp, #36]
.Ltmp209:
	.loc	1 895 25                        @ rt-thread/src/kservice.c:895:25
	cmp	r0, r1
	bhs	.LBB17_52
	b	.LBB17_51
.LBB17_51:                              @   in Loop: Header=BB17_49 Depth=2
.Ltmp210:
	.loc	1 895 37                        @ rt-thread/src/kservice.c:895:37
	ldr	r1, [sp, #40]
	movs	r0, #32
	.loc	1 895 41                        @ rt-thread/src/kservice.c:895:41
	strb	r0, [r1]
	.loc	1 895 36                        @ rt-thread/src/kservice.c:895:36
	b	.LBB17_52
.Ltmp211:
.LBB17_52:                              @   in Loop: Header=BB17_49 Depth=2
	.loc	1 896 21 is_stmt 1              @ rt-thread/src/kservice.c:896:21
	ldr	r0, [sp, #40]
	adds	r0, #1
	str	r0, [sp, #40]
.Ltmp212:
	.loc	1 893 17                        @ rt-thread/src/kservice.c:893:17
	b	.LBB17_49
.LBB17_53:                              @   in Loop: Header=BB17_3 Depth=1
	.loc	1 898 13                        @ rt-thread/src/kservice.c:898:13
	b	.LBB17_54
.Ltmp213:
.LBB17_54:                              @   in Loop: Header=BB17_3 Depth=1
	.loc	1 901 29                        @ rt-thread/src/kservice.c:901:29
	ldr	r0, [sp, #68]
	adds	r1, r0, #4
	str	r1, [sp, #68]
	ldr	r0, [r0]
	.loc	1 901 15 is_stmt 0              @ rt-thread/src/kservice.c:901:15
	strb.w	r0, [sp, #35]
.Ltmp214:
	.loc	1 902 17 is_stmt 1              @ rt-thread/src/kservice.c:902:17
	ldr	r0, [sp, #40]
	.loc	1 902 23 is_stmt 0              @ rt-thread/src/kservice.c:902:23
	ldr	r1, [sp, #36]
.Ltmp215:
	.loc	1 902 17                        @ rt-thread/src/kservice.c:902:17
	cmp	r0, r1
	bhs	.LBB17_56
	b	.LBB17_55
.LBB17_55:                              @   in Loop: Header=BB17_3 Depth=1
.Ltmp216:
	.loc	1 902 35                        @ rt-thread/src/kservice.c:902:35
	ldrb.w	r0, [sp, #35]
	.loc	1 902 29                        @ rt-thread/src/kservice.c:902:29
	ldr	r1, [sp, #40]
	.loc	1 902 33                        @ rt-thread/src/kservice.c:902:33
	strb	r0, [r1]
	.loc	1 902 28                        @ rt-thread/src/kservice.c:902:28
	b	.LBB17_56
.Ltmp217:
.LBB17_56:                              @   in Loop: Header=BB17_3 Depth=1
	.loc	1 903 13 is_stmt 1              @ rt-thread/src/kservice.c:903:13
	ldr	r0, [sp, #40]
	adds	r0, #1
	str	r0, [sp, #40]
	.loc	1 906 13                        @ rt-thread/src/kservice.c:906:13
	b	.LBB17_57
.LBB17_57:                              @   Parent Loop BB17_3 Depth=1
                                        @ =>  This Inner Loop Header: Depth=2
	.loc	1 906 20 is_stmt 0              @ rt-thread/src/kservice.c:906:20
	ldr	r0, [sp, #20]
	subs	r0, #1
	str	r0, [sp, #20]
	.loc	1 906 13                        @ rt-thread/src/kservice.c:906:13
	cmp	r0, #1
	blt	.LBB17_61
	b	.LBB17_58
.LBB17_58:                              @   in Loop: Header=BB17_57 Depth=2
.Ltmp218:
	.loc	1 908 21 is_stmt 1              @ rt-thread/src/kservice.c:908:21
	ldr	r0, [sp, #40]
	.loc	1 908 27 is_stmt 0              @ rt-thread/src/kservice.c:908:27
	ldr	r1, [sp, #36]
.Ltmp219:
	.loc	1 908 21                        @ rt-thread/src/kservice.c:908:21
	cmp	r0, r1
	bhs	.LBB17_60
	b	.LBB17_59
.LBB17_59:                              @   in Loop: Header=BB17_57 Depth=2
.Ltmp220:
	.loc	1 908 33                        @ rt-thread/src/kservice.c:908:33
	ldr	r1, [sp, #40]
	movs	r0, #32
	.loc	1 908 37                        @ rt-thread/src/kservice.c:908:37
	strb	r0, [r1]
	.loc	1 908 32                        @ rt-thread/src/kservice.c:908:32
	b	.LBB17_60
.Ltmp221:
.LBB17_60:                              @   in Loop: Header=BB17_57 Depth=2
	.loc	1 909 17 is_stmt 1              @ rt-thread/src/kservice.c:909:17
	ldr	r0, [sp, #40]
	adds	r0, #1
	str	r0, [sp, #40]
.Ltmp222:
	.loc	1 906 13                        @ rt-thread/src/kservice.c:906:13
	b	.LBB17_57
.LBB17_61:                              @   in Loop: Header=BB17_3 Depth=1
	.loc	1 911 13                        @ rt-thread/src/kservice.c:911:13
	b	.LBB17_118
.LBB17_62:                              @   in Loop: Header=BB17_3 Depth=1
	.loc	1 914 17                        @ rt-thread/src/kservice.c:914:17
	ldr	r0, [sp, #68]
	adds	r1, r0, #4
	str	r1, [sp, #68]
	ldr	r0, [r0]
	.loc	1 914 15 is_stmt 0              @ rt-thread/src/kservice.c:914:15
	str	r0, [sp, #28]
.Ltmp223:
	.loc	1 915 18 is_stmt 1              @ rt-thread/src/kservice.c:915:18
	ldr	r0, [sp, #28]
.Ltmp224:
	.loc	1 915 17 is_stmt 0              @ rt-thread/src/kservice.c:915:17
	cbnz	r0, .LBB17_64
	b	.LBB17_63
.LBB17_63:                              @   in Loop: Header=BB17_3 Depth=1
.Ltmp225:
	.loc	1 915 23                        @ rt-thread/src/kservice.c:915:23
	movw	r0, :lower16:.L.str.5
	movt	r0, :upper16:.L.str.5
	str	r0, [sp, #28]
	.loc	1 915 21                        @ rt-thread/src/kservice.c:915:21
	b	.LBB17_64
.Ltmp226:
.LBB17_64:                              @   in Loop: Header=BB17_3 Depth=1
	.loc	1 917 29 is_stmt 1              @ rt-thread/src/kservice.c:917:29
	ldr	r0, [sp, #28]
	.loc	1 917 19 is_stmt 0              @ rt-thread/src/kservice.c:917:19
	bl	rt_strlen
	.loc	1 917 17                        @ rt-thread/src/kservice.c:917:17
	str	r0, [sp, #44]
.Ltmp227:
	.loc	1 919 17 is_stmt 1              @ rt-thread/src/kservice.c:919:17
	ldr	r0, [sp, #16]
	.loc	1 919 31 is_stmt 0              @ rt-thread/src/kservice.c:919:31
	cmp	r0, #1
	blt	.LBB17_67
	b	.LBB17_65
.LBB17_65:                              @   in Loop: Header=BB17_3 Depth=1
	.loc	1 919 34                        @ rt-thread/src/kservice.c:919:34
	ldr	r0, [sp, #44]
	.loc	1 919 40                        @ rt-thread/src/kservice.c:919:40
	ldr	r1, [sp, #16]
.Ltmp228:
	.loc	1 919 17                        @ rt-thread/src/kservice.c:919:17
	cmp	r0, r1
	ble	.LBB17_67
	b	.LBB17_66
.LBB17_66:                              @   in Loop: Header=BB17_3 Depth=1
.Ltmp229:
	.loc	1 919 57                        @ rt-thread/src/kservice.c:919:57
	ldr	r0, [sp, #16]
	.loc	1 919 55                        @ rt-thread/src/kservice.c:919:55
	str	r0, [sp, #44]
	.loc	1 919 51                        @ rt-thread/src/kservice.c:919:51
	b	.LBB17_67
.Ltmp230:
.LBB17_67:                              @   in Loop: Header=BB17_3 Depth=1
	.loc	1 922 19 is_stmt 1              @ rt-thread/src/kservice.c:922:19
	ldrb.w	r0, [sp, #26]
.Ltmp231:
	.loc	1 922 17 is_stmt 0              @ rt-thread/src/kservice.c:922:17
	lsls	r0, r0, #27
	cmp	r0, #0
	bmi	.LBB17_74
	b	.LBB17_68
.LBB17_68:                              @   in Loop: Header=BB17_3 Depth=1
.Ltmp232:
	.loc	1 924 17 is_stmt 1              @ rt-thread/src/kservice.c:924:17
	b	.LBB17_69
.LBB17_69:                              @   Parent Loop BB17_3 Depth=1
                                        @ =>  This Inner Loop Header: Depth=2
	.loc	1 924 24 is_stmt 0              @ rt-thread/src/kservice.c:924:24
	ldr	r0, [sp, #44]
	.loc	1 924 41                        @ rt-thread/src/kservice.c:924:41
	ldr	r1, [sp, #20]
	subs	r2, r1, #1
	str	r2, [sp, #20]
	.loc	1 924 17                        @ rt-thread/src/kservice.c:924:17
	cmp	r0, r1
	bge	.LBB17_73
	b	.LBB17_70
.LBB17_70:                              @   in Loop: Header=BB17_69 Depth=2
.Ltmp233:
	.loc	1 926 25 is_stmt 1              @ rt-thread/src/kservice.c:926:25
	ldr	r0, [sp, #40]
	.loc	1 926 31 is_stmt 0              @ rt-thread/src/kservice.c:926:31
	ldr	r1, [sp, #36]
.Ltmp234:
	.loc	1 926 25                        @ rt-thread/src/kservice.c:926:25
	cmp	r0, r1
	bhs	.LBB17_72
	b	.LBB17_71
.LBB17_71:                              @   in Loop: Header=BB17_69 Depth=2
.Ltmp235:
	.loc	1 926 37                        @ rt-thread/src/kservice.c:926:37
	ldr	r1, [sp, #40]
	movs	r0, #32
	.loc	1 926 41                        @ rt-thread/src/kservice.c:926:41
	strb	r0, [r1]
	.loc	1 926 36                        @ rt-thread/src/kservice.c:926:36
	b	.LBB17_72
.Ltmp236:
.LBB17_72:                              @   in Loop: Header=BB17_69 Depth=2
	.loc	1 927 21 is_stmt 1              @ rt-thread/src/kservice.c:927:21
	ldr	r0, [sp, #40]
	adds	r0, #1
	str	r0, [sp, #40]
.Ltmp237:
	.loc	1 924 17                        @ rt-thread/src/kservice.c:924:17
	b	.LBB17_69
.LBB17_73:                              @   in Loop: Header=BB17_3 Depth=1
	.loc	1 929 13                        @ rt-thread/src/kservice.c:929:13
	b	.LBB17_74
.Ltmp238:
.LBB17_74:                              @   in Loop: Header=BB17_3 Depth=1
	.loc	1 0 13 is_stmt 0                @ rt-thread/src/kservice.c:0:13
	movs	r0, #0
.Ltmp239:
	.loc	1 931 20 is_stmt 1              @ rt-thread/src/kservice.c:931:20
	str	r0, [sp, #48]
	.loc	1 931 18 is_stmt 0              @ rt-thread/src/kservice.c:931:18
	b	.LBB17_75
.LBB17_75:                              @   Parent Loop BB17_3 Depth=1
                                        @ =>  This Inner Loop Header: Depth=2
.Ltmp240:
	.loc	1 931 25                        @ rt-thread/src/kservice.c:931:25
	ldr	r0, [sp, #48]
	.loc	1 931 29                        @ rt-thread/src/kservice.c:931:29
	ldr	r1, [sp, #44]
.Ltmp241:
	.loc	1 931 13                        @ rt-thread/src/kservice.c:931:13
	cmp	r0, r1
	bge	.LBB17_80
	b	.LBB17_76
.LBB17_76:                              @   in Loop: Header=BB17_75 Depth=2
.Ltmp242:
	.loc	1 933 21 is_stmt 1              @ rt-thread/src/kservice.c:933:21
	ldr	r0, [sp, #40]
	.loc	1 933 27 is_stmt 0              @ rt-thread/src/kservice.c:933:27
	ldr	r1, [sp, #36]
.Ltmp243:
	.loc	1 933 21                        @ rt-thread/src/kservice.c:933:21
	cmp	r0, r1
	bhs	.LBB17_78
	b	.LBB17_77
.LBB17_77:                              @   in Loop: Header=BB17_75 Depth=2
.Ltmp244:
	.loc	1 933 40                        @ rt-thread/src/kservice.c:933:40
	ldr	r0, [sp, #28]
	.loc	1 933 39                        @ rt-thread/src/kservice.c:933:39
	ldrb	r0, [r0]
	.loc	1 933 33                        @ rt-thread/src/kservice.c:933:33
	ldr	r1, [sp, #40]
	.loc	1 933 37                        @ rt-thread/src/kservice.c:933:37
	strb	r0, [r1]
	.loc	1 933 32                        @ rt-thread/src/kservice.c:933:32
	b	.LBB17_78
.Ltmp245:
.LBB17_78:                              @   in Loop: Header=BB17_75 Depth=2
	.loc	1 934 17 is_stmt 1              @ rt-thread/src/kservice.c:934:17
	ldr	r0, [sp, #40]
	adds	r0, #1
	str	r0, [sp, #40]
	.loc	1 935 17                        @ rt-thread/src/kservice.c:935:17
	ldr	r0, [sp, #28]
	adds	r0, #1
	str	r0, [sp, #28]
	.loc	1 936 13                        @ rt-thread/src/kservice.c:936:13
	b	.LBB17_79
.Ltmp246:
.LBB17_79:                              @   in Loop: Header=BB17_75 Depth=2
	.loc	1 931 34                        @ rt-thread/src/kservice.c:931:34
	ldr	r0, [sp, #48]
	adds	r0, #1
	str	r0, [sp, #48]
	.loc	1 931 13 is_stmt 0              @ rt-thread/src/kservice.c:931:13
	b	.LBB17_75
.Ltmp247:
.LBB17_80:                              @   in Loop: Header=BB17_3 Depth=1
	.loc	1 938 13 is_stmt 1              @ rt-thread/src/kservice.c:938:13
	b	.LBB17_81
.LBB17_81:                              @   Parent Loop BB17_3 Depth=1
                                        @ =>  This Inner Loop Header: Depth=2
	.loc	1 938 20 is_stmt 0              @ rt-thread/src/kservice.c:938:20
	ldr	r0, [sp, #44]
	.loc	1 938 37                        @ rt-thread/src/kservice.c:938:37
	ldr	r1, [sp, #20]
	subs	r2, r1, #1
	str	r2, [sp, #20]
	.loc	1 938 13                        @ rt-thread/src/kservice.c:938:13
	cmp	r0, r1
	bge	.LBB17_85
	b	.LBB17_82
.LBB17_82:                              @   in Loop: Header=BB17_81 Depth=2
.Ltmp248:
	.loc	1 940 21 is_stmt 1              @ rt-thread/src/kservice.c:940:21
	ldr	r0, [sp, #40]
	.loc	1 940 27 is_stmt 0              @ rt-thread/src/kservice.c:940:27
	ldr	r1, [sp, #36]
.Ltmp249:
	.loc	1 940 21                        @ rt-thread/src/kservice.c:940:21
	cmp	r0, r1
	bhs	.LBB17_84
	b	.LBB17_83
.LBB17_83:                              @   in Loop: Header=BB17_81 Depth=2
.Ltmp250:
	.loc	1 940 33                        @ rt-thread/src/kservice.c:940:33
	ldr	r1, [sp, #40]
	movs	r0, #32
	.loc	1 940 37                        @ rt-thread/src/kservice.c:940:37
	strb	r0, [r1]
	.loc	1 940 32                        @ rt-thread/src/kservice.c:940:32
	b	.LBB17_84
.Ltmp251:
.LBB17_84:                              @   in Loop: Header=BB17_81 Depth=2
	.loc	1 941 17 is_stmt 1              @ rt-thread/src/kservice.c:941:17
	ldr	r0, [sp, #40]
	adds	r0, #1
	str	r0, [sp, #40]
.Ltmp252:
	.loc	1 938 13                        @ rt-thread/src/kservice.c:938:13
	b	.LBB17_81
.LBB17_85:                              @   in Loop: Header=BB17_3 Depth=1
	.loc	1 943 13                        @ rt-thread/src/kservice.c:943:13
	b	.LBB17_118
.LBB17_86:                              @   in Loop: Header=BB17_3 Depth=1
.Ltmp253:
	.loc	1 946 17                        @ rt-thread/src/kservice.c:946:17
	ldr	r0, [sp, #20]
.Ltmp254:
	.loc	1 946 17 is_stmt 0              @ rt-thread/src/kservice.c:946:17
	adds	r0, #1
	cbnz	r0, .LBB17_88
	b	.LBB17_87
.LBB17_87:                              @   in Loop: Header=BB17_3 Depth=1
	.loc	1 0 17                          @ rt-thread/src/kservice.c:0:17
	movs	r0, #8
.Ltmp255:
	.loc	1 948 29 is_stmt 1              @ rt-thread/src/kservice.c:948:29
	str	r0, [sp, #20]
	.loc	1 949 23                        @ rt-thread/src/kservice.c:949:23
	ldrb.w	r0, [sp, #26]
	orr	r0, r0, #1
	strb.w	r0, [sp, #26]
	.loc	1 950 13                        @ rt-thread/src/kservice.c:950:13
	b	.LBB17_88
.Ltmp256:
.LBB17_88:                              @   in Loop: Header=BB17_3 Depth=1
	.loc	1 952 32                        @ rt-thread/src/kservice.c:952:32
	ldr	r0, [sp, #40]
	.loc	1 952 37 is_stmt 0              @ rt-thread/src/kservice.c:952:37
	ldr	r1, [sp, #36]
	.loc	1 953 38 is_stmt 1              @ rt-thread/src/kservice.c:953:38
	ldr	r2, [sp, #68]
	adds	r3, r2, #4
	str	r3, [sp, #68]
	ldr	r2, [r2]
	.loc	1 954 36                        @ rt-thread/src/kservice.c:954:36
	ldr	r3, [sp, #20]
	.loc	1 954 49 is_stmt 0              @ rt-thread/src/kservice.c:954:49
	ldr.w	lr, [sp, #16]
	.loc	1 954 60                        @ rt-thread/src/kservice.c:954:60
	ldrb.w	r4, [sp, #26]
	.loc	1 952 19 is_stmt 1              @ rt-thread/src/kservice.c:952:19
	mov	r12, sp
	str.w	r4, [r12, #8]
	str.w	lr, [r12, #4]
	str.w	r3, [r12]
	movs	r3, #16
	bl	print_number
	.loc	1 952 17 is_stmt 0              @ rt-thread/src/kservice.c:952:17
	str	r0, [sp, #40]
	.loc	1 960 13 is_stmt 1              @ rt-thread/src/kservice.c:960:13
	b	.LBB17_118
.LBB17_89:                              @   in Loop: Header=BB17_3 Depth=1
.Ltmp257:
	.loc	1 963 17                        @ rt-thread/src/kservice.c:963:17
	ldr	r0, [sp, #40]
	.loc	1 963 23 is_stmt 0              @ rt-thread/src/kservice.c:963:23
	ldr	r1, [sp, #36]
.Ltmp258:
	.loc	1 963 17                        @ rt-thread/src/kservice.c:963:17
	cmp	r0, r1
	bhs	.LBB17_91
	b	.LBB17_90
.LBB17_90:                              @   in Loop: Header=BB17_3 Depth=1
.Ltmp259:
	.loc	1 963 29                        @ rt-thread/src/kservice.c:963:29
	ldr	r1, [sp, #40]
	movs	r0, #37
	.loc	1 963 33                        @ rt-thread/src/kservice.c:963:33
	strb	r0, [r1]
	.loc	1 963 28                        @ rt-thread/src/kservice.c:963:28
	b	.LBB17_91
.Ltmp260:
.LBB17_91:                              @   in Loop: Header=BB17_3 Depth=1
	.loc	1 964 13 is_stmt 1              @ rt-thread/src/kservice.c:964:13
	ldr	r0, [sp, #40]
	adds	r0, #1
	str	r0, [sp, #40]
	.loc	1 965 13                        @ rt-thread/src/kservice.c:965:13
	b	.LBB17_118
.LBB17_92:                              @   in Loop: Header=BB17_3 Depth=1
	.loc	1 0 13 is_stmt 0                @ rt-thread/src/kservice.c:0:13
	movs	r0, #8
	.loc	1 969 18 is_stmt 1              @ rt-thread/src/kservice.c:969:18
	strb.w	r0, [sp, #27]
	.loc	1 970 13                        @ rt-thread/src/kservice.c:970:13
	b	.LBB17_105
.LBB17_93:                              @   in Loop: Header=BB17_3 Depth=1
	.loc	1 973 19                        @ rt-thread/src/kservice.c:973:19
	ldrb.w	r0, [sp, #26]
	orr	r0, r0, #64
	strb.w	r0, [sp, #26]
	.loc	1 973 13 is_stmt 0              @ rt-thread/src/kservice.c:973:13
	b	.LBB17_94
.LBB17_94:                              @   in Loop: Header=BB17_3 Depth=1
	.loc	1 0 13                          @ rt-thread/src/kservice.c:0:13
	movs	r0, #16
	.loc	1 975 18 is_stmt 1              @ rt-thread/src/kservice.c:975:18
	strb.w	r0, [sp, #27]
	.loc	1 976 13                        @ rt-thread/src/kservice.c:976:13
	b	.LBB17_105
.LBB17_95:                              @   in Loop: Header=BB17_3 Depth=1
	.loc	1 980 19                        @ rt-thread/src/kservice.c:980:19
	ldrb.w	r0, [sp, #26]
	orr	r0, r0, #2
	strb.w	r0, [sp, #26]
	.loc	1 980 13 is_stmt 0              @ rt-thread/src/kservice.c:980:13
	b	.LBB17_96
.LBB17_96:                              @   in Loop: Header=BB17_3 Depth=1
	.loc	1 982 13 is_stmt 1              @ rt-thread/src/kservice.c:982:13
	b	.LBB17_105
.LBB17_97:                              @   in Loop: Header=BB17_3 Depth=1
.Ltmp261:
	.loc	1 985 17                        @ rt-thread/src/kservice.c:985:17
	ldr	r0, [sp, #40]
	.loc	1 985 23 is_stmt 0              @ rt-thread/src/kservice.c:985:23
	ldr	r1, [sp, #36]
.Ltmp262:
	.loc	1 985 17                        @ rt-thread/src/kservice.c:985:17
	cmp	r0, r1
	bhs	.LBB17_99
	b	.LBB17_98
.LBB17_98:                              @   in Loop: Header=BB17_3 Depth=1
.Ltmp263:
	.loc	1 985 29                        @ rt-thread/src/kservice.c:985:29
	ldr	r1, [sp, #40]
	movs	r0, #37
	.loc	1 985 33                        @ rt-thread/src/kservice.c:985:33
	strb	r0, [r1]
	.loc	1 985 28                        @ rt-thread/src/kservice.c:985:28
	b	.LBB17_99
.Ltmp264:
.LBB17_99:                              @   in Loop: Header=BB17_3 Depth=1
	.loc	1 986 13 is_stmt 1              @ rt-thread/src/kservice.c:986:13
	ldr	r0, [sp, #40]
	adds	r0, #1
	str	r0, [sp, #40]
.Ltmp265:
	.loc	1 988 18                        @ rt-thread/src/kservice.c:988:18
	ldr	r0, [sp, #56]
	.loc	1 988 17 is_stmt 0              @ rt-thread/src/kservice.c:988:17
	ldrb	r0, [r0]
.Ltmp266:
	.loc	1 988 17                        @ rt-thread/src/kservice.c:988:17
	cbz	r0, .LBB17_103
	b	.LBB17_100
.LBB17_100:                             @   in Loop: Header=BB17_3 Depth=1
.Ltmp267:
	.loc	1 990 21 is_stmt 1              @ rt-thread/src/kservice.c:990:21
	ldr	r0, [sp, #40]
	.loc	1 990 27 is_stmt 0              @ rt-thread/src/kservice.c:990:27
	ldr	r1, [sp, #36]
.Ltmp268:
	.loc	1 990 21                        @ rt-thread/src/kservice.c:990:21
	cmp	r0, r1
	bhs	.LBB17_102
	b	.LBB17_101
.LBB17_101:                             @   in Loop: Header=BB17_3 Depth=1
.Ltmp269:
	.loc	1 990 40                        @ rt-thread/src/kservice.c:990:40
	ldr	r0, [sp, #56]
	.loc	1 990 39                        @ rt-thread/src/kservice.c:990:39
	ldrb	r0, [r0]
	.loc	1 990 33                        @ rt-thread/src/kservice.c:990:33
	ldr	r1, [sp, #40]
	.loc	1 990 37                        @ rt-thread/src/kservice.c:990:37
	strb	r0, [r1]
	.loc	1 990 32                        @ rt-thread/src/kservice.c:990:32
	b	.LBB17_102
.Ltmp270:
.LBB17_102:                             @   in Loop: Header=BB17_3 Depth=1
	.loc	1 991 17 is_stmt 1              @ rt-thread/src/kservice.c:991:17
	ldr	r0, [sp, #40]
	adds	r0, #1
	str	r0, [sp, #40]
	.loc	1 992 13                        @ rt-thread/src/kservice.c:992:13
	b	.LBB17_104
.Ltmp271:
.LBB17_103:                             @   in Loop: Header=BB17_3 Depth=1
	.loc	1 995 17                        @ rt-thread/src/kservice.c:995:17
	ldr	r0, [sp, #56]
	subs	r0, #1
	str	r0, [sp, #56]
	b	.LBB17_104
.Ltmp272:
.LBB17_104:                             @   in Loop: Header=BB17_3 Depth=1
	.loc	1 997 13                        @ rt-thread/src/kservice.c:997:13
	b	.LBB17_118
.Ltmp273:
.LBB17_105:                             @   in Loop: Header=BB17_3 Depth=1
	.loc	1 1004 13                       @ rt-thread/src/kservice.c:1004:13
	ldrb.w	r0, [sp, #25]
.Ltmp274:
	.loc	1 1004 13 is_stmt 0             @ rt-thread/src/kservice.c:1004:13
	cmp	r0, #108
	bne	.LBB17_109
	b	.LBB17_106
.LBB17_106:                             @   in Loop: Header=BB17_3 Depth=1
.Ltmp275:
	.loc	1 1007 19 is_stmt 1             @ rt-thread/src/kservice.c:1007:19
	ldr	r0, [sp, #68]
	adds	r1, r0, #4
	str	r1, [sp, #68]
	ldr	r0, [r0]
	.loc	1 1007 17 is_stmt 0             @ rt-thread/src/kservice.c:1007:17
	str	r0, [sp, #52]
.Ltmp276:
	.loc	1 1008 17 is_stmt 1             @ rt-thread/src/kservice.c:1008:17
	ldrb.w	r0, [sp, #26]
.Ltmp277:
	.loc	1 1008 17 is_stmt 0             @ rt-thread/src/kservice.c:1008:17
	lsls	r0, r0, #30
	cmp	r0, #0
	bpl	.LBB17_108
	b	.LBB17_107
.LBB17_107:                             @   in Loop: Header=BB17_3 Depth=1
.Ltmp278:
	.loc	1 1008 31                       @ rt-thread/src/kservice.c:1008:31
	b	.LBB17_108
.Ltmp279:
.LBB17_108:                             @   in Loop: Header=BB17_3 Depth=1
	.loc	1 1009 9 is_stmt 1              @ rt-thread/src/kservice.c:1009:9
	b	.LBB17_117
.Ltmp280:
.LBB17_109:                             @   in Loop: Header=BB17_3 Depth=1
	.loc	1 1010 18                       @ rt-thread/src/kservice.c:1010:18
	ldrb.w	r0, [sp, #25]
.Ltmp281:
	.loc	1 1010 18 is_stmt 0             @ rt-thread/src/kservice.c:1010:18
	cmp	r0, #104
	bne	.LBB17_113
	b	.LBB17_110
.LBB17_110:                             @   in Loop: Header=BB17_3 Depth=1
.Ltmp282:
	.loc	1 1012 32 is_stmt 1             @ rt-thread/src/kservice.c:1012:32
	ldr	r0, [sp, #68]
	adds	r1, r0, #4
	str	r1, [sp, #68]
	ldrh	r0, [r0]
	.loc	1 1012 17 is_stmt 0             @ rt-thread/src/kservice.c:1012:17
	str	r0, [sp, #52]
.Ltmp283:
	.loc	1 1013 17 is_stmt 1             @ rt-thread/src/kservice.c:1013:17
	ldrb.w	r0, [sp, #26]
.Ltmp284:
	.loc	1 1013 17 is_stmt 0             @ rt-thread/src/kservice.c:1013:17
	lsls	r0, r0, #30
	cmp	r0, #0
	bpl	.LBB17_112
	b	.LBB17_111
.LBB17_111:                             @   in Loop: Header=BB17_3 Depth=1
.Ltmp285:
	.loc	1 1013 49                       @ rt-thread/src/kservice.c:1013:49
	ldrsh.w	r0, [sp, #52]
	.loc	1 1013 35                       @ rt-thread/src/kservice.c:1013:35
	str	r0, [sp, #52]
	.loc	1 1013 31                       @ rt-thread/src/kservice.c:1013:31
	b	.LBB17_112
.Ltmp286:
.LBB17_112:                             @   in Loop: Header=BB17_3 Depth=1
	.loc	1 1014 9 is_stmt 1              @ rt-thread/src/kservice.c:1014:9
	b	.LBB17_116
.Ltmp287:
.LBB17_113:                             @   in Loop: Header=BB17_3 Depth=1
	.loc	1 1017 19                       @ rt-thread/src/kservice.c:1017:19
	ldr	r0, [sp, #68]
	adds	r1, r0, #4
	str	r1, [sp, #68]
	ldr	r0, [r0]
	.loc	1 1017 17 is_stmt 0             @ rt-thread/src/kservice.c:1017:17
	str	r0, [sp, #52]
.Ltmp288:
	.loc	1 1018 17 is_stmt 1             @ rt-thread/src/kservice.c:1018:17
	ldrb.w	r0, [sp, #26]
.Ltmp289:
	.loc	1 1018 17 is_stmt 0             @ rt-thread/src/kservice.c:1018:17
	lsls	r0, r0, #30
	cmp	r0, #0
	bpl	.LBB17_115
	b	.LBB17_114
.LBB17_114:                             @   in Loop: Header=BB17_3 Depth=1
.Ltmp290:
	.loc	1 1018 31                       @ rt-thread/src/kservice.c:1018:31
	b	.LBB17_115
.Ltmp291:
.LBB17_115:                             @   in Loop: Header=BB17_3 Depth=1
	.loc	1 0 31                          @ rt-thread/src/kservice.c:0:31
	b	.LBB17_116
.LBB17_116:                             @   in Loop: Header=BB17_3 Depth=1
	b	.LBB17_117
.LBB17_117:                             @   in Loop: Header=BB17_3 Depth=1
	.loc	1 1021 28 is_stmt 1             @ rt-thread/src/kservice.c:1021:28
	ldr	r0, [sp, #40]
	.loc	1 1021 33 is_stmt 0             @ rt-thread/src/kservice.c:1021:33
	ldr	r1, [sp, #36]
	.loc	1 1021 38                       @ rt-thread/src/kservice.c:1021:38
	ldr	r2, [sp, #52]
	.loc	1 1021 43                       @ rt-thread/src/kservice.c:1021:43
	ldrb.w	r3, [sp, #27]
	.loc	1 1021 49                       @ rt-thread/src/kservice.c:1021:49
	ldr.w	r12, [sp, #20]
	.loc	1 1021 62                       @ rt-thread/src/kservice.c:1021:62
	ldr	r4, [sp, #16]
	.loc	1 1021 73                       @ rt-thread/src/kservice.c:1021:73
	ldrb.w	r5, [sp, #26]
	.loc	1 1021 15                       @ rt-thread/src/kservice.c:1021:15
	mov	lr, sp
	str.w	r5, [lr, #8]
	str.w	r4, [lr, #4]
	str.w	r12, [lr]
	bl	print_number
	.loc	1 1021 13                       @ rt-thread/src/kservice.c:1021:13
	str	r0, [sp, #40]
	.loc	1 1025 5 is_stmt 1              @ rt-thread/src/kservice.c:1025:5
	b	.LBB17_118
.Ltmp292:
.LBB17_118:                             @   in Loop: Header=BB17_3 Depth=1
	.loc	1 810 19                        @ rt-thread/src/kservice.c:810:19
	ldr	r0, [sp, #56]
	adds	r0, #1
	str	r0, [sp, #56]
	.loc	1 810 5 is_stmt 0               @ rt-thread/src/kservice.c:810:5
	b	.LBB17_3
.Ltmp293:
.LBB17_119:
	.loc	1 1027 9 is_stmt 1              @ rt-thread/src/kservice.c:1027:9
	ldr	r0, [sp, #60]
.Ltmp294:
	.loc	1 1027 9 is_stmt 0              @ rt-thread/src/kservice.c:1027:9
	cbz	r0, .LBB17_124
	b	.LBB17_120
.LBB17_120:
.Ltmp295:
	.loc	1 1029 13 is_stmt 1             @ rt-thread/src/kservice.c:1029:13
	ldr	r0, [sp, #40]
	.loc	1 1029 19 is_stmt 0             @ rt-thread/src/kservice.c:1029:19
	ldr	r1, [sp, #36]
.Ltmp296:
	.loc	1 1029 13                       @ rt-thread/src/kservice.c:1029:13
	cmp	r0, r1
	bhs	.LBB17_122
	b	.LBB17_121
.LBB17_121:
.Ltmp297:
	.loc	1 1029 25                       @ rt-thread/src/kservice.c:1029:25
	ldr	r1, [sp, #40]
	movs	r0, #0
	.loc	1 1029 29                       @ rt-thread/src/kservice.c:1029:29
	strb	r0, [r1]
	.loc	1 1029 24                       @ rt-thread/src/kservice.c:1029:24
	b	.LBB17_123
.LBB17_122:
.Ltmp298:
	.loc	1 1032 13 is_stmt 1             @ rt-thread/src/kservice.c:1032:13
	ldr	r1, [sp, #36]
	movs	r0, #0
	.loc	1 1032 21 is_stmt 0             @ rt-thread/src/kservice.c:1032:21
	strb	r0, [r1, #-1]
	b	.LBB17_123
.Ltmp299:
.LBB17_123:
	.loc	1 1034 5 is_stmt 1              @ rt-thread/src/kservice.c:1034:5
	b	.LBB17_124
.Ltmp300:
.LBB17_124:
	.loc	1 1039 12                       @ rt-thread/src/kservice.c:1039:12
	ldr	r0, [sp, #40]
	.loc	1 1039 18 is_stmt 0             @ rt-thread/src/kservice.c:1039:18
	ldr	r1, [sp, #64]
	.loc	1 1039 16                       @ rt-thread/src/kservice.c:1039:16
	subs	r0, r0, r1
	.loc	1 1039 5                        @ rt-thread/src/kservice.c:1039:5
	add	sp, #72
	pop	{r4, r5, r7, pc}
.Ltmp301:
.Lfunc_end17:
	.size	rt_vsnprintf, .Lfunc_end17-rt_vsnprintf
	.cfi_endproc
	.cantunwind
	.fnend
                                        @ -- End function
	.section	.text.skip_atoi,"ax",%progbits
	.p2align	3                               @ -- Begin function skip_atoi
	.type	skip_atoi,%function
	.code	16                              @ @skip_atoi
	.thumb_func
skip_atoi:
.Lfunc_begin18:
	.loc	1 589 0 is_stmt 1               @ rt-thread/src/kservice.c:589:0
	.fnstart
	.cfi_startproc
@ %bb.0:
	.pad	#8
	sub	sp, #8
	.cfi_def_cfa_offset 8
	str	r0, [sp, #4]
	movs	r0, #0
.Ltmp302:
	.loc	1 590 18 prologue_end           @ rt-thread/src/kservice.c:590:18
	str	r0, [sp]
	.loc	1 591 5                         @ rt-thread/src/kservice.c:591:5
	b	.LBB18_1
.LBB18_1:                               @ =>This Inner Loop Header: Depth=1
	.loc	1 591 12 is_stmt 0              @ rt-thread/src/kservice.c:591:12
	ldr	r0, [sp, #4]
	ldr	r0, [r0]
	ldrsb.w	r0, [r0]
	subs	r0, #48
	.loc	1 591 5                         @ rt-thread/src/kservice.c:591:5
	cmp	r0, #9
	bhi	.LBB18_3
	b	.LBB18_2
.LBB18_2:                               @   in Loop: Header=BB18_1 Depth=1
	.loc	1 592 13 is_stmt 1              @ rt-thread/src/kservice.c:592:13
	ldr	r0, [sp]
	.loc	1 592 15 is_stmt 0              @ rt-thread/src/kservice.c:592:15
	add.w	r1, r0, r0, lsl #2
	.loc	1 592 26                        @ rt-thread/src/kservice.c:592:26
	ldr	r3, [sp, #4]
	.loc	1 592 28                        @ rt-thread/src/kservice.c:592:28
	ldr	r0, [r3]
	adds	r2, r0, #1
	str	r2, [r3]
	.loc	1 592 22                        @ rt-thread/src/kservice.c:592:22
	ldrsb.w	r0, [r0]
	.loc	1 592 20                        @ rt-thread/src/kservice.c:592:20
	add.w	r0, r0, r1, lsl #1
	.loc	1 592 32                        @ rt-thread/src/kservice.c:592:32
	subs	r0, #48
	.loc	1 592 11                        @ rt-thread/src/kservice.c:592:11
	str	r0, [sp]
	.loc	1 591 5 is_stmt 1               @ rt-thread/src/kservice.c:591:5
	b	.LBB18_1
.LBB18_3:
	.loc	1 594 12                        @ rt-thread/src/kservice.c:594:12
	ldr	r0, [sp]
	.loc	1 594 5 is_stmt 0               @ rt-thread/src/kservice.c:594:5
	add	sp, #8
	bx	lr
.Ltmp303:
.Lfunc_end18:
	.size	skip_atoi, .Lfunc_end18-skip_atoi
	.cfi_endproc
	.cantunwind
	.fnend
                                        @ -- End function
	.section	.text.print_number,"ax",%progbits
	.p2align	3                               @ -- Begin function print_number
	.type	print_number,%function
	.code	16                              @ @print_number
	.thumb_func
print_number:
.Lfunc_begin19:
	.loc	1 629 0 is_stmt 1               @ rt-thread/src/kservice.c:629:0
	.fnstart
	.cfi_startproc
@ %bb.0:
	.save	{r7, lr}
	push	{r7, lr}
	.cfi_def_cfa_offset 8
	.cfi_offset lr, -4
	.cfi_offset r7, -8
	.pad	#64
	sub	sp, #64
	.cfi_def_cfa_offset 72
	ldr.w	r12, [sp, #80]
	ldr.w	r12, [sp, #76]
	ldr.w	r12, [sp, #72]
	str	r0, [sp, #60]
	str	r1, [sp, #56]
	str	r2, [sp, #52]
	str	r3, [sp, #48]
.Ltmp304:
	.loc	1 636 25 prologue_end           @ rt-thread/src/kservice.c:636:25
	ldr	r0, [sp, #76]
	.loc	1 636 9 is_stmt 0               @ rt-thread/src/kservice.c:636:9
	str	r0, [sp, #24]
	.loc	1 643 12 is_stmt 1              @ rt-thread/src/kservice.c:643:12
	ldr	r0, [sp, #72]
	.loc	1 643 10 is_stmt 0              @ rt-thread/src/kservice.c:643:10
	str	r0, [sp, #12]
	.loc	1 645 15 is_stmt 1              @ rt-thread/src/kservice.c:645:15
	ldr	r0, [sp, #80]
	.loc	1 645 14 is_stmt 0              @ rt-thread/src/kservice.c:645:14
	lsls	r2, r0, #25
	movw	r1, :lower16:print_number.large_digits
	movt	r1, :upper16:print_number.large_digits
	movw	r0, :lower16:print_number.small_digits
	movt	r0, :upper16:print_number.small_digits
	cmp	r2, #0
	it	mi
	movmi	r0, r1
	.loc	1 645 12                        @ rt-thread/src/kservice.c:645:12
	str	r0, [sp, #20]
	.loc	1 646 9 is_stmt 1               @ rt-thread/src/kservice.c:646:9
	ldrb.w	r0, [sp, #80]
	lsls	r0, r0, #27
	cmp	r0, #0
	bpl	.LBB19_2
	b	.LBB19_1
.LBB19_1:
.Ltmp305:
	.loc	1 647 14                        @ rt-thread/src/kservice.c:647:14
	ldr	r0, [sp, #80]
	bic	r0, r0, #1
	str	r0, [sp, #80]
	.loc	1 647 9 is_stmt 0               @ rt-thread/src/kservice.c:647:9
	b	.LBB19_2
.Ltmp306:
.LBB19_2:
	.loc	1 649 10 is_stmt 1              @ rt-thread/src/kservice.c:649:10
	ldr	r0, [sp, #80]
	.loc	1 649 9 is_stmt 0               @ rt-thread/src/kservice.c:649:9
	lsls	r1, r0, #31
	movs	r0, #32
	cmp	r1, #0
	it	ne
	movne	r0, #48
	.loc	1 649 7                         @ rt-thread/src/kservice.c:649:7
	strb.w	r0, [sp, #47]
	movs	r0, #0
	.loc	1 652 10 is_stmt 1              @ rt-thread/src/kservice.c:652:10
	strb.w	r0, [sp, #46]
	.loc	1 653 9                         @ rt-thread/src/kservice.c:653:9
	ldrb.w	r0, [sp, #80]
	lsls	r0, r0, #30
	cmp	r0, #0
	bpl	.LBB19_12
	b	.LBB19_3
.LBB19_3:
.Ltmp307:
	.loc	1 655 13                        @ rt-thread/src/kservice.c:655:13
	ldr	r0, [sp, #52]
.Ltmp308:
	.loc	1 655 13 is_stmt 0              @ rt-thread/src/kservice.c:655:13
	cmp.w	r0, #-1
	bgt	.LBB19_5
	b	.LBB19_4
.LBB19_4:
	.loc	1 0 13                          @ rt-thread/src/kservice.c:0:13
	movs	r0, #45
.Ltmp309:
	.loc	1 657 18 is_stmt 1              @ rt-thread/src/kservice.c:657:18
	strb.w	r0, [sp, #46]
	.loc	1 658 20                        @ rt-thread/src/kservice.c:658:20
	ldr	r0, [sp, #52]
	.loc	1 658 19 is_stmt 0              @ rt-thread/src/kservice.c:658:19
	rsbs	r0, r0, #0
	.loc	1 658 17                        @ rt-thread/src/kservice.c:658:17
	str	r0, [sp, #52]
	.loc	1 659 9 is_stmt 1               @ rt-thread/src/kservice.c:659:9
	b	.LBB19_11
.Ltmp310:
.LBB19_5:
	.loc	1 660 18                        @ rt-thread/src/kservice.c:660:18
	ldrb.w	r0, [sp, #80]
	lsls	r0, r0, #29
	cmp	r0, #0
	bpl	.LBB19_7
	b	.LBB19_6
.LBB19_6:
	.loc	1 0 18 is_stmt 0                @ rt-thread/src/kservice.c:0:18
	movs	r0, #43
.Ltmp311:
	.loc	1 661 18 is_stmt 1              @ rt-thread/src/kservice.c:661:18
	strb.w	r0, [sp, #46]
	.loc	1 661 13 is_stmt 0              @ rt-thread/src/kservice.c:661:13
	b	.LBB19_10
.LBB19_7:
	.loc	1 662 18 is_stmt 1              @ rt-thread/src/kservice.c:662:18
	ldrb.w	r0, [sp, #80]
	lsls	r0, r0, #28
	cmp	r0, #0
	bpl	.LBB19_9
	b	.LBB19_8
.LBB19_8:
	.loc	1 0 18 is_stmt 0                @ rt-thread/src/kservice.c:0:18
	movs	r0, #32
.Ltmp312:
	.loc	1 663 18 is_stmt 1              @ rt-thread/src/kservice.c:663:18
	strb.w	r0, [sp, #46]
	.loc	1 663 13 is_stmt 0              @ rt-thread/src/kservice.c:663:13
	b	.LBB19_9
.Ltmp313:
.LBB19_9:
	.loc	1 0 13                          @ rt-thread/src/kservice.c:0:13
	b	.LBB19_10
.LBB19_10:
	b	.LBB19_11
.LBB19_11:
	.loc	1 664 5 is_stmt 1               @ rt-thread/src/kservice.c:664:5
	b	.LBB19_12
.Ltmp314:
.LBB19_12:
	.loc	1 0 5 is_stmt 0                 @ rt-thread/src/kservice.c:0:5
	movs	r0, #0
	.loc	1 676 7 is_stmt 1               @ rt-thread/src/kservice.c:676:7
	str	r0, [sp, #16]
.Ltmp315:
	.loc	1 677 9                         @ rt-thread/src/kservice.c:677:9
	ldr	r0, [sp, #52]
.Ltmp316:
	.loc	1 677 9 is_stmt 0               @ rt-thread/src/kservice.c:677:9
	cbnz	r0, .LBB19_14
	b	.LBB19_13
.LBB19_13:
.Ltmp317:
	.loc	1 678 14 is_stmt 1              @ rt-thread/src/kservice.c:678:14
	ldr	r2, [sp, #16]
	adds	r0, r2, #1
	str	r0, [sp, #16]
	add.w	r1, sp, #30
	movs	r0, #48
	.loc	1 678 18 is_stmt 0              @ rt-thread/src/kservice.c:678:18
	strb	r0, [r1, r2]
	.loc	1 678 9                         @ rt-thread/src/kservice.c:678:9
	b	.LBB19_18
.LBB19_14:
.Ltmp318:
	.loc	1 681 9 is_stmt 1               @ rt-thread/src/kservice.c:681:9
	b	.LBB19_15
.LBB19_15:                              @ =>This Inner Loop Header: Depth=1
	.loc	1 681 16 is_stmt 0              @ rt-thread/src/kservice.c:681:16
	ldr	r0, [sp, #52]
	.loc	1 681 9                         @ rt-thread/src/kservice.c:681:9
	cbz	r0, .LBB19_17
	b	.LBB19_16
.LBB19_16:                              @   in Loop: Header=BB19_15 Depth=1
	.loc	1 682 24 is_stmt 1              @ rt-thread/src/kservice.c:682:24
	ldr	r0, [sp, #20]
	.loc	1 682 44 is_stmt 0              @ rt-thread/src/kservice.c:682:44
	str	r0, [sp, #8]                    @ 4-byte Spill
	ldr	r1, [sp, #48]
	add	r0, sp, #52
	.loc	1 682 31                        @ rt-thread/src/kservice.c:682:31
	bl	divide
	mov	r1, r0
	.loc	1 682 24                        @ rt-thread/src/kservice.c:682:24
	ldr	r0, [sp, #8]                    @ 4-byte Reload
	ldrb	r0, [r0, r1]
	.loc	1 682 18                        @ rt-thread/src/kservice.c:682:18
	ldr	r2, [sp, #16]
	adds	r1, r2, #1
	str	r1, [sp, #16]
	add.w	r1, sp, #30
	.loc	1 682 22                        @ rt-thread/src/kservice.c:682:22
	strb	r0, [r1, r2]
	.loc	1 681 9 is_stmt 1               @ rt-thread/src/kservice.c:681:9
	b	.LBB19_15
.Ltmp319:
.LBB19_17:
	.loc	1 0 9 is_stmt 0                 @ rt-thread/src/kservice.c:0:9
	b	.LBB19_18
.LBB19_18:
.Ltmp320:
	.loc	1 686 9 is_stmt 1               @ rt-thread/src/kservice.c:686:9
	ldr	r0, [sp, #16]
	.loc	1 686 13 is_stmt 0              @ rt-thread/src/kservice.c:686:13
	ldr	r1, [sp, #76]
.Ltmp321:
	.loc	1 686 9                         @ rt-thread/src/kservice.c:686:9
	cmp	r0, r1
	ble	.LBB19_20
	b	.LBB19_19
.LBB19_19:
.Ltmp322:
	.loc	1 687 21 is_stmt 1              @ rt-thread/src/kservice.c:687:21
	ldr	r0, [sp, #16]
	.loc	1 687 19 is_stmt 0              @ rt-thread/src/kservice.c:687:19
	str	r0, [sp, #76]
	.loc	1 687 9                         @ rt-thread/src/kservice.c:687:9
	b	.LBB19_20
.Ltmp323:
.LBB19_20:
	.loc	1 688 13 is_stmt 1              @ rt-thread/src/kservice.c:688:13
	ldr	r1, [sp, #76]
	.loc	1 688 10 is_stmt 0              @ rt-thread/src/kservice.c:688:10
	ldr	r0, [sp, #12]
	subs	r0, r0, r1
	str	r0, [sp, #12]
	.loc	1 693 9 is_stmt 1               @ rt-thread/src/kservice.c:693:9
	ldrb.w	r0, [sp, #80]
	tst.w	r0, #17
	bne	.LBB19_30
	b	.LBB19_21
.LBB19_21:
.Ltmp324:
	.loc	1 695 14                        @ rt-thread/src/kservice.c:695:14
	ldrsb.w	r0, [sp, #46]
	.loc	1 695 20 is_stmt 0              @ rt-thread/src/kservice.c:695:20
	cbz	r0, .LBB19_24
	b	.LBB19_22
.LBB19_22:
	.loc	1 695 24                        @ rt-thread/src/kservice.c:695:24
	ldr	r0, [sp, #12]
.Ltmp325:
	.loc	1 695 13                        @ rt-thread/src/kservice.c:695:13
	cmp	r0, #1
	blt	.LBB19_24
	b	.LBB19_23
.LBB19_23:
.Ltmp326:
	.loc	1 696 17 is_stmt 1              @ rt-thread/src/kservice.c:696:17
	ldr	r0, [sp, #12]
	subs	r0, #1
	str	r0, [sp, #12]
	.loc	1 696 13 is_stmt 0              @ rt-thread/src/kservice.c:696:13
	b	.LBB19_24
.Ltmp327:
.LBB19_24:
	.loc	1 698 9 is_stmt 1               @ rt-thread/src/kservice.c:698:9
	b	.LBB19_25
.LBB19_25:                              @ =>This Inner Loop Header: Depth=1
	.loc	1 698 20 is_stmt 0              @ rt-thread/src/kservice.c:698:20
	ldr	r0, [sp, #12]
	subs	r1, r0, #1
	str	r1, [sp, #12]
	.loc	1 698 9                         @ rt-thread/src/kservice.c:698:9
	cmp	r0, #1
	blt	.LBB19_29
	b	.LBB19_26
.LBB19_26:                              @   in Loop: Header=BB19_25 Depth=1
.Ltmp328:
	.loc	1 700 17 is_stmt 1              @ rt-thread/src/kservice.c:700:17
	ldr	r0, [sp, #60]
	.loc	1 700 23 is_stmt 0              @ rt-thread/src/kservice.c:700:23
	ldr	r1, [sp, #56]
.Ltmp329:
	.loc	1 700 17                        @ rt-thread/src/kservice.c:700:17
	cmp	r0, r1
	bhs	.LBB19_28
	b	.LBB19_27
.LBB19_27:                              @   in Loop: Header=BB19_25 Depth=1
.Ltmp330:
	.loc	1 701 18 is_stmt 1              @ rt-thread/src/kservice.c:701:18
	ldr	r1, [sp, #60]
	movs	r0, #32
	.loc	1 701 22 is_stmt 0              @ rt-thread/src/kservice.c:701:22
	strb	r0, [r1]
	.loc	1 701 17                        @ rt-thread/src/kservice.c:701:17
	b	.LBB19_28
.Ltmp331:
.LBB19_28:                              @   in Loop: Header=BB19_25 Depth=1
	.loc	1 702 13 is_stmt 1              @ rt-thread/src/kservice.c:702:13
	ldr	r0, [sp, #60]
	adds	r0, #1
	str	r0, [sp, #60]
.Ltmp332:
	.loc	1 698 9                         @ rt-thread/src/kservice.c:698:9
	b	.LBB19_25
.LBB19_29:
	.loc	1 704 5                         @ rt-thread/src/kservice.c:704:5
	b	.LBB19_30
.Ltmp333:
.LBB19_30:
	.loc	1 706 9                         @ rt-thread/src/kservice.c:706:9
	ldrb.w	r0, [sp, #46]
.Ltmp334:
	.loc	1 706 9 is_stmt 0               @ rt-thread/src/kservice.c:706:9
	cbz	r0, .LBB19_34
	b	.LBB19_31
.LBB19_31:
.Ltmp335:
	.loc	1 708 13 is_stmt 1              @ rt-thread/src/kservice.c:708:13
	ldr	r0, [sp, #60]
	.loc	1 708 19 is_stmt 0              @ rt-thread/src/kservice.c:708:19
	ldr	r1, [sp, #56]
.Ltmp336:
	.loc	1 708 13                        @ rt-thread/src/kservice.c:708:13
	cmp	r0, r1
	bhs	.LBB19_33
	b	.LBB19_32
.LBB19_32:
.Ltmp337:
	.loc	1 710 20 is_stmt 1              @ rt-thread/src/kservice.c:710:20
	ldrb.w	r0, [sp, #46]
	.loc	1 710 14 is_stmt 0              @ rt-thread/src/kservice.c:710:14
	ldr	r1, [sp, #60]
	.loc	1 710 18                        @ rt-thread/src/kservice.c:710:18
	strb	r0, [r1]
	.loc	1 711 9 is_stmt 1               @ rt-thread/src/kservice.c:711:9
	b	.LBB19_33
.Ltmp338:
.LBB19_33:
	.loc	1 712 9                         @ rt-thread/src/kservice.c:712:9
	ldr	r0, [sp, #12]
	subs	r0, #1
	str	r0, [sp, #12]
	.loc	1 713 9                         @ rt-thread/src/kservice.c:713:9
	ldr	r0, [sp, #60]
	adds	r0, #1
	str	r0, [sp, #60]
	.loc	1 714 5                         @ rt-thread/src/kservice.c:714:5
	b	.LBB19_34
.Ltmp339:
.LBB19_34:
	.loc	1 740 9                         @ rt-thread/src/kservice.c:740:9
	ldrb.w	r0, [sp, #80]
	lsls	r0, r0, #27
	cmp	r0, #0
	bmi	.LBB19_41
	b	.LBB19_35
.LBB19_35:
.Ltmp340:
	.loc	1 742 9                         @ rt-thread/src/kservice.c:742:9
	b	.LBB19_36
.LBB19_36:                              @ =>This Inner Loop Header: Depth=1
	.loc	1 742 20 is_stmt 0              @ rt-thread/src/kservice.c:742:20
	ldr	r0, [sp, #12]
	subs	r1, r0, #1
	str	r1, [sp, #12]
	.loc	1 742 9                         @ rt-thread/src/kservice.c:742:9
	cmp	r0, #1
	blt	.LBB19_40
	b	.LBB19_37
.LBB19_37:                              @   in Loop: Header=BB19_36 Depth=1
.Ltmp341:
	.loc	1 744 17 is_stmt 1              @ rt-thread/src/kservice.c:744:17
	ldr	r0, [sp, #60]
	.loc	1 744 23 is_stmt 0              @ rt-thread/src/kservice.c:744:23
	ldr	r1, [sp, #56]
.Ltmp342:
	.loc	1 744 17                        @ rt-thread/src/kservice.c:744:17
	cmp	r0, r1
	bhs	.LBB19_39
	b	.LBB19_38
.LBB19_38:                              @   in Loop: Header=BB19_36 Depth=1
.Ltmp343:
	.loc	1 745 24 is_stmt 1              @ rt-thread/src/kservice.c:745:24
	ldrb.w	r0, [sp, #47]
	.loc	1 745 18 is_stmt 0              @ rt-thread/src/kservice.c:745:18
	ldr	r1, [sp, #60]
	.loc	1 745 22                        @ rt-thread/src/kservice.c:745:22
	strb	r0, [r1]
	.loc	1 745 17                        @ rt-thread/src/kservice.c:745:17
	b	.LBB19_39
.Ltmp344:
.LBB19_39:                              @   in Loop: Header=BB19_36 Depth=1
	.loc	1 746 13 is_stmt 1              @ rt-thread/src/kservice.c:746:13
	ldr	r0, [sp, #60]
	adds	r0, #1
	str	r0, [sp, #60]
.Ltmp345:
	.loc	1 742 9                         @ rt-thread/src/kservice.c:742:9
	b	.LBB19_36
.LBB19_40:
	.loc	1 748 5                         @ rt-thread/src/kservice.c:748:5
	b	.LBB19_41
.Ltmp346:
.LBB19_41:
	.loc	1 751 5                         @ rt-thread/src/kservice.c:751:5
	b	.LBB19_42
.LBB19_42:                              @ =>This Inner Loop Header: Depth=1
	.loc	1 751 12 is_stmt 0              @ rt-thread/src/kservice.c:751:12
	ldr	r0, [sp, #16]
	.loc	1 751 25                        @ rt-thread/src/kservice.c:751:25
	ldr	r1, [sp, #76]
	subs	r2, r1, #1
	str	r2, [sp, #76]
	.loc	1 751 5                         @ rt-thread/src/kservice.c:751:5
	cmp	r0, r1
	bge	.LBB19_46
	b	.LBB19_43
.LBB19_43:                              @   in Loop: Header=BB19_42 Depth=1
.Ltmp347:
	.loc	1 753 13 is_stmt 1              @ rt-thread/src/kservice.c:753:13
	ldr	r0, [sp, #60]
	.loc	1 753 19 is_stmt 0              @ rt-thread/src/kservice.c:753:19
	ldr	r1, [sp, #56]
.Ltmp348:
	.loc	1 753 13                        @ rt-thread/src/kservice.c:753:13
	cmp	r0, r1
	bhs	.LBB19_45
	b	.LBB19_44
.LBB19_44:                              @   in Loop: Header=BB19_42 Depth=1
.Ltmp349:
	.loc	1 754 14 is_stmt 1              @ rt-thread/src/kservice.c:754:14
	ldr	r1, [sp, #60]
	movs	r0, #48
	.loc	1 754 18 is_stmt 0              @ rt-thread/src/kservice.c:754:18
	strb	r0, [r1]
	.loc	1 754 13                        @ rt-thread/src/kservice.c:754:13
	b	.LBB19_45
.Ltmp350:
.LBB19_45:                              @   in Loop: Header=BB19_42 Depth=1
	.loc	1 755 9 is_stmt 1               @ rt-thread/src/kservice.c:755:9
	ldr	r0, [sp, #60]
	adds	r0, #1
	str	r0, [sp, #60]
.Ltmp351:
	.loc	1 751 5                         @ rt-thread/src/kservice.c:751:5
	b	.LBB19_42
.LBB19_46:
	.loc	1 760 5                         @ rt-thread/src/kservice.c:760:5
	b	.LBB19_47
.LBB19_47:                              @ =>This Inner Loop Header: Depth=1
	.loc	1 760 13 is_stmt 0              @ rt-thread/src/kservice.c:760:13
	ldr	r1, [sp, #16]
	subs	r0, r1, #1
	str	r0, [sp, #16]
	movs	r0, #0
	.loc	1 760 20                        @ rt-thread/src/kservice.c:760:20
	cmp	r1, #1
	str	r0, [sp, #4]                    @ 4-byte Spill
	blt	.LBB19_49
	b	.LBB19_48
.LBB19_48:                              @   in Loop: Header=BB19_47 Depth=1
	.loc	1 760 24                        @ rt-thread/src/kservice.c:760:24
	ldr	r0, [sp, #24]
	.loc	1 760 38                        @ rt-thread/src/kservice.c:760:38
	cmp	r0, #0
	it	ne
	movne	r0, #1
	str	r0, [sp, #4]                    @ 4-byte Spill
	b	.LBB19_49
.LBB19_49:                              @   in Loop: Header=BB19_47 Depth=1
	.loc	1 0 0                           @ rt-thread/src/kservice.c:0:0
	ldr	r0, [sp, #4]                    @ 4-byte Reload
	.loc	1 760 5                         @ rt-thread/src/kservice.c:760:5
	lsls	r0, r0, #31
	cbz	r0, .LBB19_53
	b	.LBB19_50
.LBB19_50:                              @   in Loop: Header=BB19_47 Depth=1
.Ltmp352:
	.loc	1 762 13 is_stmt 1              @ rt-thread/src/kservice.c:762:13
	ldr	r0, [sp, #60]
	.loc	1 762 19 is_stmt 0              @ rt-thread/src/kservice.c:762:19
	ldr	r1, [sp, #56]
.Ltmp353:
	.loc	1 762 13                        @ rt-thread/src/kservice.c:762:13
	cmp	r0, r1
	bhs	.LBB19_52
	b	.LBB19_51
.LBB19_51:                              @   in Loop: Header=BB19_47 Depth=1
.Ltmp354:
	.loc	1 763 24 is_stmt 1              @ rt-thread/src/kservice.c:763:24
	ldr	r1, [sp, #16]
	add.w	r0, sp, #30
	.loc	1 763 20 is_stmt 0              @ rt-thread/src/kservice.c:763:20
	ldrb	r0, [r0, r1]
	.loc	1 763 14                        @ rt-thread/src/kservice.c:763:14
	ldr	r1, [sp, #60]
	.loc	1 763 18                        @ rt-thread/src/kservice.c:763:18
	strb	r0, [r1]
	.loc	1 763 13                        @ rt-thread/src/kservice.c:763:13
	b	.LBB19_52
.Ltmp355:
.LBB19_52:                              @   in Loop: Header=BB19_47 Depth=1
	.loc	1 764 9 is_stmt 1               @ rt-thread/src/kservice.c:764:9
	ldr	r0, [sp, #60]
	adds	r0, #1
	str	r0, [sp, #60]
.Ltmp356:
	.loc	1 760 5                         @ rt-thread/src/kservice.c:760:5
	b	.LBB19_47
.LBB19_53:
	.loc	1 767 5                         @ rt-thread/src/kservice.c:767:5
	b	.LBB19_54
.LBB19_54:                              @ =>This Inner Loop Header: Depth=1
	.loc	1 767 16 is_stmt 0              @ rt-thread/src/kservice.c:767:16
	ldr	r0, [sp, #12]
	subs	r1, r0, #1
	str	r1, [sp, #12]
	.loc	1 767 5                         @ rt-thread/src/kservice.c:767:5
	cmp	r0, #1
	blt	.LBB19_58
	b	.LBB19_55
.LBB19_55:                              @   in Loop: Header=BB19_54 Depth=1
.Ltmp357:
	.loc	1 769 13 is_stmt 1              @ rt-thread/src/kservice.c:769:13
	ldr	r0, [sp, #60]
	.loc	1 769 19 is_stmt 0              @ rt-thread/src/kservice.c:769:19
	ldr	r1, [sp, #56]
.Ltmp358:
	.loc	1 769 13                        @ rt-thread/src/kservice.c:769:13
	cmp	r0, r1
	bhs	.LBB19_57
	b	.LBB19_56
.LBB19_56:                              @   in Loop: Header=BB19_54 Depth=1
.Ltmp359:
	.loc	1 770 14 is_stmt 1              @ rt-thread/src/kservice.c:770:14
	ldr	r1, [sp, #60]
	movs	r0, #32
	.loc	1 770 18 is_stmt 0              @ rt-thread/src/kservice.c:770:18
	strb	r0, [r1]
	.loc	1 770 13                        @ rt-thread/src/kservice.c:770:13
	b	.LBB19_57
.Ltmp360:
.LBB19_57:                              @   in Loop: Header=BB19_54 Depth=1
	.loc	1 771 9 is_stmt 1               @ rt-thread/src/kservice.c:771:9
	ldr	r0, [sp, #60]
	adds	r0, #1
	str	r0, [sp, #60]
.Ltmp361:
	.loc	1 767 5                         @ rt-thread/src/kservice.c:767:5
	b	.LBB19_54
.LBB19_58:
	.loc	1 774 12                        @ rt-thread/src/kservice.c:774:12
	ldr	r0, [sp, #60]
	.loc	1 774 5 is_stmt 0               @ rt-thread/src/kservice.c:774:5
	add	sp, #64
	pop	{r7, pc}
.Ltmp362:
.Lfunc_end19:
	.size	print_number, .Lfunc_end19-print_number
	.cfi_endproc
	.cantunwind
	.fnend
                                        @ -- End function
	.section	.text.rt_snprintf,"ax",%progbits
	.hidden	rt_snprintf                     @ -- Begin function rt_snprintf
	.globl	rt_snprintf
	.p2align	3
	.type	rt_snprintf,%function
	.code	16                              @ @rt_snprintf
	.thumb_func
rt_snprintf:
.Lfunc_begin20:
	.loc	1 1051 0 is_stmt 1              @ rt-thread/src/kservice.c:1051:0
	.fnstart
	.cfi_startproc
@ %bb.0:
	.pad	#4
	sub	sp, #4
	.cfi_def_cfa_offset 4
	.save	{r7, lr}
	push	{r7, lr}
	.cfi_def_cfa_offset 12
	.cfi_offset lr, -8
	.cfi_offset r7, -12
	.pad	#20
	sub	sp, #20
	.cfi_def_cfa_offset 32
	str	r3, [sp, #28]
	str	r0, [sp, #16]
	str	r1, [sp, #12]
	str	r2, [sp, #8]
	add	r0, sp, #28
.Ltmp363:
	.loc	1 1055 5 prologue_end           @ rt-thread/src/kservice.c:1055:5
	str	r0, [sp]
	.loc	1 1056 22                       @ rt-thread/src/kservice.c:1056:22
	ldr	r0, [sp, #16]
	.loc	1 1056 27 is_stmt 0             @ rt-thread/src/kservice.c:1056:27
	ldr	r1, [sp, #12]
	.loc	1 1056 33                       @ rt-thread/src/kservice.c:1056:33
	ldr	r2, [sp, #8]
	.loc	1 1056 9                        @ rt-thread/src/kservice.c:1056:9
	ldr	r3, [sp]
	bl	rt_vsnprintf
	.loc	1 1056 7                        @ rt-thread/src/kservice.c:1056:7
	str	r0, [sp, #4]
	.loc	1 1059 12 is_stmt 1             @ rt-thread/src/kservice.c:1059:12
	ldr	r0, [sp, #4]
	.loc	1 1059 5 is_stmt 0              @ rt-thread/src/kservice.c:1059:5
	add	sp, #20
	pop.w	{r7, lr}
	add	sp, #4
	bx	lr
.Ltmp364:
.Lfunc_end20:
	.size	rt_snprintf, .Lfunc_end20-rt_snprintf
	.cfi_endproc
	.cantunwind
	.fnend
                                        @ -- End function
	.section	.text.rt_vsprintf,"ax",%progbits
	.hidden	rt_vsprintf                     @ -- Begin function rt_vsprintf
	.globl	rt_vsprintf
	.p2align	3
	.type	rt_vsprintf,%function
	.code	16                              @ @rt_vsprintf
	.thumb_func
rt_vsprintf:
.Lfunc_begin21:
	.loc	1 1071 0 is_stmt 1              @ rt-thread/src/kservice.c:1071:0
	.fnstart
	.cfi_startproc
@ %bb.0:
	.save	{r7, lr}
	push	{r7, lr}
	.cfi_def_cfa_offset 8
	.cfi_offset lr, -4
	.cfi_offset r7, -8
	.pad	#16
	sub	sp, #16
	.cfi_def_cfa_offset 24
	str	r2, [sp, #12]
	str	r0, [sp, #8]
	str	r1, [sp, #4]
.Ltmp365:
	.loc	1 1072 25 prologue_end          @ rt-thread/src/kservice.c:1072:25
	ldr	r0, [sp, #8]
	.loc	1 1072 47 is_stmt 0             @ rt-thread/src/kservice.c:1072:47
	ldr	r2, [sp, #4]
	.loc	1 1072 12                       @ rt-thread/src/kservice.c:1072:12
	ldr	r3, [sp, #12]
	mov.w	r1, #-1
	bl	rt_vsnprintf
	.loc	1 1072 5                        @ rt-thread/src/kservice.c:1072:5
	add	sp, #16
	pop	{r7, pc}
.Ltmp366:
.Lfunc_end21:
	.size	rt_vsprintf, .Lfunc_end21-rt_vsprintf
	.cfi_endproc
	.cantunwind
	.fnend
                                        @ -- End function
	.section	.text.rt_sprintf,"ax",%progbits
	.hidden	rt_sprintf                      @ -- Begin function rt_sprintf
	.globl	rt_sprintf
	.p2align	3
	.type	rt_sprintf,%function
	.code	16                              @ @rt_sprintf
	.thumb_func
rt_sprintf:
.Lfunc_begin22:
	.loc	1 1083 0 is_stmt 1              @ rt-thread/src/kservice.c:1083:0
	.fnstart
	.cfi_startproc
@ %bb.0:
	.pad	#8
	sub	sp, #8
	.cfi_def_cfa_offset 8
	.save	{r7, lr}
	push	{r7, lr}
	.cfi_def_cfa_offset 16
	.cfi_offset lr, -12
	.cfi_offset r7, -16
	.pad	#16
	sub	sp, #16
	.cfi_def_cfa_offset 32
	str	r3, [sp, #28]
	str	r2, [sp, #24]
	str	r0, [sp, #12]
	str	r1, [sp, #8]
	add	r0, sp, #24
.Ltmp367:
	.loc	1 1087 5 prologue_end           @ rt-thread/src/kservice.c:1087:5
	str	r0, [sp]
	.loc	1 1088 21                       @ rt-thread/src/kservice.c:1088:21
	ldr	r0, [sp, #12]
	.loc	1 1088 26 is_stmt 0             @ rt-thread/src/kservice.c:1088:26
	ldr	r1, [sp, #8]
	.loc	1 1088 9                        @ rt-thread/src/kservice.c:1088:9
	ldr	r2, [sp]
	bl	rt_vsprintf
	.loc	1 1088 7                        @ rt-thread/src/kservice.c:1088:7
	str	r0, [sp, #4]
	.loc	1 1091 12 is_stmt 1             @ rt-thread/src/kservice.c:1091:12
	ldr	r0, [sp, #4]
	.loc	1 1091 5 is_stmt 0              @ rt-thread/src/kservice.c:1091:5
	add	sp, #16
	pop.w	{r7, lr}
	add	sp, #8
	bx	lr
.Ltmp368:
.Lfunc_end22:
	.size	rt_sprintf, .Lfunc_end22-rt_sprintf
	.cfi_endproc
	.cantunwind
	.fnend
                                        @ -- End function
	.section	.text.rt_console_get_device,"ax",%progbits
	.hidden	rt_console_get_device           @ -- Begin function rt_console_get_device
	.globl	rt_console_get_device
	.p2align	3
	.type	rt_console_get_device,%function
	.code	16                              @ @rt_console_get_device
	.thumb_func
rt_console_get_device:
.Lfunc_begin23:
	.loc	1 1104 0 is_stmt 1              @ rt-thread/src/kservice.c:1104:0
	.fnstart
	.cfi_startproc
@ %bb.0:
	.loc	1 1105 12 prologue_end          @ rt-thread/src/kservice.c:1105:12
	movw	r0, :lower16:_console_device
	movt	r0, :upper16:_console_device
	ldr	r0, [r0]
	.loc	1 1105 5 is_stmt 0              @ rt-thread/src/kservice.c:1105:5
	bx	lr
.Ltmp369:
.Lfunc_end23:
	.size	rt_console_get_device, .Lfunc_end23-rt_console_get_device
	.cfi_endproc
	.cantunwind
	.fnend
                                        @ -- End function
	.section	.text.rt_console_set_device,"ax",%progbits
	.hidden	rt_console_set_device           @ -- Begin function rt_console_set_device
	.globl	rt_console_set_device
	.p2align	3
	.type	rt_console_set_device,%function
	.code	16                              @ @rt_console_set_device
	.thumb_func
rt_console_set_device:
.Lfunc_begin24:
	.loc	1 1119 0 is_stmt 1              @ rt-thread/src/kservice.c:1119:0
	.fnstart
	.cfi_startproc
@ %bb.0:
	.save	{r7, lr}
	push	{r7, lr}
	.cfi_def_cfa_offset 8
	.cfi_offset lr, -4
	.cfi_offset r7, -8
	.pad	#16
	sub	sp, #16
	.cfi_def_cfa_offset 24
	str	r0, [sp, #12]
.Ltmp370:
	.loc	1 1123 18 prologue_end          @ rt-thread/src/kservice.c:1123:18
	movw	r0, :lower16:_console_device
	movt	r0, :upper16:_console_device
	ldr	r0, [r0]
	.loc	1 1123 16 is_stmt 0             @ rt-thread/src/kservice.c:1123:16
	str	r0, [sp, #4]
	.loc	1 1126 33 is_stmt 1             @ rt-thread/src/kservice.c:1126:33
	ldr	r0, [sp, #12]
	.loc	1 1126 18 is_stmt 0             @ rt-thread/src/kservice.c:1126:18
	bl	rt_device_find
	.loc	1 1126 16                       @ rt-thread/src/kservice.c:1126:16
	str	r0, [sp, #8]
.Ltmp371:
	.loc	1 1127 9 is_stmt 1              @ rt-thread/src/kservice.c:1127:9
	ldr	r0, [sp, #8]
.Ltmp372:
	.loc	1 1127 9 is_stmt 0              @ rt-thread/src/kservice.c:1127:9
	cbz	r0, .LBB24_4
	b	.LBB24_1
.LBB24_1:
.Ltmp373:
	.loc	1 1129 13 is_stmt 1             @ rt-thread/src/kservice.c:1129:13
	movw	r0, :lower16:_console_device
	movt	r0, :upper16:_console_device
	ldr	r0, [r0]
.Ltmp374:
	.loc	1 1129 13 is_stmt 0             @ rt-thread/src/kservice.c:1129:13
	cbz	r0, .LBB24_3
	b	.LBB24_2
.LBB24_2:
.Ltmp375:
	.loc	1 1132 29 is_stmt 1             @ rt-thread/src/kservice.c:1132:29
	movw	r0, :lower16:_console_device
	movt	r0, :upper16:_console_device
	ldr	r0, [r0]
	.loc	1 1132 13 is_stmt 0             @ rt-thread/src/kservice.c:1132:13
	bl	rt_device_close
	.loc	1 1133 9 is_stmt 1              @ rt-thread/src/kservice.c:1133:9
	b	.LBB24_3
.Ltmp376:
.LBB24_3:
	.loc	1 1136 24                       @ rt-thread/src/kservice.c:1136:24
	ldr	r0, [sp, #8]
	movs	r1, #67
	.loc	1 1136 9 is_stmt 0              @ rt-thread/src/kservice.c:1136:9
	bl	rt_device_open
	.loc	1 1137 27 is_stmt 1             @ rt-thread/src/kservice.c:1137:27
	ldr	r0, [sp, #8]
	.loc	1 1137 25 is_stmt 0             @ rt-thread/src/kservice.c:1137:25
	movw	r1, :lower16:_console_device
	movt	r1, :upper16:_console_device
	str	r0, [r1]
	.loc	1 1138 5 is_stmt 1              @ rt-thread/src/kservice.c:1138:5
	b	.LBB24_4
.Ltmp377:
.LBB24_4:
	.loc	1 1140 12                       @ rt-thread/src/kservice.c:1140:12
	ldr	r0, [sp, #4]
	.loc	1 1140 5 is_stmt 0              @ rt-thread/src/kservice.c:1140:5
	add	sp, #16
	pop	{r7, pc}
.Ltmp378:
.Lfunc_end24:
	.size	rt_console_set_device, .Lfunc_end24-rt_console_set_device
	.cfi_endproc
	.cantunwind
	.fnend
                                        @ -- End function
	.section	.text.rt_hw_console_output,"ax",%progbits
	.hidden	rt_hw_console_output            @ -- Begin function rt_hw_console_output
	.weak	rt_hw_console_output
	.p2align	3
	.type	rt_hw_console_output,%function
	.code	16                              @ @rt_hw_console_output
	.thumb_func
rt_hw_console_output:
.Lfunc_begin25:
	.loc	1 1146 0 is_stmt 1              @ rt-thread/src/kservice.c:1146:0
	.fnstart
	.cfi_startproc
@ %bb.0:
	.pad	#4
	sub	sp, #4
	.cfi_def_cfa_offset 4
	str	r0, [sp]
.Ltmp379:
	.loc	1 1148 1 prologue_end           @ rt-thread/src/kservice.c:1148:1
	add	sp, #4
	bx	lr
.Ltmp380:
.Lfunc_end25:
	.size	rt_hw_console_output, .Lfunc_end25-rt_hw_console_output
	.cfi_endproc
	.cantunwind
	.fnend
                                        @ -- End function
	.section	.text.rt_kputs,"ax",%progbits
	.hidden	rt_kputs                        @ -- Begin function rt_kputs
	.globl	rt_kputs
	.p2align	3
	.type	rt_kputs,%function
	.code	16                              @ @rt_kputs
	.thumb_func
rt_kputs:
.Lfunc_begin26:
	.loc	1 1157 0                        @ rt-thread/src/kservice.c:1157:0
	.fnstart
	.cfi_startproc
@ %bb.0:
	.save	{r7, lr}
	push	{r7, lr}
	.cfi_def_cfa_offset 8
	.cfi_offset lr, -4
	.cfi_offset r7, -8
	.pad	#24
	sub	sp, #24
	.cfi_def_cfa_offset 32
	str	r0, [sp, #20]
.Ltmp381:
	.loc	1 1158 10 prologue_end          @ rt-thread/src/kservice.c:1158:10
	ldr	r0, [sp, #20]
.Ltmp382:
	.loc	1 1158 9 is_stmt 0              @ rt-thread/src/kservice.c:1158:9
	cbnz	r0, .LBB26_2
	b	.LBB26_1
.LBB26_1:
.Ltmp383:
	.loc	1 1158 15                       @ rt-thread/src/kservice.c:1158:15
	b	.LBB26_5
.Ltmp384:
.LBB26_2:
	.loc	1 1161 9 is_stmt 1              @ rt-thread/src/kservice.c:1161:9
	movw	r0, :lower16:_console_device
	movt	r0, :upper16:_console_device
	ldr	r0, [r0]
.Ltmp385:
	.loc	1 1161 9 is_stmt 0              @ rt-thread/src/kservice.c:1161:9
	cbnz	r0, .LBB26_4
	b	.LBB26_3
.LBB26_3:
.Ltmp386:
	.loc	1 1163 30 is_stmt 1             @ rt-thread/src/kservice.c:1163:30
	ldr	r0, [sp, #20]
	.loc	1 1163 9 is_stmt 0              @ rt-thread/src/kservice.c:1163:9
	bl	rt_hw_console_output
	.loc	1 1164 5 is_stmt 1              @ rt-thread/src/kservice.c:1164:5
	b	.LBB26_5
.Ltmp387:
.LBB26_4:
	.loc	1 1167 32                       @ rt-thread/src/kservice.c:1167:32
	movw	r0, :lower16:_console_device
	movt	r0, :upper16:_console_device
	str	r0, [sp, #12]                   @ 4-byte Spill
	ldr	r1, [r0]
	.loc	1 1167 49 is_stmt 0             @ rt-thread/src/kservice.c:1167:49
	ldrh	r1, [r1, #24]
	.loc	1 1167 21                       @ rt-thread/src/kservice.c:1167:21
	strh.w	r1, [sp, #18]
	.loc	1 1169 9 is_stmt 1              @ rt-thread/src/kservice.c:1169:9
	ldr	r2, [r0]
	.loc	1 1169 36 is_stmt 0             @ rt-thread/src/kservice.c:1169:36
	ldrh	r1, [r2, #24]
	orr	r1, r1, #64
	strh	r1, [r2, #24]
	.loc	1 1170 25 is_stmt 1             @ rt-thread/src/kservice.c:1170:25
	ldr	r0, [r0]
	.loc	1 1170 45 is_stmt 0             @ rt-thread/src/kservice.c:1170:45
	str	r0, [sp, #8]                    @ 4-byte Spill
	ldr	r0, [sp, #20]
	.loc	1 1170 50                       @ rt-thread/src/kservice.c:1170:50
	str	r0, [sp, #4]                    @ 4-byte Spill
	bl	rt_strlen
	ldr	r2, [sp, #4]                    @ 4-byte Reload
	mov	r3, r0
	.loc	1 1170 9                        @ rt-thread/src/kservice.c:1170:9
	ldr	r0, [sp, #8]                    @ 4-byte Reload
	movs	r1, #0
	bl	rt_device_write
	ldr	r1, [sp, #12]                   @ 4-byte Reload
	.loc	1 1171 38 is_stmt 1             @ rt-thread/src/kservice.c:1171:38
	ldrh.w	r0, [sp, #18]
	.loc	1 1171 9 is_stmt 0              @ rt-thread/src/kservice.c:1171:9
	ldr	r1, [r1]
	.loc	1 1171 36                       @ rt-thread/src/kservice.c:1171:36
	strh	r0, [r1, #24]
	b	.LBB26_5
.Ltmp388:
.LBB26_5:
	.loc	1 1176 1 is_stmt 1              @ rt-thread/src/kservice.c:1176:1
	add	sp, #24
	pop	{r7, pc}
.Ltmp389:
.Lfunc_end26:
	.size	rt_kputs, .Lfunc_end26-rt_kputs
	.cfi_endproc
	.cantunwind
	.fnend
                                        @ -- End function
	.section	.text.rt_malloc_align,"ax",%progbits
	.hidden	rt_malloc_align                 @ -- Begin function rt_malloc_align
	.globl	rt_malloc_align
	.p2align	3
	.type	rt_malloc_align,%function
	.code	16                              @ @rt_malloc_align
	.thumb_func
rt_malloc_align:
.Lfunc_begin27:
	.loc	1 1230 0                        @ rt-thread/src/kservice.c:1230:0
	.fnstart
	.cfi_startproc
@ %bb.0:
	.save	{r7, lr}
	push	{r7, lr}
	.cfi_def_cfa_offset 8
	.cfi_offset lr, -4
	.cfi_offset r7, -8
	.pad	#24
	sub	sp, #24
	.cfi_def_cfa_offset 32
	str	r0, [sp, #20]
	str	r1, [sp, #16]
	movs	r0, #4
.Ltmp390:
	.loc	1 1237 18 prologue_end          @ rt-thread/src/kservice.c:1237:18
	str	r0, [sp, #4]
	.loc	1 1238 18                       @ rt-thread/src/kservice.c:1238:18
	ldr	r0, [sp, #4]
	subs	r0, #1
	str	r0, [sp, #4]
	.loc	1 1241 15                       @ rt-thread/src/kservice.c:1241:15
	ldr	r0, [sp, #16]
	.loc	1 1241 23 is_stmt 0             @ rt-thread/src/kservice.c:1241:23
	ldr	r1, [sp, #4]
	.loc	1 1241 21                       @ rt-thread/src/kservice.c:1241:21
	add	r0, r1
	.loc	1 1241 37                       @ rt-thread/src/kservice.c:1241:37
	bics	r0, r1
	.loc	1 1241 11                       @ rt-thread/src/kservice.c:1241:11
	str	r0, [sp, #16]
	.loc	1 1244 20 is_stmt 1             @ rt-thread/src/kservice.c:1244:20
	ldr	r0, [sp, #20]
	.loc	1 1244 27 is_stmt 0             @ rt-thread/src/kservice.c:1244:27
	ldr	r1, [sp, #4]
	.loc	1 1244 25                       @ rt-thread/src/kservice.c:1244:25
	add	r0, r1
	.loc	1 1244 41                       @ rt-thread/src/kservice.c:1244:41
	bics	r0, r1
	.loc	1 1244 60                       @ rt-thread/src/kservice.c:1244:60
	ldr	r1, [sp, #16]
	.loc	1 1244 58                       @ rt-thread/src/kservice.c:1244:58
	add	r0, r1
	.loc	1 1244 16                       @ rt-thread/src/kservice.c:1244:16
	str	r0, [sp]
	.loc	1 1246 21 is_stmt 1             @ rt-thread/src/kservice.c:1246:21
	ldr	r0, [sp]
	.loc	1 1246 11 is_stmt 0             @ rt-thread/src/kservice.c:1246:11
	bl	rt_malloc
	.loc	1 1246 9                        @ rt-thread/src/kservice.c:1246:9
	str	r0, [sp, #12]
.Ltmp391:
	.loc	1 1247 9 is_stmt 1              @ rt-thread/src/kservice.c:1247:9
	ldr	r0, [sp, #12]
.Ltmp392:
	.loc	1 1247 9 is_stmt 0              @ rt-thread/src/kservice.c:1247:9
	cbz	r0, .LBB27_5
	b	.LBB27_1
.LBB27_1:
.Ltmp393:
	.loc	1 1250 26 is_stmt 1             @ rt-thread/src/kservice.c:1250:26
	ldr	r0, [sp, #12]
	.loc	1 1250 33 is_stmt 0             @ rt-thread/src/kservice.c:1250:33
	ldr	r1, [sp, #16]
	.loc	1 1250 39                       @ rt-thread/src/kservice.c:1250:39
	subs	r1, #1
.Ltmp394:
	.loc	1 1250 13                       @ rt-thread/src/kservice.c:1250:13
	tst	r0, r1
	bne	.LBB27_3
	b	.LBB27_2
.LBB27_2:
.Ltmp395:
	.loc	1 1252 46 is_stmt 1             @ rt-thread/src/kservice.c:1252:46
	ldr	r0, [sp, #12]
	.loc	1 1252 52 is_stmt 0             @ rt-thread/src/kservice.c:1252:52
	ldr	r1, [sp, #16]
	.loc	1 1252 50                       @ rt-thread/src/kservice.c:1252:50
	add	r0, r1
	.loc	1 1252 23                       @ rt-thread/src/kservice.c:1252:23
	str	r0, [sp, #8]
	.loc	1 1253 9 is_stmt 1              @ rt-thread/src/kservice.c:1253:9
	b	.LBB27_4
.Ltmp396:
.LBB27_3:
	.loc	1 1256 47                       @ rt-thread/src/kservice.c:1256:47
	ldr	r0, [sp, #12]
	.loc	1 1256 54 is_stmt 0             @ rt-thread/src/kservice.c:1256:54
	ldr	r1, [sp, #16]
	.loc	1 1256 60                       @ rt-thread/src/kservice.c:1256:60
	add	r0, r1
	.loc	1 1256 51                       @ rt-thread/src/kservice.c:1256:51
	subs	r0, #1
	.loc	1 1256 68                       @ rt-thread/src/kservice.c:1256:68
	rsbs	r1, r1, #0
	.loc	1 1256 66                       @ rt-thread/src/kservice.c:1256:66
	ands	r0, r1
	.loc	1 1256 23                       @ rt-thread/src/kservice.c:1256:23
	str	r0, [sp, #8]
	b	.LBB27_4
.Ltmp397:
.LBB27_4:
	.loc	1 1260 81 is_stmt 1             @ rt-thread/src/kservice.c:1260:81
	ldr	r0, [sp, #12]
	.loc	1 1260 38 is_stmt 0             @ rt-thread/src/kservice.c:1260:38
	ldr	r1, [sp, #8]
	.loc	1 1260 67                       @ rt-thread/src/kservice.c:1260:67
	str	r0, [r1, #-4]
	.loc	1 1262 15 is_stmt 1             @ rt-thread/src/kservice.c:1262:15
	ldr	r0, [sp, #8]
	.loc	1 1262 13 is_stmt 0             @ rt-thread/src/kservice.c:1262:13
	str	r0, [sp, #12]
	.loc	1 1263 5 is_stmt 1              @ rt-thread/src/kservice.c:1263:5
	b	.LBB27_5
.Ltmp398:
.LBB27_5:
	.loc	1 1265 12                       @ rt-thread/src/kservice.c:1265:12
	ldr	r0, [sp, #12]
	.loc	1 1265 5 is_stmt 0              @ rt-thread/src/kservice.c:1265:5
	add	sp, #24
	pop	{r7, pc}
.Ltmp399:
.Lfunc_end27:
	.size	rt_malloc_align, .Lfunc_end27-rt_malloc_align
	.cfi_endproc
	.cantunwind
	.fnend
                                        @ -- End function
	.section	.text.rt_free_align,"ax",%progbits
	.hidden	rt_free_align                   @ -- Begin function rt_free_align
	.globl	rt_free_align
	.p2align	3
	.type	rt_free_align,%function
	.code	16                              @ @rt_free_align
	.thumb_func
rt_free_align:
.Lfunc_begin28:
	.loc	1 1276 0 is_stmt 1              @ rt-thread/src/kservice.c:1276:0
	.fnstart
	.cfi_startproc
@ %bb.0:
	.save	{r7, lr}
	push	{r7, lr}
	.cfi_def_cfa_offset 8
	.cfi_offset lr, -4
	.cfi_offset r7, -8
	.pad	#8
	sub	sp, #8
	.cfi_def_cfa_offset 16
	str	r0, [sp, #4]
.Ltmp400:
	.loc	1 1279 54 prologue_end          @ rt-thread/src/kservice.c:1279:54
	ldr	r0, [sp, #4]
	.loc	1 1279 25 is_stmt 0             @ rt-thread/src/kservice.c:1279:25
	ldr	r0, [r0, #-4]
	.loc	1 1279 14                       @ rt-thread/src/kservice.c:1279:14
	str	r0, [sp]
	.loc	1 1280 13 is_stmt 1             @ rt-thread/src/kservice.c:1280:13
	ldr	r0, [sp]
	.loc	1 1280 5 is_stmt 0              @ rt-thread/src/kservice.c:1280:5
	bl	rt_free
	.loc	1 1281 1 is_stmt 1              @ rt-thread/src/kservice.c:1281:1
	add	sp, #8
	pop	{r7, pc}
.Ltmp401:
.Lfunc_end28:
	.size	rt_free_align, .Lfunc_end28-rt_free_align
	.cfi_endproc
	.cantunwind
	.fnend
                                        @ -- End function
	.section	.text.rt_assert_set_hook,"ax",%progbits
	.hidden	rt_assert_set_hook              @ -- Begin function rt_assert_set_hook
	.globl	rt_assert_set_hook
	.p2align	3
	.type	rt_assert_set_hook,%function
	.code	16                              @ @rt_assert_set_hook
	.thumb_func
rt_assert_set_hook:
.Lfunc_begin29:
	.loc	1 1344 0                        @ rt-thread/src/kservice.c:1344:0
	.fnstart
	.cfi_startproc
@ %bb.0:
	.pad	#4
	sub	sp, #4
	.cfi_def_cfa_offset 4
	str	r0, [sp]
.Ltmp402:
	.loc	1 1345 22 prologue_end          @ rt-thread/src/kservice.c:1345:22
	ldr	r0, [sp]
	.loc	1 1345 20 is_stmt 0             @ rt-thread/src/kservice.c:1345:20
	movw	r1, :lower16:rt_assert_hook
	movt	r1, :upper16:rt_assert_hook
	str	r0, [r1]
	.loc	1 1346 1 is_stmt 1              @ rt-thread/src/kservice.c:1346:1
	add	sp, #4
	bx	lr
.Ltmp403:
.Lfunc_end29:
	.size	rt_assert_set_hook, .Lfunc_end29-rt_assert_set_hook
	.cfi_endproc
	.cantunwind
	.fnend
                                        @ -- End function
	.section	.text.rt_assert_handler,"ax",%progbits
	.hidden	rt_assert_handler               @ -- Begin function rt_assert_handler
	.globl	rt_assert_handler
	.p2align	3
	.type	rt_assert_handler,%function
	.code	16                              @ @rt_assert_handler
	.thumb_func
rt_assert_handler:
.Lfunc_begin30:
	.loc	1 1356 0                        @ rt-thread/src/kservice.c:1356:0
	.fnstart
	.cfi_startproc
@ %bb.0:
	.save	{r7, lr}
	push	{r7, lr}
	.cfi_def_cfa_offset 8
	.cfi_offset lr, -4
	.cfi_offset r7, -8
	.pad	#16
	sub	sp, #16
	.cfi_def_cfa_offset 24
	str	r0, [sp, #12]
	str	r1, [sp, #8]
	str	r2, [sp, #4]
	movs	r0, #0
.Ltmp404:
	.loc	1 1357 19 prologue_end          @ rt-thread/src/kservice.c:1357:19
	strb.w	r0, [sp, #3]
.Ltmp405:
	.loc	1 1359 9                        @ rt-thread/src/kservice.c:1359:9
	movw	r0, :lower16:rt_assert_hook
	movt	r0, :upper16:rt_assert_hook
	ldr	r0, [r0]
.Ltmp406:
	.loc	1 1359 9 is_stmt 0              @ rt-thread/src/kservice.c:1359:9
	cbnz	r0, .LBB30_2
	b	.LBB30_1
.LBB30_1:
.Ltmp407:
	.loc	1 1373 5 is_stmt 1              @ rt-thread/src/kservice.c:1373:5
	b	.LBB30_3
.Ltmp408:
.LBB30_2:
	.loc	1 1376 9                        @ rt-thread/src/kservice.c:1376:9
	movw	r0, :lower16:rt_assert_hook
	movt	r0, :upper16:rt_assert_hook
	ldr	r3, [r0]
	.loc	1 1376 24 is_stmt 0             @ rt-thread/src/kservice.c:1376:24
	ldr	r0, [sp, #12]
	.loc	1 1376 35                       @ rt-thread/src/kservice.c:1376:35
	ldr	r1, [sp, #8]
	.loc	1 1376 41                       @ rt-thread/src/kservice.c:1376:41
	ldr	r2, [sp, #4]
	.loc	1 1376 9                        @ rt-thread/src/kservice.c:1376:9
	blx	r3
	b	.LBB30_3
.Ltmp409:
.LBB30_3:
	.loc	1 1378 1 is_stmt 1              @ rt-thread/src/kservice.c:1378:1
	add	sp, #16
	pop	{r7, pc}
.Ltmp410:
.Lfunc_end30:
	.size	rt_assert_handler, .Lfunc_end30-rt_assert_handler
	.cfi_endproc
	.cantunwind
	.fnend
                                        @ -- End function
	.section	.text.divide,"ax",%progbits
	.p2align	3                               @ -- Begin function divide
	.type	divide,%function
	.code	16                              @ @divide
	.thumb_func
divide:
.Lfunc_begin31:
	.loc	1 569 0                         @ rt-thread/src/kservice.c:569:0
	.fnstart
	.cfi_startproc
@ %bb.0:
	.pad	#12
	sub	sp, #12
	.cfi_def_cfa_offset 12
	str	r0, [sp, #8]
	str	r1, [sp, #4]
.Ltmp411:
	.loc	1 573 9 prologue_end            @ rt-thread/src/kservice.c:573:9
	ldr	r0, [sp, #4]
.Ltmp412:
	.loc	1 573 9 is_stmt 0               @ rt-thread/src/kservice.c:573:9
	cmp	r0, #10
	bne	.LBB31_2
	b	.LBB31_1
.LBB31_1:
.Ltmp413:
	.loc	1 575 38 is_stmt 1              @ rt-thread/src/kservice.c:575:38
	ldr	r0, [sp, #8]
	.loc	1 575 37 is_stmt 0              @ rt-thread/src/kservice.c:575:37
	ldr	r0, [r0]
	movw	r2, #52429
	movt	r2, #52428
	.loc	1 575 41                        @ rt-thread/src/kservice.c:575:41
	umull	r3, r1, r0, r2
	lsrs	r1, r1, #3
	add.w	r1, r1, r1, lsl #2
	sub.w	r0, r0, r1, lsl #1
	.loc	1 575 13                        @ rt-thread/src/kservice.c:575:13
	str	r0, [sp]
	.loc	1 576 38 is_stmt 1              @ rt-thread/src/kservice.c:576:38
	ldr	r1, [sp, #8]
	.loc	1 576 37 is_stmt 0              @ rt-thread/src/kservice.c:576:37
	ldr	r0, [r1]
	.loc	1 576 41                        @ rt-thread/src/kservice.c:576:41
	umull	r2, r0, r0, r2
	lsrs	r0, r0, #3
	.loc	1 576 12                        @ rt-thread/src/kservice.c:576:12
	str	r0, [r1]
	.loc	1 577 5 is_stmt 1               @ rt-thread/src/kservice.c:577:5
	b	.LBB31_3
.Ltmp414:
.LBB31_2:
	.loc	1 580 38                        @ rt-thread/src/kservice.c:580:38
	ldr	r0, [sp, #8]
	.loc	1 580 37 is_stmt 0              @ rt-thread/src/kservice.c:580:37
	ldr	r0, [r0]
	.loc	1 580 41                        @ rt-thread/src/kservice.c:580:41
	and	r0, r0, #15
	.loc	1 580 13                        @ rt-thread/src/kservice.c:580:13
	str	r0, [sp]
	.loc	1 581 38 is_stmt 1              @ rt-thread/src/kservice.c:581:38
	ldr	r1, [sp, #8]
	.loc	1 581 37 is_stmt 0              @ rt-thread/src/kservice.c:581:37
	ldr	r0, [r1]
	.loc	1 581 41                        @ rt-thread/src/kservice.c:581:41
	lsrs	r0, r0, #4
	.loc	1 581 12                        @ rt-thread/src/kservice.c:581:12
	str	r0, [r1]
	b	.LBB31_3
.Ltmp415:
.LBB31_3:
	.loc	1 584 12 is_stmt 1              @ rt-thread/src/kservice.c:584:12
	ldr	r0, [sp]
	.loc	1 584 5 is_stmt 0               @ rt-thread/src/kservice.c:584:5
	add	sp, #12
	bx	lr
.Ltmp416:
.Lfunc_end31:
	.size	divide, .Lfunc_end31-divide
	.cfi_endproc
	.cantunwind
	.fnend
                                        @ -- End function
	.type	__rt_errno,%object              @ @__rt_errno
	.section	.bss.__rt_errno,"aw",%nobits
	.p2align	2
__rt_errno:
	.long	0                               @ 0x0
	.size	__rt_errno, 4

	.type	.L.str,%object                  @ @.str
	.section	.rodata.str1.1,"aMS",%progbits,1
.L.str:
	.asciz	"\n \\ | /\n"
	.size	.L.str, 9

	.type	.L.str.1,%object                @ @.str.1
.L.str.1:
	.asciz	"- RT -     Thread Operating System\n"
	.size	.L.str.1, 36

	.type	.L.str.2,%object                @ @.str.2
.L.str.2:
	.asciz	" / | \\     %d.%d.%d build %s\n"
	.size	.L.str.2, 30

	.type	.L.str.3,%object                @ @.str.3
.L.str.3:
	.asciz	"Dec 11 2021"
	.size	.L.str.3, 12

	.type	.L.str.4,%object                @ @.str.4
.L.str.4:
	.asciz	" 2006 - 2020 Copyright by rt-thread team\n"
	.size	.L.str.4, 42

	.type	.L.str.5,%object                @ @.str.5
.L.str.5:
	.asciz	"(NULL)"
	.size	.L.str.5, 7

	.type	_console_device,%object         @ @_console_device
	.section	.bss._console_device,"aw",%nobits
	.p2align	2
_console_device:
	.long	0
	.size	_console_device, 4

	.type	rt_kprintf.rt_log_buf,%object   @ @rt_kprintf.rt_log_buf
	.section	.bss.rt_kprintf.rt_log_buf,"aw",%nobits
rt_kprintf.rt_log_buf:
	.zero	128
	.size	rt_kprintf.rt_log_buf, 128

	.hidden	rt_assert_hook                  @ @rt_assert_hook
	.type	rt_assert_hook,%object
	.section	.bss.rt_assert_hook,"aw",%nobits
	.globl	rt_assert_hook
	.p2align	2
rt_assert_hook:
	.long	0
	.size	rt_assert_hook, 4

	.type	print_number.small_digits,%object @ @print_number.small_digits
	.section	.rodata.print_number.small_digits,"a",%progbits
print_number.small_digits:
	.asciz	"0123456789abcdef"
	.size	print_number.small_digits, 17

	.type	print_number.large_digits,%object @ @print_number.large_digits
	.section	.rodata.print_number.large_digits,"a",%progbits
print_number.large_digits:
	.asciz	"0123456789ABCDEF"
	.size	print_number.large_digits, 17

	.file	3 "E:\\Smart-access-control\\Hardware\\CODE" "rt-thread/src\\kservice.c"
	.file	4 "D:\\Keil_v5\\ARM\\ARMCLANG\\Bin\\..\\include" "stdarg.h"
	.section	".note.GNU-stack","",%progbits
	.eabi_attribute	30, 6	@ Tag_ABI_optimization_goals
	.ARM_attribute	16, 1	@ Tag_AV_eba