	.text
	.syntax unified
	.eabi_attribute	67, "2.09"	@ Tag_conformance
	.cpu	cortex-m7
	.eabi_attribute	6, 13	@ Tag_CPU_arch
	.eabi_attribute	7, 77	@ Tag_CPU_arch_profile
	.eabi_attribute	8, 0	@ Tag_ARM_ISA_use
	.eabi_attribute	9, 2	@ Tag_THUMB_ISA_use
	.fpu	fpv5-d16
	.eabi_attribute	36, 1	@ Tag_FP_HP_extension
	.eabi_attribute	34, 1	@ Tag_CPU_unaligned_access
	.eabi_attribute	17, 1	@ Tag_ABI_PCS_GOT_use
	.eabi_attribute	20, 2	@ Tag_ABI_FP_denormal
	.eabi_attribute	21, 0	@ Tag_ABI_FP_exceptions
	.eabi_attribute	23, 1	@ Tag_ABI_FP_number_model
	.eabi_attribute	24, 1	@ Tag_ABI_align_needed
	.eabi_attribute	25, 1	@ Tag_ABI_align_preserved
	.eabi_attribute	28, 1	@ Tag_ABI_VFP_args
	.eabi_attribute	38, 1	@ Tag_ABI_FP_16bit_format
	.eabi_attribute	18, 2	@ Tag_ABI_PCS_wchar_t
	.eabi_attribute	26, 1	@ Tag_ABI_enum_size
	.eabi_attribute	14, 0	@ Tag_ABI_PCS_R9_use
	.file	"lfs.c"
	.file	1 "E:\\STM32\\Learning\\STM32H750_ART_PI_RGBLCD" "./packages/littlefs-v2.0.5/lfs.h"
	.file	2 "D:\\Keil_v5\\ARM\\ARMCLANG\\Bin\\..\\include" "stdint.h"
	.file	3 "E:\\STM32\\Learning\\STM32H750_ART_PI_RGBLCD" "packages/littlefs-v2.0.5/lfs.c"
	.section	.text.lfs_mkdir,"ax",%progbits
	.hidden	lfs_mkdir                       @ -- Begin function lfs_mkdir
	.globl	lfs_mkdir
	.p2align	3
	.type	lfs_mkdir,%function
	.code	16                              @ @lfs_mkdir
	.thumb_func
lfs_mkdir:
.Lfunc_begin0:
	.loc	3 1823 0                        @ packages/littlefs-v2.0.5/lfs.c:1823:0
	.fnstart
	.cfi_sections .debug_frame
	.cfi_startproc
@ %bb.0:
	.save	{r7, lr}
	push	{r7, lr}
	.cfi_def_cfa_offset 8
	.cfi_offset lr, -4
	.cfi_offset r7, -8
	.pad	#192
	sub	sp, #192
	.cfi_def_cfa_offset 200
	str	r0, [sp, #184]
	str	r1, [sp, #180]
.Ltmp0:
	.loc	3 1825 39 prologue_end          @ packages/littlefs-v2.0.5/lfs.c:1825:39
	ldr	r0, [sp, #184]
	.loc	3 1825 15 is_stmt 0             @ packages/littlefs-v2.0.5/lfs.c:1825:15
	bl	lfs_fs_forceconsistency
	.loc	3 1825 9                        @ packages/littlefs-v2.0.5/lfs.c:1825:9
	str	r0, [sp, #176]
.Ltmp1:
	.loc	3 1826 9 is_stmt 1              @ packages/littlefs-v2.0.5/lfs.c:1826:9
	ldr	r0, [sp, #176]
.Ltmp2:
	.loc	3 1826 9 is_stmt 0              @ packages/littlefs-v2.0.5/lfs.c:1826:9
	cbz	r0, .LBB0_2
	b	.LBB0_1
.LBB0_1:
.Ltmp3:
	.loc	3 1827 16 is_stmt 1             @ packages/littlefs-v2.0.5/lfs.c:1827:16
	ldr	r0, [sp, #176]
	.loc	3 1827 9 is_stmt 0              @ packages/littlefs-v2.0.5/lfs.c:1827:9
	str	r0, [sp, #188]
	b	.LBB0_26
.Ltmp4:
.LBB0_2:
	.loc	3 1832 24 is_stmt 1             @ packages/littlefs-v2.0.5/lfs.c:1832:24
	ldr	r0, [sp, #184]
	add	r1, sp, #144
	add	r2, sp, #180
	add.w	r3, sp, #142
	.loc	3 1832 11 is_stmt 0             @ packages/littlefs-v2.0.5/lfs.c:1832:11
	bl	lfs_dir_find
	.loc	3 1832 9                        @ packages/littlefs-v2.0.5/lfs.c:1832:9
	str	r0, [sp, #176]
.Ltmp5:
	.loc	3 1833 11 is_stmt 1             @ packages/littlefs-v2.0.5/lfs.c:1833:11
	ldr	r0, [sp, #176]
	.loc	3 1833 32 is_stmt 0             @ packages/littlefs-v2.0.5/lfs.c:1833:32
	adds	r0, #2
	cbnz	r0, .LBB0_4
	b	.LBB0_3
.LBB0_3:
	.loc	3 1833 35                       @ packages/littlefs-v2.0.5/lfs.c:1833:35
	ldrh.w	r0, [sp, #142]
	movw	r1, #1023
.Ltmp6:
	.loc	3 1833 9                        @ packages/littlefs-v2.0.5/lfs.c:1833:9
	cmp	r0, r1
	bne	.LBB0_8
	b	.LBB0_4
.LBB0_4:
.Ltmp7:
	.loc	3 1834 17 is_stmt 1             @ packages/littlefs-v2.0.5/lfs.c:1834:17
	ldr	r0, [sp, #176]
	.loc	3 1834 16 is_stmt 0             @ packages/littlefs-v2.0.5/lfs.c:1834:16
	cmp.w	r0, #-1
	bgt	.LBB0_6
	b	.LBB0_5
.LBB0_5:
	.loc	3 1834 28                       @ packages/littlefs-v2.0.5/lfs.c:1834:28
	ldr	r0, [sp, #176]
	.loc	3 1834 16                       @ packages/littlefs-v2.0.5/lfs.c:1834:16
	str	r0, [sp, #20]                   @ 4-byte Spill
	b	.LBB0_7
.LBB0_6:
	.loc	3 0 16                          @ packages/littlefs-v2.0.5/lfs.c:0:16
	mvn	r0, #16
	.loc	3 1834 16                       @ packages/littlefs-v2.0.5/lfs.c:1834:16
	str	r0, [sp, #20]                   @ 4-byte Spill
	b	.LBB0_7
.LBB0_7:
	ldr	r0, [sp, #20]                   @ 4-byte Reload
	.loc	3 1834 9                        @ packages/littlefs-v2.0.5/lfs.c:1834:9
	str	r0, [sp, #188]
	b	.LBB0_26
.Ltmp8:
.LBB0_8:
	.loc	3 1838 30 is_stmt 1             @ packages/littlefs-v2.0.5/lfs.c:1838:30
	ldr	r0, [sp, #180]
	.loc	3 1838 23 is_stmt 0             @ packages/littlefs-v2.0.5/lfs.c:1838:23
	bl	strlen
	.loc	3 1838 16                       @ packages/littlefs-v2.0.5/lfs.c:1838:16
	str	r0, [sp, #136]
.Ltmp9:
	.loc	3 1839 9 is_stmt 1              @ packages/littlefs-v2.0.5/lfs.c:1839:9
	ldr	r0, [sp, #136]
	.loc	3 1839 16 is_stmt 0             @ packages/littlefs-v2.0.5/lfs.c:1839:16
	ldr	r1, [sp, #184]
	.loc	3 1839 21                       @ packages/littlefs-v2.0.5/lfs.c:1839:21
	ldr	r1, [r1, #108]
.Ltmp10:
	.loc	3 1839 9                        @ packages/littlefs-v2.0.5/lfs.c:1839:9
	cmp	r0, r1
	bls	.LBB0_10
	b	.LBB0_9
.LBB0_9:
	.loc	3 0 9                           @ packages/littlefs-v2.0.5/lfs.c:0:9
	mvn	r0, #35
.Ltmp11:
	.loc	3 1840 9 is_stmt 1              @ packages/littlefs-v2.0.5/lfs.c:1840:9
	str	r0, [sp, #188]
	b	.LBB0_26
.Ltmp12:
.LBB0_10:
	.loc	3 1844 19                       @ packages/littlefs-v2.0.5/lfs.c:1844:19
	ldr	r0, [sp, #184]
	.loc	3 1844 5 is_stmt 0              @ packages/littlefs-v2.0.5/lfs.c:1844:5
	bl	lfs_alloc_ack
	.loc	3 1846 25 is_stmt 1             @ packages/littlefs-v2.0.5/lfs.c:1846:25
	ldr	r0, [sp, #184]
	add	r1, sp, #104
	.loc	3 1846 11 is_stmt 0             @ packages/littlefs-v2.0.5/lfs.c:1846:11
	bl	lfs_dir_alloc
	.loc	3 1846 9                        @ packages/littlefs-v2.0.5/lfs.c:1846:9
	str	r0, [sp, #176]
.Ltmp13:
	.loc	3 1847 9 is_stmt 1              @ packages/littlefs-v2.0.5/lfs.c:1847:9
	ldr	r0, [sp, #176]
.Ltmp14:
	.loc	3 1847 9 is_stmt 0              @ packages/littlefs-v2.0.5/lfs.c:1847:9
	cbz	r0, .LBB0_12
	b	.LBB0_11
.LBB0_11:
.Ltmp15:
	.loc	3 1848 16 is_stmt 1             @ packages/littlefs-v2.0.5/lfs.c:1848:16
	ldr	r0, [sp, #176]
	.loc	3 1848 9 is_stmt 0              @ packages/littlefs-v2.0.5/lfs.c:1848:9
	str	r0, [sp, #188]
	b	.LBB0_26
.Ltmp16:
.LBB0_12:
	.loc	3 1852 23 is_stmt 1             @ packages/littlefs-v2.0.5/lfs.c:1852:23
	ldr	r0, [sp, #144]
	ldr	r1, [sp, #148]
	ldr	r2, [sp, #152]
	ldr	r3, [sp, #156]
	ldr.w	r12, [sp, #160]
	ldr.w	lr, [sp, #164]
	str.w	lr, [sp, #92]
	str.w	r12, [sp, #88]
	str	r3, [sp, #84]
	str	r2, [sp, #80]
	str	r1, [sp, #76]
	str	r0, [sp, #72]
	ldr	r0, [sp, #168]
	ldr	r1, [sp, #172]
	str	r1, [sp, #100]
	str	r0, [sp, #96]
	.loc	3 1853 5                        @ packages/littlefs-v2.0.5/lfs.c:1853:5
	b	.LBB0_13
.LBB0_13:                               @ =>This Inner Loop Header: Depth=1
	.loc	3 1853 17 is_stmt 0             @ packages/littlefs-v2.0.5/lfs.c:1853:17
	ldrb.w	r0, [sp, #95]
	.loc	3 1853 5                        @ packages/littlefs-v2.0.5/lfs.c:1853:5
	lsls	r0, r0, #31
	cbz	r0, .LBB0_17
	b	.LBB0_14
.LBB0_14:                               @   in Loop: Header=BB0_13 Depth=1
.Ltmp17:
	.loc	3 1854 29 is_stmt 1             @ packages/littlefs-v2.0.5/lfs.c:1854:29
	ldr	r0, [sp, #184]
	add	r1, sp, #72
	.loc	3 1854 46 is_stmt 0             @ packages/littlefs-v2.0.5/lfs.c:1854:46
	add.w	r2, r1, #24
	.loc	3 1854 15                       @ packages/littlefs-v2.0.5/lfs.c:1854:15
	bl	lfs_dir_fetch
	.loc	3 1854 13                       @ packages/littlefs-v2.0.5/lfs.c:1854:13
	str	r0, [sp, #176]
.Ltmp18:
	.loc	3 1855 13 is_stmt 1             @ packages/littlefs-v2.0.5/lfs.c:1855:13
	ldr	r0, [sp, #176]
.Ltmp19:
	.loc	3 1855 13 is_stmt 0             @ packages/littlefs-v2.0.5/lfs.c:1855:13
	cbz	r0, .LBB0_16
	b	.LBB0_15
.LBB0_15:
.Ltmp20:
	.loc	3 1856 20 is_stmt 1             @ packages/littlefs-v2.0.5/lfs.c:1856:20
	ldr	r0, [sp, #176]
	.loc	3 1856 13 is_stmt 0             @ packages/littlefs-v2.0.5/lfs.c:1856:13
	str	r0, [sp, #188]
	b	.LBB0_26
.Ltmp21:
.LBB0_16:                               @   in Loop: Header=BB0_13 Depth=1
	.loc	3 1853 5 is_stmt 1              @ packages/littlefs-v2.0.5/lfs.c:1853:5
	b	.LBB0_13
.LBB0_17:
	.loc	3 0 5 is_stmt 0                 @ packages/littlefs-v2.0.5/lfs.c:0:5
	add	r0, sp, #72
	.loc	3 1861 26 is_stmt 1             @ packages/littlefs-v2.0.5/lfs.c:1861:26
	adds	r0, #24
	.loc	3 1861 5 is_stmt 0              @ packages/littlefs-v2.0.5/lfs.c:1861:5
	str	r0, [sp, #16]                   @ 4-byte Spill
	bl	lfs_pair_tole32
	ldr	r1, [sp, #16]                   @ 4-byte Reload
	.loc	3 1862 26 is_stmt 1             @ packages/littlefs-v2.0.5/lfs.c:1862:26
	ldr	r0, [sp, #184]
	movw	r2, #64520
	movt	r2, #24591
	.loc	3 1862 37 is_stmt 0             @ packages/littlefs-v2.0.5/lfs.c:1862:37
	str	r2, [sp, #64]
	str	r1, [sp, #68]
	add	r1, sp, #104
	add	r2, sp, #64
	movs	r3, #1
	.loc	3 1862 11                       @ packages/littlefs-v2.0.5/lfs.c:1862:11
	bl	lfs_dir_commit
	mov	r1, r0
	.loc	3 1862 9                        @ packages/littlefs-v2.0.5/lfs.c:1862:9
	ldr	r0, [sp, #16]                   @ 4-byte Reload
	str	r1, [sp, #176]
	.loc	3 1864 5 is_stmt 1              @ packages/littlefs-v2.0.5/lfs.c:1864:5
	bl	lfs_pair_fromle32
.Ltmp22:
	.loc	3 1865 9                        @ packages/littlefs-v2.0.5/lfs.c:1865:9
	ldr	r0, [sp, #176]
.Ltmp23:
	.loc	3 1865 9 is_stmt 0              @ packages/littlefs-v2.0.5/lfs.c:1865:9
	cbz	r0, .LBB0_19
	b	.LBB0_18
.LBB0_18:
.Ltmp24:
	.loc	3 1866 16 is_stmt 1             @ packages/littlefs-v2.0.5/lfs.c:1866:16
	ldr	r0, [sp, #176]
	.loc	3 1866 9 is_stmt 0              @ packages/littlefs-v2.0.5/lfs.c:1866:9
	str	r0, [sp, #188]
	b	.LBB0_26
.Ltmp25:
.LBB0_19:
	.loc	3 1870 13 is_stmt 1             @ packages/littlefs-v2.0.5/lfs.c:1870:13
	ldrb.w	r0, [sp, #167]
.Ltmp26:
	.loc	3 1870 9 is_stmt 0              @ packages/littlefs-v2.0.5/lfs.c:1870:9
	lsls	r0, r0, #31
	cbz	r0, .LBB0_23
	b	.LBB0_20
.LBB0_20:
.Ltmp27:
	.loc	3 1872 28 is_stmt 1             @ packages/littlefs-v2.0.5/lfs.c:1872:28
	ldr	r0, [sp, #184]
	movs	r1, #1
	.loc	3 1872 9 is_stmt 0              @ packages/littlefs-v2.0.5/lfs.c:1872:9
	str	r1, [sp, #8]                    @ 4-byte Spill
	bl	lfs_fs_preporphans
	add	r0, sp, #104
	.loc	3 1873 9 is_stmt 1              @ packages/littlefs-v2.0.5/lfs.c:1873:9
	str	r0, [sp, #12]                   @ 4-byte Spill
	bl	lfs_pair_tole32
	ldr	r3, [sp, #8]                    @ 4-byte Reload
	ldr	r1, [sp, #12]                   @ 4-byte Reload
	.loc	3 1874 30                       @ packages/littlefs-v2.0.5/lfs.c:1874:30
	ldr	r0, [sp, #184]
	movw	r2, #64520
	movt	r2, #24591
	.loc	3 1874 42 is_stmt 0             @ packages/littlefs-v2.0.5/lfs.c:1874:42
	str	r2, [sp, #56]
	str	r1, [sp, #60]
	add	r1, sp, #72
	add	r2, sp, #56
	.loc	3 1874 15                       @ packages/littlefs-v2.0.5/lfs.c:1874:15
	bl	lfs_dir_commit
	mov	r1, r0
	.loc	3 1874 13                       @ packages/littlefs-v2.0.5/lfs.c:1874:13
	ldr	r0, [sp, #12]                   @ 4-byte Reload
	str	r1, [sp, #176]
	.loc	3 1876 9 is_stmt 1              @ packages/littlefs-v2.0.5/lfs.c:1876:9
	bl	lfs_pair_fromle32
.Ltmp28:
	.loc	3 1877 13                       @ packages/littlefs-v2.0.5/lfs.c:1877:13
	ldr	r0, [sp, #176]
.Ltmp29:
	.loc	3 1877 13 is_stmt 0             @ packages/littlefs-v2.0.5/lfs.c:1877:13
	cbz	r0, .LBB0_22
	b	.LBB0_21
.LBB0_21:
.Ltmp30:
	.loc	3 1878 20 is_stmt 1             @ packages/littlefs-v2.0.5/lfs.c:1878:20
	ldr	r0, [sp, #176]
	.loc	3 1878 13 is_stmt 0             @ packages/littlefs-v2.0.5/lfs.c:1878:13
	str	r0, [sp, #188]
	b	.LBB0_26
.Ltmp31:
.LBB0_22:
	.loc	3 1880 28 is_stmt 1             @ packages/littlefs-v2.0.5/lfs.c:1880:28
	ldr	r0, [sp, #184]
	mov.w	r1, #-1
	.loc	3 1880 9 is_stmt 0              @ packages/littlefs-v2.0.5/lfs.c:1880:9
	bl	lfs_fs_preporphans
	.loc	3 1881 5 is_stmt 1              @ packages/littlefs-v2.0.5/lfs.c:1881:5
	b	.LBB0_23
.Ltmp32:
.LBB0_23:
	.loc	3 0 5 is_stmt 0                 @ packages/littlefs-v2.0.5/lfs.c:0:5
	add	r0, sp, #104
	.loc	3 1884 5 is_stmt 1              @ packages/littlefs-v2.0.5/lfs.c:1884:5
	str	r0, [sp, #4]                    @ 4-byte Spill
	bl	lfs_pair_tole32
	ldr	r1, [sp, #4]                    @ 4-byte Reload
	.loc	3 1885 26                       @ packages/littlefs-v2.0.5/lfs.c:1885:26
	ldr	r0, [sp, #184]
	.loc	3 1885 37 is_stmt 0             @ packages/littlefs-v2.0.5/lfs.c:1885:37
	ldrh.w	r3, [sp, #142]
	movs	r2, #0
	movt	r2, #16400
	orr.w	r2, r2, r3, lsl #10
	str	r2, [sp, #24]
	movs	r2, #0
	str	r2, [sp, #28]
	ldrh.w	r3, [sp, #142]
	ldr	r2, [sp, #136]
	orr.w	r2, r2, r3, lsl #10
	orr	r2, r2, #2097152
	str	r2, [sp, #32]
	ldr	r2, [sp, #180]
	str	r2, [sp, #36]
	ldrh.w	r3, [sp, #142]
	movs	r2, #8
	movt	r2, #8192
	orr.w	r2, r2, r3, lsl #10
	str	r2, [sp, #40]
	str	r1, [sp, #44]
	ldrb.w	r2, [sp, #167]
	lsls	r3, r2, #31
	movw	r2, #64520
	movt	r2, #24591
	cmp	r3, #0
	it	ne
	movne	r2, #0
	str	r2, [sp, #48]
	str	r1, [sp, #52]
	add	r1, sp, #144
	add	r2, sp, #24
	movs	r3, #4
	.loc	3 1885 11                       @ packages/littlefs-v2.0.5/lfs.c:1885:11
	bl	lfs_dir_commit
	mov	r1, r0
	.loc	3 1885 9                        @ packages/littlefs-v2.0.5/lfs.c:1885:9
	ldr	r0, [sp, #4]                    @ 4-byte Reload
	str	r1, [sp, #176]
	.loc	3 1892 5 is_stmt 1              @ packages/littlefs-v2.0.5/lfs.c:1892:5
	bl	lfs_pair_fromle32
.Ltmp33:
	.loc	3 1893 9                        @ packages/littlefs-v2.0.5/lfs.c:1893:9
	ldr	r0, [sp, #176]
.Ltmp34:
	.loc	3 1893 9 is_stmt 0              @ packages/littlefs-v2.0.5/lfs.c:1893:9
	cbz	r0, .LBB0_25
	b	.LBB0_24
.LBB0_24:
.Ltmp35:
	.loc	3 1894 16 is_stmt 1             @ packages/littlefs-v2.0.5/lfs.c:1894:16
	ldr	r0, [sp, #176]
	.loc	3 1894 9 is_stmt 0              @ packages/littlefs-v2.0.5/lfs.c:1894:9
	str	r0, [sp, #188]
	b	.LBB0_26
.Ltmp36:
.LBB0_25:
	.loc	3 0 9                           @ packages/littlefs-v2.0.5/lfs.c:0:9
	movs	r0, #0
	.loc	3 1897 5 is_stmt 1              @ packages/littlefs-v2.0.5/lfs.c:1897:5
	str	r0, [sp, #188]
	b	.LBB0_26
.LBB0_26:
	.loc	3 1898 1                        @ packages/littlefs-v2.0.5/lfs.c:1898:1
	ldr	r0, [sp, #188]
	add	sp, #192
	pop	{r7, pc}
.Ltmp37:
.Lfunc_end0:
	.size	lfs_mkdir, .Lfunc_end0-lfs_mkdir
	.cfi_endproc
	.cantunwind
	.fnend
                                        @ -- End function
	.section	.text.lfs_fs_forceconsistency,"ax",%progbits
	.p2align	3                               @ -- Begin function lfs_fs_forceconsistency
	.type	lfs_fs_forceconsistency,%function
	.code	16                              @ @lfs_fs_forceconsistency
	.thumb_func
lfs_fs_forceconsistency:
.Lfunc_begin1:
	.loc	3 3800 0                        @ packages/littlefs-v2.0.5/lfs.c:3800:0
	.fnstart
	.cfi_startproc
@ %bb.0:
	.save	{r7, lr}
	push	{r7, lr}
	.cfi_def_cfa_offset 8
	.cfi_offset lr, -4
	.cfi_offset r7, -8
	.pad	#16
	sub	sp, #16
	.cfi_def_cfa_offset 24
	str	r0, [sp, #8]
.Ltmp38:
	.loc	3 3801 29 prologue_end          @ packages/littlefs-v2.0.5/lfs.c:3801:29
	ldr	r0, [sp, #8]
	.loc	3 3801 15 is_stmt 0             @ packages/littlefs-v2.0.5/lfs.c:3801:15
	bl	lfs_fs_demove
	.loc	3 3801 9                        @ packages/littlefs-v2.0.5/lfs.c:3801:9
	str	r0, [sp, #4]
.Ltmp39:
	.loc	3 3802 9 is_stmt 1              @ packages/littlefs-v2.0.5/lfs.c:3802:9
	ldr	r0, [sp, #4]
.Ltmp40:
	.loc	3 3802 9 is_stmt 0              @ packages/littlefs-v2.0.5/lfs.c:3802:9
	cbz	r0, .LBB1_2
	b	.LBB1_1
.LBB1_1:
.Ltmp41:
	.loc	3 3803 16 is_stmt 1             @ packages/littlefs-v2.0.5/lfs.c:3803:16
	ldr	r0, [sp, #4]
	.loc	3 3803 9 is_stmt 0              @ packages/littlefs-v2.0.5/lfs.c:3803:9
	str	r0, [sp, #12]
	b	.LBB1_5
.Ltmp42:
.LBB1_2:
	.loc	3 3806 27 is_stmt 1             @ packages/littlefs-v2.0.5/lfs.c:3806:27
	ldr	r0, [sp, #8]
	.loc	3 3806 11 is_stmt 0             @ packages/littlefs-v2.0.5/lfs.c:3806:11
	bl	lfs_fs_deorphan
	.loc	3 3806 9                        @ packages/littlefs-v2.0.5/lfs.c:3806:9
	str	r0, [sp, #4]
.Ltmp43:
	.loc	3 3807 9 is_stmt 1              @ packages/littlefs-v2.0.5/lfs.c:3807:9
	ldr	r0, [sp, #4]
.Ltmp44:
	.loc	3 3807 9 is_stmt 0              @ packages/littlefs-v2.0.5/lfs.c:3807:9
	cbz	r0, .LBB1_4
	b	.LBB1_3
.LBB1_3:
.Ltmp45:
	.loc	3 3808 16 is_stmt 1             @ packages/littlefs-v2.0.5/lfs.c:3808:16
	ldr	r0, [sp, #4]
	.loc	3 3808 9 is_stmt 0              @ packages/littlefs-v2.0.5/lfs.c:3808:9
	str	r0, [sp, #12]
	b	.LBB1_5
.Ltmp46:
.LBB1_4:
	.loc	3 0 9                           @ packages/littlefs-v2.0.5/lfs.c:0:9
	movs	r0, #0
	.loc	3 3811 5 is_stmt 1              @ packages/littlefs-v2.0.5/lfs.c:3811:5
	str	r0, [sp, #12]
	b	.LBB1_5
.LBB1_5:
	.loc	3 3812 1                        @ packages/littlefs-v2.0.5/lfs.c:3812:1
	ldr	r0, [sp, #12]
	add	sp, #16
	pop	{r7, pc}
.Ltmp47:
.Lfunc_end1:
	.size	lfs_fs_forceconsistency, .Lfunc_end1-lfs_fs_forceconsistency
	.cfi_endproc
	.cantunwind
	.fnend
                                        @ -- End function
	.section	.text.lfs_dir_find,"ax",%progbits
	.p2align	3                               @ -- Begin function lfs_dir_find
	.type	lfs_dir_find,%function
	.code	16                              @ @lfs_dir_find
	.thumb_func
lfs_dir_find:
.Lfunc_begin2:
	.loc	3 1063 0                        @ packages/littlefs-v2.0.5/lfs.c:1063:0
	.fnstart
	.cfi_startproc
@ %bb.0:
	.save	{r4, lr}
	push	{r4, lr}
	.cfi_def_cfa_offset 8
	.cfi_offset lr, -4
	.cfi_offset r4, -8
	.pad	#112
	sub	sp, #112
	.cfi_def_cfa_offset 120
	str	r0, [sp, #104]
	str	r1, [sp, #100]
	str	r2, [sp, #96]
	str	r3, [sp, #92]
.Ltmp48:
	.loc	3 1065 25 prologue_end          @ packages/littlefs-v2.0.5/lfs.c:1065:25
	ldr	r0, [sp, #96]
	.loc	3 1065 24 is_stmt 0             @ packages/littlefs-v2.0.5/lfs.c:1065:24
	ldr	r0, [r0]
	.loc	3 1065 17                       @ packages/littlefs-v2.0.5/lfs.c:1065:17
	str	r0, [sp, #88]
.Ltmp49:
	.loc	3 1066 9 is_stmt 1              @ packages/littlefs-v2.0.5/lfs.c:1066:9
	ldr	r0, [sp, #92]
.Ltmp50:
	.loc	3 1066 9 is_stmt 0              @ packages/littlefs-v2.0.5/lfs.c:1066:9
	cbz	r0, .LBB2_2
	b	.LBB2_1
.LBB2_1:
.Ltmp51:
	.loc	3 1067 10 is_stmt 1             @ packages/littlefs-v2.0.5/lfs.c:1067:10
	ldr	r1, [sp, #92]
	movw	r0, #1023
	.loc	3 1067 13 is_stmt 0             @ packages/littlefs-v2.0.5/lfs.c:1067:13
	strh	r0, [r1]
	.loc	3 1068 5 is_stmt 1              @ packages/littlefs-v2.0.5/lfs.c:1068:5
	b	.LBB2_2
.Ltmp52:
.LBB2_2:
	.loc	3 0 5 is_stmt 0                 @ packages/littlefs-v2.0.5/lfs.c:0:5
	movw	r0, #64512
	movt	r0, #47
	.loc	3 1071 16 is_stmt 1             @ packages/littlefs-v2.0.5/lfs.c:1071:16
	str	r0, [sp, #84]
	.loc	3 1072 20                       @ packages/littlefs-v2.0.5/lfs.c:1072:20
	ldr	r0, [sp, #104]
	ldr	r0, [r0, #32]
	.loc	3 1072 5 is_stmt 0              @ packages/littlefs-v2.0.5/lfs.c:1072:5
	ldr	r1, [sp, #100]
	.loc	3 1072 18                       @ packages/littlefs-v2.0.5/lfs.c:1072:18
	str	r0, [r1, #24]
	.loc	3 1073 20 is_stmt 1             @ packages/littlefs-v2.0.5/lfs.c:1073:20
	ldr	r0, [sp, #104]
	ldr	r0, [r0, #36]
	.loc	3 1073 5 is_stmt 0              @ packages/littlefs-v2.0.5/lfs.c:1073:5
	ldr	r1, [sp, #100]
	.loc	3 1073 18                       @ packages/littlefs-v2.0.5/lfs.c:1073:18
	str	r0, [r1, #28]
	.loc	3 1075 5 is_stmt 1              @ packages/littlefs-v2.0.5/lfs.c:1075:5
	b	.LBB2_3
.LBB2_3:                                @ =>This Loop Header: Depth=1
                                        @     Child Loop BB2_4 Depth 2
                                        @       Child Loop BB2_10 Depth 3
                                        @     Child Loop BB2_28 Depth 2
	.loc	3 1075 18 is_stmt 0             @ packages/littlefs-v2.0.5/lfs.c:1075:18
	b	.LBB2_4
.LBB2_4:                                @   Parent Loop BB2_3 Depth=1
                                        @ =>  This Loop Header: Depth=2
                                        @       Child Loop BB2_10 Depth 3
.Ltmp53:
	@DEBUG_LABEL: nextname
	.loc	3 1078 24 is_stmt 1             @ packages/littlefs-v2.0.5/lfs.c:1078:24
	ldr	r0, [sp, #88]
	.loc	3 1078 17 is_stmt 0             @ packages/littlefs-v2.0.5/lfs.c:1078:17
	movw	r1, :lower16:.L.str.8
	movt	r1, :upper16:.L.str.8
	str	r1, [sp, #48]                   @ 4-byte Spill
	bl	strspn
	ldr	r1, [sp, #48]                   @ 4-byte Reload
	mov	r2, r0
	.loc	3 1078 14                       @ packages/littlefs-v2.0.5/lfs.c:1078:14
	ldr	r0, [sp, #88]
	add	r0, r2
	str	r0, [sp, #88]
	.loc	3 1079 38 is_stmt 1             @ packages/littlefs-v2.0.5/lfs.c:1079:38
	ldr	r0, [sp, #88]
	.loc	3 1079 30 is_stmt 0             @ packages/littlefs-v2.0.5/lfs.c:1079:30
	bl	strcspn
	.loc	3 1079 20                       @ packages/littlefs-v2.0.5/lfs.c:1079:20
	str	r0, [sp, #80]
.Ltmp54:
	.loc	3 1082 14 is_stmt 1             @ packages/littlefs-v2.0.5/lfs.c:1082:14
	ldr	r0, [sp, #80]
	.loc	3 1082 27 is_stmt 0             @ packages/littlefs-v2.0.5/lfs.c:1082:27
	cmp	r0, #1
	bne	.LBB2_6
	b	.LBB2_5
.LBB2_5:                                @   in Loop: Header=BB2_4 Depth=2
	.loc	3 1082 37                       @ packages/littlefs-v2.0.5/lfs.c:1082:37
	ldr	r0, [sp, #88]
	.loc	3 1082 30                       @ packages/littlefs-v2.0.5/lfs.c:1082:30
	movw	r1, :lower16:.L.str
	movt	r1, :upper16:.L.str
	movs	r2, #1
	bl	memcmp
	.loc	3 1082 57                       @ packages/littlefs-v2.0.5/lfs.c:1082:57
	cbz	r0, .LBB2_8
	b	.LBB2_6
.LBB2_6:                                @   in Loop: Header=BB2_4 Depth=2
	.loc	3 1083 14 is_stmt 1             @ packages/littlefs-v2.0.5/lfs.c:1083:14
	ldr	r0, [sp, #80]
	.loc	3 1083 27 is_stmt 0             @ packages/littlefs-v2.0.5/lfs.c:1083:27
	cmp	r0, #2
	bne	.LBB2_9
	b	.LBB2_7
.LBB2_7:                                @   in Loop: Header=BB2_4 Depth=2
	.loc	3 1083 37                       @ packages/littlefs-v2.0.5/lfs.c:1083:37
	ldr	r0, [sp, #88]
	.loc	3 1083 30                       @ packages/littlefs-v2.0.5/lfs.c:1083:30
	ldrh	r0, [r0]
	movw	r1, #11822
.Ltmp55:
	.loc	3 1082 13 is_stmt 1             @ packages/littlefs-v2.0.5/lfs.c:1082:13
	cmp	r0, r1
	bne	.LBB2_9
	b	.LBB2_8
.LBB2_8:                                @   in Loop: Header=BB2_4 Depth=2
.Ltmp56:
	.loc	3 1084 21                       @ packages/littlefs-v2.0.5/lfs.c:1084:21
	ldr	r1, [sp, #80]
	.loc	3 1084 18 is_stmt 0             @ packages/littlefs-v2.0.5/lfs.c:1084:18
	ldr	r0, [sp, #88]
	add	r0, r1
	str	r0, [sp, #88]
	.loc	3 1085 13 is_stmt 1             @ packages/littlefs-v2.0.5/lfs.c:1085:13
	b	.LBB2_4
.Ltmp57:
.LBB2_9:                                @   in Loop: Header=BB2_4 Depth=2
	.loc	3 1089 30                       @ packages/littlefs-v2.0.5/lfs.c:1089:30
	ldr	r0, [sp, #88]
	.loc	3 1089 37 is_stmt 0             @ packages/littlefs-v2.0.5/lfs.c:1089:37
	ldr	r1, [sp, #80]
	.loc	3 1089 35                       @ packages/littlefs-v2.0.5/lfs.c:1089:35
	add	r0, r1
	.loc	3 1089 21                       @ packages/littlefs-v2.0.5/lfs.c:1089:21
	str	r0, [sp, #76]
	movs	r0, #1
	.loc	3 1091 13 is_stmt 1             @ packages/littlefs-v2.0.5/lfs.c:1091:13
	str	r0, [sp, #68]
	.loc	3 1092 9                        @ packages/littlefs-v2.0.5/lfs.c:1092:9
	b	.LBB2_10
.LBB2_10:                               @   Parent Loop BB2_3 Depth=1
                                        @     Parent Loop BB2_4 Depth=2
                                        @ =>    This Inner Loop Header: Depth=3
.Ltmp58:
	.loc	3 1093 30                       @ packages/littlefs-v2.0.5/lfs.c:1093:30
	ldr	r0, [sp, #76]
	.loc	3 1093 23 is_stmt 0             @ packages/littlefs-v2.0.5/lfs.c:1093:23
	movw	r1, :lower16:.L.str.8
	movt	r1, :upper16:.L.str.8
	str	r1, [sp, #44]                   @ 4-byte Spill
	bl	strspn
	ldr	r1, [sp, #44]                   @ 4-byte Reload
	mov	r2, r0
	.loc	3 1093 20                       @ packages/littlefs-v2.0.5/lfs.c:1093:20
	ldr	r0, [sp, #76]
	add	r0, r2
	str	r0, [sp, #76]
	.loc	3 1094 31 is_stmt 1             @ packages/littlefs-v2.0.5/lfs.c:1094:31
	ldr	r0, [sp, #76]
	.loc	3 1094 23 is_stmt 0             @ packages/littlefs-v2.0.5/lfs.c:1094:23
	bl	strcspn
	.loc	3 1094 21                       @ packages/littlefs-v2.0.5/lfs.c:1094:21
	str	r0, [sp, #72]
.Ltmp59:
	.loc	3 1095 17 is_stmt 1             @ packages/littlefs-v2.0.5/lfs.c:1095:17
	ldr	r0, [sp, #72]
.Ltmp60:
	.loc	3 1095 17 is_stmt 0             @ packages/littlefs-v2.0.5/lfs.c:1095:17
	cbnz	r0, .LBB2_12
	b	.LBB2_11
.LBB2_11:                               @   in Loop: Header=BB2_3 Depth=1
.Ltmp61:
	.loc	3 1096 17 is_stmt 1             @ packages/littlefs-v2.0.5/lfs.c:1096:17
	b	.LBB2_19
.Ltmp62:
.LBB2_12:                               @   in Loop: Header=BB2_10 Depth=3
	.loc	3 1099 17                       @ packages/littlefs-v2.0.5/lfs.c:1099:17
	ldr	r0, [sp, #72]
	.loc	3 1099 30 is_stmt 0             @ packages/littlefs-v2.0.5/lfs.c:1099:30
	cmp	r0, #2
	bne	.LBB2_17
	b	.LBB2_13
.LBB2_13:                               @   in Loop: Header=BB2_10 Depth=3
	.loc	3 1099 40                       @ packages/littlefs-v2.0.5/lfs.c:1099:40
	ldr	r0, [sp, #76]
	.loc	3 1099 33                       @ packages/littlefs-v2.0.5/lfs.c:1099:33
	ldrh	r0, [r0]
	movw	r1, #11822
.Ltmp63:
	.loc	3 1099 17                       @ packages/littlefs-v2.0.5/lfs.c:1099:17
	cmp	r0, r1
	bne	.LBB2_17
	b	.LBB2_14
.LBB2_14:                               @   in Loop: Header=BB2_10 Depth=3
.Ltmp64:
	.loc	3 1100 23 is_stmt 1             @ packages/littlefs-v2.0.5/lfs.c:1100:23
	ldr	r0, [sp, #68]
	subs	r0, #1
	str	r0, [sp, #68]
.Ltmp65:
	.loc	3 1101 21                       @ packages/littlefs-v2.0.5/lfs.c:1101:21
	ldr	r0, [sp, #68]
.Ltmp66:
	.loc	3 1101 21 is_stmt 0             @ packages/littlefs-v2.0.5/lfs.c:1101:21
	cbnz	r0, .LBB2_16
	b	.LBB2_15
.LBB2_15:                               @   in Loop: Header=BB2_4 Depth=2
.Ltmp67:
	.loc	3 1102 28 is_stmt 1             @ packages/littlefs-v2.0.5/lfs.c:1102:28
	ldr	r0, [sp, #76]
	.loc	3 1102 37 is_stmt 0             @ packages/littlefs-v2.0.5/lfs.c:1102:37
	ldr	r1, [sp, #72]
	.loc	3 1102 35                       @ packages/littlefs-v2.0.5/lfs.c:1102:35
	add	r0, r1
	.loc	3 1102 26                       @ packages/littlefs-v2.0.5/lfs.c:1102:26
	str	r0, [sp, #88]
	.loc	3 1103 21 is_stmt 1             @ packages/littlefs-v2.0.5/lfs.c:1103:21
	b	.LBB2_4
.Ltmp68:
.LBB2_16:                               @   in Loop: Header=BB2_10 Depth=3
	.loc	3 1105 13                       @ packages/littlefs-v2.0.5/lfs.c:1105:13
	b	.LBB2_18
.Ltmp69:
.LBB2_17:                               @   in Loop: Header=BB2_10 Depth=3
	.loc	3 1106 23                       @ packages/littlefs-v2.0.5/lfs.c:1106:23
	ldr	r0, [sp, #68]
	adds	r0, #1
	str	r0, [sp, #68]
	b	.LBB2_18
.Ltmp70:
.LBB2_18:                               @   in Loop: Header=BB2_10 Depth=3
	.loc	3 1109 23                       @ packages/littlefs-v2.0.5/lfs.c:1109:23
	ldr	r1, [sp, #72]
	.loc	3 1109 20 is_stmt 0             @ packages/littlefs-v2.0.5/lfs.c:1109:20
	ldr	r0, [sp, #76]
	add	r0, r1
	str	r0, [sp, #76]
.Ltmp71:
	.loc	3 1092 9 is_stmt 1              @ packages/littlefs-v2.0.5/lfs.c:1092:9
	b	.LBB2_10
.LBB2_19:                               @   in Loop: Header=BB2_3 Depth=1
.Ltmp72:
	.loc	3 1113 13                       @ packages/littlefs-v2.0.5/lfs.c:1113:13
	ldr	r0, [sp, #88]
	ldrsb.w	r0, [r0]
.Ltmp73:
	.loc	3 1113 13 is_stmt 0             @ packages/littlefs-v2.0.5/lfs.c:1113:13
	cbnz	r0, .LBB2_21
	b	.LBB2_20
.LBB2_20:
.Ltmp74:
	.loc	3 1114 20 is_stmt 1             @ packages/littlefs-v2.0.5/lfs.c:1114:20
	ldr	r0, [sp, #84]
	.loc	3 1114 13 is_stmt 0             @ packages/littlefs-v2.0.5/lfs.c:1114:13
	str	r0, [sp, #108]
	b	.LBB2_39
.Ltmp75:
.LBB2_21:                               @   in Loop: Header=BB2_3 Depth=1
	.loc	3 1118 17 is_stmt 1             @ packages/littlefs-v2.0.5/lfs.c:1118:17
	ldr	r0, [sp, #88]
	.loc	3 1118 10 is_stmt 0             @ packages/littlefs-v2.0.5/lfs.c:1118:10
	ldr	r1, [sp, #96]
	.loc	3 1118 15                       @ packages/littlefs-v2.0.5/lfs.c:1118:15
	str	r0, [r1]
.Ltmp76:
	.loc	3 1121 27 is_stmt 1             @ packages/littlefs-v2.0.5/lfs.c:1121:27
	ldr	r0, [sp, #84]
	.loc	3 1121 13 is_stmt 0             @ packages/littlefs-v2.0.5/lfs.c:1121:13
	bl	lfs_tag_type3
.Ltmp77:
	.loc	3 1121 13                       @ packages/littlefs-v2.0.5/lfs.c:1121:13
	cmp	r0, #2
	beq	.LBB2_23
	b	.LBB2_22
.LBB2_22:
	.loc	3 0 13                          @ packages/littlefs-v2.0.5/lfs.c:0:13
	mvn	r0, #19
.Ltmp78:
	.loc	3 1122 13 is_stmt 1             @ packages/littlefs-v2.0.5/lfs.c:1122:13
	str	r0, [sp, #108]
	b	.LBB2_39
.Ltmp79:
.LBB2_23:                               @   in Loop: Header=BB2_3 Depth=1
	.loc	3 1126 24                       @ packages/littlefs-v2.0.5/lfs.c:1126:24
	ldr	r0, [sp, #84]
	.loc	3 1126 13 is_stmt 0             @ packages/littlefs-v2.0.5/lfs.c:1126:13
	bl	lfs_tag_id
	movw	r1, #1023
.Ltmp80:
	.loc	3 1126 13                       @ packages/littlefs-v2.0.5/lfs.c:1126:13
	cmp	r0, r1
	beq	.LBB2_27
	b	.LBB2_24
.LBB2_24:                               @   in Loop: Header=BB2_3 Depth=1
.Ltmp81:
	.loc	3 1127 42 is_stmt 1             @ packages/littlefs-v2.0.5/lfs.c:1127:42
	ldr	r0, [sp, #104]
	.loc	3 1127 47 is_stmt 0             @ packages/littlefs-v2.0.5/lfs.c:1127:47
	str	r0, [sp, #40]                   @ 4-byte Spill
	ldr	r0, [sp, #100]
	.loc	3 1128 21 is_stmt 1             @ packages/littlefs-v2.0.5/lfs.c:1128:21
	str	r0, [sp, #36]                   @ 4-byte Spill
	ldr	r0, [sp, #84]
	bl	lfs_tag_id
	ldr	r1, [sp, #36]                   @ 4-byte Reload
	mov	r3, r0
	ldr	r0, [sp, #40]                   @ 4-byte Reload
	movs	r2, #8
	movt	r2, #8192
	orr.w	r3, r2, r3, lsl #10
	.loc	3 1128 69 is_stmt 0             @ packages/littlefs-v2.0.5/lfs.c:1128:69
	ldr	r2, [sp, #100]
	.loc	3 1128 74                       @ packages/littlefs-v2.0.5/lfs.c:1128:74
	adds	r2, #24
	.loc	3 1127 30 is_stmt 1             @ packages/littlefs-v2.0.5/lfs.c:1127:30
	mov	r12, sp
	str.w	r2, [r12]
	movw	r2, #64512
	movt	r2, #28687
	bl	lfs_dir_get
	.loc	3 1127 24 is_stmt 0             @ packages/littlefs-v2.0.5/lfs.c:1127:24
	str	r0, [sp, #64]
.Ltmp82:
	.loc	3 1129 17 is_stmt 1             @ packages/littlefs-v2.0.5/lfs.c:1129:17
	ldr	r0, [sp, #64]
.Ltmp83:
	.loc	3 1129 17 is_stmt 0             @ packages/littlefs-v2.0.5/lfs.c:1129:17
	cmp.w	r0, #-1
	bgt	.LBB2_26
	b	.LBB2_25
.LBB2_25:
.Ltmp84:
	.loc	3 1130 24 is_stmt 1             @ packages/littlefs-v2.0.5/lfs.c:1130:24
	ldr	r0, [sp, #64]
	.loc	3 1130 17 is_stmt 0             @ packages/littlefs-v2.0.5/lfs.c:1130:17
	str	r0, [sp, #108]
	b	.LBB2_39
.Ltmp85:
.LBB2_26:                               @   in Loop: Header=BB2_3 Depth=1
	.loc	3 1132 31 is_stmt 1             @ packages/littlefs-v2.0.5/lfs.c:1132:31
	ldr	r0, [sp, #100]
	.loc	3 1132 36 is_stmt 0             @ packages/littlefs-v2.0.5/lfs.c:1132:36
	adds	r0, #24
	.loc	3 1132 13                       @ packages/littlefs-v2.0.5/lfs.c:1132:13
	bl	lfs_pair_fromle32
	.loc	3 1133 9 is_stmt 1              @ packages/littlefs-v2.0.5/lfs.c:1133:9
	b	.LBB2_27
.Ltmp86:
.LBB2_27:                               @   in Loop: Header=BB2_3 Depth=1
	.loc	3 1136 9                        @ packages/littlefs-v2.0.5/lfs.c:1136:9
	b	.LBB2_28
.LBB2_28:                               @   Parent Loop BB2_3 Depth=1
                                        @ =>  This Inner Loop Header: Depth=2
.Ltmp87:
	.loc	3 1137 38                       @ packages/littlefs-v2.0.5/lfs.c:1137:38
	ldr	r0, [sp, #104]
	.loc	3 1137 43 is_stmt 0             @ packages/littlefs-v2.0.5/lfs.c:1137:43
	str	r0, [sp, #20]                   @ 4-byte Spill
	ldr	r0, [sp, #100]
	.loc	3 1137 53                       @ packages/littlefs-v2.0.5/lfs.c:1137:53
	str	r0, [sp, #24]                   @ 4-byte Spill
	adds	r0, #24
	.loc	3 1139 21 is_stmt 1             @ packages/littlefs-v2.0.5/lfs.c:1139:21
	str	r0, [sp, #28]                   @ 4-byte Spill
	ldr	r0, [sp, #80]
	.loc	3 1141 29                       @ packages/littlefs-v2.0.5/lfs.c:1141:29
	str	r0, [sp, #32]                   @ 4-byte Spill
	ldr	r0, [sp, #88]
	movs	r1, #47
	.loc	3 1141 22 is_stmt 0             @ packages/littlefs-v2.0.5/lfs.c:1141:22
	bl	strchr
	.loc	3 1141 21                       @ packages/littlefs-v2.0.5/lfs.c:1141:21
	cbnz	r0, .LBB2_30
	b	.LBB2_29
.LBB2_29:                               @   in Loop: Header=BB2_28 Depth=2
	.loc	3 1141 51                       @ packages/littlefs-v2.0.5/lfs.c:1141:51
	ldr	r0, [sp, #92]
	.loc	3 1141 21                       @ packages/littlefs-v2.0.5/lfs.c:1141:21
	str	r0, [sp, #16]                   @ 4-byte Spill
	b	.LBB2_31
.LBB2_30:                               @   in Loop: Header=BB2_28 Depth=2
	.loc	3 0 21                          @ packages/littlefs-v2.0.5/lfs.c:0:21
	movs	r0, #0
	.loc	3 1141 21                       @ packages/littlefs-v2.0.5/lfs.c:1141:21
	str	r0, [sp, #16]                   @ 4-byte Spill
	b	.LBB2_31
.LBB2_31:                               @   in Loop: Header=BB2_28 Depth=2
	ldr	r2, [sp, #28]                   @ 4-byte Reload
	ldr	r1, [sp, #24]                   @ 4-byte Reload
	ldr	r0, [sp, #20]                   @ 4-byte Reload
	ldr	r3, [sp, #32]                   @ 4-byte Reload
	ldr.w	lr, [sp, #16]                   @ 4-byte Reload
	.loc	3 1143 25 is_stmt 1             @ packages/littlefs-v2.0.5/lfs.c:1143:25
	ldr.w	r12, [sp, #104]
	.loc	3 1142 69                       @ packages/littlefs-v2.0.5/lfs.c:1142:69
	str.w	r12, [sp, #52]
	.loc	3 1143 30                       @ packages/littlefs-v2.0.5/lfs.c:1143:30
	ldr.w	r12, [sp, #88]
	.loc	3 1142 69                       @ packages/littlefs-v2.0.5/lfs.c:1142:69
	str.w	r12, [sp, #56]
	.loc	3 1143 36                       @ packages/littlefs-v2.0.5/lfs.c:1143:36
	ldr.w	r12, [sp, #80]
	.loc	3 1142 69                       @ packages/littlefs-v2.0.5/lfs.c:1142:69
	str.w	r12, [sp, #60]
	.loc	3 1137 19                       @ packages/littlefs-v2.0.5/lfs.c:1137:19
	mov	r12, sp
	add	r4, sp, #52
	str.w	r4, [r12, #12]
	movw	r4, :lower16:lfs_dir_find_match
	movt	r4, :upper16:lfs_dir_find_match
	str.w	r4, [r12, #8]
	str.w	lr, [r12, #4]
	str.w	r3, [r12]
	mov.w	r3, #2013265920
	bl	lfs_dir_fetchmatch
	.loc	3 1137 17 is_stmt 0             @ packages/littlefs-v2.0.5/lfs.c:1137:17
	str	r0, [sp, #84]
.Ltmp88:
	.loc	3 1144 17 is_stmt 1             @ packages/littlefs-v2.0.5/lfs.c:1144:17
	ldr	r0, [sp, #84]
.Ltmp89:
	.loc	3 1144 17 is_stmt 0             @ packages/littlefs-v2.0.5/lfs.c:1144:17
	cmp.w	r0, #-1
	bgt	.LBB2_33
	b	.LBB2_32
.LBB2_32:
.Ltmp90:
	.loc	3 1145 24 is_stmt 1             @ packages/littlefs-v2.0.5/lfs.c:1145:24
	ldr	r0, [sp, #84]
	.loc	3 1145 17 is_stmt 0             @ packages/littlefs-v2.0.5/lfs.c:1145:17
	str	r0, [sp, #108]
	b	.LBB2_39
.Ltmp91:
.LBB2_33:                               @   in Loop: Header=BB2_28 Depth=2
	.loc	3 1148 17 is_stmt 1             @ packages/littlefs-v2.0.5/lfs.c:1148:17
	ldr	r0, [sp, #84]
.Ltmp92:
	.loc	3 1148 17 is_stmt 0             @ packages/littlefs-v2.0.5/lfs.c:1148:17
	cbz	r0, .LBB2_35
	b	.LBB2_34
.LBB2_34:                               @   in Loop: Header=BB2_3 Depth=1
.Ltmp93:
	.loc	3 1149 17 is_stmt 1             @ packages/littlefs-v2.0.5/lfs.c:1149:17
	b	.LBB2_38
.Ltmp94:
.LBB2_35:                               @   in Loop: Header=BB2_28 Depth=2
	.loc	3 1152 18                       @ packages/littlefs-v2.0.5/lfs.c:1152:18
	ldr	r0, [sp, #100]
	.loc	3 1152 23 is_stmt 0             @ packages/littlefs-v2.0.5/lfs.c:1152:23
	ldrb	r0, [r0, #23]
.Ltmp95:
	.loc	3 1152 17                       @ packages/littlefs-v2.0.5/lfs.c:1152:17
	lsls	r0, r0, #31
	cbnz	r0, .LBB2_37
	b	.LBB2_36
.LBB2_36:
	.loc	3 0 17                          @ packages/littlefs-v2.0.5/lfs.c:0:17
	mvn	r0, #1
.Ltmp96:
	.loc	3 1153 17 is_stmt 1             @ packages/littlefs-v2.0.5/lfs.c:1153:17
	str	r0, [sp, #108]
	b	.LBB2_39
.Ltmp97:
.LBB2_37:                               @   in Loop: Header=BB2_28 Depth=2
	.loc	3 1136 9                        @ packages/littlefs-v2.0.5/lfs.c:1136:9
	b	.LBB2_28
.LBB2_38:                               @   in Loop: Header=BB2_3 Depth=1
	.loc	3 1158 17                       @ packages/littlefs-v2.0.5/lfs.c:1158:17
	ldr	r1, [sp, #80]
	.loc	3 1158 14 is_stmt 0             @ packages/littlefs-v2.0.5/lfs.c:1158:14
	ldr	r0, [sp, #88]
	add	r0, r1
	str	r0, [sp, #88]
.Ltmp98:
	.loc	3 1075 5 is_stmt 1              @ packages/littlefs-v2.0.5/lfs.c:1075:5
	b	.LBB2_3
.LBB2_39:
	.loc	3 1160 1                        @ packages/littlefs-v2.0.5/lfs.c:1160:1
	ldr	r0, [sp, #108]
	add	sp, #112
	pop	{r4, pc}
.Ltmp99:
.Lfunc_end2:
	.size	lfs_dir_find, .Lfunc_end2-lfs_dir_find
	.cfi_endproc
	.cantunwind
	.fnend
                                        @ -- End function
	.section	.text.lfs_alloc_ack,"ax",%progbits
	.p2align	3                               @ -- Begin function lfs_alloc_ack
	.type	lfs_alloc_ack,%function
	.code	16                              @ @lfs_alloc_ack
	.thumb_func
lfs_alloc_ack:
.Lfunc_begin3:
	.loc	3 493 0                         @ packages/littlefs-v2.0.5/lfs.c:493:0
	.fnstart
	.cfi_startproc
@ %bb.0:
	.pad	#4
	sub	sp, #4
	.cfi_def_cfa_offset 4
	str	r0, [sp]
.Ltmp100:
	.loc	3 494 21 prologue_end           @ packages/littlefs-v2.0.5/lfs.c:494:21
	ldr	r1, [sp]
	.loc	3 494 26 is_stmt 0              @ packages/littlefs-v2.0.5/lfs.c:494:26
	ldr	r0, [r1, #104]
	.loc	3 494 31                        @ packages/littlefs-v2.0.5/lfs.c:494:31
	ldr	r0, [r0, #32]
	.loc	3 494 19                        @ packages/littlefs-v2.0.5/lfs.c:494:19
	str	r0, [r1, #96]
	.loc	3 495 1 is_stmt 1               @ packages/littlefs-v2.0.5/lfs.c:495:1
	add	sp, #4
	bx	lr
.Ltmp101:
.Lfunc_end3:
	.size	lfs_alloc_ack, .Lfunc_end3-lfs_alloc_ack
	.cfi_endproc
	.cantunwind
	.fnend
                                        @ -- End function
	.section	.text.lfs_dir_alloc,"ax",%progbits
	.p2align	3                               @ -- Begin function lfs_dir_alloc
	.type	lfs_dir_alloc,%function
	.code	16                              @ @lfs_dir_alloc
	.thumb_func
lfs_dir_alloc:
.Lfunc_begin4:
	.loc	3 1299 0                        @ packages/littlefs-v2.0.5/lfs.c:1299:0
	.fnstart
	.cfi_startproc
@ %bb.0:
	.save	{r7, lr}
	push	{r7, lr}
	.cfi_def_cfa_offset 8
	.cfi_offset lr, -4
	.cfi_offset r7, -8
	.pad	#40
	sub	sp, #40
	.cfi_def_cfa_offset 48
	str	r0, [sp, #32]
	str	r1, [sp, #28]
	movs	r0, #0
.Ltmp102:
	.loc	3 1301 14 prologue_end          @ packages/littlefs-v2.0.5/lfs.c:1301:14
	str	r0, [sp, #24]
	.loc	3 1301 10 is_stmt 0             @ packages/littlefs-v2.0.5/lfs.c:1301:10
	b	.LBB4_1
.LBB4_1:                                @ =>This Inner Loop Header: Depth=1
.Ltmp103:
	.loc	3 1301 21                       @ packages/littlefs-v2.0.5/lfs.c:1301:21
	ldr	r0, [sp, #24]
.Ltmp104:
	.loc	3 1301 5                        @ packages/littlefs-v2.0.5/lfs.c:1301:5
	cmp	r0, #1
	bgt	.LBB4_6
	b	.LBB4_2
.LBB4_2:                                @   in Loop: Header=BB4_1 Depth=1
.Ltmp105:
	.loc	3 1302 29 is_stmt 1             @ packages/littlefs-v2.0.5/lfs.c:1302:29
	ldr	r0, [sp, #32]
	.loc	3 1302 35 is_stmt 0             @ packages/littlefs-v2.0.5/lfs.c:1302:35
	ldr	r1, [sp, #28]
	.loc	3 1302 46                       @ packages/littlefs-v2.0.5/lfs.c:1302:46
	ldr	r2, [sp, #24]
	.loc	3 1302 47                       @ packages/littlefs-v2.0.5/lfs.c:1302:47
	adds	r2, #1
	.loc	3 1302 50                       @ packages/littlefs-v2.0.5/lfs.c:1302:50
	add.w	r3, r2, r2, lsr #31
	bic	r3, r3, #1
	subs	r2, r2, r3
	.loc	3 1302 35                       @ packages/littlefs-v2.0.5/lfs.c:1302:35
	add.w	r1, r1, r2, lsl #2
	.loc	3 1302 19                       @ packages/littlefs-v2.0.5/lfs.c:1302:19
	bl	lfs_alloc
	.loc	3 1302 13                       @ packages/littlefs-v2.0.5/lfs.c:1302:13
	str	r0, [sp, #20]
.Ltmp106:
	.loc	3 1303 13 is_stmt 1             @ packages/littlefs-v2.0.5/lfs.c:1303:13
	ldr	r0, [sp, #20]
.Ltmp107:
	.loc	3 1303 13 is_stmt 0             @ packages/littlefs-v2.0.5/lfs.c:1303:13
	cbz	r0, .LBB4_4
	b	.LBB4_3
.LBB4_3:
.Ltmp108:
	.loc	3 1304 20 is_stmt 1             @ packages/littlefs-v2.0.5/lfs.c:1304:20
	ldr	r0, [sp, #20]
	.loc	3 1304 13 is_stmt 0             @ packages/littlefs-v2.0.5/lfs.c:1304:13
	str	r0, [sp, #36]
	b	.LBB4_10
.Ltmp109:
.LBB4_4:                                @   in Loop: Header=BB4_1 Depth=1
	.loc	3 1306 5 is_stmt 1              @ packages/littlefs-v2.0.5/lfs.c:1306:5
	b	.LBB4_5
.Ltmp110:
.LBB4_5:                                @   in Loop: Header=BB4_1 Depth=1
	.loc	3 1301 29                       @ packages/littlefs-v2.0.5/lfs.c:1301:29
	ldr	r0, [sp, #24]
	adds	r0, #1
	str	r0, [sp, #24]
	.loc	3 1301 5 is_stmt 0              @ packages/littlefs-v2.0.5/lfs.c:1301:5
	b	.LBB4_1
.Ltmp111:
.LBB4_6:
	.loc	3 1310 27 is_stmt 1             @ packages/littlefs-v2.0.5/lfs.c:1310:27
	ldr	r2, [sp, #32]
	.loc	3 1312 13                       @ packages/littlefs-v2.0.5/lfs.c:1312:13
	ldr	r1, [sp, #28]
	ldr	r0, [r1], #8
	.loc	3 1310 15                       @ packages/littlefs-v2.0.5/lfs.c:1310:15
	mov	r12, sp
	movs	r3, #4
	str.w	r3, [r12, #12]
	str.w	r1, [r12, #8]
	movs	r1, #0
	str.w	r1, [r12, #4]
	str.w	r0, [r12]
	mov	r0, r2
	bl	lfs_bd_read
	.loc	3 1310 9 is_stmt 0              @ packages/littlefs-v2.0.5/lfs.c:1310:9
	str	r0, [sp, #16]
	.loc	3 1313 29 is_stmt 1             @ packages/littlefs-v2.0.5/lfs.c:1313:29
	ldr	r0, [sp, #28]
	.loc	3 1313 34 is_stmt 0             @ packages/littlefs-v2.0.5/lfs.c:1313:34
	ldr	r0, [r0, #8]
	.loc	3 1313 16                       @ packages/littlefs-v2.0.5/lfs.c:1313:16
	bl	lfs_fromle32
	.loc	3 1313 5                        @ packages/littlefs-v2.0.5/lfs.c:1313:5
	ldr	r1, [sp, #28]
	.loc	3 1313 14                       @ packages/littlefs-v2.0.5/lfs.c:1313:14
	str	r0, [r1, #8]
.Ltmp112:
	.loc	3 1314 9 is_stmt 1              @ packages/littlefs-v2.0.5/lfs.c:1314:9
	ldr	r0, [sp, #16]
	.loc	3 1314 13 is_stmt 0             @ packages/littlefs-v2.0.5/lfs.c:1314:13
	cbz	r0, .LBB4_9
	b	.LBB4_7
.LBB4_7:
	.loc	3 1314 16                       @ packages/littlefs-v2.0.5/lfs.c:1314:16
	ldr	r0, [sp, #16]
.Ltmp113:
	.loc	3 1314 9                        @ packages/littlefs-v2.0.5/lfs.c:1314:9
	adds	r0, #84
	cbz	r0, .LBB4_9
	b	.LBB4_8
.LBB4_8:
.Ltmp114:
	.loc	3 1315 16 is_stmt 1             @ packages/littlefs-v2.0.5/lfs.c:1315:16
	ldr	r0, [sp, #16]
	.loc	3 1315 9 is_stmt 0              @ packages/littlefs-v2.0.5/lfs.c:1315:9
	str	r0, [sp, #36]
	b	.LBB4_10
.Ltmp115:
.LBB4_9:
	.loc	3 1319 17 is_stmt 1             @ packages/littlefs-v2.0.5/lfs.c:1319:17
	ldr	r1, [sp, #28]
	.loc	3 1319 22 is_stmt 0             @ packages/littlefs-v2.0.5/lfs.c:1319:22
	ldr	r0, [r1, #8]
	.loc	3 1319 26                       @ packages/littlefs-v2.0.5/lfs.c:1319:26
	and	r2, r0, #1
	.loc	3 1319 14                       @ packages/littlefs-v2.0.5/lfs.c:1319:14
	add	r0, r2
	str	r0, [r1, #8]
	.loc	3 1322 5 is_stmt 1              @ packages/littlefs-v2.0.5/lfs.c:1322:5
	ldr	r1, [sp, #28]
	movs	r0, #4
	.loc	3 1322 14 is_stmt 0             @ packages/littlefs-v2.0.5/lfs.c:1322:14
	str	r0, [r1, #12]
	.loc	3 1323 5 is_stmt 1              @ packages/littlefs-v2.0.5/lfs.c:1323:5
	ldr	r0, [sp, #28]
	mov.w	r1, #-1
	.loc	3 1323 15 is_stmt 0             @ packages/littlefs-v2.0.5/lfs.c:1323:15
	str	r1, [r0, #16]
	.loc	3 1324 5 is_stmt 1              @ packages/littlefs-v2.0.5/lfs.c:1324:5
	ldr	r2, [sp, #28]
	movs	r0, #0
	.loc	3 1324 16 is_stmt 0             @ packages/littlefs-v2.0.5/lfs.c:1324:16
	strh	r0, [r2, #20]
	.loc	3 1325 5 is_stmt 1              @ packages/littlefs-v2.0.5/lfs.c:1325:5
	ldr	r2, [sp, #28]
	.loc	3 1325 18 is_stmt 0             @ packages/littlefs-v2.0.5/lfs.c:1325:18
	str	r1, [r2, #24]
	.loc	3 1326 5 is_stmt 1              @ packages/littlefs-v2.0.5/lfs.c:1326:5
	ldr	r2, [sp, #28]
	.loc	3 1326 18 is_stmt 0             @ packages/littlefs-v2.0.5/lfs.c:1326:18
	str	r1, [r2, #28]
	.loc	3 1327 5 is_stmt 1              @ packages/littlefs-v2.0.5/lfs.c:1327:5
	ldr	r1, [sp, #28]
	.loc	3 1327 17 is_stmt 0             @ packages/littlefs-v2.0.5/lfs.c:1327:17
	strb	r0, [r1, #22]
	.loc	3 1328 5 is_stmt 1              @ packages/littlefs-v2.0.5/lfs.c:1328:5
	ldr	r1, [sp, #28]
	.loc	3 1328 16 is_stmt 0             @ packages/littlefs-v2.0.5/lfs.c:1328:16
	strb	r0, [r1, #23]
	.loc	3 1331 5 is_stmt 1              @ packages/littlefs-v2.0.5/lfs.c:1331:5
	str	r0, [sp, #36]
	b	.LBB4_10
.LBB4_10:
	.loc	3 1332 1                        @ packages/littlefs-v2.0.5/lfs.c:1332:1
	ldr	r0, [sp, #36]
	add	sp, #40
	pop	{r7, pc}
.Ltmp116:
.Lfunc_end4:
	.size	lfs_dir_alloc, .Lfunc_end4-lfs_dir_alloc
	.cfi_endproc
	.cantunwind
	.fnend
                                        @ -- End function
	.section	.text.lfs_dir_fetch,"ax",%progbits
	.p2align	3                               @ -- Begin function lfs_dir_fetch
	.type	lfs_dir_fetch,%function
	.code	16                              @ @lfs_dir_fetch
	.thumb_func
lfs_dir_fetch:
.Lfunc_begin5:
	.loc	3 974 0                         @ packages/littlefs-v2.0.5/lfs.c:974:0
	.fnstart
	.cfi_startproc
@ %bb.0:
	.save	{r7, lr}
	push	{r7, lr}
	.cfi_def_cfa_offset 8
	.cfi_offset lr, -4
	.cfi_offset r7, -8
	.pad	#32
	sub	sp, #32
	.cfi_def_cfa_offset 40
	str	r0, [sp, #28]
	str	r1, [sp, #24]
	str	r2, [sp, #20]
.Ltmp117:
	.loc	3 977 31 prologue_end           @ packages/littlefs-v2.0.5/lfs.c:977:31
	ldr	r0, [sp, #28]
	.loc	3 977 36 is_stmt 0              @ packages/littlefs-v2.0.5/lfs.c:977:36
	ldr	r1, [sp, #24]
	.loc	3 977 41                        @ packages/littlefs-v2.0.5/lfs.c:977:41
	ldr	r2, [sp, #20]
	.loc	3 977 12                        @ packages/littlefs-v2.0.5/lfs.c:977:12
	mov	r12, sp
	movs	r3, #0
	str.w	r3, [r12, #12]
	str.w	r3, [r12, #8]
	str.w	r3, [r12, #4]
	str.w	r3, [r12]
	mov.w	r3, #-1
	bl	lfs_dir_fetchmatch
	.loc	3 977 5                         @ packages/littlefs-v2.0.5/lfs.c:977:5
	add	sp, #32
	pop	{r7, pc}
.Ltmp118:
.Lfunc_end5:
	.size	lfs_dir_fetch, .Lfunc_end5-lfs_dir_fetch
	.cfi_endproc
	.cantunwind
	.fnend
                                        @ -- End function
	.section	.text.lfs_pair_tole32,"ax",%progbits
	.p2align	3                               @ -- Begin function lfs_pair_tole32
	.type	lfs_pair_tole32,%function
	.code	16                              @ @lfs_pair_tole32
	.thumb_func
lfs_pair_tole32:
.Lfunc_begin6:
	.loc	3 259 0 is_stmt 1               @ packages/littlefs-v2.0.5/lfs.c:259:0
	.fnstart
	.cfi_startproc
@ %bb.0:
	.save	{r7, lr}
	push	{r7, lr}
	.cfi_def_cfa_offset 8
	.cfi_offset lr, -4
	.cfi_offset r7, -8
	.pad	#8
	sub	sp, #8
	.cfi_def_cfa_offset 16
	str	r0, [sp, #4]
.Ltmp119:
	.loc	3 260 26 prologue_end           @ packages/littlefs-v2.0.5/lfs.c:260:26
	ldr	r0, [sp, #4]
	ldr	r0, [r0]
	.loc	3 260 15 is_stmt 0              @ packages/littlefs-v2.0.5/lfs.c:260:15
	bl	lfs_tole32
	.loc	3 260 5                         @ packages/littlefs-v2.0.5/lfs.c:260:5
	ldr	r1, [sp, #4]
	.loc	3 260 13                        @ packages/littlefs-v2.0.5/lfs.c:260:13
	str	r0, [r1]
	.loc	3 261 26 is_stmt 1              @ packages/littlefs-v2.0.5/lfs.c:261:26
	ldr	r0, [sp, #4]
	ldr	r0, [r0, #4]
	.loc	3 261 15 is_stmt 0              @ packages/littlefs-v2.0.5/lfs.c:261:15
	bl	lfs_tole32
	.loc	3 261 5                         @ packages/littlefs-v2.0.5/lfs.c:261:5
	ldr	r1, [sp, #4]
	.loc	3 261 13                        @ packages/littlefs-v2.0.5/lfs.c:261:13
	str	r0, [r1, #4]
	.loc	3 262 1 is_stmt 1               @ packages/littlefs-v2.0.5/lfs.c:262:1
	add	sp, #8
	pop	{r7, pc}
.Ltmp120:
.Lfunc_end6:
	.size	lfs_pair_tole32, .Lfunc_end6-lfs_pair_tole32
	.cfi_endproc
	.cantunwind
	.fnend
                                        @ -- End function
	.section	.text.lfs_dir_commit,"ax",%progbits
	.p2align	3                               @ -- Begin function lfs_dir_commit
	.type	lfs_dir_commit,%function
	.code	16                              @ @lfs_dir_commit
	.thumb_func
lfs_dir_commit:
.Lfunc_begin7:
	.loc	3 1639 0                        @ packages/littlefs-v2.0.5/lfs.c:1639:0
	.fnstart
	.cfi_startproc
@ %bb.0:
	.save	{r4, r5, r7, lr}
	push	{r4, r5, r7, lr}
	.cfi_def_cfa_offset 16
	.cfi_offset lr, -4
	.cfi_offset r7, -8
	.cfi_offset r5, -12
	.cfi_offset r4, -16
	.pad	#240
	sub	sp, #240
	.cfi_def_cfa_offset 256
	str	r0, [sp, #232]
	str	r1, [sp, #228]
	str	r2, [sp, #224]
	str	r3, [sp, #220]
.Ltmp121:
	.loc	3 1642 39 prologue_end          @ packages/littlefs-v2.0.5/lfs.c:1642:39
	ldr	r0, [sp, #232]
	.loc	3 1642 44 is_stmt 0             @ packages/littlefs-v2.0.5/lfs.c:1642:44
	ldr	r0, [r0, #40]
	.loc	3 1642 22                       @ packages/littlefs-v2.0.5/lfs.c:1642:22
	str	r0, [sp, #216]
	.loc	3 1642 10                       @ packages/littlefs-v2.0.5/lfs.c:1642:10
	b	.LBB7_1
.LBB7_1:                                @ =>This Inner Loop Header: Depth=1
.Ltmp122:
	.loc	3 1642 51                       @ packages/littlefs-v2.0.5/lfs.c:1642:51
	ldr	r0, [sp, #216]
.Ltmp123:
	.loc	3 1642 5                        @ packages/littlefs-v2.0.5/lfs.c:1642:5
	cmp	r0, #0
	beq	.LBB7_14
	b	.LBB7_2
.LBB7_2:                                @   in Loop: Header=BB7_1 Depth=1
.Ltmp124:
	.loc	3 1643 13 is_stmt 1             @ packages/littlefs-v2.0.5/lfs.c:1643:13
	ldr	r0, [sp, #228]
	.loc	3 1643 21 is_stmt 0             @ packages/littlefs-v2.0.5/lfs.c:1643:21
	ldr	r1, [sp, #216]
	.loc	3 1643 24                       @ packages/littlefs-v2.0.5/lfs.c:1643:24
	adds	r1, #8
	.loc	3 1643 26                       @ packages/littlefs-v2.0.5/lfs.c:1643:26
	cmp	r0, r1
	beq	.LBB7_12
	b	.LBB7_3
.LBB7_3:                                @   in Loop: Header=BB7_1 Depth=1
	.loc	3 1643 42                       @ packages/littlefs-v2.0.5/lfs.c:1643:42
	ldr	r0, [sp, #216]
	.loc	3 1643 45                       @ packages/littlefs-v2.0.5/lfs.c:1643:45
	adds	r0, #8
	.loc	3 1643 53                       @ packages/littlefs-v2.0.5/lfs.c:1643:53
	ldr	r1, [sp, #228]
	.loc	3 1643 29                       @ packages/littlefs-v2.0.5/lfs.c:1643:29
	bl	lfs_pair_cmp
	.loc	3 1643 69                       @ packages/littlefs-v2.0.5/lfs.c:1643:69
	cbnz	r0, .LBB7_12
	b	.LBB7_4
.LBB7_4:                                @   in Loop: Header=BB7_1 Depth=1
	.loc	3 1644 17 is_stmt 1             @ packages/littlefs-v2.0.5/lfs.c:1644:17
	ldr	r0, [sp, #216]
	.loc	3 1644 20 is_stmt 0             @ packages/littlefs-v2.0.5/lfs.c:1644:20
	ldrb	r0, [r0, #6]
	.loc	3 1644 41                       @ packages/littlefs-v2.0.5/lfs.c:1644:41
	cmp	r0, #1
	bne	.LBB7_12
	b	.LBB7_5
.LBB7_5:                                @   in Loop: Header=BB7_1 Depth=1
	.loc	3 1644 45                       @ packages/littlefs-v2.0.5/lfs.c:1644:45
	ldr	r0, [sp, #216]
	.loc	3 1644 70                       @ packages/littlefs-v2.0.5/lfs.c:1644:70
	ldrb.w	r0, [r0, #50]
	lsls	r0, r0, #27
	cmp	r0, #0
	bpl	.LBB7_12
	b	.LBB7_6
.LBB7_6:                                @   in Loop: Header=BB7_1 Depth=1
	.loc	3 1645 17 is_stmt 1             @ packages/littlefs-v2.0.5/lfs.c:1645:17
	ldr	r0, [sp, #216]
	.loc	3 1645 24 is_stmt 0             @ packages/littlefs-v2.0.5/lfs.c:1645:24
	ldr	r0, [r0, #44]
	.loc	3 1645 31                       @ packages/littlefs-v2.0.5/lfs.c:1645:31
	ldr	r1, [sp, #232]
	.loc	3 1645 36                       @ packages/littlefs-v2.0.5/lfs.c:1645:36
	ldr	r1, [r1, #104]
	.loc	3 1645 41                       @ packages/littlefs-v2.0.5/lfs.c:1645:41
	ldr	r1, [r1, #40]
.Ltmp125:
	.loc	3 1643 13 is_stmt 1             @ packages/littlefs-v2.0.5/lfs.c:1643:13
	cmp	r0, r1
	bls	.LBB7_12
	b	.LBB7_7
.LBB7_7:                                @   in Loop: Header=BB7_1 Depth=1
.Ltmp126:
	.loc	3 1646 13                       @ packages/littlefs-v2.0.5/lfs.c:1646:13
	ldr	r1, [sp, #216]
	.loc	3 1646 22 is_stmt 0             @ packages/littlefs-v2.0.5/lfs.c:1646:22
	ldr	r0, [r1, #48]
	bic	r0, r0, #262144
	str	r0, [r1, #48]
	.loc	3 1647 13 is_stmt 1             @ packages/littlefs-v2.0.5/lfs.c:1647:13
	ldr	r1, [sp, #216]
	movs	r0, #0
	.loc	3 1647 20 is_stmt 0             @ packages/littlefs-v2.0.5/lfs.c:1647:20
	str	r0, [r1, #60]
	.loc	3 1649 27 is_stmt 1             @ packages/littlefs-v2.0.5/lfs.c:1649:27
	ldr	r0, [sp, #232]
	.loc	3 1649 13 is_stmt 0             @ packages/littlefs-v2.0.5/lfs.c:1649:13
	bl	lfs_alloc_ack
	.loc	3 1650 41 is_stmt 1             @ packages/littlefs-v2.0.5/lfs.c:1650:41
	ldr	r0, [sp, #232]
	.loc	3 1650 46 is_stmt 0             @ packages/littlefs-v2.0.5/lfs.c:1650:46
	ldr	r1, [sp, #216]
	.loc	3 1650 23                       @ packages/littlefs-v2.0.5/lfs.c:1650:23
	bl	lfs_file_relocate
	.loc	3 1650 17                       @ packages/littlefs-v2.0.5/lfs.c:1650:17
	str	r0, [sp, #212]
.Ltmp127:
	.loc	3 1651 17 is_stmt 1             @ packages/littlefs-v2.0.5/lfs.c:1651:17
	ldr	r0, [sp, #212]
.Ltmp128:
	.loc	3 1651 17 is_stmt 0             @ packages/littlefs-v2.0.5/lfs.c:1651:17
	cbz	r0, .LBB7_9
	b	.LBB7_8
.LBB7_8:
.Ltmp129:
	.loc	3 1652 24 is_stmt 1             @ packages/littlefs-v2.0.5/lfs.c:1652:24
	ldr	r0, [sp, #212]
	.loc	3 1652 17 is_stmt 0             @ packages/littlefs-v2.0.5/lfs.c:1652:17
	str	r0, [sp, #236]
	b	.LBB7_96
.Ltmp130:
.LBB7_9:                                @   in Loop: Header=BB7_1 Depth=1
	.loc	3 1655 34 is_stmt 1             @ packages/littlefs-v2.0.5/lfs.c:1655:34
	ldr	r0, [sp, #232]
	.loc	3 1655 39 is_stmt 0             @ packages/littlefs-v2.0.5/lfs.c:1655:39
	ldr	r1, [sp, #216]
	.loc	3 1655 19                       @ packages/littlefs-v2.0.5/lfs.c:1655:19
	bl	lfs_file_flush
	.loc	3 1655 17                       @ packages/littlefs-v2.0.5/lfs.c:1655:17
	str	r0, [sp, #212]
.Ltmp131:
	.loc	3 1656 17 is_stmt 1             @ packages/littlefs-v2.0.5/lfs.c:1656:17
	ldr	r0, [sp, #212]
.Ltmp132:
	.loc	3 1656 17 is_stmt 0             @ packages/littlefs-v2.0.5/lfs.c:1656:17
	cbz	r0, .LBB7_11
	b	.LBB7_10
.LBB7_10:
.Ltmp133:
	.loc	3 1657 24 is_stmt 1             @ packages/littlefs-v2.0.5/lfs.c:1657:24
	ldr	r0, [sp, #212]
	.loc	3 1657 17 is_stmt 0             @ packages/littlefs-v2.0.5/lfs.c:1657:17
	str	r0, [sp, #236]
	b	.LBB7_96
.Ltmp134:
.LBB7_11:                               @   in Loop: Header=BB7_1 Depth=1
	.loc	3 1659 9 is_stmt 1              @ packages/littlefs-v2.0.5/lfs.c:1659:9
	b	.LBB7_12
.Ltmp135:
.LBB7_12:                               @   in Loop: Header=BB7_1 Depth=1
	.loc	3 1660 5                        @ packages/littlefs-v2.0.5/lfs.c:1660:5
	b	.LBB7_13
.Ltmp136:
.LBB7_13:                               @   in Loop: Header=BB7_1 Depth=1
	.loc	3 1642 58                       @ packages/littlefs-v2.0.5/lfs.c:1642:58
	ldr	r0, [sp, #216]
	.loc	3 1642 61 is_stmt 0             @ packages/littlefs-v2.0.5/lfs.c:1642:61
	ldr	r0, [r0]
	.loc	3 1642 56                       @ packages/littlefs-v2.0.5/lfs.c:1642:56
	str	r0, [sp, #216]
	.loc	3 1642 5                        @ packages/littlefs-v2.0.5/lfs.c:1642:5
	b	.LBB7_1
.Ltmp137:
.LBB7_14:
	.loc	3 0 5                           @ packages/littlefs-v2.0.5/lfs.c:0:5
	mov.w	r0, #-1
	.loc	3 1663 15 is_stmt 1             @ packages/littlefs-v2.0.5/lfs.c:1663:15
	str	r0, [sp, #208]
	.loc	3 1664 15                       @ packages/littlefs-v2.0.5/lfs.c:1664:15
	str	r0, [sp, #204]
	movs	r0, #0
.Ltmp138:
	.loc	3 1665 14                       @ packages/littlefs-v2.0.5/lfs.c:1665:14
	str	r0, [sp, #200]
	.loc	3 1665 10 is_stmt 0             @ packages/littlefs-v2.0.5/lfs.c:1665:10
	b	.LBB7_15
.LBB7_15:                               @ =>This Inner Loop Header: Depth=1
.Ltmp139:
	.loc	3 1665 21                       @ packages/littlefs-v2.0.5/lfs.c:1665:21
	ldr	r0, [sp, #200]
	.loc	3 1665 25                       @ packages/littlefs-v2.0.5/lfs.c:1665:25
	ldr	r1, [sp, #220]
.Ltmp140:
	.loc	3 1665 5                        @ packages/littlefs-v2.0.5/lfs.c:1665:5
	cmp	r0, r1
	bge	.LBB7_28
	b	.LBB7_16
.LBB7_16:                               @   in Loop: Header=BB7_15 Depth=1
.Ltmp141:
	.loc	3 1666 27 is_stmt 1             @ packages/littlefs-v2.0.5/lfs.c:1666:27
	ldr	r0, [sp, #224]
	.loc	3 1666 33 is_stmt 0             @ packages/littlefs-v2.0.5/lfs.c:1666:33
	ldr	r1, [sp, #200]
	.loc	3 1666 36                       @ packages/littlefs-v2.0.5/lfs.c:1666:36
	ldr.w	r0, [r0, r1, lsl #3]
	.loc	3 1666 13                       @ packages/littlefs-v2.0.5/lfs.c:1666:13
	bl	lfs_tag_type3
	movw	r1, #1025
.Ltmp142:
	.loc	3 1666 13                       @ packages/littlefs-v2.0.5/lfs.c:1666:13
	cmp	r0, r1
	bne	.LBB7_18
	b	.LBB7_17
.LBB7_17:                               @   in Loop: Header=BB7_15 Depth=1
.Ltmp143:
	.loc	3 1667 25 is_stmt 1             @ packages/littlefs-v2.0.5/lfs.c:1667:25
	ldr	r0, [sp, #224]
	.loc	3 1667 31 is_stmt 0             @ packages/littlefs-v2.0.5/lfs.c:1667:31
	ldr	r1, [sp, #200]
	.loc	3 1667 34                       @ packages/littlefs-v2.0.5/lfs.c:1667:34
	ldr.w	r0, [r0, r1, lsl #3]
	.loc	3 1667 23                       @ packages/littlefs-v2.0.5/lfs.c:1667:23
	str	r0, [sp, #204]
	.loc	3 1668 13 is_stmt 1             @ packages/littlefs-v2.0.5/lfs.c:1668:13
	ldr	r1, [sp, #228]
	.loc	3 1668 24 is_stmt 0             @ packages/littlefs-v2.0.5/lfs.c:1668:24
	ldrh	r0, [r1, #20]
	adds	r0, #1
	strh	r0, [r1, #20]
	.loc	3 1669 9 is_stmt 1              @ packages/littlefs-v2.0.5/lfs.c:1669:9
	b	.LBB7_26
.Ltmp144:
.LBB7_18:                               @   in Loop: Header=BB7_15 Depth=1
	.loc	3 1669 34 is_stmt 0             @ packages/littlefs-v2.0.5/lfs.c:1669:34
	ldr	r0, [sp, #224]
	.loc	3 1669 40                       @ packages/littlefs-v2.0.5/lfs.c:1669:40
	ldr	r1, [sp, #200]
	.loc	3 1669 43                       @ packages/littlefs-v2.0.5/lfs.c:1669:43
	ldr.w	r0, [r0, r1, lsl #3]
	.loc	3 1669 20                       @ packages/littlefs-v2.0.5/lfs.c:1669:20
	bl	lfs_tag_type3
	movw	r1, #1279
.Ltmp145:
	.loc	3 1669 20                       @ packages/littlefs-v2.0.5/lfs.c:1669:20
	cmp	r0, r1
	bne	.LBB7_22
	b	.LBB7_19
.LBB7_19:                               @   in Loop: Header=BB7_15 Depth=1
.Ltmp146:
	.loc	3 1670 25 is_stmt 1             @ packages/littlefs-v2.0.5/lfs.c:1670:25
	ldr	r0, [sp, #224]
	.loc	3 1670 31 is_stmt 0             @ packages/littlefs-v2.0.5/lfs.c:1670:31
	ldr	r1, [sp, #200]
	.loc	3 1670 34                       @ packages/littlefs-v2.0.5/lfs.c:1670:34
	ldr.w	r0, [r0, r1, lsl #3]
	.loc	3 1670 23                       @ packages/littlefs-v2.0.5/lfs.c:1670:23
	str	r0, [sp, #208]
.Ltmp147:
	.loc	3 1671 13 is_stmt 1             @ packages/littlefs-v2.0.5/lfs.c:1671:13
	ldr	r0, [sp, #228]
	ldrh	r0, [r0, #20]
.Ltmp148:
	.loc	3 1671 13 is_stmt 0             @ packages/littlefs-v2.0.5/lfs.c:1671:13
	cmp	r0, #0
	bgt	.LBB7_21
	b	.LBB7_20
.LBB7_20:                               @   in Loop: Header=BB7_15 Depth=1
.Ltmp149:
	.loc	3 1671 13                       @ packages/littlefs-v2.0.5/lfs.c:1671:13
	movw	r0, :lower16:.L.str.10
	movt	r0, :upper16:.L.str.10
	movw	r1, :lower16:.L__FUNCTION__.lfs_dir_commit
	movt	r1, :upper16:.L__FUNCTION__.lfs_dir_commit
	movw	r2, #1671
	bl	rt_assert_handler
	b	.LBB7_21
.Ltmp150:
.LBB7_21:                               @   in Loop: Header=BB7_15 Depth=1
	.loc	3 1672 13 is_stmt 1             @ packages/littlefs-v2.0.5/lfs.c:1672:13
	ldr	r1, [sp, #228]
	.loc	3 1672 24 is_stmt 0             @ packages/littlefs-v2.0.5/lfs.c:1672:24
	ldrh	r0, [r1, #20]
	subs	r0, #1
	strh	r0, [r1, #20]
	.loc	3 1673 9 is_stmt 1              @ packages/littlefs-v2.0.5/lfs.c:1673:9
	b	.LBB7_25
.Ltmp151:
.LBB7_22:                               @   in Loop: Header=BB7_15 Depth=1
	.loc	3 1673 34 is_stmt 0             @ packages/littlefs-v2.0.5/lfs.c:1673:34
	ldr	r0, [sp, #224]
	.loc	3 1673 40                       @ packages/littlefs-v2.0.5/lfs.c:1673:40
	ldr	r1, [sp, #200]
	.loc	3 1673 43                       @ packages/littlefs-v2.0.5/lfs.c:1673:43
	ldr.w	r0, [r0, r1, lsl #3]
	.loc	3 1673 20                       @ packages/littlefs-v2.0.5/lfs.c:1673:20
	bl	lfs_tag_type1
.Ltmp152:
	.loc	3 1673 20                       @ packages/littlefs-v2.0.5/lfs.c:1673:20
	cmp.w	r0, #1536
	bne	.LBB7_24
	b	.LBB7_23
.LBB7_23:                               @   in Loop: Header=BB7_15 Depth=1
.Ltmp153:
	.loc	3 1674 43 is_stmt 1             @ packages/littlefs-v2.0.5/lfs.c:1674:43
	ldr	r0, [sp, #224]
	.loc	3 1674 49 is_stmt 0             @ packages/littlefs-v2.0.5/lfs.c:1674:49
	ldr	r1, [sp, #200]
	.loc	3 1674 43                       @ packages/littlefs-v2.0.5/lfs.c:1674:43
	add.w	r0, r0, r1, lsl #3
	.loc	3 1674 52                       @ packages/littlefs-v2.0.5/lfs.c:1674:52
	ldr	r0, [r0, #4]
	.loc	3 1674 28                       @ packages/littlefs-v2.0.5/lfs.c:1674:28
	ldr	r0, [r0]
	.loc	3 1674 13                       @ packages/littlefs-v2.0.5/lfs.c:1674:13
	ldr	r1, [sp, #228]
	.loc	3 1674 26                       @ packages/littlefs-v2.0.5/lfs.c:1674:26
	str	r0, [r1, #24]
	.loc	3 1675 43 is_stmt 1             @ packages/littlefs-v2.0.5/lfs.c:1675:43
	ldr	r0, [sp, #224]
	.loc	3 1675 49 is_stmt 0             @ packages/littlefs-v2.0.5/lfs.c:1675:49
	ldr	r1, [sp, #200]
	.loc	3 1675 43                       @ packages/littlefs-v2.0.5/lfs.c:1675:43
	add.w	r0, r0, r1, lsl #3
	.loc	3 1675 52                       @ packages/littlefs-v2.0.5/lfs.c:1675:52
	ldr	r0, [r0, #4]
	.loc	3 1675 28                       @ packages/littlefs-v2.0.5/lfs.c:1675:28
	ldr	r0, [r0, #4]
	.loc	3 1675 13                       @ packages/littlefs-v2.0.5/lfs.c:1675:13
	ldr	r1, [sp, #228]
	.loc	3 1675 26                       @ packages/littlefs-v2.0.5/lfs.c:1675:26
	str	r0, [r1, #28]
	.loc	3 1676 41 is_stmt 1             @ packages/littlefs-v2.0.5/lfs.c:1676:41
	ldr	r0, [sp, #224]
	.loc	3 1676 47 is_stmt 0             @ packages/littlefs-v2.0.5/lfs.c:1676:47
	ldr	r1, [sp, #200]
	.loc	3 1676 50                       @ packages/littlefs-v2.0.5/lfs.c:1676:50
	ldr.w	r0, [r0, r1, lsl #3]
	.loc	3 1676 27                       @ packages/littlefs-v2.0.5/lfs.c:1676:27
	bl	lfs_tag_chunk
	.loc	3 1676 55                       @ packages/littlefs-v2.0.5/lfs.c:1676:55
	and	r0, r0, #1
	.loc	3 1676 13                       @ packages/littlefs-v2.0.5/lfs.c:1676:13
	ldr	r1, [sp, #228]
	.loc	3 1676 24                       @ packages/littlefs-v2.0.5/lfs.c:1676:24
	strb	r0, [r1, #23]
	.loc	3 1677 31 is_stmt 1             @ packages/littlefs-v2.0.5/lfs.c:1677:31
	ldr	r0, [sp, #228]
	.loc	3 1677 36 is_stmt 0             @ packages/littlefs-v2.0.5/lfs.c:1677:36
	adds	r0, #24
	.loc	3 1677 13                       @ packages/littlefs-v2.0.5/lfs.c:1677:13
	bl	lfs_pair_fromle32
	.loc	3 1678 9 is_stmt 1              @ packages/littlefs-v2.0.5/lfs.c:1678:9
	b	.LBB7_24
.Ltmp154:
.LBB7_24:                               @   in Loop: Header=BB7_15 Depth=1
	.loc	3 0 9 is_stmt 0                 @ packages/littlefs-v2.0.5/lfs.c:0:9
	b	.LBB7_25
.LBB7_25:                               @   in Loop: Header=BB7_15 Depth=1
	b	.LBB7_26
.LBB7_26:                               @   in Loop: Header=BB7_15 Depth=1
	.loc	3 1679 5 is_stmt 1              @ packages/littlefs-v2.0.5/lfs.c:1679:5
	b	.LBB7_27
.Ltmp155:
.LBB7_27:                               @   in Loop: Header=BB7_15 Depth=1
	.loc	3 1665 37                       @ packages/littlefs-v2.0.5/lfs.c:1665:37
	ldr	r0, [sp, #200]
	adds	r0, #1
	str	r0, [sp, #200]
	.loc	3 1665 5 is_stmt 0              @ packages/littlefs-v2.0.5/lfs.c:1665:5
	b	.LBB7_15
.Ltmp156:
.LBB7_28:
	.loc	3 1682 33 is_stmt 1             @ packages/littlefs-v2.0.5/lfs.c:1682:33
	ldr	r0, [sp, #232]
	.loc	3 1682 38 is_stmt 0             @ packages/littlefs-v2.0.5/lfs.c:1682:38
	adds	r0, #60
	.loc	3 1682 48                       @ packages/littlefs-v2.0.5/lfs.c:1682:48
	ldr	r1, [sp, #228]
	.loc	3 1682 9                        @ packages/littlefs-v2.0.5/lfs.c:1682:9
	bl	lfs_gstate_hasmovehere
.Ltmp157:
	.loc	3 1682 9                        @ packages/littlefs-v2.0.5/lfs.c:1682:9
	cbz	r0, .LBB7_32
	b	.LBB7_29
.LBB7_29:
.Ltmp158:
	.loc	3 1683 21 is_stmt 1             @ packages/littlefs-v2.0.5/lfs.c:1683:21
	ldr	r0, [sp, #232]
	.loc	3 1683 35 is_stmt 0             @ packages/littlefs-v2.0.5/lfs.c:1683:35
	ldr	r0, [r0, #60]
	movw	r1, #64512
	movt	r1, #32767
	.loc	3 1683 39                       @ packages/littlefs-v2.0.5/lfs.c:1683:39
	ands	r0, r1
	.loc	3 1683 19                       @ packages/littlefs-v2.0.5/lfs.c:1683:19
	str	r0, [sp, #208]
.Ltmp159:
	.loc	3 1684 9 is_stmt 1              @ packages/littlefs-v2.0.5/lfs.c:1684:9
	ldr	r0, [sp, #228]
	ldrh	r0, [r0, #20]
.Ltmp160:
	.loc	3 1684 9 is_stmt 0              @ packages/littlefs-v2.0.5/lfs.c:1684:9
	cmp	r0, #0
	bgt	.LBB7_31
	b	.LBB7_30
.LBB7_30:
.Ltmp161:
	.loc	3 1684 9                        @ packages/littlefs-v2.0.5/lfs.c:1684:9
	movw	r0, :lower16:.L.str.10
	movt	r0, :upper16:.L.str.10
	movw	r1, :lower16:.L__FUNCTION__.lfs_dir_commit
	movt	r1, :upper16:.L__FUNCTION__.lfs_dir_commit
	movw	r2, #1684
	bl	rt_assert_handler
	b	.LBB7_31
.Ltmp162:
.LBB7_31:
	.loc	3 1685 9 is_stmt 1              @ packages/littlefs-v2.0.5/lfs.c:1685:9
	ldr	r1, [sp, #228]
	.loc	3 1685 20 is_stmt 0             @ packages/littlefs-v2.0.5/lfs.c:1685:20
	ldrh	r0, [r1, #20]
	subs	r0, #1
	strh	r0, [r1, #20]
	.loc	3 1688 29 is_stmt 1             @ packages/littlefs-v2.0.5/lfs.c:1688:29
	ldr	r1, [sp, #232]
	.loc	3 1688 34 is_stmt 0             @ packages/littlefs-v2.0.5/lfs.c:1688:34
	add.w	r0, r1, #72
	.loc	3 1688 48                       @ packages/littlefs-v2.0.5/lfs.c:1688:48
	adds	r1, #60
	movw	r2, #1023
	movs	r3, #0
	.loc	3 1688 9                        @ packages/littlefs-v2.0.5/lfs.c:1688:9
	bl	lfs_gstate_xormove
	.loc	3 1689 5 is_stmt 1              @ packages/littlefs-v2.0.5/lfs.c:1689:5
	b	.LBB7_32
.Ltmp163:
.LBB7_32:
	.loc	3 1692 25                       @ packages/littlefs-v2.0.5/lfs.c:1692:25
	ldr	r0, [sp, #208]
	.loc	3 1692 9 is_stmt 0              @ packages/littlefs-v2.0.5/lfs.c:1692:9
	bl	lfs_tag_isvalid
	.loc	3 1692 36                       @ packages/littlefs-v2.0.5/lfs.c:1692:36
	cbz	r0, .LBB7_41
	b	.LBB7_33
.LBB7_33:
	.loc	3 1692 39                       @ packages/littlefs-v2.0.5/lfs.c:1692:39
	ldr	r0, [sp, #228]
	.loc	3 1692 44                       @ packages/littlefs-v2.0.5/lfs.c:1692:44
	ldrh	r0, [r0, #20]
.Ltmp164:
	.loc	3 1692 9                        @ packages/littlefs-v2.0.5/lfs.c:1692:9
	cbnz	r0, .LBB7_41
	b	.LBB7_34
.LBB7_34:
.Ltmp165:
	.loc	3 1694 31 is_stmt 1             @ packages/littlefs-v2.0.5/lfs.c:1694:31
	ldr	r0, [sp, #232]
	.loc	3 1694 36 is_stmt 0             @ packages/littlefs-v2.0.5/lfs.c:1694:36
	ldr	r1, [sp, #228]
	add	r2, sp, #168
	.loc	3 1694 19                       @ packages/littlefs-v2.0.5/lfs.c:1694:19
	bl	lfs_fs_pred
	.loc	3 1694 13                       @ packages/littlefs-v2.0.5/lfs.c:1694:13
	str	r0, [sp, #164]
.Ltmp166:
	.loc	3 1695 13 is_stmt 1             @ packages/littlefs-v2.0.5/lfs.c:1695:13
	ldr	r0, [sp, #164]
	.loc	3 1695 17 is_stmt 0             @ packages/littlefs-v2.0.5/lfs.c:1695:17
	cbz	r0, .LBB7_37
	b	.LBB7_35
.LBB7_35:
	.loc	3 1695 20                       @ packages/littlefs-v2.0.5/lfs.c:1695:20
	ldr	r0, [sp, #164]
.Ltmp167:
	.loc	3 1695 13                       @ packages/littlefs-v2.0.5/lfs.c:1695:13
	adds	r0, #2
	cbz	r0, .LBB7_37
	b	.LBB7_36
.LBB7_36:
.Ltmp168:
	.loc	3 1696 20 is_stmt 1             @ packages/littlefs-v2.0.5/lfs.c:1696:20
	ldr	r0, [sp, #164]
	.loc	3 1696 13 is_stmt 0             @ packages/littlefs-v2.0.5/lfs.c:1696:13
	str	r0, [sp, #236]
	b	.LBB7_96
.Ltmp169:
.LBB7_37:
	.loc	3 1699 13 is_stmt 1             @ packages/littlefs-v2.0.5/lfs.c:1699:13
	ldr	r0, [sp, #164]
	.loc	3 1699 34 is_stmt 0             @ packages/littlefs-v2.0.5/lfs.c:1699:34
	adds	r0, #2
	cbz	r0, .LBB7_40
	b	.LBB7_38
.LBB7_38:
	.loc	3 1699 42                       @ packages/littlefs-v2.0.5/lfs.c:1699:42
	ldrb.w	r0, [sp, #191]
.Ltmp170:
	.loc	3 1699 13                       @ packages/littlefs-v2.0.5/lfs.c:1699:13
	lsls	r0, r0, #31
	cbz	r0, .LBB7_40
	b	.LBB7_39
.LBB7_39:
.Ltmp171:
	.loc	3 1700 33 is_stmt 1             @ packages/littlefs-v2.0.5/lfs.c:1700:33
	ldr	r0, [sp, #232]
	.loc	3 1700 45 is_stmt 0             @ packages/littlefs-v2.0.5/lfs.c:1700:45
	ldr	r2, [sp, #228]
	add	r1, sp, #168
	.loc	3 1700 20                       @ packages/littlefs-v2.0.5/lfs.c:1700:20
	bl	lfs_dir_drop
	.loc	3 1700 13                       @ packages/littlefs-v2.0.5/lfs.c:1700:13
	str	r0, [sp, #236]
	b	.LBB7_96
.Ltmp172:
.LBB7_40:
	.loc	3 1702 5 is_stmt 1              @ packages/littlefs-v2.0.5/lfs.c:1702:5
	b	.LBB7_41
.Ltmp173:
.LBB7_41:
	.loc	3 1704 9                        @ packages/littlefs-v2.0.5/lfs.c:1704:9
	ldr	r0, [sp, #228]
	.loc	3 1704 14 is_stmt 0             @ packages/littlefs-v2.0.5/lfs.c:1704:14
	ldrb	r0, [r0, #22]
	.loc	3 1704 21                       @ packages/littlefs-v2.0.5/lfs.c:1704:21
	lsls	r0, r0, #31
	cbnz	r0, .LBB7_43
	b	.LBB7_42
.LBB7_42:
	.loc	3 1704 24                       @ packages/littlefs-v2.0.5/lfs.c:1704:24
	ldr	r0, [sp, #228]
	.loc	3 1704 29                       @ packages/littlefs-v2.0.5/lfs.c:1704:29
	ldrh	r0, [r0, #20]
.Ltmp174:
	.loc	3 1704 9                        @ packages/littlefs-v2.0.5/lfs.c:1704:9
	cmp	r0, #255
	blt.w	.LBB7_65
	b	.LBB7_43
.LBB7_43:
.Ltmp175:
	.loc	3 1707 22 is_stmt 1             @ packages/littlefs-v2.0.5/lfs.c:1707:22
	ldr	r0, [sp, #228]
	ldr	r0, [r0]
	.loc	3 1706 36                       @ packages/littlefs-v2.0.5/lfs.c:1706:36
	str	r0, [sp, #140]
	.loc	3 1708 20                       @ packages/littlefs-v2.0.5/lfs.c:1708:20
	ldr	r0, [sp, #228]
	.loc	3 1708 25 is_stmt 0             @ packages/littlefs-v2.0.5/lfs.c:1708:25
	ldr	r0, [r0, #12]
	.loc	3 1706 36 is_stmt 1             @ packages/littlefs-v2.0.5/lfs.c:1706:36
	str	r0, [sp, #144]
	.loc	3 1709 21                       @ packages/littlefs-v2.0.5/lfs.c:1709:21
	ldr	r0, [sp, #228]
	.loc	3 1709 26 is_stmt 0             @ packages/littlefs-v2.0.5/lfs.c:1709:26
	ldr	r0, [r0, #16]
	.loc	3 1706 36 is_stmt 1             @ packages/littlefs-v2.0.5/lfs.c:1706:36
	str	r0, [sp, #148]
	mov.w	r0, #-1
	str	r0, [sp, #152]
	.loc	3 1712 22                       @ packages/littlefs-v2.0.5/lfs.c:1712:22
	ldr	r0, [sp, #228]
	.loc	3 1712 27 is_stmt 0             @ packages/littlefs-v2.0.5/lfs.c:1712:27
	ldr	r0, [r0, #12]
	.loc	3 1706 36 is_stmt 1             @ packages/littlefs-v2.0.5/lfs.c:1706:36
	str	r0, [sp, #156]
	.loc	3 1713 20                       @ packages/littlefs-v2.0.5/lfs.c:1713:20
	ldr	r0, [sp, #232]
	.loc	3 1713 25 is_stmt 0             @ packages/littlefs-v2.0.5/lfs.c:1713:25
	ldr	r0, [r0, #104]
	.loc	3 1713 30                       @ packages/littlefs-v2.0.5/lfs.c:1713:30
	ldr	r0, [r0, #28]
	.loc	3 1713 41                       @ packages/littlefs-v2.0.5/lfs.c:1713:41
	subs	r0, #8
	.loc	3 1706 36 is_stmt 1             @ packages/littlefs-v2.0.5/lfs.c:1706:36
	str	r0, [sp, #160]
	.loc	3 1717 25                       @ packages/littlefs-v2.0.5/lfs.c:1717:25
	ldr	r0, [sp, #228]
	.loc	3 1717 30 is_stmt 0             @ packages/littlefs-v2.0.5/lfs.c:1717:30
	adds	r0, #24
	.loc	3 1717 9                        @ packages/littlefs-v2.0.5/lfs.c:1717:9
	bl	lfs_pair_tole32
	.loc	3 1718 36 is_stmt 1             @ packages/littlefs-v2.0.5/lfs.c:1718:36
	ldr	r0, [sp, #232]
	.loc	3 1719 17                       @ packages/littlefs-v2.0.5/lfs.c:1719:17
	ldr	r1, [sp, #228]
	.loc	3 1719 27 is_stmt 0             @ packages/littlefs-v2.0.5/lfs.c:1719:27
	ldr	r2, [r1, #12]
	.loc	3 1719 37                       @ packages/littlefs-v2.0.5/lfs.c:1719:37
	ldr	r3, [r1, #16]
	.loc	3 1719 43                       @ packages/littlefs-v2.0.5/lfs.c:1719:43
	ldr.w	r12, [sp, #224]
	.loc	3 1719 50                       @ packages/littlefs-v2.0.5/lfs.c:1719:50
	ldr	r4, [sp, #220]
	.loc	3 1721 71 is_stmt 1             @ packages/littlefs-v2.0.5/lfs.c:1721:71
	str	r0, [sp, #128]
	add.w	lr, sp, #140
	str.w	lr, [sp, #132]
	.loc	3 1718 19                       @ packages/littlefs-v2.0.5/lfs.c:1718:19
	mov	lr, sp
	str.w	lr, [sp, #68]                   @ 4-byte Spill
	add	r5, sp, #128
	str.w	r5, [lr, #36]
	movw	r5, :lower16:lfs_dir_commit_commit
	movt	r5, :upper16:lfs_dir_commit_commit
	str.w	r5, [lr, #32]
	movs	r5, #0
	str.w	r5, [lr, #28]
	str.w	r5, [lr, #24]
	str.w	r5, [lr, #20]
	str.w	r5, [lr, #16]
	str.w	r5, [lr, #12]
	str.w	r5, [lr, #8]
	str.w	r4, [lr, #4]
	str.w	r12, [lr]
	bl	lfs_dir_traverse
	.loc	3 1718 13 is_stmt 0             @ packages/littlefs-v2.0.5/lfs.c:1718:13
	str	r0, [sp, #136]
	.loc	3 1723 27 is_stmt 1             @ packages/littlefs-v2.0.5/lfs.c:1723:27
	ldr	r0, [sp, #228]
	.loc	3 1723 32 is_stmt 0             @ packages/littlefs-v2.0.5/lfs.c:1723:32
	adds	r0, #24
	.loc	3 1723 9                        @ packages/littlefs-v2.0.5/lfs.c:1723:9
	bl	lfs_pair_fromle32
.Ltmp176:
	.loc	3 1724 13 is_stmt 1             @ packages/littlefs-v2.0.5/lfs.c:1724:13
	ldr	r0, [sp, #136]
.Ltmp177:
	.loc	3 1724 13 is_stmt 0             @ packages/littlefs-v2.0.5/lfs.c:1724:13
	cbz	r0, .LBB7_48
	b	.LBB7_44
.LBB7_44:
.Ltmp178:
	.loc	3 1725 17 is_stmt 1             @ packages/littlefs-v2.0.5/lfs.c:1725:17
	ldr	r0, [sp, #136]
	.loc	3 1725 38 is_stmt 0             @ packages/littlefs-v2.0.5/lfs.c:1725:38
	adds	r0, #28
	cbz	r0, .LBB7_46
	b	.LBB7_45
.LBB7_45:
	.loc	3 1725 41                       @ packages/littlefs-v2.0.5/lfs.c:1725:41
	ldr	r0, [sp, #136]
.Ltmp179:
	.loc	3 1725 17                       @ packages/littlefs-v2.0.5/lfs.c:1725:17
	adds	r0, #84
	cbnz	r0, .LBB7_47
	b	.LBB7_46
.LBB7_46:
.Ltmp180:
	.loc	3 1726 17 is_stmt 1             @ packages/littlefs-v2.0.5/lfs.c:1726:17
	b	.LBB7_66
.Ltmp181:
.LBB7_47:
	.loc	3 1728 20                       @ packages/littlefs-v2.0.5/lfs.c:1728:20
	ldr	r0, [sp, #136]
	.loc	3 1728 13 is_stmt 0             @ packages/littlefs-v2.0.5/lfs.c:1728:13
	str	r0, [sp, #236]
	b	.LBB7_96
.Ltmp182:
.LBB7_48:
	.loc	3 1732 33 is_stmt 1             @ packages/littlefs-v2.0.5/lfs.c:1732:33
	ldr	r0, [sp, #232]
	.loc	3 1732 38 is_stmt 0             @ packages/littlefs-v2.0.5/lfs.c:1732:38
	adds	r0, #72
	.loc	3 1732 14                       @ packages/littlefs-v2.0.5/lfs.c:1732:14
	bl	lfs_gstate_iszero
.Ltmp183:
	.loc	3 1732 13                       @ packages/littlefs-v2.0.5/lfs.c:1732:13
	cbnz	r0, .LBB7_57
	b	.LBB7_49
.LBB7_49:
.Ltmp184:
	.loc	3 1733 37 is_stmt 1             @ packages/littlefs-v2.0.5/lfs.c:1733:37
	ldr	r0, [sp, #232]
	.loc	3 1733 42 is_stmt 0             @ packages/littlefs-v2.0.5/lfs.c:1733:42
	ldr	r1, [sp, #228]
	.loc	3 1733 53                       @ packages/littlefs-v2.0.5/lfs.c:1733:53
	add.w	r2, r0, #72
	.loc	3 1733 19                       @ packages/littlefs-v2.0.5/lfs.c:1733:19
	bl	lfs_dir_getgstate
	.loc	3 1733 17                       @ packages/littlefs-v2.0.5/lfs.c:1733:17
	str	r0, [sp, #136]
.Ltmp185:
	.loc	3 1734 17 is_stmt 1             @ packages/littlefs-v2.0.5/lfs.c:1734:17
	ldr	r0, [sp, #136]
.Ltmp186:
	.loc	3 1734 17 is_stmt 0             @ packages/littlefs-v2.0.5/lfs.c:1734:17
	cbz	r0, .LBB7_51
	b	.LBB7_50
.LBB7_50:
.Ltmp187:
	.loc	3 1735 24 is_stmt 1             @ packages/littlefs-v2.0.5/lfs.c:1735:24
	ldr	r0, [sp, #136]
	.loc	3 1735 17 is_stmt 0             @ packages/littlefs-v2.0.5/lfs.c:1735:17
	str	r0, [sp, #236]
	b	.LBB7_96
.Ltmp188:
.LBB7_51:
	.loc	3 1738 32 is_stmt 1             @ packages/littlefs-v2.0.5/lfs.c:1738:32
	ldr	r0, [sp, #232]
	.loc	3 1738 37 is_stmt 0             @ packages/littlefs-v2.0.5/lfs.c:1738:37
	adds	r0, #72
	.loc	3 1738 13                       @ packages/littlefs-v2.0.5/lfs.c:1738:13
	bl	lfs_gstate_tole32
	.loc	3 1739 38 is_stmt 1             @ packages/littlefs-v2.0.5/lfs.c:1739:38
	ldr	r0, [sp, #232]
	.loc	3 1741 53                       @ packages/littlefs-v2.0.5/lfs.c:1741:53
	add.w	r3, r0, #72
	add	r1, sp, #140
	movw	r2, #64524
	movt	r2, #32767
	.loc	3 1739 19                       @ packages/littlefs-v2.0.5/lfs.c:1739:19
	bl	lfs_dir_commitattr
	.loc	3 1739 17 is_stmt 0             @ packages/littlefs-v2.0.5/lfs.c:1739:17
	str	r0, [sp, #136]
	.loc	3 1742 34 is_stmt 1             @ packages/littlefs-v2.0.5/lfs.c:1742:34
	ldr	r0, [sp, #232]
	.loc	3 1742 39 is_stmt 0             @ packages/littlefs-v2.0.5/lfs.c:1742:39
	adds	r0, #72
	.loc	3 1742 13                       @ packages/littlefs-v2.0.5/lfs.c:1742:13
	bl	lfs_gstate_fromle32
.Ltmp189:
	.loc	3 1743 17 is_stmt 1             @ packages/littlefs-v2.0.5/lfs.c:1743:17
	ldr	r0, [sp, #136]
.Ltmp190:
	.loc	3 1743 17 is_stmt 0             @ packages/littlefs-v2.0.5/lfs.c:1743:17
	cbz	r0, .LBB7_56
	b	.LBB7_52
.LBB7_52:
.Ltmp191:
	.loc	3 1744 21 is_stmt 1             @ packages/littlefs-v2.0.5/lfs.c:1744:21
	ldr	r0, [sp, #136]
	.loc	3 1744 42 is_stmt 0             @ packages/littlefs-v2.0.5/lfs.c:1744:42
	adds	r0, #28
	cbz	r0, .LBB7_54
	b	.LBB7_53
.LBB7_53:
	.loc	3 1744 45                       @ packages/littlefs-v2.0.5/lfs.c:1744:45
	ldr	r0, [sp, #136]
.Ltmp192:
	.loc	3 1744 21                       @ packages/littlefs-v2.0.5/lfs.c:1744:21
	adds	r0, #84
	cbnz	r0, .LBB7_55
	b	.LBB7_54
.LBB7_54:
.Ltmp193:
	.loc	3 1745 21 is_stmt 1             @ packages/littlefs-v2.0.5/lfs.c:1745:21
	b	.LBB7_66
.Ltmp194:
.LBB7_55:
	.loc	3 1747 24                       @ packages/littlefs-v2.0.5/lfs.c:1747:24
	ldr	r0, [sp, #136]
	.loc	3 1747 17 is_stmt 0             @ packages/littlefs-v2.0.5/lfs.c:1747:17
	str	r0, [sp, #236]
	b	.LBB7_96
.Ltmp195:
.LBB7_56:
	.loc	3 1749 9 is_stmt 1              @ packages/littlefs-v2.0.5/lfs.c:1749:9
	b	.LBB7_57
.Ltmp196:
.LBB7_57:
	.loc	3 1752 33                       @ packages/littlefs-v2.0.5/lfs.c:1752:33
	ldr	r0, [sp, #232]
	add	r1, sp, #140
	.loc	3 1752 15 is_stmt 0             @ packages/littlefs-v2.0.5/lfs.c:1752:15
	bl	lfs_dir_commitcrc
	.loc	3 1752 13                       @ packages/littlefs-v2.0.5/lfs.c:1752:13
	str	r0, [sp, #136]
.Ltmp197:
	.loc	3 1753 13 is_stmt 1             @ packages/littlefs-v2.0.5/lfs.c:1753:13
	ldr	r0, [sp, #136]
.Ltmp198:
	.loc	3 1753 13 is_stmt 0             @ packages/littlefs-v2.0.5/lfs.c:1753:13
	cbz	r0, .LBB7_62
	b	.LBB7_58
.LBB7_58:
.Ltmp199:
	.loc	3 1754 17 is_stmt 1             @ packages/littlefs-v2.0.5/lfs.c:1754:17
	ldr	r0, [sp, #136]
	.loc	3 1754 38 is_stmt 0             @ packages/littlefs-v2.0.5/lfs.c:1754:38
	adds	r0, #28
	cbz	r0, .LBB7_60
	b	.LBB7_59
.LBB7_59:
	.loc	3 1754 41                       @ packages/littlefs-v2.0.5/lfs.c:1754:41
	ldr	r0, [sp, #136]
.Ltmp200:
	.loc	3 1754 17                       @ packages/littlefs-v2.0.5/lfs.c:1754:17
	adds	r0, #84
	cbnz	r0, .LBB7_61
	b	.LBB7_60
.LBB7_60:
.Ltmp201:
	.loc	3 1755 17 is_stmt 1             @ packages/littlefs-v2.0.5/lfs.c:1755:17
	b	.LBB7_66
.Ltmp202:
.LBB7_61:
	.loc	3 1757 20                       @ packages/littlefs-v2.0.5/lfs.c:1757:20
	ldr	r0, [sp, #136]
	.loc	3 1757 13 is_stmt 0             @ packages/littlefs-v2.0.5/lfs.c:1757:13
	str	r0, [sp, #236]
	b	.LBB7_96
.Ltmp203:
.LBB7_62:
	.loc	3 1761 27 is_stmt 1             @ packages/littlefs-v2.0.5/lfs.c:1761:27
	ldr	r0, [sp, #144]
	.loc	3 1761 9 is_stmt 0              @ packages/littlefs-v2.0.5/lfs.c:1761:9
	ldr	r1, [sp, #228]
	.loc	3 1761 18                       @ packages/littlefs-v2.0.5/lfs.c:1761:18
	str	r0, [r1, #12]
	.loc	3 1762 28 is_stmt 1             @ packages/littlefs-v2.0.5/lfs.c:1762:28
	ldr	r0, [sp, #148]
	.loc	3 1762 9 is_stmt 0              @ packages/littlefs-v2.0.5/lfs.c:1762:9
	ldr	r1, [sp, #228]
	.loc	3 1762 19                       @ packages/littlefs-v2.0.5/lfs.c:1762:19
	str	r0, [r1, #16]
.Ltmp204:
	.loc	3 1765 37 is_stmt 1             @ packages/littlefs-v2.0.5/lfs.c:1765:37
	ldr	r0, [sp, #232]
	.loc	3 1765 42 is_stmt 0             @ packages/littlefs-v2.0.5/lfs.c:1765:42
	adds	r0, #60
	.loc	3 1765 52                       @ packages/littlefs-v2.0.5/lfs.c:1765:52
	ldr	r1, [sp, #228]
	.loc	3 1765 13                       @ packages/littlefs-v2.0.5/lfs.c:1765:13
	bl	lfs_gstate_hasmovehere
.Ltmp205:
	.loc	3 1765 13                       @ packages/littlefs-v2.0.5/lfs.c:1765:13
	cbz	r0, .LBB7_64
	b	.LBB7_63
.LBB7_63:
.Ltmp206:
	.loc	3 1766 33 is_stmt 1             @ packages/littlefs-v2.0.5/lfs.c:1766:33
	ldr	r0, [sp, #232]
	.loc	3 1766 38 is_stmt 0             @ packages/littlefs-v2.0.5/lfs.c:1766:38
	add.w	r1, r0, #60
	movw	r2, #1023
	movs	r3, #0
	.loc	3 1766 13                       @ packages/littlefs-v2.0.5/lfs.c:1766:13
	mov	r0, r1
	bl	lfs_gstate_xormove
	.loc	3 1767 9 is_stmt 1              @ packages/littlefs-v2.0.5/lfs.c:1767:9
	b	.LBB7_64
.Ltmp207:
.LBB7_64:
	.loc	3 1770 9                        @ packages/littlefs-v2.0.5/lfs.c:1770:9
	ldr	r1, [sp, #232]
	.loc	3 1770 28 is_stmt 0             @ packages/littlefs-v2.0.5/lfs.c:1770:28
	ldr	r0, [r1, #60]
	ldr	r2, [r1, #64]
	ldr	r3, [r1, #68]
	str	r3, [r1, #56]
	str	r2, [r1, #52]
	str	r0, [r1, #48]
	.loc	3 1771 9 is_stmt 1              @ packages/littlefs-v2.0.5/lfs.c:1771:9
	ldr	r1, [sp, #232]
	movs	r0, #0
	.loc	3 1771 42 is_stmt 0             @ packages/littlefs-v2.0.5/lfs.c:1771:42
	str	r0, [sp, #116]
	str	r0, [sp, #124]
	str	r0, [sp, #120]
	.loc	3 1771 23                       @ packages/littlefs-v2.0.5/lfs.c:1771:23
	ldr	r0, [sp, #116]
	ldr	r2, [sp, #120]
	ldr	r3, [sp, #124]
	str	r3, [r1, #80]
	str	r2, [r1, #76]
	str	r0, [r1, #72]
	.loc	3 1772 5 is_stmt 1              @ packages/littlefs-v2.0.5/lfs.c:1772:5
	b	.LBB7_69
.Ltmp208:
.LBB7_65:
	.loc	3 1772 12 is_stmt 0             @ packages/littlefs-v2.0.5/lfs.c:1772:12
	b	.LBB7_66
.LBB7_66:
.Ltmp209:
	@DEBUG_LABEL: compact
	.loc	3 1775 24 is_stmt 1             @ packages/littlefs-v2.0.5/lfs.c:1775:24
	ldr	r0, [sp, #232]
	.loc	3 1775 35 is_stmt 0             @ packages/littlefs-v2.0.5/lfs.c:1775:35
	add.w	r1, r0, #16
	.loc	3 1775 9                        @ packages/littlefs-v2.0.5/lfs.c:1775:9
	bl	lfs_cache_drop
	.loc	3 1777 35 is_stmt 1             @ packages/littlefs-v2.0.5/lfs.c:1777:35
	ldr	r0, [sp, #232]
	.loc	3 1777 40 is_stmt 0             @ packages/littlefs-v2.0.5/lfs.c:1777:40
	ldr	r1, [sp, #228]
	.loc	3 1777 45                       @ packages/littlefs-v2.0.5/lfs.c:1777:45
	ldr	r2, [sp, #224]
	.loc	3 1777 52                       @ packages/littlefs-v2.0.5/lfs.c:1777:52
	ldr	r3, [sp, #220]
	.loc	3 1778 30 is_stmt 1             @ packages/littlefs-v2.0.5/lfs.c:1778:30
	ldrh.w	lr, [r1, #20]
	.loc	3 1777 19                       @ packages/littlefs-v2.0.5/lfs.c:1777:19
	mov	r12, sp
	str.w	lr, [r12, #8]
	mov.w	lr, #0
	str.w	lr, [r12, #4]
	str.w	r1, [r12]
	bl	lfs_dir_compact
	.loc	3 1777 13 is_stmt 0             @ packages/littlefs-v2.0.5/lfs.c:1777:13
	str	r0, [sp, #112]
.Ltmp210:
	.loc	3 1779 13 is_stmt 1             @ packages/littlefs-v2.0.5/lfs.c:1779:13
	ldr	r0, [sp, #112]
.Ltmp211:
	.loc	3 1779 13 is_stmt 0             @ packages/littlefs-v2.0.5/lfs.c:1779:13
	cbz	r0, .LBB7_68
	b	.LBB7_67
.LBB7_67:
.Ltmp212:
	.loc	3 1780 20 is_stmt 1             @ packages/littlefs-v2.0.5/lfs.c:1780:20
	ldr	r0, [sp, #112]
	.loc	3 1780 13 is_stmt 0             @ packages/littlefs-v2.0.5/lfs.c:1780:13
	str	r0, [sp, #236]
	b	.LBB7_96
.Ltmp213:
.LBB7_68:
	.loc	3 0 13                          @ packages/littlefs-v2.0.5/lfs.c:0:13
	b	.LBB7_69
.LBB7_69:
	.loc	3 1785 24 is_stmt 1             @ packages/littlefs-v2.0.5/lfs.c:1785:24
	ldr	r1, [sp, #228]
	.loc	3 1785 23 is_stmt 0             @ packages/littlefs-v2.0.5/lfs.c:1785:23
	str	r1, [sp, #64]                   @ 4-byte Spill
	ldr	r0, [r1]
	ldr	r2, [r1, #4]
	ldr	r3, [r1, #8]
	ldr.w	r12, [r1, #12]
	ldr.w	lr, [r1, #16]
	ldr	r4, [r1, #20]
	str	r4, [sp, #100]
	str.w	lr, [sp, #96]
	str.w	r12, [sp, #92]
	str	r3, [sp, #88]
	str	r2, [sp, #84]
	str	r0, [sp, #80]
	ldr	r0, [r1, #24]
	ldr	r1, [r1, #28]
	str	r1, [sp, #108]
	str	r0, [sp, #104]
.Ltmp214:
	.loc	3 1789 32 is_stmt 1             @ packages/littlefs-v2.0.5/lfs.c:1789:32
	ldr	r0, [sp, #232]
	.loc	3 1789 37 is_stmt 0             @ packages/littlefs-v2.0.5/lfs.c:1789:37
	ldr	r0, [r0, #40]
	.loc	3 1789 28                       @ packages/littlefs-v2.0.5/lfs.c:1789:28
	str	r0, [sp, #76]
	.loc	3 1789 10                       @ packages/littlefs-v2.0.5/lfs.c:1789:10
	b	.LBB7_70
.LBB7_70:                               @ =>This Loop Header: Depth=1
                                        @     Child Loop BB7_86 Depth 2
.Ltmp215:
	.loc	3 1789 44                       @ packages/littlefs-v2.0.5/lfs.c:1789:44
	ldr	r0, [sp, #76]
.Ltmp216:
	.loc	3 1789 5                        @ packages/littlefs-v2.0.5/lfs.c:1789:5
	cmp	r0, #0
	beq.w	.LBB7_95
	b	.LBB7_71
.LBB7_71:                               @   in Loop: Header=BB7_70 Depth=1
.Ltmp217:
	.loc	3 1790 26 is_stmt 1             @ packages/littlefs-v2.0.5/lfs.c:1790:26
	ldr	r0, [sp, #76]
	.loc	3 1790 29 is_stmt 0             @ packages/littlefs-v2.0.5/lfs.c:1790:29
	adds	r0, #8
	add	r1, sp, #80
	.loc	3 1790 13                       @ packages/littlefs-v2.0.5/lfs.c:1790:13
	bl	lfs_pair_cmp
.Ltmp218:
	.loc	3 1790 13                       @ packages/littlefs-v2.0.5/lfs.c:1790:13
	cmp	r0, #0
	bne.w	.LBB7_93
	b	.LBB7_72
.LBB7_72:                               @   in Loop: Header=BB7_70 Depth=1
.Ltmp219:
	.loc	3 1791 13 is_stmt 1             @ packages/littlefs-v2.0.5/lfs.c:1791:13
	ldr	r1, [sp, #76]
	.loc	3 1791 21 is_stmt 0             @ packages/littlefs-v2.0.5/lfs.c:1791:21
	str	r1, [sp, #52]                   @ 4-byte Spill
	ldr	r2, [sp, #228]
	.loc	3 1791 20                       @ packages/littlefs-v2.0.5/lfs.c:1791:20
	str	r2, [sp, #56]                   @ 4-byte Spill
	ldr	r0, [r2]
	ldr	r3, [r2, #4]
	ldr.w	r12, [r2, #8]
	ldr.w	lr, [r2, #12]
	ldr	r4, [r2, #16]
	ldr	r5, [r2, #20]
	str	r5, [r1, #28]
	str	r4, [r1, #24]
	str.w	lr, [r1, #20]
	str.w	r12, [r1, #16]
	str	r3, [r1, #12]
	str	r0, [r1, #8]
	ldr	r0, [r2, #24]
	ldr	r2, [r2, #28]
	str	r2, [r1, #36]
	str	r0, [r1, #32]
.Ltmp220:
	.loc	3 1792 17 is_stmt 1             @ packages/littlefs-v2.0.5/lfs.c:1792:17
	ldr	r0, [sp, #76]
	.loc	3 1792 20 is_stmt 0             @ packages/littlefs-v2.0.5/lfs.c:1792:20
	ldrh	r0, [r0, #4]
	.loc	3 1792 37                       @ packages/littlefs-v2.0.5/lfs.c:1792:37
	str	r0, [sp, #60]                   @ 4-byte Spill
	ldr	r0, [sp, #208]
	.loc	3 1792 26                       @ packages/littlefs-v2.0.5/lfs.c:1792:26
	bl	lfs_tag_id
	mov	r1, r0
.Ltmp221:
	.loc	3 1792 17                       @ packages/littlefs-v2.0.5/lfs.c:1792:17
	ldr	r0, [sp, #60]                   @ 4-byte Reload
	cmp	r0, r1
	bne	.LBB7_74
	b	.LBB7_73
.LBB7_73:                               @   in Loop: Header=BB7_70 Depth=1
.Ltmp222:
	.loc	3 1793 17 is_stmt 1             @ packages/littlefs-v2.0.5/lfs.c:1793:17
	ldr	r1, [sp, #76]
	mov.w	r0, #-1
	.loc	3 1793 30 is_stmt 0             @ packages/littlefs-v2.0.5/lfs.c:1793:30
	str	r0, [r1, #8]
	.loc	3 1794 17 is_stmt 1             @ packages/littlefs-v2.0.5/lfs.c:1794:17
	ldr	r1, [sp, #76]
	.loc	3 1794 30 is_stmt 0             @ packages/littlefs-v2.0.5/lfs.c:1794:30
	str	r0, [r1, #12]
	.loc	3 1795 13 is_stmt 1             @ packages/littlefs-v2.0.5/lfs.c:1795:13
	b	.LBB7_85
.Ltmp223:
.LBB7_74:                               @   in Loop: Header=BB7_70 Depth=1
	.loc	3 1795 24 is_stmt 0             @ packages/littlefs-v2.0.5/lfs.c:1795:24
	ldr	r0, [sp, #76]
	.loc	3 1795 27                       @ packages/littlefs-v2.0.5/lfs.c:1795:27
	ldrh	r0, [r0, #4]
	.loc	3 1795 43                       @ packages/littlefs-v2.0.5/lfs.c:1795:43
	str	r0, [sp, #48]                   @ 4-byte Spill
	ldr	r0, [sp, #208]
	.loc	3 1795 32                       @ packages/littlefs-v2.0.5/lfs.c:1795:32
	bl	lfs_tag_id
	mov	r1, r0
.Ltmp224:
	.loc	3 1795 24                       @ packages/littlefs-v2.0.5/lfs.c:1795:24
	ldr	r0, [sp, #48]                   @ 4-byte Reload
	cmp	r0, r1
	ble	.LBB7_78
	b	.LBB7_75
.LBB7_75:                               @   in Loop: Header=BB7_70 Depth=1
.Ltmp225:
	.loc	3 1796 17 is_stmt 1             @ packages/littlefs-v2.0.5/lfs.c:1796:17
	ldr	r1, [sp, #76]
	.loc	3 1796 23 is_stmt 0             @ packages/littlefs-v2.0.5/lfs.c:1796:23
	ldrh	r0, [r1, #4]
	subs	r0, #1
	strh	r0, [r1, #4]
.Ltmp226:
	.loc	3 1797 21 is_stmt 1             @ packages/littlefs-v2.0.5/lfs.c:1797:21
	ldr	r0, [sp, #76]
	.loc	3 1797 24 is_stmt 0             @ packages/littlefs-v2.0.5/lfs.c:1797:24
	ldrb	r0, [r0, #6]
.Ltmp227:
	.loc	3 1797 21                       @ packages/littlefs-v2.0.5/lfs.c:1797:21
	cmp	r0, #2
	bne	.LBB7_77
	b	.LBB7_76
.LBB7_76:                               @   in Loop: Header=BB7_70 Depth=1
.Ltmp228:
	.loc	3 1798 34 is_stmt 1             @ packages/littlefs-v2.0.5/lfs.c:1798:34
	ldr	r1, [sp, #76]
	.loc	3 1798 42 is_stmt 0             @ packages/littlefs-v2.0.5/lfs.c:1798:42
	ldr	r0, [r1, #40]
	subs	r0, #1
	str	r0, [r1, #40]
	.loc	3 1799 17 is_stmt 1             @ packages/littlefs-v2.0.5/lfs.c:1799:17
	b	.LBB7_77
.Ltmp229:
.LBB7_77:                               @   in Loop: Header=BB7_70 Depth=1
	.loc	3 1800 13                       @ packages/littlefs-v2.0.5/lfs.c:1800:13
	b	.LBB7_84
.Ltmp230:
.LBB7_78:                               @   in Loop: Header=BB7_70 Depth=1
	.loc	3 1800 25 is_stmt 0             @ packages/littlefs-v2.0.5/lfs.c:1800:25
	ldr	r0, [sp, #76]
	.loc	3 1800 28                       @ packages/littlefs-v2.0.5/lfs.c:1800:28
	adds	r0, #8
	.loc	3 1800 33                       @ packages/littlefs-v2.0.5/lfs.c:1800:33
	ldr	r1, [sp, #228]
	.loc	3 1800 37                       @ packages/littlefs-v2.0.5/lfs.c:1800:37
	cmp	r0, r1
	beq	.LBB7_83
	b	.LBB7_79
.LBB7_79:                               @   in Loop: Header=BB7_70 Depth=1
	.loc	3 1800 40                       @ packages/littlefs-v2.0.5/lfs.c:1800:40
	ldr	r0, [sp, #76]
	.loc	3 1800 43                       @ packages/littlefs-v2.0.5/lfs.c:1800:43
	ldrh	r0, [r0, #4]
	.loc	3 1800 60                       @ packages/littlefs-v2.0.5/lfs.c:1800:60
	str	r0, [sp, #44]                   @ 4-byte Spill
	ldr	r0, [sp, #204]
	.loc	3 1800 49                       @ packages/littlefs-v2.0.5/lfs.c:1800:49
	bl	lfs_tag_id
	mov	r1, r0
.Ltmp231:
	.loc	3 1800 24                       @ packages/littlefs-v2.0.5/lfs.c:1800:24
	ldr	r0, [sp, #44]                   @ 4-byte Reload
	cmp	r0, r1
	blt	.LBB7_83
	b	.LBB7_80
.LBB7_80:                               @   in Loop: Header=BB7_70 Depth=1
.Ltmp232:
	.loc	3 1801 17 is_stmt 1             @ packages/littlefs-v2.0.5/lfs.c:1801:17
	ldr	r1, [sp, #76]
	.loc	3 1801 23 is_stmt 0             @ packages/littlefs-v2.0.5/lfs.c:1801:23
	ldrh	r0, [r1, #4]
	adds	r0, #1
	strh	r0, [r1, #4]
.Ltmp233:
	.loc	3 1802 21 is_stmt 1             @ packages/littlefs-v2.0.5/lfs.c:1802:21
	ldr	r0, [sp, #76]
	.loc	3 1802 24 is_stmt 0             @ packages/littlefs-v2.0.5/lfs.c:1802:24
	ldrb	r0, [r0, #6]
.Ltmp234:
	.loc	3 1802 21                       @ packages/littlefs-v2.0.5/lfs.c:1802:21
	cmp	r0, #2
	bne	.LBB7_82
	b	.LBB7_81
.LBB7_81:                               @   in Loop: Header=BB7_70 Depth=1
.Ltmp235:
	.loc	3 1803 34 is_stmt 1             @ packages/littlefs-v2.0.5/lfs.c:1803:34
	ldr	r1, [sp, #76]
	.loc	3 1803 42 is_stmt 0             @ packages/littlefs-v2.0.5/lfs.c:1803:42
	ldr	r0, [r1, #40]
	adds	r0, #1
	str	r0, [r1, #40]
	.loc	3 1804 17 is_stmt 1             @ packages/littlefs-v2.0.5/lfs.c:1804:17
	b	.LBB7_82
.Ltmp236:
.LBB7_82:                               @   in Loop: Header=BB7_70 Depth=1
	.loc	3 1805 13                       @ packages/littlefs-v2.0.5/lfs.c:1805:13
	b	.LBB7_83
.Ltmp237:
.LBB7_83:                               @   in Loop: Header=BB7_70 Depth=1
	.loc	3 0 13 is_stmt 0                @ packages/littlefs-v2.0.5/lfs.c:0:13
	b	.LBB7_84
.LBB7_84:                               @   in Loop: Header=BB7_70 Depth=1
	b	.LBB7_85
.LBB7_85:                               @   in Loop: Header=BB7_70 Depth=1
	.loc	3 1807 13 is_stmt 1             @ packages/littlefs-v2.0.5/lfs.c:1807:13
	b	.LBB7_86
.LBB7_86:                               @   Parent Loop BB7_70 Depth=1
                                        @ =>  This Inner Loop Header: Depth=2
	.loc	3 1807 20 is_stmt 0             @ packages/littlefs-v2.0.5/lfs.c:1807:20
	ldr	r0, [sp, #76]
	.loc	3 1807 23                       @ packages/littlefs-v2.0.5/lfs.c:1807:23
	ldrh	r1, [r0, #4]
	.loc	3 1807 34                       @ packages/littlefs-v2.0.5/lfs.c:1807:34
	ldrh	r2, [r0, #28]
	movs	r0, #0
	.loc	3 1807 40                       @ packages/littlefs-v2.0.5/lfs.c:1807:40
	cmp	r1, r2
	str	r0, [sp, #40]                   @ 4-byte Spill
	blt	.LBB7_88
	b	.LBB7_87
.LBB7_87:                               @   in Loop: Header=BB7_86 Depth=2
	.loc	3 1807 43                       @ packages/littlefs-v2.0.5/lfs.c:1807:43
	ldr	r0, [sp, #76]
	.loc	3 1807 48                       @ packages/littlefs-v2.0.5/lfs.c:1807:48
	ldrb	r0, [r0, #31]
	str	r0, [sp, #40]                   @ 4-byte Spill
	b	.LBB7_88
.LBB7_88:                               @   in Loop: Header=BB7_86 Depth=2
	.loc	3 0 0                           @ packages/littlefs-v2.0.5/lfs.c:0:0
	ldr	r0, [sp, #40]                   @ 4-byte Reload
	.loc	3 1807 13                       @ packages/littlefs-v2.0.5/lfs.c:1807:13
	lsls	r0, r0, #31
	cbz	r0, .LBB7_92
	b	.LBB7_89
.LBB7_89:                               @   in Loop: Header=BB7_86 Depth=2
.Ltmp238:
	.loc	3 1809 26 is_stmt 1             @ packages/littlefs-v2.0.5/lfs.c:1809:26
	ldr	r1, [sp, #76]
	ldrh	r2, [r1, #28]
	.loc	3 1809 23 is_stmt 0             @ packages/littlefs-v2.0.5/lfs.c:1809:23
	ldrh	r0, [r1, #4]
	subs	r0, r0, r2
	strh	r0, [r1, #4]
	.loc	3 1810 41 is_stmt 1             @ packages/littlefs-v2.0.5/lfs.c:1810:41
	ldr	r0, [sp, #232]
	.loc	3 1810 47 is_stmt 0             @ packages/littlefs-v2.0.5/lfs.c:1810:47
	ldr	r2, [sp, #76]
	.loc	3 1810 50                       @ packages/littlefs-v2.0.5/lfs.c:1810:50
	add.w	r1, r2, #8
	.loc	3 1810 58                       @ packages/littlefs-v2.0.5/lfs.c:1810:58
	adds	r2, #32
	.loc	3 1810 27                       @ packages/littlefs-v2.0.5/lfs.c:1810:27
	bl	lfs_dir_fetch
	.loc	3 1810 21                       @ packages/littlefs-v2.0.5/lfs.c:1810:21
	str	r0, [sp, #72]
.Ltmp239:
	.loc	3 1811 21 is_stmt 1             @ packages/littlefs-v2.0.5/lfs.c:1811:21
	ldr	r0, [sp, #72]
.Ltmp240:
	.loc	3 1811 21 is_stmt 0             @ packages/littlefs-v2.0.5/lfs.c:1811:21
	cbz	r0, .LBB7_91
	b	.LBB7_90
.LBB7_90:
.Ltmp241:
	.loc	3 1812 28 is_stmt 1             @ packages/littlefs-v2.0.5/lfs.c:1812:28
	ldr	r0, [sp, #72]
	.loc	3 1812 21 is_stmt 0             @ packages/littlefs-v2.0.5/lfs.c:1812:21
	str	r0, [sp, #236]
	b	.LBB7_96
.Ltmp242:
.LBB7_91:                               @   in Loop: Header=BB7_86 Depth=2
	.loc	3 1807 13 is_stmt 1             @ packages/littlefs-v2.0.5/lfs.c:1807:13
	b	.LBB7_86
.LBB7_92:                               @   in Loop: Header=BB7_70 Depth=1
	.loc	3 1815 9                        @ packages/littlefs-v2.0.5/lfs.c:1815:9
	b	.LBB7_93
.Ltmp243:
.LBB7_93:                               @   in Loop: Header=BB7_70 Depth=1
	.loc	3 1816 5                        @ packages/littlefs-v2.0.5/lfs.c:1816:5
	b	.LBB7_94
.Ltmp244:
.LBB7_94:                               @   in Loop: Header=BB7_70 Depth=1
	.loc	3 1789 51                       @ packages/littlefs-v2.0.5/lfs.c:1789:51
	ldr	r0, [sp, #76]
	.loc	3 1789 54 is_stmt 0             @ packages/littlefs-v2.0.5/lfs.c:1789:54
	ldr	r0, [r0]
	.loc	3 1789 49                       @ packages/littlefs-v2.0.5/lfs.c:1789:49
	str	r0, [sp, #76]
	.loc	3 1789 5                        @ packages/littlefs-v2.0.5/lfs.c:1789:5
	b	.LBB7_70
.Ltmp245:
.LBB7_95:
	.loc	3 0 5                           @ packages/littlefs-v2.0.5/lfs.c:0:5
	movs	r0, #0
	.loc	3 1818 5 is_stmt 1              @ packages/littlefs-v2.0.5/lfs.c:1818:5
	str	r0, [sp, #236]
	b	.LBB7_96
.LBB7_96:
	.loc	3 1819 1                        @ packages/littlefs-v2.0.5/lfs.c:1819:1
	ldr	r0, [sp, #236]
	add	sp, #240
	pop	{r4, r5, r7, pc}
.Ltmp246:
.Lfunc_end7:
	.size	lfs_dir_commit, .Lfunc_end7-lfs_dir_commit
	.cfi_endproc
	.cantunwind
	.fnend
                                        @ -- End function
	.section	.text.lfs_pair_fromle32,"ax",%progbits
	.p2align	3                               @ -- Begin function lfs_pair_fromle32
	.type	lfs_pair_fromle32,%function
	.code	16                              @ @lfs_pair_fromle32
	.thumb_func
lfs_pair_fromle32:
.Lfunc_begin8:
	.loc	3 254 0                         @ packages/littlefs-v2.0.5/lfs.c:254:0
	.fnstart
	.cfi_startproc
@ %bb.0:
	.save	{r7, lr}
	push	{r7, lr}
	.cfi_def_cfa_offset 8
	.cfi_offset lr, -4
	.cfi_offset r7, -8
	.pad	#8
	sub	sp, #8
	.cfi_def_cfa_offset 16
	str	r0, [sp, #4]
.Ltmp247:
	.loc	3 255 28 prologue_end           @ packages/littlefs-v2.0.5/lfs.c:255:28
	ldr	r0, [sp, #4]
	ldr	r0, [r0]
	.loc	3 255 15 is_stmt 0              @ packages/littlefs-v2.0.5/lfs.c:255:15
	bl	lfs_fromle32
	.loc	3 255 5                         @ packages/littlefs-v2.0.5/lfs.c:255:5
	ldr	r1, [sp, #4]
	.loc	3 255 13                        @ packages/littlefs-v2.0.5/lfs.c:255:13
	str	r0, [r1]
	.loc	3 256 28 is_stmt 1              @ packages/littlefs-v2.0.5/lfs.c:256:28
	ldr	r0, [sp, #4]
	ldr	r0, [r0, #4]
	.loc	3 256 15 is_stmt 0              @ packages/littlefs-v2.0.5/lfs.c:256:15
	bl	lfs_fromle32
	.loc	3 256 5                         @ packages/littlefs-v2.0.5/lfs.c:256:5
	ldr	r1, [sp, #4]
	.loc	3 256 13                        @ packages/littlefs-v2.0.5/lfs.c:256:13
	str	r0, [r1, #4]
	.loc	3 257 1 is_stmt 1               @ packages/littlefs-v2.0.5/lfs.c:257:1
	add	sp, #8
	pop	{r7, pc}
.Ltmp248:
.Lfunc_end8:
	.size	lfs_pair_fromle32, .Lfunc_end8-lfs_pair_fromle32
	.cfi_endproc
	.cantunwind
	.fnend
                                        @ -- End function
	.section	.text.lfs_fs_preporphans,"ax",%progbits
	.p2align	3                               @ -- Begin function lfs_fs_preporphans
	.type	lfs_fs_preporphans,%function
	.code	16                              @ @lfs_fs_preporphans
	.thumb_func
lfs_fs_preporphans:
.Lfunc_begin9:
	.loc	3 3686 0                        @ packages/littlefs-v2.0.5/lfs.c:3686:0
	.fnstart
	.cfi_startproc
@ %bb.0:
	.save	{r7, lr}
	push	{r7, lr}
	.cfi_def_cfa_offset 8
	.cfi_offset lr, -4
	.cfi_offset r7, -8
	.pad	#24
	sub	sp, #24
	.cfi_def_cfa_offset 32
                                        @ kill: def $r2 killed $r1
	str	r0, [sp, #20]
	strb.w	r1, [sp, #19]
.Ltmp249:
	.loc	3 3687 26 prologue_end          @ packages/littlefs-v2.0.5/lfs.c:3687:26
	ldrsb.w	r2, [sp, #19]
	.loc	3 3687 5 is_stmt 0              @ packages/littlefs-v2.0.5/lfs.c:3687:5
	ldr	r1, [sp, #20]
	.loc	3 3687 23                       @ packages/littlefs-v2.0.5/lfs.c:3687:23
	ldr	r0, [r1, #60]
	add	r0, r2
	str	r0, [r1, #60]
	.loc	3 3688 28 is_stmt 1             @ packages/littlefs-v2.0.5/lfs.c:3688:28
	ldr	r0, [sp, #20]
	.loc	3 3688 33 is_stmt 0             @ packages/littlefs-v2.0.5/lfs.c:3688:33
	add.w	r1, r0, #72
	.loc	3 3688 49                       @ packages/littlefs-v2.0.5/lfs.c:3688:49
	str	r1, [sp, #8]                    @ 4-byte Spill
	adds	r0, #60
	.loc	3 3689 13 is_stmt 1             @ packages/littlefs-v2.0.5/lfs.c:3689:13
	str	r0, [sp, #4]                    @ 4-byte Spill
	bl	lfs_gstate_hasorphans
	ldr	r1, [sp, #4]                    @ 4-byte Reload
	mov	r2, r0
	.loc	3 3688 5                        @ packages/littlefs-v2.0.5/lfs.c:3688:5
	ldr	r0, [sp, #8]                    @ 4-byte Reload
	bl	lfs_gstate_xororphans
	.loc	3 3690 28                       @ packages/littlefs-v2.0.5/lfs.c:3690:28
	ldr	r0, [sp, #20]
	.loc	3 3690 33 is_stmt 0             @ packages/littlefs-v2.0.5/lfs.c:3690:33
	adds	r0, #60
	.loc	3 3691 13 is_stmt 1             @ packages/littlefs-v2.0.5/lfs.c:3691:13
	str	r0, [sp, #12]                   @ 4-byte Spill
	bl	lfs_gstate_hasorphans
	ldr	r1, [sp, #12]                   @ 4-byte Reload
	mov	r2, r0
	.loc	3 3690 5                        @ packages/littlefs-v2.0.5/lfs.c:3690:5
	mov	r0, r1
	bl	lfs_gstate_xororphans
	.loc	3 3692 1                        @ packages/littlefs-v2.0.5/lfs.c:3692:1
	add	sp, #24
	pop	{r7, pc}
.Ltmp250:
.Lfunc_end9:
	.size	lfs_fs_preporphans, .Lfunc_end9-lfs_fs_preporphans
	.cfi_endproc
	.cantunwind
	.fnend
                                        @ -- End function
	.section	.text.lfs_dir_open,"ax",%progbits
	.hidden	lfs_dir_open                    @ -- Begin function lfs_dir_open
	.globl	lfs_dir_open
	.p2align	3
	.type	lfs_dir_open,%function
	.code	16                              @ @lfs_dir_open
	.thumb_func
lfs_dir_open:
.Lfunc_begin10:
	.loc	3 1900 0                        @ packages/littlefs-v2.0.5/lfs.c:1900:0
	.fnstart
	.cfi_startproc
@ %bb.0:
	.save	{r7, lr}
	push	{r7, lr}
	.cfi_def_cfa_offset 8
	.cfi_offset lr, -4
	.cfi_offset r7, -8
	.pad	#48
	sub	sp, #48
	.cfi_def_cfa_offset 56
	str	r0, [sp, #40]
	str	r1, [sp, #36]
	str	r2, [sp, #32]
.Ltmp251:
	.loc	3 1901 35 prologue_end          @ packages/littlefs-v2.0.5/lfs.c:1901:35
	ldr	r0, [sp, #40]
	.loc	3 1901 41 is_stmt 0             @ packages/littlefs-v2.0.5/lfs.c:1901:41
	ldr	r1, [sp, #36]
	.loc	3 1901 46                       @ packages/littlefs-v2.0.5/lfs.c:1901:46
	adds	r1, #8
	add	r2, sp, #32
	movs	r3, #0
	.loc	3 1901 22                       @ packages/littlefs-v2.0.5/lfs.c:1901:22
	bl	lfs_dir_find
	.loc	3 1901 16                       @ packages/littlefs-v2.0.5/lfs.c:1901:16
	str	r0, [sp, #28]
.Ltmp252:
	.loc	3 1902 9 is_stmt 1              @ packages/littlefs-v2.0.5/lfs.c:1902:9
	ldr	r0, [sp, #28]
.Ltmp253:
	.loc	3 1902 9 is_stmt 0              @ packages/littlefs-v2.0.5/lfs.c:1902:9
	cmp.w	r0, #-1
	bgt	.LBB10_2
	b	.LBB10_1
.LBB10_1:
.Ltmp254:
	.loc	3 1903 16 is_stmt 1             @ packages/littlefs-v2.0.5/lfs.c:1903:16
	ldr	r0, [sp, #28]
	.loc	3 1903 9 is_stmt 0              @ packages/littlefs-v2.0.5/lfs.c:1903:9
	str	r0, [sp, #44]
	b	.LBB10_12
.Ltmp255:
.LBB10_2:
	.loc	3 1906 23 is_stmt 1             @ packages/littlefs-v2.0.5/lfs.c:1906:23
	ldr	r0, [sp, #28]
	.loc	3 1906 9 is_stmt 0              @ packages/littlefs-v2.0.5/lfs.c:1906:9
	bl	lfs_tag_type3
.Ltmp256:
	.loc	3 1906 9                        @ packages/littlefs-v2.0.5/lfs.c:1906:9
	cmp	r0, #2
	beq	.LBB10_4
	b	.LBB10_3
.LBB10_3:
	.loc	3 0 9                           @ packages/littlefs-v2.0.5/lfs.c:0:9
	mvn	r0, #19
.Ltmp257:
	.loc	3 1907 9 is_stmt 1              @ packages/littlefs-v2.0.5/lfs.c:1907:9
	str	r0, [sp, #44]
	b	.LBB10_12
.Ltmp258:
.LBB10_4:
	.loc	3 1911 20                       @ packages/littlefs-v2.0.5/lfs.c:1911:20
	ldr	r0, [sp, #28]
	.loc	3 1911 9 is_stmt 0              @ packages/littlefs-v2.0.5/lfs.c:1911:9
	bl	lfs_tag_id
	movw	r1, #1023
.Ltmp259:
	.loc	3 1911 9                        @ packages/littlefs-v2.0.5/lfs.c:1911:9
	cmp	r0, r1
	bne	.LBB10_6
	b	.LBB10_5
.LBB10_5:
.Ltmp260:
	.loc	3 1913 19 is_stmt 1             @ packages/littlefs-v2.0.5/lfs.c:1913:19
	ldr	r0, [sp, #40]
	ldr	r0, [r0, #32]
	.loc	3 1913 17 is_stmt 0             @ packages/littlefs-v2.0.5/lfs.c:1913:17
	str	r0, [sp, #20]
	.loc	3 1914 19 is_stmt 1             @ packages/littlefs-v2.0.5/lfs.c:1914:19
	ldr	r0, [sp, #40]
	ldr	r0, [r0, #36]
	.loc	3 1914 17 is_stmt 0             @ packages/littlefs-v2.0.5/lfs.c:1914:17
	str	r0, [sp, #24]
	.loc	3 1915 5 is_stmt 1              @ packages/littlefs-v2.0.5/lfs.c:1915:5
	b	.LBB10_9
.Ltmp261:
.LBB10_6:
	.loc	3 1917 38                       @ packages/littlefs-v2.0.5/lfs.c:1917:38
	ldr	r0, [sp, #40]
	.loc	3 1917 44 is_stmt 0             @ packages/littlefs-v2.0.5/lfs.c:1917:44
	str	r0, [sp, #8]                    @ 4-byte Spill
	ldr	r0, [sp, #36]
	.loc	3 1917 49                       @ packages/littlefs-v2.0.5/lfs.c:1917:49
	adds	r0, #8
	.loc	3 1918 17 is_stmt 1             @ packages/littlefs-v2.0.5/lfs.c:1918:17
	str	r0, [sp, #4]                    @ 4-byte Spill
	ldr	r0, [sp, #28]
	bl	lfs_tag_id
	ldr	r1, [sp, #4]                    @ 4-byte Reload
	mov	r3, r0
	ldr	r0, [sp, #8]                    @ 4-byte Reload
	movs	r2, #8
	movt	r2, #8192
	orr.w	r3, r2, r3, lsl #10
	.loc	3 1917 26                       @ packages/littlefs-v2.0.5/lfs.c:1917:26
	mov	r12, sp
	add	r2, sp, #20
	str.w	r2, [r12]
	movw	r2, #64512
	movt	r2, #28687
	bl	lfs_dir_get
	.loc	3 1917 20 is_stmt 0             @ packages/littlefs-v2.0.5/lfs.c:1917:20
	str	r0, [sp, #16]
.Ltmp262:
	.loc	3 1919 13 is_stmt 1             @ packages/littlefs-v2.0.5/lfs.c:1919:13
	ldr	r0, [sp, #16]
.Ltmp263:
	.loc	3 1919 13 is_stmt 0             @ packages/littlefs-v2.0.5/lfs.c:1919:13
	cmp.w	r0, #-1
	bgt	.LBB10_8
	b	.LBB10_7
.LBB10_7:
.Ltmp264:
	.loc	3 1920 20 is_stmt 1             @ packages/littlefs-v2.0.5/lfs.c:1920:20
	ldr	r0, [sp, #16]
	.loc	3 1920 13 is_stmt 0             @ packages/littlefs-v2.0.5/lfs.c:1920:13
	str	r0, [sp, #44]
	b	.LBB10_12
.Ltmp265:
.LBB10_8:
	.loc	3 0 13                          @ packages/littlefs-v2.0.5/lfs.c:0:13
	add	r0, sp, #20
	.loc	3 1922 9 is_stmt 1              @ packages/littlefs-v2.0.5/lfs.c:1922:9
	bl	lfs_pair_fromle32
	b	.LBB10_9
.Ltmp266:
.LBB10_9:
	.loc	3 1926 29                       @ packages/littlefs-v2.0.5/lfs.c:1926:29
	ldr	r0, [sp, #40]
	.loc	3 1926 35 is_stmt 0             @ packages/littlefs-v2.0.5/lfs.c:1926:35
	ldr	r1, [sp, #36]
	.loc	3 1926 40                       @ packages/littlefs-v2.0.5/lfs.c:1926:40
	adds	r1, #8
	add	r2, sp, #20
	.loc	3 1926 15                       @ packages/littlefs-v2.0.5/lfs.c:1926:15
	bl	lfs_dir_fetch
	.loc	3 1926 9                        @ packages/littlefs-v2.0.5/lfs.c:1926:9
	str	r0, [sp, #12]
.Ltmp267:
	.loc	3 1927 9 is_stmt 1              @ packages/littlefs-v2.0.5/lfs.c:1927:9
	ldr	r0, [sp, #12]
.Ltmp268:
	.loc	3 1927 9 is_stmt 0              @ packages/littlefs-v2.0.5/lfs.c:1927:9
	cbz	r0, .LBB10_11
	b	.LBB10_10
.LBB10_10:
.Ltmp269:
	.loc	3 1928 16 is_stmt 1             @ packages/littlefs-v2.0.5/lfs.c:1928:16
	ldr	r0, [sp, #12]
	.loc	3 1928 9 is_stmt 0              @ packages/littlefs-v2.0.5/lfs.c:1928:9
	str	r0, [sp, #44]
	b	.LBB10_12
.Ltmp270:
.LBB10_11:
	.loc	3 1932 20 is_stmt 1             @ packages/littlefs-v2.0.5/lfs.c:1932:20
	ldr	r1, [sp, #36]
	ldr	r0, [r1, #8]
	.loc	3 1932 18 is_stmt 0             @ packages/littlefs-v2.0.5/lfs.c:1932:18
	str	r0, [r1, #44]
	.loc	3 1933 20 is_stmt 1             @ packages/littlefs-v2.0.5/lfs.c:1933:20
	ldr	r1, [sp, #36]
	ldr	r0, [r1, #12]
	.loc	3 1933 18 is_stmt 0             @ packages/littlefs-v2.0.5/lfs.c:1933:18
	str	r0, [r1, #48]
	.loc	3 1934 5 is_stmt 1              @ packages/littlefs-v2.0.5/lfs.c:1934:5
	ldr	r1, [sp, #36]
	movs	r0, #0
	.loc	3 1934 13 is_stmt 0             @ packages/littlefs-v2.0.5/lfs.c:1934:13
	strh	r0, [r1, #4]
	.loc	3 1935 5 is_stmt 1              @ packages/littlefs-v2.0.5/lfs.c:1935:5
	ldr	r1, [sp, #36]
	.loc	3 1935 14 is_stmt 0             @ packages/littlefs-v2.0.5/lfs.c:1935:14
	str	r0, [r1, #40]
	.loc	3 1938 5 is_stmt 1              @ packages/littlefs-v2.0.5/lfs.c:1938:5
	ldr	r2, [sp, #36]
	movs	r1, #2
	.loc	3 1938 15 is_stmt 0             @ packages/littlefs-v2.0.5/lfs.c:1938:15
	strb	r1, [r2, #6]
	.loc	3 1939 29 is_stmt 1             @ packages/littlefs-v2.0.5/lfs.c:1939:29
	ldr	r1, [sp, #40]
	.loc	3 1939 34 is_stmt 0             @ packages/littlefs-v2.0.5/lfs.c:1939:34
	ldr	r1, [r1, #40]
	.loc	3 1939 5                        @ packages/littlefs-v2.0.5/lfs.c:1939:5
	ldr	r2, [sp, #36]
	.loc	3 1939 15                       @ packages/littlefs-v2.0.5/lfs.c:1939:15
	str	r1, [r2]
	.loc	3 1940 37 is_stmt 1             @ packages/littlefs-v2.0.5/lfs.c:1940:37
	ldr	r1, [sp, #36]
	.loc	3 1940 5 is_stmt 0              @ packages/littlefs-v2.0.5/lfs.c:1940:5
	ldr	r2, [sp, #40]
	.loc	3 1940 16                       @ packages/littlefs-v2.0.5/lfs.c:1940:16
	str	r1, [r2, #40]
	.loc	3 1942 5 is_stmt 1              @ packages/littlefs-v2.0.5/lfs.c:1942:5
	str	r0, [sp, #44]
	b	.LBB10_12
.LBB10_12:
	.loc	3 1943 1                        @ packages/littlefs-v2.0.5/lfs.c:1943:1
	ldr	r0, [sp, #44]
	add	sp, #48
	pop	{r7, pc}
.Ltmp271:
.Lfunc_end10:
	.size	lfs_dir_open, .Lfunc_end10-lfs_dir_open
	.cfi_endproc
	.cantunwind
	.fnend
                                        @ -- End function
	.section	.text.lfs_tag_type3,"ax",%progbits
	.p2align	3                               @ -- Begin function lfs_tag_type3
	.type	lfs_tag_type3,%function
	.code	16                              @ @lfs_tag_type3
	.thumb_func
lfs_tag_type3:
.Lfunc_begin11:
	.loc	3 283 0                         @ packages/littlefs-v2.0.5/lfs.c:283:0
	.fnstart
	.cfi_startproc
@ %bb.0:
	.pad	#4
	sub	sp, #4
	.cfi_def_cfa_offset 4
	str	r0, [sp]
.Ltmp272:
	.loc	3 284 13 prologue_end           @ packages/littlefs-v2.0.5/lfs.c:284:13
	ldr	r0, [sp]
	.loc	3 284 31 is_stmt 0              @ packages/littlefs-v2.0.5/lfs.c:284:31
	ubfx	r0, r0, #20, #11
	.loc	3 284 5                         @ packages/littlefs-v2.0.5/lfs.c:284:5
	add	sp, #4
	bx	lr
.Ltmp273:
.Lfunc_end11:
	.size	lfs_tag_type3, .Lfunc_end11-lfs_tag_type3
	.cfi_endproc
	.cantunwind
	.fnend
                                        @ -- End function
	.section	.text.lfs_tag_id,"ax",%progbits
	.p2align	3                               @ -- Begin function lfs_tag_id
	.type	lfs_tag_id,%function
	.code	16                              @ @lfs_tag_id
	.thumb_func
lfs_tag_id:
.Lfunc_begin12:
	.loc	3 295 0 is_stmt 1               @ packages/littlefs-v2.0.5/lfs.c:295:0
	.fnstart
	.cfi_startproc
@ %bb.0:
	.pad	#4
	sub	sp, #4
	.cfi_def_cfa_offset 4
	str	r0, [sp]
.Ltmp274:
	.loc	3 296 13 prologue_end           @ packages/littlefs-v2.0.5/lfs.c:296:13
	ldr	r0, [sp]
	.loc	3 296 31 is_stmt 0              @ packages/littlefs-v2.0.5/lfs.c:296:31
	ubfx	r0, r0, #10, #10
	.loc	3 296 5                         @ packages/littlefs-v2.0.5/lfs.c:296:5
	add	sp, #4
	bx	lr
.Ltmp275:
.Lfunc_end12:
	.size	lfs_tag_id, .Lfunc_end12-lfs_tag_id
	.cfi_endproc
	.cantunwind
	.fnend
                                        @ -- End function
	.section	.text.lfs_dir_get,"ax",%progbits
	.p2align	3                               @ -- Begin function lfs_dir_get
	.type	lfs_dir_get,%function
	.code	16                              @ @lfs_dir_get
	.thumb_func
lfs_dir_get:
.Lfunc_begin13:
	.loc	3 561 0 is_stmt 1               @ packages/littlefs-v2.0.5/lfs.c:561:0
	.fnstart
	.cfi_startproc
@ %bb.0:
	.save	{r4, lr}
	push	{r4, lr}
	.cfi_def_cfa_offset 8
	.cfi_offset lr, -4
	.cfi_offset r4, -8
	.pad	#48
	sub	sp, #48
	.cfi_def_cfa_offset 56
	ldr.w	r12, [sp, #56]
	str	r0, [sp, #44]
	str	r1, [sp, #40]
	str	r2, [sp, #36]
	str	r3, [sp, #32]
.Ltmp276:
	.loc	3 562 29 prologue_end           @ packages/littlefs-v2.0.5/lfs.c:562:29
	ldr	r0, [sp, #44]
	.loc	3 562 34 is_stmt 0              @ packages/littlefs-v2.0.5/lfs.c:562:34
	str	r0, [sp, #28]                   @ 4-byte Spill
	ldr	r0, [sp, #40]
	.loc	3 563 13 is_stmt 1              @ packages/littlefs-v2.0.5/lfs.c:563:13
	str	r0, [sp, #16]                   @ 4-byte Spill
	ldr	r0, [sp, #36]
	.loc	3 563 20 is_stmt 0              @ packages/littlefs-v2.0.5/lfs.c:563:20
	str	r0, [sp, #20]                   @ 4-byte Spill
	ldr	r0, [sp, #32]
	.loc	3 564 16 is_stmt 1              @ packages/littlefs-v2.0.5/lfs.c:564:16
	str	r0, [sp, #24]                   @ 4-byte Spill
	ldr	r1, [sp, #56]
	.loc	3 564 24 is_stmt 0              @ packages/littlefs-v2.0.5/lfs.c:564:24
	str	r1, [sp, #12]                   @ 4-byte Spill
	bl	lfs_tag_size
	ldr.w	r12, [sp, #12]                  @ 4-byte Reload
	ldr	r1, [sp, #16]                   @ 4-byte Reload
	ldr	r2, [sp, #20]                   @ 4-byte Reload
	ldr	r3, [sp, #24]                   @ 4-byte Reload
	mov	r4, r0
	.loc	3 562 12 is_stmt 1              @ packages/littlefs-v2.0.5/lfs.c:562:12
	ldr	r0, [sp, #28]                   @ 4-byte Reload
	mov	lr, sp
	str.w	r4, [lr, #8]
	str.w	r12, [lr, #4]
	mov.w	r12, #0
	str.w	r12, [lr]
	bl	lfs_dir_getslice
	.loc	3 562 5 is_stmt 0               @ packages/littlefs-v2.0.5/lfs.c:562:5
	add	sp, #48
	pop	{r4, pc}
.Ltmp277:
.Lfunc_end13:
	.size	lfs_dir_get, .Lfunc_end13-lfs_dir_get
	.cfi_endproc
	.cantunwind
	.fnend
                                        @ -- End function
	.section	.text.lfs_dir_close,"ax",%progbits
	.hidden	lfs_dir_close                   @ -- Begin function lfs_dir_close
	.globl	lfs_dir_close
	.p2align	3
	.type	lfs_dir_close,%function
	.code	16                              @ @lfs_dir_close
	.thumb_func
lfs_dir_close:
.Lfunc_begin14:
	.loc	3 1945 0 is_stmt 1              @ packages/littlefs-v2.0.5/lfs.c:1945:0
	.fnstart
	.cfi_startproc
@ %bb.0:
	.pad	#12
	sub	sp, #12
	.cfi_def_cfa_offset 12
	str	r0, [sp, #8]
	str	r1, [sp, #4]
.Ltmp278:
	.loc	3 1947 34 prologue_end          @ packages/littlefs-v2.0.5/lfs.c:1947:34
	ldr	r0, [sp, #8]
	.loc	3 1947 39 is_stmt 0             @ packages/littlefs-v2.0.5/lfs.c:1947:39
	adds	r0, #40
	.loc	3 1947 29                       @ packages/littlefs-v2.0.5/lfs.c:1947:29
	str	r0, [sp]
	.loc	3 1947 10                       @ packages/littlefs-v2.0.5/lfs.c:1947:10
	b	.LBB14_1
.LBB14_1:                               @ =>This Inner Loop Header: Depth=1
.Ltmp279:
	.loc	3 1947 47                       @ packages/littlefs-v2.0.5/lfs.c:1947:47
	ldr	r0, [sp]
	.loc	3 1947 46                       @ packages/littlefs-v2.0.5/lfs.c:1947:46
	ldr	r0, [r0]
.Ltmp280:
	.loc	3 1947 5                        @ packages/littlefs-v2.0.5/lfs.c:1947:5
	cbz	r0, .LBB14_6
	b	.LBB14_2
.LBB14_2:                               @   in Loop: Header=BB14_1 Depth=1
.Ltmp281:
	.loc	3 1948 14 is_stmt 1             @ packages/littlefs-v2.0.5/lfs.c:1948:14
	ldr	r0, [sp]
	.loc	3 1948 13 is_stmt 0             @ packages/littlefs-v2.0.5/lfs.c:1948:13
	ldr	r0, [r0]
	.loc	3 1948 38                       @ packages/littlefs-v2.0.5/lfs.c:1948:38
	ldr	r1, [sp, #4]
.Ltmp282:
	.loc	3 1948 13                       @ packages/littlefs-v2.0.5/lfs.c:1948:13
	cmp	r0, r1
	bne	.LBB14_4
	b	.LBB14_3
.LBB14_3:
.Ltmp283:
	.loc	3 1949 20 is_stmt 1             @ packages/littlefs-v2.0.5/lfs.c:1949:20
	ldr	r1, [sp]
	.loc	3 1949 19 is_stmt 0             @ packages/littlefs-v2.0.5/lfs.c:1949:19
	ldr	r0, [r1]
	.loc	3 1949 24                       @ packages/littlefs-v2.0.5/lfs.c:1949:24
	ldr	r0, [r0]
	.loc	3 1949 16                       @ packages/littlefs-v2.0.5/lfs.c:1949:16
	str	r0, [r1]
	.loc	3 1950 13 is_stmt 1             @ packages/littlefs-v2.0.5/lfs.c:1950:13
	b	.LBB14_6
.Ltmp284:
.LBB14_4:                               @   in Loop: Header=BB14_1 Depth=1
	.loc	3 1952 5                        @ packages/littlefs-v2.0.5/lfs.c:1952:5
	b	.LBB14_5
.Ltmp285:
.LBB14_5:                               @   in Loop: Header=BB14_1 Depth=1
	.loc	3 1947 57                       @ packages/littlefs-v2.0.5/lfs.c:1947:57
	ldr	r0, [sp]
	.loc	3 1947 56 is_stmt 0             @ packages/littlefs-v2.0.5/lfs.c:1947:56
	ldr	r0, [r0]
	.loc	3 1947 52                       @ packages/littlefs-v2.0.5/lfs.c:1947:52
	str	r0, [sp]
	.loc	3 1947 5                        @ packages/littlefs-v2.0.5/lfs.c:1947:5
	b	.LBB14_1
.Ltmp286:
.LBB14_6:
	.loc	3 0 5                           @ packages/littlefs-v2.0.5/lfs.c:0:5
	movs	r0, #0
	.loc	3 1954 5 is_stmt 1              @ packages/littlefs-v2.0.5/lfs.c:1954:5
	add	sp, #12
	bx	lr
.Ltmp287:
.Lfunc_end14:
	.size	lfs_dir_close, .Lfunc_end14-lfs_dir_close
	.cfi_endproc
	.cantunwind
	.fnend
                                        @ -- End function
	.section	.text.lfs_dir_read,"ax",%progbits
	.hidden	lfs_dir_read                    @ -- Begin function lfs_dir_read
	.globl	lfs_dir_read
	.p2align	3
	.type	lfs_dir_read,%function
	.code	16                              @ @lfs_dir_read
	.thumb_func
lfs_dir_read:
.Lfunc_begin15:
	.loc	3 1957 0                        @ packages/littlefs-v2.0.5/lfs.c:1957:0
	.fnstart
	.cfi_startproc
@ %bb.0:
	.save	{r7, lr}
	push	{r7, lr}
	.cfi_def_cfa_offset 8
	.cfi_offset lr, -4
	.cfi_offset r7, -8
	.pad	#24
	sub	sp, #24
	.cfi_def_cfa_offset 32
	str	r0, [sp, #16]
	str	r1, [sp, #12]
	str	r2, [sp, #8]
.Ltmp288:
	.loc	3 1958 12 prologue_end          @ packages/littlefs-v2.0.5/lfs.c:1958:12
	ldr	r0, [sp, #8]
	mov.w	r1, #264
	.loc	3 1958 5 is_stmt 0              @ packages/littlefs-v2.0.5/lfs.c:1958:5
	bl	__aeabi_memclr4
.Ltmp289:
	.loc	3 1961 9 is_stmt 1              @ packages/littlefs-v2.0.5/lfs.c:1961:9
	ldr	r0, [sp, #12]
	.loc	3 1961 14 is_stmt 0             @ packages/littlefs-v2.0.5/lfs.c:1961:14
	ldr	r0, [r0, #40]
.Ltmp290:
	.loc	3 1961 9                        @ packages/littlefs-v2.0.5/lfs.c:1961:9
	cbnz	r0, .LBB15_2
	b	.LBB15_1
.LBB15_1:
.Ltmp291:
	.loc	3 1962 9 is_stmt 1              @ packages/littlefs-v2.0.5/lfs.c:1962:9
	ldr	r1, [sp, #8]
	movs	r0, #2
	.loc	3 1962 20 is_stmt 0             @ packages/littlefs-v2.0.5/lfs.c:1962:20
	strb	r0, [r1]
	.loc	3 1963 16 is_stmt 1             @ packages/littlefs-v2.0.5/lfs.c:1963:16
	ldr	r0, [sp, #8]
	.loc	3 1963 22 is_stmt 0             @ packages/littlefs-v2.0.5/lfs.c:1963:22
	adds	r0, #8
	.loc	3 1963 9                        @ packages/littlefs-v2.0.5/lfs.c:1963:9
	movw	r1, :lower16:.L.str
	movt	r1, :upper16:.L.str
	bl	strcpy
	.loc	3 1964 9 is_stmt 1              @ packages/littlefs-v2.0.5/lfs.c:1964:9
	ldr	r1, [sp, #12]
	.loc	3 1964 18 is_stmt 0             @ packages/littlefs-v2.0.5/lfs.c:1964:18
	ldr	r0, [r1, #40]
	adds	r0, #1
	str	r0, [r1, #40]
	movs	r0, #1
	.loc	3 1965 9 is_stmt 1              @ packages/littlefs-v2.0.5/lfs.c:1965:9
	str	r0, [sp, #20]
	b	.LBB15_19
.Ltmp292:
.LBB15_2:
	.loc	3 1966 16                       @ packages/littlefs-v2.0.5/lfs.c:1966:16
	ldr	r0, [sp, #12]
	.loc	3 1966 21 is_stmt 0             @ packages/littlefs-v2.0.5/lfs.c:1966:21
	ldr	r0, [r0, #40]
.Ltmp293:
	.loc	3 1966 16                       @ packages/littlefs-v2.0.5/lfs.c:1966:16
	cmp	r0, #1
	bne	.LBB15_4
	b	.LBB15_3
.LBB15_3:
.Ltmp294:
	.loc	3 1967 9 is_stmt 1              @ packages/littlefs-v2.0.5/lfs.c:1967:9
	ldr	r1, [sp, #8]
	movs	r0, #2
	.loc	3 1967 20 is_stmt 0             @ packages/littlefs-v2.0.5/lfs.c:1967:20
	strb	r0, [r1]
	.loc	3 1968 16 is_stmt 1             @ packages/littlefs-v2.0.5/lfs.c:1968:16
	ldr	r0, [sp, #8]
	.loc	3 1968 22 is_stmt 0             @ packages/littlefs-v2.0.5/lfs.c:1968:22
	adds	r0, #8
	.loc	3 1968 9                        @ packages/littlefs-v2.0.5/lfs.c:1968:9
	movw	r1, :lower16:.L.str.1
	movt	r1, :upper16:.L.str.1
	bl	strcpy
	.loc	3 1969 9 is_stmt 1              @ packages/littlefs-v2.0.5/lfs.c:1969:9
	ldr	r1, [sp, #12]
	.loc	3 1969 18 is_stmt 0             @ packages/littlefs-v2.0.5/lfs.c:1969:18
	ldr	r0, [r1, #40]
	adds	r0, #1
	str	r0, [r1, #40]
	movs	r0, #1
	.loc	3 1970 9 is_stmt 1              @ packages/littlefs-v2.0.5/lfs.c:1970:9
	str	r0, [sp, #20]
	b	.LBB15_19
.Ltmp295:
.LBB15_4:
	.loc	3 0 9 is_stmt 0                 @ packages/littlefs-v2.0.5/lfs.c:0:9
	b	.LBB15_5
.LBB15_5:
	.loc	3 1973 5 is_stmt 1              @ packages/littlefs-v2.0.5/lfs.c:1973:5
	b	.LBB15_6
.LBB15_6:                               @ =>This Inner Loop Header: Depth=1
.Ltmp296:
	.loc	3 1974 13                       @ packages/littlefs-v2.0.5/lfs.c:1974:13
	ldr	r1, [sp, #12]
	.loc	3 1974 18 is_stmt 0             @ packages/littlefs-v2.0.5/lfs.c:1974:18
	ldrh	r0, [r1, #4]
	.loc	3 1974 31                       @ packages/littlefs-v2.0.5/lfs.c:1974:31
	ldrh	r1, [r1, #28]
.Ltmp297:
	.loc	3 1974 13                       @ packages/littlefs-v2.0.5/lfs.c:1974:13
	cmp	r0, r1
	bne	.LBB15_12
	b	.LBB15_7
.LBB15_7:                               @   in Loop: Header=BB15_6 Depth=1
.Ltmp298:
	.loc	3 1975 18 is_stmt 1             @ packages/littlefs-v2.0.5/lfs.c:1975:18
	ldr	r0, [sp, #12]
	.loc	3 1975 25 is_stmt 0             @ packages/littlefs-v2.0.5/lfs.c:1975:25
	ldrb	r0, [r0, #31]
.Ltmp299:
	.loc	3 1975 17                       @ packages/littlefs-v2.0.5/lfs.c:1975:17
	lsls	r0, r0, #31
	cbnz	r0, .LBB15_9
	b	.LBB15_8
.LBB15_8:
	.loc	3 0 17                          @ packages/littlefs-v2.0.5/lfs.c:0:17
	movs	r0, #0
.Ltmp300:
	.loc	3 1976 17 is_stmt 1             @ packages/littlefs-v2.0.5/lfs.c:1976:17
	str	r0, [sp, #20]
	b	.LBB15_19
.Ltmp301:
.LBB15_9:                               @   in Loop: Header=BB15_6 Depth=1
	.loc	3 1979 37                       @ packages/littlefs-v2.0.5/lfs.c:1979:37
	ldr	r0, [sp, #16]
	.loc	3 1979 43 is_stmt 0             @ packages/littlefs-v2.0.5/lfs.c:1979:43
	ldr	r2, [sp, #12]
	.loc	3 1979 48                       @ packages/littlefs-v2.0.5/lfs.c:1979:48
	add.w	r1, r2, #8
	.loc	3 1979 58                       @ packages/littlefs-v2.0.5/lfs.c:1979:58
	adds	r2, #32
	.loc	3 1979 23                       @ packages/littlefs-v2.0.5/lfs.c:1979:23
	bl	lfs_dir_fetch
	.loc	3 1979 17                       @ packages/littlefs-v2.0.5/lfs.c:1979:17
	str	r0, [sp, #4]
.Ltmp302:
	.loc	3 1980 17 is_stmt 1             @ packages/littlefs-v2.0.5/lfs.c:1980:17
	ldr	r0, [sp, #4]
.Ltmp303:
	.loc	3 1980 17 is_stmt 0             @ packages/littlefs-v2.0.5/lfs.c:1980:17
	cbz	r0, .LBB15_11
	b	.LBB15_10
.LBB15_10:
.Ltmp304:
	.loc	3 1981 24 is_stmt 1             @ packages/littlefs-v2.0.5/lfs.c:1981:24
	ldr	r0, [sp, #4]
	.loc	3 1981 17 is_stmt 0             @ packages/littlefs-v2.0.5/lfs.c:1981:17
	str	r0, [sp, #20]
	b	.LBB15_19
.Ltmp305:
.LBB15_11:                              @   in Loop: Header=BB15_6 Depth=1
	.loc	3 1984 13 is_stmt 1             @ packages/littlefs-v2.0.5/lfs.c:1984:13
	ldr	r1, [sp, #12]
	movs	r0, #0
	.loc	3 1984 21 is_stmt 0             @ packages/littlefs-v2.0.5/lfs.c:1984:21
	strh	r0, [r1, #4]
	.loc	3 1985 9 is_stmt 1              @ packages/littlefs-v2.0.5/lfs.c:1985:9
	b	.LBB15_12
.Ltmp306:
.LBB15_12:                              @   in Loop: Header=BB15_6 Depth=1
	.loc	3 1987 35                       @ packages/littlefs-v2.0.5/lfs.c:1987:35
	ldr	r0, [sp, #16]
	.loc	3 1987 41 is_stmt 0             @ packages/littlefs-v2.0.5/lfs.c:1987:41
	ldr	r2, [sp, #12]
	.loc	3 1987 46                       @ packages/littlefs-v2.0.5/lfs.c:1987:46
	add.w	r1, r2, #8
	.loc	3 1987 54                       @ packages/littlefs-v2.0.5/lfs.c:1987:54
	ldrh	r2, [r2, #4]
	.loc	3 1987 58                       @ packages/littlefs-v2.0.5/lfs.c:1987:58
	ldr	r3, [sp, #8]
	.loc	3 1987 19                       @ packages/littlefs-v2.0.5/lfs.c:1987:19
	bl	lfs_dir_getinfo
	.loc	3 1987 13                       @ packages/littlefs-v2.0.5/lfs.c:1987:13
	str	r0, [sp]
.Ltmp307:
	.loc	3 1988 13 is_stmt 1             @ packages/littlefs-v2.0.5/lfs.c:1988:13
	ldr	r0, [sp]
	.loc	3 1988 17 is_stmt 0             @ packages/littlefs-v2.0.5/lfs.c:1988:17
	cbz	r0, .LBB15_15
	b	.LBB15_13
.LBB15_13:                              @   in Loop: Header=BB15_6 Depth=1
	.loc	3 1988 20                       @ packages/littlefs-v2.0.5/lfs.c:1988:20
	ldr	r0, [sp]
.Ltmp308:
	.loc	3 1988 13                       @ packages/littlefs-v2.0.5/lfs.c:1988:13
	adds	r0, #2
	cbz	r0, .LBB15_15
	b	.LBB15_14
.LBB15_14:
.Ltmp309:
	.loc	3 1989 20 is_stmt 1             @ packages/littlefs-v2.0.5/lfs.c:1989:20
	ldr	r0, [sp]
	.loc	3 1989 13 is_stmt 0             @ packages/littlefs-v2.0.5/lfs.c:1989:13
	str	r0, [sp, #20]
	b	.LBB15_19
.Ltmp310:
.LBB15_15:                              @   in Loop: Header=BB15_6 Depth=1
	.loc	3 1992 9 is_stmt 1              @ packages/littlefs-v2.0.5/lfs.c:1992:9
	ldr	r1, [sp, #12]
	.loc	3 1992 17 is_stmt 0             @ packages/littlefs-v2.0.5/lfs.c:1992:17
	ldrh	r0, [r1, #4]
	adds	r0, #1
	strh	r0, [r1, #4]
.Ltmp311:
	.loc	3 1993 13 is_stmt 1             @ packages/littlefs-v2.0.5/lfs.c:1993:13
	ldr	r0, [sp]
.Ltmp312:
	.loc	3 1993 13 is_stmt 0             @ packages/littlefs-v2.0.5/lfs.c:1993:13
	adds	r0, #2
	cbz	r0, .LBB15_17
	b	.LBB15_16
.LBB15_16:
.Ltmp313:
	.loc	3 1994 13 is_stmt 1             @ packages/littlefs-v2.0.5/lfs.c:1994:13
	b	.LBB15_18
.Ltmp314:
.LBB15_17:                              @   in Loop: Header=BB15_6 Depth=1
	.loc	3 1973 5                        @ packages/littlefs-v2.0.5/lfs.c:1973:5
	b	.LBB15_6
.LBB15_18:
	.loc	3 1998 5                        @ packages/littlefs-v2.0.5/lfs.c:1998:5
	ldr	r1, [sp, #12]
	.loc	3 1998 14 is_stmt 0             @ packages/littlefs-v2.0.5/lfs.c:1998:14
	ldr	r0, [r1, #40]
	adds	r0, #1
	str	r0, [r1, #40]
	movs	r0, #1
	.loc	3 1999 5 is_stmt 1              @ packages/littlefs-v2.0.5/lfs.c:1999:5
	str	r0, [sp, #20]
	b	.LBB15_19
.LBB15_19:
	.loc	3 2000 1                        @ packages/littlefs-v2.0.5/lfs.c:2000:1
	ldr	r0, [sp, #20]
	add	sp, #24
	pop	{r7, pc}
.Ltmp315:
.Lfunc_end15:
	.size	lfs_dir_read, .Lfunc_end15-lfs_dir_read
	.cfi_endproc
	.cantunwind
	.fnend
                                        @ -- End function
	.section	.text.lfs_dir_getinfo,"ax",%progbits
	.p2align	3                               @ -- Begin function lfs_dir_getinfo
	.type	lfs_dir_getinfo,%function
	.code	16                              @ @lfs_dir_getinfo
	.thumb_func
lfs_dir_getinfo:
.Lfunc_begin16:
	.loc	3 999 0                         @ packages/littlefs-v2.0.5/lfs.c:999:0
	.fnstart
	.cfi_startproc
@ %bb.0:
	.save	{r7, lr}
	push	{r7, lr}
	.cfi_def_cfa_offset 8
	.cfi_offset lr, -4
	.cfi_offset r7, -8
	.pad	#40
	sub	sp, #40
	.cfi_def_cfa_offset 48
                                        @ kill: def $r12 killed $r2
	str	r0, [sp, #32]
	str	r1, [sp, #28]
	strh.w	r2, [sp, #26]
	str	r3, [sp, #20]
.Ltmp316:
	.loc	3 1000 9 prologue_end           @ packages/littlefs-v2.0.5/lfs.c:1000:9
	ldrh.w	r0, [sp, #26]
	movw	r1, #1023
.Ltmp317:
	.loc	3 1000 9 is_stmt 0              @ packages/littlefs-v2.0.5/lfs.c:1000:9
	cmp	r0, r1
	bne	.LBB16_2
	b	.LBB16_1
.LBB16_1:
.Ltmp318:
	.loc	3 1002 16 is_stmt 1             @ packages/littlefs-v2.0.5/lfs.c:1002:16
	ldr	r0, [sp, #20]
	.loc	3 1002 22 is_stmt 0             @ packages/littlefs-v2.0.5/lfs.c:1002:22
	adds	r0, #8
	.loc	3 1002 9                        @ packages/littlefs-v2.0.5/lfs.c:1002:9
	movw	r1, :lower16:.L.str.8
	movt	r1, :upper16:.L.str.8
	bl	strcpy
	.loc	3 1003 9 is_stmt 1              @ packages/littlefs-v2.0.5/lfs.c:1003:9
	ldr	r1, [sp, #20]
	movs	r0, #2
	.loc	3 1003 20 is_stmt 0             @ packages/littlefs-v2.0.5/lfs.c:1003:20
	strb	r0, [r1]
	movs	r0, #0
	.loc	3 1004 9 is_stmt 1              @ packages/littlefs-v2.0.5/lfs.c:1004:9
	str	r0, [sp, #36]
	b	.LBB16_12
.Ltmp319:
.LBB16_2:
	.loc	3 1007 34                       @ packages/littlefs-v2.0.5/lfs.c:1007:34
	ldr	r0, [sp, #32]
	.loc	3 1007 39 is_stmt 0             @ packages/littlefs-v2.0.5/lfs.c:1007:39
	ldr	r1, [sp, #28]
	.loc	3 1008 13 is_stmt 1             @ packages/littlefs-v2.0.5/lfs.c:1008:13
	ldrh.w	r3, [sp, #26]
	ldr	r2, [r0, #108]
	adds	r2, #1
	orr.w	r3, r2, r3, lsl #10
	.loc	3 1008 60 is_stmt 0             @ packages/littlefs-v2.0.5/lfs.c:1008:60
	ldr	r2, [sp, #20]
	.loc	3 1008 66                       @ packages/littlefs-v2.0.5/lfs.c:1008:66
	adds	r2, #8
	.loc	3 1007 22 is_stmt 1             @ packages/littlefs-v2.0.5/lfs.c:1007:22
	mov	r12, sp
	str.w	r2, [r12]
	movw	r2, #64512
	movt	r2, #30735
	bl	lfs_dir_get
	.loc	3 1007 16 is_stmt 0             @ packages/littlefs-v2.0.5/lfs.c:1007:16
	str	r0, [sp, #16]
.Ltmp320:
	.loc	3 1009 9 is_stmt 1              @ packages/littlefs-v2.0.5/lfs.c:1009:9
	ldr	r0, [sp, #16]
.Ltmp321:
	.loc	3 1009 9 is_stmt 0              @ packages/littlefs-v2.0.5/lfs.c:1009:9
	cmp.w	r0, #-1
	bgt	.LBB16_4
	b	.LBB16_3
.LBB16_3:
.Ltmp322:
	.loc	3 1010 16 is_stmt 1             @ packages/littlefs-v2.0.5/lfs.c:1010:16
	ldr	r0, [sp, #16]
	.loc	3 1010 9 is_stmt 0              @ packages/littlefs-v2.0.5/lfs.c:1010:9
	str	r0, [sp, #36]
	b	.LBB16_12
.Ltmp323:
.LBB16_4:
	.loc	3 1013 32 is_stmt 1             @ packages/littlefs-v2.0.5/lfs.c:1013:32
	ldr	r0, [sp, #16]
	.loc	3 1013 18 is_stmt 0             @ packages/littlefs-v2.0.5/lfs.c:1013:18
	bl	lfs_tag_type3
	.loc	3 1013 5                        @ packages/littlefs-v2.0.5/lfs.c:1013:5
	ldr	r1, [sp, #20]
	.loc	3 1013 16                       @ packages/littlefs-v2.0.5/lfs.c:1013:16
	strb	r0, [r1]
	.loc	3 1016 23 is_stmt 1             @ packages/littlefs-v2.0.5/lfs.c:1016:23
	ldr	r0, [sp, #32]
	.loc	3 1016 28 is_stmt 0             @ packages/littlefs-v2.0.5/lfs.c:1016:28
	ldr	r1, [sp, #28]
	.loc	3 1017 13 is_stmt 1             @ packages/littlefs-v2.0.5/lfs.c:1017:13
	ldrh.w	r3, [sp, #26]
	movs	r2, #8
	movt	r2, #8192
	orr.w	r3, r2, r3, lsl #10
	.loc	3 1016 11                       @ packages/littlefs-v2.0.5/lfs.c:1016:11
	mov	r12, sp
	add	r2, sp, #8
	str.w	r2, [r12]
	movw	r2, #64512
	movt	r2, #28687
	bl	lfs_dir_get
	.loc	3 1016 9 is_stmt 0              @ packages/littlefs-v2.0.5/lfs.c:1016:9
	str	r0, [sp, #16]
.Ltmp324:
	.loc	3 1018 9 is_stmt 1              @ packages/littlefs-v2.0.5/lfs.c:1018:9
	ldr	r0, [sp, #16]
.Ltmp325:
	.loc	3 1018 9 is_stmt 0              @ packages/littlefs-v2.0.5/lfs.c:1018:9
	cmp.w	r0, #-1
	bgt	.LBB16_6
	b	.LBB16_5
.LBB16_5:
.Ltmp326:
	.loc	3 1019 16 is_stmt 1             @ packages/littlefs-v2.0.5/lfs.c:1019:16
	ldr	r0, [sp, #16]
	.loc	3 1019 9 is_stmt 0              @ packages/littlefs-v2.0.5/lfs.c:1019:9
	str	r0, [sp, #36]
	b	.LBB16_12
.Ltmp327:
.LBB16_6:
	.loc	3 0 9                           @ packages/littlefs-v2.0.5/lfs.c:0:9
	add	r0, sp, #8
	.loc	3 1021 5 is_stmt 1              @ packages/littlefs-v2.0.5/lfs.c:1021:5
	bl	lfs_ctz_fromle32
.Ltmp328:
	.loc	3 1023 23                       @ packages/littlefs-v2.0.5/lfs.c:1023:23
	ldr	r0, [sp, #16]
	.loc	3 1023 9 is_stmt 0              @ packages/littlefs-v2.0.5/lfs.c:1023:9
	bl	lfs_tag_type3
	movw	r1, #514
.Ltmp329:
	.loc	3 1023 9                        @ packages/littlefs-v2.0.5/lfs.c:1023:9
	cmp	r0, r1
	bne	.LBB16_8
	b	.LBB16_7
.LBB16_7:
.Ltmp330:
	.loc	3 1024 26 is_stmt 1             @ packages/littlefs-v2.0.5/lfs.c:1024:26
	ldr	r0, [sp, #12]
	.loc	3 1024 9 is_stmt 0              @ packages/littlefs-v2.0.5/lfs.c:1024:9
	ldr	r1, [sp, #20]
	.loc	3 1024 20                       @ packages/littlefs-v2.0.5/lfs.c:1024:20
	str	r0, [r1, #4]
	.loc	3 1025 5 is_stmt 1              @ packages/littlefs-v2.0.5/lfs.c:1025:5
	b	.LBB16_11
.Ltmp331:
.LBB16_8:
	.loc	3 1025 30 is_stmt 0             @ packages/littlefs-v2.0.5/lfs.c:1025:30
	ldr	r0, [sp, #16]
	.loc	3 1025 16                       @ packages/littlefs-v2.0.5/lfs.c:1025:16
	bl	lfs_tag_type3
	movw	r1, #513
.Ltmp332:
	.loc	3 1025 16                       @ packages/littlefs-v2.0.5/lfs.c:1025:16
	cmp	r0, r1
	bne	.LBB16_10
	b	.LBB16_9
.LBB16_9:
.Ltmp333:
	.loc	3 1026 35 is_stmt 1             @ packages/littlefs-v2.0.5/lfs.c:1026:35
	ldr	r0, [sp, #16]
	.loc	3 1026 22 is_stmt 0             @ packages/littlefs-v2.0.5/lfs.c:1026:22
	bl	lfs_tag_size
	.loc	3 1026 9                        @ packages/littlefs-v2.0.5/lfs.c:1026:9
	ldr	r1, [sp, #20]
	.loc	3 1026 20                       @ packages/littlefs-v2.0.5/lfs.c:1026:20
	str	r0, [r1, #4]
	.loc	3 1027 5 is_stmt 1              @ packages/littlefs-v2.0.5/lfs.c:1027:5
	b	.LBB16_10
.Ltmp334:
.LBB16_10:
	.loc	3 0 5 is_stmt 0                 @ packages/littlefs-v2.0.5/lfs.c:0:5
	b	.LBB16_11
.LBB16_11:
	movs	r0, #0
	.loc	3 1029 5 is_stmt 1              @ packages/littlefs-v2.0.5/lfs.c:1029:5
	str	r0, [sp, #36]
	b	.LBB16_12
.LBB16_12:
	.loc	3 1030 1                        @ packages/littlefs-v2.0.5/lfs.c:1030:1
	ldr	r0, [sp, #36]
	add	sp, #40
	pop	{r7, pc}
.Ltmp335:
.Lfunc_end16:
	.size	lfs_dir_getinfo, .Lfunc_end16-lfs_dir_getinfo
	.cfi_endproc
	.cantunwind
	.fnend
                                        @ -- End function
	.section	.text.lfs_dir_seek,"ax",%progbits
	.hidden	lfs_dir_seek                    @ -- Begin function lfs_dir_seek
	.globl	lfs_dir_seek
	.p2align	3
	.type	lfs_dir_seek,%function
	.code	16                              @ @lfs_dir_seek
	.thumb_func
lfs_dir_seek:
.Lfunc_begin17:
	.loc	3 2002 0                        @ packages/littlefs-v2.0.5/lfs.c:2002:0
	.fnstart
	.cfi_startproc
@ %bb.0:
	.save	{r7, lr}
	push	{r7, lr}
	.cfi_def_cfa_offset 8
	.cfi_offset lr, -4
	.cfi_offset r7, -8
	.pad	#24
	sub	sp, #24
	.cfi_def_cfa_offset 32
	str	r0, [sp, #16]
	str	r1, [sp, #12]
	str	r2, [sp, #8]
.Ltmp336:
	.loc	3 2004 30 prologue_end          @ packages/littlefs-v2.0.5/lfs.c:2004:30
	ldr	r0, [sp, #16]
	.loc	3 2004 35 is_stmt 0             @ packages/littlefs-v2.0.5/lfs.c:2004:35
	ldr	r1, [sp, #12]
	.loc	3 2004 15                       @ packages/littlefs-v2.0.5/lfs.c:2004:15
	bl	lfs_dir_rewind
	.loc	3 2004 9                        @ packages/littlefs-v2.0.5/lfs.c:2004:9
	str	r0, [sp, #4]
.Ltmp337:
	.loc	3 2005 9 is_stmt 1              @ packages/littlefs-v2.0.5/lfs.c:2005:9
	ldr	r0, [sp, #4]
.Ltmp338:
	.loc	3 2005 9 is_stmt 0              @ packages/littlefs-v2.0.5/lfs.c:2005:9
	cbz	r0, .LBB17_2
	b	.LBB17_1
.LBB17_1:
.Ltmp339:
	.loc	3 2006 16 is_stmt 1             @ packages/littlefs-v2.0.5/lfs.c:2006:16
	ldr	r0, [sp, #4]
	.loc	3 2006 9 is_stmt 0              @ packages/littlefs-v2.0.5/lfs.c:2006:9
	str	r0, [sp, #20]
	b	.LBB17_12
.Ltmp340:
.LBB17_2:
	.loc	3 2010 27 is_stmt 1             @ packages/littlefs-v2.0.5/lfs.c:2010:27
	ldr	r1, [sp, #8]
	movs	r0, #2
	.loc	3 2010 16 is_stmt 0             @ packages/littlefs-v2.0.5/lfs.c:2010:16
	bl	lfs_min
	.loc	3 2010 5                        @ packages/littlefs-v2.0.5/lfs.c:2010:5
	ldr	r1, [sp, #12]
	.loc	3 2010 14                       @ packages/littlefs-v2.0.5/lfs.c:2010:14
	str	r0, [r1, #40]
	.loc	3 2011 12 is_stmt 1             @ packages/littlefs-v2.0.5/lfs.c:2011:12
	ldr	r0, [sp, #12]
	.loc	3 2011 17 is_stmt 0             @ packages/littlefs-v2.0.5/lfs.c:2011:17
	ldr	r1, [r0, #40]
	.loc	3 2011 9                        @ packages/littlefs-v2.0.5/lfs.c:2011:9
	ldr	r0, [sp, #8]
	subs	r0, r0, r1
	str	r0, [sp, #8]
	.loc	3 2013 5 is_stmt 1              @ packages/littlefs-v2.0.5/lfs.c:2013:5
	b	.LBB17_3
.LBB17_3:                               @ =>This Inner Loop Header: Depth=1
	.loc	3 2013 12 is_stmt 0             @ packages/littlefs-v2.0.5/lfs.c:2013:12
	ldr	r0, [sp, #8]
	.loc	3 2013 5                        @ packages/littlefs-v2.0.5/lfs.c:2013:5
	cbz	r0, .LBB17_11
	b	.LBB17_4
.LBB17_4:                               @   in Loop: Header=BB17_3 Depth=1
.Ltmp341:
	.loc	3 2014 27 is_stmt 1             @ packages/littlefs-v2.0.5/lfs.c:2014:27
	ldr	r0, [sp, #12]
	.loc	3 2014 34 is_stmt 0             @ packages/littlefs-v2.0.5/lfs.c:2014:34
	ldrh	r0, [r0, #28]
	.loc	3 2014 41                       @ packages/littlefs-v2.0.5/lfs.c:2014:41
	ldr	r1, [sp, #8]
	.loc	3 2014 19                       @ packages/littlefs-v2.0.5/lfs.c:2014:19
	bl	lfs_min
	.loc	3 2014 9                        @ packages/littlefs-v2.0.5/lfs.c:2014:9
	ldr	r1, [sp, #12]
	.loc	3 2014 17                       @ packages/littlefs-v2.0.5/lfs.c:2014:17
	strh	r0, [r1, #4]
	.loc	3 2015 21 is_stmt 1             @ packages/littlefs-v2.0.5/lfs.c:2015:21
	ldr	r1, [sp, #12]
	.loc	3 2015 26 is_stmt 0             @ packages/littlefs-v2.0.5/lfs.c:2015:26
	ldrh	r2, [r1, #4]
	.loc	3 2015 18                       @ packages/littlefs-v2.0.5/lfs.c:2015:18
	ldr	r0, [r1, #40]
	add	r0, r2
	str	r0, [r1, #40]
	.loc	3 2016 16 is_stmt 1             @ packages/littlefs-v2.0.5/lfs.c:2016:16
	ldr	r0, [sp, #12]
	.loc	3 2016 21 is_stmt 0             @ packages/littlefs-v2.0.5/lfs.c:2016:21
	ldrh	r1, [r0, #4]
	.loc	3 2016 13                       @ packages/littlefs-v2.0.5/lfs.c:2016:13
	ldr	r0, [sp, #8]
	subs	r0, r0, r1
	str	r0, [sp, #8]
.Ltmp342:
	.loc	3 2018 13 is_stmt 1             @ packages/littlefs-v2.0.5/lfs.c:2018:13
	ldr	r1, [sp, #12]
	.loc	3 2018 18 is_stmt 0             @ packages/littlefs-v2.0.5/lfs.c:2018:18
	ldrh	r0, [r1, #4]
	.loc	3 2018 31                       @ packages/littlefs-v2.0.5/lfs.c:2018:31
	ldrh	r1, [r1, #28]
.Ltmp343:
	.loc	3 2018 13                       @ packages/littlefs-v2.0.5/lfs.c:2018:13
	cmp	r0, r1
	bne	.LBB17_10
	b	.LBB17_5
.LBB17_5:                               @   in Loop: Header=BB17_3 Depth=1
.Ltmp344:
	.loc	3 2019 18 is_stmt 1             @ packages/littlefs-v2.0.5/lfs.c:2019:18
	ldr	r0, [sp, #12]
	.loc	3 2019 25 is_stmt 0             @ packages/littlefs-v2.0.5/lfs.c:2019:25
	ldrb	r0, [r0, #31]
.Ltmp345:
	.loc	3 2019 17                       @ packages/littlefs-v2.0.5/lfs.c:2019:17
	lsls	r0, r0, #31
	cbnz	r0, .LBB17_7
	b	.LBB17_6
.LBB17_6:
	.loc	3 0 17                          @ packages/littlefs-v2.0.5/lfs.c:0:17
	mvn	r0, #21
.Ltmp346:
	.loc	3 2020 17 is_stmt 1             @ packages/littlefs-v2.0.5/lfs.c:2020:17
	str	r0, [sp, #20]
	b	.LBB17_12
.Ltmp347:
.LBB17_7:                               @   in Loop: Header=BB17_3 Depth=1
	.loc	3 2023 33                       @ packages/littlefs-v2.0.5/lfs.c:2023:33
	ldr	r0, [sp, #16]
	.loc	3 2023 39 is_stmt 0             @ packages/littlefs-v2.0.5/lfs.c:2023:39
	ldr	r2, [sp, #12]
	.loc	3 2023 44                       @ packages/littlefs-v2.0.5/lfs.c:2023:44
	add.w	r1, r2, #8
	.loc	3 2023 54                       @ packages/littlefs-v2.0.5/lfs.c:2023:54
	adds	r2, #32
	.loc	3 2023 19                       @ packages/littlefs-v2.0.5/lfs.c:2023:19
	bl	lfs_dir_fetch
	.loc	3 2023 17                       @ packages/littlefs-v2.0.5/lfs.c:2023:17
	str	r0, [sp, #4]
.Ltmp348:
	.loc	3 2024 17 is_stmt 1             @ packages/littlefs-v2.0.5/lfs.c:2024:17
	ldr	r0, [sp, #4]
.Ltmp349:
	.loc	3 2024 17 is_stmt 0             @ packages/littlefs-v2.0.5/lfs.c:2024:17
	cbz	r0, .LBB17_9
	b	.LBB17_8
.LBB17_8:
.Ltmp350:
	.loc	3 2025 24 is_stmt 1             @ packages/littlefs-v2.0.5/lfs.c:2025:24
	ldr	r0, [sp, #4]
	.loc	3 2025 17 is_stmt 0             @ packages/littlefs-v2.0.5/lfs.c:2025:17
	str	r0, [sp, #20]
	b	.LBB17_12
.Ltmp351:
.LBB17_9:                               @   in Loop: Header=BB17_3 Depth=1
	.loc	3 2027 9 is_stmt 1              @ packages/littlefs-v2.0.5/lfs.c:2027:9
	b	.LBB17_10
.Ltmp352:
.LBB17_10:                              @   in Loop: Header=BB17_3 Depth=1
	.loc	3 2013 5                        @ packages/littlefs-v2.0.5/lfs.c:2013:5
	b	.LBB17_3
.LBB17_11:
	.loc	3 0 5 is_stmt 0                 @ packages/littlefs-v2.0.5/lfs.c:0:5
	movs	r0, #0
	.loc	3 2030 5 is_stmt 1              @ packages/littlefs-v2.0.5/lfs.c:2030:5
	str	r0, [sp, #20]
	b	.LBB17_12
.LBB17_12:
	.loc	3 2031 1                        @ packages/littlefs-v2.0.5/lfs.c:2031:1
	ldr	r0, [sp, #20]
	add	sp, #24
	pop	{r7, pc}
.Ltmp353:
.Lfunc_end17:
	.size	lfs_dir_seek, .Lfunc_end17-lfs_dir_seek
	.cfi_endproc
	.cantunwind
	.fnend
                                        @ -- End function
	.section	.text.lfs_dir_rewind,"ax",%progbits
	.hidden	lfs_dir_rewind                  @ -- Begin function lfs_dir_rewind
	.globl	lfs_dir_rewind
	.p2align	3
	.type	lfs_dir_rewind,%function
	.code	16                              @ @lfs_dir_rewind
	.thumb_func
lfs_dir_rewind:
.Lfunc_begin18:
	.loc	3 2038 0                        @ packages/littlefs-v2.0.5/lfs.c:2038:0
	.fnstart
	.cfi_startproc
@ %bb.0:
	.save	{r7, lr}
	push	{r7, lr}
	.cfi_def_cfa_offset 8
	.cfi_offset lr, -4
	.cfi_offset r7, -8
	.pad	#16
	sub	sp, #16
	.cfi_def_cfa_offset 24
	str	r0, [sp, #8]
	str	r1, [sp, #4]
.Ltmp354:
	.loc	3 2040 29 prologue_end          @ packages/littlefs-v2.0.5/lfs.c:2040:29
	ldr	r0, [sp, #8]
	.loc	3 2040 35 is_stmt 0             @ packages/littlefs-v2.0.5/lfs.c:2040:35
	ldr	r2, [sp, #4]
	.loc	3 2040 40                       @ packages/littlefs-v2.0.5/lfs.c:2040:40
	add.w	r1, r2, #8
	.loc	3 2040 48                       @ packages/littlefs-v2.0.5/lfs.c:2040:48
	adds	r2, #44
	.loc	3 2040 15                       @ packages/littlefs-v2.0.5/lfs.c:2040:15
	bl	lfs_dir_fetch
	.loc	3 2040 9                        @ packages/littlefs-v2.0.5/lfs.c:2040:9
	str	r0, [sp]
.Ltmp355:
	.loc	3 2041 9 is_stmt 1              @ packages/littlefs-v2.0.5/lfs.c:2041:9
	ldr	r0, [sp]
.Ltmp356:
	.loc	3 2041 9 is_stmt 0              @ packages/littlefs-v2.0.5/lfs.c:2041:9
	cbz	r0, .LBB18_2
	b	.LBB18_1
.LBB18_1:
.Ltmp357:
	.loc	3 2042 16 is_stmt 1             @ packages/littlefs-v2.0.5/lfs.c:2042:16
	ldr	r0, [sp]
	.loc	3 2042 9 is_stmt 0              @ packages/littlefs-v2.0.5/lfs.c:2042:9
	str	r0, [sp, #12]
	b	.LBB18_3
.Ltmp358:
.LBB18_2:
	.loc	3 2045 22 is_stmt 1             @ packages/littlefs-v2.0.5/lfs.c:2045:22
	ldr	r1, [sp, #4]
	ldr	r0, [r1, #44]
	.loc	3 2045 20 is_stmt 0             @ packages/littlefs-v2.0.5/lfs.c:2045:20
	str	r0, [r1, #8]
	.loc	3 2046 22 is_stmt 1             @ packages/littlefs-v2.0.5/lfs.c:2046:22
	ldr	r1, [sp, #4]
	ldr	r0, [r1, #48]
	.loc	3 2046 20 is_stmt 0             @ packages/littlefs-v2.0.5/lfs.c:2046:20
	str	r0, [r1, #12]
	.loc	3 2047 5 is_stmt 1              @ packages/littlefs-v2.0.5/lfs.c:2047:5
	ldr	r1, [sp, #4]
	movs	r0, #0
	.loc	3 2047 13 is_stmt 0             @ packages/littlefs-v2.0.5/lfs.c:2047:13
	strh	r0, [r1, #4]
	.loc	3 2048 5 is_stmt 1              @ packages/littlefs-v2.0.5/lfs.c:2048:5
	ldr	r1, [sp, #4]
	.loc	3 2048 14 is_stmt 0             @ packages/littlefs-v2.0.5/lfs.c:2048:14
	str	r0, [r1, #40]
	.loc	3 2049 5 is_stmt 1              @ packages/littlefs-v2.0.5/lfs.c:2049:5
	str	r0, [sp, #12]
	b	.LBB18_3
.LBB18_3:
	.loc	3 2050 1                        @ packages/littlefs-v2.0.5/lfs.c:2050:1
	ldr	r0, [sp, #12]
	add	sp, #16
	pop	{r7, pc}
.Ltmp359:
.Lfunc_end18:
	.size	lfs_dir_rewind, .Lfunc_end18-lfs_dir_rewind
	.cfi_endproc
	.cantunwind
	.fnend
                                        @ -- End function
	.section	.text.lfs_min,"ax",%progbits
	.p2align	3                               @ -- Begin function lfs_min
	.type	lfs_min,%function
	.code	16                              @ @lfs_min
	.thumb_func
lfs_min:
.Lfunc_begin19:
	.file	4 "E:\\STM32\\Learning\\STM32H750_ART_PI_RGBLCD" "./packages/littlefs-v2.0.5/lfs_config.h"
	.loc	4 55 0                          @ ./packages/littlefs-v2.0.5/lfs_config.h:55:0
	.fnstart
	.cfi_startproc
@ %bb.0:
	.pad	#12
	sub	sp, #12
	.cfi_def_cfa_offset 12
	str	r0, [sp, #8]
	str	r1, [sp, #4]
.Ltmp360:
	.loc	4 56 13 prologue_end            @ ./packages/littlefs-v2.0.5/lfs_config.h:56:13
	ldr	r0, [sp, #8]
	.loc	4 56 17 is_stmt 0               @ ./packages/littlefs-v2.0.5/lfs_config.h:56:17
	ldr	r1, [sp, #4]
	.loc	4 56 12                         @ ./packages/littlefs-v2.0.5/lfs_config.h:56:12
	cmp	r0, r1
	bhs	.LBB19_2
	b	.LBB19_1
.LBB19_1:
	.loc	4 56 22                         @ ./packages/littlefs-v2.0.5/lfs_config.h:56:22
	ldr	r0, [sp, #8]
	.loc	4 56 12                         @ ./packages/littlefs-v2.0.5/lfs_config.h:56:12
	str	r0, [sp]                        @ 4-byte Spill
	b	.LBB19_3
.LBB19_2:
	.loc	4 56 26                         @ ./packages/littlefs-v2.0.5/lfs_config.h:56:26
	ldr	r0, [sp, #4]
	.loc	4 56 12                         @ ./packages/littlefs-v2.0.5/lfs_config.h:56:12
	str	r0, [sp]                        @ 4-byte Spill
	b	.LBB19_3
.LBB19_3:
	ldr	r0, [sp]                        @ 4-byte Reload
	.loc	4 56 5                          @ ./packages/littlefs-v2.0.5/lfs_config.h:56:5
	add	sp, #12
	bx	lr
.Ltmp361:
.Lfunc_end19:
	.size	lfs_min, .Lfunc_end19-lfs_min
	.cfi_endproc
	.cantunwind
	.fnend
                                        @ -- End function
	.section	.text.lfs_dir_tell,"ax",%progbits
	.hidden	lfs_dir_tell                    @ -- Begin function lfs_dir_tell
	.globl	lfs_dir_tell
	.p2align	3
	.type	lfs_dir_tell,%function
	.code	16                              @ @lfs_dir_tell
	.thumb_func
lfs_dir_tell:
.Lfunc_begin20:
	.loc	3 2033 0 is_stmt 1              @ packages/littlefs-v2.0.5/lfs.c:2033:0
	.fnstart
	.cfi_startproc
@ %bb.0:
	.pad	#8
	sub	sp, #8
	.cfi_def_cfa_offset 8
	str	r0, [sp, #4]
	str	r1, [sp]
.Ltmp362:
	.loc	3 2035 12 prologue_end          @ packages/littlefs-v2.0.5/lfs.c:2035:12
	ldr	r0, [sp]
	.loc	3 2035 17 is_stmt 0             @ packages/littlefs-v2.0.5/lfs.c:2035:17
	ldr	r0, [r0, #40]
	.loc	3 2035 5                        @ packages/littlefs-v2.0.5/lfs.c:2035:5
	add	sp, #8
	bx	lr
.Ltmp363:
.Lfunc_end20:
	.size	lfs_dir_tell, .Lfunc_end20-lfs_dir_tell
	.cfi_endproc
	.cantunwind
	.fnend
                                        @ -- End function
	.section	.text.lfs_file_opencfg,"ax",%progbits
	.hidden	lfs_file_opencfg                @ -- Begin function lfs_file_opencfg
	.globl	lfs_file_opencfg
	.p2align	3
	.type	lfs_file_opencfg,%function
	.code	16                              @ @lfs_file_opencfg
	.thumb_func
lfs_file_opencfg:
.Lfunc_begin21:
	.loc	3 2250 0 is_stmt 1              @ packages/littlefs-v2.0.5/lfs.c:2250:0
	.fnstart
	.cfi_startproc
@ %bb.0:
	.save	{r7, lr}
	push	{r7, lr}
	.cfi_def_cfa_offset 8
	.cfi_offset lr, -4
	.cfi_offset r7, -8
	.pad	#88
	sub	sp, #88
	.cfi_def_cfa_offset 96
	ldr.w	r12, [sp, #96]
	str	r0, [sp, #80]
	str	r1, [sp, #76]
	str	r2, [sp, #72]
	str	r3, [sp, #68]
.Ltmp364:
	.loc	3 2252 10 prologue_end          @ packages/littlefs-v2.0.5/lfs.c:2252:10
	ldr	r0, [sp, #68]
	.loc	3 2252 16 is_stmt 0             @ packages/littlefs-v2.0.5/lfs.c:2252:16
	and	r0, r0, #3
.Ltmp365:
	.loc	3 2252 9                        @ packages/littlefs-v2.0.5/lfs.c:2252:9
	cmp	r0, #1
	beq	.LBB21_4
	b	.LBB21_1
.LBB21_1:
.Ltmp366:
	.loc	3 2253 43 is_stmt 1             @ packages/littlefs-v2.0.5/lfs.c:2253:43
	ldr	r0, [sp, #80]
	.loc	3 2253 19 is_stmt 0             @ packages/littlefs-v2.0.5/lfs.c:2253:19
	bl	lfs_fs_forceconsistency
	.loc	3 2253 13                       @ packages/littlefs-v2.0.5/lfs.c:2253:13
	str	r0, [sp, #64]
.Ltmp367:
	.loc	3 2254 13 is_stmt 1             @ packages/littlefs-v2.0.5/lfs.c:2254:13
	ldr	r0, [sp, #64]
.Ltmp368:
	.loc	3 2254 13 is_stmt 0             @ packages/littlefs-v2.0.5/lfs.c:2254:13
	cbz	r0, .LBB21_3
	b	.LBB21_2
.LBB21_2:
.Ltmp369:
	.loc	3 2255 20 is_stmt 1             @ packages/littlefs-v2.0.5/lfs.c:2255:20
	ldr	r0, [sp, #64]
	.loc	3 2255 13 is_stmt 0             @ packages/littlefs-v2.0.5/lfs.c:2255:13
	str	r0, [sp, #84]
	b	.LBB21_54
.Ltmp370:
.LBB21_3:
	.loc	3 2257 5 is_stmt 1              @ packages/littlefs-v2.0.5/lfs.c:2257:5
	b	.LBB21_4
.Ltmp371:
.LBB21_4:
	.loc	3 2261 17                       @ packages/littlefs-v2.0.5/lfs.c:2261:17
	ldr	r0, [sp, #96]
	.loc	3 2261 5 is_stmt 0              @ packages/littlefs-v2.0.5/lfs.c:2261:5
	ldr	r1, [sp, #76]
	.loc	3 2261 15                       @ packages/littlefs-v2.0.5/lfs.c:2261:15
	str	r0, [r1, #80]
	.loc	3 2262 19 is_stmt 1             @ packages/littlefs-v2.0.5/lfs.c:2262:19
	ldr	r0, [sp, #68]
	.loc	3 2262 5 is_stmt 0              @ packages/littlefs-v2.0.5/lfs.c:2262:5
	ldr	r1, [sp, #76]
	.loc	3 2262 17                       @ packages/littlefs-v2.0.5/lfs.c:2262:17
	str	r0, [r1, #48]
	.loc	3 2263 5 is_stmt 1              @ packages/littlefs-v2.0.5/lfs.c:2263:5
	ldr	r1, [sp, #76]
	movs	r0, #0
	.loc	3 2263 15 is_stmt 0             @ packages/littlefs-v2.0.5/lfs.c:2263:15
	str	r0, [r1, #52]
	.loc	3 2264 5 is_stmt 1              @ packages/littlefs-v2.0.5/lfs.c:2264:5
	ldr	r1, [sp, #76]
	.loc	3 2264 24 is_stmt 0             @ packages/littlefs-v2.0.5/lfs.c:2264:24
	str	r0, [r1, #76]
	.loc	3 2267 35 is_stmt 1             @ packages/littlefs-v2.0.5/lfs.c:2267:35
	ldr	r0, [sp, #80]
	.loc	3 2267 41 is_stmt 0             @ packages/littlefs-v2.0.5/lfs.c:2267:41
	ldr	r2, [sp, #76]
	.loc	3 2267 47                       @ packages/littlefs-v2.0.5/lfs.c:2267:47
	add.w	r1, r2, #8
	.loc	3 2267 64                       @ packages/littlefs-v2.0.5/lfs.c:2267:64
	adds	r3, r2, #4
	add	r2, sp, #72
	.loc	3 2267 22                       @ packages/littlefs-v2.0.5/lfs.c:2267:22
	bl	lfs_dir_find
	.loc	3 2267 16                       @ packages/littlefs-v2.0.5/lfs.c:2267:16
	str	r0, [sp, #56]
.Ltmp372:
	.loc	3 2268 9 is_stmt 1              @ packages/littlefs-v2.0.5/lfs.c:2268:9
	ldr	r0, [sp, #56]
	.loc	3 2268 17 is_stmt 0             @ packages/littlefs-v2.0.5/lfs.c:2268:17
	cmp.w	r0, #-1
	bgt	.LBB21_8
	b	.LBB21_5
.LBB21_5:
	.loc	3 2268 22                       @ packages/littlefs-v2.0.5/lfs.c:2268:22
	ldr	r0, [sp, #56]
	.loc	3 2268 43                       @ packages/littlefs-v2.0.5/lfs.c:2268:43
	adds	r0, #2
	cbnz	r0, .LBB21_7
	b	.LBB21_6
.LBB21_6:
	.loc	3 2268 46                       @ packages/littlefs-v2.0.5/lfs.c:2268:46
	ldr	r0, [sp, #76]
	.loc	3 2268 52                       @ packages/littlefs-v2.0.5/lfs.c:2268:52
	ldrh	r0, [r0, #4]
	movw	r1, #1023
.Ltmp373:
	.loc	3 2268 9                        @ packages/littlefs-v2.0.5/lfs.c:2268:9
	cmp	r0, r1
	bne	.LBB21_8
	b	.LBB21_7
.LBB21_7:
.Ltmp374:
	.loc	3 2269 15 is_stmt 1             @ packages/littlefs-v2.0.5/lfs.c:2269:15
	ldr	r0, [sp, #56]
	.loc	3 2269 13 is_stmt 0             @ packages/littlefs-v2.0.5/lfs.c:2269:13
	str	r0, [sp, #60]
	.loc	3 2270 9 is_stmt 1              @ packages/littlefs-v2.0.5/lfs.c:2270:9
	b	.LBB21_53
.Ltmp375:
.LBB21_8:
	.loc	3 2274 5                        @ packages/littlefs-v2.0.5/lfs.c:2274:5
	ldr	r1, [sp, #76]
	movs	r0, #1
	.loc	3 2274 16 is_stmt 0             @ packages/littlefs-v2.0.5/lfs.c:2274:16
	strb	r0, [r1, #6]
	.loc	3 2275 31 is_stmt 1             @ packages/littlefs-v2.0.5/lfs.c:2275:31
	ldr	r0, [sp, #80]
	.loc	3 2275 36 is_stmt 0             @ packages/littlefs-v2.0.5/lfs.c:2275:36
	ldr	r0, [r0, #40]
	.loc	3 2275 5                        @ packages/littlefs-v2.0.5/lfs.c:2275:5
	ldr	r1, [sp, #76]
	.loc	3 2275 16                       @ packages/littlefs-v2.0.5/lfs.c:2275:16
	str	r0, [r1]
	.loc	3 2276 37 is_stmt 1             @ packages/littlefs-v2.0.5/lfs.c:2276:37
	ldr	r0, [sp, #76]
	.loc	3 2276 5 is_stmt 0              @ packages/littlefs-v2.0.5/lfs.c:2276:5
	ldr	r1, [sp, #80]
	.loc	3 2276 16                       @ packages/littlefs-v2.0.5/lfs.c:2276:16
	str	r0, [r1, #40]
.Ltmp376:
	.loc	3 2278 9 is_stmt 1              @ packages/littlefs-v2.0.5/lfs.c:2278:9
	ldr	r0, [sp, #56]
.Ltmp377:
	.loc	3 2278 9 is_stmt 0              @ packages/littlefs-v2.0.5/lfs.c:2278:9
	adds	r0, #2
	cmp	r0, #0
	bne	.LBB21_16
	b	.LBB21_9
.LBB21_9:
.Ltmp378:
	.loc	3 2279 13 is_stmt 1             @ packages/littlefs-v2.0.5/lfs.c:2279:13
	ldrb.w	r0, [sp, #69]
	lsls	r0, r0, #31
	cbnz	r0, .LBB21_11
	b	.LBB21_10
.LBB21_10:
	.loc	3 0 13 is_stmt 0                @ packages/littlefs-v2.0.5/lfs.c:0:13
	mvn	r0, #1
.Ltmp379:
	.loc	3 2280 17 is_stmt 1             @ packages/littlefs-v2.0.5/lfs.c:2280:17
	str	r0, [sp, #60]
	.loc	3 2281 13                       @ packages/littlefs-v2.0.5/lfs.c:2281:13
	b	.LBB21_53
.Ltmp380:
.LBB21_11:
	.loc	3 2285 34                       @ packages/littlefs-v2.0.5/lfs.c:2285:34
	ldr	r0, [sp, #72]
	.loc	3 2285 27 is_stmt 0             @ packages/littlefs-v2.0.5/lfs.c:2285:27
	bl	strlen
	.loc	3 2285 20                       @ packages/littlefs-v2.0.5/lfs.c:2285:20
	str	r0, [sp, #52]
.Ltmp381:
	.loc	3 2286 13 is_stmt 1             @ packages/littlefs-v2.0.5/lfs.c:2286:13
	ldr	r0, [sp, #52]
	.loc	3 2286 20 is_stmt 0             @ packages/littlefs-v2.0.5/lfs.c:2286:20
	ldr	r1, [sp, #80]
	.loc	3 2286 25                       @ packages/littlefs-v2.0.5/lfs.c:2286:25
	ldr	r1, [r1, #108]
.Ltmp382:
	.loc	3 2286 13                       @ packages/littlefs-v2.0.5/lfs.c:2286:13
	cmp	r0, r1
	bls	.LBB21_13
	b	.LBB21_12
.LBB21_12:
	.loc	3 0 13                          @ packages/littlefs-v2.0.5/lfs.c:0:13
	mvn	r0, #35
.Ltmp383:
	.loc	3 2287 17 is_stmt 1             @ packages/littlefs-v2.0.5/lfs.c:2287:17
	str	r0, [sp, #60]
	.loc	3 2288 13                       @ packages/littlefs-v2.0.5/lfs.c:2288:13
	b	.LBB21_53
.Ltmp384:
.LBB21_13:
	.loc	3 2292 30                       @ packages/littlefs-v2.0.5/lfs.c:2292:30
	ldr	r0, [sp, #80]
	.loc	3 2292 36 is_stmt 0             @ packages/littlefs-v2.0.5/lfs.c:2292:36
	ldr	r2, [sp, #76]
	.loc	3 2292 42                       @ packages/littlefs-v2.0.5/lfs.c:2292:42
	add.w	r1, r2, #8
	.loc	3 2292 45                       @ packages/littlefs-v2.0.5/lfs.c:2292:45
	ldrh	r3, [r2, #4]
	movs	r2, #0
	movt	r2, #16400
	orr.w	r2, r2, r3, lsl #10
	str	r2, [sp, #28]
	movs	r2, #0
	str	r2, [sp, #32]
	ldr	r3, [sp, #76]
	ldrh.w	r12, [r3, #4]
	ldr	r3, [sp, #52]
	orr.w	r3, r3, r12, lsl #10
	orr	r3, r3, #1048576
	str	r3, [sp, #36]
	ldr	r3, [sp, #72]
	str	r3, [sp, #40]
	ldr	r3, [sp, #76]
	ldrh.w	r12, [r3, #4]
	movs	r3, #0
	movt	r3, #8208
	orr.w	r3, r3, r12, lsl #10
	str	r3, [sp, #44]
	str	r2, [sp, #48]
	add	r2, sp, #28
	movs	r3, #3
	.loc	3 2292 15                       @ packages/littlefs-v2.0.5/lfs.c:2292:15
	bl	lfs_dir_commit
	.loc	3 2292 13                       @ packages/littlefs-v2.0.5/lfs.c:2292:13
	str	r0, [sp, #60]
.Ltmp385:
	.loc	3 2296 13 is_stmt 1             @ packages/littlefs-v2.0.5/lfs.c:2296:13
	ldr	r0, [sp, #60]
.Ltmp386:
	.loc	3 2296 13 is_stmt 0             @ packages/littlefs-v2.0.5/lfs.c:2296:13
	cbz	r0, .LBB21_15
	b	.LBB21_14
.LBB21_14:
	.loc	3 0 13                          @ packages/littlefs-v2.0.5/lfs.c:0:13
	mvn	r0, #35
.Ltmp387:
	.loc	3 2297 17 is_stmt 1             @ packages/littlefs-v2.0.5/lfs.c:2297:17
	str	r0, [sp, #60]
	.loc	3 2298 13                       @ packages/littlefs-v2.0.5/lfs.c:2298:13
	b	.LBB21_53
.Ltmp388:
.LBB21_15:
	.loc	3 0 13 is_stmt 0                @ packages/littlefs-v2.0.5/lfs.c:0:13
	movs	r0, #0
	movt	r0, #8208
	.loc	3 2301 13 is_stmt 1             @ packages/littlefs-v2.0.5/lfs.c:2301:13
	str	r0, [sp, #56]
	.loc	3 2302 5                        @ packages/littlefs-v2.0.5/lfs.c:2302:5
	b	.LBB21_28
.Ltmp389:
.LBB21_16:
	.loc	3 2302 16 is_stmt 0             @ packages/littlefs-v2.0.5/lfs.c:2302:16
	ldrb.w	r0, [sp, #69]
	lsls	r0, r0, #30
	cmp	r0, #0
	bpl	.LBB21_18
	b	.LBB21_17
.LBB21_17:
	.loc	3 0 16                          @ packages/littlefs-v2.0.5/lfs.c:0:16
	mvn	r0, #16
.Ltmp390:
	.loc	3 2303 13 is_stmt 1             @ packages/littlefs-v2.0.5/lfs.c:2303:13
	str	r0, [sp, #60]
	.loc	3 2304 9                        @ packages/littlefs-v2.0.5/lfs.c:2304:9
	b	.LBB21_53
.Ltmp391:
.LBB21_18:
	.loc	3 2305 30                       @ packages/littlefs-v2.0.5/lfs.c:2305:30
	ldr	r0, [sp, #56]
	.loc	3 2305 16 is_stmt 0             @ packages/littlefs-v2.0.5/lfs.c:2305:16
	bl	lfs_tag_type3
.Ltmp392:
	.loc	3 2305 16                       @ packages/littlefs-v2.0.5/lfs.c:2305:16
	cmp	r0, #1
	beq	.LBB21_20
	b	.LBB21_19
.LBB21_19:
	.loc	3 0 16                          @ packages/littlefs-v2.0.5/lfs.c:0:16
	mvn	r0, #20
.Ltmp393:
	.loc	3 2306 13 is_stmt 1             @ packages/littlefs-v2.0.5/lfs.c:2306:13
	str	r0, [sp, #60]
	.loc	3 2307 9                        @ packages/littlefs-v2.0.5/lfs.c:2307:9
	b	.LBB21_53
.Ltmp394:
.LBB21_20:
	.loc	3 2308 16                       @ packages/littlefs-v2.0.5/lfs.c:2308:16
	ldrb.w	r0, [sp, #69]
	lsls	r0, r0, #29
	cmp	r0, #0
	bpl	.LBB21_22
	b	.LBB21_21
.LBB21_21:
.Ltmp395:
	.loc	3 2310 15                       @ packages/littlefs-v2.0.5/lfs.c:2310:15
	ldr	r0, [sp, #76]
	ldrh	r1, [r0, #4]
	movs	r0, #0
	movt	r0, #8208
	orr.w	r0, r0, r1, lsl #10
	.loc	3 2310 13 is_stmt 0             @ packages/littlefs-v2.0.5/lfs.c:2310:13
	str	r0, [sp, #56]
	.loc	3 2311 9 is_stmt 1              @ packages/littlefs-v2.0.5/lfs.c:2311:9
	ldr	r1, [sp, #76]
	.loc	3 2311 21 is_stmt 0             @ packages/littlefs-v2.0.5/lfs.c:2311:21
	ldr	r0, [r1, #48]
	orr	r0, r0, #65536
	str	r0, [r1, #48]
	.loc	3 2312 5 is_stmt 1              @ packages/littlefs-v2.0.5/lfs.c:2312:5
	b	.LBB21_25
.Ltmp396:
.LBB21_22:
	.loc	3 2314 27                       @ packages/littlefs-v2.0.5/lfs.c:2314:27
	ldr	r0, [sp, #80]
	.loc	3 2314 33 is_stmt 0             @ packages/littlefs-v2.0.5/lfs.c:2314:33
	ldr	r2, [sp, #76]
	.loc	3 2314 39                       @ packages/littlefs-v2.0.5/lfs.c:2314:39
	add.w	r1, r2, #8
	.loc	3 2315 17 is_stmt 1             @ packages/littlefs-v2.0.5/lfs.c:2315:17
	ldrh.w	r12, [r2, #4]
	movs	r3, #8
	movt	r3, #8192
	orr.w	r3, r3, r12, lsl #10
	.loc	3 2315 65 is_stmt 0             @ packages/littlefs-v2.0.5/lfs.c:2315:65
	adds	r2, #40
	.loc	3 2314 15 is_stmt 1             @ packages/littlefs-v2.0.5/lfs.c:2314:15
	mov	r12, sp
	str.w	r2, [r12]
	movw	r2, #64512
	movt	r2, #28687
	bl	lfs_dir_get
	.loc	3 2314 13 is_stmt 0             @ packages/littlefs-v2.0.5/lfs.c:2314:13
	str	r0, [sp, #56]
.Ltmp397:
	.loc	3 2316 13 is_stmt 1             @ packages/littlefs-v2.0.5/lfs.c:2316:13
	ldr	r0, [sp, #56]
.Ltmp398:
	.loc	3 2316 13 is_stmt 0             @ packages/littlefs-v2.0.5/lfs.c:2316:13
	cmp.w	r0, #-1
	bgt	.LBB21_24
	b	.LBB21_23
.LBB21_23:
.Ltmp399:
	.loc	3 2317 19 is_stmt 1             @ packages/littlefs-v2.0.5/lfs.c:2317:19
	ldr	r0, [sp, #56]
	.loc	3 2317 17 is_stmt 0             @ packages/littlefs-v2.0.5/lfs.c:2317:17
	str	r0, [sp, #60]
	.loc	3 2318 13 is_stmt 1             @ packages/littlefs-v2.0.5/lfs.c:2318:13
	b	.LBB21_53
.Ltmp400:
.LBB21_24:
	.loc	3 2320 27                       @ packages/littlefs-v2.0.5/lfs.c:2320:27
	ldr	r0, [sp, #76]
	.loc	3 2320 33 is_stmt 0             @ packages/littlefs-v2.0.5/lfs.c:2320:33
	adds	r0, #40
	.loc	3 2320 9                        @ packages/littlefs-v2.0.5/lfs.c:2320:9
	bl	lfs_ctz_fromle32
	b	.LBB21_25
.Ltmp401:
.LBB21_25:
	.loc	3 0 9                           @ packages/littlefs-v2.0.5/lfs.c:0:9
	b	.LBB21_26
.LBB21_26:
	b	.LBB21_27
.LBB21_27:
	b	.LBB21_28
.LBB21_28:
	movs	r0, #0
.Ltmp402:
	.loc	3 2324 19 is_stmt 1             @ packages/littlefs-v2.0.5/lfs.c:2324:19
	str	r0, [sp, #24]
	.loc	3 2324 10 is_stmt 0             @ packages/littlefs-v2.0.5/lfs.c:2324:10
	b	.LBB21_29
.LBB21_29:                              @ =>This Inner Loop Header: Depth=1
.Ltmp403:
	.loc	3 2324 26                       @ packages/littlefs-v2.0.5/lfs.c:2324:26
	ldr	r0, [sp, #24]
	.loc	3 2324 30                       @ packages/littlefs-v2.0.5/lfs.c:2324:30
	ldr	r1, [sp, #76]
	.loc	3 2324 36                       @ packages/littlefs-v2.0.5/lfs.c:2324:36
	ldr	r1, [r1, #80]
	.loc	3 2324 41                       @ packages/littlefs-v2.0.5/lfs.c:2324:41
	ldr	r1, [r1, #8]
.Ltmp404:
	.loc	3 2324 5                        @ packages/littlefs-v2.0.5/lfs.c:2324:5
	cmp	r0, r1
	bhs	.LBB21_41
	b	.LBB21_30
.LBB21_30:                              @   in Loop: Header=BB21_29 Depth=1
.Ltmp405:
	.loc	3 2325 14 is_stmt 1             @ packages/littlefs-v2.0.5/lfs.c:2325:14
	ldr	r0, [sp, #76]
	.loc	3 2325 20 is_stmt 0             @ packages/littlefs-v2.0.5/lfs.c:2325:20
	ldr	r0, [r0, #48]
	.loc	3 2325 26                       @ packages/littlefs-v2.0.5/lfs.c:2325:26
	and	r0, r0, #3
.Ltmp406:
	.loc	3 2325 13                       @ packages/littlefs-v2.0.5/lfs.c:2325:13
	cmp	r0, #2
	beq	.LBB21_35
	b	.LBB21_31
.LBB21_31:                              @   in Loop: Header=BB21_29 Depth=1
.Ltmp407:
	.loc	3 2326 42 is_stmt 1             @ packages/littlefs-v2.0.5/lfs.c:2326:42
	ldr	r0, [sp, #80]
	.loc	3 2326 48 is_stmt 0             @ packages/littlefs-v2.0.5/lfs.c:2326:48
	ldr	r3, [sp, #76]
	.loc	3 2326 54                       @ packages/littlefs-v2.0.5/lfs.c:2326:54
	add.w	r1, r3, #8
	.loc	3 2328 21 is_stmt 1             @ packages/littlefs-v2.0.5/lfs.c:2328:21
	ldr	r2, [r3, #80]
	ldr	r2, [r2, #4]
	ldr.w	r12, [sp, #24]
	add.w	lr, r12, r12, lsl #1
	add.w	r12, r2, lr, lsl #2
	ldrb.w	r2, [r2, lr, lsl #2]
	lsls	r2, r2, #20
	ldrh	r3, [r3, #4]
	orr.w	r3, r2, r3, lsl #10
	.loc	3 2330 45                       @ packages/littlefs-v2.0.5/lfs.c:2330:45
	ldr.w	r2, [r12, #4]
	.loc	3 2328 21                       @ packages/littlefs-v2.0.5/lfs.c:2328:21
	ldr.w	r12, [r12, #8]
	orr.w	r3, r3, r12
	orr	r3, r3, #805306368
	.loc	3 2326 30                       @ packages/littlefs-v2.0.5/lfs.c:2326:30
	mov	r12, sp
	str.w	r2, [r12]
	movw	r2, #64512
	movt	r2, #32767
	bl	lfs_dir_get
	.loc	3 2326 24 is_stmt 0             @ packages/littlefs-v2.0.5/lfs.c:2326:24
	str	r0, [sp, #20]
.Ltmp408:
	.loc	3 2331 17 is_stmt 1             @ packages/littlefs-v2.0.5/lfs.c:2331:17
	ldr	r0, [sp, #20]
	.loc	3 2331 25 is_stmt 0             @ packages/littlefs-v2.0.5/lfs.c:2331:25
	cmp.w	r0, #-1
	bgt	.LBB21_34
	b	.LBB21_32
.LBB21_32:                              @   in Loop: Header=BB21_29 Depth=1
	.loc	3 2331 28                       @ packages/littlefs-v2.0.5/lfs.c:2331:28
	ldr	r0, [sp, #20]
.Ltmp409:
	.loc	3 2331 17                       @ packages/littlefs-v2.0.5/lfs.c:2331:17
	adds	r0, #2
	cbz	r0, .LBB21_34
	b	.LBB21_33
.LBB21_33:
.Ltmp410:
	.loc	3 2332 23 is_stmt 1             @ packages/littlefs-v2.0.5/lfs.c:2332:23
	ldr	r0, [sp, #20]
	.loc	3 2332 21 is_stmt 0             @ packages/littlefs-v2.0.5/lfs.c:2332:21
	str	r0, [sp, #60]
	.loc	3 2333 17 is_stmt 1             @ packages/littlefs-v2.0.5/lfs.c:2333:17
	b	.LBB21_53
.Ltmp411:
.LBB21_34:                              @   in Loop: Header=BB21_29 Depth=1
	.loc	3 2335 9                        @ packages/littlefs-v2.0.5/lfs.c:2335:9
	b	.LBB21_35
.Ltmp412:
.LBB21_35:                              @   in Loop: Header=BB21_29 Depth=1
	.loc	3 2337 14                       @ packages/littlefs-v2.0.5/lfs.c:2337:14
	ldr	r0, [sp, #76]
	.loc	3 2337 20 is_stmt 0             @ packages/littlefs-v2.0.5/lfs.c:2337:20
	ldr	r0, [r0, #48]
	.loc	3 2337 26                       @ packages/littlefs-v2.0.5/lfs.c:2337:26
	and	r0, r0, #3
.Ltmp413:
	.loc	3 2337 13                       @ packages/littlefs-v2.0.5/lfs.c:2337:13
	cmp	r0, #1
	beq	.LBB21_39
	b	.LBB21_36
.LBB21_36:                              @   in Loop: Header=BB21_29 Depth=1
.Ltmp414:
	.loc	3 2338 17 is_stmt 1             @ packages/littlefs-v2.0.5/lfs.c:2338:17
	ldr	r0, [sp, #76]
	.loc	3 2338 23 is_stmt 0             @ packages/littlefs-v2.0.5/lfs.c:2338:23
	ldr	r0, [r0, #80]
	.loc	3 2338 28                       @ packages/littlefs-v2.0.5/lfs.c:2338:28
	ldr	r0, [r0, #4]
	.loc	3 2338 34                       @ packages/littlefs-v2.0.5/lfs.c:2338:34
	ldr	r1, [sp, #24]
	.loc	3 2338 17                       @ packages/littlefs-v2.0.5/lfs.c:2338:17
	add.w	r1, r1, r1, lsl #1
	add.w	r0, r0, r1, lsl #2
	.loc	3 2338 37                       @ packages/littlefs-v2.0.5/lfs.c:2338:37
	ldr	r0, [r0, #8]
	.loc	3 2338 44                       @ packages/littlefs-v2.0.5/lfs.c:2338:44
	ldr	r1, [sp, #80]
	.loc	3 2338 49                       @ packages/littlefs-v2.0.5/lfs.c:2338:49
	ldr	r1, [r1, #116]
.Ltmp415:
	.loc	3 2338 17                       @ packages/littlefs-v2.0.5/lfs.c:2338:17
	cmp	r0, r1
	bls	.LBB21_38
	b	.LBB21_37
.LBB21_37:
	.loc	3 0 17                          @ packages/littlefs-v2.0.5/lfs.c:0:17
	mvn	r0, #27
.Ltmp416:
	.loc	3 2339 21 is_stmt 1             @ packages/littlefs-v2.0.5/lfs.c:2339:21
	str	r0, [sp, #60]
	.loc	3 2340 17                       @ packages/littlefs-v2.0.5/lfs.c:2340:17
	b	.LBB21_53
.Ltmp417:
.LBB21_38:                              @   in Loop: Header=BB21_29 Depth=1
	.loc	3 2343 13                       @ packages/littlefs-v2.0.5/lfs.c:2343:13
	ldr	r1, [sp, #76]
	.loc	3 2343 25 is_stmt 0             @ packages/littlefs-v2.0.5/lfs.c:2343:25
	ldr	r0, [r1, #48]
	orr	r0, r0, #65536
	str	r0, [r1, #48]
	.loc	3 2344 9 is_stmt 1              @ packages/littlefs-v2.0.5/lfs.c:2344:9
	b	.LBB21_39
.Ltmp418:
.LBB21_39:                              @   in Loop: Header=BB21_29 Depth=1
	.loc	3 2345 5                        @ packages/littlefs-v2.0.5/lfs.c:2345:5
	b	.LBB21_40
.Ltmp419:
.LBB21_40:                              @   in Loop: Header=BB21_29 Depth=1
	.loc	3 2324 54                       @ packages/littlefs-v2.0.5/lfs.c:2324:54
	ldr	r0, [sp, #24]
	adds	r0, #1
	str	r0, [sp, #24]
	.loc	3 2324 5 is_stmt 0              @ packages/littlefs-v2.0.5/lfs.c:2324:5
	b	.LBB21_29
.Ltmp420:
.LBB21_41:
	.loc	3 2348 9 is_stmt 1              @ packages/littlefs-v2.0.5/lfs.c:2348:9
	ldr	r0, [sp, #76]
	.loc	3 2348 15 is_stmt 0             @ packages/littlefs-v2.0.5/lfs.c:2348:15
	ldr	r0, [r0, #80]
	.loc	3 2348 20                       @ packages/littlefs-v2.0.5/lfs.c:2348:20
	ldr	r0, [r0]
.Ltmp421:
	.loc	3 2348 9                        @ packages/littlefs-v2.0.5/lfs.c:2348:9
	cbz	r0, .LBB21_43
	b	.LBB21_42
.LBB21_42:
.Ltmp422:
	.loc	3 2349 30 is_stmt 1             @ packages/littlefs-v2.0.5/lfs.c:2349:30
	ldr	r1, [sp, #76]
	.loc	3 2349 36 is_stmt 0             @ packages/littlefs-v2.0.5/lfs.c:2349:36
	ldr	r0, [r1, #80]
	.loc	3 2349 41                       @ packages/littlefs-v2.0.5/lfs.c:2349:41
	ldr	r0, [r0]
	.loc	3 2349 28                       @ packages/littlefs-v2.0.5/lfs.c:2349:28
	str	r0, [r1, #76]
	.loc	3 2350 5 is_stmt 1              @ packages/littlefs-v2.0.5/lfs.c:2350:5
	b	.LBB21_46
.Ltmp423:
.LBB21_43:
	.loc	3 2351 41                       @ packages/littlefs-v2.0.5/lfs.c:2351:41
	ldr	r0, [sp, #80]
	.loc	3 2351 46 is_stmt 0             @ packages/littlefs-v2.0.5/lfs.c:2351:46
	ldr	r0, [r0, #104]
	.loc	3 2351 51                       @ packages/littlefs-v2.0.5/lfs.c:2351:51
	ldr	r0, [r0, #40]
	.loc	3 2351 30                       @ packages/littlefs-v2.0.5/lfs.c:2351:30
	bl	lfs_malloc
	.loc	3 2351 9                        @ packages/littlefs-v2.0.5/lfs.c:2351:9
	ldr	r1, [sp, #76]
	.loc	3 2351 28                       @ packages/littlefs-v2.0.5/lfs.c:2351:28
	str	r0, [r1, #76]
.Ltmp424:
	.loc	3 2352 14 is_stmt 1             @ packages/littlefs-v2.0.5/lfs.c:2352:14
	ldr	r0, [sp, #76]
	.loc	3 2352 26 is_stmt 0             @ packages/littlefs-v2.0.5/lfs.c:2352:26
	ldr	r0, [r0, #76]
.Ltmp425:
	.loc	3 2352 13                       @ packages/littlefs-v2.0.5/lfs.c:2352:13
	cbnz	r0, .LBB21_45
	b	.LBB21_44
.LBB21_44:
	.loc	3 0 13                          @ packages/littlefs-v2.0.5/lfs.c:0:13
	mvn	r0, #11
.Ltmp426:
	.loc	3 2353 17 is_stmt 1             @ packages/littlefs-v2.0.5/lfs.c:2353:17
	str	r0, [sp, #60]
	.loc	3 2354 13                       @ packages/littlefs-v2.0.5/lfs.c:2354:13
	b	.LBB21_53
.Ltmp427:
.LBB21_45:
	.loc	3 0 13 is_stmt 0                @ packages/littlefs-v2.0.5/lfs.c:0:13
	b	.LBB21_46
.LBB21_46:
	.loc	3 2359 20 is_stmt 1             @ packages/littlefs-v2.0.5/lfs.c:2359:20
	ldr	r0, [sp, #80]
	.loc	3 2359 26 is_stmt 0             @ packages/littlefs-v2.0.5/lfs.c:2359:26
	ldr	r1, [sp, #76]
	.loc	3 2359 32                       @ packages/littlefs-v2.0.5/lfs.c:2359:32
	adds	r1, #64
	.loc	3 2359 5                        @ packages/littlefs-v2.0.5/lfs.c:2359:5
	bl	lfs_cache_zero
.Ltmp428:
	.loc	3 2361 23 is_stmt 1             @ packages/littlefs-v2.0.5/lfs.c:2361:23
	ldr	r0, [sp, #56]
	.loc	3 2361 9 is_stmt 0              @ packages/littlefs-v2.0.5/lfs.c:2361:9
	bl	lfs_tag_type3
	movw	r1, #513
.Ltmp429:
	.loc	3 2361 9                        @ packages/littlefs-v2.0.5/lfs.c:2361:9
	cmp	r0, r1
	bne	.LBB21_52
	b	.LBB21_47
.LBB21_47:
.Ltmp430:
	.loc	3 2363 9 is_stmt 1              @ packages/littlefs-v2.0.5/lfs.c:2363:9
	ldr	r1, [sp, #76]
	mvn	r0, #1
	.loc	3 2363 24 is_stmt 0             @ packages/littlefs-v2.0.5/lfs.c:2363:24
	str	r0, [r1, #40]
	.loc	3 2364 39 is_stmt 1             @ packages/littlefs-v2.0.5/lfs.c:2364:39
	ldr	r0, [sp, #56]
	.loc	3 2364 26 is_stmt 0             @ packages/littlefs-v2.0.5/lfs.c:2364:26
	bl	lfs_tag_size
	.loc	3 2364 9                        @ packages/littlefs-v2.0.5/lfs.c:2364:9
	ldr	r1, [sp, #76]
	.loc	3 2364 24                       @ packages/littlefs-v2.0.5/lfs.c:2364:24
	str	r0, [r1, #44]
	.loc	3 2365 9 is_stmt 1              @ packages/littlefs-v2.0.5/lfs.c:2365:9
	ldr	r1, [sp, #76]
	.loc	3 2365 21 is_stmt 0             @ packages/littlefs-v2.0.5/lfs.c:2365:21
	ldr	r0, [r1, #48]
	orr	r0, r0, #1048576
	str	r0, [r1, #48]
	.loc	3 2366 29 is_stmt 1             @ packages/littlefs-v2.0.5/lfs.c:2366:29
	ldr	r1, [sp, #76]
	.loc	3 2366 39 is_stmt 0             @ packages/littlefs-v2.0.5/lfs.c:2366:39
	ldr	r0, [r1, #40]
	.loc	3 2366 27                       @ packages/littlefs-v2.0.5/lfs.c:2366:27
	str	r0, [r1, #64]
	.loc	3 2367 9 is_stmt 1              @ packages/littlefs-v2.0.5/lfs.c:2367:9
	ldr	r1, [sp, #76]
	movs	r0, #0
	.loc	3 2367 25 is_stmt 0             @ packages/littlefs-v2.0.5/lfs.c:2367:25
	str	r0, [r1, #68]
	.loc	3 2368 28 is_stmt 1             @ packages/littlefs-v2.0.5/lfs.c:2368:28
	ldr	r0, [sp, #80]
	.loc	3 2368 33 is_stmt 0             @ packages/littlefs-v2.0.5/lfs.c:2368:33
	ldr	r0, [r0, #104]
	.loc	3 2368 38                       @ packages/littlefs-v2.0.5/lfs.c:2368:38
	ldr	r0, [r0, #40]
	.loc	3 2368 9                        @ packages/littlefs-v2.0.5/lfs.c:2368:9
	ldr	r1, [sp, #76]
	.loc	3 2368 26                       @ packages/littlefs-v2.0.5/lfs.c:2368:26
	str	r0, [r1, #72]
.Ltmp431:
	.loc	3 2371 13 is_stmt 1             @ packages/littlefs-v2.0.5/lfs.c:2371:13
	ldr	r0, [sp, #76]
	.loc	3 2371 23 is_stmt 0             @ packages/littlefs-v2.0.5/lfs.c:2371:23
	ldr	r0, [r0, #44]
.Ltmp432:
	.loc	3 2371 13                       @ packages/littlefs-v2.0.5/lfs.c:2371:13
	cbz	r0, .LBB21_51
	b	.LBB21_48
.LBB21_48:
.Ltmp433:
	.loc	3 2372 42 is_stmt 1             @ packages/littlefs-v2.0.5/lfs.c:2372:42
	ldr	r0, [sp, #80]
	.loc	3 2372 48 is_stmt 0             @ packages/littlefs-v2.0.5/lfs.c:2372:48
	str	r0, [sp, #12]                   @ 4-byte Spill
	ldr	r0, [sp, #76]
	.loc	3 2372 54                       @ packages/littlefs-v2.0.5/lfs.c:2372:54
	add.w	r1, r0, #8
	.loc	3 2374 21 is_stmt 1             @ packages/littlefs-v2.0.5/lfs.c:2374:21
	str	r1, [sp, #8]                    @ 4-byte Spill
	ldrh	r1, [r0, #4]
	str	r1, [sp, #4]                    @ 4-byte Spill
	ldr	r0, [r0, #72]
	movw	r1, #1022
	bl	lfs_min
	ldr	r3, [sp, #4]                    @ 4-byte Reload
	ldr	r1, [sp, #8]                    @ 4-byte Reload
	mov	r2, r0
	ldr	r0, [sp, #12]                   @ 4-byte Reload
	orr.w	r2, r2, r3, lsl #10
	orr	r3, r2, #536870912
	.loc	3 2376 21                       @ packages/littlefs-v2.0.5/lfs.c:2376:21
	ldr	r2, [sp, #76]
	.loc	3 2376 33 is_stmt 0             @ packages/littlefs-v2.0.5/lfs.c:2376:33
	ldr	r2, [r2, #76]
	.loc	3 2372 30 is_stmt 1             @ packages/littlefs-v2.0.5/lfs.c:2372:30
	mov	r12, sp
	str.w	r2, [r12]
	movw	r2, #64512
	movt	r2, #28687
	bl	lfs_dir_get
	.loc	3 2372 24 is_stmt 0             @ packages/littlefs-v2.0.5/lfs.c:2372:24
	str	r0, [sp, #16]
.Ltmp434:
	.loc	3 2377 17 is_stmt 1             @ packages/littlefs-v2.0.5/lfs.c:2377:17
	ldr	r0, [sp, #16]
.Ltmp435:
	.loc	3 2377 17 is_stmt 0             @ packages/littlefs-v2.0.5/lfs.c:2377:17
	cmp.w	r0, #-1
	bgt	.LBB21_50
	b	.LBB21_49
.LBB21_49:
.Ltmp436:
	.loc	3 2378 23 is_stmt 1             @ packages/littlefs-v2.0.5/lfs.c:2378:23
	ldr	r0, [sp, #16]
	.loc	3 2378 21 is_stmt 0             @ packages/littlefs-v2.0.5/lfs.c:2378:21
	str	r0, [sp, #60]
	.loc	3 2379 17 is_stmt 1             @ packages/littlefs-v2.0.5/lfs.c:2379:17
	b	.LBB21_53
.Ltmp437:
.LBB21_50:
	.loc	3 2381 9                        @ packages/littlefs-v2.0.5/lfs.c:2381:9
	b	.LBB21_51
.Ltmp438:
.LBB21_51:
	.loc	3 2382 5                        @ packages/littlefs-v2.0.5/lfs.c:2382:5
	b	.LBB21_52
.Ltmp439:
.LBB21_52:
	.loc	3 0 5 is_stmt 0                 @ packages/littlefs-v2.0.5/lfs.c:0:5
	movs	r0, #0
	.loc	3 2384 5 is_stmt 1              @ packages/littlefs-v2.0.5/lfs.c:2384:5
	str	r0, [sp, #84]
	b	.LBB21_54
.LBB21_53:
.Ltmp440:
	@DEBUG_LABEL: lfs_file_opencfg:cleanup
	.loc	3 2388 5                        @ packages/littlefs-v2.0.5/lfs.c:2388:5
	ldr	r1, [sp, #76]
	.loc	3 2388 17 is_stmt 0             @ packages/littlefs-v2.0.5/lfs.c:2388:17
	ldr	r0, [r1, #48]
	orr	r0, r0, #524288
	str	r0, [r1, #48]
	.loc	3 2389 20 is_stmt 1             @ packages/littlefs-v2.0.5/lfs.c:2389:20
	ldr	r0, [sp, #80]
	.loc	3 2389 25 is_stmt 0             @ packages/littlefs-v2.0.5/lfs.c:2389:25
	ldr	r1, [sp, #76]
	.loc	3 2389 5                        @ packages/littlefs-v2.0.5/lfs.c:2389:5
	bl	lfs_file_close
	.loc	3 2390 12 is_stmt 1             @ packages/littlefs-v2.0.5/lfs.c:2390:12
	ldr	r0, [sp, #60]
	.loc	3 2390 5 is_stmt 0              @ packages/littlefs-v2.0.5/lfs.c:2390:5
	str	r0, [sp, #84]
	b	.LBB21_54
.LBB21_54:
	.loc	3 2391 1 is_stmt 1              @ packages/littlefs-v2.0.5/lfs.c:2391:1
	ldr	r0, [sp, #84]
	add	sp, #88
	pop	{r7, pc}
.Ltmp441:
.Lfunc_end21:
	.size	lfs_file_opencfg, .Lfunc_end21-lfs_file_opencfg
	.cfi_endproc
	.cantunwind
	.fnend
                                        @ -- End function
	.section	.text.lfs_ctz_fromle32,"ax",%progbits
	.p2align	3                               @ -- Begin function lfs_ctz_fromle32
	.type	lfs_ctz_fromle32,%function
	.code	16                              @ @lfs_ctz_fromle32
	.thumb_func
lfs_ctz_fromle32:
.Lfunc_begin22:
	.loc	3 382 0                         @ packages/littlefs-v2.0.5/lfs.c:382:0
	.fnstart
	.cfi_startproc
@ %bb.0:
	.save	{r7, lr}
	push	{r7, lr}
	.cfi_def_cfa_offset 8
	.cfi_offset lr, -4
	.cfi_offset r7, -8
	.pad	#8
	sub	sp, #8
	.cfi_def_cfa_offset 16
	str	r0, [sp, #4]
.Ltmp442:
	.loc	3 383 30 prologue_end           @ packages/littlefs-v2.0.5/lfs.c:383:30
	ldr	r0, [sp, #4]
	.loc	3 383 35 is_stmt 0              @ packages/littlefs-v2.0.5/lfs.c:383:35
	ldr	r0, [r0]
	.loc	3 383 17                        @ packages/littlefs-v2.0.5/lfs.c:383:17
	bl	lfs_fromle32
	.loc	3 383 5                         @ packages/littlefs-v2.0.5/lfs.c:383:5
	ldr	r1, [sp, #4]
	.loc	3 383 15                        @ packages/littlefs-v2.0.5/lfs.c:383:15
	str	r0, [r1]
	.loc	3 384 30 is_stmt 1              @ packages/littlefs-v2.0.5/lfs.c:384:30
	ldr	r0, [sp, #4]
	.loc	3 384 35 is_stmt 0              @ packages/littlefs-v2.0.5/lfs.c:384:35
	ldr	r0, [r0, #4]
	.loc	3 384 17                        @ packages/littlefs-v2.0.5/lfs.c:384:17
	bl	lfs_fromle32
	.loc	3 384 5                         @ packages/littlefs-v2.0.5/lfs.c:384:5
	ldr	r1, [sp, #4]
	.loc	3 384 15                        @ packages/littlefs-v2.0.5/lfs.c:384:15
	str	r0, [r1, #4]
	.loc	3 385 1 is_stmt 1               @ packages/littlefs-v2.0.5/lfs.c:385:1
	add	sp, #8
	pop	{r7, pc}
.Ltmp443:
.Lfunc_end22:
	.size	lfs_ctz_fromle32, .Lfunc_end22-lfs_ctz_fromle32
	.cfi_endproc
	.cantunwind
	.fnend
                                        @ -- End function
	.section	.text.lfs_malloc,"ax",%progbits
	.p2align	3                               @ -- Begin function lfs_malloc
	.type	lfs_malloc,%function
	.code	16                              @ @lfs_malloc
	.thumb_func
lfs_malloc:
.Lfunc_begin23:
	.loc	4 164 0                         @ ./packages/littlefs-v2.0.5/lfs_config.h:164:0
	.fnstart
	.cfi_startproc
@ %bb.0:
	.save	{r7, lr}
	push	{r7, lr}
	.cfi_def_cfa_offset 8
	.cfi_offset lr, -4
	.cfi_offset r7, -8
	.pad	#8
	sub	sp, #8
	.cfi_def_cfa_offset 16
	str	r0, [sp, #4]
.Ltmp444:
	.loc	4 166 22 prologue_end           @ ./packages/littlefs-v2.0.5/lfs_config.h:166:22
	ldr	r0, [sp, #4]
	.loc	4 166 12 is_stmt 0              @ ./packages/littlefs-v2.0.5/lfs_config.h:166:12
	bl	rt_malloc
	.loc	4 166 5                         @ ./packages/littlefs-v2.0.5/lfs_config.h:166:5
	add	sp, #8
	pop	{r7, pc}
.Ltmp445:
.Lfunc_end23:
	.size	lfs_malloc, .Lfunc_end23-lfs_malloc
	.cfi_endproc
	.cantunwind
	.fnend
                                        @ -- End function
	.section	.text.lfs_cache_zero,"ax",%progbits
	.p2align	3                               @ -- Begin function lfs_cache_zero
	.type	lfs_cache_zero,%function
	.code	16                              @ @lfs_cache_zero
	.thumb_func
lfs_cache_zero:
.Lfunc_begin24:
	.loc	3 30 0 is_stmt 1                @ packages/littlefs-v2.0.5/lfs.c:30:0
	.fnstart
	.cfi_startproc
@ %bb.0:
	.save	{r7, lr}
	push	{r7, lr}
	.cfi_def_cfa_offset 8
	.cfi_offset lr, -4
	.cfi_offset r7, -8
	.pad	#8
	sub	sp, #8
	.cfi_def_cfa_offset 16
	str	r0, [sp, #4]
	str	r1, [sp]
.Ltmp446:
	.loc	3 32 12 prologue_end            @ packages/littlefs-v2.0.5/lfs.c:32:12
	ldr	r0, [sp]
	.loc	3 32 20 is_stmt 0               @ packages/littlefs-v2.0.5/lfs.c:32:20
	ldr	r0, [r0, #12]
	.loc	3 32 34                         @ packages/littlefs-v2.0.5/lfs.c:32:34
	ldr	r1, [sp, #4]
	.loc	3 32 39                         @ packages/littlefs-v2.0.5/lfs.c:32:39
	ldr	r1, [r1, #104]
	.loc	3 32 44                         @ packages/littlefs-v2.0.5/lfs.c:32:44
	ldr	r1, [r1, #40]
	movs	r2, #255
	.loc	3 32 5                          @ packages/littlefs-v2.0.5/lfs.c:32:5
	bl	__aeabi_memset
	.loc	3 33 5 is_stmt 1                @ packages/littlefs-v2.0.5/lfs.c:33:5
	ldr	r1, [sp]
	mov.w	r0, #-1
	.loc	3 33 19 is_stmt 0               @ packages/littlefs-v2.0.5/lfs.c:33:19
	str	r0, [r1]
	.loc	3 34 1 is_stmt 1                @ packages/littlefs-v2.0.5/lfs.c:34:1
	add	sp, #8
	pop	{r7, pc}
.Ltmp447:
.Lfunc_end24:
	.size	lfs_cache_zero, .Lfunc_end24-lfs_cache_zero
	.cfi_endproc
	.cantunwind
	.fnend
                                        @ -- End function
	.section	.text.lfs_tag_size,"ax",%progbits
	.p2align	3                               @ -- Begin function lfs_tag_size
	.type	lfs_tag_size,%function
	.code	16                              @ @lfs_tag_size
	.thumb_func
lfs_tag_size:
.Lfunc_begin25:
	.loc	3 299 0                         @ packages/littlefs-v2.0.5/lfs.c:299:0
	.fnstart
	.cfi_startproc
@ %bb.0:
	.pad	#4
	sub	sp, #4
	.cfi_def_cfa_offset 4
	str	r0, [sp]
.Ltmp448:
	.loc	3 300 12 prologue_end           @ packages/littlefs-v2.0.5/lfs.c:300:12
	ldr	r0, [sp]
	.loc	3 300 16 is_stmt 0              @ packages/littlefs-v2.0.5/lfs.c:300:16
	bfc	r0, #10, #22
	.loc	3 300 5                         @ packages/littlefs-v2.0.5/lfs.c:300:5
	add	sp, #4
	bx	lr
.Ltmp449:
.Lfunc_end25:
	.size	lfs_tag_size, .Lfunc_end25-lfs_tag_size
	.cfi_endproc
	.cantunwind
	.fnend
                                        @ -- End function
	.section	.text.lfs_file_close,"ax",%progbits
	.hidden	lfs_file_close                  @ -- Begin function lfs_file_close
	.globl	lfs_file_close
	.p2align	3
	.type	lfs_file_close,%function
	.code	16                              @ @lfs_file_close
	.thumb_func
lfs_file_close:
.Lfunc_begin26:
	.loc	3 2399 0 is_stmt 1              @ packages/littlefs-v2.0.5/lfs.c:2399:0
	.fnstart
	.cfi_startproc
@ %bb.0:
	.save	{r7, lr}
	push	{r7, lr}
	.cfi_def_cfa_offset 8
	.cfi_offset lr, -4
	.cfi_offset r7, -8
	.pad	#16
	sub	sp, #16
	.cfi_def_cfa_offset 24
	str	r0, [sp, #12]
	str	r1, [sp, #8]
.Ltmp450:
	.loc	3 2400 29 prologue_end          @ packages/littlefs-v2.0.5/lfs.c:2400:29
	ldr	r0, [sp, #12]
	.loc	3 2400 34 is_stmt 0             @ packages/littlefs-v2.0.5/lfs.c:2400:34
	ldr	r1, [sp, #8]
	.loc	3 2400 15                       @ packages/littlefs-v2.0.5/lfs.c:2400:15
	bl	lfs_file_sync
	.loc	3 2400 9                        @ packages/littlefs-v2.0.5/lfs.c:2400:9
	str	r0, [sp, #4]
.Ltmp451:
	.loc	3 2403 34 is_stmt 1             @ packages/littlefs-v2.0.5/lfs.c:2403:34
	ldr	r0, [sp, #12]
	.loc	3 2403 39 is_stmt 0             @ packages/littlefs-v2.0.5/lfs.c:2403:39
	adds	r0, #40
	.loc	3 2403 29                       @ packages/littlefs-v2.0.5/lfs.c:2403:29
	str	r0, [sp]
	.loc	3 2403 10                       @ packages/littlefs-v2.0.5/lfs.c:2403:10
	b	.LBB26_1
.LBB26_1:                               @ =>This Inner Loop Header: Depth=1
.Ltmp452:
	.loc	3 2403 47                       @ packages/littlefs-v2.0.5/lfs.c:2403:47
	ldr	r0, [sp]
	.loc	3 2403 46                       @ packages/littlefs-v2.0.5/lfs.c:2403:46
	ldr	r0, [r0]
.Ltmp453:
	.loc	3 2403 5                        @ packages/littlefs-v2.0.5/lfs.c:2403:5
	cbz	r0, .LBB26_6
	b	.LBB26_2
.LBB26_2:                               @   in Loop: Header=BB26_1 Depth=1
.Ltmp454:
	.loc	3 2404 14 is_stmt 1             @ packages/littlefs-v2.0.5/lfs.c:2404:14
	ldr	r0, [sp]
	.loc	3 2404 13 is_stmt 0             @ packages/littlefs-v2.0.5/lfs.c:2404:13
	ldr	r0, [r0]
	.loc	3 2404 38                       @ packages/littlefs-v2.0.5/lfs.c:2404:38
	ldr	r1, [sp, #8]
.Ltmp455:
	.loc	3 2404 13                       @ packages/littlefs-v2.0.5/lfs.c:2404:13
	cmp	r0, r1
	bne	.LBB26_4
	b	.LBB26_3
.LBB26_3:
.Ltmp456:
	.loc	3 2405 20 is_stmt 1             @ packages/littlefs-v2.0.5/lfs.c:2405:20
	ldr	r1, [sp]
	.loc	3 2405 19 is_stmt 0             @ packages/littlefs-v2.0.5/lfs.c:2405:19
	ldr	r0, [r1]
	.loc	3 2405 24                       @ packages/littlefs-v2.0.5/lfs.c:2405:24
	ldr	r0, [r0]
	.loc	3 2405 16                       @ packages/littlefs-v2.0.5/lfs.c:2405:16
	str	r0, [r1]
	.loc	3 2406 13 is_stmt 1             @ packages/littlefs-v2.0.5/lfs.c:2406:13
	b	.LBB26_6
.Ltmp457:
.LBB26_4:                               @   in Loop: Header=BB26_1 Depth=1
	.loc	3 2408 5                        @ packages/littlefs-v2.0.5/lfs.c:2408:5
	b	.LBB26_5
.Ltmp458:
.LBB26_5:                               @   in Loop: Header=BB26_1 Depth=1
	.loc	3 2403 57                       @ packages/littlefs-v2.0.5/lfs.c:2403:57
	ldr	r0, [sp]
	.loc	3 2403 56 is_stmt 0             @ packages/littlefs-v2.0.5/lfs.c:2403:56
	ldr	r0, [r0]
	.loc	3 2403 52                       @ packages/littlefs-v2.0.5/lfs.c:2403:52
	str	r0, [sp]
	.loc	3 2403 5                        @ packages/littlefs-v2.0.5/lfs.c:2403:5
	b	.LBB26_1
.Ltmp459:
.LBB26_6:
	.loc	3 2411 10 is_stmt 1             @ packages/littlefs-v2.0.5/lfs.c:2411:10
	ldr	r0, [sp, #8]
	.loc	3 2411 16 is_stmt 0             @ packages/littlefs-v2.0.5/lfs.c:2411:16
	ldr	r0, [r0, #80]
	.loc	3 2411 21                       @ packages/littlefs-v2.0.5/lfs.c:2411:21
	ldr	r0, [r0]
.Ltmp460:
	.loc	3 2411 9                        @ packages/littlefs-v2.0.5/lfs.c:2411:9
	cbnz	r0, .LBB26_8
	b	.LBB26_7
.LBB26_7:
.Ltmp461:
	.loc	3 2412 18 is_stmt 1             @ packages/littlefs-v2.0.5/lfs.c:2412:18
	ldr	r0, [sp, #8]
	.loc	3 2412 30 is_stmt 0             @ packages/littlefs-v2.0.5/lfs.c:2412:30
	ldr	r0, [r0, #76]
	.loc	3 2412 9                        @ packages/littlefs-v2.0.5/lfs.c:2412:9
	bl	lfs_free
	.loc	3 2413 5 is_stmt 1              @ packages/littlefs-v2.0.5/lfs.c:2413:5
	b	.LBB26_8
.Ltmp462:
.LBB26_8:
	.loc	3 2415 12                       @ packages/littlefs-v2.0.5/lfs.c:2415:12
	ldr	r0, [sp, #4]
	.loc	3 2415 5 is_stmt 0              @ packages/littlefs-v2.0.5/lfs.c:2415:5
	add	sp, #16
	pop	{r7, pc}
.Ltmp463:
.Lfunc_end26:
	.size	lfs_file_close, .Lfunc_end26-lfs_file_close
	.cfi_endproc
	.cantunwind
	.fnend
                                        @ -- End function
	.section	.text.lfs_file_open,"ax",%progbits
	.hidden	lfs_file_open                   @ -- Begin function lfs_file_open
	.globl	lfs_file_open
	.p2align	3
	.type	lfs_file_open,%function
	.code	16                              @ @lfs_file_open
	.thumb_func
lfs_file_open:
.Lfunc_begin27:
	.loc	3 2394 0 is_stmt 1              @ packages/littlefs-v2.0.5/lfs.c:2394:0
	.fnstart
	.cfi_startproc
@ %bb.0:
	.save	{r7, lr}
	push	{r7, lr}
	.cfi_def_cfa_offset 8
	.cfi_offset lr, -4
	.cfi_offset r7, -8
	.pad	#24
	sub	sp, #24
	.cfi_def_cfa_offset 32
	str	r0, [sp, #20]
	str	r1, [sp, #16]
	str	r2, [sp, #12]
	str	r3, [sp, #8]
.Ltmp464:
	.loc	3 2396 29 prologue_end          @ packages/littlefs-v2.0.5/lfs.c:2396:29
	ldr	r0, [sp, #20]
	.loc	3 2396 34 is_stmt 0             @ packages/littlefs-v2.0.5/lfs.c:2396:34
	ldr	r1, [sp, #16]
	.loc	3 2396 40                       @ packages/littlefs-v2.0.5/lfs.c:2396:40
	ldr	r2, [sp, #12]
	.loc	3 2396 46                       @ packages/littlefs-v2.0.5/lfs.c:2396:46
	ldr	r3, [sp, #8]
	.loc	3 2396 12                       @ packages/littlefs-v2.0.5/lfs.c:2396:12
	movw	r12, :lower16:lfs_file_open.defaults
	movt	r12, :upper16:lfs_file_open.defaults
	mov	lr, sp
	str.w	r12, [lr]
	bl	lfs_file_opencfg
	.loc	3 2396 5                        @ packages/littlefs-v2.0.5/lfs.c:2396:5
	add	sp, #24
	pop	{r7, pc}
.Ltmp465:
.Lfunc_end27:
	.size	lfs_file_open, .Lfunc_end27-lfs_file_open
	.cfi_endproc
	.cantunwind
	.fnend
                                        @ -- End function
	.section	.text.lfs_file_sync,"ax",%progbits
	.hidden	lfs_file_sync                   @ -- Begin function lfs_file_sync
	.globl	lfs_file_sync
	.p2align	3
	.type	lfs_file_sync,%function
	.code	16                              @ @lfs_file_sync
	.thumb_func
lfs_file_sync:
.Lfunc_begin28:
	.loc	3 2566 0 is_stmt 1              @ packages/littlefs-v2.0.5/lfs.c:2566:0
	.fnstart
	.cfi_startproc
@ %bb.0:
	.save	{r7, lr}
	push	{r7, lr}
	.cfi_def_cfa_offset 8
	.cfi_offset lr, -4
	.cfi_offset r7, -8
	.pad	#56
	sub	sp, #56
	.cfi_def_cfa_offset 64
	str	r0, [sp, #48]
	str	r1, [sp, #44]
.Ltmp466:
	.loc	3 2567 5 prologue_end           @ packages/littlefs-v2.0.5/lfs.c:2567:5
	b	.LBB28_1
.LBB28_1:                               @ =>This Inner Loop Header: Depth=1
.Ltmp467:
	.loc	3 2568 34                       @ packages/littlefs-v2.0.5/lfs.c:2568:34
	ldr	r0, [sp, #48]
	.loc	3 2568 39 is_stmt 0             @ packages/littlefs-v2.0.5/lfs.c:2568:39
	ldr	r1, [sp, #44]
	.loc	3 2568 19                       @ packages/littlefs-v2.0.5/lfs.c:2568:19
	bl	lfs_file_flush
	.loc	3 2568 13                       @ packages/littlefs-v2.0.5/lfs.c:2568:13
	str	r0, [sp, #40]
.Ltmp468:
	.loc	3 2569 13 is_stmt 1             @ packages/littlefs-v2.0.5/lfs.c:2569:13
	ldr	r0, [sp, #40]
.Ltmp469:
	.loc	3 2569 13 is_stmt 0             @ packages/littlefs-v2.0.5/lfs.c:2569:13
	cbz	r0, .LBB28_3
	b	.LBB28_2
.LBB28_2:
.Ltmp470:
	.loc	3 2570 13 is_stmt 1             @ packages/littlefs-v2.0.5/lfs.c:2570:13
	ldr	r1, [sp, #44]
	.loc	3 2570 25 is_stmt 0             @ packages/littlefs-v2.0.5/lfs.c:2570:25
	ldr	r0, [r1, #48]
	orr	r0, r0, #524288
	str	r0, [r1, #48]
	.loc	3 2571 20 is_stmt 1             @ packages/littlefs-v2.0.5/lfs.c:2571:20
	ldr	r0, [sp, #40]
	.loc	3 2571 13 is_stmt 0             @ packages/littlefs-v2.0.5/lfs.c:2571:13
	str	r0, [sp, #52]
	b	.LBB28_19
.Ltmp471:
.LBB28_3:                               @   in Loop: Header=BB28_1 Depth=1
	.loc	3 2574 14 is_stmt 1             @ packages/littlefs-v2.0.5/lfs.c:2574:14
	ldr	r0, [sp, #44]
	.loc	3 2574 41 is_stmt 0             @ packages/littlefs-v2.0.5/lfs.c:2574:41
	ldrb.w	r0, [r0, #50]
	lsls	r0, r0, #31
	cmp	r0, #0
	beq	.LBB28_15
	b	.LBB28_4
.LBB28_4:                               @   in Loop: Header=BB28_1 Depth=1
	.loc	3 2575 19 is_stmt 1             @ packages/littlefs-v2.0.5/lfs.c:2575:19
	ldr	r0, [sp, #44]
	.loc	3 2575 46 is_stmt 0             @ packages/littlefs-v2.0.5/lfs.c:2575:46
	ldrb.w	r0, [r0, #50]
	lsls	r0, r0, #28
	cmp	r0, #0
	bmi	.LBB28_15
	b	.LBB28_5
.LBB28_5:                               @   in Loop: Header=BB28_1 Depth=1
	.loc	3 2576 34 is_stmt 1             @ packages/littlefs-v2.0.5/lfs.c:2576:34
	ldr	r0, [sp, #44]
	.loc	3 2576 40 is_stmt 0             @ packages/littlefs-v2.0.5/lfs.c:2576:40
	adds	r0, #8
	.loc	3 2576 18                       @ packages/littlefs-v2.0.5/lfs.c:2576:18
	bl	lfs_pair_isnull
.Ltmp472:
	.loc	3 2574 13 is_stmt 1             @ packages/littlefs-v2.0.5/lfs.c:2574:13
	cmp	r0, #0
	bne	.LBB28_15
	b	.LBB28_6
.LBB28_6:                               @   in Loop: Header=BB28_1 Depth=1
.Ltmp473:
	.loc	3 2582 17                       @ packages/littlefs-v2.0.5/lfs.c:2582:17
	ldr	r0, [sp, #44]
.Ltmp474:
	.loc	3 2582 17 is_stmt 0             @ packages/littlefs-v2.0.5/lfs.c:2582:17
	ldrb.w	r0, [r0, #50]
	lsls	r0, r0, #27
	cmp	r0, #0
	bpl	.LBB28_8
	b	.LBB28_7
.LBB28_7:                               @   in Loop: Header=BB28_1 Depth=1
	.loc	3 0 17                          @ packages/littlefs-v2.0.5/lfs.c:0:17
	movw	r0, #513
.Ltmp475:
	.loc	3 2584 22 is_stmt 1             @ packages/littlefs-v2.0.5/lfs.c:2584:22
	strh.w	r0, [sp, #38]
	.loc	3 2585 26                       @ packages/littlefs-v2.0.5/lfs.c:2585:26
	ldr	r0, [sp, #44]
	.loc	3 2585 38 is_stmt 0             @ packages/littlefs-v2.0.5/lfs.c:2585:38
	ldr	r0, [r0, #76]
	.loc	3 2585 24                       @ packages/littlefs-v2.0.5/lfs.c:2585:24
	str	r0, [sp, #32]
	.loc	3 2586 24 is_stmt 1             @ packages/littlefs-v2.0.5/lfs.c:2586:24
	ldr	r0, [sp, #44]
	.loc	3 2586 34 is_stmt 0             @ packages/littlefs-v2.0.5/lfs.c:2586:34
	ldr	r0, [r0, #44]
	.loc	3 2586 22                       @ packages/littlefs-v2.0.5/lfs.c:2586:22
	str	r0, [sp, #28]
	.loc	3 2587 13 is_stmt 1             @ packages/littlefs-v2.0.5/lfs.c:2587:13
	b	.LBB28_9
.Ltmp476:
.LBB28_8:                               @   in Loop: Header=BB28_1 Depth=1
	.loc	3 0 13 is_stmt 0                @ packages/littlefs-v2.0.5/lfs.c:0:13
	movw	r0, #514
.Ltmp477:
	.loc	3 2589 22 is_stmt 1             @ packages/littlefs-v2.0.5/lfs.c:2589:22
	strh.w	r0, [sp, #38]
	.loc	3 2591 23                       @ packages/littlefs-v2.0.5/lfs.c:2591:23
	ldr	r1, [sp, #44]
	.loc	3 2591 29 is_stmt 0             @ packages/littlefs-v2.0.5/lfs.c:2591:29
	ldr	r0, [r1, #40]
	ldr	r1, [r1, #44]
	str	r1, [sp, #24]
	str	r0, [sp, #20]
	add	r0, sp, #20
	.loc	3 2592 17 is_stmt 1             @ packages/littlefs-v2.0.5/lfs.c:2592:17
	str	r0, [sp]                        @ 4-byte Spill
	bl	lfs_ctz_tole32
	ldr	r0, [sp]                        @ 4-byte Reload
	.loc	3 2593 24                       @ packages/littlefs-v2.0.5/lfs.c:2593:24
	str	r0, [sp, #32]
	movs	r0, #8
	.loc	3 2594 22                       @ packages/littlefs-v2.0.5/lfs.c:2594:22
	str	r0, [sp, #28]
	b	.LBB28_9
.Ltmp478:
.LBB28_9:                               @   in Loop: Header=BB28_1 Depth=1
	.loc	3 2598 34                       @ packages/littlefs-v2.0.5/lfs.c:2598:34
	ldr	r0, [sp, #48]
	.loc	3 2598 40 is_stmt 0             @ packages/littlefs-v2.0.5/lfs.c:2598:40
	ldr	r3, [sp, #44]
	.loc	3 2598 46                       @ packages/littlefs-v2.0.5/lfs.c:2598:46
	add.w	r1, r3, #8
	.loc	3 2598 49                       @ packages/littlefs-v2.0.5/lfs.c:2598:49
	ldrh.w	r2, [sp, #38]
	lsls	r2, r2, #20
	ldrh	r3, [r3, #4]
	orr.w	r2, r2, r3, lsl #10
	ldr	r3, [sp, #28]
	orrs	r2, r3
	str	r2, [sp, #4]
	ldr	r2, [sp, #32]
	str	r2, [sp, #8]
	ldr	r2, [sp, #44]
	ldrh	r3, [r2, #4]
	ldr	r2, [r2, #80]
	ldr	r2, [r2, #8]
	orr.w	r2, r2, r3, lsl #10
	orr	r2, r2, #270532608
	str	r2, [sp, #12]
	ldr	r2, [sp, #44]
	ldr	r2, [r2, #80]
	ldr	r2, [r2, #4]
	str	r2, [sp, #16]
	add	r2, sp, #4
	movs	r3, #2
	.loc	3 2598 19                       @ packages/littlefs-v2.0.5/lfs.c:2598:19
	bl	lfs_dir_commit
	.loc	3 2598 17                       @ packages/littlefs-v2.0.5/lfs.c:2598:17
	str	r0, [sp, #40]
.Ltmp479:
	.loc	3 2602 17 is_stmt 1             @ packages/littlefs-v2.0.5/lfs.c:2602:17
	ldr	r0, [sp, #40]
.Ltmp480:
	.loc	3 2602 17 is_stmt 0             @ packages/littlefs-v2.0.5/lfs.c:2602:17
	cbz	r0, .LBB28_14
	b	.LBB28_10
.LBB28_10:                              @   in Loop: Header=BB28_1 Depth=1
.Ltmp481:
	.loc	3 2603 21 is_stmt 1             @ packages/littlefs-v2.0.5/lfs.c:2603:21
	ldr	r0, [sp, #40]
	.loc	3 2603 42 is_stmt 0             @ packages/littlefs-v2.0.5/lfs.c:2603:42
	adds	r0, #28
	cbnz	r0, .LBB28_13
	b	.LBB28_11
.LBB28_11:                              @   in Loop: Header=BB28_1 Depth=1
	.loc	3 2603 46                       @ packages/littlefs-v2.0.5/lfs.c:2603:46
	ldr	r0, [sp, #44]
.Ltmp482:
	.loc	3 2603 21                       @ packages/littlefs-v2.0.5/lfs.c:2603:21
	ldrb.w	r0, [r0, #50]
	lsls	r0, r0, #27
	cmp	r0, #0
	bpl	.LBB28_13
	b	.LBB28_12
.LBB28_12:                              @   in Loop: Header=BB28_1 Depth=1
.Ltmp483:
	.loc	3 2604 21 is_stmt 1             @ packages/littlefs-v2.0.5/lfs.c:2604:21
	b	.LBB28_16
.Ltmp484:
.LBB28_13:
	.loc	3 2606 17                       @ packages/littlefs-v2.0.5/lfs.c:2606:17
	ldr	r1, [sp, #44]
	.loc	3 2606 29 is_stmt 0             @ packages/littlefs-v2.0.5/lfs.c:2606:29
	ldr	r0, [r1, #48]
	orr	r0, r0, #524288
	str	r0, [r1, #48]
	.loc	3 2607 24 is_stmt 1             @ packages/littlefs-v2.0.5/lfs.c:2607:24
	ldr	r0, [sp, #40]
	.loc	3 2607 17 is_stmt 0             @ packages/littlefs-v2.0.5/lfs.c:2607:17
	str	r0, [sp, #52]
	b	.LBB28_19
.Ltmp485:
.LBB28_14:
	.loc	3 2610 13 is_stmt 1             @ packages/littlefs-v2.0.5/lfs.c:2610:13
	ldr	r1, [sp, #44]
	.loc	3 2610 25 is_stmt 0             @ packages/littlefs-v2.0.5/lfs.c:2610:25
	ldr	r0, [r1, #48]
	bic	r0, r0, #65536
	str	r0, [r1, #48]
	.loc	3 2611 9 is_stmt 1              @ packages/littlefs-v2.0.5/lfs.c:2611:9
	b	.LBB28_15
.Ltmp486:
.LBB28_15:
	.loc	3 0 9 is_stmt 0                 @ packages/littlefs-v2.0.5/lfs.c:0:9
	movs	r0, #0
	.loc	3 2613 9 is_stmt 1              @ packages/littlefs-v2.0.5/lfs.c:2613:9
	str	r0, [sp, #52]
	b	.LBB28_19
.LBB28_16:                              @   in Loop: Header=BB28_1 Depth=1
.Ltmp487:
	@DEBUG_LABEL: relocate
	.loc	3 2617 21                       @ packages/littlefs-v2.0.5/lfs.c:2617:21
	ldr	r1, [sp, #44]
	.loc	3 2617 27 is_stmt 0             @ packages/littlefs-v2.0.5/lfs.c:2617:27
	ldr	r0, [r1, #52]
	.loc	3 2617 19                       @ packages/littlefs-v2.0.5/lfs.c:2617:19
	str	r0, [r1, #60]
	.loc	3 2618 33 is_stmt 1             @ packages/littlefs-v2.0.5/lfs.c:2618:33
	ldr	r0, [sp, #48]
	.loc	3 2618 38 is_stmt 0             @ packages/littlefs-v2.0.5/lfs.c:2618:38
	ldr	r1, [sp, #44]
	.loc	3 2618 15                       @ packages/littlefs-v2.0.5/lfs.c:2618:15
	bl	lfs_file_relocate
	.loc	3 2618 13                       @ packages/littlefs-v2.0.5/lfs.c:2618:13
	str	r0, [sp, #40]
.Ltmp488:
	.loc	3 2619 13 is_stmt 1             @ packages/littlefs-v2.0.5/lfs.c:2619:13
	ldr	r0, [sp, #40]
.Ltmp489:
	.loc	3 2619 13 is_stmt 0             @ packages/littlefs-v2.0.5/lfs.c:2619:13
	cbz	r0, .LBB28_18
	b	.LBB28_17
.LBB28_17:
.Ltmp490:
	.loc	3 2620 13 is_stmt 1             @ packages/littlefs-v2.0.5/lfs.c:2620:13
	ldr	r1, [sp, #44]
	.loc	3 2620 25 is_stmt 0             @ packages/littlefs-v2.0.5/lfs.c:2620:25
	ldr	r0, [r1, #48]
	orr	r0, r0, #524288
	str	r0, [r1, #48]
	.loc	3 2621 20 is_stmt 1             @ packages/littlefs-v2.0.5/lfs.c:2621:20
	ldr	r0, [sp, #40]
	.loc	3 2621 13 is_stmt 0             @ packages/littlefs-v2.0.5/lfs.c:2621:13
	str	r0, [sp, #52]
	b	.LBB28_19
.Ltmp491:
.LBB28_18:                              @   in Loop: Header=BB28_1 Depth=1
	.loc	3 2567 5 is_stmt 1              @ packages/littlefs-v2.0.5/lfs.c:2567:5
	b	.LBB28_1
.LBB28_19:
	.loc	3 2624 1                        @ packages/littlefs-v2.0.5/lfs.c:2624:1
	ldr	r0, [sp, #52]
	add	sp, #56
	pop	{r7, pc}
.Ltmp492:
.Lfunc_end28:
	.size	lfs_file_sync, .Lfunc_end28-lfs_file_sync
	.cfi_endproc
	.cantunwind
	.fnend
                                        @ -- End function
	.section	.text.lfs_free,"ax",%progbits
	.p2align	3                               @ -- Begin function lfs_free
	.type	lfs_free,%function
	.code	16                              @ @lfs_free
	.thumb_func
lfs_free:
.Lfunc_begin29:
	.loc	4 174 0                         @ ./packages/littlefs-v2.0.5/lfs_config.h:174:0
	.fnstart
	.cfi_startproc
@ %bb.0:
	.save	{r7, lr}
	push	{r7, lr}
	.cfi_def_cfa_offset 8
	.cfi_offset lr, -4
	.cfi_offset r7, -8
	.pad	#8
	sub	sp, #8
	.cfi_def_cfa_offset 16
	str	r0, [sp, #4]
.Ltmp493:
	.loc	4 176 13 prologue_end           @ ./packages/littlefs-v2.0.5/lfs_config.h:176:13
	ldr	r0, [sp, #4]
	.loc	4 176 5 is_stmt 0               @ ./packages/littlefs-v2.0.5/lfs_config.h:176:5
	bl	rt_free
	.loc	4 180 1 is_stmt 1               @ ./packages/littlefs-v2.0.5/lfs_config.h:180:1
	add	sp, #8
	pop	{r7, pc}
.Ltmp494:
.Lfunc_end29:
	.size	lfs_free, .Lfunc_end29-lfs_free
	.cfi_endproc
	.cantunwind
	.fnend
                                        @ -- End function
	.section	.text.lfs_file_flush,"ax",%progbits
	.p2align	3                               @ -- Begin function lfs_file_flush
	.type	lfs_file_flush,%function
	.code	16                              @ @lfs_file_flush
	.thumb_func
lfs_file_flush:
.Lfunc_begin30:
	.loc	3 2488 0                        @ packages/littlefs-v2.0.5/lfs.c:2488:0
	.fnstart
	.cfi_startproc
@ %bb.0:
	.save	{r7, lr}
	push	{r7, lr}
	.cfi_def_cfa_offset 8
	.cfi_offset lr, -4
	.cfi_offset r7, -8
	.pad	#120
	sub	sp, #120
	.cfi_def_cfa_offset 128
	str	r0, [sp, #112]
	str	r1, [sp, #108]
.Ltmp495:
	.loc	3 2489 9 prologue_end           @ packages/littlefs-v2.0.5/lfs.c:2489:9
	ldr	r0, [sp, #108]
.Ltmp496:
	.loc	3 2489 9 is_stmt 0              @ packages/littlefs-v2.0.5/lfs.c:2489:9
	ldrb.w	r0, [r0, #50]
	lsls	r0, r0, #29
	cmp	r0, #0
	bpl	.LBB30_4
	b	.LBB30_1
.LBB30_1:
.Ltmp497:
	.loc	3 2490 15 is_stmt 1             @ packages/littlefs-v2.0.5/lfs.c:2490:15
	ldr	r0, [sp, #108]
.Ltmp498:
	.loc	3 2490 13 is_stmt 0             @ packages/littlefs-v2.0.5/lfs.c:2490:13
	ldrb.w	r0, [r0, #50]
	lsls	r0, r0, #27
	cmp	r0, #0
	bmi	.LBB30_3
	b	.LBB30_2
.LBB30_2:
.Ltmp499:
	.loc	3 2491 28 is_stmt 1             @ packages/littlefs-v2.0.5/lfs.c:2491:28
	ldr	r0, [sp, #112]
	.loc	3 2491 34 is_stmt 0             @ packages/littlefs-v2.0.5/lfs.c:2491:34
	ldr	r1, [sp, #108]
	.loc	3 2491 40                       @ packages/littlefs-v2.0.5/lfs.c:2491:40
	adds	r1, #64
	.loc	3 2491 13                       @ packages/littlefs-v2.0.5/lfs.c:2491:13
	bl	lfs_cache_drop
	.loc	3 2492 9 is_stmt 1              @ packages/littlefs-v2.0.5/lfs.c:2492:9
	b	.LBB30_3
.Ltmp500:
.LBB30_3:
	.loc	3 2493 9                        @ packages/littlefs-v2.0.5/lfs.c:2493:9
	ldr	r1, [sp, #108]
	.loc	3 2493 21 is_stmt 0             @ packages/littlefs-v2.0.5/lfs.c:2493:21
	ldr	r0, [r1, #48]
	bic	r0, r0, #262144
	str	r0, [r1, #48]
	.loc	3 2494 5 is_stmt 1              @ packages/littlefs-v2.0.5/lfs.c:2494:5
	b	.LBB30_4
.Ltmp501:
.LBB30_4:
	.loc	3 2496 9                        @ packages/littlefs-v2.0.5/lfs.c:2496:9
	ldr	r0, [sp, #108]
.Ltmp502:
	.loc	3 2496 9 is_stmt 0              @ packages/littlefs-v2.0.5/lfs.c:2496:9
	ldrb.w	r0, [r0, #50]
	lsls	r0, r0, #30
	cmp	r0, #0
	bpl.w	.LBB30_27
	b	.LBB30_5
.LBB30_5:
.Ltmp503:
	.loc	3 2497 25 is_stmt 1             @ packages/littlefs-v2.0.5/lfs.c:2497:25
	ldr	r0, [sp, #108]
	.loc	3 2497 31 is_stmt 0             @ packages/littlefs-v2.0.5/lfs.c:2497:31
	ldr	r0, [r0, #52]
	.loc	3 2497 19                       @ packages/littlefs-v2.0.5/lfs.c:2497:19
	str	r0, [sp, #104]
.Ltmp504:
	.loc	3 2499 15 is_stmt 1             @ packages/littlefs-v2.0.5/lfs.c:2499:15
	ldr	r0, [sp, #108]
.Ltmp505:
	.loc	3 2499 13 is_stmt 0             @ packages/littlefs-v2.0.5/lfs.c:2499:13
	ldrb.w	r0, [r0, #50]
	lsls	r0, r0, #27
	cmp	r0, #0
	bmi.w	.LBB30_25
	b	.LBB30_6
.LBB30_6:
	.loc	3 0 13                          @ packages/littlefs-v2.0.5/lfs.c:0:13
	movs	r0, #0
.Ltmp506:
	.loc	3 2501 31 is_stmt 1             @ packages/littlefs-v2.0.5/lfs.c:2501:31
	str	r0, [sp, #4]                    @ 4-byte Spill
	str	r0, [sp, #20]
	strh.w	r0, [sp, #24]
	strb.w	r0, [sp, #26]
	str	r0, [sp, #56]
	str	r0, [sp, #52]
	str	r0, [sp, #48]
	str	r0, [sp, #44]
	str	r0, [sp, #40]
	str	r0, [sp, #36]
	str	r0, [sp, #32]
	str	r0, [sp, #28]
	.loc	3 2502 29                       @ packages/littlefs-v2.0.5/lfs.c:2502:29
	ldr	r1, [sp, #108]
	.loc	3 2502 39 is_stmt 0             @ packages/littlefs-v2.0.5/lfs.c:2502:39
	ldr	r1, [r1, #40]
	.loc	3 2502 21                       @ packages/littlefs-v2.0.5/lfs.c:2502:21
	str	r1, [sp, #60]
	.loc	3 2503 29 is_stmt 1             @ packages/littlefs-v2.0.5/lfs.c:2503:29
	ldr	r1, [sp, #108]
	.loc	3 2503 39 is_stmt 0             @ packages/littlefs-v2.0.5/lfs.c:2503:39
	ldr	r1, [r1, #44]
	.loc	3 2502 21 is_stmt 1             @ packages/littlefs-v2.0.5/lfs.c:2502:21
	str	r1, [sp, #64]
	movs	r1, #1
	.loc	3 2501 31                       @ packages/littlefs-v2.0.5/lfs.c:2501:31
	str	r1, [sp, #68]
	.loc	3 2505 24                       @ packages/littlefs-v2.0.5/lfs.c:2505:24
	ldr	r1, [sp, #108]
	.loc	3 2505 30 is_stmt 0             @ packages/littlefs-v2.0.5/lfs.c:2505:30
	ldr	r1, [r1, #52]
	.loc	3 2501 31 is_stmt 1             @ packages/littlefs-v2.0.5/lfs.c:2501:31
	str	r1, [sp, #72]
	str	r0, [sp, #76]
	str	r0, [sp, #80]
	.loc	3 2506 26                       @ packages/littlefs-v2.0.5/lfs.c:2506:26
	ldr.w	r12, [sp, #112]
	.loc	3 2506 31 is_stmt 0             @ packages/littlefs-v2.0.5/lfs.c:2506:31
	ldr.w	r1, [r12]
	ldr.w	r2, [r12, #4]
	ldr.w	r3, [r12, #8]
	ldr.w	r12, [r12, #12]
	str.w	r12, [sp, #96]
	str	r3, [sp, #92]
	str	r2, [sp, #88]
	str	r1, [sp, #84]
	.loc	3 2501 31 is_stmt 1             @ packages/littlefs-v2.0.5/lfs.c:2501:31
	str	r0, [sp, #100]
	.loc	3 2508 28                       @ packages/littlefs-v2.0.5/lfs.c:2508:28
	ldr	r1, [sp, #112]
	.loc	3 2508 13 is_stmt 0             @ packages/littlefs-v2.0.5/lfs.c:2508:13
	mov	r0, r1
	bl	lfs_cache_drop
	.loc	3 2510 13 is_stmt 1             @ packages/littlefs-v2.0.5/lfs.c:2510:13
	b	.LBB30_7
.LBB30_7:                               @ =>This Inner Loop Header: Depth=1
	.loc	3 2510 20 is_stmt 0             @ packages/littlefs-v2.0.5/lfs.c:2510:20
	ldr	r0, [sp, #108]
	.loc	3 2510 42                       @ packages/littlefs-v2.0.5/lfs.c:2510:42
	ldr	r1, [r0, #44]
	.loc	3 2510 26                       @ packages/littlefs-v2.0.5/lfs.c:2510:26
	ldr	r0, [r0, #52]
	.loc	3 2510 13                       @ packages/littlefs-v2.0.5/lfs.c:2510:13
	cmp	r0, r1
	bhs	.LBB30_15
	b	.LBB30_8
.LBB30_8:                               @   in Loop: Header=BB30_7 Depth=1
.Ltmp507:
	.loc	3 2514 49 is_stmt 1             @ packages/littlefs-v2.0.5/lfs.c:2514:49
	ldr	r0, [sp, #112]
	add	r1, sp, #20
	add.w	r2, sp, #19
	movs	r3, #1
	.loc	3 2514 35 is_stmt 0             @ packages/littlefs-v2.0.5/lfs.c:2514:35
	bl	lfs_file_read
	.loc	3 2514 29                       @ packages/littlefs-v2.0.5/lfs.c:2514:29
	str	r0, [sp, #12]
.Ltmp508:
	.loc	3 2515 21 is_stmt 1             @ packages/littlefs-v2.0.5/lfs.c:2515:21
	ldr	r0, [sp, #12]
.Ltmp509:
	.loc	3 2515 21 is_stmt 0             @ packages/littlefs-v2.0.5/lfs.c:2515:21
	cmp.w	r0, #-1
	bgt	.LBB30_10
	b	.LBB30_9
.LBB30_9:
.Ltmp510:
	.loc	3 2516 28 is_stmt 1             @ packages/littlefs-v2.0.5/lfs.c:2516:28
	ldr	r0, [sp, #12]
	.loc	3 2516 21 is_stmt 0             @ packages/littlefs-v2.0.5/lfs.c:2516:21
	str	r0, [sp, #116]
	b	.LBB30_28
.Ltmp511:
.LBB30_10:                              @   in Loop: Header=BB30_7 Depth=1
	.loc	3 2519 38 is_stmt 1             @ packages/littlefs-v2.0.5/lfs.c:2519:38
	ldr	r0, [sp, #112]
	.loc	3 2519 43 is_stmt 0             @ packages/littlefs-v2.0.5/lfs.c:2519:43
	ldr	r1, [sp, #108]
	add.w	r2, sp, #19
	movs	r3, #1
	.loc	3 2519 23                       @ packages/littlefs-v2.0.5/lfs.c:2519:23
	bl	lfs_file_write
	.loc	3 2519 21                       @ packages/littlefs-v2.0.5/lfs.c:2519:21
	str	r0, [sp, #12]
.Ltmp512:
	.loc	3 2520 21 is_stmt 1             @ packages/littlefs-v2.0.5/lfs.c:2520:21
	ldr	r0, [sp, #12]
.Ltmp513:
	.loc	3 2520 21 is_stmt 0             @ packages/littlefs-v2.0.5/lfs.c:2520:21
	cmp.w	r0, #-1
	bgt	.LBB30_12
	b	.LBB30_11
.LBB30_11:
.Ltmp514:
	.loc	3 2521 28 is_stmt 1             @ packages/littlefs-v2.0.5/lfs.c:2521:28
	ldr	r0, [sp, #12]
	.loc	3 2521 21 is_stmt 0             @ packages/littlefs-v2.0.5/lfs.c:2521:21
	str	r0, [sp, #116]
	b	.LBB30_28
.Ltmp515:
.LBB30_12:                              @   in Loop: Header=BB30_7 Depth=1
	.loc	3 2525 21 is_stmt 1             @ packages/littlefs-v2.0.5/lfs.c:2525:21
	ldr	r0, [sp, #112]
	.loc	3 2525 33 is_stmt 0             @ packages/littlefs-v2.0.5/lfs.c:2525:33
	ldr	r0, [r0]
.Ltmp516:
	.loc	3 2525 21                       @ packages/littlefs-v2.0.5/lfs.c:2525:21
	adds	r0, #1
	cbz	r0, .LBB30_14
	b	.LBB30_13
.LBB30_13:                              @   in Loop: Header=BB30_7 Depth=1
.Ltmp517:
	.loc	3 2526 36 is_stmt 1             @ packages/littlefs-v2.0.5/lfs.c:2526:36
	ldr	r0, [sp, #112]
	add	r1, sp, #20
	.loc	3 2526 47 is_stmt 0             @ packages/littlefs-v2.0.5/lfs.c:2526:47
	adds	r1, #64
	.loc	3 2526 21                       @ packages/littlefs-v2.0.5/lfs.c:2526:21
	bl	lfs_cache_drop
	.loc	3 2527 36 is_stmt 1             @ packages/littlefs-v2.0.5/lfs.c:2527:36
	ldr	r1, [sp, #112]
	.loc	3 2527 21 is_stmt 0             @ packages/littlefs-v2.0.5/lfs.c:2527:21
	mov	r0, r1
	bl	lfs_cache_drop
	.loc	3 2528 17 is_stmt 1             @ packages/littlefs-v2.0.5/lfs.c:2528:17
	b	.LBB30_14
.Ltmp518:
.LBB30_14:                              @   in Loop: Header=BB30_7 Depth=1
	.loc	3 2510 13                       @ packages/littlefs-v2.0.5/lfs.c:2510:13
	b	.LBB30_7
.LBB30_15:
	.loc	3 2532 13                       @ packages/littlefs-v2.0.5/lfs.c:2532:13
	b	.LBB30_16
.LBB30_16:                              @ =>This Inner Loop Header: Depth=1
.Ltmp519:
	.loc	3 2533 40                       @ packages/littlefs-v2.0.5/lfs.c:2533:40
	ldr	r2, [sp, #112]
	.loc	3 2533 46 is_stmt 0             @ packages/littlefs-v2.0.5/lfs.c:2533:46
	ldr	r0, [sp, #108]
	.loc	3 2533 52                       @ packages/littlefs-v2.0.5/lfs.c:2533:52
	add.w	r1, r0, #64
	movs	r3, #1
	.loc	3 2533 27                       @ packages/littlefs-v2.0.5/lfs.c:2533:27
	mov	r0, r2
	bl	lfs_bd_flush
	.loc	3 2533 21                       @ packages/littlefs-v2.0.5/lfs.c:2533:21
	str	r0, [sp, #8]
.Ltmp520:
	.loc	3 2534 21 is_stmt 1             @ packages/littlefs-v2.0.5/lfs.c:2534:21
	ldr	r0, [sp, #8]
.Ltmp521:
	.loc	3 2534 21 is_stmt 0             @ packages/littlefs-v2.0.5/lfs.c:2534:21
	cbz	r0, .LBB30_20
	b	.LBB30_17
.LBB30_17:                              @   in Loop: Header=BB30_16 Depth=1
.Ltmp522:
	.loc	3 2535 25 is_stmt 1             @ packages/littlefs-v2.0.5/lfs.c:2535:25
	ldr	r0, [sp, #8]
.Ltmp523:
	.loc	3 2535 25 is_stmt 0             @ packages/littlefs-v2.0.5/lfs.c:2535:25
	adds	r0, #84
	cbnz	r0, .LBB30_19
	b	.LBB30_18
.LBB30_18:                              @   in Loop: Header=BB30_16 Depth=1
.Ltmp524:
	.loc	3 2536 25 is_stmt 1             @ packages/littlefs-v2.0.5/lfs.c:2536:25
	b	.LBB30_21
.Ltmp525:
.LBB30_19:
	.loc	3 2538 28                       @ packages/littlefs-v2.0.5/lfs.c:2538:28
	ldr	r0, [sp, #8]
	.loc	3 2538 21 is_stmt 0             @ packages/littlefs-v2.0.5/lfs.c:2538:21
	str	r0, [sp, #116]
	b	.LBB30_28
.Ltmp526:
.LBB30_20:
	.loc	3 2541 17 is_stmt 1             @ packages/littlefs-v2.0.5/lfs.c:2541:17
	b	.LBB30_24
.LBB30_21:                              @   in Loop: Header=BB30_16 Depth=1
.Ltmp527:
	@DEBUG_LABEL: relocate
	.loc	3 2544 17                       @ packages/littlefs-v2.0.5/lfs.c:2544:17
	ldr	r0, [sp, #108]
	ldr	r2, [r0, #56]
	movw	r0, :lower16:.L.str.13
	movt	r0, :upper16:.L.str.13
	mov.w	r1, #2544
	bl	rt_kprintf
	.loc	3 2545 41                       @ packages/littlefs-v2.0.5/lfs.c:2545:41
	ldr	r0, [sp, #112]
	.loc	3 2545 46 is_stmt 0             @ packages/littlefs-v2.0.5/lfs.c:2545:46
	ldr	r1, [sp, #108]
	.loc	3 2545 23                       @ packages/littlefs-v2.0.5/lfs.c:2545:23
	bl	lfs_file_relocate
	.loc	3 2545 21                       @ packages/littlefs-v2.0.5/lfs.c:2545:21
	str	r0, [sp, #8]
.Ltmp528:
	.loc	3 2546 21 is_stmt 1             @ packages/littlefs-v2.0.5/lfs.c:2546:21
	ldr	r0, [sp, #8]
.Ltmp529:
	.loc	3 2546 21 is_stmt 0             @ packages/littlefs-v2.0.5/lfs.c:2546:21
	cbz	r0, .LBB30_23
	b	.LBB30_22
.LBB30_22:
.Ltmp530:
	.loc	3 2547 28 is_stmt 1             @ packages/littlefs-v2.0.5/lfs.c:2547:28
	ldr	r0, [sp, #8]
	.loc	3 2547 21 is_stmt 0             @ packages/littlefs-v2.0.5/lfs.c:2547:21
	str	r0, [sp, #116]
	b	.LBB30_28
.Ltmp531:
.LBB30_23:                              @   in Loop: Header=BB30_16 Depth=1
	.loc	3 2532 13 is_stmt 1             @ packages/littlefs-v2.0.5/lfs.c:2532:13
	b	.LBB30_16
.LBB30_24:
	.loc	3 2550 9                        @ packages/littlefs-v2.0.5/lfs.c:2550:9
	b	.LBB30_26
.Ltmp532:
.LBB30_25:
	.loc	3 2551 33                       @ packages/littlefs-v2.0.5/lfs.c:2551:33
	ldr	r0, [sp, #108]
	.loc	3 2551 54 is_stmt 0             @ packages/littlefs-v2.0.5/lfs.c:2551:54
	ldr	r1, [r0, #44]
	.loc	3 2551 39                       @ packages/littlefs-v2.0.5/lfs.c:2551:39
	ldr	r0, [r0, #52]
	.loc	3 2551 25                       @ packages/littlefs-v2.0.5/lfs.c:2551:25
	bl	lfs_max
	.loc	3 2551 13                       @ packages/littlefs-v2.0.5/lfs.c:2551:13
	ldr	r1, [sp, #108]
	.loc	3 2551 23                       @ packages/littlefs-v2.0.5/lfs.c:2551:23
	str	r0, [r1, #52]
	b	.LBB30_26
.Ltmp533:
.LBB30_26:
	.loc	3 2555 26 is_stmt 1             @ packages/littlefs-v2.0.5/lfs.c:2555:26
	ldr	r1, [sp, #108]
	.loc	3 2555 32 is_stmt 0             @ packages/littlefs-v2.0.5/lfs.c:2555:32
	ldr	r0, [r1, #56]
	.loc	3 2555 24                       @ packages/littlefs-v2.0.5/lfs.c:2555:24
	str	r0, [r1, #40]
	.loc	3 2556 26 is_stmt 1             @ packages/littlefs-v2.0.5/lfs.c:2556:26
	ldr	r1, [sp, #108]
	.loc	3 2556 32 is_stmt 0             @ packages/littlefs-v2.0.5/lfs.c:2556:32
	ldr	r0, [r1, #52]
	.loc	3 2556 24                       @ packages/littlefs-v2.0.5/lfs.c:2556:24
	str	r0, [r1, #44]
	.loc	3 2557 9 is_stmt 1              @ packages/littlefs-v2.0.5/lfs.c:2557:9
	ldr	r1, [sp, #108]
	.loc	3 2557 21 is_stmt 0             @ packages/littlefs-v2.0.5/lfs.c:2557:21
	ldr	r0, [r1, #48]
	bic	r0, r0, #131072
	str	r0, [r1, #48]
	.loc	3 2558 9 is_stmt 1              @ packages/littlefs-v2.0.5/lfs.c:2558:9
	ldr	r1, [sp, #108]
	.loc	3 2558 21 is_stmt 0             @ packages/littlefs-v2.0.5/lfs.c:2558:21
	ldr	r0, [r1, #48]
	orr	r0, r0, #65536
	str	r0, [r1, #48]
	.loc	3 2560 21 is_stmt 1             @ packages/littlefs-v2.0.5/lfs.c:2560:21
	ldr	r0, [sp, #104]
	.loc	3 2560 9 is_stmt 0              @ packages/littlefs-v2.0.5/lfs.c:2560:9
	ldr	r1, [sp, #108]
	.loc	3 2560 19                       @ packages/littlefs-v2.0.5/lfs.c:2560:19
	str	r0, [r1, #52]
	.loc	3 2561 5 is_stmt 1              @ packages/littlefs-v2.0.5/lfs.c:2561:5
	b	.LBB30_27
.Ltmp534:
.LBB30_27:
	.loc	3 0 5 is_stmt 0                 @ packages/littlefs-v2.0.5/lfs.c:0:5
	movs	r0, #0
	.loc	3 2563 5 is_stmt 1              @ packages/littlefs-v2.0.5/lfs.c:2563:5
	str	r0, [sp, #116]
	b	.LBB30_28
.LBB30_28:
	.loc	3 2564 1                        @ packages/littlefs-v2.0.5/lfs.c:2564:1
	ldr	r0, [sp, #116]
	add	sp, #120
	pop	{r7, pc}
.Ltmp535:
.Lfunc_end30:
	.size	lfs_file_flush, .Lfunc_end30-lfs_file_flush
	.cfi_endproc
	.cantunwind
	.fnend
                                        @ -- End function
	.section	.text.lfs_pair_isnull,"ax",%progbits
	.p2align	3                               @ -- Begin function lfs_pair_isnull
	.type	lfs_pair_isnull,%function
	.code	16                              @ @lfs_pair_isnull
	.thumb_func
lfs_pair_isnull:
.Lfunc_begin31:
	.loc	3 236 0                         @ packages/littlefs-v2.0.5/lfs.c:236:0
	.fnstart
	.cfi_startproc
@ %bb.0:
	.pad	#8
	sub	sp, #8
	.cfi_def_cfa_offset 8
	str	r0, [sp, #4]
.Ltmp536:
	.loc	3 237 12 prologue_end           @ packages/littlefs-v2.0.5/lfs.c:237:12
	ldr	r0, [sp, #4]
	ldr	r1, [r0]
	movs	r0, #1
	.loc	3 237 34 is_stmt 0              @ packages/littlefs-v2.0.5/lfs.c:237:34
	adds	r1, #1
	str	r0, [sp]                        @ 4-byte Spill
	cbz	r1, .LBB31_2
	b	.LBB31_1
.LBB31_1:
	.loc	3 237 37                        @ packages/littlefs-v2.0.5/lfs.c:237:37
	ldr	r0, [sp, #4]
	ldr	r0, [r0, #4]
	.loc	3 237 45                        @ packages/littlefs-v2.0.5/lfs.c:237:45
	adds	r0, #1
	clz	r0, r0
	lsrs	r0, r0, #5
	.loc	3 237 34                        @ packages/littlefs-v2.0.5/lfs.c:237:34
	str	r0, [sp]                        @ 4-byte Spill
	b	.LBB31_2
.LBB31_2:
	.loc	3 0 34                          @ packages/littlefs-v2.0.5/lfs.c:0:34
	ldr	r0, [sp]                        @ 4-byte Reload
	.loc	3 237 5                         @ packages/littlefs-v2.0.5/lfs.c:237:5
	and	r0, r0, #1
	add	sp, #8
	bx	lr
.Ltmp537:
.Lfunc_end31:
	.size	lfs_pair_isnull, .Lfunc_end31-lfs_pair_isnull
	.cfi_endproc
	.cantunwind
	.fnend
                                        @ -- End function
	.section	.text.lfs_ctz_tole32,"ax",%progbits
	.p2align	3                               @ -- Begin function lfs_ctz_tole32
	.type	lfs_ctz_tole32,%function
	.code	16                              @ @lfs_ctz_tole32
	.thumb_func
lfs_ctz_tole32:
.Lfunc_begin32:
	.loc	3 387 0 is_stmt 1               @ packages/littlefs-v2.0.5/lfs.c:387:0
	.fnstart
	.cfi_startproc
@ %bb.0:
	.save	{r7, lr}
	push	{r7, lr}
	.cfi_def_cfa_offset 8
	.cfi_offset lr, -4
	.cfi_offset r7, -8
	.pad	#8
	sub	sp, #8
	.cfi_def_cfa_offset 16
	str	r0, [sp, #4]
.Ltmp538:
	.loc	3 388 28 prologue_end           @ packages/littlefs-v2.0.5/lfs.c:388:28
	ldr	r0, [sp, #4]
	.loc	3 388 33 is_stmt 0              @ packages/littlefs-v2.0.5/lfs.c:388:33
	ldr	r0, [r0]
	.loc	3 388 17                        @ packages/littlefs-v2.0.5/lfs.c:388:17
	bl	lfs_tole32
	.loc	3 388 5                         @ packages/littlefs-v2.0.5/lfs.c:388:5
	ldr	r1, [sp, #4]
	.loc	3 388 15                        @ packages/littlefs-v2.0.5/lfs.c:388:15
	str	r0, [r1]
	.loc	3 389 28 is_stmt 1              @ packages/littlefs-v2.0.5/lfs.c:389:28
	ldr	r0, [sp, #4]
	.loc	3 389 33 is_stmt 0              @ packages/littlefs-v2.0.5/lfs.c:389:33
	ldr	r0, [r0, #4]
	.loc	3 389 17                        @ packages/littlefs-v2.0.5/lfs.c:389:17
	bl	lfs_tole32
	.loc	3 389 5                         @ packages/littlefs-v2.0.5/lfs.c:389:5
	ldr	r1, [sp, #4]
	.loc	3 389 15                        @ packages/littlefs-v2.0.5/lfs.c:389:15
	str	r0, [r1, #4]
	.loc	3 390 1 is_stmt 1               @ packages/littlefs-v2.0.5/lfs.c:390:1
	add	sp, #8
	pop	{r7, pc}
.Ltmp539:
.Lfunc_end32:
	.size	lfs_ctz_tole32, .Lfunc_end32-lfs_ctz_tole32
	.cfi_endproc
	.cantunwind
	.fnend
                                        @ -- End function
	.section	.text.lfs_file_relocate,"ax",%progbits
	.p2align	3                               @ -- Begin function lfs_file_relocate
	.type	lfs_file_relocate,%function
	.code	16                              @ @lfs_file_relocate
	.thumb_func
lfs_file_relocate:
.Lfunc_begin33:
	.loc	3 2418 0                        @ packages/littlefs-v2.0.5/lfs.c:2418:0
	.fnstart
	.cfi_startproc
@ %bb.0:
	.save	{r4, r5, r7, lr}
	push	{r4, r5, r7, lr}
	.cfi_def_cfa_offset 16
	.cfi_offset lr, -4
	.cfi_offset r7, -8
	.cfi_offset r5, -12
	.cfi_offset r4, -16
	.pad	#56
	sub	sp, #56
	.cfi_def_cfa_offset 72
	str	r0, [sp, #48]
	str	r1, [sp, #44]
.Ltmp540:
	.loc	3 2419 5 prologue_end           @ packages/littlefs-v2.0.5/lfs.c:2419:5
	b	.LBB33_1
.LBB33_1:                               @ =>This Loop Header: Depth=1
                                        @     Child Loop BB33_8 Depth 2
.Ltmp541:
	.loc	3 2422 29                       @ packages/littlefs-v2.0.5/lfs.c:2422:29
	ldr	r0, [sp, #48]
	add	r1, sp, #40
	.loc	3 2422 19 is_stmt 0             @ packages/littlefs-v2.0.5/lfs.c:2422:19
	bl	lfs_alloc
	.loc	3 2422 13                       @ packages/littlefs-v2.0.5/lfs.c:2422:13
	str	r0, [sp, #36]
.Ltmp542:
	.loc	3 2423 13 is_stmt 1             @ packages/littlefs-v2.0.5/lfs.c:2423:13
	ldr	r0, [sp, #36]
.Ltmp543:
	.loc	3 2423 13 is_stmt 0             @ packages/littlefs-v2.0.5/lfs.c:2423:13
	cbz	r0, .LBB33_3
	b	.LBB33_2
.LBB33_2:
.Ltmp544:
	.loc	3 2424 20 is_stmt 1             @ packages/littlefs-v2.0.5/lfs.c:2424:20
	ldr	r0, [sp, #36]
	.loc	3 2424 13 is_stmt 0             @ packages/littlefs-v2.0.5/lfs.c:2424:13
	str	r0, [sp, #52]
	b	.LBB33_24
.Ltmp545:
.LBB33_3:                               @   in Loop: Header=BB33_1 Depth=1
	.loc	3 2427 28 is_stmt 1             @ packages/littlefs-v2.0.5/lfs.c:2427:28
	ldr	r0, [sp, #48]
	.loc	3 2427 33 is_stmt 0             @ packages/littlefs-v2.0.5/lfs.c:2427:33
	ldr	r1, [sp, #40]
	.loc	3 2427 15                       @ packages/littlefs-v2.0.5/lfs.c:2427:15
	bl	lfs_bd_erase
	.loc	3 2427 13                       @ packages/littlefs-v2.0.5/lfs.c:2427:13
	str	r0, [sp, #36]
.Ltmp546:
	.loc	3 2428 13 is_stmt 1             @ packages/littlefs-v2.0.5/lfs.c:2428:13
	ldr	r0, [sp, #36]
.Ltmp547:
	.loc	3 2428 13 is_stmt 0             @ packages/littlefs-v2.0.5/lfs.c:2428:13
	cbz	r0, .LBB33_7
	b	.LBB33_4
.LBB33_4:                               @   in Loop: Header=BB33_1 Depth=1
.Ltmp548:
	.loc	3 2429 17 is_stmt 1             @ packages/littlefs-v2.0.5/lfs.c:2429:17
	ldr	r0, [sp, #36]
.Ltmp549:
	.loc	3 2429 17 is_stmt 0             @ packages/littlefs-v2.0.5/lfs.c:2429:17
	adds	r0, #84
	cbnz	r0, .LBB33_6
	b	.LBB33_5
.LBB33_5:                               @   in Loop: Header=BB33_1 Depth=1
.Ltmp550:
	.loc	3 2430 17 is_stmt 1             @ packages/littlefs-v2.0.5/lfs.c:2430:17
	b	.LBB33_23
.Ltmp551:
.LBB33_6:
	.loc	3 2432 20                       @ packages/littlefs-v2.0.5/lfs.c:2432:20
	ldr	r0, [sp, #36]
	.loc	3 2432 13 is_stmt 0             @ packages/littlefs-v2.0.5/lfs.c:2432:13
	str	r0, [sp, #52]
	b	.LBB33_24
.Ltmp552:
.LBB33_7:                               @   in Loop: Header=BB33_1 Depth=1
	.loc	3 0 13                          @ packages/littlefs-v2.0.5/lfs.c:0:13
	movs	r0, #0
.Ltmp553:
	.loc	3 2436 24 is_stmt 1             @ packages/littlefs-v2.0.5/lfs.c:2436:24
	str	r0, [sp, #32]
	.loc	3 2436 14 is_stmt 0             @ packages/littlefs-v2.0.5/lfs.c:2436:14
	b	.LBB33_8
.LBB33_8:                               @   Parent Loop BB33_1 Depth=1
                                        @ =>  This Inner Loop Header: Depth=2
.Ltmp554:
	.loc	3 2436 31                       @ packages/littlefs-v2.0.5/lfs.c:2436:31
	ldr	r0, [sp, #32]
	.loc	3 2436 35                       @ packages/littlefs-v2.0.5/lfs.c:2436:35
	ldr	r1, [sp, #44]
	.loc	3 2436 41                       @ packages/littlefs-v2.0.5/lfs.c:2436:41
	ldr	r1, [r1, #60]
.Ltmp555:
	.loc	3 2436 9                        @ packages/littlefs-v2.0.5/lfs.c:2436:9
	cmp	r0, r1
	bhs.w	.LBB33_22
	b	.LBB33_9
.LBB33_9:                               @   in Loop: Header=BB33_8 Depth=2
.Ltmp556:
	.loc	3 2438 17 is_stmt 1             @ packages/littlefs-v2.0.5/lfs.c:2438:17
	ldr	r0, [sp, #44]
.Ltmp557:
	.loc	3 2438 17 is_stmt 0             @ packages/littlefs-v2.0.5/lfs.c:2438:17
	ldrb.w	r0, [r0, #50]
	lsls	r0, r0, #27
	cmp	r0, #0
	bpl	.LBB33_13
	b	.LBB33_10
.LBB33_10:                              @   in Loop: Header=BB33_8 Depth=2
.Ltmp558:
	.loc	3 2439 39 is_stmt 1             @ packages/littlefs-v2.0.5/lfs.c:2439:39
	ldr	r0, [sp, #48]
	.loc	3 2439 45 is_stmt 0             @ packages/littlefs-v2.0.5/lfs.c:2439:45
	ldr.w	r12, [sp, #44]
	.loc	3 2439 51                       @ packages/littlefs-v2.0.5/lfs.c:2439:51
	add.w	r1, r12, #8
	.loc	3 2441 38 is_stmt 1             @ packages/littlefs-v2.0.5/lfs.c:2441:38
	add.w	r3, r12, #64
	.loc	3 2441 51 is_stmt 0             @ packages/littlefs-v2.0.5/lfs.c:2441:51
	ldr.w	r2, [r12, #60]
	.loc	3 2441 55                       @ packages/littlefs-v2.0.5/lfs.c:2441:55
	ldr	r4, [sp, #32]
	.loc	3 2441 54                       @ packages/littlefs-v2.0.5/lfs.c:2441:54
	subs	r2, r2, r4
	.loc	3 2443 25 is_stmt 1             @ packages/littlefs-v2.0.5/lfs.c:2443:25
	ldrh.w	lr, [r12, #4]
	movw	r12, #0
	movt	r12, #8208
	orr.w	lr, r12, lr, lsl #10
	.loc	3 2439 23                       @ packages/littlefs-v2.0.5/lfs.c:2439:23
	mov	r12, sp
	movs	r5, #1
	str.w	r5, [r12, #20]
	add.w	r5, sp, #31
	str.w	r5, [r12, #16]
	str.w	r4, [r12, #12]
	str.w	lr, [r12, #8]
	movw	lr, #64512
	movt	lr, #65527
	str.w	lr, [r12, #4]
	str.w	r2, [r12]
	movs	r2, #0
	bl	lfs_dir_getread
	.loc	3 2439 21 is_stmt 0             @ packages/littlefs-v2.0.5/lfs.c:2439:21
	str	r0, [sp, #36]
.Ltmp559:
	.loc	3 2445 21 is_stmt 1             @ packages/littlefs-v2.0.5/lfs.c:2445:21
	ldr	r0, [sp, #36]
.Ltmp560:
	.loc	3 2445 21 is_stmt 0             @ packages/littlefs-v2.0.5/lfs.c:2445:21
	cbz	r0, .LBB33_12
	b	.LBB33_11
.LBB33_11:
.Ltmp561:
	.loc	3 2446 28 is_stmt 1             @ packages/littlefs-v2.0.5/lfs.c:2446:28
	ldr	r0, [sp, #36]
	.loc	3 2446 21 is_stmt 0             @ packages/littlefs-v2.0.5/lfs.c:2446:21
	str	r0, [sp, #52]
	b	.LBB33_24
.Ltmp562:
.LBB33_12:                              @   in Loop: Header=BB33_8 Depth=2
	.loc	3 2448 13 is_stmt 1             @ packages/littlefs-v2.0.5/lfs.c:2448:13
	b	.LBB33_16
.Ltmp563:
.LBB33_13:                              @   in Loop: Header=BB33_8 Depth=2
	.loc	3 2449 35                       @ packages/littlefs-v2.0.5/lfs.c:2449:35
	ldr	r2, [sp, #48]
	.loc	3 2450 26                       @ packages/littlefs-v2.0.5/lfs.c:2450:26
	ldr	r3, [sp, #44]
	.loc	3 2450 32 is_stmt 0             @ packages/littlefs-v2.0.5/lfs.c:2450:32
	add.w	r1, r3, #64
	.loc	3 2451 31 is_stmt 1             @ packages/littlefs-v2.0.5/lfs.c:2451:31
	ldr	r0, [r3, #56]
	.loc	3 2450 59                       @ packages/littlefs-v2.0.5/lfs.c:2450:59
	ldr	r3, [r3, #60]
	.loc	3 2450 63 is_stmt 0             @ packages/littlefs-v2.0.5/lfs.c:2450:63
	ldr.w	lr, [sp, #32]
	.loc	3 2450 62                       @ packages/littlefs-v2.0.5/lfs.c:2450:62
	sub.w	r3, r3, lr
	.loc	3 2449 23 is_stmt 1             @ packages/littlefs-v2.0.5/lfs.c:2449:23
	mov	r12, sp
	movs	r4, #1
	str.w	r4, [r12, #12]
	add.w	r4, sp, #31
	str.w	r4, [r12, #8]
	str.w	lr, [r12, #4]
	str.w	r0, [r12]
	mov	r0, r2
	bl	lfs_bd_read
	.loc	3 2449 21 is_stmt 0             @ packages/littlefs-v2.0.5/lfs.c:2449:21
	str	r0, [sp, #36]
.Ltmp564:
	.loc	3 2452 21 is_stmt 1             @ packages/littlefs-v2.0.5/lfs.c:2452:21
	ldr	r0, [sp, #36]
.Ltmp565:
	.loc	3 2452 21 is_stmt 0             @ packages/littlefs-v2.0.5/lfs.c:2452:21
	cbz	r0, .LBB33_15
	b	.LBB33_14
.LBB33_14:
.Ltmp566:
	.loc	3 2453 28 is_stmt 1             @ packages/littlefs-v2.0.5/lfs.c:2453:28
	ldr	r0, [sp, #36]
	.loc	3 2453 21 is_stmt 0             @ packages/littlefs-v2.0.5/lfs.c:2453:21
	str	r0, [sp, #52]
	b	.LBB33_24
.Ltmp567:
.LBB33_15:                              @   in Loop: Header=BB33_8 Depth=2
	.loc	3 0 21                          @ packages/littlefs-v2.0.5/lfs.c:0:21
	b	.LBB33_16
.LBB33_16:                              @   in Loop: Header=BB33_8 Depth=2
	.loc	3 2457 31 is_stmt 1             @ packages/littlefs-v2.0.5/lfs.c:2457:31
	ldr	r2, [sp, #48]
	.loc	3 2458 27                       @ packages/littlefs-v2.0.5/lfs.c:2458:27
	add.w	r1, r2, #16
	.loc	3 2459 21                       @ packages/littlefs-v2.0.5/lfs.c:2459:21
	ldr	r0, [sp, #40]
	.loc	3 2459 29 is_stmt 0             @ packages/littlefs-v2.0.5/lfs.c:2459:29
	ldr.w	lr, [sp, #32]
	.loc	3 2457 19 is_stmt 1             @ packages/littlefs-v2.0.5/lfs.c:2457:19
	mov	r12, sp
	movs	r3, #1
	str.w	r3, [r12, #12]
	add.w	r4, sp, #31
	str.w	r4, [r12, #8]
	str.w	lr, [r12, #4]
	str.w	r0, [r12]
	mov	r0, r2
	bl	lfs_bd_prog
	.loc	3 2457 17 is_stmt 0             @ packages/littlefs-v2.0.5/lfs.c:2457:17
	str	r0, [sp, #36]
.Ltmp568:
	.loc	3 2460 17 is_stmt 1             @ packages/littlefs-v2.0.5/lfs.c:2460:17
	ldr	r0, [sp, #36]
.Ltmp569:
	.loc	3 2460 17 is_stmt 0             @ packages/littlefs-v2.0.5/lfs.c:2460:17
	cbz	r0, .LBB33_20
	b	.LBB33_17
.LBB33_17:                              @   in Loop: Header=BB33_1 Depth=1
.Ltmp570:
	.loc	3 2461 21 is_stmt 1             @ packages/littlefs-v2.0.5/lfs.c:2461:21
	ldr	r0, [sp, #36]
.Ltmp571:
	.loc	3 2461 21 is_stmt 0             @ packages/littlefs-v2.0.5/lfs.c:2461:21
	adds	r0, #84
	cbnz	r0, .LBB33_19
	b	.LBB33_18
.LBB33_18:                              @   in Loop: Header=BB33_1 Depth=1
.Ltmp572:
	.loc	3 2462 21 is_stmt 1             @ packages/littlefs-v2.0.5/lfs.c:2462:21
	b	.LBB33_23
.Ltmp573:
.LBB33_19:
	.loc	3 2464 24                       @ packages/littlefs-v2.0.5/lfs.c:2464:24
	ldr	r0, [sp, #36]
	.loc	3 2464 17 is_stmt 0             @ packages/littlefs-v2.0.5/lfs.c:2464:17
	str	r0, [sp, #52]
	b	.LBB33_24
.Ltmp574:
.LBB33_20:                              @   in Loop: Header=BB33_8 Depth=2
	.loc	3 2466 9 is_stmt 1              @ packages/littlefs-v2.0.5/lfs.c:2466:9
	b	.LBB33_21
.Ltmp575:
.LBB33_21:                              @   in Loop: Header=BB33_8 Depth=2
	.loc	3 2436 47                       @ packages/littlefs-v2.0.5/lfs.c:2436:47
	ldr	r0, [sp, #32]
	adds	r0, #1
	str	r0, [sp, #32]
	.loc	3 2436 9 is_stmt 0              @ packages/littlefs-v2.0.5/lfs.c:2436:9
	b	.LBB33_8
.Ltmp576:
.LBB33_22:
	.loc	3 2469 16 is_stmt 1             @ packages/littlefs-v2.0.5/lfs.c:2469:16
	ldr	r0, [sp, #44]
	.loc	3 2469 28 is_stmt 0             @ packages/littlefs-v2.0.5/lfs.c:2469:28
	ldr	r0, [r0, #76]
	.loc	3 2469 36                       @ packages/littlefs-v2.0.5/lfs.c:2469:36
	ldr	r2, [sp, #48]
	.loc	3 2469 48                       @ packages/littlefs-v2.0.5/lfs.c:2469:48
	ldr	r1, [r2, #28]
	.loc	3 2469 61                       @ packages/littlefs-v2.0.5/lfs.c:2469:61
	ldr	r2, [r2, #104]
	.loc	3 2469 66                       @ packages/littlefs-v2.0.5/lfs.c:2469:66
	ldr	r2, [r2, #40]
	.loc	3 2469 9                        @ packages/littlefs-v2.0.5/lfs.c:2469:9
	bl	__aeabi_memcpy
	.loc	3 2470 29 is_stmt 1             @ packages/littlefs-v2.0.5/lfs.c:2470:29
	ldr	r0, [sp, #48]
	.loc	3 2470 41 is_stmt 0             @ packages/littlefs-v2.0.5/lfs.c:2470:41
	ldr	r0, [r0, #16]
	.loc	3 2470 9                        @ packages/littlefs-v2.0.5/lfs.c:2470:9
	ldr	r1, [sp, #44]
	.loc	3 2470 27                       @ packages/littlefs-v2.0.5/lfs.c:2470:27
	str	r0, [r1, #64]
	.loc	3 2471 27 is_stmt 1             @ packages/littlefs-v2.0.5/lfs.c:2471:27
	ldr	r0, [sp, #48]
	.loc	3 2471 39 is_stmt 0             @ packages/littlefs-v2.0.5/lfs.c:2471:39
	ldr	r0, [r0, #20]
	.loc	3 2471 9                        @ packages/littlefs-v2.0.5/lfs.c:2471:9
	ldr	r1, [sp, #44]
	.loc	3 2471 25                       @ packages/littlefs-v2.0.5/lfs.c:2471:25
	str	r0, [r1, #68]
	.loc	3 2472 28 is_stmt 1             @ packages/littlefs-v2.0.5/lfs.c:2472:28
	ldr	r0, [sp, #48]
	.loc	3 2472 40 is_stmt 0             @ packages/littlefs-v2.0.5/lfs.c:2472:40
	ldr	r0, [r0, #24]
	.loc	3 2472 9                        @ packages/littlefs-v2.0.5/lfs.c:2472:9
	ldr	r1, [sp, #44]
	.loc	3 2472 26                       @ packages/littlefs-v2.0.5/lfs.c:2472:26
	str	r0, [r1, #72]
	.loc	3 2473 24 is_stmt 1             @ packages/littlefs-v2.0.5/lfs.c:2473:24
	ldr	r0, [sp, #48]
	.loc	3 2473 35 is_stmt 0             @ packages/littlefs-v2.0.5/lfs.c:2473:35
	add.w	r1, r0, #16
	.loc	3 2473 9                        @ packages/littlefs-v2.0.5/lfs.c:2473:9
	bl	lfs_cache_zero
	.loc	3 2475 23 is_stmt 1             @ packages/littlefs-v2.0.5/lfs.c:2475:23
	ldr	r0, [sp, #40]
	.loc	3 2475 9 is_stmt 0              @ packages/littlefs-v2.0.5/lfs.c:2475:9
	ldr	r1, [sp, #44]
	.loc	3 2475 21                       @ packages/littlefs-v2.0.5/lfs.c:2475:21
	str	r0, [r1, #56]
	.loc	3 2476 9 is_stmt 1              @ packages/littlefs-v2.0.5/lfs.c:2476:9
	ldr	r1, [sp, #44]
	.loc	3 2476 21 is_stmt 0             @ packages/littlefs-v2.0.5/lfs.c:2476:21
	ldr	r0, [r1, #48]
	bic	r0, r0, #1048576
	str	r0, [r1, #48]
	.loc	3 2477 9 is_stmt 1              @ packages/littlefs-v2.0.5/lfs.c:2477:9
	ldr	r1, [sp, #44]
	.loc	3 2477 21 is_stmt 0             @ packages/littlefs-v2.0.5/lfs.c:2477:21
	ldr	r0, [r1, #48]
	orr	r0, r0, #131072
	str	r0, [r1, #48]
	movs	r0, #0
	.loc	3 2478 9 is_stmt 1              @ packages/littlefs-v2.0.5/lfs.c:2478:9
	str	r0, [sp, #52]
	b	.LBB33_24
.LBB33_23:                              @   in Loop: Header=BB33_1 Depth=1
.Ltmp577:
	@DEBUG_LABEL: relocate
	.loc	3 2481 9                        @ packages/littlefs-v2.0.5/lfs.c:2481:9
	ldr	r2, [sp, #40]
	movw	r0, :lower16:.L.str.13
	movt	r0, :upper16:.L.str.13
	movw	r1, #2481
	bl	rt_kprintf
	.loc	3 2484 24                       @ packages/littlefs-v2.0.5/lfs.c:2484:24
	ldr	r0, [sp, #48]
	.loc	3 2484 35 is_stmt 0             @ packages/littlefs-v2.0.5/lfs.c:2484:35
	add.w	r1, r0, #16
	.loc	3 2484 9                        @ packages/littlefs-v2.0.5/lfs.c:2484:9
	bl	lfs_cache_drop
.Ltmp578:
	.loc	3 2419 5 is_stmt 1              @ packages/littlefs-v2.0.5/lfs.c:2419:5
	b	.LBB33_1
.LBB33_24:
	.loc	3 2486 1                        @ packages/littlefs-v2.0.5/lfs.c:2486:1
	ldr	r0, [sp, #52]
	add	sp, #56
	pop	{r4, r5, r7, pc}
.Ltmp579:
.Lfunc_end33:
	.size	lfs_file_relocate, .Lfunc_end33-lfs_file_relocate
	.cfi_endproc
	.cantunwind
	.fnend
                                        @ -- End function
	.section	.text.lfs_file_read,"ax",%progbits
	.hidden	lfs_file_read                   @ -- Begin function lfs_file_read
	.globl	lfs_file_read
	.p2align	3
	.type	lfs_file_read,%function
	.code	16                              @ @lfs_file_read
	.thumb_func
lfs_file_read:
.Lfunc_begin34:
	.loc	3 2627 0                        @ packages/littlefs-v2.0.5/lfs.c:2627:0
	.fnstart
	.cfi_startproc
@ %bb.0:
	.save	{r4, r5, r6, lr}
	push	{r4, r5, r6, lr}
	.cfi_def_cfa_offset 16
	.cfi_offset lr, -4
	.cfi_offset r6, -8
	.cfi_offset r5, -12
	.cfi_offset r4, -16
	.pad	#72
	sub	sp, #72
	.cfi_def_cfa_offset 88
	str	r0, [sp, #64]
	str	r1, [sp, #60]
	str	r2, [sp, #56]
	str	r3, [sp, #52]
.Ltmp580:
	.loc	3 2628 21 prologue_end          @ packages/littlefs-v2.0.5/lfs.c:2628:21
	ldr	r0, [sp, #56]
	.loc	3 2628 14 is_stmt 0             @ packages/littlefs-v2.0.5/lfs.c:2628:14
	str	r0, [sp, #48]
	.loc	3 2629 24 is_stmt 1             @ packages/littlefs-v2.0.5/lfs.c:2629:24
	ldr	r0, [sp, #52]
	.loc	3 2629 16 is_stmt 0             @ packages/littlefs-v2.0.5/lfs.c:2629:16
	str	r0, [sp, #44]
.Ltmp581:
	.loc	3 2631 10 is_stmt 1             @ packages/littlefs-v2.0.5/lfs.c:2631:10
	ldr	r0, [sp, #60]
	.loc	3 2631 16 is_stmt 0             @ packages/littlefs-v2.0.5/lfs.c:2631:16
	ldr	r0, [r0, #48]
	.loc	3 2631 22                       @ packages/littlefs-v2.0.5/lfs.c:2631:22
	and	r0, r0, #3
.Ltmp582:
	.loc	3 2631 9                        @ packages/littlefs-v2.0.5/lfs.c:2631:9
	cmp	r0, #2
	bne	.LBB34_2
	b	.LBB34_1
.LBB34_1:
	.loc	3 0 9                           @ packages/littlefs-v2.0.5/lfs.c:0:9
	mvn	r0, #8
.Ltmp583:
	.loc	3 2632 9 is_stmt 1              @ packages/littlefs-v2.0.5/lfs.c:2632:9
	str	r0, [sp, #68]
	b	.LBB34_27
.Ltmp584:
.LBB34_2:
	.loc	3 2635 9                        @ packages/littlefs-v2.0.5/lfs.c:2635:9
	ldr	r0, [sp, #60]
.Ltmp585:
	.loc	3 2635 9 is_stmt 0              @ packages/littlefs-v2.0.5/lfs.c:2635:9
	ldrb.w	r0, [r0, #50]
	lsls	r0, r0, #30
	cmp	r0, #0
	bpl	.LBB34_6
	b	.LBB34_3
.LBB34_3:
.Ltmp586:
	.loc	3 2637 34 is_stmt 1             @ packages/littlefs-v2.0.5/lfs.c:2637:34
	ldr	r0, [sp, #64]
	.loc	3 2637 39 is_stmt 0             @ packages/littlefs-v2.0.5/lfs.c:2637:39
	ldr	r1, [sp, #60]
	.loc	3 2637 19                       @ packages/littlefs-v2.0.5/lfs.c:2637:19
	bl	lfs_file_flush
	.loc	3 2637 13                       @ packages/littlefs-v2.0.5/lfs.c:2637:13
	str	r0, [sp, #40]
.Ltmp587:
	.loc	3 2638 13 is_stmt 1             @ packages/littlefs-v2.0.5/lfs.c:2638:13
	ldr	r0, [sp, #40]
.Ltmp588:
	.loc	3 2638 13 is_stmt 0             @ packages/littlefs-v2.0.5/lfs.c:2638:13
	cbz	r0, .LBB34_5
	b	.LBB34_4
.LBB34_4:
.Ltmp589:
	.loc	3 2639 20 is_stmt 1             @ packages/littlefs-v2.0.5/lfs.c:2639:20
	ldr	r0, [sp, #40]
	.loc	3 2639 13 is_stmt 0             @ packages/littlefs-v2.0.5/lfs.c:2639:13
	str	r0, [sp, #68]
	b	.LBB34_27
.Ltmp590:
.LBB34_5:
	.loc	3 2641 5 is_stmt 1              @ packages/littlefs-v2.0.5/lfs.c:2641:5
	b	.LBB34_6
.Ltmp591:
.LBB34_6:
	.loc	3 2643 9                        @ packages/littlefs-v2.0.5/lfs.c:2643:9
	ldr	r0, [sp, #60]
	.loc	3 2643 32 is_stmt 0             @ packages/littlefs-v2.0.5/lfs.c:2643:32
	ldr	r1, [r0, #44]
	.loc	3 2643 15                       @ packages/littlefs-v2.0.5/lfs.c:2643:15
	ldr	r0, [r0, #52]
.Ltmp592:
	.loc	3 2643 9                        @ packages/littlefs-v2.0.5/lfs.c:2643:9
	cmp	r0, r1
	blo	.LBB34_8
	b	.LBB34_7
.LBB34_7:
	.loc	3 0 9                           @ packages/littlefs-v2.0.5/lfs.c:0:9
	movs	r0, #0
.Ltmp593:
	.loc	3 2645 9 is_stmt 1              @ packages/littlefs-v2.0.5/lfs.c:2645:9
	str	r0, [sp, #68]
	b	.LBB34_27
.Ltmp594:
.LBB34_8:
	.loc	3 2648 20                       @ packages/littlefs-v2.0.5/lfs.c:2648:20
	ldr	r0, [sp, #52]
	.loc	3 2648 26 is_stmt 0             @ packages/littlefs-v2.0.5/lfs.c:2648:26
	ldr	r2, [sp, #60]
	.loc	3 2648 36                       @ packages/littlefs-v2.0.5/lfs.c:2648:36
	ldr	r1, [r2, #44]
	.loc	3 2648 49                       @ packages/littlefs-v2.0.5/lfs.c:2648:49
	ldr	r2, [r2, #52]
	.loc	3 2648 41                       @ packages/littlefs-v2.0.5/lfs.c:2648:41
	subs	r1, r1, r2
	.loc	3 2648 12                       @ packages/littlefs-v2.0.5/lfs.c:2648:12
	bl	lfs_min
	.loc	3 2648 10                       @ packages/littlefs-v2.0.5/lfs.c:2648:10
	str	r0, [sp, #52]
	.loc	3 2649 13 is_stmt 1             @ packages/littlefs-v2.0.5/lfs.c:2649:13
	ldr	r0, [sp, #52]
	.loc	3 2649 11 is_stmt 0             @ packages/littlefs-v2.0.5/lfs.c:2649:11
	str	r0, [sp, #44]
	.loc	3 2651 5 is_stmt 1              @ packages/littlefs-v2.0.5/lfs.c:2651:5
	b	.LBB34_9
.LBB34_9:                               @ =>This Inner Loop Header: Depth=1
	.loc	3 2651 12 is_stmt 0             @ packages/littlefs-v2.0.5/lfs.c:2651:12
	ldr	r0, [sp, #44]
	.loc	3 2651 5                        @ packages/littlefs-v2.0.5/lfs.c:2651:5
	cmp	r0, #0
	beq.w	.LBB34_26
	b	.LBB34_10
.LBB34_10:                              @   in Loop: Header=BB34_9 Depth=1
.Ltmp595:
	.loc	3 2653 15 is_stmt 1             @ packages/littlefs-v2.0.5/lfs.c:2653:15
	ldr	r0, [sp, #60]
	.loc	3 2653 44 is_stmt 0             @ packages/littlefs-v2.0.5/lfs.c:2653:44
	ldrb.w	r0, [r0, #50]
	lsls	r0, r0, #29
	cmp	r0, #0
	bpl	.LBB34_12
	b	.LBB34_11
.LBB34_11:                              @   in Loop: Header=BB34_9 Depth=1
	.loc	3 2654 17 is_stmt 1             @ packages/littlefs-v2.0.5/lfs.c:2654:17
	ldr	r0, [sp, #60]
	.loc	3 2654 23 is_stmt 0             @ packages/littlefs-v2.0.5/lfs.c:2654:23
	ldr	r0, [r0, #60]
	.loc	3 2654 30                       @ packages/littlefs-v2.0.5/lfs.c:2654:30
	ldr	r1, [sp, #64]
	.loc	3 2654 35                       @ packages/littlefs-v2.0.5/lfs.c:2654:35
	ldr	r1, [r1, #104]
	.loc	3 2654 40                       @ packages/littlefs-v2.0.5/lfs.c:2654:40
	ldr	r1, [r1, #28]
.Ltmp596:
	.loc	3 2653 13 is_stmt 1             @ packages/littlefs-v2.0.5/lfs.c:2653:13
	cmp	r0, r1
	bne	.LBB34_18
	b	.LBB34_12
.LBB34_12:                              @   in Loop: Header=BB34_9 Depth=1
.Ltmp597:
	.loc	3 2655 19                       @ packages/littlefs-v2.0.5/lfs.c:2655:19
	ldr	r0, [sp, #60]
.Ltmp598:
	.loc	3 2655 17 is_stmt 0             @ packages/littlefs-v2.0.5/lfs.c:2655:17
	ldrb.w	r0, [r0, #50]
	lsls	r0, r0, #27
	cmp	r0, #0
	bmi	.LBB34_16
	b	.LBB34_13
.LBB34_13:                              @   in Loop: Header=BB34_9 Depth=1
.Ltmp599:
	.loc	3 2656 40 is_stmt 1             @ packages/littlefs-v2.0.5/lfs.c:2656:40
	ldr	r0, [sp, #64]
	.loc	3 2656 52 is_stmt 0             @ packages/littlefs-v2.0.5/lfs.c:2656:52
	ldr.w	r12, [sp, #60]
	.loc	3 2656 58                       @ packages/littlefs-v2.0.5/lfs.c:2656:58
	add.w	r2, r12, #64
	.loc	3 2657 35 is_stmt 1             @ packages/littlefs-v2.0.5/lfs.c:2657:35
	ldr.w	r3, [r12, #40]
	.loc	3 2657 51 is_stmt 0             @ packages/littlefs-v2.0.5/lfs.c:2657:51
	ldr.w	r1, [r12, #44]
	.loc	3 2658 31 is_stmt 1             @ packages/littlefs-v2.0.5/lfs.c:2658:31
	ldr.w	lr, [r12, #52]
	.loc	3 2658 43 is_stmt 0             @ packages/littlefs-v2.0.5/lfs.c:2658:43
	add.w	r4, r12, #56
	.loc	3 2658 57                       @ packages/littlefs-v2.0.5/lfs.c:2658:57
	add.w	r5, r12, #60
	.loc	3 2656 27 is_stmt 1             @ packages/littlefs-v2.0.5/lfs.c:2656:27
	mov	r12, sp
	str.w	r5, [r12, #12]
	str.w	r4, [r12, #8]
	str.w	lr, [r12, #4]
	str.w	r1, [r12]
	movs	r1, #0
	bl	lfs_ctz_find
	.loc	3 2656 21 is_stmt 0             @ packages/littlefs-v2.0.5/lfs.c:2656:21
	str	r0, [sp, #36]
.Ltmp600:
	.loc	3 2659 21 is_stmt 1             @ packages/littlefs-v2.0.5/lfs.c:2659:21
	ldr	r0, [sp, #36]
.Ltmp601:
	.loc	3 2659 21 is_stmt 0             @ packages/littlefs-v2.0.5/lfs.c:2659:21
	cbz	r0, .LBB34_15
	b	.LBB34_14
.LBB34_14:
.Ltmp602:
	.loc	3 2660 28 is_stmt 1             @ packages/littlefs-v2.0.5/lfs.c:2660:28
	ldr	r0, [sp, #36]
	.loc	3 2660 21 is_stmt 0             @ packages/littlefs-v2.0.5/lfs.c:2660:21
	str	r0, [sp, #68]
	b	.LBB34_27
.Ltmp603:
.LBB34_15:                              @   in Loop: Header=BB34_9 Depth=1
	.loc	3 2662 13 is_stmt 1             @ packages/littlefs-v2.0.5/lfs.c:2662:13
	b	.LBB34_17
.Ltmp604:
.LBB34_16:                              @   in Loop: Header=BB34_9 Depth=1
	.loc	3 2663 17                       @ packages/littlefs-v2.0.5/lfs.c:2663:17
	ldr	r1, [sp, #60]
	mvn	r0, #1
	.loc	3 2663 29 is_stmt 0             @ packages/littlefs-v2.0.5/lfs.c:2663:29
	str	r0, [r1, #56]
	.loc	3 2664 29 is_stmt 1             @ packages/littlefs-v2.0.5/lfs.c:2664:29
	ldr	r1, [sp, #60]
	.loc	3 2664 35 is_stmt 0             @ packages/littlefs-v2.0.5/lfs.c:2664:35
	ldr	r0, [r1, #52]
	.loc	3 2664 27                       @ packages/littlefs-v2.0.5/lfs.c:2664:27
	str	r0, [r1, #60]
	b	.LBB34_17
.Ltmp605:
.LBB34_17:                              @   in Loop: Header=BB34_9 Depth=1
	.loc	3 2667 13 is_stmt 1             @ packages/littlefs-v2.0.5/lfs.c:2667:13
	ldr	r1, [sp, #60]
	.loc	3 2667 25 is_stmt 0             @ packages/littlefs-v2.0.5/lfs.c:2667:25
	ldr	r0, [r1, #48]
	orr	r0, r0, #262144
	str	r0, [r1, #48]
	.loc	3 2668 9 is_stmt 1              @ packages/littlefs-v2.0.5/lfs.c:2668:9
	b	.LBB34_18
.Ltmp606:
.LBB34_18:                              @   in Loop: Header=BB34_9 Depth=1
	.loc	3 2671 35                       @ packages/littlefs-v2.0.5/lfs.c:2671:35
	ldr	r0, [sp, #44]
	.loc	3 2671 42 is_stmt 0             @ packages/littlefs-v2.0.5/lfs.c:2671:42
	ldr	r1, [sp, #64]
	.loc	3 2671 47                       @ packages/littlefs-v2.0.5/lfs.c:2671:47
	ldr	r1, [r1, #104]
	.loc	3 2671 52                       @ packages/littlefs-v2.0.5/lfs.c:2671:52
	ldr	r1, [r1, #28]
	.loc	3 2671 65                       @ packages/littlefs-v2.0.5/lfs.c:2671:65
	ldr	r2, [sp, #60]
	.loc	3 2671 71                       @ packages/littlefs-v2.0.5/lfs.c:2671:71
	ldr	r2, [r2, #60]
	.loc	3 2671 63                       @ packages/littlefs-v2.0.5/lfs.c:2671:63
	subs	r1, r1, r2
	.loc	3 2671 27                       @ packages/littlefs-v2.0.5/lfs.c:2671:27
	bl	lfs_min
	.loc	3 2671 20                       @ packages/littlefs-v2.0.5/lfs.c:2671:20
	str	r0, [sp, #32]
.Ltmp607:
	.loc	3 2672 13 is_stmt 1             @ packages/littlefs-v2.0.5/lfs.c:2672:13
	ldr	r0, [sp, #60]
.Ltmp608:
	.loc	3 2672 13 is_stmt 0             @ packages/littlefs-v2.0.5/lfs.c:2672:13
	ldrb.w	r0, [r0, #50]
	lsls	r0, r0, #27
	cmp	r0, #0
	bpl	.LBB34_22
	b	.LBB34_19
.LBB34_19:                              @   in Loop: Header=BB34_9 Depth=1
.Ltmp609:
	.loc	3 2673 39 is_stmt 1             @ packages/littlefs-v2.0.5/lfs.c:2673:39
	ldr	r0, [sp, #64]
	.loc	3 2673 45 is_stmt 0             @ packages/littlefs-v2.0.5/lfs.c:2673:45
	ldr.w	r12, [sp, #60]
	.loc	3 2673 51                       @ packages/littlefs-v2.0.5/lfs.c:2673:51
	add.w	r1, r12, #8
	.loc	3 2674 34 is_stmt 1             @ packages/littlefs-v2.0.5/lfs.c:2674:34
	add.w	r3, r12, #64
	.loc	3 2674 46 is_stmt 0             @ packages/littlefs-v2.0.5/lfs.c:2674:46
	ldr	r2, [r0, #104]
	.loc	3 2674 51                       @ packages/littlefs-v2.0.5/lfs.c:2674:51
	ldr	r2, [r2, #28]
	.loc	3 2676 21 is_stmt 1             @ packages/littlefs-v2.0.5/lfs.c:2676:21
	ldrh.w	r4, [r12, #4]
	movw	lr, #0
	movt	lr, #8208
	orr.w	lr, lr, r4, lsl #10
	.loc	3 2677 27                       @ packages/littlefs-v2.0.5/lfs.c:2677:27
	ldr.w	r4, [r12, #60]
	.loc	3 2677 32 is_stmt 0             @ packages/littlefs-v2.0.5/lfs.c:2677:32
	ldr	r5, [sp, #48]
	.loc	3 2677 38                       @ packages/littlefs-v2.0.5/lfs.c:2677:38
	ldr	r6, [sp, #32]
	.loc	3 2673 23 is_stmt 1             @ packages/littlefs-v2.0.5/lfs.c:2673:23
	mov	r12, sp
	str.w	r6, [r12, #20]
	str.w	r5, [r12, #16]
	str.w	r4, [r12, #12]
	str.w	lr, [r12, #8]
	movw	lr, #64512
	movt	lr, #65527
	str.w	lr, [r12, #4]
	str.w	r2, [r12]
	movs	r2, #0
	bl	lfs_dir_getread
	.loc	3 2673 17 is_stmt 0             @ packages/littlefs-v2.0.5/lfs.c:2673:17
	str	r0, [sp, #28]
.Ltmp610:
	.loc	3 2678 17 is_stmt 1             @ packages/littlefs-v2.0.5/lfs.c:2678:17
	ldr	r0, [sp, #28]
.Ltmp611:
	.loc	3 2678 17 is_stmt 0             @ packages/littlefs-v2.0.5/lfs.c:2678:17
	cbz	r0, .LBB34_21
	b	.LBB34_20
.LBB34_20:
.Ltmp612:
	.loc	3 2679 24 is_stmt 1             @ packages/littlefs-v2.0.5/lfs.c:2679:24
	ldr	r0, [sp, #28]
	.loc	3 2679 17 is_stmt 0             @ packages/littlefs-v2.0.5/lfs.c:2679:17
	str	r0, [sp, #68]
	b	.LBB34_27
.Ltmp613:
.LBB34_21:                              @   in Loop: Header=BB34_9 Depth=1
	.loc	3 2681 9 is_stmt 1              @ packages/littlefs-v2.0.5/lfs.c:2681:9
	b	.LBB34_25
.Ltmp614:
.LBB34_22:                              @   in Loop: Header=BB34_9 Depth=1
	.loc	3 2682 35                       @ packages/littlefs-v2.0.5/lfs.c:2682:35
	ldr	r0, [sp, #64]
	.loc	3 2683 28                       @ packages/littlefs-v2.0.5/lfs.c:2683:28
	ldr.w	r12, [sp, #60]
	.loc	3 2683 34 is_stmt 0             @ packages/littlefs-v2.0.5/lfs.c:2683:34
	add.w	r2, r12, #64
	.loc	3 2683 46                       @ packages/littlefs-v2.0.5/lfs.c:2683:46
	ldr	r1, [r0, #104]
	.loc	3 2683 51                       @ packages/littlefs-v2.0.5/lfs.c:2683:51
	ldr	r3, [r1, #28]
	.loc	3 2684 27 is_stmt 1             @ packages/littlefs-v2.0.5/lfs.c:2684:27
	ldr.w	r1, [r12, #56]
	.loc	3 2684 40 is_stmt 0             @ packages/littlefs-v2.0.5/lfs.c:2684:40
	ldr.w	lr, [r12, #60]
	.loc	3 2684 45                       @ packages/littlefs-v2.0.5/lfs.c:2684:45
	ldr	r4, [sp, #48]
	.loc	3 2684 51                       @ packages/littlefs-v2.0.5/lfs.c:2684:51
	ldr	r5, [sp, #32]
	.loc	3 2682 23 is_stmt 1             @ packages/littlefs-v2.0.5/lfs.c:2682:23
	mov	r12, sp
	str.w	r5, [r12, #12]
	str.w	r4, [r12, #8]
	str.w	lr, [r12, #4]
	str.w	r1, [r12]
	movs	r1, #0
	bl	lfs_bd_read
	.loc	3 2682 17 is_stmt 0             @ packages/littlefs-v2.0.5/lfs.c:2682:17
	str	r0, [sp, #24]
.Ltmp615:
	.loc	3 2685 17 is_stmt 1             @ packages/littlefs-v2.0.5/lfs.c:2685:17
	ldr	r0, [sp, #24]
.Ltmp616:
	.loc	3 2685 17 is_stmt 0             @ packages/littlefs-v2.0.5/lfs.c:2685:17
	cbz	r0, .LBB34_24
	b	.LBB34_23
.LBB34_23:
.Ltmp617:
	.loc	3 2686 24 is_stmt 1             @ packages/littlefs-v2.0.5/lfs.c:2686:24
	ldr	r0, [sp, #24]
	.loc	3 2686 17 is_stmt 0             @ packages/littlefs-v2.0.5/lfs.c:2686:17
	str	r0, [sp, #68]
	b	.LBB34_27
.Ltmp618:
.LBB34_24:                              @   in Loop: Header=BB34_9 Depth=1
	.loc	3 0 17                          @ packages/littlefs-v2.0.5/lfs.c:0:17
	b	.LBB34_25
.LBB34_25:                              @   in Loop: Header=BB34_9 Depth=1
	.loc	3 2690 22 is_stmt 1             @ packages/littlefs-v2.0.5/lfs.c:2690:22
	ldr	r2, [sp, #32]
	.loc	3 2690 9 is_stmt 0              @ packages/littlefs-v2.0.5/lfs.c:2690:9
	ldr	r1, [sp, #60]
	.loc	3 2690 19                       @ packages/littlefs-v2.0.5/lfs.c:2690:19
	ldr	r0, [r1, #52]
	add	r0, r2
	str	r0, [r1, #52]
	.loc	3 2691 22 is_stmt 1             @ packages/littlefs-v2.0.5/lfs.c:2691:22
	ldr	r2, [sp, #32]
	.loc	3 2691 9 is_stmt 0              @ packages/littlefs-v2.0.5/lfs.c:2691:9
	ldr	r1, [sp, #60]
	.loc	3 2691 19                       @ packages/littlefs-v2.0.5/lfs.c:2691:19
	ldr	r0, [r1, #60]
	add	r0, r2
	str	r0, [r1, #60]
	.loc	3 2692 17 is_stmt 1             @ packages/littlefs-v2.0.5/lfs.c:2692:17
	ldr	r1, [sp, #32]
	.loc	3 2692 14 is_stmt 0             @ packages/littlefs-v2.0.5/lfs.c:2692:14
	ldr	r0, [sp, #48]
	add	r0, r1
	str	r0, [sp, #48]
	.loc	3 2693 18 is_stmt 1             @ packages/littlefs-v2.0.5/lfs.c:2693:18
	ldr	r1, [sp, #32]
	.loc	3 2693 15 is_stmt 0             @ packages/littlefs-v2.0.5/lfs.c:2693:15
	ldr	r0, [sp, #44]
	subs	r0, r0, r1
	str	r0, [sp, #44]
.Ltmp619:
	.loc	3 2651 5 is_stmt 1              @ packages/littlefs-v2.0.5/lfs.c:2651:5
	b	.LBB34_9
.LBB34_26:
	.loc	3 2696 12                       @ packages/littlefs-v2.0.5/lfs.c:2696:12
	ldr	r0, [sp, #52]
	.loc	3 2696 5 is_stmt 0              @ packages/littlefs-v2.0.5/lfs.c:2696:5
	str	r0, [sp, #68]
	b	.LBB34_27
.LBB34_27:
	.loc	3 2697 1 is_stmt 1              @ packages/littlefs-v2.0.5/lfs.c:2697:1
	ldr	r0, [sp, #68]
	add	sp, #72
	pop	{r4, r5, r6, pc}
.Ltmp620:
.Lfunc_end34:
	.size	lfs_file_read, .Lfunc_end34-lfs_file_read
	.cfi_endproc
	.cantunwind
	.fnend
                                        @ -- End function
	.section	.text.lfs_ctz_find,"ax",%progbits
	.p2align	3                               @ -- Begin function lfs_ctz_find
	.type	lfs_ctz_find,%function
	.code	16                              @ @lfs_ctz_find
	.thumb_func
lfs_ctz_find:
.Lfunc_begin35:
	.loc	3 2070 0                        @ packages/littlefs-v2.0.5/lfs.c:2070:0
	.fnstart
	.cfi_startproc
@ %bb.0:
	.save	{r4, r5, r7, lr}
	push	{r4, r5, r7, lr}
	.cfi_def_cfa_offset 16
	.cfi_offset lr, -4
	.cfi_offset r7, -8
	.cfi_offset r5, -12
	.cfi_offset r4, -16
	.pad	#64
	sub	sp, #64
	.cfi_def_cfa_offset 80
	ldr.w	r12, [sp, #92]
	ldr.w	r12, [sp, #88]
	ldr.w	r12, [sp, #84]
	ldr.w	r12, [sp, #80]
	str	r0, [sp, #56]
	str	r1, [sp, #52]
	str	r2, [sp, #48]
	str	r3, [sp, #44]
.Ltmp621:
	.loc	3 2071 9 prologue_end           @ packages/littlefs-v2.0.5/lfs.c:2071:9
	ldr	r0, [sp, #80]
.Ltmp622:
	.loc	3 2071 9 is_stmt 0              @ packages/littlefs-v2.0.5/lfs.c:2071:9
	cbnz	r0, .LBB35_2
	b	.LBB35_1
.LBB35_1:
.Ltmp623:
	.loc	3 2072 10 is_stmt 1             @ packages/littlefs-v2.0.5/lfs.c:2072:10
	ldr	r1, [sp, #88]
	mov.w	r0, #-1
	.loc	3 2072 16 is_stmt 0             @ packages/littlefs-v2.0.5/lfs.c:2072:16
	str	r0, [r1]
	.loc	3 2073 10 is_stmt 1             @ packages/littlefs-v2.0.5/lfs.c:2073:10
	ldr	r1, [sp, #92]
	movs	r0, #0
	.loc	3 2073 14 is_stmt 0             @ packages/littlefs-v2.0.5/lfs.c:2073:14
	str	r0, [r1]
	.loc	3 2074 9 is_stmt 1              @ packages/littlefs-v2.0.5/lfs.c:2074:9
	str	r0, [sp, #60]
	b	.LBB35_11
.Ltmp624:
.LBB35_2:
	.loc	3 2077 39                       @ packages/littlefs-v2.0.5/lfs.c:2077:39
	ldr	r0, [sp, #56]
	.loc	3 2077 57 is_stmt 0             @ packages/littlefs-v2.0.5/lfs.c:2077:57
	ldr	r1, [sp, #80]
	.loc	3 2077 61                       @ packages/littlefs-v2.0.5/lfs.c:2077:61
	subs	r1, #1
	.loc	3 2077 45                       @ packages/littlefs-v2.0.5/lfs.c:2077:45
	str	r1, [sp, #36]
	add	r1, sp, #36
	.loc	3 2077 25                       @ packages/littlefs-v2.0.5/lfs.c:2077:25
	bl	lfs_ctz_index
	.loc	3 2077 15                       @ packages/littlefs-v2.0.5/lfs.c:2077:15
	str	r0, [sp, #40]
	.loc	3 2078 38 is_stmt 1             @ packages/littlefs-v2.0.5/lfs.c:2078:38
	ldr	r0, [sp, #56]
	add	r1, sp, #84
	.loc	3 2078 24 is_stmt 0             @ packages/littlefs-v2.0.5/lfs.c:2078:24
	bl	lfs_ctz_index
	.loc	3 2078 15                       @ packages/littlefs-v2.0.5/lfs.c:2078:15
	str	r0, [sp, #32]
	.loc	3 2080 5 is_stmt 1              @ packages/littlefs-v2.0.5/lfs.c:2080:5
	b	.LBB35_3
.LBB35_3:                               @ =>This Inner Loop Header: Depth=1
	.loc	3 2080 12 is_stmt 0             @ packages/littlefs-v2.0.5/lfs.c:2080:12
	ldr	r0, [sp, #40]
	.loc	3 2080 22                       @ packages/littlefs-v2.0.5/lfs.c:2080:22
	ldr	r1, [sp, #32]
	.loc	3 2080 5                        @ packages/littlefs-v2.0.5/lfs.c:2080:5
	cmp	r0, r1
	bls	.LBB35_10
	b	.LBB35_4
.LBB35_4:                               @   in Loop: Header=BB35_3 Depth=1
.Ltmp625:
	.loc	3 2082 26 is_stmt 1             @ packages/littlefs-v2.0.5/lfs.c:2082:26
	ldr	r0, [sp, #40]
	.loc	3 2082 34 is_stmt 0             @ packages/littlefs-v2.0.5/lfs.c:2082:34
	ldr	r1, [sp, #32]
	.loc	3 2082 33                       @ packages/littlefs-v2.0.5/lfs.c:2082:33
	subs	r0, r0, r1
	.loc	3 2082 40                       @ packages/littlefs-v2.0.5/lfs.c:2082:40
	adds	r0, #1
	.loc	3 2082 17                       @ packages/littlefs-v2.0.5/lfs.c:2082:17
	bl	lfs_npw2
	.loc	3 2082 44                       @ packages/littlefs-v2.0.5/lfs.c:2082:44
	subs	r0, #1
	.loc	3 2083 25 is_stmt 1             @ packages/littlefs-v2.0.5/lfs.c:2083:25
	str	r0, [sp, #20]                   @ 4-byte Spill
	ldr	r0, [sp, #40]
	.loc	3 2083 17 is_stmt 0             @ packages/littlefs-v2.0.5/lfs.c:2083:17
	bl	lfs_ctz
	mov	r1, r0
	.loc	3 2081 27 is_stmt 1             @ packages/littlefs-v2.0.5/lfs.c:2081:27
	ldr	r0, [sp, #20]                   @ 4-byte Reload
	bl	lfs_min
	.loc	3 2081 20 is_stmt 0             @ packages/littlefs-v2.0.5/lfs.c:2081:20
	str	r0, [sp, #28]
	.loc	3 2085 31 is_stmt 1             @ packages/littlefs-v2.0.5/lfs.c:2085:31
	ldr	r0, [sp, #56]
	.loc	3 2086 17                       @ packages/littlefs-v2.0.5/lfs.c:2086:17
	ldr	r1, [sp, #52]
	.loc	3 2086 25 is_stmt 0             @ packages/littlefs-v2.0.5/lfs.c:2086:25
	ldr	r2, [sp, #48]
	.loc	3 2087 17 is_stmt 1             @ packages/littlefs-v2.0.5/lfs.c:2087:17
	ldr.w	r12, [sp, #44]
	.loc	3 2087 25 is_stmt 0             @ packages/littlefs-v2.0.5/lfs.c:2087:25
	ldr	r3, [sp, #28]
	.loc	3 2087 24                       @ packages/littlefs-v2.0.5/lfs.c:2087:24
	lsls	r4, r3, #2
	.loc	3 2085 19 is_stmt 1             @ packages/littlefs-v2.0.5/lfs.c:2085:19
	mov	lr, sp
	movs	r3, #4
	str.w	r3, [lr, #12]
	add	r5, sp, #44
	str.w	r5, [lr, #8]
	str.w	r4, [lr, #4]
	str.w	r12, [lr]
	bl	lfs_bd_read
	.loc	3 2085 13 is_stmt 0             @ packages/littlefs-v2.0.5/lfs.c:2085:13
	str	r0, [sp, #24]
	.loc	3 2088 29 is_stmt 1             @ packages/littlefs-v2.0.5/lfs.c:2088:29
	ldr	r0, [sp, #44]
	.loc	3 2088 16 is_stmt 0             @ packages/littlefs-v2.0.5/lfs.c:2088:16
	bl	lfs_fromle32
	.loc	3 2088 14                       @ packages/littlefs-v2.0.5/lfs.c:2088:14
	str	r0, [sp, #44]
.Ltmp626:
	.loc	3 2089 13 is_stmt 1             @ packages/littlefs-v2.0.5/lfs.c:2089:13
	ldr	r0, [sp, #24]
.Ltmp627:
	.loc	3 2089 13 is_stmt 0             @ packages/littlefs-v2.0.5/lfs.c:2089:13
	cbz	r0, .LBB35_6
	b	.LBB35_5
.LBB35_5:
.Ltmp628:
	.loc	3 2090 20 is_stmt 1             @ packages/littlefs-v2.0.5/lfs.c:2090:20
	ldr	r0, [sp, #24]
	.loc	3 2090 13 is_stmt 0             @ packages/littlefs-v2.0.5/lfs.c:2090:13
	str	r0, [sp, #60]
	b	.LBB35_11
.Ltmp629:
.LBB35_6:                               @   in Loop: Header=BB35_3 Depth=1
	.loc	3 2093 9 is_stmt 1              @ packages/littlefs-v2.0.5/lfs.c:2093:9
	ldr	r0, [sp, #44]
	cmp	r0, #2
	blo	.LBB35_8
	b	.LBB35_7
.LBB35_7:                               @   in Loop: Header=BB35_3 Depth=1
	ldr	r0, [sp, #44]
	ldr	r1, [sp, #56]
	ldr	r1, [r1, #104]
	ldr	r1, [r1, #32]
.Ltmp630:
	.loc	3 2093 9 is_stmt 0              @ packages/littlefs-v2.0.5/lfs.c:2093:9
	cmp	r0, r1
	bls	.LBB35_9
	b	.LBB35_8
.LBB35_8:                               @   in Loop: Header=BB35_3 Depth=1
.Ltmp631:
	.loc	3 2093 9                        @ packages/littlefs-v2.0.5/lfs.c:2093:9
	movw	r0, :lower16:.L.str.18
	movt	r0, :upper16:.L.str.18
	movw	r1, :lower16:.L__FUNCTION__.lfs_ctz_find
	movt	r1, :upper16:.L__FUNCTION__.lfs_ctz_find
	movw	r2, #2093
	bl	rt_assert_handler
	b	.LBB35_9
.Ltmp632:
.LBB35_9:                               @   in Loop: Header=BB35_3 Depth=1
	.loc	3 2094 25 is_stmt 1             @ packages/littlefs-v2.0.5/lfs.c:2094:25
	ldr	r1, [sp, #28]
	movs	r0, #1
	.loc	3 2094 22 is_stmt 0             @ packages/littlefs-v2.0.5/lfs.c:2094:22
	lsl.w	r1, r0, r1
	.loc	3 2094 17                       @ packages/littlefs-v2.0.5/lfs.c:2094:17
	ldr	r0, [sp, #40]
	subs	r0, r0, r1
	str	r0, [sp, #40]
.Ltmp633:
	.loc	3 2080 5 is_stmt 1              @ packages/littlefs-v2.0.5/lfs.c:2080:5
	b	.LBB35_3
.LBB35_10:
	.loc	3 2097 14                       @ packages/littlefs-v2.0.5/lfs.c:2097:14
	ldr	r0, [sp, #44]
	.loc	3 2097 6 is_stmt 0              @ packages/littlefs-v2.0.5/lfs.c:2097:6
	ldr	r1, [sp, #88]
	.loc	3 2097 12                       @ packages/littlefs-v2.0.5/lfs.c:2097:12
	str	r0, [r1]
	.loc	3 2098 12 is_stmt 1             @ packages/littlefs-v2.0.5/lfs.c:2098:12
	ldr	r0, [sp, #84]
	.loc	3 2098 6 is_stmt 0              @ packages/littlefs-v2.0.5/lfs.c:2098:6
	ldr	r1, [sp, #92]
	.loc	3 2098 10                       @ packages/littlefs-v2.0.5/lfs.c:2098:10
	str	r0, [r1]
	movs	r0, #0
	.loc	3 2099 5 is_stmt 1              @ packages/littlefs-v2.0.5/lfs.c:2099:5
	str	r0, [sp, #60]
	b	.LBB35_11
.LBB35_11:
	.loc	3 2100 1                        @ packages/littlefs-v2.0.5/lfs.c:2100:1
	ldr	r0, [sp, #60]
	add	sp, #64
	pop	{r4, r5, r7, pc}
.Ltmp634:
.Lfunc_end35:
	.size	lfs_ctz_find, .Lfunc_end35-lfs_ctz_find
	.cfi_endproc
	.cantunwind
	.fnend
                                        @ -- End function
	.section	.text.lfs_dir_getread,"ax",%progbits
