	.text
	.syntax unified
	.eabi_attribute	67, "2.09"	@ Tag_conformance
	.cpu	cortex-m7
	.eabi_attribute	6, 13	@ Tag_CPU_arch
	.eabi_attribute	7, 77	@ Tag_CPU_arch_profile
	.eabi_attribute	8, 0	@ Tag_ARM_ISA_use
	.eabi_attribute	9, 2	@ Tag_THUMB_ISA_use
	.fpu	fpv5-d16
	.eabi_attribute	36, 1	@ Tag_FP_HP_extension
	.eabi_attribute	34, 1	@ Tag_CPU_unaligned_access
	.eabi_attribute	17, 1	@ Tag_ABI_PCS_GOT_use
	.eabi_attribute	20, 2	@ Tag_ABI_FP_denormal
	.eabi_attribute	21, 0	@ Tag_ABI_FP_exceptions
	.eabi_attribute	23, 1	@ Tag_ABI_FP_number_model
	.eabi_attribute	24, 1	@ Tag_ABI_align_needed
	.eabi_attribute	25, 1	@ Tag_ABI_align_preserved
	.eabi_attribute	28, 1	@ Tag_ABI_VFP_args
	.eabi_attribute	38, 1	@ Tag_ABI_FP_16bit_format
	.eabi_attribute	18, 2	@ Tag_ABI_PCS_wchar_t
	.eabi_attribute	26, 1	@ Tag_ABI_enum_size
	.eabi_attribute	14, 0	@ Tag_ABI_PCS_R9_use
	.file	"lv_arc.c"
	.file	1 "D:\\Keil_v5\\ARM\\ARMCLANG\\Bin\\..\\include" "stdint.h"
	.file	2 "E:\\STM32\\Learning\\STM32H750_ART_PI_RGBLCD" "lvgl/src/lv_widgets/../lv_core/../lv_draw/../lv_misc/lv_types.h"
	.file	3 "E:\\STM32\\Learning\\STM32H750_ART_PI_RGBLCD" "lvgl/src/lv_widgets/../lv_themes/../lv_core/lv_obj.h"
	.file	4 "E:\\STM32\\Learning\\STM32H750_ART_PI_RGBLCD" "lvgl/src/lv_widgets/../lv_core/../lv_font/../lv_misc/lv_ll.h"
	.file	5 "E:\\STM32\\Learning\\STM32H750_ART_PI_RGBLCD" "./lvgl/src/lv_conf.h"
	.file	6 "E:\\STM32\\Learning\\STM32H750_ART_PI_RGBLCD" "lvgl/src/lv_widgets/../lv_core/../lv_hal/../lv_misc/lv_area.h"
	.file	7 "E:\\STM32\\Learning\\STM32H750_ART_PI_RGBLCD" "lvgl/src/lv_widgets/../lv_themes/../lv_core/lv_style.h"
	.file	8 "E:\\STM32\\Learning\\STM32H750_ART_PI_RGBLCD" "lvgl/src/lv_widgets/../lv_core/../lv_hal/lv_hal_indev.h"
	.file	9 "E:\\STM32\\Learning\\STM32H750_ART_PI_RGBLCD" "lvgl/src/lv_widgets/../lv_core/../lv_draw/../lv_misc/lv_bidi.h"
	.file	10 "E:\\STM32\\Learning\\STM32H750_ART_PI_RGBLCD" "lvgl/src/lv_widgets/lv_arc.c"
	.file	11 "E:\\STM32\\Learning\\STM32H750_ART_PI_RGBLCD" "lvgl/src/lv_widgets/lv_arc.h"
	.file	12 "E:\\STM32\\Learning\\STM32H750_ART_PI_RGBLCD" "lvgl/src/lv_widgets/../lv_themes/lv_theme.h"
	.file	13 "E:\\STM32\\Learning\\STM32H750_ART_PI_RGBLCD" "lvgl/src/lv_widgets/../lv_core/../lv_core/lv_group.h"
	.section	.text.lv_arc_create,"ax",%progbits
	.hidden	lv_arc_create                   @ -- Begin function lv_arc_create
	.globl	lv_arc_create
	.p2align	3
	.type	lv_arc_create,%function
	.code	16                              @ @lv_arc_create
	.thumb_func
lv_arc_create:
.Lfunc_begin0:
	.loc	10 60 0                         @ lvgl/src/lv_widgets/lv_arc.c:60:0
	.fnstart
	.cfi_sections .debug_frame
	.cfi_startproc
@ %bb.0:
	.save	{r7, lr}
	push	{r7, lr}
	.cfi_def_cfa_offset 8
	.cfi_offset lr, -4
	.cfi_offset r7, -8
	.pad	#32
	sub	sp, #32
	.cfi_def_cfa_offset 40
	str	r0, [sp, #24]
	str	r1, [sp, #20]
.Ltmp0:
	.loc	10 65 36 prologue_end           @ lvgl/src/lv_widgets/lv_arc.c:65:36
	ldr	r0, [sp, #24]
	.loc	10 65 41 is_stmt 0              @ lvgl/src/lv_widgets/lv_arc.c:65:41
	ldr	r1, [sp, #20]
	.loc	10 65 22                        @ lvgl/src/lv_widgets/lv_arc.c:65:22
	bl	lv_obj_create
	.loc	10 65 16                        @ lvgl/src/lv_widgets/lv_arc.c:65:16
	str	r0, [sp, #16]
	.loc	10 66 5 is_stmt 1               @ lvgl/src/lv_widgets/lv_arc.c:66:5
	b	.LBB0_1
.LBB0_1:
.Ltmp1:
	.loc	10 66 5 is_stmt 0               @ lvgl/src/lv_widgets/lv_arc.c:66:5
	ldr	r0, [sp, #16]
	bl	lv_debug_check_null
.Ltmp2:
	.loc	10 66 5                         @ lvgl/src/lv_widgets/lv_arc.c:66:5
	cbnz	r0, .LBB0_4
	b	.LBB0_2
.LBB0_2:
.Ltmp3:
	.loc	10 66 5                         @ lvgl/src/lv_widgets/lv_arc.c:66:5
	ldr	r2, [sp, #16]
	movw	r0, :lower16:.L.str
	movt	r0, :upper16:.L.str
	movs	r3, #0
	bl	lv_debug_log_error
	b	.LBB0_3
.LBB0_3:                                @ =>This Inner Loop Header: Depth=1
	b	.LBB0_3
.Ltmp4:
.LBB0_4:
	.loc	10 66 5                         @ lvgl/src/lv_widgets/lv_arc.c:66:5
	b	.LBB0_5
.Ltmp5:
.LBB0_5:
	.loc	10 67 8 is_stmt 1               @ lvgl/src/lv_widgets/lv_arc.c:67:8
	ldr	r0, [sp, #16]
.Ltmp6:
	.loc	10 67 8 is_stmt 0               @ lvgl/src/lv_widgets/lv_arc.c:67:8
	cbnz	r0, .LBB0_7
	b	.LBB0_6
.LBB0_6:
	.loc	10 0 8                          @ lvgl/src/lv_widgets/lv_arc.c:0:8
	movs	r0, #0
.Ltmp7:
	.loc	10 67 21                        @ lvgl/src/lv_widgets/lv_arc.c:67:21
	str	r0, [sp, #28]
	b	.LBB0_22
.Ltmp8:
.LBB0_7:
	.loc	10 70 51 is_stmt 1              @ lvgl/src/lv_widgets/lv_arc.c:70:51
	ldr	r0, [sp, #16]
	movs	r1, #48
	.loc	10 70 26 is_stmt 0              @ lvgl/src/lv_widgets/lv_arc.c:70:26
	bl	lv_obj_allocate_ext_attr
	.loc	10 70 20                        @ lvgl/src/lv_widgets/lv_arc.c:70:20
	str	r0, [sp, #12]
	.loc	10 71 5 is_stmt 1               @ lvgl/src/lv_widgets/lv_arc.c:71:5
	b	.LBB0_8
.LBB0_8:
.Ltmp9:
	.loc	10 71 5 is_stmt 0               @ lvgl/src/lv_widgets/lv_arc.c:71:5
	ldr	r0, [sp, #12]
	bl	lv_debug_check_null
.Ltmp10:
	.loc	10 71 5                         @ lvgl/src/lv_widgets/lv_arc.c:71:5
	cbnz	r0, .LBB0_11
	b	.LBB0_9
.LBB0_9:
.Ltmp11:
	.loc	10 71 5                         @ lvgl/src/lv_widgets/lv_arc.c:71:5
	ldr	r2, [sp, #12]
	movw	r0, :lower16:.L.str
	movt	r0, :upper16:.L.str
	movs	r3, #0
	bl	lv_debug_log_error
	b	.LBB0_10
.LBB0_10:                               @ =>This Inner Loop Header: Depth=1
	b	.LBB0_10
.Ltmp12:
.LBB0_11:
	.loc	10 71 5                         @ lvgl/src/lv_widgets/lv_arc.c:71:5
	b	.LBB0_12
.Ltmp13:
.LBB0_12:
	.loc	10 72 8 is_stmt 1               @ lvgl/src/lv_widgets/lv_arc.c:72:8
	ldr	r0, [sp, #12]
.Ltmp14:
	.loc	10 72 8 is_stmt 0               @ lvgl/src/lv_widgets/lv_arc.c:72:8
	cbnz	r0, .LBB0_14
	b	.LBB0_13
.LBB0_13:
.Ltmp15:
	.loc	10 73 20 is_stmt 1              @ lvgl/src/lv_widgets/lv_arc.c:73:20
	ldr	r0, [sp, #16]
	.loc	10 73 9 is_stmt 0               @ lvgl/src/lv_widgets/lv_arc.c:73:9
	bl	lv_obj_del
	movs	r0, #0
	.loc	10 74 9 is_stmt 1               @ lvgl/src/lv_widgets/lv_arc.c:74:9
	str	r0, [sp, #28]
	b	.LBB0_22
.Ltmp16:
.LBB0_14:
	.loc	10 77 8                         @ lvgl/src/lv_widgets/lv_arc.c:77:8
	movw	r0, :lower16:ancestor_signal
	movt	r0, :upper16:ancestor_signal
	ldr	r0, [r0]
.Ltmp17:
	.loc	10 77 8 is_stmt 0               @ lvgl/src/lv_widgets/lv_arc.c:77:8
	cbnz	r0, .LBB0_16
	b	.LBB0_15
.LBB0_15:
.Ltmp18:
	.loc	10 77 72                        @ lvgl/src/lv_widgets/lv_arc.c:77:72
	ldr	r0, [sp, #16]
	.loc	10 77 51                        @ lvgl/src/lv_widgets/lv_arc.c:77:51
	bl	lv_obj_get_signal_cb
	.loc	10 77 49                        @ lvgl/src/lv_widgets/lv_arc.c:77:49
	movw	r1, :lower16:ancestor_signal
	movt	r1, :upper16:ancestor_signal
	str	r0, [r1]
	.loc	10 77 33                        @ lvgl/src/lv_widgets/lv_arc.c:77:33
	b	.LBB0_16
.Ltmp19:
.LBB0_16:
	.loc	10 78 8 is_stmt 1               @ lvgl/src/lv_widgets/lv_arc.c:78:8
	movw	r0, :lower16:ancestor_design
	movt	r0, :upper16:ancestor_design
	ldr	r0, [r0]
.Ltmp20:
	.loc	10 78 8 is_stmt 0               @ lvgl/src/lv_widgets/lv_arc.c:78:8
	cbnz	r0, .LBB0_18
	b	.LBB0_17
.LBB0_17:
.Ltmp21:
	.loc	10 78 72                        @ lvgl/src/lv_widgets/lv_arc.c:78:72
	ldr	r0, [sp, #16]
	.loc	10 78 51                        @ lvgl/src/lv_widgets/lv_arc.c:78:51
	bl	lv_obj_get_design_cb
	.loc	10 78 49                        @ lvgl/src/lv_widgets/lv_arc.c:78:49
	movw	r1, :lower16:ancestor_design
	movt	r1, :upper16:ancestor_design
	str	r0, [r1]
	.loc	10 78 33                        @ lvgl/src/lv_widgets/lv_arc.c:78:33
	b	.LBB0_18
.Ltmp22:
.LBB0_18:
	.loc	10 81 5 is_stmt 1               @ lvgl/src/lv_widgets/lv_arc.c:81:5
	ldr	r1, [sp, #12]
	movs	r0, #0
	.loc	10 81 25 is_stmt 0              @ lvgl/src/lv_widgets/lv_arc.c:81:25
	strh	r0, [r1]
	.loc	10 82 5 is_stmt 1               @ lvgl/src/lv_widgets/lv_arc.c:82:5
	ldr	r2, [sp, #12]
	movs	r1, #135
	.loc	10 82 25 is_stmt 0              @ lvgl/src/lv_widgets/lv_arc.c:82:25
	strh	r1, [r2, #6]
	.loc	10 83 5 is_stmt 1               @ lvgl/src/lv_widgets/lv_arc.c:83:5
	ldr	r3, [sp, #12]
	movs	r2, #45
	.loc	10 83 25 is_stmt 0              @ lvgl/src/lv_widgets/lv_arc.c:83:25
	strh	r2, [r3, #8]
	.loc	10 84 5 is_stmt 1               @ lvgl/src/lv_widgets/lv_arc.c:84:5
	ldr	r2, [sp, #12]
	.loc	10 84 26 is_stmt 0              @ lvgl/src/lv_widgets/lv_arc.c:84:26
	strh	r1, [r2, #2]
	.loc	10 85 5 is_stmt 1               @ lvgl/src/lv_widgets/lv_arc.c:85:5
	ldr	r2, [sp, #12]
	mov.w	r1, #270
	.loc	10 85 26 is_stmt 0              @ lvgl/src/lv_widgets/lv_arc.c:85:26
	strh	r1, [r2, #4]
	.loc	10 86 5 is_stmt 1               @ lvgl/src/lv_widgets/lv_arc.c:86:5
	ldr	r2, [sp, #12]
	.loc	10 86 15 is_stmt 0              @ lvgl/src/lv_widgets/lv_arc.c:86:15
	ldrb.w	r1, [r2, #34]
	and	r1, r1, #249
	strb.w	r1, [r2, #34]
	.loc	10 87 5 is_stmt 1               @ lvgl/src/lv_widgets/lv_arc.c:87:5
	ldr	r2, [sp, #12]
	movw	r1, #65535
	.loc	10 87 20 is_stmt 0              @ lvgl/src/lv_widgets/lv_arc.c:87:20
	strh	r1, [r2, #28]
	.loc	10 88 5 is_stmt 1               @ lvgl/src/lv_widgets/lv_arc.c:88:5
	ldr	r2, [sp, #12]
	.loc	10 88 20 is_stmt 0              @ lvgl/src/lv_widgets/lv_arc.c:88:20
	ldrb.w	r1, [r2, #34]
	orr	r1, r1, #16
	strb.w	r1, [r2, #34]
	.loc	10 89 5 is_stmt 1               @ lvgl/src/lv_widgets/lv_arc.c:89:5
	ldr	r1, [sp, #12]
	.loc	10 89 20 is_stmt 0              @ lvgl/src/lv_widgets/lv_arc.c:89:20
	strh	r0, [r1, #30]
	.loc	10 90 5 is_stmt 1               @ lvgl/src/lv_widgets/lv_arc.c:90:5
	ldr	r1, [sp, #12]
	movs	r0, #100
	.loc	10 90 20 is_stmt 0              @ lvgl/src/lv_widgets/lv_arc.c:90:20
	strh	r0, [r1, #32]
	.loc	10 91 5 is_stmt 1               @ lvgl/src/lv_widgets/lv_arc.c:91:5
	ldr	r1, [sp, #12]
	.loc	10 91 19 is_stmt 0              @ lvgl/src/lv_widgets/lv_arc.c:91:19
	ldrb.w	r0, [r1, #34]
	and	r0, r0, #254
	strb.w	r0, [r1, #34]
	.loc	10 92 5 is_stmt 1               @ lvgl/src/lv_widgets/lv_arc.c:92:5
	ldr	r1, [sp, #12]
	.loc	10 92 21 is_stmt 0              @ lvgl/src/lv_widgets/lv_arc.c:92:21
	ldrb.w	r0, [r1, #34]
	and	r0, r0, #247
	strb.w	r0, [r1, #34]
	.loc	10 93 5 is_stmt 1               @ lvgl/src/lv_widgets/lv_arc.c:93:5
	ldr	r1, [sp, #12]
	mov.w	r0, #540
	.loc	10 93 19 is_stmt 0              @ lvgl/src/lv_widgets/lv_arc.c:93:19
	strh	r0, [r1, #36]
	.loc	10 94 22 is_stmt 1              @ lvgl/src/lv_widgets/lv_arc.c:94:22
	bl	lv_tick_get
	.loc	10 94 5 is_stmt 0               @ lvgl/src/lv_widgets/lv_arc.c:94:5
	ldr	r1, [sp, #12]
	.loc	10 94 20                        @ lvgl/src/lv_widgets/lv_arc.c:94:20
	str	r0, [r1, #40]
	.loc	10 95 23 is_stmt 1              @ lvgl/src/lv_widgets/lv_arc.c:95:23
	ldr	r1, [sp, #12]
	.loc	10 95 28 is_stmt 0              @ lvgl/src/lv_widgets/lv_arc.c:95:28
	ldrh	r0, [r1, #4]
	.loc	10 95 21                        @ lvgl/src/lv_widgets/lv_arc.c:95:21
	strh	r0, [r1, #44]
	.loc	10 96 25 is_stmt 1              @ lvgl/src/lv_widgets/lv_arc.c:96:25
	ldr	r0, [sp, #12]
	.loc	10 96 30 is_stmt 0              @ lvgl/src/lv_widgets/lv_arc.c:96:30
	adds	r0, #12
	.loc	10 96 5                         @ lvgl/src/lv_widgets/lv_arc.c:96:5
	bl	lv_style_list_init
	.loc	10 97 25 is_stmt 1              @ lvgl/src/lv_widgets/lv_arc.c:97:25
	ldr	r0, [sp, #12]
	.loc	10 97 30 is_stmt 0              @ lvgl/src/lv_widgets/lv_arc.c:97:30
	adds	r0, #20
	.loc	10 97 5                         @ lvgl/src/lv_widgets/lv_arc.c:97:5
	bl	lv_style_list_init
	.loc	10 99 21 is_stmt 1              @ lvgl/src/lv_widgets/lv_arc.c:99:21
	ldr	r0, [sp, #16]
	movs	r2, #130
	.loc	10 99 5 is_stmt 0               @ lvgl/src/lv_widgets/lv_arc.c:99:5
	mov	r1, r2
	bl	lv_obj_set_size
	.loc	10 102 26 is_stmt 1             @ lvgl/src/lv_widgets/lv_arc.c:102:26
	ldr	r0, [sp, #16]
	.loc	10 102 5 is_stmt 0              @ lvgl/src/lv_widgets/lv_arc.c:102:5
	movw	r1, :lower16:lv_arc_signal
	movt	r1, :upper16:lv_arc_signal
	bl	lv_obj_set_signal_cb
	.loc	10 103 26 is_stmt 1             @ lvgl/src/lv_widgets/lv_arc.c:103:26
	ldr	r0, [sp, #16]
	.loc	10 103 5 is_stmt 0              @ lvgl/src/lv_widgets/lv_arc.c:103:5
	movw	r1, :lower16:lv_arc_design
	movt	r1, :upper16:lv_arc_design
	bl	lv_obj_set_design_cb
.Ltmp23:
	.loc	10 106 8 is_stmt 1              @ lvgl/src/lv_widgets/lv_arc.c:106:8
	ldr	r0, [sp, #20]
.Ltmp24:
	.loc	10 106 8 is_stmt 0              @ lvgl/src/lv_widgets/lv_arc.c:106:8
	cbnz	r0, .LBB0_20
	b	.LBB0_19
.LBB0_19:
.Ltmp25:
	.loc	10 107 26 is_stmt 1             @ lvgl/src/lv_widgets/lv_arc.c:107:26
	ldr	r0, [sp, #16]
	movs	r1, #1
	.loc	10 107 9 is_stmt 0              @ lvgl/src/lv_widgets/lv_arc.c:107:9
	bl	lv_obj_set_click
	.loc	10 108 28 is_stmt 1             @ lvgl/src/lv_widgets/lv_arc.c:108:28
	ldr	r0, [sp, #16]
	movs	r1, #16
	.loc	10 108 9 is_stmt 0              @ lvgl/src/lv_widgets/lv_arc.c:108:9
	bl	lv_obj_add_protect
	.loc	10 109 35 is_stmt 1             @ lvgl/src/lv_widgets/lv_arc.c:109:35
	ldr	r0, [sp, #16]
	.loc	10 109 9 is_stmt 0              @ lvgl/src/lv_widgets/lv_arc.c:109:9
	mov	r1, sp
	movs	r3, #13
	str	r3, [r1]
	mov	r1, r3
	mov	r2, r3
	bl	lv_obj_set_ext_click_area
	.loc	10 110 26 is_stmt 1             @ lvgl/src/lv_widgets/lv_arc.c:110:26
	ldr	r0, [sp, #16]
	.loc	10 110 31 is_stmt 0             @ lvgl/src/lv_widgets/lv_arc.c:110:31
	ldr	r1, [sp, #12]
	.loc	10 110 36                       @ lvgl/src/lv_widgets/lv_arc.c:110:36
	ldrsh.w	r1, [r1, #30]
	.loc	10 110 9                        @ lvgl/src/lv_widgets/lv_arc.c:110:9
	bl	lv_arc_set_value
	.loc	10 111 24 is_stmt 1             @ lvgl/src/lv_widgets/lv_arc.c:111:24
	ldr	r0, [sp, #16]
	movs	r1, #3
	.loc	10 111 9 is_stmt 0              @ lvgl/src/lv_widgets/lv_arc.c:111:9
	bl	lv_theme_apply
	.loc	10 112 5 is_stmt 1              @ lvgl/src/lv_widgets/lv_arc.c:112:5
	b	.LBB0_21
.Ltmp26:
.LBB0_20:
	.loc	10 115 55                       @ lvgl/src/lv_widgets/lv_arc.c:115:55
	ldr	r0, [sp, #20]
	.loc	10 115 35 is_stmt 0             @ lvgl/src/lv_widgets/lv_arc.c:115:35
	bl	lv_obj_get_ext_attr
	.loc	10 115 24                       @ lvgl/src/lv_widgets/lv_arc.c:115:24
	str	r0, [sp, #8]
	.loc	10 116 32 is_stmt 1             @ lvgl/src/lv_widgets/lv_arc.c:116:32
	ldr	r0, [sp, #8]
	.loc	10 116 42 is_stmt 0             @ lvgl/src/lv_widgets/lv_arc.c:116:42
	ldrh	r0, [r0, #2]
	.loc	10 116 9                        @ lvgl/src/lv_widgets/lv_arc.c:116:9
	ldr	r1, [sp, #12]
	.loc	10 116 30                       @ lvgl/src/lv_widgets/lv_arc.c:116:30
	strh	r0, [r1, #2]
	.loc	10 117 32 is_stmt 1             @ lvgl/src/lv_widgets/lv_arc.c:117:32
	ldr	r0, [sp, #8]
	.loc	10 117 42 is_stmt 0             @ lvgl/src/lv_widgets/lv_arc.c:117:42
	ldrh	r0, [r0, #4]
	.loc	10 117 9                        @ lvgl/src/lv_widgets/lv_arc.c:117:9
	ldr	r1, [sp, #12]
	.loc	10 117 30                       @ lvgl/src/lv_widgets/lv_arc.c:117:30
	strh	r0, [r1, #4]
	.loc	10 118 32 is_stmt 1             @ lvgl/src/lv_widgets/lv_arc.c:118:32
	ldr	r0, [sp, #8]
	.loc	10 118 42 is_stmt 0             @ lvgl/src/lv_widgets/lv_arc.c:118:42
	ldrh	r0, [r0, #6]
	.loc	10 118 9                        @ lvgl/src/lv_widgets/lv_arc.c:118:9
	ldr	r1, [sp, #12]
	.loc	10 118 30                       @ lvgl/src/lv_widgets/lv_arc.c:118:30
	strh	r0, [r1, #6]
	.loc	10 119 32 is_stmt 1             @ lvgl/src/lv_widgets/lv_arc.c:119:32
	ldr	r0, [sp, #8]
	.loc	10 119 42 is_stmt 0             @ lvgl/src/lv_widgets/lv_arc.c:119:42
	ldrh	r0, [r0, #8]
	.loc	10 119 9                        @ lvgl/src/lv_widgets/lv_arc.c:119:9
	ldr	r1, [sp, #12]
	.loc	10 119 30                       @ lvgl/src/lv_widgets/lv_arc.c:119:30
	strh	r0, [r1, #8]
	.loc	10 120 21 is_stmt 1             @ lvgl/src/lv_widgets/lv_arc.c:120:21
	ldr	r0, [sp, #8]
	.loc	10 120 31 is_stmt 0             @ lvgl/src/lv_widgets/lv_arc.c:120:31
	ldrb.w	r2, [r0, #34]
	.loc	10 120 9                        @ lvgl/src/lv_widgets/lv_arc.c:120:9
	ldr	r1, [sp, #12]
	.loc	10 120 19                       @ lvgl/src/lv_widgets/lv_arc.c:120:19
	ldrb.w	r0, [r1, #34]
	and	r2, r2, #6
	and	r0, r0, #249
	add	r0, r2
	strb.w	r0, [r1, #34]
	.loc	10 121 26 is_stmt 1             @ lvgl/src/lv_widgets/lv_arc.c:121:26
	ldr	r0, [sp, #8]
	.loc	10 121 36 is_stmt 0             @ lvgl/src/lv_widgets/lv_arc.c:121:36
	ldrh	r0, [r0, #28]
	.loc	10 121 9                        @ lvgl/src/lv_widgets/lv_arc.c:121:9
	ldr	r1, [sp, #12]
	.loc	10 121 24                       @ lvgl/src/lv_widgets/lv_arc.c:121:24
	strh	r0, [r1, #28]
	.loc	10 122 26 is_stmt 1             @ lvgl/src/lv_widgets/lv_arc.c:122:26
	ldr	r0, [sp, #8]
	.loc	10 122 36 is_stmt 0             @ lvgl/src/lv_widgets/lv_arc.c:122:36
	ldrh	r0, [r0, #30]
	.loc	10 122 9                        @ lvgl/src/lv_widgets/lv_arc.c:122:9
	ldr	r1, [sp, #12]
	.loc	10 122 24                       @ lvgl/src/lv_widgets/lv_arc.c:122:24
	strh	r0, [r1, #30]
	.loc	10 123 26 is_stmt 1             @ lvgl/src/lv_widgets/lv_arc.c:123:26
	ldr	r0, [sp, #8]
	.loc	10 123 36 is_stmt 0             @ lvgl/src/lv_widgets/lv_arc.c:123:36
	ldrh	r0, [r0, #32]
	.loc	10 123 9                        @ lvgl/src/lv_widgets/lv_arc.c:123:9
	ldr	r1, [sp, #12]
	.loc	10 123 24                       @ lvgl/src/lv_widgets/lv_arc.c:123:24
	strh	r0, [r1, #32]
	.loc	10 124 25 is_stmt 1             @ lvgl/src/lv_widgets/lv_arc.c:124:25
	ldr	r0, [sp, #8]
	.loc	10 124 35 is_stmt 0             @ lvgl/src/lv_widgets/lv_arc.c:124:35
	ldrb.w	r0, [r0, #34]
	and	r2, r0, #1
	.loc	10 124 9                        @ lvgl/src/lv_widgets/lv_arc.c:124:9
	ldr	r1, [sp, #12]
	.loc	10 124 23                       @ lvgl/src/lv_widgets/lv_arc.c:124:23
	ldrb.w	r0, [r1, #34]
	and	r0, r0, #254
	add	r0, r2
	strb.w	r0, [r1, #34]
	.loc	10 125 27 is_stmt 1             @ lvgl/src/lv_widgets/lv_arc.c:125:27
	ldr	r0, [sp, #8]
	.loc	10 125 37 is_stmt 0             @ lvgl/src/lv_widgets/lv_arc.c:125:37
	ldrb.w	r2, [r0, #34]
	.loc	10 125 9                        @ lvgl/src/lv_widgets/lv_arc.c:125:9
	ldr	r1, [sp, #12]
	.loc	10 125 25                       @ lvgl/src/lv_widgets/lv_arc.c:125:25
	ldrb.w	r0, [r1, #34]
	and	r2, r2, #8
	and	r0, r0, #247
	add	r0, r2
	strb.w	r0, [r1, #34]
	.loc	10 126 25 is_stmt 1             @ lvgl/src/lv_widgets/lv_arc.c:126:25
	ldr	r0, [sp, #8]
	.loc	10 126 35 is_stmt 0             @ lvgl/src/lv_widgets/lv_arc.c:126:35
	ldrh	r0, [r0, #36]
	.loc	10 126 9                        @ lvgl/src/lv_widgets/lv_arc.c:126:9
	ldr	r1, [sp, #12]
	.loc	10 126 23                       @ lvgl/src/lv_widgets/lv_arc.c:126:23
	strh	r0, [r1, #36]
	.loc	10 127 26 is_stmt 1             @ lvgl/src/lv_widgets/lv_arc.c:127:26
	ldr	r0, [sp, #8]
	.loc	10 127 36 is_stmt 0             @ lvgl/src/lv_widgets/lv_arc.c:127:36
	ldr	r0, [r0, #40]
	.loc	10 127 9                        @ lvgl/src/lv_widgets/lv_arc.c:127:9
	ldr	r1, [sp, #12]
	.loc	10 127 24                       @ lvgl/src/lv_widgets/lv_arc.c:127:24
	str	r0, [r1, #40]
	.loc	10 128 27 is_stmt 1             @ lvgl/src/lv_widgets/lv_arc.c:128:27
	ldr	r0, [sp, #8]
	.loc	10 128 37 is_stmt 0             @ lvgl/src/lv_widgets/lv_arc.c:128:37
	ldrh	r0, [r0, #44]
	.loc	10 128 9                        @ lvgl/src/lv_widgets/lv_arc.c:128:9
	ldr	r1, [sp, #12]
	.loc	10 128 25                       @ lvgl/src/lv_widgets/lv_arc.c:128:25
	strh	r0, [r1, #44]
	.loc	10 129 29 is_stmt 1             @ lvgl/src/lv_widgets/lv_arc.c:129:29
	ldr	r0, [sp, #12]
	.loc	10 129 34 is_stmt 0             @ lvgl/src/lv_widgets/lv_arc.c:129:34
	adds	r0, #20
	.loc	10 129 47                       @ lvgl/src/lv_widgets/lv_arc.c:129:47
	ldr	r1, [sp, #8]
	.loc	10 129 57                       @ lvgl/src/lv_widgets/lv_arc.c:129:57
	adds	r1, #20
	.loc	10 129 9                        @ lvgl/src/lv_widgets/lv_arc.c:129:9
	bl	lv_style_list_copy
	.loc	10 130 29 is_stmt 1             @ lvgl/src/lv_widgets/lv_arc.c:130:29
	ldr	r0, [sp, #12]
	.loc	10 130 34 is_stmt 0             @ lvgl/src/lv_widgets/lv_arc.c:130:34
	adds	r0, #12
	.loc	10 130 46                       @ lvgl/src/lv_widgets/lv_arc.c:130:46
	ldr	r1, [sp, #8]
	.loc	10 130 56                       @ lvgl/src/lv_widgets/lv_arc.c:130:56
	adds	r1, #12
	.loc	10 130 9                        @ lvgl/src/lv_widgets/lv_arc.c:130:9
	bl	lv_style_list_copy
	.loc	10 133 30 is_stmt 1             @ lvgl/src/lv_widgets/lv_arc.c:133:30
	ldr	r0, [sp, #16]
	movs	r2, #255
	.loc	10 133 9 is_stmt 0              @ lvgl/src/lv_widgets/lv_arc.c:133:9
	mov	r1, r2
	bl	lv_obj_refresh_style
	b	.LBB0_21
.Ltmp27:
.LBB0_21:
	.loc	10 138 12 is_stmt 1             @ lvgl/src/lv_widgets/lv_arc.c:138:12
	ldr	r0, [sp, #16]
	.loc	10 138 5 is_stmt 0              @ lvgl/src/lv_widgets/lv_arc.c:138:5
	str	r0, [sp, #28]
	b	.LBB0_22
.LBB0_22:
	.loc	10 139 1 is_stmt 1              @ lvgl/src/lv_widgets/lv_arc.c:139:1
	ldr	r0, [sp, #28]
	add	sp, #32
	pop	{r7, pc}
.Ltmp28:
.Lfunc_end0:
	.size	lv_arc_create, .Lfunc_end0-lv_arc_create
	.cfi_endproc
	.cantunwind
	.fnend
                                        @ -- End function
	.section	.text.lv_arc_signal,"ax",%progbits
	.p2align	3                               @ -- Begin function lv_arc_signal
	.type	lv_arc_signal,%function
	.code	16                              @ @lv_arc_signal
	.thumb_func
lv_arc_signal:
.Lfunc_begin1:
	.loc	10 704 0                        @ lvgl/src/lv_widgets/lv_arc.c:704:0
	.fnstart
	.cfi_startproc
@ %bb.0:
	.save	{r7, lr}
	push	{r7, lr}
	.cfi_def_cfa_offset 8
	.cfi_offset lr, -4
	.cfi_offset r7, -8
	.pad	#112
	sub	sp, #112
	.cfi_def_cfa_offset 120
                                        @ kill: def $r3 killed $r1
	str	r0, [sp, #104]
	strb.w	r1, [sp, #103]
	str	r2, [sp, #96]
.Ltmp29:
	.loc	10 706 8 prologue_end           @ lvgl/src/lv_widgets/lv_arc.c:706:8
	ldrb.w	r0, [sp, #103]
.Ltmp30:
	.loc	10 706 8 is_stmt 0              @ lvgl/src/lv_widgets/lv_arc.c:706:8
	cmp	r0, #8
	bne	.LBB1_4
	b	.LBB1_1
.LBB1_1:
.Ltmp31:
	.loc	10 707 38 is_stmt 1             @ lvgl/src/lv_widgets/lv_arc.c:707:38
	ldr	r0, [sp, #96]
	.loc	10 707 31 is_stmt 0             @ lvgl/src/lv_widgets/lv_arc.c:707:31
	str	r0, [sp, #88]
	.loc	10 708 41 is_stmt 1             @ lvgl/src/lv_widgets/lv_arc.c:708:41
	ldr	r0, [sp, #104]
	.loc	10 708 46 is_stmt 0             @ lvgl/src/lv_widgets/lv_arc.c:708:46
	ldr	r1, [sp, #88]
	.loc	10 708 52                       @ lvgl/src/lv_widgets/lv_arc.c:708:52
	ldrb	r1, [r1]
	.loc	10 708 24                       @ lvgl/src/lv_widgets/lv_arc.c:708:24
	bl	lv_arc_get_style
	.loc	10 708 9                        @ lvgl/src/lv_widgets/lv_arc.c:708:9
	ldr	r1, [sp, #88]
	.loc	10 708 22                       @ lvgl/src/lv_widgets/lv_arc.c:708:22
	str	r0, [r1, #4]
.Ltmp32:
	.loc	10 709 12 is_stmt 1             @ lvgl/src/lv_widgets/lv_arc.c:709:12
	ldr	r0, [sp, #88]
	.loc	10 709 18 is_stmt 0             @ lvgl/src/lv_widgets/lv_arc.c:709:18
	ldr	r0, [r0, #4]
.Ltmp33:
	.loc	10 709 12                       @ lvgl/src/lv_widgets/lv_arc.c:709:12
	cbz	r0, .LBB1_3
	b	.LBB1_2
.LBB1_2:
	.loc	10 0 12                         @ lvgl/src/lv_widgets/lv_arc.c:0:12
	movs	r0, #1
.Ltmp34:
	.loc	10 709 34                       @ lvgl/src/lv_widgets/lv_arc.c:709:34
	strb.w	r0, [sp, #111]
	b	.LBB1_86
.LBB1_3:
	.loc	10 710 21 is_stmt 1             @ lvgl/src/lv_widgets/lv_arc.c:710:21
	movw	r0, :lower16:ancestor_signal
	movt	r0, :upper16:ancestor_signal
	ldr	r3, [r0]
	.loc	10 710 37 is_stmt 0             @ lvgl/src/lv_widgets/lv_arc.c:710:37
	ldr	r0, [sp, #104]
	.loc	10 710 42                       @ lvgl/src/lv_widgets/lv_arc.c:710:42
	ldrb.w	r1, [sp, #103]
	.loc	10 710 48                       @ lvgl/src/lv_widgets/lv_arc.c:710:48
	ldr	r2, [sp, #96]
	.loc	10 710 21                       @ lvgl/src/lv_widgets/lv_arc.c:710:21
	blx	r3
	.loc	10 710 14                       @ lvgl/src/lv_widgets/lv_arc.c:710:14
	strb.w	r0, [sp, #111]
	b	.LBB1_86
.Ltmp35:
.LBB1_4:
	.loc	10 714 11 is_stmt 1             @ lvgl/src/lv_widgets/lv_arc.c:714:11
	movw	r0, :lower16:ancestor_signal
	movt	r0, :upper16:ancestor_signal
	ldr	r3, [r0]
	.loc	10 714 27 is_stmt 0             @ lvgl/src/lv_widgets/lv_arc.c:714:27
	ldr	r0, [sp, #104]
	.loc	10 714 32                       @ lvgl/src/lv_widgets/lv_arc.c:714:32
	ldrb.w	r1, [sp, #103]
	.loc	10 714 38                       @ lvgl/src/lv_widgets/lv_arc.c:714:38
	ldr	r2, [sp, #96]
	.loc	10 714 11                       @ lvgl/src/lv_widgets/lv_arc.c:714:11
	blx	r3
	.loc	10 714 9                        @ lvgl/src/lv_widgets/lv_arc.c:714:9
	strb.w	r0, [sp, #95]
.Ltmp36:
	.loc	10 715 8 is_stmt 1              @ lvgl/src/lv_widgets/lv_arc.c:715:8
	ldrb.w	r0, [sp, #95]
.Ltmp37:
	.loc	10 715 8 is_stmt 0              @ lvgl/src/lv_widgets/lv_arc.c:715:8
	cmp	r0, #1
	beq	.LBB1_6
	b	.LBB1_5
.LBB1_5:
.Ltmp38:
	.loc	10 715 33                       @ lvgl/src/lv_widgets/lv_arc.c:715:33
	ldrb.w	r0, [sp, #95]
	.loc	10 715 26                       @ lvgl/src/lv_widgets/lv_arc.c:715:26
	strb.w	r0, [sp, #111]
	b	.LBB1_86
.Ltmp39:
.LBB1_6:
	.loc	10 717 8 is_stmt 1              @ lvgl/src/lv_widgets/lv_arc.c:717:8
	ldrb.w	r0, [sp, #103]
.Ltmp40:
	.loc	10 717 8 is_stmt 0              @ lvgl/src/lv_widgets/lv_arc.c:717:8
	cmp	r0, #7
	bne	.LBB1_8
	b	.LBB1_7
.LBB1_7:
.Ltmp41:
	.loc	10 717 73                       @ lvgl/src/lv_widgets/lv_arc.c:717:73
	ldr	r0, [sp, #96]
	.loc	10 717 43                       @ lvgl/src/lv_widgets/lv_arc.c:717:43
	movw	r1, :lower16:.L.str.2
	movt	r1, :upper16:.L.str.2
	bl	lv_obj_handle_get_type_signal
	.loc	10 717 36                       @ lvgl/src/lv_widgets/lv_arc.c:717:36
	strb.w	r0, [sp, #111]
	b	.LBB1_86
.Ltmp42:
.LBB1_8:
	.loc	10 719 46 is_stmt 1             @ lvgl/src/lv_widgets/lv_arc.c:719:46
	ldr	r0, [sp, #104]
	.loc	10 719 26 is_stmt 0             @ lvgl/src/lv_widgets/lv_arc.c:719:26
	bl	lv_obj_get_ext_attr
	.loc	10 719 20                       @ lvgl/src/lv_widgets/lv_arc.c:719:20
	str	r0, [sp, #84]
.Ltmp43:
	.loc	10 721 8 is_stmt 1              @ lvgl/src/lv_widgets/lv_arc.c:721:8
	ldrb.w	r0, [sp, #103]
.Ltmp44:
	.loc	10 721 8 is_stmt 0              @ lvgl/src/lv_widgets/lv_arc.c:721:8
	cmp	r0, #12
	bne.w	.LBB1_55
	b	.LBB1_9
.LBB1_9:
.Ltmp45:
	.loc	10 723 13 is_stmt 1             @ lvgl/src/lv_widgets/lv_arc.c:723:13
	ldr	r0, [sp, #84]
	.loc	10 723 18 is_stmt 0             @ lvgl/src/lv_widgets/lv_arc.c:723:18
	ldrb.w	r0, [r0, #34]
	lsrs	r0, r0, #3
.Ltmp46:
	.loc	10 723 12                       @ lvgl/src/lv_widgets/lv_arc.c:723:12
	lsls	r0, r0, #31
	cbnz	r0, .LBB1_11
	b	.LBB1_10
.LBB1_10:
.Ltmp47:
	.loc	10 723 37                       @ lvgl/src/lv_widgets/lv_arc.c:723:37
	ldrb.w	r0, [sp, #95]
	.loc	10 723 30                       @ lvgl/src/lv_widgets/lv_arc.c:723:30
	strb.w	r0, [sp, #111]
	b	.LBB1_86
.Ltmp48:
.LBB1_11:
	.loc	10 725 30 is_stmt 1             @ lvgl/src/lv_widgets/lv_arc.c:725:30
	bl	lv_indev_get_act
	.loc	10 725 22 is_stmt 0             @ lvgl/src/lv_widgets/lv_arc.c:725:22
	str	r0, [sp, #80]
.Ltmp49:
	.loc	10 726 12 is_stmt 1             @ lvgl/src/lv_widgets/lv_arc.c:726:12
	ldr	r0, [sp, #80]
.Ltmp50:
	.loc	10 726 12 is_stmt 0             @ lvgl/src/lv_widgets/lv_arc.c:726:12
	cbnz	r0, .LBB1_13
	b	.LBB1_12
.LBB1_12:
.Ltmp51:
	.loc	10 726 34                       @ lvgl/src/lv_widgets/lv_arc.c:726:34
	ldrb.w	r0, [sp, #95]
	.loc	10 726 27                       @ lvgl/src/lv_widgets/lv_arc.c:726:27
	strb.w	r0, [sp, #111]
	b	.LBB1_86
.Ltmp52:
.LBB1_13:
	.loc	10 729 56 is_stmt 1             @ lvgl/src/lv_widgets/lv_arc.c:729:56
	ldr	r0, [sp, #80]
	.loc	10 729 38 is_stmt 0             @ lvgl/src/lv_widgets/lv_arc.c:729:38
	bl	lv_indev_get_type
	.loc	10 729 25                       @ lvgl/src/lv_widgets/lv_arc.c:729:25
	strb.w	r0, [sp, #79]
.Ltmp53:
	.loc	10 730 12 is_stmt 1             @ lvgl/src/lv_widgets/lv_arc.c:730:12
	ldrb.w	r0, [sp, #79]
.Ltmp54:
	.loc	10 730 12 is_stmt 0             @ lvgl/src/lv_widgets/lv_arc.c:730:12
	cmp	r0, #1
	beq	.LBB1_15
	b	.LBB1_14
.LBB1_14:
.Ltmp55:
	.loc	10 730 56                       @ lvgl/src/lv_widgets/lv_arc.c:730:56
	ldrb.w	r0, [sp, #95]
	.loc	10 730 49                       @ lvgl/src/lv_widgets/lv_arc.c:730:49
	strb.w	r0, [sp, #111]
	b	.LBB1_86
.Ltmp56:
.LBB1_15:
	.loc	10 733 28 is_stmt 1             @ lvgl/src/lv_widgets/lv_arc.c:733:28
	ldr	r0, [sp, #80]
	add	r1, sp, #72
	.loc	10 733 9 is_stmt 0              @ lvgl/src/lv_widgets/lv_arc.c:733:9
	bl	lv_indev_get_point
	.loc	10 738 20 is_stmt 1             @ lvgl/src/lv_widgets/lv_arc.c:738:20
	ldr	r0, [sp, #104]
	add	r1, sp, #68
	add.w	r2, sp, #66
	.loc	10 738 9 is_stmt 0              @ lvgl/src/lv_widgets/lv_arc.c:738:9
	bl	get_center
	.loc	10 740 17 is_stmt 1             @ lvgl/src/lv_widgets/lv_arc.c:740:17
	ldrh.w	r1, [sp, #68]
	.loc	10 740 13 is_stmt 0             @ lvgl/src/lv_widgets/lv_arc.c:740:13
	ldrh.w	r0, [sp, #72]
	subs	r0, r0, r1
	strh.w	r0, [sp, #72]
	.loc	10 741 17 is_stmt 1             @ lvgl/src/lv_widgets/lv_arc.c:741:17
	ldrh.w	r1, [sp, #70]
	.loc	10 741 13 is_stmt 0             @ lvgl/src/lv_widgets/lv_arc.c:741:13
	ldrh.w	r0, [sp, #74]
	subs	r0, r0, r1
	strh.w	r0, [sp, #74]
.Ltmp57:
	.loc	10 744 12 is_stmt 1             @ lvgl/src/lv_widgets/lv_arc.c:744:12
	ldr	r0, [sp, #84]
	.loc	10 744 17 is_stmt 0             @ lvgl/src/lv_widgets/lv_arc.c:744:17
	ldrb.w	r0, [r0, #34]
.Ltmp58:
	.loc	10 744 12                       @ lvgl/src/lv_widgets/lv_arc.c:744:12
	lsls	r0, r0, #31
	cbnz	r0, .LBB1_19
	b	.LBB1_16
.LBB1_16:
.Ltmp59:
	.loc	10 745 66 is_stmt 1             @ lvgl/src/lv_widgets/lv_arc.c:745:66
	ldr	r0, [sp, #104]
	movs	r1, #1
	.loc	10 745 38 is_stmt 0             @ lvgl/src/lv_widgets/lv_arc.c:745:38
	bl	lv_obj_get_style_line_width
	.loc	10 745 24                       @ lvgl/src/lv_widgets/lv_arc.c:745:24
	strh.w	r0, [sp, #64]
	.loc	10 746 19 is_stmt 1             @ lvgl/src/lv_widgets/lv_arc.c:746:19
	ldrh.w	r1, [sp, #64]
	.loc	10 746 15 is_stmt 0             @ lvgl/src/lv_widgets/lv_arc.c:746:15
	ldrh.w	r0, [sp, #66]
	subs	r0, r0, r1
	strh.w	r0, [sp, #66]
	.loc	10 747 18 is_stmt 1             @ lvgl/src/lv_widgets/lv_arc.c:747:18
	ldrsh.w	r0, [sp, #66]
	.loc	10 747 20 is_stmt 0             @ lvgl/src/lv_widgets/lv_arc.c:747:20
	add.w	r1, r0, r0, lsr #31
	.loc	10 747 15                       @ lvgl/src/lv_widgets/lv_arc.c:747:15
	sub.w	r0, r0, r1, lsr #1
	strh.w	r0, [sp, #66]
.Ltmp60:
	.loc	10 748 18 is_stmt 1             @ lvgl/src/lv_widgets/lv_arc.c:748:18
	ldrsh.w	r1, [sp, #72]
	.loc	10 748 30 is_stmt 0             @ lvgl/src/lv_widgets/lv_arc.c:748:30
	ldrsh.w	r0, [sp, #74]
	.loc	10 748 20                       @ lvgl/src/lv_widgets/lv_arc.c:748:20
	muls	r1, r1, r1
	.loc	10 748 26                       @ lvgl/src/lv_widgets/lv_arc.c:748:26
	smlabb	r0, r0, r0, r1
	.loc	10 748 40                       @ lvgl/src/lv_widgets/lv_arc.c:748:40
	ldrsh.w	r1, [sp, #66]
	.loc	10 748 42                       @ lvgl/src/lv_widgets/lv_arc.c:748:42
	muls	r1, r1, r1
.Ltmp61:
	.loc	10 748 16                       @ lvgl/src/lv_widgets/lv_arc.c:748:16
	cmp	r0, r1
	ble	.LBB1_18
	b	.LBB1_17
.LBB1_17:
.Ltmp62:
	.loc	10 749 17 is_stmt 1             @ lvgl/src/lv_widgets/lv_arc.c:749:17
	ldr	r1, [sp, #84]
	.loc	10 749 31 is_stmt 0             @ lvgl/src/lv_widgets/lv_arc.c:749:31
	ldrb.w	r0, [r1, #34]
	orr	r0, r0, #1
	strb.w	r0, [r1, #34]
	.loc	10 750 34 is_stmt 1             @ lvgl/src/lv_widgets/lv_arc.c:750:34
	bl	lv_tick_get
	.loc	10 750 17 is_stmt 0             @ lvgl/src/lv_widgets/lv_arc.c:750:17
	ldr	r1, [sp, #84]
	.loc	10 750 32                       @ lvgl/src/lv_widgets/lv_arc.c:750:32
	str	r0, [r1, #40]
	.loc	10 751 13 is_stmt 1             @ lvgl/src/lv_widgets/lv_arc.c:751:13
	b	.LBB1_18
.Ltmp63:
.LBB1_18:
	.loc	10 752 9                        @ lvgl/src/lv_widgets/lv_arc.c:752:9
	b	.LBB1_19
.Ltmp64:
.LBB1_19:
	.loc	10 755 12                       @ lvgl/src/lv_widgets/lv_arc.c:755:12
	ldr	r0, [sp, #84]
	.loc	10 755 17 is_stmt 0             @ lvgl/src/lv_widgets/lv_arc.c:755:17
	ldrb.w	r0, [r0, #34]
.Ltmp65:
	.loc	10 755 12                       @ lvgl/src/lv_widgets/lv_arc.c:755:12
	lsls	r0, r0, #31
	cbnz	r0, .LBB1_21
	b	.LBB1_20
.LBB1_20:
.Ltmp66:
	.loc	10 755 43                       @ lvgl/src/lv_widgets/lv_arc.c:755:43
	ldrb.w	r0, [sp, #95]
	.loc	10 755 36                       @ lvgl/src/lv_widgets/lv_arc.c:755:36
	strb.w	r0, [sp, #111]
	b	.LBB1_86
.Ltmp67:
.LBB1_21:
	.loc	10 758 14 is_stmt 1             @ lvgl/src/lv_widgets/lv_arc.c:758:14
	ldrsh.w	r0, [sp, #72]
	.loc	10 758 21 is_stmt 0             @ lvgl/src/lv_widgets/lv_arc.c:758:21
	cbnz	r0, .LBB1_24
	b	.LBB1_22
.LBB1_22:
	.loc	10 758 26                       @ lvgl/src/lv_widgets/lv_arc.c:758:26
	ldrsh.w	r0, [sp, #74]
.Ltmp68:
	.loc	10 758 12                       @ lvgl/src/lv_widgets/lv_arc.c:758:12
	cbnz	r0, .LBB1_24
	b	.LBB1_23
.LBB1_23:
.Ltmp69:
	.loc	10 758 41                       @ lvgl/src/lv_widgets/lv_arc.c:758:41
	ldrb.w	r0, [sp, #95]
	.loc	10 758 34                       @ lvgl/src/lv_widgets/lv_arc.c:758:34
	strb.w	r0, [sp, #111]
	b	.LBB1_86
.Ltmp70:
.LBB1_24:
	.loc	10 762 26 is_stmt 1             @ lvgl/src/lv_widgets/lv_arc.c:762:26
	ldr	r0, [sp, #84]
	.loc	10 762 31 is_stmt 0             @ lvgl/src/lv_widgets/lv_arc.c:762:31
	ldrh	r0, [r0, #8]
	.loc	10 762 17                       @ lvgl/src/lv_widgets/lv_arc.c:762:17
	strh.w	r0, [sp, #60]
.Ltmp71:
	.loc	10 763 12 is_stmt 1             @ lvgl/src/lv_widgets/lv_arc.c:763:12
	ldr	r1, [sp, #84]
	.loc	10 763 17 is_stmt 0             @ lvgl/src/lv_widgets/lv_arc.c:763:17
	ldrh	r0, [r1, #8]
	.loc	10 763 37                       @ lvgl/src/lv_widgets/lv_arc.c:763:37
	ldrh	r1, [r1, #6]
.Ltmp72:
	.loc	10 763 12                       @ lvgl/src/lv_widgets/lv_arc.c:763:12
	cmp	r0, r1
	bge	.LBB1_26
	b	.LBB1_25
.LBB1_25:
.Ltmp73:
	.loc	10 764 22 is_stmt 1             @ lvgl/src/lv_widgets/lv_arc.c:764:22
	ldr	r0, [sp, #84]
	ldrh	r0, [r0, #8]
	.loc	10 764 40 is_stmt 0             @ lvgl/src/lv_widgets/lv_arc.c:764:40
	add.w	r0, r0, #360
	.loc	10 764 20                       @ lvgl/src/lv_widgets/lv_arc.c:764:20
	strh.w	r0, [sp, #60]
	.loc	10 765 9 is_stmt 1              @ lvgl/src/lv_widgets/lv_arc.c:765:9
	b	.LBB1_26
.Ltmp74:
.LBB1_26:
	.loc	10 767 34                       @ lvgl/src/lv_widgets/lv_arc.c:767:34
	ldrsh.w	r1, [sp, #72]
	.loc	10 767 29 is_stmt 0             @ lvgl/src/lv_widgets/lv_arc.c:767:29
	ldrsh.w	r0, [sp, #74]
	.loc	10 767 17                       @ lvgl/src/lv_widgets/lv_arc.c:767:17
	bl	_lv_atan2
	.loc	10 767 15                       @ lvgl/src/lv_widgets/lv_arc.c:767:15
	strh.w	r0, [sp, #62]
	.loc	10 768 18 is_stmt 1             @ lvgl/src/lv_widgets/lv_arc.c:768:18
	ldr	r0, [sp, #84]
	ldrh	r1, [r0]
	.loc	10 768 15 is_stmt 0             @ lvgl/src/lv_widgets/lv_arc.c:768:15
	ldrh.w	r0, [sp, #62]
	subs	r0, r0, r1
	strh.w	r0, [sp, #62]
	.loc	10 769 18 is_stmt 1             @ lvgl/src/lv_widgets/lv_arc.c:769:18
	ldr	r0, [sp, #84]
	ldrh	r1, [r0, #6]
	.loc	10 769 15 is_stmt 0             @ lvgl/src/lv_widgets/lv_arc.c:769:15
	ldrh.w	r0, [sp, #62]
	subs	r0, r0, r1
	strh.w	r0, [sp, #62]
.Ltmp75:
	.loc	10 770 12 is_stmt 1             @ lvgl/src/lv_widgets/lv_arc.c:770:12
	ldrsh.w	r0, [sp, #62]
.Ltmp76:
	.loc	10 770 12 is_stmt 0             @ lvgl/src/lv_widgets/lv_arc.c:770:12
	cmp.w	r0, #-1
	bgt	.LBB1_28
	b	.LBB1_27
.LBB1_27:
.Ltmp77:
	.loc	10 770 29                       @ lvgl/src/lv_widgets/lv_arc.c:770:29
	ldrh.w	r0, [sp, #62]
	add.w	r0, r0, #360
	strh.w	r0, [sp, #62]
	.loc	10 770 23                       @ lvgl/src/lv_widgets/lv_arc.c:770:23
	b	.LBB1_28
.Ltmp78:
.LBB1_28:
	.loc	10 772 29 is_stmt 1             @ lvgl/src/lv_widgets/lv_arc.c:772:29
	ldrh.w	r0, [sp, #60]
	.loc	10 772 38 is_stmt 0             @ lvgl/src/lv_widgets/lv_arc.c:772:38
	ldr	r1, [sp, #84]
	ldrh	r1, [r1, #6]
	.loc	10 772 36                       @ lvgl/src/lv_widgets/lv_arc.c:772:36
	subs	r0, r0, r1
	.loc	10 772 17                       @ lvgl/src/lv_widgets/lv_arc.c:772:17
	strh.w	r0, [sp, #58]
	.loc	10 774 34 is_stmt 1             @ lvgl/src/lv_widgets/lv_arc.c:774:34
	ldr	r1, [sp, #84]
	ldrh	r0, [r1, #44]
	.loc	10 774 52 is_stmt 0             @ lvgl/src/lv_widgets/lv_arc.c:774:52
	ldrh	r1, [r1, #6]
	.loc	10 774 50                       @ lvgl/src/lv_widgets/lv_arc.c:774:50
	subs	r0, r0, r1
	.loc	10 774 17                       @ lvgl/src/lv_widgets/lv_arc.c:774:17
	strh.w	r0, [sp, #56]
	.loc	10 775 31 is_stmt 1             @ lvgl/src/lv_widgets/lv_arc.c:775:31
	ldrh.w	r0, [sp, #62]
	.loc	10 775 39 is_stmt 0             @ lvgl/src/lv_widgets/lv_arc.c:775:39
	ldrh.w	r1, [sp, #56]
	.loc	10 775 37                       @ lvgl/src/lv_widgets/lv_arc.c:775:37
	subs	r0, r0, r1
	.loc	10 775 17                       @ lvgl/src/lv_widgets/lv_arc.c:775:17
	strh.w	r0, [sp, #54]
.Ltmp79:
	.loc	10 780 12 is_stmt 1             @ lvgl/src/lv_widgets/lv_arc.c:780:12
	ldrsh.w	r0, [sp, #54]
	cmp	r0, #1
	blt	.LBB1_30
	b	.LBB1_29
.LBB1_29:
	ldrsh.w	r0, [sp, #54]
	str	r0, [sp, #16]                   @ 4-byte Spill
	b	.LBB1_31
.LBB1_30:
	ldrsh.w	r0, [sp, #54]
	rsbs	r0, r0, #0
	str	r0, [sp, #16]                   @ 4-byte Spill
	b	.LBB1_31
.LBB1_31:
	ldr	r0, [sp, #16]                   @ 4-byte Reload
.Ltmp80:
	.loc	10 780 12 is_stmt 0             @ lvgl/src/lv_widgets/lv_arc.c:780:12
	cmp	r0, #181
	blt	.LBB1_36
	b	.LBB1_32
.LBB1_32:
.Ltmp81:
	.loc	10 781 16 is_stmt 1             @ lvgl/src/lv_widgets/lv_arc.c:781:16
	ldr	r0, [sp, #84]
	.loc	10 781 21 is_stmt 0             @ lvgl/src/lv_widgets/lv_arc.c:781:21
	ldrb.w	r0, [r0, #34]
	lsrs	r0, r0, #4
.Ltmp82:
	.loc	10 781 16                       @ lvgl/src/lv_widgets/lv_arc.c:781:16
	lsls	r0, r0, #31
	cbz	r0, .LBB1_34
	b	.LBB1_33
.LBB1_33:
	.loc	10 0 16                         @ lvgl/src/lv_widgets/lv_arc.c:0:16
	movs	r0, #0
.Ltmp83:
	.loc	10 781 38                       @ lvgl/src/lv_widgets/lv_arc.c:781:38
	strh.w	r0, [sp, #62]
	.loc	10 781 32                       @ lvgl/src/lv_widgets/lv_arc.c:781:32
	b	.LBB1_35
.LBB1_34:
	.loc	10 782 26 is_stmt 1             @ lvgl/src/lv_widgets/lv_arc.c:782:26
	ldrh.w	r0, [sp, #58]
	.loc	10 782 24 is_stmt 0             @ lvgl/src/lv_widgets/lv_arc.c:782:24
	strh.w	r0, [sp, #62]
	b	.LBB1_35
.Ltmp84:
.LBB1_35:
	.loc	10 783 9 is_stmt 1              @ lvgl/src/lv_widgets/lv_arc.c:783:9
	b	.LBB1_40
.Ltmp85:
.LBB1_36:
	.loc	10 785 16                       @ lvgl/src/lv_widgets/lv_arc.c:785:16
	ldrsh.w	r0, [sp, #62]
	.loc	10 785 24 is_stmt 0             @ lvgl/src/lv_widgets/lv_arc.c:785:24
	ldrsh.w	r1, [sp, #58]
	.loc	10 785 34                       @ lvgl/src/lv_widgets/lv_arc.c:785:34
	add.w	r1, r1, r1, lsr #31
.Ltmp86:
	.loc	10 785 16                       @ lvgl/src/lv_widgets/lv_arc.c:785:16
	cmp.w	r0, r1, asr #1
	bge	.LBB1_38
	b	.LBB1_37
.LBB1_37:
.Ltmp87:
	.loc	10 785 39                       @ lvgl/src/lv_widgets/lv_arc.c:785:39
	ldr	r1, [sp, #84]
	.loc	10 785 54                       @ lvgl/src/lv_widgets/lv_arc.c:785:54
	ldrb.w	r0, [r1, #34]
	orr	r0, r0, #16
	strb.w	r0, [r1, #34]
	.loc	10 785 39                       @ lvgl/src/lv_widgets/lv_arc.c:785:39
	b	.LBB1_39
.LBB1_38:
	.loc	10 786 18 is_stmt 1             @ lvgl/src/lv_widgets/lv_arc.c:786:18
	ldr	r1, [sp, #84]
	.loc	10 786 33 is_stmt 0             @ lvgl/src/lv_widgets/lv_arc.c:786:33
	ldrb.w	r0, [r1, #34]
	and	r0, r0, #239
	strb.w	r0, [r1, #34]
	b	.LBB1_39
.Ltmp88:
.LBB1_39:
	.loc	10 0 33                         @ lvgl/src/lv_widgets/lv_arc.c:0:33
	b	.LBB1_40
.LBB1_40:
	.loc	10 790 23 is_stmt 1             @ lvgl/src/lv_widgets/lv_arc.c:790:23
	ldrh.w	r0, [sp, #62]
	.loc	10 790 31 is_stmt 0             @ lvgl/src/lv_widgets/lv_arc.c:790:31
	ldrh.w	r1, [sp, #56]
	.loc	10 790 29                       @ lvgl/src/lv_widgets/lv_arc.c:790:29
	subs	r0, r0, r1
	.loc	10 790 21                       @ lvgl/src/lv_widgets/lv_arc.c:790:21
	strh.w	r0, [sp, #54]
	.loc	10 791 45 is_stmt 1             @ lvgl/src/lv_widgets/lv_arc.c:791:45
	ldr	r0, [sp, #84]
	.loc	10 791 50 is_stmt 0             @ lvgl/src/lv_widgets/lv_arc.c:791:50
	ldr	r0, [r0, #40]
	.loc	10 791 31                       @ lvgl/src/lv_widgets/lv_arc.c:791:31
	bl	lv_tick_elaps
	.loc	10 791 18                       @ lvgl/src/lv_widgets/lv_arc.c:791:18
	str	r0, [sp, #48]
	.loc	10 792 36 is_stmt 1             @ lvgl/src/lv_widgets/lv_arc.c:792:36
	ldr	r0, [sp, #84]
	.loc	10 792 41 is_stmt 0             @ lvgl/src/lv_widgets/lv_arc.c:792:41
	ldrh	r0, [r0, #36]
	.loc	10 792 52                       @ lvgl/src/lv_widgets/lv_arc.c:792:52
	ldr	r1, [sp, #48]
	.loc	10 792 50                       @ lvgl/src/lv_widgets/lv_arc.c:792:50
	muls	r0, r1, r0
	movw	r1, #19923
	movt	r1, #4194
	.loc	10 792 64                       @ lvgl/src/lv_widgets/lv_arc.c:792:64
	umull	r1, r0, r0, r1
	lsrs	r0, r0, #6
	.loc	10 792 17                       @ lvgl/src/lv_widgets/lv_arc.c:792:17
	strh.w	r0, [sp, #46]
.Ltmp89:
	.loc	10 794 12 is_stmt 1             @ lvgl/src/lv_widgets/lv_arc.c:794:12
	ldrsh.w	r0, [sp, #54]
	.loc	10 794 26 is_stmt 0             @ lvgl/src/lv_widgets/lv_arc.c:794:26
	ldrsh.w	r1, [sp, #46]
.Ltmp90:
	.loc	10 794 12                       @ lvgl/src/lv_widgets/lv_arc.c:794:12
	cmp	r0, r1
	ble	.LBB1_42
	b	.LBB1_41
.LBB1_41:
.Ltmp91:
	.loc	10 795 27 is_stmt 1             @ lvgl/src/lv_widgets/lv_arc.c:795:27
	ldrh.w	r0, [sp, #46]
	.loc	10 795 25 is_stmt 0             @ lvgl/src/lv_widgets/lv_arc.c:795:25
	strh.w	r0, [sp, #54]
	.loc	10 796 9 is_stmt 1              @ lvgl/src/lv_widgets/lv_arc.c:796:9
	b	.LBB1_45
.Ltmp92:
.LBB1_42:
	.loc	10 797 17                       @ lvgl/src/lv_widgets/lv_arc.c:797:17
	ldrsh.w	r0, [sp, #54]
	.loc	10 797 32 is_stmt 0             @ lvgl/src/lv_widgets/lv_arc.c:797:32
	ldrsh.w	r1, [sp, #46]
	.loc	10 797 31                       @ lvgl/src/lv_widgets/lv_arc.c:797:31
	rsbs	r1, r1, #0
.Ltmp93:
	.loc	10 797 17                       @ lvgl/src/lv_widgets/lv_arc.c:797:17
	cmp	r0, r1
	bge	.LBB1_44
	b	.LBB1_43
.LBB1_43:
.Ltmp94:
	.loc	10 798 28 is_stmt 1             @ lvgl/src/lv_widgets/lv_arc.c:798:28
	ldrh.w	r0, [sp, #46]
	.loc	10 798 27 is_stmt 0             @ lvgl/src/lv_widgets/lv_arc.c:798:27
	rsbs	r0, r0, #0
	.loc	10 798 25                       @ lvgl/src/lv_widgets/lv_arc.c:798:25
	strh.w	r0, [sp, #54]
	.loc	10 799 9 is_stmt 1              @ lvgl/src/lv_widgets/lv_arc.c:799:9
	b	.LBB1_44
.Ltmp95:
.LBB1_44:
	.loc	10 0 9 is_stmt 0                @ lvgl/src/lv_widgets/lv_arc.c:0:9
	b	.LBB1_45
.LBB1_45:
	.loc	10 801 17 is_stmt 1             @ lvgl/src/lv_widgets/lv_arc.c:801:17
	ldrh.w	r0, [sp, #56]
	.loc	10 801 34 is_stmt 0             @ lvgl/src/lv_widgets/lv_arc.c:801:34
	ldrh.w	r1, [sp, #54]
	.loc	10 801 32                       @ lvgl/src/lv_widgets/lv_arc.c:801:32
	add	r0, r1
	.loc	10 801 15                       @ lvgl/src/lv_widgets/lv_arc.c:801:15
	strh.w	r0, [sp, #62]
	.loc	10 804 27 is_stmt 1             @ lvgl/src/lv_widgets/lv_arc.c:804:27
	ldrsh.w	r0, [sp, #60]
	.loc	10 804 36 is_stmt 0             @ lvgl/src/lv_widgets/lv_arc.c:804:36
	ldr	r1, [sp, #84]
	.loc	10 804 41                       @ lvgl/src/lv_widgets/lv_arc.c:804:41
	ldrh	r2, [r1, #6]
	.loc	10 804 34                       @ lvgl/src/lv_widgets/lv_arc.c:804:34
	subs	r0, r0, r2
	.loc	10 804 57                       @ lvgl/src/lv_widgets/lv_arc.c:804:57
	lsls	r0, r0, #3
	.loc	10 804 87                       @ lvgl/src/lv_widgets/lv_arc.c:804:87
	ldrsh.w	r2, [r1, #30]
	.loc	10 804 70                       @ lvgl/src/lv_widgets/lv_arc.c:804:70
	ldrsh.w	r1, [r1, #32]
	.loc	10 804 80                       @ lvgl/src/lv_widgets/lv_arc.c:804:80
	subs	r1, r1, r2
	.loc	10 804 62                       @ lvgl/src/lv_widgets/lv_arc.c:804:62
	sdiv	r0, r0, r1
	.loc	10 804 17                       @ lvgl/src/lv_widgets/lv_arc.c:804:17
	str	r0, [sp, #40]
	.loc	10 805 18 is_stmt 1             @ lvgl/src/lv_widgets/lv_arc.c:805:18
	ldr	r0, [sp, #40]
	.loc	10 805 24 is_stmt 0             @ lvgl/src/lv_widgets/lv_arc.c:805:24
	adds	r0, #4
	.loc	10 805 29                       @ lvgl/src/lv_widgets/lv_arc.c:805:29
	asrs	r0, r0, #4
	.loc	10 805 15                       @ lvgl/src/lv_widgets/lv_arc.c:805:15
	str	r0, [sp, #40]
	.loc	10 806 18 is_stmt 1             @ lvgl/src/lv_widgets/lv_arc.c:806:18
	ldr	r1, [sp, #40]
	.loc	10 806 15 is_stmt 0             @ lvgl/src/lv_widgets/lv_arc.c:806:15
	ldrh.w	r0, [sp, #62]
	add	r0, r1
	strh.w	r0, [sp, #62]
	.loc	10 808 18 is_stmt 1             @ lvgl/src/lv_widgets/lv_arc.c:808:18
	ldr	r0, [sp, #84]
	ldrh	r1, [r0, #6]
	.loc	10 808 15 is_stmt 0             @ lvgl/src/lv_widgets/lv_arc.c:808:15
	ldrh.w	r0, [sp, #62]
	add	r0, r1
	strh.w	r0, [sp, #62]
	.loc	10 811 29 is_stmt 1             @ lvgl/src/lv_widgets/lv_arc.c:811:29
	ldr	r0, [sp, #84]
	.loc	10 811 34 is_stmt 0             @ lvgl/src/lv_widgets/lv_arc.c:811:34
	ldrh	r0, [r0, #28]
	.loc	10 811 17                       @ lvgl/src/lv_widgets/lv_arc.c:811:17
	strh.w	r0, [sp, #38]
	.loc	10 812 37 is_stmt 1             @ lvgl/src/lv_widgets/lv_arc.c:812:37
	ldrsh.w	r0, [sp, #62]
	.loc	10 812 44 is_stmt 0             @ lvgl/src/lv_widgets/lv_arc.c:812:44
	ldr.w	r12, [sp, #84]
	.loc	10 812 49                       @ lvgl/src/lv_widgets/lv_arc.c:812:49
	ldrh.w	r1, [r12, #6]
	.loc	10 812 65                       @ lvgl/src/lv_widgets/lv_arc.c:812:65
	ldrsh.w	r2, [sp, #60]
	.loc	10 812 78                       @ lvgl/src/lv_widgets/lv_arc.c:812:78
	ldrsh.w	r3, [r12, #30]
	.loc	10 812 94                       @ lvgl/src/lv_widgets/lv_arc.c:812:94
	ldrsh.w	r12, [r12, #32]
	.loc	10 812 29                       @ lvgl/src/lv_widgets/lv_arc.c:812:29
	mov	lr, sp
	str.w	r12, [lr]
	bl	_lv_map
	.loc	10 812 17                       @ lvgl/src/lv_widgets/lv_arc.c:812:17
	strh.w	r0, [sp, #36]
.Ltmp96:
	.loc	10 813 12 is_stmt 1             @ lvgl/src/lv_widgets/lv_arc.c:813:12
	ldrsh.w	r0, [sp, #36]
	.loc	10 813 42 is_stmt 0             @ lvgl/src/lv_widgets/lv_arc.c:813:42
	str	r0, [sp, #12]                   @ 4-byte Spill
	ldr	r0, [sp, #104]
	.loc	10 813 25                       @ lvgl/src/lv_widgets/lv_arc.c:813:25
	bl	lv_arc_get_value
	mov	r1, r0
.Ltmp97:
	.loc	10 813 12                       @ lvgl/src/lv_widgets/lv_arc.c:813:12
	ldr	r0, [sp, #12]                   @ 4-byte Reload
	cmp	r0, r1
	beq	.LBB1_51
	b	.LBB1_46
.LBB1_46:
.Ltmp98:
	.loc	10 814 30 is_stmt 1             @ lvgl/src/lv_widgets/lv_arc.c:814:30
	bl	lv_tick_get
	.loc	10 814 13 is_stmt 0             @ lvgl/src/lv_widgets/lv_arc.c:814:13
	ldr	r1, [sp, #84]
	.loc	10 814 28                       @ lvgl/src/lv_widgets/lv_arc.c:814:28
	str	r0, [r1, #40]
	.loc	10 815 30 is_stmt 1             @ lvgl/src/lv_widgets/lv_arc.c:815:30
	ldr	r0, [sp, #104]
	.loc	10 815 35 is_stmt 0             @ lvgl/src/lv_widgets/lv_arc.c:815:35
	ldrsh.w	r1, [sp, #36]
	.loc	10 815 13                       @ lvgl/src/lv_widgets/lv_arc.c:815:13
	bl	lv_arc_set_value
.Ltmp99:
	.loc	10 816 16 is_stmt 1             @ lvgl/src/lv_widgets/lv_arc.c:816:16
	ldrsh.w	r0, [sp, #36]
	.loc	10 816 29 is_stmt 0             @ lvgl/src/lv_widgets/lv_arc.c:816:29
	ldrsh.w	r1, [sp, #38]
.Ltmp100:
	.loc	10 816 16                       @ lvgl/src/lv_widgets/lv_arc.c:816:16
	cmp	r0, r1
	beq	.LBB1_50
	b	.LBB1_47
.LBB1_47:
.Ltmp101:
	.loc	10 817 37 is_stmt 1             @ lvgl/src/lv_widgets/lv_arc.c:817:37
	ldr	r0, [sp, #104]
	movs	r1, #16
	movs	r2, #0
	.loc	10 817 23 is_stmt 0             @ lvgl/src/lv_widgets/lv_arc.c:817:23
	bl	lv_event_send
	.loc	10 817 21                       @ lvgl/src/lv_widgets/lv_arc.c:817:21
	strb.w	r0, [sp, #95]
.Ltmp102:
	.loc	10 818 20 is_stmt 1             @ lvgl/src/lv_widgets/lv_arc.c:818:20
	ldrb.w	r0, [sp, #95]
.Ltmp103:
	.loc	10 818 20 is_stmt 0             @ lvgl/src/lv_widgets/lv_arc.c:818:20
	cmp	r0, #1
	beq	.LBB1_49
	b	.LBB1_48
.LBB1_48:
.Ltmp104:
	.loc	10 818 45                       @ lvgl/src/lv_widgets/lv_arc.c:818:45
	ldrb.w	r0, [sp, #95]
	.loc	10 818 38                       @ lvgl/src/lv_widgets/lv_arc.c:818:38
	strb.w	r0, [sp, #111]
	b	.LBB1_86
.Ltmp105:
.LBB1_49:
	.loc	10 819 13 is_stmt 1             @ lvgl/src/lv_widgets/lv_arc.c:819:13
	b	.LBB1_50
.Ltmp106:
.LBB1_50:
	.loc	10 820 9                        @ lvgl/src/lv_widgets/lv_arc.c:820:9
	b	.LBB1_51
.Ltmp107:
.LBB1_51:
	.loc	10 823 12                       @ lvgl/src/lv_widgets/lv_arc.c:823:12
	ldrsh.w	r0, [sp, #36]
	.loc	10 823 25 is_stmt 0             @ lvgl/src/lv_widgets/lv_arc.c:823:25
	ldr	r1, [sp, #84]
	.loc	10 823 30                       @ lvgl/src/lv_widgets/lv_arc.c:823:30
	ldrsh.w	r1, [r1, #30]
	.loc	10 823 40                       @ lvgl/src/lv_widgets/lv_arc.c:823:40
	cmp	r0, r1
	beq	.LBB1_53
	b	.LBB1_52
.LBB1_52:
	.loc	10 823 43                       @ lvgl/src/lv_widgets/lv_arc.c:823:43
	ldrsh.w	r0, [sp, #36]
	.loc	10 823 56                       @ lvgl/src/lv_widgets/lv_arc.c:823:56
	ldr	r1, [sp, #84]
	.loc	10 823 61                       @ lvgl/src/lv_widgets/lv_arc.c:823:61
	ldrsh.w	r1, [r1, #32]
.Ltmp108:
	.loc	10 823 12                       @ lvgl/src/lv_widgets/lv_arc.c:823:12
	cmp	r0, r1
	bne	.LBB1_54
	b	.LBB1_53
.LBB1_53:
.Ltmp109:
	.loc	10 824 30 is_stmt 1             @ lvgl/src/lv_widgets/lv_arc.c:824:30
	bl	lv_tick_get
	.loc	10 824 13 is_stmt 0             @ lvgl/src/lv_widgets/lv_arc.c:824:13
	ldr	r1, [sp, #84]
	.loc	10 824 28                       @ lvgl/src/lv_widgets/lv_arc.c:824:28
	str	r0, [r1, #40]
	.loc	10 825 9 is_stmt 1              @ lvgl/src/lv_widgets/lv_arc.c:825:9
	b	.LBB1_54
.Ltmp110:
.LBB1_54:
	.loc	10 826 5                        @ lvgl/src/lv_widgets/lv_arc.c:826:5
	b	.LBB1_85
.Ltmp111:
.LBB1_55:
	.loc	10 827 13                       @ lvgl/src/lv_widgets/lv_arc.c:827:13
	ldrb.w	r0, [sp, #103]
	.loc	10 827 40 is_stmt 0             @ lvgl/src/lv_widgets/lv_arc.c:827:40
	cmp	r0, #14
	beq	.LBB1_57
	b	.LBB1_56
.LBB1_56:
	.loc	10 827 43                       @ lvgl/src/lv_widgets/lv_arc.c:827:43
	ldrb.w	r0, [sp, #103]
.Ltmp112:
	.loc	10 827 13                       @ lvgl/src/lv_widgets/lv_arc.c:827:13
	cmp	r0, #13
	bne	.LBB1_62
	b	.LBB1_57
.LBB1_57:
.Ltmp113:
	.loc	10 828 9 is_stmt 1              @ lvgl/src/lv_widgets/lv_arc.c:828:9
	ldr	r1, [sp, #84]
	.loc	10 828 23 is_stmt 0             @ lvgl/src/lv_widgets/lv_arc.c:828:23
	ldrb.w	r0, [r1, #34]
	and	r0, r0, #254
	strb.w	r0, [r1, #34]
	.loc	10 832 55 is_stmt 1             @ lvgl/src/lv_widgets/lv_arc.c:832:55
	ldr	r0, [sp, #104]
	.loc	10 832 38 is_stmt 0             @ lvgl/src/lv_widgets/lv_arc.c:832:38
	bl	lv_obj_get_group
	.loc	10 832 22                       @ lvgl/src/lv_widgets/lv_arc.c:832:22
	str	r0, [sp, #32]
	.loc	10 833 59 is_stmt 1             @ lvgl/src/lv_widgets/lv_arc.c:833:59
	ldr	r0, [sp, #32]
	.loc	10 833 38 is_stmt 0             @ lvgl/src/lv_widgets/lv_arc.c:833:38
	bl	lv_group_get_editing
	.loc	10 833 14                       @ lvgl/src/lv_widgets/lv_arc.c:833:14
	strb.w	r0, [sp, #31]
	.loc	10 834 56 is_stmt 1             @ lvgl/src/lv_widgets/lv_arc.c:834:56
	bl	lv_indev_get_act
	.loc	10 834 38 is_stmt 0             @ lvgl/src/lv_widgets/lv_arc.c:834:38
	bl	lv_indev_get_type
	.loc	10 834 25                       @ lvgl/src/lv_widgets/lv_arc.c:834:25
	strb.w	r0, [sp, #30]
.Ltmp114:
	.loc	10 835 12 is_stmt 1             @ lvgl/src/lv_widgets/lv_arc.c:835:12
	ldrb.w	r0, [sp, #30]
.Ltmp115:
	.loc	10 835 12 is_stmt 0             @ lvgl/src/lv_widgets/lv_arc.c:835:12
	cmp	r0, #4
	bne	.LBB1_61
	b	.LBB1_58
.LBB1_58:
.Ltmp116:
	.loc	10 836 16 is_stmt 1             @ lvgl/src/lv_widgets/lv_arc.c:836:16
	ldrb.w	r0, [sp, #31]
.Ltmp117:
	.loc	10 836 16 is_stmt 0             @ lvgl/src/lv_widgets/lv_arc.c:836:16
	lsls	r0, r0, #31
	cbz	r0, .LBB1_60
	b	.LBB1_59
.LBB1_59:
.Ltmp118:
	.loc	10 836 46                       @ lvgl/src/lv_widgets/lv_arc.c:836:46
	ldr	r0, [sp, #32]
	movs	r1, #0
	.loc	10 836 25                       @ lvgl/src/lv_widgets/lv_arc.c:836:25
	bl	lv_group_set_editing
	b	.LBB1_60
.Ltmp119:
.LBB1_60:
	.loc	10 837 9 is_stmt 1              @ lvgl/src/lv_widgets/lv_arc.c:837:9
	b	.LBB1_61
.Ltmp120:
.LBB1_61:
	.loc	10 840 5                        @ lvgl/src/lv_widgets/lv_arc.c:840:5
	b	.LBB1_84
.Ltmp121:
.LBB1_62:
	.loc	10 841 13                       @ lvgl/src/lv_widgets/lv_arc.c:841:13
	ldrb.w	r0, [sp, #103]
.Ltmp122:
	.loc	10 841 13 is_stmt 0             @ lvgl/src/lv_widgets/lv_arc.c:841:13
	cmp	r0, #24
	bne	.LBB1_77
	b	.LBB1_63
.LBB1_63:
.Ltmp123:
	.loc	10 842 13 is_stmt 1             @ lvgl/src/lv_widgets/lv_arc.c:842:13
	ldr	r0, [sp, #84]
	.loc	10 842 18 is_stmt 0             @ lvgl/src/lv_widgets/lv_arc.c:842:18
	ldrb.w	r0, [r0, #34]
	lsrs	r0, r0, #3
.Ltmp124:
	.loc	10 842 12                       @ lvgl/src/lv_widgets/lv_arc.c:842:12
	lsls	r0, r0, #31
	cbnz	r0, .LBB1_65
	b	.LBB1_64
.LBB1_64:
.Ltmp125:
	.loc	10 842 37                       @ lvgl/src/lv_widgets/lv_arc.c:842:37
	ldrb.w	r0, [sp, #95]
	.loc	10 842 30                       @ lvgl/src/lv_widgets/lv_arc.c:842:30
	strb.w	r0, [sp, #111]
	b	.LBB1_86
.Ltmp126:
.LBB1_65:
	.loc	10 844 28 is_stmt 1             @ lvgl/src/lv_widgets/lv_arc.c:844:28
	ldr	r0, [sp, #96]
	.loc	10 844 18 is_stmt 0             @ lvgl/src/lv_widgets/lv_arc.c:844:18
	ldrb	r0, [r0]
	.loc	10 844 14                       @ lvgl/src/lv_widgets/lv_arc.c:844:14
	strb.w	r0, [sp, #29]
	.loc	10 846 29 is_stmt 1             @ lvgl/src/lv_widgets/lv_arc.c:846:29
	ldr	r0, [sp, #84]
	.loc	10 846 34 is_stmt 0             @ lvgl/src/lv_widgets/lv_arc.c:846:34
	ldrh	r0, [r0, #28]
	.loc	10 846 17                       @ lvgl/src/lv_widgets/lv_arc.c:846:17
	strh.w	r0, [sp, #26]
.Ltmp127:
	.loc	10 847 12 is_stmt 1             @ lvgl/src/lv_widgets/lv_arc.c:847:12
	ldrsb.w	r0, [sp, #29]
	.loc	10 847 30 is_stmt 0             @ lvgl/src/lv_widgets/lv_arc.c:847:30
	cmp	r0, #19
	beq	.LBB1_67
	b	.LBB1_66
.LBB1_66:
	.loc	10 847 33                       @ lvgl/src/lv_widgets/lv_arc.c:847:33
	ldrsb.w	r0, [sp, #29]
.Ltmp128:
	.loc	10 847 12                       @ lvgl/src/lv_widgets/lv_arc.c:847:12
	cmp	r0, #17
	bne	.LBB1_68
	b	.LBB1_67
.LBB1_67:
.Ltmp129:
	.loc	10 848 30 is_stmt 1             @ lvgl/src/lv_widgets/lv_arc.c:848:30
	ldr	r0, [sp, #104]
	.loc	10 848 35 is_stmt 0             @ lvgl/src/lv_widgets/lv_arc.c:848:35
	str	r0, [sp, #8]                    @ 4-byte Spill
	bl	lv_arc_get_value
	mov	r1, r0
	.loc	10 848 57                       @ lvgl/src/lv_widgets/lv_arc.c:848:57
	ldr	r0, [sp, #8]                    @ 4-byte Reload
	adds	r1, #1
	.loc	10 848 13                       @ lvgl/src/lv_widgets/lv_arc.c:848:13
	sxth	r1, r1
	bl	lv_arc_set_value
	.loc	10 849 9 is_stmt 1              @ lvgl/src/lv_widgets/lv_arc.c:849:9
	b	.LBB1_72
.Ltmp130:
.LBB1_68:
	.loc	10 850 17                       @ lvgl/src/lv_widgets/lv_arc.c:850:17
	ldrsb.w	r0, [sp, #29]
	.loc	10 850 34 is_stmt 0             @ lvgl/src/lv_widgets/lv_arc.c:850:34
	cmp	r0, #20
	beq	.LBB1_70
	b	.LBB1_69
.LBB1_69:
	.loc	10 850 37                       @ lvgl/src/lv_widgets/lv_arc.c:850:37
	ldrsb.w	r0, [sp, #29]
.Ltmp131:
	.loc	10 850 17                       @ lvgl/src/lv_widgets/lv_arc.c:850:17
	cmp	r0, #18
	bne	.LBB1_71
	b	.LBB1_70
.LBB1_70:
.Ltmp132:
	.loc	10 851 30 is_stmt 1             @ lvgl/src/lv_widgets/lv_arc.c:851:30
	ldr	r0, [sp, #104]
	.loc	10 851 35 is_stmt 0             @ lvgl/src/lv_widgets/lv_arc.c:851:35
	str	r0, [sp, #4]                    @ 4-byte Spill
	bl	lv_arc_get_value
	mov	r1, r0
	.loc	10 851 57                       @ lvgl/src/lv_widgets/lv_arc.c:851:57
	ldr	r0, [sp, #4]                    @ 4-byte Reload
	subs	r1, #1
	.loc	10 851 13                       @ lvgl/src/lv_widgets/lv_arc.c:851:13
	sxth	r1, r1
	bl	lv_arc_set_value
	.loc	10 852 9 is_stmt 1              @ lvgl/src/lv_widgets/lv_arc.c:852:9
	b	.LBB1_71
.Ltmp133:
.LBB1_71:
	.loc	10 0 9 is_stmt 0                @ lvgl/src/lv_widgets/lv_arc.c:0:9
	b	.LBB1_72
.LBB1_72:
.Ltmp134:
	.loc	10 854 12 is_stmt 1             @ lvgl/src/lv_widgets/lv_arc.c:854:12
	ldrsh.w	r0, [sp, #26]
	.loc	10 854 25 is_stmt 0             @ lvgl/src/lv_widgets/lv_arc.c:854:25
	ldr	r1, [sp, #84]
	.loc	10 854 30                       @ lvgl/src/lv_widgets/lv_arc.c:854:30
	ldrsh.w	r1, [r1, #28]
.Ltmp135:
	.loc	10 854 12                       @ lvgl/src/lv_widgets/lv_arc.c:854:12
	cmp	r0, r1
	beq	.LBB1_76
	b	.LBB1_73
.LBB1_73:
.Ltmp136:
	.loc	10 855 33 is_stmt 1             @ lvgl/src/lv_widgets/lv_arc.c:855:33
	ldr	r0, [sp, #104]
	movs	r1, #16
	movs	r2, #0
	.loc	10 855 19 is_stmt 0             @ lvgl/src/lv_widgets/lv_arc.c:855:19
	bl	lv_event_send
	.loc	10 855 17                       @ lvgl/src/lv_widgets/lv_arc.c:855:17
	strb.w	r0, [sp, #95]
.Ltmp137:
	.loc	10 856 16 is_stmt 1             @ lvgl/src/lv_widgets/lv_arc.c:856:16
	ldrb.w	r0, [sp, #95]
.Ltmp138:
	.loc	10 856 16 is_stmt 0             @ lvgl/src/lv_widgets/lv_arc.c:856:16
	cmp	r0, #1
	beq	.LBB1_75
	b	.LBB1_74
.LBB1_74:
.Ltmp139:
	.loc	10 856 41                       @ lvgl/src/lv_widgets/lv_arc.c:856:41
	ldrb.w	r0, [sp, #95]
	.loc	10 856 34                       @ lvgl/src/lv_widgets/lv_arc.c:856:34
	strb.w	r0, [sp, #111]
	b	.LBB1_86
.Ltmp140:
.LBB1_75:
	.loc	10 857 9 is_stmt 1              @ lvgl/src/lv_widgets/lv_arc.c:857:9
	b	.LBB1_76
.Ltmp141:
.LBB1_76:
	.loc	10 858 5                        @ lvgl/src/lv_widgets/lv_arc.c:858:5
	b	.LBB1_83
.Ltmp142:
.LBB1_77:
	.loc	10 859 13                       @ lvgl/src/lv_widgets/lv_arc.c:859:13
	ldrb.w	r0, [sp, #103]
.Ltmp143:
	.loc	10 859 13 is_stmt 0             @ lvgl/src/lv_widgets/lv_arc.c:859:13
	cmp	r0, #25
	bne	.LBB1_79
	b	.LBB1_78
.LBB1_78:
.Ltmp144:
	.loc	10 861 35 is_stmt 1             @ lvgl/src/lv_widgets/lv_arc.c:861:35
	ldr	r0, [sp, #96]
	.loc	10 861 16 is_stmt 0             @ lvgl/src/lv_widgets/lv_arc.c:861:16
	str	r0, [sp, #20]
	.loc	10 862 10 is_stmt 1             @ lvgl/src/lv_widgets/lv_arc.c:862:10
	ldr	r1, [sp, #20]
	movs	r0, #1
	.loc	10 862 19 is_stmt 0             @ lvgl/src/lv_widgets/lv_arc.c:862:19
	strb	r0, [r1]
	.loc	10 864 5 is_stmt 1              @ lvgl/src/lv_widgets/lv_arc.c:864:5
	b	.LBB1_82
.Ltmp145:
.LBB1_79:
	.loc	10 865 13                       @ lvgl/src/lv_widgets/lv_arc.c:865:13
	ldrb.w	r0, [sp, #103]
.Ltmp146:
	.loc	10 865 13 is_stmt 0             @ lvgl/src/lv_widgets/lv_arc.c:865:13
	cbnz	r0, .LBB1_81
	b	.LBB1_80
.LBB1_80:
.Ltmp147:
	.loc	10 866 33 is_stmt 1             @ lvgl/src/lv_widgets/lv_arc.c:866:33
	ldr	r0, [sp, #104]
	movs	r1, #2
	.loc	10 866 9 is_stmt 0              @ lvgl/src/lv_widgets/lv_arc.c:866:9
	bl	lv_obj_clean_style_list
	.loc	10 867 33 is_stmt 1             @ lvgl/src/lv_widgets/lv_arc.c:867:33
	ldr	r0, [sp, #104]
	movs	r1, #1
	.loc	10 867 9 is_stmt 0              @ lvgl/src/lv_widgets/lv_arc.c:867:9
	bl	lv_obj_clean_style_list
	.loc	10 868 5 is_stmt 1              @ lvgl/src/lv_widgets/lv_arc.c:868:5
	b	.LBB1_81
.Ltmp148:
.LBB1_81:
	.loc	10 0 5 is_stmt 0                @ lvgl/src/lv_widgets/lv_arc.c:0:5
	b	.LBB1_82
.LBB1_82:
	b	.LBB1_83
.LBB1_83:
	b	.LBB1_84
.LBB1_84:
	b	.LBB1_85
.LBB1_85:
	.loc	10 870 12 is_stmt 1             @ lvgl/src/lv_widgets/lv_arc.c:870:12
	ldrb.w	r0, [sp, #95]
	.loc	10 870 5 is_stmt 0              @ lvgl/src/lv_widgets/lv_arc.c:870:5
	strb.w	r0, [sp, #111]
	b	.LBB1_86
.LBB1_86:
	.loc	10 871 1 is_stmt 1              @ lvgl/src/lv_widgets/lv_arc.c:871:1
	ldrb.w	r0, [sp, #111]
	add	sp, #112
	pop	{r7, pc}
.Ltmp149:
.Lfunc_end1:
	.size	lv_arc_signal, .Lfunc_end1-lv_arc_signal
	.cfi_endproc
	.cantunwind
	.fnend
                                        @ -- End function
	.section	.text.lv_arc_design,"ax",%progbits
	.p2align	3                               @ -- Begin function lv_arc_design
	.type	lv_arc_design,%function
	.code	16                              @ @lv_arc_design
	.thumb_func
lv_arc_design:
.Lfunc_begin2:
	.loc	10 631 0                        @ lvgl/src/lv_widgets/lv_arc.c:631:0
	.fnstart
	.cfi_startproc
@ %bb.0:
	.save	{r4, r5, r7, lr}
	push	{r4, r5, r7, lr}
	.cfi_def_cfa_offset 16
	.cfi_offset lr, -4
	.cfi_offset r7, -8
	.cfi_offset r5, -12
	.cfi_offset r4, -16
	.pad	#328
	sub	sp, #328
	.cfi_def_cfa_offset 344
                                        @ kill: def $r3 killed $r2
	str	r0, [sp, #320]
	str	r1, [sp, #316]
	strb.w	r2, [sp, #315]
.Ltmp150:
	.loc	10 633 8 prologue_end           @ lvgl/src/lv_widgets/lv_arc.c:633:8
	ldrb.w	r0, [sp, #315]
.Ltmp151:
	.loc	10 633 8 is_stmt 0              @ lvgl/src/lv_widgets/lv_arc.c:633:8
	cmp	r0, #2
	bne	.LBB2_2
	b	.LBB2_1
.LBB2_1:
	.loc	10 0 8                          @ lvgl/src/lv_widgets/lv_arc.c:0:8
	movs	r0, #2
.Ltmp152:
	.loc	10 634 9 is_stmt 1              @ lvgl/src/lv_widgets/lv_arc.c:634:9
	strb.w	r0, [sp, #327]
	b	.LBB2_30
.Ltmp153:
.LBB2_2:
	.loc	10 637 13                       @ lvgl/src/lv_widgets/lv_arc.c:637:13
	ldrb.w	r0, [sp, #315]
.Ltmp154:
	.loc	10 637 13 is_stmt 0             @ lvgl/src/lv_widgets/lv_arc.c:637:13
	cmp	r0, #0
	bne.w	.LBB2_25
	b	.LBB2_3
.LBB2_3:
.Ltmp155:
	.loc	10 638 56 is_stmt 1             @ lvgl/src/lv_widgets/lv_arc.c:638:56
	ldr	r0, [sp, #320]
	.loc	10 638 36 is_stmt 0             @ lvgl/src/lv_widgets/lv_arc.c:638:36
	bl	lv_obj_get_ext_attr
	.loc	10 638 24                       @ lvgl/src/lv_widgets/lv_arc.c:638:24
	str	r0, [sp, #308]
	add	r0, sp, #204
	.loc	10 641 9 is_stmt 1              @ lvgl/src/lv_widgets/lv_arc.c:641:9
	str	r0, [sp, #56]                   @ 4-byte Spill
	bl	lv_draw_rect_dsc_init
	ldr	r2, [sp, #56]                   @ 4-byte Reload
	.loc	10 642 35                       @ lvgl/src/lv_widgets/lv_arc.c:642:35
	ldr	r0, [sp, #320]
	movs	r1, #0
	.loc	10 642 9 is_stmt 0              @ lvgl/src/lv_widgets/lv_arc.c:642:9
	bl	lv_obj_init_draw_rect_dsc
	ldr	r2, [sp, #56]                   @ 4-byte Reload
	.loc	10 644 23 is_stmt 1             @ lvgl/src/lv_widgets/lv_arc.c:644:23
	ldr	r0, [sp, #320]
	.loc	10 644 28 is_stmt 0             @ lvgl/src/lv_widgets/lv_arc.c:644:28
	adds	r0, #16
	.loc	10 644 36                       @ lvgl/src/lv_widgets/lv_arc.c:644:36
	ldr	r1, [sp, #316]
	.loc	10 644 9                        @ lvgl/src/lv_widgets/lv_arc.c:644:9
	bl	lv_draw_rect
	.loc	10 648 20 is_stmt 1             @ lvgl/src/lv_widgets/lv_arc.c:648:20
	ldr	r0, [sp, #320]
	add	r1, sp, #200
	add.w	r2, sp, #198
	.loc	10 648 9 is_stmt 0              @ lvgl/src/lv_widgets/lv_arc.c:648:9
	bl	get_center
.Ltmp156:
	.loc	10 652 12 is_stmt 1             @ lvgl/src/lv_widgets/lv_arc.c:652:12
	ldrsh.w	r0, [sp, #198]
.Ltmp157:
	.loc	10 652 12 is_stmt 0             @ lvgl/src/lv_widgets/lv_arc.c:652:12
	cmp	r0, #1
	blt	.LBB2_5
	b	.LBB2_4
.LBB2_4:
	.loc	10 0 12                         @ lvgl/src/lv_widgets/lv_arc.c:0:12
	add	r5, sp, #184
.Ltmp158:
	.loc	10 653 13 is_stmt 1             @ lvgl/src/lv_widgets/lv_arc.c:653:13
	mov	r0, r5
	bl	lv_draw_line_dsc_init
	.loc	10 654 39                       @ lvgl/src/lv_widgets/lv_arc.c:654:39
	ldr	r0, [sp, #320]
	movs	r1, #0
	.loc	10 654 13 is_stmt 0             @ lvgl/src/lv_widgets/lv_arc.c:654:13
	mov	r2, r5
	bl	lv_obj_init_draw_line_dsc
	.loc	10 656 32 is_stmt 1             @ lvgl/src/lv_widgets/lv_arc.c:656:32
	ldrsh.w	r0, [sp, #200]
	.loc	10 656 42 is_stmt 0             @ lvgl/src/lv_widgets/lv_arc.c:656:42
	ldrsh.w	r1, [sp, #202]
	.loc	10 656 45                       @ lvgl/src/lv_widgets/lv_arc.c:656:45
	ldrh.w	r2, [sp, #198]
	.loc	10 656 52                       @ lvgl/src/lv_widgets/lv_arc.c:656:52
	ldr.w	r12, [sp, #308]
	ldrh.w	r3, [r12, #6]
	.loc	10 656 79                       @ lvgl/src/lv_widgets/lv_arc.c:656:79
	ldrh.w	lr, [r12]
	.loc	10 656 72                       @ lvgl/src/lv_widgets/lv_arc.c:656:72
	add	r3, lr
	.loc	10 657 25 is_stmt 1             @ lvgl/src/lv_widgets/lv_arc.c:657:25
	ldrh.w	r12, [r12, #8]
	.loc	10 657 43 is_stmt 0             @ lvgl/src/lv_widgets/lv_arc.c:657:43
	add	r12, lr
	.loc	10 657 66                       @ lvgl/src/lv_widgets/lv_arc.c:657:66
	ldr	r4, [sp, #316]
	.loc	10 656 13 is_stmt 1             @ lvgl/src/lv_widgets/lv_arc.c:656:13
	mov	lr, sp
	str.w	r5, [lr, #8]
	str.w	r4, [lr, #4]
	uxth.w	r12, r12
	str.w	r12, [lr]
	uxth	r3, r3
	bl	lv_draw_arc
	.loc	10 659 9                        @ lvgl/src/lv_widgets/lv_arc.c:659:9
	b	.LBB2_5
.Ltmp159:
.LBB2_5:
	.loc	10 662 59                       @ lvgl/src/lv_widgets/lv_arc.c:662:59
	ldr	r0, [sp, #320]
	movs	r1, #1
	.loc	10 662 33 is_stmt 0             @ lvgl/src/lv_widgets/lv_arc.c:662:33
	str	r1, [sp, #48]                   @ 4-byte Spill
	bl	lv_obj_get_style_pad_left
	ldr	r1, [sp, #48]                   @ 4-byte Reload
	.loc	10 662 20                       @ lvgl/src/lv_widgets/lv_arc.c:662:20
	strh.w	r0, [sp, #182]
	.loc	10 663 61 is_stmt 1             @ lvgl/src/lv_widgets/lv_arc.c:663:61
	ldr	r0, [sp, #320]
	.loc	10 663 34 is_stmt 0             @ lvgl/src/lv_widgets/lv_arc.c:663:34
	bl	lv_obj_get_style_pad_right
	ldr	r1, [sp, #48]                   @ 4-byte Reload
	.loc	10 663 20                       @ lvgl/src/lv_widgets/lv_arc.c:663:20
	strh.w	r0, [sp, #180]
	.loc	10 664 57 is_stmt 1             @ lvgl/src/lv_widgets/lv_arc.c:664:57
	ldr	r0, [sp, #320]
	.loc	10 664 32 is_stmt 0             @ lvgl/src/lv_widgets/lv_arc.c:664:32
	bl	lv_obj_get_style_pad_top
	ldr	r1, [sp, #48]                   @ 4-byte Reload
	.loc	10 664 20                       @ lvgl/src/lv_widgets/lv_arc.c:664:20
	strh.w	r0, [sp, #178]
	.loc	10 665 63 is_stmt 1             @ lvgl/src/lv_widgets/lv_arc.c:665:63
	ldr	r0, [sp, #320]
	.loc	10 665 35 is_stmt 0             @ lvgl/src/lv_widgets/lv_arc.c:665:35
	bl	lv_obj_get_style_pad_bottom
	.loc	10 665 20                       @ lvgl/src/lv_widgets/lv_arc.c:665:20
	strh.w	r0, [sp, #176]
	.loc	10 666 30 is_stmt 1             @ lvgl/src/lv_widgets/lv_arc.c:666:30
	ldrsh.w	r0, [sp, #198]
	.loc	10 666 38 is_stmt 0             @ lvgl/src/lv_widgets/lv_arc.c:666:38
	str	r0, [sp, #52]                   @ 4-byte Spill
	ldrsh.w	r0, [sp, #182]
	ldrsh.w	r1, [sp, #180]
	cmp	r0, r1
	ble	.LBB2_7
	b	.LBB2_6
.LBB2_6:
	ldrsh.w	r0, [sp, #182]
	str	r0, [sp, #44]                   @ 4-byte Spill
	b	.LBB2_8
.LBB2_7:
	ldrsh.w	r0, [sp, #180]
	str	r0, [sp, #44]                   @ 4-byte Spill
	b	.LBB2_8
.LBB2_8:
	ldr	r0, [sp, #44]                   @ 4-byte Reload
	str	r0, [sp, #40]                   @ 4-byte Spill
	ldrsh.w	r0, [sp, #178]
	ldrsh.w	r1, [sp, #176]
	cmp	r0, r1
	ble	.LBB2_10
	b	.LBB2_9
.LBB2_9:
	ldrsh.w	r0, [sp, #178]
	str	r0, [sp, #36]                   @ 4-byte Spill
	b	.LBB2_11
.LBB2_10:
	ldrsh.w	r0, [sp, #176]
	str	r0, [sp, #36]                   @ 4-byte Spill
	b	.LBB2_11
.LBB2_11:
	ldr	r0, [sp, #40]                   @ 4-byte Reload
	ldr	r1, [sp, #36]                   @ 4-byte Reload
	cmp	r0, r1
	ble	.LBB2_16
	b	.LBB2_12
.LBB2_12:
	ldrsh.w	r0, [sp, #182]
	ldrsh.w	r1, [sp, #180]
	cmp	r0, r1
	ble	.LBB2_14
	b	.LBB2_13
.LBB2_13:
	ldrsh.w	r0, [sp, #182]
	str	r0, [sp, #32]                   @ 4-byte Spill
	b	.LBB2_15
.LBB2_14:
	ldrsh.w	r0, [sp, #180]
	str	r0, [sp, #32]                   @ 4-byte Spill
	b	.LBB2_15
.LBB2_15:
	ldr	r0, [sp, #32]                   @ 4-byte Reload
	str	r0, [sp, #28]                   @ 4-byte Spill
	b	.LBB2_20
.LBB2_16:
	ldrsh.w	r0, [sp, #178]
	ldrsh.w	r1, [sp, #176]
	cmp	r0, r1
	ble	.LBB2_18
	b	.LBB2_17
.LBB2_17:
	ldrsh.w	r0, [sp, #178]
	str	r0, [sp, #24]                   @ 4-byte Spill
	b	.LBB2_19
.LBB2_18:
	ldrsh.w	r0, [sp, #176]
	str	r0, [sp, #24]                   @ 4-byte Spill
	b	.LBB2_19
.LBB2_19:
	ldr	r0, [sp, #24]                   @ 4-byte Reload
	str	r0, [sp, #28]                   @ 4-byte Spill
	b	.LBB2_20
.LBB2_20:
	ldr	r0, [sp, #52]                   @ 4-byte Reload
	ldr	r1, [sp, #28]                   @ 4-byte Reload
	.loc	10 666 36                       @ lvgl/src/lv_widgets/lv_arc.c:666:36
	subs	r0, r0, r1
	.loc	10 666 20                       @ lvgl/src/lv_widgets/lv_arc.c:666:20
	strh.w	r0, [sp, #174]
.Ltmp160:
	.loc	10 668 12 is_stmt 1             @ lvgl/src/lv_widgets/lv_arc.c:668:12
	ldrsh.w	r0, [sp, #174]
.Ltmp161:
	.loc	10 668 12 is_stmt 0             @ lvgl/src/lv_widgets/lv_arc.c:668:12
	cmp	r0, #1
	blt	.LBB2_22
	b	.LBB2_21
.LBB2_21:
	.loc	10 0 12                         @ lvgl/src/lv_widgets/lv_arc.c:0:12
	add	r5, sp, #184
.Ltmp162:
	.loc	10 669 13 is_stmt 1             @ lvgl/src/lv_widgets/lv_arc.c:669:13
	mov	r0, r5
	bl	lv_draw_line_dsc_init
	.loc	10 670 39                       @ lvgl/src/lv_widgets/lv_arc.c:670:39
	ldr	r0, [sp, #320]
	movs	r1, #1
	.loc	10 670 13 is_stmt 0             @ lvgl/src/lv_widgets/lv_arc.c:670:13
	mov	r2, r5
	bl	lv_obj_init_draw_line_dsc
	.loc	10 672 32 is_stmt 1             @ lvgl/src/lv_widgets/lv_arc.c:672:32
	ldrsh.w	r0, [sp, #200]
	.loc	10 672 42 is_stmt 0             @ lvgl/src/lv_widgets/lv_arc.c:672:42
	ldrsh.w	r1, [sp, #202]
	.loc	10 672 45                       @ lvgl/src/lv_widgets/lv_arc.c:672:45
	ldrh.w	r2, [sp, #174]
	.loc	10 672 54                       @ lvgl/src/lv_widgets/lv_arc.c:672:54
	ldr.w	r12, [sp, #308]
	ldrh.w	r3, [r12, #2]
	.loc	10 672 82                       @ lvgl/src/lv_widgets/lv_arc.c:672:82
	ldrh.w	lr, [r12]
	.loc	10 672 75                       @ lvgl/src/lv_widgets/lv_arc.c:672:75
	add	r3, lr
	.loc	10 673 25 is_stmt 1             @ lvgl/src/lv_widgets/lv_arc.c:673:25
	ldrh.w	r12, [r12, #4]
	.loc	10 673 44 is_stmt 0             @ lvgl/src/lv_widgets/lv_arc.c:673:44
	add	r12, lr
	.loc	10 673 67                       @ lvgl/src/lv_widgets/lv_arc.c:673:67
	ldr	r4, [sp, #316]
	.loc	10 672 13 is_stmt 1             @ lvgl/src/lv_widgets/lv_arc.c:672:13
	mov	lr, sp
	str.w	r5, [lr, #8]
	str.w	r4, [lr, #4]
	uxth.w	r12, r12
	str.w	r12, [lr]
	uxth	r3, r3
	bl	lv_draw_arc
	.loc	10 675 9                        @ lvgl/src/lv_widgets/lv_arc.c:675:9
	b	.LBB2_22
.Ltmp163:
.LBB2_22:
	.loc	10 677 12                       @ lvgl/src/lv_widgets/lv_arc.c:677:12
	ldr	r0, [sp, #308]
	.loc	10 677 17 is_stmt 0             @ lvgl/src/lv_widgets/lv_arc.c:677:17
	ldrb.w	r0, [r0, #34]
	lsrs	r0, r0, #3
.Ltmp164:
	.loc	10 677 12                       @ lvgl/src/lv_widgets/lv_arc.c:677:12
	lsls	r0, r0, #31
	cbz	r0, .LBB2_24
	b	.LBB2_23
.LBB2_23:
.Ltmp165:
	.loc	10 679 27 is_stmt 1             @ lvgl/src/lv_widgets/lv_arc.c:679:27
	ldr	r0, [sp, #320]
	.loc	10 679 41 is_stmt 0             @ lvgl/src/lv_widgets/lv_arc.c:679:41
	ldrsh.w	r2, [sp, #198]
	add	r1, sp, #200
	add	r3, sp, #164
	.loc	10 679 13                       @ lvgl/src/lv_widgets/lv_arc.c:679:13
	str	r3, [sp, #16]                   @ 4-byte Spill
	bl	get_knob_area
	add	r0, sp, #60
	.loc	10 682 13 is_stmt 1             @ lvgl/src/lv_widgets/lv_arc.c:682:13
	str	r0, [sp, #20]                   @ 4-byte Spill
	bl	lv_draw_rect_dsc_init
	ldr	r2, [sp, #20]                   @ 4-byte Reload
	.loc	10 683 39                       @ lvgl/src/lv_widgets/lv_arc.c:683:39
	ldr	r0, [sp, #320]
	movs	r1, #2
	.loc	10 683 13 is_stmt 0             @ lvgl/src/lv_widgets/lv_arc.c:683:13
	bl	lv_obj_init_draw_rect_dsc
	ldr	r0, [sp, #16]                   @ 4-byte Reload
	ldr	r2, [sp, #20]                   @ 4-byte Reload
	.loc	10 685 38 is_stmt 1             @ lvgl/src/lv_widgets/lv_arc.c:685:38
	ldr	r1, [sp, #316]
	.loc	10 685 13 is_stmt 0             @ lvgl/src/lv_widgets/lv_arc.c:685:13
	bl	lv_draw_rect
	.loc	10 686 9 is_stmt 1              @ lvgl/src/lv_widgets/lv_arc.c:686:9
	b	.LBB2_24
.Ltmp166:
.LBB2_24:
	.loc	10 688 5                        @ lvgl/src/lv_widgets/lv_arc.c:688:5
	b	.LBB2_28
.Ltmp167:
.LBB2_25:
	.loc	10 690 13                       @ lvgl/src/lv_widgets/lv_arc.c:690:13
	ldrb.w	r0, [sp, #315]
.Ltmp168:
	.loc	10 690 13 is_stmt 0             @ lvgl/src/lv_widgets/lv_arc.c:690:13
	cmp	r0, #1
	bne	.LBB2_27
	b	.LBB2_26
.LBB2_26:
.Ltmp169:
	.loc	10 691 5 is_stmt 1              @ lvgl/src/lv_widgets/lv_arc.c:691:5
	b	.LBB2_27
.Ltmp170:
.LBB2_27:
	.loc	10 0 5 is_stmt 0                @ lvgl/src/lv_widgets/lv_arc.c:0:5
	b	.LBB2_28
.LBB2_28:
	b	.LBB2_29
.LBB2_29:
	movs	r0, #0
	.loc	10 693 5 is_stmt 1              @ lvgl/src/lv_widgets/lv_arc.c:693:5
	strb.w	r0, [sp, #327]
	b	.LBB2_30
.LBB2_30:
	.loc	10 694 1                        @ lvgl/src/lv_widgets/lv_arc.c:694:1
	ldrb.w	r0, [sp, #327]
	add	sp, #328
	pop	{r4, r5, r7, pc}
.Ltmp171:
.Lfunc_end2:
	.size	lv_arc_design, .Lfunc_end2-lv_arc_design
	.cfi_endproc
	.cantunwind
	.fnend
                                        @ -- End function
	.section	.text.lv_arc_set_value,"ax",%progbits
	.hidden	lv_arc_set_value                @ -- Begin function lv_arc_set_value
	.globl	lv_arc_set_value
	.p2align	3
	.type	lv_arc_set_value,%function
	.code	16                              @ @lv_arc_set_value
	.thumb_func
lv_arc_set_value:
.Lfunc_begin3:
	.loc	10 395 0                        @ lvgl/src/lv_widgets/lv_arc.c:395:0
	.fnstart
	.cfi_startproc
@ %bb.0:
	.save	{r7, lr}
	push	{r7, lr}
	.cfi_def_cfa_offset 8
	.cfi_offset lr, -4
	.cfi_offset r7, -8
	.pad	#24
	sub	sp, #24
	.cfi_def_cfa_offset 32
                                        @ kill: def $r2 killed $r1
	str	r0, [sp, #20]
	strh.w	r1, [sp, #18]
.Ltmp172:
	.loc	10 396 5 prologue_end           @ lvgl/src/lv_widgets/lv_arc.c:396:5
	b	.LBB3_1
.LBB3_1:
.Ltmp173:
	.loc	10 396 5 is_stmt 0              @ lvgl/src/lv_widgets/lv_arc.c:396:5
	ldr	r0, [sp, #20]
	bl	lv_debug_check_null
.Ltmp174:
	.loc	10 396 5                        @ lvgl/src/lv_widgets/lv_arc.c:396:5
	cbnz	r0, .LBB3_4
	b	.LBB3_2
.LBB3_2:
.Ltmp175:
	.loc	10 396 5                        @ lvgl/src/lv_widgets/lv_arc.c:396:5
	ldr	r2, [sp, #20]
	movw	r0, :lower16:.L.str.1
	movt	r0, :upper16:.L.str.1
	movs	r3, #0
	bl	lv_debug_log_error
	b	.LBB3_3
.LBB3_3:                                @ =>This Inner Loop Header: Depth=1
	b	.LBB3_3
.Ltmp176:
.LBB3_4:
	.loc	10 396 5                        @ lvgl/src/lv_widgets/lv_arc.c:396:5
	b	.LBB3_5
.Ltmp177:
.LBB3_5:
	.loc	10 398 62 is_stmt 1             @ lvgl/src/lv_widgets/lv_arc.c:398:62
	ldr	r0, [sp, #20]
	.loc	10 398 42 is_stmt 0             @ lvgl/src/lv_widgets/lv_arc.c:398:42
	bl	lv_obj_get_ext_attr
	.loc	10 398 20                       @ lvgl/src/lv_widgets/lv_arc.c:398:20
	str	r0, [sp, #12]
.Ltmp178:
	.loc	10 399 8 is_stmt 1              @ lvgl/src/lv_widgets/lv_arc.c:399:8
	ldr	r0, [sp, #12]
	.loc	10 399 13 is_stmt 0             @ lvgl/src/lv_widgets/lv_arc.c:399:13
	ldrsh.w	r0, [r0, #28]
	.loc	10 399 26                       @ lvgl/src/lv_widgets/lv_arc.c:399:26
	ldrsh.w	r1, [sp, #18]
.Ltmp179:
	.loc	10 399 8                        @ lvgl/src/lv_widgets/lv_arc.c:399:8
	cmp	r0, r1
	bne	.LBB3_7
	b	.LBB3_6
.LBB3_6:
.Ltmp180:
	.loc	10 399 33                       @ lvgl/src/lv_widgets/lv_arc.c:399:33
	b	.LBB3_16
.Ltmp181:
.LBB3_7:
	.loc	10 402 17 is_stmt 1             @ lvgl/src/lv_widgets/lv_arc.c:402:17
	ldrsh.w	r0, [sp, #18]
	.loc	10 402 25 is_stmt 0             @ lvgl/src/lv_widgets/lv_arc.c:402:25
	ldr	r1, [sp, #12]
	.loc	10 402 30                       @ lvgl/src/lv_widgets/lv_arc.c:402:30
	ldrsh.w	r1, [r1, #32]
	.loc	10 402 17                       @ lvgl/src/lv_widgets/lv_arc.c:402:17
	cmp	r0, r1
	ble	.LBB3_9
	b	.LBB3_8
.LBB3_8:
	.loc	10 402 42                       @ lvgl/src/lv_widgets/lv_arc.c:402:42
	ldr	r0, [sp, #12]
	.loc	10 402 47                       @ lvgl/src/lv_widgets/lv_arc.c:402:47
	ldrsh.w	r0, [r0, #32]
	.loc	10 402 17                       @ lvgl/src/lv_widgets/lv_arc.c:402:17
	str	r0, [sp, #4]                    @ 4-byte Spill
	b	.LBB3_10
.LBB3_9:
	.loc	10 402 59                       @ lvgl/src/lv_widgets/lv_arc.c:402:59
	ldrsh.w	r0, [sp, #18]
	.loc	10 402 17                       @ lvgl/src/lv_widgets/lv_arc.c:402:17
	str	r0, [sp, #4]                    @ 4-byte Spill
	b	.LBB3_10
.LBB3_10:
	ldr	r0, [sp, #4]                    @ 4-byte Reload
	.loc	10 402 15                       @ lvgl/src/lv_widgets/lv_arc.c:402:15
	strh.w	r0, [sp, #10]
	.loc	10 403 17 is_stmt 1             @ lvgl/src/lv_widgets/lv_arc.c:403:17
	ldrsh.w	r0, [sp, #10]
	.loc	10 403 29 is_stmt 0             @ lvgl/src/lv_widgets/lv_arc.c:403:29
	ldr	r1, [sp, #12]
	.loc	10 403 34                       @ lvgl/src/lv_widgets/lv_arc.c:403:34
	ldrsh.w	r1, [r1, #30]
	.loc	10 403 17                       @ lvgl/src/lv_widgets/lv_arc.c:403:17
	cmp	r0, r1
	bge	.LBB3_12
	b	.LBB3_11
.LBB3_11:
	.loc	10 403 46                       @ lvgl/src/lv_widgets/lv_arc.c:403:46
	ldr	r0, [sp, #12]
	.loc	10 403 51                       @ lvgl/src/lv_widgets/lv_arc.c:403:51
	ldrsh.w	r0, [r0, #30]
	.loc	10 403 17                       @ lvgl/src/lv_widgets/lv_arc.c:403:17
	str	r0, [sp]                        @ 4-byte Spill
	b	.LBB3_13
.LBB3_12:
	.loc	10 403 63                       @ lvgl/src/lv_widgets/lv_arc.c:403:63
	ldrsh.w	r0, [sp, #10]
	.loc	10 403 17                       @ lvgl/src/lv_widgets/lv_arc.c:403:17
	str	r0, [sp]                        @ 4-byte Spill
	b	.LBB3_13
.LBB3_13:
	ldr	r0, [sp]                        @ 4-byte Reload
	.loc	10 403 15                       @ lvgl/src/lv_widgets/lv_arc.c:403:15
	strh.w	r0, [sp, #10]
.Ltmp182:
	.loc	10 405 8 is_stmt 1              @ lvgl/src/lv_widgets/lv_arc.c:405:8
	ldr	r0, [sp, #12]
	.loc	10 405 13 is_stmt 0             @ lvgl/src/lv_widgets/lv_arc.c:405:13
	ldrsh.w	r0, [r0, #28]
	.loc	10 405 26                       @ lvgl/src/lv_widgets/lv_arc.c:405:26
	ldrsh.w	r1, [sp, #10]
.Ltmp183:
	.loc	10 405 8                        @ lvgl/src/lv_widgets/lv_arc.c:405:8
	cmp	r0, r1
	bne	.LBB3_15
	b	.LBB3_14
.LBB3_14:
.Ltmp184:
	.loc	10 405 37                       @ lvgl/src/lv_widgets/lv_arc.c:405:37
	b	.LBB3_16
.Ltmp185:
.LBB3_15:
	.loc	10 406 22 is_stmt 1             @ lvgl/src/lv_widgets/lv_arc.c:406:22
	ldrh.w	r0, [sp, #10]
	.loc	10 406 5 is_stmt 0              @ lvgl/src/lv_widgets/lv_arc.c:406:5
	ldr	r1, [sp, #12]
	.loc	10 406 20                       @ lvgl/src/lv_widgets/lv_arc.c:406:20
	strh	r0, [r1, #28]
	.loc	10 408 18 is_stmt 1             @ lvgl/src/lv_widgets/lv_arc.c:408:18
	ldr	r0, [sp, #20]
	.loc	10 408 5 is_stmt 0              @ lvgl/src/lv_widgets/lv_arc.c:408:5
	bl	value_update
	.loc	10 409 1 is_stmt 1              @ lvgl/src/lv_widgets/lv_arc.c:409:1
	b	.LBB3_16
.LBB3_16:
	add	sp, #24
	pop	{r7, pc}
.Ltmp186:
.Lfunc_end3:
	.size	lv_arc_set_value, .Lfunc_end3-lv_arc_set_value
	.cfi_endproc
	.cantunwind
	.fnend
                                        @ -- End function
	.section	.text.lv_arc_set_start_angle,"ax",%progbits
	.hidden	lv_arc_set_start_angle          @ -- Begin function lv_arc_set_start_angle
	.globl	lv_arc_set_start_angle
	.p2align	3
	.type	lv_arc_set_start_angle,%function
	.code	16                              @ @lv_arc_set_start_angle
	.thumb_func
lv_arc_set_start_angle:
.Lfunc_begin4:
	.loc	10 159 0                        @ lvgl/src/lv_widgets/lv_arc.c:159:0
	.fnstart
	.cfi_startproc
@ %bb.0:
	.save	{r7, lr}
	push	{r7, lr}
	.cfi_def_cfa_offset 8
	.cfi_offset lr, -4
	.cfi_offset r7, -8
	.pad	#48
	sub	sp, #48
	.cfi_def_cfa_offset 56
                                        @ kill: def $r2 killed $r1
	str	r0, [sp, #44]
	strh.w	r1, [sp, #42]
.Ltmp187:
	.loc	10 160 5 prologue_end           @ lvgl/src/lv_widgets/lv_arc.c:160:5
	b	.LBB4_1
.LBB4_1:
.Ltmp188:
	.loc	10 160 5 is_stmt 0              @ lvgl/src/lv_widgets/lv_arc.c:160:5
	ldr	r0, [sp, #44]
	bl	lv_debug_check_null
.Ltmp189:
	.loc	10 160 5                        @ lvgl/src/lv_widgets/lv_arc.c:160:5
	cbnz	r0, .LBB4_4
	b	.LBB4_2
.LBB4_2:
.Ltmp190:
	.loc	10 160 5                        @ lvgl/src/lv_widgets/lv_arc.c:160:5
	ldr	r2, [sp, #44]
	movw	r0, :lower16:.L.str.1
	movt	r0, :upper16:.L.str.1
	movs	r3, #0
	bl	lv_debug_log_error
	b	.LBB4_3
.LBB4_3:                                @ =>This Inner Loop Header: Depth=1
	b	.LBB4_3
.Ltmp191:
.LBB4_4:
	.loc	10 160 5                        @ lvgl/src/lv_widgets/lv_arc.c:160:5
	b	.LBB4_5
.Ltmp192:
.LBB4_5:
	.loc	10 162 46 is_stmt 1             @ lvgl/src/lv_widgets/lv_arc.c:162:46
	ldr	r0, [sp, #44]
	.loc	10 162 26 is_stmt 0             @ lvgl/src/lv_widgets/lv_arc.c:162:26
	bl	lv_obj_get_ext_attr
	.loc	10 162 20                       @ lvgl/src/lv_widgets/lv_arc.c:162:20
	str	r0, [sp, #36]
.Ltmp193:
	.loc	10 164 8 is_stmt 1              @ lvgl/src/lv_widgets/lv_arc.c:164:8
	ldrh.w	r0, [sp, #42]
.Ltmp194:
	.loc	10 164 8 is_stmt 0              @ lvgl/src/lv_widgets/lv_arc.c:164:8
	cmp.w	r0, #360
	ble	.LBB4_7
	b	.LBB4_6
.LBB4_6:
.Ltmp195:
	.loc	10 164 27                       @ lvgl/src/lv_widgets/lv_arc.c:164:27
	ldrh.w	r0, [sp, #42]
	sub.w	r0, r0, #360
	strh.w	r0, [sp, #42]
	.loc	10 164 21                       @ lvgl/src/lv_widgets/lv_arc.c:164:21
	b	.LBB4_7
.Ltmp196:
.LBB4_7:
	.loc	10 167 8 is_stmt 1              @ lvgl/src/lv_widgets/lv_arc.c:167:8
	ldrh.w	r0, [sp, #42]
	ldr	r1, [sp, #36]
	ldrh	r1, [r1, #2]
	subs	r0, r0, r1
	cmp	r0, #1
	blt	.LBB4_9
	b	.LBB4_8
.LBB4_8:
	ldrh.w	r0, [sp, #42]
	ldr	r1, [sp, #36]
	ldrh	r1, [r1, #2]
	subs	r0, r0, r1
	str	r0, [sp, #32]                   @ 4-byte Spill
	b	.LBB4_10
.LBB4_9:
	ldrh.w	r1, [sp, #42]
	ldr	r0, [sp, #36]
	ldrh	r0, [r0, #2]
	subs	r0, r0, r1
	str	r0, [sp, #32]                   @ 4-byte Spill
	b	.LBB4_10
.LBB4_10:
	ldr	r0, [sp, #32]                   @ 4-byte Reload
.Ltmp197:
	.loc	10 167 8 is_stmt 0              @ lvgl/src/lv_widgets/lv_arc.c:167:8
	cmp	r0, #180
	blt	.LBB4_12
	b	.LBB4_11
.LBB4_11:
.Ltmp198:
	.loc	10 168 27 is_stmt 1             @ lvgl/src/lv_widgets/lv_arc.c:168:27
	ldr	r0, [sp, #44]
	.loc	10 168 9 is_stmt 0              @ lvgl/src/lv_widgets/lv_arc.c:168:9
	bl	lv_obj_invalidate
	.loc	10 169 5 is_stmt 1              @ lvgl/src/lv_widgets/lv_arc.c:169:5
	b	.LBB4_33
.Ltmp199:
.LBB4_12:
	.loc	10 171 13                       @ lvgl/src/lv_widgets/lv_arc.c:171:13
	ldr	r1, [sp, #36]
	.loc	10 171 18 is_stmt 0             @ lvgl/src/lv_widgets/lv_arc.c:171:18
	ldrh	r0, [r1, #2]
	.loc	10 171 41                       @ lvgl/src/lv_widgets/lv_arc.c:171:41
	ldrh	r1, [r1, #4]
	.loc	10 171 55                       @ lvgl/src/lv_widgets/lv_arc.c:171:55
	cmp	r0, r1
	ble	.LBB4_21
	b	.LBB4_13
.LBB4_13:
	.loc	10 171 58                       @ lvgl/src/lv_widgets/lv_arc.c:171:58
	ldrh.w	r0, [sp, #42]
	.loc	10 171 66                       @ lvgl/src/lv_widgets/lv_arc.c:171:66
	ldr	r1, [sp, #36]
	.loc	10 171 71                       @ lvgl/src/lv_widgets/lv_arc.c:171:71
	ldrh	r1, [r1, #4]
.Ltmp200:
	.loc	10 171 13                       @ lvgl/src/lv_widgets/lv_arc.c:171:13
	cmp	r0, r1
	ble	.LBB4_21
	b	.LBB4_14
.LBB4_14:
.Ltmp201:
	.loc	10 172 22 is_stmt 1             @ lvgl/src/lv_widgets/lv_arc.c:172:22
	ldr	r0, [sp, #44]
	.loc	10 172 27 is_stmt 0             @ lvgl/src/lv_widgets/lv_arc.c:172:27
	str	r0, [sp, #28]                   @ 4-byte Spill
	ldr	r0, [sp, #36]
	ldrh	r0, [r0, #2]
	ldrh.w	r1, [sp, #42]
	cmp	r0, r1
	bge	.LBB4_16
	b	.LBB4_15
.LBB4_15:
	ldr	r0, [sp, #36]
	ldrh	r0, [r0, #2]
	str	r0, [sp, #24]                   @ 4-byte Spill
	b	.LBB4_17
.LBB4_16:
	ldrh.w	r0, [sp, #42]
	str	r0, [sp, #24]                   @ 4-byte Spill
	b	.LBB4_17
.LBB4_17:
	ldr	r0, [sp, #24]                   @ 4-byte Reload
	.loc	10 172 69                       @ lvgl/src/lv_widgets/lv_arc.c:172:69
	str	r0, [sp, #20]                   @ 4-byte Spill
	ldr	r0, [sp, #36]
	ldrh	r0, [r0, #2]
	ldrh.w	r1, [sp, #42]
	cmp	r0, r1
	ble	.LBB4_19
	b	.LBB4_18
.LBB4_18:
	ldr	r0, [sp, #36]
	ldrh	r0, [r0, #2]
	str	r0, [sp, #16]                   @ 4-byte Spill
	b	.LBB4_20
.LBB4_19:
	ldrh.w	r0, [sp, #42]
	str	r0, [sp, #16]                   @ 4-byte Spill
	b	.LBB4_20
.LBB4_20:
	ldr	r0, [sp, #28]                   @ 4-byte Reload
	ldr	r1, [sp, #20]                   @ 4-byte Reload
	ldr	r2, [sp, #16]                   @ 4-byte Reload
	.loc	10 172 9                        @ lvgl/src/lv_widgets/lv_arc.c:172:9
	uxth	r1, r1
	uxth	r2, r2
	movs	r3, #1
	bl	inv_arc_area
	.loc	10 174 5 is_stmt 1              @ lvgl/src/lv_widgets/lv_arc.c:174:5
	b	.LBB4_32
.Ltmp202:
.LBB4_21:
	.loc	10 176 13                       @ lvgl/src/lv_widgets/lv_arc.c:176:13
	ldr	r1, [sp, #36]
	.loc	10 176 18 is_stmt 0             @ lvgl/src/lv_widgets/lv_arc.c:176:18
	ldrh	r0, [r1, #2]
	.loc	10 176 41                       @ lvgl/src/lv_widgets/lv_arc.c:176:41
	ldrh	r1, [r1, #4]
	.loc	10 176 55                       @ lvgl/src/lv_widgets/lv_arc.c:176:55
	cmp	r0, r1
	bge	.LBB4_30
	b	.LBB4_22
.LBB4_22:
	.loc	10 176 58                       @ lvgl/src/lv_widgets/lv_arc.c:176:58
	ldrh.w	r0, [sp, #42]
	.loc	10 176 66                       @ lvgl/src/lv_widgets/lv_arc.c:176:66
	ldr	r1, [sp, #36]
	.loc	10 176 71                       @ lvgl/src/lv_widgets/lv_arc.c:176:71
	ldrh	r1, [r1, #4]
.Ltmp203:
	.loc	10 176 13                       @ lvgl/src/lv_widgets/lv_arc.c:176:13
	cmp	r0, r1
	bge	.LBB4_30
	b	.LBB4_23
.LBB4_23:
.Ltmp204:
	.loc	10 177 22 is_stmt 1             @ lvgl/src/lv_widgets/lv_arc.c:177:22
	ldr	r0, [sp, #44]
	.loc	10 177 27 is_stmt 0             @ lvgl/src/lv_widgets/lv_arc.c:177:27
	str	r0, [sp, #12]                   @ 4-byte Spill
	ldr	r0, [sp, #36]
	ldrh	r0, [r0, #2]
	ldrh.w	r1, [sp, #42]
	cmp	r0, r1
	bge	.LBB4_25
	b	.LBB4_24
.LBB4_24:
	ldr	r0, [sp, #36]
	ldrh	r0, [r0, #2]
	str	r0, [sp, #8]                    @ 4-byte Spill
	b	.LBB4_26
.LBB4_25:
	ldrh.w	r0, [sp, #42]
	str	r0, [sp, #8]                    @ 4-byte Spill
	b	.LBB4_26
.LBB4_26:
	ldr	r0, [sp, #8]                    @ 4-byte Reload
	.loc	10 177 69                       @ lvgl/src/lv_widgets/lv_arc.c:177:69
	str	r0, [sp, #4]                    @ 4-byte Spill
	ldr	r0, [sp, #36]
	ldrh	r0, [r0, #2]
	ldrh.w	r1, [sp, #42]
	cmp	r0, r1
	ble	.LBB4_28
	b	.LBB4_27
.LBB4_27:
	ldr	r0, [sp, #36]
	ldrh	r0, [r0, #2]
	str	r0, [sp]                        @ 4-byte Spill
	b	.LBB4_29
.LBB4_28:
	ldrh.w	r0, [sp, #42]
	str	r0, [sp]                        @ 4-byte Spill
	b	.LBB4_29
.LBB4_29:
	ldr	r0, [sp, #12]                   @ 4-byte Reload
	ldr	r1, [sp, #4]                    @ 4-byte Reload
	ldr	r2, [sp]                        @ 4-byte Reload
	.loc	10 177 9                        @ lvgl/src/lv_widgets/lv_arc.c:177:9
	uxth	r1, r1
	uxth	r2, r2
	movs	r3, #1
	bl	inv_arc_area
	.loc	10 179 5 is_stmt 1              @ lvgl/src/lv_widgets/lv_arc.c:179:5
	b	.LBB4_31
.Ltmp205:
.LBB4_30:
	.loc	10 182 27                       @ lvgl/src/lv_widgets/lv_arc.c:182:27
	ldr	r0, [sp, #44]
	.loc	10 182 9 is_stmt 0              @ lvgl/src/lv_widgets/lv_arc.c:182:9
	bl	lv_obj_invalidate
	b	.LBB4_31
.Ltmp206:
.LBB4_31:
	.loc	10 0 9                          @ lvgl/src/lv_widgets/lv_arc.c:0:9
	b	.LBB4_32
.LBB4_32:
	b	.LBB4_33
.LBB4_33:
	.loc	10 185 28 is_stmt 1             @ lvgl/src/lv_widgets/lv_arc.c:185:28
	ldrh.w	r0, [sp, #42]
	.loc	10 185 5 is_stmt 0              @ lvgl/src/lv_widgets/lv_arc.c:185:5
	ldr	r1, [sp, #36]
	.loc	10 185 26                       @ lvgl/src/lv_widgets/lv_arc.c:185:26
	strh	r0, [r1, #2]
	.loc	10 186 1 is_stmt 1              @ lvgl/src/lv_widgets/lv_arc.c:186:1
	add	sp, #48
	pop	{r7, pc}
.Ltmp207:
.Lfunc_end4:
	.size	lv_arc_set_start_angle, .Lfunc_end4-lv_arc_set_start_angle
	.cfi_endproc
	.cantunwind
	.fnend
                                        @ -- End function
	.section	.text.inv_arc_area,"ax",%progbits
	.p2align	3                               @ -- Begin function inv_arc_area
	.type	inv_arc_area,%function
	.code	16                              @ @inv_arc_area
	.thumb_func
inv_arc_area:
.Lfunc_begin5:
	.loc	10 905 0                        @ lvgl/src/lv_widgets/lv_arc.c:905:0
	.fnstart
	.cfi_startproc
@ %bb.0:
	.save	{r7, lr}
	push	{r7, lr}
	.cfi_def_cfa_offset 8
	.cfi_offset lr, -4
	.cfi_offset r7, -8
	.pad	#256
	sub	sp, #256
	.cfi_def_cfa_offset 264
                                        @ kill: def $r12 killed $r3
                                        @ kill: def $r12 killed $r2
                                        @ kill: def $r12 killed $r1
	str	r0, [sp, #252]
	strh.w	r1, [sp, #250]
	strh.w	r2, [sp, #248]
	strb.w	r3, [sp, #247]
.Ltmp208:
	.loc	10 907 26 prologue_end          @ lvgl/src/lv_widgets/lv_arc.c:907:26
	ldr	r0, [sp, #252]
	.loc	10 907 8 is_stmt 0              @ lvgl/src/lv_widgets/lv_arc.c:907:8
	bl	lv_obj_is_visible
.Ltmp209:
	.loc	10 907 8                        @ lvgl/src/lv_widgets/lv_arc.c:907:8
	cbnz	r0, .LBB5_2
	b	.LBB5_1
.LBB5_1:
.Ltmp210:
	.loc	10 907 41                       @ lvgl/src/lv_widgets/lv_arc.c:907:41
	b.w	.LBB5_76
.Ltmp211:
.LBB5_2:
	.loc	10 909 46 is_stmt 1             @ lvgl/src/lv_widgets/lv_arc.c:909:46
	ldr	r0, [sp, #252]
	.loc	10 909 26 is_stmt 0             @ lvgl/src/lv_widgets/lv_arc.c:909:26
	bl	lv_obj_get_ext_attr
	.loc	10 909 20                       @ lvgl/src/lv_widgets/lv_arc.c:909:20
	str	r0, [sp, #240]
	.loc	10 911 20 is_stmt 1             @ lvgl/src/lv_widgets/lv_arc.c:911:20
	ldr	r0, [sp, #240]
	ldrh	r1, [r0]
	.loc	10 911 17 is_stmt 0             @ lvgl/src/lv_widgets/lv_arc.c:911:17
	ldrh.w	r0, [sp, #250]
	add	r0, r1
	strh.w	r0, [sp, #250]
	.loc	10 912 18 is_stmt 1             @ lvgl/src/lv_widgets/lv_arc.c:912:18
	ldr	r0, [sp, #240]
	ldrh	r1, [r0]
	.loc	10 912 15 is_stmt 0             @ lvgl/src/lv_widgets/lv_arc.c:912:15
	ldrh.w	r0, [sp, #248]
	add	r0, r1
	strh.w	r0, [sp, #248]
.Ltmp212:
	.loc	10 914 8 is_stmt 1              @ lvgl/src/lv_widgets/lv_arc.c:914:8
	ldrh.w	r0, [sp, #250]
.Ltmp213:
	.loc	10 914 8 is_stmt 0              @ lvgl/src/lv_widgets/lv_arc.c:914:8
	cmp.w	r0, #360
	blt	.LBB5_4
	b	.LBB5_3
.LBB5_3:
.Ltmp214:
	.loc	10 914 40                       @ lvgl/src/lv_widgets/lv_arc.c:914:40
	ldrh.w	r0, [sp, #250]
	sub.w	r0, r0, #360
	strh.w	r0, [sp, #250]
	.loc	10 914 28                       @ lvgl/src/lv_widgets/lv_arc.c:914:28
	b	.LBB5_4
.Ltmp215:
.LBB5_4:
	.loc	10 915 8 is_stmt 1              @ lvgl/src/lv_widgets/lv_arc.c:915:8
	ldrh.w	r0, [sp, #248]
.Ltmp216:
	.loc	10 915 8 is_stmt 0              @ lvgl/src/lv_widgets/lv_arc.c:915:8
	cmp.w	r0, #360
	blt	.LBB5_6
	b	.LBB5_5
.LBB5_5:
.Ltmp217:
	.loc	10 915 36                       @ lvgl/src/lv_widgets/lv_arc.c:915:36
	ldrh.w	r0, [sp, #248]
	sub.w	r0, r0, #360
	strh.w	r0, [sp, #248]
	.loc	10 915 26                       @ lvgl/src/lv_widgets/lv_arc.c:915:26
	b	.LBB5_6
.Ltmp218:
.LBB5_6:
	.loc	10 917 29 is_stmt 1             @ lvgl/src/lv_widgets/lv_arc.c:917:29
	ldrh.w	r0, [sp, #250]
	.loc	10 917 41 is_stmt 0             @ lvgl/src/lv_widgets/lv_arc.c:917:41
	lsrs	r0, r0, #1
	movw	r1, #24759
	movt	r1, #46603
	umull	r2, r0, r0, r1
	lsrs	r0, r0, #5
	.loc	10 917 13                       @ lvgl/src/lv_widgets/lv_arc.c:917:13
	strb.w	r0, [sp, #239]
	.loc	10 918 27 is_stmt 1             @ lvgl/src/lv_widgets/lv_arc.c:918:27
	ldrh.w	r0, [sp, #248]
	.loc	10 918 37 is_stmt 0             @ lvgl/src/lv_widgets/lv_arc.c:918:37
	lsrs	r0, r0, #1
	umull	r1, r0, r0, r1
	lsrs	r0, r0, #5
	.loc	10 918 13                       @ lvgl/src/lv_widgets/lv_arc.c:918:13
	strb.w	r0, [sp, #238]
	.loc	10 920 49 is_stmt 1             @ lvgl/src/lv_widgets/lv_arc.c:920:49
	ldr	r0, [sp, #252]
	movs	r1, #0
	.loc	10 920 23 is_stmt 0             @ lvgl/src/lv_widgets/lv_arc.c:920:23
	str	r1, [sp, #188]                  @ 4-byte Spill
	bl	lv_obj_get_style_pad_left
	ldr	r1, [sp, #188]                  @ 4-byte Reload
	.loc	10 920 16                       @ lvgl/src/lv_widgets/lv_arc.c:920:16
	strh.w	r0, [sp, #236]
	.loc	10 921 51 is_stmt 1             @ lvgl/src/lv_widgets/lv_arc.c:921:51
	ldr	r0, [sp, #252]
	.loc	10 921 24 is_stmt 0             @ lvgl/src/lv_widgets/lv_arc.c:921:24
	bl	lv_obj_get_style_pad_right
	ldr	r1, [sp, #188]                  @ 4-byte Reload
	.loc	10 921 16                       @ lvgl/src/lv_widgets/lv_arc.c:921:16
	strh.w	r0, [sp, #234]
	.loc	10 922 47 is_stmt 1             @ lvgl/src/lv_widgets/lv_arc.c:922:47
	ldr	r0, [sp, #252]
	.loc	10 922 22 is_stmt 0             @ lvgl/src/lv_widgets/lv_arc.c:922:22
	bl	lv_obj_get_style_pad_top
	ldr	r1, [sp, #188]                  @ 4-byte Reload
	.loc	10 922 16                       @ lvgl/src/lv_widgets/lv_arc.c:922:16
	strh.w	r0, [sp, #232]
	.loc	10 923 53 is_stmt 1             @ lvgl/src/lv_widgets/lv_arc.c:923:53
	ldr	r0, [sp, #252]
	.loc	10 923 25 is_stmt 0             @ lvgl/src/lv_widgets/lv_arc.c:923:25
	bl	lv_obj_get_style_pad_bottom
	.loc	10 923 16                       @ lvgl/src/lv_widgets/lv_arc.c:923:16
	strh.w	r0, [sp, #230]
	.loc	10 924 30 is_stmt 1             @ lvgl/src/lv_widgets/lv_arc.c:924:30
	ldr	r0, [sp, #252]
	bl	lv_obj_get_width
	ldrsh.w	r1, [sp, #236]
	subs	r0, r0, r1
	ldrsh.w	r1, [sp, #234]
	subs	r0, r0, r1
	str	r0, [sp, #192]                  @ 4-byte Spill
	ldr	r0, [sp, #252]
	bl	lv_obj_get_height
	mov	r1, r0
	ldr	r0, [sp, #192]                  @ 4-byte Reload
	ldrsh.w	r2, [sp, #232]
	subs	r1, r1, r2
	ldrsh.w	r2, [sp, #230]
	subs	r1, r1, r2
	cmp	r0, r1
	bge	.LBB5_8
	b	.LBB5_7
.LBB5_7:
	ldr	r0, [sp, #252]
	bl	lv_obj_get_width
	ldrsh.w	r1, [sp, #236]
	subs	r0, r0, r1
	ldrsh.w	r1, [sp, #234]
	subs	r0, r0, r1
	str	r0, [sp, #184]                  @ 4-byte Spill
	b	.LBB5_9
.LBB5_8:
	ldr	r0, [sp, #252]
	bl	lv_obj_get_height
	ldrsh.w	r1, [sp, #232]
	subs	r0, r0, r1
	ldrsh.w	r1, [sp, #230]
	subs	r0, r0, r1
	str	r0, [sp, #184]                  @ 4-byte Spill
	b	.LBB5_9
.LBB5_9:
	ldr	r0, [sp, #184]                  @ 4-byte Reload
	.loc	10 924 120 is_stmt 0            @ lvgl/src/lv_widgets/lv_arc.c:924:120
	add.w	r0, r0, r0, lsr #31
	lsrs	r0, r0, #1
	.loc	10 924 16                       @ lvgl/src/lv_widgets/lv_arc.c:924:16
	strh.w	r0, [sp, #228]
	.loc	10 925 26 is_stmt 1             @ lvgl/src/lv_widgets/lv_arc.c:925:26
	ldr	r0, [sp, #252]
	ldrh	r0, [r0, #16]
	.loc	10 925 43 is_stmt 0             @ lvgl/src/lv_widgets/lv_arc.c:925:43
	ldrh.w	r1, [sp, #228]
	.loc	10 925 41                       @ lvgl/src/lv_widgets/lv_arc.c:925:41
	add	r0, r1
	.loc	10 925 50                       @ lvgl/src/lv_widgets/lv_arc.c:925:50
	ldrh.w	r1, [sp, #236]
	.loc	10 925 48                       @ lvgl/src/lv_widgets/lv_arc.c:925:48
	add	r0, r1
	.loc	10 925 16                       @ lvgl/src/lv_widgets/lv_arc.c:925:16
	strh.w	r0, [sp, #226]
	.loc	10 926 26 is_stmt 1             @ lvgl/src/lv_widgets/lv_arc.c:926:26
	ldr	r0, [sp, #252]
	ldrh	r0, [r0, #18]
	.loc	10 926 43 is_stmt 0             @ lvgl/src/lv_widgets/lv_arc.c:926:43
	ldrh.w	r1, [sp, #228]
	.loc	10 926 41                       @ lvgl/src/lv_widgets/lv_arc.c:926:41
	add	r0, r1
	.loc	10 926 50                       @ lvgl/src/lv_widgets/lv_arc.c:926:50
	ldrh.w	r1, [sp, #232]
	.loc	10 926 48                       @ lvgl/src/lv_widgets/lv_arc.c:926:48
	add	r0, r1
	.loc	10 926 16                       @ lvgl/src/lv_widgets/lv_arc.c:926:16
	strh.w	r0, [sp, #224]
	.loc	10 927 52 is_stmt 1             @ lvgl/src/lv_widgets/lv_arc.c:927:52
	ldr	r0, [sp, #252]
	.loc	10 927 57 is_stmt 0             @ lvgl/src/lv_widgets/lv_arc.c:927:57
	ldrb.w	r1, [sp, #247]
	.loc	10 927 24                       @ lvgl/src/lv_widgets/lv_arc.c:927:24
	bl	lv_obj_get_style_line_width
	.loc	10 927 20                       @ lvgl/src/lv_widgets/lv_arc.c:927:20
	strh.w	r0, [sp, #222]
	.loc	10 928 60 is_stmt 1             @ lvgl/src/lv_widgets/lv_arc.c:928:60
	ldr	r0, [sp, #252]
	.loc	10 928 65 is_stmt 0             @ lvgl/src/lv_widgets/lv_arc.c:928:65
	ldrb.w	r1, [sp, #247]
	.loc	10 928 30                       @ lvgl/src/lv_widgets/lv_arc.c:928:30
	bl	lv_obj_get_style_line_rounded
	.loc	10 928 20                       @ lvgl/src/lv_widgets/lv_arc.c:928:20
	strh.w	r0, [sp, #220]
	.loc	10 929 28 is_stmt 1             @ lvgl/src/lv_widgets/lv_arc.c:929:28
	ldrh.w	r0, [sp, #228]
	.loc	10 929 35 is_stmt 0             @ lvgl/src/lv_widgets/lv_arc.c:929:35
	ldrh.w	r1, [sp, #222]
	.loc	10 929 33                       @ lvgl/src/lv_widgets/lv_arc.c:929:33
	subs	r0, r0, r1
	.loc	10 929 16                       @ lvgl/src/lv_widgets/lv_arc.c:929:16
	strh.w	r0, [sp, #218]
	movs	r0, #0
	.loc	10 930 16 is_stmt 1             @ lvgl/src/lv_widgets/lv_arc.c:930:16
	strh.w	r0, [sp, #216]
	.loc	10 932 18                       @ lvgl/src/lv_widgets/lv_arc.c:932:18
	ldrsh.w	r0, [sp, #220]
	cbz	r0, .LBB5_11
	b	.LBB5_10
.LBB5_10:
	.loc	10 932 28 is_stmt 0             @ lvgl/src/lv_widgets/lv_arc.c:932:28
	ldrsh.w	r0, [sp, #222]
	.loc	10 932 30                       @ lvgl/src/lv_widgets/lv_arc.c:932:30
	add.w	r1, r0, r0, lsr #31
	movs	r0, #2
	.loc	10 932 34                       @ lvgl/src/lv_widgets/lv_arc.c:932:34
	add.w	r0, r0, r1, asr #1
	.loc	10 932 18                       @ lvgl/src/lv_widgets/lv_arc.c:932:18
	str	r0, [sp, #180]                  @ 4-byte Spill
	b	.LBB5_12
.LBB5_11:
	.loc	10 0 18                         @ lvgl/src/lv_widgets/lv_arc.c:0:18
	movs	r0, #0
	.loc	10 932 18                       @ lvgl/src/lv_widgets/lv_arc.c:932:18
	str	r0, [sp, #180]                  @ 4-byte Spill
	b	.LBB5_12
.LBB5_12:
	ldr	r0, [sp, #180]                  @ 4-byte Reload
	.loc	10 932 16                       @ lvgl/src/lv_widgets/lv_arc.c:932:16
	strh.w	r0, [sp, #216]
.Ltmp219:
	.loc	10 934 8 is_stmt 1              @ lvgl/src/lv_widgets/lv_arc.c:934:8
	ldrb.w	r0, [sp, #247]
	.loc	10 934 34 is_stmt 0             @ lvgl/src/lv_widgets/lv_arc.c:934:34
	cmp	r0, #1
	bne.w	.LBB5_33
	b	.LBB5_13
.LBB5_13:
	.loc	10 934 62                       @ lvgl/src/lv_widgets/lv_arc.c:934:62
	ldr	r0, [sp, #240]
	.loc	10 934 67                       @ lvgl/src/lv_widgets/lv_arc.c:934:67
	adds	r0, #20
	movs	r1, #0
	.loc	10 934 37                       @ lvgl/src/lv_widgets/lv_arc.c:934:37
	bl	lv_style_list_get_style
.Ltmp220:
	.loc	10 934 8                        @ lvgl/src/lv_widgets/lv_arc.c:934:8
	cmp	r0, #0
	beq.w	.LBB5_33
	b	.LBB5_14
.LBB5_14:
.Ltmp221:
	.loc	10 935 72 is_stmt 1             @ lvgl/src/lv_widgets/lv_arc.c:935:72
	ldr	r0, [sp, #252]
	movs	r1, #2
	.loc	10 935 38 is_stmt 0             @ lvgl/src/lv_widgets/lv_arc.c:935:38
	str	r1, [sp, #176]                  @ 4-byte Spill
	bl	lv_obj_get_draw_rect_ext_pad_size
	ldr	r1, [sp, #176]                  @ 4-byte Reload
	.loc	10 935 20                       @ lvgl/src/lv_widgets/lv_arc.c:935:20
	strh.w	r0, [sp, #214]
	.loc	10 937 58 is_stmt 1             @ lvgl/src/lv_widgets/lv_arc.c:937:58
	ldr	r0, [sp, #252]
	.loc	10 937 32 is_stmt 0             @ lvgl/src/lv_widgets/lv_arc.c:937:32
	bl	lv_obj_get_style_pad_left
	ldr	r1, [sp, #176]                  @ 4-byte Reload
	.loc	10 937 20                       @ lvgl/src/lv_widgets/lv_arc.c:937:20
	strh.w	r0, [sp, #212]
	.loc	10 938 60 is_stmt 1             @ lvgl/src/lv_widgets/lv_arc.c:938:60
	ldr	r0, [sp, #252]
	.loc	10 938 33 is_stmt 0             @ lvgl/src/lv_widgets/lv_arc.c:938:33
	bl	lv_obj_get_style_pad_right
	ldr	r1, [sp, #176]                  @ 4-byte Reload
	.loc	10 938 20                       @ lvgl/src/lv_widgets/lv_arc.c:938:20
	strh.w	r0, [sp, #210]
	.loc	10 939 56 is_stmt 1             @ lvgl/src/lv_widgets/lv_arc.c:939:56
	ldr	r0, [sp, #252]
	.loc	10 939 31 is_stmt 0             @ lvgl/src/lv_widgets/lv_arc.c:939:31
	bl	lv_obj_get_style_pad_top
	ldr	r1, [sp, #176]                  @ 4-byte Reload
	.loc	10 939 20                       @ lvgl/src/lv_widgets/lv_arc.c:939:20
	strh.w	r0, [sp, #208]
	.loc	10 940 62 is_stmt 1             @ lvgl/src/lv_widgets/lv_arc.c:940:62
	ldr	r0, [sp, #252]
	.loc	10 940 34 is_stmt 0             @ lvgl/src/lv_widgets/lv_arc.c:940:34
	bl	lv_obj_get_style_pad_bottom
	.loc	10 940 20                       @ lvgl/src/lv_widgets/lv_arc.c:940:20
	strh.w	r0, [sp, #206]
	.loc	10 942 28 is_stmt 1             @ lvgl/src/lv_widgets/lv_arc.c:942:28
	ldrsh.w	r0, [sp, #212]
	ldrsh.w	r1, [sp, #210]
	cmp	r0, r1
	ble	.LBB5_16
	b	.LBB5_15
.LBB5_15:
	ldrsh.w	r0, [sp, #212]
	str	r0, [sp, #172]                  @ 4-byte Spill
	b	.LBB5_17
.LBB5_16:
	ldrsh.w	r0, [sp, #210]
	str	r0, [sp, #172]                  @ 4-byte Spill
	b	.LBB5_17
.LBB5_17:
	ldr	r0, [sp, #172]                  @ 4-byte Reload
	str	r0, [sp, #168]                  @ 4-byte Spill
	ldrsh.w	r0, [sp, #208]
	ldrsh.w	r1, [sp, #206]
	cmp	r0, r1
	ble	.LBB5_19
	b	.LBB5_18
.LBB5_18:
	ldrsh.w	r0, [sp, #208]
	str	r0, [sp, #164]                  @ 4-byte Spill
	b	.LBB5_20
.LBB5_19:
	ldrsh.w	r0, [sp, #206]
	str	r0, [sp, #164]                  @ 4-byte Spill
	b	.LBB5_20
.LBB5_20:
	ldr	r0, [sp, #168]                  @ 4-byte Reload
	ldr	r1, [sp, #164]                  @ 4-byte Reload
	cmp	r0, r1
	ble	.LBB5_25
	b	.LBB5_21
.LBB5_21:
	ldrsh.w	r0, [sp, #212]
	ldrsh.w	r1, [sp, #210]
	cmp	r0, r1
	ble	.LBB5_23
	b	.LBB5_22
.LBB5_22:
	ldrsh.w	r0, [sp, #212]
	str	r0, [sp, #160]                  @ 4-byte Spill
	b	.LBB5_24
.LBB5_23:
	ldrsh.w	r0, [sp, #210]
	str	r0, [sp, #160]                  @ 4-byte Spill
	b	.LBB5_24
.LBB5_24:
	ldr	r0, [sp, #160]                  @ 4-byte Reload
	str	r0, [sp, #156]                  @ 4-byte Spill
	b	.LBB5_29
.LBB5_25:
	ldrsh.w	r0, [sp, #208]
	ldrsh.w	r1, [sp, #206]
	cmp	r0, r1
	ble	.LBB5_27
	b	.LBB5_26
.LBB5_26:
	ldrsh.w	r0, [sp, #208]
	str	r0, [sp, #152]                  @ 4-byte Spill
	b	.LBB5_28
.LBB5_27:
	ldrsh.w	r0, [sp, #206]
	str	r0, [sp, #152]                  @ 4-byte Spill
	b	.LBB5_28
.LBB5_28:
	ldr	r0, [sp, #152]                  @ 4-byte Reload
	str	r0, [sp, #156]                  @ 4-byte Spill
	b	.LBB5_29
.LBB5_29:
	ldr	r1, [sp, #156]                  @ 4-byte Reload
	.loc	10 942 25 is_stmt 0             @ lvgl/src/lv_widgets/lv_arc.c:942:25
	ldrh.w	r0, [sp, #214]
	add	r0, r1
	strh.w	r0, [sp, #214]
	.loc	10 944 22 is_stmt 1             @ lvgl/src/lv_widgets/lv_arc.c:944:22
	ldrsh.w	r0, [sp, #216]
	ldrsh.w	r1, [sp, #222]
	add.w	r2, r1, r1, lsr #31
	ldrsh.w	r1, [sp, #214]
	add.w	r1, r1, r2, asr #1
	adds	r1, #2
	cmp	r0, r1
	ble	.LBB5_31
	b	.LBB5_30
.LBB5_30:
	ldrsh.w	r0, [sp, #216]
	str	r0, [sp, #148]                  @ 4-byte Spill
	b	.LBB5_32
.LBB5_31:
	ldrsh.w	r0, [sp, #222]
	add.w	r1, r0, r0, lsr #31
	ldrsh.w	r0, [sp, #214]
	add.w	r0, r0, r1, asr #1
	adds	r0, #2
	str	r0, [sp, #148]                  @ 4-byte Spill
	b	.LBB5_32
.LBB5_32:
	ldr	r0, [sp, #148]                  @ 4-byte Reload
	.loc	10 944 20 is_stmt 0             @ lvgl/src/lv_widgets/lv_arc.c:944:20
	strh.w	r0, [sp, #216]
	.loc	10 946 5 is_stmt 1              @ lvgl/src/lv_widgets/lv_arc.c:946:5
	b	.LBB5_33
.Ltmp222:
.LBB5_33:
	.loc	10 950 8                        @ lvgl/src/lv_widgets/lv_arc.c:950:8
	ldrb.w	r0, [sp, #239]
	.loc	10 950 25 is_stmt 0             @ lvgl/src/lv_widgets/lv_arc.c:950:25
	ldrb.w	r1, [sp, #238]
	.loc	10 950 37                       @ lvgl/src/lv_widgets/lv_arc.c:950:37
	cmp	r0, r1
	bne.w	.LBB5_47
	b	.LBB5_34
.LBB5_34:
	.loc	10 950 40                       @ lvgl/src/lv_widgets/lv_arc.c:950:40
	ldrh.w	r0, [sp, #250]
	.loc	10 950 55                       @ lvgl/src/lv_widgets/lv_arc.c:950:55
	ldrh.w	r1, [sp, #248]
.Ltmp223:
	.loc	10 950 8                        @ lvgl/src/lv_widgets/lv_arc.c:950:8
	cmp	r0, r1
	bgt.w	.LBB5_47
	b	.LBB5_35
.LBB5_35:
.Ltmp224:
	.loc	10 951 12 is_stmt 1             @ lvgl/src/lv_widgets/lv_arc.c:951:12
	ldrb.w	r0, [sp, #239]
.Ltmp225:
	.loc	10 951 12 is_stmt 0             @ lvgl/src/lv_widgets/lv_arc.c:951:12
	cmp	r0, #0
	bne	.LBB5_37
	b	.LBB5_36
.LBB5_36:
.Ltmp226:
	.loc	10 952 27 is_stmt 1             @ lvgl/src/lv_widgets/lv_arc.c:952:27
	ldrh.w	r0, [sp, #224]
	.loc	10 952 47 is_stmt 0             @ lvgl/src/lv_widgets/lv_arc.c:952:47
	str	r0, [sp, #132]                  @ 4-byte Spill
	ldrsh.w	r0, [sp, #250]
	.loc	10 952 33                       @ lvgl/src/lv_widgets/lv_arc.c:952:33
	bl	_lv_trigo_sin
	mov	r1, r0
	.loc	10 952 62                       @ lvgl/src/lv_widgets/lv_arc.c:952:62
	ldr	r0, [sp, #132]                  @ 4-byte Reload
	ldrsh.w	r2, [sp, #218]
	.loc	10 952 60                       @ lvgl/src/lv_widgets/lv_arc.c:952:60
	muls	r1, r2, r1
	.loc	10 952 29                       @ lvgl/src/lv_widgets/lv_arc.c:952:29
	add.w	r0, r0, r1, lsr #15
	.loc	10 952 88                       @ lvgl/src/lv_widgets/lv_arc.c:952:88
	ldrh.w	r1, [sp, #216]
	.loc	10 952 86                       @ lvgl/src/lv_widgets/lv_arc.c:952:86
	subs	r0, r0, r1
	.loc	10 952 25                       @ lvgl/src/lv_widgets/lv_arc.c:952:25
	strh.w	r0, [sp, #198]
	.loc	10 953 27 is_stmt 1             @ lvgl/src/lv_widgets/lv_arc.c:953:27
	ldrh.w	r0, [sp, #226]
	.loc	10 953 47 is_stmt 0             @ lvgl/src/lv_widgets/lv_arc.c:953:47
	str	r0, [sp, #136]                  @ 4-byte Spill
	ldrh.w	r0, [sp, #250]
	.loc	10 953 59                       @ lvgl/src/lv_widgets/lv_arc.c:953:59
	adds	r0, #90
	.loc	10 953 33                       @ lvgl/src/lv_widgets/lv_arc.c:953:33
	sxth	r0, r0
	bl	_lv_trigo_sin
	mov	r1, r0
	.loc	10 953 67                       @ lvgl/src/lv_widgets/lv_arc.c:953:67
	ldr	r0, [sp, #136]                  @ 4-byte Reload
	ldrsh.w	r2, [sp, #228]
	.loc	10 953 65                       @ lvgl/src/lv_widgets/lv_arc.c:953:65
	muls	r1, r2, r1
	.loc	10 953 29                       @ lvgl/src/lv_widgets/lv_arc.c:953:29
	add.w	r0, r0, r1, lsr #15
	.loc	10 953 94                       @ lvgl/src/lv_widgets/lv_arc.c:953:94
	ldrh.w	r1, [sp, #216]
	.loc	10 953 92                       @ lvgl/src/lv_widgets/lv_arc.c:953:92
	add	r0, r1
	.loc	10 953 25                       @ lvgl/src/lv_widgets/lv_arc.c:953:25
	strh.w	r0, [sp, #200]
	.loc	10 955 27 is_stmt 1             @ lvgl/src/lv_widgets/lv_arc.c:955:27
	ldrh.w	r0, [sp, #224]
	.loc	10 955 47 is_stmt 0             @ lvgl/src/lv_widgets/lv_arc.c:955:47
	str	r0, [sp, #140]                  @ 4-byte Spill
	ldrsh.w	r0, [sp, #248]
	.loc	10 955 33                       @ lvgl/src/lv_widgets/lv_arc.c:955:33
	bl	_lv_trigo_sin
	mov	r1, r0
	.loc	10 955 60                       @ lvgl/src/lv_widgets/lv_arc.c:955:60
	ldr	r0, [sp, #140]                  @ 4-byte Reload
	ldrsh.w	r2, [sp, #228]
	.loc	10 955 58                       @ lvgl/src/lv_widgets/lv_arc.c:955:58
	muls	r1, r2, r1
	.loc	10 955 29                       @ lvgl/src/lv_widgets/lv_arc.c:955:29
	add.w	r0, r0, r1, lsr #15
	.loc	10 955 87                       @ lvgl/src/lv_widgets/lv_arc.c:955:87
	ldrh.w	r1, [sp, #216]
	.loc	10 955 85                       @ lvgl/src/lv_widgets/lv_arc.c:955:85
	add	r0, r1
	.loc	10 955 25                       @ lvgl/src/lv_widgets/lv_arc.c:955:25
	strh.w	r0, [sp, #202]
	.loc	10 956 27 is_stmt 1             @ lvgl/src/lv_widgets/lv_arc.c:956:27
	ldrh.w	r0, [sp, #226]
	.loc	10 956 47 is_stmt 0             @ lvgl/src/lv_widgets/lv_arc.c:956:47
	str	r0, [sp, #144]                  @ 4-byte Spill
	ldrh.w	r0, [sp, #248]
	.loc	10 956 57                       @ lvgl/src/lv_widgets/lv_arc.c:956:57
	adds	r0, #90
	.loc	10 956 33                       @ lvgl/src/lv_widgets/lv_arc.c:956:33
	sxth	r0, r0
	bl	_lv_trigo_sin
	mov	r1, r0
	.loc	10 956 65                       @ lvgl/src/lv_widgets/lv_arc.c:956:65
	ldr	r0, [sp, #144]                  @ 4-byte Reload
	ldrsh.w	r2, [sp, #218]
	.loc	10 956 63                       @ lvgl/src/lv_widgets/lv_arc.c:956:63
	muls	r1, r2, r1
	.loc	10 956 29                       @ lvgl/src/lv_widgets/lv_arc.c:956:29
	add.w	r0, r0, r1, lsr #15
	.loc	10 956 91                       @ lvgl/src/lv_widgets/lv_arc.c:956:91
	ldrh.w	r1, [sp, #216]
	.loc	10 956 89                       @ lvgl/src/lv_widgets/lv_arc.c:956:89
	subs	r0, r0, r1
	.loc	10 956 25                       @ lvgl/src/lv_widgets/lv_arc.c:956:25
	strh.w	r0, [sp, #196]
	.loc	10 958 36 is_stmt 1             @ lvgl/src/lv_widgets/lv_arc.c:958:36
	ldr	r0, [sp, #252]
	add	r1, sp, #196
	.loc	10 958 13 is_stmt 0             @ lvgl/src/lv_widgets/lv_arc.c:958:13
	bl	lv_obj_invalidate_area
	.loc	10 959 9 is_stmt 1              @ lvgl/src/lv_widgets/lv_arc.c:959:9
	b	.LBB5_46
.Ltmp227:
.LBB5_37:
	.loc	10 960 17                       @ lvgl/src/lv_widgets/lv_arc.c:960:17
	ldrb.w	r0, [sp, #239]
.Ltmp228:
	.loc	10 960 17 is_stmt 0             @ lvgl/src/lv_widgets/lv_arc.c:960:17
	cmp	r0, #1
	bne	.LBB5_39
	b	.LBB5_38
.LBB5_38:
.Ltmp229:
	.loc	10 961 27 is_stmt 1             @ lvgl/src/lv_widgets/lv_arc.c:961:27
	ldrh.w	r0, [sp, #224]
	.loc	10 961 47 is_stmt 0             @ lvgl/src/lv_widgets/lv_arc.c:961:47
	str	r0, [sp, #116]                  @ 4-byte Spill
	ldrsh.w	r0, [sp, #250]
	.loc	10 961 33                       @ lvgl/src/lv_widgets/lv_arc.c:961:33
	bl	_lv_trigo_sin
	mov	r1, r0
	.loc	10 961 62                       @ lvgl/src/lv_widgets/lv_arc.c:961:62
	ldr	r0, [sp, #116]                  @ 4-byte Reload
	ldrsh.w	r2, [sp, #228]
	.loc	10 961 60                       @ lvgl/src/lv_widgets/lv_arc.c:961:60
	muls	r1, r2, r1
	.loc	10 961 29                       @ lvgl/src/lv_widgets/lv_arc.c:961:29
	add.w	r0, r0, r1, lsr #15
	.loc	10 961 89                       @ lvgl/src/lv_widgets/lv_arc.c:961:89
	ldrh.w	r1, [sp, #216]
	.loc	10 961 87                       @ lvgl/src/lv_widgets/lv_arc.c:961:87
	add	r0, r1
	.loc	10 961 25                       @ lvgl/src/lv_widgets/lv_arc.c:961:25
	strh.w	r0, [sp, #202]
	.loc	10 962 27 is_stmt 1             @ lvgl/src/lv_widgets/lv_arc.c:962:27
	ldrh.w	r0, [sp, #226]
	.loc	10 962 47 is_stmt 0             @ lvgl/src/lv_widgets/lv_arc.c:962:47
	str	r0, [sp, #120]                  @ 4-byte Spill
	ldrh.w	r0, [sp, #250]
	.loc	10 962 59                       @ lvgl/src/lv_widgets/lv_arc.c:962:59
	adds	r0, #90
	.loc	10 962 33                       @ lvgl/src/lv_widgets/lv_arc.c:962:33
	sxth	r0, r0
	bl	_lv_trigo_sin
	mov	r1, r0
	.loc	10 962 67                       @ lvgl/src/lv_widgets/lv_arc.c:962:67
	ldr	r0, [sp, #120]                  @ 4-byte Reload
	ldrsh.w	r2, [sp, #218]
	.loc	10 962 65                       @ lvgl/src/lv_widgets/lv_arc.c:962:65
	muls	r1, r2, r1
	.loc	10 962 29                       @ lvgl/src/lv_widgets/lv_arc.c:962:29
	add.w	r0, r0, r1, lsr #15
	.loc	10 962 93                       @ lvgl/src/lv_widgets/lv_arc.c:962:93
	ldrh.w	r1, [sp, #216]
	.loc	10 962 91                       @ lvgl/src/lv_widgets/lv_arc.c:962:91
	add	r0, r1
	.loc	10 962 25                       @ lvgl/src/lv_widgets/lv_arc.c:962:25
	strh.w	r0, [sp, #200]
	.loc	10 964 27 is_stmt 1             @ lvgl/src/lv_widgets/lv_arc.c:964:27
	ldrh.w	r0, [sp, #224]
	.loc	10 964 47 is_stmt 0             @ lvgl/src/lv_widgets/lv_arc.c:964:47
	str	r0, [sp, #124]                  @ 4-byte Spill
	ldrsh.w	r0, [sp, #248]
	.loc	10 964 33                       @ lvgl/src/lv_widgets/lv_arc.c:964:33
	bl	_lv_trigo_sin
	mov	r1, r0
	.loc	10 964 60                       @ lvgl/src/lv_widgets/lv_arc.c:964:60
	ldr	r0, [sp, #124]                  @ 4-byte Reload
	ldrsh.w	r2, [sp, #218]
	.loc	10 964 58                       @ lvgl/src/lv_widgets/lv_arc.c:964:58
	muls	r1, r2, r1
	.loc	10 964 29                       @ lvgl/src/lv_widgets/lv_arc.c:964:29
	add.w	r0, r0, r1, lsr #15
	.loc	10 964 86                       @ lvgl/src/lv_widgets/lv_arc.c:964:86
	ldrh.w	r1, [sp, #216]
	.loc	10 964 84                       @ lvgl/src/lv_widgets/lv_arc.c:964:84
	subs	r0, r0, r1
	.loc	10 964 25                       @ lvgl/src/lv_widgets/lv_arc.c:964:25
	strh.w	r0, [sp, #198]
	.loc	10 965 27 is_stmt 1             @ lvgl/src/lv_widgets/lv_arc.c:965:27
	ldrh.w	r0, [sp, #226]
	.loc	10 965 47 is_stmt 0             @ lvgl/src/lv_widgets/lv_arc.c:965:47
	str	r0, [sp, #128]                  @ 4-byte Spill
	ldrh.w	r0, [sp, #248]
	.loc	10 965 57                       @ lvgl/src/lv_widgets/lv_arc.c:965:57
	adds	r0, #90
	.loc	10 965 33                       @ lvgl/src/lv_widgets/lv_arc.c:965:33
	sxth	r0, r0
	bl	_lv_trigo_sin
	mov	r1, r0
	.loc	10 965 65                       @ lvgl/src/lv_widgets/lv_arc.c:965:65
	ldr	r0, [sp, #128]                  @ 4-byte Reload
	ldrsh.w	r2, [sp, #228]
	.loc	10 965 63                       @ lvgl/src/lv_widgets/lv_arc.c:965:63
	muls	r1, r2, r1
	.loc	10 965 29                       @ lvgl/src/lv_widgets/lv_arc.c:965:29
	add.w	r0, r0, r1, lsr #15
	.loc	10 965 92                       @ lvgl/src/lv_widgets/lv_arc.c:965:92
	ldrh.w	r1, [sp, #216]
	.loc	10 965 90                       @ lvgl/src/lv_widgets/lv_arc.c:965:90
	subs	r0, r0, r1
	.loc	10 965 25                       @ lvgl/src/lv_widgets/lv_arc.c:965:25
	strh.w	r0, [sp, #196]
	.loc	10 967 36 is_stmt 1             @ lvgl/src/lv_widgets/lv_arc.c:967:36
	ldr	r0, [sp, #252]
	add	r1, sp, #196
	.loc	10 967 13 is_stmt 0             @ lvgl/src/lv_widgets/lv_arc.c:967:13
	bl	lv_obj_invalidate_area
	.loc	10 968 9 is_stmt 1              @ lvgl/src/lv_widgets/lv_arc.c:968:9
	b	.LBB5_45
.Ltmp230:
.LBB5_39:
	.loc	10 969 17                       @ lvgl/src/lv_widgets/lv_arc.c:969:17
	ldrb.w	r0, [sp, #239]
.Ltmp231:
	.loc	10 969 17 is_stmt 0             @ lvgl/src/lv_widgets/lv_arc.c:969:17
	cmp	r0, #2
	bne	.LBB5_41
	b	.LBB5_40
.LBB5_40:
.Ltmp232:
	.loc	10 970 27 is_stmt 1             @ lvgl/src/lv_widgets/lv_arc.c:970:27
	ldrh.w	r0, [sp, #226]
	.loc	10 970 47 is_stmt 0             @ lvgl/src/lv_widgets/lv_arc.c:970:47
	str	r0, [sp, #100]                  @ 4-byte Spill
	ldrh.w	r0, [sp, #250]
	.loc	10 970 59                       @ lvgl/src/lv_widgets/lv_arc.c:970:59
	adds	r0, #90
	.loc	10 970 33                       @ lvgl/src/lv_widgets/lv_arc.c:970:33
	sxth	r0, r0
	bl	_lv_trigo_sin
	mov	r1, r0
	.loc	10 970 67                       @ lvgl/src/lv_widgets/lv_arc.c:970:67
	ldr	r0, [sp, #100]                  @ 4-byte Reload
	ldrsh.w	r2, [sp, #228]
	.loc	10 970 65                       @ lvgl/src/lv_widgets/lv_arc.c:970:65
	muls	r1, r2, r1
	.loc	10 970 29                       @ lvgl/src/lv_widgets/lv_arc.c:970:29
	add.w	r0, r0, r1, lsr #15
	.loc	10 970 94                       @ lvgl/src/lv_widgets/lv_arc.c:970:94
	ldrh.w	r1, [sp, #216]
	.loc	10 970 92                       @ lvgl/src/lv_widgets/lv_arc.c:970:92
	subs	r0, r0, r1
	.loc	10 970 25                       @ lvgl/src/lv_widgets/lv_arc.c:970:25
	strh.w	r0, [sp, #196]
	.loc	10 971 27 is_stmt 1             @ lvgl/src/lv_widgets/lv_arc.c:971:27
	ldrh.w	r0, [sp, #224]
	.loc	10 971 47 is_stmt 0             @ lvgl/src/lv_widgets/lv_arc.c:971:47
	str	r0, [sp, #104]                  @ 4-byte Spill
	ldrsh.w	r0, [sp, #250]
	.loc	10 971 33                       @ lvgl/src/lv_widgets/lv_arc.c:971:33
	bl	_lv_trigo_sin
	mov	r1, r0
	.loc	10 971 62                       @ lvgl/src/lv_widgets/lv_arc.c:971:62
	ldr	r0, [sp, #104]                  @ 4-byte Reload
	ldrsh.w	r2, [sp, #218]
	.loc	10 971 60                       @ lvgl/src/lv_widgets/lv_arc.c:971:60
	muls	r1, r2, r1
	.loc	10 971 29                       @ lvgl/src/lv_widgets/lv_arc.c:971:29
	add.w	r0, r0, r1, lsr #15
	.loc	10 971 88                       @ lvgl/src/lv_widgets/lv_arc.c:971:88
	ldrh.w	r1, [sp, #216]
	.loc	10 971 86                       @ lvgl/src/lv_widgets/lv_arc.c:971:86
	add	r0, r1
	.loc	10 971 25                       @ lvgl/src/lv_widgets/lv_arc.c:971:25
	strh.w	r0, [sp, #202]
	.loc	10 973 27 is_stmt 1             @ lvgl/src/lv_widgets/lv_arc.c:973:27
	ldrh.w	r0, [sp, #224]
	.loc	10 973 47 is_stmt 0             @ lvgl/src/lv_widgets/lv_arc.c:973:47
	str	r0, [sp, #108]                  @ 4-byte Spill
	ldrsh.w	r0, [sp, #248]
	.loc	10 973 33                       @ lvgl/src/lv_widgets/lv_arc.c:973:33
	bl	_lv_trigo_sin
	mov	r1, r0
	.loc	10 973 60                       @ lvgl/src/lv_widgets/lv_arc.c:973:60
	ldr	r0, [sp, #108]                  @ 4-byte Reload
	ldrsh.w	r2, [sp, #228]
	.loc	10 973 58                       @ lvgl/src/lv_widgets/lv_arc.c:973:58
	muls	r1, r2, r1
	.loc	10 973 29                       @ lvgl/src/lv_widgets/lv_arc.c:973:29
	add.w	r0, r0, r1, lsr #15
	.loc	10 973 87                       @ lvgl/src/lv_widgets/lv_arc.c:973:87
	ldrh.w	r1, [sp, #216]
	.loc	10 973 85                       @ lvgl/src/lv_widgets/lv_arc.c:973:85
	subs	r0, r0, r1
	.loc	10 973 25                       @ lvgl/src/lv_widgets/lv_arc.c:973:25
	strh.w	r0, [sp, #198]
	.loc	10 974 27 is_stmt 1             @ lvgl/src/lv_widgets/lv_arc.c:974:27
	ldrh.w	r0, [sp, #226]
	.loc	10 974 47 is_stmt 0             @ lvgl/src/lv_widgets/lv_arc.c:974:47
	str	r0, [sp, #112]                  @ 4-byte Spill
	ldrh.w	r0, [sp, #248]
	.loc	10 974 57                       @ lvgl/src/lv_widgets/lv_arc.c:974:57
	adds	r0, #90
	.loc	10 974 33                       @ lvgl/src/lv_widgets/lv_arc.c:974:33
	sxth	r0, r0
	bl	_lv_trigo_sin
	mov	r1, r0
	.loc	10 974 65                       @ lvgl/src/lv_widgets/lv_arc.c:974:65
	ldr	r0, [sp, #112]                  @ 4-byte Reload
	ldrsh.w	r2, [sp, #218]
	.loc	10 974 63                       @ lvgl/src/lv_widgets/lv_arc.c:974:63
	muls	r1, r2, r1
	.loc	10 974 29                       @ lvgl/src/lv_widgets/lv_arc.c:974:29
	add.w	r0, r0, r1, lsr #15
	.loc	10 974 91                       @ lvgl/src/lv_widgets/lv_arc.c:974:91
	ldrh.w	r1, [sp, #216]
	.loc	10 974 89                       @ lvgl/src/lv_widgets/lv_arc.c:974:89
	add	r0, r1
	.loc	10 974 25                       @ lvgl/src/lv_widgets/lv_arc.c:974:25
	strh.w	r0, [sp, #200]
	.loc	10 976 36 is_stmt 1             @ lvgl/src/lv_widgets/lv_arc.c:976:36
	ldr	r0, [sp, #252]
	add	r1, sp, #196
	.loc	10 976 13 is_stmt 0             @ lvgl/src/lv_widgets/lv_arc.c:976:13
	bl	lv_obj_invalidate_area
	.loc	10 977 9 is_stmt 1              @ lvgl/src/lv_widgets/lv_arc.c:977:9
	b	.LBB5_44
.Ltmp233:
.LBB5_41:
	.loc	10 978 17                       @ lvgl/src/lv_widgets/lv_arc.c:978:17
	ldrb.w	r0, [sp, #239]
.Ltmp234:
	.loc	10 978 17 is_stmt 0             @ lvgl/src/lv_widgets/lv_arc.c:978:17
	cmp	r0, #3
	bne	.LBB5_43
	b	.LBB5_42
.LBB5_42:
.Ltmp235:
	.loc	10 980 27 is_stmt 1             @ lvgl/src/lv_widgets/lv_arc.c:980:27
	ldrh.w	r0, [sp, #226]
	.loc	10 980 47 is_stmt 0             @ lvgl/src/lv_widgets/lv_arc.c:980:47
	str	r0, [sp, #84]                   @ 4-byte Spill
	ldrh.w	r0, [sp, #250]
	.loc	10 980 59                       @ lvgl/src/lv_widgets/lv_arc.c:980:59
	adds	r0, #90
	.loc	10 980 33                       @ lvgl/src/lv_widgets/lv_arc.c:980:33
	sxth	r0, r0
	bl	_lv_trigo_sin
	mov	r1, r0
	.loc	10 980 67                       @ lvgl/src/lv_widgets/lv_arc.c:980:67
	ldr	r0, [sp, #84]                   @ 4-byte Reload
	ldrsh.w	r2, [sp, #218]
	.loc	10 980 65                       @ lvgl/src/lv_widgets/lv_arc.c:980:65
	muls	r1, r2, r1
	.loc	10 980 29                       @ lvgl/src/lv_widgets/lv_arc.c:980:29
	add.w	r0, r0, r1, lsr #15
	.loc	10 980 93                       @ lvgl/src/lv_widgets/lv_arc.c:980:93
	ldrh.w	r1, [sp, #216]
	.loc	10 980 91                       @ lvgl/src/lv_widgets/lv_arc.c:980:91
	subs	r0, r0, r1
	.loc	10 980 25                       @ lvgl/src/lv_widgets/lv_arc.c:980:25
	strh.w	r0, [sp, #196]
	.loc	10 981 27 is_stmt 1             @ lvgl/src/lv_widgets/lv_arc.c:981:27
	ldrh.w	r0, [sp, #224]
	.loc	10 981 47 is_stmt 0             @ lvgl/src/lv_widgets/lv_arc.c:981:47
	str	r0, [sp, #88]                   @ 4-byte Spill
	ldrsh.w	r0, [sp, #250]
	.loc	10 981 33                       @ lvgl/src/lv_widgets/lv_arc.c:981:33
	bl	_lv_trigo_sin
	mov	r1, r0
	.loc	10 981 62                       @ lvgl/src/lv_widgets/lv_arc.c:981:62
	ldr	r0, [sp, #88]                   @ 4-byte Reload
	ldrsh.w	r2, [sp, #228]
	.loc	10 981 60                       @ lvgl/src/lv_widgets/lv_arc.c:981:60
	muls	r1, r2, r1
	.loc	10 981 29                       @ lvgl/src/lv_widgets/lv_arc.c:981:29
	add.w	r0, r0, r1, lsr #15
	.loc	10 981 89                       @ lvgl/src/lv_widgets/lv_arc.c:981:89
	ldrh.w	r1, [sp, #216]
	.loc	10 981 87                       @ lvgl/src/lv_widgets/lv_arc.c:981:87
	subs	r0, r0, r1
	.loc	10 981 25                       @ lvgl/src/lv_widgets/lv_arc.c:981:25
	strh.w	r0, [sp, #198]
	.loc	10 983 27 is_stmt 1             @ lvgl/src/lv_widgets/lv_arc.c:983:27
	ldrh.w	r0, [sp, #226]
	.loc	10 983 47 is_stmt 0             @ lvgl/src/lv_widgets/lv_arc.c:983:47
	str	r0, [sp, #92]                   @ 4-byte Spill
	ldrh.w	r0, [sp, #248]
	.loc	10 983 57                       @ lvgl/src/lv_widgets/lv_arc.c:983:57
	adds	r0, #90
	.loc	10 983 33                       @ lvgl/src/lv_widgets/lv_arc.c:983:33
	sxth	r0, r0
	bl	_lv_trigo_sin
	mov	r1, r0
	.loc	10 983 65                       @ lvgl/src/lv_widgets/lv_arc.c:983:65
	ldr	r0, [sp, #92]                   @ 4-byte Reload
	ldrsh.w	r2, [sp, #228]
	.loc	10 983 63                       @ lvgl/src/lv_widgets/lv_arc.c:983:63
	muls	r1, r2, r1
	.loc	10 983 29                       @ lvgl/src/lv_widgets/lv_arc.c:983:29
	add.w	r0, r0, r1, lsr #15
	.loc	10 983 92                       @ lvgl/src/lv_widgets/lv_arc.c:983:92
	ldrh.w	r1, [sp, #216]
	.loc	10 983 90                       @ lvgl/src/lv_widgets/lv_arc.c:983:90
	add	r0, r1
	.loc	10 983 25                       @ lvgl/src/lv_widgets/lv_arc.c:983:25
	strh.w	r0, [sp, #200]
	.loc	10 984 27 is_stmt 1             @ lvgl/src/lv_widgets/lv_arc.c:984:27
	ldrh.w	r0, [sp, #224]
	.loc	10 984 47 is_stmt 0             @ lvgl/src/lv_widgets/lv_arc.c:984:47
	str	r0, [sp, #96]                   @ 4-byte Spill
	ldrsh.w	r0, [sp, #248]
	.loc	10 984 33                       @ lvgl/src/lv_widgets/lv_arc.c:984:33
	bl	_lv_trigo_sin
	mov	r1, r0
	.loc	10 984 60                       @ lvgl/src/lv_widgets/lv_arc.c:984:60
	ldr	r0, [sp, #96]                   @ 4-byte Reload
	ldrsh.w	r2, [sp, #218]
	.loc	10 984 58                       @ lvgl/src/lv_widgets/lv_arc.c:984:58
	muls	r1, r2, r1
	.loc	10 984 29                       @ lvgl/src/lv_widgets/lv_arc.c:984:29
	add.w	r0, r0, r1, lsr #15
	.loc	10 984 86                       @ lvgl/src/lv_widgets/lv_arc.c:984:86
	ldrh.w	r1, [sp, #216]
	.loc	10 984 84                       @ lvgl/src/lv_widgets/lv_arc.c:984:84
	add	r0, r1
	.loc	10 984 25                       @ lvgl/src/lv_widgets/lv_arc.c:984:25
	strh.w	r0, [sp, #202]
	.loc	10 986 36 is_stmt 1             @ lvgl/src/lv_widgets/lv_arc.c:986:36
	ldr	r0, [sp, #252]
	add	r1, sp, #196
	.loc	10 986 13 is_stmt 0             @ lvgl/src/lv_widgets/lv_arc.c:986:13
	bl	lv_obj_invalidate_area
	.loc	10 987 9 is_stmt 1              @ lvgl/src/lv_widgets/lv_arc.c:987:9
	b	.LBB5_43
.Ltmp236:
.LBB5_43:
	.loc	10 0 9 is_stmt 0                @ lvgl/src/lv_widgets/lv_arc.c:0:9
	b	.LBB5_44
.LBB5_44:
	b	.LBB5_45
.LBB5_45:
	b	.LBB5_46
.LBB5_46:
	.loc	10 989 5 is_stmt 1              @ lvgl/src/lv_widgets/lv_arc.c:989:5
	b	.LBB5_76
.Ltmp237:
.LBB5_47:
	.loc	10 990 13                       @ lvgl/src/lv_widgets/lv_arc.c:990:13
	ldrb.w	r0, [sp, #239]
	.loc	10 990 32 is_stmt 0             @ lvgl/src/lv_widgets/lv_arc.c:990:32
	cmp	r0, #0
	bne	.LBB5_53
	b	.LBB5_48
.LBB5_48:
	.loc	10 990 35                       @ lvgl/src/lv_widgets/lv_arc.c:990:35
	ldrb.w	r0, [sp, #238]
.Ltmp238:
	.loc	10 990 13                       @ lvgl/src/lv_widgets/lv_arc.c:990:13
	cmp	r0, #1
	bne	.LBB5_53
	b	.LBB5_49
.LBB5_49:
.Ltmp239:
	.loc	10 991 23 is_stmt 1             @ lvgl/src/lv_widgets/lv_arc.c:991:23
	ldrh.w	r0, [sp, #226]
	.loc	10 991 43 is_stmt 0             @ lvgl/src/lv_widgets/lv_arc.c:991:43
	str	r0, [sp, #72]                   @ 4-byte Spill
	ldrh.w	r0, [sp, #248]
	.loc	10 991 53                       @ lvgl/src/lv_widgets/lv_arc.c:991:53
	adds	r0, #90
	.loc	10 991 29                       @ lvgl/src/lv_widgets/lv_arc.c:991:29
	sxth	r0, r0
	bl	_lv_trigo_sin
	mov	r1, r0
	.loc	10 991 61                       @ lvgl/src/lv_widgets/lv_arc.c:991:61
	ldr	r0, [sp, #72]                   @ 4-byte Reload
	ldrsh.w	r2, [sp, #228]
	.loc	10 991 59                       @ lvgl/src/lv_widgets/lv_arc.c:991:59
	muls	r1, r2, r1
	.loc	10 991 25                       @ lvgl/src/lv_widgets/lv_arc.c:991:25
	add.w	r0, r0, r1, lsr #15
	.loc	10 991 88                       @ lvgl/src/lv_widgets/lv_arc.c:991:88
	ldrh.w	r1, [sp, #216]
	.loc	10 991 86                       @ lvgl/src/lv_widgets/lv_arc.c:991:86
	subs	r0, r0, r1
	.loc	10 991 21                       @ lvgl/src/lv_widgets/lv_arc.c:991:21
	strh.w	r0, [sp, #196]
	.loc	10 992 23 is_stmt 1             @ lvgl/src/lv_widgets/lv_arc.c:992:23
	ldrsh.w	r0, [sp, #224]
	.loc	10 992 29 is_stmt 0             @ lvgl/src/lv_widgets/lv_arc.c:992:29
	str	r0, [sp, #76]                   @ 4-byte Spill
	ldrsh.w	r0, [sp, #248]
	bl	_lv_trigo_sin
	str	r0, [sp, #80]                   @ 4-byte Spill
	ldrsh.w	r0, [sp, #250]
	bl	_lv_trigo_sin
	mov	r1, r0
	ldr	r0, [sp, #80]                   @ 4-byte Reload
	cmp	r0, r1
	bge	.LBB5_51
	b	.LBB5_50
.LBB5_50:
	ldrsh.w	r0, [sp, #248]
	bl	_lv_trigo_sin
	str	r0, [sp, #68]                   @ 4-byte Spill
	b	.LBB5_52
.LBB5_51:
	ldrsh.w	r0, [sp, #250]
	bl	_lv_trigo_sin
	str	r0, [sp, #68]                   @ 4-byte Spill
	b	.LBB5_52
.LBB5_52:
	ldr	r0, [sp, #76]                   @ 4-byte Reload
	ldr	r1, [sp, #68]                   @ 4-byte Reload
	.loc	10 993 72 is_stmt 1             @ lvgl/src/lv_widgets/lv_arc.c:993:72
	ldrsh.w	r2, [sp, #218]
	.loc	10 993 70 is_stmt 0             @ lvgl/src/lv_widgets/lv_arc.c:993:70
	muls	r1, r2, r1
	.loc	10 992 25 is_stmt 1             @ lvgl/src/lv_widgets/lv_arc.c:992:25
	add.w	r0, r0, r1, lsr #15
	.loc	10 993 98                       @ lvgl/src/lv_widgets/lv_arc.c:993:98
	ldrh.w	r1, [sp, #216]
	.loc	10 993 96 is_stmt 0             @ lvgl/src/lv_widgets/lv_arc.c:993:96
	subs	r0, r0, r1
	.loc	10 992 21 is_stmt 1             @ lvgl/src/lv_widgets/lv_arc.c:992:21
	strh.w	r0, [sp, #198]
	.loc	10 994 23                       @ lvgl/src/lv_widgets/lv_arc.c:994:23
	ldrh.w	r0, [sp, #226]
	.loc	10 994 43 is_stmt 0             @ lvgl/src/lv_widgets/lv_arc.c:994:43
	str	r0, [sp, #64]                   @ 4-byte Spill
	ldrh.w	r0, [sp, #250]
	.loc	10 994 55                       @ lvgl/src/lv_widgets/lv_arc.c:994:55
	adds	r0, #90
	.loc	10 994 29                       @ lvgl/src/lv_widgets/lv_arc.c:994:29
	sxth	r0, r0
	bl	_lv_trigo_sin
	mov	r1, r0
	.loc	10 994 63                       @ lvgl/src/lv_widgets/lv_arc.c:994:63
	ldr	r0, [sp, #64]                   @ 4-byte Reload
	ldrsh.w	r2, [sp, #228]
	.loc	10 994 61                       @ lvgl/src/lv_widgets/lv_arc.c:994:61
	muls	r1, r2, r1
	.loc	10 994 25                       @ lvgl/src/lv_widgets/lv_arc.c:994:25
	add.w	r0, r0, r1, lsr #15
	.loc	10 994 90                       @ lvgl/src/lv_widgets/lv_arc.c:994:90
	ldrh.w	r1, [sp, #216]
	.loc	10 994 88                       @ lvgl/src/lv_widgets/lv_arc.c:994:88
	add	r0, r1
	.loc	10 994 21                       @ lvgl/src/lv_widgets/lv_arc.c:994:21
	strh.w	r0, [sp, #200]
	.loc	10 995 23 is_stmt 1             @ lvgl/src/lv_widgets/lv_arc.c:995:23
	ldrh.w	r0, [sp, #224]
	.loc	10 995 27 is_stmt 0             @ lvgl/src/lv_widgets/lv_arc.c:995:27
	ldrh.w	r1, [sp, #228]
	.loc	10 995 25                       @ lvgl/src/lv_widgets/lv_arc.c:995:25
	add	r0, r1
	.loc	10 995 34                       @ lvgl/src/lv_widgets/lv_arc.c:995:34
	ldrh.w	r1, [sp, #216]
	.loc	10 995 32                       @ lvgl/src/lv_widgets/lv_arc.c:995:32
	add	r0, r1
	.loc	10 995 21                       @ lvgl/src/lv_widgets/lv_arc.c:995:21
	strh.w	r0, [sp, #202]
	.loc	10 996 32 is_stmt 1             @ lvgl/src/lv_widgets/lv_arc.c:996:32
	ldr	r0, [sp, #252]
	add	r1, sp, #196
	.loc	10 996 9 is_stmt 0              @ lvgl/src/lv_widgets/lv_arc.c:996:9
	bl	lv_obj_invalidate_area
	.loc	10 997 5 is_stmt 1              @ lvgl/src/lv_widgets/lv_arc.c:997:5
	b	.LBB5_75
.Ltmp240:
.LBB5_53:
	.loc	10 998 13                       @ lvgl/src/lv_widgets/lv_arc.c:998:13
	ldrb.w	r0, [sp, #239]
	.loc	10 998 32 is_stmt 0             @ lvgl/src/lv_widgets/lv_arc.c:998:32
	cmp	r0, #1
	bne	.LBB5_59
	b	.LBB5_54
.LBB5_54:
	.loc	10 998 35                       @ lvgl/src/lv_widgets/lv_arc.c:998:35
	ldrb.w	r0, [sp, #238]
.Ltmp241:
	.loc	10 998 13                       @ lvgl/src/lv_widgets/lv_arc.c:998:13
	cmp	r0, #2
	bne	.LBB5_59
	b	.LBB5_55
.LBB5_55:
.Ltmp242:
	.loc	10 999 23 is_stmt 1             @ lvgl/src/lv_widgets/lv_arc.c:999:23
	ldrh.w	r0, [sp, #226]
	.loc	10 999 27 is_stmt 0             @ lvgl/src/lv_widgets/lv_arc.c:999:27
	ldrh.w	r1, [sp, #228]
	.loc	10 999 25                       @ lvgl/src/lv_widgets/lv_arc.c:999:25
	subs	r0, r0, r1
	.loc	10 999 34                       @ lvgl/src/lv_widgets/lv_arc.c:999:34
	ldrh.w	r1, [sp, #216]
	.loc	10 999 32                       @ lvgl/src/lv_widgets/lv_arc.c:999:32
	subs	r0, r0, r1
	.loc	10 999 21                       @ lvgl/src/lv_widgets/lv_arc.c:999:21
	strh.w	r0, [sp, #196]
	.loc	10 1000 23 is_stmt 1            @ lvgl/src/lv_widgets/lv_arc.c:1000:23
	ldrh.w	r0, [sp, #224]
	.loc	10 1000 43 is_stmt 0            @ lvgl/src/lv_widgets/lv_arc.c:1000:43
	str	r0, [sp, #52]                   @ 4-byte Spill
	ldrsh.w	r0, [sp, #248]
	.loc	10 1000 29                      @ lvgl/src/lv_widgets/lv_arc.c:1000:29
	bl	_lv_trigo_sin
	mov	r1, r0
	.loc	10 1000 56                      @ lvgl/src/lv_widgets/lv_arc.c:1000:56
	ldr	r0, [sp, #52]                   @ 4-byte Reload
	ldrsh.w	r2, [sp, #228]
	.loc	10 1000 54                      @ lvgl/src/lv_widgets/lv_arc.c:1000:54
	muls	r1, r2, r1
	.loc	10 1000 25                      @ lvgl/src/lv_widgets/lv_arc.c:1000:25
	add.w	r0, r0, r1, lsr #15
	.loc	10 1000 83                      @ lvgl/src/lv_widgets/lv_arc.c:1000:83
	ldrh.w	r1, [sp, #216]
	.loc	10 1000 81                      @ lvgl/src/lv_widgets/lv_arc.c:1000:81
	subs	r0, r0, r1
	.loc	10 1000 21                      @ lvgl/src/lv_widgets/lv_arc.c:1000:21
	strh.w	r0, [sp, #198]
	.loc	10 1001 23 is_stmt 1            @ lvgl/src/lv_widgets/lv_arc.c:1001:23
	ldrsh.w	r0, [sp, #226]
	.loc	10 1001 29 is_stmt 0            @ lvgl/src/lv_widgets/lv_arc.c:1001:29
	str	r0, [sp, #56]                   @ 4-byte Spill
	ldrh.w	r0, [sp, #250]
	adds	r0, #90
	sxth	r0, r0
	bl	_lv_trigo_sin
	str	r0, [sp, #60]                   @ 4-byte Spill
	ldrh.w	r0, [sp, #248]
	adds	r0, #90
	sxth	r0, r0
	bl	_lv_trigo_sin
	mov	r1, r0
	ldr	r0, [sp, #60]                   @ 4-byte Reload
	cmp	r0, r1
	ble	.LBB5_57
	b	.LBB5_56
.LBB5_56:
	ldrh.w	r0, [sp, #250]
	adds	r0, #90
	sxth	r0, r0
	bl	_lv_trigo_sin
	str	r0, [sp, #48]                   @ 4-byte Spill
	b	.LBB5_58
.LBB5_57:
	ldrh.w	r0, [sp, #248]
	adds	r0, #90
	sxth	r0, r0
	bl	_lv_trigo_sin
	str	r0, [sp, #48]                   @ 4-byte Spill
	b	.LBB5_58
.LBB5_58:
	ldr	r0, [sp, #56]                   @ 4-byte Reload
	ldr	r1, [sp, #48]                   @ 4-byte Reload
	.loc	10 1002 74 is_stmt 1            @ lvgl/src/lv_widgets/lv_arc.c:1002:74
	ldrsh.w	r2, [sp, #218]
	.loc	10 1002 72 is_stmt 0            @ lvgl/src/lv_widgets/lv_arc.c:1002:72
	muls	r1, r2, r1
	.loc	10 1001 25 is_stmt 1            @ lvgl/src/lv_widgets/lv_arc.c:1001:25
	add.w	r0, r0, r1, lsr #15
	.loc	10 1002 100                     @ lvgl/src/lv_widgets/lv_arc.c:1002:100
	ldrh.w	r1, [sp, #216]
	.loc	10 1002 98 is_stmt 0            @ lvgl/src/lv_widgets/lv_arc.c:1002:98
	add	r0, r1
	.loc	10 1001 21 is_stmt 1            @ lvgl/src/lv_widgets/lv_arc.c:1001:21
	strh.w	r0, [sp, #200]
	.loc	10 1003 23                      @ lvgl/src/lv_widgets/lv_arc.c:1003:23
	ldrh.w	r0, [sp, #224]
	.loc	10 1003 43 is_stmt 0            @ lvgl/src/lv_widgets/lv_arc.c:1003:43
	str	r0, [sp, #44]                   @ 4-byte Spill
	ldrsh.w	r0, [sp, #250]
	.loc	10 1003 29                      @ lvgl/src/lv_widgets/lv_arc.c:1003:29
	bl	_lv_trigo_sin
	mov	r1, r0
	.loc	10 1003 58                      @ lvgl/src/lv_widgets/lv_arc.c:1003:58
	ldr	r0, [sp, #44]                   @ 4-byte Reload
	ldrsh.w	r2, [sp, #228]
	.loc	10 1003 56                      @ lvgl/src/lv_widgets/lv_arc.c:1003:56
	muls	r1, r2, r1
	.loc	10 1003 25                      @ lvgl/src/lv_widgets/lv_arc.c:1003:25
	add.w	r0, r0, r1, lsr #15
	.loc	10 1003 85                      @ lvgl/src/lv_widgets/lv_arc.c:1003:85
	ldrh.w	r1, [sp, #216]
	.loc	10 1003 83                      @ lvgl/src/lv_widgets/lv_arc.c:1003:83
	add	r0, r1
	.loc	10 1003 21                      @ lvgl/src/lv_widgets/lv_arc.c:1003:21
	strh.w	r0, [sp, #202]
	.loc	10 1004 32 is_stmt 1            @ lvgl/src/lv_widgets/lv_arc.c:1004:32
	ldr	r0, [sp, #252]
	add	r1, sp, #196
	.loc	10 1004 9 is_stmt 0             @ lvgl/src/lv_widgets/lv_arc.c:1004:9
	bl	lv_obj_invalidate_area
	.loc	10 1005 5 is_stmt 1             @ lvgl/src/lv_widgets/lv_arc.c:1005:5
	b	.LBB5_74
.Ltmp243:
.LBB5_59:
	.loc	10 1006 13                      @ lvgl/src/lv_widgets/lv_arc.c:1006:13
	ldrb.w	r0, [sp, #239]
	.loc	10 1006 32 is_stmt 0            @ lvgl/src/lv_widgets/lv_arc.c:1006:32
	cmp	r0, #2
	bne	.LBB5_65
	b	.LBB5_60
.LBB5_60:
	.loc	10 1006 35                      @ lvgl/src/lv_widgets/lv_arc.c:1006:35
	ldrb.w	r0, [sp, #238]
.Ltmp244:
	.loc	10 1006 13                      @ lvgl/src/lv_widgets/lv_arc.c:1006:13
	cmp	r0, #3
	bne	.LBB5_65
	b	.LBB5_61
.LBB5_61:
.Ltmp245:
	.loc	10 1007 23 is_stmt 1            @ lvgl/src/lv_widgets/lv_arc.c:1007:23
	ldrh.w	r0, [sp, #226]
	.loc	10 1007 43 is_stmt 0            @ lvgl/src/lv_widgets/lv_arc.c:1007:43
	str	r0, [sp, #28]                   @ 4-byte Spill
	ldrh.w	r0, [sp, #250]
	.loc	10 1007 55                      @ lvgl/src/lv_widgets/lv_arc.c:1007:55
	adds	r0, #90
	.loc	10 1007 29                      @ lvgl/src/lv_widgets/lv_arc.c:1007:29
	sxth	r0, r0
	bl	_lv_trigo_sin
	mov	r1, r0
	.loc	10 1007 63                      @ lvgl/src/lv_widgets/lv_arc.c:1007:63
	ldr	r0, [sp, #28]                   @ 4-byte Reload
	ldrsh.w	r2, [sp, #228]
	.loc	10 1007 61                      @ lvgl/src/lv_widgets/lv_arc.c:1007:61
	muls	r1, r2, r1
	.loc	10 1007 25                      @ lvgl/src/lv_widgets/lv_arc.c:1007:25
	add.w	r0, r0, r1, lsr #15
	.loc	10 1007 90                      @ lvgl/src/lv_widgets/lv_arc.c:1007:90
	ldrh.w	r1, [sp, #216]
	.loc	10 1007 88                      @ lvgl/src/lv_widgets/lv_arc.c:1007:88
	subs	r0, r0, r1
	.loc	10 1007 21                      @ lvgl/src/lv_widgets/lv_arc.c:1007:21
	strh.w	r0, [sp, #196]
	.loc	10 1008 23 is_stmt 1            @ lvgl/src/lv_widgets/lv_arc.c:1008:23
	ldrh.w	r0, [sp, #224]
	.loc	10 1008 27 is_stmt 0            @ lvgl/src/lv_widgets/lv_arc.c:1008:27
	ldrh.w	r1, [sp, #228]
	.loc	10 1008 25                      @ lvgl/src/lv_widgets/lv_arc.c:1008:25
	subs	r0, r0, r1
	.loc	10 1008 34                      @ lvgl/src/lv_widgets/lv_arc.c:1008:34
	ldrh.w	r1, [sp, #216]
	.loc	10 1008 32                      @ lvgl/src/lv_widgets/lv_arc.c:1008:32
	subs	r0, r0, r1
	.loc	10 1008 21                      @ lvgl/src/lv_widgets/lv_arc.c:1008:21
	strh.w	r0, [sp, #198]
	.loc	10 1009 23 is_stmt 1            @ lvgl/src/lv_widgets/lv_arc.c:1009:23
	ldrh.w	r0, [sp, #226]
	.loc	10 1009 43 is_stmt 0            @ lvgl/src/lv_widgets/lv_arc.c:1009:43
	str	r0, [sp, #32]                   @ 4-byte Spill
	ldrh.w	r0, [sp, #248]
	.loc	10 1009 53                      @ lvgl/src/lv_widgets/lv_arc.c:1009:53
	adds	r0, #90
	.loc	10 1009 29                      @ lvgl/src/lv_widgets/lv_arc.c:1009:29
	sxth	r0, r0
	bl	_lv_trigo_sin
	mov	r1, r0
	.loc	10 1009 61                      @ lvgl/src/lv_widgets/lv_arc.c:1009:61
	ldr	r0, [sp, #32]                   @ 4-byte Reload
	ldrsh.w	r2, [sp, #228]
	.loc	10 1009 59                      @ lvgl/src/lv_widgets/lv_arc.c:1009:59
	muls	r1, r2, r1
	.loc	10 1009 25                      @ lvgl/src/lv_widgets/lv_arc.c:1009:25
	add.w	r0, r0, r1, lsr #15
	.loc	10 1009 88                      @ lvgl/src/lv_widgets/lv_arc.c:1009:88
	ldrh.w	r1, [sp, #216]
	.loc	10 1009 86                      @ lvgl/src/lv_widgets/lv_arc.c:1009:86
	add	r0, r1
	.loc	10 1009 21                      @ lvgl/src/lv_widgets/lv_arc.c:1009:21
	strh.w	r0, [sp, #200]
	.loc	10 1010 23 is_stmt 1            @ lvgl/src/lv_widgets/lv_arc.c:1010:23
	ldrsh.w	r0, [sp, #224]
	.loc	10 1010 28 is_stmt 0            @ lvgl/src/lv_widgets/lv_arc.c:1010:28
	str	r0, [sp, #36]                   @ 4-byte Spill
	ldrsh.w	r0, [sp, #248]
	bl	_lv_trigo_sin
	ldrsh.w	r1, [sp, #218]
	muls	r0, r1, r0
	str	r0, [sp, #40]                   @ 4-byte Spill
	ldrsh.w	r0, [sp, #250]
	bl	_lv_trigo_sin
	mov	r1, r0
	ldr	r0, [sp, #40]                   @ 4-byte Reload
	ldrsh.w	r2, [sp, #218]
	muls	r1, r2, r1
	cmp	r0, r1
	ble	.LBB5_63
	b	.LBB5_62
.LBB5_62:
	ldrsh.w	r0, [sp, #248]
	bl	_lv_trigo_sin
	ldrsh.w	r1, [sp, #218]
	muls	r0, r1, r0
	str	r0, [sp, #24]                   @ 4-byte Spill
	b	.LBB5_64
.LBB5_63:
	ldrsh.w	r0, [sp, #250]
	bl	_lv_trigo_sin
	ldrsh.w	r1, [sp, #218]
	muls	r0, r1, r0
	str	r0, [sp, #24]                   @ 4-byte Spill
	b	.LBB5_64
.LBB5_64:
	ldr	r0, [sp, #36]                   @ 4-byte Reload
	ldr	r1, [sp, #24]                   @ 4-byte Reload
	.loc	10 1010 25                      @ lvgl/src/lv_widgets/lv_arc.c:1010:25
	add.w	r0, r0, r1, lsr #15
	.loc	10 1011 95 is_stmt 1            @ lvgl/src/lv_widgets/lv_arc.c:1011:95
	ldrh.w	r1, [sp, #216]
	.loc	10 1011 93 is_stmt 0            @ lvgl/src/lv_widgets/lv_arc.c:1011:93
	add	r0, r1
	.loc	10 1010 21 is_stmt 1            @ lvgl/src/lv_widgets/lv_arc.c:1010:21
	strh.w	r0, [sp, #202]
	.loc	10 1012 32                      @ lvgl/src/lv_widgets/lv_arc.c:1012:32
	ldr	r0, [sp, #252]
	add	r1, sp, #196
	.loc	10 1012 9 is_stmt 0             @ lvgl/src/lv_widgets/lv_arc.c:1012:9
	bl	lv_obj_invalidate_area
	.loc	10 1013 5 is_stmt 1             @ lvgl/src/lv_widgets/lv_arc.c:1013:5
	b	.LBB5_73
.Ltmp246:
.LBB5_65:
	.loc	10 1014 13                      @ lvgl/src/lv_widgets/lv_arc.c:1014:13
	ldrb.w	r0, [sp, #239]
	.loc	10 1014 32 is_stmt 0            @ lvgl/src/lv_widgets/lv_arc.c:1014:32
	cmp	r0, #3
	bne	.LBB5_71
	b	.LBB5_66
.LBB5_66:
	.loc	10 1014 35                      @ lvgl/src/lv_widgets/lv_arc.c:1014:35
	ldrb.w	r0, [sp, #238]
.Ltmp247:
	.loc	10 1014 13                      @ lvgl/src/lv_widgets/lv_arc.c:1014:13
	cmp	r0, #0
	bne	.LBB5_71
	b	.LBB5_67
.LBB5_67:
.Ltmp248:
	.loc	10 1015 23 is_stmt 1            @ lvgl/src/lv_widgets/lv_arc.c:1015:23
	ldrsh.w	r0, [sp, #226]
	.loc	10 1015 29 is_stmt 0            @ lvgl/src/lv_widgets/lv_arc.c:1015:29
	str	r0, [sp, #16]                   @ 4-byte Spill
	ldrh.w	r0, [sp, #248]
	adds	r0, #90
	sxth	r0, r0
	bl	_lv_trigo_sin
	str	r0, [sp, #20]                   @ 4-byte Spill
	ldrh.w	r0, [sp, #250]
	adds	r0, #90
	sxth	r0, r0
	bl	_lv_trigo_sin
	mov	r1, r0
	ldr	r0, [sp, #20]                   @ 4-byte Reload
	cmp	r0, r1
	bge	.LBB5_69
	b	.LBB5_68
.LBB5_68:
	ldrh.w	r0, [sp, #248]
	adds	r0, #90
	sxth	r0, r0
	bl	_lv_trigo_sin
	str	r0, [sp, #12]                   @ 4-byte Spill
	b	.LBB5_70
.LBB5_69:
	ldrh.w	r0, [sp, #250]
	adds	r0, #90
	sxth	r0, r0
	bl	_lv_trigo_sin
	str	r0, [sp, #12]                   @ 4-byte Spill
	b	.LBB5_70
.LBB5_70:
	ldr	r0, [sp, #16]                   @ 4-byte Reload
	ldr	r1, [sp, #12]                   @ 4-byte Reload
	.loc	10 1016 76 is_stmt 1            @ lvgl/src/lv_widgets/lv_arc.c:1016:76
	ldrsh.w	r2, [sp, #218]
	.loc	10 1016 74 is_stmt 0            @ lvgl/src/lv_widgets/lv_arc.c:1016:74
	muls	r1, r2, r1
	.loc	10 1015 25 is_stmt 1            @ lvgl/src/lv_widgets/lv_arc.c:1015:25
	add.w	r0, r0, r1, lsr #15
	.loc	10 1016 102                     @ lvgl/src/lv_widgets/lv_arc.c:1016:102
	ldrh.w	r1, [sp, #216]
	.loc	10 1016 100 is_stmt 0           @ lvgl/src/lv_widgets/lv_arc.c:1016:100
	subs	r0, r0, r1
	.loc	10 1015 21 is_stmt 1            @ lvgl/src/lv_widgets/lv_arc.c:1015:21
	strh.w	r0, [sp, #196]
	.loc	10 1017 23                      @ lvgl/src/lv_widgets/lv_arc.c:1017:23
	ldrh.w	r0, [sp, #224]
	.loc	10 1017 43 is_stmt 0            @ lvgl/src/lv_widgets/lv_arc.c:1017:43
	str	r0, [sp, #4]                    @ 4-byte Spill
	ldrsh.w	r0, [sp, #250]
	.loc	10 1017 29                      @ lvgl/src/lv_widgets/lv_arc.c:1017:29
	bl	_lv_trigo_sin
	mov	r1, r0
	.loc	10 1017 58                      @ lvgl/src/lv_widgets/lv_arc.c:1017:58
	ldr	r0, [sp, #4]                    @ 4-byte Reload
	ldrsh.w	r2, [sp, #228]
	.loc	10 1017 56                      @ lvgl/src/lv_widgets/lv_arc.c:1017:56
	muls	r1, r2, r1
	.loc	10 1017 25                      @ lvgl/src/lv_widgets/lv_arc.c:1017:25
	add.w	r0, r0, r1, lsr #15
	.loc	10 1017 85                      @ lvgl/src/lv_widgets/lv_arc.c:1017:85
	ldrh.w	r1, [sp, #216]
	.loc	10 1017 83                      @ lvgl/src/lv_widgets/lv_arc.c:1017:83
	subs	r0, r0, r1
	.loc	10 1017 21                      @ lvgl/src/lv_widgets/lv_arc.c:1017:21
	strh.w	r0, [sp, #198]
	.loc	10 1018 23 is_stmt 1            @ lvgl/src/lv_widgets/lv_arc.c:1018:23
	ldrh.w	r0, [sp, #226]
	.loc	10 1018 27 is_stmt 0            @ lvgl/src/lv_widgets/lv_arc.c:1018:27
	ldrh.w	r1, [sp, #228]
	.loc	10 1018 25                      @ lvgl/src/lv_widgets/lv_arc.c:1018:25
	add	r0, r1
	.loc	10 1018 34                      @ lvgl/src/lv_widgets/lv_arc.c:1018:34
	ldrh.w	r1, [sp, #216]
	.loc	10 1018 32                      @ lvgl/src/lv_widgets/lv_arc.c:1018:32
	add	r0, r1
	.loc	10 1018 21                      @ lvgl/src/lv_widgets/lv_arc.c:1018:21
	strh.w	r0, [sp, #200]
	.loc	10 1019 23 is_stmt 1            @ lvgl/src/lv_widgets/lv_arc.c:1019:23
	ldrh.w	r0, [sp, #224]
	.loc	10 1019 43 is_stmt 0            @ lvgl/src/lv_widgets/lv_arc.c:1019:43
	str	r0, [sp, #8]                    @ 4-byte Spill
	ldrsh.w	r0, [sp, #248]
	.loc	10 1019 29                      @ lvgl/src/lv_widgets/lv_arc.c:1019:29
	bl	_lv_trigo_sin
	mov	r1, r0
	.loc	10 1019 56                      @ lvgl/src/lv_widgets/lv_arc.c:1019:56
	ldr	r0, [sp, #8]                    @ 4-byte Reload
	ldrsh.w	r2, [sp, #228]
	.loc	10 1019 54                      @ lvgl/src/lv_widgets/lv_arc.c:1019:54
	muls	r1, r2, r1
	.loc	10 1019 25                      @ lvgl/src/lv_widgets/lv_arc.c:1019:25
	add.w	r0, r0, r1, lsr #15
	.loc	10 1019 83                      @ lvgl/src/lv_widgets/lv_arc.c:1019:83
	ldrh.w	r1, [sp, #216]
	.loc	10 1019 81                      @ lvgl/src/lv_widgets/lv_arc.c:1019:81
	add	r0, r1
	.loc	10 1019 21                      @ lvgl/src/lv_widgets/lv_arc.c:1019:21
	strh.w	r0, [sp, #202]
	.loc	10 1021 32 is_stmt 1            @ lvgl/src/lv_widgets/lv_arc.c:1021:32
	ldr	r0, [sp, #252]
	add	r1, sp, #196
	.loc	10 1021 9 is_stmt 0             @ lvgl/src/lv_widgets/lv_arc.c:1021:9
	bl	lv_obj_invalidate_area
	.loc	10 1022 5 is_stmt 1             @ lvgl/src/lv_widgets/lv_arc.c:1022:5
	b	.LBB5_72
.Ltmp249:
.LBB5_71:
	.loc	10 1024 27                      @ lvgl/src/lv_widgets/lv_arc.c:1024:27
	ldr	r0, [sp, #252]
	.loc	10 1024 9 is_stmt 0             @ lvgl/src/lv_widgets/lv_arc.c:1024:9
	bl	lv_obj_invalidate
	b	.LBB5_72
.Ltmp250:
.LBB5_72:
	.loc	10 0 9                          @ lvgl/src/lv_widgets/lv_arc.c:0:9
	b	.LBB5_73
.LBB5_73:
	b	.LBB5_74
.LBB5_74:
	b	.LBB5_75
.LBB5_75:
	b	.LBB5_76
.LBB5_76:
	.loc	10 1026 1 is_stmt 1             @ lvgl/src/lv_widgets/lv_arc.c:1026:1
	add	sp, #256
	pop	{r7, pc}
.Ltmp251:
.Lfunc_end5:
	.size	inv_arc_area, .Lfunc_end5-inv_arc_area
	.cfi_endproc
	.cantunwind
	.fnend
                                        @ -- End function
	.section	.text.lv_arc_set_end_angle,"ax",%progbits
	.hidden	lv_arc_set_end_angle            @ -- Begin function lv_arc_set_end_angle
	.globl	lv_arc_set_end_angle
	.p2align	3
	.type	lv_arc_set_end_angle,%function
	.code	16                              @ @lv_arc_set_end_angle
	.thumb_func
lv_arc_set_end_angle:
.Lfunc_begin6:
	.loc	10 194 0                        @ lvgl/src/lv_widgets/lv_arc.c:194:0
	.fnstart
	.cfi_startproc
@ %bb.0:
	.save	{r7, lr}
	push	{r7, lr}
	.cfi_def_cfa_offset 8
	.cfi_offset lr, -4
	.cfi_offset r7, -8
	.pad	#48
	sub	sp, #48
	.cfi_def_cfa_offset 56
                                        @ kill: def $r2 killed $r1
	str	r0, [sp, #44]
	strh.w	r1, [sp, #42]
.Ltmp252:
	.loc	10 195 5 prologue_end           @ lvgl/src/lv_widgets/lv_arc.c:195:5
	b	.LBB6_1
.LBB6_1:
.Ltmp253:
	.loc	10 195 5 is_stmt 0              @ lvgl/src/lv_widgets/lv_arc.c:195:5
	ldr	r0, [sp, #44]
	bl	lv_debug_check_null
.Ltmp254:
	.loc	10 195 5                        @ lvgl/src/lv_widgets/lv_arc.c:195:5
	cbnz	r0, .LBB6_4
	b	.LBB6_2
.LBB6_2:
.Ltmp255:
	.loc	10 195 5                        @ lvgl/src/lv_widgets/lv_arc.c:195:5
	ldr	r2, [sp, #44]
	movw	r0, :lower16:.L.str.1
	movt	r0, :upper16:.L.str.1
	movs	r3, #0
	bl	lv_debug_log_error
	b	.LBB6_3
.LBB6_3:                                @ =>This Inner Loop Header: Depth=1
	b	.LBB6_3
.Ltmp256:
.LBB6_4:
	.loc	10 195 5                        @ lvgl/src/lv_widgets/lv_arc.c:195:5
	b	.LBB6_5
.Ltmp257:
.LBB6_5:
	.loc	10 197 46 is_stmt 1             @ lvgl/src/lv_widgets/lv_arc.c:197:46
	ldr	r0, [sp, #44]
	.loc	10 197 26 is_stmt 0             @ lvgl/src/lv_widgets/lv_arc.c:197:26
	bl	lv_obj_get_ext_attr
	.loc	10 197 20                       @ lvgl/src/lv_widgets/lv_arc.c:197:20
	str	r0, [sp, #36]
.Ltmp258:
	.loc	10 199 8 is_stmt 1              @ lvgl/src/lv_widgets/lv_arc.c:199:8
	ldrh.w	r0, [sp, #42]
	.loc	10 199 15 is_stmt 0             @ lvgl/src/lv_widgets/lv_arc.c:199:15
	ldr	r1, [sp, #36]
	.loc	10 199 20                       @ lvgl/src/lv_widgets/lv_arc.c:199:20
	ldrh	r1, [r1, #2]
	.loc	10 199 36                       @ lvgl/src/lv_widgets/lv_arc.c:199:36
	add.w	r1, r1, #360
.Ltmp259:
	.loc	10 199 8                        @ lvgl/src/lv_widgets/lv_arc.c:199:8
	cmp	r0, r1
	ble	.LBB6_7
	b	.LBB6_6
.LBB6_6:
.Ltmp260:
	.loc	10 199 50                       @ lvgl/src/lv_widgets/lv_arc.c:199:50
	ldr	r0, [sp, #36]
	ldrh	r0, [r0, #2]
	.loc	10 199 71                       @ lvgl/src/lv_widgets/lv_arc.c:199:71
	add.w	r0, r0, #360
	.loc	10 199 48                       @ lvgl/src/lv_widgets/lv_arc.c:199:48
	strh.w	r0, [sp, #42]
	.loc	10 199 44                       @ lvgl/src/lv_widgets/lv_arc.c:199:44
	b	.LBB6_7
.Ltmp261:
.LBB6_7:
	.loc	10 202 8 is_stmt 1              @ lvgl/src/lv_widgets/lv_arc.c:202:8
	ldrh.w	r0, [sp, #42]
	ldr	r1, [sp, #36]
	ldrh	r1, [r1, #4]
	subs	r0, r0, r1
	cmp	r0, #1
	blt	.LBB6_9
	b	.LBB6_8
.LBB6_8:
	ldrh.w	r0, [sp, #42]
	ldr	r1, [sp, #36]
	ldrh	r1, [r1, #4]
	subs	r0, r0, r1
	str	r0, [sp, #32]                   @ 4-byte Spill
	b	.LBB6_10
.LBB6_9:
	ldrh.w	r1, [sp, #42]
	ldr	r0, [sp, #36]
	ldrh	r0, [r0, #4]
	subs	r0, r0, r1
	str	r0, [sp, #32]                   @ 4-byte Spill
	b	.LBB6_10
.LBB6_10:
	ldr	r0, [sp, #32]                   @ 4-byte Reload
.Ltmp262:
	.loc	10 202 8 is_stmt 0              @ lvgl/src/lv_widgets/lv_arc.c:202:8
	cmp	r0, #180
	blt	.LBB6_12
	b	.LBB6_11
.LBB6_11:
.Ltmp263:
	.loc	10 203 27 is_stmt 1             @ lvgl/src/lv_widgets/lv_arc.c:203:27
	ldr	r0, [sp, #44]
	.loc	10 203 9 is_stmt 0              @ lvgl/src/lv_widgets/lv_arc.c:203:9
	bl	lv_obj_invalidate
	.loc	10 204 5 is_stmt 1              @ lvgl/src/lv_widgets/lv_arc.c:204:5
	b	.LBB6_33
.Ltmp264:
.LBB6_12:
	.loc	10 206 13                       @ lvgl/src/lv_widgets/lv_arc.c:206:13
	ldr	r1, [sp, #36]
	.loc	10 206 18 is_stmt 0             @ lvgl/src/lv_widgets/lv_arc.c:206:18
	ldrh	r0, [r1, #4]
	.loc	10 206 39                       @ lvgl/src/lv_widgets/lv_arc.c:206:39
	ldrh	r1, [r1, #2]
	.loc	10 206 55                       @ lvgl/src/lv_widgets/lv_arc.c:206:55
	cmp	r0, r1
	ble	.LBB6_21
	b	.LBB6_13
.LBB6_13:
	.loc	10 206 58                       @ lvgl/src/lv_widgets/lv_arc.c:206:58
	ldrh.w	r0, [sp, #42]
	.loc	10 206 64                       @ lvgl/src/lv_widgets/lv_arc.c:206:64
	ldr	r1, [sp, #36]
	.loc	10 206 69                       @ lvgl/src/lv_widgets/lv_arc.c:206:69
	ldrh	r1, [r1, #2]
.Ltmp265:
	.loc	10 206 13                       @ lvgl/src/lv_widgets/lv_arc.c:206:13
	cmp	r0, r1
	ble	.LBB6_21
	b	.LBB6_14
.LBB6_14:
.Ltmp266:
	.loc	10 207 22 is_stmt 1             @ lvgl/src/lv_widgets/lv_arc.c:207:22
	ldr	r0, [sp, #44]
	.loc	10 207 27 is_stmt 0             @ lvgl/src/lv_widgets/lv_arc.c:207:27
	str	r0, [sp, #28]                   @ 4-byte Spill
	ldr	r0, [sp, #36]
	ldrh	r0, [r0, #4]
	ldrh.w	r1, [sp, #42]
	cmp	r0, r1
	bge	.LBB6_16
	b	.LBB6_15
.LBB6_15:
	ldr	r0, [sp, #36]
	ldrh	r0, [r0, #4]
	str	r0, [sp, #24]                   @ 4-byte Spill
	b	.LBB6_17
.LBB6_16:
	ldrh.w	r0, [sp, #42]
	str	r0, [sp, #24]                   @ 4-byte Spill
	b	.LBB6_17
.LBB6_17:
	ldr	r0, [sp, #24]                   @ 4-byte Reload
	.loc	10 207 65                       @ lvgl/src/lv_widgets/lv_arc.c:207:65
	str	r0, [sp, #20]                   @ 4-byte Spill
	ldr	r0, [sp, #36]
	ldrh	r0, [r0, #4]
	ldrh.w	r1, [sp, #42]
	cmp	r0, r1
	ble	.LBB6_19
	b	.LBB6_18
.LBB6_18:
	ldr	r0, [sp, #36]
	ldrh	r0, [r0, #4]
	str	r0, [sp, #16]                   @ 4-byte Spill
	b	.LBB6_20
.LBB6_19:
	ldrh.w	r0, [sp, #42]
	str	r0, [sp, #16]                   @ 4-byte Spill
	b	.LBB6_20
.LBB6_20:
	ldr	r0, [sp, #28]                   @ 4-byte Reload
	ldr	r1, [sp, #20]                   @ 4-byte Reload
	ldr	r2, [sp, #16]                   @ 4-byte Reload
	.loc	10 207 9                        @ lvgl/src/lv_widgets/lv_arc.c:207:9
	uxth	r1, r1
	uxth	r2, r2
	movs	r3, #1
	bl	inv_arc_area
	.loc	10 208 5 is_stmt 1              @ lvgl/src/lv_widgets/lv_arc.c:208:5
	b	.LBB6_32
.Ltmp267:
.LBB6_21:
	.loc	10 210 13                       @ lvgl/src/lv_widgets/lv_arc.c:210:13
	ldr	r1, [sp, #36]
	.loc	10 210 18 is_stmt 0             @ lvgl/src/lv_widgets/lv_arc.c:210:18
	ldrh	r0, [r1, #4]
	.loc	10 210 39                       @ lvgl/src/lv_widgets/lv_arc.c:210:39
	ldrh	r1, [r1, #2]
	.loc	10 210 55                       @ lvgl/src/lv_widgets/lv_arc.c:210:55
	cmp	r0, r1
	bge	.LBB6_30
	b	.LBB6_22
.LBB6_22:
	.loc	10 210 58                       @ lvgl/src/lv_widgets/lv_arc.c:210:58
	ldrh.w	r0, [sp, #42]
	.loc	10 210 64                       @ lvgl/src/lv_widgets/lv_arc.c:210:64
	ldr	r1, [sp, #36]
	.loc	10 210 69                       @ lvgl/src/lv_widgets/lv_arc.c:210:69
	ldrh	r1, [r1, #2]
.Ltmp268:
	.loc	10 210 13                       @ lvgl/src/lv_widgets/lv_arc.c:210:13
	cmp	r0, r1
	bge	.LBB6_30
	b	.LBB6_23
.LBB6_23:
.Ltmp269:
	.loc	10 211 22 is_stmt 1             @ lvgl/src/lv_widgets/lv_arc.c:211:22
	ldr	r0, [sp, #44]
	.loc	10 211 27 is_stmt 0             @ lvgl/src/lv_widgets/lv_arc.c:211:27
	str	r0, [sp, #12]                   @ 4-byte Spill
	ldr	r0, [sp, #36]
	ldrh	r0, [r0, #4]
	ldrh.w	r1, [sp, #42]
	cmp	r0, r1
	bge	.LBB6_25
	b	.LBB6_24
.LBB6_24:
	ldr	r0, [sp, #36]
	ldrh	r0, [r0, #4]
	str	r0, [sp, #8]                    @ 4-byte Spill
	b	.LBB6_26
.LBB6_25:
	ldrh.w	r0, [sp, #42]
	str	r0, [sp, #8]                    @ 4-byte Spill
	b	.LBB6_26
.LBB6_26:
	ldr	r0, [sp, #8]                    @ 4-byte Reload
	.loc	10 211 65                       @ lvgl/src/lv_widgets/lv_arc.c:211:65
	str	r0, [sp, #4]                    @ 4-byte Spill
	ldr	r0, [sp, #36]
	ldrh	r0, [r0, #4]
	ldrh.w	r1, [sp, #42]
	cmp	r0, r1
	ble	.LBB6_28
	b	.LBB6_27
.LBB6_27:
	ldr	r0, [sp, #36]
	ldrh	r0, [r0, #4]
	str	r0, [sp]                        @ 4-byte Spill
	b	.LBB6_29
.LBB6_28:
	ldrh.w	r0, [sp, #42]
	str	r0, [sp]                        @ 4-byte Spill
	b	.LBB6_29
.LBB6_29:
	ldr	r0, [sp, #12]                   @ 4-byte Reload
	ldr	r1, [sp, #4]                    @ 4-byte Reload
	ldr	r2, [sp]                        @ 4-byte Reload
	.loc	10 211 9                        @ lvgl/src/lv_widgets/lv_arc.c:211:9
	uxth	r1, r1
	uxth	r2, r2
	movs	r3, #1
	bl	inv_arc_area
	.loc	10 212 5 is_stmt 1              @ lvgl/src/lv_widgets/lv_arc.c:212:5
	b	.LBB6_31
.Ltmp270:
.LBB6_30:
	.loc	10 215 27                       @ lvgl/src/lv_widgets/lv_arc.c:215:27
	ldr	r0, [sp, #44]
	.loc	10 215 9 is_stmt 0              @ lvgl/src/lv_widgets/lv_arc.c:215:9
	bl	lv_obj_invalidate
	b	.LBB6_31
.Ltmp271:
.LBB6_31:
	.loc	10 0 9                          @ lvgl/src/lv_widgets/lv_arc.c:0:9
	b	.LBB6_32
.LBB6_32:
	b	.LBB6_33
.LBB6_33:
	.loc	10 218 26 is_stmt 1             @ lvgl/src/lv_widgets/lv_arc.c:218:26
	ldrh.w	r0, [sp, #42]
	.loc	10 218 5 is_stmt 0              @ lvgl/src/lv_widgets/lv_arc.c:218:5
	ldr	r1, [sp, #36]
	.loc	10 218 24                       @ lvgl/src/lv_widgets/lv_arc.c:218:24
	strh	r0, [r1, #4]
	.loc	10 219 1 is_stmt 1              @ lvgl/src/lv_widgets/lv_arc.c:219:1
	add	sp, #48
	pop	{r7, pc}
.Ltmp272:
.Lfunc_end6:
	.size	lv_arc_set_end_angle, .Lfunc_end6-lv_arc_set_end_angle
	.cfi_endproc
	.cantunwind
	.fnend
                                        @ -- End function
	.section	.text.lv_arc_set_angles,"ax",%progbits
	.hidden	lv_arc_set_angles               @ -- Begin function lv_arc_set_angles
	.globl	lv_arc_set_angles
	.p2align	3
	.type	lv_arc_set_angles,%function
	.code	16                              @ @lv_arc_set_angles
	.thumb_func
lv_arc_set_angles:
.Lfunc_begin7:
	.loc	10 228 0                        @ lvgl/src/lv_widgets/lv_arc.c:228:0
	.fnstart
	.cfi_startproc
@ %bb.0:
	.save	{r7, lr}
	push	{r7, lr}
	.cfi_def_cfa_offset 8
	.cfi_offset lr, -4
	.cfi_offset r7, -8
	.pad	#16
	sub	sp, #16
	.cfi_def_cfa_offset 24
                                        @ kill: def $r3 killed $r2
                                        @ kill: def $r3 killed $r1
	str	r0, [sp, #12]
	strh.w	r1, [sp, #10]
	strh.w	r2, [sp, #8]
.Ltmp273:
	.loc	10 229 5 prologue_end           @ lvgl/src/lv_widgets/lv_arc.c:229:5
	b	.LBB7_1
.LBB7_1:
.Ltmp274:
	.loc	10 229 5 is_stmt 0              @ lvgl/src/lv_widgets/lv_arc.c:229:5
	ldr	r0, [sp, #12]
	bl	lv_debug_check_null
.Ltmp275:
	.loc	10 229 5                        @ lvgl/src/lv_widgets/lv_arc.c:229:5
	cbnz	r0, .LBB7_4
	b	.LBB7_2
.LBB7_2:
.Ltmp276:
	.loc	10 229 5                        @ lvgl/src/lv_widgets/lv_arc.c:229:5
	ldr	r2, [sp, #12]
	movw	r0, :lower16:.L.str.1
	movt	r0, :upper16:.L.str.1
	movs	r3, #0
	bl	lv_debug_log_error
	b	.LBB7_3
.LBB7_3:                                @ =>This Inner Loop Header: Depth=1
	b	.LBB7_3
.Ltmp277:
.LBB7_4:
	.loc	10 229 5                        @ lvgl/src/lv_widgets/lv_arc.c:229:5
	b	.LBB7_5
.Ltmp278:
.LBB7_5:
	.loc	10 231 46 is_stmt 1             @ lvgl/src/lv_widgets/lv_arc.c:231:46
	ldr	r0, [sp, #12]
	.loc	10 231 26 is_stmt 0             @ lvgl/src/lv_widgets/lv_arc.c:231:26
	bl	lv_obj_get_ext_attr
	.loc	10 231 20                       @ lvgl/src/lv_widgets/lv_arc.c:231:20
	str	r0, [sp, #4]
.Ltmp279:
	.loc	10 233 8 is_stmt 1              @ lvgl/src/lv_widgets/lv_arc.c:233:8
	ldrh.w	r0, [sp, #10]
.Ltmp280:
	.loc	10 233 8 is_stmt 0              @ lvgl/src/lv_widgets/lv_arc.c:233:8
	cmp.w	r0, #360
	ble	.LBB7_7
	b	.LBB7_6
.LBB7_6:
.Ltmp281:
	.loc	10 233 27                       @ lvgl/src/lv_widgets/lv_arc.c:233:27
	ldrh.w	r0, [sp, #10]
	sub.w	r0, r0, #360
	strh.w	r0, [sp, #10]
	.loc	10 233 21                       @ lvgl/src/lv_widgets/lv_arc.c:233:21
	b	.LBB7_7
.Ltmp282:
.LBB7_7:
	.loc	10 234 8 is_stmt 1              @ lvgl/src/lv_widgets/lv_arc.c:234:8
	ldrh.w	r0, [sp, #8]
	.loc	10 234 15 is_stmt 0             @ lvgl/src/lv_widgets/lv_arc.c:234:15
	ldrh.w	r1, [sp, #10]
	.loc	10 234 21                       @ lvgl/src/lv_widgets/lv_arc.c:234:21
	add.w	r1, r1, #360
.Ltmp283:
	.loc	10 234 8                        @ lvgl/src/lv_widgets/lv_arc.c:234:8
	cmp	r0, r1
	ble	.LBB7_9
	b	.LBB7_8
.LBB7_8:
.Ltmp284:
	.loc	10 234 35                       @ lvgl/src/lv_widgets/lv_arc.c:234:35
	ldrh.w	r0, [sp, #10]
	.loc	10 234 41                       @ lvgl/src/lv_widgets/lv_arc.c:234:41
	add.w	r0, r0, #360
	.loc	10 234 33                       @ lvgl/src/lv_widgets/lv_arc.c:234:33
	strh.w	r0, [sp, #8]
	.loc	10 234 29                       @ lvgl/src/lv_widgets/lv_arc.c:234:29
	b	.LBB7_9
.Ltmp285:
.LBB7_9:
	.loc	10 236 18 is_stmt 1             @ lvgl/src/lv_widgets/lv_arc.c:236:18
	ldr	r0, [sp, #12]
	.loc	10 236 23 is_stmt 0             @ lvgl/src/lv_widgets/lv_arc.c:236:23
	ldr	r2, [sp, #4]
	.loc	10 236 28                       @ lvgl/src/lv_widgets/lv_arc.c:236:28
	ldrh	r1, [r2, #2]
	.loc	10 236 50                       @ lvgl/src/lv_widgets/lv_arc.c:236:50
	ldrh	r2, [r2, #4]
	movs	r3, #1
	.loc	10 236 5                        @ lvgl/src/lv_widgets/lv_arc.c:236:5
	str	r3, [sp]                        @ 4-byte Spill
	bl	inv_arc_area
	ldr	r3, [sp]                        @ 4-byte Reload
	.loc	10 238 28 is_stmt 1             @ lvgl/src/lv_widgets/lv_arc.c:238:28
	ldrh.w	r0, [sp, #10]
	.loc	10 238 5 is_stmt 0              @ lvgl/src/lv_widgets/lv_arc.c:238:5
	ldr	r1, [sp, #4]
	.loc	10 238 26                       @ lvgl/src/lv_widgets/lv_arc.c:238:26
	strh	r0, [r1, #2]
	.loc	10 239 26 is_stmt 1             @ lvgl/src/lv_widgets/lv_arc.c:239:26
	ldrh.w	r0, [sp, #8]
	.loc	10 239 5 is_stmt 0              @ lvgl/src/lv_widgets/lv_arc.c:239:5
	ldr	r1, [sp, #4]
	.loc	10 239 24                       @ lvgl/src/lv_widgets/lv_arc.c:239:24
	strh	r0, [r1, #4]
	.loc	10 241 18 is_stmt 1             @ lvgl/src/lv_widgets/lv_arc.c:241:18
	ldr	r0, [sp, #12]
	.loc	10 241 23 is_stmt 0             @ lvgl/src/lv_widgets/lv_arc.c:241:23
	ldr	r2, [sp, #4]
	.loc	10 241 28                       @ lvgl/src/lv_widgets/lv_arc.c:241:28
	ldrh	r1, [r2, #2]
	.loc	10 241 50                       @ lvgl/src/lv_widgets/lv_arc.c:241:50
	ldrh	r2, [r2, #4]
	.loc	10 241 5                        @ lvgl/src/lv_widgets/lv_arc.c:241:5
	bl	inv_arc_area
	.loc	10 242 1 is_stmt 1              @ lvgl/src/lv_widgets/lv_arc.c:242:1
	add	sp, #16
	pop	{r7, pc}
.Ltmp286:
.Lfunc_end7:
	.size	lv_arc_set_angles, .Lfunc_end7-lv_arc_set_angles
	.cfi_endproc
	.cantunwind
	.fnend
                                        @ -- End function
	.section	.text.lv_arc_set_bg_start_angle,"ax",%progbits
	.hidden	lv_arc_set_bg_start_angle       @ -- Begin function lv_arc_set_bg_start_angle
	.globl	lv_arc_set_bg_start_angle
	.p2align	3
	.type	lv_arc_set_bg_start_angle,%function
	.code	16                              @ @lv_arc_set_bg_start_angle
	.thumb_func
lv_arc_set_bg_start_angle:
.Lfunc_begin8:
	.loc	10 250 0                        @ lvgl/src/lv_widgets/lv_arc.c:250:0
	.fnstart
	.cfi_startproc
@ %bb.0:
	.save	{r7, lr}
	push	{r7, lr}
	.cfi_def_cfa_offset 8
	.cfi_offset lr, -4
	.cfi_offset r7, -8
	.pad	#48
	sub	sp, #48
	.cfi_def_cfa_offset 56
                                        @ kill: def $r2 killed $r1
	str	r0, [sp, #44]
	strh.w	r1, [sp, #42]
.Ltmp287:
	.loc	10 251 5 prologue_end           @ lvgl/src/lv_widgets/lv_arc.c:251:5
	b	.LBB8_1
.LBB8_1:
.Ltmp288:
	.loc	10 251 5 is_stmt 0              @ lvgl/src/lv_widgets/lv_arc.c:251:5
	ldr	r0, [sp, #44]
	bl	lv_debug_check_null
.Ltmp289:
	.loc	10 251 5                        @ lvgl/src/lv_widgets/lv_arc.c:251:5
	cbnz	r0, .LBB8_4
	b	.LBB8_2
.LBB8_2:
.Ltmp290:
	.loc	10 251 5                        @ lvgl/src/lv_widgets/lv_arc.c:251:5
	ldr	r2, [sp, #44]
	movw	r0, :lower16:.L.str.1
	movt	r0, :upper16:.L.str.1
	movs	r3, #0
	bl	lv_debug_log_error
	b	.LBB8_3
.LBB8_3:                                @ =>This Inner Loop Header: Depth=1
	b	.LBB8_3
.Ltmp291:
.LBB8_4:
	.loc	10 251 5                        @ lvgl/src/lv_widgets/lv_arc.c:251:5
	b	.LBB8_5
.Ltmp292:
.LBB8_5:
	.loc	10 253 46 is_stmt 1             @ lvgl/src/lv_widgets/lv_arc.c:253:46
	ldr	r0, [sp, #44]
	.loc	10 253 26 is_stmt 0             @ lvgl/src/lv_widgets/lv_arc.c:253:26
	bl	lv_obj_get_ext_attr
	.loc	10 253 20                       @ lvgl/src/lv_widgets/lv_arc.c:253:20
	str	r0, [sp, #36]
.Ltmp293:
	.loc	10 255 8 is_stmt 1              @ lvgl/src/lv_widgets/lv_arc.c:255:8
	ldrh.w	r0, [sp, #42]
.Ltmp294:
	.loc	10 255 8 is_stmt 0              @ lvgl/src/lv_widgets/lv_arc.c:255:8
	cmp.w	r0, #360
	ble	.LBB8_7
	b	.LBB8_6
.LBB8_6:
.Ltmp295:
	.loc	10 255 27                       @ lvgl/src/lv_widgets/lv_arc.c:255:27
	ldrh.w	r0, [sp, #42]
	sub.w	r0, r0, #360
	strh.w	r0, [sp, #42]
	.loc	10 255 21                       @ lvgl/src/lv_widgets/lv_arc.c:255:21
	b	.LBB8_7
.Ltmp296:
.LBB8_7:
	.loc	10 258 8 is_stmt 1              @ lvgl/src/lv_widgets/lv_arc.c:258:8
	ldrh.w	r0, [sp, #42]
	ldr	r1, [sp, #36]
	ldrh	r1, [r1, #6]
	subs	r0, r0, r1
	cmp	r0, #1
	blt	.LBB8_9
	b	.LBB8_8
.LBB8_8:
	ldrh.w	r0, [sp, #42]
	ldr	r1, [sp, #36]
	ldrh	r1, [r1, #6]
	subs	r0, r0, r1
	str	r0, [sp, #32]                   @ 4-byte Spill
	b	.LBB8_10
.LBB8_9:
	ldrh.w	r1, [sp, #42]
	ldr	r0, [sp, #36]
	ldrh	r0, [r0, #6]
	subs	r0, r0, r1
	str	r0, [sp, #32]                   @ 4-byte Spill
	b	.LBB8_10
.LBB8_10:
	ldr	r0, [sp, #32]                   @ 4-byte Reload
.Ltmp297:
	.loc	10 258 8 is_stmt 0              @ lvgl/src/lv_widgets/lv_arc.c:258:8
	cmp	r0, #180
	blt	.LBB8_12
	b	.LBB8_11
.LBB8_11:
.Ltmp298:
	.loc	10 259 27 is_stmt 1             @ lvgl/src/lv_widgets/lv_arc.c:259:27
	ldr	r0, [sp, #44]
	.loc	10 259 9 is_stmt 0              @ lvgl/src/lv_widgets/lv_arc.c:259:9
	bl	lv_obj_invalidate
	.loc	10 260 5 is_stmt 1              @ lvgl/src/lv_widgets/lv_arc.c:260:5
	b	.LBB8_33
.Ltmp299:
.LBB8_12:
	.loc	10 262 13                       @ lvgl/src/lv_widgets/lv_arc.c:262:13
	ldr	r1, [sp, #36]
	.loc	10 262 18 is_stmt 0             @ lvgl/src/lv_widgets/lv_arc.c:262:18
	ldrh	r0, [r1, #6]
	.loc	10 262 40                       @ lvgl/src/lv_widgets/lv_arc.c:262:40
	ldrh	r1, [r1, #8]
	.loc	10 262 53                       @ lvgl/src/lv_widgets/lv_arc.c:262:53
	cmp	r0, r1
	ble	.LBB8_21
	b	.LBB8_13
.LBB8_13:
	.loc	10 262 56                       @ lvgl/src/lv_widgets/lv_arc.c:262:56
	ldrh.w	r0, [sp, #42]
	.loc	10 262 64                       @ lvgl/src/lv_widgets/lv_arc.c:262:64
	ldr	r1, [sp, #36]
	.loc	10 262 69                       @ lvgl/src/lv_widgets/lv_arc.c:262:69
	ldrh	r1, [r1, #8]
.Ltmp300:
	.loc	10 262 13                       @ lvgl/src/lv_widgets/lv_arc.c:262:13
	cmp	r0, r1
	ble	.LBB8_21
	b	.LBB8_14
.LBB8_14:
.Ltmp301:
	.loc	10 263 22 is_stmt 1             @ lvgl/src/lv_widgets/lv_arc.c:263:22
	ldr	r0, [sp, #44]
	.loc	10 263 27 is_stmt 0             @ lvgl/src/lv_widgets/lv_arc.c:263:27
	str	r0, [sp, #28]                   @ 4-byte Spill
	ldr	r0, [sp, #36]
	ldrh	r0, [r0, #6]
	ldrh.w	r1, [sp, #42]
	cmp	r0, r1
	bge	.LBB8_16
	b	.LBB8_15
.LBB8_15:
	ldr	r0, [sp, #36]
	ldrh	r0, [r0, #6]
	str	r0, [sp, #24]                   @ 4-byte Spill
	b	.LBB8_17
.LBB8_16:
	ldrh.w	r0, [sp, #42]
	str	r0, [sp, #24]                   @ 4-byte Spill
	b	.LBB8_17
.LBB8_17:
	ldr	r0, [sp, #24]                   @ 4-byte Reload
	.loc	10 263 68                       @ lvgl/src/lv_widgets/lv_arc.c:263:68
	str	r0, [sp, #20]                   @ 4-byte Spill
	ldr	r0, [sp, #36]
	ldrh	r0, [r0, #6]
	ldrh.w	r1, [sp, #42]
	cmp	r0, r1
	ble	.LBB8_19
	b	.LBB8_18
.LBB8_18:
	ldr	r0, [sp, #36]
	ldrh	r0, [r0, #6]
	str	r0, [sp, #16]                   @ 4-byte Spill
	b	.LBB8_20
.LBB8_19:
	ldrh.w	r0, [sp, #42]
	str	r0, [sp, #16]                   @ 4-byte Spill
	b	.LBB8_20
.LBB8_20:
	ldr	r0, [sp, #28]                   @ 4-byte Reload
	ldr	r1, [sp, #20]                   @ 4-byte Reload
	ldr	r2, [sp, #16]                   @ 4-byte Reload
	.loc	10 263 9                        @ lvgl/src/lv_widgets/lv_arc.c:263:9
	uxth	r1, r1
	uxth	r2, r2
	movs	r3, #0
	bl	inv_arc_area
	.loc	10 264 5 is_stmt 1              @ lvgl/src/lv_widgets/lv_arc.c:264:5
	b	.LBB8_32
.Ltmp302:
.LBB8_21:
	.loc	10 266 13                       @ lvgl/src/lv_widgets/lv_arc.c:266:13
	ldr	r1, [sp, #36]
	.loc	10 266 18 is_stmt 0             @ lvgl/src/lv_widgets/lv_arc.c:266:18
	ldrh	r0, [r1, #6]
	.loc	10 266 40                       @ lvgl/src/lv_widgets/lv_arc.c:266:40
	ldrh	r1, [r1, #8]
	.loc	10 266 53                       @ lvgl/src/lv_widgets/lv_arc.c:266:53
	cmp	r0, r1
	bge	.LBB8_30
	b	.LBB8_22
.LBB8_22:
	.loc	10 266 56                       @ lvgl/src/lv_widgets/lv_arc.c:266:56
	ldrh.w	r0, [sp, #42]
	.loc	10 266 64                       @ lvgl/src/lv_widgets/lv_arc.c:266:64
	ldr	r1, [sp, #36]
	.loc	10 266 69                       @ lvgl/src/lv_widgets/lv_arc.c:266:69
	ldrh	r1, [r1, #8]
.Ltmp303:
	.loc	10 266 13                       @ lvgl/src/lv_widgets/lv_arc.c:266:13
	cmp	r0, r1
	bge	.LBB8_30
	b	.LBB8_23
.LBB8_23:
.Ltmp304:
	.loc	10 267 22 is_stmt 1             @ lvgl/src/lv_widgets/lv_arc.c:267:22
	ldr	r0, [sp, #44]
	.loc	10 267 27 is_stmt 0             @ lvgl/src/lv_widgets/lv_arc.c:267:27
	str	r0, [sp, #12]                   @ 4-byte Spill
	ldr	r0, [sp, #36]
	ldrh	r0, [r0, #6]
	ldrh.w	r1, [sp, #42]
	cmp	r0, r1
	bge	.LBB8_25
	b	.LBB8_24
.LBB8_24:
	ldr	r0, [sp, #36]
	ldrh	r0, [r0, #6]
	str	r0, [sp, #8]                    @ 4-byte Spill
	b	.LBB8_26
.LBB8_25:
	ldrh.w	r0, [sp, #42]
	str	r0, [sp, #8]                    @ 4-byte Spill
	b	.LBB8_26
.LBB8_26:
	ldr	r0, [sp, #8]                    @ 4-byte Reload
	.loc	10 267 68                       @ lvgl/src/lv_widgets/lv_arc.c:267:68
	str	r0, [sp, #4]                    @ 4-byte Spill
	ldr	r0, [sp, #36]
	ldrh	r0, [r0, #6]
	ldrh.w	r1, [sp, #42]
	cmp	r0, r1
	ble	.LBB8_28
	b	.LBB8_27
.LBB8_27:
	ldr	r0, [sp, #36]
	ldrh	r0, [r0, #6]
	str	r0, [sp]                        @ 4-byte Spill
	b	.LBB8_29
.LBB8_28:
	ldrh.w	r0, [sp, #42]
	str	r0, [sp]                        @ 4-byte Spill
	b	.LBB8_29
.LBB8_29:
	ldr	r0, [sp, #12]                   @ 4-byte Reload
	ldr	r1, [sp, #4]                    @ 4-byte Reload
	ldr	r2, [sp]                        @ 4-byte Reload
	.loc	10 267 9                        @ lvgl/src/lv_widgets/lv_arc.c:267:9
	uxth	r1, r1
	uxth	r2, r2
	movs	r3, #0
	bl	inv_arc_area
	.loc	10 268 5 is_stmt 1              @ lvgl/src/lv_widgets/lv_arc.c:268:5
	b	.LBB8_31
.Ltmp305:
.LBB8_30:
	.loc	10 271 27                       @ lvgl/src/lv_widgets/lv_arc.c:271:27
	ldr	r0, [sp, #44]
	.loc	10 271 9 is_stmt 0              @ lvgl/src/lv_widgets/lv_arc.c:271:9
	bl	lv_obj_invalidate
	b	.LBB8_31
.Ltmp306:
.LBB8_31:
	.loc	10 0 9                          @ lvgl/src/lv_widgets/lv_arc.c:0:9
	b	.LBB8_32
.LBB8_32:
	b	.LBB8_33
.LBB8_33:
	.loc	10 274 27 is_stmt 1             @ lvgl/src/lv_widgets/lv_arc.c:274:27
	ldrh.w	r0, [sp, #42]
	.loc	10 274 5 is_stmt 0              @ lvgl/src/lv_widgets/lv_arc.c:274:5
	ldr	r1, [sp, #36]
	.loc	10 274 25                       @ lvgl/src/lv_widgets/lv_arc.c:274:25
	strh	r0, [r1, #6]
	.loc	10 276 18 is_stmt 1             @ lvgl/src/lv_widgets/lv_arc.c:276:18
	ldr	r0, [sp, #44]
	.loc	10 276 5 is_stmt 0              @ lvgl/src/lv_widgets/lv_arc.c:276:5
	bl	value_update
	.loc	10 277 1 is_stmt 1              @ lvgl/src/lv_widgets/lv_arc.c:277:1
	add	sp, #48
	pop	{r7, pc}
.Ltmp307:
.Lfunc_end8:
	.size	lv_arc_set_bg_start_angle, .Lfunc_end8-lv_arc_set_bg_start_angle
	.cfi_endproc
	.cantunwind
	.fnend
                                        @ -- End function
	.section	.text.value_update,"ax",%progbits
	.p2align	3                               @ -- Begin function value_update
	.type	value_update,%function
	.code	16                              @ @value_update
	.thumb_func
value_update:
.Lfunc_begin9:
	.loc	10 1085 0                       @ lvgl/src/lv_widgets/lv_arc.c:1085:0
	.fnstart
	.cfi_startproc
@ %bb.0:
	.save	{r7, lr}
	push	{r7, lr}
	.cfi_def_cfa_offset 8
	.cfi_offset lr, -4
	.cfi_offset r7, -8
	.pad	#24
	sub	sp, #24
	.cfi_def_cfa_offset 32
	str	r0, [sp, #20]
.Ltmp308:
	.loc	10 1086 62 prologue_end         @ lvgl/src/lv_widgets/lv_arc.c:1086:62
	ldr	r0, [sp, #20]
	.loc	10 1086 42 is_stmt 0            @ lvgl/src/lv_widgets/lv_arc.c:1086:42
	bl	lv_obj_get_ext_attr
	.loc	10 1086 20                      @ lvgl/src/lv_widgets/lv_arc.c:1086:20
	str	r0, [sp, #16]
	.loc	10 1088 51 is_stmt 1            @ lvgl/src/lv_widgets/lv_arc.c:1088:51
	ldr	r0, [sp, #16]
	.loc	10 1088 56 is_stmt 0            @ lvgl/src/lv_widgets/lv_arc.c:1088:56
	ldrh	r0, [r0, #8]
	.loc	10 1088 42                      @ lvgl/src/lv_widgets/lv_arc.c:1088:42
	strh.w	r0, [sp, #10]
.Ltmp309:
	.loc	10 1089 8 is_stmt 1             @ lvgl/src/lv_widgets/lv_arc.c:1089:8
	ldr	r1, [sp, #16]
	.loc	10 1089 13 is_stmt 0            @ lvgl/src/lv_widgets/lv_arc.c:1089:13
	ldrh	r0, [r1, #8]
	.loc	10 1089 33                      @ lvgl/src/lv_widgets/lv_arc.c:1089:33
	ldrh	r1, [r1, #6]
.Ltmp310:
	.loc	10 1089 8                       @ lvgl/src/lv_widgets/lv_arc.c:1089:8
	cmp	r0, r1
	bge	.LBB9_2
	b	.LBB9_1
.LBB9_1:
.Ltmp311:
	.loc	10 1089 58                      @ lvgl/src/lv_widgets/lv_arc.c:1089:58
	ldr	r0, [sp, #16]
	ldrh	r0, [r0, #8]
	.loc	10 1089 76                      @ lvgl/src/lv_widgets/lv_arc.c:1089:76
	add.w	r0, r0, #360
	.loc	10 1089 56                      @ lvgl/src/lv_widgets/lv_arc.c:1089:56
	strh.w	r0, [sp, #10]
	.loc	10 1089 49                      @ lvgl/src/lv_widgets/lv_arc.c:1089:49
	b	.LBB9_2
.Ltmp312:
.LBB9_2:
	.loc	10 1092 12 is_stmt 1            @ lvgl/src/lv_widgets/lv_arc.c:1092:12
	ldr	r0, [sp, #16]
	.loc	10 1092 17 is_stmt 0            @ lvgl/src/lv_widgets/lv_arc.c:1092:17
	ldrb.w	r0, [r0, #34]
	ubfx	r0, r0, #1, #2
	.loc	10 1092 5                       @ lvgl/src/lv_widgets/lv_arc.c:1092:5
	mov	r1, r0
	str	r1, [sp, #4]                    @ 4-byte Spill
	cmp	r0, #1
	beq	.LBB9_4
	b	.LBB9_3
.LBB9_3:
	ldr	r0, [sp, #4]                    @ 4-byte Reload
	cmp	r0, #2
	beq	.LBB9_8
	b	.LBB9_9
.LBB9_4:
.Ltmp313:
	.loc	10 1094 28 is_stmt 1            @ lvgl/src/lv_widgets/lv_arc.c:1094:28
	ldr	r0, [sp, #16]
	.loc	10 1094 33 is_stmt 0            @ lvgl/src/lv_widgets/lv_arc.c:1094:33
	ldrh	r0, [r0, #6]
	.loc	10 1094 50                      @ lvgl/src/lv_widgets/lv_arc.c:1094:50
	ldrsh.w	r1, [sp, #10]
	.loc	10 1094 48                      @ lvgl/src/lv_widgets/lv_arc.c:1094:48
	add	r0, r1
	.loc	10 1094 58                      @ lvgl/src/lv_widgets/lv_arc.c:1094:58
	add.w	r0, r0, r0, lsr #31
	lsrs	r0, r0, #1
	.loc	10 1094 25                      @ lvgl/src/lv_widgets/lv_arc.c:1094:25
	strh.w	r0, [sp, #14]
	.loc	10 1095 40 is_stmt 1            @ lvgl/src/lv_widgets/lv_arc.c:1095:40
	ldr	r1, [sp, #16]
	.loc	10 1095 45 is_stmt 0            @ lvgl/src/lv_widgets/lv_arc.c:1095:45
	ldrsh.w	r0, [r1, #30]
	.loc	10 1095 62                      @ lvgl/src/lv_widgets/lv_arc.c:1095:62
	ldrsh.w	r1, [r1, #32]
	.loc	10 1095 55                      @ lvgl/src/lv_widgets/lv_arc.c:1095:55
	add	r0, r1
	.loc	10 1095 73                      @ lvgl/src/lv_widgets/lv_arc.c:1095:73
	add.w	r0, r0, r0, lsr #31
	lsrs	r0, r0, #1
	.loc	10 1095 28                      @ lvgl/src/lv_widgets/lv_arc.c:1095:28
	strh.w	r0, [sp, #12]
.Ltmp314:
	.loc	10 1097 16 is_stmt 1            @ lvgl/src/lv_widgets/lv_arc.c:1097:16
	ldr	r0, [sp, #16]
	.loc	10 1097 21 is_stmt 0            @ lvgl/src/lv_widgets/lv_arc.c:1097:21
	ldrsh.w	r0, [r0, #28]
	.loc	10 1097 33                      @ lvgl/src/lv_widgets/lv_arc.c:1097:33
	ldrsh.w	r1, [sp, #12]
.Ltmp315:
	.loc	10 1097 16                      @ lvgl/src/lv_widgets/lv_arc.c:1097:16
	cmp	r0, r1
	bge	.LBB9_6
	b	.LBB9_5
.LBB9_5:
.Ltmp316:
	.loc	10 1098 33 is_stmt 1            @ lvgl/src/lv_widgets/lv_arc.c:1098:33
	ldr	r3, [sp, #16]
	.loc	10 1098 38 is_stmt 0            @ lvgl/src/lv_widgets/lv_arc.c:1098:38
	ldrsh.w	r0, [r3, #28]
	.loc	10 1098 54                      @ lvgl/src/lv_widgets/lv_arc.c:1098:54
	ldrsh.w	r1, [r3, #30]
	.loc	10 1098 65                      @ lvgl/src/lv_widgets/lv_arc.c:1098:65
	ldrsh.w	r2, [sp, #12]
	.loc	10 1098 86                      @ lvgl/src/lv_widgets/lv_arc.c:1098:86
	ldrh	r3, [r3, #6]
	.loc	10 1098 102                     @ lvgl/src/lv_widgets/lv_arc.c:1098:102
	ldrsh.w	r12, [sp, #14]
	.loc	10 1098 25                      @ lvgl/src/lv_widgets/lv_arc.c:1098:25
	mov	lr, sp
	str.w	r12, [lr]
	bl	_lv_map
	.loc	10 1098 23                      @ lvgl/src/lv_widgets/lv_arc.c:1098:23
	strh.w	r0, [sp, #8]
	.loc	10 1099 40 is_stmt 1            @ lvgl/src/lv_widgets/lv_arc.c:1099:40
	ldr	r0, [sp, #20]
	.loc	10 1099 45 is_stmt 0            @ lvgl/src/lv_widgets/lv_arc.c:1099:45
	ldrh.w	r1, [sp, #8]
	.loc	10 1099 17                      @ lvgl/src/lv_widgets/lv_arc.c:1099:17
	bl	lv_arc_set_start_angle
	.loc	10 1100 38 is_stmt 1            @ lvgl/src/lv_widgets/lv_arc.c:1100:38
	ldr	r0, [sp, #20]
	.loc	10 1100 43 is_stmt 0            @ lvgl/src/lv_widgets/lv_arc.c:1100:43
	ldrh.w	r1, [sp, #14]
	.loc	10 1100 17                      @ lvgl/src/lv_widgets/lv_arc.c:1100:17
	bl	lv_arc_set_end_angle
	.loc	10 1101 13 is_stmt 1            @ lvgl/src/lv_widgets/lv_arc.c:1101:13
	b	.LBB9_7
.Ltmp317:
.LBB9_6:
	.loc	10 1103 33                      @ lvgl/src/lv_widgets/lv_arc.c:1103:33
	ldr	r2, [sp, #16]
	.loc	10 1103 49 is_stmt 0            @ lvgl/src/lv_widgets/lv_arc.c:1103:49
	ldrsh.w	r1, [sp, #12]
	.loc	10 1103 38                      @ lvgl/src/lv_widgets/lv_arc.c:1103:38
	ldrsh.w	r0, [r2, #28]
	.loc	10 1103 70                      @ lvgl/src/lv_widgets/lv_arc.c:1103:70
	ldrsh.w	r2, [r2, #32]
	.loc	10 1103 81                      @ lvgl/src/lv_widgets/lv_arc.c:1103:81
	ldrsh.w	r3, [sp, #14]
	.loc	10 1103 94                      @ lvgl/src/lv_widgets/lv_arc.c:1103:94
	ldrsh.w	r12, [sp, #10]
	.loc	10 1103 25                      @ lvgl/src/lv_widgets/lv_arc.c:1103:25
	mov	lr, sp
	str.w	r12, [lr]
	bl	_lv_map
	.loc	10 1103 23                      @ lvgl/src/lv_widgets/lv_arc.c:1103:23
	strh.w	r0, [sp, #8]
	.loc	10 1104 40 is_stmt 1            @ lvgl/src/lv_widgets/lv_arc.c:1104:40
	ldr	r0, [sp, #20]
	.loc	10 1104 45 is_stmt 0            @ lvgl/src/lv_widgets/lv_arc.c:1104:45
	ldrh.w	r1, [sp, #14]
	.loc	10 1104 17                      @ lvgl/src/lv_widgets/lv_arc.c:1104:17
	bl	lv_arc_set_start_angle
	.loc	10 1105 38 is_stmt 1            @ lvgl/src/lv_widgets/lv_arc.c:1105:38
	ldr	r0, [sp, #20]
	.loc	10 1105 43 is_stmt 0            @ lvgl/src/lv_widgets/lv_arc.c:1105:43
	ldrh.w	r1, [sp, #8]
	.loc	10 1105 17                      @ lvgl/src/lv_widgets/lv_arc.c:1105:17
	bl	lv_arc_set_end_angle
	b	.LBB9_7
.Ltmp318:
.LBB9_7:
	.loc	10 1107 13 is_stmt 1            @ lvgl/src/lv_widgets/lv_arc.c:1107:13
	b	.LBB9_10
.LBB9_8:
	.loc	10 1109 29                      @ lvgl/src/lv_widgets/lv_arc.c:1109:29
	ldr	r3, [sp, #16]
	.loc	10 1109 34 is_stmt 0            @ lvgl/src/lv_widgets/lv_arc.c:1109:34
	ldrsh.w	r0, [r3, #28]
	.loc	10 1109 50                      @ lvgl/src/lv_widgets/lv_arc.c:1109:50
	ldrsh.w	r1, [r3, #30]
	.loc	10 1109 66                      @ lvgl/src/lv_widgets/lv_arc.c:1109:66
	ldrsh.w	r2, [r3, #32]
	.loc	10 1109 82                      @ lvgl/src/lv_widgets/lv_arc.c:1109:82
	ldrh	r3, [r3, #6]
	.loc	10 1109 98                      @ lvgl/src/lv_widgets/lv_arc.c:1109:98
	ldrsh.w	r12, [sp, #10]
	.loc	10 1109 21                      @ lvgl/src/lv_widgets/lv_arc.c:1109:21
	mov	lr, sp
	str.w	r12, [lr]
	bl	_lv_map
	.loc	10 1109 19                      @ lvgl/src/lv_widgets/lv_arc.c:1109:19
	strh.w	r0, [sp, #8]
	.loc	10 1110 36 is_stmt 1            @ lvgl/src/lv_widgets/lv_arc.c:1110:36
	ldr	r0, [sp, #20]
	.loc	10 1110 41 is_stmt 0            @ lvgl/src/lv_widgets/lv_arc.c:1110:41
	ldrh.w	r1, [sp, #8]
	.loc	10 1110 13                      @ lvgl/src/lv_widgets/lv_arc.c:1110:13
	bl	lv_arc_set_start_angle
	.loc	10 1111 13 is_stmt 1            @ lvgl/src/lv_widgets/lv_arc.c:1111:13
	b	.LBB9_10
.LBB9_9:
	.loc	10 1113 29                      @ lvgl/src/lv_widgets/lv_arc.c:1113:29
	ldr	r3, [sp, #16]
	.loc	10 1113 34 is_stmt 0            @ lvgl/src/lv_widgets/lv_arc.c:1113:34
	ldrsh.w	r0, [r3, #28]
	.loc	10 1113 50                      @ lvgl/src/lv_widgets/lv_arc.c:1113:50
	ldrsh.w	r1, [r3, #30]
	.loc	10 1113 66                      @ lvgl/src/lv_widgets/lv_arc.c:1113:66
	ldrsh.w	r2, [r3, #32]
	.loc	10 1113 82                      @ lvgl/src/lv_widgets/lv_arc.c:1113:82
	ldrh	r3, [r3, #6]
	.loc	10 1113 98                      @ lvgl/src/lv_widgets/lv_arc.c:1113:98
	ldrsh.w	r12, [sp, #10]
	.loc	10 1113 21                      @ lvgl/src/lv_widgets/lv_arc.c:1113:21
	mov	lr, sp
	str.w	r12, [lr]
	bl	_lv_map
	.loc	10 1113 19                      @ lvgl/src/lv_widgets/lv_arc.c:1113:19
	strh.w	r0, [sp, #8]
	.loc	10 1114 34 is_stmt 1            @ lvgl/src/lv_widgets/lv_arc.c:1114:34
	ldr	r0, [sp, #20]
	.loc	10 1114 39 is_stmt 0            @ lvgl/src/lv_widgets/lv_arc.c:1114:39
	ldrh.w	r1, [sp, #8]
	.loc	10 1114 13                      @ lvgl/src/lv_widgets/lv_arc.c:1114:13
	bl	lv_arc_set_end_angle
	.loc	10 1115 36 is_stmt 1            @ lvgl/src/lv_widgets/lv_arc.c:1115:36
	ldr	r0, [sp, #20]
	.loc	10 1115 41 is_stmt 0            @ lvgl/src/lv_widgets/lv_arc.c:1115:41
	ldr	r1, [sp, #16]
	.loc	10 1115 46                      @ lvgl/src/lv_widgets/lv_arc.c:1115:46
	ldrh	r1, [r1, #6]
	.loc	10 1115 13                      @ lvgl/src/lv_widgets/lv_arc.c:1115:13
	bl	lv_arc_set_start_angle
	.loc	10 1116 5 is_stmt 1             @ lvgl/src/lv_widgets/lv_arc.c:1116:5
	b	.LBB9_10
.Ltmp319:
.LBB9_10:
	.loc	10 1117 23                      @ lvgl/src/lv_widgets/lv_arc.c:1117:23
	ldrh.w	r0, [sp, #8]
	.loc	10 1117 5 is_stmt 0             @ lvgl/src/lv_widgets/lv_arc.c:1117:5
	ldr	r1, [sp, #16]
	.loc	10 1117 21                      @ lvgl/src/lv_widgets/lv_arc.c:1117:21
	strh	r0, [r1, #44]
	.loc	10 1118 1 is_stmt 1             @ lvgl/src/lv_widgets/lv_arc.c:1118:1
	add	sp, #24
	pop	{r7, pc}
.Ltmp320:
.Lfunc_end9:
	.size	value_update, .Lfunc_end9-value_update
	.cfi_endproc
	.cantunwind
	.fnend
                                        @ -- End function
	.section	.text.lv_arc_set_bg_end_angle,"ax",%progbits
	.hidden	lv_arc_set_bg_end_angle         @ -- Begin function lv_arc_set_bg_end_angle
	.globl	lv_arc_set_bg_end_angle
	.p2align	3
	.type	lv_arc_set_bg_end_angle,%function
	.code	16                              @ @lv_arc_set_bg_end_angle
	.thumb_func
lv_arc_set_bg_end_angle:
.Lfunc_begin10:
	.loc	10 285 0                        @ lvgl/src/lv_widgets/lv_arc.c:285:0
	.fnstart
	.cfi_startproc
@ %bb.0:
	.save	{r7, lr}
	push	{r7, lr}
	.cfi_def_cfa_offset 8
	.cfi_offset lr, -4
	.cfi_offset r7, -8
	.pad	#48
	sub	sp, #48
	.cfi_def_cfa_offset 56
                                        @ kill: def $r2 killed $r1
	str	r0, [sp, #44]
	strh.w	r1, [sp, #42]
.Ltmp321:
	.loc	10 286 5 prologue_end           @ lvgl/src/lv_widgets/lv_arc.c:286:5
	b	.LBB10_1
.LBB10_1:
.Ltmp322:
	.loc	10 286 5 is_stmt 0              @ lvgl/src/lv_widgets/lv_arc.c:286:5
	ldr	r0, [sp, #44]
	bl	lv_debug_check_null
.Ltmp323:
	.loc	10 286 5                        @ lvgl/src/lv_widgets/lv_arc.c:286:5
	cbnz	r0, .LBB10_4
	b	.LBB10_2
.LBB10_2:
.Ltmp324:
	.loc	10 286 5                        @ lvgl/src/lv_widgets/lv_arc.c:286:5
	ldr	r2, [sp, #44]
	movw	r0, :lower16:.L.str.1
	movt	r0, :upper16:.L.str.1
	movs	r3, #0
	bl	lv_debug_log_error
	b	.LBB10_3
.LBB10_3:                               @ =>This Inner Loop Header: Depth=1
	b	.LBB10_3
.Ltmp325:
.LBB10_4:
	.loc	10 286 5                        @ lvgl/src/lv_widgets/lv_arc.c:286:5
	b	.LBB10_5
.Ltmp326:
.LBB10_5:
	.loc	10 288 46 is_stmt 1             @ lvgl/src/lv_widgets/lv_arc.c:288:46
	ldr	r0, [sp, #44]
	.loc	10 288 26 is_stmt 0             @ lvgl/src/lv_widgets/lv_arc.c:288:26
	bl	lv_obj_get_ext_attr
	.loc	10 288 20                       @ lvgl/src/lv_widgets/lv_arc.c:288:20
	str	r0, [sp, #36]
.Ltmp327:
	.loc	10 290 8 is_stmt 1              @ lvgl/src/lv_widgets/lv_arc.c:290:8
	ldrh.w	r0, [sp, #42]
	.loc	10 290 15 is_stmt 0             @ lvgl/src/lv_widgets/lv_arc.c:290:15
	ldr	r1, [sp, #36]
	.loc	10 290 20                       @ lvgl/src/lv_widgets/lv_arc.c:290:20
	ldrh	r1, [r1, #6]
	.loc	10 290 35                       @ lvgl/src/lv_widgets/lv_arc.c:290:35
	add.w	r1, r1, #360
.Ltmp328:
	.loc	10 290 8                        @ lvgl/src/lv_widgets/lv_arc.c:290:8
	cmp	r0, r1
	ble	.LBB10_7
	b	.LBB10_6
.LBB10_6:
.Ltmp329:
	.loc	10 290 49                       @ lvgl/src/lv_widgets/lv_arc.c:290:49
	ldr	r0, [sp, #36]
	ldrh	r0, [r0, #6]
	.loc	10 290 69                       @ lvgl/src/lv_widgets/lv_arc.c:290:69
	add.w	r0, r0, #360
	.loc	10 290 47                       @ lvgl/src/lv_widgets/lv_arc.c:290:47
	strh.w	r0, [sp, #42]
	.loc	10 290 43                       @ lvgl/src/lv_widgets/lv_arc.c:290:43
	b	.LBB10_7
.Ltmp330:
.LBB10_7:
	.loc	10 293 8 is_stmt 1              @ lvgl/src/lv_widgets/lv_arc.c:293:8
	ldrh.w	r0, [sp, #42]
	ldr	r1, [sp, #36]
	ldrh	r1, [r1, #8]
	subs	r0, r0, r1
	cmp	r0, #1
	blt	.LBB10_9
	b	.LBB10_8
.LBB10_8:
	ldrh.w	r0, [sp, #42]
	ldr	r1, [sp, #36]
	ldrh	r1, [r1, #8]
	subs	r0, r0, r1
	str	r0, [sp, #32]                   @ 4-byte Spill
	b	.LBB10_10
.LBB10_9:
	ldrh.w	r1, [sp, #42]
	ldr	r0, [sp, #36]
	ldrh	r0, [r0, #8]
	subs	r0, r0, r1
	str	r0, [sp, #32]                   @ 4-byte Spill
	b	.LBB10_10
.LBB10_10:
	ldr	r0, [sp, #32]                   @ 4-byte Reload
.Ltmp331:
	.loc	10 293 8 is_stmt 0              @ lvgl/src/lv_widgets/lv_arc.c:293:8
	cmp	r0, #180
	blt	.LBB10_12
	b	.LBB10_11
.LBB10_11:
.Ltmp332:
	.loc	10 294 27 is_stmt 1             @ lvgl/src/lv_widgets/lv_arc.c:294:27
	ldr	r0, [sp, #44]
	.loc	10 294 9 is_stmt 0              @ lvgl/src/lv_widgets/lv_arc.c:294:9
	bl	lv_obj_invalidate
	.loc	10 295 5 is_stmt 1              @ lvgl/src/lv_widgets/lv_arc.c:295:5
	b	.LBB10_33
.Ltmp333:
.LBB10_12:
	.loc	10 297 13                       @ lvgl/src/lv_widgets/lv_arc.c:297:13
	ldr	r1, [sp, #36]
	.loc	10 297 18 is_stmt 0             @ lvgl/src/lv_widgets/lv_arc.c:297:18
	ldrh	r0, [r1, #8]
	.loc	10 297 38                       @ lvgl/src/lv_widgets/lv_arc.c:297:38
	ldrh	r1, [r1, #6]
	.loc	10 297 53                       @ lvgl/src/lv_widgets/lv_arc.c:297:53
	cmp	r0, r1
	ble	.LBB10_21
	b	.LBB10_13
.LBB10_13:
	.loc	10 297 56                       @ lvgl/src/lv_widgets/lv_arc.c:297:56
	ldrh.w	r0, [sp, #42]
	.loc	10 297 62                       @ lvgl/src/lv_widgets/lv_arc.c:297:62
	ldr	r1, [sp, #36]
	.loc	10 297 67                       @ lvgl/src/lv_widgets/lv_arc.c:297:67
	ldrh	r1, [r1, #6]
.Ltmp334:
	.loc	10 297 13                       @ lvgl/src/lv_widgets/lv_arc.c:297:13
	cmp	r0, r1
	ble	.LBB10_21
	b	.LBB10_14
.LBB10_14:
.Ltmp335:
	.loc	10 298 22 is_stmt 1             @ lvgl/src/lv_widgets/lv_arc.c:298:22
	ldr	r0, [sp, #44]
	.loc	10 298 27 is_stmt 0             @ lvgl/src/lv_widgets/lv_arc.c:298:27
	str	r0, [sp, #28]                   @ 4-byte Spill
	ldr	r0, [sp, #36]
	ldrh	r0, [r0, #8]
	ldrh.w	r1, [sp, #42]
	cmp	r0, r1
	bge	.LBB10_16
	b	.LBB10_15
.LBB10_15:
	ldr	r0, [sp, #36]
	ldrh	r0, [r0, #8]
	str	r0, [sp, #24]                   @ 4-byte Spill
	b	.LBB10_17
.LBB10_16:
	ldrh.w	r0, [sp, #42]
	str	r0, [sp, #24]                   @ 4-byte Spill
	b	.LBB10_17
.LBB10_17:
	ldr	r0, [sp, #24]                   @ 4-byte Reload
	.loc	10 298 64                       @ lvgl/src/lv_widgets/lv_arc.c:298:64
	str	r0, [sp, #20]                   @ 4-byte Spill
	ldr	r0, [sp, #36]
	ldrh	r0, [r0, #8]
	ldrh.w	r1, [sp, #42]
	cmp	r0, r1
	ble	.LBB10_19
	b	.LBB10_18
.LBB10_18:
	ldr	r0, [sp, #36]
	ldrh	r0, [r0, #8]
	str	r0, [sp, #16]                   @ 4-byte Spill
	b	.LBB10_20
.LBB10_19:
	ldrh.w	r0, [sp, #42]
	str	r0, [sp, #16]                   @ 4-byte Spill
	b	.LBB10_20
.LBB10_20:
	ldr	r0, [sp, #28]                   @ 4-byte Reload
	ldr	r1, [sp, #20]                   @ 4-byte Reload
	ldr	r2, [sp, #16]                   @ 4-byte Reload
	.loc	10 298 9                        @ lvgl/src/lv_widgets/lv_arc.c:298:9
	uxth	r1, r1
	uxth	r2, r2
	movs	r3, #0
	bl	inv_arc_area
	.loc	10 299 5 is_stmt 1              @ lvgl/src/lv_widgets/lv_arc.c:299:5
	b	.LBB10_32
.Ltmp336:
.LBB10_21:
	.loc	10 301 13                       @ lvgl/src/lv_widgets/lv_arc.c:301:13
	ldr	r1, [sp, #36]
	.loc	10 301 18 is_stmt 0             @ lvgl/src/lv_widgets/lv_arc.c:301:18
	ldrh	r0, [r1, #8]
	.loc	10 301 38                       @ lvgl/src/lv_widgets/lv_arc.c:301:38
	ldrh	r1, [r1, #6]
	.loc	10 301 53                       @ lvgl/src/lv_widgets/lv_arc.c:301:53
	cmp	r0, r1
	bge	.LBB10_30
	b	.LBB10_22
.LBB10_22:
	.loc	10 301 56                       @ lvgl/src/lv_widgets/lv_arc.c:301:56
	ldrh.w	r0, [sp, #42]
	.loc	10 301 62                       @ lvgl/src/lv_widgets/lv_arc.c:301:62
	ldr	r1, [sp, #36]
	.loc	10 301 67                       @ lvgl/src/lv_widgets/lv_arc.c:301:67
	ldrh	r1, [r1, #6]
.Ltmp337:
	.loc	10 301 13                       @ lvgl/src/lv_widgets/lv_arc.c:301:13
	cmp	r0, r1
	bge	.LBB10_30
	b	.LBB10_23
.LBB10_23:
.Ltmp338:
	.loc	10 302 22 is_stmt 1             @ lvgl/src/lv_widgets/lv_arc.c:302:22
	ldr	r0, [sp, #44]
	.loc	10 302 27 is_stmt 0             @ lvgl/src/lv_widgets/lv_arc.c:302:27
	str	r0, [sp, #12]                   @ 4-byte Spill
	ldr	r0, [sp, #36]
	ldrh	r0, [r0, #8]
	ldrh.w	r1, [sp, #42]
	cmp	r0, r1
	bge	.LBB10_25
	b	.LBB10_24
.LBB10_24:
	ldr	r0, [sp, #36]
	ldrh	r0, [r0, #8]
	str	r0, [sp, #8]                    @ 4-byte Spill
	b	.LBB10_26
.LBB10_25:
	ldrh.w	r0, [sp, #42]
	str	r0, [sp, #8]                    @ 4-byte Spill
	b	.LBB10_26
.LBB10_26:
	ldr	r0, [sp, #8]                    @ 4-byte Reload
	.loc	10 302 64                       @ lvgl/src/lv_widgets/lv_arc.c:302:64
	str	r0, [sp, #4]                    @ 4-byte Spill
	ldr	r0, [sp, #36]
	ldrh	r0, [r0, #8]
	ldrh.w	r1, [sp, #42]
	cmp	r0, r1
	ble	.LBB10_28
	b	.LBB10_27
.LBB10_27:
	ldr	r0, [sp, #36]
	ldrh	r0, [r0, #8]
	str	r0, [sp]                        @ 4-byte Spill
	b	.LBB10_29
.LBB10_28:
	ldrh.w	r0, [sp, #42]
	str	r0, [sp]                        @ 4-byte Spill
	b	.LBB10_29
.LBB10_29:
	ldr	r0, [sp, #12]                   @ 4-byte Reload
	ldr	r1, [sp, #4]                    @ 4-byte Reload
	ldr	r2, [sp]                        @ 4-byte Reload
	.loc	10 302 9                        @ lvgl/src/lv_widgets/lv_arc.c:302:9
	uxth	r1, r1
	uxth	r2, r2
	movs	r3, #0
	bl	inv_arc_area
	.loc	10 303 5 is_stmt 1              @ lvgl/src/lv_widgets/lv_arc.c:303:5
	b	.LBB10_31
.Ltmp339:
.LBB10_30:
	.loc	10 306 27                       @ lvgl/src/lv_widgets/lv_arc.c:306:27
	ldr	r0, [sp, #44]
	.loc	10 306 9 is_stmt 0              @ lvgl/src/lv_widgets/lv_arc.c:306:9
	bl	lv_obj_invalidate
	b	.LBB10_31
.Ltmp340:
.LBB10_31:
	.loc	10 0 9                          @ lvgl/src/lv_widgets/lv_arc.c:0:9
	b	.LBB10_32
.LBB10_32:
	b	.LBB10_33
.LBB10_33:
	.loc	10 309 18 is_stmt 1             @ lvgl/src/lv_widgets/lv_arc.c:309:18
	ldr	r0, [sp, #44]
	.loc	10 309 5 is_stmt 0              @ lvgl/src/lv_widgets/lv_arc.c:309:5
	bl	value_update
	.loc	10 311 25 is_stmt 1             @ lvgl/src/lv_widgets/lv_arc.c:311:25
	ldrh.w	r0, [sp, #42]
	.loc	10 311 5 is_stmt 0              @ lvgl/src/lv_widgets/lv_arc.c:311:5
	ldr	r1, [sp, #36]
	.loc	10 311 23                       @ lvgl/src/lv_widgets/lv_arc.c:311:23
	strh	r0, [r1, #8]
	.loc	10 312 1 is_stmt 1              @ lvgl/src/lv_widgets/lv_arc.c:312:1
	add	sp, #48
	pop	{r7, pc}
.Ltmp341:
.Lfunc_end10:
	.size	lv_arc_set_bg_end_angle, .Lfunc_end10-lv_arc_set_bg_end_angle
	.cfi_endproc
	.cantunwind
	.fnend
                                        @ -- End function
	.section	.text.lv_arc_set_bg_angles,"ax",%progbits
	.hidden	lv_arc_set_bg_angles            @ -- Begin function lv_arc_set_bg_angles
	.globl	lv_arc_set_bg_angles
	.p2align	3
	.type	lv_arc_set_bg_angles,%function
	.code	16                              @ @lv_arc_set_bg_angles
	.thumb_func
lv_arc_set_bg_angles:
.Lfunc_begin11:
	.loc	10 321 0                        @ lvgl/src/lv_widgets/lv_arc.c:321:0
	.fnstart
	.cfi_startproc
@ %bb.0:
	.save	{r7, lr}
	push	{r7, lr}
	.cfi_def_cfa_offset 8
	.cfi_offset lr, -4
	.cfi_offset r7, -8
	.pad	#16
	sub	sp, #16
	.cfi_def_cfa_offset 24
                                        @ kill: def $r3 killed $r2
                                        @ kill: def $r3 killed $r1
	str	r0, [sp, #12]
	strh.w	r1, [sp, #10]
	strh.w	r2, [sp, #8]
.Ltmp342:
	.loc	10 322 5 prologue_end           @ lvgl/src/lv_widgets/lv_arc.c:322:5
	b	.LBB11_1
.LBB11_1:
.Ltmp343:
	.loc	10 322 5 is_stmt 0              @ lvgl/src/lv_widgets/lv_arc.c:322:5
	ldr	r0, [sp, #12]
	bl	lv_debug_check_null
.Ltmp344:
	.loc	10 322 5                        @ lvgl/src/lv_widgets/lv_arc.c:322:5
	cbnz	r0, .LBB11_4
	b	.LBB11_2
.LBB11_2:
.Ltmp345:
	.loc	10 322 5                        @ lvgl/src/lv_widgets/lv_arc.c:322:5
	ldr	r2, [sp, #12]
	movw	r0, :lower16:.L.str.1
	movt	r0, :upper16:.L.str.1
	movs	r3, #0
	bl	lv_debug_log_error
	b	.LBB11_3
.LBB11_3:                               @ =>This Inner Loop Header: Depth=1
	b	.LBB11_3
.Ltmp346:
.LBB11_4:
	.loc	10 322 5                        @ lvgl/src/lv_widgets/lv_arc.c:322:5
	b	.LBB11_5
.Ltmp347:
.LBB11_5:
	.loc	10 324 46 is_stmt 1             @ lvgl/src/lv_widgets/lv_arc.c:324:46
	ldr	r0, [sp, #12]
	.loc	10 324 26 is_stmt 0             @ lvgl/src/lv_widgets/lv_arc.c:324:26
	bl	lv_obj_get_ext_attr
	.loc	10 324 20                       @ lvgl/src/lv_widgets/lv_arc.c:324:20
	str	r0, [sp, #4]
.Ltmp348:
	.loc	10 326 8 is_stmt 1              @ lvgl/src/lv_widgets/lv_arc.c:326:8
	ldrh.w	r0, [sp, #10]
.Ltmp349:
	.loc	10 326 8 is_stmt 0              @ lvgl/src/lv_widgets/lv_arc.c:326:8
	cmp.w	r0, #360
	ble	.LBB11_7
	b	.LBB11_6
.LBB11_6:
.Ltmp350:
	.loc	10 326 27                       @ lvgl/src/lv_widgets/lv_arc.c:326:27
	ldrh.w	r0, [sp, #10]
	sub.w	r0, r0, #360
	strh.w	r0, [sp, #10]
	.loc	10 326 21                       @ lvgl/src/lv_widgets/lv_arc.c:326:21
	b	.LBB11_7
.Ltmp351:
.LBB11_7:
	.loc	10 327 8 is_stmt 1              @ lvgl/src/lv_widgets/lv_arc.c:327:8
	ldrh.w	r0, [sp, #8]
	.loc	10 327 15 is_stmt 0             @ lvgl/src/lv_widgets/lv_arc.c:327:15
	ldrh.w	r1, [sp, #10]
	.loc	10 327 21                       @ lvgl/src/lv_widgets/lv_arc.c:327:21
	add.w	r1, r1, #360
.Ltmp352:
	.loc	10 327 8                        @ lvgl/src/lv_widgets/lv_arc.c:327:8
	cmp	r0, r1
	ble	.LBB11_9
	b	.LBB11_8
.LBB11_8:
.Ltmp353:
	.loc	10 327 35                       @ lvgl/src/lv_widgets/lv_arc.c:327:35
	ldrh.w	r0, [sp, #10]
	.loc	10 327 41                       @ lvgl/src/lv_widgets/lv_arc.c:327:41
	add.w	r0, r0, #360
	.loc	10 327 33                       @ lvgl/src/lv_widgets/lv_arc.c:327:33
	strh.w	r0, [sp, #8]
	.loc	10 327 29                       @ lvgl/src/lv_widgets/lv_arc.c:327:29
	b	.LBB11_9
.Ltmp354:
.LBB11_9:
	.loc	10 329 18 is_stmt 1             @ lvgl/src/lv_widgets/lv_arc.c:329:18
	ldr	r0, [sp, #12]
	.loc	10 329 23 is_stmt 0             @ lvgl/src/lv_widgets/lv_arc.c:329:23
	ldr	r2, [sp, #4]
	.loc	10 329 28                       @ lvgl/src/lv_widgets/lv_arc.c:329:28
	ldrh	r1, [r2, #6]
	.loc	10 329 49                       @ lvgl/src/lv_widgets/lv_arc.c:329:49
	ldrh	r2, [r2, #8]
	movs	r3, #0
	.loc	10 329 5                        @ lvgl/src/lv_widgets/lv_arc.c:329:5
	str	r3, [sp]                        @ 4-byte Spill
	bl	inv_arc_area
	ldr	r3, [sp]                        @ 4-byte Reload
	.loc	10 331 27 is_stmt 1             @ lvgl/src/lv_widgets/lv_arc.c:331:27
	ldrh.w	r0, [sp, #10]
	.loc	10 331 5 is_stmt 0              @ lvgl/src/lv_widgets/lv_arc.c:331:5
	ldr	r1, [sp, #4]
	.loc	10 331 25                       @ lvgl/src/lv_widgets/lv_arc.c:331:25
	strh	r0, [r1, #6]
	.loc	10 332 25 is_stmt 1             @ lvgl/src/lv_widgets/lv_arc.c:332:25
	ldrh.w	r0, [sp, #8]
	.loc	10 332 5 is_stmt 0              @ lvgl/src/lv_widgets/lv_arc.c:332:5
	ldr	r1, [sp, #4]
	.loc	10 332 23                       @ lvgl/src/lv_widgets/lv_arc.c:332:23
	strh	r0, [r1, #8]
	.loc	10 334 18 is_stmt 1             @ lvgl/src/lv_widgets/lv_arc.c:334:18
	ldr	r0, [sp, #12]
	.loc	10 334 23 is_stmt 0             @ lvgl/src/lv_widgets/lv_arc.c:334:23
	ldr	r2, [sp, #4]
	.loc	10 334 28                       @ lvgl/src/lv_widgets/lv_arc.c:334:28
	ldrh	r1, [r2, #6]
	.loc	10 334 49                       @ lvgl/src/lv_widgets/lv_arc.c:334:49
	ldrh	r2, [r2, #8]
	.loc	10 334 5                        @ lvgl/src/lv_widgets/lv_arc.c:334:5
	bl	inv_arc_area
	.loc	10 336 18 is_stmt 1             @ lvgl/src/lv_widgets/lv_arc.c:336:18
	ldr	r0, [sp, #12]
	.loc	10 336 5 is_stmt 0              @ lvgl/src/lv_widgets/lv_arc.c:336:5
	bl	value_update
	.loc	10 337 1 is_stmt 1              @ lvgl/src/lv_widgets/lv_arc.c:337:1
	add	sp, #16
	pop	{r7, pc}
.Ltmp355:
.Lfunc_end11:
	.size	lv_arc_set_bg_angles, .Lfunc_end11-lv_arc_set_bg_angles
	.cfi_endproc
	.cantunwind
	.fnend
                                        @ -- End function
	.section	.text.lv_arc_set_rotation,"ax",%progbits
	.hidden	lv_arc_set_rotation             @ -- Begin function lv_arc_set_rotation
	.globl	lv_arc_set_rotation
	.p2align	3
	.type	lv_arc_set_rotation,%function
	.code	16                              @ @lv_arc_set_rotation
	.thumb_func
lv_arc_set_rotation:
.Lfunc_begin12:
	.loc	10 345 0                        @ lvgl/src/lv_widgets/lv_arc.c:345:0
	.fnstart
	.cfi_startproc
@ %bb.0:
	.save	{r7, lr}
	push	{r7, lr}
	.cfi_def_cfa_offset 8
	.cfi_offset lr, -4
	.cfi_offset r7, -8
	.pad	#16
	sub	sp, #16
	.cfi_def_cfa_offset 24
                                        @ kill: def $r2 killed $r1
	str	r0, [sp, #12]
	strh.w	r1, [sp, #10]
.Ltmp356:
	.loc	10 346 5 prologue_end           @ lvgl/src/lv_widgets/lv_arc.c:346:5
	b	.LBB12_1
.LBB12_1:
.Ltmp357:
	.loc	10 346 5 is_stmt 0              @ lvgl/src/lv_widgets/lv_arc.c:346:5
	ldr	r0, [sp, #12]
	bl	lv_debug_check_null
.Ltmp358:
	.loc	10 346 5                        @ lvgl/src/lv_widgets/lv_arc.c:346:5
	cbnz	r0, .LBB12_4
	b	.LBB12_2
.LBB12_2:
.Ltmp359:
	.loc	10 346 5                        @ lvgl/src/lv_widgets/lv_arc.c:346:5
	ldr	r2, [sp, #12]
	movw	r0, :lower16:.L.str.1
	movt	r0, :upper16:.L.str.1
	movs	r3, #0
	bl	lv_debug_log_error
	b	.LBB12_3
.LBB12_3:                               @ =>This Inner Loop Header: Depth=1
	b	.LBB12_3
.Ltmp360:
.LBB12_4:
	.loc	10 346 5                        @ lvgl/src/lv_widgets/lv_arc.c:346:5
	b	.LBB12_5
.Ltmp361:
.LBB12_5:
	.loc	10 348 46 is_stmt 1             @ lvgl/src/lv_widgets/lv_arc.c:348:46
	ldr	r0, [sp, #12]
	.loc	10 348 26 is_stmt 0             @ lvgl/src/lv_widgets/lv_arc.c:348:26
	bl	lv_obj_get_ext_attr
	.loc	10 348 20                       @ lvgl/src/lv_widgets/lv_arc.c:348:20
	str	r0, [sp, #4]
	.loc	10 350 27 is_stmt 1             @ lvgl/src/lv_widgets/lv_arc.c:350:27
	ldrh.w	r0, [sp, #10]
	.loc	10 350 5 is_stmt 0              @ lvgl/src/lv_widgets/lv_arc.c:350:5
	ldr	r1, [sp, #4]
	.loc	10 350 25                       @ lvgl/src/lv_widgets/lv_arc.c:350:25
	strh	r0, [r1]
	.loc	10 352 23 is_stmt 1             @ lvgl/src/lv_widgets/lv_arc.c:352:23
	ldr	r0, [sp, #12]
	.loc	10 352 5 is_stmt 0              @ lvgl/src/lv_widgets/lv_arc.c:352:5
	bl	lv_obj_invalidate
	.loc	10 353 1 is_stmt 1              @ lvgl/src/lv_widgets/lv_arc.c:353:1
	add	sp, #16
	pop	{r7, pc}
.Ltmp362:
.Lfunc_end12:
	.size	lv_arc_set_rotation, .Lfunc_end12-lv_arc_set_rotation
	.cfi_endproc
	.cantunwind
	.fnend
                                        @ -- End function
	.section	.text.lv_arc_set_type,"ax",%progbits
	.hidden	lv_arc_set_type                 @ -- Begin function lv_arc_set_type
	.globl	lv_arc_set_type
	.p2align	3
	.type	lv_arc_set_type,%function
	.code	16                              @ @lv_arc_set_type
	.thumb_func
lv_arc_set_type:
.Lfunc_begin13:
	.loc	10 361 0                        @ lvgl/src/lv_widgets/lv_arc.c:361:0
	.fnstart
	.cfi_startproc
@ %bb.0:
	.save	{r7, lr}
	push	{r7, lr}
	.cfi_def_cfa_offset 8
	.cfi_offset lr, -4
	.cfi_offset r7, -8
	.pad	#24
	sub	sp, #24
	.cfi_def_cfa_offset 32
                                        @ kill: def $r2 killed $r1
	str	r0, [sp, #20]
	strb.w	r1, [sp, #19]
.Ltmp363:
	.loc	10 362 5 prologue_end           @ lvgl/src/lv_widgets/lv_arc.c:362:5
	b	.LBB13_1
.LBB13_1:
.Ltmp364:
	.loc	10 362 5 is_stmt 0              @ lvgl/src/lv_widgets/lv_arc.c:362:5
	ldr	r0, [sp, #20]
	bl	lv_debug_check_null
.Ltmp365:
	.loc	10 362 5                        @ lvgl/src/lv_widgets/lv_arc.c:362:5
	cbnz	r0, .LBB13_4
	b	.LBB13_2
.LBB13_2:
.Ltmp366:
	.loc	10 362 5                        @ lvgl/src/lv_widgets/lv_arc.c:362:5
	ldr	r2, [sp, #20]
	movw	r0, :lower16:.L.str.1
	movt	r0, :upper16:.L.str.1
	movs	r3, #0
	bl	lv_debug_log_error
	b	.LBB13_3
.LBB13_3:                               @ =>This Inner Loop Header: Depth=1
	b	.LBB13_3
.Ltmp367:
.LBB13_4:
	.loc	10 362 5                        @ lvgl/src/lv_widgets/lv_arc.c:362:5
	b	.LBB13_5
.Ltmp368:
.LBB13_5:
	.loc	10 364 62 is_stmt 1             @ lvgl/src/lv_widgets/lv_arc.c:364:62
	ldr	r0, [sp, #20]
	.loc	10 364 42 is_stmt 0             @ lvgl/src/lv_widgets/lv_arc.c:364:42
	bl	lv_obj_get_ext_attr
	.loc	10 364 20                       @ lvgl/src/lv_widgets/lv_arc.c:364:20
	str	r0, [sp, #12]
	.loc	10 365 19 is_stmt 1             @ lvgl/src/lv_widgets/lv_arc.c:365:19
	ldr	r0, [sp, #12]
	.loc	10 365 24 is_stmt 0             @ lvgl/src/lv_widgets/lv_arc.c:365:24
	ldrh	r0, [r0, #28]
	.loc	10 365 13                       @ lvgl/src/lv_widgets/lv_arc.c:365:13
	strh.w	r0, [sp, #10]
	.loc	10 367 17 is_stmt 1             @ lvgl/src/lv_widgets/lv_arc.c:367:17
	ldrb.w	r2, [sp, #19]
	.loc	10 367 5 is_stmt 0              @ lvgl/src/lv_widgets/lv_arc.c:367:5
	ldr	r1, [sp, #12]
	.loc	10 367 15                       @ lvgl/src/lv_widgets/lv_arc.c:367:15
	ldrb.w	r0, [r1, #34]
	and	r2, r2, #3
	and	r0, r0, #249
	orr.w	r0, r0, r2, lsl #1
	strb.w	r0, [r1, #34]
	.loc	10 368 5 is_stmt 1              @ lvgl/src/lv_widgets/lv_arc.c:368:5
	ldr	r1, [sp, #12]
	movw	r0, #65535
	.loc	10 368 20 is_stmt 0             @ lvgl/src/lv_widgets/lv_arc.c:368:20
	strh	r0, [r1, #28]
	.loc	10 370 35 is_stmt 1             @ lvgl/src/lv_widgets/lv_arc.c:370:35
	ldr	r0, [sp, #12]
	.loc	10 370 40 is_stmt 0             @ lvgl/src/lv_widgets/lv_arc.c:370:40
	ldrh	r0, [r0, #8]
	.loc	10 370 26                       @ lvgl/src/lv_widgets/lv_arc.c:370:26
	strh.w	r0, [sp, #6]
.Ltmp369:
	.loc	10 371 8 is_stmt 1              @ lvgl/src/lv_widgets/lv_arc.c:371:8
	ldr	r1, [sp, #12]
	.loc	10 371 13 is_stmt 0             @ lvgl/src/lv_widgets/lv_arc.c:371:13
	ldrh	r0, [r1, #8]
	.loc	10 371 33                       @ lvgl/src/lv_widgets/lv_arc.c:371:33
	ldrh	r1, [r1, #6]
.Ltmp370:
	.loc	10 371 8                        @ lvgl/src/lv_widgets/lv_arc.c:371:8
	cmp	r0, r1
	bge	.LBB13_7
	b	.LBB13_6
.LBB13_6:
.Ltmp371:
	.loc	10 371 58                       @ lvgl/src/lv_widgets/lv_arc.c:371:58
	ldr	r0, [sp, #12]
	ldrh	r0, [r0, #8]
	.loc	10 371 76                       @ lvgl/src/lv_widgets/lv_arc.c:371:76
	add.w	r0, r0, #360
	.loc	10 371 56                       @ lvgl/src/lv_widgets/lv_arc.c:371:56
	strh.w	r0, [sp, #6]
	.loc	10 371 49                       @ lvgl/src/lv_widgets/lv_arc.c:371:49
	b	.LBB13_7
.Ltmp372:
.LBB13_7:
	.loc	10 373 12 is_stmt 1             @ lvgl/src/lv_widgets/lv_arc.c:373:12
	ldr	r0, [sp, #12]
	.loc	10 373 17 is_stmt 0             @ lvgl/src/lv_widgets/lv_arc.c:373:17
	ldrb.w	r0, [r0, #34]
	ubfx	r0, r0, #1, #2
	.loc	10 373 5                        @ lvgl/src/lv_widgets/lv_arc.c:373:5
	mov	r1, r0
	str	r1, [sp]                        @ 4-byte Spill
	cmp	r0, #1
	beq	.LBB13_9
	b	.LBB13_8
.LBB13_8:
	ldr	r0, [sp]                        @ 4-byte Reload
	cmp	r0, #2
	beq	.LBB13_10
	b	.LBB13_11
.LBB13_9:
.Ltmp373:
	.loc	10 375 28 is_stmt 1             @ lvgl/src/lv_widgets/lv_arc.c:375:28
	ldr	r0, [sp, #12]
	.loc	10 375 33 is_stmt 0             @ lvgl/src/lv_widgets/lv_arc.c:375:33
	ldrh	r0, [r0, #6]
	.loc	10 375 50                       @ lvgl/src/lv_widgets/lv_arc.c:375:50
	ldrsh.w	r1, [sp, #6]
	.loc	10 375 48                       @ lvgl/src/lv_widgets/lv_arc.c:375:48
	add	r0, r1
	.loc	10 375 58                       @ lvgl/src/lv_widgets/lv_arc.c:375:58
	add.w	r0, r0, r0, lsr #31
	lsrs	r0, r0, #1
	.loc	10 375 25                       @ lvgl/src/lv_widgets/lv_arc.c:375:25
	strh.w	r0, [sp, #8]
	.loc	10 376 36 is_stmt 1             @ lvgl/src/lv_widgets/lv_arc.c:376:36
	ldr	r0, [sp, #20]
	.loc	10 376 41 is_stmt 0             @ lvgl/src/lv_widgets/lv_arc.c:376:41
	ldrh.w	r1, [sp, #8]
	.loc	10 376 13                       @ lvgl/src/lv_widgets/lv_arc.c:376:13
	bl	lv_arc_set_start_angle
	.loc	10 377 34 is_stmt 1             @ lvgl/src/lv_widgets/lv_arc.c:377:34
	ldr	r0, [sp, #20]
	.loc	10 377 39 is_stmt 0             @ lvgl/src/lv_widgets/lv_arc.c:377:39
	ldrh.w	r1, [sp, #8]
	.loc	10 377 13                       @ lvgl/src/lv_widgets/lv_arc.c:377:13
	bl	lv_arc_set_end_angle
	.loc	10 378 13 is_stmt 1             @ lvgl/src/lv_widgets/lv_arc.c:378:13
	b	.LBB13_12
.LBB13_10:
	.loc	10 380 34                       @ lvgl/src/lv_widgets/lv_arc.c:380:34
	ldr	r0, [sp, #20]
	.loc	10 380 39 is_stmt 0             @ lvgl/src/lv_widgets/lv_arc.c:380:39
	ldr	r1, [sp, #12]
	.loc	10 380 44                       @ lvgl/src/lv_widgets/lv_arc.c:380:44
	ldrh	r1, [r1, #8]
	.loc	10 380 13                       @ lvgl/src/lv_widgets/lv_arc.c:380:13
	bl	lv_arc_set_end_angle
	.loc	10 381 13 is_stmt 1             @ lvgl/src/lv_widgets/lv_arc.c:381:13
	b	.LBB13_12
.LBB13_11:
	.loc	10 383 36                       @ lvgl/src/lv_widgets/lv_arc.c:383:36
	ldr	r0, [sp, #20]
	.loc	10 383 41 is_stmt 0             @ lvgl/src/lv_widgets/lv_arc.c:383:41
	ldr	r1, [sp, #12]
	.loc	10 383 46                       @ lvgl/src/lv_widgets/lv_arc.c:383:46
	ldrh	r1, [r1, #6]
	.loc	10 383 13                       @ lvgl/src/lv_widgets/lv_arc.c:383:13
	bl	lv_arc_set_start_angle
	.loc	10 384 5 is_stmt 1              @ lvgl/src/lv_widgets/lv_arc.c:384:5
	b	.LBB13_12
.Ltmp374:
.LBB13_12:
	.loc	10 386 22                       @ lvgl/src/lv_widgets/lv_arc.c:386:22
	ldr	r0, [sp, #20]
	.loc	10 386 27 is_stmt 0             @ lvgl/src/lv_widgets/lv_arc.c:386:27
	ldrsh.w	r1, [sp, #10]
	.loc	10 386 5                        @ lvgl/src/lv_widgets/lv_arc.c:386:5
	bl	lv_arc_set_value
	.loc	10 387 1 is_stmt 1              @ lvgl/src/lv_widgets/lv_arc.c:387:1
	add	sp, #24
	pop	{r7, pc}
.Ltmp375:
.Lfunc_end13:
	.size	lv_arc_set_type, .Lfunc_end13-lv_arc_set_type
	.cfi_endproc
	.cantunwind
	.fnend
                                        @ -- End function
	.section	.text.lv_arc_set_range,"ax",%progbits
	.hidden	lv_arc_set_range                @ -- Begin function lv_arc_set_range
	.globl	lv_arc_set_range
	.p2align	3
	.type	lv_arc_set_range,%function
	.code	16                              @ @lv_arc_set_range
	.thumb_func
lv_arc_set_range:
.Lfunc_begin14:
	.loc	10 418 0                        @ lvgl/src/lv_widgets/lv_arc.c:418:0
	.fnstart
	.cfi_startproc
@ %bb.0:
	.save	{r7, lr}
	push	{r7, lr}
	.cfi_def_cfa_offset 8
	.cfi_offset lr, -4
	.cfi_offset r7, -8
	.pad	#16
	sub	sp, #16
	.cfi_def_cfa_offset 24
                                        @ kill: def $r3 killed $r2
                                        @ kill: def $r3 killed $r1
	str	r0, [sp, #12]
	strh.w	r1, [sp, #10]
	strh.w	r2, [sp, #8]
.Ltmp376:
	.loc	10 419 5 prologue_end           @ lvgl/src/lv_widgets/lv_arc.c:419:5
	b	.LBB14_1
.LBB14_1:
.Ltmp377:
	.loc	10 419 5 is_stmt 0              @ lvgl/src/lv_widgets/lv_arc.c:419:5
	ldr	r0, [sp, #12]
	bl	lv_debug_check_null
.Ltmp378:
	.loc	10 419 5                        @ lvgl/src/lv_widgets/lv_arc.c:419:5
	cbnz	r0, .LBB14_4
	b	.LBB14_2
.LBB14_2:
.Ltmp379:
	.loc	10 419 5                        @ lvgl/src/lv_widgets/lv_arc.c:419:5
	ldr	r2, [sp, #12]
	movw	r0, :lower16:.L.str.1
	movt	r0, :upper16:.L.str.1
	movs	r3, #0
	bl	lv_debug_log_error
	b	.LBB14_3
.LBB14_3:                               @ =>This Inner Loop Header: Depth=1
	b	.LBB14_3
.Ltmp380:
.LBB14_4:
	.loc	10 419 5                        @ lvgl/src/lv_widgets/lv_arc.c:419:5
	b	.LBB14_5
.Ltmp381:
.LBB14_5:
	.loc	10 421 62 is_stmt 1             @ lvgl/src/lv_widgets/lv_arc.c:421:62
	ldr	r0, [sp, #12]
	.loc	10 421 42 is_stmt 0             @ lvgl/src/lv_widgets/lv_arc.c:421:42
	bl	lv_obj_get_ext_attr
	.loc	10 421 20                       @ lvgl/src/lv_widgets/lv_arc.c:421:20
	str	r0, [sp, #4]
.Ltmp382:
	.loc	10 422 8 is_stmt 1              @ lvgl/src/lv_widgets/lv_arc.c:422:8
	ldr	r0, [sp, #4]
	.loc	10 422 13 is_stmt 0             @ lvgl/src/lv_widgets/lv_arc.c:422:13
	ldrsh.w	r0, [r0, #30]
	.loc	10 422 26                       @ lvgl/src/lv_widgets/lv_arc.c:422:26
	ldrsh.w	r1, [sp, #10]
	.loc	10 422 30                       @ lvgl/src/lv_widgets/lv_arc.c:422:30
	cmp	r0, r1
	bne	.LBB14_8
	b	.LBB14_6
.LBB14_6:
	.loc	10 422 33                       @ lvgl/src/lv_widgets/lv_arc.c:422:33
	ldr	r0, [sp, #4]
	.loc	10 422 38                       @ lvgl/src/lv_widgets/lv_arc.c:422:38
	ldrsh.w	r0, [r0, #32]
	.loc	10 422 51                       @ lvgl/src/lv_widgets/lv_arc.c:422:51
	ldrsh.w	r1, [sp, #8]
.Ltmp383:
	.loc	10 422 8                        @ lvgl/src/lv_widgets/lv_arc.c:422:8
	cmp	r0, r1
	bne	.LBB14_8
	b	.LBB14_7
.LBB14_7:
.Ltmp384:
	.loc	10 422 56                       @ lvgl/src/lv_widgets/lv_arc.c:422:56
	b	.LBB14_13
.Ltmp385:
.LBB14_8:
	.loc	10 424 22 is_stmt 1             @ lvgl/src/lv_widgets/lv_arc.c:424:22
	ldrh.w	r0, [sp, #10]
	.loc	10 424 5 is_stmt 0              @ lvgl/src/lv_widgets/lv_arc.c:424:5
	ldr	r1, [sp, #4]
	.loc	10 424 20                       @ lvgl/src/lv_widgets/lv_arc.c:424:20
	strh	r0, [r1, #30]
	.loc	10 425 22 is_stmt 1             @ lvgl/src/lv_widgets/lv_arc.c:425:22
	ldrh.w	r0, [sp, #8]
	.loc	10 425 5 is_stmt 0              @ lvgl/src/lv_widgets/lv_arc.c:425:5
	ldr	r1, [sp, #4]
	.loc	10 425 20                       @ lvgl/src/lv_widgets/lv_arc.c:425:20
	strh	r0, [r1, #32]
.Ltmp386:
	.loc	10 427 8 is_stmt 1              @ lvgl/src/lv_widgets/lv_arc.c:427:8
	ldr	r0, [sp, #4]
	.loc	10 427 13 is_stmt 0             @ lvgl/src/lv_widgets/lv_arc.c:427:13
	ldrsh.w	r0, [r0, #28]
	.loc	10 427 25                       @ lvgl/src/lv_widgets/lv_arc.c:427:25
	ldrsh.w	r1, [sp, #10]
.Ltmp387:
	.loc	10 427 8                        @ lvgl/src/lv_widgets/lv_arc.c:427:8
	cmp	r0, r1
	bge	.LBB14_10
	b	.LBB14_9
.LBB14_9:
.Ltmp388:
	.loc	10 428 26 is_stmt 1             @ lvgl/src/lv_widgets/lv_arc.c:428:26
	ldrh.w	r0, [sp, #10]
	.loc	10 428 9 is_stmt 0              @ lvgl/src/lv_widgets/lv_arc.c:428:9
	ldr	r1, [sp, #4]
	.loc	10 428 24                       @ lvgl/src/lv_widgets/lv_arc.c:428:24
	strh	r0, [r1, #28]
	.loc	10 429 5 is_stmt 1              @ lvgl/src/lv_widgets/lv_arc.c:429:5
	b	.LBB14_10
.Ltmp389:
.LBB14_10:
	.loc	10 430 8                        @ lvgl/src/lv_widgets/lv_arc.c:430:8
	ldr	r0, [sp, #4]
	.loc	10 430 13 is_stmt 0             @ lvgl/src/lv_widgets/lv_arc.c:430:13
	ldrsh.w	r0, [r0, #28]
	.loc	10 430 25                       @ lvgl/src/lv_widgets/lv_arc.c:430:25
	ldrsh.w	r1, [sp, #8]
.Ltmp390:
	.loc	10 430 8                        @ lvgl/src/lv_widgets/lv_arc.c:430:8
	cmp	r0, r1
	ble	.LBB14_12
	b	.LBB14_11
.LBB14_11:
.Ltmp391:
	.loc	10 431 26 is_stmt 1             @ lvgl/src/lv_widgets/lv_arc.c:431:26
	ldrh.w	r0, [sp, #8]
	.loc	10 431 9 is_stmt 0              @ lvgl/src/lv_widgets/lv_arc.c:431:9
	ldr	r1, [sp, #4]
	.loc	10 431 24                       @ lvgl/src/lv_widgets/lv_arc.c:431:24
	strh	r0, [r1, #28]
	.loc	10 432 5 is_stmt 1              @ lvgl/src/lv_widgets/lv_arc.c:432:5
	b	.LBB14_12
.Ltmp392:
.LBB14_12:
	.loc	10 434 18                       @ lvgl/src/lv_widgets/lv_arc.c:434:18
	ldr	r0, [sp, #12]
	.loc	10 434 5 is_stmt 0              @ lvgl/src/lv_widgets/lv_arc.c:434:5
	bl	value_update
	.loc	10 435 1 is_stmt 1              @ lvgl/src/lv_widgets/lv_arc.c:435:1
	b	.LBB14_13
.LBB14_13:
	add	sp, #16
	pop	{r7, pc}
.Ltmp393:
.Lfunc_end14:
	.size	lv_arc_set_range, .Lfunc_end14-lv_arc_set_range
	.cfi_endproc
	.cantunwind
	.fnend
                                        @ -- End function
	.section	.text.lv_arc_set_chg_rate,"ax",%progbits
	.hidden	lv_arc_set_chg_rate             @ -- Begin function lv_arc_set_chg_rate
	.globl	lv_arc_set_chg_rate
	.p2align	3
	.type	lv_arc_set_chg_rate,%function
	.code	16                              @ @lv_arc_set_chg_rate
	.thumb_func
lv_arc_set_chg_rate:
.Lfunc_begin15:
	.loc	10 444 0                        @ lvgl/src/lv_widgets/lv_arc.c:444:0
	.fnstart
	.cfi_startproc
@ %bb.0:
	.save	{r7, lr}
	push	{r7, lr}
	.cfi_def_cfa_offset 8
	.cfi_offset lr, -4
	.cfi_offset r7, -8
	.pad	#16
	sub	sp, #16
	.cfi_def_cfa_offset 24
                                        @ kill: def $r2 killed $r1
	str	r0, [sp, #12]
	strh.w	r1, [sp, #10]
.Ltmp394:
	.loc	10 445 5 prologue_end           @ lvgl/src/lv_widgets/lv_arc.c:445:5
	b	.LBB15_1
.LBB15_1:
.Ltmp395:
	.loc	10 445 5 is_stmt 0              @ lvgl/src/lv_widgets/lv_arc.c:445:5
	ldr	r0, [sp, #12]
	bl	lv_debug_check_null
.Ltmp396:
	.loc	10 445 5                        @ lvgl/src/lv_widgets/lv_arc.c:445:5
	cbnz	r0, .LBB15_4
	b	.LBB15_2
.LBB15_2:
.Ltmp397:
	.loc	10 445 5                        @ lvgl/src/lv_widgets/lv_arc.c:445:5
	ldr	r2, [sp, #12]
	movw	r0, :lower16:.L.str.1
	movt	r0, :upper16:.L.str.1
	movs	r3, #0
	bl	lv_debug_log_error
	b	.LBB15_3
.LBB15_3:                               @ =>This Inner Loop Header: Depth=1
	b	.LBB15_3
.Ltmp398:
.LBB15_4:
	.loc	10 445 5                        @ lvgl/src/lv_widgets/lv_arc.c:445:5
	b	.LBB15_5
.Ltmp399:
.LBB15_5:
	.loc	10 447 62 is_stmt 1             @ lvgl/src/lv_widgets/lv_arc.c:447:62
	ldr	r0, [sp, #12]
	.loc	10 447 42 is_stmt 0             @ lvgl/src/lv_widgets/lv_arc.c:447:42
	bl	lv_obj_get_ext_attr
	.loc	10 447 20                       @ lvgl/src/lv_widgets/lv_arc.c:447:20
	str	r0, [sp, #4]
	.loc	10 448 21 is_stmt 1             @ lvgl/src/lv_widgets/lv_arc.c:448:21
	ldrh.w	r0, [sp, #10]
	.loc	10 448 5 is_stmt 0              @ lvgl/src/lv_widgets/lv_arc.c:448:5
	ldr	r1, [sp, #4]
	.loc	10 448 19                       @ lvgl/src/lv_widgets/lv_arc.c:448:19
	strh	r0, [r1, #36]
	.loc	10 449 1 is_stmt 1              @ lvgl/src/lv_widgets/lv_arc.c:449:1
	add	sp, #16
	pop	{r7, pc}
.Ltmp400:
.Lfunc_end15:
	.size	lv_arc_set_chg_rate, .Lfunc_end15-lv_arc_set_chg_rate
	.cfi_endproc
	.cantunwind
	.fnend
                                        @ -- End function
	.section	.text.lv_arc_set_adjustable,"ax",%progbits
	.hidden	lv_arc_set_adjustable           @ -- Begin function lv_arc_set_adjustable
	.globl	lv_arc_set_adjustable
	.p2align	3
	.type	lv_arc_set_adjustable,%function
	.code	16                              @ @lv_arc_set_adjustable
	.thumb_func
lv_arc_set_adjustable:
.Lfunc_begin16:
	.loc	10 457 0                        @ lvgl/src/lv_widgets/lv_arc.c:457:0
	.fnstart
	.cfi_startproc
@ %bb.0:
	.save	{r7, lr}
	push	{r7, lr}
	.cfi_def_cfa_offset 8
	.cfi_offset lr, -4
	.cfi_offset r7, -8
	.pad	#16
	sub	sp, #16
	.cfi_def_cfa_offset 24
                                        @ kill: def $r2 killed $r1
	str	r0, [sp, #12]
	strb.w	r1, [sp, #11]
.Ltmp401:
	.loc	10 458 5 prologue_end           @ lvgl/src/lv_widgets/lv_arc.c:458:5
	b	.LBB16_1
.LBB16_1:
.Ltmp402:
	.loc	10 458 5 is_stmt 0              @ lvgl/src/lv_widgets/lv_arc.c:458:5
	ldr	r0, [sp, #12]
	bl	lv_debug_check_null
.Ltmp403:
	.loc	10 458 5                        @ lvgl/src/lv_widgets/lv_arc.c:458:5
	cbnz	r0, .LBB16_4
	b	.LBB16_2
.LBB16_2:
.Ltmp404:
	.loc	10 458 5                        @ lvgl/src/lv_widgets/lv_arc.c:458:5
	ldr	r2, [sp, #12]
	movw	r0, :lower16:.L.str.1
	movt	r0, :upper16:.L.str.1
	movs	r3, #0
	bl	lv_debug_log_error
	b	.LBB16_3
.LBB16_3:                               @ =>This Inner Loop Header: Depth=1
	b	.LBB16_3
.Ltmp405:
.LBB16_4:
	.loc	10 458 5                        @ lvgl/src/lv_widgets/lv_arc.c:458:5
	b	.LBB16_5
.Ltmp406:
.LBB16_5:
	.loc	10 460 62 is_stmt 1             @ lvgl/src/lv_widgets/lv_arc.c:460:62
	ldr	r0, [sp, #12]
	.loc	10 460 42 is_stmt 0             @ lvgl/src/lv_widgets/lv_arc.c:460:42
	bl	lv_obj_get_ext_attr
	.loc	10 460 20                       @ lvgl/src/lv_widgets/lv_arc.c:460:20
	str	r0, [sp, #4]
.Ltmp407:
	.loc	10 461 8 is_stmt 1              @ lvgl/src/lv_widgets/lv_arc.c:461:8
	ldr	r0, [sp, #4]
	.loc	10 461 13 is_stmt 0             @ lvgl/src/lv_widgets/lv_arc.c:461:13
	ldrb.w	r0, [r0, #34]
	ubfx	r0, r0, #3, #1
	.loc	10 461 27                       @ lvgl/src/lv_widgets/lv_arc.c:461:27
	ldrb.w	r1, [sp, #11]
	and	r1, r1, #1
.Ltmp408:
	.loc	10 461 8                        @ lvgl/src/lv_widgets/lv_arc.c:461:8
	cmp	r0, r1
	bne	.LBB16_7
	b	.LBB16_6
.LBB16_6:
.Ltmp409:
	.loc	10 462 9 is_stmt 1              @ lvgl/src/lv_widgets/lv_arc.c:462:9
	b	.LBB16_10
.Ltmp410:
.LBB16_7:
	.loc	10 464 23                       @ lvgl/src/lv_widgets/lv_arc.c:464:23
	ldrb.w	r0, [sp, #11]
	.loc	10 464 5 is_stmt 0              @ lvgl/src/lv_widgets/lv_arc.c:464:5
	ldr	r1, [sp, #4]
	.loc	10 464 21                       @ lvgl/src/lv_widgets/lv_arc.c:464:21
	and	r2, r0, #1
	ldrb.w	r0, [r1, #34]
	and	r0, r0, #247
	orr.w	r0, r0, r2, lsl #3
	strb.w	r0, [r1, #34]
.Ltmp411:
	.loc	10 465 9 is_stmt 1              @ lvgl/src/lv_widgets/lv_arc.c:465:9
	ldrb.w	r0, [sp, #11]
.Ltmp412:
	.loc	10 465 8 is_stmt 0              @ lvgl/src/lv_widgets/lv_arc.c:465:8
	lsls	r0, r0, #31
	cbnz	r0, .LBB16_9
	b	.LBB16_8
.LBB16_8:
.Ltmp413:
	.loc	10 466 9 is_stmt 1              @ lvgl/src/lv_widgets/lv_arc.c:466:9
	ldr	r1, [sp, #4]
	.loc	10 466 23 is_stmt 0             @ lvgl/src/lv_widgets/lv_arc.c:466:23
	ldrb.w	r0, [r1, #34]
	and	r0, r0, #254
	strb.w	r0, [r1, #34]
	.loc	10 466 9                        @ lvgl/src/lv_widgets/lv_arc.c:466:9
	b	.LBB16_9
.Ltmp414:
.LBB16_9:
	.loc	10 467 23 is_stmt 1             @ lvgl/src/lv_widgets/lv_arc.c:467:23
	ldr	r0, [sp, #12]
	.loc	10 467 5 is_stmt 0              @ lvgl/src/lv_widgets/lv_arc.c:467:5
	bl	lv_obj_invalidate
	.loc	10 468 1 is_stmt 1              @ lvgl/src/lv_widgets/lv_arc.c:468:1
	b	.LBB16_10
.LBB16_10:
	add	sp, #16
	pop	{r7, pc}
.Ltmp415:
.Lfunc_end16:
	.size	lv_arc_set_adjustable, .Lfunc_end16-lv_arc_set_adjustable
	.cfi_endproc
	.cantunwind
	.fnend
                                        @ -- End function
	.section	.text.lv_arc_get_angle_start,"ax",%progbits
	.hidden	lv_arc_get_angle_start          @ -- Begin function lv_arc_get_angle_start
	.globl	lv_arc_get_angle_start
	.p2align	3
	.type	lv_arc_get_angle_start,%function
	.code	16                              @ @lv_arc_get_angle_start
	.thumb_func
lv_arc_get_angle_start:
.Lfunc_begin17:
	.loc	10 480 0                        @ lvgl/src/lv_widgets/lv_arc.c:480:0
	.fnstart
	.cfi_startproc
@ %bb.0:
	.save	{r7, lr}
	push	{r7, lr}
	.cfi_def_cfa_offset 8
	.cfi_offset lr, -4
	.cfi_offset r7, -8
	.pad	#8
	sub	sp, #8
	.cfi_def_cfa_offset 16
	str	r0, [sp, #4]
.Ltmp416:
	.loc	10 481 5 prologue_end           @ lvgl/src/lv_widgets/lv_arc.c:481:5
	b	.LBB17_1
.LBB17_1:
.Ltmp417:
	.loc	10 481 5 is_stmt 0              @ lvgl/src/lv_widgets/lv_arc.c:481:5
	ldr	r0, [sp, #4]
	bl	lv_debug_check_null
.Ltmp418:
	.loc	10 481 5                        @ lvgl/src/lv_widgets/lv_arc.c:481:5
	cbnz	r0, .LBB17_4
	b	.LBB17_2
.LBB17_2:
.Ltmp419:
	.loc	10 481 5                        @ lvgl/src/lv_widgets/lv_arc.c:481:5
	ldr	r2, [sp, #4]
	movw	r0, :lower16:.L.str.1
	movt	r0, :upper16:.L.str.1
	movs	r3, #0
	bl	lv_debug_log_error
	b	.LBB17_3
.LBB17_3:                               @ =>This Inner Loop Header: Depth=1
	b	.LBB17_3
.Ltmp420:
.LBB17_4:
	.loc	10 481 5                        @ lvgl/src/lv_widgets/lv_arc.c:481:5
	b	.LBB17_5
.Ltmp421:
.LBB17_5:
	.loc	10 483 46 is_stmt 1             @ lvgl/src/lv_widgets/lv_arc.c:483:46
	ldr	r0, [sp, #4]
	.loc	10 483 26 is_stmt 0             @ lvgl/src/lv_widgets/lv_arc.c:483:26
	bl	lv_obj_get_ext_attr
	.loc	10 483 20                       @ lvgl/src/lv_widgets/lv_arc.c:483:20
	str	r0, [sp]
	.loc	10 485 12 is_stmt 1             @ lvgl/src/lv_widgets/lv_arc.c:485:12
	ldr	r0, [sp]
	.loc	10 485 17 is_stmt 0             @ lvgl/src/lv_widgets/lv_arc.c:485:17
	ldrh	r0, [r0, #2]
	.loc	10 485 5                        @ lvgl/src/lv_widgets/lv_arc.c:485:5
	add	sp, #8
	pop	{r7, pc}
.Ltmp422:
.Lfunc_end17:
	.size	lv_arc_get_angle_start, .Lfunc_end17-lv_arc_get_angle_start
	.cfi_endproc
	.cantunwind
	.fnend
                                        @ -- End function
	.section	.text.lv_arc_get_angle_end,"ax",%progbits
	.hidden	lv_arc_get_angle_end            @ -- Begin function lv_arc_get_angle_end
	.globl	lv_arc_get_angle_end
	.p2align	3
	.type	lv_arc_get_angle_end,%function
	.code	16                              @ @lv_arc_get_angle_end
	.thumb_func
lv_arc_get_angle_end:
.Lfunc_begin18:
	.loc	10 494 0 is_stmt 1              @ lvgl/src/lv_widgets/lv_arc.c:494:0
	.fnstart
	.cfi_startproc
@ %bb.0:
	.save	{r7, lr}
	push	{r7, lr}
	.cfi_def_cfa_offset 8
	.cfi_offset lr, -4
	.cfi_offset r7, -8
	.pad	#8
	sub	sp, #8
	.cfi_def_cfa_offset 16
	str	r0, [sp, #4]
.Ltmp423:
	.loc	10 495 5 prologue_end           @ lvgl/src/lv_widgets/lv_arc.c:495:5
	b	.LBB18_1
.LBB18_1:
.Ltmp424:
	.loc	10 495 5 is_stmt 0              @ lvgl/src/lv_widgets/lv_arc.c:495:5
	ldr	r0, [sp, #4]
	bl	lv_debug_check_null
.Ltmp425:
	.loc	10 495 5                        @ lvgl/src/lv_widgets/lv_arc.c:495:5
	cbnz	r0, .LBB18_4
	b	.LBB18_2
.LBB18_2:
.Ltmp426:
	.loc	10 495 5                        @ lvgl/src/lv_widgets/lv_arc.c:495:5
	ldr	r2, [sp, #4]
	movw	r0, :lower16:.L.str.1
	movt	r0, :upper16:.L.str.1
	movs	r3, #0
	bl	lv_debug_log_error
	b	.LBB18_3
.LBB18_3:                               @ =>This Inner Loop Header: Depth=1
	b	.LBB18_3
.Ltmp427:
.LBB18_4:
	.loc	10 495 5                        @ lvgl/src/lv_widgets/lv_arc.c:495:5
	b	.LBB18_5
.Ltmp428:
.LBB18_5:
	.loc	10 497 46 is_stmt 1             @ lvgl/src/lv_widgets/lv_arc.c:497:46
	ldr	r0, [sp, #4]
	.loc	10 497 26 is_stmt 0             @ lvgl/src/lv_widgets/lv_arc.c:497:26
	bl	lv_obj_get_ext_attr
	.loc	10 497 20                       @ lvgl/src/lv_widgets/lv_arc.c:497:20
	str	r0, [sp]
	.loc	10 499 12 is_stmt 1             @ lvgl/src/lv_widgets/lv_arc.c:499:12
	ldr	r0, [sp]
	.loc	10 499 17 is_stmt 0             @ lvgl/src/lv_widgets/lv_arc.c:499:17
	ldrh	r0, [r0, #4]
	.loc	10 499 5                        @ lvgl/src/lv_widgets/lv_arc.c:499:5
	add	sp, #8
	pop	{r7, pc}
.Ltmp429:
.Lfunc_end18:
	.size	lv_arc_get_angle_end, .Lfunc_end18-lv_arc_get_angle_end
	.cfi_endproc
	.cantunwind
	.fnend
                                        @ -- End function
	.section	.text.lv_arc_get_bg_angle_start,"ax",%progbits
	.hidden	lv_arc_get_bg_angle_start       @ -- Begin function lv_arc_get_bg_angle_start
	.globl	lv_arc_get_bg_angle_start
	.p2align	3
	.type	lv_arc_get_bg_angle_start,%function
	.code	16                              @ @lv_arc_get_bg_angle_start
	.thumb_func
lv_arc_get_bg_angle_start:
.Lfunc_begin19:
	.loc	10 508 0 is_stmt 1              @ lvgl/src/lv_widgets/lv_arc.c:508:0
	.fnstart
	.cfi_startproc
@ %bb.0:
	.save	{r7, lr}
	push	{r7, lr}
	.cfi_def_cfa_offset 8
	.cfi_offset lr, -4
	.cfi_offset r7, -8
	.pad	#8
	sub	sp, #8
	.cfi_def_cfa_offset 16
	str	r0, [sp, #4]
.Ltmp430:
	.loc	10 509 5 prologue_end           @ lvgl/src/lv_widgets/lv_arc.c:509:5
	b	.LBB19_1
.LBB19_1:
.Ltmp431:
	.loc	10 509 5 is_stmt 0              @ lvgl/src/lv_widgets/lv_arc.c:509:5
	ldr	r0, [sp, #4]
	bl	lv_debug_check_null
.Ltmp432:
	.loc	10 509 5                        @ lvgl/src/lv_widgets/lv_arc.c:509:5
	cbnz	r0, .LBB19_4
	b	.LBB19_2
.LBB19_2:
.Ltmp433:
	.loc	10 509 5                        @ lvgl/src/lv_widgets/lv_arc.c:509:5
	ldr	r2, [sp, #4]
	movw	r0, :lower16:.L.str.1
	movt	r0, :upper16:.L.str.1
	movs	r3, #0
	bl	lv_debug_log_error
	b	.LBB19_3
.LBB19_3:                               @ =>This Inner Loop Header: Depth=1
	b	.LBB19_3
.Ltmp434:
.LBB19_4:
	.loc	10 509 5                        @ lvgl/src/lv_widgets/lv_arc.c:509:5
	b	.LBB19_5
.Ltmp435:
.LBB19_5:
	.loc	10 511 46 is_stmt 1             @ lvgl/src/lv_widgets/lv_arc.c:511:46
	ldr	r0, [sp, #4]
	.loc	10 511 26 is_stmt 0             @ lvgl/src/lv_widgets/lv_arc.c:511:26
	bl	lv_obj_get_ext_attr
	.loc	10 511 20                       @ lvgl/src/lv_widgets/lv_arc.c:511:20
	str	r0, [sp]
	.loc	10 513 12 is_stmt 1             @ lvgl/src/lv_widgets/lv_arc.c:513:12
	ldr	r0, [sp]
	.loc	10 513 17 is_stmt 0             @ lvgl/src/lv_widgets/lv_arc.c:513:17
	ldrh	r0, [r0, #6]
	.loc	10 513 5                        @ lvgl/src/lv_widgets/lv_arc.c:513:5
	add	sp, #8
	pop	{r7, pc}
.Ltmp436:
.Lfunc_end19:
	.size	lv_arc_get_bg_angle_start, .Lfunc_end19-lv_arc_get_bg_angle_start
	.cfi_endproc
	.cantunwind
	.fnend
                                        @ -- End function
	.section	.text.lv_arc_get_bg_angle_end,"ax",%progbits
	.hidden	lv_arc_get_bg_angle_end         @ -- Begin function lv_arc_get_bg_angle_end
	.globl	lv_arc_get_bg_angle_end
	.p2align	3
	.type	lv_arc_get_bg_angle_end,%function
	.code	16                              @ @lv_arc_get_bg_angle_end
	.thumb_func
lv_arc_get_bg_angle_end:
.Lfunc_begin20:
	.loc	10 522 0 is_stmt 1              @ lvgl/src/lv_widgets/lv_arc.c:522:0
	.fnstart
	.cfi_startproc
@ %bb.0:
	.save	{r7, lr}
	push	{r7, lr}
	.cfi_def_cfa_offset 8
	.cfi_offset lr, -4
	.cfi_offset r7, -8
	.pad	#8
	sub	sp, #8
	.cfi_def_cfa_offset 16
	str	r0, [sp, #4]
.Ltmp437:
	.loc	10 523 5 prologue_end           @ lvgl/src/lv_widgets/lv_arc.c:523:5
	b	.LBB20_1
.LBB20_1:
.Ltmp438:
	.loc	10 523 5 is_stmt 0              @ lvgl/src/lv_widgets/lv_arc.c:523:5
	ldr	r0, [sp, #4]
	bl	lv_debug_check_null
.Ltmp439:
	.loc	10 523 5                        @ lvgl/src/lv_widgets/lv_arc.c:523:5
	cbnz	r0, .LBB20_4
	b	.LBB20_2
.LBB20_2:
.Ltmp440:
	.loc	10 523 5                        @ lvgl/src/lv_widgets/lv_arc.c:523:5
	ldr	r2, [sp, #4]
	movw	r0, :lower16:.L.str.1
	movt	r0, :upper16:.L.str.1
	movs	r3, #0
	bl	lv_debug_log_error
	b	.LBB20_3
.LBB20_3:                               @ =>This Inner Loop Header: Depth=1
	b	.LBB20_3
.Ltmp441:
.LBB20_4:
	.loc	10 523 5                        @ lvgl/src/lv_widgets/lv_arc.c:523:5
	b	.LBB20_5
.Ltmp442:
.LBB20_5:
	.loc	10 525 46 is_stmt 1             @ lvgl/src/lv_widgets/lv_arc.c:525:46
	ldr	r0, [sp, #4]
	.loc	10 525 26 is_stmt 0             @ lvgl/src/lv_widgets/lv_arc.c:525:26
	bl	lv_obj_get_ext_attr
	.loc	10 525 20                       @ lvgl/src/lv_widgets/lv_arc.c:525:20
	str	r0, [sp]
	.loc	10 527 12 is_stmt 1             @ lvgl/src/lv_widgets/lv_arc.c:527:12
	ldr	r0, [sp]
	.loc	10 527 17 is_stmt 0             @ lvgl/src/lv_widgets/lv_arc.c:527:17
	ldrh	r0, [r0, #8]
	.loc	10 527 5                        @ lvgl/src/lv_widgets/lv_arc.c:527:5
	add	sp, #8
	pop	{r7, pc}
.Ltmp443:
.Lfunc_end20:
	.size	lv_arc_get_bg_angle_end, .Lfunc_end20-lv_arc_get_bg_angle_end
	.cfi_endproc
	.cantunwind
	.fnend
                                        @ -- End function
	.section	.text.lv_arc_get_value,"ax",%progbits
	.hidden	lv_arc_get_value                @ -- Begin function lv_arc_get_value
	.globl	lv_arc_get_value
	.p2align	3
	.type	lv_arc_get_value,%function
	.code	16                              @ @lv_arc_get_value
	.thumb_func
lv_arc_get_value:
.Lfunc_begin21:
	.loc	10 536 0 is_stmt 1              @ lvgl/src/lv_widgets/lv_arc.c:536:0
	.fnstart
	.cfi_startproc
@ %bb.0:
	.save	{r7, lr}
	push	{r7, lr}
	.cfi_def_cfa_offset 8
	.cfi_offset lr, -4
	.cfi_offset r7, -8
	.pad	#8
	sub	sp, #8
	.cfi_def_cfa_offset 16
	str	r0, [sp, #4]
.Ltmp444:
	.loc	10 537 5 prologue_end           @ lvgl/src/lv_widgets/lv_arc.c:537:5
	b	.LBB21_1
.LBB21_1:
.Ltmp445:
	.loc	10 537 5 is_stmt 0              @ lvgl/src/lv_widgets/lv_arc.c:537:5
	ldr	r0, [sp, #4]
	bl	lv_debug_check_null
.Ltmp446:
	.loc	10 537 5                        @ lvgl/src/lv_widgets/lv_arc.c:537:5
	cbnz	r0, .LBB21_4
	b	.LBB21_2
.LBB21_2:
.Ltmp447:
	.loc	10 537 5                        @ lvgl/src/lv_widgets/lv_arc.c:537:5
	ldr	r2, [sp, #4]
	movw	r0, :lower16:.L.str.1
	movt	r0, :upper16:.L.str.1
	movs	r3, #0
	bl	lv_debug_log_error
	b	.LBB21_3
.LBB21_3:                               @ =>This Inner Loop Header: Depth=1
	b	.LBB21_3
.Ltmp448:
.LBB21_4:
	.loc	10 537 5                        @ lvgl/src/lv_widgets/lv_arc.c:537:5
	b	.LBB21_5
.Ltmp449:
.LBB21_5:
	.loc	10 539 46 is_stmt 1             @ lvgl/src/lv_widgets/lv_arc.c:539:46
	ldr	r0, [sp, #4]
	.loc	10 539 26 is_stmt 0             @ lvgl/src/lv_widgets/lv_arc.c:539:26
	bl	lv_obj_get_ext_attr
	.loc	10 539 20                       @ lvgl/src/lv_widgets/lv_arc.c:539:20
	str	r0, [sp]
	.loc	10 540 12 is_stmt 1             @ lvgl/src/lv_widgets/lv_arc.c:540:12
	ldr	r0, [sp]
	.loc	10 540 17 is_stmt 0             @ lvgl/src/lv_widgets/lv_arc.c:540:17
	ldrsh.w	r0, [r0, #28]
	.loc	10 540 5                        @ lvgl/src/lv_widgets/lv_arc.c:540:5
	add	sp, #8
	pop	{r7, pc}
.Ltmp450:
.Lfunc_end21:
	.size	lv_arc_get_value, .Lfunc_end21-lv_arc_get_value
	.cfi_endproc
	.cantunwind
	.fnend
                                        @ -- End function
	.section	.text.lv_arc_get_min_value,"ax",%progbits
	.hidden	lv_arc_get_min_value            @ -- Begin function lv_arc_get_min_value
	.globl	lv_arc_get_min_value
	.p2align	3
	.type	lv_arc_get_min_value,%function
	.code	16                              @ @lv_arc_get_min_value
	.thumb_func
lv_arc_get_min_value:
.Lfunc_begin22:
	.loc	10 549 0 is_stmt 1              @ lvgl/src/lv_widgets/lv_arc.c:549:0
	.fnstart
	.cfi_startproc
@ %bb.0:
	.save	{r7, lr}
	push	{r7, lr}
	.cfi_def_cfa_offset 8
	.cfi_offset lr, -4
	.cfi_offset r7, -8
	.pad	#8
	sub	sp, #8
	.cfi_def_cfa_offset 16
	str	r0, [sp, #4]
.Ltmp451:
	.loc	10 550 5 prologue_end           @ lvgl/src/lv_widgets/lv_arc.c:550:5
	b	.LBB22_1
.LBB22_1:
.Ltmp452:
	.loc	10 550 5 is_stmt 0              @ lvgl/src/lv_widgets/lv_arc.c:550:5
	ldr	r0, [sp, #4]
	bl	lv_debug_check_null
.Ltmp453:
	.loc	10 550 5                        @ lvgl/src/lv_widgets/lv_arc.c:550:5
	cbnz	r0, .LBB22_4
	b	.LBB22_2
.LBB22_2:
.Ltmp454:
	.loc	10 550 5                        @ lvgl/src/lv_widgets/lv_arc.c:550:5
	ldr	r2, [sp, #4]
	movw	r0, :lower16:.L.str.1
	movt	r0, :upper16:.L.str.1
	movs	r3, #0
	bl	lv_debug_log_error
	b	.LBB22_3
.LBB22_3:                               @ =>This Inner Loop Header: Depth=1
	b	.LBB22_3
.Ltmp455:
.LBB22_4:
	.loc	10 550 5                        @ lvgl/src/lv_widgets/lv_arc.c:550:5
	b	.LBB22_5
.Ltmp456:
.LBB22_5:
	.loc	10 552 62 is_stmt 1             @ lvgl/src/lv_widgets/lv_arc.c:552:62
	ldr	r0, [sp, #4]
	.loc	10 552 42 is_stmt 0             @ lvgl/src/lv_widgets/lv_arc.c:552:42
	bl	lv_obj_get_ext_attr
	.loc	10 552 20                       @ lvgl/src/lv_widgets/lv_arc.c:552:20
	str	r0, [sp]
	.loc	10 553 12 is_stmt 1             @ lvgl/src/lv_widgets/lv_arc.c:553:12
	ldr	r0, [sp]
	.loc	10 553 17 is_stmt 0             @ lvgl/src/lv_widgets/lv_arc.c:553:17
	ldrsh.w	r0, [r0, #30]
	.loc	10 553 5                        @ lvgl/src/lv_widgets/lv_arc.c:553:5
	add	sp, #8
	pop	{r7, pc}
.Ltmp457:
.Lfunc_end22:
	.size	lv_arc_get_min_value, .Lfunc_end22-lv_arc_get_min_value
	.cfi_endproc
	.cantunwind
	.fnend
                                        @ -- End function
	.section	.text.lv_arc_get_max_value,"ax",%progbits
	.hidden	lv_arc_get_max_value            @ -- Begin function lv_arc_get_max_value
	.globl	lv_arc_get_max_value
	.p2align	3
	.type	lv_arc_get_max_value,%function
	.code	16                              @ @lv_arc_get_max_value
	.thumb_func
lv_arc_get_max_value:
.Lfunc_begin23:
	.loc	10 562 0 is_stmt 1              @ lvgl/src/lv_widgets/lv_arc.c:562:0
	.fnstart
	.cfi_startproc
@ %bb.0:
	.save	{r7, lr}
	push	{r7, lr}
	.cfi_def_cfa_offset 8
	.cfi_offset lr, -4
	.cfi_offset r7, -8
	.pad	#8
	sub	sp, #8
	.cfi_def_cfa_offset 16
	str	r0, [sp, #4]
.Ltmp458:
	.loc	10 563 5 prologue_end           @ lvgl/src/lv_widgets/lv_arc.c:563:5
	b	.LBB23_1
.LBB23_1:
.Ltmp459:
	.loc	10 563 5 is_stmt 0              @ lvgl/src/lv_widgets/lv_arc.c:563:5
	ldr	r0, [sp, #4]
	bl	lv_debug_check_null
.Ltmp460:
	.loc	10 563 5                        @ lvgl/src/lv_widgets/lv_arc.c:563:5
	cbnz	r0, .LBB23_4
	b	.LBB23_2
.LBB23_2:
.Ltmp461:
	.loc	10 563 5                        @ lvgl/src/lv_widgets/lv_arc.c:563:5
	ldr	r2, [sp, #4]
	movw	r0, :lower16:.L.str.1
	movt	r0, :upper16:.L.str.1
	movs	r3, #0
	bl	lv_debug_log_error
	b	.LBB23_3
.LBB23_3:                               @ =>This Inner Loop Header: Depth=1
	b	.LBB23_3
.Ltmp462:
.LBB23_4:
	.loc	10 563 5                        @ lvgl/src/lv_widgets/lv_arc.c:563:5
	b	.LBB23_5
.Ltmp463:
.LBB23_5:
	.loc	10 565 62 is_stmt 1             @ lvgl/src/lv_widgets/lv_arc.c:565:62
	ldr	r0, [sp, #4]
	.loc	10 565 42 is_stmt 0             @ lvgl/src/lv_widgets/lv_arc.c:565:42
	bl	lv_obj_get_ext_attr
	.loc	10 565 20                       @ lvgl/src/lv_widgets/lv_arc.c:565:20
	str	r0, [sp]
	.loc	10 566 12 is_stmt 1             @ lvgl/src/lv_widgets/lv_arc.c:566:12
	ldr	r0, [sp]
	.loc	10 566 17 is_stmt 0             @ lvgl/src/lv_widgets/lv_arc.c:566:17
	ldrsh.w	r0, [r0, #32]
	.loc	10 566 5                        @ lvgl/src/lv_widgets/lv_arc.c:566:5
	add	sp, #8
	pop	{r7, pc}
.Ltmp464:
.Lfunc_end23:
	.size	lv_arc_get_max_value, .Lfunc_end23-lv_arc_get_max_value
	.cfi_endproc
	.cantunwind
	.fnend
                                        @ -- End function
	.section	.text.lv_arc_is_dragged,"ax",%progbits
	.hidden	lv_arc_is_dragged               @ -- Begin function lv_arc_is_dragged
	.globl	lv_arc_is_dragged
	.p2align	3
	.type	lv_arc_is_dragged,%function
	.code	16                              @ @lv_arc_is_dragged
	.thumb_func
lv_arc_is_dragged:
.Lfunc_begin24:
	.loc	10 575 0 is_stmt 1              @ lvgl/src/lv_widgets/lv_arc.c:575:0
	.fnstart
	.cfi_startproc
@ %bb.0:
	.save	{r7, lr}
	push	{r7, lr}
	.cfi_def_cfa_offset 8
	.cfi_offset lr, -4
	.cfi_offset r7, -8
	.pad	#8
	sub	sp, #8
	.cfi_def_cfa_offset 16
	str	r0, [sp, #4]
.Ltmp465:
	.loc	10 576 5 prologue_end           @ lvgl/src/lv_widgets/lv_arc.c:576:5
	b	.LBB24_1
.LBB24_1:
.Ltmp466:
	.loc	10 576 5 is_stmt 0              @ lvgl/src/lv_widgets/lv_arc.c:576:5
	ldr	r0, [sp, #4]
	bl	lv_debug_check_null
.Ltmp467:
	.loc	10 576 5                        @ lvgl/src/lv_widgets/lv_arc.c:576:5
	cbnz	r0, .LBB24_4
	b	.LBB24_2
.LBB24_2:
.Ltmp468:
	.loc	10 576 5                        @ lvgl/src/lv_widgets/lv_arc.c:576:5
	ldr	r2, [sp, #4]
	movw	r0, :lower16:.L.str.1
	movt	r0, :upper16:.L.str.1
	movs	r3, #0
	bl	lv_debug_log_error
	b	.LBB24_3
.LBB24_3:                               @ =>This Inner Loop Header: Depth=1
	b	.LBB24_3
.Ltmp469:
.LBB24_4:
	.loc	10 576 5                        @ lvgl/src/lv_widgets/lv_arc.c:576:5
	b	.LBB24_5
.Ltmp470:
.LBB24_5:
	.loc	10 578 46 is_stmt 1             @ lvgl/src/lv_widgets/lv_arc.c:578:46
	ldr	r0, [sp, #4]
	.loc	10 578 26 is_stmt 0             @ lvgl/src/lv_widgets/lv_arc.c:578:26
	bl	lv_obj_get_ext_attr
	.loc	10 578 20                       @ lvgl/src/lv_widgets/lv_arc.c:578:20
	str	r0, [sp]
	.loc	10 579 12 is_stmt 1             @ lvgl/src/lv_widgets/lv_arc.c:579:12
	ldr	r0, [sp]
	.loc	10 579 17 is_stmt 0             @ lvgl/src/lv_widgets/lv_arc.c:579:17
	ldrb.w	r0, [r0, #34]
	.loc	10 579 5                        @ lvgl/src/lv_widgets/lv_arc.c:579:5
	and	r0, r0, #1
	add	sp, #8
	pop	{r7, pc}
.Ltmp471:
.Lfunc_end24:
	.size	lv_arc_is_dragged, .Lfunc_end24-lv_arc_is_dragged
	.cfi_endproc
	.cantunwind
	.fnend
                                        @ -- End function
	.section	.text.lv_arc_get_type,"ax",%progbits
	.hidden	lv_arc_get_type                 @ -- Begin function lv_arc_get_type
	.globl	lv_arc_get_type
	.p2align	3
	.type	lv_arc_get_type,%function
	.code	16                              @ @lv_arc_get_type
	.thumb_func
lv_arc_get_type:
.Lfunc_begin25:
	.loc	10 588 0 is_stmt 1              @ lvgl/src/lv_widgets/lv_arc.c:588:0
	.fnstart
	.cfi_startproc
@ %bb.0:
	.save	{r7, lr}
	push	{r7, lr}
	.cfi_def_cfa_offset 8
	.cfi_offset lr, -4
	.cfi_offset r7, -8
	.pad	#8
	sub	sp, #8
	.cfi_def_cfa_offset 16
	str	r0, [sp, #4]
.Ltmp472:
	.loc	10 589 5 prologue_end           @ lvgl/src/lv_widgets/lv_arc.c:589:5
	b	.LBB25_1
.LBB25_1:
.Ltmp473:
	.loc	10 589 5 is_stmt 0              @ lvgl/src/lv_widgets/lv_arc.c:589:5
	ldr	r0, [sp, #4]
	bl	lv_debug_check_null
.Ltmp474:
	.loc	10 589 5                        @ lvgl/src/lv_widgets/lv_arc.c:589:5
	cbnz	r0, .LBB25_4
	b	.LBB25_2
.LBB25_2:
.Ltmp475:
	.loc	10 589 5                        @ lvgl/src/lv_widgets/lv_arc.c:589:5
	ldr	r2, [sp, #4]
	movw	r0, :lower16:.L.str.1
	movt	r0, :upper16:.L.str.1
	movs	r3, #0
	bl	lv_debug_log_error
	b	.LBB25_3
.LBB25_3:                               @ =>This Inner Loop Header: Depth=1
	b	.LBB25_3
.Ltmp476:
.LBB25_4:
	.loc	10 589 5                        @ lvgl/src/lv_widgets/lv_arc.c:589:5
	b	.LBB25_5
.Ltmp477:
.LBB25_5:
	.loc	10 591 62 is_stmt 1             @ lvgl/src/lv_widgets/lv_arc.c:591:62
	ldr	r0, [sp, #4]
	.loc	10 591 42 is_stmt 0             @ lvgl/src/lv_widgets/lv_arc.c:591:42
	bl	lv_obj_get_ext_attr
	.loc	10 591 20                       @ lvgl/src/lv_widgets/lv_arc.c:591:20
	str	r0, [sp]
	.loc	10 592 12 is_stmt 1             @ lvgl/src/lv_widgets/lv_arc.c:592:12
	ldr	r0, [sp]
	.loc	10 592 17 is_stmt 0             @ lvgl/src/lv_widgets/lv_arc.c:592:17
	ldrb.w	r0, [r0, #34]
	ubfx	r0, r0, #1, #2
	.loc	10 592 5                        @ lvgl/src/lv_widgets/lv_arc.c:592:5
	add	sp, #8
	pop	{r7, pc}
.Ltmp478:
.Lfunc_end25:
	.size	lv_arc_get_type, .Lfunc_end25-lv_arc_get_type
	.cfi_endproc
	.cantunwind
	.fnend
                                        @ -- End function
	.section	.text.lv_arc_get_adjustable,"ax",%progbits
	.hidden	lv_arc_get_adjustable           @ -- Begin function lv_arc_get_adjustable
	.globl	lv_arc_get_adjustable
	.p2align	3
	.type	lv_arc_get_adjustable,%function
	.code	16                              @ @lv_arc_get_adjustable
	.thumb_func
lv_arc_get_adjustable:
.Lfunc_begin26:
	.loc	10 601 0 is_stmt 1              @ lvgl/src/lv_widgets/lv_arc.c:601:0
	.fnstart
	.cfi_startproc
@ %bb.0:
	.save	{r7, lr}
	push	{r7, lr}
	.cfi_def_cfa_offset 8
	.cfi_offset lr, -4
	.cfi_offset r7, -8
	.pad	#8
	sub	sp, #8
	.cfi_def_cfa_offset 16
	str	r0, [sp, #4]
.Ltmp479:
	.loc	10 602 5 prologue_end           @ lvgl/src/lv_widgets/lv_arc.c:602:5
	b	.LBB26_1
.LBB26_1:
.Ltmp480:
	.loc	10 602 5 is_stmt 0              @ lvgl/src/lv_widgets/lv_arc.c:602:5
	ldr	r0, [sp, #4]
	bl	lv_debug_check_null
.Ltmp481:
	.loc	10 602 5                        @ lvgl/src/lv_widgets/lv_arc.c:602:5
	cbnz	r0, .LBB26_4
	b	.LBB26_2
.LBB26_2:
.Ltmp482:
	.loc	10 602 5                        @ lvgl/src/lv_widgets/lv_arc.c:602:5
	ldr	r2, [sp, #4]
	movw	r0, :lower16:.L.str.1
	movt	r0, :upper16:.L.str.1
	movs	r3, #0
	bl	lv_debug_log_error
	b	.LBB26_3
.LBB26_3:                               @ =>This Inner Loop Header: Depth=1
	b	.LBB26_3
.Ltmp483:
.LBB26_4:
	.loc	10 602 5                        @ lvgl/src/lv_widgets/lv_arc.c:602:5
	b	.LBB26_5
.Ltmp484:
.LBB26_5:
	.loc	10 604 62 is_stmt 1             @ lvgl/src/lv_widgets/lv_arc.c:604:62
	ldr	r0, [sp, #4]
	.loc	10 604 42 is_stmt 0             @ lvgl/src/lv_widgets/lv_arc.c:604:42
	bl	lv_obj_get_ext_attr
	.loc	10 604 20                       @ lvgl/src/lv_widgets/lv_arc.c:604:20
	str	r0, [sp]
	.loc	10 605 12 is_stmt 1             @ lvgl/src/lv_widgets/lv_arc.c:605:12
	ldr	r0, [sp]
	.loc	10 605 17 is_stmt 0             @ lvgl/src/lv_widgets/lv_arc.c:605:17
	ldrb.w	r0, [r0, #34]
	ubfx	r0, r0, #3, #1
	.loc	10 605 5                        @ lvgl/src/lv_widgets/lv_arc.c:605:5
	add	sp, #8
	pop	{r7, pc}
.Ltmp485:
.Lfunc_end26:
	.size	lv_arc_get_adjustable, .Lfunc_end26-lv_arc_get_adjustable
	.cfi_endproc
	.cantunwind
	.fnend
                                        @ -- End function
	.section	.text.get_center,"ax",%progbits
	.p2align	3                               @ -- Begin function get_center
	.type	get_center,%function
	.code	16                              @ @get_center
	.thumb_func
get_center:
.Lfunc_begin27:
	.loc	10 1029 0 is_stmt 1             @ lvgl/src/lv_widgets/lv_arc.c:1029:0
	.fnstart
	.cfi_startproc
@ %bb.0:
	.save	{r7, lr}
	push	{r7, lr}
	.cfi_def_cfa_offset 8
	.cfi_offset lr, -4
	.cfi_offset r7, -8
	.pad	#40
	sub	sp, #40
	.cfi_def_cfa_offset 48
	str	r0, [sp, #36]
	str	r1, [sp, #32]
	str	r2, [sp, #28]
.Ltmp486:
	.loc	10 1030 52 prologue_end         @ lvgl/src/lv_widgets/lv_arc.c:1030:52
	ldr	r0, [sp, #36]
	movs	r1, #0
	.loc	10 1030 26 is_stmt 0            @ lvgl/src/lv_widgets/lv_arc.c:1030:26
	str	r1, [sp, #8]                    @ 4-byte Spill
	bl	lv_obj_get_style_pad_left
	ldr	r1, [sp, #8]                    @ 4-byte Reload
	.loc	10 1030 16                      @ lvgl/src/lv_widgets/lv_arc.c:1030:16
	strh.w	r0, [sp, #26]
	.loc	10 1031 54 is_stmt 1            @ lvgl/src/lv_widgets/lv_arc.c:1031:54
	ldr	r0, [sp, #36]
	.loc	10 1031 27 is_stmt 0            @ lvgl/src/lv_widgets/lv_arc.c:1031:27
	bl	lv_obj_get_style_pad_right
	ldr	r1, [sp, #8]                    @ 4-byte Reload
	.loc	10 1031 16                      @ lvgl/src/lv_widgets/lv_arc.c:1031:16
	strh.w	r0, [sp, #24]
	.loc	10 1032 50 is_stmt 1            @ lvgl/src/lv_widgets/lv_arc.c:1032:50
	ldr	r0, [sp, #36]
	.loc	10 1032 25 is_stmt 0            @ lvgl/src/lv_widgets/lv_arc.c:1032:25
	bl	lv_obj_get_style_pad_top
	ldr	r1, [sp, #8]                    @ 4-byte Reload
	.loc	10 1032 16                      @ lvgl/src/lv_widgets/lv_arc.c:1032:16
	strh.w	r0, [sp, #22]
	.loc	10 1033 56 is_stmt 1            @ lvgl/src/lv_widgets/lv_arc.c:1033:56
	ldr	r0, [sp, #36]
	.loc	10 1033 28 is_stmt 0            @ lvgl/src/lv_widgets/lv_arc.c:1033:28
	bl	lv_obj_get_style_pad_bottom
	.loc	10 1033 16                      @ lvgl/src/lv_widgets/lv_arc.c:1033:16
	strh.w	r0, [sp, #20]
	.loc	10 1035 21 is_stmt 1            @ lvgl/src/lv_widgets/lv_arc.c:1035:21
	ldr	r0, [sp, #36]
	bl	lv_obj_get_width
	ldrsh.w	r1, [sp, #26]
	subs	r0, r0, r1
	ldrsh.w	r1, [sp, #24]
	subs	r0, r0, r1
	str	r0, [sp, #12]                   @ 4-byte Spill
	ldr	r0, [sp, #36]
	bl	lv_obj_get_height
	mov	r1, r0
	ldr	r0, [sp, #12]                   @ 4-byte Reload
	ldrsh.w	r2, [sp, #22]
	subs	r1, r1, r2
	ldrsh.w	r2, [sp, #20]
	subs	r1, r1, r2
	cmp	r0, r1
	bge	.LBB27_2
	b	.LBB27_1
.LBB27_1:
	ldr	r0, [sp, #36]
	bl	lv_obj_get_width
	ldrsh.w	r1, [sp, #26]
	subs	r0, r0, r1
	ldrsh.w	r1, [sp, #24]
	subs	r0, r0, r1
	str	r0, [sp, #4]                    @ 4-byte Spill
	b	.LBB27_3
.LBB27_2:
	ldr	r0, [sp, #36]
	bl	lv_obj_get_height
	ldrsh.w	r1, [sp, #22]
	subs	r0, r0, r1
	ldrsh.w	r1, [sp, #20]
	subs	r0, r0, r1
	str	r0, [sp, #4]                    @ 4-byte Spill
	b	.LBB27_3
.LBB27_3:
	ldr	r0, [sp, #4]                    @ 4-byte Reload
	.loc	10 1036 79                      @ lvgl/src/lv_widgets/lv_arc.c:1036:79
	add.w	r0, r0, r0, lsr #31
	lsrs	r0, r0, #1
	.loc	10 1035 16                      @ lvgl/src/lv_widgets/lv_arc.c:1035:16
	strh.w	r0, [sp, #18]
	.loc	10 1038 14                      @ lvgl/src/lv_widgets/lv_arc.c:1038:14
	ldrh.w	r0, [sp, #18]
	.loc	10 1038 6 is_stmt 0             @ lvgl/src/lv_widgets/lv_arc.c:1038:6
	ldr	r1, [sp, #28]
	.loc	10 1038 12                      @ lvgl/src/lv_widgets/lv_arc.c:1038:12
	strh	r0, [r1]
	.loc	10 1039 17 is_stmt 1            @ lvgl/src/lv_widgets/lv_arc.c:1039:17
	ldr	r0, [sp, #36]
	ldrh	r0, [r0, #16]
	.loc	10 1039 34 is_stmt 0            @ lvgl/src/lv_widgets/lv_arc.c:1039:34
	ldrh.w	r1, [sp, #18]
	.loc	10 1039 32                      @ lvgl/src/lv_widgets/lv_arc.c:1039:32
	add	r0, r1
	.loc	10 1039 38                      @ lvgl/src/lv_widgets/lv_arc.c:1039:38
	ldrh.w	r1, [sp, #26]
	.loc	10 1039 36                      @ lvgl/src/lv_widgets/lv_arc.c:1039:36
	add	r0, r1
	.loc	10 1039 5                       @ lvgl/src/lv_widgets/lv_arc.c:1039:5
	ldr	r1, [sp, #32]
	.loc	10 1039 15                      @ lvgl/src/lv_widgets/lv_arc.c:1039:15
	strh	r0, [r1]
	.loc	10 1040 17 is_stmt 1            @ lvgl/src/lv_widgets/lv_arc.c:1040:17
	ldr	r0, [sp, #36]
	ldrh	r0, [r0, #18]
	.loc	10 1040 34 is_stmt 0            @ lvgl/src/lv_widgets/lv_arc.c:1040:34
	ldrh.w	r1, [sp, #18]
	.loc	10 1040 32                      @ lvgl/src/lv_widgets/lv_arc.c:1040:32
	add	r0, r1
	.loc	10 1040 38                      @ lvgl/src/lv_widgets/lv_arc.c:1040:38
	ldrh.w	r1, [sp, #22]
	.loc	10 1040 36                      @ lvgl/src/lv_widgets/lv_arc.c:1040:36
	add	r0, r1
	.loc	10 1040 5                       @ lvgl/src/lv_widgets/lv_arc.c:1040:5
	ldr	r1, [sp, #32]
	.loc	10 1040 15                      @ lvgl/src/lv_widgets/lv_arc.c:1040:15
	strh	r0, [r1, #2]
	.loc	10 1042 58 is_stmt 1            @ lvgl/src/lv_widgets/lv_arc.c:1042:58
	ldr	r0, [sp, #36]
	movs	r1, #1
	.loc	10 1042 30 is_stmt 0            @ lvgl/src/lv_widgets/lv_arc.c:1042:30
	bl	lv_obj_get_style_line_width
	.loc	10 1042 16                      @ lvgl/src/lv_widgets/lv_arc.c:1042:16
	strh.w	r0, [sp, #16]
	.loc	10 1043 10 is_stmt 1            @ lvgl/src/lv_widgets/lv_arc.c:1043:10
	ldrh.w	r1, [sp, #16]
	.loc	10 1043 7 is_stmt 0             @ lvgl/src/lv_widgets/lv_arc.c:1043:7
	ldrh.w	r0, [sp, #18]
	subs	r0, r0, r1
	strh.w	r0, [sp, #18]
	.loc	10 1044 1 is_stmt 1             @ lvgl/src/lv_widgets/lv_arc.c:1044:1
	add	sp, #40
	pop	{r7, pc}
.Ltmp487:
.Lfunc_end27:
	.size	get_center, .Lfunc_end27-get_center
	.cfi_endproc
	.cantunwind
	.fnend
                                        @ -- End function
	.section	.text.lv_obj_get_style_pad_left,"ax",%progbits
	.p2align	3                               @ -- Begin function lv_obj_get_style_pad_left
	.type	lv_obj_get_style_pad_left,%function
	.code	16                              @ @lv_obj_get_style_pad_left
	.thumb_func
lv_obj_get_style_pad_left:
.Lfunc_begin28:
	.file	14 "E:\\STM32\\Learning\\STM32H750_ART_PI_RGBLCD" "lvgl/src/lv_widgets/../lv_core/lv_obj_style_dec.h"
	.loc	14 102 0                        @ lvgl/src/lv_widgets/../lv_core/lv_obj_style_dec.h:102:0
	.fnstart
	.cfi_startproc
@ %bb.0:
	.save	{r7, lr}
	push	{r7, lr}
	.cfi_def_cfa_offset 8
	.cfi_offset lr, -4
	.cfi_offset r7, -8
	.pad	#8
	sub	sp, #8
	.cfi_def_cfa_offset 16
                                        @ kill: def $r2 killed $r1
	str	r0, [sp, #4]
	strb.w	r1, [sp, #3]
.Ltmp488:
	.loc	14 102 1 prologue_end           @ lvgl/src/lv_widgets/../lv_core/lv_obj_style_dec.h:102:1
	ldr	r0, [sp, #4]
	ldrb.w	r1, [sp, #3]
	movs	r2, #18
	bl	_lv_obj_get_style_int
	add	sp, #8
	pop	{r7, pc}
.Ltmp489:
.Lfunc_end28:
	.size	lv_obj_get_style_pad_left, .Lfunc_end28-lv_obj_get_style_pad_left
	.cfi_endproc
	.cantunwind
	.fnend
                                        @ -- End function
	.section	.text.lv_obj_get_style_pad_right,"ax",%progbits
	.p2align	3                               @ -- Begin function lv_obj_get_style_pad_right
	.type	lv_obj_get_style_pad_right,%function
	.code	16                              @ @lv_obj_get_style_pad_right
	.thumb_func
lv_obj_get_style_pad_right:
.Lfunc_begin29:
	.loc	14 103 0                        @ lvgl/src/lv_widgets/../lv_core/lv_obj_style_dec.h:103:0
	.fnstart
	.cfi_startproc
@ %bb.0:
	.save	{r7, lr}
	push	{r7, lr}
	.cfi_def_cfa_offset 8
	.cfi_offset lr, -4
	.cfi_offset r7, -8
	.pad	#8
	sub	sp, #8
	.cfi_def_cfa_offset 16
                                        @ kill: def $r2 killed $r1
	str	r0, [sp, #4]
	strb.w	r1, [sp, #3]
.Ltmp490:
	.loc	14 103 1 prologue_end           @ lvgl/src/lv_widgets/../lv_core/lv_obj_style_dec.h:103:1
	ldr	r0, [sp, #4]
	ldrb.w	r1, [sp, #3]
	movs	r2, #19
	bl	_lv_obj_get_style_int
	add	sp, #8
	pop	{r7, pc}
.Ltmp491:
.Lfunc_end29:
	.size	lv_obj_get_style_pad_right, .Lfunc_end29-lv_obj_get_style_pad_right
	.cfi_endproc
	.cantunwind
	.fnend
                                        @ -- End function
	.section	.text.lv_obj_get_style_pad_top,"ax",%progbits
	.p2align	3                               @ -- Begin function lv_obj_get_style_pad_top
	.type	lv_obj_get_style_pad_top,%function
	.code	16                              @ @lv_obj_get_style_pad_top
	.thumb_func
lv_obj_get_style_pad_top:
.Lfunc_begin30:
	.loc	14 100 0                        @ lvgl/src/lv_widgets/../lv_core/lv_obj_style_dec.h:100:0
	.fnstart
	.cfi_startproc
@ %bb.0:
	.save	{r7, lr}
	push	{r7, lr}
	.cfi_def_cfa_offset 8
	.cfi_offset lr, -4
	.cfi_offset r7, -8
	.pad	#8
	sub	sp, #8
	.cfi_def_cfa_offset 16
                                        @ kill: def $r2 killed $r1
	str	r0, [sp, #4]
	strb.w	r1, [sp, #3]
.Ltmp492:
	.loc	14 100 1 prologue_end           @ lvgl/src/lv_widgets/../lv_core/lv_obj_style_dec.h:100:1
	ldr	r0, [sp, #4]
	ldrb.w	r1, [sp, #3]
	movs	r2, #16
	bl	_lv_obj_get_style_int
	add	sp, #8
	pop	{r7, pc}
.Ltmp493:
.Lfunc_end30:
	.size	lv_obj_get_style_pad_top, .Lfunc_end30-lv_obj_get_style_pad_top
	.cfi_endproc
	.cantunwind
	.fnend
                                        @ -- End function
	.section	.text.lv_obj_get_style_pad_bottom,"ax",%progbits
	.p2align	3                               @ -- Begin function lv_obj_get_style_pad_bottom
	.type	lv_obj_get_style_pad_bottom,%function
	.code	16                              @ @lv_obj_get_style_pad_bottom
	.thumb_func
lv_obj_get_style_pad_bottom:
.Lfunc_begin31:
	.loc	14 101 0                        @ lvgl/src/lv_widgets/../lv_core/lv_obj_style_dec.h:101:0
	.fnstart
	.cfi_startproc
@ %bb.0:
	.save	{r7, lr}
	push	{r7, lr}
	.cfi_def_cfa_offset 8
	.cfi_offset lr, -4
	.cfi_offset r7, -8
	.pad	#8
	sub	sp, #8
	.cfi_def_cfa_offset 16
                                        @ kill: def $r2 killed $r1
	str	r0, [sp, #4]
	strb.w	r1, [sp, #3]
.Ltmp494:
	.loc	14 101 1 prologue_end           @ lvgl/src/lv_widgets/../lv_core/lv_obj_style_dec.h:101:1
	ldr	r0, [sp, #4]
	ldrb.w	r1, [sp, #3]
	movs	r2, #17
	bl	_lv_obj_get_style_int
	add	sp, #8
	pop	{r7, pc}
.Ltmp495:
.Lfunc_end31:
	.size	lv_obj_get_style_pad_bottom, .Lfunc_end31-lv_obj_get_style_pad_bottom
	.cfi_endproc
	.cantunwind
	.fnend
                                        @ -- End function
	.section	.text.get_knob_area,"ax",%progbits
	.p2align	3                               @ -- Begin function get_knob_area
	.type	get_knob_area,%function
	.code	16                              @ @get_knob_area
	.thumb_func
get_knob_area:
.Lfunc_begin32:
	.loc	10 1047 0                       @ lvgl/src/lv_widgets/lv_arc.c:1047:0
	.fnstart
	.cfi_startproc
@ %bb.0:
	.save	{r7, lr}
	push	{r7, lr}
	.cfi_def_cfa_offset 8
	.cfi_offset lr, -4
	.cfi_offset r7, -8
	.pad	#56
	sub	sp, #56
	.cfi_def_cfa_offset 64
                                        @ kill: def $r12 killed $r2
	str	r0, [sp, #52]
	str	r1, [sp, #48]
	strh.w	r2, [sp, #46]
	str	r3, [sp, #40]
.Ltmp496:
	.loc	10 1048 46 prologue_end         @ lvgl/src/lv_widgets/lv_arc.c:1048:46
	ldr	r0, [sp, #52]
	.loc	10 1048 26 is_stmt 0            @ lvgl/src/lv_widgets/lv_arc.c:1048:26
	bl	lv_obj_get_ext_attr
	.loc	10 1048 20                      @ lvgl/src/lv_widgets/lv_arc.c:1048:20
	str	r0, [sp, #36]
	.loc	10 1050 58 is_stmt 1            @ lvgl/src/lv_widgets/lv_arc.c:1050:58
	ldr	r0, [sp, #52]
	movs	r1, #1
	.loc	10 1050 30 is_stmt 0            @ lvgl/src/lv_widgets/lv_arc.c:1050:30
	bl	lv_obj_get_style_line_width
	.loc	10 1050 16                      @ lvgl/src/lv_widgets/lv_arc.c:1050:16
	strh.w	r0, [sp, #34]
	.loc	10 1051 35 is_stmt 1            @ lvgl/src/lv_widgets/lv_arc.c:1051:35
	ldrsh.w	r0, [sp, #34]
	.loc	10 1051 47 is_stmt 0            @ lvgl/src/lv_widgets/lv_arc.c:1051:47
	add.w	r0, r0, r0, lsr #31
	lsrs	r0, r0, #1
	.loc	10 1051 16                      @ lvgl/src/lv_widgets/lv_arc.c:1051:16
	strh.w	r0, [sp, #32]
	.loc	10 1052 10 is_stmt 1            @ lvgl/src/lv_widgets/lv_arc.c:1052:10
	ldrh.w	r1, [sp, #32]
	.loc	10 1052 7 is_stmt 0             @ lvgl/src/lv_widgets/lv_arc.c:1052:7
	ldrh.w	r0, [sp, #46]
	subs	r0, r0, r1
	strh.w	r0, [sp, #46]
	.loc	10 1054 22 is_stmt 1            @ lvgl/src/lv_widgets/lv_arc.c:1054:22
	ldr	r0, [sp, #36]
	.loc	10 1054 27 is_stmt 0            @ lvgl/src/lv_widgets/lv_arc.c:1054:27
	ldrh	r0, [r0]
	.loc	10 1054 14                      @ lvgl/src/lv_widgets/lv_arc.c:1054:14
	strh.w	r0, [sp, #30]
.Ltmp497:
	.loc	10 1055 8 is_stmt 1             @ lvgl/src/lv_widgets/lv_arc.c:1055:8
	ldr	r0, [sp, #36]
	.loc	10 1055 13 is_stmt 0            @ lvgl/src/lv_widgets/lv_arc.c:1055:13
	ldrb.w	r0, [r0, #34]
	lsrs	r0, r0, #1
.Ltmp498:
	.loc	10 1055 8                       @ lvgl/src/lv_widgets/lv_arc.c:1055:8
	lsls	r0, r0, #30
	cbnz	r0, .LBB32_2
	b	.LBB32_1
.LBB32_1:
.Ltmp499:
	.loc	10 1056 18 is_stmt 1            @ lvgl/src/lv_widgets/lv_arc.c:1056:18
	ldr	r0, [sp, #36]
	ldrh	r1, [r0, #4]
	.loc	10 1056 15 is_stmt 0            @ lvgl/src/lv_widgets/lv_arc.c:1056:15
	ldrh.w	r0, [sp, #30]
	add	r0, r1
	strh.w	r0, [sp, #30]
	.loc	10 1057 5 is_stmt 1             @ lvgl/src/lv_widgets/lv_arc.c:1057:5
	b	.LBB32_11
.Ltmp500:
.LBB32_2:
	.loc	10 1058 13                      @ lvgl/src/lv_widgets/lv_arc.c:1058:13
	ldr	r0, [sp, #36]
	.loc	10 1058 18 is_stmt 0            @ lvgl/src/lv_widgets/lv_arc.c:1058:18
	ldrb.w	r0, [r0, #34]
	ubfx	r0, r0, #1, #2
.Ltmp501:
	.loc	10 1058 13                      @ lvgl/src/lv_widgets/lv_arc.c:1058:13
	cmp	r0, #2
	bne	.LBB32_4
	b	.LBB32_3
.LBB32_3:
.Ltmp502:
	.loc	10 1059 18 is_stmt 1            @ lvgl/src/lv_widgets/lv_arc.c:1059:18
	ldr	r0, [sp, #36]
	ldrh	r1, [r0, #2]
	.loc	10 1059 15 is_stmt 0            @ lvgl/src/lv_widgets/lv_arc.c:1059:15
	ldrh.w	r0, [sp, #30]
	add	r0, r1
	strh.w	r0, [sp, #30]
	.loc	10 1060 5 is_stmt 1             @ lvgl/src/lv_widgets/lv_arc.c:1060:5
	b	.LBB32_10
.Ltmp503:
.LBB32_4:
	.loc	10 1061 13                      @ lvgl/src/lv_widgets/lv_arc.c:1061:13
	ldr	r0, [sp, #36]
	.loc	10 1061 18 is_stmt 0            @ lvgl/src/lv_widgets/lv_arc.c:1061:18
	ldrb.w	r0, [r0, #34]
	ubfx	r0, r0, #1, #2
.Ltmp504:
	.loc	10 1061 13                      @ lvgl/src/lv_widgets/lv_arc.c:1061:13
	cmp	r0, #1
	bne	.LBB32_9
	b	.LBB32_5
.LBB32_5:
.Ltmp505:
	.loc	10 1062 44 is_stmt 1            @ lvgl/src/lv_widgets/lv_arc.c:1062:44
	ldr	r1, [sp, #36]
	.loc	10 1062 49 is_stmt 0            @ lvgl/src/lv_widgets/lv_arc.c:1062:49
	ldrsh.w	r0, [r1, #30]
	.loc	10 1062 66                      @ lvgl/src/lv_widgets/lv_arc.c:1062:66
	ldrsh.w	r1, [r1, #32]
	.loc	10 1062 59                      @ lvgl/src/lv_widgets/lv_arc.c:1062:59
	add	r0, r1
	.loc	10 1062 77                      @ lvgl/src/lv_widgets/lv_arc.c:1062:77
	add.w	r0, r0, r0, lsr #31
	asrs	r0, r0, #1
	.loc	10 1062 17                      @ lvgl/src/lv_widgets/lv_arc.c:1062:17
	str	r0, [sp, #24]
.Ltmp506:
	.loc	10 1063 12 is_stmt 1            @ lvgl/src/lv_widgets/lv_arc.c:1063:12
	ldr	r0, [sp, #36]
	.loc	10 1063 17 is_stmt 0            @ lvgl/src/lv_widgets/lv_arc.c:1063:17
	ldrsh.w	r0, [r0, #28]
	.loc	10 1063 29                      @ lvgl/src/lv_widgets/lv_arc.c:1063:29
	ldr	r1, [sp, #24]
.Ltmp507:
	.loc	10 1063 12                      @ lvgl/src/lv_widgets/lv_arc.c:1063:12
	cmp	r0, r1
	bge	.LBB32_7
	b	.LBB32_6
.LBB32_6:
.Ltmp508:
	.loc	10 1063 54                      @ lvgl/src/lv_widgets/lv_arc.c:1063:54
	ldr	r0, [sp, #36]
	ldrh	r1, [r0, #2]
	.loc	10 1063 51                      @ lvgl/src/lv_widgets/lv_arc.c:1063:51
	ldrh.w	r0, [sp, #30]
	add	r0, r1
	strh.w	r0, [sp, #30]
	.loc	10 1063 45                      @ lvgl/src/lv_widgets/lv_arc.c:1063:45
	b	.LBB32_8
.LBB32_7:
	.loc	10 1064 23 is_stmt 1            @ lvgl/src/lv_widgets/lv_arc.c:1064:23
	ldr	r0, [sp, #36]
	ldrh	r1, [r0, #4]
	.loc	10 1064 20 is_stmt 0            @ lvgl/src/lv_widgets/lv_arc.c:1064:20
	ldrh.w	r0, [sp, #30]
	add	r0, r1
	strh.w	r0, [sp, #30]
	b	.LBB32_8
.Ltmp509:
.LBB32_8:
	.loc	10 1065 5 is_stmt 1             @ lvgl/src/lv_widgets/lv_arc.c:1065:5
	b	.LBB32_9
.Ltmp510:
.LBB32_9:
	.loc	10 0 5 is_stmt 0                @ lvgl/src/lv_widgets/lv_arc.c:0:5
	b	.LBB32_10
.LBB32_10:
	b	.LBB32_11
.LBB32_11:
	.loc	10 1066 26 is_stmt 1            @ lvgl/src/lv_widgets/lv_arc.c:1066:26
	ldrsh.w	r0, [sp, #46]
	.loc	10 1066 44 is_stmt 0            @ lvgl/src/lv_widgets/lv_arc.c:1066:44
	str	r0, [sp]                        @ 4-byte Spill
	ldrh.w	r0, [sp, #30]
	.loc	10 1066 50                      @ lvgl/src/lv_widgets/lv_arc.c:1066:50
	adds	r0, #90
	.loc	10 1066 30                      @ lvgl/src/lv_widgets/lv_arc.c:1066:30
	sxth	r0, r0
	bl	_lv_trigo_sin
	mov	r1, r0
	.loc	10 1066 28                      @ lvgl/src/lv_widgets/lv_arc.c:1066:28
	ldr	r0, [sp]                        @ 4-byte Reload
	muls	r0, r1, r0
	.loc	10 1066 57                      @ lvgl/src/lv_widgets/lv_arc.c:1066:57
	lsrs	r0, r0, #15
	.loc	10 1066 16                      @ lvgl/src/lv_widgets/lv_arc.c:1066:16
	strh.w	r0, [sp, #22]
	.loc	10 1067 26 is_stmt 1            @ lvgl/src/lv_widgets/lv_arc.c:1067:26
	ldrsh.w	r0, [sp, #46]
	.loc	10 1067 44 is_stmt 0            @ lvgl/src/lv_widgets/lv_arc.c:1067:44
	str	r0, [sp, #4]                    @ 4-byte Spill
	ldrsh.w	r0, [sp, #30]
	.loc	10 1067 30                      @ lvgl/src/lv_widgets/lv_arc.c:1067:30
	bl	_lv_trigo_sin
	mov	r1, r0
	.loc	10 1067 28                      @ lvgl/src/lv_widgets/lv_arc.c:1067:28
	ldr	r0, [sp, #4]                    @ 4-byte Reload
	muls	r0, r1, r0
	.loc	10 1067 52                      @ lvgl/src/lv_widgets/lv_arc.c:1067:52
	lsrs	r0, r0, #15
