	.text
	.syntax unified
	.eabi_attribute	67, "2.09"	@ Tag_conformance
	.cpu	cortex-m7
	.eabi_attribute	6, 13	@ Tag_CPU_arch
	.eabi_attribute	7, 77	@ Tag_CPU_arch_profile
	.eabi_attribute	8, 0	@ Tag_ARM_ISA_use
	.eabi_attribute	9, 2	@ Tag_THUMB_ISA_use
	.fpu	fpv5-d16
	.eabi_attribute	36, 1	@ Tag_FP_HP_extension
	.eabi_attribute	34, 1	@ Tag_CPU_unaligned_access
	.eabi_attribute	17, 1	@ Tag_ABI_PCS_GOT_use
	.eabi_attribute	20, 2	@ Tag_ABI_FP_denormal
	.eabi_attribute	21, 0	@ Tag_ABI_FP_exceptions
	.eabi_attribute	23, 1	@ Tag_ABI_FP_number_model
	.eabi_attribute	24, 1	@ Tag_ABI_align_needed
	.eabi_attribute	25, 1	@ Tag_ABI_align_preserved
	.eabi_attribute	28, 1	@ Tag_ABI_VFP_args
	.eabi_attribute	38, 1	@ Tag_ABI_FP_16bit_format
	.eabi_attribute	18, 2	@ Tag_ABI_PCS_wchar_t
	.eabi_attribute	26, 1	@ Tag_ABI_enum_size
	.eabi_attribute	14, 0	@ Tag_ABI_PCS_R9_use
	.file	"lv_anim.c"
	.file	1 "D:\\Keil_v5\\ARM\\ARMCLANG\\Bin\\..\\include" "stdint.h"
	.file	2 "E:\\Smart-access-control\\Hardware\\CODE" "./lvgl/src/lv_conf.h"
	.file	3 "E:\\Smart-access-control\\Hardware\\CODE" "lvgl/src/lv_misc/lv_anim.h"
	.file	4 "E:\\Smart-access-control\\Hardware\\CODE" "lvgl/src/lv_misc/lv_anim.c"
	.file	5 "E:\\Smart-access-control\\Hardware\\CODE" "lvgl/src/lv_misc/lv_task.h"
	.section	.text.lv_anim_path_linear,"ax",%progbits
	.hidden	lv_anim_path_linear             @ -- Begin function lv_anim_path_linear
	.globl	lv_anim_path_linear
	.p2align	3
	.type	lv_anim_path_linear,%function
	.code	16                              @ @lv_anim_path_linear
	.thumb_func
lv_anim_path_linear:
.Lfunc_begin0:
	.loc	4 220 0                         @ lvgl/src/lv_misc/lv_anim.c:220:0
	.fnstart
	.cfi_sections .debug_frame
	.cfi_startproc
@ %bb.0:
	.save	{r7, lr}
	push	{r7, lr}
	.cfi_def_cfa_offset 8
	.cfi_offset lr, -4
	.cfi_offset r7, -8
	.pad	#24
	sub	sp, #24
	.cfi_def_cfa_offset 32
	str	r0, [sp, #20]
	str	r1, [sp, #16]
.Ltmp0:
	.loc	4 224 28 prologue_end           @ lvgl/src/lv_misc/lv_anim.c:224:28
	ldr	r0, [sp, #16]
	.loc	4 224 47 is_stmt 0              @ lvgl/src/lv_misc/lv_anim.c:224:47
	ldr	r2, [r0, #36]
	.loc	4 224 31                        @ lvgl/src/lv_misc/lv_anim.c:224:31
	ldr	r0, [r0, #40]
	.loc	4 224 20                        @ lvgl/src/lv_misc/lv_anim.c:224:20
	mov	r3, sp
	mov.w	r1, #1024
	str	r1, [r3]
	movs	r3, #0
	mov	r1, r3
	bl	_lv_map
	.loc	4 224 13                        @ lvgl/src/lv_misc/lv_anim.c:224:13
	str	r0, [sp, #12]
	.loc	4 229 17 is_stmt 1              @ lvgl/src/lv_misc/lv_anim.c:229:17
	ldr	r0, [sp, #12]
	.loc	4 229 25 is_stmt 0              @ lvgl/src/lv_misc/lv_anim.c:229:25
	ldr	r1, [sp, #16]
	.loc	4 229 37                        @ lvgl/src/lv_misc/lv_anim.c:229:37
	ldr	r2, [r1, #24]
	.loc	4 229 28                        @ lvgl/src/lv_misc/lv_anim.c:229:28
	ldr	r1, [r1, #32]
	.loc	4 229 32                        @ lvgl/src/lv_misc/lv_anim.c:229:32
	subs	r1, r1, r2
	.loc	4 229 22                        @ lvgl/src/lv_misc/lv_anim.c:229:22
	muls	r0, r1, r0
	.loc	4 229 15                        @ lvgl/src/lv_misc/lv_anim.c:229:15
	str	r0, [sp, #8]
	.loc	4 230 17 is_stmt 1              @ lvgl/src/lv_misc/lv_anim.c:230:17
	ldr	r0, [sp, #8]
	.loc	4 230 27 is_stmt 0              @ lvgl/src/lv_misc/lv_anim.c:230:27
	asrs	r0, r0, #10
	.loc	4 230 15                        @ lvgl/src/lv_misc/lv_anim.c:230:15
	str	r0, [sp, #8]
	.loc	4 231 18 is_stmt 1              @ lvgl/src/lv_misc/lv_anim.c:231:18
	ldr	r0, [sp, #16]
	.loc	4 231 21 is_stmt 0              @ lvgl/src/lv_misc/lv_anim.c:231:21
	ldr	r1, [r0, #24]
	.loc	4 231 15                        @ lvgl/src/lv_misc/lv_anim.c:231:15
	ldr	r0, [sp, #8]
	add	r0, r1
	str	r0, [sp, #8]
	.loc	4 233 12 is_stmt 1              @ lvgl/src/lv_misc/lv_anim.c:233:12
	ldrsh.w	r0, [sp, #8]
	.loc	4 233 5 is_stmt 0               @ lvgl/src/lv_misc/lv_anim.c:233:5
	add	sp, #24
	pop	{r7, pc}
.Ltmp1:
.Lfunc_end0:
	.size	lv_anim_path_linear, .Lfunc_end0-lv_anim_path_linear
	.cfi_endproc
	.cantunwind
	.fnend
                                        @ -- End function
	.section	.text._lv_anim_core_init,"ax",%progbits
	.hidden	_lv_anim_core_init              @ -- Begin function _lv_anim_core_init
	.globl	_lv_anim_core_init
	.p2align	3
	.type	_lv_anim_core_init,%function
	.code	16                              @ @_lv_anim_core_init
	.thumb_func
_lv_anim_core_init:
.Lfunc_begin1:
	.loc	4 59 0 is_stmt 1                @ lvgl/src/lv_misc/lv_anim.c:59:0
	.fnstart
	.cfi_startproc
@ %bb.0:
	.save	{r7, lr}
	push	{r7, lr}
	.cfi_def_cfa_offset 8
	.cfi_offset lr, -4
	.cfi_offset r7, -8
	.pad	#8
	sub	sp, #8
	.cfi_def_cfa_offset 16
.Ltmp2:
	.loc	4 60 5 prologue_end             @ lvgl/src/lv_misc/lv_anim.c:60:5
	movw	r0, :lower16:_lv_anim_ll
	movt	r0, :upper16:_lv_anim_ll
	movs	r1, #64
	bl	_lv_ll_init
	.loc	4 61 21                         @ lvgl/src/lv_misc/lv_anim.c:61:21
	movw	r0, :lower16:anim_task
	movt	r0, :upper16:anim_task
	movs	r1, #10
	movs	r2, #4
	movs	r3, #0
	str	r3, [sp, #4]                    @ 4-byte Spill
	bl	lv_task_create
	.loc	4 61 19 is_stmt 0               @ lvgl/src/lv_misc/lv_anim.c:61:19
	movw	r1, :lower16:_lv_anim_task
	movt	r1, :upper16:_lv_anim_task
	str	r0, [r1]
	.loc	4 62 5 is_stmt 1                @ lvgl/src/lv_misc/lv_anim.c:62:5
	bl	anim_mark_list_change
	ldr	r0, [sp, #4]                    @ 4-byte Reload
	.loc	4 63 23                         @ lvgl/src/lv_misc/lv_anim.c:63:23
	movw	r1, :lower16:anim_list_changed
	movt	r1, :upper16:anim_list_changed
	strb	r0, [r1]
	.loc	4 64 1                          @ lvgl/src/lv_misc/lv_anim.c:64:1
	add	sp, #8
	pop	{r7, pc}
.Ltmp3:
.Lfunc_end1:
	.size	_lv_anim_core_init, .Lfunc_end1-_lv_anim_core_init
	.cfi_endproc
	.cantunwind
	.fnend
                                        @ -- End function
	.section	.text.anim_task,"ax",%progbits
	.p2align	3                               @ -- Begin function anim_task
	.type	anim_task,%function
	.code	16                              @ @anim_task
	.thumb_func
anim_task:
.Lfunc_begin2:
	.loc	4 406 0                         @ lvgl/src/lv_misc/lv_anim.c:406:0
	.fnstart
	.cfi_startproc
@ %bb.0:
	.save	{r7, lr}
	push	{r7, lr}
	.cfi_def_cfa_offset 8
	.cfi_offset lr, -4
	.cfi_offset r7, -8
	.pad	#24
	sub	sp, #24
	.cfi_def_cfa_offset 32
	str	r0, [sp, #20]
.Ltmp4:
	.loc	4 409 36 prologue_end           @ lvgl/src/lv_misc/lv_anim.c:409:36
	movw	r0, :lower16:last_task_run
	movt	r0, :upper16:last_task_run
	ldr	r0, [r0]
	.loc	4 409 22 is_stmt 0              @ lvgl/src/lv_misc/lv_anim.c:409:22
	bl	lv_tick_elaps
	.loc	4 409 14                        @ lvgl/src/lv_misc/lv_anim.c:409:14
	str	r0, [sp, #16]
	.loc	4 412 22 is_stmt 1              @ lvgl/src/lv_misc/lv_anim.c:412:22
	movw	r1, :lower16:anim_run_round
	movt	r1, :upper16:anim_run_round
	ldrb	r2, [r1]
	movs	r0, #1
	bics	r0, r2
	.loc	4 412 20 is_stmt 0              @ lvgl/src/lv_misc/lv_anim.c:412:20
	strb	r0, [r1]
	.loc	4 414 21 is_stmt 1              @ lvgl/src/lv_misc/lv_anim.c:414:21
	movw	r0, :lower16:_lv_anim_ll
	movt	r0, :upper16:_lv_anim_ll
	bl	_lv_ll_get_head
	.loc	4 414 17 is_stmt 0              @ lvgl/src/lv_misc/lv_anim.c:414:17
	str	r0, [sp, #12]
	.loc	4 416 5 is_stmt 1               @ lvgl/src/lv_misc/lv_anim.c:416:5
	b	.LBB2_1
.LBB2_1:                                @ =>This Inner Loop Header: Depth=1
	.loc	4 416 11 is_stmt 0              @ lvgl/src/lv_misc/lv_anim.c:416:11
	ldr	r0, [sp, #12]
	.loc	4 416 5                         @ lvgl/src/lv_misc/lv_anim.c:416:5
	cmp	r0, #0
	beq.w	.LBB2_26
	b	.LBB2_2
.LBB2_2:                                @   in Loop: Header=BB2_1 Depth=1
.Ltmp5:
	.loc	4 421 27 is_stmt 1              @ lvgl/src/lv_misc/lv_anim.c:421:27
	movw	r1, :lower16:anim_list_changed
	movt	r1, :upper16:anim_list_changed
	movs	r0, #0
	strb	r0, [r1]
.Ltmp6:
	.loc	4 423 12                        @ lvgl/src/lv_misc/lv_anim.c:423:12
	ldr	r0, [sp, #12]
	.loc	4 423 15 is_stmt 0              @ lvgl/src/lv_misc/lv_anim.c:423:15
	ldrb.w	r0, [r0, #58]
	ubfx	r0, r0, #2, #1
	.loc	4 423 28                        @ lvgl/src/lv_misc/lv_anim.c:423:28
	movw	r1, :lower16:anim_run_round
	movt	r1, :upper16:anim_run_round
	ldrb	r1, [r1]
	and	r1, r1, #1
.Ltmp7:
	.loc	4 423 12                        @ lvgl/src/lv_misc/lv_anim.c:423:12
	cmp	r0, r1
	beq	.LBB2_22
	b	.LBB2_3
.LBB2_3:                                @   in Loop: Header=BB2_1 Depth=1
.Ltmp8:
	.loc	4 424 28 is_stmt 1              @ lvgl/src/lv_misc/lv_anim.c:424:28
	movw	r0, :lower16:anim_run_round
	movt	r0, :upper16:anim_run_round
	ldrb	r0, [r0]
	and	r2, r0, #1
	.loc	4 424 13 is_stmt 0              @ lvgl/src/lv_misc/lv_anim.c:424:13
	ldr	r1, [sp, #12]
	.loc	4 424 26                        @ lvgl/src/lv_misc/lv_anim.c:424:26
	ldrb.w	r0, [r1, #58]
	and	r0, r0, #251
	orr.w	r0, r0, r2, lsl #2
	strb.w	r0, [r1, #58]
	.loc	4 427 36 is_stmt 1              @ lvgl/src/lv_misc/lv_anim.c:427:36
	ldr	r0, [sp, #12]
	.loc	4 427 39 is_stmt 0              @ lvgl/src/lv_misc/lv_anim.c:427:39
	ldr	r0, [r0, #40]
	.loc	4 427 50                        @ lvgl/src/lv_misc/lv_anim.c:427:50
	ldr	r1, [sp, #16]
	.loc	4 427 48                        @ lvgl/src/lv_misc/lv_anim.c:427:48
	add	r0, r1
	.loc	4 427 21                        @ lvgl/src/lv_misc/lv_anim.c:427:21
	str	r0, [sp, #8]
.Ltmp9:
	.loc	4 428 16 is_stmt 1              @ lvgl/src/lv_misc/lv_anim.c:428:16
	ldr	r0, [sp, #12]
	.loc	4 428 19 is_stmt 0              @ lvgl/src/lv_misc/lv_anim.c:428:19
	ldr	r0, [r0, #40]
	.loc	4 428 33                        @ lvgl/src/lv_misc/lv_anim.c:428:33
	cmp	r0, #0
	bgt	.LBB2_8
	b	.LBB2_4
.LBB2_4:                                @   in Loop: Header=BB2_1 Depth=1
	.loc	4 428 36                        @ lvgl/src/lv_misc/lv_anim.c:428:36
	ldr	r0, [sp, #8]
.Ltmp10:
	.loc	4 428 16                        @ lvgl/src/lv_misc/lv_anim.c:428:16
	cmp	r0, #0
	bmi	.LBB2_8
	b	.LBB2_5
.LBB2_5:                                @   in Loop: Header=BB2_1 Depth=1
.Ltmp11:
	.loc	4 429 20 is_stmt 1              @ lvgl/src/lv_misc/lv_anim.c:429:20
	ldr	r0, [sp, #12]
	.loc	4 429 23 is_stmt 0              @ lvgl/src/lv_misc/lv_anim.c:429:23
	ldr	r0, [r0, #8]
.Ltmp12:
	.loc	4 429 20                        @ lvgl/src/lv_misc/lv_anim.c:429:20
	cbz	r0, .LBB2_7
	b	.LBB2_6
.LBB2_6:                                @   in Loop: Header=BB2_1 Depth=1
.Ltmp13:
	.loc	4 429 33                        @ lvgl/src/lv_misc/lv_anim.c:429:33
	ldr	r0, [sp, #12]
	.loc	4 429 36                        @ lvgl/src/lv_misc/lv_anim.c:429:36
	ldr	r1, [r0, #8]
	.loc	4 429 33                        @ lvgl/src/lv_misc/lv_anim.c:429:33
	blx	r1
	b	.LBB2_7
.Ltmp14:
.LBB2_7:                                @   in Loop: Header=BB2_1 Depth=1
	.loc	4 430 13 is_stmt 1              @ lvgl/src/lv_misc/lv_anim.c:430:13
	b	.LBB2_8
.Ltmp15:
.LBB2_8:                                @   in Loop: Header=BB2_1 Depth=1
	.loc	4 431 28                        @ lvgl/src/lv_misc/lv_anim.c:431:28
	ldr	r2, [sp, #16]
	.loc	4 431 13 is_stmt 0              @ lvgl/src/lv_misc/lv_anim.c:431:13
	ldr	r1, [sp, #12]
	.loc	4 431 25                        @ lvgl/src/lv_misc/lv_anim.c:431:25
	ldr	r0, [r1, #40]
	add	r0, r2
	str	r0, [r1, #40]
.Ltmp16:
	.loc	4 432 16 is_stmt 1              @ lvgl/src/lv_misc/lv_anim.c:432:16
	ldr	r0, [sp, #12]
	.loc	4 432 19 is_stmt 0              @ lvgl/src/lv_misc/lv_anim.c:432:19
	ldr	r0, [r0, #40]
.Ltmp17:
	.loc	4 432 16                        @ lvgl/src/lv_misc/lv_anim.c:432:16
	cmp	r0, #0
	bmi	.LBB2_21
	b	.LBB2_9
.LBB2_9:                                @   in Loop: Header=BB2_1 Depth=1
.Ltmp18:
	.loc	4 433 20 is_stmt 1              @ lvgl/src/lv_misc/lv_anim.c:433:20
	ldr	r0, [sp, #12]
	.loc	4 433 37 is_stmt 0              @ lvgl/src/lv_misc/lv_anim.c:433:37
	ldr	r1, [r0, #36]
	.loc	4 433 23                        @ lvgl/src/lv_misc/lv_anim.c:433:23
	ldr	r0, [r0, #40]
.Ltmp19:
	.loc	4 433 20                        @ lvgl/src/lv_misc/lv_anim.c:433:20
	cmp	r0, r1
	ble	.LBB2_11
	b	.LBB2_10
.LBB2_10:                               @   in Loop: Header=BB2_1 Depth=1
.Ltmp20:
	.loc	4 433 57                        @ lvgl/src/lv_misc/lv_anim.c:433:57
	ldr	r1, [sp, #12]
	.loc	4 433 60                        @ lvgl/src/lv_misc/lv_anim.c:433:60
	ldr	r0, [r1, #36]
	.loc	4 433 55                        @ lvgl/src/lv_misc/lv_anim.c:433:55
	str	r0, [r1, #40]
	.loc	4 433 43                        @ lvgl/src/lv_misc/lv_anim.c:433:43
	b	.LBB2_11
.Ltmp21:
.LBB2_11:                               @   in Loop: Header=BB2_1 Depth=1
	.loc	4 436 20 is_stmt 1              @ lvgl/src/lv_misc/lv_anim.c:436:20
	ldr	r0, [sp, #12]
	.loc	4 436 28 is_stmt 0              @ lvgl/src/lv_misc/lv_anim.c:436:28
	ldr	r0, [r0, #16]
.Ltmp22:
	.loc	4 436 20                        @ lvgl/src/lv_misc/lv_anim.c:436:20
	cbz	r0, .LBB2_13
	b	.LBB2_12
.LBB2_12:                               @   in Loop: Header=BB2_1 Depth=1
.Ltmp23:
	.loc	4 436 44                        @ lvgl/src/lv_misc/lv_anim.c:436:44
	ldr	r1, [sp, #12]
	.loc	4 436 52                        @ lvgl/src/lv_misc/lv_anim.c:436:52
	mov	r0, r1
	ldr	r2, [r0, #16]!
	.loc	4 436 44                        @ lvgl/src/lv_misc/lv_anim.c:436:44
	blx	r2
	.loc	4 436 42                        @ lvgl/src/lv_misc/lv_anim.c:436:42
	str	r0, [sp, #4]
	.loc	4 436 32                        @ lvgl/src/lv_misc/lv_anim.c:436:32
	b	.LBB2_14
.LBB2_13:                               @   in Loop: Header=BB2_1 Depth=1
	.loc	4 437 55 is_stmt 1              @ lvgl/src/lv_misc/lv_anim.c:437:55
	ldr	r1, [sp, #12]
	.loc	4 437 58 is_stmt 0              @ lvgl/src/lv_misc/lv_anim.c:437:58
	add.w	r0, r1, #16
	.loc	4 437 34                        @ lvgl/src/lv_misc/lv_anim.c:437:34
	bl	lv_anim_path_linear
	.loc	4 437 32                        @ lvgl/src/lv_misc/lv_anim.c:437:32
	str	r0, [sp, #4]
	b	.LBB2_14
.Ltmp24:
.LBB2_14:                               @   in Loop: Header=BB2_1 Depth=1
	.loc	4 439 20 is_stmt 1              @ lvgl/src/lv_misc/lv_anim.c:439:20
	ldr	r0, [sp, #4]
	.loc	4 439 33 is_stmt 0              @ lvgl/src/lv_misc/lv_anim.c:439:33
	ldr	r1, [sp, #12]
	.loc	4 439 36                        @ lvgl/src/lv_misc/lv_anim.c:439:36
	ldr	r1, [r1, #28]
.Ltmp25:
	.loc	4 439 20                        @ lvgl/src/lv_misc/lv_anim.c:439:20
	cmp	r0, r1
	beq	.LBB2_18
	b	.LBB2_15
.LBB2_15:                               @   in Loop: Header=BB2_1 Depth=1
.Ltmp26:
	.loc	4 440 34 is_stmt 1              @ lvgl/src/lv_misc/lv_anim.c:440:34
	ldr	r0, [sp, #4]
	.loc	4 440 21 is_stmt 0              @ lvgl/src/lv_misc/lv_anim.c:440:21
	ldr	r1, [sp, #12]
	.loc	4 440 32                        @ lvgl/src/lv_misc/lv_anim.c:440:32
	str	r0, [r1, #28]
.Ltmp27:
	.loc	4 442 24 is_stmt 1              @ lvgl/src/lv_misc/lv_anim.c:442:24
	ldr	r0, [sp, #12]
	.loc	4 442 27 is_stmt 0              @ lvgl/src/lv_misc/lv_anim.c:442:27
	ldr	r0, [r0, #4]
.Ltmp28:
	.loc	4 442 24                        @ lvgl/src/lv_misc/lv_anim.c:442:24
	cbz	r0, .LBB2_17
	b	.LBB2_16
.LBB2_16:                               @   in Loop: Header=BB2_1 Depth=1
.Ltmp29:
	.loc	4 442 36                        @ lvgl/src/lv_misc/lv_anim.c:442:36
	ldr	r1, [sp, #12]
	.loc	4 442 50                        @ lvgl/src/lv_misc/lv_anim.c:442:50
	ldr	r0, [r1]
	.loc	4 442 39                        @ lvgl/src/lv_misc/lv_anim.c:442:39
	ldr	r2, [r1, #4]
	.loc	4 442 55                        @ lvgl/src/lv_misc/lv_anim.c:442:55
	ldrsh.w	r1, [sp, #4]
	.loc	4 442 36                        @ lvgl/src/lv_misc/lv_anim.c:442:36
	blx	r2
	b	.LBB2_17
.Ltmp30:
.LBB2_17:                               @   in Loop: Header=BB2_1 Depth=1
	.loc	4 443 17 is_stmt 1              @ lvgl/src/lv_misc/lv_anim.c:443:17
	b	.LBB2_18
.Ltmp31:
.LBB2_18:                               @   in Loop: Header=BB2_1 Depth=1
	.loc	4 446 20                        @ lvgl/src/lv_misc/lv_anim.c:446:20
	ldr	r0, [sp, #12]
	.loc	4 446 38 is_stmt 0              @ lvgl/src/lv_misc/lv_anim.c:446:38
	ldr	r1, [r0, #36]
	.loc	4 446 23                        @ lvgl/src/lv_misc/lv_anim.c:446:23
	ldr	r0, [r0, #40]
.Ltmp32:
	.loc	4 446 20                        @ lvgl/src/lv_misc/lv_anim.c:446:20
	cmp	r0, r1
	blt	.LBB2_20
	b	.LBB2_19
.LBB2_19:                               @   in Loop: Header=BB2_1 Depth=1
.Ltmp33:
	.loc	4 447 40 is_stmt 1              @ lvgl/src/lv_misc/lv_anim.c:447:40
	ldr	r0, [sp, #12]
	.loc	4 447 21 is_stmt 0              @ lvgl/src/lv_misc/lv_anim.c:447:21
	bl	anim_ready_handler
	.loc	4 448 17 is_stmt 1              @ lvgl/src/lv_misc/lv_anim.c:448:17
	b	.LBB2_20
.Ltmp34:
.LBB2_20:                               @   in Loop: Header=BB2_1 Depth=1
	.loc	4 449 13                        @ lvgl/src/lv_misc/lv_anim.c:449:13
	b	.LBB2_21
.Ltmp35:
.LBB2_21:                               @   in Loop: Header=BB2_1 Depth=1
	.loc	4 450 9                         @ lvgl/src/lv_misc/lv_anim.c:450:9
	b	.LBB2_22
.Ltmp36:
.LBB2_22:                               @   in Loop: Header=BB2_1 Depth=1
	.loc	4 454 12                        @ lvgl/src/lv_misc/lv_anim.c:454:12
	movw	r0, :lower16:anim_list_changed
	movt	r0, :upper16:anim_list_changed
	ldrb	r0, [r0]
.Ltmp37:
	.loc	4 454 12 is_stmt 0              @ lvgl/src/lv_misc/lv_anim.c:454:12
	lsls	r0, r0, #31
	cbz	r0, .LBB2_24
	b	.LBB2_23
.LBB2_23:                               @   in Loop: Header=BB2_1 Depth=1
.Ltmp38:
	.loc	4 455 17 is_stmt 1              @ lvgl/src/lv_misc/lv_anim.c:455:17
	movw	r0, :lower16:_lv_anim_ll
	movt	r0, :upper16:_lv_anim_ll
	bl	_lv_ll_get_head
	.loc	4 455 15 is_stmt 0              @ lvgl/src/lv_misc/lv_anim.c:455:15
	str	r0, [sp, #12]
	.loc	4 455 13                        @ lvgl/src/lv_misc/lv_anim.c:455:13
	b	.LBB2_25
.LBB2_24:                               @   in Loop: Header=BB2_1 Depth=1
	.loc	4 457 59 is_stmt 1              @ lvgl/src/lv_misc/lv_anim.c:457:59
	ldr	r1, [sp, #12]
	.loc	4 457 17 is_stmt 0              @ lvgl/src/lv_misc/lv_anim.c:457:17
	movw	r0, :lower16:_lv_anim_ll
	movt	r0, :upper16:_lv_anim_ll
	bl	_lv_ll_get_next
	.loc	4 457 15                        @ lvgl/src/lv_misc/lv_anim.c:457:15
	str	r0, [sp, #12]
	b	.LBB2_25
.Ltmp39:
.LBB2_25:                               @   in Loop: Header=BB2_1 Depth=1
	.loc	4 416 5 is_stmt 1               @ lvgl/src/lv_misc/lv_anim.c:416:5
	b	.LBB2_1
.LBB2_26:
	.loc	4 460 21                        @ lvgl/src/lv_misc/lv_anim.c:460:21
	bl	lv_tick_get
	.loc	4 460 19 is_stmt 0              @ lvgl/src/lv_misc/lv_anim.c:460:19
	movw	r1, :lower16:last_task_run
	movt	r1, :upper16:last_task_run
	str	r0, [r1]
	.loc	4 461 1 is_stmt 1               @ lvgl/src/lv_misc/lv_anim.c:461:1
	add	sp, #24
	pop	{r7, pc}
.Ltmp40:
.Lfunc_end2:
	.size	anim_task, .Lfunc_end2-anim_task
	.cfi_endproc
	.cantunwind
	.fnend
                                        @ -- End function
	.section	.text.anim_mark_list_change,"ax",%progbits
	.p2align	3                               @ -- Begin function anim_mark_list_change
	.type	anim_mark_list_change,%function
	.code	16                              @ @anim_mark_list_change
	.thumb_func
anim_mark_list_change:
.Lfunc_begin3:
	.loc	4 513 0                         @ lvgl/src/lv_misc/lv_anim.c:513:0
	.fnstart
	.cfi_startproc
@ %bb.0:
	.save	{r7, lr}
	push	{r7, lr}
	.cfi_def_cfa_offset 8
	.cfi_offset lr, -4
	.cfi_offset r7, -8
.Ltmp41:
	.loc	4 514 23 prologue_end           @ lvgl/src/lv_misc/lv_anim.c:514:23
	movw	r1, :lower16:anim_list_changed
	movt	r1, :upper16:anim_list_changed
	movs	r0, #1
	strb	r0, [r1]
.Ltmp42:
	.loc	4 515 8                         @ lvgl/src/lv_misc/lv_anim.c:515:8
	movw	r0, :lower16:_lv_anim_ll
	movt	r0, :upper16:_lv_anim_ll
	bl	_lv_ll_get_head
.Ltmp43:
	.loc	4 515 8 is_stmt 0               @ lvgl/src/lv_misc/lv_anim.c:515:8
	cbnz	r0, .LBB3_2
	b	.LBB3_1
.LBB3_1:
.Ltmp44:
	.loc	4 516 26 is_stmt 1              @ lvgl/src/lv_misc/lv_anim.c:516:26
	movw	r0, :lower16:_lv_anim_task
	movt	r0, :upper16:_lv_anim_task
	ldr	r0, [r0]
	movs	r1, #0
	.loc	4 516 9 is_stmt 0               @ lvgl/src/lv_misc/lv_anim.c:516:9
	bl	lv_task_set_prio
	b	.LBB3_3
.LBB3_2:
	.loc	4 518 26 is_stmt 1              @ lvgl/src/lv_misc/lv_anim.c:518:26
	movw	r0, :lower16:_lv_anim_task
	movt	r0, :upper16:_lv_anim_task
	ldr	r0, [r0]
	movs	r1, #4
	.loc	4 518 9 is_stmt 0               @ lvgl/src/lv_misc/lv_anim.c:518:9
	bl	lv_task_set_prio
	b	.LBB3_3
.Ltmp45:
.LBB3_3:
	.loc	4 519 1 is_stmt 1               @ lvgl/src/lv_misc/lv_anim.c:519:1
	pop	{r7, pc}
.Ltmp46:
.Lfunc_end3:
	.size	anim_mark_list_change, .Lfunc_end3-anim_mark_list_change
	.cfi_endproc
	.cantunwind
	.fnend
                                        @ -- End function
	.section	.text.lv_anim_init,"ax",%progbits
	.hidden	lv_anim_init                    @ -- Begin function lv_anim_init
	.globl	lv_anim_init
	.p2align	3
	.type	lv_anim_init,%function
	.code	16                              @ @lv_anim_init
	.thumb_func
lv_anim_init:
.Lfunc_begin4:
	.loc	4 75 0                          @ lvgl/src/lv_misc/lv_anim.c:75:0
	.fnstart
	.cfi_startproc
@ %bb.0:
	.save	{r7, lr}
	push	{r7, lr}
	.cfi_def_cfa_offset 8
	.cfi_offset lr, -4
	.cfi_offset r7, -8
	.pad	#8
	sub	sp, #8
	.cfi_def_cfa_offset 16
	str	r0, [sp, #4]
.Ltmp47:
	.loc	4 76 19 prologue_end            @ lvgl/src/lv_misc/lv_anim.c:76:19
	ldr	r0, [sp, #4]
	movs	r1, #64
	.loc	4 76 5 is_stmt 0                @ lvgl/src/lv_misc/lv_anim.c:76:5
	bl	_lv_memset_00
	.loc	4 77 5 is_stmt 1                @ lvgl/src/lv_misc/lv_anim.c:77:5
	ldr	r1, [sp, #4]
	mov.w	r0, #500
	.loc	4 77 16 is_stmt 0               @ lvgl/src/lv_misc/lv_anim.c:77:16
	str	r0, [r1, #36]
	.loc	4 78 5 is_stmt 1                @ lvgl/src/lv_misc/lv_anim.c:78:5
	ldr	r1, [sp, #4]
	movs	r0, #0
	.loc	4 78 16 is_stmt 0               @ lvgl/src/lv_misc/lv_anim.c:78:16
	str	r0, [r1, #24]
	.loc	4 79 5 is_stmt 1                @ lvgl/src/lv_misc/lv_anim.c:79:5
	ldr	r1, [sp, #4]
	movs	r0, #100
	.loc	4 79 16 is_stmt 0               @ lvgl/src/lv_misc/lv_anim.c:79:16
	str	r0, [r1, #32]
	.loc	4 80 23 is_stmt 1               @ lvgl/src/lv_misc/lv_anim.c:80:23
	ldr	r0, [sp, #4]
	.loc	4 80 26 is_stmt 0               @ lvgl/src/lv_misc/lv_anim.c:80:26
	adds	r0, #16
	.loc	4 80 5                          @ lvgl/src/lv_misc/lv_anim.c:80:5
	movw	r1, :lower16:lv_anim_path_def
	movt	r1, :upper16:lv_anim_path_def
	movs	r2, #4
	bl	_lv_memcpy_small
	.loc	4 81 5 is_stmt 1                @ lvgl/src/lv_misc/lv_anim.c:81:5
	ldr	r1, [sp, #4]
	movs	r0, #1
	.loc	4 81 19 is_stmt 0               @ lvgl/src/lv_misc/lv_anim.c:81:19
	strh	r0, [r1, #56]
	.loc	4 82 5 is_stmt 1                @ lvgl/src/lv_misc/lv_anim.c:82:5
	ldr	r1, [sp, #4]
	.loc	4 82 20 is_stmt 0               @ lvgl/src/lv_misc/lv_anim.c:82:20
	ldrb.w	r0, [r1, #58]
	orr	r0, r0, #1
	strb.w	r0, [r1, #58]
	.loc	4 83 1 is_stmt 1                @ lvgl/src/lv_misc/lv_anim.c:83:1
	add	sp, #8
	pop	{r7, pc}
.Ltmp48:
.Lfunc_end4:
	.size	lv_anim_init, .Lfunc_end4-lv_anim_init
	.cfi_endproc
	.cantunwind
	.fnend
                                        @ -- End function
	.section	.text._lv_memcpy_small,"ax",%progbits
	.p2align	3                               @ -- Begin function _lv_memcpy_small
	.type	_lv_memcpy_small,%function
	.code	16                              @ @_lv_memcpy_small
	.thumb_func
_lv_memcpy_small:
.Lfunc_begin5:
	.file	6 "E:\\Smart-access-control\\Hardware\\CODE" "lvgl/src/lv_misc/lv_mem.h"
	.loc	6 214 0                         @ lvgl/src/lv_misc/lv_mem.h:214:0
	.fnstart
	.cfi_startproc
@ %bb.0:
	.pad	#20
	sub	sp, #20
	.cfi_def_cfa_offset 20
	str	r0, [sp, #16]
	str	r1, [sp, #12]
	str	r2, [sp, #8]
.Ltmp49:
	.loc	6 215 31 prologue_end           @ lvgl/src/lv_misc/lv_mem.h:215:31
	ldr	r0, [sp, #16]
	.loc	6 215 15 is_stmt 0              @ lvgl/src/lv_misc/lv_mem.h:215:15
	str	r0, [sp, #4]
	.loc	6 216 43 is_stmt 1              @ lvgl/src/lv_misc/lv_mem.h:216:43
	ldr	r0, [sp, #12]
	.loc	6 216 21 is_stmt 0              @ lvgl/src/lv_misc/lv_mem.h:216:21
	str	r0, [sp]
	.loc	6 218 5 is_stmt 1               @ lvgl/src/lv_misc/lv_mem.h:218:5
	b	.LBB5_1
.LBB5_1:                                @ =>This Inner Loop Header: Depth=1
	.loc	6 218 11 is_stmt 0              @ lvgl/src/lv_misc/lv_mem.h:218:11
	ldr	r0, [sp, #8]
	.loc	6 218 5                         @ lvgl/src/lv_misc/lv_mem.h:218:5
	cbz	r0, .LBB5_3
	b	.LBB5_2
.LBB5_2:                                @   in Loop: Header=BB5_1 Depth=1
.Ltmp50:
	.loc	6 219 16 is_stmt 1              @ lvgl/src/lv_misc/lv_mem.h:219:16
	ldr	r0, [sp]
	.loc	6 219 15 is_stmt 0              @ lvgl/src/lv_misc/lv_mem.h:219:15
	ldrb	r0, [r0]
	.loc	6 219 10                        @ lvgl/src/lv_misc/lv_mem.h:219:10
	ldr	r1, [sp, #4]
	.loc	6 219 13                        @ lvgl/src/lv_misc/lv_mem.h:219:13
	strb	r0, [r1]
	.loc	6 220 11 is_stmt 1              @ lvgl/src/lv_misc/lv_mem.h:220:11
	ldr	r0, [sp, #4]
	adds	r0, #1
	str	r0, [sp, #4]
	.loc	6 221 11                        @ lvgl/src/lv_misc/lv_mem.h:221:11
	ldr	r0, [sp]
	adds	r0, #1
	str	r0, [sp]
	.loc	6 222 12                        @ lvgl/src/lv_misc/lv_mem.h:222:12
	ldr	r0, [sp, #8]
	subs	r0, #1
	str	r0, [sp, #8]
.Ltmp51:
	.loc	6 218 5                         @ lvgl/src/lv_misc/lv_mem.h:218:5
	b	.LBB5_1
.LBB5_3:
	.loc	6 225 12                        @ lvgl/src/lv_misc/lv_mem.h:225:12
	ldr	r0, [sp, #16]
	.loc	6 225 5 is_stmt 0               @ lvgl/src/lv_misc/lv_mem.h:225:5
	add	sp, #20
	bx	lr
.Ltmp52:
.Lfunc_end5:
	.size	_lv_memcpy_small, .Lfunc_end5-_lv_memcpy_small
	.cfi_endproc
	.cantunwind
	.fnend
                                        @ -- End function
	.section	.text.lv_anim_start,"ax",%progbits
	.hidden	lv_anim_start                   @ -- Begin function lv_anim_start
	.globl	lv_anim_start
	.p2align	3
	.type	lv_anim_start,%function
	.code	16                              @ @lv_anim_start
	.thumb_func
lv_anim_start:
.Lfunc_begin6:
	.loc	4 89 0 is_stmt 1                @ lvgl/src/lv_misc/lv_anim.c:89:0
	.fnstart
	.cfi_startproc
@ %bb.0:
	.save	{r7, lr}
	push	{r7, lr}
	.cfi_def_cfa_offset 8
	.cfi_offset lr, -4
	.cfi_offset r7, -8
	.pad	#8
	sub	sp, #8
	.cfi_def_cfa_offset 16
	str	r0, [sp, #4]
.Ltmp53:
	.loc	4 92 8 prologue_end             @ lvgl/src/lv_misc/lv_anim.c:92:8
	ldr	r0, [sp, #4]
	.loc	4 92 11 is_stmt 0               @ lvgl/src/lv_misc/lv_anim.c:92:11
	ldr	r0, [r0, #4]
.Ltmp54:
	.loc	4 92 8                          @ lvgl/src/lv_misc/lv_anim.c:92:8
	cbz	r0, .LBB6_2
	b	.LBB6_1
.LBB6_1:
.Ltmp55:
	.loc	4 92 40                         @ lvgl/src/lv_misc/lv_anim.c:92:40
	ldr	r1, [sp, #4]
	.loc	4 92 43                         @ lvgl/src/lv_misc/lv_anim.c:92:43
	ldr	r0, [r1]
	.loc	4 92 51                         @ lvgl/src/lv_misc/lv_anim.c:92:51
	ldr	r1, [r1, #4]
	.loc	4 92 28                         @ lvgl/src/lv_misc/lv_anim.c:92:28
	bl	lv_anim_del
	b	.LBB6_2
.Ltmp56:
.LBB6_2:
	.loc	4 95 8 is_stmt 1                @ lvgl/src/lv_misc/lv_anim.c:95:8
	movw	r0, :lower16:_lv_anim_ll
	movt	r0, :upper16:_lv_anim_ll
	bl	_lv_ll_is_empty
.Ltmp57:
	.loc	4 95 8 is_stmt 0                @ lvgl/src/lv_misc/lv_anim.c:95:8
	cbz	r0, .LBB6_4
	b	.LBB6_3
.LBB6_3:
.Ltmp58:
	.loc	4 96 25 is_stmt 1               @ lvgl/src/lv_misc/lv_anim.c:96:25
	bl	lv_tick_get
	.loc	4 96 23 is_stmt 0               @ lvgl/src/lv_misc/lv_anim.c:96:23
	movw	r1, :lower16:last_task_run
	movt	r1, :upper16:last_task_run
	str	r0, [r1]
	.loc	4 97 5 is_stmt 1                @ lvgl/src/lv_misc/lv_anim.c:97:5
	b	.LBB6_4
.Ltmp59:
.LBB6_4:
	.loc	4 100 28                        @ lvgl/src/lv_misc/lv_anim.c:100:28
	movw	r0, :lower16:_lv_anim_ll
	movt	r0, :upper16:_lv_anim_ll
	bl	_lv_ll_ins_head
	.loc	4 100 17 is_stmt 0              @ lvgl/src/lv_misc/lv_anim.c:100:17
	str	r0, [sp]
	.loc	4 101 5 is_stmt 1               @ lvgl/src/lv_misc/lv_anim.c:101:5
	b	.LBB6_5
.LBB6_5:
.Ltmp60:
	.loc	4 101 5 is_stmt 0               @ lvgl/src/lv_misc/lv_anim.c:101:5
	ldr	r0, [sp]
	bl	lv_debug_check_null
.Ltmp61:
	.loc	4 101 5                         @ lvgl/src/lv_misc/lv_anim.c:101:5
	cbnz	r0, .LBB6_8
	b	.LBB6_6
.LBB6_6:
.Ltmp62:
	.loc	4 101 5                         @ lvgl/src/lv_misc/lv_anim.c:101:5
	ldr	r2, [sp]
	movw	r0, :lower16:.L.str
	movt	r0, :upper16:.L.str
	movs	r3, #0
	bl	lv_debug_log_error
	b	.LBB6_7
.LBB6_7:                                @ =>This Inner Loop Header: Depth=1
	b	.LBB6_7
.Ltmp63:
.LBB6_8:
	.loc	4 101 5                         @ lvgl/src/lv_misc/lv_anim.c:101:5
	b	.LBB6_9
.Ltmp64:
.LBB6_9:
	.loc	4 102 8 is_stmt 1               @ lvgl/src/lv_misc/lv_anim.c:102:8
	ldr	r0, [sp]
.Ltmp65:
	.loc	4 102 8 is_stmt 0               @ lvgl/src/lv_misc/lv_anim.c:102:8
	cbnz	r0, .LBB6_11
	b	.LBB6_10
.LBB6_10:
.Ltmp66:
	.loc	4 102 26                        @ lvgl/src/lv_misc/lv_anim.c:102:26
	b	.LBB6_17
.Ltmp67:
.LBB6_11:
	.loc	4 105 20 is_stmt 1              @ lvgl/src/lv_misc/lv_anim.c:105:20
	ldr	r1, [sp, #4]
	.loc	4 105 23 is_stmt 0              @ lvgl/src/lv_misc/lv_anim.c:105:23
	ldr	r0, [r1, #36]
	.loc	4 105 18                        @ lvgl/src/lv_misc/lv_anim.c:105:18
	str	r0, [r1, #60]
	.loc	4 106 20 is_stmt 1              @ lvgl/src/lv_misc/lv_anim.c:106:20
	movw	r0, :lower16:anim_run_round
	movt	r0, :upper16:anim_run_round
	ldrb	r0, [r0]
	and	r2, r0, #1
	.loc	4 106 5 is_stmt 0               @ lvgl/src/lv_misc/lv_anim.c:106:5
	ldr	r1, [sp, #4]
	.loc	4 106 18                        @ lvgl/src/lv_misc/lv_anim.c:106:18
	ldrb.w	r0, [r1, #58]
	and	r0, r0, #251
	orr.w	r0, r0, r2, lsl #2
	strb.w	r0, [r1, #58]
	.loc	4 107 16 is_stmt 1              @ lvgl/src/lv_misc/lv_anim.c:107:16
	ldr	r0, [sp]
	.loc	4 107 26 is_stmt 0              @ lvgl/src/lv_misc/lv_anim.c:107:26
	ldr	r1, [sp, #4]
	movs	r2, #64
	.loc	4 107 5                         @ lvgl/src/lv_misc/lv_anim.c:107:5
	bl	_lv_memcpy
.Ltmp68:
	.loc	4 110 8 is_stmt 1               @ lvgl/src/lv_misc/lv_anim.c:110:8
	ldr	r0, [sp]
	.loc	4 110 18 is_stmt 0              @ lvgl/src/lv_misc/lv_anim.c:110:18
	ldrb.w	r0, [r0, #58]
.Ltmp69:
	.loc	4 110 8                         @ lvgl/src/lv_misc/lv_anim.c:110:8
	lsls	r0, r0, #31
	cbz	r0, .LBB6_16
	b	.LBB6_12
.LBB6_12:
.Ltmp70:
	.loc	4 111 12 is_stmt 1              @ lvgl/src/lv_misc/lv_anim.c:111:12
	ldr	r0, [sp]
	.loc	4 111 22 is_stmt 0              @ lvgl/src/lv_misc/lv_anim.c:111:22
	ldr	r0, [r0, #4]
	.loc	4 111 30                        @ lvgl/src/lv_misc/lv_anim.c:111:30
	cbz	r0, .LBB6_15
	b	.LBB6_13
.LBB6_13:
	.loc	4 111 33                        @ lvgl/src/lv_misc/lv_anim.c:111:33
	ldr	r0, [sp]
	.loc	4 111 43                        @ lvgl/src/lv_misc/lv_anim.c:111:43
	ldr	r0, [r0]
.Ltmp71:
	.loc	4 111 12                        @ lvgl/src/lv_misc/lv_anim.c:111:12
	cbz	r0, .LBB6_15
	b	.LBB6_14
.LBB6_14:
.Ltmp72:
	.loc	4 111 48                        @ lvgl/src/lv_misc/lv_anim.c:111:48
	ldr	r1, [sp]
	.loc	4 111 76                        @ lvgl/src/lv_misc/lv_anim.c:111:76
	ldr	r0, [r1]
	.loc	4 111 58                        @ lvgl/src/lv_misc/lv_anim.c:111:58
	ldr	r2, [r1, #4]
	.loc	4 111 91                        @ lvgl/src/lv_misc/lv_anim.c:111:91
	ldrsh.w	r1, [r1, #24]
	.loc	4 111 48                        @ lvgl/src/lv_misc/lv_anim.c:111:48
	blx	r2
	b	.LBB6_15
.Ltmp73:
.LBB6_15:
	.loc	4 112 5 is_stmt 1               @ lvgl/src/lv_misc/lv_anim.c:112:5
	b	.LBB6_16
.Ltmp74:
.LBB6_16:
	.loc	4 116 5                         @ lvgl/src/lv_misc/lv_anim.c:116:5
	bl	anim_mark_list_change
	.loc	4 119 1                         @ lvgl/src/lv_misc/lv_anim.c:119:1
	b	.LBB6_17
.LBB6_17:
	add	sp, #8
	pop	{r7, pc}
.Ltmp75:
.Lfunc_end6:
	.size	lv_anim_start, .Lfunc_end6-lv_anim_start
	.cfi_endproc
	.cantunwind
	.fnend
                                        @ -- End function
	.section	.text.lv_anim_del,"ax",%progbits
	.hidden	lv_anim_del                     @ -- Begin function lv_anim_del
	.globl	lv_anim_del
	.p2align	3
	.type	lv_anim_del,%function
	.code	16                              @ @lv_anim_del
	.thumb_func
lv_anim_del:
.Lfunc_begin7:
	.loc	4 129 0                         @ lvgl/src/lv_misc/lv_anim.c:129:0
	.fnstart
	.cfi_startproc
@ %bb.0:
	.save	{r7, lr}
	push	{r7, lr}
	.cfi_def_cfa_offset 8
	.cfi_offset lr, -4
	.cfi_offset r7, -8
	.pad	#24
	sub	sp, #24
	.cfi_def_cfa_offset 32
	str	r0, [sp, #20]
	str	r1, [sp, #16]
	movs	r0, #0
.Ltmp76:
	.loc	4 132 10 prologue_end           @ lvgl/src/lv_misc/lv_anim.c:132:10
	strb.w	r0, [sp, #7]
	.loc	4 133 16                        @ lvgl/src/lv_misc/lv_anim.c:133:16
	movw	r0, :lower16:_lv_anim_ll
	movt	r0, :upper16:_lv_anim_ll
	bl	_lv_ll_get_head
	.loc	4 133 14 is_stmt 0              @ lvgl/src/lv_misc/lv_anim.c:133:14
	str	r0, [sp, #12]
	.loc	4 134 5 is_stmt 1               @ lvgl/src/lv_misc/lv_anim.c:134:5
	b	.LBB7_1
.LBB7_1:                                @ =>This Inner Loop Header: Depth=1
	.loc	4 134 11 is_stmt 0              @ lvgl/src/lv_misc/lv_anim.c:134:11
	ldr	r0, [sp, #12]
	.loc	4 134 5                         @ lvgl/src/lv_misc/lv_anim.c:134:5
	cbz	r0, .LBB7_7
	b	.LBB7_2
.LBB7_2:                                @   in Loop: Header=BB7_1 Depth=1
.Ltmp77:
	.loc	4 136 60 is_stmt 1              @ lvgl/src/lv_misc/lv_anim.c:136:60
	ldr	r1, [sp, #12]
	.loc	4 136 18 is_stmt 0              @ lvgl/src/lv_misc/lv_anim.c:136:18
	movw	r0, :lower16:_lv_anim_ll
	movt	r0, :upper16:_lv_anim_ll
	bl	_lv_ll_get_next
	.loc	4 136 16                        @ lvgl/src/lv_misc/lv_anim.c:136:16
	str	r0, [sp, #8]
.Ltmp78:
	.loc	4 138 12 is_stmt 1              @ lvgl/src/lv_misc/lv_anim.c:138:12
	ldr	r0, [sp, #12]
	.loc	4 138 15 is_stmt 0              @ lvgl/src/lv_misc/lv_anim.c:138:15
	ldr	r0, [r0]
	.loc	4 138 22                        @ lvgl/src/lv_misc/lv_anim.c:138:22
	ldr	r1, [sp, #20]
	.loc	4 138 26                        @ lvgl/src/lv_misc/lv_anim.c:138:26
	cmp	r0, r1
	bne	.LBB7_6
	b	.LBB7_3
.LBB7_3:                                @   in Loop: Header=BB7_1 Depth=1
	.loc	4 138 30                        @ lvgl/src/lv_misc/lv_anim.c:138:30
	ldr	r0, [sp, #12]
	.loc	4 138 33                        @ lvgl/src/lv_misc/lv_anim.c:138:33
	ldr	r0, [r0, #4]
	.loc	4 138 44                        @ lvgl/src/lv_misc/lv_anim.c:138:44
	ldr	r1, [sp, #16]
	.loc	4 138 52                        @ lvgl/src/lv_misc/lv_anim.c:138:52
	cmp	r0, r1
	beq	.LBB7_5
	b	.LBB7_4
.LBB7_4:                                @   in Loop: Header=BB7_1 Depth=1
	.loc	4 138 55                        @ lvgl/src/lv_misc/lv_anim.c:138:55
	ldr	r0, [sp, #16]
.Ltmp79:
	.loc	4 138 12                        @ lvgl/src/lv_misc/lv_anim.c:138:12
	cbnz	r0, .LBB7_6
	b	.LBB7_5
.LBB7_5:                                @   in Loop: Header=BB7_1 Depth=1
.Ltmp80:
	.loc	4 139 53 is_stmt 1              @ lvgl/src/lv_misc/lv_anim.c:139:53
	ldr	r1, [sp, #12]
	.loc	4 139 13 is_stmt 0              @ lvgl/src/lv_misc/lv_anim.c:139:13
	movw	r0, :lower16:_lv_anim_ll
	movt	r0, :upper16:_lv_anim_ll
	bl	_lv_ll_remove
	.loc	4 140 25 is_stmt 1              @ lvgl/src/lv_misc/lv_anim.c:140:25
	ldr	r0, [sp, #12]
	.loc	4 140 13 is_stmt 0              @ lvgl/src/lv_misc/lv_anim.c:140:13
	bl	lv_mem_free
	.loc	4 141 13 is_stmt 1              @ lvgl/src/lv_misc/lv_anim.c:141:13
	bl	anim_mark_list_change
	movs	r0, #1
	.loc	4 143 17                        @ lvgl/src/lv_misc/lv_anim.c:143:17
	strb.w	r0, [sp, #7]
	.loc	4 144 9                         @ lvgl/src/lv_misc/lv_anim.c:144:9
	b	.LBB7_6
.Ltmp81:
.LBB7_6:                                @   in Loop: Header=BB7_1 Depth=1
	.loc	4 146 13                        @ lvgl/src/lv_misc/lv_anim.c:146:13
	ldr	r0, [sp, #8]
	.loc	4 146 11 is_stmt 0              @ lvgl/src/lv_misc/lv_anim.c:146:11
	str	r0, [sp, #12]
.Ltmp82:
	.loc	4 134 5 is_stmt 1               @ lvgl/src/lv_misc/lv_anim.c:134:5
	b	.LBB7_1
.LBB7_7:
	.loc	4 149 5                         @ lvgl/src/lv_misc/lv_anim.c:149:5
	ldrb.w	r0, [sp, #7]
	and	r0, r0, #1
	add	sp, #24
	pop	{r7, pc}
.Ltmp83:
.Lfunc_end7:
	.size	lv_anim_del, .Lfunc_end7-lv_anim_del
	.cfi_endproc
	.cantunwind
	.fnend
                                        @ -- End function
	.section	.text.lv_anim_get,"ax",%progbits
	.hidden	lv_anim_get                     @ -- Begin function lv_anim_get
	.globl	lv_anim_get
	.p2align	3
	.type	lv_anim_get,%function
	.code	16                              @ @lv_anim_get
	.thumb_func
lv_anim_get:
.Lfunc_begin8:
	.loc	4 160 0                         @ lvgl/src/lv_misc/lv_anim.c:160:0
	.fnstart
	.cfi_startproc
@ %bb.0:
	.save	{r7, lr}
	push	{r7, lr}
	.cfi_def_cfa_offset 8
	.cfi_offset lr, -4
	.cfi_offset r7, -8
	.pad	#16
	sub	sp, #16
	.cfi_def_cfa_offset 24
	str	r0, [sp, #8]
	str	r1, [sp, #4]
.Ltmp84:
	.loc	4 162 5 prologue_end            @ lvgl/src/lv_misc/lv_anim.c:162:5
	movw	r0, :lower16:_lv_anim_ll
	movt	r0, :upper16:_lv_anim_ll
	bl	_lv_ll_get_head
	str	r0, [sp]
	b	.LBB8_1
.LBB8_1:                                @ =>This Inner Loop Header: Depth=1
.Ltmp85:
	.loc	4 162 5 is_stmt 0               @ lvgl/src/lv_misc/lv_anim.c:162:5
	ldr	r0, [sp]
.Ltmp86:
	.loc	4 162 5                         @ lvgl/src/lv_misc/lv_anim.c:162:5
	cbz	r0, .LBB8_7
	b	.LBB8_2
.LBB8_2:                                @   in Loop: Header=BB8_1 Depth=1
.Ltmp87:
	.loc	4 163 12 is_stmt 1              @ lvgl/src/lv_misc/lv_anim.c:163:12
	ldr	r0, [sp]
	.loc	4 163 15 is_stmt 0              @ lvgl/src/lv_misc/lv_anim.c:163:15
	ldr	r0, [r0]
	.loc	4 163 22                        @ lvgl/src/lv_misc/lv_anim.c:163:22
	ldr	r1, [sp, #8]
	.loc	4 163 26                        @ lvgl/src/lv_misc/lv_anim.c:163:26
	cmp	r0, r1
	bne	.LBB8_5
	b	.LBB8_3
.LBB8_3:                                @   in Loop: Header=BB8_1 Depth=1
	.loc	4 163 29                        @ lvgl/src/lv_misc/lv_anim.c:163:29
	ldr	r0, [sp]
	.loc	4 163 32                        @ lvgl/src/lv_misc/lv_anim.c:163:32
	ldr	r0, [r0, #4]
	.loc	4 163 43                        @ lvgl/src/lv_misc/lv_anim.c:163:43
	ldr	r1, [sp, #4]
.Ltmp88:
	.loc	4 163 12                        @ lvgl/src/lv_misc/lv_anim.c:163:12
	cmp	r0, r1
	bne	.LBB8_5
	b	.LBB8_4
.LBB8_4:
.Ltmp89:
	.loc	4 164 20 is_stmt 1              @ lvgl/src/lv_misc/lv_anim.c:164:20
	ldr	r0, [sp]
	.loc	4 164 13 is_stmt 0              @ lvgl/src/lv_misc/lv_anim.c:164:13
	str	r0, [sp, #12]
	b	.LBB8_8
.Ltmp90:
.LBB8_5:                                @   in Loop: Header=BB8_1 Depth=1
	.loc	4 166 5 is_stmt 1               @ lvgl/src/lv_misc/lv_anim.c:166:5
	b	.LBB8_6
.Ltmp91:
.LBB8_6:                                @   in Loop: Header=BB8_1 Depth=1
	.loc	4 162 5                         @ lvgl/src/lv_misc/lv_anim.c:162:5
	ldr	r1, [sp]
	movw	r0, :lower16:_lv_anim_ll
	movt	r0, :upper16:_lv_anim_ll
	bl	_lv_ll_get_next
	str	r0, [sp]
	b	.LBB8_1
.Ltmp92:
.LBB8_7:
	.loc	4 0 5 is_stmt 0                 @ lvgl/src/lv_misc/lv_anim.c:0:5
	movs	r0, #0
	.loc	4 168 5 is_stmt 1               @ lvgl/src/lv_misc/lv_anim.c:168:5
	str	r0, [sp, #12]
	b	.LBB8_8
.LBB8_8:
	.loc	4 169 1                         @ lvgl/src/lv_misc/lv_anim.c:169:1
	ldr	r0, [sp, #12]
	add	sp, #16
	pop	{r7, pc}
.Ltmp93:
.Lfunc_end8:
	.size	lv_anim_get, .Lfunc_end8-lv_anim_get
	.cfi_endproc
	.cantunwind
	.fnend
                                        @ -- End function
	.section	.text.lv_anim_count_running,"ax",%progbits
	.hidden	lv_anim_count_running           @ -- Begin function lv_anim_count_running
	.globl	lv_anim_count_running
	.p2align	3
	.type	lv_anim_count_running,%function
	.code	16                              @ @lv_anim_count_running
	.thumb_func
lv_anim_count_running:
.Lfunc_begin9:
	.loc	4 176 0                         @ lvgl/src/lv_misc/lv_anim.c:176:0
	.fnstart
	.cfi_startproc
@ %bb.0:
	.save	{r7, lr}
	push	{r7, lr}
	.cfi_def_cfa_offset 8
	.cfi_offset lr, -4
	.cfi_offset r7, -8
	.pad	#8
	sub	sp, #8
	.cfi_def_cfa_offset 16
	movs	r0, #0
.Ltmp94:
	.loc	4 177 14 prologue_end           @ lvgl/src/lv_misc/lv_anim.c:177:14
	strh.w	r0, [sp, #6]
.Ltmp95:
	.loc	4 179 5                         @ lvgl/src/lv_misc/lv_anim.c:179:5
	movw	r0, :lower16:_lv_anim_ll
	movt	r0, :upper16:_lv_anim_ll
	bl	_lv_ll_get_head
	str	r0, [sp]
	b	.LBB9_1
.LBB9_1:                                @ =>This Inner Loop Header: Depth=1
.Ltmp96:
	.loc	4 179 5 is_stmt 0               @ lvgl/src/lv_misc/lv_anim.c:179:5
	ldr	r0, [sp]
.Ltmp97:
	.loc	4 179 5                         @ lvgl/src/lv_misc/lv_anim.c:179:5
	cbz	r0, .LBB9_4
	b	.LBB9_2
.LBB9_2:                                @   in Loop: Header=BB9_1 Depth=1
.Ltmp98:
	.loc	4 179 48                        @ lvgl/src/lv_misc/lv_anim.c:179:48
	ldrh.w	r0, [sp, #6]
	adds	r0, #1
	strh.w	r0, [sp, #6]
	.loc	4 179 45                        @ lvgl/src/lv_misc/lv_anim.c:179:45
	b	.LBB9_3
.LBB9_3:                                @   in Loop: Header=BB9_1 Depth=1
	.loc	4 179 5                         @ lvgl/src/lv_misc/lv_anim.c:179:5
	ldr	r1, [sp]
	movw	r0, :lower16:_lv_anim_ll
	movt	r0, :upper16:_lv_anim_ll
	bl	_lv_ll_get_next
	str	r0, [sp]
	b	.LBB9_1
.Ltmp99:
.LBB9_4:
	.loc	4 181 12 is_stmt 1              @ lvgl/src/lv_misc/lv_anim.c:181:12
	ldrh.w	r0, [sp, #6]
	.loc	4 181 5 is_stmt 0               @ lvgl/src/lv_misc/lv_anim.c:181:5
	add	sp, #8
	pop	{r7, pc}
.Ltmp100:
.Lfunc_end9:
	.size	lv_anim_count_running, .Lfunc_end9-lv_anim_count_running
	.cfi_endproc
	.cantunwind
	.fnend
                                        @ -- End function
	.section	.text.lv_anim_speed_to_time,"ax",%progbits
	.hidden	lv_anim_speed_to_time           @ -- Begin function lv_anim_speed_to_time
	.globl	lv_anim_speed_to_time
	.p2align	3
	.type	lv_anim_speed_to_time,%function
	.code	16                              @ @lv_anim_speed_to_time
	.thumb_func
lv_anim_speed_to_time:
.Lfunc_begin10:
	.loc	4 192 0 is_stmt 1               @ lvgl/src/lv_misc/lv_anim.c:192:0
	.fnstart
	.cfi_startproc
@ %bb.0:
	.pad	#20
	sub	sp, #20
	.cfi_def_cfa_offset 20
                                        @ kill: def $r3 killed $r2
                                        @ kill: def $r3 killed $r1
	str	r0, [sp, #16]
	strh.w	r1, [sp, #14]
	strh.w	r2, [sp, #12]
.Ltmp101:
	.loc	4 193 21 prologue_end           @ lvgl/src/lv_misc/lv_anim.c:193:21
	ldrsh.w	r0, [sp, #14]
	ldrsh.w	r1, [sp, #12]
	subs	r0, r0, r1
	cmp	r0, #1
	blt	.LBB10_2
	b	.LBB10_1
.LBB10_1:
	ldrsh.w	r0, [sp, #14]
	ldrsh.w	r1, [sp, #12]
	subs	r0, r0, r1
	str	r0, [sp]                        @ 4-byte Spill
	b	.LBB10_3
.LBB10_2:
	ldrsh.w	r1, [sp, #14]
	ldrsh.w	r0, [sp, #12]
	subs	r0, r0, r1
	str	r0, [sp]                        @ 4-byte Spill
	b	.LBB10_3
.LBB10_3:
	ldr	r0, [sp]                        @ 4-byte Reload
	.loc	4 193 14 is_stmt 0              @ lvgl/src/lv_misc/lv_anim.c:193:14
	str	r0, [sp, #8]
	.loc	4 194 22 is_stmt 1              @ lvgl/src/lv_misc/lv_anim.c:194:22
	ldr	r0, [sp, #8]
	mov.w	r1, #1000
	.loc	4 194 24 is_stmt 0              @ lvgl/src/lv_misc/lv_anim.c:194:24
	muls	r0, r1, r0
	.loc	4 194 34                        @ lvgl/src/lv_misc/lv_anim.c:194:34
	ldr	r1, [sp, #16]
	.loc	4 194 32                        @ lvgl/src/lv_misc/lv_anim.c:194:32
	udiv	r0, r0, r1
	.loc	4 194 14                        @ lvgl/src/lv_misc/lv_anim.c:194:14
	str	r0, [sp, #4]
.Ltmp102:
	.loc	4 196 8 is_stmt 1               @ lvgl/src/lv_misc/lv_anim.c:196:8
	ldr	r0, [sp, #4]
.Ltmp103:
	.loc	4 196 8 is_stmt 0               @ lvgl/src/lv_misc/lv_anim.c:196:8
	cbnz	r0, .LBB10_5
	b	.LBB10_4
.LBB10_4:
.Ltmp104:
	.loc	4 197 13 is_stmt 1              @ lvgl/src/lv_misc/lv_anim.c:197:13
	ldr	r0, [sp, #4]
	adds	r0, #1
	str	r0, [sp, #4]
	.loc	4 198 5                         @ lvgl/src/lv_misc/lv_anim.c:198:5
	b	.LBB10_5
.Ltmp105:
.LBB10_5:
	.loc	4 200 12                        @ lvgl/src/lv_misc/lv_anim.c:200:12
	ldr	r0, [sp, #4]
	.loc	4 200 5 is_stmt 0               @ lvgl/src/lv_misc/lv_anim.c:200:5
	add	sp, #20
	bx	lr
.Ltmp106:
.Lfunc_end10:
	.size	lv_anim_speed_to_time, .Lfunc_end10-lv_anim_speed_to_time
	.cfi_endproc
	.cantunwind
	.fnend
                                        @ -- End function
	.section	.text.lv_anim_refr_now,"ax",%progbits
	.hidden	lv_anim_refr_now                @ -- Begin function lv_anim_refr_now
	.globl	lv_anim_refr_now
	.p2align	3
	.type	lv_anim_refr_now,%function
	.code	16                              @ @lv_anim_refr_now
	.thumb_func
lv_anim_refr_now:
.Lfunc_begin11:
	.loc	4 210 0 is_stmt 1               @ lvgl/src/lv_misc/lv_anim.c:210:0
	.fnstart
	.cfi_startproc
@ %bb.0:
	.save	{r7, lr}
	push	{r7, lr}
	.cfi_def_cfa_offset 8
	.cfi_offset lr, -4
	.cfi_offset r7, -8
	movs	r0, #0
.Ltmp107:
	.loc	4 211 5 prologue_end            @ lvgl/src/lv_misc/lv_anim.c:211:5
	bl	anim_task
	.loc	4 212 1                         @ lvgl/src/lv_misc/lv_anim.c:212:1
	pop	{r7, pc}
.Ltmp108:
.Lfunc_end11:
	.size	lv_anim_refr_now, .Lfunc_end11-lv_anim_refr_now
	.cfi_endproc
	.cantunwind
	.fnend
                                        @ -- End function
	.section	.text.lv_anim_path_ease_in,"ax",%progbits
	.hidden	lv_anim_path_ease_in            @ -- Begin function lv_anim_path_ease_in
	.globl	lv_anim_path_ease_in
	.p2align	3
	.type	lv_anim_path_ease_in,%function
	.code	16                              @ @lv_anim_path_ease_in
	.thumb_func
lv_anim_path_ease_in:
.Lfunc_begin12:
	.loc	4 242 0                         @ lvgl/src/lv_misc/lv_anim.c:242:0
	.fnstart
	.cfi_startproc
@ %bb.0:
	.save	{r7, lr}
	push	{r7, lr}
	.cfi_def_cfa_offset 8
	.cfi_offset lr, -4
	.cfi_offset r7, -8
	.pad	#32
	sub	sp, #32
	.cfi_def_cfa_offset 40
	str	r0, [sp, #28]
	str	r1, [sp, #24]
.Ltmp109:
	.loc	4 247 26 prologue_end           @ lvgl/src/lv_misc/lv_anim.c:247:26
	ldr	r0, [sp, #24]
	.loc	4 247 45 is_stmt 0              @ lvgl/src/lv_misc/lv_anim.c:247:45
	ldr	r2, [r0, #36]
	.loc	4 247 29                        @ lvgl/src/lv_misc/lv_anim.c:247:29
	ldr	r0, [r0, #40]
	.loc	4 247 18                        @ lvgl/src/lv_misc/lv_anim.c:247:18
	mov	r3, sp
	mov.w	r1, #1024
	str	r1, [sp, #4]                    @ 4-byte Spill
	str	r1, [r3]
	movs	r3, #0
	str	r3, [sp, #8]                    @ 4-byte Spill
	mov	r1, r3
	bl	_lv_map
	ldr	r2, [sp, #4]                    @ 4-byte Reload
	ldr	r1, [sp, #8]                    @ 4-byte Reload
	.loc	4 247 14                        @ lvgl/src/lv_misc/lv_anim.c:247:14
	str	r0, [sp, #20]
	.loc	4 248 32 is_stmt 1              @ lvgl/src/lv_misc/lv_anim.c:248:32
	ldr	r0, [sp, #20]
	.loc	4 248 20 is_stmt 0              @ lvgl/src/lv_misc/lv_anim.c:248:20
	mov	r3, sp
	str	r2, [r3]
	movs	r3, #1
	mov	r2, r3
	bl	_lv_bezier3
	.loc	4 248 13                        @ lvgl/src/lv_misc/lv_anim.c:248:13
	str	r0, [sp, #16]
	.loc	4 251 17 is_stmt 1              @ lvgl/src/lv_misc/lv_anim.c:251:17
	ldr	r0, [sp, #16]
	.loc	4 251 25 is_stmt 0              @ lvgl/src/lv_misc/lv_anim.c:251:25
	ldr	r1, [sp, #24]
	.loc	4 251 37                        @ lvgl/src/lv_misc/lv_anim.c:251:37
	ldr	r2, [r1, #24]
	.loc	4 251 28                        @ lvgl/src/lv_misc/lv_anim.c:251:28
	ldr	r1, [r1, #32]
	.loc	4 251 32                        @ lvgl/src/lv_misc/lv_anim.c:251:32
	subs	r1, r1, r2
	.loc	4 251 22                        @ lvgl/src/lv_misc/lv_anim.c:251:22
	muls	r0, r1, r0
	.loc	4 251 15                        @ lvgl/src/lv_misc/lv_anim.c:251:15
	str	r0, [sp, #12]
	.loc	4 252 17 is_stmt 1              @ lvgl/src/lv_misc/lv_anim.c:252:17
	ldr	r0, [sp, #12]
	.loc	4 252 27 is_stmt 0              @ lvgl/src/lv_misc/lv_anim.c:252:27
	asrs	r0, r0, #10
	.loc	4 252 15                        @ lvgl/src/lv_misc/lv_anim.c:252:15
	str	r0, [sp, #12]
	.loc	4 253 18 is_stmt 1              @ lvgl/src/lv_misc/lv_anim.c:253:18
	ldr	r0, [sp, #24]
	.loc	4 253 21 is_stmt 0              @ lvgl/src/lv_misc/lv_anim.c:253:21
	ldr	r1, [r0, #24]
	.loc	4 253 15                        @ lvgl/src/lv_misc/lv_anim.c:253:15
	ldr	r0, [sp, #12]
	add	r0, r1
	str	r0, [sp, #12]
	.loc	4 255 12 is_stmt 1              @ lvgl/src/lv_misc/lv_anim.c:255:12
	ldrsh.w	r0, [sp, #12]
	.loc	4 255 5 is_stmt 0               @ lvgl/src/lv_misc/lv_anim.c:255:5
	add	sp, #32
	pop	{r7, pc}
.Ltmp110:
.Lfunc_end12:
	.size	lv_anim_path_ease_in, .Lfunc_end12-lv_anim_path_ease_in
	.cfi_endproc
	.cantunwind
	.fnend
                                        @ -- End function
	.section	.text.lv_anim_path_ease_out,"ax",%progbits
	.hidden	lv_anim_path_ease_out           @ -- Begin function lv_anim_path_ease_out
	.globl	lv_anim_path_ease_out
	.p2align	3
	.type	lv_anim_path_ease_out,%function
	.code	16                              @ @lv_anim_path_ease_out
	.thumb_func
lv_anim_path_ease_out:
.Lfunc_begin13:
	.loc	4 264 0 is_stmt 1               @ lvgl/src/lv_misc/lv_anim.c:264:0
	.fnstart
	.cfi_startproc
@ %bb.0:
	.save	{r7, lr}
	push	{r7, lr}
	.cfi_def_cfa_offset 8
	.cfi_offset lr, -4
	.cfi_offset r7, -8
	.pad	#32
	sub	sp, #32
	.cfi_def_cfa_offset 40
	str	r0, [sp, #28]
	str	r1, [sp, #24]
.Ltmp111:
	.loc	4 269 26 prologue_end           @ lvgl/src/lv_misc/lv_anim.c:269:26
	ldr	r0, [sp, #24]
	.loc	4 269 45 is_stmt 0              @ lvgl/src/lv_misc/lv_anim.c:269:45
	ldr	r2, [r0, #36]
	.loc	4 269 29                        @ lvgl/src/lv_misc/lv_anim.c:269:29
	ldr	r0, [r0, #40]
	.loc	4 269 18                        @ lvgl/src/lv_misc/lv_anim.c:269:18
	mov	r3, sp
	mov.w	r1, #1024
	str	r1, [sp, #4]                    @ 4-byte Spill
	str	r1, [r3]
	movs	r3, #0
	str	r3, [sp, #8]                    @ 4-byte Spill
	mov	r1, r3
	bl	_lv_map
	ldr	r2, [sp, #4]                    @ 4-byte Reload
	ldr	r1, [sp, #8]                    @ 4-byte Reload
	.loc	4 269 14                        @ lvgl/src/lv_misc/lv_anim.c:269:14
	str	r0, [sp, #20]
	.loc	4 270 32 is_stmt 1              @ lvgl/src/lv_misc/lv_anim.c:270:32
	ldr	r0, [sp, #20]
	.loc	4 270 20 is_stmt 0              @ lvgl/src/lv_misc/lv_anim.c:270:20
	mov	r3, sp
	str	r2, [r3]
	movw	r3, #1023
	mov	r2, r3
	bl	_lv_bezier3
	.loc	4 270 13                        @ lvgl/src/lv_misc/lv_anim.c:270:13
	str	r0, [sp, #16]
	.loc	4 273 17 is_stmt 1              @ lvgl/src/lv_misc/lv_anim.c:273:17
	ldr	r0, [sp, #16]
	.loc	4 273 25 is_stmt 0              @ lvgl/src/lv_misc/lv_anim.c:273:25
	ldr	r1, [sp, #24]
	.loc	4 273 37                        @ lvgl/src/lv_misc/lv_anim.c:273:37
	ldr	r2, [r1, #24]
	.loc	4 273 28                        @ lvgl/src/lv_misc/lv_anim.c:273:28
	ldr	r1, [r1, #32]
	.loc	4 273 32                        @ lvgl/src/lv_misc/lv_anim.c:273:32
	subs	r1, r1, r2
	.loc	4 273 22                        @ lvgl/src/lv_misc/lv_anim.c:273:22
	muls	r0, r1, r0
	.loc	4 273 15                        @ lvgl/src/lv_misc/lv_anim.c:273:15
	str	r0, [sp, #12]
	.loc	4 274 17 is_stmt 1              @ lvgl/src/lv_misc/lv_anim.c:274:17
	ldr	r0, [sp, #12]
	.loc	4 274 27 is_stmt 0              @ lvgl/src/lv_misc/lv_anim.c:274:27
	asrs	r0, r0, #10
	.loc	4 274 15                        @ lvgl/src/lv_misc/lv_anim.c:274:15
	str	r0, [sp, #12]
	.loc	4 275 18 is_stmt 1              @ lvgl/src/lv_misc/lv_anim.c:275:18
	ldr	r0, [sp, #24]
	.loc	4 275 21 is_stmt 0              @ lvgl/src/lv_misc/lv_anim.c:275:21
	ldr	r1, [r0, #24]
	.loc	4 275 15                        @ lvgl/src/lv_misc/lv_anim.c:275:15
	ldr	r0, [sp, #12]
	add	r0, r1
	str	r0, [sp, #12]
	.loc	4 277 12 is_stmt 1              @ lvgl/src/lv_misc/lv_anim.c:277:12
	ldrsh.w	r0, [sp, #12]
	.loc	4 277 5 is_stmt 0               @ lvgl/src/lv_misc/lv_anim.c:277:5
	add	sp, #32
	pop	{r7, pc}
.Ltmp112:
.Lfunc_end13:
	.size	lv_anim_path_ease_out, .Lfunc_end13-lv_anim_path_ease_out
	.cfi_endproc
	.cantunwind
	.fnend
                                        @ -- End function
	.section	.text.lv_anim_path_ease_in_out,"ax",%progbits
	.hidden	lv_anim_path_ease_in_out        @ -- Begin function lv_anim_path_ease_in_out
	.globl	lv_anim_path_ease_in_out
	.p2align	3
	.type	lv_anim_path_ease_in_out,%function
	.code	16                              @ @lv_anim_path_ease_in_out
	.thumb_func
lv_anim_path_ease_in_out:
.Lfunc_begin14:
	.loc	4 286 0 is_stmt 1               @ lvgl/src/lv_misc/lv_anim.c:286:0
	.fnstart
	.cfi_startproc
@ %bb.0:
	.save	{r7, lr}
	push	{r7, lr}
	.cfi_def_cfa_offset 8
	.cfi_offset lr, -4
	.cfi_offset r7, -8
	.pad	#32
	sub	sp, #32
	.cfi_def_cfa_offset 40
	str	r0, [sp, #28]
	str	r1, [sp, #24]
.Ltmp113:
	.loc	4 291 26 prologue_end           @ lvgl/src/lv_misc/lv_anim.c:291:26
	ldr	r0, [sp, #24]
	.loc	4 291 45 is_stmt 0              @ lvgl/src/lv_misc/lv_anim.c:291:45
	ldr	r2, [r0, #36]
	.loc	4 291 29                        @ lvgl/src/lv_misc/lv_anim.c:291:29
	ldr	r0, [r0, #40]
	.loc	4 291 18                        @ lvgl/src/lv_misc/lv_anim.c:291:18
	mov	r3, sp
	mov.w	r1, #1024
	str	r1, [sp, #4]                    @ 4-byte Spill
	str	r1, [r3]
	movs	r3, #0
	str	r3, [sp, #8]                    @ 4-byte Spill
	mov	r1, r3
	bl	_lv_map
	ldr	r2, [sp, #4]                    @ 4-byte Reload
	ldr	r1, [sp, #8]                    @ 4-byte Reload
	.loc	4 291 14                        @ lvgl/src/lv_misc/lv_anim.c:291:14
	str	r0, [sp, #20]
	.loc	4 292 32 is_stmt 1              @ lvgl/src/lv_misc/lv_anim.c:292:32
	ldr	r0, [sp, #20]
	.loc	4 292 20 is_stmt 0              @ lvgl/src/lv_misc/lv_anim.c:292:20
	mov	r3, sp
	str	r2, [r3]
	movs	r2, #100
	mov.w	r3, #924
	bl	_lv_bezier3
	.loc	4 292 13                        @ lvgl/src/lv_misc/lv_anim.c:292:13
	str	r0, [sp, #16]
	.loc	4 295 17 is_stmt 1              @ lvgl/src/lv_misc/lv_anim.c:295:17
	ldr	r0, [sp, #16]
	.loc	4 295 25 is_stmt 0              @ lvgl/src/lv_misc/lv_anim.c:295:25
	ldr	r1, [sp, #24]
	.loc	4 295 37                        @ lvgl/src/lv_misc/lv_anim.c:295:37
	ldr	r2, [r1, #24]
	.loc	4 295 28                        @ lvgl/src/lv_misc/lv_anim.c:295:28
	ldr	r1, [r1, #32]
	.loc	4 295 32                        @ lvgl/src/lv_misc/lv_anim.c:295:32
	subs	r1, r1, r2
	.loc	4 295 22                        @ lvgl/src/lv_misc/lv_anim.c:295:22
	muls	r0, r1, r0
	.loc	4 295 15                        @ lvgl/src/lv_misc/lv_anim.c:295:15
	str	r0, [sp, #12]
	.loc	4 296 17 is_stmt 1              @ lvgl/src/lv_misc/lv_anim.c:296:17
	ldr	r0, [sp, #12]
	.loc	4 296 27 is_stmt 0              @ lvgl/src/lv_misc/lv_anim.c:296:27
	asrs	r0, r0, #10
	.loc	4 296 15                        @ lvgl/src/lv_misc/lv_anim.c:296:15
	str	r0, [sp, #12]
	.loc	4 297 18 is_stmt 1              @ lvgl/src/lv_misc/lv_anim.c:297:18
	ldr	r0, [sp, #24]
	.loc	4 297 21 is_stmt 0              @ lvgl/src/lv_misc/lv_anim.c:297:21
	ldr	r1, [r0, #24]
	.loc	4 297 15                        @ lvgl/src/lv_misc/lv_anim.c:297:15
	ldr	r0, [sp, #12]
	add	r0, r1
	str	r0, [sp, #12]
	.loc	4 299 12 is_stmt 1              @ lvgl/src/lv_misc/lv_anim.c:299:12
	ldrsh.w	r0, [sp, #12]
	.loc	4 299 5 is_stmt 0               @ lvgl/src/lv_misc/lv_anim.c:299:5
	add	sp, #32
	pop	{r7, pc}
.Ltmp114:
.Lfunc_end14:
	.size	lv_anim_path_ease_in_out, .Lfunc_end14-lv_anim_path_ease_in_out
	.cfi_endproc
	.cantunwind
	.fnend
                                        @ -- End function
	.section	.text.lv_anim_path_overshoot,"ax",%progbits
	.hidden	lv_anim_path_overshoot          @ -- Begin function lv_anim_path_overshoot
	.globl	lv_anim_path_overshoot
	.p2align	3
	.type	lv_anim_path_overshoot,%function
	.code	16                              @ @lv_anim_path_overshoot
	.thumb_func
lv_anim_path_overshoot:
.Lfunc_begin15:
	.loc	4 308 0 is_stmt 1               @ lvgl/src/lv_misc/lv_anim.c:308:0
	.fnstart
	.cfi_startproc
@ %bb.0:
	.save	{r7, lr}
	push	{r7, lr}
	.cfi_def_cfa_offset 8
	.cfi_offset lr, -4
	.cfi_offset r7, -8
	.pad	#32
	sub	sp, #32
	.cfi_def_cfa_offset 40
	str	r0, [sp, #28]
	str	r1, [sp, #24]
.Ltmp115:
	.loc	4 313 26 prologue_end           @ lvgl/src/lv_misc/lv_anim.c:313:26
	ldr	r0, [sp, #24]
	.loc	4 313 45 is_stmt 0              @ lvgl/src/lv_misc/lv_anim.c:313:45
	ldr	r2, [r0, #36]
	.loc	4 313 29                        @ lvgl/src/lv_misc/lv_anim.c:313:29
	ldr	r0, [r0, #40]
	.loc	4 313 18                        @ lvgl/src/lv_misc/lv_anim.c:313:18
	mov	r3, sp
	mov.w	r1, #1024
	str	r1, [sp, #4]                    @ 4-byte Spill
	str	r1, [r3]
	movs	r3, #0
	str	r3, [sp, #8]                    @ 4-byte Spill
	mov	r1, r3
	bl	_lv_map
	ldr	r2, [sp, #4]                    @ 4-byte Reload
	ldr	r1, [sp, #8]                    @ 4-byte Reload
	.loc	4 313 14                        @ lvgl/src/lv_misc/lv_anim.c:313:14
	str	r0, [sp, #20]
	.loc	4 314 32 is_stmt 1              @ lvgl/src/lv_misc/lv_anim.c:314:32
	ldr	r0, [sp, #20]
	.loc	4 314 20 is_stmt 0              @ lvgl/src/lv_misc/lv_anim.c:314:20
	mov	r3, sp
	str	r2, [r3]
	mov.w	r2, #1000
	movw	r3, #1300
	bl	_lv_bezier3
	.loc	4 314 13                        @ lvgl/src/lv_misc/lv_anim.c:314:13
	str	r0, [sp, #16]
	.loc	4 317 17 is_stmt 1              @ lvgl/src/lv_misc/lv_anim.c:317:17
	ldr	r0, [sp, #16]
	.loc	4 317 25 is_stmt 0              @ lvgl/src/lv_misc/lv_anim.c:317:25
	ldr	r1, [sp, #24]
	.loc	4 317 37                        @ lvgl/src/lv_misc/lv_anim.c:317:37
	ldr	r2, [r1, #24]
	.loc	4 317 28                        @ lvgl/src/lv_misc/lv_anim.c:317:28
	ldr	r1, [r1, #32]
	.loc	4 317 32                        @ lvgl/src/lv_misc/lv_anim.c:317:32
	subs	r1, r1, r2
	.loc	4 317 22                        @ lvgl/src/lv_misc/lv_anim.c:317:22
	muls	r0, r1, r0
	.loc	4 317 15                        @ lvgl/src/lv_misc/lv_anim.c:317:15
	str	r0, [sp, #12]
	.loc	4 318 17 is_stmt 1              @ lvgl/src/lv_misc/lv_anim.c:318:17
	ldr	r0, [sp, #12]
	.loc	4 318 27 is_stmt 0              @ lvgl/src/lv_misc/lv_anim.c:318:27
	asrs	r0, r0, #10
	.loc	4 318 15                        @ lvgl/src/lv_misc/lv_anim.c:318:15
	str	r0, [sp, #12]
	.loc	4 319 18 is_stmt 1              @ lvgl/src/lv_misc/lv_anim.c:319:18
	ldr	r0, [sp, #24]
	.loc	4 319 21 is_stmt 0              @ lvgl/src/lv_misc/lv_anim.c:319:21
	ldr	r1, [r0, #24]
	.loc	4 319 15                        @ lvgl/src/lv_misc/lv_anim.c:319:15
	ldr	r0, [sp, #12]
	add	r0, r1
	str	r0, [sp, #12]
	.loc	4 321 12 is_stmt 1              @ lvgl/src/lv_misc/lv_anim.c:321:12
	ldrsh.w	r0, [sp, #12]
	.loc	4 321 5 is_stmt 0               @ lvgl/src/lv_misc/lv_anim.c:321:5
	add	sp, #32
	pop	{r7, pc}
.Ltmp116:
.Lfunc_end15:
	.size	lv_anim_path_overshoot, .Lfunc_end15-lv_anim_path_overshoot
	.cfi_endproc
	.cantunwind
	.fnend
                                        @ -- End function
	.section	.text.lv_anim_path_bounce,"ax",%progbits
	.hidden	lv_anim_path_bounce             @ -- Begin function lv_anim_path_bounce
	.globl	lv_anim_path_bounce
	.p2align	3
	.type	lv_anim_path_bounce,%function
	.code	16                              @ @lv_anim_path_bounce
	.thumb_func
lv_anim_path_bounce:
.Lfunc_begin16:
	.loc	4 330 0 is_stmt 1               @ lvgl/src/lv_misc/lv_anim.c:330:0
	.fnstart
	.cfi_startproc
@ %bb.0:
	.save	{r7, lr}
	push	{r7, lr}
	.cfi_def_cfa_offset 8
	.cfi_offset lr, -4
	.cfi_offset r7, -8
	.pad	#32
	sub	sp, #32
	.cfi_def_cfa_offset 40
	str	r0, [sp, #28]
	str	r1, [sp, #24]
.Ltmp117:
	.loc	4 335 26 prologue_end           @ lvgl/src/lv_misc/lv_anim.c:335:26
	ldr	r0, [sp, #24]
	.loc	4 335 45 is_stmt 0              @ lvgl/src/lv_misc/lv_anim.c:335:45
	ldr	r2, [r0, #36]
	.loc	4 335 29                        @ lvgl/src/lv_misc/lv_anim.c:335:29
	ldr	r0, [r0, #40]
	.loc	4 335 18                        @ lvgl/src/lv_misc/lv_anim.c:335:18
	mov	r3, sp
	mov.w	r1, #1024
	str	r1, [r3]
	movs	r3, #0
	mov	r1, r3
	bl	_lv_map
	.loc	4 335 14                        @ lvgl/src/lv_misc/lv_anim.c:335:14
	str	r0, [sp, #20]
	.loc	4 336 21 is_stmt 1              @ lvgl/src/lv_misc/lv_anim.c:336:21
	ldr	r0, [sp, #24]
	.loc	4 336 33 is_stmt 0              @ lvgl/src/lv_misc/lv_anim.c:336:33
	ldr	r1, [r0, #24]
	.loc	4 336 24                        @ lvgl/src/lv_misc/lv_anim.c:336:24
	ldr	r0, [r0, #32]
	.loc	4 336 28                        @ lvgl/src/lv_misc/lv_anim.c:336:28
	subs	r0, r0, r1
	.loc	4 336 13                        @ lvgl/src/lv_misc/lv_anim.c:336:13
	str	r0, [sp, #16]
.Ltmp118:
	.loc	4 340 8 is_stmt 1               @ lvgl/src/lv_misc/lv_anim.c:340:8
	ldr	r0, [sp, #20]
.Ltmp119:
	.loc	4 340 8 is_stmt 0               @ lvgl/src/lv_misc/lv_anim.c:340:8
	lsrs	r0, r0, #3
	cmp	r0, #50
	bhi	.LBB16_2
	b	.LBB16_1
.LBB16_1:
.Ltmp120:
	.loc	4 342 14 is_stmt 1              @ lvgl/src/lv_misc/lv_anim.c:342:14
	ldr	r0, [sp, #20]
	movw	r1, #2500
	.loc	4 342 16 is_stmt 0              @ lvgl/src/lv_misc/lv_anim.c:342:16
	muls	r0, r1, r0
	.loc	4 342 24                        @ lvgl/src/lv_misc/lv_anim.c:342:24
	lsrs	r0, r0, #10
	.loc	4 342 11                        @ lvgl/src/lv_misc/lv_anim.c:342:11
	str	r0, [sp, #20]
	.loc	4 343 5 is_stmt 1               @ lvgl/src/lv_misc/lv_anim.c:343:5
	b	.LBB16_15
.Ltmp121:
.LBB16_2:
	.loc	4 344 13                        @ lvgl/src/lv_misc/lv_anim.c:344:13
	ldr	r0, [sp, #20]
	.loc	4 344 22 is_stmt 0              @ lvgl/src/lv_misc/lv_anim.c:344:22
	cmp.w	r0, #408
	blo	.LBB16_5
	b	.LBB16_3
.LBB16_3:
	.loc	4 344 25                        @ lvgl/src/lv_misc/lv_anim.c:344:25
	ldr	r0, [sp, #20]
	movw	r1, #613
.Ltmp122:
	.loc	4 344 13                        @ lvgl/src/lv_misc/lv_anim.c:344:13
	cmp	r0, r1
	bhi	.LBB16_5
	b	.LBB16_4
.LBB16_4:
.Ltmp123:
	.loc	4 346 11 is_stmt 1              @ lvgl/src/lv_misc/lv_anim.c:346:11
	ldr	r0, [sp, #20]
	sub.w	r0, r0, #408
	str	r0, [sp, #20]
	.loc	4 347 16                        @ lvgl/src/lv_misc/lv_anim.c:347:16
	ldr	r0, [sp, #20]
	.loc	4 347 18 is_stmt 0              @ lvgl/src/lv_misc/lv_anim.c:347:18
	add.w	r0, r0, r0, lsl #2
	.loc	4 347 14                        @ lvgl/src/lv_misc/lv_anim.c:347:14
	str	r0, [sp, #20]
	.loc	4 348 23 is_stmt 1              @ lvgl/src/lv_misc/lv_anim.c:348:23
	ldr	r0, [sp, #20]
	.loc	4 348 21 is_stmt 0              @ lvgl/src/lv_misc/lv_anim.c:348:21
	rsb.w	r0, r0, #1024
	.loc	4 348 14                        @ lvgl/src/lv_misc/lv_anim.c:348:14
	str	r0, [sp, #20]
	.loc	4 349 16 is_stmt 1              @ lvgl/src/lv_misc/lv_anim.c:349:16
	ldr	r0, [sp, #16]
	movw	r1, #26215
	movt	r1, #26214
	.loc	4 349 21 is_stmt 0              @ lvgl/src/lv_misc/lv_anim.c:349:21
	smmul	r1, r0, r1
	asrs	r0, r1, #3
	add.w	r0, r0, r1, lsr #31
	.loc	4 349 14                        @ lvgl/src/lv_misc/lv_anim.c:349:14
	str	r0, [sp, #16]
	.loc	4 350 5 is_stmt 1               @ lvgl/src/lv_misc/lv_anim.c:350:5
	b	.LBB16_14
.Ltmp124:
.LBB16_5:
	.loc	4 351 13                        @ lvgl/src/lv_misc/lv_anim.c:351:13
	ldr	r0, [sp, #20]
	movw	r1, #614
	.loc	4 351 22 is_stmt 0              @ lvgl/src/lv_misc/lv_anim.c:351:22
	cmp	r0, r1
	blo	.LBB16_8
	b	.LBB16_6
.LBB16_6:
	.loc	4 351 25                        @ lvgl/src/lv_misc/lv_anim.c:351:25
	ldr	r0, [sp, #20]
	movw	r1, #818
.Ltmp125:
	.loc	4 351 13                        @ lvgl/src/lv_misc/lv_anim.c:351:13
	cmp	r0, r1
	bhi	.LBB16_8
	b	.LBB16_7
.LBB16_7:
.Ltmp126:
	.loc	4 353 11 is_stmt 1              @ lvgl/src/lv_misc/lv_anim.c:353:11
	ldr	r0, [sp, #20]
	subw	r0, r0, #614
	str	r0, [sp, #20]
	.loc	4 354 16                        @ lvgl/src/lv_misc/lv_anim.c:354:16
	ldr	r0, [sp, #20]
	.loc	4 354 18 is_stmt 0              @ lvgl/src/lv_misc/lv_anim.c:354:18
	add.w	r0, r0, r0, lsl #2
	.loc	4 354 14                        @ lvgl/src/lv_misc/lv_anim.c:354:14
	str	r0, [sp, #20]
	.loc	4 355 16 is_stmt 1              @ lvgl/src/lv_misc/lv_anim.c:355:16
	ldr	r0, [sp, #16]
	movw	r1, #26215
	movt	r1, #26214
	.loc	4 355 21 is_stmt 0              @ lvgl/src/lv_misc/lv_anim.c:355:21
	smmul	r1, r0, r1
	asrs	r0, r1, #3
	add.w	r0, r0, r1, lsr #31
	.loc	4 355 14                        @ lvgl/src/lv_misc/lv_anim.c:355:14
	str	r0, [sp, #16]
	.loc	4 356 5 is_stmt 1               @ lvgl/src/lv_misc/lv_anim.c:356:5
	b	.LBB16_13
.Ltmp127:
.LBB16_8:
	.loc	4 357 13                        @ lvgl/src/lv_misc/lv_anim.c:357:13
	ldr	r0, [sp, #20]
	movw	r1, #819
	.loc	4 357 22 is_stmt 0              @ lvgl/src/lv_misc/lv_anim.c:357:22
	cmp	r0, r1
	blo	.LBB16_11
	b	.LBB16_9
.LBB16_9:
	.loc	4 357 25                        @ lvgl/src/lv_misc/lv_anim.c:357:25
	ldr	r0, [sp, #20]
.Ltmp128:
	.loc	4 357 13                        @ lvgl/src/lv_misc/lv_anim.c:357:13
	cmp.w	r0, #920
	bhi	.LBB16_11
	b	.LBB16_10
.LBB16_10:
.Ltmp129:
	.loc	4 359 11 is_stmt 1              @ lvgl/src/lv_misc/lv_anim.c:359:11
	ldr	r0, [sp, #20]
	subw	r0, r0, #819
	str	r0, [sp, #20]
	.loc	4 360 16                        @ lvgl/src/lv_misc/lv_anim.c:360:16
	ldr	r0, [sp, #20]
	.loc	4 360 18 is_stmt 0              @ lvgl/src/lv_misc/lv_anim.c:360:18
	add.w	r0, r0, r0, lsl #2
	lsls	r0, r0, #1
	.loc	4 360 14                        @ lvgl/src/lv_misc/lv_anim.c:360:14
	str	r0, [sp, #20]
	.loc	4 361 23 is_stmt 1              @ lvgl/src/lv_misc/lv_anim.c:361:23
	ldr	r0, [sp, #20]
	.loc	4 361 21 is_stmt 0              @ lvgl/src/lv_misc/lv_anim.c:361:21
	rsb.w	r0, r0, #1024
	.loc	4 361 14                        @ lvgl/src/lv_misc/lv_anim.c:361:14
	str	r0, [sp, #20]
	.loc	4 362 16 is_stmt 1              @ lvgl/src/lv_misc/lv_anim.c:362:16
	ldr	r0, [sp, #16]
	movw	r1, #26215
	movt	r1, #26214
	.loc	4 362 21 is_stmt 0              @ lvgl/src/lv_misc/lv_anim.c:362:21
	smmul	r1, r0, r1
	asrs	r0, r1, #4
	add.w	r0, r0, r1, lsr #31
	.loc	4 362 14                        @ lvgl/src/lv_misc/lv_anim.c:362:14
	str	r0, [sp, #16]
	.loc	4 363 5 is_stmt 1               @ lvgl/src/lv_misc/lv_anim.c:363:5
	b	.LBB16_12
.Ltmp130:
.LBB16_11:
	.loc	4 366 11                        @ lvgl/src/lv_misc/lv_anim.c:366:11
	ldr	r0, [sp, #20]
	subw	r0, r0, #921
	str	r0, [sp, #20]
	.loc	4 367 16                        @ lvgl/src/lv_misc/lv_anim.c:367:16
	ldr	r0, [sp, #20]
	.loc	4 367 18 is_stmt 0              @ lvgl/src/lv_misc/lv_anim.c:367:18
	add.w	r0, r0, r0, lsl #2
	lsls	r0, r0, #1
	.loc	4 367 14                        @ lvgl/src/lv_misc/lv_anim.c:367:14
	str	r0, [sp, #20]
	.loc	4 368 16 is_stmt 1              @ lvgl/src/lv_misc/lv_anim.c:368:16
	ldr	r0, [sp, #16]
	movw	r1, #26215
	movt	r1, #26214
	.loc	4 368 21 is_stmt 0              @ lvgl/src/lv_misc/lv_anim.c:368:21
	smmul	r1, r0, r1
	asrs	r0, r1, #4
	add.w	r0, r0, r1, lsr #31
	.loc	4 368 14                        @ lvgl/src/lv_misc/lv_anim.c:368:14
	str	r0, [sp, #16]
	b	.LBB16_12
.Ltmp131:
.LBB16_12:
	.loc	4 0 14                          @ lvgl/src/lv_misc/lv_anim.c:0:14
	b	.LBB16_13
.LBB16_13:
	b	.LBB16_14
.LBB16_14:
	b	.LBB16_15
.LBB16_15:
	.loc	4 371 32 is_stmt 1              @ lvgl/src/lv_misc/lv_anim.c:371:32
	ldr	r0, [sp, #20]
	.loc	4 371 20 is_stmt 0              @ lvgl/src/lv_misc/lv_anim.c:371:20
	mov	r2, sp
	movs	r1, #0
	str	r1, [r2]
	mov.w	r1, #1024
	mov.w	r2, #800
	mov.w	r3, #500
	bl	_lv_bezier3
	.loc	4 371 13                        @ lvgl/src/lv_misc/lv_anim.c:371:13
	str	r0, [sp, #12]
	.loc	4 374 17 is_stmt 1              @ lvgl/src/lv_misc/lv_anim.c:374:17
	ldr	r0, [sp, #12]
	.loc	4 374 24 is_stmt 0              @ lvgl/src/lv_misc/lv_anim.c:374:24
	ldr	r1, [sp, #16]
	.loc	4 374 22                        @ lvgl/src/lv_misc/lv_anim.c:374:22
	muls	r0, r1, r0
	.loc	4 374 15                        @ lvgl/src/lv_misc/lv_anim.c:374:15
	str	r0, [sp, #8]
	.loc	4 375 17 is_stmt 1              @ lvgl/src/lv_misc/lv_anim.c:375:17
	ldr	r0, [sp, #8]
	.loc	4 375 27 is_stmt 0              @ lvgl/src/lv_misc/lv_anim.c:375:27
	asrs	r0, r0, #10
	.loc	4 375 15                        @ lvgl/src/lv_misc/lv_anim.c:375:15
	str	r0, [sp, #8]
	.loc	4 376 17 is_stmt 1              @ lvgl/src/lv_misc/lv_anim.c:376:17
	ldr	r0, [sp, #24]
	.loc	4 376 20 is_stmt 0              @ lvgl/src/lv_misc/lv_anim.c:376:20
	ldr	r0, [r0, #32]
	.loc	4 376 26                        @ lvgl/src/lv_misc/lv_anim.c:376:26
	ldr	r1, [sp, #8]
	.loc	4 376 24                        @ lvgl/src/lv_misc/lv_anim.c:376:24
	subs	r0, r0, r1
	.loc	4 376 15                        @ lvgl/src/lv_misc/lv_anim.c:376:15
	str	r0, [sp, #8]
	.loc	4 378 12 is_stmt 1              @ lvgl/src/lv_misc/lv_anim.c:378:12
	ldrsh.w	r0, [sp, #8]
	.loc	4 378 5 is_stmt 0               @ lvgl/src/lv_misc/lv_anim.c:378:5
	add	sp, #32
	pop	{r7, pc}
.Ltmp132:
.Lfunc_end16:
	.size	lv_anim_path_bounce, .Lfunc_end16-lv_anim_path_bounce
	.cfi_endproc
	.cantunwind
	.fnend
                                        @ -- End function
	.section	.text.lv_anim_path_step,"ax",%progbits
	.hidden	lv_anim_path_step               @ -- Begin function lv_anim_path_step
	.globl	lv_anim_path_step
	.p2align	3
	.type	lv_anim_path_step,%function
	.code	16                              @ @lv_anim_path_step
	.thumb_func
lv_anim_path_step:
.Lfunc_begin17:
	.loc	4 388 0 is_stmt 1               @ lvgl/src/lv_misc/lv_anim.c:388:0
	.fnstart
	.cfi_startproc
@ %bb.0:
	.pad	#12
	sub	sp, #12
	.cfi_def_cfa_offset 12
	str	r0, [sp, #4]
	str	r1, [sp]
.Ltmp133:
	.loc	4 391 8 prologue_end            @ lvgl/src/lv_misc/lv_anim.c:391:8
	ldr	r0, [sp]
	.loc	4 391 26 is_stmt 0              @ lvgl/src/lv_misc/lv_anim.c:391:26
	ldr	r1, [r0, #36]
	.loc	4 391 11                        @ lvgl/src/lv_misc/lv_anim.c:391:11
	ldr	r0, [r0, #40]
.Ltmp134:
	.loc	4 391 8                         @ lvgl/src/lv_misc/lv_anim.c:391:8
	cmp	r0, r1
	blt	.LBB17_2
	b	.LBB17_1
.LBB17_1:
.Ltmp135:
	.loc	4 392 16 is_stmt 1              @ lvgl/src/lv_misc/lv_anim.c:392:16
	ldr	r0, [sp]
	.loc	4 392 19 is_stmt 0              @ lvgl/src/lv_misc/lv_anim.c:392:19
	ldr	r0, [r0, #32]
	.loc	4 392 9                         @ lvgl/src/lv_misc/lv_anim.c:392:9
	strh.w	r0, [sp, #10]
	b	.LBB17_3
.LBB17_2:
	.loc	4 394 16 is_stmt 1              @ lvgl/src/lv_misc/lv_anim.c:394:16
	ldr	r0, [sp]
	.loc	4 394 19 is_stmt 0              @ lvgl/src/lv_misc/lv_anim.c:394:19
	ldr	r0, [r0, #24]
	.loc	4 394 9                         @ lvgl/src/lv_misc/lv_anim.c:394:9
	strh.w	r0, [sp, #10]
	b	.LBB17_3
.Ltmp136:
.LBB17_3:
	.loc	4 395 1 is_stmt 1               @ lvgl/src/lv_misc/lv_anim.c:395:1
	ldrsh.w	r0, [sp, #10]
	add	sp, #12
	bx	lr
.Ltmp137:
.Lfunc_end17:
	.size	lv_anim_path_step, .Lfunc_end17-lv_anim_path_step
	.cfi_endproc
	.cantunwind
	.fnend
                                        @ -- End function
	.section	.text.anim_ready_handler,"ax",%progbits
	.p2align	3                               @ -- Begin function anim_ready_handler
	.type	anim_ready_handler,%function
	.code	16                              @ @anim_ready_handler
	.thumb_func
anim_ready_handler:
.Lfunc_begin18:
	.loc	4 469 0                         @ lvgl/src/lv_misc/lv_anim.c:469:0
	.fnstart
	.cfi_startproc
@ %bb.0:
	.save	{r7, lr}
	push	{r7, lr}
	.cfi_def_cfa_offset 8
	.cfi_offset lr, -4
	.cfi_offset r7, -8
	.pad	#80
	sub	sp, #80
	.cfi_def_cfa_offset 88
	str	r0, [sp, #76]
.Ltmp138:
	.loc	4 471 8 prologue_end            @ lvgl/src/lv_misc/lv_anim.c:471:8
	ldr	r0, [sp, #76]
	.loc	4 471 11 is_stmt 0              @ lvgl/src/lv_misc/lv_anim.c:471:11
	ldrb.w	r0, [r0, #58]
	lsrs	r0, r0, #1
	.loc	4 471 29                        @ lvgl/src/lv_misc/lv_anim.c:471:29
	lsls	r0, r0, #31
	cbnz	r0, .LBB18_4
	b	.LBB18_1
.LBB18_1:
	.loc	4 471 32                        @ lvgl/src/lv_misc/lv_anim.c:471:32
	ldr	r0, [sp, #76]
	.loc	4 471 35                        @ lvgl/src/lv_misc/lv_anim.c:471:35
	ldrh	r0, [r0, #56]
	.loc	4 471 50                        @ lvgl/src/lv_misc/lv_anim.c:471:50
	cmp	r0, #1
	blt	.LBB18_4
	b	.LBB18_2
.LBB18_2:
	.loc	4 471 53                        @ lvgl/src/lv_misc/lv_anim.c:471:53
	ldr	r0, [sp, #76]
	.loc	4 471 56                        @ lvgl/src/lv_misc/lv_anim.c:471:56
	ldrh	r0, [r0, #56]
	movw	r1, #65535
.Ltmp139:
	.loc	4 471 8                         @ lvgl/src/lv_misc/lv_anim.c:471:8
	cmp	r0, r1
	beq	.LBB18_4
	b	.LBB18_3
.LBB18_3:
.Ltmp140:
	.loc	4 472 9 is_stmt 1               @ lvgl/src/lv_misc/lv_anim.c:472:9
	ldr	r1, [sp, #76]
	.loc	4 472 22 is_stmt 0              @ lvgl/src/lv_misc/lv_anim.c:472:22
	ldrh	r0, [r1, #56]
	subs	r0, #1
	strh	r0, [r1, #56]
	.loc	4 473 5 is_stmt 1               @ lvgl/src/lv_misc/lv_anim.c:473:5
	b	.LBB18_4
.Ltmp141:
.LBB18_4:
	.loc	4 478 8                         @ lvgl/src/lv_misc/lv_anim.c:478:8
	ldr	r0, [sp, #76]
	.loc	4 478 11 is_stmt 0              @ lvgl/src/lv_misc/lv_anim.c:478:11
	ldrh	r0, [r0, #56]
	.loc	4 478 27                        @ lvgl/src/lv_misc/lv_anim.c:478:27
	cbnz	r0, .LBB18_11
	b	.LBB18_5
.LBB18_5:
	.loc	4 478 32                        @ lvgl/src/lv_misc/lv_anim.c:478:32
	ldr	r0, [sp, #76]
	.loc	4 478 35                        @ lvgl/src/lv_misc/lv_anim.c:478:35
	ldr	r0, [r0, #48]
	.loc	4 478 55                        @ lvgl/src/lv_misc/lv_anim.c:478:55
	cbz	r0, .LBB18_8
	b	.LBB18_6
.LBB18_6:
	.loc	4 478 59                        @ lvgl/src/lv_misc/lv_anim.c:478:59
	ldr	r0, [sp, #76]
	.loc	4 478 62                        @ lvgl/src/lv_misc/lv_anim.c:478:62
	ldr	r0, [r0, #48]
	.loc	4 478 76                        @ lvgl/src/lv_misc/lv_anim.c:478:76
	cbz	r0, .LBB18_11
	b	.LBB18_7
.LBB18_7:
	.loc	4 478 79                        @ lvgl/src/lv_misc/lv_anim.c:478:79
	ldr	r0, [sp, #76]
	.loc	4 478 82                        @ lvgl/src/lv_misc/lv_anim.c:478:82
	ldrb.w	r0, [r0, #58]
	lsrs	r0, r0, #1
.Ltmp142:
	.loc	4 478 8                         @ lvgl/src/lv_misc/lv_anim.c:478:8
	lsls	r0, r0, #31
	cbz	r0, .LBB18_11
	b	.LBB18_8
.LBB18_8:
.Ltmp143:
	.loc	4 483 28 is_stmt 1              @ lvgl/src/lv_misc/lv_anim.c:483:28
	ldr	r1, [sp, #76]
	add	r0, sp, #12
	movs	r2, #64
	.loc	4 483 9 is_stmt 0               @ lvgl/src/lv_misc/lv_anim.c:483:9
	bl	_lv_memcpy
	.loc	4 484 49 is_stmt 1              @ lvgl/src/lv_misc/lv_anim.c:484:49
	ldr	r1, [sp, #76]
	.loc	4 484 9 is_stmt 0               @ lvgl/src/lv_misc/lv_anim.c:484:9
	movw	r0, :lower16:_lv_anim_ll
	movt	r0, :upper16:_lv_anim_ll
	bl	_lv_ll_remove
	.loc	4 485 21 is_stmt 1              @ lvgl/src/lv_misc/lv_anim.c:485:21
	ldr	r0, [sp, #76]
	.loc	4 485 9 is_stmt 0               @ lvgl/src/lv_misc/lv_anim.c:485:9
	bl	lv_mem_free
	.loc	4 487 9 is_stmt 1               @ lvgl/src/lv_misc/lv_anim.c:487:9
	bl	anim_mark_list_change
.Ltmp144:
	.loc	4 490 18                        @ lvgl/src/lv_misc/lv_anim.c:490:18
	ldr	r0, [sp, #24]
.Ltmp145:
	.loc	4 490 12 is_stmt 0              @ lvgl/src/lv_misc/lv_anim.c:490:12
	cbz	r0, .LBB18_10
	b	.LBB18_9
.LBB18_9:
.Ltmp146:
	.loc	4 490 42                        @ lvgl/src/lv_misc/lv_anim.c:490:42
	ldr	r1, [sp, #24]
	add	r0, sp, #12
	.loc	4 490 36                        @ lvgl/src/lv_misc/lv_anim.c:490:36
	blx	r1
	b	.LBB18_10
.Ltmp147:
.LBB18_10:
	.loc	4 491 5 is_stmt 1               @ lvgl/src/lv_misc/lv_anim.c:491:5
	b	.LBB18_19
.Ltmp148:
.LBB18_11:
	.loc	4 494 34                        @ lvgl/src/lv_misc/lv_anim.c:494:34
	ldr	r1, [sp, #76]
	.loc	4 494 37 is_stmt 0              @ lvgl/src/lv_misc/lv_anim.c:494:37
	ldr	r0, [r1, #52]
	.loc	4 494 23                        @ lvgl/src/lv_misc/lv_anim.c:494:23
	rsbs	r0, r0, #0
	.loc	4 494 21                        @ lvgl/src/lv_misc/lv_anim.c:494:21
	str	r0, [r1, #40]
.Ltmp149:
	.loc	4 496 12 is_stmt 1              @ lvgl/src/lv_misc/lv_anim.c:496:12
	ldr	r0, [sp, #76]
	.loc	4 496 15 is_stmt 0              @ lvgl/src/lv_misc/lv_anim.c:496:15
	ldr	r0, [r0, #48]
.Ltmp150:
	.loc	4 496 12                        @ lvgl/src/lv_misc/lv_anim.c:496:12
	cbz	r0, .LBB18_18
	b	.LBB18_12
.LBB18_12:
.Ltmp151:
	.loc	4 498 16 is_stmt 1              @ lvgl/src/lv_misc/lv_anim.c:498:16
	ldr	r0, [sp, #76]
	.loc	4 498 19 is_stmt 0              @ lvgl/src/lv_misc/lv_anim.c:498:19
	ldrb.w	r0, [r0, #58]
	lsrs	r0, r0, #1
.Ltmp152:
	.loc	4 498 16                        @ lvgl/src/lv_misc/lv_anim.c:498:16
	lsls	r0, r0, #31
	cbnz	r0, .LBB18_14
	b	.LBB18_13
.LBB18_13:
.Ltmp153:
	.loc	4 498 63                        @ lvgl/src/lv_misc/lv_anim.c:498:63
	ldr	r1, [sp, #76]
	.loc	4 498 66                        @ lvgl/src/lv_misc/lv_anim.c:498:66
	ldr	r0, [r1, #44]
	.loc	4 498 52                        @ lvgl/src/lv_misc/lv_anim.c:498:52
	rsbs	r0, r0, #0
	.loc	4 498 50                        @ lvgl/src/lv_misc/lv_anim.c:498:50
	str	r0, [r1, #40]
	.loc	4 498 38                        @ lvgl/src/lv_misc/lv_anim.c:498:38
	b	.LBB18_14
.Ltmp154:
.LBB18_14:
	.loc	4 501 31 is_stmt 1              @ lvgl/src/lv_misc/lv_anim.c:501:31
	ldr	r1, [sp, #76]
	.loc	4 501 34 is_stmt 0              @ lvgl/src/lv_misc/lv_anim.c:501:34
	ldrb.w	r0, [r1, #58]
	movs	r2, #1
	.loc	4 501 47                        @ lvgl/src/lv_misc/lv_anim.c:501:47
	bic.w	r2, r2, r0, lsr #1
	.loc	4 501 29                        @ lvgl/src/lv_misc/lv_anim.c:501:29
	and	r0, r0, #253
	orr.w	r0, r0, r2, lsl #1
	strb.w	r0, [r1, #58]
	.loc	4 504 24 is_stmt 1              @ lvgl/src/lv_misc/lv_anim.c:504:24
	ldr	r0, [sp, #76]
	.loc	4 504 27 is_stmt 0              @ lvgl/src/lv_misc/lv_anim.c:504:27
	ldr	r0, [r0, #24]
	.loc	4 504 22                        @ lvgl/src/lv_misc/lv_anim.c:504:22
	str	r0, [sp, #8]
	.loc	4 505 24 is_stmt 1              @ lvgl/src/lv_misc/lv_anim.c:505:24
	ldr	r1, [sp, #76]
	.loc	4 505 27 is_stmt 0              @ lvgl/src/lv_misc/lv_anim.c:505:27
	ldr	r0, [r1, #32]
	.loc	4 505 22                        @ lvgl/src/lv_misc/lv_anim.c:505:22
	str	r0, [r1, #24]
	.loc	4 506 24 is_stmt 1              @ lvgl/src/lv_misc/lv_anim.c:506:24
	ldr	r0, [sp, #8]
	.loc	4 506 13 is_stmt 0              @ lvgl/src/lv_misc/lv_anim.c:506:13
	ldr	r1, [sp, #76]
	.loc	4 506 22                        @ lvgl/src/lv_misc/lv_anim.c:506:22
	str	r0, [r1, #32]
	.loc	4 508 23 is_stmt 1              @ lvgl/src/lv_misc/lv_anim.c:508:23
	ldr	r0, [sp, #76]
	.loc	4 508 26 is_stmt 0              @ lvgl/src/lv_misc/lv_anim.c:508:26
	ldrb.w	r0, [r0, #58]
	lsrs	r0, r0, #1
	.loc	4 508 23                        @ lvgl/src/lv_misc/lv_anim.c:508:23
	lsls	r0, r0, #31
	cbnz	r0, .LBB18_16
	b	.LBB18_15
.LBB18_15:
	.loc	4 508 46                        @ lvgl/src/lv_misc/lv_anim.c:508:46
	ldr	r0, [sp, #76]
	.loc	4 508 49                        @ lvgl/src/lv_misc/lv_anim.c:508:49
	ldr	r0, [r0, #60]
	.loc	4 508 23                        @ lvgl/src/lv_misc/lv_anim.c:508:23
	str	r0, [sp, #4]                    @ 4-byte Spill
	b	.LBB18_17
.LBB18_16:
	.loc	4 508 61                        @ lvgl/src/lv_misc/lv_anim.c:508:61
	ldr	r0, [sp, #76]
	.loc	4 508 64                        @ lvgl/src/lv_misc/lv_anim.c:508:64
	ldr	r0, [r0, #48]
	.loc	4 508 23                        @ lvgl/src/lv_misc/lv_anim.c:508:23
	str	r0, [sp, #4]                    @ 4-byte Spill
	b	.LBB18_17
.LBB18_17:
	ldr	r0, [sp, #4]                    @ 4-byte Reload
	.loc	4 508 13                        @ lvgl/src/lv_misc/lv_anim.c:508:13
	ldr	r1, [sp, #76]
	.loc	4 508 21                        @ lvgl/src/lv_misc/lv_anim.c:508:21
	str	r0, [r1, #36]
	.loc	4 509 9 is_stmt 1               @ lvgl/src/lv_misc/lv_anim.c:509:9
	b	.LBB18_18
.Ltmp155:
.LBB18_18:
	.loc	4 0 9 is_stmt 0                 @ lvgl/src/lv_misc/lv_anim.c:0:9
	b	.LBB18_19
.LBB18_19:
	.loc	4 511 1 is_stmt 1               @ lvgl/src/lv_misc/lv_anim.c:511:1
	add	sp, #80
	pop	{r7, pc}
.Ltmp156:
.Lfunc_end18:
	.size	anim_ready_handler, .Lfunc_end18-anim_ready_handler
	.cfi_endproc
	.cantunwind
	.fnend
                                        @ -- End function
	.hidden	lv_anim_path_def                @ @lv_anim_path_def
	.type	lv_anim_path_def,%object
	.section	.rodata.lv_anim_path_def,"a",%progbits
	.globl	lv_anim_path_def
	.p2align	2
lv_anim_path_def:
	.long	lv_anim_path_linear
	.long	0
	.size	lv_anim_path_def, 8

	.type	_lv_anim_task,%object           @ @_lv_anim_task
	.section	.bss._lv_anim_task,"aw",%nobits
	.p2align	2
_lv_anim_task:
	.long	0
	.size	_lv_anim_task, 4

	.type	anim_list_changed,%object       @ @anim_list_changed
	.section	.bss.anim_list_changed,"aw",%nobits
anim_list_changed:
	.byte	0                               @ 0x0
	.size	anim_list_changed, 1

	.type	last_task_run,%object           @ @last_task_run
	.section	.bss.last_task_run,"aw",%nobits
	.p2align	2
last_task_run:
	.long	0                               @ 0x0
	.size	last_task_run, 4

	.type	.L.str,%object                  @ @.str
	.section	.rodata.str1.1,"aMS",%progbits,1
.L.str:
	.asciz	"Out of memory"
	.size	.L.str, 14

	.type	anim_run_round,%object          @ @anim_run_round
	.section	.bss.anim_run_round,"aw",%nobits
anim_run_round:
	.byte	0                               @ 0x0
	.size	anim_run_round, 1

	.file	7 "D:\\Keil_v5\\ARM\\ARMCLANG\\Bin\\..\\include" "string.h"
	.section	".note.GNU-stack","",%progbits
	.eabi_attribute	30, 6	@ Tag_ABI_optimization_goals
	.ARM_attribute	16, 1	@ Tag_AV_eba