	.text
	.syntax unified
	.eabi_attribute	67, "2.09"	@ Tag_conformance
	.cpu	cortex-m7
	.eabi_attribute	6, 13	@ Tag_CPU_arch
	.eabi_attribute	7, 77	@ Tag_CPU_arch_profile
	.eabi_attribute	8, 0	@ Tag_ARM_ISA_use
	.eabi_attribute	9, 2	@ Tag_THUMB_ISA_use
	.fpu	fpv5-d16
	.eabi_attribute	36, 1	@ Tag_FP_HP_extension
	.eabi_attribute	34, 1	@ Tag_CPU_unaligned_access
	.eabi_attribute	17, 1	@ Tag_ABI_PCS_GOT_use
	.eabi_attribute	20, 2	@ Tag_ABI_FP_denormal
	.eabi_attribute	21, 0	@ Tag_ABI_FP_exceptions
	.eabi_attribute	23, 1	@ Tag_ABI_FP_number_model
	.eabi_attribute	24, 1	@ Tag_ABI_align_needed
	.eabi_attribute	25, 1	@ Tag_ABI_align_preserved
	.eabi_attribute	28, 1	@ Tag_ABI_VFP_args
	.eabi_attribute	38, 1	@ Tag_ABI_FP_16bit_format
	.eabi_attribute	18, 2	@ Tag_ABI_PCS_wchar_t
	.eabi_attribute	26, 1	@ Tag_ABI_enum_size
	.eabi_attribute	14, 0	@ Tag_ABI_PCS_R9_use
	.file	"lv_area.c"
	.file	1 "D:\\Keil_v5\\ARM\\ARMCLANG\\Bin\\..\\include" "stdint.h"
	.file	2 "E:\\Smart-access-control\\Hardware\\CODE" "./lvgl/src/lv_conf.h"
	.section	.text.lv_area_set,"ax",%progbits
	.hidden	lv_area_set                     @ -- Begin function lv_area_set
	.globl	lv_area_set
	.p2align	3
	.type	lv_area_set,%function
	.code	16                              @ @lv_area_set
	.thumb_func
lv_area_set:
.Lfunc_begin0:
	.file	3 "E:\\Smart-access-control\\Hardware\\CODE" "lvgl/src/lv_misc/lv_area.c"
	.loc	3 49 0                          @ lvgl/src/lv_misc/lv_area.c:49:0
	.fnstart
	.cfi_sections .debug_frame
	.cfi_startproc
@ %bb.0:
	.save	{r7, lr}
	push	{r7, lr}
	.cfi_def_cfa_offset 8
	.cfi_offset lr, -4
	.cfi_offset r7, -8
	.pad	#12
	sub	sp, #12
	.cfi_def_cfa_offset 20
	mov	r12, r0
	ldr	r0, [sp, #20]
                                        @ kill: def $lr killed $r3
                                        @ kill: def $lr killed $r2
                                        @ kill: def $lr killed $r1
	str.w	r12, [sp, #8]
	strh.w	r1, [sp, #6]
	strh.w	r2, [sp, #4]
	strh.w	r3, [sp, #2]
	strh.w	r0, [sp]
.Ltmp0:
	.loc	3 50 18 prologue_end            @ lvgl/src/lv_misc/lv_area.c:50:18
	ldrh.w	r0, [sp, #6]
	.loc	3 50 5 is_stmt 0                @ lvgl/src/lv_misc/lv_area.c:50:5
	ldr	r1, [sp, #8]
	.loc	3 50 16                         @ lvgl/src/lv_misc/lv_area.c:50:16
	strh	r0, [r1]
	.loc	3 51 18 is_stmt 1               @ lvgl/src/lv_misc/lv_area.c:51:18
	ldrh.w	r0, [sp, #4]
	.loc	3 51 5 is_stmt 0                @ lvgl/src/lv_misc/lv_area.c:51:5
	ldr	r1, [sp, #8]
	.loc	3 51 16                         @ lvgl/src/lv_misc/lv_area.c:51:16
	strh	r0, [r1, #2]
	.loc	3 52 18 is_stmt 1               @ lvgl/src/lv_misc/lv_area.c:52:18
	ldrh.w	r0, [sp, #2]
	.loc	3 52 5 is_stmt 0                @ lvgl/src/lv_misc/lv_area.c:52:5
	ldr	r1, [sp, #8]
	.loc	3 52 16                         @ lvgl/src/lv_misc/lv_area.c:52:16
	strh	r0, [r1, #4]
	.loc	3 53 18 is_stmt 1               @ lvgl/src/lv_misc/lv_area.c:53:18
	ldrh.w	r0, [sp]
	.loc	3 53 5 is_stmt 0                @ lvgl/src/lv_misc/lv_area.c:53:5
	ldr	r1, [sp, #8]
	.loc	3 53 16                         @ lvgl/src/lv_misc/lv_area.c:53:16
	strh	r0, [r1, #6]
	.loc	3 54 1 is_stmt 1                @ lvgl/src/lv_misc/lv_area.c:54:1
	add	sp, #12
	pop	{r7, pc}
.Ltmp1:
.Lfunc_end0:
	.size	lv_area_set, .Lfunc_end0-lv_area_set
	.cfi_endproc
	.cantunwind
	.fnend
                                        @ -- End function
	.section	.text.lv_area_set_width,"ax",%progbits
	.hidden	lv_area_set_width               @ -- Begin function lv_area_set_width
	.globl	lv_area_set_width
	.p2align	3
	.type	lv_area_set_width,%function
	.code	16                              @ @lv_area_set_width
	.thumb_func
lv_area_set_width:
.Lfunc_begin1:
	.loc	3 62 0                          @ lvgl/src/lv_misc/lv_area.c:62:0
	.fnstart
	.cfi_startproc
@ %bb.0:
	.pad	#8
	sub	sp, #8
	.cfi_def_cfa_offset 8
                                        @ kill: def $r2 killed $r1
	str	r0, [sp, #4]
	strh.w	r1, [sp, #2]
.Ltmp2:
	.loc	3 63 18 prologue_end            @ lvgl/src/lv_misc/lv_area.c:63:18
	ldr	r1, [sp, #4]
	ldrh	r0, [r1]
	.loc	3 63 31 is_stmt 0               @ lvgl/src/lv_misc/lv_area.c:63:31
	ldrh.w	r2, [sp, #2]
	.loc	3 63 29                         @ lvgl/src/lv_misc/lv_area.c:63:29
	add	r0, r2
	.loc	3 63 33                         @ lvgl/src/lv_misc/lv_area.c:63:33
	subs	r0, #1
	.loc	3 63 16                         @ lvgl/src/lv_misc/lv_area.c:63:16
	strh	r0, [r1, #4]
	.loc	3 64 1 is_stmt 1                @ lvgl/src/lv_misc/lv_area.c:64:1
	add	sp, #8
	bx	lr
.Ltmp3:
.Lfunc_end1:
	.size	lv_area_set_width, .Lfunc_end1-lv_area_set_width
	.cfi_endproc
	.cantunwind
	.fnend
                                        @ -- End function
	.section	.text.lv_area_set_height,"ax",%progbits
	.hidden	lv_area_set_height              @ -- Begin function lv_area_set_height
	.globl	lv_area_set_height
	.p2align	3
	.type	lv_area_set_height,%function
	.code	16                              @ @lv_area_set_height
	.thumb_func
lv_area_set_height:
.Lfunc_begin2:
	.loc	3 72 0                          @ lvgl/src/lv_misc/lv_area.c:72:0
	.fnstart
	.cfi_startproc
@ %bb.0:
	.pad	#8
	sub	sp, #8
	.cfi_def_cfa_offset 8
                                        @ kill: def $r2 killed $r1
	str	r0, [sp, #4]
	strh.w	r1, [sp, #2]
.Ltmp4:
	.loc	3 73 18 prologue_end            @ lvgl/src/lv_misc/lv_area.c:73:18
	ldr	r1, [sp, #4]
	ldrh	r0, [r1, #2]
	.loc	3 73 31 is_stmt 0               @ lvgl/src/lv_misc/lv_area.c:73:31
	ldrh.w	r2, [sp, #2]
	.loc	3 73 29                         @ lvgl/src/lv_misc/lv_area.c:73:29
	add	r0, r2
	.loc	3 73 33                         @ lvgl/src/lv_misc/lv_area.c:73:33
	subs	r0, #1
	.loc	3 73 16                         @ lvgl/src/lv_misc/lv_area.c:73:16
	strh	r0, [r1, #6]
	.loc	3 74 1 is_stmt 1                @ lvgl/src/lv_misc/lv_area.c:74:1
	add	sp, #8
	bx	lr
.Ltmp5:
.Lfunc_end2:
	.size	lv_area_set_height, .Lfunc_end2-lv_area_set_height
	.cfi_endproc
	.cantunwind
	.fnend
                                        @ -- End function
	.section	.text._lv_area_set_pos,"ax",%progbits
	.hidden	_lv_area_set_pos                @ -- Begin function _lv_area_set_pos
	.globl	_lv_area_set_pos
	.p2align	3
	.type	_lv_area_set_pos,%function
	.code	16                              @ @_lv_area_set_pos
	.thumb_func
_lv_area_set_pos:
.Lfunc_begin3:
	.loc	3 83 0                          @ lvgl/src/lv_misc/lv_area.c:83:0
	.fnstart
	.cfi_startproc
@ %bb.0:
	.save	{r7, lr}
	push	{r7, lr}
	.cfi_def_cfa_offset 8
	.cfi_offset lr, -4
	.cfi_offset r7, -8
	.pad	#16
	sub	sp, #16
	.cfi_def_cfa_offset 24
                                        @ kill: def $r3 killed $r2
                                        @ kill: def $r3 killed $r1
	str	r0, [sp, #12]
	strh.w	r1, [sp, #10]
	strh.w	r2, [sp, #8]
.Ltmp6:
	.loc	3 84 38 prologue_end            @ lvgl/src/lv_misc/lv_area.c:84:38
	ldr	r0, [sp, #12]
	.loc	3 84 20 is_stmt 0               @ lvgl/src/lv_misc/lv_area.c:84:20
	bl	lv_area_get_width
	.loc	3 84 16                         @ lvgl/src/lv_misc/lv_area.c:84:16
	strh.w	r0, [sp, #6]
	.loc	3 85 39 is_stmt 1               @ lvgl/src/lv_misc/lv_area.c:85:39
	ldr	r0, [sp, #12]
	.loc	3 85 20 is_stmt 0               @ lvgl/src/lv_misc/lv_area.c:85:20
	bl	lv_area_get_height
	.loc	3 85 16                         @ lvgl/src/lv_misc/lv_area.c:85:16
	strh.w	r0, [sp, #4]
	.loc	3 86 20 is_stmt 1               @ lvgl/src/lv_misc/lv_area.c:86:20
	ldrh.w	r0, [sp, #10]
	.loc	3 86 5 is_stmt 0                @ lvgl/src/lv_misc/lv_area.c:86:5
	ldr	r1, [sp, #12]
	.loc	3 86 18                         @ lvgl/src/lv_misc/lv_area.c:86:18
	strh	r0, [r1]
	.loc	3 87 20 is_stmt 1               @ lvgl/src/lv_misc/lv_area.c:87:20
	ldrh.w	r0, [sp, #8]
	.loc	3 87 5 is_stmt 0                @ lvgl/src/lv_misc/lv_area.c:87:5
	ldr	r1, [sp, #12]
	.loc	3 87 18                         @ lvgl/src/lv_misc/lv_area.c:87:18
	strh	r0, [r1, #2]
	.loc	3 88 23 is_stmt 1               @ lvgl/src/lv_misc/lv_area.c:88:23
	ldr	r0, [sp, #12]
	.loc	3 88 31 is_stmt 0               @ lvgl/src/lv_misc/lv_area.c:88:31
	ldrsh.w	r1, [sp, #6]
	.loc	3 88 5                          @ lvgl/src/lv_misc/lv_area.c:88:5
	bl	lv_area_set_width
	.loc	3 89 24 is_stmt 1               @ lvgl/src/lv_misc/lv_area.c:89:24
	ldr	r0, [sp, #12]
	.loc	3 89 32 is_stmt 0               @ lvgl/src/lv_misc/lv_area.c:89:32
	ldrsh.w	r1, [sp, #4]
	.loc	3 89 5                          @ lvgl/src/lv_misc/lv_area.c:89:5
	bl	lv_area_set_height
	.loc	3 90 1 is_stmt 1                @ lvgl/src/lv_misc/lv_area.c:90:1
	add	sp, #16
	pop	{r7, pc}
.Ltmp7:
.Lfunc_end3:
	.size	_lv_area_set_pos, .Lfunc_end3-_lv_area_set_pos
	.cfi_endproc
	.cantunwind
	.fnend
                                        @ -- End function
	.section	.text.lv_area_get_width,"ax",%progbits
	.p2align	3                               @ -- Begin function lv_area_get_width
	.type	lv_area_get_width,%function
	.code	16                              @ @lv_area_get_width
	.thumb_func
lv_area_get_width:
.Lfunc_begin4:
	.file	4 "E:\\Smart-access-control\\Hardware\\CODE" "lvgl/src/lv_misc/lv_area.h"
	.loc	4 108 0                         @ lvgl/src/lv_misc/lv_area.h:108:0
	.fnstart
	.cfi_startproc
@ %bb.0:
	.pad	#4
	sub	sp, #4
	.cfi_def_cfa_offset 4
	str	r0, [sp]
.Ltmp8:
	.loc	4 109 25 prologue_end           @ lvgl/src/lv_misc/lv_area.h:109:25
	ldr	r1, [sp]
	ldrh	r0, [r1, #4]
	.loc	4 109 38 is_stmt 0              @ lvgl/src/lv_misc/lv_area.h:109:38
	ldrh	r1, [r1]
	.loc	4 109 36                        @ lvgl/src/lv_misc/lv_area.h:109:36
	subs	r0, r0, r1
	.loc	4 109 49                        @ lvgl/src/lv_misc/lv_area.h:109:49
	adds	r0, #1
	.loc	4 109 5                         @ lvgl/src/lv_misc/lv_area.h:109:5
	sxth	r0, r0
	add	sp, #4
	bx	lr
.Ltmp9:
.Lfunc_end4:
	.size	lv_area_get_width, .Lfunc_end4-lv_area_get_width
	.cfi_endproc
	.cantunwind
	.fnend
                                        @ -- End function
	.section	.text.lv_area_get_height,"ax",%progbits
	.p2align	3                               @ -- Begin function lv_area_get_height
	.type	lv_area_get_height,%function
	.code	16                              @ @lv_area_get_height
	.thumb_func
lv_area_get_height:
.Lfunc_begin5:
	.loc	4 118 0 is_stmt 1               @ lvgl/src/lv_misc/lv_area.h:118:0
	.fnstart
	.cfi_startproc
@ %bb.0:
	.pad	#4
	sub	sp, #4
	.cfi_def_cfa_offset 4
	str	r0, [sp]
.Ltmp10:
	.loc	4 119 25 prologue_end           @ lvgl/src/lv_misc/lv_area.h:119:25
	ldr	r1, [sp]
	ldrh	r0, [r1, #6]
	.loc	4 119 38 is_stmt 0              @ lvgl/src/lv_misc/lv_area.h:119:38
	ldrh	r1, [r1, #2]
	.loc	4 119 36                        @ lvgl/src/lv_misc/lv_area.h:119:36
	subs	r0, r0, r1
	.loc	4 119 49                        @ lvgl/src/lv_misc/lv_area.h:119:49
	adds	r0, #1
	.loc	4 119 5                         @ lvgl/src/lv_misc/lv_area.h:119:5
	sxth	r0, r0
	add	sp, #4
	bx	lr
.Ltmp11:
.Lfunc_end5:
	.size	lv_area_get_height, .Lfunc_end5-lv_area_get_height
	.cfi_endproc
	.cantunwind
	.fnend
                                        @ -- End function
	.section	.text.lv_area_get_size,"ax",%progbits
	.hidden	lv_area_get_size                @ -- Begin function lv_area_get_size
	.globl	lv_area_get_size
	.p2align	3
	.type	lv_area_get_size,%function
	.code	16                              @ @lv_area_get_size
	.thumb_func
lv_area_get_size:
.Lfunc_begin6:
	.loc	3 98 0 is_stmt 1                @ lvgl/src/lv_misc/lv_area.c:98:0
	.fnstart
	.cfi_startproc
@ %bb.0:
	.pad	#8
	sub	sp, #8
	.cfi_def_cfa_offset 8
	str	r0, [sp, #4]
.Ltmp12:
	.loc	3 101 23 prologue_end           @ lvgl/src/lv_misc/lv_area.c:101:23
	ldr	r1, [sp, #4]
	.loc	3 101 44 is_stmt 0              @ lvgl/src/lv_misc/lv_area.c:101:44
	ldrsh.w	r3, [r1]
	.loc	3 101 76                        @ lvgl/src/lv_misc/lv_area.c:101:76
	ldrsh.w	r2, [r1, #2]
	.loc	3 101 31                        @ lvgl/src/lv_misc/lv_area.c:101:31
	ldrsh.w	r0, [r1, #4]
	.loc	3 101 63                        @ lvgl/src/lv_misc/lv_area.c:101:63
	ldrsh.w	r1, [r1, #6]
	.loc	3 101 34                        @ lvgl/src/lv_misc/lv_area.c:101:34
	subs	r0, r0, r3
	.loc	3 101 47                        @ lvgl/src/lv_misc/lv_area.c:101:47
	adds	r0, #1
	.loc	3 101 66                        @ lvgl/src/lv_misc/lv_area.c:101:66
	subs	r1, r1, r2
	.loc	3 101 79                        @ lvgl/src/lv_misc/lv_area.c:101:79
	adds	r1, #1
	.loc	3 101 52                        @ lvgl/src/lv_misc/lv_area.c:101:52
	muls	r0, r1, r0
	.loc	3 101 10                        @ lvgl/src/lv_misc/lv_area.c:101:10
	str	r0, [sp]
	.loc	3 103 12 is_stmt 1              @ lvgl/src/lv_misc/lv_area.c:103:12
	ldr	r0, [sp]
	.loc	3 103 5 is_stmt 0               @ lvgl/src/lv_misc/lv_area.c:103:5
	add	sp, #8
	bx	lr
.Ltmp13:
.Lfunc_end6:
	.size	lv_area_get_size, .Lfunc_end6-lv_area_get_size
	.cfi_endproc
	.cantunwind
	.fnend
                                        @ -- End function
	.section	.text._lv_area_intersect,"ax",%progbits
	.hidden	_lv_area_intersect              @ -- Begin function _lv_area_intersect
	.globl	_lv_area_intersect
	.p2align	3
	.type	_lv_area_intersect,%function
	.code	16                              @ @_lv_area_intersect
	.thumb_func
_lv_area_intersect:
.Lfunc_begin7:
	.loc	3 114 0 is_stmt 1               @ lvgl/src/lv_misc/lv_area.c:114:0
	.fnstart
	.cfi_startproc
@ %bb.0:
	.pad	#32
	sub	sp, #32
	.cfi_def_cfa_offset 32
	str	r0, [sp, #28]
	str	r1, [sp, #24]
	str	r2, [sp, #20]
.Ltmp14:
	.loc	3 116 17 prologue_end           @ lvgl/src/lv_misc/lv_area.c:116:17
	ldr	r0, [sp, #24]
	ldrsh.w	r0, [r0]
	ldr	r1, [sp, #20]
	ldrsh.w	r1, [r1]
	cmp	r0, r1
	ble	.LBB7_2
	b	.LBB7_1
.LBB7_1:
	ldr	r0, [sp, #24]
	ldrsh.w	r0, [r0]
	str	r0, [sp, #12]                   @ 4-byte Spill
	b	.LBB7_3
.LBB7_2:
	ldr	r0, [sp, #20]
	ldrsh.w	r0, [r0]
	str	r0, [sp, #12]                   @ 4-byte Spill
	b	.LBB7_3
.LBB7_3:
	ldr	r0, [sp, #12]                   @ 4-byte Reload
	.loc	3 116 5 is_stmt 0               @ lvgl/src/lv_misc/lv_area.c:116:5
	ldr	r1, [sp, #28]
	.loc	3 116 15                        @ lvgl/src/lv_misc/lv_area.c:116:15
	strh	r0, [r1]
	.loc	3 117 17 is_stmt 1              @ lvgl/src/lv_misc/lv_area.c:117:17
	ldr	r0, [sp, #24]
	ldrsh.w	r0, [r0, #2]
	ldr	r1, [sp, #20]
	ldrsh.w	r1, [r1, #2]
	cmp	r0, r1
	ble	.LBB7_5
	b	.LBB7_4
.LBB7_4:
	ldr	r0, [sp, #24]
	ldrsh.w	r0, [r0, #2]
	str	r0, [sp, #8]                    @ 4-byte Spill
	b	.LBB7_6
.LBB7_5:
	ldr	r0, [sp, #20]
	ldrsh.w	r0, [r0, #2]
	str	r0, [sp, #8]                    @ 4-byte Spill
	b	.LBB7_6
.LBB7_6:
	ldr	r0, [sp, #8]                    @ 4-byte Reload
	.loc	3 117 5 is_stmt 0               @ lvgl/src/lv_misc/lv_area.c:117:5
	ldr	r1, [sp, #28]
	.loc	3 117 15                        @ lvgl/src/lv_misc/lv_area.c:117:15
	strh	r0, [r1, #2]
	.loc	3 118 17 is_stmt 1              @ lvgl/src/lv_misc/lv_area.c:118:17
	ldr	r0, [sp, #24]
	ldrsh.w	r0, [r0, #4]
	ldr	r1, [sp, #20]
	ldrsh.w	r1, [r1, #4]
	cmp	r0, r1
	bge	.LBB7_8
	b	.LBB7_7
.LBB7_7:
	ldr	r0, [sp, #24]
	ldrsh.w	r0, [r0, #4]
	str	r0, [sp, #4]                    @ 4-byte Spill
	b	.LBB7_9
.LBB7_8:
	ldr	r0, [sp, #20]
	ldrsh.w	r0, [r0, #4]
	str	r0, [sp, #4]                    @ 4-byte Spill
	b	.LBB7_9
.LBB7_9:
	ldr	r0, [sp, #4]                    @ 4-byte Reload
	.loc	3 118 5 is_stmt 0               @ lvgl/src/lv_misc/lv_area.c:118:5
	ldr	r1, [sp, #28]
	.loc	3 118 15                        @ lvgl/src/lv_misc/lv_area.c:118:15
	strh	r0, [r1, #4]
	.loc	3 119 17 is_stmt 1              @ lvgl/src/lv_misc/lv_area.c:119:17
	ldr	r0, [sp, #24]
	ldrsh.w	r0, [r0, #6]
	ldr	r1, [sp, #20]
	ldrsh.w	r1, [r1, #6]
	cmp	r0, r1
	bge	.LBB7_11
	b	.LBB7_10
.LBB7_10:
	ldr	r0, [sp, #24]
	ldrsh.w	r0, [r0, #6]
	str	r0, [sp]                        @ 4-byte Spill
	b	.LBB7_12
.LBB7_11:
	ldr	r0, [sp, #20]
	ldrsh.w	r0, [r0, #6]
	str	r0, [sp]                        @ 4-byte Spill
	b	.LBB7_12
.LBB7_12:
	ldr	r0, [sp]                        @ 4-byte Reload
	.loc	3 119 5 is_stmt 0               @ lvgl/src/lv_misc/lv_area.c:119:5
	ldr	r1, [sp, #28]
	.loc	3 119 15                        @ lvgl/src/lv_misc/lv_area.c:119:15
	strh	r0, [r1, #6]
	movs	r0, #1
	.loc	3 122 10 is_stmt 1              @ lvgl/src/lv_misc/lv_area.c:122:10
	strb.w	r0, [sp, #19]
.Ltmp15:
	.loc	3 123 9                         @ lvgl/src/lv_misc/lv_area.c:123:9
	ldr	r1, [sp, #28]
	.loc	3 123 16 is_stmt 0              @ lvgl/src/lv_misc/lv_area.c:123:16
	ldrsh.w	r0, [r1]
	.loc	3 123 28                        @ lvgl/src/lv_misc/lv_area.c:123:28
	ldrsh.w	r1, [r1, #4]
	.loc	3 123 32                        @ lvgl/src/lv_misc/lv_area.c:123:32
	cmp	r0, r1
	bgt	.LBB7_14
	b	.LBB7_13
.LBB7_13:
	.loc	3 123 36                        @ lvgl/src/lv_misc/lv_area.c:123:36
	ldr	r1, [sp, #28]
	.loc	3 123 43                        @ lvgl/src/lv_misc/lv_area.c:123:43
	ldrsh.w	r0, [r1, #2]
	.loc	3 123 55                        @ lvgl/src/lv_misc/lv_area.c:123:55
	ldrsh.w	r1, [r1, #6]
.Ltmp16:
	.loc	3 123 8                         @ lvgl/src/lv_misc/lv_area.c:123:8
	cmp	r0, r1
	ble	.LBB7_15
	b	.LBB7_14
.LBB7_14:
	.loc	3 0 8                           @ lvgl/src/lv_misc/lv_area.c:0:8
	movs	r0, #0
.Ltmp17:
	.loc	3 124 18 is_stmt 1              @ lvgl/src/lv_misc/lv_area.c:124:18
	strb.w	r0, [sp, #19]
	.loc	3 125 5                         @ lvgl/src/lv_misc/lv_area.c:125:5
	b	.LBB7_15
.Ltmp18:
.LBB7_15:
	.loc	3 127 5                         @ lvgl/src/lv_misc/lv_area.c:127:5
	ldrb.w	r0, [sp, #19]
	and	r0, r0, #1
	add	sp, #32
	bx	lr
.Ltmp19:
.Lfunc_end7:
	.size	_lv_area_intersect, .Lfunc_end7-_lv_area_intersect
	.cfi_endproc
	.cantunwind
	.fnend
                                        @ -- End function
	.section	.text._lv_area_join,"ax",%progbits
	.hidden	_lv_area_join                   @ -- Begin function _lv_area_join
	.globl	_lv_area_join
	.p2align	3
	.type	_lv_area_join,%function
	.code	16                              @ @_lv_area_join
	.thumb_func
_lv_area_join:
.Lfunc_begin8:
	.loc	3 136 0                         @ lvgl/src/lv_misc/lv_area.c:136:0
	.fnstart
	.cfi_startproc
@ %bb.0:
	.pad	#28
	sub	sp, #28
	.cfi_def_cfa_offset 28
	str	r0, [sp, #24]
	str	r1, [sp, #20]
	str	r2, [sp, #16]
.Ltmp20:
	.loc	3 137 19 prologue_end           @ lvgl/src/lv_misc/lv_area.c:137:19
	ldr	r0, [sp, #20]
	ldrsh.w	r0, [r0]
	ldr	r1, [sp, #16]
	ldrsh.w	r1, [r1]
	cmp	r0, r1
	bge	.LBB8_2
	b	.LBB8_1
.LBB8_1:
	ldr	r0, [sp, #20]
	ldrsh.w	r0, [r0]
	str	r0, [sp, #12]                   @ 4-byte Spill
	b	.LBB8_3
.LBB8_2:
	ldr	r0, [sp, #16]
	ldrsh.w	r0, [r0]
	str	r0, [sp, #12]                   @ 4-byte Spill
	b	.LBB8_3
.LBB8_3:
	ldr	r0, [sp, #12]                   @ 4-byte Reload
	.loc	3 137 5 is_stmt 0               @ lvgl/src/lv_misc/lv_area.c:137:5
	ldr	r1, [sp, #24]
	.loc	3 137 17                        @ lvgl/src/lv_misc/lv_area.c:137:17
	strh	r0, [r1]
	.loc	3 138 19 is_stmt 1              @ lvgl/src/lv_misc/lv_area.c:138:19
	ldr	r0, [sp, #20]
	ldrsh.w	r0, [r0, #2]
	ldr	r1, [sp, #16]
	ldrsh.w	r1, [r1, #2]
	cmp	r0, r1
	bge	.LBB8_5
	b	.LBB8_4
.LBB8_4:
	ldr	r0, [sp, #20]
	ldrsh.w	r0, [r0, #2]
	str	r0, [sp, #8]                    @ 4-byte Spill
	b	.LBB8_6
.LBB8_5:
	ldr	r0, [sp, #16]
	ldrsh.w	r0, [r0, #2]
	str	r0, [sp, #8]                    @ 4-byte Spill
	b	.LBB8_6
.LBB8_6:
	ldr	r0, [sp, #8]                    @ 4-byte Reload
	.loc	3 138 5 is_stmt 0               @ lvgl/src/lv_misc/lv_area.c:138:5
	ldr	r1, [sp, #24]
	.loc	3 138 17                        @ lvgl/src/lv_misc/lv_area.c:138:17
	strh	r0, [r1, #2]
	.loc	3 139 19 is_stmt 1              @ lvgl/src/lv_misc/lv_area.c:139:19
	ldr	r0, [sp, #20]
	ldrsh.w	r0, [r0, #4]
	ldr	r1, [sp, #16]
	ldrsh.w	r1, [r1, #4]
	cmp	r0, r1
	ble	.LBB8_8
	b	.LBB8_7
.LBB8_7:
	ldr	r0, [sp, #20]
	ldrsh.w	r0, [r0, #4]
	str	r0, [sp, #4]                    @ 4-byte Spill
	b	.LBB8_9
.LBB8_8:
	ldr	r0, [sp, #16]
	ldrsh.w	r0, [r0, #4]
	str	r0, [sp, #4]                    @ 4-byte Spill
	b	.LBB8_9
.LBB8_9:
	ldr	r0, [sp, #4]                    @ 4-byte Reload
	.loc	3 139 5 is_stmt 0               @ lvgl/src/lv_misc/lv_area.c:139:5
	ldr	r1, [sp, #24]
	.loc	3 139 17                        @ lvgl/src/lv_misc/lv_area.c:139:17
	strh	r0, [r1, #4]
	.loc	3 140 19 is_stmt 1              @ lvgl/src/lv_misc/lv_area.c:140:19
	ldr	r0, [sp, #20]
	ldrsh.w	r0, [r0, #6]
	ldr	r1, [sp, #16]
	ldrsh.w	r1, [r1, #6]
	cmp	r0, r1
	ble	.LBB8_11
	b	.LBB8_10
.LBB8_10:
	ldr	r0, [sp, #20]
	ldrsh.w	r0, [r0, #6]
	str	r0, [sp]                        @ 4-byte Spill
	b	.LBB8_12
.LBB8_11:
	ldr	r0, [sp, #16]
	ldrsh.w	r0, [r0, #6]
	str	r0, [sp]                        @ 4-byte Spill
	b	.LBB8_12
.LBB8_12:
	ldr	r0, [sp]                        @ 4-byte Reload
	.loc	3 140 5 is_stmt 0               @ lvgl/src/lv_misc/lv_area.c:140:5
	ldr	r1, [sp, #24]
	.loc	3 140 17                        @ lvgl/src/lv_misc/lv_area.c:140:17
	strh	r0, [r1, #6]
	.loc	3 141 1 is_stmt 1               @ lvgl/src/lv_misc/lv_area.c:141:1
	add	sp, #28
	bx	lr
.Ltmp21:
.Lfunc_end8:
	.size	_lv_area_join, .Lfunc_end8-_lv_area_join
	.cfi_endproc
	.cantunwind
	.fnend
                                        @ -- End function
	.section	.text._lv_area_is_point_on,"ax",%progbits
	.hidden	_lv_area_is_point_on            @ -- Begin function _lv_area_is_point_on
	.globl	_lv_area_is_point_on
	.p2align	3
	.type	_lv_area_is_point_on,%function
	.code	16                              @ @_lv_area_is_point_on
	.thumb_func
_lv_area_is_point_on:
.Lfunc_begin9:
	.loc	3 151 0                         @ lvgl/src/lv_misc/lv_area.c:151:0
	.fnstart
	.cfi_startproc
@ %bb.0:
	.save	{r7, lr}
	push	{r7, lr}
	.cfi_def_cfa_offset 8
	.cfi_offset lr, -4
	.cfi_offset r7, -8
	.pad	#40
	sub	sp, #40
	.cfi_def_cfa_offset 48
                                        @ kill: def $r3 killed $r2
	str	r0, [sp, #32]
	str	r1, [sp, #28]
	strh.w	r2, [sp, #26]
	movs	r0, #0
.Ltmp22:
	.loc	3 153 10 prologue_end           @ lvgl/src/lv_misc/lv_area.c:153:10
	strb.w	r0, [sp, #25]
.Ltmp23:
	.loc	3 154 9                         @ lvgl/src/lv_misc/lv_area.c:154:9
	ldr	r0, [sp, #28]
	.loc	3 154 14 is_stmt 0              @ lvgl/src/lv_misc/lv_area.c:154:14
	ldrsh.w	r0, [r0]
	.loc	3 154 19                        @ lvgl/src/lv_misc/lv_area.c:154:19
	ldr	r1, [sp, #32]
	.loc	3 154 24                        @ lvgl/src/lv_misc/lv_area.c:154:24
	ldrsh.w	r1, [r1]
	.loc	3 154 27                        @ lvgl/src/lv_misc/lv_area.c:154:27
	cmp	r0, r1
	blt	.LBB9_5
	b	.LBB9_1
.LBB9_1:
	.loc	3 154 30                        @ lvgl/src/lv_misc/lv_area.c:154:30
	ldr	r0, [sp, #28]
	.loc	3 154 35                        @ lvgl/src/lv_misc/lv_area.c:154:35
	ldrsh.w	r0, [r0]
	.loc	3 154 40                        @ lvgl/src/lv_misc/lv_area.c:154:40
	ldr	r1, [sp, #32]
	.loc	3 154 45                        @ lvgl/src/lv_misc/lv_area.c:154:45
	ldrsh.w	r1, [r1, #4]
	.loc	3 154 49                        @ lvgl/src/lv_misc/lv_area.c:154:49
	cmp	r0, r1
	bgt	.LBB9_5
	b	.LBB9_2
.LBB9_2:
	.loc	3 154 54                        @ lvgl/src/lv_misc/lv_area.c:154:54
	ldr	r0, [sp, #28]
	.loc	3 154 59                        @ lvgl/src/lv_misc/lv_area.c:154:59
	ldrsh.w	r0, [r0, #2]
	.loc	3 154 64                        @ lvgl/src/lv_misc/lv_area.c:154:64
	ldr	r1, [sp, #32]
	.loc	3 154 69                        @ lvgl/src/lv_misc/lv_area.c:154:69
	ldrsh.w	r1, [r1, #2]
	.loc	3 154 72                        @ lvgl/src/lv_misc/lv_area.c:154:72
	cmp	r0, r1
	blt	.LBB9_5
	b	.LBB9_3
.LBB9_3:
	.loc	3 154 75                        @ lvgl/src/lv_misc/lv_area.c:154:75
	ldr	r0, [sp, #28]
	.loc	3 154 80                        @ lvgl/src/lv_misc/lv_area.c:154:80
	ldrsh.w	r0, [r0, #2]
	.loc	3 154 85                        @ lvgl/src/lv_misc/lv_area.c:154:85
	ldr	r1, [sp, #32]
	.loc	3 154 90                        @ lvgl/src/lv_misc/lv_area.c:154:90
	ldrsh.w	r1, [r1, #6]
.Ltmp24:
	.loc	3 154 8                         @ lvgl/src/lv_misc/lv_area.c:154:8
	cmp	r0, r1
	bgt	.LBB9_5
	b	.LBB9_4
.LBB9_4:
	.loc	3 0 8                           @ lvgl/src/lv_misc/lv_area.c:0:8
	movs	r0, #1
.Ltmp25:
	.loc	3 155 20 is_stmt 1              @ lvgl/src/lv_misc/lv_area.c:155:20
	strb.w	r0, [sp, #25]
	.loc	3 156 5                         @ lvgl/src/lv_misc/lv_area.c:156:5
	b	.LBB9_5
.Ltmp26:
.LBB9_5:
	.loc	3 157 9                         @ lvgl/src/lv_misc/lv_area.c:157:9
	ldrb.w	r0, [sp, #25]
.Ltmp27:
	.loc	3 157 8 is_stmt 0               @ lvgl/src/lv_misc/lv_area.c:157:8
	lsls	r0, r0, #31
	cbnz	r0, .LBB9_7
	b	.LBB9_6
.LBB9_6:
	.loc	3 0 8                           @ lvgl/src/lv_misc/lv_area.c:0:8
	movs	r0, #0
.Ltmp28:
	.loc	3 158 9 is_stmt 1               @ lvgl/src/lv_misc/lv_area.c:158:9
	strb.w	r0, [sp, #39]
	b	.LBB9_23
.Ltmp29:
.LBB9_7:
	.loc	3 160 8                         @ lvgl/src/lv_misc/lv_area.c:160:8
	ldrsh.w	r0, [sp, #26]
.Ltmp30:
	.loc	3 160 8 is_stmt 0               @ lvgl/src/lv_misc/lv_area.c:160:8
	cmp	r0, #0
	bgt	.LBB9_9
	b	.LBB9_8
.LBB9_8:
	.loc	3 0 8                           @ lvgl/src/lv_misc/lv_area.c:0:8
	movs	r0, #1
.Ltmp31:
	.loc	3 162 9 is_stmt 1               @ lvgl/src/lv_misc/lv_area.c:162:9
	strb.w	r0, [sp, #39]
	b	.LBB9_23
.Ltmp32:
.LBB9_9:
	.loc	3 164 38                        @ lvgl/src/lv_misc/lv_area.c:164:38
	ldr	r0, [sp, #32]
	.loc	3 164 20 is_stmt 0              @ lvgl/src/lv_misc/lv_area.c:164:20
	bl	lv_area_get_width
	.loc	3 164 43                        @ lvgl/src/lv_misc/lv_area.c:164:43
	add.w	r0, r0, r0, lsr #31
	lsrs	r0, r0, #1
	.loc	3 164 16                        @ lvgl/src/lv_misc/lv_area.c:164:16
	strh.w	r0, [sp, #22]
	.loc	3 165 39 is_stmt 1              @ lvgl/src/lv_misc/lv_area.c:165:39
	ldr	r0, [sp, #32]
	.loc	3 165 20 is_stmt 0              @ lvgl/src/lv_misc/lv_area.c:165:20
	bl	lv_area_get_height
	.loc	3 165 44                        @ lvgl/src/lv_misc/lv_area.c:165:44
	add.w	r0, r0, r0, lsr #31
	lsrs	r0, r0, #1
	.loc	3 165 16                        @ lvgl/src/lv_misc/lv_area.c:165:16
	strh.w	r0, [sp, #20]
	.loc	3 166 29 is_stmt 1              @ lvgl/src/lv_misc/lv_area.c:166:29
	ldrsh.w	r0, [sp, #22]
	ldrsh.w	r1, [sp, #20]
	cmp	r0, r1
	bge	.LBB9_11
	b	.LBB9_10
.LBB9_10:
	ldrsh.w	r0, [sp, #22]
	str	r0, [sp, #4]                    @ 4-byte Spill
	b	.LBB9_12
.LBB9_11:
	ldrsh.w	r0, [sp, #20]
	str	r0, [sp, #4]                    @ 4-byte Spill
	b	.LBB9_12
.LBB9_12:
	ldr	r0, [sp, #4]                    @ 4-byte Reload
	.loc	3 166 16 is_stmt 0              @ lvgl/src/lv_misc/lv_area.c:166:16
	strh.w	r0, [sp, #18]
.Ltmp33:
	.loc	3 167 8 is_stmt 1               @ lvgl/src/lv_misc/lv_area.c:167:8
	ldrsh.w	r0, [sp, #26]
	.loc	3 167 17 is_stmt 0              @ lvgl/src/lv_misc/lv_area.c:167:17
	ldrsh.w	r1, [sp, #18]
.Ltmp34:
	.loc	3 167 8                         @ lvgl/src/lv_misc/lv_area.c:167:8
	cmp	r0, r1
	ble	.LBB9_14
	b	.LBB9_13
.LBB9_13:
.Ltmp35:
	.loc	3 168 18 is_stmt 1              @ lvgl/src/lv_misc/lv_area.c:168:18
	ldrh.w	r0, [sp, #18]
	.loc	3 168 16 is_stmt 0              @ lvgl/src/lv_misc/lv_area.c:168:16
	strh.w	r0, [sp, #26]
	.loc	3 168 9                         @ lvgl/src/lv_misc/lv_area.c:168:9
	b	.LBB9_14
.Ltmp36:
.LBB9_14:
	.loc	3 173 22 is_stmt 1              @ lvgl/src/lv_misc/lv_area.c:173:22
	ldr	r0, [sp, #32]
	.loc	3 173 27 is_stmt 0              @ lvgl/src/lv_misc/lv_area.c:173:27
	ldrh	r0, [r0]
	.loc	3 173 20                        @ lvgl/src/lv_misc/lv_area.c:173:20
	strh.w	r0, [sp, #8]
	.loc	3 174 22 is_stmt 1              @ lvgl/src/lv_misc/lv_area.c:174:22
	ldr	r0, [sp, #32]
	ldrh	r0, [r0]
	.loc	3 174 32 is_stmt 0              @ lvgl/src/lv_misc/lv_area.c:174:32
	ldrh.w	r1, [sp, #26]
	.loc	3 174 30                        @ lvgl/src/lv_misc/lv_area.c:174:30
	add	r0, r1
	.loc	3 174 20                        @ lvgl/src/lv_misc/lv_area.c:174:20
	strh.w	r0, [sp, #12]
	.loc	3 175 22 is_stmt 1              @ lvgl/src/lv_misc/lv_area.c:175:22
	ldr	r0, [sp, #32]
	.loc	3 175 27 is_stmt 0              @ lvgl/src/lv_misc/lv_area.c:175:27
	ldrh	r0, [r0, #2]
	.loc	3 175 20                        @ lvgl/src/lv_misc/lv_area.c:175:20
	strh.w	r0, [sp, #10]
	.loc	3 176 22 is_stmt 1              @ lvgl/src/lv_misc/lv_area.c:176:22
	ldr	r0, [sp, #32]
	ldrh	r0, [r0, #2]
	.loc	3 176 32 is_stmt 0              @ lvgl/src/lv_misc/lv_area.c:176:32
	ldrh.w	r1, [sp, #26]
	.loc	3 176 30                        @ lvgl/src/lv_misc/lv_area.c:176:30
	add	r0, r1
	.loc	3 176 20                        @ lvgl/src/lv_misc/lv_area.c:176:20
	strh.w	r0, [sp, #14]
.Ltmp37:
	.loc	3 177 43 is_stmt 1              @ lvgl/src/lv_misc/lv_area.c:177:43
	ldr	r1, [sp, #28]
	add	r0, sp, #8
	movs	r2, #0
	.loc	3 177 8 is_stmt 0               @ lvgl/src/lv_misc/lv_area.c:177:8
	bl	_lv_area_is_point_on
.Ltmp38:
	.loc	3 177 8                         @ lvgl/src/lv_misc/lv_area.c:177:8
	cbz	r0, .LBB9_16
	b	.LBB9_15
.LBB9_15:
.Ltmp39:
	.loc	3 178 27 is_stmt 1              @ lvgl/src/lv_misc/lv_area.c:178:27
	ldrh.w	r1, [sp, #26]
	.loc	3 178 24 is_stmt 0              @ lvgl/src/lv_misc/lv_area.c:178:24
	ldrh.w	r0, [sp, #12]
	add	r0, r1
	strh.w	r0, [sp, #12]
	.loc	3 179 27 is_stmt 1              @ lvgl/src/lv_misc/lv_area.c:179:27
	ldrh.w	r1, [sp, #26]
	.loc	3 179 24 is_stmt 0              @ lvgl/src/lv_misc/lv_area.c:179:24
	ldrh.w	r0, [sp, #14]
	add	r0, r1
	strh.w	r0, [sp, #14]
	.loc	3 180 53 is_stmt 1              @ lvgl/src/lv_misc/lv_area.c:180:53
	ldr	r1, [sp, #28]
	add	r0, sp, #8
	.loc	3 180 16 is_stmt 0              @ lvgl/src/lv_misc/lv_area.c:180:16
	bl	lv_point_within_circle
	.loc	3 180 9                         @ lvgl/src/lv_misc/lv_area.c:180:9
	strb.w	r0, [sp, #39]
	b	.LBB9_23
.Ltmp40:
.LBB9_16:
	.loc	3 183 22 is_stmt 1              @ lvgl/src/lv_misc/lv_area.c:183:22
	ldr	r0, [sp, #32]
	ldrh	r0, [r0, #6]
	.loc	3 183 32 is_stmt 0              @ lvgl/src/lv_misc/lv_area.c:183:32
	ldrh.w	r1, [sp, #26]
	.loc	3 183 30                        @ lvgl/src/lv_misc/lv_area.c:183:30
	subs	r0, r0, r1
	.loc	3 183 20                        @ lvgl/src/lv_misc/lv_area.c:183:20
	strh.w	r0, [sp, #10]
	.loc	3 184 22 is_stmt 1              @ lvgl/src/lv_misc/lv_area.c:184:22
	ldr	r0, [sp, #32]
	.loc	3 184 27 is_stmt 0              @ lvgl/src/lv_misc/lv_area.c:184:27
	ldrh	r0, [r0, #6]
	.loc	3 184 20                        @ lvgl/src/lv_misc/lv_area.c:184:20
	strh.w	r0, [sp, #14]
.Ltmp41:
	.loc	3 185 43 is_stmt 1              @ lvgl/src/lv_misc/lv_area.c:185:43
	ldr	r1, [sp, #28]
	add	r0, sp, #8
	movs	r2, #0
	.loc	3 185 8 is_stmt 0               @ lvgl/src/lv_misc/lv_area.c:185:8
	bl	_lv_area_is_point_on
.Ltmp42:
	.loc	3 185 8                         @ lvgl/src/lv_misc/lv_area.c:185:8
	cbz	r0, .LBB9_18
	b	.LBB9_17
.LBB9_17:
.Ltmp43:
	.loc	3 186 27 is_stmt 1              @ lvgl/src/lv_misc/lv_area.c:186:27
	ldrh.w	r1, [sp, #26]
	.loc	3 186 24 is_stmt 0              @ lvgl/src/lv_misc/lv_area.c:186:24
	ldrh.w	r0, [sp, #12]
	add	r0, r1
	strh.w	r0, [sp, #12]
	.loc	3 187 27 is_stmt 1              @ lvgl/src/lv_misc/lv_area.c:187:27
	ldrh.w	r1, [sp, #26]
	.loc	3 187 24 is_stmt 0              @ lvgl/src/lv_misc/lv_area.c:187:24
	ldrh.w	r0, [sp, #10]
	subs	r0, r0, r1
	strh.w	r0, [sp, #10]
	.loc	3 188 53 is_stmt 1              @ lvgl/src/lv_misc/lv_area.c:188:53
	ldr	r1, [sp, #28]
	add	r0, sp, #8
	.loc	3 188 16 is_stmt 0              @ lvgl/src/lv_misc/lv_area.c:188:16
	bl	lv_point_within_circle
	.loc	3 188 9                         @ lvgl/src/lv_misc/lv_area.c:188:9
	strb.w	r0, [sp, #39]
	b	.LBB9_23
.Ltmp44:
.LBB9_18:
	.loc	3 191 22 is_stmt 1              @ lvgl/src/lv_misc/lv_area.c:191:22
	ldr	r0, [sp, #32]
	ldrh	r0, [r0, #4]
	.loc	3 191 32 is_stmt 0              @ lvgl/src/lv_misc/lv_area.c:191:32
	ldrh.w	r1, [sp, #26]
	.loc	3 191 30                        @ lvgl/src/lv_misc/lv_area.c:191:30
	subs	r0, r0, r1
	.loc	3 191 20                        @ lvgl/src/lv_misc/lv_area.c:191:20
	strh.w	r0, [sp, #8]
	.loc	3 192 22 is_stmt 1              @ lvgl/src/lv_misc/lv_area.c:192:22
	ldr	r0, [sp, #32]
	.loc	3 192 27 is_stmt 0              @ lvgl/src/lv_misc/lv_area.c:192:27
	ldrh	r0, [r0, #4]
	.loc	3 192 20                        @ lvgl/src/lv_misc/lv_area.c:192:20
	strh.w	r0, [sp, #12]
.Ltmp45:
	.loc	3 193 43 is_stmt 1              @ lvgl/src/lv_misc/lv_area.c:193:43
	ldr	r1, [sp, #28]
	add	r0, sp, #8
	movs	r2, #0
	.loc	3 193 8 is_stmt 0               @ lvgl/src/lv_misc/lv_area.c:193:8
	bl	_lv_area_is_point_on
.Ltmp46:
	.loc	3 193 8                         @ lvgl/src/lv_misc/lv_area.c:193:8
	cbz	r0, .LBB9_20
	b	.LBB9_19
.LBB9_19:
.Ltmp47:
	.loc	3 194 27 is_stmt 1              @ lvgl/src/lv_misc/lv_area.c:194:27
	ldrh.w	r1, [sp, #26]
	.loc	3 194 24 is_stmt 0              @ lvgl/src/lv_misc/lv_area.c:194:24
	ldrh.w	r0, [sp, #8]
	subs	r0, r0, r1
	strh.w	r0, [sp, #8]
	.loc	3 195 27 is_stmt 1              @ lvgl/src/lv_misc/lv_area.c:195:27
	ldrh.w	r1, [sp, #26]
	.loc	3 195 24 is_stmt 0              @ lvgl/src/lv_misc/lv_area.c:195:24
	ldrh.w	r0, [sp, #10]
	subs	r0, r0, r1
	strh.w	r0, [sp, #10]
	.loc	3 196 53 is_stmt 1              @ lvgl/src/lv_misc/lv_area.c:196:53
	ldr	r1, [sp, #28]
	add	r0, sp, #8
	.loc	3 196 16 is_stmt 0              @ lvgl/src/lv_misc/lv_area.c:196:16
	bl	lv_point_within_circle
	.loc	3 196 9                         @ lvgl/src/lv_misc/lv_area.c:196:9
	strb.w	r0, [sp, #39]
	b	.LBB9_23
.Ltmp48:
.LBB9_20:
	.loc	3 199 22 is_stmt 1              @ lvgl/src/lv_misc/lv_area.c:199:22
	ldr	r0, [sp, #32]
	.loc	3 199 27 is_stmt 0              @ lvgl/src/lv_misc/lv_area.c:199:27
	ldrh	r0, [r0, #2]
	.loc	3 199 20                        @ lvgl/src/lv_misc/lv_area.c:199:20
	strh.w	r0, [sp, #10]
	.loc	3 200 22 is_stmt 1              @ lvgl/src/lv_misc/lv_area.c:200:22
	ldr	r0, [sp, #32]
	ldrh	r0, [r0, #2]
	.loc	3 200 32 is_stmt 0              @ lvgl/src/lv_misc/lv_area.c:200:32
	ldrh.w	r1, [sp, #26]
	.loc	3 200 30                        @ lvgl/src/lv_misc/lv_area.c:200:30
	add	r0, r1
	.loc	3 200 20                        @ lvgl/src/lv_misc/lv_area.c:200:20
	strh.w	r0, [sp, #14]
.Ltmp49:
	.loc	3 201 43 is_stmt 1              @ lvgl/src/lv_misc/lv_area.c:201:43
	ldr	r1, [sp, #28]
	add	r0, sp, #8
	movs	r2, #0
	.loc	3 201 8 is_stmt 0               @ lvgl/src/lv_misc/lv_area.c:201:8
	bl	_lv_area_is_point_on
.Ltmp50:
	.loc	3 201 8                         @ lvgl/src/lv_misc/lv_area.c:201:8
	cbz	r0, .LBB9_22
	b	.LBB9_21
.LBB9_21:
.Ltmp51:
	.loc	3 202 27 is_stmt 1              @ lvgl/src/lv_misc/lv_area.c:202:27
	ldrh.w	r1, [sp, #26]
	.loc	3 202 24 is_stmt 0              @ lvgl/src/lv_misc/lv_area.c:202:24
	ldrh.w	r0, [sp, #8]
	subs	r0, r0, r1
	strh.w	r0, [sp, #8]
	.loc	3 203 27 is_stmt 1              @ lvgl/src/lv_misc/lv_area.c:203:27
	ldrh.w	r1, [sp, #26]
	.loc	3 203 24 is_stmt 0              @ lvgl/src/lv_misc/lv_area.c:203:24
	ldrh.w	r0, [sp, #14]
	add	r0, r1
	strh.w	r0, [sp, #14]
	.loc	3 204 53 is_stmt 1              @ lvgl/src/lv_misc/lv_area.c:204:53
	ldr	r1, [sp, #28]
	add	r0, sp, #8
	.loc	3 204 16 is_stmt 0              @ lvgl/src/lv_misc/lv_area.c:204:16
	bl	lv_point_within_circle
	.loc	3 204 9                         @ lvgl/src/lv_misc/lv_area.c:204:9
	strb.w	r0, [sp, #39]
	b	.LBB9_23
.Ltmp52:
.LBB9_22:
	.loc	3 0 9                           @ lvgl/src/lv_misc/lv_area.c:0:9
	movs	r0, #1
	.loc	3 207 5 is_stmt 1               @ lvgl/src/lv_misc/lv_area.c:207:5
	strb.w	r0, [sp, #39]
	b	.LBB9_23
.LBB9_23:
	.loc	3 208 1                         @ lvgl/src/lv_misc/lv_area.c:208:1
	ldrb.w	r0, [sp, #39]
	add	sp, #40
	pop	{r7, pc}
.Ltmp53:
.Lfunc_end9:
	.size	_lv_area_is_point_on, .Lfunc_end9-_lv_area_is_point_on
	.cfi_endproc
	.cantunwind
	.fnend
                                        @ -- End function
	.section	.text.lv_point_within_circle,"ax",%progbits
	.p2align	3                               @ -- Begin function lv_point_within_circle
	.type	lv_point_within_circle,%function
	.code	16                              @ @lv_point_within_circle
	.thumb_func
lv_point_within_circle:
.Lfunc_begin10:
	.loc	3 391 0                         @ lvgl/src/lv_misc/lv_area.c:391:0
	.fnstart
	.cfi_startproc
@ %bb.0:
	.pad	#32
	sub	sp, #32
	.cfi_def_cfa_offset 32
	str	r0, [sp, #24]
	str	r1, [sp, #20]
.Ltmp54:
	.loc	3 392 21 prologue_end           @ lvgl/src/lv_misc/lv_area.c:392:21
	ldr	r0, [sp, #24]
	.loc	3 392 38 is_stmt 0              @ lvgl/src/lv_misc/lv_area.c:392:38
	ldrsh.w	r1, [r0]
	.loc	3 392 27                        @ lvgl/src/lv_misc/lv_area.c:392:27
	ldrsh.w	r0, [r0, #4]
	.loc	3 392 30                        @ lvgl/src/lv_misc/lv_area.c:392:30
	subs	r0, r0, r1
	.loc	3 392 42                        @ lvgl/src/lv_misc/lv_area.c:392:42
	add.w	r0, r0, r0, lsr #31
	lsrs	r0, r0, #1
	.loc	3 392 16                        @ lvgl/src/lv_misc/lv_area.c:392:16
	strh.w	r0, [sp, #18]
	.loc	3 395 21 is_stmt 1              @ lvgl/src/lv_misc/lv_area.c:395:21
	ldr	r0, [sp, #24]
	ldrh	r0, [r0]
	.loc	3 395 32 is_stmt 0              @ lvgl/src/lv_misc/lv_area.c:395:32
	ldrh.w	r1, [sp, #18]
	.loc	3 395 30                        @ lvgl/src/lv_misc/lv_area.c:395:30
	add	r0, r1
	.loc	3 395 16                        @ lvgl/src/lv_misc/lv_area.c:395:16
	strh.w	r0, [sp, #16]
	.loc	3 396 21 is_stmt 1              @ lvgl/src/lv_misc/lv_area.c:396:21
	ldr	r0, [sp, #24]
	ldrh	r0, [r0, #2]
	.loc	3 396 32 is_stmt 0              @ lvgl/src/lv_misc/lv_area.c:396:32
	ldrh.w	r1, [sp, #18]
	.loc	3 396 30                        @ lvgl/src/lv_misc/lv_area.c:396:30
	add	r0, r1
	.loc	3 396 16                        @ lvgl/src/lv_misc/lv_area.c:396:16
	strh.w	r0, [sp, #14]
	.loc	3 399 21 is_stmt 1              @ lvgl/src/lv_misc/lv_area.c:399:21
	ldr	r0, [sp, #20]
	ldrh	r0, [r0]
	.loc	3 399 28 is_stmt 0              @ lvgl/src/lv_misc/lv_area.c:399:28
	ldrh.w	r1, [sp, #16]
	.loc	3 399 26                        @ lvgl/src/lv_misc/lv_area.c:399:26
	subs	r0, r0, r1
	.loc	3 399 16                        @ lvgl/src/lv_misc/lv_area.c:399:16
	strh.w	r0, [sp, #12]
	.loc	3 400 21 is_stmt 1              @ lvgl/src/lv_misc/lv_area.c:400:21
	ldr	r0, [sp, #20]
	ldrh	r0, [r0, #2]
	.loc	3 400 28 is_stmt 0              @ lvgl/src/lv_misc/lv_area.c:400:28
	ldrh.w	r1, [sp, #14]
	.loc	3 400 26                        @ lvgl/src/lv_misc/lv_area.c:400:26
	subs	r0, r0, r1
	.loc	3 400 16                        @ lvgl/src/lv_misc/lv_area.c:400:16
	strh.w	r0, [sp, #10]
	.loc	3 402 23 is_stmt 1              @ lvgl/src/lv_misc/lv_area.c:402:23
	ldrsh.w	r0, [sp, #18]
	.loc	3 402 25 is_stmt 0              @ lvgl/src/lv_misc/lv_area.c:402:25
	muls	r0, r0, r0
	.loc	3 402 14                        @ lvgl/src/lv_misc/lv_area.c:402:14
	str	r0, [sp, #4]
	.loc	3 403 22 is_stmt 1              @ lvgl/src/lv_misc/lv_area.c:403:22
	ldrsh.w	r0, [sp, #12]
	.loc	3 403 25 is_stmt 0              @ lvgl/src/lv_misc/lv_area.c:403:25
	mul	r1, r0, r0
	.loc	3 403 34                        @ lvgl/src/lv_misc/lv_area.c:403:34
	ldrsh.w	r0, [sp, #10]
	.loc	3 403 31                        @ lvgl/src/lv_misc/lv_area.c:403:31
	smlabb	r0, r0, r0, r1
	.loc	3 403 14                        @ lvgl/src/lv_misc/lv_area.c:403:14
	str	r0, [sp]
.Ltmp55:
	.loc	3 405 8 is_stmt 1               @ lvgl/src/lv_misc/lv_area.c:405:8
	ldr	r0, [sp]
	.loc	3 405 16 is_stmt 0              @ lvgl/src/lv_misc/lv_area.c:405:16
	ldr	r1, [sp, #4]
.Ltmp56:
	.loc	3 405 8                         @ lvgl/src/lv_misc/lv_area.c:405:8
	cmp	r0, r1
	bhi	.LBB10_2
	b	.LBB10_1
.LBB10_1:
	.loc	3 0 8                           @ lvgl/src/lv_misc/lv_area.c:0:8
	movs	r0, #1
.Ltmp57:
	.loc	3 406 9 is_stmt 1               @ lvgl/src/lv_misc/lv_area.c:406:9
	strb.w	r0, [sp, #31]
	b	.LBB10_3
.LBB10_2:
	.loc	3 0 9 is_stmt 0                 @ lvgl/src/lv_misc/lv_area.c:0:9
	movs	r0, #0
	.loc	3 408 9 is_stmt 1               @ lvgl/src/lv_misc/lv_area.c:408:9
	strb.w	r0, [sp, #31]
	b	.LBB10_3
.Ltmp58:
.LBB10_3:
	.loc	3 409 1                         @ lvgl/src/lv_misc/lv_area.c:409:1
	ldrb.w	r0, [sp, #31]
	add	sp, #32
	bx	lr
.Ltmp59:
.Lfunc_end10:
	.size	lv_point_within_circle, .Lfunc_end10-lv_point_within_circle
	.cfi_endproc
	.cantunwind
	.fnend
                                        @ -- End function
	.section	.text._lv_area_is_on,"ax",%progbits
	.hidden	_lv_area_is_on                  @ -- Begin function _lv_area_is_on
	.globl	_lv_area_is_on
	.p2align	3
	.type	_lv_area_is_on,%function
	.code	16                              @ @_lv_area_is_on
	.thumb_func
_lv_area_is_on:
.Lfunc_begin11:
	.loc	3 217 0                         @ lvgl/src/lv_misc/lv_area.c:217:0
	.fnstart
	.cfi_startproc
@ %bb.0:
	.pad	#12
	sub	sp, #12
	.cfi_def_cfa_offset 12
	str	r0, [sp, #4]
	str	r1, [sp]
.Ltmp60:
	.loc	3 218 9 prologue_end            @ lvgl/src/lv_misc/lv_area.c:218:9
	ldr	r0, [sp, #4]
	.loc	3 218 15 is_stmt 0              @ lvgl/src/lv_misc/lv_area.c:218:15
	ldrsh.w	r0, [r0]
	.loc	3 218 21                        @ lvgl/src/lv_misc/lv_area.c:218:21
	ldr	r1, [sp]
	.loc	3 218 27                        @ lvgl/src/lv_misc/lv_area.c:218:27
	ldrsh.w	r1, [r1, #4]
	.loc	3 218 31                        @ lvgl/src/lv_misc/lv_area.c:218:31
	cmp	r0, r1
	bgt	.LBB11_5
	b	.LBB11_1
.LBB11_1:
	.loc	3 218 35                        @ lvgl/src/lv_misc/lv_area.c:218:35
	ldr	r0, [sp, #4]
	.loc	3 218 41                        @ lvgl/src/lv_misc/lv_area.c:218:41
	ldrsh.w	r0, [r0, #4]
	.loc	3 218 47                        @ lvgl/src/lv_misc/lv_area.c:218:47
	ldr	r1, [sp]
	.loc	3 218 53                        @ lvgl/src/lv_misc/lv_area.c:218:53
	ldrsh.w	r1, [r1]
	.loc	3 218 57                        @ lvgl/src/lv_misc/lv_area.c:218:57
	cmp	r0, r1
	blt	.LBB11_5
	b	.LBB11_2
.LBB11_2:
	.loc	3 218 61                        @ lvgl/src/lv_misc/lv_area.c:218:61
	ldr	r0, [sp, #4]
	.loc	3 218 67                        @ lvgl/src/lv_misc/lv_area.c:218:67
	ldrsh.w	r0, [r0, #2]
	.loc	3 218 73                        @ lvgl/src/lv_misc/lv_area.c:218:73
	ldr	r1, [sp]
	.loc	3 218 79                        @ lvgl/src/lv_misc/lv_area.c:218:79
	ldrsh.w	r1, [r1, #6]
	.loc	3 218 83                        @ lvgl/src/lv_misc/lv_area.c:218:83
	cmp	r0, r1
	bgt	.LBB11_5
	b	.LBB11_3
.LBB11_3:
	.loc	3 218 87                        @ lvgl/src/lv_misc/lv_area.c:218:87
	ldr	r0, [sp, #4]
	.loc	3 218 93                        @ lvgl/src/lv_misc/lv_area.c:218:93
	ldrsh.w	r0, [r0, #6]
	.loc	3 218 99                        @ lvgl/src/lv_misc/lv_area.c:218:99
	ldr	r1, [sp]
	.loc	3 218 105                       @ lvgl/src/lv_misc/lv_area.c:218:105
	ldrsh.w	r1, [r1, #2]
.Ltmp61:
	.loc	3 218 8                         @ lvgl/src/lv_misc/lv_area.c:218:8
	cmp	r0, r1
	blt	.LBB11_5
	b	.LBB11_4
.LBB11_4:
	.loc	3 0 8                           @ lvgl/src/lv_misc/lv_area.c:0:8
	movs	r0, #1
.Ltmp62:
	.loc	3 219 9 is_stmt 1               @ lvgl/src/lv_misc/lv_area.c:219:9
	strb.w	r0, [sp, #11]
	b	.LBB11_6
.Ltmp63:
.LBB11_5:
	.loc	3 0 9 is_stmt 0                 @ lvgl/src/lv_misc/lv_area.c:0:9
	movs	r0, #0
.Ltmp64:
	.loc	3 222 9 is_stmt 1               @ lvgl/src/lv_misc/lv_area.c:222:9
	strb.w	r0, [sp, #11]
	b	.LBB11_6
.Ltmp65:
.LBB11_6:
	.loc	3 224 1                         @ lvgl/src/lv_misc/lv_area.c:224:1
	ldrb.w	r0, [sp, #11]
	add	sp, #12
	bx	lr
.Ltmp66:
.Lfunc_end11:
	.size	_lv_area_is_on, .Lfunc_end11-_lv_area_is_on
	.cfi_endproc
	.cantunwind
	.fnend
                                        @ -- End function
	.section	.text._lv_area_is_in,"ax",%progbits
	.hidden	_lv_area_is_in                  @ -- Begin function _lv_area_is_in
	.globl	_lv_area_is_in
	.p2align	3
	.type	_lv_area_is_in,%function
	.code	16                              @ @_lv_area_is_in
	.thumb_func
_lv_area_is_in:
.Lfunc_begin12:
	.loc	3 234 0                         @ lvgl/src/lv_misc/lv_area.c:234:0
	.fnstart
	.cfi_startproc
@ %bb.0:
	.save	{r7, lr}
	push	{r7, lr}
	.cfi_def_cfa_offset 8
	.cfi_offset lr, -4
	.cfi_offset r7, -8
	.pad	#24
	sub	sp, #24
	.cfi_def_cfa_offset 32
                                        @ kill: def $r3 killed $r2
	str	r0, [sp, #16]
	str	r1, [sp, #12]
	strh.w	r2, [sp, #10]
	movs	r0, #0
.Ltmp67:
	.loc	3 235 10 prologue_end           @ lvgl/src/lv_misc/lv_area.c:235:10
	strb.w	r0, [sp, #9]
.Ltmp68:
	.loc	3 237 8                         @ lvgl/src/lv_misc/lv_area.c:237:8
	ldr	r0, [sp, #16]
	.loc	3 237 15 is_stmt 0              @ lvgl/src/lv_misc/lv_area.c:237:15
	ldrsh.w	r0, [r0]
	.loc	3 237 21                        @ lvgl/src/lv_misc/lv_area.c:237:21
	ldr	r1, [sp, #12]
	.loc	3 237 32                        @ lvgl/src/lv_misc/lv_area.c:237:32
	ldrsh.w	r1, [r1]
	.loc	3 237 35                        @ lvgl/src/lv_misc/lv_area.c:237:35
	cmp	r0, r1
	blt	.LBB12_5
	b	.LBB12_1
.LBB12_1:
	.loc	3 237 38                        @ lvgl/src/lv_misc/lv_area.c:237:38
	ldr	r0, [sp, #16]
	.loc	3 237 45                        @ lvgl/src/lv_misc/lv_area.c:237:45
	ldrsh.w	r0, [r0, #2]
	.loc	3 237 51                        @ lvgl/src/lv_misc/lv_area.c:237:51
	ldr	r1, [sp, #12]
	.loc	3 237 62                        @ lvgl/src/lv_misc/lv_area.c:237:62
	ldrsh.w	r1, [r1, #2]
	.loc	3 237 65                        @ lvgl/src/lv_misc/lv_area.c:237:65
	cmp	r0, r1
	blt	.LBB12_5
	b	.LBB12_2
.LBB12_2:
	.loc	3 237 68                        @ lvgl/src/lv_misc/lv_area.c:237:68
	ldr	r0, [sp, #16]
	.loc	3 237 75                        @ lvgl/src/lv_misc/lv_area.c:237:75
	ldrsh.w	r0, [r0, #4]
	.loc	3 237 81                        @ lvgl/src/lv_misc/lv_area.c:237:81
	ldr	r1, [sp, #12]
	.loc	3 237 92                        @ lvgl/src/lv_misc/lv_area.c:237:92
	ldrsh.w	r1, [r1, #4]
	.loc	3 237 95                        @ lvgl/src/lv_misc/lv_area.c:237:95
	cmp	r0, r1
	bgt	.LBB12_5
	b	.LBB12_3
.LBB12_3:
	.loc	3 238 8 is_stmt 1               @ lvgl/src/lv_misc/lv_area.c:238:8
	ldr	r0, [sp, #16]
	.loc	3 238 15 is_stmt 0              @ lvgl/src/lv_misc/lv_area.c:238:15
	ldrsh.w	r0, [r0, #6]
	.loc	3 238 21                        @ lvgl/src/lv_misc/lv_area.c:238:21
	ldr	r1, [sp, #12]
	.loc	3 238 32                        @ lvgl/src/lv_misc/lv_area.c:238:32
	ldrsh.w	r1, [r1, #6]
.Ltmp69:
	.loc	3 237 8 is_stmt 1               @ lvgl/src/lv_misc/lv_area.c:237:8
	cmp	r0, r1
	bgt	.LBB12_5
	b	.LBB12_4
.LBB12_4:
	.loc	3 0 8 is_stmt 0                 @ lvgl/src/lv_misc/lv_area.c:0:8
	movs	r0, #1
.Ltmp70:
	.loc	3 239 15 is_stmt 1              @ lvgl/src/lv_misc/lv_area.c:239:15
	strb.w	r0, [sp, #9]
	.loc	3 240 5                         @ lvgl/src/lv_misc/lv_area.c:240:5
	b	.LBB12_5
.Ltmp71:
.LBB12_5:
	.loc	3 242 9                         @ lvgl/src/lv_misc/lv_area.c:242:9
	ldrb.w	r0, [sp, #9]
.Ltmp72:
	.loc	3 242 8 is_stmt 0               @ lvgl/src/lv_misc/lv_area.c:242:8
	lsls	r0, r0, #31
	cbnz	r0, .LBB12_7
	b	.LBB12_6
.LBB12_6:
	.loc	3 0 8                           @ lvgl/src/lv_misc/lv_area.c:0:8
	movs	r0, #0
.Ltmp73:
	.loc	3 242 16                        @ lvgl/src/lv_misc/lv_area.c:242:16
	strb.w	r0, [sp, #23]
	b	.LBB12_18
.Ltmp74:
.LBB12_7:
	.loc	3 243 8 is_stmt 1               @ lvgl/src/lv_misc/lv_area.c:243:8
	ldrsh.w	r0, [sp, #10]
.Ltmp75:
	.loc	3 243 8 is_stmt 0               @ lvgl/src/lv_misc/lv_area.c:243:8
	cbnz	r0, .LBB12_9
	b	.LBB12_8
.LBB12_8:
	.loc	3 0 8                           @ lvgl/src/lv_misc/lv_area.c:0:8
	movs	r0, #1
.Ltmp76:
	.loc	3 243 21                        @ lvgl/src/lv_misc/lv_area.c:243:21
	strb.w	r0, [sp, #23]
	b	.LBB12_18
.Ltmp77:
.LBB12_9:
	.loc	3 248 11 is_stmt 1              @ lvgl/src/lv_misc/lv_area.c:248:11
	ldr	r0, [sp, #16]
	.loc	3 248 18 is_stmt 0              @ lvgl/src/lv_misc/lv_area.c:248:18
	ldrh	r0, [r0]
	.loc	3 248 9                         @ lvgl/src/lv_misc/lv_area.c:248:9
	strh.w	r0, [sp, #4]
	.loc	3 249 11 is_stmt 1              @ lvgl/src/lv_misc/lv_area.c:249:11
	ldr	r0, [sp, #16]
	.loc	3 249 18 is_stmt 0              @ lvgl/src/lv_misc/lv_area.c:249:18
	ldrh	r0, [r0, #2]
	.loc	3 249 9                         @ lvgl/src/lv_misc/lv_area.c:249:9
	strh.w	r0, [sp, #6]
.Ltmp78:
	.loc	3 250 29 is_stmt 1              @ lvgl/src/lv_misc/lv_area.c:250:29
	ldr	r0, [sp, #12]
	.loc	3 250 44 is_stmt 0              @ lvgl/src/lv_misc/lv_area.c:250:44
	ldrsh.w	r2, [sp, #10]
	add	r1, sp, #4
	.loc	3 250 8                         @ lvgl/src/lv_misc/lv_area.c:250:8
	bl	_lv_area_is_point_on
.Ltmp79:
	.loc	3 250 8                         @ lvgl/src/lv_misc/lv_area.c:250:8
	cbnz	r0, .LBB12_11
	b	.LBB12_10
.LBB12_10:
	.loc	3 0 8                           @ lvgl/src/lv_misc/lv_area.c:0:8
	movs	r0, #0
.Ltmp80:
	.loc	3 250 62                        @ lvgl/src/lv_misc/lv_area.c:250:62
	strb.w	r0, [sp, #23]
	b	.LBB12_18
.Ltmp81:
.LBB12_11:
	.loc	3 252 11 is_stmt 1              @ lvgl/src/lv_misc/lv_area.c:252:11
	ldr	r0, [sp, #16]
	.loc	3 252 18 is_stmt 0              @ lvgl/src/lv_misc/lv_area.c:252:18
	ldrh	r0, [r0, #4]
	.loc	3 252 9                         @ lvgl/src/lv_misc/lv_area.c:252:9
	strh.w	r0, [sp, #4]
	.loc	3 253 11 is_stmt 1              @ lvgl/src/lv_misc/lv_area.c:253:11
	ldr	r0, [sp, #16]
	.loc	3 253 18 is_stmt 0              @ lvgl/src/lv_misc/lv_area.c:253:18
	ldrh	r0, [r0, #2]
	.loc	3 253 9                         @ lvgl/src/lv_misc/lv_area.c:253:9
	strh.w	r0, [sp, #6]
.Ltmp82:
	.loc	3 254 29 is_stmt 1              @ lvgl/src/lv_misc/lv_area.c:254:29
	ldr	r0, [sp, #12]
	.loc	3 254 44 is_stmt 0              @ lvgl/src/lv_misc/lv_area.c:254:44
	ldrsh.w	r2, [sp, #10]
	add	r1, sp, #4
	.loc	3 254 8                         @ lvgl/src/lv_misc/lv_area.c:254:8
	bl	_lv_area_is_point_on
.Ltmp83:
	.loc	3 254 8                         @ lvgl/src/lv_misc/lv_area.c:254:8
	cbnz	r0, .LBB12_13
	b	.LBB12_12
.LBB12_12:
	.loc	3 0 8                           @ lvgl/src/lv_misc/lv_area.c:0:8
	movs	r0, #0
.Ltmp84:
	.loc	3 254 62                        @ lvgl/src/lv_misc/lv_area.c:254:62
	strb.w	r0, [sp, #23]
	b	.LBB12_18
.Ltmp85:
.LBB12_13:
	.loc	3 256 11 is_stmt 1              @ lvgl/src/lv_misc/lv_area.c:256:11
	ldr	r0, [sp, #16]
	.loc	3 256 18 is_stmt 0              @ lvgl/src/lv_misc/lv_area.c:256:18
	ldrh	r0, [r0]
	.loc	3 256 9                         @ lvgl/src/lv_misc/lv_area.c:256:9
	strh.w	r0, [sp, #4]
	.loc	3 257 11 is_stmt 1              @ lvgl/src/lv_misc/lv_area.c:257:11
	ldr	r0, [sp, #16]
	.loc	3 257 18 is_stmt 0              @ lvgl/src/lv_misc/lv_area.c:257:18
	ldrh	r0, [r0, #6]
	.loc	3 257 9                         @ lvgl/src/lv_misc/lv_area.c:257:9
	strh.w	r0, [sp, #6]
.Ltmp86:
	.loc	3 258 29 is_stmt 1              @ lvgl/src/lv_misc/lv_area.c:258:29
	ldr	r0, [sp, #12]
	.loc	3 258 44 is_stmt 0              @ lvgl/src/lv_misc/lv_area.c:258:44
	ldrsh.w	r2, [sp, #10]
	add	r1, sp, #4
	.loc	3 258 8                         @ lvgl/src/lv_misc/lv_area.c:258:8
	bl	_lv_area_is_point_on
.Ltmp87:
	.loc	3 258 8                         @ lvgl/src/lv_misc/lv_area.c:258:8
	cbnz	r0, .LBB12_15
	b	.LBB12_14
.LBB12_14:
	.loc	3 0 8                           @ lvgl/src/lv_misc/lv_area.c:0:8
	movs	r0, #0
.Ltmp88:
	.loc	3 258 62                        @ lvgl/src/lv_misc/lv_area.c:258:62
	strb.w	r0, [sp, #23]
	b	.LBB12_18
.Ltmp89:
.LBB12_15:
	.loc	3 260 11 is_stmt 1              @ lvgl/src/lv_misc/lv_area.c:260:11
	ldr	r0, [sp, #16]
	.loc	3 260 18 is_stmt 0              @ lvgl/src/lv_misc/lv_area.c:260:18
	ldrh	r0, [r0, #4]
	.loc	3 260 9                         @ lvgl/src/lv_misc/lv_area.c:260:9
	strh.w	r0, [sp, #4]
	.loc	3 261 11 is_stmt 1              @ lvgl/src/lv_misc/lv_area.c:261:11
	ldr	r0, [sp, #16]
	.loc	3 261 18 is_stmt 0              @ lvgl/src/lv_misc/lv_area.c:261:18
	ldrh	r0, [r0, #6]
	.loc	3 261 9                         @ lvgl/src/lv_misc/lv_area.c:261:9
	strh.w	r0, [sp, #6]
.Ltmp90:
	.loc	3 262 29 is_stmt 1              @ lvgl/src/lv_misc/lv_area.c:262:29
	ldr	r0, [sp, #12]
	.loc	3 262 44 is_stmt 0              @ lvgl/src/lv_misc/lv_area.c:262:44
	ldrsh.w	r2, [sp, #10]
	add	r1, sp, #4
	.loc	3 262 8                         @ lvgl/src/lv_misc/lv_area.c:262:8
	bl	_lv_area_is_point_on
.Ltmp91:
	.loc	3 262 8                         @ lvgl/src/lv_misc/lv_area.c:262:8
	cbnz	r0, .LBB12_17
	b	.LBB12_16
.LBB12_16:
	.loc	3 0 8                           @ lvgl/src/lv_misc/lv_area.c:0:8
	movs	r0, #0
.Ltmp92:
	.loc	3 262 62                        @ lvgl/src/lv_misc/lv_area.c:262:62
	strb.w	r0, [sp, #23]
	b	.LBB12_18
.Ltmp93:
.LBB12_17:
	.loc	3 0 62                          @ lvgl/src/lv_misc/lv_area.c:0:62
	movs	r0, #1
	.loc	3 264 5 is_stmt 1               @ lvgl/src/lv_misc/lv_area.c:264:5
	strb.w	r0, [sp, #23]
	b	.LBB12_18
.LBB12_18:
	.loc	3 265 1                         @ lvgl/src/lv_misc/lv_area.c:265:1
	ldrb.w	r0, [sp, #23]
	add	sp, #24
	pop	{r7, pc}
.Ltmp94:
.Lfunc_end12:
	.size	_lv_area_is_in, .Lfunc_end12-_lv_area_is_in
	.cfi_endproc
	.cantunwind
	.fnend
                                        @ -- End function
	.section	.text._lv_area_align,"ax",%progbits
	.hidden	_lv_area_align                  @ -- Begin function _lv_area_align
	.globl	_lv_area_align
	.p2align	3
	.type	_lv_area_align,%function
	.code	16                              @ @_lv_area_align
	.thumb_func
_lv_area_align:
.Lfunc_begin13:
	.loc	3 275 0                         @ lvgl/src/lv_misc/lv_area.c:275:0
	.fnstart
	.cfi_startproc
@ %bb.0:
	.save	{r7, lr}
	push	{r7, lr}
	.cfi_def_cfa_offset 8
	.cfi_offset lr, -4
	.cfi_offset r7, -8
	.pad	#104
	sub	sp, #104
	.cfi_def_cfa_offset 112
                                        @ kill: def $r12 killed $r2
	str	r0, [sp, #100]
	str	r1, [sp, #96]
	strb.w	r2, [sp, #95]
	str	r3, [sp, #88]
.Ltmp95:
	.loc	3 277 12 prologue_end           @ lvgl/src/lv_misc/lv_area.c:277:12
	ldrb.w	r0, [sp, #95]
	.loc	3 277 5 is_stmt 0               @ lvgl/src/lv_misc/lv_area.c:277:5
	mov	r1, r0
	str	r1, [sp, #84]                   @ 4-byte Spill
	cmp	r0, #20
	bhi.w	.LBB13_24
@ %bb.1:
	.loc	3 0 5                           @ lvgl/src/lv_misc/lv_area.c:0:5
	ldr	r1, [sp, #84]                   @ 4-byte Reload
.LCPI13_0:
	tbh	[pc, r1, lsl #1]
@ %bb.2:
.LJTI13_0:
	.short	(.LBB13_3-(.LCPI13_0+4))/2
	.short	(.LBB13_4-(.LCPI13_0+4))/2
	.short	(.LBB13_5-(.LCPI13_0+4))/2
	.short	(.LBB13_6-(.LCPI13_0+4))/2
	.short	(.LBB13_7-(.LCPI13_0+4))/2
	.short	(.LBB13_8-(.LCPI13_0+4))/2
	.short	(.LBB13_9-(.LCPI13_0+4))/2
	.short	(.LBB13_10-(.LCPI13_0+4))/2
	.short	(.LBB13_11-(.LCPI13_0+4))/2
	.short	(.LBB13_12-(.LCPI13_0+4))/2
	.short	(.LBB13_13-(.LCPI13_0+4))/2
	.short	(.LBB13_14-(.LCPI13_0+4))/2
	.short	(.LBB13_15-(.LCPI13_0+4))/2
	.short	(.LBB13_16-(.LCPI13_0+4))/2
	.short	(.LBB13_17-(.LCPI13_0+4))/2
	.short	(.LBB13_18-(.LCPI13_0+4))/2
	.short	(.LBB13_19-(.LCPI13_0+4))/2
	.short	(.LBB13_20-(.LCPI13_0+4))/2
	.short	(.LBB13_21-(.LCPI13_0+4))/2
	.short	(.LBB13_22-(.LCPI13_0+4))/2
	.short	(.LBB13_23-(.LCPI13_0+4))/2
	.p2align	1
.LBB13_3:
.Ltmp96:
	.loc	3 279 40 is_stmt 1              @ lvgl/src/lv_misc/lv_area.c:279:40
	ldr	r0, [sp, #100]
	.loc	3 279 22 is_stmt 0              @ lvgl/src/lv_misc/lv_area.c:279:22
	bl	lv_area_get_width
	.loc	3 279 46                        @ lvgl/src/lv_misc/lv_area.c:279:46
	add.w	r0, r0, r0, lsr #31
	lsrs	r0, r0, #1
	.loc	3 279 70                        @ lvgl/src/lv_misc/lv_area.c:279:70
	str	r0, [sp, #76]                   @ 4-byte Spill
	ldr	r0, [sp, #96]
	.loc	3 279 52                        @ lvgl/src/lv_misc/lv_area.c:279:52
	bl	lv_area_get_width
	mov	r1, r0
	.loc	3 279 80                        @ lvgl/src/lv_misc/lv_area.c:279:80
	ldr	r0, [sp, #76]                   @ 4-byte Reload
	add.w	r1, r1, r1, lsr #31
	.loc	3 279 50                        @ lvgl/src/lv_misc/lv_area.c:279:50
	sub.w	r0, r0, r1, lsr #1
	.loc	3 279 13                        @ lvgl/src/lv_misc/lv_area.c:279:13
	ldr	r1, [sp, #88]
	.loc	3 279 20                        @ lvgl/src/lv_misc/lv_area.c:279:20
	strh	r0, [r1]
	.loc	3 280 41 is_stmt 1              @ lvgl/src/lv_misc/lv_area.c:280:41
	ldr	r0, [sp, #100]
	.loc	3 280 22 is_stmt 0              @ lvgl/src/lv_misc/lv_area.c:280:22
	bl	lv_area_get_height
	.loc	3 280 47                        @ lvgl/src/lv_misc/lv_area.c:280:47
	add.w	r0, r0, r0, lsr #31
	lsrs	r0, r0, #1
	.loc	3 280 72                        @ lvgl/src/lv_misc/lv_area.c:280:72
	str	r0, [sp, #80]                   @ 4-byte Spill
	ldr	r0, [sp, #96]
	.loc	3 280 53                        @ lvgl/src/lv_misc/lv_area.c:280:53
	bl	lv_area_get_height
	mov	r1, r0
	.loc	3 280 82                        @ lvgl/src/lv_misc/lv_area.c:280:82
	ldr	r0, [sp, #80]                   @ 4-byte Reload
	add.w	r1, r1, r1, lsr #31
	.loc	3 280 51                        @ lvgl/src/lv_misc/lv_area.c:280:51
	sub.w	r0, r0, r1, lsr #1
	.loc	3 280 13                        @ lvgl/src/lv_misc/lv_area.c:280:13
	ldr	r1, [sp, #88]
	.loc	3 280 20                        @ lvgl/src/lv_misc/lv_area.c:280:20
	strh	r0, [r1, #2]
	.loc	3 281 13 is_stmt 1              @ lvgl/src/lv_misc/lv_area.c:281:13
	b	.LBB13_24
.LBB13_4:
	.loc	3 284 13                        @ lvgl/src/lv_misc/lv_area.c:284:13
	ldr	r1, [sp, #88]
	movs	r0, #0
	.loc	3 284 20 is_stmt 0              @ lvgl/src/lv_misc/lv_area.c:284:20
	strh	r0, [r1]
	.loc	3 285 13 is_stmt 1              @ lvgl/src/lv_misc/lv_area.c:285:13
	ldr	r1, [sp, #88]
	.loc	3 285 20 is_stmt 0              @ lvgl/src/lv_misc/lv_area.c:285:20
	strh	r0, [r1, #2]
	.loc	3 286 13 is_stmt 1              @ lvgl/src/lv_misc/lv_area.c:286:13
	b	.LBB13_24
.LBB13_5:
	.loc	3 288 40                        @ lvgl/src/lv_misc/lv_area.c:288:40
	ldr	r0, [sp, #100]
	.loc	3 288 22 is_stmt 0              @ lvgl/src/lv_misc/lv_area.c:288:22
	bl	lv_area_get_width
	.loc	3 288 46                        @ lvgl/src/lv_misc/lv_area.c:288:46
	add.w	r0, r0, r0, lsr #31
	lsrs	r0, r0, #1
	.loc	3 288 70                        @ lvgl/src/lv_misc/lv_area.c:288:70
	str	r0, [sp, #72]                   @ 4-byte Spill
	ldr	r0, [sp, #96]
	.loc	3 288 52                        @ lvgl/src/lv_misc/lv_area.c:288:52
	bl	lv_area_get_width
	mov	r1, r0
	.loc	3 288 80                        @ lvgl/src/lv_misc/lv_area.c:288:80
	ldr	r0, [sp, #72]                   @ 4-byte Reload
	add.w	r1, r1, r1, lsr #31
	.loc	3 288 50                        @ lvgl/src/lv_misc/lv_area.c:288:50
	sub.w	r0, r0, r1, lsr #1
	.loc	3 288 13                        @ lvgl/src/lv_misc/lv_area.c:288:13
	ldr	r1, [sp, #88]
	.loc	3 288 20                        @ lvgl/src/lv_misc/lv_area.c:288:20
	strh	r0, [r1]
	.loc	3 289 13 is_stmt 1              @ lvgl/src/lv_misc/lv_area.c:289:13
	ldr	r1, [sp, #88]
	movs	r0, #0
	.loc	3 289 20 is_stmt 0              @ lvgl/src/lv_misc/lv_area.c:289:20
	strh	r0, [r1, #2]
	.loc	3 290 13 is_stmt 1              @ lvgl/src/lv_misc/lv_area.c:290:13
	b	.LBB13_24
.LBB13_6:
	.loc	3 293 40                        @ lvgl/src/lv_misc/lv_area.c:293:40
	ldr	r0, [sp, #100]
	.loc	3 293 22 is_stmt 0              @ lvgl/src/lv_misc/lv_area.c:293:22
	bl	lv_area_get_width
	.loc	3 293 66                        @ lvgl/src/lv_misc/lv_area.c:293:66
	str	r0, [sp, #68]                   @ 4-byte Spill
	ldr	r0, [sp, #96]
	.loc	3 293 48                        @ lvgl/src/lv_misc/lv_area.c:293:48
	bl	lv_area_get_width
	mov	r1, r0
	.loc	3 293 46                        @ lvgl/src/lv_misc/lv_area.c:293:46
	ldr	r0, [sp, #68]                   @ 4-byte Reload
	subs	r0, r0, r1
	.loc	3 293 13                        @ lvgl/src/lv_misc/lv_area.c:293:13
	ldr	r1, [sp, #88]
	.loc	3 293 20                        @ lvgl/src/lv_misc/lv_area.c:293:20
	strh	r0, [r1]
	.loc	3 294 13 is_stmt 1              @ lvgl/src/lv_misc/lv_area.c:294:13
	ldr	r1, [sp, #88]
	movs	r0, #0
	.loc	3 294 20 is_stmt 0              @ lvgl/src/lv_misc/lv_area.c:294:20
	strh	r0, [r1, #2]
	.loc	3 295 13 is_stmt 1              @ lvgl/src/lv_misc/lv_area.c:295:13
	b	.LBB13_24
.LBB13_7:
	.loc	3 298 13                        @ lvgl/src/lv_misc/lv_area.c:298:13
	ldr	r1, [sp, #88]
	movs	r0, #0
	.loc	3 298 20 is_stmt 0              @ lvgl/src/lv_misc/lv_area.c:298:20
	strh	r0, [r1]
	.loc	3 299 41 is_stmt 1              @ lvgl/src/lv_misc/lv_area.c:299:41
	ldr	r0, [sp, #100]
	.loc	3 299 22 is_stmt 0              @ lvgl/src/lv_misc/lv_area.c:299:22
	bl	lv_area_get_height
	.loc	3 299 68                        @ lvgl/src/lv_misc/lv_area.c:299:68
	str	r0, [sp, #64]                   @ 4-byte Spill
	ldr	r0, [sp, #96]
	.loc	3 299 49                        @ lvgl/src/lv_misc/lv_area.c:299:49
	bl	lv_area_get_height
	mov	r1, r0
	.loc	3 299 47                        @ lvgl/src/lv_misc/lv_area.c:299:47
	ldr	r0, [sp, #64]                   @ 4-byte Reload
	subs	r0, r0, r1
	.loc	3 299 13                        @ lvgl/src/lv_misc/lv_area.c:299:13
	ldr	r1, [sp, #88]
	.loc	3 299 20                        @ lvgl/src/lv_misc/lv_area.c:299:20
	strh	r0, [r1, #2]
	.loc	3 300 13 is_stmt 1              @ lvgl/src/lv_misc/lv_area.c:300:13
	b	.LBB13_24
.LBB13_8:
	.loc	3 302 40                        @ lvgl/src/lv_misc/lv_area.c:302:40
	ldr	r0, [sp, #100]
	.loc	3 302 22 is_stmt 0              @ lvgl/src/lv_misc/lv_area.c:302:22
	bl	lv_area_get_width
	.loc	3 302 46                        @ lvgl/src/lv_misc/lv_area.c:302:46
	add.w	r0, r0, r0, lsr #31
	lsrs	r0, r0, #1
	.loc	3 302 70                        @ lvgl/src/lv_misc/lv_area.c:302:70
	str	r0, [sp, #56]                   @ 4-byte Spill
	ldr	r0, [sp, #96]
	.loc	3 302 52                        @ lvgl/src/lv_misc/lv_area.c:302:52
	bl	lv_area_get_width
	mov	r1, r0
	.loc	3 302 80                        @ lvgl/src/lv_misc/lv_area.c:302:80
	ldr	r0, [sp, #56]                   @ 4-byte Reload
	add.w	r1, r1, r1, lsr #31
	.loc	3 302 50                        @ lvgl/src/lv_misc/lv_area.c:302:50
	sub.w	r0, r0, r1, lsr #1
	.loc	3 302 13                        @ lvgl/src/lv_misc/lv_area.c:302:13
	ldr	r1, [sp, #88]
	.loc	3 302 20                        @ lvgl/src/lv_misc/lv_area.c:302:20
	strh	r0, [r1]
	.loc	3 303 41 is_stmt 1              @ lvgl/src/lv_misc/lv_area.c:303:41
	ldr	r0, [sp, #100]
	.loc	3 303 22 is_stmt 0              @ lvgl/src/lv_misc/lv_area.c:303:22
	bl	lv_area_get_height
	.loc	3 303 68                        @ lvgl/src/lv_misc/lv_area.c:303:68
	str	r0, [sp, #60]                   @ 4-byte Spill
	ldr	r0, [sp, #96]
	.loc	3 303 49                        @ lvgl/src/lv_misc/lv_area.c:303:49
	bl	lv_area_get_height
	mov	r1, r0
	.loc	3 303 47                        @ lvgl/src/lv_misc/lv_area.c:303:47
	ldr	r0, [sp, #60]                   @ 4-byte Reload
	subs	r0, r0, r1
	.loc	3 303 13                        @ lvgl/src/lv_misc/lv_area.c:303:13
	ldr	r1, [sp, #88]
	.loc	3 303 20                        @ lvgl/src/lv_misc/lv_area.c:303:20
	strh	r0, [r1, #2]
	.loc	3 304 13 is_stmt 1              @ lvgl/src/lv_misc/lv_area.c:304:13
	b	.LBB13_24
.LBB13_9:
	.loc	3 307 40                        @ lvgl/src/lv_misc/lv_area.c:307:40
	ldr	r0, [sp, #100]
	.loc	3 307 22 is_stmt 0              @ lvgl/src/lv_misc/lv_area.c:307:22
	bl	lv_area_get_width
	.loc	3 307 66                        @ lvgl/src/lv_misc/lv_area.c:307:66
	str	r0, [sp, #48]                   @ 4-byte Spill
	ldr	r0, [sp, #96]
	.loc	3 307 48                        @ lvgl/src/lv_misc/lv_area.c:307:48
	bl	lv_area_get_width
	mov	r1, r0
	.loc	3 307 46                        @ lvgl/src/lv_misc/lv_area.c:307:46
	ldr	r0, [sp, #48]                   @ 4-byte Reload
	subs	r0, r0, r1
	.loc	3 307 13                        @ lvgl/src/lv_misc/lv_area.c:307:13
	ldr	r1, [sp, #88]
	.loc	3 307 20                        @ lvgl/src/lv_misc/lv_area.c:307:20
	strh	r0, [r1]
	.loc	3 308 41 is_stmt 1              @ lvgl/src/lv_misc/lv_area.c:308:41
	ldr	r0, [sp, #100]
	.loc	3 308 22 is_stmt 0              @ lvgl/src/lv_misc/lv_area.c:308:22
	bl	lv_area_get_height
	.loc	3 308 68                        @ lvgl/src/lv_misc/lv_area.c:308:68
	str	r0, [sp, #52]                   @ 4-byte Spill
	ldr	r0, [sp, #96]
	.loc	3 308 49                        @ lvgl/src/lv_misc/lv_area.c:308:49
	bl	lv_area_get_height
	mov	r1, r0
	.loc	3 308 47                        @ lvgl/src/lv_misc/lv_area.c:308:47
	ldr	r0, [sp, #52]                   @ 4-byte Reload
	subs	r0, r0, r1
	.loc	3 308 13                        @ lvgl/src/lv_misc/lv_area.c:308:13
	ldr	r1, [sp, #88]
	.loc	3 308 20                        @ lvgl/src/lv_misc/lv_area.c:308:20
	strh	r0, [r1, #2]
	.loc	3 309 13 is_stmt 1              @ lvgl/src/lv_misc/lv_area.c:309:13
	b	.LBB13_24
.LBB13_10:
	.loc	3 312 13                        @ lvgl/src/lv_misc/lv_area.c:312:13
	ldr	r1, [sp, #88]
	movs	r0, #0
	.loc	3 312 20 is_stmt 0              @ lvgl/src/lv_misc/lv_area.c:312:20
	strh	r0, [r1]
	.loc	3 313 41 is_stmt 1              @ lvgl/src/lv_misc/lv_area.c:313:41
	ldr	r0, [sp, #100]
	.loc	3 313 22 is_stmt 0              @ lvgl/src/lv_misc/lv_area.c:313:22
	bl	lv_area_get_height
	.loc	3 313 47                        @ lvgl/src/lv_misc/lv_area.c:313:47
	add.w	r0, r0, r0, lsr #31
	lsrs	r0, r0, #1
	.loc	3 313 72                        @ lvgl/src/lv_misc/lv_area.c:313:72
	str	r0, [sp, #44]                   @ 4-byte Spill
	ldr	r0, [sp, #96]
	.loc	3 313 53                        @ lvgl/src/lv_misc/lv_area.c:313:53
	bl	lv_area_get_height
	mov	r1, r0
	.loc	3 313 82                        @ lvgl/src/lv_misc/lv_area.c:313:82
	ldr	r0, [sp, #44]                   @ 4-byte Reload
	add.w	r1, r1, r1, lsr #31
	.loc	3 313 51                        @ lvgl/src/lv_misc/lv_area.c:313:51
	sub.w	r0, r0, r1, lsr #1
	.loc	3 313 13                        @ lvgl/src/lv_misc/lv_area.c:313:13
	ldr	r1, [sp, #88]
	.loc	3 313 20                        @ lvgl/src/lv_misc/lv_area.c:313:20
	strh	r0, [r1, #2]
	.loc	3 314 13 is_stmt 1              @ lvgl/src/lv_misc/lv_area.c:314:13
	b	.LBB13_24
.LBB13_11:
	.loc	3 317 40                        @ lvgl/src/lv_misc/lv_area.c:317:40
	ldr	r0, [sp, #100]
	.loc	3 317 22 is_stmt 0              @ lvgl/src/lv_misc/lv_area.c:317:22
	bl	lv_area_get_width
	.loc	3 317 66                        @ lvgl/src/lv_misc/lv_area.c:317:66
	str	r0, [sp, #36]                   @ 4-byte Spill
	ldr	r0, [sp, #96]
	.loc	3 317 48                        @ lvgl/src/lv_misc/lv_area.c:317:48
	bl	lv_area_get_width
	mov	r1, r0
	.loc	3 317 46                        @ lvgl/src/lv_misc/lv_area.c:317:46
	ldr	r0, [sp, #36]                   @ 4-byte Reload
	subs	r0, r0, r1
	.loc	3 317 13                        @ lvgl/src/lv_misc/lv_area.c:317:13
	ldr	r1, [sp, #88]
	.loc	3 317 20                        @ lvgl/src/lv_misc/lv_area.c:317:20
	strh	r0, [r1]
	.loc	3 318 41 is_stmt 1              @ lvgl/src/lv_misc/lv_area.c:318:41
	ldr	r0, [sp, #100]
	.loc	3 318 22 is_stmt 0              @ lvgl/src/lv_misc/lv_area.c:318:22
	bl	lv_area_get_height
	.loc	3 318 47                        @ lvgl/src/lv_misc/lv_area.c:318:47
	add.w	r0, r0, r0, lsr #31
	lsrs	r0, r0, #1
	.loc	3 318 72                        @ lvgl/src/lv_misc/lv_area.c:318:72
	str	r0, [sp, #40]                   @ 4-byte Spill
	ldr	r0, [sp, #96]
	.loc	3 318 53                        @ lvgl/src/lv_misc/lv_area.c:318:53
	bl	lv_area_get_height
	mov	r1, r0
	.loc	3 318 82                        @ lvgl/src/lv_misc/lv_area.c:318:82
	ldr	r0, [sp, #40]                   @ 4-byte Reload
	add.w	r1, r1, r1, lsr #31
	.loc	3 318 51                        @ lvgl/src/lv_misc/lv_area.c:318:51
	sub.w	r0, r0, r1, lsr #1
	.loc	3 318 13                        @ lvgl/src/lv_misc/lv_area.c:318:13
	ldr	r1, [sp, #88]
	.loc	3 318 20                        @ lvgl/src/lv_misc/lv_area.c:318:20
	strh	r0, [r1, #2]
	.loc	3 319 13 is_stmt 1              @ lvgl/src/lv_misc/lv_area.c:319:13
	b	.LBB13_24
.LBB13_12:
	.loc	3 322 13                        @ lvgl/src/lv_misc/lv_area.c:322:13
	ldr	r1, [sp, #88]
	movs	r0, #0
	.loc	3 322 20 is_stmt 0              @ lvgl/src/lv_misc/lv_area.c:322:20
	strh	r0, [r1]
	.loc	3 323 42 is_stmt 1              @ lvgl/src/lv_misc/lv_area.c:323:42
	ldr	r0, [sp, #96]
	.loc	3 323 23 is_stmt 0              @ lvgl/src/lv_misc/lv_area.c:323:23
	bl	lv_area_get_height
	.loc	3 323 22                        @ lvgl/src/lv_misc/lv_area.c:323:22
	rsbs	r0, r0, #0
	.loc	3 323 13                        @ lvgl/src/lv_misc/lv_area.c:323:13
	ldr	r1, [sp, #88]
	.loc	3 323 20                        @ lvgl/src/lv_misc/lv_area.c:323:20
	strh	r0, [r1, #2]
	.loc	3 324 13 is_stmt 1              @ lvgl/src/lv_misc/lv_area.c:324:13
	b	.LBB13_24
.LBB13_13:
	.loc	3 327 40                        @ lvgl/src/lv_misc/lv_area.c:327:40
	ldr	r0, [sp, #100]
	.loc	3 327 22 is_stmt 0              @ lvgl/src/lv_misc/lv_area.c:327:22
	bl	lv_area_get_width
	.loc	3 327 46                        @ lvgl/src/lv_misc/lv_area.c:327:46
	add.w	r0, r0, r0, lsr #31
	lsrs	r0, r0, #1
	.loc	3 327 70                        @ lvgl/src/lv_misc/lv_area.c:327:70
	str	r0, [sp, #32]                   @ 4-byte Spill
	ldr	r0, [sp, #96]
	.loc	3 327 52                        @ lvgl/src/lv_misc/lv_area.c:327:52
	bl	lv_area_get_width
	mov	r1, r0
	.loc	3 327 80                        @ lvgl/src/lv_misc/lv_area.c:327:80
	ldr	r0, [sp, #32]                   @ 4-byte Reload
	add.w	r1, r1, r1, lsr #31
	.loc	3 327 50                        @ lvgl/src/lv_misc/lv_area.c:327:50
	sub.w	r0, r0, r1, lsr #1
	.loc	3 327 13                        @ lvgl/src/lv_misc/lv_area.c:327:13
	ldr	r1, [sp, #88]
	.loc	3 327 20                        @ lvgl/src/lv_misc/lv_area.c:327:20
	strh	r0, [r1]
	.loc	3 328 42 is_stmt 1              @ lvgl/src/lv_misc/lv_area.c:328:42
	ldr	r0, [sp, #96]
	.loc	3 328 23 is_stmt 0              @ lvgl/src/lv_misc/lv_area.c:328:23
	bl	lv_area_get_height
	.loc	3 328 22                        @ lvgl/src/lv_misc/lv_area.c:328:22
	rsbs	r0, r0, #0
	.loc	3 328 13                        @ lvgl/src/lv_misc/lv_area.c:328:13
	ldr	r1, [sp, #88]
	.loc	3 328 20                        @ lvgl/src/lv_misc/lv_area.c:328:20
	strh	r0, [r1, #2]
	.loc	3 329 13 is_stmt 1              @ lvgl/src/lv_misc/lv_area.c:329:13
	b	.LBB13_24
.LBB13_14:
	.loc	3 332 40                        @ lvgl/src/lv_misc/lv_area.c:332:40
	ldr	r0, [sp, #100]
	.loc	3 332 22 is_stmt 0              @ lvgl/src/lv_misc/lv_area.c:332:22
	bl	lv_area_get_width
	.loc	3 332 66                        @ lvgl/src/lv_misc/lv_area.c:332:66
	str	r0, [sp, #28]                   @ 4-byte Spill
	ldr	r0, [sp, #96]
	.loc	3 332 48                        @ lvgl/src/lv_misc/lv_area.c:332:48
	bl	lv_area_get_width
	mov	r1, r0
	.loc	3 332 46                        @ lvgl/src/lv_misc/lv_area.c:332:46
	ldr	r0, [sp, #28]                   @ 4-byte Reload
	subs	r0, r0, r1
	.loc	3 332 13                        @ lvgl/src/lv_misc/lv_area.c:332:13
	ldr	r1, [sp, #88]
	.loc	3 332 20                        @ lvgl/src/lv_misc/lv_area.c:332:20
	strh	r0, [r1]
	.loc	3 333 42 is_stmt 1              @ lvgl/src/lv_misc/lv_area.c:333:42
	ldr	r0, [sp, #96]
	.loc	3 333 23 is_stmt 0              @ lvgl/src/lv_misc/lv_area.c:333:23
	bl	lv_area_get_height
	.loc	3 333 22                        @ lvgl/src/lv_misc/lv_area.c:333:22
	rsbs	r0, r0, #0
	.loc	3 333 13                        @ lvgl/src/lv_misc/lv_area.c:333:13
	ldr	r1, [sp, #88]
	.loc	3 333 20                        @ lvgl/src/lv_misc/lv_area.c:333:20
	strh	r0, [r1, #2]
	.loc	3 334 13 is_stmt 1              @ lvgl/src/lv_misc/lv_area.c:334:13
	b	.LBB13_24
.LBB13_15:
	.loc	3 337 13                        @ lvgl/src/lv_misc/lv_area.c:337:13
	ldr	r1, [sp, #88]
	movs	r0, #0
	.loc	3 337 20 is_stmt 0              @ lvgl/src/lv_misc/lv_area.c:337:20
	strh	r0, [r1]
	.loc	3 338 41 is_stmt 1              @ lvgl/src/lv_misc/lv_area.c:338:41
	ldr	r0, [sp, #100]
	.loc	3 338 22 is_stmt 0              @ lvgl/src/lv_misc/lv_area.c:338:22
	bl	lv_area_get_height
	.loc	3 338 13                        @ lvgl/src/lv_misc/lv_area.c:338:13
	ldr	r1, [sp, #88]
	.loc	3 338 20                        @ lvgl/src/lv_misc/lv_area.c:338:20
	strh	r0, [r1, #2]
	.loc	3 339 13 is_stmt 1              @ lvgl/src/lv_misc/lv_area.c:339:13
	b	.LBB13_24
.LBB13_16:
	.loc	3 342 40                        @ lvgl/src/lv_misc/lv_area.c:342:40
	ldr	r0, [sp, #100]
	.loc	3 342 22 is_stmt 0              @ lvgl/src/lv_misc/lv_area.c:342:22
	bl	lv_area_get_width
	.loc	3 342 46                        @ lvgl/src/lv_misc/lv_area.c:342:46
	add.w	r0, r0, r0, lsr #31
	lsrs	r0, r0, #1
	.loc	3 342 70                        @ lvgl/src/lv_misc/lv_area.c:342:70
	str	r0, [sp, #24]                   @ 4-byte Spill
	ldr	r0, [sp, #96]
	.loc	3 342 52                        @ lvgl/src/lv_misc/lv_area.c:342:52
	bl	lv_area_get_width
	mov	r1, r0
	.loc	3 342 80                        @ lvgl/src/lv_misc/lv_area.c:342:80
	ldr	r0, [sp, #24]                   @ 4-byte Reload
	add.w	r1, r1, r1, lsr #31
	.loc	3 342 50                        @ lvgl/src/lv_misc/lv_area.c:342:50
	sub.w	r0, r0, r1, lsr #1
	.loc	3 342 13                        @ lvgl/src/lv_misc/lv_area.c:342:13
	ldr	r1, [sp, #88]
	.loc	3 342 20                        @ lvgl/src/lv_misc/lv_area.c:342:20
	strh	r0, [r1]
	.loc	3 343 41 is_stmt 1              @ lvgl/src/lv_misc/lv_area.c:343:41
	ldr	r0, [sp, #100]
	.loc	3 343 22 is_stmt 0              @ lvgl/src/lv_misc/lv_area.c:343:22
	bl	lv_area_get_height
	.loc	3 343 13                        @ lvgl/src/lv_misc/lv_area.c:343:13
	ldr	r1, [sp, #88]
	.loc	3 343 20                        @ lvgl/src/lv_misc/lv_area.c:343:20
	strh	r0, [r1, #2]
	.loc	3 344 13 is_stmt 1              @ lvgl/src/lv_misc/lv_area.c:344:13
	b	.LBB13_24
.LBB13_17:
	.loc	3 347 40                        @ lvgl/src/lv_misc/lv_area.c:347:40
	ldr	r0, [sp, #100]
	.loc	3 347 22 is_stmt 0              @ lvgl/src/lv_misc/lv_area.c:347:22
	bl	lv_area_get_width
	.loc	3 347 66                        @ lvgl/src/lv_misc/lv_area.c:347:66
	str	r0, [sp, #20]                   @ 4-byte Spill
	ldr	r0, [sp, #96]
	.loc	3 347 48                        @ lvgl/src/lv_misc/lv_area.c:347:48
	bl	lv_area_get_width
	mov	r1, r0
	.loc	3 347 46                        @ lvgl/src/lv_misc/lv_area.c:347:46
	ldr	r0, [sp, #20]                   @ 4-byte Reload
	subs	r0, r0, r1
	.loc	3 347 13                        @ lvgl/src/lv_misc/lv_area.c:347:13
	ldr	r1, [sp, #88]
	.loc	3 347 20                        @ lvgl/src/lv_misc/lv_area.c:347:20
	strh	r0, [r1]
	.loc	3 348 41 is_stmt 1              @ lvgl/src/lv_misc/lv_area.c:348:41
	ldr	r0, [sp, #100]
	.loc	3 348 22 is_stmt 0              @ lvgl/src/lv_misc/lv_area.c:348:22
	bl	lv_area_get_height
	.loc	3 348 13                        @ lvgl/src/lv_misc/lv_area.c:348:13
	ldr	r1, [sp, #88]
	.loc	3 348 20                        @ lvgl/src/lv_misc/lv_area.c:348:20
	strh	r0, [r1, #2]
	.loc	3 349 13 is_stmt 1              @ lvgl/src/lv_misc/lv_area.c:349:13
	b	.LBB13_24
.LBB13_18:
	.loc	3 352 41                        @ lvgl/src/lv_misc/lv_area.c:352:41
	ldr	r0, [sp, #96]
	.loc	3 352 23 is_stmt 0              @ lvgl/src/lv_misc/lv_area.c:352:23
	bl	lv_area_get_width
	.loc	3 352 22                        @ lvgl/src/lv_misc/lv_area.c:352:22
	rsbs	r0, r0, #0
	.loc	3 352 13                        @ lvgl/src/lv_misc/lv_area.c:352:13
	ldr	r1, [sp, #88]
	.loc	3 352 20                        @ lvgl/src/lv_misc/lv_area.c:352:20
	strh	r0, [r1]
	.loc	3 353 13 is_stmt 1              @ lvgl/src/lv_misc/lv_area.c:353:13
	ldr	r1, [sp, #88]
	movs	r0, #0
	.loc	3 353 20 is_stmt 0              @ lvgl/src/lv_misc/lv_area.c:353:20
	strh	r0, [r1, #2]
	.loc	3 354 13 is_stmt 1              @ lvgl/src/lv_misc/lv_area.c:354:13
	b	.LBB13_24
.LBB13_19:
	.loc	3 357 41                        @ lvgl/src/lv_misc/lv_area.c:357:41
	ldr	r0, [sp, #96]
	.loc	3 357 23 is_stmt 0              @ lvgl/src/lv_misc/lv_area.c:357:23
	bl	lv_area_get_width
	.loc	3 357 22                        @ lvgl/src/lv_misc/lv_area.c:357:22
	rsbs	r0, r0, #0
	.loc	3 357 13                        @ lvgl/src/lv_misc/lv_area.c:357:13
	ldr	r1, [sp, #88]
	.loc	3 357 20                        @ lvgl/src/lv_misc/lv_area.c:357:20
	strh	r0, [r1]
	.loc	3 358 41 is_stmt 1              @ lvgl/src/lv_misc/lv_area.c:358:41
	ldr	r0, [sp, #100]
	.loc	3 358 22 is_stmt 0              @ lvgl/src/lv_misc/lv_area.c:358:22
	bl	lv_area_get_height
	.loc	3 358 47                        @ lvgl/src/lv_misc/lv_area.c:358:47
	add.w	r0, r0, r0, lsr #31
	lsrs	r0, r0, #1
	.loc	3 358 72                        @ lvgl/src/lv_misc/lv_area.c:358:72
	str	r0, [sp, #16]                   @ 4-byte Spill
	ldr	r0, [sp, #96]
	.loc	3 358 53                        @ lvgl/src/lv_misc/lv_area.c:358:53
	bl	lv_area_get_height
	mov	r1, r0
	.loc	3 358 82                        @ lvgl/src/lv_misc/lv_area.c:358:82
	ldr	r0, [sp, #16]                   @ 4-byte Reload
	add.w	r1, r1, r1, lsr #31
	.loc	3 358 51                        @ lvgl/src/lv_misc/lv_area.c:358:51
	sub.w	r0, r0, r1, lsr #1
	.loc	3 358 13                        @ lvgl/src/lv_misc/lv_area.c:358:13
	ldr	r1, [sp, #88]
	.loc	3 358 20                        @ lvgl/src/lv_misc/lv_area.c:358:20
	strh	r0, [r1, #2]
	.loc	3 359 13 is_stmt 1              @ lvgl/src/lv_misc/lv_area.c:359:13
	b	.LBB13_24
.LBB13_20:
	.loc	3 362 41                        @ lvgl/src/lv_misc/lv_area.c:362:41
	ldr	r0, [sp, #96]
	.loc	3 362 23 is_stmt 0              @ lvgl/src/lv_misc/lv_area.c:362:23
	bl	lv_area_get_width
	.loc	3 362 22                        @ lvgl/src/lv_misc/lv_area.c:362:22
	rsbs	r0, r0, #0
	.loc	3 362 13                        @ lvgl/src/lv_misc/lv_area.c:362:13
	ldr	r1, [sp, #88]
	.loc	3 362 20                        @ lvgl/src/lv_misc/lv_area.c:362:20
	strh	r0, [r1]
	.loc	3 363 41 is_stmt 1              @ lvgl/src/lv_misc/lv_area.c:363:41
	ldr	r0, [sp, #100]
	.loc	3 363 22 is_stmt 0              @ lvgl/src/lv_misc/lv_area.c:363:22
	bl	lv_area_get_height
	.loc	3 363 68                        @ lvgl/src/lv_misc/lv_area.c:363:68
	str	r0, [sp, #12]                   @ 4-byte Spill
	ldr	r0, [sp, #96]
	.loc	3 363 49                        @ lvgl/src/lv_misc/lv_area.c:363:49
	bl	lv_area_get_height
	mov	r1, r0
	.loc	3 363 47                        @ lvgl/src/lv_misc/lv_area.c:363:47
	ldr	r0, [sp, #12]                   @ 4-byte Reload
	subs	r0, r0, r1
	.loc	3 363 13                        @ lvgl/src/lv_misc/lv_area.c:363:13
	ldr	r1, [sp, #88]
	.loc	3 363 20                        @ lvgl/src/lv_misc/lv_area.c:363:20
	strh	r0, [r1, #2]
	.loc	3 364 13 is_stmt 1              @ lvgl/src/lv_misc/lv_area.c:364:13
	b	.LBB13_24
.LBB13_21:
	.loc	3 367 40                        @ lvgl/src/lv_misc/lv_area.c:367:40
	ldr	r0, [sp, #100]
	.loc	3 367 22 is_stmt 0              @ lvgl/src/lv_misc/lv_area.c:367:22
	bl	lv_area_get_width
	.loc	3 367 13                        @ lvgl/src/lv_misc/lv_area.c:367:13
	ldr	r1, [sp, #88]
	.loc	3 367 20                        @ lvgl/src/lv_misc/lv_area.c:367:20
	strh	r0, [r1]
	.loc	3 368 13 is_stmt 1              @ lvgl/src/lv_misc/lv_area.c:368:13
	ldr	r1, [sp, #88]
	movs	r0, #0
	.loc	3 368 20 is_stmt 0              @ lvgl/src/lv_misc/lv_area.c:368:20
	strh	r0, [r1, #2]
	.loc	3 369 13 is_stmt 1              @ lvgl/src/lv_misc/lv_area.c:369:13
	b	.LBB13_24
.LBB13_22:
	.loc	3 372 40                        @ lvgl/src/lv_misc/lv_area.c:372:40
	ldr	r0, [sp, #100]
	.loc	3 372 22 is_stmt 0              @ lvgl/src/lv_misc/lv_area.c:372:22
	bl	lv_area_get_width
	.loc	3 372 13                        @ lvgl/src/lv_misc/lv_area.c:372:13
	ldr	r1, [sp, #88]
	.loc	3 372 20                        @ lvgl/src/lv_misc/lv_area.c:372:20
	strh	r0, [r1]
	.loc	3 373 41 is_stmt 1              @ lvgl/src/lv_misc/lv_area.c:373:41
	ldr	r0, [sp, #100]
	.loc	3 373 22 is_stmt 0              @ lvgl/src/lv_misc/lv_area.c:373:22
	bl	lv_area_get_height
	.loc	3 373 47                        @ lvgl/src/lv_misc/lv_area.c:373:47
	add.w	r0, r0, r0, lsr #31
	lsrs	r0, r0, #1
	.loc	3 373 72                        @ lvgl/src/lv_misc/lv_area.c:373:72
	str	r0, [sp, #8]                    @ 4-byte Spill
	ldr	r0, [sp, #96]
	.loc	3 373 53                        @ lvgl/src/lv_misc/lv_area.c:373:53
	bl	lv_area_get_height
	mov	r1, r0
	.loc	3 373 82                        @ lvgl/src/lv_misc/lv_area.c:373:82
	ldr	r0, [sp, #8]                    @ 4-byte Reload
	add.w	r1, r1, r1, lsr #31
	.loc	3 373 51                        @ lvgl/src/lv_misc/lv_area.c:373:51
	sub.w	r0, r0, r1, lsr #1
	.loc	3 373 13                        @ lvgl/src/lv_misc/lv_area.c:373:13
	ldr	r1, [sp, #88]
	.loc	3 373 20                        @ lvgl/src/lv_misc/lv_area.c:373:20
	strh	r0, [r1, #2]
	.loc	3 374 13 is_stmt 1              @ lvgl/src/lv_misc/lv_area.c:374:13
	b	.LBB13_24
.LBB13_23:
	.loc	3 377 40                        @ lvgl/src/lv_misc/lv_area.c:377:40
	ldr	r0, [sp, #100]
	.loc	3 377 22 is_stmt 0              @ lvgl/src/lv_misc/lv_area.c:377:22
	bl	lv_area_get_width
	.loc	3 377 13                        @ lvgl/src/lv_misc/lv_area.c:377:13
	ldr	r1, [sp, #88]
	.loc	3 377 20                        @ lvgl/src/lv_misc/lv_area.c:377:20
	strh	r0, [r1]
	.loc	3 378 41 is_stmt 1              @ lvgl/src/lv_misc/lv_area.c:378:41
	ldr	r0, [sp, #100]
	.loc	3 378 22 is_stmt 0              @ lvgl/src/lv_misc/lv_area.c:378:22
	bl	lv_area_get_height
	.loc	3 378 68                        @ lvgl/src/lv_misc/lv_area.c:378:68
	str	r0, [sp, #4]                    @ 4-byte Spill
	ldr	r0, [sp, #96]
	.loc	3 378 49                        @ lvgl/src/lv_misc/lv_area.c:378:49
	bl	lv_area_get_height
	mov	r1, r0
	.loc	3 378 47                        @ lvgl/src/lv_misc/lv_area.c:378:47
	ldr	r0, [sp, #4]                    @ 4-byte Reload
	subs	r0, r0, r1
	.loc	3 378 13                        @ lvgl/src/lv_misc/lv_area.c:378:13
	ldr	r1, [sp, #88]
	.loc	3 378 20                        @ lvgl/src/lv_misc/lv_area.c:378:20
	strh	r0, [r1, #2]
	.loc	3 379 13 is_stmt 1              @ lvgl/src/lv_misc/lv_area.c:379:13
	b	.LBB13_24
.Ltmp97:
.LBB13_24:
	.loc	3 382 15                        @ lvgl/src/lv_misc/lv_area.c:382:15
	ldr	r0, [sp, #100]
	ldrh	r2, [r0]
	.loc	3 382 5 is_stmt 0               @ lvgl/src/lv_misc/lv_area.c:382:5
	ldr	r1, [sp, #88]
	.loc	3 382 12                        @ lvgl/src/lv_misc/lv_area.c:382:12
	ldrh	r0, [r1]
	add	r0, r2
	strh	r0, [r1]
	.loc	3 383 15 is_stmt 1              @ lvgl/src/lv_misc/lv_area.c:383:15
	ldr	r0, [sp, #100]
	ldrh	r2, [r0, #2]
	.loc	3 383 5 is_stmt 0               @ lvgl/src/lv_misc/lv_area.c:383:5
	ldr	r1, [sp, #88]
	.loc	3 383 12                        @ lvgl/src/lv_misc/lv_area.c:383:12
	ldrh	r0, [r1, #2]
	add	r0, r2
	strh	r0, [r1, #2]
	.loc	3 384 1 is_stmt 1               @ lvgl/src/lv_misc/lv_area.c:384:1
	add	sp, #104
	pop	{r7, pc}
.Ltmp98:
.Lfunc_end13:
	.size	_lv_area_align, .Lfunc_end13-_lv_area_align
	.cfi_endproc
	.cantunwind
	.fnend
                                        @ -- End function
	.section	".note.GNU-stack","",%progbits
	.eabi_attribute	30, 6	@ Tag_ABI_optimization_goals
	.ARM_attribute	16, 1	@ Tag_AV_eba