	.text
	.syntax unified
	.eabi_attribute	67, "2.09"	@ Tag_conformance
	.cpu	cortex-m7
	.eabi_attribute	6, 13	@ Tag_CPU_arch
	.eabi_attribute	7, 77	@ Tag_CPU_arch_profile
	.eabi_attribute	8, 0	@ Tag_ARM_ISA_use
	.eabi_attribute	9, 2	@ Tag_THUMB_ISA_use
	.fpu	fpv5-d16
	.eabi_attribute	36, 1	@ Tag_FP_HP_extension
	.eabi_attribute	34, 1	@ Tag_CPU_unaligned_access
	.eabi_attribute	17, 1	@ Tag_ABI_PCS_GOT_use
	.eabi_attribute	20, 2	@ Tag_ABI_FP_denormal
	.eabi_attribute	21, 0	@ Tag_ABI_FP_exceptions
	.eabi_attribute	23, 1	@ Tag_ABI_FP_number_model
	.eabi_attribute	24, 1	@ Tag_ABI_align_needed
	.eabi_attribute	25, 1	@ Tag_ABI_align_preserved
	.eabi_attribute	28, 1	@ Tag_ABI_VFP_args
	.eabi_attribute	38, 1	@ Tag_ABI_FP_16bit_format
	.eabi_attribute	18, 2	@ Tag_ABI_PCS_wchar_t
	.eabi_attribute	26, 1	@ Tag_ABI_enum_size
	.eabi_attribute	14, 0	@ Tag_ABI_PCS_R9_use
	.file	"lv_btnmatrix.c"
	.file	1 "D:\\Keil_v5\\ARM\\ARMCLANG\\Bin\\..\\include" "stdint.h"
	.file	2 "E:\\Smart-access-control\\Hardware\\CODE" "lvgl/src/lv_widgets/../lv_themes/../lv_core/lv_obj.h"
	.file	3 "E:\\Smart-access-control\\Hardware\\CODE" "lvgl/src/lv_widgets/../lv_core/../lv_font/../lv_misc/lv_ll.h"
	.file	4 "E:\\Smart-access-control\\Hardware\\CODE" "./lvgl/src/lv_conf.h"
	.file	5 "E:\\Smart-access-control\\Hardware\\CODE" "lvgl/src/lv_widgets/../lv_core/../lv_hal/../lv_misc/lv_area.h"
	.file	6 "E:\\Smart-access-control\\Hardware\\CODE" "lvgl/src/lv_widgets/../lv_core/../lv_draw/../lv_misc/lv_types.h"
	.file	7 "E:\\Smart-access-control\\Hardware\\CODE" "lvgl/src/lv_widgets/../lv_themes/../lv_core/lv_style.h"
	.file	8 "E:\\Smart-access-control\\Hardware\\CODE" "lvgl/src/lv_widgets/../lv_core/../lv_hal/lv_hal_indev.h"
	.file	9 "E:\\Smart-access-control\\Hardware\\CODE" "lvgl/src/lv_widgets/../lv_core/../lv_draw/../lv_misc/lv_bidi.h"
	.file	10 "E:\\Smart-access-control\\Hardware\\CODE" "lvgl/src/lv_widgets/lv_btnmatrix.c"
	.file	11 "E:\\Smart-access-control\\Hardware\\CODE" "lvgl/src/lv_widgets/../lv_themes/lv_theme.h"
	.file	12 "E:\\Smart-access-control\\Hardware\\CODE" "lvgl/src/lv_widgets/lv_btnmatrix.h"
	.file	13 "E:\\Smart-access-control\\Hardware\\CODE" "lvgl/src/lv_widgets/lv_label.h"
	.file	14 "E:\\Smart-access-control\\Hardware\\CODE" "lvgl/src/lv_widgets/../lv_core/../lv_font/../lv_misc/lv_txt.h"
	.file	15 "E:\\Smart-access-control\\Hardware\\CODE" "lvgl/src/lv_widgets/../lv_core/lv_group.h"
	.section	.text.lv_btnmatrix_create,"ax",%progbits
	.hidden	lv_btnmatrix_create             @ -- Begin function lv_btnmatrix_create
	.globl	lv_btnmatrix_create
	.p2align	3
	.type	lv_btnmatrix_create,%function
	.code	16                              @ @lv_btnmatrix_create
	.thumb_func
lv_btnmatrix_create:
.Lfunc_begin0:
	.loc	10 73 0                         @ lvgl/src/lv_widgets/lv_btnmatrix.c:73:0
	.fnstart
	.cfi_sections .debug_frame
	.cfi_startproc
@ %bb.0:
	.save	{r7, lr}
	push	{r7, lr}
	.cfi_def_cfa_offset 8
	.cfi_offset lr, -4
	.cfi_offset r7, -8
	.pad	#24
	sub	sp, #24
	.cfi_def_cfa_offset 32
	str	r0, [sp, #16]
	str	r1, [sp, #12]
.Ltmp0:
	.loc	10 77 37 prologue_end           @ lvgl/src/lv_widgets/lv_btnmatrix.c:77:37
	ldr	r0, [sp, #16]
	.loc	10 77 42 is_stmt 0              @ lvgl/src/lv_widgets/lv_btnmatrix.c:77:42
	ldr	r1, [sp, #12]
	.loc	10 77 23                        @ lvgl/src/lv_widgets/lv_btnmatrix.c:77:23
	bl	lv_obj_create
	.loc	10 77 16                        @ lvgl/src/lv_widgets/lv_btnmatrix.c:77:16
	str	r0, [sp, #8]
	.loc	10 78 5 is_stmt 1               @ lvgl/src/lv_widgets/lv_btnmatrix.c:78:5
	b	.LBB0_1
.LBB0_1:
.Ltmp1:
	.loc	10 78 5 is_stmt 0               @ lvgl/src/lv_widgets/lv_btnmatrix.c:78:5
	ldr	r0, [sp, #8]
	bl	lv_debug_check_null
.Ltmp2:
	.loc	10 78 5                         @ lvgl/src/lv_widgets/lv_btnmatrix.c:78:5
	cbnz	r0, .LBB0_4
	b	.LBB0_2
.LBB0_2:
.Ltmp3:
	.loc	10 78 5                         @ lvgl/src/lv_widgets/lv_btnmatrix.c:78:5
	ldr	r2, [sp, #8]
	movw	r0, :lower16:.L.str
	movt	r0, :upper16:.L.str
	movs	r3, #0
	bl	lv_debug_log_error
	b	.LBB0_3
.LBB0_3:                                @ =>This Inner Loop Header: Depth=1
	b	.LBB0_3
.Ltmp4:
.LBB0_4:
	.loc	10 78 5                         @ lvgl/src/lv_widgets/lv_btnmatrix.c:78:5
	b	.LBB0_5
.Ltmp5:
.LBB0_5:
	.loc	10 79 8 is_stmt 1               @ lvgl/src/lv_widgets/lv_btnmatrix.c:79:8
	ldr	r0, [sp, #8]
.Ltmp6:
	.loc	10 79 8 is_stmt 0               @ lvgl/src/lv_widgets/lv_btnmatrix.c:79:8
	cbnz	r0, .LBB0_7
	b	.LBB0_6
.LBB0_6:
	.loc	10 0 8                          @ lvgl/src/lv_widgets/lv_btnmatrix.c:0:8
	movs	r0, #0
.Ltmp7:
	.loc	10 79 22                        @ lvgl/src/lv_widgets/lv_btnmatrix.c:79:22
	str	r0, [sp, #20]
	b	.LBB0_22
.Ltmp8:
.LBB0_7:
	.loc	10 81 8 is_stmt 1               @ lvgl/src/lv_widgets/lv_btnmatrix.c:81:8
	movw	r0, :lower16:ancestor_signal
	movt	r0, :upper16:ancestor_signal
	ldr	r0, [r0]
.Ltmp9:
	.loc	10 81 8 is_stmt 0               @ lvgl/src/lv_widgets/lv_btnmatrix.c:81:8
	cbnz	r0, .LBB0_9
	b	.LBB0_8
.LBB0_8:
.Ltmp10:
	.loc	10 81 72                        @ lvgl/src/lv_widgets/lv_btnmatrix.c:81:72
	ldr	r0, [sp, #8]
	.loc	10 81 51                        @ lvgl/src/lv_widgets/lv_btnmatrix.c:81:51
	bl	lv_obj_get_signal_cb
	.loc	10 81 49                        @ lvgl/src/lv_widgets/lv_btnmatrix.c:81:49
	movw	r1, :lower16:ancestor_signal
	movt	r1, :upper16:ancestor_signal
	str	r0, [r1]
	.loc	10 81 33                        @ lvgl/src/lv_widgets/lv_btnmatrix.c:81:33
	b	.LBB0_9
.Ltmp11:
.LBB0_9:
	.loc	10 84 57 is_stmt 1              @ lvgl/src/lv_widgets/lv_btnmatrix.c:84:57
	ldr	r0, [sp, #8]
	movs	r1, #32
	.loc	10 84 32 is_stmt 0              @ lvgl/src/lv_widgets/lv_btnmatrix.c:84:32
	bl	lv_obj_allocate_ext_attr
	.loc	10 84 26                        @ lvgl/src/lv_widgets/lv_btnmatrix.c:84:26
	str	r0, [sp, #4]
	.loc	10 85 5 is_stmt 1               @ lvgl/src/lv_widgets/lv_btnmatrix.c:85:5
	b	.LBB0_10
.LBB0_10:
.Ltmp12:
	.loc	10 85 5 is_stmt 0               @ lvgl/src/lv_widgets/lv_btnmatrix.c:85:5
	ldr	r0, [sp, #4]
	bl	lv_debug_check_null
.Ltmp13:
	.loc	10 85 5                         @ lvgl/src/lv_widgets/lv_btnmatrix.c:85:5
	cbnz	r0, .LBB0_13
	b	.LBB0_11
.LBB0_11:
.Ltmp14:
	.loc	10 85 5                         @ lvgl/src/lv_widgets/lv_btnmatrix.c:85:5
	ldr	r2, [sp, #4]
	movw	r0, :lower16:.L.str
	movt	r0, :upper16:.L.str
	movs	r3, #0
	bl	lv_debug_log_error
	b	.LBB0_12
.LBB0_12:                               @ =>This Inner Loop Header: Depth=1
	b	.LBB0_12
.Ltmp15:
.LBB0_13:
	.loc	10 85 5                         @ lvgl/src/lv_widgets/lv_btnmatrix.c:85:5
	b	.LBB0_14
.Ltmp16:
.LBB0_14:
	.loc	10 86 8 is_stmt 1               @ lvgl/src/lv_widgets/lv_btnmatrix.c:86:8
	ldr	r0, [sp, #4]
.Ltmp17:
	.loc	10 86 8 is_stmt 0               @ lvgl/src/lv_widgets/lv_btnmatrix.c:86:8
	cbnz	r0, .LBB0_16
	b	.LBB0_15
.LBB0_15:
.Ltmp18:
	.loc	10 87 20 is_stmt 1              @ lvgl/src/lv_widgets/lv_btnmatrix.c:87:20
	ldr	r0, [sp, #8]
	.loc	10 87 9 is_stmt 0               @ lvgl/src/lv_widgets/lv_btnmatrix.c:87:9
	bl	lv_obj_del
	movs	r0, #0
	.loc	10 88 9 is_stmt 1               @ lvgl/src/lv_widgets/lv_btnmatrix.c:88:9
	str	r0, [sp, #20]
	b	.LBB0_22
.Ltmp19:
.LBB0_16:
	.loc	10 91 5                         @ lvgl/src/lv_widgets/lv_btnmatrix.c:91:5
	ldr	r1, [sp, #4]
	movs	r0, #0
	.loc	10 91 25 is_stmt 0              @ lvgl/src/lv_widgets/lv_btnmatrix.c:91:25
	strh	r0, [r1, #20]
	.loc	10 92 5 is_stmt 1               @ lvgl/src/lv_widgets/lv_btnmatrix.c:92:5
	ldr	r2, [sp, #4]
	movw	r1, #65535
	.loc	10 92 25 is_stmt 0              @ lvgl/src/lv_widgets/lv_btnmatrix.c:92:25
	strh	r1, [r2, #22]
	.loc	10 93 5 is_stmt 1               @ lvgl/src/lv_widgets/lv_btnmatrix.c:93:5
	ldr	r2, [sp, #4]
	.loc	10 93 25 is_stmt 0              @ lvgl/src/lv_widgets/lv_btnmatrix.c:93:25
	strh	r1, [r2, #24]
	.loc	10 94 5 is_stmt 1               @ lvgl/src/lv_widgets/lv_btnmatrix.c:94:5
	ldr	r2, [sp, #4]
	.loc	10 94 25 is_stmt 0              @ lvgl/src/lv_widgets/lv_btnmatrix.c:94:25
	strh	r1, [r2, #26]
	.loc	10 95 5 is_stmt 1               @ lvgl/src/lv_widgets/lv_btnmatrix.c:95:5
	ldr	r1, [sp, #4]
	.loc	10 95 25 is_stmt 0              @ lvgl/src/lv_widgets/lv_btnmatrix.c:95:25
	str	r0, [r1, #4]
	.loc	10 96 5 is_stmt 1               @ lvgl/src/lv_widgets/lv_btnmatrix.c:96:5
	ldr	r1, [sp, #4]
	.loc	10 96 25 is_stmt 0              @ lvgl/src/lv_widgets/lv_btnmatrix.c:96:25
	str	r0, [r1, #8]
	.loc	10 97 5 is_stmt 1               @ lvgl/src/lv_widgets/lv_btnmatrix.c:97:5
	ldr	r1, [sp, #4]
	.loc	10 97 25 is_stmt 0              @ lvgl/src/lv_widgets/lv_btnmatrix.c:97:25
	str	r0, [r1]
	.loc	10 98 5 is_stmt 1               @ lvgl/src/lv_widgets/lv_btnmatrix.c:98:5
	ldr	r1, [sp, #4]
	.loc	10 98 25 is_stmt 0              @ lvgl/src/lv_widgets/lv_btnmatrix.c:98:25
	ldrb	r0, [r1, #28]
	and	r0, r0, #254
	strb	r0, [r1, #28]
	.loc	10 99 5 is_stmt 1               @ lvgl/src/lv_widgets/lv_btnmatrix.c:99:5
	ldr	r1, [sp, #4]
	.loc	10 99 25 is_stmt 0              @ lvgl/src/lv_widgets/lv_btnmatrix.c:99:25
	ldrb	r0, [r1, #28]
	and	r0, r0, #253
	strb	r0, [r1, #28]
	.loc	10 100 25 is_stmt 1             @ lvgl/src/lv_widgets/lv_btnmatrix.c:100:25
	ldr	r0, [sp, #4]
	.loc	10 100 30 is_stmt 0             @ lvgl/src/lv_widgets/lv_btnmatrix.c:100:30
	adds	r0, #12
	.loc	10 100 5                        @ lvgl/src/lv_widgets/lv_btnmatrix.c:100:5
	bl	lv_style_list_init
	.loc	10 101 5 is_stmt 1              @ lvgl/src/lv_widgets/lv_btnmatrix.c:101:5
	ldr	r1, [sp, #4]
	.loc	10 101 33 is_stmt 0             @ lvgl/src/lv_widgets/lv_btnmatrix.c:101:33
	ldrb	r0, [r1, #17]
	orr	r0, r0, #2
	strb	r0, [r1, #17]
.Ltmp20:
	.loc	10 103 8 is_stmt 1              @ lvgl/src/lv_widgets/lv_btnmatrix.c:103:8
	movw	r0, :lower16:ancestor_design_f
	movt	r0, :upper16:ancestor_design_f
	ldr	r0, [r0]
.Ltmp21:
	.loc	10 103 8 is_stmt 0              @ lvgl/src/lv_widgets/lv_btnmatrix.c:103:8
	cbnz	r0, .LBB0_18
	b	.LBB0_17
.LBB0_17:
.Ltmp22:
	.loc	10 103 76                       @ lvgl/src/lv_widgets/lv_btnmatrix.c:103:76
	ldr	r0, [sp, #8]
	.loc	10 103 55                       @ lvgl/src/lv_widgets/lv_btnmatrix.c:103:55
	bl	lv_obj_get_design_cb
	.loc	10 103 53                       @ lvgl/src/lv_widgets/lv_btnmatrix.c:103:53
	movw	r1, :lower16:ancestor_design_f
	movt	r1, :upper16:ancestor_design_f
	str	r0, [r1]
	.loc	10 103 35                       @ lvgl/src/lv_widgets/lv_btnmatrix.c:103:35
	b	.LBB0_18
.Ltmp23:
.LBB0_18:
	.loc	10 105 26 is_stmt 1             @ lvgl/src/lv_widgets/lv_btnmatrix.c:105:26
	ldr	r0, [sp, #8]
	.loc	10 105 5 is_stmt 0              @ lvgl/src/lv_widgets/lv_btnmatrix.c:105:5
	movw	r1, :lower16:lv_btnmatrix_signal
	movt	r1, :upper16:lv_btnmatrix_signal
	bl	lv_obj_set_signal_cb
	.loc	10 106 26 is_stmt 1             @ lvgl/src/lv_widgets/lv_btnmatrix.c:106:26
	ldr	r0, [sp, #8]
	.loc	10 106 5 is_stmt 0              @ lvgl/src/lv_widgets/lv_btnmatrix.c:106:5
	movw	r1, :lower16:lv_btnmatrix_design
	movt	r1, :upper16:lv_btnmatrix_design
	bl	lv_obj_set_design_cb
.Ltmp24:
	.loc	10 109 8 is_stmt 1              @ lvgl/src/lv_widgets/lv_btnmatrix.c:109:8
	ldr	r0, [sp, #12]
.Ltmp25:
	.loc	10 109 8 is_stmt 0              @ lvgl/src/lv_widgets/lv_btnmatrix.c:109:8
	cbnz	r0, .LBB0_20
	b	.LBB0_19
.LBB0_19:
.Ltmp26:
	.loc	10 110 30 is_stmt 1             @ lvgl/src/lv_widgets/lv_btnmatrix.c:110:30
	ldr	r0, [sp, #8]
	.loc	10 110 9 is_stmt 0              @ lvgl/src/lv_widgets/lv_btnmatrix.c:110:9
	movw	r1, :lower16:lv_btnmatrix_def_map
	movt	r1, :upper16:lv_btnmatrix_def_map
	bl	lv_btnmatrix_set_map
	.loc	10 111 25 is_stmt 1             @ lvgl/src/lv_widgets/lv_btnmatrix.c:111:25
	ldr	r0, [sp, #8]
	mov.w	r1, #260
	movs	r2, #130
	.loc	10 111 9 is_stmt 0              @ lvgl/src/lv_widgets/lv_btnmatrix.c:111:9
	bl	lv_obj_set_size
	.loc	10 112 24 is_stmt 1             @ lvgl/src/lv_widgets/lv_btnmatrix.c:112:24
	ldr	r0, [sp, #8]
	movs	r1, #6
	.loc	10 112 9 is_stmt 0              @ lvgl/src/lv_widgets/lv_btnmatrix.c:112:9
	bl	lv_theme_apply
	.loc	10 113 5 is_stmt 1              @ lvgl/src/lv_widgets/lv_btnmatrix.c:113:5
	b	.LBB0_21
.Ltmp27:
.LBB0_20:
	.loc	10 116 61                       @ lvgl/src/lv_widgets/lv_btnmatrix.c:116:61
	ldr	r0, [sp, #12]
	.loc	10 116 41 is_stmt 0             @ lvgl/src/lv_widgets/lv_btnmatrix.c:116:41
	bl	lv_obj_get_ext_attr
	.loc	10 116 30                       @ lvgl/src/lv_widgets/lv_btnmatrix.c:116:30
	str	r0, [sp]
	.loc	10 117 30 is_stmt 1             @ lvgl/src/lv_widgets/lv_btnmatrix.c:117:30
	ldr	r0, [sp, #8]
	.loc	10 117 36 is_stmt 0             @ lvgl/src/lv_widgets/lv_btnmatrix.c:117:36
	ldr	r1, [sp]
	.loc	10 117 46                       @ lvgl/src/lv_widgets/lv_btnmatrix.c:117:46
	ldr	r1, [r1]
	.loc	10 117 9                        @ lvgl/src/lv_widgets/lv_btnmatrix.c:117:9
	bl	lv_btnmatrix_set_map
	.loc	10 118 35 is_stmt 1             @ lvgl/src/lv_widgets/lv_btnmatrix.c:118:35
	ldr	r0, [sp, #8]
	.loc	10 118 41 is_stmt 0             @ lvgl/src/lv_widgets/lv_btnmatrix.c:118:41
	ldr	r1, [sp]
	.loc	10 118 51                       @ lvgl/src/lv_widgets/lv_btnmatrix.c:118:51
	ldr	r1, [r1, #8]
	.loc	10 118 9                        @ lvgl/src/lv_widgets/lv_btnmatrix.c:118:9
	bl	lv_btnmatrix_set_ctrl_map
	.loc	10 119 29 is_stmt 1             @ lvgl/src/lv_widgets/lv_btnmatrix.c:119:29
	ldr	r0, [sp, #4]
	.loc	10 119 34 is_stmt 0             @ lvgl/src/lv_widgets/lv_btnmatrix.c:119:34
	adds	r0, #12
	.loc	10 119 46                       @ lvgl/src/lv_widgets/lv_btnmatrix.c:119:46
	ldr	r1, [sp]
	.loc	10 119 56                       @ lvgl/src/lv_widgets/lv_btnmatrix.c:119:56
	adds	r1, #12
	.loc	10 119 9                        @ lvgl/src/lv_widgets/lv_btnmatrix.c:119:9
	bl	lv_style_list_copy
	b	.LBB0_21
.Ltmp28:
.LBB0_21:
	.loc	10 124 12 is_stmt 1             @ lvgl/src/lv_widgets/lv_btnmatrix.c:124:12
	ldr	r0, [sp, #8]
	.loc	10 124 5 is_stmt 0              @ lvgl/src/lv_widgets/lv_btnmatrix.c:124:5
	str	r0, [sp, #20]
	b	.LBB0_22
.LBB0_22:
	.loc	10 125 1 is_stmt 1              @ lvgl/src/lv_widgets/lv_btnmatrix.c:125:1
	ldr	r0, [sp, #20]
	add	sp, #24
	pop	{r7, pc}
.Ltmp29:
.Lfunc_end0:
	.size	lv_btnmatrix_create, .Lfunc_end0-lv_btnmatrix_create
	.cfi_endproc
	.cantunwind
	.fnend
                                        @ -- End function
	.section	.text.lv_btnmatrix_signal,"ax",%progbits
	.p2align	3                               @ -- Begin function lv_btnmatrix_signal
	.type	lv_btnmatrix_signal,%function
	.code	16                              @ @lv_btnmatrix_signal
	.thumb_func
lv_btnmatrix_signal:
.Lfunc_begin1:
	.loc	10 842 0                        @ lvgl/src/lv_widgets/lv_btnmatrix.c:842:0
	.fnstart
	.cfi_startproc
@ %bb.0:
	.save	{r7, lr}
	push	{r7, lr}
	.cfi_def_cfa_offset 8
	.cfi_offset lr, -4
	.cfi_offset r7, -8
	.pad	#120
	sub	sp, #120
	.cfi_def_cfa_offset 128
                                        @ kill: def $r3 killed $r1
	str	r0, [sp, #112]
	strb.w	r1, [sp, #111]
	str	r2, [sp, #104]
.Ltmp30:
	.loc	10 844 8 prologue_end           @ lvgl/src/lv_widgets/lv_btnmatrix.c:844:8
	ldrb.w	r0, [sp, #111]
.Ltmp31:
	.loc	10 844 8 is_stmt 0              @ lvgl/src/lv_widgets/lv_btnmatrix.c:844:8
	cmp	r0, #8
	bne	.LBB1_4
	b	.LBB1_1
.LBB1_1:
.Ltmp32:
	.loc	10 845 38 is_stmt 1             @ lvgl/src/lv_widgets/lv_btnmatrix.c:845:38
	ldr	r0, [sp, #104]
	.loc	10 845 31 is_stmt 0             @ lvgl/src/lv_widgets/lv_btnmatrix.c:845:31
	str	r0, [sp, #96]
	.loc	10 846 47 is_stmt 1             @ lvgl/src/lv_widgets/lv_btnmatrix.c:846:47
	ldr	r0, [sp, #112]
	.loc	10 846 53 is_stmt 0             @ lvgl/src/lv_widgets/lv_btnmatrix.c:846:53
	ldr	r1, [sp, #96]
	.loc	10 846 59                       @ lvgl/src/lv_widgets/lv_btnmatrix.c:846:59
	ldrb	r1, [r1]
	.loc	10 846 24                       @ lvgl/src/lv_widgets/lv_btnmatrix.c:846:24
	bl	lv_btnmatrix_get_style
	.loc	10 846 9                        @ lvgl/src/lv_widgets/lv_btnmatrix.c:846:9
	ldr	r1, [sp, #96]
	.loc	10 846 22                       @ lvgl/src/lv_widgets/lv_btnmatrix.c:846:22
	str	r0, [r1, #4]
.Ltmp33:
	.loc	10 847 12 is_stmt 1             @ lvgl/src/lv_widgets/lv_btnmatrix.c:847:12
	ldr	r0, [sp, #96]
	.loc	10 847 18 is_stmt 0             @ lvgl/src/lv_widgets/lv_btnmatrix.c:847:18
	ldr	r0, [r0, #4]
.Ltmp34:
	.loc	10 847 12                       @ lvgl/src/lv_widgets/lv_btnmatrix.c:847:12
	cbz	r0, .LBB1_3
	b	.LBB1_2
.LBB1_2:
	.loc	10 0 12                         @ lvgl/src/lv_widgets/lv_btnmatrix.c:0:12
	movs	r0, #1
.Ltmp35:
	.loc	10 847 34                       @ lvgl/src/lv_widgets/lv_btnmatrix.c:847:34
	strb.w	r0, [sp, #119]
	b.w	.LBB1_168
.LBB1_3:
	.loc	10 848 21 is_stmt 1             @ lvgl/src/lv_widgets/lv_btnmatrix.c:848:21
	movw	r0, :lower16:ancestor_signal
	movt	r0, :upper16:ancestor_signal
	ldr	r3, [r0]
	.loc	10 848 37 is_stmt 0             @ lvgl/src/lv_widgets/lv_btnmatrix.c:848:37
	ldr	r0, [sp, #112]
	.loc	10 848 43                       @ lvgl/src/lv_widgets/lv_btnmatrix.c:848:43
	ldrb.w	r1, [sp, #111]
	.loc	10 848 49                       @ lvgl/src/lv_widgets/lv_btnmatrix.c:848:49
	ldr	r2, [sp, #104]
	.loc	10 848 21                       @ lvgl/src/lv_widgets/lv_btnmatrix.c:848:21
	blx	r3
	.loc	10 848 14                       @ lvgl/src/lv_widgets/lv_btnmatrix.c:848:14
	strb.w	r0, [sp, #119]
	b.w	.LBB1_168
.Ltmp36:
.LBB1_4:
	.loc	10 852 11 is_stmt 1             @ lvgl/src/lv_widgets/lv_btnmatrix.c:852:11
	movw	r0, :lower16:ancestor_signal
	movt	r0, :upper16:ancestor_signal
	ldr	r3, [r0]
	.loc	10 852 27 is_stmt 0             @ lvgl/src/lv_widgets/lv_btnmatrix.c:852:27
	ldr	r0, [sp, #112]
	.loc	10 852 33                       @ lvgl/src/lv_widgets/lv_btnmatrix.c:852:33
	ldrb.w	r1, [sp, #111]
	.loc	10 852 39                       @ lvgl/src/lv_widgets/lv_btnmatrix.c:852:39
	ldr	r2, [sp, #104]
	.loc	10 852 11                       @ lvgl/src/lv_widgets/lv_btnmatrix.c:852:11
	blx	r3
	.loc	10 852 9                        @ lvgl/src/lv_widgets/lv_btnmatrix.c:852:9
	strb.w	r0, [sp, #103]
.Ltmp37:
	.loc	10 853 8 is_stmt 1              @ lvgl/src/lv_widgets/lv_btnmatrix.c:853:8
	ldrb.w	r0, [sp, #103]
.Ltmp38:
	.loc	10 853 8 is_stmt 0              @ lvgl/src/lv_widgets/lv_btnmatrix.c:853:8
	cmp	r0, #1
	beq	.LBB1_6
	b	.LBB1_5
.LBB1_5:
.Ltmp39:
	.loc	10 853 33                       @ lvgl/src/lv_widgets/lv_btnmatrix.c:853:33
	ldrb.w	r0, [sp, #103]
	.loc	10 853 26                       @ lvgl/src/lv_widgets/lv_btnmatrix.c:853:26
	strb.w	r0, [sp, #119]
	b.w	.LBB1_168
.Ltmp40:
.LBB1_6:
	.loc	10 854 8 is_stmt 1              @ lvgl/src/lv_widgets/lv_btnmatrix.c:854:8
	ldrb.w	r0, [sp, #111]
.Ltmp41:
	.loc	10 854 8 is_stmt 0              @ lvgl/src/lv_widgets/lv_btnmatrix.c:854:8
	cmp	r0, #7
	bne	.LBB1_8
	b	.LBB1_7
.LBB1_7:
.Ltmp42:
	.loc	10 854 73                       @ lvgl/src/lv_widgets/lv_btnmatrix.c:854:73
	ldr	r0, [sp, #104]
	.loc	10 854 43                       @ lvgl/src/lv_widgets/lv_btnmatrix.c:854:43
	movw	r1, :lower16:.L.str.9
	movt	r1, :upper16:.L.str.9
	bl	lv_obj_handle_get_type_signal
	.loc	10 854 36                       @ lvgl/src/lv_widgets/lv_btnmatrix.c:854:36
	strb.w	r0, [sp, #119]
	b.w	.LBB1_168
.Ltmp43:
.LBB1_8:
	.loc	10 856 52 is_stmt 1             @ lvgl/src/lv_widgets/lv_btnmatrix.c:856:52
	ldr	r0, [sp, #112]
	.loc	10 856 32 is_stmt 0             @ lvgl/src/lv_widgets/lv_btnmatrix.c:856:32
	bl	lv_obj_get_ext_attr
	.loc	10 856 26                       @ lvgl/src/lv_widgets/lv_btnmatrix.c:856:26
	str	r0, [sp, #92]
.Ltmp44:
	.loc	10 858 8 is_stmt 1              @ lvgl/src/lv_widgets/lv_btnmatrix.c:858:8
	ldrb.w	r0, [sp, #111]
.Ltmp45:
	.loc	10 858 8 is_stmt 0              @ lvgl/src/lv_widgets/lv_btnmatrix.c:858:8
	cbnz	r0, .LBB1_10
	b	.LBB1_9
.LBB1_9:
.Ltmp46:
	.loc	10 859 33 is_stmt 1             @ lvgl/src/lv_widgets/lv_btnmatrix.c:859:33
	ldr	r0, [sp, #112]
	movs	r1, #1
	.loc	10 859 9 is_stmt 0              @ lvgl/src/lv_widgets/lv_btnmatrix.c:859:9
	bl	lv_obj_clean_style_list
	.loc	10 860 21 is_stmt 1             @ lvgl/src/lv_widgets/lv_btnmatrix.c:860:21
	ldr	r0, [sp, #92]
	.loc	10 860 26 is_stmt 0             @ lvgl/src/lv_widgets/lv_btnmatrix.c:860:26
	ldr	r0, [r0, #4]
	.loc	10 860 9                        @ lvgl/src/lv_widgets/lv_btnmatrix.c:860:9
	bl	lv_mem_free
	.loc	10 861 21 is_stmt 1             @ lvgl/src/lv_widgets/lv_btnmatrix.c:861:21
	ldr	r0, [sp, #92]
	.loc	10 861 26 is_stmt 0             @ lvgl/src/lv_widgets/lv_btnmatrix.c:861:26
	ldr	r0, [r0, #8]
	.loc	10 861 9                        @ lvgl/src/lv_widgets/lv_btnmatrix.c:861:9
	bl	lv_mem_free
	.loc	10 862 5 is_stmt 1              @ lvgl/src/lv_widgets/lv_btnmatrix.c:862:5
	b.w	.LBB1_167
.Ltmp47:
.LBB1_10:
	.loc	10 863 13                       @ lvgl/src/lv_widgets/lv_btnmatrix.c:863:13
	ldrb.w	r0, [sp, #111]
.Ltmp48:
	.loc	10 863 13 is_stmt 0             @ lvgl/src/lv_widgets/lv_btnmatrix.c:863:13
	cmp	r0, #4
	bne	.LBB1_12
	b	.LBB1_11
.LBB1_11:
.Ltmp49:
	.loc	10 864 30 is_stmt 1             @ lvgl/src/lv_widgets/lv_btnmatrix.c:864:30
	ldr	r0, [sp, #112]
	.loc	10 864 36 is_stmt 0             @ lvgl/src/lv_widgets/lv_btnmatrix.c:864:36
	ldr	r1, [sp, #92]
	.loc	10 864 41                       @ lvgl/src/lv_widgets/lv_btnmatrix.c:864:41
	ldr	r1, [r1]
	.loc	10 864 9                        @ lvgl/src/lv_widgets/lv_btnmatrix.c:864:9
	bl	lv_btnmatrix_set_map
	.loc	10 865 5 is_stmt 1              @ lvgl/src/lv_widgets/lv_btnmatrix.c:865:5
	b.w	.LBB1_166
.Ltmp50:
.LBB1_12:
	.loc	10 866 13                       @ lvgl/src/lv_widgets/lv_btnmatrix.c:866:13
	ldrb.w	r0, [sp, #111]
.Ltmp51:
	.loc	10 866 13 is_stmt 0             @ lvgl/src/lv_widgets/lv_btnmatrix.c:866:13
	cmp	r0, #2
	bne	.LBB1_17
	b	.LBB1_13
.LBB1_13:
.Ltmp52:
	.loc	10 867 29 is_stmt 1             @ lvgl/src/lv_widgets/lv_btnmatrix.c:867:29
	ldr	r0, [sp, #112]
	.loc	10 867 12 is_stmt 0             @ lvgl/src/lv_widgets/lv_btnmatrix.c:867:12
	bl	lv_obj_get_width
	.loc	10 867 56                       @ lvgl/src/lv_widgets/lv_btnmatrix.c:867:56
	str	r0, [sp, #24]                   @ 4-byte Spill
	ldr	r0, [sp, #104]
	.loc	10 867 38                       @ lvgl/src/lv_widgets/lv_btnmatrix.c:867:38
	bl	lv_area_get_width
	mov	r1, r0
	.loc	10 867 63                       @ lvgl/src/lv_widgets/lv_btnmatrix.c:867:63
	ldr	r0, [sp, #24]                   @ 4-byte Reload
	cmp	r0, r1
	bne	.LBB1_15
	b	.LBB1_14
.LBB1_14:
	.loc	10 867 84                       @ lvgl/src/lv_widgets/lv_btnmatrix.c:867:84
	ldr	r0, [sp, #112]
	.loc	10 867 66                       @ lvgl/src/lv_widgets/lv_btnmatrix.c:867:66
	bl	lv_obj_get_height
	.loc	10 867 112                      @ lvgl/src/lv_widgets/lv_btnmatrix.c:867:112
	str	r0, [sp, #20]                   @ 4-byte Spill
	ldr	r0, [sp, #104]
	.loc	10 867 93                       @ lvgl/src/lv_widgets/lv_btnmatrix.c:867:93
	bl	lv_area_get_height
	mov	r1, r0
.Ltmp53:
	.loc	10 867 12                       @ lvgl/src/lv_widgets/lv_btnmatrix.c:867:12
	ldr	r0, [sp, #20]                   @ 4-byte Reload
	cmp	r0, r1
	beq	.LBB1_16
	b	.LBB1_15
.LBB1_15:
.Ltmp54:
	.loc	10 868 34 is_stmt 1             @ lvgl/src/lv_widgets/lv_btnmatrix.c:868:34
	ldr	r0, [sp, #112]
	.loc	10 868 40 is_stmt 0             @ lvgl/src/lv_widgets/lv_btnmatrix.c:868:40
	ldr	r1, [sp, #92]
	.loc	10 868 45                       @ lvgl/src/lv_widgets/lv_btnmatrix.c:868:45
	ldr	r1, [r1]
	.loc	10 868 13                       @ lvgl/src/lv_widgets/lv_btnmatrix.c:868:13
	bl	lv_btnmatrix_set_map
	.loc	10 869 9 is_stmt 1              @ lvgl/src/lv_widgets/lv_btnmatrix.c:869:9
	b	.LBB1_16
.Ltmp55:
.LBB1_16:
	.loc	10 870 5                        @ lvgl/src/lv_widgets/lv_btnmatrix.c:870:5
	b	.LBB1_165
.Ltmp56:
.LBB1_17:
	.loc	10 871 13                       @ lvgl/src/lv_widgets/lv_btnmatrix.c:871:13
	ldrb.w	r0, [sp, #111]
.Ltmp57:
	.loc	10 871 13 is_stmt 0             @ lvgl/src/lv_widgets/lv_btnmatrix.c:871:13
	cmp	r0, #11
	bne.w	.LBB1_38
	b	.LBB1_18
.LBB1_18:
.Ltmp58:
	.loc	10 872 32 is_stmt 1             @ lvgl/src/lv_widgets/lv_btnmatrix.c:872:32
	ldr	r0, [sp, #112]
	.loc	10 872 38 is_stmt 0             @ lvgl/src/lv_widgets/lv_btnmatrix.c:872:38
	ldr	r1, [sp, #92]
	.loc	10 872 43                       @ lvgl/src/lv_widgets/lv_btnmatrix.c:872:43
	ldrh	r1, [r1, #22]
	.loc	10 872 9                        @ lvgl/src/lv_widgets/lv_btnmatrix.c:872:9
	bl	invalidate_button_area
	.loc	10 874 56 is_stmt 1             @ lvgl/src/lv_widgets/lv_btnmatrix.c:874:56
	bl	lv_indev_get_act
	.loc	10 874 38 is_stmt 0             @ lvgl/src/lv_widgets/lv_btnmatrix.c:874:38
	bl	lv_indev_get_type
	.loc	10 874 25                       @ lvgl/src/lv_widgets/lv_btnmatrix.c:874:25
	strb.w	r0, [sp, #87]
.Ltmp59:
	.loc	10 875 12 is_stmt 1             @ lvgl/src/lv_widgets/lv_btnmatrix.c:875:12
	ldrb.w	r0, [sp, #87]
	.loc	10 875 48 is_stmt 0             @ lvgl/src/lv_widgets/lv_btnmatrix.c:875:48
	cmp	r0, #1
	beq	.LBB1_20
	b	.LBB1_19
.LBB1_19:
	.loc	10 875 51                       @ lvgl/src/lv_widgets/lv_btnmatrix.c:875:51
	ldrb.w	r0, [sp, #87]
.Ltmp60:
	.loc	10 875 12                       @ lvgl/src/lv_widgets/lv_btnmatrix.c:875:12
	cmp	r0, #3
	bne	.LBB1_26
	b	.LBB1_20
.LBB1_20:
.Ltmp61:
	.loc	10 878 32 is_stmt 1             @ lvgl/src/lv_widgets/lv_btnmatrix.c:878:32
	ldr	r0, [sp, #104]
	add	r1, sp, #88
	.loc	10 878 13 is_stmt 0             @ lvgl/src/lv_widgets/lv_btnmatrix.c:878:13
	str	r1, [sp, #16]                   @ 4-byte Spill
	bl	lv_indev_get_point
	ldr	r1, [sp, #16]                   @ 4-byte Reload
	.loc	10 879 44 is_stmt 1             @ lvgl/src/lv_widgets/lv_btnmatrix.c:879:44
	ldr	r0, [sp, #112]
	.loc	10 879 22 is_stmt 0             @ lvgl/src/lv_widgets/lv_btnmatrix.c:879:22
	bl	get_button_from_point
	.loc	10 879 20                       @ lvgl/src/lv_widgets/lv_btnmatrix.c:879:20
	strh.w	r0, [sp, #84]
.Ltmp62:
	.loc	10 881 16 is_stmt 1             @ lvgl/src/lv_widgets/lv_btnmatrix.c:881:16
	ldrh.w	r0, [sp, #84]
	movw	r1, #65535
.Ltmp63:
	.loc	10 881 16 is_stmt 0             @ lvgl/src/lv_widgets/lv_btnmatrix.c:881:16
	cmp	r0, r1
	beq	.LBB1_25
	b	.LBB1_21
.LBB1_21:
.Ltmp64:
	.loc	10 882 39 is_stmt 1             @ lvgl/src/lv_widgets/lv_btnmatrix.c:882:39
	ldr	r0, [sp, #92]
	.loc	10 882 44 is_stmt 0             @ lvgl/src/lv_widgets/lv_btnmatrix.c:882:44
	ldr	r0, [r0, #8]
	.loc	10 882 54                       @ lvgl/src/lv_widgets/lv_btnmatrix.c:882:54
	ldrh.w	r1, [sp, #84]
	.loc	10 882 39                       @ lvgl/src/lv_widgets/lv_btnmatrix.c:882:39
	ldrh.w	r0, [r0, r1, lsl #1]
	.loc	10 882 20                       @ lvgl/src/lv_widgets/lv_btnmatrix.c:882:20
	bl	button_is_inactive
	.loc	10 882 72                       @ lvgl/src/lv_widgets/lv_btnmatrix.c:882:72
	cbnz	r0, .LBB1_24
	b	.LBB1_22
.LBB1_22:
	.loc	10 883 37 is_stmt 1             @ lvgl/src/lv_widgets/lv_btnmatrix.c:883:37
	ldr	r0, [sp, #92]
	.loc	10 883 42 is_stmt 0             @ lvgl/src/lv_widgets/lv_btnmatrix.c:883:42
	ldr	r0, [r0, #8]
	.loc	10 883 52                       @ lvgl/src/lv_widgets/lv_btnmatrix.c:883:52
	ldrh.w	r1, [sp, #84]
	.loc	10 883 37                       @ lvgl/src/lv_widgets/lv_btnmatrix.c:883:37
	ldrh.w	r0, [r0, r1, lsl #1]
	.loc	10 883 20                       @ lvgl/src/lv_widgets/lv_btnmatrix.c:883:20
	bl	button_is_hidden
.Ltmp65:
	.loc	10 882 20 is_stmt 1             @ lvgl/src/lv_widgets/lv_btnmatrix.c:882:20
	cbnz	r0, .LBB1_24
	b	.LBB1_23
.LBB1_23:
.Ltmp66:
	.loc	10 884 44                       @ lvgl/src/lv_widgets/lv_btnmatrix.c:884:44
	ldr	r0, [sp, #112]
	.loc	10 884 50 is_stmt 0             @ lvgl/src/lv_widgets/lv_btnmatrix.c:884:50
	ldr	r1, [sp, #92]
	.loc	10 884 55                       @ lvgl/src/lv_widgets/lv_btnmatrix.c:884:55
	ldrh	r1, [r1, #22]
	.loc	10 884 21                       @ lvgl/src/lv_widgets/lv_btnmatrix.c:884:21
	bl	invalidate_button_area
	.loc	10 885 38 is_stmt 1             @ lvgl/src/lv_widgets/lv_btnmatrix.c:885:38
	ldrh.w	r0, [sp, #84]
	.loc	10 885 21 is_stmt 0             @ lvgl/src/lv_widgets/lv_btnmatrix.c:885:21
	ldr	r1, [sp, #92]
	.loc	10 885 36                       @ lvgl/src/lv_widgets/lv_btnmatrix.c:885:36
	strh	r0, [r1, #22]
	.loc	10 886 39 is_stmt 1             @ lvgl/src/lv_widgets/lv_btnmatrix.c:886:39
	ldrh.w	r0, [sp, #84]
	.loc	10 886 21 is_stmt 0             @ lvgl/src/lv_widgets/lv_btnmatrix.c:886:21
	ldr	r1, [sp, #92]
	.loc	10 886 37                       @ lvgl/src/lv_widgets/lv_btnmatrix.c:886:37
	strh	r0, [r1, #26]
	.loc	10 887 44 is_stmt 1             @ lvgl/src/lv_widgets/lv_btnmatrix.c:887:44
	ldr	r0, [sp, #112]
	.loc	10 887 50 is_stmt 0             @ lvgl/src/lv_widgets/lv_btnmatrix.c:887:50
	ldr	r1, [sp, #92]
	.loc	10 887 55                       @ lvgl/src/lv_widgets/lv_btnmatrix.c:887:55
	ldrh	r1, [r1, #22]
	.loc	10 887 21                       @ lvgl/src/lv_widgets/lv_btnmatrix.c:887:21
	bl	invalidate_button_area
	.loc	10 888 17 is_stmt 1             @ lvgl/src/lv_widgets/lv_btnmatrix.c:888:17
	b	.LBB1_24
.Ltmp67:
.LBB1_24:
	.loc	10 889 13                       @ lvgl/src/lv_widgets/lv_btnmatrix.c:889:13
	b	.LBB1_25
.Ltmp68:
.LBB1_25:
	.loc	10 890 9                        @ lvgl/src/lv_widgets/lv_btnmatrix.c:890:9
	b	.LBB1_31
.Ltmp69:
.LBB1_26:
	.loc	10 892 17                       @ lvgl/src/lv_widgets/lv_btnmatrix.c:892:17
	ldrb.w	r0, [sp, #87]
	.loc	10 892 52 is_stmt 0             @ lvgl/src/lv_widgets/lv_btnmatrix.c:892:52
	cmp	r0, #2
	beq	.LBB1_29
	b	.LBB1_27
.LBB1_27:
	.loc	10 892 56                       @ lvgl/src/lv_widgets/lv_btnmatrix.c:892:56
	ldrb.w	r0, [sp, #87]
	.loc	10 892 92                       @ lvgl/src/lv_widgets/lv_btnmatrix.c:892:92
	cmp	r0, #4
	bne	.LBB1_30
	b	.LBB1_28
.LBB1_28:
	.loc	10 893 94 is_stmt 1             @ lvgl/src/lv_widgets/lv_btnmatrix.c:893:94
	ldr	r0, [sp, #112]
	.loc	10 893 77 is_stmt 0             @ lvgl/src/lv_widgets/lv_btnmatrix.c:893:77
	bl	lv_obj_get_group
	.loc	10 893 56                       @ lvgl/src/lv_widgets/lv_btnmatrix.c:893:56
	bl	lv_group_get_editing
.Ltmp70:
	.loc	10 892 17 is_stmt 1             @ lvgl/src/lv_widgets/lv_btnmatrix.c:892:17
	cbz	r0, .LBB1_30
	b	.LBB1_29
.LBB1_29:
.Ltmp71:
	.loc	10 894 30                       @ lvgl/src/lv_widgets/lv_btnmatrix.c:894:30
	ldr	r1, [sp, #92]
	.loc	10 894 35 is_stmt 0             @ lvgl/src/lv_widgets/lv_btnmatrix.c:894:35
	ldrh	r0, [r1, #24]
	.loc	10 894 28                       @ lvgl/src/lv_widgets/lv_btnmatrix.c:894:28
	strh	r0, [r1, #22]
	.loc	10 895 36 is_stmt 1             @ lvgl/src/lv_widgets/lv_btnmatrix.c:895:36
	ldr	r0, [sp, #112]
	.loc	10 895 42 is_stmt 0             @ lvgl/src/lv_widgets/lv_btnmatrix.c:895:42
	ldr	r1, [sp, #92]
	.loc	10 895 47                       @ lvgl/src/lv_widgets/lv_btnmatrix.c:895:47
	ldrh	r1, [r1, #24]
	.loc	10 895 13                       @ lvgl/src/lv_widgets/lv_btnmatrix.c:895:13
	bl	invalidate_button_area
	.loc	10 896 9 is_stmt 1              @ lvgl/src/lv_widgets/lv_btnmatrix.c:896:9
	b	.LBB1_30
.Ltmp72:
.LBB1_30:
	.loc	10 0 9 is_stmt 0                @ lvgl/src/lv_widgets/lv_btnmatrix.c:0:9
	b	.LBB1_31
.LBB1_31:
.Ltmp73:
	.loc	10 899 12 is_stmt 1             @ lvgl/src/lv_widgets/lv_btnmatrix.c:899:12
	ldr	r0, [sp, #92]
	.loc	10 899 17 is_stmt 0             @ lvgl/src/lv_widgets/lv_btnmatrix.c:899:17
	ldrh	r0, [r0, #22]
	movw	r1, #65535
.Ltmp74:
	.loc	10 899 12                       @ lvgl/src/lv_widgets/lv_btnmatrix.c:899:12
	cmp	r0, r1
	beq	.LBB1_37
	b	.LBB1_32
.LBB1_32:
.Ltmp75:
	.loc	10 900 37 is_stmt 1             @ lvgl/src/lv_widgets/lv_btnmatrix.c:900:37
	ldr	r1, [sp, #92]
	.loc	10 900 42 is_stmt 0             @ lvgl/src/lv_widgets/lv_btnmatrix.c:900:42
	ldr	r0, [r1, #8]
	.loc	10 900 57                       @ lvgl/src/lv_widgets/lv_btnmatrix.c:900:57
	ldrh	r1, [r1, #22]
	.loc	10 900 37                       @ lvgl/src/lv_widgets/lv_btnmatrix.c:900:37
	ldrh.w	r0, [r0, r1, lsl #1]
	.loc	10 900 16                       @ lvgl/src/lv_widgets/lv_btnmatrix.c:900:16
	bl	button_is_click_trig
	.loc	10 900 78                       @ lvgl/src/lv_widgets/lv_btnmatrix.c:900:78
	cbnz	r0, .LBB1_36
	b	.LBB1_33
.LBB1_33:
	.loc	10 901 35 is_stmt 1             @ lvgl/src/lv_widgets/lv_btnmatrix.c:901:35
	ldr	r1, [sp, #92]
	.loc	10 901 40 is_stmt 0             @ lvgl/src/lv_widgets/lv_btnmatrix.c:901:40
	ldr	r0, [r1, #8]
	.loc	10 901 55                       @ lvgl/src/lv_widgets/lv_btnmatrix.c:901:55
	ldrh	r1, [r1, #22]
	.loc	10 901 35                       @ lvgl/src/lv_widgets/lv_btnmatrix.c:901:35
	ldrh.w	r0, [r0, r1, lsl #1]
	.loc	10 901 16                       @ lvgl/src/lv_widgets/lv_btnmatrix.c:901:16
	bl	button_is_inactive
	.loc	10 901 76                       @ lvgl/src/lv_widgets/lv_btnmatrix.c:901:76
	cbnz	r0, .LBB1_36
	b	.LBB1_34
.LBB1_34:
	.loc	10 902 33 is_stmt 1             @ lvgl/src/lv_widgets/lv_btnmatrix.c:902:33
	ldr	r1, [sp, #92]
	.loc	10 902 38 is_stmt 0             @ lvgl/src/lv_widgets/lv_btnmatrix.c:902:38
	ldr	r0, [r1, #8]
	.loc	10 902 53                       @ lvgl/src/lv_widgets/lv_btnmatrix.c:902:53
	ldrh	r1, [r1, #22]
	.loc	10 902 33                       @ lvgl/src/lv_widgets/lv_btnmatrix.c:902:33
	ldrh.w	r0, [r0, r1, lsl #1]
	.loc	10 902 16                       @ lvgl/src/lv_widgets/lv_btnmatrix.c:902:16
	bl	button_is_hidden
.Ltmp76:
	.loc	10 900 16 is_stmt 1             @ lvgl/src/lv_widgets/lv_btnmatrix.c:900:16
	cbnz	r0, .LBB1_36
	b	.LBB1_35
.LBB1_35:
.Ltmp77:
	.loc	10 903 30                       @ lvgl/src/lv_widgets/lv_btnmatrix.c:903:30
	ldr	r0, [sp, #92]
	.loc	10 903 35 is_stmt 0             @ lvgl/src/lv_widgets/lv_btnmatrix.c:903:35
	ldrh	r0, [r0, #22]
	.loc	10 903 26                       @ lvgl/src/lv_widgets/lv_btnmatrix.c:903:26
	str	r0, [sp, #80]
	.loc	10 904 44 is_stmt 1             @ lvgl/src/lv_widgets/lv_btnmatrix.c:904:44
	ldr	r0, [sp, #112]
	movs	r1, #16
	add	r2, sp, #80
	.loc	10 904 30 is_stmt 0             @ lvgl/src/lv_widgets/lv_btnmatrix.c:904:30
	bl	lv_event_send
	.loc	10 904 28                       @ lvgl/src/lv_widgets/lv_btnmatrix.c:904:28
	strb.w	r0, [sp, #103]
	.loc	10 905 13 is_stmt 1             @ lvgl/src/lv_widgets/lv_btnmatrix.c:905:13
	b	.LBB1_36
.Ltmp78:
.LBB1_36:
	.loc	10 906 9                        @ lvgl/src/lv_widgets/lv_btnmatrix.c:906:9
	b	.LBB1_37
.Ltmp79:
.LBB1_37:
	.loc	10 907 5                        @ lvgl/src/lv_widgets/lv_btnmatrix.c:907:5
	b	.LBB1_164
.Ltmp80:
.LBB1_38:
	.loc	10 908 13                       @ lvgl/src/lv_widgets/lv_btnmatrix.c:908:13
	ldrb.w	r0, [sp, #111]
.Ltmp81:
	.loc	10 908 13 is_stmt 0             @ lvgl/src/lv_widgets/lv_btnmatrix.c:908:13
	cmp	r0, #12
	bne	.LBB1_53
	b	.LBB1_39
.LBB1_39:
	.loc	10 0 13                         @ lvgl/src/lv_widgets/lv_btnmatrix.c:0:13
	movw	r0, #65535
.Ltmp82:
	.loc	10 909 18 is_stmt 1             @ lvgl/src/lv_widgets/lv_btnmatrix.c:909:18
	strh.w	r0, [sp, #78]
	.loc	10 911 30                       @ lvgl/src/lv_widgets/lv_btnmatrix.c:911:30
	bl	lv_indev_get_act
	.loc	10 911 22 is_stmt 0             @ lvgl/src/lv_widgets/lv_btnmatrix.c:911:22
	str	r0, [sp, #72]
	.loc	10 912 56 is_stmt 1             @ lvgl/src/lv_widgets/lv_btnmatrix.c:912:56
	ldr	r0, [sp, #72]
	.loc	10 912 38 is_stmt 0             @ lvgl/src/lv_widgets/lv_btnmatrix.c:912:38
	bl	lv_indev_get_type
	.loc	10 912 25                       @ lvgl/src/lv_widgets/lv_btnmatrix.c:912:25
	strb.w	r0, [sp, #71]
.Ltmp83:
	.loc	10 913 12 is_stmt 1             @ lvgl/src/lv_widgets/lv_btnmatrix.c:913:12
	ldrb.w	r0, [sp, #71]
	.loc	10 913 48 is_stmt 0             @ lvgl/src/lv_widgets/lv_btnmatrix.c:913:48
	cmp	r0, #4
	beq	.LBB1_41
	b	.LBB1_40
.LBB1_40:
	.loc	10 913 51                       @ lvgl/src/lv_widgets/lv_btnmatrix.c:913:51
	ldrb.w	r0, [sp, #71]
.Ltmp84:
	.loc	10 913 12                       @ lvgl/src/lv_widgets/lv_btnmatrix.c:913:12
	cmp	r0, #2
	bne	.LBB1_42
	b	.LBB1_41
.LBB1_41:
	.loc	10 0 12                         @ lvgl/src/lv_widgets/lv_btnmatrix.c:0:12
	movs	r0, #1
.Ltmp85:
	.loc	10 913 87                       @ lvgl/src/lv_widgets/lv_btnmatrix.c:913:87
	strb.w	r0, [sp, #119]
	b	.LBB1_168
.Ltmp86:
.LBB1_42:
	.loc	10 915 28 is_stmt 1             @ lvgl/src/lv_widgets/lv_btnmatrix.c:915:28
	ldr	r0, [sp, #72]
	add	r1, sp, #88
	.loc	10 915 9 is_stmt 0              @ lvgl/src/lv_widgets/lv_btnmatrix.c:915:9
	str	r1, [sp, #12]                   @ 4-byte Spill
	bl	lv_indev_get_point
	ldr	r1, [sp, #12]                   @ 4-byte Reload
	.loc	10 916 40 is_stmt 1             @ lvgl/src/lv_widgets/lv_btnmatrix.c:916:40
	ldr	r0, [sp, #112]
	.loc	10 916 18 is_stmt 0             @ lvgl/src/lv_widgets/lv_btnmatrix.c:916:18
	bl	get_button_from_point
	.loc	10 916 16                       @ lvgl/src/lv_widgets/lv_btnmatrix.c:916:16
	strh.w	r0, [sp, #78]
.Ltmp87:
	.loc	10 918 12 is_stmt 1             @ lvgl/src/lv_widgets/lv_btnmatrix.c:918:12
	ldrh.w	r0, [sp, #78]
	.loc	10 918 22 is_stmt 0             @ lvgl/src/lv_widgets/lv_btnmatrix.c:918:22
	ldr	r1, [sp, #92]
	.loc	10 918 27                       @ lvgl/src/lv_widgets/lv_btnmatrix.c:918:27
	ldrh	r1, [r1, #22]
.Ltmp88:
	.loc	10 918 12                       @ lvgl/src/lv_widgets/lv_btnmatrix.c:918:12
	cmp	r0, r1
	beq	.LBB1_52
	b	.LBB1_43
.LBB1_43:
.Ltmp89:
	.loc	10 919 16 is_stmt 1             @ lvgl/src/lv_widgets/lv_btnmatrix.c:919:16
	ldr	r0, [sp, #92]
	.loc	10 919 21 is_stmt 0             @ lvgl/src/lv_widgets/lv_btnmatrix.c:919:21
	ldrh	r0, [r0, #22]
	movw	r1, #65535
.Ltmp90:
	.loc	10 919 16                       @ lvgl/src/lv_widgets/lv_btnmatrix.c:919:16
	cmp	r0, r1
	beq	.LBB1_45
	b	.LBB1_44
.LBB1_44:
.Ltmp91:
	.loc	10 920 40 is_stmt 1             @ lvgl/src/lv_widgets/lv_btnmatrix.c:920:40
	ldr	r0, [sp, #112]
	.loc	10 920 46 is_stmt 0             @ lvgl/src/lv_widgets/lv_btnmatrix.c:920:46
	ldr	r1, [sp, #92]
	.loc	10 920 51                       @ lvgl/src/lv_widgets/lv_btnmatrix.c:920:51
	ldrh	r1, [r1, #22]
	.loc	10 920 17                       @ lvgl/src/lv_widgets/lv_btnmatrix.c:920:17
	bl	invalidate_button_area
	.loc	10 921 13 is_stmt 1             @ lvgl/src/lv_widgets/lv_btnmatrix.c:921:13
	b	.LBB1_45
.Ltmp92:
.LBB1_45:
	.loc	10 923 31                       @ lvgl/src/lv_widgets/lv_btnmatrix.c:923:31
	ldrh.w	r0, [sp, #78]
	.loc	10 923 13 is_stmt 0             @ lvgl/src/lv_widgets/lv_btnmatrix.c:923:13
	ldr	r1, [sp, #92]
	.loc	10 923 29                       @ lvgl/src/lv_widgets/lv_btnmatrix.c:923:29
	strh	r0, [r1, #22]
	.loc	10 924 31 is_stmt 1             @ lvgl/src/lv_widgets/lv_btnmatrix.c:924:31
	ldrh.w	r0, [sp, #78]
	.loc	10 924 13 is_stmt 0             @ lvgl/src/lv_widgets/lv_btnmatrix.c:924:13
	ldr	r1, [sp, #92]
	.loc	10 924 29                       @ lvgl/src/lv_widgets/lv_btnmatrix.c:924:29
	strh	r0, [r1, #26]
	.loc	10 926 39 is_stmt 1             @ lvgl/src/lv_widgets/lv_btnmatrix.c:926:39
	ldr	r0, [sp, #104]
	.loc	10 926 13 is_stmt 0             @ lvgl/src/lv_widgets/lv_btnmatrix.c:926:13
	bl	lv_indev_reset_long_press
.Ltmp93:
	.loc	10 927 16 is_stmt 1             @ lvgl/src/lv_widgets/lv_btnmatrix.c:927:16
	ldrh.w	r0, [sp, #78]
	movw	r1, #65535
	.loc	10 927 48 is_stmt 0             @ lvgl/src/lv_widgets/lv_btnmatrix.c:927:48
	cmp	r0, r1
	beq	.LBB1_51
	b	.LBB1_46
.LBB1_46:
	.loc	10 928 35 is_stmt 1             @ lvgl/src/lv_widgets/lv_btnmatrix.c:928:35
	ldr	r0, [sp, #92]
	.loc	10 928 40 is_stmt 0             @ lvgl/src/lv_widgets/lv_btnmatrix.c:928:40
	ldr	r0, [r0, #8]
	.loc	10 928 50                       @ lvgl/src/lv_widgets/lv_btnmatrix.c:928:50
	ldrh.w	r1, [sp, #78]
	.loc	10 928 35                       @ lvgl/src/lv_widgets/lv_btnmatrix.c:928:35
	ldrh.w	r0, [r0, r1, lsl #1]
	.loc	10 928 16                       @ lvgl/src/lv_widgets/lv_btnmatrix.c:928:16
	bl	button_is_inactive
	.loc	10 928 68                       @ lvgl/src/lv_widgets/lv_btnmatrix.c:928:68
	cbnz	r0, .LBB1_51
	b	.LBB1_47
.LBB1_47:
	.loc	10 929 33 is_stmt 1             @ lvgl/src/lv_widgets/lv_btnmatrix.c:929:33
	ldr	r0, [sp, #92]
	.loc	10 929 38 is_stmt 0             @ lvgl/src/lv_widgets/lv_btnmatrix.c:929:38
	ldr	r0, [r0, #8]
	.loc	10 929 48                       @ lvgl/src/lv_widgets/lv_btnmatrix.c:929:48
	ldrh.w	r1, [sp, #78]
	.loc	10 929 33                       @ lvgl/src/lv_widgets/lv_btnmatrix.c:929:33
	ldrh.w	r0, [r0, r1, lsl #1]
	.loc	10 929 16                       @ lvgl/src/lv_widgets/lv_btnmatrix.c:929:16
	bl	button_is_hidden
.Ltmp94:
	.loc	10 927 16 is_stmt 1             @ lvgl/src/lv_widgets/lv_btnmatrix.c:927:16
	cbnz	r0, .LBB1_51
	b	.LBB1_48
.LBB1_48:
.Ltmp95:
	.loc	10 930 40                       @ lvgl/src/lv_widgets/lv_btnmatrix.c:930:40
	ldr	r0, [sp, #112]
	.loc	10 930 46 is_stmt 0             @ lvgl/src/lv_widgets/lv_btnmatrix.c:930:46
	ldrh.w	r1, [sp, #78]
	.loc	10 930 17                       @ lvgl/src/lv_widgets/lv_btnmatrix.c:930:17
	bl	invalidate_button_area
.Ltmp96:
	.loc	10 932 41 is_stmt 1             @ lvgl/src/lv_widgets/lv_btnmatrix.c:932:41
	ldr	r0, [sp, #92]
	.loc	10 932 46 is_stmt 0             @ lvgl/src/lv_widgets/lv_btnmatrix.c:932:46
	ldr	r0, [r0, #8]
	.loc	10 932 56                       @ lvgl/src/lv_widgets/lv_btnmatrix.c:932:56
	ldrh.w	r1, [sp, #78]
	.loc	10 932 41                       @ lvgl/src/lv_widgets/lv_btnmatrix.c:932:41
	ldrh.w	r0, [r0, r1, lsl #1]
	.loc	10 932 20                       @ lvgl/src/lv_widgets/lv_btnmatrix.c:932:20
	bl	button_is_click_trig
.Ltmp97:
	.loc	10 932 20                       @ lvgl/src/lv_widgets/lv_btnmatrix.c:932:20
	cbnz	r0, .LBB1_50
	b	.LBB1_49
.LBB1_49:
.Ltmp98:
	.loc	10 933 34 is_stmt 1             @ lvgl/src/lv_widgets/lv_btnmatrix.c:933:34
	ldrh.w	r0, [sp, #78]
	.loc	10 933 30 is_stmt 0             @ lvgl/src/lv_widgets/lv_btnmatrix.c:933:30
	str	r0, [sp, #64]
	.loc	10 934 35 is_stmt 1             @ lvgl/src/lv_widgets/lv_btnmatrix.c:934:35
	ldr	r0, [sp, #112]
	movs	r1, #16
	add	r2, sp, #64
	.loc	10 934 21 is_stmt 0             @ lvgl/src/lv_widgets/lv_btnmatrix.c:934:21
	bl	lv_event_send
	.loc	10 935 17 is_stmt 1             @ lvgl/src/lv_widgets/lv_btnmatrix.c:935:17
	b	.LBB1_50
.Ltmp99:
.LBB1_50:
	.loc	10 936 13                       @ lvgl/src/lv_widgets/lv_btnmatrix.c:936:13
	b	.LBB1_51
.Ltmp100:
.LBB1_51:
	.loc	10 937 9                        @ lvgl/src/lv_widgets/lv_btnmatrix.c:937:9
	b	.LBB1_52
.Ltmp101:
.LBB1_52:
	.loc	10 938 5                        @ lvgl/src/lv_widgets/lv_btnmatrix.c:938:5
	b	.LBB1_163
.Ltmp102:
.LBB1_53:
	.loc	10 939 13                       @ lvgl/src/lv_widgets/lv_btnmatrix.c:939:13
	ldrb.w	r0, [sp, #111]
.Ltmp103:
	.loc	10 939 13 is_stmt 0             @ lvgl/src/lv_widgets/lv_btnmatrix.c:939:13
	cmp	r0, #14
	bne.w	.LBB1_73
	b	.LBB1_54
.LBB1_54:
.Ltmp104:
	.loc	10 940 12 is_stmt 1             @ lvgl/src/lv_widgets/lv_btnmatrix.c:940:12
	ldr	r0, [sp, #92]
	.loc	10 940 17 is_stmt 0             @ lvgl/src/lv_widgets/lv_btnmatrix.c:940:17
	ldrh	r0, [r0, #22]
	movw	r1, #65535
.Ltmp105:
	.loc	10 940 12                       @ lvgl/src/lv_widgets/lv_btnmatrix.c:940:12
	cmp	r0, r1
	beq.w	.LBB1_72
	b	.LBB1_55
.LBB1_55:
.Ltmp106:
	.loc	10 942 38 is_stmt 1             @ lvgl/src/lv_widgets/lv_btnmatrix.c:942:38
	ldr	r1, [sp, #92]
	.loc	10 942 43 is_stmt 0             @ lvgl/src/lv_widgets/lv_btnmatrix.c:942:43
	ldr	r0, [r1, #8]
	.loc	10 942 58                       @ lvgl/src/lv_widgets/lv_btnmatrix.c:942:58
	ldrh	r1, [r1, #22]
	.loc	10 942 38                       @ lvgl/src/lv_widgets/lv_btnmatrix.c:942:38
	ldrh.w	r0, [r0, r1, lsl #1]
	.loc	10 942 16                       @ lvgl/src/lv_widgets/lv_btnmatrix.c:942:16
	bl	button_is_tgl_enabled
	.loc	10 942 70                       @ lvgl/src/lv_widgets/lv_btnmatrix.c:942:70
	cbz	r0, .LBB1_64
	b	.LBB1_56
.LBB1_56:
	.loc	10 943 36 is_stmt 1             @ lvgl/src/lv_widgets/lv_btnmatrix.c:943:36
	ldr	r1, [sp, #92]
	.loc	10 943 41 is_stmt 0             @ lvgl/src/lv_widgets/lv_btnmatrix.c:943:41
	ldr	r0, [r1, #8]
	.loc	10 943 56                       @ lvgl/src/lv_widgets/lv_btnmatrix.c:943:56
	ldrh	r1, [r1, #22]
	.loc	10 943 36                       @ lvgl/src/lv_widgets/lv_btnmatrix.c:943:36
	ldrh.w	r0, [r0, r1, lsl #1]
	.loc	10 943 17                       @ lvgl/src/lv_widgets/lv_btnmatrix.c:943:17
	bl	button_is_inactive
.Ltmp107:
	.loc	10 942 16 is_stmt 1             @ lvgl/src/lv_widgets/lv_btnmatrix.c:942:16
	cbnz	r0, .LBB1_64
	b	.LBB1_57
.LBB1_57:
.Ltmp108:
	.loc	10 944 41                       @ lvgl/src/lv_widgets/lv_btnmatrix.c:944:41
	ldr	r1, [sp, #92]
	.loc	10 944 46 is_stmt 0             @ lvgl/src/lv_widgets/lv_btnmatrix.c:944:46
	ldr	r0, [r1, #8]
	.loc	10 944 61                       @ lvgl/src/lv_widgets/lv_btnmatrix.c:944:61
	ldrh	r1, [r1, #22]
	.loc	10 944 41                       @ lvgl/src/lv_widgets/lv_btnmatrix.c:944:41
	ldrh.w	r0, [r0, r1, lsl #1]
	.loc	10 944 20                       @ lvgl/src/lv_widgets/lv_btnmatrix.c:944:20
	bl	button_get_tgl_state
	.loc	10 944 73                       @ lvgl/src/lv_widgets/lv_btnmatrix.c:944:73
	cbz	r0, .LBB1_60
	b	.LBB1_58
.LBB1_58:
	.loc	10 944 77                       @ lvgl/src/lv_widgets/lv_btnmatrix.c:944:77
	ldr	r0, [sp, #92]
	.loc	10 944 82                       @ lvgl/src/lv_widgets/lv_btnmatrix.c:944:82
	ldrb	r0, [r0, #28]
	lsrs	r0, r0, #1
.Ltmp109:
	.loc	10 944 20                       @ lvgl/src/lv_widgets/lv_btnmatrix.c:944:20
	lsls	r0, r0, #31
	cbnz	r0, .LBB1_60
	b	.LBB1_59
.LBB1_59:
.Ltmp110:
	.loc	10 945 21 is_stmt 1             @ lvgl/src/lv_widgets/lv_btnmatrix.c:945:21
	ldr	r0, [sp, #92]
	.loc	10 945 26 is_stmt 0             @ lvgl/src/lv_widgets/lv_btnmatrix.c:945:26
	ldr	r1, [r0, #8]
	.loc	10 945 41                       @ lvgl/src/lv_widgets/lv_btnmatrix.c:945:41
	ldrh	r2, [r0, #22]
	.loc	10 945 52                       @ lvgl/src/lv_widgets/lv_btnmatrix.c:945:52
	ldrh.w	r0, [r1, r2, lsl #1]
	bic	r0, r0, #128
	strh.w	r0, [r1, r2, lsl #1]
	.loc	10 946 17 is_stmt 1             @ lvgl/src/lv_widgets/lv_btnmatrix.c:946:17
	b	.LBB1_61
.Ltmp111:
.LBB1_60:
	.loc	10 948 21                       @ lvgl/src/lv_widgets/lv_btnmatrix.c:948:21
	ldr	r0, [sp, #92]
	.loc	10 948 26 is_stmt 0             @ lvgl/src/lv_widgets/lv_btnmatrix.c:948:26
	ldr	r1, [r0, #8]
	.loc	10 948 41                       @ lvgl/src/lv_widgets/lv_btnmatrix.c:948:41
	ldrh	r2, [r0, #22]
	.loc	10 948 52                       @ lvgl/src/lv_widgets/lv_btnmatrix.c:948:52
	ldrh.w	r0, [r1, r2, lsl #1]
	orr	r0, r0, #128
	strh.w	r0, [r1, r2, lsl #1]
	b	.LBB1_61
.Ltmp112:
.LBB1_61:
	.loc	10 950 20 is_stmt 1             @ lvgl/src/lv_widgets/lv_btnmatrix.c:950:20
	ldr	r0, [sp, #92]
	.loc	10 950 25 is_stmt 0             @ lvgl/src/lv_widgets/lv_btnmatrix.c:950:25
	ldrb	r0, [r0, #28]
	lsrs	r0, r0, #1
.Ltmp113:
	.loc	10 950 20                       @ lvgl/src/lv_widgets/lv_btnmatrix.c:950:20
	lsls	r0, r0, #31
	cbz	r0, .LBB1_63
	b	.LBB1_62
.LBB1_62:
.Ltmp114:
	.loc	10 950 60                       @ lvgl/src/lv_widgets/lv_btnmatrix.c:950:60
	ldr	r0, [sp, #112]
	.loc	10 950 66                       @ lvgl/src/lv_widgets/lv_btnmatrix.c:950:66
	ldr	r1, [sp, #92]
	.loc	10 950 71                       @ lvgl/src/lv_widgets/lv_btnmatrix.c:950:71
	ldrh	r1, [r1, #22]
	.loc	10 950 36                       @ lvgl/src/lv_widgets/lv_btnmatrix.c:950:36
	bl	make_one_button_toggled
	b	.LBB1_63
.Ltmp115:
.LBB1_63:
	.loc	10 951 13 is_stmt 1             @ lvgl/src/lv_widgets/lv_btnmatrix.c:951:13
	b	.LBB1_64
.Ltmp116:
.LBB1_64:
	.loc	10 954 36                       @ lvgl/src/lv_widgets/lv_btnmatrix.c:954:36
	ldr	r0, [sp, #112]
	.loc	10 954 42 is_stmt 0             @ lvgl/src/lv_widgets/lv_btnmatrix.c:954:42
	ldr	r1, [sp, #92]
	.loc	10 954 47                       @ lvgl/src/lv_widgets/lv_btnmatrix.c:954:47
	ldrh	r1, [r1, #22]
	.loc	10 954 13                       @ lvgl/src/lv_widgets/lv_btnmatrix.c:954:13
	bl	invalidate_button_area
	.loc	10 955 36 is_stmt 1             @ lvgl/src/lv_widgets/lv_btnmatrix.c:955:36
	ldr	r0, [sp, #112]
	.loc	10 955 42 is_stmt 0             @ lvgl/src/lv_widgets/lv_btnmatrix.c:955:42
	ldr	r1, [sp, #92]
	.loc	10 955 47                       @ lvgl/src/lv_widgets/lv_btnmatrix.c:955:47
	ldrh	r1, [r1, #24]
	.loc	10 955 13                       @ lvgl/src/lv_widgets/lv_btnmatrix.c:955:13
	bl	invalidate_button_area
	.loc	10 957 60 is_stmt 1             @ lvgl/src/lv_widgets/lv_btnmatrix.c:957:60
	bl	lv_indev_get_act
	.loc	10 957 42 is_stmt 0             @ lvgl/src/lv_widgets/lv_btnmatrix.c:957:42
	bl	lv_indev_get_type
	.loc	10 957 29                       @ lvgl/src/lv_widgets/lv_btnmatrix.c:957:29
	strb.w	r0, [sp, #63]
.Ltmp117:
	.loc	10 958 16 is_stmt 1             @ lvgl/src/lv_widgets/lv_btnmatrix.c:958:16
	ldrb.w	r0, [sp, #63]
	.loc	10 958 51 is_stmt 0             @ lvgl/src/lv_widgets/lv_btnmatrix.c:958:51
	cmp	r0, #2
	beq	.LBB1_66
	b	.LBB1_65
.LBB1_65:
	.loc	10 958 54                       @ lvgl/src/lv_widgets/lv_btnmatrix.c:958:54
	ldrb.w	r0, [sp, #63]
.Ltmp118:
	.loc	10 958 16                       @ lvgl/src/lv_widgets/lv_btnmatrix.c:958:16
	cmp	r0, #4
	bne	.LBB1_67
	b	.LBB1_66
.LBB1_66:
.Ltmp119:
	.loc	10 959 39 is_stmt 1             @ lvgl/src/lv_widgets/lv_btnmatrix.c:959:39
	ldr	r1, [sp, #92]
	.loc	10 959 44 is_stmt 0             @ lvgl/src/lv_widgets/lv_btnmatrix.c:959:44
	ldrh	r0, [r1, #22]
	.loc	10 959 37                       @ lvgl/src/lv_widgets/lv_btnmatrix.c:959:37
	strh	r0, [r1, #24]
	.loc	10 960 13 is_stmt 1             @ lvgl/src/lv_widgets/lv_btnmatrix.c:960:13
	b	.LBB1_67
.Ltmp120:
.LBB1_67:
	.loc	10 962 13                       @ lvgl/src/lv_widgets/lv_btnmatrix.c:962:13
	ldr	r1, [sp, #92]
	movw	r0, #65535
	.loc	10 962 28 is_stmt 0             @ lvgl/src/lv_widgets/lv_btnmatrix.c:962:28
	strh	r0, [r1, #22]
.Ltmp121:
	.loc	10 964 37 is_stmt 1             @ lvgl/src/lv_widgets/lv_btnmatrix.c:964:37
	ldr	r1, [sp, #92]
	.loc	10 964 42 is_stmt 0             @ lvgl/src/lv_widgets/lv_btnmatrix.c:964:42
	ldr	r0, [r1, #8]
	.loc	10 964 57                       @ lvgl/src/lv_widgets/lv_btnmatrix.c:964:57
	ldrh	r1, [r1, #26]
	.loc	10 964 37                       @ lvgl/src/lv_widgets/lv_btnmatrix.c:964:37
	ldrh.w	r0, [r0, r1, lsl #1]
	.loc	10 964 16                       @ lvgl/src/lv_widgets/lv_btnmatrix.c:964:16
	bl	button_is_click_trig
	.loc	10 964 78                       @ lvgl/src/lv_widgets/lv_btnmatrix.c:964:78
	cbz	r0, .LBB1_71
	b	.LBB1_68
.LBB1_68:
	.loc	10 965 35 is_stmt 1             @ lvgl/src/lv_widgets/lv_btnmatrix.c:965:35
	ldr	r1, [sp, #92]
	.loc	10 965 40 is_stmt 0             @ lvgl/src/lv_widgets/lv_btnmatrix.c:965:40
	ldr	r0, [r1, #8]
	.loc	10 965 55                       @ lvgl/src/lv_widgets/lv_btnmatrix.c:965:55
	ldrh	r1, [r1, #26]
	.loc	10 965 35                       @ lvgl/src/lv_widgets/lv_btnmatrix.c:965:35
	ldrh.w	r0, [r0, r1, lsl #1]
	.loc	10 965 16                       @ lvgl/src/lv_widgets/lv_btnmatrix.c:965:16
	bl	button_is_inactive
	.loc	10 965 77                       @ lvgl/src/lv_widgets/lv_btnmatrix.c:965:77
	cbnz	r0, .LBB1_71
	b	.LBB1_69
.LBB1_69:
	.loc	10 966 33 is_stmt 1             @ lvgl/src/lv_widgets/lv_btnmatrix.c:966:33
	ldr	r1, [sp, #92]
	.loc	10 966 38 is_stmt 0             @ lvgl/src/lv_widgets/lv_btnmatrix.c:966:38
	ldr	r0, [r1, #8]
	.loc	10 966 53                       @ lvgl/src/lv_widgets/lv_btnmatrix.c:966:53
	ldrh	r1, [r1, #26]
	.loc	10 966 33                       @ lvgl/src/lv_widgets/lv_btnmatrix.c:966:33
	ldrh.w	r0, [r0, r1, lsl #1]
	.loc	10 966 16                       @ lvgl/src/lv_widgets/lv_btnmatrix.c:966:16
	bl	button_is_hidden
.Ltmp122:
	.loc	10 964 16 is_stmt 1             @ lvgl/src/lv_widgets/lv_btnmatrix.c:964:16
	cbnz	r0, .LBB1_71
	b	.LBB1_70
.LBB1_70:
.Ltmp123:
	.loc	10 967 30                       @ lvgl/src/lv_widgets/lv_btnmatrix.c:967:30
	ldr	r0, [sp, #92]
	.loc	10 967 35 is_stmt 0             @ lvgl/src/lv_widgets/lv_btnmatrix.c:967:35
	ldrh	r0, [r0, #26]
	.loc	10 967 26                       @ lvgl/src/lv_widgets/lv_btnmatrix.c:967:26
	str	r0, [sp, #56]
	.loc	10 968 44 is_stmt 1             @ lvgl/src/lv_widgets/lv_btnmatrix.c:968:44
	ldr	r0, [sp, #112]
	movs	r1, #16
	add	r2, sp, #56
	.loc	10 968 30 is_stmt 0             @ lvgl/src/lv_widgets/lv_btnmatrix.c:968:30
	bl	lv_event_send
	.loc	10 968 28                       @ lvgl/src/lv_widgets/lv_btnmatrix.c:968:28
	strb.w	r0, [sp, #103]
	.loc	10 969 13 is_stmt 1             @ lvgl/src/lv_widgets/lv_btnmatrix.c:969:13
	b	.LBB1_71
.Ltmp124:
.LBB1_71:
	.loc	10 970 9                        @ lvgl/src/lv_widgets/lv_btnmatrix.c:970:9
	b	.LBB1_72
.Ltmp125:
.LBB1_72:
	.loc	10 971 5                        @ lvgl/src/lv_widgets/lv_btnmatrix.c:971:5
	b	.LBB1_162
.Ltmp126:
.LBB1_73:
	.loc	10 972 13                       @ lvgl/src/lv_widgets/lv_btnmatrix.c:972:13
	ldrb.w	r0, [sp, #111]
.Ltmp127:
	.loc	10 972 13 is_stmt 0             @ lvgl/src/lv_widgets/lv_btnmatrix.c:972:13
	cmp	r0, #16
	bne	.LBB1_81
	b	.LBB1_74
.LBB1_74:
.Ltmp128:
	.loc	10 973 12 is_stmt 1             @ lvgl/src/lv_widgets/lv_btnmatrix.c:973:12
	ldr	r0, [sp, #92]
	.loc	10 973 17 is_stmt 0             @ lvgl/src/lv_widgets/lv_btnmatrix.c:973:17
	ldrh	r0, [r0, #26]
	movw	r1, #65535
.Ltmp129:
	.loc	10 973 12                       @ lvgl/src/lv_widgets/lv_btnmatrix.c:973:12
	cmp	r0, r1
	beq	.LBB1_80
	b	.LBB1_75
.LBB1_75:
.Ltmp130:
	.loc	10 974 42 is_stmt 1             @ lvgl/src/lv_widgets/lv_btnmatrix.c:974:42
	ldr	r1, [sp, #92]
	.loc	10 974 47 is_stmt 0             @ lvgl/src/lv_widgets/lv_btnmatrix.c:974:47
	ldr	r0, [r1, #8]
	.loc	10 974 62                       @ lvgl/src/lv_widgets/lv_btnmatrix.c:974:62
	ldrh	r1, [r1, #26]
	.loc	10 974 42                       @ lvgl/src/lv_widgets/lv_btnmatrix.c:974:42
	ldrh.w	r0, [r0, r1, lsl #1]
	.loc	10 974 16                       @ lvgl/src/lv_widgets/lv_btnmatrix.c:974:16
	bl	button_is_repeat_disabled
	.loc	10 974 84                       @ lvgl/src/lv_widgets/lv_btnmatrix.c:974:84
	cbnz	r0, .LBB1_79
	b	.LBB1_76
.LBB1_76:
	.loc	10 975 35 is_stmt 1             @ lvgl/src/lv_widgets/lv_btnmatrix.c:975:35
	ldr	r1, [sp, #92]
	.loc	10 975 40 is_stmt 0             @ lvgl/src/lv_widgets/lv_btnmatrix.c:975:40
	ldr	r0, [r1, #8]
	.loc	10 975 55                       @ lvgl/src/lv_widgets/lv_btnmatrix.c:975:55
	ldrh	r1, [r1, #26]
	.loc	10 975 35                       @ lvgl/src/lv_widgets/lv_btnmatrix.c:975:35
	ldrh.w	r0, [r0, r1, lsl #1]
	.loc	10 975 16                       @ lvgl/src/lv_widgets/lv_btnmatrix.c:975:16
	bl	button_is_inactive
	.loc	10 975 77                       @ lvgl/src/lv_widgets/lv_btnmatrix.c:975:77
	cbnz	r0, .LBB1_79
	b	.LBB1_77
.LBB1_77:
	.loc	10 976 33 is_stmt 1             @ lvgl/src/lv_widgets/lv_btnmatrix.c:976:33
	ldr	r1, [sp, #92]
	.loc	10 976 38 is_stmt 0             @ lvgl/src/lv_widgets/lv_btnmatrix.c:976:38
	ldr	r0, [r1, #8]
	.loc	10 976 53                       @ lvgl/src/lv_widgets/lv_btnmatrix.c:976:53
	ldrh	r1, [r1, #26]
	.loc	10 976 33                       @ lvgl/src/lv_widgets/lv_btnmatrix.c:976:33
	ldrh.w	r0, [r0, r1, lsl #1]
	.loc	10 976 16                       @ lvgl/src/lv_widgets/lv_btnmatrix.c:976:16
	bl	button_is_hidden
.Ltmp131:
	.loc	10 974 16 is_stmt 1             @ lvgl/src/lv_widgets/lv_btnmatrix.c:974:16
	cbnz	r0, .LBB1_79
	b	.LBB1_78
.LBB1_78:
.Ltmp132:
	.loc	10 977 30                       @ lvgl/src/lv_widgets/lv_btnmatrix.c:977:30
	ldr	r0, [sp, #92]
	.loc	10 977 35 is_stmt 0             @ lvgl/src/lv_widgets/lv_btnmatrix.c:977:35
	ldrh	r0, [r0, #26]
	.loc	10 977 26                       @ lvgl/src/lv_widgets/lv_btnmatrix.c:977:26
	str	r0, [sp, #52]
	.loc	10 978 44 is_stmt 1             @ lvgl/src/lv_widgets/lv_btnmatrix.c:978:44
	ldr	r0, [sp, #112]
	movs	r1, #16
	add	r2, sp, #52
	.loc	10 978 30 is_stmt 0             @ lvgl/src/lv_widgets/lv_btnmatrix.c:978:30
	bl	lv_event_send
	.loc	10 978 28                       @ lvgl/src/lv_widgets/lv_btnmatrix.c:978:28
	strb.w	r0, [sp, #103]
	.loc	10 979 13 is_stmt 1             @ lvgl/src/lv_widgets/lv_btnmatrix.c:979:13
	b	.LBB1_79
.Ltmp133:
.LBB1_79:
	.loc	10 980 9                        @ lvgl/src/lv_widgets/lv_btnmatrix.c:980:9
	b	.LBB1_80
.Ltmp134:
.LBB1_80:
	.loc	10 981 5                        @ lvgl/src/lv_widgets/lv_btnmatrix.c:981:5
	b	.LBB1_161
.Ltmp135:
.LBB1_81:
	.loc	10 982 13                       @ lvgl/src/lv_widgets/lv_btnmatrix.c:982:13
	ldrb.w	r0, [sp, #111]
.Ltmp136:
	.loc	10 982 13 is_stmt 0             @ lvgl/src/lv_widgets/lv_btnmatrix.c:982:13
	cmp	r0, #13
	bne	.LBB1_83
	b	.LBB1_82
.LBB1_82:
.Ltmp137:
	.loc	10 983 9 is_stmt 1              @ lvgl/src/lv_widgets/lv_btnmatrix.c:983:9
	ldr	r1, [sp, #92]
	movw	r0, #65535
	.loc	10 983 25 is_stmt 0             @ lvgl/src/lv_widgets/lv_btnmatrix.c:983:25
	strh	r0, [r1, #22]
	.loc	10 984 9 is_stmt 1              @ lvgl/src/lv_widgets/lv_btnmatrix.c:984:9
	ldr	r1, [sp, #92]
	.loc	10 984 25 is_stmt 0             @ lvgl/src/lv_widgets/lv_btnmatrix.c:984:25
	strh	r0, [r1, #26]
	.loc	10 985 27 is_stmt 1             @ lvgl/src/lv_widgets/lv_btnmatrix.c:985:27
	ldr	r0, [sp, #112]
	.loc	10 985 9 is_stmt 0              @ lvgl/src/lv_widgets/lv_btnmatrix.c:985:9
	bl	lv_obj_invalidate
	.loc	10 986 5 is_stmt 1              @ lvgl/src/lv_widgets/lv_btnmatrix.c:986:5
	b	.LBB1_160
.Ltmp138:
.LBB1_83:
	.loc	10 987 13                       @ lvgl/src/lv_widgets/lv_btnmatrix.c:987:13
	ldrb.w	r0, [sp, #111]
.Ltmp139:
	.loc	10 987 13 is_stmt 0             @ lvgl/src/lv_widgets/lv_btnmatrix.c:987:13
	cmp	r0, #22
	bne	.LBB1_95
	b	.LBB1_84
.LBB1_84:
.Ltmp140:
	.loc	10 989 38 is_stmt 1             @ lvgl/src/lv_widgets/lv_btnmatrix.c:989:38
	bl	lv_indev_get_act
	.loc	10 989 22 is_stmt 0             @ lvgl/src/lv_widgets/lv_btnmatrix.c:989:22
	str	r0, [sp, #48]
	.loc	10 990 56 is_stmt 1             @ lvgl/src/lv_widgets/lv_btnmatrix.c:990:56
	ldr	r0, [sp, #48]
	.loc	10 990 38 is_stmt 0             @ lvgl/src/lv_widgets/lv_btnmatrix.c:990:38
	bl	lv_indev_get_type
	.loc	10 990 25                       @ lvgl/src/lv_widgets/lv_btnmatrix.c:990:25
	strb.w	r0, [sp, #47]
.Ltmp141:
	.loc	10 993 12 is_stmt 1             @ lvgl/src/lv_widgets/lv_btnmatrix.c:993:12
	ldr	r0, [sp, #48]
.Ltmp142:
	.loc	10 993 12 is_stmt 0             @ lvgl/src/lv_widgets/lv_btnmatrix.c:993:12
	cbnz	r0, .LBB1_86
	b	.LBB1_85
.LBB1_85:
	.loc	10 0 12                         @ lvgl/src/lv_widgets/lv_btnmatrix.c:0:12
	movs	r0, #0
.Ltmp143:
	.loc	10 994 21 is_stmt 1             @ lvgl/src/lv_widgets/lv_btnmatrix.c:994:21
	bl	lv_indev_get_next
	.loc	10 994 19 is_stmt 0             @ lvgl/src/lv_widgets/lv_btnmatrix.c:994:19
	str	r0, [sp, #48]
	.loc	10 995 44 is_stmt 1             @ lvgl/src/lv_widgets/lv_btnmatrix.c:995:44
	ldr	r0, [sp, #48]
	.loc	10 995 26 is_stmt 0             @ lvgl/src/lv_widgets/lv_btnmatrix.c:995:26
	bl	lv_indev_get_type
	.loc	10 995 24                       @ lvgl/src/lv_widgets/lv_btnmatrix.c:995:24
	strb.w	r0, [sp, #47]
	.loc	10 996 9 is_stmt 1              @ lvgl/src/lv_widgets/lv_btnmatrix.c:996:9
	b	.LBB1_86
.Ltmp144:
.LBB1_86:
	.loc	10 998 12                       @ lvgl/src/lv_widgets/lv_btnmatrix.c:998:12
	ldrb.w	r0, [sp, #47]
.Ltmp145:
	.loc	10 998 12 is_stmt 0             @ lvgl/src/lv_widgets/lv_btnmatrix.c:998:12
	cmp	r0, #4
	bne	.LBB1_91
	b	.LBB1_87
.LBB1_87:
.Ltmp146:
	.loc	10 1000 54 is_stmt 1            @ lvgl/src/lv_widgets/lv_btnmatrix.c:1000:54
	ldr	r0, [sp, #112]
	.loc	10 1000 37 is_stmt 0            @ lvgl/src/lv_widgets/lv_btnmatrix.c:1000:37
	bl	lv_obj_get_group
	.loc	10 1000 16                      @ lvgl/src/lv_widgets/lv_btnmatrix.c:1000:16
	bl	lv_group_get_editing
.Ltmp147:
	.loc	10 1000 16                      @ lvgl/src/lv_widgets/lv_btnmatrix.c:1000:16
	cbz	r0, .LBB1_89
	b	.LBB1_88
.LBB1_88:
.Ltmp148:
	.loc	10 1001 17 is_stmt 1            @ lvgl/src/lv_widgets/lv_btnmatrix.c:1001:17
	ldr	r1, [sp, #92]
	movs	r0, #0
	.loc	10 1001 37 is_stmt 0            @ lvgl/src/lv_widgets/lv_btnmatrix.c:1001:37
	strh	r0, [r1, #24]
	.loc	10 1002 35 is_stmt 1            @ lvgl/src/lv_widgets/lv_btnmatrix.c:1002:35
	ldr	r1, [sp, #92]
	.loc	10 1002 40 is_stmt 0            @ lvgl/src/lv_widgets/lv_btnmatrix.c:1002:40
	ldrh	r0, [r1, #24]
	.loc	10 1002 33                      @ lvgl/src/lv_widgets/lv_btnmatrix.c:1002:33
	strh	r0, [r1, #26]
	.loc	10 1003 13 is_stmt 1            @ lvgl/src/lv_widgets/lv_btnmatrix.c:1003:13
	b	.LBB1_90
.Ltmp149:
.LBB1_89:
	.loc	10 1005 17                      @ lvgl/src/lv_widgets/lv_btnmatrix.c:1005:17
	ldr	r1, [sp, #92]
	movw	r0, #65535
	.loc	10 1005 37 is_stmt 0            @ lvgl/src/lv_widgets/lv_btnmatrix.c:1005:37
	strh	r0, [r1, #24]
	b	.LBB1_90
.Ltmp150:
.LBB1_90:
	.loc	10 1007 9 is_stmt 1             @ lvgl/src/lv_widgets/lv_btnmatrix.c:1007:9
	b	.LBB1_94
.Ltmp151:
.LBB1_91:
	.loc	10 1008 17                      @ lvgl/src/lv_widgets/lv_btnmatrix.c:1008:17
	ldrb.w	r0, [sp, #47]
.Ltmp152:
	.loc	10 1008 17 is_stmt 0            @ lvgl/src/lv_widgets/lv_btnmatrix.c:1008:17
	cmp	r0, #2
	bne	.LBB1_93
	b	.LBB1_92
.LBB1_92:
.Ltmp153:
	.loc	10 1009 13 is_stmt 1            @ lvgl/src/lv_widgets/lv_btnmatrix.c:1009:13
	ldr	r1, [sp, #92]
	movs	r0, #0
	.loc	10 1009 33 is_stmt 0            @ lvgl/src/lv_widgets/lv_btnmatrix.c:1009:33
	strh	r0, [r1, #24]
	.loc	10 1010 31 is_stmt 1            @ lvgl/src/lv_widgets/lv_btnmatrix.c:1010:31
	ldr	r1, [sp, #92]
	.loc	10 1010 36 is_stmt 0            @ lvgl/src/lv_widgets/lv_btnmatrix.c:1010:36
	ldrh	r0, [r1, #24]
	.loc	10 1010 29                      @ lvgl/src/lv_widgets/lv_btnmatrix.c:1010:29
	strh	r0, [r1, #26]
	.loc	10 1011 9 is_stmt 1             @ lvgl/src/lv_widgets/lv_btnmatrix.c:1011:9
	b	.LBB1_93
.Ltmp154:
.LBB1_93:
	.loc	10 0 9 is_stmt 0                @ lvgl/src/lv_widgets/lv_btnmatrix.c:0:9
	b	.LBB1_94
.LBB1_94:
	.loc	10 1014 5 is_stmt 1             @ lvgl/src/lv_widgets/lv_btnmatrix.c:1014:5
	b	.LBB1_159
.Ltmp155:
.LBB1_95:
	.loc	10 1015 13                      @ lvgl/src/lv_widgets/lv_btnmatrix.c:1015:13
	ldrb.w	r0, [sp, #111]
	.loc	10 1015 39 is_stmt 0            @ lvgl/src/lv_widgets/lv_btnmatrix.c:1015:39
	cmp	r0, #23
	beq	.LBB1_97
	b	.LBB1_96
.LBB1_96:
	.loc	10 1015 42                      @ lvgl/src/lv_widgets/lv_btnmatrix.c:1015:42
	ldrb.w	r0, [sp, #111]
.Ltmp156:
	.loc	10 1015 13                      @ lvgl/src/lv_widgets/lv_btnmatrix.c:1015:13
	cmp	r0, #21
	bne	.LBB1_102
	b	.LBB1_97
.LBB1_97:
.Ltmp157:
	.loc	10 1016 12 is_stmt 1            @ lvgl/src/lv_widgets/lv_btnmatrix.c:1016:12
	ldr	r0, [sp, #92]
	.loc	10 1016 17 is_stmt 0            @ lvgl/src/lv_widgets/lv_btnmatrix.c:1016:17
	ldrh	r0, [r0, #24]
	movw	r1, #65535
.Ltmp158:
	.loc	10 1016 12                      @ lvgl/src/lv_widgets/lv_btnmatrix.c:1016:12
	cmp	r0, r1
	beq	.LBB1_99
	b	.LBB1_98
.LBB1_98:
.Ltmp159:
	.loc	10 1016 81                      @ lvgl/src/lv_widgets/lv_btnmatrix.c:1016:81
	ldr	r0, [sp, #112]
	.loc	10 1016 87                      @ lvgl/src/lv_widgets/lv_btnmatrix.c:1016:87
	ldr	r1, [sp, #92]
	.loc	10 1016 92                      @ lvgl/src/lv_widgets/lv_btnmatrix.c:1016:92
	ldrh	r1, [r1, #24]
	.loc	10 1016 58                      @ lvgl/src/lv_widgets/lv_btnmatrix.c:1016:58
	bl	invalidate_button_area
	b	.LBB1_99
.Ltmp160:
.LBB1_99:
	.loc	10 1017 12 is_stmt 1            @ lvgl/src/lv_widgets/lv_btnmatrix.c:1017:12
	ldr	r0, [sp, #92]
	.loc	10 1017 17 is_stmt 0            @ lvgl/src/lv_widgets/lv_btnmatrix.c:1017:17
	ldrh	r0, [r0, #22]
	movw	r1, #65535
.Ltmp161:
	.loc	10 1017 12                      @ lvgl/src/lv_widgets/lv_btnmatrix.c:1017:12
	cmp	r0, r1
	beq	.LBB1_101
	b	.LBB1_100
.LBB1_100:
.Ltmp162:
	.loc	10 1017 76                      @ lvgl/src/lv_widgets/lv_btnmatrix.c:1017:76
	ldr	r0, [sp, #112]
	.loc	10 1017 82                      @ lvgl/src/lv_widgets/lv_btnmatrix.c:1017:82
	ldr	r1, [sp, #92]
	.loc	10 1017 87                      @ lvgl/src/lv_widgets/lv_btnmatrix.c:1017:87
	ldrh	r1, [r1, #22]
	.loc	10 1017 53                      @ lvgl/src/lv_widgets/lv_btnmatrix.c:1017:53
	bl	invalidate_button_area
	b	.LBB1_101
.Ltmp163:
.LBB1_101:
	.loc	10 1018 9 is_stmt 1             @ lvgl/src/lv_widgets/lv_btnmatrix.c:1018:9
	ldr	r1, [sp, #92]
	movw	r0, #65535
	.loc	10 1018 29 is_stmt 0            @ lvgl/src/lv_widgets/lv_btnmatrix.c:1018:29
	strh	r0, [r1, #24]
	.loc	10 1019 9 is_stmt 1             @ lvgl/src/lv_widgets/lv_btnmatrix.c:1019:9
	ldr	r1, [sp, #92]
	.loc	10 1019 24 is_stmt 0            @ lvgl/src/lv_widgets/lv_btnmatrix.c:1019:24
	strh	r0, [r1, #22]
	.loc	10 1020 9 is_stmt 1             @ lvgl/src/lv_widgets/lv_btnmatrix.c:1020:9
	ldr	r1, [sp, #92]
	.loc	10 1020 25 is_stmt 0            @ lvgl/src/lv_widgets/lv_btnmatrix.c:1020:25
	strh	r0, [r1, #26]
	.loc	10 1021 5 is_stmt 1             @ lvgl/src/lv_widgets/lv_btnmatrix.c:1021:5
	b	.LBB1_158
.Ltmp164:
.LBB1_102:
	.loc	10 1022 13                      @ lvgl/src/lv_widgets/lv_btnmatrix.c:1022:13
	ldrb.w	r0, [sp, #111]
.Ltmp165:
	.loc	10 1022 13 is_stmt 0            @ lvgl/src/lv_widgets/lv_btnmatrix.c:1022:13
	cmp	r0, #24
	bne.w	.LBB1_154
	b	.LBB1_103
.LBB1_103:
.Ltmp166:
	.loc	10 1024 28 is_stmt 1            @ lvgl/src/lv_widgets/lv_btnmatrix.c:1024:28
	ldr	r0, [sp, #104]
	.loc	10 1024 18 is_stmt 0            @ lvgl/src/lv_widgets/lv_btnmatrix.c:1024:18
	ldrb	r0, [r0]
	.loc	10 1024 14                      @ lvgl/src/lv_widgets/lv_btnmatrix.c:1024:14
	strb.w	r0, [sp, #46]
.Ltmp167:
	.loc	10 1025 12 is_stmt 1            @ lvgl/src/lv_widgets/lv_btnmatrix.c:1025:12
	ldrsb.w	r0, [sp, #46]
.Ltmp168:
	.loc	10 1025 12 is_stmt 0            @ lvgl/src/lv_widgets/lv_btnmatrix.c:1025:12
	cmp	r0, #19
	bne	.LBB1_110
	b	.LBB1_104
.LBB1_104:
.Ltmp169:
	.loc	10 1026 16 is_stmt 1            @ lvgl/src/lv_widgets/lv_btnmatrix.c:1026:16
	ldr	r0, [sp, #92]
	.loc	10 1026 21 is_stmt 0            @ lvgl/src/lv_widgets/lv_btnmatrix.c:1026:21
	ldrh	r0, [r0, #24]
	movw	r1, #65535
.Ltmp170:
	.loc	10 1026 16                      @ lvgl/src/lv_widgets/lv_btnmatrix.c:1026:16
	cmp	r0, r1
	bne	.LBB1_106
	b	.LBB1_105
.LBB1_105:
.Ltmp171:
	.loc	10 1027 17 is_stmt 1            @ lvgl/src/lv_widgets/lv_btnmatrix.c:1027:17
	ldr	r1, [sp, #92]
	movs	r0, #0
	.loc	10 1027 37 is_stmt 0            @ lvgl/src/lv_widgets/lv_btnmatrix.c:1027:37
	strh	r0, [r1, #24]
	.loc	10 1027 17                      @ lvgl/src/lv_widgets/lv_btnmatrix.c:1027:17
	b	.LBB1_107
.LBB1_106:
	.loc	10 1029 17 is_stmt 1            @ lvgl/src/lv_widgets/lv_btnmatrix.c:1029:17
	ldr	r1, [sp, #92]
	.loc	10 1029 36 is_stmt 0            @ lvgl/src/lv_widgets/lv_btnmatrix.c:1029:36
	ldrh	r0, [r1, #24]
	adds	r0, #1
	strh	r0, [r1, #24]
	b	.LBB1_107
.Ltmp172:
.LBB1_107:
	.loc	10 1030 16 is_stmt 1            @ lvgl/src/lv_widgets/lv_btnmatrix.c:1030:16
	ldr	r1, [sp, #92]
	.loc	10 1030 21 is_stmt 0            @ lvgl/src/lv_widgets/lv_btnmatrix.c:1030:21
	ldrh	r0, [r1, #24]
	.loc	10 1030 44                      @ lvgl/src/lv_widgets/lv_btnmatrix.c:1030:44
	ldrh	r1, [r1, #20]
	.loc	10 1030 52                      @ lvgl/src/lv_widgets/lv_btnmatrix.c:1030:52
	subs	r1, #1
.Ltmp173:
	.loc	10 1030 16                      @ lvgl/src/lv_widgets/lv_btnmatrix.c:1030:16
	cmp	r0, r1
	blt	.LBB1_109
	b	.LBB1_108
.LBB1_108:
.Ltmp174:
	.loc	10 1030 79                      @ lvgl/src/lv_widgets/lv_btnmatrix.c:1030:79
	ldr	r1, [sp, #92]
	ldrh	r0, [r1, #20]
	.loc	10 1030 92                      @ lvgl/src/lv_widgets/lv_btnmatrix.c:1030:92
	subs	r0, #1
	.loc	10 1030 77                      @ lvgl/src/lv_widgets/lv_btnmatrix.c:1030:77
	strh	r0, [r1, #24]
	.loc	10 1030 57                      @ lvgl/src/lv_widgets/lv_btnmatrix.c:1030:57
	b	.LBB1_109
.Ltmp175:
.LBB1_109:
	.loc	10 1031 31 is_stmt 1            @ lvgl/src/lv_widgets/lv_btnmatrix.c:1031:31
	ldr	r1, [sp, #92]
	.loc	10 1031 36 is_stmt 0            @ lvgl/src/lv_widgets/lv_btnmatrix.c:1031:36
	ldrh	r0, [r1, #24]
	.loc	10 1031 29                      @ lvgl/src/lv_widgets/lv_btnmatrix.c:1031:29
	strh	r0, [r1, #26]
	.loc	10 1032 31 is_stmt 1            @ lvgl/src/lv_widgets/lv_btnmatrix.c:1032:31
	ldr	r0, [sp, #112]
	.loc	10 1032 13 is_stmt 0            @ lvgl/src/lv_widgets/lv_btnmatrix.c:1032:13
	bl	lv_obj_invalidate
	.loc	10 1033 9 is_stmt 1             @ lvgl/src/lv_widgets/lv_btnmatrix.c:1033:9
	b	.LBB1_153
.Ltmp176:
.LBB1_110:
	.loc	10 1034 17                      @ lvgl/src/lv_widgets/lv_btnmatrix.c:1034:17
	ldrsb.w	r0, [sp, #46]
.Ltmp177:
	.loc	10 1034 17 is_stmt 0            @ lvgl/src/lv_widgets/lv_btnmatrix.c:1034:17
	cmp	r0, #20
	bne	.LBB1_116
	b	.LBB1_111
.LBB1_111:
.Ltmp178:
	.loc	10 1035 16 is_stmt 1            @ lvgl/src/lv_widgets/lv_btnmatrix.c:1035:16
	ldr	r0, [sp, #92]
	.loc	10 1035 21 is_stmt 0            @ lvgl/src/lv_widgets/lv_btnmatrix.c:1035:21
	ldrh	r0, [r0, #24]
	movw	r1, #65535
.Ltmp179:
	.loc	10 1035 16                      @ lvgl/src/lv_widgets/lv_btnmatrix.c:1035:16
	cmp	r0, r1
	bne	.LBB1_113
	b	.LBB1_112
.LBB1_112:
.Ltmp180:
	.loc	10 1035 62                      @ lvgl/src/lv_widgets/lv_btnmatrix.c:1035:62
	ldr	r1, [sp, #92]
	movs	r0, #0
	.loc	10 1035 82                      @ lvgl/src/lv_widgets/lv_btnmatrix.c:1035:82
	strh	r0, [r1, #24]
	.loc	10 1035 62                      @ lvgl/src/lv_widgets/lv_btnmatrix.c:1035:62
	b	.LBB1_113
.Ltmp181:
.LBB1_113:
	.loc	10 1036 16 is_stmt 1            @ lvgl/src/lv_widgets/lv_btnmatrix.c:1036:16
	ldr	r0, [sp, #92]
	.loc	10 1036 21 is_stmt 0            @ lvgl/src/lv_widgets/lv_btnmatrix.c:1036:21
	ldrh	r0, [r0, #24]
.Ltmp182:
	.loc	10 1036 16                      @ lvgl/src/lv_widgets/lv_btnmatrix.c:1036:16
	cmp	r0, #1
	blt	.LBB1_115
	b	.LBB1_114
.LBB1_114:
.Ltmp183:
	.loc	10 1036 41                      @ lvgl/src/lv_widgets/lv_btnmatrix.c:1036:41
	ldr	r1, [sp, #92]
	.loc	10 1036 60                      @ lvgl/src/lv_widgets/lv_btnmatrix.c:1036:60
	ldrh	r0, [r1, #24]
	subs	r0, #1
	strh	r0, [r1, #24]
	.loc	10 1036 41                      @ lvgl/src/lv_widgets/lv_btnmatrix.c:1036:41
	b	.LBB1_115
.Ltmp184:
.LBB1_115:
	.loc	10 1037 31 is_stmt 1            @ lvgl/src/lv_widgets/lv_btnmatrix.c:1037:31
	ldr	r1, [sp, #92]
	.loc	10 1037 36 is_stmt 0            @ lvgl/src/lv_widgets/lv_btnmatrix.c:1037:36
	ldrh	r0, [r1, #24]
	.loc	10 1037 29                      @ lvgl/src/lv_widgets/lv_btnmatrix.c:1037:29
	strh	r0, [r1, #26]
	.loc	10 1038 31 is_stmt 1            @ lvgl/src/lv_widgets/lv_btnmatrix.c:1038:31
	ldr	r0, [sp, #112]
	.loc	10 1038 13 is_stmt 0            @ lvgl/src/lv_widgets/lv_btnmatrix.c:1038:13
	bl	lv_obj_invalidate
	.loc	10 1039 9 is_stmt 1             @ lvgl/src/lv_widgets/lv_btnmatrix.c:1039:9
	b	.LBB1_152
.Ltmp185:
.LBB1_116:
	.loc	10 1040 17                      @ lvgl/src/lv_widgets/lv_btnmatrix.c:1040:17
	ldrsb.w	r0, [sp, #46]
.Ltmp186:
	.loc	10 1040 17 is_stmt 0            @ lvgl/src/lv_widgets/lv_btnmatrix.c:1040:17
	cmp	r0, #18
	bne.w	.LBB1_133
	b	.LBB1_117
.LBB1_117:
.Ltmp187:
	.loc	10 1041 67 is_stmt 1            @ lvgl/src/lv_widgets/lv_btnmatrix.c:1041:67
	ldr	r0, [sp, #112]
	movs	r1, #0
	.loc	10 1041 40 is_stmt 0            @ lvgl/src/lv_widgets/lv_btnmatrix.c:1041:40
	bl	lv_obj_get_style_pad_inner
	.loc	10 1041 28                      @ lvgl/src/lv_widgets/lv_btnmatrix.c:1041:28
	strh.w	r0, [sp, #44]
.Ltmp188:
	.loc	10 1043 16 is_stmt 1            @ lvgl/src/lv_widgets/lv_btnmatrix.c:1043:16
	ldr	r0, [sp, #92]
	.loc	10 1043 21 is_stmt 0            @ lvgl/src/lv_widgets/lv_btnmatrix.c:1043:21
	ldrh	r0, [r0, #24]
	movw	r1, #65535
.Ltmp189:
	.loc	10 1043 16                      @ lvgl/src/lv_widgets/lv_btnmatrix.c:1043:16
	cmp	r0, r1
	bne	.LBB1_119
	b	.LBB1_118
.LBB1_118:
.Ltmp190:
	.loc	10 1044 17 is_stmt 1            @ lvgl/src/lv_widgets/lv_btnmatrix.c:1044:17
	ldr	r1, [sp, #92]
	movs	r0, #0
	.loc	10 1044 37 is_stmt 0            @ lvgl/src/lv_widgets/lv_btnmatrix.c:1044:37
	strh	r0, [r1, #24]
	.loc	10 1045 13 is_stmt 1            @ lvgl/src/lv_widgets/lv_btnmatrix.c:1045:13
	b	.LBB1_132
.Ltmp191:
.LBB1_119:
	.loc	10 1049 21                      @ lvgl/src/lv_widgets/lv_btnmatrix.c:1049:21
	ldr	r0, [sp, #92]
	.loc	10 1049 26 is_stmt 0            @ lvgl/src/lv_widgets/lv_btnmatrix.c:1049:26
	ldr	r1, [r0, #4]
	.loc	10 1049 44                      @ lvgl/src/lv_widgets/lv_btnmatrix.c:1049:44
	ldrh	r2, [r0, #24]
	.loc	10 1049 21                      @ lvgl/src/lv_widgets/lv_btnmatrix.c:1049:21
	add.w	r0, r1, r2, lsl #3
	ldrh.w	r1, [r1, r2, lsl #3]
	.loc	10 1049 66                      @ lvgl/src/lv_widgets/lv_btnmatrix.c:1049:66
	str	r1, [sp, #8]                    @ 4-byte Spill
	bl	lv_area_get_width
	mov	r1, r0
	.loc	10 1049 63                      @ lvgl/src/lv_widgets/lv_btnmatrix.c:1049:63
	ldr	r0, [sp, #8]                    @ 4-byte Reload
	add.w	r0, r0, r1, lsr #1
	.loc	10 1048 28 is_stmt 1            @ lvgl/src/lv_widgets/lv_btnmatrix.c:1048:28
	strh.w	r0, [sp, #40]
.Ltmp192:
	.loc	10 1051 34                      @ lvgl/src/lv_widgets/lv_btnmatrix.c:1051:34
	ldr	r0, [sp, #92]
	.loc	10 1051 39 is_stmt 0            @ lvgl/src/lv_widgets/lv_btnmatrix.c:1051:39
	ldrh	r0, [r0, #24]
	.loc	10 1051 32                      @ lvgl/src/lv_widgets/lv_btnmatrix.c:1051:32
	strh.w	r0, [sp, #42]
	.loc	10 1051 21                      @ lvgl/src/lv_widgets/lv_btnmatrix.c:1051:21
	b	.LBB1_120
.LBB1_120:                              @ =>This Inner Loop Header: Depth=1
.Ltmp193:
	.loc	10 1051 55                      @ lvgl/src/lv_widgets/lv_btnmatrix.c:1051:55
	ldrh.w	r0, [sp, #42]
	.loc	10 1051 68                      @ lvgl/src/lv_widgets/lv_btnmatrix.c:1051:68
	ldr	r1, [sp, #92]
	.loc	10 1051 73                      @ lvgl/src/lv_widgets/lv_btnmatrix.c:1051:73
	ldrh	r1, [r1, #20]
.Ltmp194:
	.loc	10 1051 17                      @ lvgl/src/lv_widgets/lv_btnmatrix.c:1051:17
	cmp	r0, r1
	bge	.LBB1_129
	b	.LBB1_121
.LBB1_121:                              @   in Loop: Header=BB1_120 Depth=1
.Ltmp195:
	.loc	10 1052 24 is_stmt 1            @ lvgl/src/lv_widgets/lv_btnmatrix.c:1052:24
	ldr	r2, [sp, #92]
	.loc	10 1052 29 is_stmt 0            @ lvgl/src/lv_widgets/lv_btnmatrix.c:1052:29
	ldr	r1, [r2, #4]
	.loc	10 1052 42                      @ lvgl/src/lv_widgets/lv_btnmatrix.c:1052:42
	ldrh.w	r0, [sp, #42]
	.loc	10 1052 24                      @ lvgl/src/lv_widgets/lv_btnmatrix.c:1052:24
	add.w	r0, r1, r0, lsl #3
	.loc	10 1052 54                      @ lvgl/src/lv_widgets/lv_btnmatrix.c:1052:54
	ldrsh.w	r0, [r0, #2]
	.loc	10 1052 82                      @ lvgl/src/lv_widgets/lv_btnmatrix.c:1052:82
	ldrh	r2, [r2, #24]
	.loc	10 1052 59                      @ lvgl/src/lv_widgets/lv_btnmatrix.c:1052:59
	add.w	r1, r1, r2, lsl #3
	.loc	10 1052 98                      @ lvgl/src/lv_widgets/lv_btnmatrix.c:1052:98
	ldrsh.w	r1, [r1, #2]
	.loc	10 1052 101                     @ lvgl/src/lv_widgets/lv_btnmatrix.c:1052:101
	cmp	r0, r1
	ble	.LBB1_127
	b	.LBB1_122
.LBB1_122:                              @   in Loop: Header=BB1_120 Depth=1
	.loc	10 1053 24 is_stmt 1            @ lvgl/src/lv_widgets/lv_btnmatrix.c:1053:24
	ldrsh.w	r0, [sp, #40]
	.loc	10 1053 37 is_stmt 0            @ lvgl/src/lv_widgets/lv_btnmatrix.c:1053:37
	ldr	r1, [sp, #92]
	.loc	10 1053 42                      @ lvgl/src/lv_widgets/lv_btnmatrix.c:1053:42
	ldr	r1, [r1, #4]
	.loc	10 1053 55                      @ lvgl/src/lv_widgets/lv_btnmatrix.c:1053:55
	ldrh.w	r2, [sp, #42]
	.loc	10 1053 67                      @ lvgl/src/lv_widgets/lv_btnmatrix.c:1053:67
	ldrsh.w	r1, [r1, r2, lsl #3]
	.loc	10 1053 70                      @ lvgl/src/lv_widgets/lv_btnmatrix.c:1053:70
	cmp	r0, r1
	blt	.LBB1_127
	b	.LBB1_123
.LBB1_123:                              @   in Loop: Header=BB1_120 Depth=1
	.loc	10 1054 24 is_stmt 1            @ lvgl/src/lv_widgets/lv_btnmatrix.c:1054:24
	ldrsh.w	r0, [sp, #40]
	.loc	10 1054 37 is_stmt 0            @ lvgl/src/lv_widgets/lv_btnmatrix.c:1054:37
	ldr	r1, [sp, #92]
	.loc	10 1054 42                      @ lvgl/src/lv_widgets/lv_btnmatrix.c:1054:42
	ldr	r1, [r1, #4]
	.loc	10 1054 55                      @ lvgl/src/lv_widgets/lv_btnmatrix.c:1054:55
	ldrh.w	r2, [sp, #42]
	.loc	10 1054 37                      @ lvgl/src/lv_widgets/lv_btnmatrix.c:1054:37
	add.w	r1, r1, r2, lsl #3
	.loc	10 1054 67                      @ lvgl/src/lv_widgets/lv_btnmatrix.c:1054:67
	ldrsh.w	r1, [r1, #4]
	.loc	10 1054 72                      @ lvgl/src/lv_widgets/lv_btnmatrix.c:1054:72
	ldrsh.w	r2, [sp, #44]
	.loc	10 1054 70                      @ lvgl/src/lv_widgets/lv_btnmatrix.c:1054:70
	add	r1, r2
	.loc	10 1054 82                      @ lvgl/src/lv_widgets/lv_btnmatrix.c:1054:82
	cmp	r0, r1
	bgt	.LBB1_127
	b	.LBB1_124
.LBB1_124:                              @   in Loop: Header=BB1_120 Depth=1
	.loc	10 1055 43 is_stmt 1            @ lvgl/src/lv_widgets/lv_btnmatrix.c:1055:43
	ldr	r0, [sp, #92]
	.loc	10 1055 48 is_stmt 0            @ lvgl/src/lv_widgets/lv_btnmatrix.c:1055:48
	ldr	r0, [r0, #8]
	.loc	10 1055 58                      @ lvgl/src/lv_widgets/lv_btnmatrix.c:1055:58
	ldrh.w	r1, [sp, #42]
	.loc	10 1055 43                      @ lvgl/src/lv_widgets/lv_btnmatrix.c:1055:43
	ldrh.w	r0, [r0, r1, lsl #1]
	.loc	10 1055 24                      @ lvgl/src/lv_widgets/lv_btnmatrix.c:1055:24
	bl	button_is_inactive
	.loc	10 1055 80                      @ lvgl/src/lv_widgets/lv_btnmatrix.c:1055:80
	cbnz	r0, .LBB1_127
	b	.LBB1_125
.LBB1_125:                              @   in Loop: Header=BB1_120 Depth=1
	.loc	10 1056 41 is_stmt 1            @ lvgl/src/lv_widgets/lv_btnmatrix.c:1056:41
	ldr	r0, [sp, #92]
	.loc	10 1056 46 is_stmt 0            @ lvgl/src/lv_widgets/lv_btnmatrix.c:1056:46
	ldr	r0, [r0, #8]
	.loc	10 1056 56                      @ lvgl/src/lv_widgets/lv_btnmatrix.c:1056:56
	ldrh.w	r1, [sp, #42]
	.loc	10 1056 41                      @ lvgl/src/lv_widgets/lv_btnmatrix.c:1056:41
	ldrh.w	r0, [r0, r1, lsl #1]
	.loc	10 1056 24                      @ lvgl/src/lv_widgets/lv_btnmatrix.c:1056:24
	bl	button_is_hidden
.Ltmp196:
	.loc	10 1052 24 is_stmt 1            @ lvgl/src/lv_widgets/lv_btnmatrix.c:1052:24
	cbnz	r0, .LBB1_127
	b	.LBB1_126
.LBB1_126:
.Ltmp197:
	.loc	10 1057 25                      @ lvgl/src/lv_widgets/lv_btnmatrix.c:1057:25
	b	.LBB1_129
.Ltmp198:
.LBB1_127:                              @   in Loop: Header=BB1_120 Depth=1
	.loc	10 1059 17                      @ lvgl/src/lv_widgets/lv_btnmatrix.c:1059:17
	b	.LBB1_128
.Ltmp199:
.LBB1_128:                              @   in Loop: Header=BB1_120 Depth=1
	.loc	10 1051 92                      @ lvgl/src/lv_widgets/lv_btnmatrix.c:1051:92
	ldrh.w	r0, [sp, #42]
	adds	r0, #1
	strh.w	r0, [sp, #42]
	.loc	10 1051 17 is_stmt 0            @ lvgl/src/lv_widgets/lv_btnmatrix.c:1051:17
	b	.LBB1_120
.Ltmp200:
.LBB1_129:
	.loc	10 1061 20 is_stmt 1            @ lvgl/src/lv_widgets/lv_btnmatrix.c:1061:20
	ldrh.w	r0, [sp, #42]
	.loc	10 1061 33 is_stmt 0            @ lvgl/src/lv_widgets/lv_btnmatrix.c:1061:33
	ldr	r1, [sp, #92]
	.loc	10 1061 38                      @ lvgl/src/lv_widgets/lv_btnmatrix.c:1061:38
	ldrh	r1, [r1, #20]
.Ltmp201:
	.loc	10 1061 20                      @ lvgl/src/lv_widgets/lv_btnmatrix.c:1061:20
	cmp	r0, r1
	bge	.LBB1_131
	b	.LBB1_130
.LBB1_130:
.Ltmp202:
	.loc	10 1061 69                      @ lvgl/src/lv_widgets/lv_btnmatrix.c:1061:69
	ldrh.w	r0, [sp, #42]
	.loc	10 1061 47                      @ lvgl/src/lv_widgets/lv_btnmatrix.c:1061:47
	ldr	r1, [sp, #92]
	.loc	10 1061 67                      @ lvgl/src/lv_widgets/lv_btnmatrix.c:1061:67
	strh	r0, [r1, #24]
	.loc	10 1061 47                      @ lvgl/src/lv_widgets/lv_btnmatrix.c:1061:47
	b	.LBB1_131
.Ltmp203:
.LBB1_131:
	.loc	10 0 47                         @ lvgl/src/lv_widgets/lv_btnmatrix.c:0:47
	b	.LBB1_132
.LBB1_132:
	.loc	10 1063 31 is_stmt 1            @ lvgl/src/lv_widgets/lv_btnmatrix.c:1063:31
	ldr	r1, [sp, #92]
	.loc	10 1063 36 is_stmt 0            @ lvgl/src/lv_widgets/lv_btnmatrix.c:1063:36
	ldrh	r0, [r1, #24]
	.loc	10 1063 29                      @ lvgl/src/lv_widgets/lv_btnmatrix.c:1063:29
	strh	r0, [r1, #26]
	.loc	10 1064 31 is_stmt 1            @ lvgl/src/lv_widgets/lv_btnmatrix.c:1064:31
	ldr	r0, [sp, #112]
	.loc	10 1064 13 is_stmt 0            @ lvgl/src/lv_widgets/lv_btnmatrix.c:1064:13
	bl	lv_obj_invalidate
	.loc	10 1065 9 is_stmt 1             @ lvgl/src/lv_widgets/lv_btnmatrix.c:1065:9
	b	.LBB1_151
.Ltmp204:
.LBB1_133:
	.loc	10 1066 17                      @ lvgl/src/lv_widgets/lv_btnmatrix.c:1066:17
	ldrsb.w	r0, [sp, #46]
.Ltmp205:
	.loc	10 1066 17 is_stmt 0            @ lvgl/src/lv_widgets/lv_btnmatrix.c:1066:17
	cmp	r0, #17
	bne.w	.LBB1_150
	b	.LBB1_134
.LBB1_134:
.Ltmp206:
	.loc	10 1067 67 is_stmt 1            @ lvgl/src/lv_widgets/lv_btnmatrix.c:1067:67
	ldr	r0, [sp, #112]
	movs	r1, #0
	.loc	10 1067 40 is_stmt 0            @ lvgl/src/lv_widgets/lv_btnmatrix.c:1067:40
	bl	lv_obj_get_style_pad_inner
	.loc	10 1067 28                      @ lvgl/src/lv_widgets/lv_btnmatrix.c:1067:28
	strh.w	r0, [sp, #38]
.Ltmp207:
	.loc	10 1069 16 is_stmt 1            @ lvgl/src/lv_widgets/lv_btnmatrix.c:1069:16
	ldr	r0, [sp, #92]
	.loc	10 1069 21 is_stmt 0            @ lvgl/src/lv_widgets/lv_btnmatrix.c:1069:21
	ldrh	r0, [r0, #24]
	movw	r1, #65535
.Ltmp208:
	.loc	10 1069 16                      @ lvgl/src/lv_widgets/lv_btnmatrix.c:1069:16
	cmp	r0, r1
	bne	.LBB1_136
	b	.LBB1_135
.LBB1_135:
.Ltmp209:
	.loc	10 1070 17 is_stmt 1            @ lvgl/src/lv_widgets/lv_btnmatrix.c:1070:17
	ldr	r1, [sp, #92]
	movs	r0, #0
	.loc	10 1070 37 is_stmt 0            @ lvgl/src/lv_widgets/lv_btnmatrix.c:1070:37
	strh	r0, [r1, #24]
	.loc	10 1071 13 is_stmt 1            @ lvgl/src/lv_widgets/lv_btnmatrix.c:1071:13
	b	.LBB1_149
.Ltmp210:
.LBB1_136:
	.loc	10 1075 21                      @ lvgl/src/lv_widgets/lv_btnmatrix.c:1075:21
	ldr	r0, [sp, #92]
	.loc	10 1075 26 is_stmt 0            @ lvgl/src/lv_widgets/lv_btnmatrix.c:1075:26
	ldr	r1, [r0, #4]
	.loc	10 1075 44                      @ lvgl/src/lv_widgets/lv_btnmatrix.c:1075:44
	ldrh	r2, [r0, #24]
	.loc	10 1075 21                      @ lvgl/src/lv_widgets/lv_btnmatrix.c:1075:21
	add.w	r0, r1, r2, lsl #3
	ldrh.w	r1, [r1, r2, lsl #3]
	.loc	10 1075 66                      @ lvgl/src/lv_widgets/lv_btnmatrix.c:1075:66
	str	r1, [sp, #4]                    @ 4-byte Spill
	bl	lv_area_get_width
	mov	r1, r0
	.loc	10 1075 63                      @ lvgl/src/lv_widgets/lv_btnmatrix.c:1075:63
	ldr	r0, [sp, #4]                    @ 4-byte Reload
	add.w	r0, r0, r1, lsr #1
	.loc	10 1074 28 is_stmt 1            @ lvgl/src/lv_widgets/lv_btnmatrix.c:1074:28
	strh.w	r0, [sp, #34]
.Ltmp211:
	.loc	10 1077 34                      @ lvgl/src/lv_widgets/lv_btnmatrix.c:1077:34
	ldr	r0, [sp, #92]
	.loc	10 1077 39 is_stmt 0            @ lvgl/src/lv_widgets/lv_btnmatrix.c:1077:39
	ldrh	r0, [r0, #24]
	.loc	10 1077 32                      @ lvgl/src/lv_widgets/lv_btnmatrix.c:1077:32
	strh.w	r0, [sp, #36]
	.loc	10 1077 21                      @ lvgl/src/lv_widgets/lv_btnmatrix.c:1077:21
	b	.LBB1_137
.LBB1_137:                              @ =>This Inner Loop Header: Depth=1
.Ltmp212:
	.loc	10 1077 55                      @ lvgl/src/lv_widgets/lv_btnmatrix.c:1077:55
	ldrsh.w	r0, [sp, #36]
.Ltmp213:
	.loc	10 1077 17                      @ lvgl/src/lv_widgets/lv_btnmatrix.c:1077:17
	cmp	r0, #0
	bmi	.LBB1_146
	b	.LBB1_138
.LBB1_138:                              @   in Loop: Header=BB1_137 Depth=1
.Ltmp214:
	.loc	10 1078 24 is_stmt 1            @ lvgl/src/lv_widgets/lv_btnmatrix.c:1078:24
	ldr	r2, [sp, #92]
	.loc	10 1078 29 is_stmt 0            @ lvgl/src/lv_widgets/lv_btnmatrix.c:1078:29
	ldr	r1, [r2, #4]
	.loc	10 1078 42                      @ lvgl/src/lv_widgets/lv_btnmatrix.c:1078:42
	ldrsh.w	r0, [sp, #36]
	.loc	10 1078 24                      @ lvgl/src/lv_widgets/lv_btnmatrix.c:1078:24
	add.w	r0, r1, r0, lsl #3
	.loc	10 1078 54                      @ lvgl/src/lv_widgets/lv_btnmatrix.c:1078:54
	ldrsh.w	r0, [r0, #2]
	.loc	10 1078 82                      @ lvgl/src/lv_widgets/lv_btnmatrix.c:1078:82
	ldrh	r2, [r2, #24]
	.loc	10 1078 59                      @ lvgl/src/lv_widgets/lv_btnmatrix.c:1078:59
	add.w	r1, r1, r2, lsl #3
	.loc	10 1078 98                      @ lvgl/src/lv_widgets/lv_btnmatrix.c:1078:98
	ldrsh.w	r1, [r1, #2]
	.loc	10 1078 101                     @ lvgl/src/lv_widgets/lv_btnmatrix.c:1078:101
	cmp	r0, r1
	bge	.LBB1_144
	b	.LBB1_139
.LBB1_139:                              @   in Loop: Header=BB1_137 Depth=1
	.loc	10 1079 24 is_stmt 1            @ lvgl/src/lv_widgets/lv_btnmatrix.c:1079:24
	ldrsh.w	r0, [sp, #34]
	.loc	10 1079 37 is_stmt 0            @ lvgl/src/lv_widgets/lv_btnmatrix.c:1079:37
	ldr	r1, [sp, #92]
	.loc	10 1079 42                      @ lvgl/src/lv_widgets/lv_btnmatrix.c:1079:42
	ldr	r1, [r1, #4]
	.loc	10 1079 55                      @ lvgl/src/lv_widgets/lv_btnmatrix.c:1079:55
	ldrsh.w	r2, [sp, #36]
	.loc	10 1079 67                      @ lvgl/src/lv_widgets/lv_btnmatrix.c:1079:67
	ldrsh.w	r1, [r1, r2, lsl #3]
	.loc	10 1079 72                      @ lvgl/src/lv_widgets/lv_btnmatrix.c:1079:72
	ldrsh.w	r2, [sp, #38]
	.loc	10 1079 70                      @ lvgl/src/lv_widgets/lv_btnmatrix.c:1079:70
	subs	r1, r1, r2
	.loc	10 1079 82                      @ lvgl/src/lv_widgets/lv_btnmatrix.c:1079:82
	cmp	r0, r1
	blt	.LBB1_144
	b	.LBB1_140
.LBB1_140:                              @   in Loop: Header=BB1_137 Depth=1
	.loc	10 1080 24 is_stmt 1            @ lvgl/src/lv_widgets/lv_btnmatrix.c:1080:24
	ldrsh.w	r0, [sp, #34]
	.loc	10 1080 37 is_stmt 0            @ lvgl/src/lv_widgets/lv_btnmatrix.c:1080:37
	ldr	r1, [sp, #92]
	.loc	10 1080 42                      @ lvgl/src/lv_widgets/lv_btnmatrix.c:1080:42
	ldr	r1, [r1, #4]
	.loc	10 1080 55                      @ lvgl/src/lv_widgets/lv_btnmatrix.c:1080:55
	ldrsh.w	r2, [sp, #36]
	.loc	10 1080 37                      @ lvgl/src/lv_widgets/lv_btnmatrix.c:1080:37
	add.w	r1, r1, r2, lsl #3
	.loc	10 1080 67                      @ lvgl/src/lv_widgets/lv_btnmatrix.c:1080:67
	ldrsh.w	r1, [r1, #4]
	.loc	10 1080 70                      @ lvgl/src/lv_widgets/lv_btnmatrix.c:1080:70
	cmp	r0, r1
	bgt	.LBB1_144
	b	.LBB1_141
.LBB1_141:                              @   in Loop: Header=BB1_137 Depth=1
	.loc	10 1081 43 is_stmt 1            @ lvgl/src/lv_widgets/lv_btnmatrix.c:1081:43
	ldr	r0, [sp, #92]
	.loc	10 1081 48 is_stmt 0            @ lvgl/src/lv_widgets/lv_btnmatrix.c:1081:48
	ldr	r0, [r0, #8]
	.loc	10 1081 58                      @ lvgl/src/lv_widgets/lv_btnmatrix.c:1081:58
	ldrsh.w	r1, [sp, #36]
	.loc	10 1081 43                      @ lvgl/src/lv_widgets/lv_btnmatrix.c:1081:43
	ldrh.w	r0, [r0, r1, lsl #1]
	.loc	10 1081 24                      @ lvgl/src/lv_widgets/lv_btnmatrix.c:1081:24
	bl	button_is_inactive
	.loc	10 1081 80                      @ lvgl/src/lv_widgets/lv_btnmatrix.c:1081:80
	cbnz	r0, .LBB1_144
	b	.LBB1_142
.LBB1_142:                              @   in Loop: Header=BB1_137 Depth=1
	.loc	10 1082 41 is_stmt 1            @ lvgl/src/lv_widgets/lv_btnmatrix.c:1082:41
	ldr	r0, [sp, #92]
	.loc	10 1082 46 is_stmt 0            @ lvgl/src/lv_widgets/lv_btnmatrix.c:1082:46
	ldr	r0, [r0, #8]
	.loc	10 1082 56                      @ lvgl/src/lv_widgets/lv_btnmatrix.c:1082:56
	ldrsh.w	r1, [sp, #36]
	.loc	10 1082 41                      @ lvgl/src/lv_widgets/lv_btnmatrix.c:1082:41
	ldrh.w	r0, [r0, r1, lsl #1]
	.loc	10 1082 24                      @ lvgl/src/lv_widgets/lv_btnmatrix.c:1082:24
	bl	button_is_hidden
.Ltmp215:
	.loc	10 1078 24 is_stmt 1            @ lvgl/src/lv_widgets/lv_btnmatrix.c:1078:24
	cbnz	r0, .LBB1_144
	b	.LBB1_143
.LBB1_143:
.Ltmp216:
	.loc	10 1083 25                      @ lvgl/src/lv_widgets/lv_btnmatrix.c:1083:25
	b	.LBB1_146
.Ltmp217:
.LBB1_144:                              @   in Loop: Header=BB1_137 Depth=1
	.loc	10 1085 17                      @ lvgl/src/lv_widgets/lv_btnmatrix.c:1085:17
	b	.LBB1_145
.Ltmp218:
.LBB1_145:                              @   in Loop: Header=BB1_137 Depth=1
	.loc	10 1077 82                      @ lvgl/src/lv_widgets/lv_btnmatrix.c:1077:82
	ldrh.w	r0, [sp, #36]
	subs	r0, #1
	strh.w	r0, [sp, #36]
	.loc	10 1077 17 is_stmt 0            @ lvgl/src/lv_widgets/lv_btnmatrix.c:1077:17
	b	.LBB1_137
.Ltmp219:
.LBB1_146:
	.loc	10 1086 20 is_stmt 1            @ lvgl/src/lv_widgets/lv_btnmatrix.c:1086:20
	ldrsh.w	r0, [sp, #36]
.Ltmp220:
	.loc	10 1086 20 is_stmt 0            @ lvgl/src/lv_widgets/lv_btnmatrix.c:1086:20
	cmp	r0, #0
	bmi	.LBB1_148
	b	.LBB1_147
.LBB1_147:
.Ltmp221:
	.loc	10 1086 59                      @ lvgl/src/lv_widgets/lv_btnmatrix.c:1086:59
	ldrh.w	r0, [sp, #36]
	.loc	10 1086 37                      @ lvgl/src/lv_widgets/lv_btnmatrix.c:1086:37
	ldr	r1, [sp, #92]
	.loc	10 1086 57                      @ lvgl/src/lv_widgets/lv_btnmatrix.c:1086:57
	strh	r0, [r1, #24]
	.loc	10 1086 37                      @ lvgl/src/lv_widgets/lv_btnmatrix.c:1086:37
	b	.LBB1_148
.Ltmp222:
.LBB1_148:
	.loc	10 0 37                         @ lvgl/src/lv_widgets/lv_btnmatrix.c:0:37
	b	.LBB1_149
.LBB1_149:
	.loc	10 1088 31 is_stmt 1            @ lvgl/src/lv_widgets/lv_btnmatrix.c:1088:31
	ldr	r1, [sp, #92]
	.loc	10 1088 36 is_stmt 0            @ lvgl/src/lv_widgets/lv_btnmatrix.c:1088:36
	ldrh	r0, [r1, #24]
	.loc	10 1088 29                      @ lvgl/src/lv_widgets/lv_btnmatrix.c:1088:29
	strh	r0, [r1, #26]
	.loc	10 1089 31 is_stmt 1            @ lvgl/src/lv_widgets/lv_btnmatrix.c:1089:31
	ldr	r0, [sp, #112]
	.loc	10 1089 13 is_stmt 0            @ lvgl/src/lv_widgets/lv_btnmatrix.c:1089:13
	bl	lv_obj_invalidate
	.loc	10 1090 9 is_stmt 1             @ lvgl/src/lv_widgets/lv_btnmatrix.c:1090:9
	b	.LBB1_150
.Ltmp223:
.LBB1_150:
	.loc	10 0 9 is_stmt 0                @ lvgl/src/lv_widgets/lv_btnmatrix.c:0:9
	b	.LBB1_151
.LBB1_151:
	b	.LBB1_152
.LBB1_152:
	b	.LBB1_153
.LBB1_153:
	.loc	10 1092 5 is_stmt 1             @ lvgl/src/lv_widgets/lv_btnmatrix.c:1092:5
	b	.LBB1_157
.Ltmp224:
.LBB1_154:
	.loc	10 1093 13                      @ lvgl/src/lv_widgets/lv_btnmatrix.c:1093:13
	ldrb.w	r0, [sp, #111]
.Ltmp225:
	.loc	10 1093 13 is_stmt 0            @ lvgl/src/lv_widgets/lv_btnmatrix.c:1093:13
	cmp	r0, #25
	bne	.LBB1_156
	b	.LBB1_155
.LBB1_155:
.Ltmp226:
	.loc	10 1095 35 is_stmt 1            @ lvgl/src/lv_widgets/lv_btnmatrix.c:1095:35
	ldr	r0, [sp, #104]
	.loc	10 1095 16 is_stmt 0            @ lvgl/src/lv_widgets/lv_btnmatrix.c:1095:16
	str	r0, [sp, #28]
	.loc	10 1096 10 is_stmt 1            @ lvgl/src/lv_widgets/lv_btnmatrix.c:1096:10
	ldr	r1, [sp, #28]
	movs	r0, #1
	.loc	10 1096 25 is_stmt 0            @ lvgl/src/lv_widgets/lv_btnmatrix.c:1096:25
	strb	r0, [r1]
	.loc	10 1098 5 is_stmt 1             @ lvgl/src/lv_widgets/lv_btnmatrix.c:1098:5
	b	.LBB1_156
.Ltmp227:
.LBB1_156:
	.loc	10 0 5 is_stmt 0                @ lvgl/src/lv_widgets/lv_btnmatrix.c:0:5
	b	.LBB1_157
.LBB1_157:
	b	.LBB1_158
.LBB1_158:
	b	.LBB1_159
.LBB1_159:
	b	.LBB1_160
.LBB1_160:
	b	.LBB1_161
.LBB1_161:
	b	.LBB1_162
.LBB1_162:
	b	.LBB1_163
.LBB1_163:
	b	.LBB1_164
.LBB1_164:
	b	.LBB1_165
.LBB1_165:
	b	.LBB1_166
.LBB1_166:
	b	.LBB1_167
.LBB1_167:
	.loc	10 1099 12 is_stmt 1            @ lvgl/src/lv_widgets/lv_btnmatrix.c:1099:12
	ldrb.w	r0, [sp, #103]
	.loc	10 1099 5 is_stmt 0             @ lvgl/src/lv_widgets/lv_btnmatrix.c:1099:5
	strb.w	r0, [sp, #119]
	b	.LBB1_168
.LBB1_168:
	.loc	10 1100 1 is_stmt 1             @ lvgl/src/lv_widgets/lv_btnmatrix.c:1100:1
	ldrb.w	r0, [sp, #119]
	add	sp, #120
	pop	{r7, pc}
.Ltmp228:
.Lfunc_end1:
	.size	lv_btnmatrix_signal, .Lfunc_end1-lv_btnmatrix_signal
	.cfi_endproc
	.cantunwind
	.fnend
                                        @ -- End function
	.section	.text.lv_btnmatrix_design,"ax",%progbits
	.p2align	3                               @ -- Begin function lv_btnmatrix_design
	.type	lv_btnmatrix_design,%function
	.code	16                              @ @lv_btnmatrix_design
	.thumb_func
lv_btnmatrix_design:
.Lfunc_begin2:
	.loc	10 629 0                        @ lvgl/src/lv_widgets/lv_btnmatrix.c:629:0
	.fnstart
	.cfi_startproc
@ %bb.0:
	.save	{r4, lr}
	push	{r4, lr}
	.cfi_def_cfa_offset 8
	.cfi_offset lr, -4
	.cfi_offset r4, -8
	.pad	#752
	sub.w	sp, sp, #752
	.cfi_def_cfa_offset 760
                                        @ kill: def $r3 killed $r2
	str	r0, [sp, #744]
	str	r1, [sp, #740]
	strb.w	r2, [sp, #739]
.Ltmp229:
	.loc	10 630 8 prologue_end           @ lvgl/src/lv_widgets/lv_btnmatrix.c:630:8
	ldrb.w	r0, [sp, #739]
.Ltmp230:
	.loc	10 630 8 is_stmt 0              @ lvgl/src/lv_widgets/lv_btnmatrix.c:630:8
	cmp	r0, #2
	bne	.LBB2_2
	b	.LBB2_1
.LBB2_1:
.Ltmp231:
	.loc	10 631 16 is_stmt 1             @ lvgl/src/lv_widgets/lv_btnmatrix.c:631:16
	movw	r0, :lower16:ancestor_design_f
	movt	r0, :upper16:ancestor_design_f
	ldr	r3, [r0]
	.loc	10 631 34 is_stmt 0             @ lvgl/src/lv_widgets/lv_btnmatrix.c:631:34
	ldr	r0, [sp, #744]
	.loc	10 631 40                       @ lvgl/src/lv_widgets/lv_btnmatrix.c:631:40
	ldr	r1, [sp, #740]
	.loc	10 631 51                       @ lvgl/src/lv_widgets/lv_btnmatrix.c:631:51
	ldrb.w	r2, [sp, #739]
	.loc	10 631 16                       @ lvgl/src/lv_widgets/lv_btnmatrix.c:631:16
	blx	r3
	.loc	10 631 9                        @ lvgl/src/lv_widgets/lv_btnmatrix.c:631:9
	strb.w	r0, [sp, #751]
	b	.LBB2_63
.Ltmp232:
.LBB2_2:
	.loc	10 634 13 is_stmt 1             @ lvgl/src/lv_widgets/lv_btnmatrix.c:634:13
	ldrb.w	r0, [sp, #739]
.Ltmp233:
	.loc	10 634 13 is_stmt 0             @ lvgl/src/lv_widgets/lv_btnmatrix.c:634:13
	cmp	r0, #0
	bne.w	.LBB2_58
	b	.LBB2_3
.LBB2_3:
.Ltmp234:
	.loc	10 635 9 is_stmt 1              @ lvgl/src/lv_widgets/lv_btnmatrix.c:635:9
	movw	r0, :lower16:ancestor_design_f
	movt	r0, :upper16:ancestor_design_f
	ldr	r3, [r0]
	.loc	10 635 27 is_stmt 0             @ lvgl/src/lv_widgets/lv_btnmatrix.c:635:27
	ldr	r0, [sp, #744]
	.loc	10 635 33                       @ lvgl/src/lv_widgets/lv_btnmatrix.c:635:33
	ldr	r1, [sp, #740]
	.loc	10 635 44                       @ lvgl/src/lv_widgets/lv_btnmatrix.c:635:44
	ldrb.w	r2, [sp, #739]
	.loc	10 635 9                        @ lvgl/src/lv_widgets/lv_btnmatrix.c:635:9
	blx	r3
	.loc	10 637 64 is_stmt 1             @ lvgl/src/lv_widgets/lv_btnmatrix.c:637:64
	ldr	r0, [sp, #744]
	.loc	10 637 44 is_stmt 0             @ lvgl/src/lv_widgets/lv_btnmatrix.c:637:44
	bl	lv_obj_get_ext_attr
	.loc	10 637 30                       @ lvgl/src/lv_widgets/lv_btnmatrix.c:637:30
	str	r0, [sp, #732]
.Ltmp235:
	.loc	10 638 12 is_stmt 1             @ lvgl/src/lv_widgets/lv_btnmatrix.c:638:12
	ldr	r0, [sp, #732]
	.loc	10 638 17 is_stmt 0             @ lvgl/src/lv_widgets/lv_btnmatrix.c:638:17
	ldrh	r0, [r0, #20]
.Ltmp236:
	.loc	10 638 12                       @ lvgl/src/lv_widgets/lv_btnmatrix.c:638:12
	cbnz	r0, .LBB2_5
	b	.LBB2_4
.LBB2_4:
	.loc	10 0 12                         @ lvgl/src/lv_widgets/lv_btnmatrix.c:0:12
	movs	r0, #0
.Ltmp237:
	.loc	10 638 31                       @ lvgl/src/lv_widgets/lv_btnmatrix.c:638:31
	strb.w	r0, [sp, #751]
	b	.LBB2_63
.Ltmp238:
.LBB2_5:
	.loc	10 640 27 is_stmt 1             @ lvgl/src/lv_widgets/lv_btnmatrix.c:640:27
	ldr	r0, [sp, #744]
	add	r1, sp, #724
	.loc	10 640 9 is_stmt 0              @ lvgl/src/lv_widgets/lv_btnmatrix.c:640:9
	bl	lv_obj_get_coords
	movs	r0, #0
	.loc	10 646 18 is_stmt 1             @ lvgl/src/lv_widgets/lv_btnmatrix.c:646:18
	strh.w	r0, [sp, #710]
	.loc	10 647 18                       @ lvgl/src/lv_widgets/lv_btnmatrix.c:647:18
	strh.w	r0, [sp, #708]
	.loc	10 648 23                       @ lvgl/src/lv_widgets/lv_btnmatrix.c:648:23
	strb.w	r0, [sp, #707]
.Ltmp239:
	.loc	10 649 12                       @ lvgl/src/lv_widgets/lv_btnmatrix.c:649:12
	ldr	r0, [sp, #732]
	.loc	10 649 17 is_stmt 0             @ lvgl/src/lv_widgets/lv_btnmatrix.c:649:17
	ldrb	r0, [r0, #28]
.Ltmp240:
	.loc	10 649 12                       @ lvgl/src/lv_widgets/lv_btnmatrix.c:649:12
	lsls	r0, r0, #31
	cbz	r0, .LBB2_7
	b	.LBB2_6
.LBB2_6:
.Ltmp241:
	.loc	10 649 35                       @ lvgl/src/lv_widgets/lv_btnmatrix.c:649:35
	ldrb.w	r0, [sp, #707]
	orr	r0, r0, #1
	strb.w	r0, [sp, #707]
	.loc	10 649 26                       @ lvgl/src/lv_widgets/lv_btnmatrix.c:649:26
	b	.LBB2_7
.Ltmp242:
.LBB2_7:
	.loc	10 650 57 is_stmt 1             @ lvgl/src/lv_widgets/lv_btnmatrix.c:650:57
	ldr	r0, [sp, #744]
	.loc	10 650 34 is_stmt 0             @ lvgl/src/lv_widgets/lv_btnmatrix.c:650:34
	bl	lv_btnmatrix_get_align
	.loc	10 650 26                       @ lvgl/src/lv_widgets/lv_btnmatrix.c:650:26
	strb.w	r0, [sp, #706]
.Ltmp243:
	.loc	10 651 12 is_stmt 1             @ lvgl/src/lv_widgets/lv_btnmatrix.c:651:12
	ldrb.w	r0, [sp, #706]
.Ltmp244:
	.loc	10 651 12 is_stmt 0             @ lvgl/src/lv_widgets/lv_btnmatrix.c:651:12
	cmp	r0, #1
	bne	.LBB2_9
	b	.LBB2_8
.LBB2_8:
.Ltmp245:
	.loc	10 651 53                       @ lvgl/src/lv_widgets/lv_btnmatrix.c:651:53
	ldrb.w	r0, [sp, #707]
	orr	r0, r0, #4
	strb.w	r0, [sp, #707]
	.loc	10 651 44                       @ lvgl/src/lv_widgets/lv_btnmatrix.c:651:44
	b	.LBB2_9
.Ltmp246:
.LBB2_9:
	.loc	10 652 12 is_stmt 1             @ lvgl/src/lv_widgets/lv_btnmatrix.c:652:12
	ldrb.w	r0, [sp, #706]
.Ltmp247:
	.loc	10 652 12 is_stmt 0             @ lvgl/src/lv_widgets/lv_btnmatrix.c:652:12
	cmp	r0, #2
	bne	.LBB2_11
	b	.LBB2_10
.LBB2_10:
.Ltmp248:
	.loc	10 652 52                       @ lvgl/src/lv_widgets/lv_btnmatrix.c:652:52
	ldrb.w	r0, [sp, #707]
	orr	r0, r0, #8
	strb.w	r0, [sp, #707]
	.loc	10 652 43                       @ lvgl/src/lv_widgets/lv_btnmatrix.c:652:43
	b	.LBB2_11
.Ltmp249:
.LBB2_11:
	.loc	10 666 32 is_stmt 1             @ lvgl/src/lv_widgets/lv_btnmatrix.c:666:32
	ldr	r0, [sp, #744]
	.loc	10 666 38 is_stmt 0             @ lvgl/src/lv_widgets/lv_btnmatrix.c:666:38
	ldrb.w	r0, [r0, #61]
	.loc	10 666 20                       @ lvgl/src/lv_widgets/lv_btnmatrix.c:666:20
	strb.w	r0, [sp, #127]
	.loc	10 667 39 is_stmt 1             @ lvgl/src/lv_widgets/lv_btnmatrix.c:667:39
	ldr	r0, [sp, #744]
	movs	r1, #1
	.loc	10 667 9 is_stmt 0              @ lvgl/src/lv_widgets/lv_btnmatrix.c:667:9
	str	r1, [sp, #80]                   @ 4-byte Spill
	bl	_lv_obj_disable_style_caching
	.loc	10 668 9 is_stmt 1              @ lvgl/src/lv_widgets/lv_btnmatrix.c:668:9
	ldr	r1, [sp, #744]
	movs	r0, #0
	.loc	10 668 21 is_stmt 0             @ lvgl/src/lv_widgets/lv_btnmatrix.c:668:21
	str	r0, [sp, #88]                   @ 4-byte Spill
	strb.w	r0, [r1, #61]
	add	r0, sp, #600
	.loc	10 669 9 is_stmt 1              @ lvgl/src/lv_widgets/lv_btnmatrix.c:669:9
	str	r0, [sp, #76]                   @ 4-byte Spill
	bl	lv_draw_rect_dsc_init
	add	r0, sp, #560
	.loc	10 670 9                        @ lvgl/src/lv_widgets/lv_btnmatrix.c:670:9
	str	r0, [sp, #84]                   @ 4-byte Spill
	bl	lv_draw_label_dsc_init
	ldr	r2, [sp, #76]                   @ 4-byte Reload
	ldr	r1, [sp, #80]                   @ 4-byte Reload
	.loc	10 671 35                       @ lvgl/src/lv_widgets/lv_btnmatrix.c:671:35
	ldr	r0, [sp, #744]
	.loc	10 671 9 is_stmt 0              @ lvgl/src/lv_widgets/lv_btnmatrix.c:671:9
	bl	lv_obj_init_draw_rect_dsc
	ldr	r1, [sp, #80]                   @ 4-byte Reload
	ldr	r2, [sp, #84]                   @ 4-byte Reload
	.loc	10 672 36 is_stmt 1             @ lvgl/src/lv_widgets/lv_btnmatrix.c:672:36
	ldr	r0, [sp, #744]
	.loc	10 672 9 is_stmt 0              @ lvgl/src/lv_widgets/lv_btnmatrix.c:672:9
	bl	lv_obj_init_draw_label_dsc
	ldr	r1, [sp, #88]                   @ 4-byte Reload
	.loc	10 673 35 is_stmt 1             @ lvgl/src/lv_widgets/lv_btnmatrix.c:673:35
	ldrb.w	r0, [sp, #707]
	.loc	10 673 33 is_stmt 0             @ lvgl/src/lv_widgets/lv_btnmatrix.c:673:33
	strb.w	r0, [sp, #597]
	.loc	10 674 23 is_stmt 1             @ lvgl/src/lv_widgets/lv_btnmatrix.c:674:23
	ldrb.w	r0, [sp, #127]
	.loc	10 674 9 is_stmt 0              @ lvgl/src/lv_widgets/lv_btnmatrix.c:674:9
	ldr	r2, [sp, #744]
	.loc	10 674 21                       @ lvgl/src/lv_widgets/lv_btnmatrix.c:674:21
	strb.w	r0, [r2, #61]
	.loc	10 675 39 is_stmt 1             @ lvgl/src/lv_widgets/lv_btnmatrix.c:675:39
	ldr	r0, [sp, #744]
	.loc	10 675 9 is_stmt 0              @ lvgl/src/lv_widgets/lv_btnmatrix.c:675:9
	bl	_lv_obj_disable_style_caching
	ldr	r1, [sp, #88]                   @ 4-byte Reload
	.loc	10 677 14 is_stmt 1             @ lvgl/src/lv_widgets/lv_btnmatrix.c:677:14
	strb.w	r1, [sp, #126]
	.loc	10 678 14                       @ lvgl/src/lv_widgets/lv_btnmatrix.c:678:14
	strb.w	r1, [sp, #125]
	.loc	10 680 63                       @ lvgl/src/lv_widgets/lv_btnmatrix.c:680:63
	ldr	r0, [sp, #744]
	.loc	10 680 38 is_stmt 0             @ lvgl/src/lv_widgets/lv_btnmatrix.c:680:38
	bl	lv_obj_get_style_pad_top
	ldr	r1, [sp, #88]                   @ 4-byte Reload
	.loc	10 680 24                       @ lvgl/src/lv_widgets/lv_btnmatrix.c:680:24
	strh.w	r0, [sp, #122]
	.loc	10 681 69 is_stmt 1             @ lvgl/src/lv_widgets/lv_btnmatrix.c:681:69
	ldr	r0, [sp, #744]
	.loc	10 681 41 is_stmt 0             @ lvgl/src/lv_widgets/lv_btnmatrix.c:681:41
	bl	lv_obj_get_style_pad_bottom
	mov	r1, r0
	.loc	10 681 24                       @ lvgl/src/lv_widgets/lv_btnmatrix.c:681:24
	ldr	r0, [sp, #88]                   @ 4-byte Reload
	strh.w	r1, [sp, #120]
.Ltmp250:
	.loc	10 687 19 is_stmt 1             @ lvgl/src/lv_widgets/lv_btnmatrix.c:687:19
	strh.w	r0, [sp, #710]
	.loc	10 687 13 is_stmt 0             @ lvgl/src/lv_widgets/lv_btnmatrix.c:687:13
	b	.LBB2_12
.LBB2_12:                               @ =>This Loop Header: Depth=1
                                        @     Child Loop BB2_14 Depth 2
.Ltmp251:
	.loc	10 687 24                       @ lvgl/src/lv_widgets/lv_btnmatrix.c:687:24
	ldrh.w	r0, [sp, #710]
	.loc	10 687 32                       @ lvgl/src/lv_widgets/lv_btnmatrix.c:687:32
	ldr	r1, [sp, #732]
	.loc	10 687 37                       @ lvgl/src/lv_widgets/lv_btnmatrix.c:687:37
	ldrh	r1, [r1, #20]
.Ltmp252:
	.loc	10 687 9                        @ lvgl/src/lv_widgets/lv_btnmatrix.c:687:9
	cmp	r0, r1
	bge.w	.LBB2_57
	b	.LBB2_13
.LBB2_13:                               @   in Loop: Header=BB2_12 Depth=1
.Ltmp253:
	.loc	10 689 13 is_stmt 1             @ lvgl/src/lv_widgets/lv_btnmatrix.c:689:13
	b	.LBB2_14
.LBB2_14:                               @   Parent Loop BB2_12 Depth=1
                                        @ =>  This Inner Loop Header: Depth=2
	.loc	10 689 26 is_stmt 0             @ lvgl/src/lv_widgets/lv_btnmatrix.c:689:26
	ldr	r0, [sp, #732]
	.loc	10 689 31                       @ lvgl/src/lv_widgets/lv_btnmatrix.c:689:31
	ldr	r0, [r0]
	.loc	10 689 37                       @ lvgl/src/lv_widgets/lv_btnmatrix.c:689:37
	ldrh.w	r1, [sp, #708]
	.loc	10 689 26                       @ lvgl/src/lv_widgets/lv_btnmatrix.c:689:26
	ldr.w	r0, [r0, r1, lsl #2]
	.loc	10 689 19                       @ lvgl/src/lv_widgets/lv_btnmatrix.c:689:19
	movw	r1, :lower16:.L.str.2
	movt	r1, :upper16:.L.str.2
	bl	strcmp
	.loc	10 689 13                       @ lvgl/src/lv_widgets/lv_btnmatrix.c:689:13
	cbnz	r0, .LBB2_16
	b	.LBB2_15
.LBB2_15:                               @   in Loop: Header=BB2_14 Depth=2
.Ltmp254:
	.loc	10 690 22 is_stmt 1             @ lvgl/src/lv_widgets/lv_btnmatrix.c:690:22
	ldrh.w	r0, [sp, #708]
	adds	r0, #1
	strh.w	r0, [sp, #708]
.Ltmp255:
	.loc	10 689 13                       @ lvgl/src/lv_widgets/lv_btnmatrix.c:689:13
	b	.LBB2_14
.LBB2_16:                               @   in Loop: Header=BB2_12 Depth=1
.Ltmp256:
	.loc	10 694 33                       @ lvgl/src/lv_widgets/lv_btnmatrix.c:694:33
	ldr	r0, [sp, #732]
	.loc	10 694 38 is_stmt 0             @ lvgl/src/lv_widgets/lv_btnmatrix.c:694:38
	ldr	r0, [r0, #8]
	.loc	10 694 48                       @ lvgl/src/lv_widgets/lv_btnmatrix.c:694:48
	ldrh.w	r1, [sp, #710]
	.loc	10 694 33                       @ lvgl/src/lv_widgets/lv_btnmatrix.c:694:33
	ldrh.w	r0, [r0, r1, lsl #1]
	.loc	10 694 16                       @ lvgl/src/lv_widgets/lv_btnmatrix.c:694:16
	bl	button_is_hidden
.Ltmp257:
	.loc	10 694 16                       @ lvgl/src/lv_widgets/lv_btnmatrix.c:694:16
	cbz	r0, .LBB2_18
	b	.LBB2_17
.LBB2_17:                               @   in Loop: Header=BB2_12 Depth=1
.Ltmp258:
	.loc	10 694 57                       @ lvgl/src/lv_widgets/lv_btnmatrix.c:694:57
	b	.LBB2_56
.Ltmp259:
.LBB2_18:                               @   in Loop: Header=BB2_12 Depth=1
	.loc	10 696 38 is_stmt 1             @ lvgl/src/lv_widgets/lv_btnmatrix.c:696:38
	ldr	r0, [sp, #732]
	.loc	10 696 43 is_stmt 0             @ lvgl/src/lv_widgets/lv_btnmatrix.c:696:43
	ldr	r0, [r0, #4]
	.loc	10 696 56                       @ lvgl/src/lv_widgets/lv_btnmatrix.c:696:56
	ldrh.w	r1, [sp, #710]
	.loc	10 696 38                       @ lvgl/src/lv_widgets/lv_btnmatrix.c:696:38
	add.w	r1, r0, r1, lsl #3
	add	r0, sp, #716
	.loc	10 696 13                       @ lvgl/src/lv_widgets/lv_btnmatrix.c:696:13
	str	r0, [sp, #72]                   @ 4-byte Spill
	bl	lv_area_copy
	ldr	r0, [sp, #72]                   @ 4-byte Reload
	.loc	10 697 28 is_stmt 1             @ lvgl/src/lv_widgets/lv_btnmatrix.c:697:28
	ldrh.w	r2, [sp, #724]
	.loc	10 697 25 is_stmt 0             @ lvgl/src/lv_widgets/lv_btnmatrix.c:697:25
	ldrh.w	r1, [sp, #716]
	add	r1, r2
	strh.w	r1, [sp, #716]
	.loc	10 698 28 is_stmt 1             @ lvgl/src/lv_widgets/lv_btnmatrix.c:698:28
	ldrh.w	r2, [sp, #726]
	.loc	10 698 25 is_stmt 0             @ lvgl/src/lv_widgets/lv_btnmatrix.c:698:25
	ldrh.w	r1, [sp, #718]
	add	r1, r2
	strh.w	r1, [sp, #718]
	.loc	10 699 28 is_stmt 1             @ lvgl/src/lv_widgets/lv_btnmatrix.c:699:28
	ldrh.w	r2, [sp, #724]
	.loc	10 699 25 is_stmt 0             @ lvgl/src/lv_widgets/lv_btnmatrix.c:699:25
	ldrh.w	r1, [sp, #720]
	add	r1, r2
	strh.w	r1, [sp, #720]
	.loc	10 700 28 is_stmt 1             @ lvgl/src/lv_widgets/lv_btnmatrix.c:700:28
	ldrh.w	r2, [sp, #726]
	.loc	10 700 25 is_stmt 0             @ lvgl/src/lv_widgets/lv_btnmatrix.c:700:25
	ldrh.w	r1, [sp, #722]
	add	r1, r2
	strh.w	r1, [sp, #722]
	.loc	10 702 21 is_stmt 1             @ lvgl/src/lv_widgets/lv_btnmatrix.c:702:21
	bl	lv_area_get_width
	mov	r1, r0
	.loc	10 702 19 is_stmt 0             @ lvgl/src/lv_widgets/lv_btnmatrix.c:702:19
	ldr	r0, [sp, #72]                   @ 4-byte Reload
	strh.w	r1, [sp, #714]
	.loc	10 703 21 is_stmt 1             @ lvgl/src/lv_widgets/lv_btnmatrix.c:703:21
	bl	lv_area_get_height
	.loc	10 703 19 is_stmt 0             @ lvgl/src/lv_widgets/lv_btnmatrix.c:703:19
	strh.w	r0, [sp, #712]
	movs	r0, #0
	.loc	10 708 24 is_stmt 1             @ lvgl/src/lv_widgets/lv_btnmatrix.c:708:24
	strb.w	r0, [sp, #111]
.Ltmp260:
	.loc	10 709 37                       @ lvgl/src/lv_widgets/lv_btnmatrix.c:709:37
	ldr	r0, [sp, #732]
	.loc	10 709 42 is_stmt 0             @ lvgl/src/lv_widgets/lv_btnmatrix.c:709:42
	ldr	r0, [r0, #8]
	.loc	10 709 52                       @ lvgl/src/lv_widgets/lv_btnmatrix.c:709:52
	ldrh.w	r1, [sp, #710]
	.loc	10 709 37                       @ lvgl/src/lv_widgets/lv_btnmatrix.c:709:37
	ldrh.w	r0, [r0, r1, lsl #1]
	.loc	10 709 16                       @ lvgl/src/lv_widgets/lv_btnmatrix.c:709:16
	bl	button_get_tgl_state
.Ltmp261:
	.loc	10 709 16                       @ lvgl/src/lv_widgets/lv_btnmatrix.c:709:16
	cbz	r0, .LBB2_20
	b	.LBB2_19
.LBB2_19:                               @   in Loop: Header=BB2_12 Depth=1
.Ltmp262:
	.loc	10 709 71                       @ lvgl/src/lv_widgets/lv_btnmatrix.c:709:71
	ldrb.w	r0, [sp, #111]
	orr	r0, r0, #1
	strb.w	r0, [sp, #111]
	.loc	10 709 61                       @ lvgl/src/lv_widgets/lv_btnmatrix.c:709:61
	b	.LBB2_20
.Ltmp263:
.LBB2_20:                               @   in Loop: Header=BB2_12 Depth=1
	.loc	10 710 35 is_stmt 1             @ lvgl/src/lv_widgets/lv_btnmatrix.c:710:35
	ldr	r0, [sp, #732]
	.loc	10 710 40 is_stmt 0             @ lvgl/src/lv_widgets/lv_btnmatrix.c:710:40
	ldr	r0, [r0, #8]
	.loc	10 710 50                       @ lvgl/src/lv_widgets/lv_btnmatrix.c:710:50
	ldrh.w	r1, [sp, #710]
	.loc	10 710 35                       @ lvgl/src/lv_widgets/lv_btnmatrix.c:710:35
	ldrh.w	r0, [r0, r1, lsl #1]
	.loc	10 710 16                       @ lvgl/src/lv_widgets/lv_btnmatrix.c:710:16
	bl	button_is_inactive
.Ltmp264:
	.loc	10 710 16                       @ lvgl/src/lv_widgets/lv_btnmatrix.c:710:16
	cbz	r0, .LBB2_22
	b	.LBB2_21
.LBB2_21:                               @   in Loop: Header=BB2_12 Depth=1
.Ltmp265:
	.loc	10 710 69                       @ lvgl/src/lv_widgets/lv_btnmatrix.c:710:69
	ldrb.w	r0, [sp, #111]
	orr	r0, r0, #32
	strb.w	r0, [sp, #111]
	.loc	10 710 59                       @ lvgl/src/lv_widgets/lv_btnmatrix.c:710:59
	b	.LBB2_22
.Ltmp266:
.LBB2_22:                               @   in Loop: Header=BB2_12 Depth=1
	.loc	10 711 16 is_stmt 1             @ lvgl/src/lv_widgets/lv_btnmatrix.c:711:16
	ldrh.w	r0, [sp, #710]
	.loc	10 711 25 is_stmt 0             @ lvgl/src/lv_widgets/lv_btnmatrix.c:711:25
	ldr	r1, [sp, #732]
	.loc	10 711 30                       @ lvgl/src/lv_widgets/lv_btnmatrix.c:711:30
	ldrh	r1, [r1, #22]
.Ltmp267:
	.loc	10 711 16                       @ lvgl/src/lv_widgets/lv_btnmatrix.c:711:16
	cmp	r0, r1
	bne	.LBB2_24
	b	.LBB2_23
.LBB2_23:                               @   in Loop: Header=BB2_12 Depth=1
.Ltmp268:
	.loc	10 711 51                       @ lvgl/src/lv_widgets/lv_btnmatrix.c:711:51
	ldrb.w	r0, [sp, #111]
	orr	r0, r0, #16
	strb.w	r0, [sp, #111]
	.loc	10 711 41                       @ lvgl/src/lv_widgets/lv_btnmatrix.c:711:41
	b	.LBB2_24
.Ltmp269:
.LBB2_24:                               @   in Loop: Header=BB2_12 Depth=1
	.loc	10 712 16 is_stmt 1             @ lvgl/src/lv_widgets/lv_btnmatrix.c:712:16
	ldrh.w	r0, [sp, #710]
	.loc	10 712 25 is_stmt 0             @ lvgl/src/lv_widgets/lv_btnmatrix.c:712:25
	ldr	r1, [sp, #732]
	.loc	10 712 30                       @ lvgl/src/lv_widgets/lv_btnmatrix.c:712:30
	ldrh	r1, [r1, #24]
.Ltmp270:
	.loc	10 712 16                       @ lvgl/src/lv_widgets/lv_btnmatrix.c:712:16
	cmp	r0, r1
	bne	.LBB2_28
	b	.LBB2_25
.LBB2_25:                               @   in Loop: Header=BB2_12 Depth=1
.Ltmp271:
	.loc	10 713 27 is_stmt 1             @ lvgl/src/lv_widgets/lv_btnmatrix.c:713:27
	ldrb.w	r0, [sp, #111]
	orr	r0, r0, #2
	strb.w	r0, [sp, #111]
.Ltmp272:
	.loc	10 714 20                       @ lvgl/src/lv_widgets/lv_btnmatrix.c:714:20
	ldrb.w	r0, [sp, #127]
.Ltmp273:
	.loc	10 714 20 is_stmt 0             @ lvgl/src/lv_widgets/lv_btnmatrix.c:714:20
	lsls	r0, r0, #29
	cmp	r0, #0
	bpl	.LBB2_27
	b	.LBB2_26
.LBB2_26:                               @   in Loop: Header=BB2_12 Depth=1
.Ltmp274:
	.loc	10 714 59                       @ lvgl/src/lv_widgets/lv_btnmatrix.c:714:59
	ldrb.w	r0, [sp, #111]
	orr	r0, r0, #4
	strb.w	r0, [sp, #111]
	.loc	10 714 49                       @ lvgl/src/lv_widgets/lv_btnmatrix.c:714:49
	b	.LBB2_27
.Ltmp275:
.LBB2_27:                               @   in Loop: Header=BB2_12 Depth=1
	.loc	10 715 13 is_stmt 1             @ lvgl/src/lv_widgets/lv_btnmatrix.c:715:13
	b	.LBB2_28
.Ltmp276:
.LBB2_28:                               @   in Loop: Header=BB2_12 Depth=1
	.loc	10 717 16                       @ lvgl/src/lv_widgets/lv_btnmatrix.c:717:16
	ldrb.w	r0, [sp, #111]
.Ltmp277:
	.loc	10 717 16 is_stmt 0             @ lvgl/src/lv_widgets/lv_btnmatrix.c:717:16
	cbnz	r0, .LBB2_30
	b	.LBB2_29
.LBB2_29:                               @   in Loop: Header=BB2_12 Depth=1
	.loc	10 0 16                         @ lvgl/src/lv_widgets/lv_btnmatrix.c:0:16
	add	r0, sp, #600
.Ltmp278:
	.loc	10 718 35 is_stmt 1             @ lvgl/src/lv_widgets/lv_btnmatrix.c:718:35
	str	r0, [sp, #116]
	add	r0, sp, #560
	.loc	10 719 36                       @ lvgl/src/lv_widgets/lv_btnmatrix.c:719:36
	str	r0, [sp, #112]
	.loc	10 720 13                       @ lvgl/src/lv_widgets/lv_btnmatrix.c:720:13
	b	.LBB2_41
.Ltmp279:
.LBB2_30:                               @   in Loop: Header=BB2_12 Depth=1
	.loc	10 721 21                       @ lvgl/src/lv_widgets/lv_btnmatrix.c:721:21
	ldrb.w	r0, [sp, #111]
.Ltmp280:
	.loc	10 721 21 is_stmt 0             @ lvgl/src/lv_widgets/lv_btnmatrix.c:721:21
	cmp	r0, #1
	bne	.LBB2_34
	b	.LBB2_31
.LBB2_31:                               @   in Loop: Header=BB2_12 Depth=1
.Ltmp281:
	.loc	10 722 21 is_stmt 1             @ lvgl/src/lv_widgets/lv_btnmatrix.c:722:21
	ldrb.w	r0, [sp, #126]
.Ltmp282:
	.loc	10 722 20 is_stmt 0             @ lvgl/src/lv_widgets/lv_btnmatrix.c:722:20
	lsls	r0, r0, #31
	cbnz	r0, .LBB2_33
	b	.LBB2_32
.LBB2_32:                               @   in Loop: Header=BB2_12 Depth=1
.Ltmp283:
	.loc	10 723 21 is_stmt 1             @ lvgl/src/lv_widgets/lv_btnmatrix.c:723:21
	ldr	r0, [sp, #744]
	movs	r1, #1
	.loc	10 723 33 is_stmt 0             @ lvgl/src/lv_widgets/lv_btnmatrix.c:723:33
	str	r1, [sp, #68]                   @ 4-byte Spill
	strb.w	r1, [r0, #61]
	.loc	10 724 51 is_stmt 1             @ lvgl/src/lv_widgets/lv_btnmatrix.c:724:51
	ldr	r0, [sp, #744]
	.loc	10 724 21 is_stmt 0             @ lvgl/src/lv_widgets/lv_btnmatrix.c:724:21
	bl	_lv_obj_disable_style_caching
	add	r0, sp, #456
	.loc	10 725 21 is_stmt 1             @ lvgl/src/lv_widgets/lv_btnmatrix.c:725:21
	str	r0, [sp, #60]                   @ 4-byte Spill
	bl	lv_draw_rect_dsc_init
	add	r0, sp, #416
	.loc	10 726 21                       @ lvgl/src/lv_widgets/lv_btnmatrix.c:726:21
	str	r0, [sp, #64]                   @ 4-byte Spill
	bl	lv_draw_label_dsc_init
	ldr	r2, [sp, #60]                   @ 4-byte Reload
	ldr	r1, [sp, #68]                   @ 4-byte Reload
	.loc	10 727 47                       @ lvgl/src/lv_widgets/lv_btnmatrix.c:727:47
	ldr	r0, [sp, #744]
	.loc	10 727 21 is_stmt 0             @ lvgl/src/lv_widgets/lv_btnmatrix.c:727:21
	bl	lv_obj_init_draw_rect_dsc
	ldr	r2, [sp, #64]                   @ 4-byte Reload
	ldr	r1, [sp, #68]                   @ 4-byte Reload
	.loc	10 728 48 is_stmt 1             @ lvgl/src/lv_widgets/lv_btnmatrix.c:728:48
	ldr	r0, [sp, #744]
	.loc	10 728 21 is_stmt 0             @ lvgl/src/lv_widgets/lv_btnmatrix.c:728:21
	bl	lv_obj_init_draw_label_dsc
	.loc	10 729 47 is_stmt 1             @ lvgl/src/lv_widgets/lv_btnmatrix.c:729:47
	ldrb.w	r0, [sp, #707]
	.loc	10 729 45 is_stmt 0             @ lvgl/src/lv_widgets/lv_btnmatrix.c:729:45
	strb.w	r0, [sp, #453]
	.loc	10 730 35 is_stmt 1             @ lvgl/src/lv_widgets/lv_btnmatrix.c:730:35
	ldrb.w	r0, [sp, #127]
	.loc	10 730 21 is_stmt 0             @ lvgl/src/lv_widgets/lv_btnmatrix.c:730:21
	ldr	r1, [sp, #744]
	.loc	10 730 33                       @ lvgl/src/lv_widgets/lv_btnmatrix.c:730:33
	strb.w	r0, [r1, #61]
	.loc	10 731 51 is_stmt 1             @ lvgl/src/lv_widgets/lv_btnmatrix.c:731:51
	ldr	r0, [sp, #744]
	movs	r1, #0
	.loc	10 731 21 is_stmt 0             @ lvgl/src/lv_widgets/lv_btnmatrix.c:731:21
	bl	_lv_obj_disable_style_caching
	ldr	r0, [sp, #68]                   @ 4-byte Reload
	.loc	10 732 32 is_stmt 1             @ lvgl/src/lv_widgets/lv_btnmatrix.c:732:32
	strb.w	r0, [sp, #126]
	.loc	10 733 17                       @ lvgl/src/lv_widgets/lv_btnmatrix.c:733:17
	b	.LBB2_33
.Ltmp284:
.LBB2_33:                               @   in Loop: Header=BB2_12 Depth=1
	.loc	10 0 17 is_stmt 0               @ lvgl/src/lv_widgets/lv_btnmatrix.c:0:17
	add	r0, sp, #456
	.loc	10 734 35 is_stmt 1             @ lvgl/src/lv_widgets/lv_btnmatrix.c:734:35
	str	r0, [sp, #116]
	add	r0, sp, #416
	.loc	10 735 36                       @ lvgl/src/lv_widgets/lv_btnmatrix.c:735:36
	str	r0, [sp, #112]
	.loc	10 736 13                       @ lvgl/src/lv_widgets/lv_btnmatrix.c:736:13
	b	.LBB2_40
.Ltmp285:
.LBB2_34:                               @   in Loop: Header=BB2_12 Depth=1
	.loc	10 737 21                       @ lvgl/src/lv_widgets/lv_btnmatrix.c:737:21
	ldrb.w	r0, [sp, #111]
.Ltmp286:
	.loc	10 737 21 is_stmt 0             @ lvgl/src/lv_widgets/lv_btnmatrix.c:737:21
	cmp	r0, #32
	bne	.LBB2_38
	b	.LBB2_35
.LBB2_35:                               @   in Loop: Header=BB2_12 Depth=1
.Ltmp287:
	.loc	10 738 21 is_stmt 1             @ lvgl/src/lv_widgets/lv_btnmatrix.c:738:21
	ldrb.w	r0, [sp, #125]
.Ltmp288:
	.loc	10 738 20 is_stmt 0             @ lvgl/src/lv_widgets/lv_btnmatrix.c:738:20
	lsls	r0, r0, #31
	cbnz	r0, .LBB2_37
	b	.LBB2_36
.LBB2_36:                               @   in Loop: Header=BB2_12 Depth=1
.Ltmp289:
	.loc	10 739 21 is_stmt 1             @ lvgl/src/lv_widgets/lv_btnmatrix.c:739:21
	ldr	r1, [sp, #744]
	movs	r0, #32
	.loc	10 739 33 is_stmt 0             @ lvgl/src/lv_widgets/lv_btnmatrix.c:739:33
	strb.w	r0, [r1, #61]
	.loc	10 740 51 is_stmt 1             @ lvgl/src/lv_widgets/lv_btnmatrix.c:740:51
	ldr	r0, [sp, #744]
	movs	r1, #1
	.loc	10 740 21 is_stmt 0             @ lvgl/src/lv_widgets/lv_btnmatrix.c:740:21
	str	r1, [sp, #56]                   @ 4-byte Spill
	bl	_lv_obj_disable_style_caching
	add	r0, sp, #312
	.loc	10 741 21 is_stmt 1             @ lvgl/src/lv_widgets/lv_btnmatrix.c:741:21
	str	r0, [sp, #48]                   @ 4-byte Spill
	bl	lv_draw_rect_dsc_init
	add	r0, sp, #272
	.loc	10 742 21                       @ lvgl/src/lv_widgets/lv_btnmatrix.c:742:21
	str	r0, [sp, #52]                   @ 4-byte Spill
	bl	lv_draw_label_dsc_init
	ldr	r2, [sp, #48]                   @ 4-byte Reload
	ldr	r1, [sp, #56]                   @ 4-byte Reload
	.loc	10 743 47                       @ lvgl/src/lv_widgets/lv_btnmatrix.c:743:47
	ldr	r0, [sp, #744]
	.loc	10 743 21 is_stmt 0             @ lvgl/src/lv_widgets/lv_btnmatrix.c:743:21
	bl	lv_obj_init_draw_rect_dsc
	ldr	r2, [sp, #52]                   @ 4-byte Reload
	ldr	r1, [sp, #56]                   @ 4-byte Reload
	.loc	10 744 48 is_stmt 1             @ lvgl/src/lv_widgets/lv_btnmatrix.c:744:48
	ldr	r0, [sp, #744]
	.loc	10 744 21 is_stmt 0             @ lvgl/src/lv_widgets/lv_btnmatrix.c:744:21
	bl	lv_obj_init_draw_label_dsc
	.loc	10 745 47 is_stmt 1             @ lvgl/src/lv_widgets/lv_btnmatrix.c:745:47
	ldrb.w	r0, [sp, #707]
	.loc	10 745 45 is_stmt 0             @ lvgl/src/lv_widgets/lv_btnmatrix.c:745:45
	strb.w	r0, [sp, #309]
	.loc	10 746 35 is_stmt 1             @ lvgl/src/lv_widgets/lv_btnmatrix.c:746:35
	ldrb.w	r0, [sp, #127]
	.loc	10 746 21 is_stmt 0             @ lvgl/src/lv_widgets/lv_btnmatrix.c:746:21
	ldr	r1, [sp, #744]
	.loc	10 746 33                       @ lvgl/src/lv_widgets/lv_btnmatrix.c:746:33
	strb.w	r0, [r1, #61]
	.loc	10 747 51 is_stmt 1             @ lvgl/src/lv_widgets/lv_btnmatrix.c:747:51
	ldr	r0, [sp, #744]
	movs	r1, #0
	.loc	10 747 21 is_stmt 0             @ lvgl/src/lv_widgets/lv_btnmatrix.c:747:21
	bl	_lv_obj_disable_style_caching
	ldr	r0, [sp, #56]                   @ 4-byte Reload
	.loc	10 748 37 is_stmt 1             @ lvgl/src/lv_widgets/lv_btnmatrix.c:748:37
	strb.w	r0, [sp, #125]
	.loc	10 749 17                       @ lvgl/src/lv_widgets/lv_btnmatrix.c:749:17
	b	.LBB2_37
.Ltmp290:
.LBB2_37:                               @   in Loop: Header=BB2_12 Depth=1
	.loc	10 0 17 is_stmt 0               @ lvgl/src/lv_widgets/lv_btnmatrix.c:0:17
	add	r0, sp, #312
	.loc	10 750 35 is_stmt 1             @ lvgl/src/lv_widgets/lv_btnmatrix.c:750:35
	str	r0, [sp, #116]
	add	r0, sp, #272
	.loc	10 751 36                       @ lvgl/src/lv_widgets/lv_btnmatrix.c:751:36
	str	r0, [sp, #112]
	.loc	10 752 13                       @ lvgl/src/lv_widgets/lv_btnmatrix.c:752:13
	b	.LBB2_39
.Ltmp291:
.LBB2_38:                               @   in Loop: Header=BB2_12 Depth=1
	.loc	10 755 31                       @ lvgl/src/lv_widgets/lv_btnmatrix.c:755:31
	ldrb.w	r0, [sp, #111]
	.loc	10 755 17 is_stmt 0             @ lvgl/src/lv_widgets/lv_btnmatrix.c:755:17
	ldr	r1, [sp, #744]
	.loc	10 755 29                       @ lvgl/src/lv_widgets/lv_btnmatrix.c:755:29
	strb.w	r0, [r1, #61]
	.loc	10 756 47 is_stmt 1             @ lvgl/src/lv_widgets/lv_btnmatrix.c:756:47
	ldr	r0, [sp, #744]
	movs	r1, #1
	.loc	10 756 17 is_stmt 0             @ lvgl/src/lv_widgets/lv_btnmatrix.c:756:17
	str	r1, [sp, #36]                   @ 4-byte Spill
	bl	_lv_obj_disable_style_caching
	add	r0, sp, #168
	.loc	10 757 17 is_stmt 1             @ lvgl/src/lv_widgets/lv_btnmatrix.c:757:17
	str	r0, [sp, #40]                   @ 4-byte Spill
	bl	lv_draw_rect_dsc_init
	add	r0, sp, #128
	.loc	10 758 17                       @ lvgl/src/lv_widgets/lv_btnmatrix.c:758:17
	str	r0, [sp, #44]                   @ 4-byte Spill
	bl	lv_draw_label_dsc_init
	ldr	r1, [sp, #36]                   @ 4-byte Reload
	ldr	r2, [sp, #40]                   @ 4-byte Reload
	.loc	10 759 43                       @ lvgl/src/lv_widgets/lv_btnmatrix.c:759:43
	ldr	r0, [sp, #744]
	.loc	10 759 17 is_stmt 0             @ lvgl/src/lv_widgets/lv_btnmatrix.c:759:17
	bl	lv_obj_init_draw_rect_dsc
	ldr	r1, [sp, #36]                   @ 4-byte Reload
	ldr	r2, [sp, #44]                   @ 4-byte Reload
	.loc	10 760 44 is_stmt 1             @ lvgl/src/lv_widgets/lv_btnmatrix.c:760:44
	ldr	r0, [sp, #744]
	.loc	10 760 17 is_stmt 0             @ lvgl/src/lv_widgets/lv_btnmatrix.c:760:17
	bl	lv_obj_init_draw_label_dsc
	ldr	r1, [sp, #40]                   @ 4-byte Reload
	ldr	r0, [sp, #44]                   @ 4-byte Reload
	.loc	10 761 43 is_stmt 1             @ lvgl/src/lv_widgets/lv_btnmatrix.c:761:43
	ldrb.w	r2, [sp, #707]
	.loc	10 761 41 is_stmt 0             @ lvgl/src/lv_widgets/lv_btnmatrix.c:761:41
	strb.w	r2, [sp, #165]
	.loc	10 762 35 is_stmt 1             @ lvgl/src/lv_widgets/lv_btnmatrix.c:762:35
	str	r1, [sp, #116]
	.loc	10 763 36                       @ lvgl/src/lv_widgets/lv_btnmatrix.c:763:36
	str	r0, [sp, #112]
	.loc	10 764 31                       @ lvgl/src/lv_widgets/lv_btnmatrix.c:764:31
	ldrb.w	r0, [sp, #127]
	.loc	10 764 17 is_stmt 0             @ lvgl/src/lv_widgets/lv_btnmatrix.c:764:17
	ldr	r1, [sp, #744]
	.loc	10 764 29                       @ lvgl/src/lv_widgets/lv_btnmatrix.c:764:29
	strb.w	r0, [r1, #61]
	.loc	10 765 47 is_stmt 1             @ lvgl/src/lv_widgets/lv_btnmatrix.c:765:47
	ldr	r0, [sp, #744]
	movs	r1, #0
	.loc	10 765 17 is_stmt 0             @ lvgl/src/lv_widgets/lv_btnmatrix.c:765:17
	bl	_lv_obj_disable_style_caching
	b	.LBB2_39
.Ltmp292:
.LBB2_39:                               @   in Loop: Header=BB2_12 Depth=1
	.loc	10 0 17                         @ lvgl/src/lv_widgets/lv_btnmatrix.c:0:17
	b	.LBB2_40
.LBB2_40:                               @   in Loop: Header=BB2_12 Depth=1
	b	.LBB2_41
.LBB2_41:                               @   in Loop: Header=BB2_12 Depth=1
	.loc	10 768 46 is_stmt 1             @ lvgl/src/lv_widgets/lv_btnmatrix.c:768:46
	ldr	r0, [sp, #116]
	.loc	10 768 65 is_stmt 0             @ lvgl/src/lv_widgets/lv_btnmatrix.c:768:65
	ldrh	r0, [r0, #26]
	.loc	10 768 28                       @ lvgl/src/lv_widgets/lv_btnmatrix.c:768:28
	strh.w	r0, [sp, #108]
.Ltmp293:
	.loc	10 771 16 is_stmt 1             @ lvgl/src/lv_widgets/lv_btnmatrix.c:771:16
	ldrh.w	r0, [sp, #108]
.Ltmp294:
	.loc	10 771 16 is_stmt 0             @ lvgl/src/lv_widgets/lv_btnmatrix.c:771:16
	lsls	r0, r0, #27
	cmp	r0, #0
	bpl	.LBB2_55
	b	.LBB2_42
.LBB2_42:                               @   in Loop: Header=BB2_12 Depth=1
.Ltmp295:
	.loc	10 773 29 is_stmt 1             @ lvgl/src/lv_widgets/lv_btnmatrix.c:773:29
	ldrsh.w	r0, [sp, #718]
	.loc	10 773 35 is_stmt 0             @ lvgl/src/lv_widgets/lv_btnmatrix.c:773:35
	ldr	r1, [sp, #744]
	.loc	10 773 48                       @ lvgl/src/lv_widgets/lv_btnmatrix.c:773:48
	ldrsh.w	r1, [r1, #18]
	.loc	10 773 53                       @ lvgl/src/lv_widgets/lv_btnmatrix.c:773:53
	ldrsh.w	r2, [sp, #122]
	.loc	10 773 51                       @ lvgl/src/lv_widgets/lv_btnmatrix.c:773:51
	add	r1, r2
.Ltmp296:
	.loc	10 773 20                       @ lvgl/src/lv_widgets/lv_btnmatrix.c:773:20
	cmp	r0, r1
	bne	.LBB2_44
	b	.LBB2_43
.LBB2_43:                               @   in Loop: Header=BB2_12 Depth=1
.Ltmp297:
	.loc	10 774 21 is_stmt 1             @ lvgl/src/lv_widgets/lv_btnmatrix.c:774:21
	ldr	r1, [sp, #116]
	.loc	10 774 52 is_stmt 0             @ lvgl/src/lv_widgets/lv_btnmatrix.c:774:52
	ldrh	r0, [r1, #26]
	bic	r0, r0, #2
	strh	r0, [r1, #26]
	.loc	10 775 17 is_stmt 1             @ lvgl/src/lv_widgets/lv_btnmatrix.c:775:17
	b	.LBB2_44
.Ltmp298:
.LBB2_44:                               @   in Loop: Header=BB2_12 Depth=1
	.loc	10 776 29                       @ lvgl/src/lv_widgets/lv_btnmatrix.c:776:29
	ldrsh.w	r0, [sp, #722]
	.loc	10 776 35 is_stmt 0             @ lvgl/src/lv_widgets/lv_btnmatrix.c:776:35
	ldr	r1, [sp, #744]
	.loc	10 776 48                       @ lvgl/src/lv_widgets/lv_btnmatrix.c:776:48
	ldrsh.w	r1, [r1, #22]
	.loc	10 776 53                       @ lvgl/src/lv_widgets/lv_btnmatrix.c:776:53
	ldrsh.w	r2, [sp, #120]
	.loc	10 776 51                       @ lvgl/src/lv_widgets/lv_btnmatrix.c:776:51
	subs	r1, r1, r2
.Ltmp299:
	.loc	10 776 20                       @ lvgl/src/lv_widgets/lv_btnmatrix.c:776:20
	cmp	r0, r1
	bne	.LBB2_46
	b	.LBB2_45
.LBB2_45:                               @   in Loop: Header=BB2_12 Depth=1
.Ltmp300:
	.loc	10 777 21 is_stmt 1             @ lvgl/src/lv_widgets/lv_btnmatrix.c:777:21
	ldr	r1, [sp, #116]
	.loc	10 777 52 is_stmt 0             @ lvgl/src/lv_widgets/lv_btnmatrix.c:777:52
	ldrh	r0, [r1, #26]
	bic	r0, r0, #1
	strh	r0, [r1, #26]
	.loc	10 778 17 is_stmt 1             @ lvgl/src/lv_widgets/lv_btnmatrix.c:778:17
	b	.LBB2_46
.Ltmp301:
.LBB2_46:                               @   in Loop: Header=BB2_12 Depth=1
	.loc	10 781 20                       @ lvgl/src/lv_widgets/lv_btnmatrix.c:781:20
	ldrh.w	r0, [sp, #708]
.Ltmp302:
	.loc	10 781 20 is_stmt 0             @ lvgl/src/lv_widgets/lv_btnmatrix.c:781:20
	cbnz	r0, .LBB2_48
	b	.LBB2_47
.LBB2_47:                               @   in Loop: Header=BB2_12 Depth=1
.Ltmp303:
	.loc	10 782 21 is_stmt 1             @ lvgl/src/lv_widgets/lv_btnmatrix.c:782:21
	ldr	r1, [sp, #116]
	.loc	10 782 52 is_stmt 0             @ lvgl/src/lv_widgets/lv_btnmatrix.c:782:52
	ldrh	r0, [r1, #26]
	bic	r0, r0, #4
	strh	r0, [r1, #26]
	.loc	10 783 17 is_stmt 1             @ lvgl/src/lv_widgets/lv_btnmatrix.c:783:17
	b	.LBB2_51
.Ltmp304:
.LBB2_48:                               @   in Loop: Header=BB2_12 Depth=1
	.loc	10 784 32                       @ lvgl/src/lv_widgets/lv_btnmatrix.c:784:32
	ldr	r0, [sp, #732]
	.loc	10 784 37 is_stmt 0             @ lvgl/src/lv_widgets/lv_btnmatrix.c:784:37
	ldr	r0, [r0]
	.loc	10 784 43                       @ lvgl/src/lv_widgets/lv_btnmatrix.c:784:43
	ldrh.w	r1, [sp, #708]
	.loc	10 784 32                       @ lvgl/src/lv_widgets/lv_btnmatrix.c:784:32
	add.w	r0, r0, r1, lsl #2
	ldr	r0, [r0, #-4]
	.loc	10 784 25                       @ lvgl/src/lv_widgets/lv_btnmatrix.c:784:25
	movw	r1, :lower16:.L.str.2
	movt	r1, :upper16:.L.str.2
	bl	strcmp
.Ltmp305:
	.loc	10 784 25                       @ lvgl/src/lv_widgets/lv_btnmatrix.c:784:25
	cbnz	r0, .LBB2_50
	b	.LBB2_49
.LBB2_49:                               @   in Loop: Header=BB2_12 Depth=1
.Ltmp306:
	.loc	10 785 21 is_stmt 1             @ lvgl/src/lv_widgets/lv_btnmatrix.c:785:21
	ldr	r1, [sp, #116]
	.loc	10 785 52 is_stmt 0             @ lvgl/src/lv_widgets/lv_btnmatrix.c:785:52
	ldrh	r0, [r1, #26]
	bic	r0, r0, #4
	strh	r0, [r1, #26]
	.loc	10 786 17 is_stmt 1             @ lvgl/src/lv_widgets/lv_btnmatrix.c:786:17
	b	.LBB2_50
.Ltmp307:
.LBB2_50:                               @   in Loop: Header=BB2_12 Depth=1
	.loc	10 0 17 is_stmt 0               @ lvgl/src/lv_widgets/lv_btnmatrix.c:0:17
	b	.LBB2_51
.LBB2_51:                               @   in Loop: Header=BB2_12 Depth=1
.Ltmp308:
	.loc	10 788 20 is_stmt 1             @ lvgl/src/lv_widgets/lv_btnmatrix.c:788:20
	ldr	r0, [sp, #732]
	.loc	10 788 25 is_stmt 0             @ lvgl/src/lv_widgets/lv_btnmatrix.c:788:25
	ldr	r0, [r0]
	.loc	10 788 31                       @ lvgl/src/lv_widgets/lv_btnmatrix.c:788:31
	ldrh.w	r1, [sp, #708]
	.loc	10 788 20                       @ lvgl/src/lv_widgets/lv_btnmatrix.c:788:20
	add.w	r0, r0, r1, lsl #2
	ldr	r0, [r0, #4]
	ldrsb.w	r0, [r0]
	.loc	10 788 53                       @ lvgl/src/lv_widgets/lv_btnmatrix.c:788:53
	cbz	r0, .LBB2_53
	b	.LBB2_52
.LBB2_52:                               @   in Loop: Header=BB2_12 Depth=1
	.loc	10 788 63                       @ lvgl/src/lv_widgets/lv_btnmatrix.c:788:63
	ldr	r0, [sp, #732]
	.loc	10 788 68                       @ lvgl/src/lv_widgets/lv_btnmatrix.c:788:68
	ldr	r0, [r0]
	.loc	10 788 74                       @ lvgl/src/lv_widgets/lv_btnmatrix.c:788:74
	ldrh.w	r1, [sp, #708]
	.loc	10 788 63                       @ lvgl/src/lv_widgets/lv_btnmatrix.c:788:63
	add.w	r0, r0, r1, lsl #2
	ldr	r0, [r0, #4]
	.loc	10 788 56                       @ lvgl/src/lv_widgets/lv_btnmatrix.c:788:56
	movw	r1, :lower16:.L.str.2
	movt	r1, :upper16:.L.str.2
	bl	strcmp
.Ltmp309:
	.loc	10 788 20                       @ lvgl/src/lv_widgets/lv_btnmatrix.c:788:20
	cbnz	r0, .LBB2_54
	b	.LBB2_53
.LBB2_53:                               @   in Loop: Header=BB2_12 Depth=1
.Ltmp310:
	.loc	10 789 21 is_stmt 1             @ lvgl/src/lv_widgets/lv_btnmatrix.c:789:21
	ldr	r1, [sp, #116]
	.loc	10 789 52 is_stmt 0             @ lvgl/src/lv_widgets/lv_btnmatrix.c:789:52
	ldrh	r0, [r1, #26]
	bic	r0, r0, #8
	strh	r0, [r1, #26]
	.loc	10 790 17 is_stmt 1             @ lvgl/src/lv_widgets/lv_btnmatrix.c:790:17
	b	.LBB2_54
.Ltmp311:
.LBB2_54:                               @   in Loop: Header=BB2_12 Depth=1
	.loc	10 791 13                       @ lvgl/src/lv_widgets/lv_btnmatrix.c:791:13
	b	.LBB2_55
.Ltmp312:
.LBB2_55:                               @   in Loop: Header=BB2_12 Depth=1
	.loc	10 793 37                       @ lvgl/src/lv_widgets/lv_btnmatrix.c:793:37
	ldr	r1, [sp, #740]
	.loc	10 793 48 is_stmt 0             @ lvgl/src/lv_widgets/lv_btnmatrix.c:793:48
	ldr	r2, [sp, #116]
	add	r0, sp, #716
	.loc	10 793 13                       @ lvgl/src/lv_widgets/lv_btnmatrix.c:793:13
	str	r0, [sp, #32]                   @ 4-byte Spill
	bl	lv_draw_rect
	.loc	10 795 46 is_stmt 1             @ lvgl/src/lv_widgets/lv_btnmatrix.c:795:46
	ldrh.w	r0, [sp, #108]
	.loc	10 795 13 is_stmt 0             @ lvgl/src/lv_widgets/lv_btnmatrix.c:795:13
	ldr	r1, [sp, #116]
	.loc	10 795 44                       @ lvgl/src/lv_widgets/lv_btnmatrix.c:795:44
	strh	r0, [r1, #26]
	.loc	10 798 38 is_stmt 1             @ lvgl/src/lv_widgets/lv_btnmatrix.c:798:38
	ldr	r0, [sp, #112]
	.loc	10 798 58 is_stmt 0             @ lvgl/src/lv_widgets/lv_btnmatrix.c:798:58
	ldr	r0, [r0, #12]
	.loc	10 798 31                       @ lvgl/src/lv_widgets/lv_btnmatrix.c:798:31
	str	r0, [sp, #104]
	.loc	10 799 43 is_stmt 1             @ lvgl/src/lv_widgets/lv_btnmatrix.c:799:43
	ldr	r0, [sp, #112]
	.loc	10 799 63 is_stmt 0             @ lvgl/src/lv_widgets/lv_btnmatrix.c:799:63
	ldrh	r0, [r0, #20]
	.loc	10 799 28                       @ lvgl/src/lv_widgets/lv_btnmatrix.c:799:28
	strh.w	r0, [sp, #102]
	.loc	10 800 41 is_stmt 1             @ lvgl/src/lv_widgets/lv_btnmatrix.c:800:41
	ldr	r0, [sp, #112]
	.loc	10 800 61 is_stmt 0             @ lvgl/src/lv_widgets/lv_btnmatrix.c:800:61
	ldrh	r0, [r0, #18]
	.loc	10 800 28                       @ lvgl/src/lv_widgets/lv_btnmatrix.c:800:28
	strh.w	r0, [sp, #100]
	.loc	10 801 32 is_stmt 1             @ lvgl/src/lv_widgets/lv_btnmatrix.c:801:32
	ldr	r0, [sp, #732]
	.loc	10 801 37 is_stmt 0             @ lvgl/src/lv_widgets/lv_btnmatrix.c:801:37
	ldr	r0, [r0]
	.loc	10 801 43                       @ lvgl/src/lv_widgets/lv_btnmatrix.c:801:43
	ldrh.w	r1, [sp, #708]
	.loc	10 801 32                       @ lvgl/src/lv_widgets/lv_btnmatrix.c:801:32
	ldr.w	r0, [r0, r1, lsl #2]
	.loc	10 801 26                       @ lvgl/src/lv_widgets/lv_btnmatrix.c:801:26
	str	r0, [sp, #96]
	.loc	10 813 41 is_stmt 1             @ lvgl/src/lv_widgets/lv_btnmatrix.c:813:41
	ldr	r0, [sp, #96]
	.loc	10 813 46 is_stmt 0             @ lvgl/src/lv_widgets/lv_btnmatrix.c:813:46
	str	r0, [sp, #16]                   @ 4-byte Spill
	ldr	r0, [sp, #104]
	.loc	10 813 52                       @ lvgl/src/lv_widgets/lv_btnmatrix.c:813:52
	str	r0, [sp, #20]                   @ 4-byte Spill
	ldrsh.w	r0, [sp, #102]
	.loc	10 814 30 is_stmt 1             @ lvgl/src/lv_widgets/lv_btnmatrix.c:814:30
	str	r0, [sp, #24]                   @ 4-byte Spill
	ldrsh.w	r0, [sp, #100]
	.loc	10 814 42 is_stmt 0             @ lvgl/src/lv_widgets/lv_btnmatrix.c:814:42
	str	r0, [sp, #28]                   @ 4-byte Spill
	add	r0, sp, #724
	bl	lv_area_get_width
	ldr	r1, [sp, #16]                   @ 4-byte Reload
	ldr	r2, [sp, #20]                   @ 4-byte Reload
	ldr	r3, [sp, #24]                   @ 4-byte Reload
	mov	lr, r0
	.loc	10 814 73                       @ lvgl/src/lv_widgets/lv_btnmatrix.c:814:73
	ldr	r0, [sp, #28]                   @ 4-byte Reload
	ldrb.w	r4, [sp, #707]
	.loc	10 813 13 is_stmt 1             @ lvgl/src/lv_widgets/lv_btnmatrix.c:813:13
	mov	r12, sp
	str.w	r4, [r12, #8]
	str.w	lr, [r12, #4]
	str.w	r0, [r12]
	add	r0, sp, #92
	bl	_lv_txt_get_size
	ldr	r0, [sp, #32]                   @ 4-byte Reload
	.loc	10 816 29                       @ lvgl/src/lv_widgets/lv_btnmatrix.c:816:29
	ldrsh.w	r1, [sp, #714]
	.loc	10 816 46 is_stmt 0             @ lvgl/src/lv_widgets/lv_btnmatrix.c:816:46
	ldrsh.w	r2, [sp, #92]
	.loc	10 816 35                       @ lvgl/src/lv_widgets/lv_btnmatrix.c:816:35
	subs	r1, r1, r2
	.loc	10 816 49                       @ lvgl/src/lv_widgets/lv_btnmatrix.c:816:49
	add.w	r2, r1, r1, lsr #31
	.loc	10 816 25                       @ lvgl/src/lv_widgets/lv_btnmatrix.c:816:25
	ldrh.w	r1, [sp, #716]
	add.w	r1, r1, r2, lsr #1
	strh.w	r1, [sp, #716]
	.loc	10 817 29 is_stmt 1             @ lvgl/src/lv_widgets/lv_btnmatrix.c:817:29
	ldrsh.w	r1, [sp, #712]
	.loc	10 817 46 is_stmt 0             @ lvgl/src/lv_widgets/lv_btnmatrix.c:817:46
	ldrsh.w	r2, [sp, #94]
	.loc	10 817 35                       @ lvgl/src/lv_widgets/lv_btnmatrix.c:817:35
	subs	r1, r1, r2
	.loc	10 817 49                       @ lvgl/src/lv_widgets/lv_btnmatrix.c:817:49
	add.w	r2, r1, r1, lsr #31
	.loc	10 817 25                       @ lvgl/src/lv_widgets/lv_btnmatrix.c:817:25
	ldrh.w	r1, [sp, #718]
	add.w	r1, r1, r2, lsr #1
	strh.w	r1, [sp, #718]
	.loc	10 818 27 is_stmt 1             @ lvgl/src/lv_widgets/lv_btnmatrix.c:818:27
	ldrh.w	r1, [sp, #716]
	.loc	10 818 41 is_stmt 0             @ lvgl/src/lv_widgets/lv_btnmatrix.c:818:41
	ldrh.w	r2, [sp, #92]
	.loc	10 818 39                       @ lvgl/src/lv_widgets/lv_btnmatrix.c:818:39
	add	r1, r2
	.loc	10 818 25                       @ lvgl/src/lv_widgets/lv_btnmatrix.c:818:25
	strh.w	r1, [sp, #720]
	.loc	10 819 27 is_stmt 1             @ lvgl/src/lv_widgets/lv_btnmatrix.c:819:27
	ldrh.w	r1, [sp, #718]
	.loc	10 819 41 is_stmt 0             @ lvgl/src/lv_widgets/lv_btnmatrix.c:819:41
	ldrh.w	r2, [sp, #94]
	.loc	10 819 39                       @ lvgl/src/lv_widgets/lv_btnmatrix.c:819:39
	add	r1, r2
	.loc	10 819 25                       @ lvgl/src/lv_widgets/lv_btnmatrix.c:819:25
	strh.w	r1, [sp, #722]
	.loc	10 821 38 is_stmt 1             @ lvgl/src/lv_widgets/lv_btnmatrix.c:821:38
	ldr	r1, [sp, #740]
	.loc	10 821 49 is_stmt 0             @ lvgl/src/lv_widgets/lv_btnmatrix.c:821:49
	ldr	r2, [sp, #112]
	.loc	10 821 69                       @ lvgl/src/lv_widgets/lv_btnmatrix.c:821:69
	ldr	r3, [sp, #96]
	.loc	10 821 13                       @ lvgl/src/lv_widgets/lv_btnmatrix.c:821:13
	mov	lr, sp
	mov.w	r12, #0
	str.w	r12, [lr]
	bl	lv_draw_label
	.loc	10 822 9 is_stmt 1              @ lvgl/src/lv_widgets/lv_btnmatrix.c:822:9
	b	.LBB2_56
.Ltmp313:
.LBB2_56:                               @   in Loop: Header=BB2_12 Depth=1
	.loc	10 687 51                       @ lvgl/src/lv_widgets/lv_btnmatrix.c:687:51
	ldrh.w	r0, [sp, #710]
	adds	r0, #1
	strh.w	r0, [sp, #710]
	.loc	10 687 60 is_stmt 0             @ lvgl/src/lv_widgets/lv_btnmatrix.c:687:60
	ldrh.w	r0, [sp, #708]
	adds	r0, #1
	strh.w	r0, [sp, #708]
	.loc	10 687 9                        @ lvgl/src/lv_widgets/lv_btnmatrix.c:687:9
	b	.LBB2_12
.Ltmp314:
.LBB2_57:
	.loc	10 827 5 is_stmt 1              @ lvgl/src/lv_widgets/lv_btnmatrix.c:827:5
	b	.LBB2_61
.Ltmp315:
.LBB2_58:
	.loc	10 828 13                       @ lvgl/src/lv_widgets/lv_btnmatrix.c:828:13
	ldrb.w	r0, [sp, #739]
.Ltmp316:
	.loc	10 828 13 is_stmt 0             @ lvgl/src/lv_widgets/lv_btnmatrix.c:828:13
	cmp	r0, #1
	bne	.LBB2_60
	b	.LBB2_59
.LBB2_59:
.Ltmp317:
	.loc	10 829 9 is_stmt 1              @ lvgl/src/lv_widgets/lv_btnmatrix.c:829:9
	movw	r0, :lower16:ancestor_design_f
	movt	r0, :upper16:ancestor_design_f
	ldr	r3, [r0]
	.loc	10 829 27 is_stmt 0             @ lvgl/src/lv_widgets/lv_btnmatrix.c:829:27
	ldr	r0, [sp, #744]
	.loc	10 829 33                       @ lvgl/src/lv_widgets/lv_btnmatrix.c:829:33
	ldr	r1, [sp, #740]
	.loc	10 829 44                       @ lvgl/src/lv_widgets/lv_btnmatrix.c:829:44
	ldrb.w	r2, [sp, #739]
	.loc	10 829 9                        @ lvgl/src/lv_widgets/lv_btnmatrix.c:829:9
	blx	r3
	.loc	10 830 5 is_stmt 1              @ lvgl/src/lv_widgets/lv_btnmatrix.c:830:5
	b	.LBB2_60
.Ltmp318:
.LBB2_60:
	.loc	10 0 5 is_stmt 0                @ lvgl/src/lv_widgets/lv_btnmatrix.c:0:5
	b	.LBB2_61
.LBB2_61:
	b	.LBB2_62
.LBB2_62:
	movs	r0, #0
	.loc	10 831 5 is_stmt 1              @ lvgl/src/lv_widgets/lv_btnmatrix.c:831:5
	strb.w	r0, [sp, #751]
	b	.LBB2_63
.LBB2_63:
	.loc	10 832 1                        @ lvgl/src/lv_widgets/lv_btnmatrix.c:832:1
	ldrb.w	r0, [sp, #751]
	add.w	sp, sp, #752
	pop	{r4, pc}
.Ltmp319:
.Lfunc_end2:
	.size	lv_btnmatrix_design, .Lfunc_end2-lv_btnmatrix_design
	.cfi_endproc
	.cantunwind
	.fnend
                                        @ -- End function
	.section	.text.lv_btnmatrix_set_map,"ax",%progbits
	.hidden	lv_btnmatrix_set_map            @ -- Begin function lv_btnmatrix_set_map
	.globl	lv_btnmatrix_set_map
	.p2align	3
	.type	lv_btnmatrix_set_map,%function
	.code	16                              @ @lv_btnmatrix_set_map
	.thumb_func
lv_btnmatrix_set_map:
.Lfunc_begin3:
	.loc	10 139 0                        @ lvgl/src/lv_widgets/lv_btnmatrix.c:139:0
	.fnstart
	.cfi_startproc
@ %bb.0:
	.save	{r7, lr}
	push	{r7, lr}
	.cfi_def_cfa_offset 8
	.cfi_offset lr, -4
	.cfi_offset r7, -8
	.pad	#72
	sub	sp, #72
	.cfi_def_cfa_offset 80
	str	r0, [sp, #68]
	str	r1, [sp, #64]
.Ltmp320:
	.loc	10 140 5 prologue_end           @ lvgl/src/lv_widgets/lv_btnmatrix.c:140:5
	b	.LBB3_1
.LBB3_1:
.Ltmp321:
	.loc	10 140 5 is_stmt 0              @ lvgl/src/lv_widgets/lv_btnmatrix.c:140:5
	ldr	r0, [sp, #68]
	bl	lv_debug_check_null
.Ltmp322:
	.loc	10 140 5                        @ lvgl/src/lv_widgets/lv_btnmatrix.c:140:5
	cbnz	r0, .LBB3_4
	b	.LBB3_2
.LBB3_2:
.Ltmp323:
	.loc	10 140 5                        @ lvgl/src/lv_widgets/lv_btnmatrix.c:140:5
	ldr	r2, [sp, #68]
	movw	r0, :lower16:.L.str.1
	movt	r0, :upper16:.L.str.1
	movs	r3, #0
	bl	lv_debug_log_error
	b	.LBB3_3
.LBB3_3:                                @ =>This Inner Loop Header: Depth=1
	b	.LBB3_3
.Ltmp324:
.LBB3_4:
	.loc	10 140 5                        @ lvgl/src/lv_widgets/lv_btnmatrix.c:140:5
	b	.LBB3_5
.Ltmp325:
.LBB3_5:
	.loc	10 141 5 is_stmt 1              @ lvgl/src/lv_widgets/lv_btnmatrix.c:141:5
	b	.LBB3_6
.LBB3_6:
.Ltmp326:
	.loc	10 141 5 is_stmt 0              @ lvgl/src/lv_widgets/lv_btnmatrix.c:141:5
	ldr	r0, [sp, #64]
	bl	lv_debug_check_null
.Ltmp327:
	.loc	10 141 5                        @ lvgl/src/lv_widgets/lv_btnmatrix.c:141:5
	cbnz	r0, .LBB3_9
	b	.LBB3_7
.LBB3_7:
.Ltmp328:
	.loc	10 141 5                        @ lvgl/src/lv_widgets/lv_btnmatrix.c:141:5
	ldr	r2, [sp, #64]
	movw	r0, :lower16:.L.str.1
	movt	r0, :upper16:.L.str.1
	movs	r3, #0
	bl	lv_debug_log_error
	b	.LBB3_8
.LBB3_8:                                @ =>This Inner Loop Header: Depth=1
	b	.LBB3_8
.Ltmp329:
.LBB3_9:
	.loc	10 141 5                        @ lvgl/src/lv_widgets/lv_btnmatrix.c:141:5
	b	.LBB3_10
.Ltmp330:
.LBB3_10:
	.loc	10 154 52 is_stmt 1             @ lvgl/src/lv_widgets/lv_btnmatrix.c:154:52
	ldr	r0, [sp, #68]
	.loc	10 154 32 is_stmt 0             @ lvgl/src/lv_widgets/lv_btnmatrix.c:154:32
	bl	lv_obj_get_ext_attr
	.loc	10 154 26                       @ lvgl/src/lv_widgets/lv_btnmatrix.c:154:26
	str	r0, [sp, #60]
	.loc	10 157 37 is_stmt 1             @ lvgl/src/lv_widgets/lv_btnmatrix.c:157:37
	ldr	r0, [sp, #68]
	.loc	10 157 43 is_stmt 0             @ lvgl/src/lv_widgets/lv_btnmatrix.c:157:43
	ldr	r1, [sp, #64]
	.loc	10 157 5                        @ lvgl/src/lv_widgets/lv_btnmatrix.c:157:5
	bl	allocate_btn_areas_and_controls
	.loc	10 158 18 is_stmt 1             @ lvgl/src/lv_widgets/lv_btnmatrix.c:158:18
	ldr	r0, [sp, #64]
	.loc	10 158 5 is_stmt 0              @ lvgl/src/lv_widgets/lv_btnmatrix.c:158:5
	ldr	r1, [sp, #60]
	.loc	10 158 16                       @ lvgl/src/lv_widgets/lv_btnmatrix.c:158:16
	str	r0, [r1]
	.loc	10 161 53 is_stmt 1             @ lvgl/src/lv_widgets/lv_btnmatrix.c:161:53
	ldr	r0, [sp, #68]
	movs	r1, #0
	.loc	10 161 27 is_stmt 0             @ lvgl/src/lv_widgets/lv_btnmatrix.c:161:27
	str	r1, [sp, #8]                    @ 4-byte Spill
	bl	lv_obj_get_style_pad_left
	ldr	r1, [sp, #8]                    @ 4-byte Reload
	.loc	10 161 20                       @ lvgl/src/lv_widgets/lv_btnmatrix.c:161:20
	strh.w	r0, [sp, #58]
	.loc	10 162 55 is_stmt 1             @ lvgl/src/lv_widgets/lv_btnmatrix.c:162:55
	ldr	r0, [sp, #68]
	.loc	10 162 28 is_stmt 0             @ lvgl/src/lv_widgets/lv_btnmatrix.c:162:28
	bl	lv_obj_get_style_pad_right
	ldr	r1, [sp, #8]                    @ 4-byte Reload
	.loc	10 162 20                       @ lvgl/src/lv_widgets/lv_btnmatrix.c:162:20
	strh.w	r0, [sp, #56]
	.loc	10 163 51 is_stmt 1             @ lvgl/src/lv_widgets/lv_btnmatrix.c:163:51
	ldr	r0, [sp, #68]
	.loc	10 163 26 is_stmt 0             @ lvgl/src/lv_widgets/lv_btnmatrix.c:163:26
	bl	lv_obj_get_style_pad_top
	ldr	r1, [sp, #8]                    @ 4-byte Reload
	.loc	10 163 20                       @ lvgl/src/lv_widgets/lv_btnmatrix.c:163:20
	strh.w	r0, [sp, #54]
	.loc	10 164 57 is_stmt 1             @ lvgl/src/lv_widgets/lv_btnmatrix.c:164:57
	ldr	r0, [sp, #68]
	.loc	10 164 29 is_stmt 0             @ lvgl/src/lv_widgets/lv_btnmatrix.c:164:29
	bl	lv_obj_get_style_pad_bottom
	ldr	r1, [sp, #8]                    @ 4-byte Reload
	.loc	10 164 20                       @ lvgl/src/lv_widgets/lv_btnmatrix.c:164:20
	strh.w	r0, [sp, #52]
	.loc	10 165 55 is_stmt 1             @ lvgl/src/lv_widgets/lv_btnmatrix.c:165:55
	ldr	r0, [sp, #68]
	.loc	10 165 28 is_stmt 0             @ lvgl/src/lv_widgets/lv_btnmatrix.c:165:28
	bl	lv_obj_get_style_pad_inner
	.loc	10 165 20                       @ lvgl/src/lv_widgets/lv_btnmatrix.c:165:20
	strh.w	r0, [sp, #50]
	.loc	10 167 52 is_stmt 1             @ lvgl/src/lv_widgets/lv_btnmatrix.c:167:52
	ldr	r0, [sp, #68]
	.loc	10 167 35 is_stmt 0             @ lvgl/src/lv_widgets/lv_btnmatrix.c:167:35
	bl	lv_obj_get_width
	.loc	10 167 60                       @ lvgl/src/lv_widgets/lv_btnmatrix.c:167:60
	ldrh.w	r1, [sp, #58]
	.loc	10 167 58                       @ lvgl/src/lv_widgets/lv_btnmatrix.c:167:58
	subs	r0, r0, r1
	.loc	10 167 67                       @ lvgl/src/lv_widgets/lv_btnmatrix.c:167:67
	ldrh.w	r1, [sp, #56]
	.loc	10 167 65                       @ lvgl/src/lv_widgets/lv_btnmatrix.c:167:65
	subs	r0, r0, r1
	.loc	10 167 16                       @ lvgl/src/lv_widgets/lv_btnmatrix.c:167:16
	strh.w	r0, [sp, #48]
	.loc	10 168 53 is_stmt 1             @ lvgl/src/lv_widgets/lv_btnmatrix.c:168:53
	ldr	r0, [sp, #68]
	.loc	10 168 35 is_stmt 0             @ lvgl/src/lv_widgets/lv_btnmatrix.c:168:35
	bl	lv_obj_get_height
	mov	r1, r0
	.loc	10 168 61                       @ lvgl/src/lv_widgets/lv_btnmatrix.c:168:61
	ldr	r0, [sp, #8]                    @ 4-byte Reload
	ldrh.w	r2, [sp, #54]
	.loc	10 168 59                       @ lvgl/src/lv_widgets/lv_btnmatrix.c:168:59
	subs	r1, r1, r2
	.loc	10 168 67                       @ lvgl/src/lv_widgets/lv_btnmatrix.c:168:67
	ldrh.w	r2, [sp, #52]
	.loc	10 168 65                       @ lvgl/src/lv_widgets/lv_btnmatrix.c:168:65
	subs	r1, r1, r2
	.loc	10 168 16                       @ lvgl/src/lv_widgets/lv_btnmatrix.c:168:16
	strh.w	r1, [sp, #46]
	.loc	10 169 35 is_stmt 1             @ lvgl/src/lv_widgets/lv_btnmatrix.c:169:35
	ldrh.w	r1, [sp, #54]
	.loc	10 169 16 is_stmt 0             @ lvgl/src/lv_widgets/lv_btnmatrix.c:169:16
	strh.w	r1, [sp, #44]
	movs	r1, #1
	.loc	10 172 13 is_stmt 1             @ lvgl/src/lv_widgets/lv_btnmatrix.c:172:13
	strb.w	r1, [sp, #43]
.Ltmp331:
	.loc	10 174 12                       @ lvgl/src/lv_widgets/lv_btnmatrix.c:174:12
	strb.w	r0, [sp, #42]
	.loc	10 174 9 is_stmt 0              @ lvgl/src/lv_widgets/lv_btnmatrix.c:174:9
	b	.LBB3_11
.LBB3_11:                               @ =>This Inner Loop Header: Depth=1
.Ltmp332:
	.loc	10 174 24                       @ lvgl/src/lv_widgets/lv_btnmatrix.c:174:24
	ldr	r0, [sp, #64]
	.loc	10 174 28                       @ lvgl/src/lv_widgets/lv_btnmatrix.c:174:28
	ldrb.w	r1, [sp, #42]
	.loc	10 174 24                       @ lvgl/src/lv_widgets/lv_btnmatrix.c:174:24
	ldr.w	r0, [r0, r1, lsl #2]
	.loc	10 174 17                       @ lvgl/src/lv_widgets/lv_btnmatrix.c:174:17
	bl	strlen
.Ltmp333:
	.loc	10 174 5                        @ lvgl/src/lv_widgets/lv_btnmatrix.c:174:5
	cbz	r0, .LBB3_16
	b	.LBB3_12
.LBB3_12:                               @   in Loop: Header=BB3_11 Depth=1
.Ltmp334:
	.loc	10 175 19 is_stmt 1             @ lvgl/src/lv_widgets/lv_btnmatrix.c:175:19
	ldr	r0, [sp, #64]
	.loc	10 175 23 is_stmt 0             @ lvgl/src/lv_widgets/lv_btnmatrix.c:175:23
	ldrb.w	r1, [sp, #42]
	.loc	10 175 19                       @ lvgl/src/lv_widgets/lv_btnmatrix.c:175:19
	ldr.w	r0, [r0, r1, lsl #2]
	.loc	10 175 12                       @ lvgl/src/lv_widgets/lv_btnmatrix.c:175:12
	movw	r1, :lower16:.L.str.2
	movt	r1, :upper16:.L.str.2
	bl	strcmp
.Ltmp335:
	.loc	10 175 12                       @ lvgl/src/lv_widgets/lv_btnmatrix.c:175:12
	cbnz	r0, .LBB3_14
	b	.LBB3_13
.LBB3_13:                               @   in Loop: Header=BB3_11 Depth=1
.Ltmp336:
	.loc	10 175 48                       @ lvgl/src/lv_widgets/lv_btnmatrix.c:175:48
	ldrb.w	r0, [sp, #43]
	adds	r0, #1
	strb.w	r0, [sp, #43]
	.loc	10 175 40                       @ lvgl/src/lv_widgets/lv_btnmatrix.c:175:40
	b	.LBB3_14
.Ltmp337:
.LBB3_14:                               @   in Loop: Header=BB3_11 Depth=1
	.loc	10 176 5 is_stmt 1              @ lvgl/src/lv_widgets/lv_btnmatrix.c:176:5
	b	.LBB3_15
.Ltmp338:
.LBB3_15:                               @   in Loop: Header=BB3_11 Depth=1
	.loc	10 174 41                       @ lvgl/src/lv_widgets/lv_btnmatrix.c:174:41
	ldrb.w	r0, [sp, #42]
	adds	r0, #1
	strb.w	r0, [sp, #42]
	.loc	10 174 5 is_stmt 0              @ lvgl/src/lv_widgets/lv_btnmatrix.c:174:5
	b	.LBB3_11
.Ltmp339:
.LBB3_16:
	.loc	10 178 24 is_stmt 1             @ lvgl/src/lv_widgets/lv_btnmatrix.c:178:24
	ldrh.w	r2, [sp, #46]
	.loc	10 178 34 is_stmt 0             @ lvgl/src/lv_widgets/lv_btnmatrix.c:178:34
	ldrb.w	r0, [sp, #43]
	.loc	10 178 43                       @ lvgl/src/lv_widgets/lv_btnmatrix.c:178:43
	subs	r0, #1
	.loc	10 178 50                       @ lvgl/src/lv_widgets/lv_btnmatrix.c:178:50
	ldrh.w	r1, [sp, #50]
	.loc	10 178 30                       @ lvgl/src/lv_widgets/lv_btnmatrix.c:178:30
	mls	r0, r0, r1, r2
	.loc	10 178 16                       @ lvgl/src/lv_widgets/lv_btnmatrix.c:178:16
	strh.w	r0, [sp, #40]
	.loc	10 179 25 is_stmt 1             @ lvgl/src/lv_widgets/lv_btnmatrix.c:179:25
	ldrsh.w	r0, [sp, #40]
	.loc	10 179 33 is_stmt 0             @ lvgl/src/lv_widgets/lv_btnmatrix.c:179:33
	ldrb.w	r1, [sp, #43]
	.loc	10 179 31                       @ lvgl/src/lv_widgets/lv_btnmatrix.c:179:31
	add.w	r0, r0, r1, lsr #1
	.loc	10 179 47                       @ lvgl/src/lv_widgets/lv_btnmatrix.c:179:47
	sdiv	r0, r0, r1
	.loc	10 179 22                       @ lvgl/src/lv_widgets/lv_btnmatrix.c:179:22
	strh.w	r0, [sp, #40]
	.loc	10 180 10 is_stmt 1             @ lvgl/src/lv_widgets/lv_btnmatrix.c:180:10
	ldrh.w	r0, [sp, #40]
	subs	r0, #1
	strh.w	r0, [sp, #40]
	movs	r0, #0
	.loc	10 185 14                       @ lvgl/src/lv_widgets/lv_btnmatrix.c:185:14
	strh.w	r0, [sp, #36]
	.loc	10 186 14                       @ lvgl/src/lv_widgets/lv_btnmatrix.c:186:14
	strh.w	r0, [sp, #34]
	.loc	10 187 31                       @ lvgl/src/lv_widgets/lv_btnmatrix.c:187:31
	ldr	r0, [sp, #64]
	.loc	10 187 19 is_stmt 0             @ lvgl/src/lv_widgets/lv_btnmatrix.c:187:19
	str	r0, [sp, #28]
	.loc	10 190 5 is_stmt 1              @ lvgl/src/lv_widgets/lv_btnmatrix.c:190:5
	b	.LBB3_17
.LBB3_17:                               @ =>This Loop Header: Depth=1
                                        @     Child Loop BB3_18 Depth 2
                                        @     Child Loop BB3_26 Depth 2
	.loc	10 0 5 is_stmt 0                @ lvgl/src/lv_widgets/lv_btnmatrix.c:0:5
	movs	r0, #0
.Ltmp340:
	.loc	10 191 18 is_stmt 1             @ lvgl/src/lv_widgets/lv_btnmatrix.c:191:18
	strh.w	r0, [sp, #26]
	.loc	10 192 18                       @ lvgl/src/lv_widgets/lv_btnmatrix.c:192:18
	strh.w	r0, [sp, #24]
	.loc	10 194 9                        @ lvgl/src/lv_widgets/lv_btnmatrix.c:194:9
	b	.LBB3_18
.LBB3_18:                               @   Parent Loop BB3_17 Depth=1
                                        @ =>  This Inner Loop Header: Depth=2
	.loc	10 194 22 is_stmt 0             @ lvgl/src/lv_widgets/lv_btnmatrix.c:194:22
	ldr	r0, [sp, #28]
	.loc	10 194 32                       @ lvgl/src/lv_widgets/lv_btnmatrix.c:194:32
	ldrh.w	r1, [sp, #24]
	.loc	10 194 22                       @ lvgl/src/lv_widgets/lv_btnmatrix.c:194:22
	ldr.w	r0, [r0, r1, lsl #2]
	.loc	10 194 15                       @ lvgl/src/lv_widgets/lv_btnmatrix.c:194:15
	movw	r1, :lower16:.L.str.2
	movt	r1, :upper16:.L.str.2
	bl	strcmp
	mov	r1, r0
	movs	r0, #0
	.loc	10 194 53                       @ lvgl/src/lv_widgets/lv_btnmatrix.c:194:53
	str	r0, [sp, #4]                    @ 4-byte Spill
	cbz	r1, .LBB3_20
	b	.LBB3_19
.LBB3_19:                               @   in Loop: Header=BB3_18 Depth=2
	.loc	10 194 63                       @ lvgl/src/lv_widgets/lv_btnmatrix.c:194:63
	ldr	r0, [sp, #28]
	.loc	10 194 73                       @ lvgl/src/lv_widgets/lv_btnmatrix.c:194:73
	ldrh.w	r1, [sp, #24]
	.loc	10 194 63                       @ lvgl/src/lv_widgets/lv_btnmatrix.c:194:63
	ldr.w	r0, [r0, r1, lsl #2]
	.loc	10 194 56                       @ lvgl/src/lv_widgets/lv_btnmatrix.c:194:56
	bl	strlen
	.loc	10 194 83                       @ lvgl/src/lv_widgets/lv_btnmatrix.c:194:83
	cmp	r0, #0
	it	ne
	movne	r0, #1
	str	r0, [sp, #4]                    @ 4-byte Spill
	b	.LBB3_20
.LBB3_20:                               @   in Loop: Header=BB3_18 Depth=2
	.loc	10 0 0                          @ lvgl/src/lv_widgets/lv_btnmatrix.c:0:0
	ldr	r0, [sp, #4]                    @ 4-byte Reload
	.loc	10 194 9                        @ lvgl/src/lv_widgets/lv_btnmatrix.c:194:9
	lsls	r0, r0, #31
	cbz	r0, .LBB3_22
	b	.LBB3_21
.LBB3_21:                               @   in Loop: Header=BB3_18 Depth=2
.Ltmp341:
	.loc	10 195 42 is_stmt 1             @ lvgl/src/lv_widgets/lv_btnmatrix.c:195:42
	ldr	r0, [sp, #60]
	.loc	10 195 47 is_stmt 0             @ lvgl/src/lv_widgets/lv_btnmatrix.c:195:47
	ldr	r0, [r0, #8]
	.loc	10 195 57                       @ lvgl/src/lv_widgets/lv_btnmatrix.c:195:57
	ldrh.w	r1, [sp, #34]
	.loc	10 195 65                       @ lvgl/src/lv_widgets/lv_btnmatrix.c:195:65
	ldrh.w	r2, [sp, #24]
	.loc	10 195 63                       @ lvgl/src/lv_widgets/lv_btnmatrix.c:195:63
	add	r1, r2
	.loc	10 195 42                       @ lvgl/src/lv_widgets/lv_btnmatrix.c:195:42
	ldrh.w	r0, [r0, r1, lsl #1]
	.loc	10 195 25                       @ lvgl/src/lv_widgets/lv_btnmatrix.c:195:25
	bl	get_button_width
	mov	r1, r0
	.loc	10 195 22                       @ lvgl/src/lv_widgets/lv_btnmatrix.c:195:22
	ldrh.w	r0, [sp, #26]
	add	r0, r1
	strh.w	r0, [sp, #26]
	.loc	10 196 20 is_stmt 1             @ lvgl/src/lv_widgets/lv_btnmatrix.c:196:20
	ldrh.w	r0, [sp, #24]
	adds	r0, #1
	strh.w	r0, [sp, #24]
.Ltmp342:
	.loc	10 194 9                        @ lvgl/src/lv_widgets/lv_btnmatrix.c:194:9
	b	.LBB3_18
.LBB3_22:                               @   in Loop: Header=BB3_17 Depth=1
.Ltmp343:
	.loc	10 200 12                       @ lvgl/src/lv_widgets/lv_btnmatrix.c:200:12
	ldr	r0, [sp, #28]
	.loc	10 200 22 is_stmt 0             @ lvgl/src/lv_widgets/lv_btnmatrix.c:200:22
	ldrh.w	r1, [sp, #24]
	.loc	10 200 12                       @ lvgl/src/lv_widgets/lv_btnmatrix.c:200:12
	ldr.w	r0, [r0, r1, lsl #2]
	ldrsb.w	r0, [r0]
.Ltmp344:
	.loc	10 200 12                       @ lvgl/src/lv_widgets/lv_btnmatrix.c:200:12
	cbnz	r0, .LBB3_24
	b	.LBB3_23
.LBB3_23:                               @   in Loop: Header=BB3_17 Depth=1
.Ltmp345:
	.loc	10 201 39 is_stmt 1             @ lvgl/src/lv_widgets/lv_btnmatrix.c:201:39
	ldr	r0, [sp, #68]
	.loc	10 201 21 is_stmt 0             @ lvgl/src/lv_widgets/lv_btnmatrix.c:201:21
	bl	lv_obj_get_height
	.loc	10 201 47                       @ lvgl/src/lv_widgets/lv_btnmatrix.c:201:47
	ldrh.w	r1, [sp, #44]
	.loc	10 201 45                       @ lvgl/src/lv_widgets/lv_btnmatrix.c:201:45
	subs	r1, r0, r1
	.loc	10 201 55                       @ lvgl/src/lv_widgets/lv_btnmatrix.c:201:55
	ldrh.w	r0, [sp, #52]
	.loc	10 201 62                       @ lvgl/src/lv_widgets/lv_btnmatrix.c:201:62
	mvns	r0, r0
	add	r0, r1
	.loc	10 201 19                       @ lvgl/src/lv_widgets/lv_btnmatrix.c:201:19
	strh.w	r0, [sp, #40]
	.loc	10 202 9 is_stmt 1              @ lvgl/src/lv_widgets/lv_btnmatrix.c:202:9
	b	.LBB3_24
.Ltmp346:
.LBB3_24:                               @   in Loop: Header=BB3_17 Depth=1
	.loc	10 204 54                       @ lvgl/src/lv_widgets/lv_btnmatrix.c:204:54
	ldr	r0, [sp, #68]
	.loc	10 204 34 is_stmt 0             @ lvgl/src/lv_widgets/lv_btnmatrix.c:204:34
	bl	lv_obj_get_base_dir
	.loc	10 204 23                       @ lvgl/src/lv_widgets/lv_btnmatrix.c:204:23
	strb.w	r0, [sp, #23]
.Ltmp347:
	.loc	10 207 12 is_stmt 1             @ lvgl/src/lv_widgets/lv_btnmatrix.c:207:12
	ldrh.w	r0, [sp, #24]
.Ltmp348:
	.loc	10 207 12 is_stmt 0             @ lvgl/src/lv_widgets/lv_btnmatrix.c:207:12
	cmp	r0, #0
	beq.w	.LBB3_41
	b	.LBB3_25
.LBB3_25:                               @   in Loop: Header=BB3_17 Depth=1
.Ltmp349:
	.loc	10 209 37 is_stmt 1             @ lvgl/src/lv_widgets/lv_btnmatrix.c:209:37
	ldrh.w	r2, [sp, #48]
	.loc	10 209 47 is_stmt 0             @ lvgl/src/lv_widgets/lv_btnmatrix.c:209:47
	ldrh.w	r0, [sp, #26]
	.loc	10 209 56                       @ lvgl/src/lv_widgets/lv_btnmatrix.c:209:56
	subs	r0, #1
	.loc	10 209 63                       @ lvgl/src/lv_widgets/lv_btnmatrix.c:209:63
	ldrh.w	r1, [sp, #50]
	.loc	10 209 43                       @ lvgl/src/lv_widgets/lv_btnmatrix.c:209:43
	mls	r0, r0, r1, r2
	.loc	10 209 24                       @ lvgl/src/lv_widgets/lv_btnmatrix.c:209:24
	strh.w	r0, [sp, #20]
	movs	r0, #0
	.loc	10 215 26 is_stmt 1             @ lvgl/src/lv_widgets/lv_btnmatrix.c:215:26
	strh.w	r0, [sp, #38]
.Ltmp350:
	.loc	10 216 19                       @ lvgl/src/lv_widgets/lv_btnmatrix.c:216:19
	strh.w	r0, [sp, #18]
	.loc	10 216 17 is_stmt 0             @ lvgl/src/lv_widgets/lv_btnmatrix.c:216:17
	b	.LBB3_26
.LBB3_26:                               @   Parent Loop BB3_17 Depth=1
                                        @ =>  This Inner Loop Header: Depth=2
.Ltmp351:
	.loc	10 216 24                       @ lvgl/src/lv_widgets/lv_btnmatrix.c:216:24
	ldrh.w	r0, [sp, #18]
	.loc	10 216 28                       @ lvgl/src/lv_widgets/lv_btnmatrix.c:216:28
	ldrh.w	r1, [sp, #24]
.Ltmp352:
	.loc	10 216 13                       @ lvgl/src/lv_widgets/lv_btnmatrix.c:216:13
	cmp	r0, r1
	bge.w	.LBB3_40
	b	.LBB3_27
.LBB3_27:                               @   in Loop: Header=BB3_26 Depth=2
.Ltmp353:
	.loc	10 217 55 is_stmt 1             @ lvgl/src/lv_widgets/lv_btnmatrix.c:217:55
	ldr	r0, [sp, #60]
	.loc	10 217 60 is_stmt 0             @ lvgl/src/lv_widgets/lv_btnmatrix.c:217:60
	ldr	r0, [r0, #8]
	.loc	10 217 70                       @ lvgl/src/lv_widgets/lv_btnmatrix.c:217:70
	ldrh.w	r1, [sp, #34]
	.loc	10 217 55                       @ lvgl/src/lv_widgets/lv_btnmatrix.c:217:55
	ldrh.w	r0, [r0, r1, lsl #1]
	.loc	10 217 38                       @ lvgl/src/lv_widgets/lv_btnmatrix.c:217:38
	bl	get_button_width
	.loc	10 217 25                       @ lvgl/src/lv_widgets/lv_btnmatrix.c:217:25
	strb.w	r0, [sp, #15]
	.loc	10 221 42 is_stmt 1             @ lvgl/src/lv_widgets/lv_btnmatrix.c:221:42
	ldrsh.w	r0, [sp, #20]
	.loc	10 221 55 is_stmt 0             @ lvgl/src/lv_widgets/lv_btnmatrix.c:221:55
	ldrb.w	r1, [sp, #15]
	.loc	10 221 53                       @ lvgl/src/lv_widgets/lv_btnmatrix.c:221:53
	muls	r0, r1, r0
	.loc	10 221 69                       @ lvgl/src/lv_widgets/lv_btnmatrix.c:221:69
	ldrh.w	r2, [sp, #26]
	.loc	10 221 67                       @ lvgl/src/lv_widgets/lv_btnmatrix.c:221:67
	sdiv	r2, r0, r2
	.loc	10 221 80                       @ lvgl/src/lv_widgets/lv_btnmatrix.c:221:80
	ldrh.w	r0, [sp, #50]
	.loc	10 221 100                      @ lvgl/src/lv_widgets/lv_btnmatrix.c:221:100
	subs	r1, #1
	.loc	10 221 78                       @ lvgl/src/lv_widgets/lv_btnmatrix.c:221:78
	mla	r0, r0, r1, r2
	.loc	10 221 28                       @ lvgl/src/lv_widgets/lv_btnmatrix.c:221:28
	strh.w	r0, [sp, #12]
	.loc	10 222 27 is_stmt 1             @ lvgl/src/lv_widgets/lv_btnmatrix.c:222:27
	ldrh.w	r0, [sp, #12]
	subs	r0, #1
	strh.w	r0, [sp, #12]
.Ltmp354:
	.loc	10 225 20                       @ lvgl/src/lv_widgets/lv_btnmatrix.c:225:20
	ldrb.w	r0, [sp, #23]
.Ltmp355:
	.loc	10 225 20 is_stmt 0             @ lvgl/src/lv_widgets/lv_btnmatrix.c:225:20
	cmp	r0, #1
	bne	.LBB3_29
	b	.LBB3_28
.LBB3_28:                               @   in Loop: Header=BB3_26 Depth=2
.Ltmp356:
	.loc	10 226 30 is_stmt 1             @ lvgl/src/lv_widgets/lv_btnmatrix.c:226:30
	ldrh.w	r0, [sp, #38]
	.loc	10 226 45 is_stmt 0             @ lvgl/src/lv_widgets/lv_btnmatrix.c:226:45
	ldrsh.w	r1, [sp, #20]
	.loc	10 226 43                       @ lvgl/src/lv_widgets/lv_btnmatrix.c:226:43
	muls	r1, r0, r1
	.loc	10 226 59                       @ lvgl/src/lv_widgets/lv_btnmatrix.c:226:59
	ldrh.w	r2, [sp, #26]
	.loc	10 226 57                       @ lvgl/src/lv_widgets/lv_btnmatrix.c:226:57
	sdiv	r2, r1, r2
	.loc	10 226 85                       @ lvgl/src/lv_widgets/lv_btnmatrix.c:226:85
	ldrh.w	r1, [sp, #50]
	.loc	10 226 68                       @ lvgl/src/lv_widgets/lv_btnmatrix.c:226:68
	mla	r0, r0, r1, r2
	.loc	10 226 27                       @ lvgl/src/lv_widgets/lv_btnmatrix.c:226:27
	strh.w	r0, [sp, #16]
	.loc	10 227 46 is_stmt 1             @ lvgl/src/lv_widgets/lv_btnmatrix.c:227:46
	ldr	r0, [sp, #68]
	.loc	10 227 29 is_stmt 0             @ lvgl/src/lv_widgets/lv_btnmatrix.c:227:29
	bl	lv_obj_get_width
	.loc	10 227 54                       @ lvgl/src/lv_widgets/lv_btnmatrix.c:227:54
	ldrh.w	r1, [sp, #56]
	.loc	10 227 52                       @ lvgl/src/lv_widgets/lv_btnmatrix.c:227:52
	subs	r0, r0, r1
	.loc	10 227 62                       @ lvgl/src/lv_widgets/lv_btnmatrix.c:227:62
	ldrh.w	r1, [sp, #16]
	.loc	10 227 60                       @ lvgl/src/lv_widgets/lv_btnmatrix.c:227:60
	subs	r1, r0, r1
	.loc	10 227 70                       @ lvgl/src/lv_widgets/lv_btnmatrix.c:227:70
	ldrh.w	r0, [sp, #12]
	.loc	10 227 81                       @ lvgl/src/lv_widgets/lv_btnmatrix.c:227:81
	mvns	r0, r0
	add	r0, r1
	.loc	10 227 27                       @ lvgl/src/lv_widgets/lv_btnmatrix.c:227:27
	strh.w	r0, [sp, #16]
	.loc	10 228 17 is_stmt 1             @ lvgl/src/lv_widgets/lv_btnmatrix.c:228:17
	b	.LBB3_30
.Ltmp357:
.LBB3_29:                               @   in Loop: Header=BB3_26 Depth=2
	.loc	10 230 30                       @ lvgl/src/lv_widgets/lv_btnmatrix.c:230:30
	ldrh.w	r0, [sp, #38]
	.loc	10 230 45 is_stmt 0             @ lvgl/src/lv_widgets/lv_btnmatrix.c:230:45
	ldrsh.w	r1, [sp, #20]
	.loc	10 230 43                       @ lvgl/src/lv_widgets/lv_btnmatrix.c:230:43
	muls	r1, r0, r1
	.loc	10 230 59                       @ lvgl/src/lv_widgets/lv_btnmatrix.c:230:59
	ldrh.w	r2, [sp, #26]
	.loc	10 230 57                       @ lvgl/src/lv_widgets/lv_btnmatrix.c:230:57
	sdiv	r2, r1, r2
	.loc	10 230 85                       @ lvgl/src/lv_widgets/lv_btnmatrix.c:230:85
	ldrh.w	r1, [sp, #50]
	.loc	10 230 68                       @ lvgl/src/lv_widgets/lv_btnmatrix.c:230:68
	mla	r0, r0, r1, r2
	.loc	10 231 29 is_stmt 1             @ lvgl/src/lv_widgets/lv_btnmatrix.c:231:29
	ldrh.w	r1, [sp, #58]
	.loc	10 230 91                       @ lvgl/src/lv_widgets/lv_btnmatrix.c:230:91
	add	r0, r1
	.loc	10 230 27 is_stmt 0             @ lvgl/src/lv_widgets/lv_btnmatrix.c:230:27
	strh.w	r0, [sp, #16]
	b	.LBB3_30
.Ltmp358:
.LBB3_30:                               @   in Loop: Header=BB3_26 Depth=2
	.loc	10 236 20 is_stmt 1             @ lvgl/src/lv_widgets/lv_btnmatrix.c:236:20
	ldrh.w	r0, [sp, #34]
	.loc	10 236 31 is_stmt 0             @ lvgl/src/lv_widgets/lv_btnmatrix.c:236:31
	cbz	r0, .LBB3_37
	b	.LBB3_31
.LBB3_31:                               @   in Loop: Header=BB3_26 Depth=2
	.loc	10 236 34                       @ lvgl/src/lv_widgets/lv_btnmatrix.c:236:34
	ldrsh.w	r0, [sp, #50]
	.loc	10 236 45                       @ lvgl/src/lv_widgets/lv_btnmatrix.c:236:45
	cbnz	r0, .LBB3_37
	b	.LBB3_32
.LBB3_32:                               @   in Loop: Header=BB3_26 Depth=2
	.loc	10 236 50                       @ lvgl/src/lv_widgets/lv_btnmatrix.c:236:50
	ldrsh.w	r0, [sp, #16]
	.loc	10 236 59                       @ lvgl/src/lv_widgets/lv_btnmatrix.c:236:59
	ldrsh.w	r1, [sp, #58]
	.loc	10 236 64                       @ lvgl/src/lv_widgets/lv_btnmatrix.c:236:64
	cmp	r0, r1
	beq	.LBB3_34
	b	.LBB3_33
.LBB3_33:                               @   in Loop: Header=BB3_26 Depth=2
	.loc	10 236 67                       @ lvgl/src/lv_widgets/lv_btnmatrix.c:236:67
	ldrb.w	r0, [sp, #23]
	.loc	10 236 96                       @ lvgl/src/lv_widgets/lv_btnmatrix.c:236:96
	cmp	r0, #1
	bne	.LBB3_36
	b	.LBB3_34
.LBB3_34:                               @   in Loop: Header=BB3_26 Depth=2
	.loc	10 237 50 is_stmt 1             @ lvgl/src/lv_widgets/lv_btnmatrix.c:237:50
	ldrsh.w	r0, [sp, #16]
	.loc	10 237 58 is_stmt 0             @ lvgl/src/lv_widgets/lv_btnmatrix.c:237:58
	ldrsh.w	r1, [sp, #12]
	.loc	10 237 56                       @ lvgl/src/lv_widgets/lv_btnmatrix.c:237:56
	add	r0, r1
	.loc	10 237 72                       @ lvgl/src/lv_widgets/lv_btnmatrix.c:237:72
	ldrsh.w	r1, [sp, #48]
	.loc	10 237 80                       @ lvgl/src/lv_widgets/lv_btnmatrix.c:237:80
	ldrsh.w	r2, [sp, #56]
	.loc	10 237 78                       @ lvgl/src/lv_widgets/lv_btnmatrix.c:237:78
	subs	r1, r1, r2
	.loc	10 237 86                       @ lvgl/src/lv_widgets/lv_btnmatrix.c:237:86
	cmp	r0, r1
	bne	.LBB3_37
	b	.LBB3_35
.LBB3_35:                               @   in Loop: Header=BB3_26 Depth=2
	.loc	10 237 89                       @ lvgl/src/lv_widgets/lv_btnmatrix.c:237:89
	ldrb.w	r0, [sp, #23]
.Ltmp359:
	.loc	10 236 20 is_stmt 1             @ lvgl/src/lv_widgets/lv_btnmatrix.c:236:20
	cmp	r0, #1
	bne	.LBB3_37
	b	.LBB3_36
.LBB3_36:                               @   in Loop: Header=BB3_26 Depth=2
.Ltmp360:
	.loc	10 238 34                       @ lvgl/src/lv_widgets/lv_btnmatrix.c:238:34
	ldr	r0, [sp, #60]
	.loc	10 238 39 is_stmt 0             @ lvgl/src/lv_widgets/lv_btnmatrix.c:238:39
	ldr	r0, [r0, #4]
	.loc	10 238 52                       @ lvgl/src/lv_widgets/lv_btnmatrix.c:238:52
	ldrh.w	r1, [sp, #34]
	.loc	10 238 34                       @ lvgl/src/lv_widgets/lv_btnmatrix.c:238:34
	add.w	r0, r0, r1, lsl #3
	.loc	10 238 89                       @ lvgl/src/lv_widgets/lv_btnmatrix.c:238:89
	ldrsh	r1, [r0, #-4]
	.loc	10 238 93                       @ lvgl/src/lv_widgets/lv_btnmatrix.c:238:93
	ldrsh.w	r2, [sp, #44]
	.loc	10 238 100                      @ lvgl/src/lv_widgets/lv_btnmatrix.c:238:100
	ldrh.w	r3, [sp, #16]
	.loc	10 238 108                      @ lvgl/src/lv_widgets/lv_btnmatrix.c:238:108
	ldrh.w	r12, [sp, #12]
	.loc	10 238 106                      @ lvgl/src/lv_widgets/lv_btnmatrix.c:238:106
	add	r3, r12
	.loc	10 239 41 is_stmt 1             @ lvgl/src/lv_widgets/lv_btnmatrix.c:239:41
	ldrh.w	r12, [sp, #40]
	.loc	10 239 39 is_stmt 0             @ lvgl/src/lv_widgets/lv_btnmatrix.c:239:39
	add	r12, r2
	.loc	10 238 21 is_stmt 1             @ lvgl/src/lv_widgets/lv_btnmatrix.c:238:21
	sxth.w	r12, r12
	mov	lr, sp
	str.w	r12, [lr]
	sxth	r3, r3
	bl	lv_area_set
	.loc	10 240 17                       @ lvgl/src/lv_widgets/lv_btnmatrix.c:240:17
	b	.LBB3_38
.Ltmp361:
.LBB3_37:                               @   in Loop: Header=BB3_26 Depth=2
	.loc	10 242 34                       @ lvgl/src/lv_widgets/lv_btnmatrix.c:242:34
	ldr	r0, [sp, #60]
	.loc	10 242 39 is_stmt 0             @ lvgl/src/lv_widgets/lv_btnmatrix.c:242:39
	ldr	r0, [r0, #4]
	.loc	10 242 52                       @ lvgl/src/lv_widgets/lv_btnmatrix.c:242:52
	ldrh.w	r1, [sp, #34]
	.loc	10 242 34                       @ lvgl/src/lv_widgets/lv_btnmatrix.c:242:34
	add.w	r0, r0, r1, lsl #3
	.loc	10 242 60                       @ lvgl/src/lv_widgets/lv_btnmatrix.c:242:60
	ldrsh.w	r1, [sp, #16]
	.loc	10 242 67                       @ lvgl/src/lv_widgets/lv_btnmatrix.c:242:67
	ldrsh.w	r2, [sp, #44]
	.loc	10 242 82                       @ lvgl/src/lv_widgets/lv_btnmatrix.c:242:82
	ldrh.w	r3, [sp, #12]
	.loc	10 242 80                       @ lvgl/src/lv_widgets/lv_btnmatrix.c:242:80
	add	r3, r1
	.loc	10 242 102                      @ lvgl/src/lv_widgets/lv_btnmatrix.c:242:102
	ldrh.w	r12, [sp, #40]
	.loc	10 242 100                      @ lvgl/src/lv_widgets/lv_btnmatrix.c:242:100
	add	r12, r2
	.loc	10 242 21                       @ lvgl/src/lv_widgets/lv_btnmatrix.c:242:21
	sxth.w	r12, r12
	mov	lr, sp
	str.w	r12, [lr]
	sxth	r3, r3
	bl	lv_area_set
	b	.LBB3_38
.Ltmp362:
.LBB3_38:                               @   in Loop: Header=BB3_26 Depth=2
	.loc	10 245 33 is_stmt 1             @ lvgl/src/lv_widgets/lv_btnmatrix.c:245:33
	ldrb.w	r1, [sp, #15]
	.loc	10 245 30 is_stmt 0             @ lvgl/src/lv_widgets/lv_btnmatrix.c:245:30
	ldrh.w	r0, [sp, #38]
	add	r0, r1
	strh.w	r0, [sp, #38]
	.loc	10 247 22 is_stmt 1             @ lvgl/src/lv_widgets/lv_btnmatrix.c:247:22
	ldrh.w	r0, [sp, #36]
	adds	r0, #1
	strh.w	r0, [sp, #36]
	.loc	10 248 22                       @ lvgl/src/lv_widgets/lv_btnmatrix.c:248:22
	ldrh.w	r0, [sp, #34]
	adds	r0, #1
	strh.w	r0, [sp, #34]
	.loc	10 249 13                       @ lvgl/src/lv_widgets/lv_btnmatrix.c:249:13
	b	.LBB3_39
.Ltmp363:
.LBB3_39:                               @   in Loop: Header=BB3_26 Depth=2
	.loc	10 216 38                       @ lvgl/src/lv_widgets/lv_btnmatrix.c:216:38
	ldrh.w	r0, [sp, #18]
	adds	r0, #1
	strh.w	r0, [sp, #18]
	.loc	10 216 13 is_stmt 0             @ lvgl/src/lv_widgets/lv_btnmatrix.c:216:13
	b	.LBB3_26
.Ltmp364:
.LBB3_40:                               @   in Loop: Header=BB3_17 Depth=1
	.loc	10 250 9 is_stmt 1              @ lvgl/src/lv_widgets/lv_btnmatrix.c:250:9
	b	.LBB3_41
.Ltmp365:
.LBB3_41:                               @   in Loop: Header=BB3_17 Depth=1
	.loc	10 251 18                       @ lvgl/src/lv_widgets/lv_btnmatrix.c:251:18
	ldrh.w	r0, [sp, #40]
	.loc	10 251 26 is_stmt 0             @ lvgl/src/lv_widgets/lv_btnmatrix.c:251:26
	ldrh.w	r1, [sp, #50]
	.loc	10 251 24                       @ lvgl/src/lv_widgets/lv_btnmatrix.c:251:24
	add	r0, r1
	.loc	10 251 15                       @ lvgl/src/lv_widgets/lv_btnmatrix.c:251:15
	ldrh.w	r1, [sp, #44]
	.loc	10 251 32                       @ lvgl/src/lv_widgets/lv_btnmatrix.c:251:32
	add	r0, r1
	.loc	10 251 15                       @ lvgl/src/lv_widgets/lv_btnmatrix.c:251:15
	adds	r0, #1
	strh.w	r0, [sp, #44]
.Ltmp366:
	.loc	10 253 19 is_stmt 1             @ lvgl/src/lv_widgets/lv_btnmatrix.c:253:19
	ldr	r0, [sp, #28]
	.loc	10 253 29 is_stmt 0             @ lvgl/src/lv_widgets/lv_btnmatrix.c:253:29
	ldrh.w	r1, [sp, #24]
	.loc	10 253 19                       @ lvgl/src/lv_widgets/lv_btnmatrix.c:253:19
	ldr.w	r0, [r0, r1, lsl #2]
	.loc	10 253 12                       @ lvgl/src/lv_widgets/lv_btnmatrix.c:253:12
	bl	strlen
.Ltmp367:
	.loc	10 253 12                       @ lvgl/src/lv_widgets/lv_btnmatrix.c:253:12
	cbnz	r0, .LBB3_43
	b	.LBB3_42
.LBB3_42:
.Ltmp368:
	.loc	10 253 45                       @ lvgl/src/lv_widgets/lv_btnmatrix.c:253:45
	b	.LBB3_44
.Ltmp369:
.LBB3_43:                               @   in Loop: Header=BB3_17 Depth=1
	.loc	10 254 22 is_stmt 1             @ lvgl/src/lv_widgets/lv_btnmatrix.c:254:22
	ldr	r0, [sp, #28]
	.loc	10 254 32 is_stmt 0             @ lvgl/src/lv_widgets/lv_btnmatrix.c:254:32
	ldrh.w	r1, [sp, #24]
	.loc	10 254 22                       @ lvgl/src/lv_widgets/lv_btnmatrix.c:254:22
	add.w	r0, r0, r1, lsl #2
	adds	r0, #4
	.loc	10 254 19                       @ lvgl/src/lv_widgets/lv_btnmatrix.c:254:19
	str	r0, [sp, #28]
	.loc	10 255 14 is_stmt 1             @ lvgl/src/lv_widgets/lv_btnmatrix.c:255:14
	ldrh.w	r0, [sp, #36]
	adds	r0, #1
	strh.w	r0, [sp, #36]
.Ltmp370:
	.loc	10 190 5                        @ lvgl/src/lv_widgets/lv_btnmatrix.c:190:5
	b	.LBB3_17
.LBB3_44:
	.loc	10 258 23                       @ lvgl/src/lv_widgets/lv_btnmatrix.c:258:23
	ldr	r0, [sp, #68]
	.loc	10 258 5 is_stmt 0              @ lvgl/src/lv_widgets/lv_btnmatrix.c:258:5
	bl	lv_obj_invalidate
	.loc	10 259 1 is_stmt 1              @ lvgl/src/lv_widgets/lv_btnmatrix.c:259:1
	add	sp, #72
	pop	{r7, pc}
.Ltmp371:
.Lfunc_end3:
	.size	lv_btnmatrix_set_map, .Lfunc_end3-lv_btnmatrix_set_map
	.cfi_endproc
	.cantunwind
	.fnend
                                        @ -- End function
	.section	.text.lv_btnmatrix_set_ctrl_map,"ax",%progbits
	.hidden	lv_btnmatrix_set_ctrl_map       @ -- Begin function lv_btnmatrix_set_ctrl_map
	.globl	lv_btnmatrix_set_ctrl_map
	.p2align	3
	.type	lv_btnmatrix_set_ctrl_map,%function
	.code	16                              @ @lv_btnmatrix_set_ctrl_map
	.thumb_func
lv_btnmatrix_set_ctrl_map:
.Lfunc_begin4:
	.loc	10 274 0                        @ lvgl/src/lv_widgets/lv_btnmatrix.c:274:0
	.fnstart
	.cfi_startproc
@ %bb.0:
	.save	{r7, lr}
	push	{r7, lr}
	.cfi_def_cfa_offset 8
	.cfi_offset lr, -4
	.cfi_offset r7, -8
	.pad	#16
	sub	sp, #16
	.cfi_def_cfa_offset 24
	str	r0, [sp, #12]
	str	r1, [sp, #8]
.Ltmp372:
	.loc	10 275 5 prologue_end           @ lvgl/src/lv_widgets/lv_btnmatrix.c:275:5
	b	.LBB4_1
.LBB4_1:
.Ltmp373:
	.loc	10 275 5 is_stmt 0              @ lvgl/src/lv_widgets/lv_btnmatrix.c:275:5
	ldr	r0, [sp, #12]
	bl	lv_debug_check_null
.Ltmp374:
	.loc	10 275 5                        @ lvgl/src/lv_widgets/lv_btnmatrix.c:275:5
	cbnz	r0, .LBB4_4
	b	.LBB4_2
.LBB4_2:
.Ltmp375:
	.loc	10 275 5                        @ lvgl/src/lv_widgets/lv_btnmatrix.c:275:5
	ldr	r2, [sp, #12]
	movw	r0, :lower16:.L.str.1
	movt	r0, :upper16:.L.str.1
	movs	r3, #0
	bl	lv_debug_log_error
	b	.LBB4_3
.LBB4_3:                                @ =>This Inner Loop Header: Depth=1
	b	.LBB4_3
.Ltmp376:
.LBB4_4:
	.loc	10 275 5                        @ lvgl/src/lv_widgets/lv_btnmatrix.c:275:5
	b	.LBB4_5
.Ltmp377:
.LBB4_5:
	.loc	10 277 52 is_stmt 1             @ lvgl/src/lv_widgets/lv_btnmatrix.c:277:52
	ldr	r0, [sp, #12]
	.loc	10 277 32 is_stmt 0             @ lvgl/src/lv_widgets/lv_btnmatrix.c:277:32
	bl	lv_obj_get_ext_attr
	.loc	10 277 26                       @ lvgl/src/lv_widgets/lv_btnmatrix.c:277:26
	str	r0, [sp, #4]
	.loc	10 278 16 is_stmt 1             @ lvgl/src/lv_widgets/lv_btnmatrix.c:278:16
	ldr	r2, [sp, #4]
	.loc	10 278 21 is_stmt 0             @ lvgl/src/lv_widgets/lv_btnmatrix.c:278:21
	ldr	r0, [r2, #8]
	.loc	10 278 32                       @ lvgl/src/lv_widgets/lv_btnmatrix.c:278:32
	ldr	r1, [sp, #8]
	.loc	10 278 77                       @ lvgl/src/lv_widgets/lv_btnmatrix.c:278:77
	ldrh	r2, [r2, #20]
	.loc	10 278 70                       @ lvgl/src/lv_widgets/lv_btnmatrix.c:278:70
	lsls	r2, r2, #1
	.loc	10 278 5                        @ lvgl/src/lv_widgets/lv_btnmatrix.c:278:5
	bl	_lv_memcpy
	.loc	10 280 26 is_stmt 1             @ lvgl/src/lv_widgets/lv_btnmatrix.c:280:26
	ldr	r0, [sp, #12]
	.loc	10 280 32 is_stmt 0             @ lvgl/src/lv_widgets/lv_btnmatrix.c:280:32
	ldr	r1, [sp, #4]
	.loc	10 280 37                       @ lvgl/src/lv_widgets/lv_btnmatrix.c:280:37
	ldr	r1, [r1]
	.loc	10 280 5                        @ lvgl/src/lv_widgets/lv_btnmatrix.c:280:5
	bl	lv_btnmatrix_set_map
	.loc	10 281 1 is_stmt 1              @ lvgl/src/lv_widgets/lv_btnmatrix.c:281:1
	add	sp, #16
	pop	{r7, pc}
.Ltmp378:
.Lfunc_end4:
	.size	lv_btnmatrix_set_ctrl_map, .Lfunc_end4-lv_btnmatrix_set_ctrl_map
	.cfi_endproc
	.cantunwind
	.fnend
                                        @ -- End function
	.section	.text.allocate_btn_areas_and_controls,"ax",%progbits
	.p2align	3                               @ -- Begin function allocate_btn_areas_and_controls
	.type	allocate_btn_areas_and_controls,%function
	.code	16                              @ @allocate_btn_areas_and_controls
	.thumb_func
allocate_btn_areas_and_controls:
.Lfunc_begin5:
	.loc	10 1136 0                       @ lvgl/src/lv_widgets/lv_btnmatrix.c:1136:0
	.fnstart
	.cfi_startproc
@ %bb.0:
	.save	{r7, lr}
	push	{r7, lr}
	.cfi_def_cfa_offset 8
	.cfi_offset lr, -4
	.cfi_offset r7, -8
	.pad	#16
	sub	sp, #16
	.cfi_def_cfa_offset 24
	str	r0, [sp, #12]
	str	r1, [sp, #8]
	movs	r0, #0
.Ltmp379:
	.loc	10 1138 14 prologue_end         @ lvgl/src/lv_widgets/lv_btnmatrix.c:1138:14
	strh.w	r0, [sp, #6]
	.loc	10 1139 14                      @ lvgl/src/lv_widgets/lv_btnmatrix.c:1139:14
	strh.w	r0, [sp, #4]
	.loc	10 1140 5                       @ lvgl/src/lv_widgets/lv_btnmatrix.c:1140:5
	b	.LBB5_1
.LBB5_1:                                @ =>This Inner Loop Header: Depth=1
	.loc	10 1140 18 is_stmt 0            @ lvgl/src/lv_widgets/lv_btnmatrix.c:1140:18
	ldr	r0, [sp, #8]
	.loc	10 1140 22                      @ lvgl/src/lv_widgets/lv_btnmatrix.c:1140:22
	ldrh.w	r1, [sp, #4]
	.loc	10 1140 18                      @ lvgl/src/lv_widgets/lv_btnmatrix.c:1140:18
	ldr.w	r0, [r0, r1, lsl #2]
	.loc	10 1140 11                      @ lvgl/src/lv_widgets/lv_btnmatrix.c:1140:11
	bl	strlen
	.loc	10 1140 5                       @ lvgl/src/lv_widgets/lv_btnmatrix.c:1140:5
	cbz	r0, .LBB5_5
	b	.LBB5_2
.LBB5_2:                                @   in Loop: Header=BB5_1 Depth=1
.Ltmp380:
	.loc	10 1141 19 is_stmt 1            @ lvgl/src/lv_widgets/lv_btnmatrix.c:1141:19
	ldr	r0, [sp, #8]
	.loc	10 1141 23 is_stmt 0            @ lvgl/src/lv_widgets/lv_btnmatrix.c:1141:23
	ldrh.w	r1, [sp, #4]
	.loc	10 1141 19                      @ lvgl/src/lv_widgets/lv_btnmatrix.c:1141:19
	ldr.w	r0, [r0, r1, lsl #2]
	.loc	10 1141 12                      @ lvgl/src/lv_widgets/lv_btnmatrix.c:1141:12
	movw	r1, :lower16:.L.str.2
	movt	r1, :upper16:.L.str.2
	bl	strcmp
.Ltmp381:
	.loc	10 1141 12                      @ lvgl/src/lv_widgets/lv_btnmatrix.c:1141:12
	cbz	r0, .LBB5_4
	b	.LBB5_3
.LBB5_3:                                @   in Loop: Header=BB5_1 Depth=1
.Ltmp382:
	.loc	10 1142 20 is_stmt 1            @ lvgl/src/lv_widgets/lv_btnmatrix.c:1142:20
	ldrh.w	r0, [sp, #6]
	adds	r0, #1
	strh.w	r0, [sp, #6]
	.loc	10 1143 9                       @ lvgl/src/lv_widgets/lv_btnmatrix.c:1143:9
	b	.LBB5_4
.Ltmp383:
.LBB5_4:                                @   in Loop: Header=BB5_1 Depth=1
	.loc	10 1144 10                      @ lvgl/src/lv_widgets/lv_btnmatrix.c:1144:10
	ldrh.w	r0, [sp, #4]
	adds	r0, #1
	strh.w	r0, [sp, #4]
.Ltmp384:
	.loc	10 1140 5                       @ lvgl/src/lv_widgets/lv_btnmatrix.c:1140:5
	b	.LBB5_1
.LBB5_5:
	.loc	10 1147 52                      @ lvgl/src/lv_widgets/lv_btnmatrix.c:1147:52
	ldr	r0, [sp, #12]
	.loc	10 1147 32 is_stmt 0            @ lvgl/src/lv_widgets/lv_btnmatrix.c:1147:32
	bl	lv_obj_get_ext_attr
	.loc	10 1147 26                      @ lvgl/src/lv_widgets/lv_btnmatrix.c:1147:26
	str	r0, [sp]
.Ltmp385:
	.loc	10 1150 8 is_stmt 1             @ lvgl/src/lv_widgets/lv_btnmatrix.c:1150:8
	ldrh.w	r0, [sp, #6]
	.loc	10 1150 19 is_stmt 0            @ lvgl/src/lv_widgets/lv_btnmatrix.c:1150:19
	ldr	r1, [sp]
	.loc	10 1150 24                      @ lvgl/src/lv_widgets/lv_btnmatrix.c:1150:24
	ldrh	r1, [r1, #20]
.Ltmp386:
	.loc	10 1150 8                       @ lvgl/src/lv_widgets/lv_btnmatrix.c:1150:8
	cmp	r0, r1
	bne	.LBB5_7
	b	.LBB5_6
.LBB5_6:
.Ltmp387:
	.loc	10 1150 33                      @ lvgl/src/lv_widgets/lv_btnmatrix.c:1150:33
	b	.LBB5_25
.Ltmp388:
.LBB5_7:
	.loc	10 1152 8 is_stmt 1             @ lvgl/src/lv_widgets/lv_btnmatrix.c:1152:8
	ldr	r0, [sp]
	.loc	10 1152 13 is_stmt 0            @ lvgl/src/lv_widgets/lv_btnmatrix.c:1152:13
	ldr	r0, [r0, #4]
.Ltmp389:
	.loc	10 1152 8                       @ lvgl/src/lv_widgets/lv_btnmatrix.c:1152:8
	cbz	r0, .LBB5_9
	b	.LBB5_8
.LBB5_8:
.Ltmp390:
	.loc	10 1153 21 is_stmt 1            @ lvgl/src/lv_widgets/lv_btnmatrix.c:1153:21
	ldr	r0, [sp]
	.loc	10 1153 26 is_stmt 0            @ lvgl/src/lv_widgets/lv_btnmatrix.c:1153:26
	ldr	r0, [r0, #4]
	.loc	10 1153 9                       @ lvgl/src/lv_widgets/lv_btnmatrix.c:1153:9
	bl	lv_mem_free
	.loc	10 1154 9 is_stmt 1             @ lvgl/src/lv_widgets/lv_btnmatrix.c:1154:9
	ldr	r1, [sp]
	movs	r0, #0
	.loc	10 1154 27 is_stmt 0            @ lvgl/src/lv_widgets/lv_btnmatrix.c:1154:27
	str	r0, [r1, #4]
	.loc	10 1155 5 is_stmt 1             @ lvgl/src/lv_widgets/lv_btnmatrix.c:1155:5
	b	.LBB5_9
.Ltmp391:
.LBB5_9:
	.loc	10 1156 8                       @ lvgl/src/lv_widgets/lv_btnmatrix.c:1156:8
	ldr	r0, [sp]
	.loc	10 1156 13 is_stmt 0            @ lvgl/src/lv_widgets/lv_btnmatrix.c:1156:13
	ldr	r0, [r0, #8]
.Ltmp392:
	.loc	10 1156 8                       @ lvgl/src/lv_widgets/lv_btnmatrix.c:1156:8
	cbz	r0, .LBB5_11
	b	.LBB5_10
.LBB5_10:
.Ltmp393:
	.loc	10 1157 21 is_stmt 1            @ lvgl/src/lv_widgets/lv_btnmatrix.c:1157:21
	ldr	r0, [sp]
	.loc	10 1157 26 is_stmt 0            @ lvgl/src/lv_widgets/lv_btnmatrix.c:1157:26
	ldr	r0, [r0, #8]
	.loc	10 1157 9                       @ lvgl/src/lv_widgets/lv_btnmatrix.c:1157:9
	bl	lv_mem_free
	.loc	10 1158 9 is_stmt 1             @ lvgl/src/lv_widgets/lv_btnmatrix.c:1158:9
	ldr	r1, [sp]
	movs	r0, #0
	.loc	10 1158 24 is_stmt 0            @ lvgl/src/lv_widgets/lv_btnmatrix.c:1158:24
	str	r0, [r1, #8]
	.loc	10 1159 5 is_stmt 1             @ lvgl/src/lv_widgets/lv_btnmatrix.c:1159:5
	b	.LBB5_11
.Ltmp394:
.LBB5_11:
	.loc	10 1161 58                      @ lvgl/src/lv_widgets/lv_btnmatrix.c:1161:58
	ldrh.w	r0, [sp, #6]
	.loc	10 1161 56 is_stmt 0            @ lvgl/src/lv_widgets/lv_btnmatrix.c:1161:56
	lsls	r0, r0, #3
	.loc	10 1161 25                      @ lvgl/src/lv_widgets/lv_btnmatrix.c:1161:25
	bl	lv_mem_alloc
	.loc	10 1161 5                       @ lvgl/src/lv_widgets/lv_btnmatrix.c:1161:5
	ldr	r1, [sp]
	.loc	10 1161 23                      @ lvgl/src/lv_widgets/lv_btnmatrix.c:1161:23
	str	r0, [r1, #4]
	.loc	10 1162 5 is_stmt 1             @ lvgl/src/lv_widgets/lv_btnmatrix.c:1162:5
	b	.LBB5_12
.LBB5_12:
.Ltmp395:
	.loc	10 1162 5 is_stmt 0             @ lvgl/src/lv_widgets/lv_btnmatrix.c:1162:5
	ldr	r0, [sp]
	ldr	r0, [r0, #4]
	bl	lv_debug_check_null
.Ltmp396:
	.loc	10 1162 5                       @ lvgl/src/lv_widgets/lv_btnmatrix.c:1162:5
	cbnz	r0, .LBB5_15
	b	.LBB5_13
.LBB5_13:
.Ltmp397:
	.loc	10 1162 5                       @ lvgl/src/lv_widgets/lv_btnmatrix.c:1162:5
	ldr	r0, [sp]
	ldr	r2, [r0, #4]
	movw	r0, :lower16:.L.str
	movt	r0, :upper16:.L.str
	movs	r3, #0
	bl	lv_debug_log_error
	b	.LBB5_14
.LBB5_14:                               @ =>This Inner Loop Header: Depth=1
	b	.LBB5_14
.Ltmp398:
.LBB5_15:
	.loc	10 1162 5                       @ lvgl/src/lv_widgets/lv_btnmatrix.c:1162:5
	b	.LBB5_16
.Ltmp399:
.LBB5_16:
	.loc	10 1163 65 is_stmt 1            @ lvgl/src/lv_widgets/lv_btnmatrix.c:1163:65
	ldrh.w	r0, [sp, #6]
	.loc	10 1163 63 is_stmt 0            @ lvgl/src/lv_widgets/lv_btnmatrix.c:1163:63
	lsls	r0, r0, #1
	.loc	10 1163 22                      @ lvgl/src/lv_widgets/lv_btnmatrix.c:1163:22
	bl	lv_mem_alloc
	.loc	10 1163 5                       @ lvgl/src/lv_widgets/lv_btnmatrix.c:1163:5
	ldr	r1, [sp]
	.loc	10 1163 20                      @ lvgl/src/lv_widgets/lv_btnmatrix.c:1163:20
	str	r0, [r1, #8]
	.loc	10 1164 5 is_stmt 1             @ lvgl/src/lv_widgets/lv_btnmatrix.c:1164:5
	b	.LBB5_17
.LBB5_17:
.Ltmp400:
	.loc	10 1164 5 is_stmt 0             @ lvgl/src/lv_widgets/lv_btnmatrix.c:1164:5
	ldr	r0, [sp]
	ldr	r0, [r0, #8]
	bl	lv_debug_check_null
.Ltmp401:
	.loc	10 1164 5                       @ lvgl/src/lv_widgets/lv_btnmatrix.c:1164:5
	cbnz	r0, .LBB5_20
	b	.LBB5_18
.LBB5_18:
.Ltmp402:
	.loc	10 1164 5                       @ lvgl/src/lv_widgets/lv_btnmatrix.c:1164:5
	ldr	r0, [sp]
	ldr	r2, [r0, #8]
	movw	r0, :lower16:.L.str
	movt	r0, :upper16:.L.str
	movs	r3, #0
	bl	lv_debug_log_error
	b	.LBB5_19
.LBB5_19:                               @ =>This Inner Loop Header: Depth=1
	b	.LBB5_19
.Ltmp403:
.LBB5_20:
	.loc	10 1164 5                       @ lvgl/src/lv_widgets/lv_btnmatrix.c:1164:5
	b	.LBB5_21
.Ltmp404:
.LBB5_21:
	.loc	10 1165 8 is_stmt 1             @ lvgl/src/lv_widgets/lv_btnmatrix.c:1165:8
	ldr	r0, [sp]
	.loc	10 1165 13 is_stmt 0            @ lvgl/src/lv_widgets/lv_btnmatrix.c:1165:13
	ldr	r0, [r0, #4]
	.loc	10 1165 34                      @ lvgl/src/lv_widgets/lv_btnmatrix.c:1165:34
	cbz	r0, .LBB5_23
	b	.LBB5_22
.LBB5_22:
	.loc	10 1165 37                      @ lvgl/src/lv_widgets/lv_btnmatrix.c:1165:37
	ldr	r0, [sp]
	.loc	10 1165 42                      @ lvgl/src/lv_widgets/lv_btnmatrix.c:1165:42
	ldr	r0, [r0, #8]
.Ltmp405:
	.loc	10 1165 8                       @ lvgl/src/lv_widgets/lv_btnmatrix.c:1165:8
	cbnz	r0, .LBB5_24
	b	.LBB5_23
.LBB5_23:
	.loc	10 0 8                          @ lvgl/src/lv_widgets/lv_btnmatrix.c:0:8
	movs	r0, #0
.Ltmp406:
	.loc	10 1165 69                      @ lvgl/src/lv_widgets/lv_btnmatrix.c:1165:69
	strh.w	r0, [sp, #6]
	.loc	10 1165 61                      @ lvgl/src/lv_widgets/lv_btnmatrix.c:1165:61
	b	.LBB5_24
.Ltmp407:
.LBB5_24:
	.loc	10 1167 19 is_stmt 1            @ lvgl/src/lv_widgets/lv_btnmatrix.c:1167:19
	ldr	r0, [sp]
	.loc	10 1167 24 is_stmt 0            @ lvgl/src/lv_widgets/lv_btnmatrix.c:1167:24
	ldr	r0, [r0, #8]
	.loc	10 1167 65                      @ lvgl/src/lv_widgets/lv_btnmatrix.c:1167:65
	ldrh.w	r1, [sp, #6]
	.loc	10 1167 63                      @ lvgl/src/lv_widgets/lv_btnmatrix.c:1167:63
	lsls	r1, r1, #1
	.loc	10 1167 5                       @ lvgl/src/lv_widgets/lv_btnmatrix.c:1167:5
	bl	_lv_memset_00
	.loc	10 1169 20 is_stmt 1            @ lvgl/src/lv_widgets/lv_btnmatrix.c:1169:20
	ldrh.w	r0, [sp, #6]
	.loc	10 1169 5 is_stmt 0             @ lvgl/src/lv_widgets/lv_btnmatrix.c:1169:5
	ldr	r1, [sp]
	.loc	10 1169 18                      @ lvgl/src/lv_widgets/lv_btnmatrix.c:1169:18
	strh	r0, [r1, #20]
	.loc	10 1170 1 is_stmt 1             @ lvgl/src/lv_widgets/lv_btnmatrix.c:1170:1
	b	.LBB5_25
.LBB5_25:
	add	sp, #16
	pop	{r7, pc}
.Ltmp408:
.Lfunc_end5:
	.size	allocate_btn_areas_and_controls, .Lfunc_end5-allocate_btn_areas_and_controls
	.cfi_endproc
	.cantunwind
	.fnend
                                        @ -- End function
	.section	.text.lv_obj_get_style_pad_left,"ax",%progbits
	.p2align	3                               @ -- Begin function lv_obj_get_style_pad_left
	.type	lv_obj_get_style_pad_left,%function
	.code	16                              @ @lv_obj_get_style_pad_left
	.thumb_func
lv_obj_get_style_pad_left:
.Lfunc_begin6:
	.file	16 "E:\\Smart-access-control\\Hardware\\CODE" "lvgl/src/lv_widgets/../lv_core/lv_obj_style_dec.h"
	.loc	16 102 0                        @ lvgl/src/lv_widgets/../lv_core/lv_obj_style_dec.h:102:0
	.fnstart
	.cfi_startproc
@ %bb.0:
	.save	{r7, lr}
	push	{r7, lr}
	.cfi_def_cfa_offset 8
	.cfi_offset lr, -4
	.cfi_offset r7, -8
	.pad	#8
	sub	sp, #8
	.cfi_def_cfa_offset 16
                                        @ kill: def $r2 killed $r1
	str	r0, [sp, #4]
	strb.w	r1, [sp, #3]
.Ltmp409:
	.loc	16 102 1 prologue_end           @ lvgl/src/lv_widgets/../lv_core/lv_obj_style_dec.h:102:1
	ldr	r0, [sp, #4]
	ldrb.w	r1, [sp, #3]
	movs	r2, #18
	bl	_lv_obj_get_style_int
	add	sp, #8
	pop	{r7, pc}
.Ltmp410:
.Lfunc_end6:
	.size	lv_obj_get_style_pad_left, .Lfunc_end6-lv_obj_get_style_pad_left
	.cfi_endproc
	.cantunwind
	.fnend
                                        @ -- End function
	.section	.text.lv_obj_get_style_pad_right,"ax",%progbits
	.p2align	3                               @ -- Begin function lv_obj_get_style_pad_right
	.type	lv_obj_get_style_pad_right,%function
	.code	16                              @ @lv_obj_get_style_pad_right
	.thumb_func
lv_obj_get_style_pad_right:
.Lfunc_begin7:
	.loc	16 103 0                        @ lvgl/src/lv_widgets/../lv_core/lv_obj_style_dec.h:103:0
	.fnstart
	.cfi_startproc
@ %bb.0:
	.save	{r7, lr}
	push	{r7, lr}
	.cfi_def_cfa_offset 8
	.cfi_offset lr, -4
	.cfi_offset r7, -8
	.pad	#8
	sub	sp, #8
	.cfi_def_cfa_offset 16
                                        @ kill: def $r2 killed $r1
	str	r0, [sp, #4]
	strb.w	r1, [sp, #3]
.Ltmp411:
	.loc	16 103 1 prologue_end           @ lvgl/src/lv_widgets/../lv_core/lv_obj_style_dec.h:103:1
	ldr	r0, [sp, #4]
	ldrb.w	r1, [sp, #3]
	movs	r2, #19
	bl	_lv_obj_get_style_int
	add	sp, #8
	pop	{r7, pc}
.Ltmp412:
.Lfunc_end7:
	.size	lv_obj_get_style_pad_right, .Lfunc_end7-lv_obj_get_style_pad_right
	.cfi_endproc
	.cantunwind
	.fnend
                                        @ -- End function
	.section	.text.lv_obj_get_style_pad_top,"ax",%progbits
	.p2align	3                               @ -- Begin function lv_obj_get_style_pad_top
	.type	lv_obj_get_style_pad_top,%function
	.code	16                              @ @lv_obj_get_style_pad_top
	.thumb_func
lv_obj_get_style_pad_top:
.Lfunc_begin8:
	.loc	16 100 0                        @ lvgl/src/lv_widgets/../lv_core/lv_obj_style_dec.h:100:0
	.fnstart
	.cfi_startproc
@ %bb.0:
	.save	{r7, lr}
	push	{r7, lr}
	.cfi_def_cfa_offset 8
	.cfi_offset lr, -4
	.cfi_offset r7, -8
	.pad	#8
	sub	sp, #8
	.cfi_def_cfa_offset 16
                                        @ kill: def $r2 killed $r1
	str	r0, [sp, #4]
	strb.w	r1, [sp, #3]
.Ltmp413:
	.loc	16 100 1 prologue_end           @ lvgl/src/lv_widgets/../lv_core/lv_obj_style_dec.h:100:1
	ldr	r0, [sp, #4]
	ldrb.w	r1, [sp, #3]
	movs	r2, #16
	bl	_lv_obj_get_style_int
	add	sp, #8
	pop	{r7, pc}
.Ltmp414:
.Lfunc_end8:
	.size	lv_obj_get_style_pad_top, .Lfunc_end8-lv_obj_get_style_pad_top
	.cfi_endproc
	.cantunwind
	.fnend
                                        @ -- End function
	.section	.text.lv_obj_get_style_pad_bottom,"ax",%progbits
	.p2align	3                               @ -- Begin function lv_obj_get_style_pad_bottom
	.type	lv_obj_get_style_pad_bottom,%function
	.code	16                              @ @lv_obj_get_style_pad_bottom
	.thumb_func
lv_obj_get_style_pad_bottom:
.Lfunc_begin9:
	.loc	16 101 0                        @ lvgl/src/lv_widgets/../lv_core/lv_obj_style_dec.h:101:0
	.fnstart
	.cfi_startproc
@ %bb.0:
	.save	{r7, lr}
	push	{r7, lr}
	.cfi_def_cfa_offset 8
	.cfi_offset lr, -4
	.cfi_offset r7, -8
	.pad	#8
	sub	sp, #8
	.cfi_def_cfa_offset 16
                                        @ kill: def $r2 killed $r1
	str	r0, [sp, #4]
	strb.w	r1, [sp, #3]
.Ltmp415:
	.loc	16 101 1 prologue_end           @ lvgl/src/lv_widgets/../lv_core/lv_obj_style_dec.h:101:1
	ldr	r0, [sp, #4]
	ldrb.w	r1, [sp, #3]
	movs	r2, #17
	bl	_lv_obj_get_style_int
	add	sp, #8
	pop	{r7, pc}
.Ltmp416:
.Lfunc_end9:
	.size	lv_obj_get_style_pad_bottom, .Lfunc_end9-lv_obj_get_style_pad_bottom
	.cfi_endproc
	.cantunwind
	.fnend
                                        @ -- End function
	.section	.text.lv_obj_get_style_pad_inner,"ax",%progbits
	.p2align	3                               @ -- Begin function lv_obj_get_style_pad_inner
	.type	lv_obj_get_style_pad_inner,%function
	.code	16                              @ @lv_obj_get_style_pad_inner
	.thumb_func
lv_obj_get_style_pad_inner:
.Lfunc_begin10:
	.loc	16 104 0                        @ lvgl/src/lv_widgets/../lv_core/lv_obj_style_dec.h:104:0
	.fnstart
	.cfi_startproc
@ %bb.0:
	.save	{r7, lr}
	push	{r7, lr}
	.cfi_def_cfa_offset 8
	.cfi_offset lr, -4
	.cfi_offset r7, -8
	.pad	#8
	sub	sp, #8
	.cfi_def_cfa_offset 16
                                        @ kill: def $r2 killed $r1
	str	r0, [sp, #4]
	strb.w	r1, [sp, #3]
.Ltmp417:
	.loc	16 104 1 prologue_end           @ lvgl/src/lv_widgets/../lv_core/lv_obj_style_dec.h:104:1
	ldr	r0, [sp, #4]
	ldrb.w	r1, [sp, #3]
	movs	r2, #20
	bl	_lv_obj_get_style_int
	add	sp, #8
	pop	{r7, pc}
.Ltmp418:
.Lfunc_end10:
	.size	lv_obj_get_style_pad_inner, .Lfunc_end10-lv_obj_get_style_pad_inner
	.cfi_endproc
	.cantunwind
	.fnend
                                        @ -- End function
	.section	.text.get_button_width,"ax",%progbits
	.p2align	3                               @ -- Begin function get_button_width
	.type	get_button_width,%function
	.code	16                              @ @get_button_width
	.thumb_func
get_button_width:
.Lfunc_begin11:
	.loc	10 1178 0                       @ lvgl/src/lv_widgets/lv_btnmatrix.c:1178:0
	.fnstart
	.cfi_startproc
@ %bb.0:
	.pad	#8
	sub	sp, #8
	.cfi_def_cfa_offset 8
                                        @ kill: def $r1 killed $r0
	strh.w	r0, [sp, #6]
.Ltmp419:
	.loc	10 1179 17 prologue_end         @ lvgl/src/lv_widgets/lv_btnmatrix.c:1179:17
	ldrh.w	r0, [sp, #6]
	.loc	10 1179 27 is_stmt 0            @ lvgl/src/lv_widgets/lv_btnmatrix.c:1179:27
	and	r0, r0, #7
	.loc	10 1179 13                      @ lvgl/src/lv_widgets/lv_btnmatrix.c:1179:13
	strb.w	r0, [sp, #5]
	.loc	10 1180 12 is_stmt 1            @ lvgl/src/lv_widgets/lv_btnmatrix.c:1180:12
	ldrb.w	r0, [sp, #5]
	cbz	r0, .LBB11_2
	b	.LBB11_1
.LBB11_1:
	.loc	10 1180 21 is_stmt 0            @ lvgl/src/lv_widgets/lv_btnmatrix.c:1180:21
	ldrb.w	r0, [sp, #5]
	.loc	10 1180 12                      @ lvgl/src/lv_widgets/lv_btnmatrix.c:1180:12
	str	r0, [sp]                        @ 4-byte Spill
	b	.LBB11_3
.LBB11_2:
	.loc	10 0 12                         @ lvgl/src/lv_widgets/lv_btnmatrix.c:0:12
	movs	r0, #1
	.loc	10 1180 12                      @ lvgl/src/lv_widgets/lv_btnmatrix.c:1180:12
	str	r0, [sp]                        @ 4-byte Spill
	b	.LBB11_3
.LBB11_3:
	ldr	r0, [sp]                        @ 4-byte Reload
	.loc	10 1180 5                       @ lvgl/src/lv_widgets/lv_btnmatrix.c:1180:5
	uxtb	r0, r0
	add	sp, #8
	bx	lr
.Ltmp420:
.Lfunc_end11:
	.size	get_button_width, .Lfunc_end11-get_button_width
	.cfi_endproc
	.cantunwind
	.fnend
                                        @ -- End function
	.section	.text.lv_btnmatrix_set_focused_btn,"ax",%progbits
	.hidden	lv_btnmatrix_set_focused_btn    @ -- Begin function lv_btnmatrix_set_focused_btn
	.globl	lv_btnmatrix_set_focused_btn
	.p2align	3
	.type	lv_btnmatrix_set_focused_btn,%function
	.code	16                              @ @lv_btnmatrix_set_focused_btn
	.thumb_func
lv_btnmatrix_set_focused_btn:
.Lfunc_begin12:
	.loc	10 289 0 is_stmt 1              @ lvgl/src/lv_widgets/lv_btnmatrix.c:289:0
	.fnstart
	.cfi_startproc
@ %bb.0:
	.save	{r7, lr}
	push	{r7, lr}
	.cfi_def_cfa_offset 8
	.cfi_offset lr, -4
	.cfi_offset r7, -8
	.pad	#16
	sub	sp, #16
	.cfi_def_cfa_offset 24
                                        @ kill: def $r2 killed $r1
	str	r0, [sp, #12]
	strh.w	r1, [sp, #10]
.Ltmp421:
	.loc	10 290 5 prologue_end           @ lvgl/src/lv_widgets/lv_btnmatrix.c:290:5
	b	.LBB12_1
.LBB12_1:
.Ltmp422:
	.loc	10 290 5 is_stmt 0              @ lvgl/src/lv_widgets/lv_btnmatrix.c:290:5
	ldr	r0, [sp, #12]
	bl	lv_debug_check_null
.Ltmp423:
	.loc	10 290 5                        @ lvgl/src/lv_widgets/lv_btnmatrix.c:290:5
	cbnz	r0, .LBB12_4
	b	.LBB12_2
.LBB12_2:
.Ltmp424:
	.loc	10 290 5                        @ lvgl/src/lv_widgets/lv_btnmatrix.c:290:5
	ldr	r2, [sp, #12]
	movw	r0, :lower16:.L.str.1
	movt	r0, :upper16:.L.str.1
	movs	r3, #0
	bl	lv_debug_log_error
	b	.LBB12_3
.LBB12_3:                               @ =>This Inner Loop Header: Depth=1
	b	.LBB12_3
.Ltmp425:
.LBB12_4:
	.loc	10 290 5                        @ lvgl/src/lv_widgets/lv_btnmatrix.c:290:5
	b	.LBB12_5
.Ltmp426:
.LBB12_5:
	.loc	10 292 52 is_stmt 1             @ lvgl/src/lv_widgets/lv_btnmatrix.c:292:52
	ldr	r0, [sp, #12]
	.loc	10 292 32 is_stmt 0             @ lvgl/src/lv_widgets/lv_btnmatrix.c:292:32
	bl	lv_obj_get_ext_attr
	.loc	10 292 26                       @ lvgl/src/lv_widgets/lv_btnmatrix.c:292:26
	str	r0, [sp, #4]
.Ltmp427:
	.loc	10 294 8 is_stmt 1              @ lvgl/src/lv_widgets/lv_btnmatrix.c:294:8
	ldrh.w	r0, [sp, #10]
	.loc	10 294 14 is_stmt 0             @ lvgl/src/lv_widgets/lv_btnmatrix.c:294:14
	ldr	r1, [sp, #4]
	.loc	10 294 19                       @ lvgl/src/lv_widgets/lv_btnmatrix.c:294:19
	ldrh	r1, [r1, #20]
	.loc	10 294 27                       @ lvgl/src/lv_widgets/lv_btnmatrix.c:294:27
	cmp	r0, r1
	blt	.LBB12_8
	b	.LBB12_6
.LBB12_6:
	.loc	10 294 30                       @ lvgl/src/lv_widgets/lv_btnmatrix.c:294:30
	ldrh.w	r0, [sp, #10]
	movw	r1, #65535
.Ltmp428:
	.loc	10 294 8                        @ lvgl/src/lv_widgets/lv_btnmatrix.c:294:8
	cmp	r0, r1
	beq	.LBB12_8
	b	.LBB12_7
.LBB12_7:
.Ltmp429:
	.loc	10 294 59                       @ lvgl/src/lv_widgets/lv_btnmatrix.c:294:59
	b	.LBB12_13
.Ltmp430:
.LBB12_8:
	.loc	10 296 8 is_stmt 1              @ lvgl/src/lv_widgets/lv_btnmatrix.c:296:8
	ldr	r0, [sp, #4]
	.loc	10 296 13 is_stmt 0             @ lvgl/src/lv_widgets/lv_btnmatrix.c:296:13
	ldrh	r0, [r0, #26]
	movw	r1, #65535
.Ltmp431:
	.loc	10 296 8                        @ lvgl/src/lv_widgets/lv_btnmatrix.c:296:8
	cmp	r0, r1
	bne	.LBB12_10
	b	.LBB12_9
.LBB12_9:
.Ltmp432:
	.loc	10 296 68                       @ lvgl/src/lv_widgets/lv_btnmatrix.c:296:68
	ldrh.w	r0, [sp, #10]
	.loc	10 296 50                       @ lvgl/src/lv_widgets/lv_btnmatrix.c:296:50
	ldr	r1, [sp, #4]
	.loc	10 296 66                       @ lvgl/src/lv_widgets/lv_btnmatrix.c:296:66
	strh	r0, [r1, #26]
	.loc	10 296 50                       @ lvgl/src/lv_widgets/lv_btnmatrix.c:296:50
	b	.LBB12_10
.Ltmp433:
.LBB12_10:
	.loc	10 298 8 is_stmt 1              @ lvgl/src/lv_widgets/lv_btnmatrix.c:298:8
	ldrh.w	r0, [sp, #10]
	.loc	10 298 14 is_stmt 0             @ lvgl/src/lv_widgets/lv_btnmatrix.c:298:14
	ldr	r1, [sp, #4]
	.loc	10 298 19                       @ lvgl/src/lv_widgets/lv_btnmatrix.c:298:19
	ldrh	r1, [r1, #24]
.Ltmp434:
	.loc	10 298 8                        @ lvgl/src/lv_widgets/lv_btnmatrix.c:298:8
	cmp	r0, r1
	bne	.LBB12_12
	b	.LBB12_11
.LBB12_11:
.Ltmp435:
	.loc	10 298 35                       @ lvgl/src/lv_widgets/lv_btnmatrix.c:298:35
	b	.LBB12_13
.Ltmp436:
.LBB12_12:
	.loc	10 299 27 is_stmt 1             @ lvgl/src/lv_widgets/lv_btnmatrix.c:299:27
	ldrh.w	r0, [sp, #10]
	.loc	10 299 5 is_stmt 0              @ lvgl/src/lv_widgets/lv_btnmatrix.c:299:5
	ldr	r1, [sp, #4]
	.loc	10 299 25                       @ lvgl/src/lv_widgets/lv_btnmatrix.c:299:25
	strh	r0, [r1, #24]
	.loc	10 301 23 is_stmt 1             @ lvgl/src/lv_widgets/lv_btnmatrix.c:301:23
	ldr	r0, [sp, #12]
	.loc	10 301 5 is_stmt 0              @ lvgl/src/lv_widgets/lv_btnmatrix.c:301:5
	bl	lv_obj_invalidate
	.loc	10 302 1 is_stmt 1              @ lvgl/src/lv_widgets/lv_btnmatrix.c:302:1
	b	.LBB12_13
.LBB12_13:
	add	sp, #16
	pop	{r7, pc}
.Ltmp437:
.Lfunc_end12:
	.size	lv_btnmatrix_set_focused_btn, .Lfunc_end12-lv_btnmatrix_set_focused_btn
	.cfi_endproc
	.cantunwind
	.fnend
                                        @ -- End function
	.section	.text.lv_btnmatrix_set_recolor,"ax",%progbits
	.hidden	lv_btnmatrix_set_recolor        @ -- Begin function lv_btnmatrix_set_recolor
	.globl	lv_btnmatrix_set_recolor
	.p2align	3
	.type	lv_btnmatrix_set_recolor,%function
	.code	16                              @ @lv_btnmatrix_set_recolor
	.thumb_func
lv_btnmatrix_set_recolor:
.Lfunc_begin13:
	.loc	10 310 0                        @ lvgl/src/lv_widgets/lv_btnmatrix.c:310:0
	.fnstart
	.cfi_startproc
@ %bb.0:
	.save	{r7, lr}
	push	{r7, lr}
	.cfi_def_cfa_offset 8
	.cfi_offset lr, -4
	.cfi_offset r7, -8
	.pad	#16
	sub	sp, #16
	.cfi_def_cfa_offset 24
                                        @ kill: def $r2 killed $r1
	str	r0, [sp, #12]
	strb.w	r1, [sp, #11]
.Ltmp438:
	.loc	10 311 5 prologue_end           @ lvgl/src/lv_widgets/lv_btnmatrix.c:311:5
	b	.LBB13_1
.LBB13_1:
.Ltmp439:
	.loc	10 311 5 is_stmt 0              @ lvgl/src/lv_widgets/lv_btnmatrix.c:311:5
	ldr	r0, [sp, #12]
	bl	lv_debug_check_null
.Ltmp440:
	.loc	10 311 5                        @ lvgl/src/lv_widgets/lv_btnmatrix.c:311:5
	cbnz	r0, .LBB13_4
	b	.LBB13_2
.LBB13_2:
.Ltmp441:
	.loc	10 311 5                        @ lvgl/src/lv_widgets/lv_btnmatrix.c:311:5
	ldr	r2, [sp, #12]
	movw	r0, :lower16:.L.str.1
	movt	r0, :upper16:.L.str.1
	movs	r3, #0
	bl	lv_debug_log_error
	b	.LBB13_3
.LBB13_3:                               @ =>This Inner Loop Header: Depth=1
	b	.LBB13_3
.Ltmp442:
.LBB13_4:
	.loc	10 311 5                        @ lvgl/src/lv_widgets/lv_btnmatrix.c:311:5
	b	.LBB13_5
.Ltmp443:
.LBB13_5:
	.loc	10 313 52 is_stmt 1             @ lvgl/src/lv_widgets/lv_btnmatrix.c:313:52
	ldr	r0, [sp, #12]
	.loc	10 313 32 is_stmt 0             @ lvgl/src/lv_widgets/lv_btnmatrix.c:313:32
	bl	lv_obj_get_ext_attr
	.loc	10 313 26                       @ lvgl/src/lv_widgets/lv_btnmatrix.c:313:26
	str	r0, [sp, #4]
	.loc	10 315 20 is_stmt 1             @ lvgl/src/lv_widgets/lv_btnmatrix.c:315:20
	ldrb.w	r0, [sp, #11]
	and	r2, r0, #1
	.loc	10 315 5 is_stmt 0              @ lvgl/src/lv_widgets/lv_btnmatrix.c:315:5
	ldr	r1, [sp, #4]
	.loc	10 315 18                       @ lvgl/src/lv_widgets/lv_btnmatrix.c:315:18
	ldrb	r0, [r1, #28]
	and	r0, r0, #254
	add	r0, r2
	strb	r0, [r1, #28]
	.loc	10 316 23 is_stmt 1             @ lvgl/src/lv_widgets/lv_btnmatrix.c:316:23
	ldr	r0, [sp, #12]
	.loc	10 316 5 is_stmt 0              @ lvgl/src/lv_widgets/lv_btnmatrix.c:316:5
	bl	lv_obj_invalidate
	.loc	10 317 1 is_stmt 1              @ lvgl/src/lv_widgets/lv_btnmatrix.c:317:1
	add	sp, #16
	pop	{r7, pc}
.Ltmp444:
.Lfunc_end13:
	.size	lv_btnmatrix_set_recolor, .Lfunc_end13-lv_btnmatrix_set_recolor
	.cfi_endproc
	.cantunwind
	.fnend
                                        @ -- End function
	.section	.text.lv_btnmatrix_set_btn_ctrl,"ax",%progbits
	.hidden	lv_btnmatrix_set_btn_ctrl       @ -- Begin function lv_btnmatrix_set_btn_ctrl
	.globl	lv_btnmatrix_set_btn_ctrl
	.p2align	3
	.type	lv_btnmatrix_set_btn_ctrl,%function
	.code	16                              @ @lv_btnmatrix_set_btn_ctrl
	.thumb_func
lv_btnmatrix_set_btn_ctrl:
.Lfunc_begin14:
	.loc	10 325 0                        @ lvgl/src/lv_widgets/lv_btnmatrix.c:325:0
	.fnstart
	.cfi_startproc
@ %bb.0:
	.save	{r7, lr}
	push	{r7, lr}
	.cfi_def_cfa_offset 8
	.cfi_offset lr, -4
	.cfi_offset r7, -8
	.pad	#16
	sub	sp, #16
	.cfi_def_cfa_offset 24
                                        @ kill: def $r3 killed $r2
                                        @ kill: def $r3 killed $r1
	str	r0, [sp, #12]
	strh.w	r1, [sp, #10]
	strh.w	r2, [sp, #8]
.Ltmp445:
	.loc	10 326 5 prologue_end           @ lvgl/src/lv_widgets/lv_btnmatrix.c:326:5
	b	.LBB14_1
.LBB14_1:
.Ltmp446:
	.loc	10 326 5 is_stmt 0              @ lvgl/src/lv_widgets/lv_btnmatrix.c:326:5
	ldr	r0, [sp, #12]
	bl	lv_debug_check_null
.Ltmp447:
	.loc	10 326 5                        @ lvgl/src/lv_widgets/lv_btnmatrix.c:326:5
	cbnz	r0, .LBB14_4
	b	.LBB14_2
.LBB14_2:
.Ltmp448:
	.loc	10 326 5                        @ lvgl/src/lv_widgets/lv_btnmatrix.c:326:5
	ldr	r2, [sp, #12]
	movw	r0, :lower16:.L.str.1
	movt	r0, :upper16:.L.str.1
	movs	r3, #0
	bl	lv_debug_log_error
	b	.LBB14_3
.LBB14_3:                               @ =>This Inner Loop Header: Depth=1
	b	.LBB14_3
.Ltmp449:
.LBB14_4:
	.loc	10 326 5                        @ lvgl/src/lv_widgets/lv_btnmatrix.c:326:5
	b	.LBB14_5
.Ltmp450:
.LBB14_5:
	.loc	10 328 52 is_stmt 1             @ lvgl/src/lv_widgets/lv_btnmatrix.c:328:52
	ldr	r0, [sp, #12]
	.loc	10 328 32 is_stmt 0             @ lvgl/src/lv_widgets/lv_btnmatrix.c:328:32
	bl	lv_obj_get_ext_attr
	.loc	10 328 26                       @ lvgl/src/lv_widgets/lv_btnmatrix.c:328:26
	str	r0, [sp, #4]
.Ltmp451:
	.loc	10 330 8 is_stmt 1              @ lvgl/src/lv_widgets/lv_btnmatrix.c:330:8
	ldrh.w	r0, [sp, #10]
	.loc	10 330 18 is_stmt 0             @ lvgl/src/lv_widgets/lv_btnmatrix.c:330:18
	ldr	r1, [sp, #4]
	.loc	10 330 23                       @ lvgl/src/lv_widgets/lv_btnmatrix.c:330:23
	ldrh	r1, [r1, #20]
.Ltmp452:
	.loc	10 330 8                        @ lvgl/src/lv_widgets/lv_btnmatrix.c:330:8
	cmp	r0, r1
	blt	.LBB14_7
	b	.LBB14_6
.LBB14_6:
.Ltmp453:
	.loc	10 330 32                       @ lvgl/src/lv_widgets/lv_btnmatrix.c:330:32
	b	.LBB14_11
.Ltmp454:
.LBB14_7:
	.loc	10 333 8 is_stmt 1              @ lvgl/src/lv_widgets/lv_btnmatrix.c:333:8
	ldr	r0, [sp, #4]
	.loc	10 333 13 is_stmt 0             @ lvgl/src/lv_widgets/lv_btnmatrix.c:333:13
	ldrb	r0, [r0, #28]
	lsrs	r0, r0, #1
	.loc	10 333 23                       @ lvgl/src/lv_widgets/lv_btnmatrix.c:333:23
	lsls	r0, r0, #31
	cbz	r0, .LBB14_10
	b	.LBB14_8
.LBB14_8:
	.loc	10 333 27                       @ lvgl/src/lv_widgets/lv_btnmatrix.c:333:27
	ldrh.w	r0, [sp, #8]
.Ltmp455:
	.loc	10 333 8                        @ lvgl/src/lv_widgets/lv_btnmatrix.c:333:8
	lsls	r0, r0, #24
	cmp	r0, #0
	bpl	.LBB14_10
	b	.LBB14_9
.LBB14_9:
.Ltmp456:
	.loc	10 334 41 is_stmt 1             @ lvgl/src/lv_widgets/lv_btnmatrix.c:334:41
	ldr	r0, [sp, #12]
	movs	r1, #128
	.loc	10 334 9 is_stmt 0              @ lvgl/src/lv_widgets/lv_btnmatrix.c:334:9
	bl	lv_btnmatrix_clear_btn_ctrl_all
	.loc	10 335 27 is_stmt 1             @ lvgl/src/lv_widgets/lv_btnmatrix.c:335:27
	ldrh.w	r0, [sp, #10]
	.loc	10 335 9 is_stmt 0              @ lvgl/src/lv_widgets/lv_btnmatrix.c:335:9
	ldr	r1, [sp, #4]
	.loc	10 335 25                       @ lvgl/src/lv_widgets/lv_btnmatrix.c:335:25
	strh	r0, [r1, #26]
	.loc	10 336 5 is_stmt 1              @ lvgl/src/lv_widgets/lv_btnmatrix.c:336:5
	b	.LBB14_10
.Ltmp457:
.LBB14_10:
	.loc	10 338 31                       @ lvgl/src/lv_widgets/lv_btnmatrix.c:338:31
	ldrh.w	r3, [sp, #8]
	.loc	10 338 5 is_stmt 0              @ lvgl/src/lv_widgets/lv_btnmatrix.c:338:5
	ldr	r0, [sp, #4]
	.loc	10 338 10                       @ lvgl/src/lv_widgets/lv_btnmatrix.c:338:10
	ldr	r1, [r0, #8]
	.loc	10 338 20                       @ lvgl/src/lv_widgets/lv_btnmatrix.c:338:20
	ldrh.w	r2, [sp, #10]
	.loc	10 338 28                       @ lvgl/src/lv_widgets/lv_btnmatrix.c:338:28
	ldrh.w	r0, [r1, r2, lsl #1]
	orrs	r0, r3
	strh.w	r0, [r1, r2, lsl #1]
	.loc	10 339 28 is_stmt 1             @ lvgl/src/lv_widgets/lv_btnmatrix.c:339:28
	ldr	r0, [sp, #12]
	.loc	10 339 34 is_stmt 0             @ lvgl/src/lv_widgets/lv_btnmatrix.c:339:34
	ldrh.w	r1, [sp, #10]
	.loc	10 339 5                        @ lvgl/src/lv_widgets/lv_btnmatrix.c:339:5
	bl	invalidate_button_area
	.loc	10 340 1 is_stmt 1              @ lvgl/src/lv_widgets/lv_btnmatrix.c:340:1
	b	.LBB14_11
.LBB14_11:
	add	sp, #16
	pop	{r7, pc}
.Ltmp458:
.Lfunc_end14:
	.size	lv_btnmatrix_set_btn_ctrl, .Lfunc_end14-lv_btnmatrix_set_btn_ctrl
	.cfi_endproc
	.cantunwind
	.fnend
                                        @ -- End function
	.section	.text.lv_btnmatrix_clear_btn_ctrl_all,"ax",%progbits
	.hidden	lv_btnmatrix_clear_btn_ctrl_all @ -- Begin function lv_btnmatrix_clear_btn_ctrl_all
	.globl	lv_btnmatrix_clear_btn_ctrl_all
	.p2align	3
	.type	lv_btnmatrix_clear_btn_ctrl_all,%function
	.code	16                              @ @lv_btnmatrix_clear_btn_ctrl_all
	.thumb_func
lv_btnmatrix_clear_btn_ctrl_all:
.Lfunc_begin15:
	.loc	10 382 0                        @ lvgl/src/lv_widgets/lv_btnmatrix.c:382:0
	.fnstart
	.cfi_startproc
@ %bb.0:
	.save	{r7, lr}
	push	{r7, lr}
	.cfi_def_cfa_offset 8
	.cfi_offset lr, -4
	.cfi_offset r7, -8
	.pad	#16
	sub	sp, #16
	.cfi_def_cfa_offset 24
                                        @ kill: def $r2 killed $r1
	str	r0, [sp, #12]
	strh.w	r1, [sp, #10]
.Ltmp459:
	.loc	10 383 5 prologue_end           @ lvgl/src/lv_widgets/lv_btnmatrix.c:383:5
	b	.LBB15_1
.LBB15_1:
.Ltmp460:
	.loc	10 383 5 is_stmt 0              @ lvgl/src/lv_widgets/lv_btnmatrix.c:383:5
	ldr	r0, [sp, #12]
	bl	lv_debug_check_null
.Ltmp461:
	.loc	10 383 5                        @ lvgl/src/lv_widgets/lv_btnmatrix.c:383:5
	cbnz	r0, .LBB15_4
	b	.LBB15_2
.LBB15_2:
.Ltmp462:
	.loc	10 383 5                        @ lvgl/src/lv_widgets/lv_btnmatrix.c:383:5
	ldr	r2, [sp, #12]
	movw	r0, :lower16:.L.str.1
	movt	r0, :upper16:.L.str.1
	movs	r3, #0
	bl	lv_debug_log_error
	b	.LBB15_3
.LBB15_3:                               @ =>This Inner Loop Header: Depth=1
	b	.LBB15_3
.Ltmp463:
.LBB15_4:
	.loc	10 383 5                        @ lvgl/src/lv_widgets/lv_btnmatrix.c:383:5
	b	.LBB15_5
.Ltmp464:
.LBB15_5:
	.loc	10 385 52 is_stmt 1             @ lvgl/src/lv_widgets/lv_btnmatrix.c:385:52
	ldr	r0, [sp, #12]
	.loc	10 385 32 is_stmt 0             @ lvgl/src/lv_widgets/lv_btnmatrix.c:385:32
	bl	lv_obj_get_ext_attr
	.loc	10 385 26                       @ lvgl/src/lv_widgets/lv_btnmatrix.c:385:26
	str	r0, [sp, #4]
	movs	r0, #0
.Ltmp465:
	.loc	10 387 11 is_stmt 1             @ lvgl/src/lv_widgets/lv_btnmatrix.c:387:11
	strh.w	r0, [sp, #2]
	.loc	10 387 9 is_stmt 0              @ lvgl/src/lv_widgets/lv_btnmatrix.c:387:9
	b	.LBB15_6
.LBB15_6:                               @ =>This Inner Loop Header: Depth=1
.Ltmp466:
	.loc	10 387 16                       @ lvgl/src/lv_widgets/lv_btnmatrix.c:387:16
	ldrh.w	r0, [sp, #2]
	.loc	10 387 20                       @ lvgl/src/lv_widgets/lv_btnmatrix.c:387:20
	ldr	r1, [sp, #4]
	.loc	10 387 25                       @ lvgl/src/lv_widgets/lv_btnmatrix.c:387:25
	ldrh	r1, [r1, #20]
.Ltmp467:
	.loc	10 387 5                        @ lvgl/src/lv_widgets/lv_btnmatrix.c:387:5
	cmp	r0, r1
	bge	.LBB15_9
	b	.LBB15_7
.LBB15_7:                               @   in Loop: Header=BB15_6 Depth=1
.Ltmp468:
	.loc	10 388 37 is_stmt 1             @ lvgl/src/lv_widgets/lv_btnmatrix.c:388:37
	ldr	r0, [sp, #12]
	.loc	10 388 43 is_stmt 0             @ lvgl/src/lv_widgets/lv_btnmatrix.c:388:43
	ldrh.w	r1, [sp, #2]
	.loc	10 388 46                       @ lvgl/src/lv_widgets/lv_btnmatrix.c:388:46
	ldrh.w	r2, [sp, #10]
	.loc	10 388 9                        @ lvgl/src/lv_widgets/lv_btnmatrix.c:388:9
	bl	lv_btnmatrix_clear_btn_ctrl
	.loc	10 389 5 is_stmt 1              @ lvgl/src/lv_widgets/lv_btnmatrix.c:389:5
	b	.LBB15_8
.Ltmp469:
.LBB15_8:                               @   in Loop: Header=BB15_6 Depth=1
	.loc	10 387 35                       @ lvgl/src/lv_widgets/lv_btnmatrix.c:387:35
	ldrh.w	r0, [sp, #2]
	adds	r0, #1
	strh.w	r0, [sp, #2]
	.loc	10 387 5 is_stmt 0              @ lvgl/src/lv_widgets/lv_btnmatrix.c:387:5
	b	.LBB15_6
.Ltmp470:
.LBB15_9:
	.loc	10 390 1 is_stmt 1              @ lvgl/src/lv_widgets/lv_btnmatrix.c:390:1
	add	sp, #16
	pop	{r7, pc}
.Ltmp471:
.Lfunc_end15:
	.size	lv_btnmatrix_clear_btn_ctrl_all, .Lfunc_end15-lv_btnmatrix_clear_btn_ctrl_all
	.cfi_endproc
	.cantunwind
	.fnend
                                        @ -- End function
	.section	.text.invalidate_button_area,"ax",%progbits
	.p2align	3                               @ -- Begin function invalidate_button_area
	.type	invalidate_button_area,%function
	.code	16                              @ @invalidate_button_area
	.thumb_func
invalidate_button_area:
.Lfunc_begin16:
	.loc	10 1270 0                       @ lvgl/src/lv_widgets/lv_btnmatrix.c:1270:0
	.fnstart
	.cfi_startproc
@ %bb.0:
	.save	{r7, lr}
	push	{r7, lr}
	.cfi_def_cfa_offset 8
	.cfi_offset lr, -4
	.cfi_offset r7, -8
	.pad	#32
	sub	sp, #32
	.cfi_def_cfa_offset 40
                                        @ kill: def $r2 killed $r1
	str	r0, [sp, #28]
	strh.w	r1, [sp, #26]
.Ltmp472:
	.loc	10 1271 8 prologue_end          @ lvgl/src/lv_widgets/lv_btnmatrix.c:1271:8
	ldrh.w	r0, [sp, #26]
	movw	r1, #65535
.Ltmp473:
	.loc	10 1271 8 is_stmt 0             @ lvgl/src/lv_widgets/lv_btnmatrix.c:1271:8
	cmp	r0, r1
	bne	.LBB16_2
	b	.LBB16_1
.LBB16_1:
.Ltmp474:
	.loc	10 1271 42                      @ lvgl/src/lv_widgets/lv_btnmatrix.c:1271:42
	b	.LBB16_3
.Ltmp475:
.LBB16_2:
	.loc	10 1276 52 is_stmt 1            @ lvgl/src/lv_widgets/lv_btnmatrix.c:1276:52
	ldr	r0, [sp, #28]
	.loc	10 1276 32 is_stmt 0            @ lvgl/src/lv_widgets/lv_btnmatrix.c:1276:32
	bl	lv_obj_get_ext_attr
	.loc	10 1276 26                      @ lvgl/src/lv_widgets/lv_btnmatrix.c:1276:26
	str	r0, [sp, #4]
	.loc	10 1277 30 is_stmt 1            @ lvgl/src/lv_widgets/lv_btnmatrix.c:1277:30
	ldr	r0, [sp, #4]
	.loc	10 1277 35 is_stmt 0            @ lvgl/src/lv_widgets/lv_btnmatrix.c:1277:35
	ldr	r0, [r0, #4]
	.loc	10 1277 48                      @ lvgl/src/lv_widgets/lv_btnmatrix.c:1277:48
	ldrh.w	r1, [sp, #26]
	.loc	10 1277 30                      @ lvgl/src/lv_widgets/lv_btnmatrix.c:1277:30
	add.w	r1, r0, r1, lsl #3
	add	r0, sp, #16
	.loc	10 1277 5                       @ lvgl/src/lv_widgets/lv_btnmatrix.c:1277:5
	str	r0, [sp]                        @ 4-byte Spill
	bl	lv_area_copy
	.loc	10 1278 23 is_stmt 1            @ lvgl/src/lv_widgets/lv_btnmatrix.c:1278:23
	ldr	r0, [sp, #28]
	add	r1, sp, #8
	.loc	10 1278 5 is_stmt 0             @ lvgl/src/lv_widgets/lv_btnmatrix.c:1278:5
	bl	lv_obj_get_coords
	ldr	r1, [sp]                        @ 4-byte Reload
	.loc	10 1281 20 is_stmt 1            @ lvgl/src/lv_widgets/lv_btnmatrix.c:1281:20
	ldrh.w	r2, [sp, #8]
	.loc	10 1281 17 is_stmt 0            @ lvgl/src/lv_widgets/lv_btnmatrix.c:1281:17
	ldrh.w	r0, [sp, #16]
	add	r0, r2
	strh.w	r0, [sp, #16]
	.loc	10 1282 20 is_stmt 1            @ lvgl/src/lv_widgets/lv_btnmatrix.c:1282:20
	ldrh.w	r2, [sp, #10]
	.loc	10 1282 17 is_stmt 0            @ lvgl/src/lv_widgets/lv_btnmatrix.c:1282:17
	ldrh.w	r0, [sp, #18]
	add	r0, r2
	strh.w	r0, [sp, #18]
	.loc	10 1283 20 is_stmt 1            @ lvgl/src/lv_widgets/lv_btnmatrix.c:1283:20
	ldrh.w	r2, [sp, #8]
	.loc	10 1283 17 is_stmt 0            @ lvgl/src/lv_widgets/lv_btnmatrix.c:1283:17
	ldrh.w	r0, [sp, #20]
	add	r0, r2
	strh.w	r0, [sp, #20]
	.loc	10 1284 20 is_stmt 1            @ lvgl/src/lv_widgets/lv_btnmatrix.c:1284:20
	ldrh.w	r2, [sp, #10]
	.loc	10 1284 17 is_stmt 0            @ lvgl/src/lv_widgets/lv_btnmatrix.c:1284:17
	ldrh.w	r0, [sp, #22]
	add	r0, r2
	strh.w	r0, [sp, #22]
	.loc	10 1286 28 is_stmt 1            @ lvgl/src/lv_widgets/lv_btnmatrix.c:1286:28
	ldr	r0, [sp, #28]
	.loc	10 1286 5 is_stmt 0             @ lvgl/src/lv_widgets/lv_btnmatrix.c:1286:5
	bl	lv_obj_invalidate_area
	.loc	10 1287 1 is_stmt 1             @ lvgl/src/lv_widgets/lv_btnmatrix.c:1287:1
	b	.LBB16_3
.LBB16_3:
	add	sp, #32
	pop	{r7, pc}
.Ltmp476:
.Lfunc_end16:
	.size	invalidate_button_area, .Lfunc_end16-invalidate_button_area
	.cfi_endproc
	.cantunwind
	.fnend
                                        @ -- End function
	.section	.text.lv_btnmatrix_clear_btn_ctrl,"ax",%progbits
	.hidden	lv_btnmatrix_clear_btn_ctrl     @ -- Begin function lv_btnmatrix_clear_btn_ctrl
	.globl	lv_btnmatrix_clear_btn_ctrl
	.p2align	3
	.type	lv_btnmatrix_clear_btn_ctrl,%function
	.code	16                              @ @lv_btnmatrix_clear_btn_ctrl
	.thumb_func
lv_btnmatrix_clear_btn_ctrl:
.Lfunc_begin17:
	.loc	10 348 0                        @ lvgl/src/lv_widgets/lv_btnmatrix.c:348:0
	.fnstart
	.cfi_startproc
@ %bb.0:
	.save	{r7, lr}
	push	{r7, lr}
	.cfi_def_cfa_offset 8
	.cfi_offset lr, -4
	.cfi_offset r7, -8
	.pad	#16
	sub	sp, #16
	.cfi_def_cfa_offset 24
                                        @ kill: def $r3 killed $r2
                                        @ kill: def $r3 killed $r1
	str	r0, [sp, #12]
	strh.w	r1, [sp, #10]
	strh.w	r2, [sp, #8]
.Ltmp477:
	.loc	10 349 5 prologue_end           @ lvgl/src/lv_widgets/lv_btnmatrix.c:349:5
	b	.LBB17_1
.LBB17_1:
.Ltmp478:
	.loc	10 349 5 is_stmt 0              @ lvgl/src/lv_widgets/lv_btnmatrix.c:349:5
	ldr	r0, [sp, #12]
	bl	lv_debug_check_null
.Ltmp479:
	.loc	10 349 5                        @ lvgl/src/lv_widgets/lv_btnmatrix.c:349:5
	cbnz	r0, .LBB17_4
	b	.LBB17_2
.LBB17_2:
.Ltmp480:
	.loc	10 349 5                        @ lvgl/src/lv_widgets/lv_btnmatrix.c:349:5
	ldr	r2, [sp, #12]
	movw	r0, :lower16:.L.str.1
	movt	r0, :upper16:.L.str.1
	movs	r3, #0
	bl	lv_debug_log_error
	b	.LBB17_3
.LBB17_3:                               @ =>This Inner Loop Header: Depth=1
	b	.LBB17_3
.Ltmp481:
.LBB17_4:
	.loc	10 349 5                        @ lvgl/src/lv_widgets/lv_btnmatrix.c:349:5
	b	.LBB17_5
.Ltmp482:
.LBB17_5:
	.loc	10 351 52 is_stmt 1             @ lvgl/src/lv_widgets/lv_btnmatrix.c:351:52
	ldr	r0, [sp, #12]
	.loc	10 351 32 is_stmt 0             @ lvgl/src/lv_widgets/lv_btnmatrix.c:351:32
	bl	lv_obj_get_ext_attr
	.loc	10 351 26                       @ lvgl/src/lv_widgets/lv_btnmatrix.c:351:26
	str	r0, [sp, #4]
.Ltmp483:
	.loc	10 353 8 is_stmt 1              @ lvgl/src/lv_widgets/lv_btnmatrix.c:353:8
	ldrh.w	r0, [sp, #10]
	.loc	10 353 18 is_stmt 0             @ lvgl/src/lv_widgets/lv_btnmatrix.c:353:18
	ldr	r1, [sp, #4]
	.loc	10 353 23                       @ lvgl/src/lv_widgets/lv_btnmatrix.c:353:23
	ldrh	r1, [r1, #20]
.Ltmp484:
	.loc	10 353 8                        @ lvgl/src/lv_widgets/lv_btnmatrix.c:353:8
	cmp	r0, r1
	blt	.LBB17_7
	b	.LBB17_6
.LBB17_6:
.Ltmp485:
	.loc	10 353 32                       @ lvgl/src/lv_widgets/lv_btnmatrix.c:353:32
	b	.LBB17_8
.Ltmp486:
.LBB17_7:
	.loc	10 355 33 is_stmt 1             @ lvgl/src/lv_widgets/lv_btnmatrix.c:355:33
	ldrh.w	r3, [sp, #8]
	.loc	10 355 5 is_stmt 0              @ lvgl/src/lv_widgets/lv_btnmatrix.c:355:5
	ldr	r0, [sp, #4]
	.loc	10 355 10                       @ lvgl/src/lv_widgets/lv_btnmatrix.c:355:10
	ldr	r1, [r0, #8]
	.loc	10 355 20                       @ lvgl/src/lv_widgets/lv_btnmatrix.c:355:20
	ldrh.w	r2, [sp, #10]
	.loc	10 355 28                       @ lvgl/src/lv_widgets/lv_btnmatrix.c:355:28
	ldrh.w	r0, [r1, r2, lsl #1]
	bics	r0, r3
	strh.w	r0, [r1, r2, lsl #1]
	.loc	10 356 28 is_stmt 1             @ lvgl/src/lv_widgets/lv_btnmatrix.c:356:28
	ldr	r0, [sp, #12]
	.loc	10 356 34 is_stmt 0             @ lvgl/src/lv_widgets/lv_btnmatrix.c:356:34
	ldrh.w	r1, [sp, #10]
	.loc	10 356 5                        @ lvgl/src/lv_widgets/lv_btnmatrix.c:356:5
	bl	invalidate_button_area
	.loc	10 357 1 is_stmt 1              @ lvgl/src/lv_widgets/lv_btnmatrix.c:357:1
	b	.LBB17_8
.LBB17_8:
	add	sp, #16
	pop	{r7, pc}
.Ltmp487:
.Lfunc_end17:
	.size	lv_btnmatrix_clear_btn_ctrl, .Lfunc_end17-lv_btnmatrix_clear_btn_ctrl
	.cfi_endproc
	.cantunwind
	.fnend
                                        @ -- End function
	.section	.text.lv_btnmatrix_set_btn_ctrl_all,"ax",%progbits
	.hidden	lv_btnmatrix_set_btn_ctrl_all   @ -- Begin function lv_btnmatrix_set_btn_ctrl_all
	.globl	lv_btnmatrix_set_btn_ctrl_all
	.p2align	3
	.type	lv_btnmatrix_set_btn_ctrl_all,%function
	.code	16                              @ @lv_btnmatrix_set_btn_ctrl_all
	.thumb_func
lv_btnmatrix_set_btn_ctrl_all:
.Lfunc_begin18:
	.loc	10 365 0                        @ lvgl/src/lv_widgets/lv_btnmatrix.c:365:0
	.fnstart
	.cfi_startproc
@ %bb.0:
	.save	{r7, lr}
	push	{r7, lr}
	.cfi_def_cfa_offset 8
	.cfi_offset lr, -4
	.cfi_offset r7, -8
	.pad	#16
	sub	sp, #16
	.cfi_def_cfa_offset 24
                                        @ kill: def $r2 killed $r1
	str	r0, [sp, #12]
	strh.w	r1, [sp, #10]
.Ltmp488:
	.loc	10 366 5 prologue_end           @ lvgl/src/lv_widgets/lv_btnmatrix.c:366:5
	b	.LBB18_1
.LBB18_1:
.Ltmp489:
	.loc	10 366 5 is_stmt 0              @ lvgl/src/lv_widgets/lv_btnmatrix.c:366:5
	ldr	r0, [sp, #12]
	bl	lv_debug_check_null
.Ltmp490:
	.loc	10 366 5                        @ lvgl/src/lv_widgets/lv_btnmatrix.c:366:5
	cbnz	r0, .LBB18_4
	b	.LBB18_2
.LBB18_2:
.Ltmp491:
	.loc	10 366 5                        @ lvgl/src/lv_widgets/lv_btnmatrix.c:366:5
	ldr	r2, [sp, #12]
	movw	r0, :lower16:.L.str.1
	movt	r0, :upper16:.L.str.1
	movs	r3, #0
	bl	lv_debug_log_error
	b	.LBB18_3
.LBB18_3:                               @ =>This Inner Loop Header: Depth=1
	b	.LBB18_3
.Ltmp492:
.LBB18_4:
	.loc	10 366 5                        @ lvgl/src/lv_widgets/lv_btnmatrix.c:366:5
	b	.LBB18_5
.Ltmp493:
.LBB18_5:
	.loc	10 368 52 is_stmt 1             @ lvgl/src/lv_widgets/lv_btnmatrix.c:368:52
	ldr	r0, [sp, #12]
	.loc	10 368 32 is_stmt 0             @ lvgl/src/lv_widgets/lv_btnmatrix.c:368:32
	bl	lv_obj_get_ext_attr
	.loc	10 368 26                       @ lvgl/src/lv_widgets/lv_btnmatrix.c:368:26
	str	r0, [sp, #4]
	movs	r0, #0
.Ltmp494:
	.loc	10 370 11 is_stmt 1             @ lvgl/src/lv_widgets/lv_btnmatrix.c:370:11
	strh.w	r0, [sp, #2]
	.loc	10 370 9 is_stmt 0              @ lvgl/src/lv_widgets/lv_btnmatrix.c:370:9
	b	.LBB18_6
.LBB18_6:                               @ =>This Inner Loop Header: Depth=1
.Ltmp495:
	.loc	10 370 16                       @ lvgl/src/lv_widgets/lv_btnmatrix.c:370:16
	ldrh.w	r0, [sp, #2]
	.loc	10 370 20                       @ lvgl/src/lv_widgets/lv_btnmatrix.c:370:20
	ldr	r1, [sp, #4]
	.loc	10 370 25                       @ lvgl/src/lv_widgets/lv_btnmatrix.c:370:25
	ldrh	r1, [r1, #20]
.Ltmp496:
	.loc	10 370 5                        @ lvgl/src/lv_widgets/lv_btnmatrix.c:370:5
	cmp	r0, r1
	bge	.LBB18_9
	b	.LBB18_7
.LBB18_7:                               @   in Loop: Header=BB18_6 Depth=1
.Ltmp497:
	.loc	10 371 35 is_stmt 1             @ lvgl/src/lv_widgets/lv_btnmatrix.c:371:35
	ldr	r0, [sp, #12]
	.loc	10 371 41 is_stmt 0             @ lvgl/src/lv_widgets/lv_btnmatrix.c:371:41
	ldrh.w	r1, [sp, #2]
	.loc	10 371 44                       @ lvgl/src/lv_widgets/lv_btnmatrix.c:371:44
	ldrh.w	r2, [sp, #10]
	.loc	10 371 9                        @ lvgl/src/lv_widgets/lv_btnmatrix.c:371:9
	bl	lv_btnmatrix_set_btn_ctrl
	.loc	10 372 5 is_stmt 1              @ lvgl/src/lv_widgets/lv_btnmatrix.c:372:5
	b	.LBB18_8
.Ltmp498:
.LBB18_8:                               @   in Loop: Header=BB18_6 Depth=1
	.loc	10 370 35                       @ lvgl/src/lv_widgets/lv_btnmatrix.c:370:35
	ldrh.w	r0, [sp, #2]
	adds	r0, #1
	strh.w	r0, [sp, #2]
	.loc	10 370 5 is_stmt 0              @ lvgl/src/lv_widgets/lv_btnmatrix.c:370:5
	b	.LBB18_6
.Ltmp499:
.LBB18_9:
	.loc	10 373 1 is_stmt 1              @ lvgl/src/lv_widgets/lv_btnmatrix.c:373:1
	add	sp, #16
	pop	{r7, pc}
.Ltmp500:
.Lfunc_end18:
	.size	lv_btnmatrix_set_btn_ctrl_all, .Lfunc_end18-lv_btnmatrix_set_btn_ctrl_all
	.cfi_endproc
	.cantunwind
	.fnend
                                        @ -- End function
	.section	.text.lv_btnmatrix_set_btn_width,"ax",%progbits
	.hidden	lv_btnmatrix_set_btn_width      @ -- Begin function lv_btnmatrix_set_btn_width
	.globl	lv_btnmatrix_set_btn_width
	.p2align	3
	.type	lv_btnmatrix_set_btn_width,%function
	.code	16                              @ @lv_btnmatrix_set_btn_width
	.thumb_func
lv_btnmatrix_set_btn_width:
.Lfunc_begin19:
	.loc	10 402 0                        @ lvgl/src/lv_widgets/lv_btnmatrix.c:402:0
	.fnstart
	.cfi_startproc
@ %bb.0:
	.save	{r7, lr}
	push	{r7, lr}
	.cfi_def_cfa_offset 8
	.cfi_offset lr, -4
	.cfi_offset r7, -8
	.pad	#16
	sub	sp, #16
	.cfi_def_cfa_offset 24
                                        @ kill: def $r3 killed $r2
                                        @ kill: def $r3 killed $r1
	str	r0, [sp, #12]
	strh.w	r1, [sp, #10]
	strb.w	r2, [sp, #9]
.Ltmp501:
	.loc	10 403 5 prologue_end           @ lvgl/src/lv_widgets/lv_btnmatrix.c:403:5
	b	.LBB19_1
.LBB19_1:
.Ltmp502:
	.loc	10 403 5 is_stmt 0              @ lvgl/src/lv_widgets/lv_btnmatrix.c:403:5
	ldr	r0, [sp, #12]
	bl	lv_debug_check_null
.Ltmp503:
	.loc	10 403 5                        @ lvgl/src/lv_widgets/lv_btnmatrix.c:403:5
	cbnz	r0, .LBB19_4
	b	.LBB19_2
.LBB19_2:
.Ltmp504:
	.loc	10 403 5                        @ lvgl/src/lv_widgets/lv_btnmatrix.c:403:5
	ldr	r2, [sp, #12]
	movw	r0, :lower16:.L.str.1
	movt	r0, :upper16:.L.str.1
	movs	r3, #0
	bl	lv_debug_log_error
	b	.LBB19_3
.LBB19_3:                               @ =>This Inner Loop Header: Depth=1
	b	.LBB19_3
.Ltmp505:
.LBB19_4:
	.loc	10 403 5                        @ lvgl/src/lv_widgets/lv_btnmatrix.c:403:5
	b	.LBB19_5
.Ltmp506:
.LBB19_5:
	.loc	10 405 52 is_stmt 1             @ lvgl/src/lv_widgets/lv_btnmatrix.c:405:52
	ldr	r0, [sp, #12]
	.loc	10 405 32 is_stmt 0             @ lvgl/src/lv_widgets/lv_btnmatrix.c:405:32
	bl	lv_obj_get_ext_attr
	.loc	10 405 26                       @ lvgl/src/lv_widgets/lv_btnmatrix.c:405:26
	str	r0, [sp, #4]
.Ltmp507:
	.loc	10 406 8 is_stmt 1              @ lvgl/src/lv_widgets/lv_btnmatrix.c:406:8
	ldrh.w	r0, [sp, #10]
	.loc	10 406 18 is_stmt 0             @ lvgl/src/lv_widgets/lv_btnmatrix.c:406:18
	ldr	r1, [sp, #4]
	.loc	10 406 23                       @ lvgl/src/lv_widgets/lv_btnmatrix.c:406:23
	ldrh	r1, [r1, #20]
.Ltmp508:
	.loc	10 406 8                        @ lvgl/src/lv_widgets/lv_btnmatrix.c:406:8
	cmp	r0, r1
	blt	.LBB19_7
	b	.LBB19_6
.LBB19_6:
.Ltmp509:
	.loc	10 406 32                       @ lvgl/src/lv_widgets/lv_btnmatrix.c:406:32
	b	.LBB19_8
.Ltmp510:
.LBB19_7:
	.loc	10 407 5 is_stmt 1              @ lvgl/src/lv_widgets/lv_btnmatrix.c:407:5
	ldr	r0, [sp, #4]
	.loc	10 407 10 is_stmt 0             @ lvgl/src/lv_widgets/lv_btnmatrix.c:407:10
	ldr	r1, [r0, #8]
	.loc	10 407 20                       @ lvgl/src/lv_widgets/lv_btnmatrix.c:407:20
	ldrh.w	r2, [sp, #10]
	.loc	10 407 28                       @ lvgl/src/lv_widgets/lv_btnmatrix.c:407:28
	ldrh.w	r0, [r1, r2, lsl #1]
	bic	r0, r0, #7
	strh.w	r0, [r1, r2, lsl #1]
	.loc	10 408 58 is_stmt 1             @ lvgl/src/lv_widgets/lv_btnmatrix.c:408:58
	ldrb.w	r0, [sp, #9]
	.loc	10 408 56 is_stmt 0             @ lvgl/src/lv_widgets/lv_btnmatrix.c:408:56
	and	r3, r0, #7
	.loc	10 408 5                        @ lvgl/src/lv_widgets/lv_btnmatrix.c:408:5
	ldr	r0, [sp, #4]
	.loc	10 408 10                       @ lvgl/src/lv_widgets/lv_btnmatrix.c:408:10
	ldr	r1, [r0, #8]
	.loc	10 408 20                       @ lvgl/src/lv_widgets/lv_btnmatrix.c:408:20
	ldrh.w	r2, [sp, #10]
	.loc	10 408 28                       @ lvgl/src/lv_widgets/lv_btnmatrix.c:408:28
	ldrh.w	r0, [r1, r2, lsl #1]
	orrs	r0, r3
	strh.w	r0, [r1, r2, lsl #1]
	.loc	10 410 26 is_stmt 1             @ lvgl/src/lv_widgets/lv_btnmatrix.c:410:26
	ldr	r0, [sp, #12]
	.loc	10 410 32 is_stmt 0             @ lvgl/src/lv_widgets/lv_btnmatrix.c:410:32
	ldr	r1, [sp, #4]
	.loc	10 410 37                       @ lvgl/src/lv_widgets/lv_btnmatrix.c:410:37
	ldr	r1, [r1]
	.loc	10 410 5                        @ lvgl/src/lv_widgets/lv_btnmatrix.c:410:5
	bl	lv_btnmatrix_set_map
	.loc	10 411 1 is_stmt 1              @ lvgl/src/lv_widgets/lv_btnmatrix.c:411:1
	b	.LBB19_8
.LBB19_8:
	add	sp, #16
	pop	{r7, pc}
.Ltmp511:
.Lfunc_end19:
	.size	lv_btnmatrix_set_btn_width, .Lfunc_end19-lv_btnmatrix_set_btn_width
	.cfi_endproc
	.cantunwind
	.fnend
                                        @ -- End function
	.section	.text.lv_btnmatrix_set_one_check,"ax",%progbits
	.hidden	lv_btnmatrix_set_one_check      @ -- Begin function lv_btnmatrix_set_one_check
	.globl	lv_btnmatrix_set_one_check
	.p2align	3
	.type	lv_btnmatrix_set_one_check,%function
	.code	16                              @ @lv_btnmatrix_set_one_check
	.thumb_func
lv_btnmatrix_set_one_check:
.Lfunc_begin20:
	.loc	10 421 0                        @ lvgl/src/lv_widgets/lv_btnmatrix.c:421:0
	.fnstart
	.cfi_startproc
@ %bb.0:
	.save	{r7, lr}
	push	{r7, lr}
	.cfi_def_cfa_offset 8
	.cfi_offset lr, -4
	.cfi_offset r7, -8
	.pad	#16
	sub	sp, #16
	.cfi_def_cfa_offset 24
                                        @ kill: def $r2 killed $r1
	str	r0, [sp, #12]
	strb.w	r1, [sp, #11]
.Ltmp512:
	.loc	10 422 5 prologue_end           @ lvgl/src/lv_widgets/lv_btnmatrix.c:422:5
	b	.LBB20_1
.LBB20_1:
.Ltmp513:
	.loc	10 422 5 is_stmt 0              @ lvgl/src/lv_widgets/lv_btnmatrix.c:422:5
	ldr	r0, [sp, #12]
	bl	lv_debug_check_null
.Ltmp514:
	.loc	10 422 5                        @ lvgl/src/lv_widgets/lv_btnmatrix.c:422:5
	cbnz	r0, .LBB20_4
	b	.LBB20_2
.LBB20_2:
.Ltmp515:
	.loc	10 422 5                        @ lvgl/src/lv_widgets/lv_btnmatrix.c:422:5
	ldr	r2, [sp, #12]
	movw	r0, :lower16:.L.str.1
	movt	r0, :upper16:.L.str.1
	movs	r3, #0
	bl	lv_debug_log_error
	b	.LBB20_3
.LBB20_3:                               @ =>This Inner Loop Header: Depth=1
	b	.LBB20_3
.Ltmp516:
.LBB20_4:
	.loc	10 422 5                        @ lvgl/src/lv_widgets/lv_btnmatrix.c:422:5
	b	.LBB20_5
.Ltmp517:
.LBB20_5:
	.loc	10 424 52 is_stmt 1             @ lvgl/src/lv_widgets/lv_btnmatrix.c:424:52
	ldr	r0, [sp, #12]
	.loc	10 424 32 is_stmt 0             @ lvgl/src/lv_widgets/lv_btnmatrix.c:424:32
	bl	lv_obj_get_ext_attr
	.loc	10 424 26                       @ lvgl/src/lv_widgets/lv_btnmatrix.c:424:26
	str	r0, [sp, #4]
	.loc	10 425 26 is_stmt 1             @ lvgl/src/lv_widgets/lv_btnmatrix.c:425:26
	ldrb.w	r0, [sp, #11]
	and	r2, r0, #1
	.loc	10 425 5 is_stmt 0              @ lvgl/src/lv_widgets/lv_btnmatrix.c:425:5
	ldr	r1, [sp, #4]
	.loc	10 425 24                       @ lvgl/src/lv_widgets/lv_btnmatrix.c:425:24
	ldrb	r0, [r1, #28]
	and	r0, r0, #253
	orr.w	r0, r0, r2, lsl #1
	strb	r0, [r1, #28]
	.loc	10 428 29 is_stmt 1             @ lvgl/src/lv_widgets/lv_btnmatrix.c:428:29
	ldr	r0, [sp, #12]
	movs	r1, #0
	.loc	10 428 5 is_stmt 0              @ lvgl/src/lv_widgets/lv_btnmatrix.c:428:5
	bl	make_one_button_toggled
	.loc	10 429 1 is_stmt 1              @ lvgl/src/lv_widgets/lv_btnmatrix.c:429:1
	add	sp, #16
	pop	{r7, pc}
.Ltmp518:
.Lfunc_end20:
	.size	lv_btnmatrix_set_one_check, .Lfunc_end20-lv_btnmatrix_set_one_check
	.cfi_endproc
	.cantunwind
	.fnend
                                        @ -- End function
	.section	.text.make_one_button_toggled,"ax",%progbits
	.p2align	3                               @ -- Begin function make_one_button_toggled
	.type	make_one_button_toggled,%function
	.code	16                              @ @make_one_button_toggled
	.thumb_func
make_one_button_toggled:
.Lfunc_begin21:
	.loc	10 1296 0                       @ lvgl/src/lv_widgets/lv_btnmatrix.c:1296:0
	.fnstart
	.cfi_startproc
@ %bb.0:
	.save	{r7, lr}
	push	{r7, lr}
	.cfi_def_cfa_offset 8
	.cfi_offset lr, -4
	.cfi_offset r7, -8
	.pad	#16
	sub	sp, #16
	.cfi_def_cfa_offset 24
                                        @ kill: def $r2 killed $r1
	str	r0, [sp, #12]
	strh.w	r1, [sp, #10]
.Ltmp519:
	.loc	10 1298 50 prologue_end         @ lvgl/src/lv_widgets/lv_btnmatrix.c:1298:50
	ldr	r0, [sp, #12]
	.loc	10 1298 56 is_stmt 0            @ lvgl/src/lv_widgets/lv_btnmatrix.c:1298:56
	ldrh.w	r1, [sp, #10]
	movs	r2, #128
	.loc	10 1298 24                      @ lvgl/src/lv_widgets/lv_btnmatrix.c:1298:24
	str	r2, [sp, #4]                    @ 4-byte Spill
	bl	lv_btnmatrix_get_btn_ctrl
	ldr	r1, [sp, #4]                    @ 4-byte Reload
	.loc	10 1298 10                      @ lvgl/src/lv_widgets/lv_btnmatrix.c:1298:10
	strb.w	r0, [sp, #9]
	.loc	10 1300 37 is_stmt 1            @ lvgl/src/lv_widgets/lv_btnmatrix.c:1300:37
	ldr	r0, [sp, #12]
	.loc	10 1300 5 is_stmt 0             @ lvgl/src/lv_widgets/lv_btnmatrix.c:1300:5
	bl	lv_btnmatrix_clear_btn_ctrl_all
.Ltmp520:
	.loc	10 1302 8 is_stmt 1             @ lvgl/src/lv_widgets/lv_btnmatrix.c:1302:8
	ldrb.w	r0, [sp, #9]
.Ltmp521:
	.loc	10 1302 8 is_stmt 0             @ lvgl/src/lv_widgets/lv_btnmatrix.c:1302:8
	lsls	r0, r0, #31
	cbz	r0, .LBB21_2
	b	.LBB21_1
.LBB21_1:
.Ltmp522:
	.loc	10 1302 47                      @ lvgl/src/lv_widgets/lv_btnmatrix.c:1302:47
	ldr	r0, [sp, #12]
	.loc	10 1302 53                      @ lvgl/src/lv_widgets/lv_btnmatrix.c:1302:53
	ldrh.w	r1, [sp, #10]
	movs	r2, #128
	.loc	10 1302 21                      @ lvgl/src/lv_widgets/lv_btnmatrix.c:1302:21
	bl	lv_btnmatrix_set_btn_ctrl
	b	.LBB21_2
.Ltmp523:
.LBB21_2:
	.loc	10 1303 1 is_stmt 1             @ lvgl/src/lv_widgets/lv_btnmatrix.c:1303:1
	add	sp, #16
	pop	{r7, pc}
.Ltmp524:
.Lfunc_end21:
	.size	make_one_button_toggled, .Lfunc_end21-make_one_button_toggled
	.cfi_endproc
	.cantunwind
	.fnend
                                        @ -- End function
	.section	.text.lv_btnmatrix_set_align,"ax",%progbits
	.hidden	lv_btnmatrix_set_align          @ -- Begin function lv_btnmatrix_set_align
	.globl	lv_btnmatrix_set_align
	.p2align	3
	.type	lv_btnmatrix_set_align,%function
	.code	16                              @ @lv_btnmatrix_set_align
	.thumb_func
lv_btnmatrix_set_align:
.Lfunc_begin22:
	.loc	10 437 0                        @ lvgl/src/lv_widgets/lv_btnmatrix.c:437:0
	.fnstart
	.cfi_startproc
@ %bb.0:
	.save	{r7, lr}
	push	{r7, lr}
	.cfi_def_cfa_offset 8
	.cfi_offset lr, -4
	.cfi_offset r7, -8
	.pad	#16
	sub	sp, #16
	.cfi_def_cfa_offset 24
                                        @ kill: def $r2 killed $r1
	str	r0, [sp, #12]
	strb.w	r1, [sp, #11]
.Ltmp525:
	.loc	10 438 5 prologue_end           @ lvgl/src/lv_widgets/lv_btnmatrix.c:438:5
	b	.LBB22_1
.LBB22_1:
.Ltmp526:
	.loc	10 438 5 is_stmt 0              @ lvgl/src/lv_widgets/lv_btnmatrix.c:438:5
	ldr	r0, [sp, #12]
	bl	lv_debug_check_null
.Ltmp527:
	.loc	10 438 5                        @ lvgl/src/lv_widgets/lv_btnmatrix.c:438:5
	cbnz	r0, .LBB22_4
	b	.LBB22_2
.LBB22_2:
.Ltmp528:
	.loc	10 438 5                        @ lvgl/src/lv_widgets/lv_btnmatrix.c:438:5
	ldr	r2, [sp, #12]
	movw	r0, :lower16:.L.str.1
	movt	r0, :upper16:.L.str.1
	movs	r3, #0
	bl	lv_debug_log_error
	b	.LBB22_3
.LBB22_3:                               @ =>This Inner Loop Header: Depth=1
	b	.LBB22_3
.Ltmp529:
.LBB22_4:
	.loc	10 438 5                        @ lvgl/src/lv_widgets/lv_btnmatrix.c:438:5
	b	.LBB22_5
.Ltmp530:
.LBB22_5:
	.loc	10 440 52 is_stmt 1             @ lvgl/src/lv_widgets/lv_btnmatrix.c:440:52
	ldr	r0, [sp, #12]
	.loc	10 440 32 is_stmt 0             @ lvgl/src/lv_widgets/lv_btnmatrix.c:440:32
	bl	lv_obj_get_ext_attr
	.loc	10 440 26                       @ lvgl/src/lv_widgets/lv_btnmatrix.c:440:26
	str	r0, [sp, #4]
.Ltmp531:
	.loc	10 441 8 is_stmt 1              @ lvgl/src/lv_widgets/lv_btnmatrix.c:441:8
	ldr	r0, [sp, #4]
	.loc	10 441 13 is_stmt 0             @ lvgl/src/lv_widgets/lv_btnmatrix.c:441:13
	ldrb	r0, [r0, #28]
	ubfx	r0, r0, #2, #2
	.loc	10 441 22                       @ lvgl/src/lv_widgets/lv_btnmatrix.c:441:22
	ldrb.w	r1, [sp, #11]
.Ltmp532:
	.loc	10 441 8                        @ lvgl/src/lv_widgets/lv_btnmatrix.c:441:8
	cmp	r0, r1
	bne	.LBB22_7
	b	.LBB22_6
.LBB22_6:
.Ltmp533:
	.loc	10 441 29                       @ lvgl/src/lv_widgets/lv_btnmatrix.c:441:29
	b	.LBB22_8
.Ltmp534:
.LBB22_7:
	.loc	10 443 18 is_stmt 1             @ lvgl/src/lv_widgets/lv_btnmatrix.c:443:18
	ldrb.w	r2, [sp, #11]
	.loc	10 443 5 is_stmt 0              @ lvgl/src/lv_widgets/lv_btnmatrix.c:443:5
	ldr	r1, [sp, #4]
	.loc	10 443 16                       @ lvgl/src/lv_widgets/lv_btnmatrix.c:443:16
	ldrb	r0, [r1, #28]
	and	r2, r2, #3
	and	r0, r0, #243
	orr.w	r0, r0, r2, lsl #2
	strb	r0, [r1, #28]
	.loc	10 445 23 is_stmt 1             @ lvgl/src/lv_widgets/lv_btnmatrix.c:445:23
	ldr	r0, [sp, #12]
	.loc	10 445 5 is_stmt 0              @ lvgl/src/lv_widgets/lv_btnmatrix.c:445:5
	bl	lv_obj_invalidate
	.loc	10 446 1 is_stmt 1              @ lvgl/src/lv_widgets/lv_btnmatrix.c:446:1
	b	.LBB22_8
.LBB22_8:
	add	sp, #16
	pop	{r7, pc}
.Ltmp535:
.Lfunc_end22:
	.size	lv_btnmatrix_set_align, .Lfunc_end22-lv_btnmatrix_set_align
	.cfi_endproc
	.cantunwind
	.fnend
                                        @ -- End function
	.section	.text.lv_btnmatrix_get_map_array,"ax",%progbits
	.hidden	lv_btnmatrix_get_map_array      @ -- Begin function lv_btnmatrix_get_map_array
	.globl	lv_btnmatrix_get_map_array
	.p2align	3
	.type	lv_btnmatrix_get_map_array,%function
	.code	16                              @ @lv_btnmatrix_get_map_array
	.thumb_func
lv_btnmatrix_get_map_array:
.Lfunc_begin23:
	.loc	10 458 0                        @ lvgl/src/lv_widgets/lv_btnmatrix.c:458:0
	.fnstart
	.cfi_startproc
@ %bb.0:
	.save	{r7, lr}
	push	{r7, lr}
	.cfi_def_cfa_offset 8
	.cfi_offset lr, -4
	.cfi_offset r7, -8
	.pad	#8
	sub	sp, #8
	.cfi_def_cfa_offset 16
	str	r0, [sp, #4]
.Ltmp536:
	.loc	10 459 5 prologue_end           @ lvgl/src/lv_widgets/lv_btnmatrix.c:459:5
	b	.LBB23_1
.LBB23_1:
.Ltmp537:
	.loc	10 459 5 is_stmt 0              @ lvgl/src/lv_widgets/lv_btnmatrix.c:459:5
	ldr	r0, [sp, #4]
	bl	lv_debug_check_null
.Ltmp538:
	.loc	10 459 5                        @ lvgl/src/lv_widgets/lv_btnmatrix.c:459:5
	cbnz	r0, .LBB23_4
	b	.LBB23_2
.LBB23_2:
.Ltmp539:
	.loc	10 459 5                        @ lvgl/src/lv_widgets/lv_btnmatrix.c:459:5
	ldr	r2, [sp, #4]
	movw	r0, :lower16:.L.str.1
	movt	r0, :upper16:.L.str.1
	movs	r3, #0
	bl	lv_debug_log_error
	b	.LBB23_3
.LBB23_3:                               @ =>This Inner Loop Header: Depth=1
	b	.LBB23_3
.Ltmp540:
.LBB23_4:
	.loc	10 459 5                        @ lvgl/src/lv_widgets/lv_btnmatrix.c:459:5
	b	.LBB23_5
.Ltmp541:
.LBB23_5:
	.loc	10 461 52 is_stmt 1             @ lvgl/src/lv_widgets/lv_btnmatrix.c:461:52
	ldr	r0, [sp, #4]
	.loc	10 461 32 is_stmt 0             @ lvgl/src/lv_widgets/lv_btnmatrix.c:461:32
	bl	lv_obj_get_ext_attr
	.loc	10 461 26                       @ lvgl/src/lv_widgets/lv_btnmatrix.c:461:26
	str	r0, [sp]
	.loc	10 462 12 is_stmt 1             @ lvgl/src/lv_widgets/lv_btnmatrix.c:462:12
	ldr	r0, [sp]
	.loc	10 462 17 is_stmt 0             @ lvgl/src/lv_widgets/lv_btnmatrix.c:462:17
	ldr	r0, [r0]
	.loc	10 462 5                        @ lvgl/src/lv_widgets/lv_btnmatrix.c:462:5
	add	sp, #8
	pop	{r7, pc}
.Ltmp542:
.Lfunc_end23:
	.size	lv_btnmatrix_get_map_array, .Lfunc_end23-lv_btnmatrix_get_map_array
	.cfi_endproc
	.cantunwind
	.fnend
                                        @ -- End function
	.section	.text.lv_btnmatrix_get_recolor,"ax",%progbits
	.hidden	lv_btnmatrix_get_recolor        @ -- Begin function lv_btnmatrix_get_recolor
	.globl	lv_btnmatrix_get_recolor
	.p2align	3
	.type	lv_btnmatrix_get_recolor,%function
	.code	16                              @ @lv_btnmatrix_get_recolor
	.thumb_func
lv_btnmatrix_get_recolor:
.Lfunc_begin24:
	.loc	10 471 0 is_stmt 1              @ lvgl/src/lv_widgets/lv_btnmatrix.c:471:0
	.fnstart
	.cfi_startproc
@ %bb.0:
	.save	{r7, lr}
	push	{r7, lr}
	.cfi_def_cfa_offset 8
	.cfi_offset lr, -4
	.cfi_offset r7, -8
	.pad	#8
	sub	sp, #8
	.cfi_def_cfa_offset 16
	str	r0, [sp, #4]
.Ltmp543:
	.loc	10 472 5 prologue_end           @ lvgl/src/lv_widgets/lv_btnmatrix.c:472:5
	b	.LBB24_1
.LBB24_1:
.Ltmp544:
	.loc	10 472 5 is_stmt 0              @ lvgl/src/lv_widgets/lv_btnmatrix.c:472:5
	ldr	r0, [sp, #4]
	bl	lv_debug_check_null
.Ltmp545:
	.loc	10 472 5                        @ lvgl/src/lv_widgets/lv_btnmatrix.c:472:5
	cbnz	r0, .LBB24_4
	b	.LBB24_2
.LBB24_2:
.Ltmp546:
	.loc	10 472 5                        @ lvgl/src/lv_widgets/lv_btnmatrix.c:472:5
	ldr	r2, [sp, #4]
	movw	r0, :lower16:.L.str.1
	movt	r0, :upper16:.L.str.1
	movs	r3, #0
	bl	lv_debug_log_error
	b	.LBB24_3
.LBB24_3:                               @ =>This Inner Loop Header: Depth=1
	b	.LBB24_3
.Ltmp547:
.LBB24_4:
	.loc	10 472 5                        @ lvgl/src/lv_widgets/lv_btnmatrix.c:472:5
	b	.LBB24_5
.Ltmp548:
.LBB24_5:
	.loc	10 474 52 is_stmt 1             @ lvgl/src/lv_widgets/lv_btnmatrix.c:474:52
	ldr	r0, [sp, #4]
	.loc	10 474 32 is_stmt 0             @ lvgl/src/lv_widgets/lv_btnmatrix.c:474:32
	bl	lv_obj_get_ext_attr
	.loc	10 474 26                       @ lvgl/src/lv_widgets/lv_btnmatrix.c:474:26
	str	r0, [sp]
	.loc	10 476 12 is_stmt 1             @ lvgl/src/lv_widgets/lv_btnmatrix.c:476:12
	ldr	r0, [sp]
	.loc	10 476 17 is_stmt 0             @ lvgl/src/lv_widgets/lv_btnmatrix.c:476:17
	ldrb	r0, [r0, #28]
	.loc	10 476 5                        @ lvgl/src/lv_widgets/lv_btnmatrix.c:476:5
	and	r0, r0, #1
	add	sp, #8
	pop	{r7, pc}
.Ltmp549:
.Lfunc_end24:
	.size	lv_btnmatrix_get_recolor, .Lfunc_end24-lv_btnmatrix_get_recolor
	.cfi_endproc
	.cantunwind
	.fnend
                                        @ -- End function
	.section	.text.lv_btnmatrix_get_active_btn,"ax",%progbits
	.hidden	lv_btnmatrix_get_active_btn     @ -- Begin function lv_btnmatrix_get_active_btn
	.globl	lv_btnmatrix_get_active_btn
	.p2align	3
	.type	lv_btnmatrix_get_active_btn,%function
	.code	16                              @ @lv_btnmatrix_get_active_btn
	.thumb_func
lv_btnmatrix_get_active_btn:
.Lfunc_begin25:
	.loc	10 486 0 is_stmt 1              @ lvgl/src/lv_widgets/lv_btnmatrix.c:486:0
	.fnstart
	.cfi_startproc
@ %bb.0:
	.save	{r7, lr}
	push	{r7, lr}
	.cfi_def_cfa_offset 8
	.cfi_offset lr, -4
	.cfi_offset r7, -8
	.pad	#8
	sub	sp, #8
	.cfi_def_cfa_offset 16
	str	r0, [sp, #4]
.Ltmp550:
	.loc	10 487 5 prologue_end           @ lvgl/src/lv_widgets/lv_btnmatrix.c:487:5
	b	.LBB25_1
.LBB25_1:
.Ltmp551:
	.loc	10 487 5 is_stmt 0              @ lvgl/src/lv_widgets/lv_btnmatrix.c:487:5
	ldr	r0, [sp, #4]
	bl	lv_debug_check_null
.Ltmp552:
	.loc	10 487 5                        @ lvgl/src/lv_widgets/lv_btnmatrix.c:487:5
	cbnz	r0, .LBB25_4
	b	.LBB25_2
.LBB25_2:
.Ltmp553:
	.loc	10 487 5                        @ lvgl/src/lv_widgets/lv_btnmatrix.c:487:5
	ldr	r2, [sp, #4]
	movw	r0, :lower16:.L.str.1
	movt	r0, :upper16:.L.str.1
	movs	r3, #0
	bl	lv_debug_log_error
	b	.LBB25_3
.LBB25_3:                               @ =>This Inner Loop Header: Depth=1
	b	.LBB25_3
.Ltmp554:
.LBB25_4:
	.loc	10 487 5                        @ lvgl/src/lv_widgets/lv_btnmatrix.c:487:5
	b	.LBB25_5
.Ltmp555:
.LBB25_5:
	.loc	10 489 52 is_stmt 1             @ lvgl/src/lv_widgets/lv_btnmatrix.c:489:52
	ldr	r0, [sp, #4]
	.loc	10 489 32 is_stmt 0             @ lvgl/src/lv_widgets/lv_btnmatrix.c:489:32
	bl	lv_obj_get_ext_attr
	.loc	10 489 26                       @ lvgl/src/lv_widgets/lv_btnmatrix.c:489:26
	str	r0, [sp]
	.loc	10 490 12 is_stmt 1             @ lvgl/src/lv_widgets/lv_btnmatrix.c:490:12
	ldr	r0, [sp]
	.loc	10 490 17 is_stmt 0             @ lvgl/src/lv_widgets/lv_btnmatrix.c:490:17
	ldrh	r0, [r0, #26]
	.loc	10 490 5                        @ lvgl/src/lv_widgets/lv_btnmatrix.c:490:5
	add	sp, #8
	pop	{r7, pc}
.Ltmp556:
.Lfunc_end25:
	.size	lv_btnmatrix_get_active_btn, .Lfunc_end25-lv_btnmatrix_get_active_btn
	.cfi_endproc
	.cantunwind
	.fnend
                                        @ -- End function
	.section	.text.lv_btnmatrix_get_active_btn_text,"ax",%progbits
	.hidden	lv_btnmatrix_get_active_btn_text @ -- Begin function lv_btnmatrix_get_active_btn_text
	.globl	lv_btnmatrix_get_active_btn_text
	.p2align	3
	.type	lv_btnmatrix_get_active_btn_text,%function
	.code	16                              @ @lv_btnmatrix_get_active_btn_text
	.thumb_func
lv_btnmatrix_get_active_btn_text:
.Lfunc_begin26:
	.loc	10 500 0 is_stmt 1              @ lvgl/src/lv_widgets/lv_btnmatrix.c:500:0
	.fnstart
	.cfi_startproc
@ %bb.0:
	.save	{r7, lr}
	push	{r7, lr}
	.cfi_def_cfa_offset 8
	.cfi_offset lr, -4
	.cfi_offset r7, -8
	.pad	#16
	sub	sp, #16
	.cfi_def_cfa_offset 24
	str	r0, [sp, #8]
.Ltmp557:
	.loc	10 501 5 prologue_end           @ lvgl/src/lv_widgets/lv_btnmatrix.c:501:5
	b	.LBB26_1
.LBB26_1:
.Ltmp558:
	.loc	10 501 5 is_stmt 0              @ lvgl/src/lv_widgets/lv_btnmatrix.c:501:5
	ldr	r0, [sp, #8]
	bl	lv_debug_check_null
.Ltmp559:
	.loc	10 501 5                        @ lvgl/src/lv_widgets/lv_btnmatrix.c:501:5
	cbnz	r0, .LBB26_4
	b	.LBB26_2
.LBB26_2:
.Ltmp560:
	.loc	10 501 5                        @ lvgl/src/lv_widgets/lv_btnmatrix.c:501:5
	ldr	r2, [sp, #8]
	movw	r0, :lower16:.L.str.1
	movt	r0, :upper16:.L.str.1
	movs	r3, #0
	bl	lv_debug_log_error
	b	.LBB26_3
.LBB26_3:                               @ =>This Inner Loop Header: Depth=1
	b	.LBB26_3
.Ltmp561:
.LBB26_4:
	.loc	10 501 5                        @ lvgl/src/lv_widgets/lv_btnmatrix.c:501:5
	b	.LBB26_5
.Ltmp562:
.LBB26_5:
	.loc	10 503 52 is_stmt 1             @ lvgl/src/lv_widgets/lv_btnmatrix.c:503:52
	ldr	r0, [sp, #8]
	.loc	10 503 32 is_stmt 0             @ lvgl/src/lv_widgets/lv_btnmatrix.c:503:32
	bl	lv_obj_get_ext_attr
	.loc	10 503 26                       @ lvgl/src/lv_widgets/lv_btnmatrix.c:503:26
	str	r0, [sp, #4]
.Ltmp563:
	.loc	10 504 8 is_stmt 1              @ lvgl/src/lv_widgets/lv_btnmatrix.c:504:8
	ldr	r0, [sp, #4]
	.loc	10 504 13 is_stmt 0             @ lvgl/src/lv_widgets/lv_btnmatrix.c:504:13
	ldrh	r0, [r0, #26]
	movw	r1, #65535
.Ltmp564:
	.loc	10 504 8                        @ lvgl/src/lv_widgets/lv_btnmatrix.c:504:8
	cmp	r0, r1
	beq	.LBB26_7
	b	.LBB26_6
.LBB26_6:
.Ltmp565:
	.loc	10 505 42 is_stmt 1             @ lvgl/src/lv_widgets/lv_btnmatrix.c:505:42
	ldr	r0, [sp, #8]
	.loc	10 505 48 is_stmt 0             @ lvgl/src/lv_widgets/lv_btnmatrix.c:505:48
	ldr	r1, [sp, #4]
	.loc	10 505 53                       @ lvgl/src/lv_widgets/lv_btnmatrix.c:505:53
	ldrh	r1, [r1, #26]
	.loc	10 505 16                       @ lvgl/src/lv_widgets/lv_btnmatrix.c:505:16
	bl	lv_btnmatrix_get_btn_text
	.loc	10 505 9                        @ lvgl/src/lv_widgets/lv_btnmatrix.c:505:9
	str	r0, [sp, #12]
	b	.LBB26_8
.Ltmp566:
.LBB26_7:
	.loc	10 0 9                          @ lvgl/src/lv_widgets/lv_btnmatrix.c:0:9
	movs	r0, #0
.Ltmp567:
	.loc	10 508 9 is_stmt 1              @ lvgl/src/lv_widgets/lv_btnmatrix.c:508:9
	str	r0, [sp, #12]
	b	.LBB26_8
.Ltmp568:
.LBB26_8:
	.loc	10 510 1                        @ lvgl/src/lv_widgets/lv_btnmatrix.c:510:1
	ldr	r0, [sp, #12]
	add	sp, #16
	pop	{r7, pc}
.Ltmp569:
.Lfunc_end26:
	.size	lv_btnmatrix_get_active_btn_text, .Lfunc_end26-lv_btnmatrix_get_active_btn_text
	.cfi_endproc
	.cantunwind
	.fnend
                                        @ -- End function
	.section	.text.lv_btnmatrix_get_btn_text,"ax",%progbits
	.hidden	lv_btnmatrix_get_btn_text       @ -- Begin function lv_btnmatrix_get_btn_text
	.globl	lv_btnmatrix_get_btn_text
	.p2align	3
	.type	lv_btnmatrix_get_btn_text,%function
	.code	16                              @ @lv_btnmatrix_get_btn_text
	.thumb_func
lv_btnmatrix_get_btn_text:
.Lfunc_begin27:
	.loc	10 534 0                        @ lvgl/src/lv_widgets/lv_btnmatrix.c:534:0
	.fnstart
	.cfi_startproc
@ %bb.0:
	.save	{r7, lr}
	push	{r7, lr}
	.cfi_def_cfa_offset 8
	.cfi_offset lr, -4
	.cfi_offset r7, -8
	.pad	#24
	sub	sp, #24
	.cfi_def_cfa_offset 32
                                        @ kill: def $r2 killed $r1
	str	r0, [sp, #16]
	strh.w	r1, [sp, #14]
.Ltmp570:
	.loc	10 535 5 prologue_end           @ lvgl/src/lv_widgets/lv_btnmatrix.c:535:5
	b	.LBB27_1
.LBB27_1:
.Ltmp571:
	.loc	10 535 5 is_stmt 0              @ lvgl/src/lv_widgets/lv_btnmatrix.c:535:5
	ldr	r0, [sp, #16]
	bl	lv_debug_check_null
.Ltmp572:
	.loc	10 535 5                        @ lvgl/src/lv_widgets/lv_btnmatrix.c:535:5
	cbnz	r0, .LBB27_4
	b	.LBB27_2
.LBB27_2:
.Ltmp573:
	.loc	10 535 5                        @ lvgl/src/lv_widgets/lv_btnmatrix.c:535:5
	ldr	r2, [sp, #16]
	movw	r0, :lower16:.L.str.1
	movt	r0, :upper16:.L.str.1
	movs	r3, #0
	bl	lv_debug_log_error
	b	.LBB27_3
.LBB27_3:                               @ =>This Inner Loop Header: Depth=1
	b	.LBB27_3
.Ltmp574:
.LBB27_4:
	.loc	10 535 5                        @ lvgl/src/lv_widgets/lv_btnmatrix.c:535:5
	b	.LBB27_5
.Ltmp575:
.LBB27_5:
	.loc	10 537 52 is_stmt 1             @ lvgl/src/lv_widgets/lv_btnmatrix.c:537:52
	ldr	r0, [sp, #16]
	.loc	10 537 32 is_stmt 0             @ lvgl/src/lv_widgets/lv_btnmatrix.c:537:32
	bl	lv_obj_get_ext_attr
	.loc	10 537 26                       @ lvgl/src/lv_widgets/lv_btnmatrix.c:537:26
	str	r0, [sp, #8]
.Ltmp576:
	.loc	10 538 8 is_stmt 1              @ lvgl/src/lv_widgets/lv_btnmatrix.c:538:8
	ldrh.w	r0, [sp, #14]
	.loc	10 538 17 is_stmt 0             @ lvgl/src/lv_widgets/lv_btnmatrix.c:538:17
	ldr	r1, [sp, #8]
	.loc	10 538 22                       @ lvgl/src/lv_widgets/lv_btnmatrix.c:538:22
	ldrh	r1, [r1, #20]
.Ltmp577:
	.loc	10 538 8                        @ lvgl/src/lv_widgets/lv_btnmatrix.c:538:8
	cmp	r0, r1
	ble	.LBB27_7
	b	.LBB27_6
.LBB27_6:
	.loc	10 0 8                          @ lvgl/src/lv_widgets/lv_btnmatrix.c:0:8
	movs	r0, #0
.Ltmp578:
	.loc	10 538 31                       @ lvgl/src/lv_widgets/lv_btnmatrix.c:538:31
	str	r0, [sp, #20]
	b	.LBB27_15
.Ltmp579:
.LBB27_7:
	.loc	10 0 31                         @ lvgl/src/lv_widgets/lv_btnmatrix.c:0:31
	movs	r0, #0
	.loc	10 540 14 is_stmt 1             @ lvgl/src/lv_widgets/lv_btnmatrix.c:540:14
	strh.w	r0, [sp, #6]
	.loc	10 541 14                       @ lvgl/src/lv_widgets/lv_btnmatrix.c:541:14
	strh.w	r0, [sp, #4]
	.loc	10 545 5                        @ lvgl/src/lv_widgets/lv_btnmatrix.c:545:5
	b	.LBB27_8
.LBB27_8:                               @ =>This Inner Loop Header: Depth=1
	.loc	10 545 11 is_stmt 0             @ lvgl/src/lv_widgets/lv_btnmatrix.c:545:11
	ldrh.w	r0, [sp, #4]
	.loc	10 545 20                       @ lvgl/src/lv_widgets/lv_btnmatrix.c:545:20
	ldrh.w	r1, [sp, #14]
	.loc	10 545 5                        @ lvgl/src/lv_widgets/lv_btnmatrix.c:545:5
	cmp	r0, r1
	beq	.LBB27_12
	b	.LBB27_9
.LBB27_9:                               @   in Loop: Header=BB27_8 Depth=1
.Ltmp580:
	.loc	10 546 14 is_stmt 1             @ lvgl/src/lv_widgets/lv_btnmatrix.c:546:14
	ldrh.w	r0, [sp, #4]
	adds	r0, #1
	strh.w	r0, [sp, #4]
	.loc	10 547 14                       @ lvgl/src/lv_widgets/lv_btnmatrix.c:547:14
	ldrh.w	r0, [sp, #6]
	adds	r0, #1
	strh.w	r0, [sp, #6]
.Ltmp581:
	.loc	10 548 19                       @ lvgl/src/lv_widgets/lv_btnmatrix.c:548:19
	ldr	r0, [sp, #8]
	.loc	10 548 24 is_stmt 0             @ lvgl/src/lv_widgets/lv_btnmatrix.c:548:24
	ldr	r0, [r0]
	.loc	10 548 30                       @ lvgl/src/lv_widgets/lv_btnmatrix.c:548:30
	ldrh.w	r1, [sp, #6]
	.loc	10 548 19                       @ lvgl/src/lv_widgets/lv_btnmatrix.c:548:19
	ldr.w	r0, [r0, r1, lsl #2]
	.loc	10 548 12                       @ lvgl/src/lv_widgets/lv_btnmatrix.c:548:12
	movw	r1, :lower16:.L.str.2
	movt	r1, :upper16:.L.str.2
	bl	strcmp
.Ltmp582:
	.loc	10 548 12                       @ lvgl/src/lv_widgets/lv_btnmatrix.c:548:12
	cbnz	r0, .LBB27_11
	b	.LBB27_10
.LBB27_10:                              @   in Loop: Header=BB27_8 Depth=1
.Ltmp583:
	.loc	10 548 55                       @ lvgl/src/lv_widgets/lv_btnmatrix.c:548:55
	ldrh.w	r0, [sp, #6]
	adds	r0, #1
	strh.w	r0, [sp, #6]
	.loc	10 548 50                       @ lvgl/src/lv_widgets/lv_btnmatrix.c:548:50
	b	.LBB27_11
.Ltmp584:
.LBB27_11:                              @   in Loop: Header=BB27_8 Depth=1
	.loc	10 545 5 is_stmt 1              @ lvgl/src/lv_widgets/lv_btnmatrix.c:545:5
	b	.LBB27_8
.LBB27_12:
.Ltmp585:
	.loc	10 551 8                        @ lvgl/src/lv_widgets/lv_btnmatrix.c:551:8
	ldrh.w	r0, [sp, #4]
	.loc	10 551 17 is_stmt 0             @ lvgl/src/lv_widgets/lv_btnmatrix.c:551:17
	ldr	r1, [sp, #8]
	.loc	10 551 22                       @ lvgl/src/lv_widgets/lv_btnmatrix.c:551:22
	ldrh	r1, [r1, #20]
.Ltmp586:
	.loc	10 551 8                        @ lvgl/src/lv_widgets/lv_btnmatrix.c:551:8
	cmp	r0, r1
	bne	.LBB27_14
	b	.LBB27_13
.LBB27_13:
	.loc	10 0 8                          @ lvgl/src/lv_widgets/lv_btnmatrix.c:0:8
	movs	r0, #0
.Ltmp587:
	.loc	10 551 31                       @ lvgl/src/lv_widgets/lv_btnmatrix.c:551:31
	str	r0, [sp, #20]
	b	.LBB27_15
.Ltmp588:
.LBB27_14:
	.loc	10 553 12 is_stmt 1             @ lvgl/src/lv_widgets/lv_btnmatrix.c:553:12
	ldr	r0, [sp, #8]
	.loc	10 553 17 is_stmt 0             @ lvgl/src/lv_widgets/lv_btnmatrix.c:553:17
	ldr	r0, [r0]
	.loc	10 553 23                       @ lvgl/src/lv_widgets/lv_btnmatrix.c:553:23
	ldrh.w	r1, [sp, #6]
	.loc	10 553 12                       @ lvgl/src/lv_widgets/lv_btnmatrix.c:553:12
	ldr.w	r0, [r0, r1, lsl #2]
	.loc	10 553 5                        @ lvgl/src/lv_widgets/lv_btnmatrix.c:553:5
	str	r0, [sp, #20]
	b	.LBB27_15
.LBB27_15:
	.loc	10 554 1 is_stmt 1              @ lvgl/src/lv_widgets/lv_btnmatrix.c:554:1
	ldr	r0, [sp, #20]
	add	sp, #24
	pop	{r7, pc}
.Ltmp589:
.Lfunc_end27:
	.size	lv_btnmatrix_get_btn_text, .Lfunc_end27-lv_btnmatrix_get_btn_text
	.cfi_endproc
	.cantunwind
	.fnend
                                        @ -- End function
	.section	.text.lv_btnmatrix_get_focused_btn,"ax",%progbits
	.hidden	lv_btnmatrix_get_focused_btn    @ -- Begin function lv_btnmatrix_get_focused_btn
	.globl	lv_btnmatrix_get_focused_btn
	.p2align	3
	.type	lv_btnmatrix_get_focused_btn,%function
	.code	16                              @ @lv_btnmatrix_get_focused_btn
	.thumb_func
lv_btnmatrix_get_focused_btn:
.Lfunc_begin28:
	.loc	10 519 0                        @ lvgl/src/lv_widgets/lv_btnmatrix.c:519:0
	.fnstart
	.cfi_startproc
@ %bb.0:
	.save	{r7, lr}
	push	{r7, lr}
	.cfi_def_cfa_offset 8
	.cfi_offset lr, -4
	.cfi_offset r7, -8
	.pad	#8
	sub	sp, #8
	.cfi_def_cfa_offset 16
	str	r0, [sp, #4]
.Ltmp590:
	.loc	10 520 5 prologue_end           @ lvgl/src/lv_widgets/lv_btnmatrix.c:520:5
	b	.LBB28_1
.LBB28_1:
.Ltmp591:
	.loc	10 520 5 is_stmt 0              @ lvgl/src/lv_widgets/lv_btnmatrix.c:520:5
	ldr	r0, [sp, #4]
	bl	lv_debug_check_null
.Ltmp592:
	.loc	10 520 5                        @ lvgl/src/lv_widgets/lv_btnmatrix.c:520:5
	cbnz	r0, .LBB28_4
	b	.LBB28_2
.LBB28_2:
.Ltmp593:
	.loc	10 520 5                        @ lvgl/src/lv_widgets/lv_btnmatrix.c:520:5
	ldr	r2, [sp, #4]
	movw	r0, :lower16:.L.str.1
	movt	r0, :upper16:.L.str.1
	movs	r3, #0
	bl	lv_debug_log_error
	b	.LBB28_3
.LBB28_3:                               @ =>This Inner Loop Header: Depth=1
	b	.LBB28_3
.Ltmp594:
.LBB28_4:
	.loc	10 520 5                        @ lvgl/src/lv_widgets/lv_btnmatrix.c:520:5
	b	.LBB28_5
.Ltmp595:
.LBB28_5:
	.loc	10 522 52 is_stmt 1             @ lvgl/src/lv_widgets/lv_btnmatrix.c:522:52
	ldr	r0, [sp, #4]
	.loc	10 522 32 is_stmt 0             @ lvgl/src/lv_widgets/lv_btnmatrix.c:522:32
	bl	lv_obj_get_ext_attr
	.loc	10 522 26                       @ lvgl/src/lv_widgets/lv_btnmatrix.c:522:26
	str	r0, [sp]
	.loc	10 523 12 is_stmt 1             @ lvgl/src/lv_widgets/lv_btnmatrix.c:523:12
	ldr	r0, [sp]
	.loc	10 523 17 is_stmt 0             @ lvgl/src/lv_widgets/lv_btnmatrix.c:523:17
	ldrh	r0, [r0, #24]
	.loc	10 523 5                        @ lvgl/src/lv_widgets/lv_btnmatrix.c:523:5
	add	sp, #8
	pop	{r7, pc}
.Ltmp596:
.Lfunc_end28:
	.size	lv_btnmatrix_get_focused_btn, .Lfunc_end28-lv_btnmatrix_get_focused_btn
	.cfi_endproc
	.cantunwind
	.fnend
                                        @ -- End function
	.section	.text.lv_btnmatrix_get_btn_ctrl,"ax",%progbits
	.hidden	lv_btnmatrix_get_btn_ctrl       @ -- Begin function lv_btnmatrix_get_btn_ctrl
	.globl	lv_btnmatrix_get_btn_ctrl
	.p2align	3
	.type	lv_btnmatrix_get_btn_ctrl,%function
	.code	16                              @ @lv_btnmatrix_get_btn_ctrl
	.thumb_func
lv_btnmatrix_get_btn_ctrl:
.Lfunc_begin29:
	.loc	10 565 0 is_stmt 1              @ lvgl/src/lv_widgets/lv_btnmatrix.c:565:0
	.fnstart
	.cfi_startproc
@ %bb.0:
	.save	{r7, lr}
	push	{r7, lr}
	.cfi_def_cfa_offset 8
	.cfi_offset lr, -4
	.cfi_offset r7, -8
	.pad	#16
	sub	sp, #16
	.cfi_def_cfa_offset 24
                                        @ kill: def $r3 killed $r2
                                        @ kill: def $r3 killed $r1
	str	r0, [sp, #8]
	strh.w	r1, [sp, #6]
	strh.w	r2, [sp, #4]
.Ltmp597:
	.loc	10 566 5 prologue_end           @ lvgl/src/lv_widgets/lv_btnmatrix.c:566:5
	b	.LBB29_1
.LBB29_1:
