	.text
	.syntax unified
	.eabi_attribute	67, "2.09"	@ Tag_conformance
	.cpu	cortex-m7
	.eabi_attribute	6, 13	@ Tag_CPU_arch
	.eabi_attribute	7, 77	@ Tag_CPU_arch_profile
	.eabi_attribute	8, 0	@ Tag_ARM_ISA_use
	.eabi_attribute	9, 2	@ Tag_THUMB_ISA_use
	.fpu	fpv5-d16
	.eabi_attribute	36, 1	@ Tag_FP_HP_extension
	.eabi_attribute	34, 1	@ Tag_CPU_unaligned_access
	.eabi_attribute	17, 1	@ Tag_ABI_PCS_GOT_use
	.eabi_attribute	20, 2	@ Tag_ABI_FP_denormal
	.eabi_attribute	21, 0	@ Tag_ABI_FP_exceptions
	.eabi_attribute	23, 1	@ Tag_ABI_FP_number_model
	.eabi_attribute	24, 1	@ Tag_ABI_align_needed
	.eabi_attribute	25, 1	@ Tag_ABI_align_preserved
	.eabi_attribute	28, 1	@ Tag_ABI_VFP_args
	.eabi_attribute	38, 1	@ Tag_ABI_FP_16bit_format
	.eabi_attribute	18, 2	@ Tag_ABI_PCS_wchar_t
	.eabi_attribute	26, 1	@ Tag_ABI_enum_size
	.eabi_attribute	14, 0	@ Tag_ABI_PCS_R9_use
	.file	"lv_cpicker.c"
	.file	1 "D:\\Keil_v5\\ARM\\ARMCLANG\\Bin\\..\\include" "stdint.h"
	.file	2 "E:\\Smart-access-control\\Hardware\\CODE" "lvgl/src/lv_widgets/../lv_core/../lv_draw/../lv_misc/lv_types.h"
	.file	3 "E:\\Smart-access-control\\Hardware\\CODE" "lvgl/src/lv_widgets/../lv_themes/../lv_core/lv_obj.h"
	.file	4 "E:\\Smart-access-control\\Hardware\\CODE" "lvgl/src/lv_widgets/../lv_core/../lv_font/../lv_misc/lv_ll.h"
	.file	5 "E:\\Smart-access-control\\Hardware\\CODE" "./lvgl/src/lv_conf.h"
	.file	6 "E:\\Smart-access-control\\Hardware\\CODE" "lvgl/src/lv_widgets/../lv_core/../lv_hal/../lv_misc/lv_area.h"
	.file	7 "E:\\Smart-access-control\\Hardware\\CODE" "lvgl/src/lv_widgets/../lv_themes/../lv_core/lv_style.h"
	.file	8 "E:\\Smart-access-control\\Hardware\\CODE" "lvgl/src/lv_widgets/../lv_core/../lv_hal/lv_hal_indev.h"
	.file	9 "E:\\Smart-access-control\\Hardware\\CODE" "lvgl/src/lv_widgets/../lv_core/../lv_draw/../lv_misc/lv_bidi.h"
	.file	10 "E:\\Smart-access-control\\Hardware\\CODE" "lvgl/src/lv_widgets/lv_cpicker.c"
	.file	11 "E:\\Smart-access-control\\Hardware\\CODE" "lvgl/src/lv_widgets/lv_cpicker.h"
	.file	12 "E:\\Smart-access-control\\Hardware\\CODE" "lvgl/src/lv_widgets/../lv_themes/lv_theme.h"
	.file	13 "E:\\Smart-access-control\\Hardware\\CODE" "lvgl/src/lv_widgets/../lv_core/../lv_core/lv_group.h"
	.file	14 "E:\\Smart-access-control\\Hardware\\CODE" "lvgl/src/lv_widgets/../lv_core/../lv_hal/../lv_misc/lv_color.h"
	.section	.text.lv_cpicker_create,"ax",%progbits
	.hidden	lv_cpicker_create               @ -- Begin function lv_cpicker_create
	.globl	lv_cpicker_create
	.p2align	3
	.type	lv_cpicker_create,%function
	.code	16                              @ @lv_cpicker_create
	.thumb_func
lv_cpicker_create:
.Lfunc_begin0:
	.loc	10 103 0                        @ lvgl/src/lv_widgets/lv_cpicker.c:103:0
	.fnstart
	.cfi_sections .debug_frame
	.cfi_startproc
@ %bb.0:
	@DEBUG_VALUE: lv_cpicker_create:par <- $r0
	@DEBUG_VALUE: lv_cpicker_create:copy <- $r1
	.save	{r4, r5, r6, r7, lr}
	push	{r4, r5, r6, r7, lr}
	.cfi_def_cfa_offset 20
	.cfi_offset lr, -4
	.cfi_offset r7, -8
	.cfi_offset r6, -12
	.cfi_offset r5, -16
	.cfi_offset r4, -20
	.pad	#4
	sub	sp, #4
	.cfi_def_cfa_offset 24
	mov	r5, r1
.Ltmp0:
	@DEBUG_VALUE: lv_cpicker_create:copy <- $r5
	@DEBUG_VALUE: lv_cpicker_create:par <- $r0
	@DEBUG_VALUE: lv_cpicker_create:par <- $r0
	.loc	10 106 26 prologue_end          @ lvgl/src/lv_widgets/lv_cpicker.c:106:26
	bl	lv_obj_create
.Ltmp1:
	@DEBUG_VALUE: lv_cpicker_create:par <- [DW_OP_LLVM_entry_value 1] $r0
	mov	r4, r0
.Ltmp2:
	@DEBUG_VALUE: lv_cpicker_create:cpicker <- $r4
	.loc	10 107 5                        @ lvgl/src/lv_widgets/lv_cpicker.c:107:5
	bl	lv_debug_check_null
.Ltmp3:
	.loc	10 107 5 is_stmt 0              @ lvgl/src/lv_widgets/lv_cpicker.c:107:5
	cmp	r0, #0
	beq	.LBB0_10
.Ltmp4:
@ %bb.1:
	@DEBUG_VALUE: lv_cpicker_create:copy <- $r5
	@DEBUG_VALUE: lv_cpicker_create:cpicker <- $r4
	@DEBUG_VALUE: lv_cpicker_create:par <- [DW_OP_LLVM_entry_value 1] $r0
	.loc	10 108 8 is_stmt 1              @ lvgl/src/lv_widgets/lv_cpicker.c:108:8
	cmp	r4, #0
	beq	.LBB0_12
.Ltmp5:
@ %bb.2:
	@DEBUG_VALUE: lv_cpicker_create:copy <- $r5
	@DEBUG_VALUE: lv_cpicker_create:cpicker <- $r4
	@DEBUG_VALUE: lv_cpicker_create:par <- [DW_OP_LLVM_entry_value 1] $r0
	.loc	10 110 8                        @ lvgl/src/lv_widgets/lv_cpicker.c:110:8
	movw	r6, :lower16:ancestor_signal
	movt	r6, :upper16:ancestor_signal
	ldr	r0, [r6]
.Ltmp6:
	.loc	10 110 8 is_stmt 0              @ lvgl/src/lv_widgets/lv_cpicker.c:110:8
	cbnz	r0, .LBB0_4
.Ltmp7:
@ %bb.3:
	@DEBUG_VALUE: lv_cpicker_create:copy <- $r5
	@DEBUG_VALUE: lv_cpicker_create:cpicker <- $r4
	@DEBUG_VALUE: lv_cpicker_create:par <- [DW_OP_LLVM_entry_value 1] $r0
	.loc	10 110 51                       @ lvgl/src/lv_widgets/lv_cpicker.c:110:51
	mov	r0, r4
	bl	lv_obj_get_signal_cb
	.loc	10 110 49                       @ lvgl/src/lv_widgets/lv_cpicker.c:110:49
	str	r0, [r6]
.Ltmp8:
.LBB0_4:
	@DEBUG_VALUE: lv_cpicker_create:copy <- $r5
	@DEBUG_VALUE: lv_cpicker_create:cpicker <- $r4
	@DEBUG_VALUE: lv_cpicker_create:par <- [DW_OP_LLVM_entry_value 1] $r0
	.loc	10 111 8 is_stmt 1              @ lvgl/src/lv_widgets/lv_cpicker.c:111:8
	movw	r6, :lower16:ancestor_design
	movt	r6, :upper16:ancestor_design
	ldr	r0, [r6]
.Ltmp9:
	.loc	10 111 8 is_stmt 0              @ lvgl/src/lv_widgets/lv_cpicker.c:111:8
	cbnz	r0, .LBB0_6
.Ltmp10:
@ %bb.5:
	@DEBUG_VALUE: lv_cpicker_create:copy <- $r5
	@DEBUG_VALUE: lv_cpicker_create:cpicker <- $r4
	@DEBUG_VALUE: lv_cpicker_create:par <- [DW_OP_LLVM_entry_value 1] $r0
	.loc	10 111 51                       @ lvgl/src/lv_widgets/lv_cpicker.c:111:51
	mov	r0, r4
	bl	lv_obj_get_design_cb
	.loc	10 111 49                       @ lvgl/src/lv_widgets/lv_cpicker.c:111:49
	str	r0, [r6]
.Ltmp11:
.LBB0_6:
	@DEBUG_VALUE: lv_cpicker_create:copy <- $r5
	@DEBUG_VALUE: lv_cpicker_create:cpicker <- $r4
	@DEBUG_VALUE: lv_cpicker_create:par <- [DW_OP_LLVM_entry_value 1] $r0
	.loc	10 114 30 is_stmt 1             @ lvgl/src/lv_widgets/lv_cpicker.c:114:30
	movs	r1, #36
	mov	r0, r4
	bl	lv_obj_allocate_ext_attr
	mov	r6, r0
.Ltmp12:
	@DEBUG_VALUE: lv_cpicker_create:ext <- $r6
	.loc	10 115 5                        @ lvgl/src/lv_widgets/lv_cpicker.c:115:5
	bl	lv_debug_check_null
.Ltmp13:
	.loc	10 115 5 is_stmt 0              @ lvgl/src/lv_widgets/lv_cpicker.c:115:5
	cmp	r0, #0
	beq	.LBB0_13
.Ltmp14:
@ %bb.7:
	@DEBUG_VALUE: lv_cpicker_create:ext <- $r6
	@DEBUG_VALUE: lv_cpicker_create:copy <- $r5
	@DEBUG_VALUE: lv_cpicker_create:cpicker <- $r4
	@DEBUG_VALUE: lv_cpicker_create:par <- [DW_OP_LLVM_entry_value 1] $r0
	.loc	10 116 8 is_stmt 1              @ lvgl/src/lv_widgets/lv_cpicker.c:116:8
	cmp	r6, #0
	beq	.LBB0_15
.Ltmp15:
@ %bb.8:
	@DEBUG_VALUE: lv_cpicker_create:ext <- $r6
	@DEBUG_VALUE: lv_cpicker_create:copy <- $r5
	@DEBUG_VALUE: lv_cpicker_create:cpicker <- $r4
	@DEBUG_VALUE: lv_cpicker_create:par <- [DW_OP_LLVM_entry_value 1] $r0
	.loc	10 122 15                       @ lvgl/src/lv_widgets/lv_cpicker.c:122:15
	ldrb.w	r0, [r6, #32]
	.loc	10 124 10                       @ lvgl/src/lv_widgets/lv_cpicker.c:124:10
	adds	r7, r6, #4
	.loc	10 124 23 is_stmt 0             @ lvgl/src/lv_widgets/lv_cpicker.c:124:23
	ldrb	r1, [r6, #16]
	movs	r2, #0
	.loc	10 122 15 is_stmt 1             @ lvgl/src/lv_widgets/lv_cpicker.c:122:15
	orr	r0, r0, #8
	movt	r2, #25700
	.loc	10 126 27                       @ lvgl/src/lv_widgets/lv_cpicker.c:126:27
	and	r0, r0, #248
	strb.w	r0, [r6, #32]
	movs	r0, #0
	.loc	10 127 26                       @ lvgl/src/lv_widgets/lv_cpicker.c:127:26
	str	r0, [r6, #20]
	.loc	10 128 27                       @ lvgl/src/lv_widgets/lv_cpicker.c:128:27
	str	r0, [r6, #24]
	.loc	10 130 5                        @ lvgl/src/lv_widgets/lv_cpicker.c:130:5
	mov	r0, r7
	.loc	10 123 16                       @ lvgl/src/lv_widgets/lv_cpicker.c:123:16
	str	r2, [r6]
	.loc	10 124 23                       @ lvgl/src/lv_widgets/lv_cpicker.c:124:23
	orr	r1, r1, #1
	strb	r1, [r6, #16]
	.loc	10 130 5                        @ lvgl/src/lv_widgets/lv_cpicker.c:130:5
	bl	lv_style_list_init
	.loc	10 133 5                        @ lvgl/src/lv_widgets/lv_cpicker.c:133:5
	movw	r1, :lower16:lv_cpicker_signal
	mov	r0, r4
	movt	r1, :upper16:lv_cpicker_signal
	bl	lv_obj_set_signal_cb
	.loc	10 134 5                        @ lvgl/src/lv_widgets/lv_cpicker.c:134:5
	movw	r1, :lower16:lv_cpicker_design
	mov	r0, r4
	movt	r1, :upper16:lv_cpicker_design
	bl	lv_obj_set_design_cb
	.loc	10 137 8                        @ lvgl/src/lv_widgets/lv_cpicker.c:137:8
	cmp	r5, #0
	beq	.LBB0_16
.Ltmp16:
@ %bb.9:
	@DEBUG_VALUE: lv_cpicker_create:ext <- $r6
	@DEBUG_VALUE: lv_cpicker_create:copy <- $r5
	@DEBUG_VALUE: lv_cpicker_create:cpicker <- $r4
	@DEBUG_VALUE: lv_cpicker_create:par <- [DW_OP_LLVM_entry_value 1] $r0
	.loc	10 145 39                       @ lvgl/src/lv_widgets/lv_cpicker.c:145:39
	mov	r0, r5
	bl	lv_obj_get_ext_attr
.Ltmp17:
	@DEBUG_VALUE: copy_ext <- $r0
	.loc	10 146 31                       @ lvgl/src/lv_widgets/lv_cpicker.c:146:31
	ldrb.w	r1, [r0, #32]
	.loc	10 146 19 is_stmt 0             @ lvgl/src/lv_widgets/lv_cpicker.c:146:19
	ldrb.w	r2, [r6, #32]
	lsrs	r1, r1, #3
	bfi	r2, r1, #3, #1
	strb.w	r2, [r6, #32]
	.loc	10 147 37 is_stmt 1             @ lvgl/src/lv_widgets/lv_cpicker.c:147:37
	ldrb.w	r1, [r0, #32]
	.loc	10 147 25 is_stmt 0             @ lvgl/src/lv_widgets/lv_cpicker.c:147:25
	bfi	r2, r1, #0, #2
	strb.w	r2, [r6, #32]
	.loc	10 148 43 is_stmt 1             @ lvgl/src/lv_widgets/lv_cpicker.c:148:43
	ldrb.w	r1, [r0, #32]
	.loc	10 148 31 is_stmt 0             @ lvgl/src/lv_widgets/lv_cpicker.c:148:31
	and	r2, r2, #251
	.loc	10 148 43                       @ lvgl/src/lv_widgets/lv_cpicker.c:148:43
	and	r1, r1, #4
	.loc	10 148 31                       @ lvgl/src/lv_widgets/lv_cpicker.c:148:31
	add	r1, r2
	strb.w	r1, [r6, #32]
	.loc	10 149 30 is_stmt 1             @ lvgl/src/lv_widgets/lv_cpicker.c:149:30
	ldr	r1, [r0]
	str	r1, [r6]
	.loc	10 150 27                       @ lvgl/src/lv_widgets/lv_cpicker.c:150:27
	ldrb	r2, [r6, #16]
	.loc	10 150 44 is_stmt 0             @ lvgl/src/lv_widgets/lv_cpicker.c:150:44
	ldrb	r3, [r0, #16]
	.loc	10 150 39                       @ lvgl/src/lv_widgets/lv_cpicker.c:150:39
	adds	r1, r0, #4
	.loc	10 150 44                       @ lvgl/src/lv_widgets/lv_cpicker.c:150:44
	and	r0, r3, #1
.Ltmp18:
	.loc	10 150 27                       @ lvgl/src/lv_widgets/lv_cpicker.c:150:27
	and	r2, r2, #254
	add	r0, r2
	strb	r0, [r6, #16]
	.loc	10 152 9 is_stmt 1              @ lvgl/src/lv_widgets/lv_cpicker.c:152:9
	mov	r0, r7
	bl	lv_style_list_copy
	.loc	10 154 9                        @ lvgl/src/lv_widgets/lv_cpicker.c:154:9
	movs	r1, #255
	movs	r2, #255
	mov	r0, r4
	bl	lv_obj_refresh_style
	b	.LBB0_17
.Ltmp19:
.LBB0_10:
	@DEBUG_VALUE: lv_cpicker_create:copy <- $r5
	@DEBUG_VALUE: lv_cpicker_create:cpicker <- $r4
	@DEBUG_VALUE: lv_cpicker_create:par <- [DW_OP_LLVM_entry_value 1] $r0
	.loc	10 107 5                        @ lvgl/src/lv_widgets/lv_cpicker.c:107:5
	movw	r0, :lower16:.L.str
	movs	r3, #0
	movt	r0, :upper16:.L.str
	mov	r2, r4
	bl	lv_debug_log_error
.Ltmp20:
	.p2align	2
.LBB0_11:                               @ =>This Inner Loop Header: Depth=1
	@DEBUG_VALUE: lv_cpicker_create:copy <- $r5
	@DEBUG_VALUE: lv_cpicker_create:cpicker <- $r4
	@DEBUG_VALUE: lv_cpicker_create:par <- [DW_OP_LLVM_entry_value 1] $r0
	b	.LBB0_11
.Ltmp21:
.LBB0_12:
	@DEBUG_VALUE: lv_cpicker_create:copy <- $r5
	@DEBUG_VALUE: lv_cpicker_create:cpicker <- $r4
	@DEBUG_VALUE: lv_cpicker_create:par <- [DW_OP_LLVM_entry_value 1] $r0
	.loc	10 0 5 is_stmt 0                @ lvgl/src/lv_widgets/lv_cpicker.c:0:5
	movs	r4, #0
.Ltmp22:
	b	.LBB0_18
.Ltmp23:
.LBB0_13:
	@DEBUG_VALUE: lv_cpicker_create:ext <- $r6
	@DEBUG_VALUE: lv_cpicker_create:copy <- $r5
	@DEBUG_VALUE: lv_cpicker_create:cpicker <- $r4
	@DEBUG_VALUE: lv_cpicker_create:par <- [DW_OP_LLVM_entry_value 1] $r0
	.loc	10 115 5 is_stmt 1              @ lvgl/src/lv_widgets/lv_cpicker.c:115:5
	movw	r0, :lower16:.L.str
	movs	r3, #0
	movt	r0, :upper16:.L.str
	mov	r2, r6
	bl	lv_debug_log_error
.Ltmp24:
	.p2align	2
.LBB0_14:                               @ =>This Inner Loop Header: Depth=1
	@DEBUG_VALUE: lv_cpicker_create:ext <- $r6
	@DEBUG_VALUE: lv_cpicker_create:copy <- $r5
	@DEBUG_VALUE: lv_cpicker_create:cpicker <- $r4
	@DEBUG_VALUE: lv_cpicker_create:par <- [DW_OP_LLVM_entry_value 1] $r0
	b	.LBB0_14
.Ltmp25:
.LBB0_15:
	@DEBUG_VALUE: lv_cpicker_create:ext <- $r6
	@DEBUG_VALUE: lv_cpicker_create:copy <- $r5
	@DEBUG_VALUE: lv_cpicker_create:cpicker <- $r4
	@DEBUG_VALUE: lv_cpicker_create:par <- [DW_OP_LLVM_entry_value 1] $r0
	.loc	10 117 9                        @ lvgl/src/lv_widgets/lv_cpicker.c:117:9
	mov	r0, r4
	bl	lv_obj_del
	movs	r4, #0
.Ltmp26:
	.loc	10 118 9                        @ lvgl/src/lv_widgets/lv_cpicker.c:118:9
	b	.LBB0_18
.Ltmp27:
.LBB0_16:
	@DEBUG_VALUE: lv_cpicker_create:ext <- $r6
	@DEBUG_VALUE: lv_cpicker_create:copy <- $r5
	@DEBUG_VALUE: lv_cpicker_create:cpicker <- $r4
	@DEBUG_VALUE: lv_cpicker_create:par <- [DW_OP_LLVM_entry_value 1] $r0
	.loc	10 138 9                        @ lvgl/src/lv_widgets/lv_cpicker.c:138:9
	mov.w	r1, #260
	mov.w	r2, #260
	mov	r0, r4
	bl	lv_obj_set_size
	.loc	10 139 9                        @ lvgl/src/lv_widgets/lv_cpicker.c:139:9
	movs	r1, #16
	mov	r0, r4
	bl	lv_obj_add_protect
	.loc	10 140 9                        @ lvgl/src/lv_widgets/lv_cpicker.c:140:9
	movs	r1, #1
	mov	r0, r4
	bl	lv_obj_set_adv_hittest
	.loc	10 141 9                        @ lvgl/src/lv_widgets/lv_cpicker.c:141:9
	movs	r1, #12
	mov	r0, r4
	bl	lv_theme_apply
.Ltmp28:
.LBB0_17:
	@DEBUG_VALUE: lv_cpicker_create:ext <- $r6
	@DEBUG_VALUE: lv_cpicker_create:copy <- $r5
	@DEBUG_VALUE: lv_cpicker_create:cpicker <- $r4
	@DEBUG_VALUE: lv_cpicker_create:par <- [DW_OP_LLVM_entry_value 1] $r0
	.loc	10 156 5                        @ lvgl/src/lv_widgets/lv_cpicker.c:156:5
	mov	r0, r4
	bl	refr_knob_pos
.Ltmp29:
.LBB0_18:
	@DEBUG_VALUE: lv_cpicker_create:copy <- $r5
	@DEBUG_VALUE: lv_cpicker_create:par <- [DW_OP_LLVM_entry_value 1] $r0
	.loc	10 161 1                        @ lvgl/src/lv_widgets/lv_cpicker.c:161:1
	mov	r0, r4
	add	sp, #4
	pop	{r4, r5, r6, r7, pc}
.Ltmp30:
.Lfunc_end0:
	.size	lv_cpicker_create, .Lfunc_end0-lv_cpicker_create
	.cfi_endproc
	.cantunwind
	.fnend
                                        @ -- End function
	.section	.text.lv_cpicker_signal,"ax",%progbits
	.p2align	3                               @ -- Begin function lv_cpicker_signal
	.type	lv_cpicker_signal,%function
	.code	16                              @ @lv_cpicker_signal
	.thumb_func
lv_cpicker_signal:
.Lfunc_begin1:
	.loc	10 669 0                        @ lvgl/src/lv_widgets/lv_cpicker.c:669:0
	.fnstart
	.cfi_startproc
@ %bb.0:
	@DEBUG_VALUE: lv_cpicker_signal:cpicker <- $r0
	@DEBUG_VALUE: lv_cpicker_signal:sign <- $r1
	@DEBUG_VALUE: lv_cpicker_signal:param <- $r2
	.save	{r4, r5, r6, r7, r8, r9, lr}
	push.w	{r4, r5, r6, r7, r8, r9, lr}
	.cfi_def_cfa_offset 28
	.cfi_offset lr, -4
	.cfi_offset r9, -8
	.cfi_offset r8, -12
	.cfi_offset r7, -16
	.cfi_offset r6, -20
	.cfi_offset r5, -24
	.cfi_offset r4, -28
	.pad	#4
	sub	sp, #4
	.cfi_def_cfa_offset 32
	mov	r6, r1
.Ltmp31:
	@DEBUG_VALUE: lv_cpicker_signal:sign <- $r6
	.loc	10 673 8 prologue_end           @ lvgl/src/lv_widgets/lv_cpicker.c:673:8
	cmp	r1, #8
	mov	r7, r2
.Ltmp32:
	@DEBUG_VALUE: lv_cpicker_signal:param <- $r7
	@DEBUG_VALUE: lv_cpicker_signal:param <- $r7
	.loc	10 0 8 is_stmt 0                @ lvgl/src/lv_widgets/lv_cpicker.c:0:8
	mov	r5, r0
.Ltmp33:
	@DEBUG_VALUE: lv_cpicker_signal:cpicker <- $r5
	@DEBUG_VALUE: lv_cpicker_signal:cpicker <- $r5
	.loc	10 673 8                        @ lvgl/src/lv_widgets/lv_cpicker.c:673:8
	bne	.LBB1_3
.Ltmp34:
@ %bb.1:
	@DEBUG_VALUE: lv_cpicker_signal:param <- $r7
	@DEBUG_VALUE: lv_cpicker_signal:sign <- $r6
	@DEBUG_VALUE: lv_cpicker_signal:cpicker <- $r5
	@DEBUG_VALUE: info <- $r7
	.loc	10 675 60 is_stmt 1             @ lvgl/src/lv_widgets/lv_cpicker.c:675:60
	ldrb	r1, [r7]
	.loc	10 675 24 is_stmt 0             @ lvgl/src/lv_widgets/lv_cpicker.c:675:24
	mov	r0, r5
	bl	lv_cpicker_get_style
	.loc	10 675 22                       @ lvgl/src/lv_widgets/lv_cpicker.c:675:22
	str	r0, [r7, #4]
	.loc	10 676 12 is_stmt 1             @ lvgl/src/lv_widgets/lv_cpicker.c:676:12
	cbz	r0, .LBB1_7
.Ltmp35:
@ %bb.2:
	@DEBUG_VALUE: info <- $r7
	@DEBUG_VALUE: lv_cpicker_signal:param <- $r7
	@DEBUG_VALUE: lv_cpicker_signal:sign <- $r6
	@DEBUG_VALUE: lv_cpicker_signal:cpicker <- $r5
	.loc	10 0 12 is_stmt 0               @ lvgl/src/lv_widgets/lv_cpicker.c:0:12
	movs	r0, #1
	b	.LBB1_69
.Ltmp36:
.LBB1_3:
	@DEBUG_VALUE: lv_cpicker_signal:param <- $r7
	@DEBUG_VALUE: lv_cpicker_signal:sign <- $r6
	@DEBUG_VALUE: lv_cpicker_signal:cpicker <- $r5
	.loc	10 680 11 is_stmt 1             @ lvgl/src/lv_widgets/lv_cpicker.c:680:11
	movw	r0, :lower16:ancestor_signal
	mov	r1, r6
	movt	r0, :upper16:ancestor_signal
	mov	r2, r7
	ldr	r3, [r0]
	mov	r0, r5
	blx	r3
	mov	r4, r0
.Ltmp37:
	@DEBUG_VALUE: lv_cpicker_signal:res <- $r4
	.loc	10 681 8                        @ lvgl/src/lv_widgets/lv_cpicker.c:681:8
	cmp	r0, #1
	bne	.LBB1_6
.Ltmp38:
@ %bb.4:
	@DEBUG_VALUE: lv_cpicker_signal:param <- $r7
	@DEBUG_VALUE: lv_cpicker_signal:sign <- $r6
	@DEBUG_VALUE: lv_cpicker_signal:cpicker <- $r5
	@DEBUG_VALUE: lv_cpicker_signal:res <- $r4
	.loc	10 682 8                        @ lvgl/src/lv_widgets/lv_cpicker.c:682:8
	cmp	r6, #7
	bne	.LBB1_8
.Ltmp39:
@ %bb.5:
	@DEBUG_VALUE: lv_cpicker_signal:param <- $r7
	@DEBUG_VALUE: lv_cpicker_signal:sign <- $r6
	@DEBUG_VALUE: lv_cpicker_signal:cpicker <- $r5
	@DEBUG_VALUE: lv_cpicker_signal:res <- $r4
	.loc	10 682 43 is_stmt 0             @ lvgl/src/lv_widgets/lv_cpicker.c:682:43
	adr.w	r1, .LCPI1_0
	mov	r0, r7
	bl	lv_obj_handle_get_type_signal
	.loc	10 682 36                       @ lvgl/src/lv_widgets/lv_cpicker.c:682:36
	b	.LBB1_69
.Ltmp40:
.LBB1_6:
	@DEBUG_VALUE: lv_cpicker_signal:param <- $r7
	@DEBUG_VALUE: lv_cpicker_signal:sign <- $r6
	@DEBUG_VALUE: lv_cpicker_signal:cpicker <- $r5
	@DEBUG_VALUE: lv_cpicker_signal:res <- $r4
	.loc	10 0 0                          @ lvgl/src/lv_widgets/lv_cpicker.c:0:0
	mov	r0, r4
	b	.LBB1_69
.Ltmp41:
.LBB1_7:
	@DEBUG_VALUE: info <- $r7
	@DEBUG_VALUE: lv_cpicker_signal:param <- $r7
	@DEBUG_VALUE: lv_cpicker_signal:sign <- $r6
	@DEBUG_VALUE: lv_cpicker_signal:cpicker <- $r5
	.loc	10 677 21 is_stmt 1             @ lvgl/src/lv_widgets/lv_cpicker.c:677:21
	movw	r0, :lower16:ancestor_signal
	mov	r1, r6
	movt	r0, :upper16:ancestor_signal
	mov	r2, r7
	ldr	r3, [r0]
	mov	r0, r5
	blx	r3
	.loc	10 677 14 is_stmt 0             @ lvgl/src/lv_widgets/lv_cpicker.c:677:14
	b	.LBB1_69
.Ltmp42:
.LBB1_8:
	@DEBUG_VALUE: lv_cpicker_signal:param <- $r7
	@DEBUG_VALUE: lv_cpicker_signal:sign <- $r6
	@DEBUG_VALUE: lv_cpicker_signal:cpicker <- $r5
	@DEBUG_VALUE: lv_cpicker_signal:res <- $r4
	.loc	10 684 30 is_stmt 1             @ lvgl/src/lv_widgets/lv_cpicker.c:684:30
	mov	r0, r5
	bl	lv_obj_get_ext_attr
	.loc	10 686 8                        @ lvgl/src/lv_widgets/lv_cpicker.c:686:8
	cmp	r6, #24
.Ltmp43:
	@DEBUG_VALUE: lv_cpicker_signal:ext <- $r0
	bhi.w	.LBB1_68
.Ltmp44:
@ %bb.9:
	@DEBUG_VALUE: lv_cpicker_signal:param <- $r7
	@DEBUG_VALUE: lv_cpicker_signal:sign <- $r6
	@DEBUG_VALUE: lv_cpicker_signal:cpicker <- $r5
	@DEBUG_VALUE: lv_cpicker_signal:res <- $r4
	@DEBUG_VALUE: lv_cpicker_signal:ext <- $r0
	.loc	10 0 8 is_stmt 0                @ lvgl/src/lv_widgets/lv_cpicker.c:0:8
	mov	r8, r0
.Ltmp45:
	@DEBUG_VALUE: lv_cpicker_signal:ext <- $r8
	@DEBUG_VALUE: lv_cpicker_signal:ext <- $r8
.LCPI1_1:
	tbh	[pc, r6, lsl #1]
.Ltmp46:
@ %bb.10:
.LJTI1_0:
	.short	(.LBB1_11-(.LCPI1_1+4))/2
	.short	(.LBB1_68-(.LCPI1_1+4))/2
	.short	(.LBB1_12-(.LCPI1_1+4))/2
	.short	(.LBB1_68-(.LCPI1_1+4))/2
	.short	(.LBB1_14-(.LCPI1_1+4))/2
	.short	(.LBB1_68-(.LCPI1_1+4))/2
	.short	(.LBB1_15-(.LCPI1_1+4))/2
	.short	(.LBB1_68-(.LCPI1_1+4))/2
	.short	(.LBB1_68-(.LCPI1_1+4))/2
	.short	(.LBB1_68-(.LCPI1_1+4))/2
	.short	(.LBB1_17-(.LCPI1_1+4))/2
	.short	(.LBB1_18-(.LCPI1_1+4))/2
	.short	(.LBB1_19-(.LCPI1_1+4))/2
	.short	(.LBB1_68-(.LCPI1_1+4))/2
	.short	(.LBB1_68-(.LCPI1_1+4))/2
	.short	(.LBB1_68-(.LCPI1_1+4))/2
	.short	(.LBB1_68-(.LCPI1_1+4))/2
	.short	(.LBB1_68-(.LCPI1_1+4))/2
	.short	(.LBB1_68-(.LCPI1_1+4))/2
	.short	(.LBB1_68-(.LCPI1_1+4))/2
	.short	(.LBB1_68-(.LCPI1_1+4))/2
	.short	(.LBB1_68-(.LCPI1_1+4))/2
	.short	(.LBB1_68-(.LCPI1_1+4))/2
	.short	(.LBB1_68-(.LCPI1_1+4))/2
	.short	(.LBB1_22-(.LCPI1_1+4))/2
	.p2align	1
.LBB1_11:
.Ltmp47:
	@DEBUG_VALUE: lv_cpicker_signal:ext <- $r8
	@DEBUG_VALUE: lv_cpicker_signal:param <- $r7
	@DEBUG_VALUE: lv_cpicker_signal:sign <- $r6
	@DEBUG_VALUE: lv_cpicker_signal:cpicker <- $r5
	@DEBUG_VALUE: lv_cpicker_signal:res <- $r4
	.loc	10 687 9 is_stmt 1              @ lvgl/src/lv_widgets/lv_cpicker.c:687:9
	movs	r1, #1
	mov	r0, r5
	bl	lv_obj_clean_style_list
	b	.LBB1_68
.Ltmp48:
.LBB1_12:
	@DEBUG_VALUE: lv_cpicker_signal:ext <- $r8
	@DEBUG_VALUE: lv_cpicker_signal:param <- $r7
	@DEBUG_VALUE: lv_cpicker_signal:sign <- $r6
	@DEBUG_VALUE: lv_cpicker_signal:cpicker <- $r5
	@DEBUG_VALUE: lv_cpicker_signal:res <- $r4
	.loc	10 707 12                       @ lvgl/src/lv_widgets/lv_cpicker.c:707:12
	mov	r0, r5
	bl	lv_obj_get_width
	mov	r6, r0
.Ltmp49:
	@DEBUG_VALUE: lv_cpicker_signal:sign <- [DW_OP_LLVM_entry_value 1] $r1
	.loc	10 707 41 is_stmt 0             @ lvgl/src/lv_widgets/lv_cpicker.c:707:41
	mov	r0, r7
	bl	lv_area_get_width
	.loc	10 707 66                       @ lvgl/src/lv_widgets/lv_cpicker.c:707:66
	cmp	r6, r0
	bne	.LBB1_14
.Ltmp50:
@ %bb.13:
	@DEBUG_VALUE: lv_cpicker_signal:ext <- $r8
	@DEBUG_VALUE: lv_cpicker_signal:param <- $r7
	@DEBUG_VALUE: lv_cpicker_signal:cpicker <- $r5
	@DEBUG_VALUE: lv_cpicker_signal:res <- $r4
	@DEBUG_VALUE: lv_cpicker_signal:sign <- [DW_OP_LLVM_entry_value 1] $r1
	.loc	10 708 12 is_stmt 1             @ lvgl/src/lv_widgets/lv_cpicker.c:708:12
	mov	r0, r5
	bl	lv_obj_get_height
	mov	r6, r0
	.loc	10 708 42 is_stmt 0             @ lvgl/src/lv_widgets/lv_cpicker.c:708:42
	mov	r0, r7
	bl	lv_area_get_height
.Ltmp51:
	.loc	10 707 12 is_stmt 1             @ lvgl/src/lv_widgets/lv_cpicker.c:707:12
	cmp	r6, r0
	beq.w	.LBB1_68
.Ltmp52:
.LBB1_14:
	@DEBUG_VALUE: lv_cpicker_signal:ext <- $r8
	@DEBUG_VALUE: lv_cpicker_signal:param <- $r7
	@DEBUG_VALUE: lv_cpicker_signal:cpicker <- $r5
	@DEBUG_VALUE: lv_cpicker_signal:res <- $r4
	.loc	10 0 0 is_stmt 0                @ lvgl/src/lv_widgets/lv_cpicker.c:0:0
	mov	r0, r5
	bl	lv_obj_refresh_ext_draw_pad
	mov	r0, r5
	bl	refr_knob_pos
	mov	r0, r5
	bl	lv_obj_invalidate
	b	.LBB1_68
.Ltmp53:
.LBB1_15:
	@DEBUG_VALUE: lv_cpicker_signal:ext <- $r8
	@DEBUG_VALUE: lv_cpicker_signal:param <- $r7
	@DEBUG_VALUE: lv_cpicker_signal:sign <- $r6
	@DEBUG_VALUE: lv_cpicker_signal:cpicker <- $r5
	@DEBUG_VALUE: lv_cpicker_signal:res <- $r4
	.loc	10 690 31 is_stmt 1             @ lvgl/src/lv_widgets/lv_cpicker.c:690:31
	mov	r0, r5
	bl	lv_obj_get_style_pad_left
	mov	r9, r0
.Ltmp54:
	@DEBUG_VALUE: left <- undef
	.loc	10 691 32                       @ lvgl/src/lv_widgets/lv_cpicker.c:691:32
	mov	r0, r5
	bl	lv_obj_get_style_pad_right
	mov	r7, r0
.Ltmp55:
	@DEBUG_VALUE: lv_cpicker_signal:param <- [DW_OP_LLVM_entry_value 1] $r2
	@DEBUG_VALUE: right <- undef
	.loc	10 692 30                       @ lvgl/src/lv_widgets/lv_cpicker.c:692:30
	mov	r0, r5
	bl	lv_obj_get_style_pad_top
	mov	r6, r0
.Ltmp56:
	@DEBUG_VALUE: lv_cpicker_signal:sign <- [DW_OP_LLVM_entry_value 1] $r1
	@DEBUG_VALUE: top <- undef
	.loc	10 693 33                       @ lvgl/src/lv_widgets/lv_cpicker.c:693:33
	mov	r0, r5
	bl	lv_obj_get_style_pad_bottom
.Ltmp57:
	@DEBUG_VALUE: bottom <- undef
	.loc	10 695 31                       @ lvgl/src/lv_widgets/lv_cpicker.c:695:31
	cmp	r9, r7
	it	gt
	movgt	r7, r9
	cmp	r6, r0
	it	gt
	movgt	r0, r6
	cmp	r7, r0
	it	gt
	movgt	r0, r7
.Ltmp58:
	.loc	10 697 17                       @ lvgl/src/lv_widgets/lv_cpicker.c:697:17
	ldrb.w	r1, [r8, #32]
.Ltmp59:
	.loc	10 695 31                       @ lvgl/src/lv_widgets/lv_cpicker.c:695:31
	adds	r0, #2
.Ltmp60:
	@DEBUG_VALUE: knob_pad <- $r0
	sxth	r6, r0
	.loc	10 697 12                       @ lvgl/src/lv_widgets/lv_cpicker.c:697:12
	lsls	r1, r1, #28
	bmi	.LBB1_27
.Ltmp61:
@ %bb.16:
	@DEBUG_VALUE: lv_cpicker_signal:ext <- $r8
	@DEBUG_VALUE: lv_cpicker_signal:cpicker <- $r5
	@DEBUG_VALUE: lv_cpicker_signal:res <- $r4
	@DEBUG_VALUE: knob_pad <- $r0
	@DEBUG_VALUE: lv_cpicker_signal:sign <- [DW_OP_LLVM_entry_value 1] $r1
	@DEBUG_VALUE: lv_cpicker_signal:param <- [DW_OP_LLVM_entry_value 1] $r2
	.loc	10 701 25                       @ lvgl/src/lv_widgets/lv_cpicker.c:701:25
	mov	r0, r5
.Ltmp62:
	bl	lv_obj_get_height
	uxth	r1, r0
	.loc	10 701 52 is_stmt 0             @ lvgl/src/lv_widgets/lv_cpicker.c:701:52
	add.w	r0, r0, r1, lsr #15
	.loc	10 702 37 is_stmt 1             @ lvgl/src/lv_widgets/lv_cpicker.c:702:37
	ldrsh.w	r1, [r5, #50]
	.loc	10 701 52                       @ lvgl/src/lv_widgets/lv_cpicker.c:701:52
	sxth	r0, r0
	.loc	10 701 22 is_stmt 0             @ lvgl/src/lv_widgets/lv_cpicker.c:701:22
	add.w	r0, r6, r0, asr #1
.Ltmp63:
	@DEBUG_VALUE: knob_pad <- $r0
	sxth	r2, r0
	.loc	10 702 37 is_stmt 1             @ lvgl/src/lv_widgets/lv_cpicker.c:702:37
	cmp	r1, r2
	it	gt
	movgt	r0, r1
.Ltmp64:
	.loc	10 702 35 is_stmt 0             @ lvgl/src/lv_widgets/lv_cpicker.c:702:35
	strh	r0, [r5, #50]
	b	.LBB1_68
.Ltmp65:
.LBB1_17:
	@DEBUG_VALUE: lv_cpicker_signal:ext <- $r8
	@DEBUG_VALUE: lv_cpicker_signal:param <- $r7
	@DEBUG_VALUE: lv_cpicker_signal:sign <- $r6
	@DEBUG_VALUE: lv_cpicker_signal:cpicker <- $r5
	@DEBUG_VALUE: lv_cpicker_signal:res <- $r4
	@DEBUG_VALUE: info <- $r7
	.loc	10 872 54 is_stmt 1             @ lvgl/src/lv_widgets/lv_cpicker.c:872:54
	ldr	r1, [r7]
	.loc	10 872 24 is_stmt 0             @ lvgl/src/lv_widgets/lv_cpicker.c:872:24
	mov	r0, r5
	bl	lv_cpicker_hit
	.loc	10 872 22                       @ lvgl/src/lv_widgets/lv_cpicker.c:872:22
	strb	r0, [r7, #4]
	b	.LBB1_68
.Ltmp66:
.LBB1_18:
	@DEBUG_VALUE: lv_cpicker_signal:ext <- $r8
	@DEBUG_VALUE: lv_cpicker_signal:param <- $r7
	@DEBUG_VALUE: lv_cpicker_signal:sign <- $r6
	@DEBUG_VALUE: lv_cpicker_signal:cpicker <- $r5
	@DEBUG_VALUE: lv_cpicker_signal:res <- $r4
	.loc	10 769 33 is_stmt 1             @ lvgl/src/lv_widgets/lv_cpicker.c:769:33
	bl	lv_tick_get
	.loc	10 769 31 is_stmt 0             @ lvgl/src/lv_widgets/lv_cpicker.c:769:31
	str.w	r0, [r8, #24]
	.loc	10 770 28 is_stmt 1             @ lvgl/src/lv_widgets/lv_cpicker.c:770:28
	bl	lv_indev_get_act
	.loc	10 770 54 is_stmt 0             @ lvgl/src/lv_widgets/lv_cpicker.c:770:54
	add.w	r1, r8, #28
	.loc	10 770 9                        @ lvgl/src/lv_widgets/lv_cpicker.c:770:9
	bl	lv_indev_get_point
	.loc	10 771 15 is_stmt 1             @ lvgl/src/lv_widgets/lv_cpicker.c:771:15
	mov	r0, r5
	bl	double_click_reset
	mov	r4, r0
.Ltmp67:
	@DEBUG_VALUE: lv_cpicker_signal:res <- $r4
	.loc	10 772 12                       @ lvgl/src/lv_widgets/lv_cpicker.c:772:12
	cmp	r0, #1
	bne.w	.LBB1_69
	b	.LBB1_68
.Ltmp68:
.LBB1_19:
	@DEBUG_VALUE: lv_cpicker_signal:ext <- $r8
	@DEBUG_VALUE: lv_cpicker_signal:param <- $r7
	@DEBUG_VALUE: lv_cpicker_signal:sign <- $r6
	@DEBUG_VALUE: lv_cpicker_signal:cpicker <- $r5
	@DEBUG_VALUE: lv_cpicker_signal:res <- $r4
	.loc	10 775 30                       @ lvgl/src/lv_widgets/lv_cpicker.c:775:30
	bl	lv_indev_get_act
.Ltmp69:
	@DEBUG_VALUE: indev <- $r0
	.loc	10 776 12                       @ lvgl/src/lv_widgets/lv_cpicker.c:776:12
	cmp	r0, #0
	beq	.LBB1_33
.Ltmp70:
@ %bb.20:
	@DEBUG_VALUE: lv_cpicker_signal:ext <- $r8
	@DEBUG_VALUE: lv_cpicker_signal:param <- $r7
	@DEBUG_VALUE: lv_cpicker_signal:sign <- $r6
	@DEBUG_VALUE: lv_cpicker_signal:cpicker <- $r5
	@DEBUG_VALUE: lv_cpicker_signal:res <- $r4
	@DEBUG_VALUE: indev <- $r0
	.loc	10 0 0 is_stmt 0                @ lvgl/src/lv_widgets/lv_cpicker.c:0:0
	mov	r9, r0
.Ltmp71:
	@DEBUG_VALUE: indev <- $r9
	.loc	10 778 38 is_stmt 1             @ lvgl/src/lv_widgets/lv_cpicker.c:778:38
	bl	lv_indev_get_type
.Ltmp72:
	@DEBUG_VALUE: indev_type <- $r0
	.loc	10 780 48                       @ lvgl/src/lv_widgets/lv_cpicker.c:780:48
	cmp	r0, #4
	it	ne
	cmpne	r0, #2
	bne	.LBB1_34
.Ltmp73:
@ %bb.21:
	@DEBUG_VALUE: indev <- $r9
	@DEBUG_VALUE: lv_cpicker_signal:ext <- $r8
	@DEBUG_VALUE: lv_cpicker_signal:param <- $r7
	@DEBUG_VALUE: lv_cpicker_signal:sign <- $r6
	@DEBUG_VALUE: lv_cpicker_signal:cpicker <- $r5
	@DEBUG_VALUE: lv_cpicker_signal:res <- $r4
	@DEBUG_VALUE: indev_type <- $r0
	.loc	10 781 35                       @ lvgl/src/lv_widgets/lv_cpicker.c:781:35
	ldrh	r6, [r5, #16]
.Ltmp74:
	@DEBUG_VALUE: lv_cpicker_signal:sign <- [DW_OP_LLVM_entry_value 1] $r1
	.loc	10 781 40 is_stmt 0             @ lvgl/src/lv_widgets/lv_cpicker.c:781:40
	mov	r0, r5
.Ltmp75:
	bl	lv_obj_get_width
	uxth	r1, r0
	.loc	10 782 35 is_stmt 1             @ lvgl/src/lv_widgets/lv_cpicker.c:782:35
	ldrh	r7, [r5, #18]
.Ltmp76:
	@DEBUG_VALUE: lv_cpicker_signal:param <- [DW_OP_LLVM_entry_value 1] $r2
	.loc	10 781 66                       @ lvgl/src/lv_widgets/lv_cpicker.c:781:66
	add.w	r0, r0, r1, lsr #15
	sxth	r0, r0
	.loc	10 781 38 is_stmt 0             @ lvgl/src/lv_widgets/lv_cpicker.c:781:38
	add.w	r0, r6, r0, lsr #1
	.loc	10 781 17                       @ lvgl/src/lv_widgets/lv_cpicker.c:781:17
	strh.w	r0, [sp]
	.loc	10 782 40 is_stmt 1             @ lvgl/src/lv_widgets/lv_cpicker.c:782:40
	mov	r0, r5
	bl	lv_obj_get_height
	uxth	r1, r0
	.loc	10 782 67 is_stmt 0             @ lvgl/src/lv_widgets/lv_cpicker.c:782:67
	add.w	r0, r0, r1, lsr #15
	sxth	r0, r0
	.loc	10 782 38                       @ lvgl/src/lv_widgets/lv_cpicker.c:782:38
	add.w	r0, r7, r0, lsr #1
	.loc	10 782 17                       @ lvgl/src/lv_widgets/lv_cpicker.c:782:17
	strh.w	r0, [sp, #2]
	b	.LBB1_35
.Ltmp77:
.LBB1_22:
	@DEBUG_VALUE: lv_cpicker_signal:ext <- $r8
	@DEBUG_VALUE: lv_cpicker_signal:param <- $r7
	@DEBUG_VALUE: lv_cpicker_signal:sign <- $r6
	@DEBUG_VALUE: lv_cpicker_signal:cpicker <- $r5
	@DEBUG_VALUE: lv_cpicker_signal:res <- $r4
	.loc	10 722 22 is_stmt 1             @ lvgl/src/lv_widgets/lv_cpicker.c:722:22
	ldr	r0, [r7]
.Ltmp78:
	@DEBUG_VALUE: c <- $r0
	.loc	10 724 30                       @ lvgl/src/lv_widgets/lv_cpicker.c:724:30
	bic	r1, r0, #2
	cmp	r1, #17
	bne	.LBB1_28
.Ltmp79:
@ %bb.23:
	@DEBUG_VALUE: lv_cpicker_signal:ext <- $r8
	@DEBUG_VALUE: lv_cpicker_signal:param <- $r7
	@DEBUG_VALUE: lv_cpicker_signal:sign <- $r6
	@DEBUG_VALUE: lv_cpicker_signal:cpicker <- $r5
	@DEBUG_VALUE: lv_cpicker_signal:res <- $r4
	@DEBUG_VALUE: c <- $r0
	.loc	10 728 25                       @ lvgl/src/lv_widgets/lv_cpicker.c:728:25
	ldrb.w	r2, [r8, #32]
	.loc	10 726 28                       @ lvgl/src/lv_widgets/lv_cpicker.c:726:28
	ldrh.w	r0, [r8]
.Ltmp80:
	@DEBUG_VALUE: hsv_cur <- [DW_OP_LLVM_fragment 0 16] undef
	ldrb.w	r1, [r8, #2]
.Ltmp81:
	@DEBUG_VALUE: hsv_cur <- [DW_OP_LLVM_fragment 16 8] undef
	.loc	10 728 20                       @ lvgl/src/lv_widgets/lv_cpicker.c:728:20
	and	r3, r2, #3
	.loc	10 726 28                       @ lvgl/src/lv_widgets/lv_cpicker.c:726:28
	ldrb.w	r2, [r8, #3]
.Ltmp82:
	@DEBUG_VALUE: hsv_cur <- [DW_OP_LLVM_fragment 24 8] undef
	.loc	10 728 13                       @ lvgl/src/lv_widgets/lv_cpicker.c:728:13
	cmp	r3, #2
	beq.w	.LBB1_56
.Ltmp83:
@ %bb.24:
	@DEBUG_VALUE: lv_cpicker_signal:ext <- $r8
	@DEBUG_VALUE: lv_cpicker_signal:param <- $r7
	@DEBUG_VALUE: lv_cpicker_signal:sign <- $r6
	@DEBUG_VALUE: lv_cpicker_signal:cpicker <- $r5
	@DEBUG_VALUE: lv_cpicker_signal:res <- $r4
	cmp	r3, #1
	beq.w	.LBB1_57
.Ltmp84:
@ %bb.25:
	@DEBUG_VALUE: lv_cpicker_signal:ext <- $r8
	@DEBUG_VALUE: lv_cpicker_signal:param <- $r7
	@DEBUG_VALUE: lv_cpicker_signal:sign <- $r6
	@DEBUG_VALUE: lv_cpicker_signal:cpicker <- $r5
	@DEBUG_VALUE: lv_cpicker_signal:res <- $r4
	cmp	r3, #0
	bne.w	.LBB1_61
.Ltmp85:
@ %bb.26:
	@DEBUG_VALUE: lv_cpicker_signal:ext <- $r8
	@DEBUG_VALUE: lv_cpicker_signal:param <- $r7
	@DEBUG_VALUE: lv_cpicker_signal:sign <- $r6
	@DEBUG_VALUE: lv_cpicker_signal:cpicker <- $r5
	@DEBUG_VALUE: lv_cpicker_signal:res <- $r4
	.loc	10 730 45                       @ lvgl/src/lv_widgets/lv_cpicker.c:730:45
	adds	r0, #1
	movw	r7, #27671
.Ltmp86:
	@DEBUG_VALUE: lv_cpicker_signal:param <- [DW_OP_LLVM_entry_value 1] $r2
	.loc	10 730 50 is_stmt 0             @ lvgl/src/lv_widgets/lv_cpicker.c:730:50
	lsrs	r3, r0, #3
	movt	r7, #5825
	umull	r3, r7, r3, r7
	lsrs	r3, r7, #2
	mov.w	r7, #360
	mls	r0, r3, r7, r0
.Ltmp87:
	@DEBUG_VALUE: hsv_cur <- [DW_OP_LLVM_fragment 0 16] undef
	.loc	10 0 50                         @ lvgl/src/lv_widgets/lv_cpicker.c:0:50
	b	.LBB1_61
.Ltmp88:
.LBB1_27:
	@DEBUG_VALUE: lv_cpicker_signal:ext <- $r8
	@DEBUG_VALUE: lv_cpicker_signal:cpicker <- $r5
	@DEBUG_VALUE: lv_cpicker_signal:res <- $r4
	@DEBUG_VALUE: knob_pad <- $r0
	@DEBUG_VALUE: lv_cpicker_signal:sign <- [DW_OP_LLVM_entry_value 1] $r1
	@DEBUG_VALUE: lv_cpicker_signal:param <- [DW_OP_LLVM_entry_value 1] $r2
	.loc	10 698 37 is_stmt 1             @ lvgl/src/lv_widgets/lv_cpicker.c:698:37
	ldrsh.w	r0, [r5, #50]
.Ltmp89:
	cmp	r0, r6
	it	gt
	movgt	r6, r0
	.loc	10 698 35 is_stmt 0             @ lvgl/src/lv_widgets/lv_cpicker.c:698:35
	strh	r6, [r5, #50]
	b	.LBB1_68
.Ltmp90:
.LBB1_28:
	@DEBUG_VALUE: lv_cpicker_signal:ext <- $r8
	@DEBUG_VALUE: lv_cpicker_signal:param <- $r7
	@DEBUG_VALUE: lv_cpicker_signal:sign <- $r6
	@DEBUG_VALUE: lv_cpicker_signal:cpicker <- $r5
	@DEBUG_VALUE: lv_cpicker_signal:res <- $r4
	@DEBUG_VALUE: c <- $r0
	.loc	10 745 34 is_stmt 1             @ lvgl/src/lv_widgets/lv_cpicker.c:745:34
	cmp	r0, #20
	it	ne
	cmpne	r0, #18
	bne.w	.LBB1_58
.Ltmp91:
@ %bb.29:
	@DEBUG_VALUE: lv_cpicker_signal:ext <- $r8
	@DEBUG_VALUE: lv_cpicker_signal:param <- $r7
	@DEBUG_VALUE: lv_cpicker_signal:sign <- $r6
	@DEBUG_VALUE: lv_cpicker_signal:cpicker <- $r5
	@DEBUG_VALUE: lv_cpicker_signal:res <- $r4
	@DEBUG_VALUE: c <- $r0
	.loc	10 749 25                       @ lvgl/src/lv_widgets/lv_cpicker.c:749:25
	ldrb.w	r2, [r8, #32]
	.loc	10 747 28                       @ lvgl/src/lv_widgets/lv_cpicker.c:747:28
	ldrh.w	r0, [r8]
.Ltmp92:
	@DEBUG_VALUE: hsv_cur <- [DW_OP_LLVM_fragment 0 16] undef
	ldrb.w	r1, [r8, #2]
.Ltmp93:
	@DEBUG_VALUE: hsv_cur <- [DW_OP_LLVM_fragment 16 8] undef
	.loc	10 749 20                       @ lvgl/src/lv_widgets/lv_cpicker.c:749:20
	and	r3, r2, #3
	.loc	10 747 28                       @ lvgl/src/lv_widgets/lv_cpicker.c:747:28
	ldrb.w	r2, [r8, #3]
.Ltmp94:
	@DEBUG_VALUE: hsv_cur <- [DW_OP_LLVM_fragment 24 8] undef
	.loc	10 749 13                       @ lvgl/src/lv_widgets/lv_cpicker.c:749:13
	cmp	r3, #2
	beq.w	.LBB1_59
.Ltmp95:
@ %bb.30:
	@DEBUG_VALUE: lv_cpicker_signal:ext <- $r8
	@DEBUG_VALUE: lv_cpicker_signal:param <- $r7
	@DEBUG_VALUE: lv_cpicker_signal:sign <- $r6
	@DEBUG_VALUE: lv_cpicker_signal:cpicker <- $r5
	@DEBUG_VALUE: lv_cpicker_signal:res <- $r4
	cmp	r3, #1
	beq.w	.LBB1_60
.Ltmp96:
@ %bb.31:
	@DEBUG_VALUE: lv_cpicker_signal:ext <- $r8
	@DEBUG_VALUE: lv_cpicker_signal:param <- $r7
	@DEBUG_VALUE: lv_cpicker_signal:sign <- $r6
	@DEBUG_VALUE: lv_cpicker_signal:cpicker <- $r5
	@DEBUG_VALUE: lv_cpicker_signal:res <- $r4
	cmp	r3, #0
	bne.w	.LBB1_61
.Ltmp97:
@ %bb.32:
	@DEBUG_VALUE: lv_cpicker_signal:ext <- $r8
	@DEBUG_VALUE: lv_cpicker_signal:param <- $r7
	@DEBUG_VALUE: lv_cpicker_signal:sign <- $r6
	@DEBUG_VALUE: lv_cpicker_signal:cpicker <- $r5
	@DEBUG_VALUE: lv_cpicker_signal:res <- $r4
	.loc	10 751 33                       @ lvgl/src/lv_widgets/lv_cpicker.c:751:33
	cmp	r0, #0
	sub.w	r0, r0, #1
	it	eq
	moveq.w	r0, #360
.Ltmp98:
	@DEBUG_VALUE: hsv_cur <- [DW_OP_LLVM_fragment 0 16] $r0
	@DEBUG_VALUE: hsv_cur <- [DW_OP_LLVM_fragment 0 16] $r0
	.loc	10 0 33 is_stmt 0               @ lvgl/src/lv_widgets/lv_cpicker.c:0:33
	b	.LBB1_61
.Ltmp99:
.LBB1_33:
	@DEBUG_VALUE: lv_cpicker_signal:ext <- $r8
	@DEBUG_VALUE: lv_cpicker_signal:param <- $r7
	@DEBUG_VALUE: lv_cpicker_signal:sign <- $r6
	@DEBUG_VALUE: lv_cpicker_signal:cpicker <- $r5
	@DEBUG_VALUE: lv_cpicker_signal:res <- $r4
	@DEBUG_VALUE: indev <- $r0
	movs	r2, #1
.Ltmp100:
	mov	r0, r4
.Ltmp101:
	b	.LBB1_78
.Ltmp102:
.LBB1_34:
	@DEBUG_VALUE: indev <- $r9
	@DEBUG_VALUE: lv_cpicker_signal:ext <- $r8
	@DEBUG_VALUE: lv_cpicker_signal:param <- $r7
	@DEBUG_VALUE: lv_cpicker_signal:sign <- $r6
	@DEBUG_VALUE: lv_cpicker_signal:cpicker <- $r5
	@DEBUG_VALUE: lv_cpicker_signal:res <- $r4
	@DEBUG_VALUE: indev_type <- $r0
	mov	r1, sp
.Ltmp103:
	.loc	10 785 13 is_stmt 1             @ lvgl/src/lv_widgets/lv_cpicker.c:785:13
	mov	r0, r9
.Ltmp104:
	bl	lv_indev_get_point
.Ltmp105:
.LBB1_35:
	@DEBUG_VALUE: indev <- $r9
	@DEBUG_VALUE: lv_cpicker_signal:ext <- $r8
	@DEBUG_VALUE: lv_cpicker_signal:cpicker <- $r5
	@DEBUG_VALUE: lv_cpicker_signal:res <- $r4
	.loc	10 788 13                       @ lvgl/src/lv_widgets/lv_cpicker.c:788:13
	ldrsh.w	r0, [sp]
	ldrsh.w	r1, [r8, #28]
	subs	r0, r0, r1
	it	mi
	rsbmi	r0, r0, #0
	.loc	10 788 72 is_stmt 0             @ lvgl/src/lv_widgets/lv_cpicker.c:788:72
	ldrb.w	r1, [r9, #20]
	.loc	10 788 88                       @ lvgl/src/lv_widgets/lv_cpicker.c:788:88
	cmp.w	r0, r1, lsr #1
	bhi	.LBB1_37
.Ltmp106:
@ %bb.36:
	@DEBUG_VALUE: indev <- $r9
	@DEBUG_VALUE: lv_cpicker_signal:ext <- $r8
	@DEBUG_VALUE: lv_cpicker_signal:cpicker <- $r5
	@DEBUG_VALUE: lv_cpicker_signal:res <- $r4
	.loc	10 789 13 is_stmt 1             @ lvgl/src/lv_widgets/lv_cpicker.c:789:13
	ldrsh.w	r0, [sp, #2]
	ldrsh.w	r2, [r8, #30]
	.loc	10 0 0 is_stmt 0                @ lvgl/src/lv_widgets/lv_cpicker.c:0:0
	lsrs	r1, r1, #1
	.loc	10 789 13                       @ lvgl/src/lv_widgets/lv_cpicker.c:789:13
	subs	r0, r0, r2
	it	mi
	rsbmi	r0, r0, #0
.Ltmp107:
	.loc	10 788 12 is_stmt 1             @ lvgl/src/lv_widgets/lv_cpicker.c:788:12
	cmp	r0, r1
	bls	.LBB1_38
.Ltmp108:
.LBB1_37:
	@DEBUG_VALUE: indev <- $r9
	@DEBUG_VALUE: lv_cpicker_signal:ext <- $r8
	@DEBUG_VALUE: lv_cpicker_signal:cpicker <- $r5
	@DEBUG_VALUE: lv_cpicker_signal:res <- $r4
	.loc	10 790 37                       @ lvgl/src/lv_widgets/lv_cpicker.c:790:37
	bl	lv_tick_get
	.loc	10 790 35 is_stmt 0             @ lvgl/src/lv_widgets/lv_cpicker.c:790:35
	str.w	r0, [r8, #24]
	.loc	10 791 41 is_stmt 1             @ lvgl/src/lv_widgets/lv_cpicker.c:791:41
	ldr	r0, [sp]
	.loc	10 791 37 is_stmt 0             @ lvgl/src/lv_widgets/lv_cpicker.c:791:37
	str.w	r0, [r8, #28]
.Ltmp109:
.LBB1_38:
	@DEBUG_VALUE: indev <- $r9
	@DEBUG_VALUE: lv_cpicker_signal:ext <- $r8
	@DEBUG_VALUE: lv_cpicker_signal:cpicker <- $r5
	@DEBUG_VALUE: lv_cpicker_signal:res <- $r4
	.loc	10 795 32 is_stmt 1             @ lvgl/src/lv_widgets/lv_cpicker.c:795:32
	ldrh	r0, [r5, #16]
	.loc	10 795 13 is_stmt 0             @ lvgl/src/lv_widgets/lv_cpicker.c:795:13
	ldrh.w	r1, [sp]
	.loc	10 796 32 is_stmt 1             @ lvgl/src/lv_widgets/lv_cpicker.c:796:32
	ldrh	r2, [r5, #18]
	.loc	10 796 13 is_stmt 0             @ lvgl/src/lv_widgets/lv_cpicker.c:796:13
	ldrh.w	r3, [sp, #2]
	.loc	10 795 13 is_stmt 1             @ lvgl/src/lv_widgets/lv_cpicker.c:795:13
	subs	r0, r1, r0
	strh.w	r0, [sp]
	.loc	10 796 13                       @ lvgl/src/lv_widgets/lv_cpicker.c:796:13
	subs	r0, r3, r2
	strh.w	r0, [sp, #2]
	.loc	10 799 22                       @ lvgl/src/lv_widgets/lv_cpicker.c:799:22
	mov	r0, r5
	bl	lv_obj_get_width
.Ltmp110:
	.loc	10 803 17                       @ lvgl/src/lv_widgets/lv_cpicker.c:803:17
	ldrb.w	r1, [r8, #32]
.Ltmp111:
	.loc	10 799 22                       @ lvgl/src/lv_widgets/lv_cpicker.c:799:22
	mov	r6, r0
.Ltmp112:
	@DEBUG_VALUE: angle <- 0
	@DEBUG_VALUE: w <- undef
	.loc	10 803 12                       @ lvgl/src/lv_widgets/lv_cpicker.c:803:12
	lsls	r1, r1, #28
	bmi	.LBB1_42
.Ltmp113:
@ %bb.39:
	@DEBUG_VALUE: indev <- $r9
	@DEBUG_VALUE: lv_cpicker_signal:ext <- $r8
	@DEBUG_VALUE: lv_cpicker_signal:cpicker <- $r5
	@DEBUG_VALUE: lv_cpicker_signal:res <- $r4
	@DEBUG_VALUE: angle <- 0
	.loc	10 805 48                       @ lvgl/src/lv_widgets/lv_cpicker.c:805:48
	ldr.w	r0, [r8, #24]
	.loc	10 805 29 is_stmt 0             @ lvgl/src/lv_widgets/lv_cpicker.c:805:29
	bl	lv_tick_elaps
.Ltmp114:
	.loc	10 806 47 is_stmt 1             @ lvgl/src/lv_widgets/lv_cpicker.c:806:47
	ldrh.w	r1, [r9, #24]
.Ltmp115:
	@DEBUG_VALUE: diff <- $r0
	.loc	10 806 67 is_stmt 0             @ lvgl/src/lv_widgets/lv_cpicker.c:806:67
	cmp.w	r0, r1, lsl #1
	bls	.LBB1_41
.Ltmp116:
@ %bb.40:
	@DEBUG_VALUE: indev <- $r9
	@DEBUG_VALUE: lv_cpicker_signal:ext <- $r8
	@DEBUG_VALUE: lv_cpicker_signal:cpicker <- $r5
	@DEBUG_VALUE: lv_cpicker_signal:res <- $r4
	@DEBUG_VALUE: diff <- $r0
	@DEBUG_VALUE: angle <- 0
	.loc	10 806 76                       @ lvgl/src/lv_widgets/lv_cpicker.c:806:76
	ldrb.w	r0, [r8, #32]
.Ltmp117:
	.loc	10 806 16                       @ lvgl/src/lv_widgets/lv_cpicker.c:806:16
	lsls	r0, r0, #29
	bpl	.LBB1_47
.Ltmp118:
.LBB1_41:
	@DEBUG_VALUE: indev <- $r9
	@DEBUG_VALUE: lv_cpicker_signal:ext <- $r8
	@DEBUG_VALUE: lv_cpicker_signal:cpicker <- $r5
	@DEBUG_VALUE: lv_cpicker_signal:res <- $r4
	@DEBUG_VALUE: angle <- 0
	.loc	10 812 24 is_stmt 1             @ lvgl/src/lv_widgets/lv_cpicker.c:812:24
	ldrsh.w	r0, [sp]
	mov.w	r1, #360
	.loc	10 812 26 is_stmt 0             @ lvgl/src/lv_widgets/lv_cpicker.c:812:26
	muls	r0, r1, r0
	.loc	10 812 35                       @ lvgl/src/lv_widgets/lv_cpicker.c:812:35
	uxth	r1, r6
	.loc	10 812 33                       @ lvgl/src/lv_widgets/lv_cpicker.c:812:33
	sdiv	r0, r0, r1
.Ltmp119:
	@DEBUG_VALUE: angle <- $r0
	.loc	10 813 16 is_stmt 1             @ lvgl/src/lv_widgets/lv_cpicker.c:813:16
	lsls	r1, r0, #16
	it	mi
	movmi	r0, #0
.Ltmp120:
	@DEBUG_VALUE: angle <- $r0
	sxth	r1, r0
	.loc	10 814 16                       @ lvgl/src/lv_widgets/lv_cpicker.c:814:16
	cmp.w	r1, #358
	it	gt
	movwgt	r0, #359
.Ltmp121:
	@DEBUG_VALUE: angle <- $r0
	.loc	10 0 16 is_stmt 0               @ lvgl/src/lv_widgets/lv_cpicker.c:0:16
	b	.LBB1_50
.Ltmp122:
.LBB1_42:
	@DEBUG_VALUE: indev <- $r9
	@DEBUG_VALUE: lv_cpicker_signal:ext <- $r8
	@DEBUG_VALUE: lv_cpicker_signal:cpicker <- $r5
	@DEBUG_VALUE: lv_cpicker_signal:res <- $r4
	@DEBUG_VALUE: angle <- 0
	.loc	10 818 38 is_stmt 1             @ lvgl/src/lv_widgets/lv_cpicker.c:818:38
	mov	r0, r5
	bl	lv_obj_get_style_scale_width
	.loc	10 820 33                       @ lvgl/src/lv_widgets/lv_cpicker.c:820:33
	uxth	r1, r6
.Ltmp123:
	@DEBUG_VALUE: r_in <- undef
	.loc	10 821 17                       @ lvgl/src/lv_widgets/lv_cpicker.c:821:17
	ldrh.w	r2, [sp]
.Ltmp124:
	@DEBUG_VALUE: scale_w <- $r0
	.loc	10 822 17                       @ lvgl/src/lv_widgets/lv_cpicker.c:822:17
	ldrh.w	r3, [sp, #2]
	.loc	10 824 18                       @ lvgl/src/lv_widgets/lv_cpicker.c:824:18
	rsb	r0, r0, r1, lsr #1
.Ltmp125:
	@DEBUG_VALUE: r_in <- $r0
	sxth	r6, r0
	.loc	10 821 17                       @ lvgl/src/lv_widgets/lv_cpicker.c:821:17
	sub.w	r2, r2, r1, lsr #1
	.loc	10 825 16                       @ lvgl/src/lv_widgets/lv_cpicker.c:825:16
	cmp	r6, #66
	.loc	10 821 17                       @ lvgl/src/lv_widgets/lv_cpicker.c:821:17
	strh.w	r2, [sp]
	.loc	10 822 17                       @ lvgl/src/lv_widgets/lv_cpicker.c:822:17
	sub.w	r0, r3, r1, lsr #1
.Ltmp126:
	strh.w	r0, [sp, #2]
.Ltmp127:
	@DEBUG_VALUE: on_ring <- 1
	.loc	10 825 16                       @ lvgl/src/lv_widgets/lv_cpicker.c:825:16
	blt	.LBB1_44
.Ltmp128:
@ %bb.43:
	@DEBUG_VALUE: indev <- $r9
	@DEBUG_VALUE: lv_cpicker_signal:ext <- $r8
	@DEBUG_VALUE: lv_cpicker_signal:cpicker <- $r5
	@DEBUG_VALUE: lv_cpicker_signal:res <- $r4
	@DEBUG_VALUE: on_ring <- 1
	@DEBUG_VALUE: angle <- 0
	.loc	10 826 40                       @ lvgl/src/lv_widgets/lv_cpicker.c:826:40
	mov	r0, r5
	bl	lv_obj_get_style_pad_inner
.Ltmp129:
	@DEBUG_VALUE: inner <- $r0
	.loc	10 827 22                       @ lvgl/src/lv_widgets/lv_cpicker.c:827:22
	subs	r6, r6, r0
.Ltmp130:
	@DEBUG_VALUE: r_in <- $r6
	sxth	r0, r6
.Ltmp131:
	.loc	10 829 20                       @ lvgl/src/lv_widgets/lv_cpicker.c:829:20
	cmp	r0, #65
	it	le
	movle	r6, #65
.Ltmp132:
.LBB1_44:
	@DEBUG_VALUE: indev <- $r9
	@DEBUG_VALUE: lv_cpicker_signal:ext <- $r8
	@DEBUG_VALUE: lv_cpicker_signal:cpicker <- $r5
	@DEBUG_VALUE: lv_cpicker_signal:res <- $r4
	@DEBUG_VALUE: on_ring <- 1
	@DEBUG_VALUE: angle <- 0
	@DEBUG_VALUE: r_in <- $r6
	.loc	10 832 30                       @ lvgl/src/lv_widgets/lv_cpicker.c:832:30
	ldrsh.w	r0, [sp, #2]
	.loc	10 832 45 is_stmt 0             @ lvgl/src/lv_widgets/lv_cpicker.c:832:45
	smulbb	r6, r6, r6
.Ltmp133:
	@DEBUG_VALUE: on_ring <- undef
	.loc	10 832 18                       @ lvgl/src/lv_widgets/lv_cpicker.c:832:18
	ldrsh.w	r1, [sp]
	.loc	10 832 32                       @ lvgl/src/lv_widgets/lv_cpicker.c:832:32
	muls	r0, r0, r0
	.loc	10 832 26                       @ lvgl/src/lv_widgets/lv_cpicker.c:832:26
	smlabb	r7, r1, r1, r0
.Ltmp134:
	.loc	10 837 48 is_stmt 1             @ lvgl/src/lv_widgets/lv_cpicker.c:837:48
	ldr.w	r0, [r8, #24]
	.loc	10 837 29 is_stmt 0             @ lvgl/src/lv_widgets/lv_cpicker.c:837:29
	bl	lv_tick_elaps
.Ltmp135:
	.loc	10 838 25 is_stmt 1             @ lvgl/src/lv_widgets/lv_cpicker.c:838:25
	cmp	r7, r6
.Ltmp136:
	@DEBUG_VALUE: diff <- $r0
	bhs	.LBB1_49
.Ltmp137:
@ %bb.45:
	@DEBUG_VALUE: indev <- $r9
	@DEBUG_VALUE: lv_cpicker_signal:ext <- $r8
	@DEBUG_VALUE: lv_cpicker_signal:cpicker <- $r5
	@DEBUG_VALUE: lv_cpicker_signal:res <- $r4
	@DEBUG_VALUE: diff <- $r0
	@DEBUG_VALUE: angle <- 0
	.loc	10 838 49 is_stmt 0             @ lvgl/src/lv_widgets/lv_cpicker.c:838:49
	ldrh.w	r1, [r9, #24]
	.loc	10 838 65                       @ lvgl/src/lv_widgets/lv_cpicker.c:838:65
	cmp	r0, r1
	bls	.LBB1_48
.Ltmp138:
@ %bb.46:
	@DEBUG_VALUE: indev <- $r9
	@DEBUG_VALUE: lv_cpicker_signal:ext <- $r8
	@DEBUG_VALUE: lv_cpicker_signal:cpicker <- $r5
	@DEBUG_VALUE: lv_cpicker_signal:res <- $r4
	@DEBUG_VALUE: diff <- $r0
	@DEBUG_VALUE: angle <- 0
	.loc	10 838 74                       @ lvgl/src/lv_widgets/lv_cpicker.c:838:74
	ldrb.w	r0, [r8, #32]
.Ltmp139:
	.loc	10 838 16                       @ lvgl/src/lv_widgets/lv_cpicker.c:838:16
	lsls	r0, r0, #29
	bmi	.LBB1_48
.Ltmp140:
.LBB1_47:
	@DEBUG_VALUE: indev <- $r9
	@DEBUG_VALUE: lv_cpicker_signal:ext <- $r8
	@DEBUG_VALUE: lv_cpicker_signal:cpicker <- $r5
	@DEBUG_VALUE: lv_cpicker_signal:res <- $r4
	@DEBUG_VALUE: angle <- 0
	.loc	10 0 0                          @ lvgl/src/lv_widgets/lv_cpicker.c:0:0
	mov	r0, r5
	bl	next_color_mode
	bl	lv_indev_get_act
	bl	lv_indev_wait_release
.Ltmp141:
.LBB1_48:
	@DEBUG_VALUE: indev <- $r9
	@DEBUG_VALUE: lv_cpicker_signal:ext <- $r8
	@DEBUG_VALUE: lv_cpicker_signal:cpicker <- $r5
	@DEBUG_VALUE: lv_cpicker_signal:res <- $r4
	@DEBUG_VALUE: angle <- 0
	movs	r0, #0
	movs	r1, #0
	b	.LBB1_51
.Ltmp142:
.LBB1_49:
	@DEBUG_VALUE: indev <- $r9
	@DEBUG_VALUE: lv_cpicker_signal:ext <- $r8
	@DEBUG_VALUE: lv_cpicker_signal:cpicker <- $r5
	@DEBUG_VALUE: lv_cpicker_signal:res <- $r4
	@DEBUG_VALUE: diff <- $r0
	@DEBUG_VALUE: angle <- 0
	.loc	10 847 33 is_stmt 1             @ lvgl/src/lv_widgets/lv_cpicker.c:847:33
	ldrsh.w	r0, [sp]
.Ltmp143:
	.loc	10 847 38 is_stmt 0             @ lvgl/src/lv_widgets/lv_cpicker.c:847:38
	ldrsh.w	r1, [sp, #2]
	.loc	10 847 21                       @ lvgl/src/lv_widgets/lv_cpicker.c:847:21
	bl	_lv_atan2
	movw	r2, #27671
	.loc	10 847 41                       @ lvgl/src/lv_widgets/lv_cpicker.c:847:41
	lsrs	r1, r0, #3
	movt	r2, #5825
	umull	r1, r2, r1, r2
	lsrs	r1, r2, #2
	mov.w	r2, #360
	mls	r0, r1, r2, r0
.Ltmp144:
	@DEBUG_VALUE: angle <- $r0
.LBB1_50:
	@DEBUG_VALUE: indev <- $r9
	@DEBUG_VALUE: lv_cpicker_signal:ext <- $r8
	@DEBUG_VALUE: lv_cpicker_signal:cpicker <- $r5
	@DEBUG_VALUE: lv_cpicker_signal:res <- $r4
	@DEBUG_VALUE: angle <- $r0
	.loc	10 0 41                         @ lvgl/src/lv_widgets/lv_cpicker.c:0:41
	movs	r1, #1
.Ltmp145:
.LBB1_51:
	@DEBUG_VALUE: indev <- $r9
	@DEBUG_VALUE: lv_cpicker_signal:ext <- $r8
	@DEBUG_VALUE: lv_cpicker_signal:cpicker <- $r5
	@DEBUG_VALUE: lv_cpicker_signal:res <- $r4
	cbz	r1, .LBB1_55
.Ltmp146:
@ %bb.52:
	@DEBUG_VALUE: indev <- $r9
	@DEBUG_VALUE: lv_cpicker_signal:ext <- $r8
	@DEBUG_VALUE: lv_cpicker_signal:cpicker <- $r5
	@DEBUG_VALUE: lv_cpicker_signal:res <- $r4
	@DEBUG_VALUE: angle <- $r0
	.loc	10 853 21 is_stmt 1             @ lvgl/src/lv_widgets/lv_cpicker.c:853:21
	ldrb.w	r1, [r8, #32]
	.loc	10 851 24                       @ lvgl/src/lv_widgets/lv_cpicker.c:851:24
	ldrh.w	r3, [r8]
.Ltmp147:
	@DEBUG_VALUE: hsv_cur <- [DW_OP_LLVM_fragment 0 16] undef
	.loc	10 853 16                       @ lvgl/src/lv_widgets/lv_cpicker.c:853:16
	and	r7, r1, #3
	.loc	10 851 24                       @ lvgl/src/lv_widgets/lv_cpicker.c:851:24
	ldrb.w	r1, [r8, #2]
.Ltmp148:
	@DEBUG_VALUE: hsv_cur <- [DW_OP_LLVM_fragment 24 8] undef
	@DEBUG_VALUE: hsv_cur <- [DW_OP_LLVM_fragment 16 8] undef
	.loc	10 853 9                        @ lvgl/src/lv_widgets/lv_cpicker.c:853:9
	cmp	r7, #2
	beq	.LBB1_70
.Ltmp149:
@ %bb.53:
	@DEBUG_VALUE: indev <- $r9
	@DEBUG_VALUE: lv_cpicker_signal:ext <- $r8
	@DEBUG_VALUE: lv_cpicker_signal:cpicker <- $r5
	@DEBUG_VALUE: lv_cpicker_signal:res <- $r4
	@DEBUG_VALUE: angle <- $r0
	.loc	10 0 0 is_stmt 0                @ lvgl/src/lv_widgets/lv_cpicker.c:0:0
	ldrb.w	r2, [r8, #3]
	.loc	10 853 9                        @ lvgl/src/lv_widgets/lv_cpicker.c:853:9
	cmp	r7, #1
	beq	.LBB1_71
.Ltmp150:
@ %bb.54:
	@DEBUG_VALUE: indev <- $r9
	@DEBUG_VALUE: lv_cpicker_signal:ext <- $r8
	@DEBUG_VALUE: lv_cpicker_signal:cpicker <- $r5
	@DEBUG_VALUE: lv_cpicker_signal:res <- $r4
	@DEBUG_VALUE: angle <- $r0
	cmp	r7, #0
	.loc	10 0 0                          @ lvgl/src/lv_widgets/lv_cpicker.c:0:0
	it	ne
	movne	r0, r3
.Ltmp151:
	b	.LBB1_73
.Ltmp152:
.LBB1_55:
	@DEBUG_VALUE: indev <- $r9
	@DEBUG_VALUE: lv_cpicker_signal:ext <- $r8
	@DEBUG_VALUE: lv_cpicker_signal:cpicker <- $r5
	@DEBUG_VALUE: lv_cpicker_signal:res <- $r4
	movs	r2, #1
	mov	r1, r4
	b	.LBB1_77
.Ltmp153:
.LBB1_56:
	@DEBUG_VALUE: lv_cpicker_signal:ext <- $r8
	@DEBUG_VALUE: lv_cpicker_signal:param <- $r7
	@DEBUG_VALUE: lv_cpicker_signal:sign <- $r6
	@DEBUG_VALUE: lv_cpicker_signal:cpicker <- $r5
	@DEBUG_VALUE: lv_cpicker_signal:res <- $r4
	movw	r3, #34079
.Ltmp154:
	.loc	10 736 45 is_stmt 1             @ lvgl/src/lv_widgets/lv_cpicker.c:736:45
	adds	r2, #1
	movt	r3, #20971
	.loc	10 736 50 is_stmt 0             @ lvgl/src/lv_widgets/lv_cpicker.c:736:50
	umull	r3, r7, r2, r3
.Ltmp155:
	@DEBUG_VALUE: lv_cpicker_signal:param <- [DW_OP_LLVM_entry_value 1] $r2
	lsrs	r3, r7, #5
	movs	r7, #100
	mls	r2, r3, r7, r2
.Ltmp156:
	@DEBUG_VALUE: hsv_cur <- [DW_OP_LLVM_fragment 24 8] undef
	.loc	10 0 50                         @ lvgl/src/lv_widgets/lv_cpicker.c:0:50
	b	.LBB1_61
.Ltmp157:
.LBB1_57:
	@DEBUG_VALUE: lv_cpicker_signal:ext <- $r8
	@DEBUG_VALUE: lv_cpicker_signal:param <- $r7
	@DEBUG_VALUE: lv_cpicker_signal:sign <- $r6
	@DEBUG_VALUE: lv_cpicker_signal:cpicker <- $r5
	@DEBUG_VALUE: lv_cpicker_signal:res <- $r4
	movw	r3, #34079
	.loc	10 733 45 is_stmt 1             @ lvgl/src/lv_widgets/lv_cpicker.c:733:45
	adds	r1, #1
	movt	r3, #20971
	.loc	10 733 50 is_stmt 0             @ lvgl/src/lv_widgets/lv_cpicker.c:733:50
	umull	r3, r7, r1, r3
.Ltmp158:
	@DEBUG_VALUE: lv_cpicker_signal:param <- [DW_OP_LLVM_entry_value 1] $r2
	lsrs	r3, r7, #5
	movs	r7, #100
	mls	r1, r3, r7, r1
.Ltmp159:
	@DEBUG_VALUE: hsv_cur <- [DW_OP_LLVM_fragment 16 8] undef
	.loc	10 0 50                         @ lvgl/src/lv_widgets/lv_cpicker.c:0:50
	b	.LBB1_61
.Ltmp160:
.LBB1_58:
	@DEBUG_VALUE: lv_cpicker_signal:ext <- $r8
	@DEBUG_VALUE: lv_cpicker_signal:param <- $r7
	@DEBUG_VALUE: lv_cpicker_signal:sign <- $r6
	@DEBUG_VALUE: lv_cpicker_signal:cpicker <- $r5
	@DEBUG_VALUE: lv_cpicker_signal:res <- $r4
	@DEBUG_VALUE: c <- $r0
                                        @ implicit-def: $r0
	b	.LBB1_65
.Ltmp161:
.LBB1_59:
	@DEBUG_VALUE: lv_cpicker_signal:ext <- $r8
	@DEBUG_VALUE: lv_cpicker_signal:param <- $r7
	@DEBUG_VALUE: lv_cpicker_signal:sign <- $r6
	@DEBUG_VALUE: lv_cpicker_signal:cpicker <- $r5
	@DEBUG_VALUE: lv_cpicker_signal:res <- $r4
	.loc	10 757 33 is_stmt 1             @ lvgl/src/lv_widgets/lv_cpicker.c:757:33
	cmp	r2, #0
	sub.w	r2, r2, #1
	it	eq
	moveq	r2, #100
.Ltmp162:
	@DEBUG_VALUE: hsv_cur <- [DW_OP_LLVM_fragment 24 8] $r2
	@DEBUG_VALUE: hsv_cur <- [DW_OP_LLVM_fragment 24 8] $r2
	.loc	10 0 33 is_stmt 0               @ lvgl/src/lv_widgets/lv_cpicker.c:0:33
	b	.LBB1_61
.Ltmp163:
.LBB1_60:
	@DEBUG_VALUE: lv_cpicker_signal:ext <- $r8
	@DEBUG_VALUE: lv_cpicker_signal:param <- $r7
	@DEBUG_VALUE: lv_cpicker_signal:sign <- $r6
	@DEBUG_VALUE: lv_cpicker_signal:cpicker <- $r5
	@DEBUG_VALUE: lv_cpicker_signal:res <- $r4
	.loc	10 754 33 is_stmt 1             @ lvgl/src/lv_widgets/lv_cpicker.c:754:33
	cmp	r1, #0
	sub.w	r1, r1, #1
	it	eq
	moveq	r1, #100
.Ltmp164:
	@DEBUG_VALUE: hsv_cur <- [DW_OP_LLVM_fragment 16 8] $r1
	@DEBUG_VALUE: hsv_cur <- [DW_OP_LLVM_fragment 16 8] $r1
.LBB1_61:
	@DEBUG_VALUE: lv_cpicker_signal:ext <- $r8
	@DEBUG_VALUE: lv_cpicker_signal:sign <- $r6
	@DEBUG_VALUE: lv_cpicker_signal:cpicker <- $r5
	@DEBUG_VALUE: lv_cpicker_signal:res <- $r4
	@DEBUG_VALUE: hsv_cur <- [DW_OP_LLVM_fragment 0 16] $r0
	@DEBUG_VALUE: hsv_cur <- [DW_OP_LLVM_fragment 16 8] $r1
	@DEBUG_VALUE: hsv_cur <- [DW_OP_LLVM_fragment 24 8] $r2
	.loc	10 0 0 is_stmt 0                @ lvgl/src/lv_widgets/lv_cpicker.c:0:0
	uxtb	r1, r1
	pkhbt	r0, r0, r1, lsl #16
	orr.w	r1, r0, r2, lsl #24
	mov	r0, r5
	bl	lv_cpicker_set_hsv
	cbz	r0, .LBB1_63
.Ltmp165:
@ %bb.62:
	@DEBUG_VALUE: lv_cpicker_signal:ext <- $r8
	@DEBUG_VALUE: lv_cpicker_signal:sign <- $r6
	@DEBUG_VALUE: lv_cpicker_signal:cpicker <- $r5
	@DEBUG_VALUE: lv_cpicker_signal:res <- $r4
	movs	r1, #16
	movs	r2, #0
	mov	r0, r5
	movs	r6, #0
.Ltmp166:
	@DEBUG_VALUE: lv_cpicker_signal:sign <- [DW_OP_LLVM_entry_value 1] $r1
	bl	lv_event_send
	mov	r4, r0
.Ltmp167:
	@DEBUG_VALUE: lv_cpicker_signal:res <- $r4
	cmp	r0, #1
	bne	.LBB1_64
.Ltmp168:
.LBB1_63:
	@DEBUG_VALUE: lv_cpicker_signal:ext <- $r8
	@DEBUG_VALUE: lv_cpicker_signal:cpicker <- $r5
	@DEBUG_VALUE: lv_cpicker_signal:res <- $r4
	movs	r6, #1
	@DEBUG_VALUE: lv_cpicker_signal:res <- $r4
                                        @ implicit-def: $r0
.Ltmp169:
.LBB1_64:
	@DEBUG_VALUE: lv_cpicker_signal:ext <- $r8
	@DEBUG_VALUE: lv_cpicker_signal:cpicker <- $r5
	@DEBUG_VALUE: lv_cpicker_signal:res <- $r4
	@DEBUG_VALUE: lv_cpicker_signal:res <- $r4
	cbz	r6, .LBB1_66
.Ltmp170:
.LBB1_65:
	@DEBUG_VALUE: lv_cpicker_signal:ext <- $r8
	@DEBUG_VALUE: lv_cpicker_signal:cpicker <- $r5
	@DEBUG_VALUE: lv_cpicker_signal:res <- $r4
	movs	r1, #1
	@DEBUG_VALUE: lv_cpicker_signal:res <- $r4
	b	.LBB1_67
.Ltmp171:
.LBB1_66:
	@DEBUG_VALUE: lv_cpicker_signal:ext <- $r8
	@DEBUG_VALUE: lv_cpicker_signal:cpicker <- $r5
	@DEBUG_VALUE: lv_cpicker_signal:res <- $r4
	movs	r1, #0
.Ltmp172:
.LBB1_67:
	@DEBUG_VALUE: lv_cpicker_signal:ext <- $r8
	@DEBUG_VALUE: lv_cpicker_signal:cpicker <- $r5
	@DEBUG_VALUE: lv_cpicker_signal:res <- $r4
	@DEBUG_VALUE: lv_cpicker_signal:res <- $r4
	cbz	r1, .LBB1_69
.Ltmp173:
.LBB1_68:
	@DEBUG_VALUE: lv_cpicker_signal:cpicker <- $r5
	@DEBUG_VALUE: lv_cpicker_signal:res <- $r4
	@DEBUG_VALUE: lv_cpicker_signal:res <- $r4
	mov	r0, r4
.Ltmp174:
	@DEBUG_VALUE: lv_cpicker_signal:res <- $r0
.LBB1_69:
	@DEBUG_VALUE: lv_cpicker_signal:cpicker <- $r5
	.loc	10 876 1 is_stmt 1              @ lvgl/src/lv_widgets/lv_cpicker.c:876:1
	uxtb	r0, r0
	add	sp, #4
	pop.w	{r4, r5, r6, r7, r8, r9, pc}
.Ltmp175:
.LBB1_70:
	@DEBUG_VALUE: indev <- $r9
	@DEBUG_VALUE: lv_cpicker_signal:ext <- $r8
	@DEBUG_VALUE: lv_cpicker_signal:cpicker <- $r5
	@DEBUG_VALUE: lv_cpicker_signal:res <- $r4
	@DEBUG_VALUE: angle <- $r0
	.loc	10 0 1 is_stmt 0                @ lvgl/src/lv_widgets/lv_cpicker.c:0:1
	movs	r2, #100
	movw	r6, #24759
.Ltmp176:
	.loc	10 861 36 is_stmt 1             @ lvgl/src/lv_widgets/lv_cpicker.c:861:36
	smulbb	r7, r2, r0
	movt	r6, #46603
	.loc	10 861 43 is_stmt 0             @ lvgl/src/lv_widgets/lv_cpicker.c:861:43
	smmul	r7, r7, r6
	smlabb	r0, r2, r0, r7
.Ltmp177:
	asrs	r2, r0, #8
	add.w	r2, r2, r0, lsr #31
.Ltmp178:
	@DEBUG_VALUE: hsv_cur <- [DW_OP_LLVM_fragment 24 8] undef
	.loc	10 0 43                         @ lvgl/src/lv_widgets/lv_cpicker.c:0:43
	b	.LBB1_72
.Ltmp179:
.LBB1_71:
	@DEBUG_VALUE: indev <- $r9
	@DEBUG_VALUE: lv_cpicker_signal:ext <- $r8
	@DEBUG_VALUE: lv_cpicker_signal:cpicker <- $r5
	@DEBUG_VALUE: lv_cpicker_signal:res <- $r4
	@DEBUG_VALUE: angle <- $r0
	movs	r1, #100
	movw	r6, #24759
	.loc	10 858 36 is_stmt 1             @ lvgl/src/lv_widgets/lv_cpicker.c:858:36
	smulbb	r7, r1, r0
	movt	r6, #46603
	.loc	10 858 43 is_stmt 0             @ lvgl/src/lv_widgets/lv_cpicker.c:858:43
	smmul	r7, r7, r6
	smlabb	r0, r1, r0, r7
.Ltmp180:
	asrs	r1, r0, #8
	add.w	r1, r1, r0, lsr #31
.Ltmp181:
	@DEBUG_VALUE: hsv_cur <- [DW_OP_LLVM_fragment 16 8] undef
.LBB1_72:
	@DEBUG_VALUE: indev <- $r9
	@DEBUG_VALUE: lv_cpicker_signal:ext <- $r8
	@DEBUG_VALUE: lv_cpicker_signal:cpicker <- $r5
	@DEBUG_VALUE: lv_cpicker_signal:res <- $r4
	.loc	10 0 0                          @ lvgl/src/lv_widgets/lv_cpicker.c:0:0
	mov	r0, r3
.Ltmp182:
.LBB1_73:
	@DEBUG_VALUE: indev <- $r9
	@DEBUG_VALUE: lv_cpicker_signal:ext <- $r8
	@DEBUG_VALUE: lv_cpicker_signal:cpicker <- $r5
	@DEBUG_VALUE: lv_cpicker_signal:res <- $r4
	@DEBUG_VALUE: hsv_cur <- [DW_OP_LLVM_fragment 0 16] $r0
	@DEBUG_VALUE: hsv_cur <- [DW_OP_LLVM_fragment 16 8] $r1
	@DEBUG_VALUE: hsv_cur <- [DW_OP_LLVM_fragment 24 8] $r2
	.loc	10 865 12 is_stmt 1             @ lvgl/src/lv_widgets/lv_cpicker.c:865:12
	uxtb	r1, r1
.Ltmp183:
	uxth	r0, r0
.Ltmp184:
	lsls	r1, r1, #16
	orr.w	r1, r1, r2, lsl #24
	add	r1, r0
	mov	r0, r5
	bl	lv_cpicker_set_hsv
.Ltmp185:
	.loc	10 0 0 is_stmt 0                @ lvgl/src/lv_widgets/lv_cpicker.c:0:0
	mov	r1, r4
.Ltmp186:
	.loc	10 865 12                       @ lvgl/src/lv_widgets/lv_cpicker.c:865:12
	cbz	r0, .LBB1_75
.Ltmp187:
@ %bb.74:
	@DEBUG_VALUE: indev <- $r9
	@DEBUG_VALUE: lv_cpicker_signal:ext <- $r8
	@DEBUG_VALUE: lv_cpicker_signal:cpicker <- $r5
	@DEBUG_VALUE: lv_cpicker_signal:res <- $r4
	.loc	10 866 19 is_stmt 1             @ lvgl/src/lv_widgets/lv_cpicker.c:866:19
	movs	r1, #16
	movs	r2, #0
	mov	r0, r5
	bl	lv_event_send
	mov	r1, r0
.Ltmp188:
	@DEBUG_VALUE: lv_cpicker_signal:res <- $r1
	.loc	10 867 16                       @ lvgl/src/lv_widgets/lv_cpicker.c:867:16
	cmp	r0, #1
	bne	.LBB1_76
.Ltmp189:
.LBB1_75:
	@DEBUG_VALUE: indev <- $r9
	@DEBUG_VALUE: lv_cpicker_signal:ext <- $r8
	@DEBUG_VALUE: lv_cpicker_signal:cpicker <- $r5
	.loc	10 0 16 is_stmt 0               @ lvgl/src/lv_widgets/lv_cpicker.c:0:16
	movs	r2, #0
.Ltmp190:
	@DEBUG_VALUE: lv_cpicker_signal:res <- $r1
	b	.LBB1_77
.Ltmp191:
.LBB1_76:
	@DEBUG_VALUE: indev <- $r9
	@DEBUG_VALUE: lv_cpicker_signal:ext <- $r8
	@DEBUG_VALUE: lv_cpicker_signal:cpicker <- $r5
	@DEBUG_VALUE: lv_cpicker_signal:res <- $r1
	movs	r2, #1
	mov	r4, r1
.Ltmp192:
.LBB1_77:
	@DEBUG_VALUE: indev <- $r9
	@DEBUG_VALUE: lv_cpicker_signal:ext <- $r8
	@DEBUG_VALUE: lv_cpicker_signal:cpicker <- $r5
	mov	r0, r4
.Ltmp193:
	@DEBUG_VALUE: lv_cpicker_signal:res <- $r1
	mov	r4, r1
.Ltmp194:
	@DEBUG_VALUE: lv_cpicker_signal:res <- $r4
	@DEBUG_VALUE: lv_cpicker_signal:res <- $r4
.LBB1_78:
	@DEBUG_VALUE: lv_cpicker_signal:ext <- $r8
	@DEBUG_VALUE: lv_cpicker_signal:cpicker <- $r5
	@DEBUG_VALUE: lv_cpicker_signal:res <- $r4
	@DEBUG_VALUE: lv_cpicker_signal:res <- $r4
	cmp	r2, #0
	@DEBUG_VALUE: lv_cpicker_signal:res <- $r4
	it	eq
	moveq	r0, r4
.Ltmp195:
	@DEBUG_VALUE: lv_cpicker_signal:res <- $r0
	b	.LBB1_69
.Ltmp196:
	.p2align	2
@ %bb.79:
.LCPI1_0:
.L.str.2:
	.asciz	"lv_cpicker\000"
.Lfunc_end1:
	.size	lv_cpicker_signal, .Lfunc_end1-lv_cpicker_signal
	.cfi_endproc
	.cantunwind
	.fnend
                                        @ -- End function
	.section	.text.lv_cpicker_design,"ax",%progbits
	.p2align	3                               @ -- Begin function lv_cpicker_design
	.type	lv_cpicker_design,%function
	.code	16                              @ @lv_cpicker_design
	.thumb_func
lv_cpicker_design:
.Lfunc_begin2:
	.loc	10 448 0 is_stmt 1              @ lvgl/src/lv_widgets/lv_cpicker.c:448:0
	.fnstart
	.cfi_startproc
@ %bb.0:
	@DEBUG_VALUE: lv_cpicker_design:cpicker <- $r0
	@DEBUG_VALUE: lv_cpicker_design:clip_area <- $r1
	@DEBUG_VALUE: lv_cpicker_design:mode <- $r2
	@DEBUG_VALUE: lv_cpicker_design:mode <- $r2
	.loc	10 450 8 prologue_end           @ lvgl/src/lv_widgets/lv_cpicker.c:450:8
	cmp	r2, #2
	@DEBUG_VALUE: lv_cpicker_design:clip_area <- $r1
	@DEBUG_VALUE: lv_cpicker_design:cpicker <- $r0
	beq	.LBB2_7
.Ltmp197:
@ %bb.1:
	@DEBUG_VALUE: lv_cpicker_design:mode <- $r2
	@DEBUG_VALUE: lv_cpicker_design:clip_area <- $r1
	@DEBUG_VALUE: lv_cpicker_design:cpicker <- $r0
	@DEBUG_VALUE: lv_cpicker_design:clip_area <- $r1
	@DEBUG_VALUE: lv_cpicker_design:cpicker <- $r0
	cbnz	r2, .LBB2_6
.Ltmp198:
@ %bb.2:
	@DEBUG_VALUE: lv_cpicker_design:mode <- $r2
	@DEBUG_VALUE: lv_cpicker_design:clip_area <- $r1
	@DEBUG_VALUE: lv_cpicker_design:cpicker <- $r0
	.save	{r4, r5, r7, lr}
	push	{r4, r5, r7, lr}
	.cfi_def_cfa_offset 16
	.cfi_offset lr, -4
	.cfi_offset r7, -8
	.cfi_offset r5, -12
	.cfi_offset r4, -16
	mov	r4, r1
.Ltmp199:
	@DEBUG_VALUE: lv_cpicker_design:clip_area <- $r4
	@DEBUG_VALUE: lv_cpicker_design:clip_area <- $r4
	.loc	10 0 8 is_stmt 0                @ lvgl/src/lv_widgets/lv_cpicker.c:0:8
	mov	r5, r0
.Ltmp200:
	@DEBUG_VALUE: lv_cpicker_design:cpicker <- $r5
	.loc	10 455 34 is_stmt 1             @ lvgl/src/lv_widgets/lv_cpicker.c:455:34
	bl	lv_obj_get_ext_attr
.Ltmp201:
	@DEBUG_VALUE: lv_cpicker_design:mode <- [DW_OP_LLVM_entry_value 1] $r2
	@DEBUG_VALUE: ext <- $r0
	.loc	10 457 17                       @ lvgl/src/lv_widgets/lv_cpicker.c:457:17
	ldrb.w	r0, [r0, #32]
.Ltmp202:
	.loc	10 457 12 is_stmt 0             @ lvgl/src/lv_widgets/lv_cpicker.c:457:12
	lsls	r0, r0, #28
	bmi	.LBB2_4
.Ltmp203:
@ %bb.3:
	@DEBUG_VALUE: lv_cpicker_design:cpicker <- $r5
	@DEBUG_VALUE: lv_cpicker_design:clip_area <- $r4
	@DEBUG_VALUE: lv_cpicker_design:mode <- [DW_OP_LLVM_entry_value 1] $r2
	.loc	10 461 13 is_stmt 1             @ lvgl/src/lv_widgets/lv_cpicker.c:461:13
	mov	r0, r5
	mov	r1, r4
	bl	draw_rect_grad
	b	.LBB2_5
.Ltmp204:
.LBB2_4:
	@DEBUG_VALUE: lv_cpicker_design:cpicker <- $r5
	@DEBUG_VALUE: lv_cpicker_design:clip_area <- $r4
	@DEBUG_VALUE: lv_cpicker_design:mode <- [DW_OP_LLVM_entry_value 1] $r2
	.loc	10 458 13                       @ lvgl/src/lv_widgets/lv_cpicker.c:458:13
	mov	r0, r5
	mov	r1, r4
	bl	draw_disc_grad
.Ltmp205:
.LBB2_5:
	@DEBUG_VALUE: lv_cpicker_design:cpicker <- $r5
	@DEBUG_VALUE: lv_cpicker_design:clip_area <- $r4
	@DEBUG_VALUE: lv_cpicker_design:mode <- [DW_OP_LLVM_entry_value 1] $r2
	.loc	10 464 9                        @ lvgl/src/lv_widgets/lv_cpicker.c:464:9
	mov	r0, r5
	mov	r1, r4
	bl	draw_knob
	pop.w	{r4, r5, r7, lr}
.Ltmp206:
	@DEBUG_VALUE: lv_cpicker_design:cpicker <- [DW_OP_LLVM_entry_value 1] $r0
	@DEBUG_VALUE: lv_cpicker_design:clip_area <- [DW_OP_LLVM_entry_value 1] $r1
.LBB2_6:
	.loc	10 0 9 is_stmt 0                @ lvgl/src/lv_widgets/lv_cpicker.c:0:9
	movs	r2, #0
.LBB2_7:
	.loc	10 471 1 is_stmt 1              @ lvgl/src/lv_widgets/lv_cpicker.c:471:1
	mov	r0, r2
	bx	lr
.Ltmp207:
.Lfunc_end2:
	.size	lv_cpicker_design, .Lfunc_end2-lv_cpicker_design
	.cfi_endproc
	.cantunwind
	.fnend
                                        @ -- End function
	.section	.text.refr_knob_pos,"ax",%progbits
	.p2align	3                               @ -- Begin function refr_knob_pos
	.type	refr_knob_pos,%function
	.code	16                              @ @refr_knob_pos
	.thumb_func
refr_knob_pos:
.Lfunc_begin3:
	.loc	10 929 0                        @ lvgl/src/lv_widgets/lv_cpicker.c:929:0
	.fnstart
	.cfi_startproc
@ %bb.0:
	@DEBUG_VALUE: refr_knob_pos:cpicker <- $r0
	.save	{r4, r5, r6, r7, r8, r9, lr}
	push.w	{r4, r5, r6, r7, r8, r9, lr}
	.cfi_def_cfa_offset 28
	.cfi_offset lr, -4
	.cfi_offset r9, -8
	.cfi_offset r8, -12
	.cfi_offset r7, -16
	.cfi_offset r6, -20
	.cfi_offset r5, -24
	.cfi_offset r4, -28
	.pad	#4
	sub	sp, #4
	.cfi_def_cfa_offset 32
	mov	r4, r0
.Ltmp208:
	@DEBUG_VALUE: refr_knob_pos:cpicker <- $r4
	.loc	10 930 5 prologue_end           @ lvgl/src/lv_widgets/lv_cpicker.c:930:5
	bl	invalidate_knob
	.loc	10 932 30                       @ lvgl/src/lv_widgets/lv_cpicker.c:932:30
	mov	r0, r4
	bl	lv_obj_get_ext_attr
	mov	r5, r0
.Ltmp209:
	@DEBUG_VALUE: refr_knob_pos:ext <- $r5
	.loc	10 933 20                       @ lvgl/src/lv_widgets/lv_cpicker.c:933:20
	mov	r0, r4
	bl	lv_obj_get_width
	mov	r9, r0
.Ltmp210:
	@DEBUG_VALUE: refr_knob_pos:w <- undef
	.loc	10 934 20                       @ lvgl/src/lv_widgets/lv_cpicker.c:934:20
	mov	r0, r4
	bl	lv_obj_get_height
.Ltmp211:
	.loc	10 936 13                       @ lvgl/src/lv_widgets/lv_cpicker.c:936:13
	ldrb.w	r1, [r5, #32]
.Ltmp212:
	.loc	10 934 20                       @ lvgl/src/lv_widgets/lv_cpicker.c:934:20
	mov	r8, r0
.Ltmp213:
	@DEBUG_VALUE: refr_knob_pos:h <- undef
	.loc	10 936 8                        @ lvgl/src/lv_widgets/lv_cpicker.c:936:8
	lsls	r2, r1, #28
	bmi	.LBB3_5
.Ltmp214:
@ %bb.1:
	@DEBUG_VALUE: refr_knob_pos:ext <- $r5
	@DEBUG_VALUE: refr_knob_pos:cpicker <- $r4
	@DEBUG_VALUE: ind_pos <- 0
	.loc	10 938 21                       @ lvgl/src/lv_widgets/lv_cpicker.c:938:21
	and	r0, r1, #3
	.loc	10 938 9 is_stmt 0              @ lvgl/src/lv_widgets/lv_cpicker.c:938:9
	cmp	r0, #2
	beq	.LBB3_6
.Ltmp215:
@ %bb.2:
	@DEBUG_VALUE: refr_knob_pos:ext <- $r5
	@DEBUG_VALUE: refr_knob_pos:cpicker <- $r4
	@DEBUG_VALUE: ind_pos <- 0
	cmp	r0, #1
	beq	.LBB3_7
.Ltmp216:
@ %bb.3:
	@DEBUG_VALUE: refr_knob_pos:ext <- $r5
	@DEBUG_VALUE: refr_knob_pos:cpicker <- $r4
	@DEBUG_VALUE: ind_pos <- 0
	cmp	r0, #0
	bne	.LBB3_10
.Ltmp217:
@ %bb.4:
	@DEBUG_VALUE: refr_knob_pos:ext <- $r5
	@DEBUG_VALUE: refr_knob_pos:cpicker <- $r4
	@DEBUG_VALUE: ind_pos <- 0
	.loc	10 940 38 is_stmt 1             @ lvgl/src/lv_widgets/lv_cpicker.c:940:38
	ldrh	r0, [r5]
	movw	r1, #24759
	movt	r1, #46603
	.loc	10 940 40 is_stmt 0             @ lvgl/src/lv_widgets/lv_cpicker.c:940:40
	mul	r0, r0, r9
	.loc	10 940 45                       @ lvgl/src/lv_widgets/lv_cpicker.c:940:45
	smmla	r0, r1, r0, r0
	asrs	r1, r0, #8
	b	.LBB3_9
.Ltmp218:
.LBB3_5:
	@DEBUG_VALUE: refr_knob_pos:ext <- $r5
	@DEBUG_VALUE: refr_knob_pos:cpicker <- $r4
	.loc	10 954 34 is_stmt 1             @ lvgl/src/lv_widgets/lv_cpicker.c:954:34
	mov	r0, r4
	bl	lv_obj_get_style_scale_width
.Ltmp219:
	@DEBUG_VALUE: scale_w <- undef
	.loc	10 955 27                       @ lvgl/src/lv_widgets/lv_cpicker.c:955:27
	sub.w	r0, r9, r0
	.loc	10 955 38 is_stmt 0             @ lvgl/src/lv_widgets/lv_cpicker.c:955:38
	add.w	r0, r0, r0, lsr #31
	asrs	r7, r0, #1
.Ltmp220:
	@DEBUG_VALUE: r <- [DW_OP_LLVM_convert 32 7, DW_OP_LLVM_convert 16 7, DW_OP_stack_value] $r7
	.loc	10 956 26 is_stmt 1             @ lvgl/src/lv_widgets/lv_cpicker.c:956:26
	mov	r0, r4
	bl	get_angle
	mov	r6, r0
.Ltmp221:
	@DEBUG_VALUE: angle <- $r6
	.loc	10 957 42                       @ lvgl/src/lv_widgets/lv_cpicker.c:957:42
	sxth	r0, r0
	bl	_lv_trigo_sin
	.loc	10 957 40 is_stmt 0             @ lvgl/src/lv_widgets/lv_cpicker.c:957:40
	muls	r0, r7, r0
	.loc	10 957 64                       @ lvgl/src/lv_widgets/lv_cpicker.c:957:64
	lsrs	r0, r0, #15
	.loc	10 957 25                       @ lvgl/src/lv_widgets/lv_cpicker.c:957:25
	strh	r0, [r5, #12]
	.loc	10 958 62 is_stmt 1             @ lvgl/src/lv_widgets/lv_cpicker.c:958:62
	add.w	r0, r6, #90
	.loc	10 958 42 is_stmt 0             @ lvgl/src/lv_widgets/lv_cpicker.c:958:42
	sxth	r0, r0
	bl	_lv_trigo_sin
	.loc	10 959 41 is_stmt 1             @ lvgl/src/lv_widgets/lv_cpicker.c:959:41
	ldrh	r1, [r5, #12]
	.loc	10 959 47 is_stmt 0             @ lvgl/src/lv_widgets/lv_cpicker.c:959:47
	add.w	r2, r9, r9, lsr #31
	.loc	10 960 47 is_stmt 1             @ lvgl/src/lv_widgets/lv_cpicker.c:960:47
	uxth.w	r3, r8
	.loc	10 958 40                       @ lvgl/src/lv_widgets/lv_cpicker.c:958:40
	muls	r0, r7, r0
	.loc	10 959 27                       @ lvgl/src/lv_widgets/lv_cpicker.c:959:27
	add.w	r1, r1, r2, lsr #1
	.loc	10 959 25 is_stmt 0             @ lvgl/src/lv_widgets/lv_cpicker.c:959:25
	strh	r1, [r5, #12]
	.loc	10 960 47 is_stmt 1             @ lvgl/src/lv_widgets/lv_cpicker.c:960:47
	add.w	r2, r8, r3, lsr #15
	sxth	r2, r2
	lsrs	r1, r2, #1
	.loc	10 960 27 is_stmt 0             @ lvgl/src/lv_widgets/lv_cpicker.c:960:27
	add.w	r0, r1, r0, lsr #15
	.loc	10 960 25                       @ lvgl/src/lv_widgets/lv_cpicker.c:960:25
	strh	r0, [r5, #14]
	b	.LBB3_12
.Ltmp222:
.LBB3_6:
	@DEBUG_VALUE: refr_knob_pos:ext <- $r5
	@DEBUG_VALUE: refr_knob_pos:cpicker <- $r4
	@DEBUG_VALUE: ind_pos <- 0
	.loc	10 946 38 is_stmt 1             @ lvgl/src/lv_widgets/lv_cpicker.c:946:38
	ldrb	r0, [r5, #3]
	b	.LBB3_8
.Ltmp223:
.LBB3_7:
	@DEBUG_VALUE: refr_knob_pos:ext <- $r5
	@DEBUG_VALUE: refr_knob_pos:cpicker <- $r4
	@DEBUG_VALUE: ind_pos <- 0
	.loc	10 943 38                       @ lvgl/src/lv_widgets/lv_cpicker.c:943:38
	ldrb	r0, [r5, #2]
.Ltmp224:
.LBB3_8:
	@DEBUG_VALUE: refr_knob_pos:ext <- $r5
	@DEBUG_VALUE: refr_knob_pos:cpicker <- $r4
	@DEBUG_VALUE: ind_pos <- 0
	.loc	10 0 0 is_stmt 0                @ lvgl/src/lv_widgets/lv_cpicker.c:0:0
	mul	r0, r0, r9
	movw	r1, #34079
	movt	r1, #20971
	smmul	r0, r0, r1
	asrs	r1, r0, #5
.Ltmp225:
.LBB3_9:
	@DEBUG_VALUE: refr_knob_pos:ext <- $r5
	@DEBUG_VALUE: refr_knob_pos:cpicker <- $r4
	@DEBUG_VALUE: ind_pos <- 0
	add.w	r0, r1, r0, lsr #31
.Ltmp226:
	@DEBUG_VALUE: ind_pos <- undef
	b	.LBB3_11
.Ltmp227:
.LBB3_10:
	@DEBUG_VALUE: refr_knob_pos:ext <- $r5
	@DEBUG_VALUE: refr_knob_pos:cpicker <- $r4
	@DEBUG_VALUE: ind_pos <- 0
	movs	r0, #0
.Ltmp228:
.LBB3_11:
	@DEBUG_VALUE: refr_knob_pos:ext <- $r5
	@DEBUG_VALUE: refr_knob_pos:cpicker <- $r4
	@DEBUG_VALUE: ind_pos <- $r0
	.loc	10 951 29 is_stmt 1             @ lvgl/src/lv_widgets/lv_cpicker.c:951:29
	uxth.w	r1, r8
	.loc	10 950 25                       @ lvgl/src/lv_widgets/lv_cpicker.c:950:25
	strh	r0, [r5, #12]
	.loc	10 951 29                       @ lvgl/src/lv_widgets/lv_cpicker.c:951:29
	add.w	r0, r8, r1, lsr #15
.Ltmp229:
	sxth	r0, r0
	lsrs	r0, r0, #1
	.loc	10 951 25 is_stmt 0             @ lvgl/src/lv_widgets/lv_cpicker.c:951:25
	strh	r0, [r5, #14]
.Ltmp230:
.LBB3_12:
	@DEBUG_VALUE: refr_knob_pos:ext <- $r5
	@DEBUG_VALUE: refr_knob_pos:cpicker <- $r4
	.loc	10 963 5 is_stmt 1              @ lvgl/src/lv_widgets/lv_cpicker.c:963:5
	mov	r0, r4
	bl	invalidate_knob
	.loc	10 964 1                        @ lvgl/src/lv_widgets/lv_cpicker.c:964:1
	add	sp, #4
	pop.w	{r4, r5, r6, r7, r8, r9, pc}
.Ltmp231:
.Lfunc_end3:
	.size	refr_knob_pos, .Lfunc_end3-refr_knob_pos
	.cfi_endproc
	.cantunwind
	.fnend
                                        @ -- End function
	.section	.text.lv_cpicker_set_type,"ax",%progbits
	.hidden	lv_cpicker_set_type             @ -- Begin function lv_cpicker_set_type
	.globl	lv_cpicker_set_type
	.p2align	3
	.type	lv_cpicker_set_type,%function
	.code	16                              @ @lv_cpicker_set_type
	.thumb_func
lv_cpicker_set_type:
.Lfunc_begin4:
	.loc	10 173 0                        @ lvgl/src/lv_widgets/lv_cpicker.c:173:0
	.fnstart
	.cfi_startproc
@ %bb.0:
	@DEBUG_VALUE: lv_cpicker_set_type:cpicker <- $r0
	@DEBUG_VALUE: lv_cpicker_set_type:type <- $r1
	.save	{r4, r5, r7, lr}
	push	{r4, r5, r7, lr}
	.cfi_def_cfa_offset 16
	.cfi_offset lr, -4
	.cfi_offset r7, -8
	.cfi_offset r5, -12
	.cfi_offset r4, -16
	mov	r5, r1
.Ltmp232:
	@DEBUG_VALUE: lv_cpicker_set_type:type <- $r5
	mov	r4, r0
	@DEBUG_VALUE: lv_cpicker_set_type:type <- $r5
.Ltmp233:
	@DEBUG_VALUE: lv_cpicker_set_type:cpicker <- $r4
	.loc	10 174 5 prologue_end           @ lvgl/src/lv_widgets/lv_cpicker.c:174:5
	bl	lv_debug_check_null
.Ltmp234:
	.loc	10 174 5 is_stmt 0              @ lvgl/src/lv_widgets/lv_cpicker.c:174:5
	cbz	r0, .LBB4_3
.Ltmp235:
@ %bb.1:
	@DEBUG_VALUE: lv_cpicker_set_type:type <- $r5
	@DEBUG_VALUE: lv_cpicker_set_type:cpicker <- $r4
	.loc	10 176 30 is_stmt 1             @ lvgl/src/lv_widgets/lv_cpicker.c:176:30
	mov	r0, r4
	bl	lv_obj_get_ext_attr
.Ltmp236:
	@DEBUG_VALUE: lv_cpicker_set_type:ext <- $r0
	.loc	10 177 13                       @ lvgl/src/lv_widgets/lv_cpicker.c:177:13
	ldrb.w	r1, [r0, #32]
	ubfx	r2, r1, #3, #1
.Ltmp237:
	.loc	10 177 8 is_stmt 0              @ lvgl/src/lv_widgets/lv_cpicker.c:177:8
	cmp	r2, r5
	.loc	10 184 1 is_stmt 1              @ lvgl/src/lv_widgets/lv_cpicker.c:184:1
	it	eq
	popeq	{r4, r5, r7, pc}
.Ltmp238:
.LBB4_2:
	@DEBUG_VALUE: lv_cpicker_set_type:ext <- $r0
	.loc	10 179 15                       @ lvgl/src/lv_widgets/lv_cpicker.c:179:15
	and	r2, r5, #1
	and	r1, r1, #247
	orr.w	r1, r1, r2, lsl #3
	strb.w	r1, [r0, #32]
	.loc	10 180 5                        @ lvgl/src/lv_widgets/lv_cpicker.c:180:5
	mov	r0, r4
.Ltmp239:
	bl	lv_obj_refresh_ext_draw_pad
	.loc	10 181 5                        @ lvgl/src/lv_widgets/lv_cpicker.c:181:5
	mov	r0, r4
	bl	refr_knob_pos
	.loc	10 183 5                        @ lvgl/src/lv_widgets/lv_cpicker.c:183:5
	mov	r0, r4
	bl	lv_obj_invalidate
	.loc	10 184 1                        @ lvgl/src/lv_widgets/lv_cpicker.c:184:1
	pop	{r4, r5, r7, pc}
.LBB4_3:
.Ltmp240:
	@DEBUG_VALUE: lv_cpicker_set_type:type <- $r5
	@DEBUG_VALUE: lv_cpicker_set_type:cpicker <- $r4
	.loc	10 174 5                        @ lvgl/src/lv_widgets/lv_cpicker.c:174:5
	movw	r0, :lower16:.L.str.1
	movs	r3, #0
	movt	r0, :upper16:.L.str.1
	mov	r2, r4
	bl	lv_debug_log_error
.Ltmp241:
	.p2align	2
.LBB4_4:                                @ =>This Inner Loop Header: Depth=1
	@DEBUG_VALUE: lv_cpicker_set_type:type <- $r5
	@DEBUG_VALUE: lv_cpicker_set_type:cpicker <- $r4
	b	.LBB4_4
.Ltmp242:
.Lfunc_end4:
	.size	lv_cpicker_set_type, .Lfunc_end4-lv_cpicker_set_type
	.cfi_endproc
	.cantunwind
	.fnend
                                        @ -- End function
	.section	.text.lv_cpicker_set_hue,"ax",%progbits
	.hidden	lv_cpicker_set_hue              @ -- Begin function lv_cpicker_set_hue
	.globl	lv_cpicker_set_hue
	.p2align	3
	.type	lv_cpicker_set_hue,%function
	.code	16                              @ @lv_cpicker_set_hue
	.thumb_func
lv_cpicker_set_hue:
.Lfunc_begin5:
	.loc	10 193 0                        @ lvgl/src/lv_widgets/lv_cpicker.c:193:0
	.fnstart
	.cfi_startproc
@ %bb.0:
	@DEBUG_VALUE: lv_cpicker_set_hue:cpicker <- $r0
	@DEBUG_VALUE: lv_cpicker_set_hue:hue <- $r1
	.save	{r4, r5, r7, lr}
	push	{r4, r5, r7, lr}
	.cfi_def_cfa_offset 16
	.cfi_offset lr, -4
	.cfi_offset r7, -8
	.cfi_offset r5, -12
	.cfi_offset r4, -16
	mov	r4, r1
.Ltmp243:
	@DEBUG_VALUE: lv_cpicker_set_hue:hue <- $r4
	mov	r5, r0
	@DEBUG_VALUE: lv_cpicker_set_hue:hue <- $r4
.Ltmp244:
	@DEBUG_VALUE: lv_cpicker_set_hue:cpicker <- $r5
	.loc	10 194 26 prologue_end          @ lvgl/src/lv_widgets/lv_cpicker.c:194:26
	bl	lv_cpicker_get_hsv
	movw	r1, #65535
.Ltmp245:
	@DEBUG_VALUE: lv_cpicker_set_hue:hsv <- [DW_OP_constu 16, DW_OP_shr, DW_OP_stack_value, DW_OP_LLVM_fragment 16 16] $r0
	@DEBUG_VALUE: lv_cpicker_set_hue:hsv <- [DW_OP_LLVM_convert 32 7, DW_OP_LLVM_convert 16 7, DW_OP_stack_value, DW_OP_LLVM_fragment 0 16] $r0
	.loc	10 196 12                       @ lvgl/src/lv_widgets/lv_cpicker.c:196:12
	bics	r0, r1
.Ltmp246:
	@DEBUG_VALUE: lv_cpicker_set_hue:hsv <- [DW_OP_LLVM_fragment 0 16] undef
	adds	r1, r0, r4
	mov	r0, r5
	bl	lv_cpicker_set_hsv
	.loc	10 196 5 is_stmt 0              @ lvgl/src/lv_widgets/lv_cpicker.c:196:5
	pop	{r4, r5, r7, pc}
.Ltmp247:
.Lfunc_end5:
	.size	lv_cpicker_set_hue, .Lfunc_end5-lv_cpicker_set_hue
	.cfi_endproc
	.cantunwind
	.fnend
                                        @ -- End function
	.section	.text.lv_cpicker_get_hsv,"ax",%progbits
	.hidden	lv_cpicker_get_hsv              @ -- Begin function lv_cpicker_get_hsv
	.globl	lv_cpicker_get_hsv
	.p2align	3
	.type	lv_cpicker_get_hsv,%function
	.code	16                              @ @lv_cpicker_get_hsv
	.thumb_func
lv_cpicker_get_hsv:
.Lfunc_begin6:
	.loc	10 393 0 is_stmt 1              @ lvgl/src/lv_widgets/lv_cpicker.c:393:0
	.fnstart
	.cfi_startproc
@ %bb.0:
	@DEBUG_VALUE: lv_cpicker_get_hsv:cpicker <- $r0
	.save	{r4, lr}
	push	{r4, lr}
	.cfi_def_cfa_offset 8
	.cfi_offset lr, -4
	.cfi_offset r4, -8
	mov	r4, r0
.Ltmp248:
	@DEBUG_VALUE: lv_cpicker_get_hsv:cpicker <- $r4
	.loc	10 394 5 prologue_end           @ lvgl/src/lv_widgets/lv_cpicker.c:394:5
	bl	lv_debug_check_null
.Ltmp249:
	.loc	10 394 5 is_stmt 0              @ lvgl/src/lv_widgets/lv_cpicker.c:394:5
	cbz	r0, .LBB6_2
.Ltmp250:
@ %bb.1:
	@DEBUG_VALUE: lv_cpicker_get_hsv:cpicker <- $r4
	.loc	10 396 30 is_stmt 1             @ lvgl/src/lv_widgets/lv_cpicker.c:396:30
	mov	r0, r4
	bl	lv_obj_get_ext_attr
.Ltmp251:
	@DEBUG_VALUE: lv_cpicker_get_hsv:ext <- $r0
	.loc	10 398 17                       @ lvgl/src/lv_widgets/lv_cpicker.c:398:17
	ldr	r0, [r0]
.Ltmp252:
	.loc	10 399 1                        @ lvgl/src/lv_widgets/lv_cpicker.c:399:1
	pop	{r4, pc}
.Ltmp253:
.LBB6_2:
	@DEBUG_VALUE: lv_cpicker_get_hsv:cpicker <- $r4
	.loc	10 394 5                        @ lvgl/src/lv_widgets/lv_cpicker.c:394:5
	movw	r0, :lower16:.L.str.1
	movs	r3, #0
	movt	r0, :upper16:.L.str.1
	mov	r2, r4
	bl	lv_debug_log_error
.Ltmp254:
	.p2align	2
.LBB6_3:                                @ =>This Inner Loop Header: Depth=1
	@DEBUG_VALUE: lv_cpicker_get_hsv:cpicker <- $r4
	b	.LBB6_3
.Ltmp255:
.Lfunc_end6:
	.size	lv_cpicker_get_hsv, .Lfunc_end6-lv_cpicker_get_hsv
	.cfi_endproc
	.cantunwind
	.fnend
                                        @ -- End function
	.section	.text.lv_cpicker_set_hsv,"ax",%progbits
	.hidden	lv_cpicker_set_hsv              @ -- Begin function lv_cpicker_set_hsv
	.globl	lv_cpicker_set_hsv
	.p2align	3
	.type	lv_cpicker_set_hsv,%function
	.code	16                              @ @lv_cpicker_set_hsv
	.thumb_func
lv_cpicker_set_hsv:
.Lfunc_begin7:
	.loc	10 232 0                        @ lvgl/src/lv_widgets/lv_cpicker.c:232:0
	.fnstart
	.cfi_startproc
@ %bb.0:
	@DEBUG_VALUE: lv_cpicker_set_hsv:cpicker <- $r0
	.save	{r4, r5, r6, r7, r8, lr}
	push.w	{r4, r5, r6, r7, r8, lr}
	.cfi_def_cfa_offset 24
	.cfi_offset lr, -4
	.cfi_offset r8, -8
	.cfi_offset r7, -12
	.cfi_offset r6, -16
	.cfi_offset r5, -20
	.cfi_offset r4, -24
	mov	r5, r1
	mov	r4, r0
.Ltmp256:
	@DEBUG_VALUE: lv_cpicker_set_hsv:hsv <- [DW_OP_constu 24, DW_OP_shr, DW_OP_LLVM_convert 32 7, DW_OP_LLVM_convert 8 7, DW_OP_stack_value, DW_OP_LLVM_fragment 24 8] $r5
	@DEBUG_VALUE: lv_cpicker_set_hsv:hsv <- [DW_OP_constu 16, DW_OP_shr, DW_OP_LLVM_convert 32 7, DW_OP_LLVM_convert 8 7, DW_OP_stack_value, DW_OP_LLVM_fragment 16 8] $r5
	@DEBUG_VALUE: lv_cpicker_set_hsv:hsv <- [DW_OP_LLVM_convert 32 7, DW_OP_LLVM_convert 16 7, DW_OP_stack_value, DW_OP_LLVM_fragment 0 16] $r5
	@DEBUG_VALUE: lv_cpicker_set_hsv:cpicker <- $r4
	.loc	10 233 5 prologue_end           @ lvgl/src/lv_widgets/lv_cpicker.c:233:5
	bl	lv_debug_check_null
.Ltmp257:
	.loc	10 233 5 is_stmt 0              @ lvgl/src/lv_widgets/lv_cpicker.c:233:5
	cbz	r0, .LBB7_5
.Ltmp258:
@ %bb.1:
	@DEBUG_VALUE: lv_cpicker_set_hsv:hsv <- [DW_OP_LLVM_convert 32 7, DW_OP_LLVM_convert 16 7, DW_OP_stack_value, DW_OP_LLVM_fragment 0 16] $r5
	@DEBUG_VALUE: lv_cpicker_set_hsv:hsv <- [DW_OP_constu 16, DW_OP_shr, DW_OP_LLVM_convert 32 7, DW_OP_LLVM_convert 8 7, DW_OP_stack_value, DW_OP_LLVM_fragment 16 8] $r5
	@DEBUG_VALUE: lv_cpicker_set_hsv:hsv <- [DW_OP_constu 24, DW_OP_shr, DW_OP_LLVM_convert 32 7, DW_OP_LLVM_convert 8 7, DW_OP_stack_value, DW_OP_LLVM_fragment 24 8] $r5
	@DEBUG_VALUE: lv_cpicker_set_hsv:cpicker <- $r4
	.loc	10 235 8 is_stmt 1              @ lvgl/src/lv_widgets/lv_cpicker.c:235:8
	uxth	r0, r5
	movw	r2, #27671
	lsrs	r1, r0, #3
	movt	r2, #5825
	umull	r1, r2, r1, r2
	lsrs	r6, r5, #24
.Ltmp259:
	@DEBUG_VALUE: lv_cpicker_set_hsv:hsv <- [DW_OP_LLVM_fragment 24 8] $r6
	.loc	10 0 8 is_stmt 0                @ lvgl/src/lv_widgets/lv_cpicker.c:0:8
	lsrs	r7, r5, #16
.Ltmp260:
	@DEBUG_VALUE: lv_cpicker_set_hsv:hsv <- [DW_OP_LLVM_fragment 16 8] $r7
	@DEBUG_VALUE: lv_cpicker_set_hsv:hsv <- [DW_OP_LLVM_convert 32 7, DW_OP_LLVM_convert 16 7, DW_OP_stack_value, DW_OP_LLVM_fragment 0 16] $r5
	.loc	10 235 8                        @ lvgl/src/lv_widgets/lv_cpicker.c:235:8
	cmp.w	r0, #360
	lsr.w	r1, r2, #2
	mov.w	r2, #360
.Ltmp261:
	.loc	10 236 14 is_stmt 1             @ lvgl/src/lv_widgets/lv_cpicker.c:236:14
	and	r3, r5, #16711680
.Ltmp262:
	.loc	10 235 8                        @ lvgl/src/lv_widgets/lv_cpicker.c:235:8
	it	hi
	mlshi	r5, r1, r2, r0
.Ltmp263:
	@DEBUG_VALUE: lv_cpicker_set_hsv:hsv <- [DW_OP_LLVM_fragment 0 16] $r5
	.loc	10 239 30                       @ lvgl/src/lv_widgets/lv_cpicker.c:239:30
	mov	r0, r4
	.loc	10 236 8                        @ lvgl/src/lv_widgets/lv_cpicker.c:236:8
	cmp.w	r3, #6553600
	it	hi
	movhi	r7, #100
.Ltmp264:
	@DEBUG_VALUE: lv_cpicker_set_hsv:hsv <- [DW_OP_LLVM_fragment 16 8] $r7
	.loc	10 0 8 is_stmt 0                @ lvgl/src/lv_widgets/lv_cpicker.c:0:8
	uxth.w	r8, r5
	.loc	10 237 8 is_stmt 1              @ lvgl/src/lv_widgets/lv_cpicker.c:237:8
	cmp	r6, #100
	it	hi
	movhi	r6, #100
.Ltmp265:
	@DEBUG_VALUE: lv_cpicker_set_hsv:hsv <- [DW_OP_LLVM_fragment 24 8] $r6
	.loc	10 239 30                       @ lvgl/src/lv_widgets/lv_cpicker.c:239:30
	bl	lv_obj_get_ext_attr
.Ltmp266:
	@DEBUG_VALUE: lv_cpicker_set_hsv:ext <- $r0
	.loc	10 241 17                       @ lvgl/src/lv_widgets/lv_cpicker.c:241:17
	ldrh	r1, [r0]
	.loc	10 241 28 is_stmt 0             @ lvgl/src/lv_widgets/lv_cpicker.c:241:28
	cmp	r1, r8
	bne	.LBB7_7
.Ltmp267:
@ %bb.2:
	@DEBUG_VALUE: lv_cpicker_set_hsv:hsv <- [DW_OP_LLVM_fragment 16 8] $r7
	@DEBUG_VALUE: lv_cpicker_set_hsv:hsv <- [DW_OP_LLVM_fragment 24 8] $r6
	@DEBUG_VALUE: lv_cpicker_set_hsv:hsv <- [DW_OP_LLVM_fragment 0 16] $r5
	@DEBUG_VALUE: lv_cpicker_set_hsv:cpicker <- $r4
	@DEBUG_VALUE: lv_cpicker_set_hsv:ext <- $r0
	.loc	10 241 42                       @ lvgl/src/lv_widgets/lv_cpicker.c:241:42
	uxtb	r2, r7
	.loc	10 241 40                       @ lvgl/src/lv_widgets/lv_cpicker.c:241:40
	ldrb	r1, [r0, #2]
	.loc	10 241 51                       @ lvgl/src/lv_widgets/lv_cpicker.c:241:51
	cmp	r1, r2
	bne	.LBB7_7
.Ltmp268:
@ %bb.3:
	@DEBUG_VALUE: lv_cpicker_set_hsv:hsv <- [DW_OP_LLVM_fragment 16 8] $r7
	@DEBUG_VALUE: lv_cpicker_set_hsv:hsv <- [DW_OP_LLVM_fragment 24 8] $r6
	@DEBUG_VALUE: lv_cpicker_set_hsv:hsv <- [DW_OP_LLVM_fragment 0 16] $r5
	@DEBUG_VALUE: lv_cpicker_set_hsv:cpicker <- $r4
	@DEBUG_VALUE: lv_cpicker_set_hsv:ext <- $r0
	.loc	10 241 63                       @ lvgl/src/lv_widgets/lv_cpicker.c:241:63
	ldrb	r1, [r0, #3]
.Ltmp269:
	.loc	10 241 8                        @ lvgl/src/lv_widgets/lv_cpicker.c:241:8
	cmp	r1, r6
	bne	.LBB7_7
.Ltmp270:
@ %bb.4:
	@DEBUG_VALUE: lv_cpicker_set_hsv:hsv <- [DW_OP_LLVM_fragment 16 8] $r7
	@DEBUG_VALUE: lv_cpicker_set_hsv:hsv <- [DW_OP_LLVM_fragment 24 8] $r6
	@DEBUG_VALUE: lv_cpicker_set_hsv:hsv <- [DW_OP_LLVM_fragment 0 16] $r5
	@DEBUG_VALUE: lv_cpicker_set_hsv:cpicker <- $r4
	@DEBUG_VALUE: lv_cpicker_set_hsv:ext <- $r0
	.loc	10 0 8                          @ lvgl/src/lv_widgets/lv_cpicker.c:0:8
	movs	r0, #0
.Ltmp271:
	.loc	10 250 1 is_stmt 1              @ lvgl/src/lv_widgets/lv_cpicker.c:250:1
	pop.w	{r4, r5, r6, r7, r8, pc}
.Ltmp272:
.LBB7_5:
	@DEBUG_VALUE: lv_cpicker_set_hsv:hsv <- [DW_OP_LLVM_convert 32 7, DW_OP_LLVM_convert 16 7, DW_OP_stack_value, DW_OP_LLVM_fragment 0 16] $r5
	@DEBUG_VALUE: lv_cpicker_set_hsv:hsv <- [DW_OP_constu 16, DW_OP_shr, DW_OP_LLVM_convert 32 7, DW_OP_LLVM_convert 8 7, DW_OP_stack_value, DW_OP_LLVM_fragment 16 8] $r5
	@DEBUG_VALUE: lv_cpicker_set_hsv:hsv <- [DW_OP_constu 24, DW_OP_shr, DW_OP_LLVM_convert 32 7, DW_OP_LLVM_convert 8 7, DW_OP_stack_value, DW_OP_LLVM_fragment 24 8] $r5
	@DEBUG_VALUE: lv_cpicker_set_hsv:cpicker <- $r4
	.loc	10 233 5                        @ lvgl/src/lv_widgets/lv_cpicker.c:233:5
	movw	r0, :lower16:.L.str.1
	movs	r3, #0
	movt	r0, :upper16:.L.str.1
	mov	r2, r4
	bl	lv_debug_log_error
.Ltmp273:
	.p2align	2
.LBB7_6:                                @ =>This Inner Loop Header: Depth=1
	@DEBUG_VALUE: lv_cpicker_set_hsv:hsv <- [DW_OP_LLVM_convert 32 7, DW_OP_LLVM_convert 16 7, DW_OP_stack_value, DW_OP_LLVM_fragment 0 16] $r5
	@DEBUG_VALUE: lv_cpicker_set_hsv:hsv <- [DW_OP_constu 16, DW_OP_shr, DW_OP_LLVM_convert 32 7, DW_OP_LLVM_convert 8 7, DW_OP_stack_value, DW_OP_LLVM_fragment 16 8] $r5
	@DEBUG_VALUE: lv_cpicker_set_hsv:hsv <- [DW_OP_constu 24, DW_OP_shr, DW_OP_LLVM_convert 32 7, DW_OP_LLVM_convert 8 7, DW_OP_stack_value, DW_OP_LLVM_fragment 24 8] $r5
	@DEBUG_VALUE: lv_cpicker_set_hsv:cpicker <- $r4
	b	.LBB7_6
.Ltmp274:
.LBB7_7:
	@DEBUG_VALUE: lv_cpicker_set_hsv:hsv <- [DW_OP_LLVM_fragment 16 8] $r7
	@DEBUG_VALUE: lv_cpicker_set_hsv:hsv <- [DW_OP_LLVM_fragment 24 8] $r6
	@DEBUG_VALUE: lv_cpicker_set_hsv:hsv <- [DW_OP_LLVM_fragment 0 16] $r5
	@DEBUG_VALUE: lv_cpicker_set_hsv:cpicker <- $r4
	@DEBUG_VALUE: lv_cpicker_set_hsv:ext <- $r0
	.loc	10 243 16                       @ lvgl/src/lv_widgets/lv_cpicker.c:243:16
	strh	r5, [r0]
	strb	r7, [r0, #2]
	strb	r6, [r0, #3]
	.loc	10 245 5                        @ lvgl/src/lv_widgets/lv_cpicker.c:245:5
	mov	r0, r4
.Ltmp275:
	bl	refr_knob_pos
	.loc	10 247 5                        @ lvgl/src/lv_widgets/lv_cpicker.c:247:5
	mov	r0, r4
	bl	lv_obj_invalidate
	movs	r0, #1
	.loc	10 250 1                        @ lvgl/src/lv_widgets/lv_cpicker.c:250:1
	pop.w	{r4, r5, r6, r7, r8, pc}
.Ltmp276:
.Lfunc_end7:
	.size	lv_cpicker_set_hsv, .Lfunc_end7-lv_cpicker_set_hsv
	.cfi_endproc
	.cantunwind
	.fnend
                                        @ -- End function
	.section	.text.lv_cpicker_set_saturation,"ax",%progbits
	.hidden	lv_cpicker_set_saturation       @ -- Begin function lv_cpicker_set_saturation
	.globl	lv_cpicker_set_saturation
	.p2align	3
	.type	lv_cpicker_set_saturation,%function
	.code	16                              @ @lv_cpicker_set_saturation
	.thumb_func
lv_cpicker_set_saturation:
.Lfunc_begin8:
	.loc	10 206 0                        @ lvgl/src/lv_widgets/lv_cpicker.c:206:0
	.fnstart
	.cfi_startproc
@ %bb.0:
	@DEBUG_VALUE: lv_cpicker_set_saturation:cpicker <- $r0
	@DEBUG_VALUE: lv_cpicker_set_saturation:saturation <- $r1
	.save	{r4, r5, r7, lr}
	push	{r4, r5, r7, lr}
	.cfi_def_cfa_offset 16
	.cfi_offset lr, -4
	.cfi_offset r7, -8
	.cfi_offset r5, -12
	.cfi_offset r4, -16
	mov	r4, r1
.Ltmp277:
	@DEBUG_VALUE: lv_cpicker_set_saturation:saturation <- $r4
	mov	r5, r0
	@DEBUG_VALUE: lv_cpicker_set_saturation:saturation <- $r4
.Ltmp278:
	@DEBUG_VALUE: lv_cpicker_set_saturation:cpicker <- $r5
	.loc	10 207 26 prologue_end          @ lvgl/src/lv_widgets/lv_cpicker.c:207:26
	bl	lv_cpicker_get_hsv
.Ltmp279:
	@DEBUG_VALUE: lv_cpicker_set_saturation:hsv <- [DW_OP_constu 24, DW_OP_shr, DW_OP_stack_value, DW_OP_LLVM_fragment 24 8] $r0
	@DEBUG_VALUE: lv_cpicker_set_saturation:hsv <- [DW_OP_constu 16, DW_OP_shr, DW_OP_LLVM_convert 32 7, DW_OP_LLVM_convert 8 7, DW_OP_stack_value, DW_OP_LLVM_fragment 16 8] $r0
	@DEBUG_VALUE: lv_cpicker_set_saturation:hsv <- [DW_OP_LLVM_convert 32 7, DW_OP_LLVM_convert 16 7, DW_OP_stack_value, DW_OP_LLVM_fragment 0 16] $r0
	.loc	10 209 12                       @ lvgl/src/lv_widgets/lv_cpicker.c:209:12
	and	r1, r0, #-16777216
.Ltmp280:
	@DEBUG_VALUE: lv_cpicker_set_saturation:hsv <- [DW_OP_LLVM_fragment 16 8] undef
	uxth	r0, r0
.Ltmp281:
	orr.w	r1, r1, r4, lsl #16
	add	r1, r0
	mov	r0, r5
	bl	lv_cpicker_set_hsv
	.loc	10 209 5 is_stmt 0              @ lvgl/src/lv_widgets/lv_cpicker.c:209:5
	pop	{r4, r5, r7, pc}
.Ltmp282:
.Lfunc_end8:
	.size	lv_cpicker_set_saturation, .Lfunc_end8-lv_cpicker_set_saturation
	.cfi_endproc
	.cantunwind
	.fnend
                                        @ -- End function
	.section	.text.lv_cpicker_set_value,"ax",%progbits
	.hidden	lv_cpicker_set_value            @ -- Begin function lv_cpicker_set_value
	.globl	lv_cpicker_set_value
	.p2align	3
	.type	lv_cpicker_set_value,%function
	.code	16                              @ @lv_cpicker_set_value
	.thumb_func
lv_cpicker_set_value:
.Lfunc_begin9:
	.loc	10 219 0 is_stmt 1              @ lvgl/src/lv_widgets/lv_cpicker.c:219:0
	.fnstart
	.cfi_startproc
@ %bb.0:
	@DEBUG_VALUE: lv_cpicker_set_value:cpicker <- $r0
	@DEBUG_VALUE: lv_cpicker_set_value:val <- $r1
	.save	{r4, r5, r7, lr}
	push	{r4, r5, r7, lr}
	.cfi_def_cfa_offset 16
	.cfi_offset lr, -4
	.cfi_offset r7, -8
	.cfi_offset r5, -12
	.cfi_offset r4, -16
	mov	r4, r1
.Ltmp283:
	@DEBUG_VALUE: lv_cpicker_set_value:val <- $r4
	mov	r5, r0
	@DEBUG_VALUE: lv_cpicker_set_value:val <- $r4
.Ltmp284:
	@DEBUG_VALUE: lv_cpicker_set_value:cpicker <- $r5
	.loc	10 220 26 prologue_end          @ lvgl/src/lv_widgets/lv_cpicker.c:220:26
	bl	lv_cpicker_get_hsv
.Ltmp285:
	@DEBUG_VALUE: lv_cpicker_set_value:hsv <- [DW_OP_LLVM_fragment 24 8] $r4
	@DEBUG_VALUE: lv_cpicker_set_value:hsv <- [DW_OP_LLVM_convert 32 7, DW_OP_LLVM_convert 24 7, DW_OP_stack_value, DW_OP_LLVM_fragment 0 24] $r0
	.loc	10 222 12                       @ lvgl/src/lv_widgets/lv_cpicker.c:222:12
	bic	r0, r0, #-16777216
.Ltmp286:
	orr.w	r1, r0, r4, lsl #24
	mov	r0, r5
	bl	lv_cpicker_set_hsv
	.loc	10 222 5 is_stmt 0              @ lvgl/src/lv_widgets/lv_cpicker.c:222:5
	pop	{r4, r5, r7, pc}
.Ltmp287:
.Lfunc_end9:
	.size	lv_cpicker_set_value, .Lfunc_end9-lv_cpicker_set_value
	.cfi_endproc
	.cantunwind
	.fnend
                                        @ -- End function
	.section	.text.lv_cpicker_set_color,"ax",%progbits
	.hidden	lv_cpicker_set_color            @ -- Begin function lv_cpicker_set_color
	.globl	lv_cpicker_set_color
	.p2align	3
	.type	lv_cpicker_set_color,%function
	.code	16                              @ @lv_cpicker_set_color
	.thumb_func
lv_cpicker_set_color:
.Lfunc_begin10:
	.loc	10 259 0 is_stmt 1              @ lvgl/src/lv_widgets/lv_cpicker.c:259:0
	.fnstart
	.cfi_startproc
@ %bb.0:
	@DEBUG_VALUE: lv_cpicker_set_color:cpicker <- $r0
	.save	{r4, r5, r7, lr}
	push	{r4, r5, r7, lr}
	.cfi_def_cfa_offset 16
	.cfi_offset lr, -4
	.cfi_offset r7, -8
	.cfi_offset r5, -12
	.cfi_offset r4, -16
	mov	r5, r1
	mov	r4, r0
	@DEBUG_VALUE: lv_cpicker_set_color:color <- undef
.Ltmp288:
	@DEBUG_VALUE: lv_cpicker_set_color:cpicker <- $r4
	.loc	10 260 5 prologue_end           @ lvgl/src/lv_widgets/lv_cpicker.c:260:5
	bl	lv_debug_check_null
.Ltmp289:
	.loc	10 260 5 is_stmt 0              @ lvgl/src/lv_widgets/lv_cpicker.c:260:5
	cbz	r0, .LBB10_2
.Ltmp290:
@ %bb.1:
	@DEBUG_VALUE: lv_cpicker_set_color:cpicker <- $r4
	.loc	10 263 16 is_stmt 1             @ lvgl/src/lv_widgets/lv_cpicker.c:263:16
	mov	r0, r5
	bl	lv_color_to32
.Ltmp291:
	@DEBUG_VALUE: lv_cpicker_set_color:c32 <- [DW_OP_constu 24, DW_OP_shr, DW_OP_LLVM_convert 32 7, DW_OP_LLVM_convert 8 7, DW_OP_stack_value, DW_OP_LLVM_fragment 24 8] $r0
	.loc	10 266 31                       @ lvgl/src/lv_widgets/lv_cpicker.c:266:31
	ubfx	r3, r0, #16, #8
.Ltmp292:
	@DEBUG_VALUE: lv_cpicker_set_color:c32 <- [DW_OP_LLVM_fragment 16 8] $r3
	ubfx	r1, r0, #8, #8
.Ltmp293:
	@DEBUG_VALUE: lv_cpicker_set_color:c32 <- [DW_OP_LLVM_fragment 8 8] $r1
	uxtb	r2, r0
.Ltmp294:
	@DEBUG_VALUE: lv_cpicker_set_color:c32 <- [DW_OP_LLVM_fragment 0 8] $r2
	mov	r0, r3
.Ltmp295:
	bl	lv_color_rgb_to_hsv
.Ltmp296:
	mov	r1, r0
	.loc	10 265 12                       @ lvgl/src/lv_widgets/lv_cpicker.c:265:12
	mov	r0, r4
	bl	lv_cpicker_set_hsv
	.loc	10 265 5 is_stmt 0              @ lvgl/src/lv_widgets/lv_cpicker.c:265:5
	pop	{r4, r5, r7, pc}
.Ltmp297:
.LBB10_2:
	@DEBUG_VALUE: lv_cpicker_set_color:cpicker <- $r4
	.loc	10 260 5 is_stmt 1              @ lvgl/src/lv_widgets/lv_cpicker.c:260:5
	movw	r0, :lower16:.L.str.1
	movs	r3, #0
	movt	r0, :upper16:.L.str.1
	mov	r2, r4
	bl	lv_debug_log_error
.Ltmp298:
	.p2align	2
.LBB10_3:                               @ =>This Inner Loop Header: Depth=1
	@DEBUG_VALUE: lv_cpicker_set_color:cpicker <- $r4
	b	.LBB10_3
.Ltmp299:
.Lfunc_end10:
	.size	lv_cpicker_set_color, .Lfunc_end10-lv_cpicker_set_color
	.cfi_endproc
	.cantunwind
	.fnend
                                        @ -- End function
	.section	.text.lv_color_to32,"ax",%progbits
	.p2align	3                               @ -- Begin function lv_color_to32
	.type	lv_color_to32,%function
	.code	16                              @ @lv_color_to32
	.thumb_func
lv_color_to32:
.Lfunc_begin11:
	.loc	14 377 0                        @ lvgl/src/lv_widgets/../lv_core/../lv_hal/../lv_misc/lv_color.h:377:0
	.fnstart
	.cfi_startproc
@ %bb.0:
	@DEBUG_VALUE: lv_color_to32:color <- $r0
	.loc	14 427 5 prologue_end           @ lvgl/src/lv_widgets/../lv_core/../lv_hal/../lv_misc/lv_color.h:427:5
	bx	lr
.Ltmp300:
.Lfunc_end11:
	.size	lv_color_to32, .Lfunc_end11-lv_color_to32
	.cfi_endproc
	.cantunwind
	.fnend
                                        @ -- End function
	.section	.text.lv_cpicker_set_color_mode,"ax",%progbits
	.hidden	lv_cpicker_set_color_mode       @ -- Begin function lv_cpicker_set_color_mode
	.globl	lv_cpicker_set_color_mode
	.p2align	3
	.type	lv_cpicker_set_color_mode,%function
	.code	16                              @ @lv_cpicker_set_color_mode
	.thumb_func
lv_cpicker_set_color_mode:
.Lfunc_begin12:
	.loc	10 275 0                        @ lvgl/src/lv_widgets/lv_cpicker.c:275:0
	.fnstart
	.cfi_startproc
@ %bb.0:
	@DEBUG_VALUE: lv_cpicker_set_color_mode:cpicker <- $r0
	@DEBUG_VALUE: lv_cpicker_set_color_mode:mode <- $r1
	.save	{r4, r5, r7, lr}
	push	{r4, r5, r7, lr}
	.cfi_def_cfa_offset 16
	.cfi_offset lr, -4
	.cfi_offset r7, -8
	.cfi_offset r5, -12
	.cfi_offset r4, -16
	mov	r5, r1
.Ltmp301:
	@DEBUG_VALUE: lv_cpicker_set_color_mode:mode <- $r5
	mov	r4, r0
	@DEBUG_VALUE: lv_cpicker_set_color_mode:mode <- $r5
.Ltmp302:
	@DEBUG_VALUE: lv_cpicker_set_color_mode:cpicker <- $r4
	.loc	10 276 5 prologue_end           @ lvgl/src/lv_widgets/lv_cpicker.c:276:5
	bl	lv_debug_check_null
.Ltmp303:
	.loc	10 276 5 is_stmt 0              @ lvgl/src/lv_widgets/lv_cpicker.c:276:5
	cbz	r0, .LBB12_2
.Ltmp304:
@ %bb.1:
	@DEBUG_VALUE: lv_cpicker_set_color_mode:mode <- $r5
	@DEBUG_VALUE: lv_cpicker_set_color_mode:cpicker <- $r4
	.loc	10 278 30 is_stmt 1             @ lvgl/src/lv_widgets/lv_cpicker.c:278:30
	mov	r0, r4
	bl	lv_obj_get_ext_attr
.Ltmp305:
	@DEBUG_VALUE: lv_cpicker_set_color_mode:ext <- $r0
	.loc	10 280 21                       @ lvgl/src/lv_widgets/lv_cpicker.c:280:21
	ldrb.w	r1, [r0, #32]
	and	r2, r5, #3
	and	r1, r1, #252
	add	r1, r2
	strb.w	r1, [r0, #32]
	.loc	10 281 5                        @ lvgl/src/lv_widgets/lv_cpicker.c:281:5
	mov	r0, r4
.Ltmp306:
	bl	refr_knob_pos
	.loc	10 282 5                        @ lvgl/src/lv_widgets/lv_cpicker.c:282:5
	mov	r0, r4
	bl	lv_obj_invalidate
	.loc	10 283 1                        @ lvgl/src/lv_widgets/lv_cpicker.c:283:1
	pop	{r4, r5, r7, pc}
.Ltmp307:
.LBB12_2:
	@DEBUG_VALUE: lv_cpicker_set_color_mode:mode <- $r5
	@DEBUG_VALUE: lv_cpicker_set_color_mode:cpicker <- $r4
	.loc	10 276 5                        @ lvgl/src/lv_widgets/lv_cpicker.c:276:5
	movw	r0, :lower16:.L.str.1
	movs	r3, #0
	movt	r0, :upper16:.L.str.1
	mov	r2, r4
	bl	lv_debug_log_error
.Ltmp308:
	.p2align	2
.LBB12_3:                               @ =>This Inner Loop Header: Depth=1
	@DEBUG_VALUE: lv_cpicker_set_color_mode:mode <- $r5
	@DEBUG_VALUE: lv_cpicker_set_color_mode:cpicker <- $r4
	b	.LBB12_3
.Ltmp309:
.Lfunc_end12:
	.size	lv_cpicker_set_color_mode, .Lfunc_end12-lv_cpicker_set_color_mode
	.cfi_endproc
	.cantunwind
	.fnend
                                        @ -- End function
	.section	.text.lv_cpicker_set_color_mode_fixed,"ax",%progbits
	.hidden	lv_cpicker_set_color_mode_fixed @ -- Begin function lv_cpicker_set_color_mode_fixed
	.globl	lv_cpicker_set_color_mode_fixed
	.p2align	3
	.type	lv_cpicker_set_color_mode_fixed,%function
	.code	16                              @ @lv_cpicker_set_color_mode_fixed
	.thumb_func
lv_cpicker_set_color_mode_fixed:
.Lfunc_begin13:
	.loc	10 291 0                        @ lvgl/src/lv_widgets/lv_cpicker.c:291:0
	.fnstart
	.cfi_startproc
@ %bb.0:
	@DEBUG_VALUE: lv_cpicker_set_color_mode_fixed:cpicker <- $r0
	@DEBUG_VALUE: lv_cpicker_set_color_mode_fixed:fixed <- [DW_OP_LLVM_convert 1 7, DW_OP_LLVM_convert 8 7, DW_OP_stack_value] $r1
	.save	{r4, r5, r7, lr}
	push	{r4, r5, r7, lr}
	.cfi_def_cfa_offset 16
	.cfi_offset lr, -4
	.cfi_offset r7, -8
	.cfi_offset r5, -12
	.cfi_offset r4, -16
	mov	r4, r1
.Ltmp310:
	@DEBUG_VALUE: lv_cpicker_set_color_mode_fixed:fixed <- [DW_OP_LLVM_convert 1 7, DW_OP_LLVM_convert 8 7, DW_OP_stack_value] $r4
	mov	r5, r0
	@DEBUG_VALUE: lv_cpicker_set_color_mode_fixed:fixed <- [DW_OP_LLVM_convert 1 7, DW_OP_LLVM_convert 8 7, DW_OP_stack_value] $r4
.Ltmp311:
	@DEBUG_VALUE: lv_cpicker_set_color_mode_fixed:cpicker <- $r5
	.loc	10 292 5 prologue_end           @ lvgl/src/lv_widgets/lv_cpicker.c:292:5
	bl	lv_debug_check_null
.Ltmp312:
	.loc	10 292 5 is_stmt 0              @ lvgl/src/lv_widgets/lv_cpicker.c:292:5
	cbz	r0, .LBB13_2
.Ltmp313:
@ %bb.1:
	@DEBUG_VALUE: lv_cpicker_set_color_mode_fixed:cpicker <- $r5
	@DEBUG_VALUE: lv_cpicker_set_color_mode_fixed:fixed <- [DW_OP_LLVM_convert 1 7, DW_OP_LLVM_convert 8 7, DW_OP_stack_value] $r4
	.loc	10 294 30 is_stmt 1             @ lvgl/src/lv_widgets/lv_cpicker.c:294:30
	mov	r0, r5
	bl	lv_obj_get_ext_attr
.Ltmp314:
	@DEBUG_VALUE: lv_cpicker_set_color_mode_fixed:ext <- $r0
	.loc	10 296 27                       @ lvgl/src/lv_widgets/lv_cpicker.c:296:27
	ldrb.w	r1, [r0, #32]
	@DEBUG_VALUE: lv_cpicker_set_color_mode_fixed:fixed <- [DW_OP_LLVM_convert 1 7, DW_OP_LLVM_convert 8 7, DW_OP_stack_value] $r4
	and	r1, r1, #251
	bfi	r1, r4, #2, #1
	strb.w	r1, [r0, #32]
	.loc	10 297 1                        @ lvgl/src/lv_widgets/lv_cpicker.c:297:1
	pop	{r4, r5, r7, pc}
.Ltmp315:
.LBB13_2:
	@DEBUG_VALUE: lv_cpicker_set_color_mode_fixed:cpicker <- $r5
	@DEBUG_VALUE: lv_cpicker_set_color_mode_fixed:fixed <- [DW_OP_LLVM_convert 1 7, DW_OP_LLVM_convert 8 7, DW_OP_stack_value] $r4
	.loc	10 292 5                        @ lvgl/src/lv_widgets/lv_cpicker.c:292:5
	movw	r0, :lower16:.L.str.1
	movs	r3, #0
	movt	r0, :upper16:.L.str.1
	mov	r2, r5
	bl	lv_debug_log_error
.Ltmp316:
	.p2align	2
.LBB13_3:                               @ =>This Inner Loop Header: Depth=1
	@DEBUG_VALUE: lv_cpicker_set_color_mode_fixed:cpicker <- $r5
	@DEBUG_VALUE: lv_cpicker_set_color_mode_fixed:fixed <- [DW_OP_LLVM_convert 1 7, DW_OP_LLVM_convert 8 7, DW_OP_stack_value] $r4
	b	.LBB13_3
.Ltmp317:
.Lfunc_end13:
	.size	lv_cpicker_set_color_mode_fixed, .Lfunc_end13-lv_cpicker_set_color_mode_fixed
	.cfi_endproc
	.cantunwind
	.fnend
                                        @ -- End function
	.section	.text.lv_cpicker_set_knob_colored,"ax",%progbits
	.hidden	lv_cpicker_set_knob_colored     @ -- Begin function lv_cpicker_set_knob_colored
	.globl	lv_cpicker_set_knob_colored
	.p2align	3
	.type	lv_cpicker_set_knob_colored,%function
	.code	16                              @ @lv_cpicker_set_knob_colored
	.thumb_func
lv_cpicker_set_knob_colored:
.Lfunc_begin14:
	.loc	10 305 0                        @ lvgl/src/lv_widgets/lv_cpicker.c:305:0
	.fnstart
	.cfi_startproc
@ %bb.0:
	@DEBUG_VALUE: lv_cpicker_set_knob_colored:cpicker <- $r0
	@DEBUG_VALUE: lv_cpicker_set_knob_colored:en <- [DW_OP_LLVM_convert 1 7, DW_OP_LLVM_convert 8 7, DW_OP_stack_value] $r1
	.save	{r4, r5, r7, lr}
	push	{r4, r5, r7, lr}
	.cfi_def_cfa_offset 16
	.cfi_offset lr, -4
	.cfi_offset r7, -8
	.cfi_offset r5, -12
	.cfi_offset r4, -16
	mov	r5, r1
.Ltmp318:
	@DEBUG_VALUE: lv_cpicker_set_knob_colored:en <- [DW_OP_LLVM_convert 1 7, DW_OP_LLVM_convert 8 7, DW_OP_stack_value] $r5
	mov	r4, r0
	@DEBUG_VALUE: lv_cpicker_set_knob_colored:en <- [DW_OP_LLVM_convert 1 7, DW_OP_LLVM_convert 8 7, DW_OP_stack_value] $r5
.Ltmp319:
	@DEBUG_VALUE: lv_cpicker_set_knob_colored:cpicker <- $r4
	.loc	10 306 5 prologue_end           @ lvgl/src/lv_widgets/lv_cpicker.c:306:5
	bl	lv_debug_check_null
.Ltmp320:
	.loc	10 306 5 is_stmt 0              @ lvgl/src/lv_widgets/lv_cpicker.c:306:5
	cbz	r0, .LBB14_2
.Ltmp321:
@ %bb.1:
	@DEBUG_VALUE: lv_cpicker_set_knob_colored:en <- [DW_OP_LLVM_convert 1 7, DW_OP_LLVM_convert 8 7, DW_OP_stack_value] $r5
	@DEBUG_VALUE: lv_cpicker_set_knob_colored:cpicker <- $r4
	.loc	10 308 30 is_stmt 1             @ lvgl/src/lv_widgets/lv_cpicker.c:308:30
	mov	r0, r4
	bl	lv_obj_get_ext_attr
.Ltmp322:
	@DEBUG_VALUE: lv_cpicker_set_knob_colored:ext <- $r0
	.loc	10 309 23                       @ lvgl/src/lv_widgets/lv_cpicker.c:309:23
	ldrb	r1, [r0, #16]
	and	r1, r1, #254
	add	r1, r5
	strb	r1, [r0, #16]
	.loc	10 310 5                        @ lvgl/src/lv_widgets/lv_cpicker.c:310:5
	mov	r0, r4
.Ltmp323:
	bl	invalidate_knob
	.loc	10 311 1                        @ lvgl/src/lv_widgets/lv_cpicker.c:311:1
	pop	{r4, r5, r7, pc}
.Ltmp324:
.LBB14_2:
	@DEBUG_VALUE: lv_cpicker_set_knob_colored:en <- [DW_OP_LLVM_convert 1 7, DW_OP_LLVM_convert 8 7, DW_OP_stack_value] $r5
	@DEBUG_VALUE: lv_cpicker_set_knob_colored:cpicker <- $r4
	.loc	10 306 5                        @ lvgl/src/lv_widgets/lv_cpicker.c:306:5
	movw	r0, :lower16:.L.str.1
	movs	r3, #0
	movt	r0, :upper16:.L.str.1
	mov	r2, r4
	bl	lv_debug_log_error
.Ltmp325:
	.p2align	2
.LBB14_3:                               @ =>This Inner Loop Header: Depth=1
	@DEBUG_VALUE: lv_cpicker_set_knob_colored:en <- [DW_OP_LLVM_convert 1 7, DW_OP_LLVM_convert 8 7, DW_OP_stack_value] $r5
	@DEBUG_VALUE: lv_cpicker_set_knob_colored:cpicker <- $r4
	b	.LBB14_3
.Ltmp326:
.Lfunc_end14:
	.size	lv_cpicker_set_knob_colored, .Lfunc_end14-lv_cpicker_set_knob_colored
	.cfi_endproc
	.cantunwind
	.fnend
                                        @ -- End function
	.section	.text.invalidate_knob,"ax",%progbits
	.p2align	3                               @ -- Begin function invalidate_knob
	.type	invalidate_knob,%function
	.code	16                              @ @invalidate_knob
	.thumb_func
invalidate_knob:
.Lfunc_begin15:
	.loc	10 627 0                        @ lvgl/src/lv_widgets/lv_cpicker.c:627:0
	.fnstart
	.cfi_startproc
@ %bb.0:
	@DEBUG_VALUE: invalidate_knob:cpicker <- $r0
	.save	{r4, r5, r7, lr}
	push	{r4, r5, r7, lr}
	.cfi_def_cfa_offset 16
	.cfi_offset lr, -4
	.cfi_offset r7, -8
	.cfi_offset r5, -12
	.cfi_offset r4, -16
	.pad	#8
	sub	sp, #8
	.cfi_def_cfa_offset 24
	mov	r4, r0
.Ltmp327:
	@DEBUG_VALUE: invalidate_knob:cpicker <- $r4
	@DEBUG_VALUE: invalidate_knob:cpicker <- $r4
	mov	r5, sp
.Ltmp328:
	.loc	10 628 27 prologue_end          @ lvgl/src/lv_widgets/lv_cpicker.c:628:27
	mov	r0, r5
	mov	r1, r4
	bl	get_knob_area
	.loc	10 630 5                        @ lvgl/src/lv_widgets/lv_cpicker.c:630:5
	mov	r0, r4
	mov	r1, r5
	bl	lv_obj_invalidate_area
	.loc	10 631 1                        @ lvgl/src/lv_widgets/lv_cpicker.c:631:1
	add	sp, #8
	pop	{r4, r5, r7, pc}
.Ltmp329:
.Lfunc_end15:
	.size	invalidate_knob, .Lfunc_end15-invalidate_knob
	.cfi_endproc
	.cantunwind
	.fnend
                                        @ -- End function
	.section	.text.lv_cpicker_get_color_mode,"ax",%progbits
	.hidden	lv_cpicker_get_color_mode       @ -- Begin function lv_cpicker_get_color_mode
	.globl	lv_cpicker_get_color_mode
	.p2align	3
	.type	lv_cpicker_get_color_mode,%function
	.code	16                              @ @lv_cpicker_get_color_mode
	.thumb_func
lv_cpicker_get_color_mode:
.Lfunc_begin16:
	.loc	10 323 0                        @ lvgl/src/lv_widgets/lv_cpicker.c:323:0
	.fnstart
	.cfi_startproc
@ %bb.0:
	@DEBUG_VALUE: lv_cpicker_get_color_mode:cpicker <- $r0
	.save	{r4, lr}
	push	{r4, lr}
	.cfi_def_cfa_offset 8
	.cfi_offset lr, -4
	.cfi_offset r4, -8
	mov	r4, r0
.Ltmp330:
	@DEBUG_VALUE: lv_cpicker_get_color_mode:cpicker <- $r4
	.loc	10 324 5 prologue_end           @ lvgl/src/lv_widgets/lv_cpicker.c:324:5
	bl	lv_debug_check_null
.Ltmp331:
	.loc	10 324 5 is_stmt 0              @ lvgl/src/lv_widgets/lv_cpicker.c:324:5
	cbz	r0, .LBB16_2
.Ltmp332:
@ %bb.1:
	@DEBUG_VALUE: lv_cpicker_get_color_mode:cpicker <- $r4
	.loc	10 326 30 is_stmt 1             @ lvgl/src/lv_widgets/lv_cpicker.c:326:30
	mov	r0, r4
	bl	lv_obj_get_ext_attr
.Ltmp333:
	@DEBUG_VALUE: lv_cpicker_get_color_mode:ext <- $r0
	.loc	10 328 17                       @ lvgl/src/lv_widgets/lv_cpicker.c:328:17
	ldrb.w	r0, [r0, #32]
.Ltmp334:
	.loc	10 328 5 is_stmt 0              @ lvgl/src/lv_widgets/lv_cpicker.c:328:5
	and	r0, r0, #3
	pop	{r4, pc}
.Ltmp335:
.LBB16_2:
	@DEBUG_VALUE: lv_cpicker_get_color_mode:cpicker <- $r4
	.loc	10 324 5 is_stmt 1              @ lvgl/src/lv_widgets/lv_cpicker.c:324:5
	movw	r0, :lower16:.L.str.1
	movs	r3, #0
	movt	r0, :upper16:.L.str.1
	mov	r2, r4
	bl	lv_debug_log_error
.Ltmp336:
	.p2align	2
.LBB16_3:                               @ =>This Inner Loop Header: Depth=1
	@DEBUG_VALUE: lv_cpicker_get_color_mode:cpicker <- $r4
	b	.LBB16_3
.Ltmp337:
.Lfunc_end16:
	.size	lv_cpicker_get_color_mode, .Lfunc_end16-lv_cpicker_get_color_mode
	.cfi_endproc
	.cantunwind
	.fnend
                                        @ -- End function
	.section	.text.lv_cpicker_get_color_mode_fixed,"ax",%progbits
	.hidden	lv_cpicker_get_color_mode_fixed @ -- Begin function lv_cpicker_get_color_mode_fixed
	.globl	lv_cpicker_get_color_mode_fixed
	.p2align	3
	.type	lv_cpicker_get_color_mode_fixed,%function
	.code	16                              @ @lv_cpicker_get_color_mode_fixed
	.thumb_func
lv_cpicker_get_color_mode_fixed:
.Lfunc_begin17:
	.loc	10 337 0                        @ lvgl/src/lv_widgets/lv_cpicker.c:337:0
	.fnstart
	.cfi_startproc
@ %bb.0:
	@DEBUG_VALUE: lv_cpicker_get_color_mode_fixed:cpicker <- $r0
	.save	{r4, lr}
	push	{r4, lr}
	.cfi_def_cfa_offset 8
	.cfi_offset lr, -4
	.cfi_offset r4, -8
	mov	r4, r0
.Ltmp338:
	@DEBUG_VALUE: lv_cpicker_get_color_mode_fixed:cpicker <- $r4
	.loc	10 338 5 prologue_end           @ lvgl/src/lv_widgets/lv_cpicker.c:338:5
	bl	lv_debug_check_null
.Ltmp339:
	.loc	10 338 5 is_stmt 0              @ lvgl/src/lv_widgets/lv_cpicker.c:338:5
	cbz	r0, .LBB17_2
.Ltmp340:
@ %bb.1:
	@DEBUG_VALUE: lv_cpicker_get_color_mode_fixed:cpicker <- $r4
	.loc	10 340 30 is_stmt 1             @ lvgl/src/lv_widgets/lv_cpicker.c:340:30
	mov	r0, r4
	bl	lv_obj_get_ext_attr
.Ltmp341:
	@DEBUG_VALUE: lv_cpicker_get_color_mode_fixed:ext <- $r0
	.loc	10 342 17                       @ lvgl/src/lv_widgets/lv_cpicker.c:342:17
	ldrb.w	r0, [r0, #32]
.Ltmp342:
	.loc	10 342 12 is_stmt 0             @ lvgl/src/lv_widgets/lv_cpicker.c:342:12
	ubfx	r0, r0, #2, #1
	.loc	10 342 5                        @ lvgl/src/lv_widgets/lv_cpicker.c:342:5
	pop	{r4, pc}
.Ltmp343:
.LBB17_2:
	@DEBUG_VALUE: lv_cpicker_get_color_mode_fixed:cpicker <- $r4
	.loc	10 338 5 is_stmt 1              @ lvgl/src/lv_widgets/lv_cpicker.c:338:5
	movw	r0, :lower16:.L.str.1
	movs	r3, #0
	movt	r0, :upper16:.L.str.1
	mov	r2, r4
	bl	lv_debug_log_error
.Ltmp344:
	.p2align	2
.LBB17_3:                               @ =>This Inner Loop Header: Depth=1
	@DEBUG_VALUE: lv_cpicker_get_color_mode_fixed:cpicker <- $r4
	b	.LBB17_3
.Ltmp345:
.Lfunc_end17:
	.size	lv_cpicker_get_color_mode_fixed, .Lfunc_end17-lv_cpicker_get_color_mode_fixed
	.cfi_endproc
	.cantunwind
	.fnend
                                        @ -- End function
	.section	.text.lv_cpicker_get_hue,"ax",%progbits
	.hidden	lv_cpicker_get_hue              @ -- Begin function lv_cpicker_get_hue
	.globl	lv_cpicker_get_hue
	.p2align	3
	.type	lv_cpicker_get_hue,%function
	.code	16                              @ @lv_cpicker_get_hue
	.thumb_func
lv_cpicker_get_hue:
.Lfunc_begin18:
	.loc	10 351 0                        @ lvgl/src/lv_widgets/lv_cpicker.c:351:0
	.fnstart
	.cfi_startproc
@ %bb.0:
	@DEBUG_VALUE: lv_cpicker_get_hue:cpicker <- $r0
	.save	{r4, lr}
	push	{r4, lr}
	.cfi_def_cfa_offset 8
	.cfi_offset lr, -4
	.cfi_offset r4, -8
	mov	r4, r0
.Ltmp346:
	@DEBUG_VALUE: lv_cpicker_get_hue:cpicker <- $r4
	.loc	10 352 5 prologue_end           @ lvgl/src/lv_widgets/lv_cpicker.c:352:5
	bl	lv_debug_check_null
.Ltmp347:
	.loc	10 352 5 is_stmt 0              @ lvgl/src/lv_widgets/lv_cpicker.c:352:5
	cbz	r0, .LBB18_2
.Ltmp348:
@ %bb.1:
	@DEBUG_VALUE: lv_cpicker_get_hue:cpicker <- $r4
	.loc	10 354 30 is_stmt 1             @ lvgl/src/lv_widgets/lv_cpicker.c:354:30
	mov	r0, r4
	bl	lv_obj_get_ext_attr
.Ltmp349:
	@DEBUG_VALUE: lv_cpicker_get_hue:ext <- $r0
	.loc	10 356 21                       @ lvgl/src/lv_widgets/lv_cpicker.c:356:21
	ldrh	r0, [r0]
.Ltmp350:
	.loc	10 356 5 is_stmt 0              @ lvgl/src/lv_widgets/lv_cpicker.c:356:5
	pop	{r4, pc}
.Ltmp351:
.LBB18_2:
	@DEBUG_VALUE: lv_cpicker_get_hue:cpicker <- $r4
	.loc	10 352 5 is_stmt 1              @ lvgl/src/lv_widgets/lv_cpicker.c:352:5
	movw	r0, :lower16:.L.str.1
	movs	r3, #0
	movt	r0, :upper16:.L.str.1
	mov	r2, r4
	bl	lv_debug_log_error
.Ltmp352:
	.p2align	2
.LBB18_3:                               @ =>This Inner Loop Header: Depth=1
	@DEBUG_VALUE: lv_cpicker_get_hue:cpicker <- $r4
	b	.LBB18_3
.Ltmp353:
.Lfunc_end18:
	.size	lv_cpicker_get_hue, .Lfunc_end18-lv_cpicker_get_hue
	.cfi_endproc
	.cantunwind
	.fnend
                                        @ -- End function
	.section	.text.lv_cpicker_get_saturation,"ax",%progbits
	.hidden	lv_cpicker_get_saturation       @ -- Begin function lv_cpicker_get_saturation
	.globl	lv_cpicker_get_saturation
	.p2align	3
	.type	lv_cpicker_get_saturation,%function
	.code	16                              @ @lv_cpicker_get_saturation
	.thumb_func
lv_cpicker_get_saturation:
.Lfunc_begin19:
	.loc	10 365 0                        @ lvgl/src/lv_widgets/lv_cpicker.c:365:0
	.fnstart
	.cfi_startproc
@ %bb.0:
	@DEBUG_VALUE: lv_cpicker_get_saturation:cpicker <- $r0
	.save	{r4, lr}
	push	{r4, lr}
	.cfi_def_cfa_offset 8
	.cfi_offset lr, -4
	.cfi_offset r4, -8
	mov	r4, r0
.Ltmp354:
	@DEBUG_VALUE: lv_cpicker_get_saturation:cpicker <- $r4
	.loc	10 366 5 prologue_end           @ lvgl/src/lv_widgets/lv_cpicker.c:366:5
	bl	lv_debug_check_null
.Ltmp355:
	.loc	10 366 5 is_stmt 0              @ lvgl/src/lv_widgets/lv_cpicker.c:366:5
	cbz	r0, .LBB19_2
.Ltmp356:
@ %bb.1:
	@DEBUG_VALUE: lv_cpicker_get_saturation:cpicker <- $r4
	.loc	10 368 30 is_stmt 1             @ lvgl/src/lv_widgets/lv_cpicker.c:368:30
	mov	r0, r4
	bl	lv_obj_get_ext_attr
.Ltmp357:
	@DEBUG_VALUE: lv_cpicker_get_saturation:ext <- $r0
	.loc	10 370 21                       @ lvgl/src/lv_widgets/lv_cpicker.c:370:21
	ldrb	r0, [r0, #2]
.Ltmp358:
	.loc	10 370 5 is_stmt 0              @ lvgl/src/lv_widgets/lv_cpicker.c:370:5
	pop	{r4, pc}
.Ltmp359:
.LBB19_2:
	@DEBUG_VALUE: lv_cpicker_get_saturation:cpicker <- $r4
	.loc	10 366 5 is_stmt 1              @ lvgl/src/lv_widgets/lv_cpicker.c:366:5
	movw	r0, :lower16:.L.str.1
	movs	r3, #0
	movt	r0, :upper16:.L.str.1
	mov	r2, r4
	bl	lv_debug_log_error
.Ltmp360:
	.p2align	2
.LBB19_3:                               @ =>This Inner Loop Header: Depth=1
	@DEBUG_VALUE: lv_cpicker_get_saturation:cpicker <- $r4
	b	.LBB19_3
.Ltmp361:
.Lfunc_end19:
	.size	lv_cpicker_get_saturation, .Lfunc_end19-lv_cpicker_get_saturation
	.cfi_endproc
	.cantunwind
	.fnend
                                        @ -- End function
	.section	.text.lv_cpicker_get_value,"ax",%progbits
	.hidden	lv_cpicker_get_value            @ -- Begin function lv_cpicker_get_value
	.globl	lv_cpicker_get_value
	.p2align	3
	.type	lv_cpicker_get_value,%function
	.code	16                              @ @lv_cpicker_get_value
	.thumb_func
lv_cpicker_get_value:
.Lfunc_begin20:
	.loc	10 379 0                        @ lvgl/src/lv_widgets/lv_cpicker.c:379:0
	.fnstart
	.cfi_startproc
@ %bb.0:
	@DEBUG_VALUE: lv_cpicker_get_value:cpicker <- $r0
	.save	{r4, lr}
	push	{r4, lr}
	.cfi_def_cfa_offset 8
	.cfi_offset lr, -4
	.cfi_offset r4, -8
	mov	r4, r0
.Ltmp362:
	@DEBUG_VALUE: lv_cpicker_get_value:cpicker <- $r4
	.loc	10 380 5 prologue_end           @ lvgl/src/lv_widgets/lv_cpicker.c:380:5
	bl	lv_debug_check_null
.Ltmp363:
	.loc	10 380 5 is_stmt 0              @ lvgl/src/lv_widgets/lv_cpicker.c:380:5
	cbz	r0, .LBB20_2
.Ltmp364:
@ %bb.1:
	@DEBUG_VALUE: lv_cpicker_get_value:cpicker <- $r4
	.loc	10 382 30 is_stmt 1             @ lvgl/src/lv_widgets/lv_cpicker.c:382:30
	mov	r0, r4
	bl	lv_obj_get_ext_attr
.Ltmp365:
	@DEBUG_VALUE: lv_cpicker_get_value:ext <- $r0
	.loc	10 384 21                       @ lvgl/src/lv_widgets/lv_cpicker.c:384:21
	ldrb	r0, [r0, #3]
.Ltmp366:
	.loc	10 384 5 is_stmt 0              @ lvgl/src/lv_widgets/lv_cpicker.c:384:5
	pop	{r4, pc}
.Ltmp367:
.LBB20_2:
	@DEBUG_VALUE: lv_cpicker_get_value:cpicker <- $r4
	.loc	10 380 5 is_stmt 1              @ lvgl/src/lv_widgets/lv_cpicker.c:380:5
	movw	r0, :lower16:.L.str.1
	movs	r3, #0
	movt	r0, :upper16:.L.str.1
	mov	r2, r4
	bl	lv_debug_log_error
.Ltmp368:
	.p2align	2
.LBB20_3:                               @ =>This Inner Loop Header: Depth=1
	@DEBUG_VALUE: lv_cpicker_get_value:cpicker <- $r4
	b	.LBB20_3
.Ltmp369:
.Lfunc_end20:
	.size	lv_cpicker_get_value, .Lfunc_end20-lv_cpicker_get_value
	.cfi_endproc
	.cantunwind
	.fnend
                                        @ -- End function
	.section	.text.lv_cpicker_get_color,"ax",%progbits
	.hidden	lv_cpicker_get_color            @ -- Begin function lv_cpicker_get_color
	.globl	lv_cpicker_get_color
	.p2align	3
	.type	lv_cpicker_get_color,%function
	.code	16                              @ @lv_cpicker_get_color
	.thumb_func
lv_cpicker_get_color:
.Lfunc_begin21:
	.loc	10 407 0                        @ lvgl/src/lv_widgets/lv_cpicker.c:407:0
	.fnstart
	.cfi_startproc
@ %bb.0:
	@DEBUG_VALUE: lv_cpicker_get_color:cpicker <- $r0
	.save	{r4, lr}
	push	{r4, lr}
	.cfi_def_cfa_offset 8
	.cfi_offset lr, -4
	.cfi_offset r4, -8
	mov	r4, r0
.Ltmp370:
	@DEBUG_VALUE: lv_cpicker_get_color:cpicker <- $r4
	.loc	10 408 5 prologue_end           @ lvgl/src/lv_widgets/lv_cpicker.c:408:5
	bl	lv_debug_check_null
.Ltmp371:
	.loc	10 408 5 is_stmt 0              @ lvgl/src/lv_widgets/lv_cpicker.c:408:5
	cbz	r0, .LBB21_2
.Ltmp372:
@ %bb.1:
	@DEBUG_VALUE: lv_cpicker_get_color:cpicker <- $r4
	.loc	10 410 30 is_stmt 1             @ lvgl/src/lv_widgets/lv_cpicker.c:410:30
	mov	r0, r4
	bl	lv_obj_get_ext_attr
.Ltmp373:
	@DEBUG_VALUE: lv_cpicker_get_color:ext <- $r0
	.loc	10 412 41                       @ lvgl/src/lv_widgets/lv_cpicker.c:412:41
	ldrh	r3, [r0]
	.loc	10 412 53 is_stmt 0             @ lvgl/src/lv_widgets/lv_cpicker.c:412:53
	ldrb	r1, [r0, #2]
	.loc	10 412 65                       @ lvgl/src/lv_widgets/lv_cpicker.c:412:65
	ldrb	r2, [r0, #3]
	.loc	10 412 12                       @ lvgl/src/lv_widgets/lv_cpicker.c:412:12
	mov	r0, r3
.Ltmp374:
	bl	lv_color_hsv_to_rgb
	.loc	10 413 1 is_stmt 1              @ lvgl/src/lv_widgets/lv_cpicker.c:413:1
	pop	{r4, pc}
.Ltmp375:
.LBB21_2:
	@DEBUG_VALUE: lv_cpicker_get_color:cpicker <- $r4
	.loc	10 408 5                        @ lvgl/src/lv_widgets/lv_cpicker.c:408:5
	movw	r0, :lower16:.L.str.1
	movs	r3, #0
	movt	r0, :upper16:.L.str.1
	mov	r2, r4
	bl	lv_debug_log_error
.Ltmp376:
	.p2align	2
.LBB21_3:                               @ =>This Inner Loop Header: Depth=1
	@DEBUG_VALUE: lv_cpicker_get_color:cpicker <- $r4
	b	.LBB21_3
.Ltmp377:
.Lfunc_end21:
	.size	lv_cpicker_get_color, .Lfunc_end21-lv_cpicker_get_color
	.cfi_endproc
	.cantunwind
	.fnend
                                        @ -- End function
	.section	.text.lv_cpicker_get_knob_colored,"ax",%progbits
	.hidden	lv_cpicker_get_knob_colored     @ -- Begin function lv_cpicker_get_knob_colored
	.globl	lv_cpicker_get_knob_colored
	.p2align	3
	.type	lv_cpicker_get_knob_colored,%function
	.code	16                              @ @lv_cpicker_get_knob_colored
	.thumb_func
lv_cpicker_get_knob_colored:
.Lfunc_begin22:
	.loc	10 421 0                        @ lvgl/src/lv_widgets/lv_cpicker.c:421:0
	.fnstart
	.cfi_startproc
@ %bb.0:
	@DEBUG_VALUE: lv_cpicker_get_knob_colored:cpicker <- $r0
	.save	{r4, lr}
	push	{r4, lr}
	.cfi_def_cfa_offset 8
	.cfi_offset lr, -4
	.cfi_offset r4, -8
	mov	r4, r0
.Ltmp378:
	@DEBUG_VALUE: lv_cpicker_get_knob_colored:cpicker <- $r4
	.loc	10 422 5 prologue_end           @ lvgl/src/lv_widgets/lv_cpicker.c:422:5
	bl	lv_debug_check_null
.Ltmp379:
	.loc	10 422 5 is_stmt 0              @ lvgl/src/lv_widgets/lv_cpicker.c:422:5
	cbz	r0, .LBB22_2
.Ltmp380:
@ %bb.1:
	@DEBUG_VALUE: lv_cpicker_get_knob_colored:cpicker <- $r4
	.loc	10 424 30 is_stmt 1             @ lvgl/src/lv_widgets/lv_cpicker.c:424:30
	mov	r0, r4
	bl	lv_obj_get_ext_attr
.Ltmp381:
	@DEBUG_VALUE: lv_cpicker_get_knob_colored:ext <- $r0
	.loc	10 426 22                       @ lvgl/src/lv_widgets/lv_cpicker.c:426:22
	ldrb	r0, [r0, #16]
.Ltmp382:
	and	r0, r0, #1
	.loc	10 426 5 is_stmt 0              @ lvgl/src/lv_widgets/lv_cpicker.c:426:5
	pop	{r4, pc}
.Ltmp383:
.LBB22_2:
	@DEBUG_VALUE: lv_cpicker_get_knob_colored:cpicker <- $r4
	.loc	10 422 5 is_stmt 1              @ lvgl/src/lv_widgets/lv_cpicker.c:422:5
	movw	r0, :lower16:.L.str.1
	movs	r3, #0
	movt	r0, :upper16:.L.str.1
	mov	r2, r4
	bl	lv_debug_log_error
.Ltmp384:
	.p2align	2
.LBB22_3:                               @ =>This Inner Loop Header: Depth=1
	@DEBUG_VALUE: lv_cpicker_get_knob_colored:cpicker <- $r4
	b	.LBB22_3
.Ltmp385:
.Lfunc_end22:
	.size	lv_cpicker_get_knob_colored, .Lfunc_end22-lv_cpicker_get_knob_colored
	.cfi_endproc
	.cantunwind
	.fnend
                                        @ -- End function
	.section	.text.draw_disc_grad,"ax",%progbits
	.p2align	3                               @ -- Begin function draw_disc_grad
	.type	draw_disc_grad,%function
	.code	16                              @ @draw_disc_grad
	.thumb_func
draw_disc_grad:
.Lfunc_begin23:
	.loc	10 474 0                        @ lvgl/src/lv_widgets/lv_cpicker.c:474:0
	.fnstart
	.cfi_startproc
@ %bb.0:
	@DEBUG_VALUE: draw_disc_grad:cpicker <- $r0
	@DEBUG_VALUE: draw_disc_grad:mask <- $r1
	.save	{r4, r5, r6, r7, r8, r9, r10, r11, lr}
	push.w	{r4, r5, r6, r7, r8, r9, r10, r11, lr}
	.cfi_def_cfa_offset 36
	.cfi_offset lr, -4
	.cfi_offset r11, -8
	.cfi_offset r10, -12
	.cfi_offset r9, -16
	.cfi_offset r8, -20
	.cfi_offset r7, -24
	.cfi_offset r6, -28
	.cfi_offset r5, -32
	.cfi_offset r4, -36
	.pad	#188
	sub	sp, #188
	.cfi_def_cfa_offset 224
	str	r1, [sp, #24]                   @ 4-byte Spill
.Ltmp386:
	@DEBUG_VALUE: draw_disc_grad:mask <- [DW_OP_plus_uconst 24] [$sp+0]
	mov	r6, r0
	@DEBUG_VALUE: draw_disc_grad:mask <- [DW_OP_plus_uconst 24] [$sp+0]
.Ltmp387:
	@DEBUG_VALUE: draw_disc_grad:cpicker <- $r6
	.loc	10 475 20 prologue_end          @ lvgl/src/lv_widgets/lv_cpicker.c:475:20
	bl	lv_obj_get_width
	uxth	r4, r0
	mov	r5, r0
.Ltmp388:
	@DEBUG_VALUE: draw_disc_grad:w <- $r5
	.loc	10 476 20                       @ lvgl/src/lv_widgets/lv_cpicker.c:476:20
	mov	r0, r6
	bl	lv_obj_get_height
.Ltmp389:
	@DEBUG_VALUE: draw_disc_grad:h <- $r0
	uxth	r1, r0
	.loc	10 477 37                       @ lvgl/src/lv_widgets/lv_cpicker.c:477:37
	mov	r10, r6
	.loc	10 477 44 is_stmt 0             @ lvgl/src/lv_widgets/lv_cpicker.c:477:44
	add.w	r2, r5, r4, lsr #15
	.loc	10 478 37 is_stmt 1             @ lvgl/src/lv_widgets/lv_cpicker.c:478:37
	ldrh	r3, [r6, #18]
	.loc	10 477 44                       @ lvgl/src/lv_widgets/lv_cpicker.c:477:44
	sxth.w	r9, r2
	.loc	10 478 44                       @ lvgl/src/lv_widgets/lv_cpicker.c:478:44
	add.w	r0, r0, r1, lsr #15
.Ltmp390:
	sxth	r0, r0
	.loc	10 477 37                       @ lvgl/src/lv_widgets/lv_cpicker.c:477:37
	ldrh	r2, [r10, #16]!
	add.w	r8, sp, #176
	.loc	10 477 44 is_stmt 0             @ lvgl/src/lv_widgets/lv_cpicker.c:477:44
	asr.w	r11, r9, #1
.Ltmp391:
	@DEBUG_VALUE: draw_disc_grad:r <- $r11
	.loc	10 478 40 is_stmt 1             @ lvgl/src/lv_widgets/lv_cpicker.c:478:40
	add.w	r5, r3, r0, asr #1
.Ltmp392:
	@DEBUG_VALUE: draw_disc_grad:cy <- $r5
	.loc	10 482 5                        @ lvgl/src/lv_widgets/lv_cpicker.c:482:5
	mov	r0, r8
	.loc	10 477 40                       @ lvgl/src/lv_widgets/lv_cpicker.c:477:40
	add.w	r4, r2, r9, asr #1
.Ltmp393:
	@DEBUG_VALUE: draw_disc_grad:cx <- $r4
	.loc	10 482 5                        @ lvgl/src/lv_widgets/lv_cpicker.c:482:5
	bl	lv_draw_line_dsc_init
	.loc	10 483 5                        @ lvgl/src/lv_widgets/lv_cpicker.c:483:5
	movs	r1, #0
	mov	r0, r6
	mov	r2, r8
	movs	r7, #0
	bl	lv_obj_init_draw_line_dsc
	mov.w	r0, #628
	movw	r1, #6641
	.loc	10 485 25                       @ lvgl/src/lv_widgets/lv_cpicker.c:485:25
	mul	r0, r11, r0
	movt	r1, #1398
	str	r6, [sp, #20]                   @ 4-byte Spill
.Ltmp394:
	@DEBUG_VALUE: draw_disc_grad:cpicker <- [DW_OP_plus_uconst 20] [$sp+0]
	.loc	10 485 60 is_stmt 0             @ lvgl/src/lv_widgets/lv_cpicker.c:485:60
	smmul	r0, r0, r1
	lsrs	r1, r0, #8
	add.w	r0, r1, r0, lsr #31
	.loc	10 486 20 is_stmt 1             @ lvgl/src/lv_widgets/lv_cpicker.c:486:20
	adds	r0, #2
	strh.w	r0, [sp, #180]
	.loc	10 488 24                       @ lvgl/src/lv_widgets/lv_cpicker.c:488:24
	mov	r0, r6
	bl	lv_obj_get_style_scale_width
	mov	r8, r0
.Ltmp395:
	@DEBUG_VALUE: draw_disc_grad:cir_w <- $r8
	.loc	10 0 24 is_stmt 0               @ lvgl/src/lv_widgets/lv_cpicker.c:0:24
	add	r0, sp, #168
	.loc	10 492 5 is_stmt 1              @ lvgl/src/lv_widgets/lv_cpicker.c:492:5
	mov	r1, r10
	str.w	r10, [sp, #12]                  @ 4-byte Spill
	bl	lv_area_copy
	.loc	10 493 22                       @ lvgl/src/lv_widgets/lv_cpicker.c:493:22
	ldrh.w	r0, [sp, #168]
	.loc	10 494 22                       @ lvgl/src/lv_widgets/lv_cpicker.c:494:22
	ldrh.w	r1, [sp, #172]
	add	r6, sp, #140
	.loc	10 498 5                        @ lvgl/src/lv_widgets/lv_cpicker.c:498:5
	movw	r2, #32767
	.loc	10 493 22                       @ lvgl/src/lv_widgets/lv_cpicker.c:493:22
	adds	r0, #3
	strh.w	r0, [sp, #168]
	.loc	10 494 22                       @ lvgl/src/lv_widgets/lv_cpicker.c:494:22
	subs	r0, r1, #3
	.loc	10 495 22                       @ lvgl/src/lv_widgets/lv_cpicker.c:495:22
	ldrh.w	r1, [sp, #170]
	.loc	10 494 22                       @ lvgl/src/lv_widgets/lv_cpicker.c:494:22
	strh.w	r0, [sp, #172]
	.loc	10 496 22                       @ lvgl/src/lv_widgets/lv_cpicker.c:496:22
	ldrh.w	r0, [sp, #174]
	.loc	10 495 22                       @ lvgl/src/lv_widgets/lv_cpicker.c:495:22
	adds	r1, #3
	strh.w	r1, [sp, #170]
	.loc	10 496 22                       @ lvgl/src/lv_widgets/lv_cpicker.c:496:22
	subs	r0, #3
	strh.w	r0, [sp, #174]
	.loc	10 498 5                        @ lvgl/src/lv_widgets/lv_cpicker.c:498:5
	movs	r3, #0
	mov	r0, r6
	add	r1, sp, #168
	bl	lv_draw_mask_radius_init
	.loc	10 499 27                       @ lvgl/src/lv_widgets/lv_cpicker.c:499:27
	movs	r1, #0
	mov	r0, r6
	bl	lv_draw_mask_add
	.loc	10 503 47                       @ lvgl/src/lv_widgets/lv_cpicker.c:503:47
	ldrh.w	r1, [sp, #180]
.Ltmp396:
	@DEBUG_VALUE: draw_disc_grad:mask_out_id <- undef
	.loc	10 499 27                       @ lvgl/src/lv_widgets/lv_cpicker.c:499:27
	strd	r0, r8, [sp, #4]                @ 8-byte Folded Spill
.Ltmp397:
	@DEBUG_VALUE: draw_disc_grad:cir_w <- [DW_OP_plus_uconst 8] [$sp+0]
	.loc	10 503 36                       @ lvgl/src/lv_widgets/lv_cpicker.c:503:36
	add.w	r0, r1, r8
.Ltmp398:
	@DEBUG_VALUE: draw_disc_grad:i <- 0
	@DEBUG_VALUE: draw_disc_grad:cir_w_extra <- $r0
	.loc	10 0 36 is_stmt 0               @ lvgl/src/lv_widgets/lv_cpicker.c:0:36
	add	r1, sp, #36
	sxth	r0, r0
.Ltmp399:
	rsb	r6, r0, r9, asr #1
	adds	r0, r1, #4
	str	r0, [sp, #16]                   @ 4-byte Spill
.Ltmp400:
	.p2align	2
.LBB23_1:                               @ =>This Inner Loop Header: Depth=1
	@DEBUG_VALUE: draw_disc_grad:r <- $r11
	@DEBUG_VALUE: draw_disc_grad:cy <- $r5
	@DEBUG_VALUE: draw_disc_grad:cx <- $r4
	@DEBUG_VALUE: draw_disc_grad:cir_w <- [DW_OP_plus_uconst 8] [$sp+0]
	@DEBUG_VALUE: draw_disc_grad:cpicker <- [DW_OP_plus_uconst 20] [$sp+0]
	@DEBUG_VALUE: draw_disc_grad:mask <- [DW_OP_plus_uconst 24] [$sp+0]
	@DEBUG_VALUE: draw_disc_grad:i <- $r7
	.loc	10 506 26 is_stmt 1             @ lvgl/src/lv_widgets/lv_cpicker.c:506:26
	uxth.w	r9, r7
	ldr	r0, [sp, #20]                   @ 4-byte Reload
	mov	r1, r9
	bl	angle_to_mode_color
	.loc	10 509 28                       @ lvgl/src/lv_widgets/lv_cpicker.c:509:28
	sxth.w	r8, r7
	.loc	10 506 26                       @ lvgl/src/lv_widgets/lv_cpicker.c:506:26
	str	r0, [sp, #176]
	.loc	10 509 28                       @ lvgl/src/lv_widgets/lv_cpicker.c:509:28
	mov	r0, r8
	bl	_lv_trigo_sin
	.loc	10 509 26 is_stmt 0             @ lvgl/src/lv_widgets/lv_cpicker.c:509:26
	mul	r0, r0, r11
	.loc	10 509 18                       @ lvgl/src/lv_widgets/lv_cpicker.c:509:18
	add.w	r0, r4, r0, lsr #15
	.loc	10 509 16                       @ lvgl/src/lv_widgets/lv_cpicker.c:509:16
	strh.w	r0, [sp, #36]
	.loc	10 510 44 is_stmt 1             @ lvgl/src/lv_widgets/lv_cpicker.c:510:44
	add.w	r0, r7, #90
	.loc	10 510 28 is_stmt 0             @ lvgl/src/lv_widgets/lv_cpicker.c:510:28
	sxth.w	r10, r0
	mov	r0, r10
	bl	_lv_trigo_sin
	.loc	10 510 26                       @ lvgl/src/lv_widgets/lv_cpicker.c:510:26
	mul	r0, r0, r11
	.loc	10 510 18                       @ lvgl/src/lv_widgets/lv_cpicker.c:510:18
	add.w	r0, r5, r0, lsr #15
	.loc	10 510 16                       @ lvgl/src/lv_widgets/lv_cpicker.c:510:16
	strh.w	r0, [sp, #38]
	.loc	10 511 44 is_stmt 1             @ lvgl/src/lv_widgets/lv_cpicker.c:511:44
	mov	r0, r8
	bl	_lv_trigo_sin
	.loc	10 511 42 is_stmt 0             @ lvgl/src/lv_widgets/lv_cpicker.c:511:42
	muls	r0, r6, r0
	.loc	10 511 18                       @ lvgl/src/lv_widgets/lv_cpicker.c:511:18
	add.w	r0, r4, r0, lsr #15
	.loc	10 511 16                       @ lvgl/src/lv_widgets/lv_cpicker.c:511:16
	strh.w	r0, [sp, #40]
	.loc	10 512 44 is_stmt 1             @ lvgl/src/lv_widgets/lv_cpicker.c:512:44
	mov	r0, r10
	bl	_lv_trigo_sin
	.loc	10 512 42 is_stmt 0             @ lvgl/src/lv_widgets/lv_cpicker.c:512:42
	muls	r0, r6, r0
	.loc	10 514 9 is_stmt 1              @ lvgl/src/lv_widgets/lv_cpicker.c:514:9
	ldr	r1, [sp, #16]                   @ 4-byte Reload
	ldr	r2, [sp, #24]                   @ 4-byte Reload
	add	r3, sp, #176
	.loc	10 512 18                       @ lvgl/src/lv_widgets/lv_cpicker.c:512:18
	add.w	r0, r5, r0, lsr #15
	.loc	10 512 16 is_stmt 0             @ lvgl/src/lv_widgets/lv_cpicker.c:512:16
	strh.w	r0, [sp, #42]
	.loc	10 514 9 is_stmt 1              @ lvgl/src/lv_widgets/lv_cpicker.c:514:9
	add	r0, sp, #36
	bl	lv_draw_line
.Ltmp401:
	.loc	10 505 5                        @ lvgl/src/lv_widgets/lv_cpicker.c:505:5
	cmp.w	r9, #358
.Ltmp402:
	.loc	10 505 28 is_stmt 0             @ lvgl/src/lv_widgets/lv_cpicker.c:505:28
	add.w	r7, r7, #3
.Ltmp403:
	@DEBUG_VALUE: draw_disc_grad:i <- $r7
	.loc	10 505 5                        @ lvgl/src/lv_widgets/lv_cpicker.c:505:5
	blo	.LBB23_1
.Ltmp404:
@ %bb.2:
	@DEBUG_VALUE: draw_disc_grad:r <- $r11
	@DEBUG_VALUE: draw_disc_grad:i <- $r7
	@DEBUG_VALUE: draw_disc_grad:cy <- $r5
	@DEBUG_VALUE: draw_disc_grad:cx <- $r4
	@DEBUG_VALUE: draw_disc_grad:cir_w <- [DW_OP_plus_uconst 8] [$sp+0]
	@DEBUG_VALUE: draw_disc_grad:cpicker <- [DW_OP_plus_uconst 20] [$sp+0]
	@DEBUG_VALUE: draw_disc_grad:mask <- [DW_OP_plus_uconst 24] [$sp+0]
	.loc	10 517 5 is_stmt 1              @ lvgl/src/lv_widgets/lv_cpicker.c:517:5
	ldr	r0, [sp, #4]                    @ 4-byte Reload
	bl	lv_draw_mask_remove_id
	add	r6, sp, #36
	.loc	10 521 5                        @ lvgl/src/lv_widgets/lv_cpicker.c:521:5
	mov	r0, r6
	bl	lv_draw_rect_dsc_init
	ldr	r5, [sp, #20]                   @ 4-byte Reload
.Ltmp405:
	.loc	10 522 5                        @ lvgl/src/lv_widgets/lv_cpicker.c:522:5
	movs	r1, #0
	mov	r0, r5
	mov	r2, r6
	bl	lv_obj_init_draw_rect_dsc
	add.w	r8, sp, #28
	movw	r0, #32767
	.loc	10 523 19                       @ lvgl/src/lv_widgets/lv_cpicker.c:523:19
	strh.w	r0, [sp, #36]
	.loc	10 526 5                        @ lvgl/src/lv_widgets/lv_cpicker.c:526:5
	mov	r0, r8
	ldr	r1, [sp, #12]                   @ 4-byte Reload
	bl	lv_area_copy
	.loc	10 527 17                       @ lvgl/src/lv_widgets/lv_cpicker.c:527:17
	ldrh.w	r0, [sp, #28]
	ldr	r2, [sp, #8]                    @ 4-byte Reload
	.loc	10 528 17                       @ lvgl/src/lv_widgets/lv_cpicker.c:528:17
	ldrh.w	r1, [sp, #30]
	ldr	r4, [sp, #24]                   @ 4-byte Reload
.Ltmp406:
	.loc	10 527 17                       @ lvgl/src/lv_widgets/lv_cpicker.c:527:17
	add	r0, r2
	strh.w	r0, [sp, #28]
	.loc	10 528 17                       @ lvgl/src/lv_widgets/lv_cpicker.c:528:17
	adds	r0, r1, r2
	.loc	10 529 17                       @ lvgl/src/lv_widgets/lv_cpicker.c:529:17
	ldrh.w	r1, [sp, #32]
	.loc	10 528 17                       @ lvgl/src/lv_widgets/lv_cpicker.c:528:17
	strh.w	r0, [sp, #30]
	.loc	10 530 17                       @ lvgl/src/lv_widgets/lv_cpicker.c:530:17
	ldrh.w	r0, [sp, #34]
	.loc	10 529 17                       @ lvgl/src/lv_widgets/lv_cpicker.c:529:17
	subs	r1, r1, r2
	strh.w	r1, [sp, #32]
	.loc	10 530 17                       @ lvgl/src/lv_widgets/lv_cpicker.c:530:17
	subs	r0, r0, r2
	strh.w	r0, [sp, #34]
	.loc	10 532 5                        @ lvgl/src/lv_widgets/lv_cpicker.c:532:5
	mov	r0, r8
	mov	r1, r4
	mov	r2, r6
	bl	lv_draw_rect
	.loc	10 534 28                       @ lvgl/src/lv_widgets/lv_cpicker.c:534:28
	mov	r0, r5
	bl	lv_obj_get_style_pad_inner
	mov	r7, r0
.Ltmp407:
	@DEBUG_VALUE: draw_disc_grad:inner <- $r7
	.loc	10 535 24                       @ lvgl/src/lv_widgets/lv_cpicker.c:535:24
	mov	r0, r5
	bl	lv_cpicker_get_color
.Ltmp408:
	@DEBUG_VALUE: draw_disc_grad:color <- $r0
	.loc	10 537 17                       @ lvgl/src/lv_widgets/lv_cpicker.c:537:17
	ldrh.w	r1, [sp, #28]
	.loc	10 536 23                       @ lvgl/src/lv_widgets/lv_cpicker.c:536:23
	str	r0, [sp, #40]
	.loc	10 538 17                       @ lvgl/src/lv_widgets/lv_cpicker.c:538:17
	ldrh.w	r0, [sp, #30]
.Ltmp409:
	.loc	10 542 5                        @ lvgl/src/lv_widgets/lv_cpicker.c:542:5
	mov	r2, r6
	.loc	10 537 17                       @ lvgl/src/lv_widgets/lv_cpicker.c:537:17
	add	r1, r7
	strh.w	r1, [sp, #28]
	.loc	10 538 17                       @ lvgl/src/lv_widgets/lv_cpicker.c:538:17
	add	r0, r7
	.loc	10 539 17                       @ lvgl/src/lv_widgets/lv_cpicker.c:539:17
	ldrh.w	r1, [sp, #32]
	.loc	10 538 17                       @ lvgl/src/lv_widgets/lv_cpicker.c:538:17
	strh.w	r0, [sp, #30]
	.loc	10 540 17                       @ lvgl/src/lv_widgets/lv_cpicker.c:540:17
	ldrh.w	r0, [sp, #34]
	.loc	10 539 17                       @ lvgl/src/lv_widgets/lv_cpicker.c:539:17
	subs	r1, r1, r7
	strh.w	r1, [sp, #32]
	.loc	10 540 17                       @ lvgl/src/lv_widgets/lv_cpicker.c:540:17
	subs	r0, r0, r7
	strh.w	r0, [sp, #34]
	.loc	10 542 5                        @ lvgl/src/lv_widgets/lv_cpicker.c:542:5
	mov	r0, r8
	mov	r1, r4
	bl	lv_draw_rect
	.loc	10 543 1                        @ lvgl/src/lv_widgets/lv_cpicker.c:543:1
	add	sp, #188
	pop.w	{r4, r5, r6, r7, r8, r9, r10, r11, pc}
.Ltmp410:
.Lfunc_end23:
	.size	draw_disc_grad, .Lfunc_end23-draw_disc_grad
	.cfi_endproc
	.cantunwind
	.fnend
                                        @ -- End function
	.section	.text.draw_rect_grad,"ax",%progbits
	.p2align	3                               @ -- Begin function draw_rect_grad
	.type	draw_rect_grad,%function
	.code	16                              @ @draw_rect_grad
	.thumb_func
draw_rect_grad:
.Lfunc_begin24:
	.loc	10 546 0                        @ lvgl/src/lv_widgets/lv_cpicker.c:546:0
	.fnstart
	.cfi_startproc
@ %bb.0:
	@DEBUG_VALUE: draw_rect_grad:cpicker <- $r0
	@DEBUG_VALUE: draw_rect_grad:mask <- $r1
	.save	{r4, r5, r6, r7, r8, r9, r10, r11, lr}
	push.w	{r4, r5, r6, r7, r8, r9, r10, r11, lr}
	.cfi_def_cfa_offset 36
	.cfi_offset lr, -4
	.cfi_offset r11, -8
	.cfi_offset r10, -12
	.cfi_offset r9, -16
	.cfi_offset r8, -20
	.cfi_offset r7, -24
	.cfi_offset r6, -28
	.cfi_offset r5, -32
	.cfi_offset r4, -36
	.pad	#124
	sub	sp, #124
	.cfi_def_cfa_offset 160
	add	r4, sp, #20
	mov	r6, r0
.Ltmp411:
	@DEBUG_VALUE: draw_rect_grad:cpicker <- $r6
	@DEBUG_VALUE: draw_rect_grad:mask <- $r7
	@DEBUG_VALUE: draw_rect_grad:cpicker <- $r6
	.loc	10 548 5 prologue_end           @ lvgl/src/lv_widgets/lv_cpicker.c:548:5
	mov	r0, r4
	mov	r7, r1
.Ltmp412:
	bl	lv_draw_rect_dsc_init
	.loc	10 549 5                        @ lvgl/src/lv_widgets/lv_cpicker.c:549:5
	movs	r1, #0
	mov	r0, r6
	mov	r2, r4
	bl	lv_obj_init_draw_rect_dsc
	add	r1, sp, #12
	.loc	10 552 5                        @ lvgl/src/lv_widgets/lv_cpicker.c:552:5
	mov	r0, r6
	bl	lv_obj_get_coords
.Ltmp413:
	.loc	10 554 15                       @ lvgl/src/lv_widgets/lv_cpicker.c:554:15
	ldrh.w	r0, [sp, #20]
.Ltmp414:
	.loc	10 554 8 is_stmt 0              @ lvgl/src/lv_widgets/lv_cpicker.c:554:8
	cmp	r0, #0
	beq	.LBB24_2
.Ltmp415:
@ %bb.1:
	@DEBUG_VALUE: draw_rect_grad:cpicker <- $r6
	.loc	10 555 24 is_stmt 1             @ lvgl/src/lv_widgets/lv_cpicker.c:555:24
	mov	r0, r6
	bl	lv_obj_get_height
.Ltmp416:
	@DEBUG_VALUE: h <- $r0
	uxth	r1, r0
	.loc	10 556 31                       @ lvgl/src/lv_widgets/lv_cpicker.c:556:31
	ldrsh.w	r5, [sp, #20]
.Ltmp417:
	@DEBUG_VALUE: r <- $r5
	.loc	10 0 31 is_stmt 0               @ lvgl/src/lv_widgets/lv_cpicker.c:0:31
	add	r4, sp, #4
.Ltmp418:
	.loc	10 557 18 is_stmt 1             @ lvgl/src/lv_widgets/lv_cpicker.c:557:18
	add.w	r0, r0, r1, lsr #15
.Ltmp419:
	sxth	r0, r0
.Ltmp420:
	.loc	10 557 12 is_stmt 0             @ lvgl/src/lv_widgets/lv_cpicker.c:557:12
	cmp.w	r5, r0, asr #1
	it	gt
	asrgt	r5, r0, #1
.Ltmp421:
	@DEBUG_VALUE: r <- $r5
	.loc	10 559 22 is_stmt 1             @ lvgl/src/lv_widgets/lv_cpicker.c:559:22
	ldrh.w	r0, [sp, #12]
	.loc	10 560 22                       @ lvgl/src/lv_widgets/lv_cpicker.c:560:22
	ldrh.w	r1, [sp, #16]
	.loc	10 559 22                       @ lvgl/src/lv_widgets/lv_cpicker.c:559:22
	add	r0, r5
	strh.w	r0, [sp, #12]
	.loc	10 560 22                       @ lvgl/src/lv_widgets/lv_cpicker.c:560:22
	subs	r0, r1, r5
	strh.w	r0, [sp, #16]
	.loc	10 564 9                        @ lvgl/src/lv_widgets/lv_cpicker.c:564:9
	mov	r0, r6
	mov	r1, r4
	bl	lv_obj_get_coords
	.loc	10 565 50                       @ lvgl/src/lv_widgets/lv_cpicker.c:565:50
	ldrh.w	r0, [sp, #4]
	.loc	10 567 27                       @ lvgl/src/lv_widgets/lv_cpicker.c:567:27
	movs	r1, #0
	.loc	10 565 32                       @ lvgl/src/lv_widgets/lv_cpicker.c:565:32
	add.w	r0, r0, r5, lsl #1
	.loc	10 565 30 is_stmt 0             @ lvgl/src/lv_widgets/lv_cpicker.c:565:30
	strh.w	r0, [sp, #8]
	.loc	10 567 27 is_stmt 1             @ lvgl/src/lv_widgets/lv_cpicker.c:567:27
	mov	r0, r6
	bl	angle_to_mode_color
	add.w	r8, sp, #20
	str	r0, [sp, #24]
	.loc	10 569 9                        @ lvgl/src/lv_widgets/lv_cpicker.c:569:9
	mov	r0, r4
	mov	r1, r7
	mov	r2, r8
	bl	lv_draw_rect
	.loc	10 572 9                        @ lvgl/src/lv_widgets/lv_cpicker.c:572:9
	mov	r0, r6
	mov	r1, r4
	bl	lv_obj_get_coords
	.loc	10 573 50                       @ lvgl/src/lv_widgets/lv_cpicker.c:573:50
	ldrh.w	r0, [sp, #8]
	.loc	10 575 27                       @ lvgl/src/lv_widgets/lv_cpicker.c:575:27
	movw	r1, #359
	.loc	10 573 32                       @ lvgl/src/lv_widgets/lv_cpicker.c:573:32
	sub.w	r0, r0, r5, lsl #1
	.loc	10 573 30 is_stmt 0             @ lvgl/src/lv_widgets/lv_cpicker.c:573:30
	strh.w	r0, [sp, #4]
	.loc	10 575 27 is_stmt 1             @ lvgl/src/lv_widgets/lv_cpicker.c:575:27
	mov	r0, r6
	bl	angle_to_mode_color
	str	r0, [sp, #24]
	.loc	10 577 9                        @ lvgl/src/lv_widgets/lv_cpicker.c:577:9
	mov	r0, r4
	mov	r1, r7
	mov	r2, r8
	bl	lv_draw_rect
.Ltmp422:
.LBB24_2:
	@DEBUG_VALUE: draw_rect_grad:cpicker <- $r6
	.loc	10 0 9 is_stmt 0                @ lvgl/src/lv_widgets/lv_cpicker.c:0:9
	add	r0, sp, #12
	.loc	10 580 25 is_stmt 1             @ lvgl/src/lv_widgets/lv_cpicker.c:580:25
	bl	lv_area_get_width
.Ltmp423:
	@DEBUG_VALUE: draw_rect_grad:grad_w <- $r0
	.loc	10 581 8                        @ lvgl/src/lv_widgets/lv_cpicker.c:581:8
	cmp	r0, #1
	blt	.LBB24_5
.Ltmp424:
@ %bb.3:
	@DEBUG_VALUE: draw_rect_grad:cpicker <- $r6
	@DEBUG_VALUE: draw_rect_grad:grad_w <- $r0
	.loc	10 0 8 is_stmt 0                @ lvgl/src/lv_widgets/lv_cpicker.c:0:8
	mov	r10, r0
.Ltmp425:
	@DEBUG_VALUE: draw_rect_grad:grad_w <- $r10
	@DEBUG_VALUE: draw_rect_grad:grad_w <- $r10
	mov.w	r0, #360
	.loc	10 582 23 is_stmt 1             @ lvgl/src/lv_widgets/lv_cpicker.c:582:23
	sdiv	r0, r0, r10
	uxth	r1, r0
	cmp	r0, #3
	it	lt
	movlt	r1, #3
	mov.w	r9, #0
.Ltmp426:
	@DEBUG_VALUE: draw_rect_grad:i_step <- undef
	.loc	10 0 23 is_stmt 0               @ lvgl/src/lv_widgets/lv_cpicker.c:0:23
	mov.w	r8, #0
	sub.w	r11, r10, r1
	.loc	10 583 19 is_stmt 1             @ lvgl/src/lv_widgets/lv_cpicker.c:583:19
	strh.w	r9, [sp, #20]
	.loc	10 584 25                       @ lvgl/src/lv_widgets/lv_cpicker.c:584:25
	strh.w	r9, [sp, #44]
	.loc	10 585 25                       @ lvgl/src/lv_widgets/lv_cpicker.c:585:25
	strh.w	r9, [sp, #68]
.Ltmp427:
	@DEBUG_VALUE: draw_rect_grad:i <- 0
	.loc	10 0 25 is_stmt 0               @ lvgl/src/lv_widgets/lv_cpicker.c:0:25
	str	r1, [sp]                        @ 4-byte Spill
.Ltmp428:
	.p2align	2
.LBB24_4:                               @ =>This Inner Loop Header: Depth=1
	@DEBUG_VALUE: draw_rect_grad:grad_w <- $r10
	@DEBUG_VALUE: draw_rect_grad:cpicker <- $r6
	@DEBUG_VALUE: draw_rect_grad:i <- $r8
	.loc	10 589 27 is_stmt 1             @ lvgl/src/lv_widgets/lv_cpicker.c:589:27
	uxth.w	r1, r8
	mov	r0, r6
	bl	angle_to_mode_color
	.loc	10 595 28                       @ lvgl/src/lv_widgets/lv_cpicker.c:595:28
	mul	r1, r9, r10
	movw	r5, #24759
	movt	r5, #46603
	.loc	10 596 30                       @ lvgl/src/lv_widgets/lv_cpicker.c:596:30
	ldr	r2, [sp]                        @ 4-byte Reload
	.loc	10 595 38                       @ lvgl/src/lv_widgets/lv_cpicker.c:595:38
	smmla	r1, r5, r1, r1
	.loc	10 596 30                       @ lvgl/src/lv_widgets/lv_cpicker.c:596:30
	add.w	r8, r9, r2
.Ltmp429:
	.loc	10 596 40 is_stmt 0             @ lvgl/src/lv_widgets/lv_cpicker.c:596:40
	mul	r2, r8, r10
	mov	r4, r6
.Ltmp430:
	@DEBUG_VALUE: draw_rect_grad:cpicker <- $r4
	@DEBUG_VALUE: draw_rect_grad:cpicker <- $r4
	.loc	10 0 40                         @ lvgl/src/lv_widgets/lv_cpicker.c:0:40
	mov	r6, r7
	.loc	10 598 24 is_stmt 1             @ lvgl/src/lv_widgets/lv_cpicker.c:598:24
	ldrh.w	r7, [sp, #12]
	.loc	10 595 38                       @ lvgl/src/lv_widgets/lv_cpicker.c:595:38
	asrs	r3, r1, #8
	.loc	10 596 50                       @ lvgl/src/lv_widgets/lv_cpicker.c:596:50
	smmla	r2, r5, r2, r2
	.loc	10 595 38                       @ lvgl/src/lv_widgets/lv_cpicker.c:595:38
	add.w	r1, r3, r1, lsr #31
.Ltmp431:
	@DEBUG_VALUE: xi <- [DW_OP_LLVM_convert 32 7, DW_OP_LLVM_convert 16 7, DW_OP_stack_value] $r1
	.loc	10 598 24                       @ lvgl/src/lv_widgets/lv_cpicker.c:598:24
	add.w	r5, r11, r7
	sxth	r3, r1
	.loc	10 589 27                       @ lvgl/src/lv_widgets/lv_cpicker.c:589:27
	str	r0, [sp, #24]
	.loc	10 598 24                       @ lvgl/src/lv_widgets/lv_cpicker.c:598:24
	mov	r0, r5
	cmp	r3, r11
	it	lt
	addlt	r0, r1, r7
	.loc	10 596 50                       @ lvgl/src/lv_widgets/lv_cpicker.c:596:50
	asrs	r1, r2, #8
.Ltmp432:
	add.w	r1, r1, r2, lsr #31
.Ltmp433:
	@DEBUG_VALUE: xi2 <- [DW_OP_LLVM_convert 32 7, DW_OP_LLVM_convert 16 7, DW_OP_stack_value] $r1
	.loc	10 598 22                       @ lvgl/src/lv_widgets/lv_cpicker.c:598:22
	strh.w	r0, [sp, #4]
	.loc	10 600 24                       @ lvgl/src/lv_widgets/lv_cpicker.c:600:24
	sxth	r0, r1
	.loc	10 599 34                       @ lvgl/src/lv_widgets/lv_cpicker.c:599:34
	ldrh.w	r2, [sp, #14]
	.loc	10 600 24                       @ lvgl/src/lv_widgets/lv_cpicker.c:600:24
	cmp	r0, r11
	.loc	10 599 22                       @ lvgl/src/lv_widgets/lv_cpicker.c:599:22
	strh.w	r2, [sp, #6]
	.loc	10 600 24                       @ lvgl/src/lv_widgets/lv_cpicker.c:600:24
	it	lt
	addlt	r5, r1, r7
	mov	r7, r6
	.loc	10 601 34                       @ lvgl/src/lv_widgets/lv_cpicker.c:601:34
	ldrh.w	r0, [sp, #18]
	.loc	10 601 22 is_stmt 0             @ lvgl/src/lv_widgets/lv_cpicker.c:601:22
	strh.w	r0, [sp, #10]
	.loc	10 603 9 is_stmt 1              @ lvgl/src/lv_widgets/lv_cpicker.c:603:9
	add	r0, sp, #4
	mov	r1, r7
.Ltmp434:
	add	r2, sp, #20
	mov	r6, r4
.Ltmp435:
	@DEBUG_VALUE: draw_rect_grad:cpicker <- $r6
	@DEBUG_VALUE: draw_rect_grad:cpicker <- $r6
	.loc	10 600 22                       @ lvgl/src/lv_widgets/lv_cpicker.c:600:22
	strh.w	r5, [sp, #8]
	.loc	10 603 9                        @ lvgl/src/lv_widgets/lv_cpicker.c:603:9
	bl	lv_draw_rect
.Ltmp436:
	@DEBUG_VALUE: draw_rect_grad:i <- $r8
	.loc	10 588 27                       @ lvgl/src/lv_widgets/lv_cpicker.c:588:27
	uxth.w	r9, r8
.Ltmp437:
	.loc	10 588 5 is_stmt 0              @ lvgl/src/lv_widgets/lv_cpicker.c:588:5
	cmp.w	r9, #360
	blo	.LBB24_4
.Ltmp438:
.LBB24_5:
	@DEBUG_VALUE: draw_rect_grad:cpicker <- $r6
	.loc	10 605 1 is_stmt 1              @ lvgl/src/lv_widgets/lv_cpicker.c:605:1
	add	sp, #124
	pop.w	{r4, r5, r6, r7, r8, r9, r10, r11, pc}
.Ltmp439:
.Lfunc_end24:
	.size	draw_rect_grad, .Lfunc_end24-draw_rect_grad
	.cfi_endproc
	.cantunwind
	.fnend
                                        @ -- End function
	.section	.text.draw_knob,"ax",%progbits
	.p2align	3                               @ -- Begin function draw_knob
	.type	draw_knob,%function
	.code	16                              @ @draw_knob
	.thumb_func
draw_knob:
.Lfunc_begin25:
	.loc	10 608 0                        @ lvgl/src/lv_widgets/lv_cpicker.c:608:0
	.fnstart
	.cfi_startproc
@ %bb.0:
	@DEBUG_VALUE: draw_knob:cpicker <- $r0
	@DEBUG_VALUE: draw_knob:mask <- $r1
	.save	{r4, r5, r6, r7, lr}
	push	{r4, r5, r6, r7, lr}
	.cfi_def_cfa_offset 20
	.cfi_offset lr, -4
	.cfi_offset r7, -8
	.cfi_offset r6, -12
	.cfi_offset r5, -16
	.cfi_offset r4, -20
	.pad	#116
	sub	sp, #116
	.cfi_def_cfa_offset 136
	mov	r4, r1
.Ltmp440:
	@DEBUG_VALUE: draw_knob:mask <- $r4
	mov	r5, r0
	@DEBUG_VALUE: draw_knob:mask <- $r4
.Ltmp441:
	@DEBUG_VALUE: draw_knob:cpicker <- $r5
	.loc	10 609 30 prologue_end          @ lvgl/src/lv_widgets/lv_cpicker.c:609:30
	bl	lv_obj_get_ext_attr
	add	r7, sp, #12
	mov	r6, r0
.Ltmp442:
	@DEBUG_VALUE: draw_knob:ext <- $r6
	.loc	10 612 5                        @ lvgl/src/lv_widgets/lv_cpicker.c:612:5
	mov	r0, r7
	bl	lv_draw_rect_dsc_init
	.loc	10 613 5                        @ lvgl/src/lv_widgets/lv_cpicker.c:613:5
	movs	r1, #1
	mov	r0, r5
	mov	r2, r7
	bl	lv_obj_init_draw_rect_dsc
.Ltmp443:
	.loc	10 617 18                       @ lvgl/src/lv_widgets/lv_cpicker.c:617:18
	ldrb	r0, [r6, #16]
.Ltmp444:
	.loc	10 617 8 is_stmt 0              @ lvgl/src/lv_widgets/lv_cpicker.c:617:8
	lsls	r0, r0, #31
	movw	r0, #32767
	.loc	10 615 20 is_stmt 1             @ lvgl/src/lv_widgets/lv_cpicker.c:615:20
	strh.w	r0, [sp, #12]
	.loc	10 617 8                        @ lvgl/src/lv_widgets/lv_cpicker.c:617:8
	beq	.LBB25_2
.Ltmp445:
@ %bb.1:
	@DEBUG_VALUE: draw_knob:ext <- $r6
	@DEBUG_VALUE: draw_knob:cpicker <- $r5
	@DEBUG_VALUE: draw_knob:mask <- $r4
	.loc	10 618 28                       @ lvgl/src/lv_widgets/lv_cpicker.c:618:28
	mov	r0, r5
	bl	lv_cpicker_get_color
	str	r0, [sp, #16]
.Ltmp446:
.LBB25_2:
	@DEBUG_VALUE: draw_knob:ext <- $r6
	@DEBUG_VALUE: draw_knob:cpicker <- $r5
	@DEBUG_VALUE: draw_knob:mask <- $r4
	.loc	10 0 28 is_stmt 0               @ lvgl/src/lv_widgets/lv_cpicker.c:0:28
	add	r6, sp, #4
.Ltmp447:
	.loc	10 621 27 is_stmt 1             @ lvgl/src/lv_widgets/lv_cpicker.c:621:27
	mov	r1, r5
	mov	r0, r6
	bl	get_knob_area
	add	r2, sp, #12
	.loc	10 623 5                        @ lvgl/src/lv_widgets/lv_cpicker.c:623:5
	mov	r0, r6
	mov	r1, r4
	bl	lv_draw_rect
	.loc	10 624 1                        @ lvgl/src/lv_widgets/lv_cpicker.c:624:1
	add	sp, #116
	pop	{r4, r5, r6, r7, pc}
.Ltmp448:
.Lfunc_end25:
	.size	draw_knob, .Lfunc_end25-draw_knob
	.cfi_endproc
	.cantunwind
	.fnend
                                        @ -- End function
	.section	.text.lv_obj_get_style_scale_width,"ax",%progbits
	.p2align	3                               @ -- Begin function lv_obj_get_style_scale_width
	.type	lv_obj_get_style_scale_width,%function
	.code	16                              @ @lv_obj_get_style_scale_width
	.thumb_func
lv_obj_get_style_scale_width:
.Lfunc_begin26:
	.file	15 "E:\\Smart-access-control\\Hardware\\CODE" "lvgl/src/lv_widgets/../lv_core/lv_obj_style_dec.h"
	.loc	15 184 0                        @ lvgl/src/lv_widgets/../lv_core/lv_obj_style_dec.h:184:0
	.fnstart
	.cfi_startproc
@ %bb.0:
	@DEBUG_VALUE: lv_obj_get_style_scale_width:obj <- $r0
	@DEBUG_VALUE: lv_obj_get_style_scale_width:obj <- $r0
	@DEBUG_VALUE: lv_obj_get_style_scale_width:part <- 0
	.save	{r7, lr}
	push	{r7, lr}
	.cfi_def_cfa_offset 8
	.cfi_offset lr, -4
	.cfi_offset r7, -8
.Ltmp449:
	.loc	15 184 1 prologue_end           @ lvgl/src/lv_widgets/../lv_core/lv_obj_style_dec.h:184:1
	movs	r1, #0
	movs	r2, #192
	@DEBUG_VALUE: lv_obj_get_style_scale_width:obj <- $r0
	bl	_lv_obj_get_style_int
.Ltmp450:
	@DEBUG_VALUE: lv_obj_get_style_scale_width:obj <- [DW_OP_LLVM_entry_value 1] $r0
	pop	{r7, pc}
.Ltmp451:
.Lfunc_end26:
	.size	lv_obj_get_style_scale_width, .Lfunc_end26-lv_obj_get_style_scale_width
	.cfi_endproc
	.cantunwind
	.fnend
                                        @ -- End function
	.section	.text.lv_area_copy,"ax",%progbits
	.p2align	3                               @ -- Begin function lv_area_copy
	.type	lv_area_copy,%function
	.code	16                              @ @lv_area_copy
	.thumb_func
lv_area_copy:
.Lfunc_begin27:
	.loc	6 98 0                          @ lvgl/src/lv_widgets/../lv_core/../lv_hal/../lv_misc/lv_area.h:98:0
	.fnstart
	.cfi_startproc
@ %bb.0:
	@DEBUG_VALUE: lv_area_copy:dest <- $r0
	@DEBUG_VALUE: lv_area_copy:dest <- $r0
	@DEBUG_VALUE: lv_area_copy:src <- $r1
	@DEBUG_VALUE: lv_area_copy:src <- $r1
	@DEBUG_VALUE: lv_area_copy:src <- $r1
	@DEBUG_VALUE: lv_area_copy:dest <- $r0
	.save	{r7, lr}
	push	{r7, lr}
	.cfi_def_cfa_offset 8
	.cfi_offset lr, -4
	.cfi_offset r7, -8
.Ltmp452:
	.loc	6 99 5 prologue_end             @ lvgl/src/lv_widgets/../lv_core/../lv_hal/../lv_misc/lv_area.h:99:5
	bl	_lv_memcpy_small
.Ltmp453:
	@DEBUG_VALUE: lv_area_copy:src <- [DW_OP_LLVM_entry_value 1] $r1
	@DEBUG_VALUE: lv_area_copy:dest <- [DW_OP_LLVM_entry_value 1] $r0
	.loc	6 100 1                         @ lvgl/src/lv_widgets/../lv_core/../lv_hal/../lv_misc/lv_area.h:100:1
	pop	{r7, pc}
.Ltmp454:
.Lfunc_end27:
	.size	lv_area_copy, .Lfunc_end27-lv_area_copy
	.cfi_endproc
	.cantunwind
	.fnend
                                        @ -- End function
	.section	.text.angle_to_mode_color,"ax",%progbits
	.p2align	3                               @ -- Begin function angle_to_mode_color
	.type	angle_to_mode_color,%function
	.code	16                              @ @angle_to_mode_color
	.thumb_func
angle_to_mode_color:
.Lfunc_begin28:
	.loc	10 1000 0                       @ lvgl/src/lv_widgets/lv_cpicker.c:1000:0
	.fnstart
	.cfi_startproc
@ %bb.0:
	@DEBUG_VALUE: angle_to_mode_color:cpicker <- $r0
	@DEBUG_VALUE: angle_to_mode_color:angle <- $r1
	.save	{r4, lr}
	push	{r4, lr}
	.cfi_def_cfa_offset 8
	.cfi_offset lr, -4
	.cfi_offset r4, -8
	mov	r4, r1
.Ltmp455:
	@DEBUG_VALUE: angle_to_mode_color:angle <- $r4
	@DEBUG_VALUE: angle_to_mode_color:angle <- $r4
	@DEBUG_VALUE: angle_to_mode_color:cpicker <- $r0
	@DEBUG_VALUE: angle_to_mode_color:cpicker <- $r0
	.loc	10 1001 30 prologue_end         @ lvgl/src/lv_widgets/lv_cpicker.c:1001:30
	bl	lv_obj_get_ext_attr
.Ltmp456:
	@DEBUG_VALUE: angle_to_mode_color:cpicker <- [DW_OP_LLVM_entry_value 1] $r0
	@DEBUG_VALUE: angle_to_mode_color:ext <- $r0
	.loc	10 1003 17                      @ lvgl/src/lv_widgets/lv_cpicker.c:1003:17
	ldrb.w	r1, [r0, #32]
	.loc	10 1003 12 is_stmt 0            @ lvgl/src/lv_widgets/lv_cpicker.c:1003:12
	and	r1, r1, #3
	.loc	10 1003 5                       @ lvgl/src/lv_widgets/lv_cpicker.c:1003:5
	cmp	r1, #1
	beq	.LBB28_3
.Ltmp457:
@ %bb.1:
	@DEBUG_VALUE: angle_to_mode_color:angle <- $r4
	@DEBUG_VALUE: angle_to_mode_color:ext <- $r0
	@DEBUG_VALUE: angle_to_mode_color:cpicker <- [DW_OP_LLVM_entry_value 1] $r0
	cmp	r1, #2
	bne	.LBB28_4
.Ltmp458:
@ %bb.2:
	@DEBUG_VALUE: angle_to_mode_color:angle <- $r4
	@DEBUG_VALUE: angle_to_mode_color:ext <- $r0
	@DEBUG_VALUE: angle_to_mode_color:cpicker <- [DW_OP_LLVM_entry_value 1] $r0
	.loc	10 0 5                          @ lvgl/src/lv_widgets/lv_cpicker.c:0:5
	movw	r2, #27671
.Ltmp459:
	.loc	10 1012 73 is_stmt 1            @ lvgl/src/lv_widgets/lv_cpicker.c:1012:73
	lsrs	r1, r4, #3
	movt	r2, #5825
	umull	r1, r3, r1, r2
	lsrs	r1, r3, #2
	mov.w	r3, #360
	mls	r1, r1, r3, r4
	movs	r3, #100
	.loc	10 1012 80 is_stmt 0            @ lvgl/src/lv_widgets/lv_cpicker.c:1012:80
	muls	r1, r3, r1
	.loc	10 1012 50                      @ lvgl/src/lv_widgets/lv_cpicker.c:1012:50
	ldrh	r3, [r0]
	.loc	10 1012 87                      @ lvgl/src/lv_widgets/lv_cpicker.c:1012:87
	lsrs	r1, r1, #3
	umull	r1, r2, r1, r2
	.loc	10 1012 62                      @ lvgl/src/lv_widgets/lv_cpicker.c:1012:62
	ldrb	r1, [r0, #2]
	.loc	10 1012 87                      @ lvgl/src/lv_widgets/lv_cpicker.c:1012:87
	lsrs	r2, r2, #2
	.loc	10 1012 21                      @ lvgl/src/lv_widgets/lv_cpicker.c:1012:21
	b	.LBB28_5
.Ltmp460:
.LBB28_3:
	@DEBUG_VALUE: angle_to_mode_color:angle <- $r4
	@DEBUG_VALUE: angle_to_mode_color:ext <- $r0
	@DEBUG_VALUE: angle_to_mode_color:cpicker <- [DW_OP_LLVM_entry_value 1] $r0
	.loc	10 0 21                         @ lvgl/src/lv_widgets/lv_cpicker.c:0:21
	movw	r2, #27671
	.loc	10 1009 61 is_stmt 1            @ lvgl/src/lv_widgets/lv_cpicker.c:1009:61
	lsrs	r1, r4, #3
	movt	r2, #5825
	umull	r1, r3, r1, r2
	lsrs	r1, r3, #2
	mov.w	r3, #360
	mls	r1, r1, r3, r4
	movs	r3, #100
	.loc	10 1009 68 is_stmt 0            @ lvgl/src/lv_widgets/lv_cpicker.c:1009:68
	muls	r1, r3, r1
	.loc	10 1009 50                      @ lvgl/src/lv_widgets/lv_cpicker.c:1009:50
	ldrh	r3, [r0]
	.loc	10 1009 75                      @ lvgl/src/lv_widgets/lv_cpicker.c:1009:75
	lsrs	r1, r1, #3
	umull	r1, r4, r1, r2
.Ltmp461:
	@DEBUG_VALUE: angle_to_mode_color:angle <- [DW_OP_LLVM_entry_value 1] $r1
	.loc	10 1009 91                      @ lvgl/src/lv_widgets/lv_cpicker.c:1009:91
	ldrb	r2, [r0, #3]
	.loc	10 1009 75                      @ lvgl/src/lv_widgets/lv_cpicker.c:1009:75
	lsrs	r1, r4, #2
	.loc	10 1009 21                      @ lvgl/src/lv_widgets/lv_cpicker.c:1009:21
	b	.LBB28_5
.Ltmp462:
.LBB28_4:
	@DEBUG_VALUE: angle_to_mode_color:angle <- $r4
	@DEBUG_VALUE: angle_to_mode_color:ext <- $r0
	@DEBUG_VALUE: angle_to_mode_color:cpicker <- [DW_OP_LLVM_entry_value 1] $r0
	@DEBUG_VALUE: angle_to_mode_color:ext <- $r0
	.loc	10 0 21                         @ lvgl/src/lv_widgets/lv_cpicker.c:0:21
	movw	r2, #27671
	.loc	10 1006 47 is_stmt 1            @ lvgl/src/lv_widgets/lv_cpicker.c:1006:47
	lsrs	r1, r4, #3
	movt	r2, #5825
	umull	r1, r2, r1, r2
	lsrs	r1, r2, #2
	mov.w	r2, #360
	mls	r3, r1, r2, r4
	.loc	10 1006 63 is_stmt 0            @ lvgl/src/lv_widgets/lv_cpicker.c:1006:63
	ldrb	r1, [r0, #2]
	.loc	10 1006 75                      @ lvgl/src/lv_widgets/lv_cpicker.c:1006:75
	ldrb	r2, [r0, #3]
.Ltmp463:
.LBB28_5:
	@DEBUG_VALUE: angle_to_mode_color:ext <- $r0
	@DEBUG_VALUE: angle_to_mode_color:cpicker <- [DW_OP_LLVM_entry_value 1] $r0
	.loc	10 0 0                          @ lvgl/src/lv_widgets/lv_cpicker.c:0:0
	mov	r0, r3
.Ltmp464:
	bl	lv_color_hsv_to_rgb
.Ltmp465:
	@DEBUG_VALUE: angle_to_mode_color:color <- $r0
	@DEBUG_VALUE: angle_to_mode_color:color <- $r0
	.loc	10 1016 1 is_stmt 1             @ lvgl/src/lv_widgets/lv_cpicker.c:1016:1
	pop	{r4, pc}
.Ltmp466:
.Lfunc_end28:
	.size	angle_to_mode_color, .Lfunc_end28-angle_to_mode_color
	.cfi_endproc
	.cantunwind
	.fnend
                                        @ -- End function
	.section	.text.lv_obj_get_style_pad_inner,"ax",%progbits
	.p2align	3                               @ -- Begin function lv_obj_get_style_pad_inner
	.type	lv_obj_get_style_pad_inner,%function
	.code	16                              @ @lv_obj_get_style_pad_inner
	.thumb_func
lv_obj_get_style_pad_inner:
.Lfunc_begin29:
	.loc	15 104 0                        @ lvgl/src/lv_widgets/../lv_core/lv_obj_style_dec.h:104:0
	.fnstart
	.cfi_startproc
@ %bb.0:
	@DEBUG_VALUE: lv_obj_get_style_pad_inner:obj <- $r0
	@DEBUG_VALUE: lv_obj_get_style_pad_inner:obj <- $r0
	@DEBUG_VALUE: lv_obj_get_style_pad_inner:part <- 0
	.save	{r7, lr}
	push	{r7, lr}
	.cfi_def_cfa_offset 8
	.cfi_offset lr, -4
	.cfi_offset r7, -8
.Ltmp467:
	.loc	15 104 1 prologue_end           @ lvgl/src/lv_widgets/../lv_core/lv_obj_style_dec.h:104:1
	movs	r1, #0
	movs	r2, #20
	@DEBUG_VALUE: lv_obj_get_style_pad_inner:obj <- $r0
	bl	_lv_obj_get_style_int
.Ltmp468:
	@DEBUG_VALUE: lv_obj_get_style_pad_inner:obj <- [DW_OP_LLVM_entry_value 1] $r0
	pop	{r7, pc}
.Ltmp469:
.Lfunc_end29:
	.size	lv_obj_get_style_pad_inner, .Lfunc_end29-lv_obj_get_style_pad_inner
	.cfi_endproc
	.cantunwind
	.fnend
                                        @ -- End function
	.section	.text._lv_memcpy_small,"ax",%progbits
	.p2align	3                               @ -- Begin function _lv_memcpy_small
	.type	_lv_memcpy_small,%function
	.code	16                              @ @_lv_memcpy_small
	.thumb_func
_lv_memcpy_small:
.Lfunc_begin30:
	.file	16 "E:\\Smart-access-control\\Hardware\\CODE" "lvgl/src/lv_widgets/../lv_core/../lv_font/../lv_misc/lv_mem.h"
	.loc	16 214 0                        @ lvgl/src/lv_widgets/../lv_core/../lv_font/../lv_misc/lv_mem.h:214:0
	.fnstart
	.cfi_startproc
@ %bb.0:
	@DEBUG_VALUE: _lv_memcpy_small:dst <- $r0
	@DEBUG_VALUE: _lv_memcpy_small:dst <- $r0
	@DEBUG_VALUE: _lv_memcpy_small:src <- $r1
	@DEBUG_VALUE: _lv_memcpy_small:src <- $r1
	@DEBUG_VALUE: _lv_memcpy_small:len <- 8
	@DEBUG_VALUE: _lv_memcpy_small:d8 <- $r0
	@DEBUG_VALUE: _lv_memcpy_small:d8 <- $r0
	@DEBUG_VALUE: _lv_memcpy_small:s8 <- $r1
	@DEBUG_VALUE: _lv_memcpy_small:s8 <- $r1
	.loc	16 218 5 prologue_end           @ lvgl/src/lv_widgets/../lv_core/../lv_font/../lv_misc/lv_mem.h:218:5
	subs	r1, #1
.Ltmp470:
	@DEBUG_VALUE: _lv_memcpy_small:src <- [DW_OP_LLVM_entry_value 1] $r1
	.loc	16 0 5 is_stmt 0                @ lvgl/src/lv_widgets/../lv_core/../lv_font/../lv_misc/lv_mem.h:0:5
	mov.w	r2, #-1
.Ltmp471:
	.p2align	2
.LBB30_1:                               @ =>This Inner Loop Header: Depth=1
	@DEBUG_VALUE: _lv_memcpy_small:dst <- $r0
	@DEBUG_VALUE: _lv_memcpy_small:src <- [DW_OP_LLVM_entry_value 1] $r1
	@DEBUG_VALUE: _lv_memcpy_small:d8 <- undef
	@DEBUG_VALUE: _lv_memcpy_small:s8 <- [DW_OP_plus_uconst 1, DW_OP_stack_value] $r1
	@DEBUG_VALUE: _lv_memcpy_small:len <- undef
	.loc	16 219 15 is_stmt 1             @ lvgl/src/lv_widgets/../lv_core/../lv_font/../lv_misc/lv_mem.h:219:15
	add.w	r12, r0, r2
.Ltmp472:
	.loc	16 218 5                        @ lvgl/src/lv_widgets/../lv_core/../lv_font/../lv_misc/lv_mem.h:218:5
	adds	r2, #1
.Ltmp473:
	.loc	16 219 15                       @ lvgl/src/lv_widgets/../lv_core/../lv_font/../lv_misc/lv_mem.h:219:15
	ldrb	r3, [r1, #1]!
.Ltmp474:
	.loc	16 218 5                        @ lvgl/src/lv_widgets/../lv_core/../lv_font/../lv_misc/lv_mem.h:218:5
	cmp	r2, #7
.Ltmp475:
	.loc	16 219 13                       @ lvgl/src/lv_widgets/../lv_core/../lv_font/../lv_misc/lv_mem.h:219:13
	strb.w	r3, [r12, #1]
.Ltmp476:
	@DEBUG_VALUE: _lv_memcpy_small:len <- [DW_OP_constu 1, DW_OP_minus, DW_OP_stack_value] undef
	@DEBUG_VALUE: _lv_memcpy_small:s8 <- [DW_OP_plus_uconst 2, DW_OP_stack_value] $r1
	@DEBUG_VALUE: _lv_memcpy_small:d8 <- [DW_OP_plus_uconst 1, DW_OP_stack_value] undef
	.loc	16 218 5                        @ lvgl/src/lv_widgets/../lv_core/../lv_font/../lv_misc/lv_mem.h:218:5
	bne	.LBB30_1
.Ltmp477:
@ %bb.2:
	@DEBUG_VALUE: _lv_memcpy_small:s8 <- [DW_OP_plus_uconst 2, DW_OP_stack_value] $r1
	@DEBUG_VALUE: _lv_memcpy_small:dst <- $r0
	@DEBUG_VALUE: _lv_memcpy_small:src <- [DW_OP_LLVM_entry_value 1] $r1
	.loc	16 225 5                        @ lvgl/src/lv_widgets/../lv_core/../lv_font/../lv_misc/lv_mem.h:225:5
	bx	lr
.Ltmp478:
.Lfunc_end30:
	.size	_lv_memcpy_small, .Lfunc_end30-_lv_memcpy_small
	.cfi_endproc
	.cantunwind
	.fnend
                                        @ -- End function
	.section	.text.lv_area_get_width,"ax",%progbits
	.p2align	3                               @ -- Begin function lv_area_get_width
	.type	lv_area_get_width,%function
	.code	16                              @ @lv_area_get_width
	.thumb_func
lv_area_get_width:
.Lfunc_begin31:
	.loc	6 108 0                         @ lvgl/src/lv_widgets/../lv_core/../lv_hal/../lv_misc/lv_area.h:108:0
	.fnstart
	.cfi_startproc
@ %bb.0:
	@DEBUG_VALUE: lv_area_get_width:area_p <- $r0
	@DEBUG_VALUE: lv_area_get_width:area_p <- $r0
	.loc	6 109 33 prologue_end           @ lvgl/src/lv_widgets/../lv_core/../lv_hal/../lv_misc/lv_area.h:109:33
	ldrh	r1, [r0, #4]
	.loc	6 109 46 is_stmt 0              @ lvgl/src/lv_widgets/../lv_core/../lv_hal/../lv_misc/lv_area.h:109:46
	ldrh	r0, [r0]
.Ltmp479:
	@DEBUG_VALUE: lv_area_get_width:area_p <- [DW_OP_LLVM_entry_value 1] $r0
	.loc	6 109 49                        @ lvgl/src/lv_widgets/../lv_core/../lv_hal/../lv_misc/lv_area.h:109:49
	subs	r0, r1, r0
	adds	r0, #1
	.loc	6 109 5                         @ lvgl/src/lv_widgets/../lv_core/../lv_hal/../lv_misc/lv_area.h:109:5
	sxth	r0, r0
	bx	lr
.Ltmp480:
.Lfunc_end31:
	.size	lv_area_get_width, .Lfunc_end31-lv_area_get_width
	.cfi_endproc
	.cantunwind
	.fnend
                                        @ -- End function
	.section	.text.get_knob_area,"ax",%progbits
	.p2align	3                               @ -- Begin function get_knob_area
	.type	get_knob_area,%function
	.code	16                              @ @get_knob_area
	.thumb_func
get_knob_area:
.Lfunc_begin32:
	.loc	10 634 0 is_stmt 1              @ lvgl/src/lv_widgets/lv_cpicker.c:634:0
	.fnstart
	.cfi_startproc
@ %bb.0:
	@DEBUG_VALUE: get_knob_area:cpicker <- $r1
	.save	{r4, r5, r6, r7, r8, r9, r10, lr}
	push.w	{r4, r5, r6, r7, r8, r9, r10, lr}
	.cfi_def_cfa_offset 32
	.cfi_offset lr, -4
	.cfi_offset r10, -8
	.cfi_offset r9, -12
	.cfi_offset r8, -16
	.cfi_offset r7, -20
	.cfi_offset r6, -24
	.cfi_offset r5, -28
	.cfi_offset r4, -32
	mov	r4, r0
.Ltmp481:
	@DEBUG_VALUE: get_knob_area:knob_area <- [$r4+0]
	@DEBUG_VALUE: get_knob_area:cpicker <- $r5
	.loc	10 635 30 prologue_end          @ lvgl/src/lv_widgets/lv_cpicker.c:635:30
	mov	r0, r1
	mov	r5, r1
.Ltmp482:
	bl	lv_obj_get_ext_attr
	mov	r6, r0
.Ltmp483:
	@DEBUG_VALUE: get_knob_area:r <- 0
	@DEBUG_VALUE: get_knob_area:ext <- $r6
	.loc	10 639 13                       @ lvgl/src/lv_widgets/lv_cpicker.c:639:13
	ldrb.w	r0, [r0, #32]
.Ltmp484:
	.loc	10 639 8 is_stmt 0              @ lvgl/src/lv_widgets/lv_cpicker.c:639:8
	lsls	r0, r0, #28
	bmi	.LBB32_2
.Ltmp485:
@ %bb.1:
	@DEBUG_VALUE: get_knob_area:ext <- $r6
	@DEBUG_VALUE: get_knob_area:knob_area <- [$r4+0]
	@DEBUG_VALUE: get_knob_area:r <- 0
	.loc	10 643 24 is_stmt 1             @ lvgl/src/lv_widgets/lv_cpicker.c:643:24
	mov	r0, r5
	bl	lv_obj_get_height
.Ltmp486:
	@DEBUG_VALUE: h <- undef
	@DEBUG_VALUE: get_knob_area:r <- [DW_OP_constu 2, DW_OP_div, DW_OP_stack_value] undef
	.loc	10 0 24 is_stmt 0               @ lvgl/src/lv_widgets/lv_cpicker.c:0:24
	b	.LBB32_3
.Ltmp487:
.LBB32_2:
	@DEBUG_VALUE: get_knob_area:ext <- $r6
	@DEBUG_VALUE: get_knob_area:knob_area <- [$r4+0]
	@DEBUG_VALUE: get_knob_area:r <- 0
	.loc	10 640 13 is_stmt 1             @ lvgl/src/lv_widgets/lv_cpicker.c:640:13
	mov	r0, r5
	bl	lv_obj_get_style_scale_width
.Ltmp488:
	@DEBUG_VALUE: get_knob_area:r <- [DW_OP_constu 2, DW_OP_div, DW_OP_stack_value] undef
.LBB32_3:
	@DEBUG_VALUE: get_knob_area:ext <- $r6
	@DEBUG_VALUE: get_knob_area:knob_area <- [$r4+0]
	.loc	10 0 0 is_stmt 0                @ lvgl/src/lv_widgets/lv_cpicker.c:0:0
	uxth	r1, r0
	add.w	r0, r0, r1, lsr #15
	sxth	r7, r0
.Ltmp489:
	@DEBUG_VALUE: get_knob_area:r <- undef
	@DEBUG_VALUE: get_knob_area:ext <- $r6
	.loc	10 647 27 is_stmt 1             @ lvgl/src/lv_widgets/lv_cpicker.c:647:27
	mov	r0, r5
	bl	lv_obj_get_style_pad_left
	mov	r9, r0
.Ltmp490:
	@DEBUG_VALUE: get_knob_area:left <- $r9
	.loc	10 648 28                       @ lvgl/src/lv_widgets/lv_cpicker.c:648:28
	mov	r0, r5
	bl	lv_obj_get_style_pad_right
	mov	r8, r0
.Ltmp491:
	@DEBUG_VALUE: get_knob_area:right <- $r8
	.loc	10 649 26                       @ lvgl/src/lv_widgets/lv_cpicker.c:649:26
	mov	r0, r5
	bl	lv_obj_get_style_pad_top
	mov	r10, r0
.Ltmp492:
	@DEBUG_VALUE: get_knob_area:top <- $r10
	.loc	10 650 29                       @ lvgl/src/lv_widgets/lv_cpicker.c:650:29
	mov	r0, r5
	bl	lv_obj_get_style_pad_bottom
	.loc	10 653 36                       @ lvgl/src/lv_widgets/lv_cpicker.c:653:36
	ldrh	r1, [r5, #16]
	.loc	10 653 55 is_stmt 0             @ lvgl/src/lv_widgets/lv_cpicker.c:653:55
	ldrh	r2, [r6, #12]
.Ltmp493:
	@DEBUG_VALUE: get_knob_area:bottom <- $r0
	.loc	10 654 36 is_stmt 1             @ lvgl/src/lv_widgets/lv_cpicker.c:654:36
	ldrh	r3, [r5, #18]
	.loc	10 654 55 is_stmt 0             @ lvgl/src/lv_widgets/lv_cpicker.c:654:55
	ldrh	r6, [r6, #14]
.Ltmp494:
	.loc	10 653 39 is_stmt 1             @ lvgl/src/lv_widgets/lv_cpicker.c:653:39
	add	r1, r2
	.loc	10 653 57 is_stmt 0             @ lvgl/src/lv_widgets/lv_cpicker.c:653:57
	add.w	r2, r9, r7, asr #1
	.loc	10 653 61                       @ lvgl/src/lv_widgets/lv_cpicker.c:653:61
	subs	r2, r1, r2
	.loc	10 653 18                       @ lvgl/src/lv_widgets/lv_cpicker.c:653:18
	strh	r2, [r4]
	.loc	10 654 39 is_stmt 1             @ lvgl/src/lv_widgets/lv_cpicker.c:654:39
	adds	r2, r6, r3
	.loc	10 654 57 is_stmt 0             @ lvgl/src/lv_widgets/lv_cpicker.c:654:57
	add.w	r3, r8, r7, asr #1
	.loc	10 655 57 is_stmt 1             @ lvgl/src/lv_widgets/lv_cpicker.c:655:57
	add.w	r6, r10, r7, asr #1
	.loc	10 654 61                       @ lvgl/src/lv_widgets/lv_cpicker.c:654:61
	subs	r3, r2, r3
	.loc	10 656 57                       @ lvgl/src/lv_widgets/lv_cpicker.c:656:57
	add.w	r0, r0, r7, asr #1
.Ltmp495:
	.loc	10 654 18                       @ lvgl/src/lv_widgets/lv_cpicker.c:654:18
	strh	r3, [r4, #2]
	.loc	10 655 61                       @ lvgl/src/lv_widgets/lv_cpicker.c:655:61
	add	r1, r6
	.loc	10 655 18 is_stmt 0             @ lvgl/src/lv_widgets/lv_cpicker.c:655:18
	strh	r1, [r4, #4]
	.loc	10 656 61 is_stmt 1             @ lvgl/src/lv_widgets/lv_cpicker.c:656:61
	add	r0, r2
	.loc	10 656 18 is_stmt 0             @ lvgl/src/lv_widgets/lv_cpicker.c:656:18
	strh	r0, [r4, #6]
	.loc	10 659 1 is_stmt 1              @ lvgl/src/lv_widgets/lv_cpicker.c:659:1
	pop.w	{r4, r5, r6, r7, r8, r9, r10, pc}
.Ltmp496:
.Lfunc_end32:
	.size	get_knob_area, .Lfunc_end32-get_knob_area
	.cfi_endproc
	.cantunwind
	.fnend
                                        @ -- End function
	.section	.text.lv_obj_get_style_pad_left,"ax",%progbits
	.p2align	3                               @ -- Begin function lv_obj_get_style_pad_left
	.type	lv_obj_get_style_pad_left,%function
	.code	16                              @ @lv_obj_get_style_pad_left
	.thumb_func
lv_obj_get_style_pad_left:
.Lfunc_begin33:
	.loc	15 102 0                        @ lvgl/src/lv_widgets/../lv_core/lv_obj_style_dec.h:102:0
	.fnstart
	.cfi_startproc
@ %bb.0:
	@DEBUG_VALUE: lv_obj_get_style_pad_left:obj <- $r0
	@DEBUG_VALUE: lv_obj_get_style_pad_left:obj <- $r0
	@DEBUG_VALUE: lv_obj_get_style_pad_left:part <- 1
	.save	{r7, lr}
	push	{r7, lr}
	.cfi_def_cfa_offset 8
	.cfi_offset lr, -4
	.cfi_offset r7, -8
.Ltmp497:
	.loc	15 102 1 prologue_end           @ lvgl/src/lv_widgets/../lv_core/lv_obj_style_dec.h:102:1
	movs	r1, #1
	movs	r2, #18
	@DEBUG_VALUE: lv_obj_get_style_pad_left:obj <- $r0
	bl	_lv_obj_get_style_int
.Ltmp498:
	@DEBUG_VALUE: lv_obj_get_style_pad_left:obj <- [DW_OP_LLVM_entry_value 1] $r0
	pop	{r7, pc}
.Ltmp499:
.Lfunc_end33:
	.size	lv_obj_get_style_pad_left, .Lfunc_end33-lv_obj_get_style_pad_left
	.cfi_endproc
	.cantunwind
	.fnend
                                        @ -- End function
	.section	.text.lv_obj_get_style_pad_right,"ax",%progbits
	.p2align	3                               @ -- Begin function lv_obj_get_style_pad_right
	.type	lv_obj_get_style_pad_right,%function
	.code	16                              @ @lv_obj_get_style_pad_right
	.thumb_func
lv_obj_get_style_pad_right:
.Lfunc_begin34:
	.loc	15 103 0                        @ lvgl/src/lv_widgets/../lv_core/lv_obj_style_dec.h:103:0
	.fnstart
	.cfi_startproc
@ %bb.0:
	@DEBUG_VALUE: lv_obj_get_style_pad_right:obj <- $r0
	@DEBUG_VALUE: lv_obj_get_style_pad_right:obj <- $r0
	@DEBUG_VALUE: lv_obj_get_style_pad_right:part <- 1
	.save	{r7, lr}
	push	{r7, lr}
	.cfi_def_cfa_offset 8
	.cfi_offset lr, -4
	.cfi_offset r7, -8
.Ltmp500:
	.loc	15 103 1 prologue_end           @ lvgl/src/lv_widgets/../lv_core/lv_obj_style_dec.h:103:1
	movs	r1, #1
	movs	r2, #19
	@DEBUG_VALUE: lv_obj_get_style_pad_right:obj <- $r0
	bl	_lv_obj_get_style_int
.Ltmp501:
	@DEBUG_VALUE: lv_obj_get_style_pad_right:obj <- [DW_OP_LLVM_entry_value 1] $r0
	pop	{r7, pc}
.Ltmp502:
.Lfunc_end34:
	.size	lv_obj_get_style_pad_right, .Lfunc_end34-lv_obj_get_style_pad_right
	.cfi_endproc
	.cantunwind
	.fnend
                                        @ -- End function
	.section	.text.lv_obj_get_style_pad_top,"ax",%progbits
	.p2align	3                               @ -- Begin function lv_obj_get_style_pad_top
	.type	lv_obj_get_style_pad_top,%function
	.code	16                              @ @lv_obj_get_style_pad_top
	.thumb_func
lv_obj_get_style_pad_top:
.Lfunc_begin35:
	.loc	15 100 0                        @ lvgl/src/lv_widgets/../lv_core/lv_obj_style_dec.h:100:0
	.fnstart
	.cfi_startproc
@ %bb.0:
	@DEBUG_VALUE: lv_obj_get_style_pad_top:obj <- $r0
	@DEBUG_VALUE: lv_obj_get_style_pad_top:obj <- $r0
	@DEBUG_VALUE: lv_obj_get_style_pad_top:part <- 1
	.save	{r7, lr}
	push	{r7, lr}
	.cfi_def_cfa_offset 8
	.cfi_offset lr, -4
	.cfi_offset r7, -8
.Ltmp503:
	.loc	15 100 1 prologue_end           @ lvgl/src/lv_widgets/../lv_core/lv_obj_style_dec.h:100:1
	movs	r1, #1
	movs	r2, #16
	@DEBUG_VALUE: lv_obj_get_style_pad_top:obj <- $r0
	bl	_lv_obj_get_style_int
.Ltmp504:
	@DEBUG_VALUE: lv_obj_get_style_pad_top:obj <- [DW_OP_LLVM_entry_value 1] $r0
	pop	{r7, pc}
.Ltmp505:
.Lfunc_end35:
	.size	lv_obj_get_style_pad_top, .Lfunc_end35-lv_obj_get_style_pad_top
	.cfi_endproc
	.cantunwind
	.fnend
                                        @ -- End function
	.section	.text.lv_obj_get_style_pad_bottom,"ax",%progbits
	.p2align	3                               @ -- Begin function lv_obj_get_style_pad_bottom
	.type	lv_obj_get_style_pad_bottom,%function
	.code	16                              @ @lv_obj_get_style_pad_bottom
	.thumb_func
lv_obj_get_style_pad_bottom:
.Lfunc_begin36:
	.loc	15 101 0                        @ lvgl/src/lv_widgets/../lv_core/lv_obj_style_dec.h:101:0
	.fnstart
	.cfi_startproc
@ %bb.0:
	@DEBUG_VALUE: lv_obj_get_style_pad_bottom:obj <- $r0
	@DEBUG_VALUE: lv_obj_get_style_pad_bottom:obj <- $r0
	@DEBUG_VALUE: lv_obj_get_style_pad_bottom:part <- 1
	.save	{r7, lr}
	push	{r7, lr}
	.cfi_def_cfa_offset 8
	.cfi_offset lr, -4
	.cfi_offset r7, -8
.Ltmp506:
	.loc	15 101 1 prologue_end           @ lvgl/src/lv_widgets/../lv_core/lv_obj_style_dec.h:101:1
	movs	r1, #1
	movs	r2, #17
	@DEBUG_VALUE: lv_obj_get_style_pad_bottom:obj <- $r0
	bl	_lv_obj_get_style_int
.Ltmp507:
	@DEBUG_VALUE: lv_obj_get_style_pad_bottom:obj <- [DW_OP_LLVM_entry_value 1] $r0
	pop	{r7, pc}
.Ltmp508:
.Lfunc_end36:
	.size	lv_obj_get_style_pad_bottom, .Lfunc_end36-lv_obj_get_style_pad_bottom
	.cfi_endproc
	.cantunwind
	.fnend
                                        @ -- End function
	.section	.text.lv_cpicker_get_style,"ax",%progbits
	.p2align	3                               @ -- Begin function lv_cpicker_get_style
	.type	lv_cpicker_get_style,%function
	.code	16                              @ @lv_cpicker_get_style
	.thumb_func
lv_cpicker_get_style:
.Lfunc_begin37:
	.loc	10 885 0                        @ lvgl/src/lv_widgets/lv_cpicker.c:885:0
	.fnstart
	.cfi_startproc
@ %bb.0:
	@DEBUG_VALUE: lv_cpicker_get_style:cpicker <- $r0
	@DEBUG_VALUE: lv_cpicker_get_style:part <- $r1
	.save	{r4, r5, r7, lr}
	push	{r4, r5, r7, lr}
	.cfi_def_cfa_offset 16
	.cfi_offset lr, -4
	.cfi_offset r7, -8
	.cfi_offset r5, -12
	.cfi_offset r4, -16
	mov	r5, r1
.Ltmp509:
	@DEBUG_VALUE: lv_cpicker_get_style:part <- $r5
	mov	r4, r0
	@DEBUG_VALUE: lv_cpicker_get_style:part <- $r5
.Ltmp510:
	@DEBUG_VALUE: lv_cpicker_get_style:cpicker <- $r4
	.loc	10 886 5 prologue_end           @ lvgl/src/lv_widgets/lv_cpicker.c:886:5
	bl	lv_debug_check_null
.Ltmp511:
	.loc	10 886 5 is_stmt 0              @ lvgl/src/lv_widgets/lv_cpicker.c:886:5
	cbz	r0, .LBB37_3
.Ltmp512:
@ %bb.1:
	@DEBUG_VALUE: lv_cpicker_get_style:part <- $r5
	@DEBUG_VALUE: lv_cpicker_get_style:cpicker <- $r4
	@DEBUG_VALUE: lv_cpicker_get_style:part <- $r5
	.loc	10 888 30 is_stmt 1             @ lvgl/src/lv_widgets/lv_cpicker.c:888:30
	mov	r0, r4
	bl	lv_obj_get_ext_attr
	.loc	10 891 5                        @ lvgl/src/lv_widgets/lv_cpicker.c:891:5
	cmp	r5, #1
.Ltmp513:
	@DEBUG_VALUE: lv_cpicker_get_style:ext <- $r0
	beq	.LBB37_5
.Ltmp514:
@ %bb.2:
	@DEBUG_VALUE: lv_cpicker_get_style:part <- $r5
	@DEBUG_VALUE: lv_cpicker_get_style:cpicker <- $r4
	@DEBUG_VALUE: lv_cpicker_get_style:ext <- $r0
	@DEBUG_VALUE: lv_cpicker_get_style:part <- $r5
	cmp	r5, #0
	ite	ne
	movne	r0, #0
.Ltmp515:
	@DEBUG_VALUE: lv_cpicker_get_style:style_dsc_p <- $r0
	.loc	10 893 37                       @ lvgl/src/lv_widgets/lv_cpicker.c:893:37
	addeq.w	r0, r4, #40
.Ltmp516:
	@DEBUG_VALUE: lv_cpicker_get_style:style_dsc_p <- $r0
	@DEBUG_VALUE: lv_cpicker_get_style:style_dsc_p <- $r0
	.loc	10 902 5                        @ lvgl/src/lv_widgets/lv_cpicker.c:902:5
	pop	{r4, r5, r7, pc}
.Ltmp517:
.LBB37_3:
	@DEBUG_VALUE: lv_cpicker_get_style:part <- $r5
	@DEBUG_VALUE: lv_cpicker_get_style:cpicker <- $r4
	.loc	10 886 5                        @ lvgl/src/lv_widgets/lv_cpicker.c:886:5
	movw	r0, :lower16:.L.str.1
	movs	r3, #0
	movt	r0, :upper16:.L.str.1
	mov	r2, r4
	bl	lv_debug_log_error
.Ltmp518:
	.p2align	2
.LBB37_4:                               @ =>This Inner Loop Header: Depth=1
	@DEBUG_VALUE: lv_cpicker_get_style:part <- $r5
	@DEBUG_VALUE: lv_cpicker_get_style:cpicker <- $r4
	b	.LBB37_4
.Ltmp519:
.LBB37_5:
	@DEBUG_VALUE: lv_cpicker_get_style:part <- $r5
	@DEBUG_VALUE: lv_cpicker_get_style:cpicker <- $r4
	@DEBUG_VALUE: lv_cpicker_get_style:ext <- $r0
	@DEBUG_VALUE: lv_cpicker_get_style:ext <- $r0
	.loc	10 896 33                       @ lvgl/src/lv_widgets/lv_cpicker.c:896:33
	adds	r0, #4
.Ltmp520:
	@DEBUG_VALUE: lv_cpicker_get_style:style_dsc_p <- undef
	@DEBUG_VALUE: lv_cpicker_get_style:style_dsc_p <- $r0
	.loc	10 902 5                        @ lvgl/src/lv_widgets/lv_cpicker.c:902:5
	pop	{r4, r5, r7, pc}
.Ltmp521:
.Lfunc_end37:
	.size	lv_cpicker_get_style, .Lfunc_end37-lv_cpicker_get_style
	.cfi_endproc
	.cantunwind
	.fnend
                                        @ -- End function
	.section	.text.lv_area_get_height,"ax",%progbits
	.p2align	3                               @ -- Begin function lv_area_get_height
	.type	lv_area_get_height,%function
	.code	16                              @ @lv_area_get_height
	.thumb_func
lv_area_get_height:
.Lfunc_begin38:
	.loc	6 118 0                         @ lvgl/src/lv_widgets/../lv_core/../lv_hal/../lv_misc/lv_area.h:118:0
	.fnstart
	.cfi_startproc
@ %bb.0:
	@DEBUG_VALUE: lv_area_get_height:area_p <- $r0
	@DEBUG_VALUE: lv_area_get_height:area_p <- $r0
	.loc	6 119 33 prologue_end           @ lvgl/src/lv_widgets/../lv_core/../lv_hal/../lv_misc/lv_area.h:119:33
	ldrh	r1, [r0, #6]
	.loc	6 119 46 is_stmt 0              @ lvgl/src/lv_widgets/../lv_core/../lv_hal/../lv_misc/lv_area.h:119:46
	ldrh	r0, [r0, #2]
.Ltmp522:
	@DEBUG_VALUE: lv_area_get_height:area_p <- [DW_OP_LLVM_entry_value 1] $r0
	.loc	6 119 49                        @ lvgl/src/lv_widgets/../lv_core/../lv_hal/../lv_misc/lv_area.h:119:49
	subs	r0, r1, r0
	adds	r0, #1
	.loc	6 119 5                         @ lvgl/src/lv_widgets/../lv_core/../lv_hal/../lv_misc/lv_area.h:119:5
	sxth	r0, r0
	bx	lr
.Ltmp523:
.Lfunc_end38:
	.size	lv_area_get_height, .Lfunc_end38-lv_area_get_height
	.cfi_endproc
	.cantunwind
	.fnend
                                        @ -- End function
	.section	.text.double_click_reset,"ax",%progbits
	.p2align	3                               @ -- Begin function double_click_reset
	.type	double_click_reset,%function
	.code	16                              @ @double_click_reset
	.thumb_func
double_click_reset:
.Lfunc_begin39:
	.loc	10 967 0 is_stmt 1              @ lvgl/src/lv_widgets/lv_cpicker.c:967:0
	.fnstart
	.cfi_startproc
@ %bb.0:
	@DEBUG_VALUE: double_click_reset:cpicker <- $r0
	.save	{r4, r5, r6, r7, r8, r9, lr}
	push.w	{r4, r5, r6, r7, r8, r9, lr}
	.cfi_def_cfa_offset 28
	.cfi_offset lr, -4
	.cfi_offset r9, -8
	.cfi_offset r8, -12
	.cfi_offset r7, -16
	.cfi_offset r6, -20
	.cfi_offset r5, -24
	.cfi_offset r4, -28
	.pad	#4
	sub	sp, #4
	.cfi_def_cfa_offset 32
	mov	r5, r0
.Ltmp524:
	@DEBUG_VALUE: double_click_reset:cpicker <- $r5
	.loc	10 968 30 prologue_end          @ lvgl/src/lv_widgets/lv_cpicker.c:968:30
	bl	lv_obj_get_ext_attr
	mov	r4, r0
.Ltmp525:
	@DEBUG_VALUE: double_click_reset:ext <- $r4
	.loc	10 969 26                       @ lvgl/src/lv_widgets/lv_cpicker.c:969:26
	bl	lv_indev_get_act
	mov	r6, r0
.Ltmp526:
	@DEBUG_VALUE: double_click_reset:indev <- $r6
	.loc	10 971 27                       @ lvgl/src/lv_widgets/lv_cpicker.c:971:27
	ldr	r0, [r4, #20]
	.loc	10 971 8 is_stmt 0              @ lvgl/src/lv_widgets/lv_cpicker.c:971:8
	bl	lv_tick_elaps
	.loc	10 971 60                       @ lvgl/src/lv_widgets/lv_cpicker.c:971:60
	ldrh	r1, [r6, #24]
.Ltmp527:
	.loc	10 971 8                        @ lvgl/src/lv_widgets/lv_cpicker.c:971:8
	cmp	r0, r1
	bhs	.LBB39_10
.Ltmp528:
@ %bb.1:
	@DEBUG_VALUE: double_click_reset:indev <- $r6
	@DEBUG_VALUE: double_click_reset:cpicker <- $r5
	@DEBUG_VALUE: double_click_reset:ext <- $r4
	@DEBUG_VALUE: double_click_reset:ext <- $r4
	.loc	10 975 21 is_stmt 1             @ lvgl/src/lv_widgets/lv_cpicker.c:975:21
	ldrb.w	r0, [r4, #32]
	.loc	10 973 24                       @ lvgl/src/lv_widgets/lv_cpicker.c:973:24
	ldrh.w	r8, [r4]
.Ltmp529:
	@DEBUG_VALUE: hsv_cur <- [DW_OP_LLVM_fragment 0 16] undef
	.loc	10 975 16                       @ lvgl/src/lv_widgets/lv_cpicker.c:975:16
	and	r0, r0, #3
	.loc	10 973 24                       @ lvgl/src/lv_widgets/lv_cpicker.c:973:24
	ldrb	r7, [r4, #2]
.Ltmp530:
	@DEBUG_VALUE: hsv_cur <- [DW_OP_LLVM_fragment 24 8] undef
	@DEBUG_VALUE: hsv_cur <- [DW_OP_LLVM_fragment 16 8] undef
	.loc	10 975 9                        @ lvgl/src/lv_widgets/lv_cpicker.c:975:9
	cmp	r0, #2
	beq	.LBB39_5
.Ltmp531:
@ %bb.2:
	@DEBUG_VALUE: double_click_reset:indev <- $r6
	@DEBUG_VALUE: double_click_reset:cpicker <- $r5
	@DEBUG_VALUE: double_click_reset:ext <- $r4
	.loc	10 0 0 is_stmt 0                @ lvgl/src/lv_widgets/lv_cpicker.c:0:0
	ldrb.w	r9, [r4, #3]
	.loc	10 975 9                        @ lvgl/src/lv_widgets/lv_cpicker.c:975:9
	cmp	r0, #1
	beq	.LBB39_6
.Ltmp532:
@ %bb.3:
	@DEBUG_VALUE: double_click_reset:indev <- $r6
	@DEBUG_VALUE: double_click_reset:cpicker <- $r5
	@DEBUG_VALUE: double_click_reset:ext <- $r4
	cbnz	r0, .LBB39_7
.Ltmp533:
@ %bb.4:
	@DEBUG_VALUE: double_click_reset:indev <- $r6
	@DEBUG_VALUE: double_click_reset:cpicker <- $r5
	@DEBUG_VALUE: double_click_reset:ext <- $r4
	.loc	10 0 9                          @ lvgl/src/lv_widgets/lv_cpicker.c:0:9
	mov.w	r8, #0
.Ltmp534:
	@DEBUG_VALUE: hsv_cur <- [DW_OP_LLVM_fragment 0 16] 0
	b	.LBB39_7
.Ltmp535:
.LBB39_5:
	@DEBUG_VALUE: double_click_reset:indev <- $r6
	@DEBUG_VALUE: double_click_reset:cpicker <- $r5
	@DEBUG_VALUE: double_click_reset:ext <- $r4
	mov.w	r9, #100
.Ltmp536:
	@DEBUG_VALUE: hsv_cur <- [DW_OP_LLVM_fragment 24 8] 100
	b	.LBB39_7
.Ltmp537:
.LBB39_6:
	@DEBUG_VALUE: double_click_reset:indev <- $r6
	@DEBUG_VALUE: double_click_reset:cpicker <- $r5
	@DEBUG_VALUE: double_click_reset:ext <- $r4
	movs	r7, #100
.Ltmp538:
	@DEBUG_VALUE: hsv_cur <- [DW_OP_LLVM_fragment 16 8] 100
.LBB39_7:
	@DEBUG_VALUE: double_click_reset:indev <- $r6
	@DEBUG_VALUE: double_click_reset:cpicker <- $r5
	@DEBUG_VALUE: double_click_reset:ext <- $r4
	@DEBUG_VALUE: hsv_cur <- [DW_OP_LLVM_fragment 0 16] $r8
	@DEBUG_VALUE: hsv_cur <- [DW_OP_LLVM_fragment 16 8] $r7
	@DEBUG_VALUE: hsv_cur <- [DW_OP_LLVM_fragment 24 8] $r9
	.loc	10 987 9 is_stmt 1              @ lvgl/src/lv_widgets/lv_cpicker.c:987:9
	mov	r0, r6
	bl	lv_indev_wait_release
.Ltmp539:
	.loc	10 989 12                       @ lvgl/src/lv_widgets/lv_cpicker.c:989:12
	lsls	r0, r7, #16
	orr.w	r0, r0, r9, lsl #24
	add.w	r1, r0, r8
	mov	r0, r5
	bl	lv_cpicker_set_hsv
.Ltmp540:
	.loc	10 989 12 is_stmt 0             @ lvgl/src/lv_widgets/lv_cpicker.c:989:12
	cmp	r0, #0
                                        @ implicit-def: $r0
	beq	.LBB39_9
.Ltmp541:
@ %bb.8:
	@DEBUG_VALUE: hsv_cur <- [DW_OP_LLVM_fragment 24 8] $r9
	@DEBUG_VALUE: hsv_cur <- [DW_OP_LLVM_fragment 0 16] $r8
	@DEBUG_VALUE: hsv_cur <- [DW_OP_LLVM_fragment 16 8] $r7
	@DEBUG_VALUE: double_click_reset:indev <- $r6
	@DEBUG_VALUE: double_click_reset:cpicker <- $r5
	@DEBUG_VALUE: double_click_reset:ext <- $r4
	.loc	10 990 28 is_stmt 1             @ lvgl/src/lv_widgets/lv_cpicker.c:990:28
	movs	r1, #16
	movs	r2, #0
	mov	r0, r5
	movs	r6, #0
.Ltmp542:
	bl	lv_event_send
.Ltmp543:
	@DEBUG_VALUE: res <- $r0
	.loc	10 0 28 is_stmt 0               @ lvgl/src/lv_widgets/lv_cpicker.c:0:28
	cmp	r0, #1
	it	eq
	moveq	r6, #1
	cbz	r6, .LBB39_11
	b	.LBB39_10
.Ltmp544:
.LBB39_9:
	@DEBUG_VALUE: hsv_cur <- [DW_OP_LLVM_fragment 24 8] $r9
	@DEBUG_VALUE: hsv_cur <- [DW_OP_LLVM_fragment 0 16] $r8
	@DEBUG_VALUE: hsv_cur <- [DW_OP_LLVM_fragment 16 8] $r7
	@DEBUG_VALUE: double_click_reset:indev <- $r6
	@DEBUG_VALUE: double_click_reset:cpicker <- $r5
	@DEBUG_VALUE: double_click_reset:ext <- $r4
	movs	r6, #1
.Ltmp545:
	cbz	r6, .LBB39_11
.Ltmp546:
.LBB39_10:
	@DEBUG_VALUE: double_click_reset:cpicker <- $r5
	@DEBUG_VALUE: double_click_reset:ext <- $r4
	.loc	10 994 28 is_stmt 1             @ lvgl/src/lv_widgets/lv_cpicker.c:994:28
	bl	lv_tick_get
	.loc	10 994 26 is_stmt 0             @ lvgl/src/lv_widgets/lv_cpicker.c:994:26
	str	r0, [r4, #20]
	movs	r0, #1
.Ltmp547:
.LBB39_11:
	@DEBUG_VALUE: double_click_reset:cpicker <- $r5
	@DEBUG_VALUE: double_click_reset:ext <- $r4
	.loc	10 997 1 is_stmt 1              @ lvgl/src/lv_widgets/lv_cpicker.c:997:1
	uxtb	r0, r0
	add	sp, #4
	pop.w	{r4, r5, r6, r7, r8, r9, pc}
.Ltmp548:
.Lfunc_end39:
	.size	double_click_reset, .Lfunc_end39-double_click_reset
	.cfi_endproc
	.cantunwind
	.fnend
                                        @ -- End function
	.section	.text.next_color_mode,"ax",%progbits
	.p2align	3                               @ -- Begin function next_color_mode
	.type	next_color_mode,%function
	.code	16                              @ @next_color_mode
	.thumb_func
next_color_mode:
.Lfunc_begin40:
	.loc	10 921 0                        @ lvgl/src/lv_widgets/lv_cpicker.c:921:0
	.fnstart
	.cfi_startproc
@ %bb.0:
	@DEBUG_VALUE: next_color_mode:cpicker <- $r0
	.save	{r4, r5, r7, lr}
	push	{r4, r5, r7, lr}
	.cfi_def_cfa_offset 16
	.cfi_offset lr, -4
	.cfi_offset r7, -8
	.cfi_offset r5, -12
	.cfi_offset r4, -16
	mov	r5, r0
.Ltmp549:
	@DEBUG_VALUE: next_color_mode:cpicker <- $r5
	.loc	10 922 30 prologue_end          @ lvgl/src/lv_widgets/lv_cpicker.c:922:30
	bl	lv_obj_get_ext_attr
.Ltmp550:
	@DEBUG_VALUE: next_color_mode:ext <- $r0
	.loc	10 923 29                       @ lvgl/src/lv_widgets/lv_cpicker.c:923:29
	ldrb.w	r1, [r0, #32]
	movw	r3, #43691
	movt	r3, #43690
	and	r2, r1, #3
	.loc	10 923 21 is_stmt 0             @ lvgl/src/lv_widgets/lv_cpicker.c:923:21
	and	r1, r1, #252
	.loc	10 923 40                       @ lvgl/src/lv_widgets/lv_cpicker.c:923:40
	adds	r2, #1
	.loc	10 923 45                       @ lvgl/src/lv_widgets/lv_cpicker.c:923:45
	umull	r3, r4, r2, r3
	lsrs	r3, r4, #1
	add.w	r3, r3, r3, lsl #1
	subs	r2, r2, r3
	.loc	10 923 21                       @ lvgl/src/lv_widgets/lv_cpicker.c:923:21
	orrs	r1, r2
	strb.w	r1, [r0, #32]
	.loc	10 924 5 is_stmt 1              @ lvgl/src/lv_widgets/lv_cpicker.c:924:5
	mov	r0, r5
.Ltmp551:
	bl	refr_knob_pos
	.loc	10 925 5                        @ lvgl/src/lv_widgets/lv_cpicker.c:925:5
	mov	r0, r5
	bl	lv_obj_invalidate
	.loc	10 926 1                        @ lvgl/src/lv_widgets/lv_cpicker.c:926:1
	pop	{r4, r5, r7, pc}
.Ltmp552:
.Lfunc_end40:
	.size	next_color_mode, .Lfunc_end40-next_color_mode
	.cfi_endproc
	.cantunwind
	.fnend
                                        @ -- End function
	.section	.text.lv_cpicker_hit,"ax",%progbits
	.p2align	3                               @ -- Begin function lv_cpicker_hit
	.type	lv_cpicker_hit,%function
	.code	16                              @ @lv_cpicker_hit
	.thumb_func
lv_cpicker_hit:
.Lfunc_begin41:
	.loc	10 906 0                        @ lvgl/src/lv_widgets/lv_cpicker.c:906:0
	.fnstart
	.cfi_startproc
@ %bb.0:
	@DEBUG_VALUE: lv_cpicker_hit:cpicker <- $r0
	@DEBUG_VALUE: lv_cpicker_hit:p <- $r1
	.save	{r4, r5, r6, lr}
	push	{r4, r5, r6, lr}
	.cfi_def_cfa_offset 16
	.cfi_offset lr, -4
	.cfi_offset r6, -8
	.cfi_offset r5, -12
	.cfi_offset r4, -16
	mov	r4, r1
	mov	r5, r0
.Ltmp553:
	@DEBUG_VALUE: lv_cpicker_hit:p <- $r4
	@DEBUG_VALUE: lv_cpicker_hit:cpicker <- $r5
	.loc	10 907 31 prologue_end          @ lvgl/src/lv_widgets/lv_cpicker.c:907:31
	bl	lv_obj_is_point_on_coords
	mov	r6, r0
.Ltmp554:
	@DEBUG_VALUE: lv_cpicker_hit:is_point_on_coords <- [DW_OP_LLVM_convert 1 7, DW_OP_LLVM_convert 8 7, DW_OP_stack_value] undef
	.loc	10 908 8                        @ lvgl/src/lv_widgets/lv_cpicker.c:908:8
	cbz	r0, .LBB41_2
.Ltmp555:
@ %bb.1:
	@DEBUG_VALUE: lv_cpicker_hit:cpicker <- $r5
	@DEBUG_VALUE: lv_cpicker_hit:p <- $r4
	.loc	10 911 50                       @ lvgl/src/lv_widgets/lv_cpicker.c:911:50
	mov	r0, r5
	bl	lv_obj_get_ext_attr
.Ltmp556:
	@DEBUG_VALUE: lv_cpicker_hit:ext <- $r0
	.loc	10 912 13                       @ lvgl/src/lv_widgets/lv_cpicker.c:912:13
	ldrb.w	r0, [r0, #32]
.Ltmp557:
	.loc	10 912 8 is_stmt 0              @ lvgl/src/lv_widgets/lv_cpicker.c:912:8
	lsls	r0, r0, #28
	bmi	.LBB41_3
.Ltmp558:
.LBB41_2:
	@DEBUG_VALUE: lv_cpicker_hit:cpicker <- $r5
	@DEBUG_VALUE: lv_cpicker_hit:p <- $r4
	.loc	10 918 1 is_stmt 1              @ lvgl/src/lv_widgets/lv_cpicker.c:918:1
	mov	r0, r6
	pop	{r4, r5, r6, pc}
.Ltmp559:
.LBB41_3:
	@DEBUG_VALUE: lv_cpicker_hit:cpicker <- $r5
	@DEBUG_VALUE: lv_cpicker_hit:p <- $r4
	.loc	10 916 39                       @ lvgl/src/lv_widgets/lv_cpicker.c:916:39
	add.w	r0, r5, #16
	.loc	10 916 8 is_stmt 0              @ lvgl/src/lv_widgets/lv_cpicker.c:916:8
	movw	r2, #32767
	mov	r1, r4
	bl	_lv_area_is_point_on
.Ltmp560:
	.loc	10 916 8                        @ lvgl/src/lv_widgets/lv_cpicker.c:916:8
	pop	{r4, r5, r6, pc}
.Ltmp561:
.Lfunc_end41:
	.size	lv_cpicker_hit, .Lfunc_end41-lv_cpicker_hit
	.cfi_endproc
	.cantunwind
	.fnend
                                        @ -- End function
	.section	.text.get_angle,"ax",%progbits
	.p2align	3                               @ -- Begin function get_angle
	.type	get_angle,%function
	.code	16                              @ @get_angle
	.thumb_func
get_angle:
.Lfunc_begin42:
	.loc	10 1019 0 is_stmt 1             @ lvgl/src/lv_widgets/lv_cpicker.c:1019:0
	.fnstart
	.cfi_startproc
@ %bb.0:
	@DEBUG_VALUE: get_angle:cpicker <- $r0
	@DEBUG_VALUE: get_angle:cpicker <- $r0
	@DEBUG_VALUE: get_angle:cpicker <- $r0
	.save	{r7, lr}
	push	{r7, lr}
	.cfi_def_cfa_offset 8
	.cfi_offset lr, -4
	.cfi_offset r7, -8
.Ltmp562:
	.loc	10 1020 30 prologue_end         @ lvgl/src/lv_widgets/lv_cpicker.c:1020:30
	bl	lv_obj_get_ext_attr
.Ltmp563:
	@DEBUG_VALUE: get_angle:cpicker <- [DW_OP_LLVM_entry_value 1] $r0
	@DEBUG_VALUE: get_angle:ext <- $r0
	.loc	10 1022 17                      @ lvgl/src/lv_widgets/lv_cpicker.c:1022:17
	ldrb.w	r1, [r0, #32]
	.loc	10 1022 12 is_stmt 0            @ lvgl/src/lv_widgets/lv_cpicker.c:1022:12
	and	r1, r1, #3
	.loc	10 1022 5                       @ lvgl/src/lv_widgets/lv_cpicker.c:1022:5
	cmp	r1, #1
	beq	.LBB42_3
.Ltmp564:
@ %bb.1:
	@DEBUG_VALUE: get_angle:ext <- $r0
	@DEBUG_VALUE: get_angle:cpicker <- [DW_OP_LLVM_entry_value 1] $r0
	cmp	r1, #2
	bne	.LBB42_5
.Ltmp565:
@ %bb.2:
	@DEBUG_VALUE: get_angle:ext <- $r0
	@DEBUG_VALUE: get_angle:cpicker <- [DW_OP_LLVM_entry_value 1] $r0
	.loc	10 1031 31 is_stmt 1            @ lvgl/src/lv_widgets/lv_cpicker.c:1031:31
	ldrb	r0, [r0, #3]
.Ltmp566:
	.loc	10 0 31 is_stmt 0               @ lvgl/src/lv_widgets/lv_cpicker.c:0:31
	b	.LBB42_4
.Ltmp567:
.LBB42_3:
	@DEBUG_VALUE: get_angle:ext <- $r0
	@DEBUG_VALUE: get_angle:cpicker <- [DW_OP_LLVM_entry_value 1] $r0
	.loc	10 1028 31 is_stmt 1            @ lvgl/src/lv_widgets/lv_cpicker.c:1028:31
	ldrb	r0, [r0, #2]
.Ltmp568:
.LBB42_4:
	@DEBUG_VALUE: get_angle:cpicker <- [DW_OP_LLVM_entry_value 1] $r0
	.loc	10 0 31 is_stmt 0               @ lvgl/src/lv_widgets/lv_cpicker.c:0:31
	mov.w	r1, #360
	muls	r0, r1, r0
	movw	r1, #34079
	movt	r1, #20971
	umull	r0, r1, r0, r1
	lsrs	r0, r1, #5
.Ltmp569:
	@DEBUG_VALUE: get_angle:angle <- undef
	@DEBUG_VALUE: get_angle:angle <- $r0
	.loc	10 1034 5 is_stmt 1             @ lvgl/src/lv_widgets/lv_cpicker.c:1034:5
	uxth	r0, r0
.Ltmp570:
	pop	{r7, pc}
.Ltmp571:
.LBB42_5:
	@DEBUG_VALUE: get_angle:ext <- $r0
	@DEBUG_VALUE: get_angle:cpicker <- [DW_OP_LLVM_entry_value 1] $r0
	@DEBUG_VALUE: get_angle:ext <- $r0
	.loc	10 1025 30                      @ lvgl/src/lv_widgets/lv_cpicker.c:1025:30
	ldrh	r0, [r0]
.Ltmp572:
	@DEBUG_VALUE: get_angle:angle <- undef
	@DEBUG_VALUE: get_angle:angle <- $r0
	.loc	10 1034 5                       @ lvgl/src/lv_widgets/lv_cpicker.c:1034:5
	uxth	r0, r0
.Ltmp573:
	pop	{r7, pc}
.Ltmp574:
.Lfunc_end42:
	.size	get_angle, .Lfunc_end42-get_angle
	.cfi_endproc
	.cantunwind
	.fnend
                                        @ -- End function
	.type	.L.str,%object                  @ @.str
	.section	.rodata.str1.1,"aMS",%progbits,1
.L.str:
	.asciz	"Out of memory"
	.size	.L.str, 14

	.type	ancestor_signal,%object         @ @ancestor_signal
	.section	.bss.ancestor_signal,"aw",%nobits
	.p2align	2
ancestor_signal:
	.long	0
	.size	ancestor_signal, 4

	.type	ancestor_design,%object         @ @ancestor_design
	.section	.bss.ancestor_design,"aw",%nobits
	.p2align	2
ancestor_design:
	.long	0
	.size	ancestor_design, 4

	.type	.L.str.1,%object                @ @.str.1
	.section	.rodata.str1.1,"aMS",%progbits,1
.L.str.1:
	.asciz	"NULL pointer"
	.size	.L.str.1, 13

	.file	17 "E:\\Smart-access-control\\Hardware\\CODE" "lvgl/src/lv_widgets/../lv_core/../lv_hal/lv_hal_disp.h"
	.file	18 "E:\\Smart-access-control\\Hardware\\CODE" "lvgl/src/lv_widgets/../lv_core/../lv_hal/../lv_misc/lv_task.h"
	.file	19 "E:\\Smart-access-control\\Hardware\\CODE" "lvgl/src/lv_widgets/../lv_core/../lv_draw/lv_draw_line.h"
	.file	20 "E:\\Smart-access-control\\Hardware\\CODE" "lvgl/src/lv_widgets/../lv_core/../lv_draw/lv_draw_blend.h"
	.file	21 "E:\\Smart-access-control\\Hardware\\CODE" "lvgl/src/lv_widgets/../lv_core/../lv_draw/lv_draw_mask.h"
	.file	22 "E:\\Smart-access-control\\Hardware\\CODE" "lvgl/src/lv_widgets/../lv_misc/lv_math.h"
	.file	23 "E:\\Smart-access-control\\Hardware\\CODE" "lvgl/src/lv_widgets/../lv_core/../lv_draw/lv_draw_rect.h"
	.file	24 "E:\\Smart-access-control\\Hardware\\CODE" "lvgl/src/lv_widgets/../lv_core/../lv_font/../lv_misc/../lv_font/lv_font.h"
	.file	25 "D:\\Keil_v5\\ARM\\ARMCLANG\\Bin\\..\\include" "stddef.h"
	.section	".note.GNU-stack","",%progbits
	.eabi_attribute	30, 1	@ Tag_ABI_optimization_goals
	.ARM_attribute	16, 1	@ Tag_AV_eba