	.text
	.syntax unified
	.eabi_attribute	67, "2.09"	@ Tag_conformance
	.cpu	cortex-m7
	.eabi_attribute	6, 13	@ Tag_CPU_arch
	.eabi_attribute	7, 77	@ Tag_CPU_arch_profile
	.eabi_attribute	8, 0	@ Tag_ARM_ISA_use
	.eabi_attribute	9, 2	@ Tag_THUMB_ISA_use
	.fpu	fpv5-d16
	.eabi_attribute	36, 1	@ Tag_FP_HP_extension
	.eabi_attribute	34, 1	@ Tag_CPU_unaligned_access
	.eabi_attribute	17, 1	@ Tag_ABI_PCS_GOT_use
	.eabi_attribute	20, 2	@ Tag_ABI_FP_denormal
	.eabi_attribute	21, 0	@ Tag_ABI_FP_exceptions
	.eabi_attribute	23, 1	@ Tag_ABI_FP_number_model
	.eabi_attribute	24, 1	@ Tag_ABI_align_needed
	.eabi_attribute	25, 1	@ Tag_ABI_align_preserved
	.eabi_attribute	28, 1	@ Tag_ABI_VFP_args
	.eabi_attribute	38, 1	@ Tag_ABI_FP_16bit_format
	.eabi_attribute	18, 2	@ Tag_ABI_PCS_wchar_t
	.eabi_attribute	26, 1	@ Tag_ABI_enum_size
	.eabi_attribute	14, 0	@ Tag_ABI_PCS_R9_use
	.file	"lv_canvas.c"
	.file	1 "D:\\Keil_v5\\ARM\\ARMCLANG\\Bin\\..\\include" "stdint.h"
	.file	2 "E:\\Smart-access-control\\Hardware\\CODE" "lvgl/src/lv_widgets/../lv_core/../lv_draw/../lv_misc/lv_types.h"
	.file	3 "E:\\Smart-access-control\\Hardware\\CODE" "lvgl/src/lv_widgets/../lv_themes/../lv_core/lv_obj.h"
	.file	4 "E:\\Smart-access-control\\Hardware\\CODE" "lvgl/src/lv_widgets/../lv_core/../lv_font/../lv_misc/lv_ll.h"
	.file	5 "E:\\Smart-access-control\\Hardware\\CODE" "./lvgl/src/lv_conf.h"
	.file	6 "E:\\Smart-access-control\\Hardware\\CODE" "lvgl/src/lv_widgets/../lv_core/../lv_hal/../lv_misc/lv_area.h"
	.file	7 "E:\\Smart-access-control\\Hardware\\CODE" "lvgl/src/lv_widgets/../lv_themes/../lv_core/lv_style.h"
	.file	8 "E:\\Smart-access-control\\Hardware\\CODE" "lvgl/src/lv_widgets/../lv_core/../lv_hal/lv_hal_indev.h"
	.file	9 "E:\\Smart-access-control\\Hardware\\CODE" "lvgl/src/lv_widgets/../lv_core/../lv_draw/../lv_misc/lv_bidi.h"
	.file	10 "E:\\Smart-access-control\\Hardware\\CODE" "lvgl/src/lv_widgets/lv_canvas.c"
	.file	11 "E:\\Smart-access-control\\Hardware\\CODE" "lvgl/src/lv_widgets/../lv_core/../lv_hal/../lv_misc/lv_color.h"
	.file	12 "E:\\Smart-access-control\\Hardware\\CODE" "lvgl/src/lv_widgets/../lv_core/../lv_draw/lv_img_buf.h"
	.file	13 "E:\\Smart-access-control\\Hardware\\CODE" "lvgl/src/lv_widgets/../lv_themes/lv_theme.h"
	.file	14 "E:\\Smart-access-control\\Hardware\\CODE" "lvgl/src/lv_widgets/lv_canvas.h"
	.file	15 "E:\\Smart-access-control\\Hardware\\CODE" "lvgl/src/lv_widgets/../lv_misc/lv_txt.h"
	.section	.text.lv_canvas_create,"ax",%progbits
	.hidden	lv_canvas_create                @ -- Begin function lv_canvas_create
	.globl	lv_canvas_create
	.p2align	3
	.type	lv_canvas_create,%function
	.code	16                              @ @lv_canvas_create
	.thumb_func
lv_canvas_create:
.Lfunc_begin0:
	.loc	10 73 0                         @ lvgl/src/lv_widgets/lv_canvas.c:73:0
	.fnstart
	.cfi_sections .debug_frame
	.cfi_startproc
@ %bb.0:
	.save	{r7, lr}
	push	{r7, lr}
	.cfi_def_cfa_offset 8
	.cfi_offset lr, -4
	.cfi_offset r7, -8
	.pad	#24
	sub	sp, #24
	.cfi_def_cfa_offset 32
	str	r0, [sp, #16]
	str	r1, [sp, #12]
.Ltmp0:
	.loc	10 77 43 prologue_end           @ lvgl/src/lv_widgets/lv_canvas.c:77:43
	ldr	r0, [sp, #16]
	.loc	10 77 48 is_stmt 0              @ lvgl/src/lv_widgets/lv_canvas.c:77:48
	ldr	r1, [sp, #12]
	.loc	10 77 29                        @ lvgl/src/lv_widgets/lv_canvas.c:77:29
	bl	lv_img_create
	.loc	10 77 16                        @ lvgl/src/lv_widgets/lv_canvas.c:77:16
	str	r0, [sp, #8]
	.loc	10 78 5 is_stmt 1               @ lvgl/src/lv_widgets/lv_canvas.c:78:5
	b	.LBB0_1
.LBB0_1:
.Ltmp1:
	.loc	10 78 5 is_stmt 0               @ lvgl/src/lv_widgets/lv_canvas.c:78:5
	ldr	r0, [sp, #8]
	bl	lv_debug_check_null
.Ltmp2:
	.loc	10 78 5                         @ lvgl/src/lv_widgets/lv_canvas.c:78:5
	cbnz	r0, .LBB0_4
	b	.LBB0_2
.LBB0_2:
.Ltmp3:
	.loc	10 78 5                         @ lvgl/src/lv_widgets/lv_canvas.c:78:5
	ldr	r2, [sp, #8]
	movw	r0, :lower16:.L.str
	movt	r0, :upper16:.L.str
	movs	r3, #0
	bl	lv_debug_log_error
	b	.LBB0_3
.LBB0_3:                                @ =>This Inner Loop Header: Depth=1
	b	.LBB0_3
.Ltmp4:
.LBB0_4:
	.loc	10 78 5                         @ lvgl/src/lv_widgets/lv_canvas.c:78:5
	b	.LBB0_5
.Ltmp5:
.LBB0_5:
	.loc	10 79 8 is_stmt 1               @ lvgl/src/lv_widgets/lv_canvas.c:79:8
	ldr	r0, [sp, #8]
.Ltmp6:
	.loc	10 79 8 is_stmt 0               @ lvgl/src/lv_widgets/lv_canvas.c:79:8
	cbnz	r0, .LBB0_7
	b	.LBB0_6
.LBB0_6:
	.loc	10 0 8                          @ lvgl/src/lv_widgets/lv_canvas.c:0:8
	movs	r0, #0
.Ltmp7:
	.loc	10 79 28                        @ lvgl/src/lv_widgets/lv_canvas.c:79:28
	str	r0, [sp, #20]
	b	.LBB0_22
.Ltmp8:
.LBB0_7:
	.loc	10 82 54 is_stmt 1              @ lvgl/src/lv_widgets/lv_canvas.c:82:54
	ldr	r0, [sp, #8]
	movs	r1, #36
	.loc	10 82 29 is_stmt 0              @ lvgl/src/lv_widgets/lv_canvas.c:82:29
	bl	lv_obj_allocate_ext_attr
	.loc	10 82 23                        @ lvgl/src/lv_widgets/lv_canvas.c:82:23
	str	r0, [sp, #4]
	.loc	10 83 5 is_stmt 1               @ lvgl/src/lv_widgets/lv_canvas.c:83:5
	b	.LBB0_8
.LBB0_8:
.Ltmp9:
	.loc	10 83 5 is_stmt 0               @ lvgl/src/lv_widgets/lv_canvas.c:83:5
	ldr	r0, [sp, #4]
	bl	lv_debug_check_null
.Ltmp10:
	.loc	10 83 5                         @ lvgl/src/lv_widgets/lv_canvas.c:83:5
	cbnz	r0, .LBB0_11
	b	.LBB0_9
.LBB0_9:
.Ltmp11:
	.loc	10 83 5                         @ lvgl/src/lv_widgets/lv_canvas.c:83:5
	ldr	r2, [sp, #4]
	movw	r0, :lower16:.L.str
	movt	r0, :upper16:.L.str
	movs	r3, #0
	bl	lv_debug_log_error
	b	.LBB0_10
.LBB0_10:                               @ =>This Inner Loop Header: Depth=1
	b	.LBB0_10
.Ltmp12:
.LBB0_11:
	.loc	10 83 5                         @ lvgl/src/lv_widgets/lv_canvas.c:83:5
	b	.LBB0_12
.Ltmp13:
.LBB0_12:
	.loc	10 84 8 is_stmt 1               @ lvgl/src/lv_widgets/lv_canvas.c:84:8
	ldr	r0, [sp, #4]
.Ltmp14:
	.loc	10 84 8 is_stmt 0               @ lvgl/src/lv_widgets/lv_canvas.c:84:8
	cbnz	r0, .LBB0_14
	b	.LBB0_13
.LBB0_13:
.Ltmp15:
	.loc	10 85 20 is_stmt 1              @ lvgl/src/lv_widgets/lv_canvas.c:85:20
	ldr	r0, [sp, #8]
	.loc	10 85 9 is_stmt 0               @ lvgl/src/lv_widgets/lv_canvas.c:85:9
	bl	lv_obj_del
	movs	r0, #0
	.loc	10 86 9 is_stmt 1               @ lvgl/src/lv_widgets/lv_canvas.c:86:9
	str	r0, [sp, #20]
	b	.LBB0_22
.Ltmp16:
.LBB0_14:
	.loc	10 89 8                         @ lvgl/src/lv_widgets/lv_canvas.c:89:8
	movw	r0, :lower16:ancestor_signal
	movt	r0, :upper16:ancestor_signal
	ldr	r0, [r0]
.Ltmp17:
	.loc	10 89 8 is_stmt 0               @ lvgl/src/lv_widgets/lv_canvas.c:89:8
	cbnz	r0, .LBB0_16
	b	.LBB0_15
.LBB0_15:
.Ltmp18:
	.loc	10 89 72                        @ lvgl/src/lv_widgets/lv_canvas.c:89:72
	ldr	r0, [sp, #8]
	.loc	10 89 51                        @ lvgl/src/lv_widgets/lv_canvas.c:89:51
	bl	lv_obj_get_signal_cb
	.loc	10 89 49                        @ lvgl/src/lv_widgets/lv_canvas.c:89:49
	movw	r1, :lower16:ancestor_signal
	movt	r1, :upper16:ancestor_signal
	str	r0, [r1]
	.loc	10 89 33                        @ lvgl/src/lv_widgets/lv_canvas.c:89:33
	b	.LBB0_16
.Ltmp19:
.LBB0_16:
	.loc	10 90 8 is_stmt 1               @ lvgl/src/lv_widgets/lv_canvas.c:90:8
	movw	r0, :lower16:ancestor_design
	movt	r0, :upper16:ancestor_design
	ldr	r0, [r0]
.Ltmp20:
	.loc	10 90 8 is_stmt 0               @ lvgl/src/lv_widgets/lv_canvas.c:90:8
	cbnz	r0, .LBB0_18
	b	.LBB0_17
.LBB0_17:
.Ltmp21:
	.loc	10 90 72                        @ lvgl/src/lv_widgets/lv_canvas.c:90:72
	ldr	r0, [sp, #8]
	.loc	10 90 51                        @ lvgl/src/lv_widgets/lv_canvas.c:90:51
	bl	lv_obj_get_design_cb
	.loc	10 90 49                        @ lvgl/src/lv_widgets/lv_canvas.c:90:49
	movw	r1, :lower16:ancestor_design
	movt	r1, :upper16:ancestor_design
	str	r0, [r1]
	.loc	10 90 33                        @ lvgl/src/lv_widgets/lv_canvas.c:90:33
	b	.LBB0_18
.Ltmp22:
.LBB0_18:
	.loc	10 93 5 is_stmt 1               @ lvgl/src/lv_widgets/lv_canvas.c:93:5
	ldr	r1, [sp, #4]
	.loc	10 93 33 is_stmt 0              @ lvgl/src/lv_widgets/lv_canvas.c:93:33
	ldrb	r0, [r1, #24]
	and	r0, r0, #31
	strb	r0, [r1, #24]
	.loc	10 94 5 is_stmt 1               @ lvgl/src/lv_widgets/lv_canvas.c:94:5
	ldr	r1, [sp, #4]
	.loc	10 94 33 is_stmt 0              @ lvgl/src/lv_widgets/lv_canvas.c:94:33
	ldrb	r0, [r1, #24]
	and	r0, r0, #224
	adds	r0, #4
	strb	r0, [r1, #24]
	.loc	10 95 5 is_stmt 1               @ lvgl/src/lv_widgets/lv_canvas.c:95:5
	ldr	r2, [sp, #4]
	.loc	10 95 33 is_stmt 0              @ lvgl/src/lv_widgets/lv_canvas.c:95:33
	ldrh	r1, [r2, #25]!
	bfc	r1, #13, #19
	movs	r0, #0
	strb	r0, [r2, #2]
	strh	r1, [r2]
	.loc	10 96 5 is_stmt 1               @ lvgl/src/lv_widgets/lv_canvas.c:96:5
	ldr	r2, [sp, #4]
	.loc	10 96 33 is_stmt 0              @ lvgl/src/lv_widgets/lv_canvas.c:96:33
	ldrh	r1, [r2, #25]!
	ldrb	r3, [r2, #2]
	movw	r12, #57347
	and.w	r1, r1, r12
	strb	r3, [r2, #2]
	strh	r1, [r2]
	.loc	10 97 5 is_stmt 1               @ lvgl/src/lv_widgets/lv_canvas.c:97:5
	ldr	r1, [sp, #4]
	.loc	10 97 33 is_stmt 0              @ lvgl/src/lv_widgets/lv_canvas.c:97:33
	str	r0, [r1, #28]
	.loc	10 98 5 is_stmt 1               @ lvgl/src/lv_widgets/lv_canvas.c:98:5
	ldr	r1, [sp, #4]
	.loc	10 98 33 is_stmt 0              @ lvgl/src/lv_widgets/lv_canvas.c:98:33
	str	r0, [r1, #32]
	.loc	10 100 20 is_stmt 1             @ lvgl/src/lv_widgets/lv_canvas.c:100:20
	ldr	r0, [sp, #8]
	.loc	10 100 33 is_stmt 0             @ lvgl/src/lv_widgets/lv_canvas.c:100:33
	ldr	r1, [sp, #4]
	.loc	10 100 38                       @ lvgl/src/lv_widgets/lv_canvas.c:100:38
	adds	r1, #24
	.loc	10 100 5                        @ lvgl/src/lv_widgets/lv_canvas.c:100:5
	bl	lv_img_set_src
	.loc	10 103 26 is_stmt 1             @ lvgl/src/lv_widgets/lv_canvas.c:103:26
	ldr	r0, [sp, #8]
	.loc	10 103 5 is_stmt 0              @ lvgl/src/lv_widgets/lv_canvas.c:103:5
	movw	r1, :lower16:lv_canvas_signal
	movt	r1, :upper16:lv_canvas_signal
	bl	lv_obj_set_signal_cb
.Ltmp23:
	.loc	10 106 8 is_stmt 1              @ lvgl/src/lv_widgets/lv_canvas.c:106:8
	ldr	r0, [sp, #12]
.Ltmp24:
	.loc	10 106 8 is_stmt 0              @ lvgl/src/lv_widgets/lv_canvas.c:106:8
	cbnz	r0, .LBB0_20
	b	.LBB0_19
.LBB0_19:
.Ltmp25:
	.loc	10 107 24 is_stmt 1             @ lvgl/src/lv_widgets/lv_canvas.c:107:24
	ldr	r0, [sp, #8]
	movs	r1, #8
	.loc	10 107 9 is_stmt 0              @ lvgl/src/lv_widgets/lv_canvas.c:107:9
	bl	lv_theme_apply
	.loc	10 108 5 is_stmt 1              @ lvgl/src/lv_widgets/lv_canvas.c:108:5
	b	.LBB0_21
.Ltmp26:
.LBB0_20:
	.loc	10 0 5 is_stmt 0                @ lvgl/src/lv_widgets/lv_canvas.c:0:5
	b	.LBB0_21
.LBB0_21:
	.loc	10 117 12 is_stmt 1             @ lvgl/src/lv_widgets/lv_canvas.c:117:12
	ldr	r0, [sp, #8]
	.loc	10 117 5 is_stmt 0              @ lvgl/src/lv_widgets/lv_canvas.c:117:5
	str	r0, [sp, #20]
	b	.LBB0_22
.LBB0_22:
	.loc	10 118 1 is_stmt 1              @ lvgl/src/lv_widgets/lv_canvas.c:118:1
	ldr	r0, [sp, #20]
	add	sp, #24
	pop	{r7, pc}
.Ltmp27:
.Lfunc_end0:
	.size	lv_canvas_create, .Lfunc_end0-lv_canvas_create
	.cfi_endproc
	.cantunwind
	.fnend
                                        @ -- End function
	.section	.text.lv_canvas_signal,"ax",%progbits
	.p2align	3                               @ -- Begin function lv_canvas_signal
	.type	lv_canvas_signal,%function
	.code	16                              @ @lv_canvas_signal
	.thumb_func
lv_canvas_signal:
.Lfunc_begin1:
	.loc	10 1101 0                       @ lvgl/src/lv_widgets/lv_canvas.c:1101:0
	.fnstart
	.cfi_startproc
@ %bb.0:
	.save	{r7, lr}
	push	{r7, lr}
	.cfi_def_cfa_offset 8
	.cfi_offset lr, -4
	.cfi_offset r7, -8
	.pad	#24
	sub	sp, #24
	.cfi_def_cfa_offset 32
                                        @ kill: def $r3 killed $r1
	str	r0, [sp, #16]
	strb.w	r1, [sp, #15]
	str	r2, [sp, #8]
.Ltmp28:
	.loc	10 1105 11 prologue_end         @ lvgl/src/lv_widgets/lv_canvas.c:1105:11
	movw	r0, :lower16:ancestor_signal
	movt	r0, :upper16:ancestor_signal
	ldr	r3, [r0]
	.loc	10 1105 27 is_stmt 0            @ lvgl/src/lv_widgets/lv_canvas.c:1105:27
	ldr	r0, [sp, #16]
	.loc	10 1105 35                      @ lvgl/src/lv_widgets/lv_canvas.c:1105:35
	ldrb.w	r1, [sp, #15]
	.loc	10 1105 41                      @ lvgl/src/lv_widgets/lv_canvas.c:1105:41
	ldr	r2, [sp, #8]
	.loc	10 1105 11                      @ lvgl/src/lv_widgets/lv_canvas.c:1105:11
	blx	r3
	.loc	10 1105 9                       @ lvgl/src/lv_widgets/lv_canvas.c:1105:9
	strb.w	r0, [sp, #7]
.Ltmp29:
	.loc	10 1106 8 is_stmt 1             @ lvgl/src/lv_widgets/lv_canvas.c:1106:8
	ldrb.w	r0, [sp, #7]
.Ltmp30:
	.loc	10 1106 8 is_stmt 0             @ lvgl/src/lv_widgets/lv_canvas.c:1106:8
	cmp	r0, #1
	beq	.LBB1_2
	b	.LBB1_1
.LBB1_1:
.Ltmp31:
	.loc	10 1106 33                      @ lvgl/src/lv_widgets/lv_canvas.c:1106:33
	ldrb.w	r0, [sp, #7]
	.loc	10 1106 26                      @ lvgl/src/lv_widgets/lv_canvas.c:1106:26
	strb.w	r0, [sp, #23]
	b	.LBB1_7
.Ltmp32:
.LBB1_2:
	.loc	10 1107 8 is_stmt 1             @ lvgl/src/lv_widgets/lv_canvas.c:1107:8
	ldrb.w	r0, [sp, #15]
.Ltmp33:
	.loc	10 1107 8 is_stmt 0             @ lvgl/src/lv_widgets/lv_canvas.c:1107:8
	cmp	r0, #7
	bne	.LBB1_4
	b	.LBB1_3
.LBB1_3:
.Ltmp34:
	.loc	10 1107 73                      @ lvgl/src/lv_widgets/lv_canvas.c:1107:73
	ldr	r0, [sp, #8]
	.loc	10 1107 43                      @ lvgl/src/lv_widgets/lv_canvas.c:1107:43
	movw	r1, :lower16:.L.str.2
	movt	r1, :upper16:.L.str.2
	bl	lv_obj_handle_get_type_signal
	.loc	10 1107 36                      @ lvgl/src/lv_widgets/lv_canvas.c:1107:36
	strb.w	r0, [sp, #23]
	b	.LBB1_7
.Ltmp35:
.LBB1_4:
	.loc	10 1109 8 is_stmt 1             @ lvgl/src/lv_widgets/lv_canvas.c:1109:8
	ldrb.w	r0, [sp, #15]
.Ltmp36:
	.loc	10 1109 8 is_stmt 0             @ lvgl/src/lv_widgets/lv_canvas.c:1109:8
	cbnz	r0, .LBB1_6
	b	.LBB1_5
.LBB1_5:
.Ltmp37:
	.loc	10 1111 5 is_stmt 1             @ lvgl/src/lv_widgets/lv_canvas.c:1111:5
	b	.LBB1_6
.Ltmp38:
.LBB1_6:
	.loc	10 1113 12                      @ lvgl/src/lv_widgets/lv_canvas.c:1113:12
	ldrb.w	r0, [sp, #7]
	.loc	10 1113 5 is_stmt 0             @ lvgl/src/lv_widgets/lv_canvas.c:1113:5
	strb.w	r0, [sp, #23]
	b	.LBB1_7
.LBB1_7:
	.loc	10 1114 1 is_stmt 1             @ lvgl/src/lv_widgets/lv_canvas.c:1114:1
	ldrb.w	r0, [sp, #23]
	add	sp, #24
	pop	{r7, pc}
.Ltmp39:
.Lfunc_end1:
	.size	lv_canvas_signal, .Lfunc_end1-lv_canvas_signal
	.cfi_endproc
	.cantunwind
	.fnend
                                        @ -- End function
	.section	.text.lv_canvas_set_buffer,"ax",%progbits
	.hidden	lv_canvas_set_buffer            @ -- Begin function lv_canvas_set_buffer
	.globl	lv_canvas_set_buffer
	.p2align	3
	.type	lv_canvas_set_buffer,%function
	.code	16                              @ @lv_canvas_set_buffer
	.thumb_func
lv_canvas_set_buffer:
.Lfunc_begin2:
	.loc	10 139 0                        @ lvgl/src/lv_widgets/lv_canvas.c:139:0
	.fnstart
	.cfi_startproc
@ %bb.0:
	.save	{r7, lr}
	push	{r7, lr}
	.cfi_def_cfa_offset 8
	.cfi_offset lr, -4
	.cfi_offset r7, -8
	.pad	#24
	sub	sp, #24
	.cfi_def_cfa_offset 32
	mov	r12, r0
	ldr	r0, [sp, #32]
                                        @ kill: def $lr killed $r3
                                        @ kill: def $lr killed $r2
	str.w	r12, [sp, #20]
	str	r1, [sp, #16]
	strh.w	r2, [sp, #14]
	strh.w	r3, [sp, #12]
	strb.w	r0, [sp, #11]
.Ltmp40:
	.loc	10 140 5 prologue_end           @ lvgl/src/lv_widgets/lv_canvas.c:140:5
	b	.LBB2_1
.LBB2_1:
.Ltmp41:
	.loc	10 140 5 is_stmt 0              @ lvgl/src/lv_widgets/lv_canvas.c:140:5
	ldr	r0, [sp, #20]
	bl	lv_debug_check_null
.Ltmp42:
	.loc	10 140 5                        @ lvgl/src/lv_widgets/lv_canvas.c:140:5
	cbnz	r0, .LBB2_4
	b	.LBB2_2
.LBB2_2:
.Ltmp43:
	.loc	10 140 5                        @ lvgl/src/lv_widgets/lv_canvas.c:140:5
	ldr	r2, [sp, #20]
	movw	r0, :lower16:.L.str.1
	movt	r0, :upper16:.L.str.1
	movs	r3, #0
	bl	lv_debug_log_error
	b	.LBB2_3
.LBB2_3:                                @ =>This Inner Loop Header: Depth=1
	b	.LBB2_3
.Ltmp44:
.LBB2_4:
	.loc	10 140 5                        @ lvgl/src/lv_widgets/lv_canvas.c:140:5
	b	.LBB2_5
.Ltmp45:
.LBB2_5:
	.loc	10 141 5 is_stmt 1              @ lvgl/src/lv_widgets/lv_canvas.c:141:5
	b	.LBB2_6
.LBB2_6:
.Ltmp46:
	.loc	10 141 5 is_stmt 0              @ lvgl/src/lv_widgets/lv_canvas.c:141:5
	ldr	r0, [sp, #16]
	bl	lv_debug_check_null
.Ltmp47:
	.loc	10 141 5                        @ lvgl/src/lv_widgets/lv_canvas.c:141:5
	cbnz	r0, .LBB2_9
	b	.LBB2_7
.LBB2_7:
.Ltmp48:
	.loc	10 141 5                        @ lvgl/src/lv_widgets/lv_canvas.c:141:5
	ldr	r2, [sp, #16]
	movw	r0, :lower16:.L.str.1
	movt	r0, :upper16:.L.str.1
	movs	r3, #0
	bl	lv_debug_log_error
	b	.LBB2_8
.LBB2_8:                                @ =>This Inner Loop Header: Depth=1
	b	.LBB2_8
.Ltmp49:
.LBB2_9:
	.loc	10 141 5                        @ lvgl/src/lv_widgets/lv_canvas.c:141:5
	b	.LBB2_10
.Ltmp50:
.LBB2_10:
	.loc	10 143 49 is_stmt 1             @ lvgl/src/lv_widgets/lv_canvas.c:143:49
	ldr	r0, [sp, #20]
	.loc	10 143 29 is_stmt 0             @ lvgl/src/lv_widgets/lv_canvas.c:143:29
	bl	lv_obj_get_ext_attr
	.loc	10 143 23                       @ lvgl/src/lv_widgets/lv_canvas.c:143:23
	str	r0, [sp, #4]
	.loc	10 145 26 is_stmt 1             @ lvgl/src/lv_widgets/lv_canvas.c:145:26
	ldrb.w	r2, [sp, #11]
	.loc	10 145 5 is_stmt 0              @ lvgl/src/lv_widgets/lv_canvas.c:145:5
	ldr	r1, [sp, #4]
	.loc	10 145 24                       @ lvgl/src/lv_widgets/lv_canvas.c:145:24
	ldrb	r0, [r1, #24]
	and	r2, r2, #31
	and	r0, r0, #224
	add	r0, r2
	strb	r0, [r1, #24]
	.loc	10 146 26 is_stmt 1             @ lvgl/src/lv_widgets/lv_canvas.c:146:26
	ldrh.w	r3, [sp, #14]
	.loc	10 146 5 is_stmt 0              @ lvgl/src/lv_widgets/lv_canvas.c:146:5
	ldr	r1, [sp, #4]
	.loc	10 146 24                       @ lvgl/src/lv_widgets/lv_canvas.c:146:24
	ldrh	r0, [r1, #25]!
	ldrb	r2, [r1, #2]
	bfc	r3, #11, #21
	movw	r12, #57347
	and.w	r0, r0, r12
	orr.w	r0, r0, r3, lsl #2
	strb	r2, [r1, #2]
	strh	r0, [r1]
	.loc	10 147 26 is_stmt 1             @ lvgl/src/lv_widgets/lv_canvas.c:147:26
	ldrh.w	r2, [sp, #12]
	.loc	10 147 5 is_stmt 0              @ lvgl/src/lv_widgets/lv_canvas.c:147:5
	ldr	r1, [sp, #4]
	.loc	10 147 24                       @ lvgl/src/lv_widgets/lv_canvas.c:147:24
	ldrh	r0, [r1, #25]!
	bfc	r0, #13, #19
	orr.w	r0, r0, r2, lsl #13
	lsrs	r2, r2, #3
	strb	r2, [r1, #2]
	strh	r0, [r1]
	.loc	10 148 26 is_stmt 1             @ lvgl/src/lv_widgets/lv_canvas.c:148:26
	ldr	r0, [sp, #16]
	.loc	10 148 5 is_stmt 0              @ lvgl/src/lv_widgets/lv_canvas.c:148:5
	ldr	r1, [sp, #4]
	.loc	10 148 24                       @ lvgl/src/lv_widgets/lv_canvas.c:148:24
	str	r0, [r1, #32]
	.loc	10 150 20 is_stmt 1             @ lvgl/src/lv_widgets/lv_canvas.c:150:20
	ldr	r0, [sp, #20]
	.loc	10 150 29 is_stmt 0             @ lvgl/src/lv_widgets/lv_canvas.c:150:29
	ldr	r1, [sp, #4]
	.loc	10 150 34                       @ lvgl/src/lv_widgets/lv_canvas.c:150:34
	adds	r1, #24
	.loc	10 150 5                        @ lvgl/src/lv_widgets/lv_canvas.c:150:5
	bl	lv_img_set_src
	.loc	10 151 1 is_stmt 1              @ lvgl/src/lv_widgets/lv_canvas.c:151:1
	add	sp, #24
	pop	{r7, pc}
.Ltmp51:
.Lfunc_end2:
	.size	lv_canvas_set_buffer, .Lfunc_end2-lv_canvas_set_buffer
	.cfi_endproc
	.cantunwind
	.fnend
                                        @ -- End function
	.section	.text.lv_canvas_set_px,"ax",%progbits
	.hidden	lv_canvas_set_px                @ -- Begin function lv_canvas_set_px
	.globl	lv_canvas_set_px
	.p2align	3
	.type	lv_canvas_set_px,%function
	.code	16                              @ @lv_canvas_set_px
	.thumb_func
lv_canvas_set_px:
.Lfunc_begin3:
	.loc	10 161 0                        @ lvgl/src/lv_widgets/lv_canvas.c:161:0
	.fnstart
	.cfi_startproc
@ %bb.0:
	.save	{r7, lr}
	push	{r7, lr}
	.cfi_def_cfa_offset 8
	.cfi_offset lr, -4
	.cfi_offset r7, -8
	.pad	#16
	sub	sp, #16
	.cfi_def_cfa_offset 24
                                        @ kill: def $r12 killed $r2
                                        @ kill: def $r12 killed $r1
	str	r3, [sp, #12]
	str	r0, [sp, #8]
	strh.w	r1, [sp, #6]
	strh.w	r2, [sp, #4]
.Ltmp52:
	.loc	10 162 5 prologue_end           @ lvgl/src/lv_widgets/lv_canvas.c:162:5
	b	.LBB3_1
.LBB3_1:
.Ltmp53:
	.loc	10 162 5 is_stmt 0              @ lvgl/src/lv_widgets/lv_canvas.c:162:5
	ldr	r0, [sp, #8]
	bl	lv_debug_check_null
.Ltmp54:
	.loc	10 162 5                        @ lvgl/src/lv_widgets/lv_canvas.c:162:5
	cbnz	r0, .LBB3_4
	b	.LBB3_2
.LBB3_2:
.Ltmp55:
	.loc	10 162 5                        @ lvgl/src/lv_widgets/lv_canvas.c:162:5
	ldr	r2, [sp, #8]
	movw	r0, :lower16:.L.str.1
	movt	r0, :upper16:.L.str.1
	movs	r3, #0
	bl	lv_debug_log_error
	b	.LBB3_3
.LBB3_3:                                @ =>This Inner Loop Header: Depth=1
	b	.LBB3_3
.Ltmp56:
.LBB3_4:
	.loc	10 162 5                        @ lvgl/src/lv_widgets/lv_canvas.c:162:5
	b	.LBB3_5
.Ltmp57:
.LBB3_5:
	.loc	10 164 49 is_stmt 1             @ lvgl/src/lv_widgets/lv_canvas.c:164:49
	ldr	r0, [sp, #8]
	.loc	10 164 29 is_stmt 0             @ lvgl/src/lv_widgets/lv_canvas.c:164:29
	bl	lv_obj_get_ext_attr
	.loc	10 164 23                       @ lvgl/src/lv_widgets/lv_canvas.c:164:23
	str	r0, [sp]
	.loc	10 166 30 is_stmt 1             @ lvgl/src/lv_widgets/lv_canvas.c:166:30
	ldr	r0, [sp]
	.loc	10 166 35 is_stmt 0             @ lvgl/src/lv_widgets/lv_canvas.c:166:35
	adds	r0, #24
	.loc	10 166 40                       @ lvgl/src/lv_widgets/lv_canvas.c:166:40
	ldrsh.w	r1, [sp, #6]
	.loc	10 166 43                       @ lvgl/src/lv_widgets/lv_canvas.c:166:43
	ldrsh.w	r2, [sp, #4]
	.loc	10 166 5                        @ lvgl/src/lv_widgets/lv_canvas.c:166:5
	ldr	r3, [sp, #12]
	bl	lv_img_buf_set_px_color
	.loc	10 167 23 is_stmt 1             @ lvgl/src/lv_widgets/lv_canvas.c:167:23
	ldr	r0, [sp, #8]
	.loc	10 167 5 is_stmt 0              @ lvgl/src/lv_widgets/lv_canvas.c:167:5
	bl	lv_obj_invalidate
	.loc	10 168 1 is_stmt 1              @ lvgl/src/lv_widgets/lv_canvas.c:168:1
	add	sp, #16
	pop	{r7, pc}
.Ltmp58:
.Lfunc_end3:
	.size	lv_canvas_set_px, .Lfunc_end3-lv_canvas_set_px
	.cfi_endproc
	.cantunwind
	.fnend
                                        @ -- End function
	.section	.text.lv_canvas_set_palette,"ax",%progbits
	.hidden	lv_canvas_set_palette           @ -- Begin function lv_canvas_set_palette
	.globl	lv_canvas_set_palette
	.p2align	3
	.type	lv_canvas_set_palette,%function
	.code	16                              @ @lv_canvas_set_palette
	.thumb_func
lv_canvas_set_palette:
.Lfunc_begin4:
	.loc	10 181 0                        @ lvgl/src/lv_widgets/lv_canvas.c:181:0
	.fnstart
	.cfi_startproc
@ %bb.0:
	.save	{r7, lr}
	push	{r7, lr}
	.cfi_def_cfa_offset 8
	.cfi_offset lr, -4
	.cfi_offset r7, -8
	.pad	#16
	sub	sp, #16
	.cfi_def_cfa_offset 24
                                        @ kill: def $r3 killed $r1
	str	r2, [sp, #12]
	str	r0, [sp, #8]
	strb.w	r1, [sp, #7]
.Ltmp59:
	.loc	10 182 5 prologue_end           @ lvgl/src/lv_widgets/lv_canvas.c:182:5
	b	.LBB4_1
.LBB4_1:
.Ltmp60:
	.loc	10 182 5 is_stmt 0              @ lvgl/src/lv_widgets/lv_canvas.c:182:5
	ldr	r0, [sp, #8]
	bl	lv_debug_check_null
.Ltmp61:
	.loc	10 182 5                        @ lvgl/src/lv_widgets/lv_canvas.c:182:5
	cbnz	r0, .LBB4_4
	b	.LBB4_2
.LBB4_2:
.Ltmp62:
	.loc	10 182 5                        @ lvgl/src/lv_widgets/lv_canvas.c:182:5
	ldr	r2, [sp, #8]
	movw	r0, :lower16:.L.str.1
	movt	r0, :upper16:.L.str.1
	movs	r3, #0
	bl	lv_debug_log_error
	b	.LBB4_3
.LBB4_3:                                @ =>This Inner Loop Header: Depth=1
	b	.LBB4_3
.Ltmp63:
.LBB4_4:
	.loc	10 182 5                        @ lvgl/src/lv_widgets/lv_canvas.c:182:5
	b	.LBB4_5
.Ltmp64:
.LBB4_5:
	.loc	10 184 49 is_stmt 1             @ lvgl/src/lv_widgets/lv_canvas.c:184:49
	ldr	r0, [sp, #8]
	.loc	10 184 29 is_stmt 0             @ lvgl/src/lv_widgets/lv_canvas.c:184:29
	bl	lv_obj_get_ext_attr
	.loc	10 184 23                       @ lvgl/src/lv_widgets/lv_canvas.c:184:23
	str	r0, [sp]
	.loc	10 186 29 is_stmt 1             @ lvgl/src/lv_widgets/lv_canvas.c:186:29
	ldr	r0, [sp]
	.loc	10 186 34 is_stmt 0             @ lvgl/src/lv_widgets/lv_canvas.c:186:34
	adds	r0, #24
	.loc	10 186 39                       @ lvgl/src/lv_widgets/lv_canvas.c:186:39
	ldrb.w	r1, [sp, #7]
	.loc	10 186 5                        @ lvgl/src/lv_widgets/lv_canvas.c:186:5
	ldr	r2, [sp, #12]
	bl	lv_img_buf_set_palette
	.loc	10 187 23 is_stmt 1             @ lvgl/src/lv_widgets/lv_canvas.c:187:23
	ldr	r0, [sp, #8]
	.loc	10 187 5 is_stmt 0              @ lvgl/src/lv_widgets/lv_canvas.c:187:5
	bl	lv_obj_invalidate
	.loc	10 188 1 is_stmt 1              @ lvgl/src/lv_widgets/lv_canvas.c:188:1
	add	sp, #16
	pop	{r7, pc}
.Ltmp65:
.Lfunc_end4:
	.size	lv_canvas_set_palette, .Lfunc_end4-lv_canvas_set_palette
	.cfi_endproc
	.cantunwind
	.fnend
                                        @ -- End function
	.section	.text.lv_canvas_get_px,"ax",%progbits
	.hidden	lv_canvas_get_px                @ -- Begin function lv_canvas_get_px
	.globl	lv_canvas_get_px
	.p2align	3
	.type	lv_canvas_get_px,%function
	.code	16                              @ @lv_canvas_get_px
	.thumb_func
lv_canvas_get_px:
.Lfunc_begin5:
	.loc	10 202 0                        @ lvgl/src/lv_widgets/lv_canvas.c:202:0
	.fnstart
	.cfi_startproc
@ %bb.0:
	.save	{r7, lr}
	push	{r7, lr}
	.cfi_def_cfa_offset 8
	.cfi_offset lr, -4
	.cfi_offset r7, -8
	.pad	#24
	sub	sp, #24
	.cfi_def_cfa_offset 32
                                        @ kill: def $r3 killed $r2
                                        @ kill: def $r3 killed $r1
	str	r0, [sp, #16]
	strh.w	r1, [sp, #14]
	strh.w	r2, [sp, #12]
.Ltmp66:
	.loc	10 203 5 prologue_end           @ lvgl/src/lv_widgets/lv_canvas.c:203:5
	b	.LBB5_1
.LBB5_1:
.Ltmp67:
	.loc	10 203 5 is_stmt 0              @ lvgl/src/lv_widgets/lv_canvas.c:203:5
	ldr	r0, [sp, #16]
	bl	lv_debug_check_null
.Ltmp68:
	.loc	10 203 5                        @ lvgl/src/lv_widgets/lv_canvas.c:203:5
	cbnz	r0, .LBB5_4
	b	.LBB5_2
.LBB5_2:
.Ltmp69:
	.loc	10 203 5                        @ lvgl/src/lv_widgets/lv_canvas.c:203:5
	ldr	r2, [sp, #16]
	movw	r0, :lower16:.L.str.1
	movt	r0, :upper16:.L.str.1
	movs	r3, #0
	bl	lv_debug_log_error
	b	.LBB5_3
.LBB5_3:                                @ =>This Inner Loop Header: Depth=1
	b	.LBB5_3
.Ltmp70:
.LBB5_4:
	.loc	10 203 5                        @ lvgl/src/lv_widgets/lv_canvas.c:203:5
	b	.LBB5_5
.Ltmp71:
.LBB5_5:
	.loc	10 205 52 is_stmt 1             @ lvgl/src/lv_widgets/lv_canvas.c:205:52
	ldr	r0, [sp, #16]
	.loc	10 205 32 is_stmt 0             @ lvgl/src/lv_widgets/lv_canvas.c:205:32
	bl	lv_obj_get_ext_attr
	.loc	10 205 23                       @ lvgl/src/lv_widgets/lv_canvas.c:205:23
	str	r0, [sp, #8]
	.loc	10 206 55 is_stmt 1             @ lvgl/src/lv_widgets/lv_canvas.c:206:55
	ldr	r0, [sp, #16]
	movs	r1, #0
	.loc	10 206 24 is_stmt 0             @ lvgl/src/lv_widgets/lv_canvas.c:206:24
	bl	lv_obj_get_style_image_recolor
	str	r0, [sp, #4]
	.loc	10 208 37 is_stmt 1             @ lvgl/src/lv_widgets/lv_canvas.c:208:37
	ldr	r0, [sp, #8]
	.loc	10 208 42 is_stmt 0             @ lvgl/src/lv_widgets/lv_canvas.c:208:42
	adds	r0, #24
	.loc	10 208 47                       @ lvgl/src/lv_widgets/lv_canvas.c:208:47
	ldrsh.w	r1, [sp, #14]
	.loc	10 208 50                       @ lvgl/src/lv_widgets/lv_canvas.c:208:50
	ldrsh.w	r2, [sp, #12]
	.loc	10 208 12                       @ lvgl/src/lv_widgets/lv_canvas.c:208:12
	ldr	r3, [sp, #4]
	bl	lv_img_buf_get_px_color
	str	r0, [sp, #20]
	.loc	10 208 5                        @ lvgl/src/lv_widgets/lv_canvas.c:208:5
	ldr	r0, [sp, #20]
	add	sp, #24
	pop	{r7, pc}
.Ltmp72:
.Lfunc_end5:
	.size	lv_canvas_get_px, .Lfunc_end5-lv_canvas_get_px
	.cfi_endproc
	.cantunwind
	.fnend
                                        @ -- End function
	.section	.text.lv_obj_get_style_image_recolor,"ax",%progbits
	.p2align	3                               @ -- Begin function lv_obj_get_style_image_recolor
	.type	lv_obj_get_style_image_recolor,%function
	.code	16                              @ @lv_obj_get_style_image_recolor
	.thumb_func
lv_obj_get_style_image_recolor:
.Lfunc_begin6:
	.file	16 "E:\\Smart-access-control\\Hardware\\CODE" "lvgl/src/lv_widgets/../lv_core/lv_obj_style_dec.h"
	.loc	16 167 0 is_stmt 1              @ lvgl/src/lv_widgets/../lv_core/lv_obj_style_dec.h:167:0
	.fnstart
	.cfi_startproc
@ %bb.0:
	.save	{r7, lr}
	push	{r7, lr}
	.cfi_def_cfa_offset 8
	.cfi_offset lr, -4
	.cfi_offset r7, -8
	.pad	#16
	sub	sp, #16
	.cfi_def_cfa_offset 24
                                        @ kill: def $r2 killed $r1
	str	r0, [sp, #8]
	strb.w	r1, [sp, #7]
.Ltmp73:
	.loc	16 167 1 prologue_end           @ lvgl/src/lv_widgets/../lv_core/lv_obj_style_dec.h:167:1
	ldr	r0, [sp, #8]
	ldrb.w	r1, [sp, #7]
	movw	r2, #32937
	bl	_lv_obj_get_style_color
	str	r0, [sp, #12]
	ldr	r0, [sp, #12]
	add	sp, #16
	pop	{r7, pc}
.Ltmp74:
.Lfunc_end6:
	.size	lv_obj_get_style_image_recolor, .Lfunc_end6-lv_obj_get_style_image_recolor
	.cfi_endproc
	.cantunwind
	.fnend
                                        @ -- End function
	.section	.text.lv_canvas_get_img,"ax",%progbits
	.hidden	lv_canvas_get_img               @ -- Begin function lv_canvas_get_img
	.globl	lv_canvas_get_img
	.p2align	3
	.type	lv_canvas_get_img,%function
	.code	16                              @ @lv_canvas_get_img
	.thumb_func
lv_canvas_get_img:
.Lfunc_begin7:
	.loc	10 217 0                        @ lvgl/src/lv_widgets/lv_canvas.c:217:0
	.fnstart
	.cfi_startproc
@ %bb.0:
	.save	{r7, lr}
	push	{r7, lr}
	.cfi_def_cfa_offset 8
	.cfi_offset lr, -4
	.cfi_offset r7, -8
	.pad	#8
	sub	sp, #8
	.cfi_def_cfa_offset 16
	str	r0, [sp, #4]
.Ltmp75:
	.loc	10 218 5 prologue_end           @ lvgl/src/lv_widgets/lv_canvas.c:218:5
	b	.LBB7_1
.LBB7_1:
.Ltmp76:
	.loc	10 218 5 is_stmt 0              @ lvgl/src/lv_widgets/lv_canvas.c:218:5
	ldr	r0, [sp, #4]
	bl	lv_debug_check_null
.Ltmp77:
	.loc	10 218 5                        @ lvgl/src/lv_widgets/lv_canvas.c:218:5
	cbnz	r0, .LBB7_4
	b	.LBB7_2
.LBB7_2:
.Ltmp78:
	.loc	10 218 5                        @ lvgl/src/lv_widgets/lv_canvas.c:218:5
	ldr	r2, [sp, #4]
	movw	r0, :lower16:.L.str.1
	movt	r0, :upper16:.L.str.1
	movs	r3, #0
	bl	lv_debug_log_error
	b	.LBB7_3
.LBB7_3:                                @ =>This Inner Loop Header: Depth=1
	b	.LBB7_3
.Ltmp79:
.LBB7_4:
	.loc	10 218 5                        @ lvgl/src/lv_widgets/lv_canvas.c:218:5
	b	.LBB7_5
.Ltmp80:
.LBB7_5:
	.loc	10 220 49 is_stmt 1             @ lvgl/src/lv_widgets/lv_canvas.c:220:49
	ldr	r0, [sp, #4]
	.loc	10 220 29 is_stmt 0             @ lvgl/src/lv_widgets/lv_canvas.c:220:29
	bl	lv_obj_get_ext_attr
	.loc	10 220 23                       @ lvgl/src/lv_widgets/lv_canvas.c:220:23
	str	r0, [sp]
	.loc	10 222 13 is_stmt 1             @ lvgl/src/lv_widgets/lv_canvas.c:222:13
	ldr	r0, [sp]
	.loc	10 222 18 is_stmt 0             @ lvgl/src/lv_widgets/lv_canvas.c:222:18
	adds	r0, #24
	.loc	10 222 5                        @ lvgl/src/lv_widgets/lv_canvas.c:222:5
	add	sp, #8
	pop	{r7, pc}
.Ltmp81:
.Lfunc_end7:
	.size	lv_canvas_get_img, .Lfunc_end7-lv_canvas_get_img
	.cfi_endproc
	.cantunwind
	.fnend
                                        @ -- End function
	.section	.text.lv_canvas_copy_buf,"ax",%progbits
	.hidden	lv_canvas_copy_buf              @ -- Begin function lv_canvas_copy_buf
	.globl	lv_canvas_copy_buf
	.p2align	3
	.type	lv_canvas_copy_buf,%function
	.code	16                              @ @lv_canvas_copy_buf
	.thumb_func
lv_canvas_copy_buf:
.Lfunc_begin8:
	.loc	10 240 0 is_stmt 1              @ lvgl/src/lv_widgets/lv_canvas.c:240:0
	.fnstart
	.cfi_startproc
@ %bb.0:
	.save	{r4, lr}
	push	{r4, lr}
	.cfi_def_cfa_offset 8
	.cfi_offset lr, -4
	.cfi_offset r4, -8
	.pad	#40
	sub	sp, #40
	.cfi_def_cfa_offset 48
	mov	r12, r1
	mov	lr, r0
	ldr	r0, [sp, #52]
	ldr	r1, [sp, #48]
                                        @ kill: def $r4 killed $r3
                                        @ kill: def $r4 killed $r2
	str.w	lr, [sp, #36]
	str.w	r12, [sp, #32]
	strh.w	r2, [sp, #30]
	strh.w	r3, [sp, #28]
	strh.w	r1, [sp, #26]
	strh.w	r0, [sp, #24]
.Ltmp82:
	.loc	10 241 5 prologue_end           @ lvgl/src/lv_widgets/lv_canvas.c:241:5
	b	.LBB8_1
.LBB8_1:
.Ltmp83:
	.loc	10 241 5 is_stmt 0              @ lvgl/src/lv_widgets/lv_canvas.c:241:5
	ldr	r0, [sp, #36]
	bl	lv_debug_check_null
.Ltmp84:
	.loc	10 241 5                        @ lvgl/src/lv_widgets/lv_canvas.c:241:5
	cbnz	r0, .LBB8_4
	b	.LBB8_2
.LBB8_2:
.Ltmp85:
	.loc	10 241 5                        @ lvgl/src/lv_widgets/lv_canvas.c:241:5
	ldr	r2, [sp, #36]
	movw	r0, :lower16:.L.str.1
	movt	r0, :upper16:.L.str.1
	movs	r3, #0
	bl	lv_debug_log_error
	b	.LBB8_3
.LBB8_3:                                @ =>This Inner Loop Header: Depth=1
	b	.LBB8_3
.Ltmp86:
.LBB8_4:
	.loc	10 241 5                        @ lvgl/src/lv_widgets/lv_canvas.c:241:5
	b	.LBB8_5
.Ltmp87:
.LBB8_5:
	.loc	10 242 5 is_stmt 1              @ lvgl/src/lv_widgets/lv_canvas.c:242:5
	b	.LBB8_6
.LBB8_6:
.Ltmp88:
	.loc	10 242 5 is_stmt 0              @ lvgl/src/lv_widgets/lv_canvas.c:242:5
	ldr	r0, [sp, #32]
	bl	lv_debug_check_null
.Ltmp89:
	.loc	10 242 5                        @ lvgl/src/lv_widgets/lv_canvas.c:242:5
	cbnz	r0, .LBB8_9
	b	.LBB8_7
.LBB8_7:
.Ltmp90:
	.loc	10 242 5                        @ lvgl/src/lv_widgets/lv_canvas.c:242:5
	ldr	r2, [sp, #32]
	movw	r0, :lower16:.L.str.1
	movt	r0, :upper16:.L.str.1
	movs	r3, #0
	bl	lv_debug_log_error
	b	.LBB8_8
.LBB8_8:                                @ =>This Inner Loop Header: Depth=1
	b	.LBB8_8
.Ltmp91:
.LBB8_9:
	.loc	10 242 5                        @ lvgl/src/lv_widgets/lv_canvas.c:242:5
	b	.LBB8_10
.Ltmp92:
.LBB8_10:
	.loc	10 244 49 is_stmt 1             @ lvgl/src/lv_widgets/lv_canvas.c:244:49
	ldr	r0, [sp, #36]
	.loc	10 244 29 is_stmt 0             @ lvgl/src/lv_widgets/lv_canvas.c:244:29
	bl	lv_obj_get_ext_attr
	.loc	10 244 23                       @ lvgl/src/lv_widgets/lv_canvas.c:244:23
	str	r0, [sp, #20]
.Ltmp93:
	.loc	10 245 8 is_stmt 1              @ lvgl/src/lv_widgets/lv_canvas.c:245:8
	ldrsh.w	r0, [sp, #30]
	.loc	10 245 12 is_stmt 0             @ lvgl/src/lv_widgets/lv_canvas.c:245:12
	ldrsh.w	r1, [sp, #26]
	.loc	10 245 10                       @ lvgl/src/lv_widgets/lv_canvas.c:245:10
	add	r0, r1
	.loc	10 245 29                       @ lvgl/src/lv_widgets/lv_canvas.c:245:29
	ldr	r1, [sp, #20]
	.loc	10 245 45                       @ lvgl/src/lv_widgets/lv_canvas.c:245:45
	ldrh.w	r1, [r1, #25]
	ubfx	r1, r1, #2, #11
	.loc	10 245 47                       @ lvgl/src/lv_widgets/lv_canvas.c:245:47
	cmp	r0, r1
	bge	.LBB8_12
	b	.LBB8_11
.LBB8_11:
	.loc	10 245 50                       @ lvgl/src/lv_widgets/lv_canvas.c:245:50
	ldrsh.w	r0, [sp, #28]
	.loc	10 245 54                       @ lvgl/src/lv_widgets/lv_canvas.c:245:54
	ldrsh.w	r1, [sp, #24]
	.loc	10 245 52                       @ lvgl/src/lv_widgets/lv_canvas.c:245:52
	add	r0, r1
	.loc	10 245 71                       @ lvgl/src/lv_widgets/lv_canvas.c:245:71
	ldr	r1, [sp, #20]
	.loc	10 245 87                       @ lvgl/src/lv_widgets/lv_canvas.c:245:87
	ldrb	r2, [r1, #27]
	ldrh.w	r1, [r1, #25]
	orr.w	r1, r1, r2, lsl #16
.Ltmp94:
	.loc	10 245 8                        @ lvgl/src/lv_widgets/lv_canvas.c:245:8
	cmp.w	r0, r1, lsr #13
	blt	.LBB8_13
	b	.LBB8_12
.LBB8_12:
.Ltmp95:
	.loc	10 247 9 is_stmt 1              @ lvgl/src/lv_widgets/lv_canvas.c:247:9
	b	.LBB8_17
.Ltmp96:
.LBB8_13:
	.loc	10 250 48                       @ lvgl/src/lv_widgets/lv_canvas.c:250:48
	ldr	r0, [sp, #20]
	.loc	10 250 64 is_stmt 0             @ lvgl/src/lv_widgets/lv_canvas.c:250:64
	ldrb	r0, [r0, #24]
	and	r0, r0, #31
	.loc	10 250 26                       @ lvgl/src/lv_widgets/lv_canvas.c:250:26
	bl	lv_img_cf_get_px_size
	.loc	10 250 68                       @ lvgl/src/lv_widgets/lv_canvas.c:250:68
	lsrs	r0, r0, #3
	.loc	10 250 14                       @ lvgl/src/lv_widgets/lv_canvas.c:250:14
	str	r0, [sp, #16]
	.loc	10 251 26 is_stmt 1             @ lvgl/src/lv_widgets/lv_canvas.c:251:26
	ldr	r0, [sp, #20]
	.loc	10 251 42 is_stmt 0             @ lvgl/src/lv_widgets/lv_canvas.c:251:42
	ldrh.w	r0, [r0, #25]
	ubfx	r0, r0, #2, #11
	.loc	10 251 46                       @ lvgl/src/lv_widgets/lv_canvas.c:251:46
	ldrsh.w	r1, [sp, #28]
	.loc	10 251 44                       @ lvgl/src/lv_widgets/lv_canvas.c:251:44
	muls	r0, r1, r0
	.loc	10 251 50                       @ lvgl/src/lv_widgets/lv_canvas.c:251:50
	ldr	r1, [sp, #16]
	.loc	10 251 60                       @ lvgl/src/lv_widgets/lv_canvas.c:251:60
	ldrsh.w	r2, [sp, #30]
	.loc	10 251 62                       @ lvgl/src/lv_widgets/lv_canvas.c:251:62
	muls	r2, r1, r2
	.loc	10 251 58                       @ lvgl/src/lv_widgets/lv_canvas.c:251:58
	mla	r0, r0, r1, r2
	.loc	10 251 14                       @ lvgl/src/lv_widgets/lv_canvas.c:251:14
	str	r0, [sp, #12]
	.loc	10 252 37 is_stmt 1             @ lvgl/src/lv_widgets/lv_canvas.c:252:37
	ldr	r0, [sp, #32]
	.loc	10 252 15 is_stmt 0             @ lvgl/src/lv_widgets/lv_canvas.c:252:15
	str	r0, [sp, #8]
	movs	r0, #0
.Ltmp97:
	.loc	10 254 11 is_stmt 1             @ lvgl/src/lv_widgets/lv_canvas.c:254:11
	strh.w	r0, [sp, #6]
	.loc	10 254 9 is_stmt 0              @ lvgl/src/lv_widgets/lv_canvas.c:254:9
	b	.LBB8_14
.LBB8_14:                               @ =>This Inner Loop Header: Depth=1
.Ltmp98:
	.loc	10 254 16                       @ lvgl/src/lv_widgets/lv_canvas.c:254:16
	ldrsh.w	r0, [sp, #6]
	.loc	10 254 20                       @ lvgl/src/lv_widgets/lv_canvas.c:254:20
	ldrsh.w	r1, [sp, #24]
.Ltmp99:
	.loc	10 254 5                        @ lvgl/src/lv_widgets/lv_canvas.c:254:5
	cmp	r0, r1
	bge	.LBB8_17
	b	.LBB8_15
.LBB8_15:                               @   in Loop: Header=BB8_14 Depth=1
.Ltmp100:
	.loc	10 255 29 is_stmt 1             @ lvgl/src/lv_widgets/lv_canvas.c:255:29
	ldr	r0, [sp, #20]
	.loc	10 255 38 is_stmt 0             @ lvgl/src/lv_widgets/lv_canvas.c:255:38
	ldr	r0, [r0, #32]
	.loc	10 255 43                       @ lvgl/src/lv_widgets/lv_canvas.c:255:43
	ldr	r1, [sp, #12]
	.loc	10 255 29                       @ lvgl/src/lv_widgets/lv_canvas.c:255:29
	add	r0, r1
	.loc	10 255 48                       @ lvgl/src/lv_widgets/lv_canvas.c:255:48
	ldr	r1, [sp, #8]
	.loc	10 255 58                       @ lvgl/src/lv_widgets/lv_canvas.c:255:58
	ldrsh.w	r2, [sp, #26]
	.loc	10 255 62                       @ lvgl/src/lv_widgets/lv_canvas.c:255:62
	ldr	r3, [sp, #16]
	.loc	10 255 60                       @ lvgl/src/lv_widgets/lv_canvas.c:255:60
	muls	r2, r3, r2
	.loc	10 255 9                        @ lvgl/src/lv_widgets/lv_canvas.c:255:9
	bl	_lv_memcpy
	.loc	10 256 15 is_stmt 1             @ lvgl/src/lv_widgets/lv_canvas.c:256:15
	ldr	r0, [sp, #20]
	.loc	10 256 31 is_stmt 0             @ lvgl/src/lv_widgets/lv_canvas.c:256:31
	ldrh.w	r0, [r0, #25]
	ubfx	r0, r0, #2, #11
	.loc	10 256 35                       @ lvgl/src/lv_widgets/lv_canvas.c:256:35
	ldr	r1, [sp, #16]
	.loc	10 256 12                       @ lvgl/src/lv_widgets/lv_canvas.c:256:12
	ldr	r2, [sp, #12]
	mla	r0, r0, r1, r2
	str	r0, [sp, #12]
	.loc	10 257 21 is_stmt 1             @ lvgl/src/lv_widgets/lv_canvas.c:257:21
	ldrsh.w	r0, [sp, #26]
	.loc	10 257 25 is_stmt 0             @ lvgl/src/lv_widgets/lv_canvas.c:257:25
	ldr	r1, [sp, #16]
	.loc	10 257 18                       @ lvgl/src/lv_widgets/lv_canvas.c:257:18
	ldr	r2, [sp, #8]
	mla	r0, r0, r1, r2
	str	r0, [sp, #8]
	.loc	10 258 5 is_stmt 1              @ lvgl/src/lv_widgets/lv_canvas.c:258:5
	b	.LBB8_16
.Ltmp101:
.LBB8_16:                               @   in Loop: Header=BB8_14 Depth=1
	.loc	10 254 24                       @ lvgl/src/lv_widgets/lv_canvas.c:254:24
	ldrh.w	r0, [sp, #6]
	adds	r0, #1
	strh.w	r0, [sp, #6]
	.loc	10 254 5 is_stmt 0              @ lvgl/src/lv_widgets/lv_canvas.c:254:5
	b	.LBB8_14
.Ltmp102:
.LBB8_17:
	.loc	10 259 1 is_stmt 1              @ lvgl/src/lv_widgets/lv_canvas.c:259:1
	add	sp, #40
	pop	{r4, pc}
.Ltmp103:
.Lfunc_end8:
	.size	lv_canvas_copy_buf, .Lfunc_end8-lv_canvas_copy_buf
	.cfi_endproc
	.cantunwind
	.fnend
                                        @ -- End function
	.section	.text.lv_canvas_transform,"ax",%progbits
	.hidden	lv_canvas_transform             @ -- Begin function lv_canvas_transform
	.globl	lv_canvas_transform
	.p2align	3
	.type	lv_canvas_transform,%function
	.code	16                              @ @lv_canvas_transform
	.thumb_func
lv_canvas_transform:
.Lfunc_begin9:
	.loc	10 279 0                        @ lvgl/src/lv_widgets/lv_canvas.c:279:0
	.fnstart
	.cfi_startproc
@ %bb.0:
	.save	{r4, r5, r7, lr}
	push	{r4, r5, r7, lr}
	.cfi_def_cfa_offset 16
	.cfi_offset lr, -4
	.cfi_offset r7, -8
	.cfi_offset r5, -12
	.cfi_offset r4, -16
	.pad	#184
	sub	sp, #184
	.cfi_def_cfa_offset 200
	mov	r12, r2
	mov	lr, r1
	mov	r4, r0
	ldr	r0, [sp, #216]
	ldr	r1, [sp, #212]
	ldr	r1, [sp, #208]
	ldr	r1, [sp, #204]
	ldr	r2, [sp, #200]
                                        @ kill: def $r5 killed $r3
                                        @ kill: def $r5 killed $r12
	str	r4, [sp, #180]
	str.w	lr, [sp, #176]
	strh.w	r12, [sp, #174]
	strh.w	r3, [sp, #172]
	strh.w	r2, [sp, #170]
	strh.w	r1, [sp, #168]
	strb.w	r0, [sp, #167]
.Ltmp104:
	.loc	10 281 5 prologue_end           @ lvgl/src/lv_widgets/lv_canvas.c:281:5
	b	.LBB9_1
.LBB9_1:
.Ltmp105:
	.loc	10 281 5 is_stmt 0              @ lvgl/src/lv_widgets/lv_canvas.c:281:5
	ldr	r0, [sp, #180]
	bl	lv_debug_check_null
.Ltmp106:
	.loc	10 281 5                        @ lvgl/src/lv_widgets/lv_canvas.c:281:5
	cbnz	r0, .LBB9_4
	b	.LBB9_2
.LBB9_2:
.Ltmp107:
	.loc	10 281 5                        @ lvgl/src/lv_widgets/lv_canvas.c:281:5
	ldr	r2, [sp, #180]
	movw	r0, :lower16:.L.str.1
	movt	r0, :upper16:.L.str.1
	movs	r3, #0
	bl	lv_debug_log_error
	b	.LBB9_3
.LBB9_3:                                @ =>This Inner Loop Header: Depth=1
	b	.LBB9_3
.Ltmp108:
.LBB9_4:
	.loc	10 281 5                        @ lvgl/src/lv_widgets/lv_canvas.c:281:5
	b	.LBB9_5
.Ltmp109:
.LBB9_5:
	.loc	10 282 5 is_stmt 1              @ lvgl/src/lv_widgets/lv_canvas.c:282:5
	b	.LBB9_6
.LBB9_6:
.Ltmp110:
	.loc	10 282 5 is_stmt 0              @ lvgl/src/lv_widgets/lv_canvas.c:282:5
	ldr	r0, [sp, #176]
	bl	lv_debug_check_null
.Ltmp111:
	.loc	10 282 5                        @ lvgl/src/lv_widgets/lv_canvas.c:282:5
	cbnz	r0, .LBB9_9
	b	.LBB9_7
.LBB9_7:
.Ltmp112:
	.loc	10 282 5                        @ lvgl/src/lv_widgets/lv_canvas.c:282:5
	ldr	r2, [sp, #176]
	movw	r0, :lower16:.L.str.1
	movt	r0, :upper16:.L.str.1
	movs	r3, #0
	bl	lv_debug_log_error
	b	.LBB9_8
.LBB9_8:                                @ =>This Inner Loop Header: Depth=1
	b	.LBB9_8
.Ltmp113:
.LBB9_9:
	.loc	10 282 5                        @ lvgl/src/lv_widgets/lv_canvas.c:282:5
	b	.LBB9_10
.Ltmp114:
.LBB9_10:
	.loc	10 284 53 is_stmt 1             @ lvgl/src/lv_widgets/lv_canvas.c:284:53
	ldr	r0, [sp, #180]
	.loc	10 284 33 is_stmt 0             @ lvgl/src/lv_widgets/lv_canvas.c:284:33
	bl	lv_obj_get_ext_attr
	.loc	10 284 23                       @ lvgl/src/lv_widgets/lv_canvas.c:284:23
	str	r0, [sp, #160]
	.loc	10 285 55 is_stmt 1             @ lvgl/src/lv_widgets/lv_canvas.c:285:55
	ldr	r0, [sp, #180]
	movs	r1, #0
	.loc	10 285 24 is_stmt 0             @ lvgl/src/lv_widgets/lv_canvas.c:285:24
	bl	lv_obj_get_style_image_recolor
	str	r0, [sp, #156]
	.loc	10 287 27 is_stmt 1             @ lvgl/src/lv_widgets/lv_canvas.c:287:27
	ldr	r0, [sp, #160]
	.loc	10 287 47 is_stmt 0             @ lvgl/src/lv_widgets/lv_canvas.c:287:47
	ldrh.w	r0, [r0, #25]
	ubfx	r0, r0, #2, #11
	.loc	10 287 13                       @ lvgl/src/lv_widgets/lv_canvas.c:287:13
	str	r0, [sp, #152]
	.loc	10 288 27 is_stmt 1             @ lvgl/src/lv_widgets/lv_canvas.c:288:27
	ldr	r0, [sp, #160]
	.loc	10 288 47 is_stmt 0             @ lvgl/src/lv_widgets/lv_canvas.c:288:47
	ldrb	r1, [r0, #27]
	ldrh.w	r0, [r0, #25]
	orr.w	r0, r0, r1, lsl #16
	lsrs	r0, r0, #13
	.loc	10 288 13                       @ lvgl/src/lv_widgets/lv_canvas.c:288:13
	str	r0, [sp, #148]
	.loc	10 295 21 is_stmt 1             @ lvgl/src/lv_widgets/lv_canvas.c:295:21
	ldrh.w	r0, [sp, #174]
	.loc	10 295 19 is_stmt 0             @ lvgl/src/lv_widgets/lv_canvas.c:295:19
	strh.w	r0, [sp, #64]
	.loc	10 296 20 is_stmt 1             @ lvgl/src/lv_widgets/lv_canvas.c:296:20
	ldrh.w	r0, [sp, #172]
	.loc	10 296 18 is_stmt 0             @ lvgl/src/lv_widgets/lv_canvas.c:296:18
	strh.w	r0, [sp, #66]
	.loc	10 297 19 is_stmt 1             @ lvgl/src/lv_widgets/lv_canvas.c:297:19
	ldr	r0, [sp, #176]
	.loc	10 297 24 is_stmt 0             @ lvgl/src/lv_widgets/lv_canvas.c:297:24
	ldr	r0, [r0, #8]
	.loc	10 297 17                       @ lvgl/src/lv_widgets/lv_canvas.c:297:17
	str	r0, [sp, #52]
	.loc	10 298 21 is_stmt 1             @ lvgl/src/lv_widgets/lv_canvas.c:298:21
	ldr	r0, [sp, #176]
	.loc	10 298 33 is_stmt 0             @ lvgl/src/lv_widgets/lv_canvas.c:298:33
	ldrh.w	r0, [r0, #1]
	.loc	10 298 21                       @ lvgl/src/lv_widgets/lv_canvas.c:298:21
	ubfx	r0, r0, #2, #11
	.loc	10 298 19                       @ lvgl/src/lv_widgets/lv_canvas.c:298:19
	strh.w	r0, [sp, #56]
	.loc	10 299 21 is_stmt 1             @ lvgl/src/lv_widgets/lv_canvas.c:299:21
	ldr	r0, [sp, #176]
	.loc	10 299 33 is_stmt 0             @ lvgl/src/lv_widgets/lv_canvas.c:299:33
	ldrb	r1, [r0, #3]
	ldrh.w	r0, [r0, #1]
	orr.w	r0, r0, r1, lsl #16
	lsrs	r0, r0, #13
	.loc	10 299 19                       @ lvgl/src/lv_widgets/lv_canvas.c:299:19
	strh.w	r0, [sp, #58]
	.loc	10 300 18 is_stmt 1             @ lvgl/src/lv_widgets/lv_canvas.c:300:18
	ldr	r0, [sp, #176]
	.loc	10 300 30 is_stmt 0             @ lvgl/src/lv_widgets/lv_canvas.c:300:30
	ldrb	r0, [r0]
	and	r0, r0, #31
	.loc	10 300 16                       @ lvgl/src/lv_widgets/lv_canvas.c:300:16
	strb.w	r0, [sp, #72]
	.loc	10 301 23 is_stmt 1             @ lvgl/src/lv_widgets/lv_canvas.c:301:23
	ldr	r0, [sp, #208]
	.loc	10 301 21 is_stmt 0             @ lvgl/src/lv_widgets/lv_canvas.c:301:21
	strh.w	r0, [sp, #60]
	.loc	10 302 23 is_stmt 1             @ lvgl/src/lv_widgets/lv_canvas.c:302:23
	ldr	r0, [sp, #212]
	.loc	10 302 21 is_stmt 0             @ lvgl/src/lv_widgets/lv_canvas.c:302:21
	strh.w	r0, [sp, #62]
	.loc	10 303 21 is_stmt 1             @ lvgl/src/lv_widgets/lv_canvas.c:303:21
	ldr	r0, [sp, #156]
	str	r0, [sp, #68]
	.loc	10 304 25                       @ lvgl/src/lv_widgets/lv_canvas.c:304:25
	ldrb.w	r0, [sp, #167]
	.loc	10 304 23 is_stmt 0             @ lvgl/src/lv_widgets/lv_canvas.c:304:23
	and	r0, r0, #1
	strb.w	r0, [sp, #73]
	add	r0, sp, #52
	.loc	10 305 5 is_stmt 1              @ lvgl/src/lv_widgets/lv_canvas.c:305:5
	bl	_lv_img_buf_transform_init
.Ltmp115:
	.loc	10 307 14                       @ lvgl/src/lv_widgets/lv_canvas.c:307:14
	ldrsh.w	r0, [sp, #168]
	.loc	10 307 13 is_stmt 0             @ lvgl/src/lv_widgets/lv_canvas.c:307:13
	rsbs	r0, r0, #0
	.loc	10 307 11                       @ lvgl/src/lv_widgets/lv_canvas.c:307:11
	str	r0, [sp, #140]
	.loc	10 307 9                        @ lvgl/src/lv_widgets/lv_canvas.c:307:9
	b	.LBB9_11
.LBB9_11:                               @ =>This Loop Header: Depth=1
                                        @     Child Loop BB9_13 Depth 2
.Ltmp116:
	.loc	10 307 24                       @ lvgl/src/lv_widgets/lv_canvas.c:307:24
	ldr	r0, [sp, #140]
	.loc	10 307 28                       @ lvgl/src/lv_widgets/lv_canvas.c:307:28
	ldr	r1, [sp, #148]
	.loc	10 307 42                       @ lvgl/src/lv_widgets/lv_canvas.c:307:42
	ldrsh.w	r2, [sp, #168]
	.loc	10 307 40                       @ lvgl/src/lv_widgets/lv_canvas.c:307:40
	subs	r1, r1, r2
.Ltmp117:
	.loc	10 307 5                        @ lvgl/src/lv_widgets/lv_canvas.c:307:5
	cmp	r0, r1
	bge.w	.LBB9_42
	b	.LBB9_12
.LBB9_12:                               @   in Loop: Header=BB9_11 Depth=1
.Ltmp118:
	.loc	10 308 18 is_stmt 1             @ lvgl/src/lv_widgets/lv_canvas.c:308:18
	ldrsh.w	r0, [sp, #170]
	.loc	10 308 17 is_stmt 0             @ lvgl/src/lv_widgets/lv_canvas.c:308:17
	rsbs	r0, r0, #0
	.loc	10 308 15                       @ lvgl/src/lv_widgets/lv_canvas.c:308:15
	str	r0, [sp, #144]
	.loc	10 308 13                       @ lvgl/src/lv_widgets/lv_canvas.c:308:13
	b	.LBB9_13
.LBB9_13:                               @   Parent Loop BB9_11 Depth=1
                                        @ =>  This Inner Loop Header: Depth=2
.Ltmp119:
	.loc	10 308 28                       @ lvgl/src/lv_widgets/lv_canvas.c:308:28
	ldr	r0, [sp, #144]
	.loc	10 308 32                       @ lvgl/src/lv_widgets/lv_canvas.c:308:32
	ldr	r1, [sp, #152]
	.loc	10 308 45                       @ lvgl/src/lv_widgets/lv_canvas.c:308:45
	ldrsh.w	r2, [sp, #170]
	.loc	10 308 43                       @ lvgl/src/lv_widgets/lv_canvas.c:308:43
	subs	r1, r1, r2
.Ltmp120:
	.loc	10 308 9                        @ lvgl/src/lv_widgets/lv_canvas.c:308:9
	cmp	r0, r1
	bge.w	.LBB9_40
	b	.LBB9_14
.LBB9_14:                               @   in Loop: Header=BB9_13 Depth=2
.Ltmp121:
	.loc	10 310 47 is_stmt 1             @ lvgl/src/lv_widgets/lv_canvas.c:310:47
	ldrsh.w	r1, [sp, #144]
	.loc	10 310 50 is_stmt 0             @ lvgl/src/lv_widgets/lv_canvas.c:310:50
	ldrsh.w	r2, [sp, #140]
	add	r0, sp, #52
	.loc	10 310 19                       @ lvgl/src/lv_widgets/lv_canvas.c:310:19
	bl	_lv_img_buf_transform
	.loc	10 310 17                       @ lvgl/src/lv_widgets/lv_canvas.c:310:17
	strb.w	r0, [sp, #139]
.Ltmp122:
	.loc	10 312 16 is_stmt 1             @ lvgl/src/lv_widgets/lv_canvas.c:312:16
	ldrb.w	r0, [sp, #139]
.Ltmp123:
	.loc	10 312 16 is_stmt 0             @ lvgl/src/lv_widgets/lv_canvas.c:312:16
	lsls	r0, r0, #31
	cbnz	r0, .LBB9_16
	b	.LBB9_15
.LBB9_15:                               @   in Loop: Header=BB9_13 Depth=2
.Ltmp124:
	.loc	10 312 30                       @ lvgl/src/lv_widgets/lv_canvas.c:312:30
	b	.LBB9_39
.Ltmp125:
.LBB9_16:                               @   in Loop: Header=BB9_13 Depth=2
	.loc	10 314 16 is_stmt 1             @ lvgl/src/lv_widgets/lv_canvas.c:314:16
	ldr	r0, [sp, #144]
	.loc	10 314 20 is_stmt 0             @ lvgl/src/lv_widgets/lv_canvas.c:314:20
	ldrsh.w	r1, [sp, #170]
	.loc	10 314 18                       @ lvgl/src/lv_widgets/lv_canvas.c:314:18
	add	r0, r1
	.loc	10 314 34                       @ lvgl/src/lv_widgets/lv_canvas.c:314:34
	cmp	r0, #0
	bmi.w	.LBB9_38
	b	.LBB9_17
.LBB9_17:                               @   in Loop: Header=BB9_13 Depth=2
	.loc	10 314 37                       @ lvgl/src/lv_widgets/lv_canvas.c:314:37
	ldr	r0, [sp, #144]
	.loc	10 314 41                       @ lvgl/src/lv_widgets/lv_canvas.c:314:41
	ldrsh.w	r1, [sp, #170]
	.loc	10 314 39                       @ lvgl/src/lv_widgets/lv_canvas.c:314:39
	add	r0, r1
	.loc	10 314 52                       @ lvgl/src/lv_widgets/lv_canvas.c:314:52
	ldr	r1, [sp, #152]
	.loc	10 314 63                       @ lvgl/src/lv_widgets/lv_canvas.c:314:63
	cmp	r0, r1
	bge.w	.LBB9_38
	b	.LBB9_18
.LBB9_18:                               @   in Loop: Header=BB9_13 Depth=2
	.loc	10 314 66                       @ lvgl/src/lv_widgets/lv_canvas.c:314:66
	ldr	r0, [sp, #140]
	.loc	10 314 70                       @ lvgl/src/lv_widgets/lv_canvas.c:314:70
	ldrsh.w	r1, [sp, #168]
	.loc	10 314 68                       @ lvgl/src/lv_widgets/lv_canvas.c:314:68
	add	r0, r1
	.loc	10 314 84                       @ lvgl/src/lv_widgets/lv_canvas.c:314:84
	cmp	r0, #0
	bmi.w	.LBB9_38
	b	.LBB9_19
.LBB9_19:                               @   in Loop: Header=BB9_13 Depth=2
	.loc	10 314 87                       @ lvgl/src/lv_widgets/lv_canvas.c:314:87
	ldr	r0, [sp, #140]
	.loc	10 314 91                       @ lvgl/src/lv_widgets/lv_canvas.c:314:91
	ldrsh.w	r1, [sp, #168]
	.loc	10 314 89                       @ lvgl/src/lv_widgets/lv_canvas.c:314:89
	add	r0, r1
	.loc	10 314 102                      @ lvgl/src/lv_widgets/lv_canvas.c:314:102
	ldr	r1, [sp, #148]
.Ltmp126:
	.loc	10 314 16                       @ lvgl/src/lv_widgets/lv_canvas.c:314:16
	cmp	r0, r1
	bge.w	.LBB9_38
	b	.LBB9_20
.LBB9_20:                               @   in Loop: Header=BB9_13 Depth=2
.Ltmp127:
	.loc	10 316 40 is_stmt 1             @ lvgl/src/lv_widgets/lv_canvas.c:316:40
	ldr	r0, [sp, #176]
	.loc	10 316 52 is_stmt 0             @ lvgl/src/lv_widgets/lv_canvas.c:316:52
	ldrb	r0, [r0]
	and	r0, r0, #31
	.loc	10 316 20                       @ lvgl/src/lv_widgets/lv_canvas.c:316:20
	bl	lv_img_cf_has_alpha
.Ltmp128:
	.loc	10 316 20                       @ lvgl/src/lv_widgets/lv_canvas.c:316:20
	cbnz	r0, .LBB9_22
	b	.LBB9_21
.LBB9_21:                               @   in Loop: Header=BB9_13 Depth=2
.Ltmp129:
	.loc	10 317 46 is_stmt 1             @ lvgl/src/lv_widgets/lv_canvas.c:317:46
	ldr	r0, [sp, #160]
	.loc	10 317 55 is_stmt 0             @ lvgl/src/lv_widgets/lv_canvas.c:317:55
	adds	r0, #24
	.loc	10 317 60                       @ lvgl/src/lv_widgets/lv_canvas.c:317:60
	ldr	r1, [sp, #144]
	.loc	10 317 64                       @ lvgl/src/lv_widgets/lv_canvas.c:317:64
	ldrh.w	r2, [sp, #170]
	.loc	10 317 62                       @ lvgl/src/lv_widgets/lv_canvas.c:317:62
	add	r1, r2
	.loc	10 317 74                       @ lvgl/src/lv_widgets/lv_canvas.c:317:74
	ldr	r2, [sp, #140]
	.loc	10 317 78                       @ lvgl/src/lv_widgets/lv_canvas.c:317:78
	ldrh.w	r3, [sp, #168]
	.loc	10 317 76                       @ lvgl/src/lv_widgets/lv_canvas.c:317:76
	add	r2, r3
	.loc	10 317 21                       @ lvgl/src/lv_widgets/lv_canvas.c:317:21
	ldr	r3, [sp, #76]
	sxth	r1, r1
	sxth	r2, r2
	bl	lv_img_buf_set_px_color
	.loc	10 318 17 is_stmt 1             @ lvgl/src/lv_widgets/lv_canvas.c:318:17
	b	.LBB9_37
.Ltmp130:
.LBB9_22:                               @   in Loop: Header=BB9_13 Depth=2
	.loc	10 320 68                       @ lvgl/src/lv_widgets/lv_canvas.c:320:68
	ldr	r0, [sp, #160]
	.loc	10 320 77 is_stmt 0             @ lvgl/src/lv_widgets/lv_canvas.c:320:77
	adds	r0, #24
	.loc	10 320 82                       @ lvgl/src/lv_widgets/lv_canvas.c:320:82
	ldr	r1, [sp, #144]
	.loc	10 320 86                       @ lvgl/src/lv_widgets/lv_canvas.c:320:86
	ldrh.w	r2, [sp, #170]
	.loc	10 320 84                       @ lvgl/src/lv_widgets/lv_canvas.c:320:84
	add	r1, r2
	.loc	10 320 96                       @ lvgl/src/lv_widgets/lv_canvas.c:320:96
	ldr	r2, [sp, #140]
	.loc	10 320 100                      @ lvgl/src/lv_widgets/lv_canvas.c:320:100
	ldrh.w	r3, [sp, #168]
	.loc	10 320 98                       @ lvgl/src/lv_widgets/lv_canvas.c:320:98
	add	r2, r3
	.loc	10 320 43                       @ lvgl/src/lv_widgets/lv_canvas.c:320:43
	ldr	r3, [sp, #68]
	sxth	r1, r1
	sxth	r2, r2
	bl	lv_img_buf_get_px_color
	str	r0, [sp, #48]
.Ltmp131:
	.loc	10 324 44 is_stmt 1             @ lvgl/src/lv_widgets/lv_canvas.c:324:44
	ldr	r0, [sp, #160]
	.loc	10 324 64 is_stmt 0             @ lvgl/src/lv_widgets/lv_canvas.c:324:64
	ldrb	r0, [r0, #24]
	and	r0, r0, #31
	.loc	10 324 24                       @ lvgl/src/lv_widgets/lv_canvas.c:324:24
	bl	lv_img_cf_has_alpha
.Ltmp132:
	.loc	10 324 24                       @ lvgl/src/lv_widgets/lv_canvas.c:324:24
	cbnz	r0, .LBB9_26
	b	.LBB9_23
.LBB9_23:                               @   in Loop: Header=BB9_13 Depth=2
.Ltmp133:
	.loc	10 325 36 is_stmt 1             @ lvgl/src/lv_widgets/lv_canvas.c:325:36
	ldrb.w	r0, [sp, #80]
.Ltmp134:
	.loc	10 325 28 is_stmt 0             @ lvgl/src/lv_widgets/lv_canvas.c:325:28
	cmp	r0, #252
	bgt	.LBB9_25
	b	.LBB9_24
.LBB9_24:                               @   in Loop: Header=BB9_13 Depth=2
.Ltmp135:
	.loc	10 325 116                      @ lvgl/src/lv_widgets/lv_canvas.c:325:116
	ldrb.w	r2, [sp, #80]
	.loc	10 325 70                       @ lvgl/src/lv_widgets/lv_canvas.c:325:70
	ldr	r0, [sp, #76]
	ldr	r1, [sp, #48]
	bl	lv_color_mix
	str	r0, [sp, #44]
	ldr	r0, [sp, #44]
	str	r0, [sp, #76]
	.loc	10 325 54                       @ lvgl/src/lv_widgets/lv_canvas.c:325:54
	b	.LBB9_25
.Ltmp136:
.LBB9_25:                               @   in Loop: Header=BB9_13 Depth=2
	.loc	10 326 50 is_stmt 1             @ lvgl/src/lv_widgets/lv_canvas.c:326:50
	ldr	r0, [sp, #160]
	.loc	10 326 59 is_stmt 0             @ lvgl/src/lv_widgets/lv_canvas.c:326:59
	adds	r0, #24
	.loc	10 326 64                       @ lvgl/src/lv_widgets/lv_canvas.c:326:64
	ldr	r1, [sp, #144]
	.loc	10 326 68                       @ lvgl/src/lv_widgets/lv_canvas.c:326:68
	ldrh.w	r2, [sp, #170]
	.loc	10 326 66                       @ lvgl/src/lv_widgets/lv_canvas.c:326:66
	add	r1, r2
	.loc	10 326 78                       @ lvgl/src/lv_widgets/lv_canvas.c:326:78
	ldr	r2, [sp, #140]
	.loc	10 326 82                       @ lvgl/src/lv_widgets/lv_canvas.c:326:82
	ldrh.w	r3, [sp, #168]
	.loc	10 326 80                       @ lvgl/src/lv_widgets/lv_canvas.c:326:80
	add	r2, r3
	.loc	10 326 25                       @ lvgl/src/lv_widgets/lv_canvas.c:326:25
	ldr	r3, [sp, #76]
	sxth	r1, r1
	sxth	r2, r2
	bl	lv_img_buf_set_px_color
	.loc	10 327 21 is_stmt 1             @ lvgl/src/lv_widgets/lv_canvas.c:327:21
	b	.LBB9_36
.Ltmp137:
.LBB9_26:                               @   in Loop: Header=BB9_13 Depth=2
	.loc	10 331 68                       @ lvgl/src/lv_widgets/lv_canvas.c:331:68
	ldr	r0, [sp, #160]
	.loc	10 331 77 is_stmt 0             @ lvgl/src/lv_widgets/lv_canvas.c:331:77
	adds	r0, #24
	.loc	10 331 82                       @ lvgl/src/lv_widgets/lv_canvas.c:331:82
	ldr	r1, [sp, #144]
	.loc	10 331 86                       @ lvgl/src/lv_widgets/lv_canvas.c:331:86
	ldrh.w	r2, [sp, #170]
	.loc	10 331 84                       @ lvgl/src/lv_widgets/lv_canvas.c:331:84
	add	r1, r2
	.loc	10 331 96                       @ lvgl/src/lv_widgets/lv_canvas.c:331:96
	ldr	r2, [sp, #140]
	.loc	10 331 100                      @ lvgl/src/lv_widgets/lv_canvas.c:331:100
	ldrh.w	r3, [sp, #168]
	.loc	10 331 98                       @ lvgl/src/lv_widgets/lv_canvas.c:331:98
	add	r2, r3
	.loc	10 331 43                       @ lvgl/src/lv_widgets/lv_canvas.c:331:43
	sxth	r1, r1
	sxth	r2, r2
	bl	lv_img_buf_get_px_alpha
	.loc	10 331 34                       @ lvgl/src/lv_widgets/lv_canvas.c:331:34
	strb.w	r0, [sp, #43]
.Ltmp138:
	.loc	10 334 36 is_stmt 1             @ lvgl/src/lv_widgets/lv_canvas.c:334:36
	ldrb.w	r0, [sp, #80]
	.loc	10 334 54 is_stmt 0             @ lvgl/src/lv_widgets/lv_canvas.c:334:54
	cmp	r0, #252
	bgt	.LBB9_28
	b	.LBB9_27
.LBB9_27:                               @   in Loop: Header=BB9_13 Depth=2
	.loc	10 334 57                       @ lvgl/src/lv_widgets/lv_canvas.c:334:57
	ldrb.w	r0, [sp, #43]
.Ltmp139:
	.loc	10 334 28                       @ lvgl/src/lv_widgets/lv_canvas.c:334:28
	cmp	r0, #2
	bgt	.LBB9_29
	b	.LBB9_28
.LBB9_28:                               @   in Loop: Header=BB9_13 Depth=2
.Ltmp140:
	.loc	10 335 54 is_stmt 1             @ lvgl/src/lv_widgets/lv_canvas.c:335:54
	ldr	r0, [sp, #160]
	.loc	10 335 63 is_stmt 0             @ lvgl/src/lv_widgets/lv_canvas.c:335:63
	adds	r0, #24
	.loc	10 335 68                       @ lvgl/src/lv_widgets/lv_canvas.c:335:68
	ldr	r1, [sp, #144]
	.loc	10 335 72                       @ lvgl/src/lv_widgets/lv_canvas.c:335:72
	ldrh.w	r2, [sp, #170]
	.loc	10 335 70                       @ lvgl/src/lv_widgets/lv_canvas.c:335:70
	add	r1, r2
	.loc	10 335 82                       @ lvgl/src/lv_widgets/lv_canvas.c:335:82
	ldr	r2, [sp, #140]
	.loc	10 335 86                       @ lvgl/src/lv_widgets/lv_canvas.c:335:86
	ldrh.w	r3, [sp, #168]
	.loc	10 335 84                       @ lvgl/src/lv_widgets/lv_canvas.c:335:84
	add	r2, r3
	.loc	10 335 29                       @ lvgl/src/lv_widgets/lv_canvas.c:335:29
	ldr	r3, [sp, #76]
	sxth	r1, r1
	sxth	r2, r2
	bl	lv_img_buf_set_px_color
	.loc	10 336 54 is_stmt 1             @ lvgl/src/lv_widgets/lv_canvas.c:336:54
	ldr	r0, [sp, #160]
	.loc	10 336 63 is_stmt 0             @ lvgl/src/lv_widgets/lv_canvas.c:336:63
	adds	r0, #24
	.loc	10 336 68                       @ lvgl/src/lv_widgets/lv_canvas.c:336:68
	ldr	r1, [sp, #144]
	.loc	10 336 72                       @ lvgl/src/lv_widgets/lv_canvas.c:336:72
	ldrh.w	r2, [sp, #170]
	.loc	10 336 70                       @ lvgl/src/lv_widgets/lv_canvas.c:336:70
	add	r1, r2
	.loc	10 336 82                       @ lvgl/src/lv_widgets/lv_canvas.c:336:82
	ldr	r2, [sp, #140]
	.loc	10 336 86                       @ lvgl/src/lv_widgets/lv_canvas.c:336:86
	ldrh.w	r3, [sp, #168]
	.loc	10 336 84                       @ lvgl/src/lv_widgets/lv_canvas.c:336:84
	add	r2, r3
	.loc	10 336 104                      @ lvgl/src/lv_widgets/lv_canvas.c:336:104
	ldrb.w	r3, [sp, #80]
	.loc	10 336 29                       @ lvgl/src/lv_widgets/lv_canvas.c:336:29
	sxth	r1, r1
	sxth	r2, r2
	bl	lv_img_buf_set_px_alpha
	.loc	10 337 25 is_stmt 1             @ lvgl/src/lv_widgets/lv_canvas.c:337:25
	b	.LBB9_35
.Ltmp141:
.LBB9_29:                               @   in Loop: Header=BB9_13 Depth=2
	.loc	10 339 33                       @ lvgl/src/lv_widgets/lv_canvas.c:339:33
	ldrb.w	r0, [sp, #43]
.Ltmp142:
	.loc	10 339 33 is_stmt 0             @ lvgl/src/lv_widgets/lv_canvas.c:339:33
	cmp	r0, #253
	blt	.LBB9_31
	b	.LBB9_30
.LBB9_30:                               @   in Loop: Header=BB9_13 Depth=2
.Ltmp143:
	.loc	10 340 54 is_stmt 1             @ lvgl/src/lv_widgets/lv_canvas.c:340:54
	ldr	r0, [sp, #160]
	.loc	10 340 63 is_stmt 0             @ lvgl/src/lv_widgets/lv_canvas.c:340:63
	adds	r0, #24
	.loc	10 340 68                       @ lvgl/src/lv_widgets/lv_canvas.c:340:68
	str	r0, [sp, #24]                   @ 4-byte Spill
	ldr	r0, [sp, #144]
	.loc	10 340 72                       @ lvgl/src/lv_widgets/lv_canvas.c:340:72
	ldrh.w	r1, [sp, #170]
	.loc	10 340 70                       @ lvgl/src/lv_widgets/lv_canvas.c:340:70
	add	r0, r1
	.loc	10 340 82                       @ lvgl/src/lv_widgets/lv_canvas.c:340:82
	str	r0, [sp, #16]                   @ 4-byte Spill
	ldr	r0, [sp, #140]
	.loc	10 340 86                       @ lvgl/src/lv_widgets/lv_canvas.c:340:86
	ldrh.w	r1, [sp, #168]
	.loc	10 340 84                       @ lvgl/src/lv_widgets/lv_canvas.c:340:84
	add	r0, r1
	.loc	10 341 99 is_stmt 1             @ lvgl/src/lv_widgets/lv_canvas.c:341:99
	str	r0, [sp, #20]                   @ 4-byte Spill
	ldrb.w	r2, [sp, #80]
	.loc	10 341 53 is_stmt 0             @ lvgl/src/lv_widgets/lv_canvas.c:341:53
	ldr	r0, [sp, #76]
	ldr	r1, [sp, #48]
	bl	lv_color_mix
	ldr	r1, [sp, #16]                   @ 4-byte Reload
	ldr	r2, [sp, #20]                   @ 4-byte Reload
	mov	r3, r0
	ldr	r0, [sp, #24]                   @ 4-byte Reload
	str	r3, [sp, #36]
	.loc	10 340 29 is_stmt 1             @ lvgl/src/lv_widgets/lv_canvas.c:340:29
	ldr	r3, [sp, #36]
	sxth	r1, r1
	sxth	r2, r2
	bl	lv_img_buf_set_px_color
	.loc	10 342 25                       @ lvgl/src/lv_widgets/lv_canvas.c:342:25
	b	.LBB9_34
.Ltmp144:
.LBB9_31:                               @   in Loop: Header=BB9_13 Depth=2
	.loc	10 348 93                       @ lvgl/src/lv_widgets/lv_canvas.c:348:93
	ldrb.w	r0, [sp, #80]
	.loc	10 348 83 is_stmt 0             @ lvgl/src/lv_widgets/lv_canvas.c:348:83
	rsb.w	r0, r0, #255
	.loc	10 348 107                      @ lvgl/src/lv_widgets/lv_canvas.c:348:107
	ldrb.w	r1, [sp, #43]
	.loc	10 348 105                      @ lvgl/src/lv_widgets/lv_canvas.c:348:105
	rsb.w	r1, r1, #255
	.loc	10 348 98                       @ lvgl/src/lv_widgets/lv_canvas.c:348:98
	muls	r1, r0, r1
	movs	r0, #255
	.loc	10 348 54                       @ lvgl/src/lv_widgets/lv_canvas.c:348:54
	sub.w	r0, r0, r1, lsr #8
	.loc	10 348 38                       @ lvgl/src/lv_widgets/lv_canvas.c:348:38
	strb.w	r0, [sp, #35]
.Ltmp145:
	.loc	10 349 32 is_stmt 1             @ lvgl/src/lv_widgets/lv_canvas.c:349:32
	ldrb.w	r0, [sp, #35]
.Ltmp146:
	.loc	10 349 32 is_stmt 0             @ lvgl/src/lv_widgets/lv_canvas.c:349:32
	cbnz	r0, .LBB9_33
	b	.LBB9_32
.LBB9_32:                               @   in Loop: Header=BB9_13 Depth=2
	.loc	10 0 32                         @ lvgl/src/lv_widgets/lv_canvas.c:0:32
	movs	r0, #1
.Ltmp147:
	.loc	10 350 43 is_stmt 1             @ lvgl/src/lv_widgets/lv_canvas.c:350:43
	strb.w	r0, [sp, #35]
	.loc	10 351 29                       @ lvgl/src/lv_widgets/lv_canvas.c:351:29
	b	.LBB9_33
.Ltmp148:
.LBB9_33:                               @   in Loop: Header=BB9_13 Depth=2
	.loc	10 352 75                       @ lvgl/src/lv_widgets/lv_canvas.c:352:75
	ldrb.w	r0, [sp, #80]
	.loc	10 352 79 is_stmt 0             @ lvgl/src/lv_widgets/lv_canvas.c:352:79
	rsb	r0, r0, r0, lsl #8
	.loc	10 352 88                       @ lvgl/src/lv_widgets/lv_canvas.c:352:88
	ldrb.w	r1, [sp, #35]
	.loc	10 352 86                       @ lvgl/src/lv_widgets/lv_canvas.c:352:86
	udiv	r0, r0, r1
	.loc	10 352 38                       @ lvgl/src/lv_widgets/lv_canvas.c:352:38
	strb.w	r0, [sp, #34]
	.loc	10 354 54 is_stmt 1             @ lvgl/src/lv_widgets/lv_canvas.c:354:54
	ldr	r0, [sp, #160]
	.loc	10 354 63 is_stmt 0             @ lvgl/src/lv_widgets/lv_canvas.c:354:63
	adds	r0, #24
	.loc	10 354 68                       @ lvgl/src/lv_widgets/lv_canvas.c:354:68
	str	r0, [sp, #12]                   @ 4-byte Spill
	ldr	r0, [sp, #144]
	.loc	10 354 72                       @ lvgl/src/lv_widgets/lv_canvas.c:354:72
	ldrh.w	r1, [sp, #170]
	.loc	10 354 70                       @ lvgl/src/lv_widgets/lv_canvas.c:354:70
	add	r0, r1
	.loc	10 354 82                       @ lvgl/src/lv_widgets/lv_canvas.c:354:82
	str	r0, [sp, #4]                    @ 4-byte Spill
	ldr	r0, [sp, #140]
	.loc	10 354 86                       @ lvgl/src/lv_widgets/lv_canvas.c:354:86
	ldrh.w	r1, [sp, #168]
	.loc	10 354 84                       @ lvgl/src/lv_widgets/lv_canvas.c:354:84
	add	r0, r1
	.loc	10 355 91 is_stmt 1             @ lvgl/src/lv_widgets/lv_canvas.c:355:91
	str	r0, [sp, #8]                    @ 4-byte Spill
	ldrb.w	r2, [sp, #34]
	.loc	10 355 53 is_stmt 0             @ lvgl/src/lv_widgets/lv_canvas.c:355:53
	ldr	r0, [sp, #76]
	ldr	r1, [sp, #48]
	bl	lv_color_mix
	ldr	r1, [sp, #4]                    @ 4-byte Reload
	ldr	r2, [sp, #8]                    @ 4-byte Reload
	mov	r3, r0
	ldr	r0, [sp, #12]                   @ 4-byte Reload
	str	r3, [sp, #28]
	.loc	10 354 29 is_stmt 1             @ lvgl/src/lv_widgets/lv_canvas.c:354:29
	ldr	r3, [sp, #28]
	sxth	r1, r1
	sxth	r2, r2
	bl	lv_img_buf_set_px_color
	.loc	10 356 54                       @ lvgl/src/lv_widgets/lv_canvas.c:356:54
	ldr	r0, [sp, #160]
	.loc	10 356 63 is_stmt 0             @ lvgl/src/lv_widgets/lv_canvas.c:356:63
	adds	r0, #24
	.loc	10 356 68                       @ lvgl/src/lv_widgets/lv_canvas.c:356:68
	ldr	r1, [sp, #144]
	.loc	10 356 72                       @ lvgl/src/lv_widgets/lv_canvas.c:356:72
	ldrh.w	r2, [sp, #170]
	.loc	10 356 70                       @ lvgl/src/lv_widgets/lv_canvas.c:356:70
	add	r1, r2
	.loc	10 356 82                       @ lvgl/src/lv_widgets/lv_canvas.c:356:82
	ldr	r2, [sp, #140]
	.loc	10 356 86                       @ lvgl/src/lv_widgets/lv_canvas.c:356:86
	ldrh.w	r3, [sp, #168]
	.loc	10 356 84                       @ lvgl/src/lv_widgets/lv_canvas.c:356:84
	add	r2, r3
	.loc	10 356 96                       @ lvgl/src/lv_widgets/lv_canvas.c:356:96
	ldrb.w	r3, [sp, #35]
	.loc	10 356 29                       @ lvgl/src/lv_widgets/lv_canvas.c:356:29
	sxth	r1, r1
	sxth	r2, r2
	bl	lv_img_buf_set_px_alpha
	b	.LBB9_34
.Ltmp149:
.LBB9_34:                               @   in Loop: Header=BB9_13 Depth=2
	.loc	10 0 29                         @ lvgl/src/lv_widgets/lv_canvas.c:0:29
	b	.LBB9_35
.LBB9_35:                               @   in Loop: Header=BB9_13 Depth=2
	b	.LBB9_36
.LBB9_36:                               @   in Loop: Header=BB9_13 Depth=2
	b	.LBB9_37
.LBB9_37:                               @   in Loop: Header=BB9_13 Depth=2
	.loc	10 360 13 is_stmt 1             @ lvgl/src/lv_widgets/lv_canvas.c:360:13
	b	.LBB9_38
.Ltmp150:
.LBB9_38:                               @   in Loop: Header=BB9_13 Depth=2
	.loc	10 361 9                        @ lvgl/src/lv_widgets/lv_canvas.c:361:9
	b	.LBB9_39
.Ltmp151:
.LBB9_39:                               @   in Loop: Header=BB9_13 Depth=2
	.loc	10 308 56                       @ lvgl/src/lv_widgets/lv_canvas.c:308:56
	ldr	r0, [sp, #144]
	adds	r0, #1
	str	r0, [sp, #144]
	.loc	10 308 9 is_stmt 0              @ lvgl/src/lv_widgets/lv_canvas.c:308:9
	b	.LBB9_13
.Ltmp152:
.LBB9_40:                               @   in Loop: Header=BB9_11 Depth=1
	.loc	10 362 5 is_stmt 1              @ lvgl/src/lv_widgets/lv_canvas.c:362:5
	b	.LBB9_41
.Ltmp153:
.LBB9_41:                               @   in Loop: Header=BB9_11 Depth=1
	.loc	10 307 53                       @ lvgl/src/lv_widgets/lv_canvas.c:307:53
	ldr	r0, [sp, #140]
	adds	r0, #1
	str	r0, [sp, #140]
	.loc	10 307 5 is_stmt 0              @ lvgl/src/lv_widgets/lv_canvas.c:307:5
	b	.LBB9_11
.Ltmp154:
.LBB9_42:
	.loc	10 364 23 is_stmt 1             @ lvgl/src/lv_widgets/lv_canvas.c:364:23
	ldr	r0, [sp, #180]
	.loc	10 364 5 is_stmt 0              @ lvgl/src/lv_widgets/lv_canvas.c:364:5
	bl	lv_obj_invalidate
	.loc	10 377 1 is_stmt 1              @ lvgl/src/lv_widgets/lv_canvas.c:377:1
	add	sp, #184
	pop	{r4, r5, r7, pc}
.Ltmp155:
.Lfunc_end9:
	.size	lv_canvas_transform, .Lfunc_end9-lv_canvas_transform
	.cfi_endproc
	.cantunwind
	.fnend
                                        @ -- End function
	.section	.text._lv_img_buf_transform,"ax",%progbits
	.p2align	3                               @ -- Begin function _lv_img_buf_transform
	.type	_lv_img_buf_transform,%function
	.code	16                              @ @_lv_img_buf_transform
	.thumb_func
_lv_img_buf_transform:
.Lfunc_begin10:
	.loc	12 290 0                        @ lvgl/src/lv_widgets/../lv_core/../lv_draw/lv_img_buf.h:290:0
	.fnstart
	.cfi_startproc
@ %bb.0:
	.save	{r7, lr}
	push	{r7, lr}
	.cfi_def_cfa_offset 8
	.cfi_offset lr, -4
	.cfi_offset r7, -8
	.pad	#64
	sub	sp, #64
	.cfi_def_cfa_offset 72
                                        @ kill: def $r3 killed $r2
                                        @ kill: def $r3 killed $r1
	str	r0, [sp, #56]
	strh.w	r1, [sp, #54]
	strh.w	r2, [sp, #52]
.Ltmp156:
	.loc	12 291 47 prologue_end          @ lvgl/src/lv_widgets/../lv_core/../lv_draw/lv_img_buf.h:291:47
	ldr	r0, [sp, #56]
	.loc	12 291 56 is_stmt 0             @ lvgl/src/lv_widgets/../lv_core/../lv_draw/lv_img_buf.h:291:56
	ldr	r0, [r0]
	.loc	12 291 21                       @ lvgl/src/lv_widgets/../lv_core/../lv_draw/lv_img_buf.h:291:21
	str	r0, [sp, #48]
	.loc	12 294 18 is_stmt 1             @ lvgl/src/lv_widgets/../lv_core/../lv_draw/lv_img_buf.h:294:18
	ldrsh.w	r0, [sp, #54]
	.loc	12 294 22 is_stmt 0             @ lvgl/src/lv_widgets/../lv_core/../lv_draw/lv_img_buf.h:294:22
	ldr	r1, [sp, #56]
	.loc	12 294 31                       @ lvgl/src/lv_widgets/../lv_core/../lv_draw/lv_img_buf.h:294:31
	ldrsh.w	r1, [r1, #8]
	.loc	12 294 20                       @ lvgl/src/lv_widgets/../lv_core/../lv_draw/lv_img_buf.h:294:20
	subs	r0, r0, r1
	.loc	12 294 13                       @ lvgl/src/lv_widgets/../lv_core/../lv_draw/lv_img_buf.h:294:13
	str	r0, [sp, #44]
	.loc	12 295 18 is_stmt 1             @ lvgl/src/lv_widgets/../lv_core/../lv_draw/lv_img_buf.h:295:18
	ldrsh.w	r0, [sp, #52]
	.loc	12 295 22 is_stmt 0             @ lvgl/src/lv_widgets/../lv_core/../lv_draw/lv_img_buf.h:295:22
	ldr	r1, [sp, #56]
	.loc	12 295 31                       @ lvgl/src/lv_widgets/../lv_core/../lv_draw/lv_img_buf.h:295:31
	ldrsh.w	r1, [r1, #10]
	.loc	12 295 20                       @ lvgl/src/lv_widgets/../lv_core/../lv_draw/lv_img_buf.h:295:20
	subs	r0, r0, r1
	.loc	12 295 13                       @ lvgl/src/lv_widgets/../lv_core/../lv_draw/lv_img_buf.h:295:13
	str	r0, [sp, #40]
.Ltmp157:
	.loc	12 299 8 is_stmt 1              @ lvgl/src/lv_widgets/../lv_core/../lv_draw/lv_img_buf.h:299:8
	ldr	r0, [sp, #56]
	.loc	12 299 17 is_stmt 0             @ lvgl/src/lv_widgets/../lv_core/../lv_draw/lv_img_buf.h:299:17
	ldrh	r0, [r0, #14]
.Ltmp158:
	.loc	12 299 8                        @ lvgl/src/lv_widgets/../lv_core/../lv_draw/lv_img_buf.h:299:8
	cmp.w	r0, #256
	bne	.LBB10_2
	b	.LBB10_1
.LBB10_1:
.Ltmp159:
	.loc	12 301 16 is_stmt 1             @ lvgl/src/lv_widgets/../lv_core/../lv_draw/lv_img_buf.h:301:16
	ldr	r2, [sp, #56]
	.loc	12 301 106 is_stmt 0            @ lvgl/src/lv_widgets/../lv_core/../lv_draw/lv_img_buf.h:301:106
	ldr	r0, [r2, #44]
	.loc	12 301 47                       @ lvgl/src/lv_widgets/../lv_core/../lv_draw/lv_img_buf.h:301:47
	ldr	r1, [r2, #52]
	.loc	12 301 25                       @ lvgl/src/lv_widgets/../lv_core/../lv_draw/lv_img_buf.h:301:25
	ldr	r2, [r2, #56]
	.loc	12 301 33                       @ lvgl/src/lv_widgets/../lv_core/../lv_draw/lv_img_buf.h:301:33
	ldr	r3, [sp, #44]
	.loc	12 301 31                       @ lvgl/src/lv_widgets/../lv_core/../lv_draw/lv_img_buf.h:301:31
	muls	r3, r2, r3
	.loc	12 301 55                       @ lvgl/src/lv_widgets/../lv_core/../lv_draw/lv_img_buf.h:301:55
	ldr	r2, [sp, #40]
	.loc	12 301 36                       @ lvgl/src/lv_widgets/../lv_core/../lv_draw/lv_img_buf.h:301:36
	mls	r1, r1, r2, r3
	.loc	12 301 95                       @ lvgl/src/lv_widgets/../lv_core/../lv_draw/lv_img_buf.h:301:95
	add.w	r0, r0, r1, asr #2
	.loc	12 301 12                       @ lvgl/src/lv_widgets/../lv_core/../lv_draw/lv_img_buf.h:301:12
	str	r0, [sp, #36]
	.loc	12 302 16 is_stmt 1             @ lvgl/src/lv_widgets/../lv_core/../lv_draw/lv_img_buf.h:302:16
	ldr	r3, [sp, #56]
	.loc	12 302 33 is_stmt 0             @ lvgl/src/lv_widgets/../lv_core/../lv_draw/lv_img_buf.h:302:33
	ldr	r2, [sp, #44]
	.loc	12 302 106                      @ lvgl/src/lv_widgets/../lv_core/../lv_draw/lv_img_buf.h:302:106
	ldr	r0, [r3, #48]
	.loc	12 302 25                       @ lvgl/src/lv_widgets/../lv_core/../lv_draw/lv_img_buf.h:302:25
	ldr	r1, [r3, #52]
	.loc	12 302 47                       @ lvgl/src/lv_widgets/../lv_core/../lv_draw/lv_img_buf.h:302:47
	ldr	r3, [r3, #56]
	.loc	12 302 55                       @ lvgl/src/lv_widgets/../lv_core/../lv_draw/lv_img_buf.h:302:55
	ldr.w	r12, [sp, #40]
	.loc	12 302 53                       @ lvgl/src/lv_widgets/../lv_core/../lv_draw/lv_img_buf.h:302:53
	mul	r3, r3, r12
	.loc	12 302 36                       @ lvgl/src/lv_widgets/../lv_core/../lv_draw/lv_img_buf.h:302:36
	mla	r1, r1, r2, r3
	.loc	12 302 95                       @ lvgl/src/lv_widgets/../lv_core/../lv_draw/lv_img_buf.h:302:95
	add.w	r0, r0, r1, asr #2
	.loc	12 302 12                       @ lvgl/src/lv_widgets/../lv_core/../lv_draw/lv_img_buf.h:302:12
	str	r0, [sp, #32]
	.loc	12 303 5 is_stmt 1              @ lvgl/src/lv_widgets/../lv_core/../lv_draw/lv_img_buf.h:303:5
	b	.LBB10_6
.Ltmp160:
.LBB10_2:
	.loc	12 304 13                       @ lvgl/src/lv_widgets/../lv_core/../lv_draw/lv_img_buf.h:304:13
	ldr	r0, [sp, #56]
	.loc	12 304 22 is_stmt 0             @ lvgl/src/lv_widgets/../lv_core/../lv_draw/lv_img_buf.h:304:22
	ldrsh.w	r0, [r0, #12]
.Ltmp161:
	.loc	12 304 13                       @ lvgl/src/lv_widgets/../lv_core/../lv_draw/lv_img_buf.h:304:13
	cbnz	r0, .LBB10_4
	b	.LBB10_3
.LBB10_3:
.Ltmp162:
	.loc	12 305 33 is_stmt 1             @ lvgl/src/lv_widgets/../lv_core/../lv_draw/lv_img_buf.h:305:33
	ldr	r0, [sp, #44]
	.loc	12 305 38 is_stmt 0             @ lvgl/src/lv_widgets/../lv_core/../lv_draw/lv_img_buf.h:305:38
	ldr	r1, [sp, #56]
	.loc	12 305 47                       @ lvgl/src/lv_widgets/../lv_core/../lv_draw/lv_img_buf.h:305:47
	ldr	r1, [r1, #64]
	.loc	12 305 36                       @ lvgl/src/lv_widgets/../lv_core/../lv_draw/lv_img_buf.h:305:36
	muls	r0, r1, r0
	.loc	12 305 57                       @ lvgl/src/lv_widgets/../lv_core/../lv_draw/lv_img_buf.h:305:57
	asrs	r0, r0, #5
	.loc	12 305 12                       @ lvgl/src/lv_widgets/../lv_core/../lv_draw/lv_img_buf.h:305:12
	str	r0, [sp, #44]
	.loc	12 306 33 is_stmt 1             @ lvgl/src/lv_widgets/../lv_core/../lv_draw/lv_img_buf.h:306:33
	ldr	r0, [sp, #40]
	.loc	12 306 38 is_stmt 0             @ lvgl/src/lv_widgets/../lv_core/../lv_draw/lv_img_buf.h:306:38
	ldr	r1, [sp, #56]
	.loc	12 306 47                       @ lvgl/src/lv_widgets/../lv_core/../lv_draw/lv_img_buf.h:306:47
	ldr	r1, [r1, #64]
	.loc	12 306 36                       @ lvgl/src/lv_widgets/../lv_core/../lv_draw/lv_img_buf.h:306:36
	muls	r0, r1, r0
	.loc	12 306 57                       @ lvgl/src/lv_widgets/../lv_core/../lv_draw/lv_img_buf.h:306:57
	asrs	r0, r0, #5
	.loc	12 306 12                       @ lvgl/src/lv_widgets/../lv_core/../lv_draw/lv_img_buf.h:306:12
	str	r0, [sp, #40]
	.loc	12 307 14 is_stmt 1             @ lvgl/src/lv_widgets/../lv_core/../lv_draw/lv_img_buf.h:307:14
	ldr	r0, [sp, #44]
	.loc	12 307 19 is_stmt 0             @ lvgl/src/lv_widgets/../lv_core/../lv_draw/lv_img_buf.h:307:19
	ldr	r1, [sp, #56]
	.loc	12 307 28                       @ lvgl/src/lv_widgets/../lv_core/../lv_draw/lv_img_buf.h:307:28
	ldr	r1, [r1, #44]
	.loc	12 307 17                       @ lvgl/src/lv_widgets/../lv_core/../lv_draw/lv_img_buf.h:307:17
	add	r0, r1
	.loc	12 307 12                       @ lvgl/src/lv_widgets/../lv_core/../lv_draw/lv_img_buf.h:307:12
	str	r0, [sp, #36]
	.loc	12 308 14 is_stmt 1             @ lvgl/src/lv_widgets/../lv_core/../lv_draw/lv_img_buf.h:308:14
	ldr	r0, [sp, #40]
	.loc	12 308 19 is_stmt 0             @ lvgl/src/lv_widgets/../lv_core/../lv_draw/lv_img_buf.h:308:19
	ldr	r1, [sp, #56]
	.loc	12 308 28                       @ lvgl/src/lv_widgets/../lv_core/../lv_draw/lv_img_buf.h:308:28
	ldr	r1, [r1, #48]
	.loc	12 308 17                       @ lvgl/src/lv_widgets/../lv_core/../lv_draw/lv_img_buf.h:308:17
	add	r0, r1
	.loc	12 308 12                       @ lvgl/src/lv_widgets/../lv_core/../lv_draw/lv_img_buf.h:308:12
	str	r0, [sp, #32]
	.loc	12 309 5 is_stmt 1              @ lvgl/src/lv_widgets/../lv_core/../lv_draw/lv_img_buf.h:309:5
	b	.LBB10_5
.Ltmp163:
.LBB10_4:
	.loc	12 311 33                       @ lvgl/src/lv_widgets/../lv_core/../lv_draw/lv_img_buf.h:311:33
	ldr	r0, [sp, #44]
	.loc	12 311 38 is_stmt 0             @ lvgl/src/lv_widgets/../lv_core/../lv_draw/lv_img_buf.h:311:38
	ldr	r1, [sp, #56]
	.loc	12 311 47                       @ lvgl/src/lv_widgets/../lv_core/../lv_draw/lv_img_buf.h:311:47
	ldr	r1, [r1, #64]
	.loc	12 311 36                       @ lvgl/src/lv_widgets/../lv_core/../lv_draw/lv_img_buf.h:311:36
	muls	r0, r1, r0
	.loc	12 311 57                       @ lvgl/src/lv_widgets/../lv_core/../lv_draw/lv_img_buf.h:311:57
	asrs	r0, r0, #5
	.loc	12 311 12                       @ lvgl/src/lv_widgets/../lv_core/../lv_draw/lv_img_buf.h:311:12
	str	r0, [sp, #44]
	.loc	12 312 33 is_stmt 1             @ lvgl/src/lv_widgets/../lv_core/../lv_draw/lv_img_buf.h:312:33
	ldr	r0, [sp, #40]
	.loc	12 312 38 is_stmt 0             @ lvgl/src/lv_widgets/../lv_core/../lv_draw/lv_img_buf.h:312:38
	ldr	r1, [sp, #56]
	.loc	12 312 47                       @ lvgl/src/lv_widgets/../lv_core/../lv_draw/lv_img_buf.h:312:47
	ldr	r1, [r1, #64]
	.loc	12 312 36                       @ lvgl/src/lv_widgets/../lv_core/../lv_draw/lv_img_buf.h:312:36
	muls	r0, r1, r0
	.loc	12 312 57                       @ lvgl/src/lv_widgets/../lv_core/../lv_draw/lv_img_buf.h:312:57
	asrs	r0, r0, #5
	.loc	12 312 12                       @ lvgl/src/lv_widgets/../lv_core/../lv_draw/lv_img_buf.h:312:12
	str	r0, [sp, #40]
	.loc	12 313 16 is_stmt 1             @ lvgl/src/lv_widgets/../lv_core/../lv_draw/lv_img_buf.h:313:16
	ldr	r2, [sp, #56]
	.loc	12 313 102 is_stmt 0            @ lvgl/src/lv_widgets/../lv_core/../lv_draw/lv_img_buf.h:313:102
	ldr	r0, [r2, #44]
	.loc	12 313 47                       @ lvgl/src/lv_widgets/../lv_core/../lv_draw/lv_img_buf.h:313:47
	ldr	r1, [r2, #52]
	.loc	12 313 25                       @ lvgl/src/lv_widgets/../lv_core/../lv_draw/lv_img_buf.h:313:25
	ldr	r2, [r2, #56]
	.loc	12 313 33                       @ lvgl/src/lv_widgets/../lv_core/../lv_draw/lv_img_buf.h:313:33
	ldr	r3, [sp, #44]
	.loc	12 313 31                       @ lvgl/src/lv_widgets/../lv_core/../lv_draw/lv_img_buf.h:313:31
	muls	r3, r2, r3
	.loc	12 313 55                       @ lvgl/src/lv_widgets/../lv_core/../lv_draw/lv_img_buf.h:313:55
	ldr	r2, [sp, #40]
	.loc	12 313 36                       @ lvgl/src/lv_widgets/../lv_core/../lv_draw/lv_img_buf.h:313:36
	mls	r1, r1, r2, r3
	.loc	12 313 91                       @ lvgl/src/lv_widgets/../lv_core/../lv_draw/lv_img_buf.h:313:91
	add.w	r0, r0, r1, asr #10
	.loc	12 313 12                       @ lvgl/src/lv_widgets/../lv_core/../lv_draw/lv_img_buf.h:313:12
	str	r0, [sp, #36]
	.loc	12 314 16 is_stmt 1             @ lvgl/src/lv_widgets/../lv_core/../lv_draw/lv_img_buf.h:314:16
	ldr	r3, [sp, #56]
	.loc	12 314 33 is_stmt 0             @ lvgl/src/lv_widgets/../lv_core/../lv_draw/lv_img_buf.h:314:33
	ldr	r2, [sp, #44]
	.loc	12 314 102                      @ lvgl/src/lv_widgets/../lv_core/../lv_draw/lv_img_buf.h:314:102
	ldr	r0, [r3, #48]
	.loc	12 314 25                       @ lvgl/src/lv_widgets/../lv_core/../lv_draw/lv_img_buf.h:314:25
	ldr	r1, [r3, #52]
	.loc	12 314 47                       @ lvgl/src/lv_widgets/../lv_core/../lv_draw/lv_img_buf.h:314:47
	ldr	r3, [r3, #56]
	.loc	12 314 55                       @ lvgl/src/lv_widgets/../lv_core/../lv_draw/lv_img_buf.h:314:55
	ldr.w	r12, [sp, #40]
	.loc	12 314 53                       @ lvgl/src/lv_widgets/../lv_core/../lv_draw/lv_img_buf.h:314:53
	mul	r3, r3, r12
	.loc	12 314 36                       @ lvgl/src/lv_widgets/../lv_core/../lv_draw/lv_img_buf.h:314:36
	mla	r1, r1, r2, r3
	.loc	12 314 91                       @ lvgl/src/lv_widgets/../lv_core/../lv_draw/lv_img_buf.h:314:91
	add.w	r0, r0, r1, asr #10
	.loc	12 314 12                       @ lvgl/src/lv_widgets/../lv_core/../lv_draw/lv_img_buf.h:314:12
	str	r0, [sp, #32]
	b	.LBB10_5
.Ltmp164:
.LBB10_5:
	.loc	12 0 12                         @ lvgl/src/lv_widgets/../lv_core/../lv_draw/lv_img_buf.h:0:12
	b	.LBB10_6
.LBB10_6:
	.loc	12 318 22 is_stmt 1             @ lvgl/src/lv_widgets/../lv_core/../lv_draw/lv_img_buf.h:318:22
	ldr	r0, [sp, #36]
	.loc	12 318 25 is_stmt 0             @ lvgl/src/lv_widgets/../lv_core/../lv_draw/lv_img_buf.h:318:25
	asrs	r0, r0, #8
	.loc	12 318 13                       @ lvgl/src/lv_widgets/../lv_core/../lv_draw/lv_img_buf.h:318:13
	str	r0, [sp, #28]
	.loc	12 319 22 is_stmt 1             @ lvgl/src/lv_widgets/../lv_core/../lv_draw/lv_img_buf.h:319:22
	ldr	r0, [sp, #32]
	.loc	12 319 25 is_stmt 0             @ lvgl/src/lv_widgets/../lv_core/../lv_draw/lv_img_buf.h:319:25
	asrs	r0, r0, #8
	.loc	12 319 13                       @ lvgl/src/lv_widgets/../lv_core/../lv_draw/lv_img_buf.h:319:13
	str	r0, [sp, #24]
.Ltmp165:
	.loc	12 321 8 is_stmt 1              @ lvgl/src/lv_widgets/../lv_core/../lv_draw/lv_img_buf.h:321:8
	ldr	r0, [sp, #28]
	.loc	12 321 18 is_stmt 0             @ lvgl/src/lv_widgets/../lv_core/../lv_draw/lv_img_buf.h:321:18
	ldr	r1, [sp, #56]
	.loc	12 321 27                       @ lvgl/src/lv_widgets/../lv_core/../lv_draw/lv_img_buf.h:321:27
	ldrsh.w	r1, [r1, #4]
.Ltmp166:
	.loc	12 321 8                        @ lvgl/src/lv_widgets/../lv_core/../lv_draw/lv_img_buf.h:321:8
	cmp	r0, r1
	blt	.LBB10_8
	b	.LBB10_7
.LBB10_7:
	.loc	12 0 8                          @ lvgl/src/lv_widgets/../lv_core/../lv_draw/lv_img_buf.h:0:8
	movs	r0, #0
.Ltmp167:
	.loc	12 321 34                       @ lvgl/src/lv_widgets/../lv_core/../lv_draw/lv_img_buf.h:321:34
	strb.w	r0, [sp, #63]
	b	.LBB10_29
.LBB10_8:
.Ltmp168:
	.loc	12 322 13 is_stmt 1             @ lvgl/src/lv_widgets/../lv_core/../lv_draw/lv_img_buf.h:322:13
	ldr	r0, [sp, #28]
.Ltmp169:
	.loc	12 322 13 is_stmt 0             @ lvgl/src/lv_widgets/../lv_core/../lv_draw/lv_img_buf.h:322:13
	cmp.w	r0, #-1
	bgt	.LBB10_10
	b	.LBB10_9
.LBB10_9:
	.loc	12 0 13                         @ lvgl/src/lv_widgets/../lv_core/../lv_draw/lv_img_buf.h:0:13
	movs	r0, #0
.Ltmp170:
	.loc	12 322 25                       @ lvgl/src/lv_widgets/../lv_core/../lv_draw/lv_img_buf.h:322:25
	strb.w	r0, [sp, #63]
	b	.LBB10_29
.Ltmp171:
.LBB10_10:
	.loc	12 0 25                         @ lvgl/src/lv_widgets/../lv_core/../lv_draw/lv_img_buf.h:0:25
	b	.LBB10_11
.LBB10_11:
.Ltmp172:
	.loc	12 324 8 is_stmt 1              @ lvgl/src/lv_widgets/../lv_core/../lv_draw/lv_img_buf.h:324:8
	ldr	r0, [sp, #24]
	.loc	12 324 18 is_stmt 0             @ lvgl/src/lv_widgets/../lv_core/../lv_draw/lv_img_buf.h:324:18
	ldr	r1, [sp, #56]
	.loc	12 324 27                       @ lvgl/src/lv_widgets/../lv_core/../lv_draw/lv_img_buf.h:324:27
	ldrsh.w	r1, [r1, #6]
.Ltmp173:
	.loc	12 324 8                        @ lvgl/src/lv_widgets/../lv_core/../lv_draw/lv_img_buf.h:324:8
	cmp	r0, r1
	blt	.LBB10_13
	b	.LBB10_12
.LBB10_12:
	.loc	12 0 8                          @ lvgl/src/lv_widgets/../lv_core/../lv_draw/lv_img_buf.h:0:8
	movs	r0, #0
.Ltmp174:
	.loc	12 324 34                       @ lvgl/src/lv_widgets/../lv_core/../lv_draw/lv_img_buf.h:324:34
	strb.w	r0, [sp, #63]
	b	.LBB10_29
.LBB10_13:
.Ltmp175:
	.loc	12 325 13 is_stmt 1             @ lvgl/src/lv_widgets/../lv_core/../lv_draw/lv_img_buf.h:325:13
	ldr	r0, [sp, #24]
.Ltmp176:
	.loc	12 325 13 is_stmt 0             @ lvgl/src/lv_widgets/../lv_core/../lv_draw/lv_img_buf.h:325:13
	cmp.w	r0, #-1
	bgt	.LBB10_15
	b	.LBB10_14
.LBB10_14:
	.loc	12 0 13                         @ lvgl/src/lv_widgets/../lv_core/../lv_draw/lv_img_buf.h:0:13
	movs	r0, #0
.Ltmp177:
	.loc	12 325 25                       @ lvgl/src/lv_widgets/../lv_core/../lv_draw/lv_img_buf.h:325:25
	strb.w	r0, [sp, #63]
	b	.LBB10_29
.Ltmp178:
.LBB10_15:
	.loc	12 0 25                         @ lvgl/src/lv_widgets/../lv_core/../lv_draw/lv_img_buf.h:0:25
	b	.LBB10_16
.LBB10_16:
.Ltmp179:
	.loc	12 329 8 is_stmt 1              @ lvgl/src/lv_widgets/../lv_core/../lv_draw/lv_img_buf.h:329:8
	ldr	r0, [sp, #56]
	.loc	12 329 17 is_stmt 0             @ lvgl/src/lv_widgets/../lv_core/../lv_draw/lv_img_buf.h:329:17
	ldrb.w	r0, [r0, #60]
	lsrs	r0, r0, #2
.Ltmp180:
	.loc	12 329 8                        @ lvgl/src/lv_widgets/../lv_core/../lv_draw/lv_img_buf.h:329:8
	lsls	r0, r0, #31
	cmp	r0, #0
	beq	.LBB10_21
	b	.LBB10_17
.LBB10_17:
.Ltmp181:
	.loc	12 330 12 is_stmt 1             @ lvgl/src/lv_widgets/../lv_core/../lv_draw/lv_img_buf.h:330:12
	ldr	r0, [sp, #56]
	.loc	12 330 21 is_stmt 0             @ lvgl/src/lv_widgets/../lv_core/../lv_draw/lv_img_buf.h:330:21
	ldrb.w	r0, [r0, #60]
	lsrs	r0, r0, #1
.Ltmp182:
	.loc	12 330 12                       @ lvgl/src/lv_widgets/../lv_core/../lv_draw/lv_img_buf.h:330:12
	lsls	r0, r0, #31
	cbnz	r0, .LBB10_19
	b	.LBB10_18
.LBB10_18:
	.loc	12 0 12                         @ lvgl/src/lv_widgets/../lv_core/../lv_draw/lv_img_buf.h:0:12
	movs	r0, #4
.Ltmp183:
	.loc	12 331 21 is_stmt 1             @ lvgl/src/lv_widgets/../lv_core/../lv_draw/lv_img_buf.h:331:21
	strb.w	r0, [sp, #23]
	.loc	12 333 23                       @ lvgl/src/lv_widgets/../lv_core/../lv_draw/lv_img_buf.h:333:23
	ldr	r0, [sp, #56]
	.loc	12 333 32 is_stmt 0             @ lvgl/src/lv_widgets/../lv_core/../lv_draw/lv_img_buf.h:333:32
	ldrsh.w	r0, [r0, #4]
	.loc	12 333 40                       @ lvgl/src/lv_widgets/../lv_core/../lv_draw/lv_img_buf.h:333:40
	ldr	r1, [sp, #24]
	.loc	12 333 38                       @ lvgl/src/lv_widgets/../lv_core/../lv_draw/lv_img_buf.h:333:38
	muls	r0, r1, r0
	.loc	12 333 49                       @ lvgl/src/lv_widgets/../lv_core/../lv_draw/lv_img_buf.h:333:49
	ldrb.w	r1, [sp, #23]
	.loc	12 333 59                       @ lvgl/src/lv_widgets/../lv_core/../lv_draw/lv_img_buf.h:333:59
	ldr	r2, [sp, #28]
	.loc	12 333 66                       @ lvgl/src/lv_widgets/../lv_core/../lv_draw/lv_img_buf.h:333:66
	muls	r2, r1, r2
	.loc	12 333 57                       @ lvgl/src/lv_widgets/../lv_core/../lv_draw/lv_img_buf.h:333:57
	mla	r0, r0, r1, r2
	.loc	12 333 21                       @ lvgl/src/lv_widgets/../lv_core/../lv_draw/lv_img_buf.h:333:21
	str	r0, [sp, #16]
	.loc	12 334 31 is_stmt 1             @ lvgl/src/lv_widgets/../lv_core/../lv_draw/lv_img_buf.h:334:31
	ldr	r0, [sp, #56]
	.loc	12 334 36 is_stmt 0             @ lvgl/src/lv_widgets/../lv_core/../lv_draw/lv_img_buf.h:334:36
	adds	r0, #24
	.loc	12 334 48                       @ lvgl/src/lv_widgets/../lv_core/../lv_draw/lv_img_buf.h:334:48
	ldr	r1, [sp, #48]
	.loc	12 334 55                       @ lvgl/src/lv_widgets/../lv_core/../lv_draw/lv_img_buf.h:334:55
	ldr	r2, [sp, #16]
	.loc	12 334 48                       @ lvgl/src/lv_widgets/../lv_core/../lv_draw/lv_img_buf.h:334:48
	add	r1, r2
	.loc	12 334 61                       @ lvgl/src/lv_widgets/../lv_core/../lv_draw/lv_img_buf.h:334:61
	ldrb.w	r2, [sp, #23]
	.loc	12 334 13                       @ lvgl/src/lv_widgets/../lv_core/../lv_draw/lv_img_buf.h:334:13
	bl	_lv_memcpy_small
	.loc	12 335 9 is_stmt 1              @ lvgl/src/lv_widgets/../lv_core/../lv_draw/lv_img_buf.h:335:9
	b	.LBB10_20
.Ltmp184:
.LBB10_19:
	.loc	12 0 9 is_stmt 0                @ lvgl/src/lv_widgets/../lv_core/../lv_draw/lv_img_buf.h:0:9
	movs	r0, #4
.Ltmp185:
	.loc	12 337 21 is_stmt 1             @ lvgl/src/lv_widgets/../lv_core/../lv_draw/lv_img_buf.h:337:21
	strb.w	r0, [sp, #23]
	.loc	12 338 23                       @ lvgl/src/lv_widgets/../lv_core/../lv_draw/lv_img_buf.h:338:23
	ldr	r0, [sp, #56]
	.loc	12 338 32 is_stmt 0             @ lvgl/src/lv_widgets/../lv_core/../lv_draw/lv_img_buf.h:338:32
	ldrsh.w	r0, [r0, #4]
	.loc	12 338 40                       @ lvgl/src/lv_widgets/../lv_core/../lv_draw/lv_img_buf.h:338:40
	ldr	r1, [sp, #24]
	.loc	12 338 38                       @ lvgl/src/lv_widgets/../lv_core/../lv_draw/lv_img_buf.h:338:38
	muls	r0, r1, r0
	.loc	12 338 49                       @ lvgl/src/lv_widgets/../lv_core/../lv_draw/lv_img_buf.h:338:49
	ldrb.w	r1, [sp, #23]
	.loc	12 338 59                       @ lvgl/src/lv_widgets/../lv_core/../lv_draw/lv_img_buf.h:338:59
	ldr	r2, [sp, #28]
	.loc	12 338 66                       @ lvgl/src/lv_widgets/../lv_core/../lv_draw/lv_img_buf.h:338:66
	muls	r2, r1, r2
	.loc	12 338 57                       @ lvgl/src/lv_widgets/../lv_core/../lv_draw/lv_img_buf.h:338:57
	mla	r0, r0, r1, r2
	.loc	12 338 21                       @ lvgl/src/lv_widgets/../lv_core/../lv_draw/lv_img_buf.h:338:21
	str	r0, [sp, #16]
	.loc	12 339 31 is_stmt 1             @ lvgl/src/lv_widgets/../lv_core/../lv_draw/lv_img_buf.h:339:31
	ldr	r0, [sp, #56]
	.loc	12 339 36 is_stmt 0             @ lvgl/src/lv_widgets/../lv_core/../lv_draw/lv_img_buf.h:339:36
	adds	r0, #24
	.loc	12 339 48                       @ lvgl/src/lv_widgets/../lv_core/../lv_draw/lv_img_buf.h:339:48
	ldr	r1, [sp, #48]
	.loc	12 339 55                       @ lvgl/src/lv_widgets/../lv_core/../lv_draw/lv_img_buf.h:339:55
	ldr	r2, [sp, #16]
	.loc	12 339 48                       @ lvgl/src/lv_widgets/../lv_core/../lv_draw/lv_img_buf.h:339:48
	add	r1, r2
	.loc	12 339 61                       @ lvgl/src/lv_widgets/../lv_core/../lv_draw/lv_img_buf.h:339:61
	ldrb.w	r2, [sp, #23]
	.loc	12 339 69                       @ lvgl/src/lv_widgets/../lv_core/../lv_draw/lv_img_buf.h:339:69
	subs	r2, #1
	.loc	12 339 13                       @ lvgl/src/lv_widgets/../lv_core/../lv_draw/lv_img_buf.h:339:13
	bl	_lv_memcpy_small
	.loc	12 340 28 is_stmt 1             @ lvgl/src/lv_widgets/../lv_core/../lv_draw/lv_img_buf.h:340:28
	ldr	r1, [sp, #48]
	.loc	12 340 35 is_stmt 0             @ lvgl/src/lv_widgets/../lv_core/../lv_draw/lv_img_buf.h:340:35
	ldr	r0, [sp, #16]
	.loc	12 340 41                       @ lvgl/src/lv_widgets/../lv_core/../lv_draw/lv_img_buf.h:340:41
	ldrb.w	r2, [sp, #23]
	.loc	12 340 39                       @ lvgl/src/lv_widgets/../lv_core/../lv_draw/lv_img_buf.h:340:39
	add	r0, r2
	.loc	12 340 28                       @ lvgl/src/lv_widgets/../lv_core/../lv_draw/lv_img_buf.h:340:28
	add	r0, r1
	ldrb	r0, [r0, #-1]
	.loc	12 340 13                       @ lvgl/src/lv_widgets/../lv_core/../lv_draw/lv_img_buf.h:340:13
	ldr	r1, [sp, #56]
	.loc	12 340 26                       @ lvgl/src/lv_widgets/../lv_core/../lv_draw/lv_img_buf.h:340:26
	strb	r0, [r1, #28]
	b	.LBB10_20
.Ltmp186:
.LBB10_20:
	.loc	12 342 5 is_stmt 1              @ lvgl/src/lv_widgets/../lv_core/../lv_draw/lv_img_buf.h:342:5
	b	.LBB10_22
.Ltmp187:
.LBB10_21:
	.loc	12 0 5 is_stmt 0                @ lvgl/src/lv_widgets/../lv_core/../lv_draw/lv_img_buf.h:0:5
	movs	r0, #0
.Ltmp188:
	.loc	12 344 13 is_stmt 1             @ lvgl/src/lv_widgets/../lv_core/../lv_draw/lv_img_buf.h:344:13
	str	r0, [sp, #16]
	.loc	12 345 17                       @ lvgl/src/lv_widgets/../lv_core/../lv_draw/lv_img_buf.h:345:17
	strb.w	r0, [sp, #23]
	.loc	12 346 9                        @ lvgl/src/lv_widgets/../lv_core/../lv_draw/lv_img_buf.h:346:9
	ldr	r3, [sp, #56]
	.loc	12 346 56 is_stmt 0             @ lvgl/src/lv_widgets/../lv_core/../lv_draw/lv_img_buf.h:346:56
	str	r3, [sp]                        @ 4-byte Spill
	add.w	r0, r3, #32
	.loc	12 346 69                       @ lvgl/src/lv_widgets/../lv_core/../lv_draw/lv_img_buf.h:346:69
	ldrsh.w	r1, [sp, #28]
	.loc	12 346 77                       @ lvgl/src/lv_widgets/../lv_core/../lv_draw/lv_img_buf.h:346:77
	ldrsh.w	r2, [sp, #24]
	.loc	12 346 26                       @ lvgl/src/lv_widgets/../lv_core/../lv_draw/lv_img_buf.h:346:26
	ldr	r3, [r3, #16]
	bl	lv_img_buf_get_px_color
	ldr	r1, [sp]                        @ 4-byte Reload
	str	r0, [sp, #12]
	ldr	r0, [sp, #12]
	str	r0, [r1, #24]
	.loc	12 347 49 is_stmt 1             @ lvgl/src/lv_widgets/../lv_core/../lv_draw/lv_img_buf.h:347:49
	ldr	r0, [sp, #56]
	.loc	12 347 54 is_stmt 0             @ lvgl/src/lv_widgets/../lv_core/../lv_draw/lv_img_buf.h:347:54
	adds	r0, #32
	.loc	12 347 67                       @ lvgl/src/lv_widgets/../lv_core/../lv_draw/lv_img_buf.h:347:67
	ldrsh.w	r1, [sp, #28]
	.loc	12 347 75                       @ lvgl/src/lv_widgets/../lv_core/../lv_draw/lv_img_buf.h:347:75
	ldrsh.w	r2, [sp, #24]
	.loc	12 347 24                       @ lvgl/src/lv_widgets/../lv_core/../lv_draw/lv_img_buf.h:347:24
	bl	lv_img_buf_get_px_alpha
	.loc	12 347 9                        @ lvgl/src/lv_widgets/../lv_core/../lv_draw/lv_img_buf.h:347:9
	ldr	r1, [sp, #56]
	.loc	12 347 22                       @ lvgl/src/lv_widgets/../lv_core/../lv_draw/lv_img_buf.h:347:22
	strb	r0, [r1, #28]
	b	.LBB10_22
.Ltmp189:
.LBB10_22:
	.loc	12 350 8 is_stmt 1              @ lvgl/src/lv_widgets/../lv_core/../lv_draw/lv_img_buf.h:350:8
	ldr	r0, [sp, #56]
	.loc	12 350 17 is_stmt 0             @ lvgl/src/lv_widgets/../lv_core/../lv_draw/lv_img_buf.h:350:17
	ldrb.w	r0, [r0, #60]
.Ltmp190:
	.loc	12 350 8                        @ lvgl/src/lv_widgets/../lv_core/../lv_draw/lv_img_buf.h:350:8
	lsls	r0, r0, #31
	cbz	r0, .LBB10_26
	b	.LBB10_23
.LBB10_23:
.Ltmp191:
	.loc	12 351 20 is_stmt 1             @ lvgl/src/lv_widgets/../lv_core/../lv_draw/lv_img_buf.h:351:20
	movw	r0, :lower16:.L__const._lv_img_buf_transform.ct
	movt	r0, :upper16:.L__const._lv_img_buf_transform.ct
	ldr	r0, [r0]
	str	r0, [sp, #8]
.Ltmp192:
	.loc	12 352 12                       @ lvgl/src/lv_widgets/../lv_core/../lv_draw/lv_img_buf.h:352:12
	ldr	r0, [sp, #56]
	.loc	12 352 27 is_stmt 0             @ lvgl/src/lv_widgets/../lv_core/../lv_draw/lv_img_buf.h:352:27
	ldr	r0, [r0, #24]
	.loc	12 352 38                       @ lvgl/src/lv_widgets/../lv_core/../lv_draw/lv_img_buf.h:352:38
	ldr	r1, [sp, #8]
.Ltmp193:
	.loc	12 352 12                       @ lvgl/src/lv_widgets/../lv_core/../lv_draw/lv_img_buf.h:352:12
	cmp	r0, r1
	bne	.LBB10_25
	b	.LBB10_24
.LBB10_24:
	.loc	12 0 12                         @ lvgl/src/lv_widgets/../lv_core/../lv_draw/lv_img_buf.h:0:12
	movs	r0, #0
.Ltmp194:
	.loc	12 352 44                       @ lvgl/src/lv_widgets/../lv_core/../lv_draw/lv_img_buf.h:352:44
	strb.w	r0, [sp, #63]
	b	.LBB10_29
.Ltmp195:
.LBB10_25:
	.loc	12 353 5 is_stmt 1              @ lvgl/src/lv_widgets/../lv_core/../lv_draw/lv_img_buf.h:353:5
	b	.LBB10_26
.Ltmp196:
.LBB10_26:
	.loc	12 355 8                        @ lvgl/src/lv_widgets/../lv_core/../lv_draw/lv_img_buf.h:355:8
	ldr	r0, [sp, #56]
	.loc	12 355 17 is_stmt 0             @ lvgl/src/lv_widgets/../lv_core/../lv_draw/lv_img_buf.h:355:17
	ldrb	r0, [r0, #21]
.Ltmp197:
	.loc	12 355 8                        @ lvgl/src/lv_widgets/../lv_core/../lv_draw/lv_img_buf.h:355:8
	lsls	r0, r0, #31
	cbnz	r0, .LBB10_28
	b	.LBB10_27
.LBB10_27:
	.loc	12 0 8                          @ lvgl/src/lv_widgets/../lv_core/../lv_draw/lv_img_buf.h:0:8
	movs	r0, #1
.Ltmp198:
	.loc	12 355 37                       @ lvgl/src/lv_widgets/../lv_core/../lv_draw/lv_img_buf.h:355:37
	strb.w	r0, [sp, #63]
	b	.LBB10_29
.Ltmp199:
.LBB10_28:
	.loc	12 357 19 is_stmt 1             @ lvgl/src/lv_widgets/../lv_core/../lv_draw/lv_img_buf.h:357:19
	ldr	r0, [sp, #36]
	.loc	12 357 5 is_stmt 0              @ lvgl/src/lv_widgets/../lv_core/../lv_draw/lv_img_buf.h:357:5
	ldr	r1, [sp, #56]
	.loc	12 357 17                       @ lvgl/src/lv_widgets/../lv_core/../lv_draw/lv_img_buf.h:357:17
	strh.w	r0, [r1, #68]
	.loc	12 358 19 is_stmt 1             @ lvgl/src/lv_widgets/../lv_core/../lv_draw/lv_img_buf.h:358:19
	ldr	r0, [sp, #32]
	.loc	12 358 5 is_stmt 0              @ lvgl/src/lv_widgets/../lv_core/../lv_draw/lv_img_buf.h:358:5
	ldr	r1, [sp, #56]
	.loc	12 358 17                       @ lvgl/src/lv_widgets/../lv_core/../lv_draw/lv_img_buf.h:358:17
	strh.w	r0, [r1, #70]
	.loc	12 359 23 is_stmt 1             @ lvgl/src/lv_widgets/../lv_core/../lv_draw/lv_img_buf.h:359:23
	ldr	r0, [sp, #28]
	.loc	12 359 5 is_stmt 0              @ lvgl/src/lv_widgets/../lv_core/../lv_draw/lv_img_buf.h:359:5
	ldr	r1, [sp, #56]
	.loc	12 359 21                       @ lvgl/src/lv_widgets/../lv_core/../lv_draw/lv_img_buf.h:359:21
	strh.w	r0, [r1, #72]
	.loc	12 360 23 is_stmt 1             @ lvgl/src/lv_widgets/../lv_core/../lv_draw/lv_img_buf.h:360:23
	ldr	r0, [sp, #24]
	.loc	12 360 5 is_stmt 0              @ lvgl/src/lv_widgets/../lv_core/../lv_draw/lv_img_buf.h:360:5
	ldr	r1, [sp, #56]
	.loc	12 360 21                       @ lvgl/src/lv_widgets/../lv_core/../lv_draw/lv_img_buf.h:360:21
	strh.w	r0, [r1, #74]
	.loc	12 361 20 is_stmt 1             @ lvgl/src/lv_widgets/../lv_core/../lv_draw/lv_img_buf.h:361:20
	ldr	r0, [sp, #16]
	.loc	12 361 5 is_stmt 0              @ lvgl/src/lv_widgets/../lv_core/../lv_draw/lv_img_buf.h:361:5
	ldr	r1, [sp, #56]
	.loc	12 361 18                       @ lvgl/src/lv_widgets/../lv_core/../lv_draw/lv_img_buf.h:361:18
	str	r0, [r1, #76]
	.loc	12 362 24 is_stmt 1             @ lvgl/src/lv_widgets/../lv_core/../lv_draw/lv_img_buf.h:362:24
	ldrb.w	r0, [sp, #23]
	.loc	12 362 5 is_stmt 0              @ lvgl/src/lv_widgets/../lv_core/../lv_draw/lv_img_buf.h:362:5
	ldr	r1, [sp, #56]
	.loc	12 362 22                       @ lvgl/src/lv_widgets/../lv_core/../lv_draw/lv_img_buf.h:362:22
	strb.w	r0, [r1, #80]
	.loc	12 365 44 is_stmt 1             @ lvgl/src/lv_widgets/../lv_core/../lv_draw/lv_img_buf.h:365:44
	ldr	r0, [sp, #56]
	.loc	12 365 11 is_stmt 0             @ lvgl/src/lv_widgets/../lv_core/../lv_draw/lv_img_buf.h:365:11
	bl	_lv_img_buf_transform_anti_alias
	.loc	12 365 9                        @ lvgl/src/lv_widgets/../lv_core/../lv_draw/lv_img_buf.h:365:9
	strb.w	r0, [sp, #7]
	.loc	12 367 12 is_stmt 1             @ lvgl/src/lv_widgets/../lv_core/../lv_draw/lv_img_buf.h:367:12
	ldrb.w	r0, [sp, #7]
	.loc	12 367 5 is_stmt 0              @ lvgl/src/lv_widgets/../lv_core/../lv_draw/lv_img_buf.h:367:5
	and	r0, r0, #1
	strb.w	r0, [sp, #63]
	b	.LBB10_29
.LBB10_29:
	.loc	12 368 1 is_stmt 1              @ lvgl/src/lv_widgets/../lv_core/../lv_draw/lv_img_buf.h:368:1
	ldrb.w	r0, [sp, #63]
	add	sp, #64
	pop	{r7, pc}
.Ltmp200:
.Lfunc_end10:
	.size	_lv_img_buf_transform, .Lfunc_end10-_lv_img_buf_transform
	.cfi_endproc
	.cantunwind
	.fnend
                                        @ -- End function
	.section	.text.lv_color_mix,"ax",%progbits
	.p2align	3                               @ -- Begin function lv_color_mix
	.type	lv_color_mix,%function
	.code	16                              @ @lv_color_mix
	.thumb_func
lv_color_mix:
.Lfunc_begin11:
	.loc	11 441 0                        @ lvgl/src/lv_widgets/../lv_core/../lv_hal/../lv_misc/lv_color.h:441:0
	.fnstart
	.cfi_startproc
@ %bb.0:
	.pad	#16
	sub	sp, #16
	.cfi_def_cfa_offset 16
                                        @ kill: def $r3 killed $r2
	str	r0, [sp, #8]
	str	r1, [sp, #4]
	strb.w	r2, [sp, #3]
.Ltmp201:
	.loc	11 445 5 prologue_end           @ lvgl/src/lv_widgets/../lv_core/../lv_hal/../lv_misc/lv_color.h:445:5
	ldrb.w	r0, [sp, #10]
	ldrb.w	r1, [sp, #3]
	mul	r2, r0, r1
	ldrb.w	r0, [sp, #6]
	rsb.w	r1, r1, #255
	smlabb	r0, r0, r1, r2
	movw	r1, #32897
	muls	r0, r1, r0
	lsrs	r0, r0, #23
	strb.w	r0, [sp, #14]
	.loc	11 447 5                        @ lvgl/src/lv_widgets/../lv_core/../lv_hal/../lv_misc/lv_color.h:447:5
	ldrb.w	r0, [sp, #9]
	ldrb.w	r2, [sp, #3]
	mul	r3, r0, r2
	ldrb.w	r0, [sp, #5]
	rsb.w	r2, r2, #255
	smlabb	r0, r0, r2, r3
	muls	r0, r1, r0
	lsrs	r0, r0, #23
	strb.w	r0, [sp, #13]
	.loc	11 449 5                        @ lvgl/src/lv_widgets/../lv_core/../lv_hal/../lv_misc/lv_color.h:449:5
	ldrb.w	r0, [sp, #8]
	ldrb.w	r2, [sp, #3]
	mul	r3, r0, r2
	ldrb.w	r0, [sp, #4]
	rsb.w	r2, r2, #255
	smlabb	r0, r0, r2, r3
	muls	r0, r1, r0
	lsrs	r0, r0, #23
	strb.w	r0, [sp, #12]
	movs	r0, #255
	.loc	11 451 5                        @ lvgl/src/lv_widgets/../lv_core/../lv_hal/../lv_misc/lv_color.h:451:5
	strb.w	r0, [sp, #15]
	.loc	11 457 5                        @ lvgl/src/lv_widgets/../lv_core/../lv_hal/../lv_misc/lv_color.h:457:5
	ldr	r0, [sp, #12]
	add	sp, #16
	bx	lr
.Ltmp202:
.Lfunc_end11:
	.size	lv_color_mix, .Lfunc_end11-lv_color_mix
	.cfi_endproc
	.cantunwind
	.fnend
                                        @ -- End function
	.section	.text.lv_canvas_blur_hor,"ax",%progbits
	.hidden	lv_canvas_blur_hor              @ -- Begin function lv_canvas_blur_hor
	.globl	lv_canvas_blur_hor
	.p2align	3
	.type	lv_canvas_blur_hor,%function
	.code	16                              @ @lv_canvas_blur_hor
	.thumb_func
lv_canvas_blur_hor:
.Lfunc_begin12:
	.loc	10 386 0                        @ lvgl/src/lv_widgets/lv_canvas.c:386:0
	.fnstart
	.cfi_startproc
@ %bb.0:
	.save	{r7, lr}
	push	{r7, lr}
	.cfi_def_cfa_offset 8
	.cfi_offset lr, -4
	.cfi_offset r7, -8
	.pad	#120
	sub	sp, #120
	.cfi_def_cfa_offset 128
                                        @ kill: def $r3 killed $r2
	str	r0, [sp, #116]
	str	r1, [sp, #112]
	strh.w	r2, [sp, #110]
.Ltmp203:
	.loc	10 387 5 prologue_end           @ lvgl/src/lv_widgets/lv_canvas.c:387:5
	b	.LBB12_1
.LBB12_1:
.Ltmp204:
	.loc	10 387 5 is_stmt 0              @ lvgl/src/lv_widgets/lv_canvas.c:387:5
	ldr	r0, [sp, #116]
	bl	lv_debug_check_null
.Ltmp205:
	.loc	10 387 5                        @ lvgl/src/lv_widgets/lv_canvas.c:387:5
	cbnz	r0, .LBB12_4
	b	.LBB12_2
.LBB12_2:
.Ltmp206:
	.loc	10 387 5                        @ lvgl/src/lv_widgets/lv_canvas.c:387:5
	ldr	r2, [sp, #116]
	movw	r0, :lower16:.L.str.1
	movt	r0, :upper16:.L.str.1
	movs	r3, #0
	bl	lv_debug_log_error
	b	.LBB12_3
.LBB12_3:                               @ =>This Inner Loop Header: Depth=1
	b	.LBB12_3
.Ltmp207:
.LBB12_4:
	.loc	10 387 5                        @ lvgl/src/lv_widgets/lv_canvas.c:387:5
	b	.LBB12_5
.Ltmp208:
.LBB12_5:
	.loc	10 389 8 is_stmt 1              @ lvgl/src/lv_widgets/lv_canvas.c:389:8
	ldrh.w	r0, [sp, #110]
.Ltmp209:
	.loc	10 389 8 is_stmt 0              @ lvgl/src/lv_widgets/lv_canvas.c:389:8
	cbnz	r0, .LBB12_7
	b	.LBB12_6
.LBB12_6:
.Ltmp210:
	.loc	10 389 16                       @ lvgl/src/lv_widgets/lv_canvas.c:389:16
	b	.LBB12_65
.Ltmp211:
.LBB12_7:
	.loc	10 391 49 is_stmt 1             @ lvgl/src/lv_widgets/lv_canvas.c:391:49
	ldr	r0, [sp, #116]
	.loc	10 391 29 is_stmt 0             @ lvgl/src/lv_widgets/lv_canvas.c:391:29
	bl	lv_obj_get_ext_attr
	.loc	10 391 23                       @ lvgl/src/lv_widgets/lv_canvas.c:391:23
	str	r0, [sp, #104]
.Ltmp212:
	.loc	10 394 8 is_stmt 1              @ lvgl/src/lv_widgets/lv_canvas.c:394:8
	ldr	r0, [sp, #112]
.Ltmp213:
	.loc	10 394 8 is_stmt 0              @ lvgl/src/lv_widgets/lv_canvas.c:394:8
	cmp	r0, #0
	beq	.LBB12_17
	b	.LBB12_8
.LBB12_8:
.Ltmp214:
	.loc	10 395 26 is_stmt 1             @ lvgl/src/lv_widgets/lv_canvas.c:395:26
	ldr	r1, [sp, #112]
	add	r0, sp, #96
	.loc	10 395 9 is_stmt 0              @ lvgl/src/lv_widgets/lv_canvas.c:395:9
	bl	lv_area_copy
.Ltmp215:
	.loc	10 396 14 is_stmt 1             @ lvgl/src/lv_widgets/lv_canvas.c:396:14
	ldrsh.w	r0, [sp, #96]
.Ltmp216:
	.loc	10 396 12 is_stmt 0             @ lvgl/src/lv_widgets/lv_canvas.c:396:12
	cmp.w	r0, #-1
	bgt	.LBB12_10
	b	.LBB12_9
.LBB12_9:
	.loc	10 0 12                         @ lvgl/src/lv_widgets/lv_canvas.c:0:12
	movs	r0, #0
.Ltmp217:
	.loc	10 396 27                       @ lvgl/src/lv_widgets/lv_canvas.c:396:27
	strh.w	r0, [sp, #96]
	.loc	10 396 22                       @ lvgl/src/lv_widgets/lv_canvas.c:396:22
	b	.LBB12_10
.Ltmp218:
.LBB12_10:
	.loc	10 397 14 is_stmt 1             @ lvgl/src/lv_widgets/lv_canvas.c:397:14
	ldrsh.w	r0, [sp, #98]
.Ltmp219:
	.loc	10 397 12 is_stmt 0             @ lvgl/src/lv_widgets/lv_canvas.c:397:12
	cmp.w	r0, #-1
	bgt	.LBB12_12
	b	.LBB12_11
.LBB12_11:
	.loc	10 0 12                         @ lvgl/src/lv_widgets/lv_canvas.c:0:12
	movs	r0, #0
.Ltmp220:
	.loc	10 397 27                       @ lvgl/src/lv_widgets/lv_canvas.c:397:27
	strh.w	r0, [sp, #98]
	.loc	10 397 22                       @ lvgl/src/lv_widgets/lv_canvas.c:397:22
	b	.LBB12_12
.Ltmp221:
.LBB12_12:
	.loc	10 398 14 is_stmt 1             @ lvgl/src/lv_widgets/lv_canvas.c:398:14
	ldrsh.w	r0, [sp, #100]
	.loc	10 398 19 is_stmt 0             @ lvgl/src/lv_widgets/lv_canvas.c:398:19
	ldr	r1, [sp, #104]
	.loc	10 398 35                       @ lvgl/src/lv_widgets/lv_canvas.c:398:35
	ldrh.w	r1, [r1, #25]
	ubfx	r1, r1, #2, #11
	.loc	10 398 37                       @ lvgl/src/lv_widgets/lv_canvas.c:398:37
	subs	r1, #1
.Ltmp222:
	.loc	10 398 12                       @ lvgl/src/lv_widgets/lv_canvas.c:398:12
	cmp	r0, r1
	ble	.LBB12_14
	b	.LBB12_13
.LBB12_13:
.Ltmp223:
	.loc	10 398 49                       @ lvgl/src/lv_widgets/lv_canvas.c:398:49
	ldr	r0, [sp, #104]
	.loc	10 398 65                       @ lvgl/src/lv_widgets/lv_canvas.c:398:65
	ldrh.w	r0, [r0, #25]
	ubfx	r0, r0, #2, #11
	.loc	10 398 67                       @ lvgl/src/lv_widgets/lv_canvas.c:398:67
	subs	r0, #1
	.loc	10 398 47                       @ lvgl/src/lv_widgets/lv_canvas.c:398:47
	strh.w	r0, [sp, #100]
	.loc	10 398 42                       @ lvgl/src/lv_widgets/lv_canvas.c:398:42
	b	.LBB12_14
.Ltmp224:
.LBB12_14:
	.loc	10 399 14 is_stmt 1             @ lvgl/src/lv_widgets/lv_canvas.c:399:14
	ldrsh.w	r0, [sp, #102]
	.loc	10 399 19 is_stmt 0             @ lvgl/src/lv_widgets/lv_canvas.c:399:19
	ldr	r1, [sp, #104]
	.loc	10 399 35                       @ lvgl/src/lv_widgets/lv_canvas.c:399:35
	ldrb	r2, [r1, #27]
	ldrh.w	r1, [r1, #25]
	orr.w	r2, r1, r2, lsl #16
	mov.w	r1, #-1
	.loc	10 399 37                       @ lvgl/src/lv_widgets/lv_canvas.c:399:37
	add.w	r1, r1, r2, lsr #13
.Ltmp225:
	.loc	10 399 12                       @ lvgl/src/lv_widgets/lv_canvas.c:399:12
	cmp	r0, r1
	ble	.LBB12_16
	b	.LBB12_15
.LBB12_15:
.Ltmp226:
	.loc	10 399 49                       @ lvgl/src/lv_widgets/lv_canvas.c:399:49
	ldr	r0, [sp, #104]
	.loc	10 399 65                       @ lvgl/src/lv_widgets/lv_canvas.c:399:65
	ldrb	r1, [r0, #27]
	ldrh.w	r0, [r0, #25]
	orr.w	r1, r0, r1, lsl #16
	mov.w	r0, #-1
	.loc	10 399 67                       @ lvgl/src/lv_widgets/lv_canvas.c:399:67
	add.w	r0, r0, r1, lsr #13
	.loc	10 399 47                       @ lvgl/src/lv_widgets/lv_canvas.c:399:47
	strh.w	r0, [sp, #102]
	.loc	10 399 42                       @ lvgl/src/lv_widgets/lv_canvas.c:399:42
	b	.LBB12_16
.Ltmp227:
.LBB12_16:
	.loc	10 400 5 is_stmt 1              @ lvgl/src/lv_widgets/lv_canvas.c:400:5
	b	.LBB12_18
.Ltmp228:
.LBB12_17:
	.loc	10 0 5 is_stmt 0                @ lvgl/src/lv_widgets/lv_canvas.c:0:5
	movs	r0, #0
.Ltmp229:
	.loc	10 402 14 is_stmt 1             @ lvgl/src/lv_widgets/lv_canvas.c:402:14
	strh.w	r0, [sp, #96]
	.loc	10 403 14                       @ lvgl/src/lv_widgets/lv_canvas.c:403:14
	strh.w	r0, [sp, #98]
	.loc	10 404 16                       @ lvgl/src/lv_widgets/lv_canvas.c:404:16
	ldr	r0, [sp, #104]
	.loc	10 404 32 is_stmt 0             @ lvgl/src/lv_widgets/lv_canvas.c:404:32
	ldrh.w	r0, [r0, #25]
	ubfx	r0, r0, #2, #11
	.loc	10 404 34                       @ lvgl/src/lv_widgets/lv_canvas.c:404:34
	subs	r0, #1
	.loc	10 404 14                       @ lvgl/src/lv_widgets/lv_canvas.c:404:14
	strh.w	r0, [sp, #100]
	.loc	10 405 16 is_stmt 1             @ lvgl/src/lv_widgets/lv_canvas.c:405:16
	ldr	r0, [sp, #104]
	.loc	10 405 32 is_stmt 0             @ lvgl/src/lv_widgets/lv_canvas.c:405:32
	ldrb	r1, [r0, #27]
	ldrh.w	r0, [r0, #25]
	orr.w	r1, r0, r1, lsl #16
	mov.w	r0, #-1
	.loc	10 405 34                       @ lvgl/src/lv_widgets/lv_canvas.c:405:34
	add.w	r0, r0, r1, lsr #13
	.loc	10 405 14                       @ lvgl/src/lv_widgets/lv_canvas.c:405:14
	strh.w	r0, [sp, #102]
	b	.LBB12_18
.Ltmp230:
.LBB12_18:
	.loc	10 408 55 is_stmt 1             @ lvgl/src/lv_widgets/lv_canvas.c:408:55
	ldr	r0, [sp, #116]
	movs	r1, #0
	.loc	10 408 24 is_stmt 0             @ lvgl/src/lv_widgets/lv_canvas.c:408:24
	bl	lv_obj_get_style_image_recolor
	str	r0, [sp, #92]
	.loc	10 410 23 is_stmt 1             @ lvgl/src/lv_widgets/lv_canvas.c:410:23
	ldrh.w	r0, [sp, #110]
	.loc	10 410 25 is_stmt 0             @ lvgl/src/lv_widgets/lv_canvas.c:410:25
	lsrs	r0, r0, #1
	.loc	10 410 14                       @ lvgl/src/lv_widgets/lv_canvas.c:410:14
	strh.w	r0, [sp, #90]
	.loc	10 411 24 is_stmt 1             @ lvgl/src/lv_widgets/lv_canvas.c:411:24
	ldrh.w	r0, [sp, #110]
	.loc	10 411 26 is_stmt 0             @ lvgl/src/lv_widgets/lv_canvas.c:411:26
	lsrs	r0, r0, #1
	.loc	10 411 14                       @ lvgl/src/lv_widgets/lv_canvas.c:411:14
	strh.w	r0, [sp, #88]
	.loc	10 413 8 is_stmt 1              @ lvgl/src/lv_widgets/lv_canvas.c:413:8
	ldrb.w	r0, [sp, #110]
	lsls	r0, r0, #31
	cbnz	r0, .LBB12_20
	b	.LBB12_19
.LBB12_19:
.Ltmp231:
	.loc	10 413 30 is_stmt 0             @ lvgl/src/lv_widgets/lv_canvas.c:413:30
	ldrh.w	r0, [sp, #90]
	subs	r0, #1
	strh.w	r0, [sp, #90]
	.loc	10 413 24                       @ lvgl/src/lv_widgets/lv_canvas.c:413:24
	b	.LBB12_20
.Ltmp232:
.LBB12_20:
	.loc	10 415 42 is_stmt 1             @ lvgl/src/lv_widgets/lv_canvas.c:415:42
	ldr	r0, [sp, #104]
	.loc	10 415 58 is_stmt 0             @ lvgl/src/lv_widgets/lv_canvas.c:415:58
	ldrb	r0, [r0, #24]
	and	r0, r0, #31
	.loc	10 415 22                       @ lvgl/src/lv_widgets/lv_canvas.c:415:22
	bl	lv_img_cf_has_alpha
	.loc	10 415 10                       @ lvgl/src/lv_widgets/lv_canvas.c:415:10
	strb.w	r0, [sp, #87]
	.loc	10 417 49 is_stmt 1             @ lvgl/src/lv_widgets/lv_canvas.c:417:49
	ldr	r1, [sp, #104]
	.loc	10 417 65 is_stmt 0             @ lvgl/src/lv_widgets/lv_canvas.c:417:65
	ldrh.w	r0, [r1, #25]
	ubfx	r0, r0, #2, #11
	.loc	10 417 87                       @ lvgl/src/lv_widgets/lv_canvas.c:417:87
	ldrb	r1, [r1, #24]
	and	r2, r1, #31
	movs	r1, #1
	.loc	10 417 25                       @ lvgl/src/lv_widgets/lv_canvas.c:417:25
	str	r1, [sp, #16]                   @ 4-byte Spill
	bl	lv_img_buf_get_img_size
	.loc	10 417 16                       @ lvgl/src/lv_widgets/lv_canvas.c:417:16
	strh.w	r0, [sp, #84]
	.loc	10 418 42 is_stmt 1             @ lvgl/src/lv_widgets/lv_canvas.c:418:42
	ldrsh.w	r0, [sp, #84]
	.loc	10 418 26 is_stmt 0             @ lvgl/src/lv_widgets/lv_canvas.c:418:26
	bl	_lv_mem_buf_get
	ldr	r1, [sp, #16]                   @ 4-byte Reload
	.loc	10 418 15                       @ lvgl/src/lv_widgets/lv_canvas.c:418:15
	str	r0, [sp, #80]
	.loc	10 421 21 is_stmt 1             @ lvgl/src/lv_widgets/lv_canvas.c:421:21
	ldr	r0, [sp, #80]
	.loc	10 421 19 is_stmt 0             @ lvgl/src/lv_widgets/lv_canvas.c:421:19
	str	r0, [sp, #76]
	.loc	10 422 33 is_stmt 1             @ lvgl/src/lv_widgets/lv_canvas.c:422:33
	ldrb.w	r0, [sp, #68]
	and	r0, r0, #31
	strb.w	r0, [sp, #68]
	.loc	10 423 25                       @ lvgl/src/lv_widgets/lv_canvas.c:423:25
	ldr	r0, [sp, #104]
	.loc	10 423 41 is_stmt 0             @ lvgl/src/lv_widgets/lv_canvas.c:423:41
	ldrh.w	r3, [r0, #25]
	.loc	10 423 23                       @ lvgl/src/lv_widgets/lv_canvas.c:423:23
	ldrb.w	r2, [sp, #71]
	ldrh.w	r0, [sp, #69]
	movw	r12, #8188
	and.w	r3, r3, r12
	movw	r12, #57347
	and.w	r0, r0, r12
	add	r0, r3
	strb.w	r2, [sp, #71]
	strh.w	r0, [sp, #69]
	.loc	10 424 23 is_stmt 1             @ lvgl/src/lv_widgets/lv_canvas.c:424:23
	ldrb.w	r2, [sp, #71]
	ldrh.w	r0, [sp, #69]
	orr.w	r0, r0, r2, lsl #16
	bfi	r0, r1, #13, #19
	strh.w	r0, [sp, #69]
	lsrs	r0, r0, #16
	strb.w	r0, [sp, #71]
	.loc	10 425 26                       @ lvgl/src/lv_widgets/lv_canvas.c:425:26
	ldr	r0, [sp, #104]
	.loc	10 425 42 is_stmt 0             @ lvgl/src/lv_widgets/lv_canvas.c:425:42
	ldrb	r0, [r0, #24]
	and	r1, r0, #31
	.loc	10 425 24                       @ lvgl/src/lv_widgets/lv_canvas.c:425:24
	ldrb.w	r0, [sp, #68]
	and	r0, r0, #224
	add	r0, r1
	strb.w	r0, [sp, #68]
.Ltmp233:
	.loc	10 431 15 is_stmt 1             @ lvgl/src/lv_widgets/lv_canvas.c:431:15
	ldrh.w	r0, [sp, #98]
	.loc	10 431 11 is_stmt 0             @ lvgl/src/lv_widgets/lv_canvas.c:431:11
	strh.w	r0, [sp, #64]
	.loc	10 431 9                        @ lvgl/src/lv_widgets/lv_canvas.c:431:9
	b	.LBB12_21
.LBB12_21:                              @ =>This Loop Header: Depth=1
                                        @     Child Loop BB12_23 Depth 2
                                        @     Child Loop BB12_39 Depth 2
.Ltmp234:
	.loc	10 431 19                       @ lvgl/src/lv_widgets/lv_canvas.c:431:19
	ldrsh.w	r0, [sp, #64]
	.loc	10 431 26                       @ lvgl/src/lv_widgets/lv_canvas.c:431:26
	ldrsh.w	r1, [sp, #102]
.Ltmp235:
	.loc	10 431 5                        @ lvgl/src/lv_widgets/lv_canvas.c:431:5
	cmp	r0, r1
	bgt.w	.LBB12_64
	b	.LBB12_22
.LBB12_22:                              @   in Loop: Header=BB12_21 Depth=1
	.loc	10 0 5                          @ lvgl/src/lv_widgets/lv_canvas.c:0:5
	movs	r0, #0
.Ltmp236:
	.loc	10 432 18 is_stmt 1             @ lvgl/src/lv_widgets/lv_canvas.c:432:18
	str	r0, [sp, #56]
	.loc	10 433 18                       @ lvgl/src/lv_widgets/lv_canvas.c:433:18
	str	r0, [sp, #52]
	.loc	10 434 18                       @ lvgl/src/lv_widgets/lv_canvas.c:434:18
	str	r0, [sp, #48]
	.loc	10 435 18                       @ lvgl/src/lv_widgets/lv_canvas.c:435:18
	str	r0, [sp, #44]
	.loc	10 438 18                       @ lvgl/src/lv_widgets/lv_canvas.c:438:18
	strb.w	r0, [sp, #39]
	.loc	10 439 20                       @ lvgl/src/lv_widgets/lv_canvas.c:439:20
	ldr	r0, [sp, #80]
	.loc	10 439 31 is_stmt 0             @ lvgl/src/lv_widgets/lv_canvas.c:439:31
	ldr	r1, [sp, #104]
	.loc	10 439 40                       @ lvgl/src/lv_widgets/lv_canvas.c:439:40
	ldr	r3, [r1, #32]
	.loc	10 439 45                       @ lvgl/src/lv_widgets/lv_canvas.c:439:45
	ldrsh.w	r1, [sp, #64]
	.loc	10 439 49                       @ lvgl/src/lv_widgets/lv_canvas.c:439:49
	ldrsh.w	r2, [sp, #84]
	.loc	10 439 31                       @ lvgl/src/lv_widgets/lv_canvas.c:439:31
	smlabb	r1, r1, r2, r3
	.loc	10 439 9                        @ lvgl/src/lv_widgets/lv_canvas.c:439:9
	bl	_lv_memcpy
.Ltmp237:
	.loc	10 441 17 is_stmt 1             @ lvgl/src/lv_widgets/lv_canvas.c:441:17
	ldrh.w	r0, [sp, #96]
	.loc	10 441 24 is_stmt 0             @ lvgl/src/lv_widgets/lv_canvas.c:441:24
	ldrh.w	r1, [sp, #90]
	.loc	10 441 22                       @ lvgl/src/lv_widgets/lv_canvas.c:441:22
	subs	r0, r0, r1
	.loc	10 441 15                       @ lvgl/src/lv_widgets/lv_canvas.c:441:15
	strh.w	r0, [sp, #66]
	.loc	10 441 13                       @ lvgl/src/lv_widgets/lv_canvas.c:441:13
	b	.LBB12_23
.LBB12_23:                              @   Parent Loop BB12_21 Depth=1
                                        @ =>  This Inner Loop Header: Depth=2
.Ltmp238:
	.loc	10 441 32                       @ lvgl/src/lv_widgets/lv_canvas.c:441:32
	ldrsh.w	r0, [sp, #66]
	.loc	10 441 39                       @ lvgl/src/lv_widgets/lv_canvas.c:441:39
	ldrsh.w	r1, [sp, #96]
	.loc	10 441 44                       @ lvgl/src/lv_widgets/lv_canvas.c:441:44
	ldrh.w	r2, [sp, #88]
	.loc	10 441 42                       @ lvgl/src/lv_widgets/lv_canvas.c:441:42
	add	r1, r2
.Ltmp239:
	.loc	10 441 9                        @ lvgl/src/lv_widgets/lv_canvas.c:441:9
	cmp	r0, r1
	bgt	.LBB12_36
	b	.LBB12_24
.LBB12_24:                              @   in Loop: Header=BB12_23 Depth=2
.Ltmp240:
	.loc	10 442 22 is_stmt 1             @ lvgl/src/lv_widgets/lv_canvas.c:442:22
	ldrsh.w	r0, [sp, #66]
	cmp.w	r0, #-1
	bgt	.LBB12_26
	b	.LBB12_25
.LBB12_25:                              @   in Loop: Header=BB12_23 Depth=2
	.loc	10 0 22 is_stmt 0               @ lvgl/src/lv_widgets/lv_canvas.c:0:22
	movs	r0, #0
	.loc	10 442 22                       @ lvgl/src/lv_widgets/lv_canvas.c:442:22
	str	r0, [sp, #12]                   @ 4-byte Spill
	b	.LBB12_27
.LBB12_26:                              @   in Loop: Header=BB12_23 Depth=2
	.loc	10 442 34                       @ lvgl/src/lv_widgets/lv_canvas.c:442:34
	ldrsh.w	r0, [sp, #66]
	.loc	10 442 22                       @ lvgl/src/lv_widgets/lv_canvas.c:442:22
	str	r0, [sp, #12]                   @ 4-byte Spill
	b	.LBB12_27
.LBB12_27:                              @   in Loop: Header=BB12_23 Depth=2
	ldr	r0, [sp, #12]                   @ 4-byte Reload
	.loc	10 442 20                       @ lvgl/src/lv_widgets/lv_canvas.c:442:20
	strh.w	r0, [sp, #62]
	.loc	10 443 22 is_stmt 1             @ lvgl/src/lv_widgets/lv_canvas.c:443:22
	ldrsh.w	r0, [sp, #62]
	.loc	10 443 31 is_stmt 0             @ lvgl/src/lv_widgets/lv_canvas.c:443:31
	ldr	r1, [sp, #104]
	.loc	10 443 47                       @ lvgl/src/lv_widgets/lv_canvas.c:443:47
	ldrh.w	r1, [r1, #25]
	ubfx	r1, r1, #2, #11
	.loc	10 443 49                       @ lvgl/src/lv_widgets/lv_canvas.c:443:49
	subs	r1, #1
	.loc	10 443 22                       @ lvgl/src/lv_widgets/lv_canvas.c:443:22
	cmp	r0, r1
	ble	.LBB12_29
	b	.LBB12_28
.LBB12_28:                              @   in Loop: Header=BB12_23 Depth=2
	.loc	10 443 55                       @ lvgl/src/lv_widgets/lv_canvas.c:443:55
	ldr	r0, [sp, #104]
	.loc	10 443 71                       @ lvgl/src/lv_widgets/lv_canvas.c:443:71
	ldrh.w	r0, [r0, #25]
	ubfx	r0, r0, #2, #11
	.loc	10 443 73                       @ lvgl/src/lv_widgets/lv_canvas.c:443:73
	subs	r0, #1
	.loc	10 443 22                       @ lvgl/src/lv_widgets/lv_canvas.c:443:22
	str	r0, [sp, #8]                    @ 4-byte Spill
	b	.LBB12_30
.LBB12_29:                              @   in Loop: Header=BB12_23 Depth=2
	.loc	10 443 79                       @ lvgl/src/lv_widgets/lv_canvas.c:443:79
	ldrsh.w	r0, [sp, #62]
	.loc	10 443 22                       @ lvgl/src/lv_widgets/lv_canvas.c:443:22
	str	r0, [sp, #8]                    @ 4-byte Spill
	b	.LBB12_30
.LBB12_30:                              @   in Loop: Header=BB12_23 Depth=2
	ldr	r0, [sp, #8]                    @ 4-byte Reload
	.loc	10 443 20                       @ lvgl/src/lv_widgets/lv_canvas.c:443:20
	strh.w	r0, [sp, #62]
	.loc	10 445 52 is_stmt 1             @ lvgl/src/lv_widgets/lv_canvas.c:445:52
	ldrsh.w	r1, [sp, #62]
	.loc	10 445 17 is_stmt 0             @ lvgl/src/lv_widgets/lv_canvas.c:445:17
	ldr	r3, [sp, #92]
	add	r0, sp, #68
	movs	r2, #0
	bl	lv_img_buf_get_px_color
	str	r0, [sp, #32]
	ldr	r0, [sp, #32]
	str	r0, [sp, #40]
.Ltmp241:
	.loc	10 446 16 is_stmt 1             @ lvgl/src/lv_widgets/lv_canvas.c:446:16
	ldrb.w	r0, [sp, #87]
.Ltmp242:
	.loc	10 446 16 is_stmt 0             @ lvgl/src/lv_widgets/lv_canvas.c:446:16
	lsls	r0, r0, #31
	cbz	r0, .LBB12_32
	b	.LBB12_31
.LBB12_31:                              @   in Loop: Header=BB12_23 Depth=2
.Ltmp243:
	.loc	10 446 68                       @ lvgl/src/lv_widgets/lv_canvas.c:446:68
	ldrsh.w	r1, [sp, #62]
	add	r0, sp, #68
	movs	r2, #0
	.loc	10 446 33                       @ lvgl/src/lv_widgets/lv_canvas.c:446:33
	bl	lv_img_buf_get_px_alpha
	.loc	10 446 31                       @ lvgl/src/lv_widgets/lv_canvas.c:446:31
	strb.w	r0, [sp, #39]
	.loc	10 446 27                       @ lvgl/src/lv_widgets/lv_canvas.c:446:27
	b	.LBB12_32
.Ltmp244:
.LBB12_32:                              @   in Loop: Header=BB12_23 Depth=2
	.loc	10 448 26 is_stmt 1             @ lvgl/src/lv_widgets/lv_canvas.c:448:26
	ldrb.w	r1, [sp, #42]
	.loc	10 448 18 is_stmt 0             @ lvgl/src/lv_widgets/lv_canvas.c:448:18
	ldr	r0, [sp, #52]
	add	r0, r1
	str	r0, [sp, #52]
	.loc	10 452 26 is_stmt 1             @ lvgl/src/lv_widgets/lv_canvas.c:452:26
	ldrb.w	r1, [sp, #41]
	.loc	10 452 18 is_stmt 0             @ lvgl/src/lv_widgets/lv_canvas.c:452:18
	ldr	r0, [sp, #48]
	add	r0, r1
	str	r0, [sp, #48]
	.loc	10 454 26 is_stmt 1             @ lvgl/src/lv_widgets/lv_canvas.c:454:26
	ldrb.w	r1, [sp, #40]
	.loc	10 454 18 is_stmt 0             @ lvgl/src/lv_widgets/lv_canvas.c:454:18
	ldr	r0, [sp, #44]
	add	r0, r1
	str	r0, [sp, #44]
.Ltmp245:
	.loc	10 455 16 is_stmt 1             @ lvgl/src/lv_widgets/lv_canvas.c:455:16
	ldrb.w	r0, [sp, #87]
.Ltmp246:
	.loc	10 455 16 is_stmt 0             @ lvgl/src/lv_widgets/lv_canvas.c:455:16
	lsls	r0, r0, #31
	cbz	r0, .LBB12_34
	b	.LBB12_33
.LBB12_33:                              @   in Loop: Header=BB12_23 Depth=2
.Ltmp247:
	.loc	10 455 35                       @ lvgl/src/lv_widgets/lv_canvas.c:455:35
	ldrb.w	r1, [sp, #39]
	.loc	10 455 32                       @ lvgl/src/lv_widgets/lv_canvas.c:455:32
	ldr	r0, [sp, #56]
	add	r0, r1
	str	r0, [sp, #56]
	.loc	10 455 27                       @ lvgl/src/lv_widgets/lv_canvas.c:455:27
	b	.LBB12_34
.Ltmp248:
.LBB12_34:                              @   in Loop: Header=BB12_23 Depth=2
	.loc	10 456 9 is_stmt 1              @ lvgl/src/lv_widgets/lv_canvas.c:456:9
	b	.LBB12_35
.Ltmp249:
.LBB12_35:                              @   in Loop: Header=BB12_23 Depth=2
	.loc	10 441 54                       @ lvgl/src/lv_widgets/lv_canvas.c:441:54
	ldrh.w	r0, [sp, #66]
	adds	r0, #1
	strh.w	r0, [sp, #66]
	.loc	10 441 9 is_stmt 0              @ lvgl/src/lv_widgets/lv_canvas.c:441:9
	b	.LBB12_23
.Ltmp250:
.LBB12_36:                              @   in Loop: Header=BB12_21 Depth=1
	.loc	10 459 12 is_stmt 1             @ lvgl/src/lv_widgets/lv_canvas.c:459:12
	ldrb.w	r0, [sp, #87]
.Ltmp251:
	.loc	10 459 12 is_stmt 0             @ lvgl/src/lv_widgets/lv_canvas.c:459:12
	lsls	r0, r0, #31
	cbnz	r0, .LBB12_38
	b	.LBB12_37
.LBB12_37:                              @   in Loop: Header=BB12_21 Depth=1
	.loc	10 0 12                         @ lvgl/src/lv_widgets/lv_canvas.c:0:12
	movs	r0, #255
.Ltmp252:
	.loc	10 459 37                       @ lvgl/src/lv_widgets/lv_canvas.c:459:37
	str	r0, [sp, #56]
	.loc	10 459 32                       @ lvgl/src/lv_widgets/lv_canvas.c:459:32
	b	.LBB12_38
.Ltmp253:
.LBB12_38:                              @   in Loop: Header=BB12_21 Depth=1
	.loc	10 461 19 is_stmt 1             @ lvgl/src/lv_widgets/lv_canvas.c:461:19
	ldrh.w	r0, [sp, #96]
	.loc	10 461 15 is_stmt 0             @ lvgl/src/lv_widgets/lv_canvas.c:461:15
	strh.w	r0, [sp, #66]
	.loc	10 461 13                       @ lvgl/src/lv_widgets/lv_canvas.c:461:13
	b	.LBB12_39
.LBB12_39:                              @   Parent Loop BB12_21 Depth=1
                                        @ =>  This Inner Loop Header: Depth=2
.Ltmp254:
	.loc	10 461 23                       @ lvgl/src/lv_widgets/lv_canvas.c:461:23
	ldrsh.w	r0, [sp, #66]
	.loc	10 461 30                       @ lvgl/src/lv_widgets/lv_canvas.c:461:30
	ldrsh.w	r1, [sp, #100]
.Ltmp255:
	.loc	10 461 9                        @ lvgl/src/lv_widgets/lv_canvas.c:461:9
	cmp	r0, r1
	bgt.w	.LBB12_62
	b	.LBB12_40
.LBB12_40:                              @   in Loop: Header=BB12_39 Depth=2
.Ltmp256:
	.loc	10 463 16 is_stmt 1             @ lvgl/src/lv_widgets/lv_canvas.c:463:16
	ldr	r0, [sp, #56]
.Ltmp257:
	.loc	10 463 16 is_stmt 0             @ lvgl/src/lv_widgets/lv_canvas.c:463:16
	cbz	r0, .LBB12_44
	b	.LBB12_41
.LBB12_41:                              @   in Loop: Header=BB12_39 Depth=2
.Ltmp258:
	.loc	10 464 28 is_stmt 1             @ lvgl/src/lv_widgets/lv_canvas.c:464:28
	ldr	r0, [sp, #52]
	.loc	10 464 35 is_stmt 0             @ lvgl/src/lv_widgets/lv_canvas.c:464:35
	ldrh.w	r1, [sp, #110]
	.loc	10 464 33                       @ lvgl/src/lv_widgets/lv_canvas.c:464:33
	udiv	r0, r0, r1
	.loc	10 464 26                       @ lvgl/src/lv_widgets/lv_canvas.c:464:26
	strb.w	r0, [sp, #42]
	.loc	10 470 30 is_stmt 1             @ lvgl/src/lv_widgets/lv_canvas.c:470:30
	ldr	r0, [sp, #48]
	.loc	10 470 37 is_stmt 0             @ lvgl/src/lv_widgets/lv_canvas.c:470:37
	ldrh.w	r1, [sp, #110]
	.loc	10 470 35                       @ lvgl/src/lv_widgets/lv_canvas.c:470:35
	udiv	r0, r0, r1
	.loc	10 470 28                       @ lvgl/src/lv_widgets/lv_canvas.c:470:28
	strb.w	r0, [sp, #41]
	.loc	10 472 29 is_stmt 1             @ lvgl/src/lv_widgets/lv_canvas.c:472:29
	ldr	r0, [sp, #44]
	.loc	10 472 36 is_stmt 0             @ lvgl/src/lv_widgets/lv_canvas.c:472:36
	ldrh.w	r1, [sp, #110]
	.loc	10 472 34                       @ lvgl/src/lv_widgets/lv_canvas.c:472:34
	udiv	r0, r0, r1
	.loc	10 472 27                       @ lvgl/src/lv_widgets/lv_canvas.c:472:27
	strb.w	r0, [sp, #40]
.Ltmp259:
	.loc	10 473 20 is_stmt 1             @ lvgl/src/lv_widgets/lv_canvas.c:473:20
	ldrb.w	r0, [sp, #87]
.Ltmp260:
	.loc	10 473 20 is_stmt 0             @ lvgl/src/lv_widgets/lv_canvas.c:473:20
	lsls	r0, r0, #31
	cbz	r0, .LBB12_43
	b	.LBB12_42
.LBB12_42:                              @   in Loop: Header=BB12_39 Depth=2
.Ltmp261:
	.loc	10 473 37                       @ lvgl/src/lv_widgets/lv_canvas.c:473:37
	ldr	r0, [sp, #56]
	.loc	10 473 44                       @ lvgl/src/lv_widgets/lv_canvas.c:473:44
	ldrh.w	r1, [sp, #110]
	.loc	10 473 42                       @ lvgl/src/lv_widgets/lv_canvas.c:473:42
	udiv	r0, r0, r1
	.loc	10 473 35                       @ lvgl/src/lv_widgets/lv_canvas.c:473:35
	strb.w	r0, [sp, #39]
	.loc	10 473 31                       @ lvgl/src/lv_widgets/lv_canvas.c:473:31
	b	.LBB12_43
.Ltmp262:
.LBB12_43:                              @   in Loop: Header=BB12_39 Depth=2
	.loc	10 475 42 is_stmt 1             @ lvgl/src/lv_widgets/lv_canvas.c:475:42
	ldr	r0, [sp, #104]
	.loc	10 475 47 is_stmt 0             @ lvgl/src/lv_widgets/lv_canvas.c:475:47
	adds	r0, #24
	.loc	10 475 52                       @ lvgl/src/lv_widgets/lv_canvas.c:475:52
	ldrsh.w	r1, [sp, #66]
	.loc	10 475 55                       @ lvgl/src/lv_widgets/lv_canvas.c:475:55
	ldrsh.w	r2, [sp, #64]
	.loc	10 475 17                       @ lvgl/src/lv_widgets/lv_canvas.c:475:17
	ldr	r3, [sp, #40]
	bl	lv_img_buf_set_px_color
	.loc	10 476 13 is_stmt 1             @ lvgl/src/lv_widgets/lv_canvas.c:476:13
	b	.LBB12_44
.Ltmp263:
.LBB12_44:                              @   in Loop: Header=BB12_39 Depth=2
	.loc	10 477 16                       @ lvgl/src/lv_widgets/lv_canvas.c:477:16
	ldrb.w	r0, [sp, #87]
.Ltmp264:
	.loc	10 477 16 is_stmt 0             @ lvgl/src/lv_widgets/lv_canvas.c:477:16
	lsls	r0, r0, #31
	cbz	r0, .LBB12_46
	b	.LBB12_45
.LBB12_45:                              @   in Loop: Header=BB12_39 Depth=2
.Ltmp265:
	.loc	10 477 52                       @ lvgl/src/lv_widgets/lv_canvas.c:477:52
	ldr	r0, [sp, #104]
	.loc	10 477 57                       @ lvgl/src/lv_widgets/lv_canvas.c:477:57
	adds	r0, #24
	.loc	10 477 62                       @ lvgl/src/lv_widgets/lv_canvas.c:477:62
	ldrsh.w	r1, [sp, #66]
	.loc	10 477 65                       @ lvgl/src/lv_widgets/lv_canvas.c:477:65
	ldrsh.w	r2, [sp, #64]
	.loc	10 477 68                       @ lvgl/src/lv_widgets/lv_canvas.c:477:68
	ldrb.w	r3, [sp, #39]
	.loc	10 477 27                       @ lvgl/src/lv_widgets/lv_canvas.c:477:27
	bl	lv_img_buf_set_px_alpha
	b	.LBB12_46
.Ltmp266:
.LBB12_46:                              @   in Loop: Header=BB12_39 Depth=2
	.loc	10 479 22 is_stmt 1             @ lvgl/src/lv_widgets/lv_canvas.c:479:22
	ldrh.w	r0, [sp, #66]
	.loc	10 479 26 is_stmt 0             @ lvgl/src/lv_widgets/lv_canvas.c:479:26
	ldrh.w	r1, [sp, #90]
	.loc	10 479 24                       @ lvgl/src/lv_widgets/lv_canvas.c:479:24
	subs	r0, r0, r1
	.loc	10 479 20                       @ lvgl/src/lv_widgets/lv_canvas.c:479:20
	strh.w	r0, [sp, #62]
	.loc	10 480 22 is_stmt 1             @ lvgl/src/lv_widgets/lv_canvas.c:480:22
	ldrsh.w	r0, [sp, #62]
	cmp.w	r0, #-1
	bgt	.LBB12_48
	b	.LBB12_47
.LBB12_47:                              @   in Loop: Header=BB12_39 Depth=2
	.loc	10 0 22 is_stmt 0               @ lvgl/src/lv_widgets/lv_canvas.c:0:22
	movs	r0, #0
	.loc	10 480 22                       @ lvgl/src/lv_widgets/lv_canvas.c:480:22
	str	r0, [sp, #4]                    @ 4-byte Spill
	b	.LBB12_49
.LBB12_48:                              @   in Loop: Header=BB12_39 Depth=2
	.loc	10 480 39                       @ lvgl/src/lv_widgets/lv_canvas.c:480:39
	ldrsh.w	r0, [sp, #62]
	.loc	10 480 22                       @ lvgl/src/lv_widgets/lv_canvas.c:480:22
	str	r0, [sp, #4]                    @ 4-byte Spill
	b	.LBB12_49
.LBB12_49:                              @   in Loop: Header=BB12_39 Depth=2
	ldr	r0, [sp, #4]                    @ 4-byte Reload
	.loc	10 480 20                       @ lvgl/src/lv_widgets/lv_canvas.c:480:20
	strh.w	r0, [sp, #62]
	.loc	10 481 52 is_stmt 1             @ lvgl/src/lv_widgets/lv_canvas.c:481:52
	ldrsh.w	r1, [sp, #62]
	.loc	10 481 17 is_stmt 0             @ lvgl/src/lv_widgets/lv_canvas.c:481:17
	ldr	r3, [sp, #92]
	add	r0, sp, #68
	movs	r2, #0
	bl	lv_img_buf_get_px_color
	str	r0, [sp, #28]
	ldr	r0, [sp, #28]
	str	r0, [sp, #40]
.Ltmp267:
	.loc	10 482 16 is_stmt 1             @ lvgl/src/lv_widgets/lv_canvas.c:482:16
	ldrb.w	r0, [sp, #87]
.Ltmp268:
	.loc	10 482 16 is_stmt 0             @ lvgl/src/lv_widgets/lv_canvas.c:482:16
	lsls	r0, r0, #31
	cbz	r0, .LBB12_51
	b	.LBB12_50
.LBB12_50:                              @   in Loop: Header=BB12_39 Depth=2
.Ltmp269:
	.loc	10 482 68                       @ lvgl/src/lv_widgets/lv_canvas.c:482:68
	ldrsh.w	r1, [sp, #62]
	add	r0, sp, #68
	movs	r2, #0
	.loc	10 482 33                       @ lvgl/src/lv_widgets/lv_canvas.c:482:33
	bl	lv_img_buf_get_px_alpha
	.loc	10 482 31                       @ lvgl/src/lv_widgets/lv_canvas.c:482:31
	strb.w	r0, [sp, #39]
	.loc	10 482 27                       @ lvgl/src/lv_widgets/lv_canvas.c:482:27
	b	.LBB12_51
.Ltmp270:
.LBB12_51:                              @   in Loop: Header=BB12_39 Depth=2
	.loc	10 484 26 is_stmt 1             @ lvgl/src/lv_widgets/lv_canvas.c:484:26
	ldrb.w	r1, [sp, #42]
	.loc	10 484 18 is_stmt 0             @ lvgl/src/lv_widgets/lv_canvas.c:484:18
	ldr	r0, [sp, #52]
	subs	r0, r0, r1
	str	r0, [sp, #52]
	.loc	10 488 26 is_stmt 1             @ lvgl/src/lv_widgets/lv_canvas.c:488:26
	ldrb.w	r1, [sp, #41]
	.loc	10 488 18 is_stmt 0             @ lvgl/src/lv_widgets/lv_canvas.c:488:18
	ldr	r0, [sp, #48]
	subs	r0, r0, r1
	str	r0, [sp, #48]
	.loc	10 490 26 is_stmt 1             @ lvgl/src/lv_widgets/lv_canvas.c:490:26
	ldrb.w	r1, [sp, #40]
	.loc	10 490 18 is_stmt 0             @ lvgl/src/lv_widgets/lv_canvas.c:490:18
	ldr	r0, [sp, #44]
	subs	r0, r0, r1
	str	r0, [sp, #44]
.Ltmp271:
	.loc	10 491 16 is_stmt 1             @ lvgl/src/lv_widgets/lv_canvas.c:491:16
	ldrb.w	r0, [sp, #87]
.Ltmp272:
	.loc	10 491 16 is_stmt 0             @ lvgl/src/lv_widgets/lv_canvas.c:491:16
	lsls	r0, r0, #31
	cbz	r0, .LBB12_53
	b	.LBB12_52
.LBB12_52:                              @   in Loop: Header=BB12_39 Depth=2
.Ltmp273:
	.loc	10 491 35                       @ lvgl/src/lv_widgets/lv_canvas.c:491:35
	ldrb.w	r1, [sp, #39]
	.loc	10 491 32                       @ lvgl/src/lv_widgets/lv_canvas.c:491:32
	ldr	r0, [sp, #56]
	subs	r0, r0, r1
	str	r0, [sp, #56]
	.loc	10 491 27                       @ lvgl/src/lv_widgets/lv_canvas.c:491:27
	b	.LBB12_53
.Ltmp274:
.LBB12_53:                              @   in Loop: Header=BB12_39 Depth=2
	.loc	10 493 22 is_stmt 1             @ lvgl/src/lv_widgets/lv_canvas.c:493:22
	ldrh.w	r0, [sp, #66]
	.loc	10 493 30 is_stmt 0             @ lvgl/src/lv_widgets/lv_canvas.c:493:30
	ldrh.w	r1, [sp, #88]
	.loc	10 493 24                       @ lvgl/src/lv_widgets/lv_canvas.c:493:24
	add	r0, r1
	.loc	10 493 28                       @ lvgl/src/lv_widgets/lv_canvas.c:493:28
	adds	r0, #1
	.loc	10 493 20                       @ lvgl/src/lv_widgets/lv_canvas.c:493:20
	strh.w	r0, [sp, #62]
	.loc	10 494 22 is_stmt 1             @ lvgl/src/lv_widgets/lv_canvas.c:494:22
	ldrsh.w	r0, [sp, #62]
	.loc	10 494 31 is_stmt 0             @ lvgl/src/lv_widgets/lv_canvas.c:494:31
	ldr	r1, [sp, #104]
	.loc	10 494 47                       @ lvgl/src/lv_widgets/lv_canvas.c:494:47
	ldrh.w	r1, [r1, #25]
	ubfx	r1, r1, #2, #11
	.loc	10 494 49                       @ lvgl/src/lv_widgets/lv_canvas.c:494:49
	subs	r1, #1
	.loc	10 494 22                       @ lvgl/src/lv_widgets/lv_canvas.c:494:22
	cmp	r0, r1
	ble	.LBB12_55
	b	.LBB12_54
.LBB12_54:                              @   in Loop: Header=BB12_39 Depth=2
	.loc	10 494 55                       @ lvgl/src/lv_widgets/lv_canvas.c:494:55
	ldr	r0, [sp, #104]
	.loc	10 494 71                       @ lvgl/src/lv_widgets/lv_canvas.c:494:71
	ldrh.w	r0, [r0, #25]
	ubfx	r0, r0, #2, #11
	.loc	10 494 73                       @ lvgl/src/lv_widgets/lv_canvas.c:494:73
	subs	r0, #1
	.loc	10 494 22                       @ lvgl/src/lv_widgets/lv_canvas.c:494:22
	str	r0, [sp]                        @ 4-byte Spill
	b	.LBB12_56
.LBB12_55:                              @   in Loop: Header=BB12_39 Depth=2
	.loc	10 494 79                       @ lvgl/src/lv_widgets/lv_canvas.c:494:79
	ldrsh.w	r0, [sp, #62]
	.loc	10 494 22                       @ lvgl/src/lv_widgets/lv_canvas.c:494:22
	str	r0, [sp]                        @ 4-byte Spill
	b	.LBB12_56
.LBB12_56:                              @   in Loop: Header=BB12_39 Depth=2
	ldr	r0, [sp]                        @ 4-byte Reload
	.loc	10 494 20                       @ lvgl/src/lv_widgets/lv_canvas.c:494:20
	strh.w	r0, [sp, #62]
	.loc	10 495 52 is_stmt 1             @ lvgl/src/lv_widgets/lv_canvas.c:495:52
	ldrsh.w	r1, [sp, #62]
	movs	r2, #0
	.loc	10 495 63 is_stmt 0             @ lvgl/src/lv_widgets/lv_canvas.c:495:63
	strb.w	r2, [sp, #20]
	strb.w	r2, [sp, #21]
	movs	r0, #255
	strb.w	r0, [sp, #22]
	strb.w	r0, [sp, #23]
	.loc	10 495 17                       @ lvgl/src/lv_widgets/lv_canvas.c:495:17
	ldr	r3, [sp, #20]
	add	r0, sp, #68
	bl	lv_img_buf_get_px_color
	str	r0, [sp, #24]
	ldr	r0, [sp, #24]
	str	r0, [sp, #40]
.Ltmp275:
	.loc	10 496 16 is_stmt 1             @ lvgl/src/lv_widgets/lv_canvas.c:496:16
	ldrb.w	r0, [sp, #87]
.Ltmp276:
	.loc	10 496 16 is_stmt 0             @ lvgl/src/lv_widgets/lv_canvas.c:496:16
	lsls	r0, r0, #31
	cbz	r0, .LBB12_58
	b	.LBB12_57
.LBB12_57:                              @   in Loop: Header=BB12_39 Depth=2
.Ltmp277:
	.loc	10 496 68                       @ lvgl/src/lv_widgets/lv_canvas.c:496:68
	ldrsh.w	r1, [sp, #62]
	add	r0, sp, #68
	movs	r2, #0
	.loc	10 496 33                       @ lvgl/src/lv_widgets/lv_canvas.c:496:33
	bl	lv_img_buf_get_px_alpha
	.loc	10 496 31                       @ lvgl/src/lv_widgets/lv_canvas.c:496:31
	strb.w	r0, [sp, #39]
	.loc	10 496 27                       @ lvgl/src/lv_widgets/lv_canvas.c:496:27
	b	.LBB12_58
.Ltmp278:
.LBB12_58:                              @   in Loop: Header=BB12_39 Depth=2
	.loc	10 498 26 is_stmt 1             @ lvgl/src/lv_widgets/lv_canvas.c:498:26
	ldrb.w	r1, [sp, #42]
	.loc	10 498 18 is_stmt 0             @ lvgl/src/lv_widgets/lv_canvas.c:498:18
	ldr	r0, [sp, #52]
	add	r0, r1
	str	r0, [sp, #52]
	.loc	10 502 26 is_stmt 1             @ lvgl/src/lv_widgets/lv_canvas.c:502:26
	ldrb.w	r1, [sp, #41]
	.loc	10 502 18 is_stmt 0             @ lvgl/src/lv_widgets/lv_canvas.c:502:18
	ldr	r0, [sp, #48]
	add	r0, r1
	str	r0, [sp, #48]
	.loc	10 504 26 is_stmt 1             @ lvgl/src/lv_widgets/lv_canvas.c:504:26
	ldrb.w	r1, [sp, #40]
	.loc	10 504 18 is_stmt 0             @ lvgl/src/lv_widgets/lv_canvas.c:504:18
	ldr	r0, [sp, #44]
	add	r0, r1
	str	r0, [sp, #44]
.Ltmp279:
	.loc	10 505 16 is_stmt 1             @ lvgl/src/lv_widgets/lv_canvas.c:505:16
	ldrb.w	r0, [sp, #87]
.Ltmp280:
	.loc	10 505 16 is_stmt 0             @ lvgl/src/lv_widgets/lv_canvas.c:505:16
	lsls	r0, r0, #31
	cbz	r0, .LBB12_60
	b	.LBB12_59
.LBB12_59:                              @   in Loop: Header=BB12_39 Depth=2
.Ltmp281:
	.loc	10 505 35                       @ lvgl/src/lv_widgets/lv_canvas.c:505:35
	ldrb.w	r1, [sp, #39]
	.loc	10 505 32                       @ lvgl/src/lv_widgets/lv_canvas.c:505:32
	ldr	r0, [sp, #56]
	add	r0, r1
	str	r0, [sp, #56]
	.loc	10 505 27                       @ lvgl/src/lv_widgets/lv_canvas.c:505:27
	b	.LBB12_60
.Ltmp282:
.LBB12_60:                              @   in Loop: Header=BB12_39 Depth=2
	.loc	10 506 9 is_stmt 1              @ lvgl/src/lv_widgets/lv_canvas.c:506:9
	b	.LBB12_61
.Ltmp283:
.LBB12_61:                              @   in Loop: Header=BB12_39 Depth=2
	.loc	10 461 35                       @ lvgl/src/lv_widgets/lv_canvas.c:461:35
	ldrh.w	r0, [sp, #66]
	adds	r0, #1
	strh.w	r0, [sp, #66]
	.loc	10 461 9 is_stmt 0              @ lvgl/src/lv_widgets/lv_canvas.c:461:9
	b	.LBB12_39
.Ltmp284:
.LBB12_62:                              @   in Loop: Header=BB12_21 Depth=1
	.loc	10 507 5 is_stmt 1              @ lvgl/src/lv_widgets/lv_canvas.c:507:5
	b	.LBB12_63
.Ltmp285:
.LBB12_63:                              @   in Loop: Header=BB12_21 Depth=1
	.loc	10 431 31                       @ lvgl/src/lv_widgets/lv_canvas.c:431:31
	ldrh.w	r0, [sp, #64]
	adds	r0, #1
	strh.w	r0, [sp, #64]
	.loc	10 431 5 is_stmt 0              @ lvgl/src/lv_widgets/lv_canvas.c:431:5
	b	.LBB12_21
.Ltmp286:
.LBB12_64:
	.loc	10 508 23 is_stmt 1             @ lvgl/src/lv_widgets/lv_canvas.c:508:23
	ldr	r0, [sp, #116]
	.loc	10 508 5 is_stmt 0              @ lvgl/src/lv_widgets/lv_canvas.c:508:5
	bl	lv_obj_invalidate
	.loc	10 510 25 is_stmt 1             @ lvgl/src/lv_widgets/lv_canvas.c:510:25
	ldr	r0, [sp, #80]
	.loc	10 510 5 is_stmt 0              @ lvgl/src/lv_widgets/lv_canvas.c:510:5
	bl	_lv_mem_buf_release
	.loc	10 511 1 is_stmt 1              @ lvgl/src/lv_widgets/lv_canvas.c:511:1
	b	.LBB12_65
.LBB12_65:
	add	sp, #120
	pop	{r7, pc}
.Ltmp287:
.Lfunc_end12:
	.size	lv_canvas_blur_hor, .Lfunc_end12-lv_canvas_blur_hor
	.cfi_endproc
	.cantunwind
	.fnend
                                        @ -- End function
	.section	.text.lv_area_copy,"ax",%progbits
	.p2align	3                               @ -- Begin function lv_area_copy
	.type	lv_area_copy,%function
	.code	16                              @ @lv_area_copy
	.thumb_func
lv_area_copy:
.Lfunc_begin13:
	.loc	6 98 0                          @ lvgl/src/lv_widgets/../lv_core/../lv_hal/../lv_misc/lv_area.h:98:0
	.fnstart
	.cfi_startproc
@ %bb.0:
	.save	{r7, lr}
	push	{r7, lr}
	.cfi_def_cfa_offset 8
	.cfi_offset lr, -4
	.cfi_offset r7, -8
	.pad	#8
	sub	sp, #8
	.cfi_def_cfa_offset 16
	str	r0, [sp, #4]
	str	r1, [sp]
.Ltmp288:
	.loc	6 99 22 prologue_end            @ lvgl/src/lv_widgets/../lv_core/../lv_hal/../lv_misc/lv_area.h:99:22
	ldr	r0, [sp, #4]
	.loc	6 99 28 is_stmt 0               @ lvgl/src/lv_widgets/../lv_core/../lv_hal/../lv_misc/lv_area.h:99:28
	ldr	r1, [sp]
	movs	r2, #8
	.loc	6 99 5                          @ lvgl/src/lv_widgets/../lv_core/../lv_hal/../lv_misc/lv_area.h:99:5
	bl	_lv_memcpy_small
	.loc	6 100 1 is_stmt 1               @ lvgl/src/lv_widgets/../lv_core/../lv_hal/../lv_misc/lv_area.h:100:1
	add	sp, #8
	pop	{r7, pc}
.Ltmp289:
.Lfunc_end13:
	.size	lv_area_copy, .Lfunc_end13-lv_area_copy
	.cfi_endproc
	.cantunwind
	.fnend
                                        @ -- End function
	.section	.text.lv_canvas_blur_ver,"ax",%progbits
	.hidden	lv_canvas_blur_ver              @ -- Begin function lv_canvas_blur_ver
	.globl	lv_canvas_blur_ver
	.p2align	3
	.type	lv_canvas_blur_ver,%function
	.code	16                              @ @lv_canvas_blur_ver
	.thumb_func
lv_canvas_blur_ver:
.Lfunc_begin14:
	.loc	10 520 0                        @ lvgl/src/lv_widgets/lv_canvas.c:520:0
	.fnstart
	.cfi_startproc
@ %bb.0:
	.save	{r7, lr}
	push	{r7, lr}
	.cfi_def_cfa_offset 8
	.cfi_offset lr, -4
	.cfi_offset r7, -8
	.pad	#112
	sub	sp, #112
	.cfi_def_cfa_offset 120
                                        @ kill: def $r3 killed $r2
	str	r0, [sp, #108]
	str	r1, [sp, #104]
	strh.w	r2, [sp, #102]
.Ltmp290:
	.loc	10 521 5 prologue_end           @ lvgl/src/lv_widgets/lv_canvas.c:521:5
	b	.LBB14_1
.LBB14_1:
.Ltmp291:
	.loc	10 521 5 is_stmt 0              @ lvgl/src/lv_widgets/lv_canvas.c:521:5
	ldr	r0, [sp, #108]
	bl	lv_debug_check_null
.Ltmp292:
	.loc	10 521 5                        @ lvgl/src/lv_widgets/lv_canvas.c:521:5
	cbnz	r0, .LBB14_4
	b	.LBB14_2
.LBB14_2:
.Ltmp293:
	.loc	10 521 5                        @ lvgl/src/lv_widgets/lv_canvas.c:521:5
	ldr	r2, [sp, #108]
	movw	r0, :lower16:.L.str.1
	movt	r0, :upper16:.L.str.1
	movs	r3, #0
	bl	lv_debug_log_error
	b	.LBB14_3
.LBB14_3:                               @ =>This Inner Loop Header: Depth=1
	b	.LBB14_3
.Ltmp294:
.LBB14_4:
	.loc	10 521 5                        @ lvgl/src/lv_widgets/lv_canvas.c:521:5
	b	.LBB14_5
.Ltmp295:
.LBB14_5:
	.loc	10 523 8 is_stmt 1              @ lvgl/src/lv_widgets/lv_canvas.c:523:8
	ldrh.w	r0, [sp, #102]
.Ltmp296:
	.loc	10 523 8 is_stmt 0              @ lvgl/src/lv_widgets/lv_canvas.c:523:8
	cbnz	r0, .LBB14_7
	b	.LBB14_6
.LBB14_6:
.Ltmp297:
	.loc	10 523 16                       @ lvgl/src/lv_widgets/lv_canvas.c:523:16
	b	.LBB14_69
.Ltmp298:
.LBB14_7:
	.loc	10 525 49 is_stmt 1             @ lvgl/src/lv_widgets/lv_canvas.c:525:49
	ldr	r0, [sp, #108]
	.loc	10 525 29 is_stmt 0             @ lvgl/src/lv_widgets/lv_canvas.c:525:29
	bl	lv_obj_get_ext_attr
	.loc	10 525 23                       @ lvgl/src/lv_widgets/lv_canvas.c:525:23
	str	r0, [sp, #96]
.Ltmp299:
	.loc	10 528 8 is_stmt 1              @ lvgl/src/lv_widgets/lv_canvas.c:528:8
	ldr	r0, [sp, #104]
.Ltmp300:
	.loc	10 528 8 is_stmt 0              @ lvgl/src/lv_widgets/lv_canvas.c:528:8
	cmp	r0, #0
	beq	.LBB14_17
	b	.LBB14_8
.LBB14_8:
.Ltmp301:
	.loc	10 529 26 is_stmt 1             @ lvgl/src/lv_widgets/lv_canvas.c:529:26
	ldr	r1, [sp, #104]
	add	r0, sp, #88
	.loc	10 529 9 is_stmt 0              @ lvgl/src/lv_widgets/lv_canvas.c:529:9
	bl	lv_area_copy
.Ltmp302:
	.loc	10 530 14 is_stmt 1             @ lvgl/src/lv_widgets/lv_canvas.c:530:14
	ldrsh.w	r0, [sp, #88]
.Ltmp303:
	.loc	10 530 12 is_stmt 0             @ lvgl/src/lv_widgets/lv_canvas.c:530:12
	cmp.w	r0, #-1
	bgt	.LBB14_10
	b	.LBB14_9
.LBB14_9:
	.loc	10 0 12                         @ lvgl/src/lv_widgets/lv_canvas.c:0:12
	movs	r0, #0
.Ltmp304:
	.loc	10 530 27                       @ lvgl/src/lv_widgets/lv_canvas.c:530:27
	strh.w	r0, [sp, #88]
	.loc	10 530 22                       @ lvgl/src/lv_widgets/lv_canvas.c:530:22
	b	.LBB14_10
.Ltmp305:
.LBB14_10:
	.loc	10 531 14 is_stmt 1             @ lvgl/src/lv_widgets/lv_canvas.c:531:14
	ldrsh.w	r0, [sp, #90]
.Ltmp306:
	.loc	10 531 12 is_stmt 0             @ lvgl/src/lv_widgets/lv_canvas.c:531:12
	cmp.w	r0, #-1
	bgt	.LBB14_12
	b	.LBB14_11
.LBB14_11:
	.loc	10 0 12                         @ lvgl/src/lv_widgets/lv_canvas.c:0:12
	movs	r0, #0
.Ltmp307:
	.loc	10 531 27                       @ lvgl/src/lv_widgets/lv_canvas.c:531:27
	strh.w	r0, [sp, #90]
	.loc	10 531 22                       @ lvgl/src/lv_widgets/lv_canvas.c:531:22
	b	.LBB14_12
.Ltmp308:
.LBB14_12:
	.loc	10 532 14 is_stmt 1             @ lvgl/src/lv_widgets/lv_canvas.c:532:14
	ldrsh.w	r0, [sp, #92]
	.loc	10 532 19 is_stmt 0             @ lvgl/src/lv_widgets/lv_canvas.c:532:19
	ldr	r1, [sp, #96]
	.loc	10 532 35                       @ lvgl/src/lv_widgets/lv_canvas.c:532:35
	ldrh.w	r1, [r1, #25]
	ubfx	r1, r1, #2, #11
	.loc	10 532 37                       @ lvgl/src/lv_widgets/lv_canvas.c:532:37
	subs	r1, #1
.Ltmp309:
	.loc	10 532 12                       @ lvgl/src/lv_widgets/lv_canvas.c:532:12
	cmp	r0, r1
	ble	.LBB14_14
	b	.LBB14_13
.LBB14_13:
.Ltmp310:
	.loc	10 532 49                       @ lvgl/src/lv_widgets/lv_canvas.c:532:49
	ldr	r0, [sp, #96]
	.loc	10 532 65                       @ lvgl/src/lv_widgets/lv_canvas.c:532:65
	ldrh.w	r0, [r0, #25]
	ubfx	r0, r0, #2, #11
	.loc	10 532 67                       @ lvgl/src/lv_widgets/lv_canvas.c:532:67
	subs	r0, #1
	.loc	10 532 47                       @ lvgl/src/lv_widgets/lv_canvas.c:532:47
	strh.w	r0, [sp, #92]
	.loc	10 532 42                       @ lvgl/src/lv_widgets/lv_canvas.c:532:42
	b	.LBB14_14
.Ltmp311:
.LBB14_14:
	.loc	10 533 14 is_stmt 1             @ lvgl/src/lv_widgets/lv_canvas.c:533:14
	ldrsh.w	r0, [sp, #94]
	.loc	10 533 19 is_stmt 0             @ lvgl/src/lv_widgets/lv_canvas.c:533:19
	ldr	r1, [sp, #96]
	.loc	10 533 35                       @ lvgl/src/lv_widgets/lv_canvas.c:533:35
	ldrb	r2, [r1, #27]
	ldrh.w	r1, [r1, #25]
	orr.w	r2, r1, r2, lsl #16
	mov.w	r1, #-1
	.loc	10 533 37                       @ lvgl/src/lv_widgets/lv_canvas.c:533:37
	add.w	r1, r1, r2, lsr #13
.Ltmp312:
	.loc	10 533 12                       @ lvgl/src/lv_widgets/lv_canvas.c:533:12
	cmp	r0, r1
	ble	.LBB14_16
	b	.LBB14_15
.LBB14_15:
.Ltmp313:
	.loc	10 533 49                       @ lvgl/src/lv_widgets/lv_canvas.c:533:49
	ldr	r0, [sp, #96]
	.loc	10 533 65                       @ lvgl/src/lv_widgets/lv_canvas.c:533:65
	ldrb	r1, [r0, #27]
	ldrh.w	r0, [r0, #25]
	orr.w	r1, r0, r1, lsl #16
	mov.w	r0, #-1
	.loc	10 533 67                       @ lvgl/src/lv_widgets/lv_canvas.c:533:67
	add.w	r0, r0, r1, lsr #13
	.loc	10 533 47                       @ lvgl/src/lv_widgets/lv_canvas.c:533:47
	strh.w	r0, [sp, #94]
	.loc	10 533 42                       @ lvgl/src/lv_widgets/lv_canvas.c:533:42
	b	.LBB14_16
.Ltmp314:
.LBB14_16:
	.loc	10 534 5 is_stmt 1              @ lvgl/src/lv_widgets/lv_canvas.c:534:5
	b	.LBB14_18
.Ltmp315:
.LBB14_17:
	.loc	10 0 5 is_stmt 0                @ lvgl/src/lv_widgets/lv_canvas.c:0:5
	movs	r0, #0
.Ltmp316:
	.loc	10 536 14 is_stmt 1             @ lvgl/src/lv_widgets/lv_canvas.c:536:14
	strh.w	r0, [sp, #88]
	.loc	10 537 14                       @ lvgl/src/lv_widgets/lv_canvas.c:537:14
	strh.w	r0, [sp, #90]
	.loc	10 538 16                       @ lvgl/src/lv_widgets/lv_canvas.c:538:16
	ldr	r0, [sp, #96]
	.loc	10 538 32 is_stmt 0             @ lvgl/src/lv_widgets/lv_canvas.c:538:32
	ldrh.w	r0, [r0, #25]
	ubfx	r0, r0, #2, #11
	.loc	10 538 34                       @ lvgl/src/lv_widgets/lv_canvas.c:538:34
	subs	r0, #1
	.loc	10 538 14                       @ lvgl/src/lv_widgets/lv_canvas.c:538:14
	strh.w	r0, [sp, #92]
	.loc	10 539 16 is_stmt 1             @ lvgl/src/lv_widgets/lv_canvas.c:539:16
	ldr	r0, [sp, #96]
	.loc	10 539 32 is_stmt 0             @ lvgl/src/lv_widgets/lv_canvas.c:539:32
	ldrb	r1, [r0, #27]
	ldrh.w	r0, [r0, #25]
	orr.w	r1, r0, r1, lsl #16
	mov.w	r0, #-1
	.loc	10 539 34                       @ lvgl/src/lv_widgets/lv_canvas.c:539:34
	add.w	r0, r0, r1, lsr #13
	.loc	10 539 14                       @ lvgl/src/lv_widgets/lv_canvas.c:539:14
	strh.w	r0, [sp, #94]
	b	.LBB14_18
.Ltmp317:
.LBB14_18:
	.loc	10 542 55 is_stmt 1             @ lvgl/src/lv_widgets/lv_canvas.c:542:55
	ldr	r0, [sp, #108]
	movs	r1, #0
	.loc	10 542 24 is_stmt 0             @ lvgl/src/lv_widgets/lv_canvas.c:542:24
	bl	lv_obj_get_style_image_recolor
	str	r0, [sp, #84]
	.loc	10 544 23 is_stmt 1             @ lvgl/src/lv_widgets/lv_canvas.c:544:23
	ldrh.w	r0, [sp, #102]
	.loc	10 544 25 is_stmt 0             @ lvgl/src/lv_widgets/lv_canvas.c:544:25
	lsrs	r0, r0, #1
	.loc	10 544 14                       @ lvgl/src/lv_widgets/lv_canvas.c:544:14
	strh.w	r0, [sp, #82]
	.loc	10 545 24 is_stmt 1             @ lvgl/src/lv_widgets/lv_canvas.c:545:24
	ldrh.w	r0, [sp, #102]
	.loc	10 545 26 is_stmt 0             @ lvgl/src/lv_widgets/lv_canvas.c:545:26
	lsrs	r0, r0, #1
	.loc	10 545 14                       @ lvgl/src/lv_widgets/lv_canvas.c:545:14
	strh.w	r0, [sp, #80]
	.loc	10 547 8 is_stmt 1              @ lvgl/src/lv_widgets/lv_canvas.c:547:8
	ldrb.w	r0, [sp, #102]
	lsls	r0, r0, #31
	cbnz	r0, .LBB14_20
	b	.LBB14_19
.LBB14_19:
.Ltmp318:
	.loc	10 547 30 is_stmt 0             @ lvgl/src/lv_widgets/lv_canvas.c:547:30
	ldrh.w	r0, [sp, #82]
	subs	r0, #1
	strh.w	r0, [sp, #82]
	.loc	10 547 24                       @ lvgl/src/lv_widgets/lv_canvas.c:547:24
	b	.LBB14_20
.Ltmp319:
.LBB14_20:
	.loc	10 549 42 is_stmt 1             @ lvgl/src/lv_widgets/lv_canvas.c:549:42
	ldr	r0, [sp, #96]
	.loc	10 549 58 is_stmt 0             @ lvgl/src/lv_widgets/lv_canvas.c:549:58
	ldrb	r0, [r0, #24]
	and	r0, r0, #31
	.loc	10 549 22                       @ lvgl/src/lv_widgets/lv_canvas.c:549:22
	bl	lv_img_cf_has_alpha
	.loc	10 549 10                       @ lvgl/src/lv_widgets/lv_canvas.c:549:10
	strb.w	r0, [sp, #79]
	.loc	10 550 51 is_stmt 1             @ lvgl/src/lv_widgets/lv_canvas.c:550:51
	ldr	r1, [sp, #96]
	.loc	10 550 86 is_stmt 0             @ lvgl/src/lv_widgets/lv_canvas.c:550:86
	ldrb	r0, [r1, #24]
	.loc	10 550 67                       @ lvgl/src/lv_widgets/lv_canvas.c:550:67
	ldrb	r2, [r1, #27]
	ldrh.w	r1, [r1, #25]
	orr.w	r1, r1, r2, lsl #16
	lsrs	r1, r1, #13
	.loc	10 550 86                       @ lvgl/src/lv_widgets/lv_canvas.c:550:86
	and	r2, r0, #31
	movs	r0, #1
	.loc	10 550 24                       @ lvgl/src/lv_widgets/lv_canvas.c:550:24
	bl	lv_img_buf_get_img_size
	.loc	10 550 16                       @ lvgl/src/lv_widgets/lv_canvas.c:550:16
	strh.w	r0, [sp, #76]
	.loc	10 551 41 is_stmt 1             @ lvgl/src/lv_widgets/lv_canvas.c:551:41
	ldrsh.w	r0, [sp, #76]
	.loc	10 551 25 is_stmt 0             @ lvgl/src/lv_widgets/lv_canvas.c:551:25
	bl	_lv_mem_buf_get
	.loc	10 551 15                       @ lvgl/src/lv_widgets/lv_canvas.c:551:15
	str	r0, [sp, #72]
	.loc	10 554 21 is_stmt 1             @ lvgl/src/lv_widgets/lv_canvas.c:554:21
	ldr	r0, [sp, #72]
	.loc	10 554 19 is_stmt 0             @ lvgl/src/lv_widgets/lv_canvas.c:554:19
	str	r0, [sp, #68]
	.loc	10 555 33 is_stmt 1             @ lvgl/src/lv_widgets/lv_canvas.c:555:33
	ldrb.w	r0, [sp, #60]
	and	r0, r0, #31
	strb.w	r0, [sp, #60]
	.loc	10 556 23                       @ lvgl/src/lv_widgets/lv_canvas.c:556:23
	ldrh.w	r0, [sp, #61]
	movw	r1, #57347
	ands	r0, r1
	adds	r0, #4
	strh.w	r0, [sp, #61]
	.loc	10 557 25                       @ lvgl/src/lv_widgets/lv_canvas.c:557:25
	ldr	r0, [sp, #96]
	.loc	10 557 41 is_stmt 0             @ lvgl/src/lv_widgets/lv_canvas.c:557:41
	ldrb	r1, [r0, #27]
	ldrh.w	r0, [r0, #25]
	and	r2, r0, #57344
	.loc	10 557 23                       @ lvgl/src/lv_widgets/lv_canvas.c:557:23
	ldrh.w	r0, [sp, #61]
	bfc	r0, #13, #19
	add	r0, r2
	strb.w	r1, [sp, #63]
	strh.w	r0, [sp, #61]
	.loc	10 558 26 is_stmt 1             @ lvgl/src/lv_widgets/lv_canvas.c:558:26
	ldr	r0, [sp, #96]
	.loc	10 558 42 is_stmt 0             @ lvgl/src/lv_widgets/lv_canvas.c:558:42
	ldrb	r0, [r0, #24]
	and	r1, r0, #31
	.loc	10 558 24                       @ lvgl/src/lv_widgets/lv_canvas.c:558:24
	ldrb.w	r0, [sp, #60]
	and	r0, r0, #224
	add	r0, r1
	strb.w	r0, [sp, #60]
.Ltmp320:
	.loc	10 564 15 is_stmt 1             @ lvgl/src/lv_widgets/lv_canvas.c:564:15
	ldrh.w	r0, [sp, #88]
	.loc	10 564 11 is_stmt 0             @ lvgl/src/lv_widgets/lv_canvas.c:564:11
	strh.w	r0, [sp, #58]
	.loc	10 564 9                        @ lvgl/src/lv_widgets/lv_canvas.c:564:9
	b	.LBB14_21
.LBB14_21:                              @ =>This Loop Header: Depth=1
                                        @     Child Loop BB14_23 Depth 2
                                        @     Child Loop BB14_41 Depth 2
.Ltmp321:
	.loc	10 564 19                       @ lvgl/src/lv_widgets/lv_canvas.c:564:19
	ldrsh.w	r0, [sp, #58]
	.loc	10 564 26                       @ lvgl/src/lv_widgets/lv_canvas.c:564:26
	ldrsh.w	r1, [sp, #92]
.Ltmp322:
	.loc	10 564 5                        @ lvgl/src/lv_widgets/lv_canvas.c:564:5
	cmp	r0, r1
	bgt.w	.LBB14_68
	b	.LBB14_22
.LBB14_22:                              @   in Loop: Header=BB14_21 Depth=1
	.loc	10 0 5                          @ lvgl/src/lv_widgets/lv_canvas.c:0:5
	movs	r0, #0
.Ltmp323:
	.loc	10 565 18 is_stmt 1             @ lvgl/src/lv_widgets/lv_canvas.c:565:18
	str	r0, [sp, #48]
	.loc	10 566 18                       @ lvgl/src/lv_widgets/lv_canvas.c:566:18
	str	r0, [sp, #44]
	.loc	10 567 18                       @ lvgl/src/lv_widgets/lv_canvas.c:567:18
	str	r0, [sp, #40]
	.loc	10 568 18                       @ lvgl/src/lv_widgets/lv_canvas.c:568:18
	str	r0, [sp, #36]
	movs	r0, #255
	.loc	10 571 18                       @ lvgl/src/lv_widgets/lv_canvas.c:571:18
	strb.w	r0, [sp, #31]
.Ltmp324:
	.loc	10 573 17                       @ lvgl/src/lv_widgets/lv_canvas.c:573:17
	ldrh.w	r0, [sp, #90]
	.loc	10 573 24 is_stmt 0             @ lvgl/src/lv_widgets/lv_canvas.c:573:24
	ldrh.w	r1, [sp, #82]
	.loc	10 573 22                       @ lvgl/src/lv_widgets/lv_canvas.c:573:22
	subs	r0, r0, r1
	.loc	10 573 15                       @ lvgl/src/lv_widgets/lv_canvas.c:573:15
	strh.w	r0, [sp, #56]
	.loc	10 573 13                       @ lvgl/src/lv_widgets/lv_canvas.c:573:13
	b	.LBB14_23
.LBB14_23:                              @   Parent Loop BB14_21 Depth=1
                                        @ =>  This Inner Loop Header: Depth=2
.Ltmp325:
	.loc	10 573 32                       @ lvgl/src/lv_widgets/lv_canvas.c:573:32
	ldrsh.w	r0, [sp, #56]
	.loc	10 573 39                       @ lvgl/src/lv_widgets/lv_canvas.c:573:39
	ldrsh.w	r1, [sp, #90]
	.loc	10 573 44                       @ lvgl/src/lv_widgets/lv_canvas.c:573:44
	ldrh.w	r2, [sp, #80]
	.loc	10 573 42                       @ lvgl/src/lv_widgets/lv_canvas.c:573:42
	add	r1, r2
.Ltmp326:
	.loc	10 573 9                        @ lvgl/src/lv_widgets/lv_canvas.c:573:9
	cmp	r0, r1
	bgt.w	.LBB14_38
	b	.LBB14_24
.LBB14_24:                              @   in Loop: Header=BB14_23 Depth=2
.Ltmp327:
	.loc	10 574 22 is_stmt 1             @ lvgl/src/lv_widgets/lv_canvas.c:574:22
	ldrsh.w	r0, [sp, #56]
	cmp.w	r0, #-1
	bgt	.LBB14_26
	b	.LBB14_25
.LBB14_25:                              @   in Loop: Header=BB14_23 Depth=2
	.loc	10 0 22 is_stmt 0               @ lvgl/src/lv_widgets/lv_canvas.c:0:22
	movs	r0, #0
	.loc	10 574 22                       @ lvgl/src/lv_widgets/lv_canvas.c:574:22
	str	r0, [sp, #12]                   @ 4-byte Spill
	b	.LBB14_27
.LBB14_26:                              @   in Loop: Header=BB14_23 Depth=2
	.loc	10 574 34                       @ lvgl/src/lv_widgets/lv_canvas.c:574:34
	ldrsh.w	r0, [sp, #56]
	.loc	10 574 22                       @ lvgl/src/lv_widgets/lv_canvas.c:574:22
	str	r0, [sp, #12]                   @ 4-byte Spill
	b	.LBB14_27
.LBB14_27:                              @   in Loop: Header=BB14_23 Depth=2
	ldr	r0, [sp, #12]                   @ 4-byte Reload
	.loc	10 574 20                       @ lvgl/src/lv_widgets/lv_canvas.c:574:20
	strh.w	r0, [sp, #54]
	.loc	10 575 22 is_stmt 1             @ lvgl/src/lv_widgets/lv_canvas.c:575:22
	ldrsh.w	r0, [sp, #54]
	.loc	10 575 31 is_stmt 0             @ lvgl/src/lv_widgets/lv_canvas.c:575:31
	ldr	r1, [sp, #96]
	.loc	10 575 47                       @ lvgl/src/lv_widgets/lv_canvas.c:575:47
	ldrb	r2, [r1, #27]
	ldrh.w	r1, [r1, #25]
	orr.w	r2, r1, r2, lsl #16
	mov.w	r1, #-1
	.loc	10 575 49                       @ lvgl/src/lv_widgets/lv_canvas.c:575:49
	add.w	r1, r1, r2, lsr #13
	.loc	10 575 22                       @ lvgl/src/lv_widgets/lv_canvas.c:575:22
	cmp	r0, r1
	ble	.LBB14_29
	b	.LBB14_28
.LBB14_28:                              @   in Loop: Header=BB14_23 Depth=2
	.loc	10 575 55                       @ lvgl/src/lv_widgets/lv_canvas.c:575:55
	ldr	r0, [sp, #96]
	.loc	10 575 71                       @ lvgl/src/lv_widgets/lv_canvas.c:575:71
	ldrb	r1, [r0, #27]
	ldrh.w	r0, [r0, #25]
	orr.w	r1, r0, r1, lsl #16
	mov.w	r0, #-1
	.loc	10 575 73                       @ lvgl/src/lv_widgets/lv_canvas.c:575:73
	add.w	r0, r0, r1, lsr #13
	.loc	10 575 22                       @ lvgl/src/lv_widgets/lv_canvas.c:575:22
	str	r0, [sp, #8]                    @ 4-byte Spill
	b	.LBB14_30
.LBB14_29:                              @   in Loop: Header=BB14_23 Depth=2
	.loc	10 575 79                       @ lvgl/src/lv_widgets/lv_canvas.c:575:79
	ldrsh.w	r0, [sp, #54]
	.loc	10 575 22                       @ lvgl/src/lv_widgets/lv_canvas.c:575:22
	str	r0, [sp, #8]                    @ 4-byte Spill
	b	.LBB14_30
.LBB14_30:                              @   in Loop: Header=BB14_23 Depth=2
	ldr	r0, [sp, #8]                    @ 4-byte Reload
	.loc	10 575 20                       @ lvgl/src/lv_widgets/lv_canvas.c:575:20
	strh.w	r0, [sp, #54]
	.loc	10 577 42 is_stmt 1             @ lvgl/src/lv_widgets/lv_canvas.c:577:42
	ldr	r0, [sp, #96]
	.loc	10 577 47 is_stmt 0             @ lvgl/src/lv_widgets/lv_canvas.c:577:47
	adds	r0, #24
	.loc	10 577 52                       @ lvgl/src/lv_widgets/lv_canvas.c:577:52
	ldrsh.w	r1, [sp, #58]
	.loc	10 577 55                       @ lvgl/src/lv_widgets/lv_canvas.c:577:55
	ldrsh.w	r2, [sp, #54]
	.loc	10 577 17                       @ lvgl/src/lv_widgets/lv_canvas.c:577:17
	ldr	r3, [sp, #84]
	bl	lv_img_buf_get_px_color
	str	r0, [sp, #24]
	ldr	r0, [sp, #24]
	str	r0, [sp, #32]
.Ltmp328:
	.loc	10 578 16 is_stmt 1             @ lvgl/src/lv_widgets/lv_canvas.c:578:16
	ldrb.w	r0, [sp, #79]
.Ltmp329:
	.loc	10 578 16 is_stmt 0             @ lvgl/src/lv_widgets/lv_canvas.c:578:16
	lsls	r0, r0, #31
	cbz	r0, .LBB14_32
	b	.LBB14_31
.LBB14_31:                              @   in Loop: Header=BB14_23 Depth=2
.Ltmp330:
	.loc	10 578 58                       @ lvgl/src/lv_widgets/lv_canvas.c:578:58
	ldr	r0, [sp, #96]
	.loc	10 578 63                       @ lvgl/src/lv_widgets/lv_canvas.c:578:63
	adds	r0, #24
	.loc	10 578 68                       @ lvgl/src/lv_widgets/lv_canvas.c:578:68
	ldrsh.w	r1, [sp, #58]
	.loc	10 578 71                       @ lvgl/src/lv_widgets/lv_canvas.c:578:71
	ldrsh.w	r2, [sp, #54]
	.loc	10 578 33                       @ lvgl/src/lv_widgets/lv_canvas.c:578:33
	bl	lv_img_buf_get_px_alpha
	.loc	10 578 31                       @ lvgl/src/lv_widgets/lv_canvas.c:578:31
	strb.w	r0, [sp, #31]
	.loc	10 578 27                       @ lvgl/src/lv_widgets/lv_canvas.c:578:27
	b	.LBB14_32
.Ltmp331:
.LBB14_32:                              @   in Loop: Header=BB14_23 Depth=2
	.loc	10 580 51 is_stmt 1             @ lvgl/src/lv_widgets/lv_canvas.c:580:51
	ldrsh.w	r2, [sp, #54]
	.loc	10 580 13 is_stmt 0             @ lvgl/src/lv_widgets/lv_canvas.c:580:13
	ldr	r3, [sp, #32]
	add	r0, sp, #60
	movs	r1, #0
	bl	lv_img_buf_set_px_color
.Ltmp332:
	.loc	10 581 16 is_stmt 1             @ lvgl/src/lv_widgets/lv_canvas.c:581:16
	ldrb.w	r0, [sp, #79]
.Ltmp333:
	.loc	10 581 16 is_stmt 0             @ lvgl/src/lv_widgets/lv_canvas.c:581:16
	lsls	r0, r0, #31
	cbz	r0, .LBB14_34
	b	.LBB14_33
.LBB14_33:                              @   in Loop: Header=BB14_23 Depth=2
.Ltmp334:
	.loc	10 581 65                       @ lvgl/src/lv_widgets/lv_canvas.c:581:65
	ldrsh.w	r2, [sp, #54]
	.loc	10 581 73                       @ lvgl/src/lv_widgets/lv_canvas.c:581:73
	ldrb.w	r3, [sp, #31]
	add	r0, sp, #60
	movs	r1, #0
	.loc	10 581 27                       @ lvgl/src/lv_widgets/lv_canvas.c:581:27
	bl	lv_img_buf_set_px_alpha
	b	.LBB14_34
.Ltmp335:
.LBB14_34:                              @   in Loop: Header=BB14_23 Depth=2
	.loc	10 583 26 is_stmt 1             @ lvgl/src/lv_widgets/lv_canvas.c:583:26
	ldrb.w	r1, [sp, #34]
	.loc	10 583 18 is_stmt 0             @ lvgl/src/lv_widgets/lv_canvas.c:583:18
	ldr	r0, [sp, #44]
	add	r0, r1
	str	r0, [sp, #44]
	.loc	10 587 26 is_stmt 1             @ lvgl/src/lv_widgets/lv_canvas.c:587:26
	ldrb.w	r1, [sp, #33]
	.loc	10 587 18 is_stmt 0             @ lvgl/src/lv_widgets/lv_canvas.c:587:18
	ldr	r0, [sp, #40]
	add	r0, r1
	str	r0, [sp, #40]
	.loc	10 589 26 is_stmt 1             @ lvgl/src/lv_widgets/lv_canvas.c:589:26
	ldrb.w	r1, [sp, #32]
	.loc	10 589 18 is_stmt 0             @ lvgl/src/lv_widgets/lv_canvas.c:589:18
	ldr	r0, [sp, #36]
	add	r0, r1
	str	r0, [sp, #36]
.Ltmp336:
	.loc	10 590 16 is_stmt 1             @ lvgl/src/lv_widgets/lv_canvas.c:590:16
	ldrb.w	r0, [sp, #79]
.Ltmp337:
	.loc	10 590 16 is_stmt 0             @ lvgl/src/lv_widgets/lv_canvas.c:590:16
	lsls	r0, r0, #31
	cbz	r0, .LBB14_36
	b	.LBB14_35
.LBB14_35:                              @   in Loop: Header=BB14_23 Depth=2
.Ltmp338:
	.loc	10 590 35                       @ lvgl/src/lv_widgets/lv_canvas.c:590:35
	ldrb.w	r1, [sp, #31]
	.loc	10 590 32                       @ lvgl/src/lv_widgets/lv_canvas.c:590:32
	ldr	r0, [sp, #48]
	add	r0, r1
	str	r0, [sp, #48]
	.loc	10 590 27                       @ lvgl/src/lv_widgets/lv_canvas.c:590:27
	b	.LBB14_36
.Ltmp339:
.LBB14_36:                              @   in Loop: Header=BB14_23 Depth=2
	.loc	10 591 9 is_stmt 1              @ lvgl/src/lv_widgets/lv_canvas.c:591:9
	b	.LBB14_37
.Ltmp340:
.LBB14_37:                              @   in Loop: Header=BB14_23 Depth=2
	.loc	10 573 54                       @ lvgl/src/lv_widgets/lv_canvas.c:573:54
	ldrh.w	r0, [sp, #56]
	adds	r0, #1
	strh.w	r0, [sp, #56]
	.loc	10 573 9 is_stmt 0              @ lvgl/src/lv_widgets/lv_canvas.c:573:9
	b	.LBB14_23
.Ltmp341:
.LBB14_38:                              @   in Loop: Header=BB14_21 Depth=1
	.loc	10 594 12 is_stmt 1             @ lvgl/src/lv_widgets/lv_canvas.c:594:12
	ldrb.w	r0, [sp, #79]
.Ltmp342:
	.loc	10 594 12 is_stmt 0             @ lvgl/src/lv_widgets/lv_canvas.c:594:12
	lsls	r0, r0, #31
	cbnz	r0, .LBB14_40
	b	.LBB14_39
.LBB14_39:                              @   in Loop: Header=BB14_21 Depth=1
	.loc	10 0 12                         @ lvgl/src/lv_widgets/lv_canvas.c:0:12
	movs	r0, #255
.Ltmp343:
	.loc	10 594 37                       @ lvgl/src/lv_widgets/lv_canvas.c:594:37
	str	r0, [sp, #48]
	.loc	10 594 32                       @ lvgl/src/lv_widgets/lv_canvas.c:594:32
	b	.LBB14_40
.Ltmp344:
.LBB14_40:                              @   in Loop: Header=BB14_21 Depth=1
	.loc	10 596 19 is_stmt 1             @ lvgl/src/lv_widgets/lv_canvas.c:596:19
	ldrh.w	r0, [sp, #90]
	.loc	10 596 15 is_stmt 0             @ lvgl/src/lv_widgets/lv_canvas.c:596:15
	strh.w	r0, [sp, #56]
	.loc	10 596 13                       @ lvgl/src/lv_widgets/lv_canvas.c:596:13
	b	.LBB14_41
.LBB14_41:                              @   Parent Loop BB14_21 Depth=1
                                        @ =>  This Inner Loop Header: Depth=2
.Ltmp345:
	.loc	10 596 23                       @ lvgl/src/lv_widgets/lv_canvas.c:596:23
	ldrsh.w	r0, [sp, #56]
	.loc	10 596 30                       @ lvgl/src/lv_widgets/lv_canvas.c:596:30
	ldrsh.w	r1, [sp, #94]
.Ltmp346:
	.loc	10 596 9                        @ lvgl/src/lv_widgets/lv_canvas.c:596:9
	cmp	r0, r1
	bgt.w	.LBB14_66
	b	.LBB14_42
.LBB14_42:                              @   in Loop: Header=BB14_41 Depth=2
.Ltmp347:
	.loc	10 597 16 is_stmt 1             @ lvgl/src/lv_widgets/lv_canvas.c:597:16
	ldr	r0, [sp, #48]
.Ltmp348:
	.loc	10 597 16 is_stmt 0             @ lvgl/src/lv_widgets/lv_canvas.c:597:16
	cbz	r0, .LBB14_46
	b	.LBB14_43
.LBB14_43:                              @   in Loop: Header=BB14_41 Depth=2
.Ltmp349:
	.loc	10 598 28 is_stmt 1             @ lvgl/src/lv_widgets/lv_canvas.c:598:28
	ldr	r0, [sp, #44]
	.loc	10 598 35 is_stmt 0             @ lvgl/src/lv_widgets/lv_canvas.c:598:35
	ldrh.w	r1, [sp, #102]
	.loc	10 598 33                       @ lvgl/src/lv_widgets/lv_canvas.c:598:33
	udiv	r0, r0, r1
	.loc	10 598 26                       @ lvgl/src/lv_widgets/lv_canvas.c:598:26
	strb.w	r0, [sp, #34]
	.loc	10 604 30 is_stmt 1             @ lvgl/src/lv_widgets/lv_canvas.c:604:30
	ldr	r0, [sp, #40]
	.loc	10 604 37 is_stmt 0             @ lvgl/src/lv_widgets/lv_canvas.c:604:37
	ldrh.w	r1, [sp, #102]
	.loc	10 604 35                       @ lvgl/src/lv_widgets/lv_canvas.c:604:35
	udiv	r0, r0, r1
	.loc	10 604 28                       @ lvgl/src/lv_widgets/lv_canvas.c:604:28
	strb.w	r0, [sp, #33]
	.loc	10 606 29 is_stmt 1             @ lvgl/src/lv_widgets/lv_canvas.c:606:29
	ldr	r0, [sp, #36]
	.loc	10 606 36 is_stmt 0             @ lvgl/src/lv_widgets/lv_canvas.c:606:36
	ldrh.w	r1, [sp, #102]
	.loc	10 606 34                       @ lvgl/src/lv_widgets/lv_canvas.c:606:34
	udiv	r0, r0, r1
	.loc	10 606 27                       @ lvgl/src/lv_widgets/lv_canvas.c:606:27
	strb.w	r0, [sp, #32]
.Ltmp350:
	.loc	10 607 20 is_stmt 1             @ lvgl/src/lv_widgets/lv_canvas.c:607:20
	ldrb.w	r0, [sp, #79]
.Ltmp351:
	.loc	10 607 20 is_stmt 0             @ lvgl/src/lv_widgets/lv_canvas.c:607:20
	lsls	r0, r0, #31
	cbz	r0, .LBB14_45
	b	.LBB14_44
.LBB14_44:                              @   in Loop: Header=BB14_41 Depth=2
.Ltmp352:
	.loc	10 607 37                       @ lvgl/src/lv_widgets/lv_canvas.c:607:37
	ldr	r0, [sp, #48]
	.loc	10 607 44                       @ lvgl/src/lv_widgets/lv_canvas.c:607:44
	ldrh.w	r1, [sp, #102]
	.loc	10 607 42                       @ lvgl/src/lv_widgets/lv_canvas.c:607:42
	udiv	r0, r0, r1
	.loc	10 607 35                       @ lvgl/src/lv_widgets/lv_canvas.c:607:35
	strb.w	r0, [sp, #31]
	.loc	10 607 31                       @ lvgl/src/lv_widgets/lv_canvas.c:607:31
	b	.LBB14_45
.Ltmp353:
.LBB14_45:                              @   in Loop: Header=BB14_41 Depth=2
	.loc	10 609 42 is_stmt 1             @ lvgl/src/lv_widgets/lv_canvas.c:609:42
	ldr	r0, [sp, #96]
	.loc	10 609 47 is_stmt 0             @ lvgl/src/lv_widgets/lv_canvas.c:609:47
	adds	r0, #24
	.loc	10 609 52                       @ lvgl/src/lv_widgets/lv_canvas.c:609:52
	ldrsh.w	r1, [sp, #58]
	.loc	10 609 55                       @ lvgl/src/lv_widgets/lv_canvas.c:609:55
	ldrsh.w	r2, [sp, #56]
	.loc	10 609 17                       @ lvgl/src/lv_widgets/lv_canvas.c:609:17
	ldr	r3, [sp, #32]
	bl	lv_img_buf_set_px_color
	.loc	10 610 13 is_stmt 1             @ lvgl/src/lv_widgets/lv_canvas.c:610:13
	b	.LBB14_46
.Ltmp354:
.LBB14_46:                              @   in Loop: Header=BB14_41 Depth=2
	.loc	10 611 16                       @ lvgl/src/lv_widgets/lv_canvas.c:611:16
	ldrb.w	r0, [sp, #79]
.Ltmp355:
	.loc	10 611 16 is_stmt 0             @ lvgl/src/lv_widgets/lv_canvas.c:611:16
	lsls	r0, r0, #31
	cbz	r0, .LBB14_48
	b	.LBB14_47
.LBB14_47:                              @   in Loop: Header=BB14_41 Depth=2
.Ltmp356:
	.loc	10 611 52                       @ lvgl/src/lv_widgets/lv_canvas.c:611:52
	ldr	r0, [sp, #96]
	.loc	10 611 57                       @ lvgl/src/lv_widgets/lv_canvas.c:611:57
	adds	r0, #24
	.loc	10 611 62                       @ lvgl/src/lv_widgets/lv_canvas.c:611:62
	ldrsh.w	r1, [sp, #58]
	.loc	10 611 65                       @ lvgl/src/lv_widgets/lv_canvas.c:611:65
	ldrsh.w	r2, [sp, #56]
	.loc	10 611 68                       @ lvgl/src/lv_widgets/lv_canvas.c:611:68
	ldrb.w	r3, [sp, #31]
	.loc	10 611 27                       @ lvgl/src/lv_widgets/lv_canvas.c:611:27
	bl	lv_img_buf_set_px_alpha
	b	.LBB14_48
.Ltmp357:
.LBB14_48:                              @   in Loop: Header=BB14_41 Depth=2
	.loc	10 613 22 is_stmt 1             @ lvgl/src/lv_widgets/lv_canvas.c:613:22
	ldrh.w	r0, [sp, #56]
	.loc	10 613 26 is_stmt 0             @ lvgl/src/lv_widgets/lv_canvas.c:613:26
	ldrh.w	r1, [sp, #82]
	.loc	10 613 24                       @ lvgl/src/lv_widgets/lv_canvas.c:613:24
	subs	r0, r0, r1
	.loc	10 613 20                       @ lvgl/src/lv_widgets/lv_canvas.c:613:20
	strh.w	r0, [sp, #54]
	.loc	10 614 22 is_stmt 1             @ lvgl/src/lv_widgets/lv_canvas.c:614:22
	ldrsh.w	r0, [sp, #54]
	cmp.w	r0, #-1
	bgt	.LBB14_50
	b	.LBB14_49
.LBB14_49:                              @   in Loop: Header=BB14_41 Depth=2
	.loc	10 0 22 is_stmt 0               @ lvgl/src/lv_widgets/lv_canvas.c:0:22
	movs	r0, #0
	.loc	10 614 22                       @ lvgl/src/lv_widgets/lv_canvas.c:614:22
	str	r0, [sp, #4]                    @ 4-byte Spill
	b	.LBB14_51
.LBB14_50:                              @   in Loop: Header=BB14_41 Depth=2
	.loc	10 614 39                       @ lvgl/src/lv_widgets/lv_canvas.c:614:39
	ldrsh.w	r0, [sp, #54]
	.loc	10 614 22                       @ lvgl/src/lv_widgets/lv_canvas.c:614:22
	str	r0, [sp, #4]                    @ 4-byte Spill
	b	.LBB14_51
.LBB14_51:                              @   in Loop: Header=BB14_41 Depth=2
	ldr	r0, [sp, #4]                    @ 4-byte Reload
	.loc	10 614 20                       @ lvgl/src/lv_widgets/lv_canvas.c:614:20
	strh.w	r0, [sp, #54]
	.loc	10 615 55 is_stmt 1             @ lvgl/src/lv_widgets/lv_canvas.c:615:55
	ldrsh.w	r2, [sp, #54]
	.loc	10 615 17 is_stmt 0             @ lvgl/src/lv_widgets/lv_canvas.c:615:17
	ldr	r3, [sp, #84]
	add	r0, sp, #60
	movs	r1, #0
	bl	lv_img_buf_get_px_color
	str	r0, [sp, #20]
	ldr	r0, [sp, #20]
	str	r0, [sp, #32]
.Ltmp358:
	.loc	10 616 16 is_stmt 1             @ lvgl/src/lv_widgets/lv_canvas.c:616:16
	ldrb.w	r0, [sp, #79]
.Ltmp359:
	.loc	10 616 16 is_stmt 0             @ lvgl/src/lv_widgets/lv_canvas.c:616:16
	lsls	r0, r0, #31
	cbz	r0, .LBB14_53
	b	.LBB14_52
.LBB14_52:                              @   in Loop: Header=BB14_41 Depth=2
.Ltmp360:
	.loc	10 616 71                       @ lvgl/src/lv_widgets/lv_canvas.c:616:71
	ldrsh.w	r2, [sp, #54]
	add	r0, sp, #60
	movs	r1, #0
	.loc	10 616 33                       @ lvgl/src/lv_widgets/lv_canvas.c:616:33
	bl	lv_img_buf_get_px_alpha
	.loc	10 616 31                       @ lvgl/src/lv_widgets/lv_canvas.c:616:31
	strb.w	r0, [sp, #31]
	.loc	10 616 27                       @ lvgl/src/lv_widgets/lv_canvas.c:616:27
	b	.LBB14_53
.Ltmp361:
.LBB14_53:                              @   in Loop: Header=BB14_41 Depth=2
	.loc	10 618 26 is_stmt 1             @ lvgl/src/lv_widgets/lv_canvas.c:618:26
	ldrb.w	r1, [sp, #34]
	.loc	10 618 18 is_stmt 0             @ lvgl/src/lv_widgets/lv_canvas.c:618:18
	ldr	r0, [sp, #44]
	subs	r0, r0, r1
	str	r0, [sp, #44]
	.loc	10 622 26 is_stmt 1             @ lvgl/src/lv_widgets/lv_canvas.c:622:26
	ldrb.w	r1, [sp, #33]
	.loc	10 622 18 is_stmt 0             @ lvgl/src/lv_widgets/lv_canvas.c:622:18
	ldr	r0, [sp, #40]
	subs	r0, r0, r1
	str	r0, [sp, #40]
	.loc	10 624 26 is_stmt 1             @ lvgl/src/lv_widgets/lv_canvas.c:624:26
	ldrb.w	r1, [sp, #32]
	.loc	10 624 18 is_stmt 0             @ lvgl/src/lv_widgets/lv_canvas.c:624:18
	ldr	r0, [sp, #36]
	subs	r0, r0, r1
	str	r0, [sp, #36]
.Ltmp362:
	.loc	10 625 16 is_stmt 1             @ lvgl/src/lv_widgets/lv_canvas.c:625:16
	ldrb.w	r0, [sp, #79]
.Ltmp363:
	.loc	10 625 16 is_stmt 0             @ lvgl/src/lv_widgets/lv_canvas.c:625:16
	lsls	r0, r0, #31
	cbz	r0, .LBB14_55
	b	.LBB14_54
.LBB14_54:                              @   in Loop: Header=BB14_41 Depth=2
.Ltmp364:
	.loc	10 625 35                       @ lvgl/src/lv_widgets/lv_canvas.c:625:35
	ldrb.w	r1, [sp, #31]
	.loc	10 625 32                       @ lvgl/src/lv_widgets/lv_canvas.c:625:32
	ldr	r0, [sp, #48]
	subs	r0, r0, r1
	str	r0, [sp, #48]
	.loc	10 625 27                       @ lvgl/src/lv_widgets/lv_canvas.c:625:27
	b	.LBB14_55
.Ltmp365:
.LBB14_55:                              @   in Loop: Header=BB14_41 Depth=2
	.loc	10 627 22 is_stmt 1             @ lvgl/src/lv_widgets/lv_canvas.c:627:22
	ldrh.w	r0, [sp, #56]
	.loc	10 627 30 is_stmt 0             @ lvgl/src/lv_widgets/lv_canvas.c:627:30
	ldrh.w	r1, [sp, #80]
	.loc	10 627 24                       @ lvgl/src/lv_widgets/lv_canvas.c:627:24
	add	r0, r1
	.loc	10 627 28                       @ lvgl/src/lv_widgets/lv_canvas.c:627:28
	adds	r0, #1
	.loc	10 627 20                       @ lvgl/src/lv_widgets/lv_canvas.c:627:20
	strh.w	r0, [sp, #54]
	.loc	10 628 22 is_stmt 1             @ lvgl/src/lv_widgets/lv_canvas.c:628:22
	ldrsh.w	r0, [sp, #54]
	.loc	10 628 31 is_stmt 0             @ lvgl/src/lv_widgets/lv_canvas.c:628:31
	ldr	r1, [sp, #96]
	.loc	10 628 47                       @ lvgl/src/lv_widgets/lv_canvas.c:628:47
	ldrb	r2, [r1, #27]
	ldrh.w	r1, [r1, #25]
	orr.w	r2, r1, r2, lsl #16
	mov.w	r1, #-1
	.loc	10 628 49                       @ lvgl/src/lv_widgets/lv_canvas.c:628:49
	add.w	r1, r1, r2, lsr #13
	.loc	10 628 22                       @ lvgl/src/lv_widgets/lv_canvas.c:628:22
	cmp	r0, r1
	ble	.LBB14_57
	b	.LBB14_56
.LBB14_56:                              @   in Loop: Header=BB14_41 Depth=2
	.loc	10 628 55                       @ lvgl/src/lv_widgets/lv_canvas.c:628:55
	ldr	r0, [sp, #96]
	.loc	10 628 71                       @ lvgl/src/lv_widgets/lv_canvas.c:628:71
	ldrb	r1, [r0, #27]
	ldrh.w	r0, [r0, #25]
	orr.w	r1, r0, r1, lsl #16
	mov.w	r0, #-1
	.loc	10 628 73                       @ lvgl/src/lv_widgets/lv_canvas.c:628:73
	add.w	r0, r0, r1, lsr #13
	.loc	10 628 22                       @ lvgl/src/lv_widgets/lv_canvas.c:628:22
	str	r0, [sp]                        @ 4-byte Spill
	b	.LBB14_58
.LBB14_57:                              @   in Loop: Header=BB14_41 Depth=2
	.loc	10 628 79                       @ lvgl/src/lv_widgets/lv_canvas.c:628:79
	ldrsh.w	r0, [sp, #54]
	.loc	10 628 22                       @ lvgl/src/lv_widgets/lv_canvas.c:628:22
	str	r0, [sp]                        @ 4-byte Spill
	b	.LBB14_58
.LBB14_58:                              @   in Loop: Header=BB14_41 Depth=2
	ldr	r0, [sp]                        @ 4-byte Reload
	.loc	10 628 20                       @ lvgl/src/lv_widgets/lv_canvas.c:628:20
	strh.w	r0, [sp, #54]
	.loc	10 630 42 is_stmt 1             @ lvgl/src/lv_widgets/lv_canvas.c:630:42
	ldr	r0, [sp, #96]
	.loc	10 630 47 is_stmt 0             @ lvgl/src/lv_widgets/lv_canvas.c:630:47
	adds	r0, #24
	.loc	10 630 52                       @ lvgl/src/lv_widgets/lv_canvas.c:630:52
	ldrsh.w	r1, [sp, #58]
	.loc	10 630 55                       @ lvgl/src/lv_widgets/lv_canvas.c:630:55
	ldrsh.w	r2, [sp, #54]
	.loc	10 630 17                       @ lvgl/src/lv_widgets/lv_canvas.c:630:17
	ldr	r3, [sp, #84]
	bl	lv_img_buf_get_px_color
	str	r0, [sp, #16]
	ldr	r0, [sp, #16]
	str	r0, [sp, #32]
.Ltmp366:
	.loc	10 631 16 is_stmt 1             @ lvgl/src/lv_widgets/lv_canvas.c:631:16
	ldrb.w	r0, [sp, #79]
.Ltmp367:
	.loc	10 631 16 is_stmt 0             @ lvgl/src/lv_widgets/lv_canvas.c:631:16
	lsls	r0, r0, #31
	cbz	r0, .LBB14_60
	b	.LBB14_59
.LBB14_59:                              @   in Loop: Header=BB14_41 Depth=2
.Ltmp368:
	.loc	10 631 58                       @ lvgl/src/lv_widgets/lv_canvas.c:631:58
	ldr	r0, [sp, #96]
	.loc	10 631 63                       @ lvgl/src/lv_widgets/lv_canvas.c:631:63
	adds	r0, #24
	.loc	10 631 68                       @ lvgl/src/lv_widgets/lv_canvas.c:631:68
	ldrsh.w	r1, [sp, #58]
	.loc	10 631 71                       @ lvgl/src/lv_widgets/lv_canvas.c:631:71
	ldrsh.w	r2, [sp, #54]
	.loc	10 631 33                       @ lvgl/src/lv_widgets/lv_canvas.c:631:33
	bl	lv_img_buf_get_px_alpha
	.loc	10 631 31                       @ lvgl/src/lv_widgets/lv_canvas.c:631:31
	strb.w	r0, [sp, #31]
	.loc	10 631 27                       @ lvgl/src/lv_widgets/lv_canvas.c:631:27
	b	.LBB14_60
.Ltmp369:
.LBB14_60:                              @   in Loop: Header=BB14_41 Depth=2
	.loc	10 633 51 is_stmt 1             @ lvgl/src/lv_widgets/lv_canvas.c:633:51
	ldrsh.w	r2, [sp, #54]
	.loc	10 633 13 is_stmt 0             @ lvgl/src/lv_widgets/lv_canvas.c:633:13
	ldr	r3, [sp, #32]
	add	r0, sp, #60
	movs	r1, #0
	bl	lv_img_buf_set_px_color
.Ltmp370:
	.loc	10 634 16 is_stmt 1             @ lvgl/src/lv_widgets/lv_canvas.c:634:16
	ldrb.w	r0, [sp, #79]
.Ltmp371:
	.loc	10 634 16 is_stmt 0             @ lvgl/src/lv_widgets/lv_canvas.c:634:16
	lsls	r0, r0, #31
	cbz	r0, .LBB14_62
	b	.LBB14_61
.LBB14_61:                              @   in Loop: Header=BB14_41 Depth=2
.Ltmp372:
	.loc	10 634 65                       @ lvgl/src/lv_widgets/lv_canvas.c:634:65
	ldrsh.w	r2, [sp, #54]
	.loc	10 634 73                       @ lvgl/src/lv_widgets/lv_canvas.c:634:73
	ldrb.w	r3, [sp, #31]
	add	r0, sp, #60
	movs	r1, #0
	.loc	10 634 27                       @ lvgl/src/lv_widgets/lv_canvas.c:634:27
	bl	lv_img_buf_set_px_alpha
	b	.LBB14_62
.Ltmp373:
.LBB14_62:                              @   in Loop: Header=BB14_41 Depth=2
	.loc	10 636 26 is_stmt 1             @ lvgl/src/lv_widgets/lv_canvas.c:636:26
	ldrb.w	r1, [sp, #34]
	.loc	10 636 18 is_stmt 0             @ lvgl/src/lv_widgets/lv_canvas.c:636:18
	ldr	r0, [sp, #44]
	add	r0, r1
	str	r0, [sp, #44]
	.loc	10 640 26 is_stmt 1             @ lvgl/src/lv_widgets/lv_canvas.c:640:26
	ldrb.w	r1, [sp, #33]
	.loc	10 640 18 is_stmt 0             @ lvgl/src/lv_widgets/lv_canvas.c:640:18
	ldr	r0, [sp, #40]
	add	r0, r1
	str	r0, [sp, #40]
	.loc	10 642 26 is_stmt 1             @ lvgl/src/lv_widgets/lv_canvas.c:642:26
	ldrb.w	r1, [sp, #32]
	.loc	10 642 18 is_stmt 0             @ lvgl/src/lv_widgets/lv_canvas.c:642:18
	ldr	r0, [sp, #36]
	add	r0, r1
	str	r0, [sp, #36]
.Ltmp374:
	.loc	10 643 16 is_stmt 1             @ lvgl/src/lv_widgets/lv_canvas.c:643:16
	ldrb.w	r0, [sp, #79]
.Ltmp375:
	.loc	10 643 16 is_stmt 0             @ lvgl/src/lv_widgets/lv_canvas.c:643:16
	lsls	r0, r0, #31
	cbz	r0, .LBB14_64
	b	.LBB14_63
.LBB14_63:                              @   in Loop: Header=BB14_41 Depth=2
.Ltmp376:
	.loc	10 643 35                       @ lvgl/src/lv_widgets/lv_canvas.c:643:35
	ldrb.w	r1, [sp, #31]
	.loc	10 643 32                       @ lvgl/src/lv_widgets/lv_canvas.c:643:32
	ldr	r0, [sp, #48]
	add	r0, r1
	str	r0, [sp, #48]
	.loc	10 643 27                       @ lvgl/src/lv_widgets/lv_canvas.c:643:27
	b	.LBB14_64
.Ltmp377:
.LBB14_64:                              @   in Loop: Header=BB14_41 Depth=2
	.loc	10 644 9 is_stmt 1              @ lvgl/src/lv_widgets/lv_canvas.c:644:9
	b	.LBB14_65
.Ltmp378:
.LBB14_65:                              @   in Loop: Header=BB14_41 Depth=2
	.loc	10 596 35                       @ lvgl/src/lv_widgets/lv_canvas.c:596:35
	ldrh.w	r0, [sp, #56]
	adds	r0, #1
	strh.w	r0, [sp, #56]
	.loc	10 596 9 is_stmt 0              @ lvgl/src/lv_widgets/lv_canvas.c:596:9
	b	.LBB14_41
.Ltmp379:
.LBB14_66:                              @   in Loop: Header=BB14_21 Depth=1
	.loc	10 645 5 is_stmt 1              @ lvgl/src/lv_widgets/lv_canvas.c:645:5
	b	.LBB14_67
.Ltmp380:
.LBB14_67:                              @   in Loop: Header=BB14_21 Depth=1
	.loc	10 564 31                       @ lvgl/src/lv_widgets/lv_canvas.c:564:31
	ldrh.w	r0, [sp, #58]
	adds	r0, #1
	strh.w	r0, [sp, #58]
	.loc	10 564 5 is_stmt 0              @ lvgl/src/lv_widgets/lv_canvas.c:564:5
	b	.LBB14_21
.Ltmp381:
.LBB14_68:
	.loc	10 647 23 is_stmt 1             @ lvgl/src/lv_widgets/lv_canvas.c:647:23
	ldr	r0, [sp, #108]
	.loc	10 647 5 is_stmt 0              @ lvgl/src/lv_widgets/lv_canvas.c:647:5
	bl	lv_obj_invalidate
	.loc	10 649 25 is_stmt 1             @ lvgl/src/lv_widgets/lv_canvas.c:649:25
	ldr	r0, [sp, #72]
	.loc	10 649 5 is_stmt 0              @ lvgl/src/lv_widgets/lv_canvas.c:649:5
	bl	_lv_mem_buf_release
	.loc	10 650 1 is_stmt 1              @ lvgl/src/lv_widgets/lv_canvas.c:650:1
	b	.LBB14_69
.LBB14_69:
	add	sp, #112
	pop	{r7, pc}
.Ltmp382:
.Lfunc_end14:
	.size	lv_canvas_blur_ver, .Lfunc_end14-lv_canvas_blur_ver
	.cfi_endproc
	.cantunwind
	.fnend
                                        @ -- End function
	.section	.text.lv_canvas_fill_bg,"ax",%progbits
	.hidden	lv_canvas_fill_bg               @ -- Begin function lv_canvas_fill_bg
	.globl	lv_canvas_fill_bg
	.p2align	3
	.type	lv_canvas_fill_bg,%function
	.code	16                              @ @lv_canvas_fill_bg
	.thumb_func
lv_canvas_fill_bg:
.Lfunc_begin15:
	.loc	10 659 0                        @ lvgl/src/lv_widgets/lv_canvas.c:659:0
	.fnstart
	.cfi_startproc
@ %bb.0:
	.save	{r7, lr}
	push	{r7, lr}
	.cfi_def_cfa_offset 8
	.cfi_offset lr, -4
	.cfi_offset r7, -8
	.pad	#32
	sub	sp, #32
	.cfi_def_cfa_offset 40
                                        @ kill: def $r3 killed $r2
	str	r1, [sp, #28]
	str	r0, [sp, #24]
	strb.w	r2, [sp, #23]
.Ltmp383:
	.loc	10 660 5 prologue_end           @ lvgl/src/lv_widgets/lv_canvas.c:660:5
	b	.LBB15_1
.LBB15_1:
.Ltmp384:
	.loc	10 660 5 is_stmt 0              @ lvgl/src/lv_widgets/lv_canvas.c:660:5
	ldr	r0, [sp, #24]
	bl	lv_debug_check_null
.Ltmp385:
	.loc	10 660 5                        @ lvgl/src/lv_widgets/lv_canvas.c:660:5
	cbnz	r0, .LBB15_4
	b	.LBB15_2
.LBB15_2:
.Ltmp386:
	.loc	10 660 5                        @ lvgl/src/lv_widgets/lv_canvas.c:660:5
	ldr	r2, [sp, #24]
	movw	r0, :lower16:.L.str.1
	movt	r0, :upper16:.L.str.1
	movs	r3, #0
	bl	lv_debug_log_error
	b	.LBB15_3
.LBB15_3:                               @ =>This Inner Loop Header: Depth=1
	b	.LBB15_3
.Ltmp387:
.LBB15_4:
	.loc	10 660 5                        @ lvgl/src/lv_widgets/lv_canvas.c:660:5
	b	.LBB15_5
.Ltmp388:
.LBB15_5:
	.loc	10 662 44 is_stmt 1             @ lvgl/src/lv_widgets/lv_canvas.c:662:44
	ldr	r0, [sp, #24]
	.loc	10 662 26 is_stmt 0             @ lvgl/src/lv_widgets/lv_canvas.c:662:26
	bl	lv_canvas_get_img
	.loc	10 662 20                       @ lvgl/src/lv_widgets/lv_canvas.c:662:20
	str	r0, [sp, #16]
.Ltmp389:
	.loc	10 664 8 is_stmt 1              @ lvgl/src/lv_widgets/lv_canvas.c:664:8
	ldr	r0, [sp, #16]
	.loc	10 664 20 is_stmt 0             @ lvgl/src/lv_widgets/lv_canvas.c:664:20
	ldrb	r0, [r0]
	and	r0, r0, #31
.Ltmp390:
	.loc	10 664 8                        @ lvgl/src/lv_widgets/lv_canvas.c:664:8
	cmp	r0, #7
	bne	.LBB15_7
	b	.LBB15_6
.LBB15_6:
.Ltmp391:
	.loc	10 665 34 is_stmt 1             @ lvgl/src/lv_widgets/lv_canvas.c:665:34
	ldr	r0, [sp, #16]
	.loc	10 665 46 is_stmt 0             @ lvgl/src/lv_widgets/lv_canvas.c:665:46
	ldrh.w	r0, [r0, #1]
	ubfx	r0, r0, #2, #11
	.loc	10 665 48                       @ lvgl/src/lv_widgets/lv_canvas.c:665:48
	adds	r0, #7
	.loc	10 665 53                       @ lvgl/src/lv_widgets/lv_canvas.c:665:53
	lsrs	r0, r0, #3
	.loc	10 665 18                       @ lvgl/src/lv_widgets/lv_canvas.c:665:18
	str	r0, [sp, #12]
	.loc	10 667 31 is_stmt 1             @ lvgl/src/lv_widgets/lv_canvas.c:667:31
	ldr	r3, [sp, #16]
	.loc	10 667 36 is_stmt 0             @ lvgl/src/lv_widgets/lv_canvas.c:667:36
	ldr	r0, [r3, #8]
	.loc	10 667 41                       @ lvgl/src/lv_widgets/lv_canvas.c:667:41
	adds	r0, #8
	.loc	10 667 52                       @ lvgl/src/lv_widgets/lv_canvas.c:667:52
	ldr	r1, [sp, #28]
	.loc	10 667 46                       @ lvgl/src/lv_widgets/lv_canvas.c:667:46
	cmp	r1, #0
	it	ne
	movne	r1, #255
	.loc	10 667 72                       @ lvgl/src/lv_widgets/lv_canvas.c:667:72
	ldr	r2, [sp, #12]
	.loc	10 667 99                       @ lvgl/src/lv_widgets/lv_canvas.c:667:99
	ldrb.w	r12, [r3, #3]
	ldrh.w	r3, [r3, #1]
	orr.w	r3, r3, r12, lsl #16
	lsrs	r3, r3, #13
	.loc	10 667 85                       @ lvgl/src/lv_widgets/lv_canvas.c:667:85
	muls	r2, r3, r2
	.loc	10 667 9                        @ lvgl/src/lv_widgets/lv_canvas.c:667:9
	bl	_lv_memset
	.loc	10 668 5 is_stmt 1              @ lvgl/src/lv_widgets/lv_canvas.c:668:5
	b	.LBB15_19
.Ltmp392:
.LBB15_7:
	.loc	10 669 13                       @ lvgl/src/lv_widgets/lv_canvas.c:669:13
	ldr	r0, [sp, #16]
	.loc	10 669 25 is_stmt 0             @ lvgl/src/lv_widgets/lv_canvas.c:669:25
	ldrb	r0, [r0]
	and	r0, r0, #31
.Ltmp393:
	.loc	10 669 13                       @ lvgl/src/lv_widgets/lv_canvas.c:669:13
	cmp	r0, #11
	bne	.LBB15_9
	b	.LBB15_8
.LBB15_8:
.Ltmp394:
	.loc	10 670 34 is_stmt 1             @ lvgl/src/lv_widgets/lv_canvas.c:670:34
	ldr	r0, [sp, #16]
	.loc	10 670 46 is_stmt 0             @ lvgl/src/lv_widgets/lv_canvas.c:670:46
	ldrh.w	r0, [r0, #1]
	ubfx	r0, r0, #2, #11
	.loc	10 670 48                       @ lvgl/src/lv_widgets/lv_canvas.c:670:48
	adds	r0, #7
	.loc	10 670 53                       @ lvgl/src/lv_widgets/lv_canvas.c:670:53
	lsrs	r0, r0, #3
	.loc	10 670 18                       @ lvgl/src/lv_widgets/lv_canvas.c:670:18
	str	r0, [sp, #8]
	.loc	10 671 31 is_stmt 1             @ lvgl/src/lv_widgets/lv_canvas.c:671:31
	ldr	r3, [sp, #16]
	.loc	10 671 36 is_stmt 0             @ lvgl/src/lv_widgets/lv_canvas.c:671:36
	ldr	r0, [r3, #8]
	.loc	10 671 42                       @ lvgl/src/lv_widgets/lv_canvas.c:671:42
	ldrb.w	r2, [sp, #23]
	movs	r1, #0
	cmp	r2, #127
	it	gt
	movgt	r1, #255
	.loc	10 671 73                       @ lvgl/src/lv_widgets/lv_canvas.c:671:73
	ldr	r2, [sp, #8]
	.loc	10 671 100                      @ lvgl/src/lv_widgets/lv_canvas.c:671:100
	ldrb.w	r12, [r3, #3]
	ldrh.w	r3, [r3, #1]
	orr.w	r3, r3, r12, lsl #16
	lsrs	r3, r3, #13
	.loc	10 671 86                       @ lvgl/src/lv_widgets/lv_canvas.c:671:86
	muls	r2, r3, r2
	.loc	10 671 9                        @ lvgl/src/lv_widgets/lv_canvas.c:671:9
	bl	_lv_memset
	.loc	10 672 5 is_stmt 1              @ lvgl/src/lv_widgets/lv_canvas.c:672:5
	b	.LBB15_18
.Ltmp395:
.LBB15_9:
	.loc	10 0 5 is_stmt 0                @ lvgl/src/lv_widgets/lv_canvas.c:0:5
	movs	r0, #0
.Ltmp396:
	.loc	10 676 15 is_stmt 1             @ lvgl/src/lv_widgets/lv_canvas.c:676:15
	str	r0, [sp]
	.loc	10 676 13 is_stmt 0             @ lvgl/src/lv_widgets/lv_canvas.c:676:13
	b	.LBB15_10
.LBB15_10:                              @ =>This Loop Header: Depth=1
                                        @     Child Loop BB15_12 Depth 2
.Ltmp397:
	.loc	10 676 20                       @ lvgl/src/lv_widgets/lv_canvas.c:676:20
	ldr	r0, [sp]
	.loc	10 676 24                       @ lvgl/src/lv_widgets/lv_canvas.c:676:24
	ldr	r1, [sp, #16]
	.loc	10 676 36                       @ lvgl/src/lv_widgets/lv_canvas.c:676:36
	ldrb	r2, [r1, #3]
	ldrh.w	r1, [r1, #1]
	orr.w	r1, r1, r2, lsl #16
.Ltmp398:
	.loc	10 676 9                        @ lvgl/src/lv_widgets/lv_canvas.c:676:9
	cmp.w	r0, r1, lsr #13
	bhs	.LBB15_17
	b	.LBB15_11
.LBB15_11:                              @   in Loop: Header=BB15_10 Depth=1
	.loc	10 0 9                          @ lvgl/src/lv_widgets/lv_canvas.c:0:9
	movs	r0, #0
.Ltmp399:
	.loc	10 677 19 is_stmt 1             @ lvgl/src/lv_widgets/lv_canvas.c:677:19
	str	r0, [sp, #4]
	.loc	10 677 17 is_stmt 0             @ lvgl/src/lv_widgets/lv_canvas.c:677:17
	b	.LBB15_12
.LBB15_12:                              @   Parent Loop BB15_10 Depth=1
                                        @ =>  This Inner Loop Header: Depth=2
.Ltmp400:
	.loc	10 677 24                       @ lvgl/src/lv_widgets/lv_canvas.c:677:24
	ldr	r0, [sp, #4]
	.loc	10 677 28                       @ lvgl/src/lv_widgets/lv_canvas.c:677:28
	ldr	r1, [sp, #16]
	.loc	10 677 40                       @ lvgl/src/lv_widgets/lv_canvas.c:677:40
	ldrh.w	r1, [r1, #1]
	ubfx	r1, r1, #2, #11
.Ltmp401:
	.loc	10 677 13                       @ lvgl/src/lv_widgets/lv_canvas.c:677:13
	cmp	r0, r1
	bhs	.LBB15_15
	b	.LBB15_13
.LBB15_13:                              @   in Loop: Header=BB15_12 Depth=2
.Ltmp402:
	.loc	10 678 41 is_stmt 1             @ lvgl/src/lv_widgets/lv_canvas.c:678:41
	ldr	r0, [sp, #16]
	.loc	10 678 46 is_stmt 0             @ lvgl/src/lv_widgets/lv_canvas.c:678:46
	ldrsh.w	r1, [sp, #4]
	.loc	10 678 49                       @ lvgl/src/lv_widgets/lv_canvas.c:678:49
	ldrsh.w	r2, [sp]
	.loc	10 678 17                       @ lvgl/src/lv_widgets/lv_canvas.c:678:17
	ldr	r3, [sp, #28]
	bl	lv_img_buf_set_px_color
	.loc	10 679 41 is_stmt 1             @ lvgl/src/lv_widgets/lv_canvas.c:679:41
	ldr	r0, [sp, #16]
	.loc	10 679 46 is_stmt 0             @ lvgl/src/lv_widgets/lv_canvas.c:679:46
	ldrsh.w	r1, [sp, #4]
	.loc	10 679 49                       @ lvgl/src/lv_widgets/lv_canvas.c:679:49
	ldrsh.w	r2, [sp]
	.loc	10 679 52                       @ lvgl/src/lv_widgets/lv_canvas.c:679:52
	ldrb.w	r3, [sp, #23]
	.loc	10 679 17                       @ lvgl/src/lv_widgets/lv_canvas.c:679:17
	bl	lv_img_buf_set_px_alpha
	.loc	10 680 13 is_stmt 1             @ lvgl/src/lv_widgets/lv_canvas.c:680:13
	b	.LBB15_14
.Ltmp403:
.LBB15_14:                              @   in Loop: Header=BB15_12 Depth=2
	.loc	10 677 44                       @ lvgl/src/lv_widgets/lv_canvas.c:677:44
	ldr	r0, [sp, #4]
	adds	r0, #1
	str	r0, [sp, #4]
	.loc	10 677 13 is_stmt 0             @ lvgl/src/lv_widgets/lv_canvas.c:677:13
	b	.LBB15_12
.Ltmp404:
.LBB15_15:                              @   in Loop: Header=BB15_10 Depth=1
	.loc	10 681 9 is_stmt 1              @ lvgl/src/lv_widgets/lv_canvas.c:681:9
	b	.LBB15_16
.Ltmp405:
.LBB15_16:                              @   in Loop: Header=BB15_10 Depth=1
	.loc	10 676 40                       @ lvgl/src/lv_widgets/lv_canvas.c:676:40
	ldr	r0, [sp]
	adds	r0, #1
	str	r0, [sp]
	.loc	10 676 9 is_stmt 0              @ lvgl/src/lv_widgets/lv_canvas.c:676:9
	b	.LBB15_10
.Ltmp406:
.LBB15_17:
	.loc	10 0 9                          @ lvgl/src/lv_widgets/lv_canvas.c:0:9
	b	.LBB15_18
.LBB15_18:
	b	.LBB15_19
.LBB15_19:
	.loc	10 684 23 is_stmt 1             @ lvgl/src/lv_widgets/lv_canvas.c:684:23
	ldr	r0, [sp, #24]
	.loc	10 684 5 is_stmt 0              @ lvgl/src/lv_widgets/lv_canvas.c:684:5
	bl	lv_obj_invalidate
	.loc	10 685 1 is_stmt 1              @ lvgl/src/lv_widgets/lv_canvas.c:685:1
	add	sp, #32
	pop	{r7, pc}
.Ltmp407:
.Lfunc_end15:
	.size	lv_canvas_fill_bg, .Lfunc_end15-lv_canvas_fill_bg
	.cfi_endproc
	.cantunwind
	.fnend
                                        @ -- End function
	.section	.text.lv_canvas_draw_rect,"ax",%progbits
	.hidden	lv_canvas_draw_rect             @ -- Begin function lv_canvas_draw_rect
	.globl	lv_canvas_draw_rect
	.p2align	3
	.type	lv_canvas_draw_rect,%function
	.code	16                              @ @lv_canvas_draw_rect
	.thumb_func
lv_canvas_draw_rect:
.Lfunc_begin16:
	.loc	10 698 0                        @ lvgl/src/lv_widgets/lv_canvas.c:698:0
	.fnstart
	.cfi_startproc
@ %bb.0:
	.save	{r7, lr}
	push	{r7, lr}
	.cfi_def_cfa_offset 8
	.cfi_offset lr, -4
	.cfi_offset r7, -8
	.pad	#480
	sub	sp, #480
	.cfi_def_cfa_offset 488
	mov	r12, r0
	ldr	r0, [sp, #492]
	ldr	r0, [sp, #488]
                                        @ kill: def $lr killed $r3
                                        @ kill: def $lr killed $r2
                                        @ kill: def $lr killed $r1
	str.w	r12, [sp, #476]
	strh.w	r1, [sp, #474]
	strh.w	r2, [sp, #472]
	strh.w	r3, [sp, #470]
	strh.w	r0, [sp, #468]
.Ltmp408:
	.loc	10 699 5 prologue_end           @ lvgl/src/lv_widgets/lv_canvas.c:699:5
	b	.LBB16_1
.LBB16_1:
.Ltmp409:
	.loc	10 699 5 is_stmt 0              @ lvgl/src/lv_widgets/lv_canvas.c:699:5
	ldr	r0, [sp, #476]
	bl	lv_debug_check_null
.Ltmp410:
	.loc	10 699 5                        @ lvgl/src/lv_widgets/lv_canvas.c:699:5
	cbnz	r0, .LBB16_4
	b	.LBB16_2
.LBB16_2:
.Ltmp411:
	.loc	10 699 5                        @ lvgl/src/lv_widgets/lv_canvas.c:699:5
	ldr	r2, [sp, #476]
	movw	r0, :lower16:.L.str.1
	movt	r0, :upper16:.L.str.1
	movs	r3, #0
	bl	lv_debug_log_error
	b	.LBB16_3
.LBB16_3:                               @ =>This Inner Loop Header: Depth=1
	b	.LBB16_3
.Ltmp412:
.LBB16_4:
	.loc	10 699 5                        @ lvgl/src/lv_widgets/lv_canvas.c:699:5
	b	.LBB16_5
.Ltmp413:
.LBB16_5:
	.loc	10 701 44 is_stmt 1             @ lvgl/src/lv_widgets/lv_canvas.c:701:44
	ldr	r0, [sp, #476]
	.loc	10 701 26 is_stmt 0             @ lvgl/src/lv_widgets/lv_canvas.c:701:26
	bl	lv_canvas_get_img
	.loc	10 701 20                       @ lvgl/src/lv_widgets/lv_canvas.c:701:20
	str	r0, [sp, #464]
.Ltmp414:
	.loc	10 703 8 is_stmt 1              @ lvgl/src/lv_widgets/lv_canvas.c:703:8
	ldr	r0, [sp, #464]
	.loc	10 703 20 is_stmt 0             @ lvgl/src/lv_widgets/lv_canvas.c:703:20
	ldrb	r0, [r0]
	and	r0, r0, #31
	.loc	10 703 49                       @ lvgl/src/lv_widgets/lv_canvas.c:703:49
	cmp	r0, #7
	blt	.LBB16_8
	b	.LBB16_6
.LBB16_6:
	.loc	10 703 52                       @ lvgl/src/lv_widgets/lv_canvas.c:703:52
	ldr	r0, [sp, #464]
	.loc	10 703 64                       @ lvgl/src/lv_widgets/lv_canvas.c:703:64
	ldrb	r0, [r0]
	and	r0, r0, #31
.Ltmp415:
	.loc	10 703 8                        @ lvgl/src/lv_widgets/lv_canvas.c:703:8
	cmp	r0, #10
	bgt	.LBB16_8
	b	.LBB16_7
.LBB16_7:
.Ltmp416:
	.loc	10 705 9 is_stmt 1              @ lvgl/src/lv_widgets/lv_canvas.c:705:9
	b	.LBB16_12
.Ltmp417:
.LBB16_8:
	.loc	10 0 9 is_stmt 0                @ lvgl/src/lv_widgets/lv_canvas.c:0:9
	movs	r0, #0
	.loc	10 711 13 is_stmt 1             @ lvgl/src/lv_widgets/lv_canvas.c:711:13
	str	r0, [sp, #4]                    @ 4-byte Spill
	strh.w	r0, [sp, #456]
	.loc	10 712 15                       @ lvgl/src/lv_widgets/lv_canvas.c:712:15
	ldr	r1, [sp, #464]
	.loc	10 712 27 is_stmt 0             @ lvgl/src/lv_widgets/lv_canvas.c:712:27
	ldrh.w	r1, [r1, #1]
	ubfx	r1, r1, #2, #11
	.loc	10 712 29                       @ lvgl/src/lv_widgets/lv_canvas.c:712:29
	subs	r1, #1
	.loc	10 712 13                       @ lvgl/src/lv_widgets/lv_canvas.c:712:13
	strh.w	r1, [sp, #460]
	.loc	10 713 13 is_stmt 1             @ lvgl/src/lv_widgets/lv_canvas.c:713:13
	strh.w	r0, [sp, #458]
	.loc	10 714 15                       @ lvgl/src/lv_widgets/lv_canvas.c:714:15
	ldr	r0, [sp, #464]
	.loc	10 714 27 is_stmt 0             @ lvgl/src/lv_widgets/lv_canvas.c:714:27
	ldrb	r1, [r0, #3]
	ldrh.w	r0, [r0, #1]
	orr.w	r1, r0, r1, lsl #16
	mov.w	r0, #-1
	.loc	10 714 29                       @ lvgl/src/lv_widgets/lv_canvas.c:714:29
	add.w	r0, r0, r1, lsr #13
	.loc	10 714 13                       @ lvgl/src/lv_widgets/lv_canvas.c:714:13
	strh.w	r0, [sp, #462]
	.loc	10 717 17 is_stmt 1             @ lvgl/src/lv_widgets/lv_canvas.c:717:17
	ldrh.w	r0, [sp, #474]
	.loc	10 717 15 is_stmt 0             @ lvgl/src/lv_widgets/lv_canvas.c:717:15
	strh.w	r0, [sp, #448]
	.loc	10 718 17 is_stmt 1             @ lvgl/src/lv_widgets/lv_canvas.c:718:17
	ldrh.w	r0, [sp, #472]
	.loc	10 718 15 is_stmt 0             @ lvgl/src/lv_widgets/lv_canvas.c:718:15
	strh.w	r0, [sp, #450]
	.loc	10 719 17 is_stmt 1             @ lvgl/src/lv_widgets/lv_canvas.c:719:17
	ldrh.w	r0, [sp, #474]
	.loc	10 719 21 is_stmt 0             @ lvgl/src/lv_widgets/lv_canvas.c:719:21
	ldrh.w	r1, [sp, #470]
	.loc	10 719 19                       @ lvgl/src/lv_widgets/lv_canvas.c:719:19
	add	r0, r1
	.loc	10 719 23                       @ lvgl/src/lv_widgets/lv_canvas.c:719:23
	subs	r0, #1
	.loc	10 719 15                       @ lvgl/src/lv_widgets/lv_canvas.c:719:15
	strh.w	r0, [sp, #452]
	.loc	10 720 17 is_stmt 1             @ lvgl/src/lv_widgets/lv_canvas.c:720:17
	ldrh.w	r0, [sp, #472]
	.loc	10 720 21 is_stmt 0             @ lvgl/src/lv_widgets/lv_canvas.c:720:21
	ldrh.w	r1, [sp, #468]
	.loc	10 720 19                       @ lvgl/src/lv_widgets/lv_canvas.c:720:19
	add	r0, r1
	.loc	10 720 23                       @ lvgl/src/lv_widgets/lv_canvas.c:720:23
	subs	r0, #1
	.loc	10 720 15                       @ lvgl/src/lv_widgets/lv_canvas.c:720:15
	strh.w	r0, [sp, #454]
	add	r0, sp, #60
	str	r0, [sp, #12]                   @ 4-byte Spill
	mov.w	r1, #388
	.loc	10 723 5 is_stmt 1              @ lvgl/src/lv_widgets/lv_canvas.c:723:5
	bl	_lv_memset_00
	ldr	r2, [sp, #4]                    @ 4-byte Reload
	.loc	10 726 41                       @ lvgl/src/lv_widgets/lv_canvas.c:726:41
	ldr	r0, [sp, #464]
	.loc	10 726 46 is_stmt 0             @ lvgl/src/lv_widgets/lv_canvas.c:726:46
	ldr	r1, [r0, #8]
	.loc	10 726 70                       @ lvgl/src/lv_widgets/lv_canvas.c:726:70
	ldrb	r3, [r0, #3]
	ldrh.w	r0, [r0, #1]
	orr.w	r3, r0, r3, lsl #16
	ubfx	r0, r3, #2, #11
	.loc	10 726 86                       @ lvgl/src/lv_widgets/lv_canvas.c:726:86
	lsrs	r3, r3, #13
	.loc	10 726 72                       @ lvgl/src/lv_widgets/lv_canvas.c:726:72
	muls	r3, r0, r3
	add	r0, sp, #24
	.loc	10 726 5                        @ lvgl/src/lv_widgets/lv_canvas.c:726:5
	str	r0, [sp, #8]                    @ 4-byte Spill
	bl	lv_disp_buf_init
	ldr	r0, [sp, #8]                    @ 4-byte Reload
	.loc	10 727 28 is_stmt 1             @ lvgl/src/lv_widgets/lv_canvas.c:727:28
	adds	r0, #16
	add	r1, sp, #456
	.loc	10 727 5 is_stmt 0              @ lvgl/src/lv_widgets/lv_canvas.c:727:5
	bl	lv_area_copy
	ldr	r0, [sp, #12]                   @ 4-byte Reload
	.loc	10 729 5 is_stmt 1              @ lvgl/src/lv_widgets/lv_canvas.c:729:5
	bl	lv_disp_drv_init
	ldr	r1, [sp, #8]                    @ 4-byte Reload
	ldr	r0, [sp, #12]                   @ 4-byte Reload
	.loc	10 731 25                       @ lvgl/src/lv_widgets/lv_canvas.c:731:25
	str	r1, [sp, #64]
	.loc	10 732 27                       @ lvgl/src/lv_widgets/lv_canvas.c:732:27
	ldr	r1, [sp, #464]
	.loc	10 732 39 is_stmt 0             @ lvgl/src/lv_widgets/lv_canvas.c:732:39
	ldrh.w	r1, [r1, #1]
	.loc	10 732 27                       @ lvgl/src/lv_widgets/lv_canvas.c:732:27
	ubfx	r1, r1, #2, #11
	.loc	10 732 25                       @ lvgl/src/lv_widgets/lv_canvas.c:732:25
	strh.w	r1, [sp, #60]
	.loc	10 733 27 is_stmt 1             @ lvgl/src/lv_widgets/lv_canvas.c:733:27
	ldr	r1, [sp, #464]
	.loc	10 733 39 is_stmt 0             @ lvgl/src/lv_widgets/lv_canvas.c:733:39
	ldrb	r2, [r1, #3]
	ldrh.w	r1, [r1, #1]
	orr.w	r1, r1, r2, lsl #16
	lsrs	r1, r1, #13
	.loc	10 733 25                       @ lvgl/src/lv_widgets/lv_canvas.c:733:25
	strh.w	r1, [sp, #62]
	.loc	10 735 33 is_stmt 1             @ lvgl/src/lv_widgets/lv_canvas.c:735:33
	ldr	r1, [sp, #464]
	.loc	10 735 45 is_stmt 0             @ lvgl/src/lv_widgets/lv_canvas.c:735:45
	ldrb	r1, [r1]
	and	r1, r1, #31
	.loc	10 735 5                        @ lvgl/src/lv_widgets/lv_canvas.c:735:5
	bl	set_set_px_cb
	.loc	10 740 16 is_stmt 1             @ lvgl/src/lv_widgets/lv_canvas.c:740:16
	movw	r0, :lower16:.L__const.lv_canvas_draw_rect.ctransp
	movt	r0, :upper16:.L__const.lv_canvas_draw_rect.ctransp
	ldr	r0, [r0]
	str	r0, [sp, #20]
.Ltmp418:
	.loc	10 741 8                        @ lvgl/src/lv_widgets/lv_canvas.c:741:8
	ldr	r0, [sp, #464]
	.loc	10 741 20 is_stmt 0             @ lvgl/src/lv_widgets/lv_canvas.c:741:20
	ldrb	r0, [r0]
	and	r0, r0, #31
	.loc	10 741 60                       @ lvgl/src/lv_widgets/lv_canvas.c:741:60
	cmp	r0, #6
	bne	.LBB16_11
	b	.LBB16_9
.LBB16_9:
	.loc	10 742 8 is_stmt 1              @ lvgl/src/lv_widgets/lv_canvas.c:742:8
	ldr	r0, [sp, #492]
	.loc	10 742 27 is_stmt 0             @ lvgl/src/lv_widgets/lv_canvas.c:742:27
	ldr	r0, [r0, #4]
	.loc	10 742 43                       @ lvgl/src/lv_widgets/lv_canvas.c:742:43
	ldr	r1, [sp, #20]
.Ltmp419:
	.loc	10 741 8 is_stmt 1              @ lvgl/src/lv_widgets/lv_canvas.c:741:8
	cmp	r0, r1
	bne	.LBB16_11
	b	.LBB16_10
.LBB16_10:
.Ltmp420:
	.loc	10 743 34                       @ lvgl/src/lv_widgets/lv_canvas.c:743:34
	ldrh.w	r0, [sp, #68]
	bic	r0, r0, #1
	strh.w	r0, [sp, #68]
	.loc	10 744 5                        @ lvgl/src/lv_widgets/lv_canvas.c:744:5
	b	.LBB16_11
.Ltmp421:
.LBB16_11:
	.loc	10 747 28                       @ lvgl/src/lv_widgets/lv_canvas.c:747:28
	bl	_lv_refr_get_disp_refreshing
	.loc	10 747 17 is_stmt 0             @ lvgl/src/lv_widgets/lv_canvas.c:747:17
	str	r0, [sp, #16]
	add	r0, sp, #60
	.loc	10 748 5 is_stmt 1              @ lvgl/src/lv_widgets/lv_canvas.c:748:5
	bl	_lv_refr_set_disp_refreshing
	.loc	10 750 34                       @ lvgl/src/lv_widgets/lv_canvas.c:750:34
	ldr	r2, [sp, #492]
	add	r0, sp, #448
	add	r1, sp, #456
	.loc	10 750 5 is_stmt 0              @ lvgl/src/lv_widgets/lv_canvas.c:750:5
	bl	lv_draw_rect
	.loc	10 752 34 is_stmt 1             @ lvgl/src/lv_widgets/lv_canvas.c:752:34
	ldr	r0, [sp, #16]
	.loc	10 752 5 is_stmt 0              @ lvgl/src/lv_widgets/lv_canvas.c:752:5
	bl	_lv_refr_set_disp_refreshing
	.loc	10 754 23 is_stmt 1             @ lvgl/src/lv_widgets/lv_canvas.c:754:23
	ldr	r0, [sp, #476]
	.loc	10 754 5 is_stmt 0              @ lvgl/src/lv_widgets/lv_canvas.c:754:5
	bl	lv_obj_invalidate
	.loc	10 755 1 is_stmt 1              @ lvgl/src/lv_widgets/lv_canvas.c:755:1
	b	.LBB16_12
.LBB16_12:
	add	sp, #480
	pop	{r7, pc}
.Ltmp422:
.Lfunc_end16:
	.size	lv_canvas_draw_rect, .Lfunc_end16-lv_canvas_draw_rect
	.cfi_endproc
	.cantunwind
	.fnend
                                        @ -- End function
	.section	.text.set_set_px_cb,"ax",%progbits
	.p2align	3                               @ -- Begin function set_set_px_cb
	.type	set_set_px_cb,%function
	.code	16                              @ @set_set_px_cb
	.thumb_func
set_set_px_cb:
.Lfunc_begin17:
	.loc	10 1117 0                       @ lvgl/src/lv_widgets/lv_canvas.c:1117:0
	.fnstart
	.cfi_startproc
@ %bb.0:
	.pad	#12
	sub	sp, #12
	.cfi_def_cfa_offset 12
                                        @ kill: def $r2 killed $r1
	str	r0, [sp, #8]
	strb.w	r1, [sp, #7]
.Ltmp423:
	.loc	10 1118 12 prologue_end         @ lvgl/src/lv_widgets/lv_canvas.c:1118:12
	ldrb.w	r0, [sp, #7]
	.loc	10 1118 5 is_stmt 0             @ lvgl/src/lv_widgets/lv_canvas.c:1118:5
	subs	r0, #5
	mov	r1, r0
	str	r1, [sp]                        @ 4-byte Spill
	cmp	r0, #9
	bhi	.LBB17_8
@ %bb.1:
	.loc	10 0 5                          @ lvgl/src/lv_widgets/lv_canvas.c:0:5
	ldr	r1, [sp]                        @ 4-byte Reload
.LCPI17_0:
	tbb	[pc, r1]
@ %bb.2:
.LJTI17_0:
	.byte	(.LBB17_3-(.LCPI17_0+4))/2
	.byte	(.LBB17_8-(.LCPI17_0+4))/2
	.byte	(.LBB17_8-(.LCPI17_0+4))/2
	.byte	(.LBB17_8-(.LCPI17_0+4))/2
	.byte	(.LBB17_8-(.LCPI17_0+4))/2
	.byte	(.LBB17_8-(.LCPI17_0+4))/2
	.byte	(.LBB17_4-(.LCPI17_0+4))/2
	.byte	(.LBB17_5-(.LCPI17_0+4))/2
	.byte	(.LBB17_6-(.LCPI17_0+4))/2
	.byte	(.LBB17_7-(.LCPI17_0+4))/2
	.p2align	1
.LBB17_3:
.Ltmp424:
	.loc	10 1120 13 is_stmt 1            @ lvgl/src/lv_widgets/lv_canvas.c:1120:13
	ldr	r1, [sp, #8]
	.loc	10 1120 33 is_stmt 0            @ lvgl/src/lv_widgets/lv_canvas.c:1120:33
	movw	r0, :lower16:set_px_true_color_alpha
	movt	r0, :upper16:set_px_true_color_alpha
	str	r0, [r1, #20]
	.loc	10 1121 13 is_stmt 1            @ lvgl/src/lv_widgets/lv_canvas.c:1121:13
	b	.LBB17_9
.LBB17_4:
	.loc	10 1123 13                      @ lvgl/src/lv_widgets/lv_canvas.c:1123:13
	ldr	r1, [sp, #8]
	.loc	10 1123 33 is_stmt 0            @ lvgl/src/lv_widgets/lv_canvas.c:1123:33
	movw	r0, :lower16:set_px_cb_alpha1
	movt	r0, :upper16:set_px_cb_alpha1
	str	r0, [r1, #20]
	.loc	10 1124 13 is_stmt 1            @ lvgl/src/lv_widgets/lv_canvas.c:1124:13
	b	.LBB17_9
.LBB17_5:
	.loc	10 1126 13                      @ lvgl/src/lv_widgets/lv_canvas.c:1126:13
	ldr	r1, [sp, #8]
	.loc	10 1126 33 is_stmt 0            @ lvgl/src/lv_widgets/lv_canvas.c:1126:33
	movw	r0, :lower16:set_px_cb_alpha2
	movt	r0, :upper16:set_px_cb_alpha2
	str	r0, [r1, #20]
	.loc	10 1127 13 is_stmt 1            @ lvgl/src/lv_widgets/lv_canvas.c:1127:13
	b	.LBB17_9
.LBB17_6:
	.loc	10 1129 13                      @ lvgl/src/lv_widgets/lv_canvas.c:1129:13
	ldr	r1, [sp, #8]
	.loc	10 1129 33 is_stmt 0            @ lvgl/src/lv_widgets/lv_canvas.c:1129:33
	movw	r0, :lower16:set_px_cb_alpha4
	movt	r0, :upper16:set_px_cb_alpha4
	str	r0, [r1, #20]
	.loc	10 1130 13 is_stmt 1            @ lvgl/src/lv_widgets/lv_canvas.c:1130:13
	b	.LBB17_9
.LBB17_7:
	.loc	10 1132 13                      @ lvgl/src/lv_widgets/lv_canvas.c:1132:13
	ldr	r1, [sp, #8]
	.loc	10 1132 33 is_stmt 0            @ lvgl/src/lv_widgets/lv_canvas.c:1132:33
	movw	r0, :lower16:set_px_cb_alpha8
	movt	r0, :upper16:set_px_cb_alpha8
	str	r0, [r1, #20]
	.loc	10 1133 13 is_stmt 1            @ lvgl/src/lv_widgets/lv_canvas.c:1133:13
	b	.LBB17_9
.LBB17_8:
	.loc	10 1135 13                      @ lvgl/src/lv_widgets/lv_canvas.c:1135:13
	ldr	r1, [sp, #8]
	movs	r0, #0
	.loc	10 1135 33 is_stmt 0            @ lvgl/src/lv_widgets/lv_canvas.c:1135:33
	str	r0, [r1, #20]
	.loc	10 1136 5 is_stmt 1             @ lvgl/src/lv_widgets/lv_canvas.c:1136:5
	b	.LBB17_9
.Ltmp425:
.LBB17_9:
	.loc	10 1137 1                       @ lvgl/src/lv_widgets/lv_canvas.c:1137:1
	add	sp, #12
	bx	lr
.Ltmp426:
.Lfunc_end17:
	.size	set_set_px_cb, .Lfunc_end17-set_set_px_cb
	.cfi_endproc
	.cantunwind
	.fnend
                                        @ -- End function
	.section	.text.lv_canvas_draw_text,"ax",%progbits
	.hidden	lv_canvas_draw_text             @ -- Begin function lv_canvas_draw_text
	.globl	lv_canvas_draw_text
	.p2align	3
	.type	lv_canvas_draw_text,%function
	.code	16                              @ @lv_canvas_draw_text
	.thumb_func
lv_canvas_draw_text:
.Lfunc_begin18:
	.loc	10 770 0                        @ lvgl/src/lv_widgets/lv_canvas.c:770:0
	.fnstart
	.cfi_startproc
@ %bb.0:
	.save	{r7, lr}
	push	{r7, lr}
	.cfi_def_cfa_offset 8
	.cfi_offset lr, -4
	.cfi_offset r7, -8
	.pad	#488
	sub	sp, #488
	.cfi_def_cfa_offset 496
	mov	r12, r0
	ldr	r0, [sp, #504]
	ldr.w	lr, [sp, #500]
	ldr.w	lr, [sp, #496]
                                        @ kill: def $lr killed $r3
                                        @ kill: def $lr killed $r2
                                        @ kill: def $lr killed $r1
	str.w	r12, [sp, #484]
	strh.w	r1, [sp, #482]
	strh.w	r2, [sp, #480]
	strh.w	r3, [sp, #478]
	strb.w	r0, [sp, #477]
.Ltmp427:
	.loc	10 771 5 prologue_end           @ lvgl/src/lv_widgets/lv_canvas.c:771:5
	b	.LBB18_1
.LBB18_1:
.Ltmp428:
	.loc	10 771 5 is_stmt 0              @ lvgl/src/lv_widgets/lv_canvas.c:771:5
	ldr	r0, [sp, #484]
	bl	lv_debug_check_null
.Ltmp429:
	.loc	10 771 5                        @ lvgl/src/lv_widgets/lv_canvas.c:771:5
	cbnz	r0, .LBB18_4
	b	.LBB18_2
.LBB18_2:
.Ltmp430:
	.loc	10 771 5                        @ lvgl/src/lv_widgets/lv_canvas.c:771:5
	ldr	r2, [sp, #484]
	movw	r0, :lower16:.L.str.1
	movt	r0, :upper16:.L.str.1
	movs	r3, #0
	bl	lv_debug_log_error
	b	.LBB18_3
.LBB18_3:                               @ =>This Inner Loop Header: Depth=1
	b	.LBB18_3
.Ltmp431:
.LBB18_4:
	.loc	10 771 5                        @ lvgl/src/lv_widgets/lv_canvas.c:771:5
	b	.LBB18_5
.Ltmp432:
.LBB18_5:
	.loc	10 773 44 is_stmt 1             @ lvgl/src/lv_widgets/lv_canvas.c:773:44
	ldr	r0, [sp, #484]
	.loc	10 773 26 is_stmt 0             @ lvgl/src/lv_widgets/lv_canvas.c:773:26
	bl	lv_canvas_get_img
	.loc	10 773 20                       @ lvgl/src/lv_widgets/lv_canvas.c:773:20
	str	r0, [sp, #472]
.Ltmp433:
	.loc	10 775 8 is_stmt 1              @ lvgl/src/lv_widgets/lv_canvas.c:775:8
	ldr	r0, [sp, #472]
	.loc	10 775 20 is_stmt 0             @ lvgl/src/lv_widgets/lv_canvas.c:775:20
	ldrb	r0, [r0]
	and	r0, r0, #31
	.loc	10 775 49                       @ lvgl/src/lv_widgets/lv_canvas.c:775:49
	cmp	r0, #7
	blt	.LBB18_8
	b	.LBB18_6
.LBB18_6:
	.loc	10 775 52                       @ lvgl/src/lv_widgets/lv_canvas.c:775:52
	ldr	r0, [sp, #472]
	.loc	10 775 64                       @ lvgl/src/lv_widgets/lv_canvas.c:775:64
	ldrb	r0, [r0]
	and	r0, r0, #31
.Ltmp434:
	.loc	10 775 8                        @ lvgl/src/lv_widgets/lv_canvas.c:775:8
	cmp	r0, #10
	bgt	.LBB18_8
	b	.LBB18_7
.LBB18_7:
.Ltmp435:
	.loc	10 777 9 is_stmt 1              @ lvgl/src/lv_widgets/lv_canvas.c:777:9
	b	.LBB18_16
.Ltmp436:
.LBB18_8:
	.loc	10 0 9 is_stmt 0                @ lvgl/src/lv_widgets/lv_canvas.c:0:9
	movs	r0, #0
	.loc	10 783 13 is_stmt 1             @ lvgl/src/lv_widgets/lv_canvas.c:783:13
	str	r0, [sp, #8]                    @ 4-byte Spill
	strh.w	r0, [sp, #464]
	.loc	10 784 15                       @ lvgl/src/lv_widgets/lv_canvas.c:784:15
	ldr	r1, [sp, #472]
	.loc	10 784 27 is_stmt 0             @ lvgl/src/lv_widgets/lv_canvas.c:784:27
	ldrh.w	r1, [r1, #1]
	ubfx	r1, r1, #2, #11
	.loc	10 784 29                       @ lvgl/src/lv_widgets/lv_canvas.c:784:29
	subs	r1, #1
	.loc	10 784 13                       @ lvgl/src/lv_widgets/lv_canvas.c:784:13
	strh.w	r1, [sp, #468]
	.loc	10 785 13 is_stmt 1             @ lvgl/src/lv_widgets/lv_canvas.c:785:13
	strh.w	r0, [sp, #466]
	.loc	10 786 15                       @ lvgl/src/lv_widgets/lv_canvas.c:786:15
	ldr	r0, [sp, #472]
	.loc	10 786 27 is_stmt 0             @ lvgl/src/lv_widgets/lv_canvas.c:786:27
	ldrb	r1, [r0, #3]
	ldrh.w	r0, [r0, #1]
	orr.w	r1, r0, r1, lsl #16
	mov.w	r0, #-1
	.loc	10 786 29                       @ lvgl/src/lv_widgets/lv_canvas.c:786:29
	add.w	r1, r0, r1, lsr #13
	.loc	10 786 13                       @ lvgl/src/lv_widgets/lv_canvas.c:786:13
	strh.w	r1, [sp, #470]
	.loc	10 789 17 is_stmt 1             @ lvgl/src/lv_widgets/lv_canvas.c:789:17
	ldrh.w	r1, [sp, #482]
	.loc	10 789 15 is_stmt 0             @ lvgl/src/lv_widgets/lv_canvas.c:789:15
	strh.w	r1, [sp, #456]
	.loc	10 790 17 is_stmt 1             @ lvgl/src/lv_widgets/lv_canvas.c:790:17
	ldrh.w	r1, [sp, #480]
	.loc	10 790 15 is_stmt 0             @ lvgl/src/lv_widgets/lv_canvas.c:790:15
	strh.w	r1, [sp, #458]
	.loc	10 791 17 is_stmt 1             @ lvgl/src/lv_widgets/lv_canvas.c:791:17
	ldrh.w	r1, [sp, #482]
	.loc	10 791 21 is_stmt 0             @ lvgl/src/lv_widgets/lv_canvas.c:791:21
	ldrh.w	r2, [sp, #478]
	.loc	10 791 19                       @ lvgl/src/lv_widgets/lv_canvas.c:791:19
	add	r1, r2
	.loc	10 791 27                       @ lvgl/src/lv_widgets/lv_canvas.c:791:27
	subs	r1, #1
	.loc	10 791 15                       @ lvgl/src/lv_widgets/lv_canvas.c:791:15
	strh.w	r1, [sp, #460]
	.loc	10 792 17 is_stmt 1             @ lvgl/src/lv_widgets/lv_canvas.c:792:17
	ldr	r1, [sp, #472]
	.loc	10 792 29 is_stmt 0             @ lvgl/src/lv_widgets/lv_canvas.c:792:29
	ldrb	r2, [r1, #3]
	ldrh.w	r1, [r1, #1]
	orr.w	r1, r1, r2, lsl #16
	.loc	10 792 31                       @ lvgl/src/lv_widgets/lv_canvas.c:792:31
	add.w	r0, r0, r1, lsr #13
	.loc	10 792 15                       @ lvgl/src/lv_widgets/lv_canvas.c:792:15
	strh.w	r0, [sp, #462]
	add	r0, sp, #68
	str	r0, [sp, #16]                   @ 4-byte Spill
	mov.w	r1, #388
	.loc	10 795 5 is_stmt 1              @ lvgl/src/lv_widgets/lv_canvas.c:795:5
	bl	_lv_memset_00
	ldr	r2, [sp, #8]                    @ 4-byte Reload
	.loc	10 798 41                       @ lvgl/src/lv_widgets/lv_canvas.c:798:41
	ldr	r0, [sp, #472]
	.loc	10 798 46 is_stmt 0             @ lvgl/src/lv_widgets/lv_canvas.c:798:46
	ldr	r1, [r0, #8]
	.loc	10 798 70                       @ lvgl/src/lv_widgets/lv_canvas.c:798:70
	ldrb	r3, [r0, #3]
	ldrh.w	r0, [r0, #1]
	orr.w	r3, r0, r3, lsl #16
	ubfx	r0, r3, #2, #11
	.loc	10 798 86                       @ lvgl/src/lv_widgets/lv_canvas.c:798:86
	lsrs	r3, r3, #13
	.loc	10 798 72                       @ lvgl/src/lv_widgets/lv_canvas.c:798:72
	muls	r3, r0, r3
	add	r0, sp, #32
	.loc	10 798 5                        @ lvgl/src/lv_widgets/lv_canvas.c:798:5
	str	r0, [sp, #12]                   @ 4-byte Spill
	bl	lv_disp_buf_init
	ldr	r0, [sp, #12]                   @ 4-byte Reload
	.loc	10 799 28 is_stmt 1             @ lvgl/src/lv_widgets/lv_canvas.c:799:28
	adds	r0, #16
	add	r1, sp, #464
	.loc	10 799 5 is_stmt 0              @ lvgl/src/lv_widgets/lv_canvas.c:799:5
	bl	lv_area_copy
	ldr	r0, [sp, #16]                   @ 4-byte Reload
	.loc	10 801 5 is_stmt 1              @ lvgl/src/lv_widgets/lv_canvas.c:801:5
	bl	lv_disp_drv_init
	ldr	r1, [sp, #12]                   @ 4-byte Reload
	ldr	r0, [sp, #16]                   @ 4-byte Reload
	.loc	10 803 25                       @ lvgl/src/lv_widgets/lv_canvas.c:803:25
	str	r1, [sp, #72]
	.loc	10 804 27                       @ lvgl/src/lv_widgets/lv_canvas.c:804:27
	ldr	r1, [sp, #472]
	.loc	10 804 39 is_stmt 0             @ lvgl/src/lv_widgets/lv_canvas.c:804:39
	ldrh.w	r1, [r1, #1]
	.loc	10 804 27                       @ lvgl/src/lv_widgets/lv_canvas.c:804:27
	ubfx	r1, r1, #2, #11
	.loc	10 804 25                       @ lvgl/src/lv_widgets/lv_canvas.c:804:25
	strh.w	r1, [sp, #68]
	.loc	10 805 27 is_stmt 1             @ lvgl/src/lv_widgets/lv_canvas.c:805:27
	ldr	r1, [sp, #472]
	.loc	10 805 39 is_stmt 0             @ lvgl/src/lv_widgets/lv_canvas.c:805:39
	ldrb	r2, [r1, #3]
	ldrh.w	r1, [r1, #1]
	orr.w	r1, r1, r2, lsl #16
	lsrs	r1, r1, #13
	.loc	10 805 25                       @ lvgl/src/lv_widgets/lv_canvas.c:805:25
	strh.w	r1, [sp, #70]
	.loc	10 807 33 is_stmt 1             @ lvgl/src/lv_widgets/lv_canvas.c:807:33
	ldr	r1, [sp, #472]
	.loc	10 807 45 is_stmt 0             @ lvgl/src/lv_widgets/lv_canvas.c:807:45
	ldrb	r1, [r1]
	and	r1, r1, #31
	.loc	10 807 5                        @ lvgl/src/lv_widgets/lv_canvas.c:807:5
	bl	set_set_px_cb
	.loc	10 809 28 is_stmt 1             @ lvgl/src/lv_widgets/lv_canvas.c:809:28
	bl	_lv_refr_get_disp_refreshing
	mov	r1, r0
	.loc	10 809 17 is_stmt 0             @ lvgl/src/lv_widgets/lv_canvas.c:809:17
	ldr	r0, [sp, #16]                   @ 4-byte Reload
	str	r1, [sp, #28]
	.loc	10 810 5 is_stmt 1              @ lvgl/src/lv_widgets/lv_canvas.c:810:5
	bl	_lv_refr_set_disp_refreshing
	.loc	10 813 12                       @ lvgl/src/lv_widgets/lv_canvas.c:813:12
	ldrb.w	r0, [sp, #477]
	.loc	10 813 5 is_stmt 0              @ lvgl/src/lv_widgets/lv_canvas.c:813:5
	mov	r1, r0
	str	r1, [sp, #20]                   @ 4-byte Spill
	cbz	r0, .LBB18_11
	b	.LBB18_9
.LBB18_9:
	ldr	r0, [sp, #20]                   @ 4-byte Reload
	cmp	r0, #1
	beq	.LBB18_13
	b	.LBB18_10
.LBB18_10:
	ldr	r0, [sp, #20]                   @ 4-byte Reload
	cmp	r0, #2
	beq	.LBB18_12
	b	.LBB18_14
.LBB18_11:
	.loc	10 0 5                          @ lvgl/src/lv_widgets/lv_canvas.c:0:5
	movs	r0, #0
.Ltmp437:
	.loc	10 815 18 is_stmt 1             @ lvgl/src/lv_widgets/lv_canvas.c:815:18
	strb.w	r0, [sp, #27]
	.loc	10 816 13                       @ lvgl/src/lv_widgets/lv_canvas.c:816:13
	b	.LBB18_15
.LBB18_12:
	.loc	10 0 13 is_stmt 0               @ lvgl/src/lv_widgets/lv_canvas.c:0:13
	movs	r0, #8
	.loc	10 818 18 is_stmt 1             @ lvgl/src/lv_widgets/lv_canvas.c:818:18
	strb.w	r0, [sp, #27]
	.loc	10 819 13                       @ lvgl/src/lv_widgets/lv_canvas.c:819:13
	b	.LBB18_15
.LBB18_13:
	.loc	10 0 13 is_stmt 0               @ lvgl/src/lv_widgets/lv_canvas.c:0:13
	movs	r0, #4
	.loc	10 821 18 is_stmt 1             @ lvgl/src/lv_widgets/lv_canvas.c:821:18
	strb.w	r0, [sp, #27]
	.loc	10 822 13                       @ lvgl/src/lv_widgets/lv_canvas.c:822:13
	b	.LBB18_15
.LBB18_14:
	.loc	10 0 13 is_stmt 0               @ lvgl/src/lv_widgets/lv_canvas.c:0:13
	movs	r0, #0
	.loc	10 824 18 is_stmt 1             @ lvgl/src/lv_widgets/lv_canvas.c:824:18
	strb.w	r0, [sp, #27]
	.loc	10 825 13                       @ lvgl/src/lv_widgets/lv_canvas.c:825:13
	b	.LBB18_15
.Ltmp438:
.LBB18_15:
	.loc	10 828 28                       @ lvgl/src/lv_widgets/lv_canvas.c:828:28
	ldrb.w	r0, [sp, #27]
	.loc	10 828 5 is_stmt 0              @ lvgl/src/lv_widgets/lv_canvas.c:828:5
	ldr	r1, [sp, #496]
	.loc	10 828 26                       @ lvgl/src/lv_widgets/lv_canvas.c:828:26
	strb.w	r0, [r1, #37]
	.loc	10 830 35 is_stmt 1             @ lvgl/src/lv_widgets/lv_canvas.c:830:35
	ldr	r2, [sp, #496]
	.loc	10 830 51 is_stmt 0             @ lvgl/src/lv_widgets/lv_canvas.c:830:51
	ldr	r3, [sp, #500]
	.loc	10 830 5                        @ lvgl/src/lv_widgets/lv_canvas.c:830:5
	mov	r1, sp
	movs	r0, #0
	str	r0, [r1]
	add	r0, sp, #456
	add	r1, sp, #464
	bl	lv_draw_label
	.loc	10 832 34 is_stmt 1             @ lvgl/src/lv_widgets/lv_canvas.c:832:34
	ldr	r0, [sp, #28]
	.loc	10 832 5 is_stmt 0              @ lvgl/src/lv_widgets/lv_canvas.c:832:5
	bl	_lv_refr_set_disp_refreshing
	.loc	10 834 23 is_stmt 1             @ lvgl/src/lv_widgets/lv_canvas.c:834:23
	ldr	r0, [sp, #484]
	.loc	10 834 5 is_stmt 0              @ lvgl/src/lv_widgets/lv_canvas.c:834:5
	bl	lv_obj_invalidate
	.loc	10 835 1 is_stmt 1              @ lvgl/src/lv_widgets/lv_canvas.c:835:1
	b	.LBB18_16
.LBB18_16:
	add	sp, #488
	pop	{r7, pc}
.Ltmp439:
.Lfunc_end18:
	.size	lv_canvas_draw_text, .Lfunc_end18-lv_canvas_draw_text
	.cfi_endproc
	.cantunwind
	.fnend
                                        @ -- End function
	.section	.text.lv_canvas_draw_img,"ax",%progbits
	.hidden	lv_canvas_draw_img              @ -- Begin function lv_canvas_draw_img
	.globl	lv_canvas_draw_img
	.p2align	3
	.type	lv_canvas_draw_img,%function
	.code	16                              @ @lv_canvas_draw_img
	.thumb_func
lv_canvas_draw_img:
.Lfunc_begin19:
	.loc	10 845 0                        @ lvgl/src/lv_widgets/lv_canvas.c:845:0
	.fnstart
	.cfi_startproc
@ %bb.0:
	.save	{r7, lr}
	push	{r7, lr}
	.cfi_def_cfa_offset 8
	.cfi_offset lr, -4
	.cfi_offset r7, -8
	.pad	#480
	sub	sp, #480
	.cfi_def_cfa_offset 488
	ldr.w	r12, [sp, #488]
                                        @ kill: def $r12 killed $r2
                                        @ kill: def $r12 killed $r1
	str	r0, [sp, #476]
	strh.w	r1, [sp, #474]
	strh.w	r2, [sp, #472]
	str	r3, [sp, #468]
.Ltmp440:
	.loc	10 846 5 prologue_end           @ lvgl/src/lv_widgets/lv_canvas.c:846:5
	b	.LBB19_1
.LBB19_1:
.Ltmp441:
	.loc	10 846 5 is_stmt 0              @ lvgl/src/lv_widgets/lv_canvas.c:846:5
	ldr	r0, [sp, #476]
	bl	lv_debug_check_null
.Ltmp442:
	.loc	10 846 5                        @ lvgl/src/lv_widgets/lv_canvas.c:846:5
	cbnz	r0, .LBB19_4
	b	.LBB19_2
.LBB19_2:
.Ltmp443:
	.loc	10 846 5                        @ lvgl/src/lv_widgets/lv_canvas.c:846:5
	ldr	r2, [sp, #476]
	movw	r0, :lower16:.L.str.1
	movt	r0, :upper16:.L.str.1
	movs	r3, #0
	bl	lv_debug_log_error
	b	.LBB19_3
.LBB19_3:                               @ =>This Inner Loop Header: Depth=1
	b	.LBB19_3
.Ltmp444:
.LBB19_4:
	.loc	10 846 5                        @ lvgl/src/lv_widgets/lv_canvas.c:846:5
	b	.LBB19_5
.Ltmp445:
.LBB19_5:
	.loc	10 848 44 is_stmt 1             @ lvgl/src/lv_widgets/lv_canvas.c:848:44
	ldr	r0, [sp, #476]
	.loc	10 848 26 is_stmt 0             @ lvgl/src/lv_widgets/lv_canvas.c:848:26
	bl	lv_canvas_get_img
	.loc	10 848 20                       @ lvgl/src/lv_widgets/lv_canvas.c:848:20
	str	r0, [sp, #464]
.Ltmp446:
	.loc	10 850 8 is_stmt 1              @ lvgl/src/lv_widgets/lv_canvas.c:850:8
	ldr	r0, [sp, #464]
	.loc	10 850 20 is_stmt 0             @ lvgl/src/lv_widgets/lv_canvas.c:850:20
	ldrb	r0, [r0]
	and	r0, r0, #31
	.loc	10 850 49                       @ lvgl/src/lv_widgets/lv_canvas.c:850:49
	cmp	r0, #7
	blt	.LBB19_8
	b	.LBB19_6
.LBB19_6:
	.loc	10 850 52                       @ lvgl/src/lv_widgets/lv_canvas.c:850:52
	ldr	r0, [sp, #464]
	.loc	10 850 64                       @ lvgl/src/lv_widgets/lv_canvas.c:850:64
	ldrb	r0, [r0]
	and	r0, r0, #31
.Ltmp447:
	.loc	10 850 8                        @ lvgl/src/lv_widgets/lv_canvas.c:850:8
	cmp	r0, #10
	bgt	.LBB19_8
	b	.LBB19_7
.LBB19_7:
.Ltmp448:
	.loc	10 852 9 is_stmt 1              @ lvgl/src/lv_widgets/lv_canvas.c:852:9
	b	.LBB19_11
.Ltmp449:
.LBB19_8:
	.loc	10 0 9 is_stmt 0                @ lvgl/src/lv_widgets/lv_canvas.c:0:9
	movs	r0, #0
	.loc	10 858 13 is_stmt 1             @ lvgl/src/lv_widgets/lv_canvas.c:858:13
	strh.w	r0, [sp, #456]
	.loc	10 859 15                       @ lvgl/src/lv_widgets/lv_canvas.c:859:15
	ldr	r1, [sp, #464]
	.loc	10 859 27 is_stmt 0             @ lvgl/src/lv_widgets/lv_canvas.c:859:27
	ldrh.w	r1, [r1, #1]
	ubfx	r1, r1, #2, #11
	.loc	10 859 29                       @ lvgl/src/lv_widgets/lv_canvas.c:859:29
	subs	r1, #1
	.loc	10 859 13                       @ lvgl/src/lv_widgets/lv_canvas.c:859:13
	strh.w	r1, [sp, #460]
	.loc	10 860 13 is_stmt 1             @ lvgl/src/lv_widgets/lv_canvas.c:860:13
	strh.w	r0, [sp, #458]
	.loc	10 861 15                       @ lvgl/src/lv_widgets/lv_canvas.c:861:15
	ldr	r0, [sp, #464]
	.loc	10 861 27 is_stmt 0             @ lvgl/src/lv_widgets/lv_canvas.c:861:27
	ldrb	r1, [r0, #3]
	ldrh.w	r0, [r0, #1]
	orr.w	r1, r0, r1, lsl #16
	mov.w	r0, #-1
	.loc	10 861 29                       @ lvgl/src/lv_widgets/lv_canvas.c:861:29
	add.w	r0, r0, r1, lsr #13
	.loc	10 861 13                       @ lvgl/src/lv_widgets/lv_canvas.c:861:13
	strh.w	r0, [sp, #462]
	.loc	10 864 44 is_stmt 1             @ lvgl/src/lv_widgets/lv_canvas.c:864:44
	ldr	r0, [sp, #468]
	add	r1, sp, #452
	.loc	10 864 20 is_stmt 0             @ lvgl/src/lv_widgets/lv_canvas.c:864:20
	bl	lv_img_decoder_get_info
	.loc	10 864 14                       @ lvgl/src/lv_widgets/lv_canvas.c:864:14
	strb.w	r0, [sp, #451]
.Ltmp450:
	.loc	10 865 8 is_stmt 1              @ lvgl/src/lv_widgets/lv_canvas.c:865:8
	ldrb.w	r0, [sp, #451]
.Ltmp451:
	.loc	10 865 8 is_stmt 0              @ lvgl/src/lv_widgets/lv_canvas.c:865:8
	cmp	r0, #1
	beq	.LBB19_10
	b	.LBB19_9
.LBB19_9:
.Ltmp452:
	.loc	10 867 9 is_stmt 1              @ lvgl/src/lv_widgets/lv_canvas.c:867:9
	b	.LBB19_11
.Ltmp453:
.LBB19_10:
	.loc	10 871 17                       @ lvgl/src/lv_widgets/lv_canvas.c:871:17
	ldrh.w	r0, [sp, #474]
	.loc	10 871 15 is_stmt 0             @ lvgl/src/lv_widgets/lv_canvas.c:871:15
	strh.w	r0, [sp, #440]
	.loc	10 872 17 is_stmt 1             @ lvgl/src/lv_widgets/lv_canvas.c:872:17
	ldrh.w	r0, [sp, #472]
	.loc	10 872 15 is_stmt 0             @ lvgl/src/lv_widgets/lv_canvas.c:872:15
	strh.w	r0, [sp, #442]
	.loc	10 873 17 is_stmt 1             @ lvgl/src/lv_widgets/lv_canvas.c:873:17
	ldrh.w	r0, [sp, #474]
	.loc	10 873 28 is_stmt 0             @ lvgl/src/lv_widgets/lv_canvas.c:873:28
	ldrh.w	r1, [sp, #453]
	ubfx	r1, r1, #2, #11
	.loc	10 873 19                       @ lvgl/src/lv_widgets/lv_canvas.c:873:19
	add	r0, r1
	.loc	10 873 30                       @ lvgl/src/lv_widgets/lv_canvas.c:873:30
	subs	r0, #1
	.loc	10 873 15                       @ lvgl/src/lv_widgets/lv_canvas.c:873:15
	strh.w	r0, [sp, #444]
	.loc	10 874 17 is_stmt 1             @ lvgl/src/lv_widgets/lv_canvas.c:874:17
	ldrh.w	r0, [sp, #472]
	.loc	10 874 28 is_stmt 0             @ lvgl/src/lv_widgets/lv_canvas.c:874:28
	ldrb.w	r2, [sp, #455]
	ldrh.w	r1, [sp, #453]
	orr.w	r1, r1, r2, lsl #16
	.loc	10 874 19                       @ lvgl/src/lv_widgets/lv_canvas.c:874:19
	add.w	r0, r0, r1, lsr #13
	.loc	10 874 30                       @ lvgl/src/lv_widgets/lv_canvas.c:874:30
	subs	r0, #1
	.loc	10 874 15                       @ lvgl/src/lv_widgets/lv_canvas.c:874:15
	strh.w	r0, [sp, #446]
	add	r0, sp, #52
	str	r0, [sp, #4]                    @ 4-byte Spill
	mov.w	r1, #388
	.loc	10 877 5 is_stmt 1              @ lvgl/src/lv_widgets/lv_canvas.c:877:5
	bl	_lv_memset_00
	.loc	10 880 41                       @ lvgl/src/lv_widgets/lv_canvas.c:880:41
	ldr	r0, [sp, #464]
	.loc	10 880 46 is_stmt 0             @ lvgl/src/lv_widgets/lv_canvas.c:880:46
	ldr	r1, [r0, #8]
	.loc	10 880 70                       @ lvgl/src/lv_widgets/lv_canvas.c:880:70
	ldrb	r2, [r0, #3]
	ldrh.w	r0, [r0, #1]
	orr.w	r2, r0, r2, lsl #16
	ubfx	r0, r2, #2, #11
	.loc	10 880 86                       @ lvgl/src/lv_widgets/lv_canvas.c:880:86
	lsrs	r2, r2, #13
	.loc	10 880 72                       @ lvgl/src/lv_widgets/lv_canvas.c:880:72
	mul	r3, r0, r2
	add	r0, sp, #16
	str	r0, [sp]                        @ 4-byte Spill
	movs	r2, #0
	.loc	10 880 5                        @ lvgl/src/lv_widgets/lv_canvas.c:880:5
	bl	lv_disp_buf_init
	ldr	r0, [sp]                        @ 4-byte Reload
	.loc	10 881 28 is_stmt 1             @ lvgl/src/lv_widgets/lv_canvas.c:881:28
	adds	r0, #16
	add	r1, sp, #456
	.loc	10 881 5 is_stmt 0              @ lvgl/src/lv_widgets/lv_canvas.c:881:5
	str	r1, [sp, #8]                    @ 4-byte Spill
	bl	lv_area_copy
	ldr	r0, [sp, #4]                    @ 4-byte Reload
	.loc	10 883 5 is_stmt 1              @ lvgl/src/lv_widgets/lv_canvas.c:883:5
	bl	lv_disp_drv_init
	ldr	r1, [sp]                        @ 4-byte Reload
	ldr	r0, [sp, #4]                    @ 4-byte Reload
	.loc	10 885 25                       @ lvgl/src/lv_widgets/lv_canvas.c:885:25
	str	r1, [sp, #56]
	.loc	10 886 27                       @ lvgl/src/lv_widgets/lv_canvas.c:886:27
	ldr	r1, [sp, #464]
	.loc	10 886 39 is_stmt 0             @ lvgl/src/lv_widgets/lv_canvas.c:886:39
	ldrh.w	r1, [r1, #1]
	.loc	10 886 27                       @ lvgl/src/lv_widgets/lv_canvas.c:886:27
	ubfx	r1, r1, #2, #11
	.loc	10 886 25                       @ lvgl/src/lv_widgets/lv_canvas.c:886:25
	strh.w	r1, [sp, #52]
	.loc	10 887 27 is_stmt 1             @ lvgl/src/lv_widgets/lv_canvas.c:887:27
	ldr	r1, [sp, #464]
	.loc	10 887 39 is_stmt 0             @ lvgl/src/lv_widgets/lv_canvas.c:887:39
	ldrb	r2, [r1, #3]
	ldrh.w	r1, [r1, #1]
	orr.w	r1, r1, r2, lsl #16
	lsrs	r1, r1, #13
	.loc	10 887 25                       @ lvgl/src/lv_widgets/lv_canvas.c:887:25
	strh.w	r1, [sp, #54]
	.loc	10 889 33 is_stmt 1             @ lvgl/src/lv_widgets/lv_canvas.c:889:33
	ldr	r1, [sp, #464]
	.loc	10 889 45 is_stmt 0             @ lvgl/src/lv_widgets/lv_canvas.c:889:45
	ldrb	r1, [r1]
	and	r1, r1, #31
	.loc	10 889 5                        @ lvgl/src/lv_widgets/lv_canvas.c:889:5
	bl	set_set_px_cb
	.loc	10 891 28 is_stmt 1             @ lvgl/src/lv_widgets/lv_canvas.c:891:28
	bl	_lv_refr_get_disp_refreshing
	mov	r1, r0
	.loc	10 891 17 is_stmt 0             @ lvgl/src/lv_widgets/lv_canvas.c:891:17
	ldr	r0, [sp, #4]                    @ 4-byte Reload
	str	r1, [sp, #12]
	.loc	10 892 5 is_stmt 1              @ lvgl/src/lv_widgets/lv_canvas.c:892:5
	bl	_lv_refr_set_disp_refreshing
	ldr	r1, [sp, #8]                    @ 4-byte Reload
	.loc	10 894 33                       @ lvgl/src/lv_widgets/lv_canvas.c:894:33
	ldr	r2, [sp, #468]
	.loc	10 894 38 is_stmt 0             @ lvgl/src/lv_widgets/lv_canvas.c:894:38
	ldr	r3, [sp, #488]
	add	r0, sp, #440
	.loc	10 894 5                        @ lvgl/src/lv_widgets/lv_canvas.c:894:5
	bl	lv_draw_img
	.loc	10 896 34 is_stmt 1             @ lvgl/src/lv_widgets/lv_canvas.c:896:34
	ldr	r0, [sp, #12]
	.loc	10 896 5 is_stmt 0              @ lvgl/src/lv_widgets/lv_canvas.c:896:5
	bl	_lv_refr_set_disp_refreshing
	.loc	10 898 23 is_stmt 1             @ lvgl/src/lv_widgets/lv_canvas.c:898:23
	ldr	r0, [sp, #476]
	.loc	10 898 5 is_stmt 0              @ lvgl/src/lv_widgets/lv_canvas.c:898:5
	bl	lv_obj_invalidate
	.loc	10 899 1 is_stmt 1              @ lvgl/src/lv_widgets/lv_canvas.c:899:1
	b	.LBB19_11
.LBB19_11:
	add	sp, #480
	pop	{r7, pc}
.Ltmp454:
.Lfunc_end19:
	.size	lv_canvas_draw_img, .Lfunc_end19-lv_canvas_draw_img
	.cfi_endproc
	.cantunwind
	.fnend
                                        @ -- End function
	.section	.text.lv_canvas_draw_line,"ax",%progbits
	.hidden	lv_canvas_draw_line             @ -- Begin function lv_canvas_draw_line
	.globl	lv_canvas_draw_line
	.p2align	3
	.type	lv_canvas_draw_line,%function
	.code	16                              @ @lv_canvas_draw_line
	.thumb_func
lv_canvas_draw_line:
.Lfunc_begin20:
	.loc	10 910 0                        @ lvgl/src/lv_widgets/lv_canvas.c:910:0
	.fnstart
	.cfi_startproc
@ %bb.0:
	.save	{r7, lr}
	push	{r7, lr}
	.cfi_def_cfa_offset 8
	.cfi_offset lr, -4
	.cfi_offset r7, -8
	.pad	#480
	sub	sp, #480
	.cfi_def_cfa_offset 488
	str	r0, [sp, #476]
	str	r1, [sp, #472]
	str	r2, [sp, #468]
	str	r3, [sp, #464]
.Ltmp455:
	.loc	10 911 5 prologue_end           @ lvgl/src/lv_widgets/lv_canvas.c:911:5
	b	.LBB20_1
.LBB20_1:
.Ltmp456:
	.loc	10 911 5 is_stmt 0              @ lvgl/src/lv_widgets/lv_canvas.c:911:5
	ldr	r0, [sp, #476]
	bl	lv_debug_check_null
.Ltmp457:
	.loc	10 911 5                        @ lvgl/src/lv_widgets/lv_canvas.c:911:5
	cbnz	r0, .LBB20_4
	b	.LBB20_2
.LBB20_2:
.Ltmp458:
	.loc	10 911 5                        @ lvgl/src/lv_widgets/lv_canvas.c:911:5
	ldr	r2, [sp, #476]
	movw	r0, :lower16:.L.str.1
	movt	r0, :upper16:.L.str.1
	movs	r3, #0
	bl	lv_debug_log_error
	b	.LBB20_3
.LBB20_3:                               @ =>This Inner Loop Header: Depth=1
	b	.LBB20_3
.Ltmp459:
.LBB20_4:
	.loc	10 911 5                        @ lvgl/src/lv_widgets/lv_canvas.c:911:5
	b	.LBB20_5
.Ltmp460:
.LBB20_5:
	.loc	10 913 44 is_stmt 1             @ lvgl/src/lv_widgets/lv_canvas.c:913:44
	ldr	r0, [sp, #476]
	.loc	10 913 26 is_stmt 0             @ lvgl/src/lv_widgets/lv_canvas.c:913:26
	bl	lv_canvas_get_img
	.loc	10 913 20                       @ lvgl/src/lv_widgets/lv_canvas.c:913:20
	str	r0, [sp, #460]
.Ltmp461:
	.loc	10 915 8 is_stmt 1              @ lvgl/src/lv_widgets/lv_canvas.c:915:8
	ldr	r0, [sp, #460]
	.loc	10 915 20 is_stmt 0             @ lvgl/src/lv_widgets/lv_canvas.c:915:20
	ldrb	r0, [r0]
	and	r0, r0, #31
	.loc	10 915 49                       @ lvgl/src/lv_widgets/lv_canvas.c:915:49
	cmp	r0, #7
	blt	.LBB20_8
	b	.LBB20_6
.LBB20_6:
	.loc	10 915 52                       @ lvgl/src/lv_widgets/lv_canvas.c:915:52
	ldr	r0, [sp, #460]
	.loc	10 915 64                       @ lvgl/src/lv_widgets/lv_canvas.c:915:64
	ldrb	r0, [r0]
	and	r0, r0, #31
.Ltmp462:
	.loc	10 915 8                        @ lvgl/src/lv_widgets/lv_canvas.c:915:8
	cmp	r0, #10
	bgt	.LBB20_8
	b	.LBB20_7
.LBB20_7:
.Ltmp463:
	.loc	10 917 9 is_stmt 1              @ lvgl/src/lv_widgets/lv_canvas.c:917:9
	b	.LBB20_16
.Ltmp464:
.LBB20_8:
	.loc	10 0 9 is_stmt 0                @ lvgl/src/lv_widgets/lv_canvas.c:0:9
	movs	r0, #0
	.loc	10 922 13 is_stmt 1             @ lvgl/src/lv_widgets/lv_canvas.c:922:13
	str	r0, [sp, #4]                    @ 4-byte Spill
	strh.w	r0, [sp, #452]
	.loc	10 923 15                       @ lvgl/src/lv_widgets/lv_canvas.c:923:15
	ldr	r1, [sp, #460]
	.loc	10 923 27 is_stmt 0             @ lvgl/src/lv_widgets/lv_canvas.c:923:27
	ldrh.w	r1, [r1, #1]
	ubfx	r1, r1, #2, #11
	.loc	10 923 29                       @ lvgl/src/lv_widgets/lv_canvas.c:923:29
	subs	r1, #1
	.loc	10 923 13                       @ lvgl/src/lv_widgets/lv_canvas.c:923:13
	strh.w	r1, [sp, #456]
	.loc	10 924 13 is_stmt 1             @ lvgl/src/lv_widgets/lv_canvas.c:924:13
	strh.w	r0, [sp, #454]
	.loc	10 925 15                       @ lvgl/src/lv_widgets/lv_canvas.c:925:15
	ldr	r0, [sp, #460]
	.loc	10 925 27 is_stmt 0             @ lvgl/src/lv_widgets/lv_canvas.c:925:27
	ldrb	r1, [r0, #3]
	ldrh.w	r0, [r0, #1]
	orr.w	r1, r0, r1, lsl #16
	mov.w	r0, #-1
	.loc	10 925 29                       @ lvgl/src/lv_widgets/lv_canvas.c:925:29
	add.w	r0, r0, r1, lsr #13
	.loc	10 925 13                       @ lvgl/src/lv_widgets/lv_canvas.c:925:13
	strh.w	r0, [sp, #458]
	add	r0, sp, #64
	str	r0, [sp, #12]                   @ 4-byte Spill
	mov.w	r1, #388
	.loc	10 928 5 is_stmt 1              @ lvgl/src/lv_widgets/lv_canvas.c:928:5
	bl	_lv_memset_00
	ldr	r2, [sp, #4]                    @ 4-byte Reload
	.loc	10 931 41                       @ lvgl/src/lv_widgets/lv_canvas.c:931:41
	ldr	r0, [sp, #460]
	.loc	10 931 46 is_stmt 0             @ lvgl/src/lv_widgets/lv_canvas.c:931:46
	ldr	r1, [r0, #8]
	.loc	10 931 70                       @ lvgl/src/lv_widgets/lv_canvas.c:931:70
	ldrb	r3, [r0, #3]
	ldrh.w	r0, [r0, #1]
	orr.w	r3, r0, r3, lsl #16
	ubfx	r0, r3, #2, #11
	.loc	10 931 86                       @ lvgl/src/lv_widgets/lv_canvas.c:931:86
	lsrs	r3, r3, #13
	.loc	10 931 72                       @ lvgl/src/lv_widgets/lv_canvas.c:931:72
	muls	r3, r0, r3
	add	r0, sp, #28
	.loc	10 931 5                        @ lvgl/src/lv_widgets/lv_canvas.c:931:5
	str	r0, [sp, #8]                    @ 4-byte Spill
	bl	lv_disp_buf_init
	ldr	r0, [sp, #8]                    @ 4-byte Reload
	.loc	10 932 28 is_stmt 1             @ lvgl/src/lv_widgets/lv_canvas.c:932:28
	adds	r0, #16
	add	r1, sp, #452
	.loc	10 932 5 is_stmt 0              @ lvgl/src/lv_widgets/lv_canvas.c:932:5
	bl	lv_area_copy
	ldr	r0, [sp, #12]                   @ 4-byte Reload
	.loc	10 934 5 is_stmt 1              @ lvgl/src/lv_widgets/lv_canvas.c:934:5
	bl	lv_disp_drv_init
	ldr	r1, [sp, #8]                    @ 4-byte Reload
	ldr	r0, [sp, #12]                   @ 4-byte Reload
	.loc	10 936 25                       @ lvgl/src/lv_widgets/lv_canvas.c:936:25
	str	r1, [sp, #68]
	.loc	10 937 27                       @ lvgl/src/lv_widgets/lv_canvas.c:937:27
	ldr	r1, [sp, #460]
	.loc	10 937 39 is_stmt 0             @ lvgl/src/lv_widgets/lv_canvas.c:937:39
	ldrh.w	r1, [r1, #1]
	.loc	10 937 27                       @ lvgl/src/lv_widgets/lv_canvas.c:937:27
	ubfx	r1, r1, #2, #11
	.loc	10 937 25                       @ lvgl/src/lv_widgets/lv_canvas.c:937:25
	strh.w	r1, [sp, #64]
	.loc	10 938 27 is_stmt 1             @ lvgl/src/lv_widgets/lv_canvas.c:938:27
	ldr	r1, [sp, #460]
	.loc	10 938 39 is_stmt 0             @ lvgl/src/lv_widgets/lv_canvas.c:938:39
	ldrb	r2, [r1, #3]
	ldrh.w	r1, [r1, #1]
	orr.w	r1, r1, r2, lsl #16
	lsrs	r1, r1, #13
	.loc	10 938 25                       @ lvgl/src/lv_widgets/lv_canvas.c:938:25
	strh.w	r1, [sp, #66]
	.loc	10 940 33 is_stmt 1             @ lvgl/src/lv_widgets/lv_canvas.c:940:33
	ldr	r1, [sp, #460]
	.loc	10 940 45 is_stmt 0             @ lvgl/src/lv_widgets/lv_canvas.c:940:45
	ldrb	r1, [r1]
	and	r1, r1, #31
	.loc	10 940 5                        @ lvgl/src/lv_widgets/lv_canvas.c:940:5
	bl	set_set_px_cb
	.loc	10 944 16 is_stmt 1             @ lvgl/src/lv_widgets/lv_canvas.c:944:16
	movw	r0, :lower16:.L__const.lv_canvas_draw_line.ctransp
	movt	r0, :upper16:.L__const.lv_canvas_draw_line.ctransp
	ldr	r0, [r0]
	str	r0, [sp, #24]
.Ltmp465:
	.loc	10 945 8                        @ lvgl/src/lv_widgets/lv_canvas.c:945:8
	ldr	r0, [sp, #460]
	.loc	10 945 20 is_stmt 0             @ lvgl/src/lv_widgets/lv_canvas.c:945:20
	ldrb	r0, [r0]
	and	r0, r0, #31
	.loc	10 945 60                       @ lvgl/src/lv_widgets/lv_canvas.c:945:60
	cmp	r0, #6
	bne	.LBB20_11
	b	.LBB20_9
.LBB20_9:
	.loc	10 946 8 is_stmt 1              @ lvgl/src/lv_widgets/lv_canvas.c:946:8
	ldr	r0, [sp, #464]
	.loc	10 946 29 is_stmt 0             @ lvgl/src/lv_widgets/lv_canvas.c:946:29
	ldr	r0, [r0]
	.loc	10 946 45                       @ lvgl/src/lv_widgets/lv_canvas.c:946:45
	ldr	r1, [sp, #24]
.Ltmp466:
	.loc	10 945 8 is_stmt 1              @ lvgl/src/lv_widgets/lv_canvas.c:945:8
	cmp	r0, r1
	bne	.LBB20_11
	b	.LBB20_10
.LBB20_10:
.Ltmp467:
	.loc	10 947 34                       @ lvgl/src/lv_widgets/lv_canvas.c:947:34
	ldrh.w	r0, [sp, #72]
	bic	r0, r0, #1
	strh.w	r0, [sp, #72]
	.loc	10 948 5                        @ lvgl/src/lv_widgets/lv_canvas.c:948:5
	b	.LBB20_11
.Ltmp468:
.LBB20_11:
	.loc	10 951 28                       @ lvgl/src/lv_widgets/lv_canvas.c:951:28
	bl	_lv_refr_get_disp_refreshing
	.loc	10 951 17 is_stmt 0             @ lvgl/src/lv_widgets/lv_canvas.c:951:17
	str	r0, [sp, #20]
	add	r0, sp, #64
	.loc	10 952 5 is_stmt 1              @ lvgl/src/lv_widgets/lv_canvas.c:952:5
	bl	_lv_refr_set_disp_refreshing
	movs	r0, #0
.Ltmp469:
	.loc	10 955 11                       @ lvgl/src/lv_widgets/lv_canvas.c:955:11
	str	r0, [sp, #16]
	.loc	10 955 9 is_stmt 0              @ lvgl/src/lv_widgets/lv_canvas.c:955:9
	b	.LBB20_12
.LBB20_12:                              @ =>This Inner Loop Header: Depth=1
.Ltmp470:
	.loc	10 955 16                       @ lvgl/src/lv_widgets/lv_canvas.c:955:16
	ldr	r0, [sp, #16]
	.loc	10 955 20                       @ lvgl/src/lv_widgets/lv_canvas.c:955:20
	ldr	r1, [sp, #468]
	.loc	10 955 30                       @ lvgl/src/lv_widgets/lv_canvas.c:955:30
	subs	r1, #1
.Ltmp471:
	.loc	10 955 5                        @ lvgl/src/lv_widgets/lv_canvas.c:955:5
	cmp	r0, r1
	bhs	.LBB20_15
	b	.LBB20_13
.LBB20_13:                              @   in Loop: Header=BB20_12 Depth=1
.Ltmp472:
	.loc	10 956 23 is_stmt 1             @ lvgl/src/lv_widgets/lv_canvas.c:956:23
	ldr	r0, [sp, #472]
	.loc	10 956 30 is_stmt 0             @ lvgl/src/lv_widgets/lv_canvas.c:956:30
	ldr	r1, [sp, #16]
	.loc	10 956 23                       @ lvgl/src/lv_widgets/lv_canvas.c:956:23
	add.w	r0, r0, r1, lsl #2
	.loc	10 956 35                       @ lvgl/src/lv_widgets/lv_canvas.c:956:35
	adds	r1, r0, #4
	.loc	10 956 57                       @ lvgl/src/lv_widgets/lv_canvas.c:956:57
	ldr	r3, [sp, #464]
	add	r2, sp, #452
	.loc	10 956 9                        @ lvgl/src/lv_widgets/lv_canvas.c:956:9
	bl	lv_draw_line
	.loc	10 957 5 is_stmt 1              @ lvgl/src/lv_widgets/lv_canvas.c:957:5
	b	.LBB20_14
.Ltmp473:
.LBB20_14:                              @   in Loop: Header=BB20_12 Depth=1
	.loc	10 955 36                       @ lvgl/src/lv_widgets/lv_canvas.c:955:36
	ldr	r0, [sp, #16]
	adds	r0, #1
	str	r0, [sp, #16]
	.loc	10 955 5 is_stmt 0              @ lvgl/src/lv_widgets/lv_canvas.c:955:5
	b	.LBB20_12
.Ltmp474:
.LBB20_15:
	.loc	10 959 34 is_stmt 1             @ lvgl/src/lv_widgets/lv_canvas.c:959:34
	ldr	r0, [sp, #20]
	.loc	10 959 5 is_stmt 0              @ lvgl/src/lv_widgets/lv_canvas.c:959:5
	bl	_lv_refr_set_disp_refreshing
	.loc	10 961 23 is_stmt 1             @ lvgl/src/lv_widgets/lv_canvas.c:961:23
	ldr	r0, [sp, #476]
	.loc	10 961 5 is_stmt 0              @ lvgl/src/lv_widgets/lv_canvas.c:961:5
	bl	lv_obj_invalidate
	.loc	10 962 1 is_stmt 1              @ lvgl/src/lv_widgets/lv_canvas.c:962:1
	b	.LBB20_16
.LBB20_16:
	add	sp, #480
	pop	{r7, pc}
.Ltmp475:
.Lfunc_end20:
	.size	lv_canvas_draw_line, .Lfunc_end20-lv_canvas_draw_line
	.cfi_endproc
	.cantunwind
	.fnend
                                        @ -- End function
	.section	.text.lv_canvas_draw_polygon,"ax",%progbits
	.hidden	lv_canvas_draw_polygon          @ -- Begin function lv_canvas_draw_polygon
	.globl	lv_canvas_draw_polygon
	.p2align	3
	.type	lv_canvas_draw_polygon,%function
	.code	16                              @ @lv_canvas_draw_polygon
	.thumb_func
lv_canvas_draw_polygon:
.Lfunc_begin21:
	.loc	10 973 0                        @ lvgl/src/lv_widgets/lv_canvas.c:973:0
	.fnstart
	.cfi_startproc
@ %bb.0:
	.save	{r7, lr}
	push	{r7, lr}
	.cfi_def_cfa_offset 8
	.cfi_offset lr, -4
	.cfi_offset r7, -8
	.pad	#472
	sub	sp, #472
	.cfi_def_cfa_offset 480
	str	r0, [sp, #468]
	str	r1, [sp, #464]
	str	r2, [sp, #460]
	str	r3, [sp, #456]
.Ltmp476:
	.loc	10 974 5 prologue_end           @ lvgl/src/lv_widgets/lv_canvas.c:974:5
	b	.LBB21_1
.LBB21_1:
.Ltmp477:
	.loc	10 974 5 is_stmt 0              @ lvgl/src/lv_widgets/lv_canvas.c:974:5
	ldr	r0, [sp, #468]
	bl	lv_debug_check_null
.Ltmp478:
	.loc	10 974 5                        @ lvgl/src/lv_widgets/lv_canvas.c:974:5
	cbnz	r0, .LBB21_4
	b	.LBB21_2
.LBB21_2:
.Ltmp479:
	.loc	10 974 5                        @ lvgl/src/lv_widgets/lv_canvas.c:974:5
	ldr	r2, [sp, #468]
	movw	r0, :lower16:.L.str.1
	movt	r0, :upper16:.L.str.1
	movs	r3, #0
	bl	lv_debug_log_error
	b	.LBB21_3
.LBB21_3:                               @ =>This Inner Loop Header: Depth=1
	b	.LBB21_3
.Ltmp480:
.LBB21_4:
	.loc	10 974 5                        @ lvgl/src/lv_widgets/lv_canvas.c:974:5
	b	.LBB21_5
.Ltmp481:
.LBB21_5:
	.loc	10 976 44 is_stmt 1             @ lvgl/src/lv_widgets/lv_canvas.c:976:44
	ldr	r0, [sp, #468]
	.loc	10 976 26 is_stmt 0             @ lvgl/src/lv_widgets/lv_canvas.c:976:26
	bl	lv_canvas_get_img
	.loc	10 976 20                       @ lvgl/src/lv_widgets/lv_canvas.c:976:20
	str	r0, [sp, #452]
.Ltmp482:
	.loc	10 978 8 is_stmt 1              @ lvgl/src/lv_widgets/lv_canvas.c:978:8
	ldr	r0, [sp, #452]
	.loc	10 978 20 is_stmt 0             @ lvgl/src/lv_widgets/lv_canvas.c:978:20
	ldrb	r0, [r0]
	and	r0, r0, #31
	.loc	10 978 49                       @ lvgl/src/lv_widgets/lv_canvas.c:978:49
	cmp	r0, #7
	blt	.LBB21_8
	b	.LBB21_6
.LBB21_6:
	.loc	10 978 52                       @ lvgl/src/lv_widgets/lv_canvas.c:978:52
	ldr	r0, [sp, #452]
	.loc	10 978 64                       @ lvgl/src/lv_widgets/lv_canvas.c:978:64
	ldrb	r0, [r0]
	and	r0, r0, #31
.Ltmp483:
	.loc	10 978 8                        @ lvgl/src/lv_widgets/lv_canvas.c:978:8
	cmp	r0, #10
	bgt	.LBB21_8
	b	.LBB21_7
.LBB21_7:
.Ltmp484:
	.loc	10 980 9 is_stmt 1              @ lvgl/src/lv_widgets/lv_canvas.c:980:9
	b	.LBB21_12
.Ltmp485:
.LBB21_8:
	.loc	10 0 9 is_stmt 0                @ lvgl/src/lv_widgets/lv_canvas.c:0:9
	movs	r0, #0
	.loc	10 986 13 is_stmt 1             @ lvgl/src/lv_widgets/lv_canvas.c:986:13
	str	r0, [sp]                        @ 4-byte Spill
	strh.w	r0, [sp, #444]
	.loc	10 987 15                       @ lvgl/src/lv_widgets/lv_canvas.c:987:15
	ldr	r1, [sp, #452]
	.loc	10 987 27 is_stmt 0             @ lvgl/src/lv_widgets/lv_canvas.c:987:27
	ldrh.w	r1, [r1, #1]
	ubfx	r1, r1, #2, #11
	.loc	10 987 29                       @ lvgl/src/lv_widgets/lv_canvas.c:987:29
	subs	r1, #1
	.loc	10 987 13                       @ lvgl/src/lv_widgets/lv_canvas.c:987:13
	strh.w	r1, [sp, #448]
	.loc	10 988 13 is_stmt 1             @ lvgl/src/lv_widgets/lv_canvas.c:988:13
	strh.w	r0, [sp, #446]
	.loc	10 989 15                       @ lvgl/src/lv_widgets/lv_canvas.c:989:15
	ldr	r0, [sp, #452]
	.loc	10 989 27 is_stmt 0             @ lvgl/src/lv_widgets/lv_canvas.c:989:27
	ldrb	r1, [r0, #3]
	ldrh.w	r0, [r0, #1]
	orr.w	r1, r0, r1, lsl #16
	mov.w	r0, #-1
	.loc	10 989 29                       @ lvgl/src/lv_widgets/lv_canvas.c:989:29
	add.w	r0, r0, r1, lsr #13
	.loc	10 989 13                       @ lvgl/src/lv_widgets/lv_canvas.c:989:13
	strh.w	r0, [sp, #450]
	add	r0, sp, #56
	str	r0, [sp, #8]                    @ 4-byte Spill
	mov.w	r1, #388
	.loc	10 992 5 is_stmt 1              @ lvgl/src/lv_widgets/lv_canvas.c:992:5
	bl	_lv_memset_00
	ldr	r2, [sp]                        @ 4-byte Reload
	.loc	10 995 41                       @ lvgl/src/lv_widgets/lv_canvas.c:995:41
	ldr	r0, [sp, #452]
	.loc	10 995 46 is_stmt 0             @ lvgl/src/lv_widgets/lv_canvas.c:995:46
	ldr	r1, [r0, #8]
	.loc	10 995 70                       @ lvgl/src/lv_widgets/lv_canvas.c:995:70
	ldrb	r3, [r0, #3]
	ldrh.w	r0, [r0, #1]
	orr.w	r3, r0, r3, lsl #16
	ubfx	r0, r3, #2, #11
	.loc	10 995 86                       @ lvgl/src/lv_widgets/lv_canvas.c:995:86
	lsrs	r3, r3, #13
	.loc	10 995 72                       @ lvgl/src/lv_widgets/lv_canvas.c:995:72
	muls	r3, r0, r3
	add	r0, sp, #20
	.loc	10 995 5                        @ lvgl/src/lv_widgets/lv_canvas.c:995:5
	str	r0, [sp, #4]                    @ 4-byte Spill
	bl	lv_disp_buf_init
	ldr	r0, [sp, #4]                    @ 4-byte Reload
	.loc	10 996 28 is_stmt 1             @ lvgl/src/lv_widgets/lv_canvas.c:996:28
	adds	r0, #16
	add	r1, sp, #444
	.loc	10 996 5 is_stmt 0              @ lvgl/src/lv_widgets/lv_canvas.c:996:5
	bl	lv_area_copy
	ldr	r0, [sp, #8]                    @ 4-byte Reload
	.loc	10 998 5 is_stmt 1              @ lvgl/src/lv_widgets/lv_canvas.c:998:5
	bl	lv_disp_drv_init
	ldr	r1, [sp, #4]                    @ 4-byte Reload
	ldr	r0, [sp, #8]                    @ 4-byte Reload
	.loc	10 1000 25                      @ lvgl/src/lv_widgets/lv_canvas.c:1000:25
	str	r1, [sp, #60]
	.loc	10 1001 27                      @ lvgl/src/lv_widgets/lv_canvas.c:1001:27
	ldr	r1, [sp, #452]
	.loc	10 1001 39 is_stmt 0            @ lvgl/src/lv_widgets/lv_canvas.c:1001:39
	ldrh.w	r1, [r1, #1]
	.loc	10 1001 27                      @ lvgl/src/lv_widgets/lv_canvas.c:1001:27
	ubfx	r1, r1, #2, #11
	.loc	10 1001 25                      @ lvgl/src/lv_widgets/lv_canvas.c:1001:25
	strh.w	r1, [sp, #56]
	.loc	10 1002 27 is_stmt 1            @ lvgl/src/lv_widgets/lv_canvas.c:1002:27
	ldr	r1, [sp, #452]
	.loc	10 1002 39 is_stmt 0            @ lvgl/src/lv_widgets/lv_canvas.c:1002:39
	ldrb	r2, [r1, #3]
	ldrh.w	r1, [r1, #1]
	orr.w	r1, r1, r2, lsl #16
	lsrs	r1, r1, #13
	.loc	10 1002 25                      @ lvgl/src/lv_widgets/lv_canvas.c:1002:25
	strh.w	r1, [sp, #58]
	.loc	10 1004 33 is_stmt 1            @ lvgl/src/lv_widgets/lv_canvas.c:1004:33
	ldr	r1, [sp, #452]
	.loc	10 1004 45 is_stmt 0            @ lvgl/src/lv_widgets/lv_canvas.c:1004:45
	ldrb	r1, [r1]
	and	r1, r1, #31
	.loc	10 1004 5                       @ lvgl/src/lv_widgets/lv_canvas.c:1004:5
	bl	set_set_px_cb
	.loc	10 1008 16 is_stmt 1            @ lvgl/src/lv_widgets/lv_canvas.c:1008:16
	movw	r0, :lower16:.L__const.lv_canvas_draw_polygon.ctransp
	movt	r0, :upper16:.L__const.lv_canvas_draw_polygon.ctransp
	ldr	r0, [r0]
	str	r0, [sp, #16]
.Ltmp486:
	.loc	10 1009 8                       @ lvgl/src/lv_widgets/lv_canvas.c:1009:8
	ldr	r0, [sp, #452]
	.loc	10 1009 20 is_stmt 0            @ lvgl/src/lv_widgets/lv_canvas.c:1009:20
	ldrb	r0, [r0]
	and	r0, r0, #31
	.loc	10 1009 60                      @ lvgl/src/lv_widgets/lv_canvas.c:1009:60
	cmp	r0, #6
	bne	.LBB21_11
	b	.LBB21_9
.LBB21_9:
	.loc	10 1010 8 is_stmt 1             @ lvgl/src/lv_widgets/lv_canvas.c:1010:8
	ldr	r0, [sp, #456]
	.loc	10 1010 32 is_stmt 0            @ lvgl/src/lv_widgets/lv_canvas.c:1010:32
	ldr	r0, [r0, #4]
	.loc	10 1010 48                      @ lvgl/src/lv_widgets/lv_canvas.c:1010:48
	ldr	r1, [sp, #16]
.Ltmp487:
	.loc	10 1009 8 is_stmt 1             @ lvgl/src/lv_widgets/lv_canvas.c:1009:8
	cmp	r0, r1
	bne	.LBB21_11
	b	.LBB21_10
.LBB21_10:
.Ltmp488:
	.loc	10 1011 34                      @ lvgl/src/lv_widgets/lv_canvas.c:1011:34
	ldrh.w	r0, [sp, #64]
	bic	r0, r0, #1
	strh.w	r0, [sp, #64]
	.loc	10 1012 5                       @ lvgl/src/lv_widgets/lv_canvas.c:1012:5
	b	.LBB21_11
.Ltmp489:
.LBB21_11:
	.loc	10 1015 28                      @ lvgl/src/lv_widgets/lv_canvas.c:1015:28
	bl	_lv_refr_get_disp_refreshing
	.loc	10 1015 17 is_stmt 0            @ lvgl/src/lv_widgets/lv_canvas.c:1015:17
	str	r0, [sp, #12]
	add	r0, sp, #56
	.loc	10 1016 5 is_stmt 1             @ lvgl/src/lv_widgets/lv_canvas.c:1016:5
	bl	_lv_refr_set_disp_refreshing
	.loc	10 1018 21                      @ lvgl/src/lv_widgets/lv_canvas.c:1018:21
	ldr	r0, [sp, #464]
	.loc	10 1018 29 is_stmt 0            @ lvgl/src/lv_widgets/lv_canvas.c:1018:29
	ldrh.w	r1, [sp, #460]
	.loc	10 1018 47                      @ lvgl/src/lv_widgets/lv_canvas.c:1018:47
	ldr	r3, [sp, #456]
	add	r2, sp, #444
	.loc	10 1018 5                       @ lvgl/src/lv_widgets/lv_canvas.c:1018:5
	bl	lv_draw_polygon
	.loc	10 1020 34 is_stmt 1            @ lvgl/src/lv_widgets/lv_canvas.c:1020:34
	ldr	r0, [sp, #12]
	.loc	10 1020 5 is_stmt 0             @ lvgl/src/lv_widgets/lv_canvas.c:1020:5
	bl	_lv_refr_set_disp_refreshing
	.loc	10 1022 23 is_stmt 1            @ lvgl/src/lv_widgets/lv_canvas.c:1022:23
	ldr	r0, [sp, #468]
	.loc	10 1022 5 is_stmt 0             @ lvgl/src/lv_widgets/lv_canvas.c:1022:5
	bl	lv_obj_invalidate
	.loc	10 1023 1 is_stmt 1             @ lvgl/src/lv_widgets/lv_canvas.c:1023:1
	b	.LBB21_12
.LBB21_12:
	add	sp, #472
	pop	{r7, pc}
.Ltmp490:
.Lfunc_end21:
	.size	lv_canvas_draw_polygon, .Lfunc_end21-lv_canvas_draw_polygon
	.cfi_endproc
	.cantunwind
	.fnend
                                        @ -- End function
	.section	.text.lv_canvas_draw_arc,"ax",%progbits
	.hidden	lv_canvas_draw_arc              @ -- Begin function lv_canvas_draw_arc
	.globl	lv_canvas_draw_arc
	.p2align	3
	.type	lv_canvas_draw_arc,%function
	.code	16                              @ @lv_canvas_draw_arc
	.thumb_func
lv_canvas_draw_arc:
.Lfunc_begin22:
	.loc	10 1037 0                       @ lvgl/src/lv_widgets/lv_canvas.c:1037:0
	.fnstart
	.cfi_startproc
@ %bb.0:
	.save	{r4, lr}
	push	{r4, lr}
	.cfi_def_cfa_offset 8
	.cfi_offset lr, -4
	.cfi_offset r4, -8
	.pad	#480
	sub	sp, #480
	.cfi_def_cfa_offset 488
	ldr.w	r12, [sp, #496]
	ldr.w	r12, [sp, #492]
	ldr.w	r12, [sp, #488]
                                        @ kill: def $r12 killed $r3
                                        @ kill: def $r12 killed $r2
                                        @ kill: def $r12 killed $r1
	str	r0, [sp, #476]
	strh.w	r1, [sp, #474]
	strh.w	r2, [sp, #472]
	strh.w	r3, [sp, #470]
.Ltmp491:
	.loc	10 1038 5 prologue_end          @ lvgl/src/lv_widgets/lv_canvas.c:1038:5
	b	.LBB22_1
.LBB22_1:
.Ltmp492:
	.loc	10 1038 5 is_stmt 0             @ lvgl/src/lv_widgets/lv_canvas.c:1038:5
	ldr	r0, [sp, #476]
	bl	lv_debug_check_null
.Ltmp493:
	.loc	10 1038 5                       @ lvgl/src/lv_widgets/lv_canvas.c:1038:5
	cbnz	r0, .LBB22_4
	b	.LBB22_2
.LBB22_2:
.Ltmp494:
	.loc	10 1038 5                       @ lvgl/src/lv_widgets/lv_canvas.c:1038:5
	ldr	r2, [sp, #476]
	movw	r0, :lower16:.L.str.1
	movt	r0, :upper16:.L.str.1
	movs	r3, #0
	bl	lv_debug_log_error
	b	.LBB22_3
.LBB22_3:                               @ =>This Inner Loop Header: Depth=1
	b	.LBB22_3
.Ltmp495:
.LBB22_4:
	.loc	10 1038 5                       @ lvgl/src/lv_widgets/lv_canvas.c:1038:5
	b	.LBB22_5
.Ltmp496:
.LBB22_5:
	.loc	10 1040 44 is_stmt 1            @ lvgl/src/lv_widgets/lv_canvas.c:1040:44
	ldr	r0, [sp, #476]
	.loc	10 1040 26 is_stmt 0            @ lvgl/src/lv_widgets/lv_canvas.c:1040:26
	bl	lv_canvas_get_img
	.loc	10 1040 20                      @ lvgl/src/lv_widgets/lv_canvas.c:1040:20
	str	r0, [sp, #464]
.Ltmp497:
	.loc	10 1042 8 is_stmt 1             @ lvgl/src/lv_widgets/lv_canvas.c:1042:8
	ldr	r0, [sp, #464]
	.loc	10 1042 20 is_stmt 0            @ lvgl/src/lv_widgets/lv_canvas.c:1042:20
	ldrb	r0, [r0]
	and	r0, r0, #31
	.loc	10 1042 49                      @ lvgl/src/lv_widgets/lv_canvas.c:1042:49
	cmp	r0, #7
	blt	.LBB22_8
	b	.LBB22_6
.LBB22_6:
	.loc	10 1042 52                      @ lvgl/src/lv_widgets/lv_canvas.c:1042:52
	ldr	r0, [sp, #464]
	.loc	10 1042 64                      @ lvgl/src/lv_widgets/lv_canvas.c:1042:64
	ldrb	r0, [r0]
	and	r0, r0, #31
.Ltmp498:
	.loc	10 1042 8                       @ lvgl/src/lv_widgets/lv_canvas.c:1042:8
	cmp	r0, #10
	bgt	.LBB22_8
	b	.LBB22_7
.LBB22_7:
.Ltmp499:
	.loc	10 1044 9 is_stmt 1             @ lvgl/src/lv_widgets/lv_canvas.c:1044:9
	b	.LBB22_12
.Ltmp500:
.LBB22_8:
	.loc	10 0 9 is_stmt 0                @ lvgl/src/lv_widgets/lv_canvas.c:0:9
	movs	r0, #0
	.loc	10 1050 13 is_stmt 1            @ lvgl/src/lv_widgets/lv_canvas.c:1050:13
	str	r0, [sp, #12]                   @ 4-byte Spill
	strh.w	r0, [sp, #456]
	.loc	10 1051 15                      @ lvgl/src/lv_widgets/lv_canvas.c:1051:15
	ldr	r1, [sp, #464]
	.loc	10 1051 27 is_stmt 0            @ lvgl/src/lv_widgets/lv_canvas.c:1051:27
	ldrh.w	r1, [r1, #1]
	ubfx	r1, r1, #2, #11
	.loc	10 1051 29                      @ lvgl/src/lv_widgets/lv_canvas.c:1051:29
	subs	r1, #1
	.loc	10 1051 13                      @ lvgl/src/lv_widgets/lv_canvas.c:1051:13
	strh.w	r1, [sp, #460]
	.loc	10 1052 13 is_stmt 1            @ lvgl/src/lv_widgets/lv_canvas.c:1052:13
	strh.w	r0, [sp, #458]
	.loc	10 1053 15                      @ lvgl/src/lv_widgets/lv_canvas.c:1053:15
	ldr	r0, [sp, #464]
	.loc	10 1053 27 is_stmt 0            @ lvgl/src/lv_widgets/lv_canvas.c:1053:27
	ldrb	r1, [r0, #3]
	ldrh.w	r0, [r0, #1]
	orr.w	r1, r0, r1, lsl #16
	mov.w	r0, #-1
	.loc	10 1053 29                      @ lvgl/src/lv_widgets/lv_canvas.c:1053:29
	add.w	r0, r0, r1, lsr #13
	.loc	10 1053 13                      @ lvgl/src/lv_widgets/lv_canvas.c:1053:13
	strh.w	r0, [sp, #462]
	add	r0, sp, #68
	str	r0, [sp, #20]                   @ 4-byte Spill
	mov.w	r1, #388
	.loc	10 1056 5 is_stmt 1             @ lvgl/src/lv_widgets/lv_canvas.c:1056:5
	bl	_lv_memset_00
	ldr	r2, [sp, #12]                   @ 4-byte Reload
	.loc	10 1059 41                      @ lvgl/src/lv_widgets/lv_canvas.c:1059:41
	ldr	r0, [sp, #464]
	.loc	10 1059 46 is_stmt 0            @ lvgl/src/lv_widgets/lv_canvas.c:1059:46
	ldr	r1, [r0, #8]
	.loc	10 1059 70                      @ lvgl/src/lv_widgets/lv_canvas.c:1059:70
	ldrb	r3, [r0, #3]
	ldrh.w	r0, [r0, #1]
	orr.w	r3, r0, r3, lsl #16
	ubfx	r0, r3, #2, #11
	.loc	10 1059 86                      @ lvgl/src/lv_widgets/lv_canvas.c:1059:86
	lsrs	r3, r3, #13
	.loc	10 1059 72                      @ lvgl/src/lv_widgets/lv_canvas.c:1059:72
	muls	r3, r0, r3
	add	r0, sp, #32
	.loc	10 1059 5                       @ lvgl/src/lv_widgets/lv_canvas.c:1059:5
	str	r0, [sp, #16]                   @ 4-byte Spill
	bl	lv_disp_buf_init
	ldr	r0, [sp, #16]                   @ 4-byte Reload
	.loc	10 1060 28 is_stmt 1            @ lvgl/src/lv_widgets/lv_canvas.c:1060:28
	adds	r0, #16
	add	r1, sp, #456
	.loc	10 1060 5 is_stmt 0             @ lvgl/src/lv_widgets/lv_canvas.c:1060:5
	bl	lv_area_copy
