	.text
	.syntax unified
	.eabi_attribute	67, "2.09"	@ Tag_conformance
	.cpu	cortex-m7
	.eabi_attribute	6, 13	@ Tag_CPU_arch
	.eabi_attribute	7, 77	@ Tag_CPU_arch_profile
	.eabi_attribute	8, 0	@ Tag_ARM_ISA_use
	.eabi_attribute	9, 2	@ Tag_THUMB_ISA_use
	.fpu	fpv5-d16
	.eabi_attribute	36, 1	@ Tag_FP_HP_extension
	.eabi_attribute	34, 1	@ Tag_CPU_unaligned_access
	.eabi_attribute	17, 1	@ Tag_ABI_PCS_GOT_use
	.eabi_attribute	20, 2	@ Tag_ABI_FP_denormal
	.eabi_attribute	21, 0	@ Tag_ABI_FP_exceptions
	.eabi_attribute	23, 1	@ Tag_ABI_FP_number_model
	.eabi_attribute	24, 1	@ Tag_ABI_align_needed
	.eabi_attribute	25, 1	@ Tag_ABI_align_preserved
	.eabi_attribute	28, 1	@ Tag_ABI_VFP_args
	.eabi_attribute	38, 1	@ Tag_ABI_FP_16bit_format
	.eabi_attribute	18, 2	@ Tag_ABI_PCS_wchar_t
	.eabi_attribute	26, 1	@ Tag_ABI_enum_size
	.eabi_attribute	14, 0	@ Tag_ABI_PCS_R9_use
	.file	"lv_cont.c"
	.file	1 "D:\\Keil_v5\\ARM\\ARMCLANG\\Bin\\..\\include" "stdint.h"
	.file	2 "E:\\Smart-access-control\\Hardware\\CODE" "lvgl/src/lv_widgets/../lv_themes/../lv_core/lv_obj.h"
	.file	3 "E:\\Smart-access-control\\Hardware\\CODE" "lvgl/src/lv_widgets/../lv_core/../lv_font/../lv_misc/lv_ll.h"
	.file	4 "E:\\Smart-access-control\\Hardware\\CODE" "./lvgl/src/lv_conf.h"
	.file	5 "E:\\Smart-access-control\\Hardware\\CODE" "lvgl/src/lv_widgets/../lv_misc/lv_area.h"
	.file	6 "E:\\Smart-access-control\\Hardware\\CODE" "lvgl/src/lv_widgets/../lv_core/../lv_draw/../lv_misc/lv_types.h"
	.file	7 "E:\\Smart-access-control\\Hardware\\CODE" "lvgl/src/lv_widgets/../lv_themes/../lv_core/lv_style.h"
	.file	8 "E:\\Smart-access-control\\Hardware\\CODE" "lvgl/src/lv_widgets/../lv_core/../lv_hal/lv_hal_indev.h"
	.file	9 "E:\\Smart-access-control\\Hardware\\CODE" "lvgl/src/lv_widgets/../lv_core/../lv_draw/../lv_misc/lv_bidi.h"
	.file	10 "E:\\Smart-access-control\\Hardware\\CODE" "lvgl/src/lv_widgets/lv_cont.c"
	.file	11 "E:\\Smart-access-control\\Hardware\\CODE" "lvgl/src/lv_widgets/lv_cont.h"
	.file	12 "E:\\Smart-access-control\\Hardware\\CODE" "lvgl/src/lv_widgets/../lv_themes/lv_theme.h"
	.section	.text.lv_cont_create,"ax",%progbits
	.hidden	lv_cont_create                  @ -- Begin function lv_cont_create
	.globl	lv_cont_create
	.p2align	3
	.type	lv_cont_create,%function
	.code	16                              @ @lv_cont_create
	.thumb_func
lv_cont_create:
.Lfunc_begin0:
	.loc	10 72 0                         @ lvgl/src/lv_widgets/lv_cont.c:72:0
	.fnstart
	.cfi_sections .debug_frame
	.cfi_startproc
@ %bb.0:
	.save	{r7, lr}
	push	{r7, lr}
	.cfi_def_cfa_offset 8
	.cfi_offset lr, -4
	.cfi_offset r7, -8
	.pad	#24
	sub	sp, #24
	.cfi_def_cfa_offset 32
	str	r0, [sp, #16]
	str	r1, [sp, #12]
.Ltmp0:
	.loc	10 77 37 prologue_end           @ lvgl/src/lv_widgets/lv_cont.c:77:37
	ldr	r0, [sp, #16]
	.loc	10 77 42 is_stmt 0              @ lvgl/src/lv_widgets/lv_cont.c:77:42
	ldr	r1, [sp, #12]
	.loc	10 77 23                        @ lvgl/src/lv_widgets/lv_cont.c:77:23
	bl	lv_obj_create
	.loc	10 77 16                        @ lvgl/src/lv_widgets/lv_cont.c:77:16
	str	r0, [sp, #8]
	.loc	10 78 5 is_stmt 1               @ lvgl/src/lv_widgets/lv_cont.c:78:5
	b	.LBB0_1
.LBB0_1:
.Ltmp1:
	.loc	10 78 5 is_stmt 0               @ lvgl/src/lv_widgets/lv_cont.c:78:5
	ldr	r0, [sp, #8]
	bl	lv_debug_check_null
.Ltmp2:
	.loc	10 78 5                         @ lvgl/src/lv_widgets/lv_cont.c:78:5
	cbnz	r0, .LBB0_4
	b	.LBB0_2
.LBB0_2:
.Ltmp3:
	.loc	10 78 5                         @ lvgl/src/lv_widgets/lv_cont.c:78:5
	ldr	r2, [sp, #8]
	movw	r0, :lower16:.L.str
	movt	r0, :upper16:.L.str
	movs	r3, #0
	bl	lv_debug_log_error
	b	.LBB0_3
.LBB0_3:                                @ =>This Inner Loop Header: Depth=1
	b	.LBB0_3
.Ltmp4:
.LBB0_4:
	.loc	10 78 5                         @ lvgl/src/lv_widgets/lv_cont.c:78:5
	b	.LBB0_5
.Ltmp5:
.LBB0_5:
	.loc	10 79 8 is_stmt 1               @ lvgl/src/lv_widgets/lv_cont.c:79:8
	ldr	r0, [sp, #8]
.Ltmp6:
	.loc	10 79 8 is_stmt 0               @ lvgl/src/lv_widgets/lv_cont.c:79:8
	cbnz	r0, .LBB0_7
	b	.LBB0_6
.LBB0_6:
	.loc	10 0 8                          @ lvgl/src/lv_widgets/lv_cont.c:0:8
	movs	r0, #0
.Ltmp7:
	.loc	10 79 22                        @ lvgl/src/lv_widgets/lv_cont.c:79:22
	str	r0, [sp, #20]
	b	.LBB0_24
.Ltmp8:
.LBB0_7:
	.loc	10 81 8 is_stmt 1               @ lvgl/src/lv_widgets/lv_cont.c:81:8
	movw	r0, :lower16:ancestor_signal
	movt	r0, :upper16:ancestor_signal
	ldr	r0, [r0]
.Ltmp9:
	.loc	10 81 8 is_stmt 0               @ lvgl/src/lv_widgets/lv_cont.c:81:8
	cbnz	r0, .LBB0_9
	b	.LBB0_8
.LBB0_8:
.Ltmp10:
	.loc	10 81 72                        @ lvgl/src/lv_widgets/lv_cont.c:81:72
	ldr	r0, [sp, #8]
	.loc	10 81 51                        @ lvgl/src/lv_widgets/lv_cont.c:81:51
	bl	lv_obj_get_signal_cb
	.loc	10 81 49                        @ lvgl/src/lv_widgets/lv_cont.c:81:49
	movw	r1, :lower16:ancestor_signal
	movt	r1, :upper16:ancestor_signal
	str	r0, [r1]
	.loc	10 81 33                        @ lvgl/src/lv_widgets/lv_cont.c:81:33
	b	.LBB0_9
.Ltmp11:
.LBB0_9:
	.loc	10 82 8 is_stmt 1               @ lvgl/src/lv_widgets/lv_cont.c:82:8
	movw	r0, :lower16:ancestor_design
	movt	r0, :upper16:ancestor_design
	ldr	r0, [r0]
.Ltmp12:
	.loc	10 82 8 is_stmt 0               @ lvgl/src/lv_widgets/lv_cont.c:82:8
	cbnz	r0, .LBB0_11
	b	.LBB0_10
.LBB0_10:
.Ltmp13:
	.loc	10 82 72                        @ lvgl/src/lv_widgets/lv_cont.c:82:72
	ldr	r0, [sp, #8]
	.loc	10 82 51                        @ lvgl/src/lv_widgets/lv_cont.c:82:51
	bl	lv_obj_get_design_cb
	.loc	10 82 49                        @ lvgl/src/lv_widgets/lv_cont.c:82:49
	movw	r1, :lower16:ancestor_design
	movt	r1, :upper16:ancestor_design
	str	r0, [r1]
	.loc	10 82 33                        @ lvgl/src/lv_widgets/lv_cont.c:82:33
	b	.LBB0_11
.Ltmp14:
.LBB0_11:
	.loc	10 84 30 is_stmt 1              @ lvgl/src/lv_widgets/lv_cont.c:84:30
	ldr	r0, [sp, #8]
	movs	r1, #2
	.loc	10 84 5 is_stmt 0               @ lvgl/src/lv_widgets/lv_cont.c:84:5
	bl	lv_obj_allocate_ext_attr
	.loc	10 85 47 is_stmt 1              @ lvgl/src/lv_widgets/lv_cont.c:85:47
	ldr	r0, [sp, #8]
	.loc	10 85 27 is_stmt 0              @ lvgl/src/lv_widgets/lv_cont.c:85:27
	bl	lv_obj_get_ext_attr
	.loc	10 85 21                        @ lvgl/src/lv_widgets/lv_cont.c:85:21
	str	r0, [sp, #4]
.Ltmp15:
	.loc	10 86 8 is_stmt 1               @ lvgl/src/lv_widgets/lv_cont.c:86:8
	ldr	r0, [sp, #4]
.Ltmp16:
	.loc	10 86 8 is_stmt 0               @ lvgl/src/lv_widgets/lv_cont.c:86:8
	cbnz	r0, .LBB0_13
	b	.LBB0_12
.LBB0_12:
.Ltmp17:
	.loc	10 87 20 is_stmt 1              @ lvgl/src/lv_widgets/lv_cont.c:87:20
	ldr	r0, [sp, #8]
	.loc	10 87 9 is_stmt 0               @ lvgl/src/lv_widgets/lv_cont.c:87:9
	bl	lv_obj_del
	movs	r0, #0
	.loc	10 88 9 is_stmt 1               @ lvgl/src/lv_widgets/lv_cont.c:88:9
	str	r0, [sp, #20]
	b	.LBB0_24
.Ltmp18:
.LBB0_13:
	.loc	10 91 5                         @ lvgl/src/lv_widgets/lv_cont.c:91:5
	b	.LBB0_14
.LBB0_14:
.Ltmp19:
	.loc	10 91 5 is_stmt 0               @ lvgl/src/lv_widgets/lv_cont.c:91:5
	ldr	r0, [sp, #4]
	bl	lv_debug_check_null
.Ltmp20:
	.loc	10 91 5                         @ lvgl/src/lv_widgets/lv_cont.c:91:5
	cbnz	r0, .LBB0_17
	b	.LBB0_15
.LBB0_15:
.Ltmp21:
	.loc	10 91 5                         @ lvgl/src/lv_widgets/lv_cont.c:91:5
	ldr	r2, [sp, #4]
	movw	r0, :lower16:.L.str
	movt	r0, :upper16:.L.str
	movs	r3, #0
	bl	lv_debug_log_error
	b	.LBB0_16
.LBB0_16:                               @ =>This Inner Loop Header: Depth=1
	b	.LBB0_16
.Ltmp22:
.LBB0_17:
	.loc	10 91 5                         @ lvgl/src/lv_widgets/lv_cont.c:91:5
	b	.LBB0_18
.Ltmp23:
.LBB0_18:
	.loc	10 92 5 is_stmt 1               @ lvgl/src/lv_widgets/lv_cont.c:92:5
	ldr	r1, [sp, #4]
	.loc	10 92 21 is_stmt 0              @ lvgl/src/lv_widgets/lv_cont.c:92:21
	ldrb	r0, [r1]
	and	r0, r0, #207
	strb	r0, [r1]
	.loc	10 93 5 is_stmt 1               @ lvgl/src/lv_widgets/lv_cont.c:93:5
	ldr	r1, [sp, #4]
	.loc	10 93 21 is_stmt 0              @ lvgl/src/lv_widgets/lv_cont.c:93:21
	ldrb	r0, [r1]
	and	r0, r0, #63
	strb	r0, [r1]
	.loc	10 94 5 is_stmt 1               @ lvgl/src/lv_widgets/lv_cont.c:94:5
	ldr	r1, [sp, #4]
	.loc	10 94 21 is_stmt 0              @ lvgl/src/lv_widgets/lv_cont.c:94:21
	ldrb	r0, [r1, #1]
	and	r0, r0, #252
	strb	r0, [r1, #1]
	.loc	10 95 5 is_stmt 1               @ lvgl/src/lv_widgets/lv_cont.c:95:5
	ldr	r1, [sp, #4]
	.loc	10 95 21 is_stmt 0              @ lvgl/src/lv_widgets/lv_cont.c:95:21
	ldrb	r0, [r1, #1]
	and	r0, r0, #243
	strb	r0, [r1, #1]
	.loc	10 96 5 is_stmt 1               @ lvgl/src/lv_widgets/lv_cont.c:96:5
	ldr	r1, [sp, #4]
	.loc	10 96 21 is_stmt 0              @ lvgl/src/lv_widgets/lv_cont.c:96:21
	ldrb	r0, [r1]
	and	r0, r0, #240
	strb	r0, [r1]
	.loc	10 98 26 is_stmt 1              @ lvgl/src/lv_widgets/lv_cont.c:98:26
	ldr	r0, [sp, #8]
	.loc	10 98 5 is_stmt 0               @ lvgl/src/lv_widgets/lv_cont.c:98:5
	movw	r1, :lower16:lv_cont_signal
	movt	r1, :upper16:lv_cont_signal
	bl	lv_obj_set_signal_cb
.Ltmp24:
	.loc	10 101 8 is_stmt 1              @ lvgl/src/lv_widgets/lv_cont.c:101:8
	ldr	r0, [sp, #12]
.Ltmp25:
	.loc	10 101 8 is_stmt 0              @ lvgl/src/lv_widgets/lv_cont.c:101:8
	cbnz	r0, .LBB0_22
	b	.LBB0_19
.LBB0_19:
.Ltmp26:
	.loc	10 103 12 is_stmt 1             @ lvgl/src/lv_widgets/lv_cont.c:103:12
	ldr	r0, [sp, #16]
.Ltmp27:
	.loc	10 103 12 is_stmt 0             @ lvgl/src/lv_widgets/lv_cont.c:103:12
	cbz	r0, .LBB0_21
	b	.LBB0_20
.LBB0_20:
.Ltmp28:
	.loc	10 104 28 is_stmt 1             @ lvgl/src/lv_widgets/lv_cont.c:104:28
	ldr	r0, [sp, #8]
	movs	r1, #11
	.loc	10 104 13 is_stmt 0             @ lvgl/src/lv_widgets/lv_cont.c:104:13
	bl	lv_theme_apply
	.loc	10 105 9 is_stmt 1              @ lvgl/src/lv_widgets/lv_cont.c:105:9
	b	.LBB0_21
.Ltmp29:
.LBB0_21:
	.loc	10 107 5                        @ lvgl/src/lv_widgets/lv_cont.c:107:5
	b	.LBB0_23
.Ltmp30:
.LBB0_22:
	.loc	10 110 56                       @ lvgl/src/lv_widgets/lv_cont.c:110:56
	ldr	r0, [sp, #12]
	.loc	10 110 36 is_stmt 0             @ lvgl/src/lv_widgets/lv_cont.c:110:36
	bl	lv_obj_get_ext_attr
	.loc	10 110 25                       @ lvgl/src/lv_widgets/lv_cont.c:110:25
	str	r0, [sp]
	.loc	10 111 36 is_stmt 1             @ lvgl/src/lv_widgets/lv_cont.c:111:36
	ldr	r0, [sp]
	.loc	10 111 46 is_stmt 0             @ lvgl/src/lv_widgets/lv_cont.c:111:46
	ldrb	r2, [r0]
	.loc	10 111 9                        @ lvgl/src/lv_widgets/lv_cont.c:111:9
	ldr	r1, [sp, #4]
	.loc	10 111 34                       @ lvgl/src/lv_widgets/lv_cont.c:111:34
	ldrb	r0, [r1]
	and	r2, r2, #48
	and	r0, r0, #207
	add	r0, r2
	strb	r0, [r1]
	.loc	10 112 36 is_stmt 1             @ lvgl/src/lv_widgets/lv_cont.c:112:36
	ldr	r0, [sp]
	.loc	10 112 46 is_stmt 0             @ lvgl/src/lv_widgets/lv_cont.c:112:46
	ldrb	r0, [r0]
	and	r2, r0, #192
	.loc	10 112 9                        @ lvgl/src/lv_widgets/lv_cont.c:112:9
	ldr	r1, [sp, #4]
	.loc	10 112 34                       @ lvgl/src/lv_widgets/lv_cont.c:112:34
	ldrb	r0, [r1]
	and	r0, r0, #63
	add	r0, r2
	strb	r0, [r1]
	.loc	10 113 36 is_stmt 1             @ lvgl/src/lv_widgets/lv_cont.c:113:36
	ldr	r0, [sp]
	.loc	10 113 46 is_stmt 0             @ lvgl/src/lv_widgets/lv_cont.c:113:46
	ldrb	r0, [r0, #1]
	and	r2, r0, #3
	.loc	10 113 9                        @ lvgl/src/lv_widgets/lv_cont.c:113:9
	ldr	r1, [sp, #4]
	.loc	10 113 34                       @ lvgl/src/lv_widgets/lv_cont.c:113:34
	ldrb	r0, [r1, #1]
	and	r0, r0, #252
	add	r0, r2
	strb	r0, [r1, #1]
	.loc	10 114 36 is_stmt 1             @ lvgl/src/lv_widgets/lv_cont.c:114:36
	ldr	r0, [sp]
	.loc	10 114 46 is_stmt 0             @ lvgl/src/lv_widgets/lv_cont.c:114:46
	ldrb	r2, [r0, #1]
	.loc	10 114 9                        @ lvgl/src/lv_widgets/lv_cont.c:114:9
	ldr	r1, [sp, #4]
	.loc	10 114 34                       @ lvgl/src/lv_widgets/lv_cont.c:114:34
	ldrb	r0, [r1, #1]
	and	r2, r2, #12
	and	r0, r0, #243
	add	r0, r2
	strb	r0, [r1, #1]
	.loc	10 115 36 is_stmt 1             @ lvgl/src/lv_widgets/lv_cont.c:115:36
	ldr	r0, [sp]
	.loc	10 115 46 is_stmt 0             @ lvgl/src/lv_widgets/lv_cont.c:115:46
	ldrb	r0, [r0]
	and	r2, r0, #15
	.loc	10 115 9                        @ lvgl/src/lv_widgets/lv_cont.c:115:9
	ldr	r1, [sp, #4]
	.loc	10 115 34                       @ lvgl/src/lv_widgets/lv_cont.c:115:34
	ldrb	r0, [r1]
	and	r0, r0, #240
	add	r0, r2
	strb	r0, [r1]
	.loc	10 118 30 is_stmt 1             @ lvgl/src/lv_widgets/lv_cont.c:118:30
	ldr	r0, [sp, #8]
	movs	r2, #255
	.loc	10 118 9 is_stmt 0              @ lvgl/src/lv_widgets/lv_cont.c:118:9
	mov	r1, r2
	bl	lv_obj_refresh_style
	b	.LBB0_23
.Ltmp31:
.LBB0_23:
	.loc	10 123 12 is_stmt 1             @ lvgl/src/lv_widgets/lv_cont.c:123:12
	ldr	r0, [sp, #8]
	.loc	10 123 5 is_stmt 0              @ lvgl/src/lv_widgets/lv_cont.c:123:5
	str	r0, [sp, #20]
	b	.LBB0_24
.LBB0_24:
	.loc	10 124 1 is_stmt 1              @ lvgl/src/lv_widgets/lv_cont.c:124:1
	ldr	r0, [sp, #20]
	add	sp, #24
	pop	{r7, pc}
.Ltmp32:
.Lfunc_end0:
	.size	lv_cont_create, .Lfunc_end0-lv_cont_create
	.cfi_endproc
	.cantunwind
	.fnend
                                        @ -- End function
	.section	.text.lv_cont_signal,"ax",%progbits
	.p2align	3                               @ -- Begin function lv_cont_signal
	.type	lv_cont_signal,%function
	.code	16                              @ @lv_cont_signal
	.thumb_func
lv_cont_signal:
.Lfunc_begin1:
	.loc	10 257 0                        @ lvgl/src/lv_widgets/lv_cont.c:257:0
	.fnstart
	.cfi_startproc
@ %bb.0:
	.save	{r7, lr}
	push	{r7, lr}
	.cfi_def_cfa_offset 8
	.cfi_offset lr, -4
	.cfi_offset r7, -8
	.pad	#32
	sub	sp, #32
	.cfi_def_cfa_offset 40
                                        @ kill: def $r3 killed $r1
	str	r0, [sp, #24]
	strb.w	r1, [sp, #23]
	str	r2, [sp, #16]
.Ltmp33:
	.loc	10 258 8 prologue_end           @ lvgl/src/lv_widgets/lv_cont.c:258:8
	ldrb.w	r0, [sp, #23]
.Ltmp34:
	.loc	10 258 8 is_stmt 0              @ lvgl/src/lv_widgets/lv_cont.c:258:8
	cmp	r0, #8
	bne	.LBB1_4
	b	.LBB1_1
.LBB1_1:
.Ltmp35:
	.loc	10 259 38 is_stmt 1             @ lvgl/src/lv_widgets/lv_cont.c:259:38
	ldr	r0, [sp, #16]
	.loc	10 259 31 is_stmt 0             @ lvgl/src/lv_widgets/lv_cont.c:259:31
	str	r0, [sp, #12]
	.loc	10 260 42 is_stmt 1             @ lvgl/src/lv_widgets/lv_cont.c:260:42
	ldr	r0, [sp, #24]
	.loc	10 260 48 is_stmt 0             @ lvgl/src/lv_widgets/lv_cont.c:260:48
	ldr	r1, [sp, #12]
	.loc	10 260 54                       @ lvgl/src/lv_widgets/lv_cont.c:260:54
	ldrb	r1, [r1]
	.loc	10 260 24                       @ lvgl/src/lv_widgets/lv_cont.c:260:24
	bl	lv_cont_get_style
	.loc	10 260 9                        @ lvgl/src/lv_widgets/lv_cont.c:260:9
	ldr	r1, [sp, #12]
	.loc	10 260 22                       @ lvgl/src/lv_widgets/lv_cont.c:260:22
	str	r0, [r1, #4]
.Ltmp36:
	.loc	10 261 12 is_stmt 1             @ lvgl/src/lv_widgets/lv_cont.c:261:12
	ldr	r0, [sp, #12]
	.loc	10 261 18 is_stmt 0             @ lvgl/src/lv_widgets/lv_cont.c:261:18
	ldr	r0, [r0, #4]
.Ltmp37:
	.loc	10 261 12                       @ lvgl/src/lv_widgets/lv_cont.c:261:12
	cbz	r0, .LBB1_3
	b	.LBB1_2
.LBB1_2:
	.loc	10 0 12                         @ lvgl/src/lv_widgets/lv_cont.c:0:12
	movs	r0, #1
.Ltmp38:
	.loc	10 261 34                       @ lvgl/src/lv_widgets/lv_cont.c:261:34
	strb.w	r0, [sp, #31]
	b	.LBB1_23
.LBB1_3:
	.loc	10 262 21 is_stmt 1             @ lvgl/src/lv_widgets/lv_cont.c:262:21
	movw	r0, :lower16:ancestor_signal
	movt	r0, :upper16:ancestor_signal
	ldr	r3, [r0]
	.loc	10 262 37 is_stmt 0             @ lvgl/src/lv_widgets/lv_cont.c:262:37
	ldr	r0, [sp, #24]
	.loc	10 262 43                       @ lvgl/src/lv_widgets/lv_cont.c:262:43
	ldrb.w	r1, [sp, #23]
	.loc	10 262 49                       @ lvgl/src/lv_widgets/lv_cont.c:262:49
	ldr	r2, [sp, #16]
	.loc	10 262 21                       @ lvgl/src/lv_widgets/lv_cont.c:262:21
	blx	r3
	.loc	10 262 14                       @ lvgl/src/lv_widgets/lv_cont.c:262:14
	strb.w	r0, [sp, #31]
	b	.LBB1_23
.Ltmp39:
.LBB1_4:
	.loc	10 268 11 is_stmt 1             @ lvgl/src/lv_widgets/lv_cont.c:268:11
	movw	r0, :lower16:ancestor_signal
	movt	r0, :upper16:ancestor_signal
	ldr	r3, [r0]
	.loc	10 268 27 is_stmt 0             @ lvgl/src/lv_widgets/lv_cont.c:268:27
	ldr	r0, [sp, #24]
	.loc	10 268 33                       @ lvgl/src/lv_widgets/lv_cont.c:268:33
	ldrb.w	r1, [sp, #23]
	.loc	10 268 39                       @ lvgl/src/lv_widgets/lv_cont.c:268:39
	ldr	r2, [sp, #16]
	.loc	10 268 11                       @ lvgl/src/lv_widgets/lv_cont.c:268:11
	blx	r3
	.loc	10 268 9                        @ lvgl/src/lv_widgets/lv_cont.c:268:9
	strb.w	r0, [sp, #11]
.Ltmp40:
	.loc	10 269 8 is_stmt 1              @ lvgl/src/lv_widgets/lv_cont.c:269:8
	ldrb.w	r0, [sp, #11]
.Ltmp41:
	.loc	10 269 8 is_stmt 0              @ lvgl/src/lv_widgets/lv_cont.c:269:8
	cmp	r0, #1
	beq	.LBB1_6
	b	.LBB1_5
.LBB1_5:
.Ltmp42:
	.loc	10 269 33                       @ lvgl/src/lv_widgets/lv_cont.c:269:33
	ldrb.w	r0, [sp, #11]
	.loc	10 269 26                       @ lvgl/src/lv_widgets/lv_cont.c:269:26
	strb.w	r0, [sp, #31]
	b	.LBB1_23
.Ltmp43:
.LBB1_6:
	.loc	10 270 8 is_stmt 1              @ lvgl/src/lv_widgets/lv_cont.c:270:8
	ldrb.w	r0, [sp, #23]
.Ltmp44:
	.loc	10 270 8 is_stmt 0              @ lvgl/src/lv_widgets/lv_cont.c:270:8
	cmp	r0, #7
	bne	.LBB1_8
	b	.LBB1_7
.LBB1_7:
.Ltmp45:
	.loc	10 270 73                       @ lvgl/src/lv_widgets/lv_cont.c:270:73
	ldr	r0, [sp, #16]
	.loc	10 270 43                       @ lvgl/src/lv_widgets/lv_cont.c:270:43
	movw	r1, :lower16:.L.str.2
	movt	r1, :upper16:.L.str.2
	bl	lv_obj_handle_get_type_signal
	.loc	10 270 36                       @ lvgl/src/lv_widgets/lv_cont.c:270:36
	strb.w	r0, [sp, #31]
	b	.LBB1_23
.Ltmp46:
.LBB1_8:
	.loc	10 272 8 is_stmt 1              @ lvgl/src/lv_widgets/lv_cont.c:272:8
	ldrb.w	r0, [sp, #23]
.Ltmp47:
	.loc	10 272 8 is_stmt 0              @ lvgl/src/lv_widgets/lv_cont.c:272:8
	cmp	r0, #4
	bne	.LBB1_10
	b	.LBB1_9
.LBB1_9:
.Ltmp48:
	.loc	10 273 29 is_stmt 1             @ lvgl/src/lv_widgets/lv_cont.c:273:29
	ldr	r0, [sp, #24]
	.loc	10 273 9 is_stmt 0              @ lvgl/src/lv_widgets/lv_cont.c:273:9
	bl	lv_cont_refr_layout
	.loc	10 274 30 is_stmt 1             @ lvgl/src/lv_widgets/lv_cont.c:274:30
	ldr	r0, [sp, #24]
	.loc	10 274 9 is_stmt 0              @ lvgl/src/lv_widgets/lv_cont.c:274:9
	bl	lv_cont_refr_autofit
	.loc	10 275 5 is_stmt 1              @ lvgl/src/lv_widgets/lv_cont.c:275:5
	b	.LBB1_22
.Ltmp49:
.LBB1_10:
	.loc	10 276 13                       @ lvgl/src/lv_widgets/lv_cont.c:276:13
	ldrb.w	r0, [sp, #23]
.Ltmp50:
	.loc	10 276 13 is_stmt 0             @ lvgl/src/lv_widgets/lv_cont.c:276:13
	cmp	r0, #1
	bne	.LBB1_12
	b	.LBB1_11
.LBB1_11:
.Ltmp51:
	.loc	10 277 29 is_stmt 1             @ lvgl/src/lv_widgets/lv_cont.c:277:29
	ldr	r0, [sp, #24]
	.loc	10 277 9 is_stmt 0              @ lvgl/src/lv_widgets/lv_cont.c:277:9
	bl	lv_cont_refr_layout
	.loc	10 278 30 is_stmt 1             @ lvgl/src/lv_widgets/lv_cont.c:278:30
	ldr	r0, [sp, #24]
	.loc	10 278 9 is_stmt 0              @ lvgl/src/lv_widgets/lv_cont.c:278:9
	bl	lv_cont_refr_autofit
	.loc	10 279 5 is_stmt 1              @ lvgl/src/lv_widgets/lv_cont.c:279:5
	b	.LBB1_21
.Ltmp52:
.LBB1_12:
	.loc	10 280 13                       @ lvgl/src/lv_widgets/lv_cont.c:280:13
	ldrb.w	r0, [sp, #23]
.Ltmp53:
	.loc	10 280 13 is_stmt 0             @ lvgl/src/lv_widgets/lv_cont.c:280:13
	cmp	r0, #2
	bne	.LBB1_17
	b	.LBB1_13
.LBB1_13:
.Ltmp54:
	.loc	10 281 29 is_stmt 1             @ lvgl/src/lv_widgets/lv_cont.c:281:29
	ldr	r0, [sp, #24]
	.loc	10 281 12 is_stmt 0             @ lvgl/src/lv_widgets/lv_cont.c:281:12
	bl	lv_obj_get_width
	.loc	10 281 56                       @ lvgl/src/lv_widgets/lv_cont.c:281:56
	str	r0, [sp, #4]                    @ 4-byte Spill
	ldr	r0, [sp, #16]
	.loc	10 281 38                       @ lvgl/src/lv_widgets/lv_cont.c:281:38
	bl	lv_area_get_width
	mov	r1, r0
	.loc	10 281 63                       @ lvgl/src/lv_widgets/lv_cont.c:281:63
	ldr	r0, [sp, #4]                    @ 4-byte Reload
	cmp	r0, r1
	bne	.LBB1_15
	b	.LBB1_14
.LBB1_14:
	.loc	10 281 84                       @ lvgl/src/lv_widgets/lv_cont.c:281:84
	ldr	r0, [sp, #24]
	.loc	10 281 66                       @ lvgl/src/lv_widgets/lv_cont.c:281:66
	bl	lv_obj_get_height
	.loc	10 281 112                      @ lvgl/src/lv_widgets/lv_cont.c:281:112
	str	r0, [sp]                        @ 4-byte Spill
	ldr	r0, [sp, #16]
	.loc	10 281 93                       @ lvgl/src/lv_widgets/lv_cont.c:281:93
	bl	lv_area_get_height
	mov	r1, r0
.Ltmp55:
	.loc	10 281 12                       @ lvgl/src/lv_widgets/lv_cont.c:281:12
	ldr	r0, [sp]                        @ 4-byte Reload
	cmp	r0, r1
	beq	.LBB1_16
	b	.LBB1_15
.LBB1_15:
.Ltmp56:
	.loc	10 282 33 is_stmt 1             @ lvgl/src/lv_widgets/lv_cont.c:282:33
	ldr	r0, [sp, #24]
	.loc	10 282 13 is_stmt 0             @ lvgl/src/lv_widgets/lv_cont.c:282:13
	bl	lv_cont_refr_layout
	.loc	10 283 34 is_stmt 1             @ lvgl/src/lv_widgets/lv_cont.c:283:34
	ldr	r0, [sp, #24]
	.loc	10 283 13 is_stmt 0             @ lvgl/src/lv_widgets/lv_cont.c:283:13
	bl	lv_cont_refr_autofit
	.loc	10 284 9 is_stmt 1              @ lvgl/src/lv_widgets/lv_cont.c:284:9
	b	.LBB1_16
.Ltmp57:
.LBB1_16:
	.loc	10 285 5                        @ lvgl/src/lv_widgets/lv_cont.c:285:5
	b	.LBB1_20
.Ltmp58:
.LBB1_17:
	.loc	10 286 13                       @ lvgl/src/lv_widgets/lv_cont.c:286:13
	ldrb.w	r0, [sp, #23]
.Ltmp59:
	.loc	10 286 13 is_stmt 0             @ lvgl/src/lv_widgets/lv_cont.c:286:13
	cmp	r0, #3
	bne	.LBB1_19
	b	.LBB1_18
.LBB1_18:
.Ltmp60:
	.loc	10 288 30 is_stmt 1             @ lvgl/src/lv_widgets/lv_cont.c:288:30
	ldr	r0, [sp, #24]
	.loc	10 288 9 is_stmt 0              @ lvgl/src/lv_widgets/lv_cont.c:288:9
	bl	lv_cont_refr_autofit
	.loc	10 289 5 is_stmt 1              @ lvgl/src/lv_widgets/lv_cont.c:289:5
	b	.LBB1_19
.Ltmp61:
.LBB1_19:
	.loc	10 0 5 is_stmt 0                @ lvgl/src/lv_widgets/lv_cont.c:0:5
	b	.LBB1_20
.LBB1_20:
	b	.LBB1_21
.LBB1_21:
	b	.LBB1_22
.LBB1_22:
	.loc	10 291 12 is_stmt 1             @ lvgl/src/lv_widgets/lv_cont.c:291:12
	ldrb.w	r0, [sp, #11]
	.loc	10 291 5 is_stmt 0              @ lvgl/src/lv_widgets/lv_cont.c:291:5
	strb.w	r0, [sp, #31]
	b	.LBB1_23
.LBB1_23:
	.loc	10 292 1 is_stmt 1              @ lvgl/src/lv_widgets/lv_cont.c:292:1
	ldrb.w	r0, [sp, #31]
	add	sp, #32
	pop	{r7, pc}
.Ltmp62:
.Lfunc_end1:
	.size	lv_cont_signal, .Lfunc_end1-lv_cont_signal
	.cfi_endproc
	.cantunwind
	.fnend
                                        @ -- End function
	.section	.text.lv_cont_set_layout,"ax",%progbits
	.hidden	lv_cont_set_layout              @ -- Begin function lv_cont_set_layout
	.globl	lv_cont_set_layout
	.p2align	3
	.type	lv_cont_set_layout,%function
	.code	16                              @ @lv_cont_set_layout
	.thumb_func
lv_cont_set_layout:
.Lfunc_begin2:
	.loc	10 136 0                        @ lvgl/src/lv_widgets/lv_cont.c:136:0
	.fnstart
	.cfi_startproc
@ %bb.0:
	.save	{r7, lr}
	push	{r7, lr}
	.cfi_def_cfa_offset 8
	.cfi_offset lr, -4
	.cfi_offset r7, -8
	.pad	#16
	sub	sp, #16
	.cfi_def_cfa_offset 24
                                        @ kill: def $r2 killed $r1
	str	r0, [sp, #12]
	strb.w	r1, [sp, #11]
.Ltmp63:
	.loc	10 137 5 prologue_end           @ lvgl/src/lv_widgets/lv_cont.c:137:5
	b	.LBB2_1
.LBB2_1:
.Ltmp64:
	.loc	10 137 5 is_stmt 0              @ lvgl/src/lv_widgets/lv_cont.c:137:5
	ldr	r0, [sp, #12]
	bl	lv_debug_check_null
.Ltmp65:
	.loc	10 137 5                        @ lvgl/src/lv_widgets/lv_cont.c:137:5
	cbnz	r0, .LBB2_4
	b	.LBB2_2
.LBB2_2:
.Ltmp66:
	.loc	10 137 5                        @ lvgl/src/lv_widgets/lv_cont.c:137:5
	ldr	r2, [sp, #12]
	movw	r0, :lower16:.L.str.1
	movt	r0, :upper16:.L.str.1
	movs	r3, #0
	bl	lv_debug_log_error
	b	.LBB2_3
.LBB2_3:                                @ =>This Inner Loop Header: Depth=1
	b	.LBB2_3
.Ltmp67:
.LBB2_4:
	.loc	10 137 5                        @ lvgl/src/lv_widgets/lv_cont.c:137:5
	b	.LBB2_5
.Ltmp68:
.LBB2_5:
	.loc	10 139 47 is_stmt 1             @ lvgl/src/lv_widgets/lv_cont.c:139:47
	ldr	r0, [sp, #12]
	.loc	10 139 27 is_stmt 0             @ lvgl/src/lv_widgets/lv_cont.c:139:27
	bl	lv_obj_get_ext_attr
	.loc	10 139 21                       @ lvgl/src/lv_widgets/lv_cont.c:139:21
	str	r0, [sp, #4]
.Ltmp69:
	.loc	10 140 8 is_stmt 1              @ lvgl/src/lv_widgets/lv_cont.c:140:8
	ldr	r0, [sp, #4]
	.loc	10 140 13 is_stmt 0             @ lvgl/src/lv_widgets/lv_cont.c:140:13
	ldrb	r0, [r0]
	.loc	10 140 8                        @ lvgl/src/lv_widgets/lv_cont.c:140:8
	and	r0, r0, #15
	.loc	10 140 23                       @ lvgl/src/lv_widgets/lv_cont.c:140:23
	ldrb.w	r1, [sp, #11]
.Ltmp70:
	.loc	10 140 8                        @ lvgl/src/lv_widgets/lv_cont.c:140:8
	cmp	r0, r1
	bne	.LBB2_7
	b	.LBB2_6
.LBB2_6:
.Ltmp71:
	.loc	10 140 31                       @ lvgl/src/lv_widgets/lv_cont.c:140:31
	b	.LBB2_8
.Ltmp72:
.LBB2_7:
	.loc	10 142 19 is_stmt 1             @ lvgl/src/lv_widgets/lv_cont.c:142:19
	ldrb.w	r2, [sp, #11]
	.loc	10 142 5 is_stmt 0              @ lvgl/src/lv_widgets/lv_cont.c:142:5
	ldr	r1, [sp, #4]
	.loc	10 142 17                       @ lvgl/src/lv_widgets/lv_cont.c:142:17
	ldrb	r0, [r1]
	and	r2, r2, #15
	and	r0, r0, #240
	add	r0, r2
	strb	r0, [r1]
	.loc	10 145 5 is_stmt 1              @ lvgl/src/lv_widgets/lv_cont.c:145:5
	ldr	r0, [sp, #12]
	.loc	10 145 11 is_stmt 0             @ lvgl/src/lv_widgets/lv_cont.c:145:11
	ldr	r3, [r0, #28]
	movs	r1, #1
	movs	r2, #0
	.loc	10 145 5                        @ lvgl/src/lv_widgets/lv_cont.c:145:5
	blx	r3
	.loc	10 146 1 is_stmt 1              @ lvgl/src/lv_widgets/lv_cont.c:146:1
	b	.LBB2_8
.LBB2_8:
	add	sp, #16
	pop	{r7, pc}
.Ltmp73:
.Lfunc_end2:
	.size	lv_cont_set_layout, .Lfunc_end2-lv_cont_set_layout
	.cfi_endproc
	.cantunwind
	.fnend
                                        @ -- End function
	.section	.text.lv_cont_set_fit4,"ax",%progbits
	.hidden	lv_cont_set_fit4                @ -- Begin function lv_cont_set_fit4
	.globl	lv_cont_set_fit4
	.p2align	3
	.type	lv_cont_set_fit4,%function
	.code	16                              @ @lv_cont_set_fit4
	.thumb_func
lv_cont_set_fit4:
.Lfunc_begin3:
	.loc	10 158 0                        @ lvgl/src/lv_widgets/lv_cont.c:158:0
	.fnstart
	.cfi_startproc
@ %bb.0:
	.save	{r7, lr}
	push	{r7, lr}
	.cfi_def_cfa_offset 8
	.cfi_offset lr, -4
	.cfi_offset r7, -8
	.pad	#16
	sub	sp, #16
	.cfi_def_cfa_offset 24
	mov	r12, r0
	ldr	r0, [sp, #24]
                                        @ kill: def $lr killed $r3
                                        @ kill: def $lr killed $r2
                                        @ kill: def $lr killed $r1
	str.w	r12, [sp, #12]
	strb.w	r1, [sp, #11]
	strb.w	r2, [sp, #10]
	strb.w	r3, [sp, #9]
	strb.w	r0, [sp, #8]
.Ltmp74:
	.loc	10 159 5 prologue_end           @ lvgl/src/lv_widgets/lv_cont.c:159:5
	b	.LBB3_1
.LBB3_1:
.Ltmp75:
	.loc	10 159 5 is_stmt 0              @ lvgl/src/lv_widgets/lv_cont.c:159:5
	ldr	r0, [sp, #12]
	bl	lv_debug_check_null
.Ltmp76:
	.loc	10 159 5                        @ lvgl/src/lv_widgets/lv_cont.c:159:5
	cbnz	r0, .LBB3_4
	b	.LBB3_2
.LBB3_2:
.Ltmp77:
	.loc	10 159 5                        @ lvgl/src/lv_widgets/lv_cont.c:159:5
	ldr	r2, [sp, #12]
	movw	r0, :lower16:.L.str.1
	movt	r0, :upper16:.L.str.1
	movs	r3, #0
	bl	lv_debug_log_error
	b	.LBB3_3
.LBB3_3:                                @ =>This Inner Loop Header: Depth=1
	b	.LBB3_3
.Ltmp78:
.LBB3_4:
	.loc	10 159 5                        @ lvgl/src/lv_widgets/lv_cont.c:159:5
	b	.LBB3_5
.Ltmp79:
.LBB3_5:
	.loc	10 161 23 is_stmt 1             @ lvgl/src/lv_widgets/lv_cont.c:161:23
	ldr	r0, [sp, #12]
	.loc	10 161 5 is_stmt 0              @ lvgl/src/lv_widgets/lv_cont.c:161:5
	bl	lv_obj_invalidate
	.loc	10 162 47 is_stmt 1             @ lvgl/src/lv_widgets/lv_cont.c:162:47
	ldr	r0, [sp, #12]
	.loc	10 162 27 is_stmt 0             @ lvgl/src/lv_widgets/lv_cont.c:162:27
	bl	lv_obj_get_ext_attr
	.loc	10 162 21                       @ lvgl/src/lv_widgets/lv_cont.c:162:21
	str	r0, [sp, #4]
.Ltmp80:
	.loc	10 163 8 is_stmt 1              @ lvgl/src/lv_widgets/lv_cont.c:163:8
	ldr	r0, [sp, #4]
	.loc	10 163 13 is_stmt 0             @ lvgl/src/lv_widgets/lv_cont.c:163:13
	ldrb	r0, [r0]
	ubfx	r0, r0, #4, #2
	.loc	10 163 25                       @ lvgl/src/lv_widgets/lv_cont.c:163:25
	ldrb.w	r1, [sp, #11]
	.loc	10 163 30                       @ lvgl/src/lv_widgets/lv_cont.c:163:30
	cmp	r0, r1
	bne	.LBB3_10
	b	.LBB3_6
.LBB3_6:
	.loc	10 163 33                       @ lvgl/src/lv_widgets/lv_cont.c:163:33
	ldr	r0, [sp, #4]
	.loc	10 163 38                       @ lvgl/src/lv_widgets/lv_cont.c:163:38
	ldrb	r1, [r0]
	.loc	10 163 51                       @ lvgl/src/lv_widgets/lv_cont.c:163:51
	ldrb.w	r0, [sp, #10]
	.loc	10 163 57                       @ lvgl/src/lv_widgets/lv_cont.c:163:57
	cmp.w	r0, r1, lsr #6
	bne	.LBB3_10
	b	.LBB3_7
.LBB3_7:
	.loc	10 163 60                       @ lvgl/src/lv_widgets/lv_cont.c:163:60
	ldr	r0, [sp, #4]
	.loc	10 163 65                       @ lvgl/src/lv_widgets/lv_cont.c:163:65
	ldrb	r0, [r0, #1]
	.loc	10 163 60                       @ lvgl/src/lv_widgets/lv_cont.c:163:60
	and	r0, r0, #3
	.loc	10 163 76                       @ lvgl/src/lv_widgets/lv_cont.c:163:76
	ldrb.w	r1, [sp, #9]
	.loc	10 163 80                       @ lvgl/src/lv_widgets/lv_cont.c:163:80
	cmp	r0, r1
	bne	.LBB3_10
	b	.LBB3_8
.LBB3_8:
	.loc	10 163 83                       @ lvgl/src/lv_widgets/lv_cont.c:163:83
	ldr	r0, [sp, #4]
	.loc	10 163 88                       @ lvgl/src/lv_widgets/lv_cont.c:163:88
	ldrb	r0, [r0, #1]
	ubfx	r0, r0, #2, #2
	.loc	10 163 102                      @ lvgl/src/lv_widgets/lv_cont.c:163:102
	ldrb.w	r1, [sp, #8]
.Ltmp81:
	.loc	10 163 8                        @ lvgl/src/lv_widgets/lv_cont.c:163:8
	cmp	r0, r1
	bne	.LBB3_10
	b	.LBB3_9
.LBB3_9:
.Ltmp82:
	.loc	10 164 9 is_stmt 1              @ lvgl/src/lv_widgets/lv_cont.c:164:9
	b	.LBB3_11
.Ltmp83:
.LBB3_10:
	.loc	10 167 23                       @ lvgl/src/lv_widgets/lv_cont.c:167:23
	ldrb.w	r2, [sp, #11]
	.loc	10 167 5 is_stmt 0              @ lvgl/src/lv_widgets/lv_cont.c:167:5
	ldr	r1, [sp, #4]
	.loc	10 167 21                       @ lvgl/src/lv_widgets/lv_cont.c:167:21
	ldrb	r0, [r1]
	and	r2, r2, #3
	and	r0, r0, #207
	orr.w	r0, r0, r2, lsl #4
	strb	r0, [r1]
	.loc	10 168 23 is_stmt 1             @ lvgl/src/lv_widgets/lv_cont.c:168:23
	ldrb.w	r2, [sp, #10]
	.loc	10 168 5 is_stmt 0              @ lvgl/src/lv_widgets/lv_cont.c:168:5
	ldr	r1, [sp, #4]
	.loc	10 168 21                       @ lvgl/src/lv_widgets/lv_cont.c:168:21
	ldrb	r0, [r1]
	and	r0, r0, #63
	orr.w	r0, r0, r2, lsl #6
	strb	r0, [r1]
	.loc	10 169 23 is_stmt 1             @ lvgl/src/lv_widgets/lv_cont.c:169:23
	ldrb.w	r2, [sp, #9]
	.loc	10 169 5 is_stmt 0              @ lvgl/src/lv_widgets/lv_cont.c:169:5
	ldr	r1, [sp, #4]
	.loc	10 169 21                       @ lvgl/src/lv_widgets/lv_cont.c:169:21
	ldrb	r0, [r1, #1]
	and	r2, r2, #3
	and	r0, r0, #252
	add	r0, r2
	strb	r0, [r1, #1]
	.loc	10 170 23 is_stmt 1             @ lvgl/src/lv_widgets/lv_cont.c:170:23
	ldrb.w	r2, [sp, #8]
	.loc	10 170 5 is_stmt 0              @ lvgl/src/lv_widgets/lv_cont.c:170:5
	ldr	r1, [sp, #4]
	.loc	10 170 21                       @ lvgl/src/lv_widgets/lv_cont.c:170:21
	ldrb	r0, [r1, #1]
	and	r2, r2, #3
	and	r0, r0, #243
	orr.w	r0, r0, r2, lsl #2
	strb	r0, [r1, #1]
	.loc	10 173 5 is_stmt 1              @ lvgl/src/lv_widgets/lv_cont.c:173:5
	ldr	r0, [sp, #12]
	.loc	10 173 11 is_stmt 0             @ lvgl/src/lv_widgets/lv_cont.c:173:11
	ldr	r3, [r0, #28]
	movs	r1, #1
	movs	r2, #0
	.loc	10 173 5                        @ lvgl/src/lv_widgets/lv_cont.c:173:5
	blx	r3
	.loc	10 174 1 is_stmt 1              @ lvgl/src/lv_widgets/lv_cont.c:174:1
	b	.LBB3_11
.LBB3_11:
	add	sp, #16
	pop	{r7, pc}
.Ltmp84:
.Lfunc_end3:
	.size	lv_cont_set_fit4, .Lfunc_end3-lv_cont_set_fit4
	.cfi_endproc
	.cantunwind
	.fnend
                                        @ -- End function
	.section	.text.lv_cont_get_layout,"ax",%progbits
	.hidden	lv_cont_get_layout              @ -- Begin function lv_cont_get_layout
	.globl	lv_cont_get_layout
	.p2align	3
	.type	lv_cont_get_layout,%function
	.code	16                              @ @lv_cont_get_layout
	.thumb_func
lv_cont_get_layout:
.Lfunc_begin4:
	.loc	10 186 0                        @ lvgl/src/lv_widgets/lv_cont.c:186:0
	.fnstart
	.cfi_startproc
@ %bb.0:
	.save	{r7, lr}
	push	{r7, lr}
	.cfi_def_cfa_offset 8
	.cfi_offset lr, -4
	.cfi_offset r7, -8
	.pad	#8
	sub	sp, #8
	.cfi_def_cfa_offset 16
	str	r0, [sp, #4]
.Ltmp85:
	.loc	10 187 5 prologue_end           @ lvgl/src/lv_widgets/lv_cont.c:187:5
	b	.LBB4_1
.LBB4_1:
.Ltmp86:
	.loc	10 187 5 is_stmt 0              @ lvgl/src/lv_widgets/lv_cont.c:187:5
	ldr	r0, [sp, #4]
	bl	lv_debug_check_null
.Ltmp87:
	.loc	10 187 5                        @ lvgl/src/lv_widgets/lv_cont.c:187:5
	cbnz	r0, .LBB4_4
	b	.LBB4_2
.LBB4_2:
.Ltmp88:
	.loc	10 187 5                        @ lvgl/src/lv_widgets/lv_cont.c:187:5
	ldr	r2, [sp, #4]
	movw	r0, :lower16:.L.str.1
	movt	r0, :upper16:.L.str.1
	movs	r3, #0
	bl	lv_debug_log_error
	b	.LBB4_3
.LBB4_3:                                @ =>This Inner Loop Header: Depth=1
	b	.LBB4_3
.Ltmp89:
.LBB4_4:
	.loc	10 187 5                        @ lvgl/src/lv_widgets/lv_cont.c:187:5
	b	.LBB4_5
.Ltmp90:
.LBB4_5:
	.loc	10 189 47 is_stmt 1             @ lvgl/src/lv_widgets/lv_cont.c:189:47
	ldr	r0, [sp, #4]
	.loc	10 189 27 is_stmt 0             @ lvgl/src/lv_widgets/lv_cont.c:189:27
	bl	lv_obj_get_ext_attr
	.loc	10 189 21                       @ lvgl/src/lv_widgets/lv_cont.c:189:21
	str	r0, [sp]
	.loc	10 190 12 is_stmt 1             @ lvgl/src/lv_widgets/lv_cont.c:190:12
	ldr	r0, [sp]
	.loc	10 190 17 is_stmt 0             @ lvgl/src/lv_widgets/lv_cont.c:190:17
	ldrb	r0, [r0]
	.loc	10 190 5                        @ lvgl/src/lv_widgets/lv_cont.c:190:5
	and	r0, r0, #15
	add	sp, #8
	pop	{r7, pc}
.Ltmp91:
.Lfunc_end4:
	.size	lv_cont_get_layout, .Lfunc_end4-lv_cont_get_layout
	.cfi_endproc
	.cantunwind
	.fnend
                                        @ -- End function
	.section	.text.lv_cont_get_fit_left,"ax",%progbits
	.hidden	lv_cont_get_fit_left            @ -- Begin function lv_cont_get_fit_left
	.globl	lv_cont_get_fit_left
	.p2align	3
	.type	lv_cont_get_fit_left,%function
	.code	16                              @ @lv_cont_get_fit_left
	.thumb_func
lv_cont_get_fit_left:
.Lfunc_begin5:
	.loc	10 199 0 is_stmt 1              @ lvgl/src/lv_widgets/lv_cont.c:199:0
	.fnstart
	.cfi_startproc
@ %bb.0:
	.save	{r7, lr}
	push	{r7, lr}
	.cfi_def_cfa_offset 8
	.cfi_offset lr, -4
	.cfi_offset r7, -8
	.pad	#8
	sub	sp, #8
	.cfi_def_cfa_offset 16
	str	r0, [sp, #4]
.Ltmp92:
	.loc	10 200 5 prologue_end           @ lvgl/src/lv_widgets/lv_cont.c:200:5
	b	.LBB5_1
.LBB5_1:
.Ltmp93:
	.loc	10 200 5 is_stmt 0              @ lvgl/src/lv_widgets/lv_cont.c:200:5
	ldr	r0, [sp, #4]
	bl	lv_debug_check_null
.Ltmp94:
	.loc	10 200 5                        @ lvgl/src/lv_widgets/lv_cont.c:200:5
	cbnz	r0, .LBB5_4
	b	.LBB5_2
.LBB5_2:
.Ltmp95:
	.loc	10 200 5                        @ lvgl/src/lv_widgets/lv_cont.c:200:5
	ldr	r2, [sp, #4]
	movw	r0, :lower16:.L.str.1
	movt	r0, :upper16:.L.str.1
	movs	r3, #0
	bl	lv_debug_log_error
	b	.LBB5_3
.LBB5_3:                                @ =>This Inner Loop Header: Depth=1
	b	.LBB5_3
.Ltmp96:
.LBB5_4:
	.loc	10 200 5                        @ lvgl/src/lv_widgets/lv_cont.c:200:5
	b	.LBB5_5
.Ltmp97:
.LBB5_5:
	.loc	10 202 47 is_stmt 1             @ lvgl/src/lv_widgets/lv_cont.c:202:47
	ldr	r0, [sp, #4]
	.loc	10 202 27 is_stmt 0             @ lvgl/src/lv_widgets/lv_cont.c:202:27
	bl	lv_obj_get_ext_attr
	.loc	10 202 21                       @ lvgl/src/lv_widgets/lv_cont.c:202:21
	str	r0, [sp]
	.loc	10 203 12 is_stmt 1             @ lvgl/src/lv_widgets/lv_cont.c:203:12
	ldr	r0, [sp]
	.loc	10 203 17 is_stmt 0             @ lvgl/src/lv_widgets/lv_cont.c:203:17
	ldrb	r0, [r0]
	ubfx	r0, r0, #4, #2
	.loc	10 203 5                        @ lvgl/src/lv_widgets/lv_cont.c:203:5
	add	sp, #8
	pop	{r7, pc}
.Ltmp98:
.Lfunc_end5:
	.size	lv_cont_get_fit_left, .Lfunc_end5-lv_cont_get_fit_left
	.cfi_endproc
	.cantunwind
	.fnend
                                        @ -- End function
	.section	.text.lv_cont_get_fit_right,"ax",%progbits
	.hidden	lv_cont_get_fit_right           @ -- Begin function lv_cont_get_fit_right
	.globl	lv_cont_get_fit_right
	.p2align	3
	.type	lv_cont_get_fit_right,%function
	.code	16                              @ @lv_cont_get_fit_right
	.thumb_func
lv_cont_get_fit_right:
.Lfunc_begin6:
	.loc	10 212 0 is_stmt 1              @ lvgl/src/lv_widgets/lv_cont.c:212:0
	.fnstart
	.cfi_startproc
@ %bb.0:
	.save	{r7, lr}
	push	{r7, lr}
	.cfi_def_cfa_offset 8
	.cfi_offset lr, -4
	.cfi_offset r7, -8
	.pad	#8
	sub	sp, #8
	.cfi_def_cfa_offset 16
	str	r0, [sp, #4]
.Ltmp99:
	.loc	10 213 5 prologue_end           @ lvgl/src/lv_widgets/lv_cont.c:213:5
	b	.LBB6_1
.LBB6_1:
.Ltmp100:
	.loc	10 213 5 is_stmt 0              @ lvgl/src/lv_widgets/lv_cont.c:213:5
	ldr	r0, [sp, #4]
	bl	lv_debug_check_null
.Ltmp101:
	.loc	10 213 5                        @ lvgl/src/lv_widgets/lv_cont.c:213:5
	cbnz	r0, .LBB6_4
	b	.LBB6_2
.LBB6_2:
.Ltmp102:
	.loc	10 213 5                        @ lvgl/src/lv_widgets/lv_cont.c:213:5
	ldr	r2, [sp, #4]
	movw	r0, :lower16:.L.str.1
	movt	r0, :upper16:.L.str.1
	movs	r3, #0
	bl	lv_debug_log_error
	b	.LBB6_3
.LBB6_3:                                @ =>This Inner Loop Header: Depth=1
	b	.LBB6_3
.Ltmp103:
.LBB6_4:
	.loc	10 213 5                        @ lvgl/src/lv_widgets/lv_cont.c:213:5
	b	.LBB6_5
.Ltmp104:
.LBB6_5:
	.loc	10 215 47 is_stmt 1             @ lvgl/src/lv_widgets/lv_cont.c:215:47
	ldr	r0, [sp, #4]
	.loc	10 215 27 is_stmt 0             @ lvgl/src/lv_widgets/lv_cont.c:215:27
	bl	lv_obj_get_ext_attr
	.loc	10 215 21                       @ lvgl/src/lv_widgets/lv_cont.c:215:21
	str	r0, [sp]
	.loc	10 216 12 is_stmt 1             @ lvgl/src/lv_widgets/lv_cont.c:216:12
	ldr	r0, [sp]
	.loc	10 216 17 is_stmt 0             @ lvgl/src/lv_widgets/lv_cont.c:216:17
	ldrb	r0, [r0]
	lsrs	r0, r0, #6
	.loc	10 216 5                        @ lvgl/src/lv_widgets/lv_cont.c:216:5
	add	sp, #8
	pop	{r7, pc}
.Ltmp105:
.Lfunc_end6:
	.size	lv_cont_get_fit_right, .Lfunc_end6-lv_cont_get_fit_right
	.cfi_endproc
	.cantunwind
	.fnend
                                        @ -- End function
	.section	.text.lv_cont_get_fit_top,"ax",%progbits
	.hidden	lv_cont_get_fit_top             @ -- Begin function lv_cont_get_fit_top
	.globl	lv_cont_get_fit_top
	.p2align	3
	.type	lv_cont_get_fit_top,%function
	.code	16                              @ @lv_cont_get_fit_top
	.thumb_func
lv_cont_get_fit_top:
.Lfunc_begin7:
	.loc	10 225 0 is_stmt 1              @ lvgl/src/lv_widgets/lv_cont.c:225:0
	.fnstart
	.cfi_startproc
@ %bb.0:
	.save	{r7, lr}
	push	{r7, lr}
	.cfi_def_cfa_offset 8
	.cfi_offset lr, -4
	.cfi_offset r7, -8
	.pad	#8
	sub	sp, #8
	.cfi_def_cfa_offset 16
	str	r0, [sp, #4]
.Ltmp106:
	.loc	10 226 5 prologue_end           @ lvgl/src/lv_widgets/lv_cont.c:226:5
	b	.LBB7_1
.LBB7_1:
.Ltmp107:
	.loc	10 226 5 is_stmt 0              @ lvgl/src/lv_widgets/lv_cont.c:226:5
	ldr	r0, [sp, #4]
	bl	lv_debug_check_null
.Ltmp108:
	.loc	10 226 5                        @ lvgl/src/lv_widgets/lv_cont.c:226:5
	cbnz	r0, .LBB7_4
	b	.LBB7_2
.LBB7_2:
.Ltmp109:
	.loc	10 226 5                        @ lvgl/src/lv_widgets/lv_cont.c:226:5
	ldr	r2, [sp, #4]
	movw	r0, :lower16:.L.str.1
	movt	r0, :upper16:.L.str.1
	movs	r3, #0
	bl	lv_debug_log_error
	b	.LBB7_3
.LBB7_3:                                @ =>This Inner Loop Header: Depth=1
	b	.LBB7_3
.Ltmp110:
.LBB7_4:
	.loc	10 226 5                        @ lvgl/src/lv_widgets/lv_cont.c:226:5
	b	.LBB7_5
.Ltmp111:
.LBB7_5:
	.loc	10 228 47 is_stmt 1             @ lvgl/src/lv_widgets/lv_cont.c:228:47
	ldr	r0, [sp, #4]
	.loc	10 228 27 is_stmt 0             @ lvgl/src/lv_widgets/lv_cont.c:228:27
	bl	lv_obj_get_ext_attr
	.loc	10 228 21                       @ lvgl/src/lv_widgets/lv_cont.c:228:21
	str	r0, [sp]
	.loc	10 229 12 is_stmt 1             @ lvgl/src/lv_widgets/lv_cont.c:229:12
	ldr	r0, [sp]
	.loc	10 229 17 is_stmt 0             @ lvgl/src/lv_widgets/lv_cont.c:229:17
	ldrb	r0, [r0, #1]
	.loc	10 229 5                        @ lvgl/src/lv_widgets/lv_cont.c:229:5
	and	r0, r0, #3
	add	sp, #8
	pop	{r7, pc}
.Ltmp112:
.Lfunc_end7:
	.size	lv_cont_get_fit_top, .Lfunc_end7-lv_cont_get_fit_top
	.cfi_endproc
	.cantunwind
	.fnend
                                        @ -- End function
	.section	.text.lv_cont_get_fit_bottom,"ax",%progbits
	.hidden	lv_cont_get_fit_bottom          @ -- Begin function lv_cont_get_fit_bottom
	.globl	lv_cont_get_fit_bottom
	.p2align	3
	.type	lv_cont_get_fit_bottom,%function
	.code	16                              @ @lv_cont_get_fit_bottom
	.thumb_func
lv_cont_get_fit_bottom:
.Lfunc_begin8:
	.loc	10 238 0 is_stmt 1              @ lvgl/src/lv_widgets/lv_cont.c:238:0
	.fnstart
	.cfi_startproc
@ %bb.0:
	.save	{r7, lr}
	push	{r7, lr}
	.cfi_def_cfa_offset 8
	.cfi_offset lr, -4
	.cfi_offset r7, -8
	.pad	#8
	sub	sp, #8
	.cfi_def_cfa_offset 16
	str	r0, [sp, #4]
.Ltmp113:
	.loc	10 239 5 prologue_end           @ lvgl/src/lv_widgets/lv_cont.c:239:5
	b	.LBB8_1
.LBB8_1:
.Ltmp114:
	.loc	10 239 5 is_stmt 0              @ lvgl/src/lv_widgets/lv_cont.c:239:5
	ldr	r0, [sp, #4]
	bl	lv_debug_check_null
.Ltmp115:
	.loc	10 239 5                        @ lvgl/src/lv_widgets/lv_cont.c:239:5
	cbnz	r0, .LBB8_4
	b	.LBB8_2
.LBB8_2:
.Ltmp116:
	.loc	10 239 5                        @ lvgl/src/lv_widgets/lv_cont.c:239:5
	ldr	r2, [sp, #4]
	movw	r0, :lower16:.L.str.1
	movt	r0, :upper16:.L.str.1
	movs	r3, #0
	bl	lv_debug_log_error
	b	.LBB8_3
.LBB8_3:                                @ =>This Inner Loop Header: Depth=1
	b	.LBB8_3
.Ltmp117:
.LBB8_4:
	.loc	10 239 5                        @ lvgl/src/lv_widgets/lv_cont.c:239:5
	b	.LBB8_5
.Ltmp118:
.LBB8_5:
	.loc	10 241 47 is_stmt 1             @ lvgl/src/lv_widgets/lv_cont.c:241:47
	ldr	r0, [sp, #4]
	.loc	10 241 27 is_stmt 0             @ lvgl/src/lv_widgets/lv_cont.c:241:27
	bl	lv_obj_get_ext_attr
	.loc	10 241 21                       @ lvgl/src/lv_widgets/lv_cont.c:241:21
	str	r0, [sp]
	.loc	10 242 12 is_stmt 1             @ lvgl/src/lv_widgets/lv_cont.c:242:12
	ldr	r0, [sp]
	.loc	10 242 17 is_stmt 0             @ lvgl/src/lv_widgets/lv_cont.c:242:17
	ldrb	r0, [r0, #1]
	ubfx	r0, r0, #2, #2
	.loc	10 242 5                        @ lvgl/src/lv_widgets/lv_cont.c:242:5
	add	sp, #8
	pop	{r7, pc}
.Ltmp119:
.Lfunc_end8:
	.size	lv_cont_get_fit_bottom, .Lfunc_end8-lv_cont_get_fit_bottom
	.cfi_endproc
	.cantunwind
	.fnend
                                        @ -- End function
	.section	.text.lv_cont_get_style,"ax",%progbits
	.p2align	3                               @ -- Begin function lv_cont_get_style
	.type	lv_cont_get_style,%function
	.code	16                              @ @lv_cont_get_style
	.thumb_func
lv_cont_get_style:
.Lfunc_begin9:
	.loc	10 295 0 is_stmt 1              @ lvgl/src/lv_widgets/lv_cont.c:295:0
	.fnstart
	.cfi_startproc
@ %bb.0:
	.pad	#12
	sub	sp, #12
	.cfi_def_cfa_offset 12
                                        @ kill: def $r2 killed $r1
	str	r0, [sp, #8]
	strb.w	r1, [sp, #7]
.Ltmp120:
	.loc	10 297 12 prologue_end          @ lvgl/src/lv_widgets/lv_cont.c:297:12
	ldrb.w	r0, [sp, #7]
	.loc	10 297 5 is_stmt 0              @ lvgl/src/lv_widgets/lv_cont.c:297:5
	cbnz	r0, .LBB9_2
	b	.LBB9_1
.LBB9_1:
.Ltmp121:
	.loc	10 299 28 is_stmt 1             @ lvgl/src/lv_widgets/lv_cont.c:299:28
	ldr	r0, [sp, #8]
	.loc	10 299 34 is_stmt 0             @ lvgl/src/lv_widgets/lv_cont.c:299:34
	adds	r0, #40
	.loc	10 299 25                       @ lvgl/src/lv_widgets/lv_cont.c:299:25
	str	r0, [sp]
	.loc	10 300 13 is_stmt 1             @ lvgl/src/lv_widgets/lv_cont.c:300:13
	b	.LBB9_3
.LBB9_2:
	.loc	10 0 13 is_stmt 0               @ lvgl/src/lv_widgets/lv_cont.c:0:13
	movs	r0, #0
	.loc	10 302 25 is_stmt 1             @ lvgl/src/lv_widgets/lv_cont.c:302:25
	str	r0, [sp]
	.loc	10 303 5                        @ lvgl/src/lv_widgets/lv_cont.c:303:5
	b	.LBB9_3
.Ltmp122:
.LBB9_3:
	.loc	10 305 12                       @ lvgl/src/lv_widgets/lv_cont.c:305:12
	ldr	r0, [sp]
	.loc	10 305 5 is_stmt 0              @ lvgl/src/lv_widgets/lv_cont.c:305:5
	add	sp, #12
	bx	lr
.Ltmp123:
.Lfunc_end9:
	.size	lv_cont_get_style, .Lfunc_end9-lv_cont_get_style
	.cfi_endproc
	.cantunwind
	.fnend
                                        @ -- End function
	.section	.text.lv_cont_refr_layout,"ax",%progbits
	.p2align	3                               @ -- Begin function lv_cont_refr_layout
	.type	lv_cont_refr_layout,%function
	.code	16                              @ @lv_cont_refr_layout
	.thumb_func
lv_cont_refr_layout:
.Lfunc_begin10:
	.loc	10 313 0 is_stmt 1              @ lvgl/src/lv_widgets/lv_cont.c:313:0
	.fnstart
	.cfi_startproc
@ %bb.0:
	.save	{r7, lr}
	push	{r7, lr}
	.cfi_def_cfa_offset 8
	.cfi_offset lr, -4
	.cfi_offset r7, -8
	.pad	#8
	sub	sp, #8
	.cfi_def_cfa_offset 16
	str	r0, [sp, #4]
.Ltmp124:
	.loc	10 314 28 prologue_end          @ lvgl/src/lv_widgets/lv_cont.c:314:28
	ldr	r0, [sp, #4]
	movs	r1, #1
	.loc	10 314 8 is_stmt 0              @ lvgl/src/lv_widgets/lv_cont.c:314:8
	bl	lv_obj_is_protected
.Ltmp125:
	.loc	10 314 8                        @ lvgl/src/lv_widgets/lv_cont.c:314:8
	cbz	r0, .LBB10_2
	b	.LBB10_1
.LBB10_1:
.Ltmp126:
	.loc	10 314 57                       @ lvgl/src/lv_widgets/lv_cont.c:314:57
	b	.LBB10_26
.Ltmp127:
.LBB10_2:
	.loc	10 315 43 is_stmt 1             @ lvgl/src/lv_widgets/lv_cont.c:315:43
	ldr	r0, [sp, #4]
	.loc	10 315 24 is_stmt 0             @ lvgl/src/lv_widgets/lv_cont.c:315:24
	bl	lv_cont_get_layout
	.loc	10 315 17                       @ lvgl/src/lv_widgets/lv_cont.c:315:17
	strb.w	r0, [sp, #3]
.Ltmp128:
	.loc	10 318 25 is_stmt 1             @ lvgl/src/lv_widgets/lv_cont.c:318:25
	ldr	r0, [sp, #4]
	movs	r1, #0
	.loc	10 318 8 is_stmt 0              @ lvgl/src/lv_widgets/lv_cont.c:318:8
	bl	lv_obj_get_child
.Ltmp129:
	.loc	10 318 8                        @ lvgl/src/lv_widgets/lv_cont.c:318:8
	cbnz	r0, .LBB10_4
	b	.LBB10_3
.LBB10_3:
.Ltmp130:
	.loc	10 318 46                       @ lvgl/src/lv_widgets/lv_cont.c:318:46
	b	.LBB10_26
.Ltmp131:
.LBB10_4:
	.loc	10 320 8 is_stmt 1              @ lvgl/src/lv_widgets/lv_cont.c:320:8
	ldrb.w	r0, [sp, #3]
.Ltmp132:
	.loc	10 320 8 is_stmt 0              @ lvgl/src/lv_widgets/lv_cont.c:320:8
	cbnz	r0, .LBB10_6
	b	.LBB10_5
.LBB10_5:
.Ltmp133:
	.loc	10 320 31                       @ lvgl/src/lv_widgets/lv_cont.c:320:31
	b	.LBB10_26
.Ltmp134:
.LBB10_6:
	.loc	10 322 8 is_stmt 1              @ lvgl/src/lv_widgets/lv_cont.c:322:8
	ldrb.w	r0, [sp, #3]
.Ltmp135:
	.loc	10 322 8 is_stmt 0              @ lvgl/src/lv_widgets/lv_cont.c:322:8
	cmp	r0, #1
	bne	.LBB10_8
	b	.LBB10_7
.LBB10_7:
.Ltmp136:
	.loc	10 323 31 is_stmt 1             @ lvgl/src/lv_widgets/lv_cont.c:323:31
	ldr	r0, [sp, #4]
	.loc	10 323 9 is_stmt 0              @ lvgl/src/lv_widgets/lv_cont.c:323:9
	bl	lv_cont_layout_center
	.loc	10 324 5 is_stmt 1              @ lvgl/src/lv_widgets/lv_cont.c:324:5
	b	.LBB10_26
.Ltmp137:
.LBB10_8:
	.loc	10 325 13                       @ lvgl/src/lv_widgets/lv_cont.c:325:13
	ldrb.w	r0, [sp, #3]
	.loc	10 325 43 is_stmt 0             @ lvgl/src/lv_widgets/lv_cont.c:325:43
	cmp	r0, #2
	beq	.LBB10_11
	b	.LBB10_9
.LBB10_9:
	.loc	10 325 46                       @ lvgl/src/lv_widgets/lv_cont.c:325:46
	ldrb.w	r0, [sp, #3]
	.loc	10 325 75                       @ lvgl/src/lv_widgets/lv_cont.c:325:75
	cmp	r0, #3
	beq	.LBB10_11
	b	.LBB10_10
.LBB10_10:
	.loc	10 325 78                       @ lvgl/src/lv_widgets/lv_cont.c:325:78
	ldrb.w	r0, [sp, #3]
.Ltmp138:
	.loc	10 325 13                       @ lvgl/src/lv_widgets/lv_cont.c:325:13
	cmp	r0, #4
	bne	.LBB10_12
	b	.LBB10_11
.LBB10_11:
.Ltmp139:
	.loc	10 326 28 is_stmt 1             @ lvgl/src/lv_widgets/lv_cont.c:326:28
	ldr	r0, [sp, #4]
	.loc	10 326 9 is_stmt 0              @ lvgl/src/lv_widgets/lv_cont.c:326:9
	bl	lv_cont_layout_col
	.loc	10 327 5 is_stmt 1              @ lvgl/src/lv_widgets/lv_cont.c:327:5
	b	.LBB10_25
.Ltmp140:
.LBB10_12:
	.loc	10 328 13                       @ lvgl/src/lv_widgets/lv_cont.c:328:13
	ldrb.w	r0, [sp, #3]
	.loc	10 328 39 is_stmt 0             @ lvgl/src/lv_widgets/lv_cont.c:328:39
	cmp	r0, #5
	beq	.LBB10_15
	b	.LBB10_13
.LBB10_13:
	.loc	10 328 42                       @ lvgl/src/lv_widgets/lv_cont.c:328:42
	ldrb.w	r0, [sp, #3]
	.loc	10 328 68                       @ lvgl/src/lv_widgets/lv_cont.c:328:68
	cmp	r0, #6
	beq	.LBB10_15
	b	.LBB10_14
.LBB10_14:
	.loc	10 328 71                       @ lvgl/src/lv_widgets/lv_cont.c:328:71
	ldrb.w	r0, [sp, #3]
.Ltmp141:
	.loc	10 328 13                       @ lvgl/src/lv_widgets/lv_cont.c:328:13
	cmp	r0, #7
	bne	.LBB10_16
	b	.LBB10_15
.LBB10_15:
.Ltmp142:
	.loc	10 329 28 is_stmt 1             @ lvgl/src/lv_widgets/lv_cont.c:329:28
	ldr	r0, [sp, #4]
	.loc	10 329 9 is_stmt 0              @ lvgl/src/lv_widgets/lv_cont.c:329:9
	bl	lv_cont_layout_row
	.loc	10 330 5 is_stmt 1              @ lvgl/src/lv_widgets/lv_cont.c:330:5
	b	.LBB10_24
.Ltmp143:
.LBB10_16:
	.loc	10 331 13                       @ lvgl/src/lv_widgets/lv_cont.c:331:13
	ldrb.w	r0, [sp, #3]
	.loc	10 331 42 is_stmt 0             @ lvgl/src/lv_widgets/lv_cont.c:331:42
	cmp	r0, #9
	beq	.LBB10_19
	b	.LBB10_17
.LBB10_17:
	.loc	10 331 45                       @ lvgl/src/lv_widgets/lv_cont.c:331:45
	ldrb.w	r0, [sp, #3]
	.loc	10 331 74                       @ lvgl/src/lv_widgets/lv_cont.c:331:74
	cmp	r0, #8
	beq	.LBB10_19
	b	.LBB10_18
.LBB10_18:
	.loc	10 331 77                       @ lvgl/src/lv_widgets/lv_cont.c:331:77
	ldrb.w	r0, [sp, #3]
.Ltmp144:
	.loc	10 331 13                       @ lvgl/src/lv_widgets/lv_cont.c:331:13
	cmp	r0, #10
	bne	.LBB10_20
	b	.LBB10_19
.LBB10_19:
.Ltmp145:
	.loc	10 332 31 is_stmt 1             @ lvgl/src/lv_widgets/lv_cont.c:332:31
	ldr	r0, [sp, #4]
	.loc	10 332 9 is_stmt 0              @ lvgl/src/lv_widgets/lv_cont.c:332:9
	bl	lv_cont_layout_pretty
	.loc	10 333 5 is_stmt 1              @ lvgl/src/lv_widgets/lv_cont.c:333:5
	b	.LBB10_23
.Ltmp146:
.LBB10_20:
	.loc	10 334 13                       @ lvgl/src/lv_widgets/lv_cont.c:334:13
	ldrb.w	r0, [sp, #3]
.Ltmp147:
	.loc	10 334 13 is_stmt 0             @ lvgl/src/lv_widgets/lv_cont.c:334:13
	cmp	r0, #11
	bne	.LBB10_22
	b	.LBB10_21
.LBB10_21:
.Ltmp148:
	.loc	10 335 29 is_stmt 1             @ lvgl/src/lv_widgets/lv_cont.c:335:29
	ldr	r0, [sp, #4]
	.loc	10 335 9 is_stmt 0              @ lvgl/src/lv_widgets/lv_cont.c:335:9
	bl	lv_cont_layout_grid
	.loc	10 336 5 is_stmt 1              @ lvgl/src/lv_widgets/lv_cont.c:336:5
	b	.LBB10_22
.Ltmp149:
.LBB10_22:
	.loc	10 0 5 is_stmt 0                @ lvgl/src/lv_widgets/lv_cont.c:0:5
	b	.LBB10_23
.LBB10_23:
	b	.LBB10_24
.LBB10_24:
	b	.LBB10_25
.LBB10_25:
	b	.LBB10_26
.LBB10_26:
	.loc	10 337 1 is_stmt 1              @ lvgl/src/lv_widgets/lv_cont.c:337:1
	add	sp, #8
	pop	{r7, pc}
.Ltmp150:
.Lfunc_end10:
	.size	lv_cont_refr_layout, .Lfunc_end10-lv_cont_refr_layout
	.cfi_endproc
	.cantunwind
	.fnend
                                        @ -- End function
	.section	.text.lv_cont_refr_autofit,"ax",%progbits
	.p2align	3                               @ -- Begin function lv_cont_refr_autofit
	.type	lv_cont_refr_autofit,%function
	.code	16                              @ @lv_cont_refr_autofit
	.thumb_func
lv_cont_refr_autofit:
.Lfunc_begin11:
	.loc	10 660 0                        @ lvgl/src/lv_widgets/lv_cont.c:660:0
	.fnstart
	.cfi_startproc
@ %bb.0:
	.save	{r7, lr}
	push	{r7, lr}
	.cfi_def_cfa_offset 8
	.cfi_offset lr, -4
	.cfi_offset r7, -8
	.pad	#136
	sub	sp, #136
	.cfi_def_cfa_offset 144
	str	r0, [sp, #132]
.Ltmp151:
	.loc	10 661 28 prologue_end          @ lvgl/src/lv_widgets/lv_cont.c:661:28
	ldr	r0, [sp, #132]
	movs	r1, #1
	.loc	10 661 8 is_stmt 0              @ lvgl/src/lv_widgets/lv_cont.c:661:8
	bl	lv_obj_is_protected
.Ltmp152:
	.loc	10 661 8                        @ lvgl/src/lv_widgets/lv_cont.c:661:8
	cbz	r0, .LBB11_2
	b	.LBB11_1
.LBB11_1:
.Ltmp153:
	.loc	10 661 57                       @ lvgl/src/lv_widgets/lv_cont.c:661:57
	b	.LBB11_102
.Ltmp154:
.LBB11_2:
	.loc	10 662 47 is_stmt 1             @ lvgl/src/lv_widgets/lv_cont.c:662:47
	ldr	r0, [sp, #132]
	.loc	10 662 27 is_stmt 0             @ lvgl/src/lv_widgets/lv_cont.c:662:27
	bl	lv_obj_get_ext_attr
	.loc	10 662 21                       @ lvgl/src/lv_widgets/lv_cont.c:662:21
	str	r0, [sp, #128]
.Ltmp155:
	.loc	10 664 8 is_stmt 1              @ lvgl/src/lv_widgets/lv_cont.c:664:8
	ldr	r0, [sp, #128]
	.loc	10 664 13 is_stmt 0             @ lvgl/src/lv_widgets/lv_cont.c:664:13
	ldrb	r0, [r0]
	lsrs	r0, r0, #4
	.loc	10 664 37                       @ lvgl/src/lv_widgets/lv_cont.c:664:37
	lsls	r0, r0, #30
	cbnz	r0, .LBB11_7
	b	.LBB11_3
.LBB11_3:
	.loc	10 664 40                       @ lvgl/src/lv_widgets/lv_cont.c:664:40
	ldr	r0, [sp, #128]
	.loc	10 664 45                       @ lvgl/src/lv_widgets/lv_cont.c:664:45
	ldrb	r1, [r0]
	movs	r0, #0
	.loc	10 664 70                       @ lvgl/src/lv_widgets/lv_cont.c:664:70
	cmp.w	r0, r1, lsr #6
	bne	.LBB11_7
	b	.LBB11_4
.LBB11_4:
	.loc	10 664 73                       @ lvgl/src/lv_widgets/lv_cont.c:664:73
	ldr	r0, [sp, #128]
	.loc	10 664 78                       @ lvgl/src/lv_widgets/lv_cont.c:664:78
	ldrb	r0, [r0, #1]
	.loc	10 664 101                      @ lvgl/src/lv_widgets/lv_cont.c:664:101
	lsls	r0, r0, #30
	cbnz	r0, .LBB11_7
	b	.LBB11_5
.LBB11_5:
	.loc	10 665 8 is_stmt 1              @ lvgl/src/lv_widgets/lv_cont.c:665:8
	ldr	r0, [sp, #128]
	.loc	10 665 13 is_stmt 0             @ lvgl/src/lv_widgets/lv_cont.c:665:13
	ldrb	r0, [r0, #1]
	lsrs	r0, r0, #2
.Ltmp156:
	.loc	10 664 8 is_stmt 1              @ lvgl/src/lv_widgets/lv_cont.c:664:8
	lsls	r0, r0, #30
	cbnz	r0, .LBB11_7
	b	.LBB11_6
.LBB11_6:
.Ltmp157:
	.loc	10 666 9                        @ lvgl/src/lv_widgets/lv_cont.c:666:9
	b	.LBB11_102
.Ltmp158:
.LBB11_7:
	.loc	10 670 20                       @ lvgl/src/lv_widgets/lv_cont.c:670:20
	movw	r0, :lower16:lv_cont_refr_autofit.recursion_level
	movt	r0, :upper16:lv_cont_refr_autofit.recursion_level
	ldr	r1, [r0]
	adds	r1, #1
	str	r1, [r0]
.Ltmp159:
	.loc	10 672 8                        @ lvgl/src/lv_widgets/lv_cont.c:672:8
	ldr	r0, [r0]
.Ltmp160:
	.loc	10 672 8 is_stmt 0              @ lvgl/src/lv_widgets/lv_cont.c:672:8
	cmp	r0, #10
	bgt.w	.LBB11_100
	b	.LBB11_8
.LBB11_8:
.Ltmp161:
	.loc	10 677 58 is_stmt 1             @ lvgl/src/lv_widgets/lv_cont.c:677:58
	ldr	r0, [sp, #132]
	.loc	10 677 40 is_stmt 0             @ lvgl/src/lv_widgets/lv_cont.c:677:40
	bl	lv_obj_get_parent
	.loc	10 677 20                       @ lvgl/src/lv_widgets/lv_cont.c:677:20
	str	r0, [sp, #104]
	.loc	10 679 37 is_stmt 1             @ lvgl/src/lv_widgets/lv_cont.c:679:37
	ldr	r0, [sp, #104]
	.loc	10 679 42 is_stmt 0             @ lvgl/src/lv_widgets/lv_cont.c:679:42
	add.w	r1, r0, #16
	add	r0, sp, #96
	.loc	10 679 9                        @ lvgl/src/lv_widgets/lv_cont.c:679:9
	bl	lv_area_copy
	.loc	10 680 53 is_stmt 1             @ lvgl/src/lv_widgets/lv_cont.c:680:53
	ldr	r0, [sp, #104]
	movs	r1, #0
	.loc	10 680 27 is_stmt 0             @ lvgl/src/lv_widgets/lv_cont.c:680:27
	str	r1, [sp, #72]                   @ 4-byte Spill
	bl	lv_obj_get_style_pad_left
	ldr	r1, [sp, #72]                   @ 4-byte Reload
	mov	r2, r0
	.loc	10 680 24                       @ lvgl/src/lv_widgets/lv_cont.c:680:24
	ldrh.w	r0, [sp, #96]
	add	r0, r2
	strh.w	r0, [sp, #96]
	.loc	10 681 54 is_stmt 1             @ lvgl/src/lv_widgets/lv_cont.c:681:54
	ldr	r0, [sp, #104]
	.loc	10 681 27 is_stmt 0             @ lvgl/src/lv_widgets/lv_cont.c:681:27
	bl	lv_obj_get_style_pad_right
	ldr	r1, [sp, #72]                   @ 4-byte Reload
	mov	r2, r0
	.loc	10 681 24                       @ lvgl/src/lv_widgets/lv_cont.c:681:24
	ldrh.w	r0, [sp, #100]
	subs	r0, r0, r2
	strh.w	r0, [sp, #100]
	.loc	10 682 52 is_stmt 1             @ lvgl/src/lv_widgets/lv_cont.c:682:52
	ldr	r0, [sp, #104]
	.loc	10 682 27 is_stmt 0             @ lvgl/src/lv_widgets/lv_cont.c:682:27
	bl	lv_obj_get_style_pad_top
	ldr	r1, [sp, #72]                   @ 4-byte Reload
	mov	r2, r0
	.loc	10 682 24                       @ lvgl/src/lv_widgets/lv_cont.c:682:24
	ldrh.w	r0, [sp, #98]
	add	r0, r2
	strh.w	r0, [sp, #98]
	.loc	10 683 55 is_stmt 1             @ lvgl/src/lv_widgets/lv_cont.c:683:55
	ldr	r0, [sp, #104]
	.loc	10 683 27 is_stmt 0             @ lvgl/src/lv_widgets/lv_cont.c:683:27
	bl	lv_obj_get_style_pad_bottom
	mov	r1, r0
	.loc	10 683 24                       @ lvgl/src/lv_widgets/lv_cont.c:683:24
	ldrh.w	r0, [sp, #102]
	subs	r0, r0, r1
	strh.w	r0, [sp, #102]
	.loc	10 686 27 is_stmt 1             @ lvgl/src/lv_widgets/lv_cont.c:686:27
	ldr	r0, [sp, #132]
	add	r1, sp, #112
	.loc	10 686 9 is_stmt 0              @ lvgl/src/lv_widgets/lv_cont.c:686:9
	bl	lv_obj_get_coords
	.loc	10 687 27 is_stmt 1             @ lvgl/src/lv_widgets/lv_cont.c:687:27
	ldr	r0, [sp, #132]
	add	r1, sp, #120
	.loc	10 687 9 is_stmt 0              @ lvgl/src/lv_widgets/lv_cont.c:687:9
	bl	lv_obj_get_coords
	.loc	10 689 46 is_stmt 1             @ lvgl/src/lv_widgets/lv_cont.c:689:46
	ldr	r0, [sp, #132]
	.loc	10 689 52 is_stmt 0             @ lvgl/src/lv_widgets/lv_cont.c:689:52
	adds	r0, #4
	.loc	10 689 29                       @ lvgl/src/lv_widgets/lv_cont.c:689:29
	bl	_lv_ll_is_empty
	eor	r0, r0, #1
	.loc	10 689 14                       @ lvgl/src/lv_widgets/lv_cont.c:689:14
	strb.w	r0, [sp, #95]
.Ltmp162:
	.loc	10 691 12 is_stmt 1             @ lvgl/src/lv_widgets/lv_cont.c:691:12
	ldrb.w	r0, [sp, #95]
.Ltmp163:
	.loc	10 691 12 is_stmt 0             @ lvgl/src/lv_widgets/lv_cont.c:691:12
	lsls	r0, r0, #31
	cmp	r0, #0
	beq.w	.LBB11_36
	b	.LBB11_9
.LBB11_9:
	.loc	10 0 12                         @ lvgl/src/lv_widgets/lv_cont.c:0:12
	movw	r0, #31768
.Ltmp164:
	.loc	10 692 27 is_stmt 1             @ lvgl/src/lv_widgets/lv_cont.c:692:27
	strh.w	r0, [sp, #120]
	.loc	10 693 27                       @ lvgl/src/lv_widgets/lv_cont.c:693:27
	strh.w	r0, [sp, #122]
	movw	r0, #33768
	.loc	10 694 27                       @ lvgl/src/lv_widgets/lv_cont.c:694:27
	strh.w	r0, [sp, #124]
	.loc	10 695 27                       @ lvgl/src/lv_widgets/lv_cont.c:695:27
	strh.w	r0, [sp, #126]
.Ltmp165:
	.loc	10 697 13                       @ lvgl/src/lv_widgets/lv_cont.c:697:13
	ldr	r0, [sp, #132]
	adds	r0, #4
	bl	_lv_ll_get_head
	str	r0, [sp, #108]
	b	.LBB11_10
.LBB11_10:                              @ =>This Inner Loop Header: Depth=1
.Ltmp166:
	.loc	10 697 13 is_stmt 0             @ lvgl/src/lv_widgets/lv_cont.c:697:13
	ldr	r0, [sp, #108]
.Ltmp167:
	.loc	10 697 13                       @ lvgl/src/lv_widgets/lv_cont.c:697:13
	cmp	r0, #0
	beq.w	.LBB11_35
	b	.LBB11_11
.LBB11_11:                              @   in Loop: Header=BB11_10 Depth=1
.Ltmp168:
	.loc	10 698 38 is_stmt 1             @ lvgl/src/lv_widgets/lv_cont.c:698:38
	ldr	r0, [sp, #108]
	.loc	10 698 20 is_stmt 0             @ lvgl/src/lv_widgets/lv_cont.c:698:20
	bl	lv_obj_get_hidden
.Ltmp169:
	.loc	10 698 20                       @ lvgl/src/lv_widgets/lv_cont.c:698:20
	cbz	r0, .LBB11_13
	b	.LBB11_12
.LBB11_12:                              @   in Loop: Header=BB11_10 Depth=1
.Ltmp170:
	.loc	10 698 57                       @ lvgl/src/lv_widgets/lv_cont.c:698:57
	b	.LBB11_34
.Ltmp171:
.LBB11_13:                              @   in Loop: Header=BB11_10 Depth=1
	.loc	10 700 20 is_stmt 1             @ lvgl/src/lv_widgets/lv_cont.c:700:20
	ldr	r0, [sp, #128]
	.loc	10 700 25 is_stmt 0             @ lvgl/src/lv_widgets/lv_cont.c:700:25
	ldrb	r0, [r0]
	ubfx	r0, r0, #4, #2
.Ltmp172:
	.loc	10 700 20                       @ lvgl/src/lv_widgets/lv_cont.c:700:20
	cmp	r0, #2
	beq	.LBB11_18
	b	.LBB11_14
.LBB11_14:                              @   in Loop: Header=BB11_10 Depth=1
.Ltmp173:
	.loc	10 701 73 is_stmt 1             @ lvgl/src/lv_widgets/lv_cont.c:701:73
	ldr	r0, [sp, #108]
	movs	r1, #0
	.loc	10 701 44 is_stmt 0             @ lvgl/src/lv_widgets/lv_cont.c:701:44
	bl	lv_obj_get_style_margin_left
	.loc	10 701 36                       @ lvgl/src/lv_widgets/lv_cont.c:701:36
	strh.w	r0, [sp, #92]
	.loc	10 702 37 is_stmt 1             @ lvgl/src/lv_widgets/lv_cont.c:702:37
	ldrsh.w	r0, [sp, #120]
	ldr	r1, [sp, #108]
	ldrsh.w	r1, [r1, #16]
	ldrsh.w	r2, [sp, #92]
	subs	r1, r1, r2
	cmp	r0, r1
	bge	.LBB11_16
	b	.LBB11_15
.LBB11_15:                              @   in Loop: Header=BB11_10 Depth=1
	ldrsh.w	r0, [sp, #120]
	str	r0, [sp, #68]                   @ 4-byte Spill
	b	.LBB11_17
.LBB11_16:                              @   in Loop: Header=BB11_10 Depth=1
	ldr	r0, [sp, #108]
	ldrsh.w	r0, [r0, #16]
	ldrsh.w	r1, [sp, #92]
	subs	r0, r0, r1
	str	r0, [sp, #68]                   @ 4-byte Spill
	b	.LBB11_17
.LBB11_17:                              @   in Loop: Header=BB11_10 Depth=1
	ldr	r0, [sp, #68]                   @ 4-byte Reload
	.loc	10 702 35 is_stmt 0             @ lvgl/src/lv_widgets/lv_cont.c:702:35
	strh.w	r0, [sp, #120]
	.loc	10 703 17 is_stmt 1             @ lvgl/src/lv_widgets/lv_cont.c:703:17
	b	.LBB11_18
.Ltmp174:
.LBB11_18:                              @   in Loop: Header=BB11_10 Depth=1
	.loc	10 705 20                       @ lvgl/src/lv_widgets/lv_cont.c:705:20
	ldr	r0, [sp, #128]
	.loc	10 705 25 is_stmt 0             @ lvgl/src/lv_widgets/lv_cont.c:705:25
	ldrb	r1, [r0]
	movs	r0, #2
.Ltmp175:
	.loc	10 705 20                       @ lvgl/src/lv_widgets/lv_cont.c:705:20
	cmp.w	r0, r1, lsr #6
	beq	.LBB11_23
	b	.LBB11_19
.LBB11_19:                              @   in Loop: Header=BB11_10 Depth=1
.Ltmp176:
	.loc	10 706 75 is_stmt 1             @ lvgl/src/lv_widgets/lv_cont.c:706:75
	ldr	r0, [sp, #108]
	movs	r1, #0
	.loc	10 706 45 is_stmt 0             @ lvgl/src/lv_widgets/lv_cont.c:706:45
	bl	lv_obj_get_style_margin_right
	.loc	10 706 36                       @ lvgl/src/lv_widgets/lv_cont.c:706:36
	strh.w	r0, [sp, #90]
	.loc	10 707 37 is_stmt 1             @ lvgl/src/lv_widgets/lv_cont.c:707:37
	ldrsh.w	r0, [sp, #124]
	ldr	r1, [sp, #108]
	ldrsh.w	r1, [r1, #20]
	ldrsh.w	r2, [sp, #90]
	add	r1, r2
	cmp	r0, r1
	ble	.LBB11_21
	b	.LBB11_20
.LBB11_20:                              @   in Loop: Header=BB11_10 Depth=1
	ldrsh.w	r0, [sp, #124]
	str	r0, [sp, #64]                   @ 4-byte Spill
	b	.LBB11_22
.LBB11_21:                              @   in Loop: Header=BB11_10 Depth=1
	ldr	r0, [sp, #108]
	ldrsh.w	r0, [r0, #20]
	ldrsh.w	r1, [sp, #90]
	add	r0, r1
	str	r0, [sp, #64]                   @ 4-byte Spill
	b	.LBB11_22
.LBB11_22:                              @   in Loop: Header=BB11_10 Depth=1
	ldr	r0, [sp, #64]                   @ 4-byte Reload
	.loc	10 707 35 is_stmt 0             @ lvgl/src/lv_widgets/lv_cont.c:707:35
	strh.w	r0, [sp, #124]
	.loc	10 708 17 is_stmt 1             @ lvgl/src/lv_widgets/lv_cont.c:708:17
	b	.LBB11_23
.Ltmp177:
.LBB11_23:                              @   in Loop: Header=BB11_10 Depth=1
	.loc	10 710 20                       @ lvgl/src/lv_widgets/lv_cont.c:710:20
	ldr	r0, [sp, #128]
	.loc	10 710 25 is_stmt 0             @ lvgl/src/lv_widgets/lv_cont.c:710:25
	ldrb	r0, [r0, #1]
	and	r0, r0, #3
.Ltmp178:
	.loc	10 710 20                       @ lvgl/src/lv_widgets/lv_cont.c:710:20
	cmp	r0, #2
	beq	.LBB11_28
	b	.LBB11_24
.LBB11_24:                              @   in Loop: Header=BB11_10 Depth=1
.Ltmp179:
	.loc	10 711 71 is_stmt 1             @ lvgl/src/lv_widgets/lv_cont.c:711:71
	ldr	r0, [sp, #108]
	movs	r1, #0
	.loc	10 711 43 is_stmt 0             @ lvgl/src/lv_widgets/lv_cont.c:711:43
	bl	lv_obj_get_style_margin_top
	.loc	10 711 36                       @ lvgl/src/lv_widgets/lv_cont.c:711:36
	strh.w	r0, [sp, #88]
	.loc	10 712 37 is_stmt 1             @ lvgl/src/lv_widgets/lv_cont.c:712:37
	ldrsh.w	r0, [sp, #122]
	ldr	r1, [sp, #108]
	ldrsh.w	r1, [r1, #18]
	ldrsh.w	r2, [sp, #88]
	subs	r1, r1, r2
	cmp	r0, r1
	bge	.LBB11_26
	b	.LBB11_25
.LBB11_25:                              @   in Loop: Header=BB11_10 Depth=1
	ldrsh.w	r0, [sp, #122]
	str	r0, [sp, #60]                   @ 4-byte Spill
	b	.LBB11_27
.LBB11_26:                              @   in Loop: Header=BB11_10 Depth=1
	ldr	r0, [sp, #108]
	ldrsh.w	r0, [r0, #18]
	ldrsh.w	r1, [sp, #88]
	subs	r0, r0, r1
	str	r0, [sp, #60]                   @ 4-byte Spill
	b	.LBB11_27
.LBB11_27:                              @   in Loop: Header=BB11_10 Depth=1
	ldr	r0, [sp, #60]                   @ 4-byte Reload
	.loc	10 712 35 is_stmt 0             @ lvgl/src/lv_widgets/lv_cont.c:712:35
	strh.w	r0, [sp, #122]
	.loc	10 713 17 is_stmt 1             @ lvgl/src/lv_widgets/lv_cont.c:713:17
	b	.LBB11_28
.Ltmp180:
.LBB11_28:                              @   in Loop: Header=BB11_10 Depth=1
	.loc	10 715 20                       @ lvgl/src/lv_widgets/lv_cont.c:715:20
	ldr	r0, [sp, #128]
	.loc	10 715 25 is_stmt 0             @ lvgl/src/lv_widgets/lv_cont.c:715:25
	ldrb	r0, [r0, #1]
	ubfx	r0, r0, #2, #2
.Ltmp181:
	.loc	10 715 20                       @ lvgl/src/lv_widgets/lv_cont.c:715:20
	cmp	r0, #2
	beq	.LBB11_33
	b	.LBB11_29
.LBB11_29:                              @   in Loop: Header=BB11_10 Depth=1
.Ltmp182:
	.loc	10 716 77 is_stmt 1             @ lvgl/src/lv_widgets/lv_cont.c:716:77
	ldr	r0, [sp, #108]
	movs	r1, #0
	.loc	10 716 46 is_stmt 0             @ lvgl/src/lv_widgets/lv_cont.c:716:46
	bl	lv_obj_get_style_margin_bottom
	.loc	10 716 36                       @ lvgl/src/lv_widgets/lv_cont.c:716:36
	strh.w	r0, [sp, #86]
	.loc	10 717 37 is_stmt 1             @ lvgl/src/lv_widgets/lv_cont.c:717:37
	ldrsh.w	r0, [sp, #126]
	ldr	r1, [sp, #108]
	ldrsh.w	r1, [r1, #22]
	ldrsh.w	r2, [sp, #86]
	add	r1, r2
	cmp	r0, r1
	ble	.LBB11_31
	b	.LBB11_30
.LBB11_30:                              @   in Loop: Header=BB11_10 Depth=1
	ldrsh.w	r0, [sp, #126]
	str	r0, [sp, #56]                   @ 4-byte Spill
	b	.LBB11_32
.LBB11_31:                              @   in Loop: Header=BB11_10 Depth=1
	ldr	r0, [sp, #108]
	ldrsh.w	r0, [r0, #22]
	ldrsh.w	r1, [sp, #86]
	add	r0, r1
	str	r0, [sp, #56]                   @ 4-byte Spill
	b	.LBB11_32
.LBB11_32:                              @   in Loop: Header=BB11_10 Depth=1
	ldr	r0, [sp, #56]                   @ 4-byte Reload
	.loc	10 717 35 is_stmt 0             @ lvgl/src/lv_widgets/lv_cont.c:717:35
	strh.w	r0, [sp, #126]
	.loc	10 718 17 is_stmt 1             @ lvgl/src/lv_widgets/lv_cont.c:718:17
	b	.LBB11_33
.Ltmp183:
.LBB11_33:                              @   in Loop: Header=BB11_10 Depth=1
	.loc	10 719 13                       @ lvgl/src/lv_widgets/lv_cont.c:719:13
	b	.LBB11_34
.Ltmp184:
.LBB11_34:                              @   in Loop: Header=BB11_10 Depth=1
	.loc	10 697 13                       @ lvgl/src/lv_widgets/lv_cont.c:697:13
	ldr	r0, [sp, #132]
	adds	r0, #4
	ldr	r1, [sp, #108]
	bl	_lv_ll_get_next
	str	r0, [sp, #108]
	b	.LBB11_10
.Ltmp185:
.LBB11_35:
	.loc	10 721 56                       @ lvgl/src/lv_widgets/lv_cont.c:721:56
	ldr	r0, [sp, #132]
	movs	r1, #0
	.loc	10 721 30 is_stmt 0             @ lvgl/src/lv_widgets/lv_cont.c:721:30
	str	r1, [sp, #52]                   @ 4-byte Spill
	bl	lv_obj_get_style_pad_left
	ldr	r1, [sp, #52]                   @ 4-byte Reload
	mov	r2, r0
	.loc	10 721 27                       @ lvgl/src/lv_widgets/lv_cont.c:721:27
	ldrh.w	r0, [sp, #120]
	subs	r0, r0, r2
	strh.w	r0, [sp, #120]
	.loc	10 722 57 is_stmt 1             @ lvgl/src/lv_widgets/lv_cont.c:722:57
	ldr	r0, [sp, #132]
	.loc	10 722 30 is_stmt 0             @ lvgl/src/lv_widgets/lv_cont.c:722:30
	bl	lv_obj_get_style_pad_right
	ldr	r1, [sp, #52]                   @ 4-byte Reload
	mov	r2, r0
	.loc	10 722 27                       @ lvgl/src/lv_widgets/lv_cont.c:722:27
	ldrh.w	r0, [sp, #124]
	add	r0, r2
	strh.w	r0, [sp, #124]
	.loc	10 723 55 is_stmt 1             @ lvgl/src/lv_widgets/lv_cont.c:723:55
	ldr	r0, [sp, #132]
	.loc	10 723 30 is_stmt 0             @ lvgl/src/lv_widgets/lv_cont.c:723:30
	bl	lv_obj_get_style_pad_top
	ldr	r1, [sp, #52]                   @ 4-byte Reload
	mov	r2, r0
	.loc	10 723 27                       @ lvgl/src/lv_widgets/lv_cont.c:723:27
	ldrh.w	r0, [sp, #122]
	subs	r0, r0, r2
	strh.w	r0, [sp, #122]
	.loc	10 724 58 is_stmt 1             @ lvgl/src/lv_widgets/lv_cont.c:724:58
	ldr	r0, [sp, #132]
	.loc	10 724 30 is_stmt 0             @ lvgl/src/lv_widgets/lv_cont.c:724:30
	bl	lv_obj_get_style_pad_bottom
	mov	r1, r0
	.loc	10 724 27                       @ lvgl/src/lv_widgets/lv_cont.c:724:27
	ldrh.w	r0, [sp, #126]
	add	r0, r1
	strh.w	r0, [sp, #126]
	.loc	10 725 9 is_stmt 1              @ lvgl/src/lv_widgets/lv_cont.c:725:9
	b	.LBB11_36
.Ltmp186:
.LBB11_36:
	.loc	10 0 9 is_stmt 0                @ lvgl/src/lv_widgets/lv_cont.c:0:9
	add	r0, sp, #76
	add	r1, sp, #112
	.loc	10 728 9 is_stmt 1              @ lvgl/src/lv_widgets/lv_cont.c:728:9
	bl	lv_area_copy
	.loc	10 730 16                       @ lvgl/src/lv_widgets/lv_cont.c:730:16
	ldr	r0, [sp, #128]
	.loc	10 730 21 is_stmt 0             @ lvgl/src/lv_widgets/lv_cont.c:730:21
	ldrb	r0, [r0]
	ubfx	r0, r0, #4, #2
	.loc	10 730 9                        @ lvgl/src/lv_widgets/lv_cont.c:730:9
	mov	r1, r0
	str	r1, [sp, #48]                   @ 4-byte Spill
	cmp	r0, #1
	beq	.LBB11_39
	b	.LBB11_37
.LBB11_37:
	ldr	r0, [sp, #48]                   @ 4-byte Reload
	cmp	r0, #2
	beq	.LBB11_40
	b	.LBB11_38
.LBB11_38:
	ldr	r0, [sp, #48]                   @ 4-byte Reload
	cmp	r0, #3
	beq	.LBB11_41
	b	.LBB11_48
.LBB11_39:
.Ltmp187:
	.loc	10 732 42 is_stmt 1             @ lvgl/src/lv_widgets/lv_cont.c:732:42
	ldrh.w	r0, [sp, #120]
	.loc	10 732 29 is_stmt 0             @ lvgl/src/lv_widgets/lv_cont.c:732:29
	strh.w	r0, [sp, #76]
	.loc	10 733 17 is_stmt 1             @ lvgl/src/lv_widgets/lv_cont.c:733:17
	b	.LBB11_49
.LBB11_40:
	.loc	10 735 43                       @ lvgl/src/lv_widgets/lv_cont.c:735:43
	ldrh.w	r0, [sp, #96]
	.loc	10 735 29 is_stmt 0             @ lvgl/src/lv_widgets/lv_cont.c:735:29
	strh.w	r0, [sp, #76]
	.loc	10 736 17 is_stmt 1             @ lvgl/src/lv_widgets/lv_cont.c:736:17
	b	.LBB11_49
.LBB11_41:
	.loc	10 738 31                       @ lvgl/src/lv_widgets/lv_cont.c:738:31
	ldrb.w	r0, [sp, #95]
	lsls	r0, r0, #31
	cbz	r0, .LBB11_46
	b	.LBB11_42
.LBB11_42:
	.loc	10 738 46 is_stmt 0             @ lvgl/src/lv_widgets/lv_cont.c:738:46
	ldrsh.w	r0, [sp, #120]
	ldrsh.w	r1, [sp, #96]
	cmp	r0, r1
	bge	.LBB11_44
	b	.LBB11_43
.LBB11_43:
	ldrsh.w	r0, [sp, #120]
	str	r0, [sp, #44]                   @ 4-byte Spill
	b	.LBB11_45
.LBB11_44:
	ldrsh.w	r0, [sp, #96]
	str	r0, [sp, #44]                   @ 4-byte Spill
	b	.LBB11_45
.LBB11_45:
	ldr	r0, [sp, #44]                   @ 4-byte Reload
	.loc	10 738 31                       @ lvgl/src/lv_widgets/lv_cont.c:738:31
	str	r0, [sp, #40]                   @ 4-byte Spill
	b	.LBB11_47
.LBB11_46:
	.loc	10 738 103                      @ lvgl/src/lv_widgets/lv_cont.c:738:103
	ldrsh.w	r0, [sp, #96]
	.loc	10 738 31                       @ lvgl/src/lv_widgets/lv_cont.c:738:31
	str	r0, [sp, #40]                   @ 4-byte Spill
	b	.LBB11_47
.LBB11_47:
	ldr	r0, [sp, #40]                   @ 4-byte Reload
	.loc	10 738 29                       @ lvgl/src/lv_widgets/lv_cont.c:738:29
	strh.w	r0, [sp, #76]
	.loc	10 739 17 is_stmt 1             @ lvgl/src/lv_widgets/lv_cont.c:739:17
	b	.LBB11_49
.LBB11_48:
	.loc	10 741 17                       @ lvgl/src/lv_widgets/lv_cont.c:741:17
	b	.LBB11_49
.Ltmp188:
.LBB11_49:
	.loc	10 744 16                       @ lvgl/src/lv_widgets/lv_cont.c:744:16
	ldr	r0, [sp, #128]
	.loc	10 744 21 is_stmt 0             @ lvgl/src/lv_widgets/lv_cont.c:744:21
	ldrb	r1, [r0]
	lsrs	r0, r1, #6
	str	r0, [sp, #36]                   @ 4-byte Spill
	movs	r0, #1
	.loc	10 744 9                        @ lvgl/src/lv_widgets/lv_cont.c:744:9
	cmp.w	r0, r1, lsr #6
	beq	.LBB11_52
	b	.LBB11_50
.LBB11_50:
	ldr	r0, [sp, #36]                   @ 4-byte Reload
	cmp	r0, #2
	beq	.LBB11_53
	b	.LBB11_51
.LBB11_51:
	ldr	r0, [sp, #36]                   @ 4-byte Reload
	cmp	r0, #3
	beq	.LBB11_54
	b	.LBB11_61
.LBB11_52:
.Ltmp189:
	.loc	10 746 42 is_stmt 1             @ lvgl/src/lv_widgets/lv_cont.c:746:42
	ldrh.w	r0, [sp, #124]
	.loc	10 746 29 is_stmt 0             @ lvgl/src/lv_widgets/lv_cont.c:746:29
	strh.w	r0, [sp, #80]
	.loc	10 747 17 is_stmt 1             @ lvgl/src/lv_widgets/lv_cont.c:747:17
	b	.LBB11_62
.LBB11_53:
	.loc	10 749 43                       @ lvgl/src/lv_widgets/lv_cont.c:749:43
	ldrh.w	r0, [sp, #100]
	.loc	10 749 29 is_stmt 0             @ lvgl/src/lv_widgets/lv_cont.c:749:29
	strh.w	r0, [sp, #80]
	.loc	10 750 17 is_stmt 1             @ lvgl/src/lv_widgets/lv_cont.c:750:17
	b	.LBB11_62
.LBB11_54:
	.loc	10 752 31                       @ lvgl/src/lv_widgets/lv_cont.c:752:31
	ldrb.w	r0, [sp, #95]
	lsls	r0, r0, #31
	cbz	r0, .LBB11_59
	b	.LBB11_55
.LBB11_55:
	.loc	10 752 46 is_stmt 0             @ lvgl/src/lv_widgets/lv_cont.c:752:46
	ldrsh.w	r0, [sp, #124]
	ldrsh.w	r1, [sp, #100]
	cmp	r0, r1
	ble	.LBB11_57
	b	.LBB11_56
.LBB11_56:
	ldrsh.w	r0, [sp, #124]
	str	r0, [sp, #32]                   @ 4-byte Spill
	b	.LBB11_58
.LBB11_57:
	ldrsh.w	r0, [sp, #100]
	str	r0, [sp, #32]                   @ 4-byte Spill
	b	.LBB11_58
.LBB11_58:
	ldr	r0, [sp, #32]                   @ 4-byte Reload
	.loc	10 752 31                       @ lvgl/src/lv_widgets/lv_cont.c:752:31
	str	r0, [sp, #28]                   @ 4-byte Spill
	b	.LBB11_60
.LBB11_59:
	.loc	10 752 103                      @ lvgl/src/lv_widgets/lv_cont.c:752:103
	ldrsh.w	r0, [sp, #100]
	.loc	10 752 31                       @ lvgl/src/lv_widgets/lv_cont.c:752:31
	str	r0, [sp, #28]                   @ 4-byte Spill
	b	.LBB11_60
.LBB11_60:
	ldr	r0, [sp, #28]                   @ 4-byte Reload
	.loc	10 752 29                       @ lvgl/src/lv_widgets/lv_cont.c:752:29
	strh.w	r0, [sp, #80]
	.loc	10 753 17 is_stmt 1             @ lvgl/src/lv_widgets/lv_cont.c:753:17
	b	.LBB11_62
.LBB11_61:
	.loc	10 755 17                       @ lvgl/src/lv_widgets/lv_cont.c:755:17
	b	.LBB11_62
.Ltmp190:
.LBB11_62:
	.loc	10 758 16                       @ lvgl/src/lv_widgets/lv_cont.c:758:16
	ldr	r0, [sp, #128]
	.loc	10 758 21 is_stmt 0             @ lvgl/src/lv_widgets/lv_cont.c:758:21
	ldrb	r0, [r0, #1]
	.loc	10 758 16                       @ lvgl/src/lv_widgets/lv_cont.c:758:16
	and	r0, r0, #3
	.loc	10 758 9                        @ lvgl/src/lv_widgets/lv_cont.c:758:9
	mov	r1, r0
	str	r1, [sp, #24]                   @ 4-byte Spill
	cmp	r0, #1
	beq	.LBB11_65
	b	.LBB11_63
.LBB11_63:
	ldr	r0, [sp, #24]                   @ 4-byte Reload
	cmp	r0, #2
	beq	.LBB11_66
	b	.LBB11_64
.LBB11_64:
	ldr	r0, [sp, #24]                   @ 4-byte Reload
	cmp	r0, #3
	beq	.LBB11_67
	b	.LBB11_74
.LBB11_65:
.Ltmp191:
	.loc	10 760 42 is_stmt 1             @ lvgl/src/lv_widgets/lv_cont.c:760:42
	ldrh.w	r0, [sp, #122]
	.loc	10 760 29 is_stmt 0             @ lvgl/src/lv_widgets/lv_cont.c:760:29
	strh.w	r0, [sp, #78]
	.loc	10 761 17 is_stmt 1             @ lvgl/src/lv_widgets/lv_cont.c:761:17
	b	.LBB11_75
.LBB11_66:
	.loc	10 763 43                       @ lvgl/src/lv_widgets/lv_cont.c:763:43
	ldrh.w	r0, [sp, #98]
	.loc	10 763 29 is_stmt 0             @ lvgl/src/lv_widgets/lv_cont.c:763:29
	strh.w	r0, [sp, #78]
	.loc	10 764 17 is_stmt 1             @ lvgl/src/lv_widgets/lv_cont.c:764:17
	b	.LBB11_75
.LBB11_67:
	.loc	10 766 31                       @ lvgl/src/lv_widgets/lv_cont.c:766:31
	ldrb.w	r0, [sp, #95]
	lsls	r0, r0, #31
	cbz	r0, .LBB11_72
	b	.LBB11_68
.LBB11_68:
	.loc	10 766 46 is_stmt 0             @ lvgl/src/lv_widgets/lv_cont.c:766:46
	ldrsh.w	r0, [sp, #122]
	ldrsh.w	r1, [sp, #98]
	cmp	r0, r1
	bge	.LBB11_70
	b	.LBB11_69
.LBB11_69:
	ldrsh.w	r0, [sp, #122]
	str	r0, [sp, #20]                   @ 4-byte Spill
	b	.LBB11_71
.LBB11_70:
	ldrsh.w	r0, [sp, #98]
	str	r0, [sp, #20]                   @ 4-byte Spill
	b	.LBB11_71
.LBB11_71:
	ldr	r0, [sp, #20]                   @ 4-byte Reload
	.loc	10 766 31                       @ lvgl/src/lv_widgets/lv_cont.c:766:31
	str	r0, [sp, #16]                   @ 4-byte Spill
	b	.LBB11_73
.LBB11_72:
	.loc	10 766 103                      @ lvgl/src/lv_widgets/lv_cont.c:766:103
	ldrsh.w	r0, [sp, #98]
	.loc	10 766 31                       @ lvgl/src/lv_widgets/lv_cont.c:766:31
	str	r0, [sp, #16]                   @ 4-byte Spill
	b	.LBB11_73
.LBB11_73:
	ldr	r0, [sp, #16]                   @ 4-byte Reload
	.loc	10 766 29                       @ lvgl/src/lv_widgets/lv_cont.c:766:29
	strh.w	r0, [sp, #78]
	.loc	10 767 17 is_stmt 1             @ lvgl/src/lv_widgets/lv_cont.c:767:17
	b	.LBB11_75
.LBB11_74:
	.loc	10 769 17                       @ lvgl/src/lv_widgets/lv_cont.c:769:17
	b	.LBB11_75
.Ltmp192:
.LBB11_75:
	.loc	10 772 16                       @ lvgl/src/lv_widgets/lv_cont.c:772:16
	ldr	r0, [sp, #128]
	.loc	10 772 21 is_stmt 0             @ lvgl/src/lv_widgets/lv_cont.c:772:21
	ldrb	r0, [r0, #1]
	ubfx	r0, r0, #2, #2
	.loc	10 772 9                        @ lvgl/src/lv_widgets/lv_cont.c:772:9
	mov	r1, r0
	str	r1, [sp, #12]                   @ 4-byte Spill
	cmp	r0, #1
	beq	.LBB11_78
	b	.LBB11_76
.LBB11_76:
	ldr	r0, [sp, #12]                   @ 4-byte Reload
	cmp	r0, #2
	beq	.LBB11_79
	b	.LBB11_77
.LBB11_77:
	ldr	r0, [sp, #12]                   @ 4-byte Reload
	cmp	r0, #3
	beq	.LBB11_80
	b	.LBB11_87
.LBB11_78:
.Ltmp193:
	.loc	10 774 42 is_stmt 1             @ lvgl/src/lv_widgets/lv_cont.c:774:42
	ldrh.w	r0, [sp, #126]
	.loc	10 774 29 is_stmt 0             @ lvgl/src/lv_widgets/lv_cont.c:774:29
	strh.w	r0, [sp, #82]
	.loc	10 775 17 is_stmt 1             @ lvgl/src/lv_widgets/lv_cont.c:775:17
	b	.LBB11_88
.LBB11_79:
	.loc	10 777 43                       @ lvgl/src/lv_widgets/lv_cont.c:777:43
	ldrh.w	r0, [sp, #102]
	.loc	10 777 29 is_stmt 0             @ lvgl/src/lv_widgets/lv_cont.c:777:29
	strh.w	r0, [sp, #82]
	.loc	10 778 17 is_stmt 1             @ lvgl/src/lv_widgets/lv_cont.c:778:17
	b	.LBB11_88
.LBB11_80:
	.loc	10 780 31                       @ lvgl/src/lv_widgets/lv_cont.c:780:31
	ldrb.w	r0, [sp, #95]
	lsls	r0, r0, #31
	cbz	r0, .LBB11_85
	b	.LBB11_81
.LBB11_81:
	.loc	10 780 46 is_stmt 0             @ lvgl/src/lv_widgets/lv_cont.c:780:46
	ldrsh.w	r0, [sp, #126]
	ldrsh.w	r1, [sp, #102]
	cmp	r0, r1
	ble	.LBB11_83
	b	.LBB11_82
.LBB11_82:
	ldrsh.w	r0, [sp, #126]
	str	r0, [sp, #8]                    @ 4-byte Spill
	b	.LBB11_84
.LBB11_83:
	ldrsh.w	r0, [sp, #102]
	str	r0, [sp, #8]                    @ 4-byte Spill
	b	.LBB11_84
.LBB11_84:
	ldr	r0, [sp, #8]                    @ 4-byte Reload
	.loc	10 780 31                       @ lvgl/src/lv_widgets/lv_cont.c:780:31
	str	r0, [sp, #4]                    @ 4-byte Spill
	b	.LBB11_86
.LBB11_85:
	.loc	10 780 103                      @ lvgl/src/lv_widgets/lv_cont.c:780:103
	ldrsh.w	r0, [sp, #102]
	.loc	10 780 31                       @ lvgl/src/lv_widgets/lv_cont.c:780:31
	str	r0, [sp, #4]                    @ 4-byte Spill
	b	.LBB11_86
.LBB11_86:
	ldr	r0, [sp, #4]                    @ 4-byte Reload
	.loc	10 780 29                       @ lvgl/src/lv_widgets/lv_cont.c:780:29
	strh.w	r0, [sp, #82]
	.loc	10 781 17 is_stmt 1             @ lvgl/src/lv_widgets/lv_cont.c:781:17
	b	.LBB11_88
.LBB11_87:
	.loc	10 783 17                       @ lvgl/src/lv_widgets/lv_cont.c:783:17
	b	.LBB11_88
.Ltmp194:
.LBB11_88:
	.loc	10 787 12                       @ lvgl/src/lv_widgets/lv_cont.c:787:12
	ldr	r0, [sp, #132]
	.loc	10 787 25 is_stmt 0             @ lvgl/src/lv_widgets/lv_cont.c:787:25
	ldrsh.w	r0, [r0, #16]
	.loc	10 787 40                       @ lvgl/src/lv_widgets/lv_cont.c:787:40
	ldrsh.w	r1, [sp, #76]
	.loc	10 787 43                       @ lvgl/src/lv_widgets/lv_cont.c:787:43
	cmp	r0, r1
	bne	.LBB11_92
	b	.LBB11_89
.LBB11_89:
	.loc	10 787 46                       @ lvgl/src/lv_widgets/lv_cont.c:787:46
	ldr	r0, [sp, #132]
	.loc	10 787 59                       @ lvgl/src/lv_widgets/lv_cont.c:787:59
	ldrsh.w	r0, [r0, #18]
	.loc	10 787 74                       @ lvgl/src/lv_widgets/lv_cont.c:787:74
	ldrsh.w	r1, [sp, #78]
	.loc	10 787 77                       @ lvgl/src/lv_widgets/lv_cont.c:787:77
	cmp	r0, r1
	bne	.LBB11_92
	b	.LBB11_90
.LBB11_90:
	.loc	10 787 80                       @ lvgl/src/lv_widgets/lv_cont.c:787:80
	ldr	r0, [sp, #132]
	.loc	10 787 93                       @ lvgl/src/lv_widgets/lv_cont.c:787:93
	ldrsh.w	r0, [r0, #20]
	.loc	10 787 108                      @ lvgl/src/lv_widgets/lv_cont.c:787:108
	ldrsh.w	r1, [sp, #80]
	.loc	10 787 111                      @ lvgl/src/lv_widgets/lv_cont.c:787:111
	cmp	r0, r1
	bne	.LBB11_92
	b	.LBB11_91
.LBB11_91:
	.loc	10 788 12 is_stmt 1             @ lvgl/src/lv_widgets/lv_cont.c:788:12
	ldr	r0, [sp, #132]
	.loc	10 788 25 is_stmt 0             @ lvgl/src/lv_widgets/lv_cont.c:788:25
	ldrsh.w	r0, [r0, #22]
	.loc	10 788 40                       @ lvgl/src/lv_widgets/lv_cont.c:788:40
	ldrsh.w	r1, [sp, #82]
.Ltmp195:
	.loc	10 787 12 is_stmt 1             @ lvgl/src/lv_widgets/lv_cont.c:787:12
	cmp	r0, r1
	beq	.LBB11_99
	b	.LBB11_92
.LBB11_92:
.Ltmp196:
	.loc	10 790 31                       @ lvgl/src/lv_widgets/lv_cont.c:790:31
	ldr	r0, [sp, #132]
	.loc	10 790 13 is_stmt 0             @ lvgl/src/lv_widgets/lv_cont.c:790:13
	bl	lv_obj_invalidate
	.loc	10 791 27 is_stmt 1             @ lvgl/src/lv_widgets/lv_cont.c:791:27
	ldr	r0, [sp, #132]
	.loc	10 791 33 is_stmt 0             @ lvgl/src/lv_widgets/lv_cont.c:791:33
	adds	r0, #16
	add	r1, sp, #76
	.loc	10 791 13                       @ lvgl/src/lv_widgets/lv_cont.c:791:13
	bl	lv_area_copy
	.loc	10 792 31 is_stmt 1             @ lvgl/src/lv_widgets/lv_cont.c:792:31
	ldr	r0, [sp, #132]
	.loc	10 792 13 is_stmt 0             @ lvgl/src/lv_widgets/lv_cont.c:792:13
	bl	lv_obj_invalidate
	.loc	10 795 13 is_stmt 1             @ lvgl/src/lv_widgets/lv_cont.c:795:13
	ldr	r0, [sp, #132]
	.loc	10 795 19 is_stmt 0             @ lvgl/src/lv_widgets/lv_cont.c:795:19
	ldr	r3, [r0, #28]
	movs	r1, #2
	add	r2, sp, #112
	.loc	10 795 13                       @ lvgl/src/lv_widgets/lv_cont.c:795:13
	blx	r3
	.loc	10 798 13 is_stmt 1             @ lvgl/src/lv_widgets/lv_cont.c:798:13
	ldr	r0, [sp, #104]
	.loc	10 798 18 is_stmt 0             @ lvgl/src/lv_widgets/lv_cont.c:798:18
	ldr	r3, [r0, #28]
	.loc	10 798 54                       @ lvgl/src/lv_widgets/lv_cont.c:798:54
	ldr	r2, [sp, #132]
	movs	r1, #1
	.loc	10 798 13                       @ lvgl/src/lv_widgets/lv_cont.c:798:13
	blx	r3
.Ltmp197:
	.loc	10 800 40 is_stmt 1             @ lvgl/src/lv_widgets/lv_cont.c:800:40
	ldr	r0, [sp, #132]
	.loc	10 800 16 is_stmt 0             @ lvgl/src/lv_widgets/lv_cont.c:800:16
	bl	lv_obj_get_auto_realign
.Ltmp198:
	.loc	10 800 16                       @ lvgl/src/lv_widgets/lv_cont.c:800:16
	cbz	r0, .LBB11_94
	b	.LBB11_93
.LBB11_93:
.Ltmp199:
	.loc	10 801 32 is_stmt 1             @ lvgl/src/lv_widgets/lv_cont.c:801:32
	ldr	r0, [sp, #132]
	.loc	10 801 17 is_stmt 0             @ lvgl/src/lv_widgets/lv_cont.c:801:17
	bl	lv_obj_realign
	.loc	10 802 13 is_stmt 1             @ lvgl/src/lv_widgets/lv_cont.c:802:13
	b	.LBB11_94
.Ltmp200:
.LBB11_94:
	.loc	10 805 13                       @ lvgl/src/lv_widgets/lv_cont.c:805:13
	ldr	r0, [sp, #132]
	adds	r0, #4
	bl	_lv_ll_get_head
	str	r0, [sp, #108]
	b	.LBB11_95
.LBB11_95:                              @ =>This Inner Loop Header: Depth=1
.Ltmp201:
	.loc	10 805 13 is_stmt 0             @ lvgl/src/lv_widgets/lv_cont.c:805:13
	ldr	r0, [sp, #108]
.Ltmp202:
	.loc	10 805 13                       @ lvgl/src/lv_widgets/lv_cont.c:805:13
	cbz	r0, .LBB11_98
	b	.LBB11_96
.LBB11_96:                              @   in Loop: Header=BB11_95 Depth=1
.Ltmp203:
	.loc	10 806 17 is_stmt 1             @ lvgl/src/lv_widgets/lv_cont.c:806:17
	ldr	r0, [sp, #108]
	.loc	10 806 26 is_stmt 0             @ lvgl/src/lv_widgets/lv_cont.c:806:26
	ldr	r3, [r0, #28]
	movs	r1, #3
	add	r2, sp, #112
	.loc	10 806 17                       @ lvgl/src/lv_widgets/lv_cont.c:806:17
	blx	r3
	.loc	10 807 13 is_stmt 1             @ lvgl/src/lv_widgets/lv_cont.c:807:13
	b	.LBB11_97
.Ltmp204:
.LBB11_97:                              @   in Loop: Header=BB11_95 Depth=1
	.loc	10 805 13                       @ lvgl/src/lv_widgets/lv_cont.c:805:13
	ldr	r0, [sp, #132]
	adds	r0, #4
	ldr	r1, [sp, #108]
	bl	_lv_ll_get_next
	str	r0, [sp, #108]
	b	.LBB11_95
.Ltmp205:
.LBB11_98:
	.loc	10 808 9                        @ lvgl/src/lv_widgets/lv_cont.c:808:9
	b	.LBB11_99
.Ltmp206:
.LBB11_99:
	.loc	10 809 5                        @ lvgl/src/lv_widgets/lv_cont.c:809:5
	b	.LBB11_101
.Ltmp207:
.LBB11_100:
	.loc	10 0 5 is_stmt 0                @ lvgl/src/lv_widgets/lv_cont.c:0:5
	b	.LBB11_101
.LBB11_101:
	.loc	10 814 20 is_stmt 1             @ lvgl/src/lv_widgets/lv_cont.c:814:20
	movw	r1, :lower16:lv_cont_refr_autofit.recursion_level
	movt	r1, :upper16:lv_cont_refr_autofit.recursion_level
	ldr	r0, [r1]
	subs	r0, #1
	str	r0, [r1]
	.loc	10 815 1                        @ lvgl/src/lv_widgets/lv_cont.c:815:1
	b	.LBB11_102
.LBB11_102:
	add	sp, #136
	pop	{r7, pc}
.Ltmp208:
.Lfunc_end11:
	.size	lv_cont_refr_autofit, .Lfunc_end11-lv_cont_refr_autofit
	.cfi_endproc
	.cantunwind
	.fnend
                                        @ -- End function
	.section	.text.lv_area_get_width,"ax",%progbits
	.p2align	3                               @ -- Begin function lv_area_get_width
	.type	lv_area_get_width,%function
	.code	16                              @ @lv_area_get_width
	.thumb_func
lv_area_get_width:
.Lfunc_begin12:
	.loc	5 108 0                         @ lvgl/src/lv_widgets/../lv_misc/lv_area.h:108:0
	.fnstart
	.cfi_startproc
@ %bb.0:
	.pad	#4
	sub	sp, #4
	.cfi_def_cfa_offset 4
	str	r0, [sp]
.Ltmp209:
	.loc	5 109 25 prologue_end           @ lvgl/src/lv_widgets/../lv_misc/lv_area.h:109:25
	ldr	r1, [sp]
	ldrh	r0, [r1, #4]
	.loc	5 109 38 is_stmt 0              @ lvgl/src/lv_widgets/../lv_misc/lv_area.h:109:38
	ldrh	r1, [r1]
	.loc	5 109 36                        @ lvgl/src/lv_widgets/../lv_misc/lv_area.h:109:36
	subs	r0, r0, r1
	.loc	5 109 49                        @ lvgl/src/lv_widgets/../lv_misc/lv_area.h:109:49
	adds	r0, #1
	.loc	5 109 5                         @ lvgl/src/lv_widgets/../lv_misc/lv_area.h:109:5
	sxth	r0, r0
	add	sp, #4
	bx	lr
.Ltmp210:
.Lfunc_end12:
	.size	lv_area_get_width, .Lfunc_end12-lv_area_get_width
	.cfi_endproc
	.cantunwind
	.fnend
                                        @ -- End function
	.section	.text.lv_area_get_height,"ax",%progbits
	.p2align	3                               @ -- Begin function lv_area_get_height
	.type	lv_area_get_height,%function
	.code	16                              @ @lv_area_get_height
	.thumb_func
lv_area_get_height:
.Lfunc_begin13:
	.loc	5 118 0 is_stmt 1               @ lvgl/src/lv_widgets/../lv_misc/lv_area.h:118:0
	.fnstart
	.cfi_startproc
@ %bb.0:
	.pad	#4
	sub	sp, #4
	.cfi_def_cfa_offset 4
	str	r0, [sp]
.Ltmp211:
	.loc	5 119 25 prologue_end           @ lvgl/src/lv_widgets/../lv_misc/lv_area.h:119:25
	ldr	r1, [sp]
	ldrh	r0, [r1, #6]
	.loc	5 119 38 is_stmt 0              @ lvgl/src/lv_widgets/../lv_misc/lv_area.h:119:38
	ldrh	r1, [r1, #2]
	.loc	5 119 36                        @ lvgl/src/lv_widgets/../lv_misc/lv_area.h:119:36
	subs	r0, r0, r1
	.loc	5 119 49                        @ lvgl/src/lv_widgets/../lv_misc/lv_area.h:119:49
	adds	r0, #1
	.loc	5 119 5                         @ lvgl/src/lv_widgets/../lv_misc/lv_area.h:119:5
	sxth	r0, r0
	add	sp, #4
	bx	lr
.Ltmp212:
.Lfunc_end13:
	.size	lv_area_get_height, .Lfunc_end13-lv_area_get_height
	.cfi_endproc
	.cantunwind
	.fnend
                                        @ -- End function
	.section	.text.lv_cont_layout_center,"ax",%progbits
	.p2align	3                               @ -- Begin function lv_cont_layout_center
	.type	lv_cont_layout_center,%function
	.code	16                              @ @lv_cont_layout_center
	.thumb_func
lv_cont_layout_center:
.Lfunc_begin14:
	.loc	10 454 0 is_stmt 1              @ lvgl/src/lv_widgets/lv_cont.c:454:0
	.fnstart
	.cfi_startproc
@ %bb.0:
	.save	{r7, lr}
	push	{r7, lr}
	.cfi_def_cfa_offset 8
	.cfi_offset lr, -4
	.cfi_offset r7, -8
	.pad	#40
	sub	sp, #40
	.cfi_def_cfa_offset 48
	str	r0, [sp, #36]
	movs	r1, #0
.Ltmp213:
	.loc	10 456 14 prologue_end          @ lvgl/src/lv_widgets/lv_cont.c:456:14
	str	r1, [sp, #28]
	.loc	10 457 16                       @ lvgl/src/lv_widgets/lv_cont.c:457:16
	strh.w	r1, [sp, #26]
	.loc	10 459 51                       @ lvgl/src/lv_widgets/lv_cont.c:459:51
	ldr	r0, [sp, #36]
	.loc	10 459 24 is_stmt 0             @ lvgl/src/lv_widgets/lv_cont.c:459:24
	bl	lv_obj_get_style_pad_inner
	.loc	10 459 16                       @ lvgl/src/lv_widgets/lv_cont.c:459:16
	strh.w	r0, [sp, #24]
.Ltmp214:
	.loc	10 460 5 is_stmt 1              @ lvgl/src/lv_widgets/lv_cont.c:460:5
	ldr	r0, [sp, #36]
	adds	r0, #4
	bl	_lv_ll_get_head
	str	r0, [sp, #32]
	b	.LBB14_1
.LBB14_1:                               @ =>This Inner Loop Header: Depth=1
.Ltmp215:
	.loc	10 460 5 is_stmt 0              @ lvgl/src/lv_widgets/lv_cont.c:460:5
	ldr	r0, [sp, #32]
.Ltmp216:
	.loc	10 460 5                        @ lvgl/src/lv_widgets/lv_cont.c:460:5
	cbz	r0, .LBB14_7
	b	.LBB14_2
.LBB14_2:                               @   in Loop: Header=BB14_1 Depth=1
.Ltmp217:
	.loc	10 461 30 is_stmt 1             @ lvgl/src/lv_widgets/lv_cont.c:461:30
	ldr	r0, [sp, #32]
	.loc	10 461 12 is_stmt 0             @ lvgl/src/lv_widgets/lv_cont.c:461:12
	bl	lv_obj_get_hidden
	.loc	10 461 46                       @ lvgl/src/lv_widgets/lv_cont.c:461:46
	cbnz	r0, .LBB14_4
	b	.LBB14_3
.LBB14_3:                               @   in Loop: Header=BB14_1 Depth=1
	.loc	10 461 69                       @ lvgl/src/lv_widgets/lv_cont.c:461:69
	ldr	r0, [sp, #32]
	movs	r1, #4
	.loc	10 461 49                       @ lvgl/src/lv_widgets/lv_cont.c:461:49
	bl	lv_obj_is_protected
.Ltmp218:
	.loc	10 461 12                       @ lvgl/src/lv_widgets/lv_cont.c:461:12
	cbz	r0, .LBB14_5
	b	.LBB14_4
.LBB14_4:                               @   in Loop: Header=BB14_1 Depth=1
.Ltmp219:
	.loc	10 461 102                      @ lvgl/src/lv_widgets/lv_cont.c:461:102
	b	.LBB14_6
.Ltmp220:
.LBB14_5:                               @   in Loop: Header=BB14_1 Depth=1
	.loc	10 462 36 is_stmt 1             @ lvgl/src/lv_widgets/lv_cont.c:462:36
	ldr	r0, [sp, #32]
	.loc	10 462 18 is_stmt 0             @ lvgl/src/lv_widgets/lv_cont.c:462:18
	bl	lv_obj_get_height
	.loc	10 462 45                       @ lvgl/src/lv_widgets/lv_cont.c:462:45
	ldrh.w	r1, [sp, #24]
	.loc	10 462 43                       @ lvgl/src/lv_widgets/lv_cont.c:462:43
	add	r1, r0
	.loc	10 462 15                       @ lvgl/src/lv_widgets/lv_cont.c:462:15
	ldrh.w	r0, [sp, #26]
	add	r0, r1
	strh.w	r0, [sp, #26]
	.loc	10 463 16 is_stmt 1             @ lvgl/src/lv_widgets/lv_cont.c:463:16
	ldr	r0, [sp, #28]
	adds	r0, #1
	str	r0, [sp, #28]
	.loc	10 464 5                        @ lvgl/src/lv_widgets/lv_cont.c:464:5
	b	.LBB14_6
.Ltmp221:
.LBB14_6:                               @   in Loop: Header=BB14_1 Depth=1
	.loc	10 460 5                        @ lvgl/src/lv_widgets/lv_cont.c:460:5
	ldr	r0, [sp, #36]
	adds	r0, #4
	ldr	r1, [sp, #32]
	bl	_lv_ll_get_next
	str	r0, [sp, #32]
	b	.LBB14_1
.Ltmp222:
.LBB14_7:
	.loc	10 466 8                        @ lvgl/src/lv_widgets/lv_cont.c:466:8
	ldr	r0, [sp, #28]
.Ltmp223:
	.loc	10 466 8 is_stmt 0              @ lvgl/src/lv_widgets/lv_cont.c:466:8
	cbnz	r0, .LBB14_9
	b	.LBB14_8
.LBB14_8:
.Ltmp224:
	.loc	10 466 22                       @ lvgl/src/lv_widgets/lv_cont.c:466:22
	b	.LBB14_17
.Ltmp225:
.LBB14_9:
	.loc	10 468 14 is_stmt 1             @ lvgl/src/lv_widgets/lv_cont.c:468:14
	ldrh.w	r1, [sp, #24]
	.loc	10 468 11 is_stmt 0             @ lvgl/src/lv_widgets/lv_cont.c:468:11
	ldrh.w	r0, [sp, #26]
	subs	r0, r0, r1
	strh.w	r0, [sp, #26]
	.loc	10 472 24 is_stmt 1             @ lvgl/src/lv_widgets/lv_cont.c:472:24
	ldr	r0, [sp, #36]
	movs	r1, #1
	.loc	10 472 5 is_stmt 0              @ lvgl/src/lv_widgets/lv_cont.c:472:5
	bl	lv_obj_add_protect
	.loc	10 475 30 is_stmt 1             @ lvgl/src/lv_widgets/lv_cont.c:475:30
	ldrsh.w	r0, [sp, #26]
	.loc	10 475 36 is_stmt 0             @ lvgl/src/lv_widgets/lv_cont.c:475:36
	add.w	r1, r0, r0, lsr #31
	movs	r0, #0
	sub.w	r0, r0, r1, lsr #1
	.loc	10 475 16                       @ lvgl/src/lv_widgets/lv_cont.c:475:16
	strh.w	r0, [sp, #22]
.Ltmp226:
	.loc	10 476 5 is_stmt 1              @ lvgl/src/lv_widgets/lv_cont.c:476:5
	ldr	r0, [sp, #36]
	adds	r0, #4
	bl	_lv_ll_get_tail
	str	r0, [sp, #32]
	b	.LBB14_10
.LBB14_10:                              @ =>This Inner Loop Header: Depth=1
.Ltmp227:
	.loc	10 476 5 is_stmt 0              @ lvgl/src/lv_widgets/lv_cont.c:476:5
	ldr	r0, [sp, #32]
.Ltmp228:
	.loc	10 476 5                        @ lvgl/src/lv_widgets/lv_cont.c:476:5
	cbz	r0, .LBB14_16
	b	.LBB14_11
.LBB14_11:                              @   in Loop: Header=BB14_10 Depth=1
.Ltmp229:
	.loc	10 477 30 is_stmt 1             @ lvgl/src/lv_widgets/lv_cont.c:477:30
	ldr	r0, [sp, #32]
	.loc	10 477 12 is_stmt 0             @ lvgl/src/lv_widgets/lv_cont.c:477:12
	bl	lv_obj_get_hidden
	.loc	10 477 46                       @ lvgl/src/lv_widgets/lv_cont.c:477:46
	cbnz	r0, .LBB14_13
	b	.LBB14_12
.LBB14_12:                              @   in Loop: Header=BB14_10 Depth=1
	.loc	10 477 69                       @ lvgl/src/lv_widgets/lv_cont.c:477:69
	ldr	r0, [sp, #32]
	movs	r1, #4
	.loc	10 477 49                       @ lvgl/src/lv_widgets/lv_cont.c:477:49
	bl	lv_obj_is_protected
.Ltmp230:
	.loc	10 477 12                       @ lvgl/src/lv_widgets/lv_cont.c:477:12
	cbz	r0, .LBB14_14
	b	.LBB14_13
.LBB14_13:                              @   in Loop: Header=BB14_10 Depth=1
.Ltmp231:
	.loc	10 477 102                      @ lvgl/src/lv_widgets/lv_cont.c:477:102
	b	.LBB14_15
.Ltmp232:
.LBB14_14:                              @   in Loop: Header=BB14_10 Depth=1
	.loc	10 479 22 is_stmt 1             @ lvgl/src/lv_widgets/lv_cont.c:479:22
	ldr	r0, [sp, #32]
	.loc	10 479 29 is_stmt 0             @ lvgl/src/lv_widgets/lv_cont.c:479:29
	str	r0, [sp, #16]                   @ 4-byte Spill
	ldr	r1, [sp, #36]
	.loc	10 479 55                       @ lvgl/src/lv_widgets/lv_cont.c:479:55
	str	r1, [sp, #12]                   @ 4-byte Spill
	ldrh.w	r1, [sp, #22]
	.loc	10 479 67                       @ lvgl/src/lv_widgets/lv_cont.c:479:67
	str	r1, [sp, #8]                    @ 4-byte Spill
	bl	lv_obj_get_height
	ldr	r2, [sp, #8]                    @ 4-byte Reload
	ldr	r1, [sp, #12]                   @ 4-byte Reload
	mov	r3, r0
	.loc	10 479 92                       @ lvgl/src/lv_widgets/lv_cont.c:479:92
	ldr	r0, [sp, #16]                   @ 4-byte Reload
	add.w	r3, r3, r3, lsr #31
	.loc	10 479 65                       @ lvgl/src/lv_widgets/lv_cont.c:479:65
	add.w	r2, r2, r3, lsr #1
	.loc	10 479 9                        @ lvgl/src/lv_widgets/lv_cont.c:479:9
	sxth	r2, r2
	mov	r3, sp
	str	r2, [r3]
	movs	r3, #0
	mov	r2, r3
	bl	lv_obj_align
	.loc	10 480 40 is_stmt 1             @ lvgl/src/lv_widgets/lv_cont.c:480:40
	ldr	r0, [sp, #32]
	.loc	10 480 22 is_stmt 0             @ lvgl/src/lv_widgets/lv_cont.c:480:22
	bl	lv_obj_get_height
	.loc	10 480 49                       @ lvgl/src/lv_widgets/lv_cont.c:480:49
	ldrh.w	r1, [sp, #24]
	.loc	10 480 47                       @ lvgl/src/lv_widgets/lv_cont.c:480:47
	add	r1, r0
	.loc	10 480 19                       @ lvgl/src/lv_widgets/lv_cont.c:480:19
	ldrh.w	r0, [sp, #22]
	add	r0, r1
	strh.w	r0, [sp, #22]
	.loc	10 481 5 is_stmt 1              @ lvgl/src/lv_widgets/lv_cont.c:481:5
	b	.LBB14_15
.Ltmp233:
.LBB14_15:                              @   in Loop: Header=BB14_10 Depth=1
	.loc	10 476 5                        @ lvgl/src/lv_widgets/lv_cont.c:476:5
	ldr	r0, [sp, #36]
	adds	r0, #4
	ldr	r1, [sp, #32]
	bl	_lv_ll_get_prev
	str	r0, [sp, #32]
	b	.LBB14_10
.Ltmp234:
.LBB14_16:
	.loc	10 483 26                       @ lvgl/src/lv_widgets/lv_cont.c:483:26
	ldr	r0, [sp, #36]
	movs	r1, #1
	.loc	10 483 5 is_stmt 0              @ lvgl/src/lv_widgets/lv_cont.c:483:5
	bl	lv_obj_clear_protect
	.loc	10 484 1 is_stmt 1              @ lvgl/src/lv_widgets/lv_cont.c:484:1
	b	.LBB14_17
.LBB14_17:
	add	sp, #40
	pop	{r7, pc}
.Ltmp235:
.Lfunc_end14:
	.size	lv_cont_layout_center, .Lfunc_end14-lv_cont_layout_center
	.cfi_endproc
	.cantunwind
	.fnend
                                        @ -- End function
	.section	.text.lv_cont_layout_col,"ax",%progbits
	.p2align	3                               @ -- Begin function lv_cont_layout_col
	.type	lv_cont_layout_col,%function
	.code	16                              @ @lv_cont_layout_col
	.thumb_func
lv_cont_layout_col:
.Lfunc_begin15:
	.loc	10 344 0                        @ lvgl/src/lv_widgets/lv_cont.c:344:0
	.fnstart
	.cfi_startproc
@ %bb.0:
	.save	{r7, lr}
	push	{r7, lr}
	.cfi_def_cfa_offset 8
	.cfi_offset lr, -4
	.cfi_offset r7, -8
	.pad	#48
	sub	sp, #48
	.cfi_def_cfa_offset 56
	str	r0, [sp, #44]
.Ltmp236:
	.loc	10 345 49 prologue_end          @ lvgl/src/lv_widgets/lv_cont.c:345:49
	ldr	r0, [sp, #44]
	movs	r1, #0
	.loc	10 345 23 is_stmt 0             @ lvgl/src/lv_widgets/lv_cont.c:345:23
	str	r1, [sp, #8]                    @ 4-byte Spill
	bl	lv_obj_get_style_pad_left
	ldr	r1, [sp, #8]                    @ 4-byte Reload
	.loc	10 345 16                       @ lvgl/src/lv_widgets/lv_cont.c:345:16
	strh.w	r0, [sp, #42]
	.loc	10 346 51 is_stmt 1             @ lvgl/src/lv_widgets/lv_cont.c:346:51
	ldr	r0, [sp, #44]
	.loc	10 346 24 is_stmt 0             @ lvgl/src/lv_widgets/lv_cont.c:346:24
	bl	lv_obj_get_style_pad_right
	ldr	r1, [sp, #8]                    @ 4-byte Reload
	.loc	10 346 16                       @ lvgl/src/lv_widgets/lv_cont.c:346:16
	strh.w	r0, [sp, #40]
	.loc	10 347 47 is_stmt 1             @ lvgl/src/lv_widgets/lv_cont.c:347:47
	ldr	r0, [sp, #44]
	.loc	10 347 22 is_stmt 0             @ lvgl/src/lv_widgets/lv_cont.c:347:22
	bl	lv_obj_get_style_pad_top
	ldr	r1, [sp, #8]                    @ 4-byte Reload
	.loc	10 347 16                       @ lvgl/src/lv_widgets/lv_cont.c:347:16
	strh.w	r0, [sp, #38]
	.loc	10 348 51 is_stmt 1             @ lvgl/src/lv_widgets/lv_cont.c:348:51
	ldr	r0, [sp, #44]
	.loc	10 348 24 is_stmt 0             @ lvgl/src/lv_widgets/lv_cont.c:348:24
	bl	lv_obj_get_style_pad_inner
	.loc	10 348 16                       @ lvgl/src/lv_widgets/lv_cont.c:348:16
	strh.w	r0, [sp, #36]
	.loc	10 350 43 is_stmt 1             @ lvgl/src/lv_widgets/lv_cont.c:350:43
	ldr	r0, [sp, #44]
	.loc	10 350 24 is_stmt 0             @ lvgl/src/lv_widgets/lv_cont.c:350:24
	bl	lv_cont_get_layout
	.loc	10 350 17                       @ lvgl/src/lv_widgets/lv_cont.c:350:17
	strb.w	r0, [sp, #35]
	.loc	10 357 12 is_stmt 1             @ lvgl/src/lv_widgets/lv_cont.c:357:12
	ldrb.w	r0, [sp, #35]
	.loc	10 357 5 is_stmt 0              @ lvgl/src/lv_widgets/lv_cont.c:357:5
	mov	r1, r0
	str	r1, [sp, #12]                   @ 4-byte Spill
	cmp	r0, #2
	beq	.LBB15_3
	b	.LBB15_1
.LBB15_1:
	ldr	r0, [sp, #12]                   @ 4-byte Reload
	cmp	r0, #3
	beq	.LBB15_4
	b	.LBB15_2
.LBB15_2:
	ldr	r0, [sp, #12]                   @ 4-byte Reload
	cmp	r0, #4
	beq	.LBB15_5
	b	.LBB15_6
.LBB15_3:
.Ltmp237:
	.loc	10 359 25 is_stmt 1             @ lvgl/src/lv_widgets/lv_cont.c:359:25
	ldrh.w	r0, [sp, #42]
	.loc	10 359 23 is_stmt 0             @ lvgl/src/lv_widgets/lv_cont.c:359:23
	strh.w	r0, [sp, #24]
	movs	r0, #1
	.loc	10 360 23 is_stmt 1             @ lvgl/src/lv_widgets/lv_cont.c:360:23
	strb.w	r0, [sp, #27]
	.loc	10 361 13                       @ lvgl/src/lv_widgets/lv_cont.c:361:13
	b	.LBB15_7
.LBB15_4:
	.loc	10 0 13 is_stmt 0               @ lvgl/src/lv_widgets/lv_cont.c:0:13
	movs	r0, #0
	.loc	10 363 23 is_stmt 1             @ lvgl/src/lv_widgets/lv_cont.c:363:23
	strh.w	r0, [sp, #24]
	movs	r0, #2
	.loc	10 364 23                       @ lvgl/src/lv_widgets/lv_cont.c:364:23
	strb.w	r0, [sp, #27]
	.loc	10 365 13                       @ lvgl/src/lv_widgets/lv_cont.c:365:13
	b	.LBB15_7
.LBB15_5:
	.loc	10 367 26                       @ lvgl/src/lv_widgets/lv_cont.c:367:26
	ldrh.w	r0, [sp, #40]
	.loc	10 367 25 is_stmt 0             @ lvgl/src/lv_widgets/lv_cont.c:367:25
	rsbs	r0, r0, #0
	.loc	10 367 23                       @ lvgl/src/lv_widgets/lv_cont.c:367:23
	strh.w	r0, [sp, #24]
	movs	r0, #3
	.loc	10 368 23 is_stmt 1             @ lvgl/src/lv_widgets/lv_cont.c:368:23
	strb.w	r0, [sp, #27]
	.loc	10 369 13                       @ lvgl/src/lv_widgets/lv_cont.c:369:13
	b	.LBB15_7
.LBB15_6:
	.loc	10 0 13 is_stmt 0               @ lvgl/src/lv_widgets/lv_cont.c:0:13
	movs	r0, #0
	.loc	10 371 23 is_stmt 1             @ lvgl/src/lv_widgets/lv_cont.c:371:23
	strh.w	r0, [sp, #24]
	movs	r0, #1
	.loc	10 372 23                       @ lvgl/src/lv_widgets/lv_cont.c:372:23
	strb.w	r0, [sp, #27]
	.loc	10 373 13                       @ lvgl/src/lv_widgets/lv_cont.c:373:13
	b	.LBB15_7
.Ltmp238:
.LBB15_7:
	.loc	10 378 24                       @ lvgl/src/lv_widgets/lv_cont.c:378:24
	ldr	r0, [sp, #44]
	movs	r1, #1
	.loc	10 378 5 is_stmt 0              @ lvgl/src/lv_widgets/lv_cont.c:378:5
	bl	lv_obj_add_protect
	.loc	10 380 28 is_stmt 1             @ lvgl/src/lv_widgets/lv_cont.c:380:28
	ldrh.w	r0, [sp, #38]
	.loc	10 380 16 is_stmt 0             @ lvgl/src/lv_widgets/lv_cont.c:380:16
	strh.w	r0, [sp, #22]
.Ltmp239:
	.loc	10 381 5 is_stmt 1              @ lvgl/src/lv_widgets/lv_cont.c:381:5
	ldr	r0, [sp, #44]
	adds	r0, #4
	bl	_lv_ll_get_tail
	str	r0, [sp, #28]
	b	.LBB15_8
.LBB15_8:                               @ =>This Inner Loop Header: Depth=1
.Ltmp240:
	.loc	10 381 5 is_stmt 0              @ lvgl/src/lv_widgets/lv_cont.c:381:5
	ldr	r0, [sp, #28]
.Ltmp241:
	.loc	10 381 5                        @ lvgl/src/lv_widgets/lv_cont.c:381:5
	cmp	r0, #0
	beq	.LBB15_14
	b	.LBB15_9
.LBB15_9:                               @   in Loop: Header=BB15_8 Depth=1
.Ltmp242:
	.loc	10 382 30 is_stmt 1             @ lvgl/src/lv_widgets/lv_cont.c:382:30
	ldr	r0, [sp, #28]
	.loc	10 382 12 is_stmt 0             @ lvgl/src/lv_widgets/lv_cont.c:382:12
	bl	lv_obj_get_hidden
	.loc	10 382 46                       @ lvgl/src/lv_widgets/lv_cont.c:382:46
	cbnz	r0, .LBB15_11
	b	.LBB15_10
.LBB15_10:                              @   in Loop: Header=BB15_8 Depth=1
	.loc	10 382 69                       @ lvgl/src/lv_widgets/lv_cont.c:382:69
	ldr	r0, [sp, #28]
	movs	r1, #4
	.loc	10 382 49                       @ lvgl/src/lv_widgets/lv_cont.c:382:49
	bl	lv_obj_is_protected
.Ltmp243:
	.loc	10 382 12                       @ lvgl/src/lv_widgets/lv_cont.c:382:12
	cbz	r0, .LBB15_12
	b	.LBB15_11
.LBB15_11:                              @   in Loop: Header=BB15_8 Depth=1
.Ltmp244:
	.loc	10 382 102                      @ lvgl/src/lv_widgets/lv_cont.c:382:102
	b	.LBB15_13
.Ltmp245:
.LBB15_12:                              @   in Loop: Header=BB15_8 Depth=1
	.loc	10 383 59 is_stmt 1             @ lvgl/src/lv_widgets/lv_cont.c:383:59
	ldr	r0, [sp, #28]
	movs	r1, #0
	.loc	10 383 31 is_stmt 0             @ lvgl/src/lv_widgets/lv_cont.c:383:31
	str	r1, [sp, #4]                    @ 4-byte Spill
	bl	lv_obj_get_style_margin_top
	ldr	r1, [sp, #4]                    @ 4-byte Reload
	.loc	10 383 24                       @ lvgl/src/lv_widgets/lv_cont.c:383:24
	strh.w	r0, [sp, #20]
	.loc	10 384 65 is_stmt 1             @ lvgl/src/lv_widgets/lv_cont.c:384:65
	ldr	r0, [sp, #28]
	.loc	10 384 34 is_stmt 0             @ lvgl/src/lv_widgets/lv_cont.c:384:34
	bl	lv_obj_get_style_margin_bottom
	ldr	r1, [sp, #4]                    @ 4-byte Reload
	.loc	10 384 24                       @ lvgl/src/lv_widgets/lv_cont.c:384:24
	strh.w	r0, [sp, #18]
	.loc	10 385 61 is_stmt 1             @ lvgl/src/lv_widgets/lv_cont.c:385:61
	ldr	r0, [sp, #28]
	.loc	10 385 32 is_stmt 0             @ lvgl/src/lv_widgets/lv_cont.c:385:32
	bl	lv_obj_get_style_margin_left
	.loc	10 385 24                       @ lvgl/src/lv_widgets/lv_cont.c:385:24
	strh.w	r0, [sp, #16]
	.loc	10 386 22 is_stmt 1             @ lvgl/src/lv_widgets/lv_cont.c:386:22
	ldr	r0, [sp, #28]
	.loc	10 386 29 is_stmt 0             @ lvgl/src/lv_widgets/lv_cont.c:386:29
	ldr	r1, [sp, #44]
	.loc	10 386 35                       @ lvgl/src/lv_widgets/lv_cont.c:386:35
	ldrb.w	r2, [sp, #27]
	.loc	10 386 42                       @ lvgl/src/lv_widgets/lv_cont.c:386:42
	ldrh.w	r3, [sp, #24]
	.loc	10 386 54                       @ lvgl/src/lv_widgets/lv_cont.c:386:54
	ldrh.w	r12, [sp, #16]
	.loc	10 386 52                       @ lvgl/src/lv_widgets/lv_cont.c:386:52
	add	r3, r12
	.loc	10 386 61                       @ lvgl/src/lv_widgets/lv_cont.c:386:61
	ldrh.w	r12, [sp, #22]
	.loc	10 386 73                       @ lvgl/src/lv_widgets/lv_cont.c:386:73
	ldrh.w	lr, [sp, #20]
	.loc	10 386 71                       @ lvgl/src/lv_widgets/lv_cont.c:386:71
	add	r12, lr
	.loc	10 386 9                        @ lvgl/src/lv_widgets/lv_cont.c:386:9
	sxth.w	r12, r12
	mov	lr, sp
	str.w	r12, [lr]
	sxth	r3, r3
	bl	lv_obj_align
	.loc	10 387 40 is_stmt 1             @ lvgl/src/lv_widgets/lv_cont.c:387:40
	ldr	r0, [sp, #28]
	.loc	10 387 22 is_stmt 0             @ lvgl/src/lv_widgets/lv_cont.c:387:22
	bl	lv_obj_get_height
	.loc	10 387 49                       @ lvgl/src/lv_widgets/lv_cont.c:387:49
	ldrh.w	r1, [sp, #36]
	.loc	10 387 47                       @ lvgl/src/lv_widgets/lv_cont.c:387:47
	add	r0, r1
	.loc	10 387 57                       @ lvgl/src/lv_widgets/lv_cont.c:387:57
	ldrh.w	r1, [sp, #20]
	.loc	10 387 55                       @ lvgl/src/lv_widgets/lv_cont.c:387:55
	add	r0, r1
	.loc	10 387 64                       @ lvgl/src/lv_widgets/lv_cont.c:387:64
	ldrh.w	r1, [sp, #18]
	.loc	10 387 62                       @ lvgl/src/lv_widgets/lv_cont.c:387:62
	add	r1, r0
	.loc	10 387 19                       @ lvgl/src/lv_widgets/lv_cont.c:387:19
	ldrh.w	r0, [sp, #22]
	add	r0, r1
	strh.w	r0, [sp, #22]
	.loc	10 388 5 is_stmt 1              @ lvgl/src/lv_widgets/lv_cont.c:388:5
	b	.LBB15_13
.Ltmp246:
.LBB15_13:                              @   in Loop: Header=BB15_8 Depth=1
	.loc	10 381 5                        @ lvgl/src/lv_widgets/lv_cont.c:381:5
	ldr	r0, [sp, #44]
	adds	r0, #4
	ldr	r1, [sp, #28]
	bl	_lv_ll_get_prev
	str	r0, [sp, #28]
	b	.LBB15_8
.Ltmp247:
.LBB15_14:
	.loc	10 390 26                       @ lvgl/src/lv_widgets/lv_cont.c:390:26
	ldr	r0, [sp, #44]
	movs	r1, #1
	.loc	10 390 5 is_stmt 0              @ lvgl/src/lv_widgets/lv_cont.c:390:5
	bl	lv_obj_clear_protect
	.loc	10 391 1 is_stmt 1              @ lvgl/src/lv_widgets/lv_cont.c:391:1
	add	sp, #48
	pop	{r7, pc}
.Ltmp248:
.Lfunc_end15:
	.size	lv_cont_layout_col, .Lfunc_end15-lv_cont_layout_col
	.cfi_endproc
	.cantunwind
	.fnend
                                        @ -- End function
	.section	.text.lv_cont_layout_row,"ax",%progbits
	.p2align	3                               @ -- Begin function lv_cont_layout_row
	.type	lv_cont_layout_row,%function
	.code	16                              @ @lv_cont_layout_row
	.thumb_func
lv_cont_layout_row:
.Lfunc_begin16:
	.loc	10 398 0                        @ lvgl/src/lv_widgets/lv_cont.c:398:0
	.fnstart
	.cfi_startproc
@ %bb.0:
	.save	{r7, lr}
	push	{r7, lr}
	.cfi_def_cfa_offset 8
	.cfi_offset lr, -4
	.cfi_offset r7, -8
	.pad	#32
	sub	sp, #32
	.cfi_def_cfa_offset 40
	str	r0, [sp, #28]
.Ltmp249:
	.loc	10 400 43 prologue_end          @ lvgl/src/lv_widgets/lv_cont.c:400:43
	ldr	r0, [sp, #28]
	.loc	10 400 24 is_stmt 0             @ lvgl/src/lv_widgets/lv_cont.c:400:24
	bl	lv_cont_get_layout
	.loc	10 400 17                       @ lvgl/src/lv_widgets/lv_cont.c:400:17
	strb.w	r0, [sp, #27]
	.loc	10 406 50 is_stmt 1             @ lvgl/src/lv_widgets/lv_cont.c:406:50
	ldr	r0, [sp, #28]
	.loc	10 406 30 is_stmt 0             @ lvgl/src/lv_widgets/lv_cont.c:406:30
	bl	lv_obj_get_base_dir
	.loc	10 406 19                       @ lvgl/src/lv_widgets/lv_cont.c:406:19
	strb.w	r0, [sp, #15]
	.loc	10 407 12 is_stmt 1             @ lvgl/src/lv_widgets/lv_cont.c:407:12
	ldrb.w	r0, [sp, #27]
	.loc	10 407 5 is_stmt 0              @ lvgl/src/lv_widgets/lv_cont.c:407:5
	mov	r1, r0
	str	r1, [sp, #4]                    @ 4-byte Spill
	cmp	r0, #5
	beq	.LBB16_3
	b	.LBB16_1
.LBB16_1:
	ldr	r0, [sp, #4]                    @ 4-byte Reload
	cmp	r0, #6
	beq	.LBB16_4
	b	.LBB16_2
.LBB16_2:
	ldr	r0, [sp, #4]                    @ 4-byte Reload
	cmp	r0, #7
	beq	.LBB16_5
	b	.LBB16_6
.LBB16_3:
.Ltmp250:
	.loc	10 409 50 is_stmt 1             @ lvgl/src/lv_widgets/lv_cont.c:409:50
	ldr	r0, [sp, #28]
	movs	r1, #0
	.loc	10 409 25 is_stmt 0             @ lvgl/src/lv_widgets/lv_cont.c:409:25
	bl	lv_obj_get_style_pad_top
	.loc	10 409 23                       @ lvgl/src/lv_widgets/lv_cont.c:409:23
	strh.w	r0, [sp, #16]
	.loc	10 410 25 is_stmt 1             @ lvgl/src/lv_widgets/lv_cont.c:410:25
	ldrb.w	r1, [sp, #15]
	movs	r0, #1
	cmp	r1, #1
	it	eq
	moveq	r0, #3
	.loc	10 410 23 is_stmt 0             @ lvgl/src/lv_widgets/lv_cont.c:410:23
	strb.w	r0, [sp, #19]
	.loc	10 411 13 is_stmt 1             @ lvgl/src/lv_widgets/lv_cont.c:411:13
	b	.LBB16_7
.LBB16_4:
	.loc	10 0 13 is_stmt 0               @ lvgl/src/lv_widgets/lv_cont.c:0:13
	movs	r0, #0
	.loc	10 413 23 is_stmt 1             @ lvgl/src/lv_widgets/lv_cont.c:413:23
	strh.w	r0, [sp, #16]
	.loc	10 414 25                       @ lvgl/src/lv_widgets/lv_cont.c:414:25
	ldrb.w	r1, [sp, #15]
	movs	r0, #7
	cmp	r1, #1
	it	eq
	moveq	r0, #8
	.loc	10 414 23 is_stmt 0             @ lvgl/src/lv_widgets/lv_cont.c:414:23
	strb.w	r0, [sp, #19]
	.loc	10 415 13 is_stmt 1             @ lvgl/src/lv_widgets/lv_cont.c:415:13
	b	.LBB16_7
.LBB16_5:
	.loc	10 417 54                       @ lvgl/src/lv_widgets/lv_cont.c:417:54
	ldr	r0, [sp, #28]
	movs	r1, #0
	.loc	10 417 26 is_stmt 0             @ lvgl/src/lv_widgets/lv_cont.c:417:26
	bl	lv_obj_get_style_pad_bottom
	.loc	10 417 25                       @ lvgl/src/lv_widgets/lv_cont.c:417:25
	rsbs	r0, r0, #0
	.loc	10 417 23                       @ lvgl/src/lv_widgets/lv_cont.c:417:23
	strh.w	r0, [sp, #16]
	.loc	10 418 25 is_stmt 1             @ lvgl/src/lv_widgets/lv_cont.c:418:25
	ldrb.w	r1, [sp, #15]
	movs	r0, #4
	cmp	r1, #1
	it	eq
	moveq	r0, #6
	.loc	10 418 23 is_stmt 0             @ lvgl/src/lv_widgets/lv_cont.c:418:23
	strb.w	r0, [sp, #19]
	.loc	10 419 13 is_stmt 1             @ lvgl/src/lv_widgets/lv_cont.c:419:13
	b	.LBB16_7
.LBB16_6:
	.loc	10 0 13 is_stmt 0               @ lvgl/src/lv_widgets/lv_cont.c:0:13
	movs	r0, #0
	.loc	10 421 23 is_stmt 1             @ lvgl/src/lv_widgets/lv_cont.c:421:23
	strh.w	r0, [sp, #16]
	.loc	10 422 25                       @ lvgl/src/lv_widgets/lv_cont.c:422:25
	ldrb.w	r1, [sp, #15]
	movs	r0, #1
	cmp	r1, #1
	it	eq
	moveq	r0, #3
	.loc	10 422 23 is_stmt 0             @ lvgl/src/lv_widgets/lv_cont.c:422:23
	strb.w	r0, [sp, #19]
	.loc	10 423 13 is_stmt 1             @ lvgl/src/lv_widgets/lv_cont.c:423:13
	b	.LBB16_7
.Ltmp251:
.LBB16_7:
	.loc	10 428 24                       @ lvgl/src/lv_widgets/lv_cont.c:428:24
	ldr	r0, [sp, #28]
	movs	r1, #1
	.loc	10 428 5 is_stmt 0              @ lvgl/src/lv_widgets/lv_cont.c:428:5
	bl	lv_obj_add_protect
.Ltmp252:
	.loc	10 432 8 is_stmt 1              @ lvgl/src/lv_widgets/lv_cont.c:432:8
	ldrb.w	r0, [sp, #15]
.Ltmp253:
	.loc	10 432 8 is_stmt 0              @ lvgl/src/lv_widgets/lv_cont.c:432:8
	cmp	r0, #1
	bne	.LBB16_9
	b	.LBB16_8
.LBB16_8:
.Ltmp254:
	.loc	10 432 76                       @ lvgl/src/lv_widgets/lv_cont.c:432:76
	ldr	r0, [sp, #28]
	movs	r1, #0
	.loc	10 432 49                       @ lvgl/src/lv_widgets/lv_cont.c:432:49
	bl	lv_obj_get_style_pad_right
	.loc	10 432 47                       @ lvgl/src/lv_widgets/lv_cont.c:432:47
	strh.w	r0, [sp, #12]
	.loc	10 432 37                       @ lvgl/src/lv_widgets/lv_cont.c:432:37
	b	.LBB16_10
.LBB16_9:
	.loc	10 433 48 is_stmt 1             @ lvgl/src/lv_widgets/lv_cont.c:433:48
	ldr	r0, [sp, #28]
	movs	r1, #0
	.loc	10 433 22 is_stmt 0             @ lvgl/src/lv_widgets/lv_cont.c:433:22
	bl	lv_obj_get_style_pad_left
	.loc	10 433 20                       @ lvgl/src/lv_widgets/lv_cont.c:433:20
	strh.w	r0, [sp, #12]
	b	.LBB16_10
.Ltmp255:
.LBB16_10:
	.loc	10 435 51 is_stmt 1             @ lvgl/src/lv_widgets/lv_cont.c:435:51
	ldr	r0, [sp, #28]
	movs	r1, #0
	.loc	10 435 24 is_stmt 0             @ lvgl/src/lv_widgets/lv_cont.c:435:24
	bl	lv_obj_get_style_pad_inner
	.loc	10 435 16                       @ lvgl/src/lv_widgets/lv_cont.c:435:16
	strh.w	r0, [sp, #10]
.Ltmp256:
	.loc	10 437 5 is_stmt 1              @ lvgl/src/lv_widgets/lv_cont.c:437:5
	ldr	r0, [sp, #28]
	adds	r0, #4
	bl	_lv_ll_get_tail
	str	r0, [sp, #20]
	b	.LBB16_11
.LBB16_11:                              @ =>This Inner Loop Header: Depth=1
.Ltmp257:
	.loc	10 437 5 is_stmt 0              @ lvgl/src/lv_widgets/lv_cont.c:437:5
	ldr	r0, [sp, #20]
.Ltmp258:
	.loc	10 437 5                        @ lvgl/src/lv_widgets/lv_cont.c:437:5
	cmp	r0, #0
	beq	.LBB16_20
	b	.LBB16_12
.LBB16_12:                              @   in Loop: Header=BB16_11 Depth=1
.Ltmp259:
	.loc	10 438 30 is_stmt 1             @ lvgl/src/lv_widgets/lv_cont.c:438:30
	ldr	r0, [sp, #20]
	.loc	10 438 12 is_stmt 0             @ lvgl/src/lv_widgets/lv_cont.c:438:12
	bl	lv_obj_get_hidden
	.loc	10 438 46                       @ lvgl/src/lv_widgets/lv_cont.c:438:46
	cbnz	r0, .LBB16_14
	b	.LBB16_13
.LBB16_13:                              @   in Loop: Header=BB16_11 Depth=1
	.loc	10 438 69                       @ lvgl/src/lv_widgets/lv_cont.c:438:69
	ldr	r0, [sp, #20]
	movs	r1, #4
	.loc	10 438 49                       @ lvgl/src/lv_widgets/lv_cont.c:438:49
	bl	lv_obj_is_protected
.Ltmp260:
	.loc	10 438 12                       @ lvgl/src/lv_widgets/lv_cont.c:438:12
	cbz	r0, .LBB16_15
	b	.LBB16_14
.LBB16_14:                              @   in Loop: Header=BB16_11 Depth=1
.Ltmp261:
	.loc	10 438 102                      @ lvgl/src/lv_widgets/lv_cont.c:438:102
	b	.LBB16_19
.Ltmp262:
.LBB16_15:                              @   in Loop: Header=BB16_11 Depth=1
	.loc	10 440 12 is_stmt 1             @ lvgl/src/lv_widgets/lv_cont.c:440:12
	ldrb.w	r0, [sp, #15]
.Ltmp263:
	.loc	10 440 12 is_stmt 0             @ lvgl/src/lv_widgets/lv_cont.c:440:12
	cmp	r0, #1
	bne	.LBB16_17
	b	.LBB16_16
.LBB16_16:                              @   in Loop: Header=BB16_11 Depth=1
.Ltmp264:
	.loc	10 440 54                       @ lvgl/src/lv_widgets/lv_cont.c:440:54
	ldr	r0, [sp, #20]
	.loc	10 440 61                       @ lvgl/src/lv_widgets/lv_cont.c:440:61
	ldr	r1, [sp, #28]
	.loc	10 440 67                       @ lvgl/src/lv_widgets/lv_cont.c:440:67
	ldrb.w	r2, [sp, #19]
	.loc	10 440 75                       @ lvgl/src/lv_widgets/lv_cont.c:440:75
	ldrh.w	r3, [sp, #12]
	.loc	10 440 74                       @ lvgl/src/lv_widgets/lv_cont.c:440:74
	rsbs	r3, r3, #0
	.loc	10 440 86                       @ lvgl/src/lv_widgets/lv_cont.c:440:86
	ldrsh.w	r12, [sp, #16]
	.loc	10 440 41                       @ lvgl/src/lv_widgets/lv_cont.c:440:41
	mov	lr, sp
	str.w	r12, [lr]
	sxth	r3, r3
	bl	lv_obj_align
	b	.LBB16_18
.LBB16_17:                              @   in Loop: Header=BB16_11 Depth=1
	.loc	10 441 27 is_stmt 1             @ lvgl/src/lv_widgets/lv_cont.c:441:27
	ldr	r0, [sp, #20]
	.loc	10 441 34 is_stmt 0             @ lvgl/src/lv_widgets/lv_cont.c:441:34
	ldr	r1, [sp, #28]
	.loc	10 441 40                       @ lvgl/src/lv_widgets/lv_cont.c:441:40
	ldrb.w	r2, [sp, #19]
	.loc	10 441 47                       @ lvgl/src/lv_widgets/lv_cont.c:441:47
	ldrsh.w	r3, [sp, #12]
	.loc	10 441 58                       @ lvgl/src/lv_widgets/lv_cont.c:441:58
	ldrsh.w	r12, [sp, #16]
	.loc	10 441 14                       @ lvgl/src/lv_widgets/lv_cont.c:441:14
	mov	lr, sp
	str.w	r12, [lr]
	bl	lv_obj_align
	b	.LBB16_18
.Ltmp265:
.LBB16_18:                              @   in Loop: Header=BB16_11 Depth=1
	.loc	10 443 39 is_stmt 1             @ lvgl/src/lv_widgets/lv_cont.c:443:39
	ldr	r0, [sp, #20]
	.loc	10 443 22 is_stmt 0             @ lvgl/src/lv_widgets/lv_cont.c:443:22
	bl	lv_obj_get_width
	.loc	10 443 48                       @ lvgl/src/lv_widgets/lv_cont.c:443:48
	ldrh.w	r1, [sp, #10]
	.loc	10 443 46                       @ lvgl/src/lv_widgets/lv_cont.c:443:46
	add	r1, r0
	.loc	10 443 19                       @ lvgl/src/lv_widgets/lv_cont.c:443:19
	ldrh.w	r0, [sp, #12]
	add	r0, r1
	strh.w	r0, [sp, #12]
	.loc	10 444 5 is_stmt 1              @ lvgl/src/lv_widgets/lv_cont.c:444:5
	b	.LBB16_19
.Ltmp266:
.LBB16_19:                              @   in Loop: Header=BB16_11 Depth=1
	.loc	10 437 5                        @ lvgl/src/lv_widgets/lv_cont.c:437:5
	ldr	r0, [sp, #28]
	adds	r0, #4
	ldr	r1, [sp, #20]
	bl	_lv_ll_get_prev
	str	r0, [sp, #20]
	b	.LBB16_11
.Ltmp267:
.LBB16_20:
	.loc	10 446 26                       @ lvgl/src/lv_widgets/lv_cont.c:446:26
	ldr	r0, [sp, #28]
	movs	r1, #1
	.loc	10 446 5 is_stmt 0              @ lvgl/src/lv_widgets/lv_cont.c:446:5
	bl	lv_obj_clear_protect
	.loc	10 447 1 is_stmt 1              @ lvgl/src/lv_widgets/lv_cont.c:447:1
	add	sp, #32
	pop	{r7, pc}
.Ltmp268:
.Lfunc_end16:
	.size	lv_cont_layout_row, .Lfunc_end16-lv_cont_layout_row
	.cfi_endproc
	.cantunwind
	.fnend
                                        @ -- End function
	.section	.text.lv_cont_layout_pretty,"ax",%progbits
	.p2align	3                               @ -- Begin function lv_cont_layout_pretty
	.type	lv_cont_layout_pretty,%function
	.code	16                              @ @lv_cont_layout_pretty
	.thumb_func
lv_cont_layout_pretty:
.Lfunc_begin17:
	.loc	10 492 0                        @ lvgl/src/lv_widgets/lv_cont.c:492:0
	.fnstart
	.cfi_startproc
@ %bb.0:
	.save	{r4, lr}
	push	{r4, lr}
	.cfi_def_cfa_offset 8
	.cfi_offset lr, -4
	.cfi_offset r4, -8
	.pad	#176
	sub	sp, #176
	.cfi_def_cfa_offset 184
	str	r0, [sp, #172]
.Ltmp269:
	.loc	10 493 43 prologue_end          @ lvgl/src/lv_widgets/lv_cont.c:493:43
	ldr	r0, [sp, #172]
	.loc	10 493 24 is_stmt 0             @ lvgl/src/lv_widgets/lv_cont.c:493:24
	bl	lv_cont_get_layout
	.loc	10 493 17                       @ lvgl/src/lv_widgets/lv_cont.c:493:17
	strb.w	r0, [sp, #171]
	.loc	10 498 49 is_stmt 1             @ lvgl/src/lv_widgets/lv_cont.c:498:49
	ldr	r0, [sp, #172]
	.loc	10 498 32 is_stmt 0             @ lvgl/src/lv_widgets/lv_cont.c:498:32
	bl	lv_obj_get_width
	.loc	10 498 16                       @ lvgl/src/lv_widgets/lv_cont.c:498:16
	strh.w	r0, [sp, #154]
	.loc	10 499 58 is_stmt 1             @ lvgl/src/lv_widgets/lv_cont.c:499:58
	ldr	r0, [sp, #172]
	movs	r1, #0
	.loc	10 499 33 is_stmt 0             @ lvgl/src/lv_widgets/lv_cont.c:499:33
	bl	lv_obj_get_style_pad_top
	.loc	10 499 16                       @ lvgl/src/lv_widgets/lv_cont.c:499:16
	strh.w	r0, [sp, #152]
	.loc	10 503 33 is_stmt 1             @ lvgl/src/lv_widgets/lv_cont.c:503:33
	ldr	r0, [sp, #172]
	.loc	10 503 39 is_stmt 0             @ lvgl/src/lv_widgets/lv_cont.c:503:39
	adds	r0, #4
	.loc	10 503 16                       @ lvgl/src/lv_widgets/lv_cont.c:503:16
	bl	_lv_ll_get_tail
	.loc	10 503 14                       @ lvgl/src/lv_widgets/lv_cont.c:503:14
	str	r0, [sp, #164]
.Ltmp270:
	.loc	10 504 8 is_stmt 1              @ lvgl/src/lv_widgets/lv_cont.c:504:8
	ldr	r0, [sp, #164]
.Ltmp271:
	.loc	10 504 8 is_stmt 0              @ lvgl/src/lv_widgets/lv_cont.c:504:8
	cbnz	r0, .LBB17_2
	b	.LBB17_1
.LBB17_1:
.Ltmp272:
	.loc	10 504 26                       @ lvgl/src/lv_widgets/lv_cont.c:504:26
	b	.LBB17_52
.Ltmp273:
.LBB17_2:
	.loc	10 506 24 is_stmt 1             @ lvgl/src/lv_widgets/lv_cont.c:506:24
	ldr	r0, [sp, #172]
	movs	r1, #1
	.loc	10 506 5 is_stmt 0              @ lvgl/src/lv_widgets/lv_cont.c:506:5
	bl	lv_obj_add_protect
	.loc	10 507 60 is_stmt 1             @ lvgl/src/lv_widgets/lv_cont.c:507:60
	ldr	r0, [sp, #172]
	movs	r1, #0
	.loc	10 507 34 is_stmt 0             @ lvgl/src/lv_widgets/lv_cont.c:507:34
	str	r1, [sp, #112]                  @ 4-byte Spill
	bl	lv_obj_get_style_pad_left
	ldr	r1, [sp, #112]                  @ 4-byte Reload
	.loc	10 507 16                       @ lvgl/src/lv_widgets/lv_cont.c:507:16
	strh.w	r0, [sp, #150]
	.loc	10 508 61 is_stmt 1             @ lvgl/src/lv_widgets/lv_cont.c:508:61
	ldr	r0, [sp, #172]
	.loc	10 508 34 is_stmt 0             @ lvgl/src/lv_widgets/lv_cont.c:508:34
	bl	lv_obj_get_style_pad_right
	ldr	r1, [sp, #112]                  @ 4-byte Reload
	.loc	10 508 16                       @ lvgl/src/lv_widgets/lv_cont.c:508:16
	strh.w	r0, [sp, #148]
	.loc	10 509 52 is_stmt 1             @ lvgl/src/lv_widgets/lv_cont.c:509:52
	ldr	r0, [sp, #172]
	.loc	10 509 25 is_stmt 0             @ lvgl/src/lv_widgets/lv_cont.c:509:25
	bl	lv_obj_get_style_pad_inner
	.loc	10 509 16                       @ lvgl/src/lv_widgets/lv_cont.c:509:16
	strh.w	r0, [sp, #146]
	.loc	10 511 16 is_stmt 1             @ lvgl/src/lv_widgets/lv_cont.c:511:16
	ldr	r0, [sp, #164]
	.loc	10 511 14 is_stmt 0             @ lvgl/src/lv_widgets/lv_cont.c:511:14
	str	r0, [sp, #160]
	.loc	10 512 5 is_stmt 1              @ lvgl/src/lv_widgets/lv_cont.c:512:5
	b	.LBB17_3
.LBB17_3:                               @ =>This Loop Header: Depth=1
                                        @     Child Loop BB17_5 Depth 2
                                        @     Child Loop BB17_32 Depth 2
	.loc	10 512 11 is_stmt 0             @ lvgl/src/lv_widgets/lv_cont.c:512:11
	ldr	r0, [sp, #164]
	.loc	10 512 5                        @ lvgl/src/lv_widgets/lv_cont.c:512:5
	cmp	r0, #0
	beq.w	.LBB17_51
	b	.LBB17_4
.LBB17_4:                               @   in Loop: Header=BB17_3 Depth=1
	.loc	10 0 5                          @ lvgl/src/lv_widgets/lv_cont.c:0:5
	movs	r0, #0
.Ltmp274:
	.loc	10 513 20 is_stmt 1             @ lvgl/src/lv_widgets/lv_cont.c:513:20
	strh.w	r0, [sp, #144]
	.loc	10 514 28                       @ lvgl/src/lv_widgets/lv_cont.c:514:28
	ldrh.w	r1, [sp, #150]
	.loc	10 514 36 is_stmt 0             @ lvgl/src/lv_widgets/lv_cont.c:514:36
	ldrh.w	r2, [sp, #148]
	.loc	10 514 34                       @ lvgl/src/lv_widgets/lv_cont.c:514:34
	add	r1, r2
	.loc	10 514 20                       @ lvgl/src/lv_widgets/lv_cont.c:514:20
	strh.w	r1, [sp, #142]
	.loc	10 515 18 is_stmt 1             @ lvgl/src/lv_widgets/lv_cont.c:515:18
	str	r0, [sp, #136]
	.loc	10 518 9                        @ lvgl/src/lv_widgets/lv_cont.c:518:9
	b	.LBB17_5
.LBB17_5:                               @   Parent Loop BB17_3 Depth=1
                                        @ =>  This Inner Loop Header: Depth=2
.Ltmp275:
	.loc	10 519 34                       @ lvgl/src/lv_widgets/lv_cont.c:519:34
	ldr	r0, [sp, #160]
	.loc	10 519 16 is_stmt 0             @ lvgl/src/lv_widgets/lv_cont.c:519:16
	bl	lv_obj_get_hidden
	.loc	10 519 53                       @ lvgl/src/lv_widgets/lv_cont.c:519:53
	cmp	r0, #0
	bne	.LBB17_18
	b	.LBB17_6
.LBB17_6:                               @   in Loop: Header=BB17_5 Depth=2
	.loc	10 519 76                       @ lvgl/src/lv_widgets/lv_cont.c:519:76
	ldr	r0, [sp, #160]
	movs	r1, #4
	.loc	10 519 56                       @ lvgl/src/lv_widgets/lv_cont.c:519:56
	bl	lv_obj_is_protected
.Ltmp276:
	.loc	10 519 16                       @ lvgl/src/lv_widgets/lv_cont.c:519:16
	cmp	r0, #0
	bne	.LBB17_18
	b	.LBB17_7
.LBB17_7:                               @   in Loop: Header=BB17_5 Depth=2
.Ltmp277:
	.loc	10 521 49 is_stmt 1             @ lvgl/src/lv_widgets/lv_cont.c:521:49
	ldr	r0, [sp, #160]
	.loc	10 521 32 is_stmt 0             @ lvgl/src/lv_widgets/lv_cont.c:521:32
	bl	lv_obj_get_width
	.loc	10 521 28                       @ lvgl/src/lv_widgets/lv_cont.c:521:28
	strh.w	r0, [sp, #134]
	.loc	10 522 51 is_stmt 1             @ lvgl/src/lv_widgets/lv_cont.c:522:51
	ldr	r0, [sp, #160]
	movs	r1, #0
	.loc	10 522 22 is_stmt 0             @ lvgl/src/lv_widgets/lv_cont.c:522:22
	str	r1, [sp, #108]                  @ 4-byte Spill
	bl	lv_obj_get_style_margin_left
	ldr	r1, [sp, #108]                  @ 4-byte Reload
	mov	r2, r0
	.loc	10 522 19                       @ lvgl/src/lv_widgets/lv_cont.c:522:19
	ldrh.w	r0, [sp, #134]
	add	r0, r2
	strh.w	r0, [sp, #134]
	.loc	10 523 52 is_stmt 1             @ lvgl/src/lv_widgets/lv_cont.c:523:52
	ldr	r0, [sp, #160]
	.loc	10 523 22 is_stmt 0             @ lvgl/src/lv_widgets/lv_cont.c:523:22
	bl	lv_obj_get_style_margin_right
	mov	r1, r0
	.loc	10 523 19                       @ lvgl/src/lv_widgets/lv_cont.c:523:19
	ldrh.w	r0, [sp, #134]
	add	r0, r1
	strh.w	r0, [sp, #134]
.Ltmp278:
	.loc	10 524 20 is_stmt 1             @ lvgl/src/lv_widgets/lv_cont.c:524:20
	ldrsh.w	r0, [sp, #142]
	.loc	10 524 28 is_stmt 0             @ lvgl/src/lv_widgets/lv_cont.c:524:28
	ldrsh.w	r1, [sp, #134]
	.loc	10 524 26                       @ lvgl/src/lv_widgets/lv_cont.c:524:26
	add	r0, r1
	.loc	10 524 32                       @ lvgl/src/lv_widgets/lv_cont.c:524:32
	ldrsh.w	r1, [sp, #154]
.Ltmp279:
	.loc	10 524 20                       @ lvgl/src/lv_widgets/lv_cont.c:524:20
	cmp	r0, r1
	ble	.LBB17_12
	b	.LBB17_8
.LBB17_8:                               @   in Loop: Header=BB17_3 Depth=1
.Ltmp280:
	.loc	10 527 24 is_stmt 1             @ lvgl/src/lv_widgets/lv_cont.c:527:24
	ldr	r0, [sp, #160]
	.loc	10 527 41 is_stmt 0             @ lvgl/src/lv_widgets/lv_cont.c:527:41
	cbz	r0, .LBB17_11
	b	.LBB17_9
.LBB17_9:                               @   in Loop: Header=BB17_3 Depth=1
	.loc	10 527 44                       @ lvgl/src/lv_widgets/lv_cont.c:527:44
	ldr	r0, [sp, #136]
.Ltmp281:
	.loc	10 527 24                       @ lvgl/src/lv_widgets/lv_cont.c:527:24
	cbz	r0, .LBB17_11
	b	.LBB17_10
.LBB17_10:                              @   in Loop: Header=BB17_3 Depth=1
.Ltmp282:
	.loc	10 528 53 is_stmt 1             @ lvgl/src/lv_widgets/lv_cont.c:528:53
	ldr	r0, [sp, #172]
	.loc	10 528 59 is_stmt 0             @ lvgl/src/lv_widgets/lv_cont.c:528:59
	adds	r0, #4
	.loc	10 528 69                       @ lvgl/src/lv_widgets/lv_cont.c:528:69
	ldr	r1, [sp, #160]
	.loc	10 528 36                       @ lvgl/src/lv_widgets/lv_cont.c:528:36
	bl	_lv_ll_get_next
	.loc	10 528 34                       @ lvgl/src/lv_widgets/lv_cont.c:528:34
	str	r0, [sp, #160]
	.loc	10 529 21 is_stmt 1             @ lvgl/src/lv_widgets/lv_cont.c:529:21
	b	.LBB17_11
.Ltmp283:
.LBB17_11:                              @   in Loop: Header=BB17_3 Depth=1
	.loc	10 530 21                       @ lvgl/src/lv_widgets/lv_cont.c:530:21
	b	.LBB17_22
.Ltmp284:
.LBB17_12:                              @   in Loop: Header=BB17_5 Depth=2
	.loc	10 532 26                       @ lvgl/src/lv_widgets/lv_cont.c:532:26
	ldrh.w	r0, [sp, #134]
	.loc	10 532 30 is_stmt 0             @ lvgl/src/lv_widgets/lv_cont.c:532:30
	ldrh.w	r1, [sp, #146]
	.loc	10 532 28                       @ lvgl/src/lv_widgets/lv_cont.c:532:28
	add	r1, r0
	.loc	10 532 23                       @ lvgl/src/lv_widgets/lv_cont.c:532:23
	ldrh.w	r0, [sp, #142]
	add	r0, r1
	strh.w	r0, [sp, #142]
	.loc	10 534 50 is_stmt 1             @ lvgl/src/lv_widgets/lv_cont.c:534:50
	ldr	r0, [sp, #160]
	.loc	10 534 32 is_stmt 0             @ lvgl/src/lv_widgets/lv_cont.c:534:32
	bl	lv_obj_get_height
	.loc	10 534 28                       @ lvgl/src/lv_widgets/lv_cont.c:534:28
	strh.w	r0, [sp, #132]
	.loc	10 535 50 is_stmt 1             @ lvgl/src/lv_widgets/lv_cont.c:535:50
	ldr	r0, [sp, #160]
	movs	r1, #0
	.loc	10 535 22 is_stmt 0             @ lvgl/src/lv_widgets/lv_cont.c:535:22
	str	r1, [sp, #104]                  @ 4-byte Spill
	bl	lv_obj_get_style_margin_top
	ldr	r1, [sp, #104]                  @ 4-byte Reload
	mov	r2, r0
	.loc	10 535 19                       @ lvgl/src/lv_widgets/lv_cont.c:535:19
	ldrh.w	r0, [sp, #132]
	add	r0, r2
	strh.w	r0, [sp, #132]
	.loc	10 536 53 is_stmt 1             @ lvgl/src/lv_widgets/lv_cont.c:536:53
	ldr	r0, [sp, #160]
	.loc	10 536 22 is_stmt 0             @ lvgl/src/lv_widgets/lv_cont.c:536:22
	bl	lv_obj_get_style_margin_bottom
	mov	r1, r0
	.loc	10 536 19                       @ lvgl/src/lv_widgets/lv_cont.c:536:19
	ldrh.w	r0, [sp, #132]
	add	r0, r1
	strh.w	r0, [sp, #132]
	.loc	10 537 25 is_stmt 1             @ lvgl/src/lv_widgets/lv_cont.c:537:25
	ldrsh.w	r0, [sp, #144]
	ldrsh.w	r1, [sp, #132]
	cmp	r0, r1
	ble	.LBB17_14
	b	.LBB17_13
.LBB17_13:                              @   in Loop: Header=BB17_5 Depth=2
	ldrsh.w	r0, [sp, #144]
	str	r0, [sp, #100]                  @ 4-byte Spill
	b	.LBB17_15
.LBB17_14:                              @   in Loop: Header=BB17_5 Depth=2
	ldrsh.w	r0, [sp, #132]
	str	r0, [sp, #100]                  @ 4-byte Spill
	b	.LBB17_15
.LBB17_15:                              @   in Loop: Header=BB17_5 Depth=2
	ldr	r0, [sp, #100]                  @ 4-byte Reload
	.loc	10 537 23 is_stmt 0             @ lvgl/src/lv_widgets/lv_cont.c:537:23
	strh.w	r0, [sp, #144]
	.loc	10 538 24 is_stmt 1             @ lvgl/src/lv_widgets/lv_cont.c:538:24
	ldr	r0, [sp, #136]
	adds	r0, #1
	str	r0, [sp, #136]
.Ltmp285:
	.loc	10 539 40                       @ lvgl/src/lv_widgets/lv_cont.c:539:40
	ldr	r0, [sp, #160]
	movs	r1, #8
	.loc	10 539 20 is_stmt 0             @ lvgl/src/lv_widgets/lv_cont.c:539:20
	bl	lv_obj_is_protected
.Ltmp286:
	.loc	10 539 20                       @ lvgl/src/lv_widgets/lv_cont.c:539:20
	cbz	r0, .LBB17_17
	b	.LBB17_16
.LBB17_16:                              @   in Loop: Header=BB17_3 Depth=1
.Ltmp287:
	.loc	10 540 21 is_stmt 1             @ lvgl/src/lv_widgets/lv_cont.c:540:21
	b	.LBB17_22
.Ltmp288:
.LBB17_17:                              @   in Loop: Header=BB17_5 Depth=2
	.loc	10 541 13                       @ lvgl/src/lv_widgets/lv_cont.c:541:13
	b	.LBB17_18
.Ltmp289:
.LBB17_18:                              @   in Loop: Header=BB17_5 Depth=2
	.loc	10 542 41                       @ lvgl/src/lv_widgets/lv_cont.c:542:41
	ldr	r0, [sp, #172]
	.loc	10 542 47 is_stmt 0             @ lvgl/src/lv_widgets/lv_cont.c:542:47
	adds	r0, #4
	.loc	10 542 57                       @ lvgl/src/lv_widgets/lv_cont.c:542:57
	ldr	r1, [sp, #160]
	.loc	10 542 24                       @ lvgl/src/lv_widgets/lv_cont.c:542:24
	bl	_lv_ll_get_prev
	.loc	10 542 22                       @ lvgl/src/lv_widgets/lv_cont.c:542:22
	str	r0, [sp, #160]
.Ltmp290:
	.loc	10 543 16 is_stmt 1             @ lvgl/src/lv_widgets/lv_cont.c:543:16
	ldr	r0, [sp, #136]
.Ltmp291:
	.loc	10 543 16 is_stmt 0             @ lvgl/src/lv_widgets/lv_cont.c:543:16
	cbnz	r0, .LBB17_20
	b	.LBB17_19
.LBB17_19:                              @   in Loop: Header=BB17_5 Depth=2
.Ltmp292:
	.loc	10 544 28 is_stmt 1             @ lvgl/src/lv_widgets/lv_cont.c:544:28
	ldr	r0, [sp, #160]
	.loc	10 544 26 is_stmt 0             @ lvgl/src/lv_widgets/lv_cont.c:544:26
	str	r0, [sp, #164]
	.loc	10 544 17                       @ lvgl/src/lv_widgets/lv_cont.c:544:17
	b	.LBB17_20
.Ltmp293:
.LBB17_20:                              @   in Loop: Header=BB17_5 Depth=2
	.loc	10 546 9 is_stmt 1              @ lvgl/src/lv_widgets/lv_cont.c:546:9
	b	.LBB17_21
.Ltmp294:
.LBB17_21:                              @   in Loop: Header=BB17_5 Depth=2
	.loc	10 546 17 is_stmt 0             @ lvgl/src/lv_widgets/lv_cont.c:546:17
	ldr	r0, [sp, #160]
.Ltmp295:
	.loc	10 546 9                        @ lvgl/src/lv_widgets/lv_cont.c:546:9
	cmp	r0, #0
	bne.w	.LBB17_5
	b	.LBB17_22
.Ltmp296:
.LBB17_22:                              @   in Loop: Header=BB17_3 Depth=1
	.loc	10 549 12 is_stmt 1             @ lvgl/src/lv_widgets/lv_cont.c:549:12
	ldr	r0, [sp, #136]
.Ltmp297:
	.loc	10 549 12 is_stmt 0             @ lvgl/src/lv_widgets/lv_cont.c:549:12
	cbnz	r0, .LBB17_26
	b	.LBB17_23
.LBB17_23:                              @   in Loop: Header=BB17_3 Depth=1
.Ltmp298:
	.loc	10 550 16 is_stmt 1             @ lvgl/src/lv_widgets/lv_cont.c:550:16
	ldr	r0, [sp, #160]
.Ltmp299:
	.loc	10 550 16 is_stmt 0             @ lvgl/src/lv_widgets/lv_cont.c:550:16
	cbz	r0, .LBB17_25
	b	.LBB17_24
.LBB17_24:                              @   in Loop: Header=BB17_3 Depth=1
.Ltmp300:
	.loc	10 551 67 is_stmt 1             @ lvgl/src/lv_widgets/lv_cont.c:551:67
	ldr	r0, [sp, #160]
	movs	r1, #0
	.loc	10 551 39 is_stmt 0             @ lvgl/src/lv_widgets/lv_cont.c:551:39
	str	r1, [sp, #96]                   @ 4-byte Spill
	bl	lv_obj_get_style_margin_top
	ldr	r3, [sp, #96]                   @ 4-byte Reload
	.loc	10 551 32                       @ lvgl/src/lv_widgets/lv_cont.c:551:32
	strh.w	r0, [sp, #130]
	.loc	10 553 30 is_stmt 1             @ lvgl/src/lv_widgets/lv_cont.c:553:30
	ldr	r0, [sp, #160]
	.loc	10 553 40 is_stmt 0             @ lvgl/src/lv_widgets/lv_cont.c:553:40
	ldr	r1, [sp, #172]
	.loc	10 553 70                       @ lvgl/src/lv_widgets/lv_cont.c:553:70
	ldrh.w	r2, [sp, #152]
	.loc	10 553 78                       @ lvgl/src/lv_widgets/lv_cont.c:553:78
	ldrh.w	r12, [sp, #130]
	.loc	10 553 76                       @ lvgl/src/lv_widgets/lv_cont.c:553:76
	add	r2, r12
	.loc	10 553 17                       @ lvgl/src/lv_widgets/lv_cont.c:553:17
	sxth	r2, r2
	mov	r12, sp
	str.w	r2, [r12]
	movs	r2, #2
	bl	lv_obj_align
	.loc	10 554 43 is_stmt 1             @ lvgl/src/lv_widgets/lv_cont.c:554:43
	ldr	r0, [sp, #160]
	.loc	10 554 25 is_stmt 0             @ lvgl/src/lv_widgets/lv_cont.c:554:25
	bl	lv_obj_get_height
	ldr	r1, [sp, #96]                   @ 4-byte Reload
	.loc	10 554 23                       @ lvgl/src/lv_widgets/lv_cont.c:554:23
	strh.w	r0, [sp, #144]
	.loc	10 555 26 is_stmt 1             @ lvgl/src/lv_widgets/lv_cont.c:555:26
	ldrh.w	r2, [sp, #130]
	.loc	10 555 23 is_stmt 0             @ lvgl/src/lv_widgets/lv_cont.c:555:23
	ldrh.w	r0, [sp, #144]
	add	r0, r2
	strh.w	r0, [sp, #144]
	.loc	10 556 57 is_stmt 1             @ lvgl/src/lv_widgets/lv_cont.c:556:57
	ldr	r0, [sp, #160]
	.loc	10 556 26 is_stmt 0             @ lvgl/src/lv_widgets/lv_cont.c:556:26
	bl	lv_obj_get_style_margin_bottom
	mov	r1, r0
	.loc	10 556 23                       @ lvgl/src/lv_widgets/lv_cont.c:556:23
	ldrh.w	r0, [sp, #144]
	add	r0, r1
	strh.w	r0, [sp, #144]
	.loc	10 557 13 is_stmt 1             @ lvgl/src/lv_widgets/lv_cont.c:557:13
	b	.LBB17_25
.Ltmp301:
.LBB17_25:                              @   in Loop: Header=BB17_3 Depth=1
	.loc	10 558 9                        @ lvgl/src/lv_widgets/lv_cont.c:558:9
	b	.LBB17_48
.Ltmp302:
.LBB17_26:                              @   in Loop: Header=BB17_3 Depth=1
	.loc	10 560 17                       @ lvgl/src/lv_widgets/lv_cont.c:560:17
	ldr	r0, [sp, #136]
.Ltmp303:
	.loc	10 560 17 is_stmt 0             @ lvgl/src/lv_widgets/lv_cont.c:560:17
	cmp	r0, #1
	bne	.LBB17_28
	b	.LBB17_27
.LBB17_27:                              @   in Loop: Header=BB17_3 Depth=1
.Ltmp304:
	.loc	10 561 26 is_stmt 1             @ lvgl/src/lv_widgets/lv_cont.c:561:26
	ldr	r0, [sp, #164]
	.loc	10 561 36 is_stmt 0             @ lvgl/src/lv_widgets/lv_cont.c:561:36
	str	r0, [sp, #92]                   @ 4-byte Spill
	ldr	r1, [sp, #172]
	.loc	10 563 26 is_stmt 1             @ lvgl/src/lv_widgets/lv_cont.c:563:26
	str	r1, [sp, #84]                   @ 4-byte Spill
	ldrh.w	r1, [sp, #152]
	.loc	10 563 34 is_stmt 0             @ lvgl/src/lv_widgets/lv_cont.c:563:34
	str	r1, [sp, #80]                   @ 4-byte Spill
	movs	r1, #0
	str	r1, [sp, #88]                   @ 4-byte Spill
	bl	lv_obj_get_style_margin_top
	ldr	r2, [sp, #80]                   @ 4-byte Reload
	ldr	r1, [sp, #84]                   @ 4-byte Reload
	ldr	r3, [sp, #88]                   @ 4-byte Reload
	mov	r12, r0
	.loc	10 563 32                       @ lvgl/src/lv_widgets/lv_cont.c:563:32
	ldr	r0, [sp, #92]                   @ 4-byte Reload
	add	r2, r12
	.loc	10 561 13 is_stmt 1             @ lvgl/src/lv_widgets/lv_cont.c:561:13
	sxth	r2, r2
	mov	r12, sp
	str.w	r2, [r12]
	movs	r2, #2
	bl	lv_obj_align
	.loc	10 564 9                        @ lvgl/src/lv_widgets/lv_cont.c:564:9
	b	.LBB17_47
.Ltmp305:
.LBB17_28:                              @   in Loop: Header=BB17_3 Depth=1
	.loc	10 567 22                       @ lvgl/src/lv_widgets/lv_cont.c:567:22
	ldrh.w	r0, [sp, #146]
	.loc	10 567 31 is_stmt 0             @ lvgl/src/lv_widgets/lv_cont.c:567:31
	ldr	r1, [sp, #136]
	.loc	10 567 19                       @ lvgl/src/lv_widgets/lv_cont.c:567:19
	ldrh.w	r2, [sp, #142]
	mls	r0, r0, r1, r2
	strh.w	r0, [sp, #142]
	.loc	10 568 38 is_stmt 1             @ lvgl/src/lv_widgets/lv_cont.c:568:38
	ldrsh.w	r0, [sp, #154]
	.loc	10 568 46 is_stmt 0             @ lvgl/src/lv_widgets/lv_cont.c:568:46
	ldrsh.w	r1, [sp, #142]
	.loc	10 568 44                       @ lvgl/src/lv_widgets/lv_cont.c:568:44
	subs	r0, r0, r1
	.loc	10 568 56                       @ lvgl/src/lv_widgets/lv_cont.c:568:56
	ldr	r1, [sp, #136]
	.loc	10 568 64                       @ lvgl/src/lv_widgets/lv_cont.c:568:64
	subs	r1, #1
	.loc	10 568 53                       @ lvgl/src/lv_widgets/lv_cont.c:568:53
	udiv	r0, r0, r1
	.loc	10 568 24                       @ lvgl/src/lv_widgets/lv_cont.c:568:24
	strh.w	r0, [sp, #128]
	.loc	10 569 35 is_stmt 1             @ lvgl/src/lv_widgets/lv_cont.c:569:35
	ldrh.w	r0, [sp, #150]
	.loc	10 569 24 is_stmt 0             @ lvgl/src/lv_widgets/lv_cont.c:569:24
	strh.w	r0, [sp, #126]
	.loc	10 570 35 is_stmt 1             @ lvgl/src/lv_widgets/lv_cont.c:570:35
	ldr	r0, [sp, #164]
	.loc	10 570 33 is_stmt 0             @ lvgl/src/lv_widgets/lv_cont.c:570:33
	str	r0, [sp, #156]
.Ltmp306:
	.loc	10 573 36 is_stmt 1             @ lvgl/src/lv_widgets/lv_cont.c:573:36
	ldr	r0, [sp, #172]
	.loc	10 573 16 is_stmt 0             @ lvgl/src/lv_widgets/lv_cont.c:573:16
	bl	lv_obj_get_base_dir
.Ltmp307:
	.loc	10 573 16                       @ lvgl/src/lv_widgets/lv_cont.c:573:16
	cmp	r0, #1
	bne	.LBB17_30
	b	.LBB17_29
.LBB17_29:                              @   in Loop: Header=BB17_3 Depth=1
	.loc	10 0 16                         @ lvgl/src/lv_widgets/lv_cont.c:0:16
	movs	r0, #3
.Ltmp308:
	.loc	10 574 23 is_stmt 1             @ lvgl/src/lv_widgets/lv_cont.c:574:23
	strb.w	r0, [sp, #125]
	mov.w	r0, #-1
	.loc	10 575 21                       @ lvgl/src/lv_widgets/lv_cont.c:575:21
	str	r0, [sp, #120]
	.loc	10 576 13                       @ lvgl/src/lv_widgets/lv_cont.c:576:13
	b	.LBB17_31
.Ltmp309:
.LBB17_30:                              @   in Loop: Header=BB17_3 Depth=1
	.loc	10 0 13 is_stmt 0               @ lvgl/src/lv_widgets/lv_cont.c:0:13
	movs	r0, #1
.Ltmp310:
	.loc	10 578 23 is_stmt 1             @ lvgl/src/lv_widgets/lv_cont.c:578:23
	strb.w	r0, [sp, #125]
	.loc	10 579 21                       @ lvgl/src/lv_widgets/lv_cont.c:579:21
	str	r0, [sp, #120]
	b	.LBB17_31
.Ltmp311:
.LBB17_31:                              @   in Loop: Header=BB17_3 Depth=1
	.loc	10 581 13                       @ lvgl/src/lv_widgets/lv_cont.c:581:13
	b	.LBB17_32
.LBB17_32:                              @   Parent Loop BB17_3 Depth=1
                                        @ =>  This Inner Loop Header: Depth=2
	.loc	10 581 19 is_stmt 0             @ lvgl/src/lv_widgets/lv_cont.c:581:19
	ldr	r0, [sp, #156]
	.loc	10 581 13                       @ lvgl/src/lv_widgets/lv_cont.c:581:13
	cmp	r0, #0
	beq.w	.LBB17_46
	b	.LBB17_33
.LBB17_33:                              @   in Loop: Header=BB17_32 Depth=2
.Ltmp312:
	.loc	10 582 38 is_stmt 1             @ lvgl/src/lv_widgets/lv_cont.c:582:38
	ldr	r0, [sp, #156]
	.loc	10 582 20 is_stmt 0             @ lvgl/src/lv_widgets/lv_cont.c:582:20
	bl	lv_obj_get_hidden
	.loc	10 582 58                       @ lvgl/src/lv_widgets/lv_cont.c:582:58
	cmp	r0, #0
	bne.w	.LBB17_43
	b	.LBB17_34
.LBB17_34:                              @   in Loop: Header=BB17_32 Depth=2
	.loc	10 582 81                       @ lvgl/src/lv_widgets/lv_cont.c:582:81
	ldr	r0, [sp, #156]
	movs	r1, #4
	.loc	10 582 61                       @ lvgl/src/lv_widgets/lv_cont.c:582:61
	bl	lv_obj_is_protected
.Ltmp313:
	.loc	10 582 20                       @ lvgl/src/lv_widgets/lv_cont.c:582:20
	cmp	r0, #0
	bne.w	.LBB17_43
	b	.LBB17_35
.LBB17_35:                              @   in Loop: Header=BB17_32 Depth=2
.Ltmp314:
	.loc	10 583 69 is_stmt 1             @ lvgl/src/lv_widgets/lv_cont.c:583:69
	ldr	r0, [sp, #156]
	movs	r1, #0
	.loc	10 583 40 is_stmt 0             @ lvgl/src/lv_widgets/lv_cont.c:583:40
	str	r1, [sp, #72]                   @ 4-byte Spill
	bl	lv_obj_get_style_margin_left
	ldr	r1, [sp, #72]                   @ 4-byte Reload
	.loc	10 583 32                       @ lvgl/src/lv_widgets/lv_cont.c:583:32
	strh.w	r0, [sp, #118]
	.loc	10 584 71 is_stmt 1             @ lvgl/src/lv_widgets/lv_cont.c:584:71
	ldr	r0, [sp, #156]
	.loc	10 584 41 is_stmt 0             @ lvgl/src/lv_widgets/lv_cont.c:584:41
	bl	lv_obj_get_style_margin_right
	.loc	10 584 32                       @ lvgl/src/lv_widgets/lv_cont.c:584:32
	strh.w	r0, [sp, #116]
	.loc	10 585 28 is_stmt 1             @ lvgl/src/lv_widgets/lv_cont.c:585:28
	ldrb.w	r0, [sp, #171]
	.loc	10 585 21 is_stmt 0             @ lvgl/src/lv_widgets/lv_cont.c:585:21
	mov	r1, r0
	str	r1, [sp, #76]                   @ 4-byte Spill
	cmp	r0, #8
	beq	.LBB17_38
	b	.LBB17_36
.LBB17_36:                              @   in Loop: Header=BB17_32 Depth=2
	ldr	r0, [sp, #76]                   @ 4-byte Reload
	cmp	r0, #9
	beq	.LBB17_39
	b	.LBB17_37
.LBB17_37:                              @   in Loop: Header=BB17_32 Depth=2
	ldr	r0, [sp, #76]                   @ 4-byte Reload
	cmp	r0, #10
	beq	.LBB17_40
	b	.LBB17_41
.LBB17_38:                              @   in Loop: Header=BB17_32 Depth=2
.Ltmp315:
	.loc	10 587 42 is_stmt 1             @ lvgl/src/lv_widgets/lv_cont.c:587:42
	ldr	r0, [sp, #156]
	.loc	10 587 53 is_stmt 0             @ lvgl/src/lv_widgets/lv_cont.c:587:53
	str	r0, [sp, #68]                   @ 4-byte Spill
	ldr	r1, [sp, #172]
	.loc	10 587 59                       @ lvgl/src/lv_widgets/lv_cont.c:587:59
	str	r1, [sp, #60]                   @ 4-byte Spill
	ldrb.w	r1, [sp, #125]
	.loc	10 588 42 is_stmt 1             @ lvgl/src/lv_widgets/lv_cont.c:588:42
	str	r1, [sp, #64]                   @ 4-byte Spill
	ldr	r1, [sp, #120]
	.loc	10 588 49 is_stmt 0             @ lvgl/src/lv_widgets/lv_cont.c:588:49
	ldrh.w	r2, [sp, #126]
	.loc	10 588 57                       @ lvgl/src/lv_widgets/lv_cont.c:588:57
	ldrh.w	r3, [sp, #118]
	.loc	10 588 55                       @ lvgl/src/lv_widgets/lv_cont.c:588:55
	add	r2, r3
	.loc	10 588 46                       @ lvgl/src/lv_widgets/lv_cont.c:588:46
	muls	r1, r2, r1
	.loc	10 589 42 is_stmt 1             @ lvgl/src/lv_widgets/lv_cont.c:589:42
	str	r1, [sp, #56]                   @ 4-byte Spill
	ldrh.w	r1, [sp, #152]
	.loc	10 589 50 is_stmt 0             @ lvgl/src/lv_widgets/lv_cont.c:589:50
	str	r1, [sp, #52]                   @ 4-byte Spill
	movs	r1, #0
	bl	lv_obj_get_style_margin_top
	ldr.w	r12, [sp, #52]                  @ 4-byte Reload
	ldr	r3, [sp, #56]                   @ 4-byte Reload
	ldr	r1, [sp, #60]                   @ 4-byte Reload
	ldr	r2, [sp, #64]                   @ 4-byte Reload
	mov	lr, r0
	.loc	10 589 48                       @ lvgl/src/lv_widgets/lv_cont.c:589:48
	ldr	r0, [sp, #68]                   @ 4-byte Reload
	add	r12, lr
	.loc	10 587 29 is_stmt 1             @ lvgl/src/lv_widgets/lv_cont.c:587:29
	sxth.w	r12, r12
	mov	lr, sp
	str.w	r12, [lr]
	sxth	r3, r3
	bl	lv_obj_align
	.loc	10 590 29                       @ lvgl/src/lv_widgets/lv_cont.c:590:29
	b	.LBB17_42
.LBB17_39:                              @   in Loop: Header=BB17_32 Depth=2
	.loc	10 592 42                       @ lvgl/src/lv_widgets/lv_cont.c:592:42
	ldr	r0, [sp, #156]
	.loc	10 592 53 is_stmt 0             @ lvgl/src/lv_widgets/lv_cont.c:592:53
	str	r0, [sp, #48]                   @ 4-byte Spill
	ldr	r1, [sp, #172]
	.loc	10 592 59                       @ lvgl/src/lv_widgets/lv_cont.c:592:59
	str	r1, [sp, #36]                   @ 4-byte Spill
	ldrb.w	r1, [sp, #125]
	.loc	10 593 42 is_stmt 1             @ lvgl/src/lv_widgets/lv_cont.c:593:42
	str	r1, [sp, #40]                   @ 4-byte Spill
	ldr	r1, [sp, #120]
	.loc	10 593 49 is_stmt 0             @ lvgl/src/lv_widgets/lv_cont.c:593:49
	ldrh.w	r2, [sp, #126]
	.loc	10 593 57                       @ lvgl/src/lv_widgets/lv_cont.c:593:57
	ldrh.w	r3, [sp, #118]
	.loc	10 593 55                       @ lvgl/src/lv_widgets/lv_cont.c:593:55
	add	r2, r3
	.loc	10 593 46                       @ lvgl/src/lv_widgets/lv_cont.c:593:46
	muls	r1, r2, r1
	.loc	10 594 42 is_stmt 1             @ lvgl/src/lv_widgets/lv_cont.c:594:42
	str	r1, [sp, #32]                   @ 4-byte Spill
	ldrh.w	r1, [sp, #152]
	.loc	10 594 51 is_stmt 0             @ lvgl/src/lv_widgets/lv_cont.c:594:51
	str	r1, [sp, #28]                   @ 4-byte Spill
	ldrsh.w	r1, [sp, #144]
	.loc	10 594 59                       @ lvgl/src/lv_widgets/lv_cont.c:594:59
	str	r1, [sp, #44]                   @ 4-byte Spill
	bl	lv_obj_get_height
	ldr.w	r12, [sp, #28]                  @ 4-byte Reload
	ldr	r3, [sp, #32]                   @ 4-byte Reload
	ldr	r1, [sp, #36]                   @ 4-byte Reload
	ldr	r2, [sp, #40]                   @ 4-byte Reload
	ldr.w	lr, [sp, #44]                   @ 4-byte Reload
	mov	r4, r0
	.loc	10 594 57                       @ lvgl/src/lv_widgets/lv_cont.c:594:57
	ldr	r0, [sp, #48]                   @ 4-byte Reload
	sub.w	lr, lr, r4
	.loc	10 594 89                       @ lvgl/src/lv_widgets/lv_cont.c:594:89
	add.w	lr, lr, lr, lsr #31
	.loc	10 594 48                       @ lvgl/src/lv_widgets/lv_cont.c:594:48
	add.w	r12, r12, lr, lsr #1
	.loc	10 592 29 is_stmt 1             @ lvgl/src/lv_widgets/lv_cont.c:592:29
	sxth.w	r12, r12
	mov	lr, sp
	str.w	r12, [lr]
	sxth	r3, r3
	bl	lv_obj_align
	.loc	10 596 29                       @ lvgl/src/lv_widgets/lv_cont.c:596:29
	b	.LBB17_42
.LBB17_40:                              @   in Loop: Header=BB17_32 Depth=2
	.loc	10 598 42                       @ lvgl/src/lv_widgets/lv_cont.c:598:42
	ldr	r0, [sp, #156]
	.loc	10 598 53 is_stmt 0             @ lvgl/src/lv_widgets/lv_cont.c:598:53
	str	r0, [sp, #24]                   @ 4-byte Spill
	ldr	r1, [sp, #172]
	.loc	10 598 59                       @ lvgl/src/lv_widgets/lv_cont.c:598:59
	str	r1, [sp, #16]                   @ 4-byte Spill
	ldrb.w	r1, [sp, #125]
	.loc	10 599 42 is_stmt 1             @ lvgl/src/lv_widgets/lv_cont.c:599:42
	str	r1, [sp, #20]                   @ 4-byte Spill
	ldr	r1, [sp, #120]
	.loc	10 599 49 is_stmt 0             @ lvgl/src/lv_widgets/lv_cont.c:599:49
	ldrh.w	r2, [sp, #126]
	.loc	10 599 57                       @ lvgl/src/lv_widgets/lv_cont.c:599:57
	ldrh.w	r3, [sp, #118]
	.loc	10 599 55                       @ lvgl/src/lv_widgets/lv_cont.c:599:55
	add	r2, r3
	.loc	10 599 46                       @ lvgl/src/lv_widgets/lv_cont.c:599:46
	muls	r1, r2, r1
	.loc	10 600 42 is_stmt 1             @ lvgl/src/lv_widgets/lv_cont.c:600:42
	str	r1, [sp, #12]                   @ 4-byte Spill
	ldrh.w	r1, [sp, #152]
	.loc	10 600 50 is_stmt 0             @ lvgl/src/lv_widgets/lv_cont.c:600:50
	ldrh.w	r2, [sp, #144]
	.loc	10 600 48                       @ lvgl/src/lv_widgets/lv_cont.c:600:48
	add	r1, r2
	.loc	10 600 58                       @ lvgl/src/lv_widgets/lv_cont.c:600:58
	str	r1, [sp, #4]                    @ 4-byte Spill
	bl	lv_obj_get_height
	mov	r1, r0
	.loc	10 600 56                       @ lvgl/src/lv_widgets/lv_cont.c:600:56
	ldr	r0, [sp, #4]                    @ 4-byte Reload
	subs	r0, r0, r1
	.loc	10 600 120                      @ lvgl/src/lv_widgets/lv_cont.c:600:120
	str	r0, [sp, #8]                    @ 4-byte Spill
	ldr	r0, [sp, #156]
	movs	r1, #0
	.loc	10 600 89                       @ lvgl/src/lv_widgets/lv_cont.c:600:89
	bl	lv_obj_get_style_margin_bottom
	ldr.w	r12, [sp, #8]                   @ 4-byte Reload
	ldr	r3, [sp, #12]                   @ 4-byte Reload
	ldr	r1, [sp, #16]                   @ 4-byte Reload
	ldr	r2, [sp, #20]                   @ 4-byte Reload
	mov	lr, r0
	.loc	10 600 87                       @ lvgl/src/lv_widgets/lv_cont.c:600:87
	ldr	r0, [sp, #24]                   @ 4-byte Reload
	sub.w	r12, r12, lr
	.loc	10 598 29 is_stmt 1             @ lvgl/src/lv_widgets/lv_cont.c:598:29
	sxth.w	r12, r12
	mov	lr, sp
	str.w	r12, [lr]
	sxth	r3, r3
	bl	lv_obj_align
	.loc	10 601 29                       @ lvgl/src/lv_widgets/lv_cont.c:601:29
	b	.LBB17_42
.LBB17_41:                              @   in Loop: Header=BB17_32 Depth=2
	.loc	10 603 29                       @ lvgl/src/lv_widgets/lv_cont.c:603:29
	b	.LBB17_42
.Ltmp316:
.LBB17_42:                              @   in Loop: Header=BB17_32 Depth=2
	.loc	10 606 47                       @ lvgl/src/lv_widgets/lv_cont.c:606:47
	ldr	r0, [sp, #156]
	.loc	10 606 30 is_stmt 0             @ lvgl/src/lv_widgets/lv_cont.c:606:30
	bl	lv_obj_get_width
	.loc	10 606 60                       @ lvgl/src/lv_widgets/lv_cont.c:606:60
	ldrh.w	r1, [sp, #128]
	.loc	10 606 58                       @ lvgl/src/lv_widgets/lv_cont.c:606:58
	add	r0, r1
	.loc	10 606 73                       @ lvgl/src/lv_widgets/lv_cont.c:606:73
	ldrh.w	r1, [sp, #118]
	.loc	10 606 71                       @ lvgl/src/lv_widgets/lv_cont.c:606:71
	add	r0, r1
	.loc	10 606 81                       @ lvgl/src/lv_widgets/lv_cont.c:606:81
	ldrh.w	r1, [sp, #116]
	.loc	10 606 79                       @ lvgl/src/lv_widgets/lv_cont.c:606:79
	add	r1, r0
	.loc	10 606 27                       @ lvgl/src/lv_widgets/lv_cont.c:606:27
	ldrh.w	r0, [sp, #126]
	add	r0, r1
	strh.w	r0, [sp, #126]
	.loc	10 607 17 is_stmt 1             @ lvgl/src/lv_widgets/lv_cont.c:607:17
	b	.LBB17_43
.Ltmp317:
.LBB17_43:                              @   in Loop: Header=BB17_32 Depth=2
	.loc	10 608 20                       @ lvgl/src/lv_widgets/lv_cont.c:608:20
	ldr	r0, [sp, #156]
	.loc	10 608 33 is_stmt 0             @ lvgl/src/lv_widgets/lv_cont.c:608:33
	ldr	r1, [sp, #160]
.Ltmp318:
	.loc	10 608 20                       @ lvgl/src/lv_widgets/lv_cont.c:608:20
	cmp	r0, r1
	bne	.LBB17_45
	b	.LBB17_44
.LBB17_44:                              @   in Loop: Header=BB17_3 Depth=1
.Ltmp319:
	.loc	10 608 43                       @ lvgl/src/lv_widgets/lv_cont.c:608:43
	b	.LBB17_46
.Ltmp320:
.LBB17_45:                              @   in Loop: Header=BB17_32 Depth=2
	.loc	10 609 46 is_stmt 1             @ lvgl/src/lv_widgets/lv_cont.c:609:46
	ldr	r0, [sp, #172]
	.loc	10 609 52 is_stmt 0             @ lvgl/src/lv_widgets/lv_cont.c:609:52
	adds	r0, #4
	.loc	10 609 62                       @ lvgl/src/lv_widgets/lv_cont.c:609:62
	ldr	r1, [sp, #156]
	.loc	10 609 29                       @ lvgl/src/lv_widgets/lv_cont.c:609:29
	bl	_lv_ll_get_prev
	.loc	10 609 27                       @ lvgl/src/lv_widgets/lv_cont.c:609:27
	str	r0, [sp, #156]
.Ltmp321:
	.loc	10 581 13 is_stmt 1             @ lvgl/src/lv_widgets/lv_cont.c:581:13
	b	.LBB17_32
.Ltmp322:
.LBB17_46:                              @   in Loop: Header=BB17_3 Depth=1
	.loc	10 0 13 is_stmt 0               @ lvgl/src/lv_widgets/lv_cont.c:0:13
	b	.LBB17_47
.LBB17_47:                              @   in Loop: Header=BB17_3 Depth=1
	b	.LBB17_48
.LBB17_48:                              @   in Loop: Header=BB17_3 Depth=1
.Ltmp323:
	.loc	10 613 12 is_stmt 1             @ lvgl/src/lv_widgets/lv_cont.c:613:12
	ldr	r0, [sp, #160]
.Ltmp324:
	.loc	10 613 12 is_stmt 0             @ lvgl/src/lv_widgets/lv_cont.c:613:12
	cbnz	r0, .LBB17_50
	b	.LBB17_49
.LBB17_49:
.Ltmp325:
	.loc	10 613 30                       @ lvgl/src/lv_widgets/lv_cont.c:613:30
	b	.LBB17_51
.Ltmp326:
.LBB17_50:                              @   in Loop: Header=BB17_3 Depth=1
	.loc	10 614 18 is_stmt 1             @ lvgl/src/lv_widgets/lv_cont.c:614:18
	ldrh.w	r0, [sp, #146]
	.loc	10 614 27 is_stmt 0             @ lvgl/src/lv_widgets/lv_cont.c:614:27
	ldrh.w	r1, [sp, #144]
	.loc	10 614 25                       @ lvgl/src/lv_widgets/lv_cont.c:614:25
	add	r1, r0
	.loc	10 614 15                       @ lvgl/src/lv_widgets/lv_cont.c:614:15
	ldrh.w	r0, [sp, #152]
	add	r0, r1
	strh.w	r0, [sp, #152]
	.loc	10 615 37 is_stmt 1             @ lvgl/src/lv_widgets/lv_cont.c:615:37
	ldr	r0, [sp, #172]
	.loc	10 615 43 is_stmt 0             @ lvgl/src/lv_widgets/lv_cont.c:615:43
	adds	r0, #4
	.loc	10 615 53                       @ lvgl/src/lv_widgets/lv_cont.c:615:53
	ldr	r1, [sp, #160]
	.loc	10 615 20                       @ lvgl/src/lv_widgets/lv_cont.c:615:20
	bl	_lv_ll_get_prev
	.loc	10 615 18                       @ lvgl/src/lv_widgets/lv_cont.c:615:18
	str	r0, [sp, #164]
	.loc	10 616 20 is_stmt 1             @ lvgl/src/lv_widgets/lv_cont.c:616:20
	ldr	r0, [sp, #164]
	.loc	10 616 18 is_stmt 0             @ lvgl/src/lv_widgets/lv_cont.c:616:18
	str	r0, [sp, #160]
.Ltmp327:
	.loc	10 512 5 is_stmt 1              @ lvgl/src/lv_widgets/lv_cont.c:512:5
	b	.LBB17_3
.LBB17_51:
	.loc	10 618 26                       @ lvgl/src/lv_widgets/lv_cont.c:618:26
	ldr	r0, [sp, #172]
	movs	r1, #1
	.loc	10 618 5 is_stmt 0              @ lvgl/src/lv_widgets/lv_cont.c:618:5
	bl	lv_obj_clear_protect
	.loc	10 619 1 is_stmt 1              @ lvgl/src/lv_widgets/lv_cont.c:619:1
	b	.LBB17_52
.LBB17_52:
	add	sp, #176
	pop	{r4, pc}
.Ltmp328:
.Lfunc_end17:
	.size	lv_cont_layout_pretty, .Lfunc_end17-lv_cont_layout_pretty
	.cfi_endproc
	.cantunwind
	.fnend
                                        @ -- End function
	.section	.text.lv_cont_layout_grid,"ax",%progbits
	.p2align	3                               @ -- Begin function lv_cont_layout_grid
	.type	lv_cont_layout_grid,%function
	.code	16                              @ @lv_cont_layout_grid
	.thumb_func
lv_cont_layout_grid:
.Lfunc_begin18:
	.loc	10 626 0                        @ lvgl/src/lv_widgets/lv_cont.c:626:0
	.fnstart
	.cfi_startproc
@ %bb.0:
	.save	{r7, lr}
	push	{r7, lr}
	.cfi_def_cfa_offset 8
	.cfi_offset lr, -4
	.cfi_offset r7, -8
	.pad	#32
	sub	sp, #32
	.cfi_def_cfa_offset 40
	str	r0, [sp, #28]
.Ltmp329:
	.loc	10 627 54 prologue_end          @ lvgl/src/lv_widgets/lv_cont.c:627:54
	ldr	r0, [sp, #28]
	.loc	10 627 33 is_stmt 0             @ lvgl/src/lv_widgets/lv_cont.c:627:33
	bl	lv_obj_get_width_fit
	.loc	10 627 16                       @ lvgl/src/lv_widgets/lv_cont.c:627:16
	strh.w	r0, [sp, #26]
	.loc	10 628 51 is_stmt 1             @ lvgl/src/lv_widgets/lv_cont.c:628:51
	ldr	r0, [sp, #28]
	movs	r1, #0
	.loc	10 628 24 is_stmt 0             @ lvgl/src/lv_widgets/lv_cont.c:628:24
	str	r1, [sp, #4]                    @ 4-byte Spill
	bl	lv_obj_get_style_pad_inner
	ldr	r1, [sp, #4]                    @ 4-byte Reload
	.loc	10 628 16                       @ lvgl/src/lv_widgets/lv_cont.c:628:16
	strh.w	r0, [sp, #24]
	.loc	10 629 24 is_stmt 1             @ lvgl/src/lv_widgets/lv_cont.c:629:24
	ldrh.w	r0, [sp, #24]
	.loc	10 629 67 is_stmt 0             @ lvgl/src/lv_widgets/lv_cont.c:629:67
	str	r0, [sp]                        @ 4-byte Spill
	ldr	r0, [sp, #28]
	.loc	10 629 50                       @ lvgl/src/lv_widgets/lv_cont.c:629:50
	bl	lv_obj_get_child
	.loc	10 629 32                       @ lvgl/src/lv_widgets/lv_cont.c:629:32
	bl	lv_obj_get_height
	mov	r1, r0
	.loc	10 629 30                       @ lvgl/src/lv_widgets/lv_cont.c:629:30
	ldr	r0, [sp]                        @ 4-byte Reload
	add	r0, r1
	.loc	10 629 16                       @ lvgl/src/lv_widgets/lv_cont.c:629:16
	strh.w	r0, [sp, #22]
	.loc	10 633 24 is_stmt 1             @ lvgl/src/lv_widgets/lv_cont.c:633:24
	ldr	r0, [sp, #28]
	movs	r1, #1
	.loc	10 633 5 is_stmt 0              @ lvgl/src/lv_widgets/lv_cont.c:633:5
	bl	lv_obj_add_protect
	ldr	r1, [sp, #4]                    @ 4-byte Reload
	.loc	10 636 49 is_stmt 1             @ lvgl/src/lv_widgets/lv_cont.c:636:49
	ldr	r0, [sp, #28]
	.loc	10 636 23 is_stmt 0             @ lvgl/src/lv_widgets/lv_cont.c:636:23
	bl	lv_obj_get_style_pad_left
	ldr	r1, [sp, #4]                    @ 4-byte Reload
	.loc	10 636 16                       @ lvgl/src/lv_widgets/lv_cont.c:636:16
	strh.w	r0, [sp, #20]
	.loc	10 637 24 is_stmt 1             @ lvgl/src/lv_widgets/lv_cont.c:637:24
	ldrh.w	r0, [sp, #20]
	.loc	10 637 16 is_stmt 0             @ lvgl/src/lv_widgets/lv_cont.c:637:16
	strh.w	r0, [sp, #18]
	.loc	10 638 49 is_stmt 1             @ lvgl/src/lv_widgets/lv_cont.c:638:49
	ldr	r0, [sp, #28]
	.loc	10 638 24 is_stmt 0             @ lvgl/src/lv_widgets/lv_cont.c:638:24
	bl	lv_obj_get_style_pad_top
	.loc	10 638 16                       @ lvgl/src/lv_widgets/lv_cont.c:638:16
	strh.w	r0, [sp, #16]
.Ltmp330:
	.loc	10 640 5 is_stmt 1              @ lvgl/src/lv_widgets/lv_cont.c:640:5
	ldr	r0, [sp, #28]
	adds	r0, #4
	bl	_lv_ll_get_tail
	str	r0, [sp, #12]
	b	.LBB18_1
.LBB18_1:                               @ =>This Inner Loop Header: Depth=1
.Ltmp331:
	.loc	10 640 5 is_stmt 0              @ lvgl/src/lv_widgets/lv_cont.c:640:5
	ldr	r0, [sp, #12]
.Ltmp332:
	.loc	10 640 5                        @ lvgl/src/lv_widgets/lv_cont.c:640:5
	cmp	r0, #0
	beq	.LBB18_9
	b	.LBB18_2
.LBB18_2:                               @   in Loop: Header=BB18_1 Depth=1
.Ltmp333:
	.loc	10 641 30 is_stmt 1             @ lvgl/src/lv_widgets/lv_cont.c:641:30
	ldr	r0, [sp, #12]
	.loc	10 641 12 is_stmt 0             @ lvgl/src/lv_widgets/lv_cont.c:641:12
	bl	lv_obj_get_hidden
	.loc	10 641 46                       @ lvgl/src/lv_widgets/lv_cont.c:641:46
	cbnz	r0, .LBB18_4
	b	.LBB18_3
.LBB18_3:                               @   in Loop: Header=BB18_1 Depth=1
	.loc	10 641 69                       @ lvgl/src/lv_widgets/lv_cont.c:641:69
	ldr	r0, [sp, #12]
	movs	r1, #4
	.loc	10 641 49                       @ lvgl/src/lv_widgets/lv_cont.c:641:49
	bl	lv_obj_is_protected
.Ltmp334:
	.loc	10 641 12                       @ lvgl/src/lv_widgets/lv_cont.c:641:12
	cbz	r0, .LBB18_5
	b	.LBB18_4
.LBB18_4:                               @   in Loop: Header=BB18_1 Depth=1
.Ltmp335:
	.loc	10 641 102                      @ lvgl/src/lv_widgets/lv_cont.c:641:102
	b	.LBB18_8
.Ltmp336:
.LBB18_5:                               @   in Loop: Header=BB18_1 Depth=1
	.loc	10 642 45 is_stmt 1             @ lvgl/src/lv_widgets/lv_cont.c:642:45
	ldr	r0, [sp, #12]
	.loc	10 642 28 is_stmt 0             @ lvgl/src/lv_widgets/lv_cont.c:642:28
	bl	lv_obj_get_width
	.loc	10 642 20                       @ lvgl/src/lv_widgets/lv_cont.c:642:20
	strh.w	r0, [sp, #10]
.Ltmp337:
	.loc	10 643 12 is_stmt 1             @ lvgl/src/lv_widgets/lv_cont.c:643:12
	ldrsh.w	r0, [sp, #18]
	.loc	10 643 20 is_stmt 0             @ lvgl/src/lv_widgets/lv_cont.c:643:20
	ldrsh.w	r1, [sp, #10]
	.loc	10 643 18                       @ lvgl/src/lv_widgets/lv_cont.c:643:18
	add	r0, r1
	.loc	10 643 28                       @ lvgl/src/lv_widgets/lv_cont.c:643:28
	ldrsh.w	r1, [sp, #26]
	.loc	10 643 36                       @ lvgl/src/lv_widgets/lv_cont.c:643:36
	ldrsh.w	r2, [sp, #20]
	.loc	10 643 34                       @ lvgl/src/lv_widgets/lv_cont.c:643:34
	add	r1, r2
.Ltmp338:
	.loc	10 643 12                       @ lvgl/src/lv_widgets/lv_cont.c:643:12
	cmp	r0, r1
	ble	.LBB18_7
	b	.LBB18_6
.LBB18_6:                               @   in Loop: Header=BB18_1 Depth=1
.Ltmp339:
	.loc	10 644 21 is_stmt 1             @ lvgl/src/lv_widgets/lv_cont.c:644:21
	ldrh.w	r0, [sp, #20]
	.loc	10 644 19 is_stmt 0             @ lvgl/src/lv_widgets/lv_cont.c:644:19
	strh.w	r0, [sp, #18]
	.loc	10 645 22 is_stmt 1             @ lvgl/src/lv_widgets/lv_cont.c:645:22
	ldrh.w	r1, [sp, #22]
	.loc	10 645 19 is_stmt 0             @ lvgl/src/lv_widgets/lv_cont.c:645:19
	ldrh.w	r0, [sp, #16]
	add	r0, r1
	strh.w	r0, [sp, #16]
	.loc	10 646 9 is_stmt 1              @ lvgl/src/lv_widgets/lv_cont.c:646:9
	b	.LBB18_7
.Ltmp340:
.LBB18_7:                               @   in Loop: Header=BB18_1 Depth=1
	.loc	10 648 24                       @ lvgl/src/lv_widgets/lv_cont.c:648:24
	ldr	r0, [sp, #12]
	.loc	10 648 31 is_stmt 0             @ lvgl/src/lv_widgets/lv_cont.c:648:31
	ldrsh.w	r1, [sp, #18]
	.loc	10 648 38                       @ lvgl/src/lv_widgets/lv_cont.c:648:38
	ldrsh.w	r2, [sp, #16]
	.loc	10 648 9                        @ lvgl/src/lv_widgets/lv_cont.c:648:9
	bl	lv_obj_set_pos
	.loc	10 649 18 is_stmt 1             @ lvgl/src/lv_widgets/lv_cont.c:649:18
	ldrh.w	r0, [sp, #24]
	.loc	10 649 26 is_stmt 0             @ lvgl/src/lv_widgets/lv_cont.c:649:26
	ldrh.w	r1, [sp, #10]
	.loc	10 649 24                       @ lvgl/src/lv_widgets/lv_cont.c:649:24
	add	r1, r0
	.loc	10 649 15                       @ lvgl/src/lv_widgets/lv_cont.c:649:15
	ldrh.w	r0, [sp, #18]
	add	r0, r1
	strh.w	r0, [sp, #18]
	.loc	10 650 5 is_stmt 1              @ lvgl/src/lv_widgets/lv_cont.c:650:5
	b	.LBB18_8
.Ltmp341:
.LBB18_8:                               @   in Loop: Header=BB18_1 Depth=1
	.loc	10 640 5                        @ lvgl/src/lv_widgets/lv_cont.c:640:5
	ldr	r0, [sp, #28]
	adds	r0, #4
	ldr	r1, [sp, #12]
	bl	_lv_ll_get_prev
	str	r0, [sp, #12]
	b	.LBB18_1
.Ltmp342:
.LBB18_9:
	.loc	10 652 26                       @ lvgl/src/lv_widgets/lv_cont.c:652:26
	ldr	r0, [sp, #28]
	movs	r1, #1
	.loc	10 652 5 is_stmt 0              @ lvgl/src/lv_widgets/lv_cont.c:652:5
	bl	lv_obj_clear_protect
	.loc	10 653 1 is_stmt 1              @ lvgl/src/lv_widgets/lv_cont.c:653:1
	add	sp, #32
	pop	{r7, pc}
.Ltmp343:
.Lfunc_end18:
	.size	lv_cont_layout_grid, .Lfunc_end18-lv_cont_layout_grid
	.cfi_endproc
	.cantunwind
	.fnend
                                        @ -- End function
	.section	.text.lv_obj_get_style_pad_inner,"ax",%progbits
	.p2align	3                               @ -- Begin function lv_obj_get_style_pad_inner
	.type	lv_obj_get_style_pad_inner,%function
	.code	16                              @ @lv_obj_get_style_pad_inner
	.thumb_func
lv_obj_get_style_pad_inner:
.Lfunc_begin19:
	.file	13 "E:\\Smart-access-control\\Hardware\\CODE" "lvgl/src/lv_widgets/../lv_core/lv_obj_style_dec.h"
	.loc	13 104 0                        @ lvgl/src/lv_widgets/../lv_core/lv_obj_style_dec.h:104:0
	.fnstart
	.cfi_startproc
@ %bb.0:
	.save	{r7, lr}
	push	{r7, lr}
	.cfi_def_cfa_offset 8
	.cfi_offset lr, -4
	.cfi_offset r7, -8
	.pad	#8
	sub	sp, #8
	.cfi_def_cfa_offset 16
                                        @ kill: def $r2 killed $r1
	str	r0, [sp, #4]
	strb.w	r1, [sp, #3]
.Ltmp344:
	.loc	13 104 1 prologue_end           @ lvgl/src/lv_widgets/../lv_core/lv_obj_style_dec.h:104:1
	ldr	r0, [sp, #4]
	ldrb.w	r1, [sp, #3]
	movs	r2, #20
	bl	_lv_obj_get_style_int
	add	sp, #8
	pop	{r7, pc}
.Ltmp345:
.Lfunc_end19:
	.size	lv_obj_get_style_pad_inner, .Lfunc_end19-lv_obj_get_style_pad_inner
	.cfi_endproc
	.cantunwind
	.fnend
                                        @ -- End function
	.section	.text.lv_obj_get_style_pad_left,"ax",%progbits
	.p2align	3                               @ -- Begin function lv_obj_get_style_pad_left
	.type	lv_obj_get_style_pad_left,%function
	.code	16                              @ @lv_obj_get_style_pad_left
	.thumb_func
lv_obj_get_style_pad_left:
.Lfunc_begin20:
	.loc	13 102 0                        @ lvgl/src/lv_widgets/../lv_core/lv_obj_style_dec.h:102:0
	.fnstart
	.cfi_startproc
@ %bb.0:
	.save	{r7, lr}
	push	{r7, lr}
	.cfi_def_cfa_offset 8
	.cfi_offset lr, -4
	.cfi_offset r7, -8
	.pad	#8
	sub	sp, #8
	.cfi_def_cfa_offset 16
                                        @ kill: def $r2 killed $r1
	str	r0, [sp, #4]
	strb.w	r1, [sp, #3]
.Ltmp346:
	.loc	13 102 1 prologue_end           @ lvgl/src/lv_widgets/../lv_core/lv_obj_style_dec.h:102:1
	ldr	r0, [sp, #4]
	ldrb.w	r1, [sp, #3]
	movs	r2, #18
	bl	_lv_obj_get_style_int
	add	sp, #8
	pop	{r7, pc}
.Ltmp347:
.Lfunc_end20:
	.size	lv_obj_get_style_pad_left, .Lfunc_end20-lv_obj_get_style_pad_left
	.cfi_endproc
	.cantunwind
	.fnend
                                        @ -- End function
	.section	.text.lv_obj_get_style_pad_right,"ax",%progbits
	.p2align	3                               @ -- Begin function lv_obj_get_style_pad_right
	.type	lv_obj_get_style_pad_right,%function
	.code	16                              @ @lv_obj_get_style_pad_right
	.thumb_func
lv_obj_get_style_pad_right:
.Lfunc_begin21:
	.loc	13 103 0                        @ lvgl/src/lv_widgets/../lv_core/lv_obj_style_dec.h:103:0
	.fnstart
	.cfi_startproc
@ %bb.0:
	.save	{r7, lr}
	push	{r7, lr}
	.cfi_def_cfa_offset 8
	.cfi_offset lr, -4
	.cfi_offset r7, -8
	.pad	#8
	sub	sp, #8
	.cfi_def_cfa_offset 16
                                        @ kill: def $r2 killed $r1
	str	r0, [sp, #4]
	strb.w	r1, [sp, #3]
.Ltmp348:
	.loc	13 103 1 prologue_end           @ lvgl/src/lv_widgets/../lv_core/lv_obj_style_dec.h:103:1
	ldr	r0, [sp, #4]
	ldrb.w	r1, [sp, #3]
	movs	r2, #19
	bl	_lv_obj_get_style_int
	add	sp, #8
	pop	{r7, pc}
.Ltmp349:
.Lfunc_end21:
	.size	lv_obj_get_style_pad_right, .Lfunc_end21-lv_obj_get_style_pad_right
	.cfi_endproc
	.cantunwind
	.fnend
                                        @ -- End function
	.section	.text.lv_obj_get_style_pad_top,"ax",%progbits
	.p2align	3                               @ -- Begin function lv_obj_get_style_pad_top
	.type	lv_obj_get_style_pad_top,%function
	.code	16                              @ @lv_obj_get_style_pad_top
	.thumb_func
lv_obj_get_style_pad_top:
.Lfunc_begin22:
	.loc	13 100 0                        @ lvgl/src/lv_widgets/../lv_core/lv_obj_style_dec.h:100:0
	.fnstart
	.cfi_startproc
@ %bb.0:
	.save	{r7, lr}
	push	{r7, lr}
	.cfi_def_cfa_offset 8
	.cfi_offset lr, -4
	.cfi_offset r7, -8
	.pad	#8
	sub	sp, #8
	.cfi_def_cfa_offset 16
                                        @ kill: def $r2 killed $r1
	str	r0, [sp, #4]
	strb.w	r1, [sp, #3]
.Ltmp350:
	.loc	13 100 1 prologue_end           @ lvgl/src/lv_widgets/../lv_core/lv_obj_style_dec.h:100:1
	ldr	r0, [sp, #4]
	ldrb.w	r1, [sp, #3]
	movs	r2, #16
	bl	_lv_obj_get_style_int
	add	sp, #8
	pop	{r7, pc}
.Ltmp351:
.Lfunc_end22:
	.size	lv_obj_get_style_pad_top, .Lfunc_end22-lv_obj_get_style_pad_top
	.cfi_endproc
	.cantunwind
	.fnend
                                        @ -- End function
	.section	.text.lv_obj_get_style_margin_top,"ax",%progbits
	.p2align	3                               @ -- Begin function lv_obj_get_style_margin_top
	.type	lv_obj_get_style_margin_top,%function
	.code	16                              @ @lv_obj_get_style_margin_top
	.thumb_func
lv_obj_get_style_margin_top:
.Lfunc_begin23:
	.loc	13 105 0                        @ lvgl/src/lv_widgets/../lv_core/lv_obj_style_dec.h:105:0
	.fnstart
	.cfi_startproc
@ %bb.0:
	.save	{r7, lr}
	push	{r7, lr}
	.cfi_def_cfa_offset 8
	.cfi_offset lr, -4
	.cfi_offset r7, -8
	.pad	#8
	sub	sp, #8
	.cfi_def_cfa_offset 16
                                        @ kill: def $r2 killed $r1
	str	r0, [sp, #4]
	strb.w	r1, [sp, #3]
.Ltmp352:
	.loc	13 105 1 prologue_end           @ lvgl/src/lv_widgets/../lv_core/lv_obj_style_dec.h:105:1
	ldr	r0, [sp, #4]
	ldrb.w	r1, [sp, #3]
	movs	r2, #21
	bl	_lv_obj_get_style_int
	add	sp, #8
	pop	{r7, pc}
.Ltmp353:
.Lfunc_end23:
	.size	lv_obj_get_style_margin_top, .Lfunc_end23-lv_obj_get_style_margin_top
	.cfi_endproc
	.cantunwind
	.fnend
                                        @ -- End function
	.section	.text.lv_obj_get_style_margin_bottom,"ax",%progbits
	.p2align	3                               @ -- Begin function lv_obj_get_style_margin_bottom
	.type	lv_obj_get_style_margin_bottom,%function
	.code	16                              @ @lv_obj_get_style_margin_bottom
	.thumb_func
lv_obj_get_style_margin_bottom:
.Lfunc_begin24:
	.loc	13 106 0                        @ lvgl/src/lv_widgets/../lv_core/lv_obj_style_dec.h:106:0
	.fnstart
	.cfi_startproc
@ %bb.0:
	.save	{r7, lr}
	push	{r7, lr}
	.cfi_def_cfa_offset 8
	.cfi_offset lr, -4
	.cfi_offset r7, -8
	.pad	#8
	sub	sp, #8
	.cfi_def_cfa_offset 16
                                        @ kill: def $r2 killed $r1
	str	r0, [sp, #4]
	strb.w	r1, [sp, #3]
.Ltmp354:
	.loc	13 106 1 prologue_end           @ lvgl/src/lv_widgets/../lv_core/lv_obj_style_dec.h:106:1
	ldr	r0, [sp, #4]
	ldrb.w	r1, [sp, #3]
	movs	r2, #22
	bl	_lv_obj_get_style_int
	add	sp, #8
	pop	{r7, pc}
.Ltmp355:
.Lfunc_end24:
	.size	lv_obj_get_style_margin_bottom, .Lfunc_end24-lv_obj_get_style_margin_bottom
	.cfi_endproc
	.cantunwind
	.fnend
                                        @ -- End function
	.section	.text.lv_obj_get_style_margin_left,"ax",%progbits
	.p2align	3                               @ -- Begin function lv_obj_get_style_margin_left
	.type	lv_obj_get_style_margin_left,%function
	.code	16                              @ @lv_obj_get_style_margin_left
	.thumb_func
lv_obj_get_style_margin_left:
.Lfunc_begin25:
	.loc	13 107 0                        @ lvgl/src/lv_widgets/../lv_core/lv_obj_style_dec.h:107:0
	.fnstart
	.cfi_startproc
@ %bb.0:
	.save	{r7, lr}
	push	{r7, lr}
	.cfi_def_cfa_offset 8
	.cfi_offset lr, -4
	.cfi_offset r7, -8
	.pad	#8
	sub	sp, #8
	.cfi_def_cfa_offset 16
                                        @ kill: def $r2 killed $r1
	str	r0, [sp, #4]
	strb.w	r1, [sp, #3]
.Ltmp356:
	.loc	13 107 1 prologue_end           @ lvgl/src/lv_widgets/../lv_core/lv_obj_style_dec.h:107:1
	ldr	r0, [sp, #4]
	ldrb.w	r1, [sp, #3]
	movs	r2, #23
	bl	_lv_obj_get_style_int
	add	sp, #8
	pop	{r7, pc}
.Ltmp357:
.Lfunc_end25:
	.size	lv_obj_get_style_margin_left, .Lfunc_end25-lv_obj_get_style_margin_left
	.cfi_endproc
	.cantunwind
	.fnend
                                        @ -- End function
	.section	.text.lv_obj_get_style_pad_bottom,"ax",%progbits
	.p2align	3                               @ -- Begin function lv_obj_get_style_pad_bottom
	.type	lv_obj_get_style_pad_bottom,%function
	.code	16                              @ @lv_obj_get_style_pad_bottom
	.thumb_func
lv_obj_get_style_pad_bottom:
.Lfunc_begin26:
	.loc	13 101 0                        @ lvgl/src/lv_widgets/../lv_core/lv_obj_style_dec.h:101:0
	.fnstart
	.cfi_startproc
@ %bb.0:
	.save	{r7, lr}
	push	{r7, lr}
	.cfi_def_cfa_offset 8
	.cfi_offset lr, -4
	.cfi_offset r7, -8
	.pad	#8
	sub	sp, #8
	.cfi_def_cfa_offset 16
                                        @ kill: def $r2 killed $r1
	str	r0, [sp, #4]
	strb.w	r1, [sp, #3]
.Ltmp358:
	.loc	13 101 1 prologue_end           @ lvgl/src/lv_widgets/../lv_core/lv_obj_style_dec.h:101:1
	ldr	r0, [sp, #4]
	ldrb.w	r1, [sp, #3]
	movs	r2, #17
	bl	_lv_obj_get_style_int
	add	sp, #8
	pop	{r7, pc}
.Ltmp359:
.Lfunc_end26:
	.size	lv_obj_get_style_pad_bottom, .Lfunc_end26-lv_obj_get_style_pad_bottom
	.cfi_endproc
	.cantunwind
	.fnend
                                        @ -- End function
	.section	.text.lv_obj_get_style_margin_right,"ax",%progbits
	.p2align	3                               @ -- Begin function lv_obj_get_style_margin_right
	.type	lv_obj_get_style_margin_right,%function
	.code	16                              @ @lv_obj_get_style_margin_right
	.thumb_func
lv_obj_get_style_margin_right:
.Lfunc_begin27:
	.loc	13 108 0                        @ lvgl/src/lv_widgets/../lv_core/lv_obj_style_dec.h:108:0
	.fnstart
	.cfi_startproc
@ %bb.0:
	.save	{r7, lr}
	push	{r7, lr}
	.cfi_def_cfa_offset 8
	.cfi_offset lr, -4
	.cfi_offset r7, -8
	.pad	#8
	sub	sp, #8
	.cfi_def_cfa_offset 16
                                        @ kill: def $r2 killed $r1
	str	r0, [sp, #4]
	strb.w	r1, [sp, #3]
.Ltmp360:
	.loc	13 108 1 prologue_end           @ lvgl/src/lv_widgets/../lv_core/lv_obj_style_dec.h:108:1
	ldr	r0, [sp, #4]
	ldrb.w	r1, [sp, #3]
	movs	r2, #24
	bl	_lv_obj_get_style_int
	add	sp, #8
	pop	{r7, pc}
.Ltmp361:
.Lfunc_end27:
	.size	lv_obj_get_style_margin_right, .Lfunc_end27-lv_obj_get_style_margin_right
	.cfi_endproc
	.cantunwind
	.fnend
                                        @ -- End function
	.section	.text.lv_area_copy,"ax",%progbits
	.p2align	3                               @ -- Begin function lv_area_copy
	.type	lv_area_copy,%function
	.code	16                              @ @lv_area_copy
	.thumb_func
lv_area_copy:
.Lfunc_begin28:
	.loc	5 98 0                          @ lvgl/src/lv_widgets/../lv_misc/lv_area.h:98:0
	.fnstart
	.cfi_startproc
@ %bb.0:
	.save	{r7, lr}
	push	{r7, lr}
	.cfi_def_cfa_offset 8
	.cfi_offset lr, -4
	.cfi_offset r7, -8
	.pad	#8
	sub	sp, #8
	.cfi_def_cfa_offset 16
	str	r0, [sp, #4]
	str	r1, [sp]
.Ltmp362:
	.loc	5 99 22 prologue_end            @ lvgl/src/lv_widgets/../lv_misc/lv_area.h:99:22
	ldr	r0, [sp, #4]
	.loc	5 99 28 is_stmt 0               @ lvgl/src/lv_widgets/../lv_misc/lv_area.h:99:28
	ldr	r1, [sp]
	movs	r2, #8
	.loc	5 99 5                          @ lvgl/src/lv_widgets/../lv_misc/lv_area.h:99:5
	bl	_lv_memcpy_small
	.loc	5 100 1 is_stmt 1               @ lvgl/src/lv_widgets/../lv_misc/lv_area.h:100:1
	add	sp, #8
	pop	{r7, pc}
.Ltmp363:
.Lfunc_end28:
	.size	lv_area_copy, .Lfunc_end28-lv_area_copy
	.cfi_endproc
	.cantunwind
	.fnend
                                        @ -- End function
	.section	.text._lv_memcpy_small,"ax",%progbits
	.p2align	3                               @ -- Begin function _lv_memcpy_small
	.type	_lv_memcpy_small,%function
	.code	16                              @ @_lv_memcpy_small
	.thumb_func
_lv_memcpy_small:
.Lfunc_begin29:
	.file	14 "E:\\Smart-access-control\\Hardware\\CODE" "lvgl/src/lv_widgets/../lv_core/../lv_font/../lv_misc/lv_mem.h"
	.loc	14 214 0                        @ lvgl/src/lv_widgets/../lv_core/../lv_font/../lv_misc/lv_mem.h:214:0
	.fnstart
	.cfi_startproc
@ %bb.0:
	.pad	#20
	sub	sp, #20
	.cfi_def_cfa_offset 20
	str	r0, [sp, #16]
	str	r1, [sp, #12]
	str	r2, [sp, #8]
.Ltmp364:
	.loc	14 215 31 prologue_end          @ lvgl/src/lv_widgets/../lv_core/../lv_font/../lv_misc/lv_mem.h:215:31
	ldr	r0, [sp, #16]
	.loc	14 215 15 is_stmt 0             @ lvgl/src/lv_widgets/../lv_core/../lv_font/../lv_misc/lv_mem.h:215:15
	str	r0, [sp, #4]
	.loc	14 216 43 is_stmt 1             @ lvgl/src/lv_widgets/../lv_core/../lv_font/../lv_misc/lv_mem.h:216:43
	ldr	r0, [sp, #12]
	.loc	14 216 21 is_stmt 0             @ lvgl/src/lv_widgets/../lv_core/../lv_font/../lv_misc/lv_mem.h:216:21
	str	r0, [sp]
	.loc	14 218 5 is_stmt 1              @ lvgl/src/lv_widgets/../lv_core/../lv_font/../lv_misc/lv_mem.h:218:5
	b	.LBB29_1
.LBB29_1:                               @ =>This Inner Loop Header: Depth=1
	.loc	14 218 11 is_stmt 0             @ lvgl/src/lv_widgets/../lv_core/../lv_font/../lv_misc/lv_mem.h:218:11
	ldr	r0, [sp, #8]
	.loc	14 218 5                        @ lvgl/src/lv_widgets/../lv_core/../lv_font/../lv_misc/lv_mem.h:218:5
	cbz	r0, .LBB29_3
	b	.LBB29_2
.LBB29_2:                               @   in Loop: Header=BB29_1 Depth=1
.Ltmp365:
	.loc	14 219 16 is_stmt 1             @ lvgl/src/lv_widgets/../lv_core/../lv_font/../lv_misc/lv_mem.h:219:16
	ldr	r0, [sp]
	.loc	14 219 15 is_stmt 0             @ lvgl/src/lv_widgets/../lv_core/../lv_font/../lv_misc/lv_mem.h:219:15
	ldrb	r0, [r0]
	.loc	14 219 10                       @ lvgl/src/lv_widgets/../lv_core/../lv_font/../lv_misc/lv_mem.h:219:10
	ldr	r1, [sp, #4]
	.loc	14 219 13                       @ lvgl/src/lv_widgets/../lv_core/../lv_font/../lv_misc/lv_mem.h:219:13
	strb	r0, [r1]
	.loc	14 220 11 is_stmt 1             @ lvgl/src/lv_widgets/../lv_core/../lv_font/../lv_misc/lv_mem.h:220:11
	ldr	r0, [sp, #4]
	adds	r0, #1
	str	r0, [sp, #4]
	.loc	14 221 11                       @ lvgl/src/lv_widgets/../lv_core/../lv_font/../lv_misc/lv_mem.h:221:11
	ldr	r0, [sp]
	adds	r0, #1
	str	r0, [sp]
	.loc	14 222 12                       @ lvgl/src/lv_widgets/../lv_core/../lv_font/../lv_misc/lv_mem.h:222:12
	ldr	r0, [sp, #8]
	subs	r0, #1
	str	r0, [sp, #8]
.Ltmp366:
	.loc	14 218 5                        @ lvgl/src/lv_widgets/../lv_core/../lv_font/../lv_misc/lv_mem.h:218:5
	b	.LBB29_1
.LBB29_3:
	.loc	14 225 12                       @ lvgl/src/lv_widgets/../lv_core/../lv_font/../lv_misc/lv_mem.h:225:12
	ldr	r0, [sp, #16]
	.loc	14 225 5 is_stmt 0              @ lvgl/src/lv_widgets/../lv_core/../lv_font/../lv_misc/lv_mem.h:225:5
	add	sp, #20
	bx	lr
.Ltmp367:
.Lfunc_end29:
	.size	_lv_memcpy_small, .Lfunc_end29-_lv_memcpy_small
	.cfi_endproc
	.cantunwind
	.fnend
                                        @ -- End function
	.type	.L.str,%object                  @ @.str
	.section	.rodata.str1.1,"aMS",%progbits,1
.L.str:
	.asciz	"Out of memory"
	.size	.L.str, 14

	.type	ancestor_signal,%object         @ @ancestor_signal
	.section	.bss.ancestor_signal,"aw",%nobits
	.p2align	2
ancestor_signal:
	.long	0
	.size	ancestor_signal, 4

	.type	ancestor_design,%object         @ @ancestor_design
	.section	.bss.ancestor_design,"aw",%nobits
	.p2align	2
ancestor_design:
	.long	0
	.size	ancestor_design, 4

	.type	.L.str.1,%object                @ @.str.1
	.section	.rodata.str1.1,"aMS",%progbits,1
.L.str.1:
	.asciz	"NULL pointer"
	.size	.L.str.1, 13

	.type	.L.str.2,%object                @ @.str.2
.L.str.2:
	.asciz	"lv_cont"
	.size	.L.str.2, 8

	.type	lv_cont_refr_autofit.recursion_level,%object @ @lv_cont_refr_autofit.recursion_level
	.section	.bss.lv_cont_refr_autofit.recursion_level,"aw",%nobits
	.p2align	2
lv_cont_refr_autofit.recursion_level:
	.long	0                               @ 0x0
	.size	lv_cont_refr_autofit.recursion_level, 4

	.file	15 "D:\\Keil_v5\\ARM\\ARMCLANG\\Bin\\..\\include" "stddef.h"
	.section	".note.GNU-stack","",%progbits
	.eabi_attribute	30, 6	@ Tag_ABI_optimization_goals
	.ARM_attribute	16, 1	@ Tag_AV_eba