	.text
	.syntax unified
	.eabi_attribute	67, "2.09"	@ Tag_conformance
	.cpu	cortex-m7
	.eabi_attribute	6, 13	@ Tag_CPU_arch
	.eabi_attribute	7, 77	@ Tag_CPU_arch_profile
	.eabi_attribute	8, 0	@ Tag_ARM_ISA_use
	.eabi_attribute	9, 2	@ Tag_THUMB_ISA_use
	.fpu	fpv5-d16
	.eabi_attribute	36, 1	@ Tag_FP_HP_extension
	.eabi_attribute	34, 1	@ Tag_CPU_unaligned_access
	.eabi_attribute	17, 1	@ Tag_ABI_PCS_GOT_use
	.eabi_attribute	20, 2	@ Tag_ABI_FP_denormal
	.eabi_attribute	21, 0	@ Tag_ABI_FP_exceptions
	.eabi_attribute	23, 1	@ Tag_ABI_FP_number_model
	.eabi_attribute	24, 1	@ Tag_ABI_align_needed
	.eabi_attribute	25, 1	@ Tag_ABI_align_preserved
	.eabi_attribute	28, 1	@ Tag_ABI_VFP_args
	.eabi_attribute	38, 1	@ Tag_ABI_FP_16bit_format
	.eabi_attribute	18, 2	@ Tag_ABI_PCS_wchar_t
	.eabi_attribute	26, 1	@ Tag_ABI_enum_size
	.eabi_attribute	14, 0	@ Tag_ABI_PCS_R9_use
	.file	"lv_draw_blend.c"
	.file	1 "E:\\Smart-access-control\\Hardware\\CODE" "lvgl/src/lv_draw/lv_draw_mask.h"
	.file	2 "E:\\Smart-access-control\\Hardware\\CODE" "lvgl/src/lv_draw/../lv_core/../lv_misc/lv_color.h"
	.file	3 "E:\\Smart-access-control\\Hardware\\CODE" "lvgl/src/lv_draw/../lv_core/../lv_draw/lv_draw_blend.h"
	.file	4 "D:\\Keil_v5\\ARM\\ARMCLANG\\Bin\\..\\include" "stdint.h"
	.file	5 "E:\\Smart-access-control\\Hardware\\CODE" "./lvgl/src/lv_conf.h"
	.file	6 "E:\\Smart-access-control\\Hardware\\CODE" "lvgl/src/lv_draw/../lv_core/../lv_misc/lv_types.h"
	.section	.text._lv_blend_fill,"ax",%progbits
	.hidden	_lv_blend_fill                  @ -- Begin function _lv_blend_fill
	.globl	_lv_blend_fill
	.p2align	3
	.type	_lv_blend_fill,%function
	.code	16                              @ @_lv_blend_fill
	.thumb_func
_lv_blend_fill:
.Lfunc_begin0:
	.file	7 "E:\\Smart-access-control\\Hardware\\CODE" "lvgl/src/lv_draw/lv_draw_blend.c"
	.loc	7 133 0                         @ lvgl/src/lv_draw/lv_draw_blend.c:133:0
	.fnstart
	.cfi_sections .debug_frame
	.cfi_startproc
@ %bb.0:
	.save	{r4, r5, r7, lr}
	push	{r4, r5, r7, lr}
	.cfi_def_cfa_offset 16
	.cfi_offset lr, -4
	.cfi_offset r7, -8
	.cfi_offset r5, -12
	.cfi_offset r4, -16
	.pad	#72
	sub	sp, #72
	.cfi_def_cfa_offset 88
	mov	r4, r2
	mov	r12, r1
	mov	lr, r0
	ldr	r0, [sp, #96]
	ldr	r1, [sp, #92]
	ldr	r2, [sp, #88]
	str	r4, [sp, #68]
	str.w	lr, [sp, #64]
	str.w	r12, [sp, #60]
	str	r3, [sp, #56]
	strb.w	r2, [sp, #55]
	strb.w	r1, [sp, #54]
	strb.w	r0, [sp, #53]
.Ltmp0:
	.loc	7 135 8 prologue_end            @ lvgl/src/lv_draw/lv_draw_blend.c:135:8
	ldrb.w	r0, [sp, #54]
.Ltmp1:
	.loc	7 135 8 is_stmt 0               @ lvgl/src/lv_draw/lv_draw_blend.c:135:8
	cmp	r0, #1
	bgt	.LBB0_2
	b	.LBB0_1
.LBB0_1:
.Ltmp2:
	.loc	7 135 26                        @ lvgl/src/lv_draw/lv_draw_blend.c:135:26
	b	.LBB0_21
.Ltmp3:
.LBB0_2:
	.loc	7 136 8 is_stmt 1               @ lvgl/src/lv_draw/lv_draw_blend.c:136:8
	ldrb.w	r0, [sp, #55]
.Ltmp4:
	.loc	7 136 8 is_stmt 0               @ lvgl/src/lv_draw/lv_draw_blend.c:136:8
	cbnz	r0, .LBB0_4
	b	.LBB0_3
.LBB0_3:
.Ltmp5:
	.loc	7 136 45                        @ lvgl/src/lv_draw/lv_draw_blend.c:136:45
	b	.LBB0_21
.Ltmp6:
.LBB0_4:
	.loc	7 138 24 is_stmt 1              @ lvgl/src/lv_draw/lv_draw_blend.c:138:24
	bl	_lv_refr_get_disp_refreshing
	.loc	7 138 17 is_stmt 0              @ lvgl/src/lv_draw/lv_draw_blend.c:138:17
	str	r0, [sp, #48]
	.loc	7 139 43 is_stmt 1              @ lvgl/src/lv_draw/lv_draw_blend.c:139:43
	ldr	r0, [sp, #48]
	.loc	7 139 27 is_stmt 0              @ lvgl/src/lv_draw/lv_draw_blend.c:139:27
	bl	lv_disp_get_buf
	.loc	7 139 21                        @ lvgl/src/lv_draw/lv_draw_blend.c:139:21
	str	r0, [sp, #44]
	.loc	7 140 36 is_stmt 1              @ lvgl/src/lv_draw/lv_draw_blend.c:140:36
	ldr	r0, [sp, #44]
	.loc	7 140 41 is_stmt 0              @ lvgl/src/lv_draw/lv_draw_blend.c:140:41
	adds	r0, #16
	.loc	7 140 23                        @ lvgl/src/lv_draw/lv_draw_blend.c:140:23
	str	r0, [sp, #40]
	.loc	7 141 29 is_stmt 1              @ lvgl/src/lv_draw/lv_draw_blend.c:141:29
	ldr	r0, [sp, #44]
	.loc	7 141 34 is_stmt 0              @ lvgl/src/lv_draw/lv_draw_blend.c:141:34
	ldr	r0, [r0, #8]
	.loc	7 141 18                        @ lvgl/src/lv_draw/lv_draw_blend.c:141:18
	str	r0, [sp, #36]
.Ltmp7:
	.loc	7 143 8 is_stmt 1               @ lvgl/src/lv_draw/lv_draw_blend.c:143:8
	ldr	r0, [sp, #48]
	.loc	7 143 21 is_stmt 0              @ lvgl/src/lv_draw/lv_draw_blend.c:143:21
	ldr	r0, [r0, #36]
.Ltmp8:
	.loc	7 143 8                         @ lvgl/src/lv_draw/lv_draw_blend.c:143:8
	cbz	r0, .LBB0_6
	b	.LBB0_5
.LBB0_5:
.Ltmp9:
	.loc	7 143 34                        @ lvgl/src/lv_draw/lv_draw_blend.c:143:34
	ldr	r0, [sp, #48]
	.loc	7 143 47                        @ lvgl/src/lv_draw/lv_draw_blend.c:143:47
	ldr	r1, [r0, #36]
	.loc	7 143 34                        @ lvgl/src/lv_draw/lv_draw_blend.c:143:34
	blx	r1
	b	.LBB0_6
.Ltmp10:
.LBB0_6:
	.loc	7 149 48 is_stmt 1              @ lvgl/src/lv_draw/lv_draw_blend.c:149:48
	ldr	r1, [sp, #64]
	.loc	7 149 59 is_stmt 0              @ lvgl/src/lv_draw/lv_draw_blend.c:149:59
	ldr	r2, [sp, #60]
	add	r0, sp, #28
	.loc	7 149 17                        @ lvgl/src/lv_draw/lv_draw_blend.c:149:17
	bl	_lv_area_intersect
	.loc	7 149 15                        @ lvgl/src/lv_draw/lv_draw_blend.c:149:15
	strb.w	r0, [sp, #27]
.Ltmp11:
	.loc	7 150 9 is_stmt 1               @ lvgl/src/lv_draw/lv_draw_blend.c:150:9
	ldrb.w	r0, [sp, #27]
.Ltmp12:
	.loc	7 150 8 is_stmt 0               @ lvgl/src/lv_draw/lv_draw_blend.c:150:8
	lsls	r0, r0, #31
	cbnz	r0, .LBB0_8
	b	.LBB0_7
.LBB0_7:
.Ltmp13:
	.loc	7 150 20                        @ lvgl/src/lv_draw/lv_draw_blend.c:150:20
	b	.LBB0_21
.Ltmp14:
.LBB0_8:
	.loc	7 154 21 is_stmt 1              @ lvgl/src/lv_draw/lv_draw_blend.c:154:21
	ldr	r0, [sp, #40]
	ldrh	r1, [r0]
	.loc	7 154 18 is_stmt 0              @ lvgl/src/lv_draw/lv_draw_blend.c:154:18
	ldrh.w	r0, [sp, #28]
	subs	r0, r0, r1
	strh.w	r0, [sp, #28]
	.loc	7 155 21 is_stmt 1              @ lvgl/src/lv_draw/lv_draw_blend.c:155:21
	ldr	r0, [sp, #40]
	ldrh	r1, [r0, #2]
	.loc	7 155 18 is_stmt 0              @ lvgl/src/lv_draw/lv_draw_blend.c:155:18
	ldrh.w	r0, [sp, #30]
	subs	r0, r0, r1
	strh.w	r0, [sp, #30]
	.loc	7 156 21 is_stmt 1              @ lvgl/src/lv_draw/lv_draw_blend.c:156:21
	ldr	r0, [sp, #40]
	ldrh	r1, [r0]
	.loc	7 156 18 is_stmt 0              @ lvgl/src/lv_draw/lv_draw_blend.c:156:18
	ldrh.w	r0, [sp, #32]
	subs	r0, r0, r1
	strh.w	r0, [sp, #32]
	.loc	7 157 21 is_stmt 1              @ lvgl/src/lv_draw/lv_draw_blend.c:157:21
	ldr	r0, [sp, #40]
	ldrh	r1, [r0, #2]
	.loc	7 157 18 is_stmt 0              @ lvgl/src/lv_draw/lv_draw_blend.c:157:18
	ldrh.w	r0, [sp, #34]
	subs	r0, r0, r1
	strh.w	r0, [sp, #34]
.Ltmp15:
	.loc	7 161 8 is_stmt 1               @ lvgl/src/lv_draw/lv_draw_blend.c:161:8
	ldr	r0, [sp, #56]
	.loc	7 161 13 is_stmt 0              @ lvgl/src/lv_draw/lv_draw_blend.c:161:13
	cbz	r0, .LBB0_15
	b	.LBB0_9
.LBB0_9:
	.loc	7 161 16                        @ lvgl/src/lv_draw/lv_draw_blend.c:161:16
	ldr	r0, [sp, #48]
.Ltmp16:
	.loc	7 161 8                         @ lvgl/src/lv_draw/lv_draw_blend.c:161:8
	ldrb	r0, [r0, #8]
	lsls	r0, r0, #31
	cbnz	r0, .LBB0_15
	b	.LBB0_10
.LBB0_10:
	.loc	7 0 8                           @ lvgl/src/lv_draw/lv_draw_blend.c:0:8
	add	r0, sp, #28
.Ltmp17:
	.loc	7 166 26 is_stmt 1              @ lvgl/src/lv_draw/lv_draw_blend.c:166:26
	bl	lv_area_get_width
	.loc	7 166 17 is_stmt 0              @ lvgl/src/lv_draw/lv_draw_blend.c:166:17
	str	r0, [sp, #20]
	movs	r0, #0
.Ltmp18:
	.loc	7 168 15 is_stmt 1              @ lvgl/src/lv_draw/lv_draw_blend.c:168:15
	str	r0, [sp, #16]
	.loc	7 168 13 is_stmt 0              @ lvgl/src/lv_draw/lv_draw_blend.c:168:13
	b	.LBB0_11
.LBB0_11:                               @ =>This Inner Loop Header: Depth=1
.Ltmp19:
	.loc	7 168 20                        @ lvgl/src/lv_draw/lv_draw_blend.c:168:20
	ldr	r0, [sp, #16]
	.loc	7 168 24                        @ lvgl/src/lv_draw/lv_draw_blend.c:168:24
	ldr	r1, [sp, #20]
.Ltmp20:
	.loc	7 168 9                         @ lvgl/src/lv_draw/lv_draw_blend.c:168:9
	cmp	r0, r1
	bge	.LBB0_14
	b	.LBB0_12
.LBB0_12:                               @   in Loop: Header=BB0_11 Depth=1
.Ltmp21:
	.loc	7 168 48                        @ lvgl/src/lv_draw/lv_draw_blend.c:168:48
	ldr	r1, [sp, #56]
	.loc	7 168 53                        @ lvgl/src/lv_draw/lv_draw_blend.c:168:53
	ldr	r2, [sp, #16]
	.loc	7 168 48                        @ lvgl/src/lv_draw/lv_draw_blend.c:168:48
	ldrb	r3, [r1, r2]
	movs	r0, #0
	cmp	r3, #128
	it	gt
	movgt	r0, #255
	.loc	7 168 46                        @ lvgl/src/lv_draw/lv_draw_blend.c:168:46
	strb	r0, [r1, r2]
	.loc	7 168 38                        @ lvgl/src/lv_draw/lv_draw_blend.c:168:38
	b	.LBB0_13
.LBB0_13:                               @   in Loop: Header=BB0_11 Depth=1
	.loc	7 168 33                        @ lvgl/src/lv_draw/lv_draw_blend.c:168:33
	ldr	r0, [sp, #16]
	adds	r0, #1
	str	r0, [sp, #16]
	.loc	7 168 9                         @ lvgl/src/lv_draw/lv_draw_blend.c:168:9
	b	.LBB0_11
.Ltmp22:
.LBB0_14:
	.loc	7 169 5 is_stmt 1               @ lvgl/src/lv_draw/lv_draw_blend.c:169:5
	b	.LBB0_15
.Ltmp23:
.LBB0_15:
	.loc	7 171 8                         @ lvgl/src/lv_draw/lv_draw_blend.c:171:8
	ldr	r0, [sp, #48]
	.loc	7 171 21 is_stmt 0              @ lvgl/src/lv_draw/lv_draw_blend.c:171:21
	ldr	r0, [r0, #20]
.Ltmp24:
	.loc	7 171 8                         @ lvgl/src/lv_draw/lv_draw_blend.c:171:8
	cbz	r0, .LBB0_17
	b	.LBB0_16
.LBB0_16:
.Ltmp25:
	.loc	7 172 21 is_stmt 1              @ lvgl/src/lv_draw/lv_draw_blend.c:172:21
	ldr	r0, [sp, #40]
	.loc	7 172 32 is_stmt 0              @ lvgl/src/lv_draw/lv_draw_blend.c:172:32
	ldr	r1, [sp, #36]
	.loc	7 172 61                        @ lvgl/src/lv_draw/lv_draw_blend.c:172:61
	ldrb.w	r2, [sp, #54]
	.loc	7 172 66                        @ lvgl/src/lv_draw/lv_draw_blend.c:172:66
	ldr.w	lr, [sp, #56]
	.loc	7 172 72                        @ lvgl/src/lv_draw/lv_draw_blend.c:172:72
	ldrb.w	r4, [sp, #55]
	.loc	7 172 9                         @ lvgl/src/lv_draw/lv_draw_blend.c:172:9
	ldr	r3, [sp, #68]
	mov	r12, sp
	str.w	r4, [r12, #8]
	str.w	lr, [r12, #4]
	str.w	r2, [r12]
	add	r2, sp, #28
	bl	fill_set_px
	.loc	7 173 5 is_stmt 1               @ lvgl/src/lv_draw/lv_draw_blend.c:173:5
	b	.LBB0_21
.Ltmp26:
.LBB0_17:
	.loc	7 174 13                        @ lvgl/src/lv_draw/lv_draw_blend.c:174:13
	ldrb.w	r0, [sp, #53]
.Ltmp27:
	.loc	7 174 13 is_stmt 0              @ lvgl/src/lv_draw/lv_draw_blend.c:174:13
	cbnz	r0, .LBB0_19
	b	.LBB0_18
.LBB0_18:
.Ltmp28:
	.loc	7 175 21 is_stmt 1              @ lvgl/src/lv_draw/lv_draw_blend.c:175:21
	ldr	r0, [sp, #40]
	.loc	7 175 32 is_stmt 0              @ lvgl/src/lv_draw/lv_draw_blend.c:175:32
	ldr	r1, [sp, #36]
	.loc	7 175 61                        @ lvgl/src/lv_draw/lv_draw_blend.c:175:61
	ldrb.w	r2, [sp, #54]
	.loc	7 175 66                        @ lvgl/src/lv_draw/lv_draw_blend.c:175:66
	ldr.w	lr, [sp, #56]
	.loc	7 175 72                        @ lvgl/src/lv_draw/lv_draw_blend.c:175:72
	ldrb.w	r4, [sp, #55]
	.loc	7 175 9                         @ lvgl/src/lv_draw/lv_draw_blend.c:175:9
	ldr	r3, [sp, #68]
	mov	r12, sp
	str.w	r4, [r12, #8]
	str.w	lr, [r12, #4]
	str.w	r2, [r12]
	add	r2, sp, #28
	bl	fill_normal
	.loc	7 176 5 is_stmt 1               @ lvgl/src/lv_draw/lv_draw_blend.c:176:5
	b	.LBB0_20
.Ltmp29:
.LBB0_19:
	.loc	7 179 22                        @ lvgl/src/lv_draw/lv_draw_blend.c:179:22
	ldr	r0, [sp, #40]
	.loc	7 179 33 is_stmt 0              @ lvgl/src/lv_draw/lv_draw_blend.c:179:33
	ldr	r1, [sp, #36]
	.loc	7 179 62                        @ lvgl/src/lv_draw/lv_draw_blend.c:179:62
	ldrb.w	r2, [sp, #54]
	.loc	7 179 67                        @ lvgl/src/lv_draw/lv_draw_blend.c:179:67
	ldr.w	lr, [sp, #56]
	.loc	7 179 73                        @ lvgl/src/lv_draw/lv_draw_blend.c:179:73
	ldrb.w	r4, [sp, #55]
	.loc	7 179 83                        @ lvgl/src/lv_draw/lv_draw_blend.c:179:83
	ldrb.w	r5, [sp, #53]
	.loc	7 179 9                         @ lvgl/src/lv_draw/lv_draw_blend.c:179:9
	ldr	r3, [sp, #68]
	mov	r12, sp
	str.w	r5, [r12, #12]
	str.w	r4, [r12, #8]
	str.w	lr, [r12, #4]
	str.w	r2, [r12]
	add	r2, sp, #28
	bl	fill_blended
	b	.LBB0_20
.Ltmp30:
.LBB0_20:
	.loc	7 0 9                           @ lvgl/src/lv_draw/lv_draw_blend.c:0:9
	b	.LBB0_21
.LBB0_21:
	.loc	7 182 1 is_stmt 1               @ lvgl/src/lv_draw/lv_draw_blend.c:182:1
	add	sp, #72
	pop	{r4, r5, r7, pc}
.Ltmp31:
.Lfunc_end0:
	.size	_lv_blend_fill, .Lfunc_end0-_lv_blend_fill
	.cfi_endproc
	.cantunwind
	.fnend
                                        @ -- End function
	.section	.text.lv_area_get_width,"ax",%progbits
	.p2align	3                               @ -- Begin function lv_area_get_width
	.type	lv_area_get_width,%function
	.code	16                              @ @lv_area_get_width
	.thumb_func
lv_area_get_width:
.Lfunc_begin1:
	.file	8 "E:\\Smart-access-control\\Hardware\\CODE" "lvgl/src/lv_draw/../lv_core/../lv_misc/lv_area.h"
	.loc	8 108 0                         @ lvgl/src/lv_draw/../lv_core/../lv_misc/lv_area.h:108:0
	.fnstart
	.cfi_startproc
@ %bb.0:
	.pad	#4
	sub	sp, #4
	.cfi_def_cfa_offset 4
	str	r0, [sp]
.Ltmp32:
	.loc	8 109 25 prologue_end           @ lvgl/src/lv_draw/../lv_core/../lv_misc/lv_area.h:109:25
	ldr	r1, [sp]
	ldrh	r0, [r1, #4]
	.loc	8 109 38 is_stmt 0              @ lvgl/src/lv_draw/../lv_core/../lv_misc/lv_area.h:109:38
	ldrh	r1, [r1]
	.loc	8 109 36                        @ lvgl/src/lv_draw/../lv_core/../lv_misc/lv_area.h:109:36
	subs	r0, r0, r1
	.loc	8 109 49                        @ lvgl/src/lv_draw/../lv_core/../lv_misc/lv_area.h:109:49
	adds	r0, #1
	.loc	8 109 5                         @ lvgl/src/lv_draw/../lv_core/../lv_misc/lv_area.h:109:5
	sxth	r0, r0
	add	sp, #4
	bx	lr
.Ltmp33:
.Lfunc_end1:
	.size	lv_area_get_width, .Lfunc_end1-lv_area_get_width
	.cfi_endproc
	.cantunwind
	.fnend
                                        @ -- End function
	.section	.text.fill_set_px,"ax",%progbits
	.p2align	3                               @ -- Begin function fill_set_px
	.type	fill_set_px,%function
	.code	16                              @ @fill_set_px
	.thumb_func
fill_set_px:
.Lfunc_begin2:
	.loc	7 258 0 is_stmt 1               @ lvgl/src/lv_draw/lv_draw_blend.c:258:0
	.fnstart
	.cfi_startproc
@ %bb.0:
	.save	{r4, r5, r6, lr}
	push	{r4, r5, r6, lr}
	.cfi_def_cfa_offset 16
	.cfi_offset lr, -4
	.cfi_offset r6, -8
	.cfi_offset r5, -12
	.cfi_offset r4, -16
	.pad	#56
	sub	sp, #56
	.cfi_def_cfa_offset 72
	mov	lr, r3
	mov	r3, r1
	mov	r12, r0
	ldr	r0, [sp, #80]
	ldr	r1, [sp, #76]
	ldr	r1, [sp, #72]
	str.w	lr, [sp, #52]
	str.w	r12, [sp, #48]
	str	r3, [sp, #44]
	str	r2, [sp, #40]
	strb.w	r1, [sp, #39]
	strb.w	r0, [sp, #38]
.Ltmp34:
	.loc	7 260 24 prologue_end           @ lvgl/src/lv_draw/lv_draw_blend.c:260:24
	bl	_lv_refr_get_disp_refreshing
	.loc	7 260 17 is_stmt 0              @ lvgl/src/lv_draw/lv_draw_blend.c:260:17
	str	r0, [sp, #32]
	.loc	7 263 40 is_stmt 1              @ lvgl/src/lv_draw/lv_draw_blend.c:263:40
	ldr	r0, [sp, #48]
	.loc	7 263 22 is_stmt 0              @ lvgl/src/lv_draw/lv_draw_blend.c:263:22
	bl	lv_area_get_width
	.loc	7 263 13                        @ lvgl/src/lv_draw/lv_draw_blend.c:263:13
	str	r0, [sp, #28]
.Ltmp35:
	.loc	7 268 8 is_stmt 1               @ lvgl/src/lv_draw/lv_draw_blend.c:268:8
	ldrb.w	r0, [sp, #38]
.Ltmp36:
	.loc	7 268 8 is_stmt 0               @ lvgl/src/lv_draw/lv_draw_blend.c:268:8
	cmp	r0, #1
	bne	.LBB2_10
	b	.LBB2_1
.LBB2_1:
.Ltmp37:
	.loc	7 269 17 is_stmt 1              @ lvgl/src/lv_draw/lv_draw_blend.c:269:17
	ldr	r0, [sp, #40]
	.loc	7 269 28 is_stmt 0              @ lvgl/src/lv_draw/lv_draw_blend.c:269:28
	ldrsh.w	r0, [r0, #2]
	.loc	7 269 15                        @ lvgl/src/lv_draw/lv_draw_blend.c:269:15
	str	r0, [sp, #20]
	.loc	7 269 13                        @ lvgl/src/lv_draw/lv_draw_blend.c:269:13
	b	.LBB2_2
.LBB2_2:                                @ =>This Loop Header: Depth=1
                                        @     Child Loop BB2_4 Depth 2
.Ltmp38:
	.loc	7 269 32                        @ lvgl/src/lv_draw/lv_draw_blend.c:269:32
	ldr	r0, [sp, #20]
	.loc	7 269 37                        @ lvgl/src/lv_draw/lv_draw_blend.c:269:37
	ldr	r1, [sp, #40]
	.loc	7 269 48                        @ lvgl/src/lv_draw/lv_draw_blend.c:269:48
	ldrsh.w	r1, [r1, #6]
.Ltmp39:
	.loc	7 269 9                         @ lvgl/src/lv_draw/lv_draw_blend.c:269:9
	cmp	r0, r1
	bgt	.LBB2_9
	b	.LBB2_3
.LBB2_3:                                @   in Loop: Header=BB2_2 Depth=1
.Ltmp40:
	.loc	7 270 21 is_stmt 1              @ lvgl/src/lv_draw/lv_draw_blend.c:270:21
	ldr	r0, [sp, #40]
	.loc	7 270 32 is_stmt 0              @ lvgl/src/lv_draw/lv_draw_blend.c:270:32
	ldrsh.w	r0, [r0]
	.loc	7 270 19                        @ lvgl/src/lv_draw/lv_draw_blend.c:270:19
	str	r0, [sp, #24]
	.loc	7 270 17                        @ lvgl/src/lv_draw/lv_draw_blend.c:270:17
	b	.LBB2_4
.LBB2_4:                                @   Parent Loop BB2_2 Depth=1
                                        @ =>  This Inner Loop Header: Depth=2
.Ltmp41:
	.loc	7 270 36                        @ lvgl/src/lv_draw/lv_draw_blend.c:270:36
	ldr	r0, [sp, #24]
	.loc	7 270 41                        @ lvgl/src/lv_draw/lv_draw_blend.c:270:41
	ldr	r1, [sp, #40]
	.loc	7 270 52                        @ lvgl/src/lv_draw/lv_draw_blend.c:270:52
	ldrsh.w	r1, [r1, #4]
.Ltmp42:
	.loc	7 270 13                        @ lvgl/src/lv_draw/lv_draw_blend.c:270:13
	cmp	r0, r1
	bgt	.LBB2_7
	b	.LBB2_5
.LBB2_5:                                @   in Loop: Header=BB2_4 Depth=2
.Ltmp43:
	.loc	7 271 17 is_stmt 1              @ lvgl/src/lv_draw/lv_draw_blend.c:271:17
	ldr	r0, [sp, #32]
	.loc	7 271 30 is_stmt 0              @ lvgl/src/lv_draw/lv_draw_blend.c:271:30
	ldr.w	r12, [r0, #20]
	.loc	7 271 63                        @ lvgl/src/lv_draw/lv_draw_blend.c:271:63
	ldr	r1, [sp, #44]
	.loc	7 271 73                        @ lvgl/src/lv_draw/lv_draw_blend.c:271:73
	ldrsh.w	r2, [sp, #28]
	.loc	7 271 81                        @ lvgl/src/lv_draw/lv_draw_blend.c:271:81
	ldrsh.w	r3, [sp, #24]
	.loc	7 271 84                        @ lvgl/src/lv_draw/lv_draw_blend.c:271:84
	ldrsh.w	lr, [sp, #20]
	.loc	7 271 94                        @ lvgl/src/lv_draw/lv_draw_blend.c:271:94
	ldrb.w	r6, [sp, #39]
	.loc	7 271 17                        @ lvgl/src/lv_draw/lv_draw_blend.c:271:17
	ldr	r5, [sp, #52]
	mov	r4, sp
	str	r6, [r4, #8]
	str	r5, [r4, #4]
	str.w	lr, [r4]
	blx	r12
	.loc	7 272 13 is_stmt 1              @ lvgl/src/lv_draw/lv_draw_blend.c:272:13
	b	.LBB2_6
.Ltmp44:
.LBB2_6:                                @   in Loop: Header=BB2_4 Depth=2
	.loc	7 270 57                        @ lvgl/src/lv_draw/lv_draw_blend.c:270:57
	ldr	r0, [sp, #24]
	adds	r0, #1
	str	r0, [sp, #24]
	.loc	7 270 13 is_stmt 0              @ lvgl/src/lv_draw/lv_draw_blend.c:270:13
	b	.LBB2_4
.Ltmp45:
.LBB2_7:                                @   in Loop: Header=BB2_2 Depth=1
	.loc	7 273 9 is_stmt 1               @ lvgl/src/lv_draw/lv_draw_blend.c:273:9
	b	.LBB2_8
.Ltmp46:
.LBB2_8:                                @   in Loop: Header=BB2_2 Depth=1
	.loc	7 269 53                        @ lvgl/src/lv_draw/lv_draw_blend.c:269:53
	ldr	r0, [sp, #20]
	adds	r0, #1
	str	r0, [sp, #20]
	.loc	7 269 9 is_stmt 0               @ lvgl/src/lv_draw/lv_draw_blend.c:269:9
	b	.LBB2_2
.Ltmp47:
.LBB2_9:
	.loc	7 274 5 is_stmt 1               @ lvgl/src/lv_draw/lv_draw_blend.c:274:5
	b	.LBB2_21
.Ltmp48:
.LBB2_10:
	.loc	7 279 37                        @ lvgl/src/lv_draw/lv_draw_blend.c:279:37
	ldr	r0, [sp, #76]
	.loc	7 279 44 is_stmt 0              @ lvgl/src/lv_draw/lv_draw_blend.c:279:44
	ldr	r1, [sp, #40]
	.loc	7 279 55                        @ lvgl/src/lv_draw/lv_draw_blend.c:279:55
	ldrsh.w	r1, [r1]
	.loc	7 279 42                        @ lvgl/src/lv_draw/lv_draw_blend.c:279:42
	subs	r0, r0, r1
	.loc	7 279 26                        @ lvgl/src/lv_draw/lv_draw_blend.c:279:26
	str	r0, [sp, #16]
	.loc	7 282 49 is_stmt 1              @ lvgl/src/lv_draw/lv_draw_blend.c:282:49
	ldr	r0, [sp, #40]
	.loc	7 282 31 is_stmt 0              @ lvgl/src/lv_draw/lv_draw_blend.c:282:31
	bl	lv_area_get_width
	.loc	7 282 17                        @ lvgl/src/lv_draw/lv_draw_blend.c:282:17
	str	r0, [sp, #12]
.Ltmp49:
	.loc	7 284 17 is_stmt 1              @ lvgl/src/lv_draw/lv_draw_blend.c:284:17
	ldr	r0, [sp, #40]
	.loc	7 284 28 is_stmt 0              @ lvgl/src/lv_draw/lv_draw_blend.c:284:28
	ldrsh.w	r0, [r0, #2]
	.loc	7 284 15                        @ lvgl/src/lv_draw/lv_draw_blend.c:284:15
	str	r0, [sp, #20]
	.loc	7 284 13                        @ lvgl/src/lv_draw/lv_draw_blend.c:284:13
	b	.LBB2_11
.LBB2_11:                               @ =>This Loop Header: Depth=1
                                        @     Child Loop BB2_13 Depth 2
.Ltmp50:
	.loc	7 284 32                        @ lvgl/src/lv_draw/lv_draw_blend.c:284:32
	ldr	r0, [sp, #20]
	.loc	7 284 37                        @ lvgl/src/lv_draw/lv_draw_blend.c:284:37
	ldr	r1, [sp, #40]
	.loc	7 284 48                        @ lvgl/src/lv_draw/lv_draw_blend.c:284:48
	ldrsh.w	r1, [r1, #6]
.Ltmp51:
	.loc	7 284 9                         @ lvgl/src/lv_draw/lv_draw_blend.c:284:9
	cmp	r0, r1
	bgt	.LBB2_20
	b	.LBB2_12
.LBB2_12:                               @   in Loop: Header=BB2_11 Depth=1
.Ltmp52:
	.loc	7 285 21 is_stmt 1              @ lvgl/src/lv_draw/lv_draw_blend.c:285:21
	ldr	r0, [sp, #40]
	.loc	7 285 32 is_stmt 0              @ lvgl/src/lv_draw/lv_draw_blend.c:285:32
	ldrsh.w	r0, [r0]
	.loc	7 285 19                        @ lvgl/src/lv_draw/lv_draw_blend.c:285:19
	str	r0, [sp, #24]
	.loc	7 285 17                        @ lvgl/src/lv_draw/lv_draw_blend.c:285:17
	b	.LBB2_13
.LBB2_13:                               @   Parent Loop BB2_11 Depth=1
                                        @ =>  This Inner Loop Header: Depth=2
.Ltmp53:
	.loc	7 285 36                        @ lvgl/src/lv_draw/lv_draw_blend.c:285:36
	ldr	r0, [sp, #24]
	.loc	7 285 41                        @ lvgl/src/lv_draw/lv_draw_blend.c:285:41
	ldr	r1, [sp, #40]
	.loc	7 285 52                        @ lvgl/src/lv_draw/lv_draw_blend.c:285:52
	ldrsh.w	r1, [r1, #4]
.Ltmp54:
	.loc	7 285 13                        @ lvgl/src/lv_draw/lv_draw_blend.c:285:13
	cmp	r0, r1
	bgt	.LBB2_18
	b	.LBB2_14
.LBB2_14:                               @   in Loop: Header=BB2_13 Depth=2
.Ltmp55:
	.loc	7 286 20 is_stmt 1              @ lvgl/src/lv_draw/lv_draw_blend.c:286:20
	ldr	r0, [sp, #16]
	.loc	7 286 29 is_stmt 0              @ lvgl/src/lv_draw/lv_draw_blend.c:286:29
	ldr	r1, [sp, #24]
	.loc	7 286 20                        @ lvgl/src/lv_draw/lv_draw_blend.c:286:20
	ldrb	r0, [r0, r1]
.Ltmp56:
	.loc	7 286 20                        @ lvgl/src/lv_draw/lv_draw_blend.c:286:20
	cbz	r0, .LBB2_16
	b	.LBB2_15
.LBB2_15:                               @   in Loop: Header=BB2_13 Depth=2
.Ltmp57:
	.loc	7 287 21 is_stmt 1              @ lvgl/src/lv_draw/lv_draw_blend.c:287:21
	ldr	r0, [sp, #32]
	.loc	7 287 34 is_stmt 0              @ lvgl/src/lv_draw/lv_draw_blend.c:287:34
	ldr.w	r12, [r0, #20]
	.loc	7 287 67                        @ lvgl/src/lv_draw/lv_draw_blend.c:287:67
	ldr	r1, [sp, #44]
	.loc	7 287 77                        @ lvgl/src/lv_draw/lv_draw_blend.c:287:77
	ldrsh.w	r2, [sp, #28]
	.loc	7 287 85                        @ lvgl/src/lv_draw/lv_draw_blend.c:287:85
	ldr	r3, [sp, #24]
	.loc	7 287 88                        @ lvgl/src/lv_draw/lv_draw_blend.c:287:88
	ldrsh.w	lr, [sp, #20]
	.loc	7 288 65 is_stmt 1              @ lvgl/src/lv_draw/lv_draw_blend.c:288:65
	ldrb.w	r4, [sp, #39]
	.loc	7 288 71 is_stmt 0              @ lvgl/src/lv_draw/lv_draw_blend.c:288:71
	ldr	r5, [sp, #16]
	ldrb	r5, [r5, r3]
	.loc	7 288 69                        @ lvgl/src/lv_draw/lv_draw_blend.c:288:69
	muls	r4, r5, r4
	.loc	7 288 84                        @ lvgl/src/lv_draw/lv_draw_blend.c:288:84
	lsrs	r6, r4, #8
	.loc	7 287 21 is_stmt 1              @ lvgl/src/lv_draw/lv_draw_blend.c:287:21
	ldr	r5, [sp, #52]
	mov	r4, sp
	str	r6, [r4, #8]
	str	r5, [r4, #4]
	str.w	lr, [r4]
	sxth	r3, r3
	blx	r12
	.loc	7 289 17                        @ lvgl/src/lv_draw/lv_draw_blend.c:289:17
	b	.LBB2_16
.Ltmp58:
.LBB2_16:                               @   in Loop: Header=BB2_13 Depth=2
	.loc	7 290 13                        @ lvgl/src/lv_draw/lv_draw_blend.c:290:13
	b	.LBB2_17
.Ltmp59:
.LBB2_17:                               @   in Loop: Header=BB2_13 Depth=2
	.loc	7 285 57                        @ lvgl/src/lv_draw/lv_draw_blend.c:285:57
	ldr	r0, [sp, #24]
	adds	r0, #1
	str	r0, [sp, #24]
	.loc	7 285 13 is_stmt 0              @ lvgl/src/lv_draw/lv_draw_blend.c:285:13
	b	.LBB2_13
.Ltmp60:
.LBB2_18:                               @   in Loop: Header=BB2_11 Depth=1
	.loc	7 291 25 is_stmt 1              @ lvgl/src/lv_draw/lv_draw_blend.c:291:25
	ldr	r1, [sp, #12]
	.loc	7 291 22 is_stmt 0              @ lvgl/src/lv_draw/lv_draw_blend.c:291:22
	ldr	r0, [sp, #16]
	add	r0, r1
	str	r0, [sp, #16]
	.loc	7 292 9 is_stmt 1               @ lvgl/src/lv_draw/lv_draw_blend.c:292:9
	b	.LBB2_19
.Ltmp61:
.LBB2_19:                               @   in Loop: Header=BB2_11 Depth=1
	.loc	7 284 53                        @ lvgl/src/lv_draw/lv_draw_blend.c:284:53
	ldr	r0, [sp, #20]
	adds	r0, #1
	str	r0, [sp, #20]
	.loc	7 284 9 is_stmt 0               @ lvgl/src/lv_draw/lv_draw_blend.c:284:9
	b	.LBB2_11
.Ltmp62:
.LBB2_20:
	.loc	7 0 9                           @ lvgl/src/lv_draw/lv_draw_blend.c:0:9
	b	.LBB2_21
.LBB2_21:
	.loc	7 294 1 is_stmt 1               @ lvgl/src/lv_draw/lv_draw_blend.c:294:1
	add	sp, #56
	pop	{r4, r5, r6, pc}
.Ltmp63:
.Lfunc_end2:
	.size	fill_set_px, .Lfunc_end2-fill_set_px
	.cfi_endproc
	.cantunwind
	.fnend
                                        @ -- End function
	.section	.text.fill_normal,"ax",%progbits
	.p2align	3                               @ -- Begin function fill_normal
	.type	fill_normal,%function
	.code	16                              @ @fill_normal
	.thumb_func
fill_normal:
.Lfunc_begin3:
	.loc	7 313 0                         @ lvgl/src/lv_draw/lv_draw_blend.c:313:0
	.fnstart
	.cfi_startproc
@ %bb.0:
	.save	{r7, lr}
	push	{r7, lr}
	.cfi_def_cfa_offset 8
	.cfi_offset lr, -4
	.cfi_offset r7, -8
	.pad	#168
	sub	sp, #168
	.cfi_def_cfa_offset 176
	mov	lr, r3
	mov	r3, r1
	mov	r12, r0
	ldr	r0, [sp, #184]
	ldr	r1, [sp, #180]
	ldr	r1, [sp, #176]
	str.w	lr, [sp, #164]
	str.w	r12, [sp, #160]
	str	r3, [sp, #156]
	str	r2, [sp, #152]
	strb.w	r1, [sp, #151]
	strb.w	r0, [sp, #150]
.Ltmp64:
	.loc	7 320 40 prologue_end           @ lvgl/src/lv_draw/lv_draw_blend.c:320:40
	ldr	r0, [sp, #160]
	.loc	7 320 22 is_stmt 0              @ lvgl/src/lv_draw/lv_draw_blend.c:320:22
	bl	lv_area_get_width
	.loc	7 320 13                        @ lvgl/src/lv_draw/lv_draw_blend.c:320:13
	str	r0, [sp, #144]
	.loc	7 322 45 is_stmt 1              @ lvgl/src/lv_draw/lv_draw_blend.c:322:45
	ldr	r0, [sp, #152]
	.loc	7 322 27 is_stmt 0              @ lvgl/src/lv_draw/lv_draw_blend.c:322:27
	bl	lv_area_get_width
	.loc	7 322 13                        @ lvgl/src/lv_draw/lv_draw_blend.c:322:13
	str	r0, [sp, #140]
	.loc	7 323 46 is_stmt 1              @ lvgl/src/lv_draw/lv_draw_blend.c:323:46
	ldr	r0, [sp, #152]
	.loc	7 323 27 is_stmt 0              @ lvgl/src/lv_draw/lv_draw_blend.c:323:27
	bl	lv_area_get_height
	.loc	7 323 13                        @ lvgl/src/lv_draw/lv_draw_blend.c:323:13
	str	r0, [sp, #136]
	.loc	7 326 35 is_stmt 1              @ lvgl/src/lv_draw/lv_draw_blend.c:326:35
	ldr	r0, [sp, #156]
	.loc	7 326 46 is_stmt 0              @ lvgl/src/lv_draw/lv_draw_blend.c:326:46
	ldr	r2, [sp, #144]
	.loc	7 326 55                        @ lvgl/src/lv_draw/lv_draw_blend.c:326:55
	ldr	r3, [sp, #152]
	.loc	7 326 82                        @ lvgl/src/lv_draw/lv_draw_blend.c:326:82
	ldrsh.w	r1, [r3]
	.loc	7 326 66                        @ lvgl/src/lv_draw/lv_draw_blend.c:326:66
	ldrsh.w	r3, [r3, #2]
	.loc	7 326 53                        @ lvgl/src/lv_draw/lv_draw_blend.c:326:53
	muls	r2, r3, r2
	.loc	7 326 44                        @ lvgl/src/lv_draw/lv_draw_blend.c:326:44
	add.w	r0, r0, r2, lsl #2
	.loc	7 326 69                        @ lvgl/src/lv_draw/lv_draw_blend.c:326:69
	add.w	r0, r0, r1, lsl #2
	.loc	7 326 18                        @ lvgl/src/lv_draw/lv_draw_blend.c:326:18
	str	r0, [sp, #132]
.Ltmp65:
	.loc	7 332 8 is_stmt 1               @ lvgl/src/lv_draw/lv_draw_blend.c:332:8
	ldrb.w	r0, [sp, #150]
.Ltmp66:
	.loc	7 332 8 is_stmt 0               @ lvgl/src/lv_draw/lv_draw_blend.c:332:8
	cmp	r0, #1
	bne	.LBB3_19
	b	.LBB3_1
.LBB3_1:
.Ltmp67:
	.loc	7 333 12 is_stmt 1              @ lvgl/src/lv_draw/lv_draw_blend.c:333:12
	ldrb.w	r0, [sp, #151]
.Ltmp68:
	.loc	7 333 12 is_stmt 0              @ lvgl/src/lv_draw/lv_draw_blend.c:333:12
	cmp	r0, #254
	blt	.LBB3_7
	b	.LBB3_2
.LBB3_2:
	.loc	7 0 12                          @ lvgl/src/lv_draw/lv_draw_blend.c:0:12
	movs	r0, #0
.Ltmp69:
	.loc	7 358 19 is_stmt 1              @ lvgl/src/lv_draw/lv_draw_blend.c:358:19
	str	r0, [sp, #124]
	.loc	7 358 17 is_stmt 0              @ lvgl/src/lv_draw/lv_draw_blend.c:358:17
	b	.LBB3_3
.LBB3_3:                                @ =>This Inner Loop Header: Depth=1
.Ltmp70:
	.loc	7 358 24                        @ lvgl/src/lv_draw/lv_draw_blend.c:358:24
	ldr	r0, [sp, #124]
	.loc	7 358 28                        @ lvgl/src/lv_draw/lv_draw_blend.c:358:28
	ldr	r1, [sp, #136]
.Ltmp71:
	.loc	7 358 13                        @ lvgl/src/lv_draw/lv_draw_blend.c:358:13
	cmp	r0, r1
	bge	.LBB3_6
	b	.LBB3_4
.LBB3_4:                                @   in Loop: Header=BB3_3 Depth=1
.Ltmp72:
	.loc	7 359 31 is_stmt 1              @ lvgl/src/lv_draw/lv_draw_blend.c:359:31
	ldr	r0, [sp, #132]
	.loc	7 359 54 is_stmt 0              @ lvgl/src/lv_draw/lv_draw_blend.c:359:54
	ldr	r2, [sp, #140]
	.loc	7 359 17                        @ lvgl/src/lv_draw/lv_draw_blend.c:359:17
	ldr	r1, [sp, #164]
	bl	lv_color_fill
	.loc	7 360 35 is_stmt 1              @ lvgl/src/lv_draw/lv_draw_blend.c:360:35
	ldr	r1, [sp, #144]
	.loc	7 360 32 is_stmt 0              @ lvgl/src/lv_draw/lv_draw_blend.c:360:32
	ldr	r0, [sp, #132]
	add.w	r0, r0, r1, lsl #2
	str	r0, [sp, #132]
	.loc	7 361 13 is_stmt 1              @ lvgl/src/lv_draw/lv_draw_blend.c:361:13
	b	.LBB3_5
.Ltmp73:
.LBB3_5:                                @   in Loop: Header=BB3_3 Depth=1
	.loc	7 358 42                        @ lvgl/src/lv_draw/lv_draw_blend.c:358:42
	ldr	r0, [sp, #124]
	adds	r0, #1
	str	r0, [sp, #124]
	.loc	7 358 13 is_stmt 0              @ lvgl/src/lv_draw/lv_draw_blend.c:358:13
	b	.LBB3_3
.Ltmp74:
.LBB3_6:
	.loc	7 362 9 is_stmt 1               @ lvgl/src/lv_draw/lv_draw_blend.c:362:9
	b	.LBB3_18
.Ltmp75:
.LBB3_7:
	.loc	7 408 24                        @ lvgl/src/lv_draw/lv_draw_blend.c:408:24
	movw	r0, :lower16:.L__const.fill_normal.last_dest_color
	movt	r0, :upper16:.L__const.fill_normal.last_dest_color
	ldr	r0, [r0]
	str	r0, [sp, #120]
	.loc	7 409 78                        @ lvgl/src/lv_draw/lv_draw_blend.c:409:78
	ldrb.w	r2, [sp, #151]
	.loc	7 409 41 is_stmt 0              @ lvgl/src/lv_draw/lv_draw_blend.c:409:41
	ldr	r0, [sp, #164]
	ldr	r1, [sp, #120]
	bl	lv_color_mix
	str	r0, [sp, #116]
	.loc	7 412 37 is_stmt 1              @ lvgl/src/lv_draw/lv_draw_blend.c:412:37
	ldrb.w	r1, [sp, #151]
	.loc	7 412 13 is_stmt 0              @ lvgl/src/lv_draw/lv_draw_blend.c:412:13
	ldr	r0, [sp, #164]
	add.w	r2, sp, #110
	bl	lv_color_premult
	.loc	7 413 38 is_stmt 1              @ lvgl/src/lv_draw/lv_draw_blend.c:413:38
	ldrb.w	r0, [sp, #151]
	.loc	7 413 36 is_stmt 0              @ lvgl/src/lv_draw/lv_draw_blend.c:413:36
	rsb.w	r0, r0, #255
	.loc	7 413 22                        @ lvgl/src/lv_draw/lv_draw_blend.c:413:22
	strb.w	r0, [sp, #109]
	movs	r0, #0
.Ltmp76:
	.loc	7 415 19 is_stmt 1              @ lvgl/src/lv_draw/lv_draw_blend.c:415:19
	str	r0, [sp, #124]
	.loc	7 415 17 is_stmt 0              @ lvgl/src/lv_draw/lv_draw_blend.c:415:17
	b	.LBB3_8
.LBB3_8:                                @ =>This Loop Header: Depth=1
                                        @     Child Loop BB3_10 Depth 2
.Ltmp77:
	.loc	7 415 24                        @ lvgl/src/lv_draw/lv_draw_blend.c:415:24
	ldr	r0, [sp, #124]
	.loc	7 415 28                        @ lvgl/src/lv_draw/lv_draw_blend.c:415:28
	ldr	r1, [sp, #136]
.Ltmp78:
	.loc	7 415 13                        @ lvgl/src/lv_draw/lv_draw_blend.c:415:13
	cmp	r0, r1
	bge	.LBB3_17
	b	.LBB3_9
.LBB3_9:                                @   in Loop: Header=BB3_8 Depth=1
	.loc	7 0 13                          @ lvgl/src/lv_draw/lv_draw_blend.c:0:13
	movs	r0, #0
.Ltmp79:
	.loc	7 416 23 is_stmt 1              @ lvgl/src/lv_draw/lv_draw_blend.c:416:23
	str	r0, [sp, #128]
	.loc	7 416 21 is_stmt 0              @ lvgl/src/lv_draw/lv_draw_blend.c:416:21
	b	.LBB3_10
.LBB3_10:                               @   Parent Loop BB3_8 Depth=1
                                        @ =>  This Inner Loop Header: Depth=2
.Ltmp80:
	.loc	7 416 28                        @ lvgl/src/lv_draw/lv_draw_blend.c:416:28
	ldr	r0, [sp, #128]
	.loc	7 416 32                        @ lvgl/src/lv_draw/lv_draw_blend.c:416:32
	ldr	r1, [sp, #140]
.Ltmp81:
	.loc	7 416 17                        @ lvgl/src/lv_draw/lv_draw_blend.c:416:17
	cmp	r0, r1
	bge	.LBB3_15
	b	.LBB3_11
.LBB3_11:                               @   in Loop: Header=BB3_10 Depth=2
.Ltmp82:
	.loc	7 417 40 is_stmt 1              @ lvgl/src/lv_draw/lv_draw_blend.c:417:40
	ldr	r0, [sp, #120]
	.loc	7 417 48 is_stmt 0              @ lvgl/src/lv_draw/lv_draw_blend.c:417:48
	ldr	r1, [sp, #132]
	.loc	7 417 63                        @ lvgl/src/lv_draw/lv_draw_blend.c:417:63
	ldr	r2, [sp, #128]
	.loc	7 417 66                        @ lvgl/src/lv_draw/lv_draw_blend.c:417:66
	ldr.w	r1, [r1, r2, lsl #2]
.Ltmp83:
	.loc	7 417 24                        @ lvgl/src/lv_draw/lv_draw_blend.c:417:24
	cmp	r0, r1
	beq	.LBB3_13
	b	.LBB3_12
.LBB3_12:                               @   in Loop: Header=BB3_10 Depth=2
.Ltmp84:
	.loc	7 418 43 is_stmt 1              @ lvgl/src/lv_draw/lv_draw_blend.c:418:43
	ldr	r0, [sp, #132]
	.loc	7 418 58 is_stmt 0              @ lvgl/src/lv_draw/lv_draw_blend.c:418:58
	ldr	r1, [sp, #128]
	.loc	7 418 43                        @ lvgl/src/lv_draw/lv_draw_blend.c:418:43
	ldr.w	r0, [r0, r1, lsl #2]
	str	r0, [sp, #120]
.Ltmp85:
	.loc	7 428 82 is_stmt 1              @ lvgl/src/lv_draw/lv_draw_blend.c:428:82
	ldr	r0, [sp, #132]
	.loc	7 428 97 is_stmt 0              @ lvgl/src/lv_draw/lv_draw_blend.c:428:97
	ldr	r1, [sp, #128]
	.loc	7 428 101                       @ lvgl/src/lv_draw/lv_draw_blend.c:428:101
	ldrb.w	r2, [sp, #109]
	.loc	7 428 46                        @ lvgl/src/lv_draw/lv_draw_blend.c:428:46
	ldr.w	r1, [r0, r1, lsl #2]
	add.w	r0, sp, #110
	bl	lv_color_mix_premult
	str	r0, [sp, #104]
	ldr	r0, [sp, #104]
	str	r0, [sp, #116]
.Ltmp86:
	.loc	7 430 21 is_stmt 1              @ lvgl/src/lv_draw/lv_draw_blend.c:430:21
	b	.LBB3_13
.Ltmp87:
.LBB3_13:                               @   in Loop: Header=BB3_10 Depth=2
	.loc	7 431 21                        @ lvgl/src/lv_draw/lv_draw_blend.c:431:21
	ldr	r1, [sp, #132]
	.loc	7 431 36 is_stmt 0              @ lvgl/src/lv_draw/lv_draw_blend.c:431:36
	ldr	r2, [sp, #128]
	.loc	7 431 41                        @ lvgl/src/lv_draw/lv_draw_blend.c:431:41
	ldr	r0, [sp, #116]
	str.w	r0, [r1, r2, lsl #2]
	.loc	7 432 17 is_stmt 1              @ lvgl/src/lv_draw/lv_draw_blend.c:432:17
	b	.LBB3_14
.Ltmp88:
.LBB3_14:                               @   in Loop: Header=BB3_10 Depth=2
	.loc	7 416 46                        @ lvgl/src/lv_draw/lv_draw_blend.c:416:46
	ldr	r0, [sp, #128]
	adds	r0, #1
	str	r0, [sp, #128]
	.loc	7 416 17 is_stmt 0              @ lvgl/src/lv_draw/lv_draw_blend.c:416:17
	b	.LBB3_10
.Ltmp89:
.LBB3_15:                               @   in Loop: Header=BB3_8 Depth=1
	.loc	7 433 35 is_stmt 1              @ lvgl/src/lv_draw/lv_draw_blend.c:433:35
	ldr	r1, [sp, #144]
	.loc	7 433 32 is_stmt 0              @ lvgl/src/lv_draw/lv_draw_blend.c:433:32
	ldr	r0, [sp, #132]
	add.w	r0, r0, r1, lsl #2
	str	r0, [sp, #132]
	.loc	7 434 13 is_stmt 1              @ lvgl/src/lv_draw/lv_draw_blend.c:434:13
	b	.LBB3_16
.Ltmp90:
.LBB3_16:                               @   in Loop: Header=BB3_8 Depth=1
	.loc	7 415 42                        @ lvgl/src/lv_draw/lv_draw_blend.c:415:42
	ldr	r0, [sp, #124]
	adds	r0, #1
	str	r0, [sp, #124]
	.loc	7 415 13 is_stmt 0              @ lvgl/src/lv_draw/lv_draw_blend.c:415:13
	b	.LBB3_8
.Ltmp91:
.LBB3_17:
	.loc	7 0 13                          @ lvgl/src/lv_draw/lv_draw_blend.c:0:13
	b	.LBB3_18
.LBB3_18:
	.loc	7 436 5 is_stmt 1               @ lvgl/src/lv_draw/lv_draw_blend.c:436:5
	b	.LBB3_97
.Ltmp92:
.LBB3_19:
	.loc	7 0 5 is_stmt 0                 @ lvgl/src/lv_draw/lv_draw_blend.c:0:5
	movs	r0, #0
.Ltmp93:
	.loc	7 450 18 is_stmt 1              @ lvgl/src/lv_draw/lv_draw_blend.c:450:18
	strb.w	r0, [sp, #95]
	.loc	7 451 32                        @ lvgl/src/lv_draw/lv_draw_blend.c:451:32
	ldr	r0, [sp, #132]
	.loc	7 451 50 is_stmt 0              @ lvgl/src/lv_draw/lv_draw_blend.c:451:50
	ldr	r0, [r0]
	.loc	7 451 30                        @ lvgl/src/lv_draw/lv_draw_blend.c:451:30
	str	r0, [sp, #100]
	.loc	7 452 31 is_stmt 1              @ lvgl/src/lv_draw/lv_draw_blend.c:452:31
	ldr	r0, [sp, #132]
	.loc	7 452 49 is_stmt 0              @ lvgl/src/lv_draw/lv_draw_blend.c:452:49
	ldr	r0, [r0]
	.loc	7 452 29                        @ lvgl/src/lv_draw/lv_draw_blend.c:452:29
	str	r0, [sp, #96]
	.loc	7 454 26 is_stmt 1              @ lvgl/src/lv_draw/lv_draw_blend.c:454:26
	ldr	r0, [sp, #140]
	.loc	7 454 38 is_stmt 0              @ lvgl/src/lv_draw/lv_draw_blend.c:454:38
	subs	r0, #4
	.loc	7 454 17                        @ lvgl/src/lv_draw/lv_draw_blend.c:454:17
	str	r0, [sp, #88]
.Ltmp94:
	.loc	7 457 12 is_stmt 1              @ lvgl/src/lv_draw/lv_draw_blend.c:457:12
	ldrb.w	r0, [sp, #151]
.Ltmp95:
	.loc	7 457 12 is_stmt 0              @ lvgl/src/lv_draw/lv_draw_blend.c:457:12
	cmp	r0, #254
	blt.w	.LBB3_74
	b	.LBB3_20
.LBB3_20:
	.loc	7 0 12                          @ lvgl/src/lv_draw/lv_draw_blend.c:0:12
	movs	r0, #0
.Ltmp96:
	.loc	7 458 19 is_stmt 1              @ lvgl/src/lv_draw/lv_draw_blend.c:458:19
	str	r0, [sp, #124]
	.loc	7 458 17 is_stmt 0              @ lvgl/src/lv_draw/lv_draw_blend.c:458:17
	b	.LBB3_21
.LBB3_21:                               @ =>This Loop Header: Depth=1
                                        @     Child Loop BB3_23 Depth 2
                                        @     Child Loop BB3_34 Depth 2
                                        @     Child Loop BB3_63 Depth 2
.Ltmp97:
	.loc	7 458 24                        @ lvgl/src/lv_draw/lv_draw_blend.c:458:24
	ldr	r0, [sp, #124]
	.loc	7 458 28                        @ lvgl/src/lv_draw/lv_draw_blend.c:458:28
	ldr	r1, [sp, #136]
.Ltmp98:
	.loc	7 458 13                        @ lvgl/src/lv_draw/lv_draw_blend.c:458:13
	cmp	r0, r1
	bge.w	.LBB3_73
	b	.LBB3_22
.LBB3_22:                               @   in Loop: Header=BB3_21 Depth=1
.Ltmp99:
	.loc	7 459 47 is_stmt 1              @ lvgl/src/lv_draw/lv_draw_blend.c:459:47
	ldr	r0, [sp, #180]
	.loc	7 459 34 is_stmt 0              @ lvgl/src/lv_draw/lv_draw_blend.c:459:34
	str	r0, [sp, #84]
	movs	r0, #0
.Ltmp100:
	.loc	7 469 23 is_stmt 1              @ lvgl/src/lv_draw/lv_draw_blend.c:469:23
	str	r0, [sp, #128]
	.loc	7 469 21 is_stmt 0              @ lvgl/src/lv_draw/lv_draw_blend.c:469:21
	b	.LBB3_23
.LBB3_23:                               @   Parent Loop BB3_21 Depth=1
                                        @ =>  This Inner Loop Header: Depth=2
.Ltmp101:
	.loc	7 469 28                        @ lvgl/src/lv_draw/lv_draw_blend.c:469:28
	ldr	r1, [sp, #128]
	.loc	7 469 32                        @ lvgl/src/lv_draw/lv_draw_blend.c:469:32
	ldr	r2, [sp, #140]
	movs	r0, #0
	.loc	7 469 44                        @ lvgl/src/lv_draw/lv_draw_blend.c:469:44
	cmp	r1, r2
	str	r0, [sp, #40]                   @ 4-byte Spill
	bge	.LBB3_25
	b	.LBB3_24
.LBB3_24:                               @   in Loop: Header=BB3_23 Depth=2
	ldrb.w	r0, [sp, #84]
	and	r0, r0, #3
	cmp	r0, #0
	it	ne
	movne	r0, #1
	str	r0, [sp, #40]                   @ 4-byte Spill
	b	.LBB3_25
.LBB3_25:                               @   in Loop: Header=BB3_23 Depth=2
	.loc	7 0 0                           @ lvgl/src/lv_draw/lv_draw_blend.c:0:0
	ldr	r0, [sp, #40]                   @ 4-byte Reload
.Ltmp102:
	.loc	7 469 17                        @ lvgl/src/lv_draw/lv_draw_blend.c:469:17
	lsls	r0, r0, #31
	cbz	r0, .LBB3_33
	b	.LBB3_26
.LBB3_26:                               @   in Loop: Header=BB3_23 Depth=2
.Ltmp103:
	.loc	7 473 21 is_stmt 1              @ lvgl/src/lv_draw/lv_draw_blend.c:473:21
	ldr	r0, [sp, #84]
	ldrb	r0, [r0]
.Ltmp104:
	.loc	7 473 21 is_stmt 0              @ lvgl/src/lv_draw/lv_draw_blend.c:473:21
	cbz	r0, .LBB3_31
	b	.LBB3_27
.LBB3_27:                               @   in Loop: Header=BB3_23 Depth=2
.Ltmp105:
	.loc	7 473 21                        @ lvgl/src/lv_draw/lv_draw_blend.c:473:21
	ldr	r0, [sp, #84]
	ldrb	r0, [r0]
.Ltmp106:
	.loc	7 473 21                        @ lvgl/src/lv_draw/lv_draw_blend.c:473:21
	cmp	r0, #255
	bne	.LBB3_29
	b	.LBB3_28
.LBB3_28:                               @   in Loop: Header=BB3_23 Depth=2
.Ltmp107:
	.loc	7 473 21                        @ lvgl/src/lv_draw/lv_draw_blend.c:473:21
	ldr	r1, [sp, #132]
	ldr	r2, [sp, #128]
	ldr	r0, [sp, #164]
	str.w	r0, [r1, r2, lsl #2]
	b	.LBB3_30
.LBB3_29:                               @   in Loop: Header=BB3_23 Depth=2
	ldr	r1, [sp, #132]
	str	r1, [sp, #36]                   @ 4-byte Spill
	ldr	r3, [sp, #128]
	str	r3, [sp, #32]                   @ 4-byte Spill
	ldr	r0, [sp, #84]
	ldrb	r2, [r0]
	ldr	r0, [sp, #164]
	ldr.w	r1, [r1, r3, lsl #2]
	bl	lv_color_mix
	ldr	r2, [sp, #32]                   @ 4-byte Reload
	ldr	r1, [sp, #36]                   @ 4-byte Reload
	str	r0, [sp, #80]
	ldr	r0, [sp, #80]
	str.w	r0, [r1, r2, lsl #2]
	b	.LBB3_30
.Ltmp108:
.LBB3_30:                               @   in Loop: Header=BB3_23 Depth=2
	.loc	7 473 21                        @ lvgl/src/lv_draw/lv_draw_blend.c:473:21
	b	.LBB3_31
.Ltmp109:
.LBB3_31:                               @   in Loop: Header=BB3_23 Depth=2
	.loc	7 473 21                        @ lvgl/src/lv_draw/lv_draw_blend.c:473:21
	ldr	r0, [sp, #84]
	adds	r0, #1
	str	r0, [sp, #84]
	.loc	7 475 17 is_stmt 1              @ lvgl/src/lv_draw/lv_draw_blend.c:475:17
	b	.LBB3_32
.Ltmp110:
.LBB3_32:                               @   in Loop: Header=BB3_23 Depth=2
	.loc	7 469 82                        @ lvgl/src/lv_draw/lv_draw_blend.c:469:82
	ldr	r0, [sp, #128]
	adds	r0, #1
	str	r0, [sp, #128]
	.loc	7 469 17 is_stmt 0              @ lvgl/src/lv_draw/lv_draw_blend.c:469:17
	b	.LBB3_23
.Ltmp111:
.LBB3_33:                               @   in Loop: Header=BB3_21 Depth=1
	.loc	7 477 50 is_stmt 1              @ lvgl/src/lv_draw/lv_draw_blend.c:477:50
	ldr	r0, [sp, #84]
	.loc	7 477 28 is_stmt 0              @ lvgl/src/lv_draw/lv_draw_blend.c:477:28
	str	r0, [sp, #76]
	.loc	7 478 17 is_stmt 1              @ lvgl/src/lv_draw/lv_draw_blend.c:478:17
	b	.LBB3_34
.LBB3_34:                               @   Parent Loop BB3_21 Depth=1
                                        @ =>  This Inner Loop Header: Depth=2
.Ltmp112:
	.loc	7 478 23 is_stmt 0              @ lvgl/src/lv_draw/lv_draw_blend.c:478:23
	ldr	r0, [sp, #128]
	.loc	7 478 28                        @ lvgl/src/lv_draw/lv_draw_blend.c:478:28
	ldr	r1, [sp, #88]
.Ltmp113:
	.loc	7 478 17                        @ lvgl/src/lv_draw/lv_draw_blend.c:478:17
	cmp	r0, r1
	bgt.w	.LBB3_62
	b	.LBB3_35
.LBB3_35:                               @   in Loop: Header=BB3_34 Depth=2
.Ltmp114:
	.loc	7 479 25 is_stmt 1              @ lvgl/src/lv_draw/lv_draw_blend.c:479:25
	ldr	r0, [sp, #76]
	.loc	7 479 24 is_stmt 0              @ lvgl/src/lv_draw/lv_draw_blend.c:479:24
	ldr	r0, [r0]
.Ltmp115:
	.loc	7 479 24                        @ lvgl/src/lv_draw/lv_draw_blend.c:479:24
	cmp	r0, #0
	beq.w	.LBB3_60
	b	.LBB3_36
.LBB3_36:                               @   in Loop: Header=BB3_34 Depth=2
.Ltmp116:
	.loc	7 480 30 is_stmt 1              @ lvgl/src/lv_draw/lv_draw_blend.c:480:30
	ldr	r0, [sp, #76]
	.loc	7 480 29 is_stmt 0              @ lvgl/src/lv_draw/lv_draw_blend.c:480:29
	ldr	r0, [r0]
.Ltmp117:
	.loc	7 480 28                        @ lvgl/src/lv_draw/lv_draw_blend.c:480:28
	adds	r0, #1
	cbnz	r0, .LBB3_38
	b	.LBB3_37
.LBB3_37:                               @   in Loop: Header=BB3_34 Depth=2
.Ltmp118:
	.loc	7 481 29 is_stmt 1              @ lvgl/src/lv_draw/lv_draw_blend.c:481:29
	ldr	r1, [sp, #132]
	.loc	7 481 44 is_stmt 0              @ lvgl/src/lv_draw/lv_draw_blend.c:481:44
	ldr	r2, [sp, #128]
	.loc	7 481 49                        @ lvgl/src/lv_draw/lv_draw_blend.c:481:49
	ldr	r0, [sp, #164]
	str.w	r0, [r1, r2, lsl #2]
	.loc	7 482 29 is_stmt 1              @ lvgl/src/lv_draw/lv_draw_blend.c:482:29
	ldr	r0, [sp, #132]
	.loc	7 482 44 is_stmt 0              @ lvgl/src/lv_draw/lv_draw_blend.c:482:44
	ldr	r1, [sp, #128]
	.loc	7 482 29                        @ lvgl/src/lv_draw/lv_draw_blend.c:482:29
	add.w	r1, r0, r1, lsl #2
	.loc	7 482 53                        @ lvgl/src/lv_draw/lv_draw_blend.c:482:53
	ldr	r0, [sp, #164]
	str	r0, [r1, #4]
	.loc	7 483 29 is_stmt 1              @ lvgl/src/lv_draw/lv_draw_blend.c:483:29
	ldr	r0, [sp, #132]
	.loc	7 483 44 is_stmt 0              @ lvgl/src/lv_draw/lv_draw_blend.c:483:44
	ldr	r1, [sp, #128]
	.loc	7 483 29                        @ lvgl/src/lv_draw/lv_draw_blend.c:483:29
	add.w	r1, r0, r1, lsl #2
	.loc	7 483 53                        @ lvgl/src/lv_draw/lv_draw_blend.c:483:53
	ldr	r0, [sp, #164]
	str	r0, [r1, #8]
	.loc	7 484 29 is_stmt 1              @ lvgl/src/lv_draw/lv_draw_blend.c:484:29
	ldr	r0, [sp, #132]
	.loc	7 484 44 is_stmt 0              @ lvgl/src/lv_draw/lv_draw_blend.c:484:44
	ldr	r1, [sp, #128]
	.loc	7 484 29                        @ lvgl/src/lv_draw/lv_draw_blend.c:484:29
	add.w	r1, r0, r1, lsl #2
	.loc	7 484 53                        @ lvgl/src/lv_draw/lv_draw_blend.c:484:53
	ldr	r0, [sp, #164]
	str	r0, [r1, #12]
	.loc	7 485 25 is_stmt 1              @ lvgl/src/lv_draw/lv_draw_blend.c:485:25
	b	.LBB3_59
.Ltmp119:
.LBB3_38:                               @   in Loop: Header=BB3_34 Depth=2
	.loc	7 487 60                        @ lvgl/src/lv_draw/lv_draw_blend.c:487:60
	ldr	r0, [sp, #76]
	.loc	7 487 40 is_stmt 0              @ lvgl/src/lv_draw/lv_draw_blend.c:487:40
	str	r0, [sp, #84]
.Ltmp120:
	.loc	7 494 29 is_stmt 1              @ lvgl/src/lv_draw/lv_draw_blend.c:494:29
	ldr	r0, [sp, #84]
	ldrb	r0, [r0]
.Ltmp121:
	.loc	7 494 29 is_stmt 0              @ lvgl/src/lv_draw/lv_draw_blend.c:494:29
	cbz	r0, .LBB3_43
	b	.LBB3_39
.LBB3_39:                               @   in Loop: Header=BB3_34 Depth=2
.Ltmp122:
	.loc	7 494 29                        @ lvgl/src/lv_draw/lv_draw_blend.c:494:29
	ldr	r0, [sp, #84]
	ldrb	r0, [r0]
.Ltmp123:
	.loc	7 494 29                        @ lvgl/src/lv_draw/lv_draw_blend.c:494:29
	cmp	r0, #255
	bne	.LBB3_41
	b	.LBB3_40
.LBB3_40:                               @   in Loop: Header=BB3_34 Depth=2
.Ltmp124:
	.loc	7 494 29                        @ lvgl/src/lv_draw/lv_draw_blend.c:494:29
	ldr	r1, [sp, #132]
	ldr	r2, [sp, #128]
	ldr	r0, [sp, #164]
	str.w	r0, [r1, r2, lsl #2]
	b	.LBB3_42
.LBB3_41:                               @   in Loop: Header=BB3_34 Depth=2
	ldr	r1, [sp, #132]
	str	r1, [sp, #28]                   @ 4-byte Spill
	ldr	r3, [sp, #128]
	str	r3, [sp, #24]                   @ 4-byte Spill
	ldr	r0, [sp, #84]
	ldrb	r2, [r0]
	ldr	r0, [sp, #164]
	ldr.w	r1, [r1, r3, lsl #2]
	bl	lv_color_mix
	ldr	r2, [sp, #24]                   @ 4-byte Reload
	ldr	r1, [sp, #28]                   @ 4-byte Reload
	str	r0, [sp, #72]
	ldr	r0, [sp, #72]
	str.w	r0, [r1, r2, lsl #2]
	b	.LBB3_42
.Ltmp125:
.LBB3_42:                               @   in Loop: Header=BB3_34 Depth=2
	.loc	7 494 29                        @ lvgl/src/lv_draw/lv_draw_blend.c:494:29
	b	.LBB3_43
.Ltmp126:
.LBB3_43:                               @   in Loop: Header=BB3_34 Depth=2
	.loc	7 494 29                        @ lvgl/src/lv_draw/lv_draw_blend.c:494:29
	ldr	r0, [sp, #84]
	adds	r0, #1
	str	r0, [sp, #84]
.Ltmp127:
	.loc	7 495 29 is_stmt 1              @ lvgl/src/lv_draw/lv_draw_blend.c:495:29
	ldr	r0, [sp, #84]
	ldrb	r0, [r0]
.Ltmp128:
	.loc	7 495 29 is_stmt 0              @ lvgl/src/lv_draw/lv_draw_blend.c:495:29
	cbz	r0, .LBB3_48
	b	.LBB3_44
.LBB3_44:                               @   in Loop: Header=BB3_34 Depth=2
.Ltmp129:
	.loc	7 495 29                        @ lvgl/src/lv_draw/lv_draw_blend.c:495:29
	ldr	r0, [sp, #84]
	ldrb	r0, [r0]
.Ltmp130:
	.loc	7 495 29                        @ lvgl/src/lv_draw/lv_draw_blend.c:495:29
	cmp	r0, #255
	bne	.LBB3_46
	b	.LBB3_45
.LBB3_45:                               @   in Loop: Header=BB3_34 Depth=2
.Ltmp131:
	.loc	7 495 29                        @ lvgl/src/lv_draw/lv_draw_blend.c:495:29
	ldr	r0, [sp, #132]
	ldr	r1, [sp, #128]
	add.w	r1, r0, r1, lsl #2
	ldr	r0, [sp, #164]
	str	r0, [r1, #4]
	b	.LBB3_47
.LBB3_46:                               @   in Loop: Header=BB3_34 Depth=2
	ldr	r0, [sp, #132]
	ldr	r1, [sp, #128]
	add.w	r1, r0, r1, lsl #2
	str	r1, [sp, #20]                   @ 4-byte Spill
	ldr	r0, [sp, #84]
	ldrb	r2, [r0]
	ldr	r0, [sp, #164]
	ldr	r1, [r1, #4]
	bl	lv_color_mix
	ldr	r1, [sp, #20]                   @ 4-byte Reload
	str	r0, [sp, #68]
	ldr	r0, [sp, #68]
	str	r0, [r1, #4]
	b	.LBB3_47
.Ltmp132:
.LBB3_47:                               @   in Loop: Header=BB3_34 Depth=2
	.loc	7 495 29                        @ lvgl/src/lv_draw/lv_draw_blend.c:495:29
	b	.LBB3_48
.Ltmp133:
.LBB3_48:                               @   in Loop: Header=BB3_34 Depth=2
	.loc	7 495 29                        @ lvgl/src/lv_draw/lv_draw_blend.c:495:29
	ldr	r0, [sp, #84]
	adds	r0, #1
	str	r0, [sp, #84]
.Ltmp134:
	.loc	7 496 29 is_stmt 1              @ lvgl/src/lv_draw/lv_draw_blend.c:496:29
	ldr	r0, [sp, #84]
	ldrb	r0, [r0]
.Ltmp135:
	.loc	7 496 29 is_stmt 0              @ lvgl/src/lv_draw/lv_draw_blend.c:496:29
	cbz	r0, .LBB3_53
	b	.LBB3_49
.LBB3_49:                               @   in Loop: Header=BB3_34 Depth=2
.Ltmp136:
	.loc	7 496 29                        @ lvgl/src/lv_draw/lv_draw_blend.c:496:29
	ldr	r0, [sp, #84]
	ldrb	r0, [r0]
.Ltmp137:
	.loc	7 496 29                        @ lvgl/src/lv_draw/lv_draw_blend.c:496:29
	cmp	r0, #255
	bne	.LBB3_51
	b	.LBB3_50
.LBB3_50:                               @   in Loop: Header=BB3_34 Depth=2
.Ltmp138:
	.loc	7 496 29                        @ lvgl/src/lv_draw/lv_draw_blend.c:496:29
	ldr	r0, [sp, #132]
	ldr	r1, [sp, #128]
	add.w	r1, r0, r1, lsl #2
	ldr	r0, [sp, #164]
	str	r0, [r1, #8]
	b	.LBB3_52
.LBB3_51:                               @   in Loop: Header=BB3_34 Depth=2
	ldr	r0, [sp, #132]
	ldr	r1, [sp, #128]
	add.w	r1, r0, r1, lsl #2
	str	r1, [sp, #16]                   @ 4-byte Spill
	ldr	r0, [sp, #84]
	ldrb	r2, [r0]
	ldr	r0, [sp, #164]
	ldr	r1, [r1, #8]
	bl	lv_color_mix
	ldr	r1, [sp, #16]                   @ 4-byte Reload
	str	r0, [sp, #64]
	ldr	r0, [sp, #64]
	str	r0, [r1, #8]
	b	.LBB3_52
.Ltmp139:
.LBB3_52:                               @   in Loop: Header=BB3_34 Depth=2
	.loc	7 496 29                        @ lvgl/src/lv_draw/lv_draw_blend.c:496:29
	b	.LBB3_53
.Ltmp140:
.LBB3_53:                               @   in Loop: Header=BB3_34 Depth=2
	.loc	7 496 29                        @ lvgl/src/lv_draw/lv_draw_blend.c:496:29
	ldr	r0, [sp, #84]
	adds	r0, #1
	str	r0, [sp, #84]
.Ltmp141:
	.loc	7 497 29 is_stmt 1              @ lvgl/src/lv_draw/lv_draw_blend.c:497:29
	ldr	r0, [sp, #84]
	ldrb	r0, [r0]
.Ltmp142:
	.loc	7 497 29 is_stmt 0              @ lvgl/src/lv_draw/lv_draw_blend.c:497:29
	cbz	r0, .LBB3_58
	b	.LBB3_54
.LBB3_54:                               @   in Loop: Header=BB3_34 Depth=2
.Ltmp143:
	.loc	7 497 29                        @ lvgl/src/lv_draw/lv_draw_blend.c:497:29
	ldr	r0, [sp, #84]
	ldrb	r0, [r0]
.Ltmp144:
	.loc	7 497 29                        @ lvgl/src/lv_draw/lv_draw_blend.c:497:29
	cmp	r0, #255
	bne	.LBB3_56
	b	.LBB3_55
.LBB3_55:                               @   in Loop: Header=BB3_34 Depth=2
.Ltmp145:
	.loc	7 497 29                        @ lvgl/src/lv_draw/lv_draw_blend.c:497:29
	ldr	r0, [sp, #132]
	ldr	r1, [sp, #128]
	add.w	r1, r0, r1, lsl #2
	ldr	r0, [sp, #164]
	str	r0, [r1, #12]
	b	.LBB3_57
.LBB3_56:                               @   in Loop: Header=BB3_34 Depth=2
	ldr	r0, [sp, #132]
	ldr	r1, [sp, #128]
	add.w	r1, r0, r1, lsl #2
	str	r1, [sp, #12]                   @ 4-byte Spill
	ldr	r0, [sp, #84]
	ldrb	r2, [r0]
	ldr	r0, [sp, #164]
	ldr	r1, [r1, #12]
	bl	lv_color_mix
	ldr	r1, [sp, #12]                   @ 4-byte Reload
	str	r0, [sp, #60]
	ldr	r0, [sp, #60]
	str	r0, [r1, #12]
	b	.LBB3_57
.Ltmp146:
.LBB3_57:                               @   in Loop: Header=BB3_34 Depth=2
	.loc	7 497 29                        @ lvgl/src/lv_draw/lv_draw_blend.c:497:29
	b	.LBB3_58
.Ltmp147:
.LBB3_58:                               @   in Loop: Header=BB3_34 Depth=2
	.loc	7 497 29                        @ lvgl/src/lv_draw/lv_draw_blend.c:497:29
	ldr	r0, [sp, #84]
	adds	r0, #1
	str	r0, [sp, #84]
	b	.LBB3_59
.Ltmp148:
.LBB3_59:                               @   in Loop: Header=BB3_34 Depth=2
	.loc	7 500 21 is_stmt 1              @ lvgl/src/lv_draw/lv_draw_blend.c:500:21
	b	.LBB3_60
.Ltmp149:
.LBB3_60:                               @   in Loop: Header=BB3_34 Depth=2
	.loc	7 501 27                        @ lvgl/src/lv_draw/lv_draw_blend.c:501:27
	ldr	r0, [sp, #76]
	adds	r0, #4
	str	r0, [sp, #76]
	.loc	7 502 17                        @ lvgl/src/lv_draw/lv_draw_blend.c:502:17
	b	.LBB3_61
.Ltmp150:
.LBB3_61:                               @   in Loop: Header=BB3_34 Depth=2
	.loc	7 478 38                        @ lvgl/src/lv_draw/lv_draw_blend.c:478:38
	ldr	r0, [sp, #128]
	adds	r0, #4
	str	r0, [sp, #128]
	.loc	7 478 17 is_stmt 0              @ lvgl/src/lv_draw/lv_draw_blend.c:478:17
	b	.LBB3_34
.Ltmp151:
.LBB3_62:                               @   in Loop: Header=BB3_21 Depth=1
	.loc	7 504 48 is_stmt 1              @ lvgl/src/lv_draw/lv_draw_blend.c:504:48
	ldr	r0, [sp, #76]
	.loc	7 504 28 is_stmt 0              @ lvgl/src/lv_draw/lv_draw_blend.c:504:28
	str	r0, [sp, #84]
	.loc	7 505 17 is_stmt 1              @ lvgl/src/lv_draw/lv_draw_blend.c:505:17
	b	.LBB3_63
.LBB3_63:                               @   Parent Loop BB3_21 Depth=1
                                        @ =>  This Inner Loop Header: Depth=2
.Ltmp152:
	.loc	7 505 23 is_stmt 0              @ lvgl/src/lv_draw/lv_draw_blend.c:505:23
	ldr	r0, [sp, #128]
	.loc	7 505 27                        @ lvgl/src/lv_draw/lv_draw_blend.c:505:27
	ldr	r1, [sp, #140]
.Ltmp153:
	.loc	7 505 17                        @ lvgl/src/lv_draw/lv_draw_blend.c:505:17
	cmp	r0, r1
	bge	.LBB3_71
	b	.LBB3_64
.LBB3_64:                               @   in Loop: Header=BB3_63 Depth=2
.Ltmp154:
	.loc	7 509 21 is_stmt 1              @ lvgl/src/lv_draw/lv_draw_blend.c:509:21
	ldr	r0, [sp, #84]
	ldrb	r0, [r0]
.Ltmp155:
	.loc	7 509 21 is_stmt 0              @ lvgl/src/lv_draw/lv_draw_blend.c:509:21
	cbz	r0, .LBB3_69
	b	.LBB3_65
.LBB3_65:                               @   in Loop: Header=BB3_63 Depth=2
.Ltmp156:
	.loc	7 509 21                        @ lvgl/src/lv_draw/lv_draw_blend.c:509:21
	ldr	r0, [sp, #84]
	ldrb	r0, [r0]
.Ltmp157:
	.loc	7 509 21                        @ lvgl/src/lv_draw/lv_draw_blend.c:509:21
	cmp	r0, #255
	bne	.LBB3_67
	b	.LBB3_66
.LBB3_66:                               @   in Loop: Header=BB3_63 Depth=2
.Ltmp158:
	.loc	7 509 21                        @ lvgl/src/lv_draw/lv_draw_blend.c:509:21
	ldr	r1, [sp, #132]
	ldr	r2, [sp, #128]
	ldr	r0, [sp, #164]
	str.w	r0, [r1, r2, lsl #2]
	b	.LBB3_68
.LBB3_67:                               @   in Loop: Header=BB3_63 Depth=2
	ldr	r1, [sp, #132]
	str	r1, [sp, #8]                    @ 4-byte Spill
	ldr	r3, [sp, #128]
	str	r3, [sp, #4]                    @ 4-byte Spill
	ldr	r0, [sp, #84]
	ldrb	r2, [r0]
	ldr	r0, [sp, #164]
	ldr.w	r1, [r1, r3, lsl #2]
	bl	lv_color_mix
	ldr	r2, [sp, #4]                    @ 4-byte Reload
	ldr	r1, [sp, #8]                    @ 4-byte Reload
	str	r0, [sp, #56]
	ldr	r0, [sp, #56]
	str.w	r0, [r1, r2, lsl #2]
	b	.LBB3_68
.Ltmp159:
.LBB3_68:                               @   in Loop: Header=BB3_63 Depth=2
	.loc	7 509 21                        @ lvgl/src/lv_draw/lv_draw_blend.c:509:21
	b	.LBB3_69
.Ltmp160:
.LBB3_69:                               @   in Loop: Header=BB3_63 Depth=2
	.loc	7 509 21                        @ lvgl/src/lv_draw/lv_draw_blend.c:509:21
	ldr	r0, [sp, #84]
	adds	r0, #1
	str	r0, [sp, #84]
	.loc	7 511 17 is_stmt 1              @ lvgl/src/lv_draw/lv_draw_blend.c:511:17
	b	.LBB3_70
.Ltmp161:
.LBB3_70:                               @   in Loop: Header=BB3_63 Depth=2
	.loc	7 505 42                        @ lvgl/src/lv_draw/lv_draw_blend.c:505:42
	ldr	r0, [sp, #128]
	adds	r0, #1
	str	r0, [sp, #128]
	.loc	7 505 17 is_stmt 0              @ lvgl/src/lv_draw/lv_draw_blend.c:505:17
	b	.LBB3_63
.Ltmp162:
.LBB3_71:                               @   in Loop: Header=BB3_21 Depth=1
	.loc	7 513 35 is_stmt 1              @ lvgl/src/lv_draw/lv_draw_blend.c:513:35
	ldr	r1, [sp, #144]
	.loc	7 513 32 is_stmt 0              @ lvgl/src/lv_draw/lv_draw_blend.c:513:32
	ldr	r0, [sp, #132]
	add.w	r0, r0, r1, lsl #2
	str	r0, [sp, #132]
	.loc	7 514 25 is_stmt 1              @ lvgl/src/lv_draw/lv_draw_blend.c:514:25
	ldr	r1, [sp, #140]
	.loc	7 514 22 is_stmt 0              @ lvgl/src/lv_draw/lv_draw_blend.c:514:22
	ldr	r0, [sp, #180]
	add	r0, r1
	str	r0, [sp, #180]
	.loc	7 515 13 is_stmt 1              @ lvgl/src/lv_draw/lv_draw_blend.c:515:13
	b	.LBB3_72
.Ltmp163:
.LBB3_72:                               @   in Loop: Header=BB3_21 Depth=1
	.loc	7 458 42                        @ lvgl/src/lv_draw/lv_draw_blend.c:458:42
	ldr	r0, [sp, #124]
	adds	r0, #1
	str	r0, [sp, #124]
	.loc	7 458 13 is_stmt 0              @ lvgl/src/lv_draw/lv_draw_blend.c:458:13
	b	.LBB3_21
.Ltmp164:
.LBB3_73:
	.loc	7 516 9 is_stmt 1               @ lvgl/src/lv_draw/lv_draw_blend.c:516:9
	b	.LBB3_96
.Ltmp165:
.LBB3_74:
	.loc	7 0 9 is_stmt 0                 @ lvgl/src/lv_draw/lv_draw_blend.c:0:9
	movs	r0, #0
.Ltmp166:
	.loc	7 519 22 is_stmt 1              @ lvgl/src/lv_draw/lv_draw_blend.c:519:22
	strb.w	r0, [sp, #55]
.Ltmp167:
	.loc	7 520 21                        @ lvgl/src/lv_draw/lv_draw_blend.c:520:21
	ldr	r0, [sp, #152]
	.loc	7 520 32 is_stmt 0              @ lvgl/src/lv_draw/lv_draw_blend.c:520:32
	ldrsh.w	r0, [r0, #2]
	.loc	7 520 19                        @ lvgl/src/lv_draw/lv_draw_blend.c:520:19
	str	r0, [sp, #124]
	.loc	7 520 17                        @ lvgl/src/lv_draw/lv_draw_blend.c:520:17
	b	.LBB3_75
.LBB3_75:                               @ =>This Loop Header: Depth=1
                                        @     Child Loop BB3_77 Depth 2
.Ltmp168:
	.loc	7 520 36                        @ lvgl/src/lv_draw/lv_draw_blend.c:520:36
	ldr	r0, [sp, #124]
	.loc	7 520 41                        @ lvgl/src/lv_draw/lv_draw_blend.c:520:41
	ldr	r1, [sp, #152]
	.loc	7 520 52                        @ lvgl/src/lv_draw/lv_draw_blend.c:520:52
	ldrsh.w	r1, [r1, #6]
.Ltmp169:
	.loc	7 520 13                        @ lvgl/src/lv_draw/lv_draw_blend.c:520:13
	cmp	r0, r1
	bgt	.LBB3_95
	b	.LBB3_76
.LBB3_76:                               @   in Loop: Header=BB3_75 Depth=1
.Ltmp170:
	.loc	7 521 47 is_stmt 1              @ lvgl/src/lv_draw/lv_draw_blend.c:521:47
	ldr	r0, [sp, #180]
	.loc	7 521 34 is_stmt 0              @ lvgl/src/lv_draw/lv_draw_blend.c:521:34
	str	r0, [sp, #48]
	movs	r0, #0
.Ltmp171:
	.loc	7 522 23 is_stmt 1              @ lvgl/src/lv_draw/lv_draw_blend.c:522:23
	str	r0, [sp, #128]
	.loc	7 522 21 is_stmt 0              @ lvgl/src/lv_draw/lv_draw_blend.c:522:21
	b	.LBB3_77
.LBB3_77:                               @   Parent Loop BB3_75 Depth=1
                                        @ =>  This Inner Loop Header: Depth=2
.Ltmp172:
	.loc	7 522 28                        @ lvgl/src/lv_draw/lv_draw_blend.c:522:28
	ldr	r0, [sp, #128]
	.loc	7 522 32                        @ lvgl/src/lv_draw/lv_draw_blend.c:522:32
	ldr	r1, [sp, #140]
.Ltmp173:
	.loc	7 522 17                        @ lvgl/src/lv_draw/lv_draw_blend.c:522:17
	cmp	r0, r1
	bge	.LBB3_93
	b	.LBB3_78
.LBB3_78:                               @   in Loop: Header=BB3_77 Depth=2
.Ltmp174:
	.loc	7 523 25 is_stmt 1              @ lvgl/src/lv_draw/lv_draw_blend.c:523:25
	ldr	r0, [sp, #48]
	.loc	7 523 24 is_stmt 0              @ lvgl/src/lv_draw/lv_draw_blend.c:523:24
	ldrb	r0, [r0]
.Ltmp175:
	.loc	7 523 24                        @ lvgl/src/lv_draw/lv_draw_blend.c:523:24
	cmp	r0, #0
	beq	.LBB3_91
	b	.LBB3_79
.LBB3_79:                               @   in Loop: Header=BB3_77 Depth=2
.Ltmp176:
	.loc	7 524 29 is_stmt 1              @ lvgl/src/lv_draw/lv_draw_blend.c:524:29
	ldr	r0, [sp, #48]
	.loc	7 524 28 is_stmt 0              @ lvgl/src/lv_draw/lv_draw_blend.c:524:28
	ldrb	r0, [r0]
	.loc	7 524 43                        @ lvgl/src/lv_draw/lv_draw_blend.c:524:43
	ldrb.w	r1, [sp, #95]
.Ltmp177:
	.loc	7 524 28                        @ lvgl/src/lv_draw/lv_draw_blend.c:524:28
	cmp	r0, r1
	beq	.LBB3_84
	b	.LBB3_80
.LBB3_80:                               @   in Loop: Header=BB3_77 Depth=2
.Ltmp178:
	.loc	7 524 65                        @ lvgl/src/lv_draw/lv_draw_blend.c:524:65
	ldr	r0, [sp, #48]
	.loc	7 524 64                        @ lvgl/src/lv_draw/lv_draw_blend.c:524:64
	ldrb	r0, [r0]
	cmp	r0, #255
	bne	.LBB3_82
	b	.LBB3_81
.LBB3_81:                               @   in Loop: Header=BB3_77 Depth=2
	.loc	7 524 94                        @ lvgl/src/lv_draw/lv_draw_blend.c:524:94
	ldrb.w	r0, [sp, #151]
	.loc	7 524 64                        @ lvgl/src/lv_draw/lv_draw_blend.c:524:64
	str	r0, [sp]                        @ 4-byte Spill
	b	.LBB3_83
.LBB3_82:                               @   in Loop: Header=BB3_77 Depth=2
	.loc	7 525 91 is_stmt 1              @ lvgl/src/lv_draw/lv_draw_blend.c:525:91
	ldr	r0, [sp, #48]
	.loc	7 525 90 is_stmt 0              @ lvgl/src/lv_draw/lv_draw_blend.c:525:90
	ldrb	r0, [r0]
	.loc	7 525 105                       @ lvgl/src/lv_draw/lv_draw_blend.c:525:105
	ldrb.w	r1, [sp, #151]
	.loc	7 525 103                       @ lvgl/src/lv_draw/lv_draw_blend.c:525:103
	muls	r0, r1, r0
	.loc	7 525 110                       @ lvgl/src/lv_draw/lv_draw_blend.c:525:110
	lsrs	r0, r0, #8
	.loc	7 524 64 is_stmt 1              @ lvgl/src/lv_draw/lv_draw_blend.c:524:64
	str	r0, [sp]                        @ 4-byte Spill
	b	.LBB3_83
.LBB3_83:                               @   in Loop: Header=BB3_77 Depth=2
	ldr	r0, [sp]                        @ 4-byte Reload
	.loc	7 524 62 is_stmt 0              @ lvgl/src/lv_draw/lv_draw_blend.c:524:62
	strb.w	r0, [sp, #55]
	.loc	7 524 54                        @ lvgl/src/lv_draw/lv_draw_blend.c:524:54
	b	.LBB3_84
.Ltmp179:
.LBB3_84:                               @   in Loop: Header=BB3_77 Depth=2
	.loc	7 526 29 is_stmt 1              @ lvgl/src/lv_draw/lv_draw_blend.c:526:29
	ldr	r0, [sp, #48]
	.loc	7 526 28 is_stmt 0              @ lvgl/src/lv_draw/lv_draw_blend.c:526:28
	ldrb	r0, [r0]
	.loc	7 526 43                        @ lvgl/src/lv_draw/lv_draw_blend.c:526:43
	ldrb.w	r1, [sp, #95]
	.loc	7 526 53                        @ lvgl/src/lv_draw/lv_draw_blend.c:526:53
	cmp	r0, r1
	bne	.LBB3_86
	b	.LBB3_85
.LBB3_85:                               @   in Loop: Header=BB3_77 Depth=2
	.loc	7 526 72                        @ lvgl/src/lv_draw/lv_draw_blend.c:526:72
	ldr	r0, [sp, #100]
	.loc	7 526 80                        @ lvgl/src/lv_draw/lv_draw_blend.c:526:80
	ldr	r1, [sp, #132]
	.loc	7 526 95                        @ lvgl/src/lv_draw/lv_draw_blend.c:526:95
	ldr	r2, [sp, #128]
	.loc	7 526 98                        @ lvgl/src/lv_draw/lv_draw_blend.c:526:98
	ldr.w	r1, [r1, r2, lsl #2]
.Ltmp180:
	.loc	7 526 28                        @ lvgl/src/lv_draw/lv_draw_blend.c:526:28
	cmp	r0, r1
	beq	.LBB3_90
	b	.LBB3_86
.LBB3_86:                               @   in Loop: Header=BB3_77 Depth=2
.Ltmp181:
	.loc	7 535 36 is_stmt 1              @ lvgl/src/lv_draw/lv_draw_blend.c:535:36
	ldrb.w	r0, [sp, #55]
.Ltmp182:
	.loc	7 535 36 is_stmt 0              @ lvgl/src/lv_draw/lv_draw_blend.c:535:36
	cmp	r0, #255
	bne	.LBB3_88
	b	.LBB3_87
.LBB3_87:                               @   in Loop: Header=BB3_77 Depth=2
.Ltmp183:
	.loc	7 535 78                        @ lvgl/src/lv_draw/lv_draw_blend.c:535:78
	ldr	r0, [sp, #164]
	str	r0, [sp, #96]
	.loc	7 535 61                        @ lvgl/src/lv_draw/lv_draw_blend.c:535:61
	b	.LBB3_89
.LBB3_88:                               @   in Loop: Header=BB3_77 Depth=2
	.loc	7 536 75 is_stmt 1              @ lvgl/src/lv_draw/lv_draw_blend.c:536:75
	ldr	r1, [sp, #132]
	.loc	7 536 90 is_stmt 0              @ lvgl/src/lv_draw/lv_draw_blend.c:536:90
	ldr	r3, [sp, #128]
	.loc	7 536 94                        @ lvgl/src/lv_draw/lv_draw_blend.c:536:94
	ldrb.w	r2, [sp, #55]
	.loc	7 536 55                        @ lvgl/src/lv_draw/lv_draw_blend.c:536:55
	ldr	r0, [sp, #164]
	ldr.w	r1, [r1, r3, lsl #2]
	bl	lv_color_mix
	str	r0, [sp, #44]
	ldr	r0, [sp, #44]
	str	r0, [sp, #96]
	b	.LBB3_89
.Ltmp184:
.LBB3_89:                               @   in Loop: Header=BB3_77 Depth=2
	.loc	7 538 42 is_stmt 1              @ lvgl/src/lv_draw/lv_draw_blend.c:538:42
	ldr	r0, [sp, #48]
	.loc	7 538 41 is_stmt 0              @ lvgl/src/lv_draw/lv_draw_blend.c:538:41
	ldrb	r0, [r0]
	.loc	7 538 39                        @ lvgl/src/lv_draw/lv_draw_blend.c:538:39
	strb.w	r0, [sp, #95]
	.loc	7 539 52 is_stmt 1              @ lvgl/src/lv_draw/lv_draw_blend.c:539:52
	ldr	r0, [sp, #132]
	.loc	7 539 67 is_stmt 0              @ lvgl/src/lv_draw/lv_draw_blend.c:539:67
	ldr	r1, [sp, #128]
	.loc	7 539 70                        @ lvgl/src/lv_draw/lv_draw_blend.c:539:70
	ldr.w	r0, [r0, r1, lsl #2]
	.loc	7 539 50                        @ lvgl/src/lv_draw/lv_draw_blend.c:539:50
	str	r0, [sp, #100]
	.loc	7 540 25 is_stmt 1              @ lvgl/src/lv_draw/lv_draw_blend.c:540:25
	b	.LBB3_90
.Ltmp185:
.LBB3_90:                               @   in Loop: Header=BB3_77 Depth=2
	.loc	7 541 25                        @ lvgl/src/lv_draw/lv_draw_blend.c:541:25
	ldr	r1, [sp, #132]
	.loc	7 541 40 is_stmt 0              @ lvgl/src/lv_draw/lv_draw_blend.c:541:40
	ldr	r2, [sp, #128]
	.loc	7 541 45                        @ lvgl/src/lv_draw/lv_draw_blend.c:541:45
	ldr	r0, [sp, #96]
	str.w	r0, [r1, r2, lsl #2]
	.loc	7 542 21 is_stmt 1              @ lvgl/src/lv_draw/lv_draw_blend.c:542:21
	b	.LBB3_91
.Ltmp186:
.LBB3_91:                               @   in Loop: Header=BB3_77 Depth=2
	.loc	7 543 31                        @ lvgl/src/lv_draw/lv_draw_blend.c:543:31
	ldr	r0, [sp, #48]
	adds	r0, #1
	str	r0, [sp, #48]
	.loc	7 544 17                        @ lvgl/src/lv_draw/lv_draw_blend.c:544:17
	b	.LBB3_92
.Ltmp187:
.LBB3_92:                               @   in Loop: Header=BB3_77 Depth=2
	.loc	7 522 46                        @ lvgl/src/lv_draw/lv_draw_blend.c:522:46
	ldr	r0, [sp, #128]
	adds	r0, #1
	str	r0, [sp, #128]
	.loc	7 522 17 is_stmt 0              @ lvgl/src/lv_draw/lv_draw_blend.c:522:17
	b	.LBB3_77
.Ltmp188:
.LBB3_93:                               @   in Loop: Header=BB3_75 Depth=1
	.loc	7 545 35 is_stmt 1              @ lvgl/src/lv_draw/lv_draw_blend.c:545:35
	ldr	r1, [sp, #144]
	.loc	7 545 32 is_stmt 0              @ lvgl/src/lv_draw/lv_draw_blend.c:545:32
	ldr	r0, [sp, #132]
	add.w	r0, r0, r1, lsl #2
	str	r0, [sp, #132]
	.loc	7 546 25 is_stmt 1              @ lvgl/src/lv_draw/lv_draw_blend.c:546:25
	ldr	r1, [sp, #140]
	.loc	7 546 22 is_stmt 0              @ lvgl/src/lv_draw/lv_draw_blend.c:546:22
	ldr	r0, [sp, #180]
	add	r0, r1
	str	r0, [sp, #180]
	.loc	7 547 13 is_stmt 1              @ lvgl/src/lv_draw/lv_draw_blend.c:547:13
	b	.LBB3_94
.Ltmp189:
.LBB3_94:                               @   in Loop: Header=BB3_75 Depth=1
	.loc	7 520 57                        @ lvgl/src/lv_draw/lv_draw_blend.c:520:57
	ldr	r0, [sp, #124]
	adds	r0, #1
	str	r0, [sp, #124]
	.loc	7 520 13 is_stmt 0              @ lvgl/src/lv_draw/lv_draw_blend.c:520:13
	b	.LBB3_75
.Ltmp190:
.LBB3_95:
	.loc	7 0 13                          @ lvgl/src/lv_draw/lv_draw_blend.c:0:13
	b	.LBB3_96
.LBB3_96:
	b	.LBB3_97
.LBB3_97:
	.loc	7 550 1 is_stmt 1               @ lvgl/src/lv_draw/lv_draw_blend.c:550:1
	add	sp, #168
	pop	{r7, pc}
.Ltmp191:
.Lfunc_end3:
	.size	fill_normal, .Lfunc_end3-fill_normal
	.cfi_endproc
	.cantunwind
	.fnend
                                        @ -- End function
	.section	.text.fill_blended,"ax",%progbits
	.p2align	3                               @ -- Begin function fill_blended
	.type	fill_blended,%function
	.code	16                              @ @fill_blended
	.thumb_func
fill_blended:
.Lfunc_begin4:
	.loc	7 570 0                         @ lvgl/src/lv_draw/lv_draw_blend.c:570:0
	.fnstart
	.cfi_startproc
@ %bb.0:
	.save	{r4, lr}
	push	{r4, lr}
	.cfi_def_cfa_offset 8
	.cfi_offset lr, -4
	.cfi_offset r4, -8
	.pad	#88
	sub	sp, #88
	.cfi_def_cfa_offset 96
	mov	r4, r3
	mov	r3, r2
	mov	r12, r1
	mov	lr, r0
	ldr	r0, [sp, #108]
	ldr	r1, [sp, #104]
	ldr	r2, [sp, #100]
	ldr	r2, [sp, #96]
	str	r4, [sp, #84]
	str.w	lr, [sp, #80]
	str.w	r12, [sp, #76]
	str	r3, [sp, #72]
	strb.w	r2, [sp, #71]
	strb.w	r1, [sp, #70]
	strb.w	r0, [sp, #69]
.Ltmp192:
	.loc	7 572 40 prologue_end           @ lvgl/src/lv_draw/lv_draw_blend.c:572:40
	ldr	r0, [sp, #80]
	.loc	7 572 22 is_stmt 0              @ lvgl/src/lv_draw/lv_draw_blend.c:572:22
	bl	lv_area_get_width
	.loc	7 572 13                        @ lvgl/src/lv_draw/lv_draw_blend.c:572:13
	str	r0, [sp, #64]
	.loc	7 575 33 is_stmt 1              @ lvgl/src/lv_draw/lv_draw_blend.c:575:33
	ldr	r0, [sp, #76]
	.loc	7 575 44 is_stmt 0              @ lvgl/src/lv_draw/lv_draw_blend.c:575:44
	ldr	r1, [sp, #64]
	.loc	7 575 53                        @ lvgl/src/lv_draw/lv_draw_blend.c:575:53
	ldr	r2, [sp, #72]
	.loc	7 575 64                        @ lvgl/src/lv_draw/lv_draw_blend.c:575:64
	ldrsh.w	r2, [r2, #2]
	.loc	7 575 51                        @ lvgl/src/lv_draw/lv_draw_blend.c:575:51
	muls	r1, r2, r1
	.loc	7 575 42                        @ lvgl/src/lv_draw/lv_draw_blend.c:575:42
	add.w	r0, r0, r1, lsl #2
	.loc	7 575 18                        @ lvgl/src/lv_draw/lv_draw_blend.c:575:18
	str	r0, [sp, #60]
	.loc	7 578 12 is_stmt 1              @ lvgl/src/lv_draw/lv_draw_blend.c:578:12
	ldrb.w	r0, [sp, #69]
	.loc	7 578 5 is_stmt 0               @ lvgl/src/lv_draw/lv_draw_blend.c:578:5
	mov	r1, r0
	str	r1, [sp, #8]                    @ 4-byte Spill
	cmp	r0, #1
	beq	.LBB4_2
	b	.LBB4_1
.LBB4_1:
	ldr	r0, [sp, #8]                    @ 4-byte Reload
	cmp	r0, #2
	beq	.LBB4_3
	b	.LBB4_4
.LBB4_2:
.Ltmp193:
	.loc	7 580 22 is_stmt 1              @ lvgl/src/lv_draw/lv_draw_blend.c:580:22
	movw	r0, :lower16:color_blend_true_color_additive
	movt	r0, :upper16:color_blend_true_color_additive
	str	r0, [sp, #56]
	.loc	7 581 13                        @ lvgl/src/lv_draw/lv_draw_blend.c:581:13
	b	.LBB4_5
.LBB4_3:
	.loc	7 583 22                        @ lvgl/src/lv_draw/lv_draw_blend.c:583:22
	movw	r0, :lower16:color_blend_true_color_subtractive
	movt	r0, :upper16:color_blend_true_color_subtractive
	str	r0, [sp, #56]
	.loc	7 584 13                        @ lvgl/src/lv_draw/lv_draw_blend.c:584:13
	b	.LBB4_5
.LBB4_4:
	.loc	7 587 13                        @ lvgl/src/lv_draw/lv_draw_blend.c:587:13
	b	.LBB4_34
.Ltmp194:
.LBB4_5:
	.loc	7 594 8                         @ lvgl/src/lv_draw/lv_draw_blend.c:594:8
	ldrb.w	r0, [sp, #70]
.Ltmp195:
	.loc	7 594 8 is_stmt 0               @ lvgl/src/lv_draw/lv_draw_blend.c:594:8
	cmp	r0, #1
	bne	.LBB4_17
	b	.LBB4_6
.LBB4_6:
.Ltmp196:
	.loc	7 595 20 is_stmt 1              @ lvgl/src/lv_draw/lv_draw_blend.c:595:20
	movw	r0, :lower16:.L__const.fill_blended.last_dest_color
	movt	r0, :upper16:.L__const.fill_blended.last_dest_color
	ldr	r0, [r0]
	str	r0, [sp, #44]
	.loc	7 596 74                        @ lvgl/src/lv_draw/lv_draw_blend.c:596:74
	ldrb.w	r2, [sp, #71]
	.loc	7 596 37 is_stmt 0              @ lvgl/src/lv_draw/lv_draw_blend.c:596:37
	ldr	r0, [sp, #84]
	ldr	r1, [sp, #44]
	bl	lv_color_mix
	str	r0, [sp, #40]
.Ltmp197:
	.loc	7 597 17 is_stmt 1              @ lvgl/src/lv_draw/lv_draw_blend.c:597:17
	ldr	r0, [sp, #72]
	.loc	7 597 28 is_stmt 0              @ lvgl/src/lv_draw/lv_draw_blend.c:597:28
	ldrsh.w	r0, [r0, #2]
	.loc	7 597 15                        @ lvgl/src/lv_draw/lv_draw_blend.c:597:15
	str	r0, [sp, #48]
	.loc	7 597 13                        @ lvgl/src/lv_draw/lv_draw_blend.c:597:13
	b	.LBB4_7
.LBB4_7:                                @ =>This Loop Header: Depth=1
                                        @     Child Loop BB4_9 Depth 2
.Ltmp198:
	.loc	7 597 32                        @ lvgl/src/lv_draw/lv_draw_blend.c:597:32
	ldr	r0, [sp, #48]
	.loc	7 597 37                        @ lvgl/src/lv_draw/lv_draw_blend.c:597:37
	ldr	r1, [sp, #72]
	.loc	7 597 48                        @ lvgl/src/lv_draw/lv_draw_blend.c:597:48
	ldrsh.w	r1, [r1, #6]
.Ltmp199:
	.loc	7 597 9                         @ lvgl/src/lv_draw/lv_draw_blend.c:597:9
	cmp	r0, r1
	bgt	.LBB4_16
	b	.LBB4_8
.LBB4_8:                                @   in Loop: Header=BB4_7 Depth=1
.Ltmp200:
	.loc	7 598 21 is_stmt 1              @ lvgl/src/lv_draw/lv_draw_blend.c:598:21
	ldr	r0, [sp, #72]
	.loc	7 598 32 is_stmt 0              @ lvgl/src/lv_draw/lv_draw_blend.c:598:32
	ldrsh.w	r0, [r0]
	.loc	7 598 19                        @ lvgl/src/lv_draw/lv_draw_blend.c:598:19
	str	r0, [sp, #52]
	.loc	7 598 17                        @ lvgl/src/lv_draw/lv_draw_blend.c:598:17
	b	.LBB4_9
.LBB4_9:                                @   Parent Loop BB4_7 Depth=1
                                        @ =>  This Inner Loop Header: Depth=2
.Ltmp201:
	.loc	7 598 36                        @ lvgl/src/lv_draw/lv_draw_blend.c:598:36
	ldr	r0, [sp, #52]
	.loc	7 598 41                        @ lvgl/src/lv_draw/lv_draw_blend.c:598:41
	ldr	r1, [sp, #72]
	.loc	7 598 52                        @ lvgl/src/lv_draw/lv_draw_blend.c:598:52
	ldrsh.w	r1, [r1, #4]
.Ltmp202:
	.loc	7 598 13                        @ lvgl/src/lv_draw/lv_draw_blend.c:598:13
	cmp	r0, r1
	bgt	.LBB4_14
	b	.LBB4_10
.LBB4_10:                               @   in Loop: Header=BB4_9 Depth=2
.Ltmp203:
	.loc	7 599 36 is_stmt 1              @ lvgl/src/lv_draw/lv_draw_blend.c:599:36
	ldr	r0, [sp, #44]
	.loc	7 599 44 is_stmt 0              @ lvgl/src/lv_draw/lv_draw_blend.c:599:44
	ldr	r1, [sp, #60]
	.loc	7 599 57                        @ lvgl/src/lv_draw/lv_draw_blend.c:599:57
	ldr	r2, [sp, #52]
	.loc	7 599 60                        @ lvgl/src/lv_draw/lv_draw_blend.c:599:60
	ldr.w	r1, [r1, r2, lsl #2]
.Ltmp204:
	.loc	7 599 20                        @ lvgl/src/lv_draw/lv_draw_blend.c:599:20
	cmp	r0, r1
	beq	.LBB4_12
	b	.LBB4_11
.LBB4_11:                               @   in Loop: Header=BB4_9 Depth=2
.Ltmp205:
	.loc	7 600 39 is_stmt 1              @ lvgl/src/lv_draw/lv_draw_blend.c:600:39
	ldr	r0, [sp, #60]
	.loc	7 600 52 is_stmt 0              @ lvgl/src/lv_draw/lv_draw_blend.c:600:52
	ldr	r1, [sp, #52]
	.loc	7 600 39                        @ lvgl/src/lv_draw/lv_draw_blend.c:600:39
	ldr.w	r0, [r0, r1, lsl #2]
	str	r0, [sp, #44]
	.loc	7 601 38 is_stmt 1              @ lvgl/src/lv_draw/lv_draw_blend.c:601:38
	ldr	r3, [sp, #56]
	.loc	7 601 54 is_stmt 0              @ lvgl/src/lv_draw/lv_draw_blend.c:601:54
	ldr	r1, [sp, #60]
	.loc	7 601 67                        @ lvgl/src/lv_draw/lv_draw_blend.c:601:67
	ldr.w	r12, [sp, #52]
	.loc	7 601 71                        @ lvgl/src/lv_draw/lv_draw_blend.c:601:71
	ldrb.w	r2, [sp, #71]
	.loc	7 601 38                        @ lvgl/src/lv_draw/lv_draw_blend.c:601:38
	ldr	r0, [sp, #84]
	ldr.w	r1, [r1, r12, lsl #2]
	blx	r3
	str	r0, [sp, #36]
	ldr	r0, [sp, #36]
	str	r0, [sp, #40]
	.loc	7 602 17 is_stmt 1              @ lvgl/src/lv_draw/lv_draw_blend.c:602:17
	b	.LBB4_12
.Ltmp206:
.LBB4_12:                               @   in Loop: Header=BB4_9 Depth=2
	.loc	7 603 17                        @ lvgl/src/lv_draw/lv_draw_blend.c:603:17
	ldr	r1, [sp, #60]
	.loc	7 603 30 is_stmt 0              @ lvgl/src/lv_draw/lv_draw_blend.c:603:30
	ldr	r2, [sp, #52]
	.loc	7 603 35                        @ lvgl/src/lv_draw/lv_draw_blend.c:603:35
	ldr	r0, [sp, #40]
	str.w	r0, [r1, r2, lsl #2]
	.loc	7 604 13 is_stmt 1              @ lvgl/src/lv_draw/lv_draw_blend.c:604:13
	b	.LBB4_13
.Ltmp207:
.LBB4_13:                               @   in Loop: Header=BB4_9 Depth=2
	.loc	7 598 57                        @ lvgl/src/lv_draw/lv_draw_blend.c:598:57
	ldr	r0, [sp, #52]
	adds	r0, #1
	str	r0, [sp, #52]
	.loc	7 598 13 is_stmt 0              @ lvgl/src/lv_draw/lv_draw_blend.c:598:13
	b	.LBB4_9
.Ltmp208:
.LBB4_14:                               @   in Loop: Header=BB4_7 Depth=1
	.loc	7 605 29 is_stmt 1              @ lvgl/src/lv_draw/lv_draw_blend.c:605:29
	ldr	r1, [sp, #64]
	.loc	7 605 26 is_stmt 0              @ lvgl/src/lv_draw/lv_draw_blend.c:605:26
	ldr	r0, [sp, #60]
	add.w	r0, r0, r1, lsl #2
	str	r0, [sp, #60]
	.loc	7 606 9 is_stmt 1               @ lvgl/src/lv_draw/lv_draw_blend.c:606:9
	b	.LBB4_15
.Ltmp209:
.LBB4_15:                               @   in Loop: Header=BB4_7 Depth=1
	.loc	7 597 53                        @ lvgl/src/lv_draw/lv_draw_blend.c:597:53
	ldr	r0, [sp, #48]
	adds	r0, #1
	str	r0, [sp, #48]
	.loc	7 597 9 is_stmt 0               @ lvgl/src/lv_draw/lv_draw_blend.c:597:9
	b	.LBB4_7
.Ltmp210:
.LBB4_16:
	.loc	7 607 5 is_stmt 1               @ lvgl/src/lv_draw/lv_draw_blend.c:607:5
	b	.LBB4_34
.Ltmp211:
.LBB4_17:
	.loc	7 611 49                        @ lvgl/src/lv_draw/lv_draw_blend.c:611:49
	ldr	r0, [sp, #72]
	.loc	7 611 31 is_stmt 0              @ lvgl/src/lv_draw/lv_draw_blend.c:611:31
	bl	lv_area_get_width
	.loc	7 611 17                        @ lvgl/src/lv_draw/lv_draw_blend.c:611:17
	str	r0, [sp, #32]
	.loc	7 616 37 is_stmt 1              @ lvgl/src/lv_draw/lv_draw_blend.c:616:37
	ldr	r0, [sp, #100]
	.loc	7 616 44 is_stmt 0              @ lvgl/src/lv_draw/lv_draw_blend.c:616:44
	ldr	r1, [sp, #72]
	.loc	7 616 55                        @ lvgl/src/lv_draw/lv_draw_blend.c:616:55
	ldrsh.w	r1, [r1]
	.loc	7 616 42                        @ lvgl/src/lv_draw/lv_draw_blend.c:616:42
	subs	r0, r0, r1
	.loc	7 616 26                        @ lvgl/src/lv_draw/lv_draw_blend.c:616:26
	str	r0, [sp, #28]
	movs	r0, #0
	.loc	7 621 18 is_stmt 1              @ lvgl/src/lv_draw/lv_draw_blend.c:621:18
	strb.w	r0, [sp, #19]
	.loc	7 622 32                        @ lvgl/src/lv_draw/lv_draw_blend.c:622:32
	ldr	r0, [sp, #60]
	.loc	7 622 48 is_stmt 0              @ lvgl/src/lv_draw/lv_draw_blend.c:622:48
	ldr	r0, [r0]
	.loc	7 622 30                        @ lvgl/src/lv_draw/lv_draw_blend.c:622:30
	str	r0, [sp, #24]
	.loc	7 623 31 is_stmt 1              @ lvgl/src/lv_draw/lv_draw_blend.c:623:31
	ldr	r0, [sp, #60]
	.loc	7 623 47 is_stmt 0              @ lvgl/src/lv_draw/lv_draw_blend.c:623:47
	ldr	r0, [r0]
	.loc	7 623 29                        @ lvgl/src/lv_draw/lv_draw_blend.c:623:29
	str	r0, [sp, #20]
.Ltmp212:
	.loc	7 625 17 is_stmt 1              @ lvgl/src/lv_draw/lv_draw_blend.c:625:17
	ldr	r0, [sp, #72]
	.loc	7 625 28 is_stmt 0              @ lvgl/src/lv_draw/lv_draw_blend.c:625:28
	ldrsh.w	r0, [r0, #2]
	.loc	7 625 15                        @ lvgl/src/lv_draw/lv_draw_blend.c:625:15
	str	r0, [sp, #48]
	.loc	7 625 13                        @ lvgl/src/lv_draw/lv_draw_blend.c:625:13
	b	.LBB4_18
.LBB4_18:                               @ =>This Loop Header: Depth=1
                                        @     Child Loop BB4_20 Depth 2
.Ltmp213:
	.loc	7 625 32                        @ lvgl/src/lv_draw/lv_draw_blend.c:625:32
	ldr	r0, [sp, #48]
	.loc	7 625 37                        @ lvgl/src/lv_draw/lv_draw_blend.c:625:37
	ldr	r1, [sp, #72]
	.loc	7 625 48                        @ lvgl/src/lv_draw/lv_draw_blend.c:625:48
	ldrsh.w	r1, [r1, #6]
.Ltmp214:
	.loc	7 625 9                         @ lvgl/src/lv_draw/lv_draw_blend.c:625:9
	cmp	r0, r1
	bgt	.LBB4_33
	b	.LBB4_19
.LBB4_19:                               @   in Loop: Header=BB4_18 Depth=1
.Ltmp215:
	.loc	7 626 21 is_stmt 1              @ lvgl/src/lv_draw/lv_draw_blend.c:626:21
	ldr	r0, [sp, #72]
	.loc	7 626 32 is_stmt 0              @ lvgl/src/lv_draw/lv_draw_blend.c:626:32
	ldrsh.w	r0, [r0]
	.loc	7 626 19                        @ lvgl/src/lv_draw/lv_draw_blend.c:626:19
	str	r0, [sp, #52]
	.loc	7 626 17                        @ lvgl/src/lv_draw/lv_draw_blend.c:626:17
	b	.LBB4_20
.LBB4_20:                               @   Parent Loop BB4_18 Depth=1
                                        @ =>  This Inner Loop Header: Depth=2
.Ltmp216:
	.loc	7 626 36                        @ lvgl/src/lv_draw/lv_draw_blend.c:626:36
	ldr	r0, [sp, #52]
	.loc	7 626 41                        @ lvgl/src/lv_draw/lv_draw_blend.c:626:41
	ldr	r1, [sp, #72]
	.loc	7 626 52                        @ lvgl/src/lv_draw/lv_draw_blend.c:626:52
	ldrsh.w	r1, [r1, #4]
.Ltmp217:
	.loc	7 626 13                        @ lvgl/src/lv_draw/lv_draw_blend.c:626:13
	cmp	r0, r1
	bgt	.LBB4_31
	b	.LBB4_21
.LBB4_21:                               @   in Loop: Header=BB4_20 Depth=2
.Ltmp218:
	.loc	7 627 20 is_stmt 1              @ lvgl/src/lv_draw/lv_draw_blend.c:627:20
	ldr	r0, [sp, #28]
	.loc	7 627 29 is_stmt 0              @ lvgl/src/lv_draw/lv_draw_blend.c:627:29
	ldr	r1, [sp, #52]
	.loc	7 627 20                        @ lvgl/src/lv_draw/lv_draw_blend.c:627:20
	ldrb	r0, [r0, r1]
.Ltmp219:
	.loc	7 627 20                        @ lvgl/src/lv_draw/lv_draw_blend.c:627:20
	cbnz	r0, .LBB4_23
	b	.LBB4_22
.LBB4_22:                               @   in Loop: Header=BB4_20 Depth=2
.Ltmp220:
	.loc	7 627 38                        @ lvgl/src/lv_draw/lv_draw_blend.c:627:38
	b	.LBB4_30
.Ltmp221:
.LBB4_23:                               @   in Loop: Header=BB4_20 Depth=2
	.loc	7 628 20 is_stmt 1              @ lvgl/src/lv_draw/lv_draw_blend.c:628:20
	ldr	r0, [sp, #28]
	.loc	7 628 29 is_stmt 0              @ lvgl/src/lv_draw/lv_draw_blend.c:628:29
	ldr	r1, [sp, #52]
	.loc	7 628 20                        @ lvgl/src/lv_draw/lv_draw_blend.c:628:20
	ldrb	r0, [r0, r1]
	.loc	7 628 35                        @ lvgl/src/lv_draw/lv_draw_blend.c:628:35
	ldrb.w	r1, [sp, #19]
	.loc	7 628 45                        @ lvgl/src/lv_draw/lv_draw_blend.c:628:45
	cmp	r0, r1
	bne	.LBB4_25
	b	.LBB4_24
.LBB4_24:                               @   in Loop: Header=BB4_20 Depth=2
	.loc	7 628 64                        @ lvgl/src/lv_draw/lv_draw_blend.c:628:64
	ldr	r0, [sp, #24]
	.loc	7 628 72                        @ lvgl/src/lv_draw/lv_draw_blend.c:628:72
	ldr	r1, [sp, #60]
	.loc	7 628 85                        @ lvgl/src/lv_draw/lv_draw_blend.c:628:85
	ldr	r2, [sp, #52]
	.loc	7 628 88                        @ lvgl/src/lv_draw/lv_draw_blend.c:628:88
	ldr.w	r1, [r1, r2, lsl #2]
.Ltmp222:
	.loc	7 628 20                        @ lvgl/src/lv_draw/lv_draw_blend.c:628:20
	cmp	r0, r1
	beq	.LBB4_29
	b	.LBB4_25
.LBB4_25:                               @   in Loop: Header=BB4_20 Depth=2
.Ltmp223:
	.loc	7 629 40 is_stmt 1              @ lvgl/src/lv_draw/lv_draw_blend.c:629:40
	ldr	r0, [sp, #28]
	.loc	7 629 49 is_stmt 0              @ lvgl/src/lv_draw/lv_draw_blend.c:629:49
	ldr	r1, [sp, #52]
	.loc	7 629 40                        @ lvgl/src/lv_draw/lv_draw_blend.c:629:40
	ldrb	r0, [r0, r1]
	cmp	r0, #253
	blt	.LBB4_27
	b	.LBB4_26
.LBB4_26:                               @   in Loop: Header=BB4_20 Depth=2
	.loc	7 629 68                        @ lvgl/src/lv_draw/lv_draw_blend.c:629:68
	ldrb.w	r0, [sp, #71]
	.loc	7 629 40                        @ lvgl/src/lv_draw/lv_draw_blend.c:629:40
	str	r0, [sp, #4]                    @ 4-byte Spill
	b	.LBB4_28
.LBB4_27:                               @   in Loop: Header=BB4_20 Depth=2
	.loc	7 629 95                        @ lvgl/src/lv_draw/lv_draw_blend.c:629:95
	ldr	r0, [sp, #28]
	.loc	7 629 104                       @ lvgl/src/lv_draw/lv_draw_blend.c:629:104
	ldr	r1, [sp, #52]
	.loc	7 629 95                        @ lvgl/src/lv_draw/lv_draw_blend.c:629:95
	ldrb	r0, [r0, r1]
	.loc	7 629 109                       @ lvgl/src/lv_draw/lv_draw_blend.c:629:109
	ldrb.w	r1, [sp, #71]
	.loc	7 629 107                       @ lvgl/src/lv_draw/lv_draw_blend.c:629:107
	muls	r0, r1, r0
	.loc	7 629 114                       @ lvgl/src/lv_draw/lv_draw_blend.c:629:114
	lsrs	r0, r0, #8
	.loc	7 629 40                        @ lvgl/src/lv_draw/lv_draw_blend.c:629:40
	str	r0, [sp, #4]                    @ 4-byte Spill
	b	.LBB4_28
.LBB4_28:                               @   in Loop: Header=BB4_20 Depth=2
	ldr	r0, [sp, #4]                    @ 4-byte Reload
	.loc	7 629 30                        @ lvgl/src/lv_draw/lv_draw_blend.c:629:30
	strb.w	r0, [sp, #18]
	.loc	7 631 38 is_stmt 1              @ lvgl/src/lv_draw/lv_draw_blend.c:631:38
	ldr	r3, [sp, #56]
	.loc	7 631 54 is_stmt 0              @ lvgl/src/lv_draw/lv_draw_blend.c:631:54
	ldr	r1, [sp, #60]
	.loc	7 631 67                        @ lvgl/src/lv_draw/lv_draw_blend.c:631:67
	ldr.w	r12, [sp, #52]
	.loc	7 631 71                        @ lvgl/src/lv_draw/lv_draw_blend.c:631:71
	ldrb.w	r2, [sp, #18]
	.loc	7 631 38                        @ lvgl/src/lv_draw/lv_draw_blend.c:631:38
	ldr	r0, [sp, #84]
	ldr.w	r1, [r1, r12, lsl #2]
	blx	r3
	str	r0, [sp, #12]
	ldr	r0, [sp, #12]
	str	r0, [sp, #20]
	.loc	7 632 33 is_stmt 1              @ lvgl/src/lv_draw/lv_draw_blend.c:632:33
	ldr	r0, [sp, #28]
	.loc	7 632 42 is_stmt 0              @ lvgl/src/lv_draw/lv_draw_blend.c:632:42
	ldr	r1, [sp, #52]
	.loc	7 632 33                        @ lvgl/src/lv_draw/lv_draw_blend.c:632:33
	ldrb	r0, [r0, r1]
	.loc	7 632 31                        @ lvgl/src/lv_draw/lv_draw_blend.c:632:31
	strb.w	r0, [sp, #19]
	.loc	7 633 44 is_stmt 1              @ lvgl/src/lv_draw/lv_draw_blend.c:633:44
	ldr	r0, [sp, #60]
	.loc	7 633 57 is_stmt 0              @ lvgl/src/lv_draw/lv_draw_blend.c:633:57
	ldr	r1, [sp, #52]
	.loc	7 633 60                        @ lvgl/src/lv_draw/lv_draw_blend.c:633:60
	ldr.w	r0, [r0, r1, lsl #2]
	.loc	7 633 42                        @ lvgl/src/lv_draw/lv_draw_blend.c:633:42
	str	r0, [sp, #24]
	.loc	7 634 17 is_stmt 1              @ lvgl/src/lv_draw/lv_draw_blend.c:634:17
	b	.LBB4_29
.Ltmp224:
.LBB4_29:                               @   in Loop: Header=BB4_20 Depth=2
	.loc	7 635 17                        @ lvgl/src/lv_draw/lv_draw_blend.c:635:17
	ldr	r1, [sp, #60]
	.loc	7 635 30 is_stmt 0              @ lvgl/src/lv_draw/lv_draw_blend.c:635:30
	ldr	r2, [sp, #52]
	.loc	7 635 35                        @ lvgl/src/lv_draw/lv_draw_blend.c:635:35
	ldr	r0, [sp, #20]
	str.w	r0, [r1, r2, lsl #2]
	.loc	7 636 13 is_stmt 1              @ lvgl/src/lv_draw/lv_draw_blend.c:636:13
	b	.LBB4_30
.Ltmp225:
.LBB4_30:                               @   in Loop: Header=BB4_20 Depth=2
	.loc	7 626 57                        @ lvgl/src/lv_draw/lv_draw_blend.c:626:57
	ldr	r0, [sp, #52]
	adds	r0, #1
	str	r0, [sp, #52]
	.loc	7 626 13 is_stmt 0              @ lvgl/src/lv_draw/lv_draw_blend.c:626:13
	b	.LBB4_20
.Ltmp226:
.LBB4_31:                               @   in Loop: Header=BB4_18 Depth=1
	.loc	7 637 29 is_stmt 1              @ lvgl/src/lv_draw/lv_draw_blend.c:637:29
	ldr	r1, [sp, #64]
	.loc	7 637 26 is_stmt 0              @ lvgl/src/lv_draw/lv_draw_blend.c:637:26
	ldr	r0, [sp, #60]
	add.w	r0, r0, r1, lsl #2
	str	r0, [sp, #60]
	.loc	7 638 25 is_stmt 1              @ lvgl/src/lv_draw/lv_draw_blend.c:638:25
	ldr	r1, [sp, #32]
	.loc	7 638 22 is_stmt 0              @ lvgl/src/lv_draw/lv_draw_blend.c:638:22
	ldr	r0, [sp, #28]
	add	r0, r1
	str	r0, [sp, #28]
	.loc	7 639 9 is_stmt 1               @ lvgl/src/lv_draw/lv_draw_blend.c:639:9
	b	.LBB4_32
.Ltmp227:
.LBB4_32:                               @   in Loop: Header=BB4_18 Depth=1
	.loc	7 625 53                        @ lvgl/src/lv_draw/lv_draw_blend.c:625:53
	ldr	r0, [sp, #48]
	adds	r0, #1
	str	r0, [sp, #48]
	.loc	7 625 9 is_stmt 0               @ lvgl/src/lv_draw/lv_draw_blend.c:625:9
	b	.LBB4_18
.Ltmp228:
.LBB4_33:
	.loc	7 0 9                           @ lvgl/src/lv_draw/lv_draw_blend.c:0:9
	b	.LBB4_34
.LBB4_34:
	.loc	7 641 1 is_stmt 1               @ lvgl/src/lv_draw/lv_draw_blend.c:641:1
	add	sp, #88
	pop	{r4, pc}
.Ltmp229:
.Lfunc_end4:
	.size	fill_blended, .Lfunc_end4-fill_blended
	.cfi_endproc
	.cantunwind
	.fnend
                                        @ -- End function
	.section	.text._lv_blend_map,"ax",%progbits
	.hidden	_lv_blend_map                   @ -- Begin function _lv_blend_map
	.globl	_lv_blend_map
	.p2align	3
	.type	_lv_blend_map,%function
	.code	16                              @ @_lv_blend_map
	.thumb_func
_lv_blend_map:
.Lfunc_begin5:
	.loc	7 201 0                         @ lvgl/src/lv_draw/lv_draw_blend.c:201:0
	.fnstart
	.cfi_startproc
@ %bb.0:
	.save	{r4, r5, r6, lr}
	push	{r4, r5, r6, lr}
	.cfi_def_cfa_offset 16
	.cfi_offset lr, -4
	.cfi_offset r6, -8
	.cfi_offset r5, -12
	.cfi_offset r4, -16
	.pad	#80
	sub	sp, #80
	.cfi_def_cfa_offset 96
	mov	r12, r2
	mov	lr, r1
	mov	r4, r0
	ldr	r0, [sp, #104]
	ldr	r1, [sp, #100]
	ldr	r2, [sp, #96]
	str	r4, [sp, #76]
	str.w	lr, [sp, #72]
	str.w	r12, [sp, #68]
	str	r3, [sp, #64]
	strb.w	r2, [sp, #63]
	strb.w	r1, [sp, #62]
	strb.w	r0, [sp, #61]
.Ltmp230:
	.loc	7 203 8 prologue_end            @ lvgl/src/lv_draw/lv_draw_blend.c:203:8
	ldrb.w	r0, [sp, #62]
.Ltmp231:
	.loc	7 203 8 is_stmt 0               @ lvgl/src/lv_draw/lv_draw_blend.c:203:8
	cmp	r0, #1
	bgt	.LBB5_2
	b	.LBB5_1
.LBB5_1:
.Ltmp232:
	.loc	7 203 26                        @ lvgl/src/lv_draw/lv_draw_blend.c:203:26
	b	.LBB5_21
.Ltmp233:
.LBB5_2:
	.loc	7 204 8 is_stmt 1               @ lvgl/src/lv_draw/lv_draw_blend.c:204:8
	ldrb.w	r0, [sp, #63]
.Ltmp234:
	.loc	7 204 8 is_stmt 0               @ lvgl/src/lv_draw/lv_draw_blend.c:204:8
	cbnz	r0, .LBB5_4
	b	.LBB5_3
.LBB5_3:
.Ltmp235:
	.loc	7 204 45                        @ lvgl/src/lv_draw/lv_draw_blend.c:204:45
	b	.LBB5_21
.Ltmp236:
.LBB5_4:
	.loc	7 210 48 is_stmt 1              @ lvgl/src/lv_draw/lv_draw_blend.c:210:48
	ldr	r1, [sp, #76]
	.loc	7 210 59 is_stmt 0              @ lvgl/src/lv_draw/lv_draw_blend.c:210:59
	ldr	r2, [sp, #72]
	add	r0, sp, #52
	.loc	7 210 17                        @ lvgl/src/lv_draw/lv_draw_blend.c:210:17
	bl	_lv_area_intersect
	.loc	7 210 15                        @ lvgl/src/lv_draw/lv_draw_blend.c:210:15
	strb.w	r0, [sp, #51]
.Ltmp237:
	.loc	7 211 9 is_stmt 1               @ lvgl/src/lv_draw/lv_draw_blend.c:211:9
	ldrb.w	r0, [sp, #51]
.Ltmp238:
	.loc	7 211 8 is_stmt 0               @ lvgl/src/lv_draw/lv_draw_blend.c:211:8
	lsls	r0, r0, #31
	cbnz	r0, .LBB5_6
	b	.LBB5_5
.LBB5_5:
.Ltmp239:
	.loc	7 211 20                        @ lvgl/src/lv_draw/lv_draw_blend.c:211:20
	b	.LBB5_21
.Ltmp240:
.LBB5_6:
	.loc	7 213 24 is_stmt 1              @ lvgl/src/lv_draw/lv_draw_blend.c:213:24
	bl	_lv_refr_get_disp_refreshing
	.loc	7 213 17 is_stmt 0              @ lvgl/src/lv_draw/lv_draw_blend.c:213:17
	str	r0, [sp, #44]
	.loc	7 214 43 is_stmt 1              @ lvgl/src/lv_draw/lv_draw_blend.c:214:43
	ldr	r0, [sp, #44]
	.loc	7 214 27 is_stmt 0              @ lvgl/src/lv_draw/lv_draw_blend.c:214:27
	bl	lv_disp_get_buf
	.loc	7 214 21                        @ lvgl/src/lv_draw/lv_draw_blend.c:214:21
	str	r0, [sp, #40]
	.loc	7 215 36 is_stmt 1              @ lvgl/src/lv_draw/lv_draw_blend.c:215:36
	ldr	r0, [sp, #40]
	.loc	7 215 41 is_stmt 0              @ lvgl/src/lv_draw/lv_draw_blend.c:215:41
	adds	r0, #16
	.loc	7 215 23                        @ lvgl/src/lv_draw/lv_draw_blend.c:215:23
	str	r0, [sp, #36]
	.loc	7 216 29 is_stmt 1              @ lvgl/src/lv_draw/lv_draw_blend.c:216:29
	ldr	r0, [sp, #40]
	.loc	7 216 34 is_stmt 0              @ lvgl/src/lv_draw/lv_draw_blend.c:216:34
	ldr	r0, [r0, #8]
	.loc	7 216 18                        @ lvgl/src/lv_draw/lv_draw_blend.c:216:18
	str	r0, [sp, #32]
.Ltmp241:
	.loc	7 218 8 is_stmt 1               @ lvgl/src/lv_draw/lv_draw_blend.c:218:8
	ldr	r0, [sp, #44]
	.loc	7 218 21 is_stmt 0              @ lvgl/src/lv_draw/lv_draw_blend.c:218:21
	ldr	r0, [r0, #36]
.Ltmp242:
	.loc	7 218 8                         @ lvgl/src/lv_draw/lv_draw_blend.c:218:8
	cbz	r0, .LBB5_8
	b	.LBB5_7
.LBB5_7:
.Ltmp243:
	.loc	7 218 34                        @ lvgl/src/lv_draw/lv_draw_blend.c:218:34
	ldr	r0, [sp, #44]
	.loc	7 218 47                        @ lvgl/src/lv_draw/lv_draw_blend.c:218:47
	ldr	r1, [r0, #36]
	.loc	7 218 34                        @ lvgl/src/lv_draw/lv_draw_blend.c:218:34
	blx	r1
	b	.LBB5_8
.Ltmp244:
.LBB5_8:
	.loc	7 222 21 is_stmt 1              @ lvgl/src/lv_draw/lv_draw_blend.c:222:21
	ldr	r0, [sp, #36]
	ldrh	r1, [r0]
	.loc	7 222 18 is_stmt 0              @ lvgl/src/lv_draw/lv_draw_blend.c:222:18
	ldrh.w	r0, [sp, #52]
	subs	r0, r0, r1
	strh.w	r0, [sp, #52]
	.loc	7 223 21 is_stmt 1              @ lvgl/src/lv_draw/lv_draw_blend.c:223:21
	ldr	r0, [sp, #36]
	ldrh	r1, [r0, #2]
	.loc	7 223 18 is_stmt 0              @ lvgl/src/lv_draw/lv_draw_blend.c:223:18
	ldrh.w	r0, [sp, #54]
	subs	r0, r0, r1
	strh.w	r0, [sp, #54]
	.loc	7 224 21 is_stmt 1              @ lvgl/src/lv_draw/lv_draw_blend.c:224:21
	ldr	r0, [sp, #36]
	ldrh	r1, [r0]
	.loc	7 224 18 is_stmt 0              @ lvgl/src/lv_draw/lv_draw_blend.c:224:18
	ldrh.w	r0, [sp, #56]
	subs	r0, r0, r1
	strh.w	r0, [sp, #56]
	.loc	7 225 21 is_stmt 1              @ lvgl/src/lv_draw/lv_draw_blend.c:225:21
	ldr	r0, [sp, #36]
	ldrh	r1, [r0, #2]
	.loc	7 225 18 is_stmt 0              @ lvgl/src/lv_draw/lv_draw_blend.c:225:18
	ldrh.w	r0, [sp, #58]
	subs	r0, r0, r1
	strh.w	r0, [sp, #58]
.Ltmp245:
	.loc	7 229 8 is_stmt 1               @ lvgl/src/lv_draw/lv_draw_blend.c:229:8
	ldr	r0, [sp, #64]
	.loc	7 229 13 is_stmt 0              @ lvgl/src/lv_draw/lv_draw_blend.c:229:13
	cbz	r0, .LBB5_15
	b	.LBB5_9
.LBB5_9:
	.loc	7 229 16                        @ lvgl/src/lv_draw/lv_draw_blend.c:229:16
	ldr	r0, [sp, #44]
.Ltmp246:
	.loc	7 229 8                         @ lvgl/src/lv_draw/lv_draw_blend.c:229:8
	ldrb	r0, [r0, #8]
	lsls	r0, r0, #31
	cbnz	r0, .LBB5_15
	b	.LBB5_10
.LBB5_10:
	.loc	7 0 8                           @ lvgl/src/lv_draw/lv_draw_blend.c:0:8
	add	r0, sp, #52
.Ltmp247:
	.loc	7 234 26 is_stmt 1              @ lvgl/src/lv_draw/lv_draw_blend.c:234:26
	bl	lv_area_get_width
	.loc	7 234 17 is_stmt 0              @ lvgl/src/lv_draw/lv_draw_blend.c:234:17
	str	r0, [sp, #28]
	movs	r0, #0
.Ltmp248:
	.loc	7 236 15 is_stmt 1              @ lvgl/src/lv_draw/lv_draw_blend.c:236:15
	str	r0, [sp, #24]
	.loc	7 236 13 is_stmt 0              @ lvgl/src/lv_draw/lv_draw_blend.c:236:13
	b	.LBB5_11
.LBB5_11:                               @ =>This Inner Loop Header: Depth=1
.Ltmp249:
	.loc	7 236 20                        @ lvgl/src/lv_draw/lv_draw_blend.c:236:20
	ldr	r0, [sp, #24]
	.loc	7 236 24                        @ lvgl/src/lv_draw/lv_draw_blend.c:236:24
	ldr	r1, [sp, #28]
.Ltmp250:
	.loc	7 236 9                         @ lvgl/src/lv_draw/lv_draw_blend.c:236:9
	cmp	r0, r1
	bge	.LBB5_14
	b	.LBB5_12
.LBB5_12:                               @   in Loop: Header=BB5_11 Depth=1
.Ltmp251:
	.loc	7 236 48                        @ lvgl/src/lv_draw/lv_draw_blend.c:236:48
	ldr	r1, [sp, #64]
	.loc	7 236 53                        @ lvgl/src/lv_draw/lv_draw_blend.c:236:53
	ldr	r2, [sp, #24]
	.loc	7 236 48                        @ lvgl/src/lv_draw/lv_draw_blend.c:236:48
	ldrb	r3, [r1, r2]
	movs	r0, #0
	cmp	r3, #128
	it	gt
	movgt	r0, #255
	.loc	7 236 46                        @ lvgl/src/lv_draw/lv_draw_blend.c:236:46
	strb	r0, [r1, r2]
	.loc	7 236 38                        @ lvgl/src/lv_draw/lv_draw_blend.c:236:38
	b	.LBB5_13
.LBB5_13:                               @   in Loop: Header=BB5_11 Depth=1
	.loc	7 236 33                        @ lvgl/src/lv_draw/lv_draw_blend.c:236:33
	ldr	r0, [sp, #24]
	adds	r0, #1
	str	r0, [sp, #24]
	.loc	7 236 9                         @ lvgl/src/lv_draw/lv_draw_blend.c:236:9
	b	.LBB5_11
.Ltmp252:
.LBB5_14:
	.loc	7 237 5 is_stmt 1               @ lvgl/src/lv_draw/lv_draw_blend.c:237:5
	b	.LBB5_15
.Ltmp253:
.LBB5_15:
	.loc	7 238 8                         @ lvgl/src/lv_draw/lv_draw_blend.c:238:8
	ldr	r0, [sp, #44]
	.loc	7 238 21 is_stmt 0              @ lvgl/src/lv_draw/lv_draw_blend.c:238:21
	ldr	r0, [r0, #20]
.Ltmp254:
	.loc	7 238 8                         @ lvgl/src/lv_draw/lv_draw_blend.c:238:8
	cbz	r0, .LBB5_17
	b	.LBB5_16
.LBB5_16:
.Ltmp255:
	.loc	7 239 20 is_stmt 1              @ lvgl/src/lv_draw/lv_draw_blend.c:239:20
	ldr	r0, [sp, #36]
	.loc	7 239 31 is_stmt 0              @ lvgl/src/lv_draw/lv_draw_blend.c:239:31
	ldr	r1, [sp, #32]
	.loc	7 239 53                        @ lvgl/src/lv_draw/lv_draw_blend.c:239:53
	ldr	r3, [sp, #72]
	.loc	7 239 63                        @ lvgl/src/lv_draw/lv_draw_blend.c:239:63
	ldr	r2, [sp, #68]
	.loc	7 239 72                        @ lvgl/src/lv_draw/lv_draw_blend.c:239:72
	ldrb.w	lr, [sp, #62]
	.loc	7 239 77                        @ lvgl/src/lv_draw/lv_draw_blend.c:239:77
	ldr	r4, [sp, #64]
	.loc	7 239 83                        @ lvgl/src/lv_draw/lv_draw_blend.c:239:83
	ldrb.w	r5, [sp, #63]
	.loc	7 239 9                         @ lvgl/src/lv_draw/lv_draw_blend.c:239:9
	mov	r12, sp
	str.w	r5, [r12, #12]
	str.w	r4, [r12, #8]
	str.w	lr, [r12, #4]
	str.w	r2, [r12]
	add	r2, sp, #52
	bl	map_set_px
	.loc	7 240 5 is_stmt 1               @ lvgl/src/lv_draw/lv_draw_blend.c:240:5
	b	.LBB5_21
.Ltmp256:
.LBB5_17:
	.loc	7 241 13                        @ lvgl/src/lv_draw/lv_draw_blend.c:241:13
	ldrb.w	r0, [sp, #61]
.Ltmp257:
	.loc	7 241 13 is_stmt 0              @ lvgl/src/lv_draw/lv_draw_blend.c:241:13
	cbnz	r0, .LBB5_19
	b	.LBB5_18
.LBB5_18:
.Ltmp258:
	.loc	7 242 20 is_stmt 1              @ lvgl/src/lv_draw/lv_draw_blend.c:242:20
	ldr	r0, [sp, #36]
	.loc	7 242 31 is_stmt 0              @ lvgl/src/lv_draw/lv_draw_blend.c:242:31
	ldr	r1, [sp, #32]
	.loc	7 242 53                        @ lvgl/src/lv_draw/lv_draw_blend.c:242:53
	ldr	r3, [sp, #72]
	.loc	7 242 63                        @ lvgl/src/lv_draw/lv_draw_blend.c:242:63
	ldr	r2, [sp, #68]
	.loc	7 242 72                        @ lvgl/src/lv_draw/lv_draw_blend.c:242:72
	ldrb.w	lr, [sp, #62]
	.loc	7 242 77                        @ lvgl/src/lv_draw/lv_draw_blend.c:242:77
	ldr	r4, [sp, #64]
	.loc	7 242 83                        @ lvgl/src/lv_draw/lv_draw_blend.c:242:83
	ldrb.w	r5, [sp, #63]
	.loc	7 242 9                         @ lvgl/src/lv_draw/lv_draw_blend.c:242:9
	mov	r12, sp
	str.w	r5, [r12, #12]
	str.w	r4, [r12, #8]
	str.w	lr, [r12, #4]
	str.w	r2, [r12]
	add	r2, sp, #52
	bl	map_normal
	.loc	7 243 5 is_stmt 1               @ lvgl/src/lv_draw/lv_draw_blend.c:243:5
	b	.LBB5_20
.Ltmp259:
.LBB5_19:
	.loc	7 246 21                        @ lvgl/src/lv_draw/lv_draw_blend.c:246:21
	ldr	r0, [sp, #36]
	.loc	7 246 32 is_stmt 0              @ lvgl/src/lv_draw/lv_draw_blend.c:246:32
	ldr	r1, [sp, #32]
	.loc	7 246 54                        @ lvgl/src/lv_draw/lv_draw_blend.c:246:54
	ldr	r3, [sp, #72]
	.loc	7 246 64                        @ lvgl/src/lv_draw/lv_draw_blend.c:246:64
	ldr	r2, [sp, #68]
	.loc	7 246 73                        @ lvgl/src/lv_draw/lv_draw_blend.c:246:73
	ldrb.w	lr, [sp, #62]
	.loc	7 246 78                        @ lvgl/src/lv_draw/lv_draw_blend.c:246:78
	ldr	r4, [sp, #64]
	.loc	7 246 84                        @ lvgl/src/lv_draw/lv_draw_blend.c:246:84
	ldrb.w	r5, [sp, #63]
	.loc	7 246 94                        @ lvgl/src/lv_draw/lv_draw_blend.c:246:94
	ldrb.w	r6, [sp, #61]
	.loc	7 246 9                         @ lvgl/src/lv_draw/lv_draw_blend.c:246:9
	mov	r12, sp
	str.w	r6, [r12, #16]
	str.w	r5, [r12, #12]
	str.w	r4, [r12, #8]
	str.w	lr, [r12, #4]
	str.w	r2, [r12]
	add	r2, sp, #52
	bl	map_blended
	b	.LBB5_20
.Ltmp260:
.LBB5_20:
	.loc	7 0 9                           @ lvgl/src/lv_draw/lv_draw_blend.c:0:9
	b	.LBB5_21
.LBB5_21:
	.loc	7 249 1 is_stmt 1               @ lvgl/src/lv_draw/lv_draw_blend.c:249:1
	add	sp, #80
	pop	{r4, r5, r6, pc}
.Ltmp261:
.Lfunc_end5:
	.size	_lv_blend_map, .Lfunc_end5-_lv_blend_map
	.cfi_endproc
	.cantunwind
	.fnend
                                        @ -- End function
	.section	.text.map_set_px,"ax",%progbits
	.p2align	3                               @ -- Begin function map_set_px
	.type	map_set_px,%function
	.code	16                              @ @map_set_px
	.thumb_func
map_set_px:
.Lfunc_begin6:
	.loc	7 648 0                         @ lvgl/src/lv_draw/lv_draw_blend.c:648:0
	.fnstart
	.cfi_startproc
@ %bb.0:
	.save	{r4, r5, r6, lr}
	push	{r4, r5, r6, lr}
	.cfi_def_cfa_offset 16
	.cfi_offset lr, -4
	.cfi_offset r6, -8
	.cfi_offset r5, -12
	.cfi_offset r4, -16
	.pad	#64
	sub	sp, #64
	.cfi_def_cfa_offset 80
	mov	r12, r1
	mov	lr, r0
	ldr	r0, [sp, #92]
	ldr	r1, [sp, #88]
	ldr	r1, [sp, #84]
	ldr	r4, [sp, #80]
	str.w	lr, [sp, #60]
	str.w	r12, [sp, #56]
	str	r2, [sp, #52]
	str	r3, [sp, #48]
	strb.w	r1, [sp, #47]
	strb.w	r0, [sp, #46]
.Ltmp262:
	.loc	7 649 24 prologue_end           @ lvgl/src/lv_draw/lv_draw_blend.c:649:24
	bl	_lv_refr_get_disp_refreshing
	.loc	7 649 17 is_stmt 0              @ lvgl/src/lv_draw/lv_draw_blend.c:649:17
	str	r0, [sp, #40]
	.loc	7 652 40 is_stmt 1              @ lvgl/src/lv_draw/lv_draw_blend.c:652:40
	ldr	r0, [sp, #60]
	.loc	7 652 22 is_stmt 0              @ lvgl/src/lv_draw/lv_draw_blend.c:652:22
	bl	lv_area_get_width
	.loc	7 652 13                        @ lvgl/src/lv_draw/lv_draw_blend.c:652:13
	str	r0, [sp, #36]
	.loc	7 655 45 is_stmt 1              @ lvgl/src/lv_draw/lv_draw_blend.c:655:45
	ldr	r0, [sp, #52]
	.loc	7 655 27 is_stmt 0              @ lvgl/src/lv_draw/lv_draw_blend.c:655:27
	bl	lv_area_get_width
	.loc	7 655 13                        @ lvgl/src/lv_draw/lv_draw_blend.c:655:13
	str	r0, [sp, #32]
	.loc	7 658 39 is_stmt 1              @ lvgl/src/lv_draw/lv_draw_blend.c:658:39
	ldr	r0, [sp, #48]
	.loc	7 658 21 is_stmt 0              @ lvgl/src/lv_draw/lv_draw_blend.c:658:21
	bl	lv_area_get_width
	.loc	7 658 13                        @ lvgl/src/lv_draw/lv_draw_blend.c:658:13
	str	r0, [sp, #28]
	.loc	7 661 38 is_stmt 1              @ lvgl/src/lv_draw/lv_draw_blend.c:661:38
	ldr	r0, [sp, #80]
	.loc	7 661 48 is_stmt 0              @ lvgl/src/lv_draw/lv_draw_blend.c:661:48
	ldr	r1, [sp, #28]
	.loc	7 661 57                        @ lvgl/src/lv_draw/lv_draw_blend.c:661:57
	ldr	r2, [sp, #52]
	.loc	7 661 68                        @ lvgl/src/lv_draw/lv_draw_blend.c:661:68
	ldrsh.w	r2, [r2, #2]
	.loc	7 661 74                        @ lvgl/src/lv_draw/lv_draw_blend.c:661:74
	ldr	r3, [sp, #48]
	.loc	7 661 84                        @ lvgl/src/lv_draw/lv_draw_blend.c:661:84
	ldrsh.w	r12, [r3, #2]
	.loc	7 661 89                        @ lvgl/src/lv_draw/lv_draw_blend.c:661:89
	ldr	r3, [sp, #60]
	.loc	7 661 100                       @ lvgl/src/lv_draw/lv_draw_blend.c:661:100
	ldrsh.w	r3, [r3, #2]
	.loc	7 661 71                        @ lvgl/src/lv_draw/lv_draw_blend.c:661:71
	sub.w	r3, r3, r12
	add	r2, r3
	.loc	7 661 54                        @ lvgl/src/lv_draw/lv_draw_blend.c:661:54
	muls	r1, r2, r1
	.loc	7 661 46                        @ lvgl/src/lv_draw/lv_draw_blend.c:661:46
	add.w	r0, r0, r1, lsl #2
	.loc	7 661 24                        @ lvgl/src/lv_draw/lv_draw_blend.c:661:24
	str	r0, [sp, #24]
	.loc	7 663 21 is_stmt 1              @ lvgl/src/lv_draw/lv_draw_blend.c:663:21
	ldr	r0, [sp, #52]
	.loc	7 663 32 is_stmt 0              @ lvgl/src/lv_draw/lv_draw_blend.c:663:32
	ldrsh.w	r0, [r0]
	.loc	7 663 38                        @ lvgl/src/lv_draw/lv_draw_blend.c:663:38
	ldr	r1, [sp, #48]
	.loc	7 663 48                        @ lvgl/src/lv_draw/lv_draw_blend.c:663:48
	ldrsh.w	r2, [r1]
	.loc	7 663 53                        @ lvgl/src/lv_draw/lv_draw_blend.c:663:53
	ldr	r1, [sp, #60]
	.loc	7 663 64                        @ lvgl/src/lv_draw/lv_draw_blend.c:663:64
	ldrsh.w	r1, [r1]
	.loc	7 663 35                        @ lvgl/src/lv_draw/lv_draw_blend.c:663:35
	subs	r1, r1, r2
	add	r1, r0
	.loc	7 663 17                        @ lvgl/src/lv_draw/lv_draw_blend.c:663:17
	ldr	r0, [sp, #24]
	add.w	r0, r0, r1, lsl #2
	str	r0, [sp, #24]
	.loc	7 664 20 is_stmt 1              @ lvgl/src/lv_draw/lv_draw_blend.c:664:20
	ldr	r0, [sp, #52]
	.loc	7 664 31 is_stmt 0              @ lvgl/src/lv_draw/lv_draw_blend.c:664:31
	ldrsh.w	r1, [r0]
	.loc	7 664 17                        @ lvgl/src/lv_draw/lv_draw_blend.c:664:17
	ldr	r0, [sp, #24]
	sub.w	r0, r0, r1, lsl #2
	str	r0, [sp, #24]
.Ltmp263:
	.loc	7 668 8 is_stmt 1               @ lvgl/src/lv_draw/lv_draw_blend.c:668:8
	ldrb.w	r0, [sp, #46]
.Ltmp264:
	.loc	7 668 8 is_stmt 0               @ lvgl/src/lv_draw/lv_draw_blend.c:668:8
	cmp	r0, #1
	bne	.LBB6_10
	b	.LBB6_1
.LBB6_1:
.Ltmp265:
	.loc	7 669 17 is_stmt 1              @ lvgl/src/lv_draw/lv_draw_blend.c:669:17
	ldr	r0, [sp, #52]
	.loc	7 669 28 is_stmt 0              @ lvgl/src/lv_draw/lv_draw_blend.c:669:28
	ldrsh.w	r0, [r0, #2]
	.loc	7 669 15                        @ lvgl/src/lv_draw/lv_draw_blend.c:669:15
	str	r0, [sp, #16]
	.loc	7 669 13                        @ lvgl/src/lv_draw/lv_draw_blend.c:669:13
	b	.LBB6_2
.LBB6_2:                                @ =>This Loop Header: Depth=1
                                        @     Child Loop BB6_4 Depth 2
.Ltmp266:
	.loc	7 669 32                        @ lvgl/src/lv_draw/lv_draw_blend.c:669:32
	ldr	r0, [sp, #16]
	.loc	7 669 37                        @ lvgl/src/lv_draw/lv_draw_blend.c:669:37
	ldr	r1, [sp, #52]
	.loc	7 669 48                        @ lvgl/src/lv_draw/lv_draw_blend.c:669:48
	ldrsh.w	r1, [r1, #6]
.Ltmp267:
	.loc	7 669 9                         @ lvgl/src/lv_draw/lv_draw_blend.c:669:9
	cmp	r0, r1
	bgt	.LBB6_9
	b	.LBB6_3
.LBB6_3:                                @   in Loop: Header=BB6_2 Depth=1
.Ltmp268:
	.loc	7 670 21 is_stmt 1              @ lvgl/src/lv_draw/lv_draw_blend.c:670:21
	ldr	r0, [sp, #52]
	.loc	7 670 32 is_stmt 0              @ lvgl/src/lv_draw/lv_draw_blend.c:670:32
	ldrsh.w	r0, [r0]
	.loc	7 670 19                        @ lvgl/src/lv_draw/lv_draw_blend.c:670:19
	str	r0, [sp, #20]
	.loc	7 670 17                        @ lvgl/src/lv_draw/lv_draw_blend.c:670:17
	b	.LBB6_4
.LBB6_4:                                @   Parent Loop BB6_2 Depth=1
                                        @ =>  This Inner Loop Header: Depth=2
.Ltmp269:
	.loc	7 670 36                        @ lvgl/src/lv_draw/lv_draw_blend.c:670:36
	ldr	r0, [sp, #20]
	.loc	7 670 41                        @ lvgl/src/lv_draw/lv_draw_blend.c:670:41
	ldr	r1, [sp, #52]
	.loc	7 670 52                        @ lvgl/src/lv_draw/lv_draw_blend.c:670:52
	ldrsh.w	r1, [r1, #4]
.Ltmp270:
	.loc	7 670 13                        @ lvgl/src/lv_draw/lv_draw_blend.c:670:13
	cmp	r0, r1
	bgt	.LBB6_7
	b	.LBB6_5
.LBB6_5:                                @   in Loop: Header=BB6_4 Depth=2
.Ltmp271:
	.loc	7 671 17 is_stmt 1              @ lvgl/src/lv_draw/lv_draw_blend.c:671:17
	ldr	r0, [sp, #40]
	.loc	7 671 30 is_stmt 0              @ lvgl/src/lv_draw/lv_draw_blend.c:671:30
	ldr.w	r12, [r0, #20]
	.loc	7 671 63                        @ lvgl/src/lv_draw/lv_draw_blend.c:671:63
	ldr	r1, [sp, #56]
	.loc	7 671 73                        @ lvgl/src/lv_draw/lv_draw_blend.c:671:73
	ldrsh.w	r2, [sp, #36]
	.loc	7 671 81                        @ lvgl/src/lv_draw/lv_draw_blend.c:671:81
	ldr	r3, [sp, #20]
	.loc	7 671 84                        @ lvgl/src/lv_draw/lv_draw_blend.c:671:84
	ldrsh.w	lr, [sp, #16]
	.loc	7 671 87                        @ lvgl/src/lv_draw/lv_draw_blend.c:671:87
	ldr	r4, [sp, #24]
	.loc	7 671 103                       @ lvgl/src/lv_draw/lv_draw_blend.c:671:103
	ldrb.w	r6, [sp, #47]
	.loc	7 671 17                        @ lvgl/src/lv_draw/lv_draw_blend.c:671:17
	ldr.w	r5, [r4, r3, lsl #2]
	mov	r4, sp
	str	r6, [r4, #8]
	str	r5, [r4, #4]
	str.w	lr, [r4]
	sxth	r3, r3
	blx	r12
	.loc	7 672 13 is_stmt 1              @ lvgl/src/lv_draw/lv_draw_blend.c:672:13
	b	.LBB6_6
.Ltmp272:
.LBB6_6:                                @   in Loop: Header=BB6_4 Depth=2
	.loc	7 670 57                        @ lvgl/src/lv_draw/lv_draw_blend.c:670:57
	ldr	r0, [sp, #20]
	adds	r0, #1
	str	r0, [sp, #20]
	.loc	7 670 13 is_stmt 0              @ lvgl/src/lv_draw/lv_draw_blend.c:670:13
	b	.LBB6_4
.Ltmp273:
.LBB6_7:                                @   in Loop: Header=BB6_2 Depth=1
	.loc	7 673 28 is_stmt 1              @ lvgl/src/lv_draw/lv_draw_blend.c:673:28
	ldr	r1, [sp, #28]
	.loc	7 673 25 is_stmt 0              @ lvgl/src/lv_draw/lv_draw_blend.c:673:25
	ldr	r0, [sp, #24]
	add.w	r0, r0, r1, lsl #2
	str	r0, [sp, #24]
	.loc	7 674 9 is_stmt 1               @ lvgl/src/lv_draw/lv_draw_blend.c:674:9
	b	.LBB6_8
.Ltmp274:
.LBB6_8:                                @   in Loop: Header=BB6_2 Depth=1
	.loc	7 669 53                        @ lvgl/src/lv_draw/lv_draw_blend.c:669:53
	ldr	r0, [sp, #16]
	adds	r0, #1
	str	r0, [sp, #16]
	.loc	7 669 9 is_stmt 0               @ lvgl/src/lv_draw/lv_draw_blend.c:669:9
	b	.LBB6_2
.Ltmp275:
.LBB6_9:
	.loc	7 675 5 is_stmt 1               @ lvgl/src/lv_draw/lv_draw_blend.c:675:5
	b	.LBB6_21
.Ltmp276:
.LBB6_10:
	.loc	7 680 37                        @ lvgl/src/lv_draw/lv_draw_blend.c:680:37
	ldr	r0, [sp, #88]
	.loc	7 680 44 is_stmt 0              @ lvgl/src/lv_draw/lv_draw_blend.c:680:44
	ldr	r1, [sp, #52]
	.loc	7 680 55                        @ lvgl/src/lv_draw/lv_draw_blend.c:680:55
	ldrsh.w	r1, [r1]
	.loc	7 680 42                        @ lvgl/src/lv_draw/lv_draw_blend.c:680:42
	subs	r0, r0, r1
	.loc	7 680 26                        @ lvgl/src/lv_draw/lv_draw_blend.c:680:26
	str	r0, [sp, #12]
.Ltmp277:
	.loc	7 682 17 is_stmt 1              @ lvgl/src/lv_draw/lv_draw_blend.c:682:17
	ldr	r0, [sp, #52]
	.loc	7 682 28 is_stmt 0              @ lvgl/src/lv_draw/lv_draw_blend.c:682:28
	ldrsh.w	r0, [r0, #2]
	.loc	7 682 15                        @ lvgl/src/lv_draw/lv_draw_blend.c:682:15
	str	r0, [sp, #16]
	.loc	7 682 13                        @ lvgl/src/lv_draw/lv_draw_blend.c:682:13
	b	.LBB6_11
.LBB6_11:                               @ =>This Loop Header: Depth=1
                                        @     Child Loop BB6_13 Depth 2
.Ltmp278:
	.loc	7 682 32                        @ lvgl/src/lv_draw/lv_draw_blend.c:682:32
	ldr	r0, [sp, #16]
	.loc	7 682 37                        @ lvgl/src/lv_draw/lv_draw_blend.c:682:37
	ldr	r1, [sp, #52]
	.loc	7 682 48                        @ lvgl/src/lv_draw/lv_draw_blend.c:682:48
	ldrsh.w	r1, [r1, #6]
.Ltmp279:
	.loc	7 682 9                         @ lvgl/src/lv_draw/lv_draw_blend.c:682:9
	cmp	r0, r1
	bgt	.LBB6_20
	b	.LBB6_12
.LBB6_12:                               @   in Loop: Header=BB6_11 Depth=1
.Ltmp280:
	.loc	7 683 21 is_stmt 1              @ lvgl/src/lv_draw/lv_draw_blend.c:683:21
	ldr	r0, [sp, #52]
	.loc	7 683 32 is_stmt 0              @ lvgl/src/lv_draw/lv_draw_blend.c:683:32
	ldrsh.w	r0, [r0]
	.loc	7 683 19                        @ lvgl/src/lv_draw/lv_draw_blend.c:683:19
	str	r0, [sp, #20]
	.loc	7 683 17                        @ lvgl/src/lv_draw/lv_draw_blend.c:683:17
	b	.LBB6_13
.LBB6_13:                               @   Parent Loop BB6_11 Depth=1
                                        @ =>  This Inner Loop Header: Depth=2
.Ltmp281:
	.loc	7 683 36                        @ lvgl/src/lv_draw/lv_draw_blend.c:683:36
	ldr	r0, [sp, #20]
	.loc	7 683 41                        @ lvgl/src/lv_draw/lv_draw_blend.c:683:41
	ldr	r1, [sp, #52]
	.loc	7 683 52                        @ lvgl/src/lv_draw/lv_draw_blend.c:683:52
	ldrsh.w	r1, [r1, #4]
.Ltmp282:
	.loc	7 683 13                        @ lvgl/src/lv_draw/lv_draw_blend.c:683:13
	cmp	r0, r1
	bgt	.LBB6_18
	b	.LBB6_14
.LBB6_14:                               @   in Loop: Header=BB6_13 Depth=2
.Ltmp283:
	.loc	7 684 20 is_stmt 1              @ lvgl/src/lv_draw/lv_draw_blend.c:684:20
	ldr	r0, [sp, #12]
	.loc	7 684 29 is_stmt 0              @ lvgl/src/lv_draw/lv_draw_blend.c:684:29
	ldr	r1, [sp, #20]
	.loc	7 684 20                        @ lvgl/src/lv_draw/lv_draw_blend.c:684:20
	ldrb	r0, [r0, r1]
.Ltmp284:
	.loc	7 684 20                        @ lvgl/src/lv_draw/lv_draw_blend.c:684:20
	cbz	r0, .LBB6_16
	b	.LBB6_15
.LBB6_15:                               @   in Loop: Header=BB6_13 Depth=2
.Ltmp285:
	.loc	7 685 21 is_stmt 1              @ lvgl/src/lv_draw/lv_draw_blend.c:685:21
	ldr	r0, [sp, #40]
	.loc	7 685 34 is_stmt 0              @ lvgl/src/lv_draw/lv_draw_blend.c:685:34
	ldr.w	r12, [r0, #20]
	.loc	7 685 67                        @ lvgl/src/lv_draw/lv_draw_blend.c:685:67
	ldr	r1, [sp, #56]
	.loc	7 685 77                        @ lvgl/src/lv_draw/lv_draw_blend.c:685:77
	ldrsh.w	r2, [sp, #36]
	.loc	7 685 85                        @ lvgl/src/lv_draw/lv_draw_blend.c:685:85
	ldr	r3, [sp, #20]
	.loc	7 685 88                        @ lvgl/src/lv_draw/lv_draw_blend.c:685:88
	ldrsh.w	lr, [sp, #16]
	.loc	7 685 91                        @ lvgl/src/lv_draw/lv_draw_blend.c:685:91
	ldr	r4, [sp, #24]
	.loc	7 686 65 is_stmt 1              @ lvgl/src/lv_draw/lv_draw_blend.c:686:65
	ldrb.w	r5, [sp, #47]
	.loc	7 686 71 is_stmt 0              @ lvgl/src/lv_draw/lv_draw_blend.c:686:71
	ldr	r6, [sp, #12]
	ldrb	r6, [r6, r3]
	.loc	7 686 69                        @ lvgl/src/lv_draw/lv_draw_blend.c:686:69
	muls	r5, r6, r5
	.loc	7 686 84                        @ lvgl/src/lv_draw/lv_draw_blend.c:686:84
	lsrs	r6, r5, #8
	.loc	7 685 21 is_stmt 1              @ lvgl/src/lv_draw/lv_draw_blend.c:685:21
	ldr.w	r5, [r4, r3, lsl #2]
	mov	r4, sp
	str	r6, [r4, #8]
	str	r5, [r4, #4]
	str.w	lr, [r4]
	sxth	r3, r3
	blx	r12
	.loc	7 687 17                        @ lvgl/src/lv_draw/lv_draw_blend.c:687:17
	b	.LBB6_16
.Ltmp286:
.LBB6_16:                               @   in Loop: Header=BB6_13 Depth=2
	.loc	7 688 13                        @ lvgl/src/lv_draw/lv_draw_blend.c:688:13
	b	.LBB6_17
.Ltmp287:
.LBB6_17:                               @   in Loop: Header=BB6_13 Depth=2
	.loc	7 683 57                        @ lvgl/src/lv_draw/lv_draw_blend.c:683:57
	ldr	r0, [sp, #20]
	adds	r0, #1
	str	r0, [sp, #20]
	.loc	7 683 13 is_stmt 0              @ lvgl/src/lv_draw/lv_draw_blend.c:683:13
	b	.LBB6_13
.Ltmp288:
.LBB6_18:                               @   in Loop: Header=BB6_11 Depth=1
	.loc	7 689 25 is_stmt 1              @ lvgl/src/lv_draw/lv_draw_blend.c:689:25
	ldr	r1, [sp, #32]
	.loc	7 689 22 is_stmt 0              @ lvgl/src/lv_draw/lv_draw_blend.c:689:22
	ldr	r0, [sp, #12]
	add	r0, r1
	str	r0, [sp, #12]
	.loc	7 690 28 is_stmt 1              @ lvgl/src/lv_draw/lv_draw_blend.c:690:28
	ldr	r1, [sp, #28]
	.loc	7 690 25 is_stmt 0              @ lvgl/src/lv_draw/lv_draw_blend.c:690:25
	ldr	r0, [sp, #24]
	add.w	r0, r0, r1, lsl #2
	str	r0, [sp, #24]
	.loc	7 691 9 is_stmt 1               @ lvgl/src/lv_draw/lv_draw_blend.c:691:9
	b	.LBB6_19
.Ltmp289:
.LBB6_19:                               @   in Loop: Header=BB6_11 Depth=1
	.loc	7 682 53                        @ lvgl/src/lv_draw/lv_draw_blend.c:682:53
	ldr	r0, [sp, #16]
	adds	r0, #1
	str	r0, [sp, #16]
	.loc	7 682 9 is_stmt 0               @ lvgl/src/lv_draw/lv_draw_blend.c:682:9
	b	.LBB6_11
.Ltmp290:
.LBB6_20:
	.loc	7 0 9                           @ lvgl/src/lv_draw/lv_draw_blend.c:0:9
	b	.LBB6_21
.LBB6_21:
	.loc	7 693 1 is_stmt 1               @ lvgl/src/lv_draw/lv_draw_blend.c:693:1
	add	sp, #64
	pop	{r4, r5, r6, pc}
.Ltmp291:
.Lfunc_end6:
	.size	map_set_px, .Lfunc_end6-map_set_px
	.cfi_endproc
	.cantunwind
	.fnend
                                        @ -- End function
	.section	.text.map_normal,"ax",%progbits
	.p2align	3                               @ -- Begin function map_normal
	.type	map_normal,%function
	.code	16                              @ @map_normal
	.thumb_func
map_normal:
.Lfunc_begin7:
	.loc	7 712 0                         @ lvgl/src/lv_draw/lv_draw_blend.c:712:0
	.fnstart
	.cfi_startproc
@ %bb.0:
	.save	{r4, lr}
	push	{r4, lr}
	.cfi_def_cfa_offset 8
	.cfi_offset lr, -4
	.cfi_offset r4, -8
	.pad	#176
	sub	sp, #176
	.cfi_def_cfa_offset 184
	mov	r12, r1
	mov	lr, r0
	ldr	r0, [sp, #196]
	ldr	r1, [sp, #192]
	ldr	r1, [sp, #188]
	ldr	r4, [sp, #184]
	str.w	lr, [sp, #172]
	str.w	r12, [sp, #168]
	str	r2, [sp, #164]
	str	r3, [sp, #160]
	strb.w	r1, [sp, #159]
	strb.w	r0, [sp, #158]
.Ltmp292:
	.loc	7 715 40 prologue_end           @ lvgl/src/lv_draw/lv_draw_blend.c:715:40
	ldr	r0, [sp, #172]
	.loc	7 715 22 is_stmt 0              @ lvgl/src/lv_draw/lv_draw_blend.c:715:22
	bl	lv_area_get_width
	.loc	7 715 13                        @ lvgl/src/lv_draw/lv_draw_blend.c:715:13
	str	r0, [sp, #152]
	.loc	7 717 45 is_stmt 1              @ lvgl/src/lv_draw/lv_draw_blend.c:717:45
	ldr	r0, [sp, #164]
	.loc	7 717 27 is_stmt 0              @ lvgl/src/lv_draw/lv_draw_blend.c:717:27
	bl	lv_area_get_width
	.loc	7 717 13                        @ lvgl/src/lv_draw/lv_draw_blend.c:717:13
	str	r0, [sp, #148]
	.loc	7 718 46 is_stmt 1              @ lvgl/src/lv_draw/lv_draw_blend.c:718:46
	ldr	r0, [sp, #164]
	.loc	7 718 27 is_stmt 0              @ lvgl/src/lv_draw/lv_draw_blend.c:718:27
	bl	lv_area_get_height
	.loc	7 718 13                        @ lvgl/src/lv_draw/lv_draw_blend.c:718:13
	str	r0, [sp, #144]
	.loc	7 721 39 is_stmt 1              @ lvgl/src/lv_draw/lv_draw_blend.c:721:39
	ldr	r0, [sp, #160]
	.loc	7 721 21 is_stmt 0              @ lvgl/src/lv_draw/lv_draw_blend.c:721:21
	bl	lv_area_get_width
	.loc	7 721 13                        @ lvgl/src/lv_draw/lv_draw_blend.c:721:13
	str	r0, [sp, #140]
	.loc	7 724 35 is_stmt 1              @ lvgl/src/lv_draw/lv_draw_blend.c:724:35
	ldr	r0, [sp, #168]
	.loc	7 724 46 is_stmt 0              @ lvgl/src/lv_draw/lv_draw_blend.c:724:46
	ldr	r2, [sp, #152]
	.loc	7 724 55                        @ lvgl/src/lv_draw/lv_draw_blend.c:724:55
	ldr	r3, [sp, #164]
	.loc	7 724 82                        @ lvgl/src/lv_draw/lv_draw_blend.c:724:82
	ldrsh.w	r1, [r3]
	.loc	7 724 66                        @ lvgl/src/lv_draw/lv_draw_blend.c:724:66
	ldrsh.w	r3, [r3, #2]
	.loc	7 724 53                        @ lvgl/src/lv_draw/lv_draw_blend.c:724:53
	muls	r2, r3, r2
	.loc	7 724 44                        @ lvgl/src/lv_draw/lv_draw_blend.c:724:44
	add.w	r0, r0, r2, lsl #2
	.loc	7 724 69                        @ lvgl/src/lv_draw/lv_draw_blend.c:724:69
	add.w	r0, r0, r1, lsl #2
	.loc	7 724 18                        @ lvgl/src/lv_draw/lv_draw_blend.c:724:18
	str	r0, [sp, #136]
	.loc	7 727 40 is_stmt 1              @ lvgl/src/lv_draw/lv_draw_blend.c:727:40
	ldr	r0, [sp, #184]
	.loc	7 727 50 is_stmt 0              @ lvgl/src/lv_draw/lv_draw_blend.c:727:50
	ldr	r1, [sp, #140]
	.loc	7 727 59                        @ lvgl/src/lv_draw/lv_draw_blend.c:727:59
	ldr	r2, [sp, #164]
	.loc	7 727 70                        @ lvgl/src/lv_draw/lv_draw_blend.c:727:70
	ldrsh.w	r2, [r2, #2]
	.loc	7 727 76                        @ lvgl/src/lv_draw/lv_draw_blend.c:727:76
	ldr	r3, [sp, #160]
	.loc	7 727 86                        @ lvgl/src/lv_draw/lv_draw_blend.c:727:86
	ldrsh.w	r12, [r3, #2]
	.loc	7 727 91                        @ lvgl/src/lv_draw/lv_draw_blend.c:727:91
	ldr	r3, [sp, #172]
	.loc	7 727 102                       @ lvgl/src/lv_draw/lv_draw_blend.c:727:102
	ldrsh.w	r3, [r3, #2]
	.loc	7 727 73                        @ lvgl/src/lv_draw/lv_draw_blend.c:727:73
	sub.w	r3, r3, r12
	add	r2, r3
	.loc	7 727 56                        @ lvgl/src/lv_draw/lv_draw_blend.c:727:56
	muls	r1, r2, r1
	.loc	7 727 48                        @ lvgl/src/lv_draw/lv_draw_blend.c:727:48
	add.w	r0, r0, r1, lsl #2
	.loc	7 727 24                        @ lvgl/src/lv_draw/lv_draw_blend.c:727:24
	str	r0, [sp, #132]
	.loc	7 728 23 is_stmt 1              @ lvgl/src/lv_draw/lv_draw_blend.c:728:23
	ldr	r0, [sp, #164]
	.loc	7 728 34 is_stmt 0              @ lvgl/src/lv_draw/lv_draw_blend.c:728:34
	ldrsh.w	r0, [r0]
	.loc	7 728 40                        @ lvgl/src/lv_draw/lv_draw_blend.c:728:40
	ldr	r1, [sp, #160]
	.loc	7 728 50                        @ lvgl/src/lv_draw/lv_draw_blend.c:728:50
	ldrsh.w	r2, [r1]
	.loc	7 728 55                        @ lvgl/src/lv_draw/lv_draw_blend.c:728:55
	ldr	r1, [sp, #172]
	.loc	7 728 66                        @ lvgl/src/lv_draw/lv_draw_blend.c:728:66
	ldrsh.w	r1, [r1]
	.loc	7 728 37                        @ lvgl/src/lv_draw/lv_draw_blend.c:728:37
	subs	r1, r1, r2
	add	r1, r0
	.loc	7 728 19                        @ lvgl/src/lv_draw/lv_draw_blend.c:728:19
	ldr	r0, [sp, #132]
	add.w	r0, r0, r1, lsl #2
	str	r0, [sp, #132]
.Ltmp293:
	.loc	7 738 8 is_stmt 1               @ lvgl/src/lv_draw/lv_draw_blend.c:738:8
	ldrb.w	r0, [sp, #158]
.Ltmp294:
	.loc	7 738 8 is_stmt 0               @ lvgl/src/lv_draw/lv_draw_blend.c:738:8
	cmp	r0, #1
	bne	.LBB7_17
	b	.LBB7_1
.LBB7_1:
.Ltmp295:
	.loc	7 750 12 is_stmt 1              @ lvgl/src/lv_draw/lv_draw_blend.c:750:12
	ldrb.w	r0, [sp, #159]
.Ltmp296:
	.loc	7 750 12 is_stmt 0              @ lvgl/src/lv_draw/lv_draw_blend.c:750:12
	cmp	r0, #254
	blt	.LBB7_7
	b	.LBB7_2
.LBB7_2:
	.loc	7 0 12                          @ lvgl/src/lv_draw/lv_draw_blend.c:0:12
	movs	r0, #0
.Ltmp297:
	.loc	7 794 19 is_stmt 1              @ lvgl/src/lv_draw/lv_draw_blend.c:794:19
	str	r0, [sp, #124]
	.loc	7 794 17 is_stmt 0              @ lvgl/src/lv_draw/lv_draw_blend.c:794:17
	b	.LBB7_3
.LBB7_3:                                @ =>This Inner Loop Header: Depth=1
.Ltmp298:
	.loc	7 794 24                        @ lvgl/src/lv_draw/lv_draw_blend.c:794:24
	ldr	r0, [sp, #124]
	.loc	7 794 28                        @ lvgl/src/lv_draw/lv_draw_blend.c:794:28
	ldr	r1, [sp, #144]
.Ltmp299:
	.loc	7 794 13                        @ lvgl/src/lv_draw/lv_draw_blend.c:794:13
	cmp	r0, r1
	bge	.LBB7_6
	b	.LBB7_4
.LBB7_4:                                @   in Loop: Header=BB7_3 Depth=1
.Ltmp300:
	.loc	7 795 28 is_stmt 1              @ lvgl/src/lv_draw/lv_draw_blend.c:795:28
	ldr	r0, [sp, #136]
	.loc	7 795 44 is_stmt 0              @ lvgl/src/lv_draw/lv_draw_blend.c:795:44
	ldr	r1, [sp, #132]
	.loc	7 795 59                        @ lvgl/src/lv_draw/lv_draw_blend.c:795:59
	ldr	r2, [sp, #148]
	.loc	7 795 71                        @ lvgl/src/lv_draw/lv_draw_blend.c:795:71
	lsls	r2, r2, #2
	.loc	7 795 17                        @ lvgl/src/lv_draw/lv_draw_blend.c:795:17
	bl	_lv_memcpy
	.loc	7 796 35 is_stmt 1              @ lvgl/src/lv_draw/lv_draw_blend.c:796:35
	ldr	r1, [sp, #152]
	.loc	7 796 32 is_stmt 0              @ lvgl/src/lv_draw/lv_draw_blend.c:796:32
	ldr	r0, [sp, #136]
	add.w	r0, r0, r1, lsl #2
	str	r0, [sp, #136]
	.loc	7 797 34 is_stmt 1              @ lvgl/src/lv_draw/lv_draw_blend.c:797:34
	ldr	r1, [sp, #140]
	.loc	7 797 31 is_stmt 0              @ lvgl/src/lv_draw/lv_draw_blend.c:797:31
	ldr	r0, [sp, #132]
	add.w	r0, r0, r1, lsl #2
	str	r0, [sp, #132]
	.loc	7 798 13 is_stmt 1              @ lvgl/src/lv_draw/lv_draw_blend.c:798:13
	b	.LBB7_5
.Ltmp301:
.LBB7_5:                                @   in Loop: Header=BB7_3 Depth=1
	.loc	7 794 42                        @ lvgl/src/lv_draw/lv_draw_blend.c:794:42
	ldr	r0, [sp, #124]
	adds	r0, #1
	str	r0, [sp, #124]
	.loc	7 794 13 is_stmt 0              @ lvgl/src/lv_draw/lv_draw_blend.c:794:13
	b	.LBB7_3
.Ltmp302:
.LBB7_6:
	.loc	7 799 9 is_stmt 1               @ lvgl/src/lv_draw/lv_draw_blend.c:799:9
	b	.LBB7_16
.Ltmp303:
.LBB7_7:
	.loc	7 0 9 is_stmt 0                 @ lvgl/src/lv_draw/lv_draw_blend.c:0:9
	movs	r0, #0
.Ltmp304:
	.loc	7 845 19 is_stmt 1              @ lvgl/src/lv_draw/lv_draw_blend.c:845:19
	str	r0, [sp, #124]
	.loc	7 845 17 is_stmt 0              @ lvgl/src/lv_draw/lv_draw_blend.c:845:17
	b	.LBB7_8
.LBB7_8:                                @ =>This Loop Header: Depth=1
                                        @     Child Loop BB7_10 Depth 2
.Ltmp305:
	.loc	7 845 24                        @ lvgl/src/lv_draw/lv_draw_blend.c:845:24
	ldr	r0, [sp, #124]
	.loc	7 845 28                        @ lvgl/src/lv_draw/lv_draw_blend.c:845:28
	ldr	r1, [sp, #144]
.Ltmp306:
	.loc	7 845 13                        @ lvgl/src/lv_draw/lv_draw_blend.c:845:13
	cmp	r0, r1
	bge	.LBB7_15
	b	.LBB7_9
.LBB7_9:                                @   in Loop: Header=BB7_8 Depth=1
	.loc	7 0 13                          @ lvgl/src/lv_draw/lv_draw_blend.c:0:13
	movs	r0, #0
.Ltmp307:
	.loc	7 846 23 is_stmt 1              @ lvgl/src/lv_draw/lv_draw_blend.c:846:23
	str	r0, [sp, #128]
	.loc	7 846 21 is_stmt 0              @ lvgl/src/lv_draw/lv_draw_blend.c:846:21
	b	.LBB7_10
.LBB7_10:                               @   Parent Loop BB7_8 Depth=1
                                        @ =>  This Inner Loop Header: Depth=2
.Ltmp308:
	.loc	7 846 28                        @ lvgl/src/lv_draw/lv_draw_blend.c:846:28
	ldr	r0, [sp, #128]
	.loc	7 846 32                        @ lvgl/src/lv_draw/lv_draw_blend.c:846:32
	ldr	r1, [sp, #148]
.Ltmp309:
	.loc	7 846 17                        @ lvgl/src/lv_draw/lv_draw_blend.c:846:17
	cmp	r0, r1
	bge	.LBB7_13
	b	.LBB7_11
.LBB7_11:                               @   in Loop: Header=BB7_10 Depth=2
.Ltmp310:
	.loc	7 855 25 is_stmt 1              @ lvgl/src/lv_draw/lv_draw_blend.c:855:25
	ldr	r1, [sp, #136]
	.loc	7 855 40 is_stmt 0              @ lvgl/src/lv_draw/lv_draw_blend.c:855:40
	str	r1, [sp, #72]                   @ 4-byte Spill
	ldr	r3, [sp, #128]
	.loc	7 855 58                        @ lvgl/src/lv_draw/lv_draw_blend.c:855:58
	str	r3, [sp, #68]                   @ 4-byte Spill
	ldr	r0, [sp, #132]
	.loc	7 855 95                        @ lvgl/src/lv_draw/lv_draw_blend.c:855:95
	ldrb.w	r2, [sp, #159]
	.loc	7 855 45                        @ lvgl/src/lv_draw/lv_draw_blend.c:855:45
	ldr.w	r0, [r0, r3, lsl #2]
	ldr.w	r1, [r1, r3, lsl #2]
	bl	lv_color_mix
	ldr	r2, [sp, #68]                   @ 4-byte Reload
	ldr	r1, [sp, #72]                   @ 4-byte Reload
	str	r0, [sp, #120]
	ldr	r0, [sp, #120]
	str.w	r0, [r1, r2, lsl #2]
.Ltmp311:
	.loc	7 857 17 is_stmt 1              @ lvgl/src/lv_draw/lv_draw_blend.c:857:17
	b	.LBB7_12
.Ltmp312:
.LBB7_12:                               @   in Loop: Header=BB7_10 Depth=2
	.loc	7 846 46                        @ lvgl/src/lv_draw/lv_draw_blend.c:846:46
	ldr	r0, [sp, #128]
	adds	r0, #1
	str	r0, [sp, #128]
	.loc	7 846 17 is_stmt 0              @ lvgl/src/lv_draw/lv_draw_blend.c:846:17
	b	.LBB7_10
.Ltmp313:
.LBB7_13:                               @   in Loop: Header=BB7_8 Depth=1
	.loc	7 858 35 is_stmt 1              @ lvgl/src/lv_draw/lv_draw_blend.c:858:35
	ldr	r1, [sp, #152]
	.loc	7 858 32 is_stmt 0              @ lvgl/src/lv_draw/lv_draw_blend.c:858:32
	ldr	r0, [sp, #136]
	add.w	r0, r0, r1, lsl #2
	str	r0, [sp, #136]
	.loc	7 859 34 is_stmt 1              @ lvgl/src/lv_draw/lv_draw_blend.c:859:34
	ldr	r1, [sp, #140]
	.loc	7 859 31 is_stmt 0              @ lvgl/src/lv_draw/lv_draw_blend.c:859:31
	ldr	r0, [sp, #132]
	add.w	r0, r0, r1, lsl #2
	str	r0, [sp, #132]
	.loc	7 860 13 is_stmt 1              @ lvgl/src/lv_draw/lv_draw_blend.c:860:13
	b	.LBB7_14
.Ltmp314:
.LBB7_14:                               @   in Loop: Header=BB7_8 Depth=1
	.loc	7 845 42                        @ lvgl/src/lv_draw/lv_draw_blend.c:845:42
	ldr	r0, [sp, #124]
	adds	r0, #1
	str	r0, [sp, #124]
	.loc	7 845 13 is_stmt 0              @ lvgl/src/lv_draw/lv_draw_blend.c:845:13
	b	.LBB7_8
.Ltmp315:
.LBB7_15:
	.loc	7 0 13                          @ lvgl/src/lv_draw/lv_draw_blend.c:0:13
	b	.LBB7_16
.LBB7_16:
	.loc	7 862 5 is_stmt 1               @ lvgl/src/lv_draw/lv_draw_blend.c:862:5
	b	.LBB7_87
.Ltmp316:
.LBB7_17:
	.loc	7 866 12                        @ lvgl/src/lv_draw/lv_draw_blend.c:866:12
	ldrb.w	r0, [sp, #159]
.Ltmp317:
	.loc	7 866 12 is_stmt 0              @ lvgl/src/lv_draw/lv_draw_blend.c:866:12
	cmp	r0, #254
	blt.w	.LBB7_72
	b	.LBB7_18
.LBB7_18:
.Ltmp318:
	.loc	7 869 30 is_stmt 1              @ lvgl/src/lv_draw/lv_draw_blend.c:869:30
	ldr	r0, [sp, #148]
	.loc	7 869 42 is_stmt 0              @ lvgl/src/lv_draw/lv_draw_blend.c:869:42
	subs	r0, #4
	.loc	7 869 21                        @ lvgl/src/lv_draw/lv_draw_blend.c:869:21
	str	r0, [sp, #116]
	movs	r0, #0
.Ltmp319:
	.loc	7 871 19 is_stmt 1              @ lvgl/src/lv_draw/lv_draw_blend.c:871:19
	str	r0, [sp, #124]
	.loc	7 871 17 is_stmt 0              @ lvgl/src/lv_draw/lv_draw_blend.c:871:17
	b	.LBB7_19
.LBB7_19:                               @ =>This Loop Header: Depth=1
                                        @     Child Loop BB7_21 Depth 2
                                        @     Child Loop BB7_32 Depth 2
                                        @     Child Loop BB7_61 Depth 2
.Ltmp320:
	.loc	7 871 24                        @ lvgl/src/lv_draw/lv_draw_blend.c:871:24
	ldr	r0, [sp, #124]
	.loc	7 871 28                        @ lvgl/src/lv_draw/lv_draw_blend.c:871:28
	ldr	r1, [sp, #144]
.Ltmp321:
	.loc	7 871 13                        @ lvgl/src/lv_draw/lv_draw_blend.c:871:13
	cmp	r0, r1
	bge.w	.LBB7_71
	b	.LBB7_20
.LBB7_20:                               @   in Loop: Header=BB7_19 Depth=1
.Ltmp322:
	.loc	7 872 47 is_stmt 1              @ lvgl/src/lv_draw/lv_draw_blend.c:872:47
	ldr	r0, [sp, #192]
	.loc	7 872 34 is_stmt 0              @ lvgl/src/lv_draw/lv_draw_blend.c:872:34
	str	r0, [sp, #112]
	movs	r0, #0
.Ltmp323:
	.loc	7 878 23 is_stmt 1              @ lvgl/src/lv_draw/lv_draw_blend.c:878:23
	str	r0, [sp, #128]
	.loc	7 878 21 is_stmt 0              @ lvgl/src/lv_draw/lv_draw_blend.c:878:21
	b	.LBB7_21
.LBB7_21:                               @   Parent Loop BB7_19 Depth=1
                                        @ =>  This Inner Loop Header: Depth=2
.Ltmp324:
	.loc	7 878 28                        @ lvgl/src/lv_draw/lv_draw_blend.c:878:28
	ldr	r1, [sp, #128]
	.loc	7 878 32                        @ lvgl/src/lv_draw/lv_draw_blend.c:878:32
	ldr	r2, [sp, #148]
	movs	r0, #0
	.loc	7 878 44                        @ lvgl/src/lv_draw/lv_draw_blend.c:878:44
	cmp	r1, r2
	str	r0, [sp, #64]                   @ 4-byte Spill
	bge	.LBB7_23
	b	.LBB7_22
.LBB7_22:                               @   in Loop: Header=BB7_21 Depth=2
	ldrb.w	r0, [sp, #112]
	and	r0, r0, #3
	cmp	r0, #0
	it	ne
	movne	r0, #1
	str	r0, [sp, #64]                   @ 4-byte Spill
	b	.LBB7_23
.LBB7_23:                               @   in Loop: Header=BB7_21 Depth=2
	.loc	7 0 0                           @ lvgl/src/lv_draw/lv_draw_blend.c:0:0
	ldr	r0, [sp, #64]                   @ 4-byte Reload
.Ltmp325:
	.loc	7 878 17                        @ lvgl/src/lv_draw/lv_draw_blend.c:878:17
	lsls	r0, r0, #31
	cbz	r0, .LBB7_31
	b	.LBB7_24
.LBB7_24:                               @   in Loop: Header=BB7_21 Depth=2
.Ltmp326:
	.loc	7 882 21 is_stmt 1              @ lvgl/src/lv_draw/lv_draw_blend.c:882:21
	ldr	r0, [sp, #112]
	ldrb	r0, [r0]
.Ltmp327:
	.loc	7 882 21 is_stmt 0              @ lvgl/src/lv_draw/lv_draw_blend.c:882:21
	cbz	r0, .LBB7_29
	b	.LBB7_25
.LBB7_25:                               @   in Loop: Header=BB7_21 Depth=2
.Ltmp328:
	.loc	7 882 21                        @ lvgl/src/lv_draw/lv_draw_blend.c:882:21
	ldr	r0, [sp, #112]
	ldrb	r0, [r0]
.Ltmp329:
	.loc	7 882 21                        @ lvgl/src/lv_draw/lv_draw_blend.c:882:21
	cmp	r0, #255
	bne	.LBB7_27
	b	.LBB7_26
.LBB7_26:                               @   in Loop: Header=BB7_21 Depth=2
.Ltmp330:
	.loc	7 882 21                        @ lvgl/src/lv_draw/lv_draw_blend.c:882:21
	ldr	r1, [sp, #136]
	ldr	r2, [sp, #128]
	ldr	r0, [sp, #132]
	ldr.w	r0, [r0, r2, lsl #2]
	str.w	r0, [r1, r2, lsl #2]
	b	.LBB7_28
.LBB7_27:                               @   in Loop: Header=BB7_21 Depth=2
	ldr	r1, [sp, #136]
	str	r1, [sp, #60]                   @ 4-byte Spill
	ldr	r3, [sp, #128]
	str	r3, [sp, #56]                   @ 4-byte Spill
	ldr	r0, [sp, #132]
	ldr	r2, [sp, #112]
	ldrb	r2, [r2]
	ldr.w	r0, [r0, r3, lsl #2]
	ldr.w	r1, [r1, r3, lsl #2]
	bl	lv_color_mix
	ldr	r2, [sp, #56]                   @ 4-byte Reload
	ldr	r1, [sp, #60]                   @ 4-byte Reload
	str	r0, [sp, #108]
	ldr	r0, [sp, #108]
	str.w	r0, [r1, r2, lsl #2]
	b	.LBB7_28
.Ltmp331:
.LBB7_28:                               @   in Loop: Header=BB7_21 Depth=2
	.loc	7 882 21                        @ lvgl/src/lv_draw/lv_draw_blend.c:882:21
	b	.LBB7_29
.Ltmp332:
.LBB7_29:                               @   in Loop: Header=BB7_21 Depth=2
	.loc	7 882 21                        @ lvgl/src/lv_draw/lv_draw_blend.c:882:21
	ldr	r0, [sp, #112]
	adds	r0, #1
	str	r0, [sp, #112]
	.loc	7 884 17 is_stmt 1              @ lvgl/src/lv_draw/lv_draw_blend.c:884:17
	b	.LBB7_30
.Ltmp333:
.LBB7_30:                               @   in Loop: Header=BB7_21 Depth=2
	.loc	7 878 82                        @ lvgl/src/lv_draw/lv_draw_blend.c:878:82
	ldr	r0, [sp, #128]
	adds	r0, #1
	str	r0, [sp, #128]
	.loc	7 878 17 is_stmt 0              @ lvgl/src/lv_draw/lv_draw_blend.c:878:17
	b	.LBB7_21
.Ltmp334:
.LBB7_31:                               @   in Loop: Header=BB7_19 Depth=1
	.loc	7 886 50 is_stmt 1              @ lvgl/src/lv_draw/lv_draw_blend.c:886:50
	ldr	r0, [sp, #112]
	.loc	7 886 28 is_stmt 0              @ lvgl/src/lv_draw/lv_draw_blend.c:886:28
	str	r0, [sp, #104]
	.loc	7 887 17 is_stmt 1              @ lvgl/src/lv_draw/lv_draw_blend.c:887:17
	b	.LBB7_32
.LBB7_32:                               @   Parent Loop BB7_19 Depth=1
                                        @ =>  This Inner Loop Header: Depth=2
.Ltmp335:
	.loc	7 887 23 is_stmt 0              @ lvgl/src/lv_draw/lv_draw_blend.c:887:23
	ldr	r0, [sp, #128]
	.loc	7 887 27                        @ lvgl/src/lv_draw/lv_draw_blend.c:887:27
	ldr	r1, [sp, #116]
.Ltmp336:
	.loc	7 887 17                        @ lvgl/src/lv_draw/lv_draw_blend.c:887:17
	cmp	r0, r1
	bge.w	.LBB7_60
	b	.LBB7_33
.LBB7_33:                               @   in Loop: Header=BB7_32 Depth=2
.Ltmp337:
	.loc	7 888 25 is_stmt 1              @ lvgl/src/lv_draw/lv_draw_blend.c:888:25
	ldr	r0, [sp, #104]
	.loc	7 888 24 is_stmt 0              @ lvgl/src/lv_draw/lv_draw_blend.c:888:24
	ldr	r0, [r0]
.Ltmp338:
	.loc	7 888 24                        @ lvgl/src/lv_draw/lv_draw_blend.c:888:24
	cmp	r0, #0
	beq.w	.LBB7_58
	b	.LBB7_34
.LBB7_34:                               @   in Loop: Header=BB7_32 Depth=2
.Ltmp339:
	.loc	7 889 30 is_stmt 1              @ lvgl/src/lv_draw/lv_draw_blend.c:889:30
	ldr	r0, [sp, #104]
	.loc	7 889 29 is_stmt 0              @ lvgl/src/lv_draw/lv_draw_blend.c:889:29
	ldr	r0, [r0]
.Ltmp340:
	.loc	7 889 28                        @ lvgl/src/lv_draw/lv_draw_blend.c:889:28
	adds	r0, #1
	cbnz	r0, .LBB7_36
	b	.LBB7_35
.LBB7_35:                               @   in Loop: Header=BB7_32 Depth=2
.Ltmp341:
	.loc	7 890 29 is_stmt 1              @ lvgl/src/lv_draw/lv_draw_blend.c:890:29
	ldr	r1, [sp, #136]
	.loc	7 890 44 is_stmt 0              @ lvgl/src/lv_draw/lv_draw_blend.c:890:44
	ldr	r2, [sp, #128]
	.loc	7 890 49                        @ lvgl/src/lv_draw/lv_draw_blend.c:890:49
	ldr	r0, [sp, #132]
	ldr.w	r0, [r0, r2, lsl #2]
	str.w	r0, [r1, r2, lsl #2]
	.loc	7 891 29 is_stmt 1              @ lvgl/src/lv_draw/lv_draw_blend.c:891:29
	ldr	r1, [sp, #136]
	.loc	7 891 44 is_stmt 0              @ lvgl/src/lv_draw/lv_draw_blend.c:891:44
	ldr	r0, [sp, #128]
	.loc	7 891 29                        @ lvgl/src/lv_draw/lv_draw_blend.c:891:29
	adds	r2, r0, #1
	.loc	7 891 53                        @ lvgl/src/lv_draw/lv_draw_blend.c:891:53
	ldr	r0, [sp, #132]
	ldr.w	r0, [r0, r2, lsl #2]
	str.w	r0, [r1, r2, lsl #2]
	.loc	7 892 29 is_stmt 1              @ lvgl/src/lv_draw/lv_draw_blend.c:892:29
	ldr	r1, [sp, #136]
	.loc	7 892 44 is_stmt 0              @ lvgl/src/lv_draw/lv_draw_blend.c:892:44
	ldr	r0, [sp, #128]
	.loc	7 892 29                        @ lvgl/src/lv_draw/lv_draw_blend.c:892:29
	adds	r2, r0, #2
	.loc	7 892 53                        @ lvgl/src/lv_draw/lv_draw_blend.c:892:53
	ldr	r0, [sp, #132]
	ldr.w	r0, [r0, r2, lsl #2]
	str.w	r0, [r1, r2, lsl #2]
	.loc	7 893 29 is_stmt 1              @ lvgl/src/lv_draw/lv_draw_blend.c:893:29
	ldr	r1, [sp, #136]
	.loc	7 893 44 is_stmt 0              @ lvgl/src/lv_draw/lv_draw_blend.c:893:44
	ldr	r0, [sp, #128]
	.loc	7 893 29                        @ lvgl/src/lv_draw/lv_draw_blend.c:893:29
	adds	r2, r0, #3
	.loc	7 893 53                        @ lvgl/src/lv_draw/lv_draw_blend.c:893:53
	ldr	r0, [sp, #132]
	ldr.w	r0, [r0, r2, lsl #2]
	str.w	r0, [r1, r2, lsl #2]
	.loc	7 894 25 is_stmt 1              @ lvgl/src/lv_draw/lv_draw_blend.c:894:25
	b	.LBB7_57
.Ltmp342:
.LBB7_36:                               @   in Loop: Header=BB7_32 Depth=2
	.loc	7 896 60                        @ lvgl/src/lv_draw/lv_draw_blend.c:896:60
	ldr	r0, [sp, #104]
	.loc	7 896 40 is_stmt 0              @ lvgl/src/lv_draw/lv_draw_blend.c:896:40
	str	r0, [sp, #112]
.Ltmp343:
	.loc	7 903 29 is_stmt 1              @ lvgl/src/lv_draw/lv_draw_blend.c:903:29
	ldr	r0, [sp, #112]
	ldrb	r0, [r0]
.Ltmp344:
	.loc	7 903 29 is_stmt 0              @ lvgl/src/lv_draw/lv_draw_blend.c:903:29
	cbz	r0, .LBB7_41
	b	.LBB7_37
.LBB7_37:                               @   in Loop: Header=BB7_32 Depth=2
.Ltmp345:
	.loc	7 903 29                        @ lvgl/src/lv_draw/lv_draw_blend.c:903:29
	ldr	r0, [sp, #112]
	ldrb	r0, [r0]
.Ltmp346:
	.loc	7 903 29                        @ lvgl/src/lv_draw/lv_draw_blend.c:903:29
	cmp	r0, #255
	bne	.LBB7_39
	b	.LBB7_38
.LBB7_38:                               @   in Loop: Header=BB7_32 Depth=2
.Ltmp347:
	.loc	7 903 29                        @ lvgl/src/lv_draw/lv_draw_blend.c:903:29
	ldr	r1, [sp, #136]
	ldr	r2, [sp, #128]
	ldr	r0, [sp, #132]
	ldr.w	r0, [r0, r2, lsl #2]
	str.w	r0, [r1, r2, lsl #2]
	b	.LBB7_40
.LBB7_39:                               @   in Loop: Header=BB7_32 Depth=2
	ldr	r1, [sp, #136]
	str	r1, [sp, #52]                   @ 4-byte Spill
	ldr	r3, [sp, #128]
	str	r3, [sp, #48]                   @ 4-byte Spill
	ldr	r0, [sp, #132]
	ldr	r2, [sp, #112]
	ldrb	r2, [r2]
	ldr.w	r0, [r0, r3, lsl #2]
	ldr.w	r1, [r1, r3, lsl #2]
	bl	lv_color_mix
	ldr	r2, [sp, #48]                   @ 4-byte Reload
	ldr	r1, [sp, #52]                   @ 4-byte Reload
	str	r0, [sp, #100]
	ldr	r0, [sp, #100]
	str.w	r0, [r1, r2, lsl #2]
	b	.LBB7_40
.Ltmp348:
.LBB7_40:                               @   in Loop: Header=BB7_32 Depth=2
	.loc	7 903 29                        @ lvgl/src/lv_draw/lv_draw_blend.c:903:29
	b	.LBB7_41
.Ltmp349:
.LBB7_41:                               @   in Loop: Header=BB7_32 Depth=2
	.loc	7 903 29                        @ lvgl/src/lv_draw/lv_draw_blend.c:903:29
	ldr	r0, [sp, #112]
	adds	r0, #1
	str	r0, [sp, #112]
.Ltmp350:
	.loc	7 904 29 is_stmt 1              @ lvgl/src/lv_draw/lv_draw_blend.c:904:29
	ldr	r0, [sp, #112]
	ldrb	r0, [r0]
.Ltmp351:
	.loc	7 904 29 is_stmt 0              @ lvgl/src/lv_draw/lv_draw_blend.c:904:29
	cbz	r0, .LBB7_46
	b	.LBB7_42
.LBB7_42:                               @   in Loop: Header=BB7_32 Depth=2
.Ltmp352:
	.loc	7 904 29                        @ lvgl/src/lv_draw/lv_draw_blend.c:904:29
	ldr	r0, [sp, #112]
	ldrb	r0, [r0]
.Ltmp353:
	.loc	7 904 29                        @ lvgl/src/lv_draw/lv_draw_blend.c:904:29
	cmp	r0, #255
	bne	.LBB7_44
	b	.LBB7_43
.LBB7_43:                               @   in Loop: Header=BB7_32 Depth=2
.Ltmp354:
	.loc	7 904 29                        @ lvgl/src/lv_draw/lv_draw_blend.c:904:29
	ldr	r1, [sp, #136]
	ldr	r0, [sp, #128]
	adds	r2, r0, #1
	ldr	r0, [sp, #132]
	ldr.w	r0, [r0, r2, lsl #2]
	str.w	r0, [r1, r2, lsl #2]
	b	.LBB7_45
.LBB7_44:                               @   in Loop: Header=BB7_32 Depth=2
	ldr	r1, [sp, #136]
	str	r1, [sp, #44]                   @ 4-byte Spill
	ldr	r0, [sp, #128]
	adds	r3, r0, #1
	str	r3, [sp, #40]                   @ 4-byte Spill
	ldr	r0, [sp, #132]
	ldr	r2, [sp, #112]
	ldrb	r2, [r2]
	ldr.w	r0, [r0, r3, lsl #2]
	ldr.w	r1, [r1, r3, lsl #2]
	bl	lv_color_mix
	ldr	r2, [sp, #40]                   @ 4-byte Reload
	ldr	r1, [sp, #44]                   @ 4-byte Reload
	str	r0, [sp, #96]
	ldr	r0, [sp, #96]
	str.w	r0, [r1, r2, lsl #2]
	b	.LBB7_45
.Ltmp355:
.LBB7_45:                               @   in Loop: Header=BB7_32 Depth=2
	.loc	7 904 29                        @ lvgl/src/lv_draw/lv_draw_blend.c:904:29
	b	.LBB7_46
.Ltmp356:
.LBB7_46:                               @   in Loop: Header=BB7_32 Depth=2
	.loc	7 904 29                        @ lvgl/src/lv_draw/lv_draw_blend.c:904:29
	ldr	r0, [sp, #112]
	adds	r0, #1
	str	r0, [sp, #112]
.Ltmp357:
	.loc	7 905 29 is_stmt 1              @ lvgl/src/lv_draw/lv_draw_blend.c:905:29
	ldr	r0, [sp, #112]
	ldrb	r0, [r0]
.Ltmp358:
	.loc	7 905 29 is_stmt 0              @ lvgl/src/lv_draw/lv_draw_blend.c:905:29
	cbz	r0, .LBB7_51
	b	.LBB7_47
.LBB7_47:                               @   in Loop: Header=BB7_32 Depth=2
.Ltmp359:
	.loc	7 905 29                        @ lvgl/src/lv_draw/lv_draw_blend.c:905:29
	ldr	r0, [sp, #112]
	ldrb	r0, [r0]
.Ltmp360:
	.loc	7 905 29                        @ lvgl/src/lv_draw/lv_draw_blend.c:905:29
	cmp	r0, #255
	bne	.LBB7_49
	b	.LBB7_48
.LBB7_48:                               @   in Loop: Header=BB7_32 Depth=2
.Ltmp361:
	.loc	7 905 29                        @ lvgl/src/lv_draw/lv_draw_blend.c:905:29
	ldr	r1, [sp, #136]
	ldr	r0, [sp, #128]
	adds	r2, r0, #2
	ldr	r0, [sp, #132]
	ldr.w	r0, [r0, r2, lsl #2]
	str.w	r0, [r1, r2, lsl #2]
	b	.LBB7_50
.LBB7_49:                               @   in Loop: Header=BB7_32 Depth=2
	ldr	r1, [sp, #136]
	str	r1, [sp, #36]                   @ 4-byte Spill
	ldr	r0, [sp, #128]
	adds	r3, r0, #2
	str	r3, [sp, #32]                   @ 4-byte Spill
	ldr	r0, [sp, #132]
	ldr	r2, [sp, #112]
	ldrb	r2, [r2]
	ldr.w	r0, [r0, r3, lsl #2]
	ldr.w	r1, [r1, r3, lsl #2]
	bl	lv_color_mix
	ldr	r2, [sp, #32]                   @ 4-byte Reload
	ldr	r1, [sp, #36]                   @ 4-byte Reload
	str	r0, [sp, #92]
	ldr	r0, [sp, #92]
	str.w	r0, [r1, r2, lsl #2]
	b	.LBB7_50
.Ltmp362:
.LBB7_50:                               @   in Loop: Header=BB7_32 Depth=2
	.loc	7 905 29                        @ lvgl/src/lv_draw/lv_draw_blend.c:905:29
	b	.LBB7_51
.Ltmp363:
.LBB7_51:                               @   in Loop: Header=BB7_32 Depth=2
	.loc	7 905 29                        @ lvgl/src/lv_draw/lv_draw_blend.c:905:29
	ldr	r0, [sp, #112]
	adds	r0, #1
	str	r0, [sp, #112]
.Ltmp364:
	.loc	7 906 29 is_stmt 1              @ lvgl/src/lv_draw/lv_draw_blend.c:906:29
	ldr	r0, [sp, #112]
	ldrb	r0, [r0]
.Ltmp365:
	.loc	7 906 29 is_stmt 0              @ lvgl/src/lv_draw/lv_draw_blend.c:906:29
	cbz	r0, .LBB7_56
	b	.LBB7_52
.LBB7_52:                               @   in Loop: Header=BB7_32 Depth=2
.Ltmp366:
	.loc	7 906 29                        @ lvgl/src/lv_draw/lv_draw_blend.c:906:29
	ldr	r0, [sp, #112]
	ldrb	r0, [r0]
.Ltmp367:
	.loc	7 906 29                        @ lvgl/src/lv_draw/lv_draw_blend.c:906:29
	cmp	r0, #255
	bne	.LBB7_54
	b	.LBB7_53
.LBB7_53:                               @   in Loop: Header=BB7_32 Depth=2
.Ltmp368:
	.loc	7 906 29                        @ lvgl/src/lv_draw/lv_draw_blend.c:906:29
	ldr	r1, [sp, #136]
	ldr	r0, [sp, #128]
	adds	r2, r0, #3
	ldr	r0, [sp, #132]
	ldr.w	r0, [r0, r2, lsl #2]
	str.w	r0, [r1, r2, lsl #2]
	b	.LBB7_55
.LBB7_54:                               @   in Loop: Header=BB7_32 Depth=2
	ldr	r1, [sp, #136]
	str	r1, [sp, #28]                   @ 4-byte Spill
	ldr	r0, [sp, #128]
	adds	r3, r0, #3
	str	r3, [sp, #24]                   @ 4-byte Spill
	ldr	r0, [sp, #132]
	ldr	r2, [sp, #112]
	ldrb	r2, [r2]
	ldr.w	r0, [r0, r3, lsl #2]
	ldr.w	r1, [r1, r3, lsl #2]
	bl	lv_color_mix
	ldr	r2, [sp, #24]                   @ 4-byte Reload
	ldr	r1, [sp, #28]                   @ 4-byte Reload
	str	r0, [sp, #88]
	ldr	r0, [sp, #88]
	str.w	r0, [r1, r2, lsl #2]
	b	.LBB7_55
.Ltmp369:
.LBB7_55:                               @   in Loop: Header=BB7_32 Depth=2
	.loc	7 906 29                        @ lvgl/src/lv_draw/lv_draw_blend.c:906:29
	b	.LBB7_56
.Ltmp370:
.LBB7_56:                               @   in Loop: Header=BB7_32 Depth=2
	.loc	7 906 29                        @ lvgl/src/lv_draw/lv_draw_blend.c:906:29
	ldr	r0, [sp, #112]
	adds	r0, #1
	str	r0, [sp, #112]
	b	.LBB7_57
.Ltmp371:
.LBB7_57:                               @   in Loop: Header=BB7_32 Depth=2
	.loc	7 909 21 is_stmt 1              @ lvgl/src/lv_draw/lv_draw_blend.c:909:21
	b	.LBB7_58
.Ltmp372:
.LBB7_58:                               @   in Loop: Header=BB7_32 Depth=2
	.loc	7 910 27                        @ lvgl/src/lv_draw/lv_draw_blend.c:910:27
	ldr	r0, [sp, #104]
	adds	r0, #4
	str	r0, [sp, #104]
	.loc	7 911 17                        @ lvgl/src/lv_draw/lv_draw_blend.c:911:17
	b	.LBB7_59
.Ltmp373:
.LBB7_59:                               @   in Loop: Header=BB7_32 Depth=2
	.loc	7 887 37                        @ lvgl/src/lv_draw/lv_draw_blend.c:887:37
	ldr	r0, [sp, #128]
	adds	r0, #4
	str	r0, [sp, #128]
	.loc	7 887 17 is_stmt 0              @ lvgl/src/lv_draw/lv_draw_blend.c:887:17
	b	.LBB7_32
.Ltmp374:
.LBB7_60:                               @   in Loop: Header=BB7_19 Depth=1
	.loc	7 913 48 is_stmt 1              @ lvgl/src/lv_draw/lv_draw_blend.c:913:48
	ldr	r0, [sp, #104]
	.loc	7 913 28 is_stmt 0              @ lvgl/src/lv_draw/lv_draw_blend.c:913:28
	str	r0, [sp, #112]
	.loc	7 914 17 is_stmt 1              @ lvgl/src/lv_draw/lv_draw_blend.c:914:17
	b	.LBB7_61
.LBB7_61:                               @   Parent Loop BB7_19 Depth=1
                                        @ =>  This Inner Loop Header: Depth=2
.Ltmp375:
	.loc	7 914 23 is_stmt 0              @ lvgl/src/lv_draw/lv_draw_blend.c:914:23
	ldr	r0, [sp, #128]
	.loc	7 914 27                        @ lvgl/src/lv_draw/lv_draw_blend.c:914:27
	ldr	r1, [sp, #148]
.Ltmp376:
	.loc	7 914 17                        @ lvgl/src/lv_draw/lv_draw_blend.c:914:17
	cmp	r0, r1
	bge	.LBB7_69
	b	.LBB7_62
.LBB7_62:                               @   in Loop: Header=BB7_61 Depth=2
.Ltmp377:
	.loc	7 918 21 is_stmt 1              @ lvgl/src/lv_draw/lv_draw_blend.c:918:21
	ldr	r0, [sp, #112]
	ldrb	r0, [r0]
.Ltmp378:
	.loc	7 918 21 is_stmt 0              @ lvgl/src/lv_draw/lv_draw_blend.c:918:21
	cbz	r0, .LBB7_67
	b	.LBB7_63
.LBB7_63:                               @   in Loop: Header=BB7_61 Depth=2
.Ltmp379:
	.loc	7 918 21                        @ lvgl/src/lv_draw/lv_draw_blend.c:918:21
	ldr	r0, [sp, #112]
	ldrb	r0, [r0]
.Ltmp380:
	.loc	7 918 21                        @ lvgl/src/lv_draw/lv_draw_blend.c:918:21
	cmp	r0, #255
	bne	.LBB7_65
	b	.LBB7_64
.LBB7_64:                               @   in Loop: Header=BB7_61 Depth=2
.Ltmp381:
	.loc	7 918 21                        @ lvgl/src/lv_draw/lv_draw_blend.c:918:21
	ldr	r1, [sp, #136]
	ldr	r2, [sp, #128]
	ldr	r0, [sp, #132]
	ldr.w	r0, [r0, r2, lsl #2]
	str.w	r0, [r1, r2, lsl #2]
	b	.LBB7_66
.LBB7_65:                               @   in Loop: Header=BB7_61 Depth=2
	ldr	r1, [sp, #136]
	str	r1, [sp, #20]                   @ 4-byte Spill
	ldr	r3, [sp, #128]
	str	r3, [sp, #16]                   @ 4-byte Spill
	ldr	r0, [sp, #132]
	ldr	r2, [sp, #112]
	ldrb	r2, [r2]
	ldr.w	r0, [r0, r3, lsl #2]
	ldr.w	r1, [r1, r3, lsl #2]
	bl	lv_color_mix
	ldr	r2, [sp, #16]                   @ 4-byte Reload
	ldr	r1, [sp, #20]                   @ 4-byte Reload
	str	r0, [sp, #84]
	ldr	r0, [sp, #84]
	str.w	r0, [r1, r2, lsl #2]
	b	.LBB7_66
.Ltmp382:
.LBB7_66:                               @   in Loop: Header=BB7_61 Depth=2
	.loc	7 918 21                        @ lvgl/src/lv_draw/lv_draw_blend.c:918:21
	b	.LBB7_67
.Ltmp383:
.LBB7_67:                               @   in Loop: Header=BB7_61 Depth=2
	.loc	7 918 21                        @ lvgl/src/lv_draw/lv_draw_blend.c:918:21
	ldr	r0, [sp, #112]
	adds	r0, #1
	str	r0, [sp, #112]
	.loc	7 920 17 is_stmt 1              @ lvgl/src/lv_draw/lv_draw_blend.c:920:17
	b	.LBB7_68
.Ltmp384:
.LBB7_68:                               @   in Loop: Header=BB7_61 Depth=2
	.loc	7 914 42                        @ lvgl/src/lv_draw/lv_draw_blend.c:914:42
	ldr	r0, [sp, #128]
	adds	r0, #1
	str	r0, [sp, #128]
	.loc	7 914 17 is_stmt 0              @ lvgl/src/lv_draw/lv_draw_blend.c:914:17
	b	.LBB7_61
.Ltmp385:
.LBB7_69:                               @   in Loop: Header=BB7_19 Depth=1
	.loc	7 922 35 is_stmt 1              @ lvgl/src/lv_draw/lv_draw_blend.c:922:35
	ldr	r1, [sp, #152]
	.loc	7 922 32 is_stmt 0              @ lvgl/src/lv_draw/lv_draw_blend.c:922:32
	ldr	r0, [sp, #136]
	add.w	r0, r0, r1, lsl #2
	str	r0, [sp, #136]
	.loc	7 923 25 is_stmt 1              @ lvgl/src/lv_draw/lv_draw_blend.c:923:25
	ldr	r1, [sp, #148]
	.loc	7 923 22 is_stmt 0              @ lvgl/src/lv_draw/lv_draw_blend.c:923:22
	ldr	r0, [sp, #192]
	add	r0, r1
	str	r0, [sp, #192]
	.loc	7 924 34 is_stmt 1              @ lvgl/src/lv_draw/lv_draw_blend.c:924:34
	ldr	r1, [sp, #140]
	.loc	7 924 31 is_stmt 0              @ lvgl/src/lv_draw/lv_draw_blend.c:924:31
	ldr	r0, [sp, #132]
	add.w	r0, r0, r1, lsl #2
	str	r0, [sp, #132]
	.loc	7 925 13 is_stmt 1              @ lvgl/src/lv_draw/lv_draw_blend.c:925:13
	b	.LBB7_70
.Ltmp386:
.LBB7_70:                               @   in Loop: Header=BB7_19 Depth=1
	.loc	7 871 42                        @ lvgl/src/lv_draw/lv_draw_blend.c:871:42
	ldr	r0, [sp, #124]
	adds	r0, #1
	str	r0, [sp, #124]
	.loc	7 871 13 is_stmt 0              @ lvgl/src/lv_draw/lv_draw_blend.c:871:13
	b	.LBB7_19
.Ltmp387:
.LBB7_71:
	.loc	7 926 9 is_stmt 1               @ lvgl/src/lv_draw/lv_draw_blend.c:926:9
	b	.LBB7_86
.Ltmp388:
.LBB7_72:
	.loc	7 0 9 is_stmt 0                 @ lvgl/src/lv_draw/lv_draw_blend.c:0:9
	movs	r0, #0
.Ltmp389:
	.loc	7 929 19 is_stmt 1              @ lvgl/src/lv_draw/lv_draw_blend.c:929:19
	str	r0, [sp, #124]
	.loc	7 929 17 is_stmt 0              @ lvgl/src/lv_draw/lv_draw_blend.c:929:17
	b	.LBB7_73
.LBB7_73:                               @ =>This Loop Header: Depth=1
                                        @     Child Loop BB7_75 Depth 2
.Ltmp390:
	.loc	7 929 24                        @ lvgl/src/lv_draw/lv_draw_blend.c:929:24
	ldr	r0, [sp, #124]
	.loc	7 929 28                        @ lvgl/src/lv_draw/lv_draw_blend.c:929:28
	ldr	r1, [sp, #144]
.Ltmp391:
	.loc	7 929 13                        @ lvgl/src/lv_draw/lv_draw_blend.c:929:13
	cmp	r0, r1
	bge	.LBB7_85
	b	.LBB7_74
.LBB7_74:                               @   in Loop: Header=BB7_73 Depth=1
	.loc	7 0 13                          @ lvgl/src/lv_draw/lv_draw_blend.c:0:13
	movs	r0, #0
.Ltmp392:
	.loc	7 930 23 is_stmt 1              @ lvgl/src/lv_draw/lv_draw_blend.c:930:23
	str	r0, [sp, #128]
	.loc	7 930 21 is_stmt 0              @ lvgl/src/lv_draw/lv_draw_blend.c:930:21
	b	.LBB7_75
.LBB7_75:                               @   Parent Loop BB7_73 Depth=1
                                        @ =>  This Inner Loop Header: Depth=2
.Ltmp393:
	.loc	7 930 28                        @ lvgl/src/lv_draw/lv_draw_blend.c:930:28
	ldr	r0, [sp, #128]
	.loc	7 930 32                        @ lvgl/src/lv_draw/lv_draw_blend.c:930:32
	ldr	r1, [sp, #148]
.Ltmp394:
	.loc	7 930 17                        @ lvgl/src/lv_draw/lv_draw_blend.c:930:17
	cmp	r0, r1
	bge	.LBB7_83
	b	.LBB7_76
.LBB7_76:                               @   in Loop: Header=BB7_75 Depth=2
.Ltmp395:
	.loc	7 931 24 is_stmt 1              @ lvgl/src/lv_draw/lv_draw_blend.c:931:24
	ldr	r0, [sp, #192]
	.loc	7 931 29 is_stmt 0              @ lvgl/src/lv_draw/lv_draw_blend.c:931:29
	ldr	r1, [sp, #128]
	.loc	7 931 24                        @ lvgl/src/lv_draw/lv_draw_blend.c:931:24
	ldrb	r0, [r0, r1]
.Ltmp396:
	.loc	7 931 24                        @ lvgl/src/lv_draw/lv_draw_blend.c:931:24
	cbz	r0, .LBB7_81
	b	.LBB7_77
.LBB7_77:                               @   in Loop: Header=BB7_75 Depth=2
.Ltmp397:
	.loc	7 932 44 is_stmt 1              @ lvgl/src/lv_draw/lv_draw_blend.c:932:44
	ldr	r0, [sp, #192]
	.loc	7 932 49 is_stmt 0              @ lvgl/src/lv_draw/lv_draw_blend.c:932:49
	ldr	r1, [sp, #128]
	.loc	7 932 44                        @ lvgl/src/lv_draw/lv_draw_blend.c:932:44
	ldrb	r0, [r0, r1]
	cmp	r0, #253
	blt	.LBB7_79
	b	.LBB7_78
.LBB7_78:                               @   in Loop: Header=BB7_75 Depth=2
	.loc	7 932 68                        @ lvgl/src/lv_draw/lv_draw_blend.c:932:68
	ldrb.w	r0, [sp, #159]
	.loc	7 932 44                        @ lvgl/src/lv_draw/lv_draw_blend.c:932:44
	str	r0, [sp, #12]                   @ 4-byte Spill
	b	.LBB7_80
.LBB7_79:                               @   in Loop: Header=BB7_75 Depth=2
	.loc	7 932 76                        @ lvgl/src/lv_draw/lv_draw_blend.c:932:76
	ldrb.w	r0, [sp, #159]
	.loc	7 932 82                        @ lvgl/src/lv_draw/lv_draw_blend.c:932:82
	ldr	r1, [sp, #192]
	.loc	7 932 87                        @ lvgl/src/lv_draw/lv_draw_blend.c:932:87
	ldr	r2, [sp, #128]
	.loc	7 932 82                        @ lvgl/src/lv_draw/lv_draw_blend.c:932:82
	ldrb	r1, [r1, r2]
	.loc	7 932 80                        @ lvgl/src/lv_draw/lv_draw_blend.c:932:80
	muls	r0, r1, r0
	.loc	7 932 91                        @ lvgl/src/lv_draw/lv_draw_blend.c:932:91
	lsrs	r0, r0, #8
	.loc	7 932 44                        @ lvgl/src/lv_draw/lv_draw_blend.c:932:44
	str	r0, [sp, #12]                   @ 4-byte Spill
	b	.LBB7_80
.LBB7_80:                               @   in Loop: Header=BB7_75 Depth=2
	ldr	r0, [sp, #12]                   @ 4-byte Reload
	.loc	7 932 34                        @ lvgl/src/lv_draw/lv_draw_blend.c:932:34
	strb.w	r0, [sp, #83]
.Ltmp398:
	.loc	7 941 29 is_stmt 1              @ lvgl/src/lv_draw/lv_draw_blend.c:941:29
	ldr	r1, [sp, #136]
	.loc	7 941 44 is_stmt 0              @ lvgl/src/lv_draw/lv_draw_blend.c:941:44
	str	r1, [sp, #8]                    @ 4-byte Spill
	ldr	r3, [sp, #128]
	.loc	7 941 62                        @ lvgl/src/lv_draw/lv_draw_blend.c:941:62
	str	r3, [sp, #4]                    @ 4-byte Spill
	ldr	r0, [sp, #132]
	.loc	7 941 99                        @ lvgl/src/lv_draw/lv_draw_blend.c:941:99
	ldrb.w	r2, [sp, #83]
	.loc	7 941 49                        @ lvgl/src/lv_draw/lv_draw_blend.c:941:49
	ldr.w	r0, [r0, r3, lsl #2]
	ldr.w	r1, [r1, r3, lsl #2]
	bl	lv_color_mix
	ldr	r2, [sp, #4]                    @ 4-byte Reload
	ldr	r1, [sp, #8]                    @ 4-byte Reload
	str	r0, [sp, #76]
	ldr	r0, [sp, #76]
	str.w	r0, [r1, r2, lsl #2]
.Ltmp399:
	.loc	7 943 21 is_stmt 1              @ lvgl/src/lv_draw/lv_draw_blend.c:943:21
	b	.LBB7_81
.Ltmp400:
.LBB7_81:                               @   in Loop: Header=BB7_75 Depth=2
	.loc	7 944 17                        @ lvgl/src/lv_draw/lv_draw_blend.c:944:17
	b	.LBB7_82
.Ltmp401:
.LBB7_82:                               @   in Loop: Header=BB7_75 Depth=2
	.loc	7 930 46                        @ lvgl/src/lv_draw/lv_draw_blend.c:930:46
	ldr	r0, [sp, #128]
	adds	r0, #1
	str	r0, [sp, #128]
	.loc	7 930 17 is_stmt 0              @ lvgl/src/lv_draw/lv_draw_blend.c:930:17
	b	.LBB7_75
.Ltmp402:
.LBB7_83:                               @   in Loop: Header=BB7_73 Depth=1
	.loc	7 945 35 is_stmt 1              @ lvgl/src/lv_draw/lv_draw_blend.c:945:35
	ldr	r1, [sp, #152]
	.loc	7 945 32 is_stmt 0              @ lvgl/src/lv_draw/lv_draw_blend.c:945:32
	ldr	r0, [sp, #136]
	add.w	r0, r0, r1, lsl #2
	str	r0, [sp, #136]
	.loc	7 946 25 is_stmt 1              @ lvgl/src/lv_draw/lv_draw_blend.c:946:25
	ldr	r1, [sp, #148]
	.loc	7 946 22 is_stmt 0              @ lvgl/src/lv_draw/lv_draw_blend.c:946:22
	ldr	r0, [sp, #192]
	add	r0, r1
	str	r0, [sp, #192]
	.loc	7 947 34 is_stmt 1              @ lvgl/src/lv_draw/lv_draw_blend.c:947:34
	ldr	r1, [sp, #140]
	.loc	7 947 31 is_stmt 0              @ lvgl/src/lv_draw/lv_draw_blend.c:947:31
	ldr	r0, [sp, #132]
	add.w	r0, r0, r1, lsl #2
	str	r0, [sp, #132]
	.loc	7 948 13 is_stmt 1              @ lvgl/src/lv_draw/lv_draw_blend.c:948:13
	b	.LBB7_84
.Ltmp403:
.LBB7_84:                               @   in Loop: Header=BB7_73 Depth=1
	.loc	7 929 42                        @ lvgl/src/lv_draw/lv_draw_blend.c:929:42
	ldr	r0, [sp, #124]
	adds	r0, #1
	str	r0, [sp, #124]
	.loc	7 929 13 is_stmt 0              @ lvgl/src/lv_draw/lv_draw_blend.c:929:13
	b	.LBB7_73
.Ltmp404:
.LBB7_85:
	.loc	7 0 13                          @ lvgl/src/lv_draw/lv_draw_blend.c:0:13
	b	.LBB7_86
.LBB7_86:
	b	.LBB7_87
.LBB7_87:
	.loc	7 951 1 is_stmt 1               @ lvgl/src/lv_draw/lv_draw_blend.c:951:1
	add	sp, #176
	pop	{r4, pc}
.Ltmp405:
.Lfunc_end7:
	.size	map_normal, .Lfunc_end7-map_normal
	.cfi_endproc
	.cantunwind
	.fnend
                                        @ -- End function
	.section	.text.map_blended,"ax",%progbits
	.p2align	3                               @ -- Begin function map_blended
	.type	map_blended,%function
	.code	16                              @ @map_blended
	.thumb_func
map_blended:
.Lfunc_begin8:
	.loc	7 956 0                         @ lvgl/src/lv_draw/lv_draw_blend.c:956:0
	.fnstart
	.cfi_startproc
@ %bb.0:
	.save	{r4, r5, r7, lr}
	push	{r4, r5, r7, lr}
	.cfi_def_cfa_offset 16
	.cfi_offset lr, -4
	.cfi_offset r7, -8
	.cfi_offset r5, -12
	.cfi_offset r4, -16
	.pad	#96
	sub	sp, #96
	.cfi_def_cfa_offset 112
	mov	r12, r2
	mov	lr, r1
	mov	r4, r0
	ldr	r0, [sp, #128]
	ldr	r1, [sp, #124]
	ldr	r2, [sp, #120]
	ldr	r2, [sp, #116]
	ldr	r5, [sp, #112]
	str	r4, [sp, #92]
	str.w	lr, [sp, #88]
	str.w	r12, [sp, #84]
	str	r3, [sp, #80]
	strb.w	r2, [sp, #79]
	strb.w	r1, [sp, #78]
	strb.w	r0, [sp, #77]
.Ltmp406:
	.loc	7 959 40 prologue_end           @ lvgl/src/lv_draw/lv_draw_blend.c:959:40
	ldr	r0, [sp, #92]
	.loc	7 959 22 is_stmt 0              @ lvgl/src/lv_draw/lv_draw_blend.c:959:22
	bl	lv_area_get_width
	.loc	7 959 13                        @ lvgl/src/lv_draw/lv_draw_blend.c:959:13
	str	r0, [sp, #72]
	.loc	7 962 45 is_stmt 1              @ lvgl/src/lv_draw/lv_draw_blend.c:962:45
	ldr	r0, [sp, #84]
	.loc	7 962 27 is_stmt 0              @ lvgl/src/lv_draw/lv_draw_blend.c:962:27
	bl	lv_area_get_width
	.loc	7 962 13                        @ lvgl/src/lv_draw/lv_draw_blend.c:962:13
	str	r0, [sp, #68]
	.loc	7 965 39 is_stmt 1              @ lvgl/src/lv_draw/lv_draw_blend.c:965:39
	ldr	r0, [sp, #80]
	.loc	7 965 21 is_stmt 0              @ lvgl/src/lv_draw/lv_draw_blend.c:965:21
	bl	lv_area_get_width
	.loc	7 965 13                        @ lvgl/src/lv_draw/lv_draw_blend.c:965:13
	str	r0, [sp, #64]
	.loc	7 968 33 is_stmt 1              @ lvgl/src/lv_draw/lv_draw_blend.c:968:33
	ldr	r0, [sp, #88]
	.loc	7 968 44 is_stmt 0              @ lvgl/src/lv_draw/lv_draw_blend.c:968:44
	ldr	r1, [sp, #72]
	.loc	7 968 53                        @ lvgl/src/lv_draw/lv_draw_blend.c:968:53
	ldr	r2, [sp, #84]
	.loc	7 968 64                        @ lvgl/src/lv_draw/lv_draw_blend.c:968:64
	ldrsh.w	r2, [r2, #2]
	.loc	7 968 51                        @ lvgl/src/lv_draw/lv_draw_blend.c:968:51
	muls	r1, r2, r1
	.loc	7 968 42                        @ lvgl/src/lv_draw/lv_draw_blend.c:968:42
	add.w	r0, r0, r1, lsl #2
	.loc	7 968 18                        @ lvgl/src/lv_draw/lv_draw_blend.c:968:18
	str	r0, [sp, #60]
	.loc	7 971 38 is_stmt 1              @ lvgl/src/lv_draw/lv_draw_blend.c:971:38
	ldr	r0, [sp, #112]
	.loc	7 971 48 is_stmt 0              @ lvgl/src/lv_draw/lv_draw_blend.c:971:48
	ldr	r1, [sp, #64]
	.loc	7 971 57                        @ lvgl/src/lv_draw/lv_draw_blend.c:971:57
	ldr	r2, [sp, #84]
	.loc	7 971 68                        @ lvgl/src/lv_draw/lv_draw_blend.c:971:68
	ldrsh.w	r2, [r2, #2]
	.loc	7 971 74                        @ lvgl/src/lv_draw/lv_draw_blend.c:971:74
	ldr	r3, [sp, #80]
	.loc	7 971 84                        @ lvgl/src/lv_draw/lv_draw_blend.c:971:84
	ldrsh.w	r12, [r3, #2]
	.loc	7 971 89                        @ lvgl/src/lv_draw/lv_draw_blend.c:971:89
	ldr	r3, [sp, #92]
	.loc	7 971 100                       @ lvgl/src/lv_draw/lv_draw_blend.c:971:100
	ldrsh.w	r3, [r3, #2]
	.loc	7 971 71                        @ lvgl/src/lv_draw/lv_draw_blend.c:971:71
	sub.w	r3, r3, r12
	add	r2, r3
	.loc	7 971 54                        @ lvgl/src/lv_draw/lv_draw_blend.c:971:54
	muls	r1, r2, r1
	.loc	7 971 46                        @ lvgl/src/lv_draw/lv_draw_blend.c:971:46
	add.w	r0, r0, r1, lsl #2
	.loc	7 971 24                        @ lvgl/src/lv_draw/lv_draw_blend.c:971:24
	str	r0, [sp, #56]
	.loc	7 974 12 is_stmt 1              @ lvgl/src/lv_draw/lv_draw_blend.c:974:12
	ldrb.w	r0, [sp, #77]
	.loc	7 974 5 is_stmt 0               @ lvgl/src/lv_draw/lv_draw_blend.c:974:5
	mov	r1, r0
	str	r1, [sp, #24]                   @ 4-byte Spill
	cmp	r0, #1
	beq	.LBB8_2
	b	.LBB8_1
.LBB8_1:
	ldr	r0, [sp, #24]                   @ 4-byte Reload
	cmp	r0, #2
	beq	.LBB8_3
	b	.LBB8_4
.LBB8_2:
.Ltmp407:
	.loc	7 976 22 is_stmt 1              @ lvgl/src/lv_draw/lv_draw_blend.c:976:22
	movw	r0, :lower16:color_blend_true_color_additive
	movt	r0, :upper16:color_blend_true_color_additive
	str	r0, [sp, #52]
	.loc	7 977 13                        @ lvgl/src/lv_draw/lv_draw_blend.c:977:13
	b	.LBB8_5
.LBB8_3:
	.loc	7 979 22                        @ lvgl/src/lv_draw/lv_draw_blend.c:979:22
	movw	r0, :lower16:color_blend_true_color_subtractive
	movt	r0, :upper16:color_blend_true_color_subtractive
	str	r0, [sp, #52]
	.loc	7 980 13                        @ lvgl/src/lv_draw/lv_draw_blend.c:980:13
	b	.LBB8_5
.LBB8_4:
	.loc	7 983 13                        @ lvgl/src/lv_draw/lv_draw_blend.c:983:13
	b	.LBB8_29
.Ltmp408:
.LBB8_5:
	.loc	7 990 8                         @ lvgl/src/lv_draw/lv_draw_blend.c:990:8
	ldrb.w	r0, [sp, #78]
.Ltmp409:
	.loc	7 990 8 is_stmt 0               @ lvgl/src/lv_draw/lv_draw_blend.c:990:8
	cmp	r0, #1
	bne	.LBB8_15
	b	.LBB8_6
.LBB8_6:
.Ltmp410:
	.loc	7 992 25 is_stmt 1              @ lvgl/src/lv_draw/lv_draw_blend.c:992:25
	ldr	r0, [sp, #84]
	.loc	7 992 36 is_stmt 0              @ lvgl/src/lv_draw/lv_draw_blend.c:992:36
	ldrsh.w	r0, [r0]
	.loc	7 992 42                        @ lvgl/src/lv_draw/lv_draw_blend.c:992:42
	ldr	r1, [sp, #80]
	.loc	7 992 52                        @ lvgl/src/lv_draw/lv_draw_blend.c:992:52
	ldrsh.w	r2, [r1]
	.loc	7 992 57                        @ lvgl/src/lv_draw/lv_draw_blend.c:992:57
	ldr	r1, [sp, #92]
	.loc	7 992 68                        @ lvgl/src/lv_draw/lv_draw_blend.c:992:68
	ldrsh.w	r1, [r1]
	.loc	7 992 39                        @ lvgl/src/lv_draw/lv_draw_blend.c:992:39
	subs	r1, r1, r2
	add	r1, r0
	.loc	7 992 21                        @ lvgl/src/lv_draw/lv_draw_blend.c:992:21
	ldr	r0, [sp, #56]
	add.w	r0, r0, r1, lsl #2
	str	r0, [sp, #56]
	.loc	7 995 24 is_stmt 1              @ lvgl/src/lv_draw/lv_draw_blend.c:995:24
	ldr	r0, [sp, #84]
	.loc	7 995 35 is_stmt 0              @ lvgl/src/lv_draw/lv_draw_blend.c:995:35
	ldrsh.w	r1, [r0]
	.loc	7 995 21                        @ lvgl/src/lv_draw/lv_draw_blend.c:995:21
	ldr	r0, [sp, #56]
	sub.w	r0, r0, r1, lsl #2
	str	r0, [sp, #56]
.Ltmp411:
	.loc	7 997 17 is_stmt 1              @ lvgl/src/lv_draw/lv_draw_blend.c:997:17
	ldr	r0, [sp, #84]
	.loc	7 997 28 is_stmt 0              @ lvgl/src/lv_draw/lv_draw_blend.c:997:28
	ldrsh.w	r0, [r0, #2]
	.loc	7 997 15                        @ lvgl/src/lv_draw/lv_draw_blend.c:997:15
	str	r0, [sp, #44]
	.loc	7 997 13                        @ lvgl/src/lv_draw/lv_draw_blend.c:997:13
	b	.LBB8_7
.LBB8_7:                                @ =>This Loop Header: Depth=1
                                        @     Child Loop BB8_9 Depth 2
.Ltmp412:
	.loc	7 997 32                        @ lvgl/src/lv_draw/lv_draw_blend.c:997:32
	ldr	r0, [sp, #44]
	.loc	7 997 37                        @ lvgl/src/lv_draw/lv_draw_blend.c:997:37
	ldr	r1, [sp, #84]
	.loc	7 997 48                        @ lvgl/src/lv_draw/lv_draw_blend.c:997:48
	ldrsh.w	r1, [r1, #6]
.Ltmp413:
	.loc	7 997 9                         @ lvgl/src/lv_draw/lv_draw_blend.c:997:9
	cmp	r0, r1
	bgt	.LBB8_14
	b	.LBB8_8
.LBB8_8:                                @   in Loop: Header=BB8_7 Depth=1
.Ltmp414:
	.loc	7 998 21 is_stmt 1              @ lvgl/src/lv_draw/lv_draw_blend.c:998:21
	ldr	r0, [sp, #84]
	.loc	7 998 32 is_stmt 0              @ lvgl/src/lv_draw/lv_draw_blend.c:998:32
	ldrsh.w	r0, [r0]
	.loc	7 998 19                        @ lvgl/src/lv_draw/lv_draw_blend.c:998:19
	str	r0, [sp, #48]
	.loc	7 998 17                        @ lvgl/src/lv_draw/lv_draw_blend.c:998:17
	b	.LBB8_9
.LBB8_9:                                @   Parent Loop BB8_7 Depth=1
                                        @ =>  This Inner Loop Header: Depth=2
.Ltmp415:
	.loc	7 998 36                        @ lvgl/src/lv_draw/lv_draw_blend.c:998:36
	ldr	r0, [sp, #48]
	.loc	7 998 41                        @ lvgl/src/lv_draw/lv_draw_blend.c:998:41
	ldr	r1, [sp, #84]
	.loc	7 998 52                        @ lvgl/src/lv_draw/lv_draw_blend.c:998:52
	ldrsh.w	r1, [r1, #4]
.Ltmp416:
	.loc	7 998 13                        @ lvgl/src/lv_draw/lv_draw_blend.c:998:13
	cmp	r0, r1
	bgt	.LBB8_12
	b	.LBB8_10
.LBB8_10:                               @   in Loop: Header=BB8_9 Depth=2
.Ltmp417:
	.loc	7 999 17 is_stmt 1              @ lvgl/src/lv_draw/lv_draw_blend.c:999:17
	ldr	r1, [sp, #60]
	.loc	7 999 30 is_stmt 0              @ lvgl/src/lv_draw/lv_draw_blend.c:999:30
	str	r1, [sp, #20]                   @ 4-byte Spill
	ldr.w	r12, [sp, #48]
	.loc	7 999 35                        @ lvgl/src/lv_draw/lv_draw_blend.c:999:35
	str.w	r12, [sp, #16]                  @ 4-byte Spill
	ldr	r3, [sp, #52]
	.loc	7 999 44                        @ lvgl/src/lv_draw/lv_draw_blend.c:999:44
	ldr	r0, [sp, #56]
	.loc	7 999 77                        @ lvgl/src/lv_draw/lv_draw_blend.c:999:77
	ldrb.w	r2, [sp, #79]
	.loc	7 999 35                        @ lvgl/src/lv_draw/lv_draw_blend.c:999:35
	ldr.w	r0, [r0, r12, lsl #2]
	ldr.w	r1, [r1, r12, lsl #2]
	blx	r3
	ldr	r2, [sp, #16]                   @ 4-byte Reload
	ldr	r1, [sp, #20]                   @ 4-byte Reload
	str	r0, [sp, #40]
	ldr	r0, [sp, #40]
	str.w	r0, [r1, r2, lsl #2]
	.loc	7 1000 13 is_stmt 1             @ lvgl/src/lv_draw/lv_draw_blend.c:1000:13
	b	.LBB8_11
.Ltmp418:
.LBB8_11:                               @   in Loop: Header=BB8_9 Depth=2
	.loc	7 998 57                        @ lvgl/src/lv_draw/lv_draw_blend.c:998:57
	ldr	r0, [sp, #48]
	adds	r0, #1
	str	r0, [sp, #48]
	.loc	7 998 13 is_stmt 0              @ lvgl/src/lv_draw/lv_draw_blend.c:998:13
	b	.LBB8_9
.Ltmp419:
.LBB8_12:                               @   in Loop: Header=BB8_7 Depth=1
	.loc	7 1001 29 is_stmt 1             @ lvgl/src/lv_draw/lv_draw_blend.c:1001:29
	ldr	r1, [sp, #72]
	.loc	7 1001 26 is_stmt 0             @ lvgl/src/lv_draw/lv_draw_blend.c:1001:26
	ldr	r0, [sp, #60]
	add.w	r0, r0, r1, lsl #2
	str	r0, [sp, #60]
	.loc	7 1002 28 is_stmt 1             @ lvgl/src/lv_draw/lv_draw_blend.c:1002:28
	ldr	r1, [sp, #64]
	.loc	7 1002 25 is_stmt 0             @ lvgl/src/lv_draw/lv_draw_blend.c:1002:25
	ldr	r0, [sp, #56]
	add.w	r0, r0, r1, lsl #2
	str	r0, [sp, #56]
	.loc	7 1003 9 is_stmt 1              @ lvgl/src/lv_draw/lv_draw_blend.c:1003:9
	b	.LBB8_13
.Ltmp420:
.LBB8_13:                               @   in Loop: Header=BB8_7 Depth=1
	.loc	7 997 53                        @ lvgl/src/lv_draw/lv_draw_blend.c:997:53
	ldr	r0, [sp, #44]
	adds	r0, #1
	str	r0, [sp, #44]
	.loc	7 997 9 is_stmt 0               @ lvgl/src/lv_draw/lv_draw_blend.c:997:9
	b	.LBB8_7
.Ltmp421:
.LBB8_14:
	.loc	7 1004 5 is_stmt 1              @ lvgl/src/lv_draw/lv_draw_blend.c:1004:5
	b	.LBB8_29
.Ltmp422:
.LBB8_15:
	.loc	7 1010 37                       @ lvgl/src/lv_draw/lv_draw_blend.c:1010:37
	ldr	r0, [sp, #120]
	.loc	7 1010 44 is_stmt 0             @ lvgl/src/lv_draw/lv_draw_blend.c:1010:44
	ldr	r1, [sp, #84]
	.loc	7 1010 55                       @ lvgl/src/lv_draw/lv_draw_blend.c:1010:55
	ldrsh.w	r1, [r1]
	.loc	7 1010 42                       @ lvgl/src/lv_draw/lv_draw_blend.c:1010:42
	subs	r0, r0, r1
	.loc	7 1010 26                       @ lvgl/src/lv_draw/lv_draw_blend.c:1010:26
	str	r0, [sp, #36]
	.loc	7 1012 24 is_stmt 1             @ lvgl/src/lv_draw/lv_draw_blend.c:1012:24
	ldr	r0, [sp, #84]
	.loc	7 1012 35 is_stmt 0             @ lvgl/src/lv_draw/lv_draw_blend.c:1012:35
	ldrsh.w	r1, [r0]
	.loc	7 1012 21                       @ lvgl/src/lv_draw/lv_draw_blend.c:1012:21
	ldr	r0, [sp, #56]
	sub.w	r0, r0, r1, lsl #2
	str	r0, [sp, #56]
.Ltmp423:
	.loc	7 1013 17 is_stmt 1             @ lvgl/src/lv_draw/lv_draw_blend.c:1013:17
	ldr	r0, [sp, #84]
	.loc	7 1013 28 is_stmt 0             @ lvgl/src/lv_draw/lv_draw_blend.c:1013:28
	ldrsh.w	r0, [r0, #2]
	.loc	7 1013 15                       @ lvgl/src/lv_draw/lv_draw_blend.c:1013:15
	str	r0, [sp, #44]
	.loc	7 1013 13                       @ lvgl/src/lv_draw/lv_draw_blend.c:1013:13
	b	.LBB8_16
.LBB8_16:                               @ =>This Loop Header: Depth=1
                                        @     Child Loop BB8_18 Depth 2
.Ltmp424:
	.loc	7 1013 32                       @ lvgl/src/lv_draw/lv_draw_blend.c:1013:32
	ldr	r0, [sp, #44]
	.loc	7 1013 37                       @ lvgl/src/lv_draw/lv_draw_blend.c:1013:37
	ldr	r1, [sp, #84]
	.loc	7 1013 48                       @ lvgl/src/lv_draw/lv_draw_blend.c:1013:48
	ldrsh.w	r1, [r1, #6]
.Ltmp425:
	.loc	7 1013 9                        @ lvgl/src/lv_draw/lv_draw_blend.c:1013:9
	cmp	r0, r1
	bgt	.LBB8_28
	b	.LBB8_17
.LBB8_17:                               @   in Loop: Header=BB8_16 Depth=1
.Ltmp426:
	.loc	7 1014 21 is_stmt 1             @ lvgl/src/lv_draw/lv_draw_blend.c:1014:21
	ldr	r0, [sp, #84]
	.loc	7 1014 32 is_stmt 0             @ lvgl/src/lv_draw/lv_draw_blend.c:1014:32
	ldrsh.w	r0, [r0]
	.loc	7 1014 19                       @ lvgl/src/lv_draw/lv_draw_blend.c:1014:19
	str	r0, [sp, #48]
	.loc	7 1014 17                       @ lvgl/src/lv_draw/lv_draw_blend.c:1014:17
	b	.LBB8_18
.LBB8_18:                               @   Parent Loop BB8_16 Depth=1
                                        @ =>  This Inner Loop Header: Depth=2
.Ltmp427:
	.loc	7 1014 36                       @ lvgl/src/lv_draw/lv_draw_blend.c:1014:36
	ldr	r0, [sp, #48]
	.loc	7 1014 41                       @ lvgl/src/lv_draw/lv_draw_blend.c:1014:41
	ldr	r1, [sp, #84]
	.loc	7 1014 52                       @ lvgl/src/lv_draw/lv_draw_blend.c:1014:52
	ldrsh.w	r1, [r1, #4]
.Ltmp428:
	.loc	7 1014 13                       @ lvgl/src/lv_draw/lv_draw_blend.c:1014:13
	cmp	r0, r1
	bgt	.LBB8_26
	b	.LBB8_19
.LBB8_19:                               @   in Loop: Header=BB8_18 Depth=2
.Ltmp429:
	.loc	7 1015 20 is_stmt 1             @ lvgl/src/lv_draw/lv_draw_blend.c:1015:20
	ldr	r0, [sp, #36]
	.loc	7 1015 29 is_stmt 0             @ lvgl/src/lv_draw/lv_draw_blend.c:1015:29
	ldr	r1, [sp, #48]
	.loc	7 1015 20                       @ lvgl/src/lv_draw/lv_draw_blend.c:1015:20
	ldrb	r0, [r0, r1]
.Ltmp430:
	.loc	7 1015 20                       @ lvgl/src/lv_draw/lv_draw_blend.c:1015:20
	cbnz	r0, .LBB8_21
	b	.LBB8_20
.LBB8_20:                               @   in Loop: Header=BB8_18 Depth=2
.Ltmp431:
	.loc	7 1015 38                       @ lvgl/src/lv_draw/lv_draw_blend.c:1015:38
	b	.LBB8_25
.Ltmp432:
.LBB8_21:                               @   in Loop: Header=BB8_18 Depth=2
	.loc	7 1016 36 is_stmt 1             @ lvgl/src/lv_draw/lv_draw_blend.c:1016:36
	ldr	r0, [sp, #36]
	.loc	7 1016 45 is_stmt 0             @ lvgl/src/lv_draw/lv_draw_blend.c:1016:45
	ldr	r1, [sp, #48]
	.loc	7 1016 36                       @ lvgl/src/lv_draw/lv_draw_blend.c:1016:36
	ldrb	r0, [r0, r1]
	cmp	r0, #253
	blt	.LBB8_23
	b	.LBB8_22
.LBB8_22:                               @   in Loop: Header=BB8_18 Depth=2
	.loc	7 1016 64                       @ lvgl/src/lv_draw/lv_draw_blend.c:1016:64
	ldrb.w	r0, [sp, #79]
	.loc	7 1016 36                       @ lvgl/src/lv_draw/lv_draw_blend.c:1016:36
	str	r0, [sp, #12]                   @ 4-byte Spill
	b	.LBB8_24
.LBB8_23:                               @   in Loop: Header=BB8_18 Depth=2
	.loc	7 1016 72                       @ lvgl/src/lv_draw/lv_draw_blend.c:1016:72
	ldrb.w	r0, [sp, #79]
	.loc	7 1016 78                       @ lvgl/src/lv_draw/lv_draw_blend.c:1016:78
	ldr	r1, [sp, #36]
	.loc	7 1016 87                       @ lvgl/src/lv_draw/lv_draw_blend.c:1016:87
	ldr	r2, [sp, #48]
	.loc	7 1016 78                       @ lvgl/src/lv_draw/lv_draw_blend.c:1016:78
	ldrb	r1, [r1, r2]
	.loc	7 1016 76                       @ lvgl/src/lv_draw/lv_draw_blend.c:1016:76
	muls	r0, r1, r0
	.loc	7 1016 91                       @ lvgl/src/lv_draw/lv_draw_blend.c:1016:91
	lsrs	r0, r0, #8
	.loc	7 1016 36                       @ lvgl/src/lv_draw/lv_draw_blend.c:1016:36
	str	r0, [sp, #12]                   @ 4-byte Spill
	b	.LBB8_24
.LBB8_24:                               @   in Loop: Header=BB8_18 Depth=2
	ldr	r0, [sp, #12]                   @ 4-byte Reload
	.loc	7 1016 26                       @ lvgl/src/lv_draw/lv_draw_blend.c:1016:26
	strb.w	r0, [sp, #35]
	.loc	7 1017 17 is_stmt 1             @ lvgl/src/lv_draw/lv_draw_blend.c:1017:17
	ldr	r1, [sp, #60]
	.loc	7 1017 30 is_stmt 0             @ lvgl/src/lv_draw/lv_draw_blend.c:1017:30
	str	r1, [sp, #8]                    @ 4-byte Spill
	ldr.w	r12, [sp, #48]
	.loc	7 1017 35                       @ lvgl/src/lv_draw/lv_draw_blend.c:1017:35
	str.w	r12, [sp, #4]                   @ 4-byte Spill
	ldr	r3, [sp, #52]
	.loc	7 1017 44                       @ lvgl/src/lv_draw/lv_draw_blend.c:1017:44
	ldr	r0, [sp, #56]
	.loc	7 1017 77                       @ lvgl/src/lv_draw/lv_draw_blend.c:1017:77
	ldrb.w	r2, [sp, #35]
	.loc	7 1017 35                       @ lvgl/src/lv_draw/lv_draw_blend.c:1017:35
	ldr.w	r0, [r0, r12, lsl #2]
	ldr.w	r1, [r1, r12, lsl #2]
	blx	r3
	ldr	r2, [sp, #4]                    @ 4-byte Reload
	ldr	r1, [sp, #8]                    @ 4-byte Reload
	str	r0, [sp, #28]
	ldr	r0, [sp, #28]
	str.w	r0, [r1, r2, lsl #2]
	.loc	7 1018 13 is_stmt 1             @ lvgl/src/lv_draw/lv_draw_blend.c:1018:13
	b	.LBB8_25
.Ltmp433:
.LBB8_25:                               @   in Loop: Header=BB8_18 Depth=2
	.loc	7 1014 57                       @ lvgl/src/lv_draw/lv_draw_blend.c:1014:57
	ldr	r0, [sp, #48]
	adds	r0, #1
	str	r0, [sp, #48]
	.loc	7 1014 13 is_stmt 0             @ lvgl/src/lv_draw/lv_draw_blend.c:1014:13
	b	.LBB8_18
.Ltmp434:
.LBB8_26:                               @   in Loop: Header=BB8_16 Depth=1
	.loc	7 1019 29 is_stmt 1             @ lvgl/src/lv_draw/lv_draw_blend.c:1019:29
	ldr	r1, [sp, #72]
	.loc	7 1019 26 is_stmt 0             @ lvgl/src/lv_draw/lv_draw_blend.c:1019:26
	ldr	r0, [sp, #60]
	add.w	r0, r0, r1, lsl #2
	str	r0, [sp, #60]
	.loc	7 1020 25 is_stmt 1             @ lvgl/src/lv_draw/lv_draw_blend.c:1020:25
	ldr	r1, [sp, #68]
	.loc	7 1020 22 is_stmt 0             @ lvgl/src/lv_draw/lv_draw_blend.c:1020:22
	ldr	r0, [sp, #36]
	add	r0, r1
	str	r0, [sp, #36]
	.loc	7 1021 28 is_stmt 1             @ lvgl/src/lv_draw/lv_draw_blend.c:1021:28
	ldr	r1, [sp, #64]
	.loc	7 1021 25 is_stmt 0             @ lvgl/src/lv_draw/lv_draw_blend.c:1021:25
	ldr	r0, [sp, #56]
	add.w	r0, r0, r1, lsl #2
	str	r0, [sp, #56]
	.loc	7 1022 9 is_stmt 1              @ lvgl/src/lv_draw/lv_draw_blend.c:1022:9
	b	.LBB8_27
.Ltmp435:
.LBB8_27:                               @   in Loop: Header=BB8_16 Depth=1
	.loc	7 1013 53                       @ lvgl/src/lv_draw/lv_draw_blend.c:1013:53
	ldr	r0, [sp, #44]
	adds	r0, #1
	str	r0, [sp, #44]
	.loc	7 1013 9 is_stmt 0              @ lvgl/src/lv_draw/lv_draw_blend.c:1013:9
	b	.LBB8_16
.Ltmp436:
.LBB8_28:
	.loc	7 0 9                           @ lvgl/src/lv_draw/lv_draw_blend.c:0:9
	b	.LBB8_29
.LBB8_29:
	.loc	7 1024 1 is_stmt 1              @ lvgl/src/lv_draw/lv_draw_blend.c:1024:1
	add	sp, #96
	pop	{r4, r5, r7, pc}
.Ltmp437:
.Lfunc_end8:
	.size	map_blended, .Lfunc_end8-map_blended
	.cfi_endproc
	.cantunwind
	.fnend
                                        @ -- End function
	.section	.text.lv_area_get_height,"ax",%progbits
	.p2align	3                               @ -- Begin function lv_area_get_height
	.type	lv_area_get_height,%function
	.code	16                              @ @lv_area_get_height
	.thumb_func
lv_area_get_height:
.Lfunc_begin9:
	.loc	8 118 0                         @ lvgl/src/lv_draw/../lv_core/../lv_misc/lv_area.h:118:0
	.fnstart
	.cfi_startproc
@ %bb.0:
	.pad	#4
	sub	sp, #4
	.cfi_def_cfa_offset 4
	str	r0, [sp]
.Ltmp438:
	.loc	8 119 25 prologue_end           @ lvgl/src/lv_draw/../lv_core/../lv_misc/lv_area.h:119:25
	ldr	r1, [sp]
	ldrh	r0, [r1, #6]
	.loc	8 119 38 is_stmt 0              @ lvgl/src/lv_draw/../lv_core/../lv_misc/lv_area.h:119:38
	ldrh	r1, [r1, #2]
	.loc	8 119 36                        @ lvgl/src/lv_draw/../lv_core/../lv_misc/lv_area.h:119:36
	subs	r0, r0, r1
	.loc	8 119 49                        @ lvgl/src/lv_draw/../lv_core/../lv_misc/lv_area.h:119:49
	adds	r0, #1
	.loc	8 119 5                         @ lvgl/src/lv_draw/../lv_core/../lv_misc/lv_area.h:119:5
	sxth	r0, r0
	add	sp, #4
	bx	lr
.Ltmp439:
.Lfunc_end9:
	.size	lv_area_get_height, .Lfunc_end9-lv_area_get_height
	.cfi_endproc
	.cantunwind
	.fnend
                                        @ -- End function
	.section	.text.lv_color_mix,"ax",%progbits
	.p2align	3                               @ -- Begin function lv_color_mix
	.type	lv_color_mix,%function
	.code	16                              @ @lv_color_mix
	.thumb_func
lv_color_mix:
.Lfunc_begin10:
	.loc	2 441 0 is_stmt 1               @ lvgl/src/lv_draw/../lv_core/../lv_misc/lv_color.h:441:0
	.fnstart
	.cfi_startproc
@ %bb.0:
	.pad	#16
	sub	sp, #16
	.cfi_def_cfa_offset 16
                                        @ kill: def $r3 killed $r2
	str	r0, [sp, #8]
	str	r1, [sp, #4]
	strb.w	r2, [sp, #3]
.Ltmp440:
	.loc	2 445 5 prologue_end            @ lvgl/src/lv_draw/../lv_core/../lv_misc/lv_color.h:445:5
	ldrb.w	r0, [sp, #10]
	ldrb.w	r1, [sp, #3]
	mul	r2, r0, r1
	ldrb.w	r0, [sp, #6]
	rsb.w	r1, r1, #255
	smlabb	r0, r0, r1, r2
	movw	r1, #32897
	muls	r0, r1, r0
	lsrs	r0, r0, #23
	strb.w	r0, [sp, #14]
	.loc	2 447 5                         @ lvgl/src/lv_draw/../lv_core/../lv_misc/lv_color.h:447:5
	ldrb.w	r0, [sp, #9]
	ldrb.w	r2, [sp, #3]
	mul	r3, r0, r2
	ldrb.w	r0, [sp, #5]
	rsb.w	r2, r2, #255
	smlabb	r0, r0, r2, r3
	muls	r0, r1, r0
	lsrs	r0, r0, #23
	strb.w	r0, [sp, #13]
	.loc	2 449 5                         @ lvgl/src/lv_draw/../lv_core/../lv_misc/lv_color.h:449:5
	ldrb.w	r0, [sp, #8]
	ldrb.w	r2, [sp, #3]
	mul	r3, r0, r2
	ldrb.w	r0, [sp, #4]
	rsb.w	r2, r2, #255
	smlabb	r0, r0, r2, r3
	muls	r0, r1, r0
	lsrs	r0, r0, #23
	strb.w	r0, [sp, #12]
	movs	r0, #255
	.loc	2 451 5                         @ lvgl/src/lv_draw/../lv_core/../lv_misc/lv_color.h:451:5
	strb.w	r0, [sp, #15]
	.loc	2 457 5                         @ lvgl/src/lv_draw/../lv_core/../lv_misc/lv_color.h:457:5
	ldr	r0, [sp, #12]
	add	sp, #16
	bx	lr
.Ltmp441:
.Lfunc_end10:
	.size	lv_color_mix, .Lfunc_end10-lv_color_mix
	.cfi_endproc
	.cantunwind
	.fnend
                                        @ -- End function
	.section	.text.lv_color_premult,"ax",%progbits
	.p2align	3                               @ -- Begin function lv_color_premult
	.type	lv_color_premult,%function
	.code	16                              @ @lv_color_premult
	.thumb_func
lv_color_premult:
.Lfunc_begin11:
	.loc	2 461 0                         @ lvgl/src/lv_draw/../lv_core/../lv_misc/lv_color.h:461:0
	.fnstart
	.cfi_startproc
@ %bb.0:
	.pad	#12
	sub	sp, #12
	.cfi_def_cfa_offset 12
                                        @ kill: def $r3 killed $r1
	str	r0, [sp, #8]
	strb.w	r1, [sp, #7]
	str	r2, [sp]
.Ltmp442:
	.loc	2 463 25 prologue_end           @ lvgl/src/lv_draw/../lv_core/../lv_misc/lv_color.h:463:25
	ldrb.w	r0, [sp, #10]
	.loc	2 463 45 is_stmt 0              @ lvgl/src/lv_draw/../lv_core/../lv_misc/lv_color.h:463:45
	ldrb.w	r1, [sp, #7]
	.loc	2 463 43                        @ lvgl/src/lv_draw/../lv_core/../lv_misc/lv_color.h:463:43
	muls	r0, r1, r0
	.loc	2 463 5                         @ lvgl/src/lv_draw/../lv_core/../lv_misc/lv_color.h:463:5
	ldr	r1, [sp]
	.loc	2 463 12                        @ lvgl/src/lv_draw/../lv_core/../lv_misc/lv_color.h:463:12
	strh	r0, [r1]
	.loc	2 464 25 is_stmt 1              @ lvgl/src/lv_draw/../lv_core/../lv_misc/lv_color.h:464:25
	ldrb.w	r0, [sp, #9]
	.loc	2 464 45 is_stmt 0              @ lvgl/src/lv_draw/../lv_core/../lv_misc/lv_color.h:464:45
	ldrb.w	r1, [sp, #7]
	.loc	2 464 43                        @ lvgl/src/lv_draw/../lv_core/../lv_misc/lv_color.h:464:43
	muls	r0, r1, r0
	.loc	2 464 5                         @ lvgl/src/lv_draw/../lv_core/../lv_misc/lv_color.h:464:5
	ldr	r1, [sp]
	.loc	2 464 12                        @ lvgl/src/lv_draw/../lv_core/../lv_misc/lv_color.h:464:12
	strh	r0, [r1, #2]
	.loc	2 465 25 is_stmt 1              @ lvgl/src/lv_draw/../lv_core/../lv_misc/lv_color.h:465:25
	ldrb.w	r0, [sp, #8]
	.loc	2 465 45 is_stmt 0              @ lvgl/src/lv_draw/../lv_core/../lv_misc/lv_color.h:465:45
	ldrb.w	r1, [sp, #7]
	.loc	2 465 43                        @ lvgl/src/lv_draw/../lv_core/../lv_misc/lv_color.h:465:43
	muls	r0, r1, r0
	.loc	2 465 5                         @ lvgl/src/lv_draw/../lv_core/../lv_misc/lv_color.h:465:5
	ldr	r1, [sp]
	.loc	2 465 12                        @ lvgl/src/lv_draw/../lv_core/../lv_misc/lv_color.h:465:12
	strh	r0, [r1, #4]
	.loc	2 474 1 is_stmt 1               @ lvgl/src/lv_draw/../lv_core/../lv_misc/lv_color.h:474:1
	add	sp, #12
	bx	lr
.Ltmp443:
.Lfunc_end11:
	.size	lv_color_premult, .Lfunc_end11-lv_color_premult
	.cfi_endproc
	.cantunwind
	.fnend
                                        @ -- End function
	.section	.text.lv_color_mix_premult,"ax",%progbits
	.p2align	3                               @ -- Begin function lv_color_mix_premult
	.type	lv_color_mix_premult,%function
	.code	16                              @ @lv_color_mix_premult
	.thumb_func
lv_color_mix_premult:
.Lfunc_begin12:
	.loc	2 486 0                         @ lvgl/src/lv_draw/../lv_core/../lv_misc/lv_color.h:486:0
	.fnstart
	.cfi_startproc
@ %bb.0:
	.pad	#16
	sub	sp, #16
	.cfi_def_cfa_offset 16
                                        @ kill: def $r3 killed $r2
	str	r1, [sp, #8]
	str	r0, [sp, #4]
	strb.w	r2, [sp, #3]
.Ltmp444:
	.loc	2 490 5 prologue_end            @ lvgl/src/lv_draw/../lv_core/../lv_misc/lv_color.h:490:5
	ldr	r0, [sp, #4]
	ldrh	r2, [r0]
	ldrb.w	r0, [sp, #10]
	ldrb.w	r1, [sp, #3]
	smlabb	r0, r0, r1, r2
	movw	r1, #32897
	muls	r0, r1, r0
	lsrs	r0, r0, #23
	strb.w	r0, [sp, #14]
	.loc	2 491 5                         @ lvgl/src/lv_draw/../lv_core/../lv_misc/lv_color.h:491:5
	ldr	r0, [sp, #4]
	ldrh	r3, [r0, #2]
	ldrb.w	r0, [sp, #9]
	ldrb.w	r2, [sp, #3]
	smlabb	r0, r0, r2, r3
	muls	r0, r1, r0
	lsrs	r0, r0, #23
	strb.w	r0, [sp, #13]
	.loc	2 492 5                         @ lvgl/src/lv_draw/../lv_core/../lv_misc/lv_color.h:492:5
	ldr	r0, [sp, #4]
	ldrh	r3, [r0, #4]
	ldrb.w	r0, [sp, #8]
	ldrb.w	r2, [sp, #3]
	smlabb	r0, r0, r2, r3
	muls	r0, r1, r0
	lsrs	r0, r0, #23
	strb.w	r0, [sp, #12]
	movs	r0, #255
	.loc	2 493 5                         @ lvgl/src/lv_draw/../lv_core/../lv_misc/lv_color.h:493:5
	strb.w	r0, [sp, #15]
	.loc	2 504 5                         @ lvgl/src/lv_draw/../lv_core/../lv_misc/lv_color.h:504:5
	ldr	r0, [sp, #12]
	add	sp, #16
	bx	lr
.Ltmp445:
.Lfunc_end12:
	.size	lv_color_mix_premult, .Lfunc_end12-lv_color_mix_premult
	.cfi_endproc
	.cantunwind
	.fnend
                                        @ -- End function
	.section	.text.color_blend_true_color_additive,"ax",%progbits
	.p2align	3                               @ -- Begin function color_blend_true_color_additive
	.type	color_blend_true_color_additive,%function
	.code	16                              @ @color_blend_true_color_additive
	.thumb_func
color_blend_true_color_additive:
.Lfunc_begin13:
	.loc	7 1027 0                        @ lvgl/src/lv_draw/lv_draw_blend.c:1027:0
	.fnstart
	.cfi_startproc
@ %bb.0:
	.save	{r7, lr}
	push	{r7, lr}
	.cfi_def_cfa_offset 8
	.cfi_offset lr, -4
	.cfi_offset r7, -8
	.pad	#32
	sub	sp, #32
	.cfi_def_cfa_offset 40
                                        @ kill: def $r3 killed $r2
	str	r0, [sp, #24]
	str	r1, [sp, #20]
	strb.w	r2, [sp, #19]
.Ltmp446:
	.loc	7 1029 8 prologue_end           @ lvgl/src/lv_draw/lv_draw_blend.c:1029:8
	ldrb.w	r0, [sp, #19]
.Ltmp447:
	.loc	7 1029 8 is_stmt 0              @ lvgl/src/lv_draw/lv_draw_blend.c:1029:8
	cmp	r0, #2
	bgt	.LBB13_2
	b	.LBB13_1
.LBB13_1:
.Ltmp448:
	.loc	7 1029 34                       @ lvgl/src/lv_draw/lv_draw_blend.c:1029:34
	ldr	r0, [sp, #20]
	str	r0, [sp, #28]
	.loc	7 1029 27                       @ lvgl/src/lv_draw/lv_draw_blend.c:1029:27
	b	.LBB13_14
.Ltmp449:
.LBB13_2:
	.loc	7 1036 17 is_stmt 1             @ lvgl/src/lv_draw/lv_draw_blend.c:1036:17
	ldrb.w	r0, [sp, #22]
	.loc	7 1036 29 is_stmt 0             @ lvgl/src/lv_draw/lv_draw_blend.c:1036:29
	ldrb.w	r1, [sp, #26]
	.loc	7 1036 21                       @ lvgl/src/lv_draw/lv_draw_blend.c:1036:21
	add	r0, r1
	.loc	7 1036 9                        @ lvgl/src/lv_draw/lv_draw_blend.c:1036:9
	str	r0, [sp, #12]
	.loc	7 1042 17 is_stmt 1             @ lvgl/src/lv_draw/lv_draw_blend.c:1042:17
	ldr	r0, [sp, #12]
	cmp	r0, #254
	bhi	.LBB13_4
	b	.LBB13_3
.LBB13_3:
	ldr	r0, [sp, #12]
	str	r0, [sp, #8]                    @ 4-byte Spill
	b	.LBB13_5
.LBB13_4:
	.loc	7 0 17 is_stmt 0                @ lvgl/src/lv_draw/lv_draw_blend.c:0:17
	movs	r0, #255
	.loc	7 1042 17                       @ lvgl/src/lv_draw/lv_draw_blend.c:1042:17
	str	r0, [sp, #8]                    @ 4-byte Spill
	b	.LBB13_5
.LBB13_5:
	ldr	r0, [sp, #8]                    @ 4-byte Reload
	.loc	7 1042 15                       @ lvgl/src/lv_draw/lv_draw_blend.c:1042:15
	strb.w	r0, [sp, #26]
	.loc	7 1059 19 is_stmt 1             @ lvgl/src/lv_draw/lv_draw_blend.c:1059:19
	ldr	r0, [sp, #12]
	cmp	r0, #254
	bhi	.LBB13_7
	b	.LBB13_6
.LBB13_6:
	ldr	r0, [sp, #12]
	str	r0, [sp, #4]                    @ 4-byte Spill
	b	.LBB13_8
.LBB13_7:
	.loc	7 0 19 is_stmt 0                @ lvgl/src/lv_draw/lv_draw_blend.c:0:19
	movs	r0, #255
	.loc	7 1059 19                       @ lvgl/src/lv_draw/lv_draw_blend.c:1059:19
	str	r0, [sp, #4]                    @ 4-byte Spill
	b	.LBB13_8
.LBB13_8:
	ldr	r0, [sp, #4]                    @ 4-byte Reload
	.loc	7 1059 17                       @ lvgl/src/lv_draw/lv_draw_blend.c:1059:17
	strb.w	r0, [sp, #25]
	.loc	7 1062 17 is_stmt 1             @ lvgl/src/lv_draw/lv_draw_blend.c:1062:17
	ldrb.w	r0, [sp, #20]
	.loc	7 1062 30 is_stmt 0             @ lvgl/src/lv_draw/lv_draw_blend.c:1062:30
	ldrb.w	r1, [sp, #24]
	.loc	7 1062 22                       @ lvgl/src/lv_draw/lv_draw_blend.c:1062:22
	add	r0, r1
	.loc	7 1062 9                        @ lvgl/src/lv_draw/lv_draw_blend.c:1062:9
	str	r0, [sp, #12]
	.loc	7 1068 18 is_stmt 1             @ lvgl/src/lv_draw/lv_draw_blend.c:1068:18
	ldr	r0, [sp, #12]
	cmp	r0, #254
	bhi	.LBB13_10
	b	.LBB13_9
.LBB13_9:
	ldr	r0, [sp, #12]
	str	r0, [sp]                        @ 4-byte Spill
	b	.LBB13_11
.LBB13_10:
	.loc	7 0 18 is_stmt 0                @ lvgl/src/lv_draw/lv_draw_blend.c:0:18
	movs	r0, #255
	.loc	7 1068 18                       @ lvgl/src/lv_draw/lv_draw_blend.c:1068:18
	str	r0, [sp]                        @ 4-byte Spill
	b	.LBB13_11
.LBB13_11:
	ldr	r0, [sp]                        @ 4-byte Reload
	.loc	7 1068 16                       @ lvgl/src/lv_draw/lv_draw_blend.c:1068:16
	strb.w	r0, [sp, #24]
.Ltmp450:
	.loc	7 1072 8 is_stmt 1              @ lvgl/src/lv_draw/lv_draw_blend.c:1072:8
	ldrb.w	r0, [sp, #19]
.Ltmp451:
	.loc	7 1072 8 is_stmt 0              @ lvgl/src/lv_draw/lv_draw_blend.c:1072:8
	cmp	r0, #255
	bne	.LBB13_13
	b	.LBB13_12
.LBB13_12:
.Ltmp452:
	.loc	7 1072 36                       @ lvgl/src/lv_draw/lv_draw_blend.c:1072:36
	ldr	r0, [sp, #24]
	str	r0, [sp, #28]
	.loc	7 1072 29                       @ lvgl/src/lv_draw/lv_draw_blend.c:1072:29
	b	.LBB13_14
.Ltmp453:
.LBB13_13:
	.loc	7 1074 33 is_stmt 1             @ lvgl/src/lv_draw/lv_draw_blend.c:1074:33
	ldrb.w	r2, [sp, #19]
	.loc	7 1074 12 is_stmt 0             @ lvgl/src/lv_draw/lv_draw_blend.c:1074:12
	ldr	r0, [sp, #24]
	ldr	r1, [sp, #20]
	bl	lv_color_mix
	str	r0, [sp, #28]
	.loc	7 1074 5                        @ lvgl/src/lv_draw/lv_draw_blend.c:1074:5
	b	.LBB13_14
.LBB13_14:
	.loc	7 1075 1 is_stmt 1              @ lvgl/src/lv_draw/lv_draw_blend.c:1075:1
	ldr	r0, [sp, #28]
	add	sp, #32
	pop	{r7, pc}
.Ltmp454:
.Lfunc_end13:
	.size	color_blend_true_color_additive, .Lfunc_end13-color_blend_true_color_additive
	.cfi_endproc
	.cantunwind
	.fnend
                                        @ -- End function
	.section	.text.color_blend_true_color_subtractive,"ax",%progbits
	.p2align	3                               @ -- Begin function color_blend_true_color_subtractive
	.type	color_blend_true_color_subtractive,%function
	.code	16                              @ @color_blend_true_color_subtractive
	.thumb_func
color_blend_true_color_subtractive:
.Lfunc_begin14:
	.loc	7 1078 0                        @ lvgl/src/lv_draw/lv_draw_blend.c:1078:0
	.fnstart
	.cfi_startproc
@ %bb.0:
	.save	{r7, lr}
	push	{r7, lr}
	.cfi_def_cfa_offset 8
	.cfi_offset lr, -4
	.cfi_offset r7, -8
	.pad	#32
	sub	sp, #32
	.cfi_def_cfa_offset 40
                                        @ kill: def $r3 killed $r2
	str	r0, [sp, #24]
	str	r1, [sp, #20]
	strb.w	r2, [sp, #19]
.Ltmp455:
	.loc	7 1080 8 prologue_end           @ lvgl/src/lv_draw/lv_draw_blend.c:1080:8
	ldrb.w	r0, [sp, #19]
.Ltmp456:
	.loc	7 1080 8 is_stmt 0              @ lvgl/src/lv_draw/lv_draw_blend.c:1080:8
	cmp	r0, #2
	bgt	.LBB14_2
	b	.LBB14_1
.LBB14_1:
.Ltmp457:
	.loc	7 1080 34                       @ lvgl/src/lv_draw/lv_draw_blend.c:1080:34
	ldr	r0, [sp, #20]
	str	r0, [sp, #28]
	.loc	7 1080 27                       @ lvgl/src/lv_draw/lv_draw_blend.c:1080:27
	b	.LBB14_14
.Ltmp458:
.LBB14_2:
	.loc	7 1083 17 is_stmt 1             @ lvgl/src/lv_draw/lv_draw_blend.c:1083:17
	ldrb.w	r0, [sp, #22]
	.loc	7 1083 29 is_stmt 0             @ lvgl/src/lv_draw/lv_draw_blend.c:1083:29
	ldrb.w	r1, [sp, #26]
	.loc	7 1083 21                       @ lvgl/src/lv_draw/lv_draw_blend.c:1083:21
	subs	r0, r0, r1
	.loc	7 1083 9                        @ lvgl/src/lv_draw/lv_draw_blend.c:1083:9
	str	r0, [sp, #12]
	.loc	7 1084 17 is_stmt 1             @ lvgl/src/lv_draw/lv_draw_blend.c:1084:17
	ldr	r0, [sp, #12]
	cmp	r0, #1
	blt	.LBB14_4
	b	.LBB14_3
.LBB14_3:
	ldr	r0, [sp, #12]
	str	r0, [sp, #8]                    @ 4-byte Spill
	b	.LBB14_5
.LBB14_4:
	.loc	7 0 17 is_stmt 0                @ lvgl/src/lv_draw/lv_draw_blend.c:0:17
	movs	r0, #0
	.loc	7 1084 17                       @ lvgl/src/lv_draw/lv_draw_blend.c:1084:17
	str	r0, [sp, #8]                    @ 4-byte Spill
	b	.LBB14_5
.LBB14_5:
	ldr	r0, [sp, #8]                    @ 4-byte Reload
	.loc	7 1084 15                       @ lvgl/src/lv_draw/lv_draw_blend.c:1084:15
	strb.w	r0, [sp, #26]
	.loc	7 1087 17 is_stmt 1             @ lvgl/src/lv_draw/lv_draw_blend.c:1087:17
	ldrb.w	r0, [sp, #21]
	.loc	7 1087 31 is_stmt 0             @ lvgl/src/lv_draw/lv_draw_blend.c:1087:31
	ldrb.w	r1, [sp, #25]
	.loc	7 1087 23                       @ lvgl/src/lv_draw/lv_draw_blend.c:1087:23
	subs	r0, r0, r1
	.loc	7 1087 9                        @ lvgl/src/lv_draw/lv_draw_blend.c:1087:9
	str	r0, [sp, #12]
	.loc	7 1088 19 is_stmt 1             @ lvgl/src/lv_draw/lv_draw_blend.c:1088:19
	ldr	r0, [sp, #12]
	cmp	r0, #1
	blt	.LBB14_7
	b	.LBB14_6
.LBB14_6:
	ldr	r0, [sp, #12]
	str	r0, [sp, #4]                    @ 4-byte Spill
	b	.LBB14_8
.LBB14_7:
	.loc	7 0 19 is_stmt 0                @ lvgl/src/lv_draw/lv_draw_blend.c:0:19
	movs	r0, #0
	.loc	7 1088 19                       @ lvgl/src/lv_draw/lv_draw_blend.c:1088:19
	str	r0, [sp, #4]                    @ 4-byte Spill
	b	.LBB14_8
.LBB14_8:
	ldr	r0, [sp, #4]                    @ 4-byte Reload
	.loc	7 1088 17                       @ lvgl/src/lv_draw/lv_draw_blend.c:1088:17
	strb.w	r0, [sp, #25]
	.loc	7 1096 17 is_stmt 1             @ lvgl/src/lv_draw/lv_draw_blend.c:1096:17
	ldrb.w	r0, [sp, #20]
	.loc	7 1096 30 is_stmt 0             @ lvgl/src/lv_draw/lv_draw_blend.c:1096:30
	ldrb.w	r1, [sp, #24]
	.loc	7 1096 22                       @ lvgl/src/lv_draw/lv_draw_blend.c:1096:22
	subs	r0, r0, r1
	.loc	7 1096 9                        @ lvgl/src/lv_draw/lv_draw_blend.c:1096:9
	str	r0, [sp, #12]
	.loc	7 1097 18 is_stmt 1             @ lvgl/src/lv_draw/lv_draw_blend.c:1097:18
	ldr	r0, [sp, #12]
	cmp	r0, #1
	blt	.LBB14_10
	b	.LBB14_9
.LBB14_9:
	ldr	r0, [sp, #12]
	str	r0, [sp]                        @ 4-byte Spill
	b	.LBB14_11
.LBB14_10:
	.loc	7 0 18 is_stmt 0                @ lvgl/src/lv_draw/lv_draw_blend.c:0:18
	movs	r0, #0
	.loc	7 1097 18                       @ lvgl/src/lv_draw/lv_draw_blend.c:1097:18
	str	r0, [sp]                        @ 4-byte Spill
	b	.LBB14_11
.LBB14_11:
	ldr	r0, [sp]                        @ 4-byte Reload
	.loc	7 1097 16                       @ lvgl/src/lv_draw/lv_draw_blend.c:1097:16
	strb.w	r0, [sp, #24]
.Ltmp459:
	.loc	7 1099 8 is_stmt 1              @ lvgl/src/lv_draw/lv_draw_blend.c:1099:8
	ldrb.w	r0, [sp, #19]
.Ltmp460:
	.loc	7 1099 8 is_stmt 0              @ lvgl/src/lv_draw/lv_draw_blend.c:1099:8
	cmp	r0, #255
	bne	.LBB14_13
	b	.LBB14_12
.LBB14_12:
.Ltmp461:
	.loc	7 1099 36                       @ lvgl/src/lv_draw/lv_draw_blend.c:1099:36
	ldr	r0, [sp, #24]
	str	r0, [sp, #28]
	.loc	7 1099 29                       @ lvgl/src/lv_draw/lv_draw_blend.c:1099:29
	b	.LBB14_14
.Ltmp462:
.LBB14_13:
	.loc	7 1101 33 is_stmt 1             @ lvgl/src/lv_draw/lv_draw_blend.c:1101:33
	ldrb.w	r2, [sp, #19]
	.loc	7 1101 12 is_stmt 0             @ lvgl/src/lv_draw/lv_draw_blend.c:1101:12
	ldr	r0, [sp, #24]
	ldr	r1, [sp, #20]
	bl	lv_color_mix
	str	r0, [sp, #28]
	.loc	7 1101 5                        @ lvgl/src/lv_draw/lv_draw_blend.c:1101:5
	b	.LBB14_14
.LBB14_14:
	.loc	7 1102 1 is_stmt 1              @ lvgl/src/lv_draw/lv_draw_blend.c:1102:1
	ldr	r0, [sp, #28]
	add	sp, #32
	pop	{r7, pc}
.Ltmp463:
.Lfunc_end14:
	.size	color_blend_true_color_subtractive, .Lfunc_end14-color_blend_true_color_subtractive
	.cfi_endproc
	.cantunwind
	.fnend
                                        @ -- End function
	.type	.L__const.fill_normal.last_dest_color,%object @ @__const.fill_normal.last_dest_color
	.section	.rodata.cst4,"aM",%progbits,4
	.p2align	2
.L__const.fill_normal.last_dest_color:
	.byte	0                               @ 0x0
	.byte	0                               @ 0x0
	.byte	0                               @ 0x0
	.byte	255                             @ 0xff
	.size	.L__const.fill_normal.last_dest_color, 4

	.type	.L__const.fill_blended.last_dest_color,%object @ @__const.fill_blended.last_dest_color
	.p2align	2
.L__const.fill_blended.last_dest_color:
	.byte	0                               @ 0x0
	.byte	0                               @ 0x0
	.byte	0                               @ 0x0
	.byte	255                             @ 0xff
	.size	.L__const.fill_blended.last_dest_color, 4

	.file	9 "E:\\Smart-access-control\\Hardware\\CODE" "lvgl/src/lv_draw/../lv_hal/lv_hal_disp.h"
	.file	10 "E:\\Smart-access-control\\Hardware\\CODE" "lvgl/src/lv_draw/../lv_hal/../lv_misc/lv_task.h"
	.file	11 "E:\\Smart-access-control\\Hardware\\CODE" "lvgl/src/lv_draw/../lv_hal/../lv_misc/lv_ll.h"
	.file	12 "E:\\Smart-access-control\\Hardware\\CODE" "lvgl/src/lv_draw/../lv_core/lv_obj.h"
	.file	13 "E:\\Smart-access-control\\Hardware\\CODE" "lvgl/src/lv_draw/../lv_core/lv_style.h"
	.file	14 "E:\\Smart-access-control\\Hardware\\CODE" "lvgl/src/lv_draw/../lv_hal/lv_hal_indev.h"
	.file	15 "E:\\Smart-access-control\\Hardware\\CODE" "lvgl/src/lv_draw/../lv_misc/lv_bidi.h"
	.section	".note.GNU-stack","",%progbits
	.eabi_attribute	30, 6	@ Tag_ABI_optimization_goals
	.ARM_attribute	16, 1	@ Tag_AV_eba