	.text
	.syntax unified
	.eabi_attribute	67, "2.09"	@ Tag_conformance
	.cpu	cortex-m7
	.eabi_attribute	6, 13	@ Tag_CPU_arch
	.eabi_attribute	7, 77	@ Tag_CPU_arch_profile
	.eabi_attribute	8, 0	@ Tag_ARM_ISA_use
	.eabi_attribute	9, 2	@ Tag_THUMB_ISA_use
	.fpu	fpv5-d16
	.eabi_attribute	36, 1	@ Tag_FP_HP_extension
	.eabi_attribute	34, 1	@ Tag_CPU_unaligned_access
	.eabi_attribute	17, 1	@ Tag_ABI_PCS_GOT_use
	.eabi_attribute	20, 2	@ Tag_ABI_FP_denormal
	.eabi_attribute	21, 0	@ Tag_ABI_FP_exceptions
	.eabi_attribute	23, 1	@ Tag_ABI_FP_number_model
	.eabi_attribute	24, 1	@ Tag_ABI_align_needed
	.eabi_attribute	25, 1	@ Tag_ABI_align_preserved
	.eabi_attribute	28, 1	@ Tag_ABI_VFP_args
	.eabi_attribute	38, 1	@ Tag_ABI_FP_16bit_format
	.eabi_attribute	18, 2	@ Tag_ABI_PCS_wchar_t
	.eabi_attribute	26, 1	@ Tag_ABI_enum_size
	.eabi_attribute	14, 0	@ Tag_ABI_PCS_R9_use
	.file	"lv_dropdown.c"
	.file	1 "D:\\Keil_v5\\ARM\\ARMCLANG\\Bin\\..\\include" "stdint.h"
	.file	2 "E:\\STM32\\Learning\\STM32H750_ART_PI_RGBLCD" "lvgl/src/lv_widgets/../lv_core/../lv_draw/../lv_misc/lv_types.h"
	.file	3 "E:\\STM32\\Learning\\STM32H750_ART_PI_RGBLCD" "lvgl/src/lv_widgets/../lv_themes/../lv_core/lv_obj.h"
	.file	4 "E:\\STM32\\Learning\\STM32H750_ART_PI_RGBLCD" "lvgl/src/lv_widgets/../lv_core/../lv_font/../lv_misc/lv_ll.h"
	.file	5 "E:\\STM32\\Learning\\STM32H750_ART_PI_RGBLCD" "./lvgl/src/lv_conf.h"
	.file	6 "E:\\STM32\\Learning\\STM32H750_ART_PI_RGBLCD" "lvgl/src/lv_widgets/../lv_core/../lv_hal/../lv_misc/lv_area.h"
	.file	7 "E:\\STM32\\Learning\\STM32H750_ART_PI_RGBLCD" "lvgl/src/lv_widgets/../lv_themes/../lv_core/lv_style.h"
	.file	8 "E:\\STM32\\Learning\\STM32H750_ART_PI_RGBLCD" "lvgl/src/lv_widgets/../lv_core/../lv_hal/lv_hal_indev.h"
	.file	9 "E:\\STM32\\Learning\\STM32H750_ART_PI_RGBLCD" "lvgl/src/lv_widgets/../lv_core/../lv_draw/../lv_misc/lv_bidi.h"
	.file	10 "E:\\STM32\\Learning\\STM32H750_ART_PI_RGBLCD" "lvgl/src/lv_widgets/lv_dropdown.c"
	.file	11 "E:\\STM32\\Learning\\STM32H750_ART_PI_RGBLCD" "lvgl/src/lv_widgets/lv_dropdown.h"
	.file	12 "E:\\STM32\\Learning\\STM32H750_ART_PI_RGBLCD" "lvgl/src/lv_widgets/../lv_themes/lv_theme.h"
	.file	13 "E:\\STM32\\Learning\\STM32H750_ART_PI_RGBLCD" "lvgl/src/lv_widgets/lv_cont.h"
	.file	14 "E:\\STM32\\Learning\\STM32H750_ART_PI_RGBLCD" "lvgl/src/lv_widgets/../lv_widgets/lv_page.h"
	.file	15 "E:\\STM32\\Learning\\STM32H750_ART_PI_RGBLCD" "lvgl/src/lv_widgets/../lv_widgets/lv_label.h"
	.file	16 "E:\\STM32\\Learning\\STM32H750_ART_PI_RGBLCD" "lvgl/src/lv_widgets/../lv_core/../lv_font/../lv_misc/lv_txt.h"
	.file	17 "E:\\STM32\\Learning\\STM32H750_ART_PI_RGBLCD" "lvgl/src/lv_widgets/../lv_core/lv_group.h"
	.section	.text.lv_dropdown_create,"ax",%progbits
	.hidden	lv_dropdown_create              @ -- Begin function lv_dropdown_create
	.globl	lv_dropdown_create
	.p2align	3
	.type	lv_dropdown_create,%function
	.code	16                              @ @lv_dropdown_create
	.thumb_func
lv_dropdown_create:
.Lfunc_begin0:
	.loc	10 86 0                         @ lvgl/src/lv_widgets/lv_dropdown.c:86:0
	.fnstart
	.cfi_sections .debug_frame
	.cfi_startproc
@ %bb.0:
	.save	{r7, lr}
	push	{r7, lr}
	.cfi_def_cfa_offset 8
	.cfi_offset lr, -4
	.cfi_offset r7, -8
	.pad	#40
	sub	sp, #40
	.cfi_def_cfa_offset 48
	str	r0, [sp, #32]
	str	r1, [sp, #28]
.Ltmp0:
	.loc	10 90 39 prologue_end           @ lvgl/src/lv_widgets/lv_dropdown.c:90:39
	ldr	r0, [sp, #32]
	.loc	10 90 44 is_stmt 0              @ lvgl/src/lv_widgets/lv_dropdown.c:90:44
	ldr	r1, [sp, #28]
	.loc	10 90 25                        @ lvgl/src/lv_widgets/lv_dropdown.c:90:25
	bl	lv_obj_create
	.loc	10 90 16                        @ lvgl/src/lv_widgets/lv_dropdown.c:90:16
	str	r0, [sp, #24]
	.loc	10 91 5 is_stmt 1               @ lvgl/src/lv_widgets/lv_dropdown.c:91:5
	b	.LBB0_1
.LBB0_1:
.Ltmp1:
	.loc	10 91 5 is_stmt 0               @ lvgl/src/lv_widgets/lv_dropdown.c:91:5
	ldr	r0, [sp, #24]
	bl	lv_debug_check_null
.Ltmp2:
	.loc	10 91 5                         @ lvgl/src/lv_widgets/lv_dropdown.c:91:5
	cbnz	r0, .LBB0_4
	b	.LBB0_2
.LBB0_2:
.Ltmp3:
	.loc	10 91 5                         @ lvgl/src/lv_widgets/lv_dropdown.c:91:5
	ldr	r2, [sp, #24]
	movw	r0, :lower16:.L.str
	movt	r0, :upper16:.L.str
	movs	r3, #0
	bl	lv_debug_log_error
	b	.LBB0_3
.LBB0_3:                                @ =>This Inner Loop Header: Depth=1
	b	.LBB0_3
.Ltmp4:
.LBB0_4:
	.loc	10 91 5                         @ lvgl/src/lv_widgets/lv_dropdown.c:91:5
	b	.LBB0_5
.Ltmp5:
.LBB0_5:
	.loc	10 92 8 is_stmt 1               @ lvgl/src/lv_widgets/lv_dropdown.c:92:8
	ldr	r0, [sp, #24]
.Ltmp6:
	.loc	10 92 8 is_stmt 0               @ lvgl/src/lv_widgets/lv_dropdown.c:92:8
	cbnz	r0, .LBB0_7
	b	.LBB0_6
.LBB0_6:
	.loc	10 0 8                          @ lvgl/src/lv_widgets/lv_dropdown.c:0:8
	movs	r0, #0
.Ltmp7:
	.loc	10 92 24                        @ lvgl/src/lv_widgets/lv_dropdown.c:92:24
	str	r0, [sp, #36]
	b	.LBB0_28
.Ltmp8:
.LBB0_7:
	.loc	10 94 8 is_stmt 1               @ lvgl/src/lv_widgets/lv_dropdown.c:94:8
	movw	r0, :lower16:ancestor_signal
	movt	r0, :upper16:ancestor_signal
	ldr	r0, [r0]
.Ltmp9:
	.loc	10 94 8 is_stmt 0               @ lvgl/src/lv_widgets/lv_dropdown.c:94:8
	cbnz	r0, .LBB0_9
	b	.LBB0_8
.LBB0_8:
.Ltmp10:
	.loc	10 94 72                        @ lvgl/src/lv_widgets/lv_dropdown.c:94:72
	ldr	r0, [sp, #24]
	.loc	10 94 51                        @ lvgl/src/lv_widgets/lv_dropdown.c:94:51
	bl	lv_obj_get_signal_cb
	.loc	10 94 49                        @ lvgl/src/lv_widgets/lv_dropdown.c:94:49
	movw	r1, :lower16:ancestor_signal
	movt	r1, :upper16:ancestor_signal
	str	r0, [r1]
	.loc	10 94 33                        @ lvgl/src/lv_widgets/lv_dropdown.c:94:33
	b	.LBB0_9
.Ltmp11:
.LBB0_9:
	.loc	10 95 8 is_stmt 1               @ lvgl/src/lv_widgets/lv_dropdown.c:95:8
	movw	r0, :lower16:ancestor_design
	movt	r0, :upper16:ancestor_design
	ldr	r0, [r0]
.Ltmp12:
	.loc	10 95 8 is_stmt 0               @ lvgl/src/lv_widgets/lv_dropdown.c:95:8
	cbnz	r0, .LBB0_11
	b	.LBB0_10
.LBB0_10:
.Ltmp13:
	.loc	10 95 72                        @ lvgl/src/lv_widgets/lv_dropdown.c:95:72
	ldr	r0, [sp, #24]
	.loc	10 95 51                        @ lvgl/src/lv_widgets/lv_dropdown.c:95:51
	bl	lv_obj_get_design_cb
	.loc	10 95 49                        @ lvgl/src/lv_widgets/lv_dropdown.c:95:49
	movw	r1, :lower16:ancestor_design
	movt	r1, :upper16:ancestor_design
	str	r0, [r1]
	.loc	10 95 33                        @ lvgl/src/lv_widgets/lv_dropdown.c:95:33
	b	.LBB0_11
.Ltmp14:
.LBB0_11:
	.loc	10 98 56 is_stmt 1              @ lvgl/src/lv_widgets/lv_dropdown.c:98:56
	ldr	r0, [sp, #24]
	movs	r1, #52
	.loc	10 98 31 is_stmt 0              @ lvgl/src/lv_widgets/lv_dropdown.c:98:31
	bl	lv_obj_allocate_ext_attr
	.loc	10 98 25                        @ lvgl/src/lv_widgets/lv_dropdown.c:98:25
	str	r0, [sp, #20]
	.loc	10 99 5 is_stmt 1               @ lvgl/src/lv_widgets/lv_dropdown.c:99:5
	b	.LBB0_12
.LBB0_12:
.Ltmp15:
	.loc	10 99 5 is_stmt 0               @ lvgl/src/lv_widgets/lv_dropdown.c:99:5
	ldr	r0, [sp, #20]
	bl	lv_debug_check_null
.Ltmp16:
	.loc	10 99 5                         @ lvgl/src/lv_widgets/lv_dropdown.c:99:5
	cbnz	r0, .LBB0_15
	b	.LBB0_13
.LBB0_13:
.Ltmp17:
	.loc	10 99 5                         @ lvgl/src/lv_widgets/lv_dropdown.c:99:5
	ldr	r2, [sp, #20]
	movw	r0, :lower16:.L.str
	movt	r0, :upper16:.L.str
	movs	r3, #0
	bl	lv_debug_log_error
	b	.LBB0_14
.LBB0_14:                               @ =>This Inner Loop Header: Depth=1
	b	.LBB0_14
.Ltmp18:
.LBB0_15:
	.loc	10 99 5                         @ lvgl/src/lv_widgets/lv_dropdown.c:99:5
	b	.LBB0_16
.Ltmp19:
.LBB0_16:
	.loc	10 100 8 is_stmt 1              @ lvgl/src/lv_widgets/lv_dropdown.c:100:8
	ldr	r0, [sp, #20]
.Ltmp20:
	.loc	10 100 8 is_stmt 0              @ lvgl/src/lv_widgets/lv_dropdown.c:100:8
	cbnz	r0, .LBB0_18
	b	.LBB0_17
.LBB0_17:
.Ltmp21:
	.loc	10 101 20 is_stmt 1             @ lvgl/src/lv_widgets/lv_dropdown.c:101:20
	ldr	r0, [sp, #24]
	.loc	10 101 9 is_stmt 0              @ lvgl/src/lv_widgets/lv_dropdown.c:101:9
	bl	lv_obj_del
	movs	r0, #0
	.loc	10 102 9 is_stmt 1              @ lvgl/src/lv_widgets/lv_dropdown.c:102:9
	str	r0, [sp, #36]
	b	.LBB0_28
.Ltmp22:
.LBB0_18:
	.loc	10 106 5                        @ lvgl/src/lv_widgets/lv_dropdown.c:106:5
	ldr	r1, [sp, #20]
	movs	r0, #0
	.loc	10 106 24 is_stmt 0             @ lvgl/src/lv_widgets/lv_dropdown.c:106:24
	str	r0, [r1]
	.loc	10 107 5 is_stmt 1              @ lvgl/src/lv_widgets/lv_dropdown.c:107:5
	ldr	r1, [sp, #20]
	.loc	10 107 22 is_stmt 0             @ lvgl/src/lv_widgets/lv_dropdown.c:107:22
	str	r0, [r1, #12]
	.loc	10 108 5 is_stmt 1              @ lvgl/src/lv_widgets/lv_dropdown.c:108:5
	ldr	r2, [sp, #20]
	.loc	10 108 25 is_stmt 0             @ lvgl/src/lv_widgets/lv_dropdown.c:108:25
	movw	r1, :lower16:.L.str.1
	movt	r1, :upper16:.L.str.1
	str	r1, [r2, #8]
	.loc	10 109 5 is_stmt 1              @ lvgl/src/lv_widgets/lv_dropdown.c:109:5
	ldr	r2, [sp, #20]
	.loc	10 109 23 is_stmt 0             @ lvgl/src/lv_widgets/lv_dropdown.c:109:23
	movw	r1, :lower16:.L.str.2
	movt	r1, :upper16:.L.str.2
	str	r1, [r2, #4]
	.loc	10 110 5 is_stmt 1              @ lvgl/src/lv_widgets/lv_dropdown.c:110:5
	ldr	r2, [sp, #20]
	.loc	10 110 21 is_stmt 0             @ lvgl/src/lv_widgets/lv_dropdown.c:110:21
	ldrb.w	r1, [r2, #50]
	orr	r1, r1, #8
	strb.w	r1, [r2, #50]
	.loc	10 111 5 is_stmt 1              @ lvgl/src/lv_widgets/lv_dropdown.c:111:5
	ldr	r2, [sp, #20]
	.loc	10 111 26 is_stmt 0             @ lvgl/src/lv_widgets/lv_dropdown.c:111:26
	ldrb.w	r1, [r2, #50]
	orr	r1, r1, #4
	strb.w	r1, [r2, #50]
	.loc	10 112 5 is_stmt 1              @ lvgl/src/lv_widgets/lv_dropdown.c:112:5
	ldr	r1, [sp, #20]
	.loc	10 112 26 is_stmt 0             @ lvgl/src/lv_widgets/lv_dropdown.c:112:26
	strh	r0, [r1, #44]
	.loc	10 113 5 is_stmt 1              @ lvgl/src/lv_widgets/lv_dropdown.c:113:5
	ldr	r1, [sp, #20]
	.loc	10 113 26 is_stmt 0             @ lvgl/src/lv_widgets/lv_dropdown.c:113:26
	strh	r0, [r1, #46]
	.loc	10 114 5 is_stmt 1              @ lvgl/src/lv_widgets/lv_dropdown.c:114:5
	ldr	r2, [sp, #20]
	movw	r1, #65535
	.loc	10 114 20 is_stmt 0             @ lvgl/src/lv_widgets/lv_dropdown.c:114:20
	strh	r1, [r2, #48]
	.loc	10 115 5 is_stmt 1              @ lvgl/src/lv_widgets/lv_dropdown.c:115:5
	ldr	r1, [sp, #20]
	.loc	10 115 26 is_stmt 0             @ lvgl/src/lv_widgets/lv_dropdown.c:115:26
	strh	r0, [r1, #42]
	.loc	10 116 5 is_stmt 1              @ lvgl/src/lv_widgets/lv_dropdown.c:116:5
	ldr	r2, [sp, #20]
	.loc	10 116 14 is_stmt 0             @ lvgl/src/lv_widgets/lv_dropdown.c:116:14
	ldrb.w	r1, [r2, #50]
	and	r1, r1, #252
	strb.w	r1, [r2, #50]
	.loc	10 117 28 is_stmt 1             @ lvgl/src/lv_widgets/lv_dropdown.c:117:28
	bl	lv_disp_get_ver_res
	.loc	10 117 26 is_stmt 0             @ lvgl/src/lv_widgets/lv_dropdown.c:117:26
	add.w	r0, r0, r0, lsl #1
	.loc	10 117 55                       @ lvgl/src/lv_widgets/lv_dropdown.c:117:55
	add.w	r0, r0, r0, lsr #30
	lsrs	r0, r0, #2
	.loc	10 117 5                        @ lvgl/src/lv_widgets/lv_dropdown.c:117:5
	ldr	r1, [sp, #20]
	.loc	10 117 21                       @ lvgl/src/lv_widgets/lv_dropdown.c:117:21
	strh	r0, [r1, #40]
	.loc	10 118 25 is_stmt 1             @ lvgl/src/lv_widgets/lv_dropdown.c:118:25
	ldr	r0, [sp, #20]
	.loc	10 118 30 is_stmt 0             @ lvgl/src/lv_widgets/lv_dropdown.c:118:30
	adds	r0, #24
	.loc	10 118 5                        @ lvgl/src/lv_widgets/lv_dropdown.c:118:5
	bl	lv_style_list_init
	.loc	10 119 25 is_stmt 1             @ lvgl/src/lv_widgets/lv_dropdown.c:119:25
	ldr	r0, [sp, #20]
	.loc	10 119 30 is_stmt 0             @ lvgl/src/lv_widgets/lv_dropdown.c:119:30
	adds	r0, #32
	.loc	10 119 5                        @ lvgl/src/lv_widgets/lv_dropdown.c:119:5
	bl	lv_style_list_init
	.loc	10 120 25 is_stmt 1             @ lvgl/src/lv_widgets/lv_dropdown.c:120:25
	ldr	r0, [sp, #20]
	.loc	10 120 30 is_stmt 0             @ lvgl/src/lv_widgets/lv_dropdown.c:120:30
	adds	r0, #16
	.loc	10 120 5                        @ lvgl/src/lv_widgets/lv_dropdown.c:120:5
	bl	lv_style_list_init
	.loc	10 123 26 is_stmt 1             @ lvgl/src/lv_widgets/lv_dropdown.c:123:26
	ldr	r0, [sp, #24]
	.loc	10 123 5 is_stmt 0              @ lvgl/src/lv_widgets/lv_dropdown.c:123:5
	movw	r1, :lower16:lv_dropdown_signal
	movt	r1, :upper16:lv_dropdown_signal
	bl	lv_obj_set_signal_cb
	.loc	10 124 26 is_stmt 1             @ lvgl/src/lv_widgets/lv_dropdown.c:124:26
	ldr	r0, [sp, #24]
	.loc	10 124 5 is_stmt 0              @ lvgl/src/lv_widgets/lv_dropdown.c:124:5
	movw	r1, :lower16:lv_dropdown_design
	movt	r1, :upper16:lv_dropdown_design
	bl	lv_obj_set_design_cb
.Ltmp23:
	.loc	10 127 8 is_stmt 1              @ lvgl/src/lv_widgets/lv_dropdown.c:127:8
	ldr	r0, [sp, #28]
.Ltmp24:
	.loc	10 127 8 is_stmt 0              @ lvgl/src/lv_widgets/lv_dropdown.c:127:8
	cbnz	r0, .LBB0_23
	b	.LBB0_19
.LBB0_19:
.Ltmp25:
	.loc	10 128 26 is_stmt 1             @ lvgl/src/lv_widgets/lv_dropdown.c:128:26
	ldr	r0, [sp, #24]
	.loc	10 128 34 is_stmt 0             @ lvgl/src/lv_widgets/lv_dropdown.c:128:34
	str	r0, [sp, #12]                   @ 4-byte Spill
	movs	r0, #0
	bl	lv_disp_get_dpi
	movs	r2, #80
	movs	r1, #150
	smlabb	r0, r0, r1, r2
	movw	r1, #26215
	movt	r1, #26214
	smmul	r1, r0, r1
	asrs	r0, r1, #6
	add.w	r0, r0, r1, lsr #31
	cmp	r0, #2
	blt	.LBB0_21
	b	.LBB0_20
.LBB0_20:
	.loc	10 0 34                         @ lvgl/src/lv_widgets/lv_dropdown.c:0:34
	movs	r0, #0
	.loc	10 128 34                       @ lvgl/src/lv_widgets/lv_dropdown.c:128:34
	bl	lv_disp_get_dpi
	movs	r2, #80
	movs	r1, #150
	smlabb	r0, r0, r1, r2
	movw	r1, #26215
	movt	r1, #26214
	smmul	r1, r0, r1
	asrs	r0, r1, #6
	add.w	r0, r0, r1, lsr #31
	str	r0, [sp, #8]                    @ 4-byte Spill
	b	.LBB0_22
.LBB0_21:
	.loc	10 0 34                         @ lvgl/src/lv_widgets/lv_dropdown.c:0:34
	movs	r0, #1
	.loc	10 128 34                       @ lvgl/src/lv_widgets/lv_dropdown.c:128:34
	str	r0, [sp, #8]                    @ 4-byte Spill
	b	.LBB0_22
.LBB0_22:
	ldr	r0, [sp, #12]                   @ 4-byte Reload
	ldr	r1, [sp, #8]                    @ 4-byte Reload
	.loc	10 128 9                        @ lvgl/src/lv_widgets/lv_dropdown.c:128:9
	sxth	r1, r1
	bl	lv_obj_set_width
	.loc	10 129 40 is_stmt 1             @ lvgl/src/lv_widgets/lv_dropdown.c:129:40
	ldr	r0, [sp, #24]
	.loc	10 129 9 is_stmt 0              @ lvgl/src/lv_widgets/lv_dropdown.c:129:9
	movw	r1, :lower16:.L.str.3
	movt	r1, :upper16:.L.str.3
	bl	lv_dropdown_set_options_static
	.loc	10 130 24 is_stmt 1             @ lvgl/src/lv_widgets/lv_dropdown.c:130:24
	ldr	r0, [sp, #24]
	movs	r1, #13
	.loc	10 130 9 is_stmt 0              @ lvgl/src/lv_widgets/lv_dropdown.c:130:9
	bl	lv_theme_apply
	.loc	10 131 5 is_stmt 1              @ lvgl/src/lv_widgets/lv_dropdown.c:131:5
	b	.LBB0_27
.Ltmp26:
.LBB0_23:
	.loc	10 134 60                       @ lvgl/src/lv_widgets/lv_dropdown.c:134:60
	ldr	r0, [sp, #28]
	.loc	10 134 40 is_stmt 0             @ lvgl/src/lv_widgets/lv_dropdown.c:134:40
	bl	lv_obj_get_ext_attr
	.loc	10 134 29                       @ lvgl/src/lv_widgets/lv_dropdown.c:134:29
	str	r0, [sp, #16]
.Ltmp27:
	.loc	10 135 12 is_stmt 1             @ lvgl/src/lv_widgets/lv_dropdown.c:135:12
	ldr	r0, [sp, #16]
	.loc	10 135 22 is_stmt 0             @ lvgl/src/lv_widgets/lv_dropdown.c:135:22
	ldrb.w	r0, [r0, #50]
	lsrs	r0, r0, #3
.Ltmp28:
	.loc	10 135 12                       @ lvgl/src/lv_widgets/lv_dropdown.c:135:12
	lsls	r0, r0, #31
	cbnz	r0, .LBB0_25
	b	.LBB0_24
.LBB0_24:
.Ltmp29:
	.loc	10 136 37 is_stmt 1             @ lvgl/src/lv_widgets/lv_dropdown.c:136:37
	ldr	r0, [sp, #24]
	.loc	10 136 69 is_stmt 0             @ lvgl/src/lv_widgets/lv_dropdown.c:136:69
	str	r0, [sp, #4]                    @ 4-byte Spill
	ldr	r0, [sp, #28]
	.loc	10 136 45                       @ lvgl/src/lv_widgets/lv_dropdown.c:136:45
	bl	lv_dropdown_get_options
	mov	r1, r0
	.loc	10 136 13                       @ lvgl/src/lv_widgets/lv_dropdown.c:136:13
	ldr	r0, [sp, #4]                    @ 4-byte Reload
	bl	lv_dropdown_set_options
	b	.LBB0_26
.LBB0_25:
	.loc	10 138 44 is_stmt 1             @ lvgl/src/lv_widgets/lv_dropdown.c:138:44
	ldr	r0, [sp, #24]
	.loc	10 138 76 is_stmt 0             @ lvgl/src/lv_widgets/lv_dropdown.c:138:76
	str	r0, [sp]                        @ 4-byte Spill
	ldr	r0, [sp, #28]
	.loc	10 138 52                       @ lvgl/src/lv_widgets/lv_dropdown.c:138:52
	bl	lv_dropdown_get_options
	mov	r1, r0
	.loc	10 138 13                       @ lvgl/src/lv_widgets/lv_dropdown.c:138:13
	ldr	r0, [sp]                        @ 4-byte Reload
	bl	lv_dropdown_set_options_static
	b	.LBB0_26
.Ltmp30:
.LBB0_26:
	.loc	10 139 34 is_stmt 1             @ lvgl/src/lv_widgets/lv_dropdown.c:139:34
	ldr	r0, [sp, #16]
	.loc	10 139 44 is_stmt 0             @ lvgl/src/lv_widgets/lv_dropdown.c:139:44
	ldrh	r0, [r0, #42]
	.loc	10 139 9                        @ lvgl/src/lv_widgets/lv_dropdown.c:139:9
	ldr	r1, [sp, #20]
	.loc	10 139 32                       @ lvgl/src/lv_widgets/lv_dropdown.c:139:32
	strh	r0, [r1, #42]
	.loc	10 140 31 is_stmt 1             @ lvgl/src/lv_widgets/lv_dropdown.c:140:31
	ldr	r0, [sp, #16]
	.loc	10 140 41 is_stmt 0             @ lvgl/src/lv_widgets/lv_dropdown.c:140:41
	ldrh	r0, [r0, #44]
	.loc	10 140 9                        @ lvgl/src/lv_widgets/lv_dropdown.c:140:9
	ldr	r1, [sp, #20]
	.loc	10 140 29                       @ lvgl/src/lv_widgets/lv_dropdown.c:140:29
	strh	r0, [r1, #44]
	.loc	10 141 32 is_stmt 1             @ lvgl/src/lv_widgets/lv_dropdown.c:141:32
	ldr	r0, [sp, #16]
	.loc	10 141 42 is_stmt 0             @ lvgl/src/lv_widgets/lv_dropdown.c:141:42
	ldrh	r0, [r0, #44]
	.loc	10 141 9                        @ lvgl/src/lv_widgets/lv_dropdown.c:141:9
	ldr	r1, [sp, #20]
	.loc	10 141 30                       @ lvgl/src/lv_widgets/lv_dropdown.c:141:30
	strh	r0, [r1, #46]
	.loc	10 142 33 is_stmt 1             @ lvgl/src/lv_widgets/lv_dropdown.c:142:33
	ldr	r0, [sp, #16]
	.loc	10 142 43 is_stmt 0             @ lvgl/src/lv_widgets/lv_dropdown.c:142:43
	ldr	r0, [r0, #8]
	.loc	10 142 9                        @ lvgl/src/lv_widgets/lv_dropdown.c:142:9
	ldr	r1, [sp, #20]
	.loc	10 142 31                       @ lvgl/src/lv_widgets/lv_dropdown.c:142:31
	str	r0, [r1, #8]
	.loc	10 143 32 is_stmt 1             @ lvgl/src/lv_widgets/lv_dropdown.c:143:32
	ldr	r0, [sp, #16]
	.loc	10 143 42 is_stmt 0             @ lvgl/src/lv_widgets/lv_dropdown.c:143:42
	ldrh	r0, [r0, #40]
	.loc	10 143 9                        @ lvgl/src/lv_widgets/lv_dropdown.c:143:9
	ldr	r1, [sp, #20]
	.loc	10 143 30                       @ lvgl/src/lv_widgets/lv_dropdown.c:143:30
	strh	r0, [r1, #40]
	.loc	10 144 26 is_stmt 1             @ lvgl/src/lv_widgets/lv_dropdown.c:144:26
	ldr	r0, [sp, #16]
	.loc	10 144 36 is_stmt 0             @ lvgl/src/lv_widgets/lv_dropdown.c:144:36
	ldr	r0, [r0, #4]
	.loc	10 144 9                        @ lvgl/src/lv_widgets/lv_dropdown.c:144:9
	ldr	r1, [sp, #20]
	.loc	10 144 24                       @ lvgl/src/lv_widgets/lv_dropdown.c:144:24
	str	r0, [r1, #4]
	.loc	10 145 25 is_stmt 1             @ lvgl/src/lv_widgets/lv_dropdown.c:145:25
	ldr	r0, [sp, #16]
	.loc	10 145 35 is_stmt 0             @ lvgl/src/lv_widgets/lv_dropdown.c:145:35
	ldrb.w	r0, [r0, #50]
	and	r2, r0, #3
	.loc	10 145 9                        @ lvgl/src/lv_widgets/lv_dropdown.c:145:9
	ldr	r1, [sp, #20]
	.loc	10 145 23                       @ lvgl/src/lv_widgets/lv_dropdown.c:145:23
	ldrb.w	r0, [r1, #50]
	and	r0, r0, #252
	add	r0, r2
	strb.w	r0, [r1, #50]
	.loc	10 146 35 is_stmt 1             @ lvgl/src/lv_widgets/lv_dropdown.c:146:35
	ldr	r0, [sp, #16]
	.loc	10 146 45 is_stmt 0             @ lvgl/src/lv_widgets/lv_dropdown.c:146:45
	ldrb.w	r2, [r0, #50]
	.loc	10 146 9                        @ lvgl/src/lv_widgets/lv_dropdown.c:146:9
	ldr	r1, [sp, #20]
	.loc	10 146 33                       @ lvgl/src/lv_widgets/lv_dropdown.c:146:33
	ldrb.w	r0, [r1, #50]
	and	r2, r2, #4
	and	r0, r0, #251
	add	r0, r2
	strb.w	r0, [r1, #50]
	.loc	10 147 29 is_stmt 1             @ lvgl/src/lv_widgets/lv_dropdown.c:147:29
	ldr	r0, [sp, #20]
	.loc	10 147 34 is_stmt 0             @ lvgl/src/lv_widgets/lv_dropdown.c:147:34
	adds	r0, #24
	.loc	10 147 47                       @ lvgl/src/lv_widgets/lv_dropdown.c:147:47
	ldr	r1, [sp, #16]
	.loc	10 147 57                       @ lvgl/src/lv_widgets/lv_dropdown.c:147:57
	adds	r1, #24
	.loc	10 147 9                        @ lvgl/src/lv_widgets/lv_dropdown.c:147:9
	bl	lv_style_list_copy
	.loc	10 148 29 is_stmt 1             @ lvgl/src/lv_widgets/lv_dropdown.c:148:29
	ldr	r0, [sp, #20]
	.loc	10 148 34 is_stmt 0             @ lvgl/src/lv_widgets/lv_dropdown.c:148:34
	adds	r0, #16
	.loc	10 148 51                       @ lvgl/src/lv_widgets/lv_dropdown.c:148:51
	ldr	r1, [sp, #16]
	.loc	10 148 61                       @ lvgl/src/lv_widgets/lv_dropdown.c:148:61
	adds	r1, #16
	.loc	10 148 9                        @ lvgl/src/lv_widgets/lv_dropdown.c:148:9
	bl	lv_style_list_copy
	.loc	10 149 29 is_stmt 1             @ lvgl/src/lv_widgets/lv_dropdown.c:149:29
	ldr	r0, [sp, #20]
	.loc	10 149 34 is_stmt 0             @ lvgl/src/lv_widgets/lv_dropdown.c:149:34
	adds	r0, #32
	.loc	10 149 50                       @ lvgl/src/lv_widgets/lv_dropdown.c:149:50
	ldr	r1, [sp, #16]
	.loc	10 149 60                       @ lvgl/src/lv_widgets/lv_dropdown.c:149:60
	adds	r1, #32
	.loc	10 149 9                        @ lvgl/src/lv_widgets/lv_dropdown.c:149:9
	bl	lv_style_list_copy
	b	.LBB0_27
.Ltmp31:
.LBB0_27:
	.loc	10 154 12 is_stmt 1             @ lvgl/src/lv_widgets/lv_dropdown.c:154:12
	ldr	r0, [sp, #24]
	.loc	10 154 5 is_stmt 0              @ lvgl/src/lv_widgets/lv_dropdown.c:154:5
	str	r0, [sp, #36]
	b	.LBB0_28
.LBB0_28:
	.loc	10 155 1 is_stmt 1              @ lvgl/src/lv_widgets/lv_dropdown.c:155:1
	ldr	r0, [sp, #36]
	add	sp, #40
	pop	{r7, pc}
.Ltmp32:
.Lfunc_end0:
	.size	lv_dropdown_create, .Lfunc_end0-lv_dropdown_create
	.cfi_endproc
	.cantunwind
	.fnend
                                        @ -- End function
	.section	.text.lv_dropdown_signal,"ax",%progbits
	.p2align	3                               @ -- Begin function lv_dropdown_signal
	.type	lv_dropdown_signal,%function
	.code	16                              @ @lv_dropdown_signal
	.thumb_func
lv_dropdown_signal:
.Lfunc_begin1:
	.loc	10 897 0                        @ lvgl/src/lv_widgets/lv_dropdown.c:897:0
	.fnstart
	.cfi_startproc
@ %bb.0:
	.save	{r7, lr}
	push	{r7, lr}
	.cfi_def_cfa_offset 8
	.cfi_offset lr, -4
	.cfi_offset r7, -8
	.pad	#80
	sub	sp, #80
	.cfi_def_cfa_offset 88
                                        @ kill: def $r3 killed $r1
	str	r0, [sp, #72]
	strb.w	r1, [sp, #71]
	str	r2, [sp, #64]
.Ltmp33:
	.loc	10 901 11 prologue_end          @ lvgl/src/lv_widgets/lv_dropdown.c:901:11
	movw	r0, :lower16:ancestor_signal
	movt	r0, :upper16:ancestor_signal
	ldr	r3, [r0]
	.loc	10 901 27 is_stmt 0             @ lvgl/src/lv_widgets/lv_dropdown.c:901:27
	ldr	r0, [sp, #72]
	.loc	10 901 35                       @ lvgl/src/lv_widgets/lv_dropdown.c:901:35
	ldrb.w	r1, [sp, #71]
	.loc	10 901 41                       @ lvgl/src/lv_widgets/lv_dropdown.c:901:41
	ldr	r2, [sp, #64]
	.loc	10 901 11                       @ lvgl/src/lv_widgets/lv_dropdown.c:901:11
	blx	r3
	.loc	10 901 9                        @ lvgl/src/lv_widgets/lv_dropdown.c:901:9
	strb.w	r0, [sp, #63]
.Ltmp34:
	.loc	10 902 8 is_stmt 1              @ lvgl/src/lv_widgets/lv_dropdown.c:902:8
	ldrb.w	r0, [sp, #63]
.Ltmp35:
	.loc	10 902 8 is_stmt 0              @ lvgl/src/lv_widgets/lv_dropdown.c:902:8
	cmp	r0, #1
	beq	.LBB1_2
	b	.LBB1_1
.LBB1_1:
.Ltmp36:
	.loc	10 902 33                       @ lvgl/src/lv_widgets/lv_dropdown.c:902:33
	ldrb.w	r0, [sp, #63]
	.loc	10 902 26                       @ lvgl/src/lv_widgets/lv_dropdown.c:902:26
	strb.w	r0, [sp, #79]
	b	.LBB1_84
.Ltmp37:
.LBB1_2:
	.loc	10 903 8 is_stmt 1              @ lvgl/src/lv_widgets/lv_dropdown.c:903:8
	ldrb.w	r0, [sp, #71]
.Ltmp38:
	.loc	10 903 8 is_stmt 0              @ lvgl/src/lv_widgets/lv_dropdown.c:903:8
	cmp	r0, #7
	bne	.LBB1_4
	b	.LBB1_3
.LBB1_3:
.Ltmp39:
	.loc	10 903 73                       @ lvgl/src/lv_widgets/lv_dropdown.c:903:73
	ldr	r0, [sp, #64]
	.loc	10 903 43                       @ lvgl/src/lv_widgets/lv_dropdown.c:903:43
	movw	r1, :lower16:.L.str.6
	movt	r1, :upper16:.L.str.6
	bl	lv_obj_handle_get_type_signal
	.loc	10 903 36                       @ lvgl/src/lv_widgets/lv_dropdown.c:903:36
	strb.w	r0, [sp, #79]
	b	.LBB1_84
.Ltmp40:
.LBB1_4:
	.loc	10 905 51 is_stmt 1             @ lvgl/src/lv_widgets/lv_dropdown.c:905:51
	ldr	r0, [sp, #72]
	.loc	10 905 31 is_stmt 0             @ lvgl/src/lv_widgets/lv_dropdown.c:905:31
	bl	lv_obj_get_ext_attr
	.loc	10 905 25                       @ lvgl/src/lv_widgets/lv_dropdown.c:905:25
	str	r0, [sp, #56]
.Ltmp41:
	.loc	10 907 8 is_stmt 1              @ lvgl/src/lv_widgets/lv_dropdown.c:907:8
	ldrb.w	r0, [sp, #71]
.Ltmp42:
	.loc	10 907 8 is_stmt 0              @ lvgl/src/lv_widgets/lv_dropdown.c:907:8
	cmp	r0, #8
	bne	.LBB1_8
	b	.LBB1_5
.LBB1_5:
.Ltmp43:
	.loc	10 908 38 is_stmt 1             @ lvgl/src/lv_widgets/lv_dropdown.c:908:38
	ldr	r0, [sp, #64]
	.loc	10 908 31 is_stmt 0             @ lvgl/src/lv_widgets/lv_dropdown.c:908:31
	str	r0, [sp, #52]
	.loc	10 909 46 is_stmt 1             @ lvgl/src/lv_widgets/lv_dropdown.c:909:46
	ldr	r0, [sp, #72]
	.loc	10 909 54 is_stmt 0             @ lvgl/src/lv_widgets/lv_dropdown.c:909:54
	ldr	r1, [sp, #52]
	.loc	10 909 60                       @ lvgl/src/lv_widgets/lv_dropdown.c:909:60
	ldrb	r1, [r1]
	.loc	10 909 24                       @ lvgl/src/lv_widgets/lv_dropdown.c:909:24
	bl	lv_dropdown_get_style
	.loc	10 909 9                        @ lvgl/src/lv_widgets/lv_dropdown.c:909:9
	ldr	r1, [sp, #52]
	.loc	10 909 22                       @ lvgl/src/lv_widgets/lv_dropdown.c:909:22
	str	r0, [r1, #4]
.Ltmp44:
	.loc	10 910 12 is_stmt 1             @ lvgl/src/lv_widgets/lv_dropdown.c:910:12
	ldr	r0, [sp, #52]
	.loc	10 910 18 is_stmt 0             @ lvgl/src/lv_widgets/lv_dropdown.c:910:18
	ldr	r0, [r0, #4]
.Ltmp45:
	.loc	10 910 12                       @ lvgl/src/lv_widgets/lv_dropdown.c:910:12
	cbz	r0, .LBB1_7
	b	.LBB1_6
.LBB1_6:
	.loc	10 0 12                         @ lvgl/src/lv_widgets/lv_dropdown.c:0:12
	movs	r0, #1
.Ltmp46:
	.loc	10 910 34                       @ lvgl/src/lv_widgets/lv_dropdown.c:910:34
	strb.w	r0, [sp, #79]
	b	.LBB1_84
.Ltmp47:
.LBB1_7:
	.loc	10 0 34                         @ lvgl/src/lv_widgets/lv_dropdown.c:0:34
	movs	r0, #1
	.loc	10 911 9 is_stmt 1              @ lvgl/src/lv_widgets/lv_dropdown.c:911:9
	strb.w	r0, [sp, #79]
	b	.LBB1_84
.Ltmp48:
.LBB1_8:
	.loc	10 913 13                       @ lvgl/src/lv_widgets/lv_dropdown.c:913:13
	ldrb.w	r0, [sp, #71]
.Ltmp49:
	.loc	10 913 13 is_stmt 0             @ lvgl/src/lv_widgets/lv_dropdown.c:913:13
	cmp	r0, #9
	bne	.LBB1_14
	b	.LBB1_9
.LBB1_9:
.Ltmp50:
	.loc	10 914 38 is_stmt 1             @ lvgl/src/lv_widgets/lv_dropdown.c:914:38
	ldr	r0, [sp, #64]
	.loc	10 914 31 is_stmt 0             @ lvgl/src/lv_widgets/lv_dropdown.c:914:31
	str	r0, [sp, #48]
.Ltmp51:
	.loc	10 915 12 is_stmt 1             @ lvgl/src/lv_widgets/lv_dropdown.c:915:12
	ldr	r0, [sp, #48]
	.loc	10 915 18 is_stmt 0             @ lvgl/src/lv_widgets/lv_dropdown.c:915:18
	ldrb	r0, [r0]
	.loc	10 915 48                       @ lvgl/src/lv_widgets/lv_dropdown.c:915:48
	cmp	r0, #64
	beq	.LBB1_12
	b	.LBB1_10
.LBB1_10:
	.loc	10 916 12 is_stmt 1             @ lvgl/src/lv_widgets/lv_dropdown.c:916:12
	ldr	r0, [sp, #48]
	.loc	10 916 18 is_stmt 0             @ lvgl/src/lv_widgets/lv_dropdown.c:916:18
	ldrb	r0, [r0]
	.loc	10 916 53                       @ lvgl/src/lv_widgets/lv_dropdown.c:916:53
	cmp	r0, #65
	beq	.LBB1_12
	b	.LBB1_11
.LBB1_11:
	.loc	10 917 12 is_stmt 1             @ lvgl/src/lv_widgets/lv_dropdown.c:917:12
	ldr	r0, [sp, #48]
	.loc	10 917 18 is_stmt 0             @ lvgl/src/lv_widgets/lv_dropdown.c:917:18
	ldrb	r0, [r0]
.Ltmp52:
	.loc	10 915 12 is_stmt 1             @ lvgl/src/lv_widgets/lv_dropdown.c:915:12
	cmp	r0, #66
	bne	.LBB1_13
	b	.LBB1_12
.LBB1_12:
.Ltmp53:
	.loc	10 918 45                       @ lvgl/src/lv_widgets/lv_dropdown.c:918:45
	ldr	r0, [sp, #56]
	.loc	10 918 50 is_stmt 0             @ lvgl/src/lv_widgets/lv_dropdown.c:918:50
	ldr	r0, [r0]
	movs	r1, #0
	.loc	10 918 28                       @ lvgl/src/lv_widgets/lv_dropdown.c:918:28
	bl	lv_obj_get_state
	.loc	10 918 13                       @ lvgl/src/lv_widgets/lv_dropdown.c:918:13
	ldr	r1, [sp, #48]
	.loc	10 918 26                       @ lvgl/src/lv_widgets/lv_dropdown.c:918:26
	strb	r0, [r1, #1]
	.loc	10 919 9 is_stmt 1              @ lvgl/src/lv_widgets/lv_dropdown.c:919:9
	b	.LBB1_13
.Ltmp54:
.LBB1_13:
	.loc	10 920 5                        @ lvgl/src/lv_widgets/lv_dropdown.c:920:5
	b	.LBB1_82
.Ltmp55:
.LBB1_14:
	.loc	10 921 13                       @ lvgl/src/lv_widgets/lv_dropdown.c:921:13
	ldrb.w	r0, [sp, #71]
.Ltmp56:
	.loc	10 921 13 is_stmt 0             @ lvgl/src/lv_widgets/lv_dropdown.c:921:13
	cbnz	r0, .LBB1_18
	b	.LBB1_15
.LBB1_15:
.Ltmp57:
	.loc	10 922 27 is_stmt 1             @ lvgl/src/lv_widgets/lv_dropdown.c:922:27
	ldr	r0, [sp, #72]
	.loc	10 922 9 is_stmt 0              @ lvgl/src/lv_widgets/lv_dropdown.c:922:9
	bl	lv_dropdown_close
.Ltmp58:
	.loc	10 923 12 is_stmt 1             @ lvgl/src/lv_widgets/lv_dropdown.c:923:12
	ldr	r0, [sp, #56]
	.loc	10 923 17 is_stmt 0             @ lvgl/src/lv_widgets/lv_dropdown.c:923:17
	ldrb.w	r0, [r0, #50]
	lsrs	r0, r0, #3
.Ltmp59:
	.loc	10 923 12                       @ lvgl/src/lv_widgets/lv_dropdown.c:923:12
	lsls	r0, r0, #31
	cbnz	r0, .LBB1_17
	b	.LBB1_16
.LBB1_16:
.Ltmp60:
	.loc	10 924 25 is_stmt 1             @ lvgl/src/lv_widgets/lv_dropdown.c:924:25
	ldr	r0, [sp, #56]
	.loc	10 924 30 is_stmt 0             @ lvgl/src/lv_widgets/lv_dropdown.c:924:30
	ldr	r0, [r0, #12]
	.loc	10 924 13                       @ lvgl/src/lv_widgets/lv_dropdown.c:924:13
	bl	lv_mem_free
	.loc	10 925 13 is_stmt 1             @ lvgl/src/lv_widgets/lv_dropdown.c:925:13
	ldr	r1, [sp, #56]
	movs	r0, #0
	.loc	10 925 26 is_stmt 0             @ lvgl/src/lv_widgets/lv_dropdown.c:925:26
	str	r0, [r1, #12]
	.loc	10 926 9 is_stmt 1              @ lvgl/src/lv_widgets/lv_dropdown.c:926:9
	b	.LBB1_17
.Ltmp61:
.LBB1_17:
	.loc	10 930 31                       @ lvgl/src/lv_widgets/lv_dropdown.c:930:31
	ldr	r0, [sp, #56]
	.loc	10 930 36 is_stmt 0             @ lvgl/src/lv_widgets/lv_dropdown.c:930:36
	adds	r0, #24
	.loc	10 930 9                        @ lvgl/src/lv_widgets/lv_dropdown.c:930:9
	bl	_lv_style_list_reset
	.loc	10 931 31 is_stmt 1             @ lvgl/src/lv_widgets/lv_dropdown.c:931:31
	ldr	r0, [sp, #56]
	.loc	10 931 36 is_stmt 0             @ lvgl/src/lv_widgets/lv_dropdown.c:931:36
	adds	r0, #32
	.loc	10 931 9                        @ lvgl/src/lv_widgets/lv_dropdown.c:931:9
	bl	_lv_style_list_reset
	.loc	10 932 31 is_stmt 1             @ lvgl/src/lv_widgets/lv_dropdown.c:932:31
	ldr	r0, [sp, #56]
	.loc	10 932 36 is_stmt 0             @ lvgl/src/lv_widgets/lv_dropdown.c:932:36
	adds	r0, #16
	.loc	10 932 9                        @ lvgl/src/lv_widgets/lv_dropdown.c:932:9
	bl	_lv_style_list_reset
	.loc	10 934 5 is_stmt 1              @ lvgl/src/lv_widgets/lv_dropdown.c:934:5
	b	.LBB1_81
.Ltmp62:
.LBB1_18:
	.loc	10 935 13                       @ lvgl/src/lv_widgets/lv_dropdown.c:935:13
	ldrb.w	r0, [sp, #71]
.Ltmp63:
	.loc	10 935 13 is_stmt 0             @ lvgl/src/lv_widgets/lv_dropdown.c:935:13
	cmp	r0, #22
	bne	.LBB1_25
	b	.LBB1_19
.LBB1_19:
.Ltmp64:
	.loc	10 937 55 is_stmt 1             @ lvgl/src/lv_widgets/lv_dropdown.c:937:55
	ldr	r0, [sp, #72]
	.loc	10 937 38 is_stmt 0             @ lvgl/src/lv_widgets/lv_dropdown.c:937:38
	bl	lv_obj_get_group
	.loc	10 937 22                       @ lvgl/src/lv_widgets/lv_dropdown.c:937:22
	str	r0, [sp, #44]
	.loc	10 938 59 is_stmt 1             @ lvgl/src/lv_widgets/lv_dropdown.c:938:59
	ldr	r0, [sp, #44]
	.loc	10 938 38 is_stmt 0             @ lvgl/src/lv_widgets/lv_dropdown.c:938:38
	bl	lv_group_get_editing
	.loc	10 938 14                       @ lvgl/src/lv_widgets/lv_dropdown.c:938:14
	strb.w	r0, [sp, #43]
	.loc	10 939 56 is_stmt 1             @ lvgl/src/lv_widgets/lv_dropdown.c:939:56
	bl	lv_indev_get_act
	.loc	10 939 38 is_stmt 0             @ lvgl/src/lv_widgets/lv_dropdown.c:939:38
	bl	lv_indev_get_type
	.loc	10 939 25                       @ lvgl/src/lv_widgets/lv_dropdown.c:939:25
	strb.w	r0, [sp, #42]
.Ltmp65:
	.loc	10 942 12 is_stmt 1             @ lvgl/src/lv_widgets/lv_dropdown.c:942:12
	ldrb.w	r0, [sp, #42]
.Ltmp66:
	.loc	10 942 12 is_stmt 0             @ lvgl/src/lv_widgets/lv_dropdown.c:942:12
	cmp	r0, #4
	bne	.LBB1_24
	b	.LBB1_20
.LBB1_20:
.Ltmp67:
	.loc	10 944 16 is_stmt 1             @ lvgl/src/lv_widgets/lv_dropdown.c:944:16
	ldrb.w	r0, [sp, #43]
.Ltmp68:
	.loc	10 944 16 is_stmt 0             @ lvgl/src/lv_widgets/lv_dropdown.c:944:16
	lsls	r0, r0, #31
	cbz	r0, .LBB1_22
	b	.LBB1_21
.LBB1_21:
.Ltmp69:
	.loc	10 944 42                       @ lvgl/src/lv_widgets/lv_dropdown.c:944:42
	ldr	r0, [sp, #72]
	.loc	10 944 25                       @ lvgl/src/lv_widgets/lv_dropdown.c:944:25
	bl	lv_dropdown_open
	b	.LBB1_23
.LBB1_22:
	.loc	10 947 35 is_stmt 1             @ lvgl/src/lv_widgets/lv_dropdown.c:947:35
	ldr	r0, [sp, #72]
	.loc	10 947 17 is_stmt 0             @ lvgl/src/lv_widgets/lv_dropdown.c:947:17
	bl	lv_dropdown_close
	b	.LBB1_23
.Ltmp70:
.LBB1_23:
	.loc	10 948 9 is_stmt 1              @ lvgl/src/lv_widgets/lv_dropdown.c:948:9
	b	.LBB1_24
.Ltmp71:
.LBB1_24:
	.loc	10 950 5                        @ lvgl/src/lv_widgets/lv_dropdown.c:950:5
	b	.LBB1_80
.Ltmp72:
.LBB1_25:
	.loc	10 951 13                       @ lvgl/src/lv_widgets/lv_dropdown.c:951:13
	ldrb.w	r0, [sp, #71]
	.loc	10 951 39 is_stmt 0             @ lvgl/src/lv_widgets/lv_dropdown.c:951:39
	cmp	r0, #23
	beq	.LBB1_27
	b	.LBB1_26
.LBB1_26:
	.loc	10 951 42                       @ lvgl/src/lv_widgets/lv_dropdown.c:951:42
	ldrb.w	r0, [sp, #71]
.Ltmp73:
	.loc	10 951 13                       @ lvgl/src/lv_widgets/lv_dropdown.c:951:13
	cmp	r0, #21
	bne	.LBB1_28
	b	.LBB1_27
.LBB1_27:
.Ltmp74:
	.loc	10 952 27 is_stmt 1             @ lvgl/src/lv_widgets/lv_dropdown.c:952:27
	ldr	r0, [sp, #72]
	.loc	10 952 9 is_stmt 0              @ lvgl/src/lv_widgets/lv_dropdown.c:952:9
	bl	lv_dropdown_close
	.loc	10 953 5 is_stmt 1              @ lvgl/src/lv_widgets/lv_dropdown.c:953:5
	b	.LBB1_79
.Ltmp75:
.LBB1_28:
	.loc	10 954 13                       @ lvgl/src/lv_widgets/lv_dropdown.c:954:13
	ldrb.w	r0, [sp, #71]
.Ltmp76:
	.loc	10 954 13 is_stmt 0             @ lvgl/src/lv_widgets/lv_dropdown.c:954:13
	cmp	r0, #14
	bne	.LBB1_42
	b	.LBB1_29
.LBB1_29:
.Ltmp77:
	.loc	10 955 30 is_stmt 1             @ lvgl/src/lv_widgets/lv_dropdown.c:955:30
	bl	lv_indev_get_act
	.loc	10 955 22 is_stmt 0             @ lvgl/src/lv_widgets/lv_dropdown.c:955:22
	str	r0, [sp, #36]
.Ltmp78:
	.loc	10 956 33 is_stmt 1             @ lvgl/src/lv_widgets/lv_dropdown.c:956:33
	ldr	r0, [sp, #36]
	.loc	10 956 12 is_stmt 0             @ lvgl/src/lv_widgets/lv_dropdown.c:956:12
	bl	lv_indev_is_dragging
.Ltmp79:
	.loc	10 956 12                       @ lvgl/src/lv_widgets/lv_dropdown.c:956:12
	cmp	r0, #0
	bne	.LBB1_40
	b	.LBB1_30
.LBB1_30:
.Ltmp80:
	.loc	10 957 16 is_stmt 1             @ lvgl/src/lv_widgets/lv_dropdown.c:957:16
	ldr	r0, [sp, #56]
	.loc	10 957 21 is_stmt 0             @ lvgl/src/lv_widgets/lv_dropdown.c:957:21
	ldr	r0, [r0]
.Ltmp81:
	.loc	10 957 16                       @ lvgl/src/lv_widgets/lv_dropdown.c:957:16
	cbz	r0, .LBB1_38
	b	.LBB1_31
.LBB1_31:
.Ltmp82:
	.loc	10 958 35 is_stmt 1             @ lvgl/src/lv_widgets/lv_dropdown.c:958:35
	ldr	r0, [sp, #72]
	.loc	10 958 17 is_stmt 0             @ lvgl/src/lv_widgets/lv_dropdown.c:958:17
	bl	lv_dropdown_close
.Ltmp83:
	.loc	10 959 20 is_stmt 1             @ lvgl/src/lv_widgets/lv_dropdown.c:959:20
	ldr	r1, [sp, #56]
	.loc	10 959 25 is_stmt 0             @ lvgl/src/lv_widgets/lv_dropdown.c:959:25
	ldrh	r0, [r1, #46]
	.loc	10 959 49                       @ lvgl/src/lv_widgets/lv_dropdown.c:959:49
	ldrh	r1, [r1, #44]
.Ltmp84:
	.loc	10 959 20                       @ lvgl/src/lv_widgets/lv_dropdown.c:959:20
	cmp	r0, r1
	beq	.LBB1_35
	b	.LBB1_32
.LBB1_32:
.Ltmp85:
	.loc	10 960 44 is_stmt 1             @ lvgl/src/lv_widgets/lv_dropdown.c:960:44
	ldr	r1, [sp, #56]
	.loc	10 960 49 is_stmt 0             @ lvgl/src/lv_widgets/lv_dropdown.c:960:49
	ldrh	r0, [r1, #44]
	.loc	10 960 42                       @ lvgl/src/lv_widgets/lv_dropdown.c:960:42
	strh	r0, [r1, #46]
	.loc	10 961 36 is_stmt 1             @ lvgl/src/lv_widgets/lv_dropdown.c:961:36
	ldr	r0, [sp, #56]
	.loc	10 961 41 is_stmt 0             @ lvgl/src/lv_widgets/lv_dropdown.c:961:41
	ldrh	r0, [r0, #44]
	.loc	10 961 30                       @ lvgl/src/lv_widgets/lv_dropdown.c:961:30
	str	r0, [sp, #32]
	.loc	10 962 41 is_stmt 1             @ lvgl/src/lv_widgets/lv_dropdown.c:962:41
	ldr	r0, [sp, #72]
	movs	r1, #16
	add	r2, sp, #32
	.loc	10 962 27 is_stmt 0             @ lvgl/src/lv_widgets/lv_dropdown.c:962:27
	bl	lv_event_send
	.loc	10 962 25                       @ lvgl/src/lv_widgets/lv_dropdown.c:962:25
	strb.w	r0, [sp, #63]
.Ltmp86:
	.loc	10 963 24 is_stmt 1             @ lvgl/src/lv_widgets/lv_dropdown.c:963:24
	ldrb.w	r0, [sp, #63]
.Ltmp87:
	.loc	10 963 24 is_stmt 0             @ lvgl/src/lv_widgets/lv_dropdown.c:963:24
	cmp	r0, #1
	beq	.LBB1_34
	b	.LBB1_33
.LBB1_33:
.Ltmp88:
	.loc	10 963 49                       @ lvgl/src/lv_widgets/lv_dropdown.c:963:49
	ldrb.w	r0, [sp, #63]
	.loc	10 963 42                       @ lvgl/src/lv_widgets/lv_dropdown.c:963:42
	strb.w	r0, [sp, #79]
	b	.LBB1_84
.Ltmp89:
.LBB1_34:
	.loc	10 964 39 is_stmt 1             @ lvgl/src/lv_widgets/lv_dropdown.c:964:39
	ldr	r0, [sp, #72]
	.loc	10 964 21 is_stmt 0             @ lvgl/src/lv_widgets/lv_dropdown.c:964:21
	bl	lv_obj_invalidate
	.loc	10 965 17 is_stmt 1             @ lvgl/src/lv_widgets/lv_dropdown.c:965:17
	b	.LBB1_35
.Ltmp90:
.LBB1_35:
	.loc	10 967 64                       @ lvgl/src/lv_widgets/lv_dropdown.c:967:64
	ldr	r0, [sp, #36]
	.loc	10 967 46 is_stmt 0             @ lvgl/src/lv_widgets/lv_dropdown.c:967:46
	bl	lv_indev_get_type
	.loc	10 967 33                       @ lvgl/src/lv_widgets/lv_dropdown.c:967:33
	strb.w	r0, [sp, #31]
.Ltmp91:
	.loc	10 968 20 is_stmt 1             @ lvgl/src/lv_widgets/lv_dropdown.c:968:20
	ldrb.w	r0, [sp, #31]
.Ltmp92:
	.loc	10 968 20 is_stmt 0             @ lvgl/src/lv_widgets/lv_dropdown.c:968:20
	cmp	r0, #4
	bne	.LBB1_37
	b	.LBB1_36
.LBB1_36:
.Ltmp93:
	.loc	10 969 59 is_stmt 1             @ lvgl/src/lv_widgets/lv_dropdown.c:969:59
	ldr	r0, [sp, #72]
	.loc	10 969 42 is_stmt 0             @ lvgl/src/lv_widgets/lv_dropdown.c:969:42
	bl	lv_obj_get_group
	movs	r1, #0
	.loc	10 969 21                       @ lvgl/src/lv_widgets/lv_dropdown.c:969:21
	bl	lv_group_set_editing
	.loc	10 970 17 is_stmt 1             @ lvgl/src/lv_widgets/lv_dropdown.c:970:17
	b	.LBB1_37
.Ltmp94:
.LBB1_37:
	.loc	10 972 13                       @ lvgl/src/lv_widgets/lv_dropdown.c:972:13
	b	.LBB1_39
.Ltmp95:
.LBB1_38:
	.loc	10 974 34                       @ lvgl/src/lv_widgets/lv_dropdown.c:974:34
	ldr	r0, [sp, #72]
	.loc	10 974 17 is_stmt 0             @ lvgl/src/lv_widgets/lv_dropdown.c:974:17
	bl	lv_dropdown_open
	b	.LBB1_39
.Ltmp96:
.LBB1_39:
	.loc	10 976 9 is_stmt 1              @ lvgl/src/lv_widgets/lv_dropdown.c:976:9
	b	.LBB1_41
.Ltmp97:
.LBB1_40:
	.loc	10 978 31                       @ lvgl/src/lv_widgets/lv_dropdown.c:978:31
	ldr	r1, [sp, #56]
	.loc	10 978 36 is_stmt 0             @ lvgl/src/lv_widgets/lv_dropdown.c:978:36
	ldrh	r0, [r1, #46]
	.loc	10 978 29                       @ lvgl/src/lv_widgets/lv_dropdown.c:978:29
	strh	r0, [r1, #44]
	.loc	10 979 31 is_stmt 1             @ lvgl/src/lv_widgets/lv_dropdown.c:979:31
	ldr	r0, [sp, #72]
	.loc	10 979 13 is_stmt 0             @ lvgl/src/lv_widgets/lv_dropdown.c:979:13
	bl	lv_obj_invalidate
	b	.LBB1_41
.Ltmp98:
.LBB1_41:
	.loc	10 981 5 is_stmt 1              @ lvgl/src/lv_widgets/lv_dropdown.c:981:5
	b	.LBB1_78
.Ltmp99:
.LBB1_42:
	.loc	10 982 13                       @ lvgl/src/lv_widgets/lv_dropdown.c:982:13
	ldrb.w	r0, [sp, #71]
.Ltmp100:
	.loc	10 982 13 is_stmt 0             @ lvgl/src/lv_widgets/lv_dropdown.c:982:13
	cmp	r0, #2
	bne	.LBB1_46
	b	.LBB1_43
.LBB1_43:
.Ltmp101:
	.loc	10 983 12 is_stmt 1             @ lvgl/src/lv_widgets/lv_dropdown.c:983:12
	ldr	r0, [sp, #56]
	.loc	10 983 17 is_stmt 0             @ lvgl/src/lv_widgets/lv_dropdown.c:983:17
	ldr	r0, [r0]
.Ltmp102:
	.loc	10 983 12                       @ lvgl/src/lv_widgets/lv_dropdown.c:983:12
	cbz	r0, .LBB1_45
	b	.LBB1_44
.LBB1_44:
.Ltmp103:
	.loc	10 983 41                       @ lvgl/src/lv_widgets/lv_dropdown.c:983:41
	ldr	r0, [sp, #72]
	.loc	10 983 23                       @ lvgl/src/lv_widgets/lv_dropdown.c:983:23
	bl	lv_dropdown_close
	b	.LBB1_45
.Ltmp104:
.LBB1_45:
	.loc	10 984 5 is_stmt 1              @ lvgl/src/lv_widgets/lv_dropdown.c:984:5
	b	.LBB1_77
.Ltmp105:
.LBB1_46:
	.loc	10 985 13                       @ lvgl/src/lv_widgets/lv_dropdown.c:985:13
	ldrb.w	r0, [sp, #71]
.Ltmp106:
	.loc	10 985 13 is_stmt 0             @ lvgl/src/lv_widgets/lv_dropdown.c:985:13
	cmp	r0, #4
	bne	.LBB1_50
	b	.LBB1_47
.LBB1_47:
.Ltmp107:
	.loc	10 986 55 is_stmt 1             @ lvgl/src/lv_widgets/lv_dropdown.c:986:55
	ldr	r0, [sp, #72]
	movs	r1, #0
	.loc	10 986 30 is_stmt 0             @ lvgl/src/lv_widgets/lv_dropdown.c:986:30
	str	r1, [sp]                        @ 4-byte Spill
	bl	lv_obj_get_style_pad_top
	ldr	r1, [sp]                        @ 4-byte Reload
	.loc	10 986 24                       @ lvgl/src/lv_widgets/lv_dropdown.c:986:24
	strh.w	r0, [sp, #28]
	.loc	10 987 61 is_stmt 1             @ lvgl/src/lv_widgets/lv_dropdown.c:987:61
	ldr	r0, [sp, #72]
	.loc	10 987 33 is_stmt 0             @ lvgl/src/lv_widgets/lv_dropdown.c:987:33
	bl	lv_obj_get_style_pad_bottom
	ldr	r1, [sp]                        @ 4-byte Reload
	.loc	10 987 24                       @ lvgl/src/lv_widgets/lv_dropdown.c:987:24
	strh.w	r0, [sp, #26]
	.loc	10 988 61 is_stmt 1             @ lvgl/src/lv_widgets/lv_dropdown.c:988:61
	ldr	r0, [sp, #72]
	.loc	10 988 34 is_stmt 0             @ lvgl/src/lv_widgets/lv_dropdown.c:988:34
	bl	lv_obj_get_style_text_font
	.loc	10 988 27                       @ lvgl/src/lv_widgets/lv_dropdown.c:988:27
	str	r0, [sp, #20]
	.loc	10 989 27 is_stmt 1             @ lvgl/src/lv_widgets/lv_dropdown.c:989:27
	ldr	r0, [sp, #72]
	.loc	10 989 35 is_stmt 0             @ lvgl/src/lv_widgets/lv_dropdown.c:989:35
	str	r0, [sp, #8]                    @ 4-byte Spill
	ldrh.w	r0, [sp, #28]
	.loc	10 989 41                       @ lvgl/src/lv_widgets/lv_dropdown.c:989:41
	ldrh.w	r1, [sp, #26]
	.loc	10 989 39                       @ lvgl/src/lv_widgets/lv_dropdown.c:989:39
	add	r0, r1
	.loc	10 989 74                       @ lvgl/src/lv_widgets/lv_dropdown.c:989:74
	str	r0, [sp, #4]                    @ 4-byte Spill
	ldr	r0, [sp, #20]
	.loc	10 989 50                       @ lvgl/src/lv_widgets/lv_dropdown.c:989:50
	bl	lv_font_get_line_height
	ldr	r1, [sp, #4]                    @ 4-byte Reload
	mov	r2, r0
	.loc	10 989 48                       @ lvgl/src/lv_widgets/lv_dropdown.c:989:48
	ldr	r0, [sp, #8]                    @ 4-byte Reload
	add	r1, r2
	.loc	10 989 9                        @ lvgl/src/lv_widgets/lv_dropdown.c:989:9
	sxth	r1, r1
	bl	lv_obj_set_height
.Ltmp108:
	.loc	10 991 12 is_stmt 1             @ lvgl/src/lv_widgets/lv_dropdown.c:991:12
	ldr	r0, [sp, #56]
	.loc	10 991 17 is_stmt 0             @ lvgl/src/lv_widgets/lv_dropdown.c:991:17
	ldr	r0, [r0]
.Ltmp109:
	.loc	10 991 12                       @ lvgl/src/lv_widgets/lv_dropdown.c:991:12
	cbz	r0, .LBB1_49
	b	.LBB1_48
.LBB1_48:
.Ltmp110:
	.loc	10 991 44                       @ lvgl/src/lv_widgets/lv_dropdown.c:991:44
	ldr	r0, [sp, #56]
	.loc	10 991 49                       @ lvgl/src/lv_widgets/lv_dropdown.c:991:49
	ldr	r0, [r0]
	movs	r2, #255
	.loc	10 991 23                       @ lvgl/src/lv_widgets/lv_dropdown.c:991:23
	mov	r1, r2
	bl	lv_obj_refresh_style
	b	.LBB1_49
.Ltmp111:
.LBB1_49:
	.loc	10 992 5 is_stmt 1              @ lvgl/src/lv_widgets/lv_dropdown.c:992:5
	b	.LBB1_76
.Ltmp112:
.LBB1_50:
	.loc	10 993 13                       @ lvgl/src/lv_widgets/lv_dropdown.c:993:13
	ldrb.w	r0, [sp, #71]
.Ltmp113:
	.loc	10 993 13 is_stmt 0             @ lvgl/src/lv_widgets/lv_dropdown.c:993:13
	cmp	r0, #24
	bne	.LBB1_72
	b	.LBB1_51
.LBB1_51:
.Ltmp114:
	.loc	10 995 28 is_stmt 1             @ lvgl/src/lv_widgets/lv_dropdown.c:995:28
	ldr	r0, [sp, #64]
	.loc	10 995 18 is_stmt 0             @ lvgl/src/lv_widgets/lv_dropdown.c:995:18
	ldrb	r0, [r0]
	.loc	10 995 14                       @ lvgl/src/lv_widgets/lv_dropdown.c:995:14
	strb.w	r0, [sp, #19]
.Ltmp115:
	.loc	10 996 12 is_stmt 1             @ lvgl/src/lv_widgets/lv_dropdown.c:996:12
	ldrsb.w	r0, [sp, #19]
	.loc	10 996 30 is_stmt 0             @ lvgl/src/lv_widgets/lv_dropdown.c:996:30
	cmp	r0, #19
	beq	.LBB1_53
	b	.LBB1_52
.LBB1_52:
	.loc	10 996 33                       @ lvgl/src/lv_widgets/lv_dropdown.c:996:33
	ldrsb.w	r0, [sp, #19]
.Ltmp116:
	.loc	10 996 12                       @ lvgl/src/lv_widgets/lv_dropdown.c:996:12
	cmp	r0, #18
	bne	.LBB1_59
	b	.LBB1_53
.LBB1_53:
.Ltmp117:
	.loc	10 997 16 is_stmt 1             @ lvgl/src/lv_widgets/lv_dropdown.c:997:16
	ldr	r0, [sp, #56]
	.loc	10 997 21 is_stmt 0             @ lvgl/src/lv_widgets/lv_dropdown.c:997:21
	ldr	r0, [r0]
.Ltmp118:
	.loc	10 997 16                       @ lvgl/src/lv_widgets/lv_dropdown.c:997:16
	cbnz	r0, .LBB1_55
	b	.LBB1_54
.LBB1_54:
.Ltmp119:
	.loc	10 998 34 is_stmt 1             @ lvgl/src/lv_widgets/lv_dropdown.c:998:34
	ldr	r0, [sp, #72]
	.loc	10 998 17 is_stmt 0             @ lvgl/src/lv_widgets/lv_dropdown.c:998:17
	bl	lv_dropdown_open
	.loc	10 999 13 is_stmt 1             @ lvgl/src/lv_widgets/lv_dropdown.c:999:13
	b	.LBB1_58
.Ltmp120:
.LBB1_55:
	.loc	10 1000 21                      @ lvgl/src/lv_widgets/lv_dropdown.c:1000:21
	ldr	r1, [sp, #56]
	.loc	10 1000 26 is_stmt 0            @ lvgl/src/lv_widgets/lv_dropdown.c:1000:26
	ldrh	r0, [r1, #44]
	.loc	10 1000 37                      @ lvgl/src/lv_widgets/lv_dropdown.c:1000:37
	adds	r0, #1
	.loc	10 1000 48                      @ lvgl/src/lv_widgets/lv_dropdown.c:1000:48
	ldrh	r1, [r1, #42]
.Ltmp121:
	.loc	10 1000 21                      @ lvgl/src/lv_widgets/lv_dropdown.c:1000:21
	cmp	r0, r1
	bge	.LBB1_57
	b	.LBB1_56
.LBB1_56:
.Ltmp122:
	.loc	10 1001 17 is_stmt 1            @ lvgl/src/lv_widgets/lv_dropdown.c:1001:17
	ldr	r1, [sp, #56]
	.loc	10 1001 32 is_stmt 0            @ lvgl/src/lv_widgets/lv_dropdown.c:1001:32
	ldrh	r0, [r1, #44]
	adds	r0, #1
	strh	r0, [r1, #44]
	.loc	10 1002 38 is_stmt 1            @ lvgl/src/lv_widgets/lv_dropdown.c:1002:38
	ldr	r0, [sp, #72]
	.loc	10 1002 17 is_stmt 0            @ lvgl/src/lv_widgets/lv_dropdown.c:1002:17
	bl	position_to_selected
	.loc	10 1003 13 is_stmt 1            @ lvgl/src/lv_widgets/lv_dropdown.c:1003:13
	b	.LBB1_57
.Ltmp123:
.LBB1_57:
	.loc	10 0 13 is_stmt 0               @ lvgl/src/lv_widgets/lv_dropdown.c:0:13
	b	.LBB1_58
.LBB1_58:
	.loc	10 1004 9 is_stmt 1             @ lvgl/src/lv_widgets/lv_dropdown.c:1004:9
	b	.LBB1_71
.Ltmp124:
.LBB1_59:
	.loc	10 1005 17                      @ lvgl/src/lv_widgets/lv_dropdown.c:1005:17
	ldrsb.w	r0, [sp, #19]
	.loc	10 1005 34 is_stmt 0            @ lvgl/src/lv_widgets/lv_dropdown.c:1005:34
	cmp	r0, #20
	beq	.LBB1_61
	b	.LBB1_60
.LBB1_60:
	.loc	10 1005 37                      @ lvgl/src/lv_widgets/lv_dropdown.c:1005:37
	ldrsb.w	r0, [sp, #19]
.Ltmp125:
	.loc	10 1005 17                      @ lvgl/src/lv_widgets/lv_dropdown.c:1005:17
	cmp	r0, #17
	bne	.LBB1_67
	b	.LBB1_61
.LBB1_61:
.Ltmp126:
	.loc	10 1007 16 is_stmt 1            @ lvgl/src/lv_widgets/lv_dropdown.c:1007:16
	ldr	r0, [sp, #56]
	.loc	10 1007 21 is_stmt 0            @ lvgl/src/lv_widgets/lv_dropdown.c:1007:21
	ldr	r0, [r0]
.Ltmp127:
	.loc	10 1007 16                      @ lvgl/src/lv_widgets/lv_dropdown.c:1007:16
	cbnz	r0, .LBB1_63
	b	.LBB1_62
.LBB1_62:
.Ltmp128:
	.loc	10 1008 34 is_stmt 1            @ lvgl/src/lv_widgets/lv_dropdown.c:1008:34
	ldr	r0, [sp, #72]
	.loc	10 1008 17 is_stmt 0            @ lvgl/src/lv_widgets/lv_dropdown.c:1008:17
	bl	lv_dropdown_open
	.loc	10 1009 13 is_stmt 1            @ lvgl/src/lv_widgets/lv_dropdown.c:1009:13
	b	.LBB1_66
.Ltmp129:
.LBB1_63:
	.loc	10 1010 21                      @ lvgl/src/lv_widgets/lv_dropdown.c:1010:21
	ldr	r0, [sp, #56]
	.loc	10 1010 26 is_stmt 0            @ lvgl/src/lv_widgets/lv_dropdown.c:1010:26
	ldrh	r0, [r0, #44]
.Ltmp130:
	.loc	10 1010 21                      @ lvgl/src/lv_widgets/lv_dropdown.c:1010:21
	cmp	r0, #1
	blt	.LBB1_65
	b	.LBB1_64
.LBB1_64:
.Ltmp131:
	.loc	10 1011 17 is_stmt 1            @ lvgl/src/lv_widgets/lv_dropdown.c:1011:17
	ldr	r1, [sp, #56]
	.loc	10 1011 32 is_stmt 0            @ lvgl/src/lv_widgets/lv_dropdown.c:1011:32
	ldrh	r0, [r1, #44]
	subs	r0, #1
	strh	r0, [r1, #44]
	.loc	10 1012 38 is_stmt 1            @ lvgl/src/lv_widgets/lv_dropdown.c:1012:38
	ldr	r0, [sp, #72]
	.loc	10 1012 17 is_stmt 0            @ lvgl/src/lv_widgets/lv_dropdown.c:1012:17
	bl	position_to_selected
	.loc	10 1013 13 is_stmt 1            @ lvgl/src/lv_widgets/lv_dropdown.c:1013:13
	b	.LBB1_65
.Ltmp132:
.LBB1_65:
	.loc	10 0 13 is_stmt 0               @ lvgl/src/lv_widgets/lv_dropdown.c:0:13
	b	.LBB1_66
.LBB1_66:
	.loc	10 1014 9 is_stmt 1             @ lvgl/src/lv_widgets/lv_dropdown.c:1014:9
	b	.LBB1_70
.Ltmp133:
.LBB1_67:
	.loc	10 1015 17                      @ lvgl/src/lv_widgets/lv_dropdown.c:1015:17
	ldrsb.w	r0, [sp, #19]
.Ltmp134:
	.loc	10 1015 17 is_stmt 0            @ lvgl/src/lv_widgets/lv_dropdown.c:1015:17
	cmp	r0, #27
	bne	.LBB1_69
	b	.LBB1_68
.LBB1_68:
.Ltmp135:
	.loc	10 1016 31 is_stmt 1            @ lvgl/src/lv_widgets/lv_dropdown.c:1016:31
	ldr	r1, [sp, #56]
	.loc	10 1016 36 is_stmt 0            @ lvgl/src/lv_widgets/lv_dropdown.c:1016:36
	ldrh	r0, [r1, #46]
	.loc	10 1016 29                      @ lvgl/src/lv_widgets/lv_dropdown.c:1016:29
	strh	r0, [r1, #44]
	.loc	10 1017 31 is_stmt 1            @ lvgl/src/lv_widgets/lv_dropdown.c:1017:31
	ldr	r0, [sp, #72]
	.loc	10 1017 13 is_stmt 0            @ lvgl/src/lv_widgets/lv_dropdown.c:1017:13
	bl	lv_dropdown_close
	.loc	10 1018 9 is_stmt 1             @ lvgl/src/lv_widgets/lv_dropdown.c:1018:9
	b	.LBB1_69
.Ltmp136:
.LBB1_69:
	.loc	10 0 9 is_stmt 0                @ lvgl/src/lv_widgets/lv_dropdown.c:0:9
	b	.LBB1_70
.LBB1_70:
	b	.LBB1_71
.LBB1_71:
	.loc	10 1020 5 is_stmt 1             @ lvgl/src/lv_widgets/lv_dropdown.c:1020:5
	b	.LBB1_75
.Ltmp137:
.LBB1_72:
	.loc	10 1021 13                      @ lvgl/src/lv_widgets/lv_dropdown.c:1021:13
	ldrb.w	r0, [sp, #71]
.Ltmp138:
	.loc	10 1021 13 is_stmt 0            @ lvgl/src/lv_widgets/lv_dropdown.c:1021:13
	cmp	r0, #25
	bne	.LBB1_74
	b	.LBB1_73
.LBB1_73:
.Ltmp139:
	.loc	10 1023 35 is_stmt 1            @ lvgl/src/lv_widgets/lv_dropdown.c:1023:35
	ldr	r0, [sp, #64]
	.loc	10 1023 16 is_stmt 0            @ lvgl/src/lv_widgets/lv_dropdown.c:1023:16
	str	r0, [sp, #12]
	.loc	10 1024 10 is_stmt 1            @ lvgl/src/lv_widgets/lv_dropdown.c:1024:10
	ldr	r1, [sp, #12]
	movs	r0, #1
	.loc	10 1024 25 is_stmt 0            @ lvgl/src/lv_widgets/lv_dropdown.c:1024:25
	strb	r0, [r1]
	.loc	10 1026 5 is_stmt 1             @ lvgl/src/lv_widgets/lv_dropdown.c:1026:5
	b	.LBB1_74
.Ltmp140:
.LBB1_74:
	.loc	10 0 5 is_stmt 0                @ lvgl/src/lv_widgets/lv_dropdown.c:0:5
	b	.LBB1_75
.LBB1_75:
	b	.LBB1_76
.LBB1_76:
	b	.LBB1_77
.LBB1_77:
	b	.LBB1_78
.LBB1_78:
	b	.LBB1_79
.LBB1_79:
	b	.LBB1_80
.LBB1_80:
	b	.LBB1_81
.LBB1_81:
	b	.LBB1_82
.LBB1_82:
	b	.LBB1_83
.LBB1_83:
	.loc	10 1028 12 is_stmt 1            @ lvgl/src/lv_widgets/lv_dropdown.c:1028:12
	ldrb.w	r0, [sp, #63]
	.loc	10 1028 5 is_stmt 0             @ lvgl/src/lv_widgets/lv_dropdown.c:1028:5
	strb.w	r0, [sp, #79]
	b	.LBB1_84
.LBB1_84:
	.loc	10 1029 1 is_stmt 1             @ lvgl/src/lv_widgets/lv_dropdown.c:1029:1
	ldrb.w	r0, [sp, #79]
	add	sp, #80
	pop	{r7, pc}
.Ltmp141:
.Lfunc_end1:
	.size	lv_dropdown_signal, .Lfunc_end1-lv_dropdown_signal
	.cfi_endproc
	.cantunwind
	.fnend
                                        @ -- End function
	.section	.text.lv_dropdown_design,"ax",%progbits
	.p2align	3                               @ -- Begin function lv_dropdown_design
	.type	lv_dropdown_design,%function
	.code	16                              @ @lv_dropdown_design
	.thumb_func
lv_dropdown_design:
.Lfunc_begin2:
	.loc	10 732 0                        @ lvgl/src/lv_widgets/lv_dropdown.c:732:0
	.fnstart
	.cfi_startproc
@ %bb.0:
	.save	{r7, lr}
	push	{r7, lr}
	.cfi_def_cfa_offset 8
	.cfi_offset lr, -4
	.cfi_offset r7, -8
	.pad	#136
	sub	sp, #136
	.cfi_def_cfa_offset 144
                                        @ kill: def $r3 killed $r2
	str	r0, [sp, #128]
	str	r1, [sp, #124]
	strb.w	r2, [sp, #123]
.Ltmp142:
	.loc	10 734 8 prologue_end           @ lvgl/src/lv_widgets/lv_dropdown.c:734:8
	ldrb.w	r0, [sp, #123]
.Ltmp143:
	.loc	10 734 8 is_stmt 0              @ lvgl/src/lv_widgets/lv_dropdown.c:734:8
	cmp	r0, #2
	bne	.LBB2_2
	b	.LBB2_1
.LBB2_1:
.Ltmp144:
	.loc	10 735 16 is_stmt 1             @ lvgl/src/lv_widgets/lv_dropdown.c:735:16
	movw	r0, :lower16:ancestor_design
	movt	r0, :upper16:ancestor_design
	ldr	r3, [r0]
	.loc	10 735 32 is_stmt 0             @ lvgl/src/lv_widgets/lv_dropdown.c:735:32
	ldr	r0, [sp, #128]
	.loc	10 735 40                       @ lvgl/src/lv_widgets/lv_dropdown.c:735:40
	ldr	r1, [sp, #124]
	.loc	10 735 51                       @ lvgl/src/lv_widgets/lv_dropdown.c:735:51
	ldrb.w	r2, [sp, #123]
	.loc	10 735 16                       @ lvgl/src/lv_widgets/lv_dropdown.c:735:16
	blx	r3
	.loc	10 735 9                        @ lvgl/src/lv_widgets/lv_dropdown.c:735:9
	strb.w	r0, [sp, #135]
	b	.LBB2_35
.Ltmp145:
.LBB2_2:
	.loc	10 738 13 is_stmt 1             @ lvgl/src/lv_widgets/lv_dropdown.c:738:13
	ldrb.w	r0, [sp, #123]
.Ltmp146:
	.loc	10 738 13 is_stmt 0             @ lvgl/src/lv_widgets/lv_dropdown.c:738:13
	cmp	r0, #0
	bne.w	.LBB2_30
	b	.LBB2_3
.LBB2_3:
.Ltmp147:
	.loc	10 739 9 is_stmt 1              @ lvgl/src/lv_widgets/lv_dropdown.c:739:9
	movw	r0, :lower16:ancestor_design
	movt	r0, :upper16:ancestor_design
	ldr	r3, [r0]
	.loc	10 739 25 is_stmt 0             @ lvgl/src/lv_widgets/lv_dropdown.c:739:25
	ldr	r0, [sp, #128]
	.loc	10 739 33                       @ lvgl/src/lv_widgets/lv_dropdown.c:739:33
	ldr	r1, [sp, #124]
	.loc	10 739 44                       @ lvgl/src/lv_widgets/lv_dropdown.c:739:44
	ldrb.w	r2, [sp, #123]
	.loc	10 739 9                        @ lvgl/src/lv_widgets/lv_dropdown.c:739:9
	blx	r3
	.loc	10 741 55 is_stmt 1             @ lvgl/src/lv_widgets/lv_dropdown.c:741:55
	ldr	r0, [sp, #128]
	.loc	10 741 35 is_stmt 0             @ lvgl/src/lv_widgets/lv_dropdown.c:741:35
	bl	lv_obj_get_ext_attr
	.loc	10 741 29                       @ lvgl/src/lv_widgets/lv_dropdown.c:741:29
	str	r0, [sp, #116]
	.loc	10 743 57 is_stmt 1             @ lvgl/src/lv_widgets/lv_dropdown.c:743:57
	ldr	r0, [sp, #128]
	movs	r1, #0
	.loc	10 743 31 is_stmt 0             @ lvgl/src/lv_widgets/lv_dropdown.c:743:31
	str	r1, [sp, #32]                   @ 4-byte Spill
	bl	lv_obj_get_style_pad_left
	ldr	r1, [sp, #32]                   @ 4-byte Reload
	.loc	10 743 24                       @ lvgl/src/lv_widgets/lv_dropdown.c:743:24
	strh.w	r0, [sp, #114]
	.loc	10 744 59 is_stmt 1             @ lvgl/src/lv_widgets/lv_dropdown.c:744:59
	ldr	r0, [sp, #128]
	.loc	10 744 32 is_stmt 0             @ lvgl/src/lv_widgets/lv_dropdown.c:744:32
	bl	lv_obj_get_style_pad_right
	ldr	r1, [sp, #32]                   @ 4-byte Reload
	.loc	10 744 24                       @ lvgl/src/lv_widgets/lv_dropdown.c:744:24
	strh.w	r0, [sp, #112]
	.loc	10 745 55 is_stmt 1             @ lvgl/src/lv_widgets/lv_dropdown.c:745:55
	ldr	r0, [sp, #128]
	.loc	10 745 30 is_stmt 0             @ lvgl/src/lv_widgets/lv_dropdown.c:745:30
	bl	lv_obj_get_style_pad_top
	.loc	10 745 24                       @ lvgl/src/lv_widgets/lv_dropdown.c:745:24
	strh.w	r0, [sp, #110]
	add	r0, sp, #68
	.loc	10 748 9 is_stmt 1              @ lvgl/src/lv_widgets/lv_dropdown.c:748:9
	str	r0, [sp, #36]                   @ 4-byte Spill
	bl	lv_draw_label_dsc_init
	ldr	r1, [sp, #32]                   @ 4-byte Reload
	ldr	r2, [sp, #36]                   @ 4-byte Reload
	.loc	10 749 36                       @ lvgl/src/lv_widgets/lv_dropdown.c:749:36
	ldr	r0, [sp, #128]
	.loc	10 749 9 is_stmt 0              @ lvgl/src/lv_widgets/lv_dropdown.c:749:9
	bl	lv_obj_init_draw_label_dsc
	.loc	10 754 32 is_stmt 1             @ lvgl/src/lv_widgets/lv_dropdown.c:754:32
	ldr	r0, [sp, #116]
	.loc	10 754 37 is_stmt 0             @ lvgl/src/lv_widgets/lv_dropdown.c:754:37
	ldr	r0, [r0, #4]
	.loc	10 754 22                       @ lvgl/src/lv_widgets/lv_dropdown.c:754:22
	str	r0, [sp, #52]
.Ltmp148:
	.loc	10 755 12 is_stmt 1             @ lvgl/src/lv_widgets/lv_dropdown.c:755:12
	ldr	r0, [sp, #116]
	.loc	10 755 17 is_stmt 0             @ lvgl/src/lv_widgets/lv_dropdown.c:755:17
	ldrb.w	r0, [r0, #50]
	lsrs	r0, r0, #2
.Ltmp149:
	.loc	10 755 12                       @ lvgl/src/lv_widgets/lv_dropdown.c:755:12
	lsls	r0, r0, #31
	cbz	r0, .LBB2_5
	b	.LBB2_4
.LBB2_4:
	.loc	10 0 12                         @ lvgl/src/lv_widgets/lv_dropdown.c:0:12
	movs	r0, #128
.Ltmp150:
	.loc	10 756 26 is_stmt 1             @ lvgl/src/lv_widgets/lv_dropdown.c:756:26
	str	r0, [sp, #28]                   @ 4-byte Spill
	bl	_lv_mem_buf_get
	ldr	r2, [sp, #28]                   @ 4-byte Reload
	.loc	10 756 20 is_stmt 0             @ lvgl/src/lv_widgets/lv_dropdown.c:756:20
	str	r0, [sp, #48]
	.loc	10 757 42 is_stmt 1             @ lvgl/src/lv_widgets/lv_dropdown.c:757:42
	ldr	r0, [sp, #128]
	.loc	10 757 50 is_stmt 0             @ lvgl/src/lv_widgets/lv_dropdown.c:757:50
	ldr	r1, [sp, #48]
	.loc	10 757 13                       @ lvgl/src/lv_widgets/lv_dropdown.c:757:13
	bl	lv_dropdown_get_selected_str
	.loc	10 758 23 is_stmt 1             @ lvgl/src/lv_widgets/lv_dropdown.c:758:23
	ldr	r0, [sp, #48]
	.loc	10 758 21 is_stmt 0             @ lvgl/src/lv_widgets/lv_dropdown.c:758:21
	str	r0, [sp, #52]
	.loc	10 759 9 is_stmt 1              @ lvgl/src/lv_widgets/lv_dropdown.c:759:9
	b	.LBB2_5
.Ltmp151:
.LBB2_5:
	.loc	10 0 9 is_stmt 0                @ lvgl/src/lv_widgets/lv_dropdown.c:0:9
	movs	r0, #0
	.loc	10 763 14 is_stmt 1             @ lvgl/src/lv_widgets/lv_dropdown.c:763:14
	strb.w	r0, [sp, #43]
.Ltmp152:
	.loc	10 764 12                       @ lvgl/src/lv_widgets/lv_dropdown.c:764:12
	ldr	r0, [sp, #116]
	.loc	10 764 17 is_stmt 0             @ lvgl/src/lv_widgets/lv_dropdown.c:764:17
	ldrb.w	r0, [r0, #50]
	and	r0, r0, #3
.Ltmp153:
	.loc	10 764 12                       @ lvgl/src/lv_widgets/lv_dropdown.c:764:12
	cmp	r0, #2
	bne	.LBB2_7
	b	.LBB2_6
.LBB2_6:
	.loc	10 0 12                         @ lvgl/src/lv_widgets/lv_dropdown.c:0:12
	movs	r0, #1
.Ltmp154:
	.loc	10 764 50                       @ lvgl/src/lv_widgets/lv_dropdown.c:764:50
	strb.w	r0, [sp, #43]
	.loc	10 764 46                       @ lvgl/src/lv_widgets/lv_dropdown.c:764:46
	b	.LBB2_7
.Ltmp155:
.LBB2_7:
	.loc	10 765 32 is_stmt 1             @ lvgl/src/lv_widgets/lv_dropdown.c:765:32
	ldr	r0, [sp, #128]
	.loc	10 765 12 is_stmt 0             @ lvgl/src/lv_widgets/lv_dropdown.c:765:12
	bl	lv_obj_get_base_dir
.Ltmp156:
	.loc	10 765 12                       @ lvgl/src/lv_widgets/lv_dropdown.c:765:12
	cmp	r0, #1
	bne	.LBB2_9
	b	.LBB2_8
.LBB2_8:
	.loc	10 0 12                         @ lvgl/src/lv_widgets/lv_dropdown.c:0:12
	movs	r0, #1
.Ltmp157:
	.loc	10 765 64                       @ lvgl/src/lv_widgets/lv_dropdown.c:765:64
	strb.w	r0, [sp, #43]
	.loc	10 765 60                       @ lvgl/src/lv_widgets/lv_dropdown.c:765:60
	b	.LBB2_9
.Ltmp158:
.LBB2_9:
	.loc	10 767 15 is_stmt 1             @ lvgl/src/lv_widgets/lv_dropdown.c:767:15
	ldrb.w	r0, [sp, #43]
	lsls	r0, r0, #31
	cbz	r0, .LBB2_11
	b	.LBB2_10
.LBB2_10:
	.loc	10 767 21 is_stmt 0             @ lvgl/src/lv_widgets/lv_dropdown.c:767:21
	ldr	r0, [sp, #116]
	.loc	10 767 26                       @ lvgl/src/lv_widgets/lv_dropdown.c:767:26
	ldr	r0, [r0, #8]
	.loc	10 767 15                       @ lvgl/src/lv_widgets/lv_dropdown.c:767:15
	str	r0, [sp, #24]                   @ 4-byte Spill
	b	.LBB2_12
.LBB2_11:
	.loc	10 767 35                       @ lvgl/src/lv_widgets/lv_dropdown.c:767:35
	ldr	r0, [sp, #52]
	.loc	10 767 15                       @ lvgl/src/lv_widgets/lv_dropdown.c:767:15
	str	r0, [sp, #24]                   @ 4-byte Spill
	b	.LBB2_12
.LBB2_12:
	ldr	r0, [sp, #24]                   @ 4-byte Reload
	.loc	10 767 13                       @ lvgl/src/lv_widgets/lv_dropdown.c:767:13
	str	r0, [sp, #44]
.Ltmp159:
	.loc	10 768 12 is_stmt 1             @ lvgl/src/lv_widgets/lv_dropdown.c:768:12
	ldr	r0, [sp, #44]
.Ltmp160:
	.loc	10 768 12 is_stmt 0             @ lvgl/src/lv_widgets/lv_dropdown.c:768:12
	cmp	r0, #0
	beq	.LBB2_18
	b	.LBB2_13
.LBB2_13:
.Ltmp161:
	.loc	10 769 41 is_stmt 1             @ lvgl/src/lv_widgets/lv_dropdown.c:769:41
	ldr	r1, [sp, #44]
	.loc	10 769 56 is_stmt 0             @ lvgl/src/lv_widgets/lv_dropdown.c:769:56
	ldr	r2, [sp, #80]
	.loc	10 769 72                       @ lvgl/src/lv_widgets/lv_dropdown.c:769:72
	ldrsh.w	r3, [sp, #88]
	.loc	10 769 96                       @ lvgl/src/lv_widgets/lv_dropdown.c:769:96
	ldrsh.w	r0, [sp, #86]
	.loc	10 770 40 is_stmt 1             @ lvgl/src/lv_widgets/lv_dropdown.c:770:40
	ldrb.w	lr, [sp, #105]
	.loc	10 769 13                       @ lvgl/src/lv_widgets/lv_dropdown.c:769:13
	mov	r12, sp
	str.w	lr, [r12, #8]
	movw	lr, #31768
	str.w	lr, [r12, #4]
	str.w	r0, [r12]
	add	r0, sp, #56
	bl	_lv_txt_get_size
	.loc	10 772 27                       @ lvgl/src/lv_widgets/lv_dropdown.c:772:27
	ldr	r0, [sp, #128]
	ldrh	r0, [r0, #18]
	.loc	10 772 47 is_stmt 0             @ lvgl/src/lv_widgets/lv_dropdown.c:772:47
	ldrh.w	r1, [sp, #110]
	.loc	10 772 45                       @ lvgl/src/lv_widgets/lv_dropdown.c:772:45
	add	r0, r1
	.loc	10 772 25                       @ lvgl/src/lv_widgets/lv_dropdown.c:772:25
	strh.w	r0, [sp, #62]
	.loc	10 773 27 is_stmt 1             @ lvgl/src/lv_widgets/lv_dropdown.c:773:27
	ldrh.w	r0, [sp, #62]
	.loc	10 773 41 is_stmt 0             @ lvgl/src/lv_widgets/lv_dropdown.c:773:41
	ldrh.w	r1, [sp, #58]
	.loc	10 773 39                       @ lvgl/src/lv_widgets/lv_dropdown.c:773:39
	add	r0, r1
	.loc	10 773 25                       @ lvgl/src/lv_widgets/lv_dropdown.c:773:25
	strh.w	r0, [sp, #66]
.Ltmp162:
	.loc	10 776 16 is_stmt 1             @ lvgl/src/lv_widgets/lv_dropdown.c:776:16
	ldr	r0, [sp, #116]
	.loc	10 776 21 is_stmt 0             @ lvgl/src/lv_widgets/lv_dropdown.c:776:21
	ldr	r0, [r0, #8]
	.loc	10 776 36                       @ lvgl/src/lv_widgets/lv_dropdown.c:776:36
	cbnz	r0, .LBB2_16
	b	.LBB2_14
.LBB2_14:
	.loc	10 776 39                       @ lvgl/src/lv_widgets/lv_dropdown.c:776:39
	ldr	r0, [sp, #44]
	.loc	10 776 46                       @ lvgl/src/lv_widgets/lv_dropdown.c:776:46
	ldr	r1, [sp, #52]
.Ltmp163:
	.loc	10 776 16                       @ lvgl/src/lv_widgets/lv_dropdown.c:776:16
	cmp	r0, r1
	bne	.LBB2_16
	b	.LBB2_15
.LBB2_15:
.Ltmp164:
	.loc	10 777 31 is_stmt 1             @ lvgl/src/lv_widgets/lv_dropdown.c:777:31
	ldr	r0, [sp, #128]
	ldrh	r1, [r0, #16]
	.loc	10 777 52 is_stmt 0             @ lvgl/src/lv_widgets/lv_dropdown.c:777:52
	str	r1, [sp, #20]                   @ 4-byte Spill
	bl	lv_obj_get_width
	mov	r1, r0
	.loc	10 777 88                       @ lvgl/src/lv_widgets/lv_dropdown.c:777:88
	ldr	r0, [sp, #20]                   @ 4-byte Reload
	ldrsh.w	r2, [sp, #56]
	.loc	10 777 77                       @ lvgl/src/lv_widgets/lv_dropdown.c:777:77
	subs	r1, r1, r2
	.loc	10 777 91                       @ lvgl/src/lv_widgets/lv_dropdown.c:777:91
	add.w	r1, r1, r1, lsr #31
	.loc	10 777 49                       @ lvgl/src/lv_widgets/lv_dropdown.c:777:49
	add.w	r0, r0, r1, lsr #1
	.loc	10 777 29                       @ lvgl/src/lv_widgets/lv_dropdown.c:777:29
	strh.w	r0, [sp, #60]
	.loc	10 778 31 is_stmt 1             @ lvgl/src/lv_widgets/lv_dropdown.c:778:31
	ldrh.w	r0, [sp, #60]
	.loc	10 778 45 is_stmt 0             @ lvgl/src/lv_widgets/lv_dropdown.c:778:45
	ldrh.w	r1, [sp, #56]
	.loc	10 778 43                       @ lvgl/src/lv_widgets/lv_dropdown.c:778:43
	add	r0, r1
	.loc	10 778 29                       @ lvgl/src/lv_widgets/lv_dropdown.c:778:29
	strh.w	r0, [sp, #64]
	.loc	10 779 13 is_stmt 1             @ lvgl/src/lv_widgets/lv_dropdown.c:779:13
	b	.LBB2_17
.Ltmp165:
.LBB2_16:
	.loc	10 781 31                       @ lvgl/src/lv_widgets/lv_dropdown.c:781:31
	ldr	r0, [sp, #128]
	ldrh	r0, [r0, #16]
	.loc	10 781 51 is_stmt 0             @ lvgl/src/lv_widgets/lv_dropdown.c:781:51
	ldrh.w	r1, [sp, #114]
	.loc	10 781 49                       @ lvgl/src/lv_widgets/lv_dropdown.c:781:49
	add	r0, r1
	.loc	10 781 29                       @ lvgl/src/lv_widgets/lv_dropdown.c:781:29
	strh.w	r0, [sp, #60]
	.loc	10 782 31 is_stmt 1             @ lvgl/src/lv_widgets/lv_dropdown.c:782:31
	ldrh.w	r0, [sp, #60]
	.loc	10 782 45 is_stmt 0             @ lvgl/src/lv_widgets/lv_dropdown.c:782:45
	ldrh.w	r1, [sp, #56]
	.loc	10 782 43                       @ lvgl/src/lv_widgets/lv_dropdown.c:782:43
	add	r0, r1
	.loc	10 782 29                       @ lvgl/src/lv_widgets/lv_dropdown.c:782:29
	strh.w	r0, [sp, #64]
	b	.LBB2_17
.Ltmp166:
.LBB2_17:
	.loc	10 784 38 is_stmt 1             @ lvgl/src/lv_widgets/lv_dropdown.c:784:38
	ldr	r1, [sp, #124]
	.loc	10 784 61 is_stmt 0             @ lvgl/src/lv_widgets/lv_dropdown.c:784:61
	ldr	r3, [sp, #44]
	.loc	10 784 13                       @ lvgl/src/lv_widgets/lv_dropdown.c:784:13
	mov	r2, sp
	movs	r0, #0
	str	r0, [r2]
	add	r0, sp, #60
	add	r2, sp, #68
	bl	lv_draw_label
	.loc	10 785 9 is_stmt 1              @ lvgl/src/lv_widgets/lv_dropdown.c:785:9
	b	.LBB2_18
.Ltmp167:
.LBB2_18:
	.loc	10 787 15                       @ lvgl/src/lv_widgets/lv_dropdown.c:787:15
	ldrb.w	r0, [sp, #43]
	lsls	r0, r0, #31
	cbz	r0, .LBB2_20
	b	.LBB2_19
.LBB2_19:
	.loc	10 787 21 is_stmt 0             @ lvgl/src/lv_widgets/lv_dropdown.c:787:21
	ldr	r0, [sp, #52]
	.loc	10 787 15                       @ lvgl/src/lv_widgets/lv_dropdown.c:787:15
	str	r0, [sp, #16]                   @ 4-byte Spill
	b	.LBB2_21
.LBB2_20:
	.loc	10 787 31                       @ lvgl/src/lv_widgets/lv_dropdown.c:787:31
	ldr	r0, [sp, #116]
	.loc	10 787 36                       @ lvgl/src/lv_widgets/lv_dropdown.c:787:36
	ldr	r0, [r0, #8]
	.loc	10 787 15                       @ lvgl/src/lv_widgets/lv_dropdown.c:787:15
	str	r0, [sp, #16]                   @ 4-byte Spill
	b	.LBB2_21
.LBB2_21:
	ldr	r0, [sp, #16]                   @ 4-byte Reload
	.loc	10 787 13                       @ lvgl/src/lv_widgets/lv_dropdown.c:787:13
	str	r0, [sp, #44]
.Ltmp168:
	.loc	10 788 12 is_stmt 1             @ lvgl/src/lv_widgets/lv_dropdown.c:788:12
	ldr	r0, [sp, #44]
.Ltmp169:
	.loc	10 788 12 is_stmt 0             @ lvgl/src/lv_widgets/lv_dropdown.c:788:12
	cmp	r0, #0
	beq	.LBB2_27
	b	.LBB2_22
.LBB2_22:
.Ltmp170:
	.loc	10 789 41 is_stmt 1             @ lvgl/src/lv_widgets/lv_dropdown.c:789:41
	ldr	r1, [sp, #44]
	.loc	10 789 56 is_stmt 0             @ lvgl/src/lv_widgets/lv_dropdown.c:789:56
	ldr	r2, [sp, #80]
	.loc	10 789 72                       @ lvgl/src/lv_widgets/lv_dropdown.c:789:72
	ldrsh.w	r3, [sp, #88]
	.loc	10 789 96                       @ lvgl/src/lv_widgets/lv_dropdown.c:789:96
	ldrsh.w	r0, [sp, #86]
	.loc	10 790 40 is_stmt 1             @ lvgl/src/lv_widgets/lv_dropdown.c:790:40
	ldrb.w	lr, [sp, #105]
	.loc	10 789 13                       @ lvgl/src/lv_widgets/lv_dropdown.c:789:13
	mov	r12, sp
	str.w	lr, [r12, #8]
	movw	lr, #31768
	str.w	lr, [r12, #4]
	str.w	r0, [r12]
	add	r0, sp, #56
	bl	_lv_txt_get_size
	.loc	10 791 27                       @ lvgl/src/lv_widgets/lv_dropdown.c:791:27
	ldr	r0, [sp, #128]
	ldrh	r0, [r0, #18]
	.loc	10 791 47 is_stmt 0             @ lvgl/src/lv_widgets/lv_dropdown.c:791:47
	ldrh.w	r1, [sp, #110]
	.loc	10 791 45                       @ lvgl/src/lv_widgets/lv_dropdown.c:791:45
	add	r0, r1
	.loc	10 791 25                       @ lvgl/src/lv_widgets/lv_dropdown.c:791:25
	strh.w	r0, [sp, #62]
	.loc	10 792 27 is_stmt 1             @ lvgl/src/lv_widgets/lv_dropdown.c:792:27
	ldrh.w	r0, [sp, #62]
	.loc	10 792 41 is_stmt 0             @ lvgl/src/lv_widgets/lv_dropdown.c:792:41
	ldrh.w	r1, [sp, #58]
	.loc	10 792 39                       @ lvgl/src/lv_widgets/lv_dropdown.c:792:39
	add	r0, r1
	.loc	10 792 25                       @ lvgl/src/lv_widgets/lv_dropdown.c:792:25
	strh.w	r0, [sp, #66]
.Ltmp171:
	.loc	10 795 16 is_stmt 1             @ lvgl/src/lv_widgets/lv_dropdown.c:795:16
	ldr	r0, [sp, #116]
	.loc	10 795 21 is_stmt 0             @ lvgl/src/lv_widgets/lv_dropdown.c:795:21
	ldr	r0, [r0, #8]
	.loc	10 795 36                       @ lvgl/src/lv_widgets/lv_dropdown.c:795:36
	cbnz	r0, .LBB2_25
	b	.LBB2_23
.LBB2_23:
	.loc	10 795 39                       @ lvgl/src/lv_widgets/lv_dropdown.c:795:39
	ldr	r0, [sp, #44]
	.loc	10 795 46                       @ lvgl/src/lv_widgets/lv_dropdown.c:795:46
	ldr	r1, [sp, #52]
.Ltmp172:
	.loc	10 795 16                       @ lvgl/src/lv_widgets/lv_dropdown.c:795:16
	cmp	r0, r1
	bne	.LBB2_25
	b	.LBB2_24
.LBB2_24:
.Ltmp173:
	.loc	10 796 31 is_stmt 1             @ lvgl/src/lv_widgets/lv_dropdown.c:796:31
	ldr	r0, [sp, #128]
	ldrh	r1, [r0, #16]
	.loc	10 796 52 is_stmt 0             @ lvgl/src/lv_widgets/lv_dropdown.c:796:52
	str	r1, [sp, #12]                   @ 4-byte Spill
	bl	lv_obj_get_width
	mov	r1, r0
	.loc	10 796 88                       @ lvgl/src/lv_widgets/lv_dropdown.c:796:88
	ldr	r0, [sp, #12]                   @ 4-byte Reload
	ldrsh.w	r2, [sp, #56]
	.loc	10 796 77                       @ lvgl/src/lv_widgets/lv_dropdown.c:796:77
	subs	r1, r1, r2
	.loc	10 796 91                       @ lvgl/src/lv_widgets/lv_dropdown.c:796:91
	add.w	r1, r1, r1, lsr #31
	.loc	10 796 49                       @ lvgl/src/lv_widgets/lv_dropdown.c:796:49
	add.w	r0, r0, r1, lsr #1
	.loc	10 796 29                       @ lvgl/src/lv_widgets/lv_dropdown.c:796:29
	strh.w	r0, [sp, #60]
	.loc	10 797 31 is_stmt 1             @ lvgl/src/lv_widgets/lv_dropdown.c:797:31
	ldrh.w	r0, [sp, #60]
	.loc	10 797 45 is_stmt 0             @ lvgl/src/lv_widgets/lv_dropdown.c:797:45
	ldrh.w	r1, [sp, #56]
	.loc	10 797 43                       @ lvgl/src/lv_widgets/lv_dropdown.c:797:43
	add	r0, r1
	.loc	10 797 29                       @ lvgl/src/lv_widgets/lv_dropdown.c:797:29
	strh.w	r0, [sp, #64]
	.loc	10 798 13 is_stmt 1             @ lvgl/src/lv_widgets/lv_dropdown.c:798:13
	b	.LBB2_26
.Ltmp174:
.LBB2_25:
	.loc	10 800 31                       @ lvgl/src/lv_widgets/lv_dropdown.c:800:31
	ldr	r0, [sp, #128]
	ldrh	r0, [r0, #20]
	.loc	10 800 51 is_stmt 0             @ lvgl/src/lv_widgets/lv_dropdown.c:800:51
	ldrh.w	r1, [sp, #112]
	.loc	10 800 49                       @ lvgl/src/lv_widgets/lv_dropdown.c:800:49
	subs	r0, r0, r1
	.loc	10 800 59                       @ lvgl/src/lv_widgets/lv_dropdown.c:800:59
	ldrh.w	r1, [sp, #56]
	.loc	10 800 57                       @ lvgl/src/lv_widgets/lv_dropdown.c:800:57
	subs	r0, r0, r1
	.loc	10 800 29                       @ lvgl/src/lv_widgets/lv_dropdown.c:800:29
	strh.w	r0, [sp, #60]
	.loc	10 801 31 is_stmt 1             @ lvgl/src/lv_widgets/lv_dropdown.c:801:31
	ldrh.w	r0, [sp, #60]
	.loc	10 801 45 is_stmt 0             @ lvgl/src/lv_widgets/lv_dropdown.c:801:45
	ldrh.w	r1, [sp, #56]
	.loc	10 801 43                       @ lvgl/src/lv_widgets/lv_dropdown.c:801:43
	add	r0, r1
	.loc	10 801 29                       @ lvgl/src/lv_widgets/lv_dropdown.c:801:29
	strh.w	r0, [sp, #64]
	b	.LBB2_26
.Ltmp175:
.LBB2_26:
	.loc	10 804 38 is_stmt 1             @ lvgl/src/lv_widgets/lv_dropdown.c:804:38
	ldr	r1, [sp, #124]
	.loc	10 804 61 is_stmt 0             @ lvgl/src/lv_widgets/lv_dropdown.c:804:61
	ldr	r3, [sp, #44]
	.loc	10 804 13                       @ lvgl/src/lv_widgets/lv_dropdown.c:804:13
	mov	r2, sp
	movs	r0, #0
	str	r0, [r2]
	add	r0, sp, #60
	add	r2, sp, #68
	bl	lv_draw_label
	.loc	10 805 9 is_stmt 1              @ lvgl/src/lv_widgets/lv_dropdown.c:805:9
	b	.LBB2_27
.Ltmp176:
.LBB2_27:
	.loc	10 807 12                       @ lvgl/src/lv_widgets/lv_dropdown.c:807:12
	ldr	r0, [sp, #116]
	.loc	10 807 17 is_stmt 0             @ lvgl/src/lv_widgets/lv_dropdown.c:807:17
	ldrb.w	r0, [r0, #50]
	lsrs	r0, r0, #2
.Ltmp177:
	.loc	10 807 12                       @ lvgl/src/lv_widgets/lv_dropdown.c:807:12
	lsls	r0, r0, #31
	cbz	r0, .LBB2_29
	b	.LBB2_28
.LBB2_28:
.Ltmp178:
	.loc	10 808 41 is_stmt 1             @ lvgl/src/lv_widgets/lv_dropdown.c:808:41
	ldr	r0, [sp, #52]
	.loc	10 808 13 is_stmt 0             @ lvgl/src/lv_widgets/lv_dropdown.c:808:13
	bl	_lv_mem_buf_release
	.loc	10 809 9 is_stmt 1              @ lvgl/src/lv_widgets/lv_dropdown.c:809:9
	b	.LBB2_29
.Ltmp179:
.LBB2_29:
	.loc	10 811 5                        @ lvgl/src/lv_widgets/lv_dropdown.c:811:5
	b	.LBB2_33
.Ltmp180:
.LBB2_30:
	.loc	10 812 13                       @ lvgl/src/lv_widgets/lv_dropdown.c:812:13
	ldrb.w	r0, [sp, #123]
.Ltmp181:
	.loc	10 812 13 is_stmt 0             @ lvgl/src/lv_widgets/lv_dropdown.c:812:13
	cmp	r0, #1
	bne	.LBB2_32
	b	.LBB2_31
.LBB2_31:
.Ltmp182:
	.loc	10 813 9 is_stmt 1              @ lvgl/src/lv_widgets/lv_dropdown.c:813:9
	movw	r0, :lower16:ancestor_design
	movt	r0, :upper16:ancestor_design
	ldr	r3, [r0]
	.loc	10 813 25 is_stmt 0             @ lvgl/src/lv_widgets/lv_dropdown.c:813:25
	ldr	r0, [sp, #128]
	.loc	10 813 33                       @ lvgl/src/lv_widgets/lv_dropdown.c:813:33
	ldr	r1, [sp, #124]
	.loc	10 813 44                       @ lvgl/src/lv_widgets/lv_dropdown.c:813:44
	ldrb.w	r2, [sp, #123]
	.loc	10 813 9                        @ lvgl/src/lv_widgets/lv_dropdown.c:813:9
	blx	r3
	.loc	10 814 5 is_stmt 1              @ lvgl/src/lv_widgets/lv_dropdown.c:814:5
	b	.LBB2_32
.Ltmp183:
.LBB2_32:
	.loc	10 0 5 is_stmt 0                @ lvgl/src/lv_widgets/lv_dropdown.c:0:5
	b	.LBB2_33
.LBB2_33:
	b	.LBB2_34
.LBB2_34:
	movs	r0, #0
	.loc	10 816 5 is_stmt 1              @ lvgl/src/lv_widgets/lv_dropdown.c:816:5
	strb.w	r0, [sp, #135]
	b	.LBB2_35
.LBB2_35:
	.loc	10 817 1                        @ lvgl/src/lv_widgets/lv_dropdown.c:817:1
	ldrb.w	r0, [sp, #135]
	add	sp, #136
	pop	{r7, pc}
.Ltmp184:
.Lfunc_end2:
	.size	lv_dropdown_design, .Lfunc_end2-lv_dropdown_design
	.cfi_endproc
	.cantunwind
	.fnend
                                        @ -- End function
	.section	.text.lv_dropdown_set_options_static,"ax",%progbits
	.hidden	lv_dropdown_set_options_static  @ -- Begin function lv_dropdown_set_options_static
	.globl	lv_dropdown_set_options_static
	.p2align	3
	.type	lv_dropdown_set_options_static,%function
	.code	16                              @ @lv_dropdown_set_options_static
	.thumb_func
lv_dropdown_set_options_static:
.Lfunc_begin3:
	.loc	10 253 0                        @ lvgl/src/lv_widgets/lv_dropdown.c:253:0
	.fnstart
	.cfi_startproc
@ %bb.0:
	.save	{r7, lr}
	push	{r7, lr}
	.cfi_def_cfa_offset 8
	.cfi_offset lr, -4
	.cfi_offset r7, -8
	.pad	#16
	sub	sp, #16
	.cfi_def_cfa_offset 24
	str	r0, [sp, #12]
	str	r1, [sp, #8]
.Ltmp185:
	.loc	10 254 5 prologue_end           @ lvgl/src/lv_widgets/lv_dropdown.c:254:5
	b	.LBB3_1
.LBB3_1:
.Ltmp186:
	.loc	10 254 5 is_stmt 0              @ lvgl/src/lv_widgets/lv_dropdown.c:254:5
	ldr	r0, [sp, #12]
	bl	lv_debug_check_null
.Ltmp187:
	.loc	10 254 5                        @ lvgl/src/lv_widgets/lv_dropdown.c:254:5
	cbnz	r0, .LBB3_4
	b	.LBB3_2
.LBB3_2:
.Ltmp188:
	.loc	10 254 5                        @ lvgl/src/lv_widgets/lv_dropdown.c:254:5
	ldr	r2, [sp, #12]
	movw	r0, :lower16:.L.str.4
	movt	r0, :upper16:.L.str.4
	movs	r3, #0
	bl	lv_debug_log_error
	b	.LBB3_3
.LBB3_3:                                @ =>This Inner Loop Header: Depth=1
	b	.LBB3_3
.Ltmp189:
.LBB3_4:
	.loc	10 254 5                        @ lvgl/src/lv_widgets/lv_dropdown.c:254:5
	b	.LBB3_5
.Ltmp190:
.LBB3_5:
	.loc	10 255 5 is_stmt 1              @ lvgl/src/lv_widgets/lv_dropdown.c:255:5
	b	.LBB3_6
.LBB3_6:
.Ltmp191:
	.loc	10 255 5 is_stmt 0              @ lvgl/src/lv_widgets/lv_dropdown.c:255:5
	ldr	r0, [sp, #8]
	bl	lv_debug_check_null
.Ltmp192:
	.loc	10 255 5                        @ lvgl/src/lv_widgets/lv_dropdown.c:255:5
	cbnz	r0, .LBB3_9
	b	.LBB3_7
.LBB3_7:
.Ltmp193:
	.loc	10 255 5                        @ lvgl/src/lv_widgets/lv_dropdown.c:255:5
	ldr	r2, [sp, #8]
	movw	r0, :lower16:.L.str.4
	movt	r0, :upper16:.L.str.4
	movs	r3, #0
	bl	lv_debug_log_error
	b	.LBB3_8
.LBB3_8:                                @ =>This Inner Loop Header: Depth=1
	b	.LBB3_8
.Ltmp194:
.LBB3_9:
	.loc	10 255 5                        @ lvgl/src/lv_widgets/lv_dropdown.c:255:5
	b	.LBB3_10
.Ltmp195:
.LBB3_10:
	.loc	10 257 51 is_stmt 1             @ lvgl/src/lv_widgets/lv_dropdown.c:257:51
	ldr	r0, [sp, #12]
	.loc	10 257 31 is_stmt 0             @ lvgl/src/lv_widgets/lv_dropdown.c:257:31
	bl	lv_obj_get_ext_attr
	.loc	10 257 25                       @ lvgl/src/lv_widgets/lv_dropdown.c:257:25
	str	r0, [sp, #4]
	.loc	10 260 5 is_stmt 1              @ lvgl/src/lv_widgets/lv_dropdown.c:260:5
	ldr	r1, [sp, #4]
	movs	r0, #0
	.loc	10 260 21 is_stmt 0             @ lvgl/src/lv_widgets/lv_dropdown.c:260:21
	strh	r0, [r1, #42]
.Ltmp196:
	.loc	10 262 11 is_stmt 1             @ lvgl/src/lv_widgets/lv_dropdown.c:262:11
	str	r0, [sp]
	.loc	10 262 9 is_stmt 0              @ lvgl/src/lv_widgets/lv_dropdown.c:262:9
	b	.LBB3_11
.LBB3_11:                               @ =>This Inner Loop Header: Depth=1
.Ltmp197:
	.loc	10 262 16                       @ lvgl/src/lv_widgets/lv_dropdown.c:262:16
	ldr	r0, [sp, #8]
	.loc	10 262 24                       @ lvgl/src/lv_widgets/lv_dropdown.c:262:24
	ldr	r1, [sp]
	.loc	10 262 16                       @ lvgl/src/lv_widgets/lv_dropdown.c:262:16
	ldrsb	r0, [r0, r1]
.Ltmp198:
	.loc	10 262 5                        @ lvgl/src/lv_widgets/lv_dropdown.c:262:5
	cbz	r0, .LBB3_16
	b	.LBB3_12
.LBB3_12:                               @   in Loop: Header=BB3_11 Depth=1
.Ltmp199:
	.loc	10 263 12 is_stmt 1             @ lvgl/src/lv_widgets/lv_dropdown.c:263:12
	ldr	r0, [sp, #8]
	.loc	10 263 20 is_stmt 0             @ lvgl/src/lv_widgets/lv_dropdown.c:263:20
	ldr	r1, [sp]
	.loc	10 263 12                       @ lvgl/src/lv_widgets/lv_dropdown.c:263:12
	ldrsb	r0, [r0, r1]
.Ltmp200:
	.loc	10 263 12                       @ lvgl/src/lv_widgets/lv_dropdown.c:263:12
	cmp	r0, #10
	bne	.LBB3_14
	b	.LBB3_13
.LBB3_13:                               @   in Loop: Header=BB3_11 Depth=1
.Ltmp201:
	.loc	10 263 32                       @ lvgl/src/lv_widgets/lv_dropdown.c:263:32
	ldr	r1, [sp, #4]
	.loc	10 263 47                       @ lvgl/src/lv_widgets/lv_dropdown.c:263:47
	ldrh	r0, [r1, #42]
	adds	r0, #1
	strh	r0, [r1, #42]
	.loc	10 263 32                       @ lvgl/src/lv_widgets/lv_dropdown.c:263:32
	b	.LBB3_14
.Ltmp202:
.LBB3_14:                               @   in Loop: Header=BB3_11 Depth=1
	.loc	10 264 5 is_stmt 1              @ lvgl/src/lv_widgets/lv_dropdown.c:264:5
	b	.LBB3_15
.Ltmp203:
.LBB3_15:                               @   in Loop: Header=BB3_11 Depth=1
	.loc	10 262 37                       @ lvgl/src/lv_widgets/lv_dropdown.c:262:37
	ldr	r0, [sp]
	adds	r0, #1
	str	r0, [sp]
	.loc	10 262 5 is_stmt 0              @ lvgl/src/lv_widgets/lv_dropdown.c:262:5
	b	.LBB3_11
.Ltmp204:
.LBB3_16:
	.loc	10 265 5 is_stmt 1              @ lvgl/src/lv_widgets/lv_dropdown.c:265:5
	ldr	r1, [sp, #4]
	.loc	10 265 20 is_stmt 0             @ lvgl/src/lv_widgets/lv_dropdown.c:265:20
	ldrh	r0, [r1, #42]
	adds	r0, #1
	strh	r0, [r1, #42]
	.loc	10 266 5 is_stmt 1              @ lvgl/src/lv_widgets/lv_dropdown.c:266:5
	ldr	r1, [sp, #4]
	movs	r0, #0
	.loc	10 266 26 is_stmt 0             @ lvgl/src/lv_widgets/lv_dropdown.c:266:26
	strh	r0, [r1, #44]
	.loc	10 267 5 is_stmt 1              @ lvgl/src/lv_widgets/lv_dropdown.c:267:5
	ldr	r1, [sp, #4]
	.loc	10 267 26 is_stmt 0             @ lvgl/src/lv_widgets/lv_dropdown.c:267:26
	strh	r0, [r1, #46]
.Ltmp205:
	.loc	10 269 8 is_stmt 1              @ lvgl/src/lv_widgets/lv_dropdown.c:269:8
	ldr	r0, [sp, #4]
	.loc	10 269 13 is_stmt 0             @ lvgl/src/lv_widgets/lv_dropdown.c:269:13
	ldrb.w	r0, [r0, #50]
	lsrs	r0, r0, #3
	.loc	10 269 29                       @ lvgl/src/lv_widgets/lv_dropdown.c:269:29
	lsls	r0, r0, #31
	cbnz	r0, .LBB3_19
	b	.LBB3_17
.LBB3_17:
	.loc	10 269 32                       @ lvgl/src/lv_widgets/lv_dropdown.c:269:32
	ldr	r0, [sp, #4]
	.loc	10 269 37                       @ lvgl/src/lv_widgets/lv_dropdown.c:269:37
	ldr	r0, [r0, #12]
.Ltmp206:
	.loc	10 269 8                        @ lvgl/src/lv_widgets/lv_dropdown.c:269:8
	cbz	r0, .LBB3_19
	b	.LBB3_18
.LBB3_18:
.Ltmp207:
	.loc	10 270 21 is_stmt 1             @ lvgl/src/lv_widgets/lv_dropdown.c:270:21
	ldr	r0, [sp, #4]
	.loc	10 270 26 is_stmt 0             @ lvgl/src/lv_widgets/lv_dropdown.c:270:26
	ldr	r0, [r0, #12]
	.loc	10 270 9                        @ lvgl/src/lv_widgets/lv_dropdown.c:270:9
	bl	lv_mem_free
	.loc	10 271 9 is_stmt 1              @ lvgl/src/lv_widgets/lv_dropdown.c:271:9
	ldr	r1, [sp, #4]
	movs	r0, #0
	.loc	10 271 22 is_stmt 0             @ lvgl/src/lv_widgets/lv_dropdown.c:271:22
	str	r0, [r1, #12]
	.loc	10 272 5 is_stmt 1              @ lvgl/src/lv_widgets/lv_dropdown.c:272:5
	b	.LBB3_19
.Ltmp208:
.LBB3_19:
	.loc	10 274 5                        @ lvgl/src/lv_widgets/lv_dropdown.c:274:5
	ldr	r1, [sp, #4]
	.loc	10 274 21 is_stmt 0             @ lvgl/src/lv_widgets/lv_dropdown.c:274:21
	ldrb.w	r0, [r1, #50]
	orr	r0, r0, #8
	strb.w	r0, [r1, #50]
	.loc	10 275 28 is_stmt 1             @ lvgl/src/lv_widgets/lv_dropdown.c:275:28
	ldr	r0, [sp, #8]
	.loc	10 275 5 is_stmt 0              @ lvgl/src/lv_widgets/lv_dropdown.c:275:5
	ldr	r1, [sp, #4]
	.loc	10 275 18                       @ lvgl/src/lv_widgets/lv_dropdown.c:275:18
	str	r0, [r1, #12]
	.loc	10 276 1 is_stmt 1              @ lvgl/src/lv_widgets/lv_dropdown.c:276:1
	add	sp, #16
	pop	{r7, pc}
.Ltmp209:
.Lfunc_end3:
	.size	lv_dropdown_set_options_static, .Lfunc_end3-lv_dropdown_set_options_static
	.cfi_endproc
	.cantunwind
	.fnend
                                        @ -- End function
	.section	.text.lv_dropdown_set_options,"ax",%progbits
	.hidden	lv_dropdown_set_options         @ -- Begin function lv_dropdown_set_options
	.globl	lv_dropdown_set_options
	.p2align	3
	.type	lv_dropdown_set_options,%function
	.code	16                              @ @lv_dropdown_set_options
	.thumb_func
lv_dropdown_set_options:
.Lfunc_begin4:
	.loc	10 204 0                        @ lvgl/src/lv_widgets/lv_dropdown.c:204:0
	.fnstart
	.cfi_startproc
@ %bb.0:
	.save	{r7, lr}
	push	{r7, lr}
	.cfi_def_cfa_offset 8
	.cfi_offset lr, -4
	.cfi_offset r7, -8
	.pad	#24
	sub	sp, #24
	.cfi_def_cfa_offset 32
	str	r0, [sp, #20]
	str	r1, [sp, #16]
.Ltmp210:
	.loc	10 205 5 prologue_end           @ lvgl/src/lv_widgets/lv_dropdown.c:205:5
	b	.LBB4_1
.LBB4_1:
.Ltmp211:
	.loc	10 205 5 is_stmt 0              @ lvgl/src/lv_widgets/lv_dropdown.c:205:5
	ldr	r0, [sp, #20]
	bl	lv_debug_check_null
.Ltmp212:
	.loc	10 205 5                        @ lvgl/src/lv_widgets/lv_dropdown.c:205:5
	cbnz	r0, .LBB4_4
	b	.LBB4_2
.LBB4_2:
.Ltmp213:
	.loc	10 205 5                        @ lvgl/src/lv_widgets/lv_dropdown.c:205:5
	ldr	r2, [sp, #20]
	movw	r0, :lower16:.L.str.4
	movt	r0, :upper16:.L.str.4
	movs	r3, #0
	bl	lv_debug_log_error
	b	.LBB4_3
.LBB4_3:                                @ =>This Inner Loop Header: Depth=1
	b	.LBB4_3
.Ltmp214:
.LBB4_4:
	.loc	10 205 5                        @ lvgl/src/lv_widgets/lv_dropdown.c:205:5
	b	.LBB4_5
.Ltmp215:
.LBB4_5:
	.loc	10 206 5 is_stmt 1              @ lvgl/src/lv_widgets/lv_dropdown.c:206:5
	b	.LBB4_6
.LBB4_6:
.Ltmp216:
	.loc	10 206 5 is_stmt 0              @ lvgl/src/lv_widgets/lv_dropdown.c:206:5
	ldr	r0, [sp, #16]
	bl	lv_debug_check_null
.Ltmp217:
	.loc	10 206 5                        @ lvgl/src/lv_widgets/lv_dropdown.c:206:5
	cbnz	r0, .LBB4_9
	b	.LBB4_7
.LBB4_7:
.Ltmp218:
	.loc	10 206 5                        @ lvgl/src/lv_widgets/lv_dropdown.c:206:5
	ldr	r2, [sp, #16]
	movw	r0, :lower16:.L.str.4
	movt	r0, :upper16:.L.str.4
	movs	r3, #0
	bl	lv_debug_log_error
	b	.LBB4_8
.LBB4_8:                                @ =>This Inner Loop Header: Depth=1
	b	.LBB4_8
.Ltmp219:
.LBB4_9:
	.loc	10 206 5                        @ lvgl/src/lv_widgets/lv_dropdown.c:206:5
	b	.LBB4_10
.Ltmp220:
.LBB4_10:
	.loc	10 208 51 is_stmt 1             @ lvgl/src/lv_widgets/lv_dropdown.c:208:51
	ldr	r0, [sp, #20]
	.loc	10 208 31 is_stmt 0             @ lvgl/src/lv_widgets/lv_dropdown.c:208:31
	bl	lv_obj_get_ext_attr
	.loc	10 208 25                       @ lvgl/src/lv_widgets/lv_dropdown.c:208:25
	str	r0, [sp, #12]
	.loc	10 211 5 is_stmt 1              @ lvgl/src/lv_widgets/lv_dropdown.c:211:5
	ldr	r1, [sp, #12]
	movs	r0, #0
	.loc	10 211 21 is_stmt 0             @ lvgl/src/lv_widgets/lv_dropdown.c:211:21
	strh	r0, [r1, #42]
.Ltmp221:
	.loc	10 213 11 is_stmt 1             @ lvgl/src/lv_widgets/lv_dropdown.c:213:11
	str	r0, [sp, #8]
	.loc	10 213 9 is_stmt 0              @ lvgl/src/lv_widgets/lv_dropdown.c:213:9
	b	.LBB4_11
.LBB4_11:                               @ =>This Inner Loop Header: Depth=1
.Ltmp222:
	.loc	10 213 16                       @ lvgl/src/lv_widgets/lv_dropdown.c:213:16
	ldr	r0, [sp, #16]
	.loc	10 213 24                       @ lvgl/src/lv_widgets/lv_dropdown.c:213:24
	ldr	r1, [sp, #8]
	.loc	10 213 16                       @ lvgl/src/lv_widgets/lv_dropdown.c:213:16
	ldrsb	r0, [r0, r1]
.Ltmp223:
	.loc	10 213 5                        @ lvgl/src/lv_widgets/lv_dropdown.c:213:5
	cbz	r0, .LBB4_16
	b	.LBB4_12
.LBB4_12:                               @   in Loop: Header=BB4_11 Depth=1
.Ltmp224:
	.loc	10 214 12 is_stmt 1             @ lvgl/src/lv_widgets/lv_dropdown.c:214:12
	ldr	r0, [sp, #16]
	.loc	10 214 20 is_stmt 0             @ lvgl/src/lv_widgets/lv_dropdown.c:214:20
	ldr	r1, [sp, #8]
	.loc	10 214 12                       @ lvgl/src/lv_widgets/lv_dropdown.c:214:12
	ldrsb	r0, [r0, r1]
.Ltmp225:
	.loc	10 214 12                       @ lvgl/src/lv_widgets/lv_dropdown.c:214:12
	cmp	r0, #10
	bne	.LBB4_14
	b	.LBB4_13
.LBB4_13:                               @   in Loop: Header=BB4_11 Depth=1
.Ltmp226:
	.loc	10 214 32                       @ lvgl/src/lv_widgets/lv_dropdown.c:214:32
	ldr	r1, [sp, #12]
	.loc	10 214 47                       @ lvgl/src/lv_widgets/lv_dropdown.c:214:47
	ldrh	r0, [r1, #42]
	adds	r0, #1
	strh	r0, [r1, #42]
	.loc	10 214 32                       @ lvgl/src/lv_widgets/lv_dropdown.c:214:32
	b	.LBB4_14
.Ltmp227:
.LBB4_14:                               @   in Loop: Header=BB4_11 Depth=1
	.loc	10 215 5 is_stmt 1              @ lvgl/src/lv_widgets/lv_dropdown.c:215:5
	b	.LBB4_15
.Ltmp228:
.LBB4_15:                               @   in Loop: Header=BB4_11 Depth=1
	.loc	10 213 37                       @ lvgl/src/lv_widgets/lv_dropdown.c:213:37
	ldr	r0, [sp, #8]
	adds	r0, #1
	str	r0, [sp, #8]
	.loc	10 213 5 is_stmt 0              @ lvgl/src/lv_widgets/lv_dropdown.c:213:5
	b	.LBB4_11
.Ltmp229:
.LBB4_16:
	.loc	10 216 5 is_stmt 1              @ lvgl/src/lv_widgets/lv_dropdown.c:216:5
	ldr	r1, [sp, #12]
	.loc	10 216 20 is_stmt 0             @ lvgl/src/lv_widgets/lv_dropdown.c:216:20
	ldrh	r0, [r1, #42]
	adds	r0, #1
	strh	r0, [r1, #42]
	.loc	10 217 5 is_stmt 1              @ lvgl/src/lv_widgets/lv_dropdown.c:217:5
	ldr	r1, [sp, #12]
	movs	r0, #0
	.loc	10 217 26 is_stmt 0             @ lvgl/src/lv_widgets/lv_dropdown.c:217:26
	strh	r0, [r1, #44]
	.loc	10 218 5 is_stmt 1              @ lvgl/src/lv_widgets/lv_dropdown.c:218:5
	ldr	r1, [sp, #12]
	.loc	10 218 26 is_stmt 0             @ lvgl/src/lv_widgets/lv_dropdown.c:218:26
	strh	r0, [r1, #46]
	.loc	10 222 25 is_stmt 1             @ lvgl/src/lv_widgets/lv_dropdown.c:222:25
	ldr	r0, [sp, #16]
	.loc	10 222 18 is_stmt 0             @ lvgl/src/lv_widgets/lv_dropdown.c:222:18
	bl	strlen
	.loc	10 222 34                       @ lvgl/src/lv_widgets/lv_dropdown.c:222:34
	adds	r0, #1
	.loc	10 222 12                       @ lvgl/src/lv_widgets/lv_dropdown.c:222:12
	str	r0, [sp, #4]
.Ltmp230:
	.loc	10 227 8 is_stmt 1              @ lvgl/src/lv_widgets/lv_dropdown.c:227:8
	ldr	r0, [sp, #12]
	.loc	10 227 13 is_stmt 0             @ lvgl/src/lv_widgets/lv_dropdown.c:227:13
	ldr	r0, [r0, #12]
	.loc	10 227 29                       @ lvgl/src/lv_widgets/lv_dropdown.c:227:29
	cbz	r0, .LBB4_19
	b	.LBB4_17
.LBB4_17:
	.loc	10 227 32                       @ lvgl/src/lv_widgets/lv_dropdown.c:227:32
	ldr	r0, [sp, #12]
	.loc	10 227 37                       @ lvgl/src/lv_widgets/lv_dropdown.c:227:37
	ldrb.w	r0, [r0, #50]
	lsrs	r0, r0, #3
.Ltmp231:
	.loc	10 227 8                        @ lvgl/src/lv_widgets/lv_dropdown.c:227:8
	lsls	r0, r0, #31
	cbnz	r0, .LBB4_19
	b	.LBB4_18
.LBB4_18:
.Ltmp232:
	.loc	10 228 21 is_stmt 1             @ lvgl/src/lv_widgets/lv_dropdown.c:228:21
	ldr	r0, [sp, #12]
	.loc	10 228 26 is_stmt 0             @ lvgl/src/lv_widgets/lv_dropdown.c:228:26
	ldr	r0, [r0, #12]
	.loc	10 228 9                        @ lvgl/src/lv_widgets/lv_dropdown.c:228:9
	bl	lv_mem_free
	.loc	10 229 9 is_stmt 1              @ lvgl/src/lv_widgets/lv_dropdown.c:229:9
	ldr	r1, [sp, #12]
	movs	r0, #0
	.loc	10 229 22 is_stmt 0             @ lvgl/src/lv_widgets/lv_dropdown.c:229:22
	str	r0, [r1, #12]
	.loc	10 230 5 is_stmt 1              @ lvgl/src/lv_widgets/lv_dropdown.c:230:5
	b	.LBB4_19
.Ltmp233:
.LBB4_19:
	.loc	10 232 33                       @ lvgl/src/lv_widgets/lv_dropdown.c:232:33
	ldr	r0, [sp, #4]
	.loc	10 232 20 is_stmt 0             @ lvgl/src/lv_widgets/lv_dropdown.c:232:20
	bl	lv_mem_alloc
	.loc	10 232 5                        @ lvgl/src/lv_widgets/lv_dropdown.c:232:5
	ldr	r1, [sp, #12]
	.loc	10 232 18                       @ lvgl/src/lv_widgets/lv_dropdown.c:232:18
	str	r0, [r1, #12]
	.loc	10 234 5 is_stmt 1              @ lvgl/src/lv_widgets/lv_dropdown.c:234:5
	b	.LBB4_20
.LBB4_20:
.Ltmp234:
	.loc	10 234 5 is_stmt 0              @ lvgl/src/lv_widgets/lv_dropdown.c:234:5
	ldr	r0, [sp, #12]
	ldr	r0, [r0, #12]
	bl	lv_debug_check_null
.Ltmp235:
	.loc	10 234 5                        @ lvgl/src/lv_widgets/lv_dropdown.c:234:5
	cbnz	r0, .LBB4_23
	b	.LBB4_21
.LBB4_21:
.Ltmp236:
	.loc	10 234 5                        @ lvgl/src/lv_widgets/lv_dropdown.c:234:5
	ldr	r0, [sp, #12]
	ldr	r2, [r0, #12]
	movw	r0, :lower16:.L.str
	movt	r0, :upper16:.L.str
	movs	r3, #0
	bl	lv_debug_log_error
	b	.LBB4_22
.LBB4_22:                               @ =>This Inner Loop Header: Depth=1
	b	.LBB4_22
.Ltmp237:
.LBB4_23:
	.loc	10 234 5                        @ lvgl/src/lv_widgets/lv_dropdown.c:234:5
	b	.LBB4_24
.Ltmp238:
.LBB4_24:
	.loc	10 235 8 is_stmt 1              @ lvgl/src/lv_widgets/lv_dropdown.c:235:8
	ldr	r0, [sp, #12]
	.loc	10 235 13 is_stmt 0             @ lvgl/src/lv_widgets/lv_dropdown.c:235:13
	ldr	r0, [r0, #12]
.Ltmp239:
	.loc	10 235 8                        @ lvgl/src/lv_widgets/lv_dropdown.c:235:8
	cbnz	r0, .LBB4_26
	b	.LBB4_25
.LBB4_25:
.Ltmp240:
	.loc	10 235 30                       @ lvgl/src/lv_widgets/lv_dropdown.c:235:30
	b	.LBB4_27
.Ltmp241:
.LBB4_26:
	.loc	10 238 12 is_stmt 1             @ lvgl/src/lv_widgets/lv_dropdown.c:238:12
	ldr	r0, [sp, #12]
	.loc	10 238 17 is_stmt 0             @ lvgl/src/lv_widgets/lv_dropdown.c:238:17
	ldr	r0, [r0, #12]
	.loc	10 238 26                       @ lvgl/src/lv_widgets/lv_dropdown.c:238:26
	ldr	r1, [sp, #16]
	.loc	10 238 5                        @ lvgl/src/lv_widgets/lv_dropdown.c:238:5
	bl	strcpy
	.loc	10 244 5 is_stmt 1              @ lvgl/src/lv_widgets/lv_dropdown.c:244:5
	ldr	r1, [sp, #12]
	.loc	10 244 21 is_stmt 0             @ lvgl/src/lv_widgets/lv_dropdown.c:244:21
	ldrb.w	r0, [r1, #50]
	and	r0, r0, #247
	strb.w	r0, [r1, #50]
	.loc	10 245 1 is_stmt 1              @ lvgl/src/lv_widgets/lv_dropdown.c:245:1
	b	.LBB4_27
.LBB4_27:
	add	sp, #24
	pop	{r7, pc}
.Ltmp242:
.Lfunc_end4:
	.size	lv_dropdown_set_options, .Lfunc_end4-lv_dropdown_set_options
	.cfi_endproc
	.cantunwind
	.fnend
                                        @ -- End function
	.section	.text.lv_dropdown_get_options,"ax",%progbits
	.hidden	lv_dropdown_get_options         @ -- Begin function lv_dropdown_get_options
	.globl	lv_dropdown_get_options
	.p2align	3
	.type	lv_dropdown_get_options,%function
	.code	16                              @ @lv_dropdown_get_options
	.thumb_func
lv_dropdown_get_options:
.Lfunc_begin5:
	.loc	10 468 0                        @ lvgl/src/lv_widgets/lv_dropdown.c:468:0
	.fnstart
	.cfi_startproc
@ %bb.0:
	.save	{r7, lr}
	push	{r7, lr}
	.cfi_def_cfa_offset 8
	.cfi_offset lr, -4
	.cfi_offset r7, -8
	.pad	#8
	sub	sp, #8
	.cfi_def_cfa_offset 16
	str	r0, [sp, #4]
.Ltmp243:
	.loc	10 469 5 prologue_end           @ lvgl/src/lv_widgets/lv_dropdown.c:469:5
	b	.LBB5_1
.LBB5_1:
.Ltmp244:
	.loc	10 469 5 is_stmt 0              @ lvgl/src/lv_widgets/lv_dropdown.c:469:5
	ldr	r0, [sp, #4]
	bl	lv_debug_check_null
.Ltmp245:
	.loc	10 469 5                        @ lvgl/src/lv_widgets/lv_dropdown.c:469:5
	cbnz	r0, .LBB5_4
	b	.LBB5_2
.LBB5_2:
.Ltmp246:
	.loc	10 469 5                        @ lvgl/src/lv_widgets/lv_dropdown.c:469:5
	ldr	r2, [sp, #4]
	movw	r0, :lower16:.L.str.4
	movt	r0, :upper16:.L.str.4
	movs	r3, #0
	bl	lv_debug_log_error
	b	.LBB5_3
.LBB5_3:                                @ =>This Inner Loop Header: Depth=1
	b	.LBB5_3
.Ltmp247:
.LBB5_4:
	.loc	10 469 5                        @ lvgl/src/lv_widgets/lv_dropdown.c:469:5
	b	.LBB5_5
.Ltmp248:
.LBB5_5:
	.loc	10 471 51 is_stmt 1             @ lvgl/src/lv_widgets/lv_dropdown.c:471:51
	ldr	r0, [sp, #4]
	.loc	10 471 31 is_stmt 0             @ lvgl/src/lv_widgets/lv_dropdown.c:471:31
	bl	lv_obj_get_ext_attr
	.loc	10 471 25                       @ lvgl/src/lv_widgets/lv_dropdown.c:471:25
	str	r0, [sp]
	.loc	10 472 12 is_stmt 1             @ lvgl/src/lv_widgets/lv_dropdown.c:472:12
	ldr	r0, [sp]
	.loc	10 472 17 is_stmt 0             @ lvgl/src/lv_widgets/lv_dropdown.c:472:17
	ldr	r0, [r0, #12]
	.loc	10 472 5                        @ lvgl/src/lv_widgets/lv_dropdown.c:472:5
	add	sp, #8
	pop	{r7, pc}
.Ltmp249:
.Lfunc_end5:
	.size	lv_dropdown_get_options, .Lfunc_end5-lv_dropdown_get_options
	.cfi_endproc
	.cantunwind
	.fnend
                                        @ -- End function
	.section	.text.lv_dropdown_set_text,"ax",%progbits
	.hidden	lv_dropdown_set_text            @ -- Begin function lv_dropdown_set_text
	.globl	lv_dropdown_set_text
	.p2align	3
	.type	lv_dropdown_set_text,%function
	.code	16                              @ @lv_dropdown_set_text
	.thumb_func
lv_dropdown_set_text:
.Lfunc_begin6:
	.loc	10 167 0 is_stmt 1              @ lvgl/src/lv_widgets/lv_dropdown.c:167:0
	.fnstart
	.cfi_startproc
@ %bb.0:
	.save	{r7, lr}
	push	{r7, lr}
	.cfi_def_cfa_offset 8
	.cfi_offset lr, -4
	.cfi_offset r7, -8
	.pad	#16
	sub	sp, #16
	.cfi_def_cfa_offset 24
	str	r0, [sp, #12]
	str	r1, [sp, #8]
.Ltmp250:
	.loc	10 168 5 prologue_end           @ lvgl/src/lv_widgets/lv_dropdown.c:168:5
	b	.LBB6_1
.LBB6_1:
.Ltmp251:
	.loc	10 168 5 is_stmt 0              @ lvgl/src/lv_widgets/lv_dropdown.c:168:5
	ldr	r0, [sp, #12]
	bl	lv_debug_check_null
.Ltmp252:
	.loc	10 168 5                        @ lvgl/src/lv_widgets/lv_dropdown.c:168:5
	cbnz	r0, .LBB6_4
	b	.LBB6_2
.LBB6_2:
.Ltmp253:
	.loc	10 168 5                        @ lvgl/src/lv_widgets/lv_dropdown.c:168:5
	ldr	r2, [sp, #12]
	movw	r0, :lower16:.L.str.4
	movt	r0, :upper16:.L.str.4
	movs	r3, #0
	bl	lv_debug_log_error
	b	.LBB6_3
.LBB6_3:                                @ =>This Inner Loop Header: Depth=1
	b	.LBB6_3
.Ltmp254:
.LBB6_4:
	.loc	10 168 5                        @ lvgl/src/lv_widgets/lv_dropdown.c:168:5
	b	.LBB6_5
.Ltmp255:
.LBB6_5:
	.loc	10 169 51 is_stmt 1             @ lvgl/src/lv_widgets/lv_dropdown.c:169:51
	ldr	r0, [sp, #12]
	.loc	10 169 31 is_stmt 0             @ lvgl/src/lv_widgets/lv_dropdown.c:169:31
	bl	lv_obj_get_ext_attr
	.loc	10 169 25                       @ lvgl/src/lv_widgets/lv_dropdown.c:169:25
	str	r0, [sp, #4]
.Ltmp256:
	.loc	10 170 8 is_stmt 1              @ lvgl/src/lv_widgets/lv_dropdown.c:170:8
	ldr	r0, [sp, #4]
	.loc	10 170 13 is_stmt 0             @ lvgl/src/lv_widgets/lv_dropdown.c:170:13
	ldr	r0, [r0, #4]
	.loc	10 170 21                       @ lvgl/src/lv_widgets/lv_dropdown.c:170:21
	ldr	r1, [sp, #8]
.Ltmp257:
	.loc	10 170 8                        @ lvgl/src/lv_widgets/lv_dropdown.c:170:8
	cmp	r0, r1
	bne	.LBB6_7
	b	.LBB6_6
.LBB6_6:
.Ltmp258:
	.loc	10 170 26                       @ lvgl/src/lv_widgets/lv_dropdown.c:170:26
	b	.LBB6_8
.Ltmp259:
.LBB6_7:
	.loc	10 172 17 is_stmt 1             @ lvgl/src/lv_widgets/lv_dropdown.c:172:17
	ldr	r0, [sp, #8]
	.loc	10 172 5 is_stmt 0              @ lvgl/src/lv_widgets/lv_dropdown.c:172:5
	ldr	r1, [sp, #4]
	.loc	10 172 15                       @ lvgl/src/lv_widgets/lv_dropdown.c:172:15
	str	r0, [r1, #4]
	.loc	10 174 23 is_stmt 1             @ lvgl/src/lv_widgets/lv_dropdown.c:174:23
	ldr	r0, [sp, #12]
	.loc	10 174 5 is_stmt 0              @ lvgl/src/lv_widgets/lv_dropdown.c:174:5
	bl	lv_obj_invalidate
	.loc	10 175 1 is_stmt 1              @ lvgl/src/lv_widgets/lv_dropdown.c:175:1
	b	.LBB6_8
.LBB6_8:
	add	sp, #16
	pop	{r7, pc}
.Ltmp260:
.Lfunc_end6:
	.size	lv_dropdown_set_text, .Lfunc_end6-lv_dropdown_set_text
	.cfi_endproc
	.cantunwind
	.fnend
                                        @ -- End function
	.section	.text.lv_dropdown_clear_options,"ax",%progbits
	.hidden	lv_dropdown_clear_options       @ -- Begin function lv_dropdown_clear_options
	.globl	lv_dropdown_clear_options
	.p2align	3
	.type	lv_dropdown_clear_options,%function
	.code	16                              @ @lv_dropdown_clear_options
	.thumb_func
lv_dropdown_clear_options:
.Lfunc_begin7:
	.loc	10 182 0                        @ lvgl/src/lv_widgets/lv_dropdown.c:182:0
	.fnstart
	.cfi_startproc
@ %bb.0:
	.save	{r7, lr}
	push	{r7, lr}
	.cfi_def_cfa_offset 8
	.cfi_offset lr, -4
	.cfi_offset r7, -8
	.pad	#8
	sub	sp, #8
	.cfi_def_cfa_offset 16
	str	r0, [sp, #4]
.Ltmp261:
	.loc	10 183 5 prologue_end           @ lvgl/src/lv_widgets/lv_dropdown.c:183:5
	b	.LBB7_1
.LBB7_1:
.Ltmp262:
	.loc	10 183 5 is_stmt 0              @ lvgl/src/lv_widgets/lv_dropdown.c:183:5
	ldr	r0, [sp, #4]
	bl	lv_debug_check_null
.Ltmp263:
	.loc	10 183 5                        @ lvgl/src/lv_widgets/lv_dropdown.c:183:5
	cbnz	r0, .LBB7_4
	b	.LBB7_2
.LBB7_2:
.Ltmp264:
	.loc	10 183 5                        @ lvgl/src/lv_widgets/lv_dropdown.c:183:5
	ldr	r2, [sp, #4]
	movw	r0, :lower16:.L.str.4
	movt	r0, :upper16:.L.str.4
	movs	r3, #0
	bl	lv_debug_log_error
	b	.LBB7_3
.LBB7_3:                                @ =>This Inner Loop Header: Depth=1
	b	.LBB7_3
.Ltmp265:
.LBB7_4:
	.loc	10 183 5                        @ lvgl/src/lv_widgets/lv_dropdown.c:183:5
	b	.LBB7_5
.Ltmp266:
.LBB7_5:
	.loc	10 184 51 is_stmt 1             @ lvgl/src/lv_widgets/lv_dropdown.c:184:51
	ldr	r0, [sp, #4]
	.loc	10 184 31 is_stmt 0             @ lvgl/src/lv_widgets/lv_dropdown.c:184:31
	bl	lv_obj_get_ext_attr
	.loc	10 184 25                       @ lvgl/src/lv_widgets/lv_dropdown.c:184:25
	str	r0, [sp]
.Ltmp267:
	.loc	10 185 8 is_stmt 1              @ lvgl/src/lv_widgets/lv_dropdown.c:185:8
	ldr	r0, [sp]
	.loc	10 185 13 is_stmt 0             @ lvgl/src/lv_widgets/lv_dropdown.c:185:13
	ldr	r0, [r0, #12]
.Ltmp268:
	.loc	10 185 8                        @ lvgl/src/lv_widgets/lv_dropdown.c:185:8
	cbnz	r0, .LBB7_7
	b	.LBB7_6
.LBB7_6:
.Ltmp269:
	.loc	10 185 30                       @ lvgl/src/lv_widgets/lv_dropdown.c:185:30
	b	.LBB7_10
.Ltmp270:
.LBB7_7:
	.loc	10 187 8 is_stmt 1              @ lvgl/src/lv_widgets/lv_dropdown.c:187:8
	ldr	r0, [sp]
	.loc	10 187 13 is_stmt 0             @ lvgl/src/lv_widgets/lv_dropdown.c:187:13
	ldrb.w	r0, [r0, #50]
	lsrs	r0, r0, #3
.Ltmp271:
	.loc	10 187 8                        @ lvgl/src/lv_widgets/lv_dropdown.c:187:8
	lsls	r0, r0, #31
	cbnz	r0, .LBB7_9
	b	.LBB7_8
.LBB7_8:
.Ltmp272:
	.loc	10 188 21 is_stmt 1             @ lvgl/src/lv_widgets/lv_dropdown.c:188:21
	ldr	r0, [sp]
	.loc	10 188 26 is_stmt 0             @ lvgl/src/lv_widgets/lv_dropdown.c:188:26
	ldr	r0, [r0, #12]
	.loc	10 188 9                        @ lvgl/src/lv_widgets/lv_dropdown.c:188:9
	bl	lv_mem_free
	b	.LBB7_9
.Ltmp273:
.LBB7_9:
	.loc	10 190 5 is_stmt 1              @ lvgl/src/lv_widgets/lv_dropdown.c:190:5
	ldr	r1, [sp]
	movs	r0, #0
	.loc	10 190 18 is_stmt 0             @ lvgl/src/lv_widgets/lv_dropdown.c:190:18
	str	r0, [r1, #12]
	.loc	10 191 5 is_stmt 1              @ lvgl/src/lv_widgets/lv_dropdown.c:191:5
	ldr	r2, [sp]
	.loc	10 191 21 is_stmt 0             @ lvgl/src/lv_widgets/lv_dropdown.c:191:21
	ldrb.w	r1, [r2, #50]
	and	r1, r1, #247
	strb.w	r1, [r2, #50]
	.loc	10 192 5 is_stmt 1              @ lvgl/src/lv_widgets/lv_dropdown.c:192:5
	ldr	r1, [sp]
	.loc	10 192 21 is_stmt 0             @ lvgl/src/lv_widgets/lv_dropdown.c:192:21
	strh	r0, [r1, #42]
	.loc	10 194 23 is_stmt 1             @ lvgl/src/lv_widgets/lv_dropdown.c:194:23
	ldr	r0, [sp, #4]
	.loc	10 194 5 is_stmt 0              @ lvgl/src/lv_widgets/lv_dropdown.c:194:5
	bl	lv_obj_invalidate
	.loc	10 195 1 is_stmt 1              @ lvgl/src/lv_widgets/lv_dropdown.c:195:1
	b	.LBB7_10
.LBB7_10:
	add	sp, #8
	pop	{r7, pc}
.Ltmp274:
.Lfunc_end7:
	.size	lv_dropdown_clear_options, .Lfunc_end7-lv_dropdown_clear_options
	.cfi_endproc
	.cantunwind
	.fnend
                                        @ -- End function
	.section	.text.lv_dropdown_add_option,"ax",%progbits
	.hidden	lv_dropdown_add_option          @ -- Begin function lv_dropdown_add_option
	.globl	lv_dropdown_add_option
	.p2align	3
	.type	lv_dropdown_add_option,%function
	.code	16                              @ @lv_dropdown_add_option
	.thumb_func
lv_dropdown_add_option:
.Lfunc_begin8:
	.loc	10 285 0                        @ lvgl/src/lv_widgets/lv_dropdown.c:285:0
	.fnstart
	.cfi_startproc
@ %bb.0:
	.save	{r7, lr}
	push	{r7, lr}
	.cfi_def_cfa_offset 8
	.cfi_offset lr, -4
	.cfi_offset r7, -8
	.pad	#64
	sub	sp, #64
	.cfi_def_cfa_offset 72
	str	r0, [sp, #60]
	str	r1, [sp, #56]
	str	r2, [sp, #52]
.Ltmp275:
	.loc	10 286 5 prologue_end           @ lvgl/src/lv_widgets/lv_dropdown.c:286:5
	b	.LBB8_1
.LBB8_1:
.Ltmp276:
	.loc	10 286 5 is_stmt 0              @ lvgl/src/lv_widgets/lv_dropdown.c:286:5
	ldr	r0, [sp, #60]
	bl	lv_debug_check_null
.Ltmp277:
	.loc	10 286 5                        @ lvgl/src/lv_widgets/lv_dropdown.c:286:5
	cbnz	r0, .LBB8_4
	b	.LBB8_2
.LBB8_2:
.Ltmp278:
	.loc	10 286 5                        @ lvgl/src/lv_widgets/lv_dropdown.c:286:5
	ldr	r2, [sp, #60]
	movw	r0, :lower16:.L.str.4
	movt	r0, :upper16:.L.str.4
	movs	r3, #0
	bl	lv_debug_log_error
	b	.LBB8_3
.LBB8_3:                                @ =>This Inner Loop Header: Depth=1
	b	.LBB8_3
.Ltmp279:
.LBB8_4:
	.loc	10 286 5                        @ lvgl/src/lv_widgets/lv_dropdown.c:286:5
	b	.LBB8_5
.Ltmp280:
.LBB8_5:
	.loc	10 287 5 is_stmt 1              @ lvgl/src/lv_widgets/lv_dropdown.c:287:5
	b	.LBB8_6
.LBB8_6:
.Ltmp281:
	.loc	10 287 5 is_stmt 0              @ lvgl/src/lv_widgets/lv_dropdown.c:287:5
	ldr	r0, [sp, #56]
	bl	lv_debug_check_null
.Ltmp282:
	.loc	10 287 5                        @ lvgl/src/lv_widgets/lv_dropdown.c:287:5
	cbnz	r0, .LBB8_9
	b	.LBB8_7
.LBB8_7:
.Ltmp283:
	.loc	10 287 5                        @ lvgl/src/lv_widgets/lv_dropdown.c:287:5
	ldr	r2, [sp, #56]
	movw	r0, :lower16:.L.str.4
	movt	r0, :upper16:.L.str.4
	movs	r3, #0
	bl	lv_debug_log_error
	b	.LBB8_8
.LBB8_8:                                @ =>This Inner Loop Header: Depth=1
	b	.LBB8_8
.Ltmp284:
.LBB8_9:
	.loc	10 287 5                        @ lvgl/src/lv_widgets/lv_dropdown.c:287:5
	b	.LBB8_10
.Ltmp285:
.LBB8_10:
	.loc	10 289 51 is_stmt 1             @ lvgl/src/lv_widgets/lv_dropdown.c:289:51
	ldr	r0, [sp, #60]
	.loc	10 289 31 is_stmt 0             @ lvgl/src/lv_widgets/lv_dropdown.c:289:31
	bl	lv_obj_get_ext_attr
	.loc	10 289 25                       @ lvgl/src/lv_widgets/lv_dropdown.c:289:25
	str	r0, [sp, #48]
.Ltmp286:
	.loc	10 292 8 is_stmt 1              @ lvgl/src/lv_widgets/lv_dropdown.c:292:8
	ldr	r0, [sp, #48]
	.loc	10 292 13 is_stmt 0             @ lvgl/src/lv_widgets/lv_dropdown.c:292:13
	ldrb.w	r0, [r0, #50]
	lsrs	r0, r0, #3
.Ltmp287:
	.loc	10 292 8                        @ lvgl/src/lv_widgets/lv_dropdown.c:292:8
	lsls	r0, r0, #31
	cbz	r0, .LBB8_19
	b	.LBB8_11
.LBB8_11:
.Ltmp288:
	.loc	10 293 33 is_stmt 1             @ lvgl/src/lv_widgets/lv_dropdown.c:293:33
	ldr	r0, [sp, #48]
	.loc	10 293 38 is_stmt 0             @ lvgl/src/lv_widgets/lv_dropdown.c:293:38
	ldr	r0, [r0, #12]
	.loc	10 293 16                       @ lvgl/src/lv_widgets/lv_dropdown.c:293:16
	str	r0, [sp, #44]
	.loc	10 294 29 is_stmt 1             @ lvgl/src/lv_widgets/lv_dropdown.c:294:29
	ldr	r0, [sp, #44]
	.loc	10 294 22 is_stmt 0             @ lvgl/src/lv_widgets/lv_dropdown.c:294:22
	bl	strlen
	.loc	10 294 45                       @ lvgl/src/lv_widgets/lv_dropdown.c:294:45
	adds	r0, #1
	.loc	10 294 16                       @ lvgl/src/lv_widgets/lv_dropdown.c:294:16
	str	r0, [sp, #40]
	.loc	10 296 37 is_stmt 1             @ lvgl/src/lv_widgets/lv_dropdown.c:296:37
	ldr	r0, [sp, #40]
	.loc	10 296 24 is_stmt 0             @ lvgl/src/lv_widgets/lv_dropdown.c:296:24
	bl	lv_mem_alloc
	.loc	10 296 9                        @ lvgl/src/lv_widgets/lv_dropdown.c:296:9
	ldr	r1, [sp, #48]
	.loc	10 296 22                       @ lvgl/src/lv_widgets/lv_dropdown.c:296:22
	str	r0, [r1, #12]
	.loc	10 297 9 is_stmt 1              @ lvgl/src/lv_widgets/lv_dropdown.c:297:9
	b	.LBB8_12
.LBB8_12:
.Ltmp289:
	.loc	10 297 9 is_stmt 0              @ lvgl/src/lv_widgets/lv_dropdown.c:297:9
	ldr	r0, [sp, #48]
	ldr	r0, [r0, #12]
	bl	lv_debug_check_null
.Ltmp290:
	.loc	10 297 9                        @ lvgl/src/lv_widgets/lv_dropdown.c:297:9
	cbnz	r0, .LBB8_15
	b	.LBB8_13
.LBB8_13:
.Ltmp291:
	.loc	10 297 9                        @ lvgl/src/lv_widgets/lv_dropdown.c:297:9
	ldr	r0, [sp, #48]
	ldr	r2, [r0, #12]
	movw	r0, :lower16:.L.str
	movt	r0, :upper16:.L.str
	movs	r3, #0
	bl	lv_debug_log_error
	b	.LBB8_14
.LBB8_14:                               @ =>This Inner Loop Header: Depth=1
	b	.LBB8_14
.Ltmp292:
.LBB8_15:
	.loc	10 297 9                        @ lvgl/src/lv_widgets/lv_dropdown.c:297:9
	b	.LBB8_16
.Ltmp293:
.LBB8_16:
	.loc	10 298 12 is_stmt 1             @ lvgl/src/lv_widgets/lv_dropdown.c:298:12
	ldr	r0, [sp, #48]
	.loc	10 298 17 is_stmt 0             @ lvgl/src/lv_widgets/lv_dropdown.c:298:17
	ldr	r0, [r0, #12]
.Ltmp294:
	.loc	10 298 12                       @ lvgl/src/lv_widgets/lv_dropdown.c:298:12
	cbnz	r0, .LBB8_18
	b	.LBB8_17
.LBB8_17:
.Ltmp295:
	.loc	10 298 34                       @ lvgl/src/lv_widgets/lv_dropdown.c:298:34
	b	.LBB8_52
.Ltmp296:
.LBB8_18:
	.loc	10 300 16 is_stmt 1             @ lvgl/src/lv_widgets/lv_dropdown.c:300:16
	ldr	r0, [sp, #48]
	.loc	10 300 21 is_stmt 0             @ lvgl/src/lv_widgets/lv_dropdown.c:300:21
	ldr	r0, [r0, #12]
	.loc	10 300 30                       @ lvgl/src/lv_widgets/lv_dropdown.c:300:30
	ldr	r1, [sp, #44]
	.loc	10 300 9                        @ lvgl/src/lv_widgets/lv_dropdown.c:300:9
	bl	strcpy
	.loc	10 301 9 is_stmt 1              @ lvgl/src/lv_widgets/lv_dropdown.c:301:9
	ldr	r1, [sp, #48]
	.loc	10 301 25 is_stmt 0             @ lvgl/src/lv_widgets/lv_dropdown.c:301:25
	ldrb.w	r0, [r1, #50]
	and	r0, r0, #247
	strb.w	r0, [r1, #50]
	.loc	10 302 5 is_stmt 1              @ lvgl/src/lv_widgets/lv_dropdown.c:302:5
	b	.LBB8_19
.Ltmp297:
.LBB8_19:
	.loc	10 305 23                       @ lvgl/src/lv_widgets/lv_dropdown.c:305:23
	ldr	r0, [sp, #48]
	.loc	10 305 28 is_stmt 0             @ lvgl/src/lv_widgets/lv_dropdown.c:305:28
	ldr	r0, [r0, #12]
	.loc	10 305 22                       @ lvgl/src/lv_widgets/lv_dropdown.c:305:22
	cbnz	r0, .LBB8_21
	b	.LBB8_20
.LBB8_20:
	.loc	10 0 22                         @ lvgl/src/lv_widgets/lv_dropdown.c:0:22
	movs	r0, #0
	.loc	10 305 22                       @ lvgl/src/lv_widgets/lv_dropdown.c:305:22
	str	r0, [sp, #12]                   @ 4-byte Spill
	b	.LBB8_22
.LBB8_21:
	.loc	10 305 58                       @ lvgl/src/lv_widgets/lv_dropdown.c:305:58
	ldr	r0, [sp, #48]
	.loc	10 305 63                       @ lvgl/src/lv_widgets/lv_dropdown.c:305:63
	ldr	r0, [r0, #12]
	.loc	10 305 51                       @ lvgl/src/lv_widgets/lv_dropdown.c:305:51
	bl	strlen
	.loc	10 305 22                       @ lvgl/src/lv_widgets/lv_dropdown.c:305:22
	str	r0, [sp, #12]                   @ 4-byte Spill
	b	.LBB8_22
.LBB8_22:
	ldr	r0, [sp, #12]                   @ 4-byte Reload
	.loc	10 305 12                       @ lvgl/src/lv_widgets/lv_dropdown.c:305:12
	str	r0, [sp, #36]
	.loc	10 307 29 is_stmt 1             @ lvgl/src/lv_widgets/lv_dropdown.c:307:29
	ldr	r0, [sp, #56]
	.loc	10 307 22 is_stmt 0             @ lvgl/src/lv_widgets/lv_dropdown.c:307:22
	bl	strlen
	.loc	10 307 37                       @ lvgl/src/lv_widgets/lv_dropdown.c:307:37
	adds	r0, #1
	.loc	10 307 12                       @ lvgl/src/lv_widgets/lv_dropdown.c:307:12
	str	r0, [sp, #32]
	.loc	10 312 22 is_stmt 1             @ lvgl/src/lv_widgets/lv_dropdown.c:312:22
	ldr	r0, [sp, #32]
	.loc	10 312 32 is_stmt 0             @ lvgl/src/lv_widgets/lv_dropdown.c:312:32
	ldr	r1, [sp, #36]
	.loc	10 312 30                       @ lvgl/src/lv_widgets/lv_dropdown.c:312:30
	add	r0, r1
	.loc	10 312 40                       @ lvgl/src/lv_widgets/lv_dropdown.c:312:40
	adds	r0, #2
	.loc	10 312 12                       @ lvgl/src/lv_widgets/lv_dropdown.c:312:12
	str	r0, [sp, #28]
	.loc	10 313 42 is_stmt 1             @ lvgl/src/lv_widgets/lv_dropdown.c:313:42
	ldr	r0, [sp, #48]
	.loc	10 313 47 is_stmt 0             @ lvgl/src/lv_widgets/lv_dropdown.c:313:47
	ldr	r0, [r0, #12]
	.loc	10 313 56                       @ lvgl/src/lv_widgets/lv_dropdown.c:313:56
	ldr	r1, [sp, #28]
	.loc	10 313 64                       @ lvgl/src/lv_widgets/lv_dropdown.c:313:64
	adds	r1, #1
	.loc	10 313 27                       @ lvgl/src/lv_widgets/lv_dropdown.c:313:27
	bl	lv_mem_realloc
	.loc	10 313 5                        @ lvgl/src/lv_widgets/lv_dropdown.c:313:5
	ldr	r1, [sp, #48]
	.loc	10 313 25                       @ lvgl/src/lv_widgets/lv_dropdown.c:313:25
	str	r0, [r1, #12]
	.loc	10 314 5 is_stmt 1              @ lvgl/src/lv_widgets/lv_dropdown.c:314:5
	b	.LBB8_23
.LBB8_23:
.Ltmp298:
	.loc	10 314 5 is_stmt 0              @ lvgl/src/lv_widgets/lv_dropdown.c:314:5
	ldr	r0, [sp, #48]
	ldr	r0, [r0, #12]
	bl	lv_debug_check_null
.Ltmp299:
	.loc	10 314 5                        @ lvgl/src/lv_widgets/lv_dropdown.c:314:5
	cbnz	r0, .LBB8_26
	b	.LBB8_24
.LBB8_24:
.Ltmp300:
	.loc	10 314 5                        @ lvgl/src/lv_widgets/lv_dropdown.c:314:5
	ldr	r0, [sp, #48]
	ldr	r2, [r0, #12]
	movw	r0, :lower16:.L.str
	movt	r0, :upper16:.L.str
	movs	r3, #0
	bl	lv_debug_log_error
	b	.LBB8_25
.LBB8_25:                               @ =>This Inner Loop Header: Depth=1
	b	.LBB8_25
.Ltmp301:
.LBB8_26:
	.loc	10 314 5                        @ lvgl/src/lv_widgets/lv_dropdown.c:314:5
	b	.LBB8_27
.Ltmp302:
.LBB8_27:
	.loc	10 315 8 is_stmt 1              @ lvgl/src/lv_widgets/lv_dropdown.c:315:8
	ldr	r0, [sp, #48]
	.loc	10 315 13 is_stmt 0             @ lvgl/src/lv_widgets/lv_dropdown.c:315:13
	ldr	r0, [r0, #12]
.Ltmp303:
	.loc	10 315 8                        @ lvgl/src/lv_widgets/lv_dropdown.c:315:8
	cbnz	r0, .LBB8_29
	b	.LBB8_28
.LBB8_28:
.Ltmp304:
	.loc	10 315 30                       @ lvgl/src/lv_widgets/lv_dropdown.c:315:30
	b	.LBB8_52
.Ltmp305:
.LBB8_29:
	.loc	10 317 5 is_stmt 1              @ lvgl/src/lv_widgets/lv_dropdown.c:317:5
	ldr	r0, [sp, #48]
	.loc	10 317 10 is_stmt 0             @ lvgl/src/lv_widgets/lv_dropdown.c:317:10
	ldr	r1, [r0, #12]
	.loc	10 317 18                       @ lvgl/src/lv_widgets/lv_dropdown.c:317:18
	ldr	r2, [sp, #36]
	movs	r0, #0
	.loc	10 317 27                       @ lvgl/src/lv_widgets/lv_dropdown.c:317:27
	strb	r0, [r1, r2]
	.loc	10 320 27 is_stmt 1             @ lvgl/src/lv_widgets/lv_dropdown.c:320:27
	ldr	r0, [sp, #36]
	.loc	10 320 14 is_stmt 0             @ lvgl/src/lv_widgets/lv_dropdown.c:320:14
	str	r0, [sp, #24]
.Ltmp306:
	.loc	10 321 8 is_stmt 1              @ lvgl/src/lv_widgets/lv_dropdown.c:321:8
	ldr	r0, [sp, #52]
	movw	r1, #65535
.Ltmp307:
	.loc	10 321 8 is_stmt 0              @ lvgl/src/lv_widgets/lv_dropdown.c:321:8
	cmp	r0, r1
	beq	.LBB8_39
	b	.LBB8_30
.LBB8_30:
	.loc	10 0 8                          @ lvgl/src/lv_widgets/lv_dropdown.c:0:8
	movs	r0, #0
.Ltmp308:
	.loc	10 322 18 is_stmt 1             @ lvgl/src/lv_widgets/lv_dropdown.c:322:18
	str	r0, [sp, #20]
.Ltmp309:
	.loc	10 323 24                       @ lvgl/src/lv_widgets/lv_dropdown.c:323:24
	str	r0, [sp, #24]
	.loc	10 323 13 is_stmt 0             @ lvgl/src/lv_widgets/lv_dropdown.c:323:13
	b	.LBB8_31
.LBB8_31:                               @ =>This Inner Loop Header: Depth=1
.Ltmp310:
	.loc	10 323 29                       @ lvgl/src/lv_widgets/lv_dropdown.c:323:29
	ldr	r0, [sp, #48]
	.loc	10 323 34                       @ lvgl/src/lv_widgets/lv_dropdown.c:323:34
	ldr	r0, [r0, #12]
	.loc	10 323 42                       @ lvgl/src/lv_widgets/lv_dropdown.c:323:42
	ldr	r1, [sp, #24]
	.loc	10 323 29                       @ lvgl/src/lv_widgets/lv_dropdown.c:323:29
	ldrsb	r0, [r0, r1]
.Ltmp311:
	.loc	10 323 9                        @ lvgl/src/lv_widgets/lv_dropdown.c:323:9
	cbz	r0, .LBB8_38
	b	.LBB8_32
.LBB8_32:                               @   in Loop: Header=BB8_31 Depth=1
.Ltmp312:
	.loc	10 324 16 is_stmt 1             @ lvgl/src/lv_widgets/lv_dropdown.c:324:16
	ldr	r0, [sp, #20]
	.loc	10 324 25 is_stmt 0             @ lvgl/src/lv_widgets/lv_dropdown.c:324:25
	ldr	r1, [sp, #52]
.Ltmp313:
	.loc	10 324 16                       @ lvgl/src/lv_widgets/lv_dropdown.c:324:16
	cmp	r0, r1
	bne	.LBB8_34
	b	.LBB8_33
.LBB8_33:
.Ltmp314:
	.loc	10 325 17 is_stmt 1             @ lvgl/src/lv_widgets/lv_dropdown.c:325:17
	b	.LBB8_38
.Ltmp315:
.LBB8_34:                               @   in Loop: Header=BB8_31 Depth=1
	.loc	10 326 16                       @ lvgl/src/lv_widgets/lv_dropdown.c:326:16
	ldr	r0, [sp, #48]
	.loc	10 326 21 is_stmt 0             @ lvgl/src/lv_widgets/lv_dropdown.c:326:21
	ldr	r0, [r0, #12]
	.loc	10 326 29                       @ lvgl/src/lv_widgets/lv_dropdown.c:326:29
	ldr	r1, [sp, #24]
	.loc	10 326 16                       @ lvgl/src/lv_widgets/lv_dropdown.c:326:16
	ldrsb	r0, [r0, r1]
.Ltmp316:
	.loc	10 326 16                       @ lvgl/src/lv_widgets/lv_dropdown.c:326:16
	cmp	r0, #10
	bne	.LBB8_36
	b	.LBB8_35
.LBB8_35:                               @   in Loop: Header=BB8_31 Depth=1
.Ltmp317:
	.loc	10 327 22 is_stmt 1             @ lvgl/src/lv_widgets/lv_dropdown.c:327:22
	ldr	r0, [sp, #20]
	adds	r0, #1
	str	r0, [sp, #20]
	.loc	10 327 17 is_stmt 0             @ lvgl/src/lv_widgets/lv_dropdown.c:327:17
	b	.LBB8_36
.Ltmp318:
.LBB8_36:                               @   in Loop: Header=BB8_31 Depth=1
	.loc	10 328 9 is_stmt 1              @ lvgl/src/lv_widgets/lv_dropdown.c:328:9
	b	.LBB8_37
.Ltmp319:
.LBB8_37:                               @   in Loop: Header=BB8_31 Depth=1
	.loc	10 323 70                       @ lvgl/src/lv_widgets/lv_dropdown.c:323:70
	ldr	r0, [sp, #24]
	adds	r0, #1
	str	r0, [sp, #24]
	.loc	10 323 9 is_stmt 0              @ lvgl/src/lv_widgets/lv_dropdown.c:323:9
	b	.LBB8_31
.Ltmp320:
.LBB8_38:
	.loc	10 329 5 is_stmt 1              @ lvgl/src/lv_widgets/lv_dropdown.c:329:5
	b	.LBB8_39
.Ltmp321:
.LBB8_39:
	.loc	10 332 9                        @ lvgl/src/lv_widgets/lv_dropdown.c:332:9
	ldr	r0, [sp, #24]
	.loc	10 332 25 is_stmt 0             @ lvgl/src/lv_widgets/lv_dropdown.c:332:25
	cbz	r0, .LBB8_42
	b	.LBB8_40
.LBB8_40:
	.loc	10 332 29                       @ lvgl/src/lv_widgets/lv_dropdown.c:332:29
	ldr	r0, [sp, #52]
	.loc	10 332 36                       @ lvgl/src/lv_widgets/lv_dropdown.c:332:36
	ldr	r1, [sp, #48]
	.loc	10 332 41                       @ lvgl/src/lv_widgets/lv_dropdown.c:332:41
	ldrh	r1, [r1, #42]
.Ltmp322:
	.loc	10 332 8                        @ lvgl/src/lv_widgets/lv_dropdown.c:332:8
	cmp	r0, r1
	blo	.LBB8_42
	b	.LBB8_41
.LBB8_41:
.Ltmp323:
	.loc	10 333 21 is_stmt 1             @ lvgl/src/lv_widgets/lv_dropdown.c:333:21
	ldr	r0, [sp, #48]
	.loc	10 333 26 is_stmt 0             @ lvgl/src/lv_widgets/lv_dropdown.c:333:26
	ldr	r0, [r0, #12]
	.loc	10 333 35                       @ lvgl/src/lv_widgets/lv_dropdown.c:333:35
	str	r0, [sp, #8]                    @ 4-byte Spill
	movw	r1, :lower16:_lv_txt_encoded_get_char_id
	movt	r1, :upper16:_lv_txt_encoded_get_char_id
	ldr	r2, [r1]
	.loc	10 333 87                       @ lvgl/src/lv_widgets/lv_dropdown.c:333:87
	ldr	r1, [sp, #24]
	adds	r3, r1, #1
	str	r3, [sp, #24]
	.loc	10 333 35                       @ lvgl/src/lv_widgets/lv_dropdown.c:333:35
	blx	r2
	mov	r1, r0
	.loc	10 333 9                        @ lvgl/src/lv_widgets/lv_dropdown.c:333:9
	ldr	r0, [sp, #8]                    @ 4-byte Reload
	movw	r2, :lower16:.L.str.5
	movt	r2, :upper16:.L.str.5
	bl	_lv_txt_ins
	b	.LBB8_42
.Ltmp324:
.LBB8_42:
	.loc	10 336 38 is_stmt 1             @ lvgl/src/lv_widgets/lv_dropdown.c:336:38
	ldr	r0, [sp, #32]
	.loc	10 336 46 is_stmt 0             @ lvgl/src/lv_widgets/lv_dropdown.c:336:46
	adds	r0, #2
	.loc	10 336 22                       @ lvgl/src/lv_widgets/lv_dropdown.c:336:22
	bl	_lv_mem_buf_get
	.loc	10 336 12                       @ lvgl/src/lv_widgets/lv_dropdown.c:336:12
	str	r0, [sp, #16]
	.loc	10 337 5 is_stmt 1              @ lvgl/src/lv_widgets/lv_dropdown.c:337:5
	b	.LBB8_43
.LBB8_43:
.Ltmp325:
	.loc	10 337 5 is_stmt 0              @ lvgl/src/lv_widgets/lv_dropdown.c:337:5
	ldr	r0, [sp, #16]
	bl	lv_debug_check_null
.Ltmp326:
	.loc	10 337 5                        @ lvgl/src/lv_widgets/lv_dropdown.c:337:5
	cbnz	r0, .LBB8_46
	b	.LBB8_44
.LBB8_44:
.Ltmp327:
	.loc	10 337 5                        @ lvgl/src/lv_widgets/lv_dropdown.c:337:5
	ldr	r2, [sp, #16]
	movw	r0, :lower16:.L.str
	movt	r0, :upper16:.L.str
	movs	r3, #0
	bl	lv_debug_log_error
	b	.LBB8_45
.LBB8_45:                               @ =>This Inner Loop Header: Depth=1
	b	.LBB8_45
.Ltmp328:
.LBB8_46:
	.loc	10 337 5                        @ lvgl/src/lv_widgets/lv_dropdown.c:337:5
	b	.LBB8_47
.Ltmp329:
.LBB8_47:
	.loc	10 338 8 is_stmt 1              @ lvgl/src/lv_widgets/lv_dropdown.c:338:8
	ldr	r0, [sp, #16]
.Ltmp330:
	.loc	10 338 8 is_stmt 0              @ lvgl/src/lv_widgets/lv_dropdown.c:338:8
	cbnz	r0, .LBB8_49
	b	.LBB8_48
.LBB8_48:
.Ltmp331:
	.loc	10 338 25                       @ lvgl/src/lv_widgets/lv_dropdown.c:338:25
	b	.LBB8_52
.Ltmp332:
.LBB8_49:
	.loc	10 340 12 is_stmt 1             @ lvgl/src/lv_widgets/lv_dropdown.c:340:12
	ldr	r0, [sp, #16]
	.loc	10 340 21 is_stmt 0             @ lvgl/src/lv_widgets/lv_dropdown.c:340:21
	ldr	r1, [sp, #56]
	.loc	10 340 5                        @ lvgl/src/lv_widgets/lv_dropdown.c:340:5
	bl	strcpy
.Ltmp333:
	.loc	10 344 8 is_stmt 1              @ lvgl/src/lv_widgets/lv_dropdown.c:344:8
	ldr	r0, [sp, #52]
	.loc	10 344 14 is_stmt 0             @ lvgl/src/lv_widgets/lv_dropdown.c:344:14
	ldr	r1, [sp, #48]
	.loc	10 344 19                       @ lvgl/src/lv_widgets/lv_dropdown.c:344:19
	ldrh	r1, [r1, #42]
.Ltmp334:
	.loc	10 344 8                        @ lvgl/src/lv_widgets/lv_dropdown.c:344:8
	cmp	r0, r1
	bhs	.LBB8_51
	b	.LBB8_50
.LBB8_50:
.Ltmp335:
	.loc	10 344 38                       @ lvgl/src/lv_widgets/lv_dropdown.c:344:38
	ldr	r0, [sp, #16]
	.loc	10 344 31                       @ lvgl/src/lv_widgets/lv_dropdown.c:344:31
	movw	r1, :lower16:.L.str.5
	movt	r1, :upper16:.L.str.5
	bl	strcat
	b	.LBB8_51
.Ltmp336:
.LBB8_51:
	.loc	10 346 17 is_stmt 1             @ lvgl/src/lv_widgets/lv_dropdown.c:346:17
	ldr	r0, [sp, #48]
	.loc	10 346 22 is_stmt 0             @ lvgl/src/lv_widgets/lv_dropdown.c:346:22
	ldr	r0, [r0, #12]
	.loc	10 346 31                       @ lvgl/src/lv_widgets/lv_dropdown.c:346:31
	str	r0, [sp, #4]                    @ 4-byte Spill
	movw	r1, :lower16:_lv_txt_encoded_get_char_id
	movt	r1, :upper16:_lv_txt_encoded_get_char_id
	ldr	r2, [r1]
	.loc	10 346 73                       @ lvgl/src/lv_widgets/lv_dropdown.c:346:73
	ldr	r1, [sp, #24]
	.loc	10 346 31                       @ lvgl/src/lv_widgets/lv_dropdown.c:346:31
	blx	r2
	mov	r1, r0
	.loc	10 346 86                       @ lvgl/src/lv_widgets/lv_dropdown.c:346:86
	ldr	r0, [sp, #4]                    @ 4-byte Reload
	ldr	r2, [sp, #16]
	.loc	10 346 5                        @ lvgl/src/lv_widgets/lv_dropdown.c:346:5
	bl	_lv_txt_ins
	.loc	10 347 25 is_stmt 1             @ lvgl/src/lv_widgets/lv_dropdown.c:347:25
	ldr	r0, [sp, #16]
	.loc	10 347 5 is_stmt 0              @ lvgl/src/lv_widgets/lv_dropdown.c:347:5
	bl	_lv_mem_buf_release
	.loc	10 349 5 is_stmt 1              @ lvgl/src/lv_widgets/lv_dropdown.c:349:5
	ldr	r1, [sp, #48]
	.loc	10 349 20 is_stmt 0             @ lvgl/src/lv_widgets/lv_dropdown.c:349:20
	ldrh	r0, [r1, #42]
	adds	r0, #1
	strh	r0, [r1, #42]
	.loc	10 351 23 is_stmt 1             @ lvgl/src/lv_widgets/lv_dropdown.c:351:23
	ldr	r0, [sp, #60]
	.loc	10 351 5 is_stmt 0              @ lvgl/src/lv_widgets/lv_dropdown.c:351:5
	bl	lv_obj_invalidate
	.loc	10 352 1 is_stmt 1              @ lvgl/src/lv_widgets/lv_dropdown.c:352:1
	b	.LBB8_52
.LBB8_52:
	add	sp, #64
	pop	{r7, pc}
.Ltmp337:
.Lfunc_end8:
	.size	lv_dropdown_add_option, .Lfunc_end8-lv_dropdown_add_option
	.cfi_endproc
	.cantunwind
	.fnend
                                        @ -- End function
	.section	.text.lv_dropdown_set_selected,"ax",%progbits
	.hidden	lv_dropdown_set_selected        @ -- Begin function lv_dropdown_set_selected
	.globl	lv_dropdown_set_selected
	.p2align	3
	.type	lv_dropdown_set_selected,%function
	.code	16                              @ @lv_dropdown_set_selected
	.thumb_func
lv_dropdown_set_selected:
.Lfunc_begin9:
	.loc	10 360 0                        @ lvgl/src/lv_widgets/lv_dropdown.c:360:0
	.fnstart
	.cfi_startproc
@ %bb.0:
	.save	{r7, lr}
	push	{r7, lr}
	.cfi_def_cfa_offset 8
	.cfi_offset lr, -4
	.cfi_offset r7, -8
	.pad	#16
	sub	sp, #16
	.cfi_def_cfa_offset 24
                                        @ kill: def $r2 killed $r1
	str	r0, [sp, #12]
	strh.w	r1, [sp, #10]
.Ltmp338:
	.loc	10 361 5 prologue_end           @ lvgl/src/lv_widgets/lv_dropdown.c:361:5
	b	.LBB9_1
.LBB9_1:
.Ltmp339:
	.loc	10 361 5 is_stmt 0              @ lvgl/src/lv_widgets/lv_dropdown.c:361:5
	ldr	r0, [sp, #12]
	bl	lv_debug_check_null
.Ltmp340:
	.loc	10 361 5                        @ lvgl/src/lv_widgets/lv_dropdown.c:361:5
	cbnz	r0, .LBB9_4
	b	.LBB9_2
.LBB9_2:
.Ltmp341:
	.loc	10 361 5                        @ lvgl/src/lv_widgets/lv_dropdown.c:361:5
	ldr	r2, [sp, #12]
	movw	r0, :lower16:.L.str.4
	movt	r0, :upper16:.L.str.4
	movs	r3, #0
	bl	lv_debug_log_error
	b	.LBB9_3
.LBB9_3:                                @ =>This Inner Loop Header: Depth=1
	b	.LBB9_3
.Ltmp342:
.LBB9_4:
	.loc	10 361 5                        @ lvgl/src/lv_widgets/lv_dropdown.c:361:5
	b	.LBB9_5
.Ltmp343:
.LBB9_5:
	.loc	10 363 51 is_stmt 1             @ lvgl/src/lv_widgets/lv_dropdown.c:363:51
	ldr	r0, [sp, #12]
	.loc	10 363 31 is_stmt 0             @ lvgl/src/lv_widgets/lv_dropdown.c:363:31
	bl	lv_obj_get_ext_attr
	.loc	10 363 25                       @ lvgl/src/lv_widgets/lv_dropdown.c:363:25
	str	r0, [sp, #4]
.Ltmp344:
	.loc	10 364 8 is_stmt 1              @ lvgl/src/lv_widgets/lv_dropdown.c:364:8
	ldr	r0, [sp, #4]
	.loc	10 364 13 is_stmt 0             @ lvgl/src/lv_widgets/lv_dropdown.c:364:13
	ldrh	r0, [r0, #44]
	.loc	10 364 27                       @ lvgl/src/lv_widgets/lv_dropdown.c:364:27
	ldrh.w	r1, [sp, #10]
.Ltmp345:
	.loc	10 364 8                        @ lvgl/src/lv_widgets/lv_dropdown.c:364:8
	cmp	r0, r1
	bne	.LBB9_7
	b	.LBB9_6
.LBB9_6:
.Ltmp346:
	.loc	10 364 36                       @ lvgl/src/lv_widgets/lv_dropdown.c:364:36
	b	.LBB9_11
.Ltmp347:
.LBB9_7:
	.loc	10 366 28 is_stmt 1             @ lvgl/src/lv_widgets/lv_dropdown.c:366:28
	ldrh.w	r0, [sp, #10]
	.loc	10 366 38 is_stmt 0             @ lvgl/src/lv_widgets/lv_dropdown.c:366:38
	ldr	r1, [sp, #4]
	.loc	10 366 43                       @ lvgl/src/lv_widgets/lv_dropdown.c:366:43
	ldrh	r1, [r1, #42]
	.loc	10 366 28                       @ lvgl/src/lv_widgets/lv_dropdown.c:366:28
	cmp	r0, r1
	bge	.LBB9_9
	b	.LBB9_8
.LBB9_8:
	.loc	10 366 56                       @ lvgl/src/lv_widgets/lv_dropdown.c:366:56
	ldrh.w	r0, [sp, #10]
	.loc	10 366 28                       @ lvgl/src/lv_widgets/lv_dropdown.c:366:28
	str	r0, [sp]                        @ 4-byte Spill
	b	.LBB9_10
.LBB9_9:
	.loc	10 366 66                       @ lvgl/src/lv_widgets/lv_dropdown.c:366:66
	ldr	r0, [sp, #4]
	.loc	10 366 71                       @ lvgl/src/lv_widgets/lv_dropdown.c:366:71
	ldrh	r0, [r0, #42]
	.loc	10 366 82                       @ lvgl/src/lv_widgets/lv_dropdown.c:366:82
	subs	r0, #1
	.loc	10 366 28                       @ lvgl/src/lv_widgets/lv_dropdown.c:366:28
	str	r0, [sp]                        @ 4-byte Spill
	b	.LBB9_10
.LBB9_10:
	ldr	r0, [sp]                        @ 4-byte Reload
	.loc	10 366 5                        @ lvgl/src/lv_widgets/lv_dropdown.c:366:5
	ldr	r1, [sp, #4]
	.loc	10 366 26                       @ lvgl/src/lv_widgets/lv_dropdown.c:366:26
	strh	r0, [r1, #44]
	.loc	10 367 28 is_stmt 1             @ lvgl/src/lv_widgets/lv_dropdown.c:367:28
	ldr	r1, [sp, #4]
	.loc	10 367 33 is_stmt 0             @ lvgl/src/lv_widgets/lv_dropdown.c:367:33
	ldrh	r0, [r1, #44]
	.loc	10 367 26                       @ lvgl/src/lv_widgets/lv_dropdown.c:367:26
	strh	r0, [r1, #46]
	.loc	10 369 23 is_stmt 1             @ lvgl/src/lv_widgets/lv_dropdown.c:369:23
	ldr	r0, [sp, #12]
	.loc	10 369 5 is_stmt 0              @ lvgl/src/lv_widgets/lv_dropdown.c:369:5
	bl	lv_obj_invalidate
	.loc	10 370 1 is_stmt 1              @ lvgl/src/lv_widgets/lv_dropdown.c:370:1
	b	.LBB9_11
.LBB9_11:
	add	sp, #16
	pop	{r7, pc}
.Ltmp348:
.Lfunc_end9:
	.size	lv_dropdown_set_selected, .Lfunc_end9-lv_dropdown_set_selected
	.cfi_endproc
	.cantunwind
	.fnend
                                        @ -- End function
	.section	.text.lv_dropdown_set_dir,"ax",%progbits
	.hidden	lv_dropdown_set_dir             @ -- Begin function lv_dropdown_set_dir
	.globl	lv_dropdown_set_dir
	.p2align	3
	.type	lv_dropdown_set_dir,%function
	.code	16                              @ @lv_dropdown_set_dir
	.thumb_func
lv_dropdown_set_dir:
.Lfunc_begin10:
	.loc	10 378 0                        @ lvgl/src/lv_widgets/lv_dropdown.c:378:0
	.fnstart
	.cfi_startproc
@ %bb.0:
	.save	{r7, lr}
	push	{r7, lr}
	.cfi_def_cfa_offset 8
	.cfi_offset lr, -4
	.cfi_offset r7, -8
	.pad	#16
	sub	sp, #16
	.cfi_def_cfa_offset 24
                                        @ kill: def $r2 killed $r1
	str	r0, [sp, #12]
	strb.w	r1, [sp, #11]
.Ltmp349:
	.loc	10 379 5 prologue_end           @ lvgl/src/lv_widgets/lv_dropdown.c:379:5
	b	.LBB10_1
.LBB10_1:
.Ltmp350:
	.loc	10 379 5 is_stmt 0              @ lvgl/src/lv_widgets/lv_dropdown.c:379:5
	ldr	r0, [sp, #12]
	bl	lv_debug_check_null
.Ltmp351:
	.loc	10 379 5                        @ lvgl/src/lv_widgets/lv_dropdown.c:379:5
	cbnz	r0, .LBB10_4
	b	.LBB10_2
.LBB10_2:
.Ltmp352:
	.loc	10 379 5                        @ lvgl/src/lv_widgets/lv_dropdown.c:379:5
	ldr	r2, [sp, #12]
	movw	r0, :lower16:.L.str.4
	movt	r0, :upper16:.L.str.4
	movs	r3, #0
	bl	lv_debug_log_error
	b	.LBB10_3
.LBB10_3:                               @ =>This Inner Loop Header: Depth=1
	b	.LBB10_3
.Ltmp353:
.LBB10_4:
	.loc	10 379 5                        @ lvgl/src/lv_widgets/lv_dropdown.c:379:5
	b	.LBB10_5
.Ltmp354:
.LBB10_5:
	.loc	10 381 51 is_stmt 1             @ lvgl/src/lv_widgets/lv_dropdown.c:381:51
	ldr	r0, [sp, #12]
	.loc	10 381 31 is_stmt 0             @ lvgl/src/lv_widgets/lv_dropdown.c:381:31
	bl	lv_obj_get_ext_attr
	.loc	10 381 25                       @ lvgl/src/lv_widgets/lv_dropdown.c:381:25
	str	r0, [sp, #4]
.Ltmp355:
	.loc	10 382 8 is_stmt 1              @ lvgl/src/lv_widgets/lv_dropdown.c:382:8
	ldr	r0, [sp, #4]
	.loc	10 382 13 is_stmt 0             @ lvgl/src/lv_widgets/lv_dropdown.c:382:13
	ldrb.w	r0, [r0, #50]
	.loc	10 382 8                        @ lvgl/src/lv_widgets/lv_dropdown.c:382:8
	and	r0, r0, #3
	.loc	10 382 20                       @ lvgl/src/lv_widgets/lv_dropdown.c:382:20
	ldrb.w	r1, [sp, #11]
.Ltmp356:
	.loc	10 382 8                        @ lvgl/src/lv_widgets/lv_dropdown.c:382:8
	cmp	r0, r1
	bne	.LBB10_7
	b	.LBB10_6
.LBB10_6:
.Ltmp357:
	.loc	10 382 25                       @ lvgl/src/lv_widgets/lv_dropdown.c:382:25
	b	.LBB10_8
.Ltmp358:
.LBB10_7:
	.loc	10 384 16 is_stmt 1             @ lvgl/src/lv_widgets/lv_dropdown.c:384:16
	ldrb.w	r2, [sp, #11]
	.loc	10 384 5 is_stmt 0              @ lvgl/src/lv_widgets/lv_dropdown.c:384:5
	ldr	r1, [sp, #4]
	.loc	10 384 14                       @ lvgl/src/lv_widgets/lv_dropdown.c:384:14
	ldrb.w	r0, [r1, #50]
	and	r2, r2, #3
	and	r0, r0, #252
	add	r0, r2
	strb.w	r0, [r1, #50]
	.loc	10 386 23 is_stmt 1             @ lvgl/src/lv_widgets/lv_dropdown.c:386:23
	ldr	r0, [sp, #12]
	.loc	10 386 5 is_stmt 0              @ lvgl/src/lv_widgets/lv_dropdown.c:386:5
	bl	lv_obj_invalidate
	.loc	10 387 1 is_stmt 1              @ lvgl/src/lv_widgets/lv_dropdown.c:387:1
	b	.LBB10_8
.LBB10_8:
	add	sp, #16
	pop	{r7, pc}
.Ltmp359:
.Lfunc_end10:
	.size	lv_dropdown_set_dir, .Lfunc_end10-lv_dropdown_set_dir
	.cfi_endproc
	.cantunwind
	.fnend
                                        @ -- End function
	.section	.text.lv_dropdown_set_max_height,"ax",%progbits
	.hidden	lv_dropdown_set_max_height      @ -- Begin function lv_dropdown_set_max_height
	.globl	lv_dropdown_set_max_height
	.p2align	3
	.type	lv_dropdown_set_max_height,%function
	.code	16                              @ @lv_dropdown_set_max_height
	.thumb_func
lv_dropdown_set_max_height:
.Lfunc_begin11:
	.loc	10 395 0                        @ lvgl/src/lv_widgets/lv_dropdown.c:395:0
	.fnstart
	.cfi_startproc
@ %bb.0:
	.save	{r7, lr}
	push	{r7, lr}
	.cfi_def_cfa_offset 8
	.cfi_offset lr, -4
	.cfi_offset r7, -8
	.pad	#16
	sub	sp, #16
	.cfi_def_cfa_offset 24
                                        @ kill: def $r2 killed $r1
	str	r0, [sp, #12]
	strh.w	r1, [sp, #10]
.Ltmp360:
	.loc	10 396 5 prologue_end           @ lvgl/src/lv_widgets/lv_dropdown.c:396:5
	b	.LBB11_1
.LBB11_1:
.Ltmp361:
	.loc	10 396 5 is_stmt 0              @ lvgl/src/lv_widgets/lv_dropdown.c:396:5
	ldr	r0, [sp, #12]
	bl	lv_debug_check_null
.Ltmp362:
	.loc	10 396 5                        @ lvgl/src/lv_widgets/lv_dropdown.c:396:5
	cbnz	r0, .LBB11_4
	b	.LBB11_2
.LBB11_2:
.Ltmp363:
	.loc	10 396 5                        @ lvgl/src/lv_widgets/lv_dropdown.c:396:5
	ldr	r2, [sp, #12]
	movw	r0, :lower16:.L.str.4
	movt	r0, :upper16:.L.str.4
	movs	r3, #0
	bl	lv_debug_log_error
	b	.LBB11_3
.LBB11_3:                               @ =>This Inner Loop Header: Depth=1
	b	.LBB11_3
.Ltmp364:
.LBB11_4:
	.loc	10 396 5                        @ lvgl/src/lv_widgets/lv_dropdown.c:396:5
	b	.LBB11_5
.Ltmp365:
.LBB11_5:
	.loc	10 398 51 is_stmt 1             @ lvgl/src/lv_widgets/lv_dropdown.c:398:51
	ldr	r0, [sp, #12]
	.loc	10 398 31 is_stmt 0             @ lvgl/src/lv_widgets/lv_dropdown.c:398:31
	bl	lv_obj_get_ext_attr
	.loc	10 398 25                       @ lvgl/src/lv_widgets/lv_dropdown.c:398:25
	str	r0, [sp, #4]
.Ltmp366:
	.loc	10 399 8 is_stmt 1              @ lvgl/src/lv_widgets/lv_dropdown.c:399:8
	ldr	r0, [sp, #4]
	.loc	10 399 13 is_stmt 0             @ lvgl/src/lv_widgets/lv_dropdown.c:399:13
	ldrsh.w	r0, [r0, #40]
	.loc	10 399 27                       @ lvgl/src/lv_widgets/lv_dropdown.c:399:27
	ldrsh.w	r1, [sp, #10]
.Ltmp367:
	.loc	10 399 8                        @ lvgl/src/lv_widgets/lv_dropdown.c:399:8
	cmp	r0, r1
	bne	.LBB11_7
	b	.LBB11_6
.LBB11_6:
.Ltmp368:
	.loc	10 399 30                       @ lvgl/src/lv_widgets/lv_dropdown.c:399:30
	b	.LBB11_12
.Ltmp369:
.LBB11_7:
	.loc	10 401 23 is_stmt 1             @ lvgl/src/lv_widgets/lv_dropdown.c:401:23
	ldrh.w	r0, [sp, #10]
	.loc	10 401 5 is_stmt 0              @ lvgl/src/lv_widgets/lv_dropdown.c:401:5
	ldr	r1, [sp, #4]
	.loc	10 401 21                       @ lvgl/src/lv_widgets/lv_dropdown.c:401:21
	strh	r0, [r1, #40]
.Ltmp370:
	.loc	10 403 8 is_stmt 1              @ lvgl/src/lv_widgets/lv_dropdown.c:403:8
	ldr	r0, [sp, #4]
	.loc	10 403 13 is_stmt 0             @ lvgl/src/lv_widgets/lv_dropdown.c:403:13
	ldr	r0, [r0]
.Ltmp371:
	.loc	10 403 8                        @ lvgl/src/lv_widgets/lv_dropdown.c:403:8
	cbz	r0, .LBB11_12
	b	.LBB11_8
.LBB11_8:
.Ltmp372:
	.loc	10 404 12 is_stmt 1             @ lvgl/src/lv_widgets/lv_dropdown.c:404:12
	ldrsh.w	r0, [sp, #10]
.Ltmp373:
	.loc	10 404 12 is_stmt 0             @ lvgl/src/lv_widgets/lv_dropdown.c:404:12
	cbnz	r0, .LBB11_10
	b	.LBB11_9
.LBB11_9:
.Ltmp374:
	.loc	10 405 29 is_stmt 1             @ lvgl/src/lv_widgets/lv_dropdown.c:405:29
	ldr	r0, [sp, #4]
	.loc	10 405 34 is_stmt 0             @ lvgl/src/lv_widgets/lv_dropdown.c:405:34
	ldr	r0, [r0]
	movs	r1, #1
	.loc	10 405 13                       @ lvgl/src/lv_widgets/lv_dropdown.c:405:13
	bl	lv_cont_set_fit
	.loc	10 406 9 is_stmt 1              @ lvgl/src/lv_widgets/lv_dropdown.c:406:9
	b	.LBB11_11
.Ltmp375:
.LBB11_10:
	.loc	10 408 30                       @ lvgl/src/lv_widgets/lv_dropdown.c:408:30
	ldr	r0, [sp, #4]
	.loc	10 408 35 is_stmt 0             @ lvgl/src/lv_widgets/lv_dropdown.c:408:35
	ldr	r0, [r0]
	movs	r1, #1
	movs	r2, #0
	.loc	10 408 13                       @ lvgl/src/lv_widgets/lv_dropdown.c:408:13
	bl	lv_cont_set_fit2
	.loc	10 409 31 is_stmt 1             @ lvgl/src/lv_widgets/lv_dropdown.c:409:31
	ldr	r0, [sp, #4]
	.loc	10 409 36 is_stmt 0             @ lvgl/src/lv_widgets/lv_dropdown.c:409:36
	ldr	r0, [r0]
	.loc	10 409 42                       @ lvgl/src/lv_widgets/lv_dropdown.c:409:42
	ldrsh.w	r1, [sp, #10]
	.loc	10 409 13                       @ lvgl/src/lv_widgets/lv_dropdown.c:409:13
	bl	lv_obj_set_height
	b	.LBB11_11
.Ltmp376:
.LBB11_11:
	.loc	10 411 5 is_stmt 1              @ lvgl/src/lv_widgets/lv_dropdown.c:411:5
	b	.LBB11_12
.Ltmp377:
.LBB11_12:
	.loc	10 412 1                        @ lvgl/src/lv_widgets/lv_dropdown.c:412:1
	add	sp, #16
	pop	{r7, pc}
.Ltmp378:
.Lfunc_end11:
	.size	lv_dropdown_set_max_height, .Lfunc_end11-lv_dropdown_set_max_height
	.cfi_endproc
	.cantunwind
	.fnend
                                        @ -- End function
	.section	.text.lv_cont_set_fit,"ax",%progbits
	.p2align	3                               @ -- Begin function lv_cont_set_fit
	.type	lv_cont_set_fit,%function
	.code	16                              @ @lv_cont_set_fit
	.thumb_func
lv_cont_set_fit:
.Lfunc_begin12:
	.loc	13 169 0                        @ lvgl/src/lv_widgets/lv_cont.h:169:0
	.fnstart
	.cfi_startproc
@ %bb.0:
	.save	{r7, lr}
	push	{r7, lr}
	.cfi_def_cfa_offset 8
	.cfi_offset lr, -4
	.cfi_offset r7, -8
	.pad	#16
	sub	sp, #16
	.cfi_def_cfa_offset 24
                                        @ kill: def $r2 killed $r1
	str	r0, [sp, #12]
	strb.w	r1, [sp, #11]
.Ltmp379:
	.loc	13 170 22 prologue_end          @ lvgl/src/lv_widgets/lv_cont.h:170:22
	ldr	r0, [sp, #12]
	.loc	13 170 28 is_stmt 0             @ lvgl/src/lv_widgets/lv_cont.h:170:28
	ldrb.w	r3, [sp, #11]
	.loc	13 170 5                        @ lvgl/src/lv_widgets/lv_cont.h:170:5
	mov	r1, sp
	str	r3, [r1]
	mov	r1, r3
	mov	r2, r3
	bl	lv_cont_set_fit4
	.loc	13 171 1 is_stmt 1              @ lvgl/src/lv_widgets/lv_cont.h:171:1
	add	sp, #16
	pop	{r7, pc}
.Ltmp380:
.Lfunc_end12:
	.size	lv_cont_set_fit, .Lfunc_end12-lv_cont_set_fit
	.cfi_endproc
	.cantunwind
	.fnend
                                        @ -- End function
	.section	.text.lv_cont_set_fit2,"ax",%progbits
	.p2align	3                               @ -- Begin function lv_cont_set_fit2
	.type	lv_cont_set_fit2,%function
	.code	16                              @ @lv_cont_set_fit2
	.thumb_func
lv_cont_set_fit2:
.Lfunc_begin13:
	.loc	13 158 0                        @ lvgl/src/lv_widgets/lv_cont.h:158:0
	.fnstart
	.cfi_startproc
@ %bb.0:
	.save	{r7, lr}
	push	{r7, lr}
	.cfi_def_cfa_offset 8
	.cfi_offset lr, -4
	.cfi_offset r7, -8
	.pad	#16
	sub	sp, #16
	.cfi_def_cfa_offset 24
                                        @ kill: def $r3 killed $r2
                                        @ kill: def $r3 killed $r1
	str	r0, [sp, #12]
	strb.w	r1, [sp, #11]
	strb.w	r2, [sp, #10]
.Ltmp381:
	.loc	13 159 22 prologue_end          @ lvgl/src/lv_widgets/lv_cont.h:159:22
	ldr	r0, [sp, #12]
	.loc	13 159 28 is_stmt 0             @ lvgl/src/lv_widgets/lv_cont.h:159:28
	ldrb.w	r2, [sp, #11]
	.loc	13 159 38                       @ lvgl/src/lv_widgets/lv_cont.h:159:38
	ldrb.w	r3, [sp, #10]
	.loc	13 159 5                        @ lvgl/src/lv_widgets/lv_cont.h:159:5
	mov	r1, sp
	str	r3, [r1]
	mov	r1, r2
	bl	lv_cont_set_fit4
	.loc	13 160 1 is_stmt 1              @ lvgl/src/lv_widgets/lv_cont.h:160:1
	add	sp, #16
	pop	{r7, pc}
.Ltmp382:
.Lfunc_end13:
	.size	lv_cont_set_fit2, .Lfunc_end13-lv_cont_set_fit2
	.cfi_endproc
	.cantunwind
	.fnend
                                        @ -- End function
	.section	.text.lv_dropdown_set_symbol,"ax",%progbits
	.hidden	lv_dropdown_set_symbol          @ -- Begin function lv_dropdown_set_symbol
	.globl	lv_dropdown_set_symbol
	.p2align	3
	.type	lv_dropdown_set_symbol,%function
	.code	16                              @ @lv_dropdown_set_symbol
	.thumb_func
lv_dropdown_set_symbol:
.Lfunc_begin14:
	.loc	10 420 0                        @ lvgl/src/lv_widgets/lv_dropdown.c:420:0
	.fnstart
	.cfi_startproc
@ %bb.0:
	.save	{r7, lr}
	push	{r7, lr}
	.cfi_def_cfa_offset 8
	.cfi_offset lr, -4
	.cfi_offset r7, -8
	.pad	#16
	sub	sp, #16
	.cfi_def_cfa_offset 24
	str	r0, [sp, #12]
	str	r1, [sp, #8]
.Ltmp383:
	.loc	10 421 5 prologue_end           @ lvgl/src/lv_widgets/lv_dropdown.c:421:5
	b	.LBB14_1
.LBB14_1:
.Ltmp384:
	.loc	10 421 5 is_stmt 0              @ lvgl/src/lv_widgets/lv_dropdown.c:421:5
	ldr	r0, [sp, #12]
	bl	lv_debug_check_null
.Ltmp385:
	.loc	10 421 5                        @ lvgl/src/lv_widgets/lv_dropdown.c:421:5
	cbnz	r0, .LBB14_4
	b	.LBB14_2
.LBB14_2:
.Ltmp386:
	.loc	10 421 5                        @ lvgl/src/lv_widgets/lv_dropdown.c:421:5
	ldr	r2, [sp, #12]
	movw	r0, :lower16:.L.str.4
	movt	r0, :upper16:.L.str.4
	movs	r3, #0
	bl	lv_debug_log_error
	b	.LBB14_3
.LBB14_3:                               @ =>This Inner Loop Header: Depth=1
	b	.LBB14_3
.Ltmp387:
.LBB14_4:
	.loc	10 421 5                        @ lvgl/src/lv_widgets/lv_dropdown.c:421:5
	b	.LBB14_5
.Ltmp388:
.LBB14_5:
	.loc	10 423 51 is_stmt 1             @ lvgl/src/lv_widgets/lv_dropdown.c:423:51
	ldr	r0, [sp, #12]
	.loc	10 423 31 is_stmt 0             @ lvgl/src/lv_widgets/lv_dropdown.c:423:31
	bl	lv_obj_get_ext_attr
	.loc	10 423 25                       @ lvgl/src/lv_widgets/lv_dropdown.c:423:25
	str	r0, [sp, #4]
	.loc	10 424 19 is_stmt 1             @ lvgl/src/lv_widgets/lv_dropdown.c:424:19
	ldr	r0, [sp, #8]
	.loc	10 424 5 is_stmt 0              @ lvgl/src/lv_widgets/lv_dropdown.c:424:5
	ldr	r1, [sp, #4]
	.loc	10 424 17                       @ lvgl/src/lv_widgets/lv_dropdown.c:424:17
	str	r0, [r1, #8]
	.loc	10 425 23 is_stmt 1             @ lvgl/src/lv_widgets/lv_dropdown.c:425:23
	ldr	r0, [sp, #12]
	.loc	10 425 5 is_stmt 0              @ lvgl/src/lv_widgets/lv_dropdown.c:425:5
	bl	lv_obj_invalidate
	.loc	10 426 1 is_stmt 1              @ lvgl/src/lv_widgets/lv_dropdown.c:426:1
	add	sp, #16
	pop	{r7, pc}
.Ltmp389:
.Lfunc_end14:
	.size	lv_dropdown_set_symbol, .Lfunc_end14-lv_dropdown_set_symbol
	.cfi_endproc
	.cantunwind
	.fnend
                                        @ -- End function
	.section	.text.lv_dropdown_set_show_selected,"ax",%progbits
	.hidden	lv_dropdown_set_show_selected   @ -- Begin function lv_dropdown_set_show_selected
	.globl	lv_dropdown_set_show_selected
	.p2align	3
	.type	lv_dropdown_set_show_selected,%function
	.code	16                              @ @lv_dropdown_set_show_selected
	.thumb_func
lv_dropdown_set_show_selected:
.Lfunc_begin15:
	.loc	10 434 0                        @ lvgl/src/lv_widgets/lv_dropdown.c:434:0
	.fnstart
	.cfi_startproc
@ %bb.0:
	.save	{r7, lr}
	push	{r7, lr}
	.cfi_def_cfa_offset 8
	.cfi_offset lr, -4
	.cfi_offset r7, -8
	.pad	#16
	sub	sp, #16
	.cfi_def_cfa_offset 24
                                        @ kill: def $r2 killed $r1
	str	r0, [sp, #12]
	strb.w	r1, [sp, #11]
.Ltmp390:
	.loc	10 435 5 prologue_end           @ lvgl/src/lv_widgets/lv_dropdown.c:435:5
	b	.LBB15_1
.LBB15_1:
.Ltmp391:
	.loc	10 435 5 is_stmt 0              @ lvgl/src/lv_widgets/lv_dropdown.c:435:5
	ldr	r0, [sp, #12]
	bl	lv_debug_check_null
.Ltmp392:
	.loc	10 435 5                        @ lvgl/src/lv_widgets/lv_dropdown.c:435:5
	cbnz	r0, .LBB15_4
	b	.LBB15_2
.LBB15_2:
.Ltmp393:
	.loc	10 435 5                        @ lvgl/src/lv_widgets/lv_dropdown.c:435:5
	ldr	r2, [sp, #12]
	movw	r0, :lower16:.L.str.4
	movt	r0, :upper16:.L.str.4
	movs	r3, #0
	bl	lv_debug_log_error
	b	.LBB15_3
.LBB15_3:                               @ =>This Inner Loop Header: Depth=1
	b	.LBB15_3
.Ltmp394:
.LBB15_4:
	.loc	10 435 5                        @ lvgl/src/lv_widgets/lv_dropdown.c:435:5
	b	.LBB15_5
.Ltmp395:
.LBB15_5:
	.loc	10 437 51 is_stmt 1             @ lvgl/src/lv_widgets/lv_dropdown.c:437:51
	ldr	r0, [sp, #12]
	.loc	10 437 31 is_stmt 0             @ lvgl/src/lv_widgets/lv_dropdown.c:437:31
	bl	lv_obj_get_ext_attr
	.loc	10 437 25                       @ lvgl/src/lv_widgets/lv_dropdown.c:437:25
	str	r0, [sp, #4]
.Ltmp396:
	.loc	10 438 8 is_stmt 1              @ lvgl/src/lv_widgets/lv_dropdown.c:438:8
	ldr	r0, [sp, #4]
	.loc	10 438 13 is_stmt 0             @ lvgl/src/lv_widgets/lv_dropdown.c:438:13
	ldrb.w	r0, [r0, #50]
	ubfx	r0, r0, #2, #1
	.loc	10 438 30                       @ lvgl/src/lv_widgets/lv_dropdown.c:438:30
	ldrb.w	r1, [sp, #11]
	and	r1, r1, #1
.Ltmp397:
	.loc	10 438 8                        @ lvgl/src/lv_widgets/lv_dropdown.c:438:8
	cmp	r0, r1
	bne	.LBB15_7
	b	.LBB15_6
.LBB15_6:
.Ltmp398:
	.loc	10 438 36                       @ lvgl/src/lv_widgets/lv_dropdown.c:438:36
	b	.LBB15_8
.Ltmp399:
.LBB15_7:
	.loc	10 440 26 is_stmt 1             @ lvgl/src/lv_widgets/lv_dropdown.c:440:26
	ldrb.w	r0, [sp, #11]
	and	r2, r0, #1
	.loc	10 440 5 is_stmt 0              @ lvgl/src/lv_widgets/lv_dropdown.c:440:5
	ldr	r1, [sp, #4]
	.loc	10 440 24                       @ lvgl/src/lv_widgets/lv_dropdown.c:440:24
	ldrb.w	r0, [r1, #50]
	and	r0, r0, #251
	orr.w	r0, r0, r2, lsl #2
	strb.w	r0, [r1, #50]
	.loc	10 442 23 is_stmt 1             @ lvgl/src/lv_widgets/lv_dropdown.c:442:23
	ldr	r0, [sp, #12]
	.loc	10 442 5 is_stmt 0              @ lvgl/src/lv_widgets/lv_dropdown.c:442:5
	bl	lv_obj_invalidate
	.loc	10 443 1 is_stmt 1              @ lvgl/src/lv_widgets/lv_dropdown.c:443:1
	b	.LBB15_8
.LBB15_8:
	add	sp, #16
	pop	{r7, pc}
.Ltmp400:
.Lfunc_end15:
	.size	lv_dropdown_set_show_selected, .Lfunc_end15-lv_dropdown_set_show_selected
	.cfi_endproc
	.cantunwind
	.fnend
                                        @ -- End function
	.section	.text.lv_dropdown_get_text,"ax",%progbits
	.hidden	lv_dropdown_get_text            @ -- Begin function lv_dropdown_get_text
	.globl	lv_dropdown_get_text
	.p2align	3
	.type	lv_dropdown_get_text,%function
	.code	16                              @ @lv_dropdown_get_text
	.thumb_func
lv_dropdown_get_text:
.Lfunc_begin16:
	.loc	10 455 0                        @ lvgl/src/lv_widgets/lv_dropdown.c:455:0
	.fnstart
	.cfi_startproc
@ %bb.0:
	.save	{r7, lr}
	push	{r7, lr}
	.cfi_def_cfa_offset 8
	.cfi_offset lr, -4
	.cfi_offset r7, -8
	.pad	#8
	sub	sp, #8
	.cfi_def_cfa_offset 16
	str	r0, [sp, #4]
.Ltmp401:
	.loc	10 456 5 prologue_end           @ lvgl/src/lv_widgets/lv_dropdown.c:456:5
	b	.LBB16_1
.LBB16_1:
.Ltmp402:
	.loc	10 456 5 is_stmt 0              @ lvgl/src/lv_widgets/lv_dropdown.c:456:5
	ldr	r0, [sp, #4]
	bl	lv_debug_check_null
.Ltmp403:
	.loc	10 456 5                        @ lvgl/src/lv_widgets/lv_dropdown.c:456:5
	cbnz	r0, .LBB16_4
	b	.LBB16_2
.LBB16_2:
.Ltmp404:
	.loc	10 456 5                        @ lvgl/src/lv_widgets/lv_dropdown.c:456:5
	ldr	r2, [sp, #4]
	movw	r0, :lower16:.L.str.4
	movt	r0, :upper16:.L.str.4
	movs	r3, #0
	bl	lv_debug_log_error
	b	.LBB16_3
.LBB16_3:                               @ =>This Inner Loop Header: Depth=1
	b	.LBB16_3
.Ltmp405:
.LBB16_4:
	.loc	10 456 5                        @ lvgl/src/lv_widgets/lv_dropdown.c:456:5
	b	.LBB16_5
.Ltmp406:
.LBB16_5:
	.loc	10 457 51 is_stmt 1             @ lvgl/src/lv_widgets/lv_dropdown.c:457:51
	ldr	r0, [sp, #4]
	.loc	10 457 31 is_stmt 0             @ lvgl/src/lv_widgets/lv_dropdown.c:457:31
	bl	lv_obj_get_ext_attr
	.loc	10 457 25                       @ lvgl/src/lv_widgets/lv_dropdown.c:457:25
	str	r0, [sp]
	.loc	10 459 12 is_stmt 1             @ lvgl/src/lv_widgets/lv_dropdown.c:459:12
	ldr	r0, [sp]
	.loc	10 459 17 is_stmt 0             @ lvgl/src/lv_widgets/lv_dropdown.c:459:17
	ldr	r0, [r0, #4]
	.loc	10 459 5                        @ lvgl/src/lv_widgets/lv_dropdown.c:459:5
	add	sp, #8
	pop	{r7, pc}
.Ltmp407:
.Lfunc_end16:
	.size	lv_dropdown_get_text, .Lfunc_end16-lv_dropdown_get_text
	.cfi_endproc
	.cantunwind
	.fnend
                                        @ -- End function
	.section	.text.lv_dropdown_get_selected,"ax",%progbits
	.hidden	lv_dropdown_get_selected        @ -- Begin function lv_dropdown_get_selected
	.globl	lv_dropdown_get_selected
	.p2align	3
	.type	lv_dropdown_get_selected,%function
	.code	16                              @ @lv_dropdown_get_selected
	.thumb_func
lv_dropdown_get_selected:
.Lfunc_begin17:
	.loc	10 481 0 is_stmt 1              @ lvgl/src/lv_widgets/lv_dropdown.c:481:0
	.fnstart
	.cfi_startproc
@ %bb.0:
	.save	{r7, lr}
	push	{r7, lr}
	.cfi_def_cfa_offset 8
	.cfi_offset lr, -4
	.cfi_offset r7, -8
	.pad	#8
	sub	sp, #8
	.cfi_def_cfa_offset 16
	str	r0, [sp, #4]
.Ltmp408:
	.loc	10 482 5 prologue_end           @ lvgl/src/lv_widgets/lv_dropdown.c:482:5
	b	.LBB17_1
.LBB17_1:
.Ltmp409:
	.loc	10 482 5 is_stmt 0              @ lvgl/src/lv_widgets/lv_dropdown.c:482:5
	ldr	r0, [sp, #4]
	bl	lv_debug_check_null
.Ltmp410:
	.loc	10 482 5                        @ lvgl/src/lv_widgets/lv_dropdown.c:482:5
	cbnz	r0, .LBB17_4
	b	.LBB17_2
.LBB17_2:
.Ltmp411:
	.loc	10 482 5                        @ lvgl/src/lv_widgets/lv_dropdown.c:482:5
	ldr	r2, [sp, #4]
	movw	r0, :lower16:.L.str.4
	movt	r0, :upper16:.L.str.4
	movs	r3, #0
	bl	lv_debug_log_error
	b	.LBB17_3
.LBB17_3:                               @ =>This Inner Loop Header: Depth=1
	b	.LBB17_3
.Ltmp412:
.LBB17_4:
	.loc	10 482 5                        @ lvgl/src/lv_widgets/lv_dropdown.c:482:5
	b	.LBB17_5
.Ltmp413:
.LBB17_5:
	.loc	10 484 51 is_stmt 1             @ lvgl/src/lv_widgets/lv_dropdown.c:484:51
	ldr	r0, [sp, #4]
	.loc	10 484 31 is_stmt 0             @ lvgl/src/lv_widgets/lv_dropdown.c:484:31
	bl	lv_obj_get_ext_attr
	.loc	10 484 25                       @ lvgl/src/lv_widgets/lv_dropdown.c:484:25
	str	r0, [sp]
	.loc	10 486 12 is_stmt 1             @ lvgl/src/lv_widgets/lv_dropdown.c:486:12
	ldr	r0, [sp]
	.loc	10 486 17 is_stmt 0             @ lvgl/src/lv_widgets/lv_dropdown.c:486:17
	ldrh	r0, [r0, #44]
	.loc	10 486 5                        @ lvgl/src/lv_widgets/lv_dropdown.c:486:5
	add	sp, #8
	pop	{r7, pc}
.Ltmp414:
.Lfunc_end17:
	.size	lv_dropdown_get_selected, .Lfunc_end17-lv_dropdown_get_selected
	.cfi_endproc
	.cantunwind
	.fnend
                                        @ -- End function
	.section	.text.lv_dropdown_get_option_cnt,"ax",%progbits
	.hidden	lv_dropdown_get_option_cnt      @ -- Begin function lv_dropdown_get_option_cnt
	.globl	lv_dropdown_get_option_cnt
	.p2align	3
	.type	lv_dropdown_get_option_cnt,%function
	.code	16                              @ @lv_dropdown_get_option_cnt
	.thumb_func
lv_dropdown_get_option_cnt:
.Lfunc_begin18:
	.loc	10 495 0 is_stmt 1              @ lvgl/src/lv_widgets/lv_dropdown.c:495:0
	.fnstart
	.cfi_startproc
@ %bb.0:
	.save	{r7, lr}
	push	{r7, lr}
	.cfi_def_cfa_offset 8
	.cfi_offset lr, -4
	.cfi_offset r7, -8
	.pad	#8
	sub	sp, #8
	.cfi_def_cfa_offset 16
	str	r0, [sp, #4]
.Ltmp415:
	.loc	10 496 5 prologue_end           @ lvgl/src/lv_widgets/lv_dropdown.c:496:5
	b	.LBB18_1
.LBB18_1:
.Ltmp416:
	.loc	10 496 5 is_stmt 0              @ lvgl/src/lv_widgets/lv_dropdown.c:496:5
	ldr	r0, [sp, #4]
	bl	lv_debug_check_null
.Ltmp417:
	.loc	10 496 5                        @ lvgl/src/lv_widgets/lv_dropdown.c:496:5
	cbnz	r0, .LBB18_4
	b	.LBB18_2
.LBB18_2:
.Ltmp418:
	.loc	10 496 5                        @ lvgl/src/lv_widgets/lv_dropdown.c:496:5
	ldr	r2, [sp, #4]
	movw	r0, :lower16:.L.str.4
	movt	r0, :upper16:.L.str.4
	movs	r3, #0
	bl	lv_debug_log_error
	b	.LBB18_3
.LBB18_3:                               @ =>This Inner Loop Header: Depth=1
	b	.LBB18_3
.Ltmp419:
.LBB18_4:
	.loc	10 496 5                        @ lvgl/src/lv_widgets/lv_dropdown.c:496:5
	b	.LBB18_5
.Ltmp420:
.LBB18_5:
	.loc	10 498 51 is_stmt 1             @ lvgl/src/lv_widgets/lv_dropdown.c:498:51
	ldr	r0, [sp, #4]
	.loc	10 498 31 is_stmt 0             @ lvgl/src/lv_widgets/lv_dropdown.c:498:31
	bl	lv_obj_get_ext_attr
	.loc	10 498 25                       @ lvgl/src/lv_widgets/lv_dropdown.c:498:25
	str	r0, [sp]
	.loc	10 500 12 is_stmt 1             @ lvgl/src/lv_widgets/lv_dropdown.c:500:12
	ldr	r0, [sp]
	.loc	10 500 17 is_stmt 0             @ lvgl/src/lv_widgets/lv_dropdown.c:500:17
	ldrh	r0, [r0, #42]
	.loc	10 500 5                        @ lvgl/src/lv_widgets/lv_dropdown.c:500:5
	add	sp, #8
	pop	{r7, pc}
.Ltmp421:
.Lfunc_end18:
	.size	lv_dropdown_get_option_cnt, .Lfunc_end18-lv_dropdown_get_option_cnt
	.cfi_endproc
	.cantunwind
	.fnend
                                        @ -- End function
	.section	.text.lv_dropdown_get_selected_str,"ax",%progbits
	.hidden	lv_dropdown_get_selected_str    @ -- Begin function lv_dropdown_get_selected_str
	.globl	lv_dropdown_get_selected_str
	.p2align	3
	.type	lv_dropdown_get_selected_str,%function
	.code	16                              @ @lv_dropdown_get_selected_str
	.thumb_func
lv_dropdown_get_selected_str:
.Lfunc_begin19:
	.loc	10 510 0 is_stmt 1              @ lvgl/src/lv_widgets/lv_dropdown.c:510:0
	.fnstart
	.cfi_startproc
@ %bb.0:
	.save	{r7, lr}
	push	{r7, lr}
	.cfi_def_cfa_offset 8
	.cfi_offset lr, -4
	.cfi_offset r7, -8
	.pad	#48
	sub	sp, #48
	.cfi_def_cfa_offset 56
	str	r0, [sp, #44]
	str	r1, [sp, #40]
	str	r2, [sp, #36]
.Ltmp422:
	.loc	10 511 5 prologue_end           @ lvgl/src/lv_widgets/lv_dropdown.c:511:5
	b	.LBB19_1
.LBB19_1:
.Ltmp423:
	.loc	10 511 5 is_stmt 0              @ lvgl/src/lv_widgets/lv_dropdown.c:511:5
	ldr	r0, [sp, #44]
	bl	lv_debug_check_null
.Ltmp424:
	.loc	10 511 5                        @ lvgl/src/lv_widgets/lv_dropdown.c:511:5
	cbnz	r0, .LBB19_4
	b	.LBB19_2
.LBB19_2:
.Ltmp425:
	.loc	10 511 5                        @ lvgl/src/lv_widgets/lv_dropdown.c:511:5
	ldr	r2, [sp, #44]
	movw	r0, :lower16:.L.str.4
	movt	r0, :upper16:.L.str.4
	movs	r3, #0
	bl	lv_debug_log_error
	b	.LBB19_3
.LBB19_3:                               @ =>This Inner Loop Header: Depth=1
	b	.LBB19_3
.Ltmp426:
.LBB19_4:
	.loc	10 511 5                        @ lvgl/src/lv_widgets/lv_dropdown.c:511:5
	b	.LBB19_5
.Ltmp427:
.LBB19_5:
	.loc	10 513 51 is_stmt 1             @ lvgl/src/lv_widgets/lv_dropdown.c:513:51
	ldr	r0, [sp, #44]
	.loc	10 513 31 is_stmt 0             @ lvgl/src/lv_widgets/lv_dropdown.c:513:31
	bl	lv_obj_get_ext_attr
	.loc	10 513 25                       @ lvgl/src/lv_widgets/lv_dropdown.c:513:25
	str	r0, [sp, #32]
	movs	r0, #0
	.loc	10 516 14 is_stmt 1             @ lvgl/src/lv_widgets/lv_dropdown.c:516:14
	str	r0, [sp, #12]                   @ 4-byte Spill
	str	r0, [sp, #24]
	.loc	10 517 33                       @ lvgl/src/lv_widgets/lv_dropdown.c:517:33
	ldr	r0, [sp, #32]
	.loc	10 517 38 is_stmt 0             @ lvgl/src/lv_widgets/lv_dropdown.c:517:38
	ldr	r0, [r0, #12]
	.loc	10 517 26                       @ lvgl/src/lv_widgets/lv_dropdown.c:517:26
	bl	strlen
	mov	r1, r0
	.loc	10 517 12                       @ lvgl/src/lv_widgets/lv_dropdown.c:517:12
	ldr	r0, [sp, #12]                   @ 4-byte Reload
	str	r1, [sp, #20]
.Ltmp428:
	.loc	10 519 11 is_stmt 1             @ lvgl/src/lv_widgets/lv_dropdown.c:519:11
	str	r0, [sp, #28]
	.loc	10 519 9 is_stmt 0              @ lvgl/src/lv_widgets/lv_dropdown.c:519:9
	b	.LBB19_6
.LBB19_6:                               @ =>This Inner Loop Header: Depth=1
.Ltmp429:
	.loc	10 519 16                       @ lvgl/src/lv_widgets/lv_dropdown.c:519:16
	ldr	r1, [sp, #28]
	.loc	10 519 20                       @ lvgl/src/lv_widgets/lv_dropdown.c:519:20
	ldr	r2, [sp, #20]
	movs	r0, #0
	.loc	10 519 28                       @ lvgl/src/lv_widgets/lv_dropdown.c:519:28
	cmp	r1, r2
	str	r0, [sp, #8]                    @ 4-byte Spill
	bhs	.LBB19_8
	b	.LBB19_7
.LBB19_7:                               @   in Loop: Header=BB19_6 Depth=1
	.loc	10 519 31                       @ lvgl/src/lv_widgets/lv_dropdown.c:519:31
	ldr	r0, [sp, #24]
	.loc	10 519 39                       @ lvgl/src/lv_widgets/lv_dropdown.c:519:39
	ldr	r1, [sp, #32]
	.loc	10 519 44                       @ lvgl/src/lv_widgets/lv_dropdown.c:519:44
	ldrh	r1, [r1, #46]
	.loc	10 519 36                       @ lvgl/src/lv_widgets/lv_dropdown.c:519:36
	subs	r0, r0, r1
	it	ne
	movne	r0, #1
	str	r0, [sp, #8]                    @ 4-byte Spill
	b	.LBB19_8
.LBB19_8:                               @   in Loop: Header=BB19_6 Depth=1
	.loc	10 0 0                          @ lvgl/src/lv_widgets/lv_dropdown.c:0:0
	ldr	r0, [sp, #8]                    @ 4-byte Reload
.Ltmp430:
	.loc	10 519 5                        @ lvgl/src/lv_widgets/lv_dropdown.c:519:5
	lsls	r0, r0, #31
	cbz	r0, .LBB19_13
	b	.LBB19_9
.LBB19_9:                               @   in Loop: Header=BB19_6 Depth=1
.Ltmp431:
	.loc	10 520 12 is_stmt 1             @ lvgl/src/lv_widgets/lv_dropdown.c:520:12
	ldr	r0, [sp, #32]
	.loc	10 520 17 is_stmt 0             @ lvgl/src/lv_widgets/lv_dropdown.c:520:17
	ldr	r0, [r0, #12]
	.loc	10 520 25                       @ lvgl/src/lv_widgets/lv_dropdown.c:520:25
	ldr	r1, [sp, #28]
	.loc	10 520 12                       @ lvgl/src/lv_widgets/lv_dropdown.c:520:12
	ldrsb	r0, [r0, r1]
.Ltmp432:
	.loc	10 520 12                       @ lvgl/src/lv_widgets/lv_dropdown.c:520:12
	cmp	r0, #10
	bne	.LBB19_11
	b	.LBB19_10
.LBB19_10:                              @   in Loop: Header=BB19_6 Depth=1
.Ltmp433:
	.loc	10 520 41                       @ lvgl/src/lv_widgets/lv_dropdown.c:520:41
	ldr	r0, [sp, #24]
	adds	r0, #1
	str	r0, [sp, #24]
	.loc	10 520 37                       @ lvgl/src/lv_widgets/lv_dropdown.c:520:37
	b	.LBB19_11
.Ltmp434:
.LBB19_11:                              @   in Loop: Header=BB19_6 Depth=1
	.loc	10 521 5 is_stmt 1              @ lvgl/src/lv_widgets/lv_dropdown.c:521:5
	b	.LBB19_12
.Ltmp435:
.LBB19_12:                              @   in Loop: Header=BB19_6 Depth=1
	.loc	10 519 62                       @ lvgl/src/lv_widgets/lv_dropdown.c:519:62
	ldr	r0, [sp, #28]
	adds	r0, #1
	str	r0, [sp, #28]
	.loc	10 519 5 is_stmt 0              @ lvgl/src/lv_widgets/lv_dropdown.c:519:5
	b	.LBB19_6
.Ltmp436:
.LBB19_13:
	.loc	10 0 5                          @ lvgl/src/lv_widgets/lv_dropdown.c:0:5
	movs	r0, #0
.Ltmp437:
	.loc	10 524 11 is_stmt 1             @ lvgl/src/lv_widgets/lv_dropdown.c:524:11
	str	r0, [sp, #16]
	.loc	10 524 9 is_stmt 0              @ lvgl/src/lv_widgets/lv_dropdown.c:524:9
	b	.LBB19_14
.LBB19_14:                              @ =>This Inner Loop Header: Depth=1
.Ltmp438:
	.loc	10 524 16                       @ lvgl/src/lv_widgets/lv_dropdown.c:524:16
	ldr	r1, [sp, #28]
	.loc	10 524 20                       @ lvgl/src/lv_widgets/lv_dropdown.c:524:20
	ldr	r2, [sp, #20]
	movs	r0, #0
	.loc	10 524 28                       @ lvgl/src/lv_widgets/lv_dropdown.c:524:28
	cmp	r1, r2
	str	r0, [sp, #4]                    @ 4-byte Spill
	bhs	.LBB19_16
	b	.LBB19_15
.LBB19_15:                              @   in Loop: Header=BB19_14 Depth=1
	.loc	10 524 31                       @ lvgl/src/lv_widgets/lv_dropdown.c:524:31
	ldr	r0, [sp, #32]
	.loc	10 524 36                       @ lvgl/src/lv_widgets/lv_dropdown.c:524:36
	ldr	r0, [r0, #12]
	.loc	10 524 44                       @ lvgl/src/lv_widgets/lv_dropdown.c:524:44
	ldr	r1, [sp, #28]
	.loc	10 524 31                       @ lvgl/src/lv_widgets/lv_dropdown.c:524:31
	ldrsb	r0, [r0, r1]
	.loc	10 524 47                       @ lvgl/src/lv_widgets/lv_dropdown.c:524:47
	subs	r0, #10
	it	ne
	movne	r0, #1
	str	r0, [sp, #4]                    @ 4-byte Spill
	b	.LBB19_16
.LBB19_16:                              @   in Loop: Header=BB19_14 Depth=1
	.loc	10 0 0                          @ lvgl/src/lv_widgets/lv_dropdown.c:0:0
	ldr	r0, [sp, #4]                    @ 4-byte Reload
.Ltmp439:
	.loc	10 524 5                        @ lvgl/src/lv_widgets/lv_dropdown.c:524:5
	lsls	r0, r0, #31
	cbz	r0, .LBB19_22
	b	.LBB19_17
.LBB19_17:                              @   in Loop: Header=BB19_14 Depth=1
.Ltmp440:
	.loc	10 525 12 is_stmt 1             @ lvgl/src/lv_widgets/lv_dropdown.c:525:12
	ldr	r0, [sp, #36]
	.loc	10 525 21 is_stmt 0             @ lvgl/src/lv_widgets/lv_dropdown.c:525:21
	cbz	r0, .LBB19_20
	b	.LBB19_18
.LBB19_18:                              @   in Loop: Header=BB19_14 Depth=1
	.loc	10 525 24                       @ lvgl/src/lv_widgets/lv_dropdown.c:525:24
	ldr	r0, [sp, #16]
	.loc	10 525 29                       @ lvgl/src/lv_widgets/lv_dropdown.c:525:29
	ldr	r1, [sp, #36]
	.loc	10 525 38                       @ lvgl/src/lv_widgets/lv_dropdown.c:525:38
	subs	r1, #1
.Ltmp441:
	.loc	10 525 12                       @ lvgl/src/lv_widgets/lv_dropdown.c:525:12
	cmp	r0, r1
	blo	.LBB19_20
	b	.LBB19_19
.LBB19_19:
.Ltmp442:
	.loc	10 527 13 is_stmt 1             @ lvgl/src/lv_widgets/lv_dropdown.c:527:13
	b	.LBB19_22
.Ltmp443:
.LBB19_20:                              @   in Loop: Header=BB19_14 Depth=1
	.loc	10 529 18                       @ lvgl/src/lv_widgets/lv_dropdown.c:529:18
	ldr	r0, [sp, #32]
	.loc	10 529 23 is_stmt 0             @ lvgl/src/lv_widgets/lv_dropdown.c:529:23
	ldr	r0, [r0, #12]
	.loc	10 529 31                       @ lvgl/src/lv_widgets/lv_dropdown.c:529:31
	ldr	r1, [sp, #28]
	.loc	10 529 18                       @ lvgl/src/lv_widgets/lv_dropdown.c:529:18
	ldrb	r0, [r0, r1]
	.loc	10 529 9                        @ lvgl/src/lv_widgets/lv_dropdown.c:529:9
	ldr	r1, [sp, #40]
	.loc	10 529 13                       @ lvgl/src/lv_widgets/lv_dropdown.c:529:13
	ldr	r2, [sp, #16]
	.loc	10 529 16                       @ lvgl/src/lv_widgets/lv_dropdown.c:529:16
	strb	r0, [r1, r2]
	.loc	10 530 5 is_stmt 1              @ lvgl/src/lv_widgets/lv_dropdown.c:530:5
	b	.LBB19_21
.Ltmp444:
.LBB19_21:                              @   in Loop: Header=BB19_14 Depth=1
	.loc	10 524 57                       @ lvgl/src/lv_widgets/lv_dropdown.c:524:57
	ldr	r0, [sp, #16]
	adds	r0, #1
	str	r0, [sp, #16]
	.loc	10 524 62 is_stmt 0             @ lvgl/src/lv_widgets/lv_dropdown.c:524:62
	ldr	r0, [sp, #28]
	adds	r0, #1
	str	r0, [sp, #28]
	.loc	10 524 5                        @ lvgl/src/lv_widgets/lv_dropdown.c:524:5
	b	.LBB19_14
.Ltmp445:
.LBB19_22:
	.loc	10 532 5 is_stmt 1              @ lvgl/src/lv_widgets/lv_dropdown.c:532:5
	ldr	r1, [sp, #40]
	.loc	10 532 9 is_stmt 0              @ lvgl/src/lv_widgets/lv_dropdown.c:532:9
	ldr	r2, [sp, #16]
	movs	r0, #0
	.loc	10 532 12                       @ lvgl/src/lv_widgets/lv_dropdown.c:532:12
	strb	r0, [r1, r2]
	.loc	10 533 1 is_stmt 1              @ lvgl/src/lv_widgets/lv_dropdown.c:533:1
	add	sp, #48
	pop	{r7, pc}
.Ltmp446:
.Lfunc_end19:
	.size	lv_dropdown_get_selected_str, .Lfunc_end19-lv_dropdown_get_selected_str
	.cfi_endproc
	.cantunwind
	.fnend
                                        @ -- End function
	.section	.text.lv_dropdown_get_max_height,"ax",%progbits
	.hidden	lv_dropdown_get_max_height      @ -- Begin function lv_dropdown_get_max_height
	.globl	lv_dropdown_get_max_height
	.p2align	3
	.type	lv_dropdown_get_max_height,%function
	.code	16                              @ @lv_dropdown_get_max_height
	.thumb_func
lv_dropdown_get_max_height:
.Lfunc_begin20:
	.loc	10 541 0                        @ lvgl/src/lv_widgets/lv_dropdown.c:541:0
	.fnstart
	.cfi_startproc
@ %bb.0:
	.save	{r7, lr}
	push	{r7, lr}
	.cfi_def_cfa_offset 8
	.cfi_offset lr, -4
	.cfi_offset r7, -8
	.pad	#8
	sub	sp, #8
	.cfi_def_cfa_offset 16
	str	r0, [sp, #4]
.Ltmp447:
	.loc	10 542 5 prologue_end           @ lvgl/src/lv_widgets/lv_dropdown.c:542:5
	b	.LBB20_1
.LBB20_1:
.Ltmp448:
	.loc	10 542 5 is_stmt 0              @ lvgl/src/lv_widgets/lv_dropdown.c:542:5
	ldr	r0, [sp, #4]
	bl	lv_debug_check_null
.Ltmp449:
	.loc	10 542 5                        @ lvgl/src/lv_widgets/lv_dropdown.c:542:5
	cbnz	r0, .LBB20_4
	b	.LBB20_2
.LBB20_2:
.Ltmp450:
	.loc	10 542 5                        @ lvgl/src/lv_widgets/lv_dropdown.c:542:5
	ldr	r2, [sp, #4]
	movw	r0, :lower16:.L.str.4
	movt	r0, :upper16:.L.str.4
	movs	r3, #0
	bl	lv_debug_log_error
	b	.LBB20_3
.LBB20_3:                               @ =>This Inner Loop Header: Depth=1
	b	.LBB20_3
.Ltmp451:
.LBB20_4:
	.loc	10 542 5                        @ lvgl/src/lv_widgets/lv_dropdown.c:542:5
	b	.LBB20_5
.Ltmp452:
.LBB20_5:
	.loc	10 544 51 is_stmt 1             @ lvgl/src/lv_widgets/lv_dropdown.c:544:51
	ldr	r0, [sp, #4]
	.loc	10 544 31 is_stmt 0             @ lvgl/src/lv_widgets/lv_dropdown.c:544:31
	bl	lv_obj_get_ext_attr
	.loc	10 544 25                       @ lvgl/src/lv_widgets/lv_dropdown.c:544:25
	str	r0, [sp]
	.loc	10 545 12 is_stmt 1             @ lvgl/src/lv_widgets/lv_dropdown.c:545:12
	ldr	r0, [sp]
	.loc	10 545 17 is_stmt 0             @ lvgl/src/lv_widgets/lv_dropdown.c:545:17
	ldrsh.w	r0, [r0, #40]
	.loc	10 545 5                        @ lvgl/src/lv_widgets/lv_dropdown.c:545:5
	add	sp, #8
	pop	{r7, pc}
.Ltmp453:
.Lfunc_end20:
	.size	lv_dropdown_get_max_height, .Lfunc_end20-lv_dropdown_get_max_height
	.cfi_endproc
	.cantunwind
	.fnend
                                        @ -- End function
	.section	.text.lv_dropdown_get_symbol,"ax",%progbits
	.hidden	lv_dropdown_get_symbol          @ -- Begin function lv_dropdown_get_symbol
	.globl	lv_dropdown_get_symbol
	.p2align	3
	.type	lv_dropdown_get_symbol,%function
	.code	16                              @ @lv_dropdown_get_symbol
	.thumb_func
lv_dropdown_get_symbol:
.Lfunc_begin21:
	.loc	10 554 0 is_stmt 1              @ lvgl/src/lv_widgets/lv_dropdown.c:554:0
	.fnstart
	.cfi_startproc
@ %bb.0:
	.save	{r7, lr}
	push	{r7, lr}
	.cfi_def_cfa_offset 8
	.cfi_offset lr, -4
	.cfi_offset r7, -8
	.pad	#8
	sub	sp, #8
	.cfi_def_cfa_offset 16
	str	r0, [sp, #4]
.Ltmp454:
	.loc	10 555 5 prologue_end           @ lvgl/src/lv_widgets/lv_dropdown.c:555:5
	b	.LBB21_1
.LBB21_1:
.Ltmp455:
	.loc	10 555 5 is_stmt 0              @ lvgl/src/lv_widgets/lv_dropdown.c:555:5
	ldr	r0, [sp, #4]
	bl	lv_debug_check_null
.Ltmp456:
	.loc	10 555 5                        @ lvgl/src/lv_widgets/lv_dropdown.c:555:5
	cbnz	r0, .LBB21_4
	b	.LBB21_2
.LBB21_2:
.Ltmp457:
	.loc	10 555 5                        @ lvgl/src/lv_widgets/lv_dropdown.c:555:5
	ldr	r2, [sp, #4]
	movw	r0, :lower16:.L.str.4
	movt	r0, :upper16:.L.str.4
	movs	r3, #0
	bl	lv_debug_log_error
	b	.LBB21_3
.LBB21_3:                               @ =>This Inner Loop Header: Depth=1
	b	.LBB21_3
.Ltmp458:
.LBB21_4:
	.loc	10 555 5                        @ lvgl/src/lv_widgets/lv_dropdown.c:555:5
	b	.LBB21_5
.Ltmp459:
.LBB21_5:
	.loc	10 557 51 is_stmt 1             @ lvgl/src/lv_widgets/lv_dropdown.c:557:51
	ldr	r0, [sp, #4]
	.loc	10 557 31 is_stmt 0             @ lvgl/src/lv_widgets/lv_dropdown.c:557:31
	bl	lv_obj_get_ext_attr
	.loc	10 557 25                       @ lvgl/src/lv_widgets/lv_dropdown.c:557:25
	str	r0, [sp]
	.loc	10 559 12 is_stmt 1             @ lvgl/src/lv_widgets/lv_dropdown.c:559:12
	ldr	r0, [sp]
	.loc	10 559 17 is_stmt 0             @ lvgl/src/lv_widgets/lv_dropdown.c:559:17
	ldr	r0, [r0, #8]
	.loc	10 559 5                        @ lvgl/src/lv_widgets/lv_dropdown.c:559:5
	add	sp, #8
	pop	{r7, pc}
.Ltmp460:
.Lfunc_end21:
	.size	lv_dropdown_get_symbol, .Lfunc_end21-lv_dropdown_get_symbol
	.cfi_endproc
	.cantunwind
	.fnend
                                        @ -- End function
	.section	.text.lv_dropdown_get_dir,"ax",%progbits
	.hidden	lv_dropdown_get_dir             @ -- Begin function lv_dropdown_get_dir
	.globl	lv_dropdown_get_dir
	.p2align	3
	.type	lv_dropdown_get_dir,%function
	.code	16                              @ @lv_dropdown_get_dir
	.thumb_func
lv_dropdown_get_dir:
.Lfunc_begin22:
	.loc	10 568 0 is_stmt 1              @ lvgl/src/lv_widgets/lv_dropdown.c:568:0
	.fnstart
	.cfi_startproc
@ %bb.0:
	.save	{r7, lr}
	push	{r7, lr}
	.cfi_def_cfa_offset 8
	.cfi_offset lr, -4
	.cfi_offset r7, -8
	.pad	#8
	sub	sp, #8
	.cfi_def_cfa_offset 16
	str	r0, [sp, #4]
.Ltmp461:
	.loc	10 569 5 prologue_end           @ lvgl/src/lv_widgets/lv_dropdown.c:569:5
	b	.LBB22_1
.LBB22_1:
.Ltmp462:
	.loc	10 569 5 is_stmt 0              @ lvgl/src/lv_widgets/lv_dropdown.c:569:5
	ldr	r0, [sp, #4]
	bl	lv_debug_check_null
.Ltmp463:
	.loc	10 569 5                        @ lvgl/src/lv_widgets/lv_dropdown.c:569:5
	cbnz	r0, .LBB22_4
	b	.LBB22_2
.LBB22_2:
.Ltmp464:
	.loc	10 569 5                        @ lvgl/src/lv_widgets/lv_dropdown.c:569:5
	ldr	r2, [sp, #4]
	movw	r0, :lower16:.L.str.4
	movt	r0, :upper16:.L.str.4
	movs	r3, #0
	bl	lv_debug_log_error
	b	.LBB22_3
.LBB22_3:                               @ =>This Inner Loop Header: Depth=1
	b	.LBB22_3
.Ltmp465:
.LBB22_4:
	.loc	10 569 5                        @ lvgl/src/lv_widgets/lv_dropdown.c:569:5
	b	.LBB22_5
.Ltmp466:
.LBB22_5:
	.loc	10 571 51 is_stmt 1             @ lvgl/src/lv_widgets/lv_dropdown.c:571:51
	ldr	r0, [sp, #4]
	.loc	10 571 31 is_stmt 0             @ lvgl/src/lv_widgets/lv_dropdown.c:571:31
	bl	lv_obj_get_ext_attr
	.loc	10 571 25                       @ lvgl/src/lv_widgets/lv_dropdown.c:571:25
	str	r0, [sp]
	.loc	10 573 12 is_stmt 1             @ lvgl/src/lv_widgets/lv_dropdown.c:573:12
	ldr	r0, [sp]
	.loc	10 573 17 is_stmt 0             @ lvgl/src/lv_widgets/lv_dropdown.c:573:17
	ldrb.w	r0, [r0, #50]
	.loc	10 573 5                        @ lvgl/src/lv_widgets/lv_dropdown.c:573:5
	and	r0, r0, #3
	add	sp, #8
	pop	{r7, pc}
.Ltmp467:
.Lfunc_end22:
	.size	lv_dropdown_get_dir, .Lfunc_end22-lv_dropdown_get_dir
	.cfi_endproc
	.cantunwind
	.fnend
                                        @ -- End function
	.section	.text.lv_dropdown_get_show_selected,"ax",%progbits
	.hidden	lv_dropdown_get_show_selected   @ -- Begin function lv_dropdown_get_show_selected
	.globl	lv_dropdown_get_show_selected
	.p2align	3
	.type	lv_dropdown_get_show_selected,%function
	.code	16                              @ @lv_dropdown_get_show_selected
	.thumb_func
lv_dropdown_get_show_selected:
.Lfunc_begin23:
	.loc	10 582 0 is_stmt 1              @ lvgl/src/lv_widgets/lv_dropdown.c:582:0
	.fnstart
	.cfi_startproc
@ %bb.0:
	.save	{r7, lr}
	push	{r7, lr}
	.cfi_def_cfa_offset 8
	.cfi_offset lr, -4
	.cfi_offset r7, -8
	.pad	#8
	sub	sp, #8
	.cfi_def_cfa_offset 16
	str	r0, [sp, #4]
.Ltmp468:
	.loc	10 583 5 prologue_end           @ lvgl/src/lv_widgets/lv_dropdown.c:583:5
	b	.LBB23_1
.LBB23_1:
.Ltmp469:
	.loc	10 583 5 is_stmt 0              @ lvgl/src/lv_widgets/lv_dropdown.c:583:5
	ldr	r0, [sp, #4]
	bl	lv_debug_check_null
.Ltmp470:
	.loc	10 583 5                        @ lvgl/src/lv_widgets/lv_dropdown.c:583:5
	cbnz	r0, .LBB23_4
	b	.LBB23_2
.LBB23_2:
.Ltmp471:
	.loc	10 583 5                        @ lvgl/src/lv_widgets/lv_dropdown.c:583:5
	ldr	r2, [sp, #4]
	movw	r0, :lower16:.L.str.4
	movt	r0, :upper16:.L.str.4
	movs	r3, #0
	bl	lv_debug_log_error
	b	.LBB23_3
.LBB23_3:                               @ =>This Inner Loop Header: Depth=1
	b	.LBB23_3
.Ltmp472:
.LBB23_4:
	.loc	10 583 5                        @ lvgl/src/lv_widgets/lv_dropdown.c:583:5
	b	.LBB23_5
.Ltmp473:
.LBB23_5:
	.loc	10 585 51 is_stmt 1             @ lvgl/src/lv_widgets/lv_dropdown.c:585:51
	ldr	r0, [sp, #4]
	.loc	10 585 31 is_stmt 0             @ lvgl/src/lv_widgets/lv_dropdown.c:585:31
	bl	lv_obj_get_ext_attr
	.loc	10 585 25                       @ lvgl/src/lv_widgets/lv_dropdown.c:585:25
	str	r0, [sp]
	.loc	10 587 12 is_stmt 1             @ lvgl/src/lv_widgets/lv_dropdown.c:587:12
	ldr	r0, [sp]
	.loc	10 587 17 is_stmt 0             @ lvgl/src/lv_widgets/lv_dropdown.c:587:17
	ldrb.w	r0, [r0, #50]
	ubfx	r0, r0, #2, #1
	.loc	10 587 5                        @ lvgl/src/lv_widgets/lv_dropdown.c:587:5
	add	sp, #8
	pop	{r7, pc}
.Ltmp474:
.Lfunc_end23:
	.size	lv_dropdown_get_show_selected, .Lfunc_end23-lv_dropdown_get_show_selected
	.cfi_endproc
	.cantunwind
	.fnend
                                        @ -- End function
	.section	.text.lv_dropdown_open,"ax",%progbits
	.hidden	lv_dropdown_open                @ -- Begin function lv_dropdown_open
	.globl	lv_dropdown_open
	.p2align	3
	.type	lv_dropdown_open,%function
	.code	16                              @ @lv_dropdown_open
	.thumb_func
lv_dropdown_open:
.Lfunc_begin24:
	.loc	10 600 0 is_stmt 1              @ lvgl/src/lv_widgets/lv_dropdown.c:600:0
	.fnstart
	.cfi_startproc
@ %bb.0:
	.save	{r7, lr}
	push	{r7, lr}
	.cfi_def_cfa_offset 8
	.cfi_offset lr, -4
	.cfi_offset r7, -8
	.pad	#96
	sub	sp, #96
	.cfi_def_cfa_offset 104
	str	r0, [sp, #92]
.Ltmp475:
	.loc	10 601 51 prologue_end          @ lvgl/src/lv_widgets/lv_dropdown.c:601:51
	ldr	r0, [sp, #92]
	.loc	10 601 31 is_stmt 0             @ lvgl/src/lv_widgets/lv_dropdown.c:601:31
	bl	lv_obj_get_ext_attr
	.loc	10 601 25                       @ lvgl/src/lv_widgets/lv_dropdown.c:601:25
	str	r0, [sp, #88]
.Ltmp476:
	.loc	10 602 8 is_stmt 1              @ lvgl/src/lv_widgets/lv_dropdown.c:602:8
	ldr	r0, [sp, #88]
	.loc	10 602 13 is_stmt 0             @ lvgl/src/lv_widgets/lv_dropdown.c:602:13
	ldr	r0, [r0]
.Ltmp477:
	.loc	10 602 8                        @ lvgl/src/lv_widgets/lv_dropdown.c:602:8
	cbz	r0, .LBB24_2
	b	.LBB24_1
.LBB24_1:
.Ltmp478:
	.loc	10 602 19                       @ lvgl/src/lv_widgets/lv_dropdown.c:602:19
	b	.LBB24_58
.Ltmp479:
.LBB24_2:
	.loc	10 604 50 is_stmt 1             @ lvgl/src/lv_widgets/lv_dropdown.c:604:50
	ldr	r0, [sp, #92]
	.loc	10 604 32 is_stmt 0             @ lvgl/src/lv_widgets/lv_dropdown.c:604:32
	bl	lv_obj_get_screen
	movs	r1, #0
	.loc	10 604 17                       @ lvgl/src/lv_widgets/lv_dropdown.c:604:17
	bl	lv_page_create
	.loc	10 604 5                        @ lvgl/src/lv_widgets/lv_dropdown.c:604:5
	ldr	r1, [sp, #88]
	.loc	10 604 15                       @ lvgl/src/lv_widgets/lv_dropdown.c:604:15
	str	r0, [r1]
	.loc	10 605 24 is_stmt 1             @ lvgl/src/lv_widgets/lv_dropdown.c:605:24
	ldr	r0, [sp, #88]
	.loc	10 605 29 is_stmt 0             @ lvgl/src/lv_widgets/lv_dropdown.c:605:29
	ldr	r0, [r0]
	movs	r1, #36
	.loc	10 605 5                        @ lvgl/src/lv_widgets/lv_dropdown.c:605:5
	bl	lv_obj_add_protect
	.loc	10 606 47 is_stmt 1             @ lvgl/src/lv_widgets/lv_dropdown.c:606:47
	ldr	r0, [sp, #88]
	.loc	10 606 52 is_stmt 0             @ lvgl/src/lv_widgets/lv_dropdown.c:606:52
	ldr	r0, [r0]
	.loc	10 606 24                       @ lvgl/src/lv_widgets/lv_dropdown.c:606:24
	bl	lv_page_get_scrollable
	movs	r1, #32
	.loc	10 606 5                        @ lvgl/src/lv_widgets/lv_dropdown.c:606:5
	bl	lv_obj_add_protect
	.loc	10 608 25 is_stmt 1             @ lvgl/src/lv_widgets/lv_dropdown.c:608:25
	ldr	r0, [sp, #88]
	.loc	10 608 30 is_stmt 0             @ lvgl/src/lv_widgets/lv_dropdown.c:608:30
	ldr	r0, [r0]
	.loc	10 608 56                       @ lvgl/src/lv_widgets/lv_dropdown.c:608:56
	str	r0, [sp, #64]                   @ 4-byte Spill
	ldr	r0, [sp, #92]
	.loc	10 608 36                       @ lvgl/src/lv_widgets/lv_dropdown.c:608:36
	bl	lv_obj_get_base_dir
	mov	r1, r0
	.loc	10 608 5                        @ lvgl/src/lv_widgets/lv_dropdown.c:608:5
	ldr	r0, [sp, #64]                   @ 4-byte Reload
	bl	lv_obj_set_base_dir
.Ltmp480:
	.loc	10 610 8 is_stmt 1              @ lvgl/src/lv_widgets/lv_dropdown.c:610:8
	movw	r0, :lower16:ancestor_page_signal
	movt	r0, :upper16:ancestor_page_signal
	ldr	r0, [r0]
.Ltmp481:
	.loc	10 610 8 is_stmt 0              @ lvgl/src/lv_widgets/lv_dropdown.c:610:8
	cbnz	r0, .LBB24_4
	b	.LBB24_3
.LBB24_3:
.Ltmp482:
	.loc	10 610 82                       @ lvgl/src/lv_widgets/lv_dropdown.c:610:82
	ldr	r0, [sp, #88]
	.loc	10 610 87                       @ lvgl/src/lv_widgets/lv_dropdown.c:610:87
	ldr	r0, [r0]
	.loc	10 610 61                       @ lvgl/src/lv_widgets/lv_dropdown.c:610:61
	bl	lv_obj_get_signal_cb
	.loc	10 610 59                       @ lvgl/src/lv_widgets/lv_dropdown.c:610:59
	movw	r1, :lower16:ancestor_page_signal
	movt	r1, :upper16:ancestor_page_signal
	str	r0, [r1]
	.loc	10 610 38                       @ lvgl/src/lv_widgets/lv_dropdown.c:610:38
	b	.LBB24_4
.Ltmp483:
.LBB24_4:
	.loc	10 611 8 is_stmt 1              @ lvgl/src/lv_widgets/lv_dropdown.c:611:8
	movw	r0, :lower16:ancestor_page_scrl_signal
	movt	r0, :upper16:ancestor_page_scrl_signal
	ldr	r0, [r0]
.Ltmp484:
	.loc	10 611 8 is_stmt 0              @ lvgl/src/lv_widgets/lv_dropdown.c:611:8
	cbnz	r0, .LBB24_6
	b	.LBB24_5
.LBB24_5:
.Ltmp485:
	.loc	10 612 100 is_stmt 1            @ lvgl/src/lv_widgets/lv_dropdown.c:612:100
	ldr	r0, [sp, #88]
	.loc	10 612 105 is_stmt 0            @ lvgl/src/lv_widgets/lv_dropdown.c:612:105
	ldr	r0, [r0]
	.loc	10 611 92 is_stmt 1             @ lvgl/src/lv_widgets/lv_dropdown.c:611:92
	bl	lv_page_get_scrollable
	.loc	10 611 71 is_stmt 0             @ lvgl/src/lv_widgets/lv_dropdown.c:611:71
	bl	lv_obj_get_signal_cb
	.loc	10 611 69                       @ lvgl/src/lv_widgets/lv_dropdown.c:611:69
	movw	r1, :lower16:ancestor_page_scrl_signal
	movt	r1, :upper16:ancestor_page_scrl_signal
	str	r0, [r1]
	.loc	10 611 43                       @ lvgl/src/lv_widgets/lv_dropdown.c:611:43
	b	.LBB24_6
.Ltmp486:
.LBB24_6:
	.loc	10 613 8 is_stmt 1              @ lvgl/src/lv_widgets/lv_dropdown.c:613:8
	movw	r0, :lower16:ancestor_page_design
	movt	r0, :upper16:ancestor_page_design
	ldr	r0, [r0]
.Ltmp487:
	.loc	10 613 8 is_stmt 0              @ lvgl/src/lv_widgets/lv_dropdown.c:613:8
	cbnz	r0, .LBB24_8
	b	.LBB24_7
.LBB24_7:
.Ltmp488:
	.loc	10 613 82                       @ lvgl/src/lv_widgets/lv_dropdown.c:613:82
	ldr	r0, [sp, #88]
	.loc	10 613 87                       @ lvgl/src/lv_widgets/lv_dropdown.c:613:87
	ldr	r0, [r0]
	.loc	10 613 61                       @ lvgl/src/lv_widgets/lv_dropdown.c:613:61
	bl	lv_obj_get_design_cb
	.loc	10 613 59                       @ lvgl/src/lv_widgets/lv_dropdown.c:613:59
	movw	r1, :lower16:ancestor_page_design
	movt	r1, :upper16:ancestor_page_design
	str	r0, [r1]
	.loc	10 613 38                       @ lvgl/src/lv_widgets/lv_dropdown.c:613:38
	b	.LBB24_8
.Ltmp489:
.LBB24_8:
	.loc	10 615 66 is_stmt 1             @ lvgl/src/lv_widgets/lv_dropdown.c:615:66
	ldr	r0, [sp, #88]
	.loc	10 615 71 is_stmt 0             @ lvgl/src/lv_widgets/lv_dropdown.c:615:71
	ldr	r0, [r0]
	movs	r1, #68
	.loc	10 615 41                       @ lvgl/src/lv_widgets/lv_dropdown.c:615:41
	bl	lv_obj_allocate_ext_attr
	.loc	10 615 30                       @ lvgl/src/lv_widgets/lv_dropdown.c:615:30
	str	r0, [sp, #84]
	.loc	10 616 5 is_stmt 1              @ lvgl/src/lv_widgets/lv_dropdown.c:616:5
	b	.LBB24_9
.LBB24_9:
.Ltmp490:
	.loc	10 616 5 is_stmt 0              @ lvgl/src/lv_widgets/lv_dropdown.c:616:5
	ldr	r0, [sp, #84]
	bl	lv_debug_check_null
.Ltmp491:
	.loc	10 616 5                        @ lvgl/src/lv_widgets/lv_dropdown.c:616:5
	cbnz	r0, .LBB24_12
	b	.LBB24_10
.LBB24_10:
.Ltmp492:
	.loc	10 616 5                        @ lvgl/src/lv_widgets/lv_dropdown.c:616:5
	ldr	r2, [sp, #84]
	movw	r0, :lower16:.L.str
	movt	r0, :upper16:.L.str
	movs	r3, #0
	bl	lv_debug_log_error
	b	.LBB24_11
.LBB24_11:                              @ =>This Inner Loop Header: Depth=1
	b	.LBB24_11
.Ltmp493:
.LBB24_12:
	.loc	10 616 5                        @ lvgl/src/lv_widgets/lv_dropdown.c:616:5
	b	.LBB24_13
.Ltmp494:
.LBB24_13:
	.loc	10 617 8 is_stmt 1              @ lvgl/src/lv_widgets/lv_dropdown.c:617:8
	ldr	r0, [sp, #84]
.Ltmp495:
	.loc	10 617 8 is_stmt 0              @ lvgl/src/lv_widgets/lv_dropdown.c:617:8
	cbnz	r0, .LBB24_15
	b	.LBB24_14
.LBB24_14:
.Ltmp496:
	.loc	10 618 20 is_stmt 1             @ lvgl/src/lv_widgets/lv_dropdown.c:618:20
	ldr	r0, [sp, #88]
	.loc	10 618 25 is_stmt 0             @ lvgl/src/lv_widgets/lv_dropdown.c:618:25
	ldr	r0, [r0]
	.loc	10 618 9                        @ lvgl/src/lv_widgets/lv_dropdown.c:618:9
	bl	lv_obj_del
	.loc	10 619 9 is_stmt 1              @ lvgl/src/lv_widgets/lv_dropdown.c:619:9
	ldr	r1, [sp, #88]
	movs	r0, #0
	.loc	10 619 19 is_stmt 0             @ lvgl/src/lv_widgets/lv_dropdown.c:619:19
	str	r0, [r1]
	.loc	10 620 9 is_stmt 1              @ lvgl/src/lv_widgets/lv_dropdown.c:620:9
	b	.LBB24_58
.Ltmp497:
.LBB24_15:
	.loc	10 622 24                       @ lvgl/src/lv_widgets/lv_dropdown.c:622:24
	ldr	r0, [sp, #92]
	.loc	10 622 5 is_stmt 0              @ lvgl/src/lv_widgets/lv_dropdown.c:622:5
	ldr	r1, [sp, #84]
	.loc	10 622 22                       @ lvgl/src/lv_widgets/lv_dropdown.c:622:22
	str	r0, [r1, #64]
	.loc	10 624 26 is_stmt 1             @ lvgl/src/lv_widgets/lv_dropdown.c:624:26
	ldr	r0, [sp, #88]
	.loc	10 624 31 is_stmt 0             @ lvgl/src/lv_widgets/lv_dropdown.c:624:31
	ldr	r0, [r0]
	.loc	10 624 5                        @ lvgl/src/lv_widgets/lv_dropdown.c:624:5
	movw	r1, :lower16:lv_dropdown_page_design
	movt	r1, :upper16:lv_dropdown_page_design
	bl	lv_obj_set_design_cb
	.loc	10 625 26 is_stmt 1             @ lvgl/src/lv_widgets/lv_dropdown.c:625:26
	ldr	r0, [sp, #88]
	.loc	10 625 31 is_stmt 0             @ lvgl/src/lv_widgets/lv_dropdown.c:625:31
	ldr	r0, [r0]
	.loc	10 625 5                        @ lvgl/src/lv_widgets/lv_dropdown.c:625:5
	movw	r1, :lower16:lv_dropdown_page_signal
	movt	r1, :upper16:lv_dropdown_page_signal
	bl	lv_obj_set_signal_cb
	.loc	10 626 49 is_stmt 1             @ lvgl/src/lv_widgets/lv_dropdown.c:626:49
	ldr	r0, [sp, #88]
	.loc	10 626 54 is_stmt 0             @ lvgl/src/lv_widgets/lv_dropdown.c:626:54
	ldr	r0, [r0]
	.loc	10 626 26                       @ lvgl/src/lv_widgets/lv_dropdown.c:626:26
	bl	lv_page_get_scrollable
	.loc	10 626 5                        @ lvgl/src/lv_widgets/lv_dropdown.c:626:5
	movw	r1, :lower16:lv_dropdown_page_scrl_signal
	movt	r1, :upper16:lv_dropdown_page_scrl_signal
	bl	lv_obj_set_signal_cb
	.loc	10 628 46 is_stmt 1             @ lvgl/src/lv_widgets/lv_dropdown.c:628:46
	ldr	r0, [sp, #88]
	.loc	10 628 51 is_stmt 0             @ lvgl/src/lv_widgets/lv_dropdown.c:628:51
	ldr	r0, [r0]
	movs	r1, #0
	.loc	10 628 24                       @ lvgl/src/lv_widgets/lv_dropdown.c:628:24
	str	r1, [sp, #56]                   @ 4-byte Spill
	bl	lv_obj_get_style_list
	.loc	10 628 76                       @ lvgl/src/lv_widgets/lv_dropdown.c:628:76
	ldr	r1, [sp, #88]
	.loc	10 628 81                       @ lvgl/src/lv_widgets/lv_dropdown.c:628:81
	adds	r1, #24
	.loc	10 628 5                        @ lvgl/src/lv_widgets/lv_dropdown.c:628:5
	bl	lv_style_list_copy
	.loc	10 629 46 is_stmt 1             @ lvgl/src/lv_widgets/lv_dropdown.c:629:46
	ldr	r0, [sp, #88]
	.loc	10 629 51 is_stmt 0             @ lvgl/src/lv_widgets/lv_dropdown.c:629:51
	ldr	r0, [r0]
	movs	r1, #1
	.loc	10 629 24                       @ lvgl/src/lv_widgets/lv_dropdown.c:629:24
	str	r1, [sp, #52]                   @ 4-byte Spill
	bl	lv_obj_get_style_list
	.loc	10 629 83                       @ lvgl/src/lv_widgets/lv_dropdown.c:629:83
	ldr	r1, [sp, #88]
	.loc	10 629 88                       @ lvgl/src/lv_widgets/lv_dropdown.c:629:88
	adds	r1, #32
	.loc	10 629 5                        @ lvgl/src/lv_widgets/lv_dropdown.c:629:5
	bl	lv_style_list_copy
	.loc	10 630 29 is_stmt 1             @ lvgl/src/lv_widgets/lv_dropdown.c:630:29
	ldr	r0, [sp, #88]
	.loc	10 630 34 is_stmt 0             @ lvgl/src/lv_widgets/lv_dropdown.c:630:34
	ldr	r0, [r0]
	movs	r1, #64
	.loc	10 630 5                        @ lvgl/src/lv_widgets/lv_dropdown.c:630:5
	bl	lv_obj_clean_style_list
	.loc	10 631 26 is_stmt 1             @ lvgl/src/lv_widgets/lv_dropdown.c:631:26
	ldr	r0, [sp, #88]
	.loc	10 631 31 is_stmt 0             @ lvgl/src/lv_widgets/lv_dropdown.c:631:31
	ldr	r0, [r0]
	movs	r2, #255
	.loc	10 631 5                        @ lvgl/src/lv_widgets/lv_dropdown.c:631:5
	mov	r1, r2
	bl	lv_obj_refresh_style
	ldr	r1, [sp, #56]                   @ 4-byte Reload
	.loc	10 633 40 is_stmt 1             @ lvgl/src/lv_widgets/lv_dropdown.c:633:40
	ldr	r0, [sp, #88]
	.loc	10 633 45 is_stmt 0             @ lvgl/src/lv_widgets/lv_dropdown.c:633:45
	ldr	r0, [r0]
	.loc	10 633 24                       @ lvgl/src/lv_widgets/lv_dropdown.c:633:24
	bl	lv_label_create
	.loc	10 633 16                       @ lvgl/src/lv_widgets/lv_dropdown.c:633:16
	str	r0, [sp, #80]
	.loc	10 634 30 is_stmt 1             @ lvgl/src/lv_widgets/lv_dropdown.c:634:30
	ldr	r0, [sp, #80]
	.loc	10 634 37 is_stmt 0             @ lvgl/src/lv_widgets/lv_dropdown.c:634:37
	ldr	r1, [sp, #88]
	.loc	10 634 42                       @ lvgl/src/lv_widgets/lv_dropdown.c:634:42
	ldr	r1, [r1, #12]
	.loc	10 634 5                        @ lvgl/src/lv_widgets/lv_dropdown.c:634:5
	bl	lv_label_set_text_static
	ldr	r1, [sp, #52]                   @ 4-byte Reload
	ldr	r2, [sp, #56]                   @ 4-byte Reload
	.loc	10 636 22 is_stmt 1             @ lvgl/src/lv_widgets/lv_dropdown.c:636:22
	ldr	r0, [sp, #88]
	.loc	10 636 27 is_stmt 0             @ lvgl/src/lv_widgets/lv_dropdown.c:636:27
	ldr	r0, [r0]
	.loc	10 636 5                        @ lvgl/src/lv_widgets/lv_dropdown.c:636:5
	bl	lv_cont_set_fit2
.Ltmp498:
	.loc	10 638 25 is_stmt 1             @ lvgl/src/lv_widgets/lv_dropdown.c:638:25
	ldr	r0, [sp, #88]
	.loc	10 638 30 is_stmt 0             @ lvgl/src/lv_widgets/lv_dropdown.c:638:30
	ldr	r0, [r0]
	.loc	10 638 8                        @ lvgl/src/lv_widgets/lv_dropdown.c:638:8
	bl	lv_obj_get_width
	.loc	10 638 55                       @ lvgl/src/lv_widgets/lv_dropdown.c:638:55
	str	r0, [sp, #60]                   @ 4-byte Spill
	ldr	r0, [sp, #92]
	.loc	10 638 38                       @ lvgl/src/lv_widgets/lv_dropdown.c:638:38
	bl	lv_obj_get_width
	mov	r1, r0
	.loc	10 638 63                       @ lvgl/src/lv_widgets/lv_dropdown.c:638:63
	ldr	r0, [sp, #60]                   @ 4-byte Reload
	cmp	r0, r1
	bge	.LBB24_19
	b	.LBB24_16
.LBB24_16:
	.loc	10 639 9 is_stmt 1              @ lvgl/src/lv_widgets/lv_dropdown.c:639:9
	ldr	r0, [sp, #88]
	.loc	10 639 14 is_stmt 0             @ lvgl/src/lv_widgets/lv_dropdown.c:639:14
	ldrb.w	r0, [r0, #50]
	and	r0, r0, #3
	.loc	10 639 40                       @ lvgl/src/lv_widgets/lv_dropdown.c:639:40
	cmp	r0, #1
	beq	.LBB24_18
	b	.LBB24_17
.LBB24_17:
	.loc	10 639 43                       @ lvgl/src/lv_widgets/lv_dropdown.c:639:43
	ldr	r0, [sp, #88]
	.loc	10 639 48                       @ lvgl/src/lv_widgets/lv_dropdown.c:639:48
	ldrb.w	r0, [r0, #50]
.Ltmp499:
	.loc	10 638 8 is_stmt 1              @ lvgl/src/lv_widgets/lv_dropdown.c:638:8
	lsls	r0, r0, #30
	cbnz	r0, .LBB24_19
	b	.LBB24_18
.LBB24_18:
.Ltmp500:
	.loc	10 640 26                       @ lvgl/src/lv_widgets/lv_dropdown.c:640:26
	ldr	r0, [sp, #88]
	.loc	10 640 31 is_stmt 0             @ lvgl/src/lv_widgets/lv_dropdown.c:640:31
	ldr	r0, [r0]
	movs	r2, #0
	.loc	10 640 9                        @ lvgl/src/lv_widgets/lv_dropdown.c:640:9
	mov	r1, r2
	bl	lv_cont_set_fit2
	.loc	10 641 26 is_stmt 1             @ lvgl/src/lv_widgets/lv_dropdown.c:641:26
	ldr	r0, [sp, #88]
	.loc	10 641 31 is_stmt 0             @ lvgl/src/lv_widgets/lv_dropdown.c:641:31
	ldr	r0, [r0]
	.loc	10 641 54                       @ lvgl/src/lv_widgets/lv_dropdown.c:641:54
	str	r0, [sp, #48]                   @ 4-byte Spill
	ldr	r0, [sp, #92]
	.loc	10 641 37                       @ lvgl/src/lv_widgets/lv_dropdown.c:641:37
	bl	lv_obj_get_width
	mov	r1, r0
	.loc	10 641 9                        @ lvgl/src/lv_widgets/lv_dropdown.c:641:9
	ldr	r0, [sp, #48]                   @ 4-byte Reload
	bl	lv_obj_set_width
	.loc	10 642 5 is_stmt 1              @ lvgl/src/lv_widgets/lv_dropdown.c:642:5
	b	.LBB24_19
.Ltmp501:
.LBB24_19:
	.loc	10 644 44                       @ lvgl/src/lv_widgets/lv_dropdown.c:644:44
	ldr	r0, [sp, #80]
	.loc	10 644 26 is_stmt 0             @ lvgl/src/lv_widgets/lv_dropdown.c:644:26
	bl	lv_obj_get_height
	.loc	10 644 16                       @ lvgl/src/lv_widgets/lv_dropdown.c:644:16
	strh.w	r0, [sp, #78]
	.loc	10 645 51 is_stmt 1             @ lvgl/src/lv_widgets/lv_dropdown.c:645:51
	ldr	r0, [sp, #92]
	movs	r1, #64
	.loc	10 645 26 is_stmt 0             @ lvgl/src/lv_widgets/lv_dropdown.c:645:26
	str	r1, [sp, #44]                   @ 4-byte Spill
	bl	lv_obj_get_style_pad_top
	ldr	r1, [sp, #44]                   @ 4-byte Reload
	.loc	10 645 20                       @ lvgl/src/lv_widgets/lv_dropdown.c:645:20
	strh.w	r0, [sp, #76]
	.loc	10 646 57 is_stmt 1             @ lvgl/src/lv_widgets/lv_dropdown.c:646:57
	ldr	r0, [sp, #92]
	.loc	10 646 29 is_stmt 0             @ lvgl/src/lv_widgets/lv_dropdown.c:646:29
	bl	lv_obj_get_style_pad_bottom
	.loc	10 646 20                       @ lvgl/src/lv_widgets/lv_dropdown.c:646:20
	strh.w	r0, [sp, #74]
	.loc	10 648 29 is_stmt 1             @ lvgl/src/lv_widgets/lv_dropdown.c:648:29
	ldrh.w	r0, [sp, #78]
	.loc	10 648 39 is_stmt 0             @ lvgl/src/lv_widgets/lv_dropdown.c:648:39
	ldrh.w	r1, [sp, #76]
	.loc	10 648 37                       @ lvgl/src/lv_widgets/lv_dropdown.c:648:37
	add	r0, r1
	.loc	10 648 45                       @ lvgl/src/lv_widgets/lv_dropdown.c:648:45
	ldrh.w	r1, [sp, #74]
	.loc	10 648 43                       @ lvgl/src/lv_widgets/lv_dropdown.c:648:43
	add	r0, r1
	.loc	10 648 16                       @ lvgl/src/lv_widgets/lv_dropdown.c:648:16
	strh.w	r0, [sp, #72]
	.loc	10 649 25 is_stmt 1             @ lvgl/src/lv_widgets/lv_dropdown.c:649:25
	ldrh.w	r0, [sp, #72]
	.loc	10 649 16 is_stmt 0             @ lvgl/src/lv_widgets/lv_dropdown.c:649:16
	strh.w	r0, [sp, #70]
.Ltmp502:
	.loc	10 650 8 is_stmt 1              @ lvgl/src/lv_widgets/lv_dropdown.c:650:8
	ldrsh.w	r0, [sp, #70]
	.loc	10 650 17 is_stmt 0             @ lvgl/src/lv_widgets/lv_dropdown.c:650:17
	ldr	r1, [sp, #88]
	.loc	10 650 22                       @ lvgl/src/lv_widgets/lv_dropdown.c:650:22
	ldrsh.w	r1, [r1, #40]
.Ltmp503:
	.loc	10 650 8                        @ lvgl/src/lv_widgets/lv_dropdown.c:650:8
	cmp	r0, r1
	ble	.LBB24_21
	b	.LBB24_20
.LBB24_20:
.Ltmp504:
	.loc	10 650 43                       @ lvgl/src/lv_widgets/lv_dropdown.c:650:43
	ldr	r0, [sp, #88]
	.loc	10 650 48                       @ lvgl/src/lv_widgets/lv_dropdown.c:650:48
	ldrh	r0, [r0, #40]
	.loc	10 650 41                       @ lvgl/src/lv_widgets/lv_dropdown.c:650:41
	strh.w	r0, [sp, #70]
	.loc	10 650 34                       @ lvgl/src/lv_widgets/lv_dropdown.c:650:34
	b	.LBB24_21
.Ltmp505:
.LBB24_21:
	.loc	10 652 29 is_stmt 1             @ lvgl/src/lv_widgets/lv_dropdown.c:652:29
	ldr	r0, [sp, #88]
	.loc	10 652 34 is_stmt 0             @ lvgl/src/lv_widgets/lv_dropdown.c:652:34
	ldrb.w	r0, [r0, #50]
	and	r0, r0, #3
	.loc	10 652 23                       @ lvgl/src/lv_widgets/lv_dropdown.c:652:23
	strb.w	r0, [sp, #69]
.Ltmp506:
	.loc	10 654 8 is_stmt 1              @ lvgl/src/lv_widgets/lv_dropdown.c:654:8
	ldr	r0, [sp, #88]
	.loc	10 654 13 is_stmt 0             @ lvgl/src/lv_widgets/lv_dropdown.c:654:13
	ldrb.w	r0, [r0, #50]
.Ltmp507:
	.loc	10 654 8                        @ lvgl/src/lv_widgets/lv_dropdown.c:654:8
	lsls	r0, r0, #30
	cbnz	r0, .LBB24_28
	b	.LBB24_22
.LBB24_22:
.Ltmp508:
	.loc	10 655 12 is_stmt 1             @ lvgl/src/lv_widgets/lv_dropdown.c:655:12
	ldr	r0, [sp, #92]
	.loc	10 655 27 is_stmt 0             @ lvgl/src/lv_widgets/lv_dropdown.c:655:27
	ldrsh.w	r0, [r0, #22]
	.loc	10 655 32                       @ lvgl/src/lv_widgets/lv_dropdown.c:655:32
	ldrsh.w	r1, [sp, #70]
	.loc	10 655 30                       @ lvgl/src/lv_widgets/lv_dropdown.c:655:30
	add	r0, r1
	.loc	10 655 41                       @ lvgl/src/lv_widgets/lv_dropdown.c:655:41
	str	r0, [sp, #40]                   @ 4-byte Spill
	bl	lv_disp_get_default
	bl	lv_disp_get_ver_res
	mov	r1, r0
.Ltmp509:
	.loc	10 655 12                       @ lvgl/src/lv_widgets/lv_dropdown.c:655:12
	ldr	r0, [sp, #40]                   @ 4-byte Reload
	cmp	r0, r1
	ble	.LBB24_27
	b	.LBB24_23
.LBB24_23:
.Ltmp510:
	.loc	10 656 16 is_stmt 1             @ lvgl/src/lv_widgets/lv_dropdown.c:656:16
	ldr	r0, [sp, #92]
	.loc	10 656 31 is_stmt 0             @ lvgl/src/lv_widgets/lv_dropdown.c:656:31
	ldrsh.w	r0, [r0, #18]
	.loc	10 656 36                       @ lvgl/src/lv_widgets/lv_dropdown.c:656:36
	str	r0, [sp, #36]                   @ 4-byte Spill
	bl	lv_disp_get_default
	bl	lv_disp_get_ver_res
	mov	r1, r0
	.loc	10 656 49                       @ lvgl/src/lv_widgets/lv_dropdown.c:656:49
	ldr	r0, [sp, #36]                   @ 4-byte Reload
	ldr	r2, [sp, #92]
	.loc	10 656 64                       @ lvgl/src/lv_widgets/lv_dropdown.c:656:64
	ldrsh.w	r2, [r2, #22]
	.loc	10 656 47                       @ lvgl/src/lv_widgets/lv_dropdown.c:656:47
	subs	r1, r1, r2
.Ltmp511:
	.loc	10 656 16                       @ lvgl/src/lv_widgets/lv_dropdown.c:656:16
	cmp	r0, r1
	ble	.LBB24_25
	b	.LBB24_24
.LBB24_24:
	.loc	10 0 16                         @ lvgl/src/lv_widgets/lv_dropdown.c:0:16
	movs	r0, #1
.Ltmp512:
	.loc	10 658 21 is_stmt 1             @ lvgl/src/lv_widgets/lv_dropdown.c:658:21
	strb.w	r0, [sp, #69]
	.loc	10 659 26                       @ lvgl/src/lv_widgets/lv_dropdown.c:659:26
	ldr	r0, [sp, #92]
	.loc	10 659 41 is_stmt 0             @ lvgl/src/lv_widgets/lv_dropdown.c:659:41
	ldrh	r0, [r0, #18]
	.loc	10 659 24                       @ lvgl/src/lv_widgets/lv_dropdown.c:659:24
	strh.w	r0, [sp, #70]
	.loc	10 660 13 is_stmt 1             @ lvgl/src/lv_widgets/lv_dropdown.c:660:13
	b	.LBB24_26
.Ltmp513:
.LBB24_25:
	.loc	10 662 26                       @ lvgl/src/lv_widgets/lv_dropdown.c:662:26
	bl	lv_disp_get_default
	bl	lv_disp_get_ver_res
	.loc	10 662 39 is_stmt 0             @ lvgl/src/lv_widgets/lv_dropdown.c:662:39
	ldr	r1, [sp, #92]
	ldrh	r1, [r1, #22]
	.loc	10 662 37                       @ lvgl/src/lv_widgets/lv_dropdown.c:662:37
	subs	r0, r0, r1
	.loc	10 662 24                       @ lvgl/src/lv_widgets/lv_dropdown.c:662:24
	strh.w	r0, [sp, #70]
	b	.LBB24_26
.Ltmp514:
.LBB24_26:
	.loc	10 664 9 is_stmt 1              @ lvgl/src/lv_widgets/lv_dropdown.c:664:9
	b	.LBB24_27
.Ltmp515:
.LBB24_27:
	.loc	10 665 5                        @ lvgl/src/lv_widgets/lv_dropdown.c:665:5
	b	.LBB24_36
.Ltmp516:
.LBB24_28:
	.loc	10 667 13                       @ lvgl/src/lv_widgets/lv_dropdown.c:667:13
	ldr	r0, [sp, #88]
	.loc	10 667 18 is_stmt 0             @ lvgl/src/lv_widgets/lv_dropdown.c:667:18
	ldrb.w	r0, [r0, #50]
	and	r0, r0, #3
.Ltmp517:
	.loc	10 667 13                       @ lvgl/src/lv_widgets/lv_dropdown.c:667:13
	cmp	r0, #1
	bne	.LBB24_35
	b	.LBB24_29
.LBB24_29:
.Ltmp518:
	.loc	10 668 12 is_stmt 1             @ lvgl/src/lv_widgets/lv_dropdown.c:668:12
	ldr	r0, [sp, #92]
	.loc	10 668 27 is_stmt 0             @ lvgl/src/lv_widgets/lv_dropdown.c:668:27
	ldrsh.w	r0, [r0, #18]
	.loc	10 668 32                       @ lvgl/src/lv_widgets/lv_dropdown.c:668:32
	ldrsh.w	r1, [sp, #70]
	.loc	10 668 30                       @ lvgl/src/lv_widgets/lv_dropdown.c:668:30
	subs	r0, r0, r1
.Ltmp519:
	.loc	10 668 12                       @ lvgl/src/lv_widgets/lv_dropdown.c:668:12
	cmp.w	r0, #-1
	bgt	.LBB24_34
	b	.LBB24_30
.LBB24_30:
.Ltmp520:
	.loc	10 669 16 is_stmt 1             @ lvgl/src/lv_widgets/lv_dropdown.c:669:16
	ldr	r0, [sp, #92]
	.loc	10 669 31 is_stmt 0             @ lvgl/src/lv_widgets/lv_dropdown.c:669:31
	ldrsh.w	r0, [r0, #18]
	.loc	10 669 36                       @ lvgl/src/lv_widgets/lv_dropdown.c:669:36
	str	r0, [sp, #32]                   @ 4-byte Spill
	bl	lv_disp_get_default
	bl	lv_disp_get_ver_res
	mov	r1, r0
	.loc	10 669 49                       @ lvgl/src/lv_widgets/lv_dropdown.c:669:49
	ldr	r0, [sp, #32]                   @ 4-byte Reload
	ldr	r2, [sp, #92]
	.loc	10 669 64                       @ lvgl/src/lv_widgets/lv_dropdown.c:669:64
	ldrsh.w	r2, [r2, #22]
	.loc	10 669 47                       @ lvgl/src/lv_widgets/lv_dropdown.c:669:47
	subs	r1, r1, r2
.Ltmp521:
	.loc	10 669 16                       @ lvgl/src/lv_widgets/lv_dropdown.c:669:16
	cmp	r0, r1
	bge	.LBB24_32
	b	.LBB24_31
.LBB24_31:
	.loc	10 0 16                         @ lvgl/src/lv_widgets/lv_dropdown.c:0:16
	movs	r0, #0
.Ltmp522:
	.loc	10 671 21 is_stmt 1             @ lvgl/src/lv_widgets/lv_dropdown.c:671:21
	strb.w	r0, [sp, #69]
	.loc	10 672 26                       @ lvgl/src/lv_widgets/lv_dropdown.c:672:26
	bl	lv_disp_get_default
	bl	lv_disp_get_ver_res
	.loc	10 672 39 is_stmt 0             @ lvgl/src/lv_widgets/lv_dropdown.c:672:39
	ldr	r1, [sp, #92]
	ldrh	r1, [r1, #22]
	.loc	10 672 37                       @ lvgl/src/lv_widgets/lv_dropdown.c:672:37
	subs	r0, r0, r1
	.loc	10 672 24                       @ lvgl/src/lv_widgets/lv_dropdown.c:672:24
	strh.w	r0, [sp, #70]
	.loc	10 673 13 is_stmt 1             @ lvgl/src/lv_widgets/lv_dropdown.c:673:13
	b	.LBB24_33
.Ltmp523:
.LBB24_32:
	.loc	10 675 26                       @ lvgl/src/lv_widgets/lv_dropdown.c:675:26
	ldr	r0, [sp, #92]
	.loc	10 675 41 is_stmt 0             @ lvgl/src/lv_widgets/lv_dropdown.c:675:41
	ldrh	r0, [r0, #18]
	.loc	10 675 24                       @ lvgl/src/lv_widgets/lv_dropdown.c:675:24
	strh.w	r0, [sp, #70]
	b	.LBB24_33
.Ltmp524:
.LBB24_33:
	.loc	10 677 9 is_stmt 1              @ lvgl/src/lv_widgets/lv_dropdown.c:677:9
	b	.LBB24_34
.Ltmp525:
.LBB24_34:
	.loc	10 678 5                        @ lvgl/src/lv_widgets/lv_dropdown.c:678:5
	b	.LBB24_35
.Ltmp526:
.LBB24_35:
	.loc	10 0 5 is_stmt 0                @ lvgl/src/lv_widgets/lv_dropdown.c:0:5
	b	.LBB24_36
.LBB24_36:
.Ltmp527:
	.loc	10 680 8 is_stmt 1              @ lvgl/src/lv_widgets/lv_dropdown.c:680:8
	ldrsh.w	r0, [sp, #70]
	.loc	10 680 17 is_stmt 0             @ lvgl/src/lv_widgets/lv_dropdown.c:680:17
	ldrsh.w	r1, [sp, #72]
.Ltmp528:
	.loc	10 680 8                        @ lvgl/src/lv_widgets/lv_dropdown.c:680:8
	cmp	r0, r1
	ble	.LBB24_38
	b	.LBB24_37
.LBB24_37:
.Ltmp529:
	.loc	10 680 38                       @ lvgl/src/lv_widgets/lv_dropdown.c:680:38
	ldrh.w	r0, [sp, #72]
	.loc	10 680 36                       @ lvgl/src/lv_widgets/lv_dropdown.c:680:36
	strh.w	r0, [sp, #70]
	.loc	10 680 29                       @ lvgl/src/lv_widgets/lv_dropdown.c:680:29
	b	.LBB24_38
.Ltmp530:
.LBB24_38:
	.loc	10 681 8 is_stmt 1              @ lvgl/src/lv_widgets/lv_dropdown.c:681:8
	ldrsh.w	r0, [sp, #70]
	.loc	10 681 17 is_stmt 0             @ lvgl/src/lv_widgets/lv_dropdown.c:681:17
	ldr	r1, [sp, #88]
	.loc	10 681 22                       @ lvgl/src/lv_widgets/lv_dropdown.c:681:22
	ldrsh.w	r1, [r1, #40]
.Ltmp531:
	.loc	10 681 8                        @ lvgl/src/lv_widgets/lv_dropdown.c:681:8
	cmp	r0, r1
	ble	.LBB24_40
	b	.LBB24_39
.LBB24_39:
.Ltmp532:
	.loc	10 681 43                       @ lvgl/src/lv_widgets/lv_dropdown.c:681:43
	ldr	r0, [sp, #88]
	.loc	10 681 48                       @ lvgl/src/lv_widgets/lv_dropdown.c:681:48
	ldrh	r0, [r0, #40]
	.loc	10 681 41                       @ lvgl/src/lv_widgets/lv_dropdown.c:681:41
	strh.w	r0, [sp, #70]
	.loc	10 681 34                       @ lvgl/src/lv_widgets/lv_dropdown.c:681:34
	b	.LBB24_40
.Ltmp533:
.LBB24_40:
	.loc	10 683 23 is_stmt 1             @ lvgl/src/lv_widgets/lv_dropdown.c:683:23
	ldr	r0, [sp, #88]
	.loc	10 683 28 is_stmt 0             @ lvgl/src/lv_widgets/lv_dropdown.c:683:28
	ldr	r0, [r0]
	.loc	10 683 34                       @ lvgl/src/lv_widgets/lv_dropdown.c:683:34
	ldrsh.w	r1, [sp, #70]
	.loc	10 683 5                        @ lvgl/src/lv_widgets/lv_dropdown.c:683:5
	bl	lv_obj_set_height
	.loc	10 685 26 is_stmt 1             @ lvgl/src/lv_widgets/lv_dropdown.c:685:26
	ldr	r0, [sp, #92]
	.loc	10 685 5 is_stmt 0              @ lvgl/src/lv_widgets/lv_dropdown.c:685:5
	bl	position_to_selected
.Ltmp534:
	.loc	10 687 8 is_stmt 1              @ lvgl/src/lv_widgets/lv_dropdown.c:687:8
	ldrb.w	r0, [sp, #69]
.Ltmp535:
	.loc	10 687 8 is_stmt 0              @ lvgl/src/lv_widgets/lv_dropdown.c:687:8
	cbnz	r0, .LBB24_42
	b	.LBB24_41
.LBB24_41:
.Ltmp536:
	.loc	10 687 55                       @ lvgl/src/lv_widgets/lv_dropdown.c:687:55
	ldr	r0, [sp, #88]
	.loc	10 687 60                       @ lvgl/src/lv_widgets/lv_dropdown.c:687:60
	ldr	r0, [r0]
	.loc	10 687 66                       @ lvgl/src/lv_widgets/lv_dropdown.c:687:66
	ldr	r1, [sp, #92]
	.loc	10 687 42                       @ lvgl/src/lv_widgets/lv_dropdown.c:687:42
	mov	r2, sp
	movs	r3, #0
	str	r3, [r2]
	movs	r2, #12
	bl	lv_obj_align
	b	.LBB24_51
.LBB24_42:
.Ltmp537:
	.loc	10 688 13 is_stmt 1             @ lvgl/src/lv_widgets/lv_dropdown.c:688:13
	ldrb.w	r0, [sp, #69]
.Ltmp538:
	.loc	10 688 13 is_stmt 0             @ lvgl/src/lv_widgets/lv_dropdown.c:688:13
	cmp	r0, #1
	bne	.LBB24_44
	b	.LBB24_43
.LBB24_43:
.Ltmp539:
	.loc	10 688 55                       @ lvgl/src/lv_widgets/lv_dropdown.c:688:55
	ldr	r0, [sp, #88]
	.loc	10 688 60                       @ lvgl/src/lv_widgets/lv_dropdown.c:688:60
	ldr	r0, [r0]
	.loc	10 688 66                       @ lvgl/src/lv_widgets/lv_dropdown.c:688:66
	ldr	r1, [sp, #92]
	.loc	10 688 42                       @ lvgl/src/lv_widgets/lv_dropdown.c:688:42
	mov	r2, sp
	movs	r3, #0
	str	r3, [r2]
	movs	r2, #9
	bl	lv_obj_align
	b	.LBB24_50
.LBB24_44:
.Ltmp540:
	.loc	10 689 13 is_stmt 1             @ lvgl/src/lv_widgets/lv_dropdown.c:689:13
	ldrb.w	r0, [sp, #69]
.Ltmp541:
	.loc	10 689 13 is_stmt 0             @ lvgl/src/lv_widgets/lv_dropdown.c:689:13
	cmp	r0, #2
	bne	.LBB24_46
	b	.LBB24_45
.LBB24_45:
.Ltmp542:
	.loc	10 689 55                       @ lvgl/src/lv_widgets/lv_dropdown.c:689:55
	ldr	r0, [sp, #88]
	.loc	10 689 60                       @ lvgl/src/lv_widgets/lv_dropdown.c:689:60
	ldr	r0, [r0]
	.loc	10 689 66                       @ lvgl/src/lv_widgets/lv_dropdown.c:689:66
	ldr	r1, [sp, #92]
	.loc	10 689 42                       @ lvgl/src/lv_widgets/lv_dropdown.c:689:42
	mov	r2, sp
	movs	r3, #0
	str	r3, [r2]
	movs	r2, #15
	bl	lv_obj_align
	b	.LBB24_49
.LBB24_46:
.Ltmp543:
	.loc	10 690 13 is_stmt 1             @ lvgl/src/lv_widgets/lv_dropdown.c:690:13
	ldrb.w	r0, [sp, #69]
.Ltmp544:
	.loc	10 690 13 is_stmt 0             @ lvgl/src/lv_widgets/lv_dropdown.c:690:13
	cmp	r0, #3
	bne	.LBB24_48
	b	.LBB24_47
.LBB24_47:
.Ltmp545:
	.loc	10 690 55                       @ lvgl/src/lv_widgets/lv_dropdown.c:690:55
	ldr	r0, [sp, #88]
	.loc	10 690 60                       @ lvgl/src/lv_widgets/lv_dropdown.c:690:60
	ldr	r0, [r0]
	.loc	10 690 66                       @ lvgl/src/lv_widgets/lv_dropdown.c:690:66
	ldr	r1, [sp, #92]
	.loc	10 690 42                       @ lvgl/src/lv_widgets/lv_dropdown.c:690:42
	mov	r2, sp
	movs	r3, #0
	str	r3, [r2]
	movs	r2, #18
	bl	lv_obj_align
	b	.LBB24_48
.Ltmp546:
.LBB24_48:
	.loc	10 0 42                         @ lvgl/src/lv_widgets/lv_dropdown.c:0:42
	b	.LBB24_49
.LBB24_49:
	b	.LBB24_50
.LBB24_50:
	b	.LBB24_51
.LBB24_51:
.Ltmp547:
	.loc	10 692 8 is_stmt 1              @ lvgl/src/lv_widgets/lv_dropdown.c:692:8
	ldr	r0, [sp, #88]
	.loc	10 692 13 is_stmt 0             @ lvgl/src/lv_widgets/lv_dropdown.c:692:13
	ldrb.w	r0, [r0, #50]
	and	r0, r0, #3
	.loc	10 692 41                       @ lvgl/src/lv_widgets/lv_dropdown.c:692:41
	cmp	r0, #2
	beq	.LBB24_53
	b	.LBB24_52
.LBB24_52:
	.loc	10 692 44                       @ lvgl/src/lv_widgets/lv_dropdown.c:692:44
	ldr	r0, [sp, #88]
	.loc	10 692 49                       @ lvgl/src/lv_widgets/lv_dropdown.c:692:49
	ldrb.w	r0, [r0, #50]
	and	r0, r0, #3
.Ltmp548:
	.loc	10 692 8                        @ lvgl/src/lv_widgets/lv_dropdown.c:692:8
	cmp	r0, #3
	bne	.LBB24_56
	b	.LBB24_53
.LBB24_53:
.Ltmp549:
	.loc	10 693 12 is_stmt 1             @ lvgl/src/lv_widgets/lv_dropdown.c:693:12
	ldr	r0, [sp, #88]
	.loc	10 693 17 is_stmt 0             @ lvgl/src/lv_widgets/lv_dropdown.c:693:17
	ldr	r0, [r0]
	.loc	10 693 30                       @ lvgl/src/lv_widgets/lv_dropdown.c:693:30
	ldrsh.w	r0, [r0, #22]
	.loc	10 693 35                       @ lvgl/src/lv_widgets/lv_dropdown.c:693:35
	str	r0, [sp, #28]                   @ 4-byte Spill
	bl	lv_disp_get_default
	bl	lv_disp_get_ver_res
	mov	r1, r0
.Ltmp550:
	.loc	10 693 12                       @ lvgl/src/lv_widgets/lv_dropdown.c:693:12
	ldr	r0, [sp, #28]                   @ 4-byte Reload
	cmp	r0, r1
	ble	.LBB24_55
	b	.LBB24_54
.LBB24_54:
.Ltmp551:
	.loc	10 694 26 is_stmt 1             @ lvgl/src/lv_widgets/lv_dropdown.c:694:26
	ldr	r0, [sp, #88]
	.loc	10 694 31 is_stmt 0             @ lvgl/src/lv_widgets/lv_dropdown.c:694:31
	ldr	r0, [r0]
	.loc	10 694 37                       @ lvgl/src/lv_widgets/lv_dropdown.c:694:37
	str	r0, [sp, #24]                   @ 4-byte Spill
	bl	lv_obj_get_y
	.loc	10 694 64                       @ lvgl/src/lv_widgets/lv_dropdown.c:694:64
	str	r0, [sp, #20]                   @ 4-byte Spill
	ldr	r0, [sp, #88]
	.loc	10 694 69                       @ lvgl/src/lv_widgets/lv_dropdown.c:694:69
	ldr	r0, [r0]
	.loc	10 694 64                       @ lvgl/src/lv_widgets/lv_dropdown.c:694:64
	ldrh	r0, [r0, #22]
	.loc	10 694 87                       @ lvgl/src/lv_widgets/lv_dropdown.c:694:87
	str	r0, [sp, #16]                   @ 4-byte Spill
	bl	lv_disp_get_default
	bl	lv_disp_get_ver_res
	ldr	r3, [sp, #16]                   @ 4-byte Reload
	ldr	r1, [sp, #20]                   @ 4-byte Reload
	mov	r2, r0
	.loc	10 694 61                       @ lvgl/src/lv_widgets/lv_dropdown.c:694:61
	ldr	r0, [sp, #24]                   @ 4-byte Reload
	subs	r2, r2, r3
	add	r1, r2
	.loc	10 694 13                       @ lvgl/src/lv_widgets/lv_dropdown.c:694:13
	sxth	r1, r1
	bl	lv_obj_set_y
	.loc	10 695 9 is_stmt 1              @ lvgl/src/lv_widgets/lv_dropdown.c:695:9
	b	.LBB24_55
.Ltmp552:
.LBB24_55:
	.loc	10 696 5                        @ lvgl/src/lv_widgets/lv_dropdown.c:696:5
	b	.LBB24_56
.Ltmp553:
.LBB24_56:
	.loc	10 698 27                       @ lvgl/src/lv_widgets/lv_dropdown.c:698:27
	ldr	r0, [sp, #80]
	.loc	10 698 8 is_stmt 0              @ lvgl/src/lv_widgets/lv_dropdown.c:698:8
	bl	lv_label_get_align
.Ltmp554:
	.loc	10 698 8                        @ lvgl/src/lv_widgets/lv_dropdown.c:698:8
	cmp	r0, #2
	bne	.LBB24_58
	b	.LBB24_57
.LBB24_57:
.Ltmp555:
	.loc	10 699 22 is_stmt 1             @ lvgl/src/lv_widgets/lv_dropdown.c:699:22
	ldr	r0, [sp, #80]
	.loc	10 699 50 is_stmt 0             @ lvgl/src/lv_widgets/lv_dropdown.c:699:50
	str	r0, [sp, #12]                   @ 4-byte Spill
	ldr	r0, [sp, #88]
	.loc	10 699 55                       @ lvgl/src/lv_widgets/lv_dropdown.c:699:55
	ldr	r0, [r0]
	.loc	10 699 29                       @ lvgl/src/lv_widgets/lv_dropdown.c:699:29
	bl	lv_obj_get_width_fit
	.loc	10 699 80                       @ lvgl/src/lv_widgets/lv_dropdown.c:699:80
	str	r0, [sp, #8]                    @ 4-byte Spill
	ldr	r0, [sp, #80]
	.loc	10 699 63                       @ lvgl/src/lv_widgets/lv_dropdown.c:699:63
	bl	lv_obj_get_width
	ldr	r1, [sp, #8]                    @ 4-byte Reload
	mov	r2, r0
	.loc	10 699 61                       @ lvgl/src/lv_widgets/lv_dropdown.c:699:61
	ldr	r0, [sp, #12]                   @ 4-byte Reload
	subs	r1, r1, r2
	.loc	10 699 9                        @ lvgl/src/lv_widgets/lv_dropdown.c:699:9
	sxth	r1, r1
	bl	lv_obj_set_x
	.loc	10 700 5 is_stmt 1              @ lvgl/src/lv_widgets/lv_dropdown.c:700:5
	b	.LBB24_58
.Ltmp556:
.LBB24_58:
	.loc	10 701 1                        @ lvgl/src/lv_widgets/lv_dropdown.c:701:1
	add	sp, #96
	pop	{r7, pc}
.Ltmp557:
.Lfunc_end24:
	.size	lv_dropdown_open, .Lfunc_end24-lv_dropdown_open
	.cfi_endproc
	.cantunwind
	.fnend
                                        @ -- End function
	.section	.text.lv_dropdown_page_design,"ax",%progbits
	.p2align	3                               @ -- Begin function lv_dropdown_page_design
	.type	lv_dropdown_page_design,%function
	.code	16                              @ @lv_dropdown_page_design
	.thumb_func
lv_dropdown_page_design:
.Lfunc_begin25:
	.loc	10 830 0                        @ lvgl/src/lv_widgets/lv_dropdown.c:830:0
	.fnstart
	.cfi_startproc
@ %bb.0:
	.save	{r7, lr}
	push	{r7, lr}
	.cfi_def_cfa_offset 8
	.cfi_offset lr, -4
	.cfi_offset r7, -8
	.pad	#64
	sub	sp, #64
	.cfi_def_cfa_offset 72
                                        @ kill: def $r3 killed $r2
	str	r0, [sp, #56]
	str	r1, [sp, #52]
	strb.w	r2, [sp, #51]
.Ltmp558:
	.loc	10 832 8 prologue_end           @ lvgl/src/lv_widgets/lv_dropdown.c:832:8
	ldrb.w	r0, [sp, #51]
.Ltmp559:
	.loc	10 832 8 is_stmt 0              @ lvgl/src/lv_widgets/lv_dropdown.c:832:8
	cmp	r0, #2
	bne	.LBB25_2
	b	.LBB25_1
.LBB25_1:
.Ltmp560:
	.loc	10 833 16 is_stmt 1             @ lvgl/src/lv_widgets/lv_dropdown.c:833:16
	movw	r0, :lower16:ancestor_page_design
	movt	r0, :upper16:ancestor_page_design
	ldr	r3, [r0]
	.loc	10 833 37 is_stmt 0             @ lvgl/src/lv_widgets/lv_dropdown.c:833:37
	ldr	r0, [sp, #56]
	.loc	10 833 43                       @ lvgl/src/lv_widgets/lv_dropdown.c:833:43
	ldr	r1, [sp, #52]
	.loc	10 833 54                       @ lvgl/src/lv_widgets/lv_dropdown.c:833:54
	ldrb.w	r2, [sp, #51]
	.loc	10 833 16                       @ lvgl/src/lv_widgets/lv_dropdown.c:833:16
	blx	r3
	.loc	10 833 9                        @ lvgl/src/lv_widgets/lv_dropdown.c:833:9
	strb.w	r0, [sp, #63]
	b	.LBB25_21
.Ltmp561:
.LBB25_2:
	.loc	10 836 13 is_stmt 1             @ lvgl/src/lv_widgets/lv_dropdown.c:836:13
	ldrb.w	r0, [sp, #51]
.Ltmp562:
	.loc	10 836 13 is_stmt 0             @ lvgl/src/lv_widgets/lv_dropdown.c:836:13
	cmp	r0, #0
	bne	.LBB25_10
	b	.LBB25_3
.LBB25_3:
.Ltmp563:
	.loc	10 837 9 is_stmt 1              @ lvgl/src/lv_widgets/lv_dropdown.c:837:9
	movw	r0, :lower16:ancestor_page_design
	movt	r0, :upper16:ancestor_page_design
	ldr	r3, [r0]
	.loc	10 837 30 is_stmt 0             @ lvgl/src/lv_widgets/lv_dropdown.c:837:30
	ldr	r0, [sp, #56]
	.loc	10 837 36                       @ lvgl/src/lv_widgets/lv_dropdown.c:837:36
	ldr	r1, [sp, #52]
	.loc	10 837 47                       @ lvgl/src/lv_widgets/lv_dropdown.c:837:47
	ldrb.w	r2, [sp, #51]
	.loc	10 837 9                        @ lvgl/src/lv_widgets/lv_dropdown.c:837:9
	blx	r3
	.loc	10 839 65 is_stmt 1             @ lvgl/src/lv_widgets/lv_dropdown.c:839:65
	ldr	r0, [sp, #56]
	.loc	10 839 45 is_stmt 0             @ lvgl/src/lv_widgets/lv_dropdown.c:839:45
	bl	lv_obj_get_ext_attr
	.loc	10 839 34                       @ lvgl/src/lv_widgets/lv_dropdown.c:839:34
	str	r0, [sp, #44]
	.loc	10 840 29 is_stmt 1             @ lvgl/src/lv_widgets/lv_dropdown.c:840:29
	ldr	r0, [sp, #44]
	.loc	10 840 39 is_stmt 0             @ lvgl/src/lv_widgets/lv_dropdown.c:840:39
	ldr	r0, [r0, #64]
	.loc	10 840 20                       @ lvgl/src/lv_widgets/lv_dropdown.c:840:20
	str	r0, [sp, #40]
	.loc	10 841 55 is_stmt 1             @ lvgl/src/lv_widgets/lv_dropdown.c:841:55
	ldr	r0, [sp, #40]
	.loc	10 841 35 is_stmt 0             @ lvgl/src/lv_widgets/lv_dropdown.c:841:35
	bl	lv_obj_get_ext_attr
	.loc	10 841 29                       @ lvgl/src/lv_widgets/lv_dropdown.c:841:29
	str	r0, [sp, #36]
.Ltmp564:
	.loc	10 844 12 is_stmt 1             @ lvgl/src/lv_widgets/lv_dropdown.c:844:12
	ldr	r0, [sp, #36]
	.loc	10 844 17 is_stmt 0             @ lvgl/src/lv_widgets/lv_dropdown.c:844:17
	ldr	r0, [r0]
.Ltmp565:
	.loc	10 844 12                       @ lvgl/src/lv_widgets/lv_dropdown.c:844:12
	cbz	r0, .LBB25_9
	b	.LBB25_4
.LBB25_4:
.Ltmp566:
	.loc	10 849 62 is_stmt 1             @ lvgl/src/lv_widgets/lv_dropdown.c:849:62
	ldr	r1, [sp, #52]
	.loc	10 849 74 is_stmt 0             @ lvgl/src/lv_widgets/lv_dropdown.c:849:74
	ldr	r0, [sp, #36]
	.loc	10 849 79                       @ lvgl/src/lv_widgets/lv_dropdown.c:849:79
	ldr	r0, [r0]
	.loc	10 849 85                       @ lvgl/src/lv_widgets/lv_dropdown.c:849:85
	add.w	r2, r0, #16
	add	r0, sp, #28
	.loc	10 849 26                       @ lvgl/src/lv_widgets/lv_dropdown.c:849:26
	bl	_lv_area_intersect
	.loc	10 849 24                       @ lvgl/src/lv_widgets/lv_dropdown.c:849:24
	strb.w	r0, [sp, #27]
.Ltmp567:
	.loc	10 850 16 is_stmt 1             @ lvgl/src/lv_widgets/lv_dropdown.c:850:16
	ldrb.w	r0, [sp, #27]
.Ltmp568:
	.loc	10 850 16 is_stmt 0             @ lvgl/src/lv_widgets/lv_dropdown.c:850:16
	lsls	r0, r0, #31
	cbz	r0, .LBB25_8
	b	.LBB25_5
.LBB25_5:
.Ltmp569:
	.loc	10 851 20 is_stmt 1             @ lvgl/src/lv_widgets/lv_dropdown.c:851:20
	ldr	r0, [sp, #36]
	.loc	10 851 25 is_stmt 0             @ lvgl/src/lv_widgets/lv_dropdown.c:851:25
	ldrh	r0, [r0, #48]
	movw	r1, #65535
.Ltmp570:
	.loc	10 851 20                       @ lvgl/src/lv_widgets/lv_dropdown.c:851:20
	cmp	r0, r1
	beq	.LBB25_7
	b	.LBB25_6
.LBB25_6:
.Ltmp571:
	.loc	10 852 30 is_stmt 1             @ lvgl/src/lv_widgets/lv_dropdown.c:852:30
	ldr	r0, [sp, #40]
	.loc	10 852 55 is_stmt 0             @ lvgl/src/lv_widgets/lv_dropdown.c:852:55
	ldr	r1, [sp, #36]
	.loc	10 852 60                       @ lvgl/src/lv_widgets/lv_dropdown.c:852:60
	ldrh	r2, [r1, #48]
	add	r1, sp, #28
	movs	r3, #16
	.loc	10 852 21                       @ lvgl/src/lv_widgets/lv_dropdown.c:852:21
	bl	draw_box
	.loc	10 853 17 is_stmt 1             @ lvgl/src/lv_widgets/lv_dropdown.c:853:17
	b	.LBB25_7
.Ltmp572:
.LBB25_7:
	.loc	10 855 26                       @ lvgl/src/lv_widgets/lv_dropdown.c:855:26
	ldr	r0, [sp, #40]
	.loc	10 855 51 is_stmt 0             @ lvgl/src/lv_widgets/lv_dropdown.c:855:51
	ldr	r1, [sp, #36]
	.loc	10 855 56                       @ lvgl/src/lv_widgets/lv_dropdown.c:855:56
	ldrh	r2, [r1, #44]
	add	r1, sp, #28
	movs	r3, #0
	.loc	10 855 17                       @ lvgl/src/lv_widgets/lv_dropdown.c:855:17
	bl	draw_box
	.loc	10 856 13 is_stmt 1             @ lvgl/src/lv_widgets/lv_dropdown.c:856:13
	b	.LBB25_8
.Ltmp573:
.LBB25_8:
	.loc	10 857 9                        @ lvgl/src/lv_widgets/lv_dropdown.c:857:9
	b	.LBB25_9
.Ltmp574:
.LBB25_9:
	.loc	10 858 5                        @ lvgl/src/lv_widgets/lv_dropdown.c:858:5
	b	.LBB25_19
.Ltmp575:
.LBB25_10:
	.loc	10 860 13                       @ lvgl/src/lv_widgets/lv_dropdown.c:860:13
	ldrb.w	r0, [sp, #51]
.Ltmp576:
	.loc	10 860 13 is_stmt 0             @ lvgl/src/lv_widgets/lv_dropdown.c:860:13
	cmp	r0, #1
	bne	.LBB25_18
	b	.LBB25_11
.LBB25_11:
.Ltmp577:
	.loc	10 862 9 is_stmt 1              @ lvgl/src/lv_widgets/lv_dropdown.c:862:9
	movw	r0, :lower16:ancestor_page_design
	movt	r0, :upper16:ancestor_page_design
	ldr	r3, [r0]
	.loc	10 862 30 is_stmt 0             @ lvgl/src/lv_widgets/lv_dropdown.c:862:30
	ldr	r0, [sp, #56]
	.loc	10 862 36                       @ lvgl/src/lv_widgets/lv_dropdown.c:862:36
	ldr	r1, [sp, #52]
	.loc	10 862 47                       @ lvgl/src/lv_widgets/lv_dropdown.c:862:47
	ldrb.w	r2, [sp, #51]
	.loc	10 862 9                        @ lvgl/src/lv_widgets/lv_dropdown.c:862:9
	blx	r3
	.loc	10 865 65 is_stmt 1             @ lvgl/src/lv_widgets/lv_dropdown.c:865:65
	ldr	r0, [sp, #56]
	.loc	10 865 45 is_stmt 0             @ lvgl/src/lv_widgets/lv_dropdown.c:865:45
	bl	lv_obj_get_ext_attr
	.loc	10 865 34                       @ lvgl/src/lv_widgets/lv_dropdown.c:865:34
	str	r0, [sp, #20]
	.loc	10 866 29 is_stmt 1             @ lvgl/src/lv_widgets/lv_dropdown.c:866:29
	ldr	r0, [sp, #20]
	.loc	10 866 39 is_stmt 0             @ lvgl/src/lv_widgets/lv_dropdown.c:866:39
	ldr	r0, [r0, #64]
	.loc	10 866 20                       @ lvgl/src/lv_widgets/lv_dropdown.c:866:20
	str	r0, [sp, #16]
	.loc	10 867 55 is_stmt 1             @ lvgl/src/lv_widgets/lv_dropdown.c:867:55
	ldr	r0, [sp, #16]
	.loc	10 867 35 is_stmt 0             @ lvgl/src/lv_widgets/lv_dropdown.c:867:35
	bl	lv_obj_get_ext_attr
	.loc	10 867 29                       @ lvgl/src/lv_widgets/lv_dropdown.c:867:29
	str	r0, [sp, #12]
.Ltmp578:
	.loc	10 870 12 is_stmt 1             @ lvgl/src/lv_widgets/lv_dropdown.c:870:12
	ldr	r0, [sp, #12]
	.loc	10 870 17 is_stmt 0             @ lvgl/src/lv_widgets/lv_dropdown.c:870:17
	ldr	r0, [r0]
.Ltmp579:
	.loc	10 870 12                       @ lvgl/src/lv_widgets/lv_dropdown.c:870:12
	cbz	r0, .LBB25_17
	b	.LBB25_12
.LBB25_12:
.Ltmp580:
	.loc	10 875 62 is_stmt 1             @ lvgl/src/lv_widgets/lv_dropdown.c:875:62
	ldr	r1, [sp, #52]
	.loc	10 875 74 is_stmt 0             @ lvgl/src/lv_widgets/lv_dropdown.c:875:74
	ldr	r0, [sp, #12]
	.loc	10 875 79                       @ lvgl/src/lv_widgets/lv_dropdown.c:875:79
	ldr	r0, [r0]
	.loc	10 875 85                       @ lvgl/src/lv_widgets/lv_dropdown.c:875:85
	add.w	r2, r0, #16
	add	r0, sp, #4
	.loc	10 875 26                       @ lvgl/src/lv_widgets/lv_dropdown.c:875:26
	bl	_lv_area_intersect
	.loc	10 875 24                       @ lvgl/src/lv_widgets/lv_dropdown.c:875:24
	strb.w	r0, [sp, #3]
.Ltmp581:
	.loc	10 876 16 is_stmt 1             @ lvgl/src/lv_widgets/lv_dropdown.c:876:16
	ldrb.w	r0, [sp, #3]
.Ltmp582:
	.loc	10 876 16 is_stmt 0             @ lvgl/src/lv_widgets/lv_dropdown.c:876:16
	lsls	r0, r0, #31
	cbz	r0, .LBB25_16
	b	.LBB25_13
.LBB25_13:
.Ltmp583:
	.loc	10 877 20 is_stmt 1             @ lvgl/src/lv_widgets/lv_dropdown.c:877:20
	ldr	r0, [sp, #12]
	.loc	10 877 25 is_stmt 0             @ lvgl/src/lv_widgets/lv_dropdown.c:877:25
	ldrh	r0, [r0, #48]
	movw	r1, #65535
.Ltmp584:
	.loc	10 877 20                       @ lvgl/src/lv_widgets/lv_dropdown.c:877:20
	cmp	r0, r1
	beq	.LBB25_15
	b	.LBB25_14
.LBB25_14:
.Ltmp585:
	.loc	10 878 36 is_stmt 1             @ lvgl/src/lv_widgets/lv_dropdown.c:878:36
	ldr	r0, [sp, #16]
	.loc	10 878 61 is_stmt 0             @ lvgl/src/lv_widgets/lv_dropdown.c:878:61
	ldr	r1, [sp, #12]
	.loc	10 878 66                       @ lvgl/src/lv_widgets/lv_dropdown.c:878:66
	ldrh	r2, [r1, #48]
	add	r1, sp, #4
	movs	r3, #16
	.loc	10 878 21                       @ lvgl/src/lv_widgets/lv_dropdown.c:878:21
	bl	draw_box_label
	.loc	10 879 17 is_stmt 1             @ lvgl/src/lv_widgets/lv_dropdown.c:879:17
	b	.LBB25_15
.Ltmp586:
.LBB25_15:
	.loc	10 881 32                       @ lvgl/src/lv_widgets/lv_dropdown.c:881:32
	ldr	r0, [sp, #16]
	.loc	10 881 57 is_stmt 0             @ lvgl/src/lv_widgets/lv_dropdown.c:881:57
	ldr	r1, [sp, #12]
	.loc	10 881 62                       @ lvgl/src/lv_widgets/lv_dropdown.c:881:62
	ldrh	r2, [r1, #44]
	add	r1, sp, #4
	movs	r3, #0
	.loc	10 881 17                       @ lvgl/src/lv_widgets/lv_dropdown.c:881:17
	bl	draw_box_label
	.loc	10 882 13 is_stmt 1             @ lvgl/src/lv_widgets/lv_dropdown.c:882:13
	b	.LBB25_16
.Ltmp587:
.LBB25_16:
	.loc	10 883 9                        @ lvgl/src/lv_widgets/lv_dropdown.c:883:9
	b	.LBB25_17
.Ltmp588:
.LBB25_17:
	.loc	10 884 5                        @ lvgl/src/lv_widgets/lv_dropdown.c:884:5
	b	.LBB25_18
.Ltmp589:
.LBB25_18:
	.loc	10 0 5 is_stmt 0                @ lvgl/src/lv_widgets/lv_dropdown.c:0:5
	b	.LBB25_19
.LBB25_19:
	b	.LBB25_20
.LBB25_20:
	movs	r0, #0
	.loc	10 886 5 is_stmt 1              @ lvgl/src/lv_widgets/lv_dropdown.c:886:5
	strb.w	r0, [sp, #63]
	b	.LBB25_21
.LBB25_21:
	.loc	10 887 1                        @ lvgl/src/lv_widgets/lv_dropdown.c:887:1
	ldrb.w	r0, [sp, #63]
	add	sp, #64
	pop	{r7, pc}
.Ltmp590:
.Lfunc_end25:
	.size	lv_dropdown_page_design, .Lfunc_end25-lv_dropdown_page_design
	.cfi_endproc
	.cantunwind
	.fnend
                                        @ -- End function
	.section	.text.lv_dropdown_page_signal,"ax",%progbits
	.p2align	3                               @ -- Begin function lv_dropdown_page_signal
	.type	lv_dropdown_page_signal,%function
	.code	16                              @ @lv_dropdown_page_signal
	.thumb_func
lv_dropdown_page_signal:
.Lfunc_begin26:
	.loc	10 1039 0                       @ lvgl/src/lv_widgets/lv_dropdown.c:1039:0
	.fnstart
	.cfi_startproc
@ %bb.0:
	.save	{r7, lr}
	push	{r7, lr}
	.cfi_def_cfa_offset 8
	.cfi_offset lr, -4
	.cfi_offset r7, -8
	.pad	#56
	sub	sp, #56
	.cfi_def_cfa_offset 64
                                        @ kill: def $r3 killed $r1
	str	r0, [sp, #48]
	strb.w	r1, [sp, #47]
	str	r2, [sp, #40]
.Ltmp591:
	.loc	10 1043 11 prologue_end         @ lvgl/src/lv_widgets/lv_dropdown.c:1043:11
	movw	r0, :lower16:ancestor_page_signal
	movt	r0, :upper16:ancestor_page_signal
	ldr	r3, [r0]
	.loc	10 1043 32 is_stmt 0            @ lvgl/src/lv_widgets/lv_dropdown.c:1043:32
	ldr	r0, [sp, #48]
	.loc	10 1043 38                      @ lvgl/src/lv_widgets/lv_dropdown.c:1043:38
	ldrb.w	r1, [sp, #47]
	.loc	10 1043 44                      @ lvgl/src/lv_widgets/lv_dropdown.c:1043:44
	ldr	r2, [sp, #40]
	.loc	10 1043 11                      @ lvgl/src/lv_widgets/lv_dropdown.c:1043:11
	blx	r3
	.loc	10 1043 9                       @ lvgl/src/lv_widgets/lv_dropdown.c:1043:9
	strb.w	r0, [sp, #39]
.Ltmp592:
	.loc	10 1044 8 is_stmt 1             @ lvgl/src/lv_widgets/lv_dropdown.c:1044:8
	ldrb.w	r0, [sp, #39]
.Ltmp593:
	.loc	10 1044 8 is_stmt 0             @ lvgl/src/lv_widgets/lv_dropdown.c:1044:8
	cmp	r0, #1
	beq	.LBB26_2
	b	.LBB26_1
.LBB26_1:
.Ltmp594:
	.loc	10 1044 33                      @ lvgl/src/lv_widgets/lv_dropdown.c:1044:33
	ldrb.w	r0, [sp, #39]
	.loc	10 1044 26                      @ lvgl/src/lv_widgets/lv_dropdown.c:1044:26
	strb.w	r0, [sp, #55]
	b	.LBB26_27
.Ltmp595:
.LBB26_2:
	.loc	10 1045 8 is_stmt 1             @ lvgl/src/lv_widgets/lv_dropdown.c:1045:8
	ldrb.w	r0, [sp, #47]
.Ltmp596:
	.loc	10 1045 8 is_stmt 0             @ lvgl/src/lv_widgets/lv_dropdown.c:1045:8
	cmp	r0, #7
	bne	.LBB26_4
	b	.LBB26_3
.LBB26_3:
.Ltmp597:
	.loc	10 1045 73                      @ lvgl/src/lv_widgets/lv_dropdown.c:1045:73
	ldr	r0, [sp, #40]
	.loc	10 1045 43                      @ lvgl/src/lv_widgets/lv_dropdown.c:1045:43
	movw	r1, :lower16:.L.str.7
	movt	r1, :upper16:.L.str.7
	bl	lv_obj_handle_get_type_signal
	.loc	10 1045 36                      @ lvgl/src/lv_widgets/lv_dropdown.c:1045:36
	strb.w	r0, [sp, #55]
	b	.LBB26_27
.Ltmp598:
.LBB26_4:
	.loc	10 1047 61 is_stmt 1            @ lvgl/src/lv_widgets/lv_dropdown.c:1047:61
	ldr	r0, [sp, #48]
	.loc	10 1047 41 is_stmt 0            @ lvgl/src/lv_widgets/lv_dropdown.c:1047:41
	bl	lv_obj_get_ext_attr
	.loc	10 1047 30                      @ lvgl/src/lv_widgets/lv_dropdown.c:1047:30
	str	r0, [sp, #32]
	.loc	10 1048 25 is_stmt 1            @ lvgl/src/lv_widgets/lv_dropdown.c:1048:25
	ldr	r0, [sp, #32]
	.loc	10 1048 35 is_stmt 0            @ lvgl/src/lv_widgets/lv_dropdown.c:1048:35
	ldr	r0, [r0, #64]
	.loc	10 1048 16                      @ lvgl/src/lv_widgets/lv_dropdown.c:1048:16
	str	r0, [sp, #28]
.Ltmp599:
	.loc	10 1050 8 is_stmt 1             @ lvgl/src/lv_widgets/lv_dropdown.c:1050:8
	ldrb.w	r0, [sp, #47]
.Ltmp600:
	.loc	10 1050 8 is_stmt 0             @ lvgl/src/lv_widgets/lv_dropdown.c:1050:8
	cmp	r0, #6
	bne	.LBB26_15
	b	.LBB26_5
.LBB26_5:
.Ltmp601:
	.loc	10 1054 57 is_stmt 1            @ lvgl/src/lv_widgets/lv_dropdown.c:1054:57
	ldr	r0, [sp, #28]
	movs	r1, #64
	.loc	10 1054 31 is_stmt 0            @ lvgl/src/lv_widgets/lv_dropdown.c:1054:31
	str	r1, [sp, #12]                   @ 4-byte Spill
	bl	lv_obj_get_style_pad_left
	ldr	r1, [sp, #12]                   @ 4-byte Reload
	.loc	10 1054 24                      @ lvgl/src/lv_widgets/lv_dropdown.c:1054:24
	strh.w	r0, [sp, #26]
	.loc	10 1055 59 is_stmt 1            @ lvgl/src/lv_widgets/lv_dropdown.c:1055:59
	ldr	r0, [sp, #28]
	.loc	10 1055 32 is_stmt 0            @ lvgl/src/lv_widgets/lv_dropdown.c:1055:32
	bl	lv_obj_get_style_pad_right
	.loc	10 1055 24                      @ lvgl/src/lv_widgets/lv_dropdown.c:1055:24
	strh.w	r0, [sp, #24]
	.loc	10 1056 50 is_stmt 1            @ lvgl/src/lv_widgets/lv_dropdown.c:1056:50
	ldr	r0, [sp, #48]
	.loc	10 1056 27 is_stmt 0            @ lvgl/src/lv_widgets/lv_dropdown.c:1056:27
	bl	lv_page_get_scrollable
	.loc	10 1056 20                      @ lvgl/src/lv_widgets/lv_dropdown.c:1056:20
	str	r0, [sp, #20]
	.loc	10 1057 30 is_stmt 1            @ lvgl/src/lv_widgets/lv_dropdown.c:1057:30
	ldr	r0, [sp, #20]
	ldrsh.w	r0, [r0, #50]
	ldrsh.w	r1, [sp, #26]
	cmp	r0, r1
	ble	.LBB26_7
	b	.LBB26_6
.LBB26_6:
	ldr	r0, [sp, #20]
	ldrsh.w	r0, [r0, #50]
	str	r0, [sp, #8]                    @ 4-byte Spill
	b	.LBB26_8
.LBB26_7:
	ldrsh.w	r0, [sp, #26]
	str	r0, [sp, #8]                    @ 4-byte Spill
	b	.LBB26_8
.LBB26_8:
	ldr	r0, [sp, #8]                    @ 4-byte Reload
	ldrsh.w	r1, [sp, #24]
	cmp	r0, r1
	ble	.LBB26_13
	b	.LBB26_9
.LBB26_9:
	ldr	r0, [sp, #20]
	ldrsh.w	r0, [r0, #50]
	ldrsh.w	r1, [sp, #26]
	cmp	r0, r1
	ble	.LBB26_11
	b	.LBB26_10
.LBB26_10:
	ldr	r0, [sp, #20]
	ldrsh.w	r0, [r0, #50]
	str	r0, [sp, #4]                    @ 4-byte Spill
	b	.LBB26_12
.LBB26_11:
	ldrsh.w	r0, [sp, #26]
	str	r0, [sp, #4]                    @ 4-byte Spill
	b	.LBB26_12
.LBB26_12:
	ldr	r0, [sp, #4]                    @ 4-byte Reload
	str	r0, [sp]                        @ 4-byte Spill
	b	.LBB26_14
.LBB26_13:
	ldrsh.w	r0, [sp, #24]
	str	r0, [sp]                        @ 4-byte Spill
	b	.LBB26_14
.LBB26_14:
	ldr	r0, [sp]                        @ 4-byte Reload
	.loc	10 1057 9 is_stmt 0             @ lvgl/src/lv_widgets/lv_dropdown.c:1057:9
	ldr	r1, [sp, #20]
	.loc	10 1057 28                      @ lvgl/src/lv_widgets/lv_dropdown.c:1057:28
	strh	r0, [r1, #50]
	.loc	10 1058 5 is_stmt 1             @ lvgl/src/lv_widgets/lv_dropdown.c:1058:5
	b	.LBB26_26
.Ltmp602:
.LBB26_15:
	.loc	10 1059 13                      @ lvgl/src/lv_widgets/lv_dropdown.c:1059:13
	ldrb.w	r0, [sp, #47]
.Ltmp603:
	.loc	10 1059 13 is_stmt 0            @ lvgl/src/lv_widgets/lv_dropdown.c:1059:13
	cmp	r0, #14
	bne	.LBB26_19
	b	.LBB26_16
.LBB26_16:
.Ltmp604:
	.loc	10 1060 33 is_stmt 1            @ lvgl/src/lv_widgets/lv_dropdown.c:1060:33
	bl	lv_indev_get_act
	.loc	10 1060 12 is_stmt 0            @ lvgl/src/lv_widgets/lv_dropdown.c:1060:12
	bl	lv_indev_is_dragging
.Ltmp605:
	.loc	10 1060 12                      @ lvgl/src/lv_widgets/lv_dropdown.c:1060:12
	cbnz	r0, .LBB26_18
	b	.LBB26_17
.LBB26_17:
.Ltmp606:
	.loc	10 1061 34 is_stmt 1            @ lvgl/src/lv_widgets/lv_dropdown.c:1061:34
	ldr	r0, [sp, #48]
	.loc	10 1061 13 is_stmt 0            @ lvgl/src/lv_widgets/lv_dropdown.c:1061:13
	bl	page_release_handler
	.loc	10 1062 9 is_stmt 1             @ lvgl/src/lv_widgets/lv_dropdown.c:1062:9
	b	.LBB26_18
.Ltmp607:
.LBB26_18:
	.loc	10 1063 5                       @ lvgl/src/lv_widgets/lv_dropdown.c:1063:5
	b	.LBB26_25
.Ltmp608:
.LBB26_19:
	.loc	10 1064 13                      @ lvgl/src/lv_widgets/lv_dropdown.c:1064:13
	ldrb.w	r0, [sp, #47]
.Ltmp609:
	.loc	10 1064 13 is_stmt 0            @ lvgl/src/lv_widgets/lv_dropdown.c:1064:13
	cmp	r0, #11
	bne	.LBB26_21
	b	.LBB26_20
.LBB26_20:
.Ltmp610:
	.loc	10 1065 28 is_stmt 1            @ lvgl/src/lv_widgets/lv_dropdown.c:1065:28
	ldr	r0, [sp, #48]
	.loc	10 1065 9 is_stmt 0             @ lvgl/src/lv_widgets/lv_dropdown.c:1065:9
	bl	page_press_handler
	.loc	10 1066 5 is_stmt 1             @ lvgl/src/lv_widgets/lv_dropdown.c:1066:5
	b	.LBB26_24
.Ltmp611:
.LBB26_21:
	.loc	10 1067 13                      @ lvgl/src/lv_widgets/lv_dropdown.c:1067:13
	ldrb.w	r0, [sp, #47]
.Ltmp612:
	.loc	10 1067 13 is_stmt 0            @ lvgl/src/lv_widgets/lv_dropdown.c:1067:13
	cbnz	r0, .LBB26_23
	b	.LBB26_22
.LBB26_22:
.Ltmp613:
	.loc	10 1068 55 is_stmt 1            @ lvgl/src/lv_widgets/lv_dropdown.c:1068:55
	ldr	r0, [sp, #28]
	.loc	10 1068 35 is_stmt 0            @ lvgl/src/lv_widgets/lv_dropdown.c:1068:35
	bl	lv_obj_get_ext_attr
	.loc	10 1068 29                      @ lvgl/src/lv_widgets/lv_dropdown.c:1068:29
	str	r0, [sp, #16]
	.loc	10 1069 9 is_stmt 1             @ lvgl/src/lv_widgets/lv_dropdown.c:1069:9
	ldr	r1, [sp, #16]
	movs	r0, #0
	.loc	10 1069 20 is_stmt 0            @ lvgl/src/lv_widgets/lv_dropdown.c:1069:20
	str	r0, [r1]
	.loc	10 1070 5 is_stmt 1             @ lvgl/src/lv_widgets/lv_dropdown.c:1070:5
	b	.LBB26_23
.Ltmp614:
.LBB26_23:
	.loc	10 0 5 is_stmt 0                @ lvgl/src/lv_widgets/lv_dropdown.c:0:5
	b	.LBB26_24
.LBB26_24:
	b	.LBB26_25
.LBB26_25:
	b	.LBB26_26
.LBB26_26:
	.loc	10 1072 12 is_stmt 1            @ lvgl/src/lv_widgets/lv_dropdown.c:1072:12
	ldrb.w	r0, [sp, #39]
	.loc	10 1072 5 is_stmt 0             @ lvgl/src/lv_widgets/lv_dropdown.c:1072:5
	strb.w	r0, [sp, #55]
	b	.LBB26_27
.LBB26_27:
	.loc	10 1073 1 is_stmt 1             @ lvgl/src/lv_widgets/lv_dropdown.c:1073:1
	ldrb.w	r0, [sp, #55]
	add	sp, #56
	pop	{r7, pc}
.Ltmp615:
.Lfunc_end26:
	.size	lv_dropdown_page_signal, .Lfunc_end26-lv_dropdown_page_signal
	.cfi_endproc
	.cantunwind
	.fnend
                                        @ -- End function
	.section	.text.lv_dropdown_page_scrl_signal,"ax",%progbits
	.p2align	3                               @ -- Begin function lv_dropdown_page_scrl_signal
	.type	lv_dropdown_page_scrl_signal,%function
	.code	16                              @ @lv_dropdown_page_scrl_signal
	.thumb_func
lv_dropdown_page_scrl_signal:
.Lfunc_begin27:
	.loc	10 1083 0                       @ lvgl/src/lv_widgets/lv_dropdown.c:1083:0
	.fnstart
	.cfi_startproc
@ %bb.0:
	.save	{r7, lr}
	push	{r7, lr}
	.cfi_def_cfa_offset 8
	.cfi_offset lr, -4
	.cfi_offset r7, -8
	.pad	#56
	sub	sp, #56
	.cfi_def_cfa_offset 64
                                        @ kill: def $r3 killed $r1
	str	r0, [sp, #48]
	strb.w	r1, [sp, #47]
	str	r2, [sp, #40]
.Ltmp616:
	.loc	10 1087 11 prologue_end         @ lvgl/src/lv_widgets/lv_dropdown.c:1087:11
	movw	r0, :lower16:ancestor_page_scrl_signal
	movt	r0, :upper16:ancestor_page_scrl_signal
	ldr	r3, [r0]
	.loc	10 1087 37 is_stmt 0            @ lvgl/src/lv_widgets/lv_dropdown.c:1087:37
	ldr	r0, [sp, #48]
	.loc	10 1087 43                      @ lvgl/src/lv_widgets/lv_dropdown.c:1087:43
	ldrb.w	r1, [sp, #47]
	.loc	10 1087 49                      @ lvgl/src/lv_widgets/lv_dropdown.c:1087:49
	ldr	r2, [sp, #40]
	.loc	10 1087 11                      @ lvgl/src/lv_widgets/lv_dropdown.c:1087:11
	blx	r3
	.loc	10 1087 9                       @ lvgl/src/lv_widgets/lv_dropdown.c:1087:9
	strb.w	r0, [sp, #39]
.Ltmp617:
	.loc	10 1088 8 is_stmt 1             @ lvgl/src/lv_widgets/lv_dropdown.c:1088:8
	ldrb.w	r0, [sp, #39]
.Ltmp618:
	.loc	10 1088 8 is_stmt 0             @ lvgl/src/lv_widgets/lv_dropdown.c:1088:8
	cmp	r0, #1
	beq	.LBB27_2
	b	.LBB27_1
.LBB27_1:
.Ltmp619:
	.loc	10 1088 33                      @ lvgl/src/lv_widgets/lv_dropdown.c:1088:33
	ldrb.w	r0, [sp, #39]
	.loc	10 1088 26                      @ lvgl/src/lv_widgets/lv_dropdown.c:1088:26
	strb.w	r0, [sp, #55]
	b	.LBB27_27
.Ltmp620:
.LBB27_2:
	.loc	10 1089 8 is_stmt 1             @ lvgl/src/lv_widgets/lv_dropdown.c:1089:8
	ldrb.w	r0, [sp, #47]
.Ltmp621:
	.loc	10 1089 8 is_stmt 0             @ lvgl/src/lv_widgets/lv_dropdown.c:1089:8
	cmp	r0, #7
	bne	.LBB27_4
	b	.LBB27_3
.LBB27_3:
.Ltmp622:
	.loc	10 1089 73                      @ lvgl/src/lv_widgets/lv_dropdown.c:1089:73
	ldr	r0, [sp, #40]
	.loc	10 1089 43                      @ lvgl/src/lv_widgets/lv_dropdown.c:1089:43
	movw	r1, :lower16:.L.str.7
	movt	r1, :upper16:.L.str.7
	bl	lv_obj_handle_get_type_signal
	.loc	10 1089 36                      @ lvgl/src/lv_widgets/lv_dropdown.c:1089:36
	strb.w	r0, [sp, #55]
	b	.LBB27_27
.Ltmp623:
.LBB27_4:
	.loc	10 1091 41 is_stmt 1            @ lvgl/src/lv_widgets/lv_dropdown.c:1091:41
	ldr	r0, [sp, #48]
	.loc	10 1091 23 is_stmt 0            @ lvgl/src/lv_widgets/lv_dropdown.c:1091:23
	bl	lv_obj_get_parent
	.loc	10 1091 16                      @ lvgl/src/lv_widgets/lv_dropdown.c:1091:16
	str	r0, [sp, #32]
	.loc	10 1092 61 is_stmt 1            @ lvgl/src/lv_widgets/lv_dropdown.c:1092:61
	ldr	r0, [sp, #32]
	.loc	10 1092 41 is_stmt 0            @ lvgl/src/lv_widgets/lv_dropdown.c:1092:41
	bl	lv_obj_get_ext_attr
	.loc	10 1092 30                      @ lvgl/src/lv_widgets/lv_dropdown.c:1092:30
	str	r0, [sp, #28]
	.loc	10 1093 25 is_stmt 1            @ lvgl/src/lv_widgets/lv_dropdown.c:1093:25
	ldr	r0, [sp, #28]
	.loc	10 1093 35 is_stmt 0            @ lvgl/src/lv_widgets/lv_dropdown.c:1093:35
	ldr	r0, [r0, #64]
	.loc	10 1093 16                      @ lvgl/src/lv_widgets/lv_dropdown.c:1093:16
	str	r0, [sp, #24]
	.loc	10 1094 51 is_stmt 1            @ lvgl/src/lv_widgets/lv_dropdown.c:1094:51
	ldr	r0, [sp, #24]
	.loc	10 1094 31 is_stmt 0            @ lvgl/src/lv_widgets/lv_dropdown.c:1094:31
	bl	lv_obj_get_ext_attr
	.loc	10 1094 25                      @ lvgl/src/lv_widgets/lv_dropdown.c:1094:25
	str	r0, [sp, #20]
.Ltmp624:
	.loc	10 1096 8 is_stmt 1             @ lvgl/src/lv_widgets/lv_dropdown.c:1096:8
	ldrb.w	r0, [sp, #47]
.Ltmp625:
	.loc	10 1096 8 is_stmt 0             @ lvgl/src/lv_widgets/lv_dropdown.c:1096:8
	cmp	r0, #14
	bne	.LBB27_8
	b	.LBB27_5
.LBB27_5:
.Ltmp626:
	.loc	10 1097 33 is_stmt 1            @ lvgl/src/lv_widgets/lv_dropdown.c:1097:33
	bl	lv_indev_get_act
	.loc	10 1097 12 is_stmt 0            @ lvgl/src/lv_widgets/lv_dropdown.c:1097:12
	bl	lv_indev_is_dragging
.Ltmp627:
	.loc	10 1097 12                      @ lvgl/src/lv_widgets/lv_dropdown.c:1097:12
	cbnz	r0, .LBB27_7
	b	.LBB27_6
.LBB27_6:
.Ltmp628:
	.loc	10 1098 34 is_stmt 1            @ lvgl/src/lv_widgets/lv_dropdown.c:1098:34
	ldr	r0, [sp, #32]
	.loc	10 1098 13 is_stmt 0            @ lvgl/src/lv_widgets/lv_dropdown.c:1098:13
	bl	page_release_handler
	.loc	10 1099 9 is_stmt 1             @ lvgl/src/lv_widgets/lv_dropdown.c:1099:9
	b	.LBB27_7
.Ltmp629:
.LBB27_7:
	.loc	10 1100 5                       @ lvgl/src/lv_widgets/lv_dropdown.c:1100:5
	b	.LBB27_26
.Ltmp630:
.LBB27_8:
	.loc	10 1101 13                      @ lvgl/src/lv_widgets/lv_dropdown.c:1101:13
	ldrb.w	r0, [sp, #47]
.Ltmp631:
	.loc	10 1101 13 is_stmt 0            @ lvgl/src/lv_widgets/lv_dropdown.c:1101:13
	cmp	r0, #11
	bne	.LBB27_10
	b	.LBB27_9
.LBB27_9:
.Ltmp632:
	.loc	10 1102 28 is_stmt 1            @ lvgl/src/lv_widgets/lv_dropdown.c:1102:28
	ldr	r0, [sp, #32]
	.loc	10 1102 9 is_stmt 0             @ lvgl/src/lv_widgets/lv_dropdown.c:1102:9
	bl	page_press_handler
	.loc	10 1103 5 is_stmt 1             @ lvgl/src/lv_widgets/lv_dropdown.c:1103:5
	b	.LBB27_25
.Ltmp633:
.LBB27_10:
	.loc	10 1104 13                      @ lvgl/src/lv_widgets/lv_dropdown.c:1104:13
	ldrb.w	r0, [sp, #47]
.Ltmp634:
	.loc	10 1104 13 is_stmt 0            @ lvgl/src/lv_widgets/lv_dropdown.c:1104:13
	cmp	r0, #17
	bne	.LBB27_12
	b	.LBB27_11
.LBB27_11:
.Ltmp635:
	.loc	10 1105 9 is_stmt 1             @ lvgl/src/lv_widgets/lv_dropdown.c:1105:9
	ldr	r1, [sp, #20]
	movw	r0, #65535
	.loc	10 1105 24 is_stmt 0            @ lvgl/src/lv_widgets/lv_dropdown.c:1105:24
	strh	r0, [r1, #48]
	.loc	10 1106 27 is_stmt 1            @ lvgl/src/lv_widgets/lv_dropdown.c:1106:27
	ldr	r0, [sp, #32]
	.loc	10 1106 9 is_stmt 0             @ lvgl/src/lv_widgets/lv_dropdown.c:1106:9
	bl	lv_obj_invalidate
	.loc	10 1107 5 is_stmt 1             @ lvgl/src/lv_widgets/lv_dropdown.c:1107:5
	b	.LBB27_24
.Ltmp636:
.LBB27_12:
	.loc	10 1108 13                      @ lvgl/src/lv_widgets/lv_dropdown.c:1108:13
	ldrb.w	r0, [sp, #47]
.Ltmp637:
	.loc	10 1108 13 is_stmt 0            @ lvgl/src/lv_widgets/lv_dropdown.c:1108:13
	cmp	r0, #6
	bne	.LBB27_23
	b	.LBB27_13
.LBB27_13:
.Ltmp638:
	.loc	10 1112 57 is_stmt 1            @ lvgl/src/lv_widgets/lv_dropdown.c:1112:57
	ldr	r0, [sp, #24]
	movs	r1, #64
	.loc	10 1112 31 is_stmt 0            @ lvgl/src/lv_widgets/lv_dropdown.c:1112:31
	str	r1, [sp, #12]                   @ 4-byte Spill
	bl	lv_obj_get_style_pad_left
	ldr	r1, [sp, #12]                   @ 4-byte Reload
	.loc	10 1112 24                      @ lvgl/src/lv_widgets/lv_dropdown.c:1112:24
	strh.w	r0, [sp, #18]
	.loc	10 1113 59 is_stmt 1            @ lvgl/src/lv_widgets/lv_dropdown.c:1113:59
	ldr	r0, [sp, #24]
	.loc	10 1113 32 is_stmt 0            @ lvgl/src/lv_widgets/lv_dropdown.c:1113:32
	bl	lv_obj_get_style_pad_right
	.loc	10 1113 24                      @ lvgl/src/lv_widgets/lv_dropdown.c:1113:24
	strh.w	r0, [sp, #16]
	.loc	10 1114 30 is_stmt 1            @ lvgl/src/lv_widgets/lv_dropdown.c:1114:30
	ldr	r0, [sp, #48]
	ldrsh.w	r0, [r0, #50]
	ldrsh.w	r1, [sp, #18]
	cmp	r0, r1
	ble	.LBB27_15
	b	.LBB27_14
.LBB27_14:
	ldr	r0, [sp, #48]
	ldrsh.w	r0, [r0, #50]
	str	r0, [sp, #8]                    @ 4-byte Spill
	b	.LBB27_16
.LBB27_15:
	ldrsh.w	r0, [sp, #18]
	str	r0, [sp, #8]                    @ 4-byte Spill
	b	.LBB27_16
.LBB27_16:
	ldr	r0, [sp, #8]                    @ 4-byte Reload
	ldrsh.w	r1, [sp, #16]
	cmp	r0, r1
	ble	.LBB27_21
	b	.LBB27_17
.LBB27_17:
	ldr	r0, [sp, #48]
	ldrsh.w	r0, [r0, #50]
	ldrsh.w	r1, [sp, #18]
	cmp	r0, r1
	ble	.LBB27_19
	b	.LBB27_18
.LBB27_18:
	ldr	r0, [sp, #48]
	ldrsh.w	r0, [r0, #50]
	str	r0, [sp, #4]                    @ 4-byte Spill
	b	.LBB27_20
.LBB27_19:
	ldrsh.w	r0, [sp, #18]
	str	r0, [sp, #4]                    @ 4-byte Spill
	b	.LBB27_20
.LBB27_20:
	ldr	r0, [sp, #4]                    @ 4-byte Reload
	str	r0, [sp]                        @ 4-byte Spill
	b	.LBB27_22
.LBB27_21:
	ldrsh.w	r0, [sp, #16]
	str	r0, [sp]                        @ 4-byte Spill
	b	.LBB27_22
.LBB27_22:
	ldr	r0, [sp]                        @ 4-byte Reload
	.loc	10 1114 9 is_stmt 0             @ lvgl/src/lv_widgets/lv_dropdown.c:1114:9
	ldr	r1, [sp, #48]
	.loc	10 1114 28                      @ lvgl/src/lv_widgets/lv_dropdown.c:1114:28
	strh	r0, [r1, #50]
	.loc	10 1115 5 is_stmt 1             @ lvgl/src/lv_widgets/lv_dropdown.c:1115:5
	b	.LBB27_23
.Ltmp639:
.LBB27_23:
	.loc	10 0 5 is_stmt 0                @ lvgl/src/lv_widgets/lv_dropdown.c:0:5
	b	.LBB27_24
.LBB27_24:
	b	.LBB27_25
.LBB27_25:
	b	.LBB27_26
.LBB27_26:
	.loc	10 1117 12 is_stmt 1            @ lvgl/src/lv_widgets/lv_dropdown.c:1117:12
	ldrb.w	r0, [sp, #39]
	.loc	10 1117 5 is_stmt 0             @ lvgl/src/lv_widgets/lv_dropdown.c:1117:5
	strb.w	r0, [sp, #55]
	b	.LBB27_27
.LBB27_27:
	.loc	10 1118 1 is_stmt 1             @ lvgl/src/lv_widgets/lv_dropdown.c:1118:1
	ldrb.w	r0, [sp, #55]
	add	sp, #56
	pop	{r7, pc}
.Ltmp640:
.Lfunc_end27:
	.size	lv_dropdown_page_scrl_signal, .Lfunc_end27-lv_dropdown_page_scrl_signal
	.cfi_endproc
	.cantunwind
	.fnend
                                        @ -- End function
	.section	.text.lv_obj_get_style_pad_top,"ax",%progbits
	.p2align	3                               @ -- Begin function lv_obj_get_style_pad_top
	.type	lv_obj_get_style_pad_top,%function
	.code	16                              @ @lv_obj_get_style_pad_top
	.thumb_func
lv_obj_get_style_pad_top:
.Lfunc_begin28:
	.file	18 "E:\\STM32\\Learning\\STM32H750_ART_PI_RGBLCD" "lvgl/src/lv_widgets/../lv_core/lv_obj_style_dec.h"
	.loc	18 100 0                        @ lvgl/src/lv_widgets/../lv_core/lv_obj_style_dec.h:100:0
	.fnstart
	.cfi_startproc
@ %bb.0:
	.save	{r7, lr}
	push	{r7, lr}
	.cfi_def_cfa_offset 8
	.cfi_offset lr, -4
	.cfi_offset r7, -8
	.pad	#8
	sub	sp, #8
	.cfi_def_cfa_offset 16
                                        @ kill: def $r2 killed $r1
	str	r0, [sp, #4]
	strb.w	r1, [sp, #3]
.Ltmp641:
	.loc	18 100 1 prologue_end           @ lvgl/src/lv_widgets/../lv_core/lv_obj_style_dec.h:100:1
	ldr	r0, [sp, #4]
	ldrb.w	r1, [sp, #3]
	movs	r2, #16
	bl	_lv_obj_get_style_int
	add	sp, #8
	pop	{r7, pc}
.Ltmp642:
.Lfunc_end28:
	.size	lv_obj_get_style_pad_top, .Lfunc_end28-lv_obj_get_style_pad_top
	.cfi_endproc
	.cantunwind
	.fnend
                                        @ -- End function
	.section	.text.lv_obj_get_style_pad_bottom,"ax",%progbits
	.p2align	3                               @ -- Begin function lv_obj_get_style_pad_bottom
	.type	lv_obj_get_style_pad_bottom,%function
	.code	16                              @ @lv_obj_get_style_pad_bottom
	.thumb_func
lv_obj_get_style_pad_bottom:
.Lfunc_begin29:
	.loc	18 101 0                        @ lvgl/src/lv_widgets/../lv_core/lv_obj_style_dec.h:101:0
	.fnstart
	.cfi_startproc
@ %bb.0:
	.save	{r7, lr}
	push	{r7, lr}
	.cfi_def_cfa_offset 8
	.cfi_offset lr, -4
	.cfi_offset r7, -8
	.pad	#8
	sub	sp, #8
	.cfi_def_cfa_offset 16
                                        @ kill: def $r2 killed $r1
	str	r0, [sp, #4]
	strb.w	r1, [sp, #3]
.Ltmp643:
	.loc	18 101 1 prologue_end           @ lvgl/src/lv_widgets/../lv_core/lv_obj_style_dec.h:101:1
	ldr	r0, [sp, #4]
	ldrb.w	r1, [sp, #3]
	movs	r2, #17
	bl	_lv_obj_get_style_int
	add	sp, #8
	pop	{r7, pc}
.Ltmp644:
.Lfunc_end29:
	.size	lv_obj_get_style_pad_bottom, .Lfunc_end29-lv_obj_get_style_pad_bottom
	.cfi_endproc
	.cantunwind
	.fnend
                                        @ -- End function
	.section	.text.position_to_selected,"ax",%progbits
	.p2align	3                               @ -- Begin function position_to_selected
	.type	position_to_selected,%function
	.code	16                              @ @position_to_selected
	.thumb_func
position_to_selected:
.Lfunc_begin30:
	.loc	10 1321 0                       @ lvgl/src/lv_widgets/lv_dropdown.c:1321:0
	.fnstart
	.cfi_startproc
@ %bb.0:
	.save	{r7, lr}
	push	{r7, lr}
	.cfi_def_cfa_offset 8
	.cfi_offset lr, -4
	.cfi_offset r7, -8
	.pad	#32
	sub	sp, #32
	.cfi_def_cfa_offset 40
	str	r0, [sp, #28]
.Ltmp645:
	.loc	10 1322 60 prologue_end         @ lvgl/src/lv_widgets/lv_dropdown.c:1322:60
	ldr	r0, [sp, #28]
	.loc	10 1322 40 is_stmt 0            @ lvgl/src/lv_widgets/lv_dropdown.c:1322:40
	bl	lv_obj_get_ext_attr
	.loc	10 1322 25                      @ lvgl/src/lv_widgets/lv_dropdown.c:1322:25
	str	r0, [sp, #24]
	.loc	10 1324 65 is_stmt 1            @ lvgl/src/lv_widgets/lv_dropdown.c:1324:65
	ldr	r0, [sp, #28]
	movs	r1, #64
	.loc	10 1324 38 is_stmt 0            @ lvgl/src/lv_widgets/lv_dropdown.c:1324:38
	bl	lv_obj_get_style_text_font
	.loc	10 1324 23                      @ lvgl/src/lv_widgets/lv_dropdown.c:1324:23
	str	r0, [sp, #20]
	.loc	10 1325 62 is_stmt 1            @ lvgl/src/lv_widgets/lv_dropdown.c:1325:62
	ldr	r0, [sp, #20]
	.loc	10 1325 38 is_stmt 0            @ lvgl/src/lv_widgets/lv_dropdown.c:1325:38
	bl	lv_font_get_line_height
	.loc	10 1325 16                      @ lvgl/src/lv_widgets/lv_dropdown.c:1325:16
	strh.w	r0, [sp, #18]
	.loc	10 1326 61 is_stmt 1            @ lvgl/src/lv_widgets/lv_dropdown.c:1326:61
	ldr	r0, [sp, #24]
	.loc	10 1326 66 is_stmt 0            @ lvgl/src/lv_widgets/lv_dropdown.c:1326:66
	ldr	r0, [r0]
	.loc	10 1326 38                      @ lvgl/src/lv_widgets/lv_dropdown.c:1326:38
	bl	lv_page_get_scrollable
	.loc	10 1326 16                      @ lvgl/src/lv_widgets/lv_dropdown.c:1326:16
	str	r0, [sp, #12]
	.loc	10 1327 34 is_stmt 1            @ lvgl/src/lv_widgets/lv_dropdown.c:1327:34
	ldr	r0, [sp, #28]
	.loc	10 1327 24 is_stmt 0            @ lvgl/src/lv_widgets/lv_dropdown.c:1327:24
	bl	get_label
	.loc	10 1327 16                      @ lvgl/src/lv_widgets/lv_dropdown.c:1327:16
	str	r0, [sp, #8]
.Ltmp646:
	.loc	10 1328 8 is_stmt 1             @ lvgl/src/lv_widgets/lv_dropdown.c:1328:8
	ldr	r0, [sp, #8]
.Ltmp647:
	.loc	10 1328 8 is_stmt 0             @ lvgl/src/lv_widgets/lv_dropdown.c:1328:8
	cbnz	r0, .LBB30_2
	b	.LBB30_1
.LBB30_1:
.Ltmp648:
	.loc	10 1328 23                      @ lvgl/src/lv_widgets/lv_dropdown.c:1328:23
	b	.LBB30_3
.Ltmp649:
.LBB30_2:
	.loc	10 1330 38 is_stmt 1            @ lvgl/src/lv_widgets/lv_dropdown.c:1330:38
	ldr	r0, [sp, #24]
	.loc	10 1330 43 is_stmt 0            @ lvgl/src/lv_widgets/lv_dropdown.c:1330:43
	ldr	r0, [r0]
	.loc	10 1330 20                      @ lvgl/src/lv_widgets/lv_dropdown.c:1330:20
	bl	lv_obj_get_height
	.loc	10 1330 16                      @ lvgl/src/lv_widgets/lv_dropdown.c:1330:16
	strh.w	r0, [sp, #6]
	.loc	10 1331 66 is_stmt 1            @ lvgl/src/lv_widgets/lv_dropdown.c:1331:66
	ldr	r0, [sp, #28]
	movs	r1, #64
	.loc	10 1331 33 is_stmt 0            @ lvgl/src/lv_widgets/lv_dropdown.c:1331:33
	bl	lv_obj_get_style_text_line_space
	.loc	10 1331 20                      @ lvgl/src/lv_widgets/lv_dropdown.c:1331:20
	strh.w	r0, [sp, #4]
	.loc	10 1333 26 is_stmt 1            @ lvgl/src/lv_widgets/lv_dropdown.c:1333:26
	ldr	r0, [sp, #24]
	ldrh	r0, [r0, #44]
	.loc	10 1333 45 is_stmt 0            @ lvgl/src/lv_widgets/lv_dropdown.c:1333:45
	ldrh.w	r1, [sp, #18]
	.loc	10 1333 54                      @ lvgl/src/lv_widgets/lv_dropdown.c:1333:54
	ldrh.w	r2, [sp, #4]
	.loc	10 1333 52                      @ lvgl/src/lv_widgets/lv_dropdown.c:1333:52
	add	r1, r2
	.loc	10 1333 68                      @ lvgl/src/lv_widgets/lv_dropdown.c:1333:68
	ldr	r2, [sp, #8]
	ldrh	r2, [r2, #18]
	.loc	10 1333 66                      @ lvgl/src/lv_widgets/lv_dropdown.c:1333:66
	mla	r0, r0, r1, r2
	.loc	10 1333 87                      @ lvgl/src/lv_widgets/lv_dropdown.c:1333:87
	ldr	r1, [sp, #12]
	ldrh	r1, [r1, #18]
	.loc	10 1333 85                      @ lvgl/src/lv_widgets/lv_dropdown.c:1333:85
	subs	r0, r0, r1
	.loc	10 1333 16                      @ lvgl/src/lv_widgets/lv_dropdown.c:1333:16
	strh.w	r0, [sp, #2]
	.loc	10 1335 18 is_stmt 1            @ lvgl/src/lv_widgets/lv_dropdown.c:1335:18
	ldr	r0, [sp, #12]
	.loc	10 1335 25 is_stmt 0            @ lvgl/src/lv_widgets/lv_dropdown.c:1335:25
	ldrh.w	r1, [sp, #2]
	.loc	10 1335 36                      @ lvgl/src/lv_widgets/lv_dropdown.c:1335:36
	ldrsh.w	r2, [sp, #6]
	.loc	10 1335 40                      @ lvgl/src/lv_widgets/lv_dropdown.c:1335:40
	ldrsh.w	r3, [sp, #18]
	.loc	10 1335 38                      @ lvgl/src/lv_widgets/lv_dropdown.c:1335:38
	subs	r2, r2, r3
	.loc	10 1335 48                      @ lvgl/src/lv_widgets/lv_dropdown.c:1335:48
	add.w	r2, r2, r2, lsr #31
	.loc	10 1335 33                      @ lvgl/src/lv_widgets/lv_dropdown.c:1335:33
	rsb	r1, r1, r2, lsr #1
	.loc	10 1335 5                       @ lvgl/src/lv_widgets/lv_dropdown.c:1335:5
	sxth	r1, r1
	bl	lv_obj_set_y
	.loc	10 1336 23 is_stmt 1            @ lvgl/src/lv_widgets/lv_dropdown.c:1336:23
	ldr	r0, [sp, #24]
	.loc	10 1336 28 is_stmt 0            @ lvgl/src/lv_widgets/lv_dropdown.c:1336:28
	ldr	r0, [r0]
	.loc	10 1336 5                       @ lvgl/src/lv_widgets/lv_dropdown.c:1336:5
	bl	lv_obj_invalidate
	.loc	10 1337 1 is_stmt 1             @ lvgl/src/lv_widgets/lv_dropdown.c:1337:1
	b	.LBB30_3
.LBB30_3:
	add	sp, #32
	pop	{r7, pc}
.Ltmp650:
.Lfunc_end30:
	.size	position_to_selected, .Lfunc_end30-position_to_selected
	.cfi_endproc
	.cantunwind
	.fnend
                                        @ -- End function
	.section	.text.lv_dropdown_close,"ax",%progbits
	.hidden	lv_dropdown_close               @ -- Begin function lv_dropdown_close
	.globl	lv_dropdown_close
	.p2align	3
	.type	lv_dropdown_close,%function
	.code	16                              @ @lv_dropdown_close
	.thumb_func
lv_dropdown_close:
.Lfunc_begin31:
	.loc	10 708 0                        @ lvgl/src/lv_widgets/lv_dropdown.c:708:0
	.fnstart
	.cfi_startproc
@ %bb.0:
	.save	{r7, lr}
	push	{r7, lr}
	.cfi_def_cfa_offset 8
	.cfi_offset lr, -4
	.cfi_offset r7, -8
	.pad	#8
	sub	sp, #8
	.cfi_def_cfa_offset 16
	str	r0, [sp, #4]
.Ltmp651:
	.loc	10 709 51 prologue_end          @ lvgl/src/lv_widgets/lv_dropdown.c:709:51
	ldr	r0, [sp, #4]
	.loc	10 709 31 is_stmt 0             @ lvgl/src/lv_widgets/lv_dropdown.c:709:31
	bl	lv_obj_get_ext_attr
	.loc	10 709 25                       @ lvgl/src/lv_widgets/lv_dropdown.c:709:25
	str	r0, [sp]
.Ltmp652:
	.loc	10 710 8 is_stmt 1              @ lvgl/src/lv_widgets/lv_dropdown.c:710:8
	ldr	r0, [sp]
	.loc	10 710 13 is_stmt 0             @ lvgl/src/lv_widgets/lv_dropdown.c:710:13
	ldr	r0, [r0]
.Ltmp653:
	.loc	10 710 8                        @ lvgl/src/lv_widgets/lv_dropdown.c:710:8
	cbnz	r0, .LBB31_2
	b	.LBB31_1
.LBB31_1:
.Ltmp654:
	.loc	10 710 27                       @ lvgl/src/lv_widgets/lv_dropdown.c:710:27
	b	.LBB31_3
.Ltmp655:
.LBB31_2:
	.loc	10 712 5 is_stmt 1              @ lvgl/src/lv_widgets/lv_dropdown.c:712:5
	ldr	r1, [sp]
	movw	r0, #65535
	.loc	10 712 20 is_stmt 0             @ lvgl/src/lv_widgets/lv_dropdown.c:712:20
	strh	r0, [r1, #48]
	.loc	10 713 16 is_stmt 1             @ lvgl/src/lv_widgets/lv_dropdown.c:713:16
	ldr	r0, [sp]
	.loc	10 713 21 is_stmt 0             @ lvgl/src/lv_widgets/lv_dropdown.c:713:21
	ldr	r0, [r0]
	.loc	10 713 5                        @ lvgl/src/lv_widgets/lv_dropdown.c:713:5
	bl	lv_obj_del
	.loc	10 714 5 is_stmt 1              @ lvgl/src/lv_widgets/lv_dropdown.c:714:5
	ldr	r1, [sp]
	movs	r0, #0
	.loc	10 714 15 is_stmt 0             @ lvgl/src/lv_widgets/lv_dropdown.c:714:15
	str	r0, [r1]
	.loc	10 715 1 is_stmt 1              @ lvgl/src/lv_widgets/lv_dropdown.c:715:1
	b	.LBB31_3
.LBB31_3:
	add	sp, #8
	pop	{r7, pc}
.Ltmp656:
.Lfunc_end31:
	.size	lv_dropdown_close, .Lfunc_end31-lv_dropdown_close
	.cfi_endproc
	.cantunwind
	.fnend
                                        @ -- End function
	.section	.text.lv_obj_get_style_pad_left,"ax",%progbits
	.p2align	3                               @ -- Begin function lv_obj_get_style_pad_left
	.type	lv_obj_get_style_pad_left,%function
	.code	16                              @ @lv_obj_get_style_pad_left
	.thumb_func
lv_obj_get_style_pad_left:
.Lfunc_begin32:
	.loc	18 102 0                        @ lvgl/src/lv_widgets/../lv_core/lv_obj_style_dec.h:102:0
	.fnstart
	.cfi_startproc
@ %bb.0:
	.save	{r7, lr}
	push	{r7, lr}
	.cfi_def_cfa_offset 8
	.cfi_offset lr, -4
	.cfi_offset r7, -8
	.pad	#8
	sub	sp, #8
	.cfi_def_cfa_offset 16
                                        @ kill: def $r2 killed $r1
	str	r0, [sp, #4]
	strb.w	r1, [sp, #3]
.Ltmp657:
	.loc	18 102 1 prologue_end           @ lvgl/src/lv_widgets/../lv_core/lv_obj_style_dec.h:102:1
	ldr	r0, [sp, #4]
	ldrb.w	r1, [sp, #3]
	movs	r2, #18
	bl	_lv_obj_get_style_int
	add	sp, #8
	pop	{r7, pc}
.Ltmp658:
.Lfunc_end32:
	.size	lv_obj_get_style_pad_left, .Lfunc_end32-lv_obj_get_style_pad_left
	.cfi_endproc
	.cantunwind
	.fnend
                                        @ -- End function
	.section	.text.lv_obj_get_style_pad_right,"ax",%progbits
	.p2align	3                               @ -- Begin function lv_obj_get_style_pad_right
	.type	lv_obj_get_style_pad_right,%function
	.code	16                              @ @lv_obj_get_style_pad_right
	.thumb_func
lv_obj_get_style_pad_right:
.Lfunc_begin33:
	.loc	18 103 0                        @ lvgl/src/lv_widgets/../lv_core/lv_obj_style_dec.h:103:0
	.fnstart
	.cfi_startproc
@ %bb.0:
	.save	{r7, lr}
	push	{r7, lr}
	.cfi_def_cfa_offset 8
	.cfi_offset lr, -4
	.cfi_offset r7, -8
	.pad	#8
	sub	sp, #8
	.cfi_def_cfa_offset 16
                                        @ kill: def $r2 killed $r1
	str	r0, [sp, #4]
	strb.w	r1, [sp, #3]
.Ltmp659:
	.loc	18 103 1 prologue_end           @ lvgl/src/lv_widgets/../lv_core/lv_obj_style_dec.h:103:1
	ldr	r0, [sp, #4]
	ldrb.w	r1, [sp, #3]
	movs	r2, #19
	bl	_lv_obj_get_style_int
	add	sp, #8
	pop	{r7, pc}
.Ltmp660:
.Lfunc_end33:
	.size	lv_obj_get_style_pad_right, .Lfunc_end33-lv_obj_get_style_pad_right
	.cfi_endproc
	.cantunwind
	.fnend
                                        @ -- End function
	.section	.text.draw_box,"ax",%progbits
	.p2align	3                               @ -- Begin function draw_box
	.type	draw_box,%function
	.code	16                              @ @draw_box
	.thumb_func
draw_box:
.Lfunc_begin34:
	.loc	10 1154 0                       @ lvgl/src/lv_widgets/lv_dropdown.c:1154:0
	.fnstart
	.cfi_startproc
@ %bb.0:
	.save	{r7, lr}
	push	{r7, lr}
	.cfi_def_cfa_offset 8
	.cfi_offset lr, -4
	.cfi_offset r7, -8
	.pad	#160
	sub	sp, #160
	.cfi_def_cfa_offset 168
                                        @ kill: def $r12 killed $r3
                                        @ kill: def $r12 killed $r2
	str	r0, [sp, #156]
	str	r1, [sp, #152]
	strh.w	r2, [sp, #150]
	strb.w	r3, [sp, #149]
.Ltmp661:
	.loc	10 1155 51 prologue_end         @ lvgl/src/lv_widgets/lv_dropdown.c:1155:51
	ldr	r0, [sp, #156]
	.loc	10 1155 31 is_stmt 0            @ lvgl/src/lv_widgets/lv_dropdown.c:1155:31
	bl	lv_obj_get_ext_attr
	.loc	10 1155 25                      @ lvgl/src/lv_widgets/lv_dropdown.c:1155:25
	str	r0, [sp, #144]
	.loc	10 1156 23 is_stmt 1            @ lvgl/src/lv_widgets/lv_dropdown.c:1156:23
	ldr	r0, [sp, #144]
	.loc	10 1156 28 is_stmt 0            @ lvgl/src/lv_widgets/lv_dropdown.c:1156:28
	ldr	r0, [r0]
	.loc	10 1156 16                      @ lvgl/src/lv_widgets/lv_dropdown.c:1156:16
	str	r0, [sp, #140]
	.loc	10 1157 29 is_stmt 1            @ lvgl/src/lv_widgets/lv_dropdown.c:1157:29
	ldr	r0, [sp, #140]
	.loc	10 1157 35 is_stmt 0            @ lvgl/src/lv_widgets/lv_dropdown.c:1157:35
	ldrb.w	r0, [r0, #61]
	.loc	10 1157 16                      @ lvgl/src/lv_widgets/lv_dropdown.c:1157:16
	strb.w	r0, [sp, #139]
.Ltmp662:
	.loc	10 1159 8 is_stmt 1             @ lvgl/src/lv_widgets/lv_dropdown.c:1159:8
	ldrb.w	r0, [sp, #149]
	.loc	10 1159 17 is_stmt 0            @ lvgl/src/lv_widgets/lv_dropdown.c:1159:17
	ldr	r1, [sp, #140]
	.loc	10 1159 23                      @ lvgl/src/lv_widgets/lv_dropdown.c:1159:23
	ldrb.w	r1, [r1, #61]
.Ltmp663:
	.loc	10 1159 8                       @ lvgl/src/lv_widgets/lv_dropdown.c:1159:8
	cmp	r0, r1
	beq	.LBB34_2
	b	.LBB34_1
.LBB34_1:
.Ltmp664:
	.loc	10 1160 39 is_stmt 1            @ lvgl/src/lv_widgets/lv_dropdown.c:1160:39
	ldr	r0, [sp, #156]
	movs	r1, #1
	.loc	10 1160 9 is_stmt 0             @ lvgl/src/lv_widgets/lv_dropdown.c:1160:9
	bl	_lv_obj_disable_style_caching
	.loc	10 1161 23 is_stmt 1            @ lvgl/src/lv_widgets/lv_dropdown.c:1161:23
	ldrb.w	r0, [sp, #149]
	.loc	10 1161 9 is_stmt 0             @ lvgl/src/lv_widgets/lv_dropdown.c:1161:9
	ldr	r1, [sp, #140]
	.loc	10 1161 21                      @ lvgl/src/lv_widgets/lv_dropdown.c:1161:21
	strb.w	r0, [r1, #61]
	.loc	10 1162 5 is_stmt 1             @ lvgl/src/lv_widgets/lv_dropdown.c:1162:5
	b	.LBB34_2
.Ltmp665:
.LBB34_2:
	.loc	10 1165 60                      @ lvgl/src/lv_widgets/lv_dropdown.c:1165:60
	ldr	r0, [sp, #156]
	movs	r1, #64
	.loc	10 1165 33 is_stmt 0            @ lvgl/src/lv_widgets/lv_dropdown.c:1165:33
	str	r1, [sp, #4]                    @ 4-byte Spill
	bl	lv_obj_get_style_text_font
	ldr	r1, [sp, #4]                    @ 4-byte Reload
	.loc	10 1165 23                      @ lvgl/src/lv_widgets/lv_dropdown.c:1165:23
	str	r0, [sp, #132]
	.loc	10 1166 66 is_stmt 1            @ lvgl/src/lv_widgets/lv_dropdown.c:1166:66
	ldr	r0, [sp, #156]
	.loc	10 1166 33 is_stmt 0            @ lvgl/src/lv_widgets/lv_dropdown.c:1166:33
	bl	lv_obj_get_style_text_line_space
	.loc	10 1166 20                      @ lvgl/src/lv_widgets/lv_dropdown.c:1166:20
	strh.w	r0, [sp, #130]
	.loc	10 1167 57 is_stmt 1            @ lvgl/src/lv_widgets/lv_dropdown.c:1167:57
