	.text
	.syntax unified
	.eabi_attribute	67, "2.09"	@ Tag_conformance
	.cpu	cortex-m7
	.eabi_attribute	6, 13	@ Tag_CPU_arch
	.eabi_attribute	7, 77	@ Tag_CPU_arch_profile
	.eabi_attribute	8, 0	@ Tag_ARM_ISA_use
	.eabi_attribute	9, 2	@ Tag_THUMB_ISA_use
	.fpu	fpv5-d16
	.eabi_attribute	36, 1	@ Tag_FP_HP_extension
	.eabi_attribute	34, 1	@ Tag_CPU_unaligned_access
	.eabi_attribute	17, 1	@ Tag_ABI_PCS_GOT_use
	.eabi_attribute	20, 2	@ Tag_ABI_FP_denormal
	.eabi_attribute	21, 0	@ Tag_ABI_FP_exceptions
	.eabi_attribute	23, 1	@ Tag_ABI_FP_number_model
	.eabi_attribute	24, 1	@ Tag_ABI_align_needed
	.eabi_attribute	25, 1	@ Tag_ABI_align_preserved
	.eabi_attribute	28, 1	@ Tag_ABI_VFP_args
	.eabi_attribute	38, 1	@ Tag_ABI_FP_16bit_format
	.eabi_attribute	18, 2	@ Tag_ABI_PCS_wchar_t
	.eabi_attribute	26, 1	@ Tag_ABI_enum_size
	.eabi_attribute	14, 0	@ Tag_ABI_PCS_R9_use
	.file	"lv_draw_rect.c"
	.file	1 "E:\\STM32\\Learning\\STM32H750_ART_PI_RGBLCD" "lvgl/src/lv_draw/../lv_core/../lv_hal/../lv_misc/lv_color.h"
	.file	2 "E:\\STM32\\Learning\\STM32H750_ART_PI_RGBLCD" "lvgl/src/lv_draw/../lv_core/lv_style.h"
	.file	3 "E:\\STM32\\Learning\\STM32H750_ART_PI_RGBLCD" "lvgl/src/lv_draw/lv_draw_mask.h"
	.file	4 "E:\\STM32\\Learning\\STM32H750_ART_PI_RGBLCD" "lvgl/src/lv_draw/lv_img_decoder.h"
	.file	5 "E:\\STM32\\Learning\\STM32H750_ART_PI_RGBLCD" "lvgl/src/lv_draw/../lv_misc/lv_types.h"
	.file	6 "E:\\STM32\\Learning\\STM32H750_ART_PI_RGBLCD" "lvgl/src/lv_draw/../lv_misc/lv_txt.h"
	.file	7 "D:\\Keil_v5\\ARM\\ARMCLANG\\Bin\\..\\include" "stdint.h"
	.file	8 "E:\\STM32\\Learning\\STM32H750_ART_PI_RGBLCD" "./lvgl/src/lv_conf.h"
	.section	.text.lv_draw_rect_dsc_init,"ax",%progbits
	.hidden	lv_draw_rect_dsc_init           @ -- Begin function lv_draw_rect_dsc_init
	.globl	lv_draw_rect_dsc_init
	.p2align	3
	.type	lv_draw_rect_dsc_init,%function
	.code	16                              @ @lv_draw_rect_dsc_init
	.thumb_func
lv_draw_rect_dsc_init:
.Lfunc_begin0:
	.file	9 "E:\\STM32\\Learning\\STM32H750_ART_PI_RGBLCD" "lvgl/src/lv_draw/lv_draw_rect.c"
	.loc	9 76 0                          @ lvgl/src/lv_draw/lv_draw_rect.c:76:0
	.fnstart
	.cfi_sections .debug_frame
	.cfi_startproc
@ %bb.0:
	.save	{r7, lr}
	push	{r7, lr}
	.cfi_def_cfa_offset 8
	.cfi_offset lr, -4
	.cfi_offset r7, -8
	.pad	#32
	sub	sp, #32
	.cfi_def_cfa_offset 40
	str	r0, [sp, #28]
.Ltmp0:
	.loc	9 77 19 prologue_end            @ lvgl/src/lv_draw/lv_draw_rect.c:77:19
	ldr	r0, [sp, #28]
	movs	r1, #104
	.loc	9 77 5 is_stmt 0                @ lvgl/src/lv_draw/lv_draw_rect.c:77:5
	bl	_lv_memset_00
	.loc	9 78 5 is_stmt 1                @ lvgl/src/lv_draw/lv_draw_rect.c:78:5
	ldr	r2, [sp, #28]
	movs	r0, #255
	.loc	9 78 21 is_stmt 0               @ lvgl/src/lv_draw/lv_draw_rect.c:78:21
	strb.w	r0, [sp, #24]
	strb.w	r0, [sp, #25]
	strb.w	r0, [sp, #26]
	strb.w	r0, [sp, #27]
	ldr	r1, [sp, #24]
	str	r1, [r2, #4]
	.loc	9 79 5 is_stmt 1                @ lvgl/src/lv_draw/lv_draw_rect.c:79:5
	ldr	r3, [sp, #28]
	movs	r1, #0
	.loc	9 79 26 is_stmt 0               @ lvgl/src/lv_draw/lv_draw_rect.c:79:26
	strb.w	r1, [sp, #20]
	strb.w	r1, [sp, #21]
	strb.w	r1, [sp, #22]
	strb.w	r0, [sp, #23]
	ldr	r2, [sp, #20]
	str	r2, [r3, #8]
	.loc	9 80 5 is_stmt 1                @ lvgl/src/lv_draw/lv_draw_rect.c:80:5
	ldr	r3, [sp, #28]
	.loc	9 80 25 is_stmt 0               @ lvgl/src/lv_draw/lv_draw_rect.c:80:25
	strb.w	r1, [sp, #16]
	strb.w	r1, [sp, #17]
	strb.w	r1, [sp, #18]
	strb.w	r0, [sp, #19]
	ldr	r2, [sp, #16]
	str	r2, [r3, #20]
	.loc	9 81 5 is_stmt 1                @ lvgl/src/lv_draw/lv_draw_rect.c:81:5
	ldr	r3, [sp, #28]
	.loc	9 81 28 is_stmt 0               @ lvgl/src/lv_draw/lv_draw_rect.c:81:28
	strb.w	r1, [sp, #12]
	strb.w	r1, [sp, #13]
	strb.w	r1, [sp, #14]
	strb.w	r0, [sp, #15]
	ldr	r2, [sp, #12]
	str	r2, [r3, #68]
	.loc	9 82 5 is_stmt 1                @ lvgl/src/lv_draw/lv_draw_rect.c:82:5
	ldr	r3, [sp, #28]
	.loc	9 82 24 is_stmt 0               @ lvgl/src/lv_draw/lv_draw_rect.c:82:24
	strb.w	r1, [sp, #8]
	strb.w	r1, [sp, #9]
	strb.w	r1, [sp, #10]
	strb.w	r0, [sp, #11]
	ldr	r2, [sp, #8]
	str	r2, [r3, #88]
	.loc	9 83 5 is_stmt 1                @ lvgl/src/lv_draw/lv_draw_rect.c:83:5
	ldr	r2, [sp, #28]
	.loc	9 83 25 is_stmt 0               @ lvgl/src/lv_draw/lv_draw_rect.c:83:25
	strb.w	r1, [sp, #4]
	strb.w	r1, [sp, #5]
	strb.w	r1, [sp, #6]
	strb.w	r0, [sp, #7]
	ldr	r1, [sp, #4]
	str	r1, [r2, #44]
	.loc	9 84 5 is_stmt 1                @ lvgl/src/lv_draw/lv_draw_rect.c:84:5
	ldr	r1, [sp, #28]
	.loc	9 84 29 is_stmt 0               @ lvgl/src/lv_draw/lv_draw_rect.c:84:29
	strh	r0, [r1, #16]
	.loc	9 85 5 is_stmt 1                @ lvgl/src/lv_draw/lv_draw_rect.c:85:5
	ldr	r1, [sp, #28]
	.loc	9 85 17 is_stmt 0               @ lvgl/src/lv_draw/lv_draw_rect.c:85:17
	strb	r0, [r1, #18]
	.loc	9 86 5 is_stmt 1                @ lvgl/src/lv_draw/lv_draw_rect.c:86:5
	ldr	r1, [sp, #28]
	.loc	9 86 22 is_stmt 0               @ lvgl/src/lv_draw/lv_draw_rect.c:86:22
	strb.w	r0, [r1, #40]
	.loc	9 87 5 is_stmt 1                @ lvgl/src/lv_draw/lv_draw_rect.c:87:5
	ldr	r1, [sp, #28]
	.loc	9 87 21 is_stmt 0               @ lvgl/src/lv_draw/lv_draw_rect.c:87:21
	strb	r0, [r1, #28]
	.loc	9 88 5 is_stmt 1                @ lvgl/src/lv_draw/lv_draw_rect.c:88:5
	ldr	r1, [sp, #28]
	.loc	9 88 22 is_stmt 0               @ lvgl/src/lv_draw/lv_draw_rect.c:88:22
	strb.w	r0, [r1, #72]
	.loc	9 89 5 is_stmt 1                @ lvgl/src/lv_draw/lv_draw_rect.c:89:5
	ldr	r2, [sp, #28]
	.loc	9 89 23 is_stmt 0               @ lvgl/src/lv_draw/lv_draw_rect.c:89:23
	movw	r1, :lower16:lv_font_montserrat_14
	movt	r1, :upper16:lv_font_montserrat_14
	str	r1, [r2, #64]
	.loc	9 90 5 is_stmt 1                @ lvgl/src/lv_draw/lv_draw_rect.c:90:5
	ldr	r2, [sp, #28]
	.loc	9 90 20 is_stmt 0               @ lvgl/src/lv_draw/lv_draw_rect.c:90:20
	strb.w	r0, [r2, #84]
	.loc	9 91 5 is_stmt 1                @ lvgl/src/lv_draw/lv_draw_rect.c:91:5
	ldr	r2, [sp, #28]
	.loc	9 91 21 is_stmt 0               @ lvgl/src/lv_draw/lv_draw_rect.c:91:21
	str	r1, [r2, #80]
	.loc	9 92 5 is_stmt 1                @ lvgl/src/lv_draw/lv_draw_rect.c:92:5
	ldr	r1, [sp, #28]
	.loc	9 92 21 is_stmt 0               @ lvgl/src/lv_draw/lv_draw_rect.c:92:21
	strb.w	r0, [r1, #56]
	.loc	9 93 5 is_stmt 1                @ lvgl/src/lv_draw/lv_draw_rect.c:93:5
	ldr	r1, [sp, #28]
	movs	r0, #15
	.loc	9 93 22 is_stmt 0               @ lvgl/src/lv_draw/lv_draw_rect.c:93:22
	strh	r0, [r1, #26]
	.loc	9 95 1 is_stmt 1                @ lvgl/src/lv_draw/lv_draw_rect.c:95:1
	add	sp, #32
	pop	{r7, pc}
.Ltmp1:
.Lfunc_end0:
	.size	lv_draw_rect_dsc_init, .Lfunc_end0-lv_draw_rect_dsc_init
	.cfi_endproc
	.cantunwind
	.fnend
                                        @ -- End function
	.section	.text.lv_draw_rect,"ax",%progbits
	.hidden	lv_draw_rect                    @ -- Begin function lv_draw_rect
	.globl	lv_draw_rect
	.p2align	3
	.type	lv_draw_rect,%function
	.code	16                              @ @lv_draw_rect
	.thumb_func
lv_draw_rect:
.Lfunc_begin1:
	.loc	9 104 0                         @ lvgl/src/lv_draw/lv_draw_rect.c:104:0
	.fnstart
	.cfi_startproc
@ %bb.0:
	.save	{r7, lr}
	push	{r7, lr}
	.cfi_def_cfa_offset 8
	.cfi_offset lr, -4
	.cfi_offset r7, -8
	.pad	#16
	sub	sp, #16
	.cfi_def_cfa_offset 24
	str	r0, [sp, #12]
	str	r1, [sp, #8]
	str	r2, [sp, #4]
.Ltmp2:
	.loc	9 105 27 prologue_end           @ lvgl/src/lv_draw/lv_draw_rect.c:105:27
	ldr	r0, [sp, #12]
	.loc	9 105 8 is_stmt 0               @ lvgl/src/lv_draw/lv_draw_rect.c:105:8
	bl	lv_area_get_height
	.loc	9 105 39                        @ lvgl/src/lv_draw/lv_draw_rect.c:105:39
	cmp	r0, #1
	blt	.LBB1_2
	b	.LBB1_1
.LBB1_1:
	.loc	9 105 60                        @ lvgl/src/lv_draw/lv_draw_rect.c:105:60
	ldr	r0, [sp, #12]
	.loc	9 105 42                        @ lvgl/src/lv_draw/lv_draw_rect.c:105:42
	bl	lv_area_get_width
.Ltmp3:
	.loc	9 105 8                         @ lvgl/src/lv_draw/lv_draw_rect.c:105:8
	cmp	r0, #0
	bgt	.LBB1_3
	b	.LBB1_2
.LBB1_2:
.Ltmp4:
	.loc	9 105 73                        @ lvgl/src/lv_draw/lv_draw_rect.c:105:73
	b	.LBB1_4
.Ltmp5:
.LBB1_3:
	.loc	9 107 17 is_stmt 1              @ lvgl/src/lv_draw/lv_draw_rect.c:107:17
	ldr	r0, [sp, #12]
	.loc	9 107 25 is_stmt 0              @ lvgl/src/lv_draw/lv_draw_rect.c:107:25
	ldr	r1, [sp, #8]
	.loc	9 107 31                        @ lvgl/src/lv_draw/lv_draw_rect.c:107:31
	ldr	r2, [sp, #4]
	.loc	9 107 5                         @ lvgl/src/lv_draw/lv_draw_rect.c:107:5
	bl	draw_shadow
	.loc	9 110 13 is_stmt 1              @ lvgl/src/lv_draw/lv_draw_rect.c:110:13
	ldr	r0, [sp, #12]
	.loc	9 110 21 is_stmt 0              @ lvgl/src/lv_draw/lv_draw_rect.c:110:21
	ldr	r1, [sp, #8]
	.loc	9 110 27                        @ lvgl/src/lv_draw/lv_draw_rect.c:110:27
	ldr	r2, [sp, #4]
	.loc	9 110 5                         @ lvgl/src/lv_draw/lv_draw_rect.c:110:5
	bl	draw_bg
	.loc	9 113 18 is_stmt 1              @ lvgl/src/lv_draw/lv_draw_rect.c:113:18
	ldr	r0, [sp, #12]
	.loc	9 113 26 is_stmt 0              @ lvgl/src/lv_draw/lv_draw_rect.c:113:26
	ldr	r1, [sp, #8]
	.loc	9 113 32                        @ lvgl/src/lv_draw/lv_draw_rect.c:113:32
	ldr	r2, [sp, #4]
	.loc	9 113 5                         @ lvgl/src/lv_draw/lv_draw_rect.c:113:5
	bl	draw_pattern
	.loc	9 115 17 is_stmt 1              @ lvgl/src/lv_draw/lv_draw_rect.c:115:17
	ldr	r0, [sp, #12]
	.loc	9 115 25 is_stmt 0              @ lvgl/src/lv_draw/lv_draw_rect.c:115:25
	ldr	r1, [sp, #8]
	.loc	9 115 31                        @ lvgl/src/lv_draw/lv_draw_rect.c:115:31
	ldr	r2, [sp, #4]
	.loc	9 115 5                         @ lvgl/src/lv_draw/lv_draw_rect.c:115:5
	bl	draw_border
	.loc	9 118 20 is_stmt 1              @ lvgl/src/lv_draw/lv_draw_rect.c:118:20
	ldr	r0, [sp, #12]
	.loc	9 118 28 is_stmt 0              @ lvgl/src/lv_draw/lv_draw_rect.c:118:28
	ldr	r1, [sp, #8]
	.loc	9 118 34                        @ lvgl/src/lv_draw/lv_draw_rect.c:118:34
	ldr	r2, [sp, #4]
	.loc	9 118 5                         @ lvgl/src/lv_draw/lv_draw_rect.c:118:5
	bl	draw_value_str
	.loc	9 122 18 is_stmt 1              @ lvgl/src/lv_draw/lv_draw_rect.c:122:18
	ldr	r0, [sp, #12]
	.loc	9 122 26 is_stmt 0              @ lvgl/src/lv_draw/lv_draw_rect.c:122:26
	ldr	r1, [sp, #8]
	.loc	9 122 32                        @ lvgl/src/lv_draw/lv_draw_rect.c:122:32
	ldr	r2, [sp, #4]
	.loc	9 122 5                         @ lvgl/src/lv_draw/lv_draw_rect.c:122:5
	bl	draw_outline
	.loc	9 126 1 is_stmt 1               @ lvgl/src/lv_draw/lv_draw_rect.c:126:1
	b	.LBB1_4
.LBB1_4:
	add	sp, #16
	pop	{r7, pc}
.Ltmp6:
.Lfunc_end1:
	.size	lv_draw_rect, .Lfunc_end1-lv_draw_rect
	.cfi_endproc
	.cantunwind
	.fnend
                                        @ -- End function
	.section	.text.lv_area_get_height,"ax",%progbits
	.p2align	3                               @ -- Begin function lv_area_get_height
	.type	lv_area_get_height,%function
	.code	16                              @ @lv_area_get_height
	.thumb_func
lv_area_get_height:
.Lfunc_begin2:
	.file	10 "E:\\STM32\\Learning\\STM32H750_ART_PI_RGBLCD" "lvgl/src/lv_draw/../lv_core/../lv_hal/../lv_misc/lv_area.h"
	.loc	10 118 0                        @ lvgl/src/lv_draw/../lv_core/../lv_hal/../lv_misc/lv_area.h:118:0
	.fnstart
	.cfi_startproc
@ %bb.0:
	.pad	#4
	sub	sp, #4
	.cfi_def_cfa_offset 4
	str	r0, [sp]
.Ltmp7:
	.loc	10 119 25 prologue_end          @ lvgl/src/lv_draw/../lv_core/../lv_hal/../lv_misc/lv_area.h:119:25
	ldr	r1, [sp]
	ldrh	r0, [r1, #6]
	.loc	10 119 38 is_stmt 0             @ lvgl/src/lv_draw/../lv_core/../lv_hal/../lv_misc/lv_area.h:119:38
	ldrh	r1, [r1, #2]
	.loc	10 119 36                       @ lvgl/src/lv_draw/../lv_core/../lv_hal/../lv_misc/lv_area.h:119:36
	subs	r0, r0, r1
	.loc	10 119 49                       @ lvgl/src/lv_draw/../lv_core/../lv_hal/../lv_misc/lv_area.h:119:49
	adds	r0, #1
	.loc	10 119 5                        @ lvgl/src/lv_draw/../lv_core/../lv_hal/../lv_misc/lv_area.h:119:5
	sxth	r0, r0
	add	sp, #4
	bx	lr
.Ltmp8:
.Lfunc_end2:
	.size	lv_area_get_height, .Lfunc_end2-lv_area_get_height
	.cfi_endproc
	.cantunwind
	.fnend
                                        @ -- End function
	.section	.text.lv_area_get_width,"ax",%progbits
	.p2align	3                               @ -- Begin function lv_area_get_width
	.type	lv_area_get_width,%function
	.code	16                              @ @lv_area_get_width
	.thumb_func
lv_area_get_width:
.Lfunc_begin3:
	.loc	10 108 0 is_stmt 1              @ lvgl/src/lv_draw/../lv_core/../lv_hal/../lv_misc/lv_area.h:108:0
	.fnstart
	.cfi_startproc
@ %bb.0:
	.pad	#4
	sub	sp, #4
	.cfi_def_cfa_offset 4
	str	r0, [sp]
.Ltmp9:
	.loc	10 109 25 prologue_end          @ lvgl/src/lv_draw/../lv_core/../lv_hal/../lv_misc/lv_area.h:109:25
	ldr	r1, [sp]
	ldrh	r0, [r1, #4]
	.loc	10 109 38 is_stmt 0             @ lvgl/src/lv_draw/../lv_core/../lv_hal/../lv_misc/lv_area.h:109:38
	ldrh	r1, [r1]
	.loc	10 109 36                       @ lvgl/src/lv_draw/../lv_core/../lv_hal/../lv_misc/lv_area.h:109:36
	subs	r0, r0, r1
	.loc	10 109 49                       @ lvgl/src/lv_draw/../lv_core/../lv_hal/../lv_misc/lv_area.h:109:49
	adds	r0, #1
	.loc	10 109 5                        @ lvgl/src/lv_draw/../lv_core/../lv_hal/../lv_misc/lv_area.h:109:5
	sxth	r0, r0
	add	sp, #4
	bx	lr
.Ltmp10:
.Lfunc_end3:
	.size	lv_area_get_width, .Lfunc_end3-lv_area_get_width
	.cfi_endproc
	.cantunwind
	.fnend
                                        @ -- End function
	.section	.text.draw_shadow,"ax",%progbits
	.p2align	3                               @ -- Begin function draw_shadow
	.type	draw_shadow,%function
	.code	16                              @ @draw_shadow
	.thumb_func
draw_shadow:
.Lfunc_begin4:
	.loc	9 525 0 is_stmt 1               @ lvgl/src/lv_draw/lv_draw_rect.c:525:0
	.fnstart
	.cfi_startproc
@ %bb.0:
	.save	{r4, lr}
	push	{r4, lr}
	.cfi_def_cfa_offset 8
	.cfi_offset lr, -4
	.cfi_offset r4, -8
	.pad	#392
	sub	sp, #392
	.cfi_def_cfa_offset 400
	str	r0, [sp, #388]
	str	r1, [sp, #384]
	str	r2, [sp, #380]
.Ltmp11:
	.loc	9 527 8 prologue_end            @ lvgl/src/lv_draw/lv_draw_rect.c:527:8
	ldr	r0, [sp, #380]
	.loc	9 527 13 is_stmt 0              @ lvgl/src/lv_draw/lv_draw_rect.c:527:13
	ldrsh.w	r0, [r0, #48]
.Ltmp12:
	.loc	9 527 8                         @ lvgl/src/lv_draw/lv_draw_rect.c:527:8
	cbnz	r0, .LBB4_2
	b	.LBB4_1
.LBB4_1:
.Ltmp13:
	.loc	9 527 32                        @ lvgl/src/lv_draw/lv_draw_rect.c:527:32
	b.w	.LBB4_189
.Ltmp14:
.LBB4_2:
	.loc	9 528 8 is_stmt 1               @ lvgl/src/lv_draw/lv_draw_rect.c:528:8
	ldr	r0, [sp, #380]
	.loc	9 528 13 is_stmt 0              @ lvgl/src/lv_draw/lv_draw_rect.c:528:13
	ldrb.w	r0, [r0, #56]
.Ltmp15:
	.loc	9 528 8                         @ lvgl/src/lv_draw/lv_draw_rect.c:528:8
	cmp	r0, #2
	bgt	.LBB4_4
	b	.LBB4_3
.LBB4_3:
.Ltmp16:
	.loc	9 528 39                        @ lvgl/src/lv_draw/lv_draw_rect.c:528:39
	b.w	.LBB4_189
.Ltmp17:
.LBB4_4:
	.loc	9 530 8 is_stmt 1               @ lvgl/src/lv_draw/lv_draw_rect.c:530:8
	ldr	r0, [sp, #380]
	.loc	9 530 13 is_stmt 0              @ lvgl/src/lv_draw/lv_draw_rect.c:530:13
	ldrsh.w	r0, [r0, #48]
	.loc	9 530 31                        @ lvgl/src/lv_draw/lv_draw_rect.c:530:31
	cmp	r0, #1
	bne	.LBB4_9
	b	.LBB4_5
.LBB4_5:
	.loc	9 530 34                        @ lvgl/src/lv_draw/lv_draw_rect.c:530:34
	ldr	r0, [sp, #380]
	.loc	9 530 39                        @ lvgl/src/lv_draw/lv_draw_rect.c:530:39
	ldrsh.w	r0, [r0, #50]
	.loc	9 530 57                        @ lvgl/src/lv_draw/lv_draw_rect.c:530:57
	cbnz	r0, .LBB4_9
	b	.LBB4_6
.LBB4_6:
	.loc	9 531 8 is_stmt 1               @ lvgl/src/lv_draw/lv_draw_rect.c:531:8
	ldr	r0, [sp, #380]
	.loc	9 531 13 is_stmt 0              @ lvgl/src/lv_draw/lv_draw_rect.c:531:13
	ldrsh.w	r0, [r0, #52]
	.loc	9 531 31                        @ lvgl/src/lv_draw/lv_draw_rect.c:531:31
	cbnz	r0, .LBB4_9
	b	.LBB4_7
.LBB4_7:
	.loc	9 531 34                        @ lvgl/src/lv_draw/lv_draw_rect.c:531:34
	ldr	r0, [sp, #380]
	.loc	9 531 39                        @ lvgl/src/lv_draw/lv_draw_rect.c:531:39
	ldrsh.w	r0, [r0, #54]
.Ltmp18:
	.loc	9 530 8 is_stmt 1               @ lvgl/src/lv_draw/lv_draw_rect.c:530:8
	cmp	r0, #0
	bgt	.LBB4_9
	b	.LBB4_8
.LBB4_8:
.Ltmp19:
	.loc	9 532 9                         @ lvgl/src/lv_draw/lv_draw_rect.c:532:9
	b.w	.LBB4_189
.Ltmp20:
.LBB4_9:
	.loc	9 535 18                        @ lvgl/src/lv_draw/lv_draw_rect.c:535:18
	ldr	r0, [sp, #380]
	.loc	9 535 23 is_stmt 0              @ lvgl/src/lv_draw/lv_draw_rect.c:535:23
	ldrsh.w	r0, [r0, #48]
	.loc	9 535 13                        @ lvgl/src/lv_draw/lv_draw_rect.c:535:13
	str	r0, [sp, #376]
	.loc	9 538 23 is_stmt 1              @ lvgl/src/lv_draw/lv_draw_rect.c:538:23
	ldr	r0, [sp, #388]
	ldrh	r0, [r0]
	.loc	9 538 37 is_stmt 0              @ lvgl/src/lv_draw/lv_draw_rect.c:538:37
	ldr	r1, [sp, #380]
	ldrh	r2, [r1, #50]
	.loc	9 538 35                        @ lvgl/src/lv_draw/lv_draw_rect.c:538:35
	add	r0, r2
	.loc	9 538 57                        @ lvgl/src/lv_draw/lv_draw_rect.c:538:57
	ldrh	r1, [r1, #54]
	.loc	9 538 55                        @ lvgl/src/lv_draw/lv_draw_rect.c:538:55
	subs	r0, r0, r1
	.loc	9 538 21                        @ lvgl/src/lv_draw/lv_draw_rect.c:538:21
	strh.w	r0, [sp, #368]
	.loc	9 539 23 is_stmt 1              @ lvgl/src/lv_draw/lv_draw_rect.c:539:23
	ldr	r0, [sp, #388]
	ldrh	r0, [r0, #4]
	.loc	9 539 37 is_stmt 0              @ lvgl/src/lv_draw/lv_draw_rect.c:539:37
	ldr	r1, [sp, #380]
	ldrh	r2, [r1, #50]
	.loc	9 539 35                        @ lvgl/src/lv_draw/lv_draw_rect.c:539:35
	add	r0, r2
	.loc	9 539 57                        @ lvgl/src/lv_draw/lv_draw_rect.c:539:57
	ldrh	r1, [r1, #54]
	.loc	9 539 55                        @ lvgl/src/lv_draw/lv_draw_rect.c:539:55
	add	r0, r1
	.loc	9 539 21                        @ lvgl/src/lv_draw/lv_draw_rect.c:539:21
	strh.w	r0, [sp, #372]
	.loc	9 540 23 is_stmt 1              @ lvgl/src/lv_draw/lv_draw_rect.c:540:23
	ldr	r0, [sp, #388]
	ldrh	r0, [r0, #2]
	.loc	9 540 37 is_stmt 0              @ lvgl/src/lv_draw/lv_draw_rect.c:540:37
	ldr	r1, [sp, #380]
	ldrh	r2, [r1, #52]
	.loc	9 540 35                        @ lvgl/src/lv_draw/lv_draw_rect.c:540:35
	add	r0, r2
	.loc	9 540 57                        @ lvgl/src/lv_draw/lv_draw_rect.c:540:57
	ldrh	r1, [r1, #54]
	.loc	9 540 55                        @ lvgl/src/lv_draw/lv_draw_rect.c:540:55
	subs	r0, r0, r1
	.loc	9 540 21                        @ lvgl/src/lv_draw/lv_draw_rect.c:540:21
	strh.w	r0, [sp, #370]
	.loc	9 541 23 is_stmt 1              @ lvgl/src/lv_draw/lv_draw_rect.c:541:23
	ldr	r0, [sp, #388]
	ldrh	r0, [r0, #6]
	.loc	9 541 37 is_stmt 0              @ lvgl/src/lv_draw/lv_draw_rect.c:541:37
	ldr	r1, [sp, #380]
	ldrh	r2, [r1, #52]
	.loc	9 541 35                        @ lvgl/src/lv_draw/lv_draw_rect.c:541:35
	add	r0, r2
	.loc	9 541 57                        @ lvgl/src/lv_draw/lv_draw_rect.c:541:57
	ldrh	r1, [r1, #54]
	.loc	9 541 55                        @ lvgl/src/lv_draw/lv_draw_rect.c:541:55
	add	r0, r1
	.loc	9 541 21                        @ lvgl/src/lv_draw/lv_draw_rect.c:541:21
	strh.w	r0, [sp, #374]
	.loc	9 544 18 is_stmt 1              @ lvgl/src/lv_draw/lv_draw_rect.c:544:18
	ldrh.w	r1, [sp, #368]
	.loc	9 544 36 is_stmt 0              @ lvgl/src/lv_draw/lv_draw_rect.c:544:36
	ldr	r0, [sp, #376]
	.loc	9 544 39                        @ lvgl/src/lv_draw/lv_draw_rect.c:544:39
	add.w	r0, r0, r0, lsr #31
	.loc	9 544 43                        @ lvgl/src/lv_draw/lv_draw_rect.c:544:43
	mvn.w	r0, r0, lsr #1
	add	r0, r1
	.loc	9 544 16                        @ lvgl/src/lv_draw/lv_draw_rect.c:544:16
	strh.w	r0, [sp, #360]
	.loc	9 545 18 is_stmt 1              @ lvgl/src/lv_draw/lv_draw_rect.c:545:18
	ldrh.w	r0, [sp, #372]
	.loc	9 545 36 is_stmt 0              @ lvgl/src/lv_draw/lv_draw_rect.c:545:36
	ldr	r1, [sp, #376]
	.loc	9 545 39                        @ lvgl/src/lv_draw/lv_draw_rect.c:545:39
	add.w	r1, r1, r1, lsr #31
	.loc	9 545 34                        @ lvgl/src/lv_draw/lv_draw_rect.c:545:34
	add.w	r0, r0, r1, lsr #1
	.loc	9 545 43                        @ lvgl/src/lv_draw/lv_draw_rect.c:545:43
	adds	r0, #1
	.loc	9 545 16                        @ lvgl/src/lv_draw/lv_draw_rect.c:545:16
	strh.w	r0, [sp, #364]
	.loc	9 546 18 is_stmt 1              @ lvgl/src/lv_draw/lv_draw_rect.c:546:18
	ldrh.w	r1, [sp, #370]
	.loc	9 546 36 is_stmt 0              @ lvgl/src/lv_draw/lv_draw_rect.c:546:36
	ldr	r0, [sp, #376]
	.loc	9 546 39                        @ lvgl/src/lv_draw/lv_draw_rect.c:546:39
	add.w	r0, r0, r0, lsr #31
	.loc	9 546 43                        @ lvgl/src/lv_draw/lv_draw_rect.c:546:43
	mvn.w	r0, r0, lsr #1
	add	r0, r1
	.loc	9 546 16                        @ lvgl/src/lv_draw/lv_draw_rect.c:546:16
	strh.w	r0, [sp, #362]
	.loc	9 547 18 is_stmt 1              @ lvgl/src/lv_draw/lv_draw_rect.c:547:18
	ldrh.w	r0, [sp, #374]
	.loc	9 547 36 is_stmt 0              @ lvgl/src/lv_draw/lv_draw_rect.c:547:36
	ldr	r1, [sp, #376]
	.loc	9 547 39                        @ lvgl/src/lv_draw/lv_draw_rect.c:547:39
	add.w	r1, r1, r1, lsr #31
	.loc	9 547 34                        @ lvgl/src/lv_draw/lv_draw_rect.c:547:34
	add.w	r0, r0, r1, lsr #1
	.loc	9 547 43                        @ lvgl/src/lv_draw/lv_draw_rect.c:547:43
	adds	r0, #1
	.loc	9 547 16                        @ lvgl/src/lv_draw/lv_draw_rect.c:547:16
	strh.w	r0, [sp, #366]
	.loc	9 549 20 is_stmt 1              @ lvgl/src/lv_draw/lv_draw_rect.c:549:20
	ldr	r0, [sp, #380]
	.loc	9 549 25 is_stmt 0              @ lvgl/src/lv_draw/lv_draw_rect.c:549:25
	ldrb.w	r0, [r0, #56]
	.loc	9 549 14                        @ lvgl/src/lv_draw/lv_draw_rect.c:549:14
	strb.w	r0, [sp, #359]
.Ltmp21:
	.loc	9 551 8 is_stmt 1               @ lvgl/src/lv_draw/lv_draw_rect.c:551:8
	ldrb.w	r0, [sp, #359]
.Ltmp22:
	.loc	9 551 8 is_stmt 0               @ lvgl/src/lv_draw/lv_draw_rect.c:551:8
	cmp	r0, #254
	blt	.LBB4_11
	b	.LBB4_10
.LBB4_10:
	.loc	9 0 8                           @ lvgl/src/lv_draw/lv_draw_rect.c:0:8
	movs	r0, #255
.Ltmp23:
	.loc	9 551 30                        @ lvgl/src/lv_draw/lv_draw_rect.c:551:30
	strb.w	r0, [sp, #359]
	.loc	9 551 26                        @ lvgl/src/lv_draw/lv_draw_rect.c:551:26
	b	.LBB4_11
.Ltmp24:
.LBB4_11:
	.loc	9 553 27 is_stmt 1              @ lvgl/src/lv_draw/lv_draw_rect.c:553:27
	bl	_lv_refr_get_disp_refreshing
	.loc	9 553 17 is_stmt 0              @ lvgl/src/lv_draw/lv_draw_rect.c:553:17
	str	r0, [sp, #352]
	.loc	9 554 43 is_stmt 1              @ lvgl/src/lv_draw/lv_draw_rect.c:554:43
	ldr	r0, [sp, #352]
	.loc	9 554 27 is_stmt 0              @ lvgl/src/lv_draw/lv_draw_rect.c:554:27
	bl	lv_disp_get_buf
	.loc	9 554 21                        @ lvgl/src/lv_draw/lv_draw_rect.c:554:21
	str	r0, [sp, #348]
	.loc	9 560 58 is_stmt 1              @ lvgl/src/lv_draw/lv_draw_rect.c:560:58
	ldr	r2, [sp, #384]
	add	r0, sp, #340
	add	r1, sp, #360
	.loc	9 560 17 is_stmt 0              @ lvgl/src/lv_draw/lv_draw_rect.c:560:17
	bl	_lv_area_intersect
	.loc	9 560 15                        @ lvgl/src/lv_draw/lv_draw_rect.c:560:15
	strb.w	r0, [sp, #339]
.Ltmp25:
	.loc	9 561 8 is_stmt 1               @ lvgl/src/lv_draw/lv_draw_rect.c:561:8
	ldrb.w	r0, [sp, #339]
.Ltmp26:
	.loc	9 561 8 is_stmt 0               @ lvgl/src/lv_draw/lv_draw_rect.c:561:8
	lsls	r0, r0, #31
	cbnz	r0, .LBB4_13
	b	.LBB4_12
.LBB4_12:
.Ltmp27:
	.loc	9 561 28                        @ lvgl/src/lv_draw/lv_draw_rect.c:561:28
	b.w	.LBB4_189
.Ltmp28:
.LBB4_13:
	.loc	9 563 36 is_stmt 1              @ lvgl/src/lv_draw/lv_draw_rect.c:563:36
	ldr	r0, [sp, #348]
	.loc	9 563 41 is_stmt 0              @ lvgl/src/lv_draw/lv_draw_rect.c:563:41
	adds	r0, #16
	.loc	9 563 23                        @ lvgl/src/lv_draw/lv_draw_rect.c:563:23
	str	r0, [sp, #332]
	.loc	9 567 21 is_stmt 1              @ lvgl/src/lv_draw/lv_draw_rect.c:567:21
	ldr	r0, [sp, #332]
	ldrh	r1, [r0]
	.loc	9 567 18 is_stmt 0              @ lvgl/src/lv_draw/lv_draw_rect.c:567:18
	ldrh.w	r0, [sp, #340]
	subs	r0, r0, r1
	strh.w	r0, [sp, #340]
	.loc	9 568 21 is_stmt 1              @ lvgl/src/lv_draw/lv_draw_rect.c:568:21
	ldr	r0, [sp, #332]
	ldrh	r1, [r0, #2]
	.loc	9 568 18 is_stmt 0              @ lvgl/src/lv_draw/lv_draw_rect.c:568:18
	ldrh.w	r0, [sp, #342]
	subs	r0, r0, r1
	strh.w	r0, [sp, #342]
	.loc	9 569 21 is_stmt 1              @ lvgl/src/lv_draw/lv_draw_rect.c:569:21
	ldr	r0, [sp, #332]
	ldrh	r1, [r0]
	.loc	9 569 18 is_stmt 0              @ lvgl/src/lv_draw/lv_draw_rect.c:569:18
	ldrh.w	r0, [sp, #344]
	subs	r0, r0, r1
	strh.w	r0, [sp, #344]
	.loc	9 570 21 is_stmt 1              @ lvgl/src/lv_draw/lv_draw_rect.c:570:21
	ldr	r0, [sp, #332]
	ldrh	r1, [r0, #2]
	.loc	9 570 18 is_stmt 0              @ lvgl/src/lv_draw/lv_draw_rect.c:570:18
	ldrh.w	r0, [sp, #346]
	subs	r0, r0, r1
	strh.w	r0, [sp, #346]
	.loc	9 574 30 is_stmt 1              @ lvgl/src/lv_draw/lv_draw_rect.c:574:30
	ldr	r1, [sp, #388]
	add	r0, sp, #324
	.loc	9 574 5 is_stmt 0               @ lvgl/src/lv_draw/lv_draw_rect.c:574:5
	str	r0, [sp, #100]                  @ 4-byte Spill
	bl	lv_area_copy
	ldr	r0, [sp, #100]                  @ 4-byte Reload
	.loc	9 575 18 is_stmt 1              @ lvgl/src/lv_draw/lv_draw_rect.c:575:18
	ldrh.w	r1, [sp, #324]
	adds	r1, #1
	strh.w	r1, [sp, #324]
	.loc	9 576 18                        @ lvgl/src/lv_draw/lv_draw_rect.c:576:18
	ldrh.w	r1, [sp, #326]
	adds	r1, #1
	strh.w	r1, [sp, #326]
	.loc	9 577 18                        @ lvgl/src/lv_draw/lv_draw_rect.c:577:18
	ldrh.w	r1, [sp, #328]
	subs	r1, #1
	strh.w	r1, [sp, #328]
	.loc	9 578 18                        @ lvgl/src/lv_draw/lv_draw_rect.c:578:18
	ldrh.w	r1, [sp, #330]
	subs	r1, #1
	strh.w	r1, [sp, #330]
	.loc	9 581 20                        @ lvgl/src/lv_draw/lv_draw_rect.c:581:20
	ldr	r1, [sp, #380]
	.loc	9 581 25 is_stmt 0              @ lvgl/src/lv_draw/lv_draw_rect.c:581:25
	ldrsh.w	r1, [r1]
	.loc	9 581 13                        @ lvgl/src/lv_draw/lv_draw_rect.c:581:13
	str	r1, [sp, #320]
	.loc	9 582 26 is_stmt 1              @ lvgl/src/lv_draw/lv_draw_rect.c:582:26
	bl	lv_area_get_width
	mov	r1, r0
	ldr	r0, [sp, #100]                  @ 4-byte Reload
	str	r1, [sp, #104]                  @ 4-byte Spill
	bl	lv_area_get_height
	mov	r1, r0
	ldr	r0, [sp, #104]                  @ 4-byte Reload
	cmp	r0, r1
	bge	.LBB4_15
	b	.LBB4_14
.LBB4_14:
	.loc	9 0 26 is_stmt 0                @ lvgl/src/lv_draw/lv_draw_rect.c:0:26
	add	r0, sp, #324
	.loc	9 582 26                        @ lvgl/src/lv_draw/lv_draw_rect.c:582:26
	bl	lv_area_get_width
	str	r0, [sp, #96]                   @ 4-byte Spill
	b	.LBB4_16
.LBB4_15:
	.loc	9 0 26                          @ lvgl/src/lv_draw/lv_draw_rect.c:0:26
	add	r0, sp, #324
	.loc	9 582 26                        @ lvgl/src/lv_draw/lv_draw_rect.c:582:26
	bl	lv_area_get_height
	str	r0, [sp, #96]                   @ 4-byte Spill
	b	.LBB4_16
.LBB4_16:
	ldr	r0, [sp, #96]                   @ 4-byte Reload
	.loc	9 582 13                        @ lvgl/src/lv_draw/lv_draw_rect.c:582:13
	str	r0, [sp, #316]
.Ltmp29:
	.loc	9 583 8 is_stmt 1               @ lvgl/src/lv_draw/lv_draw_rect.c:583:8
	ldr	r0, [sp, #320]
	.loc	9 583 15 is_stmt 0              @ lvgl/src/lv_draw/lv_draw_rect.c:583:15
	ldr	r1, [sp, #316]
.Ltmp30:
	.loc	9 583 8                         @ lvgl/src/lv_draw/lv_draw_rect.c:583:8
	cmp.w	r0, r1, asr #1
	ble	.LBB4_18
	b	.LBB4_17
.LBB4_17:
.Ltmp31:
	.loc	9 583 39                        @ lvgl/src/lv_draw/lv_draw_rect.c:583:39
	ldr	r0, [sp, #316]
	.loc	9 583 50                        @ lvgl/src/lv_draw/lv_draw_rect.c:583:50
	asrs	r0, r0, #1
	.loc	9 583 37                        @ lvgl/src/lv_draw/lv_draw_rect.c:583:37
	str	r0, [sp, #320]
	.loc	9 583 32                        @ lvgl/src/lv_draw/lv_draw_rect.c:583:32
	b	.LBB4_18
.Ltmp32:
.LBB4_18:
	.loc	9 585 20 is_stmt 1              @ lvgl/src/lv_draw/lv_draw_rect.c:585:20
	ldr	r0, [sp, #380]
	.loc	9 585 25 is_stmt 0              @ lvgl/src/lv_draw/lv_draw_rect.c:585:25
	ldrsh.w	r0, [r0]
	.loc	9 585 13                        @ lvgl/src/lv_draw/lv_draw_rect.c:585:13
	str	r0, [sp, #312]
	add	r0, sp, #368
	.loc	9 586 18 is_stmt 1              @ lvgl/src/lv_draw/lv_draw_rect.c:586:18
	str	r0, [sp, #88]                   @ 4-byte Spill
	bl	lv_area_get_width
	mov	r1, r0
	ldr	r0, [sp, #88]                   @ 4-byte Reload
	str	r1, [sp, #92]                   @ 4-byte Spill
	bl	lv_area_get_height
	mov	r1, r0
	ldr	r0, [sp, #92]                   @ 4-byte Reload
	cmp	r0, r1
	bge	.LBB4_20
	b	.LBB4_19
.LBB4_19:
	.loc	9 0 18 is_stmt 0                @ lvgl/src/lv_draw/lv_draw_rect.c:0:18
	add	r0, sp, #368
	.loc	9 586 18                        @ lvgl/src/lv_draw/lv_draw_rect.c:586:18
	bl	lv_area_get_width
	str	r0, [sp, #84]                   @ 4-byte Spill
	b	.LBB4_21
.LBB4_20:
	.loc	9 0 18                          @ lvgl/src/lv_draw/lv_draw_rect.c:0:18
	add	r0, sp, #368
	.loc	9 586 18                        @ lvgl/src/lv_draw/lv_draw_rect.c:586:18
	bl	lv_area_get_height
	str	r0, [sp, #84]                   @ 4-byte Spill
	b	.LBB4_21
.LBB4_21:
	ldr	r0, [sp, #84]                   @ 4-byte Reload
	.loc	9 586 16                        @ lvgl/src/lv_draw/lv_draw_rect.c:586:16
	str	r0, [sp, #316]
.Ltmp33:
	.loc	9 587 8 is_stmt 1               @ lvgl/src/lv_draw/lv_draw_rect.c:587:8
	ldr	r0, [sp, #312]
	.loc	9 587 15 is_stmt 0              @ lvgl/src/lv_draw/lv_draw_rect.c:587:15
	ldr	r1, [sp, #316]
.Ltmp34:
	.loc	9 587 8                         @ lvgl/src/lv_draw/lv_draw_rect.c:587:8
	cmp.w	r0, r1, asr #1
	ble	.LBB4_23
	b	.LBB4_22
.LBB4_22:
.Ltmp35:
	.loc	9 587 39                        @ lvgl/src/lv_draw/lv_draw_rect.c:587:39
	ldr	r0, [sp, #316]
	.loc	9 587 50                        @ lvgl/src/lv_draw/lv_draw_rect.c:587:50
	asrs	r0, r0, #1
	.loc	9 587 37                        @ lvgl/src/lv_draw/lv_draw_rect.c:587:37
	str	r0, [sp, #312]
	.loc	9 587 32                        @ lvgl/src/lv_draw/lv_draw_rect.c:587:32
	b	.LBB4_23
.Ltmp36:
.LBB4_23:
	.loc	9 589 27 is_stmt 1              @ lvgl/src/lv_draw/lv_draw_rect.c:589:27
	ldr	r0, [sp, #376]
	.loc	9 589 33 is_stmt 0              @ lvgl/src/lv_draw/lv_draw_rect.c:589:33
	ldr	r1, [sp, #312]
	.loc	9 589 31                        @ lvgl/src/lv_draw/lv_draw_rect.c:589:31
	add	r0, r1
	.loc	9 589 13                        @ lvgl/src/lv_draw/lv_draw_rect.c:589:13
	str	r0, [sp, #308]
	.loc	9 612 30 is_stmt 1              @ lvgl/src/lv_draw/lv_draw_rect.c:612:30
	ldr	r0, [sp, #308]
	.loc	9 612 42 is_stmt 0              @ lvgl/src/lv_draw/lv_draw_rect.c:612:42
	muls	r0, r0, r0
	.loc	9 612 56                        @ lvgl/src/lv_draw/lv_draw_rect.c:612:56
	lsls	r0, r0, #1
	.loc	9 612 14                        @ lvgl/src/lv_draw/lv_draw_rect.c:612:14
	bl	_lv_mem_buf_get
	.loc	9 612 12                        @ lvgl/src/lv_draw/lv_draw_rect.c:612:12
	str	r0, [sp, #304]
	.loc	9 613 55 is_stmt 1              @ lvgl/src/lv_draw/lv_draw_rect.c:613:55
	ldr	r1, [sp, #304]
	.loc	9 613 63 is_stmt 0              @ lvgl/src/lv_draw/lv_draw_rect.c:613:63
	ldr	r0, [sp, #380]
	.loc	9 613 68                        @ lvgl/src/lv_draw/lv_draw_rect.c:613:68
	ldrsh.w	r2, [r0, #48]
	.loc	9 613 82                        @ lvgl/src/lv_draw/lv_draw_rect.c:613:82
	ldrsh.w	r3, [sp, #312]
	add	r0, sp, #368
	.loc	9 613 5                         @ lvgl/src/lv_draw/lv_draw_rect.c:613:5
	bl	shadow_draw_corner_buf
	.loc	9 616 25 is_stmt 1              @ lvgl/src/lv_draw/lv_draw_rect.c:616:25
	ldrh.w	r0, [sp, #362]
	.loc	9 616 38 is_stmt 0              @ lvgl/src/lv_draw/lv_draw_rect.c:616:38
	str	r0, [sp, #72]                   @ 4-byte Spill
	add	r0, sp, #360
	str	r0, [sp, #76]                   @ 4-byte Spill
	bl	lv_area_get_height
	ldr	r1, [sp, #72]                   @ 4-byte Reload
	mov	r2, r0
	.loc	9 616 67                        @ lvgl/src/lv_draw/lv_draw_rect.c:616:67
	ldr	r0, [sp, #76]                   @ 4-byte Reload
	add.w	r2, r2, r2, lsr #31
	.loc	9 616 36                        @ lvgl/src/lv_draw/lv_draw_rect.c:616:36
	add.w	r1, r1, r2, lsr #1
	.loc	9 616 16                        @ lvgl/src/lv_draw/lv_draw_rect.c:616:16
	strh.w	r1, [sp, #302]
	.loc	9 617 25 is_stmt 1              @ lvgl/src/lv_draw/lv_draw_rect.c:617:25
	ldrh.w	r1, [sp, #360]
	.loc	9 617 38 is_stmt 0              @ lvgl/src/lv_draw/lv_draw_rect.c:617:38
	str	r1, [sp, #80]                   @ 4-byte Spill
	bl	lv_area_get_width
	mov	r1, r0
	.loc	9 617 66                        @ lvgl/src/lv_draw/lv_draw_rect.c:617:66
	ldr	r0, [sp, #80]                   @ 4-byte Reload
	add.w	r1, r1, r1, lsr #31
	.loc	9 617 36                        @ lvgl/src/lv_draw/lv_draw_rect.c:617:36
	add.w	r0, r0, r1, lsr #1
	.loc	9 617 16                        @ lvgl/src/lv_draw/lv_draw_rect.c:617:16
	strh.w	r0, [sp, #300]
	movs	r0, #1
	.loc	9 619 10 is_stmt 1              @ lvgl/src/lv_draw/lv_draw_rect.c:619:10
	strb.w	r0, [sp, #299]
.Ltmp37:
	.loc	9 620 8                         @ lvgl/src/lv_draw/lv_draw_rect.c:620:8
	bl	lv_draw_mask_get_cnt
.Ltmp38:
	.loc	9 620 8 is_stmt 0               @ lvgl/src/lv_draw/lv_draw_rect.c:620:8
	cmp	r0, #1
	blt	.LBB4_25
	b	.LBB4_24
.LBB4_24:
	.loc	9 0 8                           @ lvgl/src/lv_draw/lv_draw_rect.c:0:8
	movs	r0, #0
.Ltmp39:
	.loc	9 620 48                        @ lvgl/src/lv_draw/lv_draw_rect.c:620:48
	strb.w	r0, [sp, #299]
	.loc	9 620 36                        @ lvgl/src/lv_draw/lv_draw_rect.c:620:36
	b	.LBB4_32
.LBB4_25:
.Ltmp40:
	.loc	9 621 13 is_stmt 1              @ lvgl/src/lv_draw/lv_draw_rect.c:621:13
	ldr	r0, [sp, #380]
	.loc	9 621 18 is_stmt 0              @ lvgl/src/lv_draw/lv_draw_rect.c:621:18
	ldrsh.w	r0, [r0, #50]
	.loc	9 621 36                        @ lvgl/src/lv_draw/lv_draw_rect.c:621:36
	cbnz	r0, .LBB4_27
	b	.LBB4_26
.LBB4_26:
	.loc	9 621 39                        @ lvgl/src/lv_draw/lv_draw_rect.c:621:39
	ldr	r0, [sp, #380]
	.loc	9 621 44                        @ lvgl/src/lv_draw/lv_draw_rect.c:621:44
	ldrsh.w	r0, [r0, #52]
.Ltmp41:
	.loc	9 621 13                        @ lvgl/src/lv_draw/lv_draw_rect.c:621:13
	cbz	r0, .LBB4_28
	b	.LBB4_27
.LBB4_27:
	.loc	9 0 13                          @ lvgl/src/lv_draw/lv_draw_rect.c:0:13
	movs	r0, #0
.Ltmp42:
	.loc	9 621 75                        @ lvgl/src/lv_draw/lv_draw_rect.c:621:75
	strb.w	r0, [sp, #299]
	.loc	9 621 63                        @ lvgl/src/lv_draw/lv_draw_rect.c:621:63
	b	.LBB4_31
.LBB4_28:
.Ltmp43:
	.loc	9 622 13 is_stmt 1              @ lvgl/src/lv_draw/lv_draw_rect.c:622:13
	ldr	r0, [sp, #380]
	.loc	9 622 18 is_stmt 0              @ lvgl/src/lv_draw/lv_draw_rect.c:622:18
	ldrsh.w	r0, [r0, #54]
.Ltmp44:
	.loc	9 622 13                        @ lvgl/src/lv_draw/lv_draw_rect.c:622:13
	cbz	r0, .LBB4_30
	b	.LBB4_29
.LBB4_29:
	.loc	9 0 13                          @ lvgl/src/lv_draw/lv_draw_rect.c:0:13
	movs	r0, #0
.Ltmp45:
	.loc	9 622 50                        @ lvgl/src/lv_draw/lv_draw_rect.c:622:50
	strb.w	r0, [sp, #299]
	.loc	9 622 38                        @ lvgl/src/lv_draw/lv_draw_rect.c:622:38
	b	.LBB4_30
.Ltmp46:
.LBB4_30:
	.loc	9 0 38                          @ lvgl/src/lv_draw/lv_draw_rect.c:0:38
	b	.LBB4_31
.LBB4_31:
	b	.LBB4_32
.LBB4_32:
	add	r0, sp, #360
	.loc	9 626 43 is_stmt 1              @ lvgl/src/lv_draw/lv_draw_rect.c:626:43
	bl	lv_area_get_width
	.loc	9 626 27 is_stmt 0              @ lvgl/src/lv_draw/lv_draw_rect.c:626:27
	bl	_lv_mem_buf_get
	.loc	9 626 16                        @ lvgl/src/lv_draw/lv_draw_rect.c:626:16
	str	r0, [sp, #292]
	.loc	9 629 60 is_stmt 1              @ lvgl/src/lv_draw/lv_draw_rect.c:629:60
	ldrsh.w	r2, [sp, #320]
	add	r0, sp, #264
	str	r0, [sp, #68]                   @ 4-byte Spill
	add	r1, sp, #324
	movs	r3, #1
	.loc	9 629 5 is_stmt 0               @ lvgl/src/lv_draw/lv_draw_rect.c:629:5
	bl	lv_draw_mask_radius_init
	ldr	r0, [sp, #68]                   @ 4-byte Reload
	movs	r1, #0
	.loc	9 631 28 is_stmt 1              @ lvgl/src/lv_draw/lv_draw_rect.c:631:28
	bl	lv_draw_mask_add
	.loc	9 631 13 is_stmt 0              @ lvgl/src/lv_draw/lv_draw_rect.c:631:13
	strh.w	r0, [sp, #262]
	.loc	9 638 20 is_stmt 1              @ lvgl/src/lv_draw/lv_draw_rect.c:638:20
	ldrh.w	r0, [sp, #364]
	.loc	9 638 10 is_stmt 0              @ lvgl/src/lv_draw/lv_draw_rect.c:638:10
	strh.w	r0, [sp, #256]
	.loc	9 639 12 is_stmt 1              @ lvgl/src/lv_draw/lv_draw_rect.c:639:12
	ldrh.w	r0, [sp, #256]
	.loc	9 639 19 is_stmt 0              @ lvgl/src/lv_draw/lv_draw_rect.c:639:19
	ldr	r1, [sp, #308]
	.loc	9 639 17                        @ lvgl/src/lv_draw/lv_draw_rect.c:639:17
	subs	r0, r0, r1
	.loc	9 639 31                        @ lvgl/src/lv_draw/lv_draw_rect.c:639:31
	adds	r0, #1
	.loc	9 639 10                        @ lvgl/src/lv_draw/lv_draw_rect.c:639:10
	strh.w	r0, [sp, #252]
	.loc	9 640 20 is_stmt 1              @ lvgl/src/lv_draw/lv_draw_rect.c:640:20
	ldrh.w	r0, [sp, #362]
	.loc	9 640 10 is_stmt 0              @ lvgl/src/lv_draw/lv_draw_rect.c:640:10
	strh.w	r0, [sp, #254]
	.loc	9 641 12 is_stmt 1              @ lvgl/src/lv_draw/lv_draw_rect.c:641:12
	ldrh.w	r0, [sp, #254]
	.loc	9 641 19 is_stmt 0              @ lvgl/src/lv_draw/lv_draw_rect.c:641:19
	ldr	r1, [sp, #308]
	.loc	9 641 17                        @ lvgl/src/lv_draw/lv_draw_rect.c:641:17
	add	r0, r1
	.loc	9 641 31                        @ lvgl/src/lv_draw/lv_draw_rect.c:641:31
	subs	r0, #1
	.loc	9 641 10                        @ lvgl/src/lv_draw/lv_draw_rect.c:641:10
	strh.w	r0, [sp, #258]
	.loc	9 644 48 is_stmt 1              @ lvgl/src/lv_draw/lv_draw_rect.c:644:48
	ldr	r2, [sp, #384]
	add	r0, sp, #236
	add	r1, sp, #252
	.loc	9 644 20 is_stmt 0              @ lvgl/src/lv_draw/lv_draw_rect.c:644:20
	bl	_lv_area_intersect
	.loc	9 644 10                        @ lvgl/src/lv_draw/lv_draw_rect.c:644:10
	strb.w	r0, [sp, #235]
.Ltmp47:
	.loc	9 645 8 is_stmt 1               @ lvgl/src/lv_draw/lv_draw_rect.c:645:8
	ldrb.w	r0, [sp, #235]
	.loc	9 645 16 is_stmt 0              @ lvgl/src/lv_draw/lv_draw_rect.c:645:16
	lsls	r0, r0, #31
	cmp	r0, #0
	beq.w	.LBB4_47
	b	.LBB4_33
.LBB4_33:
	.loc	9 645 50                        @ lvgl/src/lv_draw/lv_draw_rect.c:645:50
	ldrsh.w	r2, [sp, #320]
	add	r0, sp, #252
	add	r1, sp, #324
	.loc	9 645 19                        @ lvgl/src/lv_draw/lv_draw_rect.c:645:19
	bl	_lv_area_is_in
.Ltmp48:
	.loc	9 645 8                         @ lvgl/src/lv_draw/lv_draw_rect.c:645:8
	cmp	r0, #0
	bne.w	.LBB4_47
	b	.LBB4_34
.LBB4_34:
.Ltmp49:
	.loc	9 647 15 is_stmt 1              @ lvgl/src/lv_draw/lv_draw_rect.c:647:15
	ldrsh.w	r0, [sp, #242]
	.loc	9 647 20 is_stmt 0              @ lvgl/src/lv_draw/lv_draw_rect.c:647:20
	ldrsh.w	r1, [sp, #302]
.Ltmp50:
	.loc	9 647 12                        @ lvgl/src/lv_draw/lv_draw_rect.c:647:12
	cmp	r0, r1
	ble	.LBB4_36
	b	.LBB4_35
.LBB4_35:
.Ltmp51:
	.loc	9 647 36                        @ lvgl/src/lv_draw/lv_draw_rect.c:647:36
	ldrh.w	r0, [sp, #302]
	.loc	9 647 34                        @ lvgl/src/lv_draw/lv_draw_rect.c:647:34
	strh.w	r0, [sp, #242]
	.loc	9 647 28                        @ lvgl/src/lv_draw/lv_draw_rect.c:647:28
	b	.LBB4_36
.Ltmp52:
.LBB4_36:
	.loc	9 648 15 is_stmt 1              @ lvgl/src/lv_draw/lv_draw_rect.c:648:15
	ldrsh.w	r0, [sp, #236]
	.loc	9 648 21 is_stmt 0              @ lvgl/src/lv_draw/lv_draw_rect.c:648:21
	ldrsh.w	r1, [sp, #300]
.Ltmp53:
	.loc	9 648 12                        @ lvgl/src/lv_draw/lv_draw_rect.c:648:12
	cmp	r0, r1
	bgt	.LBB4_38
	b	.LBB4_37
.LBB4_37:
.Ltmp54:
	.loc	9 648 37                        @ lvgl/src/lv_draw/lv_draw_rect.c:648:37
	ldrh.w	r0, [sp, #300]
	.loc	9 648 44                        @ lvgl/src/lv_draw/lv_draw_rect.c:648:44
	adds	r0, #1
	.loc	9 648 35                        @ lvgl/src/lv_draw/lv_draw_rect.c:648:35
	strh.w	r0, [sp, #236]
	.loc	9 648 29                        @ lvgl/src/lv_draw/lv_draw_rect.c:648:29
	b	.LBB4_38
.Ltmp55:
.LBB4_38:
	.loc	9 0 29                          @ lvgl/src/lv_draw/lv_draw_rect.c:0:29
	add	r0, sp, #236
	.loc	9 650 24 is_stmt 1              @ lvgl/src/lv_draw/lv_draw_rect.c:650:24
	str	r0, [sp, #64]                   @ 4-byte Spill
	bl	lv_area_get_height
	mov	r1, r0
	.loc	9 650 20 is_stmt 0              @ lvgl/src/lv_draw/lv_draw_rect.c:650:20
	ldr	r0, [sp, #64]                   @ 4-byte Reload
	strh.w	r1, [sp, #232]
	.loc	9 651 24 is_stmt 1              @ lvgl/src/lv_draw/lv_draw_rect.c:651:24
	bl	lv_area_get_width
	.loc	9 651 20 is_stmt 0              @ lvgl/src/lv_draw/lv_draw_rect.c:651:20
	strh.w	r0, [sp, #230]
.Ltmp56:
	.loc	9 652 12 is_stmt 1              @ lvgl/src/lv_draw/lv_draw_rect.c:652:12
	ldrsh.w	r0, [sp, #230]
.Ltmp57:
	.loc	9 652 12 is_stmt 0              @ lvgl/src/lv_draw/lv_draw_rect.c:652:12
	cmp	r0, #1
	blt	.LBB4_46
	b	.LBB4_39
.LBB4_39:
.Ltmp58:
	.loc	9 653 26 is_stmt 1              @ lvgl/src/lv_draw/lv_draw_rect.c:653:26
	ldr	r0, [sp, #304]
	.loc	9 653 39 is_stmt 0              @ lvgl/src/lv_draw/lv_draw_rect.c:653:39
	ldrsh.w	r1, [sp, #236]
	.loc	9 653 46                        @ lvgl/src/lv_draw/lv_draw_rect.c:653:46
	ldrsh.w	r2, [sp, #252]
	.loc	9 653 42                        @ lvgl/src/lv_draw/lv_draw_rect.c:653:42
	subs	r1, r1, r2
	.loc	9 653 33                        @ lvgl/src/lv_draw/lv_draw_rect.c:653:33
	add	r0, r1
	.loc	9 653 24                        @ lvgl/src/lv_draw/lv_draw_rect.c:653:24
	str	r0, [sp, #244]
	.loc	9 654 27 is_stmt 1              @ lvgl/src/lv_draw/lv_draw_rect.c:654:27
	ldr	r0, [sp, #308]
	.loc	9 654 45 is_stmt 0              @ lvgl/src/lv_draw/lv_draw_rect.c:654:45
	ldrsh.w	r1, [sp, #238]
	.loc	9 654 52                        @ lvgl/src/lv_draw/lv_draw_rect.c:654:52
	ldrsh.w	r2, [sp, #254]
	.loc	9 654 48                        @ lvgl/src/lv_draw/lv_draw_rect.c:654:48
	subs	r1, r1, r2
	.loc	9 654 24                        @ lvgl/src/lv_draw/lv_draw_rect.c:654:24
	ldr	r2, [sp, #244]
	mla	r0, r0, r1, r2
	str	r0, [sp, #244]
	add	r0, sp, #220
	add	r1, sp, #236
	.loc	9 657 13 is_stmt 1              @ lvgl/src/lv_draw/lv_draw_rect.c:657:13
	bl	lv_area_copy
	.loc	9 658 24                        @ lvgl/src/lv_draw/lv_draw_rect.c:658:24
	ldrh.w	r0, [sp, #222]
	.loc	9 658 19 is_stmt 0              @ lvgl/src/lv_draw/lv_draw_rect.c:658:19
	strh.w	r0, [sp, #226]
	movs	r0, #0
.Ltmp59:
	.loc	9 660 19 is_stmt 1              @ lvgl/src/lv_draw/lv_draw_rect.c:660:19
	str	r0, [sp, #248]
	.loc	9 660 17 is_stmt 0              @ lvgl/src/lv_draw/lv_draw_rect.c:660:17
	b	.LBB4_40
.LBB4_40:                               @ =>This Inner Loop Header: Depth=1
.Ltmp60:
	.loc	9 660 24                        @ lvgl/src/lv_draw/lv_draw_rect.c:660:24
	ldr	r0, [sp, #248]
	.loc	9 660 28                        @ lvgl/src/lv_draw/lv_draw_rect.c:660:28
	ldrsh.w	r1, [sp, #232]
.Ltmp61:
	.loc	9 660 13                        @ lvgl/src/lv_draw/lv_draw_rect.c:660:13
	cmp	r0, r1
	bge	.LBB4_45
	b	.LBB4_41
.LBB4_41:                               @   in Loop: Header=BB4_40 Depth=1
.Ltmp62:
	.loc	9 661 28 is_stmt 1              @ lvgl/src/lv_draw/lv_draw_rect.c:661:28
	ldr	r0, [sp, #292]
	.loc	9 661 38 is_stmt 0              @ lvgl/src/lv_draw/lv_draw_rect.c:661:38
	ldr	r1, [sp, #244]
	.loc	9 661 50                        @ lvgl/src/lv_draw/lv_draw_rect.c:661:50
	ldrsh.w	r2, [sp, #230]
	.loc	9 661 17                        @ lvgl/src/lv_draw/lv_draw_rect.c:661:17
	bl	_lv_memcpy
	.loc	9 662 47 is_stmt 1              @ lvgl/src/lv_draw/lv_draw_rect.c:662:47
	ldr	r0, [sp, #292]
	.loc	9 662 60 is_stmt 0              @ lvgl/src/lv_draw/lv_draw_rect.c:662:60
	ldrsh.w	r1, [sp, #220]
	.loc	9 662 67                        @ lvgl/src/lv_draw/lv_draw_rect.c:662:67
	ldrsh.w	r2, [sp, #222]
	.loc	9 662 71                        @ lvgl/src/lv_draw/lv_draw_rect.c:662:71
	ldrsh.w	r3, [sp, #230]
	.loc	9 662 28                        @ lvgl/src/lv_draw/lv_draw_rect.c:662:28
	bl	lv_draw_mask_apply
	.loc	9 662 26                        @ lvgl/src/lv_draw/lv_draw_rect.c:662:26
	strb.w	r0, [sp, #298]
.Ltmp63:
	.loc	9 663 20 is_stmt 1              @ lvgl/src/lv_draw/lv_draw_rect.c:663:20
	ldrb.w	r0, [sp, #298]
.Ltmp64:
	.loc	9 663 20 is_stmt 0              @ lvgl/src/lv_draw/lv_draw_rect.c:663:20
	cmp	r0, #1
	bne	.LBB4_43
	b	.LBB4_42
.LBB4_42:                               @   in Loop: Header=BB4_40 Depth=1
	.loc	9 0 20                          @ lvgl/src/lv_draw/lv_draw_rect.c:0:20
	movs	r0, #2
.Ltmp65:
	.loc	9 663 70                        @ lvgl/src/lv_draw/lv_draw_rect.c:663:70
	strb.w	r0, [sp, #298]
	.loc	9 663 61                        @ lvgl/src/lv_draw/lv_draw_rect.c:663:61
	b	.LBB4_43
.Ltmp66:
.LBB4_43:                               @   in Loop: Header=BB4_40 Depth=1
	.loc	9 665 32 is_stmt 1              @ lvgl/src/lv_draw/lv_draw_rect.c:665:32
	ldr	r0, [sp, #384]
	.loc	9 665 43 is_stmt 0              @ lvgl/src/lv_draw/lv_draw_rect.c:665:43
	ldr	r2, [sp, #380]
	.loc	9 665 62                        @ lvgl/src/lv_draw/lv_draw_rect.c:665:62
	ldr	r3, [sp, #292]
	.loc	9 666 32 is_stmt 1              @ lvgl/src/lv_draw/lv_draw_rect.c:666:32
	ldrb.w	r1, [sp, #298]
	.loc	9 666 42 is_stmt 0              @ lvgl/src/lv_draw/lv_draw_rect.c:666:42
	ldrb.w	lr, [sp, #359]
	.loc	9 666 52                        @ lvgl/src/lv_draw/lv_draw_rect.c:666:52
	ldrb.w	r4, [r2, #57]
	.loc	9 665 17 is_stmt 1              @ lvgl/src/lv_draw/lv_draw_rect.c:665:17
	ldr	r2, [r2, #44]
	mov	r12, sp
	str.w	r4, [r12, #8]
	str.w	lr, [r12, #4]
	str.w	r1, [r12]
	add	r1, sp, #220
	bl	_lv_blend_fill
	.loc	9 667 22                        @ lvgl/src/lv_draw/lv_draw_rect.c:667:22
	ldrh.w	r0, [sp, #222]
	adds	r0, #1
	strh.w	r0, [sp, #222]
	.loc	9 668 22                        @ lvgl/src/lv_draw/lv_draw_rect.c:668:22
	ldrh.w	r0, [sp, #226]
	adds	r0, #1
	strh.w	r0, [sp, #226]
	.loc	9 669 31                        @ lvgl/src/lv_draw/lv_draw_rect.c:669:31
	ldr	r1, [sp, #308]
	.loc	9 669 28 is_stmt 0              @ lvgl/src/lv_draw/lv_draw_rect.c:669:28
	ldr	r0, [sp, #244]
	add	r0, r1
	str	r0, [sp, #244]
	.loc	9 670 13 is_stmt 1              @ lvgl/src/lv_draw/lv_draw_rect.c:670:13
	b	.LBB4_44
.Ltmp67:
.LBB4_44:                               @   in Loop: Header=BB4_40 Depth=1
	.loc	9 660 32                        @ lvgl/src/lv_draw/lv_draw_rect.c:660:32
	ldr	r0, [sp, #248]
	adds	r0, #1
	str	r0, [sp, #248]
	.loc	9 660 13 is_stmt 0              @ lvgl/src/lv_draw/lv_draw_rect.c:660:13
	b	.LBB4_40
.Ltmp68:
.LBB4_45:
	.loc	9 671 9 is_stmt 1               @ lvgl/src/lv_draw/lv_draw_rect.c:671:9
	b	.LBB4_46
.Ltmp69:
.LBB4_46:
	.loc	9 672 5                         @ lvgl/src/lv_draw/lv_draw_rect.c:672:5
	b	.LBB4_47
.Ltmp70:
.LBB4_47:
	.loc	9 675 20                        @ lvgl/src/lv_draw/lv_draw_rect.c:675:20
	ldrh.w	r0, [sp, #364]
	.loc	9 675 10 is_stmt 0              @ lvgl/src/lv_draw/lv_draw_rect.c:675:10
	strh.w	r0, [sp, #256]
	.loc	9 676 12 is_stmt 1              @ lvgl/src/lv_draw/lv_draw_rect.c:676:12
	ldrh.w	r0, [sp, #256]
	.loc	9 676 19 is_stmt 0              @ lvgl/src/lv_draw/lv_draw_rect.c:676:19
	ldr	r1, [sp, #308]
	.loc	9 676 17                        @ lvgl/src/lv_draw/lv_draw_rect.c:676:17
	subs	r0, r0, r1
	.loc	9 676 31                        @ lvgl/src/lv_draw/lv_draw_rect.c:676:31
	adds	r0, #1
	.loc	9 676 10                        @ lvgl/src/lv_draw/lv_draw_rect.c:676:10
	strh.w	r0, [sp, #252]
	.loc	9 677 12 is_stmt 1              @ lvgl/src/lv_draw/lv_draw_rect.c:677:12
	ldrh.w	r0, [sp, #366]
	.loc	9 677 25 is_stmt 0              @ lvgl/src/lv_draw/lv_draw_rect.c:677:25
	ldr	r1, [sp, #308]
	.loc	9 677 23                        @ lvgl/src/lv_draw/lv_draw_rect.c:677:23
	subs	r0, r0, r1
	.loc	9 677 37                        @ lvgl/src/lv_draw/lv_draw_rect.c:677:37
	adds	r0, #1
	.loc	9 677 10                        @ lvgl/src/lv_draw/lv_draw_rect.c:677:10
	strh.w	r0, [sp, #254]
	.loc	9 678 20 is_stmt 1              @ lvgl/src/lv_draw/lv_draw_rect.c:678:20
	ldrh.w	r0, [sp, #366]
	.loc	9 678 10 is_stmt 0              @ lvgl/src/lv_draw/lv_draw_rect.c:678:10
	strh.w	r0, [sp, #258]
	.loc	9 680 43 is_stmt 1              @ lvgl/src/lv_draw/lv_draw_rect.c:680:43
	ldr	r2, [sp, #384]
	add	r0, sp, #236
	add	r1, sp, #252
	.loc	9 680 15 is_stmt 0              @ lvgl/src/lv_draw/lv_draw_rect.c:680:15
	bl	_lv_area_intersect
	.loc	9 680 13                        @ lvgl/src/lv_draw/lv_draw_rect.c:680:13
	strb.w	r0, [sp, #235]
.Ltmp71:
	.loc	9 681 8 is_stmt 1               @ lvgl/src/lv_draw/lv_draw_rect.c:681:8
	ldrb.w	r0, [sp, #235]
	.loc	9 681 16 is_stmt 0              @ lvgl/src/lv_draw/lv_draw_rect.c:681:16
	lsls	r0, r0, #31
	cmp	r0, #0
	beq.w	.LBB4_62
	b	.LBB4_48
.LBB4_48:
	.loc	9 681 50                        @ lvgl/src/lv_draw/lv_draw_rect.c:681:50
	ldrsh.w	r2, [sp, #320]
	add	r0, sp, #252
	add	r1, sp, #324
	.loc	9 681 19                        @ lvgl/src/lv_draw/lv_draw_rect.c:681:19
	bl	_lv_area_is_in
.Ltmp72:
	.loc	9 681 8                         @ lvgl/src/lv_draw/lv_draw_rect.c:681:8
	cmp	r0, #0
	bne.w	.LBB4_62
	b	.LBB4_49
.LBB4_49:
.Ltmp73:
	.loc	9 683 15 is_stmt 1              @ lvgl/src/lv_draw/lv_draw_rect.c:683:15
	ldrsh.w	r0, [sp, #238]
	.loc	9 683 21 is_stmt 0              @ lvgl/src/lv_draw/lv_draw_rect.c:683:21
	ldrsh.w	r1, [sp, #302]
.Ltmp74:
	.loc	9 683 12                        @ lvgl/src/lv_draw/lv_draw_rect.c:683:12
	cmp	r0, r1
	bgt	.LBB4_51
	b	.LBB4_50
.LBB4_50:
.Ltmp75:
	.loc	9 683 37                        @ lvgl/src/lv_draw/lv_draw_rect.c:683:37
	ldrh.w	r0, [sp, #302]
	.loc	9 683 44                        @ lvgl/src/lv_draw/lv_draw_rect.c:683:44
	adds	r0, #1
	.loc	9 683 35                        @ lvgl/src/lv_draw/lv_draw_rect.c:683:35
	strh.w	r0, [sp, #238]
	.loc	9 683 29                        @ lvgl/src/lv_draw/lv_draw_rect.c:683:29
	b	.LBB4_51
.Ltmp76:
.LBB4_51:
	.loc	9 684 15 is_stmt 1              @ lvgl/src/lv_draw/lv_draw_rect.c:684:15
	ldrsh.w	r0, [sp, #236]
	.loc	9 684 21 is_stmt 0              @ lvgl/src/lv_draw/lv_draw_rect.c:684:21
	ldrsh.w	r1, [sp, #300]
.Ltmp77:
	.loc	9 684 12                        @ lvgl/src/lv_draw/lv_draw_rect.c:684:12
	cmp	r0, r1
	bgt	.LBB4_53
	b	.LBB4_52
.LBB4_52:
.Ltmp78:
	.loc	9 684 37                        @ lvgl/src/lv_draw/lv_draw_rect.c:684:37
	ldrh.w	r0, [sp, #300]
	.loc	9 684 44                        @ lvgl/src/lv_draw/lv_draw_rect.c:684:44
	adds	r0, #1
	.loc	9 684 35                        @ lvgl/src/lv_draw/lv_draw_rect.c:684:35
	strh.w	r0, [sp, #236]
	.loc	9 684 29                        @ lvgl/src/lv_draw/lv_draw_rect.c:684:29
	b	.LBB4_53
.Ltmp79:
.LBB4_53:
	.loc	9 0 29                          @ lvgl/src/lv_draw/lv_draw_rect.c:0:29
	add	r0, sp, #236
	.loc	9 686 24 is_stmt 1              @ lvgl/src/lv_draw/lv_draw_rect.c:686:24
	str	r0, [sp, #60]                   @ 4-byte Spill
	bl	lv_area_get_height
	mov	r1, r0
	.loc	9 686 20 is_stmt 0              @ lvgl/src/lv_draw/lv_draw_rect.c:686:20
	ldr	r0, [sp, #60]                   @ 4-byte Reload
	strh.w	r1, [sp, #218]
	.loc	9 687 24 is_stmt 1              @ lvgl/src/lv_draw/lv_draw_rect.c:687:24
	bl	lv_area_get_width
	.loc	9 687 20 is_stmt 0              @ lvgl/src/lv_draw/lv_draw_rect.c:687:20
	strh.w	r0, [sp, #216]
.Ltmp80:
	.loc	9 689 12 is_stmt 1              @ lvgl/src/lv_draw/lv_draw_rect.c:689:12
	ldrsh.w	r0, [sp, #216]
.Ltmp81:
	.loc	9 689 12 is_stmt 0              @ lvgl/src/lv_draw/lv_draw_rect.c:689:12
	cmp	r0, #1
	blt	.LBB4_61
	b	.LBB4_54
.LBB4_54:
.Ltmp82:
	.loc	9 690 26 is_stmt 1              @ lvgl/src/lv_draw/lv_draw_rect.c:690:26
	ldr	r0, [sp, #304]
	.loc	9 690 39 is_stmt 0              @ lvgl/src/lv_draw/lv_draw_rect.c:690:39
	ldrsh.w	r1, [sp, #236]
	.loc	9 690 46                        @ lvgl/src/lv_draw/lv_draw_rect.c:690:46
	ldrsh.w	r2, [sp, #252]
	.loc	9 690 42                        @ lvgl/src/lv_draw/lv_draw_rect.c:690:42
	subs	r1, r1, r2
	.loc	9 690 33                        @ lvgl/src/lv_draw/lv_draw_rect.c:690:33
	add	r0, r1
	.loc	9 690 24                        @ lvgl/src/lv_draw/lv_draw_rect.c:690:24
	str	r0, [sp, #244]
	.loc	9 691 27 is_stmt 1              @ lvgl/src/lv_draw/lv_draw_rect.c:691:27
	ldr	r0, [sp, #308]
	.loc	9 691 44 is_stmt 0              @ lvgl/src/lv_draw/lv_draw_rect.c:691:44
	ldrsh.w	r1, [sp, #258]
	.loc	9 691 52                        @ lvgl/src/lv_draw/lv_draw_rect.c:691:52
	ldrsh.w	r2, [sp, #242]
	.loc	9 691 47                        @ lvgl/src/lv_draw/lv_draw_rect.c:691:47
	subs	r1, r1, r2
	.loc	9 691 24                        @ lvgl/src/lv_draw/lv_draw_rect.c:691:24
	ldr	r2, [sp, #244]
	mla	r0, r0, r1, r2
	str	r0, [sp, #244]
	add	r0, sp, #208
	add	r1, sp, #236
	.loc	9 694 13 is_stmt 1              @ lvgl/src/lv_draw/lv_draw_rect.c:694:13
	bl	lv_area_copy
	.loc	9 695 24                        @ lvgl/src/lv_draw/lv_draw_rect.c:695:24
	ldrh.w	r0, [sp, #214]
	.loc	9 695 19 is_stmt 0              @ lvgl/src/lv_draw/lv_draw_rect.c:695:19
	strh.w	r0, [sp, #210]
	movs	r0, #0
.Ltmp83:
	.loc	9 697 19 is_stmt 1              @ lvgl/src/lv_draw/lv_draw_rect.c:697:19
	str	r0, [sp, #248]
	.loc	9 697 17 is_stmt 0              @ lvgl/src/lv_draw/lv_draw_rect.c:697:17
	b	.LBB4_55
.LBB4_55:                               @ =>This Inner Loop Header: Depth=1
.Ltmp84:
	.loc	9 697 24                        @ lvgl/src/lv_draw/lv_draw_rect.c:697:24
	ldr	r0, [sp, #248]
	.loc	9 697 28                        @ lvgl/src/lv_draw/lv_draw_rect.c:697:28
	ldrsh.w	r1, [sp, #218]
.Ltmp85:
	.loc	9 697 13                        @ lvgl/src/lv_draw/lv_draw_rect.c:697:13
	cmp	r0, r1
	bge	.LBB4_60
	b	.LBB4_56
.LBB4_56:                               @   in Loop: Header=BB4_55 Depth=1
.Ltmp86:
	.loc	9 698 28 is_stmt 1              @ lvgl/src/lv_draw/lv_draw_rect.c:698:28
	ldr	r0, [sp, #292]
	.loc	9 698 38 is_stmt 0              @ lvgl/src/lv_draw/lv_draw_rect.c:698:38
	ldr	r1, [sp, #244]
	.loc	9 698 50                        @ lvgl/src/lv_draw/lv_draw_rect.c:698:50
	ldrsh.w	r2, [sp, #216]
	.loc	9 698 17                        @ lvgl/src/lv_draw/lv_draw_rect.c:698:17
	bl	_lv_memcpy
	.loc	9 699 47 is_stmt 1              @ lvgl/src/lv_draw/lv_draw_rect.c:699:47
	ldr	r0, [sp, #292]
	.loc	9 699 60 is_stmt 0              @ lvgl/src/lv_draw/lv_draw_rect.c:699:60
	ldrsh.w	r1, [sp, #208]
	.loc	9 699 67                        @ lvgl/src/lv_draw/lv_draw_rect.c:699:67
	ldrsh.w	r2, [sp, #210]
	.loc	9 699 71                        @ lvgl/src/lv_draw/lv_draw_rect.c:699:71
	ldrsh.w	r3, [sp, #216]
	.loc	9 699 28                        @ lvgl/src/lv_draw/lv_draw_rect.c:699:28
	bl	lv_draw_mask_apply
	.loc	9 699 26                        @ lvgl/src/lv_draw/lv_draw_rect.c:699:26
	strb.w	r0, [sp, #298]
.Ltmp87:
	.loc	9 700 20 is_stmt 1              @ lvgl/src/lv_draw/lv_draw_rect.c:700:20
	ldrb.w	r0, [sp, #298]
.Ltmp88:
	.loc	9 700 20 is_stmt 0              @ lvgl/src/lv_draw/lv_draw_rect.c:700:20
	cmp	r0, #1
	bne	.LBB4_58
	b	.LBB4_57
.LBB4_57:                               @   in Loop: Header=BB4_55 Depth=1
	.loc	9 0 20                          @ lvgl/src/lv_draw/lv_draw_rect.c:0:20
	movs	r0, #2
.Ltmp89:
	.loc	9 700 70                        @ lvgl/src/lv_draw/lv_draw_rect.c:700:70
	strb.w	r0, [sp, #298]
	.loc	9 700 61                        @ lvgl/src/lv_draw/lv_draw_rect.c:700:61
	b	.LBB4_58
.Ltmp90:
.LBB4_58:                               @   in Loop: Header=BB4_55 Depth=1
	.loc	9 702 32 is_stmt 1              @ lvgl/src/lv_draw/lv_draw_rect.c:702:32
	ldr	r0, [sp, #384]
	.loc	9 702 43 is_stmt 0              @ lvgl/src/lv_draw/lv_draw_rect.c:702:43
	ldr	r2, [sp, #380]
	.loc	9 702 62                        @ lvgl/src/lv_draw/lv_draw_rect.c:702:62
	ldr	r3, [sp, #292]
	.loc	9 703 32 is_stmt 1              @ lvgl/src/lv_draw/lv_draw_rect.c:703:32
	ldrb.w	r1, [sp, #298]
	.loc	9 703 42 is_stmt 0              @ lvgl/src/lv_draw/lv_draw_rect.c:703:42
	ldrb.w	lr, [sp, #359]
	.loc	9 703 52                        @ lvgl/src/lv_draw/lv_draw_rect.c:703:52
	ldrb.w	r4, [r2, #57]
	.loc	9 702 17 is_stmt 1              @ lvgl/src/lv_draw/lv_draw_rect.c:702:17
	ldr	r2, [r2, #44]
	mov	r12, sp
	str.w	r4, [r12, #8]
	str.w	lr, [r12, #4]
	str.w	r1, [r12]
	add	r1, sp, #208
	bl	_lv_blend_fill
	.loc	9 704 22                        @ lvgl/src/lv_draw/lv_draw_rect.c:704:22
	ldrh.w	r0, [sp, #210]
	subs	r0, #1
	strh.w	r0, [sp, #210]
	.loc	9 705 22                        @ lvgl/src/lv_draw/lv_draw_rect.c:705:22
	ldrh.w	r0, [sp, #214]
	subs	r0, #1
	strh.w	r0, [sp, #214]
	.loc	9 706 31                        @ lvgl/src/lv_draw/lv_draw_rect.c:706:31
	ldr	r1, [sp, #308]
	.loc	9 706 28 is_stmt 0              @ lvgl/src/lv_draw/lv_draw_rect.c:706:28
	ldr	r0, [sp, #244]
	add	r0, r1
	str	r0, [sp, #244]
	.loc	9 707 13 is_stmt 1              @ lvgl/src/lv_draw/lv_draw_rect.c:707:13
	b	.LBB4_59
.Ltmp91:
.LBB4_59:                               @   in Loop: Header=BB4_55 Depth=1
	.loc	9 697 32                        @ lvgl/src/lv_draw/lv_draw_rect.c:697:32
	ldr	r0, [sp, #248]
	adds	r0, #1
	str	r0, [sp, #248]
	.loc	9 697 13 is_stmt 0              @ lvgl/src/lv_draw/lv_draw_rect.c:697:13
	b	.LBB4_55
.Ltmp92:
.LBB4_60:
	.loc	9 708 9 is_stmt 1               @ lvgl/src/lv_draw/lv_draw_rect.c:708:9
	b	.LBB4_61
.Ltmp93:
.LBB4_61:
	.loc	9 709 5                         @ lvgl/src/lv_draw/lv_draw_rect.c:709:5
	b	.LBB4_62
.Ltmp94:
.LBB4_62:
	.loc	9 712 20                        @ lvgl/src/lv_draw/lv_draw_rect.c:712:20
	ldrh.w	r0, [sp, #364]
	.loc	9 712 10 is_stmt 0              @ lvgl/src/lv_draw/lv_draw_rect.c:712:10
	strh.w	r0, [sp, #256]
	.loc	9 713 12 is_stmt 1              @ lvgl/src/lv_draw/lv_draw_rect.c:713:12
	ldrh.w	r0, [sp, #256]
	.loc	9 713 19 is_stmt 0              @ lvgl/src/lv_draw/lv_draw_rect.c:713:19
	ldr	r1, [sp, #308]
	.loc	9 713 17                        @ lvgl/src/lv_draw/lv_draw_rect.c:713:17
	subs	r0, r0, r1
	.loc	9 713 31                        @ lvgl/src/lv_draw/lv_draw_rect.c:713:31
	adds	r0, #1
	.loc	9 713 10                        @ lvgl/src/lv_draw/lv_draw_rect.c:713:10
	strh.w	r0, [sp, #252]
	.loc	9 714 12 is_stmt 1              @ lvgl/src/lv_draw/lv_draw_rect.c:714:12
	ldrh.w	r0, [sp, #362]
	.loc	9 714 25 is_stmt 0              @ lvgl/src/lv_draw/lv_draw_rect.c:714:25
	ldr	r1, [sp, #308]
	.loc	9 714 23                        @ lvgl/src/lv_draw/lv_draw_rect.c:714:23
	add	r0, r1
	.loc	9 714 10                        @ lvgl/src/lv_draw/lv_draw_rect.c:714:10
	strh.w	r0, [sp, #254]
	.loc	9 715 12 is_stmt 1              @ lvgl/src/lv_draw/lv_draw_rect.c:715:12
	ldrh.w	r0, [sp, #366]
	.loc	9 715 25 is_stmt 0              @ lvgl/src/lv_draw/lv_draw_rect.c:715:25
	ldr	r1, [sp, #308]
	.loc	9 715 23                        @ lvgl/src/lv_draw/lv_draw_rect.c:715:23
	subs	r0, r0, r1
	.loc	9 715 10                        @ lvgl/src/lv_draw/lv_draw_rect.c:715:10
	strh.w	r0, [sp, #258]
	.loc	9 717 43 is_stmt 1              @ lvgl/src/lv_draw/lv_draw_rect.c:717:43
	ldr	r2, [sp, #384]
	add	r0, sp, #236
	add	r1, sp, #252
	.loc	9 717 15 is_stmt 0              @ lvgl/src/lv_draw/lv_draw_rect.c:717:15
	bl	_lv_area_intersect
	.loc	9 717 13                        @ lvgl/src/lv_draw/lv_draw_rect.c:717:13
	strb.w	r0, [sp, #235]
.Ltmp95:
	.loc	9 718 8 is_stmt 1               @ lvgl/src/lv_draw/lv_draw_rect.c:718:8
	ldrb.w	r0, [sp, #235]
	.loc	9 718 16 is_stmt 0              @ lvgl/src/lv_draw/lv_draw_rect.c:718:16
	lsls	r0, r0, #31
	cmp	r0, #0
	beq.w	.LBB4_81
	b	.LBB4_63
.LBB4_63:
	.loc	9 718 50                        @ lvgl/src/lv_draw/lv_draw_rect.c:718:50
	ldrsh.w	r2, [sp, #320]
	add	r0, sp, #252
	add	r1, sp, #324
	.loc	9 718 19                        @ lvgl/src/lv_draw/lv_draw_rect.c:718:19
	bl	_lv_area_is_in
.Ltmp96:
	.loc	9 718 8                         @ lvgl/src/lv_draw/lv_draw_rect.c:718:8
	cmp	r0, #0
	bne.w	.LBB4_81
	b	.LBB4_64
.LBB4_64:
.Ltmp97:
	.loc	9 719 12 is_stmt 1              @ lvgl/src/lv_draw/lv_draw_rect.c:719:12
	ldrb.w	r0, [sp, #299]
.Ltmp98:
	.loc	9 719 12 is_stmt 0              @ lvgl/src/lv_draw/lv_draw_rect.c:719:12
	lsls	r0, r0, #31
	cbz	r0, .LBB4_69
	b	.LBB4_65
.LBB4_65:
.Ltmp99:
	.loc	9 719 33                        @ lvgl/src/lv_draw/lv_draw_rect.c:719:33
	ldrsh.w	r0, [sp, #236]
	ldr	r1, [sp, #388]
	ldrsh.w	r1, [r1, #4]
	cmp	r0, r1
	ble	.LBB4_67
	b	.LBB4_66
.LBB4_66:
	ldrsh.w	r0, [sp, #236]
	str	r0, [sp, #56]                   @ 4-byte Spill
	b	.LBB4_68
.LBB4_67:
	ldr	r0, [sp, #388]
	ldrsh.w	r0, [r0, #4]
	str	r0, [sp, #56]                   @ 4-byte Spill
	b	.LBB4_68
.LBB4_68:
	ldr	r0, [sp, #56]                   @ 4-byte Reload
	.loc	9 719 31                        @ lvgl/src/lv_draw/lv_draw_rect.c:719:31
	strh.w	r0, [sp, #236]
	.loc	9 719 25                        @ lvgl/src/lv_draw/lv_draw_rect.c:719:25
	b	.LBB4_69
.Ltmp100:
.LBB4_69:
	.loc	9 0 25                          @ lvgl/src/lv_draw/lv_draw_rect.c:0:25
	add	r0, sp, #236
	.loc	9 721 24 is_stmt 1              @ lvgl/src/lv_draw/lv_draw_rect.c:721:24
	bl	lv_area_get_width
	.loc	9 721 20 is_stmt 0              @ lvgl/src/lv_draw/lv_draw_rect.c:721:20
	strh.w	r0, [sp, #206]
.Ltmp101:
	.loc	9 722 12 is_stmt 1              @ lvgl/src/lv_draw/lv_draw_rect.c:722:12
	ldrsh.w	r0, [sp, #206]
.Ltmp102:
	.loc	9 722 12 is_stmt 0              @ lvgl/src/lv_draw/lv_draw_rect.c:722:12
	cmp	r0, #1
	blt	.LBB4_80
	b	.LBB4_70
.LBB4_70:
	.loc	9 0 12                          @ lvgl/src/lv_draw/lv_draw_rect.c:0:12
	add	r0, sp, #236
.Ltmp103:
	.loc	9 723 28 is_stmt 1              @ lvgl/src/lv_draw/lv_draw_rect.c:723:28
	str	r0, [sp, #52]                   @ 4-byte Spill
	bl	lv_area_get_height
	ldr	r1, [sp, #52]                   @ 4-byte Reload
	.loc	9 723 24 is_stmt 0              @ lvgl/src/lv_draw/lv_draw_rect.c:723:24
	strh.w	r0, [sp, #204]
	.loc	9 726 26 is_stmt 1              @ lvgl/src/lv_draw/lv_draw_rect.c:726:26
	ldr	r3, [sp, #304]
	.loc	9 726 35 is_stmt 0              @ lvgl/src/lv_draw/lv_draw_rect.c:726:35
	ldr	r0, [sp, #308]
	.loc	9 726 62                        @ lvgl/src/lv_draw/lv_draw_rect.c:726:62
	subs	r2, r0, #1
	.loc	9 726 33                        @ lvgl/src/lv_draw/lv_draw_rect.c:726:33
	mla	r0, r0, r2, r3
	.loc	9 726 24                        @ lvgl/src/lv_draw/lv_draw_rect.c:726:24
	str	r0, [sp, #244]
	.loc	9 727 30 is_stmt 1              @ lvgl/src/lv_draw/lv_draw_rect.c:727:30
	ldrsh.w	r0, [sp, #236]
	.loc	9 727 37 is_stmt 0              @ lvgl/src/lv_draw/lv_draw_rect.c:727:37
	ldrsh.w	r2, [sp, #252]
	.loc	9 727 33                        @ lvgl/src/lv_draw/lv_draw_rect.c:727:33
	subs	r2, r0, r2
	.loc	9 727 24                        @ lvgl/src/lv_draw/lv_draw_rect.c:727:24
	ldr	r0, [sp, #244]
	add	r0, r2
	str	r0, [sp, #244]
	add	r0, sp, #196
	.loc	9 730 13 is_stmt 1              @ lvgl/src/lv_draw/lv_draw_rect.c:730:13
	bl	lv_area_copy
	.loc	9 731 24                        @ lvgl/src/lv_draw/lv_draw_rect.c:731:24
	ldrh.w	r0, [sp, #198]
	.loc	9 731 19 is_stmt 0              @ lvgl/src/lv_draw/lv_draw_rect.c:731:19
	strh.w	r0, [sp, #202]
	movs	r0, #1
	.loc	9 732 22 is_stmt 1              @ lvgl/src/lv_draw/lv_draw_rect.c:732:22
	strb.w	r0, [sp, #298]
	movs	r0, #0
.Ltmp104:
	.loc	9 733 19                        @ lvgl/src/lv_draw/lv_draw_rect.c:733:19
	str	r0, [sp, #248]
	.loc	9 733 17 is_stmt 0              @ lvgl/src/lv_draw/lv_draw_rect.c:733:17
	b	.LBB4_71
.LBB4_71:                               @ =>This Inner Loop Header: Depth=1
.Ltmp105:
	.loc	9 733 24                        @ lvgl/src/lv_draw/lv_draw_rect.c:733:24
	ldr	r0, [sp, #248]
	.loc	9 733 28                        @ lvgl/src/lv_draw/lv_draw_rect.c:733:28
	ldrsh.w	r1, [sp, #204]
.Ltmp106:
	.loc	9 733 13                        @ lvgl/src/lv_draw/lv_draw_rect.c:733:13
	cmp	r0, r1
	bge	.LBB4_79
	b	.LBB4_72
.LBB4_72:                               @   in Loop: Header=BB4_71 Depth=1
.Ltmp107:
	.loc	9 734 28 is_stmt 1              @ lvgl/src/lv_draw/lv_draw_rect.c:734:28
	ldr	r0, [sp, #292]
	.loc	9 734 38 is_stmt 0              @ lvgl/src/lv_draw/lv_draw_rect.c:734:38
	ldr	r1, [sp, #244]
	.loc	9 734 50                        @ lvgl/src/lv_draw/lv_draw_rect.c:734:50
	ldrsh.w	r2, [sp, #206]
	.loc	9 734 17                        @ lvgl/src/lv_draw/lv_draw_rect.c:734:17
	bl	_lv_memcpy
.Ltmp108:
	.loc	9 736 20 is_stmt 1              @ lvgl/src/lv_draw/lv_draw_rect.c:736:20
	ldrb.w	r0, [sp, #299]
.Ltmp109:
	.loc	9 736 20 is_stmt 0              @ lvgl/src/lv_draw/lv_draw_rect.c:736:20
	lsls	r0, r0, #31
	cbz	r0, .LBB4_74
	b	.LBB4_73
.LBB4_73:                               @   in Loop: Header=BB4_71 Depth=1
	.loc	9 0 20                          @ lvgl/src/lv_draw/lv_draw_rect.c:0:20
	movs	r0, #2
.Ltmp110:
	.loc	9 737 30 is_stmt 1              @ lvgl/src/lv_draw/lv_draw_rect.c:737:30
	strb.w	r0, [sp, #298]
	.loc	9 738 17                        @ lvgl/src/lv_draw/lv_draw_rect.c:738:17
	b	.LBB4_77
.Ltmp111:
.LBB4_74:                               @   in Loop: Header=BB4_71 Depth=1
	.loc	9 740 51                        @ lvgl/src/lv_draw/lv_draw_rect.c:740:51
	ldr	r0, [sp, #292]
	.loc	9 740 64 is_stmt 0              @ lvgl/src/lv_draw/lv_draw_rect.c:740:64
	ldrsh.w	r1, [sp, #196]
	.loc	9 740 71                        @ lvgl/src/lv_draw/lv_draw_rect.c:740:71
	ldrsh.w	r2, [sp, #198]
	.loc	9 740 75                        @ lvgl/src/lv_draw/lv_draw_rect.c:740:75
	ldrsh.w	r3, [sp, #206]
	.loc	9 740 32                        @ lvgl/src/lv_draw/lv_draw_rect.c:740:32
	bl	lv_draw_mask_apply
	.loc	9 740 30                        @ lvgl/src/lv_draw/lv_draw_rect.c:740:30
	strb.w	r0, [sp, #298]
.Ltmp112:
	.loc	9 741 24 is_stmt 1              @ lvgl/src/lv_draw/lv_draw_rect.c:741:24
	ldrb.w	r0, [sp, #298]
.Ltmp113:
	.loc	9 741 24 is_stmt 0              @ lvgl/src/lv_draw/lv_draw_rect.c:741:24
	cmp	r0, #1
	bne	.LBB4_76
	b	.LBB4_75
.LBB4_75:                               @   in Loop: Header=BB4_71 Depth=1
	.loc	9 0 24                          @ lvgl/src/lv_draw/lv_draw_rect.c:0:24
	movs	r0, #2
.Ltmp114:
	.loc	9 741 74                        @ lvgl/src/lv_draw/lv_draw_rect.c:741:74
	strb.w	r0, [sp, #298]
	.loc	9 741 65                        @ lvgl/src/lv_draw/lv_draw_rect.c:741:65
	b	.LBB4_76
.Ltmp115:
.LBB4_76:                               @   in Loop: Header=BB4_71 Depth=1
	.loc	9 0 65                          @ lvgl/src/lv_draw/lv_draw_rect.c:0:65
	b	.LBB4_77
.LBB4_77:                               @   in Loop: Header=BB4_71 Depth=1
	.loc	9 744 32 is_stmt 1              @ lvgl/src/lv_draw/lv_draw_rect.c:744:32
	ldr	r0, [sp, #384]
	.loc	9 745 32                        @ lvgl/src/lv_draw/lv_draw_rect.c:745:32
	ldr	r2, [sp, #380]
	.loc	9 745 51 is_stmt 0              @ lvgl/src/lv_draw/lv_draw_rect.c:745:51
	ldr	r3, [sp, #292]
	.loc	9 745 61                        @ lvgl/src/lv_draw/lv_draw_rect.c:745:61
	ldrb.w	r1, [sp, #298]
	.loc	9 745 76                        @ lvgl/src/lv_draw/lv_draw_rect.c:745:76
	ldrb.w	lr, [r2, #56]
	.loc	9 745 93                        @ lvgl/src/lv_draw/lv_draw_rect.c:745:93
	ldrb.w	r4, [r2, #57]
	.loc	9 744 17 is_stmt 1              @ lvgl/src/lv_draw/lv_draw_rect.c:744:17
	ldr	r2, [r2, #44]
	mov	r12, sp
	str.w	r4, [r12, #8]
	str.w	lr, [r12, #4]
	str.w	r1, [r12]
	add	r1, sp, #196
	bl	_lv_blend_fill
	.loc	9 746 22                        @ lvgl/src/lv_draw/lv_draw_rect.c:746:22
	ldrh.w	r0, [sp, #198]
	adds	r0, #1
	strh.w	r0, [sp, #198]
	.loc	9 747 22                        @ lvgl/src/lv_draw/lv_draw_rect.c:747:22
	ldrh.w	r0, [sp, #202]
	adds	r0, #1
	strh.w	r0, [sp, #202]
	.loc	9 748 13                        @ lvgl/src/lv_draw/lv_draw_rect.c:748:13
	b	.LBB4_78
.Ltmp116:
.LBB4_78:                               @   in Loop: Header=BB4_71 Depth=1
	.loc	9 733 32                        @ lvgl/src/lv_draw/lv_draw_rect.c:733:32
	ldr	r0, [sp, #248]
	adds	r0, #1
	str	r0, [sp, #248]
	.loc	9 733 13 is_stmt 0              @ lvgl/src/lv_draw/lv_draw_rect.c:733:13
	b	.LBB4_71
.Ltmp117:
.LBB4_79:
	.loc	9 749 9 is_stmt 1               @ lvgl/src/lv_draw/lv_draw_rect.c:749:9
	b	.LBB4_80
.Ltmp118:
.LBB4_80:
	.loc	9 750 5                         @ lvgl/src/lv_draw/lv_draw_rect.c:750:5
	b	.LBB4_81
.Ltmp119:
.LBB4_81:
	.loc	9 753 18                        @ lvgl/src/lv_draw/lv_draw_rect.c:753:18
	ldr	r0, [sp, #304]
	.loc	9 753 16 is_stmt 0              @ lvgl/src/lv_draw/lv_draw_rect.c:753:16
	str	r0, [sp, #244]
	movs	r0, #0
.Ltmp120:
	.loc	9 754 11 is_stmt 1              @ lvgl/src/lv_draw/lv_draw_rect.c:754:11
	str	r0, [sp, #248]
	.loc	9 754 9 is_stmt 0               @ lvgl/src/lv_draw/lv_draw_rect.c:754:9
	b	.LBB4_82
.LBB4_82:                               @ =>This Loop Header: Depth=1
                                        @     Child Loop BB4_84 Depth 2
.Ltmp121:
	.loc	9 754 16                        @ lvgl/src/lv_draw/lv_draw_rect.c:754:16
	ldr	r0, [sp, #248]
	.loc	9 754 20                        @ lvgl/src/lv_draw/lv_draw_rect.c:754:20
	ldr	r1, [sp, #308]
.Ltmp122:
	.loc	9 754 5                         @ lvgl/src/lv_draw/lv_draw_rect.c:754:5
	cmp	r0, r1
	bge	.LBB4_89
	b	.LBB4_83
.LBB4_83:                               @   in Loop: Header=BB4_82 Depth=1
	.loc	9 0 5                           @ lvgl/src/lv_draw/lv_draw_rect.c:0:5
	movs	r0, #0
.Ltmp123:
	.loc	9 756 15 is_stmt 1              @ lvgl/src/lv_draw/lv_draw_rect.c:756:15
	str	r0, [sp, #192]
	.loc	9 756 13 is_stmt 0              @ lvgl/src/lv_draw/lv_draw_rect.c:756:13
	b	.LBB4_84
.LBB4_84:                               @   Parent Loop BB4_82 Depth=1
                                        @ =>  This Inner Loop Header: Depth=2
.Ltmp124:
	.loc	9 756 20                        @ lvgl/src/lv_draw/lv_draw_rect.c:756:20
	ldr	r0, [sp, #192]
	.loc	9 756 24                        @ lvgl/src/lv_draw/lv_draw_rect.c:756:24
	ldr	r1, [sp, #308]
	.loc	9 756 36                        @ lvgl/src/lv_draw/lv_draw_rect.c:756:36
	add.w	r1, r1, r1, lsr #31
.Ltmp125:
	.loc	9 756 9                         @ lvgl/src/lv_draw/lv_draw_rect.c:756:9
	cmp.w	r0, r1, asr #1
	bge	.LBB4_87
	b	.LBB4_85
.LBB4_85:                               @   in Loop: Header=BB4_84 Depth=2
.Ltmp126:
	.loc	9 757 28 is_stmt 1              @ lvgl/src/lv_draw/lv_draw_rect.c:757:28
	ldr	r0, [sp, #244]
	.loc	9 757 39 is_stmt 0              @ lvgl/src/lv_draw/lv_draw_rect.c:757:39
	ldr	r1, [sp, #192]
	.loc	9 757 28                        @ lvgl/src/lv_draw/lv_draw_rect.c:757:28
	ldrb	r0, [r0, r1]
	.loc	9 757 22                        @ lvgl/src/lv_draw/lv_draw_rect.c:757:22
	strb.w	r0, [sp, #191]
	.loc	9 758 29 is_stmt 1              @ lvgl/src/lv_draw/lv_draw_rect.c:758:29
	ldr	r1, [sp, #244]
	.loc	9 758 40 is_stmt 0              @ lvgl/src/lv_draw/lv_draw_rect.c:758:40
	ldr	r0, [sp, #308]
	.loc	9 758 54                        @ lvgl/src/lv_draw/lv_draw_rect.c:758:54
	ldr	r2, [sp, #192]
	.loc	9 758 52                        @ lvgl/src/lv_draw/lv_draw_rect.c:758:52
	subs	r0, r0, r2
	.loc	9 758 29                        @ lvgl/src/lv_draw/lv_draw_rect.c:758:29
	add	r0, r1
	ldrb	r0, [r0, #-1]
	.loc	9 758 27                        @ lvgl/src/lv_draw/lv_draw_rect.c:758:27
	strb	r0, [r1, r2]
	.loc	9 759 47 is_stmt 1              @ lvgl/src/lv_draw/lv_draw_rect.c:759:47
	ldrb.w	r0, [sp, #191]
	.loc	9 759 13 is_stmt 0              @ lvgl/src/lv_draw/lv_draw_rect.c:759:13
	ldr	r2, [sp, #244]
	.loc	9 759 24                        @ lvgl/src/lv_draw/lv_draw_rect.c:759:24
	ldr	r1, [sp, #308]
	.loc	9 759 38                        @ lvgl/src/lv_draw/lv_draw_rect.c:759:38
	ldr	r3, [sp, #192]
	.loc	9 759 36                        @ lvgl/src/lv_draw/lv_draw_rect.c:759:36
	subs	r1, r1, r3
	.loc	9 759 13                        @ lvgl/src/lv_draw/lv_draw_rect.c:759:13
	add	r1, r2
	.loc	9 759 45                        @ lvgl/src/lv_draw/lv_draw_rect.c:759:45
	strb	r0, [r1, #-1]
	.loc	9 760 9 is_stmt 1               @ lvgl/src/lv_draw/lv_draw_rect.c:760:9
	b	.LBB4_86
.Ltmp127:
.LBB4_86:                               @   in Loop: Header=BB4_84 Depth=2
	.loc	9 756 42                        @ lvgl/src/lv_draw/lv_draw_rect.c:756:42
	ldr	r0, [sp, #192]
	adds	r0, #1
	str	r0, [sp, #192]
	.loc	9 756 9 is_stmt 0               @ lvgl/src/lv_draw/lv_draw_rect.c:756:9
	b	.LBB4_84
.Ltmp128:
.LBB4_87:                               @   in Loop: Header=BB4_82 Depth=1
	.loc	9 761 23 is_stmt 1              @ lvgl/src/lv_draw/lv_draw_rect.c:761:23
	ldr	r1, [sp, #308]
	.loc	9 761 20 is_stmt 0              @ lvgl/src/lv_draw/lv_draw_rect.c:761:20
	ldr	r0, [sp, #244]
	add	r0, r1
	str	r0, [sp, #244]
	.loc	9 762 5 is_stmt 1               @ lvgl/src/lv_draw/lv_draw_rect.c:762:5
	b	.LBB4_88
.Ltmp129:
.LBB4_88:                               @   in Loop: Header=BB4_82 Depth=1
	.loc	9 754 34                        @ lvgl/src/lv_draw/lv_draw_rect.c:754:34
	ldr	r0, [sp, #248]
	adds	r0, #1
	str	r0, [sp, #248]
	.loc	9 754 5 is_stmt 0               @ lvgl/src/lv_draw/lv_draw_rect.c:754:5
	b	.LBB4_82
.Ltmp130:
.LBB4_89:
	.loc	9 765 20 is_stmt 1              @ lvgl/src/lv_draw/lv_draw_rect.c:765:20
	ldrh.w	r0, [sp, #360]
	.loc	9 765 10 is_stmt 0              @ lvgl/src/lv_draw/lv_draw_rect.c:765:10
	strh.w	r0, [sp, #252]
	.loc	9 766 12 is_stmt 1              @ lvgl/src/lv_draw/lv_draw_rect.c:766:12
	ldrh.w	r0, [sp, #252]
	.loc	9 766 19 is_stmt 0              @ lvgl/src/lv_draw/lv_draw_rect.c:766:19
	ldr	r1, [sp, #308]
	.loc	9 766 17                        @ lvgl/src/lv_draw/lv_draw_rect.c:766:17
	add	r0, r1
	.loc	9 766 31                        @ lvgl/src/lv_draw/lv_draw_rect.c:766:31
	subs	r0, #1
	.loc	9 766 10                        @ lvgl/src/lv_draw/lv_draw_rect.c:766:10
	strh.w	r0, [sp, #256]
	.loc	9 767 20 is_stmt 1              @ lvgl/src/lv_draw/lv_draw_rect.c:767:20
	ldrh.w	r0, [sp, #362]
	.loc	9 767 10 is_stmt 0              @ lvgl/src/lv_draw/lv_draw_rect.c:767:10
	strh.w	r0, [sp, #254]
	.loc	9 768 12 is_stmt 1              @ lvgl/src/lv_draw/lv_draw_rect.c:768:12
	ldrh.w	r0, [sp, #254]
	.loc	9 768 19 is_stmt 0              @ lvgl/src/lv_draw/lv_draw_rect.c:768:19
	ldr	r1, [sp, #308]
	.loc	9 768 17                        @ lvgl/src/lv_draw/lv_draw_rect.c:768:17
	add	r0, r1
	.loc	9 768 31                        @ lvgl/src/lv_draw/lv_draw_rect.c:768:31
	subs	r0, #1
	.loc	9 768 10                        @ lvgl/src/lv_draw/lv_draw_rect.c:768:10
	strh.w	r0, [sp, #258]
	.loc	9 770 43 is_stmt 1              @ lvgl/src/lv_draw/lv_draw_rect.c:770:43
	ldr	r2, [sp, #384]
	add	r0, sp, #236
	add	r1, sp, #252
	.loc	9 770 15 is_stmt 0              @ lvgl/src/lv_draw/lv_draw_rect.c:770:15
	bl	_lv_area_intersect
	.loc	9 770 13                        @ lvgl/src/lv_draw/lv_draw_rect.c:770:13
	strb.w	r0, [sp, #235]
.Ltmp131:
	.loc	9 771 8 is_stmt 1               @ lvgl/src/lv_draw/lv_draw_rect.c:771:8
	ldrb.w	r0, [sp, #235]
	.loc	9 771 16 is_stmt 0              @ lvgl/src/lv_draw/lv_draw_rect.c:771:16
	lsls	r0, r0, #31
	cmp	r0, #0
	beq.w	.LBB4_104
	b	.LBB4_90
.LBB4_90:
	.loc	9 771 50                        @ lvgl/src/lv_draw/lv_draw_rect.c:771:50
	ldrsh.w	r2, [sp, #320]
	add	r0, sp, #252
	add	r1, sp, #324
	.loc	9 771 19                        @ lvgl/src/lv_draw/lv_draw_rect.c:771:19
	bl	_lv_area_is_in
.Ltmp132:
	.loc	9 771 8                         @ lvgl/src/lv_draw/lv_draw_rect.c:771:8
	cmp	r0, #0
	bne.w	.LBB4_104
	b	.LBB4_91
.LBB4_91:
.Ltmp133:
	.loc	9 773 15 is_stmt 1              @ lvgl/src/lv_draw/lv_draw_rect.c:773:15
	ldrsh.w	r0, [sp, #242]
	.loc	9 773 20 is_stmt 0              @ lvgl/src/lv_draw/lv_draw_rect.c:773:20
	ldrsh.w	r1, [sp, #302]
.Ltmp134:
	.loc	9 773 12                        @ lvgl/src/lv_draw/lv_draw_rect.c:773:12
	cmp	r0, r1
	ble	.LBB4_93
	b	.LBB4_92
.LBB4_92:
.Ltmp135:
	.loc	9 773 36                        @ lvgl/src/lv_draw/lv_draw_rect.c:773:36
	ldrh.w	r0, [sp, #302]
	.loc	9 773 34                        @ lvgl/src/lv_draw/lv_draw_rect.c:773:34
	strh.w	r0, [sp, #242]
	.loc	9 773 28                        @ lvgl/src/lv_draw/lv_draw_rect.c:773:28
	b	.LBB4_93
.Ltmp136:
.LBB4_93:
	.loc	9 774 15 is_stmt 1              @ lvgl/src/lv_draw/lv_draw_rect.c:774:15
	ldrsh.w	r0, [sp, #240]
	.loc	9 774 20 is_stmt 0              @ lvgl/src/lv_draw/lv_draw_rect.c:774:20
	ldrsh.w	r1, [sp, #300]
.Ltmp137:
	.loc	9 774 12                        @ lvgl/src/lv_draw/lv_draw_rect.c:774:12
	cmp	r0, r1
	ble	.LBB4_95
	b	.LBB4_94
.LBB4_94:
.Ltmp138:
	.loc	9 774 36                        @ lvgl/src/lv_draw/lv_draw_rect.c:774:36
	ldrh.w	r0, [sp, #300]
	.loc	9 774 34                        @ lvgl/src/lv_draw/lv_draw_rect.c:774:34
	strh.w	r0, [sp, #240]
	.loc	9 774 28                        @ lvgl/src/lv_draw/lv_draw_rect.c:774:28
	b	.LBB4_95
.Ltmp139:
.LBB4_95:
	.loc	9 0 28                          @ lvgl/src/lv_draw/lv_draw_rect.c:0:28
	add	r0, sp, #236
	.loc	9 776 24 is_stmt 1              @ lvgl/src/lv_draw/lv_draw_rect.c:776:24
	str	r0, [sp, #48]                   @ 4-byte Spill
	bl	lv_area_get_height
	mov	r1, r0
	.loc	9 776 20 is_stmt 0              @ lvgl/src/lv_draw/lv_draw_rect.c:776:20
	ldr	r0, [sp, #48]                   @ 4-byte Reload
	strh.w	r1, [sp, #188]
	.loc	9 777 24 is_stmt 1              @ lvgl/src/lv_draw/lv_draw_rect.c:777:24
	bl	lv_area_get_width
	.loc	9 777 20 is_stmt 0              @ lvgl/src/lv_draw/lv_draw_rect.c:777:20
	strh.w	r0, [sp, #186]
.Ltmp140:
	.loc	9 778 12 is_stmt 1              @ lvgl/src/lv_draw/lv_draw_rect.c:778:12
	ldrsh.w	r0, [sp, #186]
.Ltmp141:
	.loc	9 778 12 is_stmt 0              @ lvgl/src/lv_draw/lv_draw_rect.c:778:12
	cmp	r0, #1
	blt	.LBB4_103
	b	.LBB4_96
.LBB4_96:
.Ltmp142:
	.loc	9 779 26 is_stmt 1              @ lvgl/src/lv_draw/lv_draw_rect.c:779:26
	ldr	r0, [sp, #304]
	.loc	9 779 39 is_stmt 0              @ lvgl/src/lv_draw/lv_draw_rect.c:779:39
	ldrsh.w	r1, [sp, #236]
	.loc	9 779 46                        @ lvgl/src/lv_draw/lv_draw_rect.c:779:46
	ldrsh.w	r2, [sp, #252]
	.loc	9 779 42                        @ lvgl/src/lv_draw/lv_draw_rect.c:779:42
	subs	r1, r1, r2
	.loc	9 779 33                        @ lvgl/src/lv_draw/lv_draw_rect.c:779:33
	add	r0, r1
	.loc	9 779 24                        @ lvgl/src/lv_draw/lv_draw_rect.c:779:24
	str	r0, [sp, #244]
	.loc	9 780 27 is_stmt 1              @ lvgl/src/lv_draw/lv_draw_rect.c:780:27
	ldr	r0, [sp, #308]
	.loc	9 780 45 is_stmt 0              @ lvgl/src/lv_draw/lv_draw_rect.c:780:45
	ldrsh.w	r1, [sp, #238]
	.loc	9 780 52                        @ lvgl/src/lv_draw/lv_draw_rect.c:780:52
	ldrsh.w	r2, [sp, #254]
	.loc	9 780 48                        @ lvgl/src/lv_draw/lv_draw_rect.c:780:48
	subs	r1, r1, r2
	.loc	9 780 24                        @ lvgl/src/lv_draw/lv_draw_rect.c:780:24
	ldr	r2, [sp, #244]
	mla	r0, r0, r1, r2
	str	r0, [sp, #244]
	add	r0, sp, #176
	add	r1, sp, #236
	.loc	9 783 13 is_stmt 1              @ lvgl/src/lv_draw/lv_draw_rect.c:783:13
	bl	lv_area_copy
	.loc	9 784 24                        @ lvgl/src/lv_draw/lv_draw_rect.c:784:24
	ldrh.w	r0, [sp, #178]
	.loc	9 784 19 is_stmt 0              @ lvgl/src/lv_draw/lv_draw_rect.c:784:19
	strh.w	r0, [sp, #182]
	movs	r0, #0
.Ltmp143:
	.loc	9 786 19 is_stmt 1              @ lvgl/src/lv_draw/lv_draw_rect.c:786:19
	str	r0, [sp, #248]
	.loc	9 786 17 is_stmt 0              @ lvgl/src/lv_draw/lv_draw_rect.c:786:17
	b	.LBB4_97
.LBB4_97:                               @ =>This Inner Loop Header: Depth=1
.Ltmp144:
	.loc	9 786 24                        @ lvgl/src/lv_draw/lv_draw_rect.c:786:24
	ldr	r0, [sp, #248]
	.loc	9 786 28                        @ lvgl/src/lv_draw/lv_draw_rect.c:786:28
	ldrsh.w	r1, [sp, #188]
.Ltmp145:
	.loc	9 786 13                        @ lvgl/src/lv_draw/lv_draw_rect.c:786:13
	cmp	r0, r1
	bge	.LBB4_102
	b	.LBB4_98
.LBB4_98:                               @   in Loop: Header=BB4_97 Depth=1
.Ltmp146:
	.loc	9 787 28 is_stmt 1              @ lvgl/src/lv_draw/lv_draw_rect.c:787:28
	ldr	r0, [sp, #292]
	.loc	9 787 38 is_stmt 0              @ lvgl/src/lv_draw/lv_draw_rect.c:787:38
	ldr	r1, [sp, #244]
	.loc	9 787 50                        @ lvgl/src/lv_draw/lv_draw_rect.c:787:50
	ldrsh.w	r2, [sp, #186]
	.loc	9 787 17                        @ lvgl/src/lv_draw/lv_draw_rect.c:787:17
	bl	_lv_memcpy
	.loc	9 788 47 is_stmt 1              @ lvgl/src/lv_draw/lv_draw_rect.c:788:47
	ldr	r0, [sp, #292]
	.loc	9 788 60 is_stmt 0              @ lvgl/src/lv_draw/lv_draw_rect.c:788:60
	ldrsh.w	r1, [sp, #176]
	.loc	9 788 67                        @ lvgl/src/lv_draw/lv_draw_rect.c:788:67
	ldrsh.w	r2, [sp, #178]
	.loc	9 788 71                        @ lvgl/src/lv_draw/lv_draw_rect.c:788:71
	ldrsh.w	r3, [sp, #186]
	.loc	9 788 28                        @ lvgl/src/lv_draw/lv_draw_rect.c:788:28
	bl	lv_draw_mask_apply
	.loc	9 788 26                        @ lvgl/src/lv_draw/lv_draw_rect.c:788:26
	strb.w	r0, [sp, #298]
.Ltmp147:
	.loc	9 789 20 is_stmt 1              @ lvgl/src/lv_draw/lv_draw_rect.c:789:20
	ldrb.w	r0, [sp, #298]
.Ltmp148:
	.loc	9 789 20 is_stmt 0              @ lvgl/src/lv_draw/lv_draw_rect.c:789:20
	cmp	r0, #1
	bne	.LBB4_100
	b	.LBB4_99
.LBB4_99:                               @   in Loop: Header=BB4_97 Depth=1
	.loc	9 0 20                          @ lvgl/src/lv_draw/lv_draw_rect.c:0:20
	movs	r0, #2
.Ltmp149:
	.loc	9 789 70                        @ lvgl/src/lv_draw/lv_draw_rect.c:789:70
	strb.w	r0, [sp, #298]
	.loc	9 789 61                        @ lvgl/src/lv_draw/lv_draw_rect.c:789:61
	b	.LBB4_100
.Ltmp150:
.LBB4_100:                              @   in Loop: Header=BB4_97 Depth=1
	.loc	9 791 32 is_stmt 1              @ lvgl/src/lv_draw/lv_draw_rect.c:791:32
	ldr	r0, [sp, #384]
	.loc	9 791 43 is_stmt 0              @ lvgl/src/lv_draw/lv_draw_rect.c:791:43
	ldr	r2, [sp, #380]
	.loc	9 791 62                        @ lvgl/src/lv_draw/lv_draw_rect.c:791:62
	ldr	r3, [sp, #292]
	.loc	9 792 32 is_stmt 1              @ lvgl/src/lv_draw/lv_draw_rect.c:792:32
	ldrb.w	r1, [sp, #298]
	.loc	9 792 42 is_stmt 0              @ lvgl/src/lv_draw/lv_draw_rect.c:792:42
	ldrb.w	lr, [sp, #359]
	.loc	9 792 52                        @ lvgl/src/lv_draw/lv_draw_rect.c:792:52
	ldrb.w	r4, [r2, #57]
	.loc	9 791 17 is_stmt 1              @ lvgl/src/lv_draw/lv_draw_rect.c:791:17
	ldr	r2, [r2, #44]
	mov	r12, sp
	str.w	r4, [r12, #8]
	str.w	lr, [r12, #4]
	str.w	r1, [r12]
	add	r1, sp, #176
	bl	_lv_blend_fill
	.loc	9 793 22                        @ lvgl/src/lv_draw/lv_draw_rect.c:793:22
	ldrh.w	r0, [sp, #178]
	adds	r0, #1
	strh.w	r0, [sp, #178]
	.loc	9 794 22                        @ lvgl/src/lv_draw/lv_draw_rect.c:794:22
	ldrh.w	r0, [sp, #182]
	adds	r0, #1
	strh.w	r0, [sp, #182]
	.loc	9 795 31                        @ lvgl/src/lv_draw/lv_draw_rect.c:795:31
	ldr	r1, [sp, #308]
	.loc	9 795 28 is_stmt 0              @ lvgl/src/lv_draw/lv_draw_rect.c:795:28
	ldr	r0, [sp, #244]
	add	r0, r1
	str	r0, [sp, #244]
	.loc	9 796 13 is_stmt 1              @ lvgl/src/lv_draw/lv_draw_rect.c:796:13
	b	.LBB4_101
.Ltmp151:
.LBB4_101:                              @   in Loop: Header=BB4_97 Depth=1
	.loc	9 786 32                        @ lvgl/src/lv_draw/lv_draw_rect.c:786:32
	ldr	r0, [sp, #248]
	adds	r0, #1
	str	r0, [sp, #248]
	.loc	9 786 13 is_stmt 0              @ lvgl/src/lv_draw/lv_draw_rect.c:786:13
	b	.LBB4_97
.Ltmp152:
.LBB4_102:
	.loc	9 797 9 is_stmt 1               @ lvgl/src/lv_draw/lv_draw_rect.c:797:9
	b	.LBB4_103
.Ltmp153:
.LBB4_103:
	.loc	9 798 5                         @ lvgl/src/lv_draw/lv_draw_rect.c:798:5
	b	.LBB4_104
.Ltmp154:
.LBB4_104:
	.loc	9 801 20                        @ lvgl/src/lv_draw/lv_draw_rect.c:801:20
	ldrh.w	r0, [sp, #360]
	.loc	9 801 10 is_stmt 0              @ lvgl/src/lv_draw/lv_draw_rect.c:801:10
	strh.w	r0, [sp, #252]
	.loc	9 802 12 is_stmt 1              @ lvgl/src/lv_draw/lv_draw_rect.c:802:12
	ldrh.w	r0, [sp, #252]
	.loc	9 802 19 is_stmt 0              @ lvgl/src/lv_draw/lv_draw_rect.c:802:19
	ldr	r1, [sp, #308]
	.loc	9 802 17                        @ lvgl/src/lv_draw/lv_draw_rect.c:802:17
	add	r0, r1
	.loc	9 802 31                        @ lvgl/src/lv_draw/lv_draw_rect.c:802:31
	subs	r0, #1
	.loc	9 802 10                        @ lvgl/src/lv_draw/lv_draw_rect.c:802:10
	strh.w	r0, [sp, #256]
	.loc	9 803 12 is_stmt 1              @ lvgl/src/lv_draw/lv_draw_rect.c:803:12
	ldrh.w	r0, [sp, #366]
	.loc	9 803 25 is_stmt 0              @ lvgl/src/lv_draw/lv_draw_rect.c:803:25
	ldr	r1, [sp, #308]
	.loc	9 803 23                        @ lvgl/src/lv_draw/lv_draw_rect.c:803:23
	subs	r0, r0, r1
	.loc	9 803 37                        @ lvgl/src/lv_draw/lv_draw_rect.c:803:37
	adds	r0, #1
	.loc	9 803 10                        @ lvgl/src/lv_draw/lv_draw_rect.c:803:10
	strh.w	r0, [sp, #254]
	.loc	9 804 20 is_stmt 1              @ lvgl/src/lv_draw/lv_draw_rect.c:804:20
	ldrh.w	r0, [sp, #366]
	.loc	9 804 10 is_stmt 0              @ lvgl/src/lv_draw/lv_draw_rect.c:804:10
	strh.w	r0, [sp, #258]
	.loc	9 806 43 is_stmt 1              @ lvgl/src/lv_draw/lv_draw_rect.c:806:43
	ldr	r2, [sp, #384]
	add	r0, sp, #236
	add	r1, sp, #252
	.loc	9 806 15 is_stmt 0              @ lvgl/src/lv_draw/lv_draw_rect.c:806:15
	bl	_lv_area_intersect
	.loc	9 806 13                        @ lvgl/src/lv_draw/lv_draw_rect.c:806:13
	strb.w	r0, [sp, #235]
.Ltmp155:
	.loc	9 807 8 is_stmt 1               @ lvgl/src/lv_draw/lv_draw_rect.c:807:8
	ldrb.w	r0, [sp, #235]
	.loc	9 807 16 is_stmt 0              @ lvgl/src/lv_draw/lv_draw_rect.c:807:16
	lsls	r0, r0, #31
	cmp	r0, #0
	beq.w	.LBB4_119
	b	.LBB4_105
.LBB4_105:
	.loc	9 807 50                        @ lvgl/src/lv_draw/lv_draw_rect.c:807:50
	ldrsh.w	r2, [sp, #320]
	add	r0, sp, #252
	add	r1, sp, #324
	.loc	9 807 19                        @ lvgl/src/lv_draw/lv_draw_rect.c:807:19
	bl	_lv_area_is_in
.Ltmp156:
	.loc	9 807 8                         @ lvgl/src/lv_draw/lv_draw_rect.c:807:8
	cmp	r0, #0
	bne.w	.LBB4_119
	b	.LBB4_106
.LBB4_106:
.Ltmp157:
	.loc	9 809 15 is_stmt 1              @ lvgl/src/lv_draw/lv_draw_rect.c:809:15
	ldrsh.w	r0, [sp, #238]
	.loc	9 809 21 is_stmt 0              @ lvgl/src/lv_draw/lv_draw_rect.c:809:21
	ldrsh.w	r1, [sp, #302]
.Ltmp158:
	.loc	9 809 12                        @ lvgl/src/lv_draw/lv_draw_rect.c:809:12
	cmp	r0, r1
	bgt	.LBB4_108
	b	.LBB4_107
.LBB4_107:
.Ltmp159:
	.loc	9 809 37                        @ lvgl/src/lv_draw/lv_draw_rect.c:809:37
	ldrh.w	r0, [sp, #302]
	.loc	9 809 44                        @ lvgl/src/lv_draw/lv_draw_rect.c:809:44
	adds	r0, #1
	.loc	9 809 35                        @ lvgl/src/lv_draw/lv_draw_rect.c:809:35
	strh.w	r0, [sp, #238]
	.loc	9 809 29                        @ lvgl/src/lv_draw/lv_draw_rect.c:809:29
	b	.LBB4_108
.Ltmp160:
.LBB4_108:
	.loc	9 810 15 is_stmt 1              @ lvgl/src/lv_draw/lv_draw_rect.c:810:15
	ldrsh.w	r0, [sp, #240]
	.loc	9 810 20 is_stmt 0              @ lvgl/src/lv_draw/lv_draw_rect.c:810:20
	ldrsh.w	r1, [sp, #300]
.Ltmp161:
	.loc	9 810 12                        @ lvgl/src/lv_draw/lv_draw_rect.c:810:12
	cmp	r0, r1
	ble	.LBB4_110
	b	.LBB4_109
.LBB4_109:
.Ltmp162:
	.loc	9 810 36                        @ lvgl/src/lv_draw/lv_draw_rect.c:810:36
	ldrh.w	r0, [sp, #300]
	.loc	9 810 34                        @ lvgl/src/lv_draw/lv_draw_rect.c:810:34
	strh.w	r0, [sp, #240]
	.loc	9 810 28                        @ lvgl/src/lv_draw/lv_draw_rect.c:810:28
	b	.LBB4_110
.Ltmp163:
.LBB4_110:
	.loc	9 0 28                          @ lvgl/src/lv_draw/lv_draw_rect.c:0:28
	add	r0, sp, #236
	.loc	9 811 24 is_stmt 1              @ lvgl/src/lv_draw/lv_draw_rect.c:811:24
	str	r0, [sp, #44]                   @ 4-byte Spill
	bl	lv_area_get_height
	mov	r1, r0
	.loc	9 811 20 is_stmt 0              @ lvgl/src/lv_draw/lv_draw_rect.c:811:20
	ldr	r0, [sp, #44]                   @ 4-byte Reload
	strh.w	r1, [sp, #174]
	.loc	9 812 24 is_stmt 1              @ lvgl/src/lv_draw/lv_draw_rect.c:812:24
	bl	lv_area_get_width
	.loc	9 812 20 is_stmt 0              @ lvgl/src/lv_draw/lv_draw_rect.c:812:20
	strh.w	r0, [sp, #172]
.Ltmp164:
	.loc	9 814 12 is_stmt 1              @ lvgl/src/lv_draw/lv_draw_rect.c:814:12
	ldrsh.w	r0, [sp, #172]
.Ltmp165:
	.loc	9 814 12 is_stmt 0              @ lvgl/src/lv_draw/lv_draw_rect.c:814:12
	cmp	r0, #1
	blt	.LBB4_118
	b	.LBB4_111
.LBB4_111:
.Ltmp166:
	.loc	9 815 26 is_stmt 1              @ lvgl/src/lv_draw/lv_draw_rect.c:815:26
	ldr	r0, [sp, #304]
	.loc	9 815 39 is_stmt 0              @ lvgl/src/lv_draw/lv_draw_rect.c:815:39
	ldrsh.w	r1, [sp, #236]
	.loc	9 815 46                        @ lvgl/src/lv_draw/lv_draw_rect.c:815:46
	ldrsh.w	r2, [sp, #252]
	.loc	9 815 42                        @ lvgl/src/lv_draw/lv_draw_rect.c:815:42
	subs	r1, r1, r2
	.loc	9 815 33                        @ lvgl/src/lv_draw/lv_draw_rect.c:815:33
	add	r0, r1
	.loc	9 815 24                        @ lvgl/src/lv_draw/lv_draw_rect.c:815:24
	str	r0, [sp, #244]
	.loc	9 816 27 is_stmt 1              @ lvgl/src/lv_draw/lv_draw_rect.c:816:27
	ldr	r0, [sp, #308]
	.loc	9 816 44 is_stmt 0              @ lvgl/src/lv_draw/lv_draw_rect.c:816:44
	ldrsh.w	r1, [sp, #258]
	.loc	9 816 52                        @ lvgl/src/lv_draw/lv_draw_rect.c:816:52
	ldrsh.w	r2, [sp, #242]
	.loc	9 816 47                        @ lvgl/src/lv_draw/lv_draw_rect.c:816:47
	subs	r1, r1, r2
	.loc	9 816 24                        @ lvgl/src/lv_draw/lv_draw_rect.c:816:24
	ldr	r2, [sp, #244]
	mla	r0, r0, r1, r2
	str	r0, [sp, #244]
	add	r0, sp, #164
	add	r1, sp, #236
	.loc	9 819 13 is_stmt 1              @ lvgl/src/lv_draw/lv_draw_rect.c:819:13
	bl	lv_area_copy
	.loc	9 820 24                        @ lvgl/src/lv_draw/lv_draw_rect.c:820:24
	ldrh.w	r0, [sp, #170]
	.loc	9 820 19 is_stmt 0              @ lvgl/src/lv_draw/lv_draw_rect.c:820:19
	strh.w	r0, [sp, #166]
	movs	r0, #0
.Ltmp167:
	.loc	9 822 19 is_stmt 1              @ lvgl/src/lv_draw/lv_draw_rect.c:822:19
	str	r0, [sp, #248]
	.loc	9 822 17 is_stmt 0              @ lvgl/src/lv_draw/lv_draw_rect.c:822:17
	b	.LBB4_112
.LBB4_112:                              @ =>This Inner Loop Header: Depth=1
.Ltmp168:
	.loc	9 822 24                        @ lvgl/src/lv_draw/lv_draw_rect.c:822:24
	ldr	r0, [sp, #248]
	.loc	9 822 28                        @ lvgl/src/lv_draw/lv_draw_rect.c:822:28
	ldrsh.w	r1, [sp, #174]
.Ltmp169:
	.loc	9 822 13                        @ lvgl/src/lv_draw/lv_draw_rect.c:822:13
	cmp	r0, r1
	bge	.LBB4_117
	b	.LBB4_113
.LBB4_113:                              @   in Loop: Header=BB4_112 Depth=1
.Ltmp170:
	.loc	9 823 28 is_stmt 1              @ lvgl/src/lv_draw/lv_draw_rect.c:823:28
	ldr	r0, [sp, #292]
	.loc	9 823 38 is_stmt 0              @ lvgl/src/lv_draw/lv_draw_rect.c:823:38
	ldr	r1, [sp, #244]
	.loc	9 823 50                        @ lvgl/src/lv_draw/lv_draw_rect.c:823:50
	ldrsh.w	r2, [sp, #172]
	.loc	9 823 17                        @ lvgl/src/lv_draw/lv_draw_rect.c:823:17
	bl	_lv_memcpy
	.loc	9 824 47 is_stmt 1              @ lvgl/src/lv_draw/lv_draw_rect.c:824:47
	ldr	r0, [sp, #292]
	.loc	9 824 60 is_stmt 0              @ lvgl/src/lv_draw/lv_draw_rect.c:824:60
	ldrsh.w	r1, [sp, #164]
	.loc	9 824 67                        @ lvgl/src/lv_draw/lv_draw_rect.c:824:67
	ldrsh.w	r2, [sp, #166]
	.loc	9 824 71                        @ lvgl/src/lv_draw/lv_draw_rect.c:824:71
	ldrsh.w	r3, [sp, #172]
	.loc	9 824 28                        @ lvgl/src/lv_draw/lv_draw_rect.c:824:28
	bl	lv_draw_mask_apply
	.loc	9 824 26                        @ lvgl/src/lv_draw/lv_draw_rect.c:824:26
	strb.w	r0, [sp, #298]
.Ltmp171:
	.loc	9 825 20 is_stmt 1              @ lvgl/src/lv_draw/lv_draw_rect.c:825:20
	ldrb.w	r0, [sp, #298]
.Ltmp172:
	.loc	9 825 20 is_stmt 0              @ lvgl/src/lv_draw/lv_draw_rect.c:825:20
	cmp	r0, #1
	bne	.LBB4_115
	b	.LBB4_114
.LBB4_114:                              @   in Loop: Header=BB4_112 Depth=1
	.loc	9 0 20                          @ lvgl/src/lv_draw/lv_draw_rect.c:0:20
	movs	r0, #2
.Ltmp173:
	.loc	9 825 70                        @ lvgl/src/lv_draw/lv_draw_rect.c:825:70
	strb.w	r0, [sp, #298]
	.loc	9 825 61                        @ lvgl/src/lv_draw/lv_draw_rect.c:825:61
	b	.LBB4_115
.Ltmp174:
.LBB4_115:                              @   in Loop: Header=BB4_112 Depth=1
	.loc	9 827 32 is_stmt 1              @ lvgl/src/lv_draw/lv_draw_rect.c:827:32
	ldr	r0, [sp, #384]
	.loc	9 827 43 is_stmt 0              @ lvgl/src/lv_draw/lv_draw_rect.c:827:43
	ldr	r2, [sp, #380]
	.loc	9 827 62                        @ lvgl/src/lv_draw/lv_draw_rect.c:827:62
	ldr	r3, [sp, #292]
	.loc	9 828 32 is_stmt 1              @ lvgl/src/lv_draw/lv_draw_rect.c:828:32
	ldrb.w	r1, [sp, #298]
	.loc	9 828 42 is_stmt 0              @ lvgl/src/lv_draw/lv_draw_rect.c:828:42
	ldrb.w	lr, [sp, #359]
	.loc	9 828 52                        @ lvgl/src/lv_draw/lv_draw_rect.c:828:52
	ldrb.w	r4, [r2, #57]
	.loc	9 827 17 is_stmt 1              @ lvgl/src/lv_draw/lv_draw_rect.c:827:17
	ldr	r2, [r2, #44]
	mov	r12, sp
	str.w	r4, [r12, #8]
	str.w	lr, [r12, #4]
	str.w	r1, [r12]
	add	r1, sp, #164
	bl	_lv_blend_fill
	.loc	9 829 22                        @ lvgl/src/lv_draw/lv_draw_rect.c:829:22
	ldrh.w	r0, [sp, #166]
	subs	r0, #1
	strh.w	r0, [sp, #166]
	.loc	9 830 22                        @ lvgl/src/lv_draw/lv_draw_rect.c:830:22
	ldrh.w	r0, [sp, #170]
	subs	r0, #1
	strh.w	r0, [sp, #170]
	.loc	9 831 31                        @ lvgl/src/lv_draw/lv_draw_rect.c:831:31
	ldr	r1, [sp, #308]
	.loc	9 831 28 is_stmt 0              @ lvgl/src/lv_draw/lv_draw_rect.c:831:28
	ldr	r0, [sp, #244]
	add	r0, r1
	str	r0, [sp, #244]
	.loc	9 832 13 is_stmt 1              @ lvgl/src/lv_draw/lv_draw_rect.c:832:13
	b	.LBB4_116
.Ltmp175:
.LBB4_116:                              @   in Loop: Header=BB4_112 Depth=1
	.loc	9 822 32                        @ lvgl/src/lv_draw/lv_draw_rect.c:822:32
	ldr	r0, [sp, #248]
	adds	r0, #1
	str	r0, [sp, #248]
	.loc	9 822 13 is_stmt 0              @ lvgl/src/lv_draw/lv_draw_rect.c:822:13
	b	.LBB4_112
.Ltmp176:
.LBB4_117:
	.loc	9 833 9 is_stmt 1               @ lvgl/src/lv_draw/lv_draw_rect.c:833:9
	b	.LBB4_118
.Ltmp177:
.LBB4_118:
	.loc	9 834 5                         @ lvgl/src/lv_draw/lv_draw_rect.c:834:5
	b	.LBB4_119
.Ltmp178:
.LBB4_119:
	.loc	9 837 20                        @ lvgl/src/lv_draw/lv_draw_rect.c:837:20
	ldrh.w	r0, [sp, #360]
	.loc	9 837 10 is_stmt 0              @ lvgl/src/lv_draw/lv_draw_rect.c:837:10
	strh.w	r0, [sp, #252]
	.loc	9 838 12 is_stmt 1              @ lvgl/src/lv_draw/lv_draw_rect.c:838:12
	ldrh.w	r0, [sp, #252]
	.loc	9 838 19 is_stmt 0              @ lvgl/src/lv_draw/lv_draw_rect.c:838:19
	ldr	r1, [sp, #308]
	.loc	9 838 17                        @ lvgl/src/lv_draw/lv_draw_rect.c:838:17
	add	r0, r1
	.loc	9 838 31                        @ lvgl/src/lv_draw/lv_draw_rect.c:838:31
	subs	r0, #1
	.loc	9 838 10                        @ lvgl/src/lv_draw/lv_draw_rect.c:838:10
	strh.w	r0, [sp, #256]
	.loc	9 839 12 is_stmt 1              @ lvgl/src/lv_draw/lv_draw_rect.c:839:12
	ldrh.w	r0, [sp, #362]
	.loc	9 839 25 is_stmt 0              @ lvgl/src/lv_draw/lv_draw_rect.c:839:25
	ldr	r1, [sp, #308]
	.loc	9 839 23                        @ lvgl/src/lv_draw/lv_draw_rect.c:839:23
	add	r0, r1
	.loc	9 839 10                        @ lvgl/src/lv_draw/lv_draw_rect.c:839:10
	strh.w	r0, [sp, #254]
	.loc	9 840 12 is_stmt 1              @ lvgl/src/lv_draw/lv_draw_rect.c:840:12
	ldrh.w	r0, [sp, #366]
	.loc	9 840 25 is_stmt 0              @ lvgl/src/lv_draw/lv_draw_rect.c:840:25
	ldr	r1, [sp, #308]
	.loc	9 840 23                        @ lvgl/src/lv_draw/lv_draw_rect.c:840:23
	subs	r0, r0, r1
	.loc	9 840 10                        @ lvgl/src/lv_draw/lv_draw_rect.c:840:10
	strh.w	r0, [sp, #258]
	.loc	9 842 43 is_stmt 1              @ lvgl/src/lv_draw/lv_draw_rect.c:842:43
	ldr	r2, [sp, #384]
	add	r0, sp, #236
	add	r1, sp, #252
	.loc	9 842 15 is_stmt 0              @ lvgl/src/lv_draw/lv_draw_rect.c:842:15
	bl	_lv_area_intersect
	.loc	9 842 13                        @ lvgl/src/lv_draw/lv_draw_rect.c:842:13
	strb.w	r0, [sp, #235]
.Ltmp179:
	.loc	9 843 8 is_stmt 1               @ lvgl/src/lv_draw/lv_draw_rect.c:843:8
	ldrb.w	r0, [sp, #235]
	.loc	9 843 16 is_stmt 0              @ lvgl/src/lv_draw/lv_draw_rect.c:843:16
	lsls	r0, r0, #31
	cmp	r0, #0
	beq.w	.LBB4_138
	b	.LBB4_120
.LBB4_120:
	.loc	9 843 50                        @ lvgl/src/lv_draw/lv_draw_rect.c:843:50
	ldrsh.w	r2, [sp, #320]
	add	r0, sp, #252
	add	r1, sp, #324
	.loc	9 843 19                        @ lvgl/src/lv_draw/lv_draw_rect.c:843:19
	bl	_lv_area_is_in
.Ltmp180:
	.loc	9 843 8                         @ lvgl/src/lv_draw/lv_draw_rect.c:843:8
	cmp	r0, #0
	bne.w	.LBB4_138
	b	.LBB4_121
.LBB4_121:
.Ltmp181:
	.loc	9 844 12 is_stmt 1              @ lvgl/src/lv_draw/lv_draw_rect.c:844:12
	ldrb.w	r0, [sp, #299]
.Ltmp182:
	.loc	9 844 12 is_stmt 0              @ lvgl/src/lv_draw/lv_draw_rect.c:844:12
	lsls	r0, r0, #31
	cbz	r0, .LBB4_126
	b	.LBB4_122
.LBB4_122:
.Ltmp183:
	.loc	9 844 33                        @ lvgl/src/lv_draw/lv_draw_rect.c:844:33
	ldr	r0, [sp, #388]
	ldrsh.w	r0, [r0]
	ldrsh.w	r1, [sp, #240]
	cmp	r0, r1
	bge	.LBB4_124
	b	.LBB4_123
.LBB4_123:
	ldr	r0, [sp, #388]
	ldrsh.w	r0, [r0]
	str	r0, [sp, #40]                   @ 4-byte Spill
	b	.LBB4_125
.LBB4_124:
	ldrsh.w	r0, [sp, #240]
	str	r0, [sp, #40]                   @ 4-byte Spill
	b	.LBB4_125
.LBB4_125:
	ldr	r0, [sp, #40]                   @ 4-byte Reload
	.loc	9 844 31                        @ lvgl/src/lv_draw/lv_draw_rect.c:844:31
	strh.w	r0, [sp, #240]
	.loc	9 844 25                        @ lvgl/src/lv_draw/lv_draw_rect.c:844:25
	b	.LBB4_126
.Ltmp184:
.LBB4_126:
	.loc	9 0 25                          @ lvgl/src/lv_draw/lv_draw_rect.c:0:25
	add	r0, sp, #236
	.loc	9 846 24 is_stmt 1              @ lvgl/src/lv_draw/lv_draw_rect.c:846:24
	bl	lv_area_get_width
	.loc	9 846 20 is_stmt 0              @ lvgl/src/lv_draw/lv_draw_rect.c:846:20
	strh.w	r0, [sp, #162]
.Ltmp185:
	.loc	9 847 12 is_stmt 1              @ lvgl/src/lv_draw/lv_draw_rect.c:847:12
	ldrsh.w	r0, [sp, #162]
.Ltmp186:
	.loc	9 847 12 is_stmt 0              @ lvgl/src/lv_draw/lv_draw_rect.c:847:12
	cmp	r0, #1
	blt	.LBB4_137
	b	.LBB4_127
.LBB4_127:
	.loc	9 0 12                          @ lvgl/src/lv_draw/lv_draw_rect.c:0:12
	add	r0, sp, #236
.Ltmp187:
	.loc	9 848 28 is_stmt 1              @ lvgl/src/lv_draw/lv_draw_rect.c:848:28
	str	r0, [sp, #36]                   @ 4-byte Spill
	bl	lv_area_get_height
	ldr	r1, [sp, #36]                   @ 4-byte Reload
	.loc	9 848 24 is_stmt 0              @ lvgl/src/lv_draw/lv_draw_rect.c:848:24
	strh.w	r0, [sp, #160]
	.loc	9 850 26 is_stmt 1              @ lvgl/src/lv_draw/lv_draw_rect.c:850:26
	ldr	r3, [sp, #304]
	.loc	9 850 35 is_stmt 0              @ lvgl/src/lv_draw/lv_draw_rect.c:850:35
	ldr	r0, [sp, #308]
	.loc	9 850 62                        @ lvgl/src/lv_draw/lv_draw_rect.c:850:62
	subs	r2, r0, #1
	.loc	9 850 33                        @ lvgl/src/lv_draw/lv_draw_rect.c:850:33
	mla	r0, r0, r2, r3
	.loc	9 850 24                        @ lvgl/src/lv_draw/lv_draw_rect.c:850:24
	str	r0, [sp, #244]
	.loc	9 851 30 is_stmt 1              @ lvgl/src/lv_draw/lv_draw_rect.c:851:30
	ldrsh.w	r0, [sp, #236]
	.loc	9 851 37 is_stmt 0              @ lvgl/src/lv_draw/lv_draw_rect.c:851:37
	ldrsh.w	r2, [sp, #252]
	.loc	9 851 33                        @ lvgl/src/lv_draw/lv_draw_rect.c:851:33
	subs	r2, r0, r2
	.loc	9 851 24                        @ lvgl/src/lv_draw/lv_draw_rect.c:851:24
	ldr	r0, [sp, #244]
	add	r0, r2
	str	r0, [sp, #244]
	add	r0, sp, #152
	.loc	9 854 13 is_stmt 1              @ lvgl/src/lv_draw/lv_draw_rect.c:854:13
	bl	lv_area_copy
	.loc	9 855 24                        @ lvgl/src/lv_draw/lv_draw_rect.c:855:24
	ldrh.w	r0, [sp, #154]
	.loc	9 855 19 is_stmt 0              @ lvgl/src/lv_draw/lv_draw_rect.c:855:19
	strh.w	r0, [sp, #158]
	movs	r0, #0
.Ltmp188:
	.loc	9 856 19 is_stmt 1              @ lvgl/src/lv_draw/lv_draw_rect.c:856:19
	str	r0, [sp, #248]
	.loc	9 856 17 is_stmt 0              @ lvgl/src/lv_draw/lv_draw_rect.c:856:17
	b	.LBB4_128
.LBB4_128:                              @ =>This Inner Loop Header: Depth=1
.Ltmp189:
	.loc	9 856 24                        @ lvgl/src/lv_draw/lv_draw_rect.c:856:24
	ldr	r0, [sp, #248]
	.loc	9 856 28                        @ lvgl/src/lv_draw/lv_draw_rect.c:856:28
	ldrsh.w	r1, [sp, #160]
.Ltmp190:
	.loc	9 856 13                        @ lvgl/src/lv_draw/lv_draw_rect.c:856:13
	cmp	r0, r1
	bge	.LBB4_136
	b	.LBB4_129
.LBB4_129:                              @   in Loop: Header=BB4_128 Depth=1
.Ltmp191:
	.loc	9 857 28 is_stmt 1              @ lvgl/src/lv_draw/lv_draw_rect.c:857:28
	ldr	r0, [sp, #292]
	.loc	9 857 38 is_stmt 0              @ lvgl/src/lv_draw/lv_draw_rect.c:857:38
	ldr	r1, [sp, #244]
	.loc	9 857 50                        @ lvgl/src/lv_draw/lv_draw_rect.c:857:50
	ldrsh.w	r2, [sp, #162]
	.loc	9 857 17                        @ lvgl/src/lv_draw/lv_draw_rect.c:857:17
	bl	_lv_memcpy
.Ltmp192:
	.loc	9 858 20 is_stmt 1              @ lvgl/src/lv_draw/lv_draw_rect.c:858:20
	ldrb.w	r0, [sp, #299]
.Ltmp193:
	.loc	9 858 20 is_stmt 0              @ lvgl/src/lv_draw/lv_draw_rect.c:858:20
	lsls	r0, r0, #31
	cbz	r0, .LBB4_131
	b	.LBB4_130
.LBB4_130:                              @   in Loop: Header=BB4_128 Depth=1
	.loc	9 0 20                          @ lvgl/src/lv_draw/lv_draw_rect.c:0:20
	movs	r0, #2
.Ltmp194:
	.loc	9 859 30 is_stmt 1              @ lvgl/src/lv_draw/lv_draw_rect.c:859:30
	strb.w	r0, [sp, #298]
	.loc	9 860 17                        @ lvgl/src/lv_draw/lv_draw_rect.c:860:17
	b	.LBB4_134
.Ltmp195:
.LBB4_131:                              @   in Loop: Header=BB4_128 Depth=1
	.loc	9 862 51                        @ lvgl/src/lv_draw/lv_draw_rect.c:862:51
	ldr	r0, [sp, #292]
	.loc	9 862 64 is_stmt 0              @ lvgl/src/lv_draw/lv_draw_rect.c:862:64
	ldrsh.w	r1, [sp, #152]
	.loc	9 862 71                        @ lvgl/src/lv_draw/lv_draw_rect.c:862:71
	ldrsh.w	r2, [sp, #154]
	.loc	9 862 75                        @ lvgl/src/lv_draw/lv_draw_rect.c:862:75
	ldrsh.w	r3, [sp, #162]
	.loc	9 862 32                        @ lvgl/src/lv_draw/lv_draw_rect.c:862:32
	bl	lv_draw_mask_apply
	.loc	9 862 30                        @ lvgl/src/lv_draw/lv_draw_rect.c:862:30
	strb.w	r0, [sp, #298]
.Ltmp196:
	.loc	9 863 24 is_stmt 1              @ lvgl/src/lv_draw/lv_draw_rect.c:863:24
	ldrb.w	r0, [sp, #298]
.Ltmp197:
	.loc	9 863 24 is_stmt 0              @ lvgl/src/lv_draw/lv_draw_rect.c:863:24
	cmp	r0, #1
	bne	.LBB4_133
	b	.LBB4_132
.LBB4_132:                              @   in Loop: Header=BB4_128 Depth=1
	.loc	9 0 24                          @ lvgl/src/lv_draw/lv_draw_rect.c:0:24
	movs	r0, #2
.Ltmp198:
	.loc	9 863 74                        @ lvgl/src/lv_draw/lv_draw_rect.c:863:74
	strb.w	r0, [sp, #298]
	.loc	9 863 65                        @ lvgl/src/lv_draw/lv_draw_rect.c:863:65
	b	.LBB4_133
.Ltmp199:
.LBB4_133:                              @   in Loop: Header=BB4_128 Depth=1
	.loc	9 0 65                          @ lvgl/src/lv_draw/lv_draw_rect.c:0:65
	b	.LBB4_134
.LBB4_134:                              @   in Loop: Header=BB4_128 Depth=1
	.loc	9 866 32 is_stmt 1              @ lvgl/src/lv_draw/lv_draw_rect.c:866:32
	ldr	r0, [sp, #384]
	.loc	9 867 32                        @ lvgl/src/lv_draw/lv_draw_rect.c:867:32
	ldr	r2, [sp, #380]
	.loc	9 867 51 is_stmt 0              @ lvgl/src/lv_draw/lv_draw_rect.c:867:51
	ldr	r3, [sp, #292]
	.loc	9 867 61                        @ lvgl/src/lv_draw/lv_draw_rect.c:867:61
	ldrb.w	r1, [sp, #298]
	.loc	9 867 76                        @ lvgl/src/lv_draw/lv_draw_rect.c:867:76
	ldrb.w	lr, [r2, #56]
	.loc	9 867 93                        @ lvgl/src/lv_draw/lv_draw_rect.c:867:93
	ldrb.w	r4, [r2, #57]
	.loc	9 866 17 is_stmt 1              @ lvgl/src/lv_draw/lv_draw_rect.c:866:17
	ldr	r2, [r2, #44]
	mov	r12, sp
	str.w	r4, [r12, #8]
	str.w	lr, [r12, #4]
	str.w	r1, [r12]
	add	r1, sp, #152
	bl	_lv_blend_fill
	.loc	9 868 22                        @ lvgl/src/lv_draw/lv_draw_rect.c:868:22
	ldrh.w	r0, [sp, #154]
	adds	r0, #1
	strh.w	r0, [sp, #154]
	.loc	9 869 22                        @ lvgl/src/lv_draw/lv_draw_rect.c:869:22
	ldrh.w	r0, [sp, #158]
	adds	r0, #1
	strh.w	r0, [sp, #158]
	.loc	9 870 13                        @ lvgl/src/lv_draw/lv_draw_rect.c:870:13
	b	.LBB4_135
.Ltmp200:
.LBB4_135:                              @   in Loop: Header=BB4_128 Depth=1
	.loc	9 856 32                        @ lvgl/src/lv_draw/lv_draw_rect.c:856:32
	ldr	r0, [sp, #248]
	adds	r0, #1
	str	r0, [sp, #248]
	.loc	9 856 13 is_stmt 0              @ lvgl/src/lv_draw/lv_draw_rect.c:856:13
	b	.LBB4_128
.Ltmp201:
.LBB4_136:
	.loc	9 871 9 is_stmt 1               @ lvgl/src/lv_draw/lv_draw_rect.c:871:9
	b	.LBB4_137
.Ltmp202:
.LBB4_137:
	.loc	9 872 5                         @ lvgl/src/lv_draw/lv_draw_rect.c:872:5
	b	.LBB4_138
.Ltmp203:
.LBB4_138:
	.loc	9 875 12                        @ lvgl/src/lv_draw/lv_draw_rect.c:875:12
	ldrh.w	r0, [sp, #360]
	.loc	9 875 25 is_stmt 0              @ lvgl/src/lv_draw/lv_draw_rect.c:875:25
	ldr	r1, [sp, #308]
	.loc	9 875 23                        @ lvgl/src/lv_draw/lv_draw_rect.c:875:23
	add	r0, r1
	.loc	9 875 10                        @ lvgl/src/lv_draw/lv_draw_rect.c:875:10
	strh.w	r0, [sp, #252]
	.loc	9 876 12 is_stmt 1              @ lvgl/src/lv_draw/lv_draw_rect.c:876:12
	ldrh.w	r0, [sp, #364]
	.loc	9 876 25 is_stmt 0              @ lvgl/src/lv_draw/lv_draw_rect.c:876:25
	ldr	r1, [sp, #308]
	.loc	9 876 23                        @ lvgl/src/lv_draw/lv_draw_rect.c:876:23
	subs	r0, r0, r1
	.loc	9 876 10                        @ lvgl/src/lv_draw/lv_draw_rect.c:876:10
	strh.w	r0, [sp, #256]
	.loc	9 877 20 is_stmt 1              @ lvgl/src/lv_draw/lv_draw_rect.c:877:20
	ldrh.w	r0, [sp, #362]
	.loc	9 877 10 is_stmt 0              @ lvgl/src/lv_draw/lv_draw_rect.c:877:10
	strh.w	r0, [sp, #254]
	.loc	9 878 12 is_stmt 1              @ lvgl/src/lv_draw/lv_draw_rect.c:878:12
	ldrh.w	r0, [sp, #362]
	.loc	9 878 25 is_stmt 0              @ lvgl/src/lv_draw/lv_draw_rect.c:878:25
	ldr	r1, [sp, #308]
	.loc	9 878 23                        @ lvgl/src/lv_draw/lv_draw_rect.c:878:23
	add	r0, r1
	.loc	9 878 37                        @ lvgl/src/lv_draw/lv_draw_rect.c:878:37
	subs	r0, #1
	.loc	9 878 10                        @ lvgl/src/lv_draw/lv_draw_rect.c:878:10
	strh.w	r0, [sp, #258]
	.loc	9 880 43 is_stmt 1              @ lvgl/src/lv_draw/lv_draw_rect.c:880:43
	ldr	r2, [sp, #384]
	add	r0, sp, #236
	add	r1, sp, #252
	.loc	9 880 15 is_stmt 0              @ lvgl/src/lv_draw/lv_draw_rect.c:880:15
	bl	_lv_area_intersect
	.loc	9 880 13                        @ lvgl/src/lv_draw/lv_draw_rect.c:880:13
	strb.w	r0, [sp, #235]
.Ltmp204:
	.loc	9 881 8 is_stmt 1               @ lvgl/src/lv_draw/lv_draw_rect.c:881:8
	ldrb.w	r0, [sp, #235]
	.loc	9 881 16 is_stmt 0              @ lvgl/src/lv_draw/lv_draw_rect.c:881:16
	lsls	r0, r0, #31
	cmp	r0, #0
	beq.w	.LBB4_158
	b	.LBB4_139
.LBB4_139:
	.loc	9 881 50                        @ lvgl/src/lv_draw/lv_draw_rect.c:881:50
	ldrsh.w	r2, [sp, #320]
	add	r0, sp, #252
	add	r1, sp, #324
	.loc	9 881 19                        @ lvgl/src/lv_draw/lv_draw_rect.c:881:19
	bl	_lv_area_is_in
.Ltmp205:
	.loc	9 881 8                         @ lvgl/src/lv_draw/lv_draw_rect.c:881:8
	cmp	r0, #0
	bne.w	.LBB4_158
	b	.LBB4_140
.LBB4_140:
.Ltmp206:
	.loc	9 882 12 is_stmt 1              @ lvgl/src/lv_draw/lv_draw_rect.c:882:12
	ldrb.w	r0, [sp, #299]
.Ltmp207:
	.loc	9 882 12 is_stmt 0              @ lvgl/src/lv_draw/lv_draw_rect.c:882:12
	lsls	r0, r0, #31
	cbz	r0, .LBB4_145
	b	.LBB4_141
.LBB4_141:
.Ltmp208:
	.loc	9 882 33                        @ lvgl/src/lv_draw/lv_draw_rect.c:882:33
	ldrsh.w	r0, [sp, #242]
	ldr	r1, [sp, #388]
	ldrsh.w	r1, [r1, #2]
	cmp	r0, r1
	bge	.LBB4_143
	b	.LBB4_142
.LBB4_142:
	ldrsh.w	r0, [sp, #242]
	str	r0, [sp, #32]                   @ 4-byte Spill
	b	.LBB4_144
.LBB4_143:
	ldr	r0, [sp, #388]
	ldrsh.w	r0, [r0, #2]
	str	r0, [sp, #32]                   @ 4-byte Spill
	b	.LBB4_144
.LBB4_144:
	ldr	r0, [sp, #32]                   @ 4-byte Reload
	.loc	9 882 31                        @ lvgl/src/lv_draw/lv_draw_rect.c:882:31
	strh.w	r0, [sp, #242]
	.loc	9 882 25                        @ lvgl/src/lv_draw/lv_draw_rect.c:882:25
	b	.LBB4_145
.Ltmp209:
.LBB4_145:
	.loc	9 0 25                          @ lvgl/src/lv_draw/lv_draw_rect.c:0:25
	add	r0, sp, #236
	.loc	9 884 24 is_stmt 1              @ lvgl/src/lv_draw/lv_draw_rect.c:884:24
	str	r0, [sp, #28]                   @ 4-byte Spill
	bl	lv_area_get_width
	mov	r1, r0
	.loc	9 884 20 is_stmt 0              @ lvgl/src/lv_draw/lv_draw_rect.c:884:20
	ldr	r0, [sp, #28]                   @ 4-byte Reload
	strh.w	r1, [sp, #150]
	.loc	9 885 24 is_stmt 1              @ lvgl/src/lv_draw/lv_draw_rect.c:885:24
	bl	lv_area_get_height
	ldr	r1, [sp, #28]                   @ 4-byte Reload
	.loc	9 885 20 is_stmt 0              @ lvgl/src/lv_draw/lv_draw_rect.c:885:20
	strh.w	r0, [sp, #148]
	.loc	9 886 22 is_stmt 1              @ lvgl/src/lv_draw/lv_draw_rect.c:886:22
	ldr	r0, [sp, #304]
	.loc	9 886 31 is_stmt 0              @ lvgl/src/lv_draw/lv_draw_rect.c:886:31
	ldr	r2, [sp, #308]
	.loc	9 886 29                        @ lvgl/src/lv_draw/lv_draw_rect.c:886:29
	add	r0, r2
	.loc	9 886 43                        @ lvgl/src/lv_draw/lv_draw_rect.c:886:43
	subs	r0, #1
	.loc	9 886 20                        @ lvgl/src/lv_draw/lv_draw_rect.c:886:20
	str	r0, [sp, #244]
	.loc	9 887 23 is_stmt 1              @ lvgl/src/lv_draw/lv_draw_rect.c:887:23
	ldr	r0, [sp, #308]
	.loc	9 887 41 is_stmt 0              @ lvgl/src/lv_draw/lv_draw_rect.c:887:41
	ldrsh.w	r2, [sp, #238]
	.loc	9 887 48                        @ lvgl/src/lv_draw/lv_draw_rect.c:887:48
	ldrsh.w	r3, [sp, #254]
	.loc	9 887 44                        @ lvgl/src/lv_draw/lv_draw_rect.c:887:44
	subs	r2, r2, r3
	.loc	9 887 20                        @ lvgl/src/lv_draw/lv_draw_rect.c:887:20
	ldr	r3, [sp, #244]
	mla	r0, r0, r2, r3
	str	r0, [sp, #244]
	add	r0, sp, #140
	.loc	9 890 9 is_stmt 1               @ lvgl/src/lv_draw/lv_draw_rect.c:890:9
	bl	lv_area_copy
	.loc	9 891 20                        @ lvgl/src/lv_draw/lv_draw_rect.c:891:20
	ldrh.w	r0, [sp, #142]
	.loc	9 891 15 is_stmt 0              @ lvgl/src/lv_draw/lv_draw_rect.c:891:15
	strh.w	r0, [sp, #146]
	movs	r0, #1
	.loc	9 892 18 is_stmt 1              @ lvgl/src/lv_draw/lv_draw_rect.c:892:18
	strb.w	r0, [sp, #298]
	movs	r0, #0
.Ltmp210:
	.loc	9 893 15                        @ lvgl/src/lv_draw/lv_draw_rect.c:893:15
	str	r0, [sp, #248]
	.loc	9 893 13 is_stmt 0              @ lvgl/src/lv_draw/lv_draw_rect.c:893:13
	b	.LBB4_146
.LBB4_146:                              @ =>This Inner Loop Header: Depth=1
.Ltmp211:
	.loc	9 893 20                        @ lvgl/src/lv_draw/lv_draw_rect.c:893:20
	ldr	r0, [sp, #248]
	.loc	9 893 24                        @ lvgl/src/lv_draw/lv_draw_rect.c:893:24
	ldrsh.w	r1, [sp, #148]
.Ltmp212:
	.loc	9 893 9                         @ lvgl/src/lv_draw/lv_draw_rect.c:893:9
	cmp	r0, r1
	bge	.LBB4_157
	b	.LBB4_147
.LBB4_147:                              @   in Loop: Header=BB4_146 Depth=1
.Ltmp213:
	.loc	9 894 32 is_stmt 1              @ lvgl/src/lv_draw/lv_draw_rect.c:894:32
	ldr	r0, [sp, #244]
	ldrb	r0, [r0]
	.loc	9 894 22 is_stmt 0              @ lvgl/src/lv_draw/lv_draw_rect.c:894:22
	strb.w	r0, [sp, #139]
.Ltmp214:
	.loc	9 895 16 is_stmt 1              @ lvgl/src/lv_draw/lv_draw_rect.c:895:16
	ldrb.w	r0, [sp, #139]
	.loc	9 895 40 is_stmt 0              @ lvgl/src/lv_draw/lv_draw_rect.c:895:40
	cmp	r0, #255
	bne	.LBB4_149
	b	.LBB4_148
.LBB4_148:                              @   in Loop: Header=BB4_146 Depth=1
	.loc	9 895 43                        @ lvgl/src/lv_draw/lv_draw_rect.c:895:43
	ldrb.w	r0, [sp, #359]
.Ltmp215:
	.loc	9 895 16                        @ lvgl/src/lv_draw/lv_draw_rect.c:895:16
	cmp	r0, #255
	beq	.LBB4_150
	b	.LBB4_149
.LBB4_149:                              @   in Loop: Header=BB4_146 Depth=1
.Ltmp216:
	.loc	9 895 75                        @ lvgl/src/lv_draw/lv_draw_rect.c:895:75
	ldrb.w	r0, [sp, #359]
	.loc	9 895 81                        @ lvgl/src/lv_draw/lv_draw_rect.c:895:81
	ldrb.w	r1, [sp, #139]
	.loc	9 895 79                        @ lvgl/src/lv_draw/lv_draw_rect.c:895:79
	muls	r0, r1, r0
	.loc	9 895 90                        @ lvgl/src/lv_draw/lv_draw_rect.c:895:90
	lsrs	r0, r0, #8
	.loc	9 895 72                        @ lvgl/src/lv_draw/lv_draw_rect.c:895:72
	strb.w	r0, [sp, #139]
	.loc	9 895 64                        @ lvgl/src/lv_draw/lv_draw_rect.c:895:64
	b	.LBB4_150
.Ltmp217:
.LBB4_150:                              @   in Loop: Header=BB4_146 Depth=1
	.loc	9 897 24 is_stmt 1              @ lvgl/src/lv_draw/lv_draw_rect.c:897:24
	ldr	r0, [sp, #292]
	.loc	9 897 34 is_stmt 0              @ lvgl/src/lv_draw/lv_draw_rect.c:897:34
	ldrb.w	r1, [sp, #139]
	.loc	9 897 43                        @ lvgl/src/lv_draw/lv_draw_rect.c:897:43
	ldrsh.w	r2, [sp, #150]
	.loc	9 897 13                        @ lvgl/src/lv_draw/lv_draw_rect.c:897:13
	bl	_lv_memset
.Ltmp218:
	.loc	9 899 16 is_stmt 1              @ lvgl/src/lv_draw/lv_draw_rect.c:899:16
	ldrb.w	r0, [sp, #299]
.Ltmp219:
	.loc	9 899 16 is_stmt 0              @ lvgl/src/lv_draw/lv_draw_rect.c:899:16
	lsls	r0, r0, #31
	cbz	r0, .LBB4_152
	b	.LBB4_151
.LBB4_151:                              @   in Loop: Header=BB4_146 Depth=1
	.loc	9 0 16                          @ lvgl/src/lv_draw/lv_draw_rect.c:0:16
	movs	r0, #2
.Ltmp220:
	.loc	9 900 26 is_stmt 1              @ lvgl/src/lv_draw/lv_draw_rect.c:900:26
	strb.w	r0, [sp, #298]
	.loc	9 901 13                        @ lvgl/src/lv_draw/lv_draw_rect.c:901:13
	b	.LBB4_155
.Ltmp221:
.LBB4_152:                              @   in Loop: Header=BB4_146 Depth=1
	.loc	9 903 47                        @ lvgl/src/lv_draw/lv_draw_rect.c:903:47
	ldr	r0, [sp, #292]
	.loc	9 903 60 is_stmt 0              @ lvgl/src/lv_draw/lv_draw_rect.c:903:60
	ldrsh.w	r1, [sp, #140]
	.loc	9 903 67                        @ lvgl/src/lv_draw/lv_draw_rect.c:903:67
	ldrsh.w	r2, [sp, #142]
	.loc	9 903 71                        @ lvgl/src/lv_draw/lv_draw_rect.c:903:71
	ldrsh.w	r3, [sp, #150]
	.loc	9 903 28                        @ lvgl/src/lv_draw/lv_draw_rect.c:903:28
	bl	lv_draw_mask_apply
	.loc	9 903 26                        @ lvgl/src/lv_draw/lv_draw_rect.c:903:26
	strb.w	r0, [sp, #298]
.Ltmp222:
	.loc	9 904 20 is_stmt 1              @ lvgl/src/lv_draw/lv_draw_rect.c:904:20
	ldrb.w	r0, [sp, #298]
.Ltmp223:
	.loc	9 904 20 is_stmt 0              @ lvgl/src/lv_draw/lv_draw_rect.c:904:20
	cmp	r0, #1
	bne	.LBB4_154
	b	.LBB4_153
.LBB4_153:                              @   in Loop: Header=BB4_146 Depth=1
	.loc	9 0 20                          @ lvgl/src/lv_draw/lv_draw_rect.c:0:20
	movs	r0, #2
.Ltmp224:
	.loc	9 904 70                        @ lvgl/src/lv_draw/lv_draw_rect.c:904:70
	strb.w	r0, [sp, #298]
	.loc	9 904 61                        @ lvgl/src/lv_draw/lv_draw_rect.c:904:61
	b	.LBB4_154
.Ltmp225:
.LBB4_154:                              @   in Loop: Header=BB4_146 Depth=1
	.loc	9 0 61                          @ lvgl/src/lv_draw/lv_draw_rect.c:0:61
	b	.LBB4_155
.LBB4_155:                              @   in Loop: Header=BB4_146 Depth=1
	.loc	9 907 28 is_stmt 1              @ lvgl/src/lv_draw/lv_draw_rect.c:907:28
	ldr	r0, [sp, #384]
	.loc	9 907 39 is_stmt 0              @ lvgl/src/lv_draw/lv_draw_rect.c:907:39
	ldr	r2, [sp, #380]
	.loc	9 907 58                        @ lvgl/src/lv_draw/lv_draw_rect.c:907:58
	ldr	r3, [sp, #292]
	.loc	9 908 28 is_stmt 1              @ lvgl/src/lv_draw/lv_draw_rect.c:908:28
	ldrb.w	r1, [sp, #298]
	.loc	9 908 57 is_stmt 0              @ lvgl/src/lv_draw/lv_draw_rect.c:908:57
	ldrb.w	lr, [r2, #57]
	.loc	9 907 13 is_stmt 1              @ lvgl/src/lv_draw/lv_draw_rect.c:907:13
	ldr	r2, [r2, #44]
	mov	r12, sp
	str.w	lr, [r12, #8]
	mov.w	lr, #255
	str.w	lr, [r12, #4]
	str.w	r1, [r12]
	add	r1, sp, #140
	bl	_lv_blend_fill
	.loc	9 909 18                        @ lvgl/src/lv_draw/lv_draw_rect.c:909:18
	ldrh.w	r0, [sp, #142]
	adds	r0, #1
	strh.w	r0, [sp, #142]
	.loc	9 910 18                        @ lvgl/src/lv_draw/lv_draw_rect.c:910:18
	ldrh.w	r0, [sp, #146]
	adds	r0, #1
	strh.w	r0, [sp, #146]
	.loc	9 911 27                        @ lvgl/src/lv_draw/lv_draw_rect.c:911:27
	ldr	r1, [sp, #308]
	.loc	9 911 24 is_stmt 0              @ lvgl/src/lv_draw/lv_draw_rect.c:911:24
	ldr	r0, [sp, #244]
	add	r0, r1
	str	r0, [sp, #244]
	.loc	9 912 9 is_stmt 1               @ lvgl/src/lv_draw/lv_draw_rect.c:912:9
	b	.LBB4_156
.Ltmp226:
.LBB4_156:                              @   in Loop: Header=BB4_146 Depth=1
	.loc	9 893 28                        @ lvgl/src/lv_draw/lv_draw_rect.c:893:28
	ldr	r0, [sp, #248]
	adds	r0, #1
	str	r0, [sp, #248]
	.loc	9 893 9 is_stmt 0               @ lvgl/src/lv_draw/lv_draw_rect.c:893:9
	b	.LBB4_146
.Ltmp227:
.LBB4_157:
	.loc	9 913 5 is_stmt 1               @ lvgl/src/lv_draw/lv_draw_rect.c:913:5
	b	.LBB4_158
.Ltmp228:
.LBB4_158:
	.loc	9 916 12                        @ lvgl/src/lv_draw/lv_draw_rect.c:916:12
	ldrh.w	r0, [sp, #360]
	.loc	9 916 25 is_stmt 0              @ lvgl/src/lv_draw/lv_draw_rect.c:916:25
	ldr	r1, [sp, #308]
	.loc	9 916 23                        @ lvgl/src/lv_draw/lv_draw_rect.c:916:23
	add	r0, r1
	.loc	9 916 10                        @ lvgl/src/lv_draw/lv_draw_rect.c:916:10
	strh.w	r0, [sp, #252]
	.loc	9 917 12 is_stmt 1              @ lvgl/src/lv_draw/lv_draw_rect.c:917:12
	ldrh.w	r0, [sp, #364]
	.loc	9 917 25 is_stmt 0              @ lvgl/src/lv_draw/lv_draw_rect.c:917:25
	ldr	r1, [sp, #308]
	.loc	9 917 23                        @ lvgl/src/lv_draw/lv_draw_rect.c:917:23
	subs	r0, r0, r1
	.loc	9 917 10                        @ lvgl/src/lv_draw/lv_draw_rect.c:917:10
	strh.w	r0, [sp, #256]
	.loc	9 918 12 is_stmt 1              @ lvgl/src/lv_draw/lv_draw_rect.c:918:12
	ldrh.w	r0, [sp, #366]
	.loc	9 918 25 is_stmt 0              @ lvgl/src/lv_draw/lv_draw_rect.c:918:25
	ldr	r1, [sp, #308]
	.loc	9 918 23                        @ lvgl/src/lv_draw/lv_draw_rect.c:918:23
	subs	r0, r0, r1
	.loc	9 918 37                        @ lvgl/src/lv_draw/lv_draw_rect.c:918:37
	adds	r0, #1
	.loc	9 918 10                        @ lvgl/src/lv_draw/lv_draw_rect.c:918:10
	strh.w	r0, [sp, #254]
	.loc	9 919 20 is_stmt 1              @ lvgl/src/lv_draw/lv_draw_rect.c:919:20
	ldrh.w	r0, [sp, #366]
	.loc	9 919 10 is_stmt 0              @ lvgl/src/lv_draw/lv_draw_rect.c:919:10
	strh.w	r0, [sp, #258]
	.loc	9 921 43 is_stmt 1              @ lvgl/src/lv_draw/lv_draw_rect.c:921:43
	ldr	r2, [sp, #384]
	add	r0, sp, #236
	add	r1, sp, #252
	.loc	9 921 15 is_stmt 0              @ lvgl/src/lv_draw/lv_draw_rect.c:921:15
	bl	_lv_area_intersect
	.loc	9 921 13                        @ lvgl/src/lv_draw/lv_draw_rect.c:921:13
	strb.w	r0, [sp, #235]
.Ltmp229:
	.loc	9 922 8 is_stmt 1               @ lvgl/src/lv_draw/lv_draw_rect.c:922:8
	ldrb.w	r0, [sp, #235]
	.loc	9 922 16 is_stmt 0              @ lvgl/src/lv_draw/lv_draw_rect.c:922:16
	lsls	r0, r0, #31
	cmp	r0, #0
	beq.w	.LBB4_178
	b	.LBB4_159
.LBB4_159:
	.loc	9 922 50                        @ lvgl/src/lv_draw/lv_draw_rect.c:922:50
	ldrsh.w	r2, [sp, #320]
	add	r0, sp, #252
	add	r1, sp, #324
	.loc	9 922 19                        @ lvgl/src/lv_draw/lv_draw_rect.c:922:19
	bl	_lv_area_is_in
.Ltmp230:
	.loc	9 922 8                         @ lvgl/src/lv_draw/lv_draw_rect.c:922:8
	cmp	r0, #0
	bne.w	.LBB4_178
	b	.LBB4_160
.LBB4_160:
.Ltmp231:
	.loc	9 923 12 is_stmt 1              @ lvgl/src/lv_draw/lv_draw_rect.c:923:12
	ldrb.w	r0, [sp, #299]
.Ltmp232:
	.loc	9 923 12 is_stmt 0              @ lvgl/src/lv_draw/lv_draw_rect.c:923:12
	lsls	r0, r0, #31
	cbz	r0, .LBB4_165
	b	.LBB4_161
.LBB4_161:
.Ltmp233:
	.loc	9 923 33                        @ lvgl/src/lv_draw/lv_draw_rect.c:923:33
	ldrsh.w	r0, [sp, #238]
	ldr	r1, [sp, #388]
	ldrsh.w	r1, [r1, #6]
	cmp	r0, r1
	ble	.LBB4_163
	b	.LBB4_162
.LBB4_162:
	ldrsh.w	r0, [sp, #238]
	str	r0, [sp, #24]                   @ 4-byte Spill
	b	.LBB4_164
.LBB4_163:
	ldr	r0, [sp, #388]
	ldrsh.w	r0, [r0, #6]
	str	r0, [sp, #24]                   @ 4-byte Spill
	b	.LBB4_164
.LBB4_164:
	ldr	r0, [sp, #24]                   @ 4-byte Reload
	.loc	9 923 31                        @ lvgl/src/lv_draw/lv_draw_rect.c:923:31
	strh.w	r0, [sp, #238]
	.loc	9 923 25                        @ lvgl/src/lv_draw/lv_draw_rect.c:923:25
	b	.LBB4_165
.Ltmp234:
.LBB4_165:
	.loc	9 0 25                          @ lvgl/src/lv_draw/lv_draw_rect.c:0:25
	add	r0, sp, #236
	.loc	9 925 24 is_stmt 1              @ lvgl/src/lv_draw/lv_draw_rect.c:925:24
	str	r0, [sp, #20]                   @ 4-byte Spill
	bl	lv_area_get_width
	mov	r1, r0
	.loc	9 925 20 is_stmt 0              @ lvgl/src/lv_draw/lv_draw_rect.c:925:20
	ldr	r0, [sp, #20]                   @ 4-byte Reload
	strh.w	r1, [sp, #136]
	.loc	9 926 24 is_stmt 1              @ lvgl/src/lv_draw/lv_draw_rect.c:926:24
	bl	lv_area_get_height
	ldr	r1, [sp, #20]                   @ 4-byte Reload
	.loc	9 926 20 is_stmt 0              @ lvgl/src/lv_draw/lv_draw_rect.c:926:20
	strh.w	r0, [sp, #134]
	.loc	9 927 22 is_stmt 1              @ lvgl/src/lv_draw/lv_draw_rect.c:927:22
	ldr	r0, [sp, #304]
	.loc	9 927 31 is_stmt 0              @ lvgl/src/lv_draw/lv_draw_rect.c:927:31
	ldr	r2, [sp, #308]
	.loc	9 927 29                        @ lvgl/src/lv_draw/lv_draw_rect.c:927:29
	add	r0, r2
	.loc	9 927 43                        @ lvgl/src/lv_draw/lv_draw_rect.c:927:43
	subs	r0, #1
	.loc	9 927 20                        @ lvgl/src/lv_draw/lv_draw_rect.c:927:20
	str	r0, [sp, #244]
	.loc	9 928 23 is_stmt 1              @ lvgl/src/lv_draw/lv_draw_rect.c:928:23
	ldr	r0, [sp, #308]
	.loc	9 928 40 is_stmt 0              @ lvgl/src/lv_draw/lv_draw_rect.c:928:40
	ldrsh.w	r2, [sp, #258]
	.loc	9 928 48                        @ lvgl/src/lv_draw/lv_draw_rect.c:928:48
	ldrsh.w	r3, [sp, #242]
	.loc	9 928 43                        @ lvgl/src/lv_draw/lv_draw_rect.c:928:43
	subs	r2, r2, r3
	.loc	9 928 20                        @ lvgl/src/lv_draw/lv_draw_rect.c:928:20
	ldr	r3, [sp, #244]
	mla	r0, r0, r2, r3
	str	r0, [sp, #244]
	add	r0, sp, #124
	.loc	9 931 9 is_stmt 1               @ lvgl/src/lv_draw/lv_draw_rect.c:931:9
	bl	lv_area_copy
	.loc	9 932 20                        @ lvgl/src/lv_draw/lv_draw_rect.c:932:20
	ldrh.w	r0, [sp, #130]
	.loc	9 932 15 is_stmt 0              @ lvgl/src/lv_draw/lv_draw_rect.c:932:15
	strh.w	r0, [sp, #126]
	movs	r0, #0
.Ltmp235:
	.loc	9 933 15 is_stmt 1              @ lvgl/src/lv_draw/lv_draw_rect.c:933:15
	str	r0, [sp, #248]
	.loc	9 933 13 is_stmt 0              @ lvgl/src/lv_draw/lv_draw_rect.c:933:13
	b	.LBB4_166
.LBB4_166:                              @ =>This Inner Loop Header: Depth=1
.Ltmp236:
	.loc	9 933 20                        @ lvgl/src/lv_draw/lv_draw_rect.c:933:20
	ldr	r0, [sp, #248]
	.loc	9 933 24                        @ lvgl/src/lv_draw/lv_draw_rect.c:933:24
	ldrsh.w	r1, [sp, #134]
.Ltmp237:
	.loc	9 933 9                         @ lvgl/src/lv_draw/lv_draw_rect.c:933:9
	cmp	r0, r1
	bge	.LBB4_177
	b	.LBB4_167
.LBB4_167:                              @   in Loop: Header=BB4_166 Depth=1
.Ltmp238:
	.loc	9 934 32 is_stmt 1              @ lvgl/src/lv_draw/lv_draw_rect.c:934:32
	ldr	r0, [sp, #244]
	ldrb	r0, [r0]
	.loc	9 934 22 is_stmt 0              @ lvgl/src/lv_draw/lv_draw_rect.c:934:22
	strb.w	r0, [sp, #123]
.Ltmp239:
	.loc	9 935 16 is_stmt 1              @ lvgl/src/lv_draw/lv_draw_rect.c:935:16
	ldrb.w	r0, [sp, #123]
	.loc	9 935 40 is_stmt 0              @ lvgl/src/lv_draw/lv_draw_rect.c:935:40
	cmp	r0, #255
	bne	.LBB4_169
	b	.LBB4_168
.LBB4_168:                              @   in Loop: Header=BB4_166 Depth=1
	.loc	9 935 43                        @ lvgl/src/lv_draw/lv_draw_rect.c:935:43
	ldrb.w	r0, [sp, #359]
.Ltmp240:
	.loc	9 935 16                        @ lvgl/src/lv_draw/lv_draw_rect.c:935:16
	cmp	r0, #255
	beq	.LBB4_170
	b	.LBB4_169
.LBB4_169:                              @   in Loop: Header=BB4_166 Depth=1
.Ltmp241:
	.loc	9 935 75                        @ lvgl/src/lv_draw/lv_draw_rect.c:935:75
	ldrb.w	r0, [sp, #359]
	.loc	9 935 81                        @ lvgl/src/lv_draw/lv_draw_rect.c:935:81
	ldrb.w	r1, [sp, #123]
	.loc	9 935 79                        @ lvgl/src/lv_draw/lv_draw_rect.c:935:79
	muls	r0, r1, r0
	.loc	9 935 90                        @ lvgl/src/lv_draw/lv_draw_rect.c:935:90
	lsrs	r0, r0, #8
	.loc	9 935 72                        @ lvgl/src/lv_draw/lv_draw_rect.c:935:72
	strb.w	r0, [sp, #123]
	.loc	9 935 64                        @ lvgl/src/lv_draw/lv_draw_rect.c:935:64
	b	.LBB4_170
.Ltmp242:
.LBB4_170:                              @   in Loop: Header=BB4_166 Depth=1
	.loc	9 937 24 is_stmt 1              @ lvgl/src/lv_draw/lv_draw_rect.c:937:24
	ldr	r0, [sp, #292]
	.loc	9 937 34 is_stmt 0              @ lvgl/src/lv_draw/lv_draw_rect.c:937:34
	ldrb.w	r1, [sp, #123]
	.loc	9 937 43                        @ lvgl/src/lv_draw/lv_draw_rect.c:937:43
	ldrsh.w	r2, [sp, #136]
	.loc	9 937 13                        @ lvgl/src/lv_draw/lv_draw_rect.c:937:13
	bl	_lv_memset
.Ltmp243:
	.loc	9 938 16 is_stmt 1              @ lvgl/src/lv_draw/lv_draw_rect.c:938:16
	ldrb.w	r0, [sp, #299]
.Ltmp244:
	.loc	9 938 16 is_stmt 0              @ lvgl/src/lv_draw/lv_draw_rect.c:938:16
	lsls	r0, r0, #31
	cbz	r0, .LBB4_172
	b	.LBB4_171
.LBB4_171:                              @   in Loop: Header=BB4_166 Depth=1
	.loc	9 0 16                          @ lvgl/src/lv_draw/lv_draw_rect.c:0:16
	movs	r0, #2
.Ltmp245:
	.loc	9 939 26 is_stmt 1              @ lvgl/src/lv_draw/lv_draw_rect.c:939:26
	strb.w	r0, [sp, #298]
	.loc	9 940 13                        @ lvgl/src/lv_draw/lv_draw_rect.c:940:13
	b	.LBB4_175
.Ltmp246:
.LBB4_172:                              @   in Loop: Header=BB4_166 Depth=1
	.loc	9 942 47                        @ lvgl/src/lv_draw/lv_draw_rect.c:942:47
	ldr	r0, [sp, #292]
	.loc	9 942 60 is_stmt 0              @ lvgl/src/lv_draw/lv_draw_rect.c:942:60
	ldrsh.w	r1, [sp, #124]
	.loc	9 942 67                        @ lvgl/src/lv_draw/lv_draw_rect.c:942:67
	ldrsh.w	r2, [sp, #126]
	.loc	9 942 71                        @ lvgl/src/lv_draw/lv_draw_rect.c:942:71
	ldrsh.w	r3, [sp, #136]
	.loc	9 942 28                        @ lvgl/src/lv_draw/lv_draw_rect.c:942:28
	bl	lv_draw_mask_apply
	.loc	9 942 26                        @ lvgl/src/lv_draw/lv_draw_rect.c:942:26
	strb.w	r0, [sp, #298]
.Ltmp247:
	.loc	9 943 20 is_stmt 1              @ lvgl/src/lv_draw/lv_draw_rect.c:943:20
	ldrb.w	r0, [sp, #298]
.Ltmp248:
	.loc	9 943 20 is_stmt 0              @ lvgl/src/lv_draw/lv_draw_rect.c:943:20
	cmp	r0, #1
	bne	.LBB4_174
	b	.LBB4_173
.LBB4_173:                              @   in Loop: Header=BB4_166 Depth=1
	.loc	9 0 20                          @ lvgl/src/lv_draw/lv_draw_rect.c:0:20
	movs	r0, #2
.Ltmp249:
	.loc	9 943 70                        @ lvgl/src/lv_draw/lv_draw_rect.c:943:70
	strb.w	r0, [sp, #298]
	.loc	9 943 61                        @ lvgl/src/lv_draw/lv_draw_rect.c:943:61
	b	.LBB4_174
.Ltmp250:
.LBB4_174:                              @   in Loop: Header=BB4_166 Depth=1
	.loc	9 0 61                          @ lvgl/src/lv_draw/lv_draw_rect.c:0:61
	b	.LBB4_175
.LBB4_175:                              @   in Loop: Header=BB4_166 Depth=1
	.loc	9 946 28 is_stmt 1              @ lvgl/src/lv_draw/lv_draw_rect.c:946:28
	ldr	r0, [sp, #384]
	.loc	9 946 39 is_stmt 0              @ lvgl/src/lv_draw/lv_draw_rect.c:946:39
	ldr	r2, [sp, #380]
	.loc	9 946 58                        @ lvgl/src/lv_draw/lv_draw_rect.c:946:58
	ldr	r3, [sp, #292]
	.loc	9 947 28 is_stmt 1              @ lvgl/src/lv_draw/lv_draw_rect.c:947:28
	ldrb.w	r1, [sp, #298]
	.loc	9 947 57 is_stmt 0              @ lvgl/src/lv_draw/lv_draw_rect.c:947:57
	ldrb.w	lr, [r2, #57]
	.loc	9 946 13 is_stmt 1              @ lvgl/src/lv_draw/lv_draw_rect.c:946:13
	ldr	r2, [r2, #44]
	mov	r12, sp
	str.w	lr, [r12, #8]
	mov.w	lr, #255
	str.w	lr, [r12, #4]
	str.w	r1, [r12]
	add	r1, sp, #124
	bl	_lv_blend_fill
	.loc	9 948 18                        @ lvgl/src/lv_draw/lv_draw_rect.c:948:18
	ldrh.w	r0, [sp, #126]
	subs	r0, #1
	strh.w	r0, [sp, #126]
	.loc	9 949 18                        @ lvgl/src/lv_draw/lv_draw_rect.c:949:18
	ldrh.w	r0, [sp, #130]
	subs	r0, #1
	strh.w	r0, [sp, #130]
	.loc	9 950 27                        @ lvgl/src/lv_draw/lv_draw_rect.c:950:27
	ldr	r1, [sp, #308]
	.loc	9 950 24 is_stmt 0              @ lvgl/src/lv_draw/lv_draw_rect.c:950:24
	ldr	r0, [sp, #244]
	add	r0, r1
	str	r0, [sp, #244]
	.loc	9 951 9 is_stmt 1               @ lvgl/src/lv_draw/lv_draw_rect.c:951:9
	b	.LBB4_176
.Ltmp251:
.LBB4_176:                              @   in Loop: Header=BB4_166 Depth=1
	.loc	9 933 28                        @ lvgl/src/lv_draw/lv_draw_rect.c:933:28
	ldr	r0, [sp, #248]
	adds	r0, #1
	str	r0, [sp, #248]
	.loc	9 933 9 is_stmt 0               @ lvgl/src/lv_draw/lv_draw_rect.c:933:9
	b	.LBB4_166
.Ltmp252:
.LBB4_177:
	.loc	9 952 5 is_stmt 1               @ lvgl/src/lv_draw/lv_draw_rect.c:952:5
	b	.LBB4_178
.Ltmp253:
.LBB4_178:
	.loc	9 955 12                        @ lvgl/src/lv_draw/lv_draw_rect.c:955:12
	ldrh.w	r0, [sp, #360]
	.loc	9 955 25 is_stmt 0              @ lvgl/src/lv_draw/lv_draw_rect.c:955:25
	ldr	r1, [sp, #308]
	.loc	9 955 23                        @ lvgl/src/lv_draw/lv_draw_rect.c:955:23
	add	r0, r1
	.loc	9 955 10                        @ lvgl/src/lv_draw/lv_draw_rect.c:955:10
	strh.w	r0, [sp, #252]
	.loc	9 956 12 is_stmt 1              @ lvgl/src/lv_draw/lv_draw_rect.c:956:12
	ldrh.w	r0, [sp, #364]
	.loc	9 956 25 is_stmt 0              @ lvgl/src/lv_draw/lv_draw_rect.c:956:25
	ldr	r1, [sp, #308]
	.loc	9 956 23                        @ lvgl/src/lv_draw/lv_draw_rect.c:956:23
	subs	r0, r0, r1
	.loc	9 956 10                        @ lvgl/src/lv_draw/lv_draw_rect.c:956:10
	strh.w	r0, [sp, #256]
	.loc	9 957 12 is_stmt 1              @ lvgl/src/lv_draw/lv_draw_rect.c:957:12
	ldrh.w	r0, [sp, #362]
	.loc	9 957 25 is_stmt 0              @ lvgl/src/lv_draw/lv_draw_rect.c:957:25
	ldr	r1, [sp, #308]
	.loc	9 957 23                        @ lvgl/src/lv_draw/lv_draw_rect.c:957:23
	add	r0, r1
	.loc	9 957 10                        @ lvgl/src/lv_draw/lv_draw_rect.c:957:10
	strh.w	r0, [sp, #254]
	.loc	9 958 12 is_stmt 1              @ lvgl/src/lv_draw/lv_draw_rect.c:958:12
	ldrh.w	r0, [sp, #366]
	.loc	9 958 25 is_stmt 0              @ lvgl/src/lv_draw/lv_draw_rect.c:958:25
	ldr	r1, [sp, #308]
	.loc	9 958 23                        @ lvgl/src/lv_draw/lv_draw_rect.c:958:23
	subs	r0, r0, r1
	.loc	9 958 10                        @ lvgl/src/lv_draw/lv_draw_rect.c:958:10
	strh.w	r0, [sp, #258]
	.loc	9 960 43 is_stmt 1              @ lvgl/src/lv_draw/lv_draw_rect.c:960:43
	ldr	r2, [sp, #384]
	add	r0, sp, #236
	add	r1, sp, #252
	.loc	9 960 15 is_stmt 0              @ lvgl/src/lv_draw/lv_draw_rect.c:960:15
	bl	_lv_area_intersect
	.loc	9 960 13                        @ lvgl/src/lv_draw/lv_draw_rect.c:960:13
	strb.w	r0, [sp, #235]
.Ltmp254:
	.loc	9 961 8 is_stmt 1               @ lvgl/src/lv_draw/lv_draw_rect.c:961:8
	ldrb.w	r0, [sp, #235]
	.loc	9 961 16 is_stmt 0              @ lvgl/src/lv_draw/lv_draw_rect.c:961:16
	lsls	r0, r0, #31
	cmp	r0, #0
	beq	.LBB4_188
	b	.LBB4_179
.LBB4_179:
	.loc	9 961 19                        @ lvgl/src/lv_draw/lv_draw_rect.c:961:19
	ldrb.w	r0, [sp, #299]
	.loc	9 961 40                        @ lvgl/src/lv_draw/lv_draw_rect.c:961:40
	lsls	r0, r0, #31
	cmp	r0, #0
	bne	.LBB4_188
	b	.LBB4_180
.LBB4_180:
	.loc	9 961 75                        @ lvgl/src/lv_draw/lv_draw_rect.c:961:75
	ldrsh.w	r2, [sp, #320]
	add	r0, sp, #252
	add	r1, sp, #324
	.loc	9 961 44                        @ lvgl/src/lv_draw/lv_draw_rect.c:961:44
	bl	_lv_area_is_in
.Ltmp255:
	.loc	9 961 8                         @ lvgl/src/lv_draw/lv_draw_rect.c:961:8
	cmp	r0, #0
	bne	.LBB4_188
	b	.LBB4_181
.LBB4_181:
	.loc	9 0 8                           @ lvgl/src/lv_draw/lv_draw_rect.c:0:8
	add	r0, sp, #236
.Ltmp256:
	.loc	9 963 24 is_stmt 1              @ lvgl/src/lv_draw/lv_draw_rect.c:963:24
	str	r0, [sp, #16]                   @ 4-byte Spill
	bl	lv_area_get_width
	mov	r1, r0
	.loc	9 963 20 is_stmt 0              @ lvgl/src/lv_draw/lv_draw_rect.c:963:20
	ldr	r0, [sp, #16]                   @ 4-byte Reload
	strh.w	r1, [sp, #120]
	.loc	9 964 24 is_stmt 1              @ lvgl/src/lv_draw/lv_draw_rect.c:964:24
	bl	lv_area_get_height
	ldr	r1, [sp, #16]                   @ 4-byte Reload
	.loc	9 964 20 is_stmt 0              @ lvgl/src/lv_draw/lv_draw_rect.c:964:20
	strh.w	r0, [sp, #118]
	add	r0, sp, #108
	.loc	9 967 9 is_stmt 1               @ lvgl/src/lv_draw/lv_draw_rect.c:967:9
	bl	lv_area_copy
	.loc	9 968 20                        @ lvgl/src/lv_draw/lv_draw_rect.c:968:20
	ldrh.w	r0, [sp, #110]
	.loc	9 968 15 is_stmt 0              @ lvgl/src/lv_draw/lv_draw_rect.c:968:15
	strh.w	r0, [sp, #114]
	movs	r0, #0
.Ltmp257:
	.loc	9 969 15 is_stmt 1              @ lvgl/src/lv_draw/lv_draw_rect.c:969:15
	str	r0, [sp, #248]
	.loc	9 969 13 is_stmt 0              @ lvgl/src/lv_draw/lv_draw_rect.c:969:13
	b	.LBB4_182
.LBB4_182:                              @ =>This Inner Loop Header: Depth=1
.Ltmp258:
	.loc	9 969 20                        @ lvgl/src/lv_draw/lv_draw_rect.c:969:20
	ldr	r0, [sp, #248]
	.loc	9 969 24                        @ lvgl/src/lv_draw/lv_draw_rect.c:969:24
	ldrsh.w	r1, [sp, #118]
.Ltmp259:
	.loc	9 969 9                         @ lvgl/src/lv_draw/lv_draw_rect.c:969:9
	cmp	r0, r1
	bge	.LBB4_187
	b	.LBB4_183
.LBB4_183:                              @   in Loop: Header=BB4_182 Depth=1
.Ltmp260:
	.loc	9 970 24 is_stmt 1              @ lvgl/src/lv_draw/lv_draw_rect.c:970:24
	ldr	r0, [sp, #292]
	.loc	9 970 34 is_stmt 0              @ lvgl/src/lv_draw/lv_draw_rect.c:970:34
	ldr	r1, [sp, #380]
	.loc	9 970 39                        @ lvgl/src/lv_draw/lv_draw_rect.c:970:39
	ldrb.w	r1, [r1, #56]
	.loc	9 970 51                        @ lvgl/src/lv_draw/lv_draw_rect.c:970:51
	ldrsh.w	r2, [sp, #120]
	.loc	9 970 13                        @ lvgl/src/lv_draw/lv_draw_rect.c:970:13
	bl	_lv_memset
	.loc	9 971 43 is_stmt 1              @ lvgl/src/lv_draw/lv_draw_rect.c:971:43
	ldr	r0, [sp, #292]
	.loc	9 971 56 is_stmt 0              @ lvgl/src/lv_draw/lv_draw_rect.c:971:56
	ldrsh.w	r1, [sp, #108]
	.loc	9 971 63                        @ lvgl/src/lv_draw/lv_draw_rect.c:971:63
	ldrsh.w	r2, [sp, #110]
	.loc	9 971 67                        @ lvgl/src/lv_draw/lv_draw_rect.c:971:67
	ldrsh.w	r3, [sp, #120]
	.loc	9 971 24                        @ lvgl/src/lv_draw/lv_draw_rect.c:971:24
	bl	lv_draw_mask_apply
	.loc	9 971 22                        @ lvgl/src/lv_draw/lv_draw_rect.c:971:22
	strb.w	r0, [sp, #298]
.Ltmp261:
	.loc	9 972 16 is_stmt 1              @ lvgl/src/lv_draw/lv_draw_rect.c:972:16
	ldrb.w	r0, [sp, #298]
.Ltmp262:
	.loc	9 972 16 is_stmt 0              @ lvgl/src/lv_draw/lv_draw_rect.c:972:16
	cmp	r0, #1
	bne	.LBB4_185
	b	.LBB4_184
.LBB4_184:                              @   in Loop: Header=BB4_182 Depth=1
	.loc	9 0 16                          @ lvgl/src/lv_draw/lv_draw_rect.c:0:16
	movs	r0, #2
.Ltmp263:
	.loc	9 972 66                        @ lvgl/src/lv_draw/lv_draw_rect.c:972:66
	strb.w	r0, [sp, #298]
	.loc	9 972 57                        @ lvgl/src/lv_draw/lv_draw_rect.c:972:57
	b	.LBB4_185
.Ltmp264:
.LBB4_185:                              @   in Loop: Header=BB4_182 Depth=1
	.loc	9 974 28 is_stmt 1              @ lvgl/src/lv_draw/lv_draw_rect.c:974:28
	ldr	r0, [sp, #384]
	.loc	9 974 39 is_stmt 0              @ lvgl/src/lv_draw/lv_draw_rect.c:974:39
	ldr	r2, [sp, #380]
	.loc	9 974 58                        @ lvgl/src/lv_draw/lv_draw_rect.c:974:58
	ldr	r3, [sp, #292]
	.loc	9 975 28 is_stmt 1              @ lvgl/src/lv_draw/lv_draw_rect.c:975:28
	ldrb.w	r1, [sp, #298]
	.loc	9 975 57 is_stmt 0              @ lvgl/src/lv_draw/lv_draw_rect.c:975:57
	ldrb.w	lr, [r2, #57]
	.loc	9 974 13 is_stmt 1              @ lvgl/src/lv_draw/lv_draw_rect.c:974:13
	ldr	r2, [r2, #44]
	mov	r12, sp
	str.w	lr, [r12, #8]
	mov.w	lr, #255
	str.w	lr, [r12, #4]
	str.w	r1, [r12]
	add	r1, sp, #108
	bl	_lv_blend_fill
	.loc	9 976 18                        @ lvgl/src/lv_draw/lv_draw_rect.c:976:18
	ldrh.w	r0, [sp, #110]
	adds	r0, #1
	strh.w	r0, [sp, #110]
	.loc	9 977 18                        @ lvgl/src/lv_draw/lv_draw_rect.c:977:18
	ldrh.w	r0, [sp, #114]
	adds	r0, #1
	strh.w	r0, [sp, #114]
	.loc	9 978 9                         @ lvgl/src/lv_draw/lv_draw_rect.c:978:9
	b	.LBB4_186
.Ltmp265:
.LBB4_186:                              @   in Loop: Header=BB4_182 Depth=1
	.loc	9 969 28                        @ lvgl/src/lv_draw/lv_draw_rect.c:969:28
	ldr	r0, [sp, #248]
	adds	r0, #1
	str	r0, [sp, #248]
	.loc	9 969 9 is_stmt 0               @ lvgl/src/lv_draw/lv_draw_rect.c:969:9
	b	.LBB4_182
.Ltmp266:
.LBB4_187:
	.loc	9 979 5 is_stmt 1               @ lvgl/src/lv_draw/lv_draw_rect.c:979:5
	b	.LBB4_188
.Ltmp267:
.LBB4_188:
	.loc	9 981 28                        @ lvgl/src/lv_draw/lv_draw_rect.c:981:28
	ldrsh.w	r0, [sp, #262]
	.loc	9 981 5 is_stmt 0               @ lvgl/src/lv_draw/lv_draw_rect.c:981:5
	bl	lv_draw_mask_remove_id
	.loc	9 982 25 is_stmt 1              @ lvgl/src/lv_draw/lv_draw_rect.c:982:25
	ldr	r0, [sp, #292]
	.loc	9 982 5 is_stmt 0               @ lvgl/src/lv_draw/lv_draw_rect.c:982:5
	bl	_lv_mem_buf_release
	.loc	9 983 25 is_stmt 1              @ lvgl/src/lv_draw/lv_draw_rect.c:983:25
	ldr	r0, [sp, #304]
	.loc	9 983 5 is_stmt 0               @ lvgl/src/lv_draw/lv_draw_rect.c:983:5
	bl	_lv_mem_buf_release
	.loc	9 984 1 is_stmt 1               @ lvgl/src/lv_draw/lv_draw_rect.c:984:1
	b	.LBB4_189
.LBB4_189:
	add	sp, #392
	pop	{r4, pc}
.Ltmp268:
.Lfunc_end4:
	.size	draw_shadow, .Lfunc_end4-draw_shadow
	.cfi_endproc
	.cantunwind
	.fnend
                                        @ -- End function
	.section	.text.draw_bg,"ax",%progbits
	.p2align	3                               @ -- Begin function draw_bg
	.type	draw_bg,%function
	.code	16                              @ @draw_bg
	.thumb_func
draw_bg:
.Lfunc_begin5:
	.loc	9 169 0                         @ lvgl/src/lv_draw/lv_draw_rect.c:169:0
	.fnstart
	.cfi_startproc
@ %bb.0:
	.save	{r4, r5, r7, lr}
	push	{r4, r5, r7, lr}
	.cfi_def_cfa_offset 16
	.cfi_offset lr, -4
	.cfi_offset r7, -8
	.cfi_offset r5, -12
	.cfi_offset r4, -16
	.pad	#216
	sub	sp, #216
	.cfi_def_cfa_offset 232
	str	r0, [sp, #212]
	str	r1, [sp, #208]
	str	r2, [sp, #204]
.Ltmp269:
	.loc	9 170 8 prologue_end            @ lvgl/src/lv_draw/lv_draw_rect.c:170:8
	ldr	r0, [sp, #204]
	.loc	9 170 13 is_stmt 0              @ lvgl/src/lv_draw/lv_draw_rect.c:170:13
	ldrb	r0, [r0, #18]
.Ltmp270:
	.loc	9 170 8                         @ lvgl/src/lv_draw/lv_draw_rect.c:170:8
	cmp	r0, #2
	bgt	.LBB5_2
	b	.LBB5_1
.LBB5_1:
.Ltmp271:
	.loc	9 170 35                        @ lvgl/src/lv_draw/lv_draw_rect.c:170:35
	b	.LBB5_79
.Ltmp272:
.LBB5_2:
	.loc	9 173 30 is_stmt 1              @ lvgl/src/lv_draw/lv_draw_rect.c:173:30
	ldr	r1, [sp, #212]
	add	r0, sp, #196
	.loc	9 173 5 is_stmt 0               @ lvgl/src/lv_draw/lv_draw_rect.c:173:5
	bl	lv_area_copy
.Ltmp273:
	.loc	9 176 8 is_stmt 1               @ lvgl/src/lv_draw/lv_draw_rect.c:176:8
	ldr	r0, [sp, #204]
	.loc	9 176 13 is_stmt 0              @ lvgl/src/lv_draw/lv_draw_rect.c:176:13
	ldrsh.w	r0, [r0, #24]
	.loc	9 176 30                        @ lvgl/src/lv_draw/lv_draw_rect.c:176:30
	cmp	r0, #2
	blt	.LBB5_6
	b	.LBB5_3
.LBB5_3:
	.loc	9 176 33                        @ lvgl/src/lv_draw/lv_draw_rect.c:176:33
	ldr	r0, [sp, #204]
	.loc	9 176 38                        @ lvgl/src/lv_draw/lv_draw_rect.c:176:38
	ldrb	r0, [r0, #28]
	.loc	9 176 63                        @ lvgl/src/lv_draw/lv_draw_rect.c:176:63
	cmp	r0, #253
	blt	.LBB5_6
	b	.LBB5_4
.LBB5_4:
	.loc	9 176 66                        @ lvgl/src/lv_draw/lv_draw_rect.c:176:66
	ldr	r0, [sp, #204]
	.loc	9 176 71                        @ lvgl/src/lv_draw/lv_draw_rect.c:176:71
	ldrsh.w	r0, [r0]
.Ltmp274:
	.loc	9 176 8                         @ lvgl/src/lv_draw/lv_draw_rect.c:176:8
	cbz	r0, .LBB5_6
	b	.LBB5_5
.LBB5_5:
.Ltmp275:
	.loc	9 177 26 is_stmt 1              @ lvgl/src/lv_draw/lv_draw_rect.c:177:26
	ldr	r0, [sp, #204]
	ldrh	r2, [r0, #26]
	.loc	9 177 22 is_stmt 0              @ lvgl/src/lv_draw/lv_draw_rect.c:177:22
	ldrh.w	r0, [sp, #196]
	adds	r1, r0, #1
	lsls	r2, r2, #29
	cmp	r2, #0
	it	mi
	movmi	r0, r1
	strh.w	r0, [sp, #196]
	.loc	9 178 26 is_stmt 1              @ lvgl/src/lv_draw/lv_draw_rect.c:178:26
	ldr	r0, [sp, #204]
	ldrh	r2, [r0, #26]
	.loc	9 178 22 is_stmt 0              @ lvgl/src/lv_draw/lv_draw_rect.c:178:22
	ldrh.w	r0, [sp, #198]
	adds	r1, r0, #1
	lsls	r2, r2, #30
	cmp	r2, #0
	it	mi
	movmi	r0, r1
	strh.w	r0, [sp, #198]
	.loc	9 179 26 is_stmt 1              @ lvgl/src/lv_draw/lv_draw_rect.c:179:26
	ldr	r0, [sp, #204]
	ldrh	r2, [r0, #26]
	.loc	9 179 22 is_stmt 0              @ lvgl/src/lv_draw/lv_draw_rect.c:179:22
	ldrh.w	r0, [sp, #200]
	subs	r1, r0, #1
	lsls	r2, r2, #28
	cmp	r2, #0
	it	mi
	movmi	r0, r1
	strh.w	r0, [sp, #200]
	.loc	9 180 26 is_stmt 1              @ lvgl/src/lv_draw/lv_draw_rect.c:180:26
	ldr	r0, [sp, #204]
	ldrh	r2, [r0, #26]
	.loc	9 180 22 is_stmt 0              @ lvgl/src/lv_draw/lv_draw_rect.c:180:22
	ldrh.w	r0, [sp, #202]
	subs	r1, r0, #1
	lsls	r2, r2, #31
	cmp	r2, #0
	it	ne
	movne	r0, r1
	strh.w	r0, [sp, #202]
	.loc	9 181 5 is_stmt 1               @ lvgl/src/lv_draw/lv_draw_rect.c:181:5
	b	.LBB5_6
.Ltmp276:
.LBB5_6:
	.loc	9 183 20                        @ lvgl/src/lv_draw/lv_draw_rect.c:183:20
	ldr	r0, [sp, #204]
	.loc	9 183 25 is_stmt 0              @ lvgl/src/lv_draw/lv_draw_rect.c:183:25
	ldrb	r0, [r0, #18]
	.loc	9 183 14                        @ lvgl/src/lv_draw/lv_draw_rect.c:183:14
	strb.w	r0, [sp, #195]
.Ltmp277:
	.loc	9 185 8 is_stmt 1               @ lvgl/src/lv_draw/lv_draw_rect.c:185:8
	ldrb.w	r0, [sp, #195]
.Ltmp278:
	.loc	9 185 8 is_stmt 0               @ lvgl/src/lv_draw/lv_draw_rect.c:185:8
	cmp	r0, #254
	blt	.LBB5_8
	b	.LBB5_7
.LBB5_7:
	.loc	9 0 8                           @ lvgl/src/lv_draw/lv_draw_rect.c:0:8
	movs	r0, #255
.Ltmp279:
	.loc	9 185 30                        @ lvgl/src/lv_draw/lv_draw_rect.c:185:30
	strb.w	r0, [sp, #195]
	.loc	9 185 26                        @ lvgl/src/lv_draw/lv_draw_rect.c:185:26
	b	.LBB5_8
.Ltmp280:
.LBB5_8:
	.loc	9 187 27 is_stmt 1              @ lvgl/src/lv_draw/lv_draw_rect.c:187:27
	bl	_lv_refr_get_disp_refreshing
	.loc	9 187 17 is_stmt 0              @ lvgl/src/lv_draw/lv_draw_rect.c:187:17
	str	r0, [sp, #188]
	.loc	9 188 43 is_stmt 1              @ lvgl/src/lv_draw/lv_draw_rect.c:188:43
	ldr	r0, [sp, #188]
	.loc	9 188 27 is_stmt 0              @ lvgl/src/lv_draw/lv_draw_rect.c:188:27
	bl	lv_disp_get_buf
	.loc	9 188 21                        @ lvgl/src/lv_draw/lv_draw_rect.c:188:21
	str	r0, [sp, #184]
	.loc	9 194 60 is_stmt 1              @ lvgl/src/lv_draw/lv_draw_rect.c:194:60
	ldr	r2, [sp, #208]
	add	r0, sp, #176
	add	r1, sp, #196
	.loc	9 194 17 is_stmt 0              @ lvgl/src/lv_draw/lv_draw_rect.c:194:17
	bl	_lv_area_intersect
	.loc	9 194 15                        @ lvgl/src/lv_draw/lv_draw_rect.c:194:15
	strb.w	r0, [sp, #175]
.Ltmp281:
	.loc	9 195 8 is_stmt 1               @ lvgl/src/lv_draw/lv_draw_rect.c:195:8
	ldrb.w	r0, [sp, #175]
.Ltmp282:
	.loc	9 195 8 is_stmt 0               @ lvgl/src/lv_draw/lv_draw_rect.c:195:8
	lsls	r0, r0, #31
	cbnz	r0, .LBB5_10
	b	.LBB5_9
.LBB5_9:
.Ltmp283:
	.loc	9 195 28                        @ lvgl/src/lv_draw/lv_draw_rect.c:195:28
	b	.LBB5_79
.Ltmp284:
.LBB5_10:
	.loc	9 197 36 is_stmt 1              @ lvgl/src/lv_draw/lv_draw_rect.c:197:36
	ldr	r0, [sp, #184]
	.loc	9 197 41 is_stmt 0              @ lvgl/src/lv_draw/lv_draw_rect.c:197:41
	adds	r0, #16
	.loc	9 197 23                        @ lvgl/src/lv_draw/lv_draw_rect.c:197:23
	str	r0, [sp, #168]
	.loc	9 201 21 is_stmt 1              @ lvgl/src/lv_draw/lv_draw_rect.c:201:21
	ldr	r0, [sp, #168]
	ldrh	r1, [r0]
	.loc	9 201 18 is_stmt 0              @ lvgl/src/lv_draw/lv_draw_rect.c:201:18
	ldrh.w	r0, [sp, #176]
	subs	r0, r0, r1
	strh.w	r0, [sp, #176]
	.loc	9 202 21 is_stmt 1              @ lvgl/src/lv_draw/lv_draw_rect.c:202:21
	ldr	r0, [sp, #168]
	ldrh	r1, [r0, #2]
	.loc	9 202 18 is_stmt 0              @ lvgl/src/lv_draw/lv_draw_rect.c:202:18
	ldrh.w	r0, [sp, #178]
	subs	r0, r0, r1
	strh.w	r0, [sp, #178]
	.loc	9 203 21 is_stmt 1              @ lvgl/src/lv_draw/lv_draw_rect.c:203:21
	ldr	r0, [sp, #168]
	ldrh	r1, [r0]
	.loc	9 203 18 is_stmt 0              @ lvgl/src/lv_draw/lv_draw_rect.c:203:18
	ldrh.w	r0, [sp, #180]
	subs	r0, r0, r1
	strh.w	r0, [sp, #180]
	.loc	9 204 21 is_stmt 1              @ lvgl/src/lv_draw/lv_draw_rect.c:204:21
	ldr	r0, [sp, #168]
	ldrh	r1, [r0, #2]
	.loc	9 204 18 is_stmt 0              @ lvgl/src/lv_draw/lv_draw_rect.c:204:18
	ldrh.w	r0, [sp, #182]
	subs	r0, r0, r1
	strh.w	r0, [sp, #182]
	add	r0, sp, #176
	.loc	9 206 27 is_stmt 1              @ lvgl/src/lv_draw/lv_draw_rect.c:206:27
	bl	lv_area_get_width
	.loc	9 206 13 is_stmt 0              @ lvgl/src/lv_draw/lv_draw_rect.c:206:13
	str	r0, [sp, #164]
	.loc	9 209 43 is_stmt 1              @ lvgl/src/lv_draw/lv_draw_rect.c:209:43
	ldr	r0, [sp, #164]
	.loc	9 209 27 is_stmt 0              @ lvgl/src/lv_draw/lv_draw_rect.c:209:27
	bl	_lv_mem_buf_get
	.loc	9 209 16                        @ lvgl/src/lv_draw/lv_draw_rect.c:209:16
	str	r0, [sp, #160]
	.loc	9 211 30 is_stmt 1              @ lvgl/src/lv_draw/lv_draw_rect.c:211:30
	ldr	r0, [sp, #204]
	.loc	9 211 35 is_stmt 0              @ lvgl/src/lv_draw/lv_draw_rect.c:211:35
	ldrb	r0, [r0, #12]
	.loc	9 211 19                        @ lvgl/src/lv_draw/lv_draw_rect.c:211:19
	strb.w	r0, [sp, #159]
.Ltmp285:
	.loc	9 212 8 is_stmt 1               @ lvgl/src/lv_draw/lv_draw_rect.c:212:8
	ldr	r1, [sp, #204]
	.loc	9 212 22 is_stmt 0              @ lvgl/src/lv_draw/lv_draw_rect.c:212:22
	ldr	r0, [r1, #4]
	.loc	9 212 49                        @ lvgl/src/lv_draw/lv_draw_rect.c:212:49
	ldr	r1, [r1, #8]
.Ltmp286:
	.loc	9 212 8                         @ lvgl/src/lv_draw/lv_draw_rect.c:212:8
	cmp	r0, r1
	bne	.LBB5_12
	b	.LBB5_11
.LBB5_11:
	.loc	9 0 8                           @ lvgl/src/lv_draw/lv_draw_rect.c:0:8
	movs	r0, #0
.Ltmp287:
	.loc	9 212 64                        @ lvgl/src/lv_draw/lv_draw_rect.c:212:64
	strb.w	r0, [sp, #159]
	.loc	9 212 55                        @ lvgl/src/lv_draw/lv_draw_rect.c:212:55
	b	.LBB5_12
.Ltmp288:
.LBB5_12:
	.loc	9 214 31 is_stmt 1              @ lvgl/src/lv_draw/lv_draw_rect.c:214:31
	bl	lv_draw_mask_get_cnt
	.loc	9 214 14 is_stmt 0              @ lvgl/src/lv_draw/lv_draw_rect.c:214:14
	strh.w	r0, [sp, #156]
	movs	r0, #1
	.loc	9 215 10 is_stmt 1              @ lvgl/src/lv_draw/lv_draw_rect.c:215:10
	strb.w	r0, [sp, #155]
.Ltmp289:
	.loc	9 216 8                         @ lvgl/src/lv_draw/lv_draw_rect.c:216:8
	ldrh.w	r0, [sp, #156]
.Ltmp290:
	.loc	9 216 8 is_stmt 0               @ lvgl/src/lv_draw/lv_draw_rect.c:216:8
	cbz	r0, .LBB5_14
	b	.LBB5_13
.LBB5_13:
	.loc	9 0 8                           @ lvgl/src/lv_draw/lv_draw_rect.c:0:8
	movs	r0, #0
.Ltmp291:
	.loc	9 216 36                        @ lvgl/src/lv_draw/lv_draw_rect.c:216:36
	strb.w	r0, [sp, #155]
	.loc	9 216 24                        @ lvgl/src/lv_draw/lv_draw_rect.c:216:24
	b	.LBB5_17
.LBB5_14:
.Ltmp292:
	.loc	9 217 13 is_stmt 1              @ lvgl/src/lv_draw/lv_draw_rect.c:217:13
	ldrb.w	r0, [sp, #159]
.Ltmp293:
	.loc	9 217 13 is_stmt 0              @ lvgl/src/lv_draw/lv_draw_rect.c:217:13
	cmp	r0, #2
	bne	.LBB5_16
	b	.LBB5_15
.LBB5_15:
	.loc	9 0 13                          @ lvgl/src/lv_draw/lv_draw_rect.c:0:13
	movs	r0, #0
.Ltmp294:
	.loc	9 217 54                        @ lvgl/src/lv_draw/lv_draw_rect.c:217:54
	strb.w	r0, [sp, #155]
	.loc	9 217 42                        @ lvgl/src/lv_draw/lv_draw_rect.c:217:42
	b	.LBB5_16
.Ltmp295:
.LBB5_16:
	.loc	9 0 42                          @ lvgl/src/lv_draw/lv_draw_rect.c:0:42
	b	.LBB5_17
.LBB5_17:
	movw	r0, #65535
	.loc	9 219 13 is_stmt 1              @ lvgl/src/lv_draw/lv_draw_rect.c:219:13
	strh.w	r0, [sp, #152]
	add	r0, sp, #196
	.loc	9 221 24                        @ lvgl/src/lv_draw/lv_draw_rect.c:221:24
	str	r0, [sp, #48]                   @ 4-byte Spill
	bl	lv_area_get_width
	mov	r1, r0
	.loc	9 221 13 is_stmt 0              @ lvgl/src/lv_draw/lv_draw_rect.c:221:13
	ldr	r0, [sp, #48]                   @ 4-byte Reload
	str	r1, [sp, #148]
	.loc	9 222 24 is_stmt 1              @ lvgl/src/lv_draw/lv_draw_rect.c:222:24
	bl	lv_area_get_height
	.loc	9 222 13 is_stmt 0              @ lvgl/src/lv_draw/lv_draw_rect.c:222:13
	str	r0, [sp, #144]
	.loc	9 225 20 is_stmt 1              @ lvgl/src/lv_draw/lv_draw_rect.c:225:20
	ldr	r0, [sp, #204]
	.loc	9 225 25 is_stmt 0              @ lvgl/src/lv_draw/lv_draw_rect.c:225:25
	ldrsh.w	r0, [r0]
	.loc	9 225 13                        @ lvgl/src/lv_draw/lv_draw_rect.c:225:13
	str	r0, [sp, #140]
	.loc	9 226 26 is_stmt 1              @ lvgl/src/lv_draw/lv_draw_rect.c:226:26
	ldr	r0, [sp, #148]
	ldr	r1, [sp, #144]
	cmp	r0, r1
	bge	.LBB5_19
	b	.LBB5_18
.LBB5_18:
	ldr	r0, [sp, #148]
	str	r0, [sp, #44]                   @ 4-byte Spill
	b	.LBB5_20
.LBB5_19:
	ldr	r0, [sp, #144]
	str	r0, [sp, #44]                   @ 4-byte Spill
	b	.LBB5_20
.LBB5_20:
	ldr	r0, [sp, #44]                   @ 4-byte Reload
	.loc	9 226 13 is_stmt 0              @ lvgl/src/lv_draw/lv_draw_rect.c:226:13
	str	r0, [sp, #136]
.Ltmp296:
	.loc	9 227 8 is_stmt 1               @ lvgl/src/lv_draw/lv_draw_rect.c:227:8
	ldr	r0, [sp, #140]
	.loc	9 227 15 is_stmt 0              @ lvgl/src/lv_draw/lv_draw_rect.c:227:15
	ldr	r1, [sp, #136]
.Ltmp297:
	.loc	9 227 8                         @ lvgl/src/lv_draw/lv_draw_rect.c:227:8
	cmp.w	r0, r1, asr #1
	ble	.LBB5_22
	b	.LBB5_21
.LBB5_21:
.Ltmp298:
	.loc	9 227 39                        @ lvgl/src/lv_draw/lv_draw_rect.c:227:39
	ldr	r0, [sp, #136]
	.loc	9 227 50                        @ lvgl/src/lv_draw/lv_draw_rect.c:227:50
	asrs	r0, r0, #1
	.loc	9 227 37                        @ lvgl/src/lv_draw/lv_draw_rect.c:227:37
	str	r0, [sp, #140]
	.loc	9 227 32                        @ lvgl/src/lv_draw/lv_draw_rect.c:227:32
	b	.LBB5_22
.Ltmp299:
.LBB5_22:
	.loc	9 230 8 is_stmt 1               @ lvgl/src/lv_draw/lv_draw_rect.c:230:8
	ldrb.w	r0, [sp, #155]
	.loc	9 230 20 is_stmt 0              @ lvgl/src/lv_draw/lv_draw_rect.c:230:20
	lsls	r0, r0, #31
	cbz	r0, .LBB5_26
	b	.LBB5_23
.LBB5_23:
	.loc	9 230 23                        @ lvgl/src/lv_draw/lv_draw_rect.c:230:23
	ldr	r0, [sp, #140]
	.loc	9 230 33                        @ lvgl/src/lv_draw/lv_draw_rect.c:230:33
	cbnz	r0, .LBB5_26
	b	.LBB5_24
.LBB5_24:
	.loc	9 230 37                        @ lvgl/src/lv_draw/lv_draw_rect.c:230:37
	ldrb.w	r0, [sp, #159]
.Ltmp300:
	.loc	9 230 8                         @ lvgl/src/lv_draw/lv_draw_rect.c:230:8
	cbnz	r0, .LBB5_26
	b	.LBB5_25
.LBB5_25:
.Ltmp301:
	.loc	9 231 24 is_stmt 1              @ lvgl/src/lv_draw/lv_draw_rect.c:231:24
	ldr	r0, [sp, #208]
	.loc	9 232 24                        @ lvgl/src/lv_draw/lv_draw_rect.c:232:24
	ldr	r2, [sp, #204]
	.loc	9 232 74 is_stmt 0              @ lvgl/src/lv_draw/lv_draw_rect.c:232:74
	ldrb.w	r1, [sp, #195]
	.loc	9 233 29 is_stmt 1              @ lvgl/src/lv_draw/lv_draw_rect.c:233:29
	ldrb.w	r12, [r2, #19]
	.loc	9 231 9                         @ lvgl/src/lv_draw/lv_draw_rect.c:231:9
	ldr	r2, [r2, #4]
	mov	r3, sp
	str.w	r12, [r3, #8]
	str	r1, [r3, #4]
	movs	r1, #1
	str	r1, [r3]
	add	r1, sp, #196
	movs	r3, #0
	bl	_lv_blend_fill
	.loc	9 234 5                         @ lvgl/src/lv_draw/lv_draw_rect.c:234:5
	b	.LBB5_78
.Ltmp302:
.LBB5_26:
	.loc	9 238 12                        @ lvgl/src/lv_draw/lv_draw_rect.c:238:12
	ldr	r0, [sp, #140]
.Ltmp303:
	.loc	9 238 12 is_stmt 0              @ lvgl/src/lv_draw/lv_draw_rect.c:238:12
	cmp	r0, #1
	blt	.LBB5_28
	b	.LBB5_27
.LBB5_27:
.Ltmp304:
	.loc	9 239 68 is_stmt 1              @ lvgl/src/lv_draw/lv_draw_rect.c:239:68
	ldrsh.w	r2, [sp, #140]
	add	r0, sp, #108
	str	r0, [sp, #36]                   @ 4-byte Spill
	add	r1, sp, #196
	movs	r3, #0
	.loc	9 239 13 is_stmt 0              @ lvgl/src/lv_draw/lv_draw_rect.c:239:13
	str	r3, [sp, #40]                   @ 4-byte Spill
	bl	lv_draw_mask_radius_init
	ldr	r0, [sp, #36]                   @ 4-byte Reload
	ldr	r1, [sp, #40]                   @ 4-byte Reload
	.loc	9 240 28 is_stmt 1              @ lvgl/src/lv_draw/lv_draw_rect.c:240:28
	bl	lv_draw_mask_add
	.loc	9 240 26 is_stmt 0              @ lvgl/src/lv_draw/lv_draw_rect.c:240:26
	strh.w	r0, [sp, #152]
	.loc	9 241 9 is_stmt 1               @ lvgl/src/lv_draw/lv_draw_rect.c:241:9
	b	.LBB5_28
.Ltmp305:
.LBB5_28:
	.loc	9 0 9 is_stmt 0                 @ lvgl/src/lv_draw/lv_draw_rect.c:0:9
	movs	r0, #1
	.loc	9 245 28 is_stmt 1              @ lvgl/src/lv_draw/lv_draw_rect.c:245:28
	strb.w	r0, [sp, #103]
	.loc	9 246 33                        @ lvgl/src/lv_draw/lv_draw_rect.c:246:33
	ldr	r0, [sp, #204]
	.loc	9 246 38 is_stmt 0              @ lvgl/src/lv_draw/lv_draw_rect.c:246:38
	ldr	r0, [r0, #4]
	str	r0, [sp, #96]
	movs	r0, #0
	.loc	9 248 22 is_stmt 1              @ lvgl/src/lv_draw/lv_draw_rect.c:248:22
	str	r0, [sp, #92]
.Ltmp306:
	.loc	9 250 12                        @ lvgl/src/lv_draw/lv_draw_rect.c:250:12
	ldrb.w	r0, [sp, #159]
.Ltmp307:
	.loc	9 250 12 is_stmt 0              @ lvgl/src/lv_draw/lv_draw_rect.c:250:12
	cmp	r0, #2
	bne	.LBB5_34
	b	.LBB5_29
.LBB5_29:
.Ltmp308:
	.loc	9 251 40 is_stmt 1              @ lvgl/src/lv_draw/lv_draw_rect.c:251:40
	ldr	r0, [sp, #148]
	.loc	9 251 49 is_stmt 0              @ lvgl/src/lv_draw/lv_draw_rect.c:251:49
	lsls	r0, r0, #2
	.loc	9 251 24                        @ lvgl/src/lv_draw/lv_draw_rect.c:251:24
	bl	_lv_mem_buf_get
	.loc	9 251 22                        @ lvgl/src/lv_draw/lv_draw_rect.c:251:22
	str	r0, [sp, #92]
	movs	r0, #0
.Ltmp309:
	.loc	9 254 19 is_stmt 1              @ lvgl/src/lv_draw/lv_draw_rect.c:254:19
	str	r0, [sp, #88]
	.loc	9 254 17 is_stmt 0              @ lvgl/src/lv_draw/lv_draw_rect.c:254:17
	b	.LBB5_30
.LBB5_30:                               @ =>This Inner Loop Header: Depth=1
.Ltmp310:
	.loc	9 254 24                        @ lvgl/src/lv_draw/lv_draw_rect.c:254:24
	ldr	r0, [sp, #88]
	.loc	9 254 28                        @ lvgl/src/lv_draw/lv_draw_rect.c:254:28
	ldr	r1, [sp, #148]
.Ltmp311:
	.loc	9 254 13                        @ lvgl/src/lv_draw/lv_draw_rect.c:254:13
	cmp	r0, r1
	bge	.LBB5_33
	b	.LBB5_31
.LBB5_31:                               @   in Loop: Header=BB5_30 Depth=1
.Ltmp312:
	.loc	9 255 17 is_stmt 1              @ lvgl/src/lv_draw/lv_draw_rect.c:255:17
	ldr	r0, [sp, #92]
	.loc	9 255 26 is_stmt 0              @ lvgl/src/lv_draw/lv_draw_rect.c:255:26
	str	r0, [sp, #32]                   @ 4-byte Spill
	ldr	r2, [sp, #88]
	.loc	9 255 40                        @ lvgl/src/lv_draw/lv_draw_rect.c:255:40
	str	r2, [sp, #28]                   @ 4-byte Spill
	ldr	r0, [sp, #204]
	.loc	9 255 45                        @ lvgl/src/lv_draw/lv_draw_rect.c:255:45
	ldrsh.w	r1, [sp, #148]
	.loc	9 255 31                        @ lvgl/src/lv_draw/lv_draw_rect.c:255:31
	sxth	r2, r2
	bl	grad_get
	ldr	r2, [sp, #28]                   @ 4-byte Reload
	ldr	r1, [sp, #32]                   @ 4-byte Reload
	str	r0, [sp, #84]
	ldr	r0, [sp, #84]
	str.w	r0, [r1, r2, lsl #2]
	.loc	9 256 13 is_stmt 1              @ lvgl/src/lv_draw/lv_draw_rect.c:256:13
	b	.LBB5_32
.Ltmp313:
.LBB5_32:                               @   in Loop: Header=BB5_30 Depth=1
	.loc	9 254 39                        @ lvgl/src/lv_draw/lv_draw_rect.c:254:39
	ldr	r0, [sp, #88]
	adds	r0, #1
	str	r0, [sp, #88]
	.loc	9 254 13 is_stmt 0              @ lvgl/src/lv_draw/lv_draw_rect.c:254:13
	b	.LBB5_30
.Ltmp314:
.LBB5_33:
	.loc	9 257 9 is_stmt 1               @ lvgl/src/lv_draw/lv_draw_rect.c:257:9
	b	.LBB5_34
.Ltmp315:
.LBB5_34:
	.loc	9 0 9 is_stmt 0                 @ lvgl/src/lv_draw/lv_draw_rect.c:0:9
	movs	r0, #0
	.loc	9 259 14 is_stmt 1              @ lvgl/src/lv_draw/lv_draw_rect.c:259:14
	strb.w	r0, [sp, #83]
	add	r0, sp, #196
.Ltmp316:
	.loc	9 260 12                        @ lvgl/src/lv_draw/lv_draw_rect.c:260:12
	bl	lv_area_get_width
	.loc	9 260 48 is_stmt 0              @ lvgl/src/lv_draw/lv_draw_rect.c:260:48
	ldr	r1, [sp, #140]
	.loc	9 260 42                        @ lvgl/src/lv_draw/lv_draw_rect.c:260:42
	sub.w	r0, r0, r1, lsl #1
.Ltmp317:
	.loc	9 260 12                        @ lvgl/src/lv_draw/lv_draw_rect.c:260:12
	cmp	r0, #51
	blt	.LBB5_36
	b	.LBB5_35
.LBB5_35:
	.loc	9 0 12                          @ lvgl/src/lv_draw/lv_draw_rect.c:0:12
	movs	r0, #1
.Ltmp318:
	.loc	9 260 74                        @ lvgl/src/lv_draw/lv_draw_rect.c:260:74
	strb.w	r0, [sp, #83]
	.loc	9 260 68                        @ lvgl/src/lv_draw/lv_draw_rect.c:260:68
	b	.LBB5_36
.Ltmp319:
.LBB5_36:
	.loc	9 265 34 is_stmt 1              @ lvgl/src/lv_draw/lv_draw_rect.c:265:34
	ldrh.w	r0, [sp, #196]
	.loc	9 265 22 is_stmt 0              @ lvgl/src/lv_draw/lv_draw_rect.c:265:22
	strh.w	r0, [sp, #72]
	.loc	9 266 34 is_stmt 1              @ lvgl/src/lv_draw/lv_draw_rect.c:266:34
	ldrh.w	r0, [sp, #200]
	.loc	9 266 22 is_stmt 0              @ lvgl/src/lv_draw/lv_draw_rect.c:266:22
	strh.w	r0, [sp, #76]
	.loc	9 267 24 is_stmt 1              @ lvgl/src/lv_draw/lv_draw_rect.c:267:24
	ldr	r0, [sp, #168]
	ldrh	r0, [r0, #2]
	.loc	9 267 40 is_stmt 0              @ lvgl/src/lv_draw/lv_draw_rect.c:267:40
	ldrh.w	r1, [sp, #178]
	.loc	9 267 38                        @ lvgl/src/lv_draw/lv_draw_rect.c:267:38
	add	r0, r1
	.loc	9 267 22                        @ lvgl/src/lv_draw/lv_draw_rect.c:267:22
	strh.w	r0, [sp, #74]
	.loc	9 268 34 is_stmt 1              @ lvgl/src/lv_draw/lv_draw_rect.c:268:34
	ldrh.w	r0, [sp, #74]
	.loc	9 268 22 is_stmt 0              @ lvgl/src/lv_draw/lv_draw_rect.c:268:22
	strh.w	r0, [sp, #78]
.Ltmp320:
	.loc	9 269 27 is_stmt 1              @ lvgl/src/lv_draw/lv_draw_rect.c:269:27
	ldrsh.w	r0, [sp, #178]
	.loc	9 269 15 is_stmt 0              @ lvgl/src/lv_draw/lv_draw_rect.c:269:15
	str	r0, [sp, #104]
	.loc	9 269 13                        @ lvgl/src/lv_draw/lv_draw_rect.c:269:13
	b	.LBB5_37
.LBB5_37:                               @ =>This Inner Loop Header: Depth=1
.Ltmp321:
	.loc	9 269 31                        @ lvgl/src/lv_draw/lv_draw_rect.c:269:31
	ldr	r0, [sp, #104]
	.loc	9 269 46                        @ lvgl/src/lv_draw/lv_draw_rect.c:269:46
	ldrsh.w	r1, [sp, #182]
.Ltmp322:
	.loc	9 269 9                         @ lvgl/src/lv_draw/lv_draw_rect.c:269:9
	cmp	r0, r1
	bgt.w	.LBB5_69
	b	.LBB5_38
.LBB5_38:                               @   in Loop: Header=BB5_37 Depth=1
.Ltmp323:
	.loc	9 270 25 is_stmt 1              @ lvgl/src/lv_draw/lv_draw_rect.c:270:25
	ldr	r0, [sp, #104]
	.loc	9 270 29 is_stmt 0              @ lvgl/src/lv_draw/lv_draw_rect.c:270:29
	ldr	r1, [sp, #184]
	.loc	9 270 39                        @ lvgl/src/lv_draw/lv_draw_rect.c:270:39
	ldrsh.w	r1, [r1, #18]
	.loc	9 270 27                        @ lvgl/src/lv_draw/lv_draw_rect.c:270:27
	add	r0, r1
	.loc	9 270 21                        @ lvgl/src/lv_draw/lv_draw_rect.c:270:21
	str	r0, [sp, #68]
	.loc	9 272 20 is_stmt 1              @ lvgl/src/lv_draw/lv_draw_rect.c:272:20
	ldrb.w	r0, [sp, #195]
	.loc	9 272 18 is_stmt 0              @ lvgl/src/lv_draw/lv_draw_rect.c:272:18
	strb.w	r0, [sp, #82]
.Ltmp324:
	.loc	9 275 16 is_stmt 1              @ lvgl/src/lv_draw/lv_draw_rect.c:275:16
	ldr	r0, [sp, #68]
	.loc	9 275 30 is_stmt 0              @ lvgl/src/lv_draw/lv_draw_rect.c:275:30
	ldrsh.w	r1, [sp, #198]
	.loc	9 275 35                        @ lvgl/src/lv_draw/lv_draw_rect.c:275:35
	ldr	r2, [sp, #140]
	.loc	9 275 33                        @ lvgl/src/lv_draw/lv_draw_rect.c:275:33
	add	r1, r2
	.loc	9 275 40                        @ lvgl/src/lv_draw/lv_draw_rect.c:275:40
	adds	r1, #1
	.loc	9 275 44                        @ lvgl/src/lv_draw/lv_draw_rect.c:275:44
	cmp	r0, r1
	ble	.LBB5_43
	b	.LBB5_39
.LBB5_39:                               @   in Loop: Header=BB5_37 Depth=1
	.loc	9 276 16 is_stmt 1              @ lvgl/src/lv_draw/lv_draw_rect.c:276:16
	ldr	r0, [sp, #68]
	.loc	9 276 30 is_stmt 0              @ lvgl/src/lv_draw/lv_draw_rect.c:276:30
	ldrsh.w	r2, [sp, #202]
	.loc	9 276 35                        @ lvgl/src/lv_draw/lv_draw_rect.c:276:35
	ldr	r1, [sp, #140]
	.loc	9 276 40                        @ lvgl/src/lv_draw/lv_draw_rect.c:276:40
	mvns	r1, r1
	add	r1, r2
.Ltmp325:
	.loc	9 275 16 is_stmt 1              @ lvgl/src/lv_draw/lv_draw_rect.c:275:16
	cmp	r0, r1
	bge	.LBB5_43
	b	.LBB5_40
.LBB5_40:                               @   in Loop: Header=BB5_37 Depth=1
	.loc	9 0 16 is_stmt 0                @ lvgl/src/lv_draw/lv_draw_rect.c:0:16
	movs	r0, #1
.Ltmp326:
	.loc	9 277 26 is_stmt 1              @ lvgl/src/lv_draw/lv_draw_rect.c:277:26
	strb.w	r0, [sp, #103]
.Ltmp327:
	.loc	9 278 20                        @ lvgl/src/lv_draw/lv_draw_rect.c:278:20
	ldrb.w	r0, [sp, #155]
.Ltmp328:
	.loc	9 278 20 is_stmt 0              @ lvgl/src/lv_draw/lv_draw_rect.c:278:20
	lsls	r0, r0, #31
	cbnz	r0, .LBB5_42
	b	.LBB5_41
.LBB5_41:                               @   in Loop: Header=BB5_37 Depth=1
.Ltmp329:
	.loc	9 279 32 is_stmt 1              @ lvgl/src/lv_draw/lv_draw_rect.c:279:32
	ldr	r0, [sp, #160]
	.loc	9 279 42 is_stmt 0              @ lvgl/src/lv_draw/lv_draw_rect.c:279:42
	ldrb.w	r1, [sp, #195]
	.loc	9 279 47                        @ lvgl/src/lv_draw/lv_draw_rect.c:279:47
	ldr	r2, [sp, #164]
	.loc	9 279 21                        @ lvgl/src/lv_draw/lv_draw_rect.c:279:21
	bl	_lv_memset
	.loc	9 280 51 is_stmt 1              @ lvgl/src/lv_draw/lv_draw_rect.c:280:51
	ldr	r0, [sp, #160]
	.loc	9 280 61 is_stmt 0              @ lvgl/src/lv_draw/lv_draw_rect.c:280:61
	ldr	r2, [sp, #184]
	ldrh	r1, [r2, #16]
	.loc	9 280 76                        @ lvgl/src/lv_draw/lv_draw_rect.c:280:76
	ldrh.w	r3, [sp, #176]
	.loc	9 280 74                        @ lvgl/src/lv_draw/lv_draw_rect.c:280:74
	add	r1, r3
	.loc	9 280 90                        @ lvgl/src/lv_draw/lv_draw_rect.c:280:90
	ldrh	r2, [r2, #18]
	.loc	9 280 105                       @ lvgl/src/lv_draw/lv_draw_rect.c:280:105
	ldr	r3, [sp, #104]
	.loc	9 280 103                       @ lvgl/src/lv_draw/lv_draw_rect.c:280:103
	add	r2, r3
	.loc	9 280 108                       @ lvgl/src/lv_draw/lv_draw_rect.c:280:108
	ldrsh.w	r3, [sp, #164]
	.loc	9 280 32                        @ lvgl/src/lv_draw/lv_draw_rect.c:280:32
	sxth	r1, r1
	sxth	r2, r2
	bl	lv_draw_mask_apply
	.loc	9 280 30                        @ lvgl/src/lv_draw/lv_draw_rect.c:280:30
	strb.w	r0, [sp, #103]
	.loc	9 281 17 is_stmt 1              @ lvgl/src/lv_draw/lv_draw_rect.c:281:17
	b	.LBB5_42
.Ltmp330:
.LBB5_42:                               @   in Loop: Header=BB5_37 Depth=1
	.loc	9 282 13                        @ lvgl/src/lv_draw/lv_draw_rect.c:282:13
	b	.LBB5_44
.Ltmp331:
.LBB5_43:                               @   in Loop: Header=BB5_37 Depth=1
	.loc	9 285 28                        @ lvgl/src/lv_draw/lv_draw_rect.c:285:28
	ldr	r0, [sp, #160]
	.loc	9 285 38 is_stmt 0              @ lvgl/src/lv_draw/lv_draw_rect.c:285:38
	ldrb.w	r1, [sp, #195]
	.loc	9 285 43                        @ lvgl/src/lv_draw/lv_draw_rect.c:285:43
	ldr	r2, [sp, #164]
	.loc	9 285 17                        @ lvgl/src/lv_draw/lv_draw_rect.c:285:17
	bl	_lv_memset
	.loc	9 286 47 is_stmt 1              @ lvgl/src/lv_draw/lv_draw_rect.c:286:47
	ldr	r0, [sp, #160]
	.loc	9 286 57 is_stmt 0              @ lvgl/src/lv_draw/lv_draw_rect.c:286:57
	ldr	r2, [sp, #184]
	ldrh	r1, [r2, #16]
	.loc	9 286 72                        @ lvgl/src/lv_draw/lv_draw_rect.c:286:72
	ldrh.w	r3, [sp, #176]
	.loc	9 286 70                        @ lvgl/src/lv_draw/lv_draw_rect.c:286:70
	add	r1, r3
	.loc	9 286 86                        @ lvgl/src/lv_draw/lv_draw_rect.c:286:86
	ldrh	r2, [r2, #18]
	.loc	9 286 101                       @ lvgl/src/lv_draw/lv_draw_rect.c:286:101
	ldr	r3, [sp, #104]
	.loc	9 286 99                        @ lvgl/src/lv_draw/lv_draw_rect.c:286:99
	add	r2, r3
	.loc	9 286 104                       @ lvgl/src/lv_draw/lv_draw_rect.c:286:104
	ldrsh.w	r3, [sp, #164]
	.loc	9 286 28                        @ lvgl/src/lv_draw/lv_draw_rect.c:286:28
	sxth	r1, r1
	sxth	r2, r2
	bl	lv_draw_mask_apply
	.loc	9 286 26                        @ lvgl/src/lv_draw/lv_draw_rect.c:286:26
	strb.w	r0, [sp, #103]
	b	.LBB5_44
.Ltmp332:
.LBB5_44:                               @   in Loop: Header=BB5_37 Depth=1
	.loc	9 290 16 is_stmt 1              @ lvgl/src/lv_draw/lv_draw_rect.c:290:16
	ldrb.w	r0, [sp, #103]
.Ltmp333:
	.loc	9 290 16 is_stmt 0              @ lvgl/src/lv_draw/lv_draw_rect.c:290:16
	cmp	r0, #2
	bne	.LBB5_46
	b	.LBB5_45
.LBB5_45:                               @   in Loop: Header=BB5_37 Depth=1
	.loc	9 0 16                          @ lvgl/src/lv_draw/lv_draw_rect.c:0:16
	movs	r0, #255
.Ltmp334:
	.loc	9 291 22 is_stmt 1              @ lvgl/src/lv_draw/lv_draw_rect.c:291:22
	strb.w	r0, [sp, #82]
	.loc	9 292 13                        @ lvgl/src/lv_draw/lv_draw_rect.c:292:13
	b	.LBB5_46
.Ltmp335:
.LBB5_46:                               @   in Loop: Header=BB5_37 Depth=1
	.loc	9 295 16                        @ lvgl/src/lv_draw/lv_draw_rect.c:295:16
	ldrb.w	r0, [sp, #159]
.Ltmp336:
	.loc	9 295 16 is_stmt 0              @ lvgl/src/lv_draw/lv_draw_rect.c:295:16
	cmp	r0, #1
	bne	.LBB5_48
	b	.LBB5_47
.LBB5_47:                               @   in Loop: Header=BB5_37 Depth=1
.Ltmp337:
	.loc	9 296 39 is_stmt 1              @ lvgl/src/lv_draw/lv_draw_rect.c:296:39
	ldr	r0, [sp, #204]
	.loc	9 296 44 is_stmt 0              @ lvgl/src/lv_draw/lv_draw_rect.c:296:44
	str	r0, [sp, #24]                   @ 4-byte Spill
	add	r0, sp, #196
	bl	lv_area_get_height
	mov	r1, r0
	.loc	9 296 76                        @ lvgl/src/lv_draw/lv_draw_rect.c:296:76
	ldr	r0, [sp, #24]                   @ 4-byte Reload
	ldr	r2, [sp, #68]
	.loc	9 296 80                        @ lvgl/src/lv_draw/lv_draw_rect.c:296:80
	ldrh.w	r3, [sp, #198]
	.loc	9 296 78                        @ lvgl/src/lv_draw/lv_draw_rect.c:296:78
	subs	r2, r2, r3
	.loc	9 296 30                        @ lvgl/src/lv_draw/lv_draw_rect.c:296:30
	sxth	r2, r2
	bl	grad_get
	str	r0, [sp, #64]
	ldr	r0, [sp, #64]
	str	r0, [sp, #96]
	.loc	9 297 13 is_stmt 1              @ lvgl/src/lv_draw/lv_draw_rect.c:297:13
	b	.LBB5_48
.Ltmp338:
.LBB5_48:                               @   in Loop: Header=BB5_37 Depth=1
	.loc	9 301 16                        @ lvgl/src/lv_draw/lv_draw_rect.c:301:16
	ldrb.w	r0, [sp, #155]
	.loc	9 301 28 is_stmt 0              @ lvgl/src/lv_draw/lv_draw_rect.c:301:28
	lsls	r0, r0, #31
	cmp	r0, #0
	beq.w	.LBB5_57
	b	.LBB5_49
.LBB5_49:                               @   in Loop: Header=BB5_37 Depth=1
	.loc	9 301 31                        @ lvgl/src/lv_draw/lv_draw_rect.c:301:31
	ldrb.w	r0, [sp, #83]
	.loc	9 301 37                        @ lvgl/src/lv_draw/lv_draw_rect.c:301:37
	lsls	r0, r0, #31
	cmp	r0, #0
	beq.w	.LBB5_57
	b	.LBB5_50
.LBB5_50:                               @   in Loop: Header=BB5_37 Depth=1
	.loc	9 302 17 is_stmt 1              @ lvgl/src/lv_draw/lv_draw_rect.c:302:17
	ldr	r0, [sp, #68]
	.loc	9 302 31 is_stmt 0              @ lvgl/src/lv_draw/lv_draw_rect.c:302:31
	ldrsh.w	r1, [sp, #198]
	.loc	9 302 36                        @ lvgl/src/lv_draw/lv_draw_rect.c:302:36
	ldr	r2, [sp, #140]
	.loc	9 302 34                        @ lvgl/src/lv_draw/lv_draw_rect.c:302:34
	add	r1, r2
	.loc	9 302 41                        @ lvgl/src/lv_draw/lv_draw_rect.c:302:41
	adds	r1, #1
	.loc	9 302 45                        @ lvgl/src/lv_draw/lv_draw_rect.c:302:45
	cmp	r0, r1
	blt	.LBB5_52
	b	.LBB5_51
.LBB5_51:                               @   in Loop: Header=BB5_37 Depth=1
	.loc	9 303 17 is_stmt 1              @ lvgl/src/lv_draw/lv_draw_rect.c:303:17
	ldr	r0, [sp, #68]
	.loc	9 303 31 is_stmt 0              @ lvgl/src/lv_draw/lv_draw_rect.c:303:31
	ldrsh.w	r2, [sp, #202]
	.loc	9 303 36                        @ lvgl/src/lv_draw/lv_draw_rect.c:303:36
	ldr	r1, [sp, #140]
	.loc	9 303 41                        @ lvgl/src/lv_draw/lv_draw_rect.c:303:41
	mvns	r1, r1
	add	r1, r2
.Ltmp339:
	.loc	9 301 16 is_stmt 1              @ lvgl/src/lv_draw/lv_draw_rect.c:301:16
	cmp	r0, r1
	ble.w	.LBB5_57
	b	.LBB5_52
.LBB5_52:                               @   in Loop: Header=BB5_37 Depth=1
.Ltmp340:
	.loc	9 307 43                        @ lvgl/src/lv_draw/lv_draw_rect.c:307:43
	ldrh.w	r0, [sp, #196]
	.loc	9 307 31 is_stmt 0              @ lvgl/src/lv_draw/lv_draw_rect.c:307:31
	strh.w	r0, [sp, #56]
	.loc	9 308 33 is_stmt 1              @ lvgl/src/lv_draw/lv_draw_rect.c:308:33
	ldrh.w	r0, [sp, #196]
	.loc	9 308 48 is_stmt 0              @ lvgl/src/lv_draw/lv_draw_rect.c:308:48
	ldr	r1, [sp, #140]
	.loc	9 308 46                        @ lvgl/src/lv_draw/lv_draw_rect.c:308:46
	add	r0, r1
	.loc	9 308 53                        @ lvgl/src/lv_draw/lv_draw_rect.c:308:53
	subs	r0, #1
	.loc	9 308 31                        @ lvgl/src/lv_draw/lv_draw_rect.c:308:31
	strh.w	r0, [sp, #60]
	.loc	9 309 43 is_stmt 1              @ lvgl/src/lv_draw/lv_draw_rect.c:309:43
	ldrh.w	r0, [sp, #74]
	.loc	9 309 31 is_stmt 0              @ lvgl/src/lv_draw/lv_draw_rect.c:309:31
	strh.w	r0, [sp, #58]
	.loc	9 310 43 is_stmt 1              @ lvgl/src/lv_draw/lv_draw_rect.c:310:43
	ldrh.w	r0, [sp, #78]
	.loc	9 310 31 is_stmt 0              @ lvgl/src/lv_draw/lv_draw_rect.c:310:31
	strh.w	r0, [sp, #62]
	.loc	9 312 32 is_stmt 1              @ lvgl/src/lv_draw/lv_draw_rect.c:312:32
	ldr	r0, [sp, #208]
	.loc	9 313 44                        @ lvgl/src/lv_draw/lv_draw_rect.c:313:44
	ldr	r3, [sp, #160]
	.loc	9 313 54 is_stmt 0              @ lvgl/src/lv_draw/lv_draw_rect.c:313:54
	ldrb.w	r1, [sp, #103]
	.loc	9 313 64                        @ lvgl/src/lv_draw/lv_draw_rect.c:313:64
	ldrb.w	lr, [sp, #82]
	.loc	9 313 70                        @ lvgl/src/lv_draw/lv_draw_rect.c:313:70
	ldr	r2, [sp, #204]
	.loc	9 313 75                        @ lvgl/src/lv_draw/lv_draw_rect.c:313:75
	ldrb	r4, [r2, #19]
	.loc	9 312 17 is_stmt 1              @ lvgl/src/lv_draw/lv_draw_rect.c:312:17
	ldr	r2, [sp, #96]
	mov	r12, sp
	str.w	r4, [r12, #8]
	str.w	lr, [r12, #4]
	str.w	r1, [r12]
	add	r1, sp, #56
	bl	_lv_blend_fill
.Ltmp341:
	.loc	9 316 20                        @ lvgl/src/lv_draw/lv_draw_rect.c:316:20
	ldrb.w	r0, [sp, #159]
.Ltmp342:
	.loc	9 316 20 is_stmt 0              @ lvgl/src/lv_draw/lv_draw_rect.c:316:20
	cmp	r0, #1
	bne	.LBB5_54
	b	.LBB5_53
.LBB5_53:                               @   in Loop: Header=BB5_37 Depth=1
.Ltmp343:
	.loc	9 317 37 is_stmt 1              @ lvgl/src/lv_draw/lv_draw_rect.c:317:37
	ldrh.w	r0, [sp, #196]
	.loc	9 317 52 is_stmt 0              @ lvgl/src/lv_draw/lv_draw_rect.c:317:52
	ldr	r1, [sp, #140]
	.loc	9 317 50                        @ lvgl/src/lv_draw/lv_draw_rect.c:317:50
	add	r0, r1
	.loc	9 317 35                        @ lvgl/src/lv_draw/lv_draw_rect.c:317:35
	strh.w	r0, [sp, #56]
	.loc	9 318 37 is_stmt 1              @ lvgl/src/lv_draw/lv_draw_rect.c:318:37
	ldrh.w	r0, [sp, #200]
	.loc	9 318 52 is_stmt 0              @ lvgl/src/lv_draw/lv_draw_rect.c:318:52
	ldr	r1, [sp, #140]
	.loc	9 318 50                        @ lvgl/src/lv_draw/lv_draw_rect.c:318:50
	subs	r0, r0, r1
	.loc	9 318 35                        @ lvgl/src/lv_draw/lv_draw_rect.c:318:35
	strh.w	r0, [sp, #60]
	.loc	9 319 36 is_stmt 1              @ lvgl/src/lv_draw/lv_draw_rect.c:319:36
	ldr	r0, [sp, #208]
	.loc	9 320 83                        @ lvgl/src/lv_draw/lv_draw_rect.c:320:83
	ldrb.w	r1, [sp, #195]
	.loc	9 320 88 is_stmt 0              @ lvgl/src/lv_draw/lv_draw_rect.c:320:88
	ldr	r2, [sp, #204]
	.loc	9 320 93                        @ lvgl/src/lv_draw/lv_draw_rect.c:320:93
	ldrb.w	r12, [r2, #19]
	.loc	9 319 21 is_stmt 1              @ lvgl/src/lv_draw/lv_draw_rect.c:319:21
	ldr	r2, [sp, #96]
	mov	r3, sp
	str.w	r12, [r3, #8]
	str	r1, [r3, #4]
	movs	r1, #1
	str	r1, [r3]
	add	r1, sp, #56
	movs	r3, #0
	bl	_lv_blend_fill
	.loc	9 321 17                        @ lvgl/src/lv_draw/lv_draw_rect.c:321:17
	b	.LBB5_54
.Ltmp344:
.LBB5_54:                               @   in Loop: Header=BB5_37 Depth=1
	.loc	9 324 33                        @ lvgl/src/lv_draw/lv_draw_rect.c:324:33
	ldrh.w	r0, [sp, #200]
	.loc	9 324 48 is_stmt 0              @ lvgl/src/lv_draw/lv_draw_rect.c:324:48
	ldr	r1, [sp, #140]
	.loc	9 324 46                        @ lvgl/src/lv_draw/lv_draw_rect.c:324:46
	subs	r0, r0, r1
	.loc	9 324 53                        @ lvgl/src/lv_draw/lv_draw_rect.c:324:53
	adds	r0, #1
	.loc	9 324 31                        @ lvgl/src/lv_draw/lv_draw_rect.c:324:31
	strh.w	r0, [sp, #56]
	.loc	9 325 43 is_stmt 1              @ lvgl/src/lv_draw/lv_draw_rect.c:325:43
	ldrh.w	r0, [sp, #200]
	.loc	9 325 31 is_stmt 0              @ lvgl/src/lv_draw/lv_draw_rect.c:325:31
	strh.w	r0, [sp, #60]
	.loc	9 327 47 is_stmt 1              @ lvgl/src/lv_draw/lv_draw_rect.c:327:47
	ldrsh.w	r0, [sp, #200]
	.loc	9 327 52 is_stmt 0              @ lvgl/src/lv_draw/lv_draw_rect.c:327:52
	ldr	r1, [sp, #140]
	.loc	9 327 50                        @ lvgl/src/lv_draw/lv_draw_rect.c:327:50
	subs	r0, r0, r1
	.loc	9 327 65                        @ lvgl/src/lv_draw/lv_draw_rect.c:327:65
	ldr	r1, [sp, #184]
	.loc	9 327 75                        @ lvgl/src/lv_draw/lv_draw_rect.c:327:75
	ldrsh.w	r1, [r1, #16]
	.loc	9 327 90                        @ lvgl/src/lv_draw/lv_draw_rect.c:327:90
	ldrsh.w	r2, [sp, #176]
	.loc	9 327 78                        @ lvgl/src/lv_draw/lv_draw_rect.c:327:78
	add	r1, r2
	.loc	9 327 62                        @ lvgl/src/lv_draw/lv_draw_rect.c:327:62
	subs	r0, r0, r1
	adds	r0, #1
	.loc	9 327 25                        @ lvgl/src/lv_draw/lv_draw_rect.c:327:25
	str	r0, [sp, #52]
.Ltmp345:
	.loc	9 328 20 is_stmt 1              @ lvgl/src/lv_draw/lv_draw_rect.c:328:20
	ldr	r0, [sp, #52]
.Ltmp346:
	.loc	9 328 20 is_stmt 0              @ lvgl/src/lv_draw/lv_draw_rect.c:328:20
	cmp.w	r0, #-1
	bgt	.LBB5_56
	b	.LBB5_55
.LBB5_55:                               @   in Loop: Header=BB5_37 Depth=1
	.loc	9 0 20                          @ lvgl/src/lv_draw/lv_draw_rect.c:0:20
	movs	r0, #0
.Ltmp347:
	.loc	9 328 43                        @ lvgl/src/lv_draw/lv_draw_rect.c:328:43
	str	r0, [sp, #52]
	.loc	9 328 34                        @ lvgl/src/lv_draw/lv_draw_rect.c:328:34
	b	.LBB5_56
.Ltmp348:
.LBB5_56:                               @   in Loop: Header=BB5_37 Depth=1
	.loc	9 329 32 is_stmt 1              @ lvgl/src/lv_draw/lv_draw_rect.c:329:32
	ldr	r0, [sp, #208]
	.loc	9 330 44                        @ lvgl/src/lv_draw/lv_draw_rect.c:330:44
	ldr	r1, [sp, #160]
	.loc	9 330 55 is_stmt 0              @ lvgl/src/lv_draw/lv_draw_rect.c:330:55
	ldr	r2, [sp, #52]
	.loc	9 330 53                        @ lvgl/src/lv_draw/lv_draw_rect.c:330:53
	adds	r3, r1, r2
	.loc	9 330 65                        @ lvgl/src/lv_draw/lv_draw_rect.c:330:65
	ldrb.w	r1, [sp, #103]
	.loc	9 330 75                        @ lvgl/src/lv_draw/lv_draw_rect.c:330:75
	ldrb.w	lr, [sp, #82]
	.loc	9 330 81                        @ lvgl/src/lv_draw/lv_draw_rect.c:330:81
	ldr	r2, [sp, #204]
	.loc	9 330 86                        @ lvgl/src/lv_draw/lv_draw_rect.c:330:86
	ldrb	r4, [r2, #19]
	.loc	9 329 17 is_stmt 1              @ lvgl/src/lv_draw/lv_draw_rect.c:329:17
	ldr	r2, [sp, #96]
	mov	r12, sp
	str.w	r4, [r12, #8]
	str.w	lr, [r12, #4]
	str.w	r1, [r12]
	add	r1, sp, #56
	bl	_lv_blend_fill
	.loc	9 332 13                        @ lvgl/src/lv_draw/lv_draw_rect.c:332:13
	b	.LBB5_67
.Ltmp349:
.LBB5_57:                               @   in Loop: Header=BB5_37 Depth=1
	.loc	9 334 20                        @ lvgl/src/lv_draw/lv_draw_rect.c:334:20
	ldrb.w	r0, [sp, #159]
.Ltmp350:
	.loc	9 334 20 is_stmt 0              @ lvgl/src/lv_draw/lv_draw_rect.c:334:20
	cmp	r0, #2
	bne	.LBB5_59
	b	.LBB5_58
.LBB5_58:                               @   in Loop: Header=BB5_37 Depth=1
.Ltmp351:
	.loc	9 335 35 is_stmt 1              @ lvgl/src/lv_draw/lv_draw_rect.c:335:35
	ldr	r0, [sp, #208]
	.loc	9 335 53 is_stmt 0              @ lvgl/src/lv_draw/lv_draw_rect.c:335:53
	ldr	r2, [sp, #92]
	.loc	9 335 63                        @ lvgl/src/lv_draw/lv_draw_rect.c:335:63
	ldr	r3, [sp, #160]
	.loc	9 335 73                        @ lvgl/src/lv_draw/lv_draw_rect.c:335:73
	ldrb.w	r1, [sp, #103]
	.loc	9 335 83                        @ lvgl/src/lv_draw/lv_draw_rect.c:335:83
	ldrb.w	lr, [sp, #82]
	.loc	9 335 89                        @ lvgl/src/lv_draw/lv_draw_rect.c:335:89
	ldr.w	r12, [sp, #204]
	.loc	9 335 94                        @ lvgl/src/lv_draw/lv_draw_rect.c:335:94
	ldrb.w	r4, [r12, #19]
	.loc	9 335 21                        @ lvgl/src/lv_draw/lv_draw_rect.c:335:21
	mov	r12, sp
	str.w	r4, [r12, #8]
	str.w	lr, [r12, #4]
	str.w	r1, [r12]
	add	r1, sp, #72
	bl	_lv_blend_map
	.loc	9 336 17 is_stmt 1              @ lvgl/src/lv_draw/lv_draw_rect.c:336:17
	b	.LBB5_66
.Ltmp352:
.LBB5_59:                               @   in Loop: Header=BB5_37 Depth=1
	.loc	9 337 25                        @ lvgl/src/lv_draw/lv_draw_rect.c:337:25
	ldrb.w	r0, [sp, #159]
.Ltmp353:
	.loc	9 337 25 is_stmt 0              @ lvgl/src/lv_draw/lv_draw_rect.c:337:25
	cmp	r0, #1
	bne	.LBB5_61
	b	.LBB5_60
.LBB5_60:                               @   in Loop: Header=BB5_37 Depth=1
.Ltmp354:
	.loc	9 338 36 is_stmt 1              @ lvgl/src/lv_draw/lv_draw_rect.c:338:36
	ldr	r0, [sp, #208]
	.loc	9 339 48                        @ lvgl/src/lv_draw/lv_draw_rect.c:339:48
	ldr	r3, [sp, #160]
	.loc	9 339 58 is_stmt 0              @ lvgl/src/lv_draw/lv_draw_rect.c:339:58
	ldrb.w	r1, [sp, #103]
	.loc	9 339 68                        @ lvgl/src/lv_draw/lv_draw_rect.c:339:68
	ldrb.w	lr, [sp, #82]
	.loc	9 339 74                        @ lvgl/src/lv_draw/lv_draw_rect.c:339:74
	ldr	r2, [sp, #204]
	.loc	9 339 79                        @ lvgl/src/lv_draw/lv_draw_rect.c:339:79
	ldrb	r4, [r2, #19]
	.loc	9 338 21 is_stmt 1              @ lvgl/src/lv_draw/lv_draw_rect.c:338:21
	ldr	r2, [sp, #96]
	mov	r12, sp
	str.w	r4, [r12, #8]
	str.w	lr, [r12, #4]
	str.w	r1, [r12]
	add	r1, sp, #72
	bl	_lv_blend_fill
	.loc	9 340 17                        @ lvgl/src/lv_draw/lv_draw_rect.c:340:17
	b	.LBB5_65
.Ltmp355:
.LBB5_61:                               @   in Loop: Header=BB5_37 Depth=1
	.loc	9 341 25                        @ lvgl/src/lv_draw/lv_draw_rect.c:341:25
	ldrh.w	r0, [sp, #156]
	.loc	9 341 45 is_stmt 0              @ lvgl/src/lv_draw/lv_draw_rect.c:341:45
	cbnz	r0, .LBB5_63
	b	.LBB5_62
.LBB5_62:                               @   in Loop: Header=BB5_37 Depth=1
	.loc	9 341 49                        @ lvgl/src/lv_draw/lv_draw_rect.c:341:49
	ldrb.w	r0, [sp, #83]
.Ltmp356:
	.loc	9 341 25                        @ lvgl/src/lv_draw/lv_draw_rect.c:341:25
	lsls	r0, r0, #31
	cbnz	r0, .LBB5_64
	b	.LBB5_63
.LBB5_63:                               @   in Loop: Header=BB5_37 Depth=1
.Ltmp357:
	.loc	9 342 36 is_stmt 1              @ lvgl/src/lv_draw/lv_draw_rect.c:342:36
	ldr	r0, [sp, #208]
	.loc	9 343 48                        @ lvgl/src/lv_draw/lv_draw_rect.c:343:48
	ldr	r3, [sp, #160]
	.loc	9 343 58 is_stmt 0              @ lvgl/src/lv_draw/lv_draw_rect.c:343:58
	ldrb.w	r1, [sp, #103]
	.loc	9 343 68                        @ lvgl/src/lv_draw/lv_draw_rect.c:343:68
	ldrb.w	lr, [sp, #82]
	.loc	9 343 74                        @ lvgl/src/lv_draw/lv_draw_rect.c:343:74
	ldr	r2, [sp, #204]
	.loc	9 343 79                        @ lvgl/src/lv_draw/lv_draw_rect.c:343:79
	ldrb	r4, [r2, #19]
	.loc	9 342 21 is_stmt 1              @ lvgl/src/lv_draw/lv_draw_rect.c:342:21
	ldr	r2, [sp, #96]
	mov	r12, sp
	str.w	r4, [r12, #8]
	str.w	lr, [r12, #4]
	str.w	r1, [r12]
	add	r1, sp, #72
	bl	_lv_blend_fill
	.loc	9 344 17                        @ lvgl/src/lv_draw/lv_draw_rect.c:344:17
	b	.LBB5_64
.Ltmp358:
.LBB5_64:                               @   in Loop: Header=BB5_37 Depth=1
	.loc	9 0 17 is_stmt 0                @ lvgl/src/lv_draw/lv_draw_rect.c:0:17
	b	.LBB5_65
.LBB5_65:                               @   in Loop: Header=BB5_37 Depth=1
	b	.LBB5_66
.LBB5_66:                               @   in Loop: Header=BB5_37 Depth=1
	b	.LBB5_67
.LBB5_67:                               @   in Loop: Header=BB5_37 Depth=1
	.loc	9 346 25 is_stmt 1              @ lvgl/src/lv_draw/lv_draw_rect.c:346:25
	ldrh.w	r0, [sp, #74]
	adds	r0, #1
	strh.w	r0, [sp, #74]
	.loc	9 347 25                        @ lvgl/src/lv_draw/lv_draw_rect.c:347:25
	ldrh.w	r0, [sp, #78]
	adds	r0, #1
	strh.w	r0, [sp, #78]
	.loc	9 348 9                         @ lvgl/src/lv_draw/lv_draw_rect.c:348:9
	b	.LBB5_68
.Ltmp359:
.LBB5_68:                               @   in Loop: Header=BB5_37 Depth=1
	.loc	9 269 51                        @ lvgl/src/lv_draw/lv_draw_rect.c:269:51
	ldr	r0, [sp, #104]
	adds	r0, #1
	str	r0, [sp, #104]
	.loc	9 269 9 is_stmt 0               @ lvgl/src/lv_draw/lv_draw_rect.c:269:9
	b	.LBB5_37
.Ltmp360:
.LBB5_69:
	.loc	9 350 12 is_stmt 1              @ lvgl/src/lv_draw/lv_draw_rect.c:350:12
	ldrb.w	r0, [sp, #159]
	.loc	9 350 41 is_stmt 0              @ lvgl/src/lv_draw/lv_draw_rect.c:350:41
	cmp	r0, #0
	bne.w	.LBB5_75
	b	.LBB5_70
.LBB5_70:
	.loc	9 350 44                        @ lvgl/src/lv_draw/lv_draw_rect.c:350:44
	ldrh.w	r0, [sp, #156]
	.loc	9 350 64                        @ lvgl/src/lv_draw/lv_draw_rect.c:350:64
	cmp	r0, #0
	bne.w	.LBB5_75
	b	.LBB5_71
.LBB5_71:
	.loc	9 350 67                        @ lvgl/src/lv_draw/lv_draw_rect.c:350:67
	ldrb.w	r0, [sp, #83]
.Ltmp361:
	.loc	9 350 12                        @ lvgl/src/lv_draw/lv_draw_rect.c:350:12
	lsls	r0, r0, #31
	cmp	r0, #0
	beq	.LBB5_75
	b	.LBB5_72
.LBB5_72:
.Ltmp362:
	.loc	9 352 28 is_stmt 1              @ lvgl/src/lv_draw/lv_draw_rect.c:352:28
	ldrh.w	r0, [sp, #196]
	.loc	9 352 43 is_stmt 0              @ lvgl/src/lv_draw/lv_draw_rect.c:352:43
	ldr	r1, [sp, #140]
	.loc	9 352 41                        @ lvgl/src/lv_draw/lv_draw_rect.c:352:41
	add	r0, r1
	.loc	9 352 26                        @ lvgl/src/lv_draw/lv_draw_rect.c:352:26
	strh.w	r0, [sp, #72]
	.loc	9 353 28 is_stmt 1              @ lvgl/src/lv_draw/lv_draw_rect.c:353:28
	ldrh.w	r0, [sp, #200]
	.loc	9 353 43 is_stmt 0              @ lvgl/src/lv_draw/lv_draw_rect.c:353:43
	ldr	r1, [sp, #140]
	.loc	9 353 41                        @ lvgl/src/lv_draw/lv_draw_rect.c:353:41
	subs	r0, r0, r1
	.loc	9 353 26                        @ lvgl/src/lv_draw/lv_draw_rect.c:353:26
	strh.w	r0, [sp, #76]
	.loc	9 354 38 is_stmt 1              @ lvgl/src/lv_draw/lv_draw_rect.c:354:38
	ldrh.w	r0, [sp, #198]
	.loc	9 354 26 is_stmt 0              @ lvgl/src/lv_draw/lv_draw_rect.c:354:26
	strh.w	r0, [sp, #74]
	.loc	9 355 28 is_stmt 1              @ lvgl/src/lv_draw/lv_draw_rect.c:355:28
	ldrh.w	r0, [sp, #198]
	.loc	9 355 43 is_stmt 0              @ lvgl/src/lv_draw/lv_draw_rect.c:355:43
	ldr	r1, [sp, #140]
	.loc	9 355 41                        @ lvgl/src/lv_draw/lv_draw_rect.c:355:41
	add	r0, r1
	.loc	9 355 26                        @ lvgl/src/lv_draw/lv_draw_rect.c:355:26
	strh.w	r0, [sp, #78]
	.loc	9 357 28 is_stmt 1              @ lvgl/src/lv_draw/lv_draw_rect.c:357:28
	ldr	r0, [sp, #208]
	.loc	9 358 28                        @ lvgl/src/lv_draw/lv_draw_rect.c:358:28
	ldr	r2, [sp, #204]
	.loc	9 358 78 is_stmt 0              @ lvgl/src/lv_draw/lv_draw_rect.c:358:78
	ldrb.w	r1, [sp, #195]
	.loc	9 358 88                        @ lvgl/src/lv_draw/lv_draw_rect.c:358:88
	ldrb.w	r12, [r2, #19]
	.loc	9 357 13 is_stmt 1              @ lvgl/src/lv_draw/lv_draw_rect.c:357:13
	ldr	r2, [r2, #4]
	mov	r3, sp
	str.w	r12, [r3, #8]
	str	r1, [r3, #4]
	movs	r1, #1
	str	r1, [r3]
	add	r1, sp, #72
	movs	r3, #0
	bl	_lv_blend_fill
	.loc	9 360 28                        @ lvgl/src/lv_draw/lv_draw_rect.c:360:28
	ldrh.w	r0, [sp, #202]
	.loc	9 360 43 is_stmt 0              @ lvgl/src/lv_draw/lv_draw_rect.c:360:43
	ldr	r1, [sp, #140]
	.loc	9 360 41                        @ lvgl/src/lv_draw/lv_draw_rect.c:360:41
	subs	r0, r0, r1
	.loc	9 360 26                        @ lvgl/src/lv_draw/lv_draw_rect.c:360:26
	strh.w	r0, [sp, #74]
.Ltmp363:
	.loc	9 361 26 is_stmt 1              @ lvgl/src/lv_draw/lv_draw_rect.c:361:26
	ldrsh.w	r0, [sp, #74]
	.loc	9 361 42 is_stmt 0              @ lvgl/src/lv_draw/lv_draw_rect.c:361:42
	ldrsh.w	r1, [sp, #78]
.Ltmp364:
	.loc	9 361 16                        @ lvgl/src/lv_draw/lv_draw_rect.c:361:16
	cmp	r0, r1
	bgt	.LBB5_74
	b	.LBB5_73
.LBB5_73:
.Ltmp365:
	.loc	9 361 61                        @ lvgl/src/lv_draw/lv_draw_rect.c:361:61
	ldrh.w	r0, [sp, #78]
	.loc	9 361 74                        @ lvgl/src/lv_draw/lv_draw_rect.c:361:74
	adds	r0, #1
	.loc	9 361 59                        @ lvgl/src/lv_draw/lv_draw_rect.c:361:59
	strh.w	r0, [sp, #74]
	.loc	9 361 46                        @ lvgl/src/lv_draw/lv_draw_rect.c:361:46
	b	.LBB5_74
.Ltmp366:
.LBB5_74:
	.loc	9 362 38 is_stmt 1              @ lvgl/src/lv_draw/lv_draw_rect.c:362:38
	ldrh.w	r0, [sp, #202]
	.loc	9 362 26 is_stmt 0              @ lvgl/src/lv_draw/lv_draw_rect.c:362:26
	strh.w	r0, [sp, #78]
	.loc	9 364 28 is_stmt 1              @ lvgl/src/lv_draw/lv_draw_rect.c:364:28
	ldr	r0, [sp, #208]
	.loc	9 365 28                        @ lvgl/src/lv_draw/lv_draw_rect.c:365:28
	ldr	r2, [sp, #204]
	.loc	9 365 78 is_stmt 0              @ lvgl/src/lv_draw/lv_draw_rect.c:365:78
	ldrb.w	r1, [sp, #195]
	.loc	9 365 88                        @ lvgl/src/lv_draw/lv_draw_rect.c:365:88
	ldrb.w	r12, [r2, #19]
	.loc	9 364 13 is_stmt 1              @ lvgl/src/lv_draw/lv_draw_rect.c:364:13
	ldr	r2, [r2, #4]
	mov	r3, sp
	str.w	r12, [r3, #8]
	str	r1, [r3, #4]
	movs	r1, #1
	str	r1, [sp, #12]                   @ 4-byte Spill
	str	r1, [r3]
	add	r1, sp, #72
	str	r1, [sp, #16]                   @ 4-byte Spill
	movs	r3, #0
	str	r3, [sp, #20]                   @ 4-byte Spill
	bl	_lv_blend_fill
	ldr.w	r12, [sp, #12]                  @ 4-byte Reload
	ldr	r1, [sp, #16]                   @ 4-byte Reload
	ldr	r3, [sp, #20]                   @ 4-byte Reload
	.loc	9 367 38                        @ lvgl/src/lv_draw/lv_draw_rect.c:367:38
	ldrh.w	r0, [sp, #196]
	.loc	9 367 26 is_stmt 0              @ lvgl/src/lv_draw/lv_draw_rect.c:367:26
	strh.w	r0, [sp, #72]
	.loc	9 368 38 is_stmt 1              @ lvgl/src/lv_draw/lv_draw_rect.c:368:38
	ldrh.w	r0, [sp, #200]
	.loc	9 368 26 is_stmt 0              @ lvgl/src/lv_draw/lv_draw_rect.c:368:26
	strh.w	r0, [sp, #76]
	.loc	9 369 28 is_stmt 1              @ lvgl/src/lv_draw/lv_draw_rect.c:369:28
	ldrh.w	r0, [sp, #198]
	.loc	9 369 43 is_stmt 0              @ lvgl/src/lv_draw/lv_draw_rect.c:369:43
	ldr	r2, [sp, #140]
	.loc	9 369 41                        @ lvgl/src/lv_draw/lv_draw_rect.c:369:41
	add	r0, r2
	.loc	9 369 48                        @ lvgl/src/lv_draw/lv_draw_rect.c:369:48
	adds	r0, #1
	.loc	9 369 26                        @ lvgl/src/lv_draw/lv_draw_rect.c:369:26
	strh.w	r0, [sp, #74]
	.loc	9 370 28 is_stmt 1              @ lvgl/src/lv_draw/lv_draw_rect.c:370:28
	ldrh.w	r2, [sp, #202]
	.loc	9 370 43 is_stmt 0              @ lvgl/src/lv_draw/lv_draw_rect.c:370:43
	ldr	r0, [sp, #140]
	.loc	9 370 48                        @ lvgl/src/lv_draw/lv_draw_rect.c:370:48
	mvns	r0, r0
	add	r0, r2
	.loc	9 370 26                        @ lvgl/src/lv_draw/lv_draw_rect.c:370:26
	strh.w	r0, [sp, #78]
	.loc	9 372 28 is_stmt 1              @ lvgl/src/lv_draw/lv_draw_rect.c:372:28
	ldr	r0, [sp, #208]
	.loc	9 373 28                        @ lvgl/src/lv_draw/lv_draw_rect.c:373:28
	ldr	r2, [sp, #204]
	.loc	9 373 78 is_stmt 0              @ lvgl/src/lv_draw/lv_draw_rect.c:373:78
	ldrb.w	r4, [sp, #195]
	.loc	9 373 88                        @ lvgl/src/lv_draw/lv_draw_rect.c:373:88
	ldrb	r5, [r2, #19]
	.loc	9 372 13 is_stmt 1              @ lvgl/src/lv_draw/lv_draw_rect.c:372:13
	ldr	r2, [r2, #4]
	mov	lr, sp
	str.w	r5, [lr, #8]
	str.w	r4, [lr, #4]
	str.w	r12, [lr]
	bl	_lv_blend_fill
	.loc	9 375 9                         @ lvgl/src/lv_draw/lv_draw_rect.c:375:9
	b	.LBB5_75
.Ltmp367:
.LBB5_75:
	.loc	9 377 12                        @ lvgl/src/lv_draw/lv_draw_rect.c:377:12
	ldr	r0, [sp, #92]
.Ltmp368:
	.loc	9 377 12 is_stmt 0              @ lvgl/src/lv_draw/lv_draw_rect.c:377:12
	cbz	r0, .LBB5_77
	b	.LBB5_76
.LBB5_76:
.Ltmp369:
	.loc	9 377 42                        @ lvgl/src/lv_draw/lv_draw_rect.c:377:42
	ldr	r0, [sp, #92]
	.loc	9 377 22                        @ lvgl/src/lv_draw/lv_draw_rect.c:377:22
	bl	_lv_mem_buf_release
	b	.LBB5_77
.Ltmp370:
.LBB5_77:
	.loc	9 0 22                          @ lvgl/src/lv_draw/lv_draw_rect.c:0:22
	b	.LBB5_78
.LBB5_78:
	.loc	9 380 28 is_stmt 1              @ lvgl/src/lv_draw/lv_draw_rect.c:380:28
	ldrsh.w	r0, [sp, #152]
	.loc	9 380 5 is_stmt 0               @ lvgl/src/lv_draw/lv_draw_rect.c:380:5
	bl	lv_draw_mask_remove_id
	.loc	9 382 25 is_stmt 1              @ lvgl/src/lv_draw/lv_draw_rect.c:382:25
	ldr	r0, [sp, #160]
	.loc	9 382 5 is_stmt 0               @ lvgl/src/lv_draw/lv_draw_rect.c:382:5
	bl	_lv_mem_buf_release
	.loc	9 384 1 is_stmt 1               @ lvgl/src/lv_draw/lv_draw_rect.c:384:1
	b	.LBB5_79
.LBB5_79:
	add	sp, #216
	pop	{r4, r5, r7, pc}
.Ltmp371:
.Lfunc_end5:
	.size	draw_bg, .Lfunc_end5-draw_bg
	.cfi_endproc
	.cantunwind
	.fnend
                                        @ -- End function
	.section	.text.draw_pattern,"ax",%progbits
	.p2align	3                               @ -- Begin function draw_pattern
	.type	draw_pattern,%function
	.code	16                              @ @draw_pattern
	.thumb_func
draw_pattern:
.Lfunc_begin6:
	.loc	9 1187 0                        @ lvgl/src/lv_draw/lv_draw_rect.c:1187:0
	.fnstart
	.cfi_startproc
@ %bb.0:
	.save	{r7, lr}
	push	{r7, lr}
	.cfi_def_cfa_offset 8
	.cfi_offset lr, -4
	.cfi_offset r7, -8
	.pad	#200
	sub	sp, #200
	.cfi_def_cfa_offset 208
	str	r0, [sp, #196]
	str	r1, [sp, #192]
	str	r2, [sp, #188]
.Ltmp372:
	.loc	9 1188 8 prologue_end           @ lvgl/src/lv_draw/lv_draw_rect.c:1188:8
	ldr	r0, [sp, #188]
	.loc	9 1188 13 is_stmt 0             @ lvgl/src/lv_draw/lv_draw_rect.c:1188:13
	ldr	r0, [r0, #60]
.Ltmp373:
	.loc	9 1188 8                        @ lvgl/src/lv_draw/lv_draw_rect.c:1188:8
	cbnz	r0, .LBB6_2
	b	.LBB6_1
.LBB6_1:
.Ltmp374:
	.loc	9 1188 36                       @ lvgl/src/lv_draw/lv_draw_rect.c:1188:36
	b	.LBB6_37
.Ltmp375:
.LBB6_2:
	.loc	9 1189 8 is_stmt 1              @ lvgl/src/lv_draw/lv_draw_rect.c:1189:8
	ldr	r0, [sp, #188]
	.loc	9 1189 13 is_stmt 0             @ lvgl/src/lv_draw/lv_draw_rect.c:1189:13
	ldrb.w	r0, [r0, #72]
.Ltmp376:
	.loc	9 1189 8                        @ lvgl/src/lv_draw/lv_draw_rect.c:1189:8
	cmp	r0, #2
	bgt	.LBB6_4
	b	.LBB6_3
.LBB6_3:
.Ltmp377:
	.loc	9 1189 40                       @ lvgl/src/lv_draw/lv_draw_rect.c:1189:40
	b	.LBB6_37
.Ltmp378:
.LBB6_4:
	.loc	9 1191 49 is_stmt 1             @ lvgl/src/lv_draw/lv_draw_rect.c:1191:49
	ldr	r0, [sp, #188]
	.loc	9 1191 54 is_stmt 0             @ lvgl/src/lv_draw/lv_draw_rect.c:1191:54
	ldr	r0, [r0, #60]
	.loc	9 1191 29                       @ lvgl/src/lv_draw/lv_draw_rect.c:1191:29
	bl	lv_img_src_get_type
	.loc	9 1191 18                       @ lvgl/src/lv_draw/lv_draw_rect.c:1191:18
	strb.w	r0, [sp, #187]
.Ltmp379:
	.loc	9 1198 8 is_stmt 1              @ lvgl/src/lv_draw/lv_draw_rect.c:1198:8
	ldrb.w	r0, [sp, #187]
	.loc	9 1198 36 is_stmt 0             @ lvgl/src/lv_draw/lv_draw_rect.c:1198:36
	cmp	r0, #1
	beq	.LBB6_6
	b	.LBB6_5
.LBB6_5:
	.loc	9 1198 39                       @ lvgl/src/lv_draw/lv_draw_rect.c:1198:39
	ldrb.w	r0, [sp, #187]
.Ltmp380:
	.loc	9 1198 8                        @ lvgl/src/lv_draw/lv_draw_rect.c:1198:8
	cbnz	r0, .LBB6_9
	b	.LBB6_6
.LBB6_6:
.Ltmp381:
	.loc	9 1200 48 is_stmt 1             @ lvgl/src/lv_draw/lv_draw_rect.c:1200:48
	ldr	r0, [sp, #188]
	.loc	9 1200 53 is_stmt 0             @ lvgl/src/lv_draw/lv_draw_rect.c:1200:53
	ldr	r0, [r0, #60]
	add	r1, sp, #112
	.loc	9 1200 24                       @ lvgl/src/lv_draw/lv_draw_rect.c:1200:24
	bl	lv_img_decoder_get_info
	.loc	9 1200 18                       @ lvgl/src/lv_draw/lv_draw_rect.c:1200:18
	strb.w	r0, [sp, #111]
.Ltmp382:
	.loc	9 1201 12 is_stmt 1             @ lvgl/src/lv_draw/lv_draw_rect.c:1201:12
	ldrb.w	r0, [sp, #111]
.Ltmp383:
	.loc	9 1201 12 is_stmt 0             @ lvgl/src/lv_draw/lv_draw_rect.c:1201:12
	cmp	r0, #1
	beq	.LBB6_8
	b	.LBB6_7
.LBB6_7:
.Ltmp384:
	.loc	9 1203 13 is_stmt 1             @ lvgl/src/lv_draw/lv_draw_rect.c:1203:13
	b	.LBB6_37
.Ltmp385:
.LBB6_8:
	.loc	9 1206 24                       @ lvgl/src/lv_draw/lv_draw_rect.c:1206:24
	ldrh.w	r0, [sp, #113]
	ubfx	r0, r0, #2, #11
	.loc	9 1206 15 is_stmt 0             @ lvgl/src/lv_draw/lv_draw_rect.c:1206:15
	str	r0, [sp, #120]
	.loc	9 1207 24 is_stmt 1             @ lvgl/src/lv_draw/lv_draw_rect.c:1207:24
	ldrb.w	r1, [sp, #115]
	ldrh.w	r0, [sp, #113]
	orr.w	r0, r0, r1, lsl #16
	lsrs	r0, r0, #13
	.loc	9 1207 15 is_stmt 0             @ lvgl/src/lv_draw/lv_draw_rect.c:1207:15
	str	r0, [sp, #116]
	add	r0, sp, #164
	.loc	9 1209 9 is_stmt 1              @ lvgl/src/lv_draw/lv_draw_rect.c:1209:9
	bl	lv_draw_img_dsc_init
	.loc	9 1210 23                       @ lvgl/src/lv_draw/lv_draw_rect.c:1210:23
	ldr	r0, [sp, #188]
	.loc	9 1210 28 is_stmt 0             @ lvgl/src/lv_draw/lv_draw_rect.c:1210:28
	ldrb.w	r0, [r0, #72]
	.loc	9 1210 21                       @ lvgl/src/lv_draw/lv_draw_rect.c:1210:21
	strb.w	r0, [sp, #164]
	.loc	9 1211 31 is_stmt 1             @ lvgl/src/lv_draw/lv_draw_rect.c:1211:31
	ldr	r0, [sp, #188]
	.loc	9 1211 36 is_stmt 0             @ lvgl/src/lv_draw/lv_draw_rect.c:1211:36
	ldrb.w	r0, [r0, #73]
	.loc	9 1211 29                       @ lvgl/src/lv_draw/lv_draw_rect.c:1211:29
	strb.w	r0, [sp, #174]
	.loc	9 1212 27 is_stmt 1             @ lvgl/src/lv_draw/lv_draw_rect.c:1212:27
	ldr	r0, [sp, #188]
	.loc	9 1212 32 is_stmt 0             @ lvgl/src/lv_draw/lv_draw_rect.c:1212:32
	ldr	r0, [r0, #68]
	str	r0, [sp, #176]
	.loc	9 1213 5 is_stmt 1              @ lvgl/src/lv_draw/lv_draw_rect.c:1213:5
	b	.LBB6_13
.Ltmp386:
.LBB6_9:
	.loc	9 1214 13                       @ lvgl/src/lv_draw/lv_draw_rect.c:1214:13
	ldrb.w	r0, [sp, #187]
.Ltmp387:
	.loc	9 1214 13 is_stmt 0             @ lvgl/src/lv_draw/lv_draw_rect.c:1214:13
	cmp	r0, #2
	bne	.LBB6_11
	b	.LBB6_10
.LBB6_10:
	.loc	9 0 13                          @ lvgl/src/lv_draw/lv_draw_rect.c:0:13
	add	r0, sp, #124
.Ltmp388:
	.loc	9 1215 9 is_stmt 1              @ lvgl/src/lv_draw/lv_draw_rect.c:1215:9
	bl	lv_draw_label_dsc_init
	.loc	9 1216 27                       @ lvgl/src/lv_draw/lv_draw_rect.c:1216:27
	ldr	r0, [sp, #188]
	.loc	9 1216 32 is_stmt 0             @ lvgl/src/lv_draw/lv_draw_rect.c:1216:32
	ldr	r0, [r0, #68]
	str	r0, [sp, #124]
	.loc	9 1217 26 is_stmt 1             @ lvgl/src/lv_draw/lv_draw_rect.c:1217:26
	ldr	r0, [sp, #188]
	.loc	9 1217 31 is_stmt 0             @ lvgl/src/lv_draw/lv_draw_rect.c:1217:31
	ldr	r0, [r0, #64]
	.loc	9 1217 24                       @ lvgl/src/lv_draw/lv_draw_rect.c:1217:24
	str	r0, [sp, #136]
	.loc	9 1218 25 is_stmt 1             @ lvgl/src/lv_draw/lv_draw_rect.c:1218:25
	ldr	r0, [sp, #188]
	.loc	9 1218 30 is_stmt 0             @ lvgl/src/lv_draw/lv_draw_rect.c:1218:30
	ldrb.w	r0, [r0, #72]
	.loc	9 1218 23                       @ lvgl/src/lv_draw/lv_draw_rect.c:1218:23
	strb.w	r0, [sp, #140]
	.loc	9 1220 30 is_stmt 1             @ lvgl/src/lv_draw/lv_draw_rect.c:1220:30
	ldr	r0, [sp, #188]
	.loc	9 1220 35 is_stmt 0             @ lvgl/src/lv_draw/lv_draw_rect.c:1220:35
	ldr	r1, [r0, #60]
	.loc	9 1220 60                       @ lvgl/src/lv_draw/lv_draw_rect.c:1220:60
	ldr	r2, [sp, #136]
	.loc	9 1220 76                       @ lvgl/src/lv_draw/lv_draw_rect.c:1220:76
	ldrsh.w	r3, [sp, #144]
	.loc	9 1220 100                      @ lvgl/src/lv_draw/lv_draw_rect.c:1220:100
	ldrsh.w	r0, [sp, #142]
	.loc	9 1220 9                        @ lvgl/src/lv_draw/lv_draw_rect.c:1220:9
	mov	r12, sp
	mov.w	lr, #0
	str.w	lr, [r12, #8]
	movw	lr, #31768
	str.w	lr, [r12, #4]
	str.w	r0, [r12]
	add	r0, sp, #104
	bl	_lv_txt_get_size
	.loc	9 1222 19 is_stmt 1             @ lvgl/src/lv_draw/lv_draw_rect.c:1222:19
	ldrsh.w	r0, [sp, #104]
	.loc	9 1222 15 is_stmt 0             @ lvgl/src/lv_draw/lv_draw_rect.c:1222:15
	str	r0, [sp, #120]
	.loc	9 1223 19 is_stmt 1             @ lvgl/src/lv_draw/lv_draw_rect.c:1223:19
	ldrsh.w	r0, [sp, #106]
	.loc	9 1223 15 is_stmt 0             @ lvgl/src/lv_draw/lv_draw_rect.c:1223:15
	str	r0, [sp, #116]
	.loc	9 1225 5 is_stmt 1              @ lvgl/src/lv_draw/lv_draw_rect.c:1225:5
	b	.LBB6_12
.Ltmp389:
.LBB6_11:
	.loc	9 1229 21                       @ lvgl/src/lv_draw/lv_draw_rect.c:1229:21
	ldr	r0, [sp, #196]
	.loc	9 1229 29 is_stmt 0             @ lvgl/src/lv_draw/lv_draw_rect.c:1229:29
	ldr	r1, [sp, #192]
	movs	r3, #0
	.loc	9 1229 9                        @ lvgl/src/lv_draw/lv_draw_rect.c:1229:9
	mov	r2, r3
	bl	lv_draw_img
	.loc	9 1230 9 is_stmt 1              @ lvgl/src/lv_draw/lv_draw_rect.c:1230:9
	b	.LBB6_37
.Ltmp390:
.LBB6_12:
	.loc	9 0 9 is_stmt 0                 @ lvgl/src/lv_draw/lv_draw_rect.c:0:9
	b	.LBB6_13
.LBB6_13:
.Ltmp391:
	.loc	9 1234 8 is_stmt 1              @ lvgl/src/lv_draw/lv_draw_rect.c:1234:8
	ldr	r0, [sp, #120]
	.loc	9 1234 19 is_stmt 0             @ lvgl/src/lv_draw/lv_draw_rect.c:1234:19
	cbz	r0, .LBB6_15
	b	.LBB6_14
.LBB6_14:
	.loc	9 1234 22                       @ lvgl/src/lv_draw/lv_draw_rect.c:1234:22
	ldr	r0, [sp, #116]
.Ltmp392:
	.loc	9 1234 8                        @ lvgl/src/lv_draw/lv_draw_rect.c:1234:8
	cbnz	r0, .LBB6_16
	b	.LBB6_15
.LBB6_15:
.Ltmp393:
	.loc	9 1234 34                       @ lvgl/src/lv_draw/lv_draw_rect.c:1234:34
	b	.LBB6_37
.Ltmp394:
.LBB6_16:
	.loc	9 1239 8 is_stmt 1              @ lvgl/src/lv_draw/lv_draw_rect.c:1239:8
	ldr	r0, [sp, #188]
	.loc	9 1239 13 is_stmt 0             @ lvgl/src/lv_draw/lv_draw_rect.c:1239:13
	ldrb.w	r0, [r0, #74]
.Ltmp395:
	.loc	9 1239 8                        @ lvgl/src/lv_draw/lv_draw_rect.c:1239:8
	lsls	r0, r0, #31
	cmp	r0, #0
	beq.w	.LBB6_29
	b	.LBB6_17
.LBB6_17:
.Ltmp396:
	.loc	9 1240 54 is_stmt 1             @ lvgl/src/lv_draw/lv_draw_rect.c:1240:54
	ldr	r1, [sp, #196]
	.loc	9 1240 62 is_stmt 0             @ lvgl/src/lv_draw/lv_draw_rect.c:1240:62
	ldr	r0, [sp, #188]
	.loc	9 1240 67                       @ lvgl/src/lv_draw/lv_draw_rect.c:1240:67
	ldrsh.w	r2, [r0]
	add	r0, sp, #68
	str	r0, [sp, #24]                   @ 4-byte Spill
	movs	r3, #0
	.loc	9 1240 9                        @ lvgl/src/lv_draw/lv_draw_rect.c:1240:9
	str	r3, [sp, #28]                   @ 4-byte Spill
	bl	lv_draw_mask_radius_init
	ldr	r0, [sp, #24]                   @ 4-byte Reload
	ldr	r1, [sp, #28]                   @ 4-byte Reload
	.loc	9 1241 34 is_stmt 1             @ lvgl/src/lv_draw/lv_draw_rect.c:1241:34
	bl	lv_draw_mask_add
	.loc	9 1241 17 is_stmt 0             @ lvgl/src/lv_draw/lv_draw_rect.c:1241:17
	strh.w	r0, [sp, #66]
	.loc	9 1244 44 is_stmt 1             @ lvgl/src/lv_draw/lv_draw_rect.c:1244:44
	ldr	r0, [sp, #196]
	.loc	9 1244 26 is_stmt 0             @ lvgl/src/lv_draw/lv_draw_rect.c:1244:26
	bl	lv_area_get_width
	.loc	9 1244 73                       @ lvgl/src/lv_draw/lv_draw_rect.c:1244:73
	str	r0, [sp, #32]                   @ 4-byte Spill
	ldr	r0, [sp, #196]
	.loc	9 1244 55                       @ lvgl/src/lv_draw/lv_draw_rect.c:1244:55
	bl	lv_area_get_width
	ldr	r2, [sp, #32]                   @ 4-byte Reload
	.loc	9 1244 83                       @ lvgl/src/lv_draw/lv_draw_rect.c:1244:83
	ldr	r1, [sp, #120]
	.loc	9 1244 81                       @ lvgl/src/lv_draw/lv_draw_rect.c:1244:81
	sdiv	r0, r0, r1
	.loc	9 1244 52                       @ lvgl/src/lv_draw/lv_draw_rect.c:1244:52
	mls	r0, r0, r1, r2
	.loc	9 1244 99                       @ lvgl/src/lv_draw/lv_draw_rect.c:1244:99
	add.w	r0, r0, r0, lsr #31
	asrs	r0, r0, #1
	.loc	9 1244 17                       @ lvgl/src/lv_draw/lv_draw_rect.c:1244:17
	str	r0, [sp, #60]
	.loc	9 1245 45 is_stmt 1             @ lvgl/src/lv_draw/lv_draw_rect.c:1245:45
	ldr	r0, [sp, #196]
	.loc	9 1245 26 is_stmt 0             @ lvgl/src/lv_draw/lv_draw_rect.c:1245:26
	bl	lv_area_get_height
	.loc	9 1245 75                       @ lvgl/src/lv_draw/lv_draw_rect.c:1245:75
	str	r0, [sp, #36]                   @ 4-byte Spill
	ldr	r0, [sp, #196]
	.loc	9 1245 56                       @ lvgl/src/lv_draw/lv_draw_rect.c:1245:56
	bl	lv_area_get_height
	ldr	r2, [sp, #36]                   @ 4-byte Reload
	.loc	9 1245 85                       @ lvgl/src/lv_draw/lv_draw_rect.c:1245:85
	ldr	r1, [sp, #116]
	.loc	9 1245 83                       @ lvgl/src/lv_draw/lv_draw_rect.c:1245:83
	sdiv	r0, r0, r1
	.loc	9 1245 53                       @ lvgl/src/lv_draw/lv_draw_rect.c:1245:53
	mls	r0, r0, r1, r2
	.loc	9 1245 101                      @ lvgl/src/lv_draw/lv_draw_rect.c:1245:101
	add.w	r0, r0, r0, lsr #31
	asrs	r0, r0, #1
	.loc	9 1245 17                       @ lvgl/src/lv_draw/lv_draw_rect.c:1245:17
	str	r0, [sp, #56]
	.loc	9 1247 25 is_stmt 1             @ lvgl/src/lv_draw/lv_draw_rect.c:1247:25
	ldr	r0, [sp, #196]
	ldrh	r0, [r0, #2]
	.loc	9 1247 38 is_stmt 0             @ lvgl/src/lv_draw/lv_draw_rect.c:1247:38
	ldr	r1, [sp, #56]
	.loc	9 1247 36                       @ lvgl/src/lv_draw/lv_draw_rect.c:1247:36
	subs	r0, r0, r1
	.loc	9 1247 23                       @ lvgl/src/lv_draw/lv_draw_rect.c:1247:23
	strh.w	r0, [sp, #98]
	.loc	9 1248 25 is_stmt 1             @ lvgl/src/lv_draw/lv_draw_rect.c:1248:25
	ldrh.w	r0, [sp, #98]
	.loc	9 1248 41 is_stmt 0             @ lvgl/src/lv_draw/lv_draw_rect.c:1248:41
	ldr	r1, [sp, #116]
	.loc	9 1248 39                       @ lvgl/src/lv_draw/lv_draw_rect.c:1248:39
	add	r0, r1
	.loc	9 1248 47                       @ lvgl/src/lv_draw/lv_draw_rect.c:1248:47
	subs	r0, #1
	.loc	9 1248 23                       @ lvgl/src/lv_draw/lv_draw_rect.c:1248:23
	strh.w	r0, [sp, #102]
	.loc	9 1249 9 is_stmt 1              @ lvgl/src/lv_draw/lv_draw_rect.c:1249:9
	b	.LBB6_18
.LBB6_18:                               @ =>This Loop Header: Depth=1
                                        @     Child Loop BB6_20 Depth 2
.Ltmp397:
	.loc	9 1249 26 is_stmt 0             @ lvgl/src/lv_draw/lv_draw_rect.c:1249:26
	ldrsh.w	r0, [sp, #98]
	.loc	9 1249 32                       @ lvgl/src/lv_draw/lv_draw_rect.c:1249:32
	ldr	r1, [sp, #196]
	.loc	9 1249 40                       @ lvgl/src/lv_draw/lv_draw_rect.c:1249:40
	ldrsh.w	r1, [r1, #6]
.Ltmp398:
	.loc	9 1249 9                        @ lvgl/src/lv_draw/lv_draw_rect.c:1249:9
	cmp	r0, r1
	bgt	.LBB6_28
	b	.LBB6_19
.LBB6_19:                               @   in Loop: Header=BB6_18 Depth=1
.Ltmp399:
	.loc	9 1250 29 is_stmt 1             @ lvgl/src/lv_draw/lv_draw_rect.c:1250:29
	ldr	r0, [sp, #196]
	ldrh	r0, [r0]
	.loc	9 1250 42 is_stmt 0             @ lvgl/src/lv_draw/lv_draw_rect.c:1250:42
	ldr	r1, [sp, #60]
	.loc	9 1250 40                       @ lvgl/src/lv_draw/lv_draw_rect.c:1250:40
	subs	r0, r0, r1
	.loc	9 1250 27                       @ lvgl/src/lv_draw/lv_draw_rect.c:1250:27
	strh.w	r0, [sp, #96]
	.loc	9 1251 29 is_stmt 1             @ lvgl/src/lv_draw/lv_draw_rect.c:1251:29
	ldrh.w	r0, [sp, #96]
	.loc	9 1251 45 is_stmt 0             @ lvgl/src/lv_draw/lv_draw_rect.c:1251:45
	ldr	r1, [sp, #120]
	.loc	9 1251 43                       @ lvgl/src/lv_draw/lv_draw_rect.c:1251:43
	add	r0, r1
	.loc	9 1251 51                       @ lvgl/src/lv_draw/lv_draw_rect.c:1251:51
	subs	r0, #1
	.loc	9 1251 27                       @ lvgl/src/lv_draw/lv_draw_rect.c:1251:27
	strh.w	r0, [sp, #100]
	.loc	9 1252 13 is_stmt 1             @ lvgl/src/lv_draw/lv_draw_rect.c:1252:13
	b	.LBB6_20
.LBB6_20:                               @   Parent Loop BB6_18 Depth=1
                                        @ =>  This Inner Loop Header: Depth=2
.Ltmp400:
	.loc	9 1252 30 is_stmt 0             @ lvgl/src/lv_draw/lv_draw_rect.c:1252:30
	ldrsh.w	r0, [sp, #96]
	.loc	9 1252 36                       @ lvgl/src/lv_draw/lv_draw_rect.c:1252:36
	ldr	r1, [sp, #196]
	.loc	9 1252 44                       @ lvgl/src/lv_draw/lv_draw_rect.c:1252:44
	ldrsh.w	r1, [r1, #4]
.Ltmp401:
	.loc	9 1252 13                       @ lvgl/src/lv_draw/lv_draw_rect.c:1252:13
	cmp	r0, r1
	bgt	.LBB6_26
	b	.LBB6_21
.LBB6_21:                               @   in Loop: Header=BB6_20 Depth=2
.Ltmp402:
	.loc	9 1253 20 is_stmt 1             @ lvgl/src/lv_draw/lv_draw_rect.c:1253:20
	ldrb.w	r0, [sp, #187]
.Ltmp403:
	.loc	9 1253 20 is_stmt 0             @ lvgl/src/lv_draw/lv_draw_rect.c:1253:20
	cmp	r0, #2
	bne	.LBB6_23
	b	.LBB6_22
.LBB6_22:                               @   in Loop: Header=BB6_20 Depth=2
.Ltmp404:
	.loc	9 1253 79                       @ lvgl/src/lv_draw/lv_draw_rect.c:1253:79
	ldr	r1, [sp, #192]
	.loc	9 1253 97                       @ lvgl/src/lv_draw/lv_draw_rect.c:1253:97
	ldr	r0, [sp, #188]
	.loc	9 1253 102                      @ lvgl/src/lv_draw/lv_draw_rect.c:1253:102
	ldr	r3, [r0, #60]
	.loc	9 1253 52                       @ lvgl/src/lv_draw/lv_draw_rect.c:1253:52
	mov	r2, sp
	movs	r0, #0
	str	r0, [r2]
	add	r0, sp, #96
	add	r2, sp, #124
	bl	lv_draw_label
	b	.LBB6_24
.LBB6_23:                               @   in Loop: Header=BB6_20 Depth=2
	.loc	9 1254 47 is_stmt 1             @ lvgl/src/lv_draw/lv_draw_rect.c:1254:47
	ldr	r1, [sp, #192]
	.loc	9 1254 53 is_stmt 0             @ lvgl/src/lv_draw/lv_draw_rect.c:1254:53
	ldr	r0, [sp, #188]
	.loc	9 1254 58                       @ lvgl/src/lv_draw/lv_draw_rect.c:1254:58
	ldr	r2, [r0, #60]
	add	r0, sp, #96
	add	r3, sp, #164
	.loc	9 1254 22                       @ lvgl/src/lv_draw/lv_draw_rect.c:1254:22
	bl	lv_draw_img
	b	.LBB6_24
.Ltmp405:
.LBB6_24:                               @   in Loop: Header=BB6_20 Depth=2
	.loc	9 1255 13 is_stmt 1             @ lvgl/src/lv_draw/lv_draw_rect.c:1255:13
	b	.LBB6_25
.Ltmp406:
.LBB6_25:                               @   in Loop: Header=BB6_20 Depth=2
	.loc	9 1252 65                       @ lvgl/src/lv_draw/lv_draw_rect.c:1252:65
	ldr	r1, [sp, #120]
	.loc	9 1252 62 is_stmt 0             @ lvgl/src/lv_draw/lv_draw_rect.c:1252:62
	ldrh.w	r0, [sp, #96]
	add	r0, r1
	strh.w	r0, [sp, #96]
	.loc	9 1252 89                       @ lvgl/src/lv_draw/lv_draw_rect.c:1252:89
	ldr	r1, [sp, #120]
	.loc	9 1252 86                       @ lvgl/src/lv_draw/lv_draw_rect.c:1252:86
	ldrh.w	r0, [sp, #100]
	add	r0, r1
	strh.w	r0, [sp, #100]
	.loc	9 1252 13                       @ lvgl/src/lv_draw/lv_draw_rect.c:1252:13
	b	.LBB6_20
.Ltmp407:
.LBB6_26:                               @   in Loop: Header=BB6_18 Depth=1
	.loc	9 1256 9 is_stmt 1              @ lvgl/src/lv_draw/lv_draw_rect.c:1256:9
	b	.LBB6_27
.Ltmp408:
.LBB6_27:                               @   in Loop: Header=BB6_18 Depth=1
	.loc	9 1249 61                       @ lvgl/src/lv_draw/lv_draw_rect.c:1249:61
	ldr	r1, [sp, #116]
	.loc	9 1249 58 is_stmt 0             @ lvgl/src/lv_draw/lv_draw_rect.c:1249:58
	ldrh.w	r0, [sp, #98]
	add	r0, r1
	strh.w	r0, [sp, #98]
	.loc	9 1249 85                       @ lvgl/src/lv_draw/lv_draw_rect.c:1249:85
	ldr	r1, [sp, #116]
	.loc	9 1249 82                       @ lvgl/src/lv_draw/lv_draw_rect.c:1249:82
	ldrh.w	r0, [sp, #102]
	add	r0, r1
	strh.w	r0, [sp, #102]
	.loc	9 1249 9                        @ lvgl/src/lv_draw/lv_draw_rect.c:1249:9
	b	.LBB6_18
.Ltmp409:
.LBB6_28:
	.loc	9 1257 32 is_stmt 1             @ lvgl/src/lv_draw/lv_draw_rect.c:1257:32
	ldrsh.w	r0, [sp, #66]
	.loc	9 1257 9 is_stmt 0              @ lvgl/src/lv_draw/lv_draw_rect.c:1257:9
	bl	lv_draw_mask_remove_id
	.loc	9 1258 5 is_stmt 1              @ lvgl/src/lv_draw/lv_draw_rect.c:1258:5
	b	.LBB6_37
.Ltmp410:
.LBB6_29:
	.loc	9 1260 43                       @ lvgl/src/lv_draw/lv_draw_rect.c:1260:43
	ldr	r0, [sp, #196]
	.loc	9 1260 25 is_stmt 0             @ lvgl/src/lv_draw/lv_draw_rect.c:1260:25
	bl	lv_area_get_width
	.loc	9 1260 17                       @ lvgl/src/lv_draw/lv_draw_rect.c:1260:17
	str	r0, [sp, #52]
	.loc	9 1261 44 is_stmt 1             @ lvgl/src/lv_draw/lv_draw_rect.c:1261:44
	ldr	r0, [sp, #196]
	.loc	9 1261 25 is_stmt 0             @ lvgl/src/lv_draw/lv_draw_rect.c:1261:25
	bl	lv_area_get_height
	.loc	9 1261 17                       @ lvgl/src/lv_draw/lv_draw_rect.c:1261:17
	str	r0, [sp, #48]
	.loc	9 1262 25 is_stmt 1             @ lvgl/src/lv_draw/lv_draw_rect.c:1262:25
	ldr	r0, [sp, #196]
	ldrh	r0, [r0]
	.loc	9 1262 39 is_stmt 0             @ lvgl/src/lv_draw/lv_draw_rect.c:1262:39
	ldr	r1, [sp, #52]
	.loc	9 1262 47                       @ lvgl/src/lv_draw/lv_draw_rect.c:1262:47
	ldr	r2, [sp, #120]
	.loc	9 1262 45                       @ lvgl/src/lv_draw/lv_draw_rect.c:1262:45
	subs	r1, r1, r2
	.loc	9 1262 54                       @ lvgl/src/lv_draw/lv_draw_rect.c:1262:54
	add.w	r1, r1, r1, lsr #31
	.loc	9 1262 36                       @ lvgl/src/lv_draw/lv_draw_rect.c:1262:36
	add.w	r0, r0, r1, lsr #1
	.loc	9 1262 23                       @ lvgl/src/lv_draw/lv_draw_rect.c:1262:23
	strh.w	r0, [sp, #96]
	.loc	9 1263 25 is_stmt 1             @ lvgl/src/lv_draw/lv_draw_rect.c:1263:25
	ldr	r0, [sp, #196]
	ldrh	r0, [r0, #2]
	.loc	9 1263 39 is_stmt 0             @ lvgl/src/lv_draw/lv_draw_rect.c:1263:39
	ldr	r1, [sp, #48]
	.loc	9 1263 47                       @ lvgl/src/lv_draw/lv_draw_rect.c:1263:47
	ldr	r2, [sp, #116]
	.loc	9 1263 45                       @ lvgl/src/lv_draw/lv_draw_rect.c:1263:45
	subs	r1, r1, r2
	.loc	9 1263 54                       @ lvgl/src/lv_draw/lv_draw_rect.c:1263:54
	add.w	r1, r1, r1, lsr #31
	.loc	9 1263 36                       @ lvgl/src/lv_draw/lv_draw_rect.c:1263:36
	add.w	r0, r0, r1, lsr #1
	.loc	9 1263 23                       @ lvgl/src/lv_draw/lv_draw_rect.c:1263:23
	strh.w	r0, [sp, #98]
	.loc	9 1264 25 is_stmt 1             @ lvgl/src/lv_draw/lv_draw_rect.c:1264:25
	ldrh.w	r0, [sp, #96]
	.loc	9 1264 41 is_stmt 0             @ lvgl/src/lv_draw/lv_draw_rect.c:1264:41
	ldr	r1, [sp, #120]
	.loc	9 1264 39                       @ lvgl/src/lv_draw/lv_draw_rect.c:1264:39
	add	r0, r1
	.loc	9 1264 47                       @ lvgl/src/lv_draw/lv_draw_rect.c:1264:47
	subs	r0, #1
	.loc	9 1264 23                       @ lvgl/src/lv_draw/lv_draw_rect.c:1264:23
	strh.w	r0, [sp, #100]
	.loc	9 1265 25 is_stmt 1             @ lvgl/src/lv_draw/lv_draw_rect.c:1265:25
	ldrh.w	r0, [sp, #98]
	.loc	9 1265 41 is_stmt 0             @ lvgl/src/lv_draw/lv_draw_rect.c:1265:41
	ldr	r1, [sp, #116]
	.loc	9 1265 39                       @ lvgl/src/lv_draw/lv_draw_rect.c:1265:39
	add	r0, r1
	.loc	9 1265 47                       @ lvgl/src/lv_draw/lv_draw_rect.c:1265:47
	subs	r0, #1
	.loc	9 1265 23                       @ lvgl/src/lv_draw/lv_draw_rect.c:1265:23
	strh.w	r0, [sp, #102]
.Ltmp411:
	.loc	9 1270 12 is_stmt 1             @ lvgl/src/lv_draw/lv_draw_rect.c:1270:12
	ldrb.w	r0, [sp, #187]
.Ltmp412:
	.loc	9 1270 12 is_stmt 0             @ lvgl/src/lv_draw/lv_draw_rect.c:1270:12
	cmp	r0, #2
	bne	.LBB6_31
	b	.LBB6_30
.LBB6_30:
.Ltmp413:
	.loc	9 1271 31 is_stmt 1             @ lvgl/src/lv_draw/lv_draw_rect.c:1271:31
	ldr	r0, [sp, #48]
	.loc	9 1271 39 is_stmt 0             @ lvgl/src/lv_draw/lv_draw_rect.c:1271:39
	ldr	r1, [sp, #116]
	.loc	9 1271 37                       @ lvgl/src/lv_draw/lv_draw_rect.c:1271:37
	subs	r0, r0, r1
	.loc	9 1271 46                       @ lvgl/src/lv_draw/lv_draw_rect.c:1271:46
	and	r0, r0, #1
	.loc	9 1271 21                       @ lvgl/src/lv_draw/lv_draw_rect.c:1271:21
	str	r0, [sp, #44]
	.loc	9 1272 30 is_stmt 1             @ lvgl/src/lv_draw/lv_draw_rect.c:1272:30
	ldr	r1, [sp, #44]
	.loc	9 1272 27 is_stmt 0             @ lvgl/src/lv_draw/lv_draw_rect.c:1272:27
	ldrh.w	r0, [sp, #98]
	add	r0, r1
	strh.w	r0, [sp, #98]
	.loc	9 1273 30 is_stmt 1             @ lvgl/src/lv_draw/lv_draw_rect.c:1273:30
	ldr	r1, [sp, #44]
	.loc	9 1273 27 is_stmt 0             @ lvgl/src/lv_draw/lv_draw_rect.c:1273:27
	ldrh.w	r0, [sp, #102]
	add	r0, r1
	strh.w	r0, [sp, #102]
	.loc	9 1274 9 is_stmt 1              @ lvgl/src/lv_draw/lv_draw_rect.c:1274:9
	b	.LBB6_31
.Ltmp414:
.LBB6_31:
	.loc	9 0 9 is_stmt 0                 @ lvgl/src/lv_draw/lv_draw_rect.c:0:9
	movw	r0, #65535
	.loc	9 1276 17 is_stmt 1             @ lvgl/src/lv_draw/lv_draw_rect.c:1276:17
	strh.w	r0, [sp, #42]
.Ltmp415:
	.loc	9 1277 40                       @ lvgl/src/lv_draw/lv_draw_rect.c:1277:40
	ldr	r1, [sp, #196]
	.loc	9 1277 48 is_stmt 0             @ lvgl/src/lv_draw/lv_draw_rect.c:1277:48
	ldr	r0, [sp, #188]
	.loc	9 1277 53                       @ lvgl/src/lv_draw/lv_draw_rect.c:1277:53
	ldrsh.w	r2, [r0]
	add	r0, sp, #96
	.loc	9 1277 12                       @ lvgl/src/lv_draw/lv_draw_rect.c:1277:12
	bl	_lv_area_is_in
.Ltmp416:
	.loc	9 1277 12                       @ lvgl/src/lv_draw/lv_draw_rect.c:1277:12
	cbnz	r0, .LBB6_33
	b	.LBB6_32
.LBB6_32:
.Ltmp417:
	.loc	9 1278 58 is_stmt 1             @ lvgl/src/lv_draw/lv_draw_rect.c:1278:58
	ldr	r1, [sp, #196]
	.loc	9 1278 66 is_stmt 0             @ lvgl/src/lv_draw/lv_draw_rect.c:1278:66
	ldr	r0, [sp, #188]
	.loc	9 1278 71                       @ lvgl/src/lv_draw/lv_draw_rect.c:1278:71
	ldrsh.w	r2, [r0]
	add	r0, sp, #68
	str	r0, [sp, #16]                   @ 4-byte Spill
	movs	r3, #0
	.loc	9 1278 13                       @ lvgl/src/lv_draw/lv_draw_rect.c:1278:13
	str	r3, [sp, #20]                   @ 4-byte Spill
	bl	lv_draw_mask_radius_init
	ldr	r0, [sp, #16]                   @ 4-byte Reload
	ldr	r1, [sp, #20]                   @ 4-byte Reload
	.loc	9 1279 30 is_stmt 1             @ lvgl/src/lv_draw/lv_draw_rect.c:1279:30
	bl	lv_draw_mask_add
	.loc	9 1279 28 is_stmt 0             @ lvgl/src/lv_draw/lv_draw_rect.c:1279:28
	strh.w	r0, [sp, #42]
	.loc	9 1280 9 is_stmt 1              @ lvgl/src/lv_draw/lv_draw_rect.c:1280:9
	b	.LBB6_33
.Ltmp418:
.LBB6_33:
	.loc	9 1282 12                       @ lvgl/src/lv_draw/lv_draw_rect.c:1282:12
	ldrb.w	r0, [sp, #187]
.Ltmp419:
	.loc	9 1282 12 is_stmt 0             @ lvgl/src/lv_draw/lv_draw_rect.c:1282:12
	cmp	r0, #2
	bne	.LBB6_35
	b	.LBB6_34
.LBB6_34:
.Ltmp420:
	.loc	9 1282 71                       @ lvgl/src/lv_draw/lv_draw_rect.c:1282:71
	ldr	r1, [sp, #192]
	.loc	9 1282 89                       @ lvgl/src/lv_draw/lv_draw_rect.c:1282:89
	ldr	r0, [sp, #188]
	.loc	9 1282 94                       @ lvgl/src/lv_draw/lv_draw_rect.c:1282:94
	ldr	r3, [r0, #60]
	.loc	9 1282 44                       @ lvgl/src/lv_draw/lv_draw_rect.c:1282:44
	mov	r2, sp
	movs	r0, #0
	str	r0, [r2]
	add	r0, sp, #96
	add	r2, sp, #124
	bl	lv_draw_label
	b	.LBB6_36
.LBB6_35:
	.loc	9 1283 39 is_stmt 1             @ lvgl/src/lv_draw/lv_draw_rect.c:1283:39
	ldr	r1, [sp, #192]
	.loc	9 1283 45 is_stmt 0             @ lvgl/src/lv_draw/lv_draw_rect.c:1283:45
	ldr	r0, [sp, #188]
	.loc	9 1283 50                       @ lvgl/src/lv_draw/lv_draw_rect.c:1283:50
	ldr	r2, [r0, #60]
	add	r0, sp, #96
	add	r3, sp, #164
	.loc	9 1283 14                       @ lvgl/src/lv_draw/lv_draw_rect.c:1283:14
	bl	lv_draw_img
	b	.LBB6_36
.Ltmp421:
.LBB6_36:
	.loc	9 1285 32 is_stmt 1             @ lvgl/src/lv_draw/lv_draw_rect.c:1285:32
	ldrsh.w	r0, [sp, #42]
	.loc	9 1285 9 is_stmt 0              @ lvgl/src/lv_draw/lv_draw_rect.c:1285:9
	bl	lv_draw_mask_remove_id
	b	.LBB6_37
.Ltmp422:
.LBB6_37:
	.loc	9 1287 1 is_stmt 1              @ lvgl/src/lv_draw/lv_draw_rect.c:1287:1
	add	sp, #200
	pop	{r7, pc}
.Ltmp423:
.Lfunc_end6:
	.size	draw_pattern, .Lfunc_end6-draw_pattern
	.cfi_endproc
	.cantunwind
	.fnend
                                        @ -- End function
	.section	.text.draw_border,"ax",%progbits
	.p2align	3                               @ -- Begin function draw_border
	.type	draw_border,%function
	.code	16                              @ @draw_border
	.thumb_func
draw_border:
.Lfunc_begin7:
	.loc	9 388 0                         @ lvgl/src/lv_draw/lv_draw_rect.c:388:0
	.fnstart
	.cfi_startproc
@ %bb.0:
	.save	{r4, lr}
	push	{r4, lr}
	.cfi_def_cfa_offset 8
	.cfi_offset lr, -4
	.cfi_offset r4, -8
	.pad	#232
	sub	sp, #232
	.cfi_def_cfa_offset 240
	str	r0, [sp, #228]
	str	r1, [sp, #224]
	str	r2, [sp, #220]
.Ltmp424:
	.loc	9 389 8 prologue_end            @ lvgl/src/lv_draw/lv_draw_rect.c:389:8
	ldr	r0, [sp, #220]
	.loc	9 389 13 is_stmt 0              @ lvgl/src/lv_draw/lv_draw_rect.c:389:13
	ldrb	r0, [r0, #28]
.Ltmp425:
	.loc	9 389 8                         @ lvgl/src/lv_draw/lv_draw_rect.c:389:8
	cmp	r0, #2
	bgt	.LBB7_2
	b	.LBB7_1
.LBB7_1:
.Ltmp426:
	.loc	9 389 39                        @ lvgl/src/lv_draw/lv_draw_rect.c:389:39
	b	.LBB7_62
.Ltmp427:
.LBB7_2:
	.loc	9 390 8 is_stmt 1               @ lvgl/src/lv_draw/lv_draw_rect.c:390:8
	ldr	r0, [sp, #220]
	.loc	9 390 13 is_stmt 0              @ lvgl/src/lv_draw/lv_draw_rect.c:390:13
	ldrsh.w	r0, [r0, #24]
.Ltmp428:
	.loc	9 390 8                         @ lvgl/src/lv_draw/lv_draw_rect.c:390:8
	cbnz	r0, .LBB7_4
	b	.LBB7_3
.LBB7_3:
.Ltmp429:
	.loc	9 390 32                        @ lvgl/src/lv_draw/lv_draw_rect.c:390:32
	b	.LBB7_62
.Ltmp430:
.LBB7_4:
	.loc	9 391 8 is_stmt 1               @ lvgl/src/lv_draw/lv_draw_rect.c:391:8
	ldr	r0, [sp, #220]
	.loc	9 391 13 is_stmt 0              @ lvgl/src/lv_draw/lv_draw_rect.c:391:13
	ldrsh.w	r0, [r0, #26]
.Ltmp431:
	.loc	9 391 8                         @ lvgl/src/lv_draw/lv_draw_rect.c:391:8
	cbnz	r0, .LBB7_6
	b	.LBB7_5
.LBB7_5:
.Ltmp432:
	.loc	9 391 49                        @ lvgl/src/lv_draw/lv_draw_rect.c:391:49
	b	.LBB7_62
.Ltmp433:
.LBB7_6:
	.loc	9 392 8 is_stmt 1               @ lvgl/src/lv_draw/lv_draw_rect.c:392:8
	ldr	r0, [sp, #220]
	.loc	9 392 13 is_stmt 0              @ lvgl/src/lv_draw/lv_draw_rect.c:392:13
	ldrb	r0, [r0, #30]
.Ltmp434:
	.loc	9 392 8                         @ lvgl/src/lv_draw/lv_draw_rect.c:392:8
	lsls	r0, r0, #31
	cbz	r0, .LBB7_8
	b	.LBB7_7
.LBB7_7:
.Ltmp435:
	.loc	9 392 26                        @ lvgl/src/lv_draw/lv_draw_rect.c:392:26
	b	.LBB7_62
.Ltmp436:
.LBB7_8:
	.loc	9 394 42 is_stmt 1              @ lvgl/src/lv_draw/lv_draw_rect.c:394:42
	ldr	r0, [sp, #228]
	.loc	9 394 24 is_stmt 0              @ lvgl/src/lv_draw/lv_draw_rect.c:394:24
	bl	lv_area_get_width
	.loc	9 394 13                        @ lvgl/src/lv_draw/lv_draw_rect.c:394:13
	str	r0, [sp, #216]
	.loc	9 395 43 is_stmt 1              @ lvgl/src/lv_draw/lv_draw_rect.c:395:43
	ldr	r0, [sp, #228]
	.loc	9 395 24 is_stmt 0              @ lvgl/src/lv_draw/lv_draw_rect.c:395:24
	bl	lv_area_get_height
	.loc	9 395 13                        @ lvgl/src/lv_draw/lv_draw_rect.c:395:13
	str	r0, [sp, #212]
	.loc	9 398 20 is_stmt 1              @ lvgl/src/lv_draw/lv_draw_rect.c:398:20
	ldr	r0, [sp, #220]
	.loc	9 398 25 is_stmt 0              @ lvgl/src/lv_draw/lv_draw_rect.c:398:25
	ldrsh.w	r0, [r0]
	.loc	9 398 13                        @ lvgl/src/lv_draw/lv_draw_rect.c:398:13
	str	r0, [sp, #208]
	.loc	9 399 26 is_stmt 1              @ lvgl/src/lv_draw/lv_draw_rect.c:399:26
	ldr	r0, [sp, #216]
	ldr	r1, [sp, #212]
	cmp	r0, r1
	bge	.LBB7_10
	b	.LBB7_9
.LBB7_9:
	ldr	r0, [sp, #216]
	str	r0, [sp, #52]                   @ 4-byte Spill
	b	.LBB7_11
.LBB7_10:
	ldr	r0, [sp, #212]
	str	r0, [sp, #52]                   @ 4-byte Spill
	b	.LBB7_11
.LBB7_11:
	ldr	r0, [sp, #52]                   @ 4-byte Reload
	.loc	9 399 13 is_stmt 0              @ lvgl/src/lv_draw/lv_draw_rect.c:399:13
	str	r0, [sp, #204]
.Ltmp437:
	.loc	9 400 8 is_stmt 1               @ lvgl/src/lv_draw/lv_draw_rect.c:400:8
	ldr	r0, [sp, #208]
	.loc	9 400 15 is_stmt 0              @ lvgl/src/lv_draw/lv_draw_rect.c:400:15
	ldr	r1, [sp, #204]
.Ltmp438:
	.loc	9 400 8                         @ lvgl/src/lv_draw/lv_draw_rect.c:400:8
	cmp.w	r0, r1, asr #1
	ble	.LBB7_13
	b	.LBB7_12
.LBB7_12:
.Ltmp439:
	.loc	9 400 39                        @ lvgl/src/lv_draw/lv_draw_rect.c:400:39
	ldr	r0, [sp, #204]
	.loc	9 400 50                        @ lvgl/src/lv_draw/lv_draw_rect.c:400:50
	asrs	r0, r0, #1
	.loc	9 400 37                        @ lvgl/src/lv_draw/lv_draw_rect.c:400:37
	str	r0, [sp, #208]
	.loc	9 400 32                        @ lvgl/src/lv_draw/lv_draw_rect.c:400:32
	b	.LBB7_13
.Ltmp440:
.LBB7_13:
	.loc	9 404 31 is_stmt 1              @ lvgl/src/lv_draw/lv_draw_rect.c:404:31
	ldr	r1, [sp, #228]
	add	r0, sp, #196
	.loc	9 404 5 is_stmt 0               @ lvgl/src/lv_draw/lv_draw_rect.c:404:5
	bl	lv_area_copy
	.loc	9 405 24 is_stmt 1              @ lvgl/src/lv_draw/lv_draw_rect.c:405:24
	ldr	r0, [sp, #220]
	ldrh	r0, [r0, #26]
	.loc	9 405 23 is_stmt 0              @ lvgl/src/lv_draw/lv_draw_rect.c:405:23
	lsls	r0, r0, #29
	cmp	r0, #0
	bpl	.LBB7_15
	b	.LBB7_14
.LBB7_14:
	.loc	9 405 66                        @ lvgl/src/lv_draw/lv_draw_rect.c:405:66
	ldr	r0, [sp, #220]
	.loc	9 405 71                        @ lvgl/src/lv_draw/lv_draw_rect.c:405:71
	ldrsh.w	r0, [r0, #24]
	.loc	9 405 23                        @ lvgl/src/lv_draw/lv_draw_rect.c:405:23
	str	r0, [sp, #48]                   @ 4-byte Spill
	b	.LBB7_16
.LBB7_15:
	.loc	9 405 89                        @ lvgl/src/lv_draw/lv_draw_rect.c:405:89
	ldr	r0, [sp, #220]
	.loc	9 405 94                        @ lvgl/src/lv_draw/lv_draw_rect.c:405:94
	ldrsh.w	r0, [r0, #24]
	.loc	9 405 109                       @ lvgl/src/lv_draw/lv_draw_rect.c:405:109
	ldr	r1, [sp, #208]
	.loc	9 405 107                       @ lvgl/src/lv_draw/lv_draw_rect.c:405:107
	add	r0, r1
	.loc	9 405 86                        @ lvgl/src/lv_draw/lv_draw_rect.c:405:86
	rsbs	r0, r0, #0
	.loc	9 405 23                        @ lvgl/src/lv_draw/lv_draw_rect.c:405:23
	str	r0, [sp, #48]                   @ 4-byte Spill
	b	.LBB7_16
.LBB7_16:
	ldr	r1, [sp, #48]                   @ 4-byte Reload
	.loc	9 405 19                        @ lvgl/src/lv_draw/lv_draw_rect.c:405:19
	ldrh.w	r0, [sp, #196]
	add	r0, r1
	strh.w	r0, [sp, #196]
	.loc	9 406 24 is_stmt 1              @ lvgl/src/lv_draw/lv_draw_rect.c:406:24
	ldr	r0, [sp, #220]
	.loc	9 406 23 is_stmt 0              @ lvgl/src/lv_draw/lv_draw_rect.c:406:23
	ldrb	r0, [r0, #26]
	lsls	r0, r0, #28
	cmp	r0, #0
	bpl	.LBB7_18
	b	.LBB7_17
.LBB7_17:
	.loc	9 406 67                        @ lvgl/src/lv_draw/lv_draw_rect.c:406:67
	ldr	r0, [sp, #220]
	.loc	9 406 72                        @ lvgl/src/lv_draw/lv_draw_rect.c:406:72
	ldrsh.w	r0, [r0, #24]
	.loc	9 406 23                        @ lvgl/src/lv_draw/lv_draw_rect.c:406:23
	str	r0, [sp, #44]                   @ 4-byte Spill
	b	.LBB7_19
.LBB7_18:
	.loc	9 406 90                        @ lvgl/src/lv_draw/lv_draw_rect.c:406:90
	ldr	r0, [sp, #220]
	.loc	9 406 95                        @ lvgl/src/lv_draw/lv_draw_rect.c:406:95
	ldrsh.w	r0, [r0, #24]
	.loc	9 406 110                       @ lvgl/src/lv_draw/lv_draw_rect.c:406:110
	ldr	r1, [sp, #208]
	.loc	9 406 108                       @ lvgl/src/lv_draw/lv_draw_rect.c:406:108
	add	r0, r1
	.loc	9 406 87                        @ lvgl/src/lv_draw/lv_draw_rect.c:406:87
	rsbs	r0, r0, #0
	.loc	9 406 23                        @ lvgl/src/lv_draw/lv_draw_rect.c:406:23
	str	r0, [sp, #44]                   @ 4-byte Spill
	b	.LBB7_19
.LBB7_19:
	ldr	r1, [sp, #44]                   @ 4-byte Reload
	.loc	9 406 19                        @ lvgl/src/lv_draw/lv_draw_rect.c:406:19
	ldrh.w	r0, [sp, #200]
	subs	r0, r0, r1
	strh.w	r0, [sp, #200]
	.loc	9 407 24 is_stmt 1              @ lvgl/src/lv_draw/lv_draw_rect.c:407:24
	ldr	r0, [sp, #220]
	.loc	9 407 23 is_stmt 0              @ lvgl/src/lv_draw/lv_draw_rect.c:407:23
	ldrb	r0, [r0, #26]
	lsls	r0, r0, #30
	cmp	r0, #0
	bpl	.LBB7_21
	b	.LBB7_20
.LBB7_20:
	.loc	9 407 65                        @ lvgl/src/lv_draw/lv_draw_rect.c:407:65
	ldr	r0, [sp, #220]
	.loc	9 407 70                        @ lvgl/src/lv_draw/lv_draw_rect.c:407:70
	ldrsh.w	r0, [r0, #24]
	.loc	9 407 23                        @ lvgl/src/lv_draw/lv_draw_rect.c:407:23
	str	r0, [sp, #40]                   @ 4-byte Spill
	b	.LBB7_22
.LBB7_21:
	.loc	9 407 88                        @ lvgl/src/lv_draw/lv_draw_rect.c:407:88
	ldr	r0, [sp, #220]
	.loc	9 407 93                        @ lvgl/src/lv_draw/lv_draw_rect.c:407:93
	ldrsh.w	r0, [r0, #24]
	.loc	9 407 108                       @ lvgl/src/lv_draw/lv_draw_rect.c:407:108
	ldr	r1, [sp, #208]
	.loc	9 407 106                       @ lvgl/src/lv_draw/lv_draw_rect.c:407:106
	add	r0, r1
	.loc	9 407 85                        @ lvgl/src/lv_draw/lv_draw_rect.c:407:85
	rsbs	r0, r0, #0
	.loc	9 407 23                        @ lvgl/src/lv_draw/lv_draw_rect.c:407:23
	str	r0, [sp, #40]                   @ 4-byte Spill
	b	.LBB7_22
.LBB7_22:
	ldr	r1, [sp, #40]                   @ 4-byte Reload
	.loc	9 407 19                        @ lvgl/src/lv_draw/lv_draw_rect.c:407:19
	ldrh.w	r0, [sp, #198]
	add	r0, r1
	strh.w	r0, [sp, #198]
	.loc	9 408 24 is_stmt 1              @ lvgl/src/lv_draw/lv_draw_rect.c:408:24
	ldr	r0, [sp, #220]
	.loc	9 408 23 is_stmt 0              @ lvgl/src/lv_draw/lv_draw_rect.c:408:23
	ldrb	r0, [r0, #26]
	lsls	r0, r0, #31
	cbz	r0, .LBB7_24
	b	.LBB7_23
.LBB7_23:
	.loc	9 408 68                        @ lvgl/src/lv_draw/lv_draw_rect.c:408:68
	ldr	r0, [sp, #220]
	.loc	9 408 73                        @ lvgl/src/lv_draw/lv_draw_rect.c:408:73
	ldrsh.w	r0, [r0, #24]
	.loc	9 408 23                        @ lvgl/src/lv_draw/lv_draw_rect.c:408:23
	str	r0, [sp, #36]                   @ 4-byte Spill
	b	.LBB7_25
.LBB7_24:
	.loc	9 408 91                        @ lvgl/src/lv_draw/lv_draw_rect.c:408:91
	ldr	r0, [sp, #220]
	.loc	9 408 96                        @ lvgl/src/lv_draw/lv_draw_rect.c:408:96
	ldrsh.w	r0, [r0, #24]
	.loc	9 408 111                       @ lvgl/src/lv_draw/lv_draw_rect.c:408:111
	ldr	r1, [sp, #208]
	.loc	9 408 109                       @ lvgl/src/lv_draw/lv_draw_rect.c:408:109
	add	r0, r1
	.loc	9 408 88                        @ lvgl/src/lv_draw/lv_draw_rect.c:408:88
	rsbs	r0, r0, #0
	.loc	9 408 23                        @ lvgl/src/lv_draw/lv_draw_rect.c:408:23
	str	r0, [sp, #36]                   @ 4-byte Spill
	b	.LBB7_25
.LBB7_25:
	ldr	r1, [sp, #36]                   @ 4-byte Reload
	.loc	9 408 19                        @ lvgl/src/lv_draw/lv_draw_rect.c:408:19
	ldrh.w	r0, [sp, #202]
	subs	r0, r0, r1
	strh.w	r0, [sp, #202]
.Ltmp441:
	.loc	9 410 8 is_stmt 1               @ lvgl/src/lv_draw/lv_draw_rect.c:410:8
	ldr	r0, [sp, #220]
	.loc	9 410 13 is_stmt 0              @ lvgl/src/lv_draw/lv_draw_rect.c:410:13
	ldrsh.w	r0, [r0, #26]
.Ltmp442:
	.loc	9 410 8                         @ lvgl/src/lv_draw/lv_draw_rect.c:410:8
	cmp	r0, #15
	bne	.LBB7_27
	b	.LBB7_26
.LBB7_26:
.Ltmp443:
	.loc	9 411 39 is_stmt 1              @ lvgl/src/lv_draw/lv_draw_rect.c:411:39
	ldr	r1, [sp, #228]
	.loc	9 411 47 is_stmt 0              @ lvgl/src/lv_draw/lv_draw_rect.c:411:47
	ldr	r2, [sp, #224]
	.loc	9 411 53                        @ lvgl/src/lv_draw/lv_draw_rect.c:411:53
	ldr	r0, [sp, #220]
	.loc	9 411 58                        @ lvgl/src/lv_draw/lv_draw_rect.c:411:58
	ldrsh.w	r3, [r0]
	.loc	9 411 97                        @ lvgl/src/lv_draw/lv_draw_rect.c:411:97
	ldrb.w	lr, [r0, #28]
	.loc	9 412 31 is_stmt 1              @ lvgl/src/lv_draw/lv_draw_rect.c:412:31
	ldrb	r4, [r0, #29]
	.loc	9 411 9                         @ lvgl/src/lv_draw/lv_draw_rect.c:411:9
	ldr	r0, [r0, #20]
	mov	r12, sp
	str.w	r4, [r12, #12]
	str.w	lr, [r12, #8]
	str.w	r0, [r12, #4]
	movs	r0, #0
	str.w	r0, [r12]
	add	r0, sp, #196
	bl	draw_full_border
	.loc	9 413 5                         @ lvgl/src/lv_draw/lv_draw_rect.c:413:5
	b	.LBB7_62
.Ltmp444:
.LBB7_27:
	.loc	9 415 24                        @ lvgl/src/lv_draw/lv_draw_rect.c:415:24
	ldr	r0, [sp, #220]
	.loc	9 415 29 is_stmt 0              @ lvgl/src/lv_draw/lv_draw_rect.c:415:29
	ldrb	r0, [r0, #28]
	.loc	9 415 18                        @ lvgl/src/lv_draw/lv_draw_rect.c:415:18
	strb.w	r0, [sp, #195]
.Ltmp445:
	.loc	9 416 12 is_stmt 1              @ lvgl/src/lv_draw/lv_draw_rect.c:416:12
	ldrb.w	r0, [sp, #195]
.Ltmp446:
	.loc	9 416 12 is_stmt 0              @ lvgl/src/lv_draw/lv_draw_rect.c:416:12
	cmp	r0, #254
	blt	.LBB7_29
	b	.LBB7_28
.LBB7_28:
	.loc	9 0 12                          @ lvgl/src/lv_draw/lv_draw_rect.c:0:12
	movs	r0, #255
.Ltmp447:
	.loc	9 416 34                        @ lvgl/src/lv_draw/lv_draw_rect.c:416:34
	strb.w	r0, [sp, #195]
	.loc	9 416 30                        @ lvgl/src/lv_draw/lv_draw_rect.c:416:30
	b	.LBB7_29
.Ltmp448:
.LBB7_29:
	.loc	9 418 31 is_stmt 1              @ lvgl/src/lv_draw/lv_draw_rect.c:418:31
	bl	_lv_refr_get_disp_refreshing
	.loc	9 418 21 is_stmt 0              @ lvgl/src/lv_draw/lv_draw_rect.c:418:21
	str	r0, [sp, #188]
	.loc	9 419 47 is_stmt 1              @ lvgl/src/lv_draw/lv_draw_rect.c:419:47
	ldr	r0, [sp, #188]
	.loc	9 419 31 is_stmt 0              @ lvgl/src/lv_draw/lv_draw_rect.c:419:31
	bl	lv_disp_get_buf
	.loc	9 419 25                        @ lvgl/src/lv_draw/lv_draw_rect.c:419:25
	str	r0, [sp, #184]
	.loc	9 425 52 is_stmt 1              @ lvgl/src/lv_draw/lv_draw_rect.c:425:52
	ldr	r1, [sp, #228]
	.loc	9 425 60 is_stmt 0              @ lvgl/src/lv_draw/lv_draw_rect.c:425:60
	ldr	r2, [sp, #224]
	add	r0, sp, #176
	.loc	9 425 21                        @ lvgl/src/lv_draw/lv_draw_rect.c:425:21
	bl	_lv_area_intersect
	.loc	9 425 19                        @ lvgl/src/lv_draw/lv_draw_rect.c:425:19
	strb.w	r0, [sp, #175]
.Ltmp449:
	.loc	9 426 12 is_stmt 1              @ lvgl/src/lv_draw/lv_draw_rect.c:426:12
	ldrb.w	r0, [sp, #175]
.Ltmp450:
	.loc	9 426 12 is_stmt 0              @ lvgl/src/lv_draw/lv_draw_rect.c:426:12
	lsls	r0, r0, #31
	cbnz	r0, .LBB7_31
	b	.LBB7_30
.LBB7_30:
.Ltmp451:
	.loc	9 426 32                        @ lvgl/src/lv_draw/lv_draw_rect.c:426:32
	b	.LBB7_62
.Ltmp452:
.LBB7_31:
	.loc	9 428 40 is_stmt 1              @ lvgl/src/lv_draw/lv_draw_rect.c:428:40
	ldr	r0, [sp, #184]
	.loc	9 428 45 is_stmt 0              @ lvgl/src/lv_draw/lv_draw_rect.c:428:45
	adds	r0, #16
	.loc	9 428 27                        @ lvgl/src/lv_draw/lv_draw_rect.c:428:27
	str	r0, [sp, #168]
	.loc	9 432 25 is_stmt 1              @ lvgl/src/lv_draw/lv_draw_rect.c:432:25
	ldr	r0, [sp, #168]
	ldrh	r1, [r0]
	.loc	9 432 22 is_stmt 0              @ lvgl/src/lv_draw/lv_draw_rect.c:432:22
	ldrh.w	r0, [sp, #176]
	subs	r0, r0, r1
	strh.w	r0, [sp, #176]
	.loc	9 433 25 is_stmt 1              @ lvgl/src/lv_draw/lv_draw_rect.c:433:25
	ldr	r0, [sp, #168]
	ldrh	r1, [r0, #2]
	.loc	9 433 22 is_stmt 0              @ lvgl/src/lv_draw/lv_draw_rect.c:433:22
	ldrh.w	r0, [sp, #178]
	subs	r0, r0, r1
	strh.w	r0, [sp, #178]
	.loc	9 434 25 is_stmt 1              @ lvgl/src/lv_draw/lv_draw_rect.c:434:25
	ldr	r0, [sp, #168]
	ldrh	r1, [r0]
	.loc	9 434 22 is_stmt 0              @ lvgl/src/lv_draw/lv_draw_rect.c:434:22
	ldrh.w	r0, [sp, #180]
	subs	r0, r0, r1
	strh.w	r0, [sp, #180]
	.loc	9 435 25 is_stmt 1              @ lvgl/src/lv_draw/lv_draw_rect.c:435:25
	ldr	r0, [sp, #168]
	ldrh	r1, [r0, #2]
	.loc	9 435 22 is_stmt 0              @ lvgl/src/lv_draw/lv_draw_rect.c:435:22
	ldrh.w	r0, [sp, #182]
	subs	r0, r0, r1
	strh.w	r0, [sp, #182]
	add	r0, sp, #176
	.loc	9 437 31 is_stmt 1              @ lvgl/src/lv_draw/lv_draw_rect.c:437:31
	bl	lv_area_get_width
	.loc	9 437 17 is_stmt 0              @ lvgl/src/lv_draw/lv_draw_rect.c:437:17
	str	r0, [sp, #164]
	.loc	9 440 47 is_stmt 1              @ lvgl/src/lv_draw/lv_draw_rect.c:440:47
	ldr	r0, [sp, #164]
	.loc	9 440 31 is_stmt 0              @ lvgl/src/lv_draw/lv_draw_rect.c:440:31
	bl	_lv_mem_buf_get
	.loc	9 440 20                        @ lvgl/src/lv_draw/lv_draw_rect.c:440:20
	str	r0, [sp, #160]
	movw	r0, #65535
	.loc	9 443 17 is_stmt 1              @ lvgl/src/lv_draw/lv_draw_rect.c:443:17
	strh.w	r0, [sp, #158]
.Ltmp453:
	.loc	9 445 12                        @ lvgl/src/lv_draw/lv_draw_rect.c:445:12
	ldr	r0, [sp, #208]
.Ltmp454:
	.loc	9 445 12 is_stmt 0              @ lvgl/src/lv_draw/lv_draw_rect.c:445:12
	cmp	r0, #1
	blt	.LBB7_33
	b	.LBB7_32
.LBB7_32:
.Ltmp455:
	.loc	9 446 56 is_stmt 1              @ lvgl/src/lv_draw/lv_draw_rect.c:446:56
	ldr	r1, [sp, #228]
	.loc	9 446 64 is_stmt 0              @ lvgl/src/lv_draw/lv_draw_rect.c:446:64
	ldrsh.w	r2, [sp, #208]
	add	r0, sp, #128
	str	r0, [sp, #28]                   @ 4-byte Spill
	movs	r3, #0
	.loc	9 446 13                        @ lvgl/src/lv_draw/lv_draw_rect.c:446:13
	str	r3, [sp, #32]                   @ 4-byte Spill
	bl	lv_draw_mask_radius_init
	ldr	r0, [sp, #28]                   @ 4-byte Reload
	ldr	r1, [sp, #32]                   @ 4-byte Reload
	.loc	9 447 28 is_stmt 1              @ lvgl/src/lv_draw/lv_draw_rect.c:447:28
	bl	lv_draw_mask_add
	.loc	9 447 26 is_stmt 0              @ lvgl/src/lv_draw/lv_draw_rect.c:447:26
	strh.w	r0, [sp, #158]
	.loc	9 448 9 is_stmt 1               @ lvgl/src/lv_draw/lv_draw_rect.c:448:9
	b	.LBB7_33
.Ltmp456:
.LBB7_33:
	.loc	9 451 23                        @ lvgl/src/lv_draw/lv_draw_rect.c:451:23
	ldr	r0, [sp, #208]
	.loc	9 451 30 is_stmt 0              @ lvgl/src/lv_draw/lv_draw_rect.c:451:30
	ldr	r1, [sp, #220]
	.loc	9 451 35                        @ lvgl/src/lv_draw/lv_draw_rect.c:451:35
	ldrsh.w	r1, [r1, #24]
	.loc	9 451 28                        @ lvgl/src/lv_draw/lv_draw_rect.c:451:28
	subs	r0, r0, r1
	.loc	9 451 17                        @ lvgl/src/lv_draw/lv_draw_rect.c:451:17
	str	r0, [sp, #124]
.Ltmp457:
	.loc	9 452 12 is_stmt 1              @ lvgl/src/lv_draw/lv_draw_rect.c:452:12
	ldr	r0, [sp, #124]
.Ltmp458:
	.loc	9 452 12 is_stmt 0              @ lvgl/src/lv_draw/lv_draw_rect.c:452:12
	cmp.w	r0, #-1
	bgt	.LBB7_35
	b	.LBB7_34
.LBB7_34:
	.loc	9 0 12                          @ lvgl/src/lv_draw/lv_draw_rect.c:0:12
	movs	r0, #0
.Ltmp459:
	.loc	9 452 25                        @ lvgl/src/lv_draw/lv_draw_rect.c:452:25
	str	r0, [sp, #124]
	.loc	9 452 21                        @ lvgl/src/lv_draw/lv_draw_rect.c:452:21
	b	.LBB7_35
.Ltmp460:
.LBB7_35:
	.loc	9 454 64 is_stmt 1              @ lvgl/src/lv_draw/lv_draw_rect.c:454:64
	ldr	r0, [sp, #208]
	.loc	9 454 71 is_stmt 0              @ lvgl/src/lv_draw/lv_draw_rect.c:454:71
	ldr	r1, [sp, #220]
	ldrh	r1, [r1, #24]
	.loc	9 454 69                        @ lvgl/src/lv_draw/lv_draw_rect.c:454:69
	subs	r0, r0, r1
	.loc	9 454 9                         @ lvgl/src/lv_draw/lv_draw_rect.c:454:9
	sxth	r2, r0
	add	r0, sp, #96
	str	r0, [sp, #24]                   @ 4-byte Spill
	add	r1, sp, #196
	movs	r3, #1
	bl	lv_draw_mask_radius_init
	ldr	r0, [sp, #24]                   @ 4-byte Reload
	movs	r1, #0
	.loc	9 455 31 is_stmt 1              @ lvgl/src/lv_draw/lv_draw_rect.c:455:31
	bl	lv_draw_mask_add
	.loc	9 455 17 is_stmt 0              @ lvgl/src/lv_draw/lv_draw_rect.c:455:17
	strh.w	r0, [sp, #94]
	.loc	9 457 31 is_stmt 1              @ lvgl/src/lv_draw/lv_draw_rect.c:457:31
	ldr	r0, [sp, #208]
	ldr	r1, [sp, #220]
	ldrsh.w	r1, [r1, #24]
	subs	r1, #1
	cmp	r0, r1
	ble	.LBB7_37
	b	.LBB7_36
.LBB7_36:
	ldr	r0, [sp, #208]
	str	r0, [sp, #20]                   @ 4-byte Spill
	b	.LBB7_38
.LBB7_37:
	ldr	r0, [sp, #220]
	ldrsh.w	r0, [r0, #24]
	subs	r0, #1
	str	r0, [sp, #20]                   @ 4-byte Spill
	b	.LBB7_38
.LBB7_38:
	ldr	r0, [sp, #20]                   @ 4-byte Reload
	.loc	9 457 17 is_stmt 0              @ lvgl/src/lv_draw/lv_draw_rect.c:457:17
	str	r0, [sp, #88]
	.loc	9 463 28 is_stmt 1              @ lvgl/src/lv_draw/lv_draw_rect.c:463:28
	ldr	r0, [sp, #220]
	.loc	9 463 33 is_stmt 0              @ lvgl/src/lv_draw/lv_draw_rect.c:463:33
	ldr	r0, [r0, #20]
	str	r0, [sp, #68]
	.loc	9 464 38 is_stmt 1              @ lvgl/src/lv_draw/lv_draw_rect.c:464:38
	ldr	r0, [sp, #220]
	.loc	9 464 43 is_stmt 0              @ lvgl/src/lv_draw/lv_draw_rect.c:464:43
	ldrb	r0, [r0, #29]
	.loc	9 464 25                        @ lvgl/src/lv_draw/lv_draw_rect.c:464:25
	strb.w	r0, [sp, #67]
	.loc	9 466 24 is_stmt 1              @ lvgl/src/lv_draw/lv_draw_rect.c:466:24
	ldr	r0, [sp, #228]
	.loc	9 466 32 is_stmt 0              @ lvgl/src/lv_draw/lv_draw_rect.c:466:32
	ldrh	r0, [r0]
	.loc	9 466 22                        @ lvgl/src/lv_draw/lv_draw_rect.c:466:22
	strh.w	r0, [sp, #72]
	.loc	9 467 24 is_stmt 1              @ lvgl/src/lv_draw/lv_draw_rect.c:467:24
	ldr	r0, [sp, #228]
	.loc	9 467 32 is_stmt 0              @ lvgl/src/lv_draw/lv_draw_rect.c:467:32
	ldrh	r0, [r0, #4]
	.loc	9 467 22                        @ lvgl/src/lv_draw/lv_draw_rect.c:467:22
	strh.w	r0, [sp, #76]
	.loc	9 468 24 is_stmt 1              @ lvgl/src/lv_draw/lv_draw_rect.c:468:24
	ldr	r0, [sp, #168]
	ldrh	r0, [r0, #2]
	.loc	9 468 40 is_stmt 0              @ lvgl/src/lv_draw/lv_draw_rect.c:468:40
	ldrh.w	r1, [sp, #178]
	.loc	9 468 38                        @ lvgl/src/lv_draw/lv_draw_rect.c:468:38
	add	r0, r1
	.loc	9 468 22                        @ lvgl/src/lv_draw/lv_draw_rect.c:468:22
	strh.w	r0, [sp, #74]
	.loc	9 469 34 is_stmt 1              @ lvgl/src/lv_draw/lv_draw_rect.c:469:34
	ldrh.w	r0, [sp, #74]
	.loc	9 469 22 is_stmt 0              @ lvgl/src/lv_draw/lv_draw_rect.c:469:22
	strh.w	r0, [sp, #78]
	movs	r0, #0
	.loc	9 471 18 is_stmt 1              @ lvgl/src/lv_draw/lv_draw_rect.c:471:18
	str	r0, [sp, #60]
.Ltmp461:
	.loc	9 472 12                        @ lvgl/src/lv_draw/lv_draw_rect.c:472:12
	ldr	r0, [sp, #220]
	.loc	9 472 17 is_stmt 0              @ lvgl/src/lv_draw/lv_draw_rect.c:472:17
	ldrsh.w	r0, [r0, #26]
.Ltmp462:
	.loc	9 472 12                        @ lvgl/src/lv_draw/lv_draw_rect.c:472:12
	cmp	r0, #4
	bne	.LBB7_40
	b	.LBB7_39
.LBB7_39:
.Ltmp463:
	.loc	9 472 68                        @ lvgl/src/lv_draw/lv_draw_rect.c:472:68
	ldr	r0, [sp, #228]
	ldrh	r0, [r0]
	.loc	9 472 81                        @ lvgl/src/lv_draw/lv_draw_rect.c:472:81
	ldr	r1, [sp, #88]
	.loc	9 472 79                        @ lvgl/src/lv_draw/lv_draw_rect.c:472:79
	add	r0, r1
	.loc	9 472 66                        @ lvgl/src/lv_draw/lv_draw_rect.c:472:66
	strh.w	r0, [sp, #76]
	.loc	9 472 53                        @ lvgl/src/lv_draw/lv_draw_rect.c:472:53
	b	.LBB7_43
.LBB7_40:
.Ltmp464:
	.loc	9 473 17 is_stmt 1              @ lvgl/src/lv_draw/lv_draw_rect.c:473:17
	ldr	r0, [sp, #220]
	.loc	9 473 22 is_stmt 0              @ lvgl/src/lv_draw/lv_draw_rect.c:473:22
	ldrsh.w	r0, [r0, #26]
.Ltmp465:
	.loc	9 473 17                        @ lvgl/src/lv_draw/lv_draw_rect.c:473:17
	cmp	r0, #8
	bne	.LBB7_42
	b	.LBB7_41
.LBB7_41:
.Ltmp466:
	.loc	9 474 28 is_stmt 1              @ lvgl/src/lv_draw/lv_draw_rect.c:474:28
	ldr	r0, [sp, #228]
	ldrh	r0, [r0, #4]
	.loc	9 474 41 is_stmt 0              @ lvgl/src/lv_draw/lv_draw_rect.c:474:41
	ldr	r1, [sp, #88]
	.loc	9 474 39                        @ lvgl/src/lv_draw/lv_draw_rect.c:474:39
	subs	r0, r0, r1
	.loc	9 474 26                        @ lvgl/src/lv_draw/lv_draw_rect.c:474:26
	strh.w	r0, [sp, #72]
	.loc	9 475 33 is_stmt 1              @ lvgl/src/lv_draw/lv_draw_rect.c:475:33
	ldrsh.w	r0, [sp, #72]
	.loc	9 475 38 is_stmt 0              @ lvgl/src/lv_draw/lv_draw_rect.c:475:38
	ldr	r1, [sp, #228]
	.loc	9 475 46                        @ lvgl/src/lv_draw/lv_draw_rect.c:475:46
	ldrsh.w	r1, [r1]
	.loc	9 475 36                        @ lvgl/src/lv_draw/lv_draw_rect.c:475:36
	subs	r0, r0, r1
	.loc	9 475 21                        @ lvgl/src/lv_draw/lv_draw_rect.c:475:21
	str	r0, [sp, #60]
	.loc	9 476 9 is_stmt 1               @ lvgl/src/lv_draw/lv_draw_rect.c:476:9
	b	.LBB7_42
.Ltmp467:
.LBB7_42:
	.loc	9 0 9 is_stmt 0                 @ lvgl/src/lv_draw/lv_draw_rect.c:0:9
	b	.LBB7_43
.LBB7_43:
	movs	r0, #0
	.loc	9 478 23 is_stmt 1              @ lvgl/src/lv_draw/lv_draw_rect.c:478:23
	strb.w	r0, [sp, #59]
	.loc	9 479 23                        @ lvgl/src/lv_draw/lv_draw_rect.c:479:23
	strb.w	r0, [sp, #58]
.Ltmp468:
	.loc	9 480 12                        @ lvgl/src/lv_draw/lv_draw_rect.c:480:12
	ldr	r0, [sp, #220]
	.loc	9 480 17 is_stmt 0              @ lvgl/src/lv_draw/lv_draw_rect.c:480:17
	ldrsh.w	r0, [r0, #26]
.Ltmp469:
	.loc	9 480 12                        @ lvgl/src/lv_draw/lv_draw_rect.c:480:12
	cmp	r0, #2
	bne	.LBB7_45
	b	.LBB7_44
.LBB7_44:
	.loc	9 0 12                          @ lvgl/src/lv_draw/lv_draw_rect.c:0:12
	movs	r0, #1
.Ltmp470:
	.loc	9 480 61                        @ lvgl/src/lv_draw/lv_draw_rect.c:480:61
	strb.w	r0, [sp, #59]
	.loc	9 480 52                        @ lvgl/src/lv_draw/lv_draw_rect.c:480:52
	b	.LBB7_45
.Ltmp471:
.LBB7_45:
	.loc	9 481 12 is_stmt 1              @ lvgl/src/lv_draw/lv_draw_rect.c:481:12
	ldr	r0, [sp, #220]
	.loc	9 481 17 is_stmt 0              @ lvgl/src/lv_draw/lv_draw_rect.c:481:17
	ldrsh.w	r0, [r0, #26]
.Ltmp472:
	.loc	9 481 12                        @ lvgl/src/lv_draw/lv_draw_rect.c:481:12
	cmp	r0, #1
	bne	.LBB7_47
	b	.LBB7_46
.LBB7_46:
	.loc	9 0 12                          @ lvgl/src/lv_draw/lv_draw_rect.c:0:12
	movs	r0, #1
.Ltmp473:
	.loc	9 481 67                        @ lvgl/src/lv_draw/lv_draw_rect.c:481:67
	strb.w	r0, [sp, #58]
	.loc	9 481 55                        @ lvgl/src/lv_draw/lv_draw_rect.c:481:55
	b	.LBB7_47
.Ltmp474:
.LBB7_47:
	.loc	9 482 12 is_stmt 1              @ lvgl/src/lv_draw/lv_draw_rect.c:482:12
	ldr	r0, [sp, #220]
	.loc	9 482 17 is_stmt 0              @ lvgl/src/lv_draw/lv_draw_rect.c:482:17
	ldrsh.w	r0, [r0, #26]
.Ltmp475:
	.loc	9 482 12                        @ lvgl/src/lv_draw/lv_draw_rect.c:482:12
	cmp	r0, #3
	bne	.LBB7_49
	b	.LBB7_48
.LBB7_48:
	.loc	9 0 12                          @ lvgl/src/lv_draw/lv_draw_rect.c:0:12
	movs	r0, #1
.Ltmp476:
	.loc	9 483 22 is_stmt 1              @ lvgl/src/lv_draw/lv_draw_rect.c:483:22
	strb.w	r0, [sp, #59]
	.loc	9 484 25                        @ lvgl/src/lv_draw/lv_draw_rect.c:484:25
	strb.w	r0, [sp, #58]
	.loc	9 485 9                         @ lvgl/src/lv_draw/lv_draw_rect.c:485:9
	b	.LBB7_49
.Ltmp477:
.LBB7_49:
	.loc	9 487 33                        @ lvgl/src/lv_draw/lv_draw_rect.c:487:33
	ldrb.w	r1, [sp, #59]
	movs	r0, #0
	.loc	9 487 42 is_stmt 0              @ lvgl/src/lv_draw/lv_draw_rect.c:487:42
	lsls	r1, r1, #31
	str	r0, [sp, #16]                   @ 4-byte Spill
	cbnz	r1, .LBB7_51
	b	.LBB7_50
.LBB7_50:
	.loc	9 487 46                        @ lvgl/src/lv_draw/lv_draw_rect.c:487:46
	ldrb.w	r0, [sp, #58]
	.loc	9 487 45                        @ lvgl/src/lv_draw/lv_draw_rect.c:487:45
	eor	r0, r0, #1
	str	r0, [sp, #16]                   @ 4-byte Spill
	b	.LBB7_51
.LBB7_51:
	.loc	9 0 0                           @ lvgl/src/lv_draw/lv_draw_rect.c:0:0
	ldr	r0, [sp, #16]                   @ 4-byte Reload
	.loc	9 487 32                        @ lvgl/src/lv_draw/lv_draw_rect.c:487:32
	and	r0, r0, #1
	.loc	9 487 23                        @ lvgl/src/lv_draw/lv_draw_rect.c:487:23
	strb.w	r0, [sp, #57]
.Ltmp478:
	.loc	9 489 27 is_stmt 1              @ lvgl/src/lv_draw/lv_draw_rect.c:489:27
	ldrsh.w	r0, [sp, #178]
	.loc	9 489 15 is_stmt 0              @ lvgl/src/lv_draw/lv_draw_rect.c:489:15
	str	r0, [sp, #84]
	.loc	9 489 13                        @ lvgl/src/lv_draw/lv_draw_rect.c:489:13
	b	.LBB7_52
.LBB7_52:                               @ =>This Inner Loop Header: Depth=1
.Ltmp479:
	.loc	9 489 31                        @ lvgl/src/lv_draw/lv_draw_rect.c:489:31
	ldr	r0, [sp, #84]
	.loc	9 489 46                        @ lvgl/src/lv_draw/lv_draw_rect.c:489:46
	ldrsh.w	r1, [sp, #182]
.Ltmp480:
	.loc	9 489 9                         @ lvgl/src/lv_draw/lv_draw_rect.c:489:9
	cmp	r0, r1
	bgt	.LBB7_61
	b	.LBB7_53
.LBB7_53:                               @   in Loop: Header=BB7_52 Depth=1
.Ltmp481:
	.loc	9 490 16 is_stmt 1              @ lvgl/src/lv_draw/lv_draw_rect.c:490:16
	ldrb.w	r0, [sp, #57]
	.loc	9 490 23 is_stmt 0              @ lvgl/src/lv_draw/lv_draw_rect.c:490:23
	lsls	r0, r0, #31
	cbnz	r0, .LBB7_58
	b	.LBB7_54
.LBB7_54:                               @   in Loop: Header=BB7_52 Depth=1
	.loc	9 491 17 is_stmt 1              @ lvgl/src/lv_draw/lv_draw_rect.c:491:17
	ldrb.w	r0, [sp, #59]
	.loc	9 491 26 is_stmt 0              @ lvgl/src/lv_draw/lv_draw_rect.c:491:26
	lsls	r0, r0, #31
	cbz	r0, .LBB7_56
	b	.LBB7_55
.LBB7_55:                               @   in Loop: Header=BB7_52 Depth=1
	.loc	9 491 39                        @ lvgl/src/lv_draw/lv_draw_rect.c:491:39
	ldrsh.w	r0, [sp, #74]
	.loc	9 491 45                        @ lvgl/src/lv_draw/lv_draw_rect.c:491:45
	ldr	r1, [sp, #228]
	.loc	9 491 53                        @ lvgl/src/lv_draw/lv_draw_rect.c:491:53
	ldrsh.w	r1, [r1, #2]
	.loc	9 491 58                        @ lvgl/src/lv_draw/lv_draw_rect.c:491:58
	ldr	r2, [sp, #88]
	.loc	9 491 56                        @ lvgl/src/lv_draw/lv_draw_rect.c:491:56
	add	r1, r2
	.loc	9 491 71                        @ lvgl/src/lv_draw/lv_draw_rect.c:491:71
	cmp	r0, r1
	ble	.LBB7_58
	b	.LBB7_56
.LBB7_56:                               @   in Loop: Header=BB7_52 Depth=1
	.loc	9 492 17 is_stmt 1              @ lvgl/src/lv_draw/lv_draw_rect.c:492:17
	ldrb.w	r0, [sp, #58]
	.loc	9 492 29 is_stmt 0              @ lvgl/src/lv_draw/lv_draw_rect.c:492:29
	lsls	r0, r0, #31
	cbz	r0, .LBB7_59
	b	.LBB7_57
.LBB7_57:                               @   in Loop: Header=BB7_52 Depth=1
	.loc	9 492 42                        @ lvgl/src/lv_draw/lv_draw_rect.c:492:42
	ldrsh.w	r0, [sp, #74]
	.loc	9 492 48                        @ lvgl/src/lv_draw/lv_draw_rect.c:492:48
	ldr	r1, [sp, #228]
	.loc	9 492 56                        @ lvgl/src/lv_draw/lv_draw_rect.c:492:56
	ldrsh.w	r1, [r1, #6]
	.loc	9 492 61                        @ lvgl/src/lv_draw/lv_draw_rect.c:492:61
	ldr	r2, [sp, #88]
	.loc	9 492 59                        @ lvgl/src/lv_draw/lv_draw_rect.c:492:59
	subs	r1, r1, r2
.Ltmp482:
	.loc	9 490 16 is_stmt 1              @ lvgl/src/lv_draw/lv_draw_rect.c:490:16
	cmp	r0, r1
	blt	.LBB7_59
	b	.LBB7_58
.LBB7_58:                               @   in Loop: Header=BB7_52 Depth=1
.Ltmp483:
	.loc	9 493 31                        @ lvgl/src/lv_draw/lv_draw_rect.c:493:31
	ldr	r0, [sp, #160]
	.loc	9 493 41 is_stmt 0              @ lvgl/src/lv_draw/lv_draw_rect.c:493:41
	ldr	r1, [sp, #164]
	.loc	9 493 17                        @ lvgl/src/lv_draw/lv_draw_rect.c:493:17
	bl	_lv_memset_ff
	.loc	9 494 47 is_stmt 1              @ lvgl/src/lv_draw/lv_draw_rect.c:494:47
	ldr	r0, [sp, #160]
	.loc	9 494 57 is_stmt 0              @ lvgl/src/lv_draw/lv_draw_rect.c:494:57
	ldr	r2, [sp, #184]
	ldrh	r1, [r2, #16]
	.loc	9 494 72                        @ lvgl/src/lv_draw/lv_draw_rect.c:494:72
	ldrh.w	r3, [sp, #176]
	.loc	9 494 70                        @ lvgl/src/lv_draw/lv_draw_rect.c:494:70
	add	r1, r3
	.loc	9 494 86                        @ lvgl/src/lv_draw/lv_draw_rect.c:494:86
	ldrh	r2, [r2, #18]
	.loc	9 494 101                       @ lvgl/src/lv_draw/lv_draw_rect.c:494:101
	ldr	r3, [sp, #84]
	.loc	9 494 99                        @ lvgl/src/lv_draw/lv_draw_rect.c:494:99
	add	r2, r3
	.loc	9 494 104                       @ lvgl/src/lv_draw/lv_draw_rect.c:494:104
	ldrsh.w	r3, [sp, #164]
	.loc	9 494 28                        @ lvgl/src/lv_draw/lv_draw_rect.c:494:28
	sxth	r1, r1
	sxth	r2, r2
	bl	lv_draw_mask_apply
	.loc	9 494 26                        @ lvgl/src/lv_draw/lv_draw_rect.c:494:26
	strb.w	r0, [sp, #83]
	.loc	9 495 32 is_stmt 1              @ lvgl/src/lv_draw/lv_draw_rect.c:495:32
	ldr	r0, [sp, #224]
	.loc	9 495 57 is_stmt 0              @ lvgl/src/lv_draw/lv_draw_rect.c:495:57
	ldr	r1, [sp, #160]
	.loc	9 495 68                        @ lvgl/src/lv_draw/lv_draw_rect.c:495:68
	ldr	r2, [sp, #60]
	.loc	9 495 66                        @ lvgl/src/lv_draw/lv_draw_rect.c:495:66
	adds	r3, r1, r2
	.loc	9 495 77                        @ lvgl/src/lv_draw/lv_draw_rect.c:495:77
	ldrb.w	r1, [sp, #83]
	.loc	9 495 87                        @ lvgl/src/lv_draw/lv_draw_rect.c:495:87
	ldrb.w	lr, [sp, #195]
	.loc	9 495 92                        @ lvgl/src/lv_draw/lv_draw_rect.c:495:92
	ldrb.w	r4, [sp, #67]
	.loc	9 495 17                        @ lvgl/src/lv_draw/lv_draw_rect.c:495:17
	ldr	r2, [sp, #68]
	mov	r12, sp
	str.w	r4, [r12, #8]
	str.w	lr, [r12, #4]
	str.w	r1, [r12]
	add	r1, sp, #72
	bl	_lv_blend_fill
	.loc	9 496 13 is_stmt 1              @ lvgl/src/lv_draw/lv_draw_rect.c:496:13
	b	.LBB7_59
.Ltmp484:
.LBB7_59:                               @   in Loop: Header=BB7_52 Depth=1
	.loc	9 497 25                        @ lvgl/src/lv_draw/lv_draw_rect.c:497:25
	ldrh.w	r0, [sp, #74]
	adds	r0, #1
	strh.w	r0, [sp, #74]
	.loc	9 498 25                        @ lvgl/src/lv_draw/lv_draw_rect.c:498:25
	ldrh.w	r0, [sp, #78]
	adds	r0, #1
	strh.w	r0, [sp, #78]
	.loc	9 500 9                         @ lvgl/src/lv_draw/lv_draw_rect.c:500:9
	b	.LBB7_60
.Ltmp485:
.LBB7_60:                               @   in Loop: Header=BB7_52 Depth=1
	.loc	9 489 51                        @ lvgl/src/lv_draw/lv_draw_rect.c:489:51
	ldr	r0, [sp, #84]
	adds	r0, #1
	str	r0, [sp, #84]
	.loc	9 489 9 is_stmt 0               @ lvgl/src/lv_draw/lv_draw_rect.c:489:9
	b	.LBB7_52
.Ltmp486:
.LBB7_61:
	.loc	9 501 32 is_stmt 1              @ lvgl/src/lv_draw/lv_draw_rect.c:501:32
	ldrsh.w	r0, [sp, #94]
	.loc	9 501 9 is_stmt 0               @ lvgl/src/lv_draw/lv_draw_rect.c:501:9
	bl	lv_draw_mask_remove_id
	.loc	9 502 32 is_stmt 1              @ lvgl/src/lv_draw/lv_draw_rect.c:502:32
	ldrsh.w	r0, [sp, #158]
	.loc	9 502 9 is_stmt 0               @ lvgl/src/lv_draw/lv_draw_rect.c:502:9
	bl	lv_draw_mask_remove_id
	.loc	9 503 29 is_stmt 1              @ lvgl/src/lv_draw/lv_draw_rect.c:503:29
	ldr	r0, [sp, #160]
	.loc	9 503 9 is_stmt 0               @ lvgl/src/lv_draw/lv_draw_rect.c:503:9
	bl	_lv_mem_buf_release
	b	.LBB7_62
.Ltmp487:
.LBB7_62:
	.loc	9 505 1 is_stmt 1               @ lvgl/src/lv_draw/lv_draw_rect.c:505:1
	add	sp, #232
	pop	{r4, pc}
.Ltmp488:
.Lfunc_end7:
	.size	draw_border, .Lfunc_end7-draw_border
	.cfi_endproc
	.cantunwind
	.fnend
                                        @ -- End function
	.section	.text.draw_value_str,"ax",%progbits
	.p2align	3                               @ -- Begin function draw_value_str
	.type	draw_value_str,%function
	.code	16                              @ @draw_value_str
	.thumb_func
draw_value_str:
.Lfunc_begin8:
	.loc	9 1292 0                        @ lvgl/src/lv_draw/lv_draw_rect.c:1292:0
	.fnstart
	.cfi_startproc
@ %bb.0:
	.save	{r7, lr}
	push	{r7, lr}
	.cfi_def_cfa_offset 8
	.cfi_offset lr, -4
	.cfi_offset r7, -8
	.pad	#96
	sub	sp, #96
	.cfi_def_cfa_offset 104
	str	r0, [sp, #92]
	str	r1, [sp, #88]
	str	r2, [sp, #84]
.Ltmp489:
	.loc	9 1293 8 prologue_end           @ lvgl/src/lv_draw/lv_draw_rect.c:1293:8
	ldr	r0, [sp, #84]
	.loc	9 1293 13 is_stmt 0             @ lvgl/src/lv_draw/lv_draw_rect.c:1293:13
	ldr	r0, [r0, #76]
.Ltmp490:
	.loc	9 1293 8                        @ lvgl/src/lv_draw/lv_draw_rect.c:1293:8
	cbnz	r0, .LBB8_2
	b	.LBB8_1
.LBB8_1:
.Ltmp491:
	.loc	9 1293 32                       @ lvgl/src/lv_draw/lv_draw_rect.c:1293:32
	b	.LBB8_5
.Ltmp492:
.LBB8_2:
	.loc	9 1294 8 is_stmt 1              @ lvgl/src/lv_draw/lv_draw_rect.c:1294:8
	ldr	r0, [sp, #84]
	.loc	9 1294 13 is_stmt 0             @ lvgl/src/lv_draw/lv_draw_rect.c:1294:13
	ldrb.w	r0, [r0, #84]
.Ltmp493:
	.loc	9 1294 8                        @ lvgl/src/lv_draw/lv_draw_rect.c:1294:8
	cmp	r0, #2
	bgt	.LBB8_4
	b	.LBB8_3
.LBB8_3:
.Ltmp494:
	.loc	9 1294 38                       @ lvgl/src/lv_draw/lv_draw_rect.c:1294:38
	b	.LBB8_5
.Ltmp495:
.LBB8_4:
	.loc	9 1297 24 is_stmt 1             @ lvgl/src/lv_draw/lv_draw_rect.c:1297:24
	ldr	r0, [sp, #84]
