	.text
	.syntax unified
	.eabi_attribute	67, "2.09"	@ Tag_conformance
	.cpu	cortex-m7
	.eabi_attribute	6, 13	@ Tag_CPU_arch
	.eabi_attribute	7, 77	@ Tag_CPU_arch_profile
	.eabi_attribute	8, 0	@ Tag_ARM_ISA_use
	.eabi_attribute	9, 2	@ Tag_THUMB_ISA_use
	.fpu	fpv5-d16
	.eabi_attribute	36, 1	@ Tag_FP_HP_extension
	.eabi_attribute	34, 1	@ Tag_CPU_unaligned_access
	.eabi_attribute	17, 1	@ Tag_ABI_PCS_GOT_use
	.eabi_attribute	20, 2	@ Tag_ABI_FP_denormal
	.eabi_attribute	21, 0	@ Tag_ABI_FP_exceptions
	.eabi_attribute	23, 1	@ Tag_ABI_FP_number_model
	.eabi_attribute	24, 1	@ Tag_ABI_align_needed
	.eabi_attribute	25, 1	@ Tag_ABI_align_preserved
	.eabi_attribute	28, 1	@ Tag_ABI_VFP_args
	.eabi_attribute	38, 1	@ Tag_ABI_FP_16bit_format
	.eabi_attribute	18, 2	@ Tag_ABI_PCS_wchar_t
	.eabi_attribute	26, 1	@ Tag_ABI_enum_size
	.eabi_attribute	14, 0	@ Tag_ABI_PCS_R9_use
	.file	"lv_draw_line.c"
	.file	1 "D:\\Keil_v5\\ARM\\ARMCLANG\\Bin\\..\\include" "stdint.h"
	.file	2 "E:\\STM32\\Learning\\STM32H750_ART_PI_RGBLCD" "lvgl/src/lv_draw/lv_draw_line.c"
	.file	3 "E:\\STM32\\Learning\\STM32H750_ART_PI_RGBLCD" "lvgl/src/lv_draw/../lv_core/../lv_hal/../lv_misc/lv_color.h"
	.file	4 "E:\\STM32\\Learning\\STM32H750_ART_PI_RGBLCD" "lvgl/src/lv_draw/lv_draw_mask.h"
	.file	5 "E:\\STM32\\Learning\\STM32H750_ART_PI_RGBLCD" "lvgl/src/lv_draw/../lv_core/../lv_draw/lv_draw_blend.h"
	.file	6 "E:\\STM32\\Learning\\STM32H750_ART_PI_RGBLCD" "./lvgl/src/lv_conf.h"
	.section	.text.lv_draw_line_dsc_init,"ax",%progbits
	.hidden	lv_draw_line_dsc_init           @ -- Begin function lv_draw_line_dsc_init
	.globl	lv_draw_line_dsc_init
	.p2align	3
	.type	lv_draw_line_dsc_init,%function
	.code	16                              @ @lv_draw_line_dsc_init
	.thumb_func
lv_draw_line_dsc_init:
.Lfunc_begin0:
	.loc	2 50 0                          @ lvgl/src/lv_draw/lv_draw_line.c:50:0
	.fnstart
	.cfi_sections .debug_frame
	.cfi_startproc
@ %bb.0:
	.save	{r7, lr}
	push	{r7, lr}
	.cfi_def_cfa_offset 8
	.cfi_offset lr, -4
	.cfi_offset r7, -8
	.pad	#8
	sub	sp, #8
	.cfi_def_cfa_offset 16
	str	r0, [sp, #4]
.Ltmp0:
	.loc	2 51 19 prologue_end            @ lvgl/src/lv_draw/lv_draw_line.c:51:19
	ldr	r0, [sp, #4]
	movs	r1, #12
	.loc	2 51 5 is_stmt 0                @ lvgl/src/lv_draw/lv_draw_line.c:51:5
	bl	_lv_memset_00
	.loc	2 52 5 is_stmt 1                @ lvgl/src/lv_draw/lv_draw_line.c:52:5
	ldr	r1, [sp, #4]
	movs	r0, #1
	.loc	2 52 16 is_stmt 0               @ lvgl/src/lv_draw/lv_draw_line.c:52:16
	strh	r0, [r1, #4]
	.loc	2 53 5 is_stmt 1                @ lvgl/src/lv_draw/lv_draw_line.c:53:5
	ldr	r1, [sp, #4]
	movs	r0, #255
	.loc	2 53 14 is_stmt 0               @ lvgl/src/lv_draw/lv_draw_line.c:53:14
	strb	r0, [r1, #10]
	.loc	2 54 5 is_stmt 1                @ lvgl/src/lv_draw/lv_draw_line.c:54:5
	ldr	r1, [sp, #4]
	movs	r2, #0
	.loc	2 54 18 is_stmt 0               @ lvgl/src/lv_draw/lv_draw_line.c:54:18
	strb.w	r2, [sp]
	strb.w	r2, [sp, #1]
	strb.w	r2, [sp, #2]
	strb.w	r0, [sp, #3]
	ldr	r0, [sp]
	str	r0, [r1]
	.loc	2 55 1 is_stmt 1                @ lvgl/src/lv_draw/lv_draw_line.c:55:1
	add	sp, #8
	pop	{r7, pc}
.Ltmp1:
.Lfunc_end0:
	.size	lv_draw_line_dsc_init, .Lfunc_end0-lv_draw_line_dsc_init
	.cfi_endproc
	.cantunwind
	.fnend
                                        @ -- End function
	.section	.text.lv_draw_line,"ax",%progbits
	.hidden	lv_draw_line                    @ -- Begin function lv_draw_line
	.globl	lv_draw_line
	.p2align	3
	.type	lv_draw_line,%function
	.code	16                              @ @lv_draw_line
	.thumb_func
lv_draw_line:
.Lfunc_begin1:
	.loc	2 66 0                          @ lvgl/src/lv_draw/lv_draw_line.c:66:0
	.fnstart
	.cfi_startproc
@ %bb.0:
	.save	{r7, lr}
	push	{r7, lr}
	.cfi_def_cfa_offset 8
	.cfi_offset lr, -4
	.cfi_offset r7, -8
	.pad	#168
	sub	sp, #168
	.cfi_def_cfa_offset 176
	str	r0, [sp, #164]
	str	r1, [sp, #160]
	str	r2, [sp, #156]
	str	r3, [sp, #152]
.Ltmp2:
	.loc	2 67 8 prologue_end             @ lvgl/src/lv_draw/lv_draw_line.c:67:8
	ldr	r0, [sp, #152]
	.loc	2 67 13 is_stmt 0               @ lvgl/src/lv_draw/lv_draw_line.c:67:13
	ldrsh.w	r0, [r0, #4]
.Ltmp3:
	.loc	2 67 8                          @ lvgl/src/lv_draw/lv_draw_line.c:67:8
	cbnz	r0, .LBB1_2
	b	.LBB1_1
.LBB1_1:
.Ltmp4:
	.loc	2 67 25                         @ lvgl/src/lv_draw/lv_draw_line.c:67:25
	b	.LBB1_34
.Ltmp5:
.LBB1_2:
	.loc	2 68 8 is_stmt 1                @ lvgl/src/lv_draw/lv_draw_line.c:68:8
	ldr	r0, [sp, #152]
	.loc	2 68 13 is_stmt 0               @ lvgl/src/lv_draw/lv_draw_line.c:68:13
	ldrb	r0, [r0, #10]
.Ltmp6:
	.loc	2 68 8                          @ lvgl/src/lv_draw/lv_draw_line.c:68:8
	cmp	r0, #2
	bgt	.LBB1_4
	b	.LBB1_3
.LBB1_3:
.Ltmp7:
	.loc	2 68 32                         @ lvgl/src/lv_draw/lv_draw_line.c:68:32
	b	.LBB1_34
.Ltmp8:
.LBB1_4:
	.loc	2 70 8 is_stmt 1                @ lvgl/src/lv_draw/lv_draw_line.c:70:8
	ldr	r0, [sp, #164]
	.loc	2 70 16 is_stmt 0               @ lvgl/src/lv_draw/lv_draw_line.c:70:16
	ldrsh.w	r0, [r0]
	.loc	2 70 21                         @ lvgl/src/lv_draw/lv_draw_line.c:70:21
	ldr	r1, [sp, #160]
	.loc	2 70 29                         @ lvgl/src/lv_draw/lv_draw_line.c:70:29
	ldrsh.w	r1, [r1]
	.loc	2 70 31                         @ lvgl/src/lv_draw/lv_draw_line.c:70:31
	cmp	r0, r1
	bne	.LBB1_7
	b	.LBB1_5
.LBB1_5:
	.loc	2 70 34                         @ lvgl/src/lv_draw/lv_draw_line.c:70:34
	ldr	r0, [sp, #164]
	.loc	2 70 42                         @ lvgl/src/lv_draw/lv_draw_line.c:70:42
	ldrsh.w	r0, [r0, #2]
	.loc	2 70 47                         @ lvgl/src/lv_draw/lv_draw_line.c:70:47
	ldr	r1, [sp, #160]
	.loc	2 70 55                         @ lvgl/src/lv_draw/lv_draw_line.c:70:55
	ldrsh.w	r1, [r1, #2]
.Ltmp9:
	.loc	2 70 8                          @ lvgl/src/lv_draw/lv_draw_line.c:70:8
	cmp	r0, r1
	bne	.LBB1_7
	b	.LBB1_6
.LBB1_6:
.Ltmp10:
	.loc	2 70 58                         @ lvgl/src/lv_draw/lv_draw_line.c:70:58
	b	.LBB1_34
.Ltmp11:
.LBB1_7:
	.loc	2 73 20 is_stmt 1               @ lvgl/src/lv_draw/lv_draw_line.c:73:20
	ldr	r0, [sp, #164]
	ldrsh.w	r0, [r0]
	ldr	r1, [sp, #160]
	ldrsh.w	r1, [r1]
	cmp	r0, r1
	bge	.LBB1_9
	b	.LBB1_8
.LBB1_8:
	ldr	r0, [sp, #164]
	ldrsh.w	r0, [r0]
	str	r0, [sp, #16]                   @ 4-byte Spill
	b	.LBB1_10
.LBB1_9:
	ldr	r0, [sp, #160]
	ldrsh.w	r0, [r0]
	str	r0, [sp, #16]                   @ 4-byte Spill
	b	.LBB1_10
.LBB1_10:
	ldr	r0, [sp, #16]                   @ 4-byte Reload
	.loc	2 73 56 is_stmt 0               @ lvgl/src/lv_draw/lv_draw_line.c:73:56
	ldr	r1, [sp, #152]
	.loc	2 73 61                         @ lvgl/src/lv_draw/lv_draw_line.c:73:61
	ldrsh.w	r1, [r1, #4]
	.loc	2 73 67                         @ lvgl/src/lv_draw/lv_draw_line.c:73:67
	add.w	r1, r1, r1, lsr #31
	.loc	2 73 54                         @ lvgl/src/lv_draw/lv_draw_line.c:73:54
	sub.w	r0, r0, r1, lsr #1
	.loc	2 73 18                         @ lvgl/src/lv_draw/lv_draw_line.c:73:18
	strh.w	r0, [sp, #144]
	.loc	2 74 20 is_stmt 1               @ lvgl/src/lv_draw/lv_draw_line.c:74:20
	ldr	r0, [sp, #164]
	ldrsh.w	r0, [r0]
	ldr	r1, [sp, #160]
	ldrsh.w	r1, [r1]
	cmp	r0, r1
	ble	.LBB1_12
	b	.LBB1_11
.LBB1_11:
	ldr	r0, [sp, #164]
	ldrsh.w	r0, [r0]
	str	r0, [sp, #12]                   @ 4-byte Spill
	b	.LBB1_13
.LBB1_12:
	ldr	r0, [sp, #160]
	ldrsh.w	r0, [r0]
	str	r0, [sp, #12]                   @ 4-byte Spill
	b	.LBB1_13
.LBB1_13:
	ldr	r0, [sp, #12]                   @ 4-byte Reload
	.loc	2 74 56 is_stmt 0               @ lvgl/src/lv_draw/lv_draw_line.c:74:56
	ldr	r1, [sp, #152]
	.loc	2 74 61                         @ lvgl/src/lv_draw/lv_draw_line.c:74:61
	ldrsh.w	r1, [r1, #4]
	.loc	2 74 67                         @ lvgl/src/lv_draw/lv_draw_line.c:74:67
	add.w	r1, r1, r1, lsr #31
	.loc	2 74 54                         @ lvgl/src/lv_draw/lv_draw_line.c:74:54
	add.w	r0, r0, r1, lsr #1
	.loc	2 74 18                         @ lvgl/src/lv_draw/lv_draw_line.c:74:18
	strh.w	r0, [sp, #148]
	.loc	2 75 20 is_stmt 1               @ lvgl/src/lv_draw/lv_draw_line.c:75:20
	ldr	r0, [sp, #164]
	ldrsh.w	r0, [r0, #2]
	ldr	r1, [sp, #160]
	ldrsh.w	r1, [r1, #2]
	cmp	r0, r1
	bge	.LBB1_15
	b	.LBB1_14
.LBB1_14:
	ldr	r0, [sp, #164]
	ldrsh.w	r0, [r0, #2]
	str	r0, [sp, #8]                    @ 4-byte Spill
	b	.LBB1_16
.LBB1_15:
	ldr	r0, [sp, #160]
	ldrsh.w	r0, [r0, #2]
	str	r0, [sp, #8]                    @ 4-byte Spill
	b	.LBB1_16
.LBB1_16:
	ldr	r0, [sp, #8]                    @ 4-byte Reload
	.loc	2 75 56 is_stmt 0               @ lvgl/src/lv_draw/lv_draw_line.c:75:56
	ldr	r1, [sp, #152]
	.loc	2 75 61                         @ lvgl/src/lv_draw/lv_draw_line.c:75:61
	ldrsh.w	r1, [r1, #4]
	.loc	2 75 67                         @ lvgl/src/lv_draw/lv_draw_line.c:75:67
	add.w	r1, r1, r1, lsr #31
	.loc	2 75 54                         @ lvgl/src/lv_draw/lv_draw_line.c:75:54
	sub.w	r0, r0, r1, lsr #1
	.loc	2 75 18                         @ lvgl/src/lv_draw/lv_draw_line.c:75:18
	strh.w	r0, [sp, #146]
	.loc	2 76 20 is_stmt 1               @ lvgl/src/lv_draw/lv_draw_line.c:76:20
	ldr	r0, [sp, #164]
	ldrsh.w	r0, [r0, #2]
	ldr	r1, [sp, #160]
	ldrsh.w	r1, [r1, #2]
	cmp	r0, r1
	ble	.LBB1_18
	b	.LBB1_17
.LBB1_17:
	ldr	r0, [sp, #164]
	ldrsh.w	r0, [r0, #2]
	str	r0, [sp, #4]                    @ 4-byte Spill
	b	.LBB1_19
.LBB1_18:
	ldr	r0, [sp, #160]
	ldrsh.w	r0, [r0, #2]
	str	r0, [sp, #4]                    @ 4-byte Spill
	b	.LBB1_19
.LBB1_19:
	ldr	r0, [sp, #4]                    @ 4-byte Reload
	.loc	2 76 56 is_stmt 0               @ lvgl/src/lv_draw/lv_draw_line.c:76:56
	ldr	r1, [sp, #152]
	.loc	2 76 61                         @ lvgl/src/lv_draw/lv_draw_line.c:76:61
	ldrsh.w	r1, [r1, #4]
	.loc	2 76 67                         @ lvgl/src/lv_draw/lv_draw_line.c:76:67
	add.w	r1, r1, r1, lsr #31
	.loc	2 76 54                         @ lvgl/src/lv_draw/lv_draw_line.c:76:54
	add.w	r0, r0, r1, lsr #1
	.loc	2 76 18                         @ lvgl/src/lv_draw/lv_draw_line.c:76:18
	strh.w	r0, [sp, #150]
	.loc	2 79 60 is_stmt 1               @ lvgl/src/lv_draw/lv_draw_line.c:79:60
	ldr	r2, [sp, #156]
	add	r1, sp, #144
	.loc	2 79 17 is_stmt 0               @ lvgl/src/lv_draw/lv_draw_line.c:79:17
	mov	r0, r1
	bl	_lv_area_intersect
	.loc	2 79 15                         @ lvgl/src/lv_draw/lv_draw_line.c:79:15
	strb.w	r0, [sp, #143]
.Ltmp12:
	.loc	2 80 9 is_stmt 1                @ lvgl/src/lv_draw/lv_draw_line.c:80:9
	ldrb.w	r0, [sp, #143]
.Ltmp13:
	.loc	2 80 8 is_stmt 0                @ lvgl/src/lv_draw/lv_draw_line.c:80:8
	lsls	r0, r0, #31
	cbnz	r0, .LBB1_21
	b	.LBB1_20
.LBB1_20:
.Ltmp14:
	.loc	2 80 20                         @ lvgl/src/lv_draw/lv_draw_line.c:80:20
	b	.LBB1_34
.Ltmp15:
.LBB1_21:
	.loc	2 82 8 is_stmt 1                @ lvgl/src/lv_draw/lv_draw_line.c:82:8
	ldr	r0, [sp, #164]
	.loc	2 82 16 is_stmt 0               @ lvgl/src/lv_draw/lv_draw_line.c:82:16
	ldrsh.w	r0, [r0, #2]
	.loc	2 82 21                         @ lvgl/src/lv_draw/lv_draw_line.c:82:21
	ldr	r1, [sp, #160]
	.loc	2 82 29                         @ lvgl/src/lv_draw/lv_draw_line.c:82:29
	ldrsh.w	r1, [r1, #2]
.Ltmp16:
	.loc	2 82 8                          @ lvgl/src/lv_draw/lv_draw_line.c:82:8
	cmp	r0, r1
	bne	.LBB1_23
	b	.LBB1_22
.LBB1_22:
.Ltmp17:
	.loc	2 82 46                         @ lvgl/src/lv_draw/lv_draw_line.c:82:46
	ldr	r0, [sp, #164]
	.loc	2 82 54                         @ lvgl/src/lv_draw/lv_draw_line.c:82:54
	ldr	r1, [sp, #160]
	.loc	2 82 74                         @ lvgl/src/lv_draw/lv_draw_line.c:82:74
	ldr	r3, [sp, #152]
	add	r2, sp, #144
	.loc	2 82 32                         @ lvgl/src/lv_draw/lv_draw_line.c:82:32
	bl	draw_line_hor
	b	.LBB1_27
.LBB1_23:
.Ltmp18:
	.loc	2 83 13 is_stmt 1               @ lvgl/src/lv_draw/lv_draw_line.c:83:13
	ldr	r0, [sp, #164]
	.loc	2 83 21 is_stmt 0               @ lvgl/src/lv_draw/lv_draw_line.c:83:21
	ldrsh.w	r0, [r0]
	.loc	2 83 26                         @ lvgl/src/lv_draw/lv_draw_line.c:83:26
	ldr	r1, [sp, #160]
	.loc	2 83 34                         @ lvgl/src/lv_draw/lv_draw_line.c:83:34
	ldrsh.w	r1, [r1]
.Ltmp19:
	.loc	2 83 13                         @ lvgl/src/lv_draw/lv_draw_line.c:83:13
	cmp	r0, r1
	bne	.LBB1_25
	b	.LBB1_24
.LBB1_24:
.Ltmp20:
	.loc	2 83 51                         @ lvgl/src/lv_draw/lv_draw_line.c:83:51
	ldr	r0, [sp, #164]
	.loc	2 83 59                         @ lvgl/src/lv_draw/lv_draw_line.c:83:59
	ldr	r1, [sp, #160]
	.loc	2 83 79                         @ lvgl/src/lv_draw/lv_draw_line.c:83:79
	ldr	r3, [sp, #152]
	add	r2, sp, #144
	.loc	2 83 37                         @ lvgl/src/lv_draw/lv_draw_line.c:83:37
	bl	draw_line_ver
	b	.LBB1_26
.LBB1_25:
	.loc	2 84 25 is_stmt 1               @ lvgl/src/lv_draw/lv_draw_line.c:84:25
	ldr	r0, [sp, #164]
	.loc	2 84 33 is_stmt 0               @ lvgl/src/lv_draw/lv_draw_line.c:84:33
	ldr	r1, [sp, #160]
	.loc	2 84 53                         @ lvgl/src/lv_draw/lv_draw_line.c:84:53
	ldr	r3, [sp, #152]
	add	r2, sp, #144
	.loc	2 84 10                         @ lvgl/src/lv_draw/lv_draw_line.c:84:10
	bl	draw_line_skew
	b	.LBB1_26
.Ltmp21:
.LBB1_26:
	.loc	2 0 10                          @ lvgl/src/lv_draw/lv_draw_line.c:0:10
	b	.LBB1_27
.LBB1_27:
.Ltmp22:
	.loc	2 86 8 is_stmt 1                @ lvgl/src/lv_draw/lv_draw_line.c:86:8
	ldr	r0, [sp, #152]
	.loc	2 86 13 is_stmt 0               @ lvgl/src/lv_draw/lv_draw_line.c:86:13
	ldrb	r0, [r0, #11]
	lsrs	r0, r0, #3
	.loc	2 86 23                         @ lvgl/src/lv_draw/lv_draw_line.c:86:23
	lsls	r0, r0, #31
	cbnz	r0, .LBB1_29
	b	.LBB1_28
.LBB1_28:
	.loc	2 86 26                         @ lvgl/src/lv_draw/lv_draw_line.c:86:26
	ldr	r0, [sp, #152]
	.loc	2 86 31                         @ lvgl/src/lv_draw/lv_draw_line.c:86:31
	ldrb	r0, [r0, #11]
	lsrs	r0, r0, #2
.Ltmp23:
	.loc	2 86 8                          @ lvgl/src/lv_draw/lv_draw_line.c:86:8
	lsls	r0, r0, #31
	cmp	r0, #0
	beq	.LBB1_34
	b	.LBB1_29
.LBB1_29:
	.loc	2 0 8                           @ lvgl/src/lv_draw/lv_draw_line.c:0:8
	add	r0, sp, #36
.Ltmp24:
	.loc	2 88 9 is_stmt 1                @ lvgl/src/lv_draw/lv_draw_line.c:88:9
	bl	lv_draw_rect_dsc_init
	.loc	2 89 28                         @ lvgl/src/lv_draw/lv_draw_line.c:89:28
	ldr	r0, [sp, #152]
	.loc	2 89 33 is_stmt 0               @ lvgl/src/lv_draw/lv_draw_line.c:89:33
	ldr	r0, [r0]
	str	r0, [sp, #40]
	movw	r0, #32767
	.loc	2 90 24 is_stmt 1               @ lvgl/src/lv_draw/lv_draw_line.c:90:24
	strh.w	r0, [sp, #36]
	.loc	2 91 26                         @ lvgl/src/lv_draw/lv_draw_line.c:91:26
	ldr	r0, [sp, #152]
	.loc	2 91 31 is_stmt 0               @ lvgl/src/lv_draw/lv_draw_line.c:91:31
	ldrb	r0, [r0, #10]
	.loc	2 91 24                         @ lvgl/src/lv_draw/lv_draw_line.c:91:24
	strb.w	r0, [sp, #54]
	.loc	2 93 22 is_stmt 1               @ lvgl/src/lv_draw/lv_draw_line.c:93:22
	ldr	r0, [sp, #152]
	.loc	2 93 27 is_stmt 0               @ lvgl/src/lv_draw/lv_draw_line.c:93:27
	ldrsh.w	r0, [r0, #4]
	.loc	2 93 33                         @ lvgl/src/lv_draw/lv_draw_line.c:93:33
	asrs	r0, r0, #1
	.loc	2 93 17                         @ lvgl/src/lv_draw/lv_draw_line.c:93:17
	str	r0, [sp, #32]
	.loc	2 94 27 is_stmt 1               @ lvgl/src/lv_draw/lv_draw_line.c:94:27
	ldr	r0, [sp, #152]
	ldrh	r1, [r0, #4]
	movs	r0, #1
	.loc	2 94 26 is_stmt 0               @ lvgl/src/lv_draw/lv_draw_line.c:94:26
	bics	r0, r1
	.loc	2 94 17                         @ lvgl/src/lv_draw/lv_draw_line.c:94:17
	str	r0, [sp, #28]
.Ltmp25:
	.loc	2 97 12 is_stmt 1               @ lvgl/src/lv_draw/lv_draw_line.c:97:12
	ldr	r0, [sp, #152]
	.loc	2 97 17 is_stmt 0               @ lvgl/src/lv_draw/lv_draw_line.c:97:17
	ldrb	r0, [r0, #11]
	lsrs	r0, r0, #2
.Ltmp26:
	.loc	2 97 12                         @ lvgl/src/lv_draw/lv_draw_line.c:97:12
	lsls	r0, r0, #31
	cbz	r0, .LBB1_31
	b	.LBB1_30
.LBB1_30:
.Ltmp27:
	.loc	2 98 27 is_stmt 1               @ lvgl/src/lv_draw/lv_draw_line.c:98:27
	ldr	r0, [sp, #164]
	ldrh	r0, [r0]
	.loc	2 98 39 is_stmt 0               @ lvgl/src/lv_draw/lv_draw_line.c:98:39
	ldr	r1, [sp, #32]
	.loc	2 98 37                         @ lvgl/src/lv_draw/lv_draw_line.c:98:37
	subs	r0, r0, r1
	.loc	2 98 25                         @ lvgl/src/lv_draw/lv_draw_line.c:98:25
	strh.w	r0, [sp, #20]
	.loc	2 99 27 is_stmt 1               @ lvgl/src/lv_draw/lv_draw_line.c:99:27
	ldr	r0, [sp, #164]
	ldrh	r0, [r0, #2]
	.loc	2 99 39 is_stmt 0               @ lvgl/src/lv_draw/lv_draw_line.c:99:39
	ldr	r1, [sp, #32]
	.loc	2 99 37                         @ lvgl/src/lv_draw/lv_draw_line.c:99:37
	subs	r0, r0, r1
	.loc	2 99 25                         @ lvgl/src/lv_draw/lv_draw_line.c:99:25
	strh.w	r0, [sp, #22]
	.loc	2 100 27 is_stmt 1              @ lvgl/src/lv_draw/lv_draw_line.c:100:27
	ldr	r0, [sp, #164]
	ldrh	r0, [r0]
	.loc	2 100 39 is_stmt 0              @ lvgl/src/lv_draw/lv_draw_line.c:100:39
	ldr	r1, [sp, #32]
	.loc	2 100 37                        @ lvgl/src/lv_draw/lv_draw_line.c:100:37
	add	r0, r1
	.loc	2 100 43                        @ lvgl/src/lv_draw/lv_draw_line.c:100:43
	ldr	r1, [sp, #28]
	.loc	2 100 41                        @ lvgl/src/lv_draw/lv_draw_line.c:100:41
	subs	r0, r0, r1
	.loc	2 100 25                        @ lvgl/src/lv_draw/lv_draw_line.c:100:25
	strh.w	r0, [sp, #24]
	.loc	2 101 27 is_stmt 1              @ lvgl/src/lv_draw/lv_draw_line.c:101:27
	ldr	r0, [sp, #164]
	ldrh	r0, [r0, #2]
	.loc	2 101 39 is_stmt 0              @ lvgl/src/lv_draw/lv_draw_line.c:101:39
	ldr	r1, [sp, #32]
	.loc	2 101 37                        @ lvgl/src/lv_draw/lv_draw_line.c:101:37
	add	r0, r1
	.loc	2 101 43                        @ lvgl/src/lv_draw/lv_draw_line.c:101:43
	ldr	r1, [sp, #28]
	.loc	2 101 41                        @ lvgl/src/lv_draw/lv_draw_line.c:101:41
	subs	r0, r0, r1
	.loc	2 101 25                        @ lvgl/src/lv_draw/lv_draw_line.c:101:25
	strh.w	r0, [sp, #26]
	.loc	2 102 37 is_stmt 1              @ lvgl/src/lv_draw/lv_draw_line.c:102:37
	ldr	r1, [sp, #156]
	add	r0, sp, #20
	add	r2, sp, #36
	.loc	2 102 13 is_stmt 0              @ lvgl/src/lv_draw/lv_draw_line.c:102:13
	bl	lv_draw_rect
	.loc	2 103 9 is_stmt 1               @ lvgl/src/lv_draw/lv_draw_line.c:103:9
	b	.LBB1_31
.Ltmp28:
.LBB1_31:
	.loc	2 105 12                        @ lvgl/src/lv_draw/lv_draw_line.c:105:12
	ldr	r0, [sp, #152]
	.loc	2 105 17 is_stmt 0              @ lvgl/src/lv_draw/lv_draw_line.c:105:17
	ldrb	r0, [r0, #11]
	lsrs	r0, r0, #3
.Ltmp29:
	.loc	2 105 12                        @ lvgl/src/lv_draw/lv_draw_line.c:105:12
	lsls	r0, r0, #31
	cbz	r0, .LBB1_33
	b	.LBB1_32
.LBB1_32:
.Ltmp30:
	.loc	2 106 27 is_stmt 1              @ lvgl/src/lv_draw/lv_draw_line.c:106:27
	ldr	r0, [sp, #160]
	ldrh	r0, [r0]
	.loc	2 106 39 is_stmt 0              @ lvgl/src/lv_draw/lv_draw_line.c:106:39
	ldr	r1, [sp, #32]
	.loc	2 106 37                        @ lvgl/src/lv_draw/lv_draw_line.c:106:37
	subs	r0, r0, r1
	.loc	2 106 25                        @ lvgl/src/lv_draw/lv_draw_line.c:106:25
	strh.w	r0, [sp, #20]
	.loc	2 107 27 is_stmt 1              @ lvgl/src/lv_draw/lv_draw_line.c:107:27
	ldr	r0, [sp, #160]
	ldrh	r0, [r0, #2]
	.loc	2 107 39 is_stmt 0              @ lvgl/src/lv_draw/lv_draw_line.c:107:39
	ldr	r1, [sp, #32]
	.loc	2 107 37                        @ lvgl/src/lv_draw/lv_draw_line.c:107:37
	subs	r0, r0, r1
	.loc	2 107 25                        @ lvgl/src/lv_draw/lv_draw_line.c:107:25
	strh.w	r0, [sp, #22]
	.loc	2 108 27 is_stmt 1              @ lvgl/src/lv_draw/lv_draw_line.c:108:27
	ldr	r0, [sp, #160]
	ldrh	r0, [r0]
	.loc	2 108 39 is_stmt 0              @ lvgl/src/lv_draw/lv_draw_line.c:108:39
	ldr	r1, [sp, #32]
	.loc	2 108 37                        @ lvgl/src/lv_draw/lv_draw_line.c:108:37
	add	r0, r1
	.loc	2 108 43                        @ lvgl/src/lv_draw/lv_draw_line.c:108:43
	ldr	r1, [sp, #28]
	.loc	2 108 41                        @ lvgl/src/lv_draw/lv_draw_line.c:108:41
	subs	r0, r0, r1
	.loc	2 108 25                        @ lvgl/src/lv_draw/lv_draw_line.c:108:25
	strh.w	r0, [sp, #24]
	.loc	2 109 27 is_stmt 1              @ lvgl/src/lv_draw/lv_draw_line.c:109:27
	ldr	r0, [sp, #160]
	ldrh	r0, [r0, #2]
	.loc	2 109 39 is_stmt 0              @ lvgl/src/lv_draw/lv_draw_line.c:109:39
	ldr	r1, [sp, #32]
	.loc	2 109 37                        @ lvgl/src/lv_draw/lv_draw_line.c:109:37
	add	r0, r1
	.loc	2 109 43                        @ lvgl/src/lv_draw/lv_draw_line.c:109:43
	ldr	r1, [sp, #28]
	.loc	2 109 41                        @ lvgl/src/lv_draw/lv_draw_line.c:109:41
	subs	r0, r0, r1
	.loc	2 109 25                        @ lvgl/src/lv_draw/lv_draw_line.c:109:25
	strh.w	r0, [sp, #26]
	.loc	2 110 37 is_stmt 1              @ lvgl/src/lv_draw/lv_draw_line.c:110:37
	ldr	r1, [sp, #156]
	add	r0, sp, #20
	add	r2, sp, #36
	.loc	2 110 13 is_stmt 0              @ lvgl/src/lv_draw/lv_draw_line.c:110:13
	bl	lv_draw_rect
	.loc	2 111 9 is_stmt 1               @ lvgl/src/lv_draw/lv_draw_line.c:111:9
	b	.LBB1_33
.Ltmp31:
.LBB1_33:
	.loc	2 112 5                         @ lvgl/src/lv_draw/lv_draw_line.c:112:5
	b	.LBB1_34
.Ltmp32:
.LBB1_34:
	.loc	2 113 1                         @ lvgl/src/lv_draw/lv_draw_line.c:113:1
	add	sp, #168
	pop	{r7, pc}
.Ltmp33:
.Lfunc_end1:
	.size	lv_draw_line, .Lfunc_end1-lv_draw_line
	.cfi_endproc
	.cantunwind
	.fnend
                                        @ -- End function
	.section	.text.draw_line_hor,"ax",%progbits
	.p2align	3                               @ -- Begin function draw_line_hor
	.type	draw_line_hor,%function
	.code	16                              @ @draw_line_hor
	.thumb_func
draw_line_hor:
.Lfunc_begin2:
	.loc	2 122 0                         @ lvgl/src/lv_draw/lv_draw_line.c:122:0
	.fnstart
	.cfi_startproc
@ %bb.0:
	.save	{r4, lr}
	push	{r4, lr}
	.cfi_def_cfa_offset 8
	.cfi_offset lr, -4
	.cfi_offset r4, -8
	.pad	#120
	sub	sp, #120
	.cfi_def_cfa_offset 128
	str	r0, [sp, #116]
	str	r1, [sp, #112]
	str	r2, [sp, #108]
	str	r3, [sp, #104]
.Ltmp34:
	.loc	2 123 20 prologue_end           @ lvgl/src/lv_draw/lv_draw_line.c:123:20
	ldr	r0, [sp, #104]
	.loc	2 123 25 is_stmt 0              @ lvgl/src/lv_draw/lv_draw_line.c:123:25
	ldrb	r0, [r0, #10]
	.loc	2 123 14                        @ lvgl/src/lv_draw/lv_draw_line.c:123:14
	strb.w	r0, [sp, #103]
	.loc	2 125 27 is_stmt 1              @ lvgl/src/lv_draw/lv_draw_line.c:125:27
	bl	_lv_refr_get_disp_refreshing
	.loc	2 125 17 is_stmt 0              @ lvgl/src/lv_draw/lv_draw_line.c:125:17
	str	r0, [sp, #96]
	.loc	2 126 43 is_stmt 1              @ lvgl/src/lv_draw/lv_draw_line.c:126:43
	ldr	r0, [sp, #96]
	.loc	2 126 27 is_stmt 0              @ lvgl/src/lv_draw/lv_draw_line.c:126:27
	bl	lv_disp_get_buf
	.loc	2 126 21                        @ lvgl/src/lv_draw/lv_draw_line.c:126:21
	str	r0, [sp, #92]
	.loc	2 128 36 is_stmt 1              @ lvgl/src/lv_draw/lv_draw_line.c:128:36
	ldr	r0, [sp, #92]
	.loc	2 128 41 is_stmt 0              @ lvgl/src/lv_draw/lv_draw_line.c:128:41
	adds	r0, #16
	.loc	2 128 23                        @ lvgl/src/lv_draw/lv_draw_line.c:128:23
	str	r0, [sp, #88]
	.loc	2 130 17 is_stmt 1              @ lvgl/src/lv_draw/lv_draw_line.c:130:17
	ldr	r0, [sp, #104]
	.loc	2 130 22 is_stmt 0              @ lvgl/src/lv_draw/lv_draw_line.c:130:22
	ldrsh.w	r0, [r0, #4]
	.loc	2 130 28                        @ lvgl/src/lv_draw/lv_draw_line.c:130:28
	subs	r0, #1
	.loc	2 130 13                        @ lvgl/src/lv_draw/lv_draw_line.c:130:13
	str	r0, [sp, #84]
	.loc	2 131 23 is_stmt 1              @ lvgl/src/lv_draw/lv_draw_line.c:131:23
	ldr	r0, [sp, #84]
	.loc	2 131 25 is_stmt 0              @ lvgl/src/lv_draw/lv_draw_line.c:131:25
	asrs	r0, r0, #1
	.loc	2 131 13                        @ lvgl/src/lv_draw/lv_draw_line.c:131:13
	str	r0, [sp, #80]
	.loc	2 132 23 is_stmt 1              @ lvgl/src/lv_draw/lv_draw_line.c:132:23
	ldr	r0, [sp, #80]
	.loc	2 132 34 is_stmt 0              @ lvgl/src/lv_draw/lv_draw_line.c:132:34
	ldr	r1, [sp, #84]
	.loc	2 132 36                        @ lvgl/src/lv_draw/lv_draw_line.c:132:36
	and	r1, r1, #1
	.loc	2 132 31                        @ lvgl/src/lv_draw/lv_draw_line.c:132:31
	add	r0, r1
	.loc	2 132 13                        @ lvgl/src/lv_draw/lv_draw_line.c:132:13
	str	r0, [sp, #76]
	.loc	2 134 19 is_stmt 1              @ lvgl/src/lv_draw/lv_draw_line.c:134:19
	ldr	r0, [sp, #104]
	.loc	2 134 24 is_stmt 0              @ lvgl/src/lv_draw/lv_draw_line.c:134:24
	ldrsh.w	r1, [r0, #8]
	movs	r0, #0
	.loc	2 134 33                        @ lvgl/src/lv_draw/lv_draw_line.c:134:33
	str	r0, [sp, #24]                   @ 4-byte Spill
	cbz	r1, .LBB2_2
	b	.LBB2_1
.LBB2_1:
	.loc	2 134 36                        @ lvgl/src/lv_draw/lv_draw_line.c:134:36
	ldr	r0, [sp, #104]
	.loc	2 134 41                        @ lvgl/src/lv_draw/lv_draw_line.c:134:41
	ldrsh.w	r0, [r0, #6]
	.loc	2 134 33                        @ lvgl/src/lv_draw/lv_draw_line.c:134:33
	cmp	r0, #0
	it	ne
	movne	r0, #1
	str	r0, [sp, #24]                   @ 4-byte Spill
	b	.LBB2_2
.LBB2_2:
	.loc	2 0 0                           @ lvgl/src/lv_draw/lv_draw_line.c:0:0
	ldr	r0, [sp, #24]                   @ 4-byte Reload
	.loc	2 134 19                        @ lvgl/src/lv_draw/lv_draw_line.c:134:19
	and	r0, r0, #1
	.loc	2 134 10                        @ lvgl/src/lv_draw/lv_draw_line.c:134:10
	strb.w	r0, [sp, #75]
	movs	r0, #1
	.loc	2 136 10 is_stmt 1              @ lvgl/src/lv_draw/lv_draw_line.c:136:10
	strb.w	r0, [sp, #74]
.Ltmp35:
	.loc	2 137 8                         @ lvgl/src/lv_draw/lv_draw_line.c:137:8
	bl	lv_draw_mask_get_cnt
.Ltmp36:
	.loc	2 137 8 is_stmt 0               @ lvgl/src/lv_draw/lv_draw_line.c:137:8
	cbz	r0, .LBB2_4
	b	.LBB2_3
.LBB2_3:
	.loc	2 0 8                           @ lvgl/src/lv_draw/lv_draw_line.c:0:8
	movs	r0, #0
.Ltmp37:
	.loc	2 137 44                        @ lvgl/src/lv_draw/lv_draw_line.c:137:44
	strb.w	r0, [sp, #74]
	.loc	2 137 32                        @ lvgl/src/lv_draw/lv_draw_line.c:137:32
	b	.LBB2_7
.LBB2_4:
.Ltmp38:
	.loc	2 138 13 is_stmt 1              @ lvgl/src/lv_draw/lv_draw_line.c:138:13
	ldrb.w	r0, [sp, #75]
.Ltmp39:
	.loc	2 138 13 is_stmt 0              @ lvgl/src/lv_draw/lv_draw_line.c:138:13
	lsls	r0, r0, #31
	cbz	r0, .LBB2_6
	b	.LBB2_5
.LBB2_5:
	.loc	2 0 13                          @ lvgl/src/lv_draw/lv_draw_line.c:0:13
	movs	r0, #0
.Ltmp40:
	.loc	2 138 33                        @ lvgl/src/lv_draw/lv_draw_line.c:138:33
	strb.w	r0, [sp, #74]
	.loc	2 138 21                        @ lvgl/src/lv_draw/lv_draw_line.c:138:21
	b	.LBB2_6
.Ltmp41:
.LBB2_6:
	.loc	2 0 21                          @ lvgl/src/lv_draw/lv_draw_line.c:0:21
	b	.LBB2_7
.LBB2_7:
	.loc	2 141 20 is_stmt 1              @ lvgl/src/lv_draw/lv_draw_line.c:141:20
	ldr	r0, [sp, #116]
	ldrsh.w	r0, [r0]
	ldr	r1, [sp, #112]
	ldrsh.w	r1, [r1]
	cmp	r0, r1
	bge	.LBB2_9
	b	.LBB2_8
.LBB2_8:
	ldr	r0, [sp, #116]
	ldrsh.w	r0, [r0]
	str	r0, [sp, #20]                   @ 4-byte Spill
	b	.LBB2_10
.LBB2_9:
	ldr	r0, [sp, #112]
	ldrsh.w	r0, [r0]
	str	r0, [sp, #20]                   @ 4-byte Spill
	b	.LBB2_10
.LBB2_10:
	ldr	r0, [sp, #20]                   @ 4-byte Reload
	.loc	2 141 18 is_stmt 0              @ lvgl/src/lv_draw/lv_draw_line.c:141:18
	strh.w	r0, [sp, #64]
	.loc	2 142 20 is_stmt 1              @ lvgl/src/lv_draw/lv_draw_line.c:142:20
	ldr	r0, [sp, #116]
	ldrsh.w	r0, [r0]
	ldr	r1, [sp, #112]
	ldrsh.w	r1, [r1]
	cmp	r0, r1
	ble	.LBB2_12
	b	.LBB2_11
.LBB2_11:
	ldr	r0, [sp, #116]
	ldrsh.w	r0, [r0]
	str	r0, [sp, #16]                   @ 4-byte Spill
	b	.LBB2_13
.LBB2_12:
	ldr	r0, [sp, #112]
	ldrsh.w	r0, [r0]
	str	r0, [sp, #16]                   @ 4-byte Spill
	b	.LBB2_13
.LBB2_13:
	ldr	r0, [sp, #16]                   @ 4-byte Reload
	.loc	2 142 55 is_stmt 0              @ lvgl/src/lv_draw/lv_draw_line.c:142:55
	subs	r0, #1
	.loc	2 142 18                        @ lvgl/src/lv_draw/lv_draw_line.c:142:18
	strh.w	r0, [sp, #68]
	.loc	2 143 20 is_stmt 1              @ lvgl/src/lv_draw/lv_draw_line.c:143:20
	ldr	r0, [sp, #116]
	ldrh	r0, [r0, #2]
	.loc	2 143 32 is_stmt 0              @ lvgl/src/lv_draw/lv_draw_line.c:143:32
	ldr	r1, [sp, #76]
	.loc	2 143 30                        @ lvgl/src/lv_draw/lv_draw_line.c:143:30
	subs	r0, r0, r1
	.loc	2 143 18                        @ lvgl/src/lv_draw/lv_draw_line.c:143:18
	strh.w	r0, [sp, #66]
	.loc	2 144 20 is_stmt 1              @ lvgl/src/lv_draw/lv_draw_line.c:144:20
	ldr	r0, [sp, #116]
	ldrh	r0, [r0, #2]
	.loc	2 144 32 is_stmt 0              @ lvgl/src/lv_draw/lv_draw_line.c:144:32
	ldr	r1, [sp, #80]
	.loc	2 144 30                        @ lvgl/src/lv_draw/lv_draw_line.c:144:30
	add	r0, r1
	.loc	2 144 18                        @ lvgl/src/lv_draw/lv_draw_line.c:144:18
	strh.w	r0, [sp, #70]
.Ltmp42:
	.loc	2 147 8 is_stmt 1               @ lvgl/src/lv_draw/lv_draw_line.c:147:8
	ldrb.w	r0, [sp, #74]
.Ltmp43:
	.loc	2 147 8 is_stmt 0               @ lvgl/src/lv_draw/lv_draw_line.c:147:8
	lsls	r0, r0, #31
	cbz	r0, .LBB2_15
	b	.LBB2_14
.LBB2_14:
.Ltmp44:
	.loc	2 148 24 is_stmt 1              @ lvgl/src/lv_draw/lv_draw_line.c:148:24
	ldr	r0, [sp, #108]
	.loc	2 149 24                        @ lvgl/src/lv_draw/lv_draw_line.c:149:24
	ldr	r2, [sp, #104]
	.loc	2 149 71 is_stmt 0              @ lvgl/src/lv_draw/lv_draw_line.c:149:71
	ldrb.w	r1, [sp, #103]
	.loc	2 150 29 is_stmt 1              @ lvgl/src/lv_draw/lv_draw_line.c:150:29
	ldrb	r3, [r2, #11]
	.loc	2 148 9                         @ lvgl/src/lv_draw/lv_draw_line.c:148:9
	ldr	r2, [r2]
	and	r12, r3, #3
	mov	r3, sp
	str.w	r12, [r3, #8]
	str	r1, [r3, #4]
	movs	r1, #1
	str	r1, [r3]
	add	r1, sp, #64
	movs	r3, #0
	bl	_lv_blend_fill
	.loc	2 151 5                         @ lvgl/src/lv_draw/lv_draw_line.c:151:5
	b	.LBB2_38
.Ltmp45:
.LBB2_15:
	.loc	2 157 52                        @ lvgl/src/lv_draw/lv_draw_line.c:157:52
	ldr	r1, [sp, #108]
	add	r2, sp, #64
	.loc	2 157 21 is_stmt 0              @ lvgl/src/lv_draw/lv_draw_line.c:157:21
	mov	r0, r2
	bl	_lv_area_intersect
	.loc	2 157 19                        @ lvgl/src/lv_draw/lv_draw_line.c:157:19
	strb.w	r0, [sp, #63]
.Ltmp46:
	.loc	2 158 13 is_stmt 1              @ lvgl/src/lv_draw/lv_draw_line.c:158:13
	ldrb.w	r0, [sp, #63]
.Ltmp47:
	.loc	2 158 12 is_stmt 0              @ lvgl/src/lv_draw/lv_draw_line.c:158:12
	lsls	r0, r0, #31
	cbnz	r0, .LBB2_17
	b	.LBB2_16
.LBB2_16:
.Ltmp48:
	.loc	2 158 24                        @ lvgl/src/lv_draw/lv_draw_line.c:158:24
	b	.LBB2_38
.Ltmp49:
.LBB2_17:
	.loc	2 162 25 is_stmt 1              @ lvgl/src/lv_draw/lv_draw_line.c:162:25
	ldr	r0, [sp, #88]
	ldrh	r1, [r0]
	.loc	2 162 22 is_stmt 0              @ lvgl/src/lv_draw/lv_draw_line.c:162:22
	ldrh.w	r0, [sp, #64]
	subs	r0, r0, r1
	strh.w	r0, [sp, #64]
	.loc	2 163 25 is_stmt 1              @ lvgl/src/lv_draw/lv_draw_line.c:163:25
	ldr	r0, [sp, #88]
	ldrh	r1, [r0, #2]
	.loc	2 163 22 is_stmt 0              @ lvgl/src/lv_draw/lv_draw_line.c:163:22
	ldrh.w	r0, [sp, #66]
	subs	r0, r0, r1
	strh.w	r0, [sp, #66]
	.loc	2 164 25 is_stmt 1              @ lvgl/src/lv_draw/lv_draw_line.c:164:25
	ldr	r0, [sp, #88]
	ldrh	r1, [r0]
	.loc	2 164 22 is_stmt 0              @ lvgl/src/lv_draw/lv_draw_line.c:164:22
	ldrh.w	r0, [sp, #68]
	subs	r0, r0, r1
	strh.w	r0, [sp, #68]
	.loc	2 165 25 is_stmt 1              @ lvgl/src/lv_draw/lv_draw_line.c:165:25
	ldr	r0, [sp, #88]
	ldrh	r1, [r0, #2]
	.loc	2 165 22 is_stmt 0              @ lvgl/src/lv_draw/lv_draw_line.c:165:22
	ldrh.w	r0, [sp, #70]
	subs	r0, r0, r1
	strh.w	r0, [sp, #70]
	add	r0, sp, #64
	.loc	2 167 31 is_stmt 1              @ lvgl/src/lv_draw/lv_draw_line.c:167:31
	bl	lv_area_get_width
	.loc	2 167 17 is_stmt 0              @ lvgl/src/lv_draw/lv_draw_line.c:167:17
	str	r0, [sp, #56]
	.loc	2 170 24 is_stmt 1              @ lvgl/src/lv_draw/lv_draw_line.c:170:24
	ldrh.w	r0, [sp, #64]
	.loc	2 170 39 is_stmt 0              @ lvgl/src/lv_draw/lv_draw_line.c:170:39
	ldr	r1, [sp, #88]
	ldrh	r1, [r1]
	.loc	2 170 37                        @ lvgl/src/lv_draw/lv_draw_line.c:170:37
	add	r0, r1
	.loc	2 170 22                        @ lvgl/src/lv_draw/lv_draw_line.c:170:22
	strh.w	r0, [sp, #48]
	.loc	2 171 24 is_stmt 1              @ lvgl/src/lv_draw/lv_draw_line.c:171:24
	ldrh.w	r0, [sp, #68]
	.loc	2 171 39 is_stmt 0              @ lvgl/src/lv_draw/lv_draw_line.c:171:39
	ldr	r1, [sp, #88]
	ldrh	r1, [r1]
	.loc	2 171 37                        @ lvgl/src/lv_draw/lv_draw_line.c:171:37
	add	r0, r1
	.loc	2 171 22                        @ lvgl/src/lv_draw/lv_draw_line.c:171:22
	strh.w	r0, [sp, #52]
	.loc	2 172 24 is_stmt 1              @ lvgl/src/lv_draw/lv_draw_line.c:172:24
	ldrh.w	r0, [sp, #66]
	.loc	2 172 39 is_stmt 0              @ lvgl/src/lv_draw/lv_draw_line.c:172:39
	ldr	r1, [sp, #88]
	ldrh	r1, [r1, #2]
	.loc	2 172 37                        @ lvgl/src/lv_draw/lv_draw_line.c:172:37
	add	r0, r1
	.loc	2 172 22                        @ lvgl/src/lv_draw/lv_draw_line.c:172:22
	strh.w	r0, [sp, #50]
	.loc	2 173 34 is_stmt 1              @ lvgl/src/lv_draw/lv_draw_line.c:173:34
	ldrh.w	r0, [sp, #50]
	.loc	2 173 22 is_stmt 0              @ lvgl/src/lv_draw/lv_draw_line.c:173:22
	strh.w	r0, [sp, #54]
	movs	r0, #0
	.loc	2 175 24 is_stmt 1              @ lvgl/src/lv_draw/lv_draw_line.c:175:24
	strh.w	r0, [sp, #46]
.Ltmp50:
	.loc	2 176 12                        @ lvgl/src/lv_draw/lv_draw_line.c:176:12
	ldrb.w	r0, [sp, #75]
.Ltmp51:
	.loc	2 176 12 is_stmt 0              @ lvgl/src/lv_draw/lv_draw_line.c:176:12
	lsls	r0, r0, #31
	cbz	r0, .LBB2_19
	b	.LBB2_18
.LBB2_18:
.Ltmp52:
	.loc	2 177 27 is_stmt 1              @ lvgl/src/lv_draw/lv_draw_line.c:177:27
	ldr	r0, [sp, #92]
	.loc	2 177 37 is_stmt 0              @ lvgl/src/lv_draw/lv_draw_line.c:177:37
	ldrsh.w	r0, [r0, #16]
	.loc	2 177 52                        @ lvgl/src/lv_draw/lv_draw_line.c:177:52
	ldrsh.w	r1, [sp, #64]
	.loc	2 177 40                        @ lvgl/src/lv_draw/lv_draw_line.c:177:40
	adds	r2, r0, r1
	.loc	2 177 59                        @ lvgl/src/lv_draw/lv_draw_line.c:177:59
	ldr	r0, [sp, #104]
	.loc	2 177 80                        @ lvgl/src/lv_draw/lv_draw_line.c:177:80
	ldrsh.w	r1, [r0, #6]
	.loc	2 177 64                        @ lvgl/src/lv_draw/lv_draw_line.c:177:64
	ldrsh.w	r0, [r0, #8]
	.loc	2 177 73                        @ lvgl/src/lv_draw/lv_draw_line.c:177:73
	add	r1, r0
	.loc	2 177 56                        @ lvgl/src/lv_draw/lv_draw_line.c:177:56
	sdiv	r0, r2, r1
	mls	r0, r0, r1, r2
	.loc	2 177 24                        @ lvgl/src/lv_draw/lv_draw_line.c:177:24
	strh.w	r0, [sp, #46]
	.loc	2 178 9 is_stmt 1               @ lvgl/src/lv_draw/lv_draw_line.c:178:9
	b	.LBB2_19
.Ltmp53:
.LBB2_19:
	.loc	2 180 47                        @ lvgl/src/lv_draw/lv_draw_line.c:180:47
	ldr	r0, [sp, #56]
	.loc	2 180 31 is_stmt 0              @ lvgl/src/lv_draw/lv_draw_line.c:180:31
	bl	_lv_mem_buf_get
	.loc	2 180 20                        @ lvgl/src/lv_draw/lv_draw_line.c:180:20
	str	r0, [sp, #40]
.Ltmp54:
	.loc	2 182 27 is_stmt 1              @ lvgl/src/lv_draw/lv_draw_line.c:182:27
	ldrsh.w	r0, [sp, #66]
	.loc	2 182 15 is_stmt 0              @ lvgl/src/lv_draw/lv_draw_line.c:182:15
	str	r0, [sp, #36]
	.loc	2 182 13                        @ lvgl/src/lv_draw/lv_draw_line.c:182:13
	b	.LBB2_20
.LBB2_20:                               @ =>This Loop Header: Depth=1
                                        @     Child Loop BB2_24 Depth 2
.Ltmp55:
	.loc	2 182 31                        @ lvgl/src/lv_draw/lv_draw_line.c:182:31
	ldr	r0, [sp, #36]
	.loc	2 182 46                        @ lvgl/src/lv_draw/lv_draw_line.c:182:46
	ldrsh.w	r1, [sp, #70]
.Ltmp56:
	.loc	2 182 9                         @ lvgl/src/lv_draw/lv_draw_line.c:182:9
	cmp	r0, r1
	bgt.w	.LBB2_37
	b	.LBB2_21
.LBB2_21:                               @   in Loop: Header=BB2_20 Depth=1
.Ltmp57:
	.loc	2 183 27 is_stmt 1              @ lvgl/src/lv_draw/lv_draw_line.c:183:27
	ldr	r0, [sp, #40]
	.loc	2 183 37 is_stmt 0              @ lvgl/src/lv_draw/lv_draw_line.c:183:37
	ldr	r1, [sp, #56]
	.loc	2 183 13                        @ lvgl/src/lv_draw/lv_draw_line.c:183:13
	bl	_lv_memset_ff
	.loc	2 184 62 is_stmt 1              @ lvgl/src/lv_draw/lv_draw_line.c:184:62
	ldr	r0, [sp, #40]
	.loc	2 184 72 is_stmt 0              @ lvgl/src/lv_draw/lv_draw_line.c:184:72
	ldr	r2, [sp, #92]
	ldrh	r1, [r2, #16]
	.loc	2 184 87                        @ lvgl/src/lv_draw/lv_draw_line.c:184:87
	ldrh.w	r3, [sp, #64]
	.loc	2 184 85                        @ lvgl/src/lv_draw/lv_draw_line.c:184:85
	add	r1, r3
	.loc	2 184 101                       @ lvgl/src/lv_draw/lv_draw_line.c:184:101
	ldrh	r2, [r2, #18]
	.loc	2 184 116                       @ lvgl/src/lv_draw/lv_draw_line.c:184:116
	ldr	r3, [sp, #36]
	.loc	2 184 114                       @ lvgl/src/lv_draw/lv_draw_line.c:184:114
	add	r2, r3
	.loc	2 184 119                       @ lvgl/src/lv_draw/lv_draw_line.c:184:119
	ldrsh.w	r3, [sp, #56]
	.loc	2 184 43                        @ lvgl/src/lv_draw/lv_draw_line.c:184:43
	sxth	r1, r1
	sxth	r2, r2
	bl	lv_draw_mask_apply
	.loc	2 184 32                        @ lvgl/src/lv_draw/lv_draw_line.c:184:32
	strb.w	r0, [sp, #35]
.Ltmp58:
	.loc	2 186 16 is_stmt 1              @ lvgl/src/lv_draw/lv_draw_line.c:186:16
	ldrb.w	r0, [sp, #75]
.Ltmp59:
	.loc	2 186 16 is_stmt 0              @ lvgl/src/lv_draw/lv_draw_line.c:186:16
	lsls	r0, r0, #31
	cmp	r0, #0
	beq	.LBB2_35
	b	.LBB2_22
.LBB2_22:                               @   in Loop: Header=BB2_20 Depth=1
.Ltmp60:
	.loc	2 187 20 is_stmt 1              @ lvgl/src/lv_draw/lv_draw_line.c:187:20
	ldrb.w	r0, [sp, #35]
.Ltmp61:
	.loc	2 187 20 is_stmt 0              @ lvgl/src/lv_draw/lv_draw_line.c:187:20
	cmp	r0, #0
	beq	.LBB2_34
	b	.LBB2_23
.LBB2_23:                               @   in Loop: Header=BB2_20 Depth=1
.Ltmp62:
	.loc	2 188 47 is_stmt 1              @ lvgl/src/lv_draw/lv_draw_line.c:188:47
	ldrh.w	r0, [sp, #46]
	.loc	2 188 36 is_stmt 0              @ lvgl/src/lv_draw/lv_draw_line.c:188:36
	strh.w	r0, [sp, #32]
	movs	r0, #0
.Ltmp63:
	.loc	2 190 27 is_stmt 1              @ lvgl/src/lv_draw/lv_draw_line.c:190:27
	strh.w	r0, [sp, #30]
	.loc	2 190 25 is_stmt 0              @ lvgl/src/lv_draw/lv_draw_line.c:190:25
	b	.LBB2_24
.LBB2_24:                               @   Parent Loop BB2_20 Depth=1
                                        @ =>  This Inner Loop Header: Depth=2
.Ltmp64:
	.loc	2 190 32                        @ lvgl/src/lv_draw/lv_draw_line.c:190:32
	ldrsh.w	r0, [sp, #30]
	.loc	2 190 36                        @ lvgl/src/lv_draw/lv_draw_line.c:190:36
	ldr	r1, [sp, #56]
.Ltmp65:
	.loc	2 190 21                        @ lvgl/src/lv_draw/lv_draw_line.c:190:21
	cmp	r0, r1
	bge	.LBB2_33
	b	.LBB2_25
.LBB2_25:                               @   in Loop: Header=BB2_24 Depth=2
.Ltmp66:
	.loc	2 191 28 is_stmt 1              @ lvgl/src/lv_draw/lv_draw_line.c:191:28
	ldrsh.w	r0, [sp, #32]
	.loc	2 191 40 is_stmt 0              @ lvgl/src/lv_draw/lv_draw_line.c:191:40
	ldr	r1, [sp, #104]
	.loc	2 191 45                        @ lvgl/src/lv_draw/lv_draw_line.c:191:45
	ldrsh.w	r1, [r1, #6]
.Ltmp67:
	.loc	2 191 28                        @ lvgl/src/lv_draw/lv_draw_line.c:191:28
	cmp	r0, r1
	bgt	.LBB2_27
	b	.LBB2_26
.LBB2_26:                               @   in Loop: Header=BB2_24 Depth=2
.Ltmp68:
	.loc	2 192 44 is_stmt 1              @ lvgl/src/lv_draw/lv_draw_line.c:192:44
	ldr	r0, [sp, #104]
	ldrh	r0, [r0, #6]
	.loc	2 192 62 is_stmt 0              @ lvgl/src/lv_draw/lv_draw_line.c:192:62
	ldrh.w	r1, [sp, #32]
	.loc	2 192 60                        @ lvgl/src/lv_draw/lv_draw_line.c:192:60
	subs	r0, r0, r1
	.loc	2 192 37                        @ lvgl/src/lv_draw/lv_draw_line.c:192:37
	strh.w	r0, [sp, #28]
	.loc	2 193 34 is_stmt 1              @ lvgl/src/lv_draw/lv_draw_line.c:193:34
	ldrh.w	r1, [sp, #28]
	.loc	2 193 31 is_stmt 0              @ lvgl/src/lv_draw/lv_draw_line.c:193:31
	ldrh.w	r0, [sp, #30]
	add	r0, r1
	strh.w	r0, [sp, #30]
	.loc	2 194 41 is_stmt 1              @ lvgl/src/lv_draw/lv_draw_line.c:194:41
	ldrh.w	r1, [sp, #28]
	.loc	2 194 38 is_stmt 0              @ lvgl/src/lv_draw/lv_draw_line.c:194:38
	ldrh.w	r0, [sp, #32]
	add	r0, r1
	strh.w	r0, [sp, #32]
	.loc	2 195 25 is_stmt 1              @ lvgl/src/lv_draw/lv_draw_line.c:195:25
	b	.LBB2_31
.Ltmp69:
.LBB2_27:                               @   in Loop: Header=BB2_24 Depth=2
	.loc	2 196 33                        @ lvgl/src/lv_draw/lv_draw_line.c:196:33
	ldrsh.w	r0, [sp, #32]
	.loc	2 196 45 is_stmt 0              @ lvgl/src/lv_draw/lv_draw_line.c:196:45
	ldr	r1, [sp, #104]
	.loc	2 196 66                        @ lvgl/src/lv_draw/lv_draw_line.c:196:66
	ldrsh.w	r2, [r1, #6]
	.loc	2 196 50                        @ lvgl/src/lv_draw/lv_draw_line.c:196:50
	ldrsh.w	r1, [r1, #8]
	.loc	2 196 59                        @ lvgl/src/lv_draw/lv_draw_line.c:196:59
	add	r1, r2
.Ltmp70:
	.loc	2 196 33                        @ lvgl/src/lv_draw/lv_draw_line.c:196:33
	cmp	r0, r1
	blt	.LBB2_29
	b	.LBB2_28
.LBB2_28:                               @   in Loop: Header=BB2_24 Depth=2
	.loc	2 0 33                          @ lvgl/src/lv_draw/lv_draw_line.c:0:33
	movs	r0, #0
.Ltmp71:
	.loc	2 197 38 is_stmt 1              @ lvgl/src/lv_draw/lv_draw_line.c:197:38
	strh.w	r0, [sp, #32]
	.loc	2 198 25                        @ lvgl/src/lv_draw/lv_draw_line.c:198:25
	b	.LBB2_30
.Ltmp72:
.LBB2_29:                               @   in Loop: Header=BB2_24 Depth=2
	.loc	2 200 29                        @ lvgl/src/lv_draw/lv_draw_line.c:200:29
	ldr	r1, [sp, #40]
	.loc	2 200 38 is_stmt 0              @ lvgl/src/lv_draw/lv_draw_line.c:200:38
	ldrsh.w	r2, [sp, #30]
	movs	r0, #0
	.loc	2 200 41                        @ lvgl/src/lv_draw/lv_draw_line.c:200:41
	strb	r0, [r1, r2]
	b	.LBB2_30
.Ltmp73:
.LBB2_30:                               @   in Loop: Header=BB2_24 Depth=2
	.loc	2 0 41                          @ lvgl/src/lv_draw/lv_draw_line.c:0:41
	b	.LBB2_31
.LBB2_31:                               @   in Loop: Header=BB2_24 Depth=2
	.loc	2 202 21 is_stmt 1              @ lvgl/src/lv_draw/lv_draw_line.c:202:21
	b	.LBB2_32
.Ltmp74:
.LBB2_32:                               @   in Loop: Header=BB2_24 Depth=2
	.loc	2 190 50                        @ lvgl/src/lv_draw/lv_draw_line.c:190:50
	ldrh.w	r0, [sp, #30]
	adds	r0, #1
	strh.w	r0, [sp, #30]
	.loc	2 190 62 is_stmt 0              @ lvgl/src/lv_draw/lv_draw_line.c:190:62
	ldrh.w	r0, [sp, #32]
	adds	r0, #1
	strh.w	r0, [sp, #32]
	.loc	2 190 21                        @ lvgl/src/lv_draw/lv_draw_line.c:190:21
	b	.LBB2_24
.Ltmp75:
.LBB2_33:                               @   in Loop: Header=BB2_20 Depth=1
	.loc	2 0 21                          @ lvgl/src/lv_draw/lv_draw_line.c:0:21
	movs	r0, #2
	.loc	2 204 30 is_stmt 1              @ lvgl/src/lv_draw/lv_draw_line.c:204:30
	strb.w	r0, [sp, #35]
	.loc	2 205 17                        @ lvgl/src/lv_draw/lv_draw_line.c:205:17
	b	.LBB2_34
.Ltmp76:
.LBB2_34:                               @   in Loop: Header=BB2_20 Depth=1
	.loc	2 206 13                        @ lvgl/src/lv_draw/lv_draw_line.c:206:13
	b	.LBB2_35
.Ltmp77:
.LBB2_35:                               @   in Loop: Header=BB2_20 Depth=1
	.loc	2 208 28                        @ lvgl/src/lv_draw/lv_draw_line.c:208:28
	ldr	r0, [sp, #108]
	.loc	2 209 28                        @ lvgl/src/lv_draw/lv_draw_line.c:209:28
	ldr	r2, [sp, #104]
	.loc	2 209 40 is_stmt 0              @ lvgl/src/lv_draw/lv_draw_line.c:209:40
	ldr	r3, [sp, #40]
	.loc	2 209 50                        @ lvgl/src/lv_draw/lv_draw_line.c:209:50
	ldrb.w	r1, [sp, #35]
	.loc	2 209 65                        @ lvgl/src/lv_draw/lv_draw_line.c:209:65
	ldrb.w	lr, [r2, #10]
	.loc	2 210 33 is_stmt 1              @ lvgl/src/lv_draw/lv_draw_line.c:210:33
	ldrb.w	r12, [r2, #11]
	.loc	2 208 13                        @ lvgl/src/lv_draw/lv_draw_line.c:208:13
	ldr	r2, [r2]
	and	r4, r12, #3
	mov	r12, sp
	str.w	r4, [r12, #8]
	str.w	lr, [r12, #4]
	str.w	r1, [r12]
	add	r1, sp, #48
	bl	_lv_blend_fill
	.loc	2 212 25                        @ lvgl/src/lv_draw/lv_draw_line.c:212:25
	ldrh.w	r0, [sp, #50]
	adds	r0, #1
	strh.w	r0, [sp, #50]
	.loc	2 213 25                        @ lvgl/src/lv_draw/lv_draw_line.c:213:25
	ldrh.w	r0, [sp, #54]
	adds	r0, #1
	strh.w	r0, [sp, #54]
	.loc	2 214 9                         @ lvgl/src/lv_draw/lv_draw_line.c:214:9
	b	.LBB2_36
.Ltmp78:
.LBB2_36:                               @   in Loop: Header=BB2_20 Depth=1
	.loc	2 182 51                        @ lvgl/src/lv_draw/lv_draw_line.c:182:51
	ldr	r0, [sp, #36]
	adds	r0, #1
	str	r0, [sp, #36]
	.loc	2 182 9 is_stmt 0               @ lvgl/src/lv_draw/lv_draw_line.c:182:9
	b	.LBB2_20
.Ltmp79:
.LBB2_37:
	.loc	2 215 29 is_stmt 1              @ lvgl/src/lv_draw/lv_draw_line.c:215:29
	ldr	r0, [sp, #40]
	.loc	2 215 9 is_stmt 0               @ lvgl/src/lv_draw/lv_draw_line.c:215:9
	bl	_lv_mem_buf_release
	b	.LBB2_38
.Ltmp80:
.LBB2_38:
	.loc	2 217 1 is_stmt 1               @ lvgl/src/lv_draw/lv_draw_line.c:217:1
	add	sp, #120
	pop	{r4, pc}
.Ltmp81:
.Lfunc_end2:
	.size	draw_line_hor, .Lfunc_end2-draw_line_hor
	.cfi_endproc
	.cantunwind
	.fnend
                                        @ -- End function
	.section	.text.draw_line_ver,"ax",%progbits
	.p2align	3                               @ -- Begin function draw_line_ver
	.type	draw_line_ver,%function
	.code	16                              @ @draw_line_ver
	.thumb_func
draw_line_ver:
.Lfunc_begin3:
	.loc	2 222 0                         @ lvgl/src/lv_draw/lv_draw_line.c:222:0
	.fnstart
	.cfi_startproc
@ %bb.0:
	.save	{r4, lr}
	push	{r4, lr}
	.cfi_def_cfa_offset 8
	.cfi_offset lr, -4
	.cfi_offset r4, -8
	.pad	#112
	sub	sp, #112
	.cfi_def_cfa_offset 120
	str	r0, [sp, #108]
	str	r1, [sp, #104]
	str	r2, [sp, #100]
	str	r3, [sp, #96]
.Ltmp82:
	.loc	2 223 20 prologue_end           @ lvgl/src/lv_draw/lv_draw_line.c:223:20
	ldr	r0, [sp, #96]
	.loc	2 223 25 is_stmt 0              @ lvgl/src/lv_draw/lv_draw_line.c:223:25
	ldrb	r0, [r0, #10]
	.loc	2 223 14                        @ lvgl/src/lv_draw/lv_draw_line.c:223:14
	strb.w	r0, [sp, #95]
	.loc	2 225 27 is_stmt 1              @ lvgl/src/lv_draw/lv_draw_line.c:225:27
	bl	_lv_refr_get_disp_refreshing
	.loc	2 225 17 is_stmt 0              @ lvgl/src/lv_draw/lv_draw_line.c:225:17
	str	r0, [sp, #88]
	.loc	2 226 43 is_stmt 1              @ lvgl/src/lv_draw/lv_draw_line.c:226:43
	ldr	r0, [sp, #88]
	.loc	2 226 27 is_stmt 0              @ lvgl/src/lv_draw/lv_draw_line.c:226:27
	bl	lv_disp_get_buf
	.loc	2 226 21                        @ lvgl/src/lv_draw/lv_draw_line.c:226:21
	str	r0, [sp, #84]
	.loc	2 228 36 is_stmt 1              @ lvgl/src/lv_draw/lv_draw_line.c:228:36
	ldr	r0, [sp, #84]
	.loc	2 228 41 is_stmt 0              @ lvgl/src/lv_draw/lv_draw_line.c:228:41
	adds	r0, #16
	.loc	2 228 23                        @ lvgl/src/lv_draw/lv_draw_line.c:228:23
	str	r0, [sp, #80]
	.loc	2 230 17 is_stmt 1              @ lvgl/src/lv_draw/lv_draw_line.c:230:17
	ldr	r0, [sp, #96]
	.loc	2 230 22 is_stmt 0              @ lvgl/src/lv_draw/lv_draw_line.c:230:22
	ldrsh.w	r0, [r0, #4]
	.loc	2 230 28                        @ lvgl/src/lv_draw/lv_draw_line.c:230:28
	subs	r0, #1
	.loc	2 230 13                        @ lvgl/src/lv_draw/lv_draw_line.c:230:13
	str	r0, [sp, #76]
	.loc	2 231 23 is_stmt 1              @ lvgl/src/lv_draw/lv_draw_line.c:231:23
	ldr	r0, [sp, #76]
	.loc	2 231 25 is_stmt 0              @ lvgl/src/lv_draw/lv_draw_line.c:231:25
	asrs	r0, r0, #1
	.loc	2 231 13                        @ lvgl/src/lv_draw/lv_draw_line.c:231:13
	str	r0, [sp, #72]
	.loc	2 232 23 is_stmt 1              @ lvgl/src/lv_draw/lv_draw_line.c:232:23
	ldr	r0, [sp, #72]
	.loc	2 232 34 is_stmt 0              @ lvgl/src/lv_draw/lv_draw_line.c:232:34
	ldr	r1, [sp, #76]
	.loc	2 232 36                        @ lvgl/src/lv_draw/lv_draw_line.c:232:36
	and	r1, r1, #1
	.loc	2 232 31                        @ lvgl/src/lv_draw/lv_draw_line.c:232:31
	add	r0, r1
	.loc	2 232 13                        @ lvgl/src/lv_draw/lv_draw_line.c:232:13
	str	r0, [sp, #68]
	.loc	2 234 19 is_stmt 1              @ lvgl/src/lv_draw/lv_draw_line.c:234:19
	ldr	r0, [sp, #96]
	.loc	2 234 24 is_stmt 0              @ lvgl/src/lv_draw/lv_draw_line.c:234:24
	ldrsh.w	r1, [r0, #8]
	movs	r0, #0
	.loc	2 234 33                        @ lvgl/src/lv_draw/lv_draw_line.c:234:33
	str	r0, [sp, #20]                   @ 4-byte Spill
	cbz	r1, .LBB3_2
	b	.LBB3_1
.LBB3_1:
	.loc	2 234 36                        @ lvgl/src/lv_draw/lv_draw_line.c:234:36
	ldr	r0, [sp, #96]
	.loc	2 234 41                        @ lvgl/src/lv_draw/lv_draw_line.c:234:41
	ldrsh.w	r0, [r0, #6]
	.loc	2 234 33                        @ lvgl/src/lv_draw/lv_draw_line.c:234:33
	cmp	r0, #0
	it	ne
	movne	r0, #1
	str	r0, [sp, #20]                   @ 4-byte Spill
	b	.LBB3_2
.LBB3_2:
	.loc	2 0 0                           @ lvgl/src/lv_draw/lv_draw_line.c:0:0
	ldr	r0, [sp, #20]                   @ 4-byte Reload
	.loc	2 234 19                        @ lvgl/src/lv_draw/lv_draw_line.c:234:19
	and	r0, r0, #1
	.loc	2 234 10                        @ lvgl/src/lv_draw/lv_draw_line.c:234:10
	strb.w	r0, [sp, #67]
	movs	r0, #1
	.loc	2 236 10 is_stmt 1              @ lvgl/src/lv_draw/lv_draw_line.c:236:10
	strb.w	r0, [sp, #66]
.Ltmp83:
	.loc	2 237 8                         @ lvgl/src/lv_draw/lv_draw_line.c:237:8
	bl	lv_draw_mask_get_cnt
.Ltmp84:
	.loc	2 237 8 is_stmt 0               @ lvgl/src/lv_draw/lv_draw_line.c:237:8
	cbz	r0, .LBB3_4
	b	.LBB3_3
.LBB3_3:
	.loc	2 0 8                           @ lvgl/src/lv_draw/lv_draw_line.c:0:8
	movs	r0, #0
.Ltmp85:
	.loc	2 237 44                        @ lvgl/src/lv_draw/lv_draw_line.c:237:44
	strb.w	r0, [sp, #66]
	.loc	2 237 32                        @ lvgl/src/lv_draw/lv_draw_line.c:237:32
	b	.LBB3_7
.LBB3_4:
.Ltmp86:
	.loc	2 238 13 is_stmt 1              @ lvgl/src/lv_draw/lv_draw_line.c:238:13
	ldrb.w	r0, [sp, #67]
.Ltmp87:
	.loc	2 238 13 is_stmt 0              @ lvgl/src/lv_draw/lv_draw_line.c:238:13
	lsls	r0, r0, #31
	cbz	r0, .LBB3_6
	b	.LBB3_5
.LBB3_5:
	.loc	2 0 13                          @ lvgl/src/lv_draw/lv_draw_line.c:0:13
	movs	r0, #0
.Ltmp88:
	.loc	2 238 33                        @ lvgl/src/lv_draw/lv_draw_line.c:238:33
	strb.w	r0, [sp, #66]
	.loc	2 238 21                        @ lvgl/src/lv_draw/lv_draw_line.c:238:21
	b	.LBB3_6
.Ltmp89:
.LBB3_6:
	.loc	2 0 21                          @ lvgl/src/lv_draw/lv_draw_line.c:0:21
	b	.LBB3_7
.LBB3_7:
	.loc	2 241 20 is_stmt 1              @ lvgl/src/lv_draw/lv_draw_line.c:241:20
	ldr	r0, [sp, #108]
	ldrh	r0, [r0]
	.loc	2 241 32 is_stmt 0              @ lvgl/src/lv_draw/lv_draw_line.c:241:32
	ldr	r1, [sp, #68]
	.loc	2 241 30                        @ lvgl/src/lv_draw/lv_draw_line.c:241:30
	subs	r0, r0, r1
	.loc	2 241 18                        @ lvgl/src/lv_draw/lv_draw_line.c:241:18
	strh.w	r0, [sp, #56]
	.loc	2 242 20 is_stmt 1              @ lvgl/src/lv_draw/lv_draw_line.c:242:20
	ldr	r0, [sp, #108]
	ldrh	r0, [r0]
	.loc	2 242 32 is_stmt 0              @ lvgl/src/lv_draw/lv_draw_line.c:242:32
	ldr	r1, [sp, #72]
	.loc	2 242 30                        @ lvgl/src/lv_draw/lv_draw_line.c:242:30
	add	r0, r1
	.loc	2 242 18                        @ lvgl/src/lv_draw/lv_draw_line.c:242:18
	strh.w	r0, [sp, #60]
	.loc	2 243 20 is_stmt 1              @ lvgl/src/lv_draw/lv_draw_line.c:243:20
	ldr	r0, [sp, #108]
	ldrsh.w	r0, [r0, #2]
	ldr	r1, [sp, #104]
	ldrsh.w	r1, [r1, #2]
	cmp	r0, r1
	bge	.LBB3_9
	b	.LBB3_8
.LBB3_8:
	ldr	r0, [sp, #108]
	ldrsh.w	r0, [r0, #2]
	str	r0, [sp, #16]                   @ 4-byte Spill
	b	.LBB3_10
.LBB3_9:
	ldr	r0, [sp, #104]
	ldrsh.w	r0, [r0, #2]
	str	r0, [sp, #16]                   @ 4-byte Spill
	b	.LBB3_10
.LBB3_10:
	ldr	r0, [sp, #16]                   @ 4-byte Reload
	.loc	2 243 18 is_stmt 0              @ lvgl/src/lv_draw/lv_draw_line.c:243:18
	strh.w	r0, [sp, #58]
	.loc	2 244 20 is_stmt 1              @ lvgl/src/lv_draw/lv_draw_line.c:244:20
	ldr	r0, [sp, #108]
	ldrsh.w	r0, [r0, #2]
	ldr	r1, [sp, #104]
	ldrsh.w	r1, [r1, #2]
	cmp	r0, r1
	ble	.LBB3_12
	b	.LBB3_11
.LBB3_11:
	ldr	r0, [sp, #108]
	ldrsh.w	r0, [r0, #2]
	str	r0, [sp, #12]                   @ 4-byte Spill
	b	.LBB3_13
.LBB3_12:
	ldr	r0, [sp, #104]
	ldrsh.w	r0, [r0, #2]
	str	r0, [sp, #12]                   @ 4-byte Spill
	b	.LBB3_13
.LBB3_13:
	ldr	r0, [sp, #12]                   @ 4-byte Reload
	.loc	2 244 54 is_stmt 0              @ lvgl/src/lv_draw/lv_draw_line.c:244:54
	subs	r0, #1
	.loc	2 244 18                        @ lvgl/src/lv_draw/lv_draw_line.c:244:18
	strh.w	r0, [sp, #62]
.Ltmp90:
	.loc	2 247 8 is_stmt 1               @ lvgl/src/lv_draw/lv_draw_line.c:247:8
	ldrb.w	r0, [sp, #66]
.Ltmp91:
	.loc	2 247 8 is_stmt 0               @ lvgl/src/lv_draw/lv_draw_line.c:247:8
	lsls	r0, r0, #31
	cbz	r0, .LBB3_15
	b	.LBB3_14
.LBB3_14:
.Ltmp92:
	.loc	2 248 24 is_stmt 1              @ lvgl/src/lv_draw/lv_draw_line.c:248:24
	ldr	r0, [sp, #100]
	.loc	2 249 24                        @ lvgl/src/lv_draw/lv_draw_line.c:249:24
	ldr	r2, [sp, #96]
	.loc	2 249 72 is_stmt 0              @ lvgl/src/lv_draw/lv_draw_line.c:249:72
	ldrb.w	r1, [sp, #95]
	.loc	2 250 29 is_stmt 1              @ lvgl/src/lv_draw/lv_draw_line.c:250:29
	ldrb	r3, [r2, #11]
	.loc	2 248 9                         @ lvgl/src/lv_draw/lv_draw_line.c:248:9
	ldr	r2, [r2]
	and	r12, r3, #3
	mov	r3, sp
	str.w	r12, [r3, #8]
	str	r1, [r3, #4]
	movs	r1, #1
	str	r1, [r3]
	add	r1, sp, #56
	movs	r3, #0
	bl	_lv_blend_fill
	.loc	2 251 5                         @ lvgl/src/lv_draw/lv_draw_line.c:251:5
	b	.LBB3_32
.Ltmp93:
.LBB3_15:
	.loc	2 257 52                        @ lvgl/src/lv_draw/lv_draw_line.c:257:52
	ldr	r1, [sp, #100]
	add	r2, sp, #56
	.loc	2 257 21 is_stmt 0              @ lvgl/src/lv_draw/lv_draw_line.c:257:21
	mov	r0, r2
	bl	_lv_area_intersect
	.loc	2 257 19                        @ lvgl/src/lv_draw/lv_draw_line.c:257:19
	strb.w	r0, [sp, #55]
.Ltmp94:
	.loc	2 258 13 is_stmt 1              @ lvgl/src/lv_draw/lv_draw_line.c:258:13
	ldrb.w	r0, [sp, #55]
.Ltmp95:
	.loc	2 258 12 is_stmt 0              @ lvgl/src/lv_draw/lv_draw_line.c:258:12
	lsls	r0, r0, #31
	cbnz	r0, .LBB3_17
	b	.LBB3_16
.LBB3_16:
.Ltmp96:
	.loc	2 258 24                        @ lvgl/src/lv_draw/lv_draw_line.c:258:24
	b	.LBB3_32
.Ltmp97:
.LBB3_17:
	.loc	2 262 25 is_stmt 1              @ lvgl/src/lv_draw/lv_draw_line.c:262:25
	ldr	r0, [sp, #84]
	ldrh	r1, [r0, #16]
	.loc	2 262 22 is_stmt 0              @ lvgl/src/lv_draw/lv_draw_line.c:262:22
	ldrh.w	r0, [sp, #56]
	subs	r0, r0, r1
	strh.w	r0, [sp, #56]
	.loc	2 263 25 is_stmt 1              @ lvgl/src/lv_draw/lv_draw_line.c:263:25
	ldr	r0, [sp, #84]
	ldrh	r1, [r0, #18]
	.loc	2 263 22 is_stmt 0              @ lvgl/src/lv_draw/lv_draw_line.c:263:22
	ldrh.w	r0, [sp, #58]
	subs	r0, r0, r1
	strh.w	r0, [sp, #58]
	.loc	2 264 25 is_stmt 1              @ lvgl/src/lv_draw/lv_draw_line.c:264:25
	ldr	r0, [sp, #84]
	ldrh	r1, [r0, #16]
	.loc	2 264 22 is_stmt 0              @ lvgl/src/lv_draw/lv_draw_line.c:264:22
	ldrh.w	r0, [sp, #60]
	subs	r0, r0, r1
	strh.w	r0, [sp, #60]
	.loc	2 265 25 is_stmt 1              @ lvgl/src/lv_draw/lv_draw_line.c:265:25
	ldr	r0, [sp, #84]
	ldrh	r1, [r0, #18]
	.loc	2 265 22 is_stmt 0              @ lvgl/src/lv_draw/lv_draw_line.c:265:22
	ldrh.w	r0, [sp, #62]
	subs	r0, r0, r1
	strh.w	r0, [sp, #62]
	add	r0, sp, #56
	.loc	2 267 31 is_stmt 1              @ lvgl/src/lv_draw/lv_draw_line.c:267:31
	bl	lv_area_get_width
	.loc	2 267 17 is_stmt 0              @ lvgl/src/lv_draw/lv_draw_line.c:267:17
	str	r0, [sp, #48]
	.loc	2 270 24 is_stmt 1              @ lvgl/src/lv_draw/lv_draw_line.c:270:24
	ldrh.w	r0, [sp, #56]
	.loc	2 270 39 is_stmt 0              @ lvgl/src/lv_draw/lv_draw_line.c:270:39
	ldr	r1, [sp, #80]
	ldrh	r1, [r1]
	.loc	2 270 37                        @ lvgl/src/lv_draw/lv_draw_line.c:270:37
	add	r0, r1
	.loc	2 270 22                        @ lvgl/src/lv_draw/lv_draw_line.c:270:22
	strh.w	r0, [sp, #40]
	.loc	2 271 24 is_stmt 1              @ lvgl/src/lv_draw/lv_draw_line.c:271:24
	ldrh.w	r0, [sp, #60]
	.loc	2 271 39 is_stmt 0              @ lvgl/src/lv_draw/lv_draw_line.c:271:39
	ldr	r1, [sp, #80]
	ldrh	r1, [r1]
	.loc	2 271 37                        @ lvgl/src/lv_draw/lv_draw_line.c:271:37
	add	r0, r1
	.loc	2 271 22                        @ lvgl/src/lv_draw/lv_draw_line.c:271:22
	strh.w	r0, [sp, #44]
	.loc	2 272 24 is_stmt 1              @ lvgl/src/lv_draw/lv_draw_line.c:272:24
	ldrh.w	r0, [sp, #58]
	.loc	2 272 39 is_stmt 0              @ lvgl/src/lv_draw/lv_draw_line.c:272:39
	ldr	r1, [sp, #80]
	ldrh	r1, [r1, #2]
	.loc	2 272 37                        @ lvgl/src/lv_draw/lv_draw_line.c:272:37
	add	r0, r1
	.loc	2 272 22                        @ lvgl/src/lv_draw/lv_draw_line.c:272:22
	strh.w	r0, [sp, #42]
	.loc	2 273 34 is_stmt 1              @ lvgl/src/lv_draw/lv_draw_line.c:273:34
	ldrh.w	r0, [sp, #42]
	.loc	2 273 22 is_stmt 0              @ lvgl/src/lv_draw/lv_draw_line.c:273:22
	strh.w	r0, [sp, #46]
	.loc	2 275 47 is_stmt 1              @ lvgl/src/lv_draw/lv_draw_line.c:275:47
	ldr	r0, [sp, #48]
	.loc	2 275 31 is_stmt 0              @ lvgl/src/lv_draw/lv_draw_line.c:275:31
	bl	_lv_mem_buf_get
	.loc	2 275 20                        @ lvgl/src/lv_draw/lv_draw_line.c:275:20
	str	r0, [sp, #36]
	movs	r0, #0
	.loc	2 277 24 is_stmt 1              @ lvgl/src/lv_draw/lv_draw_line.c:277:24
	strh.w	r0, [sp, #34]
.Ltmp98:
	.loc	2 278 12                        @ lvgl/src/lv_draw/lv_draw_line.c:278:12
	ldrb.w	r0, [sp, #67]
.Ltmp99:
	.loc	2 278 12 is_stmt 0              @ lvgl/src/lv_draw/lv_draw_line.c:278:12
	lsls	r0, r0, #31
	cbz	r0, .LBB3_19
	b	.LBB3_18
.LBB3_18:
.Ltmp100:
	.loc	2 279 27 is_stmt 1              @ lvgl/src/lv_draw/lv_draw_line.c:279:27
	ldr	r0, [sp, #84]
	.loc	2 279 37 is_stmt 0              @ lvgl/src/lv_draw/lv_draw_line.c:279:37
	ldrsh.w	r0, [r0, #18]
	.loc	2 279 52                        @ lvgl/src/lv_draw/lv_draw_line.c:279:52
	ldrsh.w	r1, [sp, #58]
	.loc	2 279 40                        @ lvgl/src/lv_draw/lv_draw_line.c:279:40
	adds	r2, r0, r1
	.loc	2 279 59                        @ lvgl/src/lv_draw/lv_draw_line.c:279:59
	ldr	r0, [sp, #96]
	.loc	2 279 80                        @ lvgl/src/lv_draw/lv_draw_line.c:279:80
	ldrsh.w	r1, [r0, #6]
	.loc	2 279 64                        @ lvgl/src/lv_draw/lv_draw_line.c:279:64
	ldrsh.w	r0, [r0, #8]
	.loc	2 279 73                        @ lvgl/src/lv_draw/lv_draw_line.c:279:73
	add	r1, r0
	.loc	2 279 56                        @ lvgl/src/lv_draw/lv_draw_line.c:279:56
	sdiv	r0, r2, r1
	mls	r0, r0, r1, r2
	.loc	2 279 24                        @ lvgl/src/lv_draw/lv_draw_line.c:279:24
	strh.w	r0, [sp, #34]
	.loc	2 280 9 is_stmt 1               @ lvgl/src/lv_draw/lv_draw_line.c:280:9
	b	.LBB3_19
.Ltmp101:
.LBB3_19:
	.loc	2 282 35                        @ lvgl/src/lv_draw/lv_draw_line.c:282:35
	ldrh.w	r0, [sp, #34]
	.loc	2 282 24 is_stmt 0              @ lvgl/src/lv_draw/lv_draw_line.c:282:24
	strh.w	r0, [sp, #32]
.Ltmp102:
	.loc	2 285 27 is_stmt 1              @ lvgl/src/lv_draw/lv_draw_line.c:285:27
	ldrsh.w	r0, [sp, #58]
	.loc	2 285 15 is_stmt 0              @ lvgl/src/lv_draw/lv_draw_line.c:285:15
	str	r0, [sp, #28]
	.loc	2 285 13                        @ lvgl/src/lv_draw/lv_draw_line.c:285:13
	b	.LBB3_20
.LBB3_20:                               @ =>This Inner Loop Header: Depth=1
.Ltmp103:
	.loc	2 285 31                        @ lvgl/src/lv_draw/lv_draw_line.c:285:31
	ldr	r0, [sp, #28]
	.loc	2 285 46                        @ lvgl/src/lv_draw/lv_draw_line.c:285:46
	ldrsh.w	r1, [sp, #62]
.Ltmp104:
	.loc	2 285 9                         @ lvgl/src/lv_draw/lv_draw_line.c:285:9
	cmp	r0, r1
	bgt	.LBB3_31
	b	.LBB3_21
.LBB3_21:                               @   in Loop: Header=BB3_20 Depth=1
.Ltmp105:
	.loc	2 286 27 is_stmt 1              @ lvgl/src/lv_draw/lv_draw_line.c:286:27
	ldr	r0, [sp, #36]
	.loc	2 286 37 is_stmt 0              @ lvgl/src/lv_draw/lv_draw_line.c:286:37
	ldr	r1, [sp, #48]
	.loc	2 286 13                        @ lvgl/src/lv_draw/lv_draw_line.c:286:13
	bl	_lv_memset_ff
	.loc	2 287 62 is_stmt 1              @ lvgl/src/lv_draw/lv_draw_line.c:287:62
	ldr	r0, [sp, #36]
	.loc	2 287 72 is_stmt 0              @ lvgl/src/lv_draw/lv_draw_line.c:287:72
	ldr	r2, [sp, #84]
	ldrh	r1, [r2, #16]
	.loc	2 287 87                        @ lvgl/src/lv_draw/lv_draw_line.c:287:87
	ldrh.w	r3, [sp, #56]
	.loc	2 287 85                        @ lvgl/src/lv_draw/lv_draw_line.c:287:85
	add	r1, r3
	.loc	2 287 101                       @ lvgl/src/lv_draw/lv_draw_line.c:287:101
	ldrh	r2, [r2, #18]
	.loc	2 287 116                       @ lvgl/src/lv_draw/lv_draw_line.c:287:116
	ldr	r3, [sp, #28]
	.loc	2 287 114                       @ lvgl/src/lv_draw/lv_draw_line.c:287:114
	add	r2, r3
	.loc	2 287 119                       @ lvgl/src/lv_draw/lv_draw_line.c:287:119
	ldrsh.w	r3, [sp, #48]
	.loc	2 287 43                        @ lvgl/src/lv_draw/lv_draw_line.c:287:43
	sxth	r1, r1
	sxth	r2, r2
	bl	lv_draw_mask_apply
	.loc	2 287 32                        @ lvgl/src/lv_draw/lv_draw_line.c:287:32
	strb.w	r0, [sp, #27]
.Ltmp106:
	.loc	2 289 16 is_stmt 1              @ lvgl/src/lv_draw/lv_draw_line.c:289:16
	ldrb.w	r0, [sp, #67]
.Ltmp107:
	.loc	2 289 16 is_stmt 0              @ lvgl/src/lv_draw/lv_draw_line.c:289:16
	lsls	r0, r0, #31
	cbz	r0, .LBB3_29
	b	.LBB3_22
.LBB3_22:                               @   in Loop: Header=BB3_20 Depth=1
.Ltmp108:
	.loc	2 290 20 is_stmt 1              @ lvgl/src/lv_draw/lv_draw_line.c:290:20
	ldrb.w	r0, [sp, #27]
.Ltmp109:
	.loc	2 290 20 is_stmt 0              @ lvgl/src/lv_draw/lv_draw_line.c:290:20
	cbz	r0, .LBB3_28
	b	.LBB3_23
.LBB3_23:                               @   in Loop: Header=BB3_20 Depth=1
.Ltmp110:
	.loc	2 291 24 is_stmt 1              @ lvgl/src/lv_draw/lv_draw_line.c:291:24
	ldrsh.w	r0, [sp, #32]
	.loc	2 291 35 is_stmt 0              @ lvgl/src/lv_draw/lv_draw_line.c:291:35
	ldr	r1, [sp, #96]
	.loc	2 291 40                        @ lvgl/src/lv_draw/lv_draw_line.c:291:40
	ldrsh.w	r1, [r1, #6]
.Ltmp111:
	.loc	2 291 24                        @ lvgl/src/lv_draw/lv_draw_line.c:291:24
	cmp	r0, r1
	ble	.LBB3_25
	b	.LBB3_24
.LBB3_24:                               @   in Loop: Header=BB3_20 Depth=1
	.loc	2 0 24                          @ lvgl/src/lv_draw/lv_draw_line.c:0:24
	movs	r0, #0
.Ltmp112:
	.loc	2 292 34 is_stmt 1              @ lvgl/src/lv_draw/lv_draw_line.c:292:34
	strb.w	r0, [sp, #27]
	.loc	2 293 21                        @ lvgl/src/lv_draw/lv_draw_line.c:293:21
	b	.LBB3_25
.Ltmp113:
.LBB3_25:                               @   in Loop: Header=BB3_20 Depth=1
	.loc	2 295 24                        @ lvgl/src/lv_draw/lv_draw_line.c:295:24
	ldrsh.w	r0, [sp, #32]
	.loc	2 295 36 is_stmt 0              @ lvgl/src/lv_draw/lv_draw_line.c:295:36
	ldr	r1, [sp, #96]
	.loc	2 295 57                        @ lvgl/src/lv_draw/lv_draw_line.c:295:57
	ldrsh.w	r2, [r1, #6]
	.loc	2 295 41                        @ lvgl/src/lv_draw/lv_draw_line.c:295:41
	ldrsh.w	r1, [r1, #8]
	.loc	2 295 50                        @ lvgl/src/lv_draw/lv_draw_line.c:295:50
	add	r1, r2
.Ltmp114:
	.loc	2 295 24                        @ lvgl/src/lv_draw/lv_draw_line.c:295:24
	cmp	r0, r1
	blt	.LBB3_27
	b	.LBB3_26
.LBB3_26:                               @   in Loop: Header=BB3_20 Depth=1
	.loc	2 0 24                          @ lvgl/src/lv_draw/lv_draw_line.c:0:24
	movs	r0, #0
.Ltmp115:
	.loc	2 296 34 is_stmt 1              @ lvgl/src/lv_draw/lv_draw_line.c:296:34
	strh.w	r0, [sp, #32]
	.loc	2 297 21                        @ lvgl/src/lv_draw/lv_draw_line.c:297:21
	b	.LBB3_27
.Ltmp116:
.LBB3_27:                               @   in Loop: Header=BB3_20 Depth=1
	.loc	2 298 17                        @ lvgl/src/lv_draw/lv_draw_line.c:298:17
	b	.LBB3_28
.Ltmp117:
.LBB3_28:                               @   in Loop: Header=BB3_20 Depth=1
	.loc	2 299 26                        @ lvgl/src/lv_draw/lv_draw_line.c:299:26
	ldrh.w	r0, [sp, #32]
	adds	r0, #1
	strh.w	r0, [sp, #32]
	.loc	2 300 13                        @ lvgl/src/lv_draw/lv_draw_line.c:300:13
	b	.LBB3_29
.Ltmp118:
.LBB3_29:                               @   in Loop: Header=BB3_20 Depth=1
	.loc	2 302 28                        @ lvgl/src/lv_draw/lv_draw_line.c:302:28
	ldr	r0, [sp, #100]
	.loc	2 303 28                        @ lvgl/src/lv_draw/lv_draw_line.c:303:28
	ldr	r2, [sp, #96]
	.loc	2 303 40 is_stmt 0              @ lvgl/src/lv_draw/lv_draw_line.c:303:40
	ldr	r3, [sp, #36]
	.loc	2 303 50                        @ lvgl/src/lv_draw/lv_draw_line.c:303:50
	ldrb.w	r1, [sp, #27]
	.loc	2 303 65                        @ lvgl/src/lv_draw/lv_draw_line.c:303:65
	ldrb.w	lr, [r2, #10]
	.loc	2 302 13 is_stmt 1              @ lvgl/src/lv_draw/lv_draw_line.c:302:13
	ldr	r2, [r2]
	mov	r12, sp
	movs	r4, #0
	str.w	r4, [r12, #8]
	str.w	lr, [r12, #4]
	str.w	r1, [r12]
	add	r1, sp, #40
	bl	_lv_blend_fill
	.loc	2 306 25                        @ lvgl/src/lv_draw/lv_draw_line.c:306:25
	ldrh.w	r0, [sp, #42]
	adds	r0, #1
	strh.w	r0, [sp, #42]
	.loc	2 307 25                        @ lvgl/src/lv_draw/lv_draw_line.c:307:25
	ldrh.w	r0, [sp, #46]
	adds	r0, #1
	strh.w	r0, [sp, #46]
	.loc	2 308 9                         @ lvgl/src/lv_draw/lv_draw_line.c:308:9
	b	.LBB3_30
.Ltmp119:
.LBB3_30:                               @   in Loop: Header=BB3_20 Depth=1
	.loc	2 285 51                        @ lvgl/src/lv_draw/lv_draw_line.c:285:51
	ldr	r0, [sp, #28]
	adds	r0, #1
	str	r0, [sp, #28]
	.loc	2 285 9 is_stmt 0               @ lvgl/src/lv_draw/lv_draw_line.c:285:9
	b	.LBB3_20
.Ltmp120:
.LBB3_31:
	.loc	2 309 29 is_stmt 1              @ lvgl/src/lv_draw/lv_draw_line.c:309:29
	ldr	r0, [sp, #36]
	.loc	2 309 9 is_stmt 0               @ lvgl/src/lv_draw/lv_draw_line.c:309:9
	bl	_lv_mem_buf_release
	b	.LBB3_32
.Ltmp121:
.LBB3_32:
	.loc	2 311 1 is_stmt 1               @ lvgl/src/lv_draw/lv_draw_line.c:311:1
	add	sp, #112
	pop	{r4, pc}
.Ltmp122:
.Lfunc_end3:
	.size	draw_line_ver, .Lfunc_end3-draw_line_ver
	.cfi_endproc
	.cantunwind
	.fnend
                                        @ -- End function
	.section	.text.draw_line_skew,"ax",%progbits
	.p2align	3                               @ -- Begin function draw_line_skew
	.type	draw_line_skew,%function
	.code	16                              @ @draw_line_skew
	.thumb_func
draw_line_skew:
.Lfunc_begin4:
	.loc	2 316 0                         @ lvgl/src/lv_draw/lv_draw_line.c:316:0
	.fnstart
	.cfi_startproc
@ %bb.0:
	.save	{r7, lr}
	push	{r7, lr}
	.cfi_def_cfa_offset 8
	.cfi_offset lr, -4
	.cfi_offset r7, -8
	.pad	#392
	sub	sp, #392
	.cfi_def_cfa_offset 400
	str	r0, [sp, #388]
	str	r1, [sp, #384]
	str	r2, [sp, #380]
	str	r3, [sp, #376]
.Ltmp123:
	.loc	2 320 8 prologue_end            @ lvgl/src/lv_draw/lv_draw_line.c:320:8
	ldr	r0, [sp, #388]
	.loc	2 320 16 is_stmt 0              @ lvgl/src/lv_draw/lv_draw_line.c:320:16
	ldrsh.w	r0, [r0, #2]
	.loc	2 320 20                        @ lvgl/src/lv_draw/lv_draw_line.c:320:20
	ldr	r1, [sp, #384]
	.loc	2 320 28                        @ lvgl/src/lv_draw/lv_draw_line.c:320:28
	ldrsh.w	r1, [r1, #2]
.Ltmp124:
	.loc	2 320 8                         @ lvgl/src/lv_draw/lv_draw_line.c:320:8
	cmp	r0, r1
	bge	.LBB4_2
	b	.LBB4_1
.LBB4_1:
.Ltmp125:
	.loc	2 321 16 is_stmt 1              @ lvgl/src/lv_draw/lv_draw_line.c:321:16
	ldr	r0, [sp, #388]
	.loc	2 321 24 is_stmt 0              @ lvgl/src/lv_draw/lv_draw_line.c:321:24
	ldrh	r0, [r0, #2]
	.loc	2 321 14                        @ lvgl/src/lv_draw/lv_draw_line.c:321:14
	strh.w	r0, [sp, #374]
	.loc	2 322 16 is_stmt 1              @ lvgl/src/lv_draw/lv_draw_line.c:322:16
	ldr	r0, [sp, #384]
	.loc	2 322 24 is_stmt 0              @ lvgl/src/lv_draw/lv_draw_line.c:322:24
	ldrh	r0, [r0, #2]
	.loc	2 322 14                        @ lvgl/src/lv_draw/lv_draw_line.c:322:14
	strh.w	r0, [sp, #370]
	.loc	2 323 16 is_stmt 1              @ lvgl/src/lv_draw/lv_draw_line.c:323:16
	ldr	r0, [sp, #388]
	.loc	2 323 24 is_stmt 0              @ lvgl/src/lv_draw/lv_draw_line.c:323:24
	ldrh	r0, [r0]
	.loc	2 323 14                        @ lvgl/src/lv_draw/lv_draw_line.c:323:14
	strh.w	r0, [sp, #372]
	.loc	2 324 16 is_stmt 1              @ lvgl/src/lv_draw/lv_draw_line.c:324:16
	ldr	r0, [sp, #384]
	.loc	2 324 24 is_stmt 0              @ lvgl/src/lv_draw/lv_draw_line.c:324:24
	ldrh	r0, [r0]
	.loc	2 324 14                        @ lvgl/src/lv_draw/lv_draw_line.c:324:14
	strh.w	r0, [sp, #368]
	.loc	2 325 5 is_stmt 1               @ lvgl/src/lv_draw/lv_draw_line.c:325:5
	b	.LBB4_3
.Ltmp126:
.LBB4_2:
	.loc	2 327 16                        @ lvgl/src/lv_draw/lv_draw_line.c:327:16
	ldr	r0, [sp, #384]
	.loc	2 327 24 is_stmt 0              @ lvgl/src/lv_draw/lv_draw_line.c:327:24
	ldrh	r0, [r0, #2]
	.loc	2 327 14                        @ lvgl/src/lv_draw/lv_draw_line.c:327:14
	strh.w	r0, [sp, #374]
	.loc	2 328 16 is_stmt 1              @ lvgl/src/lv_draw/lv_draw_line.c:328:16
	ldr	r0, [sp, #388]
	.loc	2 328 24 is_stmt 0              @ lvgl/src/lv_draw/lv_draw_line.c:328:24
	ldrh	r0, [r0, #2]
	.loc	2 328 14                        @ lvgl/src/lv_draw/lv_draw_line.c:328:14
	strh.w	r0, [sp, #370]
	.loc	2 329 16 is_stmt 1              @ lvgl/src/lv_draw/lv_draw_line.c:329:16
	ldr	r0, [sp, #384]
	.loc	2 329 24 is_stmt 0              @ lvgl/src/lv_draw/lv_draw_line.c:329:24
	ldrh	r0, [r0]
	.loc	2 329 14                        @ lvgl/src/lv_draw/lv_draw_line.c:329:14
	strh.w	r0, [sp, #372]
	.loc	2 330 16 is_stmt 1              @ lvgl/src/lv_draw/lv_draw_line.c:330:16
	ldr	r0, [sp, #388]
	.loc	2 330 24 is_stmt 0              @ lvgl/src/lv_draw/lv_draw_line.c:330:24
	ldrh	r0, [r0]
	.loc	2 330 14                        @ lvgl/src/lv_draw/lv_draw_line.c:330:14
	strh.w	r0, [sp, #368]
	b	.LBB4_3
.Ltmp127:
.LBB4_3:
	.loc	2 333 24 is_stmt 1              @ lvgl/src/lv_draw/lv_draw_line.c:333:24
	ldrsh.w	r0, [sp, #368]
	.loc	2 333 31 is_stmt 0              @ lvgl/src/lv_draw/lv_draw_line.c:333:31
	ldrsh.w	r1, [sp, #372]
	.loc	2 333 26                        @ lvgl/src/lv_draw/lv_draw_line.c:333:26
	subs	r0, r0, r1
	.loc	2 333 13                        @ lvgl/src/lv_draw/lv_draw_line.c:333:13
	str	r0, [sp, #364]
	.loc	2 334 24 is_stmt 1              @ lvgl/src/lv_draw/lv_draw_line.c:334:24
	ldrsh.w	r0, [sp, #370]
	.loc	2 334 31 is_stmt 0              @ lvgl/src/lv_draw/lv_draw_line.c:334:31
	ldrsh.w	r1, [sp, #374]
	.loc	2 334 26                        @ lvgl/src/lv_draw/lv_draw_line.c:334:26
	subs	r0, r0, r1
	.loc	2 334 13                        @ lvgl/src/lv_draw/lv_draw_line.c:334:13
	str	r0, [sp, #360]
	.loc	2 335 17 is_stmt 1              @ lvgl/src/lv_draw/lv_draw_line.c:335:17
	ldr	r0, [sp, #364]
	cmp	r0, #1
	blt	.LBB4_5
	b	.LBB4_4
.LBB4_4:
	ldr	r0, [sp, #364]
	str	r0, [sp, #88]                   @ 4-byte Spill
	b	.LBB4_6
.LBB4_5:
	ldr	r0, [sp, #364]
	rsbs	r0, r0, #0
	str	r0, [sp, #88]                   @ 4-byte Spill
	b	.LBB4_6
.LBB4_6:
	ldr	r0, [sp, #88]                   @ 4-byte Reload
	.loc	2 335 38 is_stmt 0              @ lvgl/src/lv_draw/lv_draw_line.c:335:38
	str	r0, [sp, #84]                   @ 4-byte Spill
	ldr	r0, [sp, #360]
	cmp	r0, #1
	blt	.LBB4_8
	b	.LBB4_7
.LBB4_7:
	ldr	r0, [sp, #360]
	str	r0, [sp, #80]                   @ 4-byte Spill
	b	.LBB4_9
.LBB4_8:
	ldr	r0, [sp, #360]
	rsbs	r0, r0, #0
	str	r0, [sp, #80]                   @ 4-byte Spill
	b	.LBB4_9
.LBB4_9:
	ldr	r1, [sp, #84]                   @ 4-byte Reload
	ldr	r2, [sp, #80]                   @ 4-byte Reload
	movs	r0, #0
	.loc	2 335 36                        @ lvgl/src/lv_draw/lv_draw_line.c:335:36
	cmp	r1, r2
	mov	r1, r0
	it	gt
	movgt	r1, #1
	.loc	2 335 10                        @ lvgl/src/lv_draw/lv_draw_line.c:335:10
	strb.w	r1, [sp, #359]
	.loc	2 345 17 is_stmt 1              @ lvgl/src/lv_draw/lv_draw_line.c:345:17
	ldr	r1, [sp, #376]
	.loc	2 345 22 is_stmt 0              @ lvgl/src/lv_draw/lv_draw_line.c:345:22
	ldrsh.w	r1, [r1, #4]
	.loc	2 345 13                        @ lvgl/src/lv_draw/lv_draw_line.c:345:13
	str	r1, [sp, #352]
	.loc	2 346 13 is_stmt 1              @ lvgl/src/lv_draw/lv_draw_line.c:346:13
	str	r0, [sp, #348]
.Ltmp128:
	.loc	2 347 8                         @ lvgl/src/lv_draw/lv_draw_line.c:347:8
	ldrb.w	r0, [sp, #359]
.Ltmp129:
	.loc	2 347 8 is_stmt 0               @ lvgl/src/lv_draw/lv_draw_line.c:347:8
	lsls	r0, r0, #31
	cbz	r0, .LBB4_17
	b	.LBB4_10
.LBB4_10:
.Ltmp130:
	.loc	2 347 25                        @ lvgl/src/lv_draw/lv_draw_line.c:347:25
	ldr	r0, [sp, #360]
	cmp	r0, #1
	blt	.LBB4_12
	b	.LBB4_11
.LBB4_11:
	ldr	r0, [sp, #360]
	str	r0, [sp, #76]                   @ 4-byte Spill
	b	.LBB4_13
.LBB4_12:
	ldr	r0, [sp, #360]
	rsbs	r0, r0, #0
	str	r0, [sp, #76]                   @ 4-byte Spill
	b	.LBB4_13
.LBB4_13:
	ldr	r0, [sp, #76]                   @ 4-byte Reload
	.loc	2 347 44                        @ lvgl/src/lv_draw/lv_draw_line.c:347:44
	lsls	r0, r0, #5
	.loc	2 347 52                        @ lvgl/src/lv_draw/lv_draw_line.c:347:52
	str	r0, [sp, #72]                   @ 4-byte Spill
	ldr	r0, [sp, #364]
	cmp	r0, #1
	blt	.LBB4_15
	b	.LBB4_14
.LBB4_14:
	ldr	r0, [sp, #364]
	str	r0, [sp, #68]                   @ 4-byte Spill
	b	.LBB4_16
.LBB4_15:
	ldr	r0, [sp, #364]
	rsbs	r0, r0, #0
	str	r0, [sp, #68]                   @ 4-byte Spill
	b	.LBB4_16
.LBB4_16:
	ldr	r0, [sp, #72]                   @ 4-byte Reload
	ldr	r1, [sp, #68]                   @ 4-byte Reload
	.loc	2 347 50                        @ lvgl/src/lv_draw/lv_draw_line.c:347:50
	sdiv	r0, r0, r1
	.loc	2 347 22                        @ lvgl/src/lv_draw/lv_draw_line.c:347:22
	str	r0, [sp, #348]
	.loc	2 347 14                        @ lvgl/src/lv_draw/lv_draw_line.c:347:14
	b	.LBB4_24
.LBB4_17:
	.loc	2 348 21 is_stmt 1              @ lvgl/src/lv_draw/lv_draw_line.c:348:21
	ldr	r0, [sp, #364]
	cmp	r0, #1
	blt	.LBB4_19
	b	.LBB4_18
.LBB4_18:
	ldr	r0, [sp, #364]
	str	r0, [sp, #64]                   @ 4-byte Spill
	b	.LBB4_20
.LBB4_19:
	ldr	r0, [sp, #364]
	rsbs	r0, r0, #0
	str	r0, [sp, #64]                   @ 4-byte Spill
	b	.LBB4_20
.LBB4_20:
	ldr	r0, [sp, #64]                   @ 4-byte Reload
	.loc	2 348 40 is_stmt 0              @ lvgl/src/lv_draw/lv_draw_line.c:348:40
	lsls	r0, r0, #5
	.loc	2 348 48                        @ lvgl/src/lv_draw/lv_draw_line.c:348:48
	str	r0, [sp, #60]                   @ 4-byte Spill
	ldr	r0, [sp, #360]
	cmp	r0, #1
	blt	.LBB4_22
	b	.LBB4_21
.LBB4_21:
	ldr	r0, [sp, #360]
	str	r0, [sp, #56]                   @ 4-byte Spill
	b	.LBB4_23
.LBB4_22:
	ldr	r0, [sp, #360]
	rsbs	r0, r0, #0
	str	r0, [sp, #56]                   @ 4-byte Spill
	b	.LBB4_23
.LBB4_23:
	ldr	r0, [sp, #60]                   @ 4-byte Reload
	ldr	r1, [sp, #56]                   @ 4-byte Reload
	.loc	2 348 46                        @ lvgl/src/lv_draw/lv_draw_line.c:348:46
	sdiv	r0, r0, r1
	.loc	2 348 18                        @ lvgl/src/lv_draw/lv_draw_line.c:348:18
	str	r0, [sp, #348]
	b	.LBB4_24
.Ltmp131:
.LBB4_24:
	.loc	2 350 10 is_stmt 1              @ lvgl/src/lv_draw/lv_draw_line.c:350:10
	ldr	r0, [sp, #352]
	.loc	2 350 20 is_stmt 0              @ lvgl/src/lv_draw/lv_draw_line.c:350:20
	ldr	r2, [sp, #348]
	.loc	2 350 14                        @ lvgl/src/lv_draw/lv_draw_line.c:350:14
	movw	r1, :lower16:draw_line_skew.wcorr
	movt	r1, :upper16:draw_line_skew.wcorr
	ldrb	r1, [r1, r2]
	.loc	2 350 12                        @ lvgl/src/lv_draw/lv_draw_line.c:350:12
	muls	r0, r1, r0
	.loc	2 350 29                        @ lvgl/src/lv_draw/lv_draw_line.c:350:29
	adds	r0, #63
	.loc	2 350 35                        @ lvgl/src/lv_draw/lv_draw_line.c:350:35
	asrs	r0, r0, #7
	.loc	2 350 7                         @ lvgl/src/lv_draw/lv_draw_line.c:350:7
	str	r0, [sp, #352]
	.loc	2 351 23 is_stmt 1              @ lvgl/src/lv_draw/lv_draw_line.c:351:23
	ldr	r0, [sp, #352]
	.loc	2 351 25 is_stmt 0              @ lvgl/src/lv_draw/lv_draw_line.c:351:25
	asrs	r0, r0, #1
	.loc	2 351 13                        @ lvgl/src/lv_draw/lv_draw_line.c:351:13
	str	r0, [sp, #344]
	.loc	2 352 23 is_stmt 1              @ lvgl/src/lv_draw/lv_draw_line.c:352:23
	ldr	r0, [sp, #344]
	.loc	2 352 34 is_stmt 0              @ lvgl/src/lv_draw/lv_draw_line.c:352:34
	ldr	r1, [sp, #352]
	.loc	2 352 36                        @ lvgl/src/lv_draw/lv_draw_line.c:352:36
	and	r1, r1, #1
	.loc	2 352 31                        @ lvgl/src/lv_draw/lv_draw_line.c:352:31
	add	r0, r1
	.loc	2 352 13                        @ lvgl/src/lv_draw/lv_draw_line.c:352:13
	str	r0, [sp, #340]
	.loc	2 355 20 is_stmt 1              @ lvgl/src/lv_draw/lv_draw_line.c:355:20
	ldrsh.w	r0, [sp, #372]
	ldrsh.w	r1, [sp, #368]
	cmp	r0, r1
	bge	.LBB4_26
	b	.LBB4_25
.LBB4_25:
	ldrsh.w	r0, [sp, #372]
	str	r0, [sp, #52]                   @ 4-byte Spill
	b	.LBB4_27
.LBB4_26:
	ldrsh.w	r0, [sp, #368]
	str	r0, [sp, #52]                   @ 4-byte Spill
	b	.LBB4_27
.LBB4_27:
	ldr	r0, [sp, #52]                   @ 4-byte Reload
	.loc	2 355 46 is_stmt 0              @ lvgl/src/lv_draw/lv_draw_line.c:355:46
	ldr	r1, [sp, #352]
	.loc	2 355 44                        @ lvgl/src/lv_draw/lv_draw_line.c:355:44
	subs	r0, r0, r1
	.loc	2 355 18                        @ lvgl/src/lv_draw/lv_draw_line.c:355:18
	strh.w	r0, [sp, #332]
	.loc	2 356 20 is_stmt 1              @ lvgl/src/lv_draw/lv_draw_line.c:356:20
	ldrsh.w	r0, [sp, #372]
	ldrsh.w	r1, [sp, #368]
	cmp	r0, r1
	ble	.LBB4_29
	b	.LBB4_28
.LBB4_28:
	ldrsh.w	r0, [sp, #372]
	str	r0, [sp, #48]                   @ 4-byte Spill
	b	.LBB4_30
.LBB4_29:
	ldrsh.w	r0, [sp, #368]
	str	r0, [sp, #48]                   @ 4-byte Spill
	b	.LBB4_30
.LBB4_30:
	ldr	r0, [sp, #48]                   @ 4-byte Reload
	.loc	2 356 46 is_stmt 0              @ lvgl/src/lv_draw/lv_draw_line.c:356:46
	ldr	r1, [sp, #352]
	.loc	2 356 44                        @ lvgl/src/lv_draw/lv_draw_line.c:356:44
	add	r0, r1
	.loc	2 356 18                        @ lvgl/src/lv_draw/lv_draw_line.c:356:18
	strh.w	r0, [sp, #336]
	.loc	2 357 20 is_stmt 1              @ lvgl/src/lv_draw/lv_draw_line.c:357:20
	ldrsh.w	r0, [sp, #374]
	ldrsh.w	r1, [sp, #370]
	cmp	r0, r1
	bge	.LBB4_32
	b	.LBB4_31
.LBB4_31:
	ldrsh.w	r0, [sp, #374]
	str	r0, [sp, #44]                   @ 4-byte Spill
	b	.LBB4_33
.LBB4_32:
	ldrsh.w	r0, [sp, #370]
	str	r0, [sp, #44]                   @ 4-byte Spill
	b	.LBB4_33
.LBB4_33:
	ldr	r0, [sp, #44]                   @ 4-byte Reload
	.loc	2 357 46 is_stmt 0              @ lvgl/src/lv_draw/lv_draw_line.c:357:46
	ldr	r1, [sp, #352]
	.loc	2 357 44                        @ lvgl/src/lv_draw/lv_draw_line.c:357:44
	subs	r0, r0, r1
	.loc	2 357 18                        @ lvgl/src/lv_draw/lv_draw_line.c:357:18
	strh.w	r0, [sp, #334]
	.loc	2 358 20 is_stmt 1              @ lvgl/src/lv_draw/lv_draw_line.c:358:20
	ldrsh.w	r0, [sp, #374]
	ldrsh.w	r1, [sp, #370]
	cmp	r0, r1
	ble	.LBB4_35
	b	.LBB4_34
.LBB4_34:
	ldrsh.w	r0, [sp, #374]
	str	r0, [sp, #40]                   @ 4-byte Spill
	b	.LBB4_36
.LBB4_35:
	ldrsh.w	r0, [sp, #370]
	str	r0, [sp, #40]                   @ 4-byte Spill
	b	.LBB4_36
.LBB4_36:
	ldr	r0, [sp, #40]                   @ 4-byte Reload
	.loc	2 358 46 is_stmt 0              @ lvgl/src/lv_draw/lv_draw_line.c:358:46
	ldr	r1, [sp, #352]
	.loc	2 358 44                        @ lvgl/src/lv_draw/lv_draw_line.c:358:44
	add	r0, r1
	.loc	2 358 18                        @ lvgl/src/lv_draw/lv_draw_line.c:358:18
	strh.w	r0, [sp, #338]
	.loc	2 363 65 is_stmt 1              @ lvgl/src/lv_draw/lv_draw_line.c:363:65
	ldr	r2, [sp, #380]
	add	r1, sp, #332
	.loc	2 363 22 is_stmt 0              @ lvgl/src/lv_draw/lv_draw_line.c:363:22
	mov	r0, r1
	bl	_lv_area_intersect
	.loc	2 363 10                        @ lvgl/src/lv_draw/lv_draw_line.c:363:10
	strb.w	r0, [sp, #331]
.Ltmp132:
	.loc	2 364 8 is_stmt 1               @ lvgl/src/lv_draw/lv_draw_line.c:364:8
	ldrb.w	r0, [sp, #331]
.Ltmp133:
	.loc	2 364 8 is_stmt 0               @ lvgl/src/lv_draw/lv_draw_line.c:364:8
	lsls	r0, r0, #31
	cbnz	r0, .LBB4_38
	b	.LBB4_37
.LBB4_37:
.Ltmp134:
	.loc	2 364 28                        @ lvgl/src/lv_draw/lv_draw_line.c:364:28
	b	.LBB4_61
.Ltmp135:
.LBB4_38:
	.loc	2 371 8 is_stmt 1               @ lvgl/src/lv_draw/lv_draw_line.c:371:8
	ldrb.w	r0, [sp, #359]
.Ltmp136:
	.loc	2 371 8 is_stmt 0               @ lvgl/src/lv_draw/lv_draw_line.c:371:8
	lsls	r0, r0, #31
	cmp	r0, #0
	beq	.LBB4_43
	b	.LBB4_39
.LBB4_39:
.Ltmp137:
	.loc	2 372 12 is_stmt 1              @ lvgl/src/lv_draw/lv_draw_line.c:372:12
	ldr	r0, [sp, #364]
.Ltmp138:
	.loc	2 372 12 is_stmt 0              @ lvgl/src/lv_draw/lv_draw_line.c:372:12
	cmp	r0, #1
	blt	.LBB4_41
	b	.LBB4_40
.LBB4_40:
.Ltmp139:
	.loc	2 373 64 is_stmt 1              @ lvgl/src/lv_draw/lv_draw_line.c:373:64
	ldrsh.w	r1, [sp, #372]
	.loc	2 373 67 is_stmt 0              @ lvgl/src/lv_draw/lv_draw_line.c:373:67
	ldrh.w	r0, [sp, #374]
	.loc	2 373 74                        @ lvgl/src/lv_draw/lv_draw_line.c:373:74
	ldr.w	r12, [sp, #344]
	.loc	2 373 72                        @ lvgl/src/lv_draw/lv_draw_line.c:373:72
	sub.w	r0, r0, r12
	.loc	2 373 86                        @ lvgl/src/lv_draw/lv_draw_line.c:373:86
	ldrsh.w	r3, [sp, #368]
	.loc	2 373 89                        @ lvgl/src/lv_draw/lv_draw_line.c:373:89
	ldrh.w	r2, [sp, #370]
	.loc	2 373 94                        @ lvgl/src/lv_draw/lv_draw_line.c:373:94
	sub.w	r2, r2, r12
	.loc	2 373 13                        @ lvgl/src/lv_draw/lv_draw_line.c:373:13
	mov	r12, sp
	mov.w	lr, #0
	str.w	lr, [r12, #4]
	sxth	r2, r2
	str.w	r2, [r12]
	sxth	r2, r0
	add	r0, sp, #284
	bl	lv_draw_mask_line_points_init
	.loc	2 375 65 is_stmt 1              @ lvgl/src/lv_draw/lv_draw_line.c:375:65
	ldrsh.w	r1, [sp, #372]
	.loc	2 375 68 is_stmt 0              @ lvgl/src/lv_draw/lv_draw_line.c:375:68
	ldrh.w	r0, [sp, #374]
	.loc	2 375 75                        @ lvgl/src/lv_draw/lv_draw_line.c:375:75
	ldr.w	r12, [sp, #340]
	.loc	2 375 73                        @ lvgl/src/lv_draw/lv_draw_line.c:375:73
	add	r0, r12
	.loc	2 375 87                        @ lvgl/src/lv_draw/lv_draw_line.c:375:87
	ldrsh.w	r3, [sp, #368]
	.loc	2 375 90                        @ lvgl/src/lv_draw/lv_draw_line.c:375:90
	ldrh.w	r2, [sp, #370]
	.loc	2 375 95                        @ lvgl/src/lv_draw/lv_draw_line.c:375:95
	add	r2, r12
	.loc	2 375 13                        @ lvgl/src/lv_draw/lv_draw_line.c:375:13
	mov	r12, sp
	mov.w	lr, #1
	str.w	lr, [r12, #4]
	sxth	r2, r2
	str.w	r2, [r12]
	sxth	r2, r0
	add	r0, sp, #240
	bl	lv_draw_mask_line_points_init
	.loc	2 377 9 is_stmt 1               @ lvgl/src/lv_draw/lv_draw_line.c:377:9
	b	.LBB4_42
.Ltmp140:
.LBB4_41:
	.loc	2 379 64                        @ lvgl/src/lv_draw/lv_draw_line.c:379:64
	ldrsh.w	r1, [sp, #372]
	.loc	2 379 67 is_stmt 0              @ lvgl/src/lv_draw/lv_draw_line.c:379:67
	ldrh.w	r0, [sp, #374]
	.loc	2 379 74                        @ lvgl/src/lv_draw/lv_draw_line.c:379:74
	ldr.w	r12, [sp, #340]
	.loc	2 379 72                        @ lvgl/src/lv_draw/lv_draw_line.c:379:72
	add	r0, r12
	.loc	2 379 86                        @ lvgl/src/lv_draw/lv_draw_line.c:379:86
	ldrsh.w	r3, [sp, #368]
	.loc	2 379 89                        @ lvgl/src/lv_draw/lv_draw_line.c:379:89
	ldrh.w	r2, [sp, #370]
	.loc	2 379 94                        @ lvgl/src/lv_draw/lv_draw_line.c:379:94
	add	r2, r12
	.loc	2 379 13                        @ lvgl/src/lv_draw/lv_draw_line.c:379:13
	mov	r12, sp
	mov.w	lr, #0
	str.w	lr, [r12, #4]
	sxth	r2, r2
	str.w	r2, [r12]
	sxth	r2, r0
	add	r0, sp, #284
	bl	lv_draw_mask_line_points_init
	.loc	2 381 65 is_stmt 1              @ lvgl/src/lv_draw/lv_draw_line.c:381:65
	ldrsh.w	r1, [sp, #372]
	.loc	2 381 68 is_stmt 0              @ lvgl/src/lv_draw/lv_draw_line.c:381:68
	ldrh.w	r0, [sp, #374]
	.loc	2 381 75                        @ lvgl/src/lv_draw/lv_draw_line.c:381:75
	ldr.w	r12, [sp, #344]
	.loc	2 381 73                        @ lvgl/src/lv_draw/lv_draw_line.c:381:73
	sub.w	r0, r0, r12
	.loc	2 381 87                        @ lvgl/src/lv_draw/lv_draw_line.c:381:87
	ldrsh.w	r3, [sp, #368]
	.loc	2 381 90                        @ lvgl/src/lv_draw/lv_draw_line.c:381:90
	ldrh.w	r2, [sp, #370]
	.loc	2 381 95                        @ lvgl/src/lv_draw/lv_draw_line.c:381:95
	sub.w	r2, r2, r12
	.loc	2 381 13                        @ lvgl/src/lv_draw/lv_draw_line.c:381:13
	mov	r12, sp
	mov.w	lr, #1
	str.w	lr, [r12, #4]
	sxth	r2, r2
	str.w	r2, [r12]
	sxth	r2, r0
	add	r0, sp, #240
	bl	lv_draw_mask_line_points_init
	b	.LBB4_42
.Ltmp141:
.LBB4_42:
	.loc	2 384 5 is_stmt 1               @ lvgl/src/lv_draw/lv_draw_line.c:384:5
	b	.LBB4_44
.Ltmp142:
.LBB4_43:
	.loc	2 386 57                        @ lvgl/src/lv_draw/lv_draw_line.c:386:57
	ldrh.w	r0, [sp, #372]
	.loc	2 386 64 is_stmt 0              @ lvgl/src/lv_draw/lv_draw_line.c:386:64
	ldr	r3, [sp, #340]
	.loc	2 386 62                        @ lvgl/src/lv_draw/lv_draw_line.c:386:62
	adds	r1, r0, r3
	.loc	2 386 76                        @ lvgl/src/lv_draw/lv_draw_line.c:386:76
	ldrsh.w	r2, [sp, #374]
	.loc	2 386 79                        @ lvgl/src/lv_draw/lv_draw_line.c:386:79
	ldrh.w	r0, [sp, #368]
	.loc	2 386 84                        @ lvgl/src/lv_draw/lv_draw_line.c:386:84
	add	r0, r3
	.loc	2 386 98                        @ lvgl/src/lv_draw/lv_draw_line.c:386:98
	ldrsh.w	r3, [sp, #370]
	.loc	2 386 9                         @ lvgl/src/lv_draw/lv_draw_line.c:386:9
	mov	r12, sp
	mov.w	lr, #0
	str.w	lr, [r12, #4]
	str.w	r3, [r12]
	sxth	r1, r1
	sxth	r3, r0
	add	r0, sp, #284
	bl	lv_draw_mask_line_points_init
	.loc	2 388 58 is_stmt 1              @ lvgl/src/lv_draw/lv_draw_line.c:388:58
	ldrh.w	r0, [sp, #372]
	.loc	2 388 65 is_stmt 0              @ lvgl/src/lv_draw/lv_draw_line.c:388:65
	ldr	r3, [sp, #344]
	.loc	2 388 63                        @ lvgl/src/lv_draw/lv_draw_line.c:388:63
	subs	r1, r0, r3
	.loc	2 388 77                        @ lvgl/src/lv_draw/lv_draw_line.c:388:77
	ldrsh.w	r2, [sp, #374]
	.loc	2 388 80                        @ lvgl/src/lv_draw/lv_draw_line.c:388:80
	ldrh.w	r0, [sp, #368]
	.loc	2 388 85                        @ lvgl/src/lv_draw/lv_draw_line.c:388:85
	subs	r0, r0, r3
	.loc	2 388 99                        @ lvgl/src/lv_draw/lv_draw_line.c:388:99
	ldrsh.w	r3, [sp, #370]
	.loc	2 388 9                         @ lvgl/src/lv_draw/lv_draw_line.c:388:9
	mov	r12, sp
	mov.w	lr, #1
	str.w	lr, [r12, #4]
	str.w	r3, [r12]
	sxth	r1, r1
	sxth	r3, r0
	add	r0, sp, #240
	bl	lv_draw_mask_line_points_init
	b	.LBB4_44
.Ltmp143:
.LBB4_44:
	.loc	2 0 9                           @ lvgl/src/lv_draw/lv_draw_line.c:0:9
	add	r0, sp, #284
	movs	r1, #0
	.loc	2 394 28 is_stmt 1              @ lvgl/src/lv_draw/lv_draw_line.c:394:28
	str	r1, [sp, #36]                   @ 4-byte Spill
	bl	lv_draw_mask_add
	ldr	r1, [sp, #36]                   @ 4-byte Reload
	.loc	2 394 13 is_stmt 0              @ lvgl/src/lv_draw/lv_draw_line.c:394:13
	strh.w	r0, [sp, #150]
	add	r0, sp, #240
	.loc	2 395 29 is_stmt 1              @ lvgl/src/lv_draw/lv_draw_line.c:395:29
	bl	lv_draw_mask_add
	.loc	2 395 13 is_stmt 0              @ lvgl/src/lv_draw/lv_draw_line.c:395:13
	strh.w	r0, [sp, #148]
	movw	r0, #65535
	.loc	2 396 13 is_stmt 1              @ lvgl/src/lv_draw/lv_draw_line.c:396:13
	strh.w	r0, [sp, #146]
	.loc	2 397 13                        @ lvgl/src/lv_draw/lv_draw_line.c:397:13
	strh.w	r0, [sp, #144]
.Ltmp144:
	.loc	2 399 9                         @ lvgl/src/lv_draw/lv_draw_line.c:399:9
	ldr	r0, [sp, #376]
	.loc	2 399 14 is_stmt 0              @ lvgl/src/lv_draw/lv_draw_line.c:399:14
	ldrb	r0, [r0, #11]
	lsrs	r0, r0, #4
.Ltmp145:
	.loc	2 399 8                         @ lvgl/src/lv_draw/lv_draw_line.c:399:8
	lsls	r0, r0, #31
	cbnz	r0, .LBB4_46
	b	.LBB4_45
.LBB4_45:
.Ltmp146:
	.loc	2 400 59 is_stmt 1              @ lvgl/src/lv_draw/lv_draw_line.c:400:59
	ldrsh.w	r1, [sp, #372]
	.loc	2 400 65 is_stmt 0              @ lvgl/src/lv_draw/lv_draw_line.c:400:65
	ldrsh.w	r2, [sp, #374]
	.loc	2 400 75                        @ lvgl/src/lv_draw/lv_draw_line.c:400:75
	ldr	r0, [sp, #360]
	.loc	2 400 73                        @ lvgl/src/lv_draw/lv_draw_line.c:400:73
	subs	r0, r1, r0
	.loc	2 400 89                        @ lvgl/src/lv_draw/lv_draw_line.c:400:89
	ldr	r3, [sp, #364]
	.loc	2 400 87                        @ lvgl/src/lv_draw/lv_draw_line.c:400:87
	add	r3, r2
	.loc	2 400 9                         @ lvgl/src/lv_draw/lv_draw_line.c:400:9
	mov	r12, sp
	mov.w	lr, #3
	str.w	lr, [r12, #4]
	sxth	r3, r3
	str.w	r3, [r12]
	sxth	r3, r0
	add	r0, sp, #196
	str	r0, [sp, #24]                   @ 4-byte Spill
	bl	lv_draw_mask_line_points_init
	.loc	2 401 62 is_stmt 1              @ lvgl/src/lv_draw/lv_draw_line.c:401:62
	ldrsh.w	r1, [sp, #368]
	.loc	2 401 68 is_stmt 0              @ lvgl/src/lv_draw/lv_draw_line.c:401:68
	ldrsh.w	r2, [sp, #370]
	.loc	2 401 78                        @ lvgl/src/lv_draw/lv_draw_line.c:401:78
	ldr	r0, [sp, #360]
	.loc	2 401 76                        @ lvgl/src/lv_draw/lv_draw_line.c:401:76
	subs	r0, r1, r0
	.loc	2 401 92                        @ lvgl/src/lv_draw/lv_draw_line.c:401:92
	ldr	r3, [sp, #364]
	.loc	2 401 90                        @ lvgl/src/lv_draw/lv_draw_line.c:401:90
	add	r3, r2
	.loc	2 401 9                         @ lvgl/src/lv_draw/lv_draw_line.c:401:9
	mov	r12, sp
	mov.w	lr, #2
	str.w	lr, [r12, #4]
	sxth	r3, r3
	str.w	r3, [r12]
	sxth	r3, r0
	add	r0, sp, #152
	str	r0, [sp, #32]                   @ 4-byte Spill
	bl	lv_draw_mask_line_points_init
	ldr	r0, [sp, #24]                   @ 4-byte Reload
	movs	r1, #0
	.loc	2 402 23 is_stmt 1              @ lvgl/src/lv_draw/lv_draw_line.c:402:23
	str	r1, [sp, #28]                   @ 4-byte Spill
	bl	lv_draw_mask_add
	ldr	r1, [sp, #28]                   @ 4-byte Reload
	mov	r2, r0
	.loc	2 402 21 is_stmt 0              @ lvgl/src/lv_draw/lv_draw_line.c:402:21
	ldr	r0, [sp, #32]                   @ 4-byte Reload
	strh.w	r2, [sp, #146]
	.loc	2 403 26 is_stmt 1              @ lvgl/src/lv_draw/lv_draw_line.c:403:26
	bl	lv_draw_mask_add
	.loc	2 403 24 is_stmt 0              @ lvgl/src/lv_draw/lv_draw_line.c:403:24
	strh.w	r0, [sp, #144]
	.loc	2 404 5 is_stmt 1               @ lvgl/src/lv_draw/lv_draw_line.c:404:5
	b	.LBB4_46
.Ltmp147:
.LBB4_46:
	.loc	2 406 27                        @ lvgl/src/lv_draw/lv_draw_line.c:406:27
	bl	_lv_refr_get_disp_refreshing
	.loc	2 406 17 is_stmt 0              @ lvgl/src/lv_draw/lv_draw_line.c:406:17
	str	r0, [sp, #140]
	.loc	2 407 43 is_stmt 1              @ lvgl/src/lv_draw/lv_draw_line.c:407:43
	ldr	r0, [sp, #140]
	.loc	2 407 27 is_stmt 0              @ lvgl/src/lv_draw/lv_draw_line.c:407:27
	bl	lv_disp_get_buf
	.loc	2 407 21                        @ lvgl/src/lv_draw/lv_draw_line.c:407:21
	str	r0, [sp, #136]
	.loc	2 409 36 is_stmt 1              @ lvgl/src/lv_draw/lv_draw_line.c:409:36
	ldr	r0, [sp, #136]
	.loc	2 409 41 is_stmt 0              @ lvgl/src/lv_draw/lv_draw_line.c:409:41
	adds	r0, #16
	.loc	2 409 23                        @ lvgl/src/lv_draw/lv_draw_line.c:409:23
	str	r0, [sp, #132]
	.loc	2 412 21 is_stmt 1              @ lvgl/src/lv_draw/lv_draw_line.c:412:21
	ldr	r0, [sp, #132]
	ldrh	r1, [r0]
	.loc	2 412 18 is_stmt 0              @ lvgl/src/lv_draw/lv_draw_line.c:412:18
	ldrh.w	r0, [sp, #332]
	subs	r0, r0, r1
	strh.w	r0, [sp, #332]
	.loc	2 413 21 is_stmt 1              @ lvgl/src/lv_draw/lv_draw_line.c:413:21
	ldr	r0, [sp, #132]
	ldrh	r1, [r0, #2]
	.loc	2 413 18 is_stmt 0              @ lvgl/src/lv_draw/lv_draw_line.c:413:18
	ldrh.w	r0, [sp, #334]
	subs	r0, r0, r1
	strh.w	r0, [sp, #334]
	.loc	2 414 21 is_stmt 1              @ lvgl/src/lv_draw/lv_draw_line.c:414:21
	ldr	r0, [sp, #132]
	ldrh	r1, [r0]
	.loc	2 414 18 is_stmt 0              @ lvgl/src/lv_draw/lv_draw_line.c:414:18
	ldrh.w	r0, [sp, #336]
	subs	r0, r0, r1
	strh.w	r0, [sp, #336]
	.loc	2 415 21 is_stmt 1              @ lvgl/src/lv_draw/lv_draw_line.c:415:21
	ldr	r0, [sp, #132]
	ldrh	r1, [r0, #2]
	.loc	2 415 18 is_stmt 0              @ lvgl/src/lv_draw/lv_draw_line.c:415:18
	ldrh.w	r0, [sp, #338]
	subs	r0, r0, r1
	strh.w	r0, [sp, #338]
	add	r0, sp, #332
	.loc	2 420 27 is_stmt 1              @ lvgl/src/lv_draw/lv_draw_line.c:420:27
	str	r0, [sp, #20]                   @ 4-byte Spill
	bl	lv_area_get_width
	.loc	2 420 13 is_stmt 0              @ lvgl/src/lv_draw/lv_draw_line.c:420:13
	str	r0, [sp, #128]
	.loc	2 424 54 is_stmt 1              @ lvgl/src/lv_draw/lv_draw_line.c:424:54
	ldr	r0, [sp, #140]
	.loc	2 424 34 is_stmt 0              @ lvgl/src/lv_draw/lv_draw_line.c:424:34
	bl	lv_disp_get_hor_res
	mov	r1, r0
	.loc	2 424 14                        @ lvgl/src/lv_draw/lv_draw_line.c:424:14
	ldr	r0, [sp, #20]                   @ 4-byte Reload
	str	r1, [sp, #120]
	.loc	2 425 28 is_stmt 1              @ lvgl/src/lv_draw/lv_draw_line.c:425:28
	bl	lv_area_get_size
	ldr	r1, [sp, #120]
	cmp	r0, r1
	bhs	.LBB4_48
	b	.LBB4_47
.LBB4_47:
	.loc	2 0 28 is_stmt 0                @ lvgl/src/lv_draw/lv_draw_line.c:0:28
	add	r0, sp, #332
	.loc	2 425 28                        @ lvgl/src/lv_draw/lv_draw_line.c:425:28
	bl	lv_area_get_size
	str	r0, [sp, #16]                   @ 4-byte Spill
	b	.LBB4_49
.LBB4_48:
	ldr	r0, [sp, #120]
	str	r0, [sp, #16]                   @ 4-byte Spill
	b	.LBB4_49
.LBB4_49:
	ldr	r0, [sp, #16]                   @ 4-byte Reload
	.loc	2 425 12                        @ lvgl/src/lv_draw/lv_draw_line.c:425:12
	str	r0, [sp, #116]
	.loc	2 426 43 is_stmt 1              @ lvgl/src/lv_draw/lv_draw_line.c:426:43
	ldr	r0, [sp, #116]
	.loc	2 426 27 is_stmt 0              @ lvgl/src/lv_draw/lv_draw_line.c:426:27
	bl	_lv_mem_buf_get
	.loc	2 426 16                        @ lvgl/src/lv_draw/lv_draw_line.c:426:16
	str	r0, [sp, #112]
	.loc	2 429 20 is_stmt 1              @ lvgl/src/lv_draw/lv_draw_line.c:429:20
	ldrh.w	r0, [sp, #332]
	.loc	2 429 35 is_stmt 0              @ lvgl/src/lv_draw/lv_draw_line.c:429:35
	ldr	r1, [sp, #132]
	ldrh	r1, [r1]
	.loc	2 429 33                        @ lvgl/src/lv_draw/lv_draw_line.c:429:33
	add	r0, r1
	.loc	2 429 18                        @ lvgl/src/lv_draw/lv_draw_line.c:429:18
	strh.w	r0, [sp, #104]
	.loc	2 430 20 is_stmt 1              @ lvgl/src/lv_draw/lv_draw_line.c:430:20
	ldrh.w	r0, [sp, #336]
	.loc	2 430 35 is_stmt 0              @ lvgl/src/lv_draw/lv_draw_line.c:430:35
	ldr	r1, [sp, #132]
	ldrh	r1, [r1]
	.loc	2 430 33                        @ lvgl/src/lv_draw/lv_draw_line.c:430:33
	add	r0, r1
	.loc	2 430 18                        @ lvgl/src/lv_draw/lv_draw_line.c:430:18
	strh.w	r0, [sp, #108]
	.loc	2 431 20 is_stmt 1              @ lvgl/src/lv_draw/lv_draw_line.c:431:20
	ldrh.w	r0, [sp, #334]
	.loc	2 431 35 is_stmt 0              @ lvgl/src/lv_draw/lv_draw_line.c:431:35
	ldr	r1, [sp, #132]
	ldrh	r1, [r1, #2]
	.loc	2 431 33                        @ lvgl/src/lv_draw/lv_draw_line.c:431:33
	add	r0, r1
	.loc	2 431 18                        @ lvgl/src/lv_draw/lv_draw_line.c:431:18
	strh.w	r0, [sp, #106]
	.loc	2 432 30 is_stmt 1              @ lvgl/src/lv_draw/lv_draw_line.c:432:30
	ldrh.w	r0, [sp, #106]
	.loc	2 432 18 is_stmt 0              @ lvgl/src/lv_draw/lv_draw_line.c:432:18
	strh.w	r0, [sp, #110]
	.loc	2 434 17 is_stmt 1              @ lvgl/src/lv_draw/lv_draw_line.c:434:17
	ldr	r0, [sp, #136]
	.loc	2 434 27 is_stmt 0              @ lvgl/src/lv_draw/lv_draw_line.c:434:27
	ldrsh.w	r0, [r0, #16]
	.loc	2 434 42                        @ lvgl/src/lv_draw/lv_draw_line.c:434:42
	ldrsh.w	r1, [sp, #332]
	.loc	2 434 30                        @ lvgl/src/lv_draw/lv_draw_line.c:434:30
	add	r0, r1
	.loc	2 434 13                        @ lvgl/src/lv_draw/lv_draw_line.c:434:13
	str	r0, [sp, #100]
	movs	r0, #0
	.loc	2 436 14 is_stmt 1              @ lvgl/src/lv_draw/lv_draw_line.c:436:14
	str	r0, [sp, #96]
	.loc	2 438 19                        @ lvgl/src/lv_draw/lv_draw_line.c:438:19
	ldr	r0, [sp, #112]
	.loc	2 438 29 is_stmt 0              @ lvgl/src/lv_draw/lv_draw_line.c:438:29
	ldr	r1, [sp, #116]
	.loc	2 438 5                         @ lvgl/src/lv_draw/lv_draw_line.c:438:5
	bl	_lv_memset_ff
.Ltmp148:
	.loc	2 440 23 is_stmt 1              @ lvgl/src/lv_draw/lv_draw_line.c:440:23
	ldrsh.w	r0, [sp, #334]
	.loc	2 440 28 is_stmt 0              @ lvgl/src/lv_draw/lv_draw_line.c:440:28
	ldr	r1, [sp, #132]
	.loc	2 440 39                        @ lvgl/src/lv_draw/lv_draw_line.c:440:39
	ldrsh.w	r1, [r1, #2]
	.loc	2 440 26                        @ lvgl/src/lv_draw/lv_draw_line.c:440:26
	add	r0, r1
	.loc	2 440 11                        @ lvgl/src/lv_draw/lv_draw_line.c:440:11
	str	r0, [sp, #124]
	.loc	2 440 9                         @ lvgl/src/lv_draw/lv_draw_line.c:440:9
	b	.LBB4_50
.LBB4_50:                               @ =>This Inner Loop Header: Depth=1
.Ltmp149:
	.loc	2 440 43                        @ lvgl/src/lv_draw/lv_draw_line.c:440:43
	ldr	r0, [sp, #124]
	.loc	2 440 58                        @ lvgl/src/lv_draw/lv_draw_line.c:440:58
	ldrsh.w	r1, [sp, #338]
	.loc	2 440 63                        @ lvgl/src/lv_draw/lv_draw_line.c:440:63
	ldr	r2, [sp, #132]
	.loc	2 440 74                        @ lvgl/src/lv_draw/lv_draw_line.c:440:74
	ldrsh.w	r2, [r2, #2]
	.loc	2 440 61                        @ lvgl/src/lv_draw/lv_draw_line.c:440:61
	add	r1, r2
.Ltmp150:
	.loc	2 440 5                         @ lvgl/src/lv_draw/lv_draw_line.c:440:5
	cmp	r0, r1
	bgt	.LBB4_58
	b	.LBB4_51
.LBB4_51:                               @   in Loop: Header=BB4_50 Depth=1
.Ltmp151:
	.loc	2 442 59 is_stmt 1              @ lvgl/src/lv_draw/lv_draw_line.c:442:59
	ldr	r0, [sp, #112]
	.loc	2 442 68 is_stmt 0              @ lvgl/src/lv_draw/lv_draw_line.c:442:68
	ldr	r1, [sp, #96]
	.loc	2 442 59                        @ lvgl/src/lv_draw/lv_draw_line.c:442:59
	add	r0, r1
	.loc	2 442 77                        @ lvgl/src/lv_draw/lv_draw_line.c:442:77
	ldrsh.w	r1, [sp, #100]
	.loc	2 442 80                        @ lvgl/src/lv_draw/lv_draw_line.c:442:80
	ldrsh.w	r2, [sp, #124]
	.loc	2 442 83                        @ lvgl/src/lv_draw/lv_draw_line.c:442:83
	ldrsh.w	r3, [sp, #128]
	.loc	2 442 39                        @ lvgl/src/lv_draw/lv_draw_line.c:442:39
	bl	lv_draw_mask_apply
	.loc	2 442 28                        @ lvgl/src/lv_draw/lv_draw_line.c:442:28
	strb.w	r0, [sp, #95]
.Ltmp152:
	.loc	2 443 12 is_stmt 1              @ lvgl/src/lv_draw/lv_draw_line.c:443:12
	ldrb.w	r0, [sp, #95]
.Ltmp153:
	.loc	2 443 12 is_stmt 0              @ lvgl/src/lv_draw/lv_draw_line.c:443:12
	cbnz	r0, .LBB4_53
	b	.LBB4_52
.LBB4_52:                               @   in Loop: Header=BB4_50 Depth=1
.Ltmp154:
	.loc	2 444 28 is_stmt 1              @ lvgl/src/lv_draw/lv_draw_line.c:444:28
	ldr	r0, [sp, #112]
	.loc	2 444 37 is_stmt 0              @ lvgl/src/lv_draw/lv_draw_line.c:444:37
	ldr	r1, [sp, #96]
	.loc	2 444 28                        @ lvgl/src/lv_draw/lv_draw_line.c:444:28
	add	r0, r1
	.loc	2 444 46                        @ lvgl/src/lv_draw/lv_draw_line.c:444:46
	ldr	r1, [sp, #128]
	.loc	2 444 13                        @ lvgl/src/lv_draw/lv_draw_line.c:444:13
	bl	_lv_memset_00
	.loc	2 445 9 is_stmt 1               @ lvgl/src/lv_draw/lv_draw_line.c:445:9
	b	.LBB4_53
.Ltmp155:
.LBB4_53:                               @   in Loop: Header=BB4_50 Depth=1
	.loc	2 447 19                        @ lvgl/src/lv_draw/lv_draw_line.c:447:19
	ldr	r1, [sp, #128]
	.loc	2 447 16 is_stmt 0              @ lvgl/src/lv_draw/lv_draw_line.c:447:16
	ldr	r0, [sp, #96]
	add	r0, r1
	str	r0, [sp, #96]
.Ltmp156:
	.loc	2 448 23 is_stmt 1              @ lvgl/src/lv_draw/lv_draw_line.c:448:23
	ldr	r0, [sp, #96]
	.loc	2 448 32 is_stmt 0              @ lvgl/src/lv_draw/lv_draw_line.c:448:32
	ldr	r1, [sp, #128]
	.loc	2 448 30                        @ lvgl/src/lv_draw/lv_draw_line.c:448:30
	add	r0, r1
	.loc	2 448 46                        @ lvgl/src/lv_draw/lv_draw_line.c:448:46
	ldr	r1, [sp, #116]
.Ltmp157:
	.loc	2 448 12                        @ lvgl/src/lv_draw/lv_draw_line.c:448:12
	cmp	r0, r1
	bhs	.LBB4_55
	b	.LBB4_54
.LBB4_54:                               @   in Loop: Header=BB4_50 Depth=1
.Ltmp158:
	.loc	2 449 26 is_stmt 1              @ lvgl/src/lv_draw/lv_draw_line.c:449:26
	ldrh.w	r0, [sp, #110]
	adds	r0, #1
	strh.w	r0, [sp, #110]
	.loc	2 450 9                         @ lvgl/src/lv_draw/lv_draw_line.c:450:9
	b	.LBB4_56
.Ltmp159:
.LBB4_55:                               @   in Loop: Header=BB4_50 Depth=1
	.loc	2 452 40                        @ lvgl/src/lv_draw/lv_draw_line.c:452:40
	ldr	r1, [sp, #380]
	.loc	2 453 28                        @ lvgl/src/lv_draw/lv_draw_line.c:453:28
	ldr	r2, [sp, #376]
	.loc	2 453 40 is_stmt 0              @ lvgl/src/lv_draw/lv_draw_line.c:453:40
	ldr	r3, [sp, #112]
	.loc	2 453 81                        @ lvgl/src/lv_draw/lv_draw_line.c:453:81
	ldrb	r0, [r2, #10]
	.loc	2 454 33 is_stmt 1              @ lvgl/src/lv_draw/lv_draw_line.c:454:33
	ldrb.w	r12, [r2, #11]
	.loc	2 452 13                        @ lvgl/src/lv_draw/lv_draw_line.c:452:13
	ldr	r2, [r2]
	and	lr, r12, #3
	mov	r12, sp
	str.w	lr, [r12, #8]
	str.w	r0, [r12, #4]
	movs	r0, #2
	str.w	r0, [r12]
	add	r0, sp, #104
	bl	_lv_blend_fill
	.loc	2 456 28                        @ lvgl/src/lv_draw/lv_draw_line.c:456:28
	ldrh.w	r0, [sp, #110]
	.loc	2 456 41 is_stmt 0              @ lvgl/src/lv_draw/lv_draw_line.c:456:41
	adds	r0, #1
	.loc	2 456 26                        @ lvgl/src/lv_draw/lv_draw_line.c:456:26
	strh.w	r0, [sp, #106]
	.loc	2 457 38 is_stmt 1              @ lvgl/src/lv_draw/lv_draw_line.c:457:38
	ldrh.w	r0, [sp, #106]
	.loc	2 457 26 is_stmt 0              @ lvgl/src/lv_draw/lv_draw_line.c:457:26
	strh.w	r0, [sp, #110]
	movs	r0, #0
	.loc	2 458 20 is_stmt 1              @ lvgl/src/lv_draw/lv_draw_line.c:458:20
	str	r0, [sp, #96]
	.loc	2 459 27                        @ lvgl/src/lv_draw/lv_draw_line.c:459:27
	ldr	r0, [sp, #112]
	.loc	2 459 37 is_stmt 0              @ lvgl/src/lv_draw/lv_draw_line.c:459:37
	ldr	r1, [sp, #116]
	.loc	2 459 13                        @ lvgl/src/lv_draw/lv_draw_line.c:459:13
	bl	_lv_memset_ff
	b	.LBB4_56
.Ltmp160:
.LBB4_56:                               @   in Loop: Header=BB4_50 Depth=1
	.loc	2 461 5 is_stmt 1               @ lvgl/src/lv_draw/lv_draw_line.c:461:5
	b	.LBB4_57
.Ltmp161:
.LBB4_57:                               @   in Loop: Header=BB4_50 Depth=1
	.loc	2 440 79                        @ lvgl/src/lv_draw/lv_draw_line.c:440:79
	ldr	r0, [sp, #124]
	adds	r0, #1
	str	r0, [sp, #124]
	.loc	2 440 5 is_stmt 0               @ lvgl/src/lv_draw/lv_draw_line.c:440:5
	b	.LBB4_50
.Ltmp162:
.LBB4_58:
	.loc	2 464 18 is_stmt 1              @ lvgl/src/lv_draw/lv_draw_line.c:464:18
	ldrsh.w	r0, [sp, #106]
	.loc	2 464 34 is_stmt 0              @ lvgl/src/lv_draw/lv_draw_line.c:464:34
	ldrsh.w	r1, [sp, #110]
.Ltmp163:
	.loc	2 464 8                         @ lvgl/src/lv_draw/lv_draw_line.c:464:8
	cmp	r0, r1
	beq	.LBB4_60
	b	.LBB4_59
.LBB4_59:
.Ltmp164:
	.loc	2 465 21 is_stmt 1              @ lvgl/src/lv_draw/lv_draw_line.c:465:21
	ldrh.w	r0, [sp, #110]
	subs	r0, #1
	strh.w	r0, [sp, #110]
	.loc	2 466 36                        @ lvgl/src/lv_draw/lv_draw_line.c:466:36
	ldr	r1, [sp, #380]
	.loc	2 467 24                        @ lvgl/src/lv_draw/lv_draw_line.c:467:24
	ldr	r2, [sp, #376]
	.loc	2 467 36 is_stmt 0              @ lvgl/src/lv_draw/lv_draw_line.c:467:36
	ldr	r3, [sp, #112]
	.loc	2 467 77                        @ lvgl/src/lv_draw/lv_draw_line.c:467:77
	ldrb	r0, [r2, #10]
	.loc	2 468 29 is_stmt 1              @ lvgl/src/lv_draw/lv_draw_line.c:468:29
	ldrb.w	r12, [r2, #11]
	.loc	2 466 9                         @ lvgl/src/lv_draw/lv_draw_line.c:466:9
	ldr	r2, [r2]
	and	lr, r12, #3
	mov	r12, sp
	str.w	lr, [r12, #8]
	str.w	r0, [r12, #4]
	movs	r0, #2
	str.w	r0, [r12]
	add	r0, sp, #104
	bl	_lv_blend_fill
	.loc	2 470 5                         @ lvgl/src/lv_draw/lv_draw_line.c:470:5
	b	.LBB4_60
.Ltmp165:
.LBB4_60:
	.loc	2 472 25                        @ lvgl/src/lv_draw/lv_draw_line.c:472:25
	ldr	r0, [sp, #112]
	.loc	2 472 5 is_stmt 0               @ lvgl/src/lv_draw/lv_draw_line.c:472:5
	bl	_lv_mem_buf_release
	.loc	2 474 28 is_stmt 1              @ lvgl/src/lv_draw/lv_draw_line.c:474:28
	ldrsh.w	r0, [sp, #150]
	.loc	2 474 5 is_stmt 0               @ lvgl/src/lv_draw/lv_draw_line.c:474:5
	bl	lv_draw_mask_remove_id
	.loc	2 475 28 is_stmt 1              @ lvgl/src/lv_draw/lv_draw_line.c:475:28
	ldrsh.w	r0, [sp, #148]
	.loc	2 475 5 is_stmt 0               @ lvgl/src/lv_draw/lv_draw_line.c:475:5
	bl	lv_draw_mask_remove_id
	.loc	2 476 28 is_stmt 1              @ lvgl/src/lv_draw/lv_draw_line.c:476:28
	ldrsh.w	r0, [sp, #146]
	.loc	2 476 5 is_stmt 0               @ lvgl/src/lv_draw/lv_draw_line.c:476:5
	bl	lv_draw_mask_remove_id
	.loc	2 477 28 is_stmt 1              @ lvgl/src/lv_draw/lv_draw_line.c:477:28
	ldrsh.w	r0, [sp, #144]
	.loc	2 477 5 is_stmt 0               @ lvgl/src/lv_draw/lv_draw_line.c:477:5
	bl	lv_draw_mask_remove_id
	.loc	2 478 1 is_stmt 1               @ lvgl/src/lv_draw/lv_draw_line.c:478:1
	b	.LBB4_61
.LBB4_61:
	add	sp, #392
	pop	{r7, pc}
.Ltmp166:
.Lfunc_end4:
	.size	draw_line_skew, .Lfunc_end4-draw_line_skew
	.cfi_endproc
	.cantunwind
	.fnend
                                        @ -- End function
	.section	.text.lv_area_get_width,"ax",%progbits
	.p2align	3                               @ -- Begin function lv_area_get_width
	.type	lv_area_get_width,%function
	.code	16                              @ @lv_area_get_width
	.thumb_func
lv_area_get_width:
.Lfunc_begin5:
	.file	7 "E:\\STM32\\Learning\\STM32H750_ART_PI_RGBLCD" "lvgl/src/lv_draw/../lv_core/../lv_hal/../lv_misc/lv_area.h"
	.loc	7 108 0                         @ lvgl/src/lv_draw/../lv_core/../lv_hal/../lv_misc/lv_area.h:108:0
	.fnstart
	.cfi_startproc
@ %bb.0:
	.pad	#4
	sub	sp, #4
	.cfi_def_cfa_offset 4
	str	r0, [sp]
.Ltmp167:
	.loc	7 109 25 prologue_end           @ lvgl/src/lv_draw/../lv_core/../lv_hal/../lv_misc/lv_area.h:109:25
	ldr	r1, [sp]
	ldrh	r0, [r1, #4]
	.loc	7 109 38 is_stmt 0              @ lvgl/src/lv_draw/../lv_core/../lv_hal/../lv_misc/lv_area.h:109:38
	ldrh	r1, [r1]
	.loc	7 109 36                        @ lvgl/src/lv_draw/../lv_core/../lv_hal/../lv_misc/lv_area.h:109:36
	subs	r0, r0, r1
	.loc	7 109 49                        @ lvgl/src/lv_draw/../lv_core/../lv_hal/../lv_misc/lv_area.h:109:49
	adds	r0, #1
	.loc	7 109 5                         @ lvgl/src/lv_draw/../lv_core/../lv_hal/../lv_misc/lv_area.h:109:5
	sxth	r0, r0
	add	sp, #4
	bx	lr
.Ltmp168:
.Lfunc_end5:
	.size	lv_area_get_width, .Lfunc_end5-lv_area_get_width
	.cfi_endproc
	.cantunwind
	.fnend
                                        @ -- End function
	.type	draw_line_skew.wcorr,%object    @ @draw_line_skew.wcorr
	.section	.rodata.draw_line_skew.wcorr,"a",%progbits
draw_line_skew.wcorr:
	.ascii	"\200\200\200\201\201\202\202\203\204\205\206\207\211\212\214\215\217\221\223\225\227\231\233\236\240\242\245\247\252\255\257\262\265"
	.size	draw_line_skew.wcorr, 33

	.file	8 "E:\\STM32\\Learning\\STM32H750_ART_PI_RGBLCD" "lvgl/src/lv_draw/../lv_core/../lv_draw/lv_draw_line.h"
	.file	9 "E:\\STM32\\Learning\\STM32H750_ART_PI_RGBLCD" "lvgl/src/lv_draw/../lv_core/lv_style.h"
	.file	10 "E:\\STM32\\Learning\\STM32H750_ART_PI_RGBLCD" "lvgl/src/lv_draw/../lv_core/../lv_draw/lv_draw_rect.h"
	.file	11 "E:\\STM32\\Learning\\STM32H750_ART_PI_RGBLCD" "lvgl/src/lv_draw/../lv_misc/../lv_font/lv_font.h"
	.file	12 "E:\\STM32\\Learning\\STM32H750_ART_PI_RGBLCD" "lvgl/src/lv_draw/../lv_core/../lv_hal/lv_hal_disp.h"
	.file	13 "E:\\STM32\\Learning\\STM32H750_ART_PI_RGBLCD" "lvgl/src/lv_draw/../lv_core/../lv_hal/../lv_misc/lv_task.h"
	.file	14 "E:\\STM32\\Learning\\STM32H750_ART_PI_RGBLCD" "lvgl/src/lv_draw/../lv_misc/lv_ll.h"
	.file	15 "E:\\STM32\\Learning\\STM32H750_ART_PI_RGBLCD" "lvgl/src/lv_draw/../lv_core/lv_obj.h"
	.file	16 "E:\\STM32\\Learning\\STM32H750_ART_PI_RGBLCD" "lvgl/src/lv_draw/../lv_core/../lv_misc/lv_types.h"
	.file	17 "E:\\STM32\\Learning\\STM32H750_ART_PI_RGBLCD" "lvgl/src/lv_draw/../lv_core/../lv_hal/lv_hal_indev.h"
	.file	18 "E:\\STM32\\Learning\\STM32H750_ART_PI_RGBLCD" "lvgl/src/lv_draw/../lv_misc/lv_bidi.h"
	.file	19 "D:\\Keil_v5\\ARM\\ARMCLANG\\Bin\\..\\include" "stdio.h"
	.section	".note.GNU-stack","",%progbits
	.eabi_attribute	30, 6	@ Tag_ABI_optimization_goals
	.ARM_attribute	16, 1	@ Tag_AV_eba