	.text
	.syntax unified
	.eabi_attribute	67, "2.09"	@ Tag_conformance
	.cpu	cortex-m7
	.eabi_attribute	6, 13	@ Tag_CPU_arch
	.eabi_attribute	7, 77	@ Tag_CPU_arch_profile
	.eabi_attribute	8, 0	@ Tag_ARM_ISA_use
	.eabi_attribute	9, 2	@ Tag_THUMB_ISA_use
	.fpu	fpv5-d16
	.eabi_attribute	36, 1	@ Tag_FP_HP_extension
	.eabi_attribute	34, 1	@ Tag_CPU_unaligned_access
	.eabi_attribute	17, 1	@ Tag_ABI_PCS_GOT_use
	.eabi_attribute	20, 2	@ Tag_ABI_FP_denormal
	.eabi_attribute	21, 0	@ Tag_ABI_FP_exceptions
	.eabi_attribute	23, 1	@ Tag_ABI_FP_number_model
	.eabi_attribute	24, 1	@ Tag_ABI_align_needed
	.eabi_attribute	25, 1	@ Tag_ABI_align_preserved
	.eabi_attribute	28, 1	@ Tag_ABI_VFP_args
	.eabi_attribute	38, 1	@ Tag_ABI_FP_16bit_format
	.eabi_attribute	18, 2	@ Tag_ABI_PCS_wchar_t
	.eabi_attribute	26, 1	@ Tag_ABI_enum_size
	.eabi_attribute	14, 0	@ Tag_ABI_PCS_R9_use
	.file	"lv_debug.c"
	.file	1 "E:\\Smart-access-control\\Hardware\\CODE" "lvgl/src/lv_misc/lv_debug.c"
	.file	2 "E:\\Smart-access-control\\Hardware\\CODE" "lvgl/src/lv_misc/lv_types.h"
	.file	3 "D:\\Keil_v5\\ARM\\ARMCLANG\\Bin\\..\\include" "stdint.h"
	.section	.text.lv_debug_check_null,"ax",%progbits
	.hidden	lv_debug_check_null             @ -- Begin function lv_debug_check_null
	.globl	lv_debug_check_null
	.p2align	3
	.type	lv_debug_check_null,%function
	.code	16                              @ @lv_debug_check_null
	.thumb_func
lv_debug_check_null:
.Lfunc_begin0:
	.loc	1 47 0                          @ lvgl/src/lv_misc/lv_debug.c:47:0
	.fnstart
	.cfi_sections .debug_frame
	.cfi_startproc
@ %bb.0:
	.pad	#8
	sub	sp, #8
	.cfi_def_cfa_offset 8
	str	r0, [sp]
.Ltmp0:
	.loc	1 48 8 prologue_end             @ lvgl/src/lv_misc/lv_debug.c:48:8
	ldr	r0, [sp]
.Ltmp1:
	.loc	1 48 8 is_stmt 0                @ lvgl/src/lv_misc/lv_debug.c:48:8
	cbz	r0, .LBB0_2
	b	.LBB0_1
.LBB0_1:
	.loc	1 0 8                           @ lvgl/src/lv_misc/lv_debug.c:0:8
	movs	r0, #1
.Ltmp2:
	.loc	1 48 11                         @ lvgl/src/lv_misc/lv_debug.c:48:11
	strb.w	r0, [sp, #7]
	b	.LBB0_3
.Ltmp3:
.LBB0_2:
	.loc	1 0 11                          @ lvgl/src/lv_misc/lv_debug.c:0:11
	movs	r0, #0
	.loc	1 50 5 is_stmt 1                @ lvgl/src/lv_misc/lv_debug.c:50:5
	strb.w	r0, [sp, #7]
	b	.LBB0_3
.LBB0_3:
	.loc	1 51 1                          @ lvgl/src/lv_misc/lv_debug.c:51:1
	ldrb.w	r0, [sp, #7]
	add	sp, #8
	bx	lr
.Ltmp4:
.Lfunc_end0:
	.size	lv_debug_check_null, .Lfunc_end0-lv_debug_check_null
	.cfi_endproc
	.cantunwind
	.fnend
                                        @ -- End function
	.section	.text.lv_debug_check_mem_integrity,"ax",%progbits
	.hidden	lv_debug_check_mem_integrity    @ -- Begin function lv_debug_check_mem_integrity
	.globl	lv_debug_check_mem_integrity
	.p2align	3
	.type	lv_debug_check_mem_integrity,%function
	.code	16                              @ @lv_debug_check_mem_integrity
	.thumb_func
lv_debug_check_mem_integrity:
.Lfunc_begin1:
	.loc	1 54 0                          @ lvgl/src/lv_misc/lv_debug.c:54:0
	.fnstart
	.cfi_startproc
@ %bb.0:
	.save	{r7, lr}
	push	{r7, lr}
	.cfi_def_cfa_offset 8
	.cfi_offset lr, -4
	.cfi_offset r7, -8
.Ltmp5:
	.loc	1 55 12 prologue_end            @ lvgl/src/lv_misc/lv_debug.c:55:12
	bl	lv_mem_test
	.loc	1 55 26 is_stmt 0               @ lvgl/src/lv_misc/lv_debug.c:55:26
	subs	r0, #1
	clz	r0, r0
	lsrs	r0, r0, #5
	.loc	1 55 5                          @ lvgl/src/lv_misc/lv_debug.c:55:5
	pop	{r7, pc}
.Ltmp6:
.Lfunc_end1:
	.size	lv_debug_check_mem_integrity, .Lfunc_end1-lv_debug_check_mem_integrity
	.cfi_endproc
	.cantunwind
	.fnend
                                        @ -- End function
	.section	.text.lv_debug_check_str,"ax",%progbits
	.hidden	lv_debug_check_str              @ -- Begin function lv_debug_check_str
	.globl	lv_debug_check_str
	.p2align	3
	.type	lv_debug_check_str,%function
	.code	16                              @ @lv_debug_check_str
	.thumb_func
lv_debug_check_str:
.Lfunc_begin2:
	.loc	1 59 0 is_stmt 1                @ lvgl/src/lv_misc/lv_debug.c:59:0
	.fnstart
	.cfi_startproc
@ %bb.0:
	.pad	#28
	sub	sp, #28
	.cfi_def_cfa_offset 28
	str	r0, [sp, #20]
.Ltmp7:
	.loc	1 60 42 prologue_end            @ lvgl/src/lv_misc/lv_debug.c:60:42
	ldr	r0, [sp, #20]
	.loc	1 60 21 is_stmt 0               @ lvgl/src/lv_misc/lv_debug.c:60:21
	str	r0, [sp, #16]
	movs	r0, #0
	.loc	1 61 13 is_stmt 1               @ lvgl/src/lv_misc/lv_debug.c:61:13
	strb.w	r0, [sp, #15]
	.loc	1 62 14                         @ lvgl/src/lv_misc/lv_debug.c:62:14
	str	r0, [sp, #8]
.Ltmp8:
	.loc	1 65 11                         @ lvgl/src/lv_misc/lv_debug.c:65:11
	str	r0, [sp, #4]
	.loc	1 65 9 is_stmt 0                @ lvgl/src/lv_misc/lv_debug.c:65:9
	b	.LBB2_1
.LBB2_1:                                @ =>This Inner Loop Header: Depth=1
.Ltmp9:
	.loc	1 65 16                         @ lvgl/src/lv_misc/lv_debug.c:65:16
	ldr	r2, [sp, #4]
	movs	r1, #0
	mov	r0, r1
	.loc	1 65 44                         @ lvgl/src/lv_misc/lv_debug.c:65:44
	cmp.w	r1, r2, lsr #13
	str	r0, [sp]                        @ 4-byte Spill
	bne	.LBB2_3
	b	.LBB2_2
.LBB2_2:                                @   in Loop: Header=BB2_1 Depth=1
	.loc	1 65 47                         @ lvgl/src/lv_misc/lv_debug.c:65:47
	ldr	r0, [sp, #16]
	.loc	1 65 49                         @ lvgl/src/lv_misc/lv_debug.c:65:49
	ldr	r1, [sp, #4]
	.loc	1 65 47                         @ lvgl/src/lv_misc/lv_debug.c:65:47
	ldrb	r0, [r0, r1]
	.loc	1 65 52                         @ lvgl/src/lv_misc/lv_debug.c:65:52
	cmp	r0, #0
	it	ne
	movne	r0, #1
	str	r0, [sp]                        @ 4-byte Spill
	b	.LBB2_3
.LBB2_3:                                @   in Loop: Header=BB2_1 Depth=1
	.loc	1 0 0                           @ lvgl/src/lv_misc/lv_debug.c:0:0
	ldr	r0, [sp]                        @ 4-byte Reload
.Ltmp10:
	.loc	1 65 5                          @ lvgl/src/lv_misc/lv_debug.c:65:5
	lsls	r0, r0, #31
	cbz	r0, .LBB2_15
	b	.LBB2_4
.LBB2_4:                                @   in Loop: Header=BB2_1 Depth=1
.Ltmp11:
	.loc	1 66 12 is_stmt 1               @ lvgl/src/lv_misc/lv_debug.c:66:12
	ldr	r0, [sp, #16]
	.loc	1 66 14 is_stmt 0               @ lvgl/src/lv_misc/lv_debug.c:66:14
	ldr	r1, [sp, #4]
	.loc	1 66 12                         @ lvgl/src/lv_misc/lv_debug.c:66:12
	ldrb	r0, [r0, r1]
	.loc	1 66 20                         @ lvgl/src/lv_misc/lv_debug.c:66:20
	ldrb.w	r1, [sp, #15]
.Ltmp12:
	.loc	1 66 12                         @ lvgl/src/lv_misc/lv_debug.c:66:12
	cmp	r0, r1
	beq	.LBB2_6
	b	.LBB2_5
.LBB2_5:                                @   in Loop: Header=BB2_1 Depth=1
.Ltmp13:
	.loc	1 67 25 is_stmt 1               @ lvgl/src/lv_misc/lv_debug.c:67:25
	ldr	r0, [sp, #16]
	.loc	1 67 27 is_stmt 0               @ lvgl/src/lv_misc/lv_debug.c:67:27
	ldr	r1, [sp, #4]
	.loc	1 67 25                         @ lvgl/src/lv_misc/lv_debug.c:67:25
	ldrb	r0, [r0, r1]
	.loc	1 67 23                         @ lvgl/src/lv_misc/lv_debug.c:67:23
	strb.w	r0, [sp, #15]
	movs	r0, #1
	.loc	1 68 17 is_stmt 1               @ lvgl/src/lv_misc/lv_debug.c:68:17
	str	r0, [sp, #8]
	.loc	1 69 9                          @ lvgl/src/lv_misc/lv_debug.c:69:9
	b	.LBB2_11
.Ltmp14:
.LBB2_6:                                @   in Loop: Header=BB2_1 Depth=1
	.loc	1 70 17                         @ lvgl/src/lv_misc/lv_debug.c:70:17
	ldr	r0, [sp, #16]
	.loc	1 70 19 is_stmt 0               @ lvgl/src/lv_misc/lv_debug.c:70:19
	ldr	r1, [sp, #4]
	.loc	1 70 17                         @ lvgl/src/lv_misc/lv_debug.c:70:17
	ldrb	r0, [r0, r1]
.Ltmp15:
	.loc	1 70 17                         @ lvgl/src/lv_misc/lv_debug.c:70:17
	cmp	r0, #128
	blt	.LBB2_10
	b	.LBB2_7
.LBB2_7:                                @   in Loop: Header=BB2_1 Depth=1
.Ltmp16:
	.loc	1 71 16 is_stmt 1               @ lvgl/src/lv_misc/lv_debug.c:71:16
	ldr	r0, [sp, #8]
	adds	r0, #1
	str	r0, [sp, #8]
.Ltmp17:
	.loc	1 72 16                         @ lvgl/src/lv_misc/lv_debug.c:72:16
	ldr	r0, [sp, #8]
.Ltmp18:
	.loc	1 72 16 is_stmt 0               @ lvgl/src/lv_misc/lv_debug.c:72:16
	cmp	r0, #9
	blo	.LBB2_9
	b	.LBB2_8
.LBB2_8:
	.loc	1 0 16                          @ lvgl/src/lv_misc/lv_debug.c:0:16
	movs	r0, #0
.Ltmp19:
	.loc	1 74 17 is_stmt 1               @ lvgl/src/lv_misc/lv_debug.c:74:17
	strb.w	r0, [sp, #27]
	b	.LBB2_18
.Ltmp20:
.LBB2_9:                                @   in Loop: Header=BB2_1 Depth=1
	.loc	1 76 9                          @ lvgl/src/lv_misc/lv_debug.c:76:9
	b	.LBB2_10
.Ltmp21:
.LBB2_10:                               @   in Loop: Header=BB2_1 Depth=1
	.loc	1 0 9 is_stmt 0                 @ lvgl/src/lv_misc/lv_debug.c:0:9
	b	.LBB2_11
.LBB2_11:                               @   in Loop: Header=BB2_1 Depth=1
.Ltmp22:
	.loc	1 78 12 is_stmt 1               @ lvgl/src/lv_misc/lv_debug.c:78:12
	ldr	r0, [sp, #16]
	.loc	1 78 14 is_stmt 0               @ lvgl/src/lv_misc/lv_debug.c:78:14
	ldr	r1, [sp, #4]
	.loc	1 78 12                         @ lvgl/src/lv_misc/lv_debug.c:78:12
	ldrb	r0, [r0, r1]
.Ltmp23:
	.loc	1 78 12                         @ lvgl/src/lv_misc/lv_debug.c:78:12
	cmp	r0, #9
	bgt	.LBB2_13
	b	.LBB2_12
.LBB2_12:
	.loc	1 0 12                          @ lvgl/src/lv_misc/lv_debug.c:0:12
	movs	r0, #0
.Ltmp24:
	.loc	1 80 13 is_stmt 1               @ lvgl/src/lv_misc/lv_debug.c:80:13
	strb.w	r0, [sp, #27]
	b	.LBB2_18
.Ltmp25:
.LBB2_13:                               @   in Loop: Header=BB2_1 Depth=1
	.loc	1 82 5                          @ lvgl/src/lv_misc/lv_debug.c:82:5
	b	.LBB2_14
.Ltmp26:
.LBB2_14:                               @   in Loop: Header=BB2_1 Depth=1
	.loc	1 65 62                         @ lvgl/src/lv_misc/lv_debug.c:65:62
	ldr	r0, [sp, #4]
	adds	r0, #1
	str	r0, [sp, #4]
	.loc	1 65 5 is_stmt 0                @ lvgl/src/lv_misc/lv_debug.c:65:5
	b	.LBB2_1
.Ltmp27:
.LBB2_15:
	.loc	1 84 8 is_stmt 1                @ lvgl/src/lv_misc/lv_debug.c:84:8
	ldr	r0, [sp, #16]
	.loc	1 84 10 is_stmt 0               @ lvgl/src/lv_misc/lv_debug.c:84:10
	ldr	r1, [sp, #4]
	.loc	1 84 8                          @ lvgl/src/lv_misc/lv_debug.c:84:8
	ldrb	r0, [r0, r1]
.Ltmp28:
	.loc	1 84 8                          @ lvgl/src/lv_misc/lv_debug.c:84:8
	cbnz	r0, .LBB2_17
	b	.LBB2_16
.LBB2_16:
	.loc	1 0 8                           @ lvgl/src/lv_misc/lv_debug.c:0:8
	movs	r0, #1
.Ltmp29:
	.loc	1 84 22                         @ lvgl/src/lv_misc/lv_debug.c:84:22
	strb.w	r0, [sp, #27]
	b	.LBB2_18
.Ltmp30:
.LBB2_17:
	.loc	1 0 22                          @ lvgl/src/lv_misc/lv_debug.c:0:22
	movs	r0, #0
	.loc	1 87 5 is_stmt 1                @ lvgl/src/lv_misc/lv_debug.c:87:5
	strb.w	r0, [sp, #27]
	b	.LBB2_18
.LBB2_18:
	.loc	1 88 1                          @ lvgl/src/lv_misc/lv_debug.c:88:1
	ldrb.w	r0, [sp, #27]
	add	sp, #28
	bx	lr
.Ltmp31:
.Lfunc_end2:
	.size	lv_debug_check_str, .Lfunc_end2-lv_debug_check_str
	.cfi_endproc
	.cantunwind
	.fnend
                                        @ -- End function
	.section	.text.lv_debug_log_error,"ax",%progbits
	.hidden	lv_debug_log_error              @ -- Begin function lv_debug_log_error
	.globl	lv_debug_log_error
	.p2align	3
	.type	lv_debug_log_error,%function
	.code	16                              @ @lv_debug_log_error
	.thumb_func
lv_debug_log_error:
.Lfunc_begin3:
	.loc	1 91 0                          @ lvgl/src/lv_misc/lv_debug.c:91:0
	.fnstart
	.cfi_startproc
@ %bb.0:
	.save	{r7, lr}
	push	{r7, lr}
	.cfi_def_cfa_offset 8
	.cfi_offset lr, -4
	.cfi_offset r7, -8
	.pad	#288
	sub	sp, #288
	.cfi_def_cfa_offset 296
                                        @ kill: def $r1 killed $r3
                                        @ kill: def $r1 killed $r2
	str	r0, [sp, #284]
	str	r3, [sp, #276]
	str	r2, [sp, #272]
.Ltmp32:
	.loc	1 94 29 prologue_end            @ lvgl/src/lv_misc/lv_debug.c:94:29
	ldr	r0, [sp, #284]
	.loc	1 94 22 is_stmt 0               @ lvgl/src/lv_misc/lv_debug.c:94:22
	bl	strlen
	.loc	1 94 12                         @ lvgl/src/lv_misc/lv_debug.c:94:12
	str	r0, [sp, #268]
	movs	r0, #4
	.loc	1 95 14 is_stmt 1               @ lvgl/src/lv_misc/lv_debug.c:95:14
	str	r0, [sp, #264]
.Ltmp33:
	.loc	1 97 8                          @ lvgl/src/lv_misc/lv_debug.c:97:8
	ldr	r0, [sp, #268]
.Ltmp34:
	.loc	1 97 8 is_stmt 0                @ lvgl/src/lv_misc/lv_debug.c:97:8
	cmp	r0, #229
	bhi	.LBB3_6
	b	.LBB3_1
.LBB3_1:
	.loc	1 0 8                           @ lvgl/src/lv_misc/lv_debug.c:0:8
	add.w	r0, sp, #9
.Ltmp35:
	.loc	1 99 16 is_stmt 1               @ lvgl/src/lv_misc/lv_debug.c:99:16
	str	r0, [sp, #4]
	.loc	1 102 20                        @ lvgl/src/lv_misc/lv_debug.c:102:20
	ldr	r0, [sp, #4]
	.loc	1 102 26 is_stmt 0              @ lvgl/src/lv_misc/lv_debug.c:102:26
	ldr	r1, [sp, #284]
	.loc	1 102 31                        @ lvgl/src/lv_misc/lv_debug.c:102:31
	ldr	r2, [sp, #268]
	.loc	1 102 9                         @ lvgl/src/lv_misc/lv_debug.c:102:9
	bl	_lv_memcpy
	.loc	1 103 17 is_stmt 1              @ lvgl/src/lv_misc/lv_debug.c:103:17
	ldr	r1, [sp, #268]
	.loc	1 103 14 is_stmt 0              @ lvgl/src/lv_misc/lv_debug.c:103:14
	ldr	r0, [sp, #4]
	add	r0, r1
	str	r0, [sp, #4]
	.loc	1 106 10 is_stmt 1              @ lvgl/src/lv_misc/lv_debug.c:106:10
	ldr	r1, [sp, #4]
	movs	r0, #32
	.loc	1 106 15 is_stmt 0              @ lvgl/src/lv_misc/lv_debug.c:106:15
	strb	r0, [r1]
	.loc	1 107 14 is_stmt 1              @ lvgl/src/lv_misc/lv_debug.c:107:14
	ldr	r0, [sp, #4]
	adds	r0, #1
	str	r0, [sp, #4]
	.loc	1 108 10                        @ lvgl/src/lv_misc/lv_debug.c:108:10
	ldr	r1, [sp, #4]
	movs	r0, #40
	.loc	1 108 15 is_stmt 0              @ lvgl/src/lv_misc/lv_debug.c:108:15
	strb	r0, [r1]
	.loc	1 109 14 is_stmt 1              @ lvgl/src/lv_misc/lv_debug.c:109:14
	ldr	r0, [sp, #4]
	adds	r0, #1
	str	r0, [sp, #4]
	.loc	1 110 10                        @ lvgl/src/lv_misc/lv_debug.c:110:10
	ldr	r1, [sp, #4]
	movs	r0, #48
	.loc	1 110 15 is_stmt 0              @ lvgl/src/lv_misc/lv_debug.c:110:15
	strb	r0, [r1]
	.loc	1 111 14 is_stmt 1              @ lvgl/src/lv_misc/lv_debug.c:111:14
	ldr	r0, [sp, #4]
	adds	r0, #1
	str	r0, [sp, #4]
	.loc	1 112 10                        @ lvgl/src/lv_misc/lv_debug.c:112:10
	ldr	r1, [sp, #4]
	movs	r0, #120
	.loc	1 112 15 is_stmt 0              @ lvgl/src/lv_misc/lv_debug.c:112:15
	strb	r0, [r1]
	.loc	1 113 14 is_stmt 1              @ lvgl/src/lv_misc/lv_debug.c:113:14
	ldr	r0, [sp, #4]
	adds	r0, #1
	str	r0, [sp, #4]
.Ltmp36:
	.loc	1 116 17                        @ lvgl/src/lv_misc/lv_debug.c:116:17
	ldr	r1, [sp, #264]
	mov.w	r0, #-1
	.loc	1 116 31 is_stmt 0              @ lvgl/src/lv_misc/lv_debug.c:116:31
	add.w	r0, r0, r1, lsl #1
	.loc	1 116 15                        @ lvgl/src/lv_misc/lv_debug.c:116:15
	strb.w	r0, [sp, #3]
	.loc	1 116 13                        @ lvgl/src/lv_misc/lv_debug.c:116:13
	b	.LBB3_2
.LBB3_2:                                @ =>This Inner Loop Header: Depth=1
.Ltmp37:
	.loc	1 116 36                        @ lvgl/src/lv_misc/lv_debug.c:116:36
	ldrsb.w	r0, [sp, #3]
.Ltmp38:
	.loc	1 116 9                         @ lvgl/src/lv_misc/lv_debug.c:116:9
	cmp	r0, #0
	bmi	.LBB3_5
	b	.LBB3_3
.LBB3_3:                                @   in Loop: Header=BB3_2 Depth=1
.Ltmp39:
	.loc	1 117 64 is_stmt 1              @ lvgl/src/lv_misc/lv_debug.c:117:64
	ldr	r0, [sp, #272]
	.loc	1 117 74 is_stmt 0              @ lvgl/src/lv_misc/lv_debug.c:117:74
	ldrsb.w	r1, [sp, #3]
	.loc	1 117 76                        @ lvgl/src/lv_misc/lv_debug.c:117:76
	lsls	r1, r1, #2
	.loc	1 117 70                        @ lvgl/src/lv_misc/lv_debug.c:117:70
	lsrs	r0, r1
	.loc	1 117 82                        @ lvgl/src/lv_misc/lv_debug.c:117:82
	and	r0, r0, #15
	.loc	1 117 21                        @ lvgl/src/lv_misc/lv_debug.c:117:21
	strb.w	r0, [sp, #2]
	.loc	1 119 25 is_stmt 1              @ lvgl/src/lv_misc/lv_debug.c:119:25
	ldrb.w	r1, [sp, #2]
	.loc	1 119 21 is_stmt 0              @ lvgl/src/lv_misc/lv_debug.c:119:21
	movw	r0, :lower16:lv_debug_log_error.hex
	movt	r0, :upper16:lv_debug_log_error.hex
	ldrb	r0, [r0, r1]
	.loc	1 119 14                        @ lvgl/src/lv_misc/lv_debug.c:119:14
	ldr	r1, [sp, #4]
	.loc	1 119 19                        @ lvgl/src/lv_misc/lv_debug.c:119:19
	strb	r0, [r1]
	.loc	1 120 17 is_stmt 1              @ lvgl/src/lv_misc/lv_debug.c:120:17
	ldr	r0, [sp, #4]
	adds	r0, #1
	str	r0, [sp, #4]
	.loc	1 121 9                         @ lvgl/src/lv_misc/lv_debug.c:121:9
	b	.LBB3_4
.Ltmp40:
.LBB3_4:                                @   in Loop: Header=BB3_2 Depth=1
	.loc	1 116 45                        @ lvgl/src/lv_misc/lv_debug.c:116:45
	ldrb.w	r0, [sp, #3]
	subs	r0, #1
	strb.w	r0, [sp, #3]
	.loc	1 116 9 is_stmt 0               @ lvgl/src/lv_misc/lv_debug.c:116:9
	b	.LBB3_2
.Ltmp41:
.LBB3_5:
	.loc	1 123 10 is_stmt 1              @ lvgl/src/lv_misc/lv_debug.c:123:10
	ldr	r1, [sp, #4]
	movs	r0, #41
	.loc	1 123 15 is_stmt 0              @ lvgl/src/lv_misc/lv_debug.c:123:15
	strb	r0, [r1]
	.loc	1 124 14 is_stmt 1              @ lvgl/src/lv_misc/lv_debug.c:124:14
	ldr	r0, [sp, #4]
	adds	r0, #1
	str	r0, [sp, #4]
	.loc	1 126 10                        @ lvgl/src/lv_misc/lv_debug.c:126:10
	ldr	r1, [sp, #4]
	movs	r0, #0
	.loc	1 126 15 is_stmt 0              @ lvgl/src/lv_misc/lv_debug.c:126:15
	strb	r0, [r1]
	.loc	1 128 5 is_stmt 1               @ lvgl/src/lv_misc/lv_debug.c:128:5
	b	.LBB3_7
.Ltmp42:
.LBB3_6:
	.loc	1 0 5 is_stmt 0                 @ lvgl/src/lv_misc/lv_debug.c:0:5
	b	.LBB3_7
.LBB3_7:
	.loc	1 132 1 is_stmt 1               @ lvgl/src/lv_misc/lv_debug.c:132:1
	add	sp, #288
	pop	{r7, pc}
.Ltmp43:
.Lfunc_end3:
	.size	lv_debug_log_error, .Lfunc_end3-lv_debug_log_error
	.cfi_endproc
	.cantunwind
	.fnend
                                        @ -- End function
	.type	lv_debug_log_error.hex,%object  @ @lv_debug_log_error.hex
	.section	.rodata.lv_debug_log_error.hex,"a",%progbits
lv_debug_log_error.hex:
	.asciz	"0123456789ABCDEF"
	.size	lv_debug_log_error.hex, 17

	.file	4 "D:\\Keil_v5\\ARM\\ARMCLANG\\Bin\\..\\include" "stddef.h"
	.section	".note.GNU-stack","",%progbits
	.eabi_attribute	30, 6	@ Tag_ABI_optimization_goals
	.ARM_attribute	16, 1	@ Tag_AV_eba