	.text
	.syntax unified
	.eabi_attribute	67, "2.09"	@ Tag_conformance
	.cpu	cortex-m7
	.eabi_attribute	6, 13	@ Tag_CPU_arch
	.eabi_attribute	7, 77	@ Tag_CPU_arch_profile
	.eabi_attribute	8, 0	@ Tag_ARM_ISA_use
	.eabi_attribute	9, 2	@ Tag_THUMB_ISA_use
	.fpu	fpv5-d16
	.eabi_attribute	36, 1	@ Tag_FP_HP_extension
	.eabi_attribute	34, 1	@ Tag_CPU_unaligned_access
	.eabi_attribute	17, 1	@ Tag_ABI_PCS_GOT_use
	.eabi_attribute	20, 2	@ Tag_ABI_FP_denormal
	.eabi_attribute	21, 0	@ Tag_ABI_FP_exceptions
	.eabi_attribute	23, 1	@ Tag_ABI_FP_number_model
	.eabi_attribute	24, 1	@ Tag_ABI_align_needed
	.eabi_attribute	25, 1	@ Tag_ABI_align_preserved
	.eabi_attribute	28, 1	@ Tag_ABI_VFP_args
	.eabi_attribute	38, 1	@ Tag_ABI_FP_16bit_format
	.eabi_attribute	18, 2	@ Tag_ABI_PCS_wchar_t
	.eabi_attribute	26, 1	@ Tag_ABI_enum_size
	.eabi_attribute	14, 0	@ Tag_ABI_PCS_R9_use
	.file	"lv_draw_label.c"
	.file	1 "D:\\Keil_v5\\ARM\\ARMCLANG\\Bin\\..\\include" "stdint.h"
	.file	2 "E:\\Smart-access-control\\Hardware\\CODE" "lvgl/src/lv_draw/lv_draw_label.c"
	.file	3 "E:\\Smart-access-control\\Hardware\\CODE" "lvgl/src/lv_draw/../lv_hal/../lv_misc/lv_color.h"
	.file	4 "E:\\Smart-access-control\\Hardware\\CODE" "lvgl/src/lv_draw/../lv_misc/lv_bidi.h"
	.file	5 "E:\\Smart-access-control\\Hardware\\CODE" "lvgl/src/lv_draw/../lv_misc/lv_txt.h"
	.file	6 "E:\\Smart-access-control\\Hardware\\CODE" "lvgl/src/lv_draw/../lv_core/lv_style.h"
	.file	7 "E:\\Smart-access-control\\Hardware\\CODE" "lvgl/src/lv_draw/lv_draw_mask.h"
	.file	8 "E:\\Smart-access-control\\Hardware\\CODE" "./lvgl/src/lv_conf.h"
	.section	.text.lv_draw_label_dsc_init,"ax",%progbits
	.hidden	lv_draw_label_dsc_init          @ -- Begin function lv_draw_label_dsc_init
	.globl	lv_draw_label_dsc_init
	.p2align	3
	.type	lv_draw_label_dsc_init,%function
	.code	16                              @ @lv_draw_label_dsc_init
	.thumb_func
lv_draw_label_dsc_init:
.Lfunc_begin0:
	.loc	2 93 0                          @ lvgl/src/lv_draw/lv_draw_label.c:93:0
	.fnstart
	.cfi_sections .debug_frame
	.cfi_startproc
@ %bb.0:
	.save	{r7, lr}
	push	{r7, lr}
	.cfi_def_cfa_offset 8
	.cfi_offset lr, -4
	.cfi_offset r7, -8
	.pad	#16
	sub	sp, #16
	.cfi_def_cfa_offset 24
	str	r0, [sp, #12]
.Ltmp0:
	.loc	2 94 19 prologue_end            @ lvgl/src/lv_draw/lv_draw_label.c:94:19
	ldr	r0, [sp, #12]
	movs	r1, #40
	.loc	2 94 5 is_stmt 0                @ lvgl/src/lv_draw/lv_draw_label.c:94:5
	bl	_lv_memset_00
	.loc	2 95 5 is_stmt 1                @ lvgl/src/lv_draw/lv_draw_label.c:95:5
	ldr	r0, [sp, #12]
	movs	r1, #255
	.loc	2 95 14 is_stmt 0               @ lvgl/src/lv_draw/lv_draw_label.c:95:14
	strb	r1, [r0, #16]
	.loc	2 96 5 is_stmt 1                @ lvgl/src/lv_draw/lv_draw_label.c:96:5
	ldr	r3, [sp, #12]
	movs	r0, #0
	.loc	2 96 18 is_stmt 0               @ lvgl/src/lv_draw/lv_draw_label.c:96:18
	strb.w	r0, [sp, #8]
	strb.w	r0, [sp, #9]
	strb.w	r0, [sp, #10]
	strb.w	r1, [sp, #11]
	ldr	r2, [sp, #8]
	str	r2, [r3]
	.loc	2 97 5 is_stmt 1                @ lvgl/src/lv_draw/lv_draw_label.c:97:5
	ldr	r3, [sp, #12]
	.loc	2 97 15 is_stmt 0               @ lvgl/src/lv_draw/lv_draw_label.c:97:15
	movw	r2, :lower16:lv_font_montserrat_14
	movt	r2, :upper16:lv_font_montserrat_14
	str	r2, [r3, #12]
	.loc	2 98 5 is_stmt 1                @ lvgl/src/lv_draw/lv_draw_label.c:98:5
	ldr	r3, [sp, #12]
	movw	r2, #65535
	.loc	2 98 20 is_stmt 0               @ lvgl/src/lv_draw/lv_draw_label.c:98:20
	str	r2, [r3, #24]
	.loc	2 99 5 is_stmt 1                @ lvgl/src/lv_draw/lv_draw_label.c:99:5
	ldr	r3, [sp, #12]
	.loc	2 99 18 is_stmt 0               @ lvgl/src/lv_draw/lv_draw_label.c:99:18
	str	r2, [r3, #28]
	.loc	2 100 5 is_stmt 1               @ lvgl/src/lv_draw/lv_draw_label.c:100:5
	ldr	r3, [sp, #12]
	.loc	2 100 22 is_stmt 0              @ lvgl/src/lv_draw/lv_draw_label.c:100:22
	strb.w	r0, [sp, #4]
	strb.w	r0, [sp, #5]
	strb.w	r0, [sp, #6]
	strb.w	r1, [sp, #7]
	ldr	r2, [sp, #4]
	str	r2, [r3, #4]
	.loc	2 101 5 is_stmt 1               @ lvgl/src/lv_draw/lv_draw_label.c:101:5
	ldr	r2, [sp, #12]
	.loc	2 101 25 is_stmt 0              @ lvgl/src/lv_draw/lv_draw_label.c:101:25
	strb.w	r1, [sp]
	strb.w	r0, [sp, #1]
	strb.w	r0, [sp, #2]
	strb.w	r1, [sp, #3]
	ldr	r1, [sp]
	str	r1, [r2, #8]
	.loc	2 102 5 is_stmt 1               @ lvgl/src/lv_draw/lv_draw_label.c:102:5
	ldr	r1, [sp, #12]
	.loc	2 102 19 is_stmt 0              @ lvgl/src/lv_draw/lv_draw_label.c:102:19
	strb.w	r0, [r1, #36]
	.loc	2 103 1 is_stmt 1               @ lvgl/src/lv_draw/lv_draw_label.c:103:1
	add	sp, #16
	pop	{r7, pc}
.Ltmp1:
.Lfunc_end0:
	.size	lv_draw_label_dsc_init, .Lfunc_end0-lv_draw_label_dsc_init
	.cfi_endproc
	.cantunwind
	.fnend
                                        @ -- End function
	.section	.text.lv_draw_label,"ax",%progbits
	.hidden	lv_draw_label                   @ -- Begin function lv_draw_label
	.globl	lv_draw_label
	.p2align	3
	.type	lv_draw_label,%function
	.code	16                              @ @lv_draw_label
	.thumb_func
lv_draw_label:
.Lfunc_begin1:
	.loc	2 118 0                         @ lvgl/src/lv_draw/lv_draw_label.c:118:0
	.fnstart
	.cfi_startproc
@ %bb.0:
	.save	{r4, lr}
	push	{r4, lr}
	.cfi_def_cfa_offset 8
	.cfi_offset lr, -4
	.cfi_offset r4, -8
	.pad	#344
	sub	sp, #344
	.cfi_def_cfa_offset 352
	ldr.w	r12, [sp, #352]
	str	r0, [sp, #340]
	str	r1, [sp, #336]
	str	r2, [sp, #332]
	str	r3, [sp, #328]
.Ltmp2:
	.loc	2 120 8 prologue_end            @ lvgl/src/lv_draw/lv_draw_label.c:120:8
	ldr	r0, [sp, #332]
	.loc	2 120 13 is_stmt 0              @ lvgl/src/lv_draw/lv_draw_label.c:120:13
	ldrb	r0, [r0, #16]
.Ltmp3:
	.loc	2 120 8                         @ lvgl/src/lv_draw/lv_draw_label.c:120:8
	cmp	r0, #2
	bgt	.LBB1_2
	b	.LBB1_1
.LBB1_1:
.Ltmp4:
	.loc	2 120 32                        @ lvgl/src/lv_draw/lv_draw_label.c:120:32
	b	.LBB1_92
.Ltmp5:
.LBB1_2:
	.loc	2 121 30 is_stmt 1              @ lvgl/src/lv_draw/lv_draw_label.c:121:30
	ldr	r0, [sp, #332]
	.loc	2 121 35 is_stmt 0              @ lvgl/src/lv_draw/lv_draw_label.c:121:35
	ldr	r0, [r0, #12]
	.loc	2 121 23                        @ lvgl/src/lv_draw/lv_draw_label.c:121:23
	str	r0, [sp, #324]
.Ltmp6:
	.loc	2 125 8 is_stmt 1               @ lvgl/src/lv_draw/lv_draw_label.c:125:8
	ldr	r0, [sp, #328]
	ldrsb.w	r0, [r0]
.Ltmp7:
	.loc	2 125 8 is_stmt 0               @ lvgl/src/lv_draw/lv_draw_label.c:125:8
	cbnz	r0, .LBB1_4
	b	.LBB1_3
.LBB1_3:
.Ltmp8:
	.loc	2 125 25                        @ lvgl/src/lv_draw/lv_draw_label.c:125:25
	b	.LBB1_92
.Ltmp9:
.LBB1_4:
	.loc	2 128 54 is_stmt 1              @ lvgl/src/lv_draw/lv_draw_label.c:128:54
	ldr	r1, [sp, #340]
	.loc	2 128 62 is_stmt 0              @ lvgl/src/lv_draw/lv_draw_label.c:128:62
	ldr	r2, [sp, #336]
	add	r0, sp, #312
	.loc	2 128 20                        @ lvgl/src/lv_draw/lv_draw_label.c:128:20
	bl	_lv_area_intersect
	.loc	2 128 10                        @ lvgl/src/lv_draw/lv_draw_label.c:128:10
	strb.w	r0, [sp, #311]
.Ltmp10:
	.loc	2 129 9 is_stmt 1               @ lvgl/src/lv_draw/lv_draw_label.c:129:9
	ldrb.w	r0, [sp, #311]
.Ltmp11:
	.loc	2 129 8 is_stmt 0               @ lvgl/src/lv_draw/lv_draw_label.c:129:8
	lsls	r0, r0, #31
	cbnz	r0, .LBB1_6
	b	.LBB1_5
.LBB1_5:
.Ltmp12:
	.loc	2 129 18                        @ lvgl/src/lv_draw/lv_draw_label.c:129:18
	b	.LBB1_92
.Ltmp13:
.LBB1_6:
	.loc	2 131 9 is_stmt 1               @ lvgl/src/lv_draw/lv_draw_label.c:131:9
	ldr	r0, [sp, #332]
	ldrb.w	r0, [r0, #37]
.Ltmp14:
	.loc	2 131 8 is_stmt 0               @ lvgl/src/lv_draw/lv_draw_label.c:131:8
	lsls	r0, r0, #30
	cmp	r0, #0
	bmi	.LBB1_8
	b	.LBB1_7
.LBB1_7:
.Ltmp15:
	.loc	2 133 31 is_stmt 1              @ lvgl/src/lv_draw/lv_draw_label.c:133:31
	ldr	r0, [sp, #340]
	.loc	2 133 13 is_stmt 0              @ lvgl/src/lv_draw/lv_draw_label.c:133:13
	bl	lv_area_get_width
	.loc	2 133 11                        @ lvgl/src/lv_draw/lv_draw_label.c:133:11
	str	r0, [sp, #320]
	.loc	2 134 5 is_stmt 1               @ lvgl/src/lv_draw/lv_draw_label.c:134:5
	b	.LBB1_9
.Ltmp16:
.LBB1_8:
	.loc	2 138 30                        @ lvgl/src/lv_draw/lv_draw_label.c:138:30
	ldr	r1, [sp, #328]
	.loc	2 138 35 is_stmt 0              @ lvgl/src/lv_draw/lv_draw_label.c:138:35
	ldr.w	r12, [sp, #332]
	.loc	2 138 40                        @ lvgl/src/lv_draw/lv_draw_label.c:138:40
	ldr.w	r2, [r12, #12]
	.loc	2 138 51                        @ lvgl/src/lv_draw/lv_draw_label.c:138:51
	ldrsh.w	r3, [r12, #20]
	.loc	2 138 70                        @ lvgl/src/lv_draw/lv_draw_label.c:138:70
	ldrsh.w	r0, [r12, #18]
	.loc	2 139 31 is_stmt 1              @ lvgl/src/lv_draw/lv_draw_label.c:139:31
	ldrb.w	lr, [r12, #37]
	.loc	2 138 9                         @ lvgl/src/lv_draw/lv_draw_label.c:138:9
	mov	r12, sp
	str.w	lr, [r12, #8]
	movw	lr, #31768
	str.w	lr, [r12, #4]
	str.w	r0, [r12]
	add	r0, sp, #304
	bl	_lv_txt_get_size
	.loc	2 140 15                        @ lvgl/src/lv_draw/lv_draw_label.c:140:15
	ldrsh.w	r0, [sp, #304]
	.loc	2 140 11 is_stmt 0              @ lvgl/src/lv_draw/lv_draw_label.c:140:11
	str	r0, [sp, #320]
	b	.LBB1_9
.Ltmp17:
.LBB1_9:
	.loc	2 143 56 is_stmt 1              @ lvgl/src/lv_draw/lv_draw_label.c:143:56
	ldr	r0, [sp, #324]
	.loc	2 143 32 is_stmt 0              @ lvgl/src/lv_draw/lv_draw_label.c:143:32
	bl	lv_font_get_line_height
	.loc	2 143 13                        @ lvgl/src/lv_draw/lv_draw_label.c:143:13
	str	r0, [sp, #300]
	.loc	2 144 27 is_stmt 1              @ lvgl/src/lv_draw/lv_draw_label.c:144:27
	ldr	r0, [sp, #300]
	.loc	2 144 46 is_stmt 0              @ lvgl/src/lv_draw/lv_draw_label.c:144:46
	ldr	r1, [sp, #332]
	.loc	2 144 51                        @ lvgl/src/lv_draw/lv_draw_label.c:144:51
	ldrsh.w	r1, [r1, #18]
	.loc	2 144 44                        @ lvgl/src/lv_draw/lv_draw_label.c:144:44
	add	r0, r1
	.loc	2 144 13                        @ lvgl/src/lv_draw/lv_draw_label.c:144:13
	str	r0, [sp, #296]
	movs	r0, #0
	.loc	2 147 13 is_stmt 1              @ lvgl/src/lv_draw/lv_draw_label.c:147:13
	str	r0, [sp, #292]
	.loc	2 149 13                        @ lvgl/src/lv_draw/lv_draw_label.c:149:13
	ldr	r1, [sp, #340]
	.loc	2 149 21 is_stmt 0              @ lvgl/src/lv_draw/lv_draw_label.c:149:21
	ldrh	r1, [r1]
	.loc	2 149 11                        @ lvgl/src/lv_draw/lv_draw_label.c:149:11
	strh.w	r1, [sp, #288]
	.loc	2 150 13 is_stmt 1              @ lvgl/src/lv_draw/lv_draw_label.c:150:13
	ldr	r1, [sp, #340]
	.loc	2 150 21 is_stmt 0              @ lvgl/src/lv_draw/lv_draw_label.c:150:21
	ldrh	r1, [r1, #2]
	.loc	2 150 11                        @ lvgl/src/lv_draw/lv_draw_label.c:150:11
	strh.w	r1, [sp, #290]
	.loc	2 152 13 is_stmt 1              @ lvgl/src/lv_draw/lv_draw_label.c:152:13
	str	r0, [sp, #284]
	.loc	2 153 13                        @ lvgl/src/lv_draw/lv_draw_label.c:153:13
	str	r0, [sp, #280]
	.loc	2 154 13                        @ lvgl/src/lv_draw/lv_draw_label.c:154:13
	ldr	r1, [sp, #332]
	.loc	2 154 18 is_stmt 0              @ lvgl/src/lv_draw/lv_draw_label.c:154:18
	ldrsh.w	r1, [r1, #32]
	.loc	2 154 11                        @ lvgl/src/lv_draw/lv_draw_label.c:154:11
	str	r1, [sp, #284]
	.loc	2 155 13 is_stmt 1              @ lvgl/src/lv_draw/lv_draw_label.c:155:13
	ldr	r1, [sp, #332]
	.loc	2 155 18 is_stmt 0              @ lvgl/src/lv_draw/lv_draw_label.c:155:18
	ldrsh.w	r1, [r1, #34]
	.loc	2 155 11                        @ lvgl/src/lv_draw/lv_draw_label.c:155:11
	str	r1, [sp, #280]
	.loc	2 156 14 is_stmt 1              @ lvgl/src/lv_draw/lv_draw_label.c:156:14
	ldr	r2, [sp, #280]
	.loc	2 156 11 is_stmt 0              @ lvgl/src/lv_draw/lv_draw_label.c:156:11
	ldrh.w	r1, [sp, #290]
	add	r1, r2
	strh.w	r1, [sp, #290]
	.loc	2 158 14 is_stmt 1              @ lvgl/src/lv_draw/lv_draw_label.c:158:14
	str	r0, [sp, #276]
	mov.w	r0, #-1
	.loc	2 159 13                        @ lvgl/src/lv_draw/lv_draw_label.c:159:13
	str	r0, [sp, #272]
.Ltmp18:
	.loc	2 162 8                         @ lvgl/src/lv_draw/lv_draw_label.c:162:8
	ldr	r0, [sp, #352]
	.loc	2 162 13 is_stmt 0              @ lvgl/src/lv_draw/lv_draw_label.c:162:13
	cbz	r0, .LBB1_18
	b	.LBB1_10
.LBB1_10:
	.loc	2 162 16                        @ lvgl/src/lv_draw/lv_draw_label.c:162:16
	ldr	r0, [sp, #280]
	.loc	2 162 27                        @ lvgl/src/lv_draw/lv_draw_label.c:162:27
	cbnz	r0, .LBB1_18
	b	.LBB1_11
.LBB1_11:
	.loc	2 162 30                        @ lvgl/src/lv_draw/lv_draw_label.c:162:30
	ldr	r0, [sp, #340]
	.loc	2 162 38                        @ lvgl/src/lv_draw/lv_draw_label.c:162:38
	ldrsh.w	r0, [r0, #2]
.Ltmp19:
	.loc	2 162 8                         @ lvgl/src/lv_draw/lv_draw_label.c:162:8
	cmp.w	r0, #-1
	bgt	.LBB1_18
	b	.LBB1_12
.LBB1_12:
.Ltmp20:
	.loc	2 164 12 is_stmt 1              @ lvgl/src/lv_draw/lv_draw_label.c:164:12
	ldr	r0, [sp, #352]
	ldr	r0, [r0, #8]
	ldr	r1, [sp, #340]
	ldrsh.w	r1, [r1, #2]
	subs	r0, r0, r1
	cmp	r0, #1
	blt	.LBB1_14
	b	.LBB1_13
.LBB1_13:
	ldr	r0, [sp, #352]
	ldr	r0, [r0, #8]
	ldr	r1, [sp, #340]
	ldrsh.w	r1, [r1, #2]
	subs	r0, r0, r1
	str	r0, [sp, #40]                   @ 4-byte Spill
	b	.LBB1_15
.LBB1_14:
	ldr	r0, [sp, #352]
	ldr	r1, [r0, #8]
	ldr	r0, [sp, #340]
	ldrsh.w	r0, [r0, #2]
	subs	r0, r0, r1
	str	r0, [sp, #40]                   @ 4-byte Spill
	b	.LBB1_15
.LBB1_15:
	ldr	r0, [sp, #40]                   @ 4-byte Reload
	.loc	2 164 84 is_stmt 0              @ lvgl/src/lv_draw/lv_draw_label.c:164:84
	ldr	r2, [sp, #296]
	mov.w	r1, #1024
	.loc	2 164 78                        @ lvgl/src/lv_draw/lv_draw_label.c:164:78
	sub.w	r1, r1, r2, lsl #1
.Ltmp21:
	.loc	2 164 12                        @ lvgl/src/lv_draw/lv_draw_label.c:164:12
	cmp	r0, r1
	ble	.LBB1_17
	b	.LBB1_16
.LBB1_16:
.Ltmp22:
	.loc	2 165 13 is_stmt 1              @ lvgl/src/lv_draw/lv_draw_label.c:165:13
	ldr	r1, [sp, #352]
	mov.w	r0, #-1
	.loc	2 165 30 is_stmt 0              @ lvgl/src/lv_draw/lv_draw_label.c:165:30
	str	r0, [r1]
	.loc	2 166 9 is_stmt 1               @ lvgl/src/lv_draw/lv_draw_label.c:166:9
	b	.LBB1_17
.Ltmp23:
.LBB1_17:
	.loc	2 167 27                        @ lvgl/src/lv_draw/lv_draw_label.c:167:27
	ldr	r0, [sp, #352]
	.loc	2 167 33 is_stmt 0              @ lvgl/src/lv_draw/lv_draw_label.c:167:33
	ldr	r0, [r0]
	.loc	2 167 25                        @ lvgl/src/lv_draw/lv_draw_label.c:167:25
	str	r0, [sp, #272]
	.loc	2 168 5 is_stmt 1               @ lvgl/src/lv_draw/lv_draw_label.c:168:5
	b	.LBB1_18
.Ltmp24:
.LBB1_18:
	.loc	2 171 8                         @ lvgl/src/lv_draw/lv_draw_label.c:171:8
	ldr	r0, [sp, #352]
	.loc	2 171 13 is_stmt 0              @ lvgl/src/lv_draw/lv_draw_label.c:171:13
	cbz	r0, .LBB1_21
	b	.LBB1_19
.LBB1_19:
	.loc	2 171 16                        @ lvgl/src/lv_draw/lv_draw_label.c:171:16
	ldr	r0, [sp, #272]
.Ltmp25:
	.loc	2 171 8                         @ lvgl/src/lv_draw/lv_draw_label.c:171:8
	cmp	r0, #0
	bmi	.LBB1_21
	b	.LBB1_20
.LBB1_20:
.Ltmp26:
	.loc	2 172 22 is_stmt 1              @ lvgl/src/lv_draw/lv_draw_label.c:172:22
	ldr	r0, [sp, #272]
	.loc	2 172 20 is_stmt 0              @ lvgl/src/lv_draw/lv_draw_label.c:172:20
	str	r0, [sp, #276]
	.loc	2 173 18 is_stmt 1              @ lvgl/src/lv_draw/lv_draw_label.c:173:18
	ldr	r0, [sp, #352]
	.loc	2 173 24 is_stmt 0              @ lvgl/src/lv_draw/lv_draw_label.c:173:24
	ldr	r1, [r0, #4]
	.loc	2 173 15                        @ lvgl/src/lv_draw/lv_draw_label.c:173:15
	ldrh.w	r0, [sp, #290]
	add	r0, r1
	strh.w	r0, [sp, #290]
	.loc	2 174 5 is_stmt 1               @ lvgl/src/lv_draw/lv_draw_label.c:174:5
	b	.LBB1_21
.Ltmp27:
.LBB1_21:
	.loc	2 176 25                        @ lvgl/src/lv_draw/lv_draw_label.c:176:25
	ldr	r1, [sp, #276]
	.loc	2 176 61 is_stmt 0              @ lvgl/src/lv_draw/lv_draw_label.c:176:61
	str	r1, [sp, #36]                   @ 4-byte Spill
	ldr	r0, [sp, #328]
	add	r0, r1
	.loc	2 176 78                        @ lvgl/src/lv_draw/lv_draw_label.c:176:78
	ldr	r1, [sp, #324]
	.loc	2 176 84                        @ lvgl/src/lv_draw/lv_draw_label.c:176:84
	ldr.w	r12, [sp, #332]
	.loc	2 176 89                        @ lvgl/src/lv_draw/lv_draw_label.c:176:89
	ldrsh.w	r2, [r12, #20]
	.loc	2 176 103                       @ lvgl/src/lv_draw/lv_draw_label.c:176:103
	ldrsh.w	r3, [sp, #320]
	.loc	2 176 111                       @ lvgl/src/lv_draw/lv_draw_label.c:176:111
	ldrb.w	r12, [r12, #37]
	.loc	2 176 38                        @ lvgl/src/lv_draw/lv_draw_label.c:176:38
	mov	lr, sp
	str.w	r12, [lr]
	bl	_lv_txt_get_next_line
	mov	r1, r0
	.loc	2 176 36                        @ lvgl/src/lv_draw/lv_draw_label.c:176:36
	ldr	r0, [sp, #36]                   @ 4-byte Reload
	add	r0, r1
	.loc	2 176 14                        @ lvgl/src/lv_draw/lv_draw_label.c:176:14
	str	r0, [sp, #268]
	.loc	2 179 5 is_stmt 1               @ lvgl/src/lv_draw/lv_draw_label.c:179:5
	b	.LBB1_22
.LBB1_22:                               @ =>This Inner Loop Header: Depth=1
	.loc	2 179 15 is_stmt 0              @ lvgl/src/lv_draw/lv_draw_label.c:179:15
	ldrsh.w	r0, [sp, #290]
	.loc	2 179 19                        @ lvgl/src/lv_draw/lv_draw_label.c:179:19
	ldr	r1, [sp, #300]
	.loc	2 179 17                        @ lvgl/src/lv_draw/lv_draw_label.c:179:17
	add	r0, r1
	.loc	2 179 38                        @ lvgl/src/lv_draw/lv_draw_label.c:179:38
	ldr	r1, [sp, #336]
	.loc	2 179 44                        @ lvgl/src/lv_draw/lv_draw_label.c:179:44
	ldrsh.w	r1, [r1, #2]
	.loc	2 179 5                         @ lvgl/src/lv_draw/lv_draw_label.c:179:5
	cmp	r0, r1
	bge	.LBB1_30
	b	.LBB1_23
.LBB1_23:                               @   in Loop: Header=BB1_22 Depth=1
.Ltmp28:
	.loc	2 181 22 is_stmt 1              @ lvgl/src/lv_draw/lv_draw_label.c:181:22
	ldr	r0, [sp, #268]
	.loc	2 181 20 is_stmt 0              @ lvgl/src/lv_draw/lv_draw_label.c:181:20
	str	r0, [sp, #276]
	.loc	2 182 44 is_stmt 1              @ lvgl/src/lv_draw/lv_draw_label.c:182:44
	ldr	r0, [sp, #328]
	.loc	2 182 48 is_stmt 0              @ lvgl/src/lv_draw/lv_draw_label.c:182:48
	ldr	r1, [sp, #276]
	.loc	2 182 44                        @ lvgl/src/lv_draw/lv_draw_label.c:182:44
	add	r0, r1
	.loc	2 182 61                        @ lvgl/src/lv_draw/lv_draw_label.c:182:61
	ldr	r1, [sp, #324]
	.loc	2 182 67                        @ lvgl/src/lv_draw/lv_draw_label.c:182:67
	ldr.w	r12, [sp, #332]
	.loc	2 182 72                        @ lvgl/src/lv_draw/lv_draw_label.c:182:72
	ldrsh.w	r2, [r12, #20]
	.loc	2 182 86                        @ lvgl/src/lv_draw/lv_draw_label.c:182:86
	ldrsh.w	r3, [sp, #320]
	.loc	2 182 94                        @ lvgl/src/lv_draw/lv_draw_label.c:182:94
	ldrb.w	r12, [r12, #37]
	.loc	2 182 21                        @ lvgl/src/lv_draw/lv_draw_label.c:182:21
	mov	lr, sp
	str.w	r12, [lr]
	bl	_lv_txt_get_next_line
	mov	r1, r0
	.loc	2 182 18                        @ lvgl/src/lv_draw/lv_draw_label.c:182:18
	ldr	r0, [sp, #268]
	add	r0, r1
	str	r0, [sp, #268]
	.loc	2 183 18 is_stmt 1              @ lvgl/src/lv_draw/lv_draw_label.c:183:18
	ldr	r1, [sp, #296]
	.loc	2 183 15 is_stmt 0              @ lvgl/src/lv_draw/lv_draw_label.c:183:15
	ldrh.w	r0, [sp, #290]
	add	r0, r1
	strh.w	r0, [sp, #290]
.Ltmp29:
	.loc	2 186 12 is_stmt 1              @ lvgl/src/lv_draw/lv_draw_label.c:186:12
	ldr	r0, [sp, #352]
	.loc	2 186 17 is_stmt 0              @ lvgl/src/lv_draw/lv_draw_label.c:186:17
	cbz	r0, .LBB1_27
	b	.LBB1_24
.LBB1_24:                               @   in Loop: Header=BB1_22 Depth=1
	.loc	2 186 24                        @ lvgl/src/lv_draw/lv_draw_label.c:186:24
	ldrsh.w	r0, [sp, #290]
	.loc	2 186 54                        @ lvgl/src/lv_draw/lv_draw_label.c:186:54
	cmn.w	r0, #1024
	blt	.LBB1_27
	b	.LBB1_25
.LBB1_25:                               @   in Loop: Header=BB1_22 Depth=1
	.loc	2 186 57                        @ lvgl/src/lv_draw/lv_draw_label.c:186:57
	ldr	r0, [sp, #352]
	.loc	2 186 63                        @ lvgl/src/lv_draw/lv_draw_label.c:186:63
	ldr	r0, [r0]
.Ltmp30:
	.loc	2 186 12                        @ lvgl/src/lv_draw/lv_draw_label.c:186:12
	cmp.w	r0, #-1
	bgt	.LBB1_27
	b	.LBB1_26
.LBB1_26:                               @   in Loop: Header=BB1_22 Depth=1
.Ltmp31:
	.loc	2 187 32 is_stmt 1              @ lvgl/src/lv_draw/lv_draw_label.c:187:32
	ldr	r0, [sp, #276]
	.loc	2 187 13 is_stmt 0              @ lvgl/src/lv_draw/lv_draw_label.c:187:13
	ldr	r1, [sp, #352]
	.loc	2 187 30                        @ lvgl/src/lv_draw/lv_draw_label.c:187:30
	str	r0, [r1]
	.loc	2 188 36 is_stmt 1              @ lvgl/src/lv_draw/lv_draw_label.c:188:36
	ldrsh.w	r0, [sp, #290]
	.loc	2 188 40 is_stmt 0              @ lvgl/src/lv_draw/lv_draw_label.c:188:40
	ldr	r1, [sp, #340]
	.loc	2 188 48                        @ lvgl/src/lv_draw/lv_draw_label.c:188:48
	ldrsh.w	r1, [r1, #2]
	.loc	2 188 38                        @ lvgl/src/lv_draw/lv_draw_label.c:188:38
	subs	r0, r0, r1
	.loc	2 188 13                        @ lvgl/src/lv_draw/lv_draw_label.c:188:13
	ldr	r1, [sp, #352]
	.loc	2 188 30                        @ lvgl/src/lv_draw/lv_draw_label.c:188:30
	str	r0, [r1, #4]
	.loc	2 189 32 is_stmt 1              @ lvgl/src/lv_draw/lv_draw_label.c:189:32
	ldr	r0, [sp, #340]
	.loc	2 189 40 is_stmt 0              @ lvgl/src/lv_draw/lv_draw_label.c:189:40
	ldrsh.w	r0, [r0, #2]
	.loc	2 189 13                        @ lvgl/src/lv_draw/lv_draw_label.c:189:13
	ldr	r1, [sp, #352]
	.loc	2 189 30                        @ lvgl/src/lv_draw/lv_draw_label.c:189:30
	str	r0, [r1, #8]
	.loc	2 190 9 is_stmt 1               @ lvgl/src/lv_draw/lv_draw_label.c:190:9
	b	.LBB1_27
.Ltmp32:
.LBB1_27:                               @   in Loop: Header=BB1_22 Depth=1
	.loc	2 192 12                        @ lvgl/src/lv_draw/lv_draw_label.c:192:12
	ldr	r0, [sp, #328]
	.loc	2 192 16 is_stmt 0              @ lvgl/src/lv_draw/lv_draw_label.c:192:16
	ldr	r1, [sp, #276]
	.loc	2 192 12                        @ lvgl/src/lv_draw/lv_draw_label.c:192:12
	ldrsb	r0, [r0, r1]
.Ltmp33:
	.loc	2 192 12                        @ lvgl/src/lv_draw/lv_draw_label.c:192:12
	cbnz	r0, .LBB1_29
	b	.LBB1_28
.LBB1_28:
.Ltmp34:
	.loc	2 192 37                        @ lvgl/src/lv_draw/lv_draw_label.c:192:37
	b	.LBB1_92
.Ltmp35:
.LBB1_29:                               @   in Loop: Header=BB1_22 Depth=1
	.loc	2 179 5 is_stmt 1               @ lvgl/src/lv_draw/lv_draw_label.c:179:5
	b	.LBB1_22
.LBB1_30:
.Ltmp36:
	.loc	2 196 8                         @ lvgl/src/lv_draw/lv_draw_label.c:196:8
	ldr	r0, [sp, #332]
	ldrb.w	r0, [r0, #37]
.Ltmp37:
	.loc	2 196 8 is_stmt 0               @ lvgl/src/lv_draw/lv_draw_label.c:196:8
	lsls	r0, r0, #29
	cmp	r0, #0
	bpl	.LBB1_32
	b	.LBB1_31
.LBB1_31:
.Ltmp38:
	.loc	2 197 41 is_stmt 1              @ lvgl/src/lv_draw/lv_draw_label.c:197:41
	ldr	r0, [sp, #328]
	.loc	2 197 45 is_stmt 0              @ lvgl/src/lv_draw/lv_draw_label.c:197:45
	ldr	r2, [sp, #276]
	.loc	2 197 41                        @ lvgl/src/lv_draw/lv_draw_label.c:197:41
	add	r0, r2
	.loc	2 197 58                        @ lvgl/src/lv_draw/lv_draw_label.c:197:58
	ldr	r1, [sp, #268]
	.loc	2 197 67                        @ lvgl/src/lv_draw/lv_draw_label.c:197:67
	subs	r1, r1, r2
	.loc	2 197 81                        @ lvgl/src/lv_draw/lv_draw_label.c:197:81
	ldr	r2, [sp, #324]
	.loc	2 197 87                        @ lvgl/src/lv_draw/lv_draw_label.c:197:87
	ldr.w	r12, [sp, #332]
	.loc	2 197 92                        @ lvgl/src/lv_draw/lv_draw_label.c:197:92
	ldrsh.w	r3, [r12, #20]
	.loc	2 197 111                       @ lvgl/src/lv_draw/lv_draw_label.c:197:111
	ldrb.w	r12, [r12, #37]
	.loc	2 197 22                        @ lvgl/src/lv_draw/lv_draw_label.c:197:22
	mov	lr, sp
	str.w	r12, [lr]
	bl	_lv_txt_get_width
	.loc	2 197 20                        @ lvgl/src/lv_draw/lv_draw_label.c:197:20
	str	r0, [sp, #292]
	.loc	2 199 37 is_stmt 1              @ lvgl/src/lv_draw/lv_draw_label.c:199:37
	ldr	r0, [sp, #340]
	.loc	2 199 19 is_stmt 0              @ lvgl/src/lv_draw/lv_draw_label.c:199:19
	bl	lv_area_get_width
	.loc	2 199 47                        @ lvgl/src/lv_draw/lv_draw_label.c:199:47
	ldr	r1, [sp, #292]
	.loc	2 199 45                        @ lvgl/src/lv_draw/lv_draw_label.c:199:45
	subs	r0, r0, r1
	.loc	2 199 59                        @ lvgl/src/lv_draw/lv_draw_label.c:199:59
	add.w	r1, r0, r0, lsr #31
	.loc	2 199 15                        @ lvgl/src/lv_draw/lv_draw_label.c:199:15
	ldrh.w	r0, [sp, #288]
	add.w	r0, r0, r1, lsr #1
	strh.w	r0, [sp, #288]
	.loc	2 201 5 is_stmt 1               @ lvgl/src/lv_draw/lv_draw_label.c:201:5
	b	.LBB1_35
.Ltmp39:
.LBB1_32:
	.loc	2 203 13                        @ lvgl/src/lv_draw/lv_draw_label.c:203:13
	ldr	r0, [sp, #332]
	ldrb.w	r0, [r0, #37]
.Ltmp40:
	.loc	2 203 13 is_stmt 0              @ lvgl/src/lv_draw/lv_draw_label.c:203:13
	lsls	r0, r0, #28
	cmp	r0, #0
	bpl	.LBB1_34
	b	.LBB1_33
.LBB1_33:
.Ltmp41:
	.loc	2 204 41 is_stmt 1              @ lvgl/src/lv_draw/lv_draw_label.c:204:41
	ldr	r0, [sp, #328]
	.loc	2 204 45 is_stmt 0              @ lvgl/src/lv_draw/lv_draw_label.c:204:45
	ldr	r2, [sp, #276]
	.loc	2 204 41                        @ lvgl/src/lv_draw/lv_draw_label.c:204:41
	add	r0, r2
	.loc	2 204 58                        @ lvgl/src/lv_draw/lv_draw_label.c:204:58
	ldr	r1, [sp, #268]
	.loc	2 204 67                        @ lvgl/src/lv_draw/lv_draw_label.c:204:67
	subs	r1, r1, r2
	.loc	2 204 81                        @ lvgl/src/lv_draw/lv_draw_label.c:204:81
	ldr	r2, [sp, #324]
	.loc	2 204 87                        @ lvgl/src/lv_draw/lv_draw_label.c:204:87
	ldr.w	r12, [sp, #332]
	.loc	2 204 92                        @ lvgl/src/lv_draw/lv_draw_label.c:204:92
	ldrsh.w	r3, [r12, #20]
	.loc	2 204 111                       @ lvgl/src/lv_draw/lv_draw_label.c:204:111
	ldrb.w	r12, [r12, #37]
	.loc	2 204 22                        @ lvgl/src/lv_draw/lv_draw_label.c:204:22
	mov	lr, sp
	str.w	r12, [lr]
	bl	_lv_txt_get_width
	.loc	2 204 20                        @ lvgl/src/lv_draw/lv_draw_label.c:204:20
	str	r0, [sp, #292]
	.loc	2 205 36 is_stmt 1              @ lvgl/src/lv_draw/lv_draw_label.c:205:36
	ldr	r0, [sp, #340]
	.loc	2 205 18 is_stmt 0              @ lvgl/src/lv_draw/lv_draw_label.c:205:18
	bl	lv_area_get_width
	.loc	2 205 46                        @ lvgl/src/lv_draw/lv_draw_label.c:205:46
	ldr	r1, [sp, #292]
	.loc	2 205 44                        @ lvgl/src/lv_draw/lv_draw_label.c:205:44
	subs	r1, r0, r1
	.loc	2 205 15                        @ lvgl/src/lv_draw/lv_draw_label.c:205:15
	ldrh.w	r0, [sp, #288]
	add	r0, r1
	strh.w	r0, [sp, #288]
	.loc	2 206 5 is_stmt 1               @ lvgl/src/lv_draw/lv_draw_label.c:206:5
	b	.LBB1_34
.Ltmp42:
.LBB1_34:
	.loc	2 0 5 is_stmt 0                 @ lvgl/src/lv_draw/lv_draw_label.c:0:5
	b	.LBB1_35
.LBB1_35:
	.loc	2 208 20 is_stmt 1              @ lvgl/src/lv_draw/lv_draw_label.c:208:20
	ldr	r0, [sp, #332]
	.loc	2 208 25 is_stmt 0              @ lvgl/src/lv_draw/lv_draw_label.c:208:25
	ldrb	r0, [r0, #16]
	.loc	2 208 14                        @ lvgl/src/lv_draw/lv_draw_label.c:208:14
	strb.w	r0, [sp, #267]
	.loc	2 210 26 is_stmt 1              @ lvgl/src/lv_draw/lv_draw_label.c:210:26
	ldr	r0, [sp, #332]
	.loc	2 210 31 is_stmt 0              @ lvgl/src/lv_draw/lv_draw_label.c:210:31
	ldr	r0, [r0, #24]
	.loc	2 210 14                        @ lvgl/src/lv_draw/lv_draw_label.c:210:14
	str	r0, [sp, #260]
	.loc	2 211 24 is_stmt 1              @ lvgl/src/lv_draw/lv_draw_label.c:211:24
	ldr	r0, [sp, #332]
	.loc	2 211 29 is_stmt 0              @ lvgl/src/lv_draw/lv_draw_label.c:211:29
	ldr	r0, [r0, #28]
	.loc	2 211 14                        @ lvgl/src/lv_draw/lv_draw_label.c:211:14
	str	r0, [sp, #256]
.Ltmp43:
	.loc	2 212 8 is_stmt 1               @ lvgl/src/lv_draw/lv_draw_label.c:212:8
	ldr	r0, [sp, #260]
	.loc	2 212 20 is_stmt 0              @ lvgl/src/lv_draw/lv_draw_label.c:212:20
	ldr	r1, [sp, #256]
.Ltmp44:
	.loc	2 212 8                         @ lvgl/src/lv_draw/lv_draw_label.c:212:8
	cmp	r0, r1
	bls	.LBB1_37
	b	.LBB1_36
.LBB1_36:
.Ltmp45:
	.loc	2 213 24 is_stmt 1              @ lvgl/src/lv_draw/lv_draw_label.c:213:24
	ldr	r0, [sp, #260]
	.loc	2 213 18 is_stmt 0              @ lvgl/src/lv_draw/lv_draw_label.c:213:18
	str	r0, [sp, #252]
	.loc	2 214 21 is_stmt 1              @ lvgl/src/lv_draw/lv_draw_label.c:214:21
	ldr	r0, [sp, #256]
	.loc	2 214 19 is_stmt 0              @ lvgl/src/lv_draw/lv_draw_label.c:214:19
	str	r0, [sp, #260]
	.loc	2 215 19 is_stmt 1              @ lvgl/src/lv_draw/lv_draw_label.c:215:19
	ldr	r0, [sp, #252]
	.loc	2 215 17 is_stmt 0              @ lvgl/src/lv_draw/lv_draw_label.c:215:17
	str	r0, [sp, #256]
	.loc	2 216 5 is_stmt 1               @ lvgl/src/lv_draw/lv_draw_label.c:216:5
	b	.LBB1_37
.Ltmp46:
.LBB1_37:
	.loc	2 219 9                         @ lvgl/src/lv_draw/lv_draw_label.c:219:9
	ldr	r0, [sp, #332]
	ldrb.w	r0, [r0, #38]
	.loc	2 219 47 is_stmt 0              @ lvgl/src/lv_draw/lv_draw_label.c:219:47
	lsls	r0, r0, #31
	cbnz	r0, .LBB1_39
	b	.LBB1_38
.LBB1_38:
	.loc	2 219 51                        @ lvgl/src/lv_draw/lv_draw_label.c:219:51
	ldr	r0, [sp, #332]
	ldrb.w	r0, [r0, #38]
.Ltmp47:
	.loc	2 219 8                         @ lvgl/src/lv_draw/lv_draw_label.c:219:8
	lsls	r0, r0, #30
	cmp	r0, #0
	bpl	.LBB1_43
	b	.LBB1_39
.LBB1_39:
	.loc	2 0 8                           @ lvgl/src/lv_draw/lv_draw_label.c:0:8
	add	r0, sp, #240
.Ltmp48:
	.loc	2 220 9 is_stmt 1               @ lvgl/src/lv_draw/lv_draw_label.c:220:9
	bl	lv_draw_line_dsc_init
	.loc	2 221 26                        @ lvgl/src/lv_draw/lv_draw_label.c:221:26
	ldr	r0, [sp, #332]
	.loc	2 221 31 is_stmt 0              @ lvgl/src/lv_draw/lv_draw_label.c:221:31
	ldr	r0, [r0]
	str	r0, [sp, #240]
	.loc	2 222 26 is_stmt 1              @ lvgl/src/lv_draw/lv_draw_label.c:222:26
	ldr	r0, [sp, #324]
	.loc	2 222 32 is_stmt 0              @ lvgl/src/lv_draw/lv_draw_label.c:222:32
	ldrsb.w	r0, [r0, #14]
	.loc	2 222 26                        @ lvgl/src/lv_draw/lv_draw_label.c:222:26
	cbz	r0, .LBB1_41
	b	.LBB1_40
.LBB1_40:
	.loc	2 222 54                        @ lvgl/src/lv_draw/lv_draw_label.c:222:54
	ldr	r0, [sp, #324]
	.loc	2 222 60                        @ lvgl/src/lv_draw/lv_draw_label.c:222:60
	ldrsb.w	r0, [r0, #14]
	.loc	2 222 26                        @ lvgl/src/lv_draw/lv_draw_label.c:222:26
	str	r0, [sp, #32]                   @ 4-byte Spill
	b	.LBB1_42
.LBB1_41:
	.loc	2 0 26                          @ lvgl/src/lv_draw/lv_draw_label.c:0:26
	movs	r0, #1
	.loc	2 222 26                        @ lvgl/src/lv_draw/lv_draw_label.c:222:26
	str	r0, [sp, #32]                   @ 4-byte Spill
	b	.LBB1_42
.LBB1_42:
	ldr	r0, [sp, #32]                   @ 4-byte Reload
	.loc	2 222 24                        @ lvgl/src/lv_draw/lv_draw_label.c:222:24
	strh.w	r0, [sp, #244]
	.loc	2 223 24 is_stmt 1              @ lvgl/src/lv_draw/lv_draw_label.c:223:24
	ldr	r0, [sp, #332]
	.loc	2 223 29 is_stmt 0              @ lvgl/src/lv_draw/lv_draw_label.c:223:29
	ldrb	r0, [r0, #16]
	.loc	2 223 22                        @ lvgl/src/lv_draw/lv_draw_label.c:223:22
	strb.w	r0, [sp, #250]
	.loc	2 224 31 is_stmt 1              @ lvgl/src/lv_draw/lv_draw_label.c:224:31
	ldr	r0, [sp, #332]
	.loc	2 224 36 is_stmt 0              @ lvgl/src/lv_draw/lv_draw_label.c:224:36
	ldrb.w	r1, [r0, #39]
	.loc	2 224 29                        @ lvgl/src/lv_draw/lv_draw_label.c:224:29
	ldrb.w	r0, [sp, #251]
	and	r1, r1, #3
	and	r0, r0, #252
	add	r0, r1
	strb.w	r0, [sp, #251]
	.loc	2 225 5 is_stmt 1               @ lvgl/src/lv_draw/lv_draw_label.c:225:5
	b	.LBB1_43
.Ltmp49:
.LBB1_43:
	.loc	2 0 5 is_stmt 0                 @ lvgl/src/lv_draw/lv_draw_label.c:0:5
	movs	r0, #0
	.loc	2 227 17 is_stmt 1              @ lvgl/src/lv_draw/lv_draw_label.c:227:17
	strb.w	r0, [sp, #239]
	.loc	2 229 14                        @ lvgl/src/lv_draw/lv_draw_label.c:229:14
	str	r0, [sp, #228]
	add	r0, sp, #116
	.loc	2 234 5                         @ lvgl/src/lv_draw/lv_draw_label.c:234:5
	bl	lv_draw_rect_dsc_init
	.loc	2 235 29                        @ lvgl/src/lv_draw/lv_draw_label.c:235:29
	ldr	r0, [sp, #332]
	.loc	2 235 34 is_stmt 0              @ lvgl/src/lv_draw/lv_draw_label.c:235:34
	ldr	r0, [r0, #8]
	str	r0, [sp, #120]
	.loc	2 237 31 is_stmt 1              @ lvgl/src/lv_draw/lv_draw_label.c:237:31
	ldrsh.w	r0, [sp, #288]
	.loc	2 237 13 is_stmt 0              @ lvgl/src/lv_draw/lv_draw_label.c:237:13
	str	r0, [sp, #112]
	.loc	2 239 5 is_stmt 1               @ lvgl/src/lv_draw/lv_draw_label.c:239:5
	b	.LBB1_44
.LBB1_44:                               @ =>This Loop Header: Depth=1
                                        @     Child Loop BB1_46 Depth 2
	.loc	2 239 11 is_stmt 0              @ lvgl/src/lv_draw/lv_draw_label.c:239:11
	ldr	r0, [sp, #328]
	.loc	2 239 15                        @ lvgl/src/lv_draw/lv_draw_label.c:239:15
	ldr	r1, [sp, #276]
	.loc	2 239 11                        @ lvgl/src/lv_draw/lv_draw_label.c:239:11
	ldrsb	r0, [r0, r1]
	.loc	2 239 5                         @ lvgl/src/lv_draw/lv_draw_label.c:239:5
	cmp	r0, #0
	beq.w	.LBB1_92
	b	.LBB1_45
.LBB1_45:                               @   in Loop: Header=BB1_44 Depth=1
.Ltmp50:
	.loc	2 240 18 is_stmt 1              @ lvgl/src/lv_draw/lv_draw_label.c:240:18
	ldr	r1, [sp, #284]
	.loc	2 240 15 is_stmt 0              @ lvgl/src/lv_draw/lv_draw_label.c:240:15
	ldrh.w	r0, [sp, #288]
	add	r0, r1
	strh.w	r0, [sp, #288]
	movs	r0, #0
	.loc	2 243 19 is_stmt 1              @ lvgl/src/lv_draw/lv_draw_label.c:243:19
	strb.w	r0, [sp, #239]
	.loc	2 244 19                        @ lvgl/src/lv_draw/lv_draw_label.c:244:19
	str	r0, [sp, #232]
	.loc	2 249 33                        @ lvgl/src/lv_draw/lv_draw_label.c:249:33
	ldr	r0, [sp, #328]
	.loc	2 249 39 is_stmt 0              @ lvgl/src/lv_draw/lv_draw_label.c:249:39
	ldr	r1, [sp, #276]
	.loc	2 249 37                        @ lvgl/src/lv_draw/lv_draw_label.c:249:37
	add	r0, r1
	.loc	2 249 22                        @ lvgl/src/lv_draw/lv_draw_label.c:249:22
	str	r0, [sp, #108]
	.loc	2 252 9 is_stmt 1               @ lvgl/src/lv_draw/lv_draw_label.c:252:9
	b	.LBB1_46
.LBB1_46:                               @   Parent Loop BB1_44 Depth=1
                                        @ =>  This Inner Loop Header: Depth=2
	.loc	2 252 15 is_stmt 0              @ lvgl/src/lv_draw/lv_draw_label.c:252:15
	ldr	r0, [sp, #232]
	.loc	2 252 19                        @ lvgl/src/lv_draw/lv_draw_label.c:252:19
	ldr	r1, [sp, #268]
	.loc	2 252 30                        @ lvgl/src/lv_draw/lv_draw_label.c:252:30
	ldr	r2, [sp, #276]
	.loc	2 252 28                        @ lvgl/src/lv_draw/lv_draw_label.c:252:28
	subs	r1, r1, r2
	.loc	2 252 9                         @ lvgl/src/lv_draw/lv_draw_label.c:252:9
	cmp	r0, r1
	bhs.w	.LBB1_80
	b	.LBB1_47
.LBB1_47:                               @   in Loop: Header=BB1_46 Depth=2
	.loc	2 0 9                           @ lvgl/src/lv_draw/lv_draw_label.c:0:9
	movs	r0, #0
.Ltmp51:
	.loc	2 253 22 is_stmt 1              @ lvgl/src/lv_draw/lv_draw_label.c:253:22
	str	r0, [sp, #104]
.Ltmp52:
	.loc	2 254 16                        @ lvgl/src/lv_draw/lv_draw_label.c:254:16
	ldr	r0, [sp, #260]
	movw	r1, #65535
	.loc	2 254 36 is_stmt 0              @ lvgl/src/lv_draw/lv_draw_label.c:254:36
	cmp	r0, r1
	beq	.LBB1_50
	b	.LBB1_48
.LBB1_48:                               @   in Loop: Header=BB1_46 Depth=2
	.loc	2 254 39                        @ lvgl/src/lv_draw/lv_draw_label.c:254:39
	ldr	r0, [sp, #256]
	movw	r1, #65535
.Ltmp53:
	.loc	2 254 16                        @ lvgl/src/lv_draw/lv_draw_label.c:254:16
	cmp	r0, r1
	beq	.LBB1_50
	b	.LBB1_49
.LBB1_49:                               @   in Loop: Header=BB1_46 Depth=2
.Ltmp54:
	.loc	2 260 36 is_stmt 1              @ lvgl/src/lv_draw/lv_draw_label.c:260:36
	movw	r0, :lower16:_lv_txt_encoded_get_char_id
	movt	r0, :upper16:_lv_txt_encoded_get_char_id
	ldr	r2, [r0]
	.loc	2 260 64 is_stmt 0              @ lvgl/src/lv_draw/lv_draw_label.c:260:64
	ldr	r0, [sp, #328]
	.loc	2 260 69                        @ lvgl/src/lv_draw/lv_draw_label.c:260:69
	ldr	r1, [sp, #276]
	.loc	2 260 82                        @ lvgl/src/lv_draw/lv_draw_label.c:260:82
	ldr	r3, [sp, #232]
	.loc	2 260 80                        @ lvgl/src/lv_draw/lv_draw_label.c:260:80
	add	r1, r3
	.loc	2 260 36                        @ lvgl/src/lv_draw/lv_draw_label.c:260:36
	blx	r2
	.loc	2 260 34                        @ lvgl/src/lv_draw/lv_draw_label.c:260:34
	str	r0, [sp, #104]
	.loc	2 262 13 is_stmt 1              @ lvgl/src/lv_draw/lv_draw_label.c:262:13
	b	.LBB1_50
.Ltmp55:
.LBB1_50:                               @   in Loop: Header=BB1_46 Depth=2
	.loc	2 264 36                        @ lvgl/src/lv_draw/lv_draw_label.c:264:36
	movw	r0, :lower16:_lv_txt_encoded_next
	movt	r0, :upper16:_lv_txt_encoded_next
	str	r0, [sp, #28]                   @ 4-byte Spill
	ldr	r2, [r0]
	.loc	2 264 57 is_stmt 0              @ lvgl/src/lv_draw/lv_draw_label.c:264:57
	ldr	r0, [sp, #108]
	add	r1, sp, #232
	.loc	2 264 36                        @ lvgl/src/lv_draw/lv_draw_label.c:264:36
	blx	r2
	mov	r1, r0
	.loc	2 264 22                        @ lvgl/src/lv_draw/lv_draw_label.c:264:22
	ldr	r0, [sp, #28]                   @ 4-byte Reload
	str	r1, [sp, #100]
	.loc	2 265 36 is_stmt 1              @ lvgl/src/lv_draw/lv_draw_label.c:265:36
	ldr	r2, [r0]
	.loc	2 265 58 is_stmt 0              @ lvgl/src/lv_draw/lv_draw_label.c:265:58
	ldr	r0, [sp, #108]
	.loc	2 265 67                        @ lvgl/src/lv_draw/lv_draw_label.c:265:67
	ldr	r1, [sp, #232]
	.loc	2 265 58                        @ lvgl/src/lv_draw/lv_draw_label.c:265:58
	add	r0, r1
	movs	r1, #0
	.loc	2 265 36                        @ lvgl/src/lv_draw/lv_draw_label.c:265:36
	blx	r2
	.loc	2 265 22                        @ lvgl/src/lv_draw/lv_draw_label.c:265:22
	str	r0, [sp, #96]
.Ltmp56:
	.loc	2 268 17 is_stmt 1              @ lvgl/src/lv_draw/lv_draw_label.c:268:17
	ldr	r0, [sp, #332]
	ldrb.w	r0, [r0, #37]
.Ltmp57:
	.loc	2 268 16 is_stmt 0              @ lvgl/src/lv_draw/lv_draw_label.c:268:16
	lsls	r0, r0, #31
	cmp	r0, #0
	beq.w	.LBB1_69
	b	.LBB1_51
.LBB1_51:                               @   in Loop: Header=BB1_46 Depth=2
.Ltmp58:
	.loc	2 269 20 is_stmt 1              @ lvgl/src/lv_draw/lv_draw_label.c:269:20
	ldr	r0, [sp, #100]
	.loc	2 269 40 is_stmt 0              @ lvgl/src/lv_draw/lv_draw_label.c:269:40
	movw	r1, :lower16:.L.str
	movt	r1, :upper16:.L.str
	ldrsb.w	r1, [r1]
.Ltmp59:
	.loc	2 269 20                        @ lvgl/src/lv_draw/lv_draw_label.c:269:20
	cmp	r0, r1
	bne	.LBB1_61
	b	.LBB1_52
.LBB1_52:                               @   in Loop: Header=BB1_46 Depth=2
.Ltmp60:
	.loc	2 270 24 is_stmt 1              @ lvgl/src/lv_draw/lv_draw_label.c:270:24
	ldrb.w	r0, [sp, #239]
.Ltmp61:
	.loc	2 270 24 is_stmt 0              @ lvgl/src/lv_draw/lv_draw_label.c:270:24
	cbnz	r0, .LBB1_54
	b	.LBB1_53
.LBB1_53:                               @   in Loop: Header=BB1_46 Depth=2
.Ltmp62:
	.loc	2 271 37 is_stmt 1              @ lvgl/src/lv_draw/lv_draw_label.c:271:37
	ldr	r0, [sp, #232]
	.loc	2 271 35 is_stmt 0              @ lvgl/src/lv_draw/lv_draw_label.c:271:35
	str	r0, [sp, #228]
	movs	r0, #1
	.loc	2 272 35 is_stmt 1              @ lvgl/src/lv_draw/lv_draw_label.c:272:35
	strb.w	r0, [sp, #239]
	.loc	2 273 25                        @ lvgl/src/lv_draw/lv_draw_label.c:273:25
	b	.LBB1_46
.Ltmp63:
.LBB1_54:                               @   in Loop: Header=BB1_46 Depth=2
	.loc	2 275 29                        @ lvgl/src/lv_draw/lv_draw_label.c:275:29
	ldrb.w	r0, [sp, #239]
.Ltmp64:
	.loc	2 275 29 is_stmt 0              @ lvgl/src/lv_draw/lv_draw_label.c:275:29
	cmp	r0, #1
	bne	.LBB1_56
	b	.LBB1_55
.LBB1_55:                               @   in Loop: Header=BB1_46 Depth=2
	.loc	2 0 29                          @ lvgl/src/lv_draw/lv_draw_label.c:0:29
	movs	r0, #0
.Ltmp65:
	.loc	2 276 35 is_stmt 1              @ lvgl/src/lv_draw/lv_draw_label.c:276:35
	strb.w	r0, [sp, #239]
	.loc	2 277 21                        @ lvgl/src/lv_draw/lv_draw_label.c:277:21
	b	.LBB1_59
.Ltmp66:
.LBB1_56:                               @   in Loop: Header=BB1_46 Depth=2
	.loc	2 278 29                        @ lvgl/src/lv_draw/lv_draw_label.c:278:29
	ldrb.w	r0, [sp, #239]
.Ltmp67:
	.loc	2 278 29 is_stmt 0              @ lvgl/src/lv_draw/lv_draw_label.c:278:29
	cmp	r0, #2
	bne	.LBB1_58
	b	.LBB1_57
.LBB1_57:                               @   in Loop: Header=BB1_46 Depth=2
	.loc	2 0 29                          @ lvgl/src/lv_draw/lv_draw_label.c:0:29
	movs	r0, #0
.Ltmp68:
	.loc	2 279 35 is_stmt 1              @ lvgl/src/lv_draw/lv_draw_label.c:279:35
	strb.w	r0, [sp, #239]
	.loc	2 280 25                        @ lvgl/src/lv_draw/lv_draw_label.c:280:25
	b	.LBB1_46
.Ltmp69:
.LBB1_58:                               @   in Loop: Header=BB1_46 Depth=2
	.loc	2 0 25 is_stmt 0                @ lvgl/src/lv_draw/lv_draw_label.c:0:25
	b	.LBB1_59
.LBB1_59:                               @   in Loop: Header=BB1_46 Depth=2
	b	.LBB1_60
.LBB1_60:                               @   in Loop: Header=BB1_46 Depth=2
	.loc	2 282 17 is_stmt 1              @ lvgl/src/lv_draw/lv_draw_label.c:282:17
	b	.LBB1_61
.Ltmp70:
.LBB1_61:                               @   in Loop: Header=BB1_46 Depth=2
	.loc	2 285 20                        @ lvgl/src/lv_draw/lv_draw_label.c:285:20
	ldrb.w	r0, [sp, #239]
.Ltmp71:
	.loc	2 285 20 is_stmt 0              @ lvgl/src/lv_draw/lv_draw_label.c:285:20
	cmp	r0, #1
	bne	.LBB1_68
	b	.LBB1_62
.LBB1_62:                               @   in Loop: Header=BB1_46 Depth=2
.Ltmp72:
	.loc	2 286 24 is_stmt 1              @ lvgl/src/lv_draw/lv_draw_label.c:286:24
	ldr	r0, [sp, #100]
.Ltmp73:
	.loc	2 286 24 is_stmt 0              @ lvgl/src/lv_draw/lv_draw_label.c:286:24
	cmp	r0, #32
	bne	.LBB1_67
	b	.LBB1_63
.LBB1_63:                               @   in Loop: Header=BB1_46 Depth=2
.Ltmp74:
	.loc	2 288 28 is_stmt 1              @ lvgl/src/lv_draw/lv_draw_label.c:288:28
	ldr	r0, [sp, #232]
	.loc	2 288 32 is_stmt 0              @ lvgl/src/lv_draw/lv_draw_label.c:288:32
	ldr	r1, [sp, #228]
	.loc	2 288 30                        @ lvgl/src/lv_draw/lv_draw_label.c:288:30
	subs	r0, r0, r1
.Ltmp75:
	.loc	2 288 28                        @ lvgl/src/lv_draw/lv_draw_label.c:288:28
	cmp	r0, #7
	bne	.LBB1_65
	b	.LBB1_64
.LBB1_64:                               @   in Loop: Header=BB1_46 Depth=2
.Ltmp76:
	.loc	2 290 52 is_stmt 1              @ lvgl/src/lv_draw/lv_draw_label.c:290:52
	ldr	r0, [sp, #108]
	.loc	2 290 61 is_stmt 0              @ lvgl/src/lv_draw/lv_draw_label.c:290:61
	ldr	r1, [sp, #228]
	.loc	2 290 52                        @ lvgl/src/lv_draw/lv_draw_label.c:290:52
	add	r1, r0
	add.w	r0, sp, #89
	movs	r2, #6
	.loc	2 290 29                        @ lvgl/src/lv_draw/lv_draw_label.c:290:29
	bl	_lv_memcpy_small
	movs	r0, #0
	.loc	2 291 59 is_stmt 1              @ lvgl/src/lv_draw/lv_draw_label.c:291:59
	strb.w	r0, [sp, #95]
	.loc	2 293 56                        @ lvgl/src/lv_draw/lv_draw_label.c:293:56
	ldrsb.w	r0, [sp, #89]
	.loc	2 293 40 is_stmt 0              @ lvgl/src/lv_draw/lv_draw_label.c:293:40
	bl	hex_char_to_num
	.loc	2 293 88                        @ lvgl/src/lv_draw/lv_draw_label.c:293:88
	str	r0, [sp, #16]                   @ 4-byte Spill
	ldrsb.w	r0, [sp, #90]
	.loc	2 293 72                        @ lvgl/src/lv_draw/lv_draw_label.c:293:72
	bl	hex_char_to_num
	ldr	r1, [sp, #16]                   @ 4-byte Reload
	.loc	2 293 70                        @ lvgl/src/lv_draw/lv_draw_label.c:293:70
	add.w	r0, r0, r1, lsl #4
	.loc	2 293 37                        @ lvgl/src/lv_draw/lv_draw_label.c:293:37
	str	r0, [sp, #84]
	.loc	2 294 56 is_stmt 1              @ lvgl/src/lv_draw/lv_draw_label.c:294:56
	ldrsb.w	r0, [sp, #91]
	.loc	2 294 40 is_stmt 0              @ lvgl/src/lv_draw/lv_draw_label.c:294:40
	bl	hex_char_to_num
	.loc	2 294 88                        @ lvgl/src/lv_draw/lv_draw_label.c:294:88
	str	r0, [sp, #20]                   @ 4-byte Spill
	ldrsb.w	r0, [sp, #92]
	.loc	2 294 72                        @ lvgl/src/lv_draw/lv_draw_label.c:294:72
	bl	hex_char_to_num
	ldr	r1, [sp, #20]                   @ 4-byte Reload
	.loc	2 294 70                        @ lvgl/src/lv_draw/lv_draw_label.c:294:70
	add.w	r0, r0, r1, lsl #4
	.loc	2 294 37                        @ lvgl/src/lv_draw/lv_draw_label.c:294:37
	str	r0, [sp, #80]
	.loc	2 295 56 is_stmt 1              @ lvgl/src/lv_draw/lv_draw_label.c:295:56
	ldrsb.w	r0, [sp, #93]
	.loc	2 295 40 is_stmt 0              @ lvgl/src/lv_draw/lv_draw_label.c:295:40
	bl	hex_char_to_num
	.loc	2 295 88                        @ lvgl/src/lv_draw/lv_draw_label.c:295:88
	str	r0, [sp, #24]                   @ 4-byte Spill
	ldrsb.w	r0, [sp, #94]
	.loc	2 295 72                        @ lvgl/src/lv_draw/lv_draw_label.c:295:72
	bl	hex_char_to_num
	ldr	r1, [sp, #24]                   @ 4-byte Reload
	.loc	2 295 70                        @ lvgl/src/lv_draw/lv_draw_label.c:295:70
	add.w	r0, r0, r1, lsl #4
	.loc	2 295 37                        @ lvgl/src/lv_draw/lv_draw_label.c:295:37
	str	r0, [sp, #76]
	.loc	2 296 53 is_stmt 1              @ lvgl/src/lv_draw/lv_draw_label.c:296:53
	ldrb.w	r0, [sp, #84]
	.loc	2 296 56 is_stmt 0              @ lvgl/src/lv_draw/lv_draw_label.c:296:56
	ldrb.w	r1, [sp, #80]
	.loc	2 296 59                        @ lvgl/src/lv_draw/lv_draw_label.c:296:59
	ldrb.w	r2, [sp, #76]
	.loc	2 296 39                        @ lvgl/src/lv_draw/lv_draw_label.c:296:39
	bl	lv_color_make
	str	r0, [sp, #72]
	ldr	r0, [sp, #72]
	str	r0, [sp, #224]
	.loc	2 297 25 is_stmt 1              @ lvgl/src/lv_draw/lv_draw_label.c:297:25
	b	.LBB1_66
.Ltmp77:
.LBB1_65:                               @   in Loop: Header=BB1_46 Depth=2
	.loc	2 299 44                        @ lvgl/src/lv_draw/lv_draw_label.c:299:44
	ldr	r0, [sp, #332]
	.loc	2 299 55 is_stmt 0              @ lvgl/src/lv_draw/lv_draw_label.c:299:55
	ldr	r0, [r0]
	.loc	2 299 42                        @ lvgl/src/lv_draw/lv_draw_label.c:299:42
	str	r0, [sp, #224]
	b	.LBB1_66
.Ltmp78:
.LBB1_66:                               @   in Loop: Header=BB1_46 Depth=2
	.loc	2 0 42                          @ lvgl/src/lv_draw/lv_draw_label.c:0:42
	movs	r0, #2
	.loc	2 301 35 is_stmt 1              @ lvgl/src/lv_draw/lv_draw_label.c:301:35
	strb.w	r0, [sp, #239]
	.loc	2 302 21                        @ lvgl/src/lv_draw/lv_draw_label.c:302:21
	b	.LBB1_67
.Ltmp79:
.LBB1_67:                               @   in Loop: Header=BB1_46 Depth=2
	.loc	2 303 21                        @ lvgl/src/lv_draw/lv_draw_label.c:303:21
	b	.LBB1_46
.Ltmp80:
.LBB1_68:                               @   in Loop: Header=BB1_46 Depth=2
	.loc	2 305 13                        @ lvgl/src/lv_draw/lv_draw_label.c:305:13
	b	.LBB1_69
.Ltmp81:
.LBB1_69:                               @   in Loop: Header=BB1_46 Depth=2
	.loc	2 307 32                        @ lvgl/src/lv_draw/lv_draw_label.c:307:32
	ldr	r0, [sp, #332]
	.loc	2 307 37 is_stmt 0              @ lvgl/src/lv_draw/lv_draw_label.c:307:37
	ldr	r0, [r0]
	str	r0, [sp, #68]
.Ltmp82:
	.loc	2 309 16 is_stmt 1              @ lvgl/src/lv_draw/lv_draw_label.c:309:16
	ldrb.w	r0, [sp, #239]
.Ltmp83:
	.loc	2 309 16 is_stmt 0              @ lvgl/src/lv_draw/lv_draw_label.c:309:16
	cmp	r0, #2
	bne	.LBB1_71
	b	.LBB1_70
.LBB1_70:                               @   in Loop: Header=BB1_46 Depth=2
.Ltmp84:
	.loc	2 309 51                        @ lvgl/src/lv_draw/lv_draw_label.c:309:51
	ldr	r0, [sp, #224]
	str	r0, [sp, #68]
	.loc	2 309 43                        @ lvgl/src/lv_draw/lv_draw_label.c:309:43
	b	.LBB1_71
.Ltmp85:
.LBB1_71:                               @   in Loop: Header=BB1_46 Depth=2
	.loc	2 311 48 is_stmt 1              @ lvgl/src/lv_draw/lv_draw_label.c:311:48
	ldr	r0, [sp, #324]
	.loc	2 311 54 is_stmt 0              @ lvgl/src/lv_draw/lv_draw_label.c:311:54
	ldr	r1, [sp, #100]
	.loc	2 311 62                        @ lvgl/src/lv_draw/lv_draw_label.c:311:62
	ldr	r2, [sp, #96]
	.loc	2 311 24                        @ lvgl/src/lv_draw/lv_draw_label.c:311:24
	bl	lv_font_get_glyph_width
	.loc	2 311 22                        @ lvgl/src/lv_draw/lv_draw_label.c:311:22
	str	r0, [sp, #220]
.Ltmp86:
	.loc	2 313 16 is_stmt 1              @ lvgl/src/lv_draw/lv_draw_label.c:313:16
	ldr	r0, [sp, #260]
	movw	r1, #65535
	.loc	2 313 36 is_stmt 0              @ lvgl/src/lv_draw/lv_draw_label.c:313:36
	cmp	r0, r1
	beq	.LBB1_77
	b	.LBB1_72
.LBB1_72:                               @   in Loop: Header=BB1_46 Depth=2
	.loc	2 313 39                        @ lvgl/src/lv_draw/lv_draw_label.c:313:39
	ldr	r0, [sp, #256]
	movw	r1, #65535
.Ltmp87:
	.loc	2 313 16                        @ lvgl/src/lv_draw/lv_draw_label.c:313:16
	cmp	r0, r1
	beq	.LBB1_77
	b	.LBB1_73
.LBB1_73:                               @   in Loop: Header=BB1_46 Depth=2
.Ltmp88:
	.loc	2 314 20 is_stmt 1              @ lvgl/src/lv_draw/lv_draw_label.c:314:20
	ldr	r0, [sp, #104]
	.loc	2 314 40 is_stmt 0              @ lvgl/src/lv_draw/lv_draw_label.c:314:40
	ldr	r1, [sp, #260]
	.loc	2 314 50                        @ lvgl/src/lv_draw/lv_draw_label.c:314:50
	cmp	r0, r1
	blo	.LBB1_76
	b	.LBB1_74
.LBB1_74:                               @   in Loop: Header=BB1_46 Depth=2
	.loc	2 314 53                        @ lvgl/src/lv_draw/lv_draw_label.c:314:53
	ldr	r0, [sp, #104]
	.loc	2 314 72                        @ lvgl/src/lv_draw/lv_draw_label.c:314:72
	ldr	r1, [sp, #256]
.Ltmp89:
	.loc	2 314 20                        @ lvgl/src/lv_draw/lv_draw_label.c:314:20
	cmp	r0, r1
	bhs	.LBB1_76
	b	.LBB1_75
.LBB1_75:                               @   in Loop: Header=BB1_46 Depth=2
.Ltmp90:
	.loc	2 316 41 is_stmt 1              @ lvgl/src/lv_draw/lv_draw_label.c:316:41
	ldrh.w	r0, [sp, #288]
	.loc	2 316 35 is_stmt 0              @ lvgl/src/lv_draw/lv_draw_label.c:316:35
	strh.w	r0, [sp, #60]
	.loc	2 317 41 is_stmt 1              @ lvgl/src/lv_draw/lv_draw_label.c:317:41
	ldrh.w	r0, [sp, #290]
	.loc	2 317 35 is_stmt 0              @ lvgl/src/lv_draw/lv_draw_label.c:317:35
	strh.w	r0, [sp, #62]
	.loc	2 318 37 is_stmt 1              @ lvgl/src/lv_draw/lv_draw_label.c:318:37
	ldrh.w	r0, [sp, #288]
	.loc	2 318 45 is_stmt 0              @ lvgl/src/lv_draw/lv_draw_label.c:318:45
	ldr	r1, [sp, #220]
	.loc	2 318 43                        @ lvgl/src/lv_draw/lv_draw_label.c:318:43
	add	r0, r1
	.loc	2 318 56                        @ lvgl/src/lv_draw/lv_draw_label.c:318:56
	ldr	r1, [sp, #332]
	ldrh	r1, [r1, #20]
	.loc	2 318 54                        @ lvgl/src/lv_draw/lv_draw_label.c:318:54
	add	r0, r1
	.loc	2 318 74                        @ lvgl/src/lv_draw/lv_draw_label.c:318:74
	subs	r0, #1
	.loc	2 318 35                        @ lvgl/src/lv_draw/lv_draw_label.c:318:35
	strh.w	r0, [sp, #64]
	.loc	2 319 37 is_stmt 1              @ lvgl/src/lv_draw/lv_draw_label.c:319:37
	ldrh.w	r0, [sp, #290]
	.loc	2 319 45 is_stmt 0              @ lvgl/src/lv_draw/lv_draw_label.c:319:45
	ldr	r1, [sp, #296]
	.loc	2 319 43                        @ lvgl/src/lv_draw/lv_draw_label.c:319:43
	add	r0, r1
	.loc	2 319 57                        @ lvgl/src/lv_draw/lv_draw_label.c:319:57
	subs	r0, #1
	.loc	2 319 35                        @ lvgl/src/lv_draw/lv_draw_label.c:319:35
	strh.w	r0, [sp, #66]
	.loc	2 320 47 is_stmt 1              @ lvgl/src/lv_draw/lv_draw_label.c:320:47
	ldr	r1, [sp, #336]
	add	r0, sp, #60
	add	r2, sp, #116
	.loc	2 320 21 is_stmt 0              @ lvgl/src/lv_draw/lv_draw_label.c:320:21
	bl	lv_draw_rect
	.loc	2 321 29 is_stmt 1              @ lvgl/src/lv_draw/lv_draw_label.c:321:29
	ldr	r0, [sp, #332]
	.loc	2 321 34 is_stmt 0              @ lvgl/src/lv_draw/lv_draw_label.c:321:34
	ldr	r0, [r0, #4]
	str	r0, [sp, #68]
	.loc	2 322 17 is_stmt 1              @ lvgl/src/lv_draw/lv_draw_label.c:322:17
	b	.LBB1_76
.Ltmp91:
.LBB1_76:                               @   in Loop: Header=BB1_46 Depth=2
	.loc	2 323 13                        @ lvgl/src/lv_draw/lv_draw_label.c:323:13
	b	.LBB1_77
.Ltmp92:
.LBB1_77:                               @   in Loop: Header=BB1_46 Depth=2
	.loc	2 325 34                        @ lvgl/src/lv_draw/lv_draw_label.c:325:34
	ldr	r1, [sp, #336]
	.loc	2 325 40 is_stmt 0              @ lvgl/src/lv_draw/lv_draw_label.c:325:40
	ldr	r2, [sp, #324]
	.loc	2 325 46                        @ lvgl/src/lv_draw/lv_draw_label.c:325:46
	ldr	r3, [sp, #100]
	.loc	2 325 61                        @ lvgl/src/lv_draw/lv_draw_label.c:325:61
	ldrb.w	lr, [sp, #267]
	.loc	2 325 66                        @ lvgl/src/lv_draw/lv_draw_label.c:325:66
	ldr	r0, [sp, #332]
	.loc	2 325 71                        @ lvgl/src/lv_draw/lv_draw_label.c:325:71
	ldrb.w	r4, [r0, #39]
	.loc	2 325 13                        @ lvgl/src/lv_draw/lv_draw_label.c:325:13
	ldr	r0, [sp, #68]
	mov	r12, sp
	str.w	r4, [r12, #8]
	str.w	lr, [r12, #4]
	str.w	r0, [r12]
	add	r0, sp, #288
	bl	lv_draw_letter
.Ltmp93:
	.loc	2 327 16 is_stmt 1              @ lvgl/src/lv_draw/lv_draw_label.c:327:16
	ldr	r0, [sp, #220]
.Ltmp94:
	.loc	2 327 16 is_stmt 0              @ lvgl/src/lv_draw/lv_draw_label.c:327:16
	cmp	r0, #1
	blt	.LBB1_79
	b	.LBB1_78
.LBB1_78:                               @   in Loop: Header=BB1_46 Depth=2
.Ltmp95:
	.loc	2 328 26 is_stmt 1              @ lvgl/src/lv_draw/lv_draw_label.c:328:26
	ldr	r0, [sp, #220]
	.loc	2 328 37 is_stmt 0              @ lvgl/src/lv_draw/lv_draw_label.c:328:37
	ldr	r1, [sp, #332]
	ldrh	r1, [r1, #20]
	.loc	2 328 35                        @ lvgl/src/lv_draw/lv_draw_label.c:328:35
	add	r1, r0
	.loc	2 328 23                        @ lvgl/src/lv_draw/lv_draw_label.c:328:23
	ldrh.w	r0, [sp, #288]
	add	r0, r1
	strh.w	r0, [sp, #288]
	.loc	2 329 13 is_stmt 1              @ lvgl/src/lv_draw/lv_draw_label.c:329:13
	b	.LBB1_79
.Ltmp96:
.LBB1_79:                               @   in Loop: Header=BB1_46 Depth=2
	.loc	2 252 9                         @ lvgl/src/lv_draw/lv_draw_label.c:252:9
	b	.LBB1_46
.LBB1_80:                               @   in Loop: Header=BB1_44 Depth=1
.Ltmp97:
	.loc	2 332 12                        @ lvgl/src/lv_draw/lv_draw_label.c:332:12
	ldr	r0, [sp, #332]
	ldrb.w	r0, [r0, #38]
.Ltmp98:
	.loc	2 332 12 is_stmt 0              @ lvgl/src/lv_draw/lv_draw_label.c:332:12
	lsls	r0, r0, #30
	cmp	r0, #0
	bpl	.LBB1_82
	b	.LBB1_81
.LBB1_81:                               @   in Loop: Header=BB1_44 Depth=1
.Ltmp99:
	.loc	2 335 20 is_stmt 1              @ lvgl/src/lv_draw/lv_draw_label.c:335:20
	ldr	r0, [sp, #112]
	.loc	2 335 18 is_stmt 0              @ lvgl/src/lv_draw/lv_draw_label.c:335:18
	strh.w	r0, [sp, #56]
	.loc	2 336 20 is_stmt 1              @ lvgl/src/lv_draw/lv_draw_label.c:336:20
	ldrh.w	r0, [sp, #290]
	.loc	2 336 29 is_stmt 0              @ lvgl/src/lv_draw/lv_draw_label.c:336:29
	ldr	r1, [sp, #332]
	.loc	2 336 34                        @ lvgl/src/lv_draw/lv_draw_label.c:336:34
	ldr	r1, [r1, #12]
	.loc	2 336 40                        @ lvgl/src/lv_draw/lv_draw_label.c:336:40
	ldrsh.w	r1, [r1, #8]
	.loc	2 336 52                        @ lvgl/src/lv_draw/lv_draw_label.c:336:52
	add.w	r1, r1, r1, lsr #31
	.loc	2 336 26                        @ lvgl/src/lv_draw/lv_draw_label.c:336:26
	add.w	r0, r0, r1, lsr #1
	.loc	2 336 69                        @ lvgl/src/lv_draw/lv_draw_label.c:336:69
	ldrsh.w	r1, [sp, #244]
	.loc	2 336 75                        @ lvgl/src/lv_draw/lv_draw_label.c:336:75
	add.w	r1, r1, r1, lsr #31
	.loc	2 336 58                        @ lvgl/src/lv_draw/lv_draw_label.c:336:58
	add.w	r0, r0, r1, lsr #1
	.loc	2 336 18                        @ lvgl/src/lv_draw/lv_draw_label.c:336:18
	strh.w	r0, [sp, #58]
	.loc	2 337 24 is_stmt 1              @ lvgl/src/lv_draw/lv_draw_label.c:337:24
	ldrh.w	r0, [sp, #288]
	.loc	2 337 18 is_stmt 0              @ lvgl/src/lv_draw/lv_draw_label.c:337:18
	strh.w	r0, [sp, #52]
	.loc	2 338 23 is_stmt 1              @ lvgl/src/lv_draw/lv_draw_label.c:338:23
	ldrh.w	r0, [sp, #58]
	.loc	2 338 18 is_stmt 0              @ lvgl/src/lv_draw/lv_draw_label.c:338:18
	strh.w	r0, [sp, #54]
	.loc	2 339 36 is_stmt 1              @ lvgl/src/lv_draw/lv_draw_label.c:339:36
	ldr	r2, [sp, #336]
	add	r0, sp, #56
	add	r1, sp, #52
	add	r3, sp, #240
	.loc	2 339 13 is_stmt 0              @ lvgl/src/lv_draw/lv_draw_label.c:339:13
	bl	lv_draw_line
	.loc	2 340 9 is_stmt 1               @ lvgl/src/lv_draw/lv_draw_label.c:340:9
	b	.LBB1_82
.Ltmp100:
.LBB1_82:                               @   in Loop: Header=BB1_44 Depth=1
	.loc	2 342 12                        @ lvgl/src/lv_draw/lv_draw_label.c:342:12
	ldr	r0, [sp, #332]
	ldrb.w	r0, [r0, #38]
.Ltmp101:
	.loc	2 342 12 is_stmt 0              @ lvgl/src/lv_draw/lv_draw_label.c:342:12
	lsls	r0, r0, #31
	cbz	r0, .LBB1_84
	b	.LBB1_83
.LBB1_83:                               @   in Loop: Header=BB1_44 Depth=1
.Ltmp102:
	.loc	2 345 20 is_stmt 1              @ lvgl/src/lv_draw/lv_draw_label.c:345:20
	ldr	r0, [sp, #112]
	.loc	2 345 18 is_stmt 0              @ lvgl/src/lv_draw/lv_draw_label.c:345:18
	strh.w	r0, [sp, #48]
	.loc	2 346 20 is_stmt 1              @ lvgl/src/lv_draw/lv_draw_label.c:346:20
	ldrh.w	r0, [sp, #290]
	.loc	2 346 28 is_stmt 0              @ lvgl/src/lv_draw/lv_draw_label.c:346:28
	ldr	r1, [sp, #332]
	.loc	2 346 33                        @ lvgl/src/lv_draw/lv_draw_label.c:346:33
	ldr	r1, [r1, #12]
	.loc	2 346 28                        @ lvgl/src/lv_draw/lv_draw_label.c:346:28
	ldrh	r2, [r1, #8]
	.loc	2 346 26                        @ lvgl/src/lv_draw/lv_draw_label.c:346:26
	add	r0, r2
	.loc	2 346 53                        @ lvgl/src/lv_draw/lv_draw_label.c:346:53
	ldrh	r1, [r1, #10]
	.loc	2 346 51                        @ lvgl/src/lv_draw/lv_draw_label.c:346:51
	subs	r0, r0, r1
	.loc	2 346 76                        @ lvgl/src/lv_draw/lv_draw_label.c:346:76
	ldr	r1, [sp, #324]
	.loc	2 346 82                        @ lvgl/src/lv_draw/lv_draw_label.c:346:82
	ldrsb.w	r1, [r1, #13]
	.loc	2 346 74                        @ lvgl/src/lv_draw/lv_draw_label.c:346:74
	subs	r0, r0, r1
	.loc	2 346 18                        @ lvgl/src/lv_draw/lv_draw_label.c:346:18
	strh.w	r0, [sp, #50]
	.loc	2 347 24 is_stmt 1              @ lvgl/src/lv_draw/lv_draw_label.c:347:24
	ldrh.w	r0, [sp, #288]
	.loc	2 347 18 is_stmt 0              @ lvgl/src/lv_draw/lv_draw_label.c:347:18
	strh.w	r0, [sp, #44]
	.loc	2 348 23 is_stmt 1              @ lvgl/src/lv_draw/lv_draw_label.c:348:23
	ldrh.w	r0, [sp, #50]
	.loc	2 348 18 is_stmt 0              @ lvgl/src/lv_draw/lv_draw_label.c:348:18
	strh.w	r0, [sp, #46]
	.loc	2 349 36 is_stmt 1              @ lvgl/src/lv_draw/lv_draw_label.c:349:36
	ldr	r2, [sp, #336]
	add	r0, sp, #48
	add	r1, sp, #44
	add	r3, sp, #240
	.loc	2 349 13 is_stmt 0              @ lvgl/src/lv_draw/lv_draw_label.c:349:13
	bl	lv_draw_line
	.loc	2 350 9 is_stmt 1               @ lvgl/src/lv_draw/lv_draw_label.c:350:9
	b	.LBB1_84
.Ltmp103:
.LBB1_84:                               @   in Loop: Header=BB1_44 Depth=1
	.loc	2 357 22                        @ lvgl/src/lv_draw/lv_draw_label.c:357:22
	ldr	r0, [sp, #268]
	.loc	2 357 20 is_stmt 0              @ lvgl/src/lv_draw/lv_draw_label.c:357:20
	str	r0, [sp, #276]
	.loc	2 358 44 is_stmt 1              @ lvgl/src/lv_draw/lv_draw_label.c:358:44
	ldr	r0, [sp, #328]
	.loc	2 358 48 is_stmt 0              @ lvgl/src/lv_draw/lv_draw_label.c:358:48
	ldr	r1, [sp, #276]
	.loc	2 358 44                        @ lvgl/src/lv_draw/lv_draw_label.c:358:44
	add	r0, r1
	.loc	2 358 61                        @ lvgl/src/lv_draw/lv_draw_label.c:358:61
	ldr	r1, [sp, #324]
	.loc	2 358 67                        @ lvgl/src/lv_draw/lv_draw_label.c:358:67
	ldr.w	r12, [sp, #332]
	.loc	2 358 72                        @ lvgl/src/lv_draw/lv_draw_label.c:358:72
	ldrsh.w	r2, [r12, #20]
	.loc	2 358 86                        @ lvgl/src/lv_draw/lv_draw_label.c:358:86
	ldrsh.w	r3, [sp, #320]
	.loc	2 358 94                        @ lvgl/src/lv_draw/lv_draw_label.c:358:94
	ldrb.w	r12, [r12, #37]
	.loc	2 358 21                        @ lvgl/src/lv_draw/lv_draw_label.c:358:21
	mov	lr, sp
	str.w	r12, [lr]
	bl	_lv_txt_get_next_line
	mov	r1, r0
	.loc	2 358 18                        @ lvgl/src/lv_draw/lv_draw_label.c:358:18
	ldr	r0, [sp, #268]
	add	r0, r1
	str	r0, [sp, #268]
	.loc	2 360 17 is_stmt 1              @ lvgl/src/lv_draw/lv_draw_label.c:360:17
	ldr	r0, [sp, #340]
	.loc	2 360 25 is_stmt 0              @ lvgl/src/lv_draw/lv_draw_label.c:360:25
	ldrh	r0, [r0]
	.loc	2 360 15                        @ lvgl/src/lv_draw/lv_draw_label.c:360:15
	strh.w	r0, [sp, #288]
.Ltmp104:
	.loc	2 362 12 is_stmt 1              @ lvgl/src/lv_draw/lv_draw_label.c:362:12
	ldr	r0, [sp, #332]
	ldrb.w	r0, [r0, #37]
.Ltmp105:
	.loc	2 362 12 is_stmt 0              @ lvgl/src/lv_draw/lv_draw_label.c:362:12
	lsls	r0, r0, #29
	cmp	r0, #0
	bpl	.LBB1_86
	b	.LBB1_85
.LBB1_85:                               @   in Loop: Header=BB1_44 Depth=1
.Ltmp106:
	.loc	2 364 36 is_stmt 1              @ lvgl/src/lv_draw/lv_draw_label.c:364:36
	ldr	r0, [sp, #328]
	.loc	2 364 40 is_stmt 0              @ lvgl/src/lv_draw/lv_draw_label.c:364:40
	ldr	r2, [sp, #276]
	.loc	2 364 36                        @ lvgl/src/lv_draw/lv_draw_label.c:364:36
	add	r0, r2
	.loc	2 364 53                        @ lvgl/src/lv_draw/lv_draw_label.c:364:53
	ldr	r1, [sp, #268]
	.loc	2 364 62                        @ lvgl/src/lv_draw/lv_draw_label.c:364:62
	subs	r1, r1, r2
	.loc	2 364 76                        @ lvgl/src/lv_draw/lv_draw_label.c:364:76
	ldr	r2, [sp, #324]
	.loc	2 364 82                        @ lvgl/src/lv_draw/lv_draw_label.c:364:82
	ldr.w	r12, [sp, #332]
	.loc	2 364 87                        @ lvgl/src/lv_draw/lv_draw_label.c:364:87
	ldrsh.w	r3, [r12, #20]
	.loc	2 364 106                       @ lvgl/src/lv_draw/lv_draw_label.c:364:106
	ldrb.w	r12, [r12, #37]
	.loc	2 364 17                        @ lvgl/src/lv_draw/lv_draw_label.c:364:17
	mov	lr, sp
	str.w	r12, [lr]
	bl	_lv_txt_get_width
	.loc	2 363 24 is_stmt 1              @ lvgl/src/lv_draw/lv_draw_label.c:363:24
	str	r0, [sp, #292]
	.loc	2 366 41                        @ lvgl/src/lv_draw/lv_draw_label.c:366:41
	ldr	r0, [sp, #340]
	.loc	2 366 23 is_stmt 0              @ lvgl/src/lv_draw/lv_draw_label.c:366:23
	bl	lv_area_get_width
	.loc	2 366 51                        @ lvgl/src/lv_draw/lv_draw_label.c:366:51
	ldr	r1, [sp, #292]
	.loc	2 366 49                        @ lvgl/src/lv_draw/lv_draw_label.c:366:49
	subs	r0, r0, r1
	.loc	2 366 63                        @ lvgl/src/lv_draw/lv_draw_label.c:366:63
	add.w	r1, r0, r0, lsr #31
	.loc	2 366 19                        @ lvgl/src/lv_draw/lv_draw_label.c:366:19
	ldrh.w	r0, [sp, #288]
	add.w	r0, r0, r1, lsr #1
	strh.w	r0, [sp, #288]
	.loc	2 368 9 is_stmt 1               @ lvgl/src/lv_draw/lv_draw_label.c:368:9
	b	.LBB1_89
.Ltmp107:
.LBB1_86:                               @   in Loop: Header=BB1_44 Depth=1
	.loc	2 370 17                        @ lvgl/src/lv_draw/lv_draw_label.c:370:17
	ldr	r0, [sp, #332]
	ldrb.w	r0, [r0, #37]
.Ltmp108:
	.loc	2 370 17 is_stmt 0              @ lvgl/src/lv_draw/lv_draw_label.c:370:17
	lsls	r0, r0, #28
	cmp	r0, #0
	bpl	.LBB1_88
	b	.LBB1_87
.LBB1_87:                               @   in Loop: Header=BB1_44 Depth=1
.Ltmp109:
	.loc	2 372 36 is_stmt 1              @ lvgl/src/lv_draw/lv_draw_label.c:372:36
	ldr	r0, [sp, #328]
	.loc	2 372 40 is_stmt 0              @ lvgl/src/lv_draw/lv_draw_label.c:372:40
	ldr	r2, [sp, #276]
	.loc	2 372 36                        @ lvgl/src/lv_draw/lv_draw_label.c:372:36
	add	r0, r2
	.loc	2 372 53                        @ lvgl/src/lv_draw/lv_draw_label.c:372:53
	ldr	r1, [sp, #268]
	.loc	2 372 62                        @ lvgl/src/lv_draw/lv_draw_label.c:372:62
	subs	r1, r1, r2
	.loc	2 372 76                        @ lvgl/src/lv_draw/lv_draw_label.c:372:76
	ldr	r2, [sp, #324]
	.loc	2 372 82                        @ lvgl/src/lv_draw/lv_draw_label.c:372:82
	ldr.w	r12, [sp, #332]
	.loc	2 372 87                        @ lvgl/src/lv_draw/lv_draw_label.c:372:87
	ldrsh.w	r3, [r12, #20]
	.loc	2 372 106                       @ lvgl/src/lv_draw/lv_draw_label.c:372:106
	ldrb.w	r12, [r12, #37]
	.loc	2 372 17                        @ lvgl/src/lv_draw/lv_draw_label.c:372:17
	mov	lr, sp
	str.w	r12, [lr]
	bl	_lv_txt_get_width
	.loc	2 371 24 is_stmt 1              @ lvgl/src/lv_draw/lv_draw_label.c:371:24
	str	r0, [sp, #292]
	.loc	2 373 40                        @ lvgl/src/lv_draw/lv_draw_label.c:373:40
	ldr	r0, [sp, #340]
	.loc	2 373 22 is_stmt 0              @ lvgl/src/lv_draw/lv_draw_label.c:373:22
	bl	lv_area_get_width
	.loc	2 373 50                        @ lvgl/src/lv_draw/lv_draw_label.c:373:50
	ldr	r1, [sp, #292]
	.loc	2 373 48                        @ lvgl/src/lv_draw/lv_draw_label.c:373:48
	subs	r1, r0, r1
	.loc	2 373 19                        @ lvgl/src/lv_draw/lv_draw_label.c:373:19
	ldrh.w	r0, [sp, #288]
	add	r0, r1
	strh.w	r0, [sp, #288]
	.loc	2 374 9 is_stmt 1               @ lvgl/src/lv_draw/lv_draw_label.c:374:9
	b	.LBB1_88
.Ltmp110:
.LBB1_88:                               @   in Loop: Header=BB1_44 Depth=1
	.loc	2 0 9 is_stmt 0                 @ lvgl/src/lv_draw/lv_draw_label.c:0:9
	b	.LBB1_89
.LBB1_89:                               @   in Loop: Header=BB1_44 Depth=1
	.loc	2 377 18 is_stmt 1              @ lvgl/src/lv_draw/lv_draw_label.c:377:18
	ldr	r1, [sp, #296]
	.loc	2 377 15 is_stmt 0              @ lvgl/src/lv_draw/lv_draw_label.c:377:15
	ldrh.w	r0, [sp, #290]
	add	r0, r1
	strh.w	r0, [sp, #290]
.Ltmp111:
	.loc	2 379 16 is_stmt 1              @ lvgl/src/lv_draw/lv_draw_label.c:379:16
	ldrsh.w	r0, [sp, #290]
	.loc	2 379 20 is_stmt 0              @ lvgl/src/lv_draw/lv_draw_label.c:379:20
	ldr	r1, [sp, #336]
	.loc	2 379 26                        @ lvgl/src/lv_draw/lv_draw_label.c:379:26
	ldrsh.w	r1, [r1, #6]
.Ltmp112:
	.loc	2 379 12                        @ lvgl/src/lv_draw/lv_draw_label.c:379:12
	cmp	r0, r1
	ble	.LBB1_91
	b	.LBB1_90
.LBB1_90:
.Ltmp113:
	.loc	2 379 30                        @ lvgl/src/lv_draw/lv_draw_label.c:379:30
	b	.LBB1_92
.Ltmp114:
.LBB1_91:                               @   in Loop: Header=BB1_44 Depth=1
	.loc	2 239 5 is_stmt 1               @ lvgl/src/lv_draw/lv_draw_label.c:239:5
	b	.LBB1_44
.LBB1_92:
	.loc	2 383 1                         @ lvgl/src/lv_draw/lv_draw_label.c:383:1
	add	sp, #344
	pop	{r4, pc}
.Ltmp115:
.Lfunc_end1:
	.size	lv_draw_label, .Lfunc_end1-lv_draw_label
	.cfi_endproc
	.cantunwind
	.fnend
                                        @ -- End function
	.section	.text.lv_area_get_width,"ax",%progbits
	.p2align	3                               @ -- Begin function lv_area_get_width
	.type	lv_area_get_width,%function
	.code	16                              @ @lv_area_get_width
	.thumb_func
lv_area_get_width:
.Lfunc_begin2:
	.file	9 "E:\\Smart-access-control\\Hardware\\CODE" "lvgl/src/lv_draw/../lv_hal/../lv_misc/lv_area.h"
	.loc	9 108 0                         @ lvgl/src/lv_draw/../lv_hal/../lv_misc/lv_area.h:108:0
	.fnstart
	.cfi_startproc
@ %bb.0:
	.pad	#4
	sub	sp, #4
	.cfi_def_cfa_offset 4
	str	r0, [sp]
.Ltmp116:
	.loc	9 109 25 prologue_end           @ lvgl/src/lv_draw/../lv_hal/../lv_misc/lv_area.h:109:25
	ldr	r1, [sp]
	ldrh	r0, [r1, #4]
	.loc	9 109 38 is_stmt 0              @ lvgl/src/lv_draw/../lv_hal/../lv_misc/lv_area.h:109:38
	ldrh	r1, [r1]
	.loc	9 109 36                        @ lvgl/src/lv_draw/../lv_hal/../lv_misc/lv_area.h:109:36
	subs	r0, r0, r1
	.loc	9 109 49                        @ lvgl/src/lv_draw/../lv_hal/../lv_misc/lv_area.h:109:49
	adds	r0, #1
	.loc	9 109 5                         @ lvgl/src/lv_draw/../lv_hal/../lv_misc/lv_area.h:109:5
	sxth	r0, r0
	add	sp, #4
	bx	lr
.Ltmp117:
.Lfunc_end2:
	.size	lv_area_get_width, .Lfunc_end2-lv_area_get_width
	.cfi_endproc
	.cantunwind
	.fnend
                                        @ -- End function
	.section	.text.lv_font_get_line_height,"ax",%progbits
	.p2align	3                               @ -- Begin function lv_font_get_line_height
	.type	lv_font_get_line_height,%function
	.code	16                              @ @lv_font_get_line_height
	.thumb_func
lv_font_get_line_height:
.Lfunc_begin3:
	.file	10 "E:\\Smart-access-control\\Hardware\\CODE" "lvgl/src/lv_draw/../lv_core/../lv_font/lv_font.h"
	.loc	10 117 0 is_stmt 1              @ lvgl/src/lv_draw/../lv_core/../lv_font/lv_font.h:117:0
	.fnstart
	.cfi_startproc
@ %bb.0:
	.pad	#4
	sub	sp, #4
	.cfi_def_cfa_offset 4
	str	r0, [sp]
.Ltmp118:
	.loc	10 118 12 prologue_end          @ lvgl/src/lv_draw/../lv_core/../lv_font/lv_font.h:118:12
	ldr	r0, [sp]
	.loc	10 118 20 is_stmt 0             @ lvgl/src/lv_draw/../lv_core/../lv_font/lv_font.h:118:20
	ldrsh.w	r0, [r0, #8]
	.loc	10 118 5                        @ lvgl/src/lv_draw/../lv_core/../lv_font/lv_font.h:118:5
	add	sp, #4
	bx	lr
.Ltmp119:
.Lfunc_end3:
	.size	lv_font_get_line_height, .Lfunc_end3-lv_font_get_line_height
	.cfi_endproc
	.cantunwind
	.fnend
                                        @ -- End function
	.section	.text._lv_memcpy_small,"ax",%progbits
	.p2align	3                               @ -- Begin function _lv_memcpy_small
	.type	_lv_memcpy_small,%function
	.code	16                              @ @_lv_memcpy_small
	.thumb_func
_lv_memcpy_small:
.Lfunc_begin4:
	.file	11 "E:\\Smart-access-control\\Hardware\\CODE" "lvgl/src/lv_draw/../lv_misc/lv_mem.h"
	.loc	11 214 0 is_stmt 1              @ lvgl/src/lv_draw/../lv_misc/lv_mem.h:214:0
	.fnstart
	.cfi_startproc
@ %bb.0:
	.pad	#20
	sub	sp, #20
	.cfi_def_cfa_offset 20
	str	r0, [sp, #16]
	str	r1, [sp, #12]
	str	r2, [sp, #8]
.Ltmp120:
	.loc	11 215 31 prologue_end          @ lvgl/src/lv_draw/../lv_misc/lv_mem.h:215:31
	ldr	r0, [sp, #16]
	.loc	11 215 15 is_stmt 0             @ lvgl/src/lv_draw/../lv_misc/lv_mem.h:215:15
	str	r0, [sp, #4]
	.loc	11 216 43 is_stmt 1             @ lvgl/src/lv_draw/../lv_misc/lv_mem.h:216:43
	ldr	r0, [sp, #12]
	.loc	11 216 21 is_stmt 0             @ lvgl/src/lv_draw/../lv_misc/lv_mem.h:216:21
	str	r0, [sp]
	.loc	11 218 5 is_stmt 1              @ lvgl/src/lv_draw/../lv_misc/lv_mem.h:218:5
	b	.LBB4_1
.LBB4_1:                                @ =>This Inner Loop Header: Depth=1
	.loc	11 218 11 is_stmt 0             @ lvgl/src/lv_draw/../lv_misc/lv_mem.h:218:11
	ldr	r0, [sp, #8]
	.loc	11 218 5                        @ lvgl/src/lv_draw/../lv_misc/lv_mem.h:218:5
	cbz	r0, .LBB4_3
	b	.LBB4_2
.LBB4_2:                                @   in Loop: Header=BB4_1 Depth=1
.Ltmp121:
	.loc	11 219 16 is_stmt 1             @ lvgl/src/lv_draw/../lv_misc/lv_mem.h:219:16
	ldr	r0, [sp]
	.loc	11 219 15 is_stmt 0             @ lvgl/src/lv_draw/../lv_misc/lv_mem.h:219:15
	ldrb	r0, [r0]
	.loc	11 219 10                       @ lvgl/src/lv_draw/../lv_misc/lv_mem.h:219:10
	ldr	r1, [sp, #4]
	.loc	11 219 13                       @ lvgl/src/lv_draw/../lv_misc/lv_mem.h:219:13
	strb	r0, [r1]
	.loc	11 220 11 is_stmt 1             @ lvgl/src/lv_draw/../lv_misc/lv_mem.h:220:11
	ldr	r0, [sp, #4]
	adds	r0, #1
	str	r0, [sp, #4]
	.loc	11 221 11                       @ lvgl/src/lv_draw/../lv_misc/lv_mem.h:221:11
	ldr	r0, [sp]
	adds	r0, #1
	str	r0, [sp]
	.loc	11 222 12                       @ lvgl/src/lv_draw/../lv_misc/lv_mem.h:222:12
	ldr	r0, [sp, #8]
	subs	r0, #1
	str	r0, [sp, #8]
.Ltmp122:
	.loc	11 218 5                        @ lvgl/src/lv_draw/../lv_misc/lv_mem.h:218:5
	b	.LBB4_1
.LBB4_3:
	.loc	11 225 12                       @ lvgl/src/lv_draw/../lv_misc/lv_mem.h:225:12
	ldr	r0, [sp, #16]
	.loc	11 225 5 is_stmt 0              @ lvgl/src/lv_draw/../lv_misc/lv_mem.h:225:5
	add	sp, #20
	bx	lr
.Ltmp123:
.Lfunc_end4:
	.size	_lv_memcpy_small, .Lfunc_end4-_lv_memcpy_small
	.cfi_endproc
	.cantunwind
	.fnend
                                        @ -- End function
	.section	.text.hex_char_to_num,"ax",%progbits
	.p2align	3                               @ -- Begin function hex_char_to_num
	.type	hex_char_to_num,%function
	.code	16                              @ @hex_char_to_num
	.thumb_func
hex_char_to_num:
.Lfunc_begin5:
	.loc	2 818 0 is_stmt 1               @ lvgl/src/lv_draw/lv_draw_label.c:818:0
	.fnstart
	.cfi_startproc
@ %bb.0:
	.pad	#8
	sub	sp, #8
	.cfi_def_cfa_offset 8
                                        @ kill: def $r1 killed $r0
	strb.w	r0, [sp, #7]
	movs	r0, #0
.Ltmp124:
	.loc	2 819 13 prologue_end           @ lvgl/src/lv_draw/lv_draw_label.c:819:13
	strb.w	r0, [sp, #6]
.Ltmp125:
	.loc	2 821 8                         @ lvgl/src/lv_draw/lv_draw_label.c:821:8
	ldrsb.w	r0, [sp, #7]
	.loc	2 821 19 is_stmt 0              @ lvgl/src/lv_draw/lv_draw_label.c:821:19
	cmp	r0, #48
	blt	.LBB5_3
	b	.LBB5_1
.LBB5_1:
	.loc	2 821 22                        @ lvgl/src/lv_draw/lv_draw_label.c:821:22
	ldrsb.w	r0, [sp, #7]
.Ltmp126:
	.loc	2 821 8                         @ lvgl/src/lv_draw/lv_draw_label.c:821:8
	cmp	r0, #57
	bgt	.LBB5_3
	b	.LBB5_2
.LBB5_2:
.Ltmp127:
	.loc	2 822 18 is_stmt 1              @ lvgl/src/lv_draw/lv_draw_label.c:822:18
	ldrb.w	r0, [sp, #7]
	.loc	2 822 22 is_stmt 0              @ lvgl/src/lv_draw/lv_draw_label.c:822:22
	subs	r0, #48
	.loc	2 822 16                        @ lvgl/src/lv_draw/lv_draw_label.c:822:16
	strb.w	r0, [sp, #6]
	.loc	2 823 5 is_stmt 1               @ lvgl/src/lv_draw/lv_draw_label.c:823:5
	b	.LBB5_16
.Ltmp128:
.LBB5_3:
	.loc	2 825 12                        @ lvgl/src/lv_draw/lv_draw_label.c:825:12
	ldrsb.w	r0, [sp, #7]
.Ltmp129:
	.loc	2 825 12 is_stmt 0              @ lvgl/src/lv_draw/lv_draw_label.c:825:12
	cmp	r0, #97
	blt	.LBB5_5
	b	.LBB5_4
.LBB5_4:
.Ltmp130:
	.loc	2 825 28                        @ lvgl/src/lv_draw/lv_draw_label.c:825:28
	ldrb.w	r0, [sp, #7]
	subs	r0, #32
	strb.w	r0, [sp, #7]
	.loc	2 825 24                        @ lvgl/src/lv_draw/lv_draw_label.c:825:24
	b	.LBB5_5
.Ltmp131:
.LBB5_5:
	.loc	2 827 16 is_stmt 1              @ lvgl/src/lv_draw/lv_draw_label.c:827:16
	ldrsb.w	r0, [sp, #7]
	.loc	2 827 9 is_stmt 0               @ lvgl/src/lv_draw/lv_draw_label.c:827:9
	subs	r0, #65
	mov	r1, r0
	str	r1, [sp]                        @ 4-byte Spill
	cmp	r0, #5
	bhi	.LBB5_14
@ %bb.6:
	.loc	2 0 9                           @ lvgl/src/lv_draw/lv_draw_label.c:0:9
	ldr	r1, [sp]                        @ 4-byte Reload
.LCPI5_0:
	tbb	[pc, r1]
@ %bb.7:
.LJTI5_0:
	.byte	(.LBB5_8-(.LCPI5_0+4))/2
	.byte	(.LBB5_9-(.LCPI5_0+4))/2
	.byte	(.LBB5_10-(.LCPI5_0+4))/2
	.byte	(.LBB5_11-(.LCPI5_0+4))/2
	.byte	(.LBB5_12-(.LCPI5_0+4))/2
	.byte	(.LBB5_13-(.LCPI5_0+4))/2
	.p2align	1
.LBB5_8:
	movs	r0, #10
.Ltmp132:
	.loc	2 829 24 is_stmt 1              @ lvgl/src/lv_draw/lv_draw_label.c:829:24
	strb.w	r0, [sp, #6]
	.loc	2 830 17                        @ lvgl/src/lv_draw/lv_draw_label.c:830:17
	b	.LBB5_15
.LBB5_9:
	.loc	2 0 17 is_stmt 0                @ lvgl/src/lv_draw/lv_draw_label.c:0:17
	movs	r0, #11
	.loc	2 832 24 is_stmt 1              @ lvgl/src/lv_draw/lv_draw_label.c:832:24
	strb.w	r0, [sp, #6]
	.loc	2 833 17                        @ lvgl/src/lv_draw/lv_draw_label.c:833:17
	b	.LBB5_15
.LBB5_10:
	.loc	2 0 17 is_stmt 0                @ lvgl/src/lv_draw/lv_draw_label.c:0:17
	movs	r0, #12
	.loc	2 835 24 is_stmt 1              @ lvgl/src/lv_draw/lv_draw_label.c:835:24
	strb.w	r0, [sp, #6]
	.loc	2 836 17                        @ lvgl/src/lv_draw/lv_draw_label.c:836:17
	b	.LBB5_15
.LBB5_11:
	.loc	2 0 17 is_stmt 0                @ lvgl/src/lv_draw/lv_draw_label.c:0:17
	movs	r0, #13
	.loc	2 838 24 is_stmt 1              @ lvgl/src/lv_draw/lv_draw_label.c:838:24
	strb.w	r0, [sp, #6]
	.loc	2 839 17                        @ lvgl/src/lv_draw/lv_draw_label.c:839:17
	b	.LBB5_15
.LBB5_12:
	.loc	2 0 17 is_stmt 0                @ lvgl/src/lv_draw/lv_draw_label.c:0:17
	movs	r0, #14
	.loc	2 841 24 is_stmt 1              @ lvgl/src/lv_draw/lv_draw_label.c:841:24
	strb.w	r0, [sp, #6]
	.loc	2 842 17                        @ lvgl/src/lv_draw/lv_draw_label.c:842:17
	b	.LBB5_15
.LBB5_13:
	.loc	2 0 17 is_stmt 0                @ lvgl/src/lv_draw/lv_draw_label.c:0:17
	movs	r0, #15
	.loc	2 844 24 is_stmt 1              @ lvgl/src/lv_draw/lv_draw_label.c:844:24
	strb.w	r0, [sp, #6]
	.loc	2 845 17                        @ lvgl/src/lv_draw/lv_draw_label.c:845:17
	b	.LBB5_15
.LBB5_14:
	.loc	2 0 17 is_stmt 0                @ lvgl/src/lv_draw/lv_draw_label.c:0:17
	movs	r0, #0
	.loc	2 847 24 is_stmt 1              @ lvgl/src/lv_draw/lv_draw_label.c:847:24
	strb.w	r0, [sp, #6]
	.loc	2 848 17                        @ lvgl/src/lv_draw/lv_draw_label.c:848:17
	b	.LBB5_15
.Ltmp133:
.LBB5_15:
	.loc	2 0 17 is_stmt 0                @ lvgl/src/lv_draw/lv_draw_label.c:0:17
	b	.LBB5_16
.LBB5_16:
	.loc	2 852 12 is_stmt 1              @ lvgl/src/lv_draw/lv_draw_label.c:852:12
	ldrb.w	r0, [sp, #6]
	.loc	2 852 5 is_stmt 0               @ lvgl/src/lv_draw/lv_draw_label.c:852:5
	add	sp, #8
	bx	lr
.Ltmp134:
.Lfunc_end5:
	.size	hex_char_to_num, .Lfunc_end5-hex_char_to_num
	.cfi_endproc
	.cantunwind
	.fnend
                                        @ -- End function
	.section	.text.lv_color_make,"ax",%progbits
	.p2align	3                               @ -- Begin function lv_color_make
	.type	lv_color_make,%function
	.code	16                              @ @lv_color_make
	.thumb_func
lv_color_make:
.Lfunc_begin6:
	.loc	3 584 0 is_stmt 1               @ lvgl/src/lv_draw/../lv_hal/../lv_misc/lv_color.h:584:0
	.fnstart
	.cfi_startproc
@ %bb.0:
	.pad	#8
	sub	sp, #8
	.cfi_def_cfa_offset 8
                                        @ kill: def $r3 killed $r2
                                        @ kill: def $r3 killed $r1
                                        @ kill: def $r3 killed $r0
	strb.w	r0, [sp, #3]
	strb.w	r1, [sp, #2]
	strb.w	r2, [sp, #1]
.Ltmp135:
	.loc	3 585 12 prologue_end           @ lvgl/src/lv_draw/../lv_hal/../lv_misc/lv_color.h:585:12
	ldrb.w	r0, [sp, #1]
	strb.w	r0, [sp, #4]
	ldrb.w	r0, [sp, #2]
	strb.w	r0, [sp, #5]
	ldrb.w	r0, [sp, #3]
	strb.w	r0, [sp, #6]
	movs	r0, #255
	strb.w	r0, [sp, #7]
	.loc	3 585 5 is_stmt 0               @ lvgl/src/lv_draw/../lv_hal/../lv_misc/lv_color.h:585:5
	ldr	r0, [sp, #4]
	add	sp, #8
	bx	lr
.Ltmp136:
.Lfunc_end6:
	.size	lv_color_make, .Lfunc_end6-lv_color_make
	.cfi_endproc
	.cantunwind
	.fnend
                                        @ -- End function
	.section	.text.lv_draw_letter,"ax",%progbits
	.p2align	3                               @ -- Begin function lv_draw_letter
	.type	lv_draw_letter,%function
	.code	16                              @ @lv_draw_letter
	.thumb_func
lv_draw_letter:
.Lfunc_begin7:
	.loc	2 402 0 is_stmt 1               @ lvgl/src/lv_draw/lv_draw_label.c:402:0
	.fnstart
	.cfi_startproc
@ %bb.0:
	.save	{r4, r5, r7, lr}
	push	{r4, r5, r7, lr}
	.cfi_def_cfa_offset 16
	.cfi_offset lr, -4
	.cfi_offset r7, -8
	.cfi_offset r5, -12
	.cfi_offset r4, -16
	.pad	#72
	sub	sp, #72
	.cfi_def_cfa_offset 88
	mov	r12, r1
	mov	lr, r0
	ldr	r0, [sp, #96]
	ldr	r1, [sp, #92]
	ldr	r4, [sp, #88]
	str	r4, [sp, #68]
	str.w	lr, [sp, #64]
	str.w	r12, [sp, #60]
	str	r2, [sp, #56]
	str	r3, [sp, #52]
	strb.w	r1, [sp, #51]
	strb.w	r0, [sp, #50]
.Ltmp137:
	.loc	2 403 8 prologue_end            @ lvgl/src/lv_draw/lv_draw_label.c:403:8
	ldrb.w	r0, [sp, #51]
.Ltmp138:
	.loc	2 403 8 is_stmt 0               @ lvgl/src/lv_draw/lv_draw_label.c:403:8
	cmp	r0, #1
	bgt	.LBB7_2
	b	.LBB7_1
.LBB7_1:
.Ltmp139:
	.loc	2 403 26                        @ lvgl/src/lv_draw/lv_draw_label.c:403:26
	b	.LBB7_23
.Ltmp140:
.LBB7_2:
	.loc	2 404 8 is_stmt 1               @ lvgl/src/lv_draw/lv_draw_label.c:404:8
	ldrb.w	r0, [sp, #51]
.Ltmp141:
	.loc	2 404 8 is_stmt 0               @ lvgl/src/lv_draw/lv_draw_label.c:404:8
	cmp	r0, #254
	blt	.LBB7_4
	b	.LBB7_3
.LBB7_3:
	.loc	2 0 8                           @ lvgl/src/lv_draw/lv_draw_label.c:0:8
	movs	r0, #255
.Ltmp142:
	.loc	2 404 30                        @ lvgl/src/lv_draw/lv_draw_label.c:404:30
	strb.w	r0, [sp, #51]
	.loc	2 404 26                        @ lvgl/src/lv_draw/lv_draw_label.c:404:26
	b	.LBB7_4
.Ltmp143:
.LBB7_4:
	.loc	2 406 8 is_stmt 1               @ lvgl/src/lv_draw/lv_draw_label.c:406:8
	ldr	r0, [sp, #56]
.Ltmp144:
	.loc	2 406 8 is_stmt 0               @ lvgl/src/lv_draw/lv_draw_label.c:406:8
	cbnz	r0, .LBB7_6
	b	.LBB7_5
.LBB7_5:
.Ltmp145:
	.loc	2 408 9 is_stmt 1               @ lvgl/src/lv_draw/lv_draw_label.c:408:9
	b	.LBB7_23
.Ltmp146:
.LBB7_6:
	.loc	2 412 40                        @ lvgl/src/lv_draw/lv_draw_label.c:412:40
	ldr	r0, [sp, #56]
	.loc	2 412 52 is_stmt 0              @ lvgl/src/lv_draw/lv_draw_label.c:412:52
	ldr	r2, [sp, #52]
	add	r1, sp, #36
	movs	r3, #0
	.loc	2 412 18                        @ lvgl/src/lv_draw/lv_draw_label.c:412:18
	bl	lv_font_get_glyph_dsc
	.loc	2 412 10                        @ lvgl/src/lv_draw/lv_draw_label.c:412:10
	strb.w	r0, [sp, #35]
.Ltmp147:
	.loc	2 413 8 is_stmt 1               @ lvgl/src/lv_draw/lv_draw_label.c:413:8
	ldrb.w	r0, [sp, #35]
.Ltmp148:
	.loc	2 413 8 is_stmt 0               @ lvgl/src/lv_draw/lv_draw_label.c:413:8
	lsls	r0, r0, #31
	cbnz	r0, .LBB7_10
	b	.LBB7_7
.LBB7_7:
.Ltmp149:
	.loc	2 416 12 is_stmt 1              @ lvgl/src/lv_draw/lv_draw_label.c:416:12
	ldr	r0, [sp, #52]
.Ltmp150:
	.loc	2 416 12 is_stmt 0              @ lvgl/src/lv_draw/lv_draw_label.c:416:12
	cmp	r0, #32
	blo	.LBB7_9
	b	.LBB7_8
.LBB7_8:
.Ltmp151:
	.loc	2 418 9 is_stmt 1               @ lvgl/src/lv_draw/lv_draw_label.c:418:9
	b	.LBB7_9
.Ltmp152:
.LBB7_9:
	.loc	2 419 9                         @ lvgl/src/lv_draw/lv_draw_label.c:419:9
	b	.LBB7_23
.Ltmp153:
.LBB7_10:
	.loc	2 423 11                        @ lvgl/src/lv_draw/lv_draw_label.c:423:11
	ldrh.w	r0, [sp, #40]
	.loc	2 423 23 is_stmt 0              @ lvgl/src/lv_draw/lv_draw_label.c:423:23
	cbz	r0, .LBB7_12
	b	.LBB7_11
.LBB7_11:
	.loc	2 423 29                        @ lvgl/src/lv_draw/lv_draw_label.c:423:29
	ldrh.w	r0, [sp, #38]
.Ltmp154:
	.loc	2 423 8                         @ lvgl/src/lv_draw/lv_draw_label.c:423:8
	cbnz	r0, .LBB7_13
	b	.LBB7_12
.LBB7_12:
.Ltmp155:
	.loc	2 423 42                        @ lvgl/src/lv_draw/lv_draw_label.c:423:42
	b	.LBB7_23
.Ltmp156:
.LBB7_13:
	.loc	2 425 21 is_stmt 1              @ lvgl/src/lv_draw/lv_draw_label.c:425:21
	ldr	r0, [sp, #64]
	.loc	2 425 28 is_stmt 0              @ lvgl/src/lv_draw/lv_draw_label.c:425:28
	ldrsh.w	r0, [r0]
	.loc	2 425 34                        @ lvgl/src/lv_draw/lv_draw_label.c:425:34
	ldrsh.w	r1, [sp, #42]
	.loc	2 425 30                        @ lvgl/src/lv_draw/lv_draw_label.c:425:30
	add	r0, r1
	.loc	2 425 13                        @ lvgl/src/lv_draw/lv_draw_label.c:425:13
	str	r0, [sp, #28]
	.loc	2 426 21 is_stmt 1              @ lvgl/src/lv_draw/lv_draw_label.c:426:21
	ldr	r0, [sp, #64]
	.loc	2 426 28 is_stmt 0              @ lvgl/src/lv_draw/lv_draw_label.c:426:28
	ldrsh.w	r0, [r0, #2]
	.loc	2 426 33                        @ lvgl/src/lv_draw/lv_draw_label.c:426:33
	ldr	r2, [sp, #56]
	.loc	2 426 41                        @ lvgl/src/lv_draw/lv_draw_label.c:426:41
	ldrsh.w	r1, [r2, #8]
	.loc	2 426 63                        @ lvgl/src/lv_draw/lv_draw_label.c:426:63
	ldrsh.w	r2, [r2, #10]
	.loc	2 426 53                        @ lvgl/src/lv_draw/lv_draw_label.c:426:53
	subs	r1, r1, r2
	.loc	2 426 30                        @ lvgl/src/lv_draw/lv_draw_label.c:426:30
	add	r0, r1
	.loc	2 426 78                        @ lvgl/src/lv_draw/lv_draw_label.c:426:78
	ldrh.w	r1, [sp, #40]
	.loc	2 426 74                        @ lvgl/src/lv_draw/lv_draw_label.c:426:74
	subs	r0, r0, r1
	.loc	2 426 88                        @ lvgl/src/lv_draw/lv_draw_label.c:426:88
	ldrsh.w	r1, [sp, #44]
	.loc	2 426 84                        @ lvgl/src/lv_draw/lv_draw_label.c:426:84
	subs	r0, r0, r1
	.loc	2 426 13                        @ lvgl/src/lv_draw/lv_draw_label.c:426:13
	str	r0, [sp, #24]
.Ltmp157:
	.loc	2 429 8 is_stmt 1               @ lvgl/src/lv_draw/lv_draw_label.c:429:8
	ldr	r0, [sp, #28]
	.loc	2 429 18 is_stmt 0              @ lvgl/src/lv_draw/lv_draw_label.c:429:18
	ldrh.w	r1, [sp, #38]
	.loc	2 429 14                        @ lvgl/src/lv_draw/lv_draw_label.c:429:14
	add	r0, r1
	.loc	2 429 26                        @ lvgl/src/lv_draw/lv_draw_label.c:429:26
	ldr	r1, [sp, #60]
	.loc	2 429 37                        @ lvgl/src/lv_draw/lv_draw_label.c:429:37
	ldrsh.w	r1, [r1]
	.loc	2 429 40                        @ lvgl/src/lv_draw/lv_draw_label.c:429:40
	cmp	r0, r1
	blt	.LBB7_17
	b	.LBB7_14
.LBB7_14:
	.loc	2 430 8 is_stmt 1               @ lvgl/src/lv_draw/lv_draw_label.c:430:8
	ldr	r0, [sp, #28]
	.loc	2 430 16 is_stmt 0              @ lvgl/src/lv_draw/lv_draw_label.c:430:16
	ldr	r1, [sp, #60]
	.loc	2 430 27                        @ lvgl/src/lv_draw/lv_draw_label.c:430:27
	ldrsh.w	r1, [r1, #4]
	.loc	2 430 30                        @ lvgl/src/lv_draw/lv_draw_label.c:430:30
	cmp	r0, r1
	bgt	.LBB7_17
	b	.LBB7_15
.LBB7_15:
	.loc	2 431 8 is_stmt 1               @ lvgl/src/lv_draw/lv_draw_label.c:431:8
	ldr	r0, [sp, #24]
	.loc	2 431 18 is_stmt 0              @ lvgl/src/lv_draw/lv_draw_label.c:431:18
	ldrh.w	r1, [sp, #40]
	.loc	2 431 14                        @ lvgl/src/lv_draw/lv_draw_label.c:431:14
	add	r0, r1
	.loc	2 431 26                        @ lvgl/src/lv_draw/lv_draw_label.c:431:26
	ldr	r1, [sp, #60]
	.loc	2 431 37                        @ lvgl/src/lv_draw/lv_draw_label.c:431:37
	ldrsh.w	r1, [r1, #2]
	.loc	2 431 40                        @ lvgl/src/lv_draw/lv_draw_label.c:431:40
	cmp	r0, r1
	blt	.LBB7_17
	b	.LBB7_16
.LBB7_16:
	.loc	2 432 8 is_stmt 1               @ lvgl/src/lv_draw/lv_draw_label.c:432:8
	ldr	r0, [sp, #24]
	.loc	2 432 16 is_stmt 0              @ lvgl/src/lv_draw/lv_draw_label.c:432:16
	ldr	r1, [sp, #60]
	.loc	2 432 27                        @ lvgl/src/lv_draw/lv_draw_label.c:432:27
	ldrsh.w	r1, [r1, #6]
.Ltmp158:
	.loc	2 429 8 is_stmt 1               @ lvgl/src/lv_draw/lv_draw_label.c:429:8
	cmp	r0, r1
	ble	.LBB7_18
	b	.LBB7_17
.LBB7_17:
.Ltmp159:
	.loc	2 433 9                         @ lvgl/src/lv_draw/lv_draw_label.c:433:9
	b	.LBB7_23
.Ltmp160:
.LBB7_18:
	.loc	2 436 54                        @ lvgl/src/lv_draw/lv_draw_label.c:436:54
	ldr	r0, [sp, #56]
	.loc	2 436 62 is_stmt 0              @ lvgl/src/lv_draw/lv_draw_label.c:436:62
	ldr	r1, [sp, #52]
	.loc	2 436 29                        @ lvgl/src/lv_draw/lv_draw_label.c:436:29
	bl	lv_font_get_glyph_bitmap
	.loc	2 436 21                        @ lvgl/src/lv_draw/lv_draw_label.c:436:21
	str	r0, [sp, #20]
.Ltmp161:
	.loc	2 437 8 is_stmt 1               @ lvgl/src/lv_draw/lv_draw_label.c:437:8
	ldr	r0, [sp, #20]
.Ltmp162:
	.loc	2 437 8 is_stmt 0               @ lvgl/src/lv_draw/lv_draw_label.c:437:8
	cbnz	r0, .LBB7_20
	b	.LBB7_19
.LBB7_19:
.Ltmp163:
	.loc	2 439 9 is_stmt 1               @ lvgl/src/lv_draw/lv_draw_label.c:439:9
	b	.LBB7_23
.Ltmp164:
.LBB7_20:
	.loc	2 442 8                         @ lvgl/src/lv_draw/lv_draw_label.c:442:8
	ldr	r0, [sp, #56]
	.loc	2 442 16 is_stmt 0              @ lvgl/src/lv_draw/lv_draw_label.c:442:16
	ldrb	r0, [r0, #12]
.Ltmp165:
	.loc	2 442 8                         @ lvgl/src/lv_draw/lv_draw_label.c:442:8
	lsls	r0, r0, #30
	cbz	r0, .LBB7_22
	b	.LBB7_21
.LBB7_21:
.Ltmp166:
	.loc	2 443 27 is_stmt 1              @ lvgl/src/lv_draw/lv_draw_label.c:443:27
	ldrsh.w	r0, [sp, #28]
	.loc	2 443 34 is_stmt 0              @ lvgl/src/lv_draw/lv_draw_label.c:443:34
	ldrsh.w	r1, [sp, #24]
	.loc	2 443 45                        @ lvgl/src/lv_draw/lv_draw_label.c:443:45
	ldr	r3, [sp, #60]
	.loc	2 443 56                        @ lvgl/src/lv_draw/lv_draw_label.c:443:56
	ldr	r2, [sp, #20]
	.loc	2 443 70                        @ lvgl/src/lv_draw/lv_draw_label.c:443:70
	ldrb.w	r4, [sp, #51]
	.loc	2 443 75                        @ lvgl/src/lv_draw/lv_draw_label.c:443:75
	ldrb.w	r5, [sp, #50]
	.loc	2 443 9                         @ lvgl/src/lv_draw/lv_draw_label.c:443:9
	ldr.w	lr, [sp, #68]
	mov	r12, sp
	str.w	r5, [r12, #12]
	str.w	r4, [r12, #8]
	str.w	lr, [r12, #4]
	str.w	r2, [r12]
	add	r2, sp, #36
	bl	draw_letter_subpx
	.loc	2 444 5 is_stmt 1               @ lvgl/src/lv_draw/lv_draw_label.c:444:5
	b	.LBB7_23
.Ltmp167:
.LBB7_22:
	.loc	2 446 28                        @ lvgl/src/lv_draw/lv_draw_label.c:446:28
	ldrsh.w	r0, [sp, #28]
	.loc	2 446 35 is_stmt 0              @ lvgl/src/lv_draw/lv_draw_label.c:446:35
	ldrsh.w	r1, [sp, #24]
	.loc	2 446 46                        @ lvgl/src/lv_draw/lv_draw_label.c:446:46
	ldr	r3, [sp, #60]
	.loc	2 446 57                        @ lvgl/src/lv_draw/lv_draw_label.c:446:57
	ldr	r2, [sp, #20]
	.loc	2 446 71                        @ lvgl/src/lv_draw/lv_draw_label.c:446:71
	ldrb.w	r4, [sp, #51]
	.loc	2 446 76                        @ lvgl/src/lv_draw/lv_draw_label.c:446:76
	ldrb.w	r5, [sp, #50]
	.loc	2 446 9                         @ lvgl/src/lv_draw/lv_draw_label.c:446:9
	ldr.w	lr, [sp, #68]
	mov	r12, sp
	str.w	r5, [r12, #12]
	str.w	r4, [r12, #8]
	str.w	lr, [r12, #4]
	str.w	r2, [r12]
	add	r2, sp, #36
	bl	draw_letter_normal
	b	.LBB7_23
.Ltmp168:
.LBB7_23:
	.loc	2 448 1 is_stmt 1               @ lvgl/src/lv_draw/lv_draw_label.c:448:1
	add	sp, #72
	pop	{r4, r5, r7, pc}
.Ltmp169:
.Lfunc_end7:
	.size	lv_draw_letter, .Lfunc_end7-lv_draw_letter
	.cfi_endproc
	.cantunwind
	.fnend
                                        @ -- End function
	.section	.text.draw_letter_subpx,"ax",%progbits
	.p2align	3                               @ -- Begin function draw_letter_subpx
	.type	draw_letter_subpx,%function
	.code	16                              @ @draw_letter_subpx
	.thumb_func
draw_letter_subpx:
.Lfunc_begin8:
	.loc	2 607 0                         @ lvgl/src/lv_draw/lv_draw_label.c:607:0
	.fnstart
	.cfi_startproc
@ %bb.0:
	.save	{r4, r5, r7, lr}
	push	{r4, r5, r7, lr}
	.cfi_def_cfa_offset 16
	.cfi_offset lr, -4
	.cfi_offset r7, -8
	.cfi_offset r5, -12
	.cfi_offset r4, -16
	.pad	#208
	sub	sp, #208
	.cfi_def_cfa_offset 224
	mov	r12, r1
	mov	lr, r0
	ldr	r0, [sp, #236]
	ldr	r1, [sp, #232]
	ldr	r4, [sp, #228]
	ldr	r5, [sp, #224]
                                        @ kill: def $r5 killed $r12
                                        @ kill: def $r5 killed $lr
	str	r4, [sp, #204]
	strh.w	lr, [sp, #202]
	strh.w	r12, [sp, #200]
	str	r2, [sp, #196]
	str	r3, [sp, #192]
	strb.w	r1, [sp, #191]
	strb.w	r0, [sp, #190]
.Ltmp170:
	.loc	2 612 20 prologue_end           @ lvgl/src/lv_draw/lv_draw_label.c:612:20
	ldr	r0, [sp, #196]
	.loc	2 612 23 is_stmt 0              @ lvgl/src/lv_draw/lv_draw_label.c:612:23
	ldrb	r0, [r0, #10]
	.loc	2 612 14                        @ lvgl/src/lv_draw/lv_draw_label.c:612:14
	str	r0, [sp, #172]
.Ltmp171:
	.loc	2 613 8 is_stmt 1               @ lvgl/src/lv_draw/lv_draw_label.c:613:8
	ldr	r0, [sp, #172]
.Ltmp172:
	.loc	2 613 8 is_stmt 0               @ lvgl/src/lv_draw/lv_draw_label.c:613:8
	cmp	r0, #3
	bne	.LBB8_2
	b	.LBB8_1
.LBB8_1:
	.loc	2 0 8                           @ lvgl/src/lv_draw/lv_draw_label.c:0:8
	movs	r0, #4
.Ltmp173:
	.loc	2 613 22                        @ lvgl/src/lv_draw/lv_draw_label.c:613:22
	str	r0, [sp, #172]
	.loc	2 613 18                        @ lvgl/src/lv_draw/lv_draw_label.c:613:18
	b	.LBB8_2
.Ltmp174:
.LBB8_2:
	.loc	2 615 12 is_stmt 1              @ lvgl/src/lv_draw/lv_draw_label.c:615:12
	ldr	r0, [sp, #172]
	.loc	2 615 5 is_stmt 0               @ lvgl/src/lv_draw/lv_draw_label.c:615:5
	subs	r0, #1
	mov	r1, r0
	str	r1, [sp, #56]                   @ 4-byte Spill
	cmp	r0, #7
	bhi	.LBB8_9
@ %bb.3:
	.loc	2 0 5                           @ lvgl/src/lv_draw/lv_draw_label.c:0:5
	ldr	r1, [sp, #56]                   @ 4-byte Reload
.LCPI8_0:
	tbb	[pc, r1]
@ %bb.4:
.LJTI8_0:
	.byte	(.LBB8_5-(.LCPI8_0+4))/2
	.byte	(.LBB8_6-(.LCPI8_0+4))/2
	.byte	(.LBB8_9-(.LCPI8_0+4))/2
	.byte	(.LBB8_7-(.LCPI8_0+4))/2
	.byte	(.LBB8_9-(.LCPI8_0+4))/2
	.byte	(.LBB8_9-(.LCPI8_0+4))/2
	.byte	(.LBB8_9-(.LCPI8_0+4))/2
	.byte	(.LBB8_8-(.LCPI8_0+4))/2
	.p2align	1
.LBB8_5:
.Ltmp175:
	.loc	2 617 27 is_stmt 1              @ lvgl/src/lv_draw/lv_draw_label.c:617:27
	movw	r0, :lower16:_lv_bpp1_opa_table
	movt	r0, :upper16:_lv_bpp1_opa_table
	str	r0, [sp, #184]
	movs	r0, #128
	.loc	2 618 27                        @ lvgl/src/lv_draw/lv_draw_label.c:618:27
	str	r0, [sp, #180]
	.loc	2 619 13                        @ lvgl/src/lv_draw/lv_draw_label.c:619:13
	b	.LBB8_10
.LBB8_6:
	.loc	2 621 27                        @ lvgl/src/lv_draw/lv_draw_label.c:621:27
	movw	r0, :lower16:_lv_bpp2_opa_table
	movt	r0, :upper16:_lv_bpp2_opa_table
	str	r0, [sp, #184]
	movs	r0, #192
	.loc	2 622 27                        @ lvgl/src/lv_draw/lv_draw_label.c:622:27
	str	r0, [sp, #180]
	.loc	2 623 13                        @ lvgl/src/lv_draw/lv_draw_label.c:623:13
	b	.LBB8_10
.LBB8_7:
	.loc	2 625 27                        @ lvgl/src/lv_draw/lv_draw_label.c:625:27
	movw	r0, :lower16:_lv_bpp4_opa_table
	movt	r0, :upper16:_lv_bpp4_opa_table
	str	r0, [sp, #184]
	movs	r0, #240
	.loc	2 626 27                        @ lvgl/src/lv_draw/lv_draw_label.c:626:27
	str	r0, [sp, #180]
	.loc	2 627 13                        @ lvgl/src/lv_draw/lv_draw_label.c:627:13
	b	.LBB8_10
.LBB8_8:
	.loc	2 629 27                        @ lvgl/src/lv_draw/lv_draw_label.c:629:27
	movw	r0, :lower16:_lv_bpp8_opa_table
	movt	r0, :upper16:_lv_bpp8_opa_table
	str	r0, [sp, #184]
	movs	r0, #255
	.loc	2 630 27                        @ lvgl/src/lv_draw/lv_draw_label.c:630:27
	str	r0, [sp, #180]
	.loc	2 631 13                        @ lvgl/src/lv_draw/lv_draw_label.c:631:13
	b	.LBB8_10
.LBB8_9:
	.loc	2 634 13                        @ lvgl/src/lv_draw/lv_draw_label.c:634:13
	b	.LBB8_65
.Ltmp176:
.LBB8_10:
	.loc	2 639 21                        @ lvgl/src/lv_draw/lv_draw_label.c:639:21
	ldr	r0, [sp, #196]
	.loc	2 639 24 is_stmt 0              @ lvgl/src/lv_draw/lv_draw_label.c:639:24
	ldrh	r0, [r0, #2]
	.loc	2 639 13                        @ lvgl/src/lv_draw/lv_draw_label.c:639:13
	str	r0, [sp, #160]
	.loc	2 640 21 is_stmt 1              @ lvgl/src/lv_draw/lv_draw_label.c:640:21
	ldr	r0, [sp, #196]
	.loc	2 640 24 is_stmt 0              @ lvgl/src/lv_draw/lv_draw_label.c:640:24
	ldrh	r0, [r0, #4]
	.loc	2 640 13                        @ lvgl/src/lv_draw/lv_draw_label.c:640:13
	str	r0, [sp, #156]
	.loc	2 641 25 is_stmt 1              @ lvgl/src/lv_draw/lv_draw_label.c:641:25
	ldr	r0, [sp, #160]
	.loc	2 641 33 is_stmt 0              @ lvgl/src/lv_draw/lv_draw_label.c:641:33
	ldr	r1, [sp, #172]
	.loc	2 641 31                        @ lvgl/src/lv_draw/lv_draw_label.c:641:31
	muls	r0, r1, r0
	.loc	2 641 13                        @ lvgl/src/lv_draw/lv_draw_label.c:641:13
	str	r0, [sp, #152]
	.loc	2 644 25 is_stmt 1              @ lvgl/src/lv_draw/lv_draw_label.c:644:25
	ldrsh.w	r0, [sp, #202]
	.loc	2 644 34 is_stmt 0              @ lvgl/src/lv_draw/lv_draw_label.c:644:34
	ldr	r1, [sp, #192]
	.loc	2 644 45                        @ lvgl/src/lv_draw/lv_draw_label.c:644:45
	ldrsh.w	r1, [r1]
	.loc	2 644 25                        @ lvgl/src/lv_draw/lv_draw_label.c:644:25
	cmp	r0, r1
	blt	.LBB8_12
	b	.LBB8_11
.LBB8_11:
	.loc	2 0 25                          @ lvgl/src/lv_draw/lv_draw_label.c:0:25
	movs	r0, #0
	.loc	2 644 25                        @ lvgl/src/lv_draw/lv_draw_label.c:644:25
	str	r0, [sp, #52]                   @ 4-byte Spill
	b	.LBB8_13
.LBB8_12:
	.loc	2 644 55                        @ lvgl/src/lv_draw/lv_draw_label.c:644:55
	ldr	r0, [sp, #192]
	.loc	2 644 66                        @ lvgl/src/lv_draw/lv_draw_label.c:644:66
	ldrsh.w	r0, [r0]
	.loc	2 644 71                        @ lvgl/src/lv_draw/lv_draw_label.c:644:71
	ldrsh.w	r1, [sp, #202]
	.loc	2 644 69                        @ lvgl/src/lv_draw/lv_draw_label.c:644:69
	subs	r0, r0, r1
	.loc	2 644 78                        @ lvgl/src/lv_draw/lv_draw_label.c:644:78
	add.w	r0, r0, r0, lsl #1
	.loc	2 644 25                        @ lvgl/src/lv_draw/lv_draw_label.c:644:25
	str	r0, [sp, #52]                   @ 4-byte Spill
	b	.LBB8_13
.LBB8_13:
	ldr	r0, [sp, #52]                   @ 4-byte Reload
	.loc	2 644 13                        @ lvgl/src/lv_draw/lv_draw_label.c:644:13
	str	r0, [sp, #148]
	.loc	2 645 25 is_stmt 1              @ lvgl/src/lv_draw/lv_draw_label.c:645:25
	ldrsh.w	r0, [sp, #202]
	.loc	2 645 33 is_stmt 0              @ lvgl/src/lv_draw/lv_draw_label.c:645:33
	ldr	r1, [sp, #160]
	movw	r2, #21846
	movt	r2, #21845
	.loc	2 645 39                        @ lvgl/src/lv_draw/lv_draw_label.c:645:39
	smmul	r1, r1, r2
	add.w	r1, r1, r1, lsr #31
	.loc	2 645 31                        @ lvgl/src/lv_draw/lv_draw_label.c:645:31
	add	r0, r1
	.loc	2 645 46                        @ lvgl/src/lv_draw/lv_draw_label.c:645:46
	ldr	r1, [sp, #192]
	.loc	2 645 57                        @ lvgl/src/lv_draw/lv_draw_label.c:645:57
	ldrsh.w	r1, [r1, #4]
	.loc	2 645 25                        @ lvgl/src/lv_draw/lv_draw_label.c:645:25
	cmp	r0, r1
	bgt	.LBB8_15
	b	.LBB8_14
.LBB8_14:
	.loc	2 645 62                        @ lvgl/src/lv_draw/lv_draw_label.c:645:62
	ldr	r0, [sp, #160]
	.loc	2 645 25                        @ lvgl/src/lv_draw/lv_draw_label.c:645:25
	str	r0, [sp, #48]                   @ 4-byte Spill
	b	.LBB8_16
.LBB8_15:
	.loc	2 645 71                        @ lvgl/src/lv_draw/lv_draw_label.c:645:71
	ldr	r0, [sp, #192]
	.loc	2 645 82                        @ lvgl/src/lv_draw/lv_draw_label.c:645:82
	ldrsh.w	r0, [r0, #4]
	.loc	2 645 87                        @ lvgl/src/lv_draw/lv_draw_label.c:645:87
	ldrsh.w	r1, [sp, #202]
	.loc	2 645 85                        @ lvgl/src/lv_draw/lv_draw_label.c:645:85
	subs	r0, r0, r1
	.loc	2 645 93                        @ lvgl/src/lv_draw/lv_draw_label.c:645:93
	add.w	r0, r0, r0, lsl #1
	.loc	2 645 98                        @ lvgl/src/lv_draw/lv_draw_label.c:645:98
	adds	r0, #3
	.loc	2 645 25                        @ lvgl/src/lv_draw/lv_draw_label.c:645:25
	str	r0, [sp, #48]                   @ 4-byte Spill
	b	.LBB8_16
.LBB8_16:
	ldr	r0, [sp, #48]                   @ 4-byte Reload
	.loc	2 645 13                        @ lvgl/src/lv_draw/lv_draw_label.c:645:13
	str	r0, [sp, #144]
	.loc	2 646 25 is_stmt 1              @ lvgl/src/lv_draw/lv_draw_label.c:646:25
	ldrsh.w	r0, [sp, #200]
	.loc	2 646 34 is_stmt 0              @ lvgl/src/lv_draw/lv_draw_label.c:646:34
	ldr	r1, [sp, #192]
	.loc	2 646 45                        @ lvgl/src/lv_draw/lv_draw_label.c:646:45
	ldrsh.w	r1, [r1, #2]
	.loc	2 646 25                        @ lvgl/src/lv_draw/lv_draw_label.c:646:25
	cmp	r0, r1
	blt	.LBB8_18
	b	.LBB8_17
.LBB8_17:
	.loc	2 0 25                          @ lvgl/src/lv_draw/lv_draw_label.c:0:25
	movs	r0, #0
	.loc	2 646 25                        @ lvgl/src/lv_draw/lv_draw_label.c:646:25
	str	r0, [sp, #44]                   @ 4-byte Spill
	b	.LBB8_19
.LBB8_18:
	.loc	2 646 54                        @ lvgl/src/lv_draw/lv_draw_label.c:646:54
	ldr	r0, [sp, #192]
	.loc	2 646 65                        @ lvgl/src/lv_draw/lv_draw_label.c:646:65
	ldrsh.w	r0, [r0, #2]
	.loc	2 646 70                        @ lvgl/src/lv_draw/lv_draw_label.c:646:70
	ldrsh.w	r1, [sp, #200]
	.loc	2 646 68                        @ lvgl/src/lv_draw/lv_draw_label.c:646:68
	subs	r0, r0, r1
	.loc	2 646 25                        @ lvgl/src/lv_draw/lv_draw_label.c:646:25
	str	r0, [sp, #44]                   @ 4-byte Spill
	b	.LBB8_19
.LBB8_19:
	ldr	r0, [sp, #44]                   @ 4-byte Reload
	.loc	2 646 13                        @ lvgl/src/lv_draw/lv_draw_label.c:646:13
	str	r0, [sp, #140]
	.loc	2 647 25 is_stmt 1              @ lvgl/src/lv_draw/lv_draw_label.c:647:25
	ldrsh.w	r0, [sp, #200]
	.loc	2 647 33 is_stmt 0              @ lvgl/src/lv_draw/lv_draw_label.c:647:33
	ldr	r1, [sp, #156]
	.loc	2 647 31                        @ lvgl/src/lv_draw/lv_draw_label.c:647:31
	add	r0, r1
	.loc	2 647 42                        @ lvgl/src/lv_draw/lv_draw_label.c:647:42
	ldr	r1, [sp, #192]
	.loc	2 647 53                        @ lvgl/src/lv_draw/lv_draw_label.c:647:53
	ldrsh.w	r1, [r1, #6]
	.loc	2 647 25                        @ lvgl/src/lv_draw/lv_draw_label.c:647:25
	cmp	r0, r1
	bgt	.LBB8_21
	b	.LBB8_20
.LBB8_20:
	.loc	2 647 58                        @ lvgl/src/lv_draw/lv_draw_label.c:647:58
	ldr	r0, [sp, #156]
	.loc	2 647 25                        @ lvgl/src/lv_draw/lv_draw_label.c:647:25
	str	r0, [sp, #40]                   @ 4-byte Spill
	b	.LBB8_22
.LBB8_21:
	.loc	2 647 66                        @ lvgl/src/lv_draw/lv_draw_label.c:647:66
	ldr	r0, [sp, #192]
	.loc	2 647 77                        @ lvgl/src/lv_draw/lv_draw_label.c:647:77
	ldrsh.w	r0, [r0, #6]
	.loc	2 647 82                        @ lvgl/src/lv_draw/lv_draw_label.c:647:82
	ldrsh.w	r1, [sp, #200]
	.loc	2 647 80                        @ lvgl/src/lv_draw/lv_draw_label.c:647:80
	subs	r0, r0, r1
	.loc	2 647 88                        @ lvgl/src/lv_draw/lv_draw_label.c:647:88
	adds	r0, #1
	.loc	2 647 25                        @ lvgl/src/lv_draw/lv_draw_label.c:647:25
	str	r0, [sp, #40]                   @ 4-byte Spill
	b	.LBB8_22
.LBB8_22:
	ldr	r0, [sp, #40]                   @ 4-byte Reload
	.loc	2 647 13                        @ lvgl/src/lv_draw/lv_draw_label.c:647:13
	str	r0, [sp, #136]
	.loc	2 650 24 is_stmt 1              @ lvgl/src/lv_draw/lv_draw_label.c:650:24
	ldr	r0, [sp, #140]
	.loc	2 650 36 is_stmt 0              @ lvgl/src/lv_draw/lv_draw_label.c:650:36
	ldr	r1, [sp, #152]
	.loc	2 650 50                        @ lvgl/src/lv_draw/lv_draw_label.c:650:50
	ldr	r2, [sp, #148]
	.loc	2 650 62                        @ lvgl/src/lv_draw/lv_draw_label.c:650:62
	ldr	r3, [sp, #172]
	.loc	2 650 60                        @ lvgl/src/lv_draw/lv_draw_label.c:650:60
	muls	r2, r3, r2
	.loc	2 650 47                        @ lvgl/src/lv_draw/lv_draw_label.c:650:47
	mla	r0, r0, r1, r2
	.loc	2 650 13                        @ lvgl/src/lv_draw/lv_draw_label.c:650:13
	str	r0, [sp, #132]
	.loc	2 651 14 is_stmt 1              @ lvgl/src/lv_draw/lv_draw_label.c:651:14
	ldr	r1, [sp, #132]
	.loc	2 651 11 is_stmt 0              @ lvgl/src/lv_draw/lv_draw_label.c:651:11
	ldr	r0, [sp, #224]
	add.w	r0, r0, r1, asr #3
	str	r0, [sp, #224]
	.loc	2 656 15 is_stmt 1              @ lvgl/src/lv_draw/lv_draw_label.c:656:15
	ldr	r0, [sp, #132]
	.loc	2 656 23 is_stmt 0              @ lvgl/src/lv_draw/lv_draw_label.c:656:23
	and	r0, r0, #7
	.loc	2 656 13                        @ lvgl/src/lv_draw/lv_draw_label.c:656:13
	str	r0, [sp, #124]
	.loc	2 658 29 is_stmt 1              @ lvgl/src/lv_draw/lv_draw_label.c:658:29
	ldr	r0, [sp, #160]
	.loc	2 658 37 is_stmt 0              @ lvgl/src/lv_draw/lv_draw_label.c:658:37
	ldr	r1, [sp, #156]
	.loc	2 658 35                        @ lvgl/src/lv_draw/lv_draw_label.c:658:35
	muls	r0, r1, r0
	.loc	2 658 29                        @ lvgl/src/lv_draw/lv_draw_label.c:658:29
	cmp.w	r0, #480
	ble	.LBB8_24
	b	.LBB8_23
.LBB8_23:
	.loc	2 0 29                          @ lvgl/src/lv_draw/lv_draw_label.c:0:29
	mov.w	r0, #480
	.loc	2 658 29                        @ lvgl/src/lv_draw/lv_draw_label.c:658:29
	str	r0, [sp, #36]                   @ 4-byte Spill
	b	.LBB8_25
.LBB8_24:
	.loc	2 658 79                        @ lvgl/src/lv_draw/lv_draw_label.c:658:79
	ldr	r1, [sp, #196]
	.loc	2 658 82                        @ lvgl/src/lv_draw/lv_draw_label.c:658:82
	ldrh	r0, [r1, #2]
	.loc	2 658 93                        @ lvgl/src/lv_draw/lv_draw_label.c:658:93
	ldrh	r1, [r1, #4]
	.loc	2 658 88                        @ lvgl/src/lv_draw/lv_draw_label.c:658:88
	muls	r0, r1, r0
	.loc	2 658 29                        @ lvgl/src/lv_draw/lv_draw_label.c:658:29
	str	r0, [sp, #36]                   @ 4-byte Spill
	b	.LBB8_25
.LBB8_25:
	ldr	r0, [sp, #36]                   @ 4-byte Reload
	.loc	2 658 13                        @ lvgl/src/lv_draw/lv_draw_label.c:658:13
	str	r0, [sp, #120]
	.loc	2 659 43 is_stmt 1              @ lvgl/src/lv_draw/lv_draw_label.c:659:43
	ldr	r0, [sp, #120]
	.loc	2 659 27 is_stmt 0              @ lvgl/src/lv_draw/lv_draw_label.c:659:27
	bl	_lv_mem_buf_get
	.loc	2 659 16                        @ lvgl/src/lv_draw/lv_draw_label.c:659:16
	str	r0, [sp, #116]
	movs	r0, #0
	.loc	2 660 13 is_stmt 1              @ lvgl/src/lv_draw/lv_draw_label.c:660:13
	str	r0, [sp, #112]
	.loc	2 662 46                        @ lvgl/src/lv_draw/lv_draw_label.c:662:46
	ldr	r0, [sp, #120]
	.loc	2 662 60 is_stmt 0              @ lvgl/src/lv_draw/lv_draw_label.c:662:60
	lsls	r0, r0, #2
	.loc	2 662 30                        @ lvgl/src/lv_draw/lv_draw_label.c:662:30
	bl	_lv_mem_buf_get
	.loc	2 662 18                        @ lvgl/src/lv_draw/lv_draw_label.c:662:18
	str	r0, [sp, #108]
	.loc	2 664 27 is_stmt 1              @ lvgl/src/lv_draw/lv_draw_label.c:664:27
	bl	_lv_refr_get_disp_refreshing
	.loc	2 664 17 is_stmt 0              @ lvgl/src/lv_draw/lv_draw_label.c:664:17
	str	r0, [sp, #104]
	.loc	2 665 43 is_stmt 1              @ lvgl/src/lv_draw/lv_draw_label.c:665:43
	ldr	r0, [sp, #104]
	.loc	2 665 27 is_stmt 0              @ lvgl/src/lv_draw/lv_draw_label.c:665:27
	bl	lv_disp_get_buf
	.loc	2 665 21                        @ lvgl/src/lv_draw/lv_draw_label.c:665:21
	str	r0, [sp, #100]
	.loc	2 667 48 is_stmt 1              @ lvgl/src/lv_draw/lv_draw_label.c:667:48
	ldr	r0, [sp, #100]
	.loc	2 667 53 is_stmt 0              @ lvgl/src/lv_draw/lv_draw_label.c:667:53
	adds	r0, #16
	.loc	2 667 29                        @ lvgl/src/lv_draw/lv_draw_label.c:667:29
	bl	lv_area_get_width
	.loc	2 667 13                        @ lvgl/src/lv_draw/lv_draw_label.c:667:13
	str	r0, [sp, #96]
	.loc	2 668 32 is_stmt 1              @ lvgl/src/lv_draw/lv_draw_label.c:668:32
	ldr	r0, [sp, #100]
	.loc	2 668 37 is_stmt 0              @ lvgl/src/lv_draw/lv_draw_label.c:668:37
	ldr	r0, [r0, #8]
	.loc	2 668 18                        @ lvgl/src/lv_draw/lv_draw_label.c:668:18
	str	r0, [sp, #92]
	.loc	2 671 22 is_stmt 1              @ lvgl/src/lv_draw/lv_draw_label.c:671:22
	ldrsh.w	r0, [sp, #200]
	.loc	2 671 30 is_stmt 0              @ lvgl/src/lv_draw/lv_draw_label.c:671:30
	ldr	r2, [sp, #100]
	.loc	2 671 77                        @ lvgl/src/lv_draw/lv_draw_label.c:671:77
	ldrsh.w	r1, [r2, #16]
	.loc	2 671 40                        @ lvgl/src/lv_draw/lv_draw_label.c:671:40
	ldrsh.w	r2, [r2, #18]
	.loc	2 671 28                        @ lvgl/src/lv_draw/lv_draw_label.c:671:28
	subs	r0, r0, r2
	.loc	2 671 46                        @ lvgl/src/lv_draw/lv_draw_label.c:671:46
	ldr	r2, [sp, #96]
	.loc	2 671 59                        @ lvgl/src/lv_draw/lv_draw_label.c:671:59
	ldrsh.w	r3, [sp, #202]
	.loc	2 671 57                        @ lvgl/src/lv_draw/lv_draw_label.c:671:57
	mla	r0, r0, r2, r3
	.loc	2 671 65                        @ lvgl/src/lv_draw/lv_draw_label.c:671:65
	subs	r1, r0, r1
	.loc	2 671 17                        @ lvgl/src/lv_draw/lv_draw_label.c:671:17
	ldr	r0, [sp, #92]
	add.w	r0, r0, r1, lsl #2
	str	r0, [sp, #92]
	.loc	2 674 21 is_stmt 1              @ lvgl/src/lv_draw/lv_draw_label.c:674:21
	ldr	r0, [sp, #140]
	.loc	2 674 33 is_stmt 0              @ lvgl/src/lv_draw/lv_draw_label.c:674:33
	ldr	r2, [sp, #96]
	.loc	2 674 46                        @ lvgl/src/lv_draw/lv_draw_label.c:674:46
	ldr	r3, [sp, #148]
	movw	r1, #21846
	movt	r1, #21845
	.loc	2 674 56                        @ lvgl/src/lv_draw/lv_draw_label.c:674:56
	smmul	r3, r3, r1
	add.w	r3, r3, r3, lsr #31
	.loc	2 674 44                        @ lvgl/src/lv_draw/lv_draw_label.c:674:44
	mla	r2, r0, r2, r3
	.loc	2 674 17                        @ lvgl/src/lv_draw/lv_draw_label.c:674:17
	ldr	r0, [sp, #92]
	add.w	r0, r0, r2, lsl #2
	str	r0, [sp, #92]
	.loc	2 677 19 is_stmt 1              @ lvgl/src/lv_draw/lv_draw_label.c:677:19
	ldr	r0, [sp, #148]
	.loc	2 677 29 is_stmt 0              @ lvgl/src/lv_draw/lv_draw_label.c:677:29
	smmul	r0, r0, r1
	add.w	r0, r0, r0, lsr #31
	.loc	2 677 35                        @ lvgl/src/lv_draw/lv_draw_label.c:677:35
	ldrh.w	r2, [sp, #202]
	.loc	2 677 33                        @ lvgl/src/lv_draw/lv_draw_label.c:677:33
	add	r0, r2
	.loc	2 677 17                        @ lvgl/src/lv_draw/lv_draw_label.c:677:17
	strh.w	r0, [sp, #84]
	.loc	2 678 19 is_stmt 1              @ lvgl/src/lv_draw/lv_draw_label.c:678:19
	ldr	r0, [sp, #144]
	.loc	2 678 27 is_stmt 0              @ lvgl/src/lv_draw/lv_draw_label.c:678:27
	smmul	r0, r0, r1
	add.w	r0, r0, r0, lsr #31
	.loc	2 678 34                        @ lvgl/src/lv_draw/lv_draw_label.c:678:34
	ldrh.w	r1, [sp, #202]
	.loc	2 678 32                        @ lvgl/src/lv_draw/lv_draw_label.c:678:32
	add	r0, r1
	.loc	2 678 40                        @ lvgl/src/lv_draw/lv_draw_label.c:678:40
	subs	r0, #1
	.loc	2 678 17                        @ lvgl/src/lv_draw/lv_draw_label.c:678:17
	strh.w	r0, [sp, #88]
	.loc	2 679 19 is_stmt 1              @ lvgl/src/lv_draw/lv_draw_label.c:679:19
	ldr	r0, [sp, #140]
	.loc	2 679 31 is_stmt 0              @ lvgl/src/lv_draw/lv_draw_label.c:679:31
	ldrh.w	r1, [sp, #200]
	.loc	2 679 29                        @ lvgl/src/lv_draw/lv_draw_label.c:679:29
	add	r0, r1
	.loc	2 679 17                        @ lvgl/src/lv_draw/lv_draw_label.c:679:17
	strh.w	r0, [sp, #86]
	.loc	2 680 28 is_stmt 1              @ lvgl/src/lv_draw/lv_draw_label.c:680:28
	ldrh.w	r0, [sp, #86]
	.loc	2 680 17 is_stmt 0              @ lvgl/src/lv_draw/lv_draw_label.c:680:17
	strh.w	r0, [sp, #90]
	.loc	2 682 30 is_stmt 1              @ lvgl/src/lv_draw/lv_draw_label.c:682:30
	bl	lv_draw_mask_get_cnt
	.loc	2 682 13 is_stmt 0              @ lvgl/src/lv_draw/lv_draw_label.c:682:13
	strb.w	r0, [sp, #83]
	.loc	2 687 36 is_stmt 1              @ lvgl/src/lv_draw/lv_draw_label.c:687:36
	ldrb.w	r0, [sp, #206]
	.loc	2 687 26 is_stmt 0              @ lvgl/src/lv_draw/lv_draw_label.c:687:26
	strb.w	r0, [sp, #77]
	.loc	2 687 50                        @ lvgl/src/lv_draw/lv_draw_label.c:687:50
	ldrb.w	r0, [sp, #205]
	.loc	2 687 26                        @ lvgl/src/lv_draw/lv_draw_label.c:687:26
	strb.w	r0, [sp, #78]
	.loc	2 687 66                        @ lvgl/src/lv_draw/lv_draw_label.c:687:66
	ldrb.w	r0, [sp, #204]
	.loc	2 687 26                        @ lvgl/src/lv_draw/lv_draw_label.c:687:26
	strb.w	r0, [sp, #79]
.Ltmp177:
	.loc	2 692 15 is_stmt 1              @ lvgl/src/lv_draw/lv_draw_label.c:692:15
	ldr	r0, [sp, #140]
	.loc	2 692 13 is_stmt 0              @ lvgl/src/lv_draw/lv_draw_label.c:692:13
	str	r0, [sp, #164]
	.loc	2 692 9                         @ lvgl/src/lv_draw/lv_draw_label.c:692:9
	b	.LBB8_26
.LBB8_26:                               @ =>This Loop Header: Depth=1
                                        @     Child Loop BB8_28 Depth 2
.Ltmp178:
	.loc	2 692 27                        @ lvgl/src/lv_draw/lv_draw_label.c:692:27
	ldr	r0, [sp, #164]
	.loc	2 692 33                        @ lvgl/src/lv_draw/lv_draw_label.c:692:33
	ldr	r1, [sp, #136]
.Ltmp179:
	.loc	2 692 5                         @ lvgl/src/lv_draw/lv_draw_label.c:692:5
	cmp	r0, r1
	bge.w	.LBB8_62
	b	.LBB8_27
.LBB8_27:                               @   in Loop: Header=BB8_26 Depth=1
	.loc	2 0 5                           @ lvgl/src/lv_draw/lv_draw_label.c:0:5
	movs	r0, #0
.Ltmp180:
	.loc	2 693 18 is_stmt 1              @ lvgl/src/lv_draw/lv_draw_label.c:693:18
	str	r0, [sp, #72]
	.loc	2 694 19                        @ lvgl/src/lv_draw/lv_draw_label.c:694:19
	ldr	r0, [sp, #180]
	.loc	2 694 35 is_stmt 0              @ lvgl/src/lv_draw/lv_draw_label.c:694:35
	ldr	r1, [sp, #124]
	.loc	2 694 32                        @ lvgl/src/lv_draw/lv_draw_label.c:694:32
	lsrs	r0, r1
	.loc	2 694 17                        @ lvgl/src/lv_draw/lv_draw_label.c:694:17
	str	r0, [sp, #176]
	.loc	2 695 32 is_stmt 1              @ lvgl/src/lv_draw/lv_draw_label.c:695:32
	ldr	r0, [sp, #112]
	.loc	2 695 17 is_stmt 0              @ lvgl/src/lv_draw/lv_draw_label.c:695:17
	str	r0, [sp, #68]
.Ltmp181:
	.loc	2 697 19 is_stmt 1              @ lvgl/src/lv_draw/lv_draw_label.c:697:19
	ldr	r0, [sp, #148]
	.loc	2 697 17 is_stmt 0              @ lvgl/src/lv_draw/lv_draw_label.c:697:17
	str	r0, [sp, #168]
	.loc	2 697 13                        @ lvgl/src/lv_draw/lv_draw_label.c:697:13
	b	.LBB8_28
.LBB8_28:                               @   Parent Loop BB8_26 Depth=1
                                        @ =>  This Inner Loop Header: Depth=2
.Ltmp182:
	.loc	2 697 30                        @ lvgl/src/lv_draw/lv_draw_label.c:697:30
	ldr	r0, [sp, #168]
	.loc	2 697 36                        @ lvgl/src/lv_draw/lv_draw_label.c:697:36
	ldr	r1, [sp, #144]
.Ltmp183:
	.loc	2 697 9                         @ lvgl/src/lv_draw/lv_draw_label.c:697:9
	cmp	r0, r1
	bge.w	.LBB8_53
	b	.LBB8_29
.LBB8_29:                               @   in Loop: Header=BB8_28 Depth=2
.Ltmp184:
	.loc	2 699 27 is_stmt 1              @ lvgl/src/lv_draw/lv_draw_label.c:699:27
	ldr	r0, [sp, #224]
	.loc	2 699 26 is_stmt 0              @ lvgl/src/lv_draw/lv_draw_label.c:699:26
	ldrb	r0, [r0]
	.loc	2 699 35                        @ lvgl/src/lv_draw/lv_draw_label.c:699:35
	ldr	r1, [sp, #176]
	.loc	2 699 33                        @ lvgl/src/lv_draw/lv_draw_label.c:699:33
	ands	r0, r1
	.loc	2 699 52                        @ lvgl/src/lv_draw/lv_draw_label.c:699:52
	ldr	r1, [sp, #124]
	.loc	2 699 62                        @ lvgl/src/lv_draw/lv_draw_label.c:699:62
	ldr	r2, [sp, #172]
	.loc	2 699 60                        @ lvgl/src/lv_draw/lv_draw_label.c:699:60
	add	r1, r2
	rsb.w	r1, r1, #8
	.loc	2 699 44                        @ lvgl/src/lv_draw/lv_draw_label.c:699:44
	lsrs	r0, r1
	.loc	2 699 23                        @ lvgl/src/lv_draw/lv_draw_label.c:699:23
	strb.w	r0, [sp, #131]
.Ltmp185:
	.loc	2 700 16 is_stmt 1              @ lvgl/src/lv_draw/lv_draw_label.c:700:16
	ldrb.w	r0, [sp, #131]
.Ltmp186:
	.loc	2 700 16 is_stmt 0              @ lvgl/src/lv_draw/lv_draw_label.c:700:16
	cbz	r0, .LBB8_40
	b	.LBB8_30
.LBB8_30:                               @   in Loop: Header=BB8_28 Depth=2
.Ltmp187:
	.loc	2 701 20 is_stmt 1              @ lvgl/src/lv_draw/lv_draw_label.c:701:20
	ldrb.w	r0, [sp, #191]
.Ltmp188:
	.loc	2 701 20 is_stmt 0              @ lvgl/src/lv_draw/lv_draw_label.c:701:20
	cmp	r0, #255
	bne	.LBB8_35
	b	.LBB8_31
.LBB8_31:                               @   in Loop: Header=BB8_28 Depth=2
.Ltmp189:
	.loc	2 702 30 is_stmt 1              @ lvgl/src/lv_draw/lv_draw_label.c:702:30
	ldr	r0, [sp, #172]
	cmp	r0, #8
	bne	.LBB8_33
	b	.LBB8_32
.LBB8_32:                               @   in Loop: Header=BB8_28 Depth=2
	.loc	2 702 41 is_stmt 0              @ lvgl/src/lv_draw/lv_draw_label.c:702:41
	ldrb.w	r0, [sp, #131]
	.loc	2 702 30                        @ lvgl/src/lv_draw/lv_draw_label.c:702:30
	str	r0, [sp, #32]                   @ 4-byte Spill
	b	.LBB8_34
.LBB8_33:                               @   in Loop: Header=BB8_28 Depth=2
	.loc	2 702 53                        @ lvgl/src/lv_draw/lv_draw_label.c:702:53
	ldr	r0, [sp, #184]
	.loc	2 702 67                        @ lvgl/src/lv_draw/lv_draw_label.c:702:67
	ldrb.w	r1, [sp, #131]
	.loc	2 702 53                        @ lvgl/src/lv_draw/lv_draw_label.c:702:53
	ldrb	r0, [r0, r1]
	.loc	2 702 30                        @ lvgl/src/lv_draw/lv_draw_label.c:702:30
	str	r0, [sp, #32]                   @ 4-byte Spill
	b	.LBB8_34
.LBB8_34:                               @   in Loop: Header=BB8_28 Depth=2
	ldr	r0, [sp, #32]                   @ 4-byte Reload
	.loc	2 702 28                        @ lvgl/src/lv_draw/lv_draw_label.c:702:28
	strb.w	r0, [sp, #130]
	.loc	2 703 17 is_stmt 1              @ lvgl/src/lv_draw/lv_draw_label.c:703:17
	b	.LBB8_39
.Ltmp190:
.LBB8_35:                               @   in Loop: Header=BB8_28 Depth=2
	.loc	2 705 30                        @ lvgl/src/lv_draw/lv_draw_label.c:705:30
	ldr	r0, [sp, #172]
	cmp	r0, #8
	bne	.LBB8_37
	b	.LBB8_36
.LBB8_36:                               @   in Loop: Header=BB8_28 Depth=2
	.loc	2 705 62 is_stmt 0              @ lvgl/src/lv_draw/lv_draw_label.c:705:62
	ldrb.w	r0, [sp, #131]
	.loc	2 705 74                        @ lvgl/src/lv_draw/lv_draw_label.c:705:74
	ldrb.w	r1, [sp, #191]
	.loc	2 705 72                        @ lvgl/src/lv_draw/lv_draw_label.c:705:72
	muls	r0, r1, r0
	.loc	2 705 79                        @ lvgl/src/lv_draw/lv_draw_label.c:705:79
	lsrs	r0, r0, #8
	.loc	2 705 30                        @ lvgl/src/lv_draw/lv_draw_label.c:705:30
	str	r0, [sp, #28]                   @ 4-byte Spill
	b	.LBB8_38
.LBB8_37:                               @   in Loop: Header=BB8_28 Depth=2
	.loc	2 706 53 is_stmt 1              @ lvgl/src/lv_draw/lv_draw_label.c:706:53
	ldr	r0, [sp, #184]
	.loc	2 706 67 is_stmt 0              @ lvgl/src/lv_draw/lv_draw_label.c:706:67
	ldrb.w	r1, [sp, #131]
	.loc	2 706 53                        @ lvgl/src/lv_draw/lv_draw_label.c:706:53
	ldrb	r0, [r0, r1]
	.loc	2 706 80                        @ lvgl/src/lv_draw/lv_draw_label.c:706:80
	ldrb.w	r1, [sp, #191]
	.loc	2 706 78                        @ lvgl/src/lv_draw/lv_draw_label.c:706:78
	muls	r0, r1, r0
	.loc	2 706 85                        @ lvgl/src/lv_draw/lv_draw_label.c:706:85
	lsrs	r0, r0, #8
	.loc	2 705 30 is_stmt 1              @ lvgl/src/lv_draw/lv_draw_label.c:705:30
	str	r0, [sp, #28]                   @ 4-byte Spill
	b	.LBB8_38
.LBB8_38:                               @   in Loop: Header=BB8_28 Depth=2
	ldr	r0, [sp, #28]                   @ 4-byte Reload
	.loc	2 705 28 is_stmt 0              @ lvgl/src/lv_draw/lv_draw_label.c:705:28
	strb.w	r0, [sp, #130]
	b	.LBB8_39
.Ltmp191:
.LBB8_39:                               @   in Loop: Header=BB8_28 Depth=2
	.loc	2 708 13 is_stmt 1              @ lvgl/src/lv_draw/lv_draw_label.c:708:13
	b	.LBB8_41
.Ltmp192:
.LBB8_40:                               @   in Loop: Header=BB8_28 Depth=2
	.loc	2 0 13 is_stmt 0                @ lvgl/src/lv_draw/lv_draw_label.c:0:13
	movs	r0, #0
.Ltmp193:
	.loc	2 710 24 is_stmt 1              @ lvgl/src/lv_draw/lv_draw_label.c:710:24
	strb.w	r0, [sp, #130]
	b	.LBB8_41
.Ltmp194:
.LBB8_41:                               @   in Loop: Header=BB8_28 Depth=2
	.loc	2 713 35                        @ lvgl/src/lv_draw/lv_draw_label.c:713:35
	ldrb.w	r0, [sp, #130]
	.loc	2 713 22 is_stmt 0              @ lvgl/src/lv_draw/lv_draw_label.c:713:22
	ldr	r2, [sp, #72]
	add	r1, sp, #80
	.loc	2 713 33                        @ lvgl/src/lv_draw/lv_draw_label.c:713:33
	strb	r0, [r1, r2]
	.loc	2 715 23 is_stmt 1              @ lvgl/src/lv_draw/lv_draw_label.c:715:23
	ldr	r0, [sp, #72]
	adds	r0, #1
	str	r0, [sp, #72]
.Ltmp195:
	.loc	2 716 16                        @ lvgl/src/lv_draw/lv_draw_label.c:716:16
	ldr	r0, [sp, #72]
.Ltmp196:
	.loc	2 716 16 is_stmt 0              @ lvgl/src/lv_draw/lv_draw_label.c:716:16
	cmp	r0, #3
	bne	.LBB8_48
	b	.LBB8_42
.LBB8_42:                               @   in Loop: Header=BB8_28 Depth=2
	.loc	2 0 16                          @ lvgl/src/lv_draw/lv_draw_label.c:0:16
	movs	r0, #0
.Ltmp197:
	.loc	2 717 27 is_stmt 1              @ lvgl/src/lv_draw/lv_draw_label.c:717:27
	str	r0, [sp, #72]
	.loc	2 721 38                        @ lvgl/src/lv_draw/lv_draw_label.c:721:38
	ldr	r0, [sp, #92]
	.loc	2 721 54 is_stmt 0              @ lvgl/src/lv_draw/lv_draw_label.c:721:54
	ldrb	r0, [r0, #2]
	.loc	2 721 37                        @ lvgl/src/lv_draw/lv_draw_label.c:721:37
	strb.w	r0, [sp, #61]
	.loc	2 721 59                        @ lvgl/src/lv_draw/lv_draw_label.c:721:59
	ldr	r0, [sp, #92]
	.loc	2 721 75                        @ lvgl/src/lv_draw/lv_draw_label.c:721:75
	ldrb	r0, [r0, #1]
	.loc	2 721 37                        @ lvgl/src/lv_draw/lv_draw_label.c:721:37
	strb.w	r0, [sp, #62]
	.loc	2 721 82                        @ lvgl/src/lv_draw/lv_draw_label.c:721:82
	ldr	r0, [sp, #92]
	.loc	2 721 98                        @ lvgl/src/lv_draw/lv_draw_label.c:721:98
	ldrb	r0, [r0]
	.loc	2 721 37                        @ lvgl/src/lv_draw/lv_draw_label.c:721:37
	strb.w	r0, [sp, #63]
	.loc	2 733 57 is_stmt 1              @ lvgl/src/lv_draw/lv_draw_label.c:733:57
	ldrb.w	r0, [sp, #77]
	.loc	2 733 70 is_stmt 0              @ lvgl/src/lv_draw/lv_draw_label.c:733:70
	ldrb.w	r1, [sp, #80]
	.loc	2 733 68                        @ lvgl/src/lv_draw/lv_draw_label.c:733:68
	mul	r2, r0, r1
	.loc	2 733 85                        @ lvgl/src/lv_draw/lv_draw_label.c:733:85
	ldrb.w	r0, [sp, #61]
	.loc	2 733 102                       @ lvgl/src/lv_draw/lv_draw_label.c:733:102
	rsb.w	r1, r1, #255
	.loc	2 733 82                        @ lvgl/src/lv_draw/lv_draw_label.c:733:82
	smlabb	r0, r0, r1, r2
	.loc	2 733 119                       @ lvgl/src/lv_draw/lv_draw_label.c:733:119
	lsrs	r0, r0, #8
	.loc	2 733 34                        @ lvgl/src/lv_draw/lv_draw_label.c:733:34
	strb.w	r0, [sp, #66]
	.loc	2 734 58 is_stmt 1              @ lvgl/src/lv_draw/lv_draw_label.c:734:58
	ldrb.w	r0, [sp, #79]
	.loc	2 734 71 is_stmt 0              @ lvgl/src/lv_draw/lv_draw_label.c:734:71
	ldrb.w	r1, [sp, #82]
	.loc	2 734 69                        @ lvgl/src/lv_draw/lv_draw_label.c:734:69
	mul	r2, r0, r1
	.loc	2 734 86                        @ lvgl/src/lv_draw/lv_draw_label.c:734:86
	ldrb.w	r0, [sp, #63]
	.loc	2 734 103                       @ lvgl/src/lv_draw/lv_draw_label.c:734:103
	rsb.w	r1, r1, #255
	.loc	2 734 83                        @ lvgl/src/lv_draw/lv_draw_label.c:734:83
	smlabb	r0, r0, r1, r2
	.loc	2 734 120                       @ lvgl/src/lv_draw/lv_draw_label.c:734:120
	lsrs	r0, r0, #8
	.loc	2 734 35                        @ lvgl/src/lv_draw/lv_draw_label.c:734:35
	strb.w	r0, [sp, #64]
	.loc	2 738 59 is_stmt 1              @ lvgl/src/lv_draw/lv_draw_label.c:738:59
	ldrb.w	r0, [sp, #78]
	.loc	2 738 72 is_stmt 0              @ lvgl/src/lv_draw/lv_draw_label.c:738:72
	ldrb.w	r1, [sp, #81]
	.loc	2 738 70                        @ lvgl/src/lv_draw/lv_draw_label.c:738:70
	mul	r2, r0, r1
	.loc	2 738 87                        @ lvgl/src/lv_draw/lv_draw_label.c:738:87
	ldrb.w	r0, [sp, #62]
	.loc	2 738 104                       @ lvgl/src/lv_draw/lv_draw_label.c:738:104
	rsb.w	r1, r1, #255
	.loc	2 738 84                        @ lvgl/src/lv_draw/lv_draw_label.c:738:84
	smlabb	r0, r0, r1, r2
	.loc	2 738 121                       @ lvgl/src/lv_draw/lv_draw_label.c:738:121
	lsrs	r0, r0, #8
	.loc	2 738 36                        @ lvgl/src/lv_draw/lv_draw_label.c:738:36
	strb.w	r0, [sp, #65]
	movs	r0, #255
	.loc	2 746 36 is_stmt 1              @ lvgl/src/lv_draw/lv_draw_label.c:746:36
	strb.w	r0, [sp, #67]
.Ltmp198:
	.loc	2 749 20                        @ lvgl/src/lv_draw/lv_draw_label.c:749:20
	ldrb.w	r0, [sp, #80]
	.loc	2 749 37 is_stmt 0              @ lvgl/src/lv_draw/lv_draw_label.c:749:37
	cbnz	r0, .LBB8_46
	b	.LBB8_43
.LBB8_43:                               @   in Loop: Header=BB8_28 Depth=2
	.loc	2 749 40                        @ lvgl/src/lv_draw/lv_draw_label.c:749:40
	ldrb.w	r0, [sp, #81]
	.loc	2 749 57                        @ lvgl/src/lv_draw/lv_draw_label.c:749:57
	cbnz	r0, .LBB8_46
	b	.LBB8_44
.LBB8_44:                               @   in Loop: Header=BB8_28 Depth=2
	.loc	2 749 60                        @ lvgl/src/lv_draw/lv_draw_label.c:749:60
	ldrb.w	r0, [sp, #82]
.Ltmp199:
	.loc	2 749 20                        @ lvgl/src/lv_draw/lv_draw_label.c:749:20
	cbnz	r0, .LBB8_46
	b	.LBB8_45
.LBB8_45:                               @   in Loop: Header=BB8_28 Depth=2
.Ltmp200:
	.loc	2 749 78                        @ lvgl/src/lv_draw/lv_draw_label.c:749:78
	ldr	r1, [sp, #116]
	.loc	2 749 87                        @ lvgl/src/lv_draw/lv_draw_label.c:749:87
	ldr	r2, [sp, #112]
	movs	r0, #0
	.loc	2 749 95                        @ lvgl/src/lv_draw/lv_draw_label.c:749:95
	strb	r0, [r1, r2]
	.loc	2 749 78                        @ lvgl/src/lv_draw/lv_draw_label.c:749:78
	b	.LBB8_47
.LBB8_46:                               @   in Loop: Header=BB8_28 Depth=2
	.loc	2 750 22 is_stmt 1              @ lvgl/src/lv_draw/lv_draw_label.c:750:22
	ldr	r1, [sp, #116]
	.loc	2 750 31 is_stmt 0              @ lvgl/src/lv_draw/lv_draw_label.c:750:31
	ldr	r2, [sp, #112]
	movs	r0, #255
	.loc	2 750 39                        @ lvgl/src/lv_draw/lv_draw_label.c:750:39
	strb	r0, [r1, r2]
	b	.LBB8_47
.Ltmp201:
.LBB8_47:                               @   in Loop: Header=BB8_28 Depth=2
	.loc	2 751 17 is_stmt 1              @ lvgl/src/lv_draw/lv_draw_label.c:751:17
	ldr	r1, [sp, #108]
	.loc	2 751 27 is_stmt 0              @ lvgl/src/lv_draw/lv_draw_label.c:751:27
	ldr	r2, [sp, #112]
	.loc	2 751 37                        @ lvgl/src/lv_draw/lv_draw_label.c:751:37
	ldr	r0, [sp, #64]
	str.w	r0, [r1, r2, lsl #2]
	.loc	2 754 23 is_stmt 1              @ lvgl/src/lv_draw/lv_draw_label.c:754:23
	ldr	r0, [sp, #112]
	adds	r0, #1
	str	r0, [sp, #112]
	.loc	2 755 28                        @ lvgl/src/lv_draw/lv_draw_label.c:755:28
	ldr	r0, [sp, #92]
	adds	r0, #4
	str	r0, [sp, #92]
	.loc	2 756 13                        @ lvgl/src/lv_draw/lv_draw_label.c:756:13
	b	.LBB8_48
.Ltmp202:
.LBB8_48:                               @   in Loop: Header=BB8_28 Depth=2
	.loc	2 759 16                        @ lvgl/src/lv_draw/lv_draw_label.c:759:16
	ldr	r0, [sp, #124]
	.loc	2 759 40 is_stmt 0              @ lvgl/src/lv_draw/lv_draw_label.c:759:40
	ldr	r1, [sp, #172]
	.loc	2 759 38                        @ lvgl/src/lv_draw/lv_draw_label.c:759:38
	rsb.w	r1, r1, #8
.Ltmp203:
	.loc	2 759 16                        @ lvgl/src/lv_draw/lv_draw_label.c:759:16
	cmp	r0, r1
	bge	.LBB8_50
	b	.LBB8_49
.LBB8_49:                               @   in Loop: Header=BB8_28 Depth=2
.Ltmp204:
	.loc	2 760 28 is_stmt 1              @ lvgl/src/lv_draw/lv_draw_label.c:760:28
	ldr	r1, [sp, #172]
	.loc	2 760 25 is_stmt 0              @ lvgl/src/lv_draw/lv_draw_label.c:760:25
	ldr	r0, [sp, #124]
	add	r0, r1
	str	r0, [sp, #124]
	.loc	2 761 27 is_stmt 1              @ lvgl/src/lv_draw/lv_draw_label.c:761:27
	ldr	r0, [sp, #176]
	.loc	2 761 38 is_stmt 0              @ lvgl/src/lv_draw/lv_draw_label.c:761:38
	ldr	r1, [sp, #172]
	.loc	2 761 35                        @ lvgl/src/lv_draw/lv_draw_label.c:761:35
	lsrs	r0, r1
	.loc	2 761 25                        @ lvgl/src/lv_draw/lv_draw_label.c:761:25
	str	r0, [sp, #176]
	.loc	2 762 13 is_stmt 1              @ lvgl/src/lv_draw/lv_draw_label.c:762:13
	b	.LBB8_51
.Ltmp205:
.LBB8_50:                               @   in Loop: Header=BB8_28 Depth=2
	.loc	2 0 13 is_stmt 0                @ lvgl/src/lv_draw/lv_draw_label.c:0:13
	movs	r0, #0
.Ltmp206:
	.loc	2 764 25 is_stmt 1              @ lvgl/src/lv_draw/lv_draw_label.c:764:25
	str	r0, [sp, #124]
	.loc	2 765 27                        @ lvgl/src/lv_draw/lv_draw_label.c:765:27
	ldr	r0, [sp, #180]
	.loc	2 765 25 is_stmt 0              @ lvgl/src/lv_draw/lv_draw_label.c:765:25
	str	r0, [sp, #176]
	.loc	2 766 22 is_stmt 1              @ lvgl/src/lv_draw/lv_draw_label.c:766:22
	ldr	r0, [sp, #224]
	adds	r0, #1
	str	r0, [sp, #224]
	b	.LBB8_51
.Ltmp207:
.LBB8_51:                               @   in Loop: Header=BB8_28 Depth=2
	.loc	2 768 9                         @ lvgl/src/lv_draw/lv_draw_label.c:768:9
	b	.LBB8_52
.Ltmp208:
.LBB8_52:                               @   in Loop: Header=BB8_28 Depth=2
	.loc	2 697 48                        @ lvgl/src/lv_draw/lv_draw_label.c:697:48
	ldr	r0, [sp, #168]
	adds	r0, #1
	str	r0, [sp, #168]
	.loc	2 697 9 is_stmt 0               @ lvgl/src/lv_draw/lv_draw_label.c:697:9
	b	.LBB8_28
.Ltmp209:
.LBB8_53:                               @   in Loop: Header=BB8_26 Depth=1
	.loc	2 771 12 is_stmt 1              @ lvgl/src/lv_draw/lv_draw_label.c:771:12
	ldrb.w	r0, [sp, #83]
.Ltmp210:
	.loc	2 771 12 is_stmt 0              @ lvgl/src/lv_draw/lv_draw_label.c:771:12
	cbz	r0, .LBB8_57
	b	.LBB8_54
.LBB8_54:                               @   in Loop: Header=BB8_26 Depth=1
.Ltmp211:
	.loc	2 772 62 is_stmt 1              @ lvgl/src/lv_draw/lv_draw_label.c:772:62
	ldr	r0, [sp, #116]
	.loc	2 772 73 is_stmt 0              @ lvgl/src/lv_draw/lv_draw_label.c:772:73
	ldr	r1, [sp, #68]
	.loc	2 772 71                        @ lvgl/src/lv_draw/lv_draw_label.c:772:71
	add	r0, r1
	.loc	2 772 96                        @ lvgl/src/lv_draw/lv_draw_label.c:772:96
	str	r0, [sp, #24]                   @ 4-byte Spill
	ldrsh.w	r0, [sp, #84]
	.loc	2 772 109                       @ lvgl/src/lv_draw/lv_draw_label.c:772:109
	str	r0, [sp, #16]                   @ 4-byte Spill
	ldrsh.w	r0, [sp, #90]
	.loc	2 773 62 is_stmt 1              @ lvgl/src/lv_draw/lv_draw_label.c:773:62
	str	r0, [sp, #20]                   @ 4-byte Spill
	add	r0, sp, #84
	bl	lv_area_get_width
	ldr	r1, [sp, #16]                   @ 4-byte Reload
	ldr	r2, [sp, #20]                   @ 4-byte Reload
	mov	r3, r0
	.loc	2 772 43                        @ lvgl/src/lv_draw/lv_draw_label.c:772:43
	ldr	r0, [sp, #24]                   @ 4-byte Reload
	bl	lv_draw_mask_apply
	.loc	2 772 32 is_stmt 0              @ lvgl/src/lv_draw/lv_draw_label.c:772:32
	strb.w	r0, [sp, #60]
.Ltmp212:
	.loc	2 774 16 is_stmt 1              @ lvgl/src/lv_draw/lv_draw_label.c:774:16
	ldrb.w	r0, [sp, #60]
.Ltmp213:
	.loc	2 774 16 is_stmt 0              @ lvgl/src/lv_draw/lv_draw_label.c:774:16
	cbnz	r0, .LBB8_56
	b	.LBB8_55
.LBB8_55:                               @   in Loop: Header=BB8_26 Depth=1
.Ltmp214:
	.loc	2 775 31 is_stmt 1              @ lvgl/src/lv_draw/lv_draw_label.c:775:31
	ldr	r0, [sp, #116]
	.loc	2 775 42 is_stmt 0              @ lvgl/src/lv_draw/lv_draw_label.c:775:42
	ldr	r1, [sp, #68]
	.loc	2 775 40                        @ lvgl/src/lv_draw/lv_draw_label.c:775:40
	add	r0, r1
	.loc	2 775 56                        @ lvgl/src/lv_draw/lv_draw_label.c:775:56
	str	r0, [sp, #12]                   @ 4-byte Spill
	add	r0, sp, #84
	bl	lv_area_get_width
	mov	r1, r0
	.loc	2 775 17                        @ lvgl/src/lv_draw/lv_draw_label.c:775:17
	ldr	r0, [sp, #12]                   @ 4-byte Reload
	bl	_lv_memset_00
	.loc	2 776 13 is_stmt 1              @ lvgl/src/lv_draw/lv_draw_label.c:776:13
	b	.LBB8_56
.Ltmp215:
.LBB8_56:                               @   in Loop: Header=BB8_26 Depth=1
	.loc	2 777 9                         @ lvgl/src/lv_draw/lv_draw_label.c:777:9
	b	.LBB8_57
.Ltmp216:
.LBB8_57:                               @   in Loop: Header=BB8_26 Depth=1
	.loc	2 779 22                        @ lvgl/src/lv_draw/lv_draw_label.c:779:22
	ldr	r0, [sp, #112]
	.loc	2 779 32 is_stmt 0              @ lvgl/src/lv_draw/lv_draw_label.c:779:32
	ldr	r1, [sp, #144]
	.loc	2 779 42                        @ lvgl/src/lv_draw/lv_draw_label.c:779:42
	ldr	r2, [sp, #148]
	.loc	2 779 40                        @ lvgl/src/lv_draw/lv_draw_label.c:779:40
	subs	r1, r1, r2
	.loc	2 779 29                        @ lvgl/src/lv_draw/lv_draw_label.c:779:29
	add	r0, r1
	.loc	2 779 55                        @ lvgl/src/lv_draw/lv_draw_label.c:779:55
	ldr	r1, [sp, #120]
.Ltmp217:
	.loc	2 779 12                        @ lvgl/src/lv_draw/lv_draw_label.c:779:12
	cmp	r0, r1
	bge	.LBB8_59
	b	.LBB8_58
.LBB8_58:                               @   in Loop: Header=BB8_26 Depth=1
.Ltmp218:
	.loc	2 780 25 is_stmt 1              @ lvgl/src/lv_draw/lv_draw_label.c:780:25
	ldrh.w	r0, [sp, #90]
	adds	r0, #1
	strh.w	r0, [sp, #90]
	.loc	2 781 9                         @ lvgl/src/lv_draw/lv_draw_label.c:781:9
	b	.LBB8_60
.Ltmp219:
.LBB8_59:                               @   in Loop: Header=BB8_26 Depth=1
	.loc	2 783 27                        @ lvgl/src/lv_draw/lv_draw_label.c:783:27
	ldr	r0, [sp, #192]
	.loc	2 783 49 is_stmt 0              @ lvgl/src/lv_draw/lv_draw_label.c:783:49
	ldr	r2, [sp, #108]
	.loc	2 783 60                        @ lvgl/src/lv_draw/lv_draw_label.c:783:60
	ldr	r3, [sp, #116]
	.loc	2 783 96                        @ lvgl/src/lv_draw/lv_draw_label.c:783:96
	ldrb.w	r1, [sp, #191]
	.loc	2 783 101                       @ lvgl/src/lv_draw/lv_draw_label.c:783:101
	ldrb.w	lr, [sp, #190]
	.loc	2 783 13                        @ lvgl/src/lv_draw/lv_draw_label.c:783:13
	mov	r12, sp
	str.w	lr, [r12, #8]
	str.w	r1, [r12, #4]
	movs	r1, #2
	str.w	r1, [r12]
	add	r1, sp, #84
	bl	_lv_blend_map
	.loc	2 785 27 is_stmt 1              @ lvgl/src/lv_draw/lv_draw_label.c:785:27
	ldrh.w	r0, [sp, #90]
	.loc	2 785 39 is_stmt 0              @ lvgl/src/lv_draw/lv_draw_label.c:785:39
	adds	r0, #1
	.loc	2 785 25                        @ lvgl/src/lv_draw/lv_draw_label.c:785:25
	strh.w	r0, [sp, #86]
	.loc	2 786 36 is_stmt 1              @ lvgl/src/lv_draw/lv_draw_label.c:786:36
	ldrh.w	r0, [sp, #86]
	.loc	2 786 25 is_stmt 0              @ lvgl/src/lv_draw/lv_draw_label.c:786:25
	strh.w	r0, [sp, #90]
	movs	r0, #0
	.loc	2 787 20 is_stmt 1              @ lvgl/src/lv_draw/lv_draw_label.c:787:20
	str	r0, [sp, #112]
	b	.LBB8_60
.Ltmp220:
.LBB8_60:                               @   in Loop: Header=BB8_26 Depth=1
	.loc	2 790 22                        @ lvgl/src/lv_draw/lv_draw_label.c:790:22
	ldr	r0, [sp, #160]
	.loc	2 790 30 is_stmt 0              @ lvgl/src/lv_draw/lv_draw_label.c:790:30
	ldr	r1, [sp, #144]
	.loc	2 790 28                        @ lvgl/src/lv_draw/lv_draw_label.c:790:28
	subs	r0, r0, r1
	.loc	2 790 41                        @ lvgl/src/lv_draw/lv_draw_label.c:790:41
	ldr	r1, [sp, #148]
	.loc	2 790 39                        @ lvgl/src/lv_draw/lv_draw_label.c:790:39
	add	r0, r1
	.loc	2 790 54                        @ lvgl/src/lv_draw/lv_draw_label.c:790:54
	ldr	r1, [sp, #172]
	.loc	2 790 17                        @ lvgl/src/lv_draw/lv_draw_label.c:790:17
	ldr	r2, [sp, #124]
	mla	r0, r0, r1, r2
	str	r0, [sp, #124]
	.loc	2 792 19 is_stmt 1              @ lvgl/src/lv_draw/lv_draw_label.c:792:19
	ldr	r1, [sp, #124]
	.loc	2 792 15 is_stmt 0              @ lvgl/src/lv_draw/lv_draw_label.c:792:15
	ldr	r0, [sp, #224]
	add.w	r0, r0, r1, asr #3
	str	r0, [sp, #224]
	.loc	2 793 19 is_stmt 1              @ lvgl/src/lv_draw/lv_draw_label.c:793:19
	ldr	r0, [sp, #124]
	.loc	2 793 27 is_stmt 0              @ lvgl/src/lv_draw/lv_draw_label.c:793:27
	and	r0, r0, #7
	.loc	2 793 17                        @ lvgl/src/lv_draw/lv_draw_label.c:793:17
	str	r0, [sp, #124]
	.loc	2 796 24 is_stmt 1              @ lvgl/src/lv_draw/lv_draw_label.c:796:24
	ldr	r0, [sp, #96]
	.loc	2 796 37 is_stmt 0              @ lvgl/src/lv_draw/lv_draw_label.c:796:37
	ldr	r1, [sp, #144]
	.loc	2 796 47                        @ lvgl/src/lv_draw/lv_draw_label.c:796:47
	ldr	r2, [sp, #148]
	.loc	2 796 45                        @ lvgl/src/lv_draw/lv_draw_label.c:796:45
	subs	r1, r1, r2
	movw	r2, #21846
	movt	r2, #21845
	.loc	2 796 58                        @ lvgl/src/lv_draw/lv_draw_label.c:796:58
	smmul	r1, r1, r2
	add.w	r1, r1, r1, lsr #31
	.loc	2 796 34                        @ lvgl/src/lv_draw/lv_draw_label.c:796:34
	subs	r1, r0, r1
	.loc	2 796 21                        @ lvgl/src/lv_draw/lv_draw_label.c:796:21
	ldr	r0, [sp, #92]
	add.w	r0, r0, r1, lsl #2
	str	r0, [sp, #92]
	.loc	2 797 5 is_stmt 1               @ lvgl/src/lv_draw/lv_draw_label.c:797:5
	b	.LBB8_61
.Ltmp221:
.LBB8_61:                               @   in Loop: Header=BB8_26 Depth=1
	.loc	2 692 45                        @ lvgl/src/lv_draw/lv_draw_label.c:692:45
	ldr	r0, [sp, #164]
	adds	r0, #1
	str	r0, [sp, #164]
	.loc	2 692 5 is_stmt 0               @ lvgl/src/lv_draw/lv_draw_label.c:692:5
	b	.LBB8_26
.Ltmp222:
.LBB8_62:
	.loc	2 800 17 is_stmt 1              @ lvgl/src/lv_draw/lv_draw_label.c:800:17
	ldrsh.w	r0, [sp, #86]
	.loc	2 800 32 is_stmt 0              @ lvgl/src/lv_draw/lv_draw_label.c:800:32
	ldrsh.w	r1, [sp, #90]
.Ltmp223:
	.loc	2 800 8                         @ lvgl/src/lv_draw/lv_draw_label.c:800:8
	cmp	r0, r1
	beq	.LBB8_64
	b	.LBB8_63
.LBB8_63:
.Ltmp224:
	.loc	2 801 20 is_stmt 1              @ lvgl/src/lv_draw/lv_draw_label.c:801:20
	ldrh.w	r0, [sp, #90]
	subs	r0, #1
	strh.w	r0, [sp, #90]
	.loc	2 802 23                        @ lvgl/src/lv_draw/lv_draw_label.c:802:23
	ldr	r0, [sp, #192]
	.loc	2 802 45 is_stmt 0              @ lvgl/src/lv_draw/lv_draw_label.c:802:45
	ldr	r2, [sp, #108]
	.loc	2 802 56                        @ lvgl/src/lv_draw/lv_draw_label.c:802:56
	ldr	r3, [sp, #116]
	.loc	2 802 92                        @ lvgl/src/lv_draw/lv_draw_label.c:802:92
	ldrb.w	r1, [sp, #191]
	.loc	2 802 97                        @ lvgl/src/lv_draw/lv_draw_label.c:802:97
	ldrb.w	lr, [sp, #190]
	.loc	2 802 9                         @ lvgl/src/lv_draw/lv_draw_label.c:802:9
	mov	r12, sp
	str.w	lr, [r12, #8]
	str.w	r1, [r12, #4]
	movs	r1, #2
	str.w	r1, [r12]
	add	r1, sp, #84
	bl	_lv_blend_map
	.loc	2 803 5 is_stmt 1               @ lvgl/src/lv_draw/lv_draw_label.c:803:5
	b	.LBB8_64
.Ltmp225:
.LBB8_64:
	.loc	2 805 25                        @ lvgl/src/lv_draw/lv_draw_label.c:805:25
	ldr	r0, [sp, #116]
	.loc	2 805 5 is_stmt 0               @ lvgl/src/lv_draw/lv_draw_label.c:805:5
	bl	_lv_mem_buf_release
	.loc	2 806 25 is_stmt 1              @ lvgl/src/lv_draw/lv_draw_label.c:806:25
	ldr	r0, [sp, #108]
	.loc	2 806 5 is_stmt 0               @ lvgl/src/lv_draw/lv_draw_label.c:806:5
	bl	_lv_mem_buf_release
	.loc	2 810 1 is_stmt 1               @ lvgl/src/lv_draw/lv_draw_label.c:810:1
	b	.LBB8_65
.LBB8_65:
	add	sp, #208
	pop	{r4, r5, r7, pc}
.Ltmp226:
.Lfunc_end8:
	.size	draw_letter_subpx, .Lfunc_end8-draw_letter_subpx
	.cfi_endproc
	.cantunwind
	.fnend
                                        @ -- End function
	.section	.text.draw_letter_normal,"ax",%progbits
	.p2align	3                               @ -- Begin function draw_letter_normal
	.type	draw_letter_normal,%function
	.code	16                              @ @draw_letter_normal
	.thumb_func
draw_letter_normal:
.Lfunc_begin9:
	.loc	2 453 0                         @ lvgl/src/lv_draw/lv_draw_label.c:453:0
	.fnstart
	.cfi_startproc
@ %bb.0:
	.save	{r4, r5, r7, lr}
	push	{r4, r5, r7, lr}
	.cfi_def_cfa_offset 16
	.cfi_offset lr, -4
	.cfi_offset r7, -8
	.cfi_offset r5, -12
	.cfi_offset r4, -16
	.pad	#192
	sub	sp, #192
	.cfi_def_cfa_offset 208
	mov	r12, r1
	mov	lr, r0
	ldr	r0, [sp, #220]
	ldr	r1, [sp, #216]
	ldr	r4, [sp, #212]
	ldr	r5, [sp, #208]
                                        @ kill: def $r5 killed $r12
                                        @ kill: def $r5 killed $lr
	str	r4, [sp, #188]
	strh.w	lr, [sp, #186]
	strh.w	r12, [sp, #184]
	str	r2, [sp, #180]
	str	r3, [sp, #176]
	strb.w	r1, [sp, #175]
	strb.w	r0, [sp, #174]
.Ltmp227:
	.loc	2 457 20 prologue_end           @ lvgl/src/lv_draw/lv_draw_label.c:457:20
	ldr	r0, [sp, #180]
	.loc	2 457 23 is_stmt 0              @ lvgl/src/lv_draw/lv_draw_label.c:457:23
	ldrb	r0, [r0, #10]
	.loc	2 457 14                        @ lvgl/src/lv_draw/lv_draw_label.c:457:14
	str	r0, [sp, #156]
.Ltmp228:
	.loc	2 459 8 is_stmt 1               @ lvgl/src/lv_draw/lv_draw_label.c:459:8
	ldr	r0, [sp, #156]
.Ltmp229:
	.loc	2 459 8 is_stmt 0               @ lvgl/src/lv_draw/lv_draw_label.c:459:8
	cmp	r0, #3
	bne	.LBB9_2
	b	.LBB9_1
.LBB9_1:
	.loc	2 0 8                           @ lvgl/src/lv_draw/lv_draw_label.c:0:8
	movs	r0, #4
.Ltmp230:
	.loc	2 459 22                        @ lvgl/src/lv_draw/lv_draw_label.c:459:22
	str	r0, [sp, #156]
	.loc	2 459 18                        @ lvgl/src/lv_draw/lv_draw_label.c:459:18
	b	.LBB9_2
.Ltmp231:
.LBB9_2:
	.loc	2 461 12 is_stmt 1              @ lvgl/src/lv_draw/lv_draw_label.c:461:12
	ldr	r0, [sp, #156]
	.loc	2 461 5 is_stmt 0               @ lvgl/src/lv_draw/lv_draw_label.c:461:5
	subs	r0, #1
	mov	r1, r0
	str	r1, [sp, #52]                   @ 4-byte Spill
	cmp	r0, #7
	bhi	.LBB9_9
@ %bb.3:
	.loc	2 0 5                           @ lvgl/src/lv_draw/lv_draw_label.c:0:5
	ldr	r1, [sp, #52]                   @ 4-byte Reload
.LCPI9_0:
	tbb	[pc, r1]
@ %bb.4:
.LJTI9_0:
	.byte	(.LBB9_5-(.LCPI9_0+4))/2
	.byte	(.LBB9_6-(.LCPI9_0+4))/2
	.byte	(.LBB9_9-(.LCPI9_0+4))/2
	.byte	(.LBB9_7-(.LCPI9_0+4))/2
	.byte	(.LBB9_9-(.LCPI9_0+4))/2
	.byte	(.LBB9_9-(.LCPI9_0+4))/2
	.byte	(.LBB9_9-(.LCPI9_0+4))/2
	.byte	(.LBB9_8-(.LCPI9_0+4))/2
	.p2align	1
.LBB9_5:
.Ltmp232:
	.loc	2 463 29 is_stmt 1              @ lvgl/src/lv_draw/lv_draw_label.c:463:29
	movw	r0, :lower16:_lv_bpp1_opa_table
	movt	r0, :upper16:_lv_bpp1_opa_table
	str	r0, [sp, #168]
	movs	r0, #128
	.loc	2 464 27                        @ lvgl/src/lv_draw/lv_draw_label.c:464:27
	str	r0, [sp, #164]
	movs	r0, #2
	.loc	2 465 20                        @ lvgl/src/lv_draw/lv_draw_label.c:465:20
	str	r0, [sp, #152]
	.loc	2 466 13                        @ lvgl/src/lv_draw/lv_draw_label.c:466:13
	b	.LBB9_10
.LBB9_6:
	.loc	2 468 29                        @ lvgl/src/lv_draw/lv_draw_label.c:468:29
	movw	r0, :lower16:_lv_bpp2_opa_table
	movt	r0, :upper16:_lv_bpp2_opa_table
	str	r0, [sp, #168]
	movs	r0, #192
	.loc	2 469 27                        @ lvgl/src/lv_draw/lv_draw_label.c:469:27
	str	r0, [sp, #164]
	movs	r0, #4
	.loc	2 470 20                        @ lvgl/src/lv_draw/lv_draw_label.c:470:20
	str	r0, [sp, #152]
	.loc	2 471 13                        @ lvgl/src/lv_draw/lv_draw_label.c:471:13
	b	.LBB9_10
.LBB9_7:
	.loc	2 473 29                        @ lvgl/src/lv_draw/lv_draw_label.c:473:29
	movw	r0, :lower16:_lv_bpp4_opa_table
	movt	r0, :upper16:_lv_bpp4_opa_table
	str	r0, [sp, #168]
	movs	r0, #240
	.loc	2 474 27                        @ lvgl/src/lv_draw/lv_draw_label.c:474:27
	str	r0, [sp, #164]
	movs	r0, #16
	.loc	2 475 20                        @ lvgl/src/lv_draw/lv_draw_label.c:475:20
	str	r0, [sp, #152]
	.loc	2 476 13                        @ lvgl/src/lv_draw/lv_draw_label.c:476:13
	b	.LBB9_10
.LBB9_8:
	.loc	2 478 29                        @ lvgl/src/lv_draw/lv_draw_label.c:478:29
	movw	r0, :lower16:_lv_bpp8_opa_table
	movt	r0, :upper16:_lv_bpp8_opa_table
	str	r0, [sp, #168]
	movs	r0, #255
	.loc	2 479 27                        @ lvgl/src/lv_draw/lv_draw_label.c:479:27
	str	r0, [sp, #164]
	mov.w	r0, #256
	.loc	2 480 20                        @ lvgl/src/lv_draw/lv_draw_label.c:480:20
	str	r0, [sp, #152]
	.loc	2 481 13                        @ lvgl/src/lv_draw/lv_draw_label.c:481:13
	b	.LBB9_10
.LBB9_9:
	.loc	2 484 13                        @ lvgl/src/lv_draw/lv_draw_label.c:484:13
	b	.LBB9_61
.Ltmp233:
.LBB9_10:
	.loc	2 490 8                         @ lvgl/src/lv_draw/lv_draw_label.c:490:8
	ldrb.w	r0, [sp, #175]
.Ltmp234:
	.loc	2 490 8 is_stmt 0               @ lvgl/src/lv_draw/lv_draw_label.c:490:8
	cmp	r0, #252
	bgt	.LBB9_22
	b	.LBB9_11
.LBB9_11:
.Ltmp235:
	.loc	2 491 12 is_stmt 1              @ lvgl/src/lv_draw/lv_draw_label.c:491:12
	movw	r0, :lower16:draw_letter_normal.prev_opa
	movt	r0, :upper16:draw_letter_normal.prev_opa
	ldrb	r0, [r0]
	.loc	2 491 24 is_stmt 0              @ lvgl/src/lv_draw/lv_draw_label.c:491:24
	ldrb.w	r1, [sp, #175]
	.loc	2 491 28                        @ lvgl/src/lv_draw/lv_draw_label.c:491:28
	cmp	r0, r1
	bne	.LBB9_13
	b	.LBB9_12
.LBB9_12:
	.loc	2 491 31                        @ lvgl/src/lv_draw/lv_draw_label.c:491:31
	movw	r0, :lower16:draw_letter_normal.prev_bpp
	movt	r0, :upper16:draw_letter_normal.prev_bpp
	ldr	r0, [r0]
	.loc	2 491 43                        @ lvgl/src/lv_draw/lv_draw_label.c:491:43
	ldr	r1, [sp, #156]
.Ltmp236:
	.loc	2 491 12                        @ lvgl/src/lv_draw/lv_draw_label.c:491:12
	cmp	r0, r1
	beq	.LBB9_21
	b	.LBB9_13
.LBB9_13:
	.loc	2 0 12                          @ lvgl/src/lv_draw/lv_draw_label.c:0:12
	movs	r0, #0
.Ltmp237:
	.loc	2 493 19 is_stmt 1              @ lvgl/src/lv_draw/lv_draw_label.c:493:19
	str	r0, [sp, #148]
	.loc	2 493 17 is_stmt 0              @ lvgl/src/lv_draw/lv_draw_label.c:493:17
	b	.LBB9_14
.LBB9_14:                               @ =>This Inner Loop Header: Depth=1
.Ltmp238:
	.loc	2 493 24                        @ lvgl/src/lv_draw/lv_draw_label.c:493:24
	ldr	r0, [sp, #148]
	.loc	2 493 28                        @ lvgl/src/lv_draw/lv_draw_label.c:493:28
	ldr	r1, [sp, #152]
.Ltmp239:
	.loc	2 493 13                        @ lvgl/src/lv_draw/lv_draw_label.c:493:13
	cmp	r0, r1
	bhs	.LBB9_20
	b	.LBB9_15
.LBB9_15:                               @   in Loop: Header=BB9_14 Depth=1
.Ltmp240:
	.loc	2 494 32 is_stmt 1              @ lvgl/src/lv_draw/lv_draw_label.c:494:32
	ldr	r0, [sp, #168]
	.loc	2 494 48 is_stmt 0              @ lvgl/src/lv_draw/lv_draw_label.c:494:48
	ldr	r1, [sp, #148]
	.loc	2 494 32                        @ lvgl/src/lv_draw/lv_draw_label.c:494:32
	ldrb	r0, [r0, r1]
	cmp	r0, #255
	bne	.LBB9_17
	b	.LBB9_16
.LBB9_16:                               @   in Loop: Header=BB9_14 Depth=1
	.loc	2 494 69                        @ lvgl/src/lv_draw/lv_draw_label.c:494:69
	ldrb.w	r0, [sp, #175]
	.loc	2 494 32                        @ lvgl/src/lv_draw/lv_draw_label.c:494:32
	str	r0, [sp, #48]                   @ 4-byte Spill
	b	.LBB9_18
.LBB9_17:                               @   in Loop: Header=BB9_14 Depth=1
	.loc	2 494 77                        @ lvgl/src/lv_draw/lv_draw_label.c:494:77
	ldr	r0, [sp, #168]
	.loc	2 494 93                        @ lvgl/src/lv_draw/lv_draw_label.c:494:93
	ldr	r1, [sp, #148]
	.loc	2 494 77                        @ lvgl/src/lv_draw/lv_draw_label.c:494:77
	ldrb	r0, [r0, r1]
	.loc	2 494 98                        @ lvgl/src/lv_draw/lv_draw_label.c:494:98
	ldrb.w	r1, [sp, #175]
	.loc	2 494 96                        @ lvgl/src/lv_draw/lv_draw_label.c:494:96
	muls	r0, r1, r0
	.loc	2 494 103                       @ lvgl/src/lv_draw/lv_draw_label.c:494:103
	lsrs	r0, r0, #8
	.loc	2 494 32                        @ lvgl/src/lv_draw/lv_draw_label.c:494:32
	str	r0, [sp, #48]                   @ 4-byte Spill
	b	.LBB9_18
.LBB9_18:                               @   in Loop: Header=BB9_14 Depth=1
	ldr	r0, [sp, #48]                   @ 4-byte Reload
	.loc	2 494 27                        @ lvgl/src/lv_draw/lv_draw_label.c:494:27
	ldr	r2, [sp, #148]
	.loc	2 494 17                        @ lvgl/src/lv_draw/lv_draw_label.c:494:17
	movw	r1, :lower16:draw_letter_normal.opa_table
	movt	r1, :upper16:draw_letter_normal.opa_table
	.loc	2 494 30                        @ lvgl/src/lv_draw/lv_draw_label.c:494:30
	strb	r0, [r1, r2]
	.loc	2 495 13 is_stmt 1              @ lvgl/src/lv_draw/lv_draw_label.c:495:13
	b	.LBB9_19
.Ltmp241:
.LBB9_19:                               @   in Loop: Header=BB9_14 Depth=1
	.loc	2 493 37                        @ lvgl/src/lv_draw/lv_draw_label.c:493:37
	ldr	r0, [sp, #148]
	adds	r0, #1
	str	r0, [sp, #148]
	.loc	2 493 13 is_stmt 0              @ lvgl/src/lv_draw/lv_draw_label.c:493:13
	b	.LBB9_14
.Ltmp242:
.LBB9_20:
	.loc	2 496 9 is_stmt 1               @ lvgl/src/lv_draw/lv_draw_label.c:496:9
	b	.LBB9_21
.Ltmp243:
.LBB9_21:
	.loc	2 497 25                        @ lvgl/src/lv_draw/lv_draw_label.c:497:25
	movw	r0, :lower16:draw_letter_normal.opa_table
	movt	r0, :upper16:draw_letter_normal.opa_table
	str	r0, [sp, #168]
	.loc	2 498 20                        @ lvgl/src/lv_draw/lv_draw_label.c:498:20
	ldrb.w	r0, [sp, #175]
	.loc	2 498 18 is_stmt 0              @ lvgl/src/lv_draw/lv_draw_label.c:498:18
	movw	r1, :lower16:draw_letter_normal.prev_opa
	movt	r1, :upper16:draw_letter_normal.prev_opa
	strb	r0, [r1]
	.loc	2 499 20 is_stmt 1              @ lvgl/src/lv_draw/lv_draw_label.c:499:20
	ldr	r0, [sp, #156]
	.loc	2 499 18 is_stmt 0              @ lvgl/src/lv_draw/lv_draw_label.c:499:18
	movw	r1, :lower16:draw_letter_normal.prev_bpp
	movt	r1, :upper16:draw_letter_normal.prev_bpp
	str	r0, [r1]
	.loc	2 500 5 is_stmt 1               @ lvgl/src/lv_draw/lv_draw_label.c:500:5
	b	.LBB9_22
.Ltmp244:
.LBB9_22:
	.loc	2 503 21                        @ lvgl/src/lv_draw/lv_draw_label.c:503:21
	ldr	r0, [sp, #180]
	.loc	2 503 24 is_stmt 0              @ lvgl/src/lv_draw/lv_draw_label.c:503:24
	ldrh	r0, [r0, #2]
	.loc	2 503 13                        @ lvgl/src/lv_draw/lv_draw_label.c:503:13
	str	r0, [sp, #136]
	.loc	2 504 21 is_stmt 1              @ lvgl/src/lv_draw/lv_draw_label.c:504:21
	ldr	r0, [sp, #180]
	.loc	2 504 24 is_stmt 0              @ lvgl/src/lv_draw/lv_draw_label.c:504:24
	ldrh	r0, [r0, #4]
	.loc	2 504 13                        @ lvgl/src/lv_draw/lv_draw_label.c:504:13
	str	r0, [sp, #132]
	.loc	2 505 25 is_stmt 1              @ lvgl/src/lv_draw/lv_draw_label.c:505:25
	ldr	r0, [sp, #136]
	.loc	2 505 33 is_stmt 0              @ lvgl/src/lv_draw/lv_draw_label.c:505:33
	ldr	r1, [sp, #156]
	.loc	2 505 31                        @ lvgl/src/lv_draw/lv_draw_label.c:505:31
	muls	r0, r1, r0
	.loc	2 505 13                        @ lvgl/src/lv_draw/lv_draw_label.c:505:13
	str	r0, [sp, #128]
	.loc	2 508 25 is_stmt 1              @ lvgl/src/lv_draw/lv_draw_label.c:508:25
	ldrsh.w	r0, [sp, #186]
	.loc	2 508 34 is_stmt 0              @ lvgl/src/lv_draw/lv_draw_label.c:508:34
	ldr	r1, [sp, #176]
	.loc	2 508 45                        @ lvgl/src/lv_draw/lv_draw_label.c:508:45
	ldrsh.w	r1, [r1]
	.loc	2 508 25                        @ lvgl/src/lv_draw/lv_draw_label.c:508:25
	cmp	r0, r1
	blt	.LBB9_24
	b	.LBB9_23
.LBB9_23:
	.loc	2 0 25                          @ lvgl/src/lv_draw/lv_draw_label.c:0:25
	movs	r0, #0
	.loc	2 508 25                        @ lvgl/src/lv_draw/lv_draw_label.c:508:25
	str	r0, [sp, #44]                   @ 4-byte Spill
	b	.LBB9_25
.LBB9_24:
	.loc	2 508 54                        @ lvgl/src/lv_draw/lv_draw_label.c:508:54
	ldr	r0, [sp, #176]
	.loc	2 508 65                        @ lvgl/src/lv_draw/lv_draw_label.c:508:65
	ldrsh.w	r0, [r0]
	.loc	2 508 70                        @ lvgl/src/lv_draw/lv_draw_label.c:508:70
	ldrsh.w	r1, [sp, #186]
	.loc	2 508 68                        @ lvgl/src/lv_draw/lv_draw_label.c:508:68
	subs	r0, r0, r1
	.loc	2 508 25                        @ lvgl/src/lv_draw/lv_draw_label.c:508:25
	str	r0, [sp, #44]                   @ 4-byte Spill
	b	.LBB9_25
.LBB9_25:
	ldr	r0, [sp, #44]                   @ 4-byte Reload
	.loc	2 508 13                        @ lvgl/src/lv_draw/lv_draw_label.c:508:13
	str	r0, [sp, #124]
	.loc	2 509 25 is_stmt 1              @ lvgl/src/lv_draw/lv_draw_label.c:509:25
	ldrsh.w	r0, [sp, #186]
	.loc	2 509 33 is_stmt 0              @ lvgl/src/lv_draw/lv_draw_label.c:509:33
	ldr	r1, [sp, #136]
	.loc	2 509 31                        @ lvgl/src/lv_draw/lv_draw_label.c:509:31
	add	r0, r1
	.loc	2 509 42                        @ lvgl/src/lv_draw/lv_draw_label.c:509:42
	ldr	r1, [sp, #176]
	.loc	2 509 53                        @ lvgl/src/lv_draw/lv_draw_label.c:509:53
	ldrsh.w	r1, [r1, #4]
	.loc	2 509 25                        @ lvgl/src/lv_draw/lv_draw_label.c:509:25
	cmp	r0, r1
	bgt	.LBB9_27
	b	.LBB9_26
.LBB9_26:
	.loc	2 509 58                        @ lvgl/src/lv_draw/lv_draw_label.c:509:58
	ldr	r0, [sp, #136]
	.loc	2 509 25                        @ lvgl/src/lv_draw/lv_draw_label.c:509:25
	str	r0, [sp, #40]                   @ 4-byte Spill
	b	.LBB9_28
.LBB9_27:
	.loc	2 509 66                        @ lvgl/src/lv_draw/lv_draw_label.c:509:66
	ldr	r0, [sp, #176]
	.loc	2 509 77                        @ lvgl/src/lv_draw/lv_draw_label.c:509:77
	ldrsh.w	r0, [r0, #4]
	.loc	2 509 82                        @ lvgl/src/lv_draw/lv_draw_label.c:509:82
	ldrsh.w	r1, [sp, #186]
	.loc	2 509 80                        @ lvgl/src/lv_draw/lv_draw_label.c:509:80
	subs	r0, r0, r1
	.loc	2 509 88                        @ lvgl/src/lv_draw/lv_draw_label.c:509:88
	adds	r0, #1
	.loc	2 509 25                        @ lvgl/src/lv_draw/lv_draw_label.c:509:25
	str	r0, [sp, #40]                   @ 4-byte Spill
	b	.LBB9_28
.LBB9_28:
	ldr	r0, [sp, #40]                   @ 4-byte Reload
	.loc	2 509 13                        @ lvgl/src/lv_draw/lv_draw_label.c:509:13
	str	r0, [sp, #120]
	.loc	2 510 25 is_stmt 1              @ lvgl/src/lv_draw/lv_draw_label.c:510:25
	ldrsh.w	r0, [sp, #184]
	.loc	2 510 34 is_stmt 0              @ lvgl/src/lv_draw/lv_draw_label.c:510:34
	ldr	r1, [sp, #176]
	.loc	2 510 45                        @ lvgl/src/lv_draw/lv_draw_label.c:510:45
	ldrsh.w	r1, [r1, #2]
	.loc	2 510 25                        @ lvgl/src/lv_draw/lv_draw_label.c:510:25
	cmp	r0, r1
	blt	.LBB9_30
	b	.LBB9_29
.LBB9_29:
	.loc	2 0 25                          @ lvgl/src/lv_draw/lv_draw_label.c:0:25
	movs	r0, #0
	.loc	2 510 25                        @ lvgl/src/lv_draw/lv_draw_label.c:510:25
	str	r0, [sp, #36]                   @ 4-byte Spill
	b	.LBB9_31
.LBB9_30:
	.loc	2 510 54                        @ lvgl/src/lv_draw/lv_draw_label.c:510:54
	ldr	r0, [sp, #176]
	.loc	2 510 65                        @ lvgl/src/lv_draw/lv_draw_label.c:510:65
	ldrsh.w	r0, [r0, #2]
	.loc	2 510 70                        @ lvgl/src/lv_draw/lv_draw_label.c:510:70
	ldrsh.w	r1, [sp, #184]
	.loc	2 510 68                        @ lvgl/src/lv_draw/lv_draw_label.c:510:68
	subs	r0, r0, r1
	.loc	2 510 25                        @ lvgl/src/lv_draw/lv_draw_label.c:510:25
	str	r0, [sp, #36]                   @ 4-byte Spill
	b	.LBB9_31
.LBB9_31:
	ldr	r0, [sp, #36]                   @ 4-byte Reload
	.loc	2 510 13                        @ lvgl/src/lv_draw/lv_draw_label.c:510:13
	str	r0, [sp, #116]
	.loc	2 511 25 is_stmt 1              @ lvgl/src/lv_draw/lv_draw_label.c:511:25
	ldrsh.w	r0, [sp, #184]
	.loc	2 511 33 is_stmt 0              @ lvgl/src/lv_draw/lv_draw_label.c:511:33
	ldr	r1, [sp, #132]
	.loc	2 511 31                        @ lvgl/src/lv_draw/lv_draw_label.c:511:31
	add	r0, r1
	.loc	2 511 42                        @ lvgl/src/lv_draw/lv_draw_label.c:511:42
	ldr	r1, [sp, #176]
	.loc	2 511 53                        @ lvgl/src/lv_draw/lv_draw_label.c:511:53
	ldrsh.w	r1, [r1, #6]
	.loc	2 511 25                        @ lvgl/src/lv_draw/lv_draw_label.c:511:25
	cmp	r0, r1
	bgt	.LBB9_33
	b	.LBB9_32
.LBB9_32:
	.loc	2 511 58                        @ lvgl/src/lv_draw/lv_draw_label.c:511:58
	ldr	r0, [sp, #132]
	.loc	2 511 25                        @ lvgl/src/lv_draw/lv_draw_label.c:511:25
	str	r0, [sp, #32]                   @ 4-byte Spill
	b	.LBB9_34
.LBB9_33:
	.loc	2 511 66                        @ lvgl/src/lv_draw/lv_draw_label.c:511:66
	ldr	r0, [sp, #176]
	.loc	2 511 77                        @ lvgl/src/lv_draw/lv_draw_label.c:511:77
	ldrsh.w	r0, [r0, #6]
	.loc	2 511 82                        @ lvgl/src/lv_draw/lv_draw_label.c:511:82
	ldrsh.w	r1, [sp, #184]
	.loc	2 511 80                        @ lvgl/src/lv_draw/lv_draw_label.c:511:80
	subs	r0, r0, r1
	.loc	2 511 88                        @ lvgl/src/lv_draw/lv_draw_label.c:511:88
	adds	r0, #1
	.loc	2 511 25                        @ lvgl/src/lv_draw/lv_draw_label.c:511:25
	str	r0, [sp, #32]                   @ 4-byte Spill
	b	.LBB9_34
.LBB9_34:
	ldr	r0, [sp, #32]                   @ 4-byte Reload
	.loc	2 511 13                        @ lvgl/src/lv_draw/lv_draw_label.c:511:13
	str	r0, [sp, #112]
	.loc	2 514 25 is_stmt 1              @ lvgl/src/lv_draw/lv_draw_label.c:514:25
	ldr	r0, [sp, #116]
	.loc	2 514 37 is_stmt 0              @ lvgl/src/lv_draw/lv_draw_label.c:514:37
	ldr	r1, [sp, #128]
	.loc	2 514 51                        @ lvgl/src/lv_draw/lv_draw_label.c:514:51
	ldr	r2, [sp, #124]
	.loc	2 514 63                        @ lvgl/src/lv_draw/lv_draw_label.c:514:63
	ldr	r3, [sp, #156]
	.loc	2 514 61                        @ lvgl/src/lv_draw/lv_draw_label.c:514:61
	muls	r2, r3, r2
	.loc	2 514 48                        @ lvgl/src/lv_draw/lv_draw_label.c:514:48
	mla	r0, r0, r1, r2
	.loc	2 514 14                        @ lvgl/src/lv_draw/lv_draw_label.c:514:14
	str	r0, [sp, #108]
	.loc	2 515 14 is_stmt 1              @ lvgl/src/lv_draw/lv_draw_label.c:515:14
	ldr	r1, [sp, #108]
	.loc	2 515 11 is_stmt 0              @ lvgl/src/lv_draw/lv_draw_label.c:515:11
	ldr	r0, [sp, #208]
	add.w	r0, r0, r1, lsr #3
	str	r0, [sp, #208]
	.loc	2 519 15 is_stmt 1              @ lvgl/src/lv_draw/lv_draw_label.c:519:15
	ldr	r0, [sp, #108]
	.loc	2 519 23 is_stmt 0              @ lvgl/src/lv_draw/lv_draw_label.c:519:23
	and	r0, r0, #7
	.loc	2 519 13                        @ lvgl/src/lv_draw/lv_draw_label.c:519:13
	str	r0, [sp, #100]
	.loc	2 521 46 is_stmt 1              @ lvgl/src/lv_draw/lv_draw_label.c:521:46
	bl	_lv_refr_get_disp_refreshing
	.loc	2 521 26 is_stmt 0              @ lvgl/src/lv_draw/lv_draw_label.c:521:26
	bl	lv_disp_get_hor_res
	.loc	2 521 16                        @ lvgl/src/lv_draw/lv_draw_label.c:521:16
	strh.w	r0, [sp, #98]
	.loc	2 522 30 is_stmt 1              @ lvgl/src/lv_draw/lv_draw_label.c:522:30
	ldr	r0, [sp, #136]
	.loc	2 522 38 is_stmt 0              @ lvgl/src/lv_draw/lv_draw_label.c:522:38
	ldr	r1, [sp, #132]
	.loc	2 522 36                        @ lvgl/src/lv_draw/lv_draw_label.c:522:36
	muls	r0, r1, r0
	.loc	2 522 46                        @ lvgl/src/lv_draw/lv_draw_label.c:522:46
	ldrsh.w	r1, [sp, #98]
	.loc	2 522 30                        @ lvgl/src/lv_draw/lv_draw_label.c:522:30
	cmp	r0, r1
	ble	.LBB9_36
	b	.LBB9_35
.LBB9_35:
	.loc	2 522 56                        @ lvgl/src/lv_draw/lv_draw_label.c:522:56
	ldrsh.w	r0, [sp, #98]
	.loc	2 522 30                        @ lvgl/src/lv_draw/lv_draw_label.c:522:30
	str	r0, [sp, #28]                   @ 4-byte Spill
	b	.LBB9_37
.LBB9_36:
	.loc	2 522 66                        @ lvgl/src/lv_draw/lv_draw_label.c:522:66
	ldr	r0, [sp, #136]
	.loc	2 522 74                        @ lvgl/src/lv_draw/lv_draw_label.c:522:74
	ldr	r1, [sp, #132]
	.loc	2 522 72                        @ lvgl/src/lv_draw/lv_draw_label.c:522:72
	muls	r0, r1, r0
	.loc	2 522 30                        @ lvgl/src/lv_draw/lv_draw_label.c:522:30
	str	r0, [sp, #28]                   @ 4-byte Spill
	b	.LBB9_37
.LBB9_37:
	ldr	r0, [sp, #28]                   @ 4-byte Reload
	.loc	2 522 14                        @ lvgl/src/lv_draw/lv_draw_label.c:522:14
	str	r0, [sp, #92]
	.loc	2 523 43 is_stmt 1              @ lvgl/src/lv_draw/lv_draw_label.c:523:43
	ldr	r0, [sp, #92]
	.loc	2 523 27 is_stmt 0              @ lvgl/src/lv_draw/lv_draw_label.c:523:27
	bl	_lv_mem_buf_get
	.loc	2 523 16                        @ lvgl/src/lv_draw/lv_draw_label.c:523:16
	str	r0, [sp, #88]
	movs	r0, #0
	.loc	2 524 13 is_stmt 1              @ lvgl/src/lv_draw/lv_draw_label.c:524:13
	str	r0, [sp, #84]
	.loc	2 527 20                        @ lvgl/src/lv_draw/lv_draw_label.c:527:20
	ldr	r0, [sp, #124]
	.loc	2 527 32 is_stmt 0              @ lvgl/src/lv_draw/lv_draw_label.c:527:32
	ldrh.w	r1, [sp, #186]
	.loc	2 527 30                        @ lvgl/src/lv_draw/lv_draw_label.c:527:30
	add	r0, r1
	.loc	2 527 18                        @ lvgl/src/lv_draw/lv_draw_label.c:527:18
	strh.w	r0, [sp, #76]
	.loc	2 528 20 is_stmt 1              @ lvgl/src/lv_draw/lv_draw_label.c:528:20
	ldr	r0, [sp, #120]
	.loc	2 528 31 is_stmt 0              @ lvgl/src/lv_draw/lv_draw_label.c:528:31
	ldrh.w	r1, [sp, #186]
	.loc	2 528 29                        @ lvgl/src/lv_draw/lv_draw_label.c:528:29
	add	r0, r1
	.loc	2 528 37                        @ lvgl/src/lv_draw/lv_draw_label.c:528:37
	subs	r0, #1
	.loc	2 528 18                        @ lvgl/src/lv_draw/lv_draw_label.c:528:18
	strh.w	r0, [sp, #80]
	.loc	2 529 20 is_stmt 1              @ lvgl/src/lv_draw/lv_draw_label.c:529:20
	ldr	r0, [sp, #116]
	.loc	2 529 32 is_stmt 0              @ lvgl/src/lv_draw/lv_draw_label.c:529:32
	ldrh.w	r1, [sp, #184]
	.loc	2 529 30                        @ lvgl/src/lv_draw/lv_draw_label.c:529:30
	add	r0, r1
	.loc	2 529 18                        @ lvgl/src/lv_draw/lv_draw_label.c:529:18
	strh.w	r0, [sp, #78]
	.loc	2 530 30 is_stmt 1              @ lvgl/src/lv_draw/lv_draw_label.c:530:30
	ldrh.w	r0, [sp, #78]
	.loc	2 530 18 is_stmt 0              @ lvgl/src/lv_draw/lv_draw_label.c:530:18
	strh.w	r0, [sp, #82]
	.loc	2 532 30 is_stmt 1              @ lvgl/src/lv_draw/lv_draw_label.c:532:30
	bl	lv_draw_mask_get_cnt
	.loc	2 532 13 is_stmt 0              @ lvgl/src/lv_draw/lv_draw_label.c:532:13
	strb.w	r0, [sp, #75]
	.loc	2 534 32 is_stmt 1              @ lvgl/src/lv_draw/lv_draw_label.c:534:32
	ldr	r0, [sp, #156]
	.loc	2 534 30 is_stmt 0              @ lvgl/src/lv_draw/lv_draw_label.c:534:30
	rsb.w	r0, r0, #8
	.loc	2 534 14                        @ lvgl/src/lv_draw/lv_draw_label.c:534:14
	str	r0, [sp, #68]
	.loc	2 535 33 is_stmt 1              @ lvgl/src/lv_draw/lv_draw_label.c:535:33
	ldr	r0, [sp, #136]
	.loc	2 535 41 is_stmt 0              @ lvgl/src/lv_draw/lv_draw_label.c:535:41
	ldr	r1, [sp, #124]
	.loc	2 535 39                        @ lvgl/src/lv_draw/lv_draw_label.c:535:39
	add	r0, r1
	.loc	2 535 53                        @ lvgl/src/lv_draw/lv_draw_label.c:535:53
	ldr	r1, [sp, #120]
	.loc	2 535 51                        @ lvgl/src/lv_draw/lv_draw_label.c:535:51
	subs	r0, r0, r1
	.loc	2 535 64                        @ lvgl/src/lv_draw/lv_draw_label.c:535:64
	ldr	r1, [sp, #156]
	.loc	2 535 62                        @ lvgl/src/lv_draw/lv_draw_label.c:535:62
	muls	r0, r1, r0
	.loc	2 535 14                        @ lvgl/src/lv_draw/lv_draw_label.c:535:14
	str	r0, [sp, #64]
.Ltmp245:
	.loc	2 537 15 is_stmt 1              @ lvgl/src/lv_draw/lv_draw_label.c:537:15
	ldr	r0, [sp, #116]
	.loc	2 537 13 is_stmt 0              @ lvgl/src/lv_draw/lv_draw_label.c:537:13
	str	r0, [sp, #140]
	.loc	2 537 9                         @ lvgl/src/lv_draw/lv_draw_label.c:537:9
	b	.LBB9_38
.LBB9_38:                               @ =>This Loop Header: Depth=1
                                        @     Child Loop BB9_40 Depth 2
.Ltmp246:
	.loc	2 537 27                        @ lvgl/src/lv_draw/lv_draw_label.c:537:27
	ldr	r0, [sp, #140]
	.loc	2 537 33                        @ lvgl/src/lv_draw/lv_draw_label.c:537:33
	ldr	r1, [sp, #112]
.Ltmp247:
	.loc	2 537 5                         @ lvgl/src/lv_draw/lv_draw_label.c:537:5
	cmp	r0, r1
	bge.w	.LBB9_58
	b	.LBB9_39
.LBB9_39:                               @   in Loop: Header=BB9_38 Depth=1
.Ltmp248:
	.loc	2 538 32 is_stmt 1              @ lvgl/src/lv_draw/lv_draw_label.c:538:32
	ldr	r0, [sp, #84]
	.loc	2 538 17 is_stmt 0              @ lvgl/src/lv_draw/lv_draw_label.c:538:17
	str	r0, [sp, #60]
	.loc	2 540 19 is_stmt 1              @ lvgl/src/lv_draw/lv_draw_label.c:540:19
	ldr	r0, [sp, #164]
	.loc	2 540 35 is_stmt 0              @ lvgl/src/lv_draw/lv_draw_label.c:540:35
	ldr	r1, [sp, #100]
	.loc	2 540 32                        @ lvgl/src/lv_draw/lv_draw_label.c:540:32
	lsrs	r0, r1
	.loc	2 540 17                        @ lvgl/src/lv_draw/lv_draw_label.c:540:17
	str	r0, [sp, #160]
.Ltmp249:
	.loc	2 541 19 is_stmt 1              @ lvgl/src/lv_draw/lv_draw_label.c:541:19
	ldr	r0, [sp, #124]
	.loc	2 541 17 is_stmt 0              @ lvgl/src/lv_draw/lv_draw_label.c:541:17
	str	r0, [sp, #144]
	.loc	2 541 13                        @ lvgl/src/lv_draw/lv_draw_label.c:541:13
	b	.LBB9_40
.LBB9_40:                               @   Parent Loop BB9_38 Depth=1
                                        @ =>  This Inner Loop Header: Depth=2
.Ltmp250:
	.loc	2 541 30                        @ lvgl/src/lv_draw/lv_draw_label.c:541:30
	ldr	r0, [sp, #144]
	.loc	2 541 36                        @ lvgl/src/lv_draw/lv_draw_label.c:541:36
	ldr	r1, [sp, #120]
.Ltmp251:
	.loc	2 541 9                         @ lvgl/src/lv_draw/lv_draw_label.c:541:9
	cmp	r0, r1
	bge	.LBB9_49
	b	.LBB9_41
.LBB9_41:                               @   in Loop: Header=BB9_40 Depth=2
.Ltmp252:
	.loc	2 543 27 is_stmt 1              @ lvgl/src/lv_draw/lv_draw_label.c:543:27
	ldr	r0, [sp, #208]
	.loc	2 543 26 is_stmt 0              @ lvgl/src/lv_draw/lv_draw_label.c:543:26
	ldrb	r0, [r0]
	.loc	2 543 35                        @ lvgl/src/lv_draw/lv_draw_label.c:543:35
	ldr	r1, [sp, #160]
	.loc	2 543 33                        @ lvgl/src/lv_draw/lv_draw_label.c:543:33
	ands	r0, r1
	.loc	2 543 48                        @ lvgl/src/lv_draw/lv_draw_label.c:543:48
	ldr	r1, [sp, #68]
	.loc	2 543 62                        @ lvgl/src/lv_draw/lv_draw_label.c:543:62
	ldr	r2, [sp, #100]
	.loc	2 543 60                        @ lvgl/src/lv_draw/lv_draw_label.c:543:60
	subs	r1, r1, r2
	.loc	2 543 44                        @ lvgl/src/lv_draw/lv_draw_label.c:543:44
	lsrs	r0, r1
	.loc	2 543 23                        @ lvgl/src/lv_draw/lv_draw_label.c:543:23
	strb.w	r0, [sp, #107]
.Ltmp253:
	.loc	2 544 16 is_stmt 1              @ lvgl/src/lv_draw/lv_draw_label.c:544:16
	ldrb.w	r0, [sp, #107]
.Ltmp254:
	.loc	2 544 16 is_stmt 0              @ lvgl/src/lv_draw/lv_draw_label.c:544:16
	cbz	r0, .LBB9_43
	b	.LBB9_42
.LBB9_42:                               @   in Loop: Header=BB9_40 Depth=2
.Ltmp255:
	.loc	2 545 36 is_stmt 1              @ lvgl/src/lv_draw/lv_draw_label.c:545:36
	ldr	r0, [sp, #168]
	.loc	2 545 52 is_stmt 0              @ lvgl/src/lv_draw/lv_draw_label.c:545:52
	ldrb.w	r1, [sp, #107]
	.loc	2 545 36                        @ lvgl/src/lv_draw/lv_draw_label.c:545:36
	ldrb	r0, [r0, r1]
	.loc	2 545 17                        @ lvgl/src/lv_draw/lv_draw_label.c:545:17
	ldr	r1, [sp, #88]
	.loc	2 545 26                        @ lvgl/src/lv_draw/lv_draw_label.c:545:26
	ldr	r2, [sp, #84]
	.loc	2 545 34                        @ lvgl/src/lv_draw/lv_draw_label.c:545:34
	strb	r0, [r1, r2]
	.loc	2 546 13 is_stmt 1              @ lvgl/src/lv_draw/lv_draw_label.c:546:13
	b	.LBB9_44
.Ltmp256:
.LBB9_43:                               @   in Loop: Header=BB9_40 Depth=2
	.loc	2 548 17                        @ lvgl/src/lv_draw/lv_draw_label.c:548:17
	ldr	r1, [sp, #88]
	.loc	2 548 26 is_stmt 0              @ lvgl/src/lv_draw/lv_draw_label.c:548:26
	ldr	r2, [sp, #84]
	movs	r0, #0
	.loc	2 548 34                        @ lvgl/src/lv_draw/lv_draw_label.c:548:34
	strb	r0, [r1, r2]
	b	.LBB9_44
.Ltmp257:
.LBB9_44:                               @   in Loop: Header=BB9_40 Depth=2
	.loc	2 552 16 is_stmt 1              @ lvgl/src/lv_draw/lv_draw_label.c:552:16
	ldr	r0, [sp, #100]
	.loc	2 552 26 is_stmt 0              @ lvgl/src/lv_draw/lv_draw_label.c:552:26
	ldr	r1, [sp, #68]
.Ltmp258:
	.loc	2 552 16                        @ lvgl/src/lv_draw/lv_draw_label.c:552:16
	cmp	r0, r1
	bhs	.LBB9_46
	b	.LBB9_45
.LBB9_45:                               @   in Loop: Header=BB9_40 Depth=2
.Ltmp259:
	.loc	2 553 28 is_stmt 1              @ lvgl/src/lv_draw/lv_draw_label.c:553:28
	ldr	r1, [sp, #156]
	.loc	2 553 25 is_stmt 0              @ lvgl/src/lv_draw/lv_draw_label.c:553:25
	ldr	r0, [sp, #100]
	add	r0, r1
	str	r0, [sp, #100]
	.loc	2 554 27 is_stmt 1              @ lvgl/src/lv_draw/lv_draw_label.c:554:27
	ldr	r0, [sp, #160]
	.loc	2 554 38 is_stmt 0              @ lvgl/src/lv_draw/lv_draw_label.c:554:38
	ldr	r1, [sp, #156]
	.loc	2 554 35                        @ lvgl/src/lv_draw/lv_draw_label.c:554:35
	lsrs	r0, r1
	.loc	2 554 25                        @ lvgl/src/lv_draw/lv_draw_label.c:554:25
	str	r0, [sp, #160]
	.loc	2 555 13 is_stmt 1              @ lvgl/src/lv_draw/lv_draw_label.c:555:13
	b	.LBB9_47
.Ltmp260:
.LBB9_46:                               @   in Loop: Header=BB9_40 Depth=2
	.loc	2 0 13 is_stmt 0                @ lvgl/src/lv_draw/lv_draw_label.c:0:13
	movs	r0, #0
.Ltmp261:
	.loc	2 557 25 is_stmt 1              @ lvgl/src/lv_draw/lv_draw_label.c:557:25
	str	r0, [sp, #100]
	.loc	2 558 27                        @ lvgl/src/lv_draw/lv_draw_label.c:558:27
	ldr	r0, [sp, #164]
	.loc	2 558 25 is_stmt 0              @ lvgl/src/lv_draw/lv_draw_label.c:558:25
	str	r0, [sp, #160]
	.loc	2 559 22 is_stmt 1              @ lvgl/src/lv_draw/lv_draw_label.c:559:22
	ldr	r0, [sp, #208]
	adds	r0, #1
	str	r0, [sp, #208]
	b	.LBB9_47
.Ltmp262:
.LBB9_47:                               @   in Loop: Header=BB9_40 Depth=2
	.loc	2 563 19                        @ lvgl/src/lv_draw/lv_draw_label.c:563:19
	ldr	r0, [sp, #84]
	adds	r0, #1
	str	r0, [sp, #84]
	.loc	2 564 9                         @ lvgl/src/lv_draw/lv_draw_label.c:564:9
	b	.LBB9_48
.Ltmp263:
.LBB9_48:                               @   in Loop: Header=BB9_40 Depth=2
	.loc	2 541 48                        @ lvgl/src/lv_draw/lv_draw_label.c:541:48
	ldr	r0, [sp, #144]
	adds	r0, #1
	str	r0, [sp, #144]
	.loc	2 541 9 is_stmt 0               @ lvgl/src/lv_draw/lv_draw_label.c:541:9
	b	.LBB9_40
.Ltmp264:
.LBB9_49:                               @   in Loop: Header=BB9_38 Depth=1
	.loc	2 567 12 is_stmt 1              @ lvgl/src/lv_draw/lv_draw_label.c:567:12
	ldrb.w	r0, [sp, #75]
.Ltmp265:
	.loc	2 567 12 is_stmt 0              @ lvgl/src/lv_draw/lv_draw_label.c:567:12
	cbz	r0, .LBB9_53
	b	.LBB9_50
.LBB9_50:                               @   in Loop: Header=BB9_38 Depth=1
.Ltmp266:
	.loc	2 568 62 is_stmt 1              @ lvgl/src/lv_draw/lv_draw_label.c:568:62
	ldr	r0, [sp, #88]
	.loc	2 568 73 is_stmt 0              @ lvgl/src/lv_draw/lv_draw_label.c:568:73
	ldr	r1, [sp, #60]
	.loc	2 568 71                        @ lvgl/src/lv_draw/lv_draw_label.c:568:71
	add	r0, r1
	.loc	2 568 97                        @ lvgl/src/lv_draw/lv_draw_label.c:568:97
	str	r0, [sp, #24]                   @ 4-byte Spill
	ldrsh.w	r0, [sp, #76]
	.loc	2 568 111                       @ lvgl/src/lv_draw/lv_draw_label.c:568:111
	str	r0, [sp, #16]                   @ 4-byte Spill
	ldrsh.w	r0, [sp, #82]
	.loc	2 569 62 is_stmt 1              @ lvgl/src/lv_draw/lv_draw_label.c:569:62
	str	r0, [sp, #20]                   @ 4-byte Spill
	add	r0, sp, #76
	bl	lv_area_get_width
	ldr	r1, [sp, #16]                   @ 4-byte Reload
	ldr	r2, [sp, #20]                   @ 4-byte Reload
	mov	r3, r0
	.loc	2 568 43                        @ lvgl/src/lv_draw/lv_draw_label.c:568:43
	ldr	r0, [sp, #24]                   @ 4-byte Reload
	bl	lv_draw_mask_apply
	.loc	2 568 32 is_stmt 0              @ lvgl/src/lv_draw/lv_draw_label.c:568:32
	strb.w	r0, [sp, #59]
.Ltmp267:
	.loc	2 570 16 is_stmt 1              @ lvgl/src/lv_draw/lv_draw_label.c:570:16
	ldrb.w	r0, [sp, #59]
.Ltmp268:
	.loc	2 570 16 is_stmt 0              @ lvgl/src/lv_draw/lv_draw_label.c:570:16
	cbnz	r0, .LBB9_52
	b	.LBB9_51
.LBB9_51:                               @   in Loop: Header=BB9_38 Depth=1
.Ltmp269:
	.loc	2 571 31 is_stmt 1              @ lvgl/src/lv_draw/lv_draw_label.c:571:31
	ldr	r0, [sp, #88]
	.loc	2 571 42 is_stmt 0              @ lvgl/src/lv_draw/lv_draw_label.c:571:42
	ldr	r1, [sp, #60]
	.loc	2 571 40                        @ lvgl/src/lv_draw/lv_draw_label.c:571:40
	add	r0, r1
	.loc	2 571 56                        @ lvgl/src/lv_draw/lv_draw_label.c:571:56
	str	r0, [sp, #12]                   @ 4-byte Spill
	add	r0, sp, #76
	bl	lv_area_get_width
	mov	r1, r0
	.loc	2 571 17                        @ lvgl/src/lv_draw/lv_draw_label.c:571:17
	ldr	r0, [sp, #12]                   @ 4-byte Reload
	bl	_lv_memset_00
	.loc	2 572 13 is_stmt 1              @ lvgl/src/lv_draw/lv_draw_label.c:572:13
	b	.LBB9_52
.Ltmp270:
.LBB9_52:                               @   in Loop: Header=BB9_38 Depth=1
	.loc	2 573 9                         @ lvgl/src/lv_draw/lv_draw_label.c:573:9
	b	.LBB9_53
.Ltmp271:
.LBB9_53:                               @   in Loop: Header=BB9_38 Depth=1
	.loc	2 575 23                        @ lvgl/src/lv_draw/lv_draw_label.c:575:23
	ldr	r0, [sp, #84]
	.loc	2 575 33 is_stmt 0              @ lvgl/src/lv_draw/lv_draw_label.c:575:33
	ldr	r1, [sp, #120]
	.loc	2 575 43                        @ lvgl/src/lv_draw/lv_draw_label.c:575:43
	ldr	r2, [sp, #124]
	.loc	2 575 41                        @ lvgl/src/lv_draw/lv_draw_label.c:575:41
	subs	r1, r1, r2
	.loc	2 575 30                        @ lvgl/src/lv_draw/lv_draw_label.c:575:30
	add	r0, r1
	.loc	2 575 56                        @ lvgl/src/lv_draw/lv_draw_label.c:575:56
	ldr	r1, [sp, #92]
.Ltmp272:
	.loc	2 575 12                        @ lvgl/src/lv_draw/lv_draw_label.c:575:12
	cmp	r0, r1
	bhs	.LBB9_55
	b	.LBB9_54
.LBB9_54:                               @   in Loop: Header=BB9_38 Depth=1
.Ltmp273:
	.loc	2 576 26 is_stmt 1              @ lvgl/src/lv_draw/lv_draw_label.c:576:26
	ldrh.w	r0, [sp, #82]
	adds	r0, #1
	strh.w	r0, [sp, #82]
	.loc	2 577 9                         @ lvgl/src/lv_draw/lv_draw_label.c:577:9
	b	.LBB9_56
.Ltmp274:
.LBB9_55:                               @   in Loop: Header=BB9_38 Depth=1
	.loc	2 579 28                        @ lvgl/src/lv_draw/lv_draw_label.c:579:28
	ldr	r0, [sp, #176]
	.loc	2 580 35                        @ lvgl/src/lv_draw/lv_draw_label.c:580:35
	ldr	r3, [sp, #88]
	.loc	2 581 28                        @ lvgl/src/lv_draw/lv_draw_label.c:581:28
	ldrb.w	r1, [sp, #174]
	.loc	2 579 13                        @ lvgl/src/lv_draw/lv_draw_label.c:579:13
	ldr	r2, [sp, #188]
	mov	r12, sp
	str.w	r1, [r12, #8]
	movs	r1, #255
	str.w	r1, [r12, #4]
	movs	r1, #2
	str.w	r1, [r12]
	add	r1, sp, #76
	bl	_lv_blend_fill
	.loc	2 583 28                        @ lvgl/src/lv_draw/lv_draw_label.c:583:28
	ldrh.w	r0, [sp, #82]
	.loc	2 583 41 is_stmt 0              @ lvgl/src/lv_draw/lv_draw_label.c:583:41
	adds	r0, #1
	.loc	2 583 26                        @ lvgl/src/lv_draw/lv_draw_label.c:583:26
	strh.w	r0, [sp, #78]
	.loc	2 584 38 is_stmt 1              @ lvgl/src/lv_draw/lv_draw_label.c:584:38
	ldrh.w	r0, [sp, #78]
	.loc	2 584 26 is_stmt 0              @ lvgl/src/lv_draw/lv_draw_label.c:584:26
	strh.w	r0, [sp, #82]
	movs	r0, #0
	.loc	2 585 20 is_stmt 1              @ lvgl/src/lv_draw/lv_draw_label.c:585:20
	str	r0, [sp, #84]
	b	.LBB9_56
.Ltmp275:
.LBB9_56:                               @   in Loop: Header=BB9_38 Depth=1
	.loc	2 588 20                        @ lvgl/src/lv_draw/lv_draw_label.c:588:20
	ldr	r1, [sp, #64]
	.loc	2 588 17 is_stmt 0              @ lvgl/src/lv_draw/lv_draw_label.c:588:17
	ldr	r0, [sp, #100]
	add	r0, r1
	str	r0, [sp, #100]
	.loc	2 589 19 is_stmt 1              @ lvgl/src/lv_draw/lv_draw_label.c:589:19
	ldr	r1, [sp, #100]
	.loc	2 589 15 is_stmt 0              @ lvgl/src/lv_draw/lv_draw_label.c:589:15
	ldr	r0, [sp, #208]
	add.w	r0, r0, r1, lsr #3
	str	r0, [sp, #208]
	.loc	2 590 19 is_stmt 1              @ lvgl/src/lv_draw/lv_draw_label.c:590:19
	ldr	r0, [sp, #100]
	.loc	2 590 27 is_stmt 0              @ lvgl/src/lv_draw/lv_draw_label.c:590:27
	and	r0, r0, #7
	.loc	2 590 17                        @ lvgl/src/lv_draw/lv_draw_label.c:590:17
	str	r0, [sp, #100]
	.loc	2 591 5 is_stmt 1               @ lvgl/src/lv_draw/lv_draw_label.c:591:5
	b	.LBB9_57
.Ltmp276:
.LBB9_57:                               @   in Loop: Header=BB9_38 Depth=1
	.loc	2 537 45                        @ lvgl/src/lv_draw/lv_draw_label.c:537:45
	ldr	r0, [sp, #140]
	adds	r0, #1
	str	r0, [sp, #140]
	.loc	2 537 5 is_stmt 0               @ lvgl/src/lv_draw/lv_draw_label.c:537:5
	b	.LBB9_38
.Ltmp277:
.LBB9_58:
	.loc	2 594 18 is_stmt 1              @ lvgl/src/lv_draw/lv_draw_label.c:594:18
	ldrsh.w	r0, [sp, #78]
	.loc	2 594 34 is_stmt 0              @ lvgl/src/lv_draw/lv_draw_label.c:594:34
	ldrsh.w	r1, [sp, #82]
.Ltmp278:
	.loc	2 594 8                         @ lvgl/src/lv_draw/lv_draw_label.c:594:8
	cmp	r0, r1
	beq	.LBB9_60
	b	.LBB9_59
.LBB9_59:
.Ltmp279:
	.loc	2 595 21 is_stmt 1              @ lvgl/src/lv_draw/lv_draw_label.c:595:21
	ldrh.w	r0, [sp, #82]
	subs	r0, #1
	strh.w	r0, [sp, #82]
	.loc	2 596 24                        @ lvgl/src/lv_draw/lv_draw_label.c:596:24
	ldr	r0, [sp, #176]
	.loc	2 597 31                        @ lvgl/src/lv_draw/lv_draw_label.c:597:31
	ldr	r3, [sp, #88]
	.loc	2 598 24                        @ lvgl/src/lv_draw/lv_draw_label.c:598:24
	ldrb.w	r1, [sp, #174]
	.loc	2 596 9                         @ lvgl/src/lv_draw/lv_draw_label.c:596:9
	ldr	r2, [sp, #188]
	mov	r12, sp
	str.w	r1, [r12, #8]
	movs	r1, #255
	str.w	r1, [r12, #4]
	movs	r1, #2
	str.w	r1, [r12]
	add	r1, sp, #76
	bl	_lv_blend_fill
	movs	r0, #0
	.loc	2 599 16                        @ lvgl/src/lv_draw/lv_draw_label.c:599:16
	str	r0, [sp, #84]
	.loc	2 600 5                         @ lvgl/src/lv_draw/lv_draw_label.c:600:5
	b	.LBB9_60
.Ltmp280:
.LBB9_60:
	.loc	2 602 25                        @ lvgl/src/lv_draw/lv_draw_label.c:602:25
	ldr	r0, [sp, #88]
	.loc	2 602 5 is_stmt 0               @ lvgl/src/lv_draw/lv_draw_label.c:602:5
	bl	_lv_mem_buf_release
	.loc	2 603 1 is_stmt 1               @ lvgl/src/lv_draw/lv_draw_label.c:603:1
	b	.LBB9_61
.LBB9_61:
	add	sp, #192
	pop	{r4, r5, r7, pc}
.Ltmp281:
.Lfunc_end9:
	.size	draw_letter_normal, .Lfunc_end9-draw_letter_normal
	.cfi_endproc
	.cantunwind
	.fnend
                                        @ -- End function
	.hidden	_lv_bpp1_opa_table              @ @_lv_bpp1_opa_table
	.type	_lv_bpp1_opa_table,%object
	.section	.rodata._lv_bpp1_opa_table,"a",%progbits
	.globl	_lv_bpp1_opa_table
_lv_bpp1_opa_table:
	.ascii	"\000\377"
	.size	_lv_bpp1_opa_table, 2

	.hidden	_lv_bpp2_opa_table              @ @_lv_bpp2_opa_table
	.type	_lv_bpp2_opa_table,%object
	.section	.rodata._lv_bpp2_opa_table,"a",%progbits
	.globl	_lv_bpp2_opa_table
_lv_bpp2_opa_table:
	.ascii	"\000U\252\377"
	.size	_lv_bpp2_opa_table, 4

	.hidden	_lv_bpp3_opa_table              @ @_lv_bpp3_opa_table
	.type	_lv_bpp3_opa_table,%object
	.section	.rodata._lv_bpp3_opa_table,"a",%progbits
	.globl	_lv_bpp3_opa_table
_lv_bpp3_opa_table:
	.ascii	"\000$Im\222\266\333\377"
	.size	_lv_bpp3_opa_table, 8

	.hidden	_lv_bpp4_opa_table              @ @_lv_bpp4_opa_table
	.type	_lv_bpp4_opa_table,%object
	.section	.rodata._lv_bpp4_opa_table,"a",%progbits
	.globl	_lv_bpp4_opa_table
_lv_bpp4_opa_table:
	.ascii	"\000\021\"3DUfw\210\231\252\273\314\335\356\377"
	.size	_lv_bpp4_opa_table, 16

	.hidden	_lv_bpp8_opa_table              @ @_lv_bpp8_opa_table
	.type	_lv_bpp8_opa_table,%object
	.section	.rodata._lv_bpp8_opa_table,"a",%progbits
	.globl	_lv_bpp8_opa_table
_lv_bpp8_opa_table:
	.ascii	"\000\001\002\003\004\005\006\007\b\t\n\013\f\r\016\017\020\021\022\023\024\025\026\027\030\031\032\033\034\035\036\037 !\"#$%&'()*+,-./0123456789:;<=>?@ABCDEFGHIJKLMNOPQRSTUVWXYZ[\\]^_`abcdefghijklmnopqrstuvwxyz{|}~\177\200\201\202\203\204\205\206\207\210\211\212\213\214\215\216\217\220\221\222\223\224\225\226\227\230\231\232\233\234\235\236\237\240\241\242\243\244\245\246\247\250\251\252\253\254\255\256\257\260\261\262\263\264\265\266\267\270\271\272\273\274\275\276\277\300\301\302\303\304\305\306\307\310\311\312\313\314\315\316\317\320\321\322\323\324\325\326\327\330\331\332\333\334\335\336\337\340\341\342\343\344\345\346\347\350\351\352\353\354\355\356\357\360\361\362\363\364\365\366\367\370\371\372\373\374\375\376\377"
	.size	_lv_bpp8_opa_table, 256

	.type	.L.str,%object                  @ @.str
	.section	.rodata.str1.1,"aMS",%progbits,1
.L.str:
	.asciz	"#"
	.size	.L.str, 2

	.type	draw_letter_normal.opa_table,%object @ @draw_letter_normal.opa_table
	.section	.bss.draw_letter_normal.opa_table,"aw",%nobits
draw_letter_normal.opa_table:
	.zero	256
	.size	draw_letter_normal.opa_table, 256

	.type	draw_letter_normal.prev_opa,%object @ @draw_letter_normal.prev_opa
	.section	.bss.draw_letter_normal.prev_opa,"aw",%nobits
draw_letter_normal.prev_opa:
	.byte	0                               @ 0x0
	.size	draw_letter_normal.prev_opa, 1

	.type	draw_letter_normal.prev_bpp,%object @ @draw_letter_normal.prev_bpp
	.section	.bss.draw_letter_normal.prev_bpp,"aw",%nobits
	.p2align	2
draw_letter_normal.prev_bpp:
	.long	0                               @ 0x0
	.size	draw_letter_normal.prev_bpp, 4

	.file	12 "E:\\Smart-access-control\\Hardware\\CODE" "lvgl/src/lv_draw/../lv_core/../lv_draw/lv_draw_label.h"
	.file	13 "E:\\Smart-access-control\\Hardware\\CODE" "lvgl/src/lv_draw/../lv_core/../lv_draw/lv_draw_blend.h"
	.file	14 "E:\\Smart-access-control\\Hardware\\CODE" "lvgl/src/lv_draw/../lv_core/../lv_draw/lv_draw_line.h"
	.file	15 "E:\\Smart-access-control\\Hardware\\CODE" "lvgl/src/lv_draw/../lv_core/../lv_draw/lv_draw_rect.h"
	.file	16 "D:\\Keil_v5\\ARM\\ARMCLANG\\Bin\\..\\include" "string.h"
	.file	17 "E:\\Smart-access-control\\Hardware\\CODE" "lvgl/src/lv_draw/../lv_hal/lv_hal_disp.h"
	.file	18 "E:\\Smart-access-control\\Hardware\\CODE" "lvgl/src/lv_draw/../lv_hal/../lv_misc/lv_task.h"
	.file	19 "E:\\Smart-access-control\\Hardware\\CODE" "lvgl/src/lv_draw/../lv_hal/../lv_misc/lv_ll.h"
	.file	20 "E:\\Smart-access-control\\Hardware\\CODE" "lvgl/src/lv_draw/../lv_core/lv_obj.h"
	.file	21 "E:\\Smart-access-control\\Hardware\\CODE" "lvgl/src/lv_draw/../lv_core/../lv_misc/lv_types.h"
	.file	22 "E:\\Smart-access-control\\Hardware\\CODE" "lvgl/src/lv_draw/../lv_hal/lv_hal_indev.h"
	.section	".note.GNU-stack","",%progbits
	.eabi_attribute	30, 6	@ Tag_ABI_optimization_goals
	.ARM_attribute	16, 1	@ Tag_AV_eba