	.text
	.syntax unified
	.eabi_attribute	67, "2.09"	@ Tag_conformance
	.cpu	cortex-m7
	.eabi_attribute	6, 13	@ Tag_CPU_arch
	.eabi_attribute	7, 77	@ Tag_CPU_arch_profile
	.eabi_attribute	8, 0	@ Tag_ARM_ISA_use
	.eabi_attribute	9, 2	@ Tag_THUMB_ISA_use
	.fpu	fpv5-d16
	.eabi_attribute	36, 1	@ Tag_FP_HP_extension
	.eabi_attribute	34, 1	@ Tag_CPU_unaligned_access
	.eabi_attribute	17, 1	@ Tag_ABI_PCS_GOT_use
	.eabi_attribute	20, 2	@ Tag_ABI_FP_denormal
	.eabi_attribute	21, 0	@ Tag_ABI_FP_exceptions
	.eabi_attribute	23, 1	@ Tag_ABI_FP_number_model
	.eabi_attribute	24, 1	@ Tag_ABI_align_needed
	.eabi_attribute	25, 1	@ Tag_ABI_align_preserved
	.eabi_attribute	28, 1	@ Tag_ABI_VFP_args
	.eabi_attribute	38, 1	@ Tag_ABI_FP_16bit_format
	.eabi_attribute	18, 2	@ Tag_ABI_PCS_wchar_t
	.eabi_attribute	26, 1	@ Tag_ABI_enum_size
	.eabi_attribute	14, 0	@ Tag_ABI_PCS_R9_use
	.file	"lv_draw_arc.c"
	.file	1 "E:\\Smart-access-control\\Hardware\\CODE" "lvgl/src/lv_draw/../lv_misc/lv_color.h"
	.section	.text.lv_draw_arc,"ax",%progbits
	.hidden	lv_draw_arc                     @ -- Begin function lv_draw_arc
	.globl	lv_draw_arc
	.p2align	3
	.type	lv_draw_arc,%function
	.code	16                              @ @lv_draw_arc
	.thumb_func
lv_draw_arc:
.Lfunc_begin0:
	.file	2 "E:\\Smart-access-control\\Hardware\\CODE" "lvgl/src/lv_draw/lv_draw_arc.c"
	.loc	2 71 0                          @ lvgl/src/lv_draw/lv_draw_arc.c:71:0
	.fnstart
	.cfi_sections .debug_frame
	.cfi_startproc
@ %bb.0:
	.save	{r7, lr}
	push	{r7, lr}
	.cfi_def_cfa_offset 8
	.cfi_offset lr, -4
	.cfi_offset r7, -8
	.pad	#296
	sub	sp, #296
	.cfi_def_cfa_offset 304
	mov	r12, r0
	ldr	r0, [sp, #312]
	ldr	r0, [sp, #308]
	ldr	r0, [sp, #304]
                                        @ kill: def $lr killed $r3
                                        @ kill: def $lr killed $r2
                                        @ kill: def $lr killed $r1
                                        @ kill: def $lr killed $r12
	strh.w	r12, [sp, #294]
	strh.w	r1, [sp, #292]
	strh.w	r2, [sp, #290]
	strh.w	r3, [sp, #288]
	strh.w	r0, [sp, #286]
.Ltmp0:
	.loc	2 72 8 prologue_end             @ lvgl/src/lv_draw/lv_draw_arc.c:72:8
	ldr	r0, [sp, #312]
	.loc	2 72 13 is_stmt 0               @ lvgl/src/lv_draw/lv_draw_arc.c:72:13
	ldrb	r0, [r0, #10]
.Ltmp1:
	.loc	2 72 8                          @ lvgl/src/lv_draw/lv_draw_arc.c:72:8
	cmp	r0, #2
	bgt	.LBB0_2
	b	.LBB0_1
.LBB0_1:
.Ltmp2:
	.loc	2 72 32                         @ lvgl/src/lv_draw/lv_draw_arc.c:72:32
	b	.LBB0_29
.Ltmp3:
.LBB0_2:
	.loc	2 73 8 is_stmt 1                @ lvgl/src/lv_draw/lv_draw_arc.c:73:8
	ldr	r0, [sp, #312]
	.loc	2 73 13 is_stmt 0               @ lvgl/src/lv_draw/lv_draw_arc.c:73:13
	ldrsh.w	r0, [r0, #4]
.Ltmp4:
	.loc	2 73 8                          @ lvgl/src/lv_draw/lv_draw_arc.c:73:8
	cbnz	r0, .LBB0_4
	b	.LBB0_3
.LBB0_3:
.Ltmp5:
	.loc	2 73 25                         @ lvgl/src/lv_draw/lv_draw_arc.c:73:25
	b	.LBB0_29
.Ltmp6:
.LBB0_4:
	.loc	2 74 8 is_stmt 1                @ lvgl/src/lv_draw/lv_draw_arc.c:74:8
	ldrh.w	r0, [sp, #288]
	.loc	2 74 23 is_stmt 0               @ lvgl/src/lv_draw/lv_draw_arc.c:74:23
	ldrh.w	r1, [sp, #286]
.Ltmp7:
	.loc	2 74 8                          @ lvgl/src/lv_draw/lv_draw_arc.c:74:8
	cmp	r0, r1
	bne	.LBB0_6
	b	.LBB0_5
.LBB0_5:
.Ltmp8:
	.loc	2 74 34                         @ lvgl/src/lv_draw/lv_draw_arc.c:74:34
	b	.LBB0_29
.Ltmp9:
.LBB0_6:
	.loc	2 76 28 is_stmt 1               @ lvgl/src/lv_draw/lv_draw_arc.c:76:28
	ldr	r0, [sp, #312]
	.loc	2 76 33 is_stmt 0               @ lvgl/src/lv_draw/lv_draw_arc.c:76:33
	ldrh	r0, [r0, #4]
	.loc	2 76 20                         @ lvgl/src/lv_draw/lv_draw_arc.c:76:20
	strh.w	r0, [sp, #284]
.Ltmp10:
	.loc	2 77 8 is_stmt 1                @ lvgl/src/lv_draw/lv_draw_arc.c:77:8
	ldrsh.w	r0, [sp, #284]
	.loc	2 77 16 is_stmt 0               @ lvgl/src/lv_draw/lv_draw_arc.c:77:16
	ldrh.w	r1, [sp, #290]
.Ltmp11:
	.loc	2 77 8                          @ lvgl/src/lv_draw/lv_draw_arc.c:77:8
	cmp	r0, r1
	ble	.LBB0_8
	b	.LBB0_7
.LBB0_7:
.Ltmp12:
	.loc	2 77 32                         @ lvgl/src/lv_draw/lv_draw_arc.c:77:32
	ldrh.w	r0, [sp, #290]
	.loc	2 77 30                         @ lvgl/src/lv_draw/lv_draw_arc.c:77:30
	strh.w	r0, [sp, #284]
	.loc	2 77 24                         @ lvgl/src/lv_draw/lv_draw_arc.c:77:24
	b	.LBB0_8
.Ltmp13:
.LBB0_8:
	.loc	2 0 24                          @ lvgl/src/lv_draw/lv_draw_arc.c:0:24
	add	r0, sp, #180
	.loc	2 80 5 is_stmt 1                @ lvgl/src/lv_draw/lv_draw_arc.c:80:5
	bl	lv_draw_rect_dsc_init
	movw	r0, #32767
	.loc	2 81 20                         @ lvgl/src/lv_draw/lv_draw_arc.c:81:20
	strh.w	r0, [sp, #180]
	movs	r0, #0
	.loc	2 82 20                         @ lvgl/src/lv_draw/lv_draw_arc.c:82:20
	strb.w	r0, [sp, #198]
	.loc	2 83 26                         @ lvgl/src/lv_draw/lv_draw_arc.c:83:26
	ldr	r0, [sp, #312]
	.loc	2 83 31 is_stmt 0               @ lvgl/src/lv_draw/lv_draw_arc.c:83:31
	ldrb	r0, [r0, #10]
	.loc	2 83 24                         @ lvgl/src/lv_draw/lv_draw_arc.c:83:24
	strb.w	r0, [sp, #208]
	.loc	2 84 28 is_stmt 1               @ lvgl/src/lv_draw/lv_draw_arc.c:84:28
	ldr	r0, [sp, #312]
	.loc	2 84 33 is_stmt 0               @ lvgl/src/lv_draw/lv_draw_arc.c:84:33
	ldr	r0, [r0]
	str	r0, [sp, #200]
	.loc	2 85 28 is_stmt 1               @ lvgl/src/lv_draw/lv_draw_arc.c:85:28
	ldrh.w	r0, [sp, #284]
	.loc	2 85 26 is_stmt 0               @ lvgl/src/lv_draw/lv_draw_arc.c:85:26
	strh.w	r0, [sp, #204]
	.loc	2 86 33 is_stmt 1               @ lvgl/src/lv_draw/lv_draw_arc.c:86:33
	ldr	r0, [sp, #312]
	.loc	2 86 38 is_stmt 0               @ lvgl/src/lv_draw/lv_draw_arc.c:86:38
	ldrb	r0, [r0, #11]
	and	r0, r0, #3
	.loc	2 86 31                         @ lvgl/src/lv_draw/lv_draw_arc.c:86:31
	strb.w	r0, [sp, #209]
	.loc	2 89 15 is_stmt 1               @ lvgl/src/lv_draw/lv_draw_arc.c:89:15
	ldrh.w	r0, [sp, #294]
	.loc	2 89 26 is_stmt 0               @ lvgl/src/lv_draw/lv_draw_arc.c:89:26
	ldrh.w	r1, [sp, #290]
	.loc	2 89 24                         @ lvgl/src/lv_draw/lv_draw_arc.c:89:24
	subs	r0, r0, r1
	.loc	2 89 13                         @ lvgl/src/lv_draw/lv_draw_arc.c:89:13
	strh.w	r0, [sp, #172]
	.loc	2 90 15 is_stmt 1               @ lvgl/src/lv_draw/lv_draw_arc.c:90:15
	ldrh.w	r0, [sp, #292]
	.loc	2 90 26 is_stmt 0               @ lvgl/src/lv_draw/lv_draw_arc.c:90:26
	ldrh.w	r1, [sp, #290]
	.loc	2 90 24                         @ lvgl/src/lv_draw/lv_draw_arc.c:90:24
	subs	r0, r0, r1
	.loc	2 90 13                         @ lvgl/src/lv_draw/lv_draw_arc.c:90:13
	strh.w	r0, [sp, #174]
	.loc	2 91 15 is_stmt 1               @ lvgl/src/lv_draw/lv_draw_arc.c:91:15
	ldrh.w	r0, [sp, #294]
	.loc	2 91 26 is_stmt 0               @ lvgl/src/lv_draw/lv_draw_arc.c:91:26
	ldrh.w	r1, [sp, #290]
	.loc	2 91 24                         @ lvgl/src/lv_draw/lv_draw_arc.c:91:24
	add	r0, r1
	.loc	2 91 33                         @ lvgl/src/lv_draw/lv_draw_arc.c:91:33
	subs	r0, #1
	.loc	2 91 13                         @ lvgl/src/lv_draw/lv_draw_arc.c:91:13
	strh.w	r0, [sp, #176]
	.loc	2 92 15 is_stmt 1               @ lvgl/src/lv_draw/lv_draw_arc.c:92:15
	ldrh.w	r0, [sp, #292]
	.loc	2 92 26 is_stmt 0               @ lvgl/src/lv_draw/lv_draw_arc.c:92:26
	ldrh.w	r1, [sp, #290]
	.loc	2 92 24                         @ lvgl/src/lv_draw/lv_draw_arc.c:92:24
	add	r0, r1
	.loc	2 92 33                         @ lvgl/src/lv_draw/lv_draw_arc.c:92:33
	subs	r0, #1
	.loc	2 92 13                         @ lvgl/src/lv_draw/lv_draw_arc.c:92:13
	strh.w	r0, [sp, #178]
.Ltmp14:
	.loc	2 95 8 is_stmt 1                @ lvgl/src/lv_draw/lv_draw_arc.c:95:8
	ldrh.w	r0, [sp, #288]
	.loc	2 95 20 is_stmt 0               @ lvgl/src/lv_draw/lv_draw_arc.c:95:20
	add.w	r0, r0, #360
	.loc	2 95 29                         @ lvgl/src/lv_draw/lv_draw_arc.c:95:29
	ldrh.w	r1, [sp, #286]
	.loc	2 95 39                         @ lvgl/src/lv_draw/lv_draw_arc.c:95:39
	cmp	r0, r1
	beq	.LBB0_10
	b	.LBB0_9
.LBB0_9:
	.loc	2 95 42                         @ lvgl/src/lv_draw/lv_draw_arc.c:95:42
	ldrh.w	r0, [sp, #288]
	.loc	2 95 57                         @ lvgl/src/lv_draw/lv_draw_arc.c:95:57
	ldrh.w	r1, [sp, #286]
	.loc	2 95 67                         @ lvgl/src/lv_draw/lv_draw_arc.c:95:67
	add.w	r1, r1, #360
.Ltmp15:
	.loc	2 95 8                          @ lvgl/src/lv_draw/lv_draw_arc.c:95:8
	cmp	r0, r1
	bne	.LBB0_11
	b	.LBB0_10
.LBB0_10:
.Ltmp16:
	.loc	2 96 29 is_stmt 1               @ lvgl/src/lv_draw/lv_draw_arc.c:96:29
	ldr	r1, [sp, #308]
	add	r0, sp, #172
	add	r2, sp, #180
	.loc	2 96 9 is_stmt 0                @ lvgl/src/lv_draw/lv_draw_arc.c:96:9
	bl	lv_draw_rect
	.loc	2 97 9 is_stmt 1                @ lvgl/src/lv_draw/lv_draw_arc.c:97:9
	b	.LBB0_29
.Ltmp17:
.LBB0_11:
	.loc	2 100 8                         @ lvgl/src/lv_draw/lv_draw_arc.c:100:8
	ldrh.w	r0, [sp, #288]
.Ltmp18:
	.loc	2 100 8 is_stmt 0               @ lvgl/src/lv_draw/lv_draw_arc.c:100:8
	cmp.w	r0, #360
	blt	.LBB0_13
	b	.LBB0_12
.LBB0_12:
.Ltmp19:
	.loc	2 100 40                        @ lvgl/src/lv_draw/lv_draw_arc.c:100:40
	ldrh.w	r0, [sp, #288]
	sub.w	r0, r0, #360
	strh.w	r0, [sp, #288]
	.loc	2 100 28                        @ lvgl/src/lv_draw/lv_draw_arc.c:100:28
	b	.LBB0_13
.Ltmp20:
.LBB0_13:
	.loc	2 101 8 is_stmt 1               @ lvgl/src/lv_draw/lv_draw_arc.c:101:8
	ldrh.w	r0, [sp, #286]
.Ltmp21:
	.loc	2 101 8 is_stmt 0               @ lvgl/src/lv_draw/lv_draw_arc.c:101:8
	cmp.w	r0, #360
	blt	.LBB0_15
	b	.LBB0_14
.LBB0_14:
.Ltmp22:
	.loc	2 101 36                        @ lvgl/src/lv_draw/lv_draw_arc.c:101:36
	ldrh.w	r0, [sp, #286]
	sub.w	r0, r0, #360
	strh.w	r0, [sp, #286]
	.loc	2 101 26                        @ lvgl/src/lv_draw/lv_draw_arc.c:101:26
	b	.LBB0_15
.Ltmp23:
.LBB0_15:
	.loc	2 104 48 is_stmt 1              @ lvgl/src/lv_draw/lv_draw_arc.c:104:48
	ldrsh.w	r1, [sp, #294]
	.loc	2 104 58 is_stmt 0              @ lvgl/src/lv_draw/lv_draw_arc.c:104:58
	ldrsh.w	r2, [sp, #292]
	.loc	2 104 68                        @ lvgl/src/lv_draw/lv_draw_arc.c:104:68
	ldrsh.w	r3, [sp, #288]
	.loc	2 104 81                        @ lvgl/src/lv_draw/lv_draw_arc.c:104:81
	ldrsh.w	r0, [sp, #286]
	.loc	2 104 5                         @ lvgl/src/lv_draw/lv_draw_arc.c:104:5
	mov	r12, sp
	str.w	r0, [r12]
	add	r0, sp, #64
	str	r0, [sp, #16]                   @ 4-byte Spill
	bl	lv_draw_mask_angle_init
	ldr	r0, [sp, #16]                   @ 4-byte Reload
	movs	r1, #0
	.loc	2 106 29 is_stmt 1              @ lvgl/src/lv_draw/lv_draw_arc.c:106:29
	bl	lv_draw_mask_add
	.loc	2 106 13 is_stmt 0              @ lvgl/src/lv_draw/lv_draw_arc.c:106:13
	strh.w	r0, [sp, #62]
.Ltmp24:
	.loc	2 109 8 is_stmt 1               @ lvgl/src/lv_draw/lv_draw_arc.c:109:8
	ldrh.w	r0, [sp, #286]
	.loc	2 109 20 is_stmt 0              @ lvgl/src/lv_draw/lv_draw_arc.c:109:20
	ldrh.w	r1, [sp, #288]
.Ltmp25:
	.loc	2 109 8                         @ lvgl/src/lv_draw/lv_draw_arc.c:109:8
	cmp	r0, r1
	ble	.LBB0_17
	b	.LBB0_16
.LBB0_16:
.Ltmp26:
	.loc	2 110 28 is_stmt 1              @ lvgl/src/lv_draw/lv_draw_arc.c:110:28
	ldrh.w	r1, [sp, #286]
	.loc	2 110 40 is_stmt 0              @ lvgl/src/lv_draw/lv_draw_arc.c:110:40
	ldrh.w	r0, [sp, #288]
	.loc	2 110 25                        @ lvgl/src/lv_draw/lv_draw_arc.c:110:25
	subs	r0, r0, r1
	add.w	r0, r0, #360
	.loc	2 110 19                        @ lvgl/src/lv_draw/lv_draw_arc.c:110:19
	str	r0, [sp, #56]
	.loc	2 111 5 is_stmt 1               @ lvgl/src/lv_draw/lv_draw_arc.c:111:5
	b	.LBB0_18
.Ltmp27:
.LBB0_17:
	.loc	2 113 21                        @ lvgl/src/lv_draw/lv_draw_arc.c:113:21
	ldrh.w	r0, [sp, #288]
	.loc	2 113 35 is_stmt 0              @ lvgl/src/lv_draw/lv_draw_arc.c:113:35
	ldrh.w	r1, [sp, #286]
	.loc	2 113 33                        @ lvgl/src/lv_draw/lv_draw_arc.c:113:33
	subs	r0, r0, r1
	.loc	2 113 19                        @ lvgl/src/lv_draw/lv_draw_arc.c:113:19
	str	r0, [sp, #56]
	b	.LBB0_18
.Ltmp28:
.LBB0_18:
	.loc	2 115 8 is_stmt 1               @ lvgl/src/lv_draw/lv_draw_arc.c:115:8
	ldr	r0, [sp, #56]
	.loc	2 115 42 is_stmt 0              @ lvgl/src/lv_draw/lv_draw_arc.c:115:42
	cmp	r0, #61
	blt	.LBB0_21
	b	.LBB0_19
.LBB0_19:
	.loc	2 115 45                        @ lvgl/src/lv_draw/lv_draw_arc.c:115:45
	ldrh.w	r0, [sp, #290]
.Ltmp29:
	.loc	2 115 8                         @ lvgl/src/lv_draw/lv_draw_arc.c:115:8
	cmp	r0, #11
	blt	.LBB0_21
	b	.LBB0_20
.LBB0_20:
.Ltmp30:
	.loc	2 118 26 is_stmt 1              @ lvgl/src/lv_draw/lv_draw_arc.c:118:26
	ldrh.w	r0, [sp, #294]
	.loc	2 118 24 is_stmt 0              @ lvgl/src/lv_draw/lv_draw_arc.c:118:24
	strh.w	r0, [sp, #28]
	.loc	2 119 26 is_stmt 1              @ lvgl/src/lv_draw/lv_draw_arc.c:119:26
	ldrh.w	r0, [sp, #292]
	.loc	2 119 24 is_stmt 0              @ lvgl/src/lv_draw/lv_draw_arc.c:119:24
	strh.w	r0, [sp, #30]
	.loc	2 120 24 is_stmt 1              @ lvgl/src/lv_draw/lv_draw_arc.c:120:24
	ldrh.w	r0, [sp, #290]
	.loc	2 120 22 is_stmt 0              @ lvgl/src/lv_draw/lv_draw_arc.c:120:22
	strh.w	r0, [sp, #32]
	.loc	2 121 29 is_stmt 1              @ lvgl/src/lv_draw/lv_draw_arc.c:121:29
	ldrh.w	r0, [sp, #288]
	.loc	2 121 27 is_stmt 0              @ lvgl/src/lv_draw/lv_draw_arc.c:121:27
	strh.w	r0, [sp, #34]
	.loc	2 122 27 is_stmt 1              @ lvgl/src/lv_draw/lv_draw_arc.c:122:27
	ldrh.w	r0, [sp, #286]
	.loc	2 122 25 is_stmt 0              @ lvgl/src/lv_draw/lv_draw_arc.c:122:25
	strh.w	r0, [sp, #36]
	.loc	2 123 32 is_stmt 1              @ lvgl/src/lv_draw/lv_draw_arc.c:123:32
	ldrh.w	r0, [sp, #288]
	.loc	2 123 44 is_stmt 0              @ lvgl/src/lv_draw/lv_draw_arc.c:123:44
	lsrs	r0, r0, #1
	movw	r1, #24759
	movt	r1, #46603
	umull	r2, r0, r0, r1
	.loc	2 123 50                        @ lvgl/src/lv_draw/lv_draw_arc.c:123:50
	ubfx	r0, r0, #5, #2
	.loc	2 123 29                        @ lvgl/src/lv_draw/lv_draw_arc.c:123:29
	strh.w	r0, [sp, #38]
	.loc	2 124 30 is_stmt 1              @ lvgl/src/lv_draw/lv_draw_arc.c:124:30
	ldrh.w	r0, [sp, #286]
	.loc	2 124 40 is_stmt 0              @ lvgl/src/lv_draw/lv_draw_arc.c:124:40
	lsrs	r0, r0, #1
	umull	r1, r0, r0, r1
	.loc	2 124 46                        @ lvgl/src/lv_draw/lv_draw_arc.c:124:46
	ubfx	r0, r0, #5, #2
	.loc	2 124 27                        @ lvgl/src/lv_draw/lv_draw_arc.c:124:27
	strh.w	r0, [sp, #40]
	.loc	2 125 23 is_stmt 1              @ lvgl/src/lv_draw/lv_draw_arc.c:125:23
	ldrh.w	r0, [sp, #284]
	.loc	2 125 21 is_stmt 0              @ lvgl/src/lv_draw/lv_draw_arc.c:125:21
	strh.w	r0, [sp, #42]
	add	r0, sp, #180
	.loc	2 126 24 is_stmt 1              @ lvgl/src/lv_draw/lv_draw_arc.c:126:24
	str	r0, [sp, #44]
	add	r0, sp, #172
	.loc	2 127 25                        @ lvgl/src/lv_draw/lv_draw_arc.c:127:25
	str	r0, [sp, #48]
	.loc	2 128 27                        @ lvgl/src/lv_draw/lv_draw_arc.c:128:27
	ldr	r0, [sp, #308]
	.loc	2 128 25 is_stmt 0              @ lvgl/src/lv_draw/lv_draw_arc.c:128:25
	str	r0, [sp, #52]
	add	r0, sp, #28
	.loc	2 130 9 is_stmt 1               @ lvgl/src/lv_draw/lv_draw_arc.c:130:9
	str	r0, [sp, #12]                   @ 4-byte Spill
	bl	draw_quarter_0
	ldr	r0, [sp, #12]                   @ 4-byte Reload
	.loc	2 131 9                         @ lvgl/src/lv_draw/lv_draw_arc.c:131:9
	bl	draw_quarter_1
	ldr	r0, [sp, #12]                   @ 4-byte Reload
	.loc	2 132 9                         @ lvgl/src/lv_draw/lv_draw_arc.c:132:9
	bl	draw_quarter_2
	ldr	r0, [sp, #12]                   @ 4-byte Reload
	.loc	2 133 9                         @ lvgl/src/lv_draw/lv_draw_arc.c:133:9
	bl	draw_quarter_3
	.loc	2 134 5                         @ lvgl/src/lv_draw/lv_draw_arc.c:134:5
	b	.LBB0_22
.Ltmp31:
.LBB0_21:
	.loc	2 136 29                        @ lvgl/src/lv_draw/lv_draw_arc.c:136:29
	ldr	r1, [sp, #308]
	add	r0, sp, #172
	add	r2, sp, #180
	.loc	2 136 9 is_stmt 0               @ lvgl/src/lv_draw/lv_draw_arc.c:136:9
	bl	lv_draw_rect
	b	.LBB0_22
.Ltmp32:
.LBB0_22:
	.loc	2 138 28 is_stmt 1              @ lvgl/src/lv_draw/lv_draw_arc.c:138:28
	ldrsh.w	r0, [sp, #62]
	.loc	2 138 5 is_stmt 0               @ lvgl/src/lv_draw/lv_draw_arc.c:138:5
	bl	lv_draw_mask_remove_id
.Ltmp33:
	.loc	2 140 8 is_stmt 1               @ lvgl/src/lv_draw/lv_draw_arc.c:140:8
	ldr	r0, [sp, #312]
	.loc	2 140 13 is_stmt 0              @ lvgl/src/lv_draw/lv_draw_arc.c:140:13
	ldrb	r0, [r0, #11]
	lsrs	r0, r0, #2
	.loc	2 140 25                        @ lvgl/src/lv_draw/lv_draw_arc.c:140:25
	lsls	r0, r0, #31
	cbnz	r0, .LBB0_24
	b	.LBB0_23
.LBB0_23:
	.loc	2 140 28                        @ lvgl/src/lv_draw/lv_draw_arc.c:140:28
	ldr	r0, [sp, #312]
	.loc	2 140 33                        @ lvgl/src/lv_draw/lv_draw_arc.c:140:33
	ldrb	r0, [r0, #11]
	lsrs	r0, r0, #3
.Ltmp34:
	.loc	2 140 8                         @ lvgl/src/lv_draw/lv_draw_arc.c:140:8
	lsls	r0, r0, #31
	cmp	r0, #0
	beq	.LBB0_29
	b	.LBB0_24
.LBB0_24:
.Ltmp35:
	.loc	2 141 35 is_stmt 1              @ lvgl/src/lv_draw/lv_draw_arc.c:141:35
	ldr	r0, [sp, #312]
	.loc	2 141 40 is_stmt 0              @ lvgl/src/lv_draw/lv_draw_arc.c:141:40
	ldr	r0, [r0]
	str	r0, [sp, #184]
	.loc	2 142 33 is_stmt 1              @ lvgl/src/lv_draw/lv_draw_arc.c:142:33
	ldr	r0, [sp, #312]
	.loc	2 142 38 is_stmt 0              @ lvgl/src/lv_draw/lv_draw_arc.c:142:38
	ldrb	r0, [r0, #10]
	.loc	2 142 31                        @ lvgl/src/lv_draw/lv_draw_arc.c:142:31
	strb.w	r0, [sp, #198]
	.loc	2 143 33 is_stmt 1              @ lvgl/src/lv_draw/lv_draw_arc.c:143:33
	ldr	r0, [sp, #312]
	.loc	2 143 38 is_stmt 0              @ lvgl/src/lv_draw/lv_draw_arc.c:143:38
	ldrb	r0, [r0, #11]
	and	r0, r0, #3
	.loc	2 143 31                        @ lvgl/src/lv_draw/lv_draw_arc.c:143:31
	strb.w	r0, [sp, #199]
	movs	r0, #0
	.loc	2 144 30 is_stmt 1              @ lvgl/src/lv_draw/lv_draw_arc.c:144:30
	strh.w	r0, [sp, #204]
.Ltmp36:
	.loc	2 147 12                        @ lvgl/src/lv_draw/lv_draw_arc.c:147:12
	ldr	r0, [sp, #312]
	.loc	2 147 17 is_stmt 0              @ lvgl/src/lv_draw/lv_draw_arc.c:147:17
	ldrb	r0, [r0, #11]
	lsrs	r0, r0, #2
.Ltmp37:
	.loc	2 147 12                        @ lvgl/src/lv_draw/lv_draw_arc.c:147:12
	lsls	r0, r0, #31
	cbz	r0, .LBB0_26
	b	.LBB0_25
.LBB0_25:
.Ltmp38:
	.loc	2 148 30 is_stmt 1              @ lvgl/src/lv_draw/lv_draw_arc.c:148:30
	ldrsh.w	r0, [sp, #288]
	.loc	2 148 43 is_stmt 0              @ lvgl/src/lv_draw/lv_draw_arc.c:148:43
	ldrsh.w	r1, [sp, #290]
	.loc	2 148 51                        @ lvgl/src/lv_draw/lv_draw_arc.c:148:51
	ldrb.w	r2, [sp, #284]
	add	r3, sp, #20
	.loc	2 148 13                        @ lvgl/src/lv_draw/lv_draw_arc.c:148:13
	str	r3, [sp, #8]                    @ 4-byte Spill
	bl	get_rounded_area
	ldr	r0, [sp, #8]                    @ 4-byte Reload
	.loc	2 149 30 is_stmt 1              @ lvgl/src/lv_draw/lv_draw_arc.c:149:30
	ldrh.w	r2, [sp, #294]
	.loc	2 149 27 is_stmt 0              @ lvgl/src/lv_draw/lv_draw_arc.c:149:27
	ldrh.w	r1, [sp, #20]
	add	r1, r2
	strh.w	r1, [sp, #20]
	.loc	2 150 30 is_stmt 1              @ lvgl/src/lv_draw/lv_draw_arc.c:150:30
	ldrh.w	r2, [sp, #294]
	.loc	2 150 27 is_stmt 0              @ lvgl/src/lv_draw/lv_draw_arc.c:150:27
	ldrh.w	r1, [sp, #24]
	add	r1, r2
	strh.w	r1, [sp, #24]
	.loc	2 151 30 is_stmt 1              @ lvgl/src/lv_draw/lv_draw_arc.c:151:30
	ldrh.w	r2, [sp, #292]
	.loc	2 151 27 is_stmt 0              @ lvgl/src/lv_draw/lv_draw_arc.c:151:27
	ldrh.w	r1, [sp, #22]
	add	r1, r2
	strh.w	r1, [sp, #22]
	.loc	2 152 30 is_stmt 1              @ lvgl/src/lv_draw/lv_draw_arc.c:152:30
	ldrh.w	r2, [sp, #292]
	.loc	2 152 27 is_stmt 0              @ lvgl/src/lv_draw/lv_draw_arc.c:152:27
	ldrh.w	r1, [sp, #26]
	add	r1, r2
	strh.w	r1, [sp, #26]
	.loc	2 154 39 is_stmt 1              @ lvgl/src/lv_draw/lv_draw_arc.c:154:39
	ldr	r1, [sp, #308]
	add	r2, sp, #180
	.loc	2 154 13 is_stmt 0              @ lvgl/src/lv_draw/lv_draw_arc.c:154:13
	bl	lv_draw_rect
	.loc	2 155 9 is_stmt 1               @ lvgl/src/lv_draw/lv_draw_arc.c:155:9
	b	.LBB0_26
.Ltmp39:
.LBB0_26:
	.loc	2 157 12                        @ lvgl/src/lv_draw/lv_draw_arc.c:157:12
	ldr	r0, [sp, #312]
	.loc	2 157 17 is_stmt 0              @ lvgl/src/lv_draw/lv_draw_arc.c:157:17
	ldrb	r0, [r0, #11]
	lsrs	r0, r0, #3
.Ltmp40:
	.loc	2 157 12                        @ lvgl/src/lv_draw/lv_draw_arc.c:157:12
	lsls	r0, r0, #31
	cbz	r0, .LBB0_28
	b	.LBB0_27
.LBB0_27:
.Ltmp41:
	.loc	2 158 30 is_stmt 1              @ lvgl/src/lv_draw/lv_draw_arc.c:158:30
	ldrsh.w	r0, [sp, #286]
	.loc	2 158 41 is_stmt 0              @ lvgl/src/lv_draw/lv_draw_arc.c:158:41
	ldrsh.w	r1, [sp, #290]
	.loc	2 158 49                        @ lvgl/src/lv_draw/lv_draw_arc.c:158:49
	ldrb.w	r2, [sp, #284]
	add	r3, sp, #20
	.loc	2 158 13                        @ lvgl/src/lv_draw/lv_draw_arc.c:158:13
	str	r3, [sp, #4]                    @ 4-byte Spill
	bl	get_rounded_area
	ldr	r0, [sp, #4]                    @ 4-byte Reload
	.loc	2 159 30 is_stmt 1              @ lvgl/src/lv_draw/lv_draw_arc.c:159:30
	ldrh.w	r2, [sp, #294]
	.loc	2 159 27 is_stmt 0              @ lvgl/src/lv_draw/lv_draw_arc.c:159:27
	ldrh.w	r1, [sp, #20]
	add	r1, r2
	strh.w	r1, [sp, #20]
	.loc	2 160 30 is_stmt 1              @ lvgl/src/lv_draw/lv_draw_arc.c:160:30
	ldrh.w	r2, [sp, #294]
	.loc	2 160 27 is_stmt 0              @ lvgl/src/lv_draw/lv_draw_arc.c:160:27
	ldrh.w	r1, [sp, #24]
	add	r1, r2
	strh.w	r1, [sp, #24]
	.loc	2 161 30 is_stmt 1              @ lvgl/src/lv_draw/lv_draw_arc.c:161:30
	ldrh.w	r2, [sp, #292]
	.loc	2 161 27 is_stmt 0              @ lvgl/src/lv_draw/lv_draw_arc.c:161:27
	ldrh.w	r1, [sp, #22]
	add	r1, r2
	strh.w	r1, [sp, #22]
	.loc	2 162 30 is_stmt 1              @ lvgl/src/lv_draw/lv_draw_arc.c:162:30
	ldrh.w	r2, [sp, #292]
	.loc	2 162 27 is_stmt 0              @ lvgl/src/lv_draw/lv_draw_arc.c:162:27
	ldrh.w	r1, [sp, #26]
	add	r1, r2
	strh.w	r1, [sp, #26]
	.loc	2 164 39 is_stmt 1              @ lvgl/src/lv_draw/lv_draw_arc.c:164:39
	ldr	r1, [sp, #308]
	add	r2, sp, #180
	.loc	2 164 13 is_stmt 0              @ lvgl/src/lv_draw/lv_draw_arc.c:164:13
	bl	lv_draw_rect
	.loc	2 165 9 is_stmt 1               @ lvgl/src/lv_draw/lv_draw_arc.c:165:9
	b	.LBB0_28
.Ltmp42:
.LBB0_28:
	.loc	2 166 5                         @ lvgl/src/lv_draw/lv_draw_arc.c:166:5
	b	.LBB0_29
.Ltmp43:
.LBB0_29:
	.loc	2 167 1                         @ lvgl/src/lv_draw/lv_draw_arc.c:167:1
	add	sp, #296
	pop	{r7, pc}
.Ltmp44:
.Lfunc_end0:
	.size	lv_draw_arc, .Lfunc_end0-lv_draw_arc
	.cfi_endproc
	.cantunwind
	.fnend
                                        @ -- End function
	.section	.text.draw_quarter_0,"ax",%progbits
	.p2align	3                               @ -- Begin function draw_quarter_0
	.type	draw_quarter_0,%function
	.code	16                              @ @draw_quarter_0
	.thumb_func
draw_quarter_0:
.Lfunc_begin1:
	.loc	2 174 0                         @ lvgl/src/lv_draw/lv_draw_arc.c:174:0
	.fnstart
	.cfi_startproc
@ %bb.0:
	.save	{r7, lr}
	push	{r7, lr}
	.cfi_def_cfa_offset 8
	.cfi_offset lr, -4
	.cfi_offset r7, -8
	.pad	#48
	sub	sp, #48
	.cfi_def_cfa_offset 56
	str	r0, [sp, #44]
.Ltmp45:
	.loc	2 177 8 prologue_end            @ lvgl/src/lv_draw/lv_draw_arc.c:177:8
	ldr	r0, [sp, #44]
	.loc	2 177 11 is_stmt 0              @ lvgl/src/lv_draw/lv_draw_arc.c:177:11
	ldrh	r0, [r0, #10]
	.loc	2 177 30                        @ lvgl/src/lv_draw/lv_draw_arc.c:177:30
	cmp	r0, #0
	bne	.LBB1_6
	b	.LBB1_1
.LBB1_1:
	.loc	2 177 33                        @ lvgl/src/lv_draw/lv_draw_arc.c:177:33
	ldr	r0, [sp, #44]
	.loc	2 177 36                        @ lvgl/src/lv_draw/lv_draw_arc.c:177:36
	ldrh	r0, [r0, #12]
	.loc	2 177 53                        @ lvgl/src/lv_draw/lv_draw_arc.c:177:53
	cmp	r0, #0
	bne	.LBB1_6
	b	.LBB1_2
.LBB1_2:
	.loc	2 177 56                        @ lvgl/src/lv_draw/lv_draw_arc.c:177:56
	ldr	r1, [sp, #44]
	.loc	2 177 59                        @ lvgl/src/lv_draw/lv_draw_arc.c:177:59
	ldrh	r0, [r1, #6]
	.loc	2 177 76                        @ lvgl/src/lv_draw/lv_draw_arc.c:177:76
	ldrh	r1, [r1, #8]
.Ltmp46:
	.loc	2 177 8                         @ lvgl/src/lv_draw/lv_draw_arc.c:177:8
	cmp	r0, r1
	bge	.LBB1_6
	b	.LBB1_3
.LBB1_3:
.Ltmp47:
	.loc	2 179 27 is_stmt 1              @ lvgl/src/lv_draw/lv_draw_arc.c:179:27
	ldr	r0, [sp, #44]
	ldrh	r1, [r0, #2]
	.loc	2 179 60 is_stmt 0              @ lvgl/src/lv_draw/lv_draw_arc.c:179:60
	str	r1, [sp, #16]                   @ 4-byte Spill
	ldrsh.w	r0, [r0, #6]
	.loc	2 179 43                        @ lvgl/src/lv_draw/lv_draw_arc.c:179:43
	bl	_lv_trigo_sin
	mov	r1, r0
	.loc	2 179 76                        @ lvgl/src/lv_draw/lv_draw_arc.c:179:76
	ldr	r0, [sp, #16]                   @ 4-byte Reload
	ldr	r3, [sp, #44]
	.loc	2 179 79                        @ lvgl/src/lv_draw/lv_draw_arc.c:179:79
	ldrsh.w	r2, [r3, #4]
	.loc	2 179 91                        @ lvgl/src/lv_draw/lv_draw_arc.c:179:91
	ldrsh.w	r3, [r3, #14]
	.loc	2 179 86                        @ lvgl/src/lv_draw/lv_draw_arc.c:179:86
	subs	r2, r2, r3
	.loc	2 179 73                        @ lvgl/src/lv_draw/lv_draw_arc.c:179:73
	muls	r1, r2, r1
	.loc	2 179 39                        @ lvgl/src/lv_draw/lv_draw_arc.c:179:39
	add.w	r0, r0, r1, lsr #15
	.loc	2 179 25                        @ lvgl/src/lv_draw/lv_draw_arc.c:179:25
	strh.w	r0, [sp, #38]
	.loc	2 180 27 is_stmt 1              @ lvgl/src/lv_draw/lv_draw_arc.c:180:27
	ldr	r0, [sp, #44]
	ldrh	r1, [r0]
	.loc	2 180 57 is_stmt 0              @ lvgl/src/lv_draw/lv_draw_arc.c:180:57
	str	r1, [sp, #20]                   @ 4-byte Spill
	ldrh	r0, [r0, #6]
	.loc	2 180 72                        @ lvgl/src/lv_draw/lv_draw_arc.c:180:72
	adds	r0, #90
	.loc	2 180 43                        @ lvgl/src/lv_draw/lv_draw_arc.c:180:43
	sxth	r0, r0
	bl	_lv_trigo_sin
	mov	r1, r0
	.loc	2 180 81                        @ lvgl/src/lv_draw/lv_draw_arc.c:180:81
	ldr	r0, [sp, #20]                   @ 4-byte Reload
	ldr	r2, [sp, #44]
	.loc	2 180 84                        @ lvgl/src/lv_draw/lv_draw_arc.c:180:84
	ldrsh.w	r2, [r2, #4]
	.loc	2 180 78                        @ lvgl/src/lv_draw/lv_draw_arc.c:180:78
	muls	r1, r2, r1
	.loc	2 180 39                        @ lvgl/src/lv_draw/lv_draw_arc.c:180:39
	add.w	r0, r0, r1, lsr #15
	.loc	2 180 25                        @ lvgl/src/lv_draw/lv_draw_arc.c:180:25
	strh.w	r0, [sp, #40]
	.loc	2 182 27 is_stmt 1              @ lvgl/src/lv_draw/lv_draw_arc.c:182:27
	ldr	r0, [sp, #44]
	ldrh	r1, [r0, #2]
	.loc	2 182 60 is_stmt 0              @ lvgl/src/lv_draw/lv_draw_arc.c:182:60
	str	r1, [sp, #24]                   @ 4-byte Spill
	ldrsh.w	r0, [r0, #8]
	.loc	2 182 43                        @ lvgl/src/lv_draw/lv_draw_arc.c:182:43
	bl	_lv_trigo_sin
	mov	r1, r0
	.loc	2 182 73                        @ lvgl/src/lv_draw/lv_draw_arc.c:182:73
	ldr	r0, [sp, #24]                   @ 4-byte Reload
	ldr	r2, [sp, #44]
	.loc	2 182 76                        @ lvgl/src/lv_draw/lv_draw_arc.c:182:76
	ldrsh.w	r2, [r2, #4]
	.loc	2 182 71                        @ lvgl/src/lv_draw/lv_draw_arc.c:182:71
	muls	r1, r2, r1
	.loc	2 182 39                        @ lvgl/src/lv_draw/lv_draw_arc.c:182:39
	add.w	r0, r0, r1, lsr #15
	.loc	2 182 25                        @ lvgl/src/lv_draw/lv_draw_arc.c:182:25
	strh.w	r0, [sp, #42]
	.loc	2 183 27 is_stmt 1              @ lvgl/src/lv_draw/lv_draw_arc.c:183:27
	ldr	r0, [sp, #44]
	ldrh	r1, [r0]
	.loc	2 183 57 is_stmt 0              @ lvgl/src/lv_draw/lv_draw_arc.c:183:57
	str	r1, [sp, #28]                   @ 4-byte Spill
	ldrh	r0, [r0, #8]
	.loc	2 183 70                        @ lvgl/src/lv_draw/lv_draw_arc.c:183:70
	adds	r0, #90
	.loc	2 183 43                        @ lvgl/src/lv_draw/lv_draw_arc.c:183:43
	sxth	r0, r0
	bl	_lv_trigo_sin
	mov	r1, r0
	.loc	2 183 79                        @ lvgl/src/lv_draw/lv_draw_arc.c:183:79
	ldr	r0, [sp, #28]                   @ 4-byte Reload
	ldr	r3, [sp, #44]
	.loc	2 183 82                        @ lvgl/src/lv_draw/lv_draw_arc.c:183:82
	ldrsh.w	r2, [r3, #4]
	.loc	2 183 94                        @ lvgl/src/lv_draw/lv_draw_arc.c:183:94
	ldrsh.w	r3, [r3, #14]
	.loc	2 183 89                        @ lvgl/src/lv_draw/lv_draw_arc.c:183:89
	subs	r2, r2, r3
	.loc	2 183 76                        @ lvgl/src/lv_draw/lv_draw_arc.c:183:76
	muls	r1, r2, r1
	.loc	2 183 39                        @ lvgl/src/lv_draw/lv_draw_arc.c:183:39
	add.w	r0, r0, r1, lsr #15
	.loc	2 183 25                        @ lvgl/src/lv_draw/lv_draw_arc.c:183:25
	strh.w	r0, [sp, #36]
	.loc	2 185 68 is_stmt 1              @ lvgl/src/lv_draw/lv_draw_arc.c:185:68
	ldr	r0, [sp, #44]
	.loc	2 185 71 is_stmt 0              @ lvgl/src/lv_draw/lv_draw_arc.c:185:71
	ldr	r2, [r0, #24]
	add	r1, sp, #36
	.loc	2 185 19                        @ lvgl/src/lv_draw/lv_draw_arc.c:185:19
	mov	r0, r1
	bl	_lv_area_intersect
	.loc	2 185 14                        @ lvgl/src/lv_draw/lv_draw_arc.c:185:14
	strb.w	r0, [sp, #35]
.Ltmp48:
	.loc	2 186 12 is_stmt 1              @ lvgl/src/lv_draw/lv_draw_arc.c:186:12
	ldrb.w	r0, [sp, #35]
.Ltmp49:
	.loc	2 186 12 is_stmt 0              @ lvgl/src/lv_draw/lv_draw_arc.c:186:12
	lsls	r0, r0, #31
	cbz	r0, .LBB1_5
	b	.LBB1_4
.LBB1_4:
.Ltmp50:
	.loc	2 186 29                        @ lvgl/src/lv_draw/lv_draw_arc.c:186:29
	ldr	r0, [sp, #44]
	.loc	2 186 61                        @ lvgl/src/lv_draw/lv_draw_arc.c:186:61
	ldr	r2, [r0, #16]
	.loc	2 186 32                        @ lvgl/src/lv_draw/lv_draw_arc.c:186:32
	ldr	r0, [r0, #20]
	add	r1, sp, #36
	.loc	2 186 16                        @ lvgl/src/lv_draw/lv_draw_arc.c:186:16
	bl	lv_draw_rect
	b	.LBB1_5
.Ltmp51:
.LBB1_5:
	.loc	2 187 5 is_stmt 1               @ lvgl/src/lv_draw/lv_draw_arc.c:187:5
	b	.LBB1_31
.Ltmp52:
.LBB1_6:
	.loc	2 188 13                        @ lvgl/src/lv_draw/lv_draw_arc.c:188:13
	ldr	r0, [sp, #44]
	.loc	2 188 16 is_stmt 0              @ lvgl/src/lv_draw/lv_draw_arc.c:188:16
	ldrh	r0, [r0, #10]
	.loc	2 188 35                        @ lvgl/src/lv_draw/lv_draw_arc.c:188:35
	cbz	r0, .LBB1_8
	b	.LBB1_7
.LBB1_7:
	.loc	2 188 38                        @ lvgl/src/lv_draw/lv_draw_arc.c:188:38
	ldr	r0, [sp, #44]
	.loc	2 188 41                        @ lvgl/src/lv_draw/lv_draw_arc.c:188:41
	ldrh	r0, [r0, #12]
.Ltmp53:
	.loc	2 188 13                        @ lvgl/src/lv_draw/lv_draw_arc.c:188:13
	cmp	r0, #0
	bne.w	.LBB1_17
	b	.LBB1_8
.LBB1_8:
.Ltmp54:
	.loc	2 190 12 is_stmt 1              @ lvgl/src/lv_draw/lv_draw_arc.c:190:12
	ldr	r0, [sp, #44]
	.loc	2 190 15 is_stmt 0              @ lvgl/src/lv_draw/lv_draw_arc.c:190:15
	ldrh	r0, [r0, #10]
.Ltmp55:
	.loc	2 190 12                        @ lvgl/src/lv_draw/lv_draw_arc.c:190:12
	cmp	r0, #0
	bne	.LBB1_12
	b	.LBB1_9
.LBB1_9:
.Ltmp56:
	.loc	2 191 31 is_stmt 1              @ lvgl/src/lv_draw/lv_draw_arc.c:191:31
	ldr	r0, [sp, #44]
	.loc	2 191 34 is_stmt 0              @ lvgl/src/lv_draw/lv_draw_arc.c:191:34
	ldrh	r0, [r0]
	.loc	2 191 29                        @ lvgl/src/lv_draw/lv_draw_arc.c:191:29
	strh.w	r0, [sp, #36]
	.loc	2 192 31 is_stmt 1              @ lvgl/src/lv_draw/lv_draw_arc.c:192:31
	ldr	r1, [sp, #44]
	ldrh	r0, [r1, #2]
	.loc	2 192 45 is_stmt 0              @ lvgl/src/lv_draw/lv_draw_arc.c:192:45
	ldrh	r1, [r1, #4]
	.loc	2 192 43                        @ lvgl/src/lv_draw/lv_draw_arc.c:192:43
	add	r0, r1
	.loc	2 192 29                        @ lvgl/src/lv_draw/lv_draw_arc.c:192:29
	strh.w	r0, [sp, #42]
	.loc	2 194 31 is_stmt 1              @ lvgl/src/lv_draw/lv_draw_arc.c:194:31
	ldr	r0, [sp, #44]
	ldrh	r1, [r0, #2]
	.loc	2 194 64 is_stmt 0              @ lvgl/src/lv_draw/lv_draw_arc.c:194:64
	str	r1, [sp, #8]                    @ 4-byte Spill
	ldrsh.w	r0, [r0, #6]
	.loc	2 194 47                        @ lvgl/src/lv_draw/lv_draw_arc.c:194:47
	bl	_lv_trigo_sin
	mov	r1, r0
	.loc	2 194 80                        @ lvgl/src/lv_draw/lv_draw_arc.c:194:80
	ldr	r0, [sp, #8]                    @ 4-byte Reload
	ldr	r3, [sp, #44]
	.loc	2 194 83                        @ lvgl/src/lv_draw/lv_draw_arc.c:194:83
	ldrsh.w	r2, [r3, #4]
	.loc	2 194 95                        @ lvgl/src/lv_draw/lv_draw_arc.c:194:95
	ldrsh.w	r3, [r3, #14]
	.loc	2 194 90                        @ lvgl/src/lv_draw/lv_draw_arc.c:194:90
	subs	r2, r2, r3
	.loc	2 194 77                        @ lvgl/src/lv_draw/lv_draw_arc.c:194:77
	muls	r1, r2, r1
	.loc	2 194 43                        @ lvgl/src/lv_draw/lv_draw_arc.c:194:43
	add.w	r0, r0, r1, lsr #15
	.loc	2 194 29                        @ lvgl/src/lv_draw/lv_draw_arc.c:194:29
	strh.w	r0, [sp, #38]
	.loc	2 195 31 is_stmt 1              @ lvgl/src/lv_draw/lv_draw_arc.c:195:31
	ldr	r0, [sp, #44]
	ldrh	r1, [r0]
	.loc	2 195 61 is_stmt 0              @ lvgl/src/lv_draw/lv_draw_arc.c:195:61
	str	r1, [sp, #12]                   @ 4-byte Spill
	ldrh	r0, [r0, #6]
	.loc	2 195 76                        @ lvgl/src/lv_draw/lv_draw_arc.c:195:76
	adds	r0, #90
	.loc	2 195 47                        @ lvgl/src/lv_draw/lv_draw_arc.c:195:47
	sxth	r0, r0
	bl	_lv_trigo_sin
	mov	r1, r0
	.loc	2 195 85                        @ lvgl/src/lv_draw/lv_draw_arc.c:195:85
	ldr	r0, [sp, #12]                   @ 4-byte Reload
	ldr	r2, [sp, #44]
	.loc	2 195 88                        @ lvgl/src/lv_draw/lv_draw_arc.c:195:88
	ldrsh.w	r2, [r2, #4]
	.loc	2 195 82                        @ lvgl/src/lv_draw/lv_draw_arc.c:195:82
	muls	r1, r2, r1
	.loc	2 195 43                        @ lvgl/src/lv_draw/lv_draw_arc.c:195:43
	add.w	r0, r0, r1, lsr #15
	.loc	2 195 29                        @ lvgl/src/lv_draw/lv_draw_arc.c:195:29
	strh.w	r0, [sp, #40]
	.loc	2 197 72 is_stmt 1              @ lvgl/src/lv_draw/lv_draw_arc.c:197:72
	ldr	r0, [sp, #44]
	.loc	2 197 75 is_stmt 0              @ lvgl/src/lv_draw/lv_draw_arc.c:197:75
	ldr	r2, [r0, #24]
	add	r1, sp, #36
	.loc	2 197 23                        @ lvgl/src/lv_draw/lv_draw_arc.c:197:23
	mov	r0, r1
	bl	_lv_area_intersect
	.loc	2 197 18                        @ lvgl/src/lv_draw/lv_draw_arc.c:197:18
	strb.w	r0, [sp, #34]
.Ltmp57:
	.loc	2 198 16 is_stmt 1              @ lvgl/src/lv_draw/lv_draw_arc.c:198:16
	ldrb.w	r0, [sp, #34]
.Ltmp58:
	.loc	2 198 16 is_stmt 0              @ lvgl/src/lv_draw/lv_draw_arc.c:198:16
	lsls	r0, r0, #31
	cbz	r0, .LBB1_11
	b	.LBB1_10
.LBB1_10:
.Ltmp59:
	.loc	2 198 33                        @ lvgl/src/lv_draw/lv_draw_arc.c:198:33
	ldr	r0, [sp, #44]
	.loc	2 198 65                        @ lvgl/src/lv_draw/lv_draw_arc.c:198:65
	ldr	r2, [r0, #16]
	.loc	2 198 36                        @ lvgl/src/lv_draw/lv_draw_arc.c:198:36
	ldr	r0, [r0, #20]
	add	r1, sp, #36
	.loc	2 198 20                        @ lvgl/src/lv_draw/lv_draw_arc.c:198:20
	bl	lv_draw_rect
	b	.LBB1_11
.Ltmp60:
.LBB1_11:
	.loc	2 199 9 is_stmt 1               @ lvgl/src/lv_draw/lv_draw_arc.c:199:9
	b	.LBB1_12
.Ltmp61:
.LBB1_12:
	.loc	2 200 12                        @ lvgl/src/lv_draw/lv_draw_arc.c:200:12
	ldr	r0, [sp, #44]
	.loc	2 200 15 is_stmt 0              @ lvgl/src/lv_draw/lv_draw_arc.c:200:15
	ldrh	r0, [r0, #12]
.Ltmp62:
	.loc	2 200 12                        @ lvgl/src/lv_draw/lv_draw_arc.c:200:12
	cmp	r0, #0
	bne	.LBB1_16
	b	.LBB1_13
.LBB1_13:
.Ltmp63:
	.loc	2 201 31 is_stmt 1              @ lvgl/src/lv_draw/lv_draw_arc.c:201:31
	ldr	r1, [sp, #44]
	ldrh	r0, [r1]
	.loc	2 201 45 is_stmt 0              @ lvgl/src/lv_draw/lv_draw_arc.c:201:45
	ldrh	r1, [r1, #4]
	.loc	2 201 43                        @ lvgl/src/lv_draw/lv_draw_arc.c:201:43
	add	r0, r1
	.loc	2 201 29                        @ lvgl/src/lv_draw/lv_draw_arc.c:201:29
	strh.w	r0, [sp, #40]
	.loc	2 202 31 is_stmt 1              @ lvgl/src/lv_draw/lv_draw_arc.c:202:31
	ldr	r0, [sp, #44]
	.loc	2 202 34 is_stmt 0              @ lvgl/src/lv_draw/lv_draw_arc.c:202:34
	ldrh	r0, [r0, #2]
	.loc	2 202 29                        @ lvgl/src/lv_draw/lv_draw_arc.c:202:29
	strh.w	r0, [sp, #38]
	.loc	2 204 31 is_stmt 1              @ lvgl/src/lv_draw/lv_draw_arc.c:204:31
	ldr	r0, [sp, #44]
	ldrh	r1, [r0, #2]
	.loc	2 204 64 is_stmt 0              @ lvgl/src/lv_draw/lv_draw_arc.c:204:64
	str	r1, [sp]                        @ 4-byte Spill
	ldrsh.w	r0, [r0, #8]
	.loc	2 204 47                        @ lvgl/src/lv_draw/lv_draw_arc.c:204:47
	bl	_lv_trigo_sin
	mov	r1, r0
	.loc	2 204 77                        @ lvgl/src/lv_draw/lv_draw_arc.c:204:77
	ldr	r0, [sp]                        @ 4-byte Reload
	ldr	r2, [sp, #44]
	.loc	2 204 80                        @ lvgl/src/lv_draw/lv_draw_arc.c:204:80
	ldrsh.w	r2, [r2, #4]
	.loc	2 204 75                        @ lvgl/src/lv_draw/lv_draw_arc.c:204:75
	muls	r1, r2, r1
	.loc	2 204 43                        @ lvgl/src/lv_draw/lv_draw_arc.c:204:43
	add.w	r0, r0, r1, lsr #15
	.loc	2 204 29                        @ lvgl/src/lv_draw/lv_draw_arc.c:204:29
	strh.w	r0, [sp, #42]
	.loc	2 205 31 is_stmt 1              @ lvgl/src/lv_draw/lv_draw_arc.c:205:31
	ldr	r0, [sp, #44]
	ldrh	r1, [r0]
	.loc	2 205 61 is_stmt 0              @ lvgl/src/lv_draw/lv_draw_arc.c:205:61
	str	r1, [sp, #4]                    @ 4-byte Spill
	ldrh	r0, [r0, #8]
	.loc	2 205 74                        @ lvgl/src/lv_draw/lv_draw_arc.c:205:74
	adds	r0, #90
	.loc	2 205 47                        @ lvgl/src/lv_draw/lv_draw_arc.c:205:47
	sxth	r0, r0
	bl	_lv_trigo_sin
	mov	r1, r0
	.loc	2 205 83                        @ lvgl/src/lv_draw/lv_draw_arc.c:205:83
	ldr	r0, [sp, #4]                    @ 4-byte Reload
	ldr	r3, [sp, #44]
	.loc	2 205 86                        @ lvgl/src/lv_draw/lv_draw_arc.c:205:86
	ldrsh.w	r2, [r3, #4]
	.loc	2 205 98                        @ lvgl/src/lv_draw/lv_draw_arc.c:205:98
	ldrsh.w	r3, [r3, #14]
	.loc	2 205 93                        @ lvgl/src/lv_draw/lv_draw_arc.c:205:93
	subs	r2, r2, r3
	.loc	2 205 80                        @ lvgl/src/lv_draw/lv_draw_arc.c:205:80
	muls	r1, r2, r1
	.loc	2 205 43                        @ lvgl/src/lv_draw/lv_draw_arc.c:205:43
	add.w	r0, r0, r1, lsr #15
	.loc	2 205 29                        @ lvgl/src/lv_draw/lv_draw_arc.c:205:29
	strh.w	r0, [sp, #36]
	.loc	2 207 72 is_stmt 1              @ lvgl/src/lv_draw/lv_draw_arc.c:207:72
	ldr	r0, [sp, #44]
	.loc	2 207 75 is_stmt 0              @ lvgl/src/lv_draw/lv_draw_arc.c:207:75
	ldr	r2, [r0, #24]
	add	r1, sp, #36
	.loc	2 207 23                        @ lvgl/src/lv_draw/lv_draw_arc.c:207:23
	mov	r0, r1
	bl	_lv_area_intersect
	.loc	2 207 18                        @ lvgl/src/lv_draw/lv_draw_arc.c:207:18
	strb.w	r0, [sp, #33]
.Ltmp64:
	.loc	2 208 16 is_stmt 1              @ lvgl/src/lv_draw/lv_draw_arc.c:208:16
	ldrb.w	r0, [sp, #33]
.Ltmp65:
	.loc	2 208 16 is_stmt 0              @ lvgl/src/lv_draw/lv_draw_arc.c:208:16
	lsls	r0, r0, #31
	cbz	r0, .LBB1_15
	b	.LBB1_14
.LBB1_14:
.Ltmp66:
	.loc	2 208 33                        @ lvgl/src/lv_draw/lv_draw_arc.c:208:33
	ldr	r0, [sp, #44]
	.loc	2 208 65                        @ lvgl/src/lv_draw/lv_draw_arc.c:208:65
	ldr	r2, [r0, #16]
	.loc	2 208 36                        @ lvgl/src/lv_draw/lv_draw_arc.c:208:36
	ldr	r0, [r0, #20]
	add	r1, sp, #36
	.loc	2 208 20                        @ lvgl/src/lv_draw/lv_draw_arc.c:208:20
	bl	lv_draw_rect
	b	.LBB1_15
.Ltmp67:
.LBB1_15:
	.loc	2 209 9 is_stmt 1               @ lvgl/src/lv_draw/lv_draw_arc.c:209:9
	b	.LBB1_16
.Ltmp68:
.LBB1_16:
	.loc	2 210 5                         @ lvgl/src/lv_draw/lv_draw_arc.c:210:5
	b	.LBB1_30
.Ltmp69:
.LBB1_17:
	.loc	2 211 14                        @ lvgl/src/lv_draw/lv_draw_arc.c:211:14
	ldr	r1, [sp, #44]
	.loc	2 211 17 is_stmt 0              @ lvgl/src/lv_draw/lv_draw_arc.c:211:17
	ldrh	r0, [r1, #10]
	.loc	2 211 37                        @ lvgl/src/lv_draw/lv_draw_arc.c:211:37
	ldrh	r1, [r1, #12]
	.loc	2 211 49                        @ lvgl/src/lv_draw/lv_draw_arc.c:211:49
	cmp	r0, r1
	bne	.LBB1_20
	b	.LBB1_18
.LBB1_18:
	.loc	2 211 52                        @ lvgl/src/lv_draw/lv_draw_arc.c:211:52
	ldr	r0, [sp, #44]
	.loc	2 211 55                        @ lvgl/src/lv_draw/lv_draw_arc.c:211:55
	ldrh	r0, [r0, #10]
	.loc	2 211 74                        @ lvgl/src/lv_draw/lv_draw_arc.c:211:74
	cbz	r0, .LBB1_20
	b	.LBB1_19
.LBB1_19:
	.loc	2 211 77                        @ lvgl/src/lv_draw/lv_draw_arc.c:211:77
	ldr	r1, [sp, #44]
	.loc	2 211 80                        @ lvgl/src/lv_draw/lv_draw_arc.c:211:80
	ldrh	r0, [r1, #8]
	.loc	2 211 95                        @ lvgl/src/lv_draw/lv_draw_arc.c:211:95
	ldrh	r1, [r1, #6]
	.loc	2 211 108                       @ lvgl/src/lv_draw/lv_draw_arc.c:211:108
	cmp	r0, r1
	blt	.LBB1_26
	b	.LBB1_20
.LBB1_20:
	.loc	2 212 14 is_stmt 1              @ lvgl/src/lv_draw/lv_draw_arc.c:212:14
	ldr	r0, [sp, #44]
	.loc	2 212 17 is_stmt 0              @ lvgl/src/lv_draw/lv_draw_arc.c:212:17
	ldrh	r0, [r0, #10]
	.loc	2 212 36                        @ lvgl/src/lv_draw/lv_draw_arc.c:212:36
	cmp	r0, #2
	bne	.LBB1_22
	b	.LBB1_21
.LBB1_21:
	.loc	2 212 39                        @ lvgl/src/lv_draw/lv_draw_arc.c:212:39
	ldr	r0, [sp, #44]
	.loc	2 212 42                        @ lvgl/src/lv_draw/lv_draw_arc.c:212:42
	ldrh	r0, [r0, #12]
	.loc	2 212 60                        @ lvgl/src/lv_draw/lv_draw_arc.c:212:60
	cmp	r0, #1
	beq	.LBB1_26
	b	.LBB1_22
.LBB1_22:
	.loc	2 213 14 is_stmt 1              @ lvgl/src/lv_draw/lv_draw_arc.c:213:14
	ldr	r0, [sp, #44]
	.loc	2 213 17 is_stmt 0              @ lvgl/src/lv_draw/lv_draw_arc.c:213:17
	ldrh	r0, [r0, #10]
	.loc	2 213 36                        @ lvgl/src/lv_draw/lv_draw_arc.c:213:36
	cmp	r0, #3
	bne	.LBB1_24
	b	.LBB1_23
.LBB1_23:
	.loc	2 213 39                        @ lvgl/src/lv_draw/lv_draw_arc.c:213:39
	ldr	r0, [sp, #44]
	.loc	2 213 42                        @ lvgl/src/lv_draw/lv_draw_arc.c:213:42
	ldrh	r0, [r0, #12]
	.loc	2 213 60                        @ lvgl/src/lv_draw/lv_draw_arc.c:213:60
	cmp	r0, #2
	beq	.LBB1_26
	b	.LBB1_24
.LBB1_24:
	.loc	2 214 14 is_stmt 1              @ lvgl/src/lv_draw/lv_draw_arc.c:214:14
	ldr	r0, [sp, #44]
	.loc	2 214 17 is_stmt 0              @ lvgl/src/lv_draw/lv_draw_arc.c:214:17
	ldrh	r0, [r0, #10]
	.loc	2 214 36                        @ lvgl/src/lv_draw/lv_draw_arc.c:214:36
	cmp	r0, #3
	bne	.LBB1_29
	b	.LBB1_25
.LBB1_25:
	.loc	2 214 39                        @ lvgl/src/lv_draw/lv_draw_arc.c:214:39
	ldr	r0, [sp, #44]
	.loc	2 214 42                        @ lvgl/src/lv_draw/lv_draw_arc.c:214:42
	ldrh	r0, [r0, #12]
.Ltmp70:
	.loc	2 211 13 is_stmt 1              @ lvgl/src/lv_draw/lv_draw_arc.c:211:13
	cmp	r0, #1
	bne	.LBB1_29
	b	.LBB1_26
.LBB1_26:
.Ltmp71:
	.loc	2 216 27                        @ lvgl/src/lv_draw/lv_draw_arc.c:216:27
	ldr	r0, [sp, #44]
	.loc	2 216 30 is_stmt 0              @ lvgl/src/lv_draw/lv_draw_arc.c:216:30
	ldrh	r0, [r0]
	.loc	2 216 25                        @ lvgl/src/lv_draw/lv_draw_arc.c:216:25
	strh.w	r0, [sp, #36]
	.loc	2 217 27 is_stmt 1              @ lvgl/src/lv_draw/lv_draw_arc.c:217:27
	ldr	r0, [sp, #44]
	.loc	2 217 30 is_stmt 0              @ lvgl/src/lv_draw/lv_draw_arc.c:217:30
	ldrh	r0, [r0, #2]
	.loc	2 217 25                        @ lvgl/src/lv_draw/lv_draw_arc.c:217:25
	strh.w	r0, [sp, #38]
	.loc	2 218 27 is_stmt 1              @ lvgl/src/lv_draw/lv_draw_arc.c:218:27
	ldr	r1, [sp, #44]
	ldrh	r0, [r1]
	.loc	2 218 41 is_stmt 0              @ lvgl/src/lv_draw/lv_draw_arc.c:218:41
	ldrh	r1, [r1, #4]
	.loc	2 218 39                        @ lvgl/src/lv_draw/lv_draw_arc.c:218:39
	add	r0, r1
	.loc	2 218 25                        @ lvgl/src/lv_draw/lv_draw_arc.c:218:25
	strh.w	r0, [sp, #40]
	.loc	2 219 27 is_stmt 1              @ lvgl/src/lv_draw/lv_draw_arc.c:219:27
	ldr	r1, [sp, #44]
	ldrh	r0, [r1, #2]
	.loc	2 219 41 is_stmt 0              @ lvgl/src/lv_draw/lv_draw_arc.c:219:41
	ldrh	r1, [r1, #4]
	.loc	2 219 39                        @ lvgl/src/lv_draw/lv_draw_arc.c:219:39
	add	r0, r1
	.loc	2 219 25                        @ lvgl/src/lv_draw/lv_draw_arc.c:219:25
	strh.w	r0, [sp, #42]
	.loc	2 221 68 is_stmt 1              @ lvgl/src/lv_draw/lv_draw_arc.c:221:68
	ldr	r0, [sp, #44]
	.loc	2 221 71 is_stmt 0              @ lvgl/src/lv_draw/lv_draw_arc.c:221:71
	ldr	r2, [r0, #24]
	add	r1, sp, #36
	.loc	2 221 19                        @ lvgl/src/lv_draw/lv_draw_arc.c:221:19
	mov	r0, r1
	bl	_lv_area_intersect
	.loc	2 221 14                        @ lvgl/src/lv_draw/lv_draw_arc.c:221:14
	strb.w	r0, [sp, #32]
.Ltmp72:
	.loc	2 222 12 is_stmt 1              @ lvgl/src/lv_draw/lv_draw_arc.c:222:12
	ldrb.w	r0, [sp, #32]
.Ltmp73:
	.loc	2 222 12 is_stmt 0              @ lvgl/src/lv_draw/lv_draw_arc.c:222:12
	lsls	r0, r0, #31
	cbz	r0, .LBB1_28
	b	.LBB1_27
.LBB1_27:
.Ltmp74:
	.loc	2 222 29                        @ lvgl/src/lv_draw/lv_draw_arc.c:222:29
	ldr	r0, [sp, #44]
	.loc	2 222 61                        @ lvgl/src/lv_draw/lv_draw_arc.c:222:61
	ldr	r2, [r0, #16]
	.loc	2 222 32                        @ lvgl/src/lv_draw/lv_draw_arc.c:222:32
	ldr	r0, [r0, #20]
	add	r1, sp, #36
	.loc	2 222 16                        @ lvgl/src/lv_draw/lv_draw_arc.c:222:16
	bl	lv_draw_rect
	b	.LBB1_28
.Ltmp75:
.LBB1_28:
	.loc	2 223 5 is_stmt 1               @ lvgl/src/lv_draw/lv_draw_arc.c:223:5
	b	.LBB1_29
.Ltmp76:
.LBB1_29:
	.loc	2 0 5 is_stmt 0                 @ lvgl/src/lv_draw/lv_draw_arc.c:0:5
	b	.LBB1_30
.LBB1_30:
	b	.LBB1_31
.LBB1_31:
	.loc	2 224 1 is_stmt 1               @ lvgl/src/lv_draw/lv_draw_arc.c:224:1
	add	sp, #48
	pop	{r7, pc}
.Ltmp77:
.Lfunc_end1:
	.size	draw_quarter_0, .Lfunc_end1-draw_quarter_0
	.cfi_endproc
	.cantunwind
	.fnend
                                        @ -- End function
	.section	.text.draw_quarter_1,"ax",%progbits
	.p2align	3                               @ -- Begin function draw_quarter_1
	.type	draw_quarter_1,%function
	.code	16                              @ @draw_quarter_1
	.thumb_func
draw_quarter_1:
.Lfunc_begin2:
	.loc	2 227 0                         @ lvgl/src/lv_draw/lv_draw_arc.c:227:0
	.fnstart
	.cfi_startproc
@ %bb.0:
	.save	{r7, lr}
	push	{r7, lr}
	.cfi_def_cfa_offset 8
	.cfi_offset lr, -4
	.cfi_offset r7, -8
	.pad	#48
	sub	sp, #48
	.cfi_def_cfa_offset 56
	str	r0, [sp, #44]
.Ltmp78:
	.loc	2 230 8 prologue_end            @ lvgl/src/lv_draw/lv_draw_arc.c:230:8
	ldr	r0, [sp, #44]
	.loc	2 230 11 is_stmt 0              @ lvgl/src/lv_draw/lv_draw_arc.c:230:11
	ldrh	r0, [r0, #10]
	.loc	2 230 30                        @ lvgl/src/lv_draw/lv_draw_arc.c:230:30
	cmp	r0, #1
	bne	.LBB2_6
	b	.LBB2_1
.LBB2_1:
	.loc	2 230 33                        @ lvgl/src/lv_draw/lv_draw_arc.c:230:33
	ldr	r0, [sp, #44]
	.loc	2 230 36                        @ lvgl/src/lv_draw/lv_draw_arc.c:230:36
	ldrh	r0, [r0, #12]
	.loc	2 230 53                        @ lvgl/src/lv_draw/lv_draw_arc.c:230:53
	cmp	r0, #1
	bne	.LBB2_6
	b	.LBB2_2
.LBB2_2:
	.loc	2 230 56                        @ lvgl/src/lv_draw/lv_draw_arc.c:230:56
	ldr	r1, [sp, #44]
	.loc	2 230 59                        @ lvgl/src/lv_draw/lv_draw_arc.c:230:59
	ldrh	r0, [r1, #6]
	.loc	2 230 76                        @ lvgl/src/lv_draw/lv_draw_arc.c:230:76
	ldrh	r1, [r1, #8]
.Ltmp79:
	.loc	2 230 8                         @ lvgl/src/lv_draw/lv_draw_arc.c:230:8
	cmp	r0, r1
	bge	.LBB2_6
	b	.LBB2_3
.LBB2_3:
.Ltmp80:
	.loc	2 232 27 is_stmt 1              @ lvgl/src/lv_draw/lv_draw_arc.c:232:27
	ldr	r0, [sp, #44]
	ldrh	r1, [r0, #2]
	.loc	2 232 60 is_stmt 0              @ lvgl/src/lv_draw/lv_draw_arc.c:232:60
	str	r1, [sp, #16]                   @ 4-byte Spill
	ldrsh.w	r0, [r0, #6]
	.loc	2 232 43                        @ lvgl/src/lv_draw/lv_draw_arc.c:232:43
	bl	_lv_trigo_sin
	mov	r1, r0
	.loc	2 232 76                        @ lvgl/src/lv_draw/lv_draw_arc.c:232:76
	ldr	r0, [sp, #16]                   @ 4-byte Reload
	ldr	r2, [sp, #44]
	.loc	2 232 79                        @ lvgl/src/lv_draw/lv_draw_arc.c:232:79
	ldrsh.w	r2, [r2, #4]
	.loc	2 232 73                        @ lvgl/src/lv_draw/lv_draw_arc.c:232:73
	muls	r1, r2, r1
	.loc	2 232 39                        @ lvgl/src/lv_draw/lv_draw_arc.c:232:39
	add.w	r0, r0, r1, lsr #15
	.loc	2 232 25                        @ lvgl/src/lv_draw/lv_draw_arc.c:232:25
	strh.w	r0, [sp, #42]
	.loc	2 233 27 is_stmt 1              @ lvgl/src/lv_draw/lv_draw_arc.c:233:27
	ldr	r0, [sp, #44]
	ldrh	r1, [r0]
	.loc	2 233 57 is_stmt 0              @ lvgl/src/lv_draw/lv_draw_arc.c:233:57
	str	r1, [sp, #20]                   @ 4-byte Spill
	ldrh	r0, [r0, #6]
	.loc	2 233 72                        @ lvgl/src/lv_draw/lv_draw_arc.c:233:72
	adds	r0, #90
	.loc	2 233 43                        @ lvgl/src/lv_draw/lv_draw_arc.c:233:43
	sxth	r0, r0
	bl	_lv_trigo_sin
	mov	r1, r0
	.loc	2 233 81                        @ lvgl/src/lv_draw/lv_draw_arc.c:233:81
	ldr	r0, [sp, #20]                   @ 4-byte Reload
	ldr	r3, [sp, #44]
	.loc	2 233 84                        @ lvgl/src/lv_draw/lv_draw_arc.c:233:84
	ldrsh.w	r2, [r3, #4]
	.loc	2 233 96                        @ lvgl/src/lv_draw/lv_draw_arc.c:233:96
	ldrsh.w	r3, [r3, #14]
	.loc	2 233 91                        @ lvgl/src/lv_draw/lv_draw_arc.c:233:91
	subs	r2, r2, r3
	.loc	2 233 78                        @ lvgl/src/lv_draw/lv_draw_arc.c:233:78
	muls	r1, r2, r1
	.loc	2 233 39                        @ lvgl/src/lv_draw/lv_draw_arc.c:233:39
	add.w	r0, r0, r1, lsr #15
	.loc	2 233 25                        @ lvgl/src/lv_draw/lv_draw_arc.c:233:25
	strh.w	r0, [sp, #40]
	.loc	2 235 27 is_stmt 1              @ lvgl/src/lv_draw/lv_draw_arc.c:235:27
	ldr	r0, [sp, #44]
	ldrh	r1, [r0, #2]
	.loc	2 235 60 is_stmt 0              @ lvgl/src/lv_draw/lv_draw_arc.c:235:60
	str	r1, [sp, #24]                   @ 4-byte Spill
	ldrsh.w	r0, [r0, #8]
	.loc	2 235 43                        @ lvgl/src/lv_draw/lv_draw_arc.c:235:43
	bl	_lv_trigo_sin
	mov	r1, r0
	.loc	2 235 74                        @ lvgl/src/lv_draw/lv_draw_arc.c:235:74
	ldr	r0, [sp, #24]                   @ 4-byte Reload
	ldr	r3, [sp, #44]
	.loc	2 235 77                        @ lvgl/src/lv_draw/lv_draw_arc.c:235:77
	ldrsh.w	r2, [r3, #4]
	.loc	2 235 89                        @ lvgl/src/lv_draw/lv_draw_arc.c:235:89
	ldrsh.w	r3, [r3, #14]
	.loc	2 235 84                        @ lvgl/src/lv_draw/lv_draw_arc.c:235:84
	subs	r2, r2, r3
	.loc	2 235 71                        @ lvgl/src/lv_draw/lv_draw_arc.c:235:71
	muls	r1, r2, r1
	.loc	2 235 39                        @ lvgl/src/lv_draw/lv_draw_arc.c:235:39
	add.w	r0, r0, r1, lsr #15
	.loc	2 235 25                        @ lvgl/src/lv_draw/lv_draw_arc.c:235:25
	strh.w	r0, [sp, #38]
	.loc	2 236 27 is_stmt 1              @ lvgl/src/lv_draw/lv_draw_arc.c:236:27
	ldr	r0, [sp, #44]
	ldrh	r1, [r0]
	.loc	2 236 57 is_stmt 0              @ lvgl/src/lv_draw/lv_draw_arc.c:236:57
	str	r1, [sp, #28]                   @ 4-byte Spill
	ldrh	r0, [r0, #8]
	.loc	2 236 70                        @ lvgl/src/lv_draw/lv_draw_arc.c:236:70
	adds	r0, #90
	.loc	2 236 43                        @ lvgl/src/lv_draw/lv_draw_arc.c:236:43
	sxth	r0, r0
	bl	_lv_trigo_sin
	mov	r1, r0
	.loc	2 236 79                        @ lvgl/src/lv_draw/lv_draw_arc.c:236:79
	ldr	r0, [sp, #28]                   @ 4-byte Reload
	ldr	r2, [sp, #44]
	.loc	2 236 82                        @ lvgl/src/lv_draw/lv_draw_arc.c:236:82
	ldrsh.w	r2, [r2, #4]
	.loc	2 236 76                        @ lvgl/src/lv_draw/lv_draw_arc.c:236:76
	muls	r1, r2, r1
	.loc	2 236 39                        @ lvgl/src/lv_draw/lv_draw_arc.c:236:39
	add.w	r0, r0, r1, lsr #15
	.loc	2 236 25                        @ lvgl/src/lv_draw/lv_draw_arc.c:236:25
	strh.w	r0, [sp, #36]
	.loc	2 238 68 is_stmt 1              @ lvgl/src/lv_draw/lv_draw_arc.c:238:68
	ldr	r0, [sp, #44]
	.loc	2 238 71 is_stmt 0              @ lvgl/src/lv_draw/lv_draw_arc.c:238:71
	ldr	r2, [r0, #24]
	add	r1, sp, #36
	.loc	2 238 19                        @ lvgl/src/lv_draw/lv_draw_arc.c:238:19
	mov	r0, r1
	bl	_lv_area_intersect
	.loc	2 238 14                        @ lvgl/src/lv_draw/lv_draw_arc.c:238:14
	strb.w	r0, [sp, #35]
.Ltmp81:
	.loc	2 239 12 is_stmt 1              @ lvgl/src/lv_draw/lv_draw_arc.c:239:12
	ldrb.w	r0, [sp, #35]
.Ltmp82:
	.loc	2 239 12 is_stmt 0              @ lvgl/src/lv_draw/lv_draw_arc.c:239:12
	lsls	r0, r0, #31
	cbz	r0, .LBB2_5
	b	.LBB2_4
.LBB2_4:
.Ltmp83:
	.loc	2 239 29                        @ lvgl/src/lv_draw/lv_draw_arc.c:239:29
	ldr	r0, [sp, #44]
	.loc	2 239 61                        @ lvgl/src/lv_draw/lv_draw_arc.c:239:61
	ldr	r2, [r0, #16]
	.loc	2 239 32                        @ lvgl/src/lv_draw/lv_draw_arc.c:239:32
	ldr	r0, [r0, #20]
	add	r1, sp, #36
	.loc	2 239 16                        @ lvgl/src/lv_draw/lv_draw_arc.c:239:16
	bl	lv_draw_rect
	b	.LBB2_5
.Ltmp84:
.LBB2_5:
	.loc	2 240 5 is_stmt 1               @ lvgl/src/lv_draw/lv_draw_arc.c:240:5
	b	.LBB2_31
.Ltmp85:
.LBB2_6:
	.loc	2 241 13                        @ lvgl/src/lv_draw/lv_draw_arc.c:241:13
	ldr	r0, [sp, #44]
	.loc	2 241 16 is_stmt 0              @ lvgl/src/lv_draw/lv_draw_arc.c:241:16
	ldrh	r0, [r0, #10]
	.loc	2 241 35                        @ lvgl/src/lv_draw/lv_draw_arc.c:241:35
	cmp	r0, #1
	beq	.LBB2_8
	b	.LBB2_7
.LBB2_7:
	.loc	2 241 38                        @ lvgl/src/lv_draw/lv_draw_arc.c:241:38
	ldr	r0, [sp, #44]
	.loc	2 241 41                        @ lvgl/src/lv_draw/lv_draw_arc.c:241:41
	ldrh	r0, [r0, #12]
.Ltmp86:
	.loc	2 241 13                        @ lvgl/src/lv_draw/lv_draw_arc.c:241:13
	cmp	r0, #1
	bne.w	.LBB2_17
	b	.LBB2_8
.LBB2_8:
.Ltmp87:
	.loc	2 243 12 is_stmt 1              @ lvgl/src/lv_draw/lv_draw_arc.c:243:12
	ldr	r0, [sp, #44]
	.loc	2 243 15 is_stmt 0              @ lvgl/src/lv_draw/lv_draw_arc.c:243:15
	ldrh	r0, [r0, #10]
.Ltmp88:
	.loc	2 243 12                        @ lvgl/src/lv_draw/lv_draw_arc.c:243:12
	cmp	r0, #1
	bne	.LBB2_12
	b	.LBB2_9
.LBB2_9:
.Ltmp89:
	.loc	2 244 31 is_stmt 1              @ lvgl/src/lv_draw/lv_draw_arc.c:244:31
	ldr	r1, [sp, #44]
	ldrh	r0, [r1]
	.loc	2 244 45 is_stmt 0              @ lvgl/src/lv_draw/lv_draw_arc.c:244:45
	ldrh	r1, [r1, #4]
	.loc	2 244 43                        @ lvgl/src/lv_draw/lv_draw_arc.c:244:43
	subs	r0, r0, r1
	.loc	2 244 29                        @ lvgl/src/lv_draw/lv_draw_arc.c:244:29
	strh.w	r0, [sp, #36]
	.loc	2 245 31 is_stmt 1              @ lvgl/src/lv_draw/lv_draw_arc.c:245:31
	ldr	r0, [sp, #44]
	.loc	2 245 34 is_stmt 0              @ lvgl/src/lv_draw/lv_draw_arc.c:245:34
	ldrh	r0, [r0, #2]
	.loc	2 245 29                        @ lvgl/src/lv_draw/lv_draw_arc.c:245:29
	strh.w	r0, [sp, #38]
	.loc	2 247 31 is_stmt 1              @ lvgl/src/lv_draw/lv_draw_arc.c:247:31
	ldr	r0, [sp, #44]
	ldrh	r1, [r0, #2]
	.loc	2 247 64 is_stmt 0              @ lvgl/src/lv_draw/lv_draw_arc.c:247:64
	str	r1, [sp, #8]                    @ 4-byte Spill
	ldrsh.w	r0, [r0, #6]
	.loc	2 247 47                        @ lvgl/src/lv_draw/lv_draw_arc.c:247:47
	bl	_lv_trigo_sin
	mov	r1, r0
	.loc	2 247 80                        @ lvgl/src/lv_draw/lv_draw_arc.c:247:80
	ldr	r0, [sp, #8]                    @ 4-byte Reload
	ldr	r2, [sp, #44]
	.loc	2 247 83                        @ lvgl/src/lv_draw/lv_draw_arc.c:247:83
	ldrsh.w	r2, [r2, #4]
	.loc	2 247 77                        @ lvgl/src/lv_draw/lv_draw_arc.c:247:77
	muls	r1, r2, r1
	.loc	2 247 43                        @ lvgl/src/lv_draw/lv_draw_arc.c:247:43
	add.w	r0, r0, r1, lsr #15
	.loc	2 247 29                        @ lvgl/src/lv_draw/lv_draw_arc.c:247:29
	strh.w	r0, [sp, #42]
	.loc	2 248 31 is_stmt 1              @ lvgl/src/lv_draw/lv_draw_arc.c:248:31
	ldr	r0, [sp, #44]
	ldrh	r1, [r0]
	.loc	2 248 61 is_stmt 0              @ lvgl/src/lv_draw/lv_draw_arc.c:248:61
	str	r1, [sp, #12]                   @ 4-byte Spill
	ldrh	r0, [r0, #6]
	.loc	2 248 76                        @ lvgl/src/lv_draw/lv_draw_arc.c:248:76
	adds	r0, #90
	.loc	2 248 47                        @ lvgl/src/lv_draw/lv_draw_arc.c:248:47
	sxth	r0, r0
	bl	_lv_trigo_sin
	mov	r1, r0
	.loc	2 248 85                        @ lvgl/src/lv_draw/lv_draw_arc.c:248:85
	ldr	r0, [sp, #12]                   @ 4-byte Reload
	ldr	r3, [sp, #44]
	.loc	2 248 88                        @ lvgl/src/lv_draw/lv_draw_arc.c:248:88
	ldrsh.w	r2, [r3, #4]
	.loc	2 248 100                       @ lvgl/src/lv_draw/lv_draw_arc.c:248:100
	ldrsh.w	r3, [r3, #14]
	.loc	2 248 95                        @ lvgl/src/lv_draw/lv_draw_arc.c:248:95
	subs	r2, r2, r3
	.loc	2 248 82                        @ lvgl/src/lv_draw/lv_draw_arc.c:248:82
	muls	r1, r2, r1
	.loc	2 248 43                        @ lvgl/src/lv_draw/lv_draw_arc.c:248:43
	add.w	r0, r0, r1, lsr #15
	.loc	2 248 29                        @ lvgl/src/lv_draw/lv_draw_arc.c:248:29
	strh.w	r0, [sp, #40]
	.loc	2 250 72 is_stmt 1              @ lvgl/src/lv_draw/lv_draw_arc.c:250:72
	ldr	r0, [sp, #44]
	.loc	2 250 75 is_stmt 0              @ lvgl/src/lv_draw/lv_draw_arc.c:250:75
	ldr	r2, [r0, #24]
	add	r1, sp, #36
	.loc	2 250 23                        @ lvgl/src/lv_draw/lv_draw_arc.c:250:23
	mov	r0, r1
	bl	_lv_area_intersect
	.loc	2 250 18                        @ lvgl/src/lv_draw/lv_draw_arc.c:250:18
	strb.w	r0, [sp, #34]
.Ltmp90:
	.loc	2 251 16 is_stmt 1              @ lvgl/src/lv_draw/lv_draw_arc.c:251:16
	ldrb.w	r0, [sp, #34]
.Ltmp91:
	.loc	2 251 16 is_stmt 0              @ lvgl/src/lv_draw/lv_draw_arc.c:251:16
	lsls	r0, r0, #31
	cbz	r0, .LBB2_11
	b	.LBB2_10
.LBB2_10:
.Ltmp92:
	.loc	2 251 33                        @ lvgl/src/lv_draw/lv_draw_arc.c:251:33
	ldr	r0, [sp, #44]
	.loc	2 251 65                        @ lvgl/src/lv_draw/lv_draw_arc.c:251:65
	ldr	r2, [r0, #16]
	.loc	2 251 36                        @ lvgl/src/lv_draw/lv_draw_arc.c:251:36
	ldr	r0, [r0, #20]
	add	r1, sp, #36
	.loc	2 251 20                        @ lvgl/src/lv_draw/lv_draw_arc.c:251:20
	bl	lv_draw_rect
	b	.LBB2_11
.Ltmp93:
.LBB2_11:
	.loc	2 252 9 is_stmt 1               @ lvgl/src/lv_draw/lv_draw_arc.c:252:9
	b	.LBB2_12
.Ltmp94:
.LBB2_12:
	.loc	2 253 12                        @ lvgl/src/lv_draw/lv_draw_arc.c:253:12
	ldr	r0, [sp, #44]
	.loc	2 253 15 is_stmt 0              @ lvgl/src/lv_draw/lv_draw_arc.c:253:15
	ldrh	r0, [r0, #12]
.Ltmp95:
	.loc	2 253 12                        @ lvgl/src/lv_draw/lv_draw_arc.c:253:12
	cmp	r0, #1
	bne	.LBB2_16
	b	.LBB2_13
.LBB2_13:
.Ltmp96:
	.loc	2 254 31 is_stmt 1              @ lvgl/src/lv_draw/lv_draw_arc.c:254:31
	ldr	r0, [sp, #44]
	ldrh	r0, [r0]
	.loc	2 254 43 is_stmt 0              @ lvgl/src/lv_draw/lv_draw_arc.c:254:43
	subs	r0, #1
	.loc	2 254 29                        @ lvgl/src/lv_draw/lv_draw_arc.c:254:29
	strh.w	r0, [sp, #40]
	.loc	2 255 31 is_stmt 1              @ lvgl/src/lv_draw/lv_draw_arc.c:255:31
	ldr	r1, [sp, #44]
	ldrh	r0, [r1, #2]
	.loc	2 255 45 is_stmt 0              @ lvgl/src/lv_draw/lv_draw_arc.c:255:45
	ldrh	r1, [r1, #4]
	.loc	2 255 43                        @ lvgl/src/lv_draw/lv_draw_arc.c:255:43
	add	r0, r1
	.loc	2 255 29                        @ lvgl/src/lv_draw/lv_draw_arc.c:255:29
	strh.w	r0, [sp, #42]
	.loc	2 257 31 is_stmt 1              @ lvgl/src/lv_draw/lv_draw_arc.c:257:31
	ldr	r0, [sp, #44]
	ldrh	r1, [r0, #2]
	.loc	2 257 64 is_stmt 0              @ lvgl/src/lv_draw/lv_draw_arc.c:257:64
	str	r1, [sp]                        @ 4-byte Spill
	ldrsh.w	r0, [r0, #8]
	.loc	2 257 47                        @ lvgl/src/lv_draw/lv_draw_arc.c:257:47
	bl	_lv_trigo_sin
	mov	r1, r0
	.loc	2 257 78                        @ lvgl/src/lv_draw/lv_draw_arc.c:257:78
	ldr	r0, [sp]                        @ 4-byte Reload
	ldr	r3, [sp, #44]
	.loc	2 257 81                        @ lvgl/src/lv_draw/lv_draw_arc.c:257:81
	ldrsh.w	r2, [r3, #4]
	.loc	2 257 93                        @ lvgl/src/lv_draw/lv_draw_arc.c:257:93
	ldrsh.w	r3, [r3, #14]
	.loc	2 257 88                        @ lvgl/src/lv_draw/lv_draw_arc.c:257:88
	subs	r2, r2, r3
	.loc	2 257 75                        @ lvgl/src/lv_draw/lv_draw_arc.c:257:75
	muls	r1, r2, r1
	.loc	2 257 43                        @ lvgl/src/lv_draw/lv_draw_arc.c:257:43
	add.w	r0, r0, r1, lsr #15
	.loc	2 257 29                        @ lvgl/src/lv_draw/lv_draw_arc.c:257:29
	strh.w	r0, [sp, #38]
	.loc	2 258 31 is_stmt 1              @ lvgl/src/lv_draw/lv_draw_arc.c:258:31
	ldr	r0, [sp, #44]
	ldrh	r1, [r0]
	.loc	2 258 61 is_stmt 0              @ lvgl/src/lv_draw/lv_draw_arc.c:258:61
	str	r1, [sp, #4]                    @ 4-byte Spill
	ldrh	r0, [r0, #8]
	.loc	2 258 74                        @ lvgl/src/lv_draw/lv_draw_arc.c:258:74
	adds	r0, #90
	.loc	2 258 47                        @ lvgl/src/lv_draw/lv_draw_arc.c:258:47
	sxth	r0, r0
	bl	_lv_trigo_sin
	mov	r1, r0
	.loc	2 258 83                        @ lvgl/src/lv_draw/lv_draw_arc.c:258:83
	ldr	r0, [sp, #4]                    @ 4-byte Reload
	ldr	r2, [sp, #44]
	.loc	2 258 86                        @ lvgl/src/lv_draw/lv_draw_arc.c:258:86
	ldrsh.w	r2, [r2, #4]
	.loc	2 258 80                        @ lvgl/src/lv_draw/lv_draw_arc.c:258:80
	muls	r1, r2, r1
	.loc	2 258 43                        @ lvgl/src/lv_draw/lv_draw_arc.c:258:43
	add.w	r0, r0, r1, lsr #15
	.loc	2 258 29                        @ lvgl/src/lv_draw/lv_draw_arc.c:258:29
	strh.w	r0, [sp, #36]
	.loc	2 260 72 is_stmt 1              @ lvgl/src/lv_draw/lv_draw_arc.c:260:72
	ldr	r0, [sp, #44]
	.loc	2 260 75 is_stmt 0              @ lvgl/src/lv_draw/lv_draw_arc.c:260:75
	ldr	r2, [r0, #24]
	add	r1, sp, #36
	.loc	2 260 23                        @ lvgl/src/lv_draw/lv_draw_arc.c:260:23
	mov	r0, r1
	bl	_lv_area_intersect
	.loc	2 260 18                        @ lvgl/src/lv_draw/lv_draw_arc.c:260:18
	strb.w	r0, [sp, #33]
.Ltmp97:
	.loc	2 261 16 is_stmt 1              @ lvgl/src/lv_draw/lv_draw_arc.c:261:16
	ldrb.w	r0, [sp, #33]
.Ltmp98:
	.loc	2 261 16 is_stmt 0              @ lvgl/src/lv_draw/lv_draw_arc.c:261:16
	lsls	r0, r0, #31
	cbz	r0, .LBB2_15
	b	.LBB2_14
.LBB2_14:
.Ltmp99:
	.loc	2 261 33                        @ lvgl/src/lv_draw/lv_draw_arc.c:261:33
	ldr	r0, [sp, #44]
	.loc	2 261 65                        @ lvgl/src/lv_draw/lv_draw_arc.c:261:65
	ldr	r2, [r0, #16]
	.loc	2 261 36                        @ lvgl/src/lv_draw/lv_draw_arc.c:261:36
	ldr	r0, [r0, #20]
	add	r1, sp, #36
	.loc	2 261 20                        @ lvgl/src/lv_draw/lv_draw_arc.c:261:20
	bl	lv_draw_rect
	b	.LBB2_15
.Ltmp100:
.LBB2_15:
	.loc	2 262 9 is_stmt 1               @ lvgl/src/lv_draw/lv_draw_arc.c:262:9
	b	.LBB2_16
.Ltmp101:
.LBB2_16:
	.loc	2 263 5                         @ lvgl/src/lv_draw/lv_draw_arc.c:263:5
	b	.LBB2_30
.Ltmp102:
.LBB2_17:
	.loc	2 264 14                        @ lvgl/src/lv_draw/lv_draw_arc.c:264:14
	ldr	r1, [sp, #44]
	.loc	2 264 17 is_stmt 0              @ lvgl/src/lv_draw/lv_draw_arc.c:264:17
	ldrh	r0, [r1, #10]
	.loc	2 264 37                        @ lvgl/src/lv_draw/lv_draw_arc.c:264:37
	ldrh	r1, [r1, #12]
	.loc	2 264 49                        @ lvgl/src/lv_draw/lv_draw_arc.c:264:49
	cmp	r0, r1
	bne	.LBB2_20
	b	.LBB2_18
.LBB2_18:
	.loc	2 264 52                        @ lvgl/src/lv_draw/lv_draw_arc.c:264:52
	ldr	r0, [sp, #44]
	.loc	2 264 55                        @ lvgl/src/lv_draw/lv_draw_arc.c:264:55
	ldrh	r0, [r0, #10]
	.loc	2 264 74                        @ lvgl/src/lv_draw/lv_draw_arc.c:264:74
	cmp	r0, #1
	beq	.LBB2_20
	b	.LBB2_19
.LBB2_19:
	.loc	2 264 77                        @ lvgl/src/lv_draw/lv_draw_arc.c:264:77
	ldr	r1, [sp, #44]
	.loc	2 264 80                        @ lvgl/src/lv_draw/lv_draw_arc.c:264:80
	ldrh	r0, [r1, #8]
	.loc	2 264 95                        @ lvgl/src/lv_draw/lv_draw_arc.c:264:95
	ldrh	r1, [r1, #6]
	.loc	2 264 108                       @ lvgl/src/lv_draw/lv_draw_arc.c:264:108
	cmp	r0, r1
	blt	.LBB2_26
	b	.LBB2_20
.LBB2_20:
	.loc	2 265 14 is_stmt 1              @ lvgl/src/lv_draw/lv_draw_arc.c:265:14
	ldr	r0, [sp, #44]
	.loc	2 265 17 is_stmt 0              @ lvgl/src/lv_draw/lv_draw_arc.c:265:17
	ldrh	r0, [r0, #10]
	.loc	2 265 36                        @ lvgl/src/lv_draw/lv_draw_arc.c:265:36
	cbnz	r0, .LBB2_22
	b	.LBB2_21
.LBB2_21:
	.loc	2 265 39                        @ lvgl/src/lv_draw/lv_draw_arc.c:265:39
	ldr	r0, [sp, #44]
	.loc	2 265 42                        @ lvgl/src/lv_draw/lv_draw_arc.c:265:42
	ldrh	r0, [r0, #12]
	.loc	2 265 60                        @ lvgl/src/lv_draw/lv_draw_arc.c:265:60
	cmp	r0, #2
	beq	.LBB2_26
	b	.LBB2_22
.LBB2_22:
	.loc	2 266 14 is_stmt 1              @ lvgl/src/lv_draw/lv_draw_arc.c:266:14
	ldr	r0, [sp, #44]
	.loc	2 266 17 is_stmt 0              @ lvgl/src/lv_draw/lv_draw_arc.c:266:17
	ldrh	r0, [r0, #10]
	.loc	2 266 36                        @ lvgl/src/lv_draw/lv_draw_arc.c:266:36
	cbnz	r0, .LBB2_24
	b	.LBB2_23
.LBB2_23:
	.loc	2 266 39                        @ lvgl/src/lv_draw/lv_draw_arc.c:266:39
	ldr	r0, [sp, #44]
	.loc	2 266 42                        @ lvgl/src/lv_draw/lv_draw_arc.c:266:42
	ldrh	r0, [r0, #12]
	.loc	2 266 60                        @ lvgl/src/lv_draw/lv_draw_arc.c:266:60
	cmp	r0, #3
	beq	.LBB2_26
	b	.LBB2_24
.LBB2_24:
	.loc	2 267 14 is_stmt 1              @ lvgl/src/lv_draw/lv_draw_arc.c:267:14
	ldr	r0, [sp, #44]
	.loc	2 267 17 is_stmt 0              @ lvgl/src/lv_draw/lv_draw_arc.c:267:17
	ldrh	r0, [r0, #10]
	.loc	2 267 36                        @ lvgl/src/lv_draw/lv_draw_arc.c:267:36
	cmp	r0, #3
	bne	.LBB2_29
	b	.LBB2_25
.LBB2_25:
	.loc	2 267 39                        @ lvgl/src/lv_draw/lv_draw_arc.c:267:39
	ldr	r0, [sp, #44]
	.loc	2 267 42                        @ lvgl/src/lv_draw/lv_draw_arc.c:267:42
	ldrh	r0, [r0, #12]
.Ltmp103:
	.loc	2 264 13 is_stmt 1              @ lvgl/src/lv_draw/lv_draw_arc.c:264:13
	cmp	r0, #2
	bne	.LBB2_29
	b	.LBB2_26
.LBB2_26:
.Ltmp104:
	.loc	2 269 27                        @ lvgl/src/lv_draw/lv_draw_arc.c:269:27
	ldr	r1, [sp, #44]
	ldrh	r0, [r1]
	.loc	2 269 41 is_stmt 0              @ lvgl/src/lv_draw/lv_draw_arc.c:269:41
	ldrh	r1, [r1, #4]
	.loc	2 269 39                        @ lvgl/src/lv_draw/lv_draw_arc.c:269:39
	subs	r0, r0, r1
	.loc	2 269 25                        @ lvgl/src/lv_draw/lv_draw_arc.c:269:25
	strh.w	r0, [sp, #36]
	.loc	2 270 27 is_stmt 1              @ lvgl/src/lv_draw/lv_draw_arc.c:270:27
	ldr	r0, [sp, #44]
	.loc	2 270 30 is_stmt 0              @ lvgl/src/lv_draw/lv_draw_arc.c:270:30
	ldrh	r0, [r0, #2]
	.loc	2 270 25                        @ lvgl/src/lv_draw/lv_draw_arc.c:270:25
	strh.w	r0, [sp, #38]
	.loc	2 271 27 is_stmt 1              @ lvgl/src/lv_draw/lv_draw_arc.c:271:27
	ldr	r0, [sp, #44]
	ldrh	r0, [r0]
	.loc	2 271 39 is_stmt 0              @ lvgl/src/lv_draw/lv_draw_arc.c:271:39
	subs	r0, #1
	.loc	2 271 25                        @ lvgl/src/lv_draw/lv_draw_arc.c:271:25
	strh.w	r0, [sp, #40]
	.loc	2 272 27 is_stmt 1              @ lvgl/src/lv_draw/lv_draw_arc.c:272:27
	ldr	r1, [sp, #44]
	ldrh	r0, [r1, #2]
	.loc	2 272 41 is_stmt 0              @ lvgl/src/lv_draw/lv_draw_arc.c:272:41
	ldrh	r1, [r1, #4]
	.loc	2 272 39                        @ lvgl/src/lv_draw/lv_draw_arc.c:272:39
	add	r0, r1
	.loc	2 272 25                        @ lvgl/src/lv_draw/lv_draw_arc.c:272:25
	strh.w	r0, [sp, #42]
	.loc	2 274 68 is_stmt 1              @ lvgl/src/lv_draw/lv_draw_arc.c:274:68
	ldr	r0, [sp, #44]
	.loc	2 274 71 is_stmt 0              @ lvgl/src/lv_draw/lv_draw_arc.c:274:71
	ldr	r2, [r0, #24]
	add	r1, sp, #36
	.loc	2 274 19                        @ lvgl/src/lv_draw/lv_draw_arc.c:274:19
	mov	r0, r1
	bl	_lv_area_intersect
	.loc	2 274 14                        @ lvgl/src/lv_draw/lv_draw_arc.c:274:14
	strb.w	r0, [sp, #32]
.Ltmp105:
	.loc	2 275 12 is_stmt 1              @ lvgl/src/lv_draw/lv_draw_arc.c:275:12
	ldrb.w	r0, [sp, #32]
.Ltmp106:
	.loc	2 275 12 is_stmt 0              @ lvgl/src/lv_draw/lv_draw_arc.c:275:12
	lsls	r0, r0, #31
	cbz	r0, .LBB2_28
	b	.LBB2_27
.LBB2_27:
.Ltmp107:
	.loc	2 275 29                        @ lvgl/src/lv_draw/lv_draw_arc.c:275:29
	ldr	r0, [sp, #44]
	.loc	2 275 61                        @ lvgl/src/lv_draw/lv_draw_arc.c:275:61
	ldr	r2, [r0, #16]
	.loc	2 275 32                        @ lvgl/src/lv_draw/lv_draw_arc.c:275:32
	ldr	r0, [r0, #20]
	add	r1, sp, #36
	.loc	2 275 16                        @ lvgl/src/lv_draw/lv_draw_arc.c:275:16
	bl	lv_draw_rect
	b	.LBB2_28
.Ltmp108:
.LBB2_28:
	.loc	2 276 5 is_stmt 1               @ lvgl/src/lv_draw/lv_draw_arc.c:276:5
	b	.LBB2_29
.Ltmp109:
.LBB2_29:
	.loc	2 0 5 is_stmt 0                 @ lvgl/src/lv_draw/lv_draw_arc.c:0:5
	b	.LBB2_30
.LBB2_30:
	b	.LBB2_31
.LBB2_31:
	.loc	2 277 1 is_stmt 1               @ lvgl/src/lv_draw/lv_draw_arc.c:277:1
	add	sp, #48
	pop	{r7, pc}
.Ltmp110:
.Lfunc_end2:
	.size	draw_quarter_1, .Lfunc_end2-draw_quarter_1
	.cfi_endproc
	.cantunwind
	.fnend
                                        @ -- End function
	.section	.text.draw_quarter_2,"ax",%progbits
	.p2align	3                               @ -- Begin function draw_quarter_2
	.type	draw_quarter_2,%function
	.code	16                              @ @draw_quarter_2
	.thumb_func
draw_quarter_2:
.Lfunc_begin3:
	.loc	2 280 0                         @ lvgl/src/lv_draw/lv_draw_arc.c:280:0
	.fnstart
	.cfi_startproc
@ %bb.0:
	.save	{r7, lr}
	push	{r7, lr}
	.cfi_def_cfa_offset 8
	.cfi_offset lr, -4
	.cfi_offset r7, -8
	.pad	#48
	sub	sp, #48
	.cfi_def_cfa_offset 56
	str	r0, [sp, #44]
.Ltmp111:
	.loc	2 283 8 prologue_end            @ lvgl/src/lv_draw/lv_draw_arc.c:283:8
	ldr	r0, [sp, #44]
	.loc	2 283 11 is_stmt 0              @ lvgl/src/lv_draw/lv_draw_arc.c:283:11
	ldrh	r0, [r0, #10]
	.loc	2 283 30                        @ lvgl/src/lv_draw/lv_draw_arc.c:283:30
	cmp	r0, #2
	bne	.LBB3_6
	b	.LBB3_1
.LBB3_1:
	.loc	2 283 33                        @ lvgl/src/lv_draw/lv_draw_arc.c:283:33
	ldr	r0, [sp, #44]
	.loc	2 283 36                        @ lvgl/src/lv_draw/lv_draw_arc.c:283:36
	ldrh	r0, [r0, #12]
	.loc	2 283 53                        @ lvgl/src/lv_draw/lv_draw_arc.c:283:53
	cmp	r0, #2
	bne	.LBB3_6
	b	.LBB3_2
.LBB3_2:
	.loc	2 283 56                        @ lvgl/src/lv_draw/lv_draw_arc.c:283:56
	ldr	r1, [sp, #44]
	.loc	2 283 59                        @ lvgl/src/lv_draw/lv_draw_arc.c:283:59
	ldrh	r0, [r1, #6]
	.loc	2 283 76                        @ lvgl/src/lv_draw/lv_draw_arc.c:283:76
	ldrh	r1, [r1, #8]
.Ltmp112:
	.loc	2 283 8                         @ lvgl/src/lv_draw/lv_draw_arc.c:283:8
	cmp	r0, r1
	bge	.LBB3_6
	b	.LBB3_3
.LBB3_3:
.Ltmp113:
	.loc	2 285 27 is_stmt 1              @ lvgl/src/lv_draw/lv_draw_arc.c:285:27
	ldr	r0, [sp, #44]
	ldrh	r1, [r0]
	.loc	2 285 57 is_stmt 0              @ lvgl/src/lv_draw/lv_draw_arc.c:285:57
	str	r1, [sp, #16]                   @ 4-byte Spill
	ldrh	r0, [r0, #6]
	.loc	2 285 72                        @ lvgl/src/lv_draw/lv_draw_arc.c:285:72
	adds	r0, #90
	.loc	2 285 43                        @ lvgl/src/lv_draw/lv_draw_arc.c:285:43
	sxth	r0, r0
	bl	_lv_trigo_sin
	mov	r1, r0
	.loc	2 285 81                        @ lvgl/src/lv_draw/lv_draw_arc.c:285:81
	ldr	r0, [sp, #16]                   @ 4-byte Reload
	ldr	r2, [sp, #44]
	.loc	2 285 84                        @ lvgl/src/lv_draw/lv_draw_arc.c:285:84
	ldrsh.w	r2, [r2, #4]
	.loc	2 285 78                        @ lvgl/src/lv_draw/lv_draw_arc.c:285:78
	muls	r1, r2, r1
	.loc	2 285 39                        @ lvgl/src/lv_draw/lv_draw_arc.c:285:39
	add.w	r0, r0, r1, lsr #15
	.loc	2 285 25                        @ lvgl/src/lv_draw/lv_draw_arc.c:285:25
	strh.w	r0, [sp, #36]
	.loc	2 286 27 is_stmt 1              @ lvgl/src/lv_draw/lv_draw_arc.c:286:27
	ldr	r0, [sp, #44]
	ldrh	r1, [r0, #2]
	.loc	2 286 60 is_stmt 0              @ lvgl/src/lv_draw/lv_draw_arc.c:286:60
	str	r1, [sp, #20]                   @ 4-byte Spill
	ldrsh.w	r0, [r0, #6]
	.loc	2 286 43                        @ lvgl/src/lv_draw/lv_draw_arc.c:286:43
	bl	_lv_trigo_sin
	mov	r1, r0
	.loc	2 286 76                        @ lvgl/src/lv_draw/lv_draw_arc.c:286:76
	ldr	r0, [sp, #20]                   @ 4-byte Reload
	ldr	r3, [sp, #44]
	.loc	2 286 79                        @ lvgl/src/lv_draw/lv_draw_arc.c:286:79
	ldrsh.w	r2, [r3, #4]
	.loc	2 286 91                        @ lvgl/src/lv_draw/lv_draw_arc.c:286:91
	ldrsh.w	r3, [r3, #14]
	.loc	2 286 86                        @ lvgl/src/lv_draw/lv_draw_arc.c:286:86
	subs	r2, r2, r3
	.loc	2 286 73                        @ lvgl/src/lv_draw/lv_draw_arc.c:286:73
	muls	r1, r2, r1
	.loc	2 286 39                        @ lvgl/src/lv_draw/lv_draw_arc.c:286:39
	add.w	r0, r0, r1, lsr #15
	.loc	2 286 25                        @ lvgl/src/lv_draw/lv_draw_arc.c:286:25
	strh.w	r0, [sp, #42]
	.loc	2 288 27 is_stmt 1              @ lvgl/src/lv_draw/lv_draw_arc.c:288:27
	ldr	r0, [sp, #44]
	ldrh	r1, [r0, #2]
	.loc	2 288 60 is_stmt 0              @ lvgl/src/lv_draw/lv_draw_arc.c:288:60
	str	r1, [sp, #24]                   @ 4-byte Spill
	ldrsh.w	r0, [r0, #8]
	.loc	2 288 43                        @ lvgl/src/lv_draw/lv_draw_arc.c:288:43
	bl	_lv_trigo_sin
	mov	r1, r0
	.loc	2 288 73                        @ lvgl/src/lv_draw/lv_draw_arc.c:288:73
	ldr	r0, [sp, #24]                   @ 4-byte Reload
	ldr	r2, [sp, #44]
	.loc	2 288 76                        @ lvgl/src/lv_draw/lv_draw_arc.c:288:76
	ldrsh.w	r2, [r2, #4]
	.loc	2 288 71                        @ lvgl/src/lv_draw/lv_draw_arc.c:288:71
	muls	r1, r2, r1
	.loc	2 288 39                        @ lvgl/src/lv_draw/lv_draw_arc.c:288:39
	add.w	r0, r0, r1, lsr #15
	.loc	2 288 25                        @ lvgl/src/lv_draw/lv_draw_arc.c:288:25
	strh.w	r0, [sp, #38]
	.loc	2 289 27 is_stmt 1              @ lvgl/src/lv_draw/lv_draw_arc.c:289:27
	ldr	r0, [sp, #44]
	ldrh	r1, [r0]
	.loc	2 289 57 is_stmt 0              @ lvgl/src/lv_draw/lv_draw_arc.c:289:57
	str	r1, [sp, #28]                   @ 4-byte Spill
	ldrh	r0, [r0, #8]
	.loc	2 289 70                        @ lvgl/src/lv_draw/lv_draw_arc.c:289:70
	adds	r0, #90
	.loc	2 289 43                        @ lvgl/src/lv_draw/lv_draw_arc.c:289:43
	sxth	r0, r0
	bl	_lv_trigo_sin
	mov	r1, r0
	.loc	2 289 79                        @ lvgl/src/lv_draw/lv_draw_arc.c:289:79
	ldr	r0, [sp, #28]                   @ 4-byte Reload
	ldr	r3, [sp, #44]
	.loc	2 289 82                        @ lvgl/src/lv_draw/lv_draw_arc.c:289:82
	ldrsh.w	r2, [r3, #4]
	.loc	2 289 94                        @ lvgl/src/lv_draw/lv_draw_arc.c:289:94
	ldrsh.w	r3, [r3, #14]
	.loc	2 289 89                        @ lvgl/src/lv_draw/lv_draw_arc.c:289:89
	subs	r2, r2, r3
	.loc	2 289 76                        @ lvgl/src/lv_draw/lv_draw_arc.c:289:76
	muls	r1, r2, r1
	.loc	2 289 39                        @ lvgl/src/lv_draw/lv_draw_arc.c:289:39
	add.w	r0, r0, r1, lsr #15
	.loc	2 289 25                        @ lvgl/src/lv_draw/lv_draw_arc.c:289:25
	strh.w	r0, [sp, #40]
	.loc	2 291 68 is_stmt 1              @ lvgl/src/lv_draw/lv_draw_arc.c:291:68
	ldr	r0, [sp, #44]
	.loc	2 291 71 is_stmt 0              @ lvgl/src/lv_draw/lv_draw_arc.c:291:71
	ldr	r2, [r0, #24]
	add	r1, sp, #36
	.loc	2 291 19                        @ lvgl/src/lv_draw/lv_draw_arc.c:291:19
	mov	r0, r1
	bl	_lv_area_intersect
	.loc	2 291 14                        @ lvgl/src/lv_draw/lv_draw_arc.c:291:14
	strb.w	r0, [sp, #35]
.Ltmp114:
	.loc	2 292 12 is_stmt 1              @ lvgl/src/lv_draw/lv_draw_arc.c:292:12
	ldrb.w	r0, [sp, #35]
.Ltmp115:
	.loc	2 292 12 is_stmt 0              @ lvgl/src/lv_draw/lv_draw_arc.c:292:12
	lsls	r0, r0, #31
	cbz	r0, .LBB3_5
	b	.LBB3_4
.LBB3_4:
.Ltmp116:
	.loc	2 292 29                        @ lvgl/src/lv_draw/lv_draw_arc.c:292:29
	ldr	r0, [sp, #44]
	.loc	2 292 61                        @ lvgl/src/lv_draw/lv_draw_arc.c:292:61
	ldr	r2, [r0, #16]
	.loc	2 292 32                        @ lvgl/src/lv_draw/lv_draw_arc.c:292:32
	ldr	r0, [r0, #20]
	add	r1, sp, #36
	.loc	2 292 16                        @ lvgl/src/lv_draw/lv_draw_arc.c:292:16
	bl	lv_draw_rect
	b	.LBB3_5
.Ltmp117:
.LBB3_5:
	.loc	2 293 5 is_stmt 1               @ lvgl/src/lv_draw/lv_draw_arc.c:293:5
	b	.LBB3_31
.Ltmp118:
.LBB3_6:
	.loc	2 294 13                        @ lvgl/src/lv_draw/lv_draw_arc.c:294:13
	ldr	r0, [sp, #44]
	.loc	2 294 16 is_stmt 0              @ lvgl/src/lv_draw/lv_draw_arc.c:294:16
	ldrh	r0, [r0, #10]
	.loc	2 294 35                        @ lvgl/src/lv_draw/lv_draw_arc.c:294:35
	cmp	r0, #2
	beq	.LBB3_8
	b	.LBB3_7
.LBB3_7:
	.loc	2 294 38                        @ lvgl/src/lv_draw/lv_draw_arc.c:294:38
	ldr	r0, [sp, #44]
	.loc	2 294 41                        @ lvgl/src/lv_draw/lv_draw_arc.c:294:41
	ldrh	r0, [r0, #12]
.Ltmp119:
	.loc	2 294 13                        @ lvgl/src/lv_draw/lv_draw_arc.c:294:13
	cmp	r0, #2
	bne.w	.LBB3_17
	b	.LBB3_8
.LBB3_8:
.Ltmp120:
	.loc	2 296 12 is_stmt 1              @ lvgl/src/lv_draw/lv_draw_arc.c:296:12
	ldr	r0, [sp, #44]
	.loc	2 296 15 is_stmt 0              @ lvgl/src/lv_draw/lv_draw_arc.c:296:15
	ldrh	r0, [r0, #10]
.Ltmp121:
	.loc	2 296 12                        @ lvgl/src/lv_draw/lv_draw_arc.c:296:12
	cmp	r0, #2
	bne	.LBB3_12
	b	.LBB3_9
.LBB3_9:
.Ltmp122:
	.loc	2 297 31 is_stmt 1              @ lvgl/src/lv_draw/lv_draw_arc.c:297:31
	ldr	r0, [sp, #44]
	ldrh	r0, [r0]
	.loc	2 297 43 is_stmt 0              @ lvgl/src/lv_draw/lv_draw_arc.c:297:43
	subs	r0, #1
	.loc	2 297 29                        @ lvgl/src/lv_draw/lv_draw_arc.c:297:29
	strh.w	r0, [sp, #40]
	.loc	2 298 31 is_stmt 1              @ lvgl/src/lv_draw/lv_draw_arc.c:298:31
	ldr	r1, [sp, #44]
	ldrh	r0, [r1, #2]
	.loc	2 298 45 is_stmt 0              @ lvgl/src/lv_draw/lv_draw_arc.c:298:45
	ldrh	r1, [r1, #4]
	.loc	2 298 43                        @ lvgl/src/lv_draw/lv_draw_arc.c:298:43
	subs	r0, r0, r1
	.loc	2 298 29                        @ lvgl/src/lv_draw/lv_draw_arc.c:298:29
	strh.w	r0, [sp, #38]
	.loc	2 300 31 is_stmt 1              @ lvgl/src/lv_draw/lv_draw_arc.c:300:31
	ldr	r0, [sp, #44]
	ldrh	r1, [r0]
	.loc	2 300 61 is_stmt 0              @ lvgl/src/lv_draw/lv_draw_arc.c:300:61
	str	r1, [sp, #8]                    @ 4-byte Spill
	ldrh	r0, [r0, #6]
	.loc	2 300 76                        @ lvgl/src/lv_draw/lv_draw_arc.c:300:76
	adds	r0, #90
	.loc	2 300 47                        @ lvgl/src/lv_draw/lv_draw_arc.c:300:47
	sxth	r0, r0
	bl	_lv_trigo_sin
	mov	r1, r0
	.loc	2 300 85                        @ lvgl/src/lv_draw/lv_draw_arc.c:300:85
	ldr	r0, [sp, #8]                    @ 4-byte Reload
	ldr	r2, [sp, #44]
	.loc	2 300 88                        @ lvgl/src/lv_draw/lv_draw_arc.c:300:88
	ldrsh.w	r2, [r2, #4]
	.loc	2 300 82                        @ lvgl/src/lv_draw/lv_draw_arc.c:300:82
	muls	r1, r2, r1
	.loc	2 300 43                        @ lvgl/src/lv_draw/lv_draw_arc.c:300:43
	add.w	r0, r0, r1, lsr #15
	.loc	2 300 29                        @ lvgl/src/lv_draw/lv_draw_arc.c:300:29
	strh.w	r0, [sp, #36]
	.loc	2 301 31 is_stmt 1              @ lvgl/src/lv_draw/lv_draw_arc.c:301:31
	ldr	r0, [sp, #44]
	ldrh	r1, [r0, #2]
	.loc	2 301 64 is_stmt 0              @ lvgl/src/lv_draw/lv_draw_arc.c:301:64
	str	r1, [sp, #12]                   @ 4-byte Spill
	ldrsh.w	r0, [r0, #6]
	.loc	2 301 47                        @ lvgl/src/lv_draw/lv_draw_arc.c:301:47
	bl	_lv_trigo_sin
	mov	r1, r0
	.loc	2 301 80                        @ lvgl/src/lv_draw/lv_draw_arc.c:301:80
	ldr	r0, [sp, #12]                   @ 4-byte Reload
	ldr	r3, [sp, #44]
	.loc	2 301 83                        @ lvgl/src/lv_draw/lv_draw_arc.c:301:83
	ldrsh.w	r2, [r3, #4]
	.loc	2 301 95                        @ lvgl/src/lv_draw/lv_draw_arc.c:301:95
	ldrsh.w	r3, [r3, #14]
	.loc	2 301 90                        @ lvgl/src/lv_draw/lv_draw_arc.c:301:90
	subs	r2, r2, r3
	.loc	2 301 77                        @ lvgl/src/lv_draw/lv_draw_arc.c:301:77
	muls	r1, r2, r1
	.loc	2 301 43                        @ lvgl/src/lv_draw/lv_draw_arc.c:301:43
	add.w	r0, r0, r1, lsr #15
	.loc	2 301 29                        @ lvgl/src/lv_draw/lv_draw_arc.c:301:29
	strh.w	r0, [sp, #42]
	.loc	2 303 72 is_stmt 1              @ lvgl/src/lv_draw/lv_draw_arc.c:303:72
	ldr	r0, [sp, #44]
	.loc	2 303 75 is_stmt 0              @ lvgl/src/lv_draw/lv_draw_arc.c:303:75
	ldr	r2, [r0, #24]
	add	r1, sp, #36
	.loc	2 303 23                        @ lvgl/src/lv_draw/lv_draw_arc.c:303:23
	mov	r0, r1
	bl	_lv_area_intersect
	.loc	2 303 18                        @ lvgl/src/lv_draw/lv_draw_arc.c:303:18
	strb.w	r0, [sp, #34]
.Ltmp123:
	.loc	2 304 16 is_stmt 1              @ lvgl/src/lv_draw/lv_draw_arc.c:304:16
	ldrb.w	r0, [sp, #34]
.Ltmp124:
	.loc	2 304 16 is_stmt 0              @ lvgl/src/lv_draw/lv_draw_arc.c:304:16
	lsls	r0, r0, #31
	cbz	r0, .LBB3_11
	b	.LBB3_10
.LBB3_10:
.Ltmp125:
	.loc	2 304 33                        @ lvgl/src/lv_draw/lv_draw_arc.c:304:33
	ldr	r0, [sp, #44]
	.loc	2 304 65                        @ lvgl/src/lv_draw/lv_draw_arc.c:304:65
	ldr	r2, [r0, #16]
	.loc	2 304 36                        @ lvgl/src/lv_draw/lv_draw_arc.c:304:36
	ldr	r0, [r0, #20]
	add	r1, sp, #36
	.loc	2 304 20                        @ lvgl/src/lv_draw/lv_draw_arc.c:304:20
	bl	lv_draw_rect
	b	.LBB3_11
.Ltmp126:
.LBB3_11:
	.loc	2 305 9 is_stmt 1               @ lvgl/src/lv_draw/lv_draw_arc.c:305:9
	b	.LBB3_12
.Ltmp127:
.LBB3_12:
	.loc	2 306 12                        @ lvgl/src/lv_draw/lv_draw_arc.c:306:12
	ldr	r0, [sp, #44]
	.loc	2 306 15 is_stmt 0              @ lvgl/src/lv_draw/lv_draw_arc.c:306:15
	ldrh	r0, [r0, #12]
.Ltmp128:
	.loc	2 306 12                        @ lvgl/src/lv_draw/lv_draw_arc.c:306:12
	cmp	r0, #2
	bne	.LBB3_16
	b	.LBB3_13
.LBB3_13:
.Ltmp129:
	.loc	2 307 31 is_stmt 1              @ lvgl/src/lv_draw/lv_draw_arc.c:307:31
	ldr	r1, [sp, #44]
	ldrh	r0, [r1]
	.loc	2 307 45 is_stmt 0              @ lvgl/src/lv_draw/lv_draw_arc.c:307:45
	ldrh	r1, [r1, #4]
	.loc	2 307 43                        @ lvgl/src/lv_draw/lv_draw_arc.c:307:43
	subs	r0, r0, r1
	.loc	2 307 29                        @ lvgl/src/lv_draw/lv_draw_arc.c:307:29
	strh.w	r0, [sp, #36]
	.loc	2 308 31 is_stmt 1              @ lvgl/src/lv_draw/lv_draw_arc.c:308:31
	ldr	r0, [sp, #44]
	ldrh	r0, [r0, #2]
	.loc	2 308 43 is_stmt 0              @ lvgl/src/lv_draw/lv_draw_arc.c:308:43
	subs	r0, #1
	.loc	2 308 29                        @ lvgl/src/lv_draw/lv_draw_arc.c:308:29
	strh.w	r0, [sp, #42]
	.loc	2 310 31 is_stmt 1              @ lvgl/src/lv_draw/lv_draw_arc.c:310:31
	ldr	r0, [sp, #44]
	ldrh	r1, [r0]
	.loc	2 310 61 is_stmt 0              @ lvgl/src/lv_draw/lv_draw_arc.c:310:61
	str	r1, [sp]                        @ 4-byte Spill
	ldrh	r0, [r0, #8]
	.loc	2 310 74                        @ lvgl/src/lv_draw/lv_draw_arc.c:310:74
	adds	r0, #90
	.loc	2 310 47                        @ lvgl/src/lv_draw/lv_draw_arc.c:310:47
	sxth	r0, r0
	bl	_lv_trigo_sin
	mov	r1, r0
	.loc	2 310 83                        @ lvgl/src/lv_draw/lv_draw_arc.c:310:83
	ldr	r0, [sp]                        @ 4-byte Reload
	ldr	r3, [sp, #44]
	.loc	2 310 86                        @ lvgl/src/lv_draw/lv_draw_arc.c:310:86
	ldrsh.w	r2, [r3, #4]
	.loc	2 310 98                        @ lvgl/src/lv_draw/lv_draw_arc.c:310:98
	ldrsh.w	r3, [r3, #14]
	.loc	2 310 93                        @ lvgl/src/lv_draw/lv_draw_arc.c:310:93
	subs	r2, r2, r3
	.loc	2 310 80                        @ lvgl/src/lv_draw/lv_draw_arc.c:310:80
	muls	r1, r2, r1
	.loc	2 310 43                        @ lvgl/src/lv_draw/lv_draw_arc.c:310:43
	add.w	r0, r0, r1, lsr #15
	.loc	2 310 29                        @ lvgl/src/lv_draw/lv_draw_arc.c:310:29
	strh.w	r0, [sp, #40]
	.loc	2 311 31 is_stmt 1              @ lvgl/src/lv_draw/lv_draw_arc.c:311:31
	ldr	r0, [sp, #44]
	ldrh	r1, [r0, #2]
	.loc	2 311 64 is_stmt 0              @ lvgl/src/lv_draw/lv_draw_arc.c:311:64
	str	r1, [sp, #4]                    @ 4-byte Spill
	ldrsh.w	r0, [r0, #8]
	.loc	2 311 47                        @ lvgl/src/lv_draw/lv_draw_arc.c:311:47
	bl	_lv_trigo_sin
	mov	r1, r0
	.loc	2 311 78                        @ lvgl/src/lv_draw/lv_draw_arc.c:311:78
	ldr	r0, [sp, #4]                    @ 4-byte Reload
	ldr	r2, [sp, #44]
	.loc	2 311 81                        @ lvgl/src/lv_draw/lv_draw_arc.c:311:81
	ldrsh.w	r2, [r2, #4]
	.loc	2 311 75                        @ lvgl/src/lv_draw/lv_draw_arc.c:311:75
	muls	r1, r2, r1
	.loc	2 311 43                        @ lvgl/src/lv_draw/lv_draw_arc.c:311:43
	add.w	r0, r0, r1, lsr #15
	.loc	2 311 29                        @ lvgl/src/lv_draw/lv_draw_arc.c:311:29
	strh.w	r0, [sp, #38]
	.loc	2 313 72 is_stmt 1              @ lvgl/src/lv_draw/lv_draw_arc.c:313:72
	ldr	r0, [sp, #44]
	.loc	2 313 75 is_stmt 0              @ lvgl/src/lv_draw/lv_draw_arc.c:313:75
	ldr	r2, [r0, #24]
	add	r1, sp, #36
	.loc	2 313 23                        @ lvgl/src/lv_draw/lv_draw_arc.c:313:23
	mov	r0, r1
	bl	_lv_area_intersect
	.loc	2 313 18                        @ lvgl/src/lv_draw/lv_draw_arc.c:313:18
	strb.w	r0, [sp, #33]
.Ltmp130:
	.loc	2 314 16 is_stmt 1              @ lvgl/src/lv_draw/lv_draw_arc.c:314:16
	ldrb.w	r0, [sp, #33]
.Ltmp131:
	.loc	2 314 16 is_stmt 0              @ lvgl/src/lv_draw/lv_draw_arc.c:314:16
	lsls	r0, r0, #31
	cbz	r0, .LBB3_15
	b	.LBB3_14
.LBB3_14:
.Ltmp132:
	.loc	2 314 33                        @ lvgl/src/lv_draw/lv_draw_arc.c:314:33
	ldr	r0, [sp, #44]
	.loc	2 314 65                        @ lvgl/src/lv_draw/lv_draw_arc.c:314:65
	ldr	r2, [r0, #16]
	.loc	2 314 36                        @ lvgl/src/lv_draw/lv_draw_arc.c:314:36
	ldr	r0, [r0, #20]
	add	r1, sp, #36
	.loc	2 314 20                        @ lvgl/src/lv_draw/lv_draw_arc.c:314:20
	bl	lv_draw_rect
	b	.LBB3_15
.Ltmp133:
.LBB3_15:
	.loc	2 315 9 is_stmt 1               @ lvgl/src/lv_draw/lv_draw_arc.c:315:9
	b	.LBB3_16
.Ltmp134:
.LBB3_16:
	.loc	2 316 5                         @ lvgl/src/lv_draw/lv_draw_arc.c:316:5
	b	.LBB3_30
.Ltmp135:
.LBB3_17:
	.loc	2 317 14                        @ lvgl/src/lv_draw/lv_draw_arc.c:317:14
	ldr	r1, [sp, #44]
	.loc	2 317 17 is_stmt 0              @ lvgl/src/lv_draw/lv_draw_arc.c:317:17
	ldrh	r0, [r1, #10]
	.loc	2 317 37                        @ lvgl/src/lv_draw/lv_draw_arc.c:317:37
	ldrh	r1, [r1, #12]
	.loc	2 317 49                        @ lvgl/src/lv_draw/lv_draw_arc.c:317:49
	cmp	r0, r1
	bne	.LBB3_20
	b	.LBB3_18
.LBB3_18:
	.loc	2 317 52                        @ lvgl/src/lv_draw/lv_draw_arc.c:317:52
	ldr	r0, [sp, #44]
	.loc	2 317 55                        @ lvgl/src/lv_draw/lv_draw_arc.c:317:55
	ldrh	r0, [r0, #10]
	.loc	2 317 74                        @ lvgl/src/lv_draw/lv_draw_arc.c:317:74
	cmp	r0, #2
	beq	.LBB3_20
	b	.LBB3_19
.LBB3_19:
	.loc	2 317 77                        @ lvgl/src/lv_draw/lv_draw_arc.c:317:77
	ldr	r1, [sp, #44]
	.loc	2 317 80                        @ lvgl/src/lv_draw/lv_draw_arc.c:317:80
	ldrh	r0, [r1, #8]
	.loc	2 317 95                        @ lvgl/src/lv_draw/lv_draw_arc.c:317:95
	ldrh	r1, [r1, #6]
	.loc	2 317 108                       @ lvgl/src/lv_draw/lv_draw_arc.c:317:108
	cmp	r0, r1
	blt	.LBB3_26
	b	.LBB3_20
.LBB3_20:
	.loc	2 318 14 is_stmt 1              @ lvgl/src/lv_draw/lv_draw_arc.c:318:14
	ldr	r0, [sp, #44]
	.loc	2 318 17 is_stmt 0              @ lvgl/src/lv_draw/lv_draw_arc.c:318:17
	ldrh	r0, [r0, #10]
	.loc	2 318 36                        @ lvgl/src/lv_draw/lv_draw_arc.c:318:36
	cbnz	r0, .LBB3_22
	b	.LBB3_21
.LBB3_21:
	.loc	2 318 39                        @ lvgl/src/lv_draw/lv_draw_arc.c:318:39
	ldr	r0, [sp, #44]
	.loc	2 318 42                        @ lvgl/src/lv_draw/lv_draw_arc.c:318:42
	ldrh	r0, [r0, #12]
	.loc	2 318 60                        @ lvgl/src/lv_draw/lv_draw_arc.c:318:60
	cmp	r0, #3
	beq	.LBB3_26
	b	.LBB3_22
.LBB3_22:
	.loc	2 319 14 is_stmt 1              @ lvgl/src/lv_draw/lv_draw_arc.c:319:14
	ldr	r0, [sp, #44]
	.loc	2 319 17 is_stmt 0              @ lvgl/src/lv_draw/lv_draw_arc.c:319:17
	ldrh	r0, [r0, #10]
	.loc	2 319 36                        @ lvgl/src/lv_draw/lv_draw_arc.c:319:36
	cmp	r0, #1
	bne	.LBB3_24
	b	.LBB3_23
.LBB3_23:
	.loc	2 319 39                        @ lvgl/src/lv_draw/lv_draw_arc.c:319:39
	ldr	r0, [sp, #44]
	.loc	2 319 42                        @ lvgl/src/lv_draw/lv_draw_arc.c:319:42
	ldrh	r0, [r0, #12]
	.loc	2 319 60                        @ lvgl/src/lv_draw/lv_draw_arc.c:319:60
	cmp	r0, #3
	beq	.LBB3_26
	b	.LBB3_24
.LBB3_24:
	.loc	2 320 14 is_stmt 1              @ lvgl/src/lv_draw/lv_draw_arc.c:320:14
	ldr	r0, [sp, #44]
	.loc	2 320 17 is_stmt 0              @ lvgl/src/lv_draw/lv_draw_arc.c:320:17
	ldrh	r0, [r0, #10]
	.loc	2 320 36                        @ lvgl/src/lv_draw/lv_draw_arc.c:320:36
	cmp	r0, #1
	bne	.LBB3_29
	b	.LBB3_25
.LBB3_25:
	.loc	2 320 39                        @ lvgl/src/lv_draw/lv_draw_arc.c:320:39
	ldr	r0, [sp, #44]
	.loc	2 320 42                        @ lvgl/src/lv_draw/lv_draw_arc.c:320:42
	ldrh	r0, [r0, #12]
.Ltmp136:
	.loc	2 317 13 is_stmt 1              @ lvgl/src/lv_draw/lv_draw_arc.c:317:13
	cbnz	r0, .LBB3_29
	b	.LBB3_26
.LBB3_26:
.Ltmp137:
	.loc	2 322 27                        @ lvgl/src/lv_draw/lv_draw_arc.c:322:27
	ldr	r1, [sp, #44]
	ldrh	r0, [r1]
	.loc	2 322 41 is_stmt 0              @ lvgl/src/lv_draw/lv_draw_arc.c:322:41
	ldrh	r1, [r1, #4]
	.loc	2 322 39                        @ lvgl/src/lv_draw/lv_draw_arc.c:322:39
	subs	r0, r0, r1
	.loc	2 322 25                        @ lvgl/src/lv_draw/lv_draw_arc.c:322:25
	strh.w	r0, [sp, #36]
	.loc	2 323 27 is_stmt 1              @ lvgl/src/lv_draw/lv_draw_arc.c:323:27
	ldr	r1, [sp, #44]
	ldrh	r0, [r1, #2]
	.loc	2 323 41 is_stmt 0              @ lvgl/src/lv_draw/lv_draw_arc.c:323:41
	ldrh	r1, [r1, #4]
	.loc	2 323 39                        @ lvgl/src/lv_draw/lv_draw_arc.c:323:39
	subs	r0, r0, r1
	.loc	2 323 25                        @ lvgl/src/lv_draw/lv_draw_arc.c:323:25
	strh.w	r0, [sp, #38]
	.loc	2 324 27 is_stmt 1              @ lvgl/src/lv_draw/lv_draw_arc.c:324:27
	ldr	r0, [sp, #44]
	ldrh	r0, [r0]
	.loc	2 324 39 is_stmt 0              @ lvgl/src/lv_draw/lv_draw_arc.c:324:39
	subs	r0, #1
	.loc	2 324 25                        @ lvgl/src/lv_draw/lv_draw_arc.c:324:25
	strh.w	r0, [sp, #40]
	.loc	2 325 27 is_stmt 1              @ lvgl/src/lv_draw/lv_draw_arc.c:325:27
	ldr	r0, [sp, #44]
	ldrh	r0, [r0, #2]
	.loc	2 325 39 is_stmt 0              @ lvgl/src/lv_draw/lv_draw_arc.c:325:39
	subs	r0, #1
	.loc	2 325 25                        @ lvgl/src/lv_draw/lv_draw_arc.c:325:25
	strh.w	r0, [sp, #42]
	.loc	2 327 68 is_stmt 1              @ lvgl/src/lv_draw/lv_draw_arc.c:327:68
	ldr	r0, [sp, #44]
	.loc	2 327 71 is_stmt 0              @ lvgl/src/lv_draw/lv_draw_arc.c:327:71
	ldr	r2, [r0, #24]
	add	r1, sp, #36
	.loc	2 327 19                        @ lvgl/src/lv_draw/lv_draw_arc.c:327:19
	mov	r0, r1
	bl	_lv_area_intersect
	.loc	2 327 14                        @ lvgl/src/lv_draw/lv_draw_arc.c:327:14
	strb.w	r0, [sp, #32]
.Ltmp138:
	.loc	2 328 12 is_stmt 1              @ lvgl/src/lv_draw/lv_draw_arc.c:328:12
	ldrb.w	r0, [sp, #32]
.Ltmp139:
	.loc	2 328 12 is_stmt 0              @ lvgl/src/lv_draw/lv_draw_arc.c:328:12
	lsls	r0, r0, #31
	cbz	r0, .LBB3_28
	b	.LBB3_27
.LBB3_27:
.Ltmp140:
	.loc	2 328 29                        @ lvgl/src/lv_draw/lv_draw_arc.c:328:29
	ldr	r0, [sp, #44]
	.loc	2 328 61                        @ lvgl/src/lv_draw/lv_draw_arc.c:328:61
	ldr	r2, [r0, #16]
	.loc	2 328 32                        @ lvgl/src/lv_draw/lv_draw_arc.c:328:32
	ldr	r0, [r0, #20]
	add	r1, sp, #36
	.loc	2 328 16                        @ lvgl/src/lv_draw/lv_draw_arc.c:328:16
	bl	lv_draw_rect
	b	.LBB3_28
.Ltmp141:
.LBB3_28:
	.loc	2 329 5 is_stmt 1               @ lvgl/src/lv_draw/lv_draw_arc.c:329:5
	b	.LBB3_29
.Ltmp142:
.LBB3_29:
	.loc	2 0 5 is_stmt 0                 @ lvgl/src/lv_draw/lv_draw_arc.c:0:5
	b	.LBB3_30
.LBB3_30:
	b	.LBB3_31
.LBB3_31:
	.loc	2 330 1 is_stmt 1               @ lvgl/src/lv_draw/lv_draw_arc.c:330:1
	add	sp, #48
	pop	{r7, pc}
.Ltmp143:
.Lfunc_end3:
	.size	draw_quarter_2, .Lfunc_end3-draw_quarter_2
	.cfi_endproc
	.cantunwind
	.fnend
                                        @ -- End function
	.section	.text.draw_quarter_3,"ax",%progbits
	.p2align	3                               @ -- Begin function draw_quarter_3
	.type	draw_quarter_3,%function
	.code	16                              @ @draw_quarter_3
	.thumb_func
draw_quarter_3:
.Lfunc_begin4:
	.loc	2 333 0                         @ lvgl/src/lv_draw/lv_draw_arc.c:333:0
	.fnstart
	.cfi_startproc
@ %bb.0:
	.save	{r7, lr}
	push	{r7, lr}
	.cfi_def_cfa_offset 8
	.cfi_offset lr, -4
	.cfi_offset r7, -8
	.pad	#48
	sub	sp, #48
	.cfi_def_cfa_offset 56
	str	r0, [sp, #44]
.Ltmp144:
	.loc	2 336 8 prologue_end            @ lvgl/src/lv_draw/lv_draw_arc.c:336:8
	ldr	r0, [sp, #44]
	.loc	2 336 11 is_stmt 0              @ lvgl/src/lv_draw/lv_draw_arc.c:336:11
	ldrh	r0, [r0, #10]
	.loc	2 336 30                        @ lvgl/src/lv_draw/lv_draw_arc.c:336:30
	cmp	r0, #3
	bne	.LBB4_6
	b	.LBB4_1
.LBB4_1:
	.loc	2 336 33                        @ lvgl/src/lv_draw/lv_draw_arc.c:336:33
	ldr	r0, [sp, #44]
	.loc	2 336 36                        @ lvgl/src/lv_draw/lv_draw_arc.c:336:36
	ldrh	r0, [r0, #12]
	.loc	2 336 53                        @ lvgl/src/lv_draw/lv_draw_arc.c:336:53
	cmp	r0, #3
	bne	.LBB4_6
	b	.LBB4_2
.LBB4_2:
	.loc	2 336 56                        @ lvgl/src/lv_draw/lv_draw_arc.c:336:56
	ldr	r1, [sp, #44]
	.loc	2 336 59                        @ lvgl/src/lv_draw/lv_draw_arc.c:336:59
	ldrh	r0, [r1, #6]
	.loc	2 336 76                        @ lvgl/src/lv_draw/lv_draw_arc.c:336:76
	ldrh	r1, [r1, #8]
.Ltmp145:
	.loc	2 336 8                         @ lvgl/src/lv_draw/lv_draw_arc.c:336:8
	cmp	r0, r1
	bge	.LBB4_6
	b	.LBB4_3
.LBB4_3:
.Ltmp146:
	.loc	2 338 27 is_stmt 1              @ lvgl/src/lv_draw/lv_draw_arc.c:338:27
	ldr	r0, [sp, #44]
	ldrh	r1, [r0]
	.loc	2 338 57 is_stmt 0              @ lvgl/src/lv_draw/lv_draw_arc.c:338:57
	str	r1, [sp, #16]                   @ 4-byte Spill
	ldrh	r0, [r0, #6]
	.loc	2 338 72                        @ lvgl/src/lv_draw/lv_draw_arc.c:338:72
	adds	r0, #90
	.loc	2 338 43                        @ lvgl/src/lv_draw/lv_draw_arc.c:338:43
	sxth	r0, r0
	bl	_lv_trigo_sin
	mov	r1, r0
	.loc	2 338 81                        @ lvgl/src/lv_draw/lv_draw_arc.c:338:81
	ldr	r0, [sp, #16]                   @ 4-byte Reload
	ldr	r3, [sp, #44]
	.loc	2 338 84                        @ lvgl/src/lv_draw/lv_draw_arc.c:338:84
	ldrsh.w	r2, [r3, #4]
	.loc	2 338 96                        @ lvgl/src/lv_draw/lv_draw_arc.c:338:96
	ldrsh.w	r3, [r3, #14]
	.loc	2 338 91                        @ lvgl/src/lv_draw/lv_draw_arc.c:338:91
	subs	r2, r2, r3
	.loc	2 338 78                        @ lvgl/src/lv_draw/lv_draw_arc.c:338:78
	muls	r1, r2, r1
	.loc	2 338 39                        @ lvgl/src/lv_draw/lv_draw_arc.c:338:39
	add.w	r0, r0, r1, lsr #15
	.loc	2 338 25                        @ lvgl/src/lv_draw/lv_draw_arc.c:338:25
	strh.w	r0, [sp, #36]
	.loc	2 339 27 is_stmt 1              @ lvgl/src/lv_draw/lv_draw_arc.c:339:27
	ldr	r0, [sp, #44]
	ldrh	r1, [r0, #2]
	.loc	2 339 60 is_stmt 0              @ lvgl/src/lv_draw/lv_draw_arc.c:339:60
	str	r1, [sp, #20]                   @ 4-byte Spill
	ldrsh.w	r0, [r0, #6]
	.loc	2 339 43                        @ lvgl/src/lv_draw/lv_draw_arc.c:339:43
	bl	_lv_trigo_sin
	mov	r1, r0
	.loc	2 339 76                        @ lvgl/src/lv_draw/lv_draw_arc.c:339:76
	ldr	r0, [sp, #20]                   @ 4-byte Reload
	ldr	r2, [sp, #44]
	.loc	2 339 79                        @ lvgl/src/lv_draw/lv_draw_arc.c:339:79
	ldrsh.w	r2, [r2, #4]
	.loc	2 339 73                        @ lvgl/src/lv_draw/lv_draw_arc.c:339:73
	muls	r1, r2, r1
	.loc	2 339 39                        @ lvgl/src/lv_draw/lv_draw_arc.c:339:39
	add.w	r0, r0, r1, lsr #15
	.loc	2 339 25                        @ lvgl/src/lv_draw/lv_draw_arc.c:339:25
	strh.w	r0, [sp, #38]
	.loc	2 341 27 is_stmt 1              @ lvgl/src/lv_draw/lv_draw_arc.c:341:27
	ldr	r0, [sp, #44]
	ldrh	r1, [r0]
	.loc	2 341 57 is_stmt 0              @ lvgl/src/lv_draw/lv_draw_arc.c:341:57
	str	r1, [sp, #24]                   @ 4-byte Spill
	ldrh	r0, [r0, #8]
	.loc	2 341 70                        @ lvgl/src/lv_draw/lv_draw_arc.c:341:70
	adds	r0, #90
	.loc	2 341 43                        @ lvgl/src/lv_draw/lv_draw_arc.c:341:43
	sxth	r0, r0
	bl	_lv_trigo_sin
	mov	r1, r0
	.loc	2 341 79                        @ lvgl/src/lv_draw/lv_draw_arc.c:341:79
	ldr	r0, [sp, #24]                   @ 4-byte Reload
	ldr	r2, [sp, #44]
	.loc	2 341 82                        @ lvgl/src/lv_draw/lv_draw_arc.c:341:82
	ldrsh.w	r2, [r2, #4]
	.loc	2 341 76                        @ lvgl/src/lv_draw/lv_draw_arc.c:341:76
	muls	r1, r2, r1
	.loc	2 341 39                        @ lvgl/src/lv_draw/lv_draw_arc.c:341:39
	add.w	r0, r0, r1, lsr #15
	.loc	2 341 25                        @ lvgl/src/lv_draw/lv_draw_arc.c:341:25
	strh.w	r0, [sp, #40]
	.loc	2 342 27 is_stmt 1              @ lvgl/src/lv_draw/lv_draw_arc.c:342:27
	ldr	r0, [sp, #44]
	ldrh	r1, [r0, #2]
	.loc	2 342 60 is_stmt 0              @ lvgl/src/lv_draw/lv_draw_arc.c:342:60
	str	r1, [sp, #28]                   @ 4-byte Spill
	ldrsh.w	r0, [r0, #8]
	.loc	2 342 43                        @ lvgl/src/lv_draw/lv_draw_arc.c:342:43
	bl	_lv_trigo_sin
	mov	r1, r0
	.loc	2 342 74                        @ lvgl/src/lv_draw/lv_draw_arc.c:342:74
	ldr	r0, [sp, #28]                   @ 4-byte Reload
	ldr	r3, [sp, #44]
	.loc	2 342 77                        @ lvgl/src/lv_draw/lv_draw_arc.c:342:77
	ldrsh.w	r2, [r3, #4]
	.loc	2 342 89                        @ lvgl/src/lv_draw/lv_draw_arc.c:342:89
	ldrsh.w	r3, [r3, #14]
	.loc	2 342 84                        @ lvgl/src/lv_draw/lv_draw_arc.c:342:84
	subs	r2, r2, r3
	.loc	2 342 71                        @ lvgl/src/lv_draw/lv_draw_arc.c:342:71
	muls	r1, r2, r1
	.loc	2 342 39                        @ lvgl/src/lv_draw/lv_draw_arc.c:342:39
	add.w	r0, r0, r1, lsr #15
	.loc	2 342 25                        @ lvgl/src/lv_draw/lv_draw_arc.c:342:25
	strh.w	r0, [sp, #42]
	.loc	2 344 68 is_stmt 1              @ lvgl/src/lv_draw/lv_draw_arc.c:344:68
	ldr	r0, [sp, #44]
	.loc	2 344 71 is_stmt 0              @ lvgl/src/lv_draw/lv_draw_arc.c:344:71
	ldr	r2, [r0, #24]
	add	r1, sp, #36
	.loc	2 344 19                        @ lvgl/src/lv_draw/lv_draw_arc.c:344:19
	mov	r0, r1
	bl	_lv_area_intersect
	.loc	2 344 14                        @ lvgl/src/lv_draw/lv_draw_arc.c:344:14
	strb.w	r0, [sp, #35]
.Ltmp147:
	.loc	2 345 12 is_stmt 1              @ lvgl/src/lv_draw/lv_draw_arc.c:345:12
	ldrb.w	r0, [sp, #35]
.Ltmp148:
	.loc	2 345 12 is_stmt 0              @ lvgl/src/lv_draw/lv_draw_arc.c:345:12
	lsls	r0, r0, #31
	cbz	r0, .LBB4_5
	b	.LBB4_4
.LBB4_4:
.Ltmp149:
	.loc	2 345 29                        @ lvgl/src/lv_draw/lv_draw_arc.c:345:29
	ldr	r0, [sp, #44]
	.loc	2 345 61                        @ lvgl/src/lv_draw/lv_draw_arc.c:345:61
	ldr	r2, [r0, #16]
	.loc	2 345 32                        @ lvgl/src/lv_draw/lv_draw_arc.c:345:32
	ldr	r0, [r0, #20]
	add	r1, sp, #36
	.loc	2 345 16                        @ lvgl/src/lv_draw/lv_draw_arc.c:345:16
	bl	lv_draw_rect
	b	.LBB4_5
.Ltmp150:
.LBB4_5:
	.loc	2 346 5 is_stmt 1               @ lvgl/src/lv_draw/lv_draw_arc.c:346:5
	b	.LBB4_31
.Ltmp151:
.LBB4_6:
	.loc	2 347 13                        @ lvgl/src/lv_draw/lv_draw_arc.c:347:13
	ldr	r0, [sp, #44]
	.loc	2 347 16 is_stmt 0              @ lvgl/src/lv_draw/lv_draw_arc.c:347:16
	ldrh	r0, [r0, #10]
	.loc	2 347 35                        @ lvgl/src/lv_draw/lv_draw_arc.c:347:35
	cmp	r0, #3
	beq	.LBB4_8
	b	.LBB4_7
.LBB4_7:
	.loc	2 347 38                        @ lvgl/src/lv_draw/lv_draw_arc.c:347:38
	ldr	r0, [sp, #44]
	.loc	2 347 41                        @ lvgl/src/lv_draw/lv_draw_arc.c:347:41
	ldrh	r0, [r0, #12]
.Ltmp152:
	.loc	2 347 13                        @ lvgl/src/lv_draw/lv_draw_arc.c:347:13
	cmp	r0, #3
	bne.w	.LBB4_17
	b	.LBB4_8
.LBB4_8:
.Ltmp153:
	.loc	2 349 12 is_stmt 1              @ lvgl/src/lv_draw/lv_draw_arc.c:349:12
	ldr	r0, [sp, #44]
	.loc	2 349 15 is_stmt 0              @ lvgl/src/lv_draw/lv_draw_arc.c:349:15
	ldrh	r0, [r0, #10]
.Ltmp154:
	.loc	2 349 12                        @ lvgl/src/lv_draw/lv_draw_arc.c:349:12
	cmp	r0, #3
	bne	.LBB4_12
	b	.LBB4_9
.LBB4_9:
.Ltmp155:
	.loc	2 350 31 is_stmt 1              @ lvgl/src/lv_draw/lv_draw_arc.c:350:31
	ldr	r1, [sp, #44]
	ldrh	r0, [r1]
	.loc	2 350 45 is_stmt 0              @ lvgl/src/lv_draw/lv_draw_arc.c:350:45
	ldrh	r1, [r1, #4]
	.loc	2 350 43                        @ lvgl/src/lv_draw/lv_draw_arc.c:350:43
	add	r0, r1
	.loc	2 350 29                        @ lvgl/src/lv_draw/lv_draw_arc.c:350:29
	strh.w	r0, [sp, #40]
	.loc	2 351 31 is_stmt 1              @ lvgl/src/lv_draw/lv_draw_arc.c:351:31
	ldr	r0, [sp, #44]
	ldrh	r0, [r0, #2]
	.loc	2 351 43 is_stmt 0              @ lvgl/src/lv_draw/lv_draw_arc.c:351:43
	subs	r0, #1
	.loc	2 351 29                        @ lvgl/src/lv_draw/lv_draw_arc.c:351:29
	strh.w	r0, [sp, #42]
	.loc	2 353 31 is_stmt 1              @ lvgl/src/lv_draw/lv_draw_arc.c:353:31
	ldr	r0, [sp, #44]
	ldrh	r1, [r0]
	.loc	2 353 61 is_stmt 0              @ lvgl/src/lv_draw/lv_draw_arc.c:353:61
	str	r1, [sp, #8]                    @ 4-byte Spill
	ldrh	r0, [r0, #6]
	.loc	2 353 76                        @ lvgl/src/lv_draw/lv_draw_arc.c:353:76
	adds	r0, #90
	.loc	2 353 47                        @ lvgl/src/lv_draw/lv_draw_arc.c:353:47
	sxth	r0, r0
	bl	_lv_trigo_sin
	mov	r1, r0
	.loc	2 353 85                        @ lvgl/src/lv_draw/lv_draw_arc.c:353:85
	ldr	r0, [sp, #8]                    @ 4-byte Reload
	ldr	r3, [sp, #44]
	.loc	2 353 88                        @ lvgl/src/lv_draw/lv_draw_arc.c:353:88
	ldrsh.w	r2, [r3, #4]
	.loc	2 353 100                       @ lvgl/src/lv_draw/lv_draw_arc.c:353:100
	ldrsh.w	r3, [r3, #14]
	.loc	2 353 95                        @ lvgl/src/lv_draw/lv_draw_arc.c:353:95
	subs	r2, r2, r3
	.loc	2 353 82                        @ lvgl/src/lv_draw/lv_draw_arc.c:353:82
	muls	r1, r2, r1
	.loc	2 353 43                        @ lvgl/src/lv_draw/lv_draw_arc.c:353:43
	add.w	r0, r0, r1, lsr #15
	.loc	2 353 29                        @ lvgl/src/lv_draw/lv_draw_arc.c:353:29
	strh.w	r0, [sp, #36]
	.loc	2 354 31 is_stmt 1              @ lvgl/src/lv_draw/lv_draw_arc.c:354:31
	ldr	r0, [sp, #44]
	ldrh	r1, [r0, #2]
	.loc	2 354 64 is_stmt 0              @ lvgl/src/lv_draw/lv_draw_arc.c:354:64
	str	r1, [sp, #12]                   @ 4-byte Spill
	ldrsh.w	r0, [r0, #6]
	.loc	2 354 47                        @ lvgl/src/lv_draw/lv_draw_arc.c:354:47
	bl	_lv_trigo_sin
	mov	r1, r0
	.loc	2 354 80                        @ lvgl/src/lv_draw/lv_draw_arc.c:354:80
	ldr	r0, [sp, #12]                   @ 4-byte Reload
	ldr	r2, [sp, #44]
	.loc	2 354 83                        @ lvgl/src/lv_draw/lv_draw_arc.c:354:83
	ldrsh.w	r2, [r2, #4]
	.loc	2 354 77                        @ lvgl/src/lv_draw/lv_draw_arc.c:354:77
	muls	r1, r2, r1
	.loc	2 354 43                        @ lvgl/src/lv_draw/lv_draw_arc.c:354:43
	add.w	r0, r0, r1, lsr #15
	.loc	2 354 29                        @ lvgl/src/lv_draw/lv_draw_arc.c:354:29
	strh.w	r0, [sp, #38]
	.loc	2 356 72 is_stmt 1              @ lvgl/src/lv_draw/lv_draw_arc.c:356:72
	ldr	r0, [sp, #44]
	.loc	2 356 75 is_stmt 0              @ lvgl/src/lv_draw/lv_draw_arc.c:356:75
	ldr	r2, [r0, #24]
	add	r1, sp, #36
	.loc	2 356 23                        @ lvgl/src/lv_draw/lv_draw_arc.c:356:23
	mov	r0, r1
	bl	_lv_area_intersect
	.loc	2 356 18                        @ lvgl/src/lv_draw/lv_draw_arc.c:356:18
	strb.w	r0, [sp, #34]
.Ltmp156:
	.loc	2 357 16 is_stmt 1              @ lvgl/src/lv_draw/lv_draw_arc.c:357:16
	ldrb.w	r0, [sp, #34]
.Ltmp157:
	.loc	2 357 16 is_stmt 0              @ lvgl/src/lv_draw/lv_draw_arc.c:357:16
	lsls	r0, r0, #31
	cbz	r0, .LBB4_11
	b	.LBB4_10
.LBB4_10:
.Ltmp158:
	.loc	2 357 33                        @ lvgl/src/lv_draw/lv_draw_arc.c:357:33
	ldr	r0, [sp, #44]
	.loc	2 357 65                        @ lvgl/src/lv_draw/lv_draw_arc.c:357:65
	ldr	r2, [r0, #16]
	.loc	2 357 36                        @ lvgl/src/lv_draw/lv_draw_arc.c:357:36
	ldr	r0, [r0, #20]
	add	r1, sp, #36
	.loc	2 357 20                        @ lvgl/src/lv_draw/lv_draw_arc.c:357:20
	bl	lv_draw_rect
	b	.LBB4_11
.Ltmp159:
.LBB4_11:
	.loc	2 358 9 is_stmt 1               @ lvgl/src/lv_draw/lv_draw_arc.c:358:9
	b	.LBB4_12
.Ltmp160:
.LBB4_12:
	.loc	2 359 12                        @ lvgl/src/lv_draw/lv_draw_arc.c:359:12
	ldr	r0, [sp, #44]
	.loc	2 359 15 is_stmt 0              @ lvgl/src/lv_draw/lv_draw_arc.c:359:15
	ldrh	r0, [r0, #12]
.Ltmp161:
	.loc	2 359 12                        @ lvgl/src/lv_draw/lv_draw_arc.c:359:12
	cmp	r0, #3
	bne	.LBB4_16
	b	.LBB4_13
.LBB4_13:
.Ltmp162:
	.loc	2 360 31 is_stmt 1              @ lvgl/src/lv_draw/lv_draw_arc.c:360:31
	ldr	r0, [sp, #44]
	.loc	2 360 34 is_stmt 0              @ lvgl/src/lv_draw/lv_draw_arc.c:360:34
	ldrh	r0, [r0]
	.loc	2 360 29                        @ lvgl/src/lv_draw/lv_draw_arc.c:360:29
	strh.w	r0, [sp, #36]
	.loc	2 361 31 is_stmt 1              @ lvgl/src/lv_draw/lv_draw_arc.c:361:31
	ldr	r1, [sp, #44]
	ldrh	r0, [r1, #2]
	.loc	2 361 45 is_stmt 0              @ lvgl/src/lv_draw/lv_draw_arc.c:361:45
	ldrh	r1, [r1, #4]
	.loc	2 361 43                        @ lvgl/src/lv_draw/lv_draw_arc.c:361:43
	subs	r0, r0, r1
	.loc	2 361 29                        @ lvgl/src/lv_draw/lv_draw_arc.c:361:29
	strh.w	r0, [sp, #38]
	.loc	2 363 31 is_stmt 1              @ lvgl/src/lv_draw/lv_draw_arc.c:363:31
	ldr	r0, [sp, #44]
	ldrh	r1, [r0]
	.loc	2 363 61 is_stmt 0              @ lvgl/src/lv_draw/lv_draw_arc.c:363:61
	str	r1, [sp]                        @ 4-byte Spill
	ldrh	r0, [r0, #8]
	.loc	2 363 74                        @ lvgl/src/lv_draw/lv_draw_arc.c:363:74
	adds	r0, #90
	.loc	2 363 47                        @ lvgl/src/lv_draw/lv_draw_arc.c:363:47
	sxth	r0, r0
	bl	_lv_trigo_sin
	mov	r1, r0
	.loc	2 363 83                        @ lvgl/src/lv_draw/lv_draw_arc.c:363:83
	ldr	r0, [sp]                        @ 4-byte Reload
	ldr	r2, [sp, #44]
	.loc	2 363 86                        @ lvgl/src/lv_draw/lv_draw_arc.c:363:86
	ldrsh.w	r2, [r2, #4]
	.loc	2 363 80                        @ lvgl/src/lv_draw/lv_draw_arc.c:363:80
	muls	r1, r2, r1
	.loc	2 363 43                        @ lvgl/src/lv_draw/lv_draw_arc.c:363:43
	add.w	r0, r0, r1, lsr #15
	.loc	2 363 29                        @ lvgl/src/lv_draw/lv_draw_arc.c:363:29
	strh.w	r0, [sp, #40]
	.loc	2 364 31 is_stmt 1              @ lvgl/src/lv_draw/lv_draw_arc.c:364:31
	ldr	r0, [sp, #44]
	ldrh	r1, [r0, #2]
	.loc	2 364 64 is_stmt 0              @ lvgl/src/lv_draw/lv_draw_arc.c:364:64
	str	r1, [sp, #4]                    @ 4-byte Spill
	ldrsh.w	r0, [r0, #8]
	.loc	2 364 47                        @ lvgl/src/lv_draw/lv_draw_arc.c:364:47
	bl	_lv_trigo_sin
	mov	r1, r0
	.loc	2 364 78                        @ lvgl/src/lv_draw/lv_draw_arc.c:364:78
	ldr	r0, [sp, #4]                    @ 4-byte Reload
	ldr	r3, [sp, #44]
	.loc	2 364 81                        @ lvgl/src/lv_draw/lv_draw_arc.c:364:81
	ldrsh.w	r2, [r3, #4]
	.loc	2 364 93                        @ lvgl/src/lv_draw/lv_draw_arc.c:364:93
	ldrsh.w	r3, [r3, #14]
	.loc	2 364 88                        @ lvgl/src/lv_draw/lv_draw_arc.c:364:88
	subs	r2, r2, r3
	.loc	2 364 75                        @ lvgl/src/lv_draw/lv_draw_arc.c:364:75
	muls	r1, r2, r1
	.loc	2 364 43                        @ lvgl/src/lv_draw/lv_draw_arc.c:364:43
	add.w	r0, r0, r1, lsr #15
	.loc	2 364 29                        @ lvgl/src/lv_draw/lv_draw_arc.c:364:29
	strh.w	r0, [sp, #42]
	.loc	2 366 72 is_stmt 1              @ lvgl/src/lv_draw/lv_draw_arc.c:366:72
	ldr	r0, [sp, #44]
	.loc	2 366 75 is_stmt 0              @ lvgl/src/lv_draw/lv_draw_arc.c:366:75
	ldr	r2, [r0, #24]
	add	r1, sp, #36
	.loc	2 366 23                        @ lvgl/src/lv_draw/lv_draw_arc.c:366:23
	mov	r0, r1
	bl	_lv_area_intersect
	.loc	2 366 18                        @ lvgl/src/lv_draw/lv_draw_arc.c:366:18
	strb.w	r0, [sp, #33]
.Ltmp163:
	.loc	2 367 16 is_stmt 1              @ lvgl/src/lv_draw/lv_draw_arc.c:367:16
	ldrb.w	r0, [sp, #33]
.Ltmp164:
	.loc	2 367 16 is_stmt 0              @ lvgl/src/lv_draw/lv_draw_arc.c:367:16
	lsls	r0, r0, #31
	cbz	r0, .LBB4_15
	b	.LBB4_14
.LBB4_14:
.Ltmp165:
	.loc	2 367 33                        @ lvgl/src/lv_draw/lv_draw_arc.c:367:33
	ldr	r0, [sp, #44]
	.loc	2 367 65                        @ lvgl/src/lv_draw/lv_draw_arc.c:367:65
	ldr	r2, [r0, #16]
	.loc	2 367 36                        @ lvgl/src/lv_draw/lv_draw_arc.c:367:36
	ldr	r0, [r0, #20]
	add	r1, sp, #36
	.loc	2 367 20                        @ lvgl/src/lv_draw/lv_draw_arc.c:367:20
	bl	lv_draw_rect
	b	.LBB4_15
.Ltmp166:
.LBB4_15:
	.loc	2 368 9 is_stmt 1               @ lvgl/src/lv_draw/lv_draw_arc.c:368:9
	b	.LBB4_16
.Ltmp167:
.LBB4_16:
	.loc	2 369 5                         @ lvgl/src/lv_draw/lv_draw_arc.c:369:5
	b	.LBB4_30
.Ltmp168:
.LBB4_17:
	.loc	2 370 14                        @ lvgl/src/lv_draw/lv_draw_arc.c:370:14
	ldr	r1, [sp, #44]
	.loc	2 370 17 is_stmt 0              @ lvgl/src/lv_draw/lv_draw_arc.c:370:17
	ldrh	r0, [r1, #10]
	.loc	2 370 37                        @ lvgl/src/lv_draw/lv_draw_arc.c:370:37
	ldrh	r1, [r1, #12]
	.loc	2 370 49                        @ lvgl/src/lv_draw/lv_draw_arc.c:370:49
	cmp	r0, r1
	bne	.LBB4_20
	b	.LBB4_18
.LBB4_18:
	.loc	2 370 52                        @ lvgl/src/lv_draw/lv_draw_arc.c:370:52
	ldr	r0, [sp, #44]
	.loc	2 370 55                        @ lvgl/src/lv_draw/lv_draw_arc.c:370:55
	ldrh	r0, [r0, #10]
	.loc	2 370 74                        @ lvgl/src/lv_draw/lv_draw_arc.c:370:74
	cmp	r0, #3
	beq	.LBB4_20
	b	.LBB4_19
.LBB4_19:
	.loc	2 370 77                        @ lvgl/src/lv_draw/lv_draw_arc.c:370:77
	ldr	r1, [sp, #44]
	.loc	2 370 80                        @ lvgl/src/lv_draw/lv_draw_arc.c:370:80
	ldrh	r0, [r1, #8]
	.loc	2 370 95                        @ lvgl/src/lv_draw/lv_draw_arc.c:370:95
	ldrh	r1, [r1, #6]
	.loc	2 370 108                       @ lvgl/src/lv_draw/lv_draw_arc.c:370:108
	cmp	r0, r1
	blt	.LBB4_26
	b	.LBB4_20
.LBB4_20:
	.loc	2 371 14 is_stmt 1              @ lvgl/src/lv_draw/lv_draw_arc.c:371:14
	ldr	r0, [sp, #44]
	.loc	2 371 17 is_stmt 0              @ lvgl/src/lv_draw/lv_draw_arc.c:371:17
	ldrh	r0, [r0, #10]
	.loc	2 371 36                        @ lvgl/src/lv_draw/lv_draw_arc.c:371:36
	cmp	r0, #2
	bne	.LBB4_22
	b	.LBB4_21
.LBB4_21:
	.loc	2 371 39                        @ lvgl/src/lv_draw/lv_draw_arc.c:371:39
	ldr	r0, [sp, #44]
	.loc	2 371 42                        @ lvgl/src/lv_draw/lv_draw_arc.c:371:42
	ldrh	r0, [r0, #12]
	.loc	2 371 60                        @ lvgl/src/lv_draw/lv_draw_arc.c:371:60
	cbz	r0, .LBB4_26
	b	.LBB4_22
.LBB4_22:
	.loc	2 372 14 is_stmt 1              @ lvgl/src/lv_draw/lv_draw_arc.c:372:14
	ldr	r0, [sp, #44]
	.loc	2 372 17 is_stmt 0              @ lvgl/src/lv_draw/lv_draw_arc.c:372:17
	ldrh	r0, [r0, #10]
	.loc	2 372 36                        @ lvgl/src/lv_draw/lv_draw_arc.c:372:36
	cmp	r0, #1
	bne	.LBB4_24
	b	.LBB4_23
.LBB4_23:
	.loc	2 372 39                        @ lvgl/src/lv_draw/lv_draw_arc.c:372:39
	ldr	r0, [sp, #44]
	.loc	2 372 42                        @ lvgl/src/lv_draw/lv_draw_arc.c:372:42
	ldrh	r0, [r0, #12]
	.loc	2 372 60                        @ lvgl/src/lv_draw/lv_draw_arc.c:372:60
	cbz	r0, .LBB4_26
	b	.LBB4_24
.LBB4_24:
	.loc	2 373 14 is_stmt 1              @ lvgl/src/lv_draw/lv_draw_arc.c:373:14
	ldr	r0, [sp, #44]
	.loc	2 373 17 is_stmt 0              @ lvgl/src/lv_draw/lv_draw_arc.c:373:17
	ldrh	r0, [r0, #10]
	.loc	2 373 36                        @ lvgl/src/lv_draw/lv_draw_arc.c:373:36
	cmp	r0, #2
	bne	.LBB4_29
	b	.LBB4_25
.LBB4_25:
	.loc	2 373 39                        @ lvgl/src/lv_draw/lv_draw_arc.c:373:39
	ldr	r0, [sp, #44]
	.loc	2 373 42                        @ lvgl/src/lv_draw/lv_draw_arc.c:373:42
	ldrh	r0, [r0, #12]
.Ltmp169:
	.loc	2 370 13 is_stmt 1              @ lvgl/src/lv_draw/lv_draw_arc.c:370:13
	cmp	r0, #1
	bne	.LBB4_29
	b	.LBB4_26
.LBB4_26:
.Ltmp170:
	.loc	2 375 27                        @ lvgl/src/lv_draw/lv_draw_arc.c:375:27
	ldr	r0, [sp, #44]
	.loc	2 375 30 is_stmt 0              @ lvgl/src/lv_draw/lv_draw_arc.c:375:30
	ldrh	r0, [r0]
	.loc	2 375 25                        @ lvgl/src/lv_draw/lv_draw_arc.c:375:25
	strh.w	r0, [sp, #36]
	.loc	2 376 27 is_stmt 1              @ lvgl/src/lv_draw/lv_draw_arc.c:376:27
	ldr	r1, [sp, #44]
	ldrh	r0, [r1, #2]
	.loc	2 376 41 is_stmt 0              @ lvgl/src/lv_draw/lv_draw_arc.c:376:41
	ldrh	r1, [r1, #4]
	.loc	2 376 39                        @ lvgl/src/lv_draw/lv_draw_arc.c:376:39
	subs	r0, r0, r1
	.loc	2 376 25                        @ lvgl/src/lv_draw/lv_draw_arc.c:376:25
	strh.w	r0, [sp, #38]
	.loc	2 377 27 is_stmt 1              @ lvgl/src/lv_draw/lv_draw_arc.c:377:27
	ldr	r1, [sp, #44]
	ldrh	r0, [r1]
	.loc	2 377 41 is_stmt 0              @ lvgl/src/lv_draw/lv_draw_arc.c:377:41
	ldrh	r1, [r1, #4]
	.loc	2 377 39                        @ lvgl/src/lv_draw/lv_draw_arc.c:377:39
	add	r0, r1
	.loc	2 377 25                        @ lvgl/src/lv_draw/lv_draw_arc.c:377:25
	strh.w	r0, [sp, #40]
	.loc	2 378 27 is_stmt 1              @ lvgl/src/lv_draw/lv_draw_arc.c:378:27
	ldr	r0, [sp, #44]
	ldrh	r0, [r0, #2]
	.loc	2 378 39 is_stmt 0              @ lvgl/src/lv_draw/lv_draw_arc.c:378:39
	subs	r0, #1
	.loc	2 378 25                        @ lvgl/src/lv_draw/lv_draw_arc.c:378:25
	strh.w	r0, [sp, #42]
	.loc	2 380 68 is_stmt 1              @ lvgl/src/lv_draw/lv_draw_arc.c:380:68
	ldr	r0, [sp, #44]
	.loc	2 380 71 is_stmt 0              @ lvgl/src/lv_draw/lv_draw_arc.c:380:71
	ldr	r2, [r0, #24]
	add	r1, sp, #36
	.loc	2 380 19                        @ lvgl/src/lv_draw/lv_draw_arc.c:380:19
	mov	r0, r1
	bl	_lv_area_intersect
	.loc	2 380 14                        @ lvgl/src/lv_draw/lv_draw_arc.c:380:14
	strb.w	r0, [sp, #32]
.Ltmp171:
	.loc	2 381 12 is_stmt 1              @ lvgl/src/lv_draw/lv_draw_arc.c:381:12
	ldrb.w	r0, [sp, #32]
.Ltmp172:
	.loc	2 381 12 is_stmt 0              @ lvgl/src/lv_draw/lv_draw_arc.c:381:12
	lsls	r0, r0, #31
	cbz	r0, .LBB4_28
	b	.LBB4_27
.LBB4_27:
.Ltmp173:
	.loc	2 381 29                        @ lvgl/src/lv_draw/lv_draw_arc.c:381:29
	ldr	r0, [sp, #44]
	.loc	2 381 61                        @ lvgl/src/lv_draw/lv_draw_arc.c:381:61
	ldr	r2, [r0, #16]
	.loc	2 381 32                        @ lvgl/src/lv_draw/lv_draw_arc.c:381:32
	ldr	r0, [r0, #20]
	add	r1, sp, #36
	.loc	2 381 16                        @ lvgl/src/lv_draw/lv_draw_arc.c:381:16
	bl	lv_draw_rect
	b	.LBB4_28
.Ltmp174:
.LBB4_28:
	.loc	2 382 5 is_stmt 1               @ lvgl/src/lv_draw/lv_draw_arc.c:382:5
	b	.LBB4_29
.Ltmp175:
.LBB4_29:
	.loc	2 0 5 is_stmt 0                 @ lvgl/src/lv_draw/lv_draw_arc.c:0:5
	b	.LBB4_30
.LBB4_30:
	b	.LBB4_31
.LBB4_31:
	.loc	2 383 1 is_stmt 1               @ lvgl/src/lv_draw/lv_draw_arc.c:383:1
	add	sp, #48
	pop	{r7, pc}
.Ltmp176:
.Lfunc_end4:
	.size	draw_quarter_3, .Lfunc_end4-draw_quarter_3
	.cfi_endproc
	.cantunwind
	.fnend
                                        @ -- End function
	.section	.text.get_rounded_area,"ax",%progbits
	.p2align	3                               @ -- Begin function get_rounded_area
	.type	get_rounded_area,%function
	.code	16                              @ @get_rounded_area
	.thumb_func
get_rounded_area:
.Lfunc_begin5:
	.loc	2 386 0                         @ lvgl/src/lv_draw/lv_draw_arc.c:386:0
	.fnstart
	.cfi_startproc
@ %bb.0:
	.save	{r7, lr}
	push	{r7, lr}
	.cfi_def_cfa_offset 8
	.cfi_offset lr, -4
	.cfi_offset r7, -8
	.pad	#40
	sub	sp, #40
	.cfi_def_cfa_offset 48
                                        @ kill: def $r12 killed $r2
                                        @ kill: def $r12 killed $r1
                                        @ kill: def $r12 killed $r0
	strh.w	r0, [sp, #38]
	strh.w	r1, [sp, #36]
	strb.w	r2, [sp, #35]
	str	r3, [sp, #28]
	movs	r0, #8
.Ltmp177:
	.loc	2 387 19 prologue_end           @ lvgl/src/lv_draw/lv_draw_arc.c:387:19
	strb.w	r0, [sp, #27]
	movs	r0, #127
	.loc	2 388 19                        @ lvgl/src/lv_draw/lv_draw_arc.c:388:19
	strb.w	r0, [sp, #26]
	.loc	2 390 26                        @ lvgl/src/lv_draw/lv_draw_arc.c:390:26
	ldrb.w	r0, [sp, #35]
	.loc	2 390 36 is_stmt 0              @ lvgl/src/lv_draw/lv_draw_arc.c:390:36
	lsrs	r0, r0, #1
	.loc	2 390 13                        @ lvgl/src/lv_draw/lv_draw_arc.c:390:13
	str	r0, [sp, #20]
	.loc	2 391 27 is_stmt 1              @ lvgl/src/lv_draw/lv_draw_arc.c:391:27
	ldrb.w	r1, [sp, #35]
	movs	r0, #1
	.loc	2 391 26 is_stmt 0              @ lvgl/src/lv_draw/lv_draw_arc.c:391:26
	bics	r0, r1
	.loc	2 391 13                        @ lvgl/src/lv_draw/lv_draw_arc.c:391:13
	strb.w	r0, [sp, #19]
	.loc	2 396 15 is_stmt 1              @ lvgl/src/lv_draw/lv_draw_arc.c:396:15
	ldrsh.w	r0, [sp, #36]
	.loc	2 396 24 is_stmt 0              @ lvgl/src/lv_draw/lv_draw_arc.c:396:24
	ldr	r1, [sp, #20]
	.loc	2 396 22                        @ lvgl/src/lv_draw/lv_draw_arc.c:396:22
	subs	r0, r0, r1
	.loc	2 396 57                        @ lvgl/src/lv_draw/lv_draw_arc.c:396:57
	str	r0, [sp]                        @ 4-byte Spill
	ldrh.w	r0, [sp, #38]
	.loc	2 396 55                        @ lvgl/src/lv_draw/lv_draw_arc.c:396:55
	rsb.w	r0, r0, #90
	.loc	2 396 38                        @ lvgl/src/lv_draw/lv_draw_arc.c:396:38
	sxth	r0, r0
	bl	_lv_trigo_sin
	mov	r1, r0
	.loc	2 396 36                        @ lvgl/src/lv_draw/lv_draw_arc.c:396:36
	ldr	r0, [sp]                        @ 4-byte Reload
	muls	r0, r1, r0
	.loc	2 396 65                        @ lvgl/src/lv_draw/lv_draw_arc.c:396:65
	asrs	r0, r0, #7
	.loc	2 396 11                        @ lvgl/src/lv_draw/lv_draw_arc.c:396:11
	str	r0, [sp, #12]
	.loc	2 397 15 is_stmt 1              @ lvgl/src/lv_draw/lv_draw_arc.c:397:15
	ldrsh.w	r0, [sp, #36]
	.loc	2 397 24 is_stmt 0              @ lvgl/src/lv_draw/lv_draw_arc.c:397:24
	ldr	r1, [sp, #20]
	.loc	2 397 22                        @ lvgl/src/lv_draw/lv_draw_arc.c:397:22
	subs	r0, r0, r1
	.loc	2 397 52                        @ lvgl/src/lv_draw/lv_draw_arc.c:397:52
	str	r0, [sp, #4]                    @ 4-byte Spill
	ldrsh.w	r0, [sp, #38]
	.loc	2 397 38                        @ lvgl/src/lv_draw/lv_draw_arc.c:397:38
	bl	_lv_trigo_sin
	mov	r1, r0
	.loc	2 397 36                        @ lvgl/src/lv_draw/lv_draw_arc.c:397:36
	ldr	r0, [sp, #4]                    @ 4-byte Reload
	muls	r0, r1, r0
	.loc	2 397 60                        @ lvgl/src/lv_draw/lv_draw_arc.c:397:60
	asrs	r0, r0, #7
	.loc	2 397 11                        @ lvgl/src/lv_draw/lv_draw_arc.c:397:11
	str	r0, [sp, #8]
.Ltmp178:
	.loc	2 400 8 is_stmt 1               @ lvgl/src/lv_draw/lv_draw_arc.c:400:8
	ldr	r0, [sp, #12]
.Ltmp179:
	.loc	2 400 8 is_stmt 0               @ lvgl/src/lv_draw/lv_draw_arc.c:400:8
	cmp	r0, #1
	blt	.LBB5_2
	b	.LBB5_1
.LBB5_1:
.Ltmp180:
	.loc	2 401 18 is_stmt 1              @ lvgl/src/lv_draw/lv_draw_arc.c:401:18
	ldr	r0, [sp, #12]
	.loc	2 401 24 is_stmt 0              @ lvgl/src/lv_draw/lv_draw_arc.c:401:24
	subs	r0, #127
	.loc	2 401 30                        @ lvgl/src/lv_draw/lv_draw_arc.c:401:30
	asrs	r0, r0, #8
	.loc	2 401 15                        @ lvgl/src/lv_draw/lv_draw_arc.c:401:15
	str	r0, [sp, #12]
	.loc	2 402 24 is_stmt 1              @ lvgl/src/lv_draw/lv_draw_arc.c:402:24
	ldr	r0, [sp, #12]
	.loc	2 402 32 is_stmt 0              @ lvgl/src/lv_draw/lv_draw_arc.c:402:32
	ldr	r1, [sp, #20]
	.loc	2 402 30                        @ lvgl/src/lv_draw/lv_draw_arc.c:402:30
	subs	r0, r0, r1
	.loc	2 402 45                        @ lvgl/src/lv_draw/lv_draw_arc.c:402:45
	ldrb.w	r1, [sp, #19]
	.loc	2 402 43                        @ lvgl/src/lv_draw/lv_draw_arc.c:402:43
	add	r0, r1
	.loc	2 402 9                         @ lvgl/src/lv_draw/lv_draw_arc.c:402:9
	ldr	r1, [sp, #28]
	.loc	2 402 22                        @ lvgl/src/lv_draw/lv_draw_arc.c:402:22
	strh	r0, [r1]
	.loc	2 403 24 is_stmt 1              @ lvgl/src/lv_draw/lv_draw_arc.c:403:24
	ldr	r0, [sp, #12]
	.loc	2 403 32 is_stmt 0              @ lvgl/src/lv_draw/lv_draw_arc.c:403:32
	ldr	r1, [sp, #20]
	.loc	2 403 30                        @ lvgl/src/lv_draw/lv_draw_arc.c:403:30
	add	r0, r1
	.loc	2 403 9                         @ lvgl/src/lv_draw/lv_draw_arc.c:403:9
	ldr	r1, [sp, #28]
	.loc	2 403 22                        @ lvgl/src/lv_draw/lv_draw_arc.c:403:22
	strh	r0, [r1, #4]
	.loc	2 404 5 is_stmt 1               @ lvgl/src/lv_draw/lv_draw_arc.c:404:5
	b	.LBB5_3
.Ltmp181:
.LBB5_2:
	.loc	2 406 18                        @ lvgl/src/lv_draw/lv_draw_arc.c:406:18
	ldr	r0, [sp, #12]
	.loc	2 406 24 is_stmt 0              @ lvgl/src/lv_draw/lv_draw_arc.c:406:24
	adds	r0, #127
	.loc	2 406 30                        @ lvgl/src/lv_draw/lv_draw_arc.c:406:30
	asrs	r0, r0, #8
	.loc	2 406 15                        @ lvgl/src/lv_draw/lv_draw_arc.c:406:15
	str	r0, [sp, #12]
	.loc	2 407 24 is_stmt 1              @ lvgl/src/lv_draw/lv_draw_arc.c:407:24
	ldr	r0, [sp, #12]
	.loc	2 407 32 is_stmt 0              @ lvgl/src/lv_draw/lv_draw_arc.c:407:32
	ldr	r1, [sp, #20]
	.loc	2 407 30                        @ lvgl/src/lv_draw/lv_draw_arc.c:407:30
	subs	r0, r0, r1
	.loc	2 407 9                         @ lvgl/src/lv_draw/lv_draw_arc.c:407:9
	ldr	r1, [sp, #28]
	.loc	2 407 22                        @ lvgl/src/lv_draw/lv_draw_arc.c:407:22
	strh	r0, [r1]
	.loc	2 408 24 is_stmt 1              @ lvgl/src/lv_draw/lv_draw_arc.c:408:24
	ldr	r0, [sp, #12]
	.loc	2 408 32 is_stmt 0              @ lvgl/src/lv_draw/lv_draw_arc.c:408:32
	ldr	r1, [sp, #20]
	.loc	2 408 30                        @ lvgl/src/lv_draw/lv_draw_arc.c:408:30
	add	r0, r1
	.loc	2 408 45                        @ lvgl/src/lv_draw/lv_draw_arc.c:408:45
	ldrb.w	r1, [sp, #19]
	.loc	2 408 43                        @ lvgl/src/lv_draw/lv_draw_arc.c:408:43
	subs	r0, r0, r1
	.loc	2 408 9                         @ lvgl/src/lv_draw/lv_draw_arc.c:408:9
	ldr	r1, [sp, #28]
	.loc	2 408 22                        @ lvgl/src/lv_draw/lv_draw_arc.c:408:22
	strh	r0, [r1, #4]
	b	.LBB5_3
.Ltmp182:
.LBB5_3:
	.loc	2 411 8 is_stmt 1               @ lvgl/src/lv_draw/lv_draw_arc.c:411:8
	ldr	r0, [sp, #8]
.Ltmp183:
	.loc	2 411 8 is_stmt 0               @ lvgl/src/lv_draw/lv_draw_arc.c:411:8
	cmp	r0, #1
	blt	.LBB5_5
	b	.LBB5_4
.LBB5_4:
.Ltmp184:
	.loc	2 412 18 is_stmt 1              @ lvgl/src/lv_draw/lv_draw_arc.c:412:18
	ldr	r0, [sp, #8]
	.loc	2 412 24 is_stmt 0              @ lvgl/src/lv_draw/lv_draw_arc.c:412:24
	subs	r0, #127
	.loc	2 412 30                        @ lvgl/src/lv_draw/lv_draw_arc.c:412:30
	asrs	r0, r0, #8
	.loc	2 412 15                        @ lvgl/src/lv_draw/lv_draw_arc.c:412:15
	str	r0, [sp, #8]
	.loc	2 413 24 is_stmt 1              @ lvgl/src/lv_draw/lv_draw_arc.c:413:24
	ldr	r0, [sp, #8]
	.loc	2 413 32 is_stmt 0              @ lvgl/src/lv_draw/lv_draw_arc.c:413:32
	ldr	r1, [sp, #20]
	.loc	2 413 30                        @ lvgl/src/lv_draw/lv_draw_arc.c:413:30
	subs	r0, r0, r1
	.loc	2 413 45                        @ lvgl/src/lv_draw/lv_draw_arc.c:413:45
	ldrb.w	r1, [sp, #19]
	.loc	2 413 43                        @ lvgl/src/lv_draw/lv_draw_arc.c:413:43
	add	r0, r1
	.loc	2 413 9                         @ lvgl/src/lv_draw/lv_draw_arc.c:413:9
	ldr	r1, [sp, #28]
	.loc	2 413 22                        @ lvgl/src/lv_draw/lv_draw_arc.c:413:22
	strh	r0, [r1, #2]
	.loc	2 414 24 is_stmt 1              @ lvgl/src/lv_draw/lv_draw_arc.c:414:24
	ldr	r0, [sp, #8]
	.loc	2 414 32 is_stmt 0              @ lvgl/src/lv_draw/lv_draw_arc.c:414:32
	ldr	r1, [sp, #20]
	.loc	2 414 30                        @ lvgl/src/lv_draw/lv_draw_arc.c:414:30
	add	r0, r1
	.loc	2 414 9                         @ lvgl/src/lv_draw/lv_draw_arc.c:414:9
	ldr	r1, [sp, #28]
	.loc	2 414 22                        @ lvgl/src/lv_draw/lv_draw_arc.c:414:22
	strh	r0, [r1, #6]
	.loc	2 415 5 is_stmt 1               @ lvgl/src/lv_draw/lv_draw_arc.c:415:5
	b	.LBB5_6
.Ltmp185:
.LBB5_5:
	.loc	2 417 18                        @ lvgl/src/lv_draw/lv_draw_arc.c:417:18
	ldr	r0, [sp, #8]
	.loc	2 417 24 is_stmt 0              @ lvgl/src/lv_draw/lv_draw_arc.c:417:24
	adds	r0, #127
	.loc	2 417 30                        @ lvgl/src/lv_draw/lv_draw_arc.c:417:30
	asrs	r0, r0, #8
	.loc	2 417 15                        @ lvgl/src/lv_draw/lv_draw_arc.c:417:15
	str	r0, [sp, #8]
	.loc	2 418 24 is_stmt 1              @ lvgl/src/lv_draw/lv_draw_arc.c:418:24
	ldr	r0, [sp, #8]
	.loc	2 418 32 is_stmt 0              @ lvgl/src/lv_draw/lv_draw_arc.c:418:32
	ldr	r1, [sp, #20]
	.loc	2 418 30                        @ lvgl/src/lv_draw/lv_draw_arc.c:418:30
	subs	r0, r0, r1
	.loc	2 418 9                         @ lvgl/src/lv_draw/lv_draw_arc.c:418:9
	ldr	r1, [sp, #28]
	.loc	2 418 22                        @ lvgl/src/lv_draw/lv_draw_arc.c:418:22
	strh	r0, [r1, #2]
	.loc	2 419 24 is_stmt 1              @ lvgl/src/lv_draw/lv_draw_arc.c:419:24
	ldr	r0, [sp, #8]
	.loc	2 419 32 is_stmt 0              @ lvgl/src/lv_draw/lv_draw_arc.c:419:32
	ldr	r1, [sp, #20]
	.loc	2 419 30                        @ lvgl/src/lv_draw/lv_draw_arc.c:419:30
	add	r0, r1
	.loc	2 419 45                        @ lvgl/src/lv_draw/lv_draw_arc.c:419:45
	ldrb.w	r1, [sp, #19]
	.loc	2 419 43                        @ lvgl/src/lv_draw/lv_draw_arc.c:419:43
	subs	r0, r0, r1
	.loc	2 419 9                         @ lvgl/src/lv_draw/lv_draw_arc.c:419:9
	ldr	r1, [sp, #28]
	.loc	2 419 22                        @ lvgl/src/lv_draw/lv_draw_arc.c:419:22
	strh	r0, [r1, #6]
	b	.LBB5_6
.Ltmp186:
.LBB5_6:
	.loc	2 421 1 is_stmt 1               @ lvgl/src/lv_draw/lv_draw_arc.c:421:1
	add	sp, #40
	pop	{r7, pc}
.Ltmp187:
.Lfunc_end5:
	.size	get_rounded_area, .Lfunc_end5-get_rounded_area
	.cfi_endproc
	.cantunwind
	.fnend
                                        @ -- End function
	.file	3 "D:\\Keil_v5\\ARM\\ARMCLANG\\Bin\\..\\include" "stdint.h"
	.file	4 "E:\\Smart-access-control\\Hardware\\CODE" "./lvgl/src/lv_conf.h"
	.file	5 "E:\\Smart-access-control\\Hardware\\CODE" "lvgl/src/lv_draw/../lv_misc/lv_area.h"
	.file	6 "E:\\Smart-access-control\\Hardware\\CODE" "lvgl/src/lv_draw/lv_draw_line.h"
	.file	7 "E:\\Smart-access-control\\Hardware\\CODE" "lvgl/src/lv_draw/../lv_core/lv_style.h"
	.file	8 "E:\\Smart-access-control\\Hardware\\CODE" "lvgl/src/lv_draw/../lv_core/../lv_draw/lv_draw_blend.h"
	.file	9 "E:\\Smart-access-control\\Hardware\\CODE" "lvgl/src/lv_draw/lv_draw_rect.h"
	.file	10 "E:\\Smart-access-control\\Hardware\\CODE" "lvgl/src/lv_draw/../lv_core/../lv_font/lv_font.h"
	.file	11 "E:\\Smart-access-control\\Hardware\\CODE" "lvgl/src/lv_draw/lv_draw_mask.h"
	.section	".note.GNU-stack","",%progbits
	.eabi_attribute	30, 6	@ Tag_ABI_optimization_goals
	.ARM_attribute	16, 1	@ Tag_AV_eba