	.text
	.syntax unified
	.eabi_attribute	67, "2.09"	@ Tag_conformance
	.cpu	cortex-m7
	.eabi_attribute	6, 13	@ Tag_CPU_arch
	.eabi_attribute	7, 77	@ Tag_CPU_arch_profile
	.eabi_attribute	8, 0	@ Tag_ARM_ISA_use
	.eabi_attribute	9, 2	@ Tag_THUMB_ISA_use
	.fpu	fpv5-d16
	.eabi_attribute	36, 1	@ Tag_FP_HP_extension
	.eabi_attribute	34, 1	@ Tag_CPU_unaligned_access
	.eabi_attribute	17, 1	@ Tag_ABI_PCS_GOT_use
	.eabi_attribute	20, 2	@ Tag_ABI_FP_denormal
	.eabi_attribute	21, 0	@ Tag_ABI_FP_exceptions
	.eabi_attribute	23, 1	@ Tag_ABI_FP_number_model
	.eabi_attribute	24, 1	@ Tag_ABI_align_needed
	.eabi_attribute	25, 1	@ Tag_ABI_align_preserved
	.eabi_attribute	28, 1	@ Tag_ABI_VFP_args
	.eabi_attribute	38, 1	@ Tag_ABI_FP_16bit_format
	.eabi_attribute	18, 2	@ Tag_ABI_PCS_wchar_t
	.eabi_attribute	26, 1	@ Tag_ABI_enum_size
	.eabi_attribute	14, 0	@ Tag_ABI_PCS_R9_use
	.file	"lv_draw_img.c"
	.file	1 "E:\\STM32\\Learning\\STM32H750_ART_PI_RGBLCD" "lvgl/src/lv_draw/../lv_hal/../lv_misc/lv_color.h"
	.file	2 "E:\\STM32\\Learning\\STM32H750_ART_PI_RGBLCD" "lvgl/src/lv_draw/../lv_core/../lv_misc/lv_types.h"
	.file	3 "E:\\STM32\\Learning\\STM32H750_ART_PI_RGBLCD" "lvgl/src/lv_draw/lv_img_decoder.h"
	.file	4 "E:\\STM32\\Learning\\STM32H750_ART_PI_RGBLCD" "lvgl/src/lv_draw/lv_draw_mask.h"
	.file	5 "E:\\STM32\\Learning\\STM32H750_ART_PI_RGBLCD" "lvgl/src/lv_draw/lv_img_buf.h"
	.file	6 "D:\\Keil_v5\\ARM\\ARMCLANG\\Bin\\..\\include" "stdint.h"
	.file	7 "E:\\STM32\\Learning\\STM32H750_ART_PI_RGBLCD" "./lvgl/src/lv_conf.h"
	.section	.text.lv_draw_img_dsc_init,"ax",%progbits
	.hidden	lv_draw_img_dsc_init            @ -- Begin function lv_draw_img_dsc_init
	.globl	lv_draw_img_dsc_init
	.p2align	3
	.type	lv_draw_img_dsc_init,%function
	.code	16                              @ @lv_draw_img_dsc_init
	.thumb_func
lv_draw_img_dsc_init:
.Lfunc_begin0:
	.file	8 "E:\\STM32\\Learning\\STM32H750_ART_PI_RGBLCD" "lvgl/src/lv_draw/lv_draw_img.c"
	.loc	8 58 0                          @ lvgl/src/lv_draw/lv_draw_img.c:58:0
	.fnstart
	.cfi_sections .debug_frame
	.cfi_startproc
@ %bb.0:
	.save	{r7, lr}
	push	{r7, lr}
	.cfi_def_cfa_offset 8
	.cfi_offset lr, -4
	.cfi_offset r7, -8
	.pad	#8
	sub	sp, #8
	.cfi_def_cfa_offset 16
	str	r0, [sp, #4]
.Ltmp0:
	.loc	8 59 19 prologue_end            @ lvgl/src/lv_draw/lv_draw_img.c:59:19
	ldr	r0, [sp, #4]
	movs	r1, #20
	.loc	8 59 5 is_stmt 0                @ lvgl/src/lv_draw/lv_draw_img.c:59:5
	bl	_lv_memset_00
	.loc	8 60 5 is_stmt 1                @ lvgl/src/lv_draw/lv_draw_img.c:60:5
	ldr	r2, [sp, #4]
	movs	r0, #0
	.loc	8 60 20 is_stmt 0               @ lvgl/src/lv_draw/lv_draw_img.c:60:20
	strb.w	r0, [sp]
	strb.w	r0, [sp, #1]
	strb.w	r0, [sp, #2]
	movs	r0, #255
	strb.w	r0, [sp, #3]
	ldr	r1, [sp]
	str	r1, [r2, #12]
	.loc	8 61 5 is_stmt 1                @ lvgl/src/lv_draw/lv_draw_img.c:61:5
	ldr	r1, [sp, #4]
	.loc	8 61 14 is_stmt 0               @ lvgl/src/lv_draw/lv_draw_img.c:61:14
	strb	r0, [r1]
	.loc	8 62 5 is_stmt 1                @ lvgl/src/lv_draw/lv_draw_img.c:62:5
	ldr	r1, [sp, #4]
	mov.w	r0, #256
	.loc	8 62 15 is_stmt 0               @ lvgl/src/lv_draw/lv_draw_img.c:62:15
	strh	r0, [r1, #8]
	.loc	8 63 5 is_stmt 1                @ lvgl/src/lv_draw/lv_draw_img.c:63:5
	ldr	r1, [sp, #4]
	.loc	8 63 20 is_stmt 0               @ lvgl/src/lv_draw/lv_draw_img.c:63:20
	ldrb	r0, [r1, #17]
	orr	r0, r0, #1
	strb	r0, [r1, #17]
	.loc	8 65 1 is_stmt 1                @ lvgl/src/lv_draw/lv_draw_img.c:65:1
	add	sp, #8
	pop	{r7, pc}
.Ltmp1:
.Lfunc_end0:
	.size	lv_draw_img_dsc_init, .Lfunc_end0-lv_draw_img_dsc_init
	.cfi_endproc
	.cantunwind
	.fnend
                                        @ -- End function
	.section	.text.lv_draw_img,"ax",%progbits
	.hidden	lv_draw_img                     @ -- Begin function lv_draw_img
	.globl	lv_draw_img
	.p2align	3
	.type	lv_draw_img,%function
	.code	16                              @ @lv_draw_img
	.thumb_func
lv_draw_img:
.Lfunc_begin1:
	.loc	8 75 0                          @ lvgl/src/lv_draw/lv_draw_img.c:75:0
	.fnstart
	.cfi_startproc
@ %bb.0:
	.save	{r7, lr}
	push	{r7, lr}
	.cfi_def_cfa_offset 8
	.cfi_offset lr, -4
	.cfi_offset r7, -8
	.pad	#24
	sub	sp, #24
	.cfi_def_cfa_offset 32
	str	r0, [sp, #20]
	str	r1, [sp, #16]
	str	r2, [sp, #12]
	str	r3, [sp, #8]
.Ltmp2:
	.loc	8 76 8 prologue_end             @ lvgl/src/lv_draw/lv_draw_img.c:76:8
	ldr	r0, [sp, #12]
.Ltmp3:
	.loc	8 76 8 is_stmt 0                @ lvgl/src/lv_draw/lv_draw_img.c:76:8
	cbnz	r0, .LBB1_2
	b	.LBB1_1
.LBB1_1:
.Ltmp4:
	.loc	8 78 20 is_stmt 1               @ lvgl/src/lv_draw/lv_draw_img.c:78:20
	ldr	r0, [sp, #20]
	.loc	8 78 28 is_stmt 0               @ lvgl/src/lv_draw/lv_draw_img.c:78:28
	ldr	r1, [sp, #16]
	.loc	8 78 9                          @ lvgl/src/lv_draw/lv_draw_img.c:78:9
	movw	r2, :lower16:.L.str
	movt	r2, :upper16:.L.str
	bl	show_error
	.loc	8 79 9 is_stmt 1                @ lvgl/src/lv_draw/lv_draw_img.c:79:9
	b	.LBB1_6
.Ltmp5:
.LBB1_2:
	.loc	8 82 8                          @ lvgl/src/lv_draw/lv_draw_img.c:82:8
	ldr	r0, [sp, #8]
	.loc	8 82 13 is_stmt 0               @ lvgl/src/lv_draw/lv_draw_img.c:82:13
	ldrb	r0, [r0]
.Ltmp6:
	.loc	8 82 8                          @ lvgl/src/lv_draw/lv_draw_img.c:82:8
	cmp	r0, #2
	bgt	.LBB1_4
	b	.LBB1_3
.LBB1_3:
.Ltmp7:
	.loc	8 82 32                         @ lvgl/src/lv_draw/lv_draw_img.c:82:32
	b	.LBB1_6
.Ltmp8:
.LBB1_4:
	.loc	8 85 28 is_stmt 1               @ lvgl/src/lv_draw/lv_draw_img.c:85:28
	ldr	r0, [sp, #20]
	.loc	8 85 36 is_stmt 0               @ lvgl/src/lv_draw/lv_draw_img.c:85:36
	ldr	r1, [sp, #16]
	.loc	8 85 42                         @ lvgl/src/lv_draw/lv_draw_img.c:85:42
	ldr	r2, [sp, #12]
	.loc	8 85 47                         @ lvgl/src/lv_draw/lv_draw_img.c:85:47
	ldr	r3, [sp, #8]
	.loc	8 85 11                         @ lvgl/src/lv_draw/lv_draw_img.c:85:11
	bl	lv_img_draw_core
	.loc	8 85 9                          @ lvgl/src/lv_draw/lv_draw_img.c:85:9
	strb.w	r0, [sp, #7]
.Ltmp9:
	.loc	8 87 8 is_stmt 1                @ lvgl/src/lv_draw/lv_draw_img.c:87:8
	ldrb.w	r0, [sp, #7]
.Ltmp10:
	.loc	8 87 8 is_stmt 0                @ lvgl/src/lv_draw/lv_draw_img.c:87:8
	cbnz	r0, .LBB1_6
	b	.LBB1_5
.LBB1_5:
.Ltmp11:
	.loc	8 89 20 is_stmt 1               @ lvgl/src/lv_draw/lv_draw_img.c:89:20
	ldr	r0, [sp, #20]
	.loc	8 89 28 is_stmt 0               @ lvgl/src/lv_draw/lv_draw_img.c:89:28
	ldr	r1, [sp, #16]
	.loc	8 89 9                          @ lvgl/src/lv_draw/lv_draw_img.c:89:9
	movw	r2, :lower16:.L.str
	movt	r2, :upper16:.L.str
	bl	show_error
	.loc	8 90 9 is_stmt 1                @ lvgl/src/lv_draw/lv_draw_img.c:90:9
	b	.LBB1_6
.Ltmp12:
.LBB1_6:
	.loc	8 92 1                          @ lvgl/src/lv_draw/lv_draw_img.c:92:1
	add	sp, #24
	pop	{r7, pc}
.Ltmp13:
.Lfunc_end1:
	.size	lv_draw_img, .Lfunc_end1-lv_draw_img
	.cfi_endproc
	.cantunwind
	.fnend
                                        @ -- End function
	.section	.text.show_error,"ax",%progbits
	.p2align	3                               @ -- Begin function show_error
	.type	show_error,%function
	.code	16                              @ @show_error
	.thumb_func
show_error:
.Lfunc_begin2:
	.loc	8 643 0                         @ lvgl/src/lv_draw/lv_draw_img.c:643:0
	.fnstart
	.cfi_startproc
@ %bb.0:
	.save	{r7, lr}
	push	{r7, lr}
	.cfi_def_cfa_offset 8
	.cfi_offset lr, -4
	.cfi_offset r7, -8
	.pad	#176
	sub	sp, #176
	.cfi_def_cfa_offset 184
	str	r0, [sp, #172]
	str	r1, [sp, #168]
	str	r2, [sp, #164]
	add	r0, sp, #60
.Ltmp14:
	.loc	8 645 5 prologue_end            @ lvgl/src/lv_draw/lv_draw_img.c:645:5
	str	r0, [sp, #8]                    @ 4-byte Spill
	bl	lv_draw_rect_dsc_init
	ldr	r2, [sp, #8]                    @ 4-byte Reload
	movs	r0, #255
	.loc	8 646 25                        @ lvgl/src/lv_draw/lv_draw_img.c:646:25
	strb.w	r0, [sp, #56]
	strb.w	r0, [sp, #57]
	strb.w	r0, [sp, #58]
	strb.w	r0, [sp, #59]
	ldr	r0, [sp, #56]
	str	r0, [sp, #64]
	.loc	8 647 18                        @ lvgl/src/lv_draw/lv_draw_img.c:647:18
	ldr	r0, [sp, #172]
	.loc	8 647 26 is_stmt 0              @ lvgl/src/lv_draw/lv_draw_img.c:647:26
	ldr	r1, [sp, #168]
	.loc	8 647 5                         @ lvgl/src/lv_draw/lv_draw_img.c:647:5
	bl	lv_draw_rect
	add	r0, sp, #16
	.loc	8 650 5 is_stmt 1               @ lvgl/src/lv_draw/lv_draw_img.c:650:5
	str	r0, [sp, #12]                   @ 4-byte Spill
	bl	lv_draw_label_dsc_init
	ldr	r2, [sp, #12]                   @ 4-byte Reload
	.loc	8 651 19                        @ lvgl/src/lv_draw/lv_draw_img.c:651:19
	ldr	r0, [sp, #172]
	.loc	8 651 27 is_stmt 0              @ lvgl/src/lv_draw/lv_draw_img.c:651:27
	ldr	r1, [sp, #168]
	.loc	8 651 50                        @ lvgl/src/lv_draw/lv_draw_img.c:651:50
	ldr	r3, [sp, #164]
	.loc	8 651 5                         @ lvgl/src/lv_draw/lv_draw_img.c:651:5
	mov	lr, sp
	mov.w	r12, #0
	str.w	r12, [lr]
	bl	lv_draw_label
	.loc	8 652 1 is_stmt 1               @ lvgl/src/lv_draw/lv_draw_img.c:652:1
	add	sp, #176
	pop	{r7, pc}
.Ltmp15:
.Lfunc_end2:
	.size	show_error, .Lfunc_end2-show_error
	.cfi_endproc
	.cantunwind
	.fnend
                                        @ -- End function
	.section	.text.lv_img_draw_core,"ax",%progbits
	.p2align	3                               @ -- Begin function lv_img_draw_core
	.type	lv_img_draw_core,%function
	.code	16                              @ @lv_img_draw_core
	.thumb_func
lv_img_draw_core:
.Lfunc_begin3:
	.loc	8 236 0                         @ lvgl/src/lv_draw/lv_draw_img.c:236:0
	.fnstart
	.cfi_startproc
@ %bb.0:
	.save	{r7, lr}
	push	{r7, lr}
	.cfi_def_cfa_offset 8
	.cfi_offset lr, -4
	.cfi_offset r7, -8
	.pad	#128
	sub	sp, #128
	.cfi_def_cfa_offset 136
	str	r0, [sp, #120]
	str	r1, [sp, #116]
	str	r2, [sp, #112]
	str	r3, [sp, #108]
.Ltmp16:
	.loc	8 237 8 prologue_end            @ lvgl/src/lv_draw/lv_draw_img.c:237:8
	ldr	r0, [sp, #108]
	.loc	8 237 18 is_stmt 0              @ lvgl/src/lv_draw/lv_draw_img.c:237:18
	ldrb	r0, [r0]
.Ltmp17:
	.loc	8 237 8                         @ lvgl/src/lv_draw/lv_draw_img.c:237:8
	cmp	r0, #2
	bgt	.LBB3_2
	b	.LBB3_1
.LBB3_1:
	.loc	8 0 8                           @ lvgl/src/lv_draw/lv_draw_img.c:0:8
	movs	r0, #1
.Ltmp18:
	.loc	8 237 37                        @ lvgl/src/lv_draw/lv_draw_img.c:237:37
	strb.w	r0, [sp, #127]
	b	.LBB3_26
.Ltmp19:
.LBB3_2:
	.loc	8 239 54 is_stmt 1              @ lvgl/src/lv_draw/lv_draw_img.c:239:54
	ldr	r0, [sp, #112]
	.loc	8 239 59 is_stmt 0              @ lvgl/src/lv_draw/lv_draw_img.c:239:59
	ldr	r1, [sp, #108]
	.loc	8 239 35                        @ lvgl/src/lv_draw/lv_draw_img.c:239:35
	ldr	r1, [r1, #12]
	bl	_lv_img_cache_open
	.loc	8 239 28                        @ lvgl/src/lv_draw/lv_draw_img.c:239:28
	str	r0, [sp, #104]
.Ltmp20:
	.loc	8 241 8 is_stmt 1               @ lvgl/src/lv_draw/lv_draw_img.c:241:8
	ldr	r0, [sp, #104]
.Ltmp21:
	.loc	8 241 8 is_stmt 0               @ lvgl/src/lv_draw/lv_draw_img.c:241:8
	cbnz	r0, .LBB3_4
	b	.LBB3_3
.LBB3_3:
	.loc	8 0 8                           @ lvgl/src/lv_draw/lv_draw_img.c:0:8
	movs	r0, #0
.Ltmp22:
	.loc	8 241 22                        @ lvgl/src/lv_draw/lv_draw_img.c:241:22
	strb.w	r0, [sp, #127]
	b	.LBB3_26
.Ltmp23:
.LBB3_4:
	.loc	8 243 51 is_stmt 1              @ lvgl/src/lv_draw/lv_draw_img.c:243:51
	ldr	r0, [sp, #104]
	.loc	8 243 72 is_stmt 0              @ lvgl/src/lv_draw/lv_draw_img.c:243:72
	ldrb	r0, [r0, #16]
	and	r0, r0, #31
	.loc	8 243 25                        @ lvgl/src/lv_draw/lv_draw_img.c:243:25
	bl	lv_img_cf_is_chroma_keyed
	.loc	8 243 10                        @ lvgl/src/lv_draw/lv_draw_img.c:243:10
	strb.w	r0, [sp, #103]
	.loc	8 244 45 is_stmt 1              @ lvgl/src/lv_draw/lv_draw_img.c:244:45
	ldr	r0, [sp, #104]
	.loc	8 244 66 is_stmt 0              @ lvgl/src/lv_draw/lv_draw_img.c:244:66
	ldrb	r0, [r0, #16]
	and	r0, r0, #31
	.loc	8 244 25                        @ lvgl/src/lv_draw/lv_draw_img.c:244:25
	bl	lv_img_cf_has_alpha
	.loc	8 244 10                        @ lvgl/src/lv_draw/lv_draw_img.c:244:10
	strb.w	r0, [sp, #102]
.Ltmp24:
	.loc	8 246 8 is_stmt 1               @ lvgl/src/lv_draw/lv_draw_img.c:246:8
	ldr	r0, [sp, #104]
	.loc	8 246 22 is_stmt 0              @ lvgl/src/lv_draw/lv_draw_img.c:246:22
	ldr	r0, [r0, #28]
.Ltmp25:
	.loc	8 246 8                         @ lvgl/src/lv_draw/lv_draw_img.c:246:8
	cbz	r0, .LBB3_6
	b	.LBB3_5
.LBB3_5:
.Ltmp26:
	.loc	8 249 20 is_stmt 1              @ lvgl/src/lv_draw/lv_draw_img.c:249:20
	ldr	r0, [sp, #120]
	.loc	8 249 28 is_stmt 0              @ lvgl/src/lv_draw/lv_draw_img.c:249:28
	ldr	r1, [sp, #116]
	.loc	8 249 39                        @ lvgl/src/lv_draw/lv_draw_img.c:249:39
	ldr	r2, [sp, #104]
	.loc	8 249 53                        @ lvgl/src/lv_draw/lv_draw_img.c:249:53
	ldr	r2, [r2, #28]
	.loc	8 249 9                         @ lvgl/src/lv_draw/lv_draw_img.c:249:9
	bl	show_error
	.loc	8 250 5 is_stmt 1               @ lvgl/src/lv_draw/lv_draw_img.c:250:5
	b	.LBB3_25
.Ltmp27:
.LBB3_6:
	.loc	8 253 13                        @ lvgl/src/lv_draw/lv_draw_img.c:253:13
	ldr	r0, [sp, #104]
	.loc	8 253 27 is_stmt 0              @ lvgl/src/lv_draw/lv_draw_img.c:253:27
	ldr	r0, [r0, #20]
.Ltmp28:
	.loc	8 253 13                        @ lvgl/src/lv_draw/lv_draw_img.c:253:13
	cmp	r0, #0
	beq	.LBB3_13
	b	.LBB3_7
.LBB3_7:
.Ltmp29:
	.loc	8 255 37 is_stmt 1              @ lvgl/src/lv_draw/lv_draw_img.c:255:37
	ldr	r1, [sp, #120]
	add	r0, sp, #92
	.loc	8 255 9 is_stmt 0               @ lvgl/src/lv_draw/lv_draw_img.c:255:9
	bl	lv_area_copy
.Ltmp30:
	.loc	8 256 12 is_stmt 1              @ lvgl/src/lv_draw/lv_draw_img.c:256:12
	ldr	r0, [sp, #108]
	.loc	8 256 22 is_stmt 0              @ lvgl/src/lv_draw/lv_draw_img.c:256:22
	ldrh	r0, [r0, #2]
	.loc	8 256 28                        @ lvgl/src/lv_draw/lv_draw_img.c:256:28
	cbnz	r0, .LBB3_9
	b	.LBB3_8
.LBB3_8:
	.loc	8 256 31                        @ lvgl/src/lv_draw/lv_draw_img.c:256:31
	ldr	r0, [sp, #108]
	.loc	8 256 41                        @ lvgl/src/lv_draw/lv_draw_img.c:256:41
	ldrh	r0, [r0, #8]
.Ltmp31:
	.loc	8 256 12                        @ lvgl/src/lv_draw/lv_draw_img.c:256:12
	cmp.w	r0, #256
	beq	.LBB3_10
	b	.LBB3_9
.LBB3_9:
.Ltmp32:
	.loc	8 257 43 is_stmt 1              @ lvgl/src/lv_draw/lv_draw_img.c:257:43
	ldr	r0, [sp, #120]
	.loc	8 257 25 is_stmt 0              @ lvgl/src/lv_draw/lv_draw_img.c:257:25
	bl	lv_area_get_width
	.loc	8 257 21                        @ lvgl/src/lv_draw/lv_draw_img.c:257:21
	str	r0, [sp, #88]
	.loc	8 258 44 is_stmt 1              @ lvgl/src/lv_draw/lv_draw_img.c:258:44
	ldr	r0, [sp, #120]
	.loc	8 258 25 is_stmt 0              @ lvgl/src/lv_draw/lv_draw_img.c:258:25
	bl	lv_area_get_height
	.loc	8 258 21                        @ lvgl/src/lv_draw/lv_draw_img.c:258:21
	str	r0, [sp, #84]
	.loc	8 260 61 is_stmt 1              @ lvgl/src/lv_draw/lv_draw_img.c:260:61
	ldrsh.w	r1, [sp, #88]
	.loc	8 260 64 is_stmt 0              @ lvgl/src/lv_draw/lv_draw_img.c:260:64
	ldrsh.w	r2, [sp, #84]
	.loc	8 260 67                        @ lvgl/src/lv_draw/lv_draw_img.c:260:67
	ldr.w	r12, [sp, #108]
	.loc	8 260 77                        @ lvgl/src/lv_draw/lv_draw_img.c:260:77
	ldrsh.w	r3, [r12, #2]
	.loc	8 260 94                        @ lvgl/src/lv_draw/lv_draw_img.c:260:94
	ldrh.w	r0, [r12, #8]
	.loc	8 260 111                       @ lvgl/src/lv_draw/lv_draw_img.c:260:111
	add.w	lr, r12, #4
	.loc	8 260 13                        @ lvgl/src/lv_draw/lv_draw_img.c:260:13
	mov	r12, sp
	str.w	lr, [r12, #4]
	str.w	r0, [r12]
	add	r0, sp, #92
	bl	_lv_img_buf_get_transformed_area
	.loc	8 262 32 is_stmt 1              @ lvgl/src/lv_draw/lv_draw_img.c:262:32
	ldr	r0, [sp, #120]
	ldrh	r1, [r0]
	.loc	8 262 29 is_stmt 0              @ lvgl/src/lv_draw/lv_draw_img.c:262:29
	ldrh.w	r0, [sp, #92]
	add	r0, r1
	strh.w	r0, [sp, #92]
	.loc	8 263 32 is_stmt 1              @ lvgl/src/lv_draw/lv_draw_img.c:263:32
	ldr	r0, [sp, #120]
	ldrh	r1, [r0, #2]
	.loc	8 263 29 is_stmt 0              @ lvgl/src/lv_draw/lv_draw_img.c:263:29
	ldrh.w	r0, [sp, #94]
	add	r0, r1
	strh.w	r0, [sp, #94]
	.loc	8 264 32 is_stmt 1              @ lvgl/src/lv_draw/lv_draw_img.c:264:32
	ldr	r0, [sp, #120]
	ldrh	r1, [r0]
	.loc	8 264 29 is_stmt 0              @ lvgl/src/lv_draw/lv_draw_img.c:264:29
	ldrh.w	r0, [sp, #96]
	add	r0, r1
	strh.w	r0, [sp, #96]
	.loc	8 265 32 is_stmt 1              @ lvgl/src/lv_draw/lv_draw_img.c:265:32
	ldr	r0, [sp, #120]
	ldrh	r1, [r0, #2]
	.loc	8 265 29 is_stmt 0              @ lvgl/src/lv_draw/lv_draw_img.c:265:29
	ldrh.w	r0, [sp, #98]
	add	r0, r1
	strh.w	r0, [sp, #98]
	.loc	8 266 9 is_stmt 1               @ lvgl/src/lv_draw/lv_draw_img.c:266:9
	b	.LBB3_10
.Ltmp33:
.LBB3_10:
	.loc	8 270 50                        @ lvgl/src/lv_draw/lv_draw_img.c:270:50
	ldr	r1, [sp, #116]
	add	r0, sp, #76
	add	r2, sp, #92
	.loc	8 270 20 is_stmt 0              @ lvgl/src/lv_draw/lv_draw_img.c:270:20
	bl	_lv_area_intersect
	.loc	8 270 18                        @ lvgl/src/lv_draw/lv_draw_img.c:270:18
	strb.w	r0, [sp, #75]
.Ltmp34:
	.loc	8 272 12 is_stmt 1              @ lvgl/src/lv_draw/lv_draw_img.c:272:12
	ldrb.w	r0, [sp, #75]
.Ltmp35:
	.loc	8 272 12 is_stmt 0              @ lvgl/src/lv_draw/lv_draw_img.c:272:12
	lsls	r0, r0, #31
	cbnz	r0, .LBB3_12
	b	.LBB3_11
.LBB3_11:
.Ltmp36:
	.loc	8 273 26 is_stmt 1              @ lvgl/src/lv_draw/lv_draw_img.c:273:26
	ldr	r0, [sp, #104]
	.loc	8 273 13 is_stmt 0              @ lvgl/src/lv_draw/lv_draw_img.c:273:13
	bl	draw_cleanup
	movs	r0, #1
	.loc	8 274 13 is_stmt 1              @ lvgl/src/lv_draw/lv_draw_img.c:274:13
	strb.w	r0, [sp, #127]
	b	.LBB3_26
.Ltmp37:
.LBB3_12:
	.loc	8 277 21                        @ lvgl/src/lv_draw/lv_draw_img.c:277:21
	ldr	r0, [sp, #120]
	.loc	8 277 40 is_stmt 0              @ lvgl/src/lv_draw/lv_draw_img.c:277:40
	ldr	r1, [sp, #104]
	.loc	8 277 54                        @ lvgl/src/lv_draw/lv_draw_img.c:277:54
	ldr	r2, [r1, #20]
	.loc	8 277 64                        @ lvgl/src/lv_draw/lv_draw_img.c:277:64
	ldr	r3, [sp, #108]
	.loc	8 277 9                         @ lvgl/src/lv_draw/lv_draw_img.c:277:9
	ldrb.w	r1, [sp, #103]
	ldrb.w	r12, [sp, #102]
	and	lr, r12, #1
	mov	r12, sp
	str.w	lr, [r12, #4]
	and	r1, r1, #1
	str.w	r1, [r12]
	add	r1, sp, #76
	bl	lv_draw_map
	.loc	8 278 5 is_stmt 1               @ lvgl/src/lv_draw/lv_draw_img.c:278:5
	b	.LBB3_24
.Ltmp38:
.LBB3_13:
	.loc	8 283 50                        @ lvgl/src/lv_draw/lv_draw_img.c:283:50
	ldr	r1, [sp, #116]
	.loc	8 283 61 is_stmt 0              @ lvgl/src/lv_draw/lv_draw_img.c:283:61
	ldr	r2, [sp, #120]
	add	r0, sp, #64
	.loc	8 283 20                        @ lvgl/src/lv_draw/lv_draw_img.c:283:20
	bl	_lv_area_intersect
	.loc	8 283 18                        @ lvgl/src/lv_draw/lv_draw_img.c:283:18
	strb.w	r0, [sp, #63]
.Ltmp39:
	.loc	8 285 12 is_stmt 1              @ lvgl/src/lv_draw/lv_draw_img.c:285:12
	ldrb.w	r0, [sp, #63]
.Ltmp40:
	.loc	8 285 12 is_stmt 0              @ lvgl/src/lv_draw/lv_draw_img.c:285:12
	lsls	r0, r0, #31
	cbnz	r0, .LBB3_15
	b	.LBB3_14
.LBB3_14:
.Ltmp41:
	.loc	8 286 26 is_stmt 1              @ lvgl/src/lv_draw/lv_draw_img.c:286:26
	ldr	r0, [sp, #104]
	.loc	8 286 13 is_stmt 0              @ lvgl/src/lv_draw/lv_draw_img.c:286:13
	bl	draw_cleanup
	movs	r0, #1
	.loc	8 287 13 is_stmt 1              @ lvgl/src/lv_draw/lv_draw_img.c:287:13
	strb.w	r0, [sp, #127]
	b	.LBB3_26
.Ltmp42:
.LBB3_15:
	.loc	8 0 13 is_stmt 0                @ lvgl/src/lv_draw/lv_draw_img.c:0:13
	add	r0, sp, #64
	.loc	8 290 25 is_stmt 1              @ lvgl/src/lv_draw/lv_draw_img.c:290:25
	str	r0, [sp, #12]                   @ 4-byte Spill
	bl	lv_area_get_width
	mov	r1, r0
	.loc	8 290 17 is_stmt 0              @ lvgl/src/lv_draw/lv_draw_img.c:290:17
	ldr	r0, [sp, #12]                   @ 4-byte Reload
	str	r1, [sp, #56]
	.loc	8 292 42 is_stmt 1              @ lvgl/src/lv_draw/lv_draw_img.c:292:42
	bl	lv_area_get_width
	.loc	8 292 71 is_stmt 0              @ lvgl/src/lv_draw/lv_draw_img.c:292:71
	lsls	r0, r0, #2
	.loc	8 292 26                        @ lvgl/src/lv_draw/lv_draw_img.c:292:26
	bl	_lv_mem_buf_get
	ldr	r1, [sp, #12]                   @ 4-byte Reload
	.loc	8 292 20                        @ lvgl/src/lv_draw/lv_draw_img.c:292:20
	str	r0, [sp, #52]
	add	r0, sp, #44
	.loc	8 296 9 is_stmt 1               @ lvgl/src/lv_draw/lv_draw_img.c:296:9
	str	r0, [sp, #16]                   @ 4-byte Spill
	bl	lv_area_copy
	ldr	r0, [sp, #16]                   @ 4-byte Reload
	movs	r1, #1
	.loc	8 297 9                         @ lvgl/src/lv_draw/lv_draw_img.c:297:9
	bl	lv_area_set_height
	.loc	8 298 30                        @ lvgl/src/lv_draw/lv_draw_img.c:298:30
	ldrsh.w	r0, [sp, #64]
	.loc	8 298 35 is_stmt 0              @ lvgl/src/lv_draw/lv_draw_img.c:298:35
	ldr	r1, [sp, #120]
	.loc	8 298 43                        @ lvgl/src/lv_draw/lv_draw_img.c:298:43
	ldrsh.w	r1, [r1]
	.loc	8 298 33                        @ lvgl/src/lv_draw/lv_draw_img.c:298:33
	subs	r0, r0, r1
	.loc	8 298 17                        @ lvgl/src/lv_draw/lv_draw_img.c:298:17
	str	r0, [sp, #40]
	.loc	8 299 30 is_stmt 1              @ lvgl/src/lv_draw/lv_draw_img.c:299:30
	ldrsh.w	r0, [sp, #66]
	.loc	8 299 35 is_stmt 0              @ lvgl/src/lv_draw/lv_draw_img.c:299:35
	ldr	r1, [sp, #120]
	.loc	8 299 43                        @ lvgl/src/lv_draw/lv_draw_img.c:299:43
	ldrsh.w	r1, [r1, #2]
	.loc	8 299 33                        @ lvgl/src/lv_draw/lv_draw_img.c:299:33
	subs	r0, r0, r1
	.loc	8 299 17                        @ lvgl/src/lv_draw/lv_draw_img.c:299:17
	str	r0, [sp, #36]
.Ltmp43:
	.loc	8 302 28 is_stmt 1              @ lvgl/src/lv_draw/lv_draw_img.c:302:28
	ldrsh.w	r0, [sp, #66]
	.loc	8 302 17 is_stmt 0              @ lvgl/src/lv_draw/lv_draw_img.c:302:17
	str	r0, [sp, #32]
	.loc	8 302 13                        @ lvgl/src/lv_draw/lv_draw_img.c:302:13
	b	.LBB3_16
.LBB3_16:                               @ =>This Inner Loop Header: Depth=1
.Ltmp44:
	.loc	8 302 32                        @ lvgl/src/lv_draw/lv_draw_img.c:302:32
	ldr	r0, [sp, #32]
	.loc	8 302 48                        @ lvgl/src/lv_draw/lv_draw_img.c:302:48
	ldrsh.w	r1, [sp, #70]
.Ltmp45:
	.loc	8 302 9                         @ lvgl/src/lv_draw/lv_draw_img.c:302:9
	cmp	r0, r1
	bgt	.LBB3_23
	b	.LBB3_17
.LBB3_17:                               @   in Loop: Header=BB3_16 Depth=1
.Ltmp46:
	.loc	8 304 55 is_stmt 1              @ lvgl/src/lv_draw/lv_draw_img.c:304:55
	ldr	r1, [sp, #116]
	add	r0, sp, #20
	add	r2, sp, #44
	.loc	8 304 24 is_stmt 0              @ lvgl/src/lv_draw/lv_draw_img.c:304:24
	bl	_lv_area_intersect
	.loc	8 304 22                        @ lvgl/src/lv_draw/lv_draw_img.c:304:22
	strb.w	r0, [sp, #63]
.Ltmp47:
	.loc	8 305 16 is_stmt 1              @ lvgl/src/lv_draw/lv_draw_img.c:305:16
	ldrb.w	r0, [sp, #63]
.Ltmp48:
	.loc	8 305 16 is_stmt 0              @ lvgl/src/lv_draw/lv_draw_img.c:305:16
	lsls	r0, r0, #31
	cbnz	r0, .LBB3_19
	b	.LBB3_18
.LBB3_18:                               @   in Loop: Header=BB3_16 Depth=1
.Ltmp49:
	.loc	8 305 35                        @ lvgl/src/lv_draw/lv_draw_img.c:305:35
	b	.LBB3_22
.Ltmp50:
.LBB3_19:                               @   in Loop: Header=BB3_16 Depth=1
	.loc	8 307 50 is_stmt 1              @ lvgl/src/lv_draw/lv_draw_img.c:307:50
	ldr	r0, [sp, #104]
	.loc	8 307 65 is_stmt 0              @ lvgl/src/lv_draw/lv_draw_img.c:307:65
	ldrsh.w	r1, [sp, #40]
	.loc	8 307 68                        @ lvgl/src/lv_draw/lv_draw_img.c:307:68
	ldrsh.w	r2, [sp, #36]
	.loc	8 307 71                        @ lvgl/src/lv_draw/lv_draw_img.c:307:71
	ldrsh.w	r3, [sp, #56]
	.loc	8 307 78                        @ lvgl/src/lv_draw/lv_draw_img.c:307:78
	ldr.w	r12, [sp, #52]
	.loc	8 307 24                        @ lvgl/src/lv_draw/lv_draw_img.c:307:24
	mov	lr, sp
	str.w	r12, [lr]
	bl	lv_img_decoder_read_line
	.loc	8 307 22                        @ lvgl/src/lv_draw/lv_draw_img.c:307:22
	strb.w	r0, [sp, #31]
.Ltmp51:
	.loc	8 308 16 is_stmt 1              @ lvgl/src/lv_draw/lv_draw_img.c:308:16
	ldrb.w	r0, [sp, #31]
.Ltmp52:
	.loc	8 308 16 is_stmt 0              @ lvgl/src/lv_draw/lv_draw_img.c:308:16
	cmp	r0, #1
	beq	.LBB3_21
	b	.LBB3_20
.LBB3_20:
.Ltmp53:
	.loc	8 309 39 is_stmt 1              @ lvgl/src/lv_draw/lv_draw_img.c:309:39
	ldr	r0, [sp, #104]
	.loc	8 309 17 is_stmt 0              @ lvgl/src/lv_draw/lv_draw_img.c:309:17
	bl	lv_img_decoder_close
	.loc	8 311 37 is_stmt 1              @ lvgl/src/lv_draw/lv_draw_img.c:311:37
	ldr	r0, [sp, #52]
	.loc	8 311 17 is_stmt 0              @ lvgl/src/lv_draw/lv_draw_img.c:311:17
	bl	_lv_mem_buf_release
	.loc	8 312 30 is_stmt 1              @ lvgl/src/lv_draw/lv_draw_img.c:312:30
	ldr	r0, [sp, #104]
	.loc	8 312 17 is_stmt 0              @ lvgl/src/lv_draw/lv_draw_img.c:312:17
	bl	draw_cleanup
	movs	r0, #0
	.loc	8 313 17 is_stmt 1              @ lvgl/src/lv_draw/lv_draw_img.c:313:17
	strb.w	r0, [sp, #127]
	b	.LBB3_26
.Ltmp54:
.LBB3_21:                               @   in Loop: Header=BB3_16 Depth=1
	.loc	8 316 44                        @ lvgl/src/lv_draw/lv_draw_img.c:316:44
	ldr	r2, [sp, #52]
	.loc	8 316 49 is_stmt 0              @ lvgl/src/lv_draw/lv_draw_img.c:316:49
	ldr	r3, [sp, #108]
	.loc	8 316 13                        @ lvgl/src/lv_draw/lv_draw_img.c:316:13
	ldrb.w	r0, [sp, #103]
	ldrb.w	r1, [sp, #102]
	and	r12, r1, #1
	mov	r1, sp
	str.w	r12, [r1, #4]
	and	r0, r0, #1
	str	r0, [r1]
	add	r0, sp, #44
	add	r1, sp, #20
	bl	lv_draw_map
	.loc	8 317 20 is_stmt 1              @ lvgl/src/lv_draw/lv_draw_img.c:317:20
	ldrh.w	r0, [sp, #46]
	adds	r0, #1
	strh.w	r0, [sp, #46]
	.loc	8 318 20                        @ lvgl/src/lv_draw/lv_draw_img.c:318:20
	ldrh.w	r0, [sp, #50]
	adds	r0, #1
	strh.w	r0, [sp, #50]
	.loc	8 319 14                        @ lvgl/src/lv_draw/lv_draw_img.c:319:14
	ldr	r0, [sp, #36]
	adds	r0, #1
	str	r0, [sp, #36]
	.loc	8 320 9                         @ lvgl/src/lv_draw/lv_draw_img.c:320:9
	b	.LBB3_22
.Ltmp55:
.LBB3_22:                               @   in Loop: Header=BB3_16 Depth=1
	.loc	8 302 55                        @ lvgl/src/lv_draw/lv_draw_img.c:302:55
	ldr	r0, [sp, #32]
	adds	r0, #1
	str	r0, [sp, #32]
	.loc	8 302 9 is_stmt 0               @ lvgl/src/lv_draw/lv_draw_img.c:302:9
	b	.LBB3_16
.Ltmp56:
.LBB3_23:
	.loc	8 321 29 is_stmt 1              @ lvgl/src/lv_draw/lv_draw_img.c:321:29
	ldr	r0, [sp, #52]
	.loc	8 321 9 is_stmt 0               @ lvgl/src/lv_draw/lv_draw_img.c:321:9
	bl	_lv_mem_buf_release
	b	.LBB3_24
.Ltmp57:
.LBB3_24:
	.loc	8 0 9                           @ lvgl/src/lv_draw/lv_draw_img.c:0:9
	b	.LBB3_25
.LBB3_25:
	.loc	8 324 18 is_stmt 1              @ lvgl/src/lv_draw/lv_draw_img.c:324:18
	ldr	r0, [sp, #104]
	.loc	8 324 5 is_stmt 0               @ lvgl/src/lv_draw/lv_draw_img.c:324:5
	bl	draw_cleanup
	movs	r0, #1
	.loc	8 325 5 is_stmt 1               @ lvgl/src/lv_draw/lv_draw_img.c:325:5
	strb.w	r0, [sp, #127]
	b	.LBB3_26
.LBB3_26:
	.loc	8 326 1                         @ lvgl/src/lv_draw/lv_draw_img.c:326:1
	ldrb.w	r0, [sp, #127]
	add	sp, #128
	pop	{r7, pc}
.Ltmp58:
.Lfunc_end3:
	.size	lv_img_draw_core, .Lfunc_end3-lv_img_draw_core
	.cfi_endproc
	.cantunwind
	.fnend
                                        @ -- End function
	.section	.text.lv_img_cf_get_px_size,"ax",%progbits
	.hidden	lv_img_cf_get_px_size           @ -- Begin function lv_img_cf_get_px_size
	.globl	lv_img_cf_get_px_size
	.p2align	3
	.type	lv_img_cf_get_px_size,%function
	.code	16                              @ @lv_img_cf_get_px_size
	.thumb_func
lv_img_cf_get_px_size:
.Lfunc_begin4:
	.loc	8 100 0                         @ lvgl/src/lv_draw/lv_draw_img.c:100:0
	.fnstart
	.cfi_startproc
@ %bb.0:
	.pad	#8
	sub	sp, #8
	.cfi_def_cfa_offset 8
                                        @ kill: def $r1 killed $r0
	strb.w	r0, [sp, #7]
	movs	r0, #0
.Ltmp59:
	.loc	8 101 13 prologue_end           @ lvgl/src/lv_draw/lv_draw_img.c:101:13
	strb.w	r0, [sp, #6]
	.loc	8 103 12                        @ lvgl/src/lv_draw/lv_draw_img.c:103:12
	ldrb.w	r0, [sp, #7]
	.loc	8 103 5 is_stmt 0               @ lvgl/src/lv_draw/lv_draw_img.c:103:5
	mov	r1, r0
	str	r1, [sp]                        @ 4-byte Spill
	cmp	r0, #14
	bhi	.LBB4_10
@ %bb.1:
	.loc	8 0 5                           @ lvgl/src/lv_draw/lv_draw_img.c:0:5
	ldr	r1, [sp]                        @ 4-byte Reload
.LCPI4_0:
	tbb	[pc, r1]
@ %bb.2:
.LJTI4_0:
	.byte	(.LBB4_3-(.LCPI4_0+4))/2
	.byte	(.LBB4_3-(.LCPI4_0+4))/2
	.byte	(.LBB4_10-(.LCPI4_0+4))/2
	.byte	(.LBB4_10-(.LCPI4_0+4))/2
	.byte	(.LBB4_4-(.LCPI4_0+4))/2
	.byte	(.LBB4_5-(.LCPI4_0+4))/2
	.byte	(.LBB4_4-(.LCPI4_0+4))/2
	.byte	(.LBB4_6-(.LCPI4_0+4))/2
	.byte	(.LBB4_7-(.LCPI4_0+4))/2
	.byte	(.LBB4_8-(.LCPI4_0+4))/2
	.byte	(.LBB4_9-(.LCPI4_0+4))/2
	.byte	(.LBB4_6-(.LCPI4_0+4))/2
	.byte	(.LBB4_7-(.LCPI4_0+4))/2
	.byte	(.LBB4_8-(.LCPI4_0+4))/2
	.byte	(.LBB4_9-(.LCPI4_0+4))/2
	.p2align	1
.LBB4_3:
	movs	r0, #0
.Ltmp60:
	.loc	8 106 21 is_stmt 1              @ lvgl/src/lv_draw/lv_draw_img.c:106:21
	strb.w	r0, [sp, #6]
	.loc	8 107 13                        @ lvgl/src/lv_draw/lv_draw_img.c:107:13
	b	.LBB4_11
.LBB4_4:
	.loc	8 0 13 is_stmt 0                @ lvgl/src/lv_draw/lv_draw_img.c:0:13
	movs	r0, #32
	.loc	8 110 21 is_stmt 1              @ lvgl/src/lv_draw/lv_draw_img.c:110:21
	strb.w	r0, [sp, #6]
	.loc	8 111 13                        @ lvgl/src/lv_draw/lv_draw_img.c:111:13
	b	.LBB4_11
.LBB4_5:
	.loc	8 0 13 is_stmt 0                @ lvgl/src/lv_draw/lv_draw_img.c:0:13
	movs	r0, #32
	.loc	8 113 21 is_stmt 1              @ lvgl/src/lv_draw/lv_draw_img.c:113:21
	strb.w	r0, [sp, #6]
	.loc	8 114 13                        @ lvgl/src/lv_draw/lv_draw_img.c:114:13
	b	.LBB4_11
.LBB4_6:
	.loc	8 0 13 is_stmt 0                @ lvgl/src/lv_draw/lv_draw_img.c:0:13
	movs	r0, #1
	.loc	8 117 21 is_stmt 1              @ lvgl/src/lv_draw/lv_draw_img.c:117:21
	strb.w	r0, [sp, #6]
	.loc	8 118 13                        @ lvgl/src/lv_draw/lv_draw_img.c:118:13
	b	.LBB4_11
.LBB4_7:
	.loc	8 0 13 is_stmt 0                @ lvgl/src/lv_draw/lv_draw_img.c:0:13
	movs	r0, #2
	.loc	8 121 21 is_stmt 1              @ lvgl/src/lv_draw/lv_draw_img.c:121:21
	strb.w	r0, [sp, #6]
	.loc	8 122 13                        @ lvgl/src/lv_draw/lv_draw_img.c:122:13
	b	.LBB4_11
.LBB4_8:
	.loc	8 0 13 is_stmt 0                @ lvgl/src/lv_draw/lv_draw_img.c:0:13
	movs	r0, #4
	.loc	8 125 21 is_stmt 1              @ lvgl/src/lv_draw/lv_draw_img.c:125:21
	strb.w	r0, [sp, #6]
	.loc	8 126 13                        @ lvgl/src/lv_draw/lv_draw_img.c:126:13
	b	.LBB4_11
.LBB4_9:
	.loc	8 0 13 is_stmt 0                @ lvgl/src/lv_draw/lv_draw_img.c:0:13
	movs	r0, #8
	.loc	8 129 21 is_stmt 1              @ lvgl/src/lv_draw/lv_draw_img.c:129:21
	strb.w	r0, [sp, #6]
	.loc	8 130 13                        @ lvgl/src/lv_draw/lv_draw_img.c:130:13
	b	.LBB4_11
.LBB4_10:
	.loc	8 0 13 is_stmt 0                @ lvgl/src/lv_draw/lv_draw_img.c:0:13
	movs	r0, #0
	.loc	8 132 21 is_stmt 1              @ lvgl/src/lv_draw/lv_draw_img.c:132:21
	strb.w	r0, [sp, #6]
	.loc	8 133 13                        @ lvgl/src/lv_draw/lv_draw_img.c:133:13
	b	.LBB4_11
.Ltmp61:
.LBB4_11:
	.loc	8 136 12                        @ lvgl/src/lv_draw/lv_draw_img.c:136:12
	ldrb.w	r0, [sp, #6]
	.loc	8 136 5 is_stmt 0               @ lvgl/src/lv_draw/lv_draw_img.c:136:5
	add	sp, #8
	bx	lr
.Ltmp62:
.Lfunc_end4:
	.size	lv_img_cf_get_px_size, .Lfunc_end4-lv_img_cf_get_px_size
	.cfi_endproc
	.cantunwind
	.fnend
                                        @ -- End function
	.section	.text.lv_img_cf_is_chroma_keyed,"ax",%progbits
	.hidden	lv_img_cf_is_chroma_keyed       @ -- Begin function lv_img_cf_is_chroma_keyed
	.globl	lv_img_cf_is_chroma_keyed
	.p2align	3
	.type	lv_img_cf_is_chroma_keyed,%function
	.code	16                              @ @lv_img_cf_is_chroma_keyed
	.thumb_func
lv_img_cf_is_chroma_keyed:
.Lfunc_begin5:
	.loc	8 145 0 is_stmt 1               @ lvgl/src/lv_draw/lv_draw_img.c:145:0
	.fnstart
	.cfi_startproc
@ %bb.0:
	.pad	#8
	sub	sp, #8
	.cfi_def_cfa_offset 8
                                        @ kill: def $r1 killed $r0
	strb.w	r0, [sp, #7]
	movs	r0, #0
.Ltmp63:
	.loc	8 146 10 prologue_end           @ lvgl/src/lv_draw/lv_draw_img.c:146:10
	strb.w	r0, [sp, #6]
	.loc	8 148 12                        @ lvgl/src/lv_draw/lv_draw_img.c:148:12
	ldrb.w	r0, [sp, #7]
	.loc	8 148 5 is_stmt 0               @ lvgl/src/lv_draw/lv_draw_img.c:148:5
	mov	r1, r0
	str	r1, [sp]                        @ 4-byte Spill
	cmp	r0, #3
	beq	.LBB5_2
	b	.LBB5_1
.LBB5_1:
	ldr	r0, [sp]                        @ 4-byte Reload
	subs	r0, #6
	cmp	r0, #4
	bhi	.LBB5_3
	b	.LBB5_2
.LBB5_2:
	.loc	8 0 5                           @ lvgl/src/lv_draw/lv_draw_img.c:0:5
	movs	r0, #1
.Ltmp64:
	.loc	8 155 29 is_stmt 1              @ lvgl/src/lv_draw/lv_draw_img.c:155:29
	strb.w	r0, [sp, #6]
	.loc	8 156 13                        @ lvgl/src/lv_draw/lv_draw_img.c:156:13
	b	.LBB5_4
.LBB5_3:
	.loc	8 0 13 is_stmt 0                @ lvgl/src/lv_draw/lv_draw_img.c:0:13
	movs	r0, #0
	.loc	8 159 29 is_stmt 1              @ lvgl/src/lv_draw/lv_draw_img.c:159:29
	strb.w	r0, [sp, #6]
	.loc	8 160 13                        @ lvgl/src/lv_draw/lv_draw_img.c:160:13
	b	.LBB5_4
.Ltmp65:
.LBB5_4:
	.loc	8 163 5                         @ lvgl/src/lv_draw/lv_draw_img.c:163:5
	ldrb.w	r0, [sp, #6]
	and	r0, r0, #1
	add	sp, #8
	bx	lr
.Ltmp66:
.Lfunc_end5:
	.size	lv_img_cf_is_chroma_keyed, .Lfunc_end5-lv_img_cf_is_chroma_keyed
	.cfi_endproc
	.cantunwind
	.fnend
                                        @ -- End function
	.section	.text.lv_img_cf_has_alpha,"ax",%progbits
	.hidden	lv_img_cf_has_alpha             @ -- Begin function lv_img_cf_has_alpha
	.globl	lv_img_cf_has_alpha
	.p2align	3
	.type	lv_img_cf_has_alpha,%function
	.code	16                              @ @lv_img_cf_has_alpha
	.thumb_func
lv_img_cf_has_alpha:
.Lfunc_begin6:
	.loc	8 172 0                         @ lvgl/src/lv_draw/lv_draw_img.c:172:0
	.fnstart
	.cfi_startproc
@ %bb.0:
	.pad	#8
	sub	sp, #8
	.cfi_def_cfa_offset 8
                                        @ kill: def $r1 killed $r0
	strb.w	r0, [sp, #7]
	movs	r0, #0
.Ltmp67:
	.loc	8 173 10 prologue_end           @ lvgl/src/lv_draw/lv_draw_img.c:173:10
	strb.w	r0, [sp, #6]
	.loc	8 175 12                        @ lvgl/src/lv_draw/lv_draw_img.c:175:12
	ldrb.w	r0, [sp, #7]
	.loc	8 175 5 is_stmt 0               @ lvgl/src/lv_draw/lv_draw_img.c:175:5
	mov	r1, r0
	str	r1, [sp]                        @ 4-byte Spill
	cmp	r0, #2
	beq	.LBB6_3
	b	.LBB6_1
.LBB6_1:
	ldr	r0, [sp]                        @ 4-byte Reload
	cmp	r0, #5
	beq	.LBB6_3
	b	.LBB6_2
.LBB6_2:
	ldr	r0, [sp]                        @ 4-byte Reload
	subs	r0, #7
	cmp	r0, #7
	bhi	.LBB6_4
	b	.LBB6_3
.LBB6_3:
	.loc	8 0 5                           @ lvgl/src/lv_draw/lv_draw_img.c:0:5
	movs	r0, #1
.Ltmp68:
	.loc	8 186 23 is_stmt 1              @ lvgl/src/lv_draw/lv_draw_img.c:186:23
	strb.w	r0, [sp, #6]
	.loc	8 187 13                        @ lvgl/src/lv_draw/lv_draw_img.c:187:13
	b	.LBB6_5
.LBB6_4:
	.loc	8 0 13 is_stmt 0                @ lvgl/src/lv_draw/lv_draw_img.c:0:13
	movs	r0, #0
	.loc	8 189 23 is_stmt 1              @ lvgl/src/lv_draw/lv_draw_img.c:189:23
	strb.w	r0, [sp, #6]
	.loc	8 190 13                        @ lvgl/src/lv_draw/lv_draw_img.c:190:13
	b	.LBB6_5
.Ltmp69:
.LBB6_5:
	.loc	8 193 5                         @ lvgl/src/lv_draw/lv_draw_img.c:193:5
	ldrb.w	r0, [sp, #6]
	and	r0, r0, #1
	add	sp, #8
	bx	lr
.Ltmp70:
.Lfunc_end6:
	.size	lv_img_cf_has_alpha, .Lfunc_end6-lv_img_cf_has_alpha
	.cfi_endproc
	.cantunwind
	.fnend
                                        @ -- End function
	.section	.text.lv_img_src_get_type,"ax",%progbits
	.hidden	lv_img_src_get_type             @ -- Begin function lv_img_src_get_type
	.globl	lv_img_src_get_type
	.p2align	3
	.type	lv_img_src_get_type,%function
	.code	16                              @ @lv_img_src_get_type
	.thumb_func
lv_img_src_get_type:
.Lfunc_begin7:
	.loc	8 205 0                         @ lvgl/src/lv_draw/lv_draw_img.c:205:0
	.fnstart
	.cfi_startproc
@ %bb.0:
	.pad	#16
	sub	sp, #16
	.cfi_def_cfa_offset 16
	str	r0, [sp, #8]
	movs	r0, #3
.Ltmp71:
	.loc	8 206 18 prologue_end           @ lvgl/src/lv_draw/lv_draw_img.c:206:18
	strb.w	r0, [sp, #7]
.Ltmp72:
	.loc	8 208 8                         @ lvgl/src/lv_draw/lv_draw_img.c:208:8
	ldr	r0, [sp, #8]
.Ltmp73:
	.loc	8 208 8 is_stmt 0               @ lvgl/src/lv_draw/lv_draw_img.c:208:8
	cbnz	r0, .LBB7_2
	b	.LBB7_1
.LBB7_1:
.Ltmp74:
	.loc	8 208 28                        @ lvgl/src/lv_draw/lv_draw_img.c:208:28
	ldrb.w	r0, [sp, #7]
	.loc	8 208 21                        @ lvgl/src/lv_draw/lv_draw_img.c:208:21
	strb.w	r0, [sp, #15]
	b	.LBB7_12
.Ltmp75:
.LBB7_2:
	.loc	8 209 28 is_stmt 1              @ lvgl/src/lv_draw/lv_draw_img.c:209:28
	ldr	r0, [sp, #8]
	.loc	8 209 21 is_stmt 0              @ lvgl/src/lv_draw/lv_draw_img.c:209:21
	str	r0, [sp]
.Ltmp76:
	.loc	8 212 8 is_stmt 1               @ lvgl/src/lv_draw/lv_draw_img.c:212:8
	ldr	r0, [sp]
	ldrb	r0, [r0]
	.loc	8 212 24 is_stmt 0              @ lvgl/src/lv_draw/lv_draw_img.c:212:24
	cmp	r0, #32
	blt	.LBB7_5
	b	.LBB7_3
.LBB7_3:
	.loc	8 212 27                        @ lvgl/src/lv_draw/lv_draw_img.c:212:27
	ldr	r0, [sp]
	ldrb	r0, [r0]
.Ltmp77:
	.loc	8 212 8                         @ lvgl/src/lv_draw/lv_draw_img.c:212:8
	cmp	r0, #127
	bgt	.LBB7_5
	b	.LBB7_4
.LBB7_4:
	.loc	8 0 8                           @ lvgl/src/lv_draw/lv_draw_img.c:0:8
	movs	r0, #1
.Ltmp78:
	.loc	8 213 22 is_stmt 1              @ lvgl/src/lv_draw/lv_draw_img.c:213:22
	strb.w	r0, [sp, #7]
	.loc	8 214 5                         @ lvgl/src/lv_draw/lv_draw_img.c:214:5
	b	.LBB7_9
.Ltmp79:
.LBB7_5:
	.loc	8 215 13                        @ lvgl/src/lv_draw/lv_draw_img.c:215:13
	ldr	r0, [sp]
	ldrb	r0, [r0]
.Ltmp80:
	.loc	8 215 13 is_stmt 0              @ lvgl/src/lv_draw/lv_draw_img.c:215:13
	cmp	r0, #128
	blt	.LBB7_7
	b	.LBB7_6
.LBB7_6:
	.loc	8 0 13                          @ lvgl/src/lv_draw/lv_draw_img.c:0:13
	movs	r0, #2
.Ltmp81:
	.loc	8 216 22 is_stmt 1              @ lvgl/src/lv_draw/lv_draw_img.c:216:22
	strb.w	r0, [sp, #7]
	.loc	8 217 5                         @ lvgl/src/lv_draw/lv_draw_img.c:217:5
	b	.LBB7_8
.Ltmp82:
.LBB7_7:
	.loc	8 0 5 is_stmt 0                 @ lvgl/src/lv_draw/lv_draw_img.c:0:5
	movs	r0, #0
.Ltmp83:
	.loc	8 219 22 is_stmt 1              @ lvgl/src/lv_draw/lv_draw_img.c:219:22
	strb.w	r0, [sp, #7]
	b	.LBB7_8
.Ltmp84:
.LBB7_8:
	.loc	8 0 22 is_stmt 0                @ lvgl/src/lv_draw/lv_draw_img.c:0:22
	b	.LBB7_9
.LBB7_9:
.Ltmp85:
	.loc	8 222 30 is_stmt 1              @ lvgl/src/lv_draw/lv_draw_img.c:222:30
	ldrb.w	r0, [sp, #7]
.Ltmp86:
	.loc	8 222 8 is_stmt 0               @ lvgl/src/lv_draw/lv_draw_img.c:222:8
	cmp	r0, #3
	bne	.LBB7_11
	b	.LBB7_10
.LBB7_10:
.Ltmp87:
	.loc	8 224 5 is_stmt 1               @ lvgl/src/lv_draw/lv_draw_img.c:224:5
	b	.LBB7_11
.Ltmp88:
.LBB7_11:
	.loc	8 226 12                        @ lvgl/src/lv_draw/lv_draw_img.c:226:12
	ldrb.w	r0, [sp, #7]
	.loc	8 226 5 is_stmt 0               @ lvgl/src/lv_draw/lv_draw_img.c:226:5
	strb.w	r0, [sp, #15]
	b	.LBB7_12
.LBB7_12:
	.loc	8 227 1 is_stmt 1               @ lvgl/src/lv_draw/lv_draw_img.c:227:1
	ldrb.w	r0, [sp, #15]
	add	sp, #16
	bx	lr
.Ltmp89:
.Lfunc_end7:
	.size	lv_img_src_get_type, .Lfunc_end7-lv_img_src_get_type
	.cfi_endproc
	.cantunwind
	.fnend
                                        @ -- End function
	.section	.text.lv_area_copy,"ax",%progbits
	.p2align	3                               @ -- Begin function lv_area_copy
	.type	lv_area_copy,%function
	.code	16                              @ @lv_area_copy
	.thumb_func
lv_area_copy:
.Lfunc_begin8:
	.file	9 "E:\\STM32\\Learning\\STM32H750_ART_PI_RGBLCD" "lvgl/src/lv_draw/../lv_hal/../lv_misc/lv_area.h"
	.loc	9 98 0                          @ lvgl/src/lv_draw/../lv_hal/../lv_misc/lv_area.h:98:0
	.fnstart
	.cfi_startproc
@ %bb.0:
	.save	{r7, lr}
	push	{r7, lr}
	.cfi_def_cfa_offset 8
	.cfi_offset lr, -4
	.cfi_offset r7, -8
	.pad	#8
	sub	sp, #8
	.cfi_def_cfa_offset 16
	str	r0, [sp, #4]
	str	r1, [sp]
.Ltmp90:
	.loc	9 99 22 prologue_end            @ lvgl/src/lv_draw/../lv_hal/../lv_misc/lv_area.h:99:22
	ldr	r0, [sp, #4]
	.loc	9 99 28 is_stmt 0               @ lvgl/src/lv_draw/../lv_hal/../lv_misc/lv_area.h:99:28
	ldr	r1, [sp]
	movs	r2, #8
	.loc	9 99 5                          @ lvgl/src/lv_draw/../lv_hal/../lv_misc/lv_area.h:99:5
	bl	_lv_memcpy_small
	.loc	9 100 1 is_stmt 1               @ lvgl/src/lv_draw/../lv_hal/../lv_misc/lv_area.h:100:1
	add	sp, #8
	pop	{r7, pc}
.Ltmp91:
.Lfunc_end8:
	.size	lv_area_copy, .Lfunc_end8-lv_area_copy
	.cfi_endproc
	.cantunwind
	.fnend
                                        @ -- End function
	.section	.text.lv_area_get_width,"ax",%progbits
	.p2align	3                               @ -- Begin function lv_area_get_width
	.type	lv_area_get_width,%function
	.code	16                              @ @lv_area_get_width
	.thumb_func
lv_area_get_width:
.Lfunc_begin9:
	.loc	9 108 0                         @ lvgl/src/lv_draw/../lv_hal/../lv_misc/lv_area.h:108:0
	.fnstart
	.cfi_startproc
@ %bb.0:
	.pad	#4
	sub	sp, #4
	.cfi_def_cfa_offset 4
	str	r0, [sp]
.Ltmp92:
	.loc	9 109 25 prologue_end           @ lvgl/src/lv_draw/../lv_hal/../lv_misc/lv_area.h:109:25
	ldr	r1, [sp]
	ldrh	r0, [r1, #4]
	.loc	9 109 38 is_stmt 0              @ lvgl/src/lv_draw/../lv_hal/../lv_misc/lv_area.h:109:38
	ldrh	r1, [r1]
	.loc	9 109 36                        @ lvgl/src/lv_draw/../lv_hal/../lv_misc/lv_area.h:109:36
	subs	r0, r0, r1
	.loc	9 109 49                        @ lvgl/src/lv_draw/../lv_hal/../lv_misc/lv_area.h:109:49
	adds	r0, #1
	.loc	9 109 5                         @ lvgl/src/lv_draw/../lv_hal/../lv_misc/lv_area.h:109:5
	sxth	r0, r0
	add	sp, #4
	bx	lr
.Ltmp93:
.Lfunc_end9:
	.size	lv_area_get_width, .Lfunc_end9-lv_area_get_width
	.cfi_endproc
	.cantunwind
	.fnend
                                        @ -- End function
	.section	.text.lv_area_get_height,"ax",%progbits
	.p2align	3                               @ -- Begin function lv_area_get_height
	.type	lv_area_get_height,%function
	.code	16                              @ @lv_area_get_height
	.thumb_func
lv_area_get_height:
.Lfunc_begin10:
	.loc	9 118 0 is_stmt 1               @ lvgl/src/lv_draw/../lv_hal/../lv_misc/lv_area.h:118:0
	.fnstart
	.cfi_startproc
@ %bb.0:
	.pad	#4
	sub	sp, #4
	.cfi_def_cfa_offset 4
	str	r0, [sp]
.Ltmp94:
	.loc	9 119 25 prologue_end           @ lvgl/src/lv_draw/../lv_hal/../lv_misc/lv_area.h:119:25
	ldr	r1, [sp]
	ldrh	r0, [r1, #6]
	.loc	9 119 38 is_stmt 0              @ lvgl/src/lv_draw/../lv_hal/../lv_misc/lv_area.h:119:38
	ldrh	r1, [r1, #2]
	.loc	9 119 36                        @ lvgl/src/lv_draw/../lv_hal/../lv_misc/lv_area.h:119:36
	subs	r0, r0, r1
	.loc	9 119 49                        @ lvgl/src/lv_draw/../lv_hal/../lv_misc/lv_area.h:119:49
	adds	r0, #1
	.loc	9 119 5                         @ lvgl/src/lv_draw/../lv_hal/../lv_misc/lv_area.h:119:5
	sxth	r0, r0
	add	sp, #4
	bx	lr
.Ltmp95:
.Lfunc_end10:
	.size	lv_area_get_height, .Lfunc_end10-lv_area_get_height
	.cfi_endproc
	.cantunwind
	.fnend
                                        @ -- End function
	.section	.text.draw_cleanup,"ax",%progbits
	.p2align	3                               @ -- Begin function draw_cleanup
	.type	draw_cleanup,%function
	.code	16                              @ @draw_cleanup
	.thumb_func
draw_cleanup:
.Lfunc_begin11:
	.loc	8 655 0 is_stmt 1               @ lvgl/src/lv_draw/lv_draw_img.c:655:0
	.fnstart
	.cfi_startproc
@ %bb.0:
	.pad	#4
	sub	sp, #4
	.cfi_def_cfa_offset 4
	str	r0, [sp]
.Ltmp96:
	.loc	8 662 1 prologue_end            @ lvgl/src/lv_draw/lv_draw_img.c:662:1
	add	sp, #4
	bx	lr
.Ltmp97:
.Lfunc_end11:
	.size	draw_cleanup, .Lfunc_end11-draw_cleanup
	.cfi_endproc
	.cantunwind
	.fnend
                                        @ -- End function
	.section	.text.lv_draw_map,"ax",%progbits
	.p2align	3                               @ -- Begin function lv_draw_map
	.type	lv_draw_map,%function
	.code	16                              @ @lv_draw_map
	.thumb_func
lv_draw_map:
.Lfunc_begin12:
	.loc	8 341 0                         @ lvgl/src/lv_draw/lv_draw_img.c:341:0
	.fnstart
	.cfi_startproc
@ %bb.0:
	.save	{r4, lr}
	push	{r4, lr}
	.cfi_def_cfa_offset 8
	.cfi_offset lr, -4
	.cfi_offset r4, -8
	.pad	#320
	sub	sp, #320
	.cfi_def_cfa_offset 328
	mov	r12, r1
	mov	lr, r0
	ldr	r0, [sp, #332]
	ldr	r1, [sp, #328]
	str.w	lr, [sp, #316]
	str.w	r12, [sp, #312]
	str	r2, [sp, #308]
	str	r3, [sp, #304]
	strb.w	r1, [sp, #303]
	strb.w	r0, [sp, #302]
.Ltmp98:
	.loc	8 344 30 prologue_end           @ lvgl/src/lv_draw/lv_draw_img.c:344:30
	ldr	r1, [sp, #312]
	add	r0, sp, #292
	.loc	8 344 5 is_stmt 0               @ lvgl/src/lv_draw/lv_draw_img.c:344:5
	bl	lv_area_copy
	.loc	8 346 27 is_stmt 1              @ lvgl/src/lv_draw/lv_draw_img.c:346:27
	bl	_lv_refr_get_disp_refreshing
	.loc	8 346 17 is_stmt 0              @ lvgl/src/lv_draw/lv_draw_img.c:346:17
	str	r0, [sp, #288]
	.loc	8 347 43 is_stmt 1              @ lvgl/src/lv_draw/lv_draw_img.c:347:43
	ldr	r0, [sp, #288]
	.loc	8 347 27 is_stmt 0              @ lvgl/src/lv_draw/lv_draw_img.c:347:27
	bl	lv_disp_get_buf
	.loc	8 347 21                        @ lvgl/src/lv_draw/lv_draw_img.c:347:21
	str	r0, [sp, #284]
	.loc	8 348 36 is_stmt 1              @ lvgl/src/lv_draw/lv_draw_img.c:348:36
	ldr	r0, [sp, #284]
	.loc	8 348 41 is_stmt 0              @ lvgl/src/lv_draw/lv_draw_img.c:348:41
	adds	r0, #16
	.loc	8 348 23                        @ lvgl/src/lv_draw/lv_draw_img.c:348:23
	str	r0, [sp, #280]
	.loc	8 352 21 is_stmt 1              @ lvgl/src/lv_draw/lv_draw_img.c:352:21
	ldr	r0, [sp, #280]
	ldrh	r1, [r0]
	.loc	8 352 18 is_stmt 0              @ lvgl/src/lv_draw/lv_draw_img.c:352:18
	ldrh.w	r0, [sp, #292]
	subs	r0, r0, r1
	strh.w	r0, [sp, #292]
	.loc	8 353 21 is_stmt 1              @ lvgl/src/lv_draw/lv_draw_img.c:353:21
	ldr	r0, [sp, #280]
	ldrh	r1, [r0, #2]
	.loc	8 353 18 is_stmt 0              @ lvgl/src/lv_draw/lv_draw_img.c:353:18
	ldrh.w	r0, [sp, #294]
	subs	r0, r0, r1
	strh.w	r0, [sp, #294]
	.loc	8 354 21 is_stmt 1              @ lvgl/src/lv_draw/lv_draw_img.c:354:21
	ldr	r0, [sp, #280]
	ldrh	r1, [r0]
	.loc	8 354 18 is_stmt 0              @ lvgl/src/lv_draw/lv_draw_img.c:354:18
	ldrh.w	r0, [sp, #296]
	subs	r0, r0, r1
	strh.w	r0, [sp, #296]
	.loc	8 355 21 is_stmt 1              @ lvgl/src/lv_draw/lv_draw_img.c:355:21
	ldr	r0, [sp, #280]
	ldrh	r1, [r0, #2]
	.loc	8 355 18 is_stmt 0              @ lvgl/src/lv_draw/lv_draw_img.c:355:18
	ldrh.w	r0, [sp, #298]
	subs	r0, r0, r1
	strh.w	r0, [sp, #298]
	.loc	8 357 30 is_stmt 1              @ lvgl/src/lv_draw/lv_draw_img.c:357:30
	bl	lv_draw_mask_get_cnt
	.loc	8 357 13 is_stmt 0              @ lvgl/src/lv_draw/lv_draw_img.c:357:13
	strb.w	r0, [sp, #279]
.Ltmp99:
	.loc	8 360 8 is_stmt 1               @ lvgl/src/lv_draw/lv_draw_img.c:360:8
	ldrb.w	r0, [sp, #279]
	.loc	8 360 28 is_stmt 0              @ lvgl/src/lv_draw/lv_draw_img.c:360:28
	cbnz	r0, .LBB12_7
	b	.LBB12_1
.LBB12_1:
	.loc	8 360 31                        @ lvgl/src/lv_draw/lv_draw_img.c:360:31
	ldr	r0, [sp, #304]
	.loc	8 360 41                        @ lvgl/src/lv_draw/lv_draw_img.c:360:41
	ldrh	r0, [r0, #2]
	.loc	8 360 52                        @ lvgl/src/lv_draw/lv_draw_img.c:360:52
	cbnz	r0, .LBB12_7
	b	.LBB12_2
.LBB12_2:
	.loc	8 360 55                        @ lvgl/src/lv_draw/lv_draw_img.c:360:55
	ldr	r0, [sp, #304]
	.loc	8 360 65                        @ lvgl/src/lv_draw/lv_draw_img.c:360:65
	ldrh	r0, [r0, #8]
	.loc	8 360 90                        @ lvgl/src/lv_draw/lv_draw_img.c:360:90
	cmp.w	r0, #256
	bne	.LBB12_7
	b	.LBB12_3
.LBB12_3:
	.loc	8 361 8 is_stmt 1               @ lvgl/src/lv_draw/lv_draw_img.c:361:8
	ldrb.w	r0, [sp, #303]
	.loc	8 361 28 is_stmt 0              @ lvgl/src/lv_draw/lv_draw_img.c:361:28
	lsls	r0, r0, #31
	cbnz	r0, .LBB12_7
	b	.LBB12_4
.LBB12_4:
	.loc	8 361 31                        @ lvgl/src/lv_draw/lv_draw_img.c:361:31
	ldrb.w	r0, [sp, #302]
	.loc	8 361 51                        @ lvgl/src/lv_draw/lv_draw_img.c:361:51
	lsls	r0, r0, #31
	cbnz	r0, .LBB12_7
	b	.LBB12_5
.LBB12_5:
	.loc	8 361 54                        @ lvgl/src/lv_draw/lv_draw_img.c:361:54
	ldr	r0, [sp, #304]
	.loc	8 361 64                        @ lvgl/src/lv_draw/lv_draw_img.c:361:64
	ldrb	r0, [r0, #10]
.Ltmp100:
	.loc	8 360 8 is_stmt 1               @ lvgl/src/lv_draw/lv_draw_img.c:360:8
	cbnz	r0, .LBB12_7
	b	.LBB12_6
.LBB12_6:
.Ltmp101:
	.loc	8 362 23                        @ lvgl/src/lv_draw/lv_draw_img.c:362:23
	ldr	r0, [sp, #312]
	.loc	8 362 34 is_stmt 0              @ lvgl/src/lv_draw/lv_draw_img.c:362:34
	ldr	r1, [sp, #316]
	.loc	8 362 58                        @ lvgl/src/lv_draw/lv_draw_img.c:362:58
	ldr	r2, [sp, #308]
	.loc	8 362 100                       @ lvgl/src/lv_draw/lv_draw_img.c:362:100
	ldr.w	r12, [sp, #304]
	.loc	8 362 110                       @ lvgl/src/lv_draw/lv_draw_img.c:362:110
	ldrb.w	r3, [r12]
	.loc	8 363 33 is_stmt 1              @ lvgl/src/lv_draw/lv_draw_img.c:363:33
	ldrb.w	lr, [r12, #16]
	.loc	8 362 9                         @ lvgl/src/lv_draw/lv_draw_img.c:362:9
	mov	r12, sp
	str.w	lr, [r12, #8]
	str.w	r3, [r12, #4]
	movs	r3, #1
	str.w	r3, [r12]
	movs	r3, #0
	bl	_lv_blend_map
	.loc	8 364 5                         @ lvgl/src/lv_draw/lv_draw_img.c:364:5
	b	.LBB12_96
.Ltmp102:
.LBB12_7:
	.loc	8 0 5 is_stmt 0                 @ lvgl/src/lv_draw/lv_draw_img.c:0:5
	movs	r0, #4
.Ltmp103:
	.loc	8 385 17 is_stmt 1              @ lvgl/src/lv_draw/lv_draw_img.c:385:17
	strb.w	r0, [sp, #278]
	.loc	8 388 43                        @ lvgl/src/lv_draw/lv_draw_img.c:388:43
	ldr	r0, [sp, #316]
	.loc	8 388 25 is_stmt 0              @ lvgl/src/lv_draw/lv_draw_img.c:388:25
	bl	lv_area_get_width
	.loc	8 388 17                        @ lvgl/src/lv_draw/lv_draw_img.c:388:17
	str	r0, [sp, #272]
	.loc	8 389 39 is_stmt 1              @ lvgl/src/lv_draw/lv_draw_img.c:389:39
	ldr	r0, [sp, #308]
	.loc	8 389 25 is_stmt 0              @ lvgl/src/lv_draw/lv_draw_img.c:389:25
	str	r0, [sp, #268]
	.loc	8 390 24 is_stmt 1              @ lvgl/src/lv_draw/lv_draw_img.c:390:24
	ldr	r0, [sp, #272]
	.loc	8 390 43 is_stmt 0              @ lvgl/src/lv_draw/lv_draw_img.c:390:43
	ldrsh.w	r1, [sp, #294]
	.loc	8 390 49                        @ lvgl/src/lv_draw/lv_draw_img.c:390:49
	ldr	r2, [sp, #316]
	.loc	8 390 59                        @ lvgl/src/lv_draw/lv_draw_img.c:390:59
	ldrsh.w	r3, [r2, #2]
	.loc	8 390 64                        @ lvgl/src/lv_draw/lv_draw_img.c:390:64
	ldr	r2, [sp, #280]
	.loc	8 390 75                        @ lvgl/src/lv_draw/lv_draw_img.c:390:75
	ldrsh.w	r2, [r2, #2]
	.loc	8 390 46                        @ lvgl/src/lv_draw/lv_draw_img.c:390:46
	subs	r2, r2, r3
	add	r1, r2
	.loc	8 390 30                        @ lvgl/src/lv_draw/lv_draw_img.c:390:30
	muls	r0, r1, r0
	.loc	8 390 82                        @ lvgl/src/lv_draw/lv_draw_img.c:390:82
	ldrb.w	r1, [sp, #278]
	.loc	8 390 21                        @ lvgl/src/lv_draw/lv_draw_img.c:390:21
	ldr	r2, [sp, #268]
	mla	r0, r0, r1, r2
	str	r0, [sp, #268]
	.loc	8 391 35 is_stmt 1              @ lvgl/src/lv_draw/lv_draw_img.c:391:35
	ldrsh.w	r0, [sp, #292]
	.loc	8 391 41 is_stmt 0              @ lvgl/src/lv_draw/lv_draw_img.c:391:41
	ldr	r1, [sp, #316]
	.loc	8 391 51                        @ lvgl/src/lv_draw/lv_draw_img.c:391:51
	ldrsh.w	r2, [r1]
	.loc	8 391 56                        @ lvgl/src/lv_draw/lv_draw_img.c:391:56
	ldr	r1, [sp, #280]
	.loc	8 391 67                        @ lvgl/src/lv_draw/lv_draw_img.c:391:67
	ldrsh.w	r1, [r1]
	.loc	8 391 38                        @ lvgl/src/lv_draw/lv_draw_img.c:391:38
	subs	r1, r1, r2
	add	r0, r1
	.loc	8 391 74                        @ lvgl/src/lv_draw/lv_draw_img.c:391:74
	ldrb.w	r1, [sp, #278]
	.loc	8 391 21                        @ lvgl/src/lv_draw/lv_draw_img.c:391:21
	ldr	r2, [sp, #268]
	mla	r0, r0, r1, r2
	str	r0, [sp, #268]
	.loc	8 394 20 is_stmt 1              @ lvgl/src/lv_draw/lv_draw_img.c:394:20
	movw	r0, :lower16:.L__const.lv_draw_map.chroma_keyed_color
	movt	r0, :upper16:.L__const.lv_draw_map.chroma_keyed_color
	ldr	r0, [r0]
	str	r0, [sp, #260]
	movs	r0, #0
	.loc	8 395 18                        @ lvgl/src/lv_draw/lv_draw_img.c:395:18
	str	r0, [sp, #256]
	.loc	8 400 25                        @ lvgl/src/lv_draw/lv_draw_img.c:400:25
	ldrh.w	r0, [sp, #292]
	.loc	8 400 40 is_stmt 0              @ lvgl/src/lv_draw/lv_draw_img.c:400:40
	ldr	r1, [sp, #280]
	ldrh	r1, [r1]
	.loc	8 400 38                        @ lvgl/src/lv_draw/lv_draw_img.c:400:38
	add	r0, r1
	.loc	8 400 23                        @ lvgl/src/lv_draw/lv_draw_img.c:400:23
	strh.w	r0, [sp, #244]
	.loc	8 401 25 is_stmt 1              @ lvgl/src/lv_draw/lv_draw_img.c:401:25
	ldrh.w	r0, [sp, #244]
	.loc	8 401 41 is_stmt 0              @ lvgl/src/lv_draw/lv_draw_img.c:401:41
	str	r0, [sp, #52]                   @ 4-byte Spill
	add	r0, sp, #292
	str	r0, [sp, #56]                   @ 4-byte Spill
	bl	lv_area_get_width
	ldr	r1, [sp, #52]                   @ 4-byte Reload
	mov	r2, r0
	.loc	8 401 39                        @ lvgl/src/lv_draw/lv_draw_img.c:401:39
	ldr	r0, [sp, #56]                   @ 4-byte Reload
	add	r1, r2
	.loc	8 401 71                        @ lvgl/src/lv_draw/lv_draw_img.c:401:71
	subs	r1, #1
	.loc	8 401 23                        @ lvgl/src/lv_draw/lv_draw_img.c:401:23
	strh.w	r1, [sp, #248]
	.loc	8 402 25 is_stmt 1              @ lvgl/src/lv_draw/lv_draw_img.c:402:25
	ldr	r1, [sp, #280]
	ldrh	r1, [r1, #2]
	.loc	8 402 41 is_stmt 0              @ lvgl/src/lv_draw/lv_draw_img.c:402:41
	ldrh.w	r2, [sp, #294]
	.loc	8 402 39                        @ lvgl/src/lv_draw/lv_draw_img.c:402:39
	add	r1, r2
	.loc	8 402 23                        @ lvgl/src/lv_draw/lv_draw_img.c:402:23
	strh.w	r1, [sp, #246]
	.loc	8 403 36 is_stmt 1              @ lvgl/src/lv_draw/lv_draw_img.c:403:36
	ldrh.w	r1, [sp, #246]
	.loc	8 403 23 is_stmt 0              @ lvgl/src/lv_draw/lv_draw_img.c:403:23
	strh.w	r1, [sp, #250]
	.loc	8 405 34 is_stmt 1              @ lvgl/src/lv_draw/lv_draw_img.c:405:34
	bl	lv_area_get_height
	mov	r1, r0
	.loc	8 405 20 is_stmt 0              @ lvgl/src/lv_draw/lv_draw_img.c:405:20
	ldr	r0, [sp, #56]                   @ 4-byte Reload
	strh.w	r1, [sp, #242]
	.loc	8 406 34 is_stmt 1              @ lvgl/src/lv_draw/lv_draw_img.c:406:34
	bl	lv_area_get_width
	.loc	8 406 20 is_stmt 0              @ lvgl/src/lv_draw/lv_draw_img.c:406:20
	strh.w	r0, [sp, #240]
	.loc	8 409 26 is_stmt 1              @ lvgl/src/lv_draw/lv_draw_img.c:409:26
	ldr	r0, [sp, #304]
	.loc	8 409 36 is_stmt 0              @ lvgl/src/lv_draw/lv_draw_img.c:409:36
	ldrh	r1, [r0, #2]
	movs	r0, #1
	.loc	8 409 47                        @ lvgl/src/lv_draw/lv_draw_img.c:409:47
	str	r0, [sp, #60]                   @ 4-byte Spill
	cbnz	r1, .LBB12_9
	b	.LBB12_8
.LBB12_8:
	.loc	8 409 50                        @ lvgl/src/lv_draw/lv_draw_img.c:409:50
	ldr	r0, [sp, #304]
	.loc	8 409 60                        @ lvgl/src/lv_draw/lv_draw_img.c:409:60
	ldrh	r0, [r0, #8]
	.loc	8 409 65                        @ lvgl/src/lv_draw/lv_draw_img.c:409:65
	subs.w	r0, r0, #256
	it	ne
	movne	r0, #1
	.loc	8 409 47                        @ lvgl/src/lv_draw/lv_draw_img.c:409:47
	str	r0, [sp, #60]                   @ 4-byte Spill
	b	.LBB12_9
.LBB12_9:
	.loc	8 0 47                          @ lvgl/src/lv_draw/lv_draw_img.c:0:47
	ldr	r0, [sp, #60]                   @ 4-byte Reload
	.loc	8 409 26                        @ lvgl/src/lv_draw/lv_draw_img.c:409:26
	and	r0, r0, #1
	.loc	8 409 14                        @ lvgl/src/lv_draw/lv_draw_img.c:409:14
	strb.w	r0, [sp, #239]
.Ltmp104:
	.loc	8 414 12 is_stmt 1              @ lvgl/src/lv_draw/lv_draw_img.c:414:12
	ldrb.w	r0, [sp, #279]
	.loc	8 414 32 is_stmt 0              @ lvgl/src/lv_draw/lv_draw_img.c:414:32
	cmp	r0, #0
	bne.w	.LBB12_33
	b	.LBB12_10
.LBB12_10:
	.loc	8 414 36                        @ lvgl/src/lv_draw/lv_draw_img.c:414:36
	ldrb.w	r0, [sp, #239]
	.loc	8 414 46                        @ lvgl/src/lv_draw/lv_draw_img.c:414:46
	lsls	r0, r0, #31
	cmp	r0, #0
	bne.w	.LBB12_33
	b	.LBB12_11
.LBB12_11:
	.loc	8 414 50                        @ lvgl/src/lv_draw/lv_draw_img.c:414:50
	ldrb.w	r0, [sp, #303]
	.loc	8 414 61                        @ lvgl/src/lv_draw/lv_draw_img.c:414:61
	lsls	r0, r0, #31
	cmp	r0, #0
	bne.w	.LBB12_33
	b	.LBB12_12
.LBB12_12:
	.loc	8 414 64                        @ lvgl/src/lv_draw/lv_draw_img.c:414:64
	ldr	r0, [sp, #304]
	.loc	8 414 74                        @ lvgl/src/lv_draw/lv_draw_img.c:414:74
	ldrb	r0, [r0, #10]
	.loc	8 414 103                       @ lvgl/src/lv_draw/lv_draw_img.c:414:103
	cmp	r0, #0
	bne.w	.LBB12_33
	b	.LBB12_13
.LBB12_13:
	.loc	8 414 106                       @ lvgl/src/lv_draw/lv_draw_img.c:414:106
	ldrb.w	r0, [sp, #302]
.Ltmp105:
	.loc	8 414 12                        @ lvgl/src/lv_draw/lv_draw_img.c:414:12
	lsls	r0, r0, #31
	cmp	r0, #0
	beq.w	.LBB12_33
	b	.LBB12_14
.LBB12_14:
.Ltmp106:
	.loc	8 426 63 is_stmt 1              @ lvgl/src/lv_draw/lv_draw_img.c:426:63
	ldr	r0, [sp, #288]
	.loc	8 426 43 is_stmt 0              @ lvgl/src/lv_draw/lv_draw_img.c:426:43
	bl	lv_disp_get_hor_res
	.loc	8 426 22                        @ lvgl/src/lv_draw/lv_draw_img.c:426:22
	str	r0, [sp, #232]
	add	r0, sp, #292
	.loc	8 427 38 is_stmt 1              @ lvgl/src/lv_draw/lv_draw_img.c:427:38
	bl	lv_area_get_size
	.loc	8 427 80 is_stmt 0              @ lvgl/src/lv_draw/lv_draw_img.c:427:80
	ldr	r1, [sp, #232]
	.loc	8 427 38                        @ lvgl/src/lv_draw/lv_draw_img.c:427:38
	cmp	r0, r1
	bls	.LBB12_16
	b	.LBB12_15
.LBB12_15:
	.loc	8 427 90                        @ lvgl/src/lv_draw/lv_draw_img.c:427:90
	ldr	r0, [sp, #232]
	.loc	8 427 38                        @ lvgl/src/lv_draw/lv_draw_img.c:427:38
	str	r0, [sp, #48]                   @ 4-byte Spill
	b	.LBB12_17
.LBB12_16:
	.loc	8 0 38                          @ lvgl/src/lv_draw/lv_draw_img.c:0:38
	add	r0, sp, #292
	.loc	8 427 100                       @ lvgl/src/lv_draw/lv_draw_img.c:427:100
	bl	lv_area_get_size
	.loc	8 427 38                        @ lvgl/src/lv_draw/lv_draw_img.c:427:38
	str	r0, [sp, #48]                   @ 4-byte Spill
	b	.LBB12_17
.LBB12_17:
	ldr	r0, [sp, #48]                   @ 4-byte Reload
	.loc	8 427 22                        @ lvgl/src/lv_draw/lv_draw_img.c:427:22
	str	r0, [sp, #228]
	.loc	8 428 49 is_stmt 1              @ lvgl/src/lv_draw/lv_draw_img.c:428:49
	ldr	r0, [sp, #228]
	.loc	8 428 63 is_stmt 0              @ lvgl/src/lv_draw/lv_draw_img.c:428:63
	lsls	r0, r0, #2
	.loc	8 428 33                        @ lvgl/src/lv_draw/lv_draw_img.c:428:33
	bl	_lv_mem_buf_get
	.loc	8 428 26                        @ lvgl/src/lv_draw/lv_draw_img.c:428:26
	str	r0, [sp, #224]
	.loc	8 429 51 is_stmt 1              @ lvgl/src/lv_draw/lv_draw_img.c:429:51
	ldr	r0, [sp, #228]
	.loc	8 429 35 is_stmt 0              @ lvgl/src/lv_draw/lv_draw_img.c:429:35
	bl	_lv_mem_buf_get
	.loc	8 429 24                        @ lvgl/src/lv_draw/lv_draw_img.c:429:24
	str	r0, [sp, #220]
	movs	r0, #0
.Ltmp107:
	.loc	8 433 19 is_stmt 1              @ lvgl/src/lv_draw/lv_draw_img.c:433:19
	str	r0, [sp, #212]
	.loc	8 433 17 is_stmt 0              @ lvgl/src/lv_draw/lv_draw_img.c:433:17
	b	.LBB12_18
.LBB12_18:                              @ =>This Loop Header: Depth=1
                                        @     Child Loop BB12_20 Depth 2
.Ltmp108:
	.loc	8 433 24                        @ lvgl/src/lv_draw/lv_draw_img.c:433:24
	ldr	r0, [sp, #212]
	.loc	8 433 28                        @ lvgl/src/lv_draw/lv_draw_img.c:433:28
	ldrsh.w	r1, [sp, #242]
.Ltmp109:
	.loc	8 433 13                        @ lvgl/src/lv_draw/lv_draw_img.c:433:13
	cmp	r0, r1
	bge	.LBB12_30
	b	.LBB12_19
.LBB12_19:                              @   in Loop: Header=BB12_18 Depth=1
.Ltmp110:
	.loc	8 434 26 is_stmt 1              @ lvgl/src/lv_draw/lv_draw_img.c:434:26
	ldr	r0, [sp, #268]
	.loc	8 434 24 is_stmt 0              @ lvgl/src/lv_draw/lv_draw_img.c:434:24
	str	r0, [sp, #252]
	movs	r0, #0
.Ltmp111:
	.loc	8 435 23 is_stmt 1              @ lvgl/src/lv_draw/lv_draw_img.c:435:23
	str	r0, [sp, #216]
	.loc	8 435 21 is_stmt 0              @ lvgl/src/lv_draw/lv_draw_img.c:435:21
	b	.LBB12_20
.LBB12_20:                              @   Parent Loop BB12_18 Depth=1
                                        @ =>  This Inner Loop Header: Depth=2
.Ltmp112:
	.loc	8 435 28                        @ lvgl/src/lv_draw/lv_draw_img.c:435:28
	ldr	r0, [sp, #216]
	.loc	8 435 32                        @ lvgl/src/lv_draw/lv_draw_img.c:435:32
	ldrsh.w	r1, [sp, #240]
.Ltmp113:
	.loc	8 435 17                        @ lvgl/src/lv_draw/lv_draw_img.c:435:17
	cmp	r0, r1
	bge	.LBB12_25
	b	.LBB12_21
.LBB12_21:                              @   in Loop: Header=BB12_20 Depth=2
.Ltmp114:
	.loc	8 436 39 is_stmt 1              @ lvgl/src/lv_draw/lv_draw_img.c:436:39
	ldr	r0, [sp, #252]
	ldrb	r0, [r0, #3]
	.loc	8 436 30 is_stmt 0              @ lvgl/src/lv_draw/lv_draw_img.c:436:30
	strb.w	r0, [sp, #211]
	.loc	8 437 38 is_stmt 1              @ lvgl/src/lv_draw/lv_draw_img.c:437:38
	ldrb.w	r0, [sp, #211]
	.loc	8 437 21 is_stmt 0              @ lvgl/src/lv_draw/lv_draw_img.c:437:21
	ldr	r1, [sp, #220]
	.loc	8 437 30                        @ lvgl/src/lv_draw/lv_draw_img.c:437:30
	ldr	r2, [sp, #256]
	.loc	8 437 36                        @ lvgl/src/lv_draw/lv_draw_img.c:437:36
	strb	r0, [r1, r2]
.Ltmp115:
	.loc	8 438 24 is_stmt 1              @ lvgl/src/lv_draw/lv_draw_img.c:438:24
	ldrb.w	r0, [sp, #211]
.Ltmp116:
	.loc	8 438 24 is_stmt 0              @ lvgl/src/lv_draw/lv_draw_img.c:438:24
	cbz	r0, .LBB12_23
	b	.LBB12_22
.LBB12_22:                              @   in Loop: Header=BB12_20 Depth=2
.Ltmp117:
	.loc	8 444 58 is_stmt 1              @ lvgl/src/lv_draw/lv_draw_img.c:444:58
	ldr	r0, [sp, #252]
	.loc	8 444 44 is_stmt 0              @ lvgl/src/lv_draw/lv_draw_img.c:444:44
	ldr	r0, [r0]
	.loc	8 444 25                        @ lvgl/src/lv_draw/lv_draw_img.c:444:25
	ldr	r1, [sp, #224]
	.loc	8 444 30                        @ lvgl/src/lv_draw/lv_draw_img.c:444:30
	ldr	r2, [sp, #256]
	.loc	8 444 41                        @ lvgl/src/lv_draw/lv_draw_img.c:444:41
	str.w	r0, [r1, r2, lsl #2]
	.loc	8 446 21 is_stmt 1              @ lvgl/src/lv_draw/lv_draw_img.c:446:21
	b	.LBB12_23
.Ltmp118:
.LBB12_23:                              @   in Loop: Header=BB12_20 Depth=2
	.loc	8 448 21                        @ lvgl/src/lv_draw/lv_draw_img.c:448:21
	ldr	r0, [sp, #224]
	.loc	8 448 26 is_stmt 0              @ lvgl/src/lv_draw/lv_draw_img.c:448:26
	ldr	r1, [sp, #256]
	.loc	8 448 21                        @ lvgl/src/lv_draw/lv_draw_img.c:448:21
	add.w	r1, r0, r1, lsl #2
	movs	r0, #255
	.loc	8 448 41                        @ lvgl/src/lv_draw/lv_draw_img.c:448:41
	strb	r0, [r1, #3]
	.loc	8 450 17 is_stmt 1              @ lvgl/src/lv_draw/lv_draw_img.c:450:17
	b	.LBB12_24
.Ltmp119:
.LBB12_24:                              @   in Loop: Header=BB12_20 Depth=2
	.loc	8 435 46                        @ lvgl/src/lv_draw/lv_draw_img.c:435:46
	ldr	r0, [sp, #216]
	adds	r0, #1
	str	r0, [sp, #216]
	.loc	8 435 60 is_stmt 0              @ lvgl/src/lv_draw/lv_draw_img.c:435:60
	ldrb.w	r1, [sp, #278]
	.loc	8 435 57                        @ lvgl/src/lv_draw/lv_draw_img.c:435:57
	ldr	r0, [sp, #252]
	add	r0, r1
	str	r0, [sp, #252]
	.loc	8 435 78                        @ lvgl/src/lv_draw/lv_draw_img.c:435:78
	ldr	r0, [sp, #256]
	adds	r0, #1
	str	r0, [sp, #256]
	.loc	8 435 17                        @ lvgl/src/lv_draw/lv_draw_img.c:435:17
	b	.LBB12_20
.Ltmp120:
.LBB12_25:                              @   in Loop: Header=BB12_18 Depth=1
	.loc	8 452 32 is_stmt 1              @ lvgl/src/lv_draw/lv_draw_img.c:452:32
	ldr	r0, [sp, #272]
	.loc	8 452 40 is_stmt 0              @ lvgl/src/lv_draw/lv_draw_img.c:452:40
	ldrb.w	r1, [sp, #278]
	.loc	8 452 29                        @ lvgl/src/lv_draw/lv_draw_img.c:452:29
	ldr	r2, [sp, #268]
	mla	r0, r0, r1, r2
	str	r0, [sp, #268]
.Ltmp121:
	.loc	8 453 20 is_stmt 1              @ lvgl/src/lv_draw/lv_draw_img.c:453:20
	ldr	r0, [sp, #256]
	.loc	8 453 27 is_stmt 0              @ lvgl/src/lv_draw/lv_draw_img.c:453:27
	str	r0, [sp, #44]                   @ 4-byte Spill
	add	r0, sp, #292
	bl	lv_area_get_width
	mov	r1, r0
	.loc	8 453 25                        @ lvgl/src/lv_draw/lv_draw_img.c:453:25
	ldr	r0, [sp, #44]                   @ 4-byte Reload
	add	r0, r1
	.loc	8 453 59                        @ lvgl/src/lv_draw/lv_draw_img.c:453:59
	ldr	r1, [sp, #228]
.Ltmp122:
	.loc	8 453 20                        @ lvgl/src/lv_draw/lv_draw_img.c:453:20
	cmp	r0, r1
	bhs	.LBB12_27
	b	.LBB12_26
.LBB12_26:                              @   in Loop: Header=BB12_18 Depth=1
.Ltmp123:
	.loc	8 454 35 is_stmt 1              @ lvgl/src/lv_draw/lv_draw_img.c:454:35
	ldrh.w	r0, [sp, #250]
	adds	r0, #1
	strh.w	r0, [sp, #250]
	.loc	8 455 17                        @ lvgl/src/lv_draw/lv_draw_img.c:455:17
	b	.LBB12_28
.Ltmp124:
.LBB12_27:                              @   in Loop: Header=BB12_18 Depth=1
	.loc	8 457 35                        @ lvgl/src/lv_draw/lv_draw_img.c:457:35
	ldr	r0, [sp, #312]
	.loc	8 457 59 is_stmt 0              @ lvgl/src/lv_draw/lv_draw_img.c:457:59
	ldr	r2, [sp, #224]
	.loc	8 457 65                        @ lvgl/src/lv_draw/lv_draw_img.c:457:65
	ldr	r3, [sp, #220]
	.loc	8 457 101                       @ lvgl/src/lv_draw/lv_draw_img.c:457:101
	ldr.w	r12, [sp, #304]
	.loc	8 457 111                       @ lvgl/src/lv_draw/lv_draw_img.c:457:111
	ldrb.w	r1, [r12]
	.loc	8 457 126                       @ lvgl/src/lv_draw/lv_draw_img.c:457:126
	ldrb.w	lr, [r12, #16]
	.loc	8 457 21                        @ lvgl/src/lv_draw/lv_draw_img.c:457:21
	mov	r12, sp
	str.w	lr, [r12, #8]
	str.w	r1, [r12, #4]
	movs	r1, #2
	str.w	r1, [r12]
	add	r1, sp, #244
	bl	_lv_blend_map
	.loc	8 459 37 is_stmt 1              @ lvgl/src/lv_draw/lv_draw_img.c:459:37
	ldrh.w	r0, [sp, #250]
	.loc	8 459 51 is_stmt 0              @ lvgl/src/lv_draw/lv_draw_img.c:459:51
	adds	r0, #1
	.loc	8 459 35                        @ lvgl/src/lv_draw/lv_draw_img.c:459:35
	strh.w	r0, [sp, #246]
	.loc	8 460 48 is_stmt 1              @ lvgl/src/lv_draw/lv_draw_img.c:460:48
	ldrh.w	r0, [sp, #246]
	.loc	8 460 35 is_stmt 0              @ lvgl/src/lv_draw/lv_draw_img.c:460:35
	strh.w	r0, [sp, #250]
	movs	r0, #0
	.loc	8 462 26 is_stmt 1              @ lvgl/src/lv_draw/lv_draw_img.c:462:26
	str	r0, [sp, #256]
	b	.LBB12_28
.Ltmp125:
.LBB12_28:                              @   in Loop: Header=BB12_18 Depth=1
	.loc	8 464 13                        @ lvgl/src/lv_draw/lv_draw_img.c:464:13
	b	.LBB12_29
.Ltmp126:
.LBB12_29:                              @   in Loop: Header=BB12_18 Depth=1
	.loc	8 433 42                        @ lvgl/src/lv_draw/lv_draw_img.c:433:42
	ldr	r0, [sp, #212]
	adds	r0, #1
	str	r0, [sp, #212]
	.loc	8 433 13 is_stmt 0              @ lvgl/src/lv_draw/lv_draw_img.c:433:13
	b	.LBB12_18
.Ltmp127:
.LBB12_30:
	.loc	8 466 27 is_stmt 1              @ lvgl/src/lv_draw/lv_draw_img.c:466:27
	ldrsh.w	r0, [sp, #246]
	.loc	8 466 44 is_stmt 0              @ lvgl/src/lv_draw/lv_draw_img.c:466:44
	ldrsh.w	r1, [sp, #250]
.Ltmp128:
	.loc	8 466 16                        @ lvgl/src/lv_draw/lv_draw_img.c:466:16
	cmp	r0, r1
	beq	.LBB12_32
	b	.LBB12_31
.LBB12_31:
.Ltmp129:
	.loc	8 467 30 is_stmt 1              @ lvgl/src/lv_draw/lv_draw_img.c:467:30
	ldrh.w	r0, [sp, #250]
	subs	r0, #1
	strh.w	r0, [sp, #250]
	.loc	8 468 31                        @ lvgl/src/lv_draw/lv_draw_img.c:468:31
	ldr	r0, [sp, #312]
	.loc	8 468 55 is_stmt 0              @ lvgl/src/lv_draw/lv_draw_img.c:468:55
	ldr	r2, [sp, #224]
	.loc	8 468 61                        @ lvgl/src/lv_draw/lv_draw_img.c:468:61
	ldr	r3, [sp, #220]
	.loc	8 468 97                        @ lvgl/src/lv_draw/lv_draw_img.c:468:97
	ldr.w	r12, [sp, #304]
	.loc	8 468 107                       @ lvgl/src/lv_draw/lv_draw_img.c:468:107
	ldrb.w	r1, [r12]
	.loc	8 468 122                       @ lvgl/src/lv_draw/lv_draw_img.c:468:122
	ldrb.w	lr, [r12, #16]
	.loc	8 468 17                        @ lvgl/src/lv_draw/lv_draw_img.c:468:17
	mov	r12, sp
	str.w	lr, [r12, #8]
	str.w	r1, [r12, #4]
	movs	r1, #2
	str.w	r1, [r12]
	add	r1, sp, #244
	bl	_lv_blend_map
	.loc	8 469 13 is_stmt 1              @ lvgl/src/lv_draw/lv_draw_img.c:469:13
	b	.LBB12_32
.Ltmp130:
.LBB12_32:
	.loc	8 471 33                        @ lvgl/src/lv_draw/lv_draw_img.c:471:33
	ldr	r0, [sp, #220]
	.loc	8 471 13 is_stmt 0              @ lvgl/src/lv_draw/lv_draw_img.c:471:13
	bl	_lv_mem_buf_release
	.loc	8 472 33 is_stmt 1              @ lvgl/src/lv_draw/lv_draw_img.c:472:33
	ldr	r0, [sp, #224]
	.loc	8 472 13 is_stmt 0              @ lvgl/src/lv_draw/lv_draw_img.c:472:13
	bl	_lv_mem_buf_release
	.loc	8 473 9 is_stmt 1               @ lvgl/src/lv_draw/lv_draw_img.c:473:9
	b	.LBB12_95
.Ltmp131:
.LBB12_33:
	.loc	8 477 63                        @ lvgl/src/lv_draw/lv_draw_img.c:477:63
	ldr	r0, [sp, #288]
	.loc	8 477 43 is_stmt 0              @ lvgl/src/lv_draw/lv_draw_img.c:477:43
	bl	lv_disp_get_hor_res
	.loc	8 477 22                        @ lvgl/src/lv_draw/lv_draw_img.c:477:22
	str	r0, [sp, #204]
	add	r0, sp, #292
	.loc	8 478 38 is_stmt 1              @ lvgl/src/lv_draw/lv_draw_img.c:478:38
	bl	lv_area_get_size
	.loc	8 478 69 is_stmt 0              @ lvgl/src/lv_draw/lv_draw_img.c:478:69
	ldr	r1, [sp, #204]
	.loc	8 478 38                        @ lvgl/src/lv_draw/lv_draw_img.c:478:38
	cmp	r0, r1
	bls	.LBB12_35
	b	.LBB12_34
.LBB12_34:
	.loc	8 478 79                        @ lvgl/src/lv_draw/lv_draw_img.c:478:79
	ldr	r0, [sp, #204]
	.loc	8 478 38                        @ lvgl/src/lv_draw/lv_draw_img.c:478:38
	str	r0, [sp, #40]                   @ 4-byte Spill
	b	.LBB12_36
.LBB12_35:
	.loc	8 0 38                          @ lvgl/src/lv_draw/lv_draw_img.c:0:38
	add	r0, sp, #292
	.loc	8 478 89                        @ lvgl/src/lv_draw/lv_draw_img.c:478:89
	bl	lv_area_get_size
	.loc	8 478 38                        @ lvgl/src/lv_draw/lv_draw_img.c:478:38
	str	r0, [sp, #40]                   @ 4-byte Spill
	b	.LBB12_36
.LBB12_36:
	ldr	r0, [sp, #40]                   @ 4-byte Reload
	.loc	8 478 22                        @ lvgl/src/lv_draw/lv_draw_img.c:478:22
	str	r0, [sp, #200]
	.loc	8 479 49 is_stmt 1              @ lvgl/src/lv_draw/lv_draw_img.c:479:49
	ldr	r0, [sp, #200]
	.loc	8 479 63 is_stmt 0              @ lvgl/src/lv_draw/lv_draw_img.c:479:63
	lsls	r0, r0, #2
	.loc	8 479 33                        @ lvgl/src/lv_draw/lv_draw_img.c:479:33
	bl	_lv_mem_buf_get
	.loc	8 479 26                        @ lvgl/src/lv_draw/lv_draw_img.c:479:26
	str	r0, [sp, #196]
	.loc	8 480 51 is_stmt 1              @ lvgl/src/lv_draw/lv_draw_img.c:480:51
	ldr	r0, [sp, #200]
	.loc	8 480 35 is_stmt 0              @ lvgl/src/lv_draw/lv_draw_img.c:480:35
	bl	_lv_mem_buf_get
	.loc	8 480 24                        @ lvgl/src/lv_draw/lv_draw_img.c:480:24
	str	r0, [sp, #192]
	add	r0, sp, #108
	movs	r1, #84
	.loc	8 484 13 is_stmt 1              @ lvgl/src/lv_draw/lv_draw_img.c:484:13
	bl	_lv_memset_00
.Ltmp132:
	.loc	8 485 16                        @ lvgl/src/lv_draw/lv_draw_img.c:485:16
	ldrb.w	r0, [sp, #239]
.Ltmp133:
	.loc	8 485 16 is_stmt 0              @ lvgl/src/lv_draw/lv_draw_img.c:485:16
	lsls	r0, r0, #31
	cmp	r0, #0
	beq	.LBB12_43
	b	.LBB12_37
.LBB12_37:
	.loc	8 0 16                          @ lvgl/src/lv_draw/lv_draw_img.c:0:16
	movs	r0, #4
.Ltmp134:
	.loc	8 486 29 is_stmt 1              @ lvgl/src/lv_draw/lv_draw_img.c:486:29
	strb.w	r0, [sp, #107]
.Ltmp135:
	.loc	8 487 20                        @ lvgl/src/lv_draw/lv_draw_img.c:487:20
	ldrb.w	r0, [sp, #302]
.Ltmp136:
	.loc	8 487 20 is_stmt 0              @ lvgl/src/lv_draw/lv_draw_img.c:487:20
	lsls	r0, r0, #31
	cbz	r0, .LBB12_39
	b	.LBB12_38
.LBB12_38:
	.loc	8 0 20                          @ lvgl/src/lv_draw/lv_draw_img.c:0:20
	movs	r0, #5
.Ltmp137:
	.loc	8 487 35                        @ lvgl/src/lv_draw/lv_draw_img.c:487:35
	strb.w	r0, [sp, #107]
	.loc	8 487 32                        @ lvgl/src/lv_draw/lv_draw_img.c:487:32
	b	.LBB12_42
.LBB12_39:
.Ltmp138:
	.loc	8 488 25 is_stmt 1              @ lvgl/src/lv_draw/lv_draw_img.c:488:25
	ldrb.w	r0, [sp, #303]
.Ltmp139:
	.loc	8 488 25 is_stmt 0              @ lvgl/src/lv_draw/lv_draw_img.c:488:25
	lsls	r0, r0, #31
	cbz	r0, .LBB12_41
	b	.LBB12_40
.LBB12_40:
	.loc	8 0 25                          @ lvgl/src/lv_draw/lv_draw_img.c:0:25
	movs	r0, #6
.Ltmp140:
	.loc	8 488 40                        @ lvgl/src/lv_draw/lv_draw_img.c:488:40
	strb.w	r0, [sp, #107]
	.loc	8 488 37                        @ lvgl/src/lv_draw/lv_draw_img.c:488:37
	b	.LBB12_41
.Ltmp141:
.LBB12_41:
	.loc	8 0 37                          @ lvgl/src/lv_draw/lv_draw_img.c:0:37
	b	.LBB12_42
.LBB12_42:
	.loc	8 490 39 is_stmt 1              @ lvgl/src/lv_draw/lv_draw_img.c:490:39
	ldr	r0, [sp, #304]
	.loc	8 490 49 is_stmt 0              @ lvgl/src/lv_draw/lv_draw_img.c:490:49
	ldrh	r0, [r0, #2]
	.loc	8 490 37                        @ lvgl/src/lv_draw/lv_draw_img.c:490:37
	strh.w	r0, [sp, #120]
	.loc	8 491 38 is_stmt 1              @ lvgl/src/lv_draw/lv_draw_img.c:491:38
	ldr	r0, [sp, #304]
	.loc	8 491 48 is_stmt 0              @ lvgl/src/lv_draw/lv_draw_img.c:491:48
	ldrh	r0, [r0, #8]
	.loc	8 491 36                        @ lvgl/src/lv_draw/lv_draw_img.c:491:36
	strh.w	r0, [sp, #122]
	.loc	8 492 37 is_stmt 1              @ lvgl/src/lv_draw/lv_draw_img.c:492:37
	ldr	r0, [sp, #308]
	.loc	8 492 35 is_stmt 0              @ lvgl/src/lv_draw/lv_draw_img.c:492:35
	str	r0, [sp, #108]
	.loc	8 493 39 is_stmt 1              @ lvgl/src/lv_draw/lv_draw_img.c:493:39
	ldr	r0, [sp, #272]
	.loc	8 493 37 is_stmt 0              @ lvgl/src/lv_draw/lv_draw_img.c:493:37
	strh.w	r0, [sp, #112]
	.loc	8 494 58 is_stmt 1              @ lvgl/src/lv_draw/lv_draw_img.c:494:58
	ldr	r0, [sp, #316]
	.loc	8 494 39 is_stmt 0              @ lvgl/src/lv_draw/lv_draw_img.c:494:39
	bl	lv_area_get_height
	.loc	8 494 37                        @ lvgl/src/lv_draw/lv_draw_img.c:494:37
	strh.w	r0, [sp, #114]
	.loc	8 495 36 is_stmt 1              @ lvgl/src/lv_draw/lv_draw_img.c:495:36
	ldrb.w	r0, [sp, #107]
	.loc	8 495 34 is_stmt 0              @ lvgl/src/lv_draw/lv_draw_img.c:495:34
	strb.w	r0, [sp, #128]
	.loc	8 496 41 is_stmt 1              @ lvgl/src/lv_draw/lv_draw_img.c:496:41
	ldr	r0, [sp, #304]
	.loc	8 496 57 is_stmt 0              @ lvgl/src/lv_draw/lv_draw_img.c:496:57
	ldrh	r0, [r0, #4]
	.loc	8 496 39                        @ lvgl/src/lv_draw/lv_draw_img.c:496:39
	strh.w	r0, [sp, #116]
	.loc	8 497 41 is_stmt 1              @ lvgl/src/lv_draw/lv_draw_img.c:497:41
	ldr	r0, [sp, #304]
	.loc	8 497 57 is_stmt 0              @ lvgl/src/lv_draw/lv_draw_img.c:497:57
	ldrh	r0, [r0, #6]
	.loc	8 497 39                        @ lvgl/src/lv_draw/lv_draw_img.c:497:39
	strh.w	r0, [sp, #118]
	.loc	8 498 39 is_stmt 1              @ lvgl/src/lv_draw/lv_draw_img.c:498:39
	ldr	r0, [sp, #304]
	.loc	8 498 49 is_stmt 0              @ lvgl/src/lv_draw/lv_draw_img.c:498:49
	ldr	r0, [r0, #12]
	str	r0, [sp, #124]
	.loc	8 499 43 is_stmt 1              @ lvgl/src/lv_draw/lv_draw_img.c:499:43
	ldr	r0, [sp, #304]
	.loc	8 499 53 is_stmt 0              @ lvgl/src/lv_draw/lv_draw_img.c:499:53
	ldrb	r0, [r0, #17]
	and	r0, r0, #1
	.loc	8 499 41                        @ lvgl/src/lv_draw/lv_draw_img.c:499:41
	strb.w	r0, [sp, #129]
	add	r0, sp, #108
	.loc	8 501 17 is_stmt 1              @ lvgl/src/lv_draw/lv_draw_img.c:501:17
	bl	_lv_img_buf_transform_init
	.loc	8 502 13                        @ lvgl/src/lv_draw/lv_draw_img.c:502:13
	b	.LBB12_43
.Ltmp142:
.LBB12_43:
	.loc	8 0 13 is_stmt 0                @ lvgl/src/lv_draw/lv_draw_img.c:0:13
	movs	r0, #0
	.loc	8 504 22 is_stmt 1              @ lvgl/src/lv_draw/lv_draw_img.c:504:22
	strh.w	r0, [sp, #104]
	str	r0, [sp, #100]
	.loc	8 505 46                        @ lvgl/src/lv_draw/lv_draw_img.c:505:46
	ldr	r0, [sp, #304]
	ldrb	r0, [r0, #10]
	.loc	8 505 44 is_stmt 0              @ lvgl/src/lv_draw/lv_draw_img.c:505:44
	rsb.w	r0, r0, #255
	.loc	8 505 22                        @ lvgl/src/lv_draw/lv_draw_img.c:505:22
	strb.w	r0, [sp, #99]
.Ltmp143:
	.loc	8 506 16 is_stmt 1              @ lvgl/src/lv_draw/lv_draw_img.c:506:16
	ldr	r0, [sp, #304]
	.loc	8 506 26 is_stmt 0              @ lvgl/src/lv_draw/lv_draw_img.c:506:26
	ldrb	r0, [r0, #10]
.Ltmp144:
	.loc	8 506 16                        @ lvgl/src/lv_draw/lv_draw_img.c:506:16
	cbz	r0, .LBB12_45
	b	.LBB12_44
.LBB12_44:
.Ltmp145:
	.loc	8 507 34 is_stmt 1              @ lvgl/src/lv_draw/lv_draw_img.c:507:34
	ldr	r0, [sp, #304]
	.loc	8 507 63 is_stmt 0              @ lvgl/src/lv_draw/lv_draw_img.c:507:63
	ldrb	r1, [r0, #10]
	.loc	8 507 17                        @ lvgl/src/lv_draw/lv_draw_img.c:507:17
	ldr	r0, [r0, #12]
	add	r2, sp, #100
	bl	lv_color_premult
	.loc	8 508 13 is_stmt 1              @ lvgl/src/lv_draw/lv_draw_img.c:508:13
	b	.LBB12_45
.Ltmp146:
.LBB12_45:
	.loc	8 511 25                        @ lvgl/src/lv_draw/lv_draw_img.c:511:25
	ldrb.w	r1, [sp, #302]
	movs	r0, #1
	.loc	8 511 36 is_stmt 0              @ lvgl/src/lv_draw/lv_draw_img.c:511:36
	lsls	r1, r1, #31
	str	r0, [sp, #36]                   @ 4-byte Spill
	cbnz	r1, .LBB12_49
	b	.LBB12_46
.LBB12_46:
	.loc	8 511 39                        @ lvgl/src/lv_draw/lv_draw_img.c:511:39
	ldrb.w	r1, [sp, #303]
	movs	r0, #1
	.loc	8 511 50                        @ lvgl/src/lv_draw/lv_draw_img.c:511:50
	lsls	r1, r1, #31
	str	r0, [sp, #36]                   @ 4-byte Spill
	cbnz	r1, .LBB12_49
	b	.LBB12_47
.LBB12_47:
	.loc	8 511 53                        @ lvgl/src/lv_draw/lv_draw_img.c:511:53
	ldr	r0, [sp, #304]
	.loc	8 511 63                        @ lvgl/src/lv_draw/lv_draw_img.c:511:63
	ldrh	r1, [r0, #2]
	movs	r0, #1
	.loc	8 511 69                        @ lvgl/src/lv_draw/lv_draw_img.c:511:69
	str	r0, [sp, #36]                   @ 4-byte Spill
	cbnz	r1, .LBB12_49
	b	.LBB12_48
.LBB12_48:
	.loc	8 512 25 is_stmt 1              @ lvgl/src/lv_draw/lv_draw_img.c:512:25
	ldr	r0, [sp, #304]
	.loc	8 512 35 is_stmt 0              @ lvgl/src/lv_draw/lv_draw_img.c:512:35
	ldrh	r0, [r0, #8]
	.loc	8 512 40                        @ lvgl/src/lv_draw/lv_draw_img.c:512:40
	subs.w	r0, r0, #256
	it	ne
	movne	r0, #1
	.loc	8 511 69 is_stmt 1              @ lvgl/src/lv_draw/lv_draw_img.c:511:69
	str	r0, [sp, #36]                   @ 4-byte Spill
	b	.LBB12_49
.LBB12_49:
	.loc	8 0 69 is_stmt 0                @ lvgl/src/lv_draw/lv_draw_img.c:0:69
	ldr	r0, [sp, #36]                   @ 4-byte Reload
	.loc	8 511 24                        @ lvgl/src/lv_draw/lv_draw_img.c:511:24
	lsls	r1, r0, #31
	movs	r0, #1
	cmp	r1, #0
	it	ne
	movne	r0, #2
	.loc	8 511 22                        @ lvgl/src/lv_draw/lv_draw_img.c:511:22
	strb.w	r0, [sp, #98]
.Ltmp147:
	.loc	8 515 16 is_stmt 1              @ lvgl/src/lv_draw/lv_draw_img.c:515:16
	ldrb.w	r0, [sp, #279]
.Ltmp148:
	.loc	8 515 16 is_stmt 0              @ lvgl/src/lv_draw/lv_draw_img.c:515:16
	cbz	r0, .LBB12_51
	b	.LBB12_50
.LBB12_50:
.Ltmp149:
	.loc	8 516 31 is_stmt 1              @ lvgl/src/lv_draw/lv_draw_img.c:516:31
	ldr	r0, [sp, #192]
	.loc	8 516 41 is_stmt 0              @ lvgl/src/lv_draw/lv_draw_img.c:516:41
	ldr	r1, [sp, #200]
	.loc	8 516 17                        @ lvgl/src/lv_draw/lv_draw_img.c:516:17
	bl	_lv_memset_ff
	.loc	8 517 13 is_stmt 1              @ lvgl/src/lv_draw/lv_draw_img.c:517:13
	b	.LBB12_51
.Ltmp150:
.LBB12_51:
	.loc	8 522 29                        @ lvgl/src/lv_draw/lv_draw_img.c:522:29
	ldr	r0, [sp, #280]
	.loc	8 522 40 is_stmt 0              @ lvgl/src/lv_draw/lv_draw_img.c:522:40
	ldrsh.w	r0, [r0, #2]
	.loc	8 522 55                        @ lvgl/src/lv_draw/lv_draw_img.c:522:55
	ldrsh.w	r1, [sp, #294]
	.loc	8 522 43                        @ lvgl/src/lv_draw/lv_draw_img.c:522:43
	add	r0, r1
	.loc	8 522 60                        @ lvgl/src/lv_draw/lv_draw_img.c:522:60
	ldr	r1, [sp, #316]
	.loc	8 522 70                        @ lvgl/src/lv_draw/lv_draw_img.c:522:70
	ldrsh.w	r1, [r1, #2]
	.loc	8 522 58                        @ lvgl/src/lv_draw/lv_draw_img.c:522:58
	subs	r0, r0, r1
	.loc	8 522 21                        @ lvgl/src/lv_draw/lv_draw_img.c:522:21
	str	r0, [sp, #84]
	movs	r0, #0
.Ltmp151:
	.loc	8 524 19 is_stmt 1              @ lvgl/src/lv_draw/lv_draw_img.c:524:19
	str	r0, [sp, #88]
	.loc	8 524 17 is_stmt 0              @ lvgl/src/lv_draw/lv_draw_img.c:524:17
	b	.LBB12_52
.LBB12_52:                              @ =>This Loop Header: Depth=1
                                        @     Child Loop BB12_54 Depth 2
.Ltmp152:
	.loc	8 524 24                        @ lvgl/src/lv_draw/lv_draw_img.c:524:24
	ldr	r0, [sp, #88]
	.loc	8 524 28                        @ lvgl/src/lv_draw/lv_draw_img.c:524:28
	ldrsh.w	r1, [sp, #242]
.Ltmp153:
	.loc	8 524 13                        @ lvgl/src/lv_draw/lv_draw_img.c:524:13
	cmp	r0, r1
	bge.w	.LBB12_92
	b	.LBB12_53
.LBB12_53:                              @   in Loop: Header=BB12_52 Depth=1
.Ltmp154:
	.loc	8 525 26 is_stmt 1              @ lvgl/src/lv_draw/lv_draw_img.c:525:26
	ldr	r0, [sp, #268]
	.loc	8 525 24 is_stmt 0              @ lvgl/src/lv_draw/lv_draw_img.c:525:24
	str	r0, [sp, #252]
	.loc	8 526 39 is_stmt 1              @ lvgl/src/lv_draw/lv_draw_img.c:526:39
	ldr	r0, [sp, #256]
	.loc	8 526 26 is_stmt 0              @ lvgl/src/lv_draw/lv_draw_img.c:526:26
	str	r0, [sp, #80]
	.loc	8 529 33 is_stmt 1              @ lvgl/src/lv_draw/lv_draw_img.c:529:33
	ldr	r0, [sp, #280]
	.loc	8 529 44 is_stmt 0              @ lvgl/src/lv_draw/lv_draw_img.c:529:44
	ldrsh.w	r0, [r0]
	.loc	8 529 59                        @ lvgl/src/lv_draw/lv_draw_img.c:529:59
	ldrsh.w	r1, [sp, #292]
	.loc	8 529 47                        @ lvgl/src/lv_draw/lv_draw_img.c:529:47
	add	r0, r1
	.loc	8 529 64                        @ lvgl/src/lv_draw/lv_draw_img.c:529:64
	ldr	r1, [sp, #316]
	.loc	8 529 74                        @ lvgl/src/lv_draw/lv_draw_img.c:529:74
	ldrsh.w	r1, [r1]
	.loc	8 529 62                        @ lvgl/src/lv_draw/lv_draw_img.c:529:62
	subs	r0, r0, r1
	.loc	8 529 25                        @ lvgl/src/lv_draw/lv_draw_img.c:529:25
	str	r0, [sp, #76]
	movs	r0, #0
.Ltmp155:
	.loc	8 531 23 is_stmt 1              @ lvgl/src/lv_draw/lv_draw_img.c:531:23
	str	r0, [sp, #92]
	.loc	8 531 21 is_stmt 0              @ lvgl/src/lv_draw/lv_draw_img.c:531:21
	b	.LBB12_54
.LBB12_54:                              @   Parent Loop BB12_52 Depth=1
                                        @ =>  This Inner Loop Header: Depth=2
.Ltmp156:
	.loc	8 531 28                        @ lvgl/src/lv_draw/lv_draw_img.c:531:28
	ldr	r0, [sp, #92]
	.loc	8 531 32                        @ lvgl/src/lv_draw/lv_draw_img.c:531:32
	ldrsh.w	r1, [sp, #240]
.Ltmp157:
	.loc	8 531 17                        @ lvgl/src/lv_draw/lv_draw_img.c:531:17
	cmp	r0, r1
	bge	.LBB12_74
	b	.LBB12_55
.LBB12_55:                              @   in Loop: Header=BB12_54 Depth=2
.Ltmp158:
	.loc	8 534 24 is_stmt 1              @ lvgl/src/lv_draw/lv_draw_img.c:534:24
	ldrb.w	r0, [sp, #239]
.Ltmp159:
	.loc	8 534 24 is_stmt 0              @ lvgl/src/lv_draw/lv_draw_img.c:534:24
	lsls	r0, r0, #31
	cbz	r0, .LBB12_60
	b	.LBB12_56
.LBB12_56:                              @   in Loop: Header=BB12_54 Depth=2
.Ltmp160:
	.loc	8 538 65 is_stmt 1              @ lvgl/src/lv_draw/lv_draw_img.c:538:65
	ldr	r0, [sp, #76]
	.loc	8 538 73 is_stmt 0              @ lvgl/src/lv_draw/lv_draw_img.c:538:73
	ldr	r1, [sp, #92]
	.loc	8 538 71                        @ lvgl/src/lv_draw/lv_draw_img.c:538:71
	add	r1, r0
	.loc	8 538 76                        @ lvgl/src/lv_draw/lv_draw_img.c:538:76
	ldr	r0, [sp, #84]
	.loc	8 538 84                        @ lvgl/src/lv_draw/lv_draw_img.c:538:84
	ldr	r2, [sp, #88]
	.loc	8 538 82                        @ lvgl/src/lv_draw/lv_draw_img.c:538:82
	add	r0, r2
	.loc	8 538 31                        @ lvgl/src/lv_draw/lv_draw_img.c:538:31
	sxth	r1, r1
	sxth	r2, r0
	add	r0, sp, #108
	bl	_lv_img_buf_transform
	.loc	8 538 29                        @ lvgl/src/lv_draw/lv_draw_img.c:538:29
	strb.w	r0, [sp, #75]
.Ltmp161:
	.loc	8 539 28 is_stmt 1              @ lvgl/src/lv_draw/lv_draw_img.c:539:28
	ldrb.w	r0, [sp, #75]
.Ltmp162:
	.loc	8 539 28 is_stmt 0              @ lvgl/src/lv_draw/lv_draw_img.c:539:28
	lsls	r0, r0, #31
	cbnz	r0, .LBB12_58
	b	.LBB12_57
.LBB12_57:                              @   in Loop: Header=BB12_54 Depth=2
.Ltmp163:
	.loc	8 540 29 is_stmt 1              @ lvgl/src/lv_draw/lv_draw_img.c:540:29
	ldr	r1, [sp, #192]
	.loc	8 540 38 is_stmt 0              @ lvgl/src/lv_draw/lv_draw_img.c:540:38
	ldr	r2, [sp, #256]
	movs	r0, #0
	.loc	8 540 44                        @ lvgl/src/lv_draw/lv_draw_img.c:540:44
	strb	r0, [r1, r2]
	.loc	8 541 29 is_stmt 1              @ lvgl/src/lv_draw/lv_draw_img.c:541:29
	b	.LBB12_73
.Ltmp164:
.LBB12_58:                              @   in Loop: Header=BB12_54 Depth=2
	.loc	8 544 60                        @ lvgl/src/lv_draw/lv_draw_img.c:544:60
	ldrb.w	r0, [sp, #136]
	.loc	8 544 29 is_stmt 0              @ lvgl/src/lv_draw/lv_draw_img.c:544:29
	ldr	r1, [sp, #192]
	.loc	8 544 38                        @ lvgl/src/lv_draw/lv_draw_img.c:544:38
	ldr	r2, [sp, #256]
	.loc	8 544 44                        @ lvgl/src/lv_draw/lv_draw_img.c:544:44
	strb	r0, [r1, r2]
	.loc	8 545 58 is_stmt 1              @ lvgl/src/lv_draw/lv_draw_img.c:545:58
	ldr	r0, [sp, #132]
	.loc	8 545 36 is_stmt 0              @ lvgl/src/lv_draw/lv_draw_img.c:545:36
	str	r0, [sp, #264]
	b	.LBB12_59
.Ltmp165:
.LBB12_59:                              @   in Loop: Header=BB12_54 Depth=2
	.loc	8 547 21 is_stmt 1              @ lvgl/src/lv_draw/lv_draw_img.c:547:21
	b	.LBB12_70
.Ltmp166:
.LBB12_60:                              @   in Loop: Header=BB12_54 Depth=2
	.loc	8 552 28                        @ lvgl/src/lv_draw/lv_draw_img.c:552:28
	ldrb.w	r0, [sp, #302]
.Ltmp167:
	.loc	8 552 28 is_stmt 0              @ lvgl/src/lv_draw/lv_draw_img.c:552:28
	lsls	r0, r0, #31
	cbz	r0, .LBB12_64
	b	.LBB12_61
.LBB12_61:                              @   in Loop: Header=BB12_54 Depth=2
.Ltmp168:
	.loc	8 553 47 is_stmt 1              @ lvgl/src/lv_draw/lv_draw_img.c:553:47
	ldr	r0, [sp, #252]
	ldrb	r0, [r0, #3]
	.loc	8 553 38 is_stmt 0              @ lvgl/src/lv_draw/lv_draw_img.c:553:38
	strb.w	r0, [sp, #74]
	.loc	8 554 46 is_stmt 1              @ lvgl/src/lv_draw/lv_draw_img.c:554:46
	ldrb.w	r0, [sp, #74]
	.loc	8 554 29 is_stmt 0              @ lvgl/src/lv_draw/lv_draw_img.c:554:29
	ldr	r1, [sp, #192]
	.loc	8 554 38                        @ lvgl/src/lv_draw/lv_draw_img.c:554:38
	ldr	r2, [sp, #256]
	.loc	8 554 44                        @ lvgl/src/lv_draw/lv_draw_img.c:554:44
	strb	r0, [r1, r2]
.Ltmp169:
	.loc	8 555 32 is_stmt 1              @ lvgl/src/lv_draw/lv_draw_img.c:555:32
	ldrb.w	r0, [sp, #74]
.Ltmp170:
	.loc	8 555 32 is_stmt 0              @ lvgl/src/lv_draw/lv_draw_img.c:555:32
	cbnz	r0, .LBB12_63
	b	.LBB12_62
.LBB12_62:                              @   in Loop: Header=BB12_54 Depth=2
.Ltmp171:
	.loc	8 557 33 is_stmt 1              @ lvgl/src/lv_draw/lv_draw_img.c:557:33
	ldr	r1, [sp, #196]
	.loc	8 557 38 is_stmt 0              @ lvgl/src/lv_draw/lv_draw_img.c:557:38
	ldr	r2, [sp, #256]
	movs	r0, #0
	.loc	8 557 49                        @ lvgl/src/lv_draw/lv_draw_img.c:557:49
	str.w	r0, [r1, r2, lsl #2]
	.loc	8 559 33 is_stmt 1              @ lvgl/src/lv_draw/lv_draw_img.c:559:33
	b	.LBB12_73
.Ltmp172:
.LBB12_63:                              @   in Loop: Header=BB12_54 Depth=2
	.loc	8 561 25                        @ lvgl/src/lv_draw/lv_draw_img.c:561:25
	b	.LBB12_65
.Ltmp173:
.LBB12_64:                              @   in Loop: Header=BB12_54 Depth=2
	.loc	8 563 29                        @ lvgl/src/lv_draw/lv_draw_img.c:563:29
	ldr	r1, [sp, #192]
	.loc	8 563 38 is_stmt 0              @ lvgl/src/lv_draw/lv_draw_img.c:563:38
	ldr	r2, [sp, #256]
	movs	r0, #255
	.loc	8 563 44                        @ lvgl/src/lv_draw/lv_draw_img.c:563:44
	strb	r0, [r1, r2]
	b	.LBB12_65
.Ltmp174:
.LBB12_65:                              @   in Loop: Header=BB12_54 Depth=2
	.loc	8 573 49 is_stmt 1              @ lvgl/src/lv_draw/lv_draw_img.c:573:49
	ldr	r0, [sp, #252]
	.loc	8 573 35 is_stmt 0              @ lvgl/src/lv_draw/lv_draw_img.c:573:35
	ldr	r0, [r0]
	.loc	8 573 32                        @ lvgl/src/lv_draw/lv_draw_img.c:573:32
	str	r0, [sp, #264]
	movs	r0, #255
	.loc	8 574 36 is_stmt 1              @ lvgl/src/lv_draw/lv_draw_img.c:574:36
	strb.w	r0, [sp, #267]
.Ltmp175:
	.loc	8 576 28                        @ lvgl/src/lv_draw/lv_draw_img.c:576:28
	ldrb.w	r0, [sp, #303]
.Ltmp176:
	.loc	8 576 28 is_stmt 0              @ lvgl/src/lv_draw/lv_draw_img.c:576:28
	lsls	r0, r0, #31
	cbz	r0, .LBB12_69
	b	.LBB12_66
.LBB12_66:                              @   in Loop: Header=BB12_54 Depth=2
.Ltmp177:
	.loc	8 577 34 is_stmt 1              @ lvgl/src/lv_draw/lv_draw_img.c:577:34
	ldr	r0, [sp, #264]
	.loc	8 577 61 is_stmt 0              @ lvgl/src/lv_draw/lv_draw_img.c:577:61
	ldr	r1, [sp, #260]
.Ltmp178:
	.loc	8 577 32                        @ lvgl/src/lv_draw/lv_draw_img.c:577:32
	cmp	r0, r1
	bne	.LBB12_68
	b	.LBB12_67
.LBB12_67:                              @   in Loop: Header=BB12_54 Depth=2
.Ltmp179:
	.loc	8 578 33 is_stmt 1              @ lvgl/src/lv_draw/lv_draw_img.c:578:33
	ldr	r1, [sp, #192]
	.loc	8 578 42 is_stmt 0              @ lvgl/src/lv_draw/lv_draw_img.c:578:42
	ldr	r2, [sp, #256]
	movs	r0, #0
	.loc	8 578 48                        @ lvgl/src/lv_draw/lv_draw_img.c:578:48
	strb	r0, [r1, r2]
	.loc	8 580 33 is_stmt 1              @ lvgl/src/lv_draw/lv_draw_img.c:580:33
	ldr	r1, [sp, #196]
	.loc	8 580 38 is_stmt 0              @ lvgl/src/lv_draw/lv_draw_img.c:580:38
	ldr	r2, [sp, #256]
	.loc	8 580 49                        @ lvgl/src/lv_draw/lv_draw_img.c:580:49
	str.w	r0, [r1, r2, lsl #2]
	.loc	8 582 33 is_stmt 1              @ lvgl/src/lv_draw/lv_draw_img.c:582:33
	b	.LBB12_73
.Ltmp180:
.LBB12_68:                              @   in Loop: Header=BB12_54 Depth=2
	.loc	8 584 25                        @ lvgl/src/lv_draw/lv_draw_img.c:584:25
	b	.LBB12_69
.Ltmp181:
.LBB12_69:                              @   in Loop: Header=BB12_54 Depth=2
	.loc	8 0 25 is_stmt 0                @ lvgl/src/lv_draw/lv_draw_img.c:0:25
	b	.LBB12_70
.LBB12_70:                              @   in Loop: Header=BB12_54 Depth=2
.Ltmp182:
	.loc	8 587 24 is_stmt 1              @ lvgl/src/lv_draw/lv_draw_img.c:587:24
	ldr	r0, [sp, #304]
	.loc	8 587 34 is_stmt 0              @ lvgl/src/lv_draw/lv_draw_img.c:587:34
	ldrb	r0, [r0, #10]
.Ltmp183:
	.loc	8 587 24                        @ lvgl/src/lv_draw/lv_draw_img.c:587:24
	cbz	r0, .LBB12_72
	b	.LBB12_71
.LBB12_71:                              @   in Loop: Header=BB12_54 Depth=2
.Ltmp184:
	.loc	8 588 70 is_stmt 1              @ lvgl/src/lv_draw/lv_draw_img.c:588:70
	ldrb.w	r2, [sp, #99]
	.loc	8 588 29 is_stmt 0              @ lvgl/src/lv_draw/lv_draw_img.c:588:29
	ldr	r1, [sp, #264]
	add	r0, sp, #100
	bl	lv_color_mix_premult
	str	r0, [sp, #68]
	ldr	r0, [sp, #68]
	str	r0, [sp, #264]
	.loc	8 589 21 is_stmt 1              @ lvgl/src/lv_draw/lv_draw_img.c:589:21
	b	.LBB12_72
.Ltmp185:
.LBB12_72:                              @   in Loop: Header=BB12_54 Depth=2
	.loc	8 591 41                        @ lvgl/src/lv_draw/lv_draw_img.c:591:41
	ldr	r0, [sp, #264]
	.loc	8 591 21 is_stmt 0              @ lvgl/src/lv_draw/lv_draw_img.c:591:21
	ldr	r1, [sp, #196]
	.loc	8 591 26                        @ lvgl/src/lv_draw/lv_draw_img.c:591:26
	ldr	r2, [sp, #256]
	.loc	8 591 37                        @ lvgl/src/lv_draw/lv_draw_img.c:591:37
	str.w	r0, [r1, r2, lsl #2]
	.loc	8 592 17 is_stmt 1              @ lvgl/src/lv_draw/lv_draw_img.c:592:17
	b	.LBB12_73
.Ltmp186:
.LBB12_73:                              @   in Loop: Header=BB12_54 Depth=2
	.loc	8 531 46                        @ lvgl/src/lv_draw/lv_draw_img.c:531:46
	ldr	r0, [sp, #92]
	adds	r0, #1
	str	r0, [sp, #92]
	.loc	8 531 60 is_stmt 0              @ lvgl/src/lv_draw/lv_draw_img.c:531:60
	ldrb.w	r1, [sp, #278]
	.loc	8 531 57                        @ lvgl/src/lv_draw/lv_draw_img.c:531:57
	ldr	r0, [sp, #252]
	add	r0, r1
	str	r0, [sp, #252]
	.loc	8 531 78                        @ lvgl/src/lv_draw/lv_draw_img.c:531:78
	ldr	r0, [sp, #256]
	adds	r0, #1
	str	r0, [sp, #256]
	.loc	8 531 17                        @ lvgl/src/lv_draw/lv_draw_img.c:531:17
	b	.LBB12_54
.Ltmp187:
.LBB12_74:                              @   in Loop: Header=BB12_52 Depth=1
	.loc	8 595 20 is_stmt 1              @ lvgl/src/lv_draw/lv_draw_img.c:595:20
	ldrb.w	r0, [sp, #279]
.Ltmp188:
	.loc	8 595 20 is_stmt 0              @ lvgl/src/lv_draw/lv_draw_img.c:595:20
	cbz	r0, .LBB12_81
	b	.LBB12_75
.LBB12_75:                              @   in Loop: Header=BB12_52 Depth=1
.Ltmp189:
	.loc	8 597 55 is_stmt 1              @ lvgl/src/lv_draw/lv_draw_img.c:597:55
	ldr	r0, [sp, #192]
	.loc	8 597 66 is_stmt 0              @ lvgl/src/lv_draw/lv_draw_img.c:597:66
	ldr	r1, [sp, #80]
	.loc	8 597 64                        @ lvgl/src/lv_draw/lv_draw_img.c:597:64
	add	r0, r1
	.loc	8 597 78                        @ lvgl/src/lv_draw/lv_draw_img.c:597:78
	str	r0, [sp, #32]                   @ 4-byte Spill
	ldrh.w	r0, [sp, #292]
	.loc	8 597 93                        @ lvgl/src/lv_draw/lv_draw_img.c:597:93
	ldr	r1, [sp, #284]
	ldrh	r2, [r1, #16]
	.loc	8 597 91                        @ lvgl/src/lv_draw/lv_draw_img.c:597:91
	add	r0, r2
	.loc	8 597 107                       @ lvgl/src/lv_draw/lv_draw_img.c:597:107
	str	r0, [sp, #24]                   @ 4-byte Spill
	ldr	r0, [sp, #88]
	.loc	8 597 111                       @ lvgl/src/lv_draw/lv_draw_img.c:597:111
	ldrh.w	r2, [sp, #294]
	.loc	8 597 109                       @ lvgl/src/lv_draw/lv_draw_img.c:597:109
	add	r0, r2
	.loc	8 597 126                       @ lvgl/src/lv_draw/lv_draw_img.c:597:126
	ldrh	r1, [r1, #18]
	.loc	8 597 124                       @ lvgl/src/lv_draw/lv_draw_img.c:597:124
	add	r0, r1
	.loc	8 598 55 is_stmt 1              @ lvgl/src/lv_draw/lv_draw_img.c:598:55
	str	r0, [sp, #28]                   @ 4-byte Spill
	add	r0, sp, #292
	bl	lv_area_get_width
	ldr	r1, [sp, #24]                   @ 4-byte Reload
	ldr	r2, [sp, #28]                   @ 4-byte Reload
	mov	r3, r0
	.loc	8 597 36                        @ lvgl/src/lv_draw/lv_draw_img.c:597:36
	ldr	r0, [sp, #32]                   @ 4-byte Reload
	sxth	r1, r1
	sxth	r2, r2
	bl	lv_draw_mask_apply
	.loc	8 597 34 is_stmt 0              @ lvgl/src/lv_draw/lv_draw_img.c:597:34
	strb.w	r0, [sp, #67]
.Ltmp190:
	.loc	8 599 24 is_stmt 1              @ lvgl/src/lv_draw/lv_draw_img.c:599:24
	ldrb.w	r0, [sp, #67]
.Ltmp191:
	.loc	8 599 24 is_stmt 0              @ lvgl/src/lv_draw/lv_draw_img.c:599:24
	cbnz	r0, .LBB12_77
	b	.LBB12_76
.LBB12_76:                              @   in Loop: Header=BB12_52 Depth=1
.Ltmp192:
	.loc	8 600 39 is_stmt 1              @ lvgl/src/lv_draw/lv_draw_img.c:600:39
	ldr	r0, [sp, #192]
	.loc	8 600 50 is_stmt 0              @ lvgl/src/lv_draw/lv_draw_img.c:600:50
	ldr	r1, [sp, #80]
	.loc	8 600 48                        @ lvgl/src/lv_draw/lv_draw_img.c:600:48
	add	r0, r1
	.loc	8 600 62                        @ lvgl/src/lv_draw/lv_draw_img.c:600:62
	str	r0, [sp, #20]                   @ 4-byte Spill
	add	r0, sp, #292
	bl	lv_area_get_width
	mov	r1, r0
	.loc	8 600 25                        @ lvgl/src/lv_draw/lv_draw_img.c:600:25
	ldr	r0, [sp, #20]                   @ 4-byte Reload
	bl	_lv_memset_00
	movs	r0, #2
	.loc	8 601 34 is_stmt 1              @ lvgl/src/lv_draw/lv_draw_img.c:601:34
	strb.w	r0, [sp, #98]
	.loc	8 602 21                        @ lvgl/src/lv_draw/lv_draw_img.c:602:21
	b	.LBB12_80
.Ltmp193:
.LBB12_77:                              @   in Loop: Header=BB12_52 Depth=1
	.loc	8 603 29                        @ lvgl/src/lv_draw/lv_draw_img.c:603:29
	ldrb.w	r0, [sp, #67]
.Ltmp194:
	.loc	8 603 29 is_stmt 0              @ lvgl/src/lv_draw/lv_draw_img.c:603:29
	cmp	r0, #2
	bne	.LBB12_79
	b	.LBB12_78
.LBB12_78:                              @   in Loop: Header=BB12_52 Depth=1
	.loc	8 0 29                          @ lvgl/src/lv_draw/lv_draw_img.c:0:29
	movs	r0, #2
.Ltmp195:
	.loc	8 604 34 is_stmt 1              @ lvgl/src/lv_draw/lv_draw_img.c:604:34
	strb.w	r0, [sp, #98]
	.loc	8 605 21                        @ lvgl/src/lv_draw/lv_draw_img.c:605:21
	b	.LBB12_79
.Ltmp196:
.LBB12_79:                              @   in Loop: Header=BB12_52 Depth=1
	.loc	8 0 21 is_stmt 0                @ lvgl/src/lv_draw/lv_draw_img.c:0:21
	b	.LBB12_80
.LBB12_80:                              @   in Loop: Header=BB12_52 Depth=1
	.loc	8 606 17 is_stmt 1              @ lvgl/src/lv_draw/lv_draw_img.c:606:17
	b	.LBB12_81
.Ltmp197:
.LBB12_81:                              @   in Loop: Header=BB12_52 Depth=1
	.loc	8 608 32                        @ lvgl/src/lv_draw/lv_draw_img.c:608:32
	ldr	r0, [sp, #272]
	.loc	8 608 40 is_stmt 0              @ lvgl/src/lv_draw/lv_draw_img.c:608:40
	ldrb.w	r1, [sp, #278]
	.loc	8 608 29                        @ lvgl/src/lv_draw/lv_draw_img.c:608:29
	ldr	r2, [sp, #268]
	mla	r0, r0, r1, r2
	str	r0, [sp, #268]
.Ltmp198:
	.loc	8 609 20 is_stmt 1              @ lvgl/src/lv_draw/lv_draw_img.c:609:20
	ldr	r0, [sp, #256]
	.loc	8 609 27 is_stmt 0              @ lvgl/src/lv_draw/lv_draw_img.c:609:27
	str	r0, [sp, #16]                   @ 4-byte Spill
	add	r0, sp, #292
	bl	lv_area_get_width
	mov	r1, r0
	.loc	8 609 25                        @ lvgl/src/lv_draw/lv_draw_img.c:609:25
	ldr	r0, [sp, #16]                   @ 4-byte Reload
	add	r0, r1
	.loc	8 609 59                        @ lvgl/src/lv_draw/lv_draw_img.c:609:59
	ldr	r1, [sp, #200]
.Ltmp199:
	.loc	8 609 20                        @ lvgl/src/lv_draw/lv_draw_img.c:609:20
	cmp	r0, r1
	bhs	.LBB12_83
	b	.LBB12_82
.LBB12_82:                              @   in Loop: Header=BB12_52 Depth=1
.Ltmp200:
	.loc	8 610 35 is_stmt 1              @ lvgl/src/lv_draw/lv_draw_img.c:610:35
	ldrh.w	r0, [sp, #250]
	adds	r0, #1
	strh.w	r0, [sp, #250]
	.loc	8 611 17                        @ lvgl/src/lv_draw/lv_draw_img.c:611:17
	b	.LBB12_90
.Ltmp201:
.LBB12_83:                              @   in Loop: Header=BB12_52 Depth=1
	.loc	8 614 35                        @ lvgl/src/lv_draw/lv_draw_img.c:614:35
	ldr	r0, [sp, #312]
	.loc	8 614 59 is_stmt 0              @ lvgl/src/lv_draw/lv_draw_img.c:614:59
	ldr	r2, [sp, #196]
	.loc	8 614 65                        @ lvgl/src/lv_draw/lv_draw_img.c:614:65
	ldr	r3, [sp, #192]
	.loc	8 614 75                        @ lvgl/src/lv_draw/lv_draw_img.c:614:75
	ldrb.w	r1, [sp, #98]
	.loc	8 614 85                        @ lvgl/src/lv_draw/lv_draw_img.c:614:85
	ldr.w	r12, [sp, #304]
	.loc	8 614 95                        @ lvgl/src/lv_draw/lv_draw_img.c:614:95
	ldrb.w	lr, [r12]
	.loc	8 614 110                       @ lvgl/src/lv_draw/lv_draw_img.c:614:110
	ldrb.w	r4, [r12, #16]
	.loc	8 614 21                        @ lvgl/src/lv_draw/lv_draw_img.c:614:21
	mov	r12, sp
	str.w	r4, [r12, #8]
	str.w	lr, [r12, #4]
	str.w	r1, [r12]
	add	r1, sp, #244
	bl	_lv_blend_map
	.loc	8 616 37 is_stmt 1              @ lvgl/src/lv_draw/lv_draw_img.c:616:37
	ldrh.w	r0, [sp, #250]
	.loc	8 616 51 is_stmt 0              @ lvgl/src/lv_draw/lv_draw_img.c:616:51
	adds	r0, #1
	.loc	8 616 35                        @ lvgl/src/lv_draw/lv_draw_img.c:616:35
	strh.w	r0, [sp, #246]
	.loc	8 617 48 is_stmt 1              @ lvgl/src/lv_draw/lv_draw_img.c:617:48
	ldrh.w	r0, [sp, #246]
	.loc	8 617 35 is_stmt 0              @ lvgl/src/lv_draw/lv_draw_img.c:617:35
	strh.w	r0, [sp, #250]
	movs	r0, #0
	.loc	8 619 26 is_stmt 1              @ lvgl/src/lv_draw/lv_draw_img.c:619:26
	str	r0, [sp, #256]
	.loc	8 620 33                        @ lvgl/src/lv_draw/lv_draw_img.c:620:33
	ldrb.w	r1, [sp, #302]
	movs	r0, #1
	.loc	8 620 44 is_stmt 0              @ lvgl/src/lv_draw/lv_draw_img.c:620:44
	lsls	r1, r1, #31
	str	r0, [sp, #12]                   @ 4-byte Spill
	cbnz	r1, .LBB12_87
	b	.LBB12_84
.LBB12_84:                              @   in Loop: Header=BB12_52 Depth=1
	.loc	8 620 47                        @ lvgl/src/lv_draw/lv_draw_img.c:620:47
	ldrb.w	r1, [sp, #303]
	movs	r0, #1
	.loc	8 620 58                        @ lvgl/src/lv_draw/lv_draw_img.c:620:58
	lsls	r1, r1, #31
	str	r0, [sp, #12]                   @ 4-byte Spill
	cbnz	r1, .LBB12_87
	b	.LBB12_85
.LBB12_85:                              @   in Loop: Header=BB12_52 Depth=1
	.loc	8 620 61                        @ lvgl/src/lv_draw/lv_draw_img.c:620:61
	ldr	r0, [sp, #304]
	.loc	8 620 71                        @ lvgl/src/lv_draw/lv_draw_img.c:620:71
	ldrh	r1, [r0, #2]
	movs	r0, #1
	.loc	8 620 77                        @ lvgl/src/lv_draw/lv_draw_img.c:620:77
	str	r0, [sp, #12]                   @ 4-byte Spill
	cbnz	r1, .LBB12_87
	b	.LBB12_86
.LBB12_86:                              @   in Loop: Header=BB12_52 Depth=1
	.loc	8 621 33 is_stmt 1              @ lvgl/src/lv_draw/lv_draw_img.c:621:33
	ldr	r0, [sp, #304]
	.loc	8 621 43 is_stmt 0              @ lvgl/src/lv_draw/lv_draw_img.c:621:43
	ldrh	r0, [r0, #8]
	.loc	8 621 48                        @ lvgl/src/lv_draw/lv_draw_img.c:621:48
	subs.w	r0, r0, #256
	it	ne
	movne	r0, #1
	.loc	8 620 77 is_stmt 1              @ lvgl/src/lv_draw/lv_draw_img.c:620:77
	str	r0, [sp, #12]                   @ 4-byte Spill
	b	.LBB12_87
.LBB12_87:                              @   in Loop: Header=BB12_52 Depth=1
	.loc	8 0 77 is_stmt 0                @ lvgl/src/lv_draw/lv_draw_img.c:0:77
	ldr	r0, [sp, #12]                   @ 4-byte Reload
	.loc	8 620 32                        @ lvgl/src/lv_draw/lv_draw_img.c:620:32
	lsls	r1, r0, #31
	movs	r0, #1
	cmp	r1, #0
	it	ne
	movne	r0, #2
	.loc	8 620 30                        @ lvgl/src/lv_draw/lv_draw_img.c:620:30
	strb.w	r0, [sp, #98]
.Ltmp202:
	.loc	8 624 24 is_stmt 1              @ lvgl/src/lv_draw/lv_draw_img.c:624:24
	ldrb.w	r0, [sp, #279]
.Ltmp203:
	.loc	8 624 24 is_stmt 0              @ lvgl/src/lv_draw/lv_draw_img.c:624:24
	cbz	r0, .LBB12_89
	b	.LBB12_88
.LBB12_88:                              @   in Loop: Header=BB12_52 Depth=1
.Ltmp204:
	.loc	8 625 39 is_stmt 1              @ lvgl/src/lv_draw/lv_draw_img.c:625:39
	ldr	r0, [sp, #192]
	.loc	8 625 49 is_stmt 0              @ lvgl/src/lv_draw/lv_draw_img.c:625:49
	ldr	r1, [sp, #200]
	.loc	8 625 25                        @ lvgl/src/lv_draw/lv_draw_img.c:625:25
	bl	_lv_memset_ff
	.loc	8 626 21 is_stmt 1              @ lvgl/src/lv_draw/lv_draw_img.c:626:21
	b	.LBB12_89
.Ltmp205:
.LBB12_89:                              @   in Loop: Header=BB12_52 Depth=1
	.loc	8 0 21 is_stmt 0                @ lvgl/src/lv_draw/lv_draw_img.c:0:21
	b	.LBB12_90
.LBB12_90:                              @   in Loop: Header=BB12_52 Depth=1
	.loc	8 628 13 is_stmt 1              @ lvgl/src/lv_draw/lv_draw_img.c:628:13
	b	.LBB12_91
.Ltmp206:
.LBB12_91:                              @   in Loop: Header=BB12_52 Depth=1
	.loc	8 524 42                        @ lvgl/src/lv_draw/lv_draw_img.c:524:42
	ldr	r0, [sp, #88]
	adds	r0, #1
	str	r0, [sp, #88]
	.loc	8 524 13 is_stmt 0              @ lvgl/src/lv_draw/lv_draw_img.c:524:13
	b	.LBB12_52
.Ltmp207:
.LBB12_92:
	.loc	8 631 27 is_stmt 1              @ lvgl/src/lv_draw/lv_draw_img.c:631:27
	ldrsh.w	r0, [sp, #246]
	.loc	8 631 44 is_stmt 0              @ lvgl/src/lv_draw/lv_draw_img.c:631:44
	ldrsh.w	r1, [sp, #250]
.Ltmp208:
	.loc	8 631 16                        @ lvgl/src/lv_draw/lv_draw_img.c:631:16
	cmp	r0, r1
	beq	.LBB12_94
	b	.LBB12_93
.LBB12_93:
.Ltmp209:
	.loc	8 632 30 is_stmt 1              @ lvgl/src/lv_draw/lv_draw_img.c:632:30
	ldrh.w	r0, [sp, #250]
	subs	r0, #1
	strh.w	r0, [sp, #250]
	.loc	8 633 31                        @ lvgl/src/lv_draw/lv_draw_img.c:633:31
	ldr	r0, [sp, #312]
	.loc	8 633 55 is_stmt 0              @ lvgl/src/lv_draw/lv_draw_img.c:633:55
	ldr	r2, [sp, #196]
	.loc	8 633 61                        @ lvgl/src/lv_draw/lv_draw_img.c:633:61
	ldr	r3, [sp, #192]
	.loc	8 633 71                        @ lvgl/src/lv_draw/lv_draw_img.c:633:71
	ldrb.w	r1, [sp, #98]
	.loc	8 633 81                        @ lvgl/src/lv_draw/lv_draw_img.c:633:81
	ldr.w	r12, [sp, #304]
	.loc	8 633 91                        @ lvgl/src/lv_draw/lv_draw_img.c:633:91
	ldrb.w	lr, [r12]
	.loc	8 633 106                       @ lvgl/src/lv_draw/lv_draw_img.c:633:106
	ldrb.w	r4, [r12, #16]
	.loc	8 633 17                        @ lvgl/src/lv_draw/lv_draw_img.c:633:17
	mov	r12, sp
	str.w	r4, [r12, #8]
	str.w	lr, [r12, #4]
	str.w	r1, [r12]
	add	r1, sp, #244
	bl	_lv_blend_map
	.loc	8 634 13 is_stmt 1              @ lvgl/src/lv_draw/lv_draw_img.c:634:13
	b	.LBB12_94
.Ltmp210:
.LBB12_94:
	.loc	8 636 33                        @ lvgl/src/lv_draw/lv_draw_img.c:636:33
	ldr	r0, [sp, #192]
	.loc	8 636 13 is_stmt 0              @ lvgl/src/lv_draw/lv_draw_img.c:636:13
	bl	_lv_mem_buf_release
	.loc	8 637 33 is_stmt 1              @ lvgl/src/lv_draw/lv_draw_img.c:637:33
	ldr	r0, [sp, #196]
	.loc	8 637 13 is_stmt 0              @ lvgl/src/lv_draw/lv_draw_img.c:637:13
	bl	_lv_mem_buf_release
	b	.LBB12_95
.Ltmp211:
.LBB12_95:
	.loc	8 0 13                          @ lvgl/src/lv_draw/lv_draw_img.c:0:13
	b	.LBB12_96
.LBB12_96:
	.loc	8 640 1 is_stmt 1               @ lvgl/src/lv_draw/lv_draw_img.c:640:1
	add	sp, #320
	pop	{r4, pc}
.Ltmp212:
.Lfunc_end12:
	.size	lv_draw_map, .Lfunc_end12-lv_draw_map
	.cfi_endproc
	.cantunwind
	.fnend
                                        @ -- End function
	.section	.text._lv_memcpy_small,"ax",%progbits
	.p2align	3                               @ -- Begin function _lv_memcpy_small
	.type	_lv_memcpy_small,%function
	.code	16                              @ @_lv_memcpy_small
	.thumb_func
_lv_memcpy_small:
.Lfunc_begin13:
	.file	10 "E:\\STM32\\Learning\\STM32H750_ART_PI_RGBLCD" "lvgl/src/lv_draw/../lv_misc/lv_mem.h"
	.loc	10 214 0                        @ lvgl/src/lv_draw/../lv_misc/lv_mem.h:214:0
	.fnstart
	.cfi_startproc
@ %bb.0:
	.pad	#20
	sub	sp, #20
	.cfi_def_cfa_offset 20
	str	r0, [sp, #16]
	str	r1, [sp, #12]
	str	r2, [sp, #8]
.Ltmp213:
	.loc	10 215 31 prologue_end          @ lvgl/src/lv_draw/../lv_misc/lv_mem.h:215:31
	ldr	r0, [sp, #16]
	.loc	10 215 15 is_stmt 0             @ lvgl/src/lv_draw/../lv_misc/lv_mem.h:215:15
	str	r0, [sp, #4]
	.loc	10 216 43 is_stmt 1             @ lvgl/src/lv_draw/../lv_misc/lv_mem.h:216:43
	ldr	r0, [sp, #12]
	.loc	10 216 21 is_stmt 0             @ lvgl/src/lv_draw/../lv_misc/lv_mem.h:216:21
	str	r0, [sp]
	.loc	10 218 5 is_stmt 1              @ lvgl/src/lv_draw/../lv_misc/lv_mem.h:218:5
	b	.LBB13_1
.LBB13_1:                               @ =>This Inner Loop Header: Depth=1
	.loc	10 218 11 is_stmt 0             @ lvgl/src/lv_draw/../lv_misc/lv_mem.h:218:11
	ldr	r0, [sp, #8]
	.loc	10 218 5                        @ lvgl/src/lv_draw/../lv_misc/lv_mem.h:218:5
	cbz	r0, .LBB13_3
	b	.LBB13_2
.LBB13_2:                               @   in Loop: Header=BB13_1 Depth=1
.Ltmp214:
	.loc	10 219 16 is_stmt 1             @ lvgl/src/lv_draw/../lv_misc/lv_mem.h:219:16
	ldr	r0, [sp]
	.loc	10 219 15 is_stmt 0             @ lvgl/src/lv_draw/../lv_misc/lv_mem.h:219:15
	ldrb	r0, [r0]
	.loc	10 219 10                       @ lvgl/src/lv_draw/../lv_misc/lv_mem.h:219:10
	ldr	r1, [sp, #4]
	.loc	10 219 13                       @ lvgl/src/lv_draw/../lv_misc/lv_mem.h:219:13
	strb	r0, [r1]
	.loc	10 220 11 is_stmt 1             @ lvgl/src/lv_draw/../lv_misc/lv_mem.h:220:11
	ldr	r0, [sp, #4]
	adds	r0, #1
	str	r0, [sp, #4]
	.loc	10 221 11                       @ lvgl/src/lv_draw/../lv_misc/lv_mem.h:221:11
	ldr	r0, [sp]
	adds	r0, #1
	str	r0, [sp]
	.loc	10 222 12                       @ lvgl/src/lv_draw/../lv_misc/lv_mem.h:222:12
	ldr	r0, [sp, #8]
	subs	r0, #1
	str	r0, [sp, #8]
.Ltmp215:
	.loc	10 218 5                        @ lvgl/src/lv_draw/../lv_misc/lv_mem.h:218:5
	b	.LBB13_1
.LBB13_3:
	.loc	10 225 12                       @ lvgl/src/lv_draw/../lv_misc/lv_mem.h:225:12
	ldr	r0, [sp, #16]
	.loc	10 225 5 is_stmt 0              @ lvgl/src/lv_draw/../lv_misc/lv_mem.h:225:5
	add	sp, #20
	bx	lr
.Ltmp216:
.Lfunc_end13:
	.size	_lv_memcpy_small, .Lfunc_end13-_lv_memcpy_small
	.cfi_endproc
	.cantunwind
	.fnend
                                        @ -- End function
	.section	.text.lv_color_premult,"ax",%progbits
	.p2align	3                               @ -- Begin function lv_color_premult
	.type	lv_color_premult,%function
	.code	16                              @ @lv_color_premult
	.thumb_func
lv_color_premult:
.Lfunc_begin14:
	.loc	1 461 0 is_stmt 1               @ lvgl/src/lv_draw/../lv_hal/../lv_misc/lv_color.h:461:0
	.fnstart
	.cfi_startproc
@ %bb.0:
	.pad	#12
	sub	sp, #12
	.cfi_def_cfa_offset 12
                                        @ kill: def $r3 killed $r1
	str	r0, [sp, #8]
	strb.w	r1, [sp, #7]
	str	r2, [sp]
.Ltmp217:
	.loc	1 463 25 prologue_end           @ lvgl/src/lv_draw/../lv_hal/../lv_misc/lv_color.h:463:25
	ldrb.w	r0, [sp, #10]
	.loc	1 463 45 is_stmt 0              @ lvgl/src/lv_draw/../lv_hal/../lv_misc/lv_color.h:463:45
	ldrb.w	r1, [sp, #7]
	.loc	1 463 43                        @ lvgl/src/lv_draw/../lv_hal/../lv_misc/lv_color.h:463:43
	muls	r0, r1, r0
	.loc	1 463 5                         @ lvgl/src/lv_draw/../lv_hal/../lv_misc/lv_color.h:463:5
	ldr	r1, [sp]
	.loc	1 463 12                        @ lvgl/src/lv_draw/../lv_hal/../lv_misc/lv_color.h:463:12
	strh	r0, [r1]
	.loc	1 464 25 is_stmt 1              @ lvgl/src/lv_draw/../lv_hal/../lv_misc/lv_color.h:464:25
	ldrb.w	r0, [sp, #9]
	.loc	1 464 45 is_stmt 0              @ lvgl/src/lv_draw/../lv_hal/../lv_misc/lv_color.h:464:45
	ldrb.w	r1, [sp, #7]
	.loc	1 464 43                        @ lvgl/src/lv_draw/../lv_hal/../lv_misc/lv_color.h:464:43
	muls	r0, r1, r0
	.loc	1 464 5                         @ lvgl/src/lv_draw/../lv_hal/../lv_misc/lv_color.h:464:5
	ldr	r1, [sp]
	.loc	1 464 12                        @ lvgl/src/lv_draw/../lv_hal/../lv_misc/lv_color.h:464:12
	strh	r0, [r1, #2]
	.loc	1 465 25 is_stmt 1              @ lvgl/src/lv_draw/../lv_hal/../lv_misc/lv_color.h:465:25
	ldrb.w	r0, [sp, #8]
	.loc	1 465 45 is_stmt 0              @ lvgl/src/lv_draw/../lv_hal/../lv_misc/lv_color.h:465:45
	ldrb.w	r1, [sp, #7]
	.loc	1 465 43                        @ lvgl/src/lv_draw/../lv_hal/../lv_misc/lv_color.h:465:43
	muls	r0, r1, r0
	.loc	1 465 5                         @ lvgl/src/lv_draw/../lv_hal/../lv_misc/lv_color.h:465:5
	ldr	r1, [sp]
	.loc	1 465 12                        @ lvgl/src/lv_draw/../lv_hal/../lv_misc/lv_color.h:465:12
	strh	r0, [r1, #4]
	.loc	1 474 1 is_stmt 1               @ lvgl/src/lv_draw/../lv_hal/../lv_misc/lv_color.h:474:1
	add	sp, #12
	bx	lr
.Ltmp218:
.Lfunc_end14:
	.size	lv_color_premult, .Lfunc_end14-lv_color_premult
	.cfi_endproc
	.cantunwind
	.fnend
                                        @ -- End function
	.section	.text._lv_img_buf_transform,"ax",%progbits
	.p2align	3                               @ -- Begin function _lv_img_buf_transform
	.type	_lv_img_buf_transform,%function
	.code	16                              @ @_lv_img_buf_transform
	.thumb_func
_lv_img_buf_transform:
.Lfunc_begin15:
	.loc	5 290 0                         @ lvgl/src/lv_draw/lv_img_buf.h:290:0
	.fnstart
	.cfi_startproc
@ %bb.0:
	.save	{r7, lr}
	push	{r7, lr}
	.cfi_def_cfa_offset 8
	.cfi_offset lr, -4
	.cfi_offset r7, -8
	.pad	#64
	sub	sp, #64
	.cfi_def_cfa_offset 72
                                        @ kill: def $r3 killed $r2
                                        @ kill: def $r3 killed $r1
	str	r0, [sp, #56]
	strh.w	r1, [sp, #54]
	strh.w	r2, [sp, #52]
.Ltmp219:
	.loc	5 291 47 prologue_end           @ lvgl/src/lv_draw/lv_img_buf.h:291:47
	ldr	r0, [sp, #56]
	.loc	5 291 56 is_stmt 0              @ lvgl/src/lv_draw/lv_img_buf.h:291:56
	ldr	r0, [r0]
	.loc	5 291 21                        @ lvgl/src/lv_draw/lv_img_buf.h:291:21
	str	r0, [sp, #48]
	.loc	5 294 18 is_stmt 1              @ lvgl/src/lv_draw/lv_img_buf.h:294:18
	ldrsh.w	r0, [sp, #54]
	.loc	5 294 22 is_stmt 0              @ lvgl/src/lv_draw/lv_img_buf.h:294:22
	ldr	r1, [sp, #56]
	.loc	5 294 31                        @ lvgl/src/lv_draw/lv_img_buf.h:294:31
	ldrsh.w	r1, [r1, #8]
	.loc	5 294 20                        @ lvgl/src/lv_draw/lv_img_buf.h:294:20
	subs	r0, r0, r1
	.loc	5 294 13                        @ lvgl/src/lv_draw/lv_img_buf.h:294:13
	str	r0, [sp, #44]
	.loc	5 295 18 is_stmt 1              @ lvgl/src/lv_draw/lv_img_buf.h:295:18
	ldrsh.w	r0, [sp, #52]
	.loc	5 295 22 is_stmt 0              @ lvgl/src/lv_draw/lv_img_buf.h:295:22
	ldr	r1, [sp, #56]
	.loc	5 295 31                        @ lvgl/src/lv_draw/lv_img_buf.h:295:31
	ldrsh.w	r1, [r1, #10]
	.loc	5 295 20                        @ lvgl/src/lv_draw/lv_img_buf.h:295:20
	subs	r0, r0, r1
	.loc	5 295 13                        @ lvgl/src/lv_draw/lv_img_buf.h:295:13
	str	r0, [sp, #40]
.Ltmp220:
	.loc	5 299 8 is_stmt 1               @ lvgl/src/lv_draw/lv_img_buf.h:299:8
	ldr	r0, [sp, #56]
	.loc	5 299 17 is_stmt 0              @ lvgl/src/lv_draw/lv_img_buf.h:299:17
	ldrh	r0, [r0, #14]
.Ltmp221:
	.loc	5 299 8                         @ lvgl/src/lv_draw/lv_img_buf.h:299:8
	cmp.w	r0, #256
	bne	.LBB15_2
	b	.LBB15_1
.LBB15_1:
.Ltmp222:
	.loc	5 301 16 is_stmt 1              @ lvgl/src/lv_draw/lv_img_buf.h:301:16
	ldr	r2, [sp, #56]
	.loc	5 301 106 is_stmt 0             @ lvgl/src/lv_draw/lv_img_buf.h:301:106
	ldr	r0, [r2, #44]
	.loc	5 301 47                        @ lvgl/src/lv_draw/lv_img_buf.h:301:47
	ldr	r1, [r2, #52]
	.loc	5 301 25                        @ lvgl/src/lv_draw/lv_img_buf.h:301:25
	ldr	r2, [r2, #56]
	.loc	5 301 33                        @ lvgl/src/lv_draw/lv_img_buf.h:301:33
	ldr	r3, [sp, #44]
	.loc	5 301 31                        @ lvgl/src/lv_draw/lv_img_buf.h:301:31
	muls	r3, r2, r3
	.loc	5 301 55                        @ lvgl/src/lv_draw/lv_img_buf.h:301:55
	ldr	r2, [sp, #40]
	.loc	5 301 36                        @ lvgl/src/lv_draw/lv_img_buf.h:301:36
	mls	r1, r1, r2, r3
	.loc	5 301 95                        @ lvgl/src/lv_draw/lv_img_buf.h:301:95
	add.w	r0, r0, r1, asr #2
	.loc	5 301 12                        @ lvgl/src/lv_draw/lv_img_buf.h:301:12
	str	r0, [sp, #36]
	.loc	5 302 16 is_stmt 1              @ lvgl/src/lv_draw/lv_img_buf.h:302:16
	ldr	r3, [sp, #56]
	.loc	5 302 33 is_stmt 0              @ lvgl/src/lv_draw/lv_img_buf.h:302:33
	ldr	r2, [sp, #44]
	.loc	5 302 106                       @ lvgl/src/lv_draw/lv_img_buf.h:302:106
	ldr	r0, [r3, #48]
	.loc	5 302 25                        @ lvgl/src/lv_draw/lv_img_buf.h:302:25
	ldr	r1, [r3, #52]
	.loc	5 302 47                        @ lvgl/src/lv_draw/lv_img_buf.h:302:47
	ldr	r3, [r3, #56]
	.loc	5 302 55                        @ lvgl/src/lv_draw/lv_img_buf.h:302:55
	ldr.w	r12, [sp, #40]
	.loc	5 302 53                        @ lvgl/src/lv_draw/lv_img_buf.h:302:53
	mul	r3, r3, r12
	.loc	5 302 36                        @ lvgl/src/lv_draw/lv_img_buf.h:302:36
	mla	r1, r1, r2, r3
	.loc	5 302 95                        @ lvgl/src/lv_draw/lv_img_buf.h:302:95
	add.w	r0, r0, r1, asr #2
	.loc	5 302 12                        @ lvgl/src/lv_draw/lv_img_buf.h:302:12
	str	r0, [sp, #32]
	.loc	5 303 5 is_stmt 1               @ lvgl/src/lv_draw/lv_img_buf.h:303:5
	b	.LBB15_6
.Ltmp223:
.LBB15_2:
	.loc	5 304 13                        @ lvgl/src/lv_draw/lv_img_buf.h:304:13
	ldr	r0, [sp, #56]
	.loc	5 304 22 is_stmt 0              @ lvgl/src/lv_draw/lv_img_buf.h:304:22
	ldrsh.w	r0, [r0, #12]
.Ltmp224:
	.loc	5 304 13                        @ lvgl/src/lv_draw/lv_img_buf.h:304:13
	cbnz	r0, .LBB15_4
	b	.LBB15_3
.LBB15_3:
.Ltmp225:
	.loc	5 305 33 is_stmt 1              @ lvgl/src/lv_draw/lv_img_buf.h:305:33
	ldr	r0, [sp, #44]
	.loc	5 305 38 is_stmt 0              @ lvgl/src/lv_draw/lv_img_buf.h:305:38
	ldr	r1, [sp, #56]
	.loc	5 305 47                        @ lvgl/src/lv_draw/lv_img_buf.h:305:47
	ldr	r1, [r1, #64]
	.loc	5 305 36                        @ lvgl/src/lv_draw/lv_img_buf.h:305:36
	muls	r0, r1, r0
	.loc	5 305 57                        @ lvgl/src/lv_draw/lv_img_buf.h:305:57
	asrs	r0, r0, #5
	.loc	5 305 12                        @ lvgl/src/lv_draw/lv_img_buf.h:305:12
	str	r0, [sp, #44]
	.loc	5 306 33 is_stmt 1              @ lvgl/src/lv_draw/lv_img_buf.h:306:33
	ldr	r0, [sp, #40]
	.loc	5 306 38 is_stmt 0              @ lvgl/src/lv_draw/lv_img_buf.h:306:38
	ldr	r1, [sp, #56]
	.loc	5 306 47                        @ lvgl/src/lv_draw/lv_img_buf.h:306:47
	ldr	r1, [r1, #64]
	.loc	5 306 36                        @ lvgl/src/lv_draw/lv_img_buf.h:306:36
	muls	r0, r1, r0
	.loc	5 306 57                        @ lvgl/src/lv_draw/lv_img_buf.h:306:57
	asrs	r0, r0, #5
	.loc	5 306 12                        @ lvgl/src/lv_draw/lv_img_buf.h:306:12
	str	r0, [sp, #40]
	.loc	5 307 14 is_stmt 1              @ lvgl/src/lv_draw/lv_img_buf.h:307:14
	ldr	r0, [sp, #44]
	.loc	5 307 19 is_stmt 0              @ lvgl/src/lv_draw/lv_img_buf.h:307:19
	ldr	r1, [sp, #56]
	.loc	5 307 28                        @ lvgl/src/lv_draw/lv_img_buf.h:307:28
	ldr	r1, [r1, #44]
	.loc	5 307 17                        @ lvgl/src/lv_draw/lv_img_buf.h:307:17
	add	r0, r1
	.loc	5 307 12                        @ lvgl/src/lv_draw/lv_img_buf.h:307:12
	str	r0, [sp, #36]
	.loc	5 308 14 is_stmt 1              @ lvgl/src/lv_draw/lv_img_buf.h:308:14
	ldr	r0, [sp, #40]
	.loc	5 308 19 is_stmt 0              @ lvgl/src/lv_draw/lv_img_buf.h:308:19
	ldr	r1, [sp, #56]
	.loc	5 308 28                        @ lvgl/src/lv_draw/lv_img_buf.h:308:28
	ldr	r1, [r1, #48]
	.loc	5 308 17                        @ lvgl/src/lv_draw/lv_img_buf.h:308:17
	add	r0, r1
	.loc	5 308 12                        @ lvgl/src/lv_draw/lv_img_buf.h:308:12
	str	r0, [sp, #32]
	.loc	5 309 5 is_stmt 1               @ lvgl/src/lv_draw/lv_img_buf.h:309:5
	b	.LBB15_5
.Ltmp226:
.LBB15_4:
	.loc	5 311 33                        @ lvgl/src/lv_draw/lv_img_buf.h:311:33
	ldr	r0, [sp, #44]
	.loc	5 311 38 is_stmt 0              @ lvgl/src/lv_draw/lv_img_buf.h:311:38
	ldr	r1, [sp, #56]
	.loc	5 311 47                        @ lvgl/src/lv_draw/lv_img_buf.h:311:47
	ldr	r1, [r1, #64]
	.loc	5 311 36                        @ lvgl/src/lv_draw/lv_img_buf.h:311:36
	muls	r0, r1, r0
	.loc	5 311 57                        @ lvgl/src/lv_draw/lv_img_buf.h:311:57
	asrs	r0, r0, #5
	.loc	5 311 12                        @ lvgl/src/lv_draw/lv_img_buf.h:311:12
	str	r0, [sp, #44]
	.loc	5 312 33 is_stmt 1              @ lvgl/src/lv_draw/lv_img_buf.h:312:33
	ldr	r0, [sp, #40]
	.loc	5 312 38 is_stmt 0              @ lvgl/src/lv_draw/lv_img_buf.h:312:38
	ldr	r1, [sp, #56]
	.loc	5 312 47                        @ lvgl/src/lv_draw/lv_img_buf.h:312:47
	ldr	r1, [r1, #64]
	.loc	5 312 36                        @ lvgl/src/lv_draw/lv_img_buf.h:312:36
	muls	r0, r1, r0
	.loc	5 312 57                        @ lvgl/src/lv_draw/lv_img_buf.h:312:57
	asrs	r0, r0, #5
	.loc	5 312 12                        @ lvgl/src/lv_draw/lv_img_buf.h:312:12
	str	r0, [sp, #40]
	.loc	5 313 16 is_stmt 1              @ lvgl/src/lv_draw/lv_img_buf.h:313:16
	ldr	r2, [sp, #56]
	.loc	5 313 102 is_stmt 0             @ lvgl/src/lv_draw/lv_img_buf.h:313:102
	ldr	r0, [r2, #44]
	.loc	5 313 47                        @ lvgl/src/lv_draw/lv_img_buf.h:313:47
	ldr	r1, [r2, #52]
	.loc	5 313 25                        @ lvgl/src/lv_draw/lv_img_buf.h:313:25
	ldr	r2, [r2, #56]
	.loc	5 313 33                        @ lvgl/src/lv_draw/lv_img_buf.h:313:33
	ldr	r3, [sp, #44]
	.loc	5 313 31                        @ lvgl/src/lv_draw/lv_img_buf.h:313:31
	muls	r3, r2, r3
	.loc	5 313 55                        @ lvgl/src/lv_draw/lv_img_buf.h:313:55
	ldr	r2, [sp, #40]
	.loc	5 313 36                        @ lvgl/src/lv_draw/lv_img_buf.h:313:36
	mls	r1, r1, r2, r3
	.loc	5 313 91                        @ lvgl/src/lv_draw/lv_img_buf.h:313:91
	add.w	r0, r0, r1, asr #10
	.loc	5 313 12                        @ lvgl/src/lv_draw/lv_img_buf.h:313:12
	str	r0, [sp, #36]
	.loc	5 314 16 is_stmt 1              @ lvgl/src/lv_draw/lv_img_buf.h:314:16
	ldr	r3, [sp, #56]
	.loc	5 314 33 is_stmt 0              @ lvgl/src/lv_draw/lv_img_buf.h:314:33
	ldr	r2, [sp, #44]
	.loc	5 314 102                       @ lvgl/src/lv_draw/lv_img_buf.h:314:102
	ldr	r0, [r3, #48]
	.loc	5 314 25                        @ lvgl/src/lv_draw/lv_img_buf.h:314:25
	ldr	r1, [r3, #52]
	.loc	5 314 47                        @ lvgl/src/lv_draw/lv_img_buf.h:314:47
	ldr	r3, [r3, #56]
	.loc	5 314 55                        @ lvgl/src/lv_draw/lv_img_buf.h:314:55
	ldr.w	r12, [sp, #40]
	.loc	5 314 53                        @ lvgl/src/lv_draw/lv_img_buf.h:314:53
	mul	r3, r3, r12
	.loc	5 314 36                        @ lvgl/src/lv_draw/lv_img_buf.h:314:36
	mla	r1, r1, r2, r3
	.loc	5 314 91                        @ lvgl/src/lv_draw/lv_img_buf.h:314:91
	add.w	r0, r0, r1, asr #10
	.loc	5 314 12                        @ lvgl/src/lv_draw/lv_img_buf.h:314:12
	str	r0, [sp, #32]
	b	.LBB15_5
.Ltmp227:
.LBB15_5:
	.loc	5 0 12                          @ lvgl/src/lv_draw/lv_img_buf.h:0:12
	b	.LBB15_6
.LBB15_6:
	.loc	5 318 22 is_stmt 1              @ lvgl/src/lv_draw/lv_img_buf.h:318:22
	ldr	r0, [sp, #36]
	.loc	5 318 25 is_stmt 0              @ lvgl/src/lv_draw/lv_img_buf.h:318:25
	asrs	r0, r0, #8
	.loc	5 318 13                        @ lvgl/src/lv_draw/lv_img_buf.h:318:13
	str	r0, [sp, #28]
	.loc	5 319 22 is_stmt 1              @ lvgl/src/lv_draw/lv_img_buf.h:319:22
	ldr	r0, [sp, #32]
	.loc	5 319 25 is_stmt 0              @ lvgl/src/lv_draw/lv_img_buf.h:319:25
	asrs	r0, r0, #8
	.loc	5 319 13                        @ lvgl/src/lv_draw/lv_img_buf.h:319:13
	str	r0, [sp, #24]
.Ltmp228:
	.loc	5 321 8 is_stmt 1               @ lvgl/src/lv_draw/lv_img_buf.h:321:8
	ldr	r0, [sp, #28]
	.loc	5 321 18 is_stmt 0              @ lvgl/src/lv_draw/lv_img_buf.h:321:18
	ldr	r1, [sp, #56]
	.loc	5 321 27                        @ lvgl/src/lv_draw/lv_img_buf.h:321:27
	ldrsh.w	r1, [r1, #4]
.Ltmp229:
	.loc	5 321 8                         @ lvgl/src/lv_draw/lv_img_buf.h:321:8
	cmp	r0, r1
	blt	.LBB15_8
	b	.LBB15_7
.LBB15_7:
	.loc	5 0 8                           @ lvgl/src/lv_draw/lv_img_buf.h:0:8
	movs	r0, #0
.Ltmp230:
	.loc	5 321 34                        @ lvgl/src/lv_draw/lv_img_buf.h:321:34
	strb.w	r0, [sp, #63]
	b	.LBB15_29
.LBB15_8:
.Ltmp231:
	.loc	5 322 13 is_stmt 1              @ lvgl/src/lv_draw/lv_img_buf.h:322:13
	ldr	r0, [sp, #28]
.Ltmp232:
	.loc	5 322 13 is_stmt 0              @ lvgl/src/lv_draw/lv_img_buf.h:322:13
	cmp.w	r0, #-1
	bgt	.LBB15_10
	b	.LBB15_9
.LBB15_9:
	.loc	5 0 13                          @ lvgl/src/lv_draw/lv_img_buf.h:0:13
	movs	r0, #0
.Ltmp233:
	.loc	5 322 25                        @ lvgl/src/lv_draw/lv_img_buf.h:322:25
	strb.w	r0, [sp, #63]
	b	.LBB15_29
.Ltmp234:
.LBB15_10:
	.loc	5 0 25                          @ lvgl/src/lv_draw/lv_img_buf.h:0:25
	b	.LBB15_11
.LBB15_11:
.Ltmp235:
	.loc	5 324 8 is_stmt 1               @ lvgl/src/lv_draw/lv_img_buf.h:324:8
	ldr	r0, [sp, #24]
	.loc	5 324 18 is_stmt 0              @ lvgl/src/lv_draw/lv_img_buf.h:324:18
	ldr	r1, [sp, #56]
	.loc	5 324 27                        @ lvgl/src/lv_draw/lv_img_buf.h:324:27
	ldrsh.w	r1, [r1, #6]
.Ltmp236:
	.loc	5 324 8                         @ lvgl/src/lv_draw/lv_img_buf.h:324:8
	cmp	r0, r1
	blt	.LBB15_13
	b	.LBB15_12
.LBB15_12:
	.loc	5 0 8                           @ lvgl/src/lv_draw/lv_img_buf.h:0:8
	movs	r0, #0
.Ltmp237:
	.loc	5 324 34                        @ lvgl/src/lv_draw/lv_img_buf.h:324:34
	strb.w	r0, [sp, #63]
	b	.LBB15_29
.LBB15_13:
.Ltmp238:
	.loc	5 325 13 is_stmt 1              @ lvgl/src/lv_draw/lv_img_buf.h:325:13
	ldr	r0, [sp, #24]
.Ltmp239:
	.loc	5 325 13 is_stmt 0              @ lvgl/src/lv_draw/lv_img_buf.h:325:13
	cmp.w	r0, #-1
	bgt	.LBB15_15
	b	.LBB15_14
.LBB15_14:
	.loc	5 0 13                          @ lvgl/src/lv_draw/lv_img_buf.h:0:13
	movs	r0, #0
.Ltmp240:
	.loc	5 325 25                        @ lvgl/src/lv_draw/lv_img_buf.h:325:25
	strb.w	r0, [sp, #63]
	b	.LBB15_29
.Ltmp241:
.LBB15_15:
	.loc	5 0 25                          @ lvgl/src/lv_draw/lv_img_buf.h:0:25
	b	.LBB15_16
.LBB15_16:
.Ltmp242:
	.loc	5 329 8 is_stmt 1               @ lvgl/src/lv_draw/lv_img_buf.h:329:8
	ldr	r0, [sp, #56]
	.loc	5 329 17 is_stmt 0              @ lvgl/src/lv_draw/lv_img_buf.h:329:17
	ldrb.w	r0, [r0, #60]
	lsrs	r0, r0, #2
.Ltmp243:
	.loc	5 329 8                         @ lvgl/src/lv_draw/lv_img_buf.h:329:8
	lsls	r0, r0, #31
	cmp	r0, #0
	beq	.LBB15_21
	b	.LBB15_17
.LBB15_17:
.Ltmp244:
	.loc	5 330 12 is_stmt 1              @ lvgl/src/lv_draw/lv_img_buf.h:330:12
	ldr	r0, [sp, #56]
	.loc	5 330 21 is_stmt 0              @ lvgl/src/lv_draw/lv_img_buf.h:330:21
	ldrb.w	r0, [r0, #60]
	lsrs	r0, r0, #1
.Ltmp245:
	.loc	5 330 12                        @ lvgl/src/lv_draw/lv_img_buf.h:330:12
	lsls	r0, r0, #31
	cbnz	r0, .LBB15_19
	b	.LBB15_18
.LBB15_18:
	.loc	5 0 12                          @ lvgl/src/lv_draw/lv_img_buf.h:0:12
	movs	r0, #4
.Ltmp246:
	.loc	5 331 21 is_stmt 1              @ lvgl/src/lv_draw/lv_img_buf.h:331:21
	strb.w	r0, [sp, #23]
	.loc	5 333 23                        @ lvgl/src/lv_draw/lv_img_buf.h:333:23
	ldr	r0, [sp, #56]
	.loc	5 333 32 is_stmt 0              @ lvgl/src/lv_draw/lv_img_buf.h:333:32
	ldrsh.w	r0, [r0, #4]
	.loc	5 333 40                        @ lvgl/src/lv_draw/lv_img_buf.h:333:40
	ldr	r1, [sp, #24]
	.loc	5 333 38                        @ lvgl/src/lv_draw/lv_img_buf.h:333:38
	muls	r0, r1, r0
	.loc	5 333 49                        @ lvgl/src/lv_draw/lv_img_buf.h:333:49
	ldrb.w	r1, [sp, #23]
	.loc	5 333 59                        @ lvgl/src/lv_draw/lv_img_buf.h:333:59
	ldr	r2, [sp, #28]
	.loc	5 333 66                        @ lvgl/src/lv_draw/lv_img_buf.h:333:66
	muls	r2, r1, r2
	.loc	5 333 57                        @ lvgl/src/lv_draw/lv_img_buf.h:333:57
	mla	r0, r0, r1, r2
	.loc	5 333 21                        @ lvgl/src/lv_draw/lv_img_buf.h:333:21
	str	r0, [sp, #16]
	.loc	5 334 31 is_stmt 1              @ lvgl/src/lv_draw/lv_img_buf.h:334:31
	ldr	r0, [sp, #56]
	.loc	5 334 36 is_stmt 0              @ lvgl/src/lv_draw/lv_img_buf.h:334:36
	adds	r0, #24
	.loc	5 334 48                        @ lvgl/src/lv_draw/lv_img_buf.h:334:48
	ldr	r1, [sp, #48]
	.loc	5 334 55                        @ lvgl/src/lv_draw/lv_img_buf.h:334:55
	ldr	r2, [sp, #16]
	.loc	5 334 48                        @ lvgl/src/lv_draw/lv_img_buf.h:334:48
	add	r1, r2
	.loc	5 334 61                        @ lvgl/src/lv_draw/lv_img_buf.h:334:61
	ldrb.w	r2, [sp, #23]
	.loc	5 334 13                        @ lvgl/src/lv_draw/lv_img_buf.h:334:13
	bl	_lv_memcpy_small
	.loc	5 335 9 is_stmt 1               @ lvgl/src/lv_draw/lv_img_buf.h:335:9
	b	.LBB15_20
.Ltmp247:
.LBB15_19:
	.loc	5 0 9 is_stmt 0                 @ lvgl/src/lv_draw/lv_img_buf.h:0:9
	movs	r0, #4
.Ltmp248:
	.loc	5 337 21 is_stmt 1              @ lvgl/src/lv_draw/lv_img_buf.h:337:21
	strb.w	r0, [sp, #23]
	.loc	5 338 23                        @ lvgl/src/lv_draw/lv_img_buf.h:338:23
	ldr	r0, [sp, #56]
	.loc	5 338 32 is_stmt 0              @ lvgl/src/lv_draw/lv_img_buf.h:338:32
	ldrsh.w	r0, [r0, #4]
	.loc	5 338 40                        @ lvgl/src/lv_draw/lv_img_buf.h:338:40
	ldr	r1, [sp, #24]
	.loc	5 338 38                        @ lvgl/src/lv_draw/lv_img_buf.h:338:38
	muls	r0, r1, r0
	.loc	5 338 49                        @ lvgl/src/lv_draw/lv_img_buf.h:338:49
	ldrb.w	r1, [sp, #23]
	.loc	5 338 59                        @ lvgl/src/lv_draw/lv_img_buf.h:338:59
	ldr	r2, [sp, #28]
	.loc	5 338 66                        @ lvgl/src/lv_draw/lv_img_buf.h:338:66
	muls	r2, r1, r2
	.loc	5 338 57                        @ lvgl/src/lv_draw/lv_img_buf.h:338:57
	mla	r0, r0, r1, r2
	.loc	5 338 21                        @ lvgl/src/lv_draw/lv_img_buf.h:338:21
	str	r0, [sp, #16]
	.loc	5 339 31 is_stmt 1              @ lvgl/src/lv_draw/lv_img_buf.h:339:31
	ldr	r0, [sp, #56]
	.loc	5 339 36 is_stmt 0              @ lvgl/src/lv_draw/lv_img_buf.h:339:36
	adds	r0, #24
	.loc	5 339 48                        @ lvgl/src/lv_draw/lv_img_buf.h:339:48
	ldr	r1, [sp, #48]
	.loc	5 339 55                        @ lvgl/src/lv_draw/lv_img_buf.h:339:55
	ldr	r2, [sp, #16]
	.loc	5 339 48                        @ lvgl/src/lv_draw/lv_img_buf.h:339:48
	add	r1, r2
	.loc	5 339 61                        @ lvgl/src/lv_draw/lv_img_buf.h:339:61
	ldrb.w	r2, [sp, #23]
	.loc	5 339 69                        @ lvgl/src/lv_draw/lv_img_buf.h:339:69
	subs	r2, #1
	.loc	5 339 13                        @ lvgl/src/lv_draw/lv_img_buf.h:339:13
	bl	_lv_memcpy_small
	.loc	5 340 28 is_stmt 1              @ lvgl/src/lv_draw/lv_img_buf.h:340:28
	ldr	r1, [sp, #48]
	.loc	5 340 35 is_stmt 0              @ lvgl/src/lv_draw/lv_img_buf.h:340:35
	ldr	r0, [sp, #16]
	.loc	5 340 41                        @ lvgl/src/lv_draw/lv_img_buf.h:340:41
	ldrb.w	r2, [sp, #23]
	.loc	5 340 39                        @ lvgl/src/lv_draw/lv_img_buf.h:340:39
	add	r0, r2
	.loc	5 340 28                        @ lvgl/src/lv_draw/lv_img_buf.h:340:28
	add	r0, r1
	ldrb	r0, [r0, #-1]
	.loc	5 340 13                        @ lvgl/src/lv_draw/lv_img_buf.h:340:13
	ldr	r1, [sp, #56]
	.loc	5 340 26                        @ lvgl/src/lv_draw/lv_img_buf.h:340:26
	strb	r0, [r1, #28]
	b	.LBB15_20
.Ltmp249:
.LBB15_20:
	.loc	5 342 5 is_stmt 1               @ lvgl/src/lv_draw/lv_img_buf.h:342:5
	b	.LBB15_22
.Ltmp250:
.LBB15_21:
	.loc	5 0 5 is_stmt 0                 @ lvgl/src/lv_draw/lv_img_buf.h:0:5
	movs	r0, #0
.Ltmp251:
	.loc	5 344 13 is_stmt 1              @ lvgl/src/lv_draw/lv_img_buf.h:344:13
	str	r0, [sp, #16]
	.loc	5 345 17                        @ lvgl/src/lv_draw/lv_img_buf.h:345:17
	strb.w	r0, [sp, #23]
	.loc	5 346 9                         @ lvgl/src/lv_draw/lv_img_buf.h:346:9
	ldr	r3, [sp, #56]
	.loc	5 346 56 is_stmt 0              @ lvgl/src/lv_draw/lv_img_buf.h:346:56
	str	r3, [sp]                        @ 4-byte Spill
	add.w	r0, r3, #32
	.loc	5 346 69                        @ lvgl/src/lv_draw/lv_img_buf.h:346:69
	ldrsh.w	r1, [sp, #28]
	.loc	5 346 77                        @ lvgl/src/lv_draw/lv_img_buf.h:346:77
	ldrsh.w	r2, [sp, #24]
	.loc	5 346 26                        @ lvgl/src/lv_draw/lv_img_buf.h:346:26
	ldr	r3, [r3, #16]
	bl	lv_img_buf_get_px_color
	ldr	r1, [sp]                        @ 4-byte Reload
	str	r0, [sp, #12]
	ldr	r0, [sp, #12]
	str	r0, [r1, #24]
	.loc	5 347 49 is_stmt 1              @ lvgl/src/lv_draw/lv_img_buf.h:347:49
	ldr	r0, [sp, #56]
	.loc	5 347 54 is_stmt 0              @ lvgl/src/lv_draw/lv_img_buf.h:347:54
	adds	r0, #32
	.loc	5 347 67                        @ lvgl/src/lv_draw/lv_img_buf.h:347:67
	ldrsh.w	r1, [sp, #28]
	.loc	5 347 75                        @ lvgl/src/lv_draw/lv_img_buf.h:347:75
	ldrsh.w	r2, [sp, #24]
	.loc	5 347 24                        @ lvgl/src/lv_draw/lv_img_buf.h:347:24
	bl	lv_img_buf_get_px_alpha
	.loc	5 347 9                         @ lvgl/src/lv_draw/lv_img_buf.h:347:9
	ldr	r1, [sp, #56]
	.loc	5 347 22                        @ lvgl/src/lv_draw/lv_img_buf.h:347:22
	strb	r0, [r1, #28]
	b	.LBB15_22
.Ltmp252:
.LBB15_22:
	.loc	5 350 8 is_stmt 1               @ lvgl/src/lv_draw/lv_img_buf.h:350:8
	ldr	r0, [sp, #56]
	.loc	5 350 17 is_stmt 0              @ lvgl/src/lv_draw/lv_img_buf.h:350:17
	ldrb.w	r0, [r0, #60]
.Ltmp253:
	.loc	5 350 8                         @ lvgl/src/lv_draw/lv_img_buf.h:350:8
	lsls	r0, r0, #31
	cbz	r0, .LBB15_26
	b	.LBB15_23
.LBB15_23:
.Ltmp254:
	.loc	5 351 20 is_stmt 1              @ lvgl/src/lv_draw/lv_img_buf.h:351:20
	movw	r0, :lower16:.L__const._lv_img_buf_transform.ct
	movt	r0, :upper16:.L__const._lv_img_buf_transform.ct
	ldr	r0, [r0]
	str	r0, [sp, #8]
.Ltmp255:
	.loc	5 352 12                        @ lvgl/src/lv_draw/lv_img_buf.h:352:12
	ldr	r0, [sp, #56]
	.loc	5 352 27 is_stmt 0              @ lvgl/src/lv_draw/lv_img_buf.h:352:27
	ldr	r0, [r0, #24]
	.loc	5 352 38                        @ lvgl/src/lv_draw/lv_img_buf.h:352:38
	ldr	r1, [sp, #8]
.Ltmp256:
	.loc	5 352 12                        @ lvgl/src/lv_draw/lv_img_buf.h:352:12
	cmp	r0, r1
	bne	.LBB15_25
	b	.LBB15_24
.LBB15_24:
	.loc	5 0 12                          @ lvgl/src/lv_draw/lv_img_buf.h:0:12
	movs	r0, #0
.Ltmp257:
	.loc	5 352 44                        @ lvgl/src/lv_draw/lv_img_buf.h:352:44
	strb.w	r0, [sp, #63]
	b	.LBB15_29
.Ltmp258:
.LBB15_25:
	.loc	5 353 5 is_stmt 1               @ lvgl/src/lv_draw/lv_img_buf.h:353:5
	b	.LBB15_26
.Ltmp259:
.LBB15_26:
	.loc	5 355 8                         @ lvgl/src/lv_draw/lv_img_buf.h:355:8
	ldr	r0, [sp, #56]
	.loc	5 355 17 is_stmt 0              @ lvgl/src/lv_draw/lv_img_buf.h:355:17
	ldrb	r0, [r0, #21]
.Ltmp260:
	.loc	5 355 8                         @ lvgl/src/lv_draw/lv_img_buf.h:355:8
	lsls	r0, r0, #31
	cbnz	r0, .LBB15_28
	b	.LBB15_27
.LBB15_27:
	.loc	5 0 8                           @ lvgl/src/lv_draw/lv_img_buf.h:0:8
	movs	r0, #1
.Ltmp261:
	.loc	5 355 37                        @ lvgl/src/lv_draw/lv_img_buf.h:355:37
	strb.w	r0, [sp, #63]
	b	.LBB15_29
.Ltmp262:
.LBB15_28:
	.loc	5 357 19 is_stmt 1              @ lvgl/src/lv_draw/lv_img_buf.h:357:19
	ldr	r0, [sp, #36]
	.loc	5 357 5 is_stmt 0               @ lvgl/src/lv_draw/lv_img_buf.h:357:5
	ldr	r1, [sp, #56]
	.loc	5 357 17                        @ lvgl/src/lv_draw/lv_img_buf.h:357:17
	strh.w	r0, [r1, #68]
	.loc	5 358 19 is_stmt 1              @ lvgl/src/lv_draw/lv_img_buf.h:358:19
	ldr	r0, [sp, #32]
	.loc	5 358 5 is_stmt 0               @ lvgl/src/lv_draw/lv_img_buf.h:358:5
	ldr	r1, [sp, #56]
	.loc	5 358 17                        @ lvgl/src/lv_draw/lv_img_buf.h:358:17
	strh.w	r0, [r1, #70]
	.loc	5 359 23 is_stmt 1              @ lvgl/src/lv_draw/lv_img_buf.h:359:23
	ldr	r0, [sp, #28]
	.loc	5 359 5 is_stmt 0               @ lvgl/src/lv_draw/lv_img_buf.h:359:5
	ldr	r1, [sp, #56]
	.loc	5 359 21                        @ lvgl/src/lv_draw/lv_img_buf.h:359:21
	strh.w	r0, [r1, #72]
	.loc	5 360 23 is_stmt 1              @ lvgl/src/lv_draw/lv_img_buf.h:360:23
	ldr	r0, [sp, #24]
	.loc	5 360 5 is_stmt 0               @ lvgl/src/lv_draw/lv_img_buf.h:360:5
	ldr	r1, [sp, #56]
	.loc	5 360 21                        @ lvgl/src/lv_draw/lv_img_buf.h:360:21
	strh.w	r0, [r1, #74]
	.loc	5 361 20 is_stmt 1              @ lvgl/src/lv_draw/lv_img_buf.h:361:20
	ldr	r0, [sp, #16]
	.loc	5 361 5 is_stmt 0               @ lvgl/src/lv_draw/lv_img_buf.h:361:5
	ldr	r1, [sp, #56]
	.loc	5 361 18                        @ lvgl/src/lv_draw/lv_img_buf.h:361:18
	str	r0, [r1, #76]
	.loc	5 362 24 is_stmt 1              @ lvgl/src/lv_draw/lv_img_buf.h:362:24
	ldrb.w	r0, [sp, #23]
	.loc	5 362 5 is_stmt 0               @ lvgl/src/lv_draw/lv_img_buf.h:362:5
	ldr	r1, [sp, #56]
	.loc	5 362 22                        @ lvgl/src/lv_draw/lv_img_buf.h:362:22
	strb.w	r0, [r1, #80]
	.loc	5 365 44 is_stmt 1              @ lvgl/src/lv_draw/lv_img_buf.h:365:44
	ldr	r0, [sp, #56]
	.loc	5 365 11 is_stmt 0              @ lvgl/src/lv_draw/lv_img_buf.h:365:11
	bl	_lv_img_buf_transform_anti_alias
	.loc	5 365 9                         @ lvgl/src/lv_draw/lv_img_buf.h:365:9
	strb.w	r0, [sp, #7]
	.loc	5 367 12 is_stmt 1              @ lvgl/src/lv_draw/lv_img_buf.h:367:12
	ldrb.w	r0, [sp, #7]
	.loc	5 367 5 is_stmt 0               @ lvgl/src/lv_draw/lv_img_buf.h:367:5
	and	r0, r0, #1
	strb.w	r0, [sp, #63]
	b	.LBB15_29
.LBB15_29:
	.loc	5 368 1 is_stmt 1               @ lvgl/src/lv_draw/lv_img_buf.h:368:1
	ldrb.w	r0, [sp, #63]
	add	sp, #64
	pop	{r7, pc}
.Ltmp263:
.Lfunc_end15:
	.size	_lv_img_buf_transform, .Lfunc_end15-_lv_img_buf_transform
	.cfi_endproc
	.cantunwind
	.fnend
                                        @ -- End function
	.section	.text.lv_color_mix_premult,"ax",%progbits
	.p2align	3                               @ -- Begin function lv_color_mix_premult
	.type	lv_color_mix_premult,%function
	.code	16                              @ @lv_color_mix_premult
	.thumb_func
lv_color_mix_premult:
.Lfunc_begin16:
	.loc	1 486 0                         @ lvgl/src/lv_draw/../lv_hal/../lv_misc/lv_color.h:486:0
	.fnstart
	.cfi_startproc
@ %bb.0:
	.pad	#16
	sub	sp, #16
	.cfi_def_cfa_offset 16
                                        @ kill: def $r3 killed $r2
	str	r1, [sp, #8]
	str	r0, [sp, #4]
	strb.w	r2, [sp, #3]
.Ltmp264:
	.loc	1 490 5 prologue_end            @ lvgl/src/lv_draw/../lv_hal/../lv_misc/lv_color.h:490:5
	ldr	r0, [sp, #4]
	ldrh	r2, [r0]
	ldrb.w	r0, [sp, #10]
	ldrb.w	r1, [sp, #3]
	smlabb	r0, r0, r1, r2
	movw	r1, #32897
	muls	r0, r1, r0
	lsrs	r0, r0, #23
	strb.w	r0, [sp, #14]
	.loc	1 491 5                         @ lvgl/src/lv_draw/../lv_hal/../lv_misc/lv_color.h:491:5
	ldr	r0, [sp, #4]
	ldrh	r3, [r0, #2]
	ldrb.w	r0, [sp, #9]
	ldrb.w	r2, [sp, #3]
	smlabb	r0, r0, r2, r3
	muls	r0, r1, r0
	lsrs	r0, r0, #23
	strb.w	r0, [sp, #13]
	.loc	1 492 5                         @ lvgl/src/lv_draw/../lv_hal/../lv_misc/lv_color.h:492:5
	ldr	r0, [sp, #4]
	ldrh	r3, [r0, #4]
	ldrb.w	r0, [sp, #8]
	ldrb.w	r2, [sp, #3]
	smlabb	r0, r0, r2, r3
	muls	r0, r1, r0
	lsrs	r0, r0, #23
	strb.w	r0, [sp, #12]
	movs	r0, #255
	.loc	1 493 5                         @ lvgl/src/lv_draw/../lv_hal/../lv_misc/lv_color.h:493:5
	strb.w	r0, [sp, #15]
	.loc	1 504 5                         @ lvgl/src/lv_draw/../lv_hal/../lv_misc/lv_color.h:504:5
	ldr	r0, [sp, #12]
	add	sp, #16
	bx	lr
.Ltmp265:
.Lfunc_end16:
	.size	lv_color_mix_premult, .Lfunc_end16-lv_color_mix_premult
	.cfi_endproc
	.cantunwind
	.fnend
                                        @ -- End function
	.type	.L.str,%object                  @ @.str
	.section	.rodata.str1.1,"aMS",%progbits,1
.L.str:
	.asciz	"No\ndata"
	.size	.L.str, 8

	.type	.L__const.lv_draw_map.chroma_keyed_color,%object @ @__const.lv_draw_map.chroma_keyed_color
	.section	.rodata.cst4,"aM",%progbits,4
	.p2align	2
.L__const.lv_draw_map.chroma_keyed_color:
	.byte	0                               @ 0x0
	.byte	255                             @ 0xff
	.byte	0                               @ 0x0
	.byte	255                             @ 0xff
	.size	.L__const.lv_draw_map.chroma_keyed_color, 4

	.type	.L__const._lv_img_buf_transform.ct,%object @ @__const._lv_img_buf_transform.ct
	.p2align	2
.L__const._lv_img_buf_transform.ct:
	.byte	0                               @ 0x0
	.byte	255                             @ 0xff
	.byte	0                               @ 0x0
	.byte	255                             @ 0xff
	.size	.L__const._lv_img_buf_transform.ct, 4

	.file	11 "E:\\STM32\\Learning\\STM32H750_ART_PI_RGBLCD" "lvgl/src/lv_draw/../lv_core/../lv_draw/lv_draw_img.h"
	.file	12 "E:\\STM32\\Learning\\STM32H750_ART_PI_RGBLCD" "lvgl/src/lv_draw/../lv_core/../lv_draw/lv_draw_blend.h"
	.file	13 "E:\\STM32\\Learning\\STM32H750_ART_PI_RGBLCD" "lvgl/src/lv_draw/../lv_core/lv_style.h"
	.file	14 "E:\\STM32\\Learning\\STM32H750_ART_PI_RGBLCD" "lvgl/src/lv_draw/../lv_core/../lv_draw/lv_draw_rect.h"
	.file	15 "E:\\STM32\\Learning\\STM32H750_ART_PI_RGBLCD" "lvgl/src/lv_draw/../lv_misc/../lv_font/lv_font.h"
	.file	16 "E:\\STM32\\Learning\\STM32H750_ART_PI_RGBLCD" "lvgl/src/lv_draw/../lv_core/../lv_draw/lv_draw_label.h"
	.file	17 "E:\\STM32\\Learning\\STM32H750_ART_PI_RGBLCD" "lvgl/src/lv_draw/../lv_misc/lv_bidi.h"
	.file	18 "E:\\STM32\\Learning\\STM32H750_ART_PI_RGBLCD" "lvgl/src/lv_draw/../lv_misc/lv_txt.h"
	.file	19 "E:\\STM32\\Learning\\STM32H750_ART_PI_RGBLCD" "lvgl/src/lv_draw/lv_img_cache.h"
	.file	20 "E:\\STM32\\Learning\\STM32H750_ART_PI_RGBLCD" "lvgl/src/lv_draw/../lv_hal/lv_hal_disp.h"
	.file	21 "E:\\STM32\\Learning\\STM32H750_ART_PI_RGBLCD" "lvgl/src/lv_draw/../lv_hal/../lv_misc/lv_task.h"
	.file	22 "E:\\STM32\\Learning\\STM32H750_ART_PI_RGBLCD" "lvgl/src/lv_draw/../lv_hal/../lv_misc/lv_ll.h"
	.file	23 "E:\\STM32\\Learning\\STM32H750_ART_PI_RGBLCD" "lvgl/src/lv_draw/../lv_core/lv_obj.h"
	.file	24 "E:\\STM32\\Learning\\STM32H750_ART_PI_RGBLCD" "lvgl/src/lv_draw/../lv_hal/lv_hal_indev.h"
	.file	25 "D:\\Keil_v5\\ARM\\ARMCLANG\\Bin\\..\\include" "string.h"
	.section	".note.GNU-stack","",%progbits
	.eabi_attribute	30, 6	@ Tag_ABI_optimization_goals
	.ARM_attribute	16, 1	@ Tag_AV_eba