	.text
	.syntax unified
	.eabi_attribute	67, "2.09"	@ Tag_conformance
	.cpu	cortex-m7
	.eabi_attribute	6, 13	@ Tag_CPU_arch
	.eabi_attribute	7, 77	@ Tag_CPU_arch_profile
	.eabi_attribute	8, 0	@ Tag_ARM_ISA_use
	.eabi_attribute	9, 2	@ Tag_THUMB_ISA_use
	.fpu	fpv5-d16
	.eabi_attribute	36, 1	@ Tag_FP_HP_extension
	.eabi_attribute	34, 1	@ Tag_CPU_unaligned_access
	.eabi_attribute	17, 1	@ Tag_ABI_PCS_GOT_use
	.eabi_attribute	20, 2	@ Tag_ABI_FP_denormal
	.eabi_attribute	21, 0	@ Tag_ABI_FP_exceptions
	.eabi_attribute	23, 1	@ Tag_ABI_FP_number_model
	.eabi_attribute	24, 1	@ Tag_ABI_align_needed
	.eabi_attribute	25, 1	@ Tag_ABI_align_preserved
	.eabi_attribute	28, 1	@ Tag_ABI_VFP_args
	.eabi_attribute	38, 1	@ Tag_ABI_FP_16bit_format
	.eabi_attribute	18, 2	@ Tag_ABI_PCS_wchar_t
	.eabi_attribute	26, 1	@ Tag_ABI_enum_size
	.eabi_attribute	14, 0	@ Tag_ABI_PCS_R9_use
	.file	"lv_disp.c"
	.file	1 "E:\\STM32\\Learning\\STM32H750_ART_PI_RGBLCD" "lvgl/src/lv_core/lv_disp.h"
	.file	2 "E:\\STM32\\Learning\\STM32H750_ART_PI_RGBLCD" "lvgl/src/lv_core/lv_obj.h"
	.file	3 "E:\\STM32\\Learning\\STM32H750_ART_PI_RGBLCD" "lvgl/src/lv_core/../lv_draw/../lv_core/lv_style.h"
	.file	4 "E:\\STM32\\Learning\\STM32H750_ART_PI_RGBLCD" "lvgl/src/lv_core/../lv_draw/../lv_misc/lv_color.h"
	.file	5 "D:\\Keil_v5\\ARM\\ARMCLANG\\Bin\\..\\include" "stdint.h"
	.file	6 "E:\\STM32\\Learning\\STM32H750_ART_PI_RGBLCD" "./lvgl/src/lv_conf.h"
	.file	7 "E:\\STM32\\Learning\\STM32H750_ART_PI_RGBLCD" "lvgl/src/lv_core/../lv_misc/lv_anim.h"
	.section	.text.lv_disp_get_scr_act,"ax",%progbits
	.hidden	lv_disp_get_scr_act             @ -- Begin function lv_disp_get_scr_act
	.globl	lv_disp_get_scr_act
	.p2align	3
	.type	lv_disp_get_scr_act,%function
	.code	16                              @ @lv_disp_get_scr_act
	.thumb_func
lv_disp_get_scr_act:
.Lfunc_begin0:
	.file	8 "E:\\STM32\\Learning\\STM32H750_ART_PI_RGBLCD" "lvgl/src/lv_core/lv_disp.c"
	.loc	8 50 0                          @ lvgl/src/lv_core/lv_disp.c:50:0
	.fnstart
	.cfi_sections .debug_frame
	.cfi_startproc
@ %bb.0:
	.save	{r7, lr}
	push	{r7, lr}
	.cfi_def_cfa_offset 8
	.cfi_offset lr, -4
	.cfi_offset r7, -8
	.pad	#8
	sub	sp, #8
	.cfi_def_cfa_offset 16
	str	r0, [sp]
.Ltmp0:
	.loc	8 51 9 prologue_end             @ lvgl/src/lv_core/lv_disp.c:51:9
	ldr	r0, [sp]
.Ltmp1:
	.loc	8 51 8 is_stmt 0                @ lvgl/src/lv_core/lv_disp.c:51:8
	cbnz	r0, .LBB0_2
	b	.LBB0_1
.LBB0_1:
.Ltmp2:
	.loc	8 51 22                         @ lvgl/src/lv_core/lv_disp.c:51:22
	bl	lv_disp_get_default
	.loc	8 51 20                         @ lvgl/src/lv_core/lv_disp.c:51:20
	str	r0, [sp]
	.loc	8 51 15                         @ lvgl/src/lv_core/lv_disp.c:51:15
	b	.LBB0_2
.Ltmp3:
.LBB0_2:
	.loc	8 52 9 is_stmt 1                @ lvgl/src/lv_core/lv_disp.c:52:9
	ldr	r0, [sp]
.Ltmp4:
	.loc	8 52 8 is_stmt 0                @ lvgl/src/lv_core/lv_disp.c:52:8
	cbnz	r0, .LBB0_4
	b	.LBB0_3
.LBB0_3:
	.loc	8 0 8                           @ lvgl/src/lv_core/lv_disp.c:0:8
	movs	r0, #0
.Ltmp5:
	.loc	8 54 9 is_stmt 1                @ lvgl/src/lv_core/lv_disp.c:54:9
	str	r0, [sp, #4]
	b	.LBB0_5
.Ltmp6:
.LBB0_4:
	.loc	8 57 12                         @ lvgl/src/lv_core/lv_disp.c:57:12
	ldr	r0, [sp]
	.loc	8 57 18 is_stmt 0               @ lvgl/src/lv_core/lv_disp.c:57:18
	ldr	r0, [r0, #60]
	.loc	8 57 5                          @ lvgl/src/lv_core/lv_disp.c:57:5
	str	r0, [sp, #4]
	b	.LBB0_5
.LBB0_5:
	.loc	8 58 1 is_stmt 1                @ lvgl/src/lv_core/lv_disp.c:58:1
	ldr	r0, [sp, #4]
	add	sp, #8
	pop	{r7, pc}
.Ltmp7:
.Lfunc_end0:
	.size	lv_disp_get_scr_act, .Lfunc_end0-lv_disp_get_scr_act
	.cfi_endproc
	.cantunwind
	.fnend
                                        @ -- End function
	.section	.text.lv_disp_get_scr_prev,"ax",%progbits
	.hidden	lv_disp_get_scr_prev            @ -- Begin function lv_disp_get_scr_prev
	.globl	lv_disp_get_scr_prev
	.p2align	3
	.type	lv_disp_get_scr_prev,%function
	.code	16                              @ @lv_disp_get_scr_prev
	.thumb_func
lv_disp_get_scr_prev:
.Lfunc_begin1:
	.loc	8 67 0                          @ lvgl/src/lv_core/lv_disp.c:67:0
	.fnstart
	.cfi_startproc
@ %bb.0:
	.save	{r7, lr}
	push	{r7, lr}
	.cfi_def_cfa_offset 8
	.cfi_offset lr, -4
	.cfi_offset r7, -8
	.pad	#8
	sub	sp, #8
	.cfi_def_cfa_offset 16
	str	r0, [sp]
.Ltmp8:
	.loc	8 68 9 prologue_end             @ lvgl/src/lv_core/lv_disp.c:68:9
	ldr	r0, [sp]
.Ltmp9:
	.loc	8 68 8 is_stmt 0                @ lvgl/src/lv_core/lv_disp.c:68:8
	cbnz	r0, .LBB1_2
	b	.LBB1_1
.LBB1_1:
.Ltmp10:
	.loc	8 68 22                         @ lvgl/src/lv_core/lv_disp.c:68:22
	bl	lv_disp_get_default
	.loc	8 68 20                         @ lvgl/src/lv_core/lv_disp.c:68:20
	str	r0, [sp]
	.loc	8 68 15                         @ lvgl/src/lv_core/lv_disp.c:68:15
	b	.LBB1_2
.Ltmp11:
.LBB1_2:
	.loc	8 69 9 is_stmt 1                @ lvgl/src/lv_core/lv_disp.c:69:9
	ldr	r0, [sp]
.Ltmp12:
	.loc	8 69 8 is_stmt 0                @ lvgl/src/lv_core/lv_disp.c:69:8
	cbnz	r0, .LBB1_4
	b	.LBB1_3
.LBB1_3:
	.loc	8 0 8                           @ lvgl/src/lv_core/lv_disp.c:0:8
	movs	r0, #0
.Ltmp13:
	.loc	8 71 9 is_stmt 1                @ lvgl/src/lv_core/lv_disp.c:71:9
	str	r0, [sp, #4]
	b	.LBB1_5
.Ltmp14:
.LBB1_4:
	.loc	8 74 12                         @ lvgl/src/lv_core/lv_disp.c:74:12
	ldr	r0, [sp]
	.loc	8 74 18 is_stmt 0               @ lvgl/src/lv_core/lv_disp.c:74:18
	ldr	r0, [r0, #64]
	.loc	8 74 5                          @ lvgl/src/lv_core/lv_disp.c:74:5
	str	r0, [sp, #4]
	b	.LBB1_5
.LBB1_5:
	.loc	8 75 1 is_stmt 1                @ lvgl/src/lv_core/lv_disp.c:75:1
	ldr	r0, [sp, #4]
	add	sp, #8
	pop	{r7, pc}
.Ltmp15:
.Lfunc_end1:
	.size	lv_disp_get_scr_prev, .Lfunc_end1-lv_disp_get_scr_prev
	.cfi_endproc
	.cantunwind
	.fnend
                                        @ -- End function
	.section	.text.lv_disp_load_scr,"ax",%progbits
	.hidden	lv_disp_load_scr                @ -- Begin function lv_disp_load_scr
	.globl	lv_disp_load_scr
	.p2align	3
	.type	lv_disp_load_scr,%function
	.code	16                              @ @lv_disp_load_scr
	.thumb_func
lv_disp_load_scr:
.Lfunc_begin2:
	.loc	8 82 0                          @ lvgl/src/lv_core/lv_disp.c:82:0
	.fnstart
	.cfi_startproc
@ %bb.0:
	.save	{r7, lr}
	push	{r7, lr}
	.cfi_def_cfa_offset 8
	.cfi_offset lr, -4
	.cfi_offset r7, -8
	.pad	#8
	sub	sp, #8
	.cfi_def_cfa_offset 16
	str	r0, [sp, #4]
.Ltmp16:
	.loc	8 83 37 prologue_end            @ lvgl/src/lv_core/lv_disp.c:83:37
	ldr	r0, [sp, #4]
	.loc	8 83 21 is_stmt 0               @ lvgl/src/lv_core/lv_disp.c:83:21
	bl	lv_obj_get_disp
	.loc	8 83 17                         @ lvgl/src/lv_core/lv_disp.c:83:17
	str	r0, [sp]
.Ltmp17:
	.loc	8 84 9 is_stmt 1                @ lvgl/src/lv_core/lv_disp.c:84:9
	ldr	r0, [sp]
.Ltmp18:
	.loc	8 84 8 is_stmt 0                @ lvgl/src/lv_core/lv_disp.c:84:8
	cbnz	r0, .LBB2_2
	b	.LBB2_1
.LBB2_1:
.Ltmp19:
	.loc	8 84 12                         @ lvgl/src/lv_core/lv_disp.c:84:12
	b	.LBB2_3
.Ltmp20:
.LBB2_2:
	.loc	8 85 18 is_stmt 1               @ lvgl/src/lv_core/lv_disp.c:85:18
	ldr	r0, [sp, #4]
	.loc	8 85 5 is_stmt 0                @ lvgl/src/lv_core/lv_disp.c:85:5
	ldr	r1, [sp]
	.loc	8 85 16                         @ lvgl/src/lv_core/lv_disp.c:85:16
	str	r0, [r1, #60]
	.loc	8 87 23 is_stmt 1               @ lvgl/src/lv_core/lv_disp.c:87:23
	ldr	r0, [sp, #4]
	.loc	8 87 5 is_stmt 0                @ lvgl/src/lv_core/lv_disp.c:87:5
	bl	lv_obj_invalidate
	.loc	8 88 1 is_stmt 1                @ lvgl/src/lv_core/lv_disp.c:88:1
	b	.LBB2_3
.LBB2_3:
	add	sp, #8
	pop	{r7, pc}
.Ltmp21:
.Lfunc_end2:
	.size	lv_disp_load_scr, .Lfunc_end2-lv_disp_load_scr
	.cfi_endproc
	.cantunwind
	.fnend
                                        @ -- End function
	.section	.text.lv_disp_get_layer_top,"ax",%progbits
	.hidden	lv_disp_get_layer_top           @ -- Begin function lv_disp_get_layer_top
	.globl	lv_disp_get_layer_top
	.p2align	3
	.type	lv_disp_get_layer_top,%function
	.code	16                              @ @lv_disp_get_layer_top
	.thumb_func
lv_disp_get_layer_top:
.Lfunc_begin3:
	.loc	8 96 0                          @ lvgl/src/lv_core/lv_disp.c:96:0
	.fnstart
	.cfi_startproc
@ %bb.0:
	.save	{r7, lr}
	push	{r7, lr}
	.cfi_def_cfa_offset 8
	.cfi_offset lr, -4
	.cfi_offset r7, -8
	.pad	#8
	sub	sp, #8
	.cfi_def_cfa_offset 16
	str	r0, [sp]
.Ltmp22:
	.loc	8 97 9 prologue_end             @ lvgl/src/lv_core/lv_disp.c:97:9
	ldr	r0, [sp]
.Ltmp23:
	.loc	8 97 8 is_stmt 0                @ lvgl/src/lv_core/lv_disp.c:97:8
	cbnz	r0, .LBB3_2
	b	.LBB3_1
.LBB3_1:
.Ltmp24:
	.loc	8 97 22                         @ lvgl/src/lv_core/lv_disp.c:97:22
	bl	lv_disp_get_default
	.loc	8 97 20                         @ lvgl/src/lv_core/lv_disp.c:97:20
	str	r0, [sp]
	.loc	8 97 15                         @ lvgl/src/lv_core/lv_disp.c:97:15
	b	.LBB3_2
.Ltmp25:
.LBB3_2:
	.loc	8 98 9 is_stmt 1                @ lvgl/src/lv_core/lv_disp.c:98:9
	ldr	r0, [sp]
.Ltmp26:
	.loc	8 98 8 is_stmt 0                @ lvgl/src/lv_core/lv_disp.c:98:8
	cbnz	r0, .LBB3_4
	b	.LBB3_3
.LBB3_3:
	.loc	8 0 8                           @ lvgl/src/lv_core/lv_disp.c:0:8
	movs	r0, #0
.Ltmp27:
	.loc	8 100 9 is_stmt 1               @ lvgl/src/lv_core/lv_disp.c:100:9
	str	r0, [sp, #4]
	b	.LBB3_5
.Ltmp28:
.LBB3_4:
	.loc	8 103 12                        @ lvgl/src/lv_core/lv_disp.c:103:12
	ldr	r0, [sp]
	.loc	8 103 18 is_stmt 0              @ lvgl/src/lv_core/lv_disp.c:103:18
	ldr	r0, [r0, #72]
	.loc	8 103 5                         @ lvgl/src/lv_core/lv_disp.c:103:5
	str	r0, [sp, #4]
	b	.LBB3_5
.LBB3_5:
	.loc	8 104 1 is_stmt 1               @ lvgl/src/lv_core/lv_disp.c:104:1
	ldr	r0, [sp, #4]
	add	sp, #8
	pop	{r7, pc}
.Ltmp29:
.Lfunc_end3:
	.size	lv_disp_get_layer_top, .Lfunc_end3-lv_disp_get_layer_top
	.cfi_endproc
	.cantunwind
	.fnend
                                        @ -- End function
	.section	.text.lv_disp_get_layer_sys,"ax",%progbits
	.hidden	lv_disp_get_layer_sys           @ -- Begin function lv_disp_get_layer_sys
	.globl	lv_disp_get_layer_sys
	.p2align	3
	.type	lv_disp_get_layer_sys,%function
	.code	16                              @ @lv_disp_get_layer_sys
	.thumb_func
lv_disp_get_layer_sys:
.Lfunc_begin4:
	.loc	8 113 0                         @ lvgl/src/lv_core/lv_disp.c:113:0
	.fnstart
	.cfi_startproc
@ %bb.0:
	.save	{r7, lr}
	push	{r7, lr}
	.cfi_def_cfa_offset 8
	.cfi_offset lr, -4
	.cfi_offset r7, -8
	.pad	#8
	sub	sp, #8
	.cfi_def_cfa_offset 16
	str	r0, [sp]
.Ltmp30:
	.loc	8 114 9 prologue_end            @ lvgl/src/lv_core/lv_disp.c:114:9
	ldr	r0, [sp]
.Ltmp31:
	.loc	8 114 8 is_stmt 0               @ lvgl/src/lv_core/lv_disp.c:114:8
	cbnz	r0, .LBB4_2
	b	.LBB4_1
.LBB4_1:
.Ltmp32:
	.loc	8 114 22                        @ lvgl/src/lv_core/lv_disp.c:114:22
	bl	lv_disp_get_default
	.loc	8 114 20                        @ lvgl/src/lv_core/lv_disp.c:114:20
	str	r0, [sp]
	.loc	8 114 15                        @ lvgl/src/lv_core/lv_disp.c:114:15
	b	.LBB4_2
.Ltmp33:
.LBB4_2:
	.loc	8 115 9 is_stmt 1               @ lvgl/src/lv_core/lv_disp.c:115:9
	ldr	r0, [sp]
.Ltmp34:
	.loc	8 115 8 is_stmt 0               @ lvgl/src/lv_core/lv_disp.c:115:8
	cbnz	r0, .LBB4_4
	b	.LBB4_3
.LBB4_3:
	.loc	8 0 8                           @ lvgl/src/lv_core/lv_disp.c:0:8
	movs	r0, #0
.Ltmp35:
	.loc	8 117 9 is_stmt 1               @ lvgl/src/lv_core/lv_disp.c:117:9
	str	r0, [sp, #4]
	b	.LBB4_5
.Ltmp36:
.LBB4_4:
	.loc	8 120 12                        @ lvgl/src/lv_core/lv_disp.c:120:12
	ldr	r0, [sp]
	.loc	8 120 18 is_stmt 0              @ lvgl/src/lv_core/lv_disp.c:120:18
	ldr	r0, [r0, #76]
	.loc	8 120 5                         @ lvgl/src/lv_core/lv_disp.c:120:5
	str	r0, [sp, #4]
	b	.LBB4_5
.LBB4_5:
	.loc	8 121 1 is_stmt 1               @ lvgl/src/lv_core/lv_disp.c:121:1
	ldr	r0, [sp, #4]
	add	sp, #8
	pop	{r7, pc}
.Ltmp37:
.Lfunc_end4:
	.size	lv_disp_get_layer_sys, .Lfunc_end4-lv_disp_get_layer_sys
	.cfi_endproc
	.cantunwind
	.fnend
                                        @ -- End function
	.section	.text.lv_disp_assign_screen,"ax",%progbits
	.hidden	lv_disp_assign_screen           @ -- Begin function lv_disp_assign_screen
	.globl	lv_disp_assign_screen
	.p2align	3
	.type	lv_disp_assign_screen,%function
	.code	16                              @ @lv_disp_assign_screen
	.thumb_func
lv_disp_assign_screen:
.Lfunc_begin5:
	.loc	8 129 0                         @ lvgl/src/lv_core/lv_disp.c:129:0
	.fnstart
	.cfi_startproc
@ %bb.0:
	.save	{r7, lr}
	push	{r7, lr}
	.cfi_def_cfa_offset 8
	.cfi_offset lr, -4
	.cfi_offset r7, -8
	.pad	#16
	sub	sp, #16
	.cfi_def_cfa_offset 24
	str	r0, [sp, #12]
	str	r1, [sp, #8]
.Ltmp38:
	.loc	8 130 26 prologue_end           @ lvgl/src/lv_core/lv_disp.c:130:26
	ldr	r0, [sp, #8]
	.loc	8 130 8 is_stmt 0               @ lvgl/src/lv_core/lv_disp.c:130:8
	bl	lv_obj_get_parent
.Ltmp39:
	.loc	8 130 8                         @ lvgl/src/lv_core/lv_disp.c:130:8
	cbz	r0, .LBB5_2
	b	.LBB5_1
.LBB5_1:
.Ltmp40:
	.loc	8 132 9 is_stmt 1               @ lvgl/src/lv_core/lv_disp.c:132:9
	b	.LBB5_5
.Ltmp41:
.LBB5_2:
	.loc	8 135 44                        @ lvgl/src/lv_core/lv_disp.c:135:44
	ldr	r0, [sp, #8]
	.loc	8 135 28 is_stmt 0              @ lvgl/src/lv_core/lv_disp.c:135:28
	bl	lv_obj_get_disp
	.loc	8 135 17                        @ lvgl/src/lv_core/lv_disp.c:135:17
	str	r0, [sp, #4]
.Ltmp42:
	.loc	8 137 8 is_stmt 1               @ lvgl/src/lv_core/lv_disp.c:137:8
	ldr	r0, [sp, #4]
	.loc	8 137 20 is_stmt 0              @ lvgl/src/lv_core/lv_disp.c:137:20
	ldr	r1, [sp, #12]
.Ltmp43:
	.loc	8 137 8                         @ lvgl/src/lv_core/lv_disp.c:137:8
	cmp	r0, r1
	bne	.LBB5_4
	b	.LBB5_3
.LBB5_3:
.Ltmp44:
	.loc	8 137 26                        @ lvgl/src/lv_core/lv_disp.c:137:26
	b	.LBB5_5
.Ltmp45:
.LBB5_4:
	.loc	8 139 22 is_stmt 1              @ lvgl/src/lv_core/lv_disp.c:139:22
	ldr	r0, [sp, #4]
	.loc	8 139 32 is_stmt 0              @ lvgl/src/lv_core/lv_disp.c:139:32
	adds	r0, #48
	.loc	8 139 41                        @ lvgl/src/lv_core/lv_disp.c:139:41
	ldr	r1, [sp, #12]
	.loc	8 139 47                        @ lvgl/src/lv_core/lv_disp.c:139:47
	adds	r1, #48
	.loc	8 139 55                        @ lvgl/src/lv_core/lv_disp.c:139:55
	ldr	r2, [sp, #8]
	movs	r3, #1
	.loc	8 139 5                         @ lvgl/src/lv_core/lv_disp.c:139:5
	bl	_lv_ll_chg_list
	.loc	8 140 1 is_stmt 1               @ lvgl/src/lv_core/lv_disp.c:140:1
	b	.LBB5_5
.LBB5_5:
	add	sp, #16
	pop	{r7, pc}
.Ltmp46:
.Lfunc_end5:
	.size	lv_disp_assign_screen, .Lfunc_end5-lv_disp_assign_screen
	.cfi_endproc
	.cantunwind
	.fnend
                                        @ -- End function
	.section	.text.lv_disp_set_bg_color,"ax",%progbits
	.hidden	lv_disp_set_bg_color            @ -- Begin function lv_disp_set_bg_color
	.globl	lv_disp_set_bg_color
	.p2align	3
	.type	lv_disp_set_bg_color,%function
	.code	16                              @ @lv_disp_set_bg_color
	.thumb_func
lv_disp_set_bg_color:
.Lfunc_begin6:
	.loc	8 148 0                         @ lvgl/src/lv_core/lv_disp.c:148:0
	.fnstart
	.cfi_startproc
@ %bb.0:
	.save	{r7, lr}
	push	{r7, lr}
	.cfi_def_cfa_offset 8
	.cfi_offset lr, -4
	.cfi_offset r7, -8
	.pad	#32
	sub	sp, #32
	.cfi_def_cfa_offset 40
	str	r1, [sp, #28]
	str	r0, [sp, #24]
.Ltmp47:
	.loc	8 149 9 prologue_end            @ lvgl/src/lv_core/lv_disp.c:149:9
	ldr	r0, [sp, #24]
.Ltmp48:
	.loc	8 149 8 is_stmt 0               @ lvgl/src/lv_core/lv_disp.c:149:8
	cbnz	r0, .LBB6_2
	b	.LBB6_1
.LBB6_1:
.Ltmp49:
	.loc	8 149 22                        @ lvgl/src/lv_core/lv_disp.c:149:22
	bl	lv_disp_get_default
	.loc	8 149 20                        @ lvgl/src/lv_core/lv_disp.c:149:20
	str	r0, [sp, #24]
	.loc	8 149 15                        @ lvgl/src/lv_core/lv_disp.c:149:15
	b	.LBB6_2
.Ltmp50:
.LBB6_2:
	.loc	8 150 9 is_stmt 1               @ lvgl/src/lv_core/lv_disp.c:150:9
	ldr	r0, [sp, #24]
.Ltmp51:
	.loc	8 150 8 is_stmt 0               @ lvgl/src/lv_core/lv_disp.c:150:8
	cbnz	r0, .LBB6_4
	b	.LBB6_3
.LBB6_3:
.Ltmp52:
	.loc	8 152 9 is_stmt 1               @ lvgl/src/lv_core/lv_disp.c:152:9
	b	.LBB6_5
.Ltmp53:
.LBB6_4:
	.loc	8 155 5                         @ lvgl/src/lv_core/lv_disp.c:155:5
	ldr	r1, [sp, #24]
	.loc	8 155 22 is_stmt 0              @ lvgl/src/lv_core/lv_disp.c:155:22
	ldr	r0, [sp, #28]
	str	r0, [r1, #84]
	.loc	8 158 47 is_stmt 1              @ lvgl/src/lv_core/lv_disp.c:158:47
	ldr	r0, [sp, #24]
	.loc	8 158 27 is_stmt 0              @ lvgl/src/lv_core/lv_disp.c:158:27
	bl	lv_disp_get_hor_res
	.loc	8 158 53                        @ lvgl/src/lv_core/lv_disp.c:158:53
	subs	r0, #1
	.loc	8 158 78                        @ lvgl/src/lv_core/lv_disp.c:158:78
	str	r0, [sp, #8]                    @ 4-byte Spill
	ldr	r0, [sp, #24]
	.loc	8 158 58                        @ lvgl/src/lv_core/lv_disp.c:158:58
	bl	lv_disp_get_ver_res
	mov	r1, r0
	.loc	8 158 84                        @ lvgl/src/lv_core/lv_disp.c:158:84
	ldr	r0, [sp, #8]                    @ 4-byte Reload
	subs	r1, #1
	.loc	8 158 5                         @ lvgl/src/lv_core/lv_disp.c:158:5
	sxth	r1, r1
	mov	r2, sp
	str	r1, [r2]
	sxth	r3, r0
	add	r0, sp, #16
	str	r0, [sp, #12]                   @ 4-byte Spill
	movs	r2, #0
	mov	r1, r2
	bl	lv_area_set
	ldr	r1, [sp, #12]                   @ 4-byte Reload
	.loc	8 159 18 is_stmt 1              @ lvgl/src/lv_core/lv_disp.c:159:18
	ldr	r0, [sp, #24]
	.loc	8 159 5 is_stmt 0               @ lvgl/src/lv_core/lv_disp.c:159:5
	bl	_lv_inv_area
	.loc	8 161 1 is_stmt 1               @ lvgl/src/lv_core/lv_disp.c:161:1
	b	.LBB6_5
.LBB6_5:
	add	sp, #32
	pop	{r7, pc}
.Ltmp54:
.Lfunc_end6:
	.size	lv_disp_set_bg_color, .Lfunc_end6-lv_disp_set_bg_color
	.cfi_endproc
	.cantunwind
	.fnend
                                        @ -- End function
	.section	.text.lv_disp_set_bg_image,"ax",%progbits
	.hidden	lv_disp_set_bg_image            @ -- Begin function lv_disp_set_bg_image
	.globl	lv_disp_set_bg_image
	.p2align	3
	.type	lv_disp_set_bg_image,%function
	.code	16                              @ @lv_disp_set_bg_image
	.thumb_func
lv_disp_set_bg_image:
.Lfunc_begin7:
	.loc	8 169 0                         @ lvgl/src/lv_core/lv_disp.c:169:0
	.fnstart
	.cfi_startproc
@ %bb.0:
	.save	{r7, lr}
	push	{r7, lr}
	.cfi_def_cfa_offset 8
	.cfi_offset lr, -4
	.cfi_offset r7, -8
	.pad	#32
	sub	sp, #32
	.cfi_def_cfa_offset 40
	str	r0, [sp, #28]
	str	r1, [sp, #24]
.Ltmp55:
	.loc	8 170 9 prologue_end            @ lvgl/src/lv_core/lv_disp.c:170:9
	ldr	r0, [sp, #28]
.Ltmp56:
	.loc	8 170 8 is_stmt 0               @ lvgl/src/lv_core/lv_disp.c:170:8
	cbnz	r0, .LBB7_2
	b	.LBB7_1
.LBB7_1:
.Ltmp57:
	.loc	8 170 22                        @ lvgl/src/lv_core/lv_disp.c:170:22
	bl	lv_disp_get_default
	.loc	8 170 20                        @ lvgl/src/lv_core/lv_disp.c:170:20
	str	r0, [sp, #28]
	.loc	8 170 15                        @ lvgl/src/lv_core/lv_disp.c:170:15
	b	.LBB7_2
.Ltmp58:
.LBB7_2:
	.loc	8 171 9 is_stmt 1               @ lvgl/src/lv_core/lv_disp.c:171:9
	ldr	r0, [sp, #28]
.Ltmp59:
	.loc	8 171 8 is_stmt 0               @ lvgl/src/lv_core/lv_disp.c:171:8
	cbnz	r0, .LBB7_4
	b	.LBB7_3
.LBB7_3:
.Ltmp60:
	.loc	8 173 9 is_stmt 1               @ lvgl/src/lv_core/lv_disp.c:173:9
	b	.LBB7_5
.Ltmp61:
.LBB7_4:
	.loc	8 176 20                        @ lvgl/src/lv_core/lv_disp.c:176:20
	ldr	r0, [sp, #24]
	.loc	8 176 5 is_stmt 0               @ lvgl/src/lv_core/lv_disp.c:176:5
	ldr	r1, [sp, #28]
	.loc	8 176 18                        @ lvgl/src/lv_core/lv_disp.c:176:18
	str	r0, [r1, #88]
	.loc	8 179 47 is_stmt 1              @ lvgl/src/lv_core/lv_disp.c:179:47
	ldr	r0, [sp, #28]
	.loc	8 179 27 is_stmt 0              @ lvgl/src/lv_core/lv_disp.c:179:27
	bl	lv_disp_get_hor_res
	.loc	8 179 53                        @ lvgl/src/lv_core/lv_disp.c:179:53
	subs	r0, #1
	.loc	8 179 78                        @ lvgl/src/lv_core/lv_disp.c:179:78
	str	r0, [sp, #8]                    @ 4-byte Spill
	ldr	r0, [sp, #28]
	.loc	8 179 58                        @ lvgl/src/lv_core/lv_disp.c:179:58
	bl	lv_disp_get_ver_res
	mov	r1, r0
	.loc	8 179 84                        @ lvgl/src/lv_core/lv_disp.c:179:84
	ldr	r0, [sp, #8]                    @ 4-byte Reload
	subs	r1, #1
	.loc	8 179 5                         @ lvgl/src/lv_core/lv_disp.c:179:5
	sxth	r1, r1
	mov	r2, sp
	str	r1, [r2]
	sxth	r3, r0
	add	r0, sp, #16
	str	r0, [sp, #12]                   @ 4-byte Spill
	movs	r2, #0
	mov	r1, r2
	bl	lv_area_set
	ldr	r1, [sp, #12]                   @ 4-byte Reload
	.loc	8 180 18 is_stmt 1              @ lvgl/src/lv_core/lv_disp.c:180:18
	ldr	r0, [sp, #28]
	.loc	8 180 5 is_stmt 0               @ lvgl/src/lv_core/lv_disp.c:180:5
	bl	_lv_inv_area
	.loc	8 181 1 is_stmt 1               @ lvgl/src/lv_core/lv_disp.c:181:1
	b	.LBB7_5
.LBB7_5:
	add	sp, #32
	pop	{r7, pc}
.Ltmp62:
.Lfunc_end7:
	.size	lv_disp_set_bg_image, .Lfunc_end7-lv_disp_set_bg_image
	.cfi_endproc
	.cantunwind
	.fnend
                                        @ -- End function
	.section	.text.lv_disp_set_bg_opa,"ax",%progbits
	.hidden	lv_disp_set_bg_opa              @ -- Begin function lv_disp_set_bg_opa
	.globl	lv_disp_set_bg_opa
	.p2align	3
	.type	lv_disp_set_bg_opa,%function
	.code	16                              @ @lv_disp_set_bg_opa
	.thumb_func
lv_disp_set_bg_opa:
.Lfunc_begin8:
	.loc	8 189 0                         @ lvgl/src/lv_core/lv_disp.c:189:0
	.fnstart
	.cfi_startproc
@ %bb.0:
	.save	{r7, lr}
	push	{r7, lr}
	.cfi_def_cfa_offset 8
	.cfi_offset lr, -4
	.cfi_offset r7, -8
	.pad	#32
	sub	sp, #32
	.cfi_def_cfa_offset 40
                                        @ kill: def $r2 killed $r1
	str	r0, [sp, #28]
	strb.w	r1, [sp, #27]
.Ltmp63:
	.loc	8 190 9 prologue_end            @ lvgl/src/lv_core/lv_disp.c:190:9
	ldr	r0, [sp, #28]
.Ltmp64:
	.loc	8 190 8 is_stmt 0               @ lvgl/src/lv_core/lv_disp.c:190:8
	cbnz	r0, .LBB8_2
	b	.LBB8_1
.LBB8_1:
.Ltmp65:
	.loc	8 190 22                        @ lvgl/src/lv_core/lv_disp.c:190:22
	bl	lv_disp_get_default
	.loc	8 190 20                        @ lvgl/src/lv_core/lv_disp.c:190:20
	str	r0, [sp, #28]
	.loc	8 190 15                        @ lvgl/src/lv_core/lv_disp.c:190:15
	b	.LBB8_2
.Ltmp66:
.LBB8_2:
	.loc	8 191 9 is_stmt 1               @ lvgl/src/lv_core/lv_disp.c:191:9
	ldr	r0, [sp, #28]
.Ltmp67:
	.loc	8 191 8 is_stmt 0               @ lvgl/src/lv_core/lv_disp.c:191:8
	cbnz	r0, .LBB8_4
	b	.LBB8_3
.LBB8_3:
.Ltmp68:
	.loc	8 193 9 is_stmt 1               @ lvgl/src/lv_core/lv_disp.c:193:9
	b	.LBB8_5
.Ltmp69:
.LBB8_4:
	.loc	8 196 20                        @ lvgl/src/lv_core/lv_disp.c:196:20
	ldrb.w	r0, [sp, #27]
	.loc	8 196 5 is_stmt 0               @ lvgl/src/lv_core/lv_disp.c:196:5
	ldr	r1, [sp, #28]
	.loc	8 196 18                        @ lvgl/src/lv_core/lv_disp.c:196:18
	strb.w	r0, [r1, #92]
	.loc	8 199 47 is_stmt 1              @ lvgl/src/lv_core/lv_disp.c:199:47
	ldr	r0, [sp, #28]
	.loc	8 199 27 is_stmt 0              @ lvgl/src/lv_core/lv_disp.c:199:27
	bl	lv_disp_get_hor_res
	.loc	8 199 53                        @ lvgl/src/lv_core/lv_disp.c:199:53
	subs	r0, #1
	.loc	8 199 78                        @ lvgl/src/lv_core/lv_disp.c:199:78
	str	r0, [sp, #8]                    @ 4-byte Spill
	ldr	r0, [sp, #28]
	.loc	8 199 58                        @ lvgl/src/lv_core/lv_disp.c:199:58
	bl	lv_disp_get_ver_res
	mov	r1, r0
	.loc	8 199 84                        @ lvgl/src/lv_core/lv_disp.c:199:84
	ldr	r0, [sp, #8]                    @ 4-byte Reload
	subs	r1, #1
	.loc	8 199 5                         @ lvgl/src/lv_core/lv_disp.c:199:5
	sxth	r1, r1
	mov	r2, sp
	str	r1, [r2]
	sxth	r3, r0
	add	r0, sp, #16
	str	r0, [sp, #12]                   @ 4-byte Spill
	movs	r2, #0
	mov	r1, r2
	bl	lv_area_set
	ldr	r1, [sp, #12]                   @ 4-byte Reload
	.loc	8 200 18 is_stmt 1              @ lvgl/src/lv_core/lv_disp.c:200:18
	ldr	r0, [sp, #28]
	.loc	8 200 5 is_stmt 0               @ lvgl/src/lv_core/lv_disp.c:200:5
	bl	_lv_inv_area
	.loc	8 201 1 is_stmt 1               @ lvgl/src/lv_core/lv_disp.c:201:1
	b	.LBB8_5
.LBB8_5:
	add	sp, #32
	pop	{r7, pc}
.Ltmp70:
.Lfunc_end8:
	.size	lv_disp_set_bg_opa, .Lfunc_end8-lv_disp_set_bg_opa
	.cfi_endproc
	.cantunwind
	.fnend
                                        @ -- End function
	.section	.text.lv_scr_load_anim,"ax",%progbits
	.hidden	lv_scr_load_anim                @ -- Begin function lv_scr_load_anim
	.globl	lv_scr_load_anim
	.p2align	3
	.type	lv_scr_load_anim,%function
	.code	16                              @ @lv_scr_load_anim
	.thumb_func
lv_scr_load_anim:
.Lfunc_begin9:
	.loc	8 214 0                         @ lvgl/src/lv_core/lv_disp.c:214:0
	.fnstart
	.cfi_startproc
@ %bb.0:
	.save	{r7, lr}
	push	{r7, lr}
	.cfi_def_cfa_offset 8
	.cfi_offset lr, -4
	.cfi_offset r7, -8
	.pad	#272
	sub	sp, #272
	.cfi_def_cfa_offset 280
	mov	r12, r0
	ldr	r0, [sp, #280]
                                        @ kill: def $lr killed $r1
	str.w	r12, [sp, #268]
	strb.w	r1, [sp, #267]
	str	r2, [sp, #260]
	str	r3, [sp, #256]
	strb.w	r0, [sp, #255]
.Ltmp71:
	.loc	8 215 37 prologue_end           @ lvgl/src/lv_core/lv_disp.c:215:37
	ldr	r0, [sp, #268]
	.loc	8 215 21 is_stmt 0              @ lvgl/src/lv_core/lv_disp.c:215:21
	bl	lv_obj_get_disp
	.loc	8 215 17                        @ lvgl/src/lv_core/lv_disp.c:215:17
	str	r0, [sp, #248]
	.loc	8 216 26 is_stmt 1              @ lvgl/src/lv_core/lv_disp.c:216:26
	bl	lv_scr_act
	.loc	8 216 16 is_stmt 0              @ lvgl/src/lv_core/lv_disp.c:216:16
	str	r0, [sp, #244]
.Ltmp72:
	.loc	8 218 8 is_stmt 1               @ lvgl/src/lv_core/lv_disp.c:218:8
	ldr	r0, [sp, #248]
	.loc	8 218 11 is_stmt 0              @ lvgl/src/lv_core/lv_disp.c:218:11
	ldrb.w	r0, [r0, #80]
	.loc	8 218 20                        @ lvgl/src/lv_core/lv_disp.c:218:20
	lsls	r0, r0, #31
	cbz	r0, .LBB9_4
	b	.LBB9_1
.LBB9_1:
	.loc	8 218 23                        @ lvgl/src/lv_core/lv_disp.c:218:23
	ldr	r0, [sp, #244]
	.loc	8 218 34                        @ lvgl/src/lv_core/lv_disp.c:218:34
	ldr	r1, [sp, #248]
	.loc	8 218 37                        @ lvgl/src/lv_core/lv_disp.c:218:37
	ldr	r1, [r1, #68]
	.loc	8 218 49                        @ lvgl/src/lv_core/lv_disp.c:218:49
	cmp	r0, r1
	beq	.LBB9_4
	b	.LBB9_2
.LBB9_2:
	.loc	8 218 52                        @ lvgl/src/lv_core/lv_disp.c:218:52
	ldr	r0, [sp, #248]
	.loc	8 218 55                        @ lvgl/src/lv_core/lv_disp.c:218:55
	ldr	r0, [r0, #68]
.Ltmp73:
	.loc	8 218 8                         @ lvgl/src/lv_core/lv_disp.c:218:8
	cbz	r0, .LBB9_4
	b	.LBB9_3
.LBB9_3:
.Ltmp74:
	.loc	8 219 20 is_stmt 1              @ lvgl/src/lv_core/lv_disp.c:219:20
	ldr	r0, [sp, #244]
	.loc	8 219 9 is_stmt 0               @ lvgl/src/lv_core/lv_disp.c:219:9
	bl	lv_obj_del
	.loc	8 220 26 is_stmt 1              @ lvgl/src/lv_core/lv_disp.c:220:26
	ldr	r0, [sp, #248]
	.loc	8 220 29 is_stmt 0              @ lvgl/src/lv_core/lv_disp.c:220:29
	ldr	r0, [r0, #68]
	.loc	8 220 9                         @ lvgl/src/lv_core/lv_disp.c:220:9
	bl	lv_disp_load_scr
	.loc	8 221 21 is_stmt 1              @ lvgl/src/lv_core/lv_disp.c:221:21
	ldr	r0, [sp, #248]
	.loc	8 221 24 is_stmt 0              @ lvgl/src/lv_core/lv_disp.c:221:24
	ldr	r0, [r0, #68]
	movs	r1, #0
	.loc	8 221 9                         @ lvgl/src/lv_core/lv_disp.c:221:9
	str	r1, [sp, #112]                  @ 4-byte Spill
	bl	lv_anim_del
	ldr	r2, [sp, #112]                  @ 4-byte Reload
	.loc	8 222 24 is_stmt 1              @ lvgl/src/lv_core/lv_disp.c:222:24
	ldr	r0, [sp, #248]
	.loc	8 222 27 is_stmt 0              @ lvgl/src/lv_core/lv_disp.c:222:27
	ldr	r0, [r0, #68]
	.loc	8 222 9                         @ lvgl/src/lv_core/lv_disp.c:222:9
	mov	r1, r2
	bl	lv_obj_set_pos
	ldr	r1, [sp, #112]                  @ 4-byte Reload
	.loc	8 223 53 is_stmt 1              @ lvgl/src/lv_core/lv_disp.c:223:53
	ldr	r0, [sp, #248]
	.loc	8 223 56 is_stmt 0              @ lvgl/src/lv_core/lv_disp.c:223:56
	ldr	r0, [r0, #68]
	.loc	8 223 30                        @ lvgl/src/lv_core/lv_disp.c:223:30
	bl	lv_obj_get_local_style
	movw	r1, #32780
	.loc	8 223 9                         @ lvgl/src/lv_core/lv_disp.c:223:9
	bl	lv_style_remove_prop
	.loc	8 225 19 is_stmt 1              @ lvgl/src/lv_core/lv_disp.c:225:19
	ldr	r0, [sp, #248]
	.loc	8 225 22 is_stmt 0              @ lvgl/src/lv_core/lv_disp.c:225:22
	ldr	r0, [r0, #68]
	.loc	8 225 17                        @ lvgl/src/lv_core/lv_disp.c:225:17
	str	r0, [sp, #244]
	.loc	8 226 5 is_stmt 1               @ lvgl/src/lv_core/lv_disp.c:226:5
	b	.LBB9_4
.Ltmp75:
.LBB9_4:
	.loc	8 228 22                        @ lvgl/src/lv_core/lv_disp.c:228:22
	ldr	r0, [sp, #268]
	.loc	8 228 5 is_stmt 0               @ lvgl/src/lv_core/lv_disp.c:228:5
	ldr	r1, [sp, #248]
	.loc	8 228 20                        @ lvgl/src/lv_core/lv_disp.c:228:20
	str	r0, [r1, #68]
.Ltmp76:
	.loc	8 230 8 is_stmt 1               @ lvgl/src/lv_core/lv_disp.c:230:8
	ldr	r0, [sp, #248]
	.loc	8 230 11 is_stmt 0              @ lvgl/src/lv_core/lv_disp.c:230:11
	ldr	r0, [r0, #64]
	.loc	8 230 20                        @ lvgl/src/lv_core/lv_disp.c:230:20
	cbz	r0, .LBB9_7
	b	.LBB9_5
.LBB9_5:
	.loc	8 230 23                        @ lvgl/src/lv_core/lv_disp.c:230:23
	ldr	r0, [sp, #248]
	.loc	8 230 26                        @ lvgl/src/lv_core/lv_disp.c:230:26
	ldrb.w	r0, [r0, #80]
.Ltmp77:
	.loc	8 230 8                         @ lvgl/src/lv_core/lv_disp.c:230:8
	lsls	r0, r0, #31
	cbz	r0, .LBB9_7
	b	.LBB9_6
.LBB9_6:
.Ltmp78:
	.loc	8 231 20 is_stmt 1              @ lvgl/src/lv_core/lv_disp.c:231:20
	ldr	r0, [sp, #248]
	.loc	8 231 23 is_stmt 0              @ lvgl/src/lv_core/lv_disp.c:231:23
	ldr	r0, [r0, #64]
	.loc	8 231 9                         @ lvgl/src/lv_core/lv_disp.c:231:9
	bl	lv_obj_del
	.loc	8 232 9 is_stmt 1               @ lvgl/src/lv_core/lv_disp.c:232:9
	ldr	r1, [sp, #248]
	movs	r0, #0
	.loc	8 232 21 is_stmt 0              @ lvgl/src/lv_core/lv_disp.c:232:21
	str	r0, [r1, #64]
	.loc	8 233 5 is_stmt 1               @ lvgl/src/lv_core/lv_disp.c:233:5
	b	.LBB9_7
.Ltmp79:
.LBB9_7:
	.loc	8 235 19                        @ lvgl/src/lv_core/lv_disp.c:235:19
	ldrb.w	r0, [sp, #255]
	and	r2, r0, #1
	.loc	8 235 5 is_stmt 0               @ lvgl/src/lv_core/lv_disp.c:235:5
	ldr	r1, [sp, #248]
	.loc	8 235 17                        @ lvgl/src/lv_core/lv_disp.c:235:17
	ldrb.w	r0, [r1, #80]
	and	r0, r0, #254
	add	r0, r2
	strb.w	r0, [r1, #80]
	.loc	8 238 17 is_stmt 1              @ lvgl/src/lv_core/lv_disp.c:238:17
	ldr	r0, [sp, #268]
	movs	r1, #0
	.loc	8 238 5 is_stmt 0               @ lvgl/src/lv_core/lv_disp.c:238:5
	str	r1, [sp, #92]                   @ 4-byte Spill
	bl	lv_anim_del
	.loc	8 239 17 is_stmt 1              @ lvgl/src/lv_core/lv_disp.c:239:17
	bl	lv_scr_act
	ldr	r1, [sp, #92]                   @ 4-byte Reload
	.loc	8 239 5 is_stmt 0               @ lvgl/src/lv_core/lv_disp.c:239:5
	bl	lv_anim_del
	ldr	r2, [sp, #92]                   @ 4-byte Reload
	.loc	8 242 20 is_stmt 1              @ lvgl/src/lv_core/lv_disp.c:242:20
	ldr	r0, [sp, #268]
	.loc	8 242 5 is_stmt 0               @ lvgl/src/lv_core/lv_disp.c:242:5
	mov	r1, r2
	bl	lv_obj_set_pos
	.loc	8 243 20 is_stmt 1              @ lvgl/src/lv_core/lv_disp.c:243:20
	bl	lv_scr_act
	ldr	r2, [sp, #92]                   @ 4-byte Reload
	.loc	8 243 5 is_stmt 0               @ lvgl/src/lv_core/lv_disp.c:243:5
	mov	r1, r2
	bl	lv_obj_set_pos
	ldr	r1, [sp, #92]                   @ 4-byte Reload
	.loc	8 244 49 is_stmt 1              @ lvgl/src/lv_core/lv_disp.c:244:49
	ldr	r0, [sp, #268]
	.loc	8 244 26 is_stmt 0              @ lvgl/src/lv_core/lv_disp.c:244:26
	bl	lv_obj_get_local_style
	movw	r1, #32780
	.loc	8 244 5                         @ lvgl/src/lv_core/lv_disp.c:244:5
	str	r1, [sp, #96]                   @ 4-byte Spill
	bl	lv_style_remove_prop
	.loc	8 245 49 is_stmt 1              @ lvgl/src/lv_core/lv_disp.c:245:49
	bl	lv_scr_act
	ldr	r1, [sp, #92]                   @ 4-byte Reload
	.loc	8 245 26 is_stmt 0              @ lvgl/src/lv_core/lv_disp.c:245:26
	bl	lv_obj_get_local_style
	ldr	r1, [sp, #96]                   @ 4-byte Reload
	.loc	8 245 5                         @ lvgl/src/lv_core/lv_disp.c:245:5
	bl	lv_style_remove_prop
	add	r0, sp, #180
	.loc	8 248 5 is_stmt 1               @ lvgl/src/lv_core/lv_disp.c:248:5
	str	r0, [sp, #100]                  @ 4-byte Spill
	bl	lv_anim_init
	ldr	r0, [sp, #100]                  @ 4-byte Reload
	.loc	8 249 29                        @ lvgl/src/lv_core/lv_disp.c:249:29
	ldr	r1, [sp, #268]
	.loc	8 249 5 is_stmt 0               @ lvgl/src/lv_core/lv_disp.c:249:5
	bl	lv_anim_set_var
	ldr	r0, [sp, #100]                  @ 4-byte Reload
	.loc	8 250 5 is_stmt 1               @ lvgl/src/lv_core/lv_disp.c:250:5
	movw	r1, :lower16:scr_load_anim_start
	movt	r1, :upper16:scr_load_anim_start
	bl	lv_anim_set_start_cb
	ldr	r0, [sp, #100]                  @ 4-byte Reload
	.loc	8 251 5                         @ lvgl/src/lv_core/lv_disp.c:251:5
	movw	r1, :lower16:scr_anim_ready
	movt	r1, :upper16:scr_anim_ready
	bl	lv_anim_set_ready_cb
	ldr	r0, [sp, #100]                  @ 4-byte Reload
	.loc	8 252 30                        @ lvgl/src/lv_core/lv_disp.c:252:30
	ldr	r1, [sp, #260]
	.loc	8 252 5 is_stmt 0               @ lvgl/src/lv_core/lv_disp.c:252:5
	bl	lv_anim_set_time
	ldr	r0, [sp, #100]                  @ 4-byte Reload
	.loc	8 253 31 is_stmt 1              @ lvgl/src/lv_core/lv_disp.c:253:31
	ldr	r1, [sp, #256]
	.loc	8 253 5 is_stmt 0               @ lvgl/src/lv_core/lv_disp.c:253:5
	bl	lv_anim_set_delay
	add	r0, sp, #116
	.loc	8 256 5 is_stmt 1               @ lvgl/src/lv_core/lv_disp.c:256:5
	str	r0, [sp, #104]                  @ 4-byte Spill
	bl	lv_anim_init
	ldr	r0, [sp, #104]                  @ 4-byte Reload
	.loc	8 257 29                        @ lvgl/src/lv_core/lv_disp.c:257:29
	ldr	r1, [sp, #248]
	.loc	8 257 32 is_stmt 0              @ lvgl/src/lv_core/lv_disp.c:257:32
	ldr	r1, [r1, #60]
	.loc	8 257 5                         @ lvgl/src/lv_core/lv_disp.c:257:5
	bl	lv_anim_set_var
	ldr	r0, [sp, #104]                  @ 4-byte Reload
	.loc	8 258 30 is_stmt 1              @ lvgl/src/lv_core/lv_disp.c:258:30
	ldr	r1, [sp, #260]
	.loc	8 258 5 is_stmt 0               @ lvgl/src/lv_core/lv_disp.c:258:5
	bl	lv_anim_set_time
	ldr	r0, [sp, #104]                  @ 4-byte Reload
	.loc	8 259 31 is_stmt 1              @ lvgl/src/lv_core/lv_disp.c:259:31
	ldr	r1, [sp, #256]
	.loc	8 259 5 is_stmt 0               @ lvgl/src/lv_core/lv_disp.c:259:5
	bl	lv_anim_set_delay
	.loc	8 261 12 is_stmt 1              @ lvgl/src/lv_core/lv_disp.c:261:12
	ldrb.w	r0, [sp, #267]
	.loc	8 261 5 is_stmt 0               @ lvgl/src/lv_core/lv_disp.c:261:5
	mov	r1, r0
	str	r1, [sp, #108]                  @ 4-byte Spill
	cmp	r0, #9
	bhi.w	.LBB9_20
@ %bb.8:
	.loc	8 0 5                           @ lvgl/src/lv_core/lv_disp.c:0:5
	ldr	r1, [sp, #108]                  @ 4-byte Reload
.LCPI9_0:
	tbb	[pc, r1]
@ %bb.9:
.LJTI9_0:
	.byte	(.LBB9_10-(.LCPI9_0+4))/2
	.byte	(.LBB9_11-(.LCPI9_0+4))/2
	.byte	(.LBB9_12-(.LCPI9_0+4))/2
	.byte	(.LBB9_13-(.LCPI9_0+4))/2
	.byte	(.LBB9_14-(.LCPI9_0+4))/2
	.byte	(.LBB9_15-(.LCPI9_0+4))/2
	.byte	(.LBB9_16-(.LCPI9_0+4))/2
	.byte	(.LBB9_17-(.LCPI9_0+4))/2
	.byte	(.LBB9_18-(.LCPI9_0+4))/2
	.byte	(.LBB9_19-(.LCPI9_0+4))/2
	.p2align	1
.LBB9_10:
.Ltmp80:
	.loc	8 264 13 is_stmt 1              @ lvgl/src/lv_core/lv_disp.c:264:13
	movw	r1, :lower16:lv_obj_set_x
	movt	r1, :upper16:lv_obj_set_x
	add	r0, sp, #180
	str	r0, [sp, #88]                   @ 4-byte Spill
	bl	lv_anim_set_exec_cb
	ldr	r0, [sp, #88]                   @ 4-byte Reload
	movs	r2, #0
	.loc	8 265 13                        @ lvgl/src/lv_core/lv_disp.c:265:13
	mov	r1, r2
	bl	lv_anim_set_values
	.loc	8 266 13                        @ lvgl/src/lv_core/lv_disp.c:266:13
	b	.LBB9_20
.LBB9_11:
	.loc	8 268 13                        @ lvgl/src/lv_core/lv_disp.c:268:13
	movw	r1, :lower16:lv_obj_set_x
	movt	r1, :upper16:lv_obj_set_x
	add	r0, sp, #180
	str	r0, [sp, #84]                   @ 4-byte Spill
	bl	lv_anim_set_exec_cb
	.loc	8 269 60                        @ lvgl/src/lv_core/lv_disp.c:269:60
	ldr	r0, [sp, #248]
	.loc	8 269 40 is_stmt 0              @ lvgl/src/lv_core/lv_disp.c:269:40
	bl	lv_disp_get_hor_res
	mov	r1, r0
	.loc	8 269 13                        @ lvgl/src/lv_core/lv_disp.c:269:13
	ldr	r0, [sp, #84]                   @ 4-byte Reload
	movs	r2, #0
	bl	lv_anim_set_values
	.loc	8 270 13 is_stmt 1              @ lvgl/src/lv_core/lv_disp.c:270:13
	b	.LBB9_20
.LBB9_12:
	.loc	8 272 13                        @ lvgl/src/lv_core/lv_disp.c:272:13
	movw	r1, :lower16:lv_obj_set_x
	movt	r1, :upper16:lv_obj_set_x
	add	r0, sp, #180
	str	r0, [sp, #80]                   @ 4-byte Spill
	bl	lv_anim_set_exec_cb
	.loc	8 273 61                        @ lvgl/src/lv_core/lv_disp.c:273:61
	ldr	r0, [sp, #248]
	.loc	8 273 41 is_stmt 0              @ lvgl/src/lv_core/lv_disp.c:273:41
	bl	lv_disp_get_hor_res
	mov	r1, r0
	.loc	8 273 40                        @ lvgl/src/lv_core/lv_disp.c:273:40
	ldr	r0, [sp, #80]                   @ 4-byte Reload
	rsbs	r1, r1, #0
	.loc	8 273 13                        @ lvgl/src/lv_core/lv_disp.c:273:13
	sxth	r1, r1
	movs	r2, #0
	bl	lv_anim_set_values
	.loc	8 274 13 is_stmt 1              @ lvgl/src/lv_core/lv_disp.c:274:13
	b	.LBB9_20
.LBB9_13:
	.loc	8 276 13                        @ lvgl/src/lv_core/lv_disp.c:276:13
	movw	r1, :lower16:lv_obj_set_y
	movt	r1, :upper16:lv_obj_set_y
	add	r0, sp, #180
	str	r0, [sp, #76]                   @ 4-byte Spill
	bl	lv_anim_set_exec_cb
	.loc	8 277 60                        @ lvgl/src/lv_core/lv_disp.c:277:60
	ldr	r0, [sp, #248]
	.loc	8 277 40 is_stmt 0              @ lvgl/src/lv_core/lv_disp.c:277:40
	bl	lv_disp_get_ver_res
	mov	r1, r0
	.loc	8 277 13                        @ lvgl/src/lv_core/lv_disp.c:277:13
	ldr	r0, [sp, #76]                   @ 4-byte Reload
	movs	r2, #0
	bl	lv_anim_set_values
	.loc	8 278 13 is_stmt 1              @ lvgl/src/lv_core/lv_disp.c:278:13
	b	.LBB9_20
.LBB9_14:
	.loc	8 280 13                        @ lvgl/src/lv_core/lv_disp.c:280:13
	movw	r1, :lower16:lv_obj_set_y
	movt	r1, :upper16:lv_obj_set_y
	add	r0, sp, #180
	str	r0, [sp, #72]                   @ 4-byte Spill
	bl	lv_anim_set_exec_cb
	.loc	8 281 61                        @ lvgl/src/lv_core/lv_disp.c:281:61
	ldr	r0, [sp, #248]
	.loc	8 281 41 is_stmt 0              @ lvgl/src/lv_core/lv_disp.c:281:41
	bl	lv_disp_get_ver_res
	mov	r1, r0
	.loc	8 281 40                        @ lvgl/src/lv_core/lv_disp.c:281:40
	ldr	r0, [sp, #72]                   @ 4-byte Reload
	rsbs	r1, r1, #0
	.loc	8 281 13                        @ lvgl/src/lv_core/lv_disp.c:281:13
	sxth	r1, r1
	movs	r2, #0
	bl	lv_anim_set_values
	.loc	8 282 13 is_stmt 1              @ lvgl/src/lv_core/lv_disp.c:282:13
	b	.LBB9_20
.LBB9_15:
	.loc	8 284 13                        @ lvgl/src/lv_core/lv_disp.c:284:13
	movw	r1, :lower16:lv_obj_set_x
	movt	r1, :upper16:lv_obj_set_x
	str	r1, [sp, #60]                   @ 4-byte Spill
	add	r0, sp, #180
	str	r0, [sp, #56]                   @ 4-byte Spill
	bl	lv_anim_set_exec_cb
	.loc	8 285 60                        @ lvgl/src/lv_core/lv_disp.c:285:60
	ldr	r0, [sp, #248]
	.loc	8 285 40 is_stmt 0              @ lvgl/src/lv_core/lv_disp.c:285:40
	bl	lv_disp_get_hor_res
	mov	r1, r0
	.loc	8 285 13                        @ lvgl/src/lv_core/lv_disp.c:285:13
	ldr	r0, [sp, #56]                   @ 4-byte Reload
	movs	r2, #0
	str	r2, [sp, #64]                   @ 4-byte Spill
	bl	lv_anim_set_values
	ldr	r1, [sp, #60]                   @ 4-byte Reload
	add	r0, sp, #116
	.loc	8 287 13 is_stmt 1              @ lvgl/src/lv_core/lv_disp.c:287:13
	str	r0, [sp, #68]                   @ 4-byte Spill
	bl	lv_anim_set_exec_cb
	.loc	8 288 64                        @ lvgl/src/lv_core/lv_disp.c:288:64
	ldr	r0, [sp, #248]
	.loc	8 288 44 is_stmt 0              @ lvgl/src/lv_core/lv_disp.c:288:44
	bl	lv_disp_get_hor_res
	ldr	r1, [sp, #64]                   @ 4-byte Reload
	mov	r2, r0
	.loc	8 288 43                        @ lvgl/src/lv_core/lv_disp.c:288:43
	ldr	r0, [sp, #68]                   @ 4-byte Reload
	rsbs	r2, r2, #0
	.loc	8 288 13                        @ lvgl/src/lv_core/lv_disp.c:288:13
	sxth	r2, r2
	bl	lv_anim_set_values
	.loc	8 289 13 is_stmt 1              @ lvgl/src/lv_core/lv_disp.c:289:13
	b	.LBB9_20
.LBB9_16:
	.loc	8 291 13                        @ lvgl/src/lv_core/lv_disp.c:291:13
	movw	r1, :lower16:lv_obj_set_x
	movt	r1, :upper16:lv_obj_set_x
	str	r1, [sp, #44]                   @ 4-byte Spill
	add	r0, sp, #180
	str	r0, [sp, #40]                   @ 4-byte Spill
	bl	lv_anim_set_exec_cb
	.loc	8 292 61                        @ lvgl/src/lv_core/lv_disp.c:292:61
	ldr	r0, [sp, #248]
	.loc	8 292 41 is_stmt 0              @ lvgl/src/lv_core/lv_disp.c:292:41
	bl	lv_disp_get_hor_res
	mov	r1, r0
	.loc	8 292 40                        @ lvgl/src/lv_core/lv_disp.c:292:40
	ldr	r0, [sp, #40]                   @ 4-byte Reload
	rsbs	r1, r1, #0
	.loc	8 292 13                        @ lvgl/src/lv_core/lv_disp.c:292:13
	sxth	r1, r1
	movs	r2, #0
	str	r2, [sp, #48]                   @ 4-byte Spill
	bl	lv_anim_set_values
	ldr	r1, [sp, #44]                   @ 4-byte Reload
	add	r0, sp, #116
	.loc	8 294 13 is_stmt 1              @ lvgl/src/lv_core/lv_disp.c:294:13
	str	r0, [sp, #52]                   @ 4-byte Spill
	bl	lv_anim_set_exec_cb
	.loc	8 295 63                        @ lvgl/src/lv_core/lv_disp.c:295:63
	ldr	r0, [sp, #248]
	.loc	8 295 43 is_stmt 0              @ lvgl/src/lv_core/lv_disp.c:295:43
	bl	lv_disp_get_hor_res
	ldr	r1, [sp, #48]                   @ 4-byte Reload
	mov	r2, r0
	.loc	8 295 13                        @ lvgl/src/lv_core/lv_disp.c:295:13
	ldr	r0, [sp, #52]                   @ 4-byte Reload
	bl	lv_anim_set_values
	.loc	8 296 13 is_stmt 1              @ lvgl/src/lv_core/lv_disp.c:296:13
	b	.LBB9_20
.LBB9_17:
	.loc	8 298 13                        @ lvgl/src/lv_core/lv_disp.c:298:13
	movw	r1, :lower16:lv_obj_set_y
	movt	r1, :upper16:lv_obj_set_y
	str	r1, [sp, #28]                   @ 4-byte Spill
	add	r0, sp, #180
	str	r0, [sp, #24]                   @ 4-byte Spill
	bl	lv_anim_set_exec_cb
	.loc	8 299 60                        @ lvgl/src/lv_core/lv_disp.c:299:60
	ldr	r0, [sp, #248]
	.loc	8 299 40 is_stmt 0              @ lvgl/src/lv_core/lv_disp.c:299:40
	bl	lv_disp_get_ver_res
	mov	r1, r0
	.loc	8 299 13                        @ lvgl/src/lv_core/lv_disp.c:299:13
	ldr	r0, [sp, #24]                   @ 4-byte Reload
	movs	r2, #0
	str	r2, [sp, #32]                   @ 4-byte Spill
	bl	lv_anim_set_values
	ldr	r1, [sp, #28]                   @ 4-byte Reload
	add	r0, sp, #116
	.loc	8 301 13 is_stmt 1              @ lvgl/src/lv_core/lv_disp.c:301:13
	str	r0, [sp, #36]                   @ 4-byte Spill
	bl	lv_anim_set_exec_cb
	.loc	8 302 64                        @ lvgl/src/lv_core/lv_disp.c:302:64
	ldr	r0, [sp, #248]
	.loc	8 302 44 is_stmt 0              @ lvgl/src/lv_core/lv_disp.c:302:44
	bl	lv_disp_get_ver_res
	ldr	r1, [sp, #32]                   @ 4-byte Reload
	mov	r2, r0
	.loc	8 302 43                        @ lvgl/src/lv_core/lv_disp.c:302:43
	ldr	r0, [sp, #36]                   @ 4-byte Reload
	rsbs	r2, r2, #0
	.loc	8 302 13                        @ lvgl/src/lv_core/lv_disp.c:302:13
	sxth	r2, r2
	bl	lv_anim_set_values
	.loc	8 303 13 is_stmt 1              @ lvgl/src/lv_core/lv_disp.c:303:13
	b	.LBB9_20
.LBB9_18:
	.loc	8 305 13                        @ lvgl/src/lv_core/lv_disp.c:305:13
	movw	r1, :lower16:lv_obj_set_y
	movt	r1, :upper16:lv_obj_set_y
	str	r1, [sp, #12]                   @ 4-byte Spill
	add	r0, sp, #180
	str	r0, [sp, #8]                    @ 4-byte Spill
	bl	lv_anim_set_exec_cb
	.loc	8 306 61                        @ lvgl/src/lv_core/lv_disp.c:306:61
	ldr	r0, [sp, #248]
	.loc	8 306 41 is_stmt 0              @ lvgl/src/lv_core/lv_disp.c:306:41
	bl	lv_disp_get_ver_res
	mov	r1, r0
	.loc	8 306 40                        @ lvgl/src/lv_core/lv_disp.c:306:40
	ldr	r0, [sp, #8]                    @ 4-byte Reload
	rsbs	r1, r1, #0
	.loc	8 306 13                        @ lvgl/src/lv_core/lv_disp.c:306:13
	sxth	r1, r1
	movs	r2, #0
	str	r2, [sp, #16]                   @ 4-byte Spill
	bl	lv_anim_set_values
	ldr	r1, [sp, #12]                   @ 4-byte Reload
	add	r0, sp, #116
	.loc	8 308 13 is_stmt 1              @ lvgl/src/lv_core/lv_disp.c:308:13
	str	r0, [sp, #20]                   @ 4-byte Spill
	bl	lv_anim_set_exec_cb
	.loc	8 309 63                        @ lvgl/src/lv_core/lv_disp.c:309:63
	ldr	r0, [sp, #248]
	.loc	8 309 43 is_stmt 0              @ lvgl/src/lv_core/lv_disp.c:309:43
	bl	lv_disp_get_ver_res
	ldr	r1, [sp, #16]                   @ 4-byte Reload
	mov	r2, r0
	.loc	8 309 13                        @ lvgl/src/lv_core/lv_disp.c:309:13
	ldr	r0, [sp, #20]                   @ 4-byte Reload
	bl	lv_anim_set_values
	.loc	8 310 13 is_stmt 1              @ lvgl/src/lv_core/lv_disp.c:310:13
	b	.LBB9_20
.LBB9_19:
	.loc	8 313 13                        @ lvgl/src/lv_core/lv_disp.c:313:13
	movw	r1, :lower16:opa_scale_anim
	movt	r1, :upper16:opa_scale_anim
	add	r0, sp, #180
	str	r0, [sp, #4]                    @ 4-byte Spill
	bl	lv_anim_set_exec_cb
	ldr	r0, [sp, #4]                    @ 4-byte Reload
	movs	r1, #0
	movs	r2, #255
	.loc	8 314 13                        @ lvgl/src/lv_core/lv_disp.c:314:13
	bl	lv_anim_set_values
	.loc	8 315 13                        @ lvgl/src/lv_core/lv_disp.c:315:13
	b	.LBB9_20
.Ltmp81:
.LBB9_20:
	.loc	8 0 13 is_stmt 0                @ lvgl/src/lv_core/lv_disp.c:0:13
	add	r0, sp, #180
	.loc	8 318 5 is_stmt 1               @ lvgl/src/lv_core/lv_disp.c:318:5
	bl	lv_anim_start
	add	r0, sp, #116
	.loc	8 319 5                         @ lvgl/src/lv_core/lv_disp.c:319:5
	bl	lv_anim_start
	.loc	8 320 1                         @ lvgl/src/lv_core/lv_disp.c:320:1
	add	sp, #272
	pop	{r7, pc}
.Ltmp82:
.Lfunc_end9:
	.size	lv_scr_load_anim, .Lfunc_end9-lv_scr_load_anim
	.cfi_endproc
	.cantunwind
	.fnend
                                        @ -- End function
	.section	.text.lv_scr_act,"ax",%progbits
	.p2align	3                               @ -- Begin function lv_scr_act
	.type	lv_scr_act,%function
	.code	16                              @ @lv_scr_act
	.thumb_func
lv_scr_act:
.Lfunc_begin10:
	.loc	1 159 0                         @ lvgl/src/lv_core/lv_disp.h:159:0
	.fnstart
	.cfi_startproc
@ %bb.0:
	.save	{r7, lr}
	push	{r7, lr}
	.cfi_def_cfa_offset 8
	.cfi_offset lr, -4
	.cfi_offset r7, -8
.Ltmp83:
	.loc	1 160 32 prologue_end           @ lvgl/src/lv_core/lv_disp.h:160:32
	bl	lv_disp_get_default
	.loc	1 160 12 is_stmt 0              @ lvgl/src/lv_core/lv_disp.h:160:12
	bl	lv_disp_get_scr_act
	.loc	1 160 5                         @ lvgl/src/lv_core/lv_disp.h:160:5
	pop	{r7, pc}
.Ltmp84:
.Lfunc_end10:
	.size	lv_scr_act, .Lfunc_end10-lv_scr_act
	.cfi_endproc
	.cantunwind
	.fnend
                                        @ -- End function
	.section	.text.lv_anim_set_var,"ax",%progbits
	.p2align	3                               @ -- Begin function lv_anim_set_var
	.type	lv_anim_set_var,%function
	.code	16                              @ @lv_anim_set_var
	.thumb_func
lv_anim_set_var:
.Lfunc_begin11:
	.loc	7 126 0 is_stmt 1               @ lvgl/src/lv_core/../lv_misc/lv_anim.h:126:0
	.fnstart
	.cfi_startproc
@ %bb.0:
	.pad	#8
	sub	sp, #8
	.cfi_def_cfa_offset 8
	str	r0, [sp, #4]
	str	r1, [sp]
.Ltmp85:
	.loc	7 127 14 prologue_end           @ lvgl/src/lv_core/../lv_misc/lv_anim.h:127:14
	ldr	r0, [sp]
	.loc	7 127 5 is_stmt 0               @ lvgl/src/lv_core/../lv_misc/lv_anim.h:127:5
	ldr	r1, [sp, #4]
	.loc	7 127 12                        @ lvgl/src/lv_core/../lv_misc/lv_anim.h:127:12
	str	r0, [r1]
	.loc	7 128 1 is_stmt 1               @ lvgl/src/lv_core/../lv_misc/lv_anim.h:128:1
	add	sp, #8
	bx	lr
.Ltmp86:
.Lfunc_end11:
	.size	lv_anim_set_var, .Lfunc_end11-lv_anim_set_var
	.cfi_endproc
	.cantunwind
	.fnend
                                        @ -- End function
	.section	.text.lv_anim_set_start_cb,"ax",%progbits
	.p2align	3                               @ -- Begin function lv_anim_set_start_cb
	.type	lv_anim_set_start_cb,%function
	.code	16                              @ @lv_anim_set_start_cb
	.thumb_func
lv_anim_set_start_cb:
.Lfunc_begin12:
	.loc	7 207 0                         @ lvgl/src/lv_core/../lv_misc/lv_anim.h:207:0
	.fnstart
	.cfi_startproc
@ %bb.0:
	.pad	#8
	sub	sp, #8
	.cfi_def_cfa_offset 8
	str	r0, [sp, #4]
	str	r1, [sp]
.Ltmp87:
	.loc	7 208 19 prologue_end           @ lvgl/src/lv_core/../lv_misc/lv_anim.h:208:19
	ldr	r0, [sp]
	.loc	7 208 5 is_stmt 0               @ lvgl/src/lv_core/../lv_misc/lv_anim.h:208:5
	ldr	r1, [sp, #4]
	.loc	7 208 17                        @ lvgl/src/lv_core/../lv_misc/lv_anim.h:208:17
	str	r0, [r1, #8]
	.loc	7 209 1 is_stmt 1               @ lvgl/src/lv_core/../lv_misc/lv_anim.h:209:1
	add	sp, #8
	bx	lr
.Ltmp88:
.Lfunc_end12:
	.size	lv_anim_set_start_cb, .Lfunc_end12-lv_anim_set_start_cb
	.cfi_endproc
	.cantunwind
	.fnend
                                        @ -- End function
	.section	.text.scr_load_anim_start,"ax",%progbits
	.p2align	3                               @ -- Begin function scr_load_anim_start
	.type	scr_load_anim_start,%function
	.code	16                              @ @scr_load_anim_start
	.thumb_func
scr_load_anim_start:
.Lfunc_begin13:
	.loc	8 399 0                         @ lvgl/src/lv_core/lv_disp.c:399:0
	.fnstart
	.cfi_startproc
@ %bb.0:
	.save	{r7, lr}
	push	{r7, lr}
	.cfi_def_cfa_offset 8
	.cfi_offset lr, -4
	.cfi_offset r7, -8
	.pad	#8
	sub	sp, #8
	.cfi_def_cfa_offset 16
	str	r0, [sp, #4]
.Ltmp89:
	.loc	8 400 37 prologue_end           @ lvgl/src/lv_core/lv_disp.c:400:37
	ldr	r0, [sp, #4]
	.loc	8 400 40 is_stmt 0              @ lvgl/src/lv_core/lv_disp.c:400:40
	ldr	r0, [r0]
	.loc	8 400 21                        @ lvgl/src/lv_core/lv_disp.c:400:21
	bl	lv_obj_get_disp
	.loc	8 400 17                        @ lvgl/src/lv_core/lv_disp.c:400:17
	str	r0, [sp]
	.loc	8 401 19 is_stmt 1              @ lvgl/src/lv_core/lv_disp.c:401:19
	bl	lv_scr_act
	.loc	8 401 5 is_stmt 0               @ lvgl/src/lv_core/lv_disp.c:401:5
	ldr	r1, [sp]
	.loc	8 401 17                        @ lvgl/src/lv_core/lv_disp.c:401:17
	str	r0, [r1, #64]
	.loc	8 403 22 is_stmt 1              @ lvgl/src/lv_core/lv_disp.c:403:22
	ldr	r0, [sp, #4]
	.loc	8 403 25 is_stmt 0              @ lvgl/src/lv_core/lv_disp.c:403:25
	ldr	r0, [r0]
	.loc	8 403 5                         @ lvgl/src/lv_core/lv_disp.c:403:5
	bl	lv_disp_load_scr
	.loc	8 404 1 is_stmt 1               @ lvgl/src/lv_core/lv_disp.c:404:1
	add	sp, #8
	pop	{r7, pc}
.Ltmp90:
.Lfunc_end13:
	.size	scr_load_anim_start, .Lfunc_end13-scr_load_anim_start
	.cfi_endproc
	.cantunwind
	.fnend
                                        @ -- End function
	.section	.text.lv_anim_set_ready_cb,"ax",%progbits
	.p2align	3                               @ -- Begin function lv_anim_set_ready_cb
	.type	lv_anim_set_ready_cb,%function
	.code	16                              @ @lv_anim_set_ready_cb
	.thumb_func
lv_anim_set_ready_cb:
.Lfunc_begin14:
	.loc	7 217 0                         @ lvgl/src/lv_core/../lv_misc/lv_anim.h:217:0
	.fnstart
	.cfi_startproc
@ %bb.0:
	.pad	#8
	sub	sp, #8
	.cfi_def_cfa_offset 8
	str	r0, [sp, #4]
	str	r1, [sp]
.Ltmp91:
	.loc	7 218 19 prologue_end           @ lvgl/src/lv_core/../lv_misc/lv_anim.h:218:19
	ldr	r0, [sp]
	.loc	7 218 5 is_stmt 0               @ lvgl/src/lv_core/../lv_misc/lv_anim.h:218:5
	ldr	r1, [sp, #4]
	.loc	7 218 17                        @ lvgl/src/lv_core/../lv_misc/lv_anim.h:218:17
	str	r0, [r1, #12]
	.loc	7 219 1 is_stmt 1               @ lvgl/src/lv_core/../lv_misc/lv_anim.h:219:1
	add	sp, #8
	bx	lr
.Ltmp92:
.Lfunc_end14:
	.size	lv_anim_set_ready_cb, .Lfunc_end14-lv_anim_set_ready_cb
	.cfi_endproc
	.cantunwind
	.fnend
                                        @ -- End function
	.section	.text.scr_anim_ready,"ax",%progbits
	.p2align	3                               @ -- Begin function scr_anim_ready
	.type	scr_anim_ready,%function
	.code	16                              @ @scr_anim_ready
	.thumb_func
scr_anim_ready:
.Lfunc_begin15:
	.loc	8 412 0                         @ lvgl/src/lv_core/lv_disp.c:412:0
	.fnstart
	.cfi_startproc
@ %bb.0:
	.save	{r7, lr}
	push	{r7, lr}
	.cfi_def_cfa_offset 8
	.cfi_offset lr, -4
	.cfi_offset r7, -8
	.pad	#8
	sub	sp, #8
	.cfi_def_cfa_offset 16
	str	r0, [sp, #4]
.Ltmp93:
	.loc	8 413 37 prologue_end           @ lvgl/src/lv_core/lv_disp.c:413:37
	ldr	r0, [sp, #4]
	.loc	8 413 40 is_stmt 0              @ lvgl/src/lv_core/lv_disp.c:413:40
	ldr	r0, [r0]
	.loc	8 413 21                        @ lvgl/src/lv_core/lv_disp.c:413:21
	bl	lv_obj_get_disp
	.loc	8 413 17                        @ lvgl/src/lv_core/lv_disp.c:413:17
	str	r0, [sp]
.Ltmp94:
	.loc	8 415 8 is_stmt 1               @ lvgl/src/lv_core/lv_disp.c:415:8
	ldr	r0, [sp]
	.loc	8 415 11 is_stmt 0              @ lvgl/src/lv_core/lv_disp.c:415:11
	ldr	r0, [r0, #64]
	.loc	8 415 20                        @ lvgl/src/lv_core/lv_disp.c:415:20
	cbz	r0, .LBB15_3
	b	.LBB15_1
.LBB15_1:
	.loc	8 415 23                        @ lvgl/src/lv_core/lv_disp.c:415:23
	ldr	r0, [sp]
	.loc	8 415 26                        @ lvgl/src/lv_core/lv_disp.c:415:26
	ldrb.w	r0, [r0, #80]
.Ltmp95:
	.loc	8 415 8                         @ lvgl/src/lv_core/lv_disp.c:415:8
	lsls	r0, r0, #31
	cbz	r0, .LBB15_3
	b	.LBB15_2
.LBB15_2:
.Ltmp96:
	.loc	8 415 47                        @ lvgl/src/lv_core/lv_disp.c:415:47
	ldr	r0, [sp]
	.loc	8 415 50                        @ lvgl/src/lv_core/lv_disp.c:415:50
	ldr	r0, [r0, #64]
	.loc	8 415 36                        @ lvgl/src/lv_core/lv_disp.c:415:36
	bl	lv_obj_del
	b	.LBB15_3
.Ltmp97:
.LBB15_3:
	.loc	8 416 5 is_stmt 1               @ lvgl/src/lv_core/lv_disp.c:416:5
	ldr	r0, [sp]
	movs	r1, #0
	.loc	8 416 17 is_stmt 0              @ lvgl/src/lv_core/lv_disp.c:416:17
	str	r1, [r0, #64]
	.loc	8 417 5 is_stmt 1               @ lvgl/src/lv_core/lv_disp.c:417:5
	ldr	r0, [sp]
	.loc	8 417 20 is_stmt 0              @ lvgl/src/lv_core/lv_disp.c:417:20
	str	r1, [r0, #68]
	.loc	8 418 49 is_stmt 1              @ lvgl/src/lv_core/lv_disp.c:418:49
	ldr	r0, [sp, #4]
	.loc	8 418 52 is_stmt 0              @ lvgl/src/lv_core/lv_disp.c:418:52
	ldr	r0, [r0]
	.loc	8 418 26                        @ lvgl/src/lv_core/lv_disp.c:418:26
	bl	lv_obj_get_local_style
	movw	r1, #32780
	.loc	8 418 5                         @ lvgl/src/lv_core/lv_disp.c:418:5
	bl	lv_style_remove_prop
	.loc	8 419 1 is_stmt 1               @ lvgl/src/lv_core/lv_disp.c:419:1
	add	sp, #8
	pop	{r7, pc}
.Ltmp98:
.Lfunc_end15:
	.size	scr_anim_ready, .Lfunc_end15-scr_anim_ready
	.cfi_endproc
	.cantunwind
	.fnend
                                        @ -- End function
	.section	.text.lv_anim_set_time,"ax",%progbits
	.p2align	3                               @ -- Begin function lv_anim_set_time
	.type	lv_anim_set_time,%function
	.code	16                              @ @lv_anim_set_time
	.thumb_func
lv_anim_set_time:
.Lfunc_begin16:
	.loc	7 148 0                         @ lvgl/src/lv_core/../lv_misc/lv_anim.h:148:0
	.fnstart
	.cfi_startproc
@ %bb.0:
	.pad	#8
	sub	sp, #8
	.cfi_def_cfa_offset 8
	str	r0, [sp, #4]
	str	r1, [sp]
.Ltmp99:
	.loc	7 149 15 prologue_end           @ lvgl/src/lv_core/../lv_misc/lv_anim.h:149:15
	ldr	r0, [sp]
	.loc	7 149 5 is_stmt 0               @ lvgl/src/lv_core/../lv_misc/lv_anim.h:149:5
	ldr	r1, [sp, #4]
	.loc	7 149 13                        @ lvgl/src/lv_core/../lv_misc/lv_anim.h:149:13
	str	r0, [r1, #36]
	.loc	7 150 1 is_stmt 1               @ lvgl/src/lv_core/../lv_misc/lv_anim.h:150:1
	add	sp, #8
	bx	lr
.Ltmp100:
.Lfunc_end16:
	.size	lv_anim_set_time, .Lfunc_end16-lv_anim_set_time
	.cfi_endproc
	.cantunwind
	.fnend
                                        @ -- End function
	.section	.text.lv_anim_set_delay,"ax",%progbits
	.p2align	3                               @ -- Begin function lv_anim_set_delay
	.type	lv_anim_set_delay,%function
	.code	16                              @ @lv_anim_set_delay
	.thumb_func
lv_anim_set_delay:
.Lfunc_begin17:
	.loc	7 158 0                         @ lvgl/src/lv_core/../lv_misc/lv_anim.h:158:0
	.fnstart
	.cfi_startproc
@ %bb.0:
	.pad	#8
	sub	sp, #8
	.cfi_def_cfa_offset 8
	str	r0, [sp, #4]
	str	r1, [sp]
.Ltmp101:
	.loc	7 159 30 prologue_end           @ lvgl/src/lv_core/../lv_misc/lv_anim.h:159:30
	ldr	r0, [sp]
	.loc	7 159 19 is_stmt 0              @ lvgl/src/lv_core/../lv_misc/lv_anim.h:159:19
	rsbs	r0, r0, #0
	.loc	7 159 5                         @ lvgl/src/lv_core/../lv_misc/lv_anim.h:159:5
	ldr	r1, [sp, #4]
	.loc	7 159 17                        @ lvgl/src/lv_core/../lv_misc/lv_anim.h:159:17
	str	r0, [r1, #40]
	.loc	7 160 1 is_stmt 1               @ lvgl/src/lv_core/../lv_misc/lv_anim.h:160:1
	add	sp, #8
	bx	lr
.Ltmp102:
.Lfunc_end17:
	.size	lv_anim_set_delay, .Lfunc_end17-lv_anim_set_delay
	.cfi_endproc
	.cantunwind
	.fnend
                                        @ -- End function
	.section	.text.lv_anim_set_exec_cb,"ax",%progbits
	.p2align	3                               @ -- Begin function lv_anim_set_exec_cb
	.type	lv_anim_set_exec_cb,%function
	.code	16                              @ @lv_anim_set_exec_cb
	.thumb_func
lv_anim_set_exec_cb:
.Lfunc_begin18:
	.loc	7 138 0                         @ lvgl/src/lv_core/../lv_misc/lv_anim.h:138:0
	.fnstart
	.cfi_startproc
@ %bb.0:
	.pad	#8
	sub	sp, #8
	.cfi_def_cfa_offset 8
	str	r0, [sp, #4]
	str	r1, [sp]
.Ltmp103:
	.loc	7 139 18 prologue_end           @ lvgl/src/lv_core/../lv_misc/lv_anim.h:139:18
	ldr	r0, [sp]
	.loc	7 139 5 is_stmt 0               @ lvgl/src/lv_core/../lv_misc/lv_anim.h:139:5
	ldr	r1, [sp, #4]
	.loc	7 139 16                        @ lvgl/src/lv_core/../lv_misc/lv_anim.h:139:16
	str	r0, [r1, #4]
	.loc	7 140 1 is_stmt 1               @ lvgl/src/lv_core/../lv_misc/lv_anim.h:140:1
	add	sp, #8
	bx	lr
.Ltmp104:
.Lfunc_end18:
	.size	lv_anim_set_exec_cb, .Lfunc_end18-lv_anim_set_exec_cb
	.cfi_endproc
	.cantunwind
	.fnend
                                        @ -- End function
	.section	.text.lv_anim_set_values,"ax",%progbits
	.p2align	3                               @ -- Begin function lv_anim_set_values
	.type	lv_anim_set_values,%function
	.code	16                              @ @lv_anim_set_values
	.thumb_func
lv_anim_set_values:
.Lfunc_begin19:
	.loc	7 169 0                         @ lvgl/src/lv_core/../lv_misc/lv_anim.h:169:0
	.fnstart
	.cfi_startproc
@ %bb.0:
	.pad	#8
	sub	sp, #8
	.cfi_def_cfa_offset 8
                                        @ kill: def $r3 killed $r2
                                        @ kill: def $r3 killed $r1
	str	r0, [sp, #4]
	strh.w	r1, [sp, #2]
	strh.w	r2, [sp]
.Ltmp105:
	.loc	7 170 16 prologue_end           @ lvgl/src/lv_core/../lv_misc/lv_anim.h:170:16
	ldrsh.w	r0, [sp, #2]
	.loc	7 170 5 is_stmt 0               @ lvgl/src/lv_core/../lv_misc/lv_anim.h:170:5
	ldr	r1, [sp, #4]
	.loc	7 170 14                        @ lvgl/src/lv_core/../lv_misc/lv_anim.h:170:14
	str	r0, [r1, #24]
	.loc	7 171 18 is_stmt 1              @ lvgl/src/lv_core/../lv_misc/lv_anim.h:171:18
	ldrsh.w	r0, [sp, #2]
	.loc	7 171 5 is_stmt 0               @ lvgl/src/lv_core/../lv_misc/lv_anim.h:171:5
	ldr	r1, [sp, #4]
	.loc	7 171 16                        @ lvgl/src/lv_core/../lv_misc/lv_anim.h:171:16
	str	r0, [r1, #28]
	.loc	7 172 14 is_stmt 1              @ lvgl/src/lv_core/../lv_misc/lv_anim.h:172:14
	ldrsh.w	r0, [sp]
	.loc	7 172 5 is_stmt 0               @ lvgl/src/lv_core/../lv_misc/lv_anim.h:172:5
	ldr	r1, [sp, #4]
	.loc	7 172 12                        @ lvgl/src/lv_core/../lv_misc/lv_anim.h:172:12
	str	r0, [r1, #32]
	.loc	7 173 1 is_stmt 1               @ lvgl/src/lv_core/../lv_misc/lv_anim.h:173:1
	add	sp, #8
	bx	lr
.Ltmp106:
.Lfunc_end19:
	.size	lv_anim_set_values, .Lfunc_end19-lv_anim_set_values
	.cfi_endproc
	.cantunwind
	.fnend
                                        @ -- End function
	.section	.text.opa_scale_anim,"ax",%progbits
	.p2align	3                               @ -- Begin function opa_scale_anim
	.type	opa_scale_anim,%function
	.code	16                              @ @opa_scale_anim
	.thumb_func
opa_scale_anim:
.Lfunc_begin20:
	.loc	8 407 0                         @ lvgl/src/lv_core/lv_disp.c:407:0
	.fnstart
	.cfi_startproc
@ %bb.0:
	.save	{r7, lr}
	push	{r7, lr}
	.cfi_def_cfa_offset 8
	.cfi_offset lr, -4
	.cfi_offset r7, -8
	.pad	#8
	sub	sp, #8
	.cfi_def_cfa_offset 16
                                        @ kill: def $r2 killed $r1
	str	r0, [sp, #4]
	strh.w	r1, [sp, #2]
.Ltmp107:
	.loc	8 408 38 prologue_end           @ lvgl/src/lv_core/lv_disp.c:408:38
	ldr	r0, [sp, #4]
	.loc	8 408 79 is_stmt 0              @ lvgl/src/lv_core/lv_disp.c:408:79
	ldrb.w	r3, [sp, #2]
	movs	r2, #0
	.loc	8 408 5                         @ lvgl/src/lv_core/lv_disp.c:408:5
	mov	r1, r2
	bl	lv_obj_set_style_local_opa_scale
	.loc	8 409 1 is_stmt 1               @ lvgl/src/lv_core/lv_disp.c:409:1
	add	sp, #8
	pop	{r7, pc}
.Ltmp108:
.Lfunc_end20:
	.size	opa_scale_anim, .Lfunc_end20-opa_scale_anim
	.cfi_endproc
	.cantunwind
	.fnend
                                        @ -- End function
	.section	.text.lv_disp_get_inactive_time,"ax",%progbits
	.hidden	lv_disp_get_inactive_time       @ -- Begin function lv_disp_get_inactive_time
	.globl	lv_disp_get_inactive_time
	.p2align	3
	.type	lv_disp_get_inactive_time,%function
	.code	16                              @ @lv_disp_get_inactive_time
	.thumb_func
lv_disp_get_inactive_time:
.Lfunc_begin21:
	.loc	8 330 0                         @ lvgl/src/lv_core/lv_disp.c:330:0
	.fnstart
	.cfi_startproc
@ %bb.0:
	.save	{r7, lr}
	push	{r7, lr}
	.cfi_def_cfa_offset 8
	.cfi_offset lr, -4
	.cfi_offset r7, -8
	.pad	#24
	sub	sp, #24
	.cfi_def_cfa_offset 32
	str	r0, [sp, #16]
.Ltmp109:
	.loc	8 331 8 prologue_end            @ lvgl/src/lv_core/lv_disp.c:331:8
	ldr	r0, [sp, #16]
.Ltmp110:
	.loc	8 331 8 is_stmt 0               @ lvgl/src/lv_core/lv_disp.c:331:8
	cbz	r0, .LBB21_2
	b	.LBB21_1
.LBB21_1:
.Ltmp111:
	.loc	8 331 35                        @ lvgl/src/lv_core/lv_disp.c:331:35
	ldr	r0, [sp, #16]
	.loc	8 331 41                        @ lvgl/src/lv_core/lv_disp.c:331:41
	ldr.w	r0, [r0, #384]
	.loc	8 331 21                        @ lvgl/src/lv_core/lv_disp.c:331:21
	bl	lv_tick_elaps
	.loc	8 331 14                        @ lvgl/src/lv_core/lv_disp.c:331:14
	str	r0, [sp, #20]
	b	.LBB21_9
.Ltmp112:
.LBB21_2:
	.loc	8 0 14                          @ lvgl/src/lv_core/lv_disp.c:0:14
	mov.w	r0, #-1
	.loc	8 334 14 is_stmt 1              @ lvgl/src/lv_core/lv_disp.c:334:14
	str	r0, [sp, #8]
	movs	r0, #0
	.loc	8 335 18                        @ lvgl/src/lv_core/lv_disp.c:335:18
	bl	lv_disp_get_next
	.loc	8 335 16 is_stmt 0              @ lvgl/src/lv_core/lv_disp.c:335:16
	str	r0, [sp, #12]
	.loc	8 336 5 is_stmt 1               @ lvgl/src/lv_core/lv_disp.c:336:5
	b	.LBB21_3
.LBB21_3:                               @ =>This Inner Loop Header: Depth=1
	.loc	8 336 11 is_stmt 0              @ lvgl/src/lv_core/lv_disp.c:336:11
	ldr	r0, [sp, #12]
	.loc	8 336 5                         @ lvgl/src/lv_core/lv_disp.c:336:5
	cbz	r0, .LBB21_8
	b	.LBB21_4
.LBB21_4:                               @   in Loop: Header=BB21_3 Depth=1
.Ltmp113:
	.loc	8 337 40 is_stmt 1              @ lvgl/src/lv_core/lv_disp.c:337:40
	ldr	r0, [sp, #12]
	.loc	8 337 43 is_stmt 0              @ lvgl/src/lv_core/lv_disp.c:337:43
	ldr.w	r0, [r0, #384]
	.loc	8 337 26                        @ lvgl/src/lv_core/lv_disp.c:337:26
	bl	lv_tick_elaps
	.loc	8 337 18                        @ lvgl/src/lv_core/lv_disp.c:337:18
	str	r0, [sp, #4]
	.loc	8 338 13 is_stmt 1              @ lvgl/src/lv_core/lv_disp.c:338:13
	ldr	r0, [sp, #8]
	ldr	r1, [sp, #4]
	cmp	r0, r1
	bhs	.LBB21_6
	b	.LBB21_5
.LBB21_5:                               @   in Loop: Header=BB21_3 Depth=1
	ldr	r0, [sp, #8]
	str	r0, [sp]                        @ 4-byte Spill
	b	.LBB21_7
.LBB21_6:                               @   in Loop: Header=BB21_3 Depth=1
	ldr	r0, [sp, #4]
	str	r0, [sp]                        @ 4-byte Spill
	b	.LBB21_7
.LBB21_7:                               @   in Loop: Header=BB21_3 Depth=1
	ldr	r0, [sp]                        @ 4-byte Reload
	.loc	8 338 11 is_stmt 0              @ lvgl/src/lv_core/lv_disp.c:338:11
	str	r0, [sp, #8]
	.loc	8 339 30 is_stmt 1              @ lvgl/src/lv_core/lv_disp.c:339:30
	ldr	r0, [sp, #12]
	.loc	8 339 13 is_stmt 0              @ lvgl/src/lv_core/lv_disp.c:339:13
	bl	lv_disp_get_next
	.loc	8 339 11                        @ lvgl/src/lv_core/lv_disp.c:339:11
	str	r0, [sp, #12]
.Ltmp114:
	.loc	8 336 5 is_stmt 1               @ lvgl/src/lv_core/lv_disp.c:336:5
	b	.LBB21_3
.LBB21_8:
	.loc	8 342 12                        @ lvgl/src/lv_core/lv_disp.c:342:12
	ldr	r0, [sp, #8]
	.loc	8 342 5 is_stmt 0               @ lvgl/src/lv_core/lv_disp.c:342:5
	str	r0, [sp, #20]
	b	.LBB21_9
.LBB21_9:
	.loc	8 343 1 is_stmt 1               @ lvgl/src/lv_core/lv_disp.c:343:1
	ldr	r0, [sp, #20]
	add	sp, #24
	pop	{r7, pc}
.Ltmp115:
.Lfunc_end21:
	.size	lv_disp_get_inactive_time, .Lfunc_end21-lv_disp_get_inactive_time
	.cfi_endproc
	.cantunwind
	.fnend
                                        @ -- End function
	.section	.text.lv_disp_trig_activity,"ax",%progbits
	.hidden	lv_disp_trig_activity           @ -- Begin function lv_disp_trig_activity
	.globl	lv_disp_trig_activity
	.p2align	3
	.type	lv_disp_trig_activity,%function
	.code	16                              @ @lv_disp_trig_activity
	.thumb_func
lv_disp_trig_activity:
.Lfunc_begin22:
	.loc	8 350 0                         @ lvgl/src/lv_core/lv_disp.c:350:0
	.fnstart
	.cfi_startproc
@ %bb.0:
	.save	{r7, lr}
	push	{r7, lr}
	.cfi_def_cfa_offset 8
	.cfi_offset lr, -4
	.cfi_offset r7, -8
	.pad	#8
	sub	sp, #8
	.cfi_def_cfa_offset 16
	str	r0, [sp, #4]
.Ltmp116:
	.loc	8 351 9 prologue_end            @ lvgl/src/lv_core/lv_disp.c:351:9
	ldr	r0, [sp, #4]
.Ltmp117:
	.loc	8 351 8 is_stmt 0               @ lvgl/src/lv_core/lv_disp.c:351:8
	cbnz	r0, .LBB22_2
	b	.LBB22_1
.LBB22_1:
.Ltmp118:
	.loc	8 351 22                        @ lvgl/src/lv_core/lv_disp.c:351:22
	bl	lv_disp_get_default
	.loc	8 351 20                        @ lvgl/src/lv_core/lv_disp.c:351:20
	str	r0, [sp, #4]
	.loc	8 351 15                        @ lvgl/src/lv_core/lv_disp.c:351:15
	b	.LBB22_2
.Ltmp119:
.LBB22_2:
	.loc	8 352 9 is_stmt 1               @ lvgl/src/lv_core/lv_disp.c:352:9
	ldr	r0, [sp, #4]
.Ltmp120:
	.loc	8 352 8 is_stmt 0               @ lvgl/src/lv_core/lv_disp.c:352:8
	cbnz	r0, .LBB22_4
	b	.LBB22_3
.LBB22_3:
.Ltmp121:
	.loc	8 354 9 is_stmt 1               @ lvgl/src/lv_core/lv_disp.c:354:9
	b	.LBB22_5
.Ltmp122:
.LBB22_4:
	.loc	8 357 32                        @ lvgl/src/lv_core/lv_disp.c:357:32
	bl	lv_tick_get
	.loc	8 357 5 is_stmt 0               @ lvgl/src/lv_core/lv_disp.c:357:5
	ldr	r1, [sp, #4]
	.loc	8 357 30                        @ lvgl/src/lv_core/lv_disp.c:357:30
	str.w	r0, [r1, #384]
	.loc	8 358 1 is_stmt 1               @ lvgl/src/lv_core/lv_disp.c:358:1
	b	.LBB22_5
.LBB22_5:
	add	sp, #8
	pop	{r7, pc}
.Ltmp123:
.Lfunc_end22:
	.size	lv_disp_trig_activity, .Lfunc_end22-lv_disp_trig_activity
	.cfi_endproc
	.cantunwind
	.fnend
                                        @ -- End function
	.section	.text.lv_disp_clean_dcache,"ax",%progbits
	.hidden	lv_disp_clean_dcache            @ -- Begin function lv_disp_clean_dcache
	.globl	lv_disp_clean_dcache
	.p2align	3
	.type	lv_disp_clean_dcache,%function
	.code	16                              @ @lv_disp_clean_dcache
	.thumb_func
lv_disp_clean_dcache:
.Lfunc_begin23:
	.loc	8 365 0                         @ lvgl/src/lv_core/lv_disp.c:365:0
	.fnstart
	.cfi_startproc
@ %bb.0:
	.save	{r7, lr}
	push	{r7, lr}
	.cfi_def_cfa_offset 8
	.cfi_offset lr, -4
	.cfi_offset r7, -8
	.pad	#8
	sub	sp, #8
	.cfi_def_cfa_offset 16
	str	r0, [sp, #4]
.Ltmp124:
	.loc	8 366 9 prologue_end            @ lvgl/src/lv_core/lv_disp.c:366:9
	ldr	r0, [sp, #4]
.Ltmp125:
	.loc	8 366 8 is_stmt 0               @ lvgl/src/lv_core/lv_disp.c:366:8
	cbnz	r0, .LBB23_2
	b	.LBB23_1
.LBB23_1:
.Ltmp126:
	.loc	8 366 22                        @ lvgl/src/lv_core/lv_disp.c:366:22
	bl	lv_disp_get_default
	.loc	8 366 20                        @ lvgl/src/lv_core/lv_disp.c:366:20
	str	r0, [sp, #4]
	.loc	8 366 15                        @ lvgl/src/lv_core/lv_disp.c:366:15
	b	.LBB23_2
.Ltmp127:
.LBB23_2:
	.loc	8 367 9 is_stmt 1               @ lvgl/src/lv_core/lv_disp.c:367:9
	ldr	r0, [sp, #4]
.Ltmp128:
	.loc	8 367 8 is_stmt 0               @ lvgl/src/lv_core/lv_disp.c:367:8
	cbnz	r0, .LBB23_4
	b	.LBB23_3
.LBB23_3:
.Ltmp129:
	.loc	8 369 9 is_stmt 1               @ lvgl/src/lv_core/lv_disp.c:369:9
	b	.LBB23_6
.Ltmp130:
.LBB23_4:
	.loc	8 372 8                         @ lvgl/src/lv_core/lv_disp.c:372:8
	ldr	r0, [sp, #4]
	.loc	8 372 21 is_stmt 0              @ lvgl/src/lv_core/lv_disp.c:372:21
	ldr	r0, [r0, #32]
.Ltmp131:
	.loc	8 372 8                         @ lvgl/src/lv_core/lv_disp.c:372:8
	cbz	r0, .LBB23_6
	b	.LBB23_5
.LBB23_5:
.Ltmp132:
	.loc	8 373 9 is_stmt 1               @ lvgl/src/lv_core/lv_disp.c:373:9
	ldr	r0, [sp, #4]
	.loc	8 373 22 is_stmt 0              @ lvgl/src/lv_core/lv_disp.c:373:22
	ldr	r1, [r0, #32]
	.loc	8 373 9                         @ lvgl/src/lv_core/lv_disp.c:373:9
	blx	r1
	b	.LBB23_6
.Ltmp133:
.LBB23_6:
	.loc	8 374 1 is_stmt 1               @ lvgl/src/lv_core/lv_disp.c:374:1
	add	sp, #8
	pop	{r7, pc}
.Ltmp134:
.Lfunc_end23:
	.size	lv_disp_clean_dcache, .Lfunc_end23-lv_disp_clean_dcache
	.cfi_endproc
	.cantunwind
	.fnend
                                        @ -- End function
	.section	.text._lv_disp_get_refr_task,"ax",%progbits
	.hidden	_lv_disp_get_refr_task          @ -- Begin function _lv_disp_get_refr_task
	.globl	_lv_disp_get_refr_task
	.p2align	3
	.type	_lv_disp_get_refr_task,%function
	.code	16                              @ @_lv_disp_get_refr_task
	.thumb_func
_lv_disp_get_refr_task:
.Lfunc_begin24:
	.loc	8 383 0                         @ lvgl/src/lv_core/lv_disp.c:383:0
	.fnstart
	.cfi_startproc
@ %bb.0:
	.save	{r7, lr}
	push	{r7, lr}
	.cfi_def_cfa_offset 8
	.cfi_offset lr, -4
	.cfi_offset r7, -8
	.pad	#8
	sub	sp, #8
	.cfi_def_cfa_offset 16
	str	r0, [sp]
.Ltmp135:
	.loc	8 384 9 prologue_end            @ lvgl/src/lv_core/lv_disp.c:384:9
	ldr	r0, [sp]
.Ltmp136:
	.loc	8 384 8 is_stmt 0               @ lvgl/src/lv_core/lv_disp.c:384:8
	cbnz	r0, .LBB24_2
	b	.LBB24_1
.LBB24_1:
.Ltmp137:
	.loc	8 384 22                        @ lvgl/src/lv_core/lv_disp.c:384:22
	bl	lv_disp_get_default
	.loc	8 384 20                        @ lvgl/src/lv_core/lv_disp.c:384:20
	str	r0, [sp]
	.loc	8 384 15                        @ lvgl/src/lv_core/lv_disp.c:384:15
	b	.LBB24_2
.Ltmp138:
.LBB24_2:
	.loc	8 385 9 is_stmt 1               @ lvgl/src/lv_core/lv_disp.c:385:9
	ldr	r0, [sp]
.Ltmp139:
	.loc	8 385 8 is_stmt 0               @ lvgl/src/lv_core/lv_disp.c:385:8
	cbnz	r0, .LBB24_4
	b	.LBB24_3
.LBB24_3:
	.loc	8 0 8                           @ lvgl/src/lv_core/lv_disp.c:0:8
	movs	r0, #0
.Ltmp140:
	.loc	8 387 9 is_stmt 1               @ lvgl/src/lv_core/lv_disp.c:387:9
	str	r0, [sp, #4]
	b	.LBB24_5
.Ltmp141:
.LBB24_4:
	.loc	8 390 12                        @ lvgl/src/lv_core/lv_disp.c:390:12
	ldr	r0, [sp]
	.loc	8 390 18 is_stmt 0              @ lvgl/src/lv_core/lv_disp.c:390:18
	ldr	r0, [r0, #44]
	.loc	8 390 5                         @ lvgl/src/lv_core/lv_disp.c:390:5
	str	r0, [sp, #4]
	b	.LBB24_5
.LBB24_5:
	.loc	8 391 1 is_stmt 1               @ lvgl/src/lv_core/lv_disp.c:391:1
	ldr	r0, [sp, #4]
	add	sp, #8
	pop	{r7, pc}
.Ltmp142:
.Lfunc_end24:
	.size	_lv_disp_get_refr_task, .Lfunc_end24-_lv_disp_get_refr_task
	.cfi_endproc
	.cantunwind
	.fnend
                                        @ -- End function
	.section	.text.lv_obj_set_style_local_opa_scale,"ax",%progbits
	.p2align	3                               @ -- Begin function lv_obj_set_style_local_opa_scale
	.type	lv_obj_set_style_local_opa_scale,%function
	.code	16                              @ @lv_obj_set_style_local_opa_scale
	.thumb_func
lv_obj_set_style_local_opa_scale:
.Lfunc_begin25:
	.file	9 "E:\\STM32\\Learning\\STM32H750_ART_PI_RGBLCD" "lvgl/src/lv_core/lv_obj_style_dec.h"
	.loc	9 99 0                          @ lvgl/src/lv_core/lv_obj_style_dec.h:99:0
	.fnstart
	.cfi_startproc
@ %bb.0:
	.save	{r7, lr}
	push	{r7, lr}
	.cfi_def_cfa_offset 8
	.cfi_offset lr, -4
	.cfi_offset r7, -8
	.pad	#8
	sub	sp, #8
	.cfi_def_cfa_offset 16
                                        @ kill: def $r12 killed $r3
                                        @ kill: def $r12 killed $r2
                                        @ kill: def $r12 killed $r1
	str	r0, [sp, #4]
	strb.w	r1, [sp, #3]
	strb.w	r2, [sp, #2]
	strb.w	r3, [sp, #1]
.Ltmp143:
	.loc	9 99 1 prologue_end             @ lvgl/src/lv_core/lv_obj_style_dec.h:99:1
	ldr	r0, [sp, #4]
	ldrb.w	r1, [sp, #3]
	ldrb.w	r3, [sp, #2]
	movw	r2, #32780
	orr.w	r2, r2, r3, lsl #8
	ldrb.w	r3, [sp, #1]
	bl	_lv_obj_set_style_local_opa
	add	sp, #8
	pop	{r7, pc}
.Ltmp144:
.Lfunc_end25:
	.size	lv_obj_set_style_local_opa_scale, .Lfunc_end25-lv_obj_set_style_local_opa_scale
	.cfi_endproc
	.cantunwind
	.fnend
                                        @ -- End function
	.file	10 "E:\\STM32\\Learning\\STM32H750_ART_PI_RGBLCD" "lvgl/src/lv_core/../lv_hal/../lv_misc/lv_ll.h"
	.file	11 "E:\\STM32\\Learning\\STM32H750_ART_PI_RGBLCD" "lvgl/src/lv_core/../lv_draw/../lv_misc/lv_area.h"
	.file	12 "E:\\STM32\\Learning\\STM32H750_ART_PI_RGBLCD" "lvgl/src/lv_core/../lv_draw/../lv_misc/lv_types.h"
	.file	13 "E:\\STM32\\Learning\\STM32H750_ART_PI_RGBLCD" "lvgl/src/lv_core/../lv_hal/lv_hal_indev.h"
	.file	14 "E:\\STM32\\Learning\\STM32H750_ART_PI_RGBLCD" "lvgl/src/lv_core/../lv_draw/../lv_misc/lv_bidi.h"
	.file	15 "E:\\STM32\\Learning\\STM32H750_ART_PI_RGBLCD" "lvgl/src/lv_core/../lv_hal/../lv_misc/lv_task.h"
	.file	16 "E:\\STM32\\Learning\\STM32H750_ART_PI_RGBLCD" "lvgl/src/lv_core/../lv_hal/lv_hal_disp.h"
	.section	".note.GNU-stack","",%progbits
	.eabi_attribute	30, 6	@ Tag_ABI_optimization_goals
	.ARM_attribute	16, 1	@ Tag_AV_eba