	.text
	.syntax unified
	.eabi_attribute	67, "2.09"	@ Tag_conformance
	.cpu	cortex-m7
	.eabi_attribute	6, 13	@ Tag_CPU_arch
	.eabi_attribute	7, 77	@ Tag_CPU_arch_profile
	.eabi_attribute	8, 0	@ Tag_ARM_ISA_use
	.eabi_attribute	9, 2	@ Tag_THUMB_ISA_use
	.fpu	fpv5-d16
	.eabi_attribute	36, 1	@ Tag_FP_HP_extension
	.eabi_attribute	34, 1	@ Tag_CPU_unaligned_access
	.eabi_attribute	17, 1	@ Tag_ABI_PCS_GOT_use
	.eabi_attribute	20, 2	@ Tag_ABI_FP_denormal
	.eabi_attribute	21, 0	@ Tag_ABI_FP_exceptions
	.eabi_attribute	23, 1	@ Tag_ABI_FP_number_model
	.eabi_attribute	24, 1	@ Tag_ABI_align_needed
	.eabi_attribute	25, 1	@ Tag_ABI_align_preserved
	.eabi_attribute	28, 1	@ Tag_ABI_VFP_args
	.eabi_attribute	38, 1	@ Tag_ABI_FP_16bit_format
	.eabi_attribute	18, 2	@ Tag_ABI_PCS_wchar_t
	.eabi_attribute	26, 1	@ Tag_ABI_enum_size
	.eabi_attribute	14, 0	@ Tag_ABI_PCS_R9_use
	.file	"lv_draw_mask.c"
	.file	1 "E:\\Smart-access-control\\Hardware\\CODE" "lvgl/src/lv_draw/../lv_misc/../lv_draw/lv_draw_mask.h"
	.file	2 "D:\\Keil_v5\\ARM\\ARMCLANG\\Bin\\..\\include" "stdint.h"
	.file	3 "E:\\Smart-access-control\\Hardware\\CODE" "lvgl/src/lv_draw/../lv_misc/lv_color.h"
	.file	4 "E:\\Smart-access-control\\Hardware\\CODE" "./lvgl/src/lv_conf.h"
	.file	5 "E:\\Smart-access-control\\Hardware\\CODE" "lvgl/src/lv_draw/../lv_misc/lv_area.h"
	.section	.text.lv_draw_mask_add,"ax",%progbits
	.hidden	lv_draw_mask_add                @ -- Begin function lv_draw_mask_add
	.globl	lv_draw_mask_add
	.p2align	3
	.type	lv_draw_mask_add,%function
	.code	16                              @ @lv_draw_mask_add
	.thumb_func
lv_draw_mask_add:
.Lfunc_begin0:
	.file	6 "E:\\Smart-access-control\\Hardware\\CODE" "lvgl/src/lv_draw/lv_draw_mask.c"
	.loc	6 71 0                          @ lvgl/src/lv_draw/lv_draw_mask.c:71:0
	.fnstart
	.cfi_sections .debug_frame
	.cfi_startproc
@ %bb.0:
	@DEBUG_VALUE: lv_draw_mask_add:param <- $r0
	@DEBUG_VALUE: lv_draw_mask_add:param <- $r0
	@DEBUG_VALUE: lv_draw_mask_add:custom_id <- $r1
	@DEBUG_VALUE: lv_draw_mask_add:custom_id <- $r1
	.save	{r4, lr}
	push	{r4, lr}
	.cfi_def_cfa_offset 8
	.cfi_offset lr, -4
	.cfi_offset r4, -8
	movw	r12, :lower16:_lv_draw_mask_list
	movs	r2, #0
.Ltmp0:
	@DEBUG_VALUE: lv_draw_mask_add:i <- 0
	movt	r12, :upper16:_lv_draw_mask_list
	movs	r4, #0
.Ltmp1:
	.p2align	2
.LBB0_1:                                @ =>This Inner Loop Header: Depth=1
	@DEBUG_VALUE: lv_draw_mask_add:custom_id <- $r1
	@DEBUG_VALUE: lv_draw_mask_add:param <- $r0
	@DEBUG_VALUE: lv_draw_mask_add:i <- $r4
	.loc	6 75 46 prologue_end            @ lvgl/src/lv_draw/lv_draw_mask.c:75:46
	ldr.w	r3, [r12, r2, lsl #3]
.Ltmp2:
	.loc	6 75 12 is_stmt 0               @ lvgl/src/lv_draw/lv_draw_mask.c:75:12
	cbz	r3, .LBB0_5
.Ltmp3:
@ %bb.2:                                @   in Loop: Header=BB0_1 Depth=1
	@DEBUG_VALUE: lv_draw_mask_add:i <- $r4
	@DEBUG_VALUE: lv_draw_mask_add:custom_id <- $r1
	@DEBUG_VALUE: lv_draw_mask_add:param <- $r0
	.loc	6 74 39 is_stmt 1               @ lvgl/src/lv_draw/lv_draw_mask.c:74:39
	add.w	lr, r4, #1
.Ltmp4:
	@DEBUG_VALUE: lv_draw_mask_add:i <- $lr
	.loc	6 74 5 is_stmt 0                @ lvgl/src/lv_draw/lv_draw_mask.c:74:5
	cmp	r4, #15
	add.w	r2, r2, #1
	mov	r4, lr
	blo	.LBB0_1
.Ltmp5:
@ %bb.3:
	@DEBUG_VALUE: lv_draw_mask_add:custom_id <- $r1
	@DEBUG_VALUE: lv_draw_mask_add:param <- $r0
	@DEBUG_VALUE: lv_draw_mask_add:i <- $lr
	.loc	6 0 5                           @ lvgl/src/lv_draw/lv_draw_mask.c:0:5
	movs	r4, #16
	.loc	6 78 8 is_stmt 1                @ lvgl/src/lv_draw/lv_draw_mask.c:78:8
	cmp	r4, #15
	bhi	.LBB0_6
.Ltmp6:
.LBB0_4:
	@DEBUG_VALUE: lv_draw_mask_add:custom_id <- $r1
	@DEBUG_VALUE: lv_draw_mask_add:param <- $r0
	.loc	6 83 39                         @ lvgl/src/lv_draw/lv_draw_mask.c:83:39
	add.w	r2, r12, lr, lsl #3
	.loc	6 83 45 is_stmt 0               @ lvgl/src/lv_draw/lv_draw_mask.c:83:45
	str.w	r0, [r12, lr, lsl #3]
	.loc	6 86 12 is_stmt 1               @ lvgl/src/lv_draw/lv_draw_mask.c:86:12
	uxtb	r0, r4
.Ltmp7:
	@DEBUG_VALUE: lv_draw_mask_add:param <- [DW_OP_LLVM_entry_value 1] $r0
	.loc	6 87 1                          @ lvgl/src/lv_draw/lv_draw_mask.c:87:1
	sxth	r0, r0
	.loc	6 84 49                         @ lvgl/src/lv_draw/lv_draw_mask.c:84:49
	str	r1, [r2, #4]
	.loc	6 87 1                          @ lvgl/src/lv_draw/lv_draw_mask.c:87:1
	pop	{r4, pc}
.Ltmp8:
.LBB0_5:
	@DEBUG_VALUE: lv_draw_mask_add:i <- $r4
	@DEBUG_VALUE: lv_draw_mask_add:custom_id <- $r1
	@DEBUG_VALUE: lv_draw_mask_add:param <- $r0
	.loc	6 74 16                         @ lvgl/src/lv_draw/lv_draw_mask.c:74:16
	mov	lr, r2
.Ltmp9:
	.loc	6 78 8                          @ lvgl/src/lv_draw/lv_draw_mask.c:78:8
	cmp	r4, #15
	bls	.LBB0_4
.Ltmp10:
.LBB0_6:
	@DEBUG_VALUE: lv_draw_mask_add:custom_id <- $r1
	@DEBUG_VALUE: lv_draw_mask_add:param <- $r0
	.loc	6 0 8 is_stmt 0                 @ lvgl/src/lv_draw/lv_draw_mask.c:0:8
	movw	r0, #65535
.Ltmp11:
	@DEBUG_VALUE: lv_draw_mask_add:param <- [DW_OP_LLVM_entry_value 1] $r0
	.loc	6 87 1 is_stmt 1                @ lvgl/src/lv_draw/lv_draw_mask.c:87:1
	sxth	r0, r0
	pop	{r4, pc}
.Ltmp12:
.Lfunc_end0:
	.size	lv_draw_mask_add, .Lfunc_end0-lv_draw_mask_add
	.cfi_endproc
	.cantunwind
	.fnend
                                        @ -- End function
	.section	.text.lv_draw_mask_apply,"ax",%progbits
	.hidden	lv_draw_mask_apply              @ -- Begin function lv_draw_mask_apply
	.globl	lv_draw_mask_apply
	.p2align	3
	.type	lv_draw_mask_apply,%function
	.code	16                              @ @lv_draw_mask_apply
	.thumb_func
lv_draw_mask_apply:
.Lfunc_begin1:
	.loc	6 102 0                         @ lvgl/src/lv_draw/lv_draw_mask.c:102:0
	.fnstart
	.cfi_startproc
@ %bb.0:
	@DEBUG_VALUE: lv_draw_mask_apply:mask_buf <- $r0
	@DEBUG_VALUE: lv_draw_mask_apply:abs_x <- $r1
	@DEBUG_VALUE: lv_draw_mask_apply:abs_y <- $r2
	@DEBUG_VALUE: lv_draw_mask_apply:len <- $r3
	.save	{r4, r5, r6, r7, r8, r9, r10, lr}
	push.w	{r4, r5, r6, r7, r8, r9, r10, lr}
	.cfi_def_cfa_offset 32
	.cfi_offset lr, -4
	.cfi_offset r10, -8
	.cfi_offset r9, -12
	.cfi_offset r8, -16
	.cfi_offset r7, -20
	.cfi_offset r6, -24
	.cfi_offset r5, -28
	.cfi_offset r4, -32
	.pad	#8
	sub	sp, #8
	.cfi_def_cfa_offset 40
	movw	r4, :lower16:_lv_draw_mask_list
	mov	r8, r3
.Ltmp13:
	@DEBUG_VALUE: lv_draw_mask_apply:len <- $r8
	@DEBUG_VALUE: lv_draw_mask_apply:len <- $r8
	mov	r9, r2
.Ltmp14:
	@DEBUG_VALUE: lv_draw_mask_apply:abs_y <- $r9
	@DEBUG_VALUE: lv_draw_mask_apply:abs_y <- $r9
	mov	r10, r1
.Ltmp15:
	@DEBUG_VALUE: lv_draw_mask_apply:abs_x <- $r10
	@DEBUG_VALUE: lv_draw_mask_apply:abs_x <- $r10
	mov	r7, r0
.Ltmp16:
	@DEBUG_VALUE: lv_draw_mask_apply:mask_buf <- $r7
	@DEBUG_VALUE: lv_draw_mask_apply:mask_buf <- $r7
	movt	r4, :upper16:_lv_draw_mask_list
	movs	r5, #0
.Ltmp17:
	@DEBUG_VALUE: lv_draw_mask_apply:changed <- 0
	@DEBUG_VALUE: lv_draw_mask_apply:m <- $r4
	.p2align	2
.LBB1_1:                                @ =>This Inner Loop Header: Depth=1
	@DEBUG_VALUE: lv_draw_mask_apply:abs_x <- $r10
	@DEBUG_VALUE: lv_draw_mask_apply:abs_y <- $r9
	@DEBUG_VALUE: lv_draw_mask_apply:len <- $r8
	@DEBUG_VALUE: lv_draw_mask_apply:mask_buf <- $r7
	@DEBUG_VALUE: lv_draw_mask_apply:m <- $r4
	@DEBUG_VALUE: lv_draw_mask_apply:m <- $r4
	@DEBUG_VALUE: lv_draw_mask_apply:changed <- undef
	.loc	6 108 14 prologue_end           @ lvgl/src/lv_draw/lv_draw_mask.c:108:14
	ldr	r0, [r4]
	.loc	6 108 5 is_stmt 0               @ lvgl/src/lv_draw/lv_draw_mask.c:108:5
	cbz	r0, .LBB1_4
.Ltmp18:
@ %bb.2:                                @   in Loop: Header=BB1_1 Depth=1
	@DEBUG_VALUE: lv_draw_mask_apply:abs_x <- $r10
	@DEBUG_VALUE: lv_draw_mask_apply:abs_y <- $r9
	@DEBUG_VALUE: lv_draw_mask_apply:len <- $r8
	@DEBUG_VALUE: lv_draw_mask_apply:mask_buf <- $r7
	@DEBUG_VALUE: lv_draw_mask_apply:m <- $r4
	@DEBUG_VALUE: lv_draw_mask_apply:dsc <- $r0
	@DEBUG_VALUE: res <- 1
	.loc	6 111 20 is_stmt 1              @ lvgl/src/lv_draw/lv_draw_mask.c:111:20
	ldr	r6, [r0]
	.loc	6 111 15 is_stmt 0              @ lvgl/src/lv_draw/lv_draw_mask.c:111:15
	str	r0, [sp]
	mov	r0, r7
.Ltmp19:
	mov	r1, r10
	mov	r2, r9
	mov	r3, r8
	blx	r6
.Ltmp20:
	@DEBUG_VALUE: res <- $r0
	.loc	6 112 12 is_stmt 1              @ lvgl/src/lv_draw/lv_draw_mask.c:112:12
	subs	r1, r0, #2
	cmp	r0, #0
	clz	r1, r1
	lsr.w	r1, r1, #5
	orr.w	r5, r5, r1
	it	ne
	addne	r4, #8
.Ltmp21:
	@DEBUG_VALUE: lv_draw_mask_apply:changed <- undef
	@DEBUG_VALUE: lv_draw_mask_apply:m <- $r4
	.loc	6 0 12 is_stmt 0                @ lvgl/src/lv_draw/lv_draw_mask.c:0:12
	bne	.LBB1_1
.Ltmp22:
@ %bb.3:
	@DEBUG_VALUE: lv_draw_mask_apply:abs_x <- $r10
	@DEBUG_VALUE: lv_draw_mask_apply:abs_y <- $r9
	@DEBUG_VALUE: lv_draw_mask_apply:len <- $r8
	@DEBUG_VALUE: lv_draw_mask_apply:mask_buf <- $r7
	@DEBUG_VALUE: lv_draw_mask_apply:m <- $r4
	movs	r0, #0
	.loc	6 119 1 is_stmt 1               @ lvgl/src/lv_draw/lv_draw_mask.c:119:1
	add	sp, #8
	pop.w	{r4, r5, r6, r7, r8, r9, r10, pc}
.Ltmp23:
.LBB1_4:
	@DEBUG_VALUE: lv_draw_mask_apply:abs_x <- $r10
	@DEBUG_VALUE: lv_draw_mask_apply:abs_y <- $r9
	@DEBUG_VALUE: lv_draw_mask_apply:len <- $r8
	@DEBUG_VALUE: lv_draw_mask_apply:mask_buf <- $r7
	@DEBUG_VALUE: lv_draw_mask_apply:m <- $r4
	.loc	6 118 12                        @ lvgl/src/lv_draw/lv_draw_mask.c:118:12
	lsls	r0, r5, #31
	mov.w	r0, #1
	it	ne
	movne	r0, #2
	.loc	6 119 1                         @ lvgl/src/lv_draw/lv_draw_mask.c:119:1
	add	sp, #8
	pop.w	{r4, r5, r6, r7, r8, r9, r10, pc}
.Ltmp24:
.Lfunc_end1:
	.size	lv_draw_mask_apply, .Lfunc_end1-lv_draw_mask_apply
	.cfi_endproc
	.cantunwind
	.fnend
                                        @ -- End function
	.section	.text.lv_draw_mask_remove_id,"ax",%progbits
	.hidden	lv_draw_mask_remove_id          @ -- Begin function lv_draw_mask_remove_id
	.globl	lv_draw_mask_remove_id
	.p2align	3
	.type	lv_draw_mask_remove_id,%function
	.code	16                              @ @lv_draw_mask_remove_id
	.thumb_func
lv_draw_mask_remove_id:
.Lfunc_begin2:
	.loc	6 128 0                         @ lvgl/src/lv_draw/lv_draw_mask.c:128:0
	.fnstart
	.cfi_startproc
@ %bb.0:
	@DEBUG_VALUE: lv_draw_mask_remove_id:id <- $r0
	mov	r1, r0
.Ltmp25:
	@DEBUG_VALUE: lv_draw_mask_remove_id:id <- $r1
	.loc	6 131 8 prologue_end            @ lvgl/src/lv_draw/lv_draw_mask.c:131:8
	adds	r0, #1
	mov.w	r0, #0
.Ltmp26:
	@DEBUG_VALUE: lv_draw_mask_remove_id:p <- 0
	@DEBUG_VALUE: lv_draw_mask_remove_id:p <- $r0
	.loc	6 137 5                         @ lvgl/src/lv_draw/lv_draw_mask.c:137:5
	it	eq
	bxeq	lr
.Ltmp27:
.LBB2_1:
	@DEBUG_VALUE: lv_draw_mask_remove_id:id <- $r1
	@DEBUG_VALUE: lv_draw_mask_remove_id:p <- $r0
	.loc	6 132 48                        @ lvgl/src/lv_draw/lv_draw_mask.c:132:48
	movw	r12, :lower16:_lv_draw_mask_list
	movt	r12, :upper16:_lv_draw_mask_list
	add.w	r3, r12, r1, lsl #3
	ldr.w	r2, [r12, r1, lsl #3]
.Ltmp28:
	@DEBUG_VALUE: lv_draw_mask_remove_id:p <- $r2
	.loc	6 133 50                        @ lvgl/src/lv_draw/lv_draw_mask.c:133:50
	str.w	r0, [r12, r1, lsl #3]
	.loc	6 134 54                        @ lvgl/src/lv_draw/lv_draw_mask.c:134:54
	str	r0, [r3, #4]
.Ltmp29:
	.loc	6 0 0 is_stmt 0                 @ lvgl/src/lv_draw/lv_draw_mask.c:0:0
	mov	r0, r2
.Ltmp30:
	@DEBUG_VALUE: lv_draw_mask_remove_id:p <- $r0
	.loc	6 137 5 is_stmt 1               @ lvgl/src/lv_draw/lv_draw_mask.c:137:5
	bx	lr
.Ltmp31:
.Lfunc_end2:
	.size	lv_draw_mask_remove_id, .Lfunc_end2-lv_draw_mask_remove_id
	.cfi_endproc
	.cantunwind
	.fnend
                                        @ -- End function
	.section	.text.lv_draw_mask_remove_custom,"ax",%progbits
	.hidden	lv_draw_mask_remove_custom      @ -- Begin function lv_draw_mask_remove_custom
	.globl	lv_draw_mask_remove_custom
	.p2align	3
	.type	lv_draw_mask_remove_custom,%function
	.code	16                              @ @lv_draw_mask_remove_custom
	.thumb_func
lv_draw_mask_remove_custom:
.Lfunc_begin3:
	.loc	6 147 0                         @ lvgl/src/lv_draw/lv_draw_mask.c:147:0
	.fnstart
	.cfi_startproc
@ %bb.0:
	@DEBUG_VALUE: lv_draw_mask_remove_custom:custom_id <- $r0
	@DEBUG_VALUE: lv_draw_mask_remove_custom:custom_id <- $r0
	.save	{r4, lr}
	push	{r4, lr}
	.cfi_def_cfa_offset 8
	.cfi_offset lr, -4
	.cfi_offset r4, -8
	movw	r3, :lower16:_lv_draw_mask_list
	mov.w	r12, #0
.Ltmp32:
	@DEBUG_VALUE: lv_draw_mask_remove_custom:i <- 0
	@DEBUG_VALUE: lv_draw_mask_remove_custom:p <- 0
	movt	r3, :upper16:_lv_draw_mask_list
	movs	r2, #0
	mov.w	lr, #0
	b	.LBB3_2
.Ltmp33:
	.p2align	2
.LBB3_1:                                @   in Loop: Header=BB3_2 Depth=1
	@DEBUG_VALUE: lv_draw_mask_remove_custom:i <- $r2
	@DEBUG_VALUE: lv_draw_mask_remove_custom:custom_id <- $r0
	@DEBUG_VALUE: lv_draw_mask_remove_custom:p <- $lr
	@DEBUG_VALUE: lv_draw_mask_remove_custom:p <- $lr
	.loc	6 150 39 prologue_end           @ lvgl/src/lv_draw/lv_draw_mask.c:150:39
	adds	r2, #1
.Ltmp34:
	@DEBUG_VALUE: lv_draw_mask_remove_custom:i <- $r2
	.loc	6 150 5 is_stmt 0               @ lvgl/src/lv_draw/lv_draw_mask.c:150:5
	cmp	r2, #16
	beq	.LBB3_4
.Ltmp35:
.LBB3_2:                                @ =>This Inner Loop Header: Depth=1
	@DEBUG_VALUE: lv_draw_mask_remove_custom:custom_id <- $r0
	@DEBUG_VALUE: lv_draw_mask_remove_custom:p <- $lr
	@DEBUG_VALUE: lv_draw_mask_remove_custom:i <- $r2
	.loc	6 151 46 is_stmt 1              @ lvgl/src/lv_draw/lv_draw_mask.c:151:46
	add.w	r1, r3, r2, lsl #3
	ldr	r4, [r1, #4]
.Ltmp36:
	.loc	6 151 12 is_stmt 0              @ lvgl/src/lv_draw/lv_draw_mask.c:151:12
	cmp	r4, r0
	bne	.LBB3_1
.Ltmp37:
@ %bb.3:                                @   in Loop: Header=BB3_2 Depth=1
	@DEBUG_VALUE: lv_draw_mask_remove_custom:i <- $r2
	@DEBUG_VALUE: lv_draw_mask_remove_custom:custom_id <- $r0
	@DEBUG_VALUE: lv_draw_mask_remove_custom:p <- $lr
	.loc	6 152 51 is_stmt 1              @ lvgl/src/lv_draw/lv_draw_mask.c:152:51
	ldr.w	lr, [r3, r2, lsl #3]
.Ltmp38:
	@DEBUG_VALUE: lv_draw_mask_remove_custom:p <- $lr
	.loc	6 153 53                        @ lvgl/src/lv_draw/lv_draw_mask.c:153:53
	str.w	r12, [r3, r2, lsl #3]
	.loc	6 154 57                        @ lvgl/src/lv_draw/lv_draw_mask.c:154:57
	str.w	r12, [r1, #4]
	b	.LBB3_1
.Ltmp39:
.LBB3_4:
	@DEBUG_VALUE: lv_draw_mask_remove_custom:i <- $r2
	@DEBUG_VALUE: lv_draw_mask_remove_custom:custom_id <- $r0
	@DEBUG_VALUE: lv_draw_mask_remove_custom:p <- $lr
	.loc	6 157 5                         @ lvgl/src/lv_draw/lv_draw_mask.c:157:5
	mov	r0, lr
.Ltmp40:
	@DEBUG_VALUE: lv_draw_mask_remove_custom:custom_id <- [DW_OP_LLVM_entry_value 1] $r0
	pop	{r4, pc}
.Ltmp41:
.Lfunc_end3:
	.size	lv_draw_mask_remove_custom, .Lfunc_end3-lv_draw_mask_remove_custom
	.cfi_endproc
	.cantunwind
	.fnend
                                        @ -- End function
	.section	.text.lv_draw_mask_get_cnt,"ax",%progbits
	.hidden	lv_draw_mask_get_cnt            @ -- Begin function lv_draw_mask_get_cnt
	.globl	lv_draw_mask_get_cnt
	.p2align	3
	.type	lv_draw_mask_get_cnt,%function
	.code	16                              @ @lv_draw_mask_get_cnt
	.thumb_func
lv_draw_mask_get_cnt:
.Lfunc_begin4:
	.loc	6 165 0                         @ lvgl/src/lv_draw/lv_draw_mask.c:165:0
	.fnstart
	.cfi_startproc
@ %bb.0:
	movw	r2, :lower16:_lv_draw_mask_list
	movs	r0, #0
	mvn	r1, #7
.Ltmp42:
	@DEBUG_VALUE: lv_draw_mask_get_cnt:i <- 0
	@DEBUG_VALUE: lv_draw_mask_get_cnt:cnt <- 0
	movt	r2, :upper16:_lv_draw_mask_list
.Ltmp43:
	.p2align	2
.LBB4_1:                                @ =>This Inner Loop Header: Depth=1
	@DEBUG_VALUE: lv_draw_mask_get_cnt:cnt <- $r0
	@DEBUG_VALUE: lv_draw_mask_get_cnt:i <- undef
	.loc	6 169 46 prologue_end           @ lvgl/src/lv_draw/lv_draw_mask.c:169:46
	adds	r3, r2, r1
.Ltmp44:
	.loc	6 168 18                        @ lvgl/src/lv_draw/lv_draw_mask.c:168:18
	adds	r1, #8
.Ltmp45:
	.loc	6 169 46                        @ lvgl/src/lv_draw/lv_draw_mask.c:169:46
	ldr	r3, [r3, #8]
.Ltmp46:
	.loc	6 169 12 is_stmt 0              @ lvgl/src/lv_draw/lv_draw_mask.c:169:12
	cmp	r3, #0
	it	ne
	addne	r0, #1
.Ltmp47:
	@DEBUG_VALUE: lv_draw_mask_get_cnt:i <- [DW_OP_plus_uconst 1, DW_OP_stack_value] undef
	@DEBUG_VALUE: lv_draw_mask_get_cnt:cnt <- $r0
	.loc	6 168 5 is_stmt 1               @ lvgl/src/lv_draw/lv_draw_mask.c:168:5
	cmp	r1, #120
	bne	.LBB4_1
.Ltmp48:
@ %bb.2:
	@DEBUG_VALUE: lv_draw_mask_get_cnt:cnt <- $r0
	.loc	6 171 5                         @ lvgl/src/lv_draw/lv_draw_mask.c:171:5
	uxtb	r0, r0
.Ltmp49:
	bx	lr
.Ltmp50:
.Lfunc_end4:
	.size	lv_draw_mask_get_cnt, .Lfunc_end4-lv_draw_mask_get_cnt
	.cfi_endproc
	.cantunwind
	.fnend
                                        @ -- End function
	.section	.text.lv_draw_mask_line_points_init,"ax",%progbits
	.hidden	lv_draw_mask_line_points_init   @ -- Begin function lv_draw_mask_line_points_init
	.globl	lv_draw_mask_line_points_init
	.p2align	3
	.type	lv_draw_mask_line_points_init,%function
	.code	16                              @ @lv_draw_mask_line_points_init
	.thumb_func
lv_draw_mask_line_points_init:
.Lfunc_begin5:
	.loc	6 187 0                         @ lvgl/src/lv_draw/lv_draw_mask.c:187:0
	.fnstart
	.cfi_startproc
@ %bb.0:
	@DEBUG_VALUE: lv_draw_mask_line_points_init:param <- $r0
	@DEBUG_VALUE: lv_draw_mask_line_points_init:p1x <- $r1
	@DEBUG_VALUE: lv_draw_mask_line_points_init:p1y <- $r2
	@DEBUG_VALUE: lv_draw_mask_line_points_init:p2x <- $r3
	.save	{r4, r5, r6, r7, r8, r9, lr}
	push.w	{r4, r5, r6, r7, r8, r9, lr}
	.cfi_def_cfa_offset 28
	.cfi_offset lr, -4
	.cfi_offset r9, -8
	.cfi_offset r8, -12
	.cfi_offset r7, -16
	.cfi_offset r6, -20
	.cfi_offset r5, -24
	.cfi_offset r4, -28
	.pad	#4
	sub	sp, #4
	.cfi_def_cfa_offset 32
	mov	r8, r1
.Ltmp51:
	@DEBUG_VALUE: lv_draw_mask_line_points_init:p1x <- $r8
	.loc	6 188 5 prologue_end            @ lvgl/src/lv_draw/lv_draw_mask.c:188:5
	movs	r1, #44
	mov	r5, r3
.Ltmp52:
	@DEBUG_VALUE: lv_draw_mask_line_points_init:p2x <- $r5
	.loc	6 0 5 is_stmt 0                 @ lvgl/src/lv_draw/lv_draw_mask.c:0:5
	mov	r6, r2
.Ltmp53:
	@DEBUG_VALUE: lv_draw_mask_line_points_init:p1y <- $r6
	mov	r4, r0
	ldrd	r7, r9, [sp, #32]
.Ltmp54:
	@DEBUG_VALUE: lv_draw_mask_line_points_init:p2y <- $r7
	@DEBUG_VALUE: lv_draw_mask_line_points_init:side <- $r9
	@DEBUG_VALUE: lv_draw_mask_line_points_init:p2x <- $r5
	@DEBUG_VALUE: lv_draw_mask_line_points_init:p1y <- $r6
	@DEBUG_VALUE: lv_draw_mask_line_points_init:p1x <- $r8
	@DEBUG_VALUE: lv_draw_mask_line_points_init:param <- $r4
	.loc	6 188 5                         @ lvgl/src/lv_draw/lv_draw_mask.c:188:5
	bl	_lv_memset_00
	.loc	6 190 8 is_stmt 1               @ lvgl/src/lv_draw/lv_draw_mask.c:190:8
	cmp	r6, r7
	ble	.LBB5_2
.Ltmp55:
@ %bb.1:
	@DEBUG_VALUE: lv_draw_mask_line_points_init:side <- $r9
	@DEBUG_VALUE: lv_draw_mask_line_points_init:p1x <- $r8
	@DEBUG_VALUE: lv_draw_mask_line_points_init:p2y <- $r7
	@DEBUG_VALUE: lv_draw_mask_line_points_init:p1y <- $r6
	@DEBUG_VALUE: lv_draw_mask_line_points_init:p2x <- $r5
	@DEBUG_VALUE: lv_draw_mask_line_points_init:param <- $r4
	@DEBUG_VALUE: lv_draw_mask_line_points_init:p1x <- undef
	@DEBUG_VALUE: lv_draw_mask_line_points_init:p1y <- undef
	@DEBUG_VALUE: lv_draw_mask_line_points_init:p2x <- undef
	@DEBUG_VALUE: lv_draw_mask_line_points_init:p2y <- undef
	@DEBUG_VALUE: t <- $r7
	.loc	6 0 8 is_stmt 0                 @ lvgl/src/lv_draw/lv_draw_mask.c:0:8
	mov	r1, r6
	mov	r2, r8
	b	.LBB5_3
.Ltmp56:
.LBB5_2:
	@DEBUG_VALUE: lv_draw_mask_line_points_init:side <- $r9
	@DEBUG_VALUE: lv_draw_mask_line_points_init:p1x <- $r8
	@DEBUG_VALUE: lv_draw_mask_line_points_init:p2y <- $r7
	@DEBUG_VALUE: lv_draw_mask_line_points_init:p1y <- $r6
	@DEBUG_VALUE: lv_draw_mask_line_points_init:p2x <- $r5
	@DEBUG_VALUE: lv_draw_mask_line_points_init:param <- $r4
	mov	r1, r7
	mov	r2, r5
	mov	r7, r6
.Ltmp57:
	@DEBUG_VALUE: lv_draw_mask_line_points_init:p1y <- $r7
	mov	r5, r8
.Ltmp58:
	@DEBUG_VALUE: lv_draw_mask_line_points_init:p1x <- $r5
.LBB5_3:
	@DEBUG_VALUE: lv_draw_mask_line_points_init:side <- $r9
	@DEBUG_VALUE: lv_draw_mask_line_points_init:param <- $r4
	@DEBUG_VALUE: lv_draw_mask_line_points_init:p1x <- $r5
	@DEBUG_VALUE: lv_draw_mask_line_points_init:p1y <- $r7
	@DEBUG_VALUE: lv_draw_mask_line_points_init:p2x <- $r2
	@DEBUG_VALUE: lv_draw_mask_line_points_init:p2y <- $r1
	.loc	6 205 21 is_stmt 1              @ lvgl/src/lv_draw/lv_draw_mask.c:205:21
	ldrb	r6, [r4, #16]
	.loc	6 209 20                        @ lvgl/src/lv_draw/lv_draw_mask.c:209:20
	subs.w	r8, r2, r5
	.loc	6 203 21                        @ lvgl/src/lv_draw/lv_draw_mask.c:203:21
	strh	r2, [r4, #12]
	.loc	6 205 21                        @ lvgl/src/lv_draw/lv_draw_mask.c:205:21
	and	lr, r9, #3
	and	r6, r6, #252
	.loc	6 209 20                        @ lvgl/src/lv_draw/lv_draw_mask.c:209:20
	mov	r2, r8
.Ltmp59:
	.loc	6 201 21                        @ lvgl/src/lv_draw/lv_draw_mask.c:201:21
	strh	r5, [r4, #8]
	.loc	6 209 17                        @ lvgl/src/lv_draw/lv_draw_mask.c:209:17
	ldrb.w	r3, [r4, #40]
	.loc	6 202 21                        @ lvgl/src/lv_draw/lv_draw_mask.c:202:21
	strh	r7, [r4, #10]
	.loc	6 205 21                        @ lvgl/src/lv_draw/lv_draw_mask.c:205:21
	add	r6, lr
	.loc	6 204 21                        @ lvgl/src/lv_draw/lv_draw_mask.c:204:21
	strh	r1, [r4, #14]
	.loc	6 209 17                        @ lvgl/src/lv_draw/lv_draw_mask.c:209:17
	bic	r3, r3, #1
	.loc	6 205 21                        @ lvgl/src/lv_draw/lv_draw_mask.c:205:21
	strb	r6, [r4, #16]
	.loc	6 209 43                        @ lvgl/src/lv_draw/lv_draw_mask.c:209:43
	mov.w	r6, #0
	.loc	6 207 20                        @ lvgl/src/lv_draw/lv_draw_mask.c:207:20
	strh	r5, [r4, #18]
	.loc	6 212 19                        @ lvgl/src/lv_draw/lv_draw_mask.c:212:19
	movw	r5, :lower16:lv_draw_mask_line
.Ltmp60:
	.loc	6 208 20                        @ lvgl/src/lv_draw/lv_draw_mask.c:208:20
	strh	r7, [r4, #20]
	mov.w	r0, #0
	.loc	6 209 20                        @ lvgl/src/lv_draw/lv_draw_mask.c:209:20
	it	mi
	rsbmi.w	r2, r8, #0
	.loc	6 209 45 is_stmt 0              @ lvgl/src/lv_draw/lv_draw_mask.c:209:45
	subs	r1, r1, r7
.Ltmp61:
	.loc	6 212 19 is_stmt 1              @ lvgl/src/lv_draw/lv_draw_mask.c:212:19
	movt	r5, :upper16:lv_draw_mask_line
	.loc	6 209 45                        @ lvgl/src/lv_draw/lv_draw_mask.c:209:45
	mov	r7, r1
.Ltmp62:
	it	mi
	rsbmi	r7, r1, #0
	.loc	6 209 43 is_stmt 0              @ lvgl/src/lv_draw/lv_draw_mask.c:209:43
	cmp	r2, r7
	it	hi
	movhi	r6, #1
	.loc	6 218 8 is_stmt 1               @ lvgl/src/lv_draw/lv_draw_mask.c:218:8
	cmp	r2, r7
	.loc	6 212 19                        @ lvgl/src/lv_draw/lv_draw_mask.c:212:19
	str	r5, [r4]
	.loc	6 209 17                        @ lvgl/src/lv_draw/lv_draw_mask.c:209:17
	add.w	r12, r3, r6
	.loc	6 210 21                        @ lvgl/src/lv_draw/lv_draw_mask.c:210:21
	mov	r3, r4
	.loc	6 211 21                        @ lvgl/src/lv_draw/lv_draw_mask.c:211:21
	mov	r6, r4
	.loc	6 209 17                        @ lvgl/src/lv_draw/lv_draw_mask.c:209:17
	strb.w	r12, [r4, #40]
	.loc	6 210 21                        @ lvgl/src/lv_draw/lv_draw_mask.c:210:21
	str	r0, [r3, #28]!
	.loc	6 211 21                        @ lvgl/src/lv_draw/lv_draw_mask.c:211:21
	str	r0, [r6, #24]!
	.loc	6 213 21                        @ lvgl/src/lv_draw/lv_draw_mask.c:213:21
	strb	r0, [r4, #4]
.Ltmp63:
	@DEBUG_VALUE: lv_draw_mask_line_points_init:dy <- $r1
	@DEBUG_VALUE: lv_draw_mask_line_points_init:dx <- $r8
	.loc	6 218 8                         @ lvgl/src/lv_draw/lv_draw_mask.c:218:8
	bls	.LBB5_8
.Ltmp64:
@ %bb.4:
	@DEBUG_VALUE: lv_draw_mask_line_points_init:side <- $r9
	@DEBUG_VALUE: lv_draw_mask_line_points_init:dx <- $r8
	@DEBUG_VALUE: lv_draw_mask_line_points_init:param <- $r4
	@DEBUG_VALUE: lv_draw_mask_line_points_init:dy <- $r1
	.loc	6 222 12                        @ lvgl/src/lv_draw/lv_draw_mask.c:222:12
	cmp.w	r8, #0
	beq	.LBB5_6
.Ltmp65:
@ %bb.5:
	@DEBUG_VALUE: lv_draw_mask_line_points_init:side <- $r9
	@DEBUG_VALUE: lv_draw_mask_line_points_init:dx <- $r8
	@DEBUG_VALUE: lv_draw_mask_line_points_init:param <- $r4
	@DEBUG_VALUE: lv_draw_mask_line_points_init:dy <- $r1
	.loc	6 0 12 is_stmt 0                @ lvgl/src/lv_draw/lv_draw_mask.c:0:12
	mov.w	r0, #1048576
.Ltmp66:
	.loc	6 223 27 is_stmt 1              @ lvgl/src/lv_draw/lv_draw_mask.c:223:27
	sdiv	r0, r0, r8
.Ltmp67:
	@DEBUG_VALUE: m <- $r0
	.loc	6 224 34                        @ lvgl/src/lv_draw/lv_draw_mask.c:224:34
	muls	r0, r1, r0
.Ltmp68:
	.loc	6 224 40 is_stmt 0              @ lvgl/src/lv_draw/lv_draw_mask.c:224:40
	asrs	r0, r0, #10
	.loc	6 224 29                        @ lvgl/src/lv_draw/lv_draw_mask.c:224:29
	str	r0, [r3]
.Ltmp69:
.LBB5_6:
	@DEBUG_VALUE: lv_draw_mask_line_points_init:side <- $r9
	@DEBUG_VALUE: lv_draw_mask_line_points_init:dx <- $r8
	@DEBUG_VALUE: lv_draw_mask_line_points_init:param <- $r4
	@DEBUG_VALUE: lv_draw_mask_line_points_init:dy <- $r1
	.loc	6 227 12 is_stmt 1              @ lvgl/src/lv_draw/lv_draw_mask.c:227:12
	cbz	r1, .LBB5_13
.Ltmp70:
@ %bb.7:
	@DEBUG_VALUE: lv_draw_mask_line_points_init:side <- $r9
	@DEBUG_VALUE: lv_draw_mask_line_points_init:dx <- $r8
	@DEBUG_VALUE: lv_draw_mask_line_points_init:param <- $r4
	@DEBUG_VALUE: lv_draw_mask_line_points_init:dy <- $r1
	.loc	6 0 12 is_stmt 0                @ lvgl/src/lv_draw/lv_draw_mask.c:0:12
	mov.w	r0, #1048576
.Ltmp71:
	.loc	6 228 27 is_stmt 1              @ lvgl/src/lv_draw/lv_draw_mask.c:228:27
	sdiv	r0, r0, r1
.Ltmp72:
	@DEBUG_VALUE: m <- $r0
	.loc	6 229 34                        @ lvgl/src/lv_draw/lv_draw_mask.c:229:34
	mul	r0, r0, r8
.Ltmp73:
	.loc	6 229 40 is_stmt 0              @ lvgl/src/lv_draw/lv_draw_mask.c:229:40
	asrs	r0, r0, #10
	.loc	6 229 29                        @ lvgl/src/lv_draw/lv_draw_mask.c:229:29
	str	r0, [r6]
	b	.LBB5_13
.Ltmp74:
.LBB5_8:
	@DEBUG_VALUE: lv_draw_mask_line_points_init:side <- $r9
	@DEBUG_VALUE: lv_draw_mask_line_points_init:dx <- $r8
	@DEBUG_VALUE: lv_draw_mask_line_points_init:param <- $r4
	@DEBUG_VALUE: lv_draw_mask_line_points_init:dy <- $r1
	.loc	6 237 12 is_stmt 1              @ lvgl/src/lv_draw/lv_draw_mask.c:237:12
	cbz	r1, .LBB5_10
.Ltmp75:
@ %bb.9:
	@DEBUG_VALUE: lv_draw_mask_line_points_init:side <- $r9
	@DEBUG_VALUE: lv_draw_mask_line_points_init:dx <- $r8
	@DEBUG_VALUE: lv_draw_mask_line_points_init:param <- $r4
	@DEBUG_VALUE: lv_draw_mask_line_points_init:dy <- $r1
	.loc	6 0 12 is_stmt 0                @ lvgl/src/lv_draw/lv_draw_mask.c:0:12
	mov.w	r0, #1048576
.Ltmp76:
	.loc	6 238 27 is_stmt 1              @ lvgl/src/lv_draw/lv_draw_mask.c:238:27
	sdiv	r0, r0, r1
.Ltmp77:
	@DEBUG_VALUE: m <- $r0
	.loc	6 239 34                        @ lvgl/src/lv_draw/lv_draw_mask.c:239:34
	mul	r0, r0, r8
.Ltmp78:
	.loc	6 239 40 is_stmt 0              @ lvgl/src/lv_draw/lv_draw_mask.c:239:40
	asrs	r0, r0, #10
	.loc	6 239 29                        @ lvgl/src/lv_draw/lv_draw_mask.c:239:29
	str	r0, [r6]
.Ltmp79:
.LBB5_10:
	@DEBUG_VALUE: lv_draw_mask_line_points_init:side <- $r9
	@DEBUG_VALUE: lv_draw_mask_line_points_init:dx <- $r8
	@DEBUG_VALUE: lv_draw_mask_line_points_init:param <- $r4
	@DEBUG_VALUE: lv_draw_mask_line_points_init:dy <- $r1
	.loc	6 242 12 is_stmt 1              @ lvgl/src/lv_draw/lv_draw_mask.c:242:12
	cmp.w	r8, #0
	beq	.LBB5_12
.Ltmp80:
@ %bb.11:
	@DEBUG_VALUE: lv_draw_mask_line_points_init:side <- $r9
	@DEBUG_VALUE: lv_draw_mask_line_points_init:dx <- $r8
	@DEBUG_VALUE: lv_draw_mask_line_points_init:param <- $r4
	@DEBUG_VALUE: lv_draw_mask_line_points_init:dy <- $r1
	.loc	6 0 12 is_stmt 0                @ lvgl/src/lv_draw/lv_draw_mask.c:0:12
	mov.w	r0, #1048576
.Ltmp81:
	.loc	6 243 27 is_stmt 1              @ lvgl/src/lv_draw/lv_draw_mask.c:243:27
	sdiv	r0, r0, r8
.Ltmp82:
	@DEBUG_VALUE: m <- $r0
	.loc	6 244 34                        @ lvgl/src/lv_draw/lv_draw_mask.c:244:34
	muls	r0, r1, r0
.Ltmp83:
	.loc	6 244 40 is_stmt 0              @ lvgl/src/lv_draw/lv_draw_mask.c:244:40
	asrs	r0, r0, #10
	.loc	6 244 29                        @ lvgl/src/lv_draw/lv_draw_mask.c:244:29
	str	r0, [r3]
.Ltmp84:
.LBB5_12:
	@DEBUG_VALUE: lv_draw_mask_line_points_init:side <- $r9
	@DEBUG_VALUE: lv_draw_mask_line_points_init:dx <- $r8
	@DEBUG_VALUE: lv_draw_mask_line_points_init:param <- $r4
	@DEBUG_VALUE: lv_draw_mask_line_points_init:dy <- $r1
	.loc	6 0 29                          @ lvgl/src/lv_draw/lv_draw_mask.c:0:29
	mov	r3, r6
.Ltmp85:
.LBB5_13:
	@DEBUG_VALUE: lv_draw_mask_line_points_init:side <- $r9
	@DEBUG_VALUE: lv_draw_mask_line_points_init:dx <- $r8
	@DEBUG_VALUE: lv_draw_mask_line_points_init:param <- $r4
	@DEBUG_VALUE: lv_draw_mask_line_points_init:dy <- $r1
	.loc	6 249 8 is_stmt 1               @ lvgl/src/lv_draw/lv_draw_mask.c:249:8
	cmp.w	lr, #2
.Ltmp86:
	.loc	6 0 0 is_stmt 0                 @ lvgl/src/lv_draw/lv_draw_mask.c:0:0
	ldr	r0, [r3]
	str	r0, [r4, #32]
.Ltmp87:
	.loc	6 249 8                         @ lvgl/src/lv_draw/lv_draw_mask.c:249:8
	beq	.LBB5_17
.Ltmp88:
@ %bb.14:
	@DEBUG_VALUE: lv_draw_mask_line_points_init:side <- $r9
	@DEBUG_VALUE: lv_draw_mask_line_points_init:dx <- $r8
	@DEBUG_VALUE: lv_draw_mask_line_points_init:param <- $r4
	@DEBUG_VALUE: lv_draw_mask_line_points_init:dy <- $r1
	cmp.w	lr, #1
	beq	.LBB5_19
.Ltmp89:
@ %bb.15:
	@DEBUG_VALUE: lv_draw_mask_line_points_init:side <- $r9
	@DEBUG_VALUE: lv_draw_mask_line_points_init:dx <- $r8
	@DEBUG_VALUE: lv_draw_mask_line_points_init:param <- $r4
	@DEBUG_VALUE: lv_draw_mask_line_points_init:dy <- $r1
	cmp.w	lr, #0
	bne	.LBB5_20
.Ltmp90:
@ %bb.16:
	@DEBUG_VALUE: lv_draw_mask_line_points_init:side <- $r9
	@DEBUG_VALUE: lv_draw_mask_line_points_init:dx <- $r8
	@DEBUG_VALUE: lv_draw_mask_line_points_init:param <- $r4
	@DEBUG_VALUE: lv_draw_mask_line_points_init:dy <- $r1
	.loc	6 249 67                        @ lvgl/src/lv_draw/lv_draw_mask.c:249:67
	and	r0, r12, #253
	.loc	6 249 56                        @ lvgl/src/lv_draw/lv_draw_mask.c:249:56
	b	.LBB5_22
.Ltmp91:
.LBB5_17:
	@DEBUG_VALUE: lv_draw_mask_line_points_init:side <- $r9
	@DEBUG_VALUE: lv_draw_mask_line_points_init:dx <- $r8
	@DEBUG_VALUE: lv_draw_mask_line_points_init:param <- $r4
	@DEBUG_VALUE: lv_draw_mask_line_points_init:dy <- $r1
	.loc	6 252 19 is_stmt 1              @ lvgl/src/lv_draw/lv_draw_mask.c:252:19
	ldr	r0, [r4, #32]
.Ltmp92:
	.loc	6 252 12 is_stmt 0              @ lvgl/src/lv_draw/lv_draw_mask.c:252:12
	cmp	r0, #1
	blt	.LBB5_21
.Ltmp93:
@ %bb.18:
	@DEBUG_VALUE: lv_draw_mask_line_points_init:side <- $r9
	@DEBUG_VALUE: lv_draw_mask_line_points_init:dx <- $r8
	@DEBUG_VALUE: lv_draw_mask_line_points_init:param <- $r4
	@DEBUG_VALUE: lv_draw_mask_line_points_init:dy <- $r1
	.loc	6 252 41                        @ lvgl/src/lv_draw/lv_draw_mask.c:252:41
	orr	r0, r12, #2
	.loc	6 252 30                        @ lvgl/src/lv_draw/lv_draw_mask.c:252:30
	b	.LBB5_22
.Ltmp94:
.LBB5_19:
	@DEBUG_VALUE: lv_draw_mask_line_points_init:side <- $r9
	@DEBUG_VALUE: lv_draw_mask_line_points_init:dx <- $r8
	@DEBUG_VALUE: lv_draw_mask_line_points_init:param <- $r4
	@DEBUG_VALUE: lv_draw_mask_line_points_init:dy <- $r1
	.loc	6 250 73 is_stmt 1              @ lvgl/src/lv_draw/lv_draw_mask.c:250:73
	orr	r0, r12, #2
	.loc	6 250 62 is_stmt 0              @ lvgl/src/lv_draw/lv_draw_mask.c:250:62
	b	.LBB5_22
.Ltmp95:
.LBB5_20:
	@DEBUG_VALUE: lv_draw_mask_line_points_init:side <- $r9
	@DEBUG_VALUE: lv_draw_mask_line_points_init:dx <- $r8
	@DEBUG_VALUE: lv_draw_mask_line_points_init:param <- $r4
	@DEBUG_VALUE: lv_draw_mask_line_points_init:dy <- $r1
	.loc	6 256 19 is_stmt 1              @ lvgl/src/lv_draw/lv_draw_mask.c:256:19
	ldr	r0, [r4, #32]
.Ltmp96:
	.loc	6 256 12 is_stmt 0              @ lvgl/src/lv_draw/lv_draw_mask.c:256:12
	cmp	r0, #1
.Ltmp97:
	.loc	6 257 25 is_stmt 1              @ lvgl/src/lv_draw/lv_draw_mask.c:257:25
	ite	lt
	orrlt	r0, r12, #2
	.loc	6 256 41                        @ lvgl/src/lv_draw/lv_draw_mask.c:256:41
	andge	r0, r12, #253
	b	.LBB5_22
.Ltmp98:
.LBB5_21:
	@DEBUG_VALUE: lv_draw_mask_line_points_init:side <- $r9
	@DEBUG_VALUE: lv_draw_mask_line_points_init:dx <- $r8
	@DEBUG_VALUE: lv_draw_mask_line_points_init:param <- $r4
	@DEBUG_VALUE: lv_draw_mask_line_points_init:dy <- $r1
	.loc	6 253 25                        @ lvgl/src/lv_draw/lv_draw_mask.c:253:25
	and	r0, r12, #253
.Ltmp99:
.LBB5_22:
	@DEBUG_VALUE: lv_draw_mask_line_points_init:side <- $r9
	@DEBUG_VALUE: lv_draw_mask_line_points_init:dx <- $r8
	@DEBUG_VALUE: lv_draw_mask_line_points_init:param <- $r4
	@DEBUG_VALUE: lv_draw_mask_line_points_init:dy <- $r1
	.loc	6 260 25                        @ lvgl/src/lv_draw/lv_draw_mask.c:260:25
	ldr	r1, [r4, #32]
.Ltmp100:
	.loc	6 0 25 is_stmt 0                @ lvgl/src/lv_draw/lv_draw_mask.c:0:25
	movs	r3, #0
	.loc	6 260 31                        @ lvgl/src/lv_draw/lv_draw_mask.c:260:31
	asrs	r2, r1, #2
	.loc	6 261 8 is_stmt 1               @ lvgl/src/lv_draw/lv_draw_mask.c:261:8
	cmp	r1, #0
.Ltmp101:
	.loc	6 0 0 is_stmt 0                 @ lvgl/src/lv_draw/lv_draw_mask.c:0:0
	strb.w	r0, [r4, #40]
.Ltmp102:
	.loc	6 261 8                         @ lvgl/src/lv_draw/lv_draw_mask.c:261:8
	it	mi
	submi.w	r2, r3, r1, asr #2
	.loc	6 0 0                           @ lvgl/src/lv_draw/lv_draw_mask.c:0:0
	str	r2, [r4, #36]
	.loc	6 262 1 is_stmt 1               @ lvgl/src/lv_draw/lv_draw_mask.c:262:1
	add	sp, #4
	pop.w	{r4, r5, r6, r7, r8, r9, pc}
.Ltmp103:
.Lfunc_end5:
	.size	lv_draw_mask_line_points_init, .Lfunc_end5-lv_draw_mask_line_points_init
	.cfi_endproc
	.cantunwind
	.fnend
                                        @ -- End function
	.section	.text.lv_draw_mask_line,"ax",%progbits
	.p2align	3                               @ -- Begin function lv_draw_mask_line
	.type	lv_draw_mask_line,%function
	.code	16                              @ @lv_draw_mask_line
	.thumb_func
lv_draw_mask_line:
.Lfunc_begin6:
	.loc	6 424 0                         @ lvgl/src/lv_draw/lv_draw_mask.c:424:0
	.fnstart
	.cfi_startproc
@ %bb.0:
	@DEBUG_VALUE: lv_draw_mask_line:mask_buf <- $r0
	@DEBUG_VALUE: lv_draw_mask_line:abs_x <- $r1
	@DEBUG_VALUE: lv_draw_mask_line:abs_y <- $r2
	@DEBUG_VALUE: lv_draw_mask_line:len <- $r3
	.save	{r4, lr}
	push	{r4, lr}
	.cfi_def_cfa_offset 8
	.cfi_offset lr, -4
	.cfi_offset r4, -8
	.pad	#8
	sub	sp, #8
	.cfi_def_cfa_offset 16
	ldr.w	r12, [sp, #16]
.Ltmp104:
	@DEBUG_VALUE: lv_draw_mask_line:p <- [DW_OP_plus_uconst 16] [$sp+0]
	@DEBUG_VALUE: lv_draw_mask_line:len <- undef
	.loc	6 426 23 prologue_end           @ lvgl/src/lv_draw/lv_draw_mask.c:426:23
	ldrh.w	lr, [r12, #20]
	.loc	6 427 23                        @ lvgl/src/lv_draw/lv_draw_mask.c:427:23
	ldrh.w	r4, [r12, #18]
.Ltmp105:
	@DEBUG_VALUE: lv_draw_mask_line:len <- $r3
	@DEBUG_VALUE: lv_draw_mask_line:abs_y <- $r2
	@DEBUG_VALUE: lv_draw_mask_line:abs_x <- $r1
	@DEBUG_VALUE: lv_draw_mask_line:mask_buf <- $r0
	.loc	6 426 11                        @ lvgl/src/lv_draw/lv_draw_mask.c:426:11
	sub.w	r2, r2, lr
.Ltmp106:
	@DEBUG_VALUE: lv_draw_mask_line:abs_y <- [DW_OP_LLVM_entry_value 1] $r2
	@DEBUG_VALUE: lv_draw_mask_line:abs_y <- $r2
	.loc	6 0 0 is_stmt 0                 @ lvgl/src/lv_draw/lv_draw_mask.c:0:0
	ldrb.w	lr, [r12, #40]
	.loc	6 426 11                        @ lvgl/src/lv_draw/lv_draw_mask.c:426:11
	sxth	r2, r2
.Ltmp107:
	@DEBUG_VALUE: lv_draw_mask_line:abs_y <- [DW_OP_LLVM_entry_value 1] $r2
	.loc	6 427 11 is_stmt 1              @ lvgl/src/lv_draw/lv_draw_mask.c:427:11
	subs	r1, r1, r4
.Ltmp108:
	@DEBUG_VALUE: lv_draw_mask_line:abs_x <- [DW_OP_LLVM_entry_value 1] $r1
	@DEBUG_VALUE: lv_draw_mask_line:abs_x <- $r1
	sxth	r1, r1
.Ltmp109:
	@DEBUG_VALUE: lv_draw_mask_line:abs_x <- [DW_OP_LLVM_entry_value 1] $r1
	.loc	6 430 11                        @ lvgl/src/lv_draw/lv_draw_mask.c:430:11
	ldr.w	r4, [r12, #32]
.Ltmp110:
	.loc	6 0 0 is_stmt 0                 @ lvgl/src/lv_draw/lv_draw_mask.c:0:0
	and	lr, lr, #1
	.loc	6 430 8                         @ lvgl/src/lv_draw/lv_draw_mask.c:430:8
	cbz	r4, .LBB6_3
.Ltmp111:
@ %bb.1:
	@DEBUG_VALUE: lv_draw_mask_line:len <- $r3
	@DEBUG_VALUE: lv_draw_mask_line:mask_buf <- $r0
	@DEBUG_VALUE: lv_draw_mask_line:p <- [DW_OP_plus_uconst 16] [$sp+0]
	@DEBUG_VALUE: lv_draw_mask_line:abs_x <- [DW_OP_LLVM_entry_value 1] $r1
	@DEBUG_VALUE: lv_draw_mask_line:abs_y <- [DW_OP_LLVM_entry_value 1] $r2
	.loc	6 471 8 is_stmt 1               @ lvgl/src/lv_draw/lv_draw_mask.c:471:8
	cmp.w	lr, #0
	bne	.LBB6_9
.Ltmp112:
@ %bb.2:
	@DEBUG_VALUE: lv_draw_mask_line:len <- $r3
	@DEBUG_VALUE: lv_draw_mask_line:mask_buf <- $r0
	@DEBUG_VALUE: lv_draw_mask_line:p <- [DW_OP_plus_uconst 16] [$sp+0]
	@DEBUG_VALUE: lv_draw_mask_line:abs_x <- [DW_OP_LLVM_entry_value 1] $r1
	@DEBUG_VALUE: lv_draw_mask_line:abs_y <- [DW_OP_LLVM_entry_value 1] $r2
	.loc	6 475 15                        @ lvgl/src/lv_draw/lv_draw_mask.c:475:15
	str.w	r12, [sp]
	bl	line_mask_steep
.Ltmp113:
	@DEBUG_VALUE: lv_draw_mask_line:mask_buf <- [DW_OP_LLVM_entry_value 1] $r0
	@DEBUG_VALUE: lv_draw_mask_line:res <- undef
	.loc	6 479 1                         @ lvgl/src/lv_draw/lv_draw_mask.c:479:1
	add	sp, #8
	pop	{r4, pc}
.Ltmp114:
.LBB6_3:
	@DEBUG_VALUE: lv_draw_mask_line:len <- $r3
	@DEBUG_VALUE: lv_draw_mask_line:mask_buf <- $r0
	@DEBUG_VALUE: lv_draw_mask_line:p <- [DW_OP_plus_uconst 16] [$sp+0]
	@DEBUG_VALUE: lv_draw_mask_line:abs_x <- [DW_OP_LLVM_entry_value 1] $r1
	@DEBUG_VALUE: lv_draw_mask_line:abs_y <- [DW_OP_LLVM_entry_value 1] $r2
	.loc	6 0 0 is_stmt 0                 @ lvgl/src/lv_draw/lv_draw_mask.c:0:0
	ldrb.w	r12, [r12, #16]
.Ltmp115:
	.loc	6 432 12 is_stmt 1              @ lvgl/src/lv_draw/lv_draw_mask.c:432:12
	cmp.w	lr, #0
	bne	.LBB6_10
.Ltmp116:
@ %bb.4:
	@DEBUG_VALUE: lv_draw_mask_line:len <- $r3
	@DEBUG_VALUE: lv_draw_mask_line:mask_buf <- $r0
	@DEBUG_VALUE: lv_draw_mask_line:p <- [DW_OP_plus_uconst 16] [$sp+0]
	@DEBUG_VALUE: lv_draw_mask_line:abs_x <- [DW_OP_LLVM_entry_value 1] $r1
	@DEBUG_VALUE: lv_draw_mask_line:abs_y <- [DW_OP_LLVM_entry_value 1] $r2
	.loc	6 445 23                        @ lvgl/src/lv_draw/lv_draw_mask.c:445:23
	and	r2, r12, #3
	.loc	6 445 58 is_stmt 0              @ lvgl/src/lv_draw/lv_draw_mask.c:445:58
	subs	r4, r2, #2
	cmp	r4, #2
	blo	.LBB6_15
.Ltmp117:
@ %bb.5:
	@DEBUG_VALUE: lv_draw_mask_line:len <- $r3
	@DEBUG_VALUE: lv_draw_mask_line:mask_buf <- $r0
	@DEBUG_VALUE: lv_draw_mask_line:p <- [DW_OP_plus_uconst 16] [$sp+0]
	@DEBUG_VALUE: lv_draw_mask_line:abs_x <- [DW_OP_LLVM_entry_value 1] $r1
	@DEBUG_VALUE: lv_draw_mask_line:abs_y <- [DW_OP_LLVM_entry_value 1] $r2
	cbnz	r2, .LBB6_14
.Ltmp118:
.LBB6_6:
	@DEBUG_VALUE: lv_draw_mask_line:len <- $r3
	@DEBUG_VALUE: lv_draw_mask_line:mask_buf <- $r0
	@DEBUG_VALUE: lv_draw_mask_line:p <- [DW_OP_plus_uconst 16] [$sp+0]
	@DEBUG_VALUE: lv_draw_mask_line:abs_x <- [DW_OP_LLVM_entry_value 1] $r1
	@DEBUG_VALUE: lv_draw_mask_line:abs_y <- [DW_OP_LLVM_entry_value 1] $r2
	.loc	6 449 26 is_stmt 1              @ lvgl/src/lv_draw/lv_draw_mask.c:449:26
	adds	r2, r1, r3
.Ltmp119:
	.loc	6 449 20 is_stmt 0              @ lvgl/src/lv_draw/lv_draw_mask.c:449:20
	bmi	.LBB6_15
.Ltmp120:
@ %bb.7:
	@DEBUG_VALUE: lv_draw_mask_line:len <- $r3
	@DEBUG_VALUE: lv_draw_mask_line:mask_buf <- $r0
	@DEBUG_VALUE: lv_draw_mask_line:p <- [DW_OP_plus_uconst 16] [$sp+0]
	@DEBUG_VALUE: lv_draw_mask_line:abs_x <- [DW_OP_LLVM_entry_value 1] $r1
	@DEBUG_VALUE: lv_draw_mask_line:abs_y <- [DW_OP_LLVM_entry_value 1] $r2
	@DEBUG_VALUE: k <- undef
	.loc	6 452 24 is_stmt 1              @ lvgl/src/lv_draw/lv_draw_mask.c:452:24
	cmp	r1, #0
	ble	.LBB6_19
.Ltmp121:
.LBB6_8:
	@DEBUG_VALUE: lv_draw_mask_line:len <- $r3
	@DEBUG_VALUE: lv_draw_mask_line:mask_buf <- $r0
	@DEBUG_VALUE: lv_draw_mask_line:p <- [DW_OP_plus_uconst 16] [$sp+0]
	@DEBUG_VALUE: lv_draw_mask_line:abs_x <- [DW_OP_LLVM_entry_value 1] $r1
	@DEBUG_VALUE: lv_draw_mask_line:abs_y <- [DW_OP_LLVM_entry_value 1] $r2
	.loc	6 0 24 is_stmt 0                @ lvgl/src/lv_draw/lv_draw_mask.c:0:24
	movs	r0, #0
.Ltmp122:
	@DEBUG_VALUE: lv_draw_mask_line:mask_buf <- [DW_OP_LLVM_entry_value 1] $r0
	.loc	6 479 1 is_stmt 1               @ lvgl/src/lv_draw/lv_draw_mask.c:479:1
	add	sp, #8
	pop	{r4, pc}
.Ltmp123:
.LBB6_9:
	@DEBUG_VALUE: lv_draw_mask_line:len <- $r3
	@DEBUG_VALUE: lv_draw_mask_line:mask_buf <- $r0
	@DEBUG_VALUE: lv_draw_mask_line:p <- [DW_OP_plus_uconst 16] [$sp+0]
	@DEBUG_VALUE: lv_draw_mask_line:abs_x <- [DW_OP_LLVM_entry_value 1] $r1
	@DEBUG_VALUE: lv_draw_mask_line:abs_y <- [DW_OP_LLVM_entry_value 1] $r2
	.loc	6 472 15                        @ lvgl/src/lv_draw/lv_draw_mask.c:472:15
	str.w	r12, [sp]
	bl	line_mask_flat
.Ltmp124:
	@DEBUG_VALUE: lv_draw_mask_line:mask_buf <- [DW_OP_LLVM_entry_value 1] $r0
	@DEBUG_VALUE: lv_draw_mask_line:res <- undef
	.loc	6 479 1                         @ lvgl/src/lv_draw/lv_draw_mask.c:479:1
	add	sp, #8
	pop	{r4, pc}
.Ltmp125:
.LBB6_10:
	@DEBUG_VALUE: lv_draw_mask_line:len <- $r3
	@DEBUG_VALUE: lv_draw_mask_line:mask_buf <- $r0
	@DEBUG_VALUE: lv_draw_mask_line:p <- [DW_OP_plus_uconst 16] [$sp+0]
	@DEBUG_VALUE: lv_draw_mask_line:abs_x <- [DW_OP_LLVM_entry_value 1] $r1
	@DEBUG_VALUE: lv_draw_mask_line:abs_y <- [DW_OP_LLVM_entry_value 1] $r2
	.loc	6 434 59                        @ lvgl/src/lv_draw/lv_draw_mask.c:434:59
	sbfx	r0, r12, #0, #2
.Ltmp126:
	@DEBUG_VALUE: lv_draw_mask_line:mask_buf <- [DW_OP_LLVM_entry_value 1] $r0
	cmp.w	r0, #-1
	bgt	.LBB6_15
.Ltmp127:
@ %bb.11:
	@DEBUG_VALUE: lv_draw_mask_line:len <- $r3
	@DEBUG_VALUE: lv_draw_mask_line:p <- [DW_OP_plus_uconst 16] [$sp+0]
	@DEBUG_VALUE: lv_draw_mask_line:mask_buf <- [DW_OP_LLVM_entry_value 1] $r0
	@DEBUG_VALUE: lv_draw_mask_line:abs_x <- [DW_OP_LLVM_entry_value 1] $r1
	@DEBUG_VALUE: lv_draw_mask_line:abs_y <- [DW_OP_LLVM_entry_value 1] $r2
	and	r0, r12, #3
	cmp	r0, #2
	bne	.LBB6_13
.Ltmp128:
@ %bb.12:
	@DEBUG_VALUE: lv_draw_mask_line:len <- $r3
	@DEBUG_VALUE: lv_draw_mask_line:p <- [DW_OP_plus_uconst 16] [$sp+0]
	@DEBUG_VALUE: lv_draw_mask_line:mask_buf <- [DW_OP_LLVM_entry_value 1] $r0
	@DEBUG_VALUE: lv_draw_mask_line:abs_x <- [DW_OP_LLVM_entry_value 1] $r1
	@DEBUG_VALUE: lv_draw_mask_line:abs_y <- [DW_OP_LLVM_entry_value 1] $r2
	.loc	6 436 21                        @ lvgl/src/lv_draw/lv_draw_mask.c:436:21
	cmp.w	r2, #-1
	blt	.LBB6_15
.Ltmp129:
.LBB6_13:
	@DEBUG_VALUE: lv_draw_mask_line:len <- $r3
	@DEBUG_VALUE: lv_draw_mask_line:p <- [DW_OP_plus_uconst 16] [$sp+0]
	@DEBUG_VALUE: lv_draw_mask_line:mask_buf <- [DW_OP_LLVM_entry_value 1] $r0
	@DEBUG_VALUE: lv_draw_mask_line:abs_x <- [DW_OP_LLVM_entry_value 1] $r1
	@DEBUG_VALUE: lv_draw_mask_line:abs_y <- [DW_OP_LLVM_entry_value 1] $r2
	.loc	6 437 33                        @ lvgl/src/lv_draw/lv_draw_mask.c:437:33
	subs	r0, #3
	movs	r1, #0
	clz	r0, r0
	cmp	r2, #0
	it	gt
	movgt	r1, #1
	lsrs	r0, r0, #5
	.loc	6 437 66 is_stmt 0              @ lvgl/src/lv_draw/lv_draw_mask.c:437:66
	ands	r0, r1
	add	sp, #8
	pop	{r4, pc}
.Ltmp130:
.LBB6_14:
	@DEBUG_VALUE: lv_draw_mask_line:len <- $r3
	@DEBUG_VALUE: lv_draw_mask_line:mask_buf <- $r0
	@DEBUG_VALUE: lv_draw_mask_line:p <- [DW_OP_plus_uconst 16] [$sp+0]
	@DEBUG_VALUE: lv_draw_mask_line:abs_x <- [DW_OP_LLVM_entry_value 1] $r1
	@DEBUG_VALUE: lv_draw_mask_line:abs_y <- [DW_OP_LLVM_entry_value 1] $r2
	.loc	6 447 21 is_stmt 1              @ lvgl/src/lv_draw/lv_draw_mask.c:447:21
	cmp	r1, #0
	ble	.LBB6_16
.Ltmp131:
.LBB6_15:
	@DEBUG_VALUE: lv_draw_mask_line:len <- $r3
	@DEBUG_VALUE: lv_draw_mask_line:p <- [DW_OP_plus_uconst 16] [$sp+0]
	@DEBUG_VALUE: lv_draw_mask_line:abs_x <- [DW_OP_LLVM_entry_value 1] $r1
	@DEBUG_VALUE: lv_draw_mask_line:abs_y <- [DW_OP_LLVM_entry_value 1] $r2
	.loc	6 0 21 is_stmt 0                @ lvgl/src/lv_draw/lv_draw_mask.c:0:21
	movs	r0, #1
	.loc	6 479 1 is_stmt 1               @ lvgl/src/lv_draw/lv_draw_mask.c:479:1
	add	sp, #8
	pop	{r4, pc}
.Ltmp132:
.LBB6_16:
	@DEBUG_VALUE: lv_draw_mask_line:len <- $r3
	@DEBUG_VALUE: lv_draw_mask_line:mask_buf <- $r0
	@DEBUG_VALUE: lv_draw_mask_line:p <- [DW_OP_plus_uconst 16] [$sp+0]
	@DEBUG_VALUE: lv_draw_mask_line:abs_x <- [DW_OP_LLVM_entry_value 1] $r1
	@DEBUG_VALUE: lv_draw_mask_line:abs_y <- [DW_OP_LLVM_entry_value 1] $r2
	.loc	6 448 21                        @ lvgl/src/lv_draw/lv_draw_mask.c:448:21
	cmp	r2, #0
	beq	.LBB6_6
.Ltmp133:
@ %bb.17:
	@DEBUG_VALUE: lv_draw_mask_line:len <- $r3
	@DEBUG_VALUE: lv_draw_mask_line:mask_buf <- $r0
	@DEBUG_VALUE: lv_draw_mask_line:p <- [DW_OP_plus_uconst 16] [$sp+0]
	@DEBUG_VALUE: lv_draw_mask_line:abs_x <- [DW_OP_LLVM_entry_value 1] $r1
	@DEBUG_VALUE: lv_draw_mask_line:abs_y <- [DW_OP_LLVM_entry_value 1] $r2
	.loc	6 458 26                        @ lvgl/src/lv_draw/lv_draw_mask.c:458:26
	adds	r2, r1, r3
.Ltmp134:
	.loc	6 458 20 is_stmt 0              @ lvgl/src/lv_draw/lv_draw_mask.c:458:20
	bmi	.LBB6_8
.Ltmp135:
@ %bb.18:
	@DEBUG_VALUE: lv_draw_mask_line:len <- $r3
	@DEBUG_VALUE: lv_draw_mask_line:mask_buf <- $r0
	@DEBUG_VALUE: lv_draw_mask_line:p <- [DW_OP_plus_uconst 16] [$sp+0]
	@DEBUG_VALUE: lv_draw_mask_line:abs_x <- [DW_OP_LLVM_entry_value 1] $r1
	@DEBUG_VALUE: lv_draw_mask_line:abs_y <- [DW_OP_LLVM_entry_value 1] $r2
	.loc	6 460 33 is_stmt 1              @ lvgl/src/lv_draw/lv_draw_mask.c:460:33
	rsbs	r2, r1, #0
.Ltmp136:
	@DEBUG_VALUE: k <- $r2
	.loc	6 461 24                        @ lvgl/src/lv_draw/lv_draw_mask.c:461:24
	cmp	r1, #0
	it	gt
	movgt	r2, #0
.Ltmp137:
	@DEBUG_VALUE: k <- $r2
	.loc	6 462 24                        @ lvgl/src/lv_draw/lv_draw_mask.c:462:24
	cmp	r2, r3
	bge	.LBB6_8
	b	.LBB6_21
.Ltmp138:
.LBB6_19:
	@DEBUG_VALUE: lv_draw_mask_line:len <- $r3
	@DEBUG_VALUE: lv_draw_mask_line:mask_buf <- $r0
	@DEBUG_VALUE: lv_draw_mask_line:p <- [DW_OP_plus_uconst 16] [$sp+0]
	@DEBUG_VALUE: lv_draw_mask_line:abs_x <- [DW_OP_LLVM_entry_value 1] $r1
	@DEBUG_VALUE: lv_draw_mask_line:abs_y <- [DW_OP_LLVM_entry_value 1] $r2
	.loc	6 0 24 is_stmt 0                @ lvgl/src/lv_draw/lv_draw_mask.c:0:24
	rsbs	r1, r1, #0
.Ltmp139:
	@DEBUG_VALUE: k <- $r1
	.loc	6 453 24 is_stmt 1              @ lvgl/src/lv_draw/lv_draw_mask.c:453:24
	cmp	r3, r1
	ble	.LBB6_22
.Ltmp140:
@ %bb.20:
	@DEBUG_VALUE: lv_draw_mask_line:len <- $r3
	@DEBUG_VALUE: k <- $r1
	@DEBUG_VALUE: lv_draw_mask_line:mask_buf <- $r0
	@DEBUG_VALUE: lv_draw_mask_line:p <- [DW_OP_plus_uconst 16] [$sp+0]
	@DEBUG_VALUE: lv_draw_mask_line:abs_x <- [DW_OP_LLVM_entry_value 1] $r1
	@DEBUG_VALUE: lv_draw_mask_line:abs_y <- [DW_OP_LLVM_entry_value 1] $r2
	.loc	6 453 58 is_stmt 0              @ lvgl/src/lv_draw/lv_draw_mask.c:453:58
	add	r0, r1
.Ltmp141:
	@DEBUG_VALUE: lv_draw_mask_line:mask_buf <- [DW_OP_LLVM_entry_value 1] $r0
.LBB6_21:
	@DEBUG_VALUE: lv_draw_mask_line:len <- $r3
	@DEBUG_VALUE: lv_draw_mask_line:p <- [DW_OP_plus_uconst 16] [$sp+0]
	@DEBUG_VALUE: lv_draw_mask_line:abs_x <- [DW_OP_LLVM_entry_value 1] $r1
	@DEBUG_VALUE: lv_draw_mask_line:abs_y <- [DW_OP_LLVM_entry_value 1] $r2
	.loc	6 0 0                           @ lvgl/src/lv_draw/lv_draw_mask.c:0:0
	mov	r1, r2
	bl	_lv_memset_00
.Ltmp142:
.LBB6_22:
	@DEBUG_VALUE: lv_draw_mask_line:p <- [DW_OP_plus_uconst 16] [$sp+0]
	@DEBUG_VALUE: lv_draw_mask_line:abs_x <- [DW_OP_LLVM_entry_value 1] $r1
	@DEBUG_VALUE: lv_draw_mask_line:abs_y <- [DW_OP_LLVM_entry_value 1] $r2
	movs	r0, #2
	.loc	6 479 1 is_stmt 1               @ lvgl/src/lv_draw/lv_draw_mask.c:479:1
	add	sp, #8
	pop	{r4, pc}
.Ltmp143:
.Lfunc_end6:
	.size	lv_draw_mask_line, .Lfunc_end6-lv_draw_mask_line
	.cfi_endproc
	.cantunwind
	.fnend
                                        @ -- End function
	.section	.text.lv_draw_mask_line_angle_init,"ax",%progbits
	.hidden	lv_draw_mask_line_angle_init    @ -- Begin function lv_draw_mask_line_angle_init
	.globl	lv_draw_mask_line_angle_init
	.p2align	3
	.type	lv_draw_mask_line_angle_init,%function
	.code	16                              @ @lv_draw_mask_line_angle_init
	.thumb_func
lv_draw_mask_line_angle_init:
.Lfunc_begin7:
	.loc	6 276 0                         @ lvgl/src/lv_draw/lv_draw_mask.c:276:0
	.fnstart
	.cfi_startproc
@ %bb.0:
	@DEBUG_VALUE: lv_draw_mask_line_angle_init:param <- $r0
	@DEBUG_VALUE: lv_draw_mask_line_angle_init:p1x <- $r1
	@DEBUG_VALUE: lv_draw_mask_line_angle_init:py <- $r2
	@DEBUG_VALUE: lv_draw_mask_line_angle_init:angle <- $r3
	.save	{r4, r5, r6, r7, r8, r9, lr}
	push.w	{r4, r5, r6, r7, r8, r9, lr}
	.cfi_def_cfa_offset 28
	.cfi_offset lr, -4
	.cfi_offset r9, -8
	.cfi_offset r8, -12
	.cfi_offset r7, -16
	.cfi_offset r6, -20
	.cfi_offset r5, -24
	.cfi_offset r4, -28
	.pad	#12
	sub	sp, #12
	.cfi_def_cfa_offset 40
	subs.w	r7, r3, #180
	@DEBUG_VALUE: lv_draw_mask_line_angle_init:angle <- $r3
	mov	r9, r0
.Ltmp144:
	@DEBUG_VALUE: lv_draw_mask_line_angle_init:param <- $r9
	@DEBUG_VALUE: lv_draw_mask_line_angle_init:param <- $r9
	.loc	6 281 8 prologue_end            @ lvgl/src/lv_draw/lv_draw_mask.c:281:8
	it	le
	movle	r7, r3
.Ltmp145:
	@DEBUG_VALUE: lv_draw_mask_line_angle_init:angle <- $r7
	@DEBUG_VALUE: lv_draw_mask_line_angle_init:angle <- $r7
	.loc	6 0 8 is_stmt 0                 @ lvgl/src/lv_draw/lv_draw_mask.c:0:8
	mov	r4, r2
.Ltmp146:
	@DEBUG_VALUE: lv_draw_mask_line_angle_init:py <- $r4
	@DEBUG_VALUE: lv_draw_mask_line_angle_init:py <- $r4
	mov	r5, r1
.Ltmp147:
	@DEBUG_VALUE: lv_draw_mask_line_angle_init:p1x <- $r5
	@DEBUG_VALUE: lv_draw_mask_line_angle_init:p1x <- $r5
	.loc	6 286 32 is_stmt 1              @ lvgl/src/lv_draw/lv_draw_mask.c:286:32
	add.w	r0, r7, #90
	ldr.w	r8, [sp, #40]
	@DEBUG_VALUE: lv_draw_mask_line_angle_init:side <- undef
	.loc	6 286 12 is_stmt 0              @ lvgl/src/lv_draw/lv_draw_mask.c:286:12
	sxth	r0, r0
	bl	_lv_trigo_sin
	.loc	6 286 44                        @ lvgl/src/lv_draw/lv_draw_mask.c:286:44
	add.w	r6, r5, r0, lsr #5
.Ltmp148:
	@DEBUG_VALUE: lv_draw_mask_line_angle_init:p2x <- undef
	.loc	6 287 12 is_stmt 1              @ lvgl/src/lv_draw/lv_draw_mask.c:287:12
	sxth	r0, r7
	bl	_lv_trigo_sin
	.loc	6 289 5                         @ lvgl/src/lv_draw/lv_draw_mask.c:289:5
	sxth	r3, r6
	.loc	6 287 39                        @ lvgl/src/lv_draw/lv_draw_mask.c:287:39
	add.w	r0, r4, r0, lsr #5
.Ltmp149:
	@DEBUG_VALUE: lv_draw_mask_line_angle_init:p2y <- undef
	.loc	6 289 5                         @ lvgl/src/lv_draw/lv_draw_mask.c:289:5
	sxth	r0, r0
	str	r0, [sp]
	mov	r0, r9
.Ltmp150:
	@DEBUG_VALUE: lv_draw_mask_line_angle_init:param <- $r0
	mov	r1, r5
	mov	r2, r4
	str.w	r8, [sp, #4]
	bl	lv_draw_mask_line_points_init
.Ltmp151:
	@DEBUG_VALUE: lv_draw_mask_line_angle_init:param <- [DW_OP_LLVM_entry_value 1] $r0
	.loc	6 290 1                         @ lvgl/src/lv_draw/lv_draw_mask.c:290:1
	add	sp, #12
	pop.w	{r4, r5, r6, r7, r8, r9, pc}
.Ltmp152:
.Lfunc_end7:
	.size	lv_draw_mask_line_angle_init, .Lfunc_end7-lv_draw_mask_line_angle_init
	.cfi_endproc
	.cantunwind
	.fnend
                                        @ -- End function
	.section	.text.lv_draw_mask_angle_init,"ax",%progbits
	.hidden	lv_draw_mask_angle_init         @ -- Begin function lv_draw_mask_angle_init
	.globl	lv_draw_mask_angle_init
	.p2align	3
	.type	lv_draw_mask_angle_init,%function
	.code	16                              @ @lv_draw_mask_angle_init
	.thumb_func
lv_draw_mask_angle_init:
.Lfunc_begin8:
	.loc	6 302 0                         @ lvgl/src/lv_draw/lv_draw_mask.c:302:0
	.fnstart
	.cfi_startproc
@ %bb.0:
	@DEBUG_VALUE: lv_draw_mask_angle_init:param <- $r0
	@DEBUG_VALUE: lv_draw_mask_angle_init:vertex_x <- $r1
	@DEBUG_VALUE: lv_draw_mask_angle_init:vertex_y <- $r2
	@DEBUG_VALUE: lv_draw_mask_angle_init:start_angle <- $r3
	.save	{r4, r5, r6, r7, r8, lr}
	push.w	{r4, r5, r6, r7, r8, lr}
	.cfi_def_cfa_offset 24
	.cfi_offset lr, -4
	.cfi_offset r8, -8
	.cfi_offset r7, -12
	.cfi_offset r6, -16
	.cfi_offset r5, -20
	.cfi_offset r4, -24
	.pad	#8
	sub	sp, #8
	.cfi_def_cfa_offset 32
	ldr	r7, [sp, #32]
	movw	r6, #359
.Ltmp153:
	@DEBUG_VALUE: lv_draw_mask_angle_init:end_angle <- $r7
	@DEBUG_VALUE: lv_draw_mask_angle_init:start_angle <- $r3
	.loc	6 307 8 prologue_end            @ lvgl/src/lv_draw/lv_draw_mask.c:307:8
	cmp.w	r3, #358
	mov	r8, r2
.Ltmp154:
	@DEBUG_VALUE: lv_draw_mask_angle_init:vertex_y <- $r8
	@DEBUG_VALUE: lv_draw_mask_angle_init:vertex_y <- $r8
	it	gt
	movgt	r3, r6
.Ltmp155:
	@DEBUG_VALUE: lv_draw_mask_angle_init:start_angle <- [DW_OP_LLVM_entry_value 1] $r3
	.loc	6 312 8                         @ lvgl/src/lv_draw/lv_draw_mask.c:312:8
	cmp.w	r7, #358
	mov	r5, r1
.Ltmp156:
	@DEBUG_VALUE: lv_draw_mask_angle_init:vertex_x <- $r5
	@DEBUG_VALUE: lv_draw_mask_angle_init:vertex_x <- $r5
	it	le
	movle	r6, r7
.Ltmp157:
	@DEBUG_VALUE: lv_draw_mask_angle_init:end_angle <- $r6
	.loc	6 307 8                         @ lvgl/src/lv_draw/lv_draw_mask.c:307:8
	bic.w	r3, r3, r3, asr #31
.Ltmp158:
	@DEBUG_VALUE: lv_draw_mask_angle_init:start_angle <- $r3
	.loc	6 312 8                         @ lvgl/src/lv_draw/lv_draw_mask.c:312:8
	bic.w	r7, r6, r6, asr #31
.Ltmp159:
	@DEBUG_VALUE: lv_draw_mask_angle_init:end_angle <- $r7
	.loc	6 0 8 is_stmt 0                 @ lvgl/src/lv_draw/lv_draw_mask.c:0:8
	mov	r6, r0
.Ltmp160:
	@DEBUG_VALUE: lv_draw_mask_angle_init:param <- $r6
	@DEBUG_VALUE: lv_draw_mask_angle_init:param <- $r6
	.loc	6 317 8 is_stmt 1               @ lvgl/src/lv_draw/lv_draw_mask.c:317:8
	cmp	r7, r3
	bge	.LBB8_2
.Ltmp161:
@ %bb.1:
	@DEBUG_VALUE: lv_draw_mask_angle_init:vertex_y <- $r8
	@DEBUG_VALUE: lv_draw_mask_angle_init:end_angle <- $r7
	@DEBUG_VALUE: lv_draw_mask_angle_init:param <- $r6
	@DEBUG_VALUE: lv_draw_mask_angle_init:vertex_x <- $r5
	@DEBUG_VALUE: lv_draw_mask_angle_init:start_angle <- $r3
	.loc	6 318 46                        @ lvgl/src/lv_draw/lv_draw_mask.c:318:46
	subs	r0, r7, r3
	add.w	r0, r0, #360
	.loc	6 319 5                         @ lvgl/src/lv_draw/lv_draw_mask.c:319:5
	b	.LBB8_3
.Ltmp162:
.LBB8_2:
	@DEBUG_VALUE: lv_draw_mask_angle_init:vertex_y <- $r8
	@DEBUG_VALUE: lv_draw_mask_angle_init:end_angle <- $r7
	@DEBUG_VALUE: lv_draw_mask_angle_init:param <- $r6
	@DEBUG_VALUE: lv_draw_mask_angle_init:vertex_x <- $r5
	@DEBUG_VALUE: lv_draw_mask_angle_init:start_angle <- $r3
	.loc	6 317 20                        @ lvgl/src/lv_draw/lv_draw_mask.c:317:20
	uxth	r0, r3
	.loc	6 317 8 is_stmt 0               @ lvgl/src/lv_draw/lv_draw_mask.c:317:8
	uxth	r1, r7
.Ltmp163:
	.loc	6 321 28 is_stmt 1              @ lvgl/src/lv_draw/lv_draw_mask.c:321:28
	subs	r0, r1, r0
	it	mi
	rsbmi	r0, r0, #0
.Ltmp164:
.LBB8_3:
	@DEBUG_VALUE: lv_draw_mask_angle_init:vertex_y <- $r8
	@DEBUG_VALUE: lv_draw_mask_angle_init:end_angle <- $r7
	@DEBUG_VALUE: lv_draw_mask_angle_init:param <- $r6
	@DEBUG_VALUE: lv_draw_mask_angle_init:vertex_x <- $r5
	@DEBUG_VALUE: lv_draw_mask_angle_init:start_angle <- $r3
	.loc	6 0 0 is_stmt 0                 @ lvgl/src/lv_draw/lv_draw_mask.c:0:0
	strh.w	r0, [r6, #104]
.Ltmp165:
	.loc	6 328 19 is_stmt 1              @ lvgl/src/lv_draw/lv_draw_mask.c:328:19
	movw	r0, :lower16:lv_draw_mask_angle
	.loc	6 324 28                        @ lvgl/src/lv_draw/lv_draw_mask.c:324:28
	strh	r3, [r6, #12]
	movs	r1, #0
	sxth	r3, r3
.Ltmp166:
	@DEBUG_VALUE: lv_draw_mask_angle_init:start_angle <- [DW_OP_LLVM_entry_value 1] $r3
	.loc	6 325 26                        @ lvgl/src/lv_draw/lv_draw_mask.c:325:26
	strh	r7, [r6, #14]
	.loc	6 326 27                        @ lvgl/src/lv_draw/lv_draw_mask.c:326:27
	strh	r5, [r6, #8]
	.loc	6 328 19                        @ lvgl/src/lv_draw/lv_draw_mask.c:328:19
	movt	r0, :upper16:lv_draw_mask_angle
	.loc	6 327 27                        @ lvgl/src/lv_draw/lv_draw_mask.c:327:27
	strh.w	r8, [r6, #10]
	cmp	r3, #179
	.loc	6 328 19                        @ lvgl/src/lv_draw/lv_draw_mask.c:328:19
	str	r0, [r6]
	mov.w	r0, #1
	.loc	6 329 21                        @ lvgl/src/lv_draw/lv_draw_mask.c:329:21
	strb	r0, [r6, #4]
	mov.w	r4, #0
	it	gt
	movgt	r1, #1
	.loc	6 325 26                        @ lvgl/src/lv_draw/lv_draw_mask.c:325:26
	sxth	r7, r7
.Ltmp167:
	@DEBUG_VALUE: lv_draw_mask_angle_init:start_side <- undef
	.loc	6 353 42                        @ lvgl/src/lv_draw/lv_draw_mask.c:353:42
	add.w	r0, r6, #16
	cmp	r7, #180
	.loc	6 353 5 is_stmt 0               @ lvgl/src/lv_draw/lv_draw_mask.c:353:5
	mov	r2, r8
	it	lt
	movlt	r4, #1
.Ltmp168:
	@DEBUG_VALUE: lv_draw_mask_angle_init:end_side <- undef
	str	r1, [sp]
	mov	r1, r5
	bl	lv_draw_mask_line_angle_init
	.loc	6 354 42 is_stmt 1              @ lvgl/src/lv_draw/lv_draw_mask.c:354:42
	add.w	r0, r6, #60
	.loc	6 354 5 is_stmt 0               @ lvgl/src/lv_draw/lv_draw_mask.c:354:5
	mov	r1, r5
	mov	r2, r8
	mov	r3, r7
	str	r4, [sp]
	bl	lv_draw_mask_line_angle_init
	.loc	6 355 1 is_stmt 1               @ lvgl/src/lv_draw/lv_draw_mask.c:355:1
	add	sp, #8
	pop.w	{r4, r5, r6, r7, r8, pc}
.Ltmp169:
.Lfunc_end8:
	.size	lv_draw_mask_angle_init, .Lfunc_end8-lv_draw_mask_angle_init
	.cfi_endproc
	.cantunwind
	.fnend
                                        @ -- End function
	.section	.text.lv_draw_mask_angle,"ax",%progbits
	.p2align	3                               @ -- Begin function lv_draw_mask_angle
	.type	lv_draw_mask_angle,%function
	.code	16                              @ @lv_draw_mask_angle
	.thumb_func
lv_draw_mask_angle:
.Lfunc_begin9:
	.loc	6 741 0                         @ lvgl/src/lv_draw/lv_draw_mask.c:741:0
	.fnstart
	.cfi_startproc
@ %bb.0:
	@DEBUG_VALUE: lv_draw_mask_angle:mask_buf <- $r0
	@DEBUG_VALUE: lv_draw_mask_angle:abs_x <- $r1
	@DEBUG_VALUE: lv_draw_mask_angle:abs_y <- $r2
	@DEBUG_VALUE: lv_draw_mask_angle:len <- $r3
	.save	{r4, r5, r6, r7, r8, r9, r10, r11, lr}
	push.w	{r4, r5, r6, r7, r8, r9, r10, r11, lr}
	.cfi_def_cfa_offset 36
	.cfi_offset lr, -4
	.cfi_offset r11, -8
	.cfi_offset r10, -12
	.cfi_offset r9, -16
	.cfi_offset r8, -20
	.cfi_offset r7, -24
	.cfi_offset r6, -28
	.cfi_offset r5, -32
	.cfi_offset r4, -36
	.pad	#4
	sub	sp, #4
	.cfi_def_cfa_offset 40
	ldr	r7, [sp, #40]
.Ltmp170:
	@DEBUG_VALUE: lv_draw_mask_angle:p <- [DW_OP_plus_uconst 40] [$sp+0]
	@DEBUG_VALUE: lv_draw_mask_angle:len <- undef
	mov	r9, r3
.Ltmp171:
	@DEBUG_VALUE: lv_draw_mask_angle:len <- $r9
	mov	r10, r2
.Ltmp172:
	@DEBUG_VALUE: lv_draw_mask_angle:abs_y <- $r10
	mov	r11, r1
.Ltmp173:
	@DEBUG_VALUE: lv_draw_mask_angle:abs_x <- $r11
	.loc	6 742 45 prologue_end           @ lvgl/src/lv_draw/lv_draw_mask.c:742:45
	ldrsh.w	r6, [r7, #10]
.Ltmp174:
	@DEBUG_VALUE: lv_draw_mask_angle:rel_x <- undef
	.loc	6 745 15                        @ lvgl/src/lv_draw/lv_draw_mask.c:745:15
	ldrsh.w	r4, [r7, #12]
.Ltmp175:
	.loc	6 743 45                        @ lvgl/src/lv_draw/lv_draw_mask.c:743:45
	ldrsh.w	r5, [r7, #8]
	mov	r8, r0
.Ltmp176:
	@DEBUG_VALUE: lv_draw_mask_angle:mask_buf <- $r8
	@DEBUG_VALUE: lv_draw_mask_angle:mask_buf <- $r8
	.loc	6 742 27                        @ lvgl/src/lv_draw/lv_draw_mask.c:742:27
	subs	r2, r2, r6
.Ltmp177:
	@DEBUG_VALUE: lv_draw_mask_angle:rel_y <- $r2
	.loc	6 745 33                        @ lvgl/src/lv_draw/lv_draw_mask.c:745:33
	cmp	r4, #179
.Ltmp178:
	.loc	6 743 27                        @ lvgl/src/lv_draw/lv_draw_mask.c:743:27
	sub.w	r0, r5, r1
.Ltmp179:
	.loc	6 745 15                        @ lvgl/src/lv_draw/lv_draw_mask.c:745:15
	uxth	r5, r4
	.loc	6 745 33 is_stmt 0              @ lvgl/src/lv_draw/lv_draw_mask.c:745:33
	bgt	.LBB9_3
.Ltmp180:
@ %bb.1:
	@DEBUG_VALUE: lv_draw_mask_angle:abs_x <- $r11
	@DEBUG_VALUE: lv_draw_mask_angle:abs_y <- $r10
	@DEBUG_VALUE: lv_draw_mask_angle:len <- $r9
	@DEBUG_VALUE: lv_draw_mask_angle:mask_buf <- $r8
	@DEBUG_VALUE: lv_draw_mask_angle:rel_y <- $r2
	@DEBUG_VALUE: lv_draw_mask_angle:p <- [DW_OP_plus_uconst 40] [$sp+0]
	.loc	6 745 15                        @ lvgl/src/lv_draw/lv_draw_mask.c:745:15
	sxth	r3, r5
	.loc	6 745 43                        @ lvgl/src/lv_draw/lv_draw_mask.c:745:43
	ldrsh.w	r1, [r7, #14]
	.loc	6 745 59                        @ lvgl/src/lv_draw/lv_draw_mask.c:745:59
	cmp	r3, r1
	ble	.LBB9_3
.Ltmp181:
@ %bb.2:
	@DEBUG_VALUE: lv_draw_mask_angle:abs_x <- $r11
	@DEBUG_VALUE: lv_draw_mask_angle:abs_y <- $r10
	@DEBUG_VALUE: lv_draw_mask_angle:len <- $r9
	@DEBUG_VALUE: lv_draw_mask_angle:mask_buf <- $r8
	@DEBUG_VALUE: lv_draw_mask_angle:rel_y <- $r2
	@DEBUG_VALUE: lv_draw_mask_angle:p <- [DW_OP_plus_uconst 40] [$sp+0]
	cmp	r1, #0
	it	ne
	cmpne	r5, #0
	bne	.LBB9_20
.Ltmp182:
.LBB9_3:
	@DEBUG_VALUE: lv_draw_mask_angle:abs_x <- $r11
	@DEBUG_VALUE: lv_draw_mask_angle:abs_y <- $r10
	@DEBUG_VALUE: lv_draw_mask_angle:len <- $r9
	@DEBUG_VALUE: lv_draw_mask_angle:mask_buf <- $r8
	@DEBUG_VALUE: lv_draw_mask_angle:rel_y <- $r2
	@DEBUG_VALUE: lv_draw_mask_angle:p <- [DW_OP_plus_uconst 40] [$sp+0]
	.loc	6 745 15                        @ lvgl/src/lv_draw/lv_draw_mask.c:745:15
	sxth	r3, r5
.Ltmp183:
	.loc	6 789 38 is_stmt 1              @ lvgl/src/lv_draw/lv_draw_mask.c:789:38
	cmp	r3, #181
	blt	.LBB9_5
.Ltmp184:
@ %bb.4:
	@DEBUG_VALUE: lv_draw_mask_angle:abs_x <- $r11
	@DEBUG_VALUE: lv_draw_mask_angle:abs_y <- $r10
	@DEBUG_VALUE: lv_draw_mask_angle:len <- $r9
	@DEBUG_VALUE: lv_draw_mask_angle:mask_buf <- $r8
	@DEBUG_VALUE: lv_draw_mask_angle:rel_y <- $r2
	@DEBUG_VALUE: lv_draw_mask_angle:p <- [DW_OP_plus_uconst 40] [$sp+0]
	.loc	6 789 48 is_stmt 0              @ lvgl/src/lv_draw/lv_draw_mask.c:789:48
	ldrsh.w	r1, [r7, #14]
	.loc	6 789 64                        @ lvgl/src/lv_draw/lv_draw_mask.c:789:64
	cmp	r1, #181
	it	ge
	cmpge	r3, r1
	bgt	.LBB9_23
.Ltmp185:
.LBB9_5:
	@DEBUG_VALUE: lv_draw_mask_angle:abs_x <- $r11
	@DEBUG_VALUE: lv_draw_mask_angle:abs_y <- $r10
	@DEBUG_VALUE: lv_draw_mask_angle:len <- $r9
	@DEBUG_VALUE: lv_draw_mask_angle:mask_buf <- $r8
	@DEBUG_VALUE: lv_draw_mask_angle:rel_y <- $r2
	@DEBUG_VALUE: lv_draw_mask_angle:p <- [DW_OP_plus_uconst 40] [$sp+0]
	@DEBUG_VALUE: res1 <- 1
	@DEBUG_VALUE: res2 <- 1
	.loc	6 836 12 is_stmt 1              @ lvgl/src/lv_draw/lv_draw_mask.c:836:12
	cbz	r5, .LBB9_8
.Ltmp186:
@ %bb.6:
	@DEBUG_VALUE: lv_draw_mask_angle:abs_x <- $r11
	@DEBUG_VALUE: lv_draw_mask_angle:abs_y <- $r10
	@DEBUG_VALUE: lv_draw_mask_angle:len <- $r9
	@DEBUG_VALUE: lv_draw_mask_angle:mask_buf <- $r8
	@DEBUG_VALUE: lv_draw_mask_angle:rel_y <- $r2
	@DEBUG_VALUE: lv_draw_mask_angle:p <- [DW_OP_plus_uconst 40] [$sp+0]
	@DEBUG_VALUE: res2 <- 1
	@DEBUG_VALUE: res1 <- 1
	cmp	r5, #180
	bne	.LBB9_9
.Ltmp187:
@ %bb.7:
	@DEBUG_VALUE: lv_draw_mask_angle:abs_x <- $r11
	@DEBUG_VALUE: lv_draw_mask_angle:abs_y <- $r10
	@DEBUG_VALUE: lv_draw_mask_angle:len <- $r9
	@DEBUG_VALUE: lv_draw_mask_angle:mask_buf <- $r8
	@DEBUG_VALUE: lv_draw_mask_angle:rel_y <- $r2
	@DEBUG_VALUE: lv_draw_mask_angle:p <- [DW_OP_plus_uconst 40] [$sp+0]
	@DEBUG_VALUE: res2 <- 1
	@DEBUG_VALUE: res1 <- 1
	.loc	6 0 12 is_stmt 0                @ lvgl/src/lv_draw/lv_draw_mask.c:0:12
	movs	r5, #3
.Ltmp188:
	.loc	6 837 16 is_stmt 1              @ lvgl/src/lv_draw/lv_draw_mask.c:837:16
	cmp	r6, r10
	it	gt
	movgt	r5, #1
	b	.LBB9_11
.Ltmp189:
.LBB9_8:
	@DEBUG_VALUE: lv_draw_mask_angle:abs_x <- $r11
	@DEBUG_VALUE: lv_draw_mask_angle:abs_y <- $r10
	@DEBUG_VALUE: lv_draw_mask_angle:len <- $r9
	@DEBUG_VALUE: lv_draw_mask_angle:mask_buf <- $r8
	@DEBUG_VALUE: lv_draw_mask_angle:rel_y <- $r2
	@DEBUG_VALUE: lv_draw_mask_angle:p <- [DW_OP_plus_uconst 40] [$sp+0]
	@DEBUG_VALUE: res2 <- 1
	@DEBUG_VALUE: res1 <- 1
	.loc	6 0 16 is_stmt 0                @ lvgl/src/lv_draw/lv_draw_mask.c:0:16
	movs	r5, #1
.Ltmp190:
	.loc	6 841 16 is_stmt 1              @ lvgl/src/lv_draw/lv_draw_mask.c:841:16
	cmp	r6, r10
	it	gt
	movgt	r5, #3
	b	.LBB9_11
.Ltmp191:
.LBB9_9:
	@DEBUG_VALUE: lv_draw_mask_angle:abs_x <- $r11
	@DEBUG_VALUE: lv_draw_mask_angle:abs_y <- $r10
	@DEBUG_VALUE: lv_draw_mask_angle:len <- $r9
	@DEBUG_VALUE: lv_draw_mask_angle:mask_buf <- $r8
	@DEBUG_VALUE: lv_draw_mask_angle:rel_y <- $r2
	@DEBUG_VALUE: lv_draw_mask_angle:p <- [DW_OP_plus_uconst 40] [$sp+0]
	@DEBUG_VALUE: res2 <- 1
	@DEBUG_VALUE: res1 <- 1
	.loc	6 789 32                        @ lvgl/src/lv_draw/lv_draw_mask.c:789:32
	cmp	r3, #180
	mov.w	r0, #0
.Ltmp192:
	.loc	6 745 27                        @ lvgl/src/lv_draw/lv_draw_mask.c:745:27
	mov.w	r2, #0
.Ltmp193:
	.loc	6 0 27 is_stmt 0                @ lvgl/src/lv_draw/lv_draw_mask.c:0:27
	mov.w	r3, #0
.Ltmp194:
	.loc	6 789 32 is_stmt 1              @ lvgl/src/lv_draw/lv_draw_mask.c:789:32
	it	gt
	movgt	r0, #1
.Ltmp195:
	.loc	6 745 27                        @ lvgl/src/lv_draw/lv_draw_mask.c:745:27
	it	lt
	movlt	r2, #1
	cmp	r6, r10
	mov.w	r1, #0
	it	gt
	movgt	r3, #1
	it	le
	movle	r1, #1
	movs	r5, #3
.Ltmp196:
	.loc	6 844 43                        @ lvgl/src/lv_draw/lv_draw_mask.c:844:43
	tst	r3, r2
	it	eq
	andseq.w	r0, r0, r1
	bne	.LBB9_11
.Ltmp197:
@ %bb.10:
	@DEBUG_VALUE: lv_draw_mask_angle:abs_x <- $r11
	@DEBUG_VALUE: lv_draw_mask_angle:abs_y <- $r10
	@DEBUG_VALUE: lv_draw_mask_angle:len <- $r9
	@DEBUG_VALUE: lv_draw_mask_angle:mask_buf <- $r8
	@DEBUG_VALUE: lv_draw_mask_angle:p <- [DW_OP_plus_uconst 40] [$sp+0]
	@DEBUG_VALUE: res2 <- 1
	@DEBUG_VALUE: res1 <- 1
	.loc	6 849 71                        @ lvgl/src/lv_draw/lv_draw_mask.c:849:71
	add.w	r0, r7, #16
	.loc	6 849 20 is_stmt 0              @ lvgl/src/lv_draw/lv_draw_mask.c:849:20
	str	r0, [sp]
	mov	r0, r8
	mov	r1, r11
	mov	r2, r10
	mov	r3, r9
	bl	lv_draw_mask_line
	mov	r5, r0
.Ltmp198:
	@DEBUG_VALUE: res1 <- undef
.LBB9_11:
	@DEBUG_VALUE: lv_draw_mask_angle:abs_x <- $r11
	@DEBUG_VALUE: lv_draw_mask_angle:abs_y <- $r10
	@DEBUG_VALUE: lv_draw_mask_angle:len <- $r9
	@DEBUG_VALUE: lv_draw_mask_angle:mask_buf <- $r8
	@DEBUG_VALUE: lv_draw_mask_angle:p <- [DW_OP_plus_uconst 40] [$sp+0]
	@DEBUG_VALUE: res2 <- 1
	@DEBUG_VALUE: res1 <- undef
	.loc	6 852 19 is_stmt 1              @ lvgl/src/lv_draw/lv_draw_mask.c:852:19
	ldrh	r0, [r7, #14]
.Ltmp199:
	.loc	6 852 12 is_stmt 0              @ lvgl/src/lv_draw/lv_draw_mask.c:852:12
	cbz	r0, .LBB9_14
.Ltmp200:
@ %bb.12:
	@DEBUG_VALUE: lv_draw_mask_angle:abs_x <- $r11
	@DEBUG_VALUE: lv_draw_mask_angle:abs_y <- $r10
	@DEBUG_VALUE: lv_draw_mask_angle:len <- $r9
	@DEBUG_VALUE: lv_draw_mask_angle:mask_buf <- $r8
	@DEBUG_VALUE: lv_draw_mask_angle:p <- [DW_OP_plus_uconst 40] [$sp+0]
	@DEBUG_VALUE: res2 <- 1
	cmp	r0, #180
	bne	.LBB9_15
.Ltmp201:
@ %bb.13:
	@DEBUG_VALUE: lv_draw_mask_angle:abs_x <- $r11
	@DEBUG_VALUE: lv_draw_mask_angle:abs_y <- $r10
	@DEBUG_VALUE: lv_draw_mask_angle:len <- $r9
	@DEBUG_VALUE: lv_draw_mask_angle:mask_buf <- $r8
	@DEBUG_VALUE: lv_draw_mask_angle:p <- [DW_OP_plus_uconst 40] [$sp+0]
	@DEBUG_VALUE: res2 <- 1
	.loc	6 853 40 is_stmt 1              @ lvgl/src/lv_draw/lv_draw_mask.c:853:40
	ldrsh.w	r1, [r7, #10]
	movs	r0, #1
.Ltmp202:
	.loc	6 853 16 is_stmt 0              @ lvgl/src/lv_draw/lv_draw_mask.c:853:16
	cmp	r1, r10
	it	gt
	movgt	r0, #3
	b	.LBB9_26
.Ltmp203:
.LBB9_14:
	@DEBUG_VALUE: lv_draw_mask_angle:abs_x <- $r11
	@DEBUG_VALUE: lv_draw_mask_angle:abs_y <- $r10
	@DEBUG_VALUE: lv_draw_mask_angle:len <- $r9
	@DEBUG_VALUE: lv_draw_mask_angle:mask_buf <- $r8
	@DEBUG_VALUE: lv_draw_mask_angle:p <- [DW_OP_plus_uconst 40] [$sp+0]
	@DEBUG_VALUE: res2 <- 1
	.loc	6 857 40 is_stmt 1              @ lvgl/src/lv_draw/lv_draw_mask.c:857:40
	ldrsh.w	r1, [r7, #10]
	movs	r0, #3
.Ltmp204:
	.loc	6 857 16 is_stmt 0              @ lvgl/src/lv_draw/lv_draw_mask.c:857:16
	cmp	r1, r10
	it	gt
	movgt	r0, #1
	b	.LBB9_26
.Ltmp205:
.LBB9_15:
	@DEBUG_VALUE: lv_draw_mask_angle:abs_x <- $r11
	@DEBUG_VALUE: lv_draw_mask_angle:abs_y <- $r10
	@DEBUG_VALUE: lv_draw_mask_angle:len <- $r9
	@DEBUG_VALUE: lv_draw_mask_angle:mask_buf <- $r8
	@DEBUG_VALUE: lv_draw_mask_angle:p <- [DW_OP_plus_uconst 40] [$sp+0]
	@DEBUG_VALUE: res2 <- 1
	.loc	6 0 0                           @ lvgl/src/lv_draw/lv_draw_mask.c:0:0
	sxth	r0, r0
.Ltmp206:
	.loc	6 860 41 is_stmt 1              @ lvgl/src/lv_draw/lv_draw_mask.c:860:41
	cmp	r0, #179
	bgt	.LBB9_17
.Ltmp207:
@ %bb.16:
	@DEBUG_VALUE: lv_draw_mask_angle:abs_x <- $r11
	@DEBUG_VALUE: lv_draw_mask_angle:abs_y <- $r10
	@DEBUG_VALUE: lv_draw_mask_angle:len <- $r9
	@DEBUG_VALUE: lv_draw_mask_angle:mask_buf <- $r8
	@DEBUG_VALUE: lv_draw_mask_angle:p <- [DW_OP_plus_uconst 40] [$sp+0]
	@DEBUG_VALUE: res2 <- 1
	.loc	6 860 68 is_stmt 0              @ lvgl/src/lv_draw/lv_draw_mask.c:860:68
	ldrsh.w	r1, [r7, #10]
	.loc	6 860 71                        @ lvgl/src/lv_draw/lv_draw_mask.c:860:71
	cmp	r1, r10
	bgt	.LBB9_25
.Ltmp208:
.LBB9_17:
	@DEBUG_VALUE: lv_draw_mask_angle:abs_x <- $r11
	@DEBUG_VALUE: lv_draw_mask_angle:abs_y <- $r10
	@DEBUG_VALUE: lv_draw_mask_angle:len <- $r9
	@DEBUG_VALUE: lv_draw_mask_angle:mask_buf <- $r8
	@DEBUG_VALUE: lv_draw_mask_angle:p <- [DW_OP_plus_uconst 40] [$sp+0]
	@DEBUG_VALUE: res2 <- 1
	.loc	6 861 41 is_stmt 1              @ lvgl/src/lv_draw/lv_draw_mask.c:861:41
	cmp	r0, #181
	blt	.LBB9_19
.Ltmp209:
@ %bb.18:
	@DEBUG_VALUE: lv_draw_mask_angle:abs_x <- $r11
	@DEBUG_VALUE: lv_draw_mask_angle:abs_y <- $r10
	@DEBUG_VALUE: lv_draw_mask_angle:len <- $r9
	@DEBUG_VALUE: lv_draw_mask_angle:mask_buf <- $r8
	@DEBUG_VALUE: lv_draw_mask_angle:p <- [DW_OP_plus_uconst 40] [$sp+0]
	@DEBUG_VALUE: res2 <- 1
	.loc	6 861 69 is_stmt 0              @ lvgl/src/lv_draw/lv_draw_mask.c:861:69
	ldrsh.w	r0, [r7, #10]
.Ltmp210:
	.loc	6 860 17 is_stmt 1              @ lvgl/src/lv_draw/lv_draw_mask.c:860:17
	cmp	r0, r10
	ble	.LBB9_25
.Ltmp211:
.LBB9_19:
	@DEBUG_VALUE: lv_draw_mask_angle:abs_x <- $r11
	@DEBUG_VALUE: lv_draw_mask_angle:abs_y <- $r10
	@DEBUG_VALUE: lv_draw_mask_angle:len <- $r9
	@DEBUG_VALUE: lv_draw_mask_angle:mask_buf <- $r8
	@DEBUG_VALUE: lv_draw_mask_angle:p <- [DW_OP_plus_uconst 40] [$sp+0]
	@DEBUG_VALUE: res2 <- 1
	.loc	6 865 71                        @ lvgl/src/lv_draw/lv_draw_mask.c:865:71
	add.w	r0, r7, #60
	.loc	6 865 20 is_stmt 0              @ lvgl/src/lv_draw/lv_draw_mask.c:865:20
	str	r0, [sp]
	mov	r0, r8
	mov	r1, r11
	mov	r2, r10
	mov	r3, r9
	bl	lv_draw_mask_line
.Ltmp212:
	@DEBUG_VALUE: res2 <- undef
	.loc	6 0 20                          @ lvgl/src/lv_draw/lv_draw_mask.c:0:20
	b	.LBB9_26
.Ltmp213:
.LBB9_20:
	@DEBUG_VALUE: lv_draw_mask_angle:abs_x <- $r11
	@DEBUG_VALUE: lv_draw_mask_angle:abs_y <- $r10
	@DEBUG_VALUE: lv_draw_mask_angle:len <- $r9
	@DEBUG_VALUE: lv_draw_mask_angle:mask_buf <- $r8
	@DEBUG_VALUE: lv_draw_mask_angle:rel_y <- $r2
	@DEBUG_VALUE: lv_draw_mask_angle:p <- [DW_OP_plus_uconst 40] [$sp+0]
	.loc	6 745 59 is_stmt 1              @ lvgl/src/lv_draw/lv_draw_mask.c:745:59
	cmp	r1, #179
	bgt	.LBB9_3
.Ltmp214:
@ %bb.21:
	@DEBUG_VALUE: lv_draw_mask_angle:abs_x <- $r11
	@DEBUG_VALUE: lv_draw_mask_angle:abs_y <- $r10
	@DEBUG_VALUE: lv_draw_mask_angle:len <- $r9
	@DEBUG_VALUE: lv_draw_mask_angle:mask_buf <- $r8
	@DEBUG_VALUE: lv_draw_mask_angle:rel_y <- $r2
	@DEBUG_VALUE: lv_draw_mask_angle:p <- [DW_OP_plus_uconst 40] [$sp+0]
	.loc	6 749 12                        @ lvgl/src/lv_draw/lv_draw_mask.c:749:12
	cmp	r6, r10
	ble	.LBB9_31
.Ltmp215:
@ %bb.22:
	@DEBUG_VALUE: lv_draw_mask_angle:abs_x <- $r11
	@DEBUG_VALUE: lv_draw_mask_angle:abs_y <- $r10
	@DEBUG_VALUE: lv_draw_mask_angle:len <- $r9
	@DEBUG_VALUE: lv_draw_mask_angle:mask_buf <- $r8
	@DEBUG_VALUE: lv_draw_mask_angle:rel_y <- $r2
	@DEBUG_VALUE: lv_draw_mask_angle:p <- [DW_OP_plus_uconst 40] [$sp+0]
	.loc	6 0 12 is_stmt 0                @ lvgl/src/lv_draw/lv_draw_mask.c:0:12
	movs	r7, #1
	b	.LBB9_27
.Ltmp216:
.LBB9_23:
	@DEBUG_VALUE: lv_draw_mask_angle:abs_x <- $r11
	@DEBUG_VALUE: lv_draw_mask_angle:abs_y <- $r10
	@DEBUG_VALUE: lv_draw_mask_angle:len <- $r9
	@DEBUG_VALUE: lv_draw_mask_angle:mask_buf <- $r8
	@DEBUG_VALUE: lv_draw_mask_angle:rel_y <- $r2
	@DEBUG_VALUE: lv_draw_mask_angle:p <- [DW_OP_plus_uconst 40] [$sp+0]
	.loc	6 791 12 is_stmt 1              @ lvgl/src/lv_draw/lv_draw_mask.c:791:12
	cmp	r6, r10
	bge	.LBB9_35
.Ltmp217:
@ %bb.24:
	@DEBUG_VALUE: lv_draw_mask_angle:abs_x <- $r11
	@DEBUG_VALUE: lv_draw_mask_angle:abs_y <- $r10
	@DEBUG_VALUE: lv_draw_mask_angle:len <- $r9
	@DEBUG_VALUE: lv_draw_mask_angle:mask_buf <- $r8
	@DEBUG_VALUE: lv_draw_mask_angle:rel_y <- $r2
	@DEBUG_VALUE: lv_draw_mask_angle:p <- [DW_OP_plus_uconst 40] [$sp+0]
	.loc	6 0 12 is_stmt 0                @ lvgl/src/lv_draw/lv_draw_mask.c:0:12
	movs	r7, #1
	b	.LBB9_27
.Ltmp218:
.LBB9_25:
	@DEBUG_VALUE: lv_draw_mask_angle:abs_x <- $r11
	@DEBUG_VALUE: lv_draw_mask_angle:abs_y <- $r10
	@DEBUG_VALUE: lv_draw_mask_angle:len <- $r9
	@DEBUG_VALUE: lv_draw_mask_angle:mask_buf <- $r8
	@DEBUG_VALUE: lv_draw_mask_angle:p <- [DW_OP_plus_uconst 40] [$sp+0]
	@DEBUG_VALUE: res2 <- 1
	movs	r0, #3
.Ltmp219:
.LBB9_26:
	@DEBUG_VALUE: lv_draw_mask_angle:abs_x <- $r11
	@DEBUG_VALUE: lv_draw_mask_angle:abs_y <- $r10
	@DEBUG_VALUE: lv_draw_mask_angle:len <- $r9
	@DEBUG_VALUE: lv_draw_mask_angle:mask_buf <- $r8
	@DEBUG_VALUE: lv_draw_mask_angle:p <- [DW_OP_plus_uconst 40] [$sp+0]
	@DEBUG_VALUE: res2 <- undef
	movs	r7, #0
.Ltmp220:
	.loc	6 868 44 is_stmt 1              @ lvgl/src/lv_draw/lv_draw_mask.c:868:44
	cmp	r5, #0
	it	ne
	cmpne	r0, #0
	bne	.LBB9_28
.Ltmp221:
.LBB9_27:
	@DEBUG_VALUE: lv_draw_mask_angle:abs_x <- $r11
	@DEBUG_VALUE: lv_draw_mask_angle:abs_y <- $r10
	@DEBUG_VALUE: lv_draw_mask_angle:len <- $r9
	@DEBUG_VALUE: lv_draw_mask_angle:mask_buf <- $r8
	@DEBUG_VALUE: lv_draw_mask_angle:p <- [DW_OP_plus_uconst 40] [$sp+0]
	.loc	6 873 1                         @ lvgl/src/lv_draw/lv_draw_mask.c:873:1
	mov	r0, r7
	add	sp, #4
	pop.w	{r4, r5, r6, r7, r8, r9, r10, r11, pc}
.Ltmp222:
.LBB9_28:
	@DEBUG_VALUE: lv_draw_mask_angle:abs_x <- $r11
	@DEBUG_VALUE: lv_draw_mask_angle:abs_y <- $r10
	@DEBUG_VALUE: lv_draw_mask_angle:len <- $r9
	@DEBUG_VALUE: lv_draw_mask_angle:mask_buf <- $r8
	@DEBUG_VALUE: lv_draw_mask_angle:p <- [DW_OP_plus_uconst 40] [$sp+0]
	.loc	6 869 50                        @ lvgl/src/lv_draw/lv_draw_mask.c:869:50
	cmp	r5, #3
	it	eq
	cmpeq	r0, #3
	beq	.LBB9_30
.Ltmp223:
@ %bb.29:
	@DEBUG_VALUE: lv_draw_mask_angle:abs_x <- $r11
	@DEBUG_VALUE: lv_draw_mask_angle:abs_y <- $r10
	@DEBUG_VALUE: lv_draw_mask_angle:len <- $r9
	@DEBUG_VALUE: lv_draw_mask_angle:mask_buf <- $r8
	@DEBUG_VALUE: lv_draw_mask_angle:p <- [DW_OP_plus_uconst 40] [$sp+0]
	.loc	6 870 22                        @ lvgl/src/lv_draw/lv_draw_mask.c:870:22
	eor	r1, r5, #1
	eor	r0, r0, #1
	.loc	6 870 53 is_stmt 0              @ lvgl/src/lv_draw/lv_draw_mask.c:870:53
	orrs	r0, r1
	mov.w	r0, #2
	it	eq
	moveq	r0, #1
	add	sp, #4
	pop.w	{r4, r5, r6, r7, r8, r9, r10, r11, pc}
.Ltmp224:
.LBB9_30:
	@DEBUG_VALUE: lv_draw_mask_angle:abs_x <- $r11
	@DEBUG_VALUE: lv_draw_mask_angle:abs_y <- $r10
	@DEBUG_VALUE: lv_draw_mask_angle:len <- $r9
	@DEBUG_VALUE: lv_draw_mask_angle:mask_buf <- $r8
	@DEBUG_VALUE: lv_draw_mask_angle:p <- [DW_OP_plus_uconst 40] [$sp+0]
	.loc	6 0 53                          @ lvgl/src/lv_draw/lv_draw_mask.c:0:53
	movs	r7, #0
	b	.LBB9_27
.Ltmp225:
.LBB9_31:
	@DEBUG_VALUE: lv_draw_mask_angle:abs_x <- $r11
	@DEBUG_VALUE: lv_draw_mask_angle:abs_y <- $r10
	@DEBUG_VALUE: lv_draw_mask_angle:len <- $r9
	@DEBUG_VALUE: lv_draw_mask_angle:mask_buf <- $r8
	@DEBUG_VALUE: lv_draw_mask_angle:rel_y <- $r2
	@DEBUG_VALUE: lv_draw_mask_angle:p <- [DW_OP_plus_uconst 40] [$sp+0]
	.loc	6 754 56 is_stmt 1              @ lvgl/src/lv_draw/lv_draw_mask.c:754:56
	ldr	r6, [r7, #84]
	.loc	6 755 65                        @ lvgl/src/lv_draw/lv_draw_mask.c:755:65
	ldr	r5, [r7, #40]
.Ltmp226:
	.loc	6 759 40                        @ lvgl/src/lv_draw/lv_draw_mask.c:759:40
	cmp	r3, #1
.Ltmp227:
	.loc	6 754 42                        @ lvgl/src/lv_draw/lv_draw_mask.c:754:42
	mul	r6, r2, r6
.Ltmp228:
	@DEBUG_VALUE: end_angle_first <- undef
	.loc	6 755 44                        @ lvgl/src/lv_draw/lv_draw_mask.c:755:44
	add.w	r2, r2, #1
.Ltmp229:
	.loc	6 755 49 is_stmt 0              @ lvgl/src/lv_draw/lv_draw_mask.c:755:49
	mul	r5, r2, r5
.Ltmp230:
	@DEBUG_VALUE: start_angle_last <- undef
	.loc	6 759 40 is_stmt 1              @ lvgl/src/lv_draw/lv_draw_mask.c:759:40
	blt	.LBB9_42
.Ltmp231:
@ %bb.32:
	@DEBUG_VALUE: lv_draw_mask_angle:abs_x <- $r11
	@DEBUG_VALUE: lv_draw_mask_angle:abs_y <- $r10
	@DEBUG_VALUE: lv_draw_mask_angle:len <- $r9
	@DEBUG_VALUE: lv_draw_mask_angle:mask_buf <- $r8
	@DEBUG_VALUE: lv_draw_mask_angle:p <- [DW_OP_plus_uconst 40] [$sp+0]
	.loc	6 759 68 is_stmt 0              @ lvgl/src/lv_draw/lv_draw_mask.c:759:68
	cmp	r3, #90
	bgt	.LBB9_42
.Ltmp232:
@ %bb.33:
	@DEBUG_VALUE: lv_draw_mask_angle:abs_x <- $r11
	@DEBUG_VALUE: lv_draw_mask_angle:abs_y <- $r10
	@DEBUG_VALUE: lv_draw_mask_angle:len <- $r9
	@DEBUG_VALUE: lv_draw_mask_angle:mask_buf <- $r8
	@DEBUG_VALUE: lv_draw_mask_angle:p <- [DW_OP_plus_uconst 40] [$sp+0]
	cmp	r5, #0
	bpl	.LBB9_42
.Ltmp233:
@ %bb.34:
	@DEBUG_VALUE: lv_draw_mask_angle:abs_x <- $r11
	@DEBUG_VALUE: lv_draw_mask_angle:abs_y <- $r10
	@DEBUG_VALUE: lv_draw_mask_angle:len <- $r9
	@DEBUG_VALUE: lv_draw_mask_angle:mask_buf <- $r8
	@DEBUG_VALUE: lv_draw_mask_angle:p <- [DW_OP_plus_uconst 40] [$sp+0]
	.loc	6 0 68                          @ lvgl/src/lv_draw/lv_draw_mask.c:0:68
	movs	r2, #0
	b	.LBB9_44
.Ltmp234:
.LBB9_35:
	@DEBUG_VALUE: lv_draw_mask_angle:abs_x <- $r11
	@DEBUG_VALUE: lv_draw_mask_angle:abs_y <- $r10
	@DEBUG_VALUE: lv_draw_mask_angle:len <- $r9
	@DEBUG_VALUE: lv_draw_mask_angle:mask_buf <- $r8
	@DEBUG_VALUE: lv_draw_mask_angle:rel_y <- $r2
	@DEBUG_VALUE: lv_draw_mask_angle:p <- [DW_OP_plus_uconst 40] [$sp+0]
	.loc	6 796 56 is_stmt 1              @ lvgl/src/lv_draw/lv_draw_mask.c:796:56
	ldr	r6, [r7, #84]
	.loc	6 797 65                        @ lvgl/src/lv_draw/lv_draw_mask.c:797:65
	ldr	r5, [r7, #40]
.Ltmp235:
	.loc	6 800 37                        @ lvgl/src/lv_draw/lv_draw_mask.c:800:37
	cmp.w	r3, #270
.Ltmp236:
	.loc	6 796 42                        @ lvgl/src/lv_draw/lv_draw_mask.c:796:42
	mul	r6, r2, r6
.Ltmp237:
	@DEBUG_VALUE: end_angle_first <- undef
	.loc	6 797 44                        @ lvgl/src/lv_draw/lv_draw_mask.c:797:44
	add.w	r2, r2, #1
.Ltmp238:
	.loc	6 797 49 is_stmt 0              @ lvgl/src/lv_draw/lv_draw_mask.c:797:49
	mul	r5, r2, r5
.Ltmp239:
	@DEBUG_VALUE: start_angle_last <- undef
	.loc	6 800 37 is_stmt 1              @ lvgl/src/lv_draw/lv_draw_mask.c:800:37
	ble	.LBB9_38
.Ltmp240:
@ %bb.36:
	@DEBUG_VALUE: lv_draw_mask_angle:abs_x <- $r11
	@DEBUG_VALUE: lv_draw_mask_angle:abs_y <- $r10
	@DEBUG_VALUE: lv_draw_mask_angle:len <- $r9
	@DEBUG_VALUE: lv_draw_mask_angle:mask_buf <- $r8
	@DEBUG_VALUE: lv_draw_mask_angle:p <- [DW_OP_plus_uconst 40] [$sp+0]
	.loc	6 800 66 is_stmt 0              @ lvgl/src/lv_draw/lv_draw_mask.c:800:66
	cmp.w	r3, #360
	bge	.LBB9_38
.Ltmp241:
@ %bb.37:
	@DEBUG_VALUE: lv_draw_mask_angle:abs_x <- $r11
	@DEBUG_VALUE: lv_draw_mask_angle:abs_y <- $r10
	@DEBUG_VALUE: lv_draw_mask_angle:len <- $r9
	@DEBUG_VALUE: lv_draw_mask_angle:mask_buf <- $r8
	@DEBUG_VALUE: lv_draw_mask_angle:p <- [DW_OP_plus_uconst 40] [$sp+0]
	cmp	r5, #0
	bmi	.LBB9_41
.Ltmp242:
.LBB9_38:
	@DEBUG_VALUE: lv_draw_mask_angle:abs_x <- $r11
	@DEBUG_VALUE: lv_draw_mask_angle:abs_y <- $r10
	@DEBUG_VALUE: lv_draw_mask_angle:len <- $r9
	@DEBUG_VALUE: lv_draw_mask_angle:mask_buf <- $r8
	@DEBUG_VALUE: lv_draw_mask_angle:p <- [DW_OP_plus_uconst 40] [$sp+0]
	@DEBUG_VALUE: start_angle_last <- undef
	.loc	6 801 40 is_stmt 1              @ lvgl/src/lv_draw/lv_draw_mask.c:801:40
	cmp	r3, #1
	blt	.LBB9_51
.Ltmp243:
@ %bb.39:
	@DEBUG_VALUE: lv_draw_mask_angle:abs_x <- $r11
	@DEBUG_VALUE: lv_draw_mask_angle:abs_y <- $r10
	@DEBUG_VALUE: lv_draw_mask_angle:len <- $r9
	@DEBUG_VALUE: lv_draw_mask_angle:mask_buf <- $r8
	@DEBUG_VALUE: lv_draw_mask_angle:p <- [DW_OP_plus_uconst 40] [$sp+0]
	.loc	6 801 68 is_stmt 0              @ lvgl/src/lv_draw/lv_draw_mask.c:801:68
	cmp	r3, #90
	bgt	.LBB9_51
.Ltmp244:
@ %bb.40:
	@DEBUG_VALUE: lv_draw_mask_angle:abs_x <- $r11
	@DEBUG_VALUE: lv_draw_mask_angle:abs_y <- $r10
	@DEBUG_VALUE: lv_draw_mask_angle:len <- $r9
	@DEBUG_VALUE: lv_draw_mask_angle:mask_buf <- $r8
	@DEBUG_VALUE: lv_draw_mask_angle:p <- [DW_OP_plus_uconst 40] [$sp+0]
	cmp	r5, #0
	bpl	.LBB9_51
.Ltmp245:
.LBB9_41:
	@DEBUG_VALUE: lv_draw_mask_angle:abs_x <- $r11
	@DEBUG_VALUE: lv_draw_mask_angle:abs_y <- $r10
	@DEBUG_VALUE: lv_draw_mask_angle:len <- $r9
	@DEBUG_VALUE: lv_draw_mask_angle:mask_buf <- $r8
	@DEBUG_VALUE: lv_draw_mask_angle:p <- [DW_OP_plus_uconst 40] [$sp+0]
	.loc	6 0 68                          @ lvgl/src/lv_draw/lv_draw_mask.c:0:68
	movs	r2, #0
	b	.LBB9_53
.Ltmp246:
.LBB9_42:
	@DEBUG_VALUE: lv_draw_mask_angle:abs_x <- $r11
	@DEBUG_VALUE: lv_draw_mask_angle:abs_y <- $r10
	@DEBUG_VALUE: lv_draw_mask_angle:len <- $r9
	@DEBUG_VALUE: lv_draw_mask_angle:mask_buf <- $r8
	@DEBUG_VALUE: lv_draw_mask_angle:p <- [DW_OP_plus_uconst 40] [$sp+0]
	.loc	6 760 41 is_stmt 1              @ lvgl/src/lv_draw/lv_draw_mask.c:760:41
	cmp	r3, #91
.Ltmp247:
	.loc	6 0 0 is_stmt 0                 @ lvgl/src/lv_draw/lv_draw_mask.c:0:0
	asr.w	r2, r5, #10
.Ltmp248:
	@DEBUG_VALUE: start_angle_last <- $r2
	.loc	6 760 41                        @ lvgl/src/lv_draw/lv_draw_mask.c:760:41
	blt	.LBB9_44
.Ltmp249:
@ %bb.43:
	@DEBUG_VALUE: lv_draw_mask_angle:abs_x <- $r11
	@DEBUG_VALUE: lv_draw_mask_angle:abs_y <- $r10
	@DEBUG_VALUE: lv_draw_mask_angle:len <- $r9
	@DEBUG_VALUE: lv_draw_mask_angle:mask_buf <- $r8
	@DEBUG_VALUE: start_angle_last <- $r2
	@DEBUG_VALUE: lv_draw_mask_angle:p <- [DW_OP_plus_uconst 40] [$sp+0]
	.loc	6 760 69                        @ lvgl/src/lv_draw/lv_draw_mask.c:760:69
	cmp.w	r5, #1024
	mov	r5, r2
	it	ge
	movge	r5, #0
	cmp.w	r3, #270
	it	lt
	movlt	r2, r5
.Ltmp250:
.LBB9_44:
	@DEBUG_VALUE: lv_draw_mask_angle:abs_x <- $r11
	@DEBUG_VALUE: lv_draw_mask_angle:abs_y <- $r10
	@DEBUG_VALUE: lv_draw_mask_angle:len <- $r9
	@DEBUG_VALUE: lv_draw_mask_angle:mask_buf <- $r8
	@DEBUG_VALUE: lv_draw_mask_angle:p <- [DW_OP_plus_uconst 40] [$sp+0]
	.loc	6 762 35 is_stmt 1              @ lvgl/src/lv_draw/lv_draw_mask.c:762:35
	cmp.w	r1, #270
.Ltmp251:
	.loc	6 0 0 is_stmt 0                 @ lvgl/src/lv_draw/lv_draw_mask.c:0:0
	add.w	r4, r7, #60
	asr.w	r3, r6, #10
.Ltmp252:
	@DEBUG_VALUE: start_angle_last <- $r2
	@DEBUG_VALUE: end_angle_first <- $r3
	.loc	6 762 35                        @ lvgl/src/lv_draw/lv_draw_mask.c:762:35
	ble	.LBB9_47
.Ltmp253:
@ %bb.45:
	@DEBUG_VALUE: lv_draw_mask_angle:abs_x <- $r11
	@DEBUG_VALUE: lv_draw_mask_angle:abs_y <- $r10
	@DEBUG_VALUE: lv_draw_mask_angle:len <- $r9
	@DEBUG_VALUE: lv_draw_mask_angle:mask_buf <- $r8
	@DEBUG_VALUE: end_angle_first <- $r3
	@DEBUG_VALUE: start_angle_last <- $r2
	@DEBUG_VALUE: lv_draw_mask_angle:p <- [DW_OP_plus_uconst 40] [$sp+0]
	.loc	6 762 62                        @ lvgl/src/lv_draw/lv_draw_mask.c:762:62
	cmp.w	r1, #360
	bge	.LBB9_47
.Ltmp254:
@ %bb.46:
	@DEBUG_VALUE: lv_draw_mask_angle:abs_x <- $r11
	@DEBUG_VALUE: lv_draw_mask_angle:abs_y <- $r10
	@DEBUG_VALUE: lv_draw_mask_angle:len <- $r9
	@DEBUG_VALUE: lv_draw_mask_angle:mask_buf <- $r8
	@DEBUG_VALUE: end_angle_first <- $r3
	@DEBUG_VALUE: start_angle_last <- $r2
	@DEBUG_VALUE: lv_draw_mask_angle:p <- [DW_OP_plus_uconst 40] [$sp+0]
	cmp	r2, #0
	bmi	.LBB9_50
.Ltmp255:
.LBB9_47:
	@DEBUG_VALUE: lv_draw_mask_angle:abs_x <- $r11
	@DEBUG_VALUE: lv_draw_mask_angle:abs_y <- $r10
	@DEBUG_VALUE: lv_draw_mask_angle:len <- $r9
	@DEBUG_VALUE: lv_draw_mask_angle:mask_buf <- $r8
	@DEBUG_VALUE: end_angle_first <- $r3
	@DEBUG_VALUE: start_angle_last <- $r2
	@DEBUG_VALUE: lv_draw_mask_angle:p <- [DW_OP_plus_uconst 40] [$sp+0]
	.loc	6 763 38 is_stmt 1              @ lvgl/src/lv_draw/lv_draw_mask.c:763:38
	cmp	r1, #1
	blt	.LBB9_60
.Ltmp256:
@ %bb.48:
	@DEBUG_VALUE: lv_draw_mask_angle:abs_x <- $r11
	@DEBUG_VALUE: lv_draw_mask_angle:abs_y <- $r10
	@DEBUG_VALUE: lv_draw_mask_angle:len <- $r9
	@DEBUG_VALUE: lv_draw_mask_angle:mask_buf <- $r8
	@DEBUG_VALUE: end_angle_first <- $r3
	@DEBUG_VALUE: start_angle_last <- $r2
	@DEBUG_VALUE: lv_draw_mask_angle:p <- [DW_OP_plus_uconst 40] [$sp+0]
	.loc	6 763 66 is_stmt 0              @ lvgl/src/lv_draw/lv_draw_mask.c:763:66
	cmp	r1, #90
	bgt	.LBB9_60
.Ltmp257:
@ %bb.49:
	@DEBUG_VALUE: lv_draw_mask_angle:abs_x <- $r11
	@DEBUG_VALUE: lv_draw_mask_angle:abs_y <- $r10
	@DEBUG_VALUE: lv_draw_mask_angle:len <- $r9
	@DEBUG_VALUE: lv_draw_mask_angle:mask_buf <- $r8
	@DEBUG_VALUE: end_angle_first <- $r3
	@DEBUG_VALUE: start_angle_last <- $r2
	@DEBUG_VALUE: lv_draw_mask_angle:p <- [DW_OP_plus_uconst 40] [$sp+0]
	cmp	r2, #0
	bpl	.LBB9_60
.Ltmp258:
.LBB9_50:
	@DEBUG_VALUE: lv_draw_mask_angle:abs_x <- $r11
	@DEBUG_VALUE: lv_draw_mask_angle:abs_y <- $r10
	@DEBUG_VALUE: lv_draw_mask_angle:len <- $r9
	@DEBUG_VALUE: lv_draw_mask_angle:mask_buf <- $r8
	@DEBUG_VALUE: end_angle_first <- $r3
	@DEBUG_VALUE: start_angle_last <- $r2
	@DEBUG_VALUE: lv_draw_mask_angle:p <- [DW_OP_plus_uconst 40] [$sp+0]
	.loc	6 0 66                          @ lvgl/src/lv_draw/lv_draw_mask.c:0:66
	movs	r2, #0
	b	.LBB9_62
.Ltmp259:
.LBB9_51:
	@DEBUG_VALUE: lv_draw_mask_angle:abs_x <- $r11
	@DEBUG_VALUE: lv_draw_mask_angle:abs_y <- $r10
	@DEBUG_VALUE: lv_draw_mask_angle:len <- $r9
	@DEBUG_VALUE: lv_draw_mask_angle:mask_buf <- $r8
	@DEBUG_VALUE: lv_draw_mask_angle:p <- [DW_OP_plus_uconst 40] [$sp+0]
	.loc	6 802 41 is_stmt 1              @ lvgl/src/lv_draw/lv_draw_mask.c:802:41
	cmp	r3, #91
.Ltmp260:
	.loc	6 0 0 is_stmt 0                 @ lvgl/src/lv_draw/lv_draw_mask.c:0:0
	asr.w	r2, r5, #10
.Ltmp261:
	@DEBUG_VALUE: start_angle_last <- $r2
	blt	.LBB9_53
.Ltmp262:
@ %bb.52:
	@DEBUG_VALUE: lv_draw_mask_angle:abs_x <- $r11
	@DEBUG_VALUE: lv_draw_mask_angle:abs_y <- $r10
	@DEBUG_VALUE: lv_draw_mask_angle:len <- $r9
	@DEBUG_VALUE: lv_draw_mask_angle:mask_buf <- $r8
	@DEBUG_VALUE: start_angle_last <- $r2
	@DEBUG_VALUE: lv_draw_mask_angle:p <- [DW_OP_plus_uconst 40] [$sp+0]
	.loc	6 802 69                        @ lvgl/src/lv_draw/lv_draw_mask.c:802:69
	cmp.w	r5, #1024
	mov	r5, r2
	it	ge
	movge	r5, #0
	cmp.w	r3, #270
	it	lt
	movlt	r2, r5
.Ltmp263:
.LBB9_53:
	@DEBUG_VALUE: lv_draw_mask_angle:abs_x <- $r11
	@DEBUG_VALUE: lv_draw_mask_angle:abs_y <- $r10
	@DEBUG_VALUE: lv_draw_mask_angle:len <- $r9
	@DEBUG_VALUE: lv_draw_mask_angle:mask_buf <- $r8
	@DEBUG_VALUE: lv_draw_mask_angle:p <- [DW_OP_plus_uconst 40] [$sp+0]
	.loc	6 804 35 is_stmt 1              @ lvgl/src/lv_draw/lv_draw_mask.c:804:35
	cmp.w	r1, #270
.Ltmp264:
	.loc	6 0 0 is_stmt 0                 @ lvgl/src/lv_draw/lv_draw_mask.c:0:0
	add.w	r4, r7, #16
	asr.w	r3, r6, #10
.Ltmp265:
	@DEBUG_VALUE: start_angle_last <- $r2
	@DEBUG_VALUE: end_angle_first <- $r3
	ble	.LBB9_56
.Ltmp266:
@ %bb.54:
	@DEBUG_VALUE: lv_draw_mask_angle:abs_x <- $r11
	@DEBUG_VALUE: lv_draw_mask_angle:abs_y <- $r10
	@DEBUG_VALUE: lv_draw_mask_angle:len <- $r9
	@DEBUG_VALUE: lv_draw_mask_angle:mask_buf <- $r8
	@DEBUG_VALUE: end_angle_first <- $r3
	@DEBUG_VALUE: start_angle_last <- $r2
	@DEBUG_VALUE: lv_draw_mask_angle:p <- [DW_OP_plus_uconst 40] [$sp+0]
	.loc	6 804 62                        @ lvgl/src/lv_draw/lv_draw_mask.c:804:62
	cmp.w	r1, #360
	bge	.LBB9_56
.Ltmp267:
@ %bb.55:
	@DEBUG_VALUE: lv_draw_mask_angle:abs_x <- $r11
	@DEBUG_VALUE: lv_draw_mask_angle:abs_y <- $r10
	@DEBUG_VALUE: lv_draw_mask_angle:len <- $r9
	@DEBUG_VALUE: lv_draw_mask_angle:mask_buf <- $r8
	@DEBUG_VALUE: end_angle_first <- $r3
	@DEBUG_VALUE: start_angle_last <- $r2
	@DEBUG_VALUE: lv_draw_mask_angle:p <- [DW_OP_plus_uconst 40] [$sp+0]
	cmp	r2, #0
	bmi	.LBB9_59
.Ltmp268:
.LBB9_56:
	@DEBUG_VALUE: lv_draw_mask_angle:abs_x <- $r11
	@DEBUG_VALUE: lv_draw_mask_angle:abs_y <- $r10
	@DEBUG_VALUE: lv_draw_mask_angle:len <- $r9
	@DEBUG_VALUE: lv_draw_mask_angle:mask_buf <- $r8
	@DEBUG_VALUE: end_angle_first <- $r3
	@DEBUG_VALUE: start_angle_last <- $r2
	@DEBUG_VALUE: lv_draw_mask_angle:p <- [DW_OP_plus_uconst 40] [$sp+0]
	.loc	6 805 38 is_stmt 1              @ lvgl/src/lv_draw/lv_draw_mask.c:805:38
	cmp	r1, #1
	blt	.LBB9_65
.Ltmp269:
@ %bb.57:
	@DEBUG_VALUE: lv_draw_mask_angle:abs_x <- $r11
	@DEBUG_VALUE: lv_draw_mask_angle:abs_y <- $r10
	@DEBUG_VALUE: lv_draw_mask_angle:len <- $r9
	@DEBUG_VALUE: lv_draw_mask_angle:mask_buf <- $r8
	@DEBUG_VALUE: end_angle_first <- $r3
	@DEBUG_VALUE: start_angle_last <- $r2
	@DEBUG_VALUE: lv_draw_mask_angle:p <- [DW_OP_plus_uconst 40] [$sp+0]
	.loc	6 805 66 is_stmt 0              @ lvgl/src/lv_draw/lv_draw_mask.c:805:66
	cmp	r1, #90
	bgt	.LBB9_65
.Ltmp270:
@ %bb.58:
	@DEBUG_VALUE: lv_draw_mask_angle:abs_x <- $r11
	@DEBUG_VALUE: lv_draw_mask_angle:abs_y <- $r10
	@DEBUG_VALUE: lv_draw_mask_angle:len <- $r9
	@DEBUG_VALUE: lv_draw_mask_angle:mask_buf <- $r8
	@DEBUG_VALUE: end_angle_first <- $r3
	@DEBUG_VALUE: start_angle_last <- $r2
	@DEBUG_VALUE: lv_draw_mask_angle:p <- [DW_OP_plus_uconst 40] [$sp+0]
	cmp	r2, #0
	bpl	.LBB9_65
.Ltmp271:
.LBB9_59:
	@DEBUG_VALUE: lv_draw_mask_angle:abs_x <- $r11
	@DEBUG_VALUE: lv_draw_mask_angle:abs_y <- $r10
	@DEBUG_VALUE: lv_draw_mask_angle:len <- $r9
	@DEBUG_VALUE: lv_draw_mask_angle:mask_buf <- $r8
	@DEBUG_VALUE: end_angle_first <- $r3
	@DEBUG_VALUE: start_angle_last <- $r2
	@DEBUG_VALUE: lv_draw_mask_angle:p <- [DW_OP_plus_uconst 40] [$sp+0]
	.loc	6 0 66                          @ lvgl/src/lv_draw/lv_draw_mask.c:0:66
	movs	r2, #0
	b	.LBB9_67
.Ltmp272:
.LBB9_60:
	@DEBUG_VALUE: lv_draw_mask_angle:abs_x <- $r11
	@DEBUG_VALUE: lv_draw_mask_angle:abs_y <- $r10
	@DEBUG_VALUE: lv_draw_mask_angle:len <- $r9
	@DEBUG_VALUE: lv_draw_mask_angle:mask_buf <- $r8
	@DEBUG_VALUE: end_angle_first <- $r3
	@DEBUG_VALUE: start_angle_last <- $r2
	@DEBUG_VALUE: lv_draw_mask_angle:p <- [DW_OP_plus_uconst 40] [$sp+0]
	.loc	6 764 39 is_stmt 1              @ lvgl/src/lv_draw/lv_draw_mask.c:764:39
	cmp	r1, #91
	blt	.LBB9_62
.Ltmp273:
@ %bb.61:
	@DEBUG_VALUE: lv_draw_mask_angle:abs_x <- $r11
	@DEBUG_VALUE: lv_draw_mask_angle:abs_y <- $r10
	@DEBUG_VALUE: lv_draw_mask_angle:len <- $r9
	@DEBUG_VALUE: lv_draw_mask_angle:mask_buf <- $r8
	@DEBUG_VALUE: end_angle_first <- $r3
	@DEBUG_VALUE: start_angle_last <- $r2
	@DEBUG_VALUE: lv_draw_mask_angle:p <- [DW_OP_plus_uconst 40] [$sp+0]
	.loc	6 764 66 is_stmt 0              @ lvgl/src/lv_draw/lv_draw_mask.c:764:66
	mov	r6, r2
	cmp	r2, #0
	it	gt
	movgt	r6, #0
	cmp.w	r1, #270
	it	lt
	movlt	r2, r6
.Ltmp274:
.LBB9_62:
	@DEBUG_VALUE: lv_draw_mask_angle:abs_x <- $r11
	@DEBUG_VALUE: lv_draw_mask_angle:abs_y <- $r10
	@DEBUG_VALUE: lv_draw_mask_angle:len <- $r9
	@DEBUG_VALUE: lv_draw_mask_angle:mask_buf <- $r8
	@DEBUG_VALUE: end_angle_first <- $r3
	@DEBUG_VALUE: lv_draw_mask_angle:p <- [DW_OP_plus_uconst 40] [$sp+0]
	@DEBUG_VALUE: start_angle_last <- $r2
	.loc	6 766 41 is_stmt 1              @ lvgl/src/lv_draw/lv_draw_mask.c:766:41
	subs	r1, r3, r2
.Ltmp275:
	@DEBUG_VALUE: res2 <- 1
	@DEBUG_VALUE: res1 <- 1
	@DEBUG_VALUE: dist <- undef
	.loc	6 771 40                        @ lvgl/src/lv_draw/lv_draw_mask.c:771:40
	add	r0, r2
	.loc	6 771 47 is_stmt 0              @ lvgl/src/lv_draw/lv_draw_mask.c:771:47
	add.w	r5, r0, r1, asr #1
.Ltmp276:
	@DEBUG_VALUE: tmp <- $r5
	.loc	6 772 12 is_stmt 1              @ lvgl/src/lv_draw/lv_draw_mask.c:772:12
	cmp	r5, r9
	it	gt
	movgt	r5, r9
.Ltmp277:
	@DEBUG_VALUE: tmp <- $r5
	.loc	6 773 12                        @ lvgl/src/lv_draw/lv_draw_mask.c:773:12
	cmp	r5, #1
	blt	.LBB9_70
.Ltmp278:
@ %bb.63:
	@DEBUG_VALUE: lv_draw_mask_angle:abs_x <- $r11
	@DEBUG_VALUE: lv_draw_mask_angle:abs_y <- $r10
	@DEBUG_VALUE: lv_draw_mask_angle:len <- $r9
	@DEBUG_VALUE: lv_draw_mask_angle:mask_buf <- $r8
	@DEBUG_VALUE: tmp <- $r5
	@DEBUG_VALUE: end_angle_first <- $r3
	@DEBUG_VALUE: start_angle_last <- $r2
	@DEBUG_VALUE: lv_draw_mask_angle:p <- [DW_OP_plus_uconst 40] [$sp+0]
	@DEBUG_VALUE: res1 <- 1
	@DEBUG_VALUE: res2 <- 1
	.loc	6 774 20                        @ lvgl/src/lv_draw/lv_draw_mask.c:774:20
	sxth	r3, r5
.Ltmp279:
	.loc	6 0 0 is_stmt 0                 @ lvgl/src/lv_draw/lv_draw_mask.c:0:0
	add.w	r0, r7, #16
.Ltmp280:
	.loc	6 774 20                        @ lvgl/src/lv_draw/lv_draw_mask.c:774:20
	str	r0, [sp]
	mov	r0, r8
	mov	r1, r11
	mov	r2, r10
.Ltmp281:
	bl	lv_draw_mask_line
	mov	r7, r0
.Ltmp282:
	@DEBUG_VALUE: res1 <- $r7
	.loc	6 0 20                          @ lvgl/src/lv_draw/lv_draw_mask.c:0:20
	cbnz	r0, .LBB9_71
.Ltmp283:
@ %bb.64:
	@DEBUG_VALUE: lv_draw_mask_angle:abs_x <- $r11
	@DEBUG_VALUE: lv_draw_mask_angle:abs_y <- $r10
	@DEBUG_VALUE: lv_draw_mask_angle:len <- $r9
	@DEBUG_VALUE: lv_draw_mask_angle:mask_buf <- $r8
	@DEBUG_VALUE: res1 <- $r7
	@DEBUG_VALUE: tmp <- $r5
	@DEBUG_VALUE: lv_draw_mask_angle:p <- [DW_OP_plus_uconst 40] [$sp+0]
	@DEBUG_VALUE: res2 <- 1
	.loc	6 776 17 is_stmt 1              @ lvgl/src/lv_draw/lv_draw_mask.c:776:17
	mov	r0, r8
	mov	r1, r5
	bl	_lv_memset_00
	b	.LBB9_71
.Ltmp284:
.LBB9_65:
	@DEBUG_VALUE: lv_draw_mask_angle:abs_x <- $r11
	@DEBUG_VALUE: lv_draw_mask_angle:abs_y <- $r10
	@DEBUG_VALUE: lv_draw_mask_angle:len <- $r9
	@DEBUG_VALUE: lv_draw_mask_angle:mask_buf <- $r8
	@DEBUG_VALUE: end_angle_first <- $r3
	@DEBUG_VALUE: start_angle_last <- $r2
	@DEBUG_VALUE: lv_draw_mask_angle:p <- [DW_OP_plus_uconst 40] [$sp+0]
	.loc	6 806 39                        @ lvgl/src/lv_draw/lv_draw_mask.c:806:39
	cmp	r1, #91
	blt	.LBB9_67
.Ltmp285:
@ %bb.66:
	@DEBUG_VALUE: lv_draw_mask_angle:abs_x <- $r11
	@DEBUG_VALUE: lv_draw_mask_angle:abs_y <- $r10
	@DEBUG_VALUE: lv_draw_mask_angle:len <- $r9
	@DEBUG_VALUE: lv_draw_mask_angle:mask_buf <- $r8
	@DEBUG_VALUE: end_angle_first <- $r3
	@DEBUG_VALUE: start_angle_last <- $r2
	@DEBUG_VALUE: lv_draw_mask_angle:p <- [DW_OP_plus_uconst 40] [$sp+0]
	.loc	6 806 66 is_stmt 0              @ lvgl/src/lv_draw/lv_draw_mask.c:806:66
	mov	r6, r2
	cmp	r2, #0
	it	gt
	movgt	r6, #0
	cmp.w	r1, #270
	it	lt
	movlt	r2, r6
.Ltmp286:
.LBB9_67:
	@DEBUG_VALUE: lv_draw_mask_angle:abs_x <- $r11
	@DEBUG_VALUE: lv_draw_mask_angle:abs_y <- $r10
	@DEBUG_VALUE: lv_draw_mask_angle:len <- $r9
	@DEBUG_VALUE: lv_draw_mask_angle:mask_buf <- $r8
	@DEBUG_VALUE: end_angle_first <- $r3
	@DEBUG_VALUE: lv_draw_mask_angle:p <- [DW_OP_plus_uconst 40] [$sp+0]
	@DEBUG_VALUE: start_angle_last <- $r2
	.loc	6 808 41 is_stmt 1              @ lvgl/src/lv_draw/lv_draw_mask.c:808:41
	subs	r1, r3, r2
.Ltmp287:
	@DEBUG_VALUE: res2 <- 1
	@DEBUG_VALUE: res1 <- 1
	@DEBUG_VALUE: dist <- undef
	.loc	6 813 40                        @ lvgl/src/lv_draw/lv_draw_mask.c:813:40
	add	r0, r2
	.loc	6 813 47 is_stmt 0              @ lvgl/src/lv_draw/lv_draw_mask.c:813:47
	add.w	r5, r0, r1, asr #1
.Ltmp288:
	@DEBUG_VALUE: tmp <- $r5
	.loc	6 814 12 is_stmt 1              @ lvgl/src/lv_draw/lv_draw_mask.c:814:12
	cmp	r5, r9
	it	gt
	movgt	r5, r9
.Ltmp289:
	@DEBUG_VALUE: tmp <- $r5
	.loc	6 815 12                        @ lvgl/src/lv_draw/lv_draw_mask.c:815:12
	cmp	r5, #1
	blt	.LBB9_74
.Ltmp290:
@ %bb.68:
	@DEBUG_VALUE: lv_draw_mask_angle:abs_x <- $r11
	@DEBUG_VALUE: lv_draw_mask_angle:abs_y <- $r10
	@DEBUG_VALUE: lv_draw_mask_angle:len <- $r9
	@DEBUG_VALUE: lv_draw_mask_angle:mask_buf <- $r8
	@DEBUG_VALUE: tmp <- $r5
	@DEBUG_VALUE: end_angle_first <- $r3
	@DEBUG_VALUE: start_angle_last <- $r2
	@DEBUG_VALUE: lv_draw_mask_angle:p <- [DW_OP_plus_uconst 40] [$sp+0]
	@DEBUG_VALUE: res1 <- 1
	@DEBUG_VALUE: res2 <- 1
	.loc	6 816 20                        @ lvgl/src/lv_draw/lv_draw_mask.c:816:20
	sxth	r3, r5
.Ltmp291:
	.loc	6 0 0 is_stmt 0                 @ lvgl/src/lv_draw/lv_draw_mask.c:0:0
	add.w	r0, r7, #60
.Ltmp292:
	.loc	6 816 20                        @ lvgl/src/lv_draw/lv_draw_mask.c:816:20
	str	r0, [sp]
	mov	r0, r8
	mov	r1, r11
	mov	r2, r10
.Ltmp293:
	bl	lv_draw_mask_line
	mov	r7, r0
.Ltmp294:
	@DEBUG_VALUE: res1 <- $r7
	.loc	6 817 16 is_stmt 1              @ lvgl/src/lv_draw/lv_draw_mask.c:817:16
	cbnz	r0, .LBB9_75
.Ltmp295:
@ %bb.69:
	@DEBUG_VALUE: lv_draw_mask_angle:abs_x <- $r11
	@DEBUG_VALUE: lv_draw_mask_angle:abs_y <- $r10
	@DEBUG_VALUE: lv_draw_mask_angle:len <- $r9
	@DEBUG_VALUE: lv_draw_mask_angle:mask_buf <- $r8
	@DEBUG_VALUE: res1 <- $r7
	@DEBUG_VALUE: tmp <- $r5
	@DEBUG_VALUE: lv_draw_mask_angle:p <- [DW_OP_plus_uconst 40] [$sp+0]
	@DEBUG_VALUE: res2 <- 1
	.loc	6 818 17                        @ lvgl/src/lv_draw/lv_draw_mask.c:818:17
	mov	r0, r8
	mov	r1, r5
	bl	_lv_memset_00
	b	.LBB9_75
.Ltmp296:
.LBB9_70:
	@DEBUG_VALUE: lv_draw_mask_angle:abs_x <- $r11
	@DEBUG_VALUE: lv_draw_mask_angle:abs_y <- $r10
	@DEBUG_VALUE: lv_draw_mask_angle:len <- $r9
	@DEBUG_VALUE: lv_draw_mask_angle:mask_buf <- $r8
	@DEBUG_VALUE: tmp <- $r5
	@DEBUG_VALUE: end_angle_first <- $r3
	@DEBUG_VALUE: start_angle_last <- $r2
	@DEBUG_VALUE: lv_draw_mask_angle:p <- [DW_OP_plus_uconst 40] [$sp+0]
	@DEBUG_VALUE: res1 <- 1
	@DEBUG_VALUE: res2 <- 1
	.loc	6 0 17 is_stmt 0                @ lvgl/src/lv_draw/lv_draw_mask.c:0:17
	movs	r7, #1
.Ltmp297:
.LBB9_71:
	@DEBUG_VALUE: lv_draw_mask_angle:abs_x <- $r11
	@DEBUG_VALUE: lv_draw_mask_angle:abs_y <- $r10
	@DEBUG_VALUE: lv_draw_mask_angle:len <- $r9
	@DEBUG_VALUE: lv_draw_mask_angle:mask_buf <- $r8
	@DEBUG_VALUE: tmp <- $r5
	@DEBUG_VALUE: lv_draw_mask_angle:p <- [DW_OP_plus_uconst 40] [$sp+0]
	@DEBUG_VALUE: res2 <- 1
	@DEBUG_VALUE: res1 <- $r7
	@DEBUG_VALUE: tmp <- $r5
	.loc	6 781 12 is_stmt 1              @ lvgl/src/lv_draw/lv_draw_mask.c:781:12
	bic.w	r0, r5, r5, asr #31
.Ltmp298:
	@DEBUG_VALUE: tmp <- $r0
	.loc	6 782 16                        @ lvgl/src/lv_draw/lv_draw_mask.c:782:16
	mov	r2, r10
	.loc	6 782 35 is_stmt 0              @ lvgl/src/lv_draw/lv_draw_mask.c:782:35
	add.w	r5, r8, r0
	.loc	6 782 50                        @ lvgl/src/lv_draw/lv_draw_mask.c:782:50
	add.w	r1, r0, r11
	.loc	6 782 16                        @ lvgl/src/lv_draw/lv_draw_mask.c:782:16
	sxth	r1, r1
	.loc	6 782 74                        @ lvgl/src/lv_draw/lv_draw_mask.c:782:74
	sub.w	r6, r9, r0
	.loc	6 782 16                        @ lvgl/src/lv_draw/lv_draw_mask.c:782:16
	sxth	r3, r6
	mov	r0, r5
.Ltmp299:
	str	r4, [sp]
	bl	lv_draw_mask_line
	mov	r4, r0
.Ltmp300:
	@DEBUG_VALUE: res2 <- $r4
	.loc	6 783 12 is_stmt 1              @ lvgl/src/lv_draw/lv_draw_mask.c:783:12
	cbnz	r0, .LBB9_73
.Ltmp301:
@ %bb.72:
	@DEBUG_VALUE: lv_draw_mask_angle:abs_x <- $r11
	@DEBUG_VALUE: lv_draw_mask_angle:abs_y <- $r10
	@DEBUG_VALUE: lv_draw_mask_angle:len <- $r9
	@DEBUG_VALUE: lv_draw_mask_angle:mask_buf <- $r8
	@DEBUG_VALUE: res1 <- $r7
	@DEBUG_VALUE: res2 <- $r4
	@DEBUG_VALUE: lv_draw_mask_angle:p <- [DW_OP_plus_uconst 40] [$sp+0]
	.loc	6 784 13                        @ lvgl/src/lv_draw/lv_draw_mask.c:784:13
	mov	r0, r5
	mov	r1, r6
	bl	_lv_memset_00
.Ltmp302:
.LBB9_73:
	@DEBUG_VALUE: lv_draw_mask_angle:abs_x <- $r11
	@DEBUG_VALUE: lv_draw_mask_angle:abs_y <- $r10
	@DEBUG_VALUE: lv_draw_mask_angle:len <- $r9
	@DEBUG_VALUE: lv_draw_mask_angle:mask_buf <- $r8
	@DEBUG_VALUE: res1 <- $r7
	@DEBUG_VALUE: res2 <- $r4
	@DEBUG_VALUE: lv_draw_mask_angle:p <- [DW_OP_plus_uconst 40] [$sp+0]
	.loc	6 786 12                        @ lvgl/src/lv_draw/lv_draw_mask.c:786:12
	cmp	r7, r4
	it	ne
	movne	r7, #2
.Ltmp303:
	b	.LBB9_27
.Ltmp304:
.LBB9_74:
	@DEBUG_VALUE: lv_draw_mask_angle:abs_x <- $r11
	@DEBUG_VALUE: lv_draw_mask_angle:abs_y <- $r10
	@DEBUG_VALUE: lv_draw_mask_angle:len <- $r9
	@DEBUG_VALUE: lv_draw_mask_angle:mask_buf <- $r8
	@DEBUG_VALUE: tmp <- $r5
	@DEBUG_VALUE: end_angle_first <- $r3
	@DEBUG_VALUE: start_angle_last <- $r2
	@DEBUG_VALUE: lv_draw_mask_angle:p <- [DW_OP_plus_uconst 40] [$sp+0]
	@DEBUG_VALUE: res1 <- 1
	@DEBUG_VALUE: res2 <- 1
	.loc	6 0 12 is_stmt 0                @ lvgl/src/lv_draw/lv_draw_mask.c:0:12
	movs	r7, #1
.Ltmp305:
.LBB9_75:
	@DEBUG_VALUE: lv_draw_mask_angle:abs_x <- $r11
	@DEBUG_VALUE: lv_draw_mask_angle:abs_y <- $r10
	@DEBUG_VALUE: lv_draw_mask_angle:len <- $r9
	@DEBUG_VALUE: lv_draw_mask_angle:mask_buf <- $r8
	@DEBUG_VALUE: tmp <- $r5
	@DEBUG_VALUE: lv_draw_mask_angle:p <- [DW_OP_plus_uconst 40] [$sp+0]
	@DEBUG_VALUE: res2 <- 1
	@DEBUG_VALUE: res1 <- $r7
	@DEBUG_VALUE: tmp <- $r5
	.loc	6 823 12 is_stmt 1              @ lvgl/src/lv_draw/lv_draw_mask.c:823:12
	bic.w	r0, r5, r5, asr #31
.Ltmp306:
	@DEBUG_VALUE: tmp <- $r0
	.loc	6 824 16                        @ lvgl/src/lv_draw/lv_draw_mask.c:824:16
	mov	r2, r10
	.loc	6 824 35 is_stmt 0              @ lvgl/src/lv_draw/lv_draw_mask.c:824:35
	add.w	r5, r8, r0
	.loc	6 824 50                        @ lvgl/src/lv_draw/lv_draw_mask.c:824:50
	add.w	r1, r0, r11
	.loc	6 824 16                        @ lvgl/src/lv_draw/lv_draw_mask.c:824:16
	sxth	r1, r1
	.loc	6 824 74                        @ lvgl/src/lv_draw/lv_draw_mask.c:824:74
	sub.w	r6, r9, r0
	.loc	6 824 16                        @ lvgl/src/lv_draw/lv_draw_mask.c:824:16
	sxth	r3, r6
	mov	r0, r5
.Ltmp307:
	str	r4, [sp]
	bl	lv_draw_mask_line
	mov	r4, r0
.Ltmp308:
	@DEBUG_VALUE: res2 <- $r4
	.loc	6 825 12 is_stmt 1              @ lvgl/src/lv_draw/lv_draw_mask.c:825:12
	cbnz	r0, .LBB9_77
.Ltmp309:
@ %bb.76:
	@DEBUG_VALUE: lv_draw_mask_angle:abs_x <- $r11
	@DEBUG_VALUE: lv_draw_mask_angle:abs_y <- $r10
	@DEBUG_VALUE: lv_draw_mask_angle:len <- $r9
	@DEBUG_VALUE: lv_draw_mask_angle:mask_buf <- $r8
	@DEBUG_VALUE: res1 <- $r7
	@DEBUG_VALUE: res2 <- $r4
	@DEBUG_VALUE: lv_draw_mask_angle:p <- [DW_OP_plus_uconst 40] [$sp+0]
	.loc	6 826 13                        @ lvgl/src/lv_draw/lv_draw_mask.c:826:13
	mov	r0, r5
	mov	r1, r6
	bl	_lv_memset_00
.Ltmp310:
.LBB9_77:
	@DEBUG_VALUE: lv_draw_mask_angle:abs_x <- $r11
	@DEBUG_VALUE: lv_draw_mask_angle:abs_y <- $r10
	@DEBUG_VALUE: lv_draw_mask_angle:len <- $r9
	@DEBUG_VALUE: lv_draw_mask_angle:mask_buf <- $r8
	@DEBUG_VALUE: res1 <- $r7
	@DEBUG_VALUE: res2 <- $r4
	@DEBUG_VALUE: lv_draw_mask_angle:p <- [DW_OP_plus_uconst 40] [$sp+0]
	.loc	6 828 12                        @ lvgl/src/lv_draw/lv_draw_mask.c:828:12
	cmp	r7, r4
	it	ne
	movne	r7, #2
.Ltmp311:
	.loc	6 0 12 is_stmt 0                @ lvgl/src/lv_draw/lv_draw_mask.c:0:12
	b	.LBB9_27
.Ltmp312:
.Lfunc_end9:
	.size	lv_draw_mask_angle, .Lfunc_end9-lv_draw_mask_angle
	.cfi_endproc
	.cantunwind
	.fnend
                                        @ -- End function
	.section	.text.lv_draw_mask_radius_init,"ax",%progbits
	.hidden	lv_draw_mask_radius_init        @ -- Begin function lv_draw_mask_radius_init
	.globl	lv_draw_mask_radius_init
	.p2align	3
	.type	lv_draw_mask_radius_init,%function
	.code	16                              @ @lv_draw_mask_radius_init
	.thumb_func
lv_draw_mask_radius_init:
.Lfunc_begin10:
	.loc	6 365 0 is_stmt 1               @ lvgl/src/lv_draw/lv_draw_mask.c:365:0
	.fnstart
	.cfi_startproc
@ %bb.0:
	@DEBUG_VALUE: lv_draw_mask_radius_init:param <- $r0
	@DEBUG_VALUE: lv_draw_mask_radius_init:rect <- $r1
	@DEBUG_VALUE: lv_draw_mask_radius_init:radius <- $r2
	@DEBUG_VALUE: lv_draw_mask_radius_init:inv <- [DW_OP_LLVM_convert 1 7, DW_OP_LLVM_convert 8 7, DW_OP_stack_value] $r3
	.save	{r4, r5, r6, r7, r8, lr}
	push.w	{r4, r5, r6, r7, r8, lr}
	.cfi_def_cfa_offset 24
	.cfi_offset lr, -4
	.cfi_offset r8, -8
	.cfi_offset r7, -12
	.cfi_offset r6, -16
	.cfi_offset r5, -20
	.cfi_offset r4, -24
	mov	r4, r0
.Ltmp313:
	@DEBUG_VALUE: lv_draw_mask_radius_init:param <- $r4
	@DEBUG_VALUE: lv_draw_mask_radius_init:inv <- [DW_OP_LLVM_convert 1 7, DW_OP_LLVM_convert 8 7, DW_OP_stack_value] $r8
	@DEBUG_VALUE: lv_draw_mask_radius_init:radius <- $r6
	@DEBUG_VALUE: lv_draw_mask_radius_init:rect <- $r7
	@DEBUG_VALUE: lv_draw_mask_radius_init:param <- $r4
	.loc	6 366 20 prologue_end           @ lvgl/src/lv_draw/lv_draw_mask.c:366:20
	mov	r0, r1
	mov	r8, r3
.Ltmp314:
	.loc	6 0 20 is_stmt 0                @ lvgl/src/lv_draw/lv_draw_mask.c:0:20
	mov	r6, r2
.Ltmp315:
	mov	r7, r1
.Ltmp316:
	.loc	6 366 20                        @ lvgl/src/lv_draw/lv_draw_mask.c:366:20
	bl	lv_area_get_width
	mov	r5, r0
.Ltmp317:
	@DEBUG_VALUE: lv_draw_mask_radius_init:w <- undef
	.loc	6 367 20 is_stmt 1              @ lvgl/src/lv_draw/lv_draw_mask.c:367:20
	mov	r0, r7
	bl	lv_area_get_height
.Ltmp318:
	@DEBUG_VALUE: lv_draw_mask_radius_init:h <- undef
	.loc	6 368 26                        @ lvgl/src/lv_draw/lv_draw_mask.c:368:26
	cmp	r5, r0
	.loc	6 371 5                         @ lvgl/src/lv_draw/lv_draw_mask.c:371:5
	mov	r1, r7
	.loc	6 368 26                        @ lvgl/src/lv_draw/lv_draw_mask.c:368:26
	it	lt
	movlt	r0, r5
.Ltmp319:
	@DEBUG_VALUE: lv_draw_mask_radius_init:short_side <- $r0
	.loc	6 369 8                         @ lvgl/src/lv_draw/lv_draw_mask.c:369:8
	cmp.w	r6, r0, asr #1
	it	gt
	asrgt	r6, r0, #1
.Ltmp320:
	@DEBUG_VALUE: lv_draw_mask_radius_init:radius <- $r6
	.loc	6 371 30                        @ lvgl/src/lv_draw/lv_draw_mask.c:371:30
	add.w	r0, r4, #8
.Ltmp321:
	.loc	6 371 5 is_stmt 0               @ lvgl/src/lv_draw/lv_draw_mask.c:371:5
	bl	lv_area_copy
	.loc	6 373 22 is_stmt 1              @ lvgl/src/lv_draw/lv_draw_mask.c:373:22
	ldrb	r0, [r4, #18]
	.loc	6 372 23                        @ lvgl/src/lv_draw/lv_draw_mask.c:372:23
	strh	r6, [r4, #16]
	.loc	6 373 22                        @ lvgl/src/lv_draw/lv_draw_mask.c:373:22
	and	r0, r0, #254
	add	r0, r8
	strb	r0, [r4, #18]
	.loc	6 374 19                        @ lvgl/src/lv_draw/lv_draw_mask.c:374:19
	movw	r0, :lower16:lv_draw_mask_radius
	movt	r0, :upper16:lv_draw_mask_radius
	str	r0, [r4]
	movs	r0, #2
	.loc	6 375 21                        @ lvgl/src/lv_draw/lv_draw_mask.c:375:21
	strb	r0, [r4, #4]
	mov.w	r0, #-2147483648
	.loc	6 376 19                        @ lvgl/src/lv_draw/lv_draw_mask.c:376:19
	str	r0, [r4, #20]
	movs	r0, #0
	.loc	6 378 23                        @ lvgl/src/lv_draw/lv_draw_mask.c:378:23
	str	r0, [r4, #24]
	.loc	6 379 1                         @ lvgl/src/lv_draw/lv_draw_mask.c:379:1
	pop.w	{r4, r5, r6, r7, r8, pc}
.Ltmp322:
.Lfunc_end10:
	.size	lv_draw_mask_radius_init, .Lfunc_end10-lv_draw_mask_radius_init
	.cfi_endproc
	.cantunwind
	.fnend
                                        @ -- End function
	.section	.text.lv_area_get_width,"ax",%progbits
	.p2align	3                               @ -- Begin function lv_area_get_width
	.type	lv_area_get_width,%function
	.code	16                              @ @lv_area_get_width
	.thumb_func
lv_area_get_width:
.Lfunc_begin11:
	.loc	5 108 0                         @ lvgl/src/lv_draw/../lv_misc/lv_area.h:108:0
	.fnstart
	.cfi_startproc
@ %bb.0:
	@DEBUG_VALUE: lv_area_get_width:area_p <- $r0
	@DEBUG_VALUE: lv_area_get_width:area_p <- $r0
	.loc	5 109 33 prologue_end           @ lvgl/src/lv_draw/../lv_misc/lv_area.h:109:33
	ldrh	r1, [r0, #4]
	.loc	5 109 46 is_stmt 0              @ lvgl/src/lv_draw/../lv_misc/lv_area.h:109:46
	ldrh	r0, [r0]
.Ltmp323:
	@DEBUG_VALUE: lv_area_get_width:area_p <- [DW_OP_LLVM_entry_value 1] $r0
	.loc	5 109 49                        @ lvgl/src/lv_draw/../lv_misc/lv_area.h:109:49
	subs	r0, r1, r0
	adds	r0, #1
	.loc	5 109 5                         @ lvgl/src/lv_draw/../lv_misc/lv_area.h:109:5
	sxth	r0, r0
	bx	lr
.Ltmp324:
.Lfunc_end11:
	.size	lv_area_get_width, .Lfunc_end11-lv_area_get_width
	.cfi_endproc
	.cantunwind
	.fnend
                                        @ -- End function
	.section	.text.lv_area_get_height,"ax",%progbits
	.p2align	3                               @ -- Begin function lv_area_get_height
	.type	lv_area_get_height,%function
	.code	16                              @ @lv_area_get_height
	.thumb_func
lv_area_get_height:
.Lfunc_begin12:
	.loc	5 118 0 is_stmt 1               @ lvgl/src/lv_draw/../lv_misc/lv_area.h:118:0
	.fnstart
	.cfi_startproc
@ %bb.0:
	@DEBUG_VALUE: lv_area_get_height:area_p <- $r0
	@DEBUG_VALUE: lv_area_get_height:area_p <- $r0
	.loc	5 119 33 prologue_end           @ lvgl/src/lv_draw/../lv_misc/lv_area.h:119:33
	ldrh	r1, [r0, #6]
	.loc	5 119 46 is_stmt 0              @ lvgl/src/lv_draw/../lv_misc/lv_area.h:119:46
	ldrh	r0, [r0, #2]
.Ltmp325:
	@DEBUG_VALUE: lv_area_get_height:area_p <- [DW_OP_LLVM_entry_value 1] $r0
	.loc	5 119 49                        @ lvgl/src/lv_draw/../lv_misc/lv_area.h:119:49
	subs	r0, r1, r0
	adds	r0, #1
	.loc	5 119 5                         @ lvgl/src/lv_draw/../lv_misc/lv_area.h:119:5
	sxth	r0, r0
	bx	lr
.Ltmp326:
.Lfunc_end12:
	.size	lv_area_get_height, .Lfunc_end12-lv_area_get_height
	.cfi_endproc
	.cantunwind
	.fnend
                                        @ -- End function
	.section	.text.lv_area_copy,"ax",%progbits
	.p2align	3                               @ -- Begin function lv_area_copy
	.type	lv_area_copy,%function
	.code	16                              @ @lv_area_copy
	.thumb_func
lv_area_copy:
.Lfunc_begin13:
	.loc	5 98 0 is_stmt 1                @ lvgl/src/lv_draw/../lv_misc/lv_area.h:98:0
	.fnstart
	.cfi_startproc
@ %bb.0:
	@DEBUG_VALUE: lv_area_copy:dest <- $r0
	@DEBUG_VALUE: lv_area_copy:dest <- $r0
	@DEBUG_VALUE: lv_area_copy:src <- $r1
	@DEBUG_VALUE: lv_area_copy:src <- $r1
	@DEBUG_VALUE: lv_area_copy:src <- $r1
	@DEBUG_VALUE: lv_area_copy:dest <- $r0
	.save	{r7, lr}
	push	{r7, lr}
	.cfi_def_cfa_offset 8
	.cfi_offset lr, -4
	.cfi_offset r7, -8
.Ltmp327:
	.loc	5 99 5 prologue_end             @ lvgl/src/lv_draw/../lv_misc/lv_area.h:99:5
	bl	_lv_memcpy_small
.Ltmp328:
	@DEBUG_VALUE: lv_area_copy:src <- [DW_OP_LLVM_entry_value 1] $r1
	@DEBUG_VALUE: lv_area_copy:dest <- [DW_OP_LLVM_entry_value 1] $r0
	.loc	5 100 1                         @ lvgl/src/lv_draw/../lv_misc/lv_area.h:100:1
	pop	{r7, pc}
.Ltmp329:
.Lfunc_end13:
	.size	lv_area_copy, .Lfunc_end13-lv_area_copy
	.cfi_endproc
	.cantunwind
	.fnend
                                        @ -- End function
	.section	.text.lv_draw_mask_radius,"ax",%progbits
	.p2align	3                               @ -- Begin function lv_draw_mask_radius
	.type	lv_draw_mask_radius,%function
	.code	16                              @ @lv_draw_mask_radius
	.thumb_func
lv_draw_mask_radius:
.Lfunc_begin14:
	.loc	6 878 0                         @ lvgl/src/lv_draw/lv_draw_mask.c:878:0
	.fnstart
	.cfi_startproc
@ %bb.0:
	@DEBUG_VALUE: lv_draw_mask_radius:mask_buf <- $r0
	@DEBUG_VALUE: lv_draw_mask_radius:abs_x <- $r1
	@DEBUG_VALUE: lv_draw_mask_radius:abs_y <- $r2
	@DEBUG_VALUE: lv_draw_mask_radius:len <- $r3
	.save	{r4, r5, r6, r7, r8, r9, r10, r11, lr}
	push.w	{r4, r5, r6, r7, r8, r9, r10, r11, lr}
	.cfi_def_cfa_offset 36
	.cfi_offset lr, -4
	.cfi_offset r11, -8
	.cfi_offset r10, -12
	.cfi_offset r9, -16
	.cfi_offset r8, -20
	.cfi_offset r7, -24
	.cfi_offset r6, -28
	.cfi_offset r5, -32
	.cfi_offset r4, -36
	.pad	#52
	sub	sp, #52
	.cfi_def_cfa_offset 88
	ldr.w	r11, [sp, #88]
.Ltmp330:
	@DEBUG_VALUE: lv_draw_mask_radius:p <- [DW_OP_plus_uconst 88] [$sp+0]
	@DEBUG_VALUE: lv_draw_mask_radius:len <- undef
	@DEBUG_VALUE: lv_draw_mask_radius:abs_y <- undef
	@DEBUG_VALUE: lv_draw_mask_radius:abs_x <- undef
	mov	r6, r1
.Ltmp331:
	@DEBUG_VALUE: lv_draw_mask_radius:abs_x <- $r6
	mov	r5, r0
.Ltmp332:
	@DEBUG_VALUE: lv_draw_mask_radius:mask_buf <- $r5
	@DEBUG_VALUE: lv_draw_mask_radius:mask_buf <- $r5
	.loc	6 879 25 prologue_end           @ lvgl/src/lv_draw/lv_draw_mask.c:879:25
	add.w	r1, r11, #8
	ldrb.w	r4, [r11, #18]
	add	r0, sp, #44
	.loc	6 880 29                        @ lvgl/src/lv_draw/lv_draw_mask.c:880:29
	ldrsh.w	r8, [r11, #16]
.Ltmp333:
	@DEBUG_VALUE: lv_draw_mask_radius:radius <- $r8
	.loc	6 0 29 is_stmt 0                @ lvgl/src/lv_draw/lv_draw_mask.c:0:29
	mov	r9, r3
.Ltmp334:
	@DEBUG_VALUE: lv_draw_mask_radius:len <- $r9
	mov	r7, r2
.Ltmp335:
	@DEBUG_VALUE: lv_draw_mask_radius:abs_y <- $r7
	.loc	6 879 25 is_stmt 1              @ lvgl/src/lv_draw/lv_draw_mask.c:879:25
	and	r4, r4, #1
.Ltmp336:
	@DEBUG_VALUE: lv_draw_mask_radius:outer <- [DW_OP_LLVM_convert 1 7, DW_OP_LLVM_convert 8 7, DW_OP_stack_value] undef
	.loc	6 882 5                         @ lvgl/src/lv_draw/lv_draw_mask.c:882:5
	bl	lv_area_copy
.Ltmp337:
	.loc	6 0 0 is_stmt 0                 @ lvgl/src/lv_draw/lv_draw_mask.c:0:0
	ldrsh.w	r0, [sp, #46]
.Ltmp338:
	.loc	6 884 8 is_stmt 1               @ lvgl/src/lv_draw/lv_draw_mask.c:884:8
	cbnz	r4, .LBB14_4
.Ltmp339:
@ %bb.1:
	@DEBUG_VALUE: lv_draw_mask_radius:len <- $r9
	@DEBUG_VALUE: lv_draw_mask_radius:radius <- $r8
	@DEBUG_VALUE: lv_draw_mask_radius:abs_y <- $r7
	@DEBUG_VALUE: lv_draw_mask_radius:abs_x <- $r6
	@DEBUG_VALUE: lv_draw_mask_radius:mask_buf <- $r5
	@DEBUG_VALUE: lv_draw_mask_radius:p <- [DW_OP_plus_uconst 88] [$sp+0]
	.loc	6 885 28                        @ lvgl/src/lv_draw/lv_draw_mask.c:885:28
	cmp	r0, r7
	bgt	.LBB14_3
.Ltmp340:
@ %bb.2:
	@DEBUG_VALUE: lv_draw_mask_radius:len <- $r9
	@DEBUG_VALUE: lv_draw_mask_radius:radius <- $r8
	@DEBUG_VALUE: lv_draw_mask_radius:abs_y <- $r7
	@DEBUG_VALUE: lv_draw_mask_radius:abs_x <- $r6
	@DEBUG_VALUE: lv_draw_mask_radius:mask_buf <- $r5
	@DEBUG_VALUE: lv_draw_mask_radius:p <- [DW_OP_plus_uconst 88] [$sp+0]
	.loc	6 885 44 is_stmt 0              @ lvgl/src/lv_draw/lv_draw_mask.c:885:44
	ldrsh.w	r0, [sp, #50]
.Ltmp341:
	.loc	6 885 12                        @ lvgl/src/lv_draw/lv_draw_mask.c:885:12
	cmp	r0, r7
	bge	.LBB14_7
.Ltmp342:
.LBB14_3:
	@DEBUG_VALUE: lv_draw_mask_radius:len <- $r9
	@DEBUG_VALUE: lv_draw_mask_radius:mask_buf <- $r5
	@DEBUG_VALUE: lv_draw_mask_radius:p <- [DW_OP_plus_uconst 88] [$sp+0]
	.loc	6 0 12                          @ lvgl/src/lv_draw/lv_draw_mask.c:0:12
	movs	r0, #0
	.loc	6 1124 1 is_stmt 1              @ lvgl/src/lv_draw/lv_draw_mask.c:1124:1
	add	sp, #52
	pop.w	{r4, r5, r6, r7, r8, r9, r10, r11, pc}
.Ltmp343:
.LBB14_4:
	@DEBUG_VALUE: lv_draw_mask_radius:len <- $r9
	@DEBUG_VALUE: lv_draw_mask_radius:radius <- $r8
	@DEBUG_VALUE: lv_draw_mask_radius:abs_y <- $r7
	@DEBUG_VALUE: lv_draw_mask_radius:abs_x <- $r6
	@DEBUG_VALUE: lv_draw_mask_radius:mask_buf <- $r5
	@DEBUG_VALUE: lv_draw_mask_radius:p <- [DW_OP_plus_uconst 88] [$sp+0]
	.loc	6 890 28                        @ lvgl/src/lv_draw/lv_draw_mask.c:890:28
	cmp	r0, r7
	bgt	.LBB14_6
.Ltmp344:
@ %bb.5:
	@DEBUG_VALUE: lv_draw_mask_radius:len <- $r9
	@DEBUG_VALUE: lv_draw_mask_radius:radius <- $r8
	@DEBUG_VALUE: lv_draw_mask_radius:abs_y <- $r7
	@DEBUG_VALUE: lv_draw_mask_radius:abs_x <- $r6
	@DEBUG_VALUE: lv_draw_mask_radius:mask_buf <- $r5
	@DEBUG_VALUE: lv_draw_mask_radius:p <- [DW_OP_plus_uconst 88] [$sp+0]
	.loc	6 890 44 is_stmt 0              @ lvgl/src/lv_draw/lv_draw_mask.c:890:44
	ldrsh.w	r0, [sp, #50]
.Ltmp345:
	.loc	6 890 12                        @ lvgl/src/lv_draw/lv_draw_mask.c:890:12
	cmp	r0, r7
	bge	.LBB14_7
.Ltmp346:
.LBB14_6:
	@DEBUG_VALUE: lv_draw_mask_radius:len <- $r9
	@DEBUG_VALUE: lv_draw_mask_radius:radius <- $r8
	@DEBUG_VALUE: lv_draw_mask_radius:abs_y <- $r7
	@DEBUG_VALUE: lv_draw_mask_radius:abs_x <- $r6
	@DEBUG_VALUE: lv_draw_mask_radius:mask_buf <- $r5
	@DEBUG_VALUE: lv_draw_mask_radius:p <- [DW_OP_plus_uconst 88] [$sp+0]
	.loc	6 0 12                          @ lvgl/src/lv_draw/lv_draw_mask.c:0:12
	movs	r0, #1
	.loc	6 1124 1 is_stmt 1              @ lvgl/src/lv_draw/lv_draw_mask.c:1124:1
	add	sp, #52
	pop.w	{r4, r5, r6, r7, r8, r9, r10, r11, pc}
.Ltmp347:
.LBB14_7:
	@DEBUG_VALUE: lv_draw_mask_radius:len <- $r9
	@DEBUG_VALUE: lv_draw_mask_radius:radius <- $r8
	@DEBUG_VALUE: lv_draw_mask_radius:abs_y <- $r7
	@DEBUG_VALUE: lv_draw_mask_radius:abs_x <- $r6
	@DEBUG_VALUE: lv_draw_mask_radius:mask_buf <- $r5
	@DEBUG_VALUE: lv_draw_mask_radius:p <- [DW_OP_plus_uconst 88] [$sp+0]
	@DEBUG_VALUE: lv_draw_mask_radius:abs_x <- $r6
	@DEBUG_VALUE: lv_draw_mask_radius:abs_y <- $r7
	@DEBUG_VALUE: lv_draw_mask_radius:len <- $r9
	.loc	6 895 23                        @ lvgl/src/lv_draw/lv_draw_mask.c:895:23
	ldrsh.w	r2, [sp, #44]
	.loc	6 895 26 is_stmt 0              @ lvgl/src/lv_draw/lv_draw_mask.c:895:26
	add.w	r0, r2, r8
	.loc	6 895 35                        @ lvgl/src/lv_draw/lv_draw_mask.c:895:35
	cmp	r0, r6
	bgt	.LBB14_9
.Ltmp348:
@ %bb.8:
	@DEBUG_VALUE: lv_draw_mask_radius:len <- $r9
	@DEBUG_VALUE: lv_draw_mask_radius:radius <- $r8
	@DEBUG_VALUE: lv_draw_mask_radius:abs_y <- $r7
	@DEBUG_VALUE: lv_draw_mask_radius:abs_x <- $r6
	@DEBUG_VALUE: lv_draw_mask_radius:mask_buf <- $r5
	@DEBUG_VALUE: lv_draw_mask_radius:p <- [DW_OP_plus_uconst 88] [$sp+0]
	.loc	6 895 58                        @ lvgl/src/lv_draw/lv_draw_mask.c:895:58
	ldrsh.w	r0, [sp, #48]
	.loc	6 895 44                        @ lvgl/src/lv_draw/lv_draw_mask.c:895:44
	add.w	r1, r9, r6
	.loc	6 895 61                        @ lvgl/src/lv_draw/lv_draw_mask.c:895:61
	sub.w	r0, r0, r8
	.loc	6 895 71                        @ lvgl/src/lv_draw/lv_draw_mask.c:895:71
	cmp	r1, r0
	ble	.LBB14_16
.Ltmp349:
.LBB14_9:
	@DEBUG_VALUE: lv_draw_mask_radius:len <- $r9
	@DEBUG_VALUE: lv_draw_mask_radius:radius <- $r8
	@DEBUG_VALUE: lv_draw_mask_radius:abs_y <- $r7
	@DEBUG_VALUE: lv_draw_mask_radius:abs_x <- $r6
	@DEBUG_VALUE: lv_draw_mask_radius:mask_buf <- $r5
	@DEBUG_VALUE: lv_draw_mask_radius:p <- [DW_OP_plus_uconst 88] [$sp+0]
	@DEBUG_VALUE: lv_draw_mask_radius:abs_y <- $r7
	.loc	6 896 18 is_stmt 1              @ lvgl/src/lv_draw/lv_draw_mask.c:896:18
	ldrsh.w	r0, [sp, #46]
	.loc	6 896 26 is_stmt 0              @ lvgl/src/lv_draw/lv_draw_mask.c:896:26
	add.w	r1, r0, r8
	.loc	6 896 35                        @ lvgl/src/lv_draw/lv_draw_mask.c:896:35
	cmp	r1, r7
	bgt	.LBB14_11
.Ltmp350:
@ %bb.10:
	@DEBUG_VALUE: lv_draw_mask_radius:len <- $r9
	@DEBUG_VALUE: lv_draw_mask_radius:radius <- $r8
	@DEBUG_VALUE: lv_draw_mask_radius:abs_y <- $r7
	@DEBUG_VALUE: lv_draw_mask_radius:abs_x <- $r6
	@DEBUG_VALUE: lv_draw_mask_radius:mask_buf <- $r5
	@DEBUG_VALUE: lv_draw_mask_radius:p <- [DW_OP_plus_uconst 88] [$sp+0]
	@DEBUG_VALUE: lv_draw_mask_radius:abs_y <- $r7
	.loc	6 896 52                        @ lvgl/src/lv_draw/lv_draw_mask.c:896:52
	ldrsh.w	r1, [sp, #50]
	.loc	6 896 55                        @ lvgl/src/lv_draw/lv_draw_mask.c:896:55
	sub.w	r1, r1, r8
.Ltmp351:
	.loc	6 895 8 is_stmt 1               @ lvgl/src/lv_draw/lv_draw_mask.c:895:8
	cmp	r1, r7
	bge	.LBB14_16
.Ltmp352:
.LBB14_11:
	@DEBUG_VALUE: lv_draw_mask_radius:len <- $r9
	@DEBUG_VALUE: lv_draw_mask_radius:radius <- $r8
	@DEBUG_VALUE: lv_draw_mask_radius:abs_y <- $r7
	@DEBUG_VALUE: lv_draw_mask_radius:abs_x <- $r6
	@DEBUG_VALUE: lv_draw_mask_radius:mask_buf <- $r5
	@DEBUG_VALUE: lv_draw_mask_radius:p <- [DW_OP_plus_uconst 88] [$sp+0]
	.loc	6 0 8 is_stmt 0                 @ lvgl/src/lv_draw/lv_draw_mask.c:0:8
	str	r4, [sp, #20]                   @ 4-byte Spill
	add	r4, sp, #44
	mov	r10, r5
.Ltmp353:
	@DEBUG_VALUE: lv_draw_mask_radius:mask_buf <- $r10
	str	r2, [sp, #8]                    @ 4-byte Spill
	uxth	r5, r0
.Ltmp354:
	@DEBUG_VALUE: lv_draw_mask_radius:k <- undef
	.loc	6 928 17 is_stmt 1              @ lvgl/src/lv_draw/lv_draw_mask.c:928:17
	mov	r0, r4
	bl	lv_area_get_width
	str	r0, [sp, #12]                   @ 4-byte Spill
.Ltmp355:
	@DEBUG_VALUE: lv_draw_mask_radius:w <- [DW_OP_plus_uconst 12] [$sp+0]
	.loc	6 929 17                        @ lvgl/src/lv_draw/lv_draw_mask.c:929:17
	mov	r0, r4
	bl	lv_area_get_height
	.loc	6 931 11                        @ lvgl/src/lv_draw/lv_draw_mask.c:931:11
	subs	r1, r7, r5
.Ltmp356:
	@DEBUG_VALUE: lv_draw_mask_radius:abs_y <- $r1
	.loc	6 933 26                        @ lvgl/src/lv_draw/lv_draw_mask.c:933:26
	ldrsh.w	r2, [r11, #16]
.Ltmp357:
	@DEBUG_VALUE: lv_draw_mask_radius:r2 <- undef
	.loc	6 931 11                        @ lvgl/src/lv_draw/lv_draw_mask.c:931:11
	sxth	r1, r1
.Ltmp358:
	.loc	6 936 23                        @ lvgl/src/lv_draw/lv_draw_mask.c:936:23
	cmp	r8, r1
.Ltmp359:
	@DEBUG_VALUE: lv_draw_mask_radius:h <- $r0
	@DEBUG_VALUE: lv_draw_mask_radius:abs_x <- [DW_OP_LLVM_convert 32 7, DW_OP_LLVM_convert 16 7, DW_OP_stack_value] undef
	bgt	.LBB14_13
.Ltmp360:
@ %bb.12:
	@DEBUG_VALUE: lv_draw_mask_radius:mask_buf <- $r10
	@DEBUG_VALUE: lv_draw_mask_radius:len <- $r9
	@DEBUG_VALUE: lv_draw_mask_radius:radius <- $r8
	@DEBUG_VALUE: lv_draw_mask_radius:h <- $r0
	@DEBUG_VALUE: lv_draw_mask_radius:w <- [DW_OP_plus_uconst 12] [$sp+0]
	@DEBUG_VALUE: lv_draw_mask_radius:p <- [DW_OP_plus_uconst 88] [$sp+0]
	.loc	6 936 45 is_stmt 0              @ lvgl/src/lv_draw/lv_draw_mask.c:936:45
	mvn.w	r3, r8
	add	r3, r0
.Ltmp361:
	.loc	6 936 8                         @ lvgl/src/lv_draw/lv_draw_mask.c:936:8
	cmp	r3, r1
	bge.w	.LBB14_91
.Ltmp362:
.LBB14_13:
	@DEBUG_VALUE: lv_draw_mask_radius:mask_buf <- $r10
	@DEBUG_VALUE: lv_draw_mask_radius:len <- $r9
	@DEBUG_VALUE: lv_draw_mask_radius:radius <- $r8
	@DEBUG_VALUE: lv_draw_mask_radius:h <- $r0
	@DEBUG_VALUE: lv_draw_mask_radius:w <- [DW_OP_plus_uconst 12] [$sp+0]
	@DEBUG_VALUE: lv_draw_mask_radius:p <- [DW_OP_plus_uconst 88] [$sp+0]
	@DEBUG_VALUE: lv_draw_mask_radius:k <- undef
	.loc	6 0 8                           @ lvgl/src/lv_draw/lv_draw_mask.c:0:8
	mul	r7, r2, r2
.Ltmp363:
	@DEBUG_VALUE: lv_draw_mask_radius:r2 <- $r7
	mov.w	r2, #32768
.Ltmp364:
	.loc	6 940 12 is_stmt 1              @ lvgl/src/lv_draw/lv_draw_mask.c:940:12
	cmp.w	r8, #256
	it	le
	movle.w	r2, #2048
.Ltmp365:
	@DEBUG_VALUE: sqrt_mask <- $r2
	.loc	6 947 12                        @ lvgl/src/lv_draw/lv_draw_mask.c:947:12
	cmp	r8, r1
	str	r7, [sp, #24]                   @ 4-byte Spill
	str	r2, [sp, #16]                   @ 4-byte Spill
.Ltmp366:
	@DEBUG_VALUE: sqrt_mask <- [DW_OP_plus_uconst 16] [$sp+0]
	ble	.LBB14_26
.Ltmp367:
@ %bb.14:
	@DEBUG_VALUE: lv_draw_mask_radius:mask_buf <- $r10
	@DEBUG_VALUE: lv_draw_mask_radius:len <- $r9
	@DEBUG_VALUE: lv_draw_mask_radius:radius <- $r8
	@DEBUG_VALUE: lv_draw_mask_radius:r2 <- $r7
	@DEBUG_VALUE: lv_draw_mask_radius:h <- $r0
	@DEBUG_VALUE: sqrt_mask <- [DW_OP_plus_uconst 16] [$sp+0]
	@DEBUG_VALUE: lv_draw_mask_radius:w <- [DW_OP_plus_uconst 12] [$sp+0]
	@DEBUG_VALUE: lv_draw_mask_radius:p <- [DW_OP_plus_uconst 88] [$sp+0]
	.loc	6 948 24                        @ lvgl/src/lv_draw/lv_draw_mask.c:948:24
	sub.w	r4, r8, r1
.Ltmp368:
	@DEBUG_VALUE: y <- $r4
	.loc	6 953 24                        @ lvgl/src/lv_draw/lv_draw_mask.c:953:24
	ldr.w	r0, [r11, #20]
.Ltmp369:
	.loc	6 953 16 is_stmt 0              @ lvgl/src/lv_draw/lv_draw_mask.c:953:16
	cmp	r4, r0
	bne	.LBB14_28
.Ltmp370:
@ %bb.15:
	@DEBUG_VALUE: lv_draw_mask_radius:mask_buf <- $r10
	@DEBUG_VALUE: lv_draw_mask_radius:len <- $r9
	@DEBUG_VALUE: lv_draw_mask_radius:radius <- $r8
	@DEBUG_VALUE: lv_draw_mask_radius:r2 <- $r7
	@DEBUG_VALUE: y <- $r4
	@DEBUG_VALUE: sqrt_mask <- [DW_OP_plus_uconst 16] [$sp+0]
	@DEBUG_VALUE: lv_draw_mask_radius:w <- [DW_OP_plus_uconst 12] [$sp+0]
	@DEBUG_VALUE: lv_draw_mask_radius:p <- [DW_OP_plus_uconst 88] [$sp+0]
	.loc	6 955 36 is_stmt 1              @ lvgl/src/lv_draw/lv_draw_mask.c:955:36
	ldr.w	r0, [r11, #24]
	.loc	6 955 22 is_stmt 0              @ lvgl/src/lv_draw/lv_draw_mask.c:955:22
	str	r0, [sp, #40]
	b	.LBB14_29
.Ltmp371:
.LBB14_16:
	@DEBUG_VALUE: lv_draw_mask_radius:len <- $r9
	@DEBUG_VALUE: lv_draw_mask_radius:radius <- $r8
	@DEBUG_VALUE: lv_draw_mask_radius:abs_y <- $r7
	@DEBUG_VALUE: lv_draw_mask_radius:abs_x <- $r6
	@DEBUG_VALUE: lv_draw_mask_radius:mask_buf <- $r5
	@DEBUG_VALUE: lv_draw_mask_radius:p <- [DW_OP_plus_uconst 88] [$sp+0]
	.loc	6 0 0                           @ lvgl/src/lv_draw/lv_draw_mask.c:0:0
	sub.w	r7, r2, r6
.Ltmp372:
	.loc	6 897 12 is_stmt 1              @ lvgl/src/lv_draw/lv_draw_mask.c:897:12
	cbnz	r4, .LBB14_24
.Ltmp373:
@ %bb.17:
	@DEBUG_VALUE: lv_draw_mask_radius:len <- $r9
	@DEBUG_VALUE: lv_draw_mask_radius:radius <- $r8
	@DEBUG_VALUE: lv_draw_mask_radius:abs_x <- $r6
	@DEBUG_VALUE: lv_draw_mask_radius:mask_buf <- $r5
	@DEBUG_VALUE: lv_draw_mask_radius:p <- [DW_OP_plus_uconst 88] [$sp+0]
	@DEBUG_VALUE: last <- $r7
	.loc	6 900 16                        @ lvgl/src/lv_draw/lv_draw_mask.c:900:16
	cmp	r7, r9
	bgt	.LBB14_3
.Ltmp374:
@ %bb.18:
	@DEBUG_VALUE: lv_draw_mask_radius:len <- $r9
	@DEBUG_VALUE: lv_draw_mask_radius:radius <- $r8
	@DEBUG_VALUE: last <- $r7
	@DEBUG_VALUE: lv_draw_mask_radius:abs_x <- $r6
	@DEBUG_VALUE: lv_draw_mask_radius:mask_buf <- $r5
	@DEBUG_VALUE: lv_draw_mask_radius:p <- [DW_OP_plus_uconst 88] [$sp+0]
	@DEBUG_VALUE: last <- $r7
	.loc	6 901 16                        @ lvgl/src/lv_draw/lv_draw_mask.c:901:16
	cmp	r7, #0
	bmi	.LBB14_20
.Ltmp375:
@ %bb.19:
	@DEBUG_VALUE: lv_draw_mask_radius:len <- $r9
	@DEBUG_VALUE: lv_draw_mask_radius:radius <- $r8
	@DEBUG_VALUE: last <- $r7
	@DEBUG_VALUE: lv_draw_mask_radius:abs_x <- $r6
	@DEBUG_VALUE: lv_draw_mask_radius:mask_buf <- $r5
	@DEBUG_VALUE: lv_draw_mask_radius:p <- [DW_OP_plus_uconst 88] [$sp+0]
	@DEBUG_VALUE: last <- $r7
	.loc	6 902 17                        @ lvgl/src/lv_draw/lv_draw_mask.c:902:17
	mov	r0, r5
	mov	r1, r7
	bl	_lv_memset_00
.Ltmp376:
.LBB14_20:
	@DEBUG_VALUE: lv_draw_mask_radius:len <- $r9
	@DEBUG_VALUE: lv_draw_mask_radius:radius <- $r8
	@DEBUG_VALUE: last <- $r7
	@DEBUG_VALUE: lv_draw_mask_radius:abs_x <- $r6
	@DEBUG_VALUE: lv_draw_mask_radius:mask_buf <- $r5
	@DEBUG_VALUE: lv_draw_mask_radius:p <- [DW_OP_plus_uconst 88] [$sp+0]
	.loc	6 905 34                        @ lvgl/src/lv_draw/lv_draw_mask.c:905:34
	ldrsh.w	r0, [sp, #48]
	.loc	6 905 37 is_stmt 0              @ lvgl/src/lv_draw/lv_draw_mask.c:905:37
	subs	r0, r0, r6
.Ltmp377:
	@DEBUG_VALUE: first <- undef
	.loc	6 906 16 is_stmt 1              @ lvgl/src/lv_draw/lv_draw_mask.c:906:16
	bmi	.LBB14_3
.Ltmp378:
@ %bb.21:
	@DEBUG_VALUE: lv_draw_mask_radius:len <- $r9
	@DEBUG_VALUE: lv_draw_mask_radius:radius <- $r8
	@DEBUG_VALUE: last <- $r7
	@DEBUG_VALUE: lv_draw_mask_radius:abs_x <- $r6
	@DEBUG_VALUE: lv_draw_mask_radius:mask_buf <- $r5
	@DEBUG_VALUE: lv_draw_mask_radius:p <- [DW_OP_plus_uconst 88] [$sp+0]
	.loc	6 0 0 is_stmt 0                 @ lvgl/src/lv_draw/lv_draw_mask.c:0:0
	adds	r4, r0, #1
.Ltmp379:
	@DEBUG_VALUE: first <- $r4
	.loc	6 907 21 is_stmt 1              @ lvgl/src/lv_draw/lv_draw_mask.c:907:21
	cmp	r4, r9
	bge	.LBB14_23
.Ltmp380:
@ %bb.22:
	@DEBUG_VALUE: lv_draw_mask_radius:len <- $r9
	@DEBUG_VALUE: lv_draw_mask_radius:radius <- $r8
	@DEBUG_VALUE: last <- $r7
	@DEBUG_VALUE: lv_draw_mask_radius:abs_x <- $r6
	@DEBUG_VALUE: lv_draw_mask_radius:mask_buf <- $r5
	@DEBUG_VALUE: first <- $r4
	@DEBUG_VALUE: lv_draw_mask_radius:p <- [DW_OP_plus_uconst 88] [$sp+0]
	.loc	6 908 32                        @ lvgl/src/lv_draw/lv_draw_mask.c:908:32
	adds	r0, r5, r4
	.loc	6 908 53 is_stmt 0              @ lvgl/src/lv_draw/lv_draw_mask.c:908:53
	sub.w	r1, r9, r4
	.loc	6 908 17                        @ lvgl/src/lv_draw/lv_draw_mask.c:908:17
	bl	_lv_memset_00
.Ltmp381:
.LBB14_23:
	@DEBUG_VALUE: lv_draw_mask_radius:len <- $r9
	@DEBUG_VALUE: lv_draw_mask_radius:radius <- $r8
	@DEBUG_VALUE: last <- $r7
	@DEBUG_VALUE: lv_draw_mask_radius:abs_x <- $r6
	@DEBUG_VALUE: lv_draw_mask_radius:mask_buf <- $r5
	@DEBUG_VALUE: first <- $r4
	@DEBUG_VALUE: lv_draw_mask_radius:p <- [DW_OP_plus_uconst 88] [$sp+0]
	.loc	6 0 17                          @ lvgl/src/lv_draw/lv_draw_mask.c:0:17
	eor.w	r0, r4, r9
.Ltmp382:
	.loc	6 910 26 is_stmt 1              @ lvgl/src/lv_draw/lv_draw_mask.c:910:26
	orrs	r0, r7
	mov.w	r0, #2
	it	eq
	moveq	r0, #1
.Ltmp383:
	.loc	6 1124 1                        @ lvgl/src/lv_draw/lv_draw_mask.c:1124:1
	add	sp, #52
	pop.w	{r4, r5, r6, r7, r8, r9, r10, r11, pc}
.Ltmp384:
.LBB14_24:
	@DEBUG_VALUE: lv_draw_mask_radius:len <- $r9
	@DEBUG_VALUE: lv_draw_mask_radius:radius <- $r8
	@DEBUG_VALUE: lv_draw_mask_radius:abs_x <- $r6
	@DEBUG_VALUE: lv_draw_mask_radius:mask_buf <- $r5
	@DEBUG_VALUE: lv_draw_mask_radius:p <- [DW_OP_plus_uconst 88] [$sp+0]
	@DEBUG_VALUE: first <- $r7
	.loc	6 915 16                        @ lvgl/src/lv_draw/lv_draw_mask.c:915:16
	bic.w	r0, r7, r7, asr #31
.Ltmp385:
	@DEBUG_VALUE: first <- $r0
	.loc	6 916 16                        @ lvgl/src/lv_draw/lv_draw_mask.c:916:16
	cmp	r0, r9
	bgt.w	.LBB14_91
.Ltmp386:
@ %bb.25:
	@DEBUG_VALUE: lv_draw_mask_radius:len <- $r9
	@DEBUG_VALUE: lv_draw_mask_radius:radius <- $r8
	@DEBUG_VALUE: lv_draw_mask_radius:abs_x <- $r6
	@DEBUG_VALUE: lv_draw_mask_radius:mask_buf <- $r5
	@DEBUG_VALUE: first <- $r0
	@DEBUG_VALUE: lv_draw_mask_radius:p <- [DW_OP_plus_uconst 88] [$sp+0]
	.loc	6 917 38                        @ lvgl/src/lv_draw/lv_draw_mask.c:917:38
	ldrsh.w	r1, [sp, #48]
	.loc	6 917 41 is_stmt 0              @ lvgl/src/lv_draw/lv_draw_mask.c:917:41
	adds	r2, r0, r6
	subs	r3, r1, r6
	.loc	6 917 57                        @ lvgl/src/lv_draw/lv_draw_mask.c:917:57
	subs	r2, r1, r2
.Ltmp387:
	@DEBUG_VALUE: last <- undef
	.loc	6 0 57                          @ lvgl/src/lv_draw/lv_draw_mask.c:0:57
	sub.w	r1, r9, r0
	.loc	6 918 20 is_stmt 1              @ lvgl/src/lv_draw/lv_draw_mask.c:918:20
	cmp	r3, r9
	it	lt
	addlt	r1, r2, #1
.Ltmp388:
	@DEBUG_VALUE: last <- $r1
	.loc	6 919 20                        @ lvgl/src/lv_draw/lv_draw_mask.c:919:20
	cmp	r1, #0
	bpl.w	.LBB14_74
	b	.LBB14_91
.Ltmp389:
.LBB14_26:
	@DEBUG_VALUE: lv_draw_mask_radius:mask_buf <- $r10
	@DEBUG_VALUE: lv_draw_mask_radius:len <- $r9
	@DEBUG_VALUE: lv_draw_mask_radius:radius <- $r8
	@DEBUG_VALUE: lv_draw_mask_radius:r2 <- $r7
	@DEBUG_VALUE: lv_draw_mask_radius:h <- $r0
	@DEBUG_VALUE: sqrt_mask <- [DW_OP_plus_uconst 16] [$sp+0]
	@DEBUG_VALUE: lv_draw_mask_radius:w <- [DW_OP_plus_uconst 12] [$sp+0]
	@DEBUG_VALUE: lv_draw_mask_radius:p <- [DW_OP_plus_uconst 88] [$sp+0]
	.loc	6 966 29                        @ lvgl/src/lv_draw/lv_draw_mask.c:966:29
	subs	r0, r1, r0
.Ltmp390:
	.loc	6 971 30                        @ lvgl/src/lv_draw/lv_draw_mask.c:971:30
	ldr.w	r1, [r11, #20]
.Ltmp391:
	.loc	6 966 24                        @ lvgl/src/lv_draw/lv_draw_mask.c:966:24
	add	r0, r8
	.loc	6 971 16                        @ lvgl/src/lv_draw/lv_draw_mask.c:971:16
	cmp	r0, r1
	.loc	6 966 38                        @ lvgl/src/lv_draw/lv_draw_mask.c:966:38
	add.w	r4, r0, #1
.Ltmp392:
	@DEBUG_VALUE: y <- $r4
	.loc	6 971 16                        @ lvgl/src/lv_draw/lv_draw_mask.c:971:16
	bne	.LBB14_30
.Ltmp393:
@ %bb.27:
	@DEBUG_VALUE: lv_draw_mask_radius:mask_buf <- $r10
	@DEBUG_VALUE: lv_draw_mask_radius:len <- $r9
	@DEBUG_VALUE: lv_draw_mask_radius:radius <- $r8
	@DEBUG_VALUE: lv_draw_mask_radius:r2 <- $r7
	@DEBUG_VALUE: y <- $r4
	@DEBUG_VALUE: sqrt_mask <- [DW_OP_plus_uconst 16] [$sp+0]
	@DEBUG_VALUE: lv_draw_mask_radius:w <- [DW_OP_plus_uconst 12] [$sp+0]
	@DEBUG_VALUE: lv_draw_mask_radius:p <- [DW_OP_plus_uconst 88] [$sp+0]
	.loc	6 973 36                        @ lvgl/src/lv_draw/lv_draw_mask.c:973:36
	ldr.w	r0, [r11, #24]
	.loc	6 973 22 is_stmt 0              @ lvgl/src/lv_draw/lv_draw_mask.c:973:22
	str	r0, [sp, #36]
	b	.LBB14_31
.Ltmp394:
.LBB14_28:
	@DEBUG_VALUE: lv_draw_mask_radius:mask_buf <- $r10
	@DEBUG_VALUE: lv_draw_mask_radius:len <- $r9
	@DEBUG_VALUE: lv_draw_mask_radius:radius <- $r8
	@DEBUG_VALUE: lv_draw_mask_radius:r2 <- $r7
	@DEBUG_VALUE: y <- $r4
	@DEBUG_VALUE: sqrt_mask <- [DW_OP_plus_uconst 16] [$sp+0]
	@DEBUG_VALUE: lv_draw_mask_radius:w <- [DW_OP_plus_uconst 12] [$sp+0]
	@DEBUG_VALUE: lv_draw_mask_radius:p <- [DW_OP_plus_uconst 88] [$sp+0]
	.loc	6 958 29 is_stmt 1              @ lvgl/src/lv_draw/lv_draw_mask.c:958:29
	mls	r0, r4, r4, r7
	add	r1, sp, #40
	.loc	6 958 17 is_stmt 0              @ lvgl/src/lv_draw/lv_draw_mask.c:958:17
	ldr	r2, [sp, #16]                   @ 4-byte Reload
	bl	_lv_sqrt
	ldr	r2, [sp, #16]                   @ 4-byte Reload
.Ltmp395:
.LBB14_29:
	@DEBUG_VALUE: lv_draw_mask_radius:mask_buf <- $r10
	@DEBUG_VALUE: lv_draw_mask_radius:len <- $r9
	@DEBUG_VALUE: lv_draw_mask_radius:radius <- $r8
	@DEBUG_VALUE: lv_draw_mask_radius:r2 <- $r7
	@DEBUG_VALUE: y <- $r4
	@DEBUG_VALUE: sqrt_mask <- [DW_OP_plus_uconst 16] [$sp+0]
	@DEBUG_VALUE: lv_draw_mask_radius:w <- [DW_OP_plus_uconst 12] [$sp+0]
	@DEBUG_VALUE: lv_draw_mask_radius:p <- [DW_OP_plus_uconst 88] [$sp+0]
	.loc	6 0 17                          @ lvgl/src/lv_draw/lv_draw_mask.c:0:17
	str	r4, [sp, #4]                    @ 4-byte Spill
.Ltmp396:
	@DEBUG_VALUE: y <- [DW_OP_plus_uconst 4] [$sp+0]
	.loc	6 960 31 is_stmt 1              @ lvgl/src/lv_draw/lv_draw_mask.c:960:31
	subs	r4, #1
	.loc	6 960 25 is_stmt 0              @ lvgl/src/lv_draw/lv_draw_mask.c:960:25
	mls	r0, r4, r4, r7
	add	r1, sp, #36
	mov	r5, r10
.Ltmp397:
	@DEBUG_VALUE: lv_draw_mask_radius:mask_buf <- $r5
	.loc	6 0 25                          @ lvgl/src/lv_draw/lv_draw_mask.c:0:25
	ldr.w	r10, [sp, #20]                  @ 4-byte Reload
	.loc	6 960 13                        @ lvgl/src/lv_draw/lv_draw_mask.c:960:13
	bl	_lv_sqrt
	.loc	6 962 32 is_stmt 1              @ lvgl/src/lv_draw/lv_draw_mask.c:962:32
	ldrh.w	r1, [sp, #38]
	.loc	6 961 23                        @ lvgl/src/lv_draw/lv_draw_mask.c:961:23
	str.w	r4, [r11, #20]
	.loc	6 963 32                        @ lvgl/src/lv_draw/lv_draw_mask.c:963:32
	ldrh.w	r0, [sp, #36]
	b	.LBB14_32
.Ltmp398:
.LBB14_30:
	@DEBUG_VALUE: lv_draw_mask_radius:mask_buf <- $r10
	@DEBUG_VALUE: lv_draw_mask_radius:len <- $r9
	@DEBUG_VALUE: lv_draw_mask_radius:radius <- $r8
	@DEBUG_VALUE: lv_draw_mask_radius:r2 <- $r7
	@DEBUG_VALUE: y <- $r4
	@DEBUG_VALUE: sqrt_mask <- [DW_OP_plus_uconst 16] [$sp+0]
	@DEBUG_VALUE: lv_draw_mask_radius:w <- [DW_OP_plus_uconst 12] [$sp+0]
	@DEBUG_VALUE: lv_draw_mask_radius:p <- [DW_OP_plus_uconst 88] [$sp+0]
	.loc	6 976 29                        @ lvgl/src/lv_draw/lv_draw_mask.c:976:29
	mls	r0, r0, r0, r7
	add	r1, sp, #36
	.loc	6 976 17 is_stmt 0              @ lvgl/src/lv_draw/lv_draw_mask.c:976:17
	ldr	r2, [sp, #16]                   @ 4-byte Reload
	bl	_lv_sqrt
	ldr	r2, [sp, #16]                   @ 4-byte Reload
.Ltmp399:
.LBB14_31:
	@DEBUG_VALUE: lv_draw_mask_radius:mask_buf <- $r10
	@DEBUG_VALUE: lv_draw_mask_radius:len <- $r9
	@DEBUG_VALUE: lv_draw_mask_radius:radius <- $r8
	@DEBUG_VALUE: lv_draw_mask_radius:r2 <- $r7
	@DEBUG_VALUE: y <- $r4
	@DEBUG_VALUE: sqrt_mask <- [DW_OP_plus_uconst 16] [$sp+0]
	@DEBUG_VALUE: lv_draw_mask_radius:w <- [DW_OP_plus_uconst 12] [$sp+0]
	@DEBUG_VALUE: lv_draw_mask_radius:p <- [DW_OP_plus_uconst 88] [$sp+0]
	.loc	6 979 25 is_stmt 1              @ lvgl/src/lv_draw/lv_draw_mask.c:979:25
	mls	r0, r4, r4, r7
	add	r1, sp, #40
	mov	r5, r10
.Ltmp400:
	@DEBUG_VALUE: lv_draw_mask_radius:mask_buf <- $r5
	.loc	6 0 25 is_stmt 0                @ lvgl/src/lv_draw/lv_draw_mask.c:0:25
	ldr.w	r10, [sp, #20]                  @ 4-byte Reload
	.loc	6 979 13                        @ lvgl/src/lv_draw/lv_draw_mask.c:979:13
	bl	_lv_sqrt
	.loc	6 981 32 is_stmt 1              @ lvgl/src/lv_draw/lv_draw_mask.c:981:32
	ldrh.w	r1, [sp, #42]
	str	r4, [sp, #4]                    @ 4-byte Spill
	.loc	6 982 32                        @ lvgl/src/lv_draw/lv_draw_mask.c:982:32
	ldrh.w	r0, [sp, #40]
	.loc	6 980 23                        @ lvgl/src/lv_draw/lv_draw_mask.c:980:23
	str.w	r4, [r11, #20]
.Ltmp401:
.LBB14_32:
	@DEBUG_VALUE: lv_draw_mask_radius:len <- $r9
	@DEBUG_VALUE: lv_draw_mask_radius:radius <- $r8
	@DEBUG_VALUE: lv_draw_mask_radius:r2 <- $r7
	@DEBUG_VALUE: lv_draw_mask_radius:mask_buf <- $r5
	@DEBUG_VALUE: sqrt_mask <- [DW_OP_plus_uconst 16] [$sp+0]
	@DEBUG_VALUE: lv_draw_mask_radius:w <- [DW_OP_plus_uconst 12] [$sp+0]
	@DEBUG_VALUE: lv_draw_mask_radius:p <- [DW_OP_plus_uconst 88] [$sp+0]
	.loc	6 0 0 is_stmt 0                 @ lvgl/src/lv_draw/lv_draw_mask.c:0:0
	strh.w	r1, [r11, #26]
.Ltmp402:
	.loc	6 987 23 is_stmt 1              @ lvgl/src/lv_draw/lv_draw_mask.c:987:23
	ldrh.w	r1, [sp, #36]
	.loc	6 987 15 is_stmt 0              @ lvgl/src/lv_draw/lv_draw_mask.c:987:15
	ldrh.w	r7, [sp, #40]
.Ltmp403:
	.loc	6 0 0                           @ lvgl/src/lv_draw/lv_draw_mask.c:0:0
	strh.w	r0, [r11, #24]
.Ltmp404:
	@DEBUG_VALUE: y <- [DW_OP_plus_uconst 4] [$sp+0]
	.loc	6 987 25                        @ lvgl/src/lv_draw/lv_draw_mask.c:987:25
	subs	r1, #1
	ldr	r2, [sp, #8]                    @ 4-byte Reload
.Ltmp405:
	@DEBUG_VALUE: lv_draw_mask_radius:k <- undef
	.loc	6 987 29                        @ lvgl/src/lv_draw/lv_draw_mask.c:987:29
	cmp	r1, r7
	bne	.LBB14_35
.Ltmp406:
@ %bb.33:
	@DEBUG_VALUE: lv_draw_mask_radius:len <- $r9
	@DEBUG_VALUE: lv_draw_mask_radius:radius <- $r8
	@DEBUG_VALUE: lv_draw_mask_radius:mask_buf <- $r5
	@DEBUG_VALUE: y <- [DW_OP_plus_uconst 4] [$sp+0]
	@DEBUG_VALUE: sqrt_mask <- [DW_OP_plus_uconst 16] [$sp+0]
	@DEBUG_VALUE: lv_draw_mask_radius:w <- [DW_OP_plus_uconst 12] [$sp+0]
	@DEBUG_VALUE: lv_draw_mask_radius:p <- [DW_OP_plus_uconst 88] [$sp+0]
	.loc	6 987 35                        @ lvgl/src/lv_draw/lv_draw_mask.c:987:35
	ldrh.w	r0, [sp, #38]
.Ltmp407:
	.loc	6 987 12                        @ lvgl/src/lv_draw/lv_draw_mask.c:987:12
	cbnz	r0, .LBB14_35
.Ltmp408:
@ %bb.34:
	@DEBUG_VALUE: lv_draw_mask_radius:len <- $r9
	@DEBUG_VALUE: lv_draw_mask_radius:radius <- $r8
	@DEBUG_VALUE: lv_draw_mask_radius:mask_buf <- $r5
	@DEBUG_VALUE: y <- [DW_OP_plus_uconst 4] [$sp+0]
	@DEBUG_VALUE: sqrt_mask <- [DW_OP_plus_uconst 16] [$sp+0]
	@DEBUG_VALUE: lv_draw_mask_radius:w <- [DW_OP_plus_uconst 12] [$sp+0]
	@DEBUG_VALUE: lv_draw_mask_radius:p <- [DW_OP_plus_uconst 88] [$sp+0]
	.loc	6 988 17 is_stmt 1              @ lvgl/src/lv_draw/lv_draw_mask.c:988:17
	strh.w	r1, [sp, #36]
	movs	r0, #255
	.loc	6 989 18                        @ lvgl/src/lv_draw/lv_draw_mask.c:989:18
	strh.w	r0, [sp, #38]
.Ltmp409:
.LBB14_35:
	@DEBUG_VALUE: lv_draw_mask_radius:len <- $r9
	@DEBUG_VALUE: lv_draw_mask_radius:radius <- $r8
	@DEBUG_VALUE: lv_draw_mask_radius:mask_buf <- $r5
	@DEBUG_VALUE: y <- [DW_OP_plus_uconst 4] [$sp+0]
	@DEBUG_VALUE: sqrt_mask <- [DW_OP_plus_uconst 16] [$sp+0]
	@DEBUG_VALUE: lv_draw_mask_radius:w <- [DW_OP_plus_uconst 12] [$sp+0]
	@DEBUG_VALUE: lv_draw_mask_radius:p <- [DW_OP_plus_uconst 88] [$sp+0]
	.loc	6 993 23                        @ lvgl/src/lv_draw/lv_draw_mask.c:993:23
	ldrh.w	r0, [sp, #36]
	subs	r4, r2, r6
.Ltmp410:
	@DEBUG_VALUE: lv_draw_mask_radius:k <- $r4
	.loc	6 993 12 is_stmt 0              @ lvgl/src/lv_draw/lv_draw_mask.c:993:12
	cmp	r7, r0
	bne	.LBB14_49
.Ltmp411:
@ %bb.36:
	@DEBUG_VALUE: lv_draw_mask_radius:len <- $r9
	@DEBUG_VALUE: lv_draw_mask_radius:radius <- $r8
	@DEBUG_VALUE: lv_draw_mask_radius:mask_buf <- $r5
	@DEBUG_VALUE: lv_draw_mask_radius:k <- $r4
	@DEBUG_VALUE: y <- [DW_OP_plus_uconst 4] [$sp+0]
	@DEBUG_VALUE: sqrt_mask <- [DW_OP_plus_uconst 16] [$sp+0]
	@DEBUG_VALUE: lv_draw_mask_radius:w <- [DW_OP_plus_uconst 12] [$sp+0]
	@DEBUG_VALUE: lv_draw_mask_radius:p <- [DW_OP_plus_uconst 88] [$sp+0]
	.loc	6 994 27 is_stmt 1              @ lvgl/src/lv_draw/lv_draw_mask.c:994:27
	ldrh.w	r0, [sp, #42]
	.loc	6 994 34 is_stmt 0              @ lvgl/src/lv_draw/lv_draw_mask.c:994:34
	ldrh.w	r1, [sp, #38]
	.loc	6 995 16 is_stmt 1              @ lvgl/src/lv_draw/lv_draw_mask.c:995:16
	cmp.w	r10, #0
	.loc	6 996 41                        @ lvgl/src/lv_draw/lv_draw_mask.c:996:41
	add.w	r10, r4, r8
	.loc	6 994 32                        @ lvgl/src/lv_draw/lv_draw_mask.c:994:32
	add	r0, r1
	.loc	6 996 41                        @ lvgl/src/lv_draw/lv_draw_mask.c:996:41
	mvn.w	r1, r7
.Ltmp412:
	@DEBUG_VALUE: ofs <- undef
	.loc	6 994 40                        @ lvgl/src/lv_draw/lv_draw_mask.c:994:40
	lsr.w	r6, r0, #1
.Ltmp413:
	@DEBUG_VALUE: m <- $r6
	.loc	6 995 16                        @ lvgl/src/lv_draw/lv_draw_mask.c:995:16
	it	ne
	mvnne.w	r6, r0, lsr #1
.Ltmp414:
	@DEBUG_VALUE: m <- $r6
	.loc	6 999 28                        @ lvgl/src/lv_draw/lv_draw_mask.c:999:28
	adds.w	r11, r10, r1
.Ltmp415:
	@DEBUG_VALUE: kl <- $r11
	.loc	6 1001 24                       @ lvgl/src/lv_draw/lv_draw_mask.c:1001:24
	bmi	.LBB14_39
.Ltmp416:
@ %bb.37:
	@DEBUG_VALUE: kl <- $r11
	@DEBUG_VALUE: lv_draw_mask_radius:len <- $r9
	@DEBUG_VALUE: lv_draw_mask_radius:radius <- $r8
	@DEBUG_VALUE: m <- $r6
	@DEBUG_VALUE: lv_draw_mask_radius:mask_buf <- $r5
	@DEBUG_VALUE: lv_draw_mask_radius:k <- $r4
	@DEBUG_VALUE: y <- [DW_OP_plus_uconst 4] [$sp+0]
	@DEBUG_VALUE: sqrt_mask <- [DW_OP_plus_uconst 16] [$sp+0]
	@DEBUG_VALUE: lv_draw_mask_radius:w <- [DW_OP_plus_uconst 12] [$sp+0]
	@DEBUG_VALUE: lv_draw_mask_radius:p <- [DW_OP_plus_uconst 88] [$sp+0]
	cmp	r11, r9
	bge	.LBB14_39
.Ltmp417:
@ %bb.38:
	@DEBUG_VALUE: kl <- $r11
	@DEBUG_VALUE: lv_draw_mask_radius:len <- $r9
	@DEBUG_VALUE: lv_draw_mask_radius:radius <- $r8
	@DEBUG_VALUE: m <- $r6
	@DEBUG_VALUE: lv_draw_mask_radius:mask_buf <- $r5
	@DEBUG_VALUE: lv_draw_mask_radius:k <- $r4
	@DEBUG_VALUE: y <- [DW_OP_plus_uconst 4] [$sp+0]
	@DEBUG_VALUE: sqrt_mask <- [DW_OP_plus_uconst 16] [$sp+0]
	@DEBUG_VALUE: lv_draw_mask_radius:w <- [DW_OP_plus_uconst 12] [$sp+0]
	@DEBUG_VALUE: lv_draw_mask_radius:p <- [DW_OP_plus_uconst 88] [$sp+0]
	.loc	6 1002 32                       @ lvgl/src/lv_draw/lv_draw_mask.c:1002:32
	uxtb	r1, r6
	.loc	6 1002 41 is_stmt 0             @ lvgl/src/lv_draw/lv_draw_mask.c:1002:41
	ldrb.w	r0, [r5, r11]
	.loc	6 1002 32                       @ lvgl/src/lv_draw/lv_draw_mask.c:1002:32
	bl	mask_mix
	.loc	6 1002 30                       @ lvgl/src/lv_draw/lv_draw_mask.c:1002:30
	strb.w	r0, [r5, r11]
.Ltmp418:
.LBB14_39:
	@DEBUG_VALUE: kl <- $r11
	@DEBUG_VALUE: lv_draw_mask_radius:len <- $r9
	@DEBUG_VALUE: lv_draw_mask_radius:radius <- $r8
	@DEBUG_VALUE: m <- $r6
	@DEBUG_VALUE: lv_draw_mask_radius:mask_buf <- $r5
	@DEBUG_VALUE: lv_draw_mask_radius:k <- $r4
	@DEBUG_VALUE: y <- [DW_OP_plus_uconst 4] [$sp+0]
	@DEBUG_VALUE: sqrt_mask <- [DW_OP_plus_uconst 16] [$sp+0]
	@DEBUG_VALUE: lv_draw_mask_radius:w <- [DW_OP_plus_uconst 12] [$sp+0]
	@DEBUG_VALUE: lv_draw_mask_radius:p <- [DW_OP_plus_uconst 88] [$sp+0]
	.loc	6 1006 39 is_stmt 1             @ lvgl/src/lv_draw/lv_draw_mask.c:1006:39
	ldr	r0, [sp, #12]                   @ 4-byte Reload
	add	r0, r4
	sub.w	r0, r0, r8
	.loc	6 1006 28 is_stmt 0             @ lvgl/src/lv_draw/lv_draw_mask.c:1006:28
	adds	r4, r0, r7
.Ltmp419:
	@DEBUG_VALUE: kr <- $r4
	.loc	6 1007 24 is_stmt 1             @ lvgl/src/lv_draw/lv_draw_mask.c:1007:24
	bmi	.LBB14_42
.Ltmp420:
@ %bb.40:
	@DEBUG_VALUE: kl <- $r11
	@DEBUG_VALUE: lv_draw_mask_radius:len <- $r9
	@DEBUG_VALUE: lv_draw_mask_radius:radius <- $r8
	@DEBUG_VALUE: m <- $r6
	@DEBUG_VALUE: lv_draw_mask_radius:mask_buf <- $r5
	@DEBUG_VALUE: kr <- $r4
	@DEBUG_VALUE: y <- [DW_OP_plus_uconst 4] [$sp+0]
	@DEBUG_VALUE: sqrt_mask <- [DW_OP_plus_uconst 16] [$sp+0]
	@DEBUG_VALUE: lv_draw_mask_radius:w <- [DW_OP_plus_uconst 12] [$sp+0]
	@DEBUG_VALUE: lv_draw_mask_radius:p <- [DW_OP_plus_uconst 88] [$sp+0]
	cmp	r4, r9
	bge	.LBB14_42
.Ltmp421:
@ %bb.41:
	@DEBUG_VALUE: kl <- $r11
	@DEBUG_VALUE: lv_draw_mask_radius:len <- $r9
	@DEBUG_VALUE: lv_draw_mask_radius:radius <- $r8
	@DEBUG_VALUE: m <- $r6
	@DEBUG_VALUE: lv_draw_mask_radius:mask_buf <- $r5
	@DEBUG_VALUE: kr <- $r4
	@DEBUG_VALUE: y <- [DW_OP_plus_uconst 4] [$sp+0]
	@DEBUG_VALUE: sqrt_mask <- [DW_OP_plus_uconst 16] [$sp+0]
	@DEBUG_VALUE: lv_draw_mask_radius:w <- [DW_OP_plus_uconst 12] [$sp+0]
	@DEBUG_VALUE: lv_draw_mask_radius:p <- [DW_OP_plus_uconst 88] [$sp+0]
	.loc	6 1008 32                       @ lvgl/src/lv_draw/lv_draw_mask.c:1008:32
	uxtb	r1, r6
	.loc	6 1008 41 is_stmt 0             @ lvgl/src/lv_draw/lv_draw_mask.c:1008:41
	ldrb	r0, [r5, r4]
	.loc	6 1008 32                       @ lvgl/src/lv_draw/lv_draw_mask.c:1008:32
	bl	mask_mix
	.loc	6 1008 30                       @ lvgl/src/lv_draw/lv_draw_mask.c:1008:30
	strb	r0, [r5, r4]
.Ltmp422:
.LBB14_42:
	@DEBUG_VALUE: kl <- $r11
	@DEBUG_VALUE: lv_draw_mask_radius:len <- $r9
	@DEBUG_VALUE: lv_draw_mask_radius:radius <- $r8
	@DEBUG_VALUE: m <- $r6
	@DEBUG_VALUE: lv_draw_mask_radius:mask_buf <- $r5
	@DEBUG_VALUE: kr <- $r4
	@DEBUG_VALUE: y <- [DW_OP_plus_uconst 4] [$sp+0]
	@DEBUG_VALUE: sqrt_mask <- [DW_OP_plus_uconst 16] [$sp+0]
	@DEBUG_VALUE: lv_draw_mask_radius:w <- [DW_OP_plus_uconst 12] [$sp+0]
	@DEBUG_VALUE: lv_draw_mask_radius:p <- [DW_OP_plus_uconst 88] [$sp+0]
	.loc	6 1012 16 is_stmt 1             @ lvgl/src/lv_draw/lv_draw_mask.c:1012:16
	ldr	r0, [sp, #20]                   @ 4-byte Reload
	cmp	r0, #0
	bne.w	.LBB14_72
.Ltmp423:
@ %bb.43:
	@DEBUG_VALUE: kl <- $r11
	@DEBUG_VALUE: lv_draw_mask_radius:len <- $r9
	@DEBUG_VALUE: lv_draw_mask_radius:radius <- $r8
	@DEBUG_VALUE: m <- $r6
	@DEBUG_VALUE: lv_draw_mask_radius:mask_buf <- $r5
	@DEBUG_VALUE: kr <- $r4
	@DEBUG_VALUE: y <- [DW_OP_plus_uconst 4] [$sp+0]
	@DEBUG_VALUE: sqrt_mask <- [DW_OP_plus_uconst 16] [$sp+0]
	@DEBUG_VALUE: lv_draw_mask_radius:w <- [DW_OP_plus_uconst 12] [$sp+0]
	@DEBUG_VALUE: lv_draw_mask_radius:p <- [DW_OP_plus_uconst 88] [$sp+0]
	@DEBUG_VALUE: kr <- undef
	.loc	6 1014 20                       @ lvgl/src/lv_draw/lv_draw_mask.c:1014:20
	cmp	r11, r9
	bgt.w	.LBB14_3
.Ltmp424:
@ %bb.44:
	@DEBUG_VALUE: kl <- $r11
	@DEBUG_VALUE: lv_draw_mask_radius:len <- $r9
	@DEBUG_VALUE: lv_draw_mask_radius:radius <- $r8
	@DEBUG_VALUE: m <- $r6
	@DEBUG_VALUE: lv_draw_mask_radius:mask_buf <- $r5
	@DEBUG_VALUE: y <- [DW_OP_plus_uconst 4] [$sp+0]
	@DEBUG_VALUE: sqrt_mask <- [DW_OP_plus_uconst 16] [$sp+0]
	@DEBUG_VALUE: lv_draw_mask_radius:w <- [DW_OP_plus_uconst 12] [$sp+0]
	@DEBUG_VALUE: lv_draw_mask_radius:p <- [DW_OP_plus_uconst 88] [$sp+0]
	@DEBUG_VALUE: kr <- undef
	.loc	6 1017 20                       @ lvgl/src/lv_draw/lv_draw_mask.c:1017:20
	cmp.w	r11, #0
	bmi	.LBB14_46
.Ltmp425:
@ %bb.45:
	@DEBUG_VALUE: kl <- $r11
	@DEBUG_VALUE: lv_draw_mask_radius:len <- $r9
	@DEBUG_VALUE: lv_draw_mask_radius:radius <- $r8
	@DEBUG_VALUE: m <- $r6
	@DEBUG_VALUE: lv_draw_mask_radius:mask_buf <- $r5
	@DEBUG_VALUE: y <- [DW_OP_plus_uconst 4] [$sp+0]
	@DEBUG_VALUE: sqrt_mask <- [DW_OP_plus_uconst 16] [$sp+0]
	@DEBUG_VALUE: lv_draw_mask_radius:w <- [DW_OP_plus_uconst 12] [$sp+0]
	@DEBUG_VALUE: lv_draw_mask_radius:p <- [DW_OP_plus_uconst 88] [$sp+0]
	.loc	6 1018 21                       @ lvgl/src/lv_draw/lv_draw_mask.c:1018:21
	mov	r0, r5
	mov	r1, r11
	bl	_lv_memset_00
.Ltmp426:
.LBB14_46:
	@DEBUG_VALUE: kl <- $r11
	@DEBUG_VALUE: lv_draw_mask_radius:len <- $r9
	@DEBUG_VALUE: lv_draw_mask_radius:radius <- $r8
	@DEBUG_VALUE: m <- $r6
	@DEBUG_VALUE: lv_draw_mask_radius:mask_buf <- $r5
	@DEBUG_VALUE: y <- [DW_OP_plus_uconst 4] [$sp+0]
	@DEBUG_VALUE: sqrt_mask <- [DW_OP_plus_uconst 16] [$sp+0]
	@DEBUG_VALUE: lv_draw_mask_radius:w <- [DW_OP_plus_uconst 12] [$sp+0]
	@DEBUG_VALUE: lv_draw_mask_radius:p <- [DW_OP_plus_uconst 88] [$sp+0]
	@DEBUG_VALUE: kr <- undef
	.loc	6 1020 20                       @ lvgl/src/lv_draw/lv_draw_mask.c:1020:20
	cmp.w	r4, #-1
	blt.w	.LBB14_3
.Ltmp427:
@ %bb.47:
	@DEBUG_VALUE: kl <- $r11
	@DEBUG_VALUE: lv_draw_mask_radius:len <- $r9
	@DEBUG_VALUE: lv_draw_mask_radius:radius <- $r8
	@DEBUG_VALUE: m <- $r6
	@DEBUG_VALUE: lv_draw_mask_radius:mask_buf <- $r5
	@DEBUG_VALUE: y <- [DW_OP_plus_uconst 4] [$sp+0]
	@DEBUG_VALUE: sqrt_mask <- [DW_OP_plus_uconst 16] [$sp+0]
	@DEBUG_VALUE: lv_draw_mask_radius:w <- [DW_OP_plus_uconst 12] [$sp+0]
	@DEBUG_VALUE: lv_draw_mask_radius:p <- [DW_OP_plus_uconst 88] [$sp+0]
	@DEBUG_VALUE: kr <- undef
	.loc	6 1023 20                       @ lvgl/src/lv_draw/lv_draw_mask.c:1023:20
	cmp	r4, r9
	bge.w	.LBB14_91
.Ltmp428:
@ %bb.48:
	@DEBUG_VALUE: kl <- $r11
	@DEBUG_VALUE: lv_draw_mask_radius:len <- $r9
	@DEBUG_VALUE: lv_draw_mask_radius:radius <- $r8
	@DEBUG_VALUE: m <- $r6
	@DEBUG_VALUE: lv_draw_mask_radius:mask_buf <- $r5
	@DEBUG_VALUE: y <- [DW_OP_plus_uconst 4] [$sp+0]
	@DEBUG_VALUE: sqrt_mask <- [DW_OP_plus_uconst 16] [$sp+0]
	@DEBUG_VALUE: lv_draw_mask_radius:w <- [DW_OP_plus_uconst 12] [$sp+0]
	@DEBUG_VALUE: lv_draw_mask_radius:p <- [DW_OP_plus_uconst 88] [$sp+0]
	.loc	6 0 0 is_stmt 0                 @ lvgl/src/lv_draw/lv_draw_mask.c:0:0
	adds	r1, r4, #1
.Ltmp429:
	@DEBUG_VALUE: kr <- $r1
	.loc	6 1024 36 is_stmt 1             @ lvgl/src/lv_draw/lv_draw_mask.c:1024:36
	adds	r0, r5, r1
	.loc	6 1024 54 is_stmt 0             @ lvgl/src/lv_draw/lv_draw_mask.c:1024:54
	sub.w	r1, r9, r1
.Ltmp430:
	.loc	6 0 54                          @ lvgl/src/lv_draw/lv_draw_mask.c:0:54
	b	.LBB14_75
.Ltmp431:
.LBB14_49:
	@DEBUG_VALUE: lv_draw_mask_radius:len <- $r9
	@DEBUG_VALUE: lv_draw_mask_radius:radius <- $r8
	@DEBUG_VALUE: lv_draw_mask_radius:mask_buf <- $r5
	@DEBUG_VALUE: lv_draw_mask_radius:k <- $r4
	@DEBUG_VALUE: y <- [DW_OP_plus_uconst 4] [$sp+0]
	@DEBUG_VALUE: sqrt_mask <- [DW_OP_plus_uconst 16] [$sp+0]
	@DEBUG_VALUE: lv_draw_mask_radius:w <- [DW_OP_plus_uconst 12] [$sp+0]
	@DEBUG_VALUE: lv_draw_mask_radius:p <- [DW_OP_plus_uconst 88] [$sp+0]
	.loc	6 1043 39 is_stmt 1             @ lvgl/src/lv_draw/lv_draw_mask.c:1043:39
	ldr	r2, [sp, #12]                   @ 4-byte Reload
	.loc	6 1041 42                       @ lvgl/src/lv_draw/lv_draw_mask.c:1041:42
	mvns	r1, r7
.Ltmp432:
	@DEBUG_VALUE: ofs <- undef
	.loc	6 1043 39                       @ lvgl/src/lv_draw/lv_draw_mask.c:1043:39
	add	r2, r4
	.loc	6 1041 34                       @ lvgl/src/lv_draw/lv_draw_mask.c:1041:34
	add.w	r0, r4, r8
	.loc	6 1043 39                       @ lvgl/src/lv_draw/lv_draw_mask.c:1043:39
	sub.w	r2, r2, r8
	.loc	6 1045 16                       @ lvgl/src/lv_draw/lv_draw_mask.c:1045:16
	cmp.w	r10, #0
	.loc	6 1042 28                       @ lvgl/src/lv_draw/lv_draw_mask.c:1042:28
	add.w	r6, r0, r1
.Ltmp433:
	@DEBUG_VALUE: kl <- $r6
	.loc	6 1043 28                       @ lvgl/src/lv_draw/lv_draw_mask.c:1043:28
	add.w	r4, r2, r7
.Ltmp434:
	@DEBUG_VALUE: kr <- $r4
	.loc	6 1045 16                       @ lvgl/src/lv_draw/lv_draw_mask.c:1045:16
	beq	.LBB14_53
.Ltmp435:
@ %bb.50:
	@DEBUG_VALUE: lv_draw_mask_radius:len <- $r9
	@DEBUG_VALUE: lv_draw_mask_radius:radius <- $r8
	@DEBUG_VALUE: kl <- $r6
	@DEBUG_VALUE: lv_draw_mask_radius:mask_buf <- $r5
	@DEBUG_VALUE: kr <- $r4
	@DEBUG_VALUE: y <- [DW_OP_plus_uconst 4] [$sp+0]
	@DEBUG_VALUE: sqrt_mask <- [DW_OP_plus_uconst 16] [$sp+0]
	@DEBUG_VALUE: lv_draw_mask_radius:w <- [DW_OP_plus_uconst 12] [$sp+0]
	@DEBUG_VALUE: lv_draw_mask_radius:p <- [DW_OP_plus_uconst 88] [$sp+0]
	.loc	6 1046 36                       @ lvgl/src/lv_draw/lv_draw_mask.c:1046:36
	subs	r0, r0, r7
.Ltmp436:
	@DEBUG_VALUE: first <- $r0
	.loc	6 1047 20                       @ lvgl/src/lv_draw/lv_draw_mask.c:1047:20
	cmp	r6, #0
	it	mi
	movmi	r0, #0
.Ltmp437:
	@DEBUG_VALUE: len_tmp <- undef
	@DEBUG_VALUE: first <- $r0
	.loc	6 1050 20                       @ lvgl/src/lv_draw/lv_draw_mask.c:1050:20
	mov	r1, r4
	cmp	r4, r9
	it	gt
	movgt	r1, r9
	@DEBUG_VALUE: len_tmp <- undef
.Ltmp438:
	.loc	6 1051 32                       @ lvgl/src/lv_draw/lv_draw_mask.c:1051:32
	cmp	r0, r9
	bge	.LBB14_53
.Ltmp439:
@ %bb.51:
	@DEBUG_VALUE: lv_draw_mask_radius:len <- $r9
	@DEBUG_VALUE: lv_draw_mask_radius:radius <- $r8
	@DEBUG_VALUE: kl <- $r6
	@DEBUG_VALUE: lv_draw_mask_radius:mask_buf <- $r5
	@DEBUG_VALUE: kr <- $r4
	@DEBUG_VALUE: first <- $r0
	@DEBUG_VALUE: y <- [DW_OP_plus_uconst 4] [$sp+0]
	@DEBUG_VALUE: sqrt_mask <- [DW_OP_plus_uconst 16] [$sp+0]
	@DEBUG_VALUE: lv_draw_mask_radius:w <- [DW_OP_plus_uconst 12] [$sp+0]
	@DEBUG_VALUE: lv_draw_mask_radius:p <- [DW_OP_plus_uconst 88] [$sp+0]
	.loc	6 0 0 is_stmt 0                 @ lvgl/src/lv_draw/lv_draw_mask.c:0:0
	subs	r1, r1, r0
.Ltmp440:
	@DEBUG_VALUE: len_tmp <- $r1
	.loc	6 1051 32                       @ lvgl/src/lv_draw/lv_draw_mask.c:1051:32
	bmi	.LBB14_53
.Ltmp441:
@ %bb.52:
	@DEBUG_VALUE: lv_draw_mask_radius:len <- $r9
	@DEBUG_VALUE: lv_draw_mask_radius:radius <- $r8
	@DEBUG_VALUE: kl <- $r6
	@DEBUG_VALUE: lv_draw_mask_radius:mask_buf <- $r5
	@DEBUG_VALUE: kr <- $r4
	@DEBUG_VALUE: len_tmp <- $r1
	@DEBUG_VALUE: first <- $r0
	@DEBUG_VALUE: y <- [DW_OP_plus_uconst 4] [$sp+0]
	@DEBUG_VALUE: sqrt_mask <- [DW_OP_plus_uconst 16] [$sp+0]
	@DEBUG_VALUE: lv_draw_mask_radius:w <- [DW_OP_plus_uconst 12] [$sp+0]
	@DEBUG_VALUE: lv_draw_mask_radius:p <- [DW_OP_plus_uconst 88] [$sp+0]
	.loc	6 1052 36 is_stmt 1             @ lvgl/src/lv_draw/lv_draw_mask.c:1052:36
	add	r0, r5
.Ltmp442:
	.loc	6 1052 21 is_stmt 0             @ lvgl/src/lv_draw/lv_draw_mask.c:1052:21
	bl	_lv_memset_00
.Ltmp443:
.LBB14_53:
	@DEBUG_VALUE: lv_draw_mask_radius:len <- $r9
	@DEBUG_VALUE: lv_draw_mask_radius:radius <- $r8
	@DEBUG_VALUE: kl <- $r6
	@DEBUG_VALUE: lv_draw_mask_radius:mask_buf <- $r5
	@DEBUG_VALUE: kr <- $r4
	@DEBUG_VALUE: y <- [DW_OP_plus_uconst 4] [$sp+0]
	@DEBUG_VALUE: sqrt_mask <- [DW_OP_plus_uconst 16] [$sp+0]
	@DEBUG_VALUE: lv_draw_mask_radius:w <- [DW_OP_plus_uconst 12] [$sp+0]
	@DEBUG_VALUE: lv_draw_mask_radius:p <- [DW_OP_plus_uconst 88] [$sp+0]
	.loc	6 1056 29 is_stmt 1             @ lvgl/src/lv_draw/lv_draw_mask.c:1056:29
	ldrh.w	r8, [sp, #40]
.Ltmp444:
	.loc	6 0 29 is_stmt 0                @ lvgl/src/lv_draw/lv_draw_mask.c:0:29
	add	r1, sp, #32
	.loc	6 1061 25 is_stmt 1             @ lvgl/src/lv_draw/lv_draw_mask.c:1061:25
	ldr	r0, [sp, #24]                   @ 4-byte Reload
	mls	r0, r8, r8, r0
	.loc	6 1061 13 is_stmt 0             @ lvgl/src/lv_draw/lv_draw_mask.c:1061:13
	ldr	r2, [sp, #16]                   @ 4-byte Reload
	.loc	6 1056 31 is_stmt 1             @ lvgl/src/lv_draw/lv_draw_mask.c:1056:31
	add.w	r7, r8, #1
.Ltmp445:
	@DEBUG_VALUE: i <- $r7
	.loc	6 1061 13                       @ lvgl/src/lv_draw/lv_draw_mask.c:1061:13
	bl	_lv_sqrt
.Ltmp446:
	.loc	6 1063 23                       @ lvgl/src/lv_draw/lv_draw_mask.c:1063:23
	ldrh.w	r0, [sp, #34]
.Ltmp447:
	.loc	6 1063 16 is_stmt 0             @ lvgl/src/lv_draw/lv_draw_mask.c:1063:16
	cbnz	r0, .LBB14_55
.Ltmp448:
@ %bb.54:
	@DEBUG_VALUE: lv_draw_mask_radius:len <- $r9
	@DEBUG_VALUE: i <- $r7
	@DEBUG_VALUE: kl <- $r6
	@DEBUG_VALUE: lv_draw_mask_radius:mask_buf <- $r5
	@DEBUG_VALUE: kr <- $r4
	@DEBUG_VALUE: y <- [DW_OP_plus_uconst 4] [$sp+0]
	@DEBUG_VALUE: sqrt_mask <- [DW_OP_plus_uconst 16] [$sp+0]
	@DEBUG_VALUE: lv_draw_mask_radius:w <- [DW_OP_plus_uconst 12] [$sp+0]
	@DEBUG_VALUE: lv_draw_mask_radius:p <- [DW_OP_plus_uconst 88] [$sp+0]
	.loc	6 1064 25 is_stmt 1             @ lvgl/src/lv_draw/lv_draw_mask.c:1064:25
	ldrh.w	r0, [sp, #32]
	subs	r0, #1
	strh.w	r0, [sp, #32]
	movs	r0, #255
	.loc	6 1065 26                       @ lvgl/src/lv_draw/lv_draw_mask.c:1065:26
	strh.w	r0, [sp, #34]
.Ltmp449:
.LBB14_55:
	@DEBUG_VALUE: lv_draw_mask_radius:len <- $r9
	@DEBUG_VALUE: i <- $r7
	@DEBUG_VALUE: kl <- $r6
	@DEBUG_VALUE: lv_draw_mask_radius:mask_buf <- $r5
	@DEBUG_VALUE: kr <- $r4
	@DEBUG_VALUE: y <- [DW_OP_plus_uconst 4] [$sp+0]
	@DEBUG_VALUE: sqrt_mask <- [DW_OP_plus_uconst 16] [$sp+0]
	@DEBUG_VALUE: lv_draw_mask_radius:w <- [DW_OP_plus_uconst 12] [$sp+0]
	@DEBUG_VALUE: lv_draw_mask_radius:p <- [DW_OP_plus_uconst 88] [$sp+0]
	.loc	6 1069 23                       @ lvgl/src/lv_draw/lv_draw_mask.c:1069:23
	ldrh.w	r0, [sp, #32]
.Ltmp450:
	.loc	6 1069 16 is_stmt 0             @ lvgl/src/lv_draw/lv_draw_mask.c:1069:16
	ldr	r1, [sp, #4]                    @ 4-byte Reload
	cmp	r1, r0
	bgt	.LBB14_63
.Ltmp451:
@ %bb.56:
	@DEBUG_VALUE: lv_draw_mask_radius:len <- $r9
	@DEBUG_VALUE: i <- $r7
	@DEBUG_VALUE: kl <- $r6
	@DEBUG_VALUE: lv_draw_mask_radius:mask_buf <- $r5
	@DEBUG_VALUE: kr <- $r4
	@DEBUG_VALUE: y <- [DW_OP_plus_uconst 4] [$sp+0]
	@DEBUG_VALUE: sqrt_mask <- [DW_OP_plus_uconst 16] [$sp+0]
	@DEBUG_VALUE: lv_draw_mask_radius:w <- [DW_OP_plus_uconst 12] [$sp+0]
	@DEBUG_VALUE: lv_draw_mask_radius:p <- [DW_OP_plus_uconst 88] [$sp+0]
	.loc	6 1070 29 is_stmt 1             @ lvgl/src/lv_draw/lv_draw_mask.c:1070:29
	ldr	r0, [sp, #24]                   @ 4-byte Reload
	add	r1, sp, #28
	mls	r0, r7, r7, r0
	.loc	6 1070 17 is_stmt 0             @ lvgl/src/lv_draw/lv_draw_mask.c:1070:17
	ldr	r2, [sp, #16]                   @ 4-byte Reload
	bl	_lv_sqrt
	.loc	6 1071 39 is_stmt 1             @ lvgl/src/lv_draw/lv_draw_mask.c:1071:39
	ldrh.w	r0, [sp, #42]
	.loc	6 1071 58 is_stmt 0             @ lvgl/src/lv_draw/lv_draw_mask.c:1071:58
	ldrh.w	r10, [sp, #30]
	.loc	6 1071 34                       @ lvgl/src/lv_draw/lv_draw_mask.c:1071:34
	rsb.w	r0, r0, #255
	.loc	6 1071 49                       @ lvgl/src/lv_draw/lv_draw_mask.c:1071:49
	rsb.w	r1, r10, #255
	.loc	6 1071 42                       @ lvgl/src/lv_draw/lv_draw_mask.c:1071:42
	muls	r0, r1, r0
	.loc	6 1073 20 is_stmt 1             @ lvgl/src/lv_draw/lv_draw_mask.c:1073:20
	ldr	r1, [sp, #20]                   @ 4-byte Reload
	cmp	r1, #0
	.loc	6 1071 62                       @ lvgl/src/lv_draw/lv_draw_mask.c:1071:62
	lsr.w	r7, r0, #9
.Ltmp452:
	@DEBUG_VALUE: m <- [DW_OP_constu 18446744073709551615, DW_OP_xor, DW_OP_stack_value] $r7
	.loc	6 1073 20                       @ lvgl/src/lv_draw/lv_draw_mask.c:1073:20
	it	eq
	mvneq.w	r7, r0, lsr #9
.Ltmp453:
	@DEBUG_VALUE: m <- $r7
	.loc	6 1074 28                       @ lvgl/src/lv_draw/lv_draw_mask.c:1074:28
	cmp	r6, #0
	bmi	.LBB14_59
.Ltmp454:
@ %bb.57:
	@DEBUG_VALUE: lv_draw_mask_radius:len <- $r9
	@DEBUG_VALUE: m <- $r7
	@DEBUG_VALUE: kl <- $r6
	@DEBUG_VALUE: lv_draw_mask_radius:mask_buf <- $r5
	@DEBUG_VALUE: kr <- $r4
	@DEBUG_VALUE: y <- [DW_OP_plus_uconst 4] [$sp+0]
	@DEBUG_VALUE: sqrt_mask <- [DW_OP_plus_uconst 16] [$sp+0]
	@DEBUG_VALUE: lv_draw_mask_radius:w <- [DW_OP_plus_uconst 12] [$sp+0]
	@DEBUG_VALUE: lv_draw_mask_radius:p <- [DW_OP_plus_uconst 88] [$sp+0]
	cmp	r6, r9
	bge	.LBB14_59
.Ltmp455:
@ %bb.58:
	@DEBUG_VALUE: lv_draw_mask_radius:len <- $r9
	@DEBUG_VALUE: m <- $r7
	@DEBUG_VALUE: kl <- $r6
	@DEBUG_VALUE: lv_draw_mask_radius:mask_buf <- $r5
	@DEBUG_VALUE: kr <- $r4
	@DEBUG_VALUE: y <- [DW_OP_plus_uconst 4] [$sp+0]
	@DEBUG_VALUE: sqrt_mask <- [DW_OP_plus_uconst 16] [$sp+0]
	@DEBUG_VALUE: lv_draw_mask_radius:w <- [DW_OP_plus_uconst 12] [$sp+0]
	@DEBUG_VALUE: lv_draw_mask_radius:p <- [DW_OP_plus_uconst 88] [$sp+0]
	.loc	6 1074 56 is_stmt 0             @ lvgl/src/lv_draw/lv_draw_mask.c:1074:56
	uxtb	r1, r7
	.loc	6 1074 65                       @ lvgl/src/lv_draw/lv_draw_mask.c:1074:65
	ldrb	r0, [r5, r6]
	.loc	6 1074 56                       @ lvgl/src/lv_draw/lv_draw_mask.c:1074:56
	bl	mask_mix
	.loc	6 1074 54                       @ lvgl/src/lv_draw/lv_draw_mask.c:1074:54
	strb	r0, [r5, r6]
.Ltmp456:
.LBB14_59:
	@DEBUG_VALUE: lv_draw_mask_radius:len <- $r9
	@DEBUG_VALUE: m <- $r7
	@DEBUG_VALUE: kl <- $r6
	@DEBUG_VALUE: lv_draw_mask_radius:mask_buf <- $r5
	@DEBUG_VALUE: kr <- $r4
	@DEBUG_VALUE: y <- [DW_OP_plus_uconst 4] [$sp+0]
	@DEBUG_VALUE: sqrt_mask <- [DW_OP_plus_uconst 16] [$sp+0]
	@DEBUG_VALUE: lv_draw_mask_radius:w <- [DW_OP_plus_uconst 12] [$sp+0]
	@DEBUG_VALUE: lv_draw_mask_radius:p <- [DW_OP_plus_uconst 88] [$sp+0]
	.loc	6 1075 28 is_stmt 1             @ lvgl/src/lv_draw/lv_draw_mask.c:1075:28
	cmp	r4, #0
	bmi	.LBB14_62
.Ltmp457:
@ %bb.60:
	@DEBUG_VALUE: lv_draw_mask_radius:len <- $r9
	@DEBUG_VALUE: m <- $r7
	@DEBUG_VALUE: kl <- $r6
	@DEBUG_VALUE: lv_draw_mask_radius:mask_buf <- $r5
	@DEBUG_VALUE: kr <- $r4
	@DEBUG_VALUE: y <- [DW_OP_plus_uconst 4] [$sp+0]
	@DEBUG_VALUE: sqrt_mask <- [DW_OP_plus_uconst 16] [$sp+0]
	@DEBUG_VALUE: lv_draw_mask_radius:w <- [DW_OP_plus_uconst 12] [$sp+0]
	@DEBUG_VALUE: lv_draw_mask_radius:p <- [DW_OP_plus_uconst 88] [$sp+0]
	cmp	r4, r9
	bge	.LBB14_62
.Ltmp458:
@ %bb.61:
	@DEBUG_VALUE: lv_draw_mask_radius:len <- $r9
	@DEBUG_VALUE: m <- $r7
	@DEBUG_VALUE: kl <- $r6
	@DEBUG_VALUE: lv_draw_mask_radius:mask_buf <- $r5
	@DEBUG_VALUE: kr <- $r4
	@DEBUG_VALUE: y <- [DW_OP_plus_uconst 4] [$sp+0]
	@DEBUG_VALUE: sqrt_mask <- [DW_OP_plus_uconst 16] [$sp+0]
	@DEBUG_VALUE: lv_draw_mask_radius:w <- [DW_OP_plus_uconst 12] [$sp+0]
	@DEBUG_VALUE: lv_draw_mask_radius:p <- [DW_OP_plus_uconst 88] [$sp+0]
	.loc	6 1075 56 is_stmt 0             @ lvgl/src/lv_draw/lv_draw_mask.c:1075:56
	uxtb	r1, r7
	.loc	6 1075 65                       @ lvgl/src/lv_draw/lv_draw_mask.c:1075:65
	ldrb	r0, [r5, r4]
	.loc	6 1075 56                       @ lvgl/src/lv_draw/lv_draw_mask.c:1075:56
	bl	mask_mix
	.loc	6 1075 54                       @ lvgl/src/lv_draw/lv_draw_mask.c:1075:54
	strb	r0, [r5, r4]
.Ltmp459:
.LBB14_62:
	@DEBUG_VALUE: lv_draw_mask_radius:len <- $r9
	@DEBUG_VALUE: m <- $r7
	@DEBUG_VALUE: kl <- $r6
	@DEBUG_VALUE: lv_draw_mask_radius:mask_buf <- $r5
	@DEBUG_VALUE: kr <- $r4
	@DEBUG_VALUE: y <- [DW_OP_plus_uconst 4] [$sp+0]
	@DEBUG_VALUE: sqrt_mask <- [DW_OP_plus_uconst 16] [$sp+0]
	@DEBUG_VALUE: lv_draw_mask_radius:w <- [DW_OP_plus_uconst 12] [$sp+0]
	@DEBUG_VALUE: lv_draw_mask_radius:p <- [DW_OP_plus_uconst 88] [$sp+0]
	.loc	6 1076 19 is_stmt 1             @ lvgl/src/lv_draw/lv_draw_mask.c:1076:19
	subs	r6, #1
.Ltmp460:
	@DEBUG_VALUE: kl <- $r6
	.loc	6 1077 19                       @ lvgl/src/lv_draw/lv_draw_mask.c:1077:19
	adds	r4, #1
.Ltmp461:
	@DEBUG_VALUE: kr <- $r4
	.loc	6 1079 18                       @ lvgl/src/lv_draw/lv_draw_mask.c:1079:18
	add.w	r7, r8, #2
.Ltmp462:
	@DEBUG_VALUE: i <- $r7
	.loc	6 1078 26                       @ lvgl/src/lv_draw/lv_draw_mask.c:1078:26
	strh.w	r10, [sp, #34]
.Ltmp463:
.LBB14_63:
	@DEBUG_VALUE: lv_draw_mask_radius:len <- $r9
	@DEBUG_VALUE: i <- $r7
	@DEBUG_VALUE: kl <- $r6
	@DEBUG_VALUE: lv_draw_mask_radius:mask_buf <- $r5
	@DEBUG_VALUE: kr <- $r4
	@DEBUG_VALUE: y <- [DW_OP_plus_uconst 4] [$sp+0]
	@DEBUG_VALUE: sqrt_mask <- [DW_OP_plus_uconst 16] [$sp+0]
	@DEBUG_VALUE: lv_draw_mask_radius:w <- [DW_OP_plus_uconst 12] [$sp+0]
	@DEBUG_VALUE: lv_draw_mask_radius:p <- [DW_OP_plus_uconst 88] [$sp+0]
	.loc	6 1083 27                       @ lvgl/src/lv_draw/lv_draw_mask.c:1083:27
	ldrh.w	r0, [sp, #36]
	ldr.w	r10, [sp, #20]                  @ 4-byte Reload
.Ltmp464:
	@DEBUG_VALUE: kl <- $r6
	@DEBUG_VALUE: kr <- $r4
	@DEBUG_VALUE: i <- $r7
	.loc	6 1083 13 is_stmt 0             @ lvgl/src/lv_draw/lv_draw_mask.c:1083:13
	cmp	r7, r0
	bls	.LBB14_76
.Ltmp465:
.LBB14_64:
	@DEBUG_VALUE: lv_draw_mask_radius:len <- $r9
	@DEBUG_VALUE: i <- $r7
	@DEBUG_VALUE: kl <- $r6
	@DEBUG_VALUE: lv_draw_mask_radius:mask_buf <- $r5
	@DEBUG_VALUE: kr <- $r4
	@DEBUG_VALUE: y <- [DW_OP_plus_uconst 4] [$sp+0]
	@DEBUG_VALUE: sqrt_mask <- [DW_OP_plus_uconst 16] [$sp+0]
	@DEBUG_VALUE: lv_draw_mask_radius:w <- [DW_OP_plus_uconst 12] [$sp+0]
	@DEBUG_VALUE: lv_draw_mask_radius:p <- [DW_OP_plus_uconst 88] [$sp+0]
	.loc	6 1099 23 is_stmt 1             @ lvgl/src/lv_draw/lv_draw_mask.c:1099:23
	ldrh.w	r0, [sp, #34]
.Ltmp466:
	.loc	6 1099 16 is_stmt 0             @ lvgl/src/lv_draw/lv_draw_mask.c:1099:16
	cmp	r0, #0
	beq	.LBB14_84
.Ltmp467:
@ %bb.65:
	@DEBUG_VALUE: lv_draw_mask_radius:len <- $r9
	@DEBUG_VALUE: i <- $r7
	@DEBUG_VALUE: kl <- $r6
	@DEBUG_VALUE: lv_draw_mask_radius:mask_buf <- $r5
	@DEBUG_VALUE: kr <- $r4
	@DEBUG_VALUE: y <- [DW_OP_plus_uconst 4] [$sp+0]
	@DEBUG_VALUE: sqrt_mask <- [DW_OP_plus_uconst 16] [$sp+0]
	@DEBUG_VALUE: lv_draw_mask_radius:w <- [DW_OP_plus_uconst 12] [$sp+0]
	@DEBUG_VALUE: lv_draw_mask_radius:p <- [DW_OP_plus_uconst 88] [$sp+0]
	.loc	6 1100 36 is_stmt 1             @ lvgl/src/lv_draw/lv_draw_mask.c:1100:36
	ldrh.w	r1, [sp, #38]
	ldr.w	r8, [sp, #20]                   @ 4-byte Reload
	.loc	6 1100 31 is_stmt 0             @ lvgl/src/lv_draw/lv_draw_mask.c:1100:31
	muls	r0, r1, r0
	.loc	6 1101 20 is_stmt 1             @ lvgl/src/lv_draw/lv_draw_mask.c:1101:20
	cmp.w	r8, #0
	.loc	6 1100 39                       @ lvgl/src/lv_draw/lv_draw_mask.c:1100:39
	lsr.w	r7, r0, #9
.Ltmp468:
	@DEBUG_VALUE: m <- $r7
	.loc	6 1101 20                       @ lvgl/src/lv_draw/lv_draw_mask.c:1101:20
	it	ne
	mvnne.w	r7, r0, lsr #9
.Ltmp469:
	@DEBUG_VALUE: m <- $r7
	.loc	6 1102 28                       @ lvgl/src/lv_draw/lv_draw_mask.c:1102:28
	cmp	r6, #0
	bmi	.LBB14_68
.Ltmp470:
@ %bb.66:
	@DEBUG_VALUE: lv_draw_mask_radius:len <- $r9
	@DEBUG_VALUE: m <- $r7
	@DEBUG_VALUE: kl <- $r6
	@DEBUG_VALUE: lv_draw_mask_radius:mask_buf <- $r5
	@DEBUG_VALUE: kr <- $r4
	@DEBUG_VALUE: y <- [DW_OP_plus_uconst 4] [$sp+0]
	@DEBUG_VALUE: sqrt_mask <- [DW_OP_plus_uconst 16] [$sp+0]
	@DEBUG_VALUE: lv_draw_mask_radius:w <- [DW_OP_plus_uconst 12] [$sp+0]
	@DEBUG_VALUE: lv_draw_mask_radius:p <- [DW_OP_plus_uconst 88] [$sp+0]
	cmp	r6, r9
	bge	.LBB14_68
.Ltmp471:
@ %bb.67:
	@DEBUG_VALUE: lv_draw_mask_radius:len <- $r9
	@DEBUG_VALUE: m <- $r7
	@DEBUG_VALUE: kl <- $r6
	@DEBUG_VALUE: lv_draw_mask_radius:mask_buf <- $r5
	@DEBUG_VALUE: kr <- $r4
	@DEBUG_VALUE: y <- [DW_OP_plus_uconst 4] [$sp+0]
	@DEBUG_VALUE: sqrt_mask <- [DW_OP_plus_uconst 16] [$sp+0]
	@DEBUG_VALUE: lv_draw_mask_radius:w <- [DW_OP_plus_uconst 12] [$sp+0]
	@DEBUG_VALUE: lv_draw_mask_radius:p <- [DW_OP_plus_uconst 88] [$sp+0]
	.loc	6 1102 56 is_stmt 0             @ lvgl/src/lv_draw/lv_draw_mask.c:1102:56
	uxtb	r1, r7
	.loc	6 1102 65                       @ lvgl/src/lv_draw/lv_draw_mask.c:1102:65
	ldrb	r0, [r5, r6]
	.loc	6 1102 56                       @ lvgl/src/lv_draw/lv_draw_mask.c:1102:56
	bl	mask_mix
	.loc	6 1102 54                       @ lvgl/src/lv_draw/lv_draw_mask.c:1102:54
	strb	r0, [r5, r6]
.Ltmp472:
.LBB14_68:
	@DEBUG_VALUE: lv_draw_mask_radius:len <- $r9
	@DEBUG_VALUE: m <- $r7
	@DEBUG_VALUE: kl <- $r6
	@DEBUG_VALUE: lv_draw_mask_radius:mask_buf <- $r5
	@DEBUG_VALUE: kr <- $r4
	@DEBUG_VALUE: y <- [DW_OP_plus_uconst 4] [$sp+0]
	@DEBUG_VALUE: sqrt_mask <- [DW_OP_plus_uconst 16] [$sp+0]
	@DEBUG_VALUE: lv_draw_mask_radius:w <- [DW_OP_plus_uconst 12] [$sp+0]
	@DEBUG_VALUE: lv_draw_mask_radius:p <- [DW_OP_plus_uconst 88] [$sp+0]
	.loc	6 1103 28 is_stmt 1             @ lvgl/src/lv_draw/lv_draw_mask.c:1103:28
	cmp	r4, #0
	bmi	.LBB14_71
.Ltmp473:
@ %bb.69:
	@DEBUG_VALUE: lv_draw_mask_radius:len <- $r9
	@DEBUG_VALUE: m <- $r7
	@DEBUG_VALUE: kl <- $r6
	@DEBUG_VALUE: lv_draw_mask_radius:mask_buf <- $r5
	@DEBUG_VALUE: kr <- $r4
	@DEBUG_VALUE: y <- [DW_OP_plus_uconst 4] [$sp+0]
	@DEBUG_VALUE: sqrt_mask <- [DW_OP_plus_uconst 16] [$sp+0]
	@DEBUG_VALUE: lv_draw_mask_radius:w <- [DW_OP_plus_uconst 12] [$sp+0]
	@DEBUG_VALUE: lv_draw_mask_radius:p <- [DW_OP_plus_uconst 88] [$sp+0]
	cmp	r4, r9
	bge	.LBB14_71
.Ltmp474:
@ %bb.70:
	@DEBUG_VALUE: lv_draw_mask_radius:len <- $r9
	@DEBUG_VALUE: m <- $r7
	@DEBUG_VALUE: kl <- $r6
	@DEBUG_VALUE: lv_draw_mask_radius:mask_buf <- $r5
	@DEBUG_VALUE: kr <- $r4
	@DEBUG_VALUE: y <- [DW_OP_plus_uconst 4] [$sp+0]
	@DEBUG_VALUE: sqrt_mask <- [DW_OP_plus_uconst 16] [$sp+0]
	@DEBUG_VALUE: lv_draw_mask_radius:w <- [DW_OP_plus_uconst 12] [$sp+0]
	@DEBUG_VALUE: lv_draw_mask_radius:p <- [DW_OP_plus_uconst 88] [$sp+0]
	.loc	6 1103 56 is_stmt 0             @ lvgl/src/lv_draw/lv_draw_mask.c:1103:56
	uxtb	r1, r7
	.loc	6 1103 65                       @ lvgl/src/lv_draw/lv_draw_mask.c:1103:65
	ldrb	r0, [r5, r4]
	.loc	6 1103 56                       @ lvgl/src/lv_draw/lv_draw_mask.c:1103:56
	bl	mask_mix
	.loc	6 1103 54                       @ lvgl/src/lv_draw/lv_draw_mask.c:1103:54
	strb	r0, [r5, r4]
.Ltmp475:
.LBB14_71:
	@DEBUG_VALUE: lv_draw_mask_radius:len <- $r9
	@DEBUG_VALUE: m <- $r7
	@DEBUG_VALUE: kl <- $r6
	@DEBUG_VALUE: lv_draw_mask_radius:mask_buf <- $r5
	@DEBUG_VALUE: kr <- $r4
	@DEBUG_VALUE: y <- [DW_OP_plus_uconst 4] [$sp+0]
	@DEBUG_VALUE: sqrt_mask <- [DW_OP_plus_uconst 16] [$sp+0]
	@DEBUG_VALUE: lv_draw_mask_radius:w <- [DW_OP_plus_uconst 12] [$sp+0]
	@DEBUG_VALUE: lv_draw_mask_radius:p <- [DW_OP_plus_uconst 88] [$sp+0]
	.loc	6 1104 19 is_stmt 1             @ lvgl/src/lv_draw/lv_draw_mask.c:1104:19
	subs	r6, #1
.Ltmp476:
	@DEBUG_VALUE: kl <- $r6
	.loc	6 1105 19                       @ lvgl/src/lv_draw/lv_draw_mask.c:1105:19
	adds	r4, #1
.Ltmp477:
	@DEBUG_VALUE: kr <- $r4
	@DEBUG_VALUE: kl <- $r6
	@DEBUG_VALUE: kr <- $r4
	.loc	6 1108 16                       @ lvgl/src/lv_draw/lv_draw_mask.c:1108:16
	cmp.w	r8, #0
	bne	.LBB14_91
	b	.LBB14_85
.Ltmp478:
.LBB14_72:
	@DEBUG_VALUE: kl <- $r11
	@DEBUG_VALUE: lv_draw_mask_radius:len <- $r9
	@DEBUG_VALUE: lv_draw_mask_radius:radius <- $r8
	@DEBUG_VALUE: m <- $r6
	@DEBUG_VALUE: lv_draw_mask_radius:mask_buf <- $r5
	@DEBUG_VALUE: kr <- $r4
	@DEBUG_VALUE: y <- [DW_OP_plus_uconst 4] [$sp+0]
	@DEBUG_VALUE: sqrt_mask <- [DW_OP_plus_uconst 16] [$sp+0]
	@DEBUG_VALUE: lv_draw_mask_radius:w <- [DW_OP_plus_uconst 12] [$sp+0]
	@DEBUG_VALUE: lv_draw_mask_radius:p <- [DW_OP_plus_uconst 88] [$sp+0]
	.loc	6 1028 19                       @ lvgl/src/lv_draw/lv_draw_mask.c:1028:19
	sub.w	r0, r10, r7
.Ltmp479:
	@DEBUG_VALUE: first <- $r0
	@DEBUG_VALUE: kl <- $r0
	.loc	6 1030 20                       @ lvgl/src/lv_draw/lv_draw_mask.c:1030:20
	cmp.w	r11, #0
	it	mi
	movmi	r0, #0
.Ltmp480:
	@DEBUG_VALUE: len_tmp <- undef
	@DEBUG_VALUE: first <- $r0
	.loc	6 1033 20                       @ lvgl/src/lv_draw/lv_draw_mask.c:1033:20
	cmp	r4, r9
	it	gt
	movgt	r4, r9
.Ltmp481:
	@DEBUG_VALUE: len_tmp <- undef
	.loc	6 1034 32                       @ lvgl/src/lv_draw/lv_draw_mask.c:1034:32
	cmp	r0, r9
	bge	.LBB14_91
.Ltmp482:
@ %bb.73:
	@DEBUG_VALUE: lv_draw_mask_radius:len <- $r9
	@DEBUG_VALUE: lv_draw_mask_radius:radius <- $r8
	@DEBUG_VALUE: m <- $r6
	@DEBUG_VALUE: lv_draw_mask_radius:mask_buf <- $r5
	@DEBUG_VALUE: first <- $r0
	@DEBUG_VALUE: y <- [DW_OP_plus_uconst 4] [$sp+0]
	@DEBUG_VALUE: sqrt_mask <- [DW_OP_plus_uconst 16] [$sp+0]
	@DEBUG_VALUE: lv_draw_mask_radius:w <- [DW_OP_plus_uconst 12] [$sp+0]
	@DEBUG_VALUE: lv_draw_mask_radius:p <- [DW_OP_plus_uconst 88] [$sp+0]
	.loc	6 0 0 is_stmt 0                 @ lvgl/src/lv_draw/lv_draw_mask.c:0:0
	subs	r1, r4, r0
.Ltmp483:
	@DEBUG_VALUE: len_tmp <- $r1
	.loc	6 1034 32                       @ lvgl/src/lv_draw/lv_draw_mask.c:1034:32
	bmi	.LBB14_91
.Ltmp484:
.LBB14_74:
	@DEBUG_VALUE: lv_draw_mask_radius:len <- $r9
	@DEBUG_VALUE: lv_draw_mask_radius:radius <- $r8
	@DEBUG_VALUE: lv_draw_mask_radius:mask_buf <- $r5
	@DEBUG_VALUE: lv_draw_mask_radius:p <- [DW_OP_plus_uconst 88] [$sp+0]
	.loc	6 0 0                           @ lvgl/src/lv_draw/lv_draw_mask.c:0:0
	add	r0, r5
.Ltmp485:
.LBB14_75:
	@DEBUG_VALUE: lv_draw_mask_radius:len <- $r9
	@DEBUG_VALUE: lv_draw_mask_radius:radius <- $r8
	@DEBUG_VALUE: lv_draw_mask_radius:mask_buf <- $r5
	@DEBUG_VALUE: lv_draw_mask_radius:p <- [DW_OP_plus_uconst 88] [$sp+0]
	bl	_lv_memset_00
	b	.LBB14_91
.Ltmp486:
.LBB14_76:
	@DEBUG_VALUE: lv_draw_mask_radius:len <- $r9
	@DEBUG_VALUE: i <- $r7
	@DEBUG_VALUE: kl <- $r6
	@DEBUG_VALUE: lv_draw_mask_radius:mask_buf <- $r5
	@DEBUG_VALUE: kr <- $r4
	@DEBUG_VALUE: y <- [DW_OP_plus_uconst 4] [$sp+0]
	@DEBUG_VALUE: sqrt_mask <- [DW_OP_plus_uconst 16] [$sp+0]
	@DEBUG_VALUE: lv_draw_mask_radius:w <- [DW_OP_plus_uconst 12] [$sp+0]
	@DEBUG_VALUE: lv_draw_mask_radius:p <- [DW_OP_plus_uconst 88] [$sp+0]
	cmp.w	r10, #0
	it	ne
	movne.w	r10, #-1
	b	.LBB14_78
.Ltmp487:
	.p2align	2
.LBB14_77:                              @   in Loop: Header=BB14_78 Depth=1
	@DEBUG_VALUE: lv_draw_mask_radius:len <- $r9
	@DEBUG_VALUE: i <- $r7
	@DEBUG_VALUE: kl <- $r6
	@DEBUG_VALUE: lv_draw_mask_radius:mask_buf <- $r5
	@DEBUG_VALUE: kr <- $r4
	@DEBUG_VALUE: y <- [DW_OP_plus_uconst 4] [$sp+0]
	@DEBUG_VALUE: sqrt_mask <- [DW_OP_plus_uconst 16] [$sp+0]
	@DEBUG_VALUE: lv_draw_mask_radius:w <- [DW_OP_plus_uconst 12] [$sp+0]
	@DEBUG_VALUE: lv_draw_mask_radius:p <- [DW_OP_plus_uconst 88] [$sp+0]
	.loc	6 1083 27 is_stmt 1             @ lvgl/src/lv_draw/lv_draw_mask.c:1083:27
	ldrh.w	r0, [sp, #36]
.Ltmp488:
	.loc	6 1092 19                       @ lvgl/src/lv_draw/lv_draw_mask.c:1092:19
	subs	r6, #1
.Ltmp489:
	@DEBUG_VALUE: kl <- $r6
	.loc	6 1093 19                       @ lvgl/src/lv_draw/lv_draw_mask.c:1093:19
	adds	r4, #1
.Ltmp490:
	@DEBUG_VALUE: kr <- $r4
	.loc	6 1094 26                       @ lvgl/src/lv_draw/lv_draw_mask.c:1094:26
	strh.w	r8, [sp, #34]
.Ltmp491:
	@DEBUG_VALUE: i <- $r7
	.loc	6 1083 13                       @ lvgl/src/lv_draw/lv_draw_mask.c:1083:13
	cmp	r7, r0
.Ltmp492:
	.loc	6 1083 31 is_stmt 0             @ lvgl/src/lv_draw/lv_draw_mask.c:1083:31
	add.w	r7, r7, #1
.Ltmp493:
	@DEBUG_VALUE: i <- $r7
	.loc	6 1083 13                       @ lvgl/src/lv_draw/lv_draw_mask.c:1083:13
	bhs	.LBB14_64
.Ltmp494:
.LBB14_78:                              @ =>This Inner Loop Header: Depth=1
	@DEBUG_VALUE: lv_draw_mask_radius:len <- $r9
	@DEBUG_VALUE: i <- $r7
	@DEBUG_VALUE: kl <- $r6
	@DEBUG_VALUE: lv_draw_mask_radius:mask_buf <- $r5
	@DEBUG_VALUE: kr <- $r4
	@DEBUG_VALUE: y <- [DW_OP_plus_uconst 4] [$sp+0]
	@DEBUG_VALUE: sqrt_mask <- [DW_OP_plus_uconst 16] [$sp+0]
	@DEBUG_VALUE: lv_draw_mask_radius:w <- [DW_OP_plus_uconst 12] [$sp+0]
	@DEBUG_VALUE: lv_draw_mask_radius:p <- [DW_OP_plus_uconst 88] [$sp+0]
	@DEBUG_VALUE: kl <- $r6
	@DEBUG_VALUE: kr <- $r4
	@DEBUG_VALUE: i <- $r7
	.loc	6 1086 50 is_stmt 1             @ lvgl/src/lv_draw/lv_draw_mask.c:1086:50
	ldr	r0, [sp, #24]                   @ 4-byte Reload
	.loc	6 1086 17 is_stmt 0             @ lvgl/src/lv_draw/lv_draw_mask.c:1086:17
	add	r1, sp, #32
	.loc	6 1086 50                       @ lvgl/src/lv_draw/lv_draw_mask.c:1086:50
	mls	r2, r7, r7, r0
	.loc	6 1086 17                       @ lvgl/src/lv_draw/lv_draw_mask.c:1086:17
	add	r0, sp, #28
	bl	sqrt_approx
	.loc	6 1088 29 is_stmt 1             @ lvgl/src/lv_draw/lv_draw_mask.c:1088:29
	ldrh.w	r0, [sp, #34]
	.loc	6 1088 40 is_stmt 0             @ lvgl/src/lv_draw/lv_draw_mask.c:1088:40
	ldrh.w	r8, [sp, #30]
.Ltmp495:
	.loc	6 1090 28 is_stmt 1             @ lvgl/src/lv_draw/lv_draw_mask.c:1090:28
	cmp	r6, #0
.Ltmp496:
	.loc	6 1088 31                       @ lvgl/src/lv_draw/lv_draw_mask.c:1088:31
	add	r0, r8
.Ltmp497:
	@DEBUG_VALUE: m <- undef
	.loc	6 1089 20                       @ lvgl/src/lv_draw/lv_draw_mask.c:1089:20
	eor.w	r11, r10, r0, lsr #1
	@DEBUG_VALUE: m <- undef
.Ltmp498:
	.loc	6 1090 28                       @ lvgl/src/lv_draw/lv_draw_mask.c:1090:28
	bmi	.LBB14_81
.Ltmp499:
@ %bb.79:                               @   in Loop: Header=BB14_78 Depth=1
	@DEBUG_VALUE: lv_draw_mask_radius:len <- $r9
	@DEBUG_VALUE: i <- $r7
	@DEBUG_VALUE: kl <- $r6
	@DEBUG_VALUE: lv_draw_mask_radius:mask_buf <- $r5
	@DEBUG_VALUE: kr <- $r4
	@DEBUG_VALUE: y <- [DW_OP_plus_uconst 4] [$sp+0]
	@DEBUG_VALUE: sqrt_mask <- [DW_OP_plus_uconst 16] [$sp+0]
	@DEBUG_VALUE: lv_draw_mask_radius:w <- [DW_OP_plus_uconst 12] [$sp+0]
	@DEBUG_VALUE: lv_draw_mask_radius:p <- [DW_OP_plus_uconst 88] [$sp+0]
	cmp	r6, r9
	bge	.LBB14_81
.Ltmp500:
@ %bb.80:                               @   in Loop: Header=BB14_78 Depth=1
	@DEBUG_VALUE: lv_draw_mask_radius:len <- $r9
	@DEBUG_VALUE: i <- $r7
	@DEBUG_VALUE: kl <- $r6
	@DEBUG_VALUE: lv_draw_mask_radius:mask_buf <- $r5
	@DEBUG_VALUE: kr <- $r4
	@DEBUG_VALUE: y <- [DW_OP_plus_uconst 4] [$sp+0]
	@DEBUG_VALUE: sqrt_mask <- [DW_OP_plus_uconst 16] [$sp+0]
	@DEBUG_VALUE: lv_draw_mask_radius:w <- [DW_OP_plus_uconst 12] [$sp+0]
	@DEBUG_VALUE: lv_draw_mask_radius:p <- [DW_OP_plus_uconst 88] [$sp+0]
	.loc	6 1090 56 is_stmt 0             @ lvgl/src/lv_draw/lv_draw_mask.c:1090:56
	uxtb.w	r1, r11
	.loc	6 1090 65                       @ lvgl/src/lv_draw/lv_draw_mask.c:1090:65
	ldrb	r0, [r5, r6]
	.loc	6 1090 56                       @ lvgl/src/lv_draw/lv_draw_mask.c:1090:56
	bl	mask_mix
	.loc	6 1090 54                       @ lvgl/src/lv_draw/lv_draw_mask.c:1090:54
	strb	r0, [r5, r6]
.Ltmp501:
.LBB14_81:                              @   in Loop: Header=BB14_78 Depth=1
	@DEBUG_VALUE: lv_draw_mask_radius:len <- $r9
	@DEBUG_VALUE: i <- $r7
	@DEBUG_VALUE: kl <- $r6
	@DEBUG_VALUE: lv_draw_mask_radius:mask_buf <- $r5
	@DEBUG_VALUE: kr <- $r4
	@DEBUG_VALUE: y <- [DW_OP_plus_uconst 4] [$sp+0]
	@DEBUG_VALUE: sqrt_mask <- [DW_OP_plus_uconst 16] [$sp+0]
	@DEBUG_VALUE: lv_draw_mask_radius:w <- [DW_OP_plus_uconst 12] [$sp+0]
	@DEBUG_VALUE: lv_draw_mask_radius:p <- [DW_OP_plus_uconst 88] [$sp+0]
	.loc	6 1091 28 is_stmt 1             @ lvgl/src/lv_draw/lv_draw_mask.c:1091:28
	cmp	r4, #0
	bmi	.LBB14_77
.Ltmp502:
@ %bb.82:                               @   in Loop: Header=BB14_78 Depth=1
	@DEBUG_VALUE: lv_draw_mask_radius:len <- $r9
	@DEBUG_VALUE: i <- $r7
	@DEBUG_VALUE: kl <- $r6
	@DEBUG_VALUE: lv_draw_mask_radius:mask_buf <- $r5
	@DEBUG_VALUE: kr <- $r4
	@DEBUG_VALUE: y <- [DW_OP_plus_uconst 4] [$sp+0]
	@DEBUG_VALUE: sqrt_mask <- [DW_OP_plus_uconst 16] [$sp+0]
	@DEBUG_VALUE: lv_draw_mask_radius:w <- [DW_OP_plus_uconst 12] [$sp+0]
	@DEBUG_VALUE: lv_draw_mask_radius:p <- [DW_OP_plus_uconst 88] [$sp+0]
	cmp	r4, r9
	bge	.LBB14_77
.Ltmp503:
@ %bb.83:                               @   in Loop: Header=BB14_78 Depth=1
	@DEBUG_VALUE: lv_draw_mask_radius:len <- $r9
	@DEBUG_VALUE: i <- $r7
	@DEBUG_VALUE: kl <- $r6
	@DEBUG_VALUE: lv_draw_mask_radius:mask_buf <- $r5
	@DEBUG_VALUE: kr <- $r4
	@DEBUG_VALUE: y <- [DW_OP_plus_uconst 4] [$sp+0]
	@DEBUG_VALUE: sqrt_mask <- [DW_OP_plus_uconst 16] [$sp+0]
	@DEBUG_VALUE: lv_draw_mask_radius:w <- [DW_OP_plus_uconst 12] [$sp+0]
	@DEBUG_VALUE: lv_draw_mask_radius:p <- [DW_OP_plus_uconst 88] [$sp+0]
	.loc	6 1091 56 is_stmt 0             @ lvgl/src/lv_draw/lv_draw_mask.c:1091:56
	uxtb.w	r1, r11
	.loc	6 1091 65                       @ lvgl/src/lv_draw/lv_draw_mask.c:1091:65
	ldrb	r0, [r5, r4]
	.loc	6 1091 56                       @ lvgl/src/lv_draw/lv_draw_mask.c:1091:56
	bl	mask_mix
	.loc	6 1091 54                       @ lvgl/src/lv_draw/lv_draw_mask.c:1091:54
	strb	r0, [r5, r4]
	b	.LBB14_77
.Ltmp504:
.LBB14_84:
	@DEBUG_VALUE: lv_draw_mask_radius:len <- $r9
	@DEBUG_VALUE: i <- $r7
	@DEBUG_VALUE: kl <- $r6
	@DEBUG_VALUE: lv_draw_mask_radius:mask_buf <- $r5
	@DEBUG_VALUE: kr <- $r4
	@DEBUG_VALUE: y <- [DW_OP_plus_uconst 4] [$sp+0]
	@DEBUG_VALUE: sqrt_mask <- [DW_OP_plus_uconst 16] [$sp+0]
	@DEBUG_VALUE: lv_draw_mask_radius:w <- [DW_OP_plus_uconst 12] [$sp+0]
	@DEBUG_VALUE: lv_draw_mask_radius:p <- [DW_OP_plus_uconst 88] [$sp+0]
	.loc	6 0 54                          @ lvgl/src/lv_draw/lv_draw_mask.c:0:54
	ldr.w	r8, [sp, #20]                   @ 4-byte Reload
	@DEBUG_VALUE: kl <- $r6
	@DEBUG_VALUE: kr <- $r4
	.loc	6 1108 16 is_stmt 1             @ lvgl/src/lv_draw/lv_draw_mask.c:1108:16
	cmp.w	r8, #0
	bne	.LBB14_91
.Ltmp505:
.LBB14_85:
	@DEBUG_VALUE: lv_draw_mask_radius:len <- $r9
	@DEBUG_VALUE: kl <- $r6
	@DEBUG_VALUE: lv_draw_mask_radius:mask_buf <- $r5
	@DEBUG_VALUE: kr <- $r4
	@DEBUG_VALUE: y <- [DW_OP_plus_uconst 4] [$sp+0]
	@DEBUG_VALUE: sqrt_mask <- [DW_OP_plus_uconst 16] [$sp+0]
	@DEBUG_VALUE: lv_draw_mask_radius:w <- [DW_OP_plus_uconst 12] [$sp+0]
	@DEBUG_VALUE: lv_draw_mask_radius:p <- [DW_OP_plus_uconst 88] [$sp+0]
	@DEBUG_VALUE: kl <- undef
	.loc	6 1110 20                       @ lvgl/src/lv_draw/lv_draw_mask.c:1110:20
	cmp	r6, r9
	bge.w	.LBB14_3
.Ltmp506:
@ %bb.86:
	@DEBUG_VALUE: lv_draw_mask_radius:len <- $r9
	@DEBUG_VALUE: lv_draw_mask_radius:mask_buf <- $r5
	@DEBUG_VALUE: kr <- $r4
	@DEBUG_VALUE: y <- [DW_OP_plus_uconst 4] [$sp+0]
	@DEBUG_VALUE: sqrt_mask <- [DW_OP_plus_uconst 16] [$sp+0]
	@DEBUG_VALUE: lv_draw_mask_radius:w <- [DW_OP_plus_uconst 12] [$sp+0]
	@DEBUG_VALUE: lv_draw_mask_radius:p <- [DW_OP_plus_uconst 88] [$sp+0]
	@DEBUG_VALUE: kl <- undef
	.loc	6 1113 20                       @ lvgl/src/lv_draw/lv_draw_mask.c:1113:20
	cmp.w	r6, #-1
	blt	.LBB14_88
.Ltmp507:
@ %bb.87:
	@DEBUG_VALUE: lv_draw_mask_radius:len <- $r9
	@DEBUG_VALUE: lv_draw_mask_radius:mask_buf <- $r5
	@DEBUG_VALUE: kr <- $r4
	@DEBUG_VALUE: y <- [DW_OP_plus_uconst 4] [$sp+0]
	@DEBUG_VALUE: sqrt_mask <- [DW_OP_plus_uconst 16] [$sp+0]
	@DEBUG_VALUE: lv_draw_mask_radius:w <- [DW_OP_plus_uconst 12] [$sp+0]
	@DEBUG_VALUE: lv_draw_mask_radius:p <- [DW_OP_plus_uconst 88] [$sp+0]
	.loc	6 0 0 is_stmt 0                 @ lvgl/src/lv_draw/lv_draw_mask.c:0:0
	adds	r1, r6, #1
.Ltmp508:
	@DEBUG_VALUE: kl <- $r1
	.loc	6 1113 29                       @ lvgl/src/lv_draw/lv_draw_mask.c:1113:29
	mov	r0, r5
	bl	_lv_memset_00
.Ltmp509:
.LBB14_88:
	@DEBUG_VALUE: lv_draw_mask_radius:len <- $r9
	@DEBUG_VALUE: lv_draw_mask_radius:mask_buf <- $r5
	@DEBUG_VALUE: kr <- $r4
	@DEBUG_VALUE: y <- [DW_OP_plus_uconst 4] [$sp+0]
	@DEBUG_VALUE: sqrt_mask <- [DW_OP_plus_uconst 16] [$sp+0]
	@DEBUG_VALUE: lv_draw_mask_radius:w <- [DW_OP_plus_uconst 12] [$sp+0]
	@DEBUG_VALUE: lv_draw_mask_radius:p <- [DW_OP_plus_uconst 88] [$sp+0]
	.loc	6 1115 20 is_stmt 1             @ lvgl/src/lv_draw/lv_draw_mask.c:1115:20
	cmp	r4, #0
	bmi.w	.LBB14_3
.Ltmp510:
@ %bb.89:
	@DEBUG_VALUE: lv_draw_mask_radius:len <- $r9
	@DEBUG_VALUE: lv_draw_mask_radius:mask_buf <- $r5
	@DEBUG_VALUE: kr <- $r4
	@DEBUG_VALUE: y <- [DW_OP_plus_uconst 4] [$sp+0]
	@DEBUG_VALUE: sqrt_mask <- [DW_OP_plus_uconst 16] [$sp+0]
	@DEBUG_VALUE: lv_draw_mask_radius:w <- [DW_OP_plus_uconst 12] [$sp+0]
	@DEBUG_VALUE: lv_draw_mask_radius:p <- [DW_OP_plus_uconst 88] [$sp+0]
	.loc	6 1118 20                       @ lvgl/src/lv_draw/lv_draw_mask.c:1118:20
	cmp	r4, r9
	bge	.LBB14_91
.Ltmp511:
@ %bb.90:
	@DEBUG_VALUE: lv_draw_mask_radius:len <- $r9
	@DEBUG_VALUE: lv_draw_mask_radius:mask_buf <- $r5
	@DEBUG_VALUE: kr <- $r4
	@DEBUG_VALUE: y <- [DW_OP_plus_uconst 4] [$sp+0]
	@DEBUG_VALUE: sqrt_mask <- [DW_OP_plus_uconst 16] [$sp+0]
	@DEBUG_VALUE: lv_draw_mask_radius:w <- [DW_OP_plus_uconst 12] [$sp+0]
	@DEBUG_VALUE: lv_draw_mask_radius:p <- [DW_OP_plus_uconst 88] [$sp+0]
	.loc	6 1118 45 is_stmt 0             @ lvgl/src/lv_draw/lv_draw_mask.c:1118:45
	adds	r0, r5, r4
	.loc	6 1118 63                       @ lvgl/src/lv_draw/lv_draw_mask.c:1118:63
	sub.w	r1, r9, r4
	.loc	6 1118 30                       @ lvgl/src/lv_draw/lv_draw_mask.c:1118:30
	bl	_lv_memset_00
.Ltmp512:
.LBB14_91:
	@DEBUG_VALUE: lv_draw_mask_radius:len <- $r9
	@DEBUG_VALUE: lv_draw_mask_radius:p <- [DW_OP_plus_uconst 88] [$sp+0]
	.loc	6 0 30                          @ lvgl/src/lv_draw/lv_draw_mask.c:0:30
	movs	r0, #2
	.loc	6 1124 1 is_stmt 1              @ lvgl/src/lv_draw/lv_draw_mask.c:1124:1
	add	sp, #52
	pop.w	{r4, r5, r6, r7, r8, r9, r10, r11, pc}
.Ltmp513:
.Lfunc_end14:
	.size	lv_draw_mask_radius, .Lfunc_end14-lv_draw_mask_radius
	.cfi_endproc
	.cantunwind
	.fnend
                                        @ -- End function
	.section	.text.lv_draw_mask_fade_init,"ax",%progbits
	.hidden	lv_draw_mask_fade_init          @ -- Begin function lv_draw_mask_fade_init
	.globl	lv_draw_mask_fade_init
	.p2align	3
	.type	lv_draw_mask_fade_init,%function
	.code	16                              @ @lv_draw_mask_fade_init
	.thumb_func
lv_draw_mask_fade_init:
.Lfunc_begin15:
	.loc	6 393 0                         @ lvgl/src/lv_draw/lv_draw_mask.c:393:0
	.fnstart
	.cfi_startproc
@ %bb.0:
	@DEBUG_VALUE: lv_draw_mask_fade_init:param <- $r0
	@DEBUG_VALUE: lv_draw_mask_fade_init:coords <- $r1
	@DEBUG_VALUE: lv_draw_mask_fade_init:opa_top <- $r2
	@DEBUG_VALUE: lv_draw_mask_fade_init:y_top <- $r3
	.save	{r4, r5, r6, r7, r8, lr}
	push.w	{r4, r5, r6, r7, r8, lr}
	.cfi_def_cfa_offset 24
	.cfi_offset lr, -4
	.cfi_offset r8, -8
	.cfi_offset r7, -12
	.cfi_offset r6, -16
	.cfi_offset r5, -20
	.cfi_offset r4, -24
	mov	r6, r0
.Ltmp514:
	.loc	6 394 30 prologue_end           @ lvgl/src/lv_draw/lv_draw_mask.c:394:30
	adds	r0, #8
.Ltmp515:
	@DEBUG_VALUE: lv_draw_mask_fade_init:param <- [DW_OP_LLVM_entry_value 1] $r0
	@DEBUG_VALUE: lv_draw_mask_fade_init:coords <- $r1
	.loc	6 0 30 is_stmt 0                @ lvgl/src/lv_draw/lv_draw_mask.c:0:30
	mov	r4, r3
.Ltmp516:
	@DEBUG_VALUE: lv_draw_mask_fade_init:y_top <- $r4
	mov	r5, r2
.Ltmp517:
	@DEBUG_VALUE: lv_draw_mask_fade_init:opa_top <- $r5
	ldrd	r7, r8, [sp, #24]
	@DEBUG_VALUE: lv_draw_mask_fade_init:y_bottom <- undef
	@DEBUG_VALUE: lv_draw_mask_fade_init:opa_bottom <- undef
	@DEBUG_VALUE: lv_draw_mask_fade_init:y_top <- $r4
	@DEBUG_VALUE: lv_draw_mask_fade_init:opa_top <- $r5
	@DEBUG_VALUE: lv_draw_mask_fade_init:coords <- $r1
.Ltmp518:
	@DEBUG_VALUE: lv_draw_mask_fade_init:param <- $r6
	.loc	6 394 5                         @ lvgl/src/lv_draw/lv_draw_mask.c:394:5
	bl	lv_area_copy
.Ltmp519:
	@DEBUG_VALUE: lv_draw_mask_fade_init:coords <- [DW_OP_LLVM_entry_value 1] $r1
	.loc	6 399 19 is_stmt 1              @ lvgl/src/lv_draw/lv_draw_mask.c:399:19
	movw	r0, :lower16:lv_draw_mask_fade
	.loc	6 395 24                        @ lvgl/src/lv_draw/lv_draw_mask.c:395:24
	strb	r5, [r6, #20]
	.loc	6 396 27                        @ lvgl/src/lv_draw/lv_draw_mask.c:396:27
	strb	r7, [r6, #21]
	.loc	6 399 19                        @ lvgl/src/lv_draw/lv_draw_mask.c:399:19
	movt	r0, :upper16:lv_draw_mask_fade
	.loc	6 397 22                        @ lvgl/src/lv_draw/lv_draw_mask.c:397:22
	strh	r4, [r6, #16]
	.loc	6 398 25                        @ lvgl/src/lv_draw/lv_draw_mask.c:398:25
	strh.w	r8, [r6, #18]
	.loc	6 399 19                        @ lvgl/src/lv_draw/lv_draw_mask.c:399:19
	str	r0, [r6]
	movs	r0, #3
	.loc	6 400 21                        @ lvgl/src/lv_draw/lv_draw_mask.c:400:21
	strb	r0, [r6, #4]
	.loc	6 401 1                         @ lvgl/src/lv_draw/lv_draw_mask.c:401:1
	pop.w	{r4, r5, r6, r7, r8, pc}
.Ltmp520:
.Lfunc_end15:
	.size	lv_draw_mask_fade_init, .Lfunc_end15-lv_draw_mask_fade_init
	.cfi_endproc
	.cantunwind
	.fnend
                                        @ -- End function
	.section	.text.lv_draw_mask_fade,"ax",%progbits
	.p2align	3                               @ -- Begin function lv_draw_mask_fade
	.type	lv_draw_mask_fade,%function
	.code	16                              @ @lv_draw_mask_fade
	.thumb_func
lv_draw_mask_fade:
.Lfunc_begin16:
	.loc	6 1129 0                        @ lvgl/src/lv_draw/lv_draw_mask.c:1129:0
	.fnstart
	.cfi_startproc
@ %bb.0:
	@DEBUG_VALUE: lv_draw_mask_fade:mask_buf <- $r0
	@DEBUG_VALUE: lv_draw_mask_fade:abs_x <- $r1
	@DEBUG_VALUE: lv_draw_mask_fade:abs_y <- $r2
	@DEBUG_VALUE: lv_draw_mask_fade:len <- $r3
	.save	{r4, r5, r6, lr}
	push	{r4, r5, r6, lr}
	.cfi_def_cfa_offset 16
	.cfi_offset lr, -4
	.cfi_offset r6, -8
	.cfi_offset r5, -12
	.cfi_offset r4, -16
	ldr	r4, [sp, #16]
.Ltmp521:
	@DEBUG_VALUE: lv_draw_mask_fade:p <- [DW_OP_plus_uconst 16] [$sp+0]
	@DEBUG_VALUE: lv_draw_mask_fade:len <- undef
	@DEBUG_VALUE: lv_draw_mask_fade:abs_x <- undef
	.loc	6 1130 30 prologue_end          @ lvgl/src/lv_draw/lv_draw_mask.c:1130:30
	ldrsh.w	r6, [r4, #10]
.Ltmp522:
	@DEBUG_VALUE: lv_draw_mask_fade:abs_y <- $r2
	.loc	6 1130 8 is_stmt 0              @ lvgl/src/lv_draw/lv_draw_mask.c:1130:8
	cmp	r6, r2
.Ltmp523:
	@DEBUG_VALUE: lv_draw_mask_fade:len <- $r3
	@DEBUG_VALUE: lv_draw_mask_fade:abs_x <- $r1
	@DEBUG_VALUE: lv_draw_mask_fade:mask_buf <- $r0
	bgt	.LBB16_4
.Ltmp524:
@ %bb.1:
	@DEBUG_VALUE: lv_draw_mask_fade:len <- $r3
	@DEBUG_VALUE: lv_draw_mask_fade:abs_y <- $r2
	@DEBUG_VALUE: lv_draw_mask_fade:abs_x <- $r1
	@DEBUG_VALUE: lv_draw_mask_fade:mask_buf <- $r0
	@DEBUG_VALUE: lv_draw_mask_fade:p <- [DW_OP_plus_uconst 16] [$sp+0]
	@DEBUG_VALUE: lv_draw_mask_fade:abs_x <- $r1
	.loc	6 1131 30 is_stmt 1             @ lvgl/src/lv_draw/lv_draw_mask.c:1131:30
	ldrsh.w	r6, [r4, #14]
.Ltmp525:
	.loc	6 1131 8 is_stmt 0              @ lvgl/src/lv_draw/lv_draw_mask.c:1131:8
	cmp	r6, r2
	blt	.LBB16_4
.Ltmp526:
@ %bb.2:
	@DEBUG_VALUE: lv_draw_mask_fade:len <- $r3
	@DEBUG_VALUE: lv_draw_mask_fade:abs_y <- $r2
	@DEBUG_VALUE: lv_draw_mask_fade:abs_x <- $r1
	@DEBUG_VALUE: lv_draw_mask_fade:mask_buf <- $r0
	@DEBUG_VALUE: lv_draw_mask_fade:p <- [DW_OP_plus_uconst 16] [$sp+0]
	@DEBUG_VALUE: lv_draw_mask_fade:abs_x <- $r1
	.loc	6 1132 36 is_stmt 1             @ lvgl/src/lv_draw/lv_draw_mask.c:1132:36
	ldrsh.w	r12, [r4, #8]
	.loc	6 1132 14 is_stmt 0             @ lvgl/src/lv_draw/lv_draw_mask.c:1132:14
	adds	r6, r3, r1
.Ltmp527:
	.loc	6 1132 8                        @ lvgl/src/lv_draw/lv_draw_mask.c:1132:8
	cmp	r6, r12
	blt	.LBB16_4
.Ltmp528:
@ %bb.3:
	@DEBUG_VALUE: lv_draw_mask_fade:len <- $r3
	@DEBUG_VALUE: lv_draw_mask_fade:abs_y <- $r2
	@DEBUG_VALUE: lv_draw_mask_fade:abs_x <- $r1
	@DEBUG_VALUE: lv_draw_mask_fade:mask_buf <- $r0
	@DEBUG_VALUE: lv_draw_mask_fade:p <- [DW_OP_plus_uconst 16] [$sp+0]
	@DEBUG_VALUE: lv_draw_mask_fade:abs_x <- $r1
	.loc	6 1133 30 is_stmt 1             @ lvgl/src/lv_draw/lv_draw_mask.c:1133:30
	ldrsh.w	lr, [r4, #12]
.Ltmp529:
	.loc	6 1133 8 is_stmt 0              @ lvgl/src/lv_draw/lv_draw_mask.c:1133:8
	cmp	lr, r1
	bge	.LBB16_5
.Ltmp530:
.LBB16_4:
	@DEBUG_VALUE: lv_draw_mask_fade:len <- $r3
	@DEBUG_VALUE: lv_draw_mask_fade:abs_y <- $r2
	@DEBUG_VALUE: lv_draw_mask_fade:abs_x <- $r1
	@DEBUG_VALUE: lv_draw_mask_fade:mask_buf <- $r0
	@DEBUG_VALUE: lv_draw_mask_fade:p <- [DW_OP_plus_uconst 16] [$sp+0]
	.loc	6 0 8                           @ lvgl/src/lv_draw/lv_draw_mask.c:0:8
	movs	r0, #1
.Ltmp531:
	@DEBUG_VALUE: lv_draw_mask_fade:mask_buf <- [DW_OP_LLVM_entry_value 1] $r0
	.loc	6 1170 1 is_stmt 1              @ lvgl/src/lv_draw/lv_draw_mask.c:1170:1
	pop	{r4, r5, r6, pc}
.Ltmp532:
.LBB16_5:
	@DEBUG_VALUE: lv_draw_mask_fade:len <- $r3
	@DEBUG_VALUE: lv_draw_mask_fade:abs_y <- $r2
	@DEBUG_VALUE: lv_draw_mask_fade:abs_x <- $r1
	@DEBUG_VALUE: lv_draw_mask_fade:mask_buf <- $r0
	@DEBUG_VALUE: lv_draw_mask_fade:p <- [DW_OP_plus_uconst 16] [$sp+0]
	@DEBUG_VALUE: lv_draw_mask_fade:abs_x <- $r1
	.loc	6 1135 8                        @ lvgl/src/lv_draw/lv_draw_mask.c:1135:8
	mvn.w	r5, lr
	cmp	r6, lr
	add	r5, r6
	it	gt
	subgt	r3, r3, r5
.Ltmp533:
	@DEBUG_VALUE: lv_draw_mask_fade:len <- $r3
	.loc	6 1137 8                        @ lvgl/src/lv_draw/lv_draw_mask.c:1137:8
	sub.w	r5, r1, r12
	cmp	r12, r1
.Ltmp534:
	.loc	6 1146 24                       @ lvgl/src/lv_draw/lv_draw_mask.c:1146:24
	ldrsh.w	r6, [r4, #16]
.Ltmp535:
	.loc	6 1137 8                        @ lvgl/src/lv_draw/lv_draw_mask.c:1137:8
	it	gt
	addgt	r3, r5
.Ltmp536:
	@DEBUG_VALUE: lv_draw_mask_fade:len <- $r3
	.loc	6 1146 8                        @ lvgl/src/lv_draw/lv_draw_mask.c:1146:8
	cmp	r6, r2
	.loc	6 1137 8                        @ lvgl/src/lv_draw/lv_draw_mask.c:1137:8
	sxth	r5, r3
.Ltmp537:
	@DEBUG_VALUE: lv_draw_mask_fade:mask_buf <- undef
	.loc	6 1146 8                        @ lvgl/src/lv_draw/lv_draw_mask.c:1146:8
	bge	.LBB16_10
.Ltmp538:
@ %bb.6:
	@DEBUG_VALUE: lv_draw_mask_fade:len <- $r3
	@DEBUG_VALUE: lv_draw_mask_fade:abs_y <- $r2
	@DEBUG_VALUE: lv_draw_mask_fade:abs_x <- $r1
	@DEBUG_VALUE: lv_draw_mask_fade:p <- [DW_OP_plus_uconst 16] [$sp+0]
	.loc	6 1152 29                       @ lvgl/src/lv_draw/lv_draw_mask.c:1152:29
	ldrsh.w	r3, [r4, #18]
.Ltmp539:
	.loc	6 1152 13 is_stmt 0             @ lvgl/src/lv_draw/lv_draw_mask.c:1152:13
	cmp	r3, r2
	ble	.LBB16_13
.Ltmp540:
@ %bb.7:
	@DEBUG_VALUE: lv_draw_mask_fade:abs_y <- $r2
	@DEBUG_VALUE: lv_draw_mask_fade:abs_x <- $r1
	@DEBUG_VALUE: lv_draw_mask_fade:p <- [DW_OP_plus_uconst 16] [$sp+0]
	@DEBUG_VALUE: lv_draw_mask_fade:i <- 0
	@DEBUG_VALUE: opa_diff <- [DW_OP_LLVM_convert 32 7, DW_OP_LLVM_convert 16 7, DW_OP_stack_value] undef
	@DEBUG_VALUE: y_diff <- undef
	@DEBUG_VALUE: opa_act <- undef
	.loc	6 1165 9 is_stmt 1              @ lvgl/src/lv_draw/lv_draw_mask.c:1165:9
	cmp	r5, #1
	blt	.LBB16_17
.Ltmp541:
@ %bb.8:
	@DEBUG_VALUE: lv_draw_mask_fade:abs_y <- $r2
	@DEBUG_VALUE: lv_draw_mask_fade:abs_x <- $r1
	@DEBUG_VALUE: lv_draw_mask_fade:p <- [DW_OP_plus_uconst 16] [$sp+0]
	@DEBUG_VALUE: lv_draw_mask_fade:i <- 0
	.loc	6 0 0 is_stmt 0                 @ lvgl/src/lv_draw/lv_draw_mask.c:0:0
	ldrb.w	lr, [r4, #20]
	subs	r2, r2, r6
.Ltmp542:
	@DEBUG_VALUE: lv_draw_mask_fade:abs_y <- [DW_OP_LLVM_entry_value 1] $r2
	ldrb	r4, [r4, #21]
	subs	r3, r3, r6
.Ltmp543:
	.loc	6 1165 9                        @ lvgl/src/lv_draw/lv_draw_mask.c:1165:9
	cmp	r12, r1
.Ltmp544:
	.loc	6 0 0                           @ lvgl/src/lv_draw/lv_draw_mask.c:0:0
	add.w	r3, r3, #1
.Ltmp545:
	@DEBUG_VALUE: y_diff <- $r3
	sub.w	r4, r4, lr
.Ltmp546:
	@DEBUG_VALUE: opa_diff <- [DW_OP_LLVM_convert 32 7, DW_OP_LLVM_convert 16 7, DW_OP_stack_value] $r4
	mul	r2, r4, r2
.Ltmp547:
	.loc	6 1165 9                        @ lvgl/src/lv_draw/lv_draw_mask.c:1165:9
	it	le
	movle	r12, r1
.Ltmp548:
	.loc	6 0 0                           @ lvgl/src/lv_draw/lv_draw_mask.c:0:0
	sdiv	r2, r2, r3
.Ltmp549:
	.loc	6 1165 9                        @ lvgl/src/lv_draw/lv_draw_mask.c:1165:9
	sub.w	r1, r12, r1
.Ltmp550:
	add	r0, r1
.Ltmp551:
	.loc	6 0 0                           @ lvgl/src/lv_draw/lv_draw_mask.c:0:0
	add.w	r1, lr, r2
.Ltmp552:
	@DEBUG_VALUE: opa_act <- $r1
	uxtb	r4, r1
.Ltmp553:
	.loc	6 1165 9                        @ lvgl/src/lv_draw/lv_draw_mask.c:1165:9
	subs	r6, r0, #1
.Ltmp554:
	.p2align	2
.LBB16_9:                               @ =>This Inner Loop Header: Depth=1
	@DEBUG_VALUE: lv_draw_mask_fade:p <- [DW_OP_plus_uconst 16] [$sp+0]
	@DEBUG_VALUE: lv_draw_mask_fade:abs_y <- [DW_OP_LLVM_entry_value 1] $r2
	@DEBUG_VALUE: lv_draw_mask_fade:i <- undef
	.loc	6 1166 36 is_stmt 1             @ lvgl/src/lv_draw/lv_draw_mask.c:1166:36
	ldrb	r0, [r6, #1]!
	.loc	6 1166 27 is_stmt 0             @ lvgl/src/lv_draw/lv_draw_mask.c:1166:27
	mov	r1, r4
	bl	mask_mix
.Ltmp555:
	.loc	6 1165 22 is_stmt 1             @ lvgl/src/lv_draw/lv_draw_mask.c:1165:22
	subs	r5, #1
.Ltmp556:
	.loc	6 1166 25                       @ lvgl/src/lv_draw/lv_draw_mask.c:1166:25
	strb	r0, [r6]
.Ltmp557:
	@DEBUG_VALUE: lv_draw_mask_fade:i <- [DW_OP_plus_uconst 1, DW_OP_stack_value] undef
	.loc	6 0 25 is_stmt 0                @ lvgl/src/lv_draw/lv_draw_mask.c:0:25
	mov.w	r0, #2
.Ltmp558:
	.loc	6 1165 9 is_stmt 1              @ lvgl/src/lv_draw/lv_draw_mask.c:1165:9
	bne	.LBB16_9
	b	.LBB16_16
.Ltmp559:
.LBB16_10:
	@DEBUG_VALUE: lv_draw_mask_fade:len <- $r3
	@DEBUG_VALUE: lv_draw_mask_fade:abs_y <- $r2
	@DEBUG_VALUE: lv_draw_mask_fade:abs_x <- $r1
	@DEBUG_VALUE: lv_draw_mask_fade:p <- [DW_OP_plus_uconst 16] [$sp+0]
	@DEBUG_VALUE: lv_draw_mask_fade:i <- 0
	.loc	6 1147 9                        @ lvgl/src/lv_draw/lv_draw_mask.c:1147:9
	cmp	r5, #1
	blt	.LBB16_17
.Ltmp560:
@ %bb.11:
	@DEBUG_VALUE: lv_draw_mask_fade:len <- $r3
	@DEBUG_VALUE: lv_draw_mask_fade:abs_y <- $r2
	@DEBUG_VALUE: lv_draw_mask_fade:abs_x <- $r1
	@DEBUG_VALUE: lv_draw_mask_fade:p <- [DW_OP_plus_uconst 16] [$sp+0]
	@DEBUG_VALUE: lv_draw_mask_fade:i <- 0
	cmp	r12, r1
	it	le
	movle	r12, r1
	sub.w	r1, r12, r1
.Ltmp561:
	add	r0, r1
	subs	r6, r0, #1
.Ltmp562:
	.p2align	2
.LBB16_12:                              @ =>This Inner Loop Header: Depth=1
	@DEBUG_VALUE: lv_draw_mask_fade:p <- [DW_OP_plus_uconst 16] [$sp+0]
	@DEBUG_VALUE: lv_draw_mask_fade:i <- undef
	.loc	6 1148 36                       @ lvgl/src/lv_draw/lv_draw_mask.c:1148:36
	ldrb	r0, [r6, #1]!
	.loc	6 1148 56 is_stmt 0             @ lvgl/src/lv_draw/lv_draw_mask.c:1148:56
	ldrb	r1, [r4, #20]
	.loc	6 1148 27                       @ lvgl/src/lv_draw/lv_draw_mask.c:1148:27
	bl	mask_mix
.Ltmp563:
	@DEBUG_VALUE: lv_draw_mask_fade:abs_y <- [DW_OP_LLVM_entry_value 1] $r2
	.loc	6 1147 22 is_stmt 1             @ lvgl/src/lv_draw/lv_draw_mask.c:1147:22
	subs	r5, #1
.Ltmp564:
	.loc	6 1148 25                       @ lvgl/src/lv_draw/lv_draw_mask.c:1148:25
	strb	r0, [r6]
.Ltmp565:
	@DEBUG_VALUE: lv_draw_mask_fade:i <- [DW_OP_plus_uconst 1, DW_OP_stack_value] undef
	.loc	6 0 25 is_stmt 0                @ lvgl/src/lv_draw/lv_draw_mask.c:0:25
	mov.w	r0, #2
.Ltmp566:
	.loc	6 1147 9 is_stmt 1              @ lvgl/src/lv_draw/lv_draw_mask.c:1147:9
	bne	.LBB16_12
	b	.LBB16_16
.Ltmp567:
.LBB16_13:
	@DEBUG_VALUE: lv_draw_mask_fade:abs_y <- $r2
	@DEBUG_VALUE: lv_draw_mask_fade:abs_x <- $r1
	@DEBUG_VALUE: lv_draw_mask_fade:p <- [DW_OP_plus_uconst 16] [$sp+0]
	@DEBUG_VALUE: lv_draw_mask_fade:i <- 0
	.loc	6 1153 9                        @ lvgl/src/lv_draw/lv_draw_mask.c:1153:9
	cmp	r5, #1
	blt	.LBB16_17
.Ltmp568:
@ %bb.14:
	@DEBUG_VALUE: lv_draw_mask_fade:abs_y <- $r2
	@DEBUG_VALUE: lv_draw_mask_fade:abs_x <- $r1
	@DEBUG_VALUE: lv_draw_mask_fade:p <- [DW_OP_plus_uconst 16] [$sp+0]
	@DEBUG_VALUE: lv_draw_mask_fade:i <- 0
	cmp	r12, r1
	it	le
	movle	r12, r1
	sub.w	r1, r12, r1
.Ltmp569:
	add	r0, r1
	subs	r6, r0, #1
.Ltmp570:
	.p2align	2
.LBB16_15:                              @ =>This Inner Loop Header: Depth=1
	@DEBUG_VALUE: lv_draw_mask_fade:p <- [DW_OP_plus_uconst 16] [$sp+0]
	@DEBUG_VALUE: lv_draw_mask_fade:i <- undef
	.loc	6 1154 36                       @ lvgl/src/lv_draw/lv_draw_mask.c:1154:36
	ldrb	r0, [r6, #1]!
	.loc	6 1154 56 is_stmt 0             @ lvgl/src/lv_draw/lv_draw_mask.c:1154:56
	ldrb	r1, [r4, #21]
	.loc	6 1154 27                       @ lvgl/src/lv_draw/lv_draw_mask.c:1154:27
	bl	mask_mix
.Ltmp571:
	@DEBUG_VALUE: lv_draw_mask_fade:abs_y <- [DW_OP_LLVM_entry_value 1] $r2
	.loc	6 1153 22 is_stmt 1             @ lvgl/src/lv_draw/lv_draw_mask.c:1153:22
	subs	r5, #1
.Ltmp572:
	.loc	6 1154 25                       @ lvgl/src/lv_draw/lv_draw_mask.c:1154:25
	strb	r0, [r6]
.Ltmp573:
	@DEBUG_VALUE: lv_draw_mask_fade:i <- [DW_OP_plus_uconst 1, DW_OP_stack_value] undef
	.loc	6 0 25 is_stmt 0                @ lvgl/src/lv_draw/lv_draw_mask.c:0:25
	mov.w	r0, #2
.Ltmp574:
	.loc	6 1153 9 is_stmt 1              @ lvgl/src/lv_draw/lv_draw_mask.c:1153:9
	bne	.LBB16_15
.Ltmp575:
.LBB16_16:
	@DEBUG_VALUE: lv_draw_mask_fade:p <- [DW_OP_plus_uconst 16] [$sp+0]
	.loc	6 1170 1                        @ lvgl/src/lv_draw/lv_draw_mask.c:1170:1
	pop	{r4, r5, r6, pc}
.Ltmp576:
.LBB16_17:
	@DEBUG_VALUE: lv_draw_mask_fade:abs_y <- $r2
	@DEBUG_VALUE: lv_draw_mask_fade:abs_x <- $r1
	@DEBUG_VALUE: lv_draw_mask_fade:p <- [DW_OP_plus_uconst 16] [$sp+0]
	@DEBUG_VALUE: lv_draw_mask_fade:i <- 0
	.loc	6 0 1 is_stmt 0                 @ lvgl/src/lv_draw/lv_draw_mask.c:0:1
	movs	r0, #2
	.loc	6 1170 1                        @ lvgl/src/lv_draw/lv_draw_mask.c:1170:1
	pop	{r4, r5, r6, pc}
.Ltmp577:
.Lfunc_end16:
	.size	lv_draw_mask_fade, .Lfunc_end16-lv_draw_mask_fade
	.cfi_endproc
	.cantunwind
	.fnend
                                        @ -- End function
	.section	.text.lv_draw_mask_map_init,"ax",%progbits
	.hidden	lv_draw_mask_map_init           @ -- Begin function lv_draw_mask_map_init
	.globl	lv_draw_mask_map_init
	.p2align	3
	.type	lv_draw_mask_map_init,%function
	.code	16                              @ @lv_draw_mask_map_init
	.thumb_func
lv_draw_mask_map_init:
.Lfunc_begin17:
	.loc	6 410 0 is_stmt 1               @ lvgl/src/lv_draw/lv_draw_mask.c:410:0
	.fnstart
	.cfi_startproc
@ %bb.0:
	@DEBUG_VALUE: lv_draw_mask_map_init:param <- $r0
	@DEBUG_VALUE: lv_draw_mask_map_init:coords <- $r1
	@DEBUG_VALUE: lv_draw_mask_map_init:map <- $r2
	.save	{r4, r5, r7, lr}
	push	{r4, r5, r7, lr}
	.cfi_def_cfa_offset 16
	.cfi_offset lr, -4
	.cfi_offset r7, -8
	.cfi_offset r5, -12
	.cfi_offset r4, -16
	mov	r5, r0
.Ltmp578:
	@DEBUG_VALUE: lv_draw_mask_map_init:map <- $r4
	@DEBUG_VALUE: lv_draw_mask_map_init:coords <- $r1
	@DEBUG_VALUE: lv_draw_mask_map_init:param <- $r5
	.loc	6 411 30 prologue_end           @ lvgl/src/lv_draw/lv_draw_mask.c:411:30
	adds	r0, #8
	@DEBUG_VALUE: lv_draw_mask_map_init:coords <- $r1
	mov	r4, r2
.Ltmp579:
	.loc	6 411 5 is_stmt 0               @ lvgl/src/lv_draw/lv_draw_mask.c:411:5
	bl	lv_area_copy
.Ltmp580:
	@DEBUG_VALUE: lv_draw_mask_map_init:coords <- [DW_OP_LLVM_entry_value 1] $r1
	.loc	6 413 19 is_stmt 1              @ lvgl/src/lv_draw/lv_draw_mask.c:413:19
	movw	r0, :lower16:lv_draw_mask_map
	.loc	6 412 20                        @ lvgl/src/lv_draw/lv_draw_mask.c:412:20
	str	r4, [r5, #16]
	.loc	6 413 19                        @ lvgl/src/lv_draw/lv_draw_mask.c:413:19
	movt	r0, :upper16:lv_draw_mask_map
	str	r0, [r5]
	movs	r0, #4
	.loc	6 414 21                        @ lvgl/src/lv_draw/lv_draw_mask.c:414:21
	strb	r0, [r5, #4]
	.loc	6 415 1                         @ lvgl/src/lv_draw/lv_draw_mask.c:415:1
	pop	{r4, r5, r7, pc}
.Ltmp581:
.Lfunc_end17:
	.size	lv_draw_mask_map_init, .Lfunc_end17-lv_draw_mask_map_init
	.cfi_endproc
	.cantunwind
	.fnend
                                        @ -- End function
	.section	.text.lv_draw_mask_map,"ax",%progbits
	.p2align	3                               @ -- Begin function lv_draw_mask_map
	.type	lv_draw_mask_map,%function
	.code	16                              @ @lv_draw_mask_map
	.thumb_func
lv_draw_mask_map:
.Lfunc_begin18:
	.loc	6 1175 0                        @ lvgl/src/lv_draw/lv_draw_mask.c:1175:0
	.fnstart
	.cfi_startproc
@ %bb.0:
	@DEBUG_VALUE: lv_draw_mask_map:mask_buf <- $r0
	@DEBUG_VALUE: lv_draw_mask_map:abs_x <- $r1
	@DEBUG_VALUE: lv_draw_mask_map:abs_y <- $r2
	@DEBUG_VALUE: lv_draw_mask_map:len <- $r3
	.save	{r4, r5, r6, r7, r8, r9, r10, r11, lr}
	push.w	{r4, r5, r6, r7, r8, r9, r10, r11, lr}
	.cfi_def_cfa_offset 36
	.cfi_offset lr, -4
	.cfi_offset r11, -8
	.cfi_offset r10, -12
	.cfi_offset r9, -16
	.cfi_offset r8, -20
	.cfi_offset r7, -24
	.cfi_offset r6, -28
	.cfi_offset r5, -32
	.cfi_offset r4, -36
	.pad	#4
	sub	sp, #4
	.cfi_def_cfa_offset 40
	ldr	r5, [sp, #40]
.Ltmp582:
	@DEBUG_VALUE: lv_draw_mask_map:p <- [DW_OP_plus_uconst 40] [$sp+0]
	@DEBUG_VALUE: lv_draw_mask_map:len <- undef
	@DEBUG_VALUE: lv_draw_mask_map:abs_x <- undef
	.loc	6 1177 30 prologue_end          @ lvgl/src/lv_draw/lv_draw_mask.c:1177:30
	ldrsh.w	r4, [r5, #10]
.Ltmp583:
	@DEBUG_VALUE: lv_draw_mask_map:abs_y <- $r2
	.loc	6 1177 8 is_stmt 0              @ lvgl/src/lv_draw/lv_draw_mask.c:1177:8
	cmp	r4, r2
.Ltmp584:
	@DEBUG_VALUE: lv_draw_mask_map:len <- $r3
	@DEBUG_VALUE: lv_draw_mask_map:abs_x <- $r1
	@DEBUG_VALUE: lv_draw_mask_map:mask_buf <- $r0
	bgt	.LBB18_4
.Ltmp585:
@ %bb.1:
	@DEBUG_VALUE: lv_draw_mask_map:len <- $r3
	@DEBUG_VALUE: lv_draw_mask_map:abs_y <- $r2
	@DEBUG_VALUE: lv_draw_mask_map:abs_x <- $r1
	@DEBUG_VALUE: lv_draw_mask_map:mask_buf <- $r0
	@DEBUG_VALUE: lv_draw_mask_map:p <- [DW_OP_plus_uconst 40] [$sp+0]
	.loc	6 0 8                           @ lvgl/src/lv_draw/lv_draw_mask.c:0:8
	mov	r8, r0
.Ltmp586:
	@DEBUG_VALUE: lv_draw_mask_map:mask_buf <- $r8
	@DEBUG_VALUE: lv_draw_mask_map:mask_buf <- $r8
	@DEBUG_VALUE: lv_draw_mask_map:abs_x <- $r1
	.loc	6 1178 30 is_stmt 1             @ lvgl/src/lv_draw/lv_draw_mask.c:1178:30
	ldrsh.w	r0, [r5, #14]
	mov	r6, r2
.Ltmp587:
	@DEBUG_VALUE: lv_draw_mask_map:abs_y <- $r6
	@DEBUG_VALUE: lv_draw_mask_map:len <- $r3
	@DEBUG_VALUE: lv_draw_mask_map:abs_x <- $r1
	.loc	6 1178 8 is_stmt 0              @ lvgl/src/lv_draw/lv_draw_mask.c:1178:8
	cmp	r0, r2
	blt	.LBB18_4
.Ltmp588:
@ %bb.2:
	@DEBUG_VALUE: lv_draw_mask_map:mask_buf <- $r8
	@DEBUG_VALUE: lv_draw_mask_map:abs_y <- $r6
	@DEBUG_VALUE: lv_draw_mask_map:len <- $r3
	@DEBUG_VALUE: lv_draw_mask_map:abs_x <- $r1
	@DEBUG_VALUE: lv_draw_mask_map:p <- [DW_OP_plus_uconst 40] [$sp+0]
	.loc	6 0 0                           @ lvgl/src/lv_draw/lv_draw_mask.c:0:0
	add.w	r0, r5, #8
.Ltmp589:
	.loc	6 1179 14 is_stmt 1             @ lvgl/src/lv_draw/lv_draw_mask.c:1179:14
	add.w	r10, r3, r1
	mov	r7, r3
.Ltmp590:
	@DEBUG_VALUE: lv_draw_mask_map:len <- $r7
	@DEBUG_VALUE: lv_draw_mask_map:len <- $r7
	.loc	6 0 14 is_stmt 0                @ lvgl/src/lv_draw/lv_draw_mask.c:0:14
	mov	r11, r1
.Ltmp591:
	@DEBUG_VALUE: lv_draw_mask_map:abs_x <- $r11
	@DEBUG_VALUE: lv_draw_mask_map:abs_x <- $r11
	@DEBUG_VALUE: lv_draw_mask_map:abs_x <- $r11
	@DEBUG_VALUE: lv_draw_mask_map:abs_x <- $r11
	.loc	6 1179 36                       @ lvgl/src/lv_draw/lv_draw_mask.c:1179:36
	ldrsh.w	r9, [r0]
.Ltmp592:
	.loc	6 1179 8                        @ lvgl/src/lv_draw/lv_draw_mask.c:1179:8
	cmp	r10, r9
	blt	.LBB18_4
.Ltmp593:
@ %bb.3:
	@DEBUG_VALUE: lv_draw_mask_map:abs_x <- $r11
	@DEBUG_VALUE: lv_draw_mask_map:mask_buf <- $r8
	@DEBUG_VALUE: lv_draw_mask_map:len <- $r7
	@DEBUG_VALUE: lv_draw_mask_map:abs_y <- $r6
	@DEBUG_VALUE: lv_draw_mask_map:p <- [DW_OP_plus_uconst 40] [$sp+0]
	@DEBUG_VALUE: lv_draw_mask_map:abs_x <- $r11
	.loc	6 1180 30 is_stmt 1             @ lvgl/src/lv_draw/lv_draw_mask.c:1180:30
	ldrsh.w	r1, [r5, #12]
.Ltmp594:
	.loc	6 1180 8 is_stmt 0              @ lvgl/src/lv_draw/lv_draw_mask.c:1180:8
	cmp	r1, r11
	bge	.LBB18_5
.Ltmp595:
.LBB18_4:
	@DEBUG_VALUE: lv_draw_mask_map:p <- [DW_OP_plus_uconst 40] [$sp+0]
	.loc	6 0 8                           @ lvgl/src/lv_draw/lv_draw_mask.c:0:8
	movs	r0, #1
	.loc	6 1204 1 is_stmt 1              @ lvgl/src/lv_draw/lv_draw_mask.c:1204:1
	add	sp, #4
	pop.w	{r4, r5, r6, r7, r8, r9, r10, r11, pc}
.Ltmp596:
.LBB18_5:
	@DEBUG_VALUE: lv_draw_mask_map:abs_x <- $r11
	@DEBUG_VALUE: lv_draw_mask_map:mask_buf <- $r8
	@DEBUG_VALUE: lv_draw_mask_map:len <- $r7
	@DEBUG_VALUE: lv_draw_mask_map:abs_y <- $r6
	@DEBUG_VALUE: lv_draw_mask_map:p <- [DW_OP_plus_uconst 40] [$sp+0]
	@DEBUG_VALUE: lv_draw_mask_map:abs_x <- $r11
	.loc	6 1183 39                       @ lvgl/src/lv_draw/lv_draw_mask.c:1183:39
	ldr	r2, [r5, #16]
.Ltmp597:
	@DEBUG_VALUE: lv_draw_mask_map:map_tmp <- $r2
	.loc	6 1184 45                       @ lvgl/src/lv_draw/lv_draw_mask.c:1184:45
	str	r2, [sp]                        @ 4-byte Spill
.Ltmp598:
	@DEBUG_VALUE: lv_draw_mask_map:map_tmp <- [$sp+0]
	@DEBUG_VALUE: lv_draw_mask_map:map_tmp <- [$sp+0]
	.loc	6 0 45 is_stmt 0                @ lvgl/src/lv_draw/lv_draw_mask.c:0:45
	mov	r5, r1
	.loc	6 1184 45                       @ lvgl/src/lv_draw/lv_draw_mask.c:1184:45
	bl	lv_area_get_width
	.loc	6 1186 8 is_stmt 1              @ lvgl/src/lv_draw/lv_draw_mask.c:1186:8
	sub.w	r1, r11, r9
	cmp	r9, r11
	it	gt
	addgt	r7, r1
.Ltmp599:
	sub.w	r1, r5, r10
.Ltmp600:
	@DEBUG_VALUE: lv_draw_mask_map:len <- undef
	.loc	6 1188 8                        @ lvgl/src/lv_draw/lv_draw_mask.c:1188:8
	cmp	r5, r10
	.loc	6 1186 8                        @ lvgl/src/lv_draw/lv_draw_mask.c:1186:8
	add	r1, r7
	.loc	6 1188 8                        @ lvgl/src/lv_draw/lv_draw_mask.c:1188:8
	it	lt
	addlt	r7, r1, #1
.Ltmp601:
	@DEBUG_VALUE: lv_draw_mask_map:len <- $r7
	sxth	r7, r7
.Ltmp602:
	@DEBUG_VALUE: lv_draw_mask_map:i <- 0
	@DEBUG_VALUE: lv_draw_mask_map:map_tmp <- undef
	@DEBUG_VALUE: lv_draw_mask_map:mask_buf <- undef
	.loc	6 1199 5                        @ lvgl/src/lv_draw/lv_draw_mask.c:1199:5
	cmp	r7, #1
	@DEBUG_VALUE: lv_draw_mask_map:map_tmp <- undef
	blt	.LBB18_8
.Ltmp603:
@ %bb.6:
	@DEBUG_VALUE: lv_draw_mask_map:abs_x <- $r11
	@DEBUG_VALUE: lv_draw_mask_map:abs_y <- $r6
	@DEBUG_VALUE: lv_draw_mask_map:p <- [DW_OP_plus_uconst 40] [$sp+0]
	@DEBUG_VALUE: lv_draw_mask_map:i <- 0
	mov	r1, r11
	cmp	r9, r11
	it	gt
	movgt	r1, r9
	subs	r2, r6, r4
	mla	r0, r2, r0, r1
	sub.w	r1, r1, r11
	ldr	r2, [sp]                        @ 4-byte Reload
	add	r1, r8
	sub.w	r0, r0, r9
	subs	r5, r1, #1
	add	r0, r2
	subs	r4, r0, #1
.Ltmp604:
	.p2align	2
.LBB18_7:                               @ =>This Inner Loop Header: Depth=1
	@DEBUG_VALUE: lv_draw_mask_map:abs_x <- $r11
	@DEBUG_VALUE: lv_draw_mask_map:abs_y <- $r6
	@DEBUG_VALUE: lv_draw_mask_map:p <- [DW_OP_plus_uconst 40] [$sp+0]
	@DEBUG_VALUE: lv_draw_mask_map:i <- undef
	.loc	6 1200 32                       @ lvgl/src/lv_draw/lv_draw_mask.c:1200:32
	ldrb	r0, [r5, #1]!
	.loc	6 1200 45 is_stmt 0             @ lvgl/src/lv_draw/lv_draw_mask.c:1200:45
	ldrb	r1, [r4, #1]!
	.loc	6 1200 23                       @ lvgl/src/lv_draw/lv_draw_mask.c:1200:23
	bl	mask_mix
.Ltmp605:
	.loc	6 1199 18 is_stmt 1             @ lvgl/src/lv_draw/lv_draw_mask.c:1199:18
	subs	r7, #1
.Ltmp606:
	.loc	6 1200 21                       @ lvgl/src/lv_draw/lv_draw_mask.c:1200:21
	strb	r0, [r5]
.Ltmp607:
	@DEBUG_VALUE: lv_draw_mask_map:i <- [DW_OP_plus_uconst 1, DW_OP_stack_value] undef
	.loc	6 1199 5                        @ lvgl/src/lv_draw/lv_draw_mask.c:1199:5
	bne	.LBB18_7
.Ltmp608:
.LBB18_8:
	@DEBUG_VALUE: lv_draw_mask_map:abs_x <- $r11
	@DEBUG_VALUE: lv_draw_mask_map:abs_y <- $r6
	@DEBUG_VALUE: lv_draw_mask_map:p <- [DW_OP_plus_uconst 40] [$sp+0]
	.loc	6 0 5 is_stmt 0                 @ lvgl/src/lv_draw/lv_draw_mask.c:0:5
	movs	r0, #2
	.loc	6 1204 1 is_stmt 1              @ lvgl/src/lv_draw/lv_draw_mask.c:1204:1
	add	sp, #4
	pop.w	{r4, r5, r6, r7, r8, r9, r10, r11, pc}
.Ltmp609:
.Lfunc_end18:
	.size	lv_draw_mask_map, .Lfunc_end18-lv_draw_mask_map
	.cfi_endproc
	.cantunwind
	.fnend
                                        @ -- End function
	.section	.text._lv_memcpy_small,"ax",%progbits
	.p2align	3                               @ -- Begin function _lv_memcpy_small
	.type	_lv_memcpy_small,%function
	.code	16                              @ @_lv_memcpy_small
	.thumb_func
_lv_memcpy_small:
.Lfunc_begin19:
	.file	7 "E:\\Smart-access-control\\Hardware\\CODE" "lvgl/src/lv_draw/../lv_misc/lv_mem.h"
	.loc	7 214 0                         @ lvgl/src/lv_draw/../lv_misc/lv_mem.h:214:0
	.fnstart
	.cfi_startproc
@ %bb.0:
	@DEBUG_VALUE: _lv_memcpy_small:dst <- $r0
	@DEBUG_VALUE: _lv_memcpy_small:dst <- $r0
	@DEBUG_VALUE: _lv_memcpy_small:src <- $r1
	@DEBUG_VALUE: _lv_memcpy_small:src <- $r1
	@DEBUG_VALUE: _lv_memcpy_small:len <- 8
	@DEBUG_VALUE: _lv_memcpy_small:d8 <- $r0
	@DEBUG_VALUE: _lv_memcpy_small:d8 <- $r0
	@DEBUG_VALUE: _lv_memcpy_small:s8 <- $r1
	@DEBUG_VALUE: _lv_memcpy_small:s8 <- $r1
	.loc	7 218 5 prologue_end            @ lvgl/src/lv_draw/../lv_misc/lv_mem.h:218:5
	subs	r1, #1
.Ltmp610:
	@DEBUG_VALUE: _lv_memcpy_small:src <- [DW_OP_LLVM_entry_value 1] $r1
	.loc	7 0 5 is_stmt 0                 @ lvgl/src/lv_draw/../lv_misc/lv_mem.h:0:5
	mov.w	r2, #-1
.Ltmp611:
	.p2align	2
.LBB19_1:                               @ =>This Inner Loop Header: Depth=1
	@DEBUG_VALUE: _lv_memcpy_small:dst <- $r0
	@DEBUG_VALUE: _lv_memcpy_small:src <- [DW_OP_LLVM_entry_value 1] $r1
	@DEBUG_VALUE: _lv_memcpy_small:d8 <- undef
	@DEBUG_VALUE: _lv_memcpy_small:s8 <- [DW_OP_plus_uconst 1, DW_OP_stack_value] $r1
	@DEBUG_VALUE: _lv_memcpy_small:len <- undef
	.loc	7 219 15 is_stmt 1              @ lvgl/src/lv_draw/../lv_misc/lv_mem.h:219:15
	add.w	r12, r0, r2
.Ltmp612:
	.loc	7 218 5                         @ lvgl/src/lv_draw/../lv_misc/lv_mem.h:218:5
	adds	r2, #1
.Ltmp613:
	.loc	7 219 15                        @ lvgl/src/lv_draw/../lv_misc/lv_mem.h:219:15
	ldrb	r3, [r1, #1]!
.Ltmp614:
	.loc	7 218 5                         @ lvgl/src/lv_draw/../lv_misc/lv_mem.h:218:5
	cmp	r2, #7
.Ltmp615:
	.loc	7 219 13                        @ lvgl/src/lv_draw/../lv_misc/lv_mem.h:219:13
	strb.w	r3, [r12, #1]
.Ltmp616:
	@DEBUG_VALUE: _lv_memcpy_small:len <- [DW_OP_constu 1, DW_OP_minus, DW_OP_stack_value] undef
	@DEBUG_VALUE: _lv_memcpy_small:s8 <- [DW_OP_plus_uconst 2, DW_OP_stack_value] $r1
	@DEBUG_VALUE: _lv_memcpy_small:d8 <- [DW_OP_plus_uconst 1, DW_OP_stack_value] undef
	.loc	7 218 5                         @ lvgl/src/lv_draw/../lv_misc/lv_mem.h:218:5
	bne	.LBB19_1
.Ltmp617:
@ %bb.2:
	@DEBUG_VALUE: _lv_memcpy_small:s8 <- [DW_OP_plus_uconst 2, DW_OP_stack_value] $r1
	@DEBUG_VALUE: _lv_memcpy_small:dst <- $r0
	@DEBUG_VALUE: _lv_memcpy_small:src <- [DW_OP_LLVM_entry_value 1] $r1
	.loc	7 225 5                         @ lvgl/src/lv_draw/../lv_misc/lv_mem.h:225:5
	bx	lr
.Ltmp618:
.Lfunc_end19:
	.size	_lv_memcpy_small, .Lfunc_end19-_lv_memcpy_small
	.cfi_endproc
	.cantunwind
	.fnend
                                        @ -- End function
	.section	.text.line_mask_flat,"ax",%progbits
	.p2align	3                               @ -- Begin function line_mask_flat
	.type	line_mask_flat,%function
	.code	16                              @ @line_mask_flat
	.thumb_func
line_mask_flat:
.Lfunc_begin20:
	.loc	6 484 0                         @ lvgl/src/lv_draw/lv_draw_mask.c:484:0
	.fnstart
	.cfi_startproc
@ %bb.0:
	@DEBUG_VALUE: line_mask_flat:mask_buf <- $r0
	@DEBUG_VALUE: line_mask_flat:abs_x <- $r1
	@DEBUG_VALUE: line_mask_flat:abs_y <- $r2
	@DEBUG_VALUE: line_mask_flat:len <- $r3
	.save	{r4, r5, r6, r7, r8, r9, lr}
	push.w	{r4, r5, r6, r7, r8, r9, lr}
	.cfi_def_cfa_offset 28
	.cfi_offset lr, -4
	.cfi_offset r9, -8
	.cfi_offset r8, -12
	.cfi_offset r7, -16
	.cfi_offset r6, -20
	.cfi_offset r5, -24
	.cfi_offset r4, -28
	.pad	#4
	sub	sp, #4
	.cfi_def_cfa_offset 32
	ldr	r7, [sp, #32]
.Ltmp619:
	@DEBUG_VALUE: line_mask_flat:p <- [DW_OP_plus_uconst 32] [$sp+0]
	@DEBUG_VALUE: line_mask_flat:len <- undef
	mov	r5, r3
.Ltmp620:
	@DEBUG_VALUE: line_mask_flat:len <- $r5
	@DEBUG_VALUE: line_mask_flat:abs_y <- $r2
	mov	r9, r0
.Ltmp621:
	@DEBUG_VALUE: line_mask_flat:mask_buf <- $r9
	@DEBUG_VALUE: line_mask_flat:mask_buf <- $r9
	.loc	6 486 36 prologue_end           @ lvgl/src/lv_draw/lv_draw_mask.c:486:36
	ldr	r6, [r7, #28]
	@DEBUG_VALUE: line_mask_flat:abs_x <- $r1
	.loc	6 488 8                         @ lvgl/src/lv_draw/lv_draw_mask.c:488:8
	cmp	r6, #1
	.loc	6 486 45                        @ lvgl/src/lv_draw/lv_draw_mask.c:486:45
	mul	r4, r6, r1
	.loc	6 486 54 is_stmt 0              @ lvgl/src/lv_draw/lv_draw_mask.c:486:54
	asr.w	r0, r4, #10
.Ltmp622:
	@DEBUG_VALUE: line_mask_flat:y_at_x <- $r0
	.loc	6 488 8 is_stmt 1               @ lvgl/src/lv_draw/lv_draw_mask.c:488:8
	blt	.LBB20_3
.Ltmp623:
@ %bb.1:
	@DEBUG_VALUE: line_mask_flat:mask_buf <- $r9
	@DEBUG_VALUE: line_mask_flat:len <- $r5
	@DEBUG_VALUE: line_mask_flat:abs_y <- $r2
	@DEBUG_VALUE: line_mask_flat:abs_x <- $r1
	@DEBUG_VALUE: line_mask_flat:y_at_x <- $r0
	@DEBUG_VALUE: line_mask_flat:p <- [DW_OP_plus_uconst 32] [$sp+0]
	.loc	6 489 12                        @ lvgl/src/lv_draw/lv_draw_mask.c:489:12
	cmp	r0, r2
	ble	.LBB20_4
.Ltmp624:
.LBB20_2:
	@DEBUG_VALUE: line_mask_flat:mask_buf <- $r9
	@DEBUG_VALUE: line_mask_flat:len <- $r5
	@DEBUG_VALUE: line_mask_flat:abs_y <- $r2
	@DEBUG_VALUE: line_mask_flat:abs_x <- $r1
	@DEBUG_VALUE: line_mask_flat:y_at_x <- $r0
	@DEBUG_VALUE: line_mask_flat:p <- [DW_OP_plus_uconst 32] [$sp+0]
	.loc	6 0 0 is_stmt 0                 @ lvgl/src/lv_draw/lv_draw_mask.c:0:0
	ldrb.w	r0, [r7, #40]
.Ltmp625:
	ubfx	r0, r0, #1, #1
.Ltmp626:
	add	sp, #4
	pop.w	{r4, r5, r6, r7, r8, r9, pc}
.Ltmp627:
.LBB20_3:
	@DEBUG_VALUE: line_mask_flat:mask_buf <- $r9
	@DEBUG_VALUE: line_mask_flat:len <- $r5
	@DEBUG_VALUE: line_mask_flat:abs_y <- $r2
	@DEBUG_VALUE: line_mask_flat:abs_x <- $r1
	@DEBUG_VALUE: line_mask_flat:y_at_x <- $r0
	@DEBUG_VALUE: line_mask_flat:p <- [DW_OP_plus_uconst 32] [$sp+0]
	.loc	6 499 12 is_stmt 1              @ lvgl/src/lv_draw/lv_draw_mask.c:499:12
	cmp	r0, r2
	blt	.LBB20_2
.Ltmp628:
.LBB20_4:
	@DEBUG_VALUE: line_mask_flat:mask_buf <- $r9
	@DEBUG_VALUE: line_mask_flat:len <- $r5
	@DEBUG_VALUE: line_mask_flat:abs_y <- $r2
	@DEBUG_VALUE: line_mask_flat:abs_x <- $r1
	@DEBUG_VALUE: line_mask_flat:y_at_x <- $r0
	@DEBUG_VALUE: line_mask_flat:p <- [DW_OP_plus_uconst 32] [$sp+0]
	@DEBUG_VALUE: line_mask_flat:len <- $r5
	.loc	6 511 54                        @ lvgl/src/lv_draw/lv_draw_mask.c:511:54
	adds	r0, r5, r1
.Ltmp629:
	.loc	6 512 8                         @ lvgl/src/lv_draw/lv_draw_mask.c:512:8
	cmp	r6, #1
	.loc	6 511 45                        @ lvgl/src/lv_draw/lv_draw_mask.c:511:45
	mul	r0, r6, r0
	.loc	6 511 62 is_stmt 0              @ lvgl/src/lv_draw/lv_draw_mask.c:511:62
	asr.w	r0, r0, #10
.Ltmp630:
	@DEBUG_VALUE: line_mask_flat:y_at_x <- $r0
	.loc	6 512 8 is_stmt 1               @ lvgl/src/lv_draw/lv_draw_mask.c:512:8
	blt	.LBB20_7
.Ltmp631:
@ %bb.5:
	@DEBUG_VALUE: line_mask_flat:mask_buf <- $r9
	@DEBUG_VALUE: line_mask_flat:len <- $r5
	@DEBUG_VALUE: line_mask_flat:abs_y <- $r2
	@DEBUG_VALUE: line_mask_flat:abs_x <- $r1
	@DEBUG_VALUE: line_mask_flat:y_at_x <- $r0
	@DEBUG_VALUE: line_mask_flat:p <- [DW_OP_plus_uconst 32] [$sp+0]
	.loc	6 513 12                        @ lvgl/src/lv_draw/lv_draw_mask.c:513:12
	cmp	r0, r2
	bge	.LBB20_8
.Ltmp632:
.LBB20_6:
	@DEBUG_VALUE: line_mask_flat:mask_buf <- $r9
	@DEBUG_VALUE: line_mask_flat:len <- $r5
	@DEBUG_VALUE: line_mask_flat:abs_y <- $r2
	@DEBUG_VALUE: line_mask_flat:abs_x <- $r1
	@DEBUG_VALUE: line_mask_flat:y_at_x <- $r0
	@DEBUG_VALUE: line_mask_flat:p <- [DW_OP_plus_uconst 32] [$sp+0]
	.loc	6 0 0 is_stmt 0                 @ lvgl/src/lv_draw/lv_draw_mask.c:0:0
	ldrb.w	r0, [r7, #40]
.Ltmp633:
	movs	r1, #1
.Ltmp634:
	@DEBUG_VALUE: line_mask_flat:abs_x <- [DW_OP_LLVM_entry_value 1] $r1
	bic.w	r0, r1, r0, lsr #1
.Ltmp635:
	.loc	6 594 1 is_stmt 1               @ lvgl/src/lv_draw/lv_draw_mask.c:594:1
	add	sp, #4
	pop.w	{r4, r5, r6, r7, r8, r9, pc}
.Ltmp636:
.LBB20_7:
	@DEBUG_VALUE: line_mask_flat:mask_buf <- $r9
	@DEBUG_VALUE: line_mask_flat:len <- $r5
	@DEBUG_VALUE: line_mask_flat:abs_y <- $r2
	@DEBUG_VALUE: line_mask_flat:abs_x <- $r1
	@DEBUG_VALUE: line_mask_flat:y_at_x <- $r0
	@DEBUG_VALUE: line_mask_flat:p <- [DW_OP_plus_uconst 32] [$sp+0]
	.loc	6 523 12                        @ lvgl/src/lv_draw/lv_draw_mask.c:523:12
	cmp	r0, r2
	bgt	.LBB20_6
.Ltmp637:
.LBB20_8:
	@DEBUG_VALUE: line_mask_flat:mask_buf <- $r9
	@DEBUG_VALUE: line_mask_flat:len <- $r5
	@DEBUG_VALUE: line_mask_flat:abs_y <- $r2
	@DEBUG_VALUE: line_mask_flat:abs_x <- $r1
	@DEBUG_VALUE: line_mask_flat:y_at_x <- $r0
	@DEBUG_VALUE: line_mask_flat:p <- [DW_OP_plus_uconst 32] [$sp+0]
	@DEBUG_VALUE: line_mask_flat:len <- $r5
	.loc	6 534 8                         @ lvgl/src/lv_draw/lv_draw_mask.c:534:8
	cmp	r6, #1
.Ltmp638:
	.loc	6 0 0 is_stmt 0                 @ lvgl/src/lv_draw/lv_draw_mask.c:0:0
	lsl.w	r0, r2, #8
.Ltmp639:
	.loc	6 534 8                         @ lvgl/src/lv_draw/lv_draw_mask.c:534:8
	blt	.LBB20_10
.Ltmp640:
@ %bb.9:
	@DEBUG_VALUE: line_mask_flat:mask_buf <- $r9
	@DEBUG_VALUE: line_mask_flat:len <- $r5
	@DEBUG_VALUE: line_mask_flat:abs_y <- $r2
	@DEBUG_VALUE: line_mask_flat:abs_x <- $r1
	@DEBUG_VALUE: line_mask_flat:p <- [DW_OP_plus_uconst 32] [$sp+0]
	.loc	6 534 49                        @ lvgl/src/lv_draw/lv_draw_mask.c:534:49
	ldr	r2, [r7, #24]
.Ltmp641:
	@DEBUG_VALUE: line_mask_flat:abs_y <- [DW_OP_LLVM_entry_value 1] $r2
	@DEBUG_VALUE: line_mask_flat:xe <- [DW_OP_constu 10, DW_OP_shra, DW_OP_stack_value] undef
	.loc	6 0 49                          @ lvgl/src/lv_draw/lv_draw_mask.c:0:49
	b	.LBB20_11
.Ltmp642:
.LBB20_10:
	@DEBUG_VALUE: line_mask_flat:mask_buf <- $r9
	@DEBUG_VALUE: line_mask_flat:len <- $r5
	@DEBUG_VALUE: line_mask_flat:abs_y <- $r2
	@DEBUG_VALUE: line_mask_flat:abs_x <- $r1
	@DEBUG_VALUE: line_mask_flat:p <- [DW_OP_plus_uconst 32] [$sp+0]
	.loc	6 535 29 is_stmt 1              @ lvgl/src/lv_draw/lv_draw_mask.c:535:29
	add.w	r2, r0, #256
.Ltmp643:
	@DEBUG_VALUE: line_mask_flat:abs_y <- [DW_OP_LLVM_entry_value 1] $r2
	.loc	6 535 40 is_stmt 0              @ lvgl/src/lv_draw/lv_draw_mask.c:535:40
	ldr	r0, [r7, #24]
.Ltmp644:
.LBB20_11:
	@DEBUG_VALUE: line_mask_flat:mask_buf <- $r9
	@DEBUG_VALUE: line_mask_flat:len <- $r5
	@DEBUG_VALUE: line_mask_flat:abs_x <- $r1
	@DEBUG_VALUE: line_mask_flat:p <- [DW_OP_plus_uconst 32] [$sp+0]
	@DEBUG_VALUE: line_mask_flat:abs_y <- [DW_OP_LLVM_entry_value 1] $r2
	@DEBUG_VALUE: line_mask_flat:len <- $r5
	.loc	6 0 0                           @ lvgl/src/lv_draw/lv_draw_mask.c:0:0
	muls	r2, r0, r2
.Ltmp645:
	@DEBUG_VALUE: line_mask_flat:xe <- [DW_OP_constu 10, DW_OP_shra, DW_OP_stack_value] $r2
	movs	r6, #255
.Ltmp646:
	.loc	6 538 22 is_stmt 1              @ lvgl/src/lv_draw/lv_draw_mask.c:538:22
	ubfx	r0, r2, #10, #8
.Ltmp647:
	@DEBUG_VALUE: line_mask_flat:xef <- $r0
	.loc	6 537 22                        @ lvgl/src/lv_draw/lv_draw_mask.c:537:22
	asr.w	r2, r2, #18
.Ltmp648:
	@DEBUG_VALUE: line_mask_flat:xei <- $r2
	.loc	6 541 8                         @ lvgl/src/lv_draw/lv_draw_mask.c:541:8
	cbz	r0, .LBB20_13
.Ltmp649:
@ %bb.12:
	@DEBUG_VALUE: line_mask_flat:mask_buf <- $r9
	@DEBUG_VALUE: line_mask_flat:len <- $r5
	@DEBUG_VALUE: line_mask_flat:xei <- $r2
	@DEBUG_VALUE: line_mask_flat:abs_x <- $r1
	@DEBUG_VALUE: line_mask_flat:xef <- $r0
	@DEBUG_VALUE: line_mask_flat:p <- [DW_OP_plus_uconst 32] [$sp+0]
	@DEBUG_VALUE: line_mask_flat:abs_y <- [DW_OP_LLVM_entry_value 1] $r2
	.loc	6 542 42                        @ lvgl/src/lv_draw/lv_draw_mask.c:542:42
	ldr	r3, [r7, #36]
	.loc	6 542 30 is_stmt 0              @ lvgl/src/lv_draw/lv_draw_mask.c:542:30
	eor	r4, r0, #255
	.loc	6 542 37                        @ lvgl/src/lv_draw/lv_draw_mask.c:542:37
	muls	r3, r4, r3
	.loc	6 542 21                        @ lvgl/src/lv_draw/lv_draw_mask.c:542:21
	sub.w	r6, r6, r3, asr #8
.Ltmp650:
	@DEBUG_VALUE: line_mask_flat:px_h <- $r6
.LBB20_13:
	@DEBUG_VALUE: line_mask_flat:mask_buf <- $r9
	@DEBUG_VALUE: line_mask_flat:len <- $r5
	@DEBUG_VALUE: line_mask_flat:xei <- $r2
	@DEBUG_VALUE: line_mask_flat:abs_x <- $r1
	@DEBUG_VALUE: line_mask_flat:xef <- $r0
	@DEBUG_VALUE: line_mask_flat:p <- [DW_OP_plus_uconst 32] [$sp+0]
	@DEBUG_VALUE: line_mask_flat:abs_y <- [DW_OP_LLVM_entry_value 1] $r2
	@DEBUG_VALUE: line_mask_flat:len <- $r5
	@DEBUG_VALUE: line_mask_flat:px_h <- $r6
	.loc	6 543 21 is_stmt 1              @ lvgl/src/lv_draw/lv_draw_mask.c:543:21
	sub.w	r8, r2, r1
.Ltmp651:
	@DEBUG_VALUE: line_mask_flat:k <- $r8
	.loc	6 0 0 is_stmt 0                 @ lvgl/src/lv_draw/lv_draw_mask.c:0:0
	mov	r4, r8
	.loc	6 546 8 is_stmt 1               @ lvgl/src/lv_draw/lv_draw_mask.c:546:8
	cbz	r0, .LBB20_19
.Ltmp652:
@ %bb.14:
	@DEBUG_VALUE: line_mask_flat:mask_buf <- $r9
	@DEBUG_VALUE: line_mask_flat:k <- $r8
	@DEBUG_VALUE: line_mask_flat:px_h <- $r6
	@DEBUG_VALUE: line_mask_flat:len <- $r5
	@DEBUG_VALUE: line_mask_flat:xei <- $r2
	@DEBUG_VALUE: line_mask_flat:abs_x <- $r1
	@DEBUG_VALUE: line_mask_flat:xef <- $r0
	@DEBUG_VALUE: line_mask_flat:p <- [DW_OP_plus_uconst 32] [$sp+0]
	@DEBUG_VALUE: line_mask_flat:abs_y <- [DW_OP_LLVM_entry_value 1] $r2
	.loc	6 547 19                        @ lvgl/src/lv_draw/lv_draw_mask.c:547:19
	cmp.w	r8, #0
	bmi	.LBB20_17
.Ltmp653:
@ %bb.15:
	@DEBUG_VALUE: line_mask_flat:mask_buf <- $r9
	@DEBUG_VALUE: line_mask_flat:k <- $r8
	@DEBUG_VALUE: line_mask_flat:px_h <- $r6
	@DEBUG_VALUE: line_mask_flat:len <- $r5
	@DEBUG_VALUE: line_mask_flat:xei <- $r2
	@DEBUG_VALUE: line_mask_flat:abs_x <- $r1
	@DEBUG_VALUE: line_mask_flat:xef <- $r0
	@DEBUG_VALUE: line_mask_flat:p <- [DW_OP_plus_uconst 32] [$sp+0]
	@DEBUG_VALUE: line_mask_flat:abs_y <- [DW_OP_LLVM_entry_value 1] $r2
	cmp	r8, r5
	bge	.LBB20_17
.Ltmp654:
@ %bb.16:
	@DEBUG_VALUE: line_mask_flat:mask_buf <- $r9
	@DEBUG_VALUE: line_mask_flat:k <- $r8
	@DEBUG_VALUE: line_mask_flat:px_h <- $r6
	@DEBUG_VALUE: line_mask_flat:len <- $r5
	@DEBUG_VALUE: line_mask_flat:xei <- $r2
	@DEBUG_VALUE: line_mask_flat:abs_x <- $r1
	@DEBUG_VALUE: line_mask_flat:xef <- $r0
	@DEBUG_VALUE: line_mask_flat:p <- [DW_OP_plus_uconst 32] [$sp+0]
	@DEBUG_VALUE: line_mask_flat:abs_y <- [DW_OP_LLVM_entry_value 1] $r2
	.loc	6 549 19                        @ lvgl/src/lv_draw/lv_draw_mask.c:549:19
	ldrb.w	r1, [r7, #40]
.Ltmp655:
	@DEBUG_VALUE: line_mask_flat:abs_x <- [DW_OP_LLVM_entry_value 1] $r1
	.loc	6 548 30                        @ lvgl/src/lv_draw/lv_draw_mask.c:548:30
	eor	r0, r0, #255
.Ltmp656:
	.loc	6 548 44 is_stmt 0              @ lvgl/src/lv_draw/lv_draw_mask.c:548:44
	rsb.w	r2, r6, #255
.Ltmp657:
	.loc	6 548 37                        @ lvgl/src/lv_draw/lv_draw_mask.c:548:37
	muls	r0, r2, r0
.Ltmp658:
	@DEBUG_VALUE: line_mask_flat:m <- [DW_OP_constu 18446744073709551615, DW_OP_xor, DW_OP_stack_value] undef
	.loc	6 549 16 is_stmt 1              @ lvgl/src/lv_draw/lv_draw_mask.c:549:16
	ubfx	r1, r1, #1, #1
	subs	r1, #1
	eor.w	r1, r1, r0, lsr #9
.Ltmp659:
	@DEBUG_VALUE: line_mask_flat:m <- $r1
	.loc	6 550 36                        @ lvgl/src/lv_draw/lv_draw_mask.c:550:36
	ldrb.w	r0, [r9, r8]
	.loc	6 550 27 is_stmt 0              @ lvgl/src/lv_draw/lv_draw_mask.c:550:27
	uxtb	r1, r1
.Ltmp660:
	bl	mask_mix
	.loc	6 550 25                        @ lvgl/src/lv_draw/lv_draw_mask.c:550:25
	strb.w	r0, [r9, r8]
.Ltmp661:
.LBB20_17:
	@DEBUG_VALUE: line_mask_flat:mask_buf <- $r9
	@DEBUG_VALUE: line_mask_flat:k <- $r8
	@DEBUG_VALUE: line_mask_flat:px_h <- $r6
	@DEBUG_VALUE: line_mask_flat:len <- $r5
	@DEBUG_VALUE: line_mask_flat:p <- [DW_OP_plus_uconst 32] [$sp+0]
	@DEBUG_VALUE: line_mask_flat:abs_y <- [DW_OP_LLVM_entry_value 1] $r2
	.loc	6 552 10 is_stmt 1              @ lvgl/src/lv_draw/lv_draw_mask.c:552:10
	add.w	r4, r8, #1
.Ltmp662:
	@DEBUG_VALUE: line_mask_flat:k <- $r4
	@DEBUG_VALUE: line_mask_flat:k <- $r4
	.loc	6 0 10 is_stmt 0                @ lvgl/src/lv_draw/lv_draw_mask.c:0:10
	b	.LBB20_19
.Ltmp663:
	.p2align	2
.LBB20_18:                              @   in Loop: Header=BB20_19 Depth=1
	@DEBUG_VALUE: line_mask_flat:mask_buf <- $r9
	@DEBUG_VALUE: line_mask_flat:px_h <- $r6
	@DEBUG_VALUE: line_mask_flat:len <- $r5
	@DEBUG_VALUE: line_mask_flat:k <- $r4
	@DEBUG_VALUE: line_mask_flat:p <- [DW_OP_plus_uconst 32] [$sp+0]
	@DEBUG_VALUE: line_mask_flat:abs_y <- [DW_OP_LLVM_entry_value 1] $r2
	.loc	6 562 10 is_stmt 1              @ lvgl/src/lv_draw/lv_draw_mask.c:562:10
	adds	r4, #1
.Ltmp664:
	@DEBUG_VALUE: line_mask_flat:k <- $r4
	.loc	6 561 20                        @ lvgl/src/lv_draw/lv_draw_mask.c:561:20
	ldr	r0, [r7, #36]
	.loc	6 563 12                        @ lvgl/src/lv_draw/lv_draw_mask.c:563:12
	cmp	r4, r5
	.loc	6 561 14                        @ lvgl/src/lv_draw/lv_draw_mask.c:561:14
	sub.w	r6, r6, r0
.Ltmp665:
	@DEBUG_VALUE: line_mask_flat:px_h <- $r6
	.loc	6 563 12                        @ lvgl/src/lv_draw/lv_draw_mask.c:563:12
	bge	.LBB20_23
.Ltmp666:
.LBB20_19:                              @ =>This Inner Loop Header: Depth=1
	@DEBUG_VALUE: line_mask_flat:mask_buf <- $r9
	@DEBUG_VALUE: line_mask_flat:px_h <- $r6
	@DEBUG_VALUE: line_mask_flat:len <- $r5
	@DEBUG_VALUE: line_mask_flat:p <- [DW_OP_plus_uconst 32] [$sp+0]
	@DEBUG_VALUE: line_mask_flat:abs_y <- [DW_OP_LLVM_entry_value 1] $r2
	@DEBUG_VALUE: line_mask_flat:px_h <- $r6
	@DEBUG_VALUE: line_mask_flat:k <- $r4
	.loc	6 555 21                        @ lvgl/src/lv_draw/lv_draw_mask.c:555:21
	ldr	r0, [r7, #36]
	.loc	6 555 5 is_stmt 0               @ lvgl/src/lv_draw/lv_draw_mask.c:555:5
	cmp	r6, r0
	ble	.LBB20_23
.Ltmp667:
@ %bb.20:                               @   in Loop: Header=BB20_19 Depth=1
	@DEBUG_VALUE: line_mask_flat:mask_buf <- $r9
	@DEBUG_VALUE: line_mask_flat:px_h <- $r6
	@DEBUG_VALUE: line_mask_flat:len <- $r5
	@DEBUG_VALUE: line_mask_flat:k <- $r4
	@DEBUG_VALUE: line_mask_flat:p <- [DW_OP_plus_uconst 32] [$sp+0]
	@DEBUG_VALUE: line_mask_flat:abs_y <- [DW_OP_LLVM_entry_value 1] $r2
	.loc	6 556 19 is_stmt 1              @ lvgl/src/lv_draw/lv_draw_mask.c:556:19
	cmp	r4, #0
	bmi	.LBB20_18
.Ltmp668:
@ %bb.21:                               @   in Loop: Header=BB20_19 Depth=1
	@DEBUG_VALUE: line_mask_flat:mask_buf <- $r9
	@DEBUG_VALUE: line_mask_flat:px_h <- $r6
	@DEBUG_VALUE: line_mask_flat:len <- $r5
	@DEBUG_VALUE: line_mask_flat:k <- $r4
	@DEBUG_VALUE: line_mask_flat:p <- [DW_OP_plus_uconst 32] [$sp+0]
	@DEBUG_VALUE: line_mask_flat:abs_y <- [DW_OP_LLVM_entry_value 1] $r2
	cmp	r4, r5
	bge	.LBB20_18
.Ltmp669:
@ %bb.22:                               @   in Loop: Header=BB20_19 Depth=1
	@DEBUG_VALUE: line_mask_flat:mask_buf <- $r9
	@DEBUG_VALUE: line_mask_flat:px_h <- $r6
	@DEBUG_VALUE: line_mask_flat:len <- $r5
	@DEBUG_VALUE: line_mask_flat:k <- $r4
	@DEBUG_VALUE: line_mask_flat:p <- [DW_OP_plus_uconst 32] [$sp+0]
	@DEBUG_VALUE: line_mask_flat:abs_y <- [DW_OP_LLVM_entry_value 1] $r2
	.loc	6 558 19                        @ lvgl/src/lv_draw/lv_draw_mask.c:558:19
	ldrb.w	r1, [r7, #40]
.Ltmp670:
	.loc	6 557 22                        @ lvgl/src/lv_draw/lv_draw_mask.c:557:22
	sub.w	r0, r6, r0, lsr #1
.Ltmp671:
	@DEBUG_VALUE: line_mask_flat:m <- $r0
	.loc	6 558 16                        @ lvgl/src/lv_draw/lv_draw_mask.c:558:16
	lsls	r1, r1, #6
	sxtb	r1, r1
	eor.w	r1, r0, r1, lsr #7
.Ltmp672:
	@DEBUG_VALUE: line_mask_flat:m <- $r1
	.loc	6 559 36                        @ lvgl/src/lv_draw/lv_draw_mask.c:559:36
	ldrb.w	r0, [r9, r4]
	.loc	6 559 27 is_stmt 0              @ lvgl/src/lv_draw/lv_draw_mask.c:559:27
	uxtb	r1, r1
.Ltmp673:
	bl	mask_mix
	.loc	6 559 25                        @ lvgl/src/lv_draw/lv_draw_mask.c:559:25
	strb.w	r0, [r9, r4]
	b	.LBB20_18
.Ltmp674:
.LBB20_23:
	@DEBUG_VALUE: line_mask_flat:mask_buf <- $r9
	@DEBUG_VALUE: line_mask_flat:px_h <- $r6
	@DEBUG_VALUE: line_mask_flat:len <- $r5
	@DEBUG_VALUE: line_mask_flat:k <- $r4
	@DEBUG_VALUE: line_mask_flat:p <- [DW_OP_plus_uconst 32] [$sp+0]
	@DEBUG_VALUE: line_mask_flat:abs_y <- [DW_OP_LLVM_entry_value 1] $r2
	@DEBUG_VALUE: line_mask_flat:px_h <- $r6
	@DEBUG_VALUE: line_mask_flat:k <- $r4
	.loc	6 566 16 is_stmt 1              @ lvgl/src/lv_draw/lv_draw_mask.c:566:16
	cmp	r4, r5
	bge	.LBB20_26
.Ltmp675:
@ %bb.24:
	@DEBUG_VALUE: line_mask_flat:mask_buf <- $r9
	@DEBUG_VALUE: line_mask_flat:px_h <- $r6
	@DEBUG_VALUE: line_mask_flat:len <- $r5
	@DEBUG_VALUE: line_mask_flat:k <- $r4
	@DEBUG_VALUE: line_mask_flat:p <- [DW_OP_plus_uconst 32] [$sp+0]
	@DEBUG_VALUE: line_mask_flat:abs_y <- [DW_OP_LLVM_entry_value 1] $r2
	cmp	r4, #0
	bmi	.LBB20_26
.Ltmp676:
@ %bb.25:
	@DEBUG_VALUE: line_mask_flat:mask_buf <- $r9
	@DEBUG_VALUE: line_mask_flat:px_h <- $r6
	@DEBUG_VALUE: line_mask_flat:len <- $r5
	@DEBUG_VALUE: line_mask_flat:k <- $r4
	@DEBUG_VALUE: line_mask_flat:p <- [DW_OP_plus_uconst 32] [$sp+0]
	@DEBUG_VALUE: line_mask_flat:abs_y <- [DW_OP_LLVM_entry_value 1] $r2
	.loc	6 567 39                        @ lvgl/src/lv_draw/lv_draw_mask.c:567:39
	ldr	r0, [r7, #24]
.Ltmp677:
	.loc	6 569 15                        @ lvgl/src/lv_draw/lv_draw_mask.c:569:15
	ldr	r2, [r7, #28]
.Ltmp678:
	.loc	6 570 15                        @ lvgl/src/lv_draw/lv_draw_mask.c:570:15
	ldrb.w	r1, [r7, #40]
.Ltmp679:
	.loc	6 567 34                        @ lvgl/src/lv_draw/lv_draw_mask.c:567:34
	muls	r0, r6, r0
	.loc	6 570 12                        @ lvgl/src/lv_draw/lv_draw_mask.c:570:12
	lsls	r1, r1, #6
	sxtb	r1, r1
	.loc	6 567 49                        @ lvgl/src/lv_draw/lv_draw_mask.c:567:49
	lsrs	r0, r0, #10
.Ltmp680:
	@DEBUG_VALUE: x_inters <- $r0
	.loc	6 568 23                        @ lvgl/src/lv_draw/lv_draw_mask.c:568:23
	muls	r0, r6, r0
.Ltmp681:
	.loc	6 568 31 is_stmt 0              @ lvgl/src/lv_draw/lv_draw_mask.c:568:31
	lsrs	r0, r0, #9
.Ltmp682:
	@DEBUG_VALUE: line_mask_flat:m <- [DW_OP_LLVM_convert 32 7, DW_OP_LLVM_convert 8 7, DW_OP_stack_value] $r0
	.loc	6 569 12 is_stmt 1              @ lvgl/src/lv_draw/lv_draw_mask.c:569:12
	eor.w	r0, r0, r2, asr #31
.Ltmp683:
	@DEBUG_VALUE: line_mask_flat:m <- $r0
	.loc	6 570 12                        @ lvgl/src/lv_draw/lv_draw_mask.c:570:12
	eor.w	r1, r0, r1, lsr #7
.Ltmp684:
	@DEBUG_VALUE: line_mask_flat:m <- $r1
	.loc	6 571 32                        @ lvgl/src/lv_draw/lv_draw_mask.c:571:32
	ldrb.w	r0, [r9, r4]
	.loc	6 571 23 is_stmt 0              @ lvgl/src/lv_draw/lv_draw_mask.c:571:23
	uxtb	r1, r1
.Ltmp685:
	bl	mask_mix
	.loc	6 571 21                        @ lvgl/src/lv_draw/lv_draw_mask.c:571:21
	strb.w	r0, [r9, r4]
.Ltmp686:
.LBB20_26:
	@DEBUG_VALUE: line_mask_flat:mask_buf <- $r9
	@DEBUG_VALUE: line_mask_flat:px_h <- $r6
	@DEBUG_VALUE: line_mask_flat:len <- $r5
	@DEBUG_VALUE: line_mask_flat:k <- $r4
	@DEBUG_VALUE: line_mask_flat:p <- [DW_OP_plus_uconst 32] [$sp+0]
	@DEBUG_VALUE: line_mask_flat:abs_y <- [DW_OP_LLVM_entry_value 1] $r2
	.loc	6 574 11 is_stmt 1              @ lvgl/src/lv_draw/lv_draw_mask.c:574:11
	ldrb.w	r0, [r7, #40]
.Ltmp687:
	.loc	6 574 8 is_stmt 0               @ lvgl/src/lv_draw/lv_draw_mask.c:574:8
	lsls	r0, r0, #30
	bmi	.LBB20_31
.Ltmp688:
@ %bb.27:
	@DEBUG_VALUE: line_mask_flat:mask_buf <- $r9
	@DEBUG_VALUE: line_mask_flat:px_h <- $r6
	@DEBUG_VALUE: line_mask_flat:len <- $r5
	@DEBUG_VALUE: line_mask_flat:k <- $r4
	@DEBUG_VALUE: line_mask_flat:p <- [DW_OP_plus_uconst 32] [$sp+0]
	@DEBUG_VALUE: line_mask_flat:abs_y <- [DW_OP_LLVM_entry_value 1] $r2
	.loc	6 0 8                           @ lvgl/src/lv_draw/lv_draw_mask.c:0:8
	movs	r0, #0
.Ltmp689:
	.loc	6 566 10 is_stmt 1              @ lvgl/src/lv_draw/lv_draw_mask.c:566:10
	cmn.w	r4, #2
	it	gt
	movgt	r0, #1
.Ltmp690:
	@DEBUG_VALUE: line_mask_flat:k <- undef
	.loc	6 585 12                        @ lvgl/src/lv_draw/lv_draw_mask.c:585:12
	cmp.w	r4, #-1
	lsl.w	r0, r0, #1
	blt	.LBB20_30
.Ltmp691:
@ %bb.28:
	@DEBUG_VALUE: line_mask_flat:mask_buf <- $r9
	@DEBUG_VALUE: line_mask_flat:px_h <- $r6
	@DEBUG_VALUE: line_mask_flat:len <- $r5
	@DEBUG_VALUE: line_mask_flat:p <- [DW_OP_plus_uconst 32] [$sp+0]
	@DEBUG_VALUE: line_mask_flat:abs_y <- [DW_OP_LLVM_entry_value 1] $r2
	@DEBUG_VALUE: line_mask_flat:k <- undef
	cmp	r4, r5
	bge	.LBB20_30
.Ltmp692:
@ %bb.29:
	@DEBUG_VALUE: line_mask_flat:mask_buf <- $r9
	@DEBUG_VALUE: line_mask_flat:px_h <- $r6
	@DEBUG_VALUE: line_mask_flat:len <- $r5
	@DEBUG_VALUE: line_mask_flat:p <- [DW_OP_plus_uconst 32] [$sp+0]
	@DEBUG_VALUE: line_mask_flat:abs_y <- [DW_OP_LLVM_entry_value 1] $r2
	.loc	6 0 0 is_stmt 0                 @ lvgl/src/lv_draw/lv_draw_mask.c:0:0
	adds	r1, r4, #1
.Ltmp693:
	@DEBUG_VALUE: line_mask_flat:k <- $r1
	.loc	6 589 28 is_stmt 1              @ lvgl/src/lv_draw/lv_draw_mask.c:589:28
	add.w	r0, r9, r1
	.loc	6 589 45 is_stmt 0              @ lvgl/src/lv_draw/lv_draw_mask.c:589:45
	subs	r1, r5, r1
.Ltmp694:
	.loc	6 589 13                        @ lvgl/src/lv_draw/lv_draw_mask.c:589:13
	bl	_lv_memset_00
	movs	r0, #2
.Ltmp695:
.LBB20_30:
	@DEBUG_VALUE: line_mask_flat:mask_buf <- $r9
	@DEBUG_VALUE: line_mask_flat:px_h <- $r6
	@DEBUG_VALUE: line_mask_flat:len <- $r5
	@DEBUG_VALUE: line_mask_flat:p <- [DW_OP_plus_uconst 32] [$sp+0]
	@DEBUG_VALUE: line_mask_flat:abs_y <- [DW_OP_LLVM_entry_value 1] $r2
	.loc	6 594 1 is_stmt 1               @ lvgl/src/lv_draw/lv_draw_mask.c:594:1
	add	sp, #4
	pop.w	{r4, r5, r6, r7, r8, r9, pc}
.Ltmp696:
.LBB20_31:
	@DEBUG_VALUE: line_mask_flat:mask_buf <- $r9
	@DEBUG_VALUE: line_mask_flat:px_h <- $r6
	@DEBUG_VALUE: line_mask_flat:len <- $r5
	@DEBUG_VALUE: line_mask_flat:k <- $r4
	@DEBUG_VALUE: line_mask_flat:p <- [DW_OP_plus_uconst 32] [$sp+0]
	@DEBUG_VALUE: line_mask_flat:abs_y <- [DW_OP_LLVM_entry_value 1] $r2
	@DEBUG_VALUE: line_mask_flat:k <- $r8
	.loc	6 576 12                        @ lvgl/src/lv_draw/lv_draw_mask.c:576:12
	cmp	r8, r5
	ble	.LBB20_33
.Ltmp697:
@ %bb.32:
	@DEBUG_VALUE: line_mask_flat:mask_buf <- $r9
	@DEBUG_VALUE: line_mask_flat:k <- $r8
	@DEBUG_VALUE: line_mask_flat:px_h <- $r6
	@DEBUG_VALUE: line_mask_flat:len <- $r5
	@DEBUG_VALUE: line_mask_flat:p <- [DW_OP_plus_uconst 32] [$sp+0]
	@DEBUG_VALUE: line_mask_flat:abs_y <- [DW_OP_LLVM_entry_value 1] $r2
	.loc	6 0 12 is_stmt 0                @ lvgl/src/lv_draw/lv_draw_mask.c:0:12
	movs	r0, #0
	.loc	6 594 1 is_stmt 1               @ lvgl/src/lv_draw/lv_draw_mask.c:594:1
	add	sp, #4
	pop.w	{r4, r5, r6, r7, r8, r9, pc}
.Ltmp698:
.LBB20_33:
	@DEBUG_VALUE: line_mask_flat:mask_buf <- $r9
	@DEBUG_VALUE: line_mask_flat:k <- $r8
	@DEBUG_VALUE: line_mask_flat:px_h <- $r6
	@DEBUG_VALUE: line_mask_flat:len <- $r5
	@DEBUG_VALUE: line_mask_flat:p <- [DW_OP_plus_uconst 32] [$sp+0]
	@DEBUG_VALUE: line_mask_flat:abs_y <- [DW_OP_LLVM_entry_value 1] $r2
	.loc	6 579 12                        @ lvgl/src/lv_draw/lv_draw_mask.c:579:12
	cmp.w	r8, #0
	bmi	.LBB20_35
.Ltmp699:
@ %bb.34:
	@DEBUG_VALUE: line_mask_flat:mask_buf <- $r9
	@DEBUG_VALUE: line_mask_flat:k <- $r8
	@DEBUG_VALUE: line_mask_flat:px_h <- $r6
	@DEBUG_VALUE: line_mask_flat:len <- $r5
	@DEBUG_VALUE: line_mask_flat:p <- [DW_OP_plus_uconst 32] [$sp+0]
	@DEBUG_VALUE: line_mask_flat:abs_y <- [DW_OP_LLVM_entry_value 1] $r2
	.loc	6 580 13                        @ lvgl/src/lv_draw/lv_draw_mask.c:580:13
	mov	r0, r9
	mov	r1, r8
	bl	_lv_memset_00
.Ltmp700:
.LBB20_35:
	@DEBUG_VALUE: line_mask_flat:mask_buf <- $r9
	@DEBUG_VALUE: line_mask_flat:k <- $r8
	@DEBUG_VALUE: line_mask_flat:px_h <- $r6
	@DEBUG_VALUE: line_mask_flat:len <- $r5
	@DEBUG_VALUE: line_mask_flat:p <- [DW_OP_plus_uconst 32] [$sp+0]
	@DEBUG_VALUE: line_mask_flat:abs_y <- [DW_OP_LLVM_entry_value 1] $r2
	.loc	6 0 13 is_stmt 0                @ lvgl/src/lv_draw/lv_draw_mask.c:0:13
	movs	r0, #2
	.loc	6 594 1 is_stmt 1               @ lvgl/src/lv_draw/lv_draw_mask.c:594:1
	add	sp, #4
	pop.w	{r4, r5, r6, r7, r8, r9, pc}
.Ltmp701:
.Lfunc_end20:
	.size	line_mask_flat, .Lfunc_end20-line_mask_flat
	.cfi_endproc
	.cantunwind
	.fnend
                                        @ -- End function
	.section	.text.line_mask_steep,"ax",%progbits
	.p2align	3                               @ -- Begin function line_mask_steep
	.type	line_mask_steep,%function
	.code	16                              @ @line_mask_steep
	.thumb_func
line_mask_steep:
.Lfunc_begin21:
	.loc	6 599 0                         @ lvgl/src/lv_draw/lv_draw_mask.c:599:0
	.fnstart
	.cfi_startproc
@ %bb.0:
	@DEBUG_VALUE: line_mask_steep:mask_buf <- $r0
	@DEBUG_VALUE: line_mask_steep:abs_x <- $r1
	@DEBUG_VALUE: line_mask_steep:abs_y <- $r2
	@DEBUG_VALUE: line_mask_steep:len <- $r3
	.save	{r4, r5, r6, r7, r8, r9, r10, r11, lr}
	push.w	{r4, r5, r6, r7, r8, r9, r10, r11, lr}
	.cfi_def_cfa_offset 36
	.cfi_offset lr, -4
	.cfi_offset r11, -8
	.cfi_offset r10, -12
	.cfi_offset r9, -16
	.cfi_offset r8, -20
	.cfi_offset r7, -24
	.cfi_offset r6, -28
	.cfi_offset r5, -32
	.cfi_offset r4, -36
	.pad	#4
	sub	sp, #4
	.cfi_def_cfa_offset 40
	ldr.w	r11, [sp, #40]
.Ltmp702:
	@DEBUG_VALUE: line_mask_steep:p <- [DW_OP_plus_uconst 40] [$sp+0]
	@DEBUG_VALUE: line_mask_steep:len <- undef
	mov.w	r12, #1
.Ltmp703:
	.loc	6 604 36 prologue_end           @ lvgl/src/lv_draw/lv_draw_mask.c:604:36
	ldr.w	r4, [r11, #24]
	@DEBUG_VALUE: line_mask_steep:abs_y <- $r2
	.loc	6 605 8                         @ lvgl/src/lv_draw/lv_draw_mask.c:605:8
	cmp	r4, #0
	.loc	6 604 45                        @ lvgl/src/lv_draw/lv_draw_mask.c:604:45
	mul	r6, r4, r2
	.loc	6 604 54 is_stmt 0              @ lvgl/src/lv_draw/lv_draw_mask.c:604:54
	asr.w	r5, r6, #10
.Ltmp704:
	@DEBUG_VALUE: line_mask_steep:x_at_y <- $r5
	.loc	6 605 8 is_stmt 1               @ lvgl/src/lv_draw/lv_draw_mask.c:605:8
	mov	r7, r5
	it	gt
	addgt.w	r7, r12, r6, asr #10
.Ltmp705:
	@DEBUG_VALUE: line_mask_steep:x_at_y <- $r7
	@DEBUG_VALUE: line_mask_steep:abs_x <- $r1
	.loc	6 606 8                         @ lvgl/src/lv_draw/lv_draw_mask.c:606:8
	cmp	r7, r1
.Ltmp706:
	@DEBUG_VALUE: line_mask_steep:len <- $r3
	@DEBUG_VALUE: line_mask_steep:mask_buf <- $r0
	bge	.LBB21_2
.Ltmp707:
@ %bb.1:
	@DEBUG_VALUE: line_mask_steep:x_at_y <- $r7
	@DEBUG_VALUE: line_mask_steep:len <- $r3
	@DEBUG_VALUE: line_mask_steep:abs_y <- $r2
	@DEBUG_VALUE: line_mask_steep:abs_x <- $r1
	@DEBUG_VALUE: line_mask_steep:mask_buf <- $r0
	@DEBUG_VALUE: line_mask_steep:p <- [DW_OP_plus_uconst 40] [$sp+0]
	.loc	6 607 15                        @ lvgl/src/lv_draw/lv_draw_mask.c:607:15
	ldrb.w	r0, [r11, #40]
.Ltmp708:
	@DEBUG_VALUE: line_mask_steep:mask_buf <- [DW_OP_LLVM_entry_value 1] $r0
	.loc	6 607 12 is_stmt 0              @ lvgl/src/lv_draw/lv_draw_mask.c:607:12
	ubfx	r0, r0, #1, #1
	add	sp, #4
	pop.w	{r4, r5, r6, r7, r8, r9, r10, r11, pc}
.Ltmp709:
.LBB21_2:
	@DEBUG_VALUE: line_mask_steep:x_at_y <- $r7
	@DEBUG_VALUE: line_mask_steep:len <- $r3
	@DEBUG_VALUE: line_mask_steep:abs_y <- $r2
	@DEBUG_VALUE: line_mask_steep:abs_x <- $r1
	@DEBUG_VALUE: line_mask_steep:mask_buf <- $r0
	@DEBUG_VALUE: line_mask_steep:p <- [DW_OP_plus_uconst 40] [$sp+0]
	.loc	6 0 12                          @ lvgl/src/lv_draw/lv_draw_mask.c:0:12
	mov	r8, r0
.Ltmp710:
	@DEBUG_VALUE: line_mask_steep:mask_buf <- $r8
	@DEBUG_VALUE: line_mask_steep:mask_buf <- $r8
	@DEBUG_VALUE: line_mask_steep:len <- $r7
	@DEBUG_VALUE: line_mask_steep:x_at_y <- $r5
	.loc	6 618 23 is_stmt 1              @ lvgl/src/lv_draw/lv_draw_mask.c:618:23
	adds	r0, r3, r1
	mov	r6, r1
.Ltmp711:
	@DEBUG_VALUE: line_mask_steep:abs_x <- $r6
	@DEBUG_VALUE: line_mask_steep:abs_x <- $r6
	.loc	6 0 23 is_stmt 0                @ lvgl/src/lv_draw/lv_draw_mask.c:0:23
	mov	r7, r3
.Ltmp712:
	@DEBUG_VALUE: line_mask_steep:len <- $r7
	.loc	6 618 8                         @ lvgl/src/lv_draw/lv_draw_mask.c:618:8
	cmp	r5, r0
	ble	.LBB21_4
.Ltmp713:
@ %bb.3:
	@DEBUG_VALUE: line_mask_steep:mask_buf <- $r8
	@DEBUG_VALUE: line_mask_steep:len <- $r7
	@DEBUG_VALUE: line_mask_steep:abs_x <- $r6
	@DEBUG_VALUE: line_mask_steep:x_at_y <- $r5
	@DEBUG_VALUE: line_mask_steep:abs_y <- $r2
	@DEBUG_VALUE: line_mask_steep:p <- [DW_OP_plus_uconst 40] [$sp+0]
	.loc	6 619 15 is_stmt 1              @ lvgl/src/lv_draw/lv_draw_mask.c:619:15
	ldrb.w	r0, [r11, #40]
	movs	r1, #1
.Ltmp714:
	.loc	6 619 12 is_stmt 0              @ lvgl/src/lv_draw/lv_draw_mask.c:619:12
	bic.w	r0, r1, r0, lsr #1
.Ltmp715:
	.loc	6 736 1 is_stmt 1               @ lvgl/src/lv_draw/lv_draw_mask.c:736:1
	add	sp, #4
	pop.w	{r4, r5, r6, r7, r8, r9, r10, r11, pc}
.Ltmp716:
.LBB21_4:
	@DEBUG_VALUE: line_mask_steep:mask_buf <- $r8
	@DEBUG_VALUE: line_mask_steep:len <- $r7
	@DEBUG_VALUE: line_mask_steep:abs_x <- $r6
	@DEBUG_VALUE: line_mask_steep:x_at_y <- $r5
	@DEBUG_VALUE: line_mask_steep:abs_y <- $r2
	@DEBUG_VALUE: line_mask_steep:p <- [DW_OP_plus_uconst 40] [$sp+0]
	@DEBUG_VALUE: line_mask_steep:len <- $r7
	.loc	6 628 26                        @ lvgl/src/lv_draw/lv_draw_mask.c:628:26
	lsls	r0, r2, #8
	.loc	6 628 32 is_stmt 0              @ lvgl/src/lv_draw/lv_draw_mask.c:628:32
	mul	r3, r4, r0
.Ltmp717:
	@DEBUG_VALUE: line_mask_steep:xs <- [DW_OP_constu 10, DW_OP_shra, DW_OP_stack_value] $r3
	.loc	6 0 32                          @ lvgl/src/lv_draw/lv_draw_mask.c:0:32
	mov.w	r0, #256
	.loc	6 633 32 is_stmt 1              @ lvgl/src/lv_draw/lv_draw_mask.c:633:32
	add.w	r0, r0, r2, lsl #8
	.loc	6 633 38 is_stmt 0              @ lvgl/src/lv_draw/lv_draw_mask.c:633:38
	mul	r1, r4, r0
.Ltmp718:
	@DEBUG_VALUE: line_mask_steep:xe <- [DW_OP_constu 10, DW_OP_shra, DW_OP_stack_value] $r1
	.loc	6 629 22 is_stmt 1              @ lvgl/src/lv_draw/lv_draw_mask.c:629:22
	asr.w	r9, r3, #18
.Ltmp719:
	@DEBUG_VALUE: line_mask_steep:xsi <- $r9
	.loc	6 630 22                        @ lvgl/src/lv_draw/lv_draw_mask.c:630:22
	ubfx	r0, r3, #10, #8
.Ltmp720:
	@DEBUG_VALUE: line_mask_steep:xsf <- $r0
	.loc	6 634 22                        @ lvgl/src/lv_draw/lv_draw_mask.c:634:22
	asrs	r2, r1, #18
.Ltmp721:
	@DEBUG_VALUE: line_mask_steep:abs_y <- [DW_OP_LLVM_entry_value 1] $r2
	@DEBUG_VALUE: line_mask_steep:xef <- undef
	@DEBUG_VALUE: line_mask_steep:xei <- $r2
	.loc	6 640 19                        @ lvgl/src/lv_draw/lv_draw_mask.c:640:19
	cmp.w	r9, r1, asr #18
.Ltmp722:
	.loc	6 639 13                        @ lvgl/src/lv_draw/lv_draw_mask.c:639:13
	rsb	r10, r6, r3, asr #18
.Ltmp723:
	@DEBUG_VALUE: line_mask_steep:k <- $r10
	.loc	6 640 19                        @ lvgl/src/lv_draw/lv_draw_mask.c:640:19
	beq	.LBB21_7
.Ltmp724:
@ %bb.5:
	@DEBUG_VALUE: line_mask_steep:k <- $r10
	@DEBUG_VALUE: line_mask_steep:xsi <- $r9
	@DEBUG_VALUE: line_mask_steep:mask_buf <- $r8
	@DEBUG_VALUE: line_mask_steep:len <- $r7
	@DEBUG_VALUE: line_mask_steep:abs_x <- $r6
	@DEBUG_VALUE: line_mask_steep:x_at_y <- $r5
	@DEBUG_VALUE: line_mask_steep:xs <- [DW_OP_constu 10, DW_OP_shra, DW_OP_stack_value] $r3
	@DEBUG_VALUE: line_mask_steep:xei <- $r2
	@DEBUG_VALUE: line_mask_steep:xe <- [DW_OP_constu 10, DW_OP_shra, DW_OP_stack_value] $r1
	@DEBUG_VALUE: line_mask_steep:xsf <- $r0
	@DEBUG_VALUE: line_mask_steep:p <- [DW_OP_plus_uconst 40] [$sp+0]
	@DEBUG_VALUE: line_mask_steep:abs_y <- [DW_OP_LLVM_entry_value 1] $r2
	.loc	6 640 39 is_stmt 0              @ lvgl/src/lv_draw/lv_draw_mask.c:640:39
	cmp.w	r4, #-1
	bgt	.LBB21_7
.Ltmp725:
@ %bb.6:
	@DEBUG_VALUE: line_mask_steep:k <- $r10
	@DEBUG_VALUE: line_mask_steep:xsi <- $r9
	@DEBUG_VALUE: line_mask_steep:mask_buf <- $r8
	@DEBUG_VALUE: line_mask_steep:len <- $r7
	@DEBUG_VALUE: line_mask_steep:abs_x <- $r6
	@DEBUG_VALUE: line_mask_steep:x_at_y <- $r5
	@DEBUG_VALUE: line_mask_steep:xs <- [DW_OP_constu 10, DW_OP_shra, DW_OP_stack_value] $r3
	@DEBUG_VALUE: line_mask_steep:xei <- $r2
	@DEBUG_VALUE: line_mask_steep:xe <- [DW_OP_constu 10, DW_OP_shra, DW_OP_stack_value] $r1
	@DEBUG_VALUE: line_mask_steep:xsf <- $r0
	@DEBUG_VALUE: line_mask_steep:p <- [DW_OP_plus_uconst 40] [$sp+0]
	@DEBUG_VALUE: line_mask_steep:abs_y <- [DW_OP_LLVM_entry_value 1] $r2
	cmp	r0, #0
.Ltmp726:
	@DEBUG_VALUE: line_mask_steep:xsi <- $r2
	@DEBUG_VALUE: line_mask_steep:xsf <- 255
	.loc	6 643 10 is_stmt 1              @ lvgl/src/lv_draw/lv_draw_mask.c:643:10
	ittt	eq
	subeq.w	r10, r10, #1
.Ltmp727:
	@DEBUG_VALUE: line_mask_steep:k <- $r10
	.loc	6 0 10 is_stmt 0                @ lvgl/src/lv_draw/lv_draw_mask.c:0:10
	moveq	r0, #255
.Ltmp728:
	moveq	r9, r2
.Ltmp729:
.LBB21_7:
	@DEBUG_VALUE: line_mask_steep:k <- $r10
	@DEBUG_VALUE: line_mask_steep:mask_buf <- $r8
	@DEBUG_VALUE: line_mask_steep:len <- $r7
	@DEBUG_VALUE: line_mask_steep:abs_x <- $r6
	@DEBUG_VALUE: line_mask_steep:x_at_y <- $r5
	@DEBUG_VALUE: line_mask_steep:xs <- [DW_OP_constu 10, DW_OP_shra, DW_OP_stack_value] $r3
	@DEBUG_VALUE: line_mask_steep:xei <- $r2
	@DEBUG_VALUE: line_mask_steep:xe <- [DW_OP_constu 10, DW_OP_shra, DW_OP_stack_value] $r1
	@DEBUG_VALUE: line_mask_steep:p <- [DW_OP_plus_uconst 40] [$sp+0]
	@DEBUG_VALUE: line_mask_steep:abs_y <- [DW_OP_LLVM_entry_value 1] $r2
	@DEBUG_VALUE: line_mask_steep:len <- $r7
	@DEBUG_VALUE: line_mask_steep:xsi <- $r9
	@DEBUG_VALUE: line_mask_steep:xsf <- $r0
	@DEBUG_VALUE: line_mask_steep:xef <- undef
	@DEBUG_VALUE: line_mask_steep:k <- $r10
	.loc	6 646 8 is_stmt 1               @ lvgl/src/lv_draw/lv_draw_mask.c:646:8
	cmp	r9, r2
	bne	.LBB21_15
.Ltmp730:
@ %bb.8:
	@DEBUG_VALUE: line_mask_steep:k <- $r10
	@DEBUG_VALUE: line_mask_steep:xsi <- $r9
	@DEBUG_VALUE: line_mask_steep:mask_buf <- $r8
	@DEBUG_VALUE: line_mask_steep:len <- $r7
	@DEBUG_VALUE: line_mask_steep:abs_x <- $r6
	@DEBUG_VALUE: line_mask_steep:x_at_y <- $r5
	@DEBUG_VALUE: line_mask_steep:xs <- [DW_OP_constu 10, DW_OP_shra, DW_OP_stack_value] $r3
	@DEBUG_VALUE: line_mask_steep:xei <- $r2
	@DEBUG_VALUE: line_mask_steep:xe <- [DW_OP_constu 10, DW_OP_shra, DW_OP_stack_value] $r1
	@DEBUG_VALUE: line_mask_steep:xsf <- $r0
	@DEBUG_VALUE: line_mask_steep:p <- [DW_OP_plus_uconst 40] [$sp+0]
	@DEBUG_VALUE: line_mask_steep:abs_y <- [DW_OP_LLVM_entry_value 1] $r2
	@DEBUG_VALUE: line_mask_steep:xef <- undef
	.loc	6 647 19                        @ lvgl/src/lv_draw/lv_draw_mask.c:647:19
	cmp.w	r10, #0
	bmi	.LBB21_11
.Ltmp731:
@ %bb.9:
	@DEBUG_VALUE: line_mask_steep:k <- $r10
	@DEBUG_VALUE: line_mask_steep:xsi <- $r9
	@DEBUG_VALUE: line_mask_steep:mask_buf <- $r8
	@DEBUG_VALUE: line_mask_steep:len <- $r7
	@DEBUG_VALUE: line_mask_steep:abs_x <- $r6
	@DEBUG_VALUE: line_mask_steep:x_at_y <- $r5
	@DEBUG_VALUE: line_mask_steep:xs <- [DW_OP_constu 10, DW_OP_shra, DW_OP_stack_value] $r3
	@DEBUG_VALUE: line_mask_steep:xei <- $r2
	@DEBUG_VALUE: line_mask_steep:xe <- [DW_OP_constu 10, DW_OP_shra, DW_OP_stack_value] $r1
	@DEBUG_VALUE: line_mask_steep:xsf <- $r0
	@DEBUG_VALUE: line_mask_steep:p <- [DW_OP_plus_uconst 40] [$sp+0]
	@DEBUG_VALUE: line_mask_steep:abs_y <- [DW_OP_LLVM_entry_value 1] $r2
	@DEBUG_VALUE: line_mask_steep:xef <- undef
	cmp	r10, r7
	bge	.LBB21_11
.Ltmp732:
@ %bb.10:
	@DEBUG_VALUE: line_mask_steep:k <- $r10
	@DEBUG_VALUE: line_mask_steep:xsi <- $r9
	@DEBUG_VALUE: line_mask_steep:mask_buf <- $r8
	@DEBUG_VALUE: line_mask_steep:len <- $r7
	@DEBUG_VALUE: line_mask_steep:abs_x <- $r6
	@DEBUG_VALUE: line_mask_steep:x_at_y <- $r5
	@DEBUG_VALUE: line_mask_steep:xs <- [DW_OP_constu 10, DW_OP_shra, DW_OP_stack_value] $r3
	@DEBUG_VALUE: line_mask_steep:xei <- $r2
	@DEBUG_VALUE: line_mask_steep:xe <- [DW_OP_constu 10, DW_OP_shra, DW_OP_stack_value] $r1
	@DEBUG_VALUE: line_mask_steep:xsf <- $r0
	@DEBUG_VALUE: line_mask_steep:p <- [DW_OP_plus_uconst 40] [$sp+0]
	@DEBUG_VALUE: line_mask_steep:abs_y <- [DW_OP_LLVM_entry_value 1] $r2
	.loc	6 0 0 is_stmt 0                 @ lvgl/src/lv_draw/lv_draw_mask.c:0:0
	ubfx	r1, r1, #10, #8
.Ltmp733:
	@DEBUG_VALUE: line_mask_steep:xef <- $r1
	.loc	6 649 19 is_stmt 1              @ lvgl/src/lv_draw/lv_draw_mask.c:649:19
	ldrb.w	r2, [r11, #40]
.Ltmp734:
	.loc	6 648 22                        @ lvgl/src/lv_draw/lv_draw_mask.c:648:22
	add	r0, r1
.Ltmp735:
	@DEBUG_VALUE: line_mask_steep:m <- undef
	.loc	6 649 16                        @ lvgl/src/lv_draw/lv_draw_mask.c:649:16
	lsls	r1, r2, #6
.Ltmp736:
	sxtb	r1, r1
	lsrs	r1, r1, #7
	eor.w	r1, r1, r0, lsr #1
.Ltmp737:
	@DEBUG_VALUE: line_mask_steep:m <- $r1
	.loc	6 650 36                        @ lvgl/src/lv_draw/lv_draw_mask.c:650:36
	ldrb.w	r0, [r8, r10]
	.loc	6 650 27 is_stmt 0              @ lvgl/src/lv_draw/lv_draw_mask.c:650:27
	uxtb	r1, r1
.Ltmp738:
	bl	mask_mix
.Ltmp739:
	.loc	6 650 25                        @ lvgl/src/lv_draw/lv_draw_mask.c:650:25
	strb.w	r0, [r8, r10]
.Ltmp740:
.LBB21_11:
	@DEBUG_VALUE: line_mask_steep:k <- $r10
	@DEBUG_VALUE: line_mask_steep:xsi <- $r9
	@DEBUG_VALUE: line_mask_steep:mask_buf <- $r8
	@DEBUG_VALUE: line_mask_steep:len <- $r7
	@DEBUG_VALUE: line_mask_steep:abs_x <- $r6
	@DEBUG_VALUE: line_mask_steep:x_at_y <- $r5
	@DEBUG_VALUE: line_mask_steep:p <- [DW_OP_plus_uconst 40] [$sp+0]
	@DEBUG_VALUE: line_mask_steep:abs_y <- [DW_OP_LLVM_entry_value 1] $r2
	@DEBUG_VALUE: line_mask_steep:k <- [DW_OP_plus_uconst 1, DW_OP_stack_value] $r10
	.loc	6 654 15 is_stmt 1              @ lvgl/src/lv_draw/lv_draw_mask.c:654:15
	ldrb.w	r0, [r11, #40]
.Ltmp741:
	.loc	6 654 12 is_stmt 0              @ lvgl/src/lv_draw/lv_draw_mask.c:654:12
	lsls	r0, r0, #30
	bmi	.LBB21_26
.Ltmp742:
@ %bb.12:
	@DEBUG_VALUE: line_mask_steep:k <- [DW_OP_plus_uconst 1, DW_OP_stack_value] $r10
	@DEBUG_VALUE: line_mask_steep:xsi <- $r9
	@DEBUG_VALUE: line_mask_steep:mask_buf <- $r8
	@DEBUG_VALUE: line_mask_steep:len <- $r7
	@DEBUG_VALUE: line_mask_steep:abs_x <- $r6
	@DEBUG_VALUE: line_mask_steep:x_at_y <- $r5
	@DEBUG_VALUE: line_mask_steep:p <- [DW_OP_plus_uconst 40] [$sp+0]
	@DEBUG_VALUE: line_mask_steep:abs_y <- [DW_OP_LLVM_entry_value 1] $r2
	@DEBUG_VALUE: line_mask_steep:k <- undef
	.loc	6 663 16 is_stmt 1              @ lvgl/src/lv_draw/lv_draw_mask.c:663:16
	mov	r1, r7
	cmp	r10, r7
	it	lt
	addlt.w	r1, r10, #1
.Ltmp743:
	@DEBUG_VALUE: line_mask_steep:k <- $r1
	.loc	6 664 16                        @ lvgl/src/lv_draw/lv_draw_mask.c:664:16
	cmp	r1, #0
	beq	.LBB21_30
.Ltmp744:
@ %bb.13:
	@DEBUG_VALUE: line_mask_steep:xsi <- $r9
	@DEBUG_VALUE: line_mask_steep:mask_buf <- $r8
	@DEBUG_VALUE: line_mask_steep:len <- $r7
	@DEBUG_VALUE: line_mask_steep:abs_x <- $r6
	@DEBUG_VALUE: line_mask_steep:x_at_y <- $r5
	@DEBUG_VALUE: line_mask_steep:k <- $r1
	@DEBUG_VALUE: line_mask_steep:p <- [DW_OP_plus_uconst 40] [$sp+0]
	@DEBUG_VALUE: line_mask_steep:abs_y <- [DW_OP_LLVM_entry_value 1] $r2
	.loc	6 665 21                        @ lvgl/src/lv_draw/lv_draw_mask.c:665:21
	cmp	r1, #1
	blt	.LBB21_29
.Ltmp745:
@ %bb.14:
	@DEBUG_VALUE: line_mask_steep:xsi <- $r9
	@DEBUG_VALUE: line_mask_steep:mask_buf <- $r8
	@DEBUG_VALUE: line_mask_steep:len <- $r7
	@DEBUG_VALUE: line_mask_steep:abs_x <- $r6
	@DEBUG_VALUE: line_mask_steep:x_at_y <- $r5
	@DEBUG_VALUE: line_mask_steep:k <- $r1
	@DEBUG_VALUE: line_mask_steep:p <- [DW_OP_plus_uconst 40] [$sp+0]
	@DEBUG_VALUE: line_mask_steep:abs_y <- [DW_OP_LLVM_entry_value 1] $r2
	.loc	6 665 43 is_stmt 0              @ lvgl/src/lv_draw/lv_draw_mask.c:665:43
	add.w	r0, r8, r1
	.loc	6 665 61                        @ lvgl/src/lv_draw/lv_draw_mask.c:665:61
	subs	r1, r7, r1
.Ltmp746:
	.loc	6 665 28                        @ lvgl/src/lv_draw/lv_draw_mask.c:665:28
	bl	_lv_memset_00
	b	.LBB21_29
.Ltmp747:
.LBB21_15:
	@DEBUG_VALUE: line_mask_steep:k <- $r10
	@DEBUG_VALUE: line_mask_steep:xsi <- $r9
	@DEBUG_VALUE: line_mask_steep:mask_buf <- $r8
	@DEBUG_VALUE: line_mask_steep:len <- $r7
	@DEBUG_VALUE: line_mask_steep:abs_x <- $r6
	@DEBUG_VALUE: line_mask_steep:x_at_y <- $r5
	@DEBUG_VALUE: line_mask_steep:xs <- [DW_OP_constu 10, DW_OP_shra, DW_OP_stack_value] $r3
	@DEBUG_VALUE: line_mask_steep:xei <- $r2
	@DEBUG_VALUE: line_mask_steep:xe <- [DW_OP_constu 10, DW_OP_shra, DW_OP_stack_value] $r1
	@DEBUG_VALUE: line_mask_steep:xsf <- $r0
	@DEBUG_VALUE: line_mask_steep:p <- [DW_OP_plus_uconst 40] [$sp+0]
	@DEBUG_VALUE: line_mask_steep:abs_y <- [DW_OP_LLVM_entry_value 1] $r2
	.loc	6 671 12 is_stmt 1              @ lvgl/src/lv_draw/lv_draw_mask.c:671:12
	cmp.w	r4, #-1
	ble	.LBB21_31
.Ltmp748:
@ %bb.16:
	@DEBUG_VALUE: line_mask_steep:k <- $r10
	@DEBUG_VALUE: line_mask_steep:xsi <- $r9
	@DEBUG_VALUE: line_mask_steep:mask_buf <- $r8
	@DEBUG_VALUE: line_mask_steep:len <- $r7
	@DEBUG_VALUE: line_mask_steep:abs_x <- $r6
	@DEBUG_VALUE: line_mask_steep:x_at_y <- $r5
	@DEBUG_VALUE: line_mask_steep:xs <- [DW_OP_constu 10, DW_OP_shra, DW_OP_stack_value] $r3
	@DEBUG_VALUE: line_mask_steep:xei <- $r2
	@DEBUG_VALUE: line_mask_steep:xe <- [DW_OP_constu 10, DW_OP_shra, DW_OP_stack_value] $r1
	@DEBUG_VALUE: line_mask_steep:xsf <- $r0
	@DEBUG_VALUE: line_mask_steep:p <- [DW_OP_plus_uconst 40] [$sp+0]
	@DEBUG_VALUE: line_mask_steep:abs_y <- [DW_OP_LLVM_entry_value 1] $r2
	.loc	6 704 42                        @ lvgl/src/lv_draw/lv_draw_mask.c:704:42
	ldr.w	r1, [r11, #28]
.Ltmp749:
	.loc	6 704 30 is_stmt 0              @ lvgl/src/lv_draw/lv_draw_mask.c:704:30
	eor	r0, r0, #255
.Ltmp750:
	.loc	6 705 23 is_stmt 1              @ lvgl/src/lv_draw/lv_draw_mask.c:705:23
	cmp.w	r10, #0
.Ltmp751:
	.loc	6 704 37                        @ lvgl/src/lv_draw/lv_draw_mask.c:704:37
	mul	r1, r0, r1
