	.text
	.syntax unified
	.eabi_attribute	67, "2.09"	@ Tag_conformance
	.cpu	cortex-m7
	.eabi_attribute	6, 13	@ Tag_CPU_arch
	.eabi_attribute	7, 77	@ Tag_CPU_arch_profile
	.eabi_attribute	8, 0	@ Tag_ARM_ISA_use
	.eabi_attribute	9, 2	@ Tag_THUMB_ISA_use
	.fpu	fpv5-d16
	.eabi_attribute	36, 1	@ Tag_FP_HP_extension
	.eabi_attribute	34, 1	@ Tag_CPU_unaligned_access
	.eabi_attribute	17, 1	@ Tag_ABI_PCS_GOT_use
	.eabi_attribute	20, 2	@ Tag_ABI_FP_denormal
	.eabi_attribute	21, 0	@ Tag_ABI_FP_exceptions
	.eabi_attribute	23, 1	@ Tag_ABI_FP_number_model
	.eabi_attribute	24, 1	@ Tag_ABI_align_needed
	.eabi_attribute	25, 1	@ Tag_ABI_align_preserved
	.eabi_attribute	28, 1	@ Tag_ABI_VFP_args
	.eabi_attribute	38, 1	@ Tag_ABI_FP_16bit_format
	.eabi_attribute	18, 2	@ Tag_ABI_PCS_wchar_t
	.eabi_attribute	26, 1	@ Tag_ABI_enum_size
	.eabi_attribute	14, 0	@ Tag_ABI_PCS_R9_use
	.file	"lv_draw_triangle.c"
	.file	1 "E:\\STM32\\Learning\\STM32H750_ART_PI_RGBLCD" "lvgl/src/lv_draw/lv_draw_mask.h"
	.section	.text.lv_draw_triangle,"ax",%progbits
	.hidden	lv_draw_triangle                @ -- Begin function lv_draw_triangle
	.globl	lv_draw_triangle
	.p2align	3
	.type	lv_draw_triangle,%function
	.code	16                              @ @lv_draw_triangle
	.thumb_func
lv_draw_triangle:
.Lfunc_begin0:
	.file	2 "E:\\STM32\\Learning\\STM32H750_ART_PI_RGBLCD" "lvgl/src/lv_draw/lv_draw_triangle.c"
	.loc	2 44 0                          @ lvgl/src/lv_draw/lv_draw_triangle.c:44:0
	.fnstart
	.cfi_sections .debug_frame
	.cfi_startproc
@ %bb.0:
	.save	{r7, lr}
	push	{r7, lr}
	.cfi_def_cfa_offset 8
	.cfi_offset lr, -4
	.cfi_offset r7, -8
	.pad	#16
	sub	sp, #16
	.cfi_def_cfa_offset 24
	str	r0, [sp, #12]
	str	r1, [sp, #8]
	str	r2, [sp, #4]
.Ltmp0:
	.loc	2 45 21 prologue_end            @ lvgl/src/lv_draw/lv_draw_triangle.c:45:21
	ldr	r0, [sp, #12]
	.loc	2 45 32 is_stmt 0               @ lvgl/src/lv_draw/lv_draw_triangle.c:45:32
	ldr	r2, [sp, #8]
	.loc	2 45 43                         @ lvgl/src/lv_draw/lv_draw_triangle.c:45:43
	ldr	r3, [sp, #4]
	movs	r1, #3
	.loc	2 45 5                          @ lvgl/src/lv_draw/lv_draw_triangle.c:45:5
	bl	lv_draw_polygon
	.loc	2 46 1 is_stmt 1                @ lvgl/src/lv_draw/lv_draw_triangle.c:46:1
	add	sp, #16
	pop	{r7, pc}
.Ltmp1:
.Lfunc_end0:
	.size	lv_draw_triangle, .Lfunc_end0-lv_draw_triangle
	.cfi_endproc
	.cantunwind
	.fnend
                                        @ -- End function
	.section	.text.lv_draw_polygon,"ax",%progbits
	.hidden	lv_draw_polygon                 @ -- Begin function lv_draw_polygon
	.globl	lv_draw_polygon
	.p2align	3
	.type	lv_draw_polygon,%function
	.code	16                              @ @lv_draw_polygon
	.thumb_func
lv_draw_polygon:
.Lfunc_begin1:
	.loc	2 57 0                          @ lvgl/src/lv_draw/lv_draw_triangle.c:57:0
	.fnstart
	.cfi_startproc
@ %bb.0:
	.save	{r4, lr}
	push	{r4, lr}
	.cfi_def_cfa_offset 8
	.cfi_offset lr, -4
	.cfi_offset r4, -8
	.pad	#112
	sub	sp, #112
	.cfi_def_cfa_offset 120
                                        @ kill: def $r12 killed $r1
	str	r0, [sp, #108]
	strh.w	r1, [sp, #106]
	str	r2, [sp, #100]
	str	r3, [sp, #96]
.Ltmp2:
	.loc	2 58 8 prologue_end             @ lvgl/src/lv_draw/lv_draw_triangle.c:58:8
	ldrh.w	r0, [sp, #106]
.Ltmp3:
	.loc	2 58 8 is_stmt 0                @ lvgl/src/lv_draw/lv_draw_triangle.c:58:8
	cmp	r0, #2
	bgt	.LBB1_2
	b	.LBB1_1
.LBB1_1:
.Ltmp4:
	.loc	2 58 23                         @ lvgl/src/lv_draw/lv_draw_triangle.c:58:23
	b	.LBB1_75
.Ltmp5:
.LBB1_2:
	.loc	2 59 8 is_stmt 1                @ lvgl/src/lv_draw/lv_draw_triangle.c:59:8
	ldr	r0, [sp, #108]
.Ltmp6:
	.loc	2 59 8 is_stmt 0                @ lvgl/src/lv_draw/lv_draw_triangle.c:59:8
	cbnz	r0, .LBB1_4
	b	.LBB1_3
.LBB1_3:
.Ltmp7:
	.loc	2 59 24                         @ lvgl/src/lv_draw/lv_draw_triangle.c:59:24
	b	.LBB1_75
.Ltmp8:
.LBB1_4:
	.loc	2 62 38 is_stmt 1               @ lvgl/src/lv_draw/lv_draw_triangle.c:62:38
	ldrh.w	r0, [sp, #106]
	.loc	2 62 48 is_stmt 0               @ lvgl/src/lv_draw/lv_draw_triangle.c:62:48
	lsls	r0, r0, #2
	.loc	2 62 22                         @ lvgl/src/lv_draw/lv_draw_triangle.c:62:22
	bl	_lv_mem_buf_get
	.loc	2 62 18                         @ lvgl/src/lv_draw/lv_draw_triangle.c:62:18
	str	r0, [sp, #92]
.Ltmp9:
	.loc	2 63 8 is_stmt 1                @ lvgl/src/lv_draw/lv_draw_triangle.c:63:8
	ldr	r0, [sp, #92]
.Ltmp10:
	.loc	2 63 8 is_stmt 0                @ lvgl/src/lv_draw/lv_draw_triangle.c:63:8
	cbnz	r0, .LBB1_6
	b	.LBB1_5
.LBB1_5:
.Ltmp11:
	.loc	2 63 19                         @ lvgl/src/lv_draw/lv_draw_triangle.c:63:19
	b	.LBB1_75
.Ltmp12:
.LBB1_6:
	.loc	2 0 19                          @ lvgl/src/lv_draw/lv_draw_triangle.c:0:19
	movs	r0, #0
	.loc	2 65 14 is_stmt 1               @ lvgl/src/lv_draw/lv_draw_triangle.c:65:14
	strh.w	r0, [sp, #88]
	.loc	2 66 5                          @ lvgl/src/lv_draw/lv_draw_triangle.c:66:5
	ldr	r2, [sp, #92]
	.loc	2 66 12 is_stmt 0               @ lvgl/src/lv_draw/lv_draw_triangle.c:66:12
	ldr	r1, [sp, #108]
	ldr	r1, [r1]
	str	r1, [r2]
.Ltmp13:
	.loc	2 67 11 is_stmt 1               @ lvgl/src/lv_draw/lv_draw_triangle.c:67:11
	strh.w	r0, [sp, #90]
	.loc	2 67 9 is_stmt 0                @ lvgl/src/lv_draw/lv_draw_triangle.c:67:9
	b	.LBB1_7
.LBB1_7:                                @ =>This Inner Loop Header: Depth=1
.Ltmp14:
	.loc	2 67 16                         @ lvgl/src/lv_draw/lv_draw_triangle.c:67:16
	ldrh.w	r0, [sp, #90]
	.loc	2 67 20                         @ lvgl/src/lv_draw/lv_draw_triangle.c:67:20
	ldrh.w	r1, [sp, #106]
	.loc	2 67 30                         @ lvgl/src/lv_draw/lv_draw_triangle.c:67:30
	subs	r1, #1
.Ltmp15:
	.loc	2 67 5                          @ lvgl/src/lv_draw/lv_draw_triangle.c:67:5
	cmp	r0, r1
	bge	.LBB1_13
	b	.LBB1_8
.LBB1_8:                                @   in Loop: Header=BB1_7 Depth=1
.Ltmp16:
	.loc	2 68 12 is_stmt 1               @ lvgl/src/lv_draw/lv_draw_triangle.c:68:12
	ldr	r0, [sp, #108]
	.loc	2 68 19 is_stmt 0               @ lvgl/src/lv_draw/lv_draw_triangle.c:68:19
	ldrh.w	r2, [sp, #90]
	.loc	2 68 12                         @ lvgl/src/lv_draw/lv_draw_triangle.c:68:12
	add.w	r1, r0, r2, lsl #2
	.loc	2 68 22                         @ lvgl/src/lv_draw/lv_draw_triangle.c:68:22
	ldrsh.w	r0, [r0, r2, lsl #2]
	.loc	2 68 41                         @ lvgl/src/lv_draw/lv_draw_triangle.c:68:41
	ldrsh.w	r1, [r1, #4]
	.loc	2 68 43                         @ lvgl/src/lv_draw/lv_draw_triangle.c:68:43
	cmp	r0, r1
	bne	.LBB1_10
	b	.LBB1_9
.LBB1_9:                                @   in Loop: Header=BB1_7 Depth=1
	.loc	2 68 46                         @ lvgl/src/lv_draw/lv_draw_triangle.c:68:46
	ldr	r0, [sp, #108]
	.loc	2 68 53                         @ lvgl/src/lv_draw/lv_draw_triangle.c:68:53
	ldrh.w	r1, [sp, #90]
	.loc	2 68 46                         @ lvgl/src/lv_draw/lv_draw_triangle.c:68:46
	add.w	r1, r0, r1, lsl #2
	.loc	2 68 56                         @ lvgl/src/lv_draw/lv_draw_triangle.c:68:56
	ldrsh.w	r0, [r1, #2]
	.loc	2 68 75                         @ lvgl/src/lv_draw/lv_draw_triangle.c:68:75
	ldrsh.w	r1, [r1, #6]
.Ltmp17:
	.loc	2 68 12                         @ lvgl/src/lv_draw/lv_draw_triangle.c:68:12
	cmp	r0, r1
	beq	.LBB1_11
	b	.LBB1_10
.LBB1_10:                               @   in Loop: Header=BB1_7 Depth=1
.Ltmp18:
	.loc	2 69 13 is_stmt 1               @ lvgl/src/lv_draw/lv_draw_triangle.c:69:13
	ldr	r1, [sp, #92]
	.loc	2 69 15 is_stmt 0               @ lvgl/src/lv_draw/lv_draw_triangle.c:69:15
	ldrh.w	r2, [sp, #88]
	.loc	2 69 23                         @ lvgl/src/lv_draw/lv_draw_triangle.c:69:23
	ldr	r0, [sp, #108]
	.loc	2 69 30                         @ lvgl/src/lv_draw/lv_draw_triangle.c:69:30
	ldrh.w	r3, [sp, #90]
	.loc	2 69 23                         @ lvgl/src/lv_draw/lv_draw_triangle.c:69:23
	ldr.w	r0, [r0, r3, lsl #2]
	str.w	r0, [r1, r2, lsl #2]
	.loc	2 70 17 is_stmt 1               @ lvgl/src/lv_draw/lv_draw_triangle.c:70:17
	ldrh.w	r0, [sp, #88]
	adds	r0, #1
	strh.w	r0, [sp, #88]
	.loc	2 71 9                          @ lvgl/src/lv_draw/lv_draw_triangle.c:71:9
	b	.LBB1_11
.Ltmp19:
.LBB1_11:                               @   in Loop: Header=BB1_7 Depth=1
	.loc	2 72 5                          @ lvgl/src/lv_draw/lv_draw_triangle.c:72:5
	b	.LBB1_12
.Ltmp20:
.LBB1_12:                               @   in Loop: Header=BB1_7 Depth=1
	.loc	2 67 36                         @ lvgl/src/lv_draw/lv_draw_triangle.c:67:36
	ldrh.w	r0, [sp, #90]
	adds	r0, #1
	strh.w	r0, [sp, #90]
	.loc	2 67 5 is_stmt 0                @ lvgl/src/lv_draw/lv_draw_triangle.c:67:5
	b	.LBB1_7
.Ltmp21:
.LBB1_13:
	.loc	2 74 8 is_stmt 1                @ lvgl/src/lv_draw/lv_draw_triangle.c:74:8
	ldr	r1, [sp, #108]
	.loc	2 74 18 is_stmt 0               @ lvgl/src/lv_draw/lv_draw_triangle.c:74:18
	ldrsh.w	r0, [r1]
	.loc	2 74 30                         @ lvgl/src/lv_draw/lv_draw_triangle.c:74:30
	ldrh.w	r2, [sp, #106]
	.loc	2 74 23                         @ lvgl/src/lv_draw/lv_draw_triangle.c:74:23
	add.w	r1, r1, r2, lsl #2
	.loc	2 74 45                         @ lvgl/src/lv_draw/lv_draw_triangle.c:74:45
	ldrsh	r1, [r1, #-4]
	.loc	2 74 47                         @ lvgl/src/lv_draw/lv_draw_triangle.c:74:47
	cmp	r0, r1
	bne	.LBB1_15
	b	.LBB1_14
.LBB1_14:
	.loc	2 74 50                         @ lvgl/src/lv_draw/lv_draw_triangle.c:74:50
	ldr	r1, [sp, #108]
	.loc	2 74 60                         @ lvgl/src/lv_draw/lv_draw_triangle.c:74:60
	ldrsh.w	r0, [r1, #2]
	.loc	2 74 72                         @ lvgl/src/lv_draw/lv_draw_triangle.c:74:72
	ldrh.w	r2, [sp, #106]
	.loc	2 74 65                         @ lvgl/src/lv_draw/lv_draw_triangle.c:74:65
	add.w	r1, r1, r2, lsl #2
	.loc	2 74 87                         @ lvgl/src/lv_draw/lv_draw_triangle.c:74:87
	ldrsh	r1, [r1, #-2]
.Ltmp22:
	.loc	2 74 8                          @ lvgl/src/lv_draw/lv_draw_triangle.c:74:8
	cmp	r0, r1
	beq	.LBB1_16
	b	.LBB1_15
.LBB1_15:
.Ltmp23:
	.loc	2 75 9 is_stmt 1                @ lvgl/src/lv_draw/lv_draw_triangle.c:75:9
	ldr	r1, [sp, #92]
	.loc	2 75 11 is_stmt 0               @ lvgl/src/lv_draw/lv_draw_triangle.c:75:11
	ldrh.w	r2, [sp, #88]
	.loc	2 75 19                         @ lvgl/src/lv_draw/lv_draw_triangle.c:75:19
	ldr	r0, [sp, #108]
	.loc	2 75 26                         @ lvgl/src/lv_draw/lv_draw_triangle.c:75:26
	ldrh.w	r3, [sp, #106]
	.loc	2 75 19                         @ lvgl/src/lv_draw/lv_draw_triangle.c:75:19
	add.w	r0, r0, r3, lsl #2
	ldr	r0, [r0, #-4]
	str.w	r0, [r1, r2, lsl #2]
	.loc	2 76 13 is_stmt 1               @ lvgl/src/lv_draw/lv_draw_triangle.c:76:13
	ldrh.w	r0, [sp, #88]
	adds	r0, #1
	strh.w	r0, [sp, #88]
	.loc	2 77 5                          @ lvgl/src/lv_draw/lv_draw_triangle.c:77:5
	b	.LBB1_16
.Ltmp24:
.LBB1_16:
	.loc	2 79 17                         @ lvgl/src/lv_draw/lv_draw_triangle.c:79:17
	ldrh.w	r0, [sp, #88]
	.loc	2 79 15 is_stmt 0               @ lvgl/src/lv_draw/lv_draw_triangle.c:79:15
	strh.w	r0, [sp, #106]
.Ltmp25:
	.loc	2 80 8 is_stmt 1                @ lvgl/src/lv_draw/lv_draw_triangle.c:80:8
	ldrh.w	r0, [sp, #106]
.Ltmp26:
	.loc	2 80 8 is_stmt 0                @ lvgl/src/lv_draw/lv_draw_triangle.c:80:8
	cmp	r0, #2
	bgt	.LBB1_18
	b	.LBB1_17
.LBB1_17:
.Ltmp27:
	.loc	2 81 29 is_stmt 1               @ lvgl/src/lv_draw/lv_draw_triangle.c:81:29
	ldr	r0, [sp, #92]
	.loc	2 81 9 is_stmt 0                @ lvgl/src/lv_draw/lv_draw_triangle.c:81:9
	bl	_lv_mem_buf_release
	.loc	2 82 9 is_stmt 1                @ lvgl/src/lv_draw/lv_draw_triangle.c:82:9
	b	.LBB1_75
.Ltmp28:
.LBB1_18:
	.loc	2 85 15                         @ lvgl/src/lv_draw/lv_draw_triangle.c:85:15
	movw	r1, :lower16:.L__const.lv_draw_polygon.poly_coords
	movt	r1, :upper16:.L__const.lv_draw_polygon.poly_coords
	ldr	r0, [r1]
	ldr	r1, [r1, #4]
	str	r1, [sp, #84]
	str	r0, [sp, #80]
	movs	r0, #0
.Ltmp29:
	.loc	2 87 11                         @ lvgl/src/lv_draw/lv_draw_triangle.c:87:11
	strh.w	r0, [sp, #90]
	.loc	2 87 9 is_stmt 0                @ lvgl/src/lv_draw/lv_draw_triangle.c:87:9
	b	.LBB1_19
.LBB1_19:                               @ =>This Inner Loop Header: Depth=1
.Ltmp30:
	.loc	2 87 16                         @ lvgl/src/lv_draw/lv_draw_triangle.c:87:16
	ldrh.w	r0, [sp, #90]
	.loc	2 87 20                         @ lvgl/src/lv_draw/lv_draw_triangle.c:87:20
	ldrh.w	r1, [sp, #106]
.Ltmp31:
	.loc	2 87 5                          @ lvgl/src/lv_draw/lv_draw_triangle.c:87:5
	cmp	r0, r1
	bge	.LBB1_34
	b	.LBB1_20
.LBB1_20:                               @   in Loop: Header=BB1_19 Depth=1
.Ltmp32:
	.loc	2 88 26 is_stmt 1               @ lvgl/src/lv_draw/lv_draw_triangle.c:88:26
	ldrsh.w	r0, [sp, #80]
	ldr	r1, [sp, #92]
	ldrh.w	r2, [sp, #90]
	ldrsh.w	r1, [r1, r2, lsl #2]
	cmp	r0, r1
	bge	.LBB1_22
	b	.LBB1_21
.LBB1_21:                               @   in Loop: Header=BB1_19 Depth=1
	ldrsh.w	r0, [sp, #80]
	str	r0, [sp, #20]                   @ 4-byte Spill
	b	.LBB1_23
.LBB1_22:                               @   in Loop: Header=BB1_19 Depth=1
	ldr	r0, [sp, #92]
	ldrh.w	r1, [sp, #90]
	ldrsh.w	r0, [r0, r1, lsl #2]
	str	r0, [sp, #20]                   @ 4-byte Spill
	b	.LBB1_23
.LBB1_23:                               @   in Loop: Header=BB1_19 Depth=1
	ldr	r0, [sp, #20]                   @ 4-byte Reload
	.loc	2 88 24 is_stmt 0               @ lvgl/src/lv_draw/lv_draw_triangle.c:88:24
	strh.w	r0, [sp, #80]
	.loc	2 89 26 is_stmt 1               @ lvgl/src/lv_draw/lv_draw_triangle.c:89:26
	ldrsh.w	r0, [sp, #82]
	ldr	r1, [sp, #92]
	ldrh.w	r2, [sp, #90]
	add.w	r1, r1, r2, lsl #2
	ldrsh.w	r1, [r1, #2]
	cmp	r0, r1
	bge	.LBB1_25
	b	.LBB1_24
.LBB1_24:                               @   in Loop: Header=BB1_19 Depth=1
	ldrsh.w	r0, [sp, #82]
	str	r0, [sp, #16]                   @ 4-byte Spill
	b	.LBB1_26
.LBB1_25:                               @   in Loop: Header=BB1_19 Depth=1
	ldr	r0, [sp, #92]
	ldrh.w	r1, [sp, #90]
	add.w	r0, r0, r1, lsl #2
	ldrsh.w	r0, [r0, #2]
	str	r0, [sp, #16]                   @ 4-byte Spill
	b	.LBB1_26
.LBB1_26:                               @   in Loop: Header=BB1_19 Depth=1
	ldr	r0, [sp, #16]                   @ 4-byte Reload
	.loc	2 89 24 is_stmt 0               @ lvgl/src/lv_draw/lv_draw_triangle.c:89:24
	strh.w	r0, [sp, #82]
	.loc	2 90 26 is_stmt 1               @ lvgl/src/lv_draw/lv_draw_triangle.c:90:26
	ldrsh.w	r0, [sp, #84]
	ldr	r1, [sp, #92]
	ldrh.w	r2, [sp, #90]
	ldrsh.w	r1, [r1, r2, lsl #2]
	cmp	r0, r1
	ble	.LBB1_28
	b	.LBB1_27
.LBB1_27:                               @   in Loop: Header=BB1_19 Depth=1
	ldrsh.w	r0, [sp, #84]
	str	r0, [sp, #12]                   @ 4-byte Spill
	b	.LBB1_29
.LBB1_28:                               @   in Loop: Header=BB1_19 Depth=1
	ldr	r0, [sp, #92]
	ldrh.w	r1, [sp, #90]
	ldrsh.w	r0, [r0, r1, lsl #2]
	str	r0, [sp, #12]                   @ 4-byte Spill
	b	.LBB1_29
.LBB1_29:                               @   in Loop: Header=BB1_19 Depth=1
	ldr	r0, [sp, #12]                   @ 4-byte Reload
	.loc	2 90 24 is_stmt 0               @ lvgl/src/lv_draw/lv_draw_triangle.c:90:24
	strh.w	r0, [sp, #84]
	.loc	2 91 26 is_stmt 1               @ lvgl/src/lv_draw/lv_draw_triangle.c:91:26
	ldrsh.w	r0, [sp, #86]
	ldr	r1, [sp, #92]
	ldrh.w	r2, [sp, #90]
	add.w	r1, r1, r2, lsl #2
	ldrsh.w	r1, [r1, #2]
	cmp	r0, r1
	ble	.LBB1_31
	b	.LBB1_30
.LBB1_30:                               @   in Loop: Header=BB1_19 Depth=1
	ldrsh.w	r0, [sp, #86]
	str	r0, [sp, #8]                    @ 4-byte Spill
	b	.LBB1_32
.LBB1_31:                               @   in Loop: Header=BB1_19 Depth=1
	ldr	r0, [sp, #92]
	ldrh.w	r1, [sp, #90]
	add.w	r0, r0, r1, lsl #2
	ldrsh.w	r0, [r0, #2]
	str	r0, [sp, #8]                    @ 4-byte Spill
	b	.LBB1_32
.LBB1_32:                               @   in Loop: Header=BB1_19 Depth=1
	ldr	r0, [sp, #8]                    @ 4-byte Reload
	.loc	2 91 24 is_stmt 0               @ lvgl/src/lv_draw/lv_draw_triangle.c:91:24
	strh.w	r0, [sp, #86]
	.loc	2 92 5 is_stmt 1                @ lvgl/src/lv_draw/lv_draw_triangle.c:92:5
	b	.LBB1_33
.Ltmp33:
.LBB1_33:                               @   in Loop: Header=BB1_19 Depth=1
	.loc	2 87 32                         @ lvgl/src/lv_draw/lv_draw_triangle.c:87:32
	ldrh.w	r0, [sp, #90]
	adds	r0, #1
	strh.w	r0, [sp, #90]
	.loc	2 87 5 is_stmt 0                @ lvgl/src/lv_draw/lv_draw_triangle.c:87:5
	b	.LBB1_19
.Ltmp34:
.LBB1_34:
	.loc	2 96 62 is_stmt 1               @ lvgl/src/lv_draw/lv_draw_triangle.c:96:62
	ldr	r2, [sp, #100]
	add	r0, sp, #68
	add	r1, sp, #80
	.loc	2 96 17 is_stmt 0               @ lvgl/src/lv_draw/lv_draw_triangle.c:96:17
	bl	_lv_area_intersect
	.loc	2 96 15                         @ lvgl/src/lv_draw/lv_draw_triangle.c:96:15
	strb.w	r0, [sp, #79]
.Ltmp35:
	.loc	2 97 9 is_stmt 1                @ lvgl/src/lv_draw/lv_draw_triangle.c:97:9
	ldrb.w	r0, [sp, #79]
.Ltmp36:
	.loc	2 97 8 is_stmt 0                @ lvgl/src/lv_draw/lv_draw_triangle.c:97:8
	lsls	r0, r0, #31
	cbnz	r0, .LBB1_36
	b	.LBB1_35
.LBB1_35:
.Ltmp37:
	.loc	2 98 29 is_stmt 1               @ lvgl/src/lv_draw/lv_draw_triangle.c:98:29
	ldr	r0, [sp, #92]
	.loc	2 98 9 is_stmt 0                @ lvgl/src/lv_draw/lv_draw_triangle.c:98:9
	bl	_lv_mem_buf_release
	.loc	2 99 9 is_stmt 1                @ lvgl/src/lv_draw/lv_draw_triangle.c:99:9
	b	.LBB1_75
.Ltmp38:
.LBB1_36:
	.loc	2 102 24                        @ lvgl/src/lv_draw/lv_draw_triangle.c:102:24
	ldr	r0, [sp, #92]
	.loc	2 102 29 is_stmt 0              @ lvgl/src/lv_draw/lv_draw_triangle.c:102:29
	ldrh	r0, [r0, #2]
	.loc	2 102 16                        @ lvgl/src/lv_draw/lv_draw_triangle.c:102:16
	strh.w	r0, [sp, #66]
	movs	r0, #0
	.loc	2 103 13 is_stmt 1              @ lvgl/src/lv_draw/lv_draw_triangle.c:103:13
	strh.w	r0, [sp, #64]
	movs	r0, #1
.Ltmp39:
	.loc	2 105 11                        @ lvgl/src/lv_draw/lv_draw_triangle.c:105:11
	strh.w	r0, [sp, #90]
	.loc	2 105 9 is_stmt 0               @ lvgl/src/lv_draw/lv_draw_triangle.c:105:9
	b	.LBB1_37
.LBB1_37:                               @ =>This Inner Loop Header: Depth=1
.Ltmp40:
	.loc	2 105 16                        @ lvgl/src/lv_draw/lv_draw_triangle.c:105:16
	ldrh.w	r0, [sp, #90]
	.loc	2 105 20                        @ lvgl/src/lv_draw/lv_draw_triangle.c:105:20
	ldrh.w	r1, [sp, #106]
.Ltmp41:
	.loc	2 105 5                         @ lvgl/src/lv_draw/lv_draw_triangle.c:105:5
	cmp	r0, r1
	bge	.LBB1_42
	b	.LBB1_38
.LBB1_38:                               @   in Loop: Header=BB1_37 Depth=1
.Ltmp42:
	.loc	2 106 12 is_stmt 1              @ lvgl/src/lv_draw/lv_draw_triangle.c:106:12
	ldr	r0, [sp, #92]
	.loc	2 106 14 is_stmt 0              @ lvgl/src/lv_draw/lv_draw_triangle.c:106:14
	ldrh.w	r1, [sp, #90]
	.loc	2 106 12                        @ lvgl/src/lv_draw/lv_draw_triangle.c:106:12
	add.w	r0, r0, r1, lsl #2
	.loc	2 106 17                        @ lvgl/src/lv_draw/lv_draw_triangle.c:106:17
	ldrsh.w	r0, [r0, #2]
	.loc	2 106 21                        @ lvgl/src/lv_draw/lv_draw_triangle.c:106:21
	ldrsh.w	r1, [sp, #66]
.Ltmp43:
	.loc	2 106 12                        @ lvgl/src/lv_draw/lv_draw_triangle.c:106:12
	cmp	r0, r1
	bge	.LBB1_40
	b	.LBB1_39
.LBB1_39:                               @   in Loop: Header=BB1_37 Depth=1
.Ltmp44:
	.loc	2 107 21 is_stmt 1              @ lvgl/src/lv_draw/lv_draw_triangle.c:107:21
	ldr	r0, [sp, #92]
	.loc	2 107 23 is_stmt 0              @ lvgl/src/lv_draw/lv_draw_triangle.c:107:23
	ldrh.w	r1, [sp, #90]
	.loc	2 107 21                        @ lvgl/src/lv_draw/lv_draw_triangle.c:107:21
	add.w	r0, r0, r1, lsl #2
	.loc	2 107 26                        @ lvgl/src/lv_draw/lv_draw_triangle.c:107:26
	ldrh	r0, [r0, #2]
	.loc	2 107 19                        @ lvgl/src/lv_draw/lv_draw_triangle.c:107:19
	strh.w	r0, [sp, #66]
	.loc	2 108 23 is_stmt 1              @ lvgl/src/lv_draw/lv_draw_triangle.c:108:23
	ldrh.w	r0, [sp, #90]
	.loc	2 108 21 is_stmt 0              @ lvgl/src/lv_draw/lv_draw_triangle.c:108:21
	strh.w	r0, [sp, #64]
	.loc	2 109 9 is_stmt 1               @ lvgl/src/lv_draw/lv_draw_triangle.c:109:9
	b	.LBB1_40
.Ltmp45:
.LBB1_40:                               @   in Loop: Header=BB1_37 Depth=1
	.loc	2 110 5                         @ lvgl/src/lv_draw/lv_draw_triangle.c:110:5
	b	.LBB1_41
.Ltmp46:
.LBB1_41:                               @   in Loop: Header=BB1_37 Depth=1
	.loc	2 105 32                        @ lvgl/src/lv_draw/lv_draw_triangle.c:105:32
	ldrh.w	r0, [sp, #90]
	adds	r0, #1
	strh.w	r0, [sp, #90]
	.loc	2 105 5 is_stmt 0               @ lvgl/src/lv_draw/lv_draw_triangle.c:105:5
	b	.LBB1_37
.Ltmp47:
.LBB1_42:
	.loc	2 112 90 is_stmt 1              @ lvgl/src/lv_draw/lv_draw_triangle.c:112:90
	ldrh.w	r0, [sp, #106]
	movs	r1, #44
	.loc	2 112 88 is_stmt 0              @ lvgl/src/lv_draw/lv_draw_triangle.c:112:88
	muls	r0, r1, r0
	.loc	2 112 38                        @ lvgl/src/lv_draw/lv_draw_triangle.c:112:38
	bl	_lv_mem_buf_get
	.loc	2 112 33                        @ lvgl/src/lv_draw/lv_draw_triangle.c:112:33
	str	r0, [sp, #60]
	.loc	2 113 43 is_stmt 1              @ lvgl/src/lv_draw/lv_draw_triangle.c:113:43
	ldr	r0, [sp, #60]
	.loc	2 113 33 is_stmt 0              @ lvgl/src/lv_draw/lv_draw_triangle.c:113:33
	str	r0, [sp, #56]
	.loc	2 115 27 is_stmt 1              @ lvgl/src/lv_draw/lv_draw_triangle.c:115:27
	ldrsh.w	r0, [sp, #64]
	.loc	2 115 13 is_stmt 0              @ lvgl/src/lv_draw/lv_draw_triangle.c:115:13
	str	r0, [sp, #52]
	.loc	2 116 28 is_stmt 1              @ lvgl/src/lv_draw/lv_draw_triangle.c:116:28
	ldrsh.w	r0, [sp, #64]
	.loc	2 116 13 is_stmt 0              @ lvgl/src/lv_draw/lv_draw_triangle.c:116:13
	str	r0, [sp, #48]
	movs	r0, #0
	.loc	2 119 14 is_stmt 1              @ lvgl/src/lv_draw/lv_draw_triangle.c:119:14
	str	r0, [sp, #36]
	.loc	2 122 19                        @ lvgl/src/lv_draw/lv_draw_triangle.c:122:19
	ldrsh.w	r0, [sp, #64]
	.loc	2 122 27 is_stmt 0              @ lvgl/src/lv_draw/lv_draw_triangle.c:122:27
	subs	r0, #1
	.loc	2 122 17                        @ lvgl/src/lv_draw/lv_draw_triangle.c:122:17
	str	r0, [sp, #44]
.Ltmp48:
	.loc	2 123 8 is_stmt 1               @ lvgl/src/lv_draw/lv_draw_triangle.c:123:8
	ldr	r0, [sp, #44]
.Ltmp49:
	.loc	2 123 8 is_stmt 0               @ lvgl/src/lv_draw/lv_draw_triangle.c:123:8
	cmp.w	r0, #-1
	bgt	.LBB1_44
	b	.LBB1_43
.LBB1_43:
.Ltmp50:
	.loc	2 123 39                        @ lvgl/src/lv_draw/lv_draw_triangle.c:123:39
	ldrh.w	r0, [sp, #106]
	.loc	2 123 51                        @ lvgl/src/lv_draw/lv_draw_triangle.c:123:51
	ldr	r1, [sp, #44]
	.loc	2 123 49                        @ lvgl/src/lv_draw/lv_draw_triangle.c:123:49
	add	r0, r1
	.loc	2 123 37                        @ lvgl/src/lv_draw/lv_draw_triangle.c:123:37
	str	r0, [sp, #44]
	.loc	2 123 25                        @ lvgl/src/lv_draw/lv_draw_triangle.c:123:25
	b	.LBB1_44
.Ltmp51:
.LBB1_44:
	.loc	2 125 20 is_stmt 1              @ lvgl/src/lv_draw/lv_draw_triangle.c:125:20
	ldrsh.w	r0, [sp, #64]
	.loc	2 125 28 is_stmt 0              @ lvgl/src/lv_draw/lv_draw_triangle.c:125:28
	adds	r0, #1
	.loc	2 125 18                        @ lvgl/src/lv_draw/lv_draw_triangle.c:125:18
	str	r0, [sp, #40]
.Ltmp52:
	.loc	2 126 8 is_stmt 1               @ lvgl/src/lv_draw/lv_draw_triangle.c:126:8
	ldr	r0, [sp, #40]
	.loc	2 126 23 is_stmt 0              @ lvgl/src/lv_draw/lv_draw_triangle.c:126:23
	ldrh.w	r1, [sp, #106]
	.loc	2 126 33                        @ lvgl/src/lv_draw/lv_draw_triangle.c:126:33
	subs	r1, #1
.Ltmp53:
	.loc	2 126 8                         @ lvgl/src/lv_draw/lv_draw_triangle.c:126:8
	cmp	r0, r1
	ble	.LBB1_46
	b	.LBB1_45
.LBB1_45:
	.loc	2 0 8                           @ lvgl/src/lv_draw/lv_draw_triangle.c:0:8
	movs	r0, #0
.Ltmp54:
	.loc	2 126 51                        @ lvgl/src/lv_draw/lv_draw_triangle.c:126:51
	str	r0, [sp, #40]
	.loc	2 126 38                        @ lvgl/src/lv_draw/lv_draw_triangle.c:126:38
	b	.LBB1_46
.Ltmp55:
.LBB1_46:
	.loc	2 135 22 is_stmt 1              @ lvgl/src/lv_draw/lv_draw_triangle.c:135:22
	ldr	r1, [sp, #92]
	.loc	2 135 24 is_stmt 0              @ lvgl/src/lv_draw/lv_draw_triangle.c:135:24
	ldr	r0, [sp, #44]
	.loc	2 135 22                        @ lvgl/src/lv_draw/lv_draw_triangle.c:135:22
	ldrh.w	r0, [r1, r0, lsl #2]
	.loc	2 135 43                        @ lvgl/src/lv_draw/lv_draw_triangle.c:135:43
	ldrsh.w	r2, [sp, #64]
	.loc	2 135 41                        @ lvgl/src/lv_draw/lv_draw_triangle.c:135:41
	ldrh.w	r1, [r1, r2, lsl #2]
	.loc	2 135 39                        @ lvgl/src/lv_draw/lv_draw_triangle.c:135:39
	subs	r0, r0, r1
	.loc	2 135 16                        @ lvgl/src/lv_draw/lv_draw_triangle.c:135:16
	strh.w	r0, [sp, #34]
	.loc	2 136 22 is_stmt 1              @ lvgl/src/lv_draw/lv_draw_triangle.c:136:22
	ldr	r1, [sp, #92]
	.loc	2 136 24 is_stmt 0              @ lvgl/src/lv_draw/lv_draw_triangle.c:136:24
	ldr	r0, [sp, #40]
	.loc	2 136 22                        @ lvgl/src/lv_draw/lv_draw_triangle.c:136:22
	ldrh.w	r0, [r1, r0, lsl #2]
	.loc	2 136 44                        @ lvgl/src/lv_draw/lv_draw_triangle.c:136:44
	ldrsh.w	r2, [sp, #64]
	.loc	2 136 42                        @ lvgl/src/lv_draw/lv_draw_triangle.c:136:42
	ldrh.w	r1, [r1, r2, lsl #2]
	.loc	2 136 40                        @ lvgl/src/lv_draw/lv_draw_triangle.c:136:40
	subs	r0, r0, r1
	.loc	2 136 16                        @ lvgl/src/lv_draw/lv_draw_triangle.c:136:16
	strh.w	r0, [sp, #32]
	.loc	2 137 22 is_stmt 1              @ lvgl/src/lv_draw/lv_draw_triangle.c:137:22
	ldr	r1, [sp, #92]
	.loc	2 137 24 is_stmt 0              @ lvgl/src/lv_draw/lv_draw_triangle.c:137:24
	ldr	r0, [sp, #44]
	.loc	2 137 22                        @ lvgl/src/lv_draw/lv_draw_triangle.c:137:22
	add.w	r0, r1, r0, lsl #2
	ldrh	r0, [r0, #2]
	.loc	2 137 43                        @ lvgl/src/lv_draw/lv_draw_triangle.c:137:43
	ldrsh.w	r2, [sp, #64]
	.loc	2 137 41                        @ lvgl/src/lv_draw/lv_draw_triangle.c:137:41
	add.w	r1, r1, r2, lsl #2
	ldrh	r1, [r1, #2]
	.loc	2 137 39                        @ lvgl/src/lv_draw/lv_draw_triangle.c:137:39
	subs	r0, r0, r1
	.loc	2 137 16                        @ lvgl/src/lv_draw/lv_draw_triangle.c:137:16
	strh.w	r0, [sp, #30]
	.loc	2 138 22 is_stmt 1              @ lvgl/src/lv_draw/lv_draw_triangle.c:138:22
	ldr	r1, [sp, #92]
	.loc	2 138 24 is_stmt 0              @ lvgl/src/lv_draw/lv_draw_triangle.c:138:24
	ldr	r0, [sp, #40]
	.loc	2 138 22                        @ lvgl/src/lv_draw/lv_draw_triangle.c:138:22
	add.w	r0, r1, r0, lsl #2
	ldrh	r0, [r0, #2]
	.loc	2 138 44                        @ lvgl/src/lv_draw/lv_draw_triangle.c:138:44
	ldrsh.w	r2, [sp, #64]
	.loc	2 138 42                        @ lvgl/src/lv_draw/lv_draw_triangle.c:138:42
	add.w	r1, r1, r2, lsl #2
	ldrh	r1, [r1, #2]
	.loc	2 138 40                        @ lvgl/src/lv_draw/lv_draw_triangle.c:138:40
	subs	r0, r0, r1
	.loc	2 138 16                        @ lvgl/src/lv_draw/lv_draw_triangle.c:138:16
	strh.w	r0, [sp, #28]
	movs	r0, #0
	.loc	2 140 10 is_stmt 1              @ lvgl/src/lv_draw/lv_draw_triangle.c:140:10
	strb.w	r0, [sp, #27]
.Ltmp56:
	.loc	2 141 8                         @ lvgl/src/lv_draw/lv_draw_triangle.c:141:8
	ldrsh.w	r0, [sp, #30]
	.loc	2 141 14 is_stmt 0              @ lvgl/src/lv_draw/lv_draw_triangle.c:141:14
	ldrsh.w	r1, [sp, #32]
	.loc	2 141 12                        @ lvgl/src/lv_draw/lv_draw_triangle.c:141:12
	muls	r0, r1, r0
	.loc	2 141 20                        @ lvgl/src/lv_draw/lv_draw_triangle.c:141:20
	ldrsh.w	r1, [sp, #28]
	.loc	2 141 26                        @ lvgl/src/lv_draw/lv_draw_triangle.c:141:26
	ldrsh.w	r2, [sp, #34]
	.loc	2 141 24                        @ lvgl/src/lv_draw/lv_draw_triangle.c:141:24
	muls	r1, r2, r1
.Ltmp57:
	.loc	2 141 8                         @ lvgl/src/lv_draw/lv_draw_triangle.c:141:8
	cmp	r0, r1
	bge	.LBB1_48
	b	.LBB1_47
.LBB1_47:
	.loc	2 0 8                           @ lvgl/src/lv_draw/lv_draw_triangle.c:0:8
	movs	r0, #1
.Ltmp58:
	.loc	2 141 35                        @ lvgl/src/lv_draw/lv_draw_triangle.c:141:35
	strb.w	r0, [sp, #27]
	.loc	2 141 31                        @ lvgl/src/lv_draw/lv_draw_triangle.c:141:31
	b	.LBB1_48
.Ltmp59:
.LBB1_48:
	.loc	2 143 5 is_stmt 1               @ lvgl/src/lv_draw/lv_draw_triangle.c:143:5
	b	.LBB1_49
.LBB1_49:                               @ =>This Inner Loop Header: Depth=1
.Ltmp60:
	.loc	2 144 13                        @ lvgl/src/lv_draw/lv_draw_triangle.c:144:13
	ldrb.w	r0, [sp, #27]
.Ltmp61:
	.loc	2 144 12 is_stmt 0              @ lvgl/src/lv_draw/lv_draw_triangle.c:144:12
	lsls	r0, r0, #31
	cbnz	r0, .LBB1_55
	b	.LBB1_50
.LBB1_50:                               @   in Loop: Header=BB1_49 Depth=1
.Ltmp62:
	.loc	2 145 27 is_stmt 1              @ lvgl/src/lv_draw/lv_draw_triangle.c:145:27
	ldr	r0, [sp, #52]
	.loc	2 145 39 is_stmt 0              @ lvgl/src/lv_draw/lv_draw_triangle.c:145:39
	subs	r0, #1
	.loc	2 145 25                        @ lvgl/src/lv_draw/lv_draw_triangle.c:145:25
	str	r0, [sp, #44]
.Ltmp63:
	.loc	2 146 16 is_stmt 1              @ lvgl/src/lv_draw/lv_draw_triangle.c:146:16
	ldr	r0, [sp, #44]
.Ltmp64:
	.loc	2 146 16 is_stmt 0              @ lvgl/src/lv_draw/lv_draw_triangle.c:146:16
	cmp.w	r0, #-1
	bgt	.LBB1_52
	b	.LBB1_51
.LBB1_51:                               @   in Loop: Header=BB1_49 Depth=1
.Ltmp65:
	.loc	2 146 47                        @ lvgl/src/lv_draw/lv_draw_triangle.c:146:47
	ldrh.w	r0, [sp, #106]
	.loc	2 146 59                        @ lvgl/src/lv_draw/lv_draw_triangle.c:146:59
	ldr	r1, [sp, #44]
	.loc	2 146 57                        @ lvgl/src/lv_draw/lv_draw_triangle.c:146:57
	add	r0, r1
	.loc	2 146 45                        @ lvgl/src/lv_draw/lv_draw_triangle.c:146:45
	str	r0, [sp, #44]
	.loc	2 146 33                        @ lvgl/src/lv_draw/lv_draw_triangle.c:146:33
	b	.LBB1_52
.Ltmp66:
.LBB1_52:                               @   in Loop: Header=BB1_49 Depth=1
	.loc	2 148 28 is_stmt 1              @ lvgl/src/lv_draw/lv_draw_triangle.c:148:28
	ldr	r0, [sp, #48]
	.loc	2 148 41 is_stmt 0              @ lvgl/src/lv_draw/lv_draw_triangle.c:148:41
	adds	r0, #1
	.loc	2 148 26                        @ lvgl/src/lv_draw/lv_draw_triangle.c:148:26
	str	r0, [sp, #40]
.Ltmp67:
	.loc	2 149 16 is_stmt 1              @ lvgl/src/lv_draw/lv_draw_triangle.c:149:16
	ldr	r0, [sp, #40]
	.loc	2 149 31 is_stmt 0              @ lvgl/src/lv_draw/lv_draw_triangle.c:149:31
	ldrh.w	r1, [sp, #106]
	.loc	2 149 41                        @ lvgl/src/lv_draw/lv_draw_triangle.c:149:41
	subs	r1, #1
.Ltmp68:
	.loc	2 149 16                        @ lvgl/src/lv_draw/lv_draw_triangle.c:149:16
	cmp	r0, r1
	ble	.LBB1_54
	b	.LBB1_53
.LBB1_53:                               @   in Loop: Header=BB1_49 Depth=1
	.loc	2 0 16                          @ lvgl/src/lv_draw/lv_draw_triangle.c:0:16
	movs	r0, #0
.Ltmp69:
	.loc	2 149 59                        @ lvgl/src/lv_draw/lv_draw_triangle.c:149:59
	str	r0, [sp, #40]
	.loc	2 149 46                        @ lvgl/src/lv_draw/lv_draw_triangle.c:149:46
	b	.LBB1_54
.Ltmp70:
.LBB1_54:                               @   in Loop: Header=BB1_49 Depth=1
	.loc	2 150 9 is_stmt 1               @ lvgl/src/lv_draw/lv_draw_triangle.c:150:9
	b	.LBB1_60
.Ltmp71:
.LBB1_55:                               @   in Loop: Header=BB1_49 Depth=1
	.loc	2 152 27                        @ lvgl/src/lv_draw/lv_draw_triangle.c:152:27
	ldr	r0, [sp, #52]
	.loc	2 152 39 is_stmt 0              @ lvgl/src/lv_draw/lv_draw_triangle.c:152:39
	adds	r0, #1
	.loc	2 152 25                        @ lvgl/src/lv_draw/lv_draw_triangle.c:152:25
	str	r0, [sp, #44]
.Ltmp72:
	.loc	2 153 16 is_stmt 1              @ lvgl/src/lv_draw/lv_draw_triangle.c:153:16
	ldr	r0, [sp, #44]
	.loc	2 153 30 is_stmt 0              @ lvgl/src/lv_draw/lv_draw_triangle.c:153:30
	ldrh.w	r1, [sp, #106]
	.loc	2 153 40                        @ lvgl/src/lv_draw/lv_draw_triangle.c:153:40
	subs	r1, #1
.Ltmp73:
	.loc	2 153 16                        @ lvgl/src/lv_draw/lv_draw_triangle.c:153:16
	cmp	r0, r1
	ble	.LBB1_57
	b	.LBB1_56
.LBB1_56:                               @   in Loop: Header=BB1_49 Depth=1
	.loc	2 0 16                          @ lvgl/src/lv_draw/lv_draw_triangle.c:0:16
	movs	r0, #0
.Ltmp74:
	.loc	2 153 57                        @ lvgl/src/lv_draw/lv_draw_triangle.c:153:57
	str	r0, [sp, #44]
	.loc	2 153 45                        @ lvgl/src/lv_draw/lv_draw_triangle.c:153:45
	b	.LBB1_57
.Ltmp75:
.LBB1_57:                               @   in Loop: Header=BB1_49 Depth=1
	.loc	2 155 28 is_stmt 1              @ lvgl/src/lv_draw/lv_draw_triangle.c:155:28
	ldr	r0, [sp, #48]
	.loc	2 155 41 is_stmt 0              @ lvgl/src/lv_draw/lv_draw_triangle.c:155:41
	subs	r0, #1
	.loc	2 155 26                        @ lvgl/src/lv_draw/lv_draw_triangle.c:155:26
	str	r0, [sp, #40]
.Ltmp76:
	.loc	2 156 16 is_stmt 1              @ lvgl/src/lv_draw/lv_draw_triangle.c:156:16
	ldr	r0, [sp, #40]
.Ltmp77:
	.loc	2 156 16 is_stmt 0              @ lvgl/src/lv_draw/lv_draw_triangle.c:156:16
	cmp.w	r0, #-1
	bgt	.LBB1_59
	b	.LBB1_58
.LBB1_58:                               @   in Loop: Header=BB1_49 Depth=1
.Ltmp78:
	.loc	2 156 49                        @ lvgl/src/lv_draw/lv_draw_triangle.c:156:49
	ldrh.w	r0, [sp, #106]
	.loc	2 156 61                        @ lvgl/src/lv_draw/lv_draw_triangle.c:156:61
	ldr	r1, [sp, #40]
	.loc	2 156 59                        @ lvgl/src/lv_draw/lv_draw_triangle.c:156:59
	add	r0, r1
	.loc	2 156 47                        @ lvgl/src/lv_draw/lv_draw_triangle.c:156:47
	str	r0, [sp, #40]
	.loc	2 156 34                        @ lvgl/src/lv_draw/lv_draw_triangle.c:156:34
	b	.LBB1_59
.Ltmp79:
.LBB1_59:                               @   in Loop: Header=BB1_49 Depth=1
	.loc	2 0 34                          @ lvgl/src/lv_draw/lv_draw_triangle.c:0:34
	b	.LBB1_60
.LBB1_60:                               @   in Loop: Header=BB1_49 Depth=1
.Ltmp80:
	.loc	2 159 12 is_stmt 1              @ lvgl/src/lv_draw/lv_draw_triangle.c:159:12
	ldr	r1, [sp, #92]
	.loc	2 159 14 is_stmt 0              @ lvgl/src/lv_draw/lv_draw_triangle.c:159:14
	ldr	r0, [sp, #44]
	.loc	2 159 12                        @ lvgl/src/lv_draw/lv_draw_triangle.c:159:12
	add.w	r0, r1, r0, lsl #2
	.loc	2 159 27                        @ lvgl/src/lv_draw/lv_draw_triangle.c:159:27
	ldrsh.w	r0, [r0, #2]
	.loc	2 159 35                        @ lvgl/src/lv_draw/lv_draw_triangle.c:159:35
	ldr	r2, [sp, #52]
	.loc	2 159 33                        @ lvgl/src/lv_draw/lv_draw_triangle.c:159:33
	add.w	r1, r1, r2, lsl #2
	.loc	2 159 48                        @ lvgl/src/lv_draw/lv_draw_triangle.c:159:48
	ldrsh.w	r1, [r1, #2]
.Ltmp81:
	.loc	2 159 12                        @ lvgl/src/lv_draw/lv_draw_triangle.c:159:12
	cmp	r0, r1
	blt	.LBB1_65
	b	.LBB1_61
.LBB1_61:                               @   in Loop: Header=BB1_49 Depth=1
.Ltmp82:
	.loc	2 160 16 is_stmt 1              @ lvgl/src/lv_draw/lv_draw_triangle.c:160:16
	ldr	r1, [sp, #92]
	.loc	2 160 18 is_stmt 0              @ lvgl/src/lv_draw/lv_draw_triangle.c:160:18
	ldr	r0, [sp, #44]
	.loc	2 160 16                        @ lvgl/src/lv_draw/lv_draw_triangle.c:160:16
	add.w	r0, r1, r0, lsl #2
	.loc	2 160 31                        @ lvgl/src/lv_draw/lv_draw_triangle.c:160:31
	ldrsh.w	r0, [r0, #2]
	.loc	2 160 38                        @ lvgl/src/lv_draw/lv_draw_triangle.c:160:38
	ldr	r2, [sp, #52]
	.loc	2 160 36                        @ lvgl/src/lv_draw/lv_draw_triangle.c:160:36
	add.w	r1, r1, r2, lsl #2
	.loc	2 160 51                        @ lvgl/src/lv_draw/lv_draw_triangle.c:160:51
	ldrsh.w	r1, [r1, #2]
	.loc	2 160 53                        @ lvgl/src/lv_draw/lv_draw_triangle.c:160:53
	cmp	r0, r1
	beq	.LBB1_64
	b	.LBB1_62
.LBB1_62:                               @   in Loop: Header=BB1_49 Depth=1
	.loc	2 161 16 is_stmt 1              @ lvgl/src/lv_draw/lv_draw_triangle.c:161:16
	ldr	r1, [sp, #92]
	.loc	2 161 18 is_stmt 0              @ lvgl/src/lv_draw/lv_draw_triangle.c:161:18
	ldr	r0, [sp, #44]
	.loc	2 161 31                        @ lvgl/src/lv_draw/lv_draw_triangle.c:161:31
	ldrsh.w	r0, [r1, r0, lsl #2]
	.loc	2 161 39                        @ lvgl/src/lv_draw/lv_draw_triangle.c:161:39
	ldr	r2, [sp, #52]
	.loc	2 161 52                        @ lvgl/src/lv_draw/lv_draw_triangle.c:161:52
	ldrsh.w	r1, [r1, r2, lsl #2]
.Ltmp83:
	.loc	2 160 16 is_stmt 1              @ lvgl/src/lv_draw/lv_draw_triangle.c:160:16
	cmp	r0, r1
	beq	.LBB1_64
	b	.LBB1_63
.LBB1_63:                               @   in Loop: Header=BB1_49 Depth=1
.Ltmp84:
	.loc	2 162 47                        @ lvgl/src/lv_draw/lv_draw_triangle.c:162:47
	ldr	r0, [sp, #56]
	.loc	2 162 56 is_stmt 0              @ lvgl/src/lv_draw/lv_draw_triangle.c:162:56
	ldr	r3, [sp, #92]
	.loc	2 162 58                        @ lvgl/src/lv_draw/lv_draw_triangle.c:162:58
	ldr	r1, [sp, #52]
	.loc	2 162 56                        @ lvgl/src/lv_draw/lv_draw_triangle.c:162:56
	add.w	r2, r3, r1, lsl #2
	.loc	2 162 71                        @ lvgl/src/lv_draw/lv_draw_triangle.c:162:71
	ldrsh.w	r1, [r3, r1, lsl #2]
	.loc	2 162 89                        @ lvgl/src/lv_draw/lv_draw_triangle.c:162:89
	ldrsh.w	r2, [r2, #2]
	.loc	2 163 49 is_stmt 1              @ lvgl/src/lv_draw/lv_draw_triangle.c:163:49
	ldr.w	lr, [sp, #44]
	.loc	2 163 47 is_stmt 0              @ lvgl/src/lv_draw/lv_draw_triangle.c:163:47
	add.w	r12, r3, lr, lsl #2
	.loc	2 163 62                        @ lvgl/src/lv_draw/lv_draw_triangle.c:163:62
	ldrsh.w	r3, [r3, lr, lsl #2]
	.loc	2 163 80                        @ lvgl/src/lv_draw/lv_draw_triangle.c:163:80
	ldrsh.w	r12, [r12, #2]
	.loc	2 162 17 is_stmt 1              @ lvgl/src/lv_draw/lv_draw_triangle.c:162:17
	mov	lr, sp
	movs	r4, #1
	str.w	r4, [lr, #4]
	str.w	r12, [lr]
	bl	lv_draw_mask_line_points_init
	.loc	2 165 34                        @ lvgl/src/lv_draw/lv_draw_triangle.c:165:34
	ldr	r0, [sp, #56]
	.loc	2 165 43 is_stmt 0              @ lvgl/src/lv_draw/lv_draw_triangle.c:165:43
	ldr	r1, [sp, #60]
	.loc	2 165 17                        @ lvgl/src/lv_draw/lv_draw_triangle.c:165:17
	bl	lv_draw_mask_add
	.loc	2 166 24 is_stmt 1              @ lvgl/src/lv_draw/lv_draw_triangle.c:166:24
	ldr	r0, [sp, #56]
	adds	r0, #44
	str	r0, [sp, #56]
	.loc	2 167 13                        @ lvgl/src/lv_draw/lv_draw_triangle.c:167:13
	b	.LBB1_64
.Ltmp85:
.LBB1_64:                               @   in Loop: Header=BB1_49 Depth=1
	.loc	2 168 21                        @ lvgl/src/lv_draw/lv_draw_triangle.c:168:21
	ldr	r0, [sp, #36]
	adds	r0, #1
	str	r0, [sp, #36]
	.loc	2 169 27                        @ lvgl/src/lv_draw/lv_draw_triangle.c:169:27
	ldr	r0, [sp, #44]
	.loc	2 169 25 is_stmt 0              @ lvgl/src/lv_draw/lv_draw_triangle.c:169:25
	str	r0, [sp, #52]
	.loc	2 170 9 is_stmt 1               @ lvgl/src/lv_draw/lv_draw_triangle.c:170:9
	b	.LBB1_65
.Ltmp86:
.LBB1_65:                               @   in Loop: Header=BB1_49 Depth=1
	.loc	2 172 12                        @ lvgl/src/lv_draw/lv_draw_triangle.c:172:12
	ldr	r0, [sp, #36]
	.loc	2 172 24 is_stmt 0              @ lvgl/src/lv_draw/lv_draw_triangle.c:172:24
	ldrh.w	r1, [sp, #106]
.Ltmp87:
	.loc	2 172 12                        @ lvgl/src/lv_draw/lv_draw_triangle.c:172:12
	cmp	r0, r1
	bne	.LBB1_67
	b	.LBB1_66
.LBB1_66:
.Ltmp88:
	.loc	2 172 35                        @ lvgl/src/lv_draw/lv_draw_triangle.c:172:35
	b	.LBB1_74
.Ltmp89:
.LBB1_67:                               @   in Loop: Header=BB1_49 Depth=1
	.loc	2 174 12 is_stmt 1              @ lvgl/src/lv_draw/lv_draw_triangle.c:174:12
	ldr	r1, [sp, #92]
	.loc	2 174 14 is_stmt 0              @ lvgl/src/lv_draw/lv_draw_triangle.c:174:14
	ldr	r0, [sp, #40]
	.loc	2 174 12                        @ lvgl/src/lv_draw/lv_draw_triangle.c:174:12
	add.w	r0, r1, r0, lsl #2
	.loc	2 174 28                        @ lvgl/src/lv_draw/lv_draw_triangle.c:174:28
	ldrsh.w	r0, [r0, #2]
	.loc	2 174 36                        @ lvgl/src/lv_draw/lv_draw_triangle.c:174:36
	ldr	r2, [sp, #48]
	.loc	2 174 34                        @ lvgl/src/lv_draw/lv_draw_triangle.c:174:34
	add.w	r1, r1, r2, lsl #2
	.loc	2 174 50                        @ lvgl/src/lv_draw/lv_draw_triangle.c:174:50
	ldrsh.w	r1, [r1, #2]
.Ltmp90:
	.loc	2 174 12                        @ lvgl/src/lv_draw/lv_draw_triangle.c:174:12
	cmp	r0, r1
	blt	.LBB1_72
	b	.LBB1_68
.LBB1_68:                               @   in Loop: Header=BB1_49 Depth=1
.Ltmp91:
	.loc	2 175 16 is_stmt 1              @ lvgl/src/lv_draw/lv_draw_triangle.c:175:16
	ldr	r1, [sp, #92]
	.loc	2 175 18 is_stmt 0              @ lvgl/src/lv_draw/lv_draw_triangle.c:175:18
	ldr	r0, [sp, #40]
	.loc	2 175 16                        @ lvgl/src/lv_draw/lv_draw_triangle.c:175:16
	add.w	r0, r1, r0, lsl #2
	.loc	2 175 32                        @ lvgl/src/lv_draw/lv_draw_triangle.c:175:32
	ldrsh.w	r0, [r0, #2]
	.loc	2 175 39                        @ lvgl/src/lv_draw/lv_draw_triangle.c:175:39
	ldr	r2, [sp, #48]
	.loc	2 175 37                        @ lvgl/src/lv_draw/lv_draw_triangle.c:175:37
	add.w	r1, r1, r2, lsl #2
	.loc	2 175 53                        @ lvgl/src/lv_draw/lv_draw_triangle.c:175:53
	ldrsh.w	r1, [r1, #2]
	.loc	2 175 55                        @ lvgl/src/lv_draw/lv_draw_triangle.c:175:55
	cmp	r0, r1
	beq	.LBB1_71
	b	.LBB1_69
.LBB1_69:                               @   in Loop: Header=BB1_49 Depth=1
	.loc	2 176 16 is_stmt 1              @ lvgl/src/lv_draw/lv_draw_triangle.c:176:16
	ldr	r1, [sp, #92]
	.loc	2 176 18 is_stmt 0              @ lvgl/src/lv_draw/lv_draw_triangle.c:176:18
	ldr	r0, [sp, #40]
	.loc	2 176 32                        @ lvgl/src/lv_draw/lv_draw_triangle.c:176:32
	ldrsh.w	r0, [r1, r0, lsl #2]
	.loc	2 176 40                        @ lvgl/src/lv_draw/lv_draw_triangle.c:176:40
	ldr	r2, [sp, #48]
	.loc	2 176 54                        @ lvgl/src/lv_draw/lv_draw_triangle.c:176:54
	ldrsh.w	r1, [r1, r2, lsl #2]
.Ltmp92:
	.loc	2 175 16 is_stmt 1              @ lvgl/src/lv_draw/lv_draw_triangle.c:175:16
	cmp	r0, r1
	beq	.LBB1_71
	b	.LBB1_70
.LBB1_70:                               @   in Loop: Header=BB1_49 Depth=1
.Ltmp93:
	.loc	2 178 47                        @ lvgl/src/lv_draw/lv_draw_triangle.c:178:47
	ldr	r0, [sp, #56]
	.loc	2 178 56 is_stmt 0              @ lvgl/src/lv_draw/lv_draw_triangle.c:178:56
	ldr	r3, [sp, #92]
	.loc	2 178 58                        @ lvgl/src/lv_draw/lv_draw_triangle.c:178:58
	ldr	r1, [sp, #48]
	.loc	2 178 56                        @ lvgl/src/lv_draw/lv_draw_triangle.c:178:56
	add.w	r2, r3, r1, lsl #2
	.loc	2 178 72                        @ lvgl/src/lv_draw/lv_draw_triangle.c:178:72
	ldrsh.w	r1, [r3, r1, lsl #2]
	.loc	2 178 91                        @ lvgl/src/lv_draw/lv_draw_triangle.c:178:91
	ldrsh.w	r2, [r2, #2]
	.loc	2 179 49 is_stmt 1              @ lvgl/src/lv_draw/lv_draw_triangle.c:179:49
	ldr.w	lr, [sp, #40]
	.loc	2 179 47 is_stmt 0              @ lvgl/src/lv_draw/lv_draw_triangle.c:179:47
	add.w	r12, r3, lr, lsl #2
	.loc	2 179 63                        @ lvgl/src/lv_draw/lv_draw_triangle.c:179:63
	ldrsh.w	r3, [r3, lr, lsl #2]
	.loc	2 179 82                        @ lvgl/src/lv_draw/lv_draw_triangle.c:179:82
	ldrsh.w	r12, [r12, #2]
	.loc	2 178 17 is_stmt 1              @ lvgl/src/lv_draw/lv_draw_triangle.c:178:17
	mov	lr, sp
	movs	r4, #0
	str.w	r4, [lr, #4]
	str.w	r12, [lr]
	bl	lv_draw_mask_line_points_init
	.loc	2 181 34                        @ lvgl/src/lv_draw/lv_draw_triangle.c:181:34
	ldr	r0, [sp, #56]
	.loc	2 181 43 is_stmt 0              @ lvgl/src/lv_draw/lv_draw_triangle.c:181:43
	ldr	r1, [sp, #60]
	.loc	2 181 17                        @ lvgl/src/lv_draw/lv_draw_triangle.c:181:17
	bl	lv_draw_mask_add
	.loc	2 182 24 is_stmt 1              @ lvgl/src/lv_draw/lv_draw_triangle.c:182:24
	ldr	r0, [sp, #56]
	adds	r0, #44
	str	r0, [sp, #56]
	.loc	2 183 13                        @ lvgl/src/lv_draw/lv_draw_triangle.c:183:13
	b	.LBB1_71
.Ltmp94:
.LBB1_71:                               @   in Loop: Header=BB1_49 Depth=1
	.loc	2 184 21                        @ lvgl/src/lv_draw/lv_draw_triangle.c:184:21
	ldr	r0, [sp, #36]
	adds	r0, #1
	str	r0, [sp, #36]
	.loc	2 185 28                        @ lvgl/src/lv_draw/lv_draw_triangle.c:185:28
	ldr	r0, [sp, #40]
	.loc	2 185 26 is_stmt 0              @ lvgl/src/lv_draw/lv_draw_triangle.c:185:26
	str	r0, [sp, #48]
	.loc	2 186 9 is_stmt 1               @ lvgl/src/lv_draw/lv_draw_triangle.c:186:9
	b	.LBB1_72
.Ltmp95:
.LBB1_72:                               @   in Loop: Header=BB1_49 Depth=1
	.loc	2 188 5                         @ lvgl/src/lv_draw/lv_draw_triangle.c:188:5
	b	.LBB1_73
.Ltmp96:
.LBB1_73:                               @   in Loop: Header=BB1_49 Depth=1
	.loc	2 188 13 is_stmt 0              @ lvgl/src/lv_draw/lv_draw_triangle.c:188:13
	ldr	r0, [sp, #36]
	.loc	2 188 24                        @ lvgl/src/lv_draw/lv_draw_triangle.c:188:24
	ldrh.w	r1, [sp, #106]
.Ltmp97:
	.loc	2 188 5                         @ lvgl/src/lv_draw/lv_draw_triangle.c:188:5
	cmp	r0, r1
	blo.w	.LBB1_49
	b	.LBB1_74
.Ltmp98:
.LBB1_74:
	.loc	2 190 32 is_stmt 1              @ lvgl/src/lv_draw/lv_draw_triangle.c:190:32
	ldr	r1, [sp, #100]
	.loc	2 190 43 is_stmt 0              @ lvgl/src/lv_draw/lv_draw_triangle.c:190:43
	ldr	r2, [sp, #96]
	add	r0, sp, #80
	.loc	2 190 5                         @ lvgl/src/lv_draw/lv_draw_triangle.c:190:5
	bl	lv_draw_rect
	.loc	2 192 32 is_stmt 1              @ lvgl/src/lv_draw/lv_draw_triangle.c:192:32
	ldr	r0, [sp, #60]
	.loc	2 192 5 is_stmt 0               @ lvgl/src/lv_draw/lv_draw_triangle.c:192:5
	bl	lv_draw_mask_remove_custom
	.loc	2 194 25 is_stmt 1              @ lvgl/src/lv_draw/lv_draw_triangle.c:194:25
	ldr	r0, [sp, #60]
	.loc	2 194 5 is_stmt 0               @ lvgl/src/lv_draw/lv_draw_triangle.c:194:5
	bl	_lv_mem_buf_release
	.loc	2 195 25 is_stmt 1              @ lvgl/src/lv_draw/lv_draw_triangle.c:195:25
	ldr	r0, [sp, #92]
	.loc	2 195 5 is_stmt 0               @ lvgl/src/lv_draw/lv_draw_triangle.c:195:5
	bl	_lv_mem_buf_release
	.loc	2 197 1 is_stmt 1               @ lvgl/src/lv_draw/lv_draw_triangle.c:197:1
	b	.LBB1_75
.LBB1_75:
	add	sp, #112
	pop	{r4, pc}
.Ltmp99:
.Lfunc_end1:
	.size	lv_draw_polygon, .Lfunc_end1-lv_draw_polygon
	.cfi_endproc
	.cantunwind
	.fnend
                                        @ -- End function
	.type	.L__const.lv_draw_polygon.poly_coords,%object @ @__const.lv_draw_polygon.poly_coords
	.section	.rodata.cst8,"aM",%progbits,8
	.p2align	1
.L__const.lv_draw_polygon.poly_coords:
	.short	31768                           @ 0x7c18
	.short	31768                           @ 0x7c18
	.short	33768                           @ 0x83e8
	.short	33768                           @ 0x83e8
	.size	.L__const.lv_draw_polygon.poly_coords, 8

	.file	3 "D:\\Keil_v5\\ARM\\ARMCLANG\\Bin\\..\\include" "stdint.h"
	.file	4 "E:\\STM32\\Learning\\STM32H750_ART_PI_RGBLCD" "./lvgl/src/lv_conf.h"
	.file	5 "E:\\STM32\\Learning\\STM32H750_ART_PI_RGBLCD" "lvgl/src/lv_draw/../lv_misc/lv_area.h"
	.file	6 "E:\\STM32\\Learning\\STM32H750_ART_PI_RGBLCD" "lvgl/src/lv_draw/../lv_core/lv_style.h"
	.file	7 "E:\\STM32\\Learning\\STM32H750_ART_PI_RGBLCD" "lvgl/src/lv_draw/lv_draw_rect.h"
	.file	8 "E:\\STM32\\Learning\\STM32H750_ART_PI_RGBLCD" "lvgl/src/lv_draw/../lv_misc/lv_color.h"
	.file	9 "E:\\STM32\\Learning\\STM32H750_ART_PI_RGBLCD" "lvgl/src/lv_draw/../lv_core/../lv_draw/lv_draw_blend.h"
	.file	10 "E:\\STM32\\Learning\\STM32H750_ART_PI_RGBLCD" "lvgl/src/lv_draw/../lv_core/../lv_font/lv_font.h"
	.section	".note.GNU-stack","",%progbits
	.eabi_attribute	30, 6	@ Tag_ABI_optimization_goals
	.ARM_attribute	16, 1	@ Tag_AV_eba