	.text
	.syntax unified
	.eabi_attribute	67, "2.09"	@ Tag_conformance
	.cpu	cortex-m7
	.eabi_attribute	6, 13	@ Tag_CPU_arch
	.eabi_attribute	7, 77	@ Tag_CPU_arch_profile
	.eabi_attribute	8, 0	@ Tag_ARM_ISA_use
	.eabi_attribute	9, 2	@ Tag_THUMB_ISA_use
	.fpu	fpv5-d16
	.eabi_attribute	36, 1	@ Tag_FP_HP_extension
	.eabi_attribute	34, 1	@ Tag_CPU_unaligned_access
	.eabi_attribute	17, 1	@ Tag_ABI_PCS_GOT_use
	.eabi_attribute	20, 2	@ Tag_ABI_FP_denormal
	.eabi_attribute	21, 0	@ Tag_ABI_FP_exceptions
	.eabi_attribute	23, 1	@ Tag_ABI_FP_number_model
	.eabi_attribute	24, 1	@ Tag_ABI_align_needed
	.eabi_attribute	25, 1	@ Tag_ABI_align_preserved
	.eabi_attribute	28, 1	@ Tag_ABI_VFP_args
	.eabi_attribute	38, 1	@ Tag_ABI_FP_16bit_format
	.eabi_attribute	18, 2	@ Tag_ABI_PCS_wchar_t
	.eabi_attribute	26, 1	@ Tag_ABI_enum_size
	.eabi_attribute	14, 0	@ Tag_ABI_PCS_R9_use
	.file	"lv_font_fmt_txt.c"
	.file	1 "D:\\Keil_v5\\ARM\\ARMCLANG\\Bin\\..\\include" "stdint.h"
	.file	2 "E:\\Smart-access-control\\Hardware\\CODE" "lvgl/src/lv_font/lv_font_fmt_txt.c"
	.file	3 "E:\\Smart-access-control\\Hardware\\CODE" "lvgl/src/lv_font/lv_font_fmt_txt.h"
	.section	.text.lv_font_get_bitmap_fmt_txt,"ax",%progbits
	.hidden	lv_font_get_bitmap_fmt_txt      @ -- Begin function lv_font_get_bitmap_fmt_txt
	.globl	lv_font_get_bitmap_fmt_txt
	.p2align	3
	.type	lv_font_get_bitmap_fmt_txt,%function
	.code	16                              @ @lv_font_get_bitmap_fmt_txt
	.thumb_func
lv_font_get_bitmap_fmt_txt:
.Lfunc_begin0:
	.loc	2 80 0                          @ lvgl/src/lv_font/lv_font_fmt_txt.c:80:0
	.fnstart
	.cfi_sections .debug_frame
	.cfi_startproc
@ %bb.0:
	.save	{r4, lr}
	push	{r4, lr}
	.cfi_def_cfa_offset 8
	.cfi_offset lr, -4
	.cfi_offset r4, -8
	.pad	#56
	sub	sp, #56
	.cfi_def_cfa_offset 64
	str	r0, [sp, #48]
	str	r1, [sp, #44]
.Ltmp0:
	.loc	2 81 8 prologue_end             @ lvgl/src/lv_font/lv_font_fmt_txt.c:81:8
	ldr	r0, [sp, #44]
.Ltmp1:
	.loc	2 81 8 is_stmt 0                @ lvgl/src/lv_font/lv_font_fmt_txt.c:81:8
	cmp	r0, #9
	bne	.LBB0_2
	b	.LBB0_1
.LBB0_1:
	.loc	2 0 8                           @ lvgl/src/lv_font/lv_font_fmt_txt.c:0:8
	movs	r0, #32
.Ltmp2:
	.loc	2 81 47                         @ lvgl/src/lv_font/lv_font_fmt_txt.c:81:47
	str	r0, [sp, #44]
	.loc	2 81 32                         @ lvgl/src/lv_font/lv_font_fmt_txt.c:81:32
	b	.LBB0_2
.Ltmp3:
.LBB0_2:
	.loc	2 83 62 is_stmt 1               @ lvgl/src/lv_font/lv_font_fmt_txt.c:83:62
	ldr	r0, [sp, #48]
	.loc	2 83 68 is_stmt 0               @ lvgl/src/lv_font/lv_font_fmt_txt.c:83:68
	ldr	r0, [r0, #16]
	.loc	2 83 29                         @ lvgl/src/lv_font/lv_font_fmt_txt.c:83:29
	str	r0, [sp, #40]
	.loc	2 84 37 is_stmt 1               @ lvgl/src/lv_font/lv_font_fmt_txt.c:84:37
	ldr	r0, [sp, #48]
	.loc	2 84 43 is_stmt 0               @ lvgl/src/lv_font/lv_font_fmt_txt.c:84:43
	ldr	r1, [sp, #44]
	.loc	2 84 20                         @ lvgl/src/lv_font/lv_font_fmt_txt.c:84:20
	bl	get_glyph_dsc_id
	.loc	2 84 14                         @ lvgl/src/lv_font/lv_font_fmt_txt.c:84:14
	str	r0, [sp, #36]
.Ltmp4:
	.loc	2 85 9 is_stmt 1                @ lvgl/src/lv_font/lv_font_fmt_txt.c:85:9
	ldr	r0, [sp, #36]
.Ltmp5:
	.loc	2 85 8 is_stmt 0                @ lvgl/src/lv_font/lv_font_fmt_txt.c:85:8
	cbnz	r0, .LBB0_4
	b	.LBB0_3
.LBB0_3:
	.loc	2 0 8                           @ lvgl/src/lv_font/lv_font_fmt_txt.c:0:8
	movs	r0, #0
.Ltmp6:
	.loc	2 85 14                         @ lvgl/src/lv_font/lv_font_fmt_txt.c:85:14
	str	r0, [sp, #52]
	b	.LBB0_25
.Ltmp7:
.LBB0_4:
	.loc	2 87 49 is_stmt 1               @ lvgl/src/lv_font/lv_font_fmt_txt.c:87:49
	ldr	r0, [sp, #40]
	.loc	2 87 55 is_stmt 0               @ lvgl/src/lv_font/lv_font_fmt_txt.c:87:55
	ldr	r0, [r0, #4]
	.loc	2 87 65                         @ lvgl/src/lv_font/lv_font_fmt_txt.c:87:65
	ldr	r1, [sp, #36]
	.loc	2 87 49                         @ lvgl/src/lv_font/lv_font_fmt_txt.c:87:49
	add.w	r0, r0, r1, lsl #3
	.loc	2 87 41                         @ lvgl/src/lv_font/lv_font_fmt_txt.c:87:41
	str	r0, [sp, #32]
.Ltmp8:
	.loc	2 89 8 is_stmt 1                @ lvgl/src/lv_font/lv_font_fmt_txt.c:89:8
	ldr	r0, [sp, #40]
	.loc	2 89 14 is_stmt 0               @ lvgl/src/lv_font/lv_font_fmt_txt.c:89:14
	ldrh	r1, [r0, #18]
	movs	r0, #0
.Ltmp9:
	.loc	2 89 8                          @ lvgl/src/lv_font/lv_font_fmt_txt.c:89:8
	cmp.w	r0, r1, lsr #14
	bne	.LBB0_6
	b	.LBB0_5
.LBB0_5:
.Ltmp10:
	.loc	2 90 17 is_stmt 1               @ lvgl/src/lv_font/lv_font_fmt_txt.c:90:17
	ldr	r0, [sp, #40]
	.loc	2 90 23 is_stmt 0               @ lvgl/src/lv_font/lv_font_fmt_txt.c:90:23
	ldr	r0, [r0]
	.loc	2 90 36                         @ lvgl/src/lv_font/lv_font_fmt_txt.c:90:36
	ldr	r1, [sp, #32]
	.loc	2 90 42                         @ lvgl/src/lv_font/lv_font_fmt_txt.c:90:42
	ldr	r1, [r1]
	bfc	r1, #20, #12
	.loc	2 90 17                         @ lvgl/src/lv_font/lv_font_fmt_txt.c:90:17
	add	r0, r1
	.loc	2 90 9                          @ lvgl/src/lv_font/lv_font_fmt_txt.c:90:9
	str	r0, [sp, #52]
	b	.LBB0_25
.Ltmp11:
.LBB0_6:
	.loc	2 95 26 is_stmt 1               @ lvgl/src/lv_font/lv_font_fmt_txt.c:95:26
	ldr	r1, [sp, #32]
	.loc	2 95 32 is_stmt 0               @ lvgl/src/lv_font/lv_font_fmt_txt.c:95:32
	ldrb	r0, [r1, #4]
	.loc	2 95 46                         @ lvgl/src/lv_font/lv_font_fmt_txt.c:95:46
	ldrb	r1, [r1, #5]
	.loc	2 95 38                         @ lvgl/src/lv_font/lv_font_fmt_txt.c:95:38
	muls	r0, r1, r0
	.loc	2 95 18                         @ lvgl/src/lv_font/lv_font_fmt_txt.c:95:18
	str	r0, [sp, #28]
.Ltmp12:
	.loc	2 96 12 is_stmt 1               @ lvgl/src/lv_font/lv_font_fmt_txt.c:96:12
	ldr	r0, [sp, #28]
.Ltmp13:
	.loc	2 96 12 is_stmt 0               @ lvgl/src/lv_font/lv_font_fmt_txt.c:96:12
	cbnz	r0, .LBB0_8
	b	.LBB0_7
.LBB0_7:
	.loc	2 0 12                          @ lvgl/src/lv_font/lv_font_fmt_txt.c:0:12
	movs	r0, #0
.Ltmp14:
	.loc	2 96 24                         @ lvgl/src/lv_font/lv_font_fmt_txt.c:96:24
	str	r0, [sp, #52]
	b	.LBB0_25
.Ltmp15:
.LBB0_8:
	.loc	2 98 29 is_stmt 1               @ lvgl/src/lv_font/lv_font_fmt_txt.c:98:29
	ldr	r0, [sp, #28]
	.loc	2 98 18 is_stmt 0               @ lvgl/src/lv_font/lv_font_fmt_txt.c:98:18
	str	r0, [sp, #24]
	.loc	2 100 16 is_stmt 1              @ lvgl/src/lv_font/lv_font_fmt_txt.c:100:16
	ldr	r0, [sp, #40]
	.loc	2 100 22 is_stmt 0              @ lvgl/src/lv_font/lv_font_fmt_txt.c:100:22
	ldrh	r0, [r0, #18]
	ubfx	r0, r0, #9, #4
	.loc	2 100 9                         @ lvgl/src/lv_font/lv_font_fmt_txt.c:100:9
	subs	r0, #1
	mov	r1, r0
	str	r1, [sp, #12]                   @ 4-byte Spill
	cmp	r0, #3
	bhi	.LBB0_15
@ %bb.9:
	.loc	2 0 9                           @ lvgl/src/lv_font/lv_font_fmt_txt.c:0:9
	ldr	r1, [sp, #12]                   @ 4-byte Reload
.LCPI0_0:
	tbb	[pc, r1]
@ %bb.10:
.LJTI0_0:
	.byte	(.LBB0_11-(.LCPI0_0+4))/2
	.byte	(.LBB0_12-(.LCPI0_0+4))/2
	.byte	(.LBB0_13-(.LCPI0_0+4))/2
	.byte	(.LBB0_14-(.LCPI0_0+4))/2
	.p2align	1
.LBB0_11:
.Ltmp16:
	.loc	2 102 29 is_stmt 1              @ lvgl/src/lv_font/lv_font_fmt_txt.c:102:29
	ldr	r0, [sp, #28]
	.loc	2 102 35 is_stmt 0              @ lvgl/src/lv_font/lv_font_fmt_txt.c:102:35
	adds	r0, #7
	.loc	2 102 40                        @ lvgl/src/lv_font/lv_font_fmt_txt.c:102:40
	lsrs	r0, r0, #3
	.loc	2 102 26                        @ lvgl/src/lv_font/lv_font_fmt_txt.c:102:26
	str	r0, [sp, #24]
	.loc	2 103 17 is_stmt 1              @ lvgl/src/lv_font/lv_font_fmt_txt.c:103:17
	b	.LBB0_15
.LBB0_12:
	.loc	2 105 29                        @ lvgl/src/lv_font/lv_font_fmt_txt.c:105:29
	ldr	r0, [sp, #28]
	.loc	2 105 35 is_stmt 0              @ lvgl/src/lv_font/lv_font_fmt_txt.c:105:35
	adds	r0, #3
	.loc	2 105 40                        @ lvgl/src/lv_font/lv_font_fmt_txt.c:105:40
	lsrs	r0, r0, #2
	.loc	2 105 26                        @ lvgl/src/lv_font/lv_font_fmt_txt.c:105:26
	str	r0, [sp, #24]
	.loc	2 106 17 is_stmt 1              @ lvgl/src/lv_font/lv_font_fmt_txt.c:106:17
	b	.LBB0_15
.LBB0_13:
	.loc	2 108 29                        @ lvgl/src/lv_font/lv_font_fmt_txt.c:108:29
	ldr	r0, [sp, #28]
	.loc	2 108 35 is_stmt 0              @ lvgl/src/lv_font/lv_font_fmt_txt.c:108:35
	adds	r0, #1
	.loc	2 108 40                        @ lvgl/src/lv_font/lv_font_fmt_txt.c:108:40
	lsrs	r0, r0, #1
	.loc	2 108 26                        @ lvgl/src/lv_font/lv_font_fmt_txt.c:108:26
	str	r0, [sp, #24]
	.loc	2 109 17 is_stmt 1              @ lvgl/src/lv_font/lv_font_fmt_txt.c:109:17
	b	.LBB0_15
.LBB0_14:
	.loc	2 111 29                        @ lvgl/src/lv_font/lv_font_fmt_txt.c:111:29
	ldr	r0, [sp, #28]
	.loc	2 111 35 is_stmt 0              @ lvgl/src/lv_font/lv_font_fmt_txt.c:111:35
	adds	r0, #1
	.loc	2 111 40                        @ lvgl/src/lv_font/lv_font_fmt_txt.c:111:40
	lsrs	r0, r0, #1
	.loc	2 111 26                        @ lvgl/src/lv_font/lv_font_fmt_txt.c:111:26
	str	r0, [sp, #24]
	.loc	2 112 17 is_stmt 1              @ lvgl/src/lv_font/lv_font_fmt_txt.c:112:17
	b	.LBB0_15
.Ltmp17:
.LBB0_15:
	.loc	2 115 29                        @ lvgl/src/lv_font/lv_font_fmt_txt.c:115:29
	movw	r0, :lower16:_lv_font_decompr_buf
	movt	r0, :upper16:_lv_font_decompr_buf
	ldr	r0, [r0]
	.loc	2 115 12 is_stmt 0              @ lvgl/src/lv_font/lv_font_fmt_txt.c:115:12
	bl	_lv_mem_get_size
	.loc	2 115 65                        @ lvgl/src/lv_font/lv_font_fmt_txt.c:115:65
	ldr	r1, [sp, #24]
.Ltmp18:
	.loc	2 115 12                        @ lvgl/src/lv_font/lv_font_fmt_txt.c:115:12
	cmp	r0, r1
	bhs	.LBB0_24
	b	.LBB0_16
.LBB0_16:
.Ltmp19:
	.loc	2 116 44 is_stmt 1              @ lvgl/src/lv_font/lv_font_fmt_txt.c:116:44
	movw	r0, :lower16:_lv_font_decompr_buf
	movt	r0, :upper16:_lv_font_decompr_buf
	ldr	r0, [r0]
	.loc	2 116 78 is_stmt 0              @ lvgl/src/lv_font/lv_font_fmt_txt.c:116:78
	ldr	r1, [sp, #24]
	.loc	2 116 29                        @ lvgl/src/lv_font/lv_font_fmt_txt.c:116:29
	bl	lv_mem_realloc
	.loc	2 116 23                        @ lvgl/src/lv_font/lv_font_fmt_txt.c:116:23
	str	r0, [sp, #20]
	.loc	2 117 13 is_stmt 1              @ lvgl/src/lv_font/lv_font_fmt_txt.c:117:13
	b	.LBB0_17
.LBB0_17:
.Ltmp20:
	.loc	2 117 13 is_stmt 0              @ lvgl/src/lv_font/lv_font_fmt_txt.c:117:13
	ldr	r0, [sp, #20]
	bl	lv_debug_check_null
.Ltmp21:
	.loc	2 117 13                        @ lvgl/src/lv_font/lv_font_fmt_txt.c:117:13
	cbnz	r0, .LBB0_20
	b	.LBB0_18
.LBB0_18:
.Ltmp22:
	.loc	2 117 13                        @ lvgl/src/lv_font/lv_font_fmt_txt.c:117:13
	ldr	r2, [sp, #20]
	movw	r0, :lower16:.L.str
	movt	r0, :upper16:.L.str
	movs	r3, #0
	bl	lv_debug_log_error
	b	.LBB0_19
.LBB0_19:                               @ =>This Inner Loop Header: Depth=1
	b	.LBB0_19
.Ltmp23:
.LBB0_20:
	.loc	2 117 13                        @ lvgl/src/lv_font/lv_font_fmt_txt.c:117:13
	b	.LBB0_21
.Ltmp24:
.LBB0_21:
	.loc	2 118 16 is_stmt 1              @ lvgl/src/lv_font/lv_font_fmt_txt.c:118:16
	ldr	r0, [sp, #20]
.Ltmp25:
	.loc	2 118 16 is_stmt 0              @ lvgl/src/lv_font/lv_font_fmt_txt.c:118:16
	cbnz	r0, .LBB0_23
	b	.LBB0_22
.LBB0_22:
	.loc	2 0 16                          @ lvgl/src/lv_font/lv_font_fmt_txt.c:0:16
	movs	r0, #0
.Ltmp26:
	.loc	2 118 29                        @ lvgl/src/lv_font/lv_font_fmt_txt.c:118:29
	str	r0, [sp, #52]
	b	.LBB0_25
.Ltmp27:
.LBB0_23:
	.loc	2 119 48 is_stmt 1              @ lvgl/src/lv_font/lv_font_fmt_txt.c:119:48
	ldr	r0, [sp, #20]
	.loc	2 119 46 is_stmt 0              @ lvgl/src/lv_font/lv_font_fmt_txt.c:119:46
	movw	r1, :lower16:_lv_font_decompr_buf
	movt	r1, :upper16:_lv_font_decompr_buf
	str	r0, [r1]
	.loc	2 120 9 is_stmt 1               @ lvgl/src/lv_font/lv_font_fmt_txt.c:120:9
	b	.LBB0_24
.Ltmp28:
.LBB0_24:
	.loc	2 122 26                        @ lvgl/src/lv_font/lv_font_fmt_txt.c:122:26
	ldr	r0, [sp, #40]
	.loc	2 122 32 is_stmt 0              @ lvgl/src/lv_font/lv_font_fmt_txt.c:122:32
	ldrh	r1, [r0, #18]
	mov.w	r0, #-1
	.loc	2 122 46                        @ lvgl/src/lv_font/lv_font_fmt_txt.c:122:46
	add.w	r0, r0, r1, lsr #14
	clz	r0, r0
	lsrs	r0, r0, #5
	.loc	2 122 14                        @ lvgl/src/lv_font/lv_font_fmt_txt.c:122:14
	strb.w	r0, [sp, #19]
	.loc	2 123 21 is_stmt 1              @ lvgl/src/lv_font/lv_font_fmt_txt.c:123:21
	ldr.w	r12, [sp, #40]
	.loc	2 123 27 is_stmt 0              @ lvgl/src/lv_font/lv_font_fmt_txt.c:123:27
	ldr.w	r0, [r12]
	.loc	2 123 40                        @ lvgl/src/lv_font/lv_font_fmt_txt.c:123:40
	ldr	r3, [sp, #32]
	.loc	2 123 46                        @ lvgl/src/lv_font/lv_font_fmt_txt.c:123:46
	ldr	r1, [r3]
	bfc	r1, #20, #12
	.loc	2 123 21                        @ lvgl/src/lv_font/lv_font_fmt_txt.c:123:21
	add	r0, r1
	.loc	2 123 61                        @ lvgl/src/lv_font/lv_font_fmt_txt.c:123:61
	movw	r1, :lower16:_lv_font_decompr_buf
	movt	r1, :upper16:_lv_font_decompr_buf
	str	r1, [sp, #8]                    @ 4-byte Spill
	ldr	r1, [r1]
	.loc	2 123 101                       @ lvgl/src/lv_font/lv_font_fmt_txt.c:123:101
	ldrb	r2, [r3, #4]
	.loc	2 123 114                       @ lvgl/src/lv_font/lv_font_fmt_txt.c:123:114
	ldrb	r3, [r3, #5]
	.loc	2 124 35 is_stmt 1              @ lvgl/src/lv_font/lv_font_fmt_txt.c:124:35
	ldrh.w	r12, [r12, #18]
	ubfx	r12, r12, #9, #4
	.loc	2 123 9                         @ lvgl/src/lv_font/lv_font_fmt_txt.c:123:9
	ldrb.w	lr, [sp, #19]
	and	r4, lr, #1
	mov	lr, sp
	str.w	r4, [lr, #4]
	str.w	r12, [lr]
	bl	decompress
	ldr	r0, [sp, #8]                    @ 4-byte Reload
	.loc	2 125 16                        @ lvgl/src/lv_font/lv_font_fmt_txt.c:125:16
	ldr	r0, [r0]
	.loc	2 125 9 is_stmt 0               @ lvgl/src/lv_font/lv_font_fmt_txt.c:125:9
	str	r0, [sp, #52]
	b	.LBB0_25
.Ltmp29:
.LBB0_25:
	.loc	2 133 1 is_stmt 1               @ lvgl/src/lv_font/lv_font_fmt_txt.c:133:1
	ldr	r0, [sp, #52]
	add	sp, #56
	pop	{r4, pc}
.Ltmp30:
.Lfunc_end0:
	.size	lv_font_get_bitmap_fmt_txt, .Lfunc_end0-lv_font_get_bitmap_fmt_txt
	.cfi_endproc
	.cantunwind
	.fnend
                                        @ -- End function
	.section	.text.get_glyph_dsc_id,"ax",%progbits
	.p2align	3                               @ -- Begin function get_glyph_dsc_id
	.type	get_glyph_dsc_id,%function
	.code	16                              @ @get_glyph_dsc_id
	.thumb_func
get_glyph_dsc_id:
.Lfunc_begin1:
	.loc	2 202 0                         @ lvgl/src/lv_font/lv_font_fmt_txt.c:202:0
	.fnstart
	.cfi_startproc
@ %bb.0:
	.save	{r7, lr}
	push	{r7, lr}
	.cfi_def_cfa_offset 8
	.cfi_offset lr, -4
	.cfi_offset r7, -8
	.pad	#64
	sub	sp, #64
	.cfi_def_cfa_offset 72
	str	r0, [sp, #56]
	str	r1, [sp, #52]
.Ltmp31:
	.loc	2 203 8 prologue_end            @ lvgl/src/lv_font/lv_font_fmt_txt.c:203:8
	ldr	r0, [sp, #52]
.Ltmp32:
	.loc	2 203 8 is_stmt 0               @ lvgl/src/lv_font/lv_font_fmt_txt.c:203:8
	cbnz	r0, .LBB1_2
	b	.LBB1_1
.LBB1_1:
	.loc	2 0 8                           @ lvgl/src/lv_font/lv_font_fmt_txt.c:0:8
	movs	r0, #0
.Ltmp33:
	.loc	2 203 24                        @ lvgl/src/lv_font/lv_font_fmt_txt.c:203:24
	str	r0, [sp, #60]
	b	.LBB1_26
.Ltmp34:
.LBB1_2:
	.loc	2 205 62 is_stmt 1              @ lvgl/src/lv_font/lv_font_fmt_txt.c:205:62
	ldr	r0, [sp, #56]
	.loc	2 205 68 is_stmt 0              @ lvgl/src/lv_font/lv_font_fmt_txt.c:205:68
	ldr	r0, [r0, #16]
	.loc	2 205 29                        @ lvgl/src/lv_font/lv_font_fmt_txt.c:205:29
	str	r0, [sp, #48]
.Ltmp35:
	.loc	2 208 8 is_stmt 1               @ lvgl/src/lv_font/lv_font_fmt_txt.c:208:8
	ldr	r0, [sp, #52]
	.loc	2 208 18 is_stmt 0              @ lvgl/src/lv_font/lv_font_fmt_txt.c:208:18
	ldr	r1, [sp, #48]
	.loc	2 208 24                        @ lvgl/src/lv_font/lv_font_fmt_txt.c:208:24
	ldr	r1, [r1, #20]
.Ltmp36:
	.loc	2 208 8                         @ lvgl/src/lv_font/lv_font_fmt_txt.c:208:8
	cmp	r0, r1
	bne	.LBB1_4
	b	.LBB1_3
.LBB1_3:
.Ltmp37:
	.loc	2 208 44                        @ lvgl/src/lv_font/lv_font_fmt_txt.c:208:44
	ldr	r0, [sp, #48]
	.loc	2 208 50                        @ lvgl/src/lv_font/lv_font_fmt_txt.c:208:50
	ldr	r0, [r0, #24]
	.loc	2 208 37                        @ lvgl/src/lv_font/lv_font_fmt_txt.c:208:37
	str	r0, [sp, #60]
	b	.LBB1_26
.Ltmp38:
.LBB1_4:
	.loc	2 0 37                          @ lvgl/src/lv_font/lv_font_fmt_txt.c:0:37
	movs	r0, #0
.Ltmp39:
	.loc	2 211 11 is_stmt 1              @ lvgl/src/lv_font/lv_font_fmt_txt.c:211:11
	strh.w	r0, [sp, #46]
	.loc	2 211 9 is_stmt 0               @ lvgl/src/lv_font/lv_font_fmt_txt.c:211:9
	b	.LBB1_5
.LBB1_5:                                @ =>This Inner Loop Header: Depth=1
.Ltmp40:
	.loc	2 211 16                        @ lvgl/src/lv_font/lv_font_fmt_txt.c:211:16
	ldrh.w	r0, [sp, #46]
	.loc	2 211 20                        @ lvgl/src/lv_font/lv_font_fmt_txt.c:211:20
	ldr	r1, [sp, #48]
	.loc	2 211 26                        @ lvgl/src/lv_font/lv_font_fmt_txt.c:211:26
	ldrh	r1, [r1, #18]
	.loc	2 211 20                        @ lvgl/src/lv_font/lv_font_fmt_txt.c:211:20
	bfc	r1, #9, #23
.Ltmp41:
	.loc	2 211 5                         @ lvgl/src/lv_font/lv_font_fmt_txt.c:211:5
	cmp	r0, r1
	bge.w	.LBB1_25
	b	.LBB1_6
.LBB1_6:                                @   in Loop: Header=BB1_5 Depth=1
.Ltmp42:
	.loc	2 214 24 is_stmt 1              @ lvgl/src/lv_font/lv_font_fmt_txt.c:214:24
	ldr	r0, [sp, #52]
	.loc	2 214 33 is_stmt 0              @ lvgl/src/lv_font/lv_font_fmt_txt.c:214:33
	ldr	r1, [sp, #48]
	.loc	2 214 39                        @ lvgl/src/lv_font/lv_font_fmt_txt.c:214:39
	ldr	r1, [r1, #8]
	.loc	2 214 45                        @ lvgl/src/lv_font/lv_font_fmt_txt.c:214:45
	ldrh.w	r2, [sp, #46]
	.loc	2 214 33                        @ lvgl/src/lv_font/lv_font_fmt_txt.c:214:33
	add.w	r2, r2, r2, lsl #2
	.loc	2 214 48                        @ lvgl/src/lv_font/lv_font_fmt_txt.c:214:48
	ldr.w	r1, [r1, r2, lsl #2]
	.loc	2 214 31                        @ lvgl/src/lv_font/lv_font_fmt_txt.c:214:31
	subs	r0, r0, r1
	.loc	2 214 18                        @ lvgl/src/lv_font/lv_font_fmt_txt.c:214:18
	str	r0, [sp, #40]
.Ltmp43:
	.loc	2 215 12 is_stmt 1              @ lvgl/src/lv_font/lv_font_fmt_txt.c:215:12
	ldr	r0, [sp, #40]
	.loc	2 215 18 is_stmt 0              @ lvgl/src/lv_font/lv_font_fmt_txt.c:215:18
	ldr	r1, [sp, #48]
	.loc	2 215 24                        @ lvgl/src/lv_font/lv_font_fmt_txt.c:215:24
	ldr	r1, [r1, #8]
	.loc	2 215 30                        @ lvgl/src/lv_font/lv_font_fmt_txt.c:215:30
	ldrh.w	r2, [sp, #46]
	.loc	2 215 18                        @ lvgl/src/lv_font/lv_font_fmt_txt.c:215:18
	add.w	r2, r2, r2, lsl #2
	add.w	r1, r1, r2, lsl #2
	.loc	2 215 33                        @ lvgl/src/lv_font/lv_font_fmt_txt.c:215:33
	ldrh	r1, [r1, #4]
.Ltmp44:
	.loc	2 215 12                        @ lvgl/src/lv_font/lv_font_fmt_txt.c:215:12
	cmp	r0, r1
	bls	.LBB1_8
	b	.LBB1_7
.LBB1_7:                                @   in Loop: Header=BB1_5 Depth=1
.Ltmp45:
	.loc	2 215 47                        @ lvgl/src/lv_font/lv_font_fmt_txt.c:215:47
	b	.LBB1_24
.Ltmp46:
.LBB1_8:
	.loc	2 0 47                          @ lvgl/src/lv_font/lv_font_fmt_txt.c:0:47
	movs	r0, #0
	.loc	2 216 18 is_stmt 1              @ lvgl/src/lv_font/lv_font_fmt_txt.c:216:18
	str	r0, [sp, #36]
.Ltmp47:
	.loc	2 217 12                        @ lvgl/src/lv_font/lv_font_fmt_txt.c:217:12
	ldr	r0, [sp, #48]
	.loc	2 217 18 is_stmt 0              @ lvgl/src/lv_font/lv_font_fmt_txt.c:217:18
	ldr	r0, [r0, #8]
	.loc	2 217 24                        @ lvgl/src/lv_font/lv_font_fmt_txt.c:217:24
	ldrh.w	r1, [sp, #46]
	.loc	2 217 12                        @ lvgl/src/lv_font/lv_font_fmt_txt.c:217:12
	add.w	r1, r1, r1, lsl #2
	add.w	r0, r0, r1, lsl #2
	.loc	2 217 27                        @ lvgl/src/lv_font/lv_font_fmt_txt.c:217:27
	ldrb	r0, [r0, #18]
.Ltmp48:
	.loc	2 217 12                        @ lvgl/src/lv_font/lv_font_fmt_txt.c:217:12
	cmp	r0, #2
	bne	.LBB1_10
	b	.LBB1_9
.LBB1_9:
.Ltmp49:
	.loc	2 218 24 is_stmt 1              @ lvgl/src/lv_font/lv_font_fmt_txt.c:218:24
	ldr	r0, [sp, #48]
	.loc	2 218 30 is_stmt 0              @ lvgl/src/lv_font/lv_font_fmt_txt.c:218:30
	ldr	r0, [r0, #8]
	.loc	2 218 36                        @ lvgl/src/lv_font/lv_font_fmt_txt.c:218:36
	ldrh.w	r1, [sp, #46]
	.loc	2 218 24                        @ lvgl/src/lv_font/lv_font_fmt_txt.c:218:24
	add.w	r1, r1, r1, lsl #2
	add.w	r0, r0, r1, lsl #2
	.loc	2 218 39                        @ lvgl/src/lv_font/lv_font_fmt_txt.c:218:39
	ldrh	r0, [r0, #6]
	.loc	2 218 56                        @ lvgl/src/lv_font/lv_font_fmt_txt.c:218:56
	ldr	r1, [sp, #40]
	.loc	2 218 54                        @ lvgl/src/lv_font/lv_font_fmt_txt.c:218:54
	add	r0, r1
	.loc	2 218 22                        @ lvgl/src/lv_font/lv_font_fmt_txt.c:218:22
	str	r0, [sp, #36]
	.loc	2 219 9 is_stmt 1               @ lvgl/src/lv_font/lv_font_fmt_txt.c:219:9
	b	.LBB1_23
.Ltmp50:
.LBB1_10:
	.loc	2 220 17                        @ lvgl/src/lv_font/lv_font_fmt_txt.c:220:17
	ldr	r0, [sp, #48]
	.loc	2 220 23 is_stmt 0              @ lvgl/src/lv_font/lv_font_fmt_txt.c:220:23
	ldr	r0, [r0, #8]
	.loc	2 220 29                        @ lvgl/src/lv_font/lv_font_fmt_txt.c:220:29
	ldrh.w	r1, [sp, #46]
	.loc	2 220 17                        @ lvgl/src/lv_font/lv_font_fmt_txt.c:220:17
	add.w	r1, r1, r1, lsl #2
	add.w	r0, r0, r1, lsl #2
	.loc	2 220 32                        @ lvgl/src/lv_font/lv_font_fmt_txt.c:220:32
	ldrb	r0, [r0, #18]
.Ltmp51:
	.loc	2 220 17                        @ lvgl/src/lv_font/lv_font_fmt_txt.c:220:17
	cbnz	r0, .LBB1_12
	b	.LBB1_11
.LBB1_11:
.Ltmp52:
	.loc	2 221 41 is_stmt 1              @ lvgl/src/lv_font/lv_font_fmt_txt.c:221:41
	ldr	r0, [sp, #48]
	.loc	2 221 47 is_stmt 0              @ lvgl/src/lv_font/lv_font_fmt_txt.c:221:47
	ldr	r0, [r0, #8]
	.loc	2 221 53                        @ lvgl/src/lv_font/lv_font_fmt_txt.c:221:53
	ldrh.w	r1, [sp, #46]
	.loc	2 221 41                        @ lvgl/src/lv_font/lv_font_fmt_txt.c:221:41
	add.w	r1, r1, r1, lsl #2
	add.w	r0, r0, r1, lsl #2
	.loc	2 221 56                        @ lvgl/src/lv_font/lv_font_fmt_txt.c:221:56
	ldr	r0, [r0, #12]
	.loc	2 221 29                        @ lvgl/src/lv_font/lv_font_fmt_txt.c:221:29
	str	r0, [sp, #32]
	.loc	2 222 24 is_stmt 1              @ lvgl/src/lv_font/lv_font_fmt_txt.c:222:24
	ldr	r0, [sp, #48]
	.loc	2 222 30 is_stmt 0              @ lvgl/src/lv_font/lv_font_fmt_txt.c:222:30
	ldr	r0, [r0, #8]
	.loc	2 222 36                        @ lvgl/src/lv_font/lv_font_fmt_txt.c:222:36
	ldrh.w	r1, [sp, #46]
	.loc	2 222 24                        @ lvgl/src/lv_font/lv_font_fmt_txt.c:222:24
	add.w	r1, r1, r1, lsl #2
	add.w	r0, r0, r1, lsl #2
	.loc	2 222 39                        @ lvgl/src/lv_font/lv_font_fmt_txt.c:222:39
	ldrh	r0, [r0, #6]
	.loc	2 222 56                        @ lvgl/src/lv_font/lv_font_fmt_txt.c:222:56
	ldr	r1, [sp, #32]
	.loc	2 222 66                        @ lvgl/src/lv_font/lv_font_fmt_txt.c:222:66
	ldr	r2, [sp, #40]
	.loc	2 222 56                        @ lvgl/src/lv_font/lv_font_fmt_txt.c:222:56
	ldrb	r1, [r1, r2]
	.loc	2 222 54                        @ lvgl/src/lv_font/lv_font_fmt_txt.c:222:54
	add	r0, r1
	.loc	2 222 22                        @ lvgl/src/lv_font/lv_font_fmt_txt.c:222:22
	str	r0, [sp, #36]
	.loc	2 223 9 is_stmt 1               @ lvgl/src/lv_font/lv_font_fmt_txt.c:223:9
	b	.LBB1_22
.Ltmp53:
.LBB1_12:
	.loc	2 224 17                        @ lvgl/src/lv_font/lv_font_fmt_txt.c:224:17
	ldr	r0, [sp, #48]
	.loc	2 224 23 is_stmt 0              @ lvgl/src/lv_font/lv_font_fmt_txt.c:224:23
	ldr	r0, [r0, #8]
	.loc	2 224 29                        @ lvgl/src/lv_font/lv_font_fmt_txt.c:224:29
	ldrh.w	r1, [sp, #46]
	.loc	2 224 17                        @ lvgl/src/lv_font/lv_font_fmt_txt.c:224:17
	add.w	r1, r1, r1, lsl #2
	add.w	r0, r0, r1, lsl #2
	.loc	2 224 32                        @ lvgl/src/lv_font/lv_font_fmt_txt.c:224:32
	ldrb	r0, [r0, #18]
.Ltmp54:
	.loc	2 224 17                        @ lvgl/src/lv_font/lv_font_fmt_txt.c:224:17
	cmp	r0, #3
	bne	.LBB1_16
	b	.LBB1_13
.LBB1_13:
.Ltmp55:
	.loc	2 225 28 is_stmt 1              @ lvgl/src/lv_font/lv_font_fmt_txt.c:225:28
	ldr	r0, [sp, #40]
	.loc	2 225 22 is_stmt 0              @ lvgl/src/lv_font/lv_font_fmt_txt.c:225:22
	strh.w	r0, [sp, #30]
	.loc	2 226 52 is_stmt 1              @ lvgl/src/lv_font/lv_font_fmt_txt.c:226:52
	ldr	r0, [sp, #48]
	.loc	2 226 58 is_stmt 0              @ lvgl/src/lv_font/lv_font_fmt_txt.c:226:58
	ldr	r0, [r0, #8]
	.loc	2 226 64                        @ lvgl/src/lv_font/lv_font_fmt_txt.c:226:64
	ldrh.w	r1, [sp, #46]
	.loc	2 226 52                        @ lvgl/src/lv_font/lv_font_fmt_txt.c:226:52
	add.w	r1, r1, r1, lsl #2
	add.w	r0, r0, r1, lsl #2
	.loc	2 226 67                        @ lvgl/src/lv_font/lv_font_fmt_txt.c:226:67
	ldr	r1, [r0, #8]
	.loc	2 226 96                        @ lvgl/src/lv_font/lv_font_fmt_txt.c:226:96
	ldrh	r2, [r0, #16]
	.loc	2 226 28                        @ lvgl/src/lv_font/lv_font_fmt_txt.c:226:28
	movw	r0, :lower16:unicode_list_compare
	movt	r0, :upper16:unicode_list_compare
	mov	r3, sp
	str	r0, [r3]
	add.w	r0, sp, #30
	movs	r3, #2
	bl	_lv_utils_bsearch
	.loc	2 226 24                        @ lvgl/src/lv_font/lv_font_fmt_txt.c:226:24
	str	r0, [sp, #24]
.Ltmp56:
	.loc	2 229 16 is_stmt 1              @ lvgl/src/lv_font/lv_font_fmt_txt.c:229:16
	ldr	r0, [sp, #24]
.Ltmp57:
	.loc	2 229 16 is_stmt 0              @ lvgl/src/lv_font/lv_font_fmt_txt.c:229:16
	cbz	r0, .LBB1_15
	b	.LBB1_14
.LBB1_14:
.Ltmp58:
	.loc	2 230 36 is_stmt 1              @ lvgl/src/lv_font/lv_font_fmt_txt.c:230:36
	ldr	r0, [sp, #24]
	.loc	2 230 40 is_stmt 0              @ lvgl/src/lv_font/lv_font_fmt_txt.c:230:40
	ldr	r1, [sp, #48]
	.loc	2 230 46                        @ lvgl/src/lv_font/lv_font_fmt_txt.c:230:46
	ldr	r1, [r1, #8]
	.loc	2 230 52                        @ lvgl/src/lv_font/lv_font_fmt_txt.c:230:52
	ldrh.w	r2, [sp, #46]
	.loc	2 230 40                        @ lvgl/src/lv_font/lv_font_fmt_txt.c:230:40
	add.w	r2, r2, r2, lsl #2
	add.w	r1, r1, r2, lsl #2
	.loc	2 230 55                        @ lvgl/src/lv_font/lv_font_fmt_txt.c:230:55
	ldr	r1, [r1, #8]
	.loc	2 230 38                        @ lvgl/src/lv_font/lv_font_fmt_txt.c:230:38
	subs	r0, r0, r1
	asrs	r0, r0, #1
	.loc	2 230 30                        @ lvgl/src/lv_font/lv_font_fmt_txt.c:230:30
	str	r0, [sp, #20]
	.loc	2 231 28 is_stmt 1              @ lvgl/src/lv_font/lv_font_fmt_txt.c:231:28
	ldr	r0, [sp, #48]
	.loc	2 231 34 is_stmt 0              @ lvgl/src/lv_font/lv_font_fmt_txt.c:231:34
	ldr	r0, [r0, #8]
	.loc	2 231 40                        @ lvgl/src/lv_font/lv_font_fmt_txt.c:231:40
	ldrh.w	r1, [sp, #46]
	.loc	2 231 28                        @ lvgl/src/lv_font/lv_font_fmt_txt.c:231:28
	add.w	r1, r1, r1, lsl #2
	add.w	r0, r0, r1, lsl #2
	.loc	2 231 43                        @ lvgl/src/lv_font/lv_font_fmt_txt.c:231:43
	ldrh	r0, [r0, #6]
	.loc	2 231 60                        @ lvgl/src/lv_font/lv_font_fmt_txt.c:231:60
	ldr	r1, [sp, #20]
	.loc	2 231 58                        @ lvgl/src/lv_font/lv_font_fmt_txt.c:231:58
	add	r0, r1
	.loc	2 231 26                        @ lvgl/src/lv_font/lv_font_fmt_txt.c:231:26
	str	r0, [sp, #36]
	.loc	2 232 13 is_stmt 1              @ lvgl/src/lv_font/lv_font_fmt_txt.c:232:13
	b	.LBB1_15
.Ltmp59:
.LBB1_15:
	.loc	2 233 9                         @ lvgl/src/lv_font/lv_font_fmt_txt.c:233:9
	b	.LBB1_21
.Ltmp60:
.LBB1_16:
	.loc	2 234 17                        @ lvgl/src/lv_font/lv_font_fmt_txt.c:234:17
	ldr	r0, [sp, #48]
	.loc	2 234 23 is_stmt 0              @ lvgl/src/lv_font/lv_font_fmt_txt.c:234:23
	ldr	r0, [r0, #8]
	.loc	2 234 29                        @ lvgl/src/lv_font/lv_font_fmt_txt.c:234:29
	ldrh.w	r1, [sp, #46]
	.loc	2 234 17                        @ lvgl/src/lv_font/lv_font_fmt_txt.c:234:17
	add.w	r1, r1, r1, lsl #2
	add.w	r0, r0, r1, lsl #2
	.loc	2 234 32                        @ lvgl/src/lv_font/lv_font_fmt_txt.c:234:32
	ldrb	r0, [r0, #18]
.Ltmp61:
	.loc	2 234 17                        @ lvgl/src/lv_font/lv_font_fmt_txt.c:234:17
	cmp	r0, #1
	bne	.LBB1_20
	b	.LBB1_17
.LBB1_17:
.Ltmp62:
	.loc	2 235 28 is_stmt 1              @ lvgl/src/lv_font/lv_font_fmt_txt.c:235:28
	ldr	r0, [sp, #40]
	.loc	2 235 22 is_stmt 0              @ lvgl/src/lv_font/lv_font_fmt_txt.c:235:22
	strh.w	r0, [sp, #18]
	.loc	2 236 52 is_stmt 1              @ lvgl/src/lv_font/lv_font_fmt_txt.c:236:52
	ldr	r0, [sp, #48]
	.loc	2 236 58 is_stmt 0              @ lvgl/src/lv_font/lv_font_fmt_txt.c:236:58
	ldr	r0, [r0, #8]
	.loc	2 236 64                        @ lvgl/src/lv_font/lv_font_fmt_txt.c:236:64
	ldrh.w	r1, [sp, #46]
	.loc	2 236 52                        @ lvgl/src/lv_font/lv_font_fmt_txt.c:236:52
	add.w	r1, r1, r1, lsl #2
	add.w	r0, r0, r1, lsl #2
	.loc	2 236 67                        @ lvgl/src/lv_font/lv_font_fmt_txt.c:236:67
	ldr	r1, [r0, #8]
	.loc	2 236 96                        @ lvgl/src/lv_font/lv_font_fmt_txt.c:236:96
	ldrh	r2, [r0, #16]
	.loc	2 236 28                        @ lvgl/src/lv_font/lv_font_fmt_txt.c:236:28
	movw	r0, :lower16:unicode_list_compare
	movt	r0, :upper16:unicode_list_compare
	mov	r3, sp
	str	r0, [r3]
	add.w	r0, sp, #18
	movs	r3, #2
	bl	_lv_utils_bsearch
	.loc	2 236 24                        @ lvgl/src/lv_font/lv_font_fmt_txt.c:236:24
	str	r0, [sp, #12]
.Ltmp63:
	.loc	2 239 16 is_stmt 1              @ lvgl/src/lv_font/lv_font_fmt_txt.c:239:16
	ldr	r0, [sp, #12]
.Ltmp64:
	.loc	2 239 16 is_stmt 0              @ lvgl/src/lv_font/lv_font_fmt_txt.c:239:16
	cbz	r0, .LBB1_19
	b	.LBB1_18
.LBB1_18:
.Ltmp65:
	.loc	2 240 36 is_stmt 1              @ lvgl/src/lv_font/lv_font_fmt_txt.c:240:36
	ldr	r0, [sp, #12]
	.loc	2 240 40 is_stmt 0              @ lvgl/src/lv_font/lv_font_fmt_txt.c:240:40
	ldr	r1, [sp, #48]
	.loc	2 240 46                        @ lvgl/src/lv_font/lv_font_fmt_txt.c:240:46
	ldr	r1, [r1, #8]
	.loc	2 240 52                        @ lvgl/src/lv_font/lv_font_fmt_txt.c:240:52
	ldrh.w	r2, [sp, #46]
	.loc	2 240 40                        @ lvgl/src/lv_font/lv_font_fmt_txt.c:240:40
	add.w	r2, r2, r2, lsl #2
	add.w	r1, r1, r2, lsl #2
	.loc	2 240 55                        @ lvgl/src/lv_font/lv_font_fmt_txt.c:240:55
	ldr	r1, [r1, #8]
	.loc	2 240 38                        @ lvgl/src/lv_font/lv_font_fmt_txt.c:240:38
	subs	r0, r0, r1
	asrs	r0, r0, #1
	.loc	2 240 30                        @ lvgl/src/lv_font/lv_font_fmt_txt.c:240:30
	str	r0, [sp, #8]
	.loc	2 241 47 is_stmt 1              @ lvgl/src/lv_font/lv_font_fmt_txt.c:241:47
	ldr	r0, [sp, #48]
	.loc	2 241 53 is_stmt 0              @ lvgl/src/lv_font/lv_font_fmt_txt.c:241:53
	ldr	r0, [r0, #8]
	.loc	2 241 59                        @ lvgl/src/lv_font/lv_font_fmt_txt.c:241:59
	ldrh.w	r1, [sp, #46]
	.loc	2 241 47                        @ lvgl/src/lv_font/lv_font_fmt_txt.c:241:47
	add.w	r1, r1, r1, lsl #2
	add.w	r0, r0, r1, lsl #2
	.loc	2 241 62                        @ lvgl/src/lv_font/lv_font_fmt_txt.c:241:62
	ldr	r0, [r0, #12]
	.loc	2 241 34                        @ lvgl/src/lv_font/lv_font_fmt_txt.c:241:34
	str	r0, [sp, #4]
	.loc	2 242 28 is_stmt 1              @ lvgl/src/lv_font/lv_font_fmt_txt.c:242:28
	ldr	r0, [sp, #48]
	.loc	2 242 34 is_stmt 0              @ lvgl/src/lv_font/lv_font_fmt_txt.c:242:34
	ldr	r0, [r0, #8]
	.loc	2 242 40                        @ lvgl/src/lv_font/lv_font_fmt_txt.c:242:40
	ldrh.w	r1, [sp, #46]
	.loc	2 242 28                        @ lvgl/src/lv_font/lv_font_fmt_txt.c:242:28
	add.w	r1, r1, r1, lsl #2
	add.w	r0, r0, r1, lsl #2
	.loc	2 242 43                        @ lvgl/src/lv_font/lv_font_fmt_txt.c:242:43
	ldrh	r0, [r0, #6]
	.loc	2 242 60                        @ lvgl/src/lv_font/lv_font_fmt_txt.c:242:60
	ldr	r1, [sp, #4]
	.loc	2 242 71                        @ lvgl/src/lv_font/lv_font_fmt_txt.c:242:71
	ldr	r2, [sp, #8]
	.loc	2 242 60                        @ lvgl/src/lv_font/lv_font_fmt_txt.c:242:60
	ldrh.w	r1, [r1, r2, lsl #1]
	.loc	2 242 58                        @ lvgl/src/lv_font/lv_font_fmt_txt.c:242:58
	add	r0, r1
	.loc	2 242 26                        @ lvgl/src/lv_font/lv_font_fmt_txt.c:242:26
	str	r0, [sp, #36]
	.loc	2 243 13 is_stmt 1              @ lvgl/src/lv_font/lv_font_fmt_txt.c:243:13
	b	.LBB1_19
.Ltmp66:
.LBB1_19:
	.loc	2 244 9                         @ lvgl/src/lv_font/lv_font_fmt_txt.c:244:9
	b	.LBB1_20
.Ltmp67:
.LBB1_20:
	.loc	2 0 9 is_stmt 0                 @ lvgl/src/lv_font/lv_font_fmt_txt.c:0:9
	b	.LBB1_21
.LBB1_21:
	b	.LBB1_22
.LBB1_22:
	b	.LBB1_23
.LBB1_23:
	.loc	2 247 29 is_stmt 1              @ lvgl/src/lv_font/lv_font_fmt_txt.c:247:29
	ldr	r0, [sp, #52]
	.loc	2 247 9 is_stmt 0               @ lvgl/src/lv_font/lv_font_fmt_txt.c:247:9
	ldr	r1, [sp, #48]
	.loc	2 247 27                        @ lvgl/src/lv_font/lv_font_fmt_txt.c:247:27
	str	r0, [r1, #20]
	.loc	2 248 31 is_stmt 1              @ lvgl/src/lv_font/lv_font_fmt_txt.c:248:31
	ldr	r0, [sp, #36]
	.loc	2 248 9 is_stmt 0               @ lvgl/src/lv_font/lv_font_fmt_txt.c:248:9
	ldr	r1, [sp, #48]
	.loc	2 248 29                        @ lvgl/src/lv_font/lv_font_fmt_txt.c:248:29
	str	r0, [r1, #24]
	.loc	2 249 16 is_stmt 1              @ lvgl/src/lv_font/lv_font_fmt_txt.c:249:16
	ldr	r0, [sp, #36]
	.loc	2 249 9 is_stmt 0               @ lvgl/src/lv_font/lv_font_fmt_txt.c:249:9
	str	r0, [sp, #60]
	b	.LBB1_26
.Ltmp68:
.LBB1_24:                               @   in Loop: Header=BB1_5 Depth=1
	.loc	2 211 37 is_stmt 1              @ lvgl/src/lv_font/lv_font_fmt_txt.c:211:37
	ldrh.w	r0, [sp, #46]
	adds	r0, #1
	strh.w	r0, [sp, #46]
	.loc	2 211 5 is_stmt 0               @ lvgl/src/lv_font/lv_font_fmt_txt.c:211:5
	b	.LBB1_5
.Ltmp69:
.LBB1_25:
	.loc	2 252 25 is_stmt 1              @ lvgl/src/lv_font/lv_font_fmt_txt.c:252:25
	ldr	r0, [sp, #52]
	.loc	2 252 5 is_stmt 0               @ lvgl/src/lv_font/lv_font_fmt_txt.c:252:5
	ldr	r1, [sp, #48]
	.loc	2 252 23                        @ lvgl/src/lv_font/lv_font_fmt_txt.c:252:23
	str	r0, [r1, #20]
	.loc	2 253 5 is_stmt 1               @ lvgl/src/lv_font/lv_font_fmt_txt.c:253:5
	ldr	r1, [sp, #48]
	movs	r0, #0
	.loc	2 253 25 is_stmt 0              @ lvgl/src/lv_font/lv_font_fmt_txt.c:253:25
	str	r0, [r1, #24]
	.loc	2 254 5 is_stmt 1               @ lvgl/src/lv_font/lv_font_fmt_txt.c:254:5
	str	r0, [sp, #60]
	b	.LBB1_26
.LBB1_26:
	.loc	2 256 1                         @ lvgl/src/lv_font/lv_font_fmt_txt.c:256:1
	ldr	r0, [sp, #60]
	add	sp, #64
	pop	{r7, pc}
.Ltmp70:
.Lfunc_end1:
	.size	get_glyph_dsc_id, .Lfunc_end1-get_glyph_dsc_id
	.cfi_endproc
	.cantunwind
	.fnend
                                        @ -- End function
	.section	.text.decompress,"ax",%progbits
	.p2align	3                               @ -- Begin function decompress
	.type	decompress,%function
	.code	16                              @ @decompress
	.thumb_func
decompress:
.Lfunc_begin2:
	.loc	2 345 0                         @ lvgl/src/lv_font/lv_font_fmt_txt.c:345:0
	.fnstart
	.cfi_startproc
@ %bb.0:
	.save	{r4, lr}
	push	{r4, lr}
	.cfi_def_cfa_offset 8
	.cfi_offset lr, -4
	.cfi_offset r4, -8
	.pad	#40
	sub	sp, #40
	.cfi_def_cfa_offset 48
	mov	r12, r1
	mov	lr, r0
	ldr	r0, [sp, #52]
	ldr	r1, [sp, #48]
                                        @ kill: def $r4 killed $r3
                                        @ kill: def $r4 killed $r2
	str.w	lr, [sp, #36]
	str.w	r12, [sp, #32]
	strh.w	r2, [sp, #30]
	strh.w	r3, [sp, #28]
	strb.w	r1, [sp, #27]
	strb.w	r0, [sp, #26]
	movs	r0, #0
.Ltmp71:
	.loc	2 346 14 prologue_end           @ lvgl/src/lv_font/lv_font_fmt_txt.c:346:14
	str	r0, [sp, #20]
	.loc	2 347 23                        @ lvgl/src/lv_font/lv_font_fmt_txt.c:347:23
	ldrb.w	r0, [sp, #27]
	.loc	2 347 13 is_stmt 0              @ lvgl/src/lv_font/lv_font_fmt_txt.c:347:13
	strb.w	r0, [sp, #19]
.Ltmp72:
	.loc	2 348 8 is_stmt 1               @ lvgl/src/lv_font/lv_font_fmt_txt.c:348:8
	ldrb.w	r0, [sp, #27]
.Ltmp73:
	.loc	2 348 8 is_stmt 0               @ lvgl/src/lv_font/lv_font_fmt_txt.c:348:8
	cmp	r0, #3
	bne	.LBB2_2
	b	.LBB2_1
.LBB2_1:
	.loc	2 0 8                           @ lvgl/src/lv_font/lv_font_fmt_txt.c:0:8
	movs	r0, #4
.Ltmp74:
	.loc	2 348 26                        @ lvgl/src/lv_font/lv_font_fmt_txt.c:348:26
	strb.w	r0, [sp, #19]
	.loc	2 348 18                        @ lvgl/src/lv_font/lv_font_fmt_txt.c:348:18
	b	.LBB2_2
.Ltmp75:
.LBB2_2:
	.loc	2 350 14 is_stmt 1              @ lvgl/src/lv_font/lv_font_fmt_txt.c:350:14
	ldr	r0, [sp, #36]
	.loc	2 350 18 is_stmt 0              @ lvgl/src/lv_font/lv_font_fmt_txt.c:350:18
	ldrb.w	r1, [sp, #27]
	.loc	2 350 5                         @ lvgl/src/lv_font/lv_font_fmt_txt.c:350:5
	bl	rle_init
	.loc	2 352 43 is_stmt 1              @ lvgl/src/lv_font/lv_font_fmt_txt.c:352:43
	ldrsh.w	r0, [sp, #30]
	.loc	2 352 27 is_stmt 0              @ lvgl/src/lv_font/lv_font_fmt_txt.c:352:27
	bl	_lv_mem_buf_get
	.loc	2 352 15                        @ lvgl/src/lv_font/lv_font_fmt_txt.c:352:15
	str	r0, [sp, #12]
	movs	r0, #0
	.loc	2 354 15 is_stmt 1              @ lvgl/src/lv_font/lv_font_fmt_txt.c:354:15
	str	r0, [sp, #8]
.Ltmp76:
	.loc	2 356 8                         @ lvgl/src/lv_font/lv_font_fmt_txt.c:356:8
	ldrb.w	r0, [sp, #26]
.Ltmp77:
	.loc	2 356 8 is_stmt 0               @ lvgl/src/lv_font/lv_font_fmt_txt.c:356:8
	lsls	r0, r0, #31
	cbz	r0, .LBB2_4
	b	.LBB2_3
.LBB2_3:
.Ltmp78:
	.loc	2 357 37 is_stmt 1              @ lvgl/src/lv_font/lv_font_fmt_txt.c:357:37
	ldrsh.w	r0, [sp, #30]
	.loc	2 357 21 is_stmt 0              @ lvgl/src/lv_font/lv_font_fmt_txt.c:357:21
	bl	_lv_mem_buf_get
	.loc	2 357 19                        @ lvgl/src/lv_font/lv_font_fmt_txt.c:357:19
	str	r0, [sp, #8]
	.loc	2 358 5 is_stmt 1               @ lvgl/src/lv_font/lv_font_fmt_txt.c:358:5
	b	.LBB2_4
.Ltmp79:
.LBB2_4:
	.loc	2 360 21                        @ lvgl/src/lv_font/lv_font_fmt_txt.c:360:21
	ldr	r0, [sp, #12]
	.loc	2 360 32 is_stmt 0              @ lvgl/src/lv_font/lv_font_fmt_txt.c:360:32
	ldrsh.w	r1, [sp, #30]
	.loc	2 360 5                         @ lvgl/src/lv_font/lv_font_fmt_txt.c:360:5
	bl	decompress_line
	movs	r0, #0
.Ltmp80:
	.loc	2 365 11 is_stmt 1              @ lvgl/src/lv_font/lv_font_fmt_txt.c:365:11
	strh.w	r0, [sp, #4]
	.loc	2 365 9 is_stmt 0               @ lvgl/src/lv_font/lv_font_fmt_txt.c:365:9
	b	.LBB2_5
.LBB2_5:                                @ =>This Inner Loop Header: Depth=1
.Ltmp81:
	.loc	2 365 16                        @ lvgl/src/lv_font/lv_font_fmt_txt.c:365:16
	ldrsh.w	r0, [sp, #4]
	.loc	2 365 20                        @ lvgl/src/lv_font/lv_font_fmt_txt.c:365:20
	ldrsh.w	r1, [sp, #30]
.Ltmp82:
	.loc	2 365 5                         @ lvgl/src/lv_font/lv_font_fmt_txt.c:365:5
	cmp	r0, r1
	bge	.LBB2_8
	b	.LBB2_6
.LBB2_6:                                @   in Loop: Header=BB2_5 Depth=1
.Ltmp83:
	.loc	2 366 20 is_stmt 1              @ lvgl/src/lv_font/lv_font_fmt_txt.c:366:20
	ldr	r0, [sp, #32]
	.loc	2 366 25 is_stmt 0              @ lvgl/src/lv_font/lv_font_fmt_txt.c:366:25
	ldr	r1, [sp, #20]
	.loc	2 366 30                        @ lvgl/src/lv_font/lv_font_fmt_txt.c:366:30
	ldr	r2, [sp, #12]
	.loc	2 366 40                        @ lvgl/src/lv_font/lv_font_fmt_txt.c:366:40
	ldrsh.w	r3, [sp, #4]
	.loc	2 366 30                        @ lvgl/src/lv_font/lv_font_fmt_txt.c:366:30
	ldrb	r2, [r2, r3]
	.loc	2 366 44                        @ lvgl/src/lv_font/lv_font_fmt_txt.c:366:44
	ldrb.w	r3, [sp, #27]
	.loc	2 366 9                         @ lvgl/src/lv_font/lv_font_fmt_txt.c:366:9
	bl	bits_write
	.loc	2 367 16 is_stmt 1              @ lvgl/src/lv_font/lv_font_fmt_txt.c:367:16
	ldrb.w	r1, [sp, #19]
	.loc	2 367 13 is_stmt 0              @ lvgl/src/lv_font/lv_font_fmt_txt.c:367:13
	ldr	r0, [sp, #20]
	add	r0, r1
	str	r0, [sp, #20]
	.loc	2 368 5 is_stmt 1               @ lvgl/src/lv_font/lv_font_fmt_txt.c:368:5
	b	.LBB2_7
.Ltmp84:
.LBB2_7:                                @   in Loop: Header=BB2_5 Depth=1
	.loc	2 365 24                        @ lvgl/src/lv_font/lv_font_fmt_txt.c:365:24
	ldrh.w	r0, [sp, #4]
	adds	r0, #1
	strh.w	r0, [sp, #4]
	.loc	2 365 5 is_stmt 0               @ lvgl/src/lv_font/lv_font_fmt_txt.c:365:5
	b	.LBB2_5
.Ltmp85:
.LBB2_8:
	.loc	2 0 5                           @ lvgl/src/lv_font/lv_font_fmt_txt.c:0:5
	movs	r0, #1
.Ltmp86:
	.loc	2 370 11 is_stmt 1              @ lvgl/src/lv_font/lv_font_fmt_txt.c:370:11
	strh.w	r0, [sp, #6]
	.loc	2 370 9 is_stmt 0               @ lvgl/src/lv_font/lv_font_fmt_txt.c:370:9
	b	.LBB2_9
.LBB2_9:                                @ =>This Loop Header: Depth=1
                                        @     Child Loop BB2_17 Depth 2
                                        @     Child Loop BB2_12 Depth 2
.Ltmp87:
	.loc	2 370 16                        @ lvgl/src/lv_font/lv_font_fmt_txt.c:370:16
	ldrsh.w	r0, [sp, #6]
	.loc	2 370 20                        @ lvgl/src/lv_font/lv_font_fmt_txt.c:370:20
	ldrsh.w	r1, [sp, #28]
.Ltmp88:
	.loc	2 370 5                         @ lvgl/src/lv_font/lv_font_fmt_txt.c:370:5
	cmp	r0, r1
	bge	.LBB2_23
	b	.LBB2_10
.LBB2_10:                               @   in Loop: Header=BB2_9 Depth=1
.Ltmp89:
	.loc	2 371 12 is_stmt 1              @ lvgl/src/lv_font/lv_font_fmt_txt.c:371:12
	ldrb.w	r0, [sp, #26]
.Ltmp90:
	.loc	2 371 12 is_stmt 0              @ lvgl/src/lv_font/lv_font_fmt_txt.c:371:12
	lsls	r0, r0, #31
	cbz	r0, .LBB2_16
	b	.LBB2_11
.LBB2_11:                               @   in Loop: Header=BB2_9 Depth=1
.Ltmp91:
	.loc	2 372 29 is_stmt 1              @ lvgl/src/lv_font/lv_font_fmt_txt.c:372:29
	ldr	r0, [sp, #8]
	.loc	2 372 40 is_stmt 0              @ lvgl/src/lv_font/lv_font_fmt_txt.c:372:40
	ldrsh.w	r1, [sp, #30]
	.loc	2 372 13                        @ lvgl/src/lv_font/lv_font_fmt_txt.c:372:13
	bl	decompress_line
	movs	r0, #0
.Ltmp92:
	.loc	2 374 19 is_stmt 1              @ lvgl/src/lv_font/lv_font_fmt_txt.c:374:19
	strh.w	r0, [sp, #4]
	.loc	2 374 17 is_stmt 0              @ lvgl/src/lv_font/lv_font_fmt_txt.c:374:17
	b	.LBB2_12
.LBB2_12:                               @   Parent Loop BB2_9 Depth=1
                                        @ =>  This Inner Loop Header: Depth=2
.Ltmp93:
	.loc	2 374 24                        @ lvgl/src/lv_font/lv_font_fmt_txt.c:374:24
	ldrsh.w	r0, [sp, #4]
	.loc	2 374 28                        @ lvgl/src/lv_font/lv_font_fmt_txt.c:374:28
	ldrsh.w	r1, [sp, #30]
.Ltmp94:
	.loc	2 374 13                        @ lvgl/src/lv_font/lv_font_fmt_txt.c:374:13
	cmp	r0, r1
	bge	.LBB2_15
	b	.LBB2_13
.LBB2_13:                               @   in Loop: Header=BB2_12 Depth=2
.Ltmp95:
	.loc	2 375 32 is_stmt 1              @ lvgl/src/lv_font/lv_font_fmt_txt.c:375:32
	ldr	r0, [sp, #8]
	.loc	2 375 42 is_stmt 0              @ lvgl/src/lv_font/lv_font_fmt_txt.c:375:42
	ldrsh.w	r2, [sp, #4]
	.loc	2 375 32                        @ lvgl/src/lv_font/lv_font_fmt_txt.c:375:32
	ldrb	r0, [r0, r2]
	.loc	2 375 47                        @ lvgl/src/lv_font/lv_font_fmt_txt.c:375:47
	ldr	r1, [sp, #12]
	ldrb	r3, [r1, r2]
	.loc	2 375 45                        @ lvgl/src/lv_font/lv_font_fmt_txt.c:375:45
	eors	r0, r3
	.loc	2 375 30                        @ lvgl/src/lv_font/lv_font_fmt_txt.c:375:30
	strb	r0, [r1, r2]
	.loc	2 376 28 is_stmt 1              @ lvgl/src/lv_font/lv_font_fmt_txt.c:376:28
	ldr	r0, [sp, #32]
	.loc	2 376 33 is_stmt 0              @ lvgl/src/lv_font/lv_font_fmt_txt.c:376:33
	ldr	r1, [sp, #20]
	.loc	2 376 38                        @ lvgl/src/lv_font/lv_font_fmt_txt.c:376:38
	ldr	r2, [sp, #12]
	.loc	2 376 48                        @ lvgl/src/lv_font/lv_font_fmt_txt.c:376:48
	ldrsh.w	r3, [sp, #4]
	.loc	2 376 38                        @ lvgl/src/lv_font/lv_font_fmt_txt.c:376:38
	ldrb	r2, [r2, r3]
	.loc	2 376 52                        @ lvgl/src/lv_font/lv_font_fmt_txt.c:376:52
	ldrb.w	r3, [sp, #27]
	.loc	2 376 17                        @ lvgl/src/lv_font/lv_font_fmt_txt.c:376:17
	bl	bits_write
	.loc	2 377 24 is_stmt 1              @ lvgl/src/lv_font/lv_font_fmt_txt.c:377:24
	ldrb.w	r1, [sp, #19]
	.loc	2 377 21 is_stmt 0              @ lvgl/src/lv_font/lv_font_fmt_txt.c:377:21
	ldr	r0, [sp, #20]
	add	r0, r1
	str	r0, [sp, #20]
	.loc	2 378 13 is_stmt 1              @ lvgl/src/lv_font/lv_font_fmt_txt.c:378:13
	b	.LBB2_14
.Ltmp96:
.LBB2_14:                               @   in Loop: Header=BB2_12 Depth=2
	.loc	2 374 32                        @ lvgl/src/lv_font/lv_font_fmt_txt.c:374:32
	ldrh.w	r0, [sp, #4]
	adds	r0, #1
	strh.w	r0, [sp, #4]
	.loc	2 374 13 is_stmt 0              @ lvgl/src/lv_font/lv_font_fmt_txt.c:374:13
	b	.LBB2_12
.Ltmp97:
.LBB2_15:                               @   in Loop: Header=BB2_9 Depth=1
	.loc	2 379 9 is_stmt 1               @ lvgl/src/lv_font/lv_font_fmt_txt.c:379:9
	b	.LBB2_21
.Ltmp98:
.LBB2_16:                               @   in Loop: Header=BB2_9 Depth=1
	.loc	2 381 29                        @ lvgl/src/lv_font/lv_font_fmt_txt.c:381:29
	ldr	r0, [sp, #12]
	.loc	2 381 40 is_stmt 0              @ lvgl/src/lv_font/lv_font_fmt_txt.c:381:40
	ldrsh.w	r1, [sp, #30]
	.loc	2 381 13                        @ lvgl/src/lv_font/lv_font_fmt_txt.c:381:13
	bl	decompress_line
	movs	r0, #0
.Ltmp99:
	.loc	2 383 19 is_stmt 1              @ lvgl/src/lv_font/lv_font_fmt_txt.c:383:19
	strh.w	r0, [sp, #4]
	.loc	2 383 17 is_stmt 0              @ lvgl/src/lv_font/lv_font_fmt_txt.c:383:17
	b	.LBB2_17
.LBB2_17:                               @   Parent Loop BB2_9 Depth=1
                                        @ =>  This Inner Loop Header: Depth=2
.Ltmp100:
	.loc	2 383 24                        @ lvgl/src/lv_font/lv_font_fmt_txt.c:383:24
	ldrsh.w	r0, [sp, #4]
	.loc	2 383 28                        @ lvgl/src/lv_font/lv_font_fmt_txt.c:383:28
	ldrsh.w	r1, [sp, #30]
.Ltmp101:
	.loc	2 383 13                        @ lvgl/src/lv_font/lv_font_fmt_txt.c:383:13
	cmp	r0, r1
	bge	.LBB2_20
	b	.LBB2_18
.LBB2_18:                               @   in Loop: Header=BB2_17 Depth=2
.Ltmp102:
	.loc	2 384 28 is_stmt 1              @ lvgl/src/lv_font/lv_font_fmt_txt.c:384:28
	ldr	r0, [sp, #32]
	.loc	2 384 33 is_stmt 0              @ lvgl/src/lv_font/lv_font_fmt_txt.c:384:33
	ldr	r1, [sp, #20]
	.loc	2 384 38                        @ lvgl/src/lv_font/lv_font_fmt_txt.c:384:38
	ldr	r2, [sp, #12]
	.loc	2 384 48                        @ lvgl/src/lv_font/lv_font_fmt_txt.c:384:48
	ldrsh.w	r3, [sp, #4]
	.loc	2 384 38                        @ lvgl/src/lv_font/lv_font_fmt_txt.c:384:38
	ldrb	r2, [r2, r3]
	.loc	2 384 52                        @ lvgl/src/lv_font/lv_font_fmt_txt.c:384:52
	ldrb.w	r3, [sp, #27]
	.loc	2 384 17                        @ lvgl/src/lv_font/lv_font_fmt_txt.c:384:17
	bl	bits_write
	.loc	2 385 24 is_stmt 1              @ lvgl/src/lv_font/lv_font_fmt_txt.c:385:24
	ldrb.w	r1, [sp, #19]
	.loc	2 385 21 is_stmt 0              @ lvgl/src/lv_font/lv_font_fmt_txt.c:385:21
	ldr	r0, [sp, #20]
	add	r0, r1
	str	r0, [sp, #20]
	.loc	2 386 13 is_stmt 1              @ lvgl/src/lv_font/lv_font_fmt_txt.c:386:13
	b	.LBB2_19
.Ltmp103:
.LBB2_19:                               @   in Loop: Header=BB2_17 Depth=2
	.loc	2 383 32                        @ lvgl/src/lv_font/lv_font_fmt_txt.c:383:32
	ldrh.w	r0, [sp, #4]
	adds	r0, #1
	strh.w	r0, [sp, #4]
	.loc	2 383 13 is_stmt 0              @ lvgl/src/lv_font/lv_font_fmt_txt.c:383:13
	b	.LBB2_17
.Ltmp104:
.LBB2_20:                               @   in Loop: Header=BB2_9 Depth=1
	.loc	2 0 13                          @ lvgl/src/lv_font/lv_font_fmt_txt.c:0:13
	b	.LBB2_21
.LBB2_21:                               @   in Loop: Header=BB2_9 Depth=1
	.loc	2 388 5 is_stmt 1               @ lvgl/src/lv_font/lv_font_fmt_txt.c:388:5
	b	.LBB2_22
.Ltmp105:
.LBB2_22:                               @   in Loop: Header=BB2_9 Depth=1
	.loc	2 370 24                        @ lvgl/src/lv_font/lv_font_fmt_txt.c:370:24
	ldrh.w	r0, [sp, #6]
	adds	r0, #1
	strh.w	r0, [sp, #6]
	.loc	2 370 5 is_stmt 0               @ lvgl/src/lv_font/lv_font_fmt_txt.c:370:5
	b	.LBB2_9
.Ltmp106:
.LBB2_23:
	.loc	2 390 25 is_stmt 1              @ lvgl/src/lv_font/lv_font_fmt_txt.c:390:25
	ldr	r0, [sp, #12]
	.loc	2 390 5 is_stmt 0               @ lvgl/src/lv_font/lv_font_fmt_txt.c:390:5
	bl	_lv_mem_buf_release
	.loc	2 391 25 is_stmt 1              @ lvgl/src/lv_font/lv_font_fmt_txt.c:391:25
	ldr	r0, [sp, #8]
	.loc	2 391 5 is_stmt 0               @ lvgl/src/lv_font/lv_font_fmt_txt.c:391:5
	bl	_lv_mem_buf_release
	.loc	2 392 1 is_stmt 1               @ lvgl/src/lv_font/lv_font_fmt_txt.c:392:1
	add	sp, #40
	pop	{r4, pc}
.Ltmp107:
.Lfunc_end2:
	.size	decompress, .Lfunc_end2-decompress
	.cfi_endproc
	.cantunwind
	.fnend
                                        @ -- End function
	.section	.text.lv_font_get_glyph_dsc_fmt_txt,"ax",%progbits
	.hidden	lv_font_get_glyph_dsc_fmt_txt   @ -- Begin function lv_font_get_glyph_dsc_fmt_txt
	.globl	lv_font_get_glyph_dsc_fmt_txt
	.p2align	3
	.type	lv_font_get_glyph_dsc_fmt_txt,%function
	.code	16                              @ @lv_font_get_glyph_dsc_fmt_txt
	.thumb_func
lv_font_get_glyph_dsc_fmt_txt:
.Lfunc_begin3:
	.loc	2 145 0                         @ lvgl/src/lv_font/lv_font_fmt_txt.c:145:0
	.fnstart
	.cfi_startproc
@ %bb.0:
	.save	{r7, lr}
	push	{r7, lr}
	.cfi_def_cfa_offset 8
	.cfi_offset lr, -4
	.cfi_offset r7, -8
	.pad	#56
	sub	sp, #56
	.cfi_def_cfa_offset 64
	str	r0, [sp, #48]
	str	r1, [sp, #44]
	str	r2, [sp, #40]
	str	r3, [sp, #36]
	movs	r0, #0
.Ltmp108:
	.loc	2 146 10 prologue_end           @ lvgl/src/lv_font/lv_font_fmt_txt.c:146:10
	strb.w	r0, [sp, #35]
.Ltmp109:
	.loc	2 147 8                         @ lvgl/src/lv_font/lv_font_fmt_txt.c:147:8
	ldr	r0, [sp, #40]
.Ltmp110:
	.loc	2 147 8 is_stmt 0               @ lvgl/src/lv_font/lv_font_fmt_txt.c:147:8
	cmp	r0, #9
	bne	.LBB3_2
	b	.LBB3_1
.LBB3_1:
	.loc	2 0 8                           @ lvgl/src/lv_font/lv_font_fmt_txt.c:0:8
	movs	r0, #32
.Ltmp111:
	.loc	2 148 24 is_stmt 1              @ lvgl/src/lv_font/lv_font_fmt_txt.c:148:24
	str	r0, [sp, #40]
	movs	r0, #1
	.loc	2 149 16                        @ lvgl/src/lv_font/lv_font_fmt_txt.c:149:16
	strb.w	r0, [sp, #35]
	.loc	2 150 5                         @ lvgl/src/lv_font/lv_font_fmt_txt.c:150:5
	b	.LBB3_2
.Ltmp112:
.LBB3_2:
	.loc	2 151 62                        @ lvgl/src/lv_font/lv_font_fmt_txt.c:151:62
	ldr	r0, [sp, #48]
	.loc	2 151 68 is_stmt 0              @ lvgl/src/lv_font/lv_font_fmt_txt.c:151:68
	ldr	r0, [r0, #16]
	.loc	2 151 29                        @ lvgl/src/lv_font/lv_font_fmt_txt.c:151:29
	str	r0, [sp, #28]
	.loc	2 152 37 is_stmt 1              @ lvgl/src/lv_font/lv_font_fmt_txt.c:152:37
	ldr	r0, [sp, #48]
	.loc	2 152 43 is_stmt 0              @ lvgl/src/lv_font/lv_font_fmt_txt.c:152:43
	ldr	r1, [sp, #40]
	.loc	2 152 20                        @ lvgl/src/lv_font/lv_font_fmt_txt.c:152:20
	bl	get_glyph_dsc_id
	.loc	2 152 14                        @ lvgl/src/lv_font/lv_font_fmt_txt.c:152:14
	str	r0, [sp, #24]
.Ltmp113:
	.loc	2 153 9 is_stmt 1               @ lvgl/src/lv_font/lv_font_fmt_txt.c:153:9
	ldr	r0, [sp, #24]
.Ltmp114:
	.loc	2 153 8 is_stmt 0               @ lvgl/src/lv_font/lv_font_fmt_txt.c:153:8
	cbnz	r0, .LBB3_4
	b	.LBB3_3
.LBB3_3:
	.loc	2 0 8                           @ lvgl/src/lv_font/lv_font_fmt_txt.c:0:8
	movs	r0, #0
.Ltmp115:
	.loc	2 153 14                        @ lvgl/src/lv_font/lv_font_fmt_txt.c:153:14
	strb.w	r0, [sp, #55]
	b	.LBB3_13
.Ltmp116:
.LBB3_4:
	.loc	2 0 14                          @ lvgl/src/lv_font/lv_font_fmt_txt.c:0:14
	movs	r0, #0
	.loc	2 155 12 is_stmt 1              @ lvgl/src/lv_font/lv_font_fmt_txt.c:155:12
	strb.w	r0, [sp, #23]
.Ltmp117:
	.loc	2 156 8                         @ lvgl/src/lv_font/lv_font_fmt_txt.c:156:8
	ldr	r0, [sp, #28]
	.loc	2 156 14 is_stmt 0              @ lvgl/src/lv_font/lv_font_fmt_txt.c:156:14
	ldr	r0, [r0, #12]
.Ltmp118:
	.loc	2 156 8                         @ lvgl/src/lv_font/lv_font_fmt_txt.c:156:8
	cbz	r0, .LBB3_8
	b	.LBB3_5
.LBB3_5:
.Ltmp119:
	.loc	2 157 46 is_stmt 1              @ lvgl/src/lv_font/lv_font_fmt_txt.c:157:46
	ldr	r0, [sp, #48]
	.loc	2 157 52 is_stmt 0              @ lvgl/src/lv_font/lv_font_fmt_txt.c:157:52
	ldr	r1, [sp, #36]
	.loc	2 157 29                        @ lvgl/src/lv_font/lv_font_fmt_txt.c:157:29
	bl	get_glyph_dsc_id
	.loc	2 157 18                        @ lvgl/src/lv_font/lv_font_fmt_txt.c:157:18
	str	r0, [sp, #16]
.Ltmp120:
	.loc	2 158 12 is_stmt 1              @ lvgl/src/lv_font/lv_font_fmt_txt.c:158:12
	ldr	r0, [sp, #16]
.Ltmp121:
	.loc	2 158 12 is_stmt 0              @ lvgl/src/lv_font/lv_font_fmt_txt.c:158:12
	cbz	r0, .LBB3_7
	b	.LBB3_6
.LBB3_6:
.Ltmp122:
	.loc	2 159 37 is_stmt 1              @ lvgl/src/lv_font/lv_font_fmt_txt.c:159:37
	ldr	r0, [sp, #48]
	.loc	2 159 43 is_stmt 0              @ lvgl/src/lv_font/lv_font_fmt_txt.c:159:43
	ldr	r1, [sp, #24]
	.loc	2 159 48                        @ lvgl/src/lv_font/lv_font_fmt_txt.c:159:48
	ldr	r2, [sp, #16]
	.loc	2 159 22                        @ lvgl/src/lv_font/lv_font_fmt_txt.c:159:22
	bl	get_kern_value
	.loc	2 159 20                        @ lvgl/src/lv_font/lv_font_fmt_txt.c:159:20
	strb.w	r0, [sp, #23]
	.loc	2 160 9 is_stmt 1               @ lvgl/src/lv_font/lv_font_fmt_txt.c:160:9
	b	.LBB3_7
.Ltmp123:
.LBB3_7:
	.loc	2 161 5                         @ lvgl/src/lv_font/lv_font_fmt_txt.c:161:5
	b	.LBB3_8
.Ltmp124:
.LBB3_8:
	.loc	2 164 49                        @ lvgl/src/lv_font/lv_font_fmt_txt.c:164:49
	ldr	r0, [sp, #28]
	.loc	2 164 55 is_stmt 0              @ lvgl/src/lv_font/lv_font_fmt_txt.c:164:55
	ldr	r0, [r0, #4]
	.loc	2 164 65                        @ lvgl/src/lv_font/lv_font_fmt_txt.c:164:65
	ldr	r1, [sp, #24]
	.loc	2 164 49                        @ lvgl/src/lv_font/lv_font_fmt_txt.c:164:49
	add.w	r0, r0, r1, lsl #3
	.loc	2 164 41                        @ lvgl/src/lv_font/lv_font_fmt_txt.c:164:41
	str	r0, [sp, #12]
	.loc	2 166 38 is_stmt 1              @ lvgl/src/lv_font/lv_font_fmt_txt.c:166:38
	ldrsb.w	r0, [sp, #23]
	.loc	2 166 47 is_stmt 0              @ lvgl/src/lv_font/lv_font_fmt_txt.c:166:47
	ldr	r1, [sp, #28]
	.loc	2 166 53                        @ lvgl/src/lv_font/lv_font_fmt_txt.c:166:53
	ldrh	r1, [r1, #16]
	.loc	2 166 45                        @ lvgl/src/lv_font/lv_font_fmt_txt.c:166:45
	muls	r0, r1, r0
	.loc	2 166 65                        @ lvgl/src/lv_font/lv_font_fmt_txt.c:166:65
	asrs	r0, r0, #4
	.loc	2 166 13                        @ lvgl/src/lv_font/lv_font_fmt_txt.c:166:13
	str	r0, [sp, #8]
	.loc	2 168 22 is_stmt 1              @ lvgl/src/lv_font/lv_font_fmt_txt.c:168:22
	ldr	r0, [sp, #12]
	.loc	2 168 28 is_stmt 0              @ lvgl/src/lv_font/lv_font_fmt_txt.c:168:28
	ldr	r0, [r0]
	lsrs	r0, r0, #20
	.loc	2 168 14                        @ lvgl/src/lv_font/lv_font_fmt_txt.c:168:14
	str	r0, [sp, #4]
.Ltmp125:
	.loc	2 169 8 is_stmt 1               @ lvgl/src/lv_font/lv_font_fmt_txt.c:169:8
	ldrb.w	r0, [sp, #35]
.Ltmp126:
	.loc	2 169 8 is_stmt 0               @ lvgl/src/lv_font/lv_font_fmt_txt.c:169:8
	lsls	r0, r0, #31
	cbz	r0, .LBB3_10
	b	.LBB3_9
.LBB3_9:
.Ltmp127:
	.loc	2 169 22                        @ lvgl/src/lv_font/lv_font_fmt_txt.c:169:22
	ldr	r0, [sp, #4]
	lsls	r0, r0, #1
	str	r0, [sp, #4]
	.loc	2 169 16                        @ lvgl/src/lv_font/lv_font_fmt_txt.c:169:16
	b	.LBB3_10
.Ltmp128:
.LBB3_10:
	.loc	2 171 14 is_stmt 1              @ lvgl/src/lv_font/lv_font_fmt_txt.c:171:14
	ldr	r1, [sp, #8]
	.loc	2 171 11 is_stmt 0              @ lvgl/src/lv_font/lv_font_fmt_txt.c:171:11
	ldr	r0, [sp, #4]
	add	r0, r1
	str	r0, [sp, #4]
	.loc	2 172 15 is_stmt 1              @ lvgl/src/lv_font/lv_font_fmt_txt.c:172:15
	ldr	r0, [sp, #4]
	.loc	2 172 21 is_stmt 0              @ lvgl/src/lv_font/lv_font_fmt_txt.c:172:21
	adds	r0, #8
	.loc	2 172 33                        @ lvgl/src/lv_font/lv_font_fmt_txt.c:172:33
	lsrs	r0, r0, #4
	.loc	2 172 12                        @ lvgl/src/lv_font/lv_font_fmt_txt.c:172:12
	str	r0, [sp, #4]
	.loc	2 174 22 is_stmt 1              @ lvgl/src/lv_font/lv_font_fmt_txt.c:174:22
	ldr	r0, [sp, #4]
	.loc	2 174 5 is_stmt 0               @ lvgl/src/lv_font/lv_font_fmt_txt.c:174:5
	ldr	r1, [sp, #44]
	.loc	2 174 20                        @ lvgl/src/lv_font/lv_font_fmt_txt.c:174:20
	strh	r0, [r1]
	.loc	2 175 22 is_stmt 1              @ lvgl/src/lv_font/lv_font_fmt_txt.c:175:22
	ldr	r0, [sp, #12]
	.loc	2 175 28 is_stmt 0              @ lvgl/src/lv_font/lv_font_fmt_txt.c:175:28
	ldrb	r0, [r0, #5]
	.loc	2 175 5                         @ lvgl/src/lv_font/lv_font_fmt_txt.c:175:5
	ldr	r1, [sp, #44]
	.loc	2 175 20                        @ lvgl/src/lv_font/lv_font_fmt_txt.c:175:20
	strh	r0, [r1, #4]
	.loc	2 176 22 is_stmt 1              @ lvgl/src/lv_font/lv_font_fmt_txt.c:176:22
	ldr	r0, [sp, #12]
	.loc	2 176 28 is_stmt 0              @ lvgl/src/lv_font/lv_font_fmt_txt.c:176:28
	ldrb	r0, [r0, #4]
	.loc	2 176 5                         @ lvgl/src/lv_font/lv_font_fmt_txt.c:176:5
	ldr	r1, [sp, #44]
	.loc	2 176 20                        @ lvgl/src/lv_font/lv_font_fmt_txt.c:176:20
	strh	r0, [r1, #2]
	.loc	2 177 22 is_stmt 1              @ lvgl/src/lv_font/lv_font_fmt_txt.c:177:22
	ldr	r0, [sp, #12]
	.loc	2 177 28 is_stmt 0              @ lvgl/src/lv_font/lv_font_fmt_txt.c:177:28
	ldrsb.w	r0, [r0, #6]
	.loc	2 177 5                         @ lvgl/src/lv_font/lv_font_fmt_txt.c:177:5
	ldr	r1, [sp, #44]
	.loc	2 177 20                        @ lvgl/src/lv_font/lv_font_fmt_txt.c:177:20
	strh	r0, [r1, #6]
	.loc	2 178 22 is_stmt 1              @ lvgl/src/lv_font/lv_font_fmt_txt.c:178:22
	ldr	r0, [sp, #12]
	.loc	2 178 28 is_stmt 0              @ lvgl/src/lv_font/lv_font_fmt_txt.c:178:28
	ldrsb.w	r0, [r0, #7]
	.loc	2 178 5                         @ lvgl/src/lv_font/lv_font_fmt_txt.c:178:5
	ldr	r1, [sp, #44]
	.loc	2 178 20                        @ lvgl/src/lv_font/lv_font_fmt_txt.c:178:20
	strh	r0, [r1, #8]
	.loc	2 179 31 is_stmt 1              @ lvgl/src/lv_font/lv_font_fmt_txt.c:179:31
	ldr	r0, [sp, #28]
	.loc	2 179 37 is_stmt 0              @ lvgl/src/lv_font/lv_font_fmt_txt.c:179:37
	ldrh	r0, [r0, #18]
	.loc	2 179 22                        @ lvgl/src/lv_font/lv_font_fmt_txt.c:179:22
	ubfx	r0, r0, #9, #4
	.loc	2 179 5                         @ lvgl/src/lv_font/lv_font_fmt_txt.c:179:5
	ldr	r1, [sp, #44]
	.loc	2 179 20                        @ lvgl/src/lv_font/lv_font_fmt_txt.c:179:20
	strb	r0, [r1, #10]
.Ltmp129:
	.loc	2 181 8 is_stmt 1               @ lvgl/src/lv_font/lv_font_fmt_txt.c:181:8
	ldrb.w	r0, [sp, #35]
.Ltmp130:
	.loc	2 181 8 is_stmt 0               @ lvgl/src/lv_font/lv_font_fmt_txt.c:181:8
	lsls	r0, r0, #31
	cbz	r0, .LBB3_12
	b	.LBB3_11
.LBB3_11:
.Ltmp131:
	.loc	2 181 33                        @ lvgl/src/lv_font/lv_font_fmt_txt.c:181:33
	ldr	r1, [sp, #44]
	ldrh	r0, [r1, #2]
	.loc	2 181 48                        @ lvgl/src/lv_font/lv_font_fmt_txt.c:181:48
	lsls	r0, r0, #1
	.loc	2 181 31                        @ lvgl/src/lv_font/lv_font_fmt_txt.c:181:31
	strh	r0, [r1, #2]
	.loc	2 181 16                        @ lvgl/src/lv_font/lv_font_fmt_txt.c:181:16
	b	.LBB3_12
.Ltmp132:
.LBB3_12:
	.loc	2 0 16                          @ lvgl/src/lv_font/lv_font_fmt_txt.c:0:16
	movs	r0, #1
	.loc	2 183 5 is_stmt 1               @ lvgl/src/lv_font/lv_font_fmt_txt.c:183:5
	strb.w	r0, [sp, #55]
	b	.LBB3_13
.LBB3_13:
	.loc	2 184 1                         @ lvgl/src/lv_font/lv_font_fmt_txt.c:184:1
	ldrb.w	r0, [sp, #55]
	add	sp, #56
	pop	{r7, pc}
.Ltmp133:
.Lfunc_end3:
	.size	lv_font_get_glyph_dsc_fmt_txt, .Lfunc_end3-lv_font_get_glyph_dsc_fmt_txt
	.cfi_endproc
	.cantunwind
	.fnend
                                        @ -- End function
	.section	.text.get_kern_value,"ax",%progbits
	.p2align	3                               @ -- Begin function get_kern_value
	.type	get_kern_value,%function
	.code	16                              @ @get_kern_value
	.thumb_func
get_kern_value:
.Lfunc_begin4:
	.loc	2 259 0                         @ lvgl/src/lv_font/lv_font_fmt_txt.c:259:0
	.fnstart
	.cfi_startproc
@ %bb.0:
	.save	{r7, lr}
	push	{r7, lr}
	.cfi_def_cfa_offset 8
	.cfi_offset lr, -4
	.cfi_offset r7, -8
	.pad	#72
	sub	sp, #72
	.cfi_def_cfa_offset 80
	str	r0, [sp, #68]
	str	r1, [sp, #64]
	str	r2, [sp, #60]
.Ltmp134:
	.loc	2 260 62 prologue_end           @ lvgl/src/lv_font/lv_font_fmt_txt.c:260:62
	ldr	r0, [sp, #68]
	.loc	2 260 68 is_stmt 0              @ lvgl/src/lv_font/lv_font_fmt_txt.c:260:68
	ldr	r0, [r0, #16]
	.loc	2 260 29                        @ lvgl/src/lv_font/lv_font_fmt_txt.c:260:29
	str	r0, [sp, #56]
	movs	r0, #0
	.loc	2 262 12 is_stmt 1              @ lvgl/src/lv_font/lv_font_fmt_txt.c:262:12
	strb.w	r0, [sp, #55]
.Ltmp135:
	.loc	2 264 8                         @ lvgl/src/lv_font/lv_font_fmt_txt.c:264:8
	ldr	r0, [sp, #56]
	.loc	2 264 14 is_stmt 0              @ lvgl/src/lv_font/lv_font_fmt_txt.c:264:14
	ldrh	r0, [r0, #18]
	lsrs	r0, r0, #13
.Ltmp136:
	.loc	2 264 8                         @ lvgl/src/lv_font/lv_font_fmt_txt.c:264:8
	lsls	r0, r0, #31
	cmp	r0, #0
	bne	.LBB4_12
	b	.LBB4_1
.LBB4_1:
.Ltmp137:
	.loc	2 266 52 is_stmt 1              @ lvgl/src/lv_font/lv_font_fmt_txt.c:266:52
	ldr	r0, [sp, #56]
	.loc	2 266 58 is_stmt 0              @ lvgl/src/lv_font/lv_font_fmt_txt.c:266:58
	ldr	r0, [r0, #12]
	.loc	2 266 45                        @ lvgl/src/lv_font/lv_font_fmt_txt.c:266:45
	str	r0, [sp, #48]
.Ltmp138:
	.loc	2 267 12 is_stmt 1              @ lvgl/src/lv_font/lv_font_fmt_txt.c:267:12
	ldr	r0, [sp, #48]
	.loc	2 267 18 is_stmt 0              @ lvgl/src/lv_font/lv_font_fmt_txt.c:267:18
	ldr	r1, [r0, #8]
	movs	r0, #0
.Ltmp139:
	.loc	2 267 12                        @ lvgl/src/lv_font/lv_font_fmt_txt.c:267:12
	cmp.w	r0, r1, lsr #30
	bne	.LBB4_5
	b	.LBB4_2
.LBB4_2:
.Ltmp140:
	.loc	2 270 38 is_stmt 1              @ lvgl/src/lv_font/lv_font_fmt_txt.c:270:38
	ldr	r0, [sp, #48]
	.loc	2 270 44 is_stmt 0              @ lvgl/src/lv_font/lv_font_fmt_txt.c:270:44
	ldr	r0, [r0]
	.loc	2 270 30                        @ lvgl/src/lv_font/lv_font_fmt_txt.c:270:30
	str	r0, [sp, #44]
	.loc	2 271 35 is_stmt 1              @ lvgl/src/lv_font/lv_font_fmt_txt.c:271:35
	ldr	r1, [sp, #60]
	.loc	2 271 53 is_stmt 0              @ lvgl/src/lv_font/lv_font_fmt_txt.c:271:53
	ldr	r0, [sp, #64]
	.loc	2 271 51                        @ lvgl/src/lv_font/lv_font_fmt_txt.c:271:51
	add.w	r0, r0, r1, lsl #8
	.loc	2 271 22                        @ lvgl/src/lv_font/lv_font_fmt_txt.c:271:22
	strh.w	r0, [sp, #42]
	.loc	2 272 62 is_stmt 1              @ lvgl/src/lv_font/lv_font_fmt_txt.c:272:62
	ldr	r1, [sp, #44]
	.loc	2 272 69 is_stmt 0              @ lvgl/src/lv_font/lv_font_fmt_txt.c:272:69
	ldr	r0, [sp, #48]
	.loc	2 272 75                        @ lvgl/src/lv_font/lv_font_fmt_txt.c:272:75
	ldr	r0, [r0, #8]
	bic	r2, r0, #-1073741824
	.loc	2 272 32                        @ lvgl/src/lv_font/lv_font_fmt_txt.c:272:32
	movw	r0, :lower16:kern_pair_8_compare
	movt	r0, :upper16:kern_pair_8_compare
	mov	r3, sp
	str	r0, [r3]
	add.w	r0, sp, #42
	movs	r3, #2
	bl	_lv_utils_bsearch
	.loc	2 272 24                        @ lvgl/src/lv_font/lv_font_fmt_txt.c:272:24
	str	r0, [sp, #36]
.Ltmp141:
	.loc	2 275 16 is_stmt 1              @ lvgl/src/lv_font/lv_font_fmt_txt.c:275:16
	ldr	r0, [sp, #36]
.Ltmp142:
	.loc	2 275 16 is_stmt 0              @ lvgl/src/lv_font/lv_font_fmt_txt.c:275:16
	cbz	r0, .LBB4_4
	b	.LBB4_3
.LBB4_3:
.Ltmp143:
	.loc	2 276 36 is_stmt 1              @ lvgl/src/lv_font/lv_font_fmt_txt.c:276:36
	ldr	r0, [sp, #36]
	.loc	2 276 44 is_stmt 0              @ lvgl/src/lv_font/lv_font_fmt_txt.c:276:44
	ldr	r1, [sp, #44]
	.loc	2 276 42                        @ lvgl/src/lv_font/lv_font_fmt_txt.c:276:42
	subs	r0, r0, r1
	asrs	r0, r0, #1
	.loc	2 276 30                        @ lvgl/src/lv_font/lv_font_fmt_txt.c:276:30
	str	r0, [sp, #32]
	.loc	2 277 25 is_stmt 1              @ lvgl/src/lv_font/lv_font_fmt_txt.c:277:25
	ldr	r0, [sp, #48]
	.loc	2 277 31 is_stmt 0              @ lvgl/src/lv_font/lv_font_fmt_txt.c:277:31
	ldr	r0, [r0, #4]
	.loc	2 277 38                        @ lvgl/src/lv_font/lv_font_fmt_txt.c:277:38
	ldr	r1, [sp, #32]
	.loc	2 277 25                        @ lvgl/src/lv_font/lv_font_fmt_txt.c:277:25
	ldrb	r0, [r0, r1]
	.loc	2 277 23                        @ lvgl/src/lv_font/lv_font_fmt_txt.c:277:23
	strb.w	r0, [sp, #55]
	.loc	2 278 13 is_stmt 1              @ lvgl/src/lv_font/lv_font_fmt_txt.c:278:13
	b	.LBB4_4
.Ltmp144:
.LBB4_4:
	.loc	2 279 9                         @ lvgl/src/lv_font/lv_font_fmt_txt.c:279:9
	b	.LBB4_11
.Ltmp145:
.LBB4_5:
	.loc	2 280 17                        @ lvgl/src/lv_font/lv_font_fmt_txt.c:280:17
	ldr	r0, [sp, #48]
	.loc	2 280 23 is_stmt 0              @ lvgl/src/lv_font/lv_font_fmt_txt.c:280:23
	ldr	r1, [r0, #8]
	movs	r0, #1
.Ltmp146:
	.loc	2 280 17                        @ lvgl/src/lv_font/lv_font_fmt_txt.c:280:17
	cmp.w	r0, r1, lsr #30
	bne	.LBB4_9
	b	.LBB4_6
.LBB4_6:
.Ltmp147:
	.loc	2 283 38 is_stmt 1              @ lvgl/src/lv_font/lv_font_fmt_txt.c:283:38
	ldr	r0, [sp, #48]
	.loc	2 283 44 is_stmt 0              @ lvgl/src/lv_font/lv_font_fmt_txt.c:283:44
	ldr	r0, [r0]
	.loc	2 283 30                        @ lvgl/src/lv_font/lv_font_fmt_txt.c:283:30
	str	r0, [sp, #28]
	.loc	2 284 35 is_stmt 1              @ lvgl/src/lv_font/lv_font_fmt_txt.c:284:35
	ldr	r1, [sp, #60]
	.loc	2 284 54 is_stmt 0              @ lvgl/src/lv_font/lv_font_fmt_txt.c:284:54
	ldr	r0, [sp, #64]
	.loc	2 284 52                        @ lvgl/src/lv_font/lv_font_fmt_txt.c:284:52
	add.w	r0, r0, r1, lsl #16
	.loc	2 284 22                        @ lvgl/src/lv_font/lv_font_fmt_txt.c:284:22
	str	r0, [sp, #24]
	.loc	2 285 62 is_stmt 1              @ lvgl/src/lv_font/lv_font_fmt_txt.c:285:62
	ldr	r1, [sp, #28]
	.loc	2 285 69 is_stmt 0              @ lvgl/src/lv_font/lv_font_fmt_txt.c:285:69
	ldr	r0, [sp, #48]
	.loc	2 285 75                        @ lvgl/src/lv_font/lv_font_fmt_txt.c:285:75
	ldr	r0, [r0, #8]
	bic	r2, r0, #-1073741824
	.loc	2 285 32                        @ lvgl/src/lv_font/lv_font_fmt_txt.c:285:32
	movw	r0, :lower16:kern_pair_16_compare
	movt	r0, :upper16:kern_pair_16_compare
	mov	r3, sp
	str	r0, [r3]
	add	r0, sp, #24
	movs	r3, #4
	bl	_lv_utils_bsearch
	.loc	2 285 24                        @ lvgl/src/lv_font/lv_font_fmt_txt.c:285:24
	str	r0, [sp, #20]
.Ltmp148:
	.loc	2 288 16 is_stmt 1              @ lvgl/src/lv_font/lv_font_fmt_txt.c:288:16
	ldr	r0, [sp, #20]
.Ltmp149:
	.loc	2 288 16 is_stmt 0              @ lvgl/src/lv_font/lv_font_fmt_txt.c:288:16
	cbz	r0, .LBB4_8
	b	.LBB4_7
.LBB4_7:
.Ltmp150:
	.loc	2 289 36 is_stmt 1              @ lvgl/src/lv_font/lv_font_fmt_txt.c:289:36
	ldr	r0, [sp, #20]
	.loc	2 289 44 is_stmt 0              @ lvgl/src/lv_font/lv_font_fmt_txt.c:289:44
	ldr	r1, [sp, #28]
	.loc	2 289 42                        @ lvgl/src/lv_font/lv_font_fmt_txt.c:289:42
	subs	r0, r0, r1
	asrs	r0, r0, #2
	.loc	2 289 30                        @ lvgl/src/lv_font/lv_font_fmt_txt.c:289:30
	str	r0, [sp, #16]
	.loc	2 290 25 is_stmt 1              @ lvgl/src/lv_font/lv_font_fmt_txt.c:290:25
	ldr	r0, [sp, #48]
	.loc	2 290 31 is_stmt 0              @ lvgl/src/lv_font/lv_font_fmt_txt.c:290:31
	ldr	r0, [r0, #4]
	.loc	2 290 38                        @ lvgl/src/lv_font/lv_font_fmt_txt.c:290:38
	ldr	r1, [sp, #16]
	.loc	2 290 25                        @ lvgl/src/lv_font/lv_font_fmt_txt.c:290:25
	ldrb	r0, [r0, r1]
	.loc	2 290 23                        @ lvgl/src/lv_font/lv_font_fmt_txt.c:290:23
	strb.w	r0, [sp, #55]
	.loc	2 291 13 is_stmt 1              @ lvgl/src/lv_font/lv_font_fmt_txt.c:291:13
	b	.LBB4_8
.Ltmp151:
.LBB4_8:
	.loc	2 293 9                         @ lvgl/src/lv_font/lv_font_fmt_txt.c:293:9
	b	.LBB4_10
.Ltmp152:
.LBB4_9:
	.loc	2 0 9 is_stmt 0                 @ lvgl/src/lv_font/lv_font_fmt_txt.c:0:9
	b	.LBB4_10
.LBB4_10:
	b	.LBB4_11
.LBB4_11:
	.loc	2 297 5 is_stmt 1               @ lvgl/src/lv_font/lv_font_fmt_txt.c:297:5
	b	.LBB4_16
.Ltmp153:
.LBB4_12:
	.loc	2 300 55                        @ lvgl/src/lv_font/lv_font_fmt_txt.c:300:55
	ldr	r0, [sp, #56]
	.loc	2 300 61 is_stmt 0              @ lvgl/src/lv_font/lv_font_fmt_txt.c:300:61
	ldr	r0, [r0, #12]
	.loc	2 300 48                        @ lvgl/src/lv_font/lv_font_fmt_txt.c:300:48
	str	r0, [sp, #12]
	.loc	2 301 30 is_stmt 1              @ lvgl/src/lv_font/lv_font_fmt_txt.c:301:30
	ldr	r0, [sp, #12]
	.loc	2 301 36 is_stmt 0              @ lvgl/src/lv_font/lv_font_fmt_txt.c:301:36
	ldr	r0, [r0, #4]
	.loc	2 301 55                        @ lvgl/src/lv_font/lv_font_fmt_txt.c:301:55
	ldr	r1, [sp, #64]
	.loc	2 301 30                        @ lvgl/src/lv_font/lv_font_fmt_txt.c:301:30
	ldrb	r0, [r0, r1]
	.loc	2 301 17                        @ lvgl/src/lv_font/lv_font_fmt_txt.c:301:17
	strb.w	r0, [sp, #11]
	.loc	2 302 31 is_stmt 1              @ lvgl/src/lv_font/lv_font_fmt_txt.c:302:31
	ldr	r0, [sp, #12]
	.loc	2 302 37 is_stmt 0              @ lvgl/src/lv_font/lv_font_fmt_txt.c:302:37
	ldr	r0, [r0, #8]
	.loc	2 302 57                        @ lvgl/src/lv_font/lv_font_fmt_txt.c:302:57
	ldr	r1, [sp, #60]
	.loc	2 302 31                        @ lvgl/src/lv_font/lv_font_fmt_txt.c:302:31
	ldrb	r0, [r0, r1]
	.loc	2 302 17                        @ lvgl/src/lv_font/lv_font_fmt_txt.c:302:17
	strb.w	r0, [sp, #10]
.Ltmp154:
	.loc	2 306 12 is_stmt 1              @ lvgl/src/lv_font/lv_font_fmt_txt.c:306:12
	ldrb.w	r0, [sp, #11]
	.loc	2 306 27 is_stmt 0              @ lvgl/src/lv_font/lv_font_fmt_txt.c:306:27
	cmp	r0, #1
	blt	.LBB4_15
	b	.LBB4_13
.LBB4_13:
	.loc	2 306 30                        @ lvgl/src/lv_font/lv_font_fmt_txt.c:306:30
	ldrb.w	r0, [sp, #10]
.Ltmp155:
	.loc	2 306 12                        @ lvgl/src/lv_font/lv_font_fmt_txt.c:306:12
	cmp	r0, #1
	blt	.LBB4_15
	b	.LBB4_14
.LBB4_14:
.Ltmp156:
	.loc	2 307 21 is_stmt 1              @ lvgl/src/lv_font/lv_font_fmt_txt.c:307:21
	ldr	r2, [sp, #12]
	.loc	2 307 27 is_stmt 0              @ lvgl/src/lv_font/lv_font_fmt_txt.c:307:27
	ldr	r1, [r2]
	.loc	2 307 46                        @ lvgl/src/lv_font/lv_font_fmt_txt.c:307:46
	ldrb.w	r0, [sp, #11]
	.loc	2 307 57                        @ lvgl/src/lv_font/lv_font_fmt_txt.c:307:57
	subs	r0, #1
	.loc	2 307 70                        @ lvgl/src/lv_font/lv_font_fmt_txt.c:307:70
	ldrb	r2, [r2, #13]
	.loc	2 307 89                        @ lvgl/src/lv_font/lv_font_fmt_txt.c:307:89
	ldrb.w	r3, [sp, #10]
	.loc	2 307 86                        @ lvgl/src/lv_font/lv_font_fmt_txt.c:307:86
	smlabb	r0, r0, r2, r3
	.loc	2 307 21                        @ lvgl/src/lv_font/lv_font_fmt_txt.c:307:21
	add	r0, r1
	ldrb	r0, [r0, #-1]
	.loc	2 307 19                        @ lvgl/src/lv_font/lv_font_fmt_txt.c:307:19
	strb.w	r0, [sp, #55]
	.loc	2 308 9 is_stmt 1               @ lvgl/src/lv_font/lv_font_fmt_txt.c:308:9
	b	.LBB4_15
.Ltmp157:
.LBB4_15:
	.loc	2 0 9 is_stmt 0                 @ lvgl/src/lv_font/lv_font_fmt_txt.c:0:9
	b	.LBB4_16
.LBB4_16:
	.loc	2 311 12 is_stmt 1              @ lvgl/src/lv_font/lv_font_fmt_txt.c:311:12
	ldrsb.w	r0, [sp, #55]
	.loc	2 311 5 is_stmt 0               @ lvgl/src/lv_font/lv_font_fmt_txt.c:311:5
	add	sp, #72
	pop	{r7, pc}
.Ltmp158:
.Lfunc_end4:
	.size	get_kern_value, .Lfunc_end4-get_kern_value
	.cfi_endproc
	.cantunwind
	.fnend
                                        @ -- End function
	.section	.text._lv_font_clean_up_fmt_txt,"ax",%progbits
	.hidden	_lv_font_clean_up_fmt_txt       @ -- Begin function _lv_font_clean_up_fmt_txt
	.globl	_lv_font_clean_up_fmt_txt
	.p2align	3
	.type	_lv_font_clean_up_fmt_txt,%function
	.code	16                              @ @_lv_font_clean_up_fmt_txt
	.thumb_func
_lv_font_clean_up_fmt_txt:
.Lfunc_begin5:
	.loc	2 190 0 is_stmt 1               @ lvgl/src/lv_font/lv_font_fmt_txt.c:190:0
	.fnstart
	.cfi_startproc
@ %bb.0:
	.save	{r7, lr}
	push	{r7, lr}
	.cfi_def_cfa_offset 8
	.cfi_offset lr, -4
	.cfi_offset r7, -8
	.pad	#8
	sub	sp, #8
	.cfi_def_cfa_offset 16
.Ltmp159:
	.loc	2 191 8 prologue_end            @ lvgl/src/lv_font/lv_font_fmt_txt.c:191:8
	movw	r0, :lower16:_lv_font_decompr_buf
	movt	r0, :upper16:_lv_font_decompr_buf
	ldr	r0, [r0]
.Ltmp160:
	.loc	2 191 8 is_stmt 0               @ lvgl/src/lv_font/lv_font_fmt_txt.c:191:8
	cbz	r0, .LBB5_2
	b	.LBB5_1
.LBB5_1:
.Ltmp161:
	.loc	2 192 21 is_stmt 1              @ lvgl/src/lv_font/lv_font_fmt_txt.c:192:21
	movw	r0, :lower16:_lv_font_decompr_buf
	movt	r0, :upper16:_lv_font_decompr_buf
	str	r0, [sp, #4]                    @ 4-byte Spill
	ldr	r0, [r0]
	.loc	2 192 9 is_stmt 0               @ lvgl/src/lv_font/lv_font_fmt_txt.c:192:9
	bl	lv_mem_free
	ldr	r1, [sp, #4]                    @ 4-byte Reload
	movs	r0, #0
	.loc	2 193 42 is_stmt 1              @ lvgl/src/lv_font/lv_font_fmt_txt.c:193:42
	str	r0, [r1]
	.loc	2 194 5                         @ lvgl/src/lv_font/lv_font_fmt_txt.c:194:5
	b	.LBB5_2
.Ltmp162:
.LBB5_2:
	.loc	2 195 1                         @ lvgl/src/lv_font/lv_font_fmt_txt.c:195:1
	add	sp, #8
	pop	{r7, pc}
.Ltmp163:
.Lfunc_end5:
	.size	_lv_font_clean_up_fmt_txt, .Lfunc_end5-_lv_font_clean_up_fmt_txt
	.cfi_endproc
	.cantunwind
	.fnend
                                        @ -- End function
	.section	.text.unicode_list_compare,"ax",%progbits
	.p2align	3                               @ -- Begin function unicode_list_compare
	.type	unicode_list_compare,%function
	.code	16                              @ @unicode_list_compare
	.thumb_func
unicode_list_compare:
.Lfunc_begin6:
	.loc	2 580 0                         @ lvgl/src/lv_font/lv_font_fmt_txt.c:580:0
	.fnstart
	.cfi_startproc
@ %bb.0:
	.pad	#8
	sub	sp, #8
	.cfi_def_cfa_offset 8
	str	r0, [sp, #4]
	str	r1, [sp]
.Ltmp164:
	.loc	2 581 36 prologue_end           @ lvgl/src/lv_font/lv_font_fmt_txt.c:581:36
	ldr	r0, [sp, #4]
	.loc	2 581 23 is_stmt 0              @ lvgl/src/lv_font/lv_font_fmt_txt.c:581:23
	ldrh	r0, [r0]
	.loc	2 581 68                        @ lvgl/src/lv_font/lv_font_fmt_txt.c:581:68
	ldr	r1, [sp]
	.loc	2 581 55                        @ lvgl/src/lv_font/lv_font_fmt_txt.c:581:55
	ldrh	r1, [r1]
	.loc	2 581 42                        @ lvgl/src/lv_font/lv_font_fmt_txt.c:581:42
	subs	r0, r0, r1
	.loc	2 581 5                         @ lvgl/src/lv_font/lv_font_fmt_txt.c:581:5
	add	sp, #8
	bx	lr
.Ltmp165:
.Lfunc_end6:
	.size	unicode_list_compare, .Lfunc_end6-unicode_list_compare
	.cfi_endproc
	.cantunwind
	.fnend
                                        @ -- End function
	.section	.text.kern_pair_8_compare,"ax",%progbits
	.p2align	3                               @ -- Begin function kern_pair_8_compare
	.type	kern_pair_8_compare,%function
	.code	16                              @ @kern_pair_8_compare
	.thumb_func
kern_pair_8_compare:
.Lfunc_begin7:
	.loc	2 315 0 is_stmt 1               @ lvgl/src/lv_font/lv_font_fmt_txt.c:315:0
	.fnstart
	.cfi_startproc
@ %bb.0:
	.pad	#20
	sub	sp, #20
	.cfi_def_cfa_offset 20
	str	r0, [sp, #12]
	str	r1, [sp, #8]
.Ltmp166:
	.loc	2 316 30 prologue_end           @ lvgl/src/lv_font/lv_font_fmt_txt.c:316:30
	ldr	r0, [sp, #12]
	.loc	2 316 21 is_stmt 0              @ lvgl/src/lv_font/lv_font_fmt_txt.c:316:21
	str	r0, [sp, #4]
	.loc	2 317 34 is_stmt 1              @ lvgl/src/lv_font/lv_font_fmt_txt.c:317:34
	ldr	r0, [sp, #8]
	.loc	2 317 21 is_stmt 0              @ lvgl/src/lv_font/lv_font_fmt_txt.c:317:21
	str	r0, [sp]
.Ltmp167:
	.loc	2 320 8 is_stmt 1               @ lvgl/src/lv_font/lv_font_fmt_txt.c:320:8
	ldr	r0, [sp, #4]
	ldrb	r0, [r0]
	.loc	2 320 21 is_stmt 0              @ lvgl/src/lv_font/lv_font_fmt_txt.c:320:21
	ldr	r1, [sp]
	ldrb	r1, [r1]
.Ltmp168:
	.loc	2 320 8                         @ lvgl/src/lv_font/lv_font_fmt_txt.c:320:8
	cmp	r0, r1
	beq	.LBB7_2
	b	.LBB7_1
.LBB7_1:
.Ltmp169:
	.loc	2 320 52                        @ lvgl/src/lv_font/lv_font_fmt_txt.c:320:52
	ldr	r0, [sp, #4]
	ldrb	r0, [r0]
	.loc	2 320 64                        @ lvgl/src/lv_font/lv_font_fmt_txt.c:320:64
	ldr	r1, [sp]
	ldrb	r1, [r1]
	.loc	2 320 62                        @ lvgl/src/lv_font/lv_font_fmt_txt.c:320:62
	subs	r0, r0, r1
	.loc	2 320 36                        @ lvgl/src/lv_font/lv_font_fmt_txt.c:320:36
	str	r0, [sp, #16]
	b	.LBB7_3
.LBB7_2:
	.loc	2 321 27 is_stmt 1              @ lvgl/src/lv_font/lv_font_fmt_txt.c:321:27
	ldr	r0, [sp, #4]
	ldrb	r0, [r0, #1]
	.loc	2 321 39 is_stmt 0              @ lvgl/src/lv_font/lv_font_fmt_txt.c:321:39
	ldr	r1, [sp]
	ldrb	r1, [r1, #1]
	.loc	2 321 37                        @ lvgl/src/lv_font/lv_font_fmt_txt.c:321:37
	subs	r0, r0, r1
	.loc	2 321 10                        @ lvgl/src/lv_font/lv_font_fmt_txt.c:321:10
	str	r0, [sp, #16]
	b	.LBB7_3
.Ltmp170:
.LBB7_3:
	.loc	2 323 1 is_stmt 1               @ lvgl/src/lv_font/lv_font_fmt_txt.c:323:1
	ldr	r0, [sp, #16]
	add	sp, #20
	bx	lr
.Ltmp171:
.Lfunc_end7:
	.size	kern_pair_8_compare, .Lfunc_end7-kern_pair_8_compare
	.cfi_endproc
	.cantunwind
	.fnend
                                        @ -- End function
	.section	.text.kern_pair_16_compare,"ax",%progbits
	.p2align	3                               @ -- Begin function kern_pair_16_compare
	.type	kern_pair_16_compare,%function
	.code	16                              @ @kern_pair_16_compare
	.thumb_func
kern_pair_16_compare:
.Lfunc_begin8:
	.loc	2 326 0                         @ lvgl/src/lv_font/lv_font_fmt_txt.c:326:0
	.fnstart
	.cfi_startproc
@ %bb.0:
	.pad	#20
	sub	sp, #20
	.cfi_def_cfa_offset 20
	str	r0, [sp, #12]
	str	r1, [sp, #8]
.Ltmp172:
	.loc	2 327 32 prologue_end           @ lvgl/src/lv_font/lv_font_fmt_txt.c:327:32
	ldr	r0, [sp, #12]
	.loc	2 327 22 is_stmt 0              @ lvgl/src/lv_font/lv_font_fmt_txt.c:327:22
	str	r0, [sp, #4]
	.loc	2 328 36 is_stmt 1              @ lvgl/src/lv_font/lv_font_fmt_txt.c:328:36
	ldr	r0, [sp, #8]
	.loc	2 328 22 is_stmt 0              @ lvgl/src/lv_font/lv_font_fmt_txt.c:328:22
	str	r0, [sp]
.Ltmp173:
	.loc	2 331 8 is_stmt 1               @ lvgl/src/lv_font/lv_font_fmt_txt.c:331:8
	ldr	r0, [sp, #4]
	ldrh	r0, [r0]
	.loc	2 331 22 is_stmt 0              @ lvgl/src/lv_font/lv_font_fmt_txt.c:331:22
	ldr	r1, [sp]
	ldrh	r1, [r1]
.Ltmp174:
	.loc	2 331 8                         @ lvgl/src/lv_font/lv_font_fmt_txt.c:331:8
	cmp	r0, r1
	beq	.LBB8_2
	b	.LBB8_1
.LBB8_1:
.Ltmp175:
	.loc	2 331 54                        @ lvgl/src/lv_font/lv_font_fmt_txt.c:331:54
	ldr	r0, [sp, #4]
	ldrh	r0, [r0]
	.loc	2 331 67                        @ lvgl/src/lv_font/lv_font_fmt_txt.c:331:67
	ldr	r1, [sp]
	ldrh	r1, [r1]
	.loc	2 331 65                        @ lvgl/src/lv_font/lv_font_fmt_txt.c:331:65
	subs	r0, r0, r1
	.loc	2 331 38                        @ lvgl/src/lv_font/lv_font_fmt_txt.c:331:38
	str	r0, [sp, #16]
	b	.LBB8_3
.LBB8_2:
	.loc	2 332 27 is_stmt 1              @ lvgl/src/lv_font/lv_font_fmt_txt.c:332:27
	ldr	r0, [sp, #4]
	ldrh	r0, [r0, #2]
	.loc	2 332 40 is_stmt 0              @ lvgl/src/lv_font/lv_font_fmt_txt.c:332:40
	ldr	r1, [sp]
	ldrh	r1, [r1, #2]
	.loc	2 332 38                        @ lvgl/src/lv_font/lv_font_fmt_txt.c:332:38
	subs	r0, r0, r1
	.loc	2 332 10                        @ lvgl/src/lv_font/lv_font_fmt_txt.c:332:10
	str	r0, [sp, #16]
	b	.LBB8_3
.Ltmp176:
.LBB8_3:
	.loc	2 333 1 is_stmt 1               @ lvgl/src/lv_font/lv_font_fmt_txt.c:333:1
	ldr	r0, [sp, #16]
	add	sp, #20
	bx	lr
.Ltmp177:
.Lfunc_end8:
	.size	kern_pair_16_compare, .Lfunc_end8-kern_pair_16_compare
	.cfi_endproc
	.cantunwind
	.fnend
                                        @ -- End function
	.section	.text.rle_init,"ax",%progbits
	.p2align	3                               @ -- Begin function rle_init
	.type	rle_init,%function
	.code	16                              @ @rle_init
	.thumb_func
rle_init:
.Lfunc_begin9:
	.loc	2 499 0                         @ lvgl/src/lv_font/lv_font_fmt_txt.c:499:0
	.fnstart
	.cfi_startproc
@ %bb.0:
	.pad	#8
	sub	sp, #8
	.cfi_def_cfa_offset 8
                                        @ kill: def $r2 killed $r1
	str	r0, [sp, #4]
	strb.w	r1, [sp, #3]
.Ltmp178:
	.loc	2 500 14 prologue_end           @ lvgl/src/lv_font/lv_font_fmt_txt.c:500:14
	ldr	r0, [sp, #4]
	.loc	2 500 12 is_stmt 0              @ lvgl/src/lv_font/lv_font_fmt_txt.c:500:12
	movw	r1, :lower16:rle_in
	movt	r1, :upper16:rle_in
	str	r0, [r1]
	.loc	2 501 15 is_stmt 1              @ lvgl/src/lv_font/lv_font_fmt_txt.c:501:15
	ldrb.w	r0, [sp, #3]
	.loc	2 501 13 is_stmt 0              @ lvgl/src/lv_font/lv_font_fmt_txt.c:501:13
	movw	r1, :lower16:rle_bpp
	movt	r1, :upper16:rle_bpp
	strb	r0, [r1]
	.loc	2 502 15 is_stmt 1              @ lvgl/src/lv_font/lv_font_fmt_txt.c:502:15
	movw	r1, :lower16:rle_state
	movt	r1, :upper16:rle_state
	movs	r0, #0
	strb	r0, [r1]
	.loc	2 503 13                        @ lvgl/src/lv_font/lv_font_fmt_txt.c:503:13
	movw	r1, :lower16:rle_rdp
	movt	r1, :upper16:rle_rdp
	str	r0, [r1]
	.loc	2 504 16                        @ lvgl/src/lv_font/lv_font_fmt_txt.c:504:16
	movw	r1, :lower16:rle_prev_v
	movt	r1, :upper16:rle_prev_v
	strb	r0, [r1]
	.loc	2 505 13                        @ lvgl/src/lv_font/lv_font_fmt_txt.c:505:13
	movw	r1, :lower16:rle_cnt
	movt	r1, :upper16:rle_cnt
	strb	r0, [r1]
	.loc	2 506 1                         @ lvgl/src/lv_font/lv_font_fmt_txt.c:506:1
	add	sp, #8
	bx	lr
.Ltmp179:
.Lfunc_end9:
	.size	rle_init, .Lfunc_end9-rle_init
	.cfi_endproc
	.cantunwind
	.fnend
                                        @ -- End function
	.section	.text.decompress_line,"ax",%progbits
	.p2align	3                               @ -- Begin function decompress_line
	.type	decompress_line,%function
	.code	16                              @ @decompress_line
	.thumb_func
decompress_line:
.Lfunc_begin10:
	.loc	2 400 0                         @ lvgl/src/lv_font/lv_font_fmt_txt.c:400:0
	.fnstart
	.cfi_startproc
@ %bb.0:
	.save	{r7, lr}
	push	{r7, lr}
	.cfi_def_cfa_offset 8
	.cfi_offset lr, -4
	.cfi_offset r7, -8
	.pad	#8
	sub	sp, #8
	.cfi_def_cfa_offset 16
                                        @ kill: def $r2 killed $r1
	str	r0, [sp, #4]
	strh.w	r1, [sp, #2]
	movs	r0, #0
.Ltmp180:
	.loc	2 402 11 prologue_end           @ lvgl/src/lv_font/lv_font_fmt_txt.c:402:11
	strh.w	r0, [sp]
	.loc	2 402 9 is_stmt 0               @ lvgl/src/lv_font/lv_font_fmt_txt.c:402:9
	b	.LBB10_1
.LBB10_1:                               @ =>This Inner Loop Header: Depth=1
.Ltmp181:
	.loc	2 402 16                        @ lvgl/src/lv_font/lv_font_fmt_txt.c:402:16
	ldrsh.w	r0, [sp]
	.loc	2 402 20                        @ lvgl/src/lv_font/lv_font_fmt_txt.c:402:20
	ldrsh.w	r1, [sp, #2]
.Ltmp182:
	.loc	2 402 5                         @ lvgl/src/lv_font/lv_font_fmt_txt.c:402:5
	cmp	r0, r1
	bge	.LBB10_4
	b	.LBB10_2
.LBB10_2:                               @   in Loop: Header=BB10_1 Depth=1
.Ltmp183:
	.loc	2 403 18 is_stmt 1              @ lvgl/src/lv_font/lv_font_fmt_txt.c:403:18
	bl	rle_next
	.loc	2 403 9 is_stmt 0               @ lvgl/src/lv_font/lv_font_fmt_txt.c:403:9
	ldr	r1, [sp, #4]
	.loc	2 403 13                        @ lvgl/src/lv_font/lv_font_fmt_txt.c:403:13
	ldrsh.w	r2, [sp]
	.loc	2 403 16                        @ lvgl/src/lv_font/lv_font_fmt_txt.c:403:16
	strb	r0, [r1, r2]
	.loc	2 404 5 is_stmt 1               @ lvgl/src/lv_font/lv_font_fmt_txt.c:404:5
	b	.LBB10_3
.Ltmp184:
.LBB10_3:                               @   in Loop: Header=BB10_1 Depth=1
	.loc	2 402 24                        @ lvgl/src/lv_font/lv_font_fmt_txt.c:402:24
	ldrh.w	r0, [sp]
	adds	r0, #1
	strh.w	r0, [sp]
	.loc	2 402 5 is_stmt 0               @ lvgl/src/lv_font/lv_font_fmt_txt.c:402:5
	b	.LBB10_1
.Ltmp185:
.LBB10_4:
	.loc	2 405 1 is_stmt 1               @ lvgl/src/lv_font/lv_font_fmt_txt.c:405:1
	add	sp, #8
	pop	{r7, pc}
.Ltmp186:
.Lfunc_end10:
	.size	decompress_line, .Lfunc_end10-decompress_line
	.cfi_endproc
	.cantunwind
	.fnend
                                        @ -- End function
	.section	.text.bits_write,"ax",%progbits
	.p2align	3                               @ -- Begin function bits_write
	.type	bits_write,%function
	.code	16                              @ @bits_write
	.thumb_func
bits_write:
.Lfunc_begin11:
	.loc	2 458 0                         @ lvgl/src/lv_font/lv_font_fmt_txt.c:458:0
	.fnstart
	.cfi_startproc
@ %bb.0:
	.pad	#20
	sub	sp, #20
	.cfi_def_cfa_offset 20
                                        @ kill: def $r12 killed $r3
                                        @ kill: def $r12 killed $r2
	str	r0, [sp, #16]
	str	r1, [sp, #12]
	strb.w	r2, [sp, #11]
	strb.w	r3, [sp, #10]
.Ltmp187:
	.loc	2 459 8 prologue_end            @ lvgl/src/lv_font/lv_font_fmt_txt.c:459:8
	ldrb.w	r0, [sp, #10]
.Ltmp188:
	.loc	2 459 8 is_stmt 0               @ lvgl/src/lv_font/lv_font_fmt_txt.c:459:8
	cmp	r0, #3
	bne	.LBB11_13
	b	.LBB11_1
.LBB11_1:
	.loc	2 0 8                           @ lvgl/src/lv_font/lv_font_fmt_txt.c:0:8
	movs	r0, #4
.Ltmp189:
	.loc	2 460 13 is_stmt 1              @ lvgl/src/lv_font/lv_font_fmt_txt.c:460:13
	strb.w	r0, [sp, #10]
	.loc	2 461 16                        @ lvgl/src/lv_font/lv_font_fmt_txt.c:461:16
	ldrb.w	r0, [sp, #11]
	.loc	2 461 9 is_stmt 0               @ lvgl/src/lv_font/lv_font_fmt_txt.c:461:9
	mov	r1, r0
	str	r1, [sp]                        @ 4-byte Spill
	cmp	r0, #7
	bhi	.LBB11_12
@ %bb.2:
	.loc	2 0 9                           @ lvgl/src/lv_font/lv_font_fmt_txt.c:0:9
	ldr	r1, [sp]                        @ 4-byte Reload
.LCPI11_0:
	tbb	[pc, r1]
@ %bb.3:
.LJTI11_0:
	.byte	(.LBB11_4-(.LCPI11_0+4))/2
	.byte	(.LBB11_5-(.LCPI11_0+4))/2
	.byte	(.LBB11_6-(.LCPI11_0+4))/2
	.byte	(.LBB11_7-(.LCPI11_0+4))/2
	.byte	(.LBB11_8-(.LCPI11_0+4))/2
	.byte	(.LBB11_9-(.LCPI11_0+4))/2
	.byte	(.LBB11_10-(.LCPI11_0+4))/2
	.byte	(.LBB11_11-(.LCPI11_0+4))/2
	.p2align	1
.LBB11_4:
	movs	r0, #0
.Ltmp190:
	.loc	2 463 21 is_stmt 1              @ lvgl/src/lv_font/lv_font_fmt_txt.c:463:21
	strb.w	r0, [sp, #11]
	.loc	2 464 17                        @ lvgl/src/lv_font/lv_font_fmt_txt.c:464:17
	b	.LBB11_12
.LBB11_5:
	.loc	2 0 17 is_stmt 0                @ lvgl/src/lv_font/lv_font_fmt_txt.c:0:17
	movs	r0, #2
	.loc	2 466 21 is_stmt 1              @ lvgl/src/lv_font/lv_font_fmt_txt.c:466:21
	strb.w	r0, [sp, #11]
	.loc	2 467 17                        @ lvgl/src/lv_font/lv_font_fmt_txt.c:467:17
	b	.LBB11_12
.LBB11_6:
	.loc	2 0 17 is_stmt 0                @ lvgl/src/lv_font/lv_font_fmt_txt.c:0:17
	movs	r0, #4
	.loc	2 469 21 is_stmt 1              @ lvgl/src/lv_font/lv_font_fmt_txt.c:469:21
	strb.w	r0, [sp, #11]
	.loc	2 470 17                        @ lvgl/src/lv_font/lv_font_fmt_txt.c:470:17
	b	.LBB11_12
.LBB11_7:
	.loc	2 0 17 is_stmt 0                @ lvgl/src/lv_font/lv_font_fmt_txt.c:0:17
	movs	r0, #6
	.loc	2 472 21 is_stmt 1              @ lvgl/src/lv_font/lv_font_fmt_txt.c:472:21
	strb.w	r0, [sp, #11]
	.loc	2 473 17                        @ lvgl/src/lv_font/lv_font_fmt_txt.c:473:17
	b	.LBB11_12
.LBB11_8:
	.loc	2 0 17 is_stmt 0                @ lvgl/src/lv_font/lv_font_fmt_txt.c:0:17
	movs	r0, #9
	.loc	2 475 21 is_stmt 1              @ lvgl/src/lv_font/lv_font_fmt_txt.c:475:21
	strb.w	r0, [sp, #11]
	.loc	2 476 17                        @ lvgl/src/lv_font/lv_font_fmt_txt.c:476:17
	b	.LBB11_12
.LBB11_9:
	.loc	2 0 17 is_stmt 0                @ lvgl/src/lv_font/lv_font_fmt_txt.c:0:17
	movs	r0, #11
	.loc	2 478 21 is_stmt 1              @ lvgl/src/lv_font/lv_font_fmt_txt.c:478:21
	strb.w	r0, [sp, #11]
	.loc	2 479 17                        @ lvgl/src/lv_font/lv_font_fmt_txt.c:479:17
	b	.LBB11_12
.LBB11_10:
	.loc	2 0 17 is_stmt 0                @ lvgl/src/lv_font/lv_font_fmt_txt.c:0:17
	movs	r0, #13
	.loc	2 481 21 is_stmt 1              @ lvgl/src/lv_font/lv_font_fmt_txt.c:481:21
	strb.w	r0, [sp, #11]
	.loc	2 482 17                        @ lvgl/src/lv_font/lv_font_fmt_txt.c:482:17
	b	.LBB11_12
.LBB11_11:
	.loc	2 0 17 is_stmt 0                @ lvgl/src/lv_font/lv_font_fmt_txt.c:0:17
	movs	r0, #15
	.loc	2 484 21 is_stmt 1              @ lvgl/src/lv_font/lv_font_fmt_txt.c:484:21
	strb.w	r0, [sp, #11]
	.loc	2 485 17                        @ lvgl/src/lv_font/lv_font_fmt_txt.c:485:17
	b	.LBB11_12
.Ltmp191:
.LBB11_12:
	.loc	2 487 5                         @ lvgl/src/lv_font/lv_font_fmt_txt.c:487:5
	b	.LBB11_13
.Ltmp192:
.LBB11_13:
	.loc	2 489 25                        @ lvgl/src/lv_font/lv_font_fmt_txt.c:489:25
	ldr	r0, [sp, #12]
	.loc	2 489 33 is_stmt 0              @ lvgl/src/lv_font/lv_font_fmt_txt.c:489:33
	lsrs	r0, r0, #3
	.loc	2 489 14                        @ lvgl/src/lv_font/lv_font_fmt_txt.c:489:14
	strh.w	r0, [sp, #8]
	.loc	2 490 15 is_stmt 1              @ lvgl/src/lv_font/lv_font_fmt_txt.c:490:15
	ldr	r0, [sp, #12]
	.loc	2 490 23 is_stmt 0              @ lvgl/src/lv_font/lv_font_fmt_txt.c:490:23
	and	r0, r0, #7
	.loc	2 490 13                        @ lvgl/src/lv_font/lv_font_fmt_txt.c:490:13
	str	r0, [sp, #12]
	.loc	2 491 19 is_stmt 1              @ lvgl/src/lv_font/lv_font_fmt_txt.c:491:19
	ldr	r0, [sp, #12]
	.loc	2 491 29 is_stmt 0              @ lvgl/src/lv_font/lv_font_fmt_txt.c:491:29
	ldrb.w	r1, [sp, #10]
	.loc	2 491 27                        @ lvgl/src/lv_font/lv_font_fmt_txt.c:491:27
	add	r0, r1
	rsb.w	r0, r0, #8
	.loc	2 491 13                        @ lvgl/src/lv_font/lv_font_fmt_txt.c:491:13
	str	r0, [sp, #12]
	.loc	2 493 51 is_stmt 1              @ lvgl/src/lv_font/lv_font_fmt_txt.c:493:51
	ldrb.w	r1, [sp, #10]
	movs	r0, #1
	.loc	2 493 48 is_stmt 0              @ lvgl/src/lv_font/lv_font_fmt_txt.c:493:48
	lsls	r0, r1
	.loc	2 493 56                        @ lvgl/src/lv_font/lv_font_fmt_txt.c:493:56
	subs	r0, #1
	.loc	2 493 13                        @ lvgl/src/lv_font/lv_font_fmt_txt.c:493:13
	strb.w	r0, [sp, #7]
	.loc	2 494 25 is_stmt 1              @ lvgl/src/lv_font/lv_font_fmt_txt.c:494:25
	ldrb.w	r0, [sp, #7]
	.loc	2 494 24 is_stmt 0              @ lvgl/src/lv_font/lv_font_fmt_txt.c:494:24
	mvns	r0, r0
	.loc	2 494 38                        @ lvgl/src/lv_font/lv_font_fmt_txt.c:494:38
	ldr	r1, [sp, #12]
	.loc	2 494 35                        @ lvgl/src/lv_font/lv_font_fmt_txt.c:494:35
	lsl.w	r3, r0, r1
	.loc	2 494 5                         @ lvgl/src/lv_font/lv_font_fmt_txt.c:494:5
	ldr	r1, [sp, #16]
	.loc	2 494 9                         @ lvgl/src/lv_font/lv_font_fmt_txt.c:494:9
	ldrh.w	r2, [sp, #8]
	.loc	2 494 19                        @ lvgl/src/lv_font/lv_font_fmt_txt.c:494:19
	ldrb	r0, [r1, r2]
	ands	r0, r3
	strb	r0, [r1, r2]
	.loc	2 495 23 is_stmt 1              @ lvgl/src/lv_font/lv_font_fmt_txt.c:495:23
	ldrb.w	r0, [sp, #11]
	.loc	2 495 30 is_stmt 0              @ lvgl/src/lv_font/lv_font_fmt_txt.c:495:30
	ldr	r1, [sp, #12]
	.loc	2 495 27                        @ lvgl/src/lv_font/lv_font_fmt_txt.c:495:27
	lsl.w	r3, r0, r1
	.loc	2 495 5                         @ lvgl/src/lv_font/lv_font_fmt_txt.c:495:5
	ldr	r1, [sp, #16]
	.loc	2 495 9                         @ lvgl/src/lv_font/lv_font_fmt_txt.c:495:9
	ldrh.w	r2, [sp, #8]
	.loc	2 495 19                        @ lvgl/src/lv_font/lv_font_fmt_txt.c:495:19
	ldrb	r0, [r1, r2]
	orrs	r0, r3
	strb	r0, [r1, r2]
	.loc	2 496 1 is_stmt 1               @ lvgl/src/lv_font/lv_font_fmt_txt.c:496:1
	add	sp, #20
	bx	lr
.Ltmp193:
.Lfunc_end11:
	.size	bits_write, .Lfunc_end11-bits_write
	.cfi_endproc
	.cantunwind
	.fnend
                                        @ -- End function
	.section	.text.rle_next,"ax",%progbits
	.p2align	3                               @ -- Begin function rle_next
	.type	rle_next,%function
	.code	16                              @ @rle_next
	.thumb_func
rle_next:
.Lfunc_begin12:
	.loc	2 509 0                         @ lvgl/src/lv_font/lv_font_fmt_txt.c:509:0
	.fnstart
	.cfi_startproc
@ %bb.0:
	.save	{r7, lr}
	push	{r7, lr}
	.cfi_def_cfa_offset 8
	.cfi_offset lr, -4
	.cfi_offset r7, -8
	.pad	#40
	sub	sp, #40
	.cfi_def_cfa_offset 48
	movs	r0, #0
.Ltmp194:
	.loc	2 510 13 prologue_end           @ lvgl/src/lv_font/lv_font_fmt_txt.c:510:13
	strb.w	r0, [sp, #39]
	.loc	2 511 13                        @ lvgl/src/lv_font/lv_font_fmt_txt.c:511:13
	strb.w	r0, [sp, #38]
.Ltmp195:
	.loc	2 513 8                         @ lvgl/src/lv_font/lv_font_fmt_txt.c:513:8
	movw	r0, :lower16:rle_state
	movt	r0, :upper16:rle_state
	ldrb	r0, [r0]
.Ltmp196:
	.loc	2 513 8 is_stmt 0               @ lvgl/src/lv_font/lv_font_fmt_txt.c:513:8
	cmp	r0, #0
	bne	.LBB12_5
	b	.LBB12_1
.LBB12_1:
.Ltmp197:
	.loc	2 514 24 is_stmt 1              @ lvgl/src/lv_font/lv_font_fmt_txt.c:514:24
	movw	r0, :lower16:rle_in
	movt	r0, :upper16:rle_in
	ldr	r0, [r0]
	.loc	2 514 32 is_stmt 0              @ lvgl/src/lv_font/lv_font_fmt_txt.c:514:32
	movw	r1, :lower16:rle_rdp
	movt	r1, :upper16:rle_rdp
	str	r1, [sp, #32]                   @ 4-byte Spill
	ldr	r1, [r1]
	.loc	2 514 41                        @ lvgl/src/lv_font/lv_font_fmt_txt.c:514:41
	movw	r2, :lower16:rle_bpp
	movt	r2, :upper16:rle_bpp
	ldrb	r2, [r2]
	.loc	2 514 15                        @ lvgl/src/lv_font/lv_font_fmt_txt.c:514:15
	bl	get_bits
	mov	r1, r0
	.loc	2 514 13                        @ lvgl/src/lv_font/lv_font_fmt_txt.c:514:13
	ldr	r0, [sp, #32]                   @ 4-byte Reload
	strb.w	r1, [sp, #38]
.Ltmp198:
	.loc	2 515 12 is_stmt 1              @ lvgl/src/lv_font/lv_font_fmt_txt.c:515:12
	ldr	r0, [r0]
	.loc	2 515 25 is_stmt 0              @ lvgl/src/lv_font/lv_font_fmt_txt.c:515:25
	cbz	r0, .LBB12_4
	b	.LBB12_2
.LBB12_2:
	.loc	2 515 28                        @ lvgl/src/lv_font/lv_font_fmt_txt.c:515:28
	movw	r0, :lower16:rle_prev_v
	movt	r0, :upper16:rle_prev_v
	ldrb	r0, [r0]
	.loc	2 515 42                        @ lvgl/src/lv_font/lv_font_fmt_txt.c:515:42
	ldrb.w	r1, [sp, #38]
.Ltmp199:
	.loc	2 515 12                        @ lvgl/src/lv_font/lv_font_fmt_txt.c:515:12
	cmp	r0, r1
	bne	.LBB12_4
	b	.LBB12_3
.LBB12_3:
.Ltmp200:
	.loc	2 516 21 is_stmt 1              @ lvgl/src/lv_font/lv_font_fmt_txt.c:516:21
	movw	r1, :lower16:rle_cnt
	movt	r1, :upper16:rle_cnt
	movs	r0, #0
	strb	r0, [r1]
	.loc	2 517 23                        @ lvgl/src/lv_font/lv_font_fmt_txt.c:517:23
	movw	r1, :lower16:rle_state
	movt	r1, :upper16:rle_state
	movs	r0, #1
	strb	r0, [r1]
	.loc	2 518 9                         @ lvgl/src/lv_font/lv_font_fmt_txt.c:518:9
	b	.LBB12_4
.Ltmp201:
.LBB12_4:
	.loc	2 520 22                        @ lvgl/src/lv_font/lv_font_fmt_txt.c:520:22
	ldrb.w	r0, [sp, #38]
	.loc	2 520 20 is_stmt 0              @ lvgl/src/lv_font/lv_font_fmt_txt.c:520:20
	movw	r1, :lower16:rle_prev_v
	movt	r1, :upper16:rle_prev_v
	strb	r0, [r1]
	.loc	2 521 20 is_stmt 1              @ lvgl/src/lv_font/lv_font_fmt_txt.c:521:20
	movw	r0, :lower16:rle_bpp
	movt	r0, :upper16:rle_bpp
	ldrb	r2, [r0]
	.loc	2 521 17 is_stmt 0              @ lvgl/src/lv_font/lv_font_fmt_txt.c:521:17
	movw	r1, :lower16:rle_rdp
	movt	r1, :upper16:rle_rdp
	ldr	r0, [r1]
	add	r0, r2
	str	r0, [r1]
	.loc	2 522 5 is_stmt 1               @ lvgl/src/lv_font/lv_font_fmt_txt.c:522:5
	b	.LBB12_21
.Ltmp202:
.LBB12_5:
	.loc	2 523 13                        @ lvgl/src/lv_font/lv_font_fmt_txt.c:523:13
	movw	r0, :lower16:rle_state
	movt	r0, :upper16:rle_state
	ldrb	r0, [r0]
.Ltmp203:
	.loc	2 523 13 is_stmt 0              @ lvgl/src/lv_font/lv_font_fmt_txt.c:523:13
	cmp	r0, #1
	bne.w	.LBB12_15
	b	.LBB12_6
.LBB12_6:
.Ltmp204:
	.loc	2 524 22 is_stmt 1              @ lvgl/src/lv_font/lv_font_fmt_txt.c:524:22
	movw	r0, :lower16:rle_in
	movt	r0, :upper16:rle_in
	ldr	r0, [r0]
	.loc	2 524 30 is_stmt 0              @ lvgl/src/lv_font/lv_font_fmt_txt.c:524:30
	movw	r1, :lower16:rle_rdp
	movt	r1, :upper16:rle_rdp
	str	r1, [sp, #28]                   @ 4-byte Spill
	ldr	r1, [r1]
	movs	r2, #1
	.loc	2 524 13                        @ lvgl/src/lv_font/lv_font_fmt_txt.c:524:13
	bl	get_bits
	ldr	r1, [sp, #28]                   @ 4-byte Reload
	.loc	2 524 11                        @ lvgl/src/lv_font/lv_font_fmt_txt.c:524:11
	strb.w	r0, [sp, #39]
	.loc	2 525 16 is_stmt 1              @ lvgl/src/lv_font/lv_font_fmt_txt.c:525:16
	movw	r2, :lower16:rle_cnt
	movt	r2, :upper16:rle_cnt
	ldrb	r0, [r2]
	adds	r0, #1
	strb	r0, [r2]
	.loc	2 526 17                        @ lvgl/src/lv_font/lv_font_fmt_txt.c:526:17
	ldr	r0, [r1]
	adds	r0, #1
	str	r0, [r1]
.Ltmp205:
	.loc	2 527 12                        @ lvgl/src/lv_font/lv_font_fmt_txt.c:527:12
	ldrb.w	r0, [sp, #39]
.Ltmp206:
	.loc	2 527 12 is_stmt 0              @ lvgl/src/lv_font/lv_font_fmt_txt.c:527:12
	cmp	r0, #1
	bne	.LBB12_13
	b	.LBB12_7
.LBB12_7:
.Ltmp207:
	.loc	2 528 19 is_stmt 1              @ lvgl/src/lv_font/lv_font_fmt_txt.c:528:19
	movw	r0, :lower16:rle_prev_v
	movt	r0, :upper16:rle_prev_v
	ldrb	r0, [r0]
	.loc	2 528 17 is_stmt 0              @ lvgl/src/lv_font/lv_font_fmt_txt.c:528:17
	strb.w	r0, [sp, #38]
.Ltmp208:
	.loc	2 529 16 is_stmt 1              @ lvgl/src/lv_font/lv_font_fmt_txt.c:529:16
	movw	r0, :lower16:rle_cnt
	movt	r0, :upper16:rle_cnt
	ldrb	r0, [r0]
.Ltmp209:
	.loc	2 529 16 is_stmt 0              @ lvgl/src/lv_font/lv_font_fmt_txt.c:529:16
	cmp	r0, #11
	bne	.LBB12_12
	b	.LBB12_8
.LBB12_8:
.Ltmp210:
	.loc	2 530 36 is_stmt 1              @ lvgl/src/lv_font/lv_font_fmt_txt.c:530:36
	movw	r0, :lower16:rle_in
	movt	r0, :upper16:rle_in
	ldr	r0, [r0]
	.loc	2 530 44 is_stmt 0              @ lvgl/src/lv_font/lv_font_fmt_txt.c:530:44
	movw	r1, :lower16:rle_rdp
	movt	r1, :upper16:rle_rdp
	str	r1, [sp, #24]                   @ 4-byte Spill
	ldr	r1, [r1]
	movs	r2, #6
	.loc	2 530 27                        @ lvgl/src/lv_font/lv_font_fmt_txt.c:530:27
	bl	get_bits
	ldr	r2, [sp, #24]                   @ 4-byte Reload
	mov	r1, r0
	.loc	2 530 25                        @ lvgl/src/lv_font/lv_font_fmt_txt.c:530:25
	movw	r0, :lower16:rle_cnt
	movt	r0, :upper16:rle_cnt
	strb	r1, [r0]
	.loc	2 531 25 is_stmt 1              @ lvgl/src/lv_font/lv_font_fmt_txt.c:531:25
	ldr	r1, [r2]
	adds	r1, #6
	str	r1, [r2]
.Ltmp211:
	.loc	2 532 20                        @ lvgl/src/lv_font/lv_font_fmt_txt.c:532:20
	ldrb	r0, [r0]
.Ltmp212:
	.loc	2 532 20 is_stmt 0              @ lvgl/src/lv_font/lv_font_fmt_txt.c:532:20
	cbz	r0, .LBB12_10
	b	.LBB12_9
.LBB12_9:
.Ltmp213:
	.loc	2 533 31 is_stmt 1              @ lvgl/src/lv_font/lv_font_fmt_txt.c:533:31
	movw	r1, :lower16:rle_state
	movt	r1, :upper16:rle_state
	movs	r0, #2
	strb	r0, [r1]
	.loc	2 534 17                        @ lvgl/src/lv_font/lv_font_fmt_txt.c:534:17
	b	.LBB12_11
.Ltmp214:
.LBB12_10:
	.loc	2 536 36                        @ lvgl/src/lv_font/lv_font_fmt_txt.c:536:36
	movw	r0, :lower16:rle_in
	movt	r0, :upper16:rle_in
	ldr	r0, [r0]
	.loc	2 536 44 is_stmt 0              @ lvgl/src/lv_font/lv_font_fmt_txt.c:536:44
	movw	r1, :lower16:rle_rdp
	movt	r1, :upper16:rle_rdp
	str	r1, [sp, #16]                   @ 4-byte Spill
	ldr	r1, [r1]
	.loc	2 536 53                        @ lvgl/src/lv_font/lv_font_fmt_txt.c:536:53
	movw	r2, :lower16:rle_bpp
	movt	r2, :upper16:rle_bpp
	str	r2, [sp, #20]                   @ 4-byte Spill
	ldrb	r2, [r2]
	.loc	2 536 27                        @ lvgl/src/lv_font/lv_font_fmt_txt.c:536:27
	bl	get_bits
	ldr	r1, [sp, #16]                   @ 4-byte Reload
	mov	r2, r0
	.loc	2 536 25                        @ lvgl/src/lv_font/lv_font_fmt_txt.c:536:25
	ldr	r0, [sp, #20]                   @ 4-byte Reload
	strb.w	r2, [sp, #38]
	.loc	2 537 34 is_stmt 1              @ lvgl/src/lv_font/lv_font_fmt_txt.c:537:34
	ldrb.w	r2, [sp, #38]
	.loc	2 537 32 is_stmt 0              @ lvgl/src/lv_font/lv_font_fmt_txt.c:537:32
	movw	r3, :lower16:rle_prev_v
	movt	r3, :upper16:rle_prev_v
	strb	r2, [r3]
	.loc	2 538 32 is_stmt 1              @ lvgl/src/lv_font/lv_font_fmt_txt.c:538:32
	ldrb	r2, [r0]
	.loc	2 538 29 is_stmt 0              @ lvgl/src/lv_font/lv_font_fmt_txt.c:538:29
	ldr	r0, [r1]
	add	r0, r2
	str	r0, [r1]
	.loc	2 539 31 is_stmt 1              @ lvgl/src/lv_font/lv_font_fmt_txt.c:539:31
	movw	r1, :lower16:rle_state
	movt	r1, :upper16:rle_state
	movs	r0, #0
	strb	r0, [r1]
	b	.LBB12_11
.Ltmp215:
.LBB12_11:
	.loc	2 541 13                        @ lvgl/src/lv_font/lv_font_fmt_txt.c:541:13
	b	.LBB12_12
.Ltmp216:
.LBB12_12:
	.loc	2 542 9                         @ lvgl/src/lv_font/lv_font_fmt_txt.c:542:9
	b	.LBB12_14
.Ltmp217:
.LBB12_13:
	.loc	2 544 28                        @ lvgl/src/lv_font/lv_font_fmt_txt.c:544:28
	movw	r0, :lower16:rle_in
	movt	r0, :upper16:rle_in
	ldr	r0, [r0]
	.loc	2 544 36 is_stmt 0              @ lvgl/src/lv_font/lv_font_fmt_txt.c:544:36
	movw	r1, :lower16:rle_rdp
	movt	r1, :upper16:rle_rdp
	str	r1, [sp, #8]                    @ 4-byte Spill
	ldr	r1, [r1]
	.loc	2 544 45                        @ lvgl/src/lv_font/lv_font_fmt_txt.c:544:45
	movw	r2, :lower16:rle_bpp
	movt	r2, :upper16:rle_bpp
	str	r2, [sp, #12]                   @ 4-byte Spill
	ldrb	r2, [r2]
	.loc	2 544 19                        @ lvgl/src/lv_font/lv_font_fmt_txt.c:544:19
	bl	get_bits
	ldr	r1, [sp, #8]                    @ 4-byte Reload
	mov	r2, r0
	.loc	2 544 17                        @ lvgl/src/lv_font/lv_font_fmt_txt.c:544:17
	ldr	r0, [sp, #12]                   @ 4-byte Reload
	strb.w	r2, [sp, #38]
	.loc	2 545 26 is_stmt 1              @ lvgl/src/lv_font/lv_font_fmt_txt.c:545:26
	ldrb.w	r2, [sp, #38]
	.loc	2 545 24 is_stmt 0              @ lvgl/src/lv_font/lv_font_fmt_txt.c:545:24
	movw	r3, :lower16:rle_prev_v
	movt	r3, :upper16:rle_prev_v
	strb	r2, [r3]
	.loc	2 546 24 is_stmt 1              @ lvgl/src/lv_font/lv_font_fmt_txt.c:546:24
	ldrb	r2, [r0]
	.loc	2 546 21 is_stmt 0              @ lvgl/src/lv_font/lv_font_fmt_txt.c:546:21
	ldr	r0, [r1]
	add	r0, r2
	str	r0, [r1]
	.loc	2 547 23 is_stmt 1              @ lvgl/src/lv_font/lv_font_fmt_txt.c:547:23
	movw	r1, :lower16:rle_state
	movt	r1, :upper16:rle_state
	movs	r0, #0
	strb	r0, [r1]
	b	.LBB12_14
.Ltmp218:
.LBB12_14:
	.loc	2 550 5                         @ lvgl/src/lv_font/lv_font_fmt_txt.c:550:5
	b	.LBB12_20
.Ltmp219:
.LBB12_15:
	.loc	2 551 13                        @ lvgl/src/lv_font/lv_font_fmt_txt.c:551:13
	movw	r0, :lower16:rle_state
	movt	r0, :upper16:rle_state
	ldrb	r0, [r0]
.Ltmp220:
	.loc	2 551 13 is_stmt 0              @ lvgl/src/lv_font/lv_font_fmt_txt.c:551:13
	cmp	r0, #2
	bne	.LBB12_19
	b	.LBB12_16
.LBB12_16:
.Ltmp221:
	.loc	2 552 15 is_stmt 1              @ lvgl/src/lv_font/lv_font_fmt_txt.c:552:15
	movw	r0, :lower16:rle_prev_v
	movt	r0, :upper16:rle_prev_v
	ldrb	r0, [r0]
	.loc	2 552 13 is_stmt 0              @ lvgl/src/lv_font/lv_font_fmt_txt.c:552:13
	strb.w	r0, [sp, #38]
	.loc	2 553 16 is_stmt 1              @ lvgl/src/lv_font/lv_font_fmt_txt.c:553:16
	movw	r0, :lower16:rle_cnt
	movt	r0, :upper16:rle_cnt
	ldrb	r1, [r0]
	subs	r1, #1
	strb	r1, [r0]
.Ltmp222:
	.loc	2 554 12                        @ lvgl/src/lv_font/lv_font_fmt_txt.c:554:12
	ldrb	r0, [r0]
.Ltmp223:
	.loc	2 554 12 is_stmt 0              @ lvgl/src/lv_font/lv_font_fmt_txt.c:554:12
	cbnz	r0, .LBB12_18
	b	.LBB12_17
.LBB12_17:
.Ltmp224:
	.loc	2 555 28 is_stmt 1              @ lvgl/src/lv_font/lv_font_fmt_txt.c:555:28
	movw	r0, :lower16:rle_in
	movt	r0, :upper16:rle_in
	ldr	r0, [r0]
	.loc	2 555 36 is_stmt 0              @ lvgl/src/lv_font/lv_font_fmt_txt.c:555:36
	movw	r1, :lower16:rle_rdp
	movt	r1, :upper16:rle_rdp
	str	r1, [sp]                        @ 4-byte Spill
	ldr	r1, [r1]
	.loc	2 555 45                        @ lvgl/src/lv_font/lv_font_fmt_txt.c:555:45
	movw	r2, :lower16:rle_bpp
	movt	r2, :upper16:rle_bpp
	str	r2, [sp, #4]                    @ 4-byte Spill
	ldrb	r2, [r2]
	.loc	2 555 19                        @ lvgl/src/lv_font/lv_font_fmt_txt.c:555:19
	bl	get_bits
	ldr	r1, [sp]                        @ 4-byte Reload
	mov	r2, r0
	.loc	2 555 17                        @ lvgl/src/lv_font/lv_font_fmt_txt.c:555:17
	ldr	r0, [sp, #4]                    @ 4-byte Reload
	strb.w	r2, [sp, #38]
	.loc	2 556 26 is_stmt 1              @ lvgl/src/lv_font/lv_font_fmt_txt.c:556:26
	ldrb.w	r2, [sp, #38]
	.loc	2 556 24 is_stmt 0              @ lvgl/src/lv_font/lv_font_fmt_txt.c:556:24
	movw	r3, :lower16:rle_prev_v
	movt	r3, :upper16:rle_prev_v
	strb	r2, [r3]
	.loc	2 557 24 is_stmt 1              @ lvgl/src/lv_font/lv_font_fmt_txt.c:557:24
	ldrb	r2, [r0]
	.loc	2 557 21 is_stmt 0              @ lvgl/src/lv_font/lv_font_fmt_txt.c:557:21
	ldr	r0, [r1]
	add	r0, r2
	str	r0, [r1]
	.loc	2 558 23 is_stmt 1              @ lvgl/src/lv_font/lv_font_fmt_txt.c:558:23
	movw	r1, :lower16:rle_state
	movt	r1, :upper16:rle_state
	movs	r0, #0
	strb	r0, [r1]
	.loc	2 559 9                         @ lvgl/src/lv_font/lv_font_fmt_txt.c:559:9
	b	.LBB12_18
.Ltmp225:
.LBB12_18:
	.loc	2 560 5                         @ lvgl/src/lv_font/lv_font_fmt_txt.c:560:5
	b	.LBB12_19
.Ltmp226:
.LBB12_19:
	.loc	2 0 5 is_stmt 0                 @ lvgl/src/lv_font/lv_font_fmt_txt.c:0:5
	b	.LBB12_20
.LBB12_20:
	b	.LBB12_21
.LBB12_21:
	.loc	2 562 12 is_stmt 1              @ lvgl/src/lv_font/lv_font_fmt_txt.c:562:12
	ldrb.w	r0, [sp, #38]
	.loc	2 562 5 is_stmt 0               @ lvgl/src/lv_font/lv_font_fmt_txt.c:562:5
	add	sp, #40
	pop	{r7, pc}
.Ltmp227:
.Lfunc_end12:
	.size	rle_next, .Lfunc_end12-rle_next
	.cfi_endproc
	.cantunwind
	.fnend
                                        @ -- End function
	.section	.text.get_bits,"ax",%progbits
	.p2align	3                               @ -- Begin function get_bits
	.type	get_bits,%function
	.code	16                              @ @get_bits
	.thumb_func
get_bits:
.Lfunc_begin13:
	.loc	2 415 0 is_stmt 1               @ lvgl/src/lv_font/lv_font_fmt_txt.c:415:0
	.fnstart
	.cfi_startproc
@ %bb.0:
	.pad	#28
	sub	sp, #28
	.cfi_def_cfa_offset 28
                                        @ kill: def $r3 killed $r2
	str	r0, [sp, #20]
	str	r1, [sp, #16]
	strb.w	r2, [sp, #15]
.Ltmp228:
	.loc	2 417 12 prologue_end           @ lvgl/src/lv_font/lv_font_fmt_txt.c:417:12
	ldrb.w	r0, [sp, #15]
	.loc	2 417 5 is_stmt 0               @ lvgl/src/lv_font/lv_font_fmt_txt.c:417:5
	subs	r0, #1
	mov	r1, r0
	str	r1, [sp]                        @ 4-byte Spill
	cmp	r0, #7
	bhi	.LBB13_8
@ %bb.1:
	.loc	2 0 5                           @ lvgl/src/lv_font/lv_font_fmt_txt.c:0:5
	ldr	r1, [sp]                        @ 4-byte Reload
.LCPI13_0:
	tbb	[pc, r1]
@ %bb.2:
.LJTI13_0:
	.byte	(.LBB13_3-(.LCPI13_0+4))/2
	.byte	(.LBB13_4-(.LCPI13_0+4))/2
	.byte	(.LBB13_5-(.LCPI13_0+4))/2
	.byte	(.LBB13_6-(.LCPI13_0+4))/2
	.byte	(.LBB13_8-(.LCPI13_0+4))/2
	.byte	(.LBB13_8-(.LCPI13_0+4))/2
	.byte	(.LBB13_8-(.LCPI13_0+4))/2
	.byte	(.LBB13_7-(.LCPI13_0+4))/2
	.p2align	1
.LBB13_3:
	movs	r0, #1
.Ltmp229:
	.loc	2 419 22 is_stmt 1              @ lvgl/src/lv_font/lv_font_fmt_txt.c:419:22
	strb.w	r0, [sp, #14]
	.loc	2 420 13                        @ lvgl/src/lv_font/lv_font_fmt_txt.c:420:13
	b	.LBB13_9
.LBB13_4:
	.loc	2 0 13 is_stmt 0                @ lvgl/src/lv_font/lv_font_fmt_txt.c:0:13
	movs	r0, #3
	.loc	2 422 22 is_stmt 1              @ lvgl/src/lv_font/lv_font_fmt_txt.c:422:22
	strb.w	r0, [sp, #14]
	.loc	2 423 13                        @ lvgl/src/lv_font/lv_font_fmt_txt.c:423:13
	b	.LBB13_9
.LBB13_5:
	.loc	2 0 13 is_stmt 0                @ lvgl/src/lv_font/lv_font_fmt_txt.c:0:13
	movs	r0, #7
	.loc	2 425 22 is_stmt 1              @ lvgl/src/lv_font/lv_font_fmt_txt.c:425:22
	strb.w	r0, [sp, #14]
	.loc	2 426 13                        @ lvgl/src/lv_font/lv_font_fmt_txt.c:426:13
	b	.LBB13_9
.LBB13_6:
	.loc	2 0 13 is_stmt 0                @ lvgl/src/lv_font/lv_font_fmt_txt.c:0:13
	movs	r0, #15
	.loc	2 428 22 is_stmt 1              @ lvgl/src/lv_font/lv_font_fmt_txt.c:428:22
	strb.w	r0, [sp, #14]
	.loc	2 429 13                        @ lvgl/src/lv_font/lv_font_fmt_txt.c:429:13
	b	.LBB13_9
.LBB13_7:
	.loc	2 0 13 is_stmt 0                @ lvgl/src/lv_font/lv_font_fmt_txt.c:0:13
	movs	r0, #255
	.loc	2 431 22 is_stmt 1              @ lvgl/src/lv_font/lv_font_fmt_txt.c:431:22
	strb.w	r0, [sp, #14]
	.loc	2 432 13                        @ lvgl/src/lv_font/lv_font_fmt_txt.c:432:13
	b	.LBB13_9
.LBB13_8:
	.loc	2 434 51                        @ lvgl/src/lv_font/lv_font_fmt_txt.c:434:51
	ldrb.w	r1, [sp, #15]
	movs	r0, #1
	.loc	2 434 48 is_stmt 0              @ lvgl/src/lv_font/lv_font_fmt_txt.c:434:48
	lsls	r0, r1
	.loc	2 434 56                        @ lvgl/src/lv_font/lv_font_fmt_txt.c:434:56
	subs	r0, #1
	.loc	2 434 22                        @ lvgl/src/lv_font/lv_font_fmt_txt.c:434:22
	strb.w	r0, [sp, #14]
	.loc	2 435 5 is_stmt 1               @ lvgl/src/lv_font/lv_font_fmt_txt.c:435:5
	b	.LBB13_9
.Ltmp230:
.LBB13_9:
	.loc	2 437 25                        @ lvgl/src/lv_font/lv_font_fmt_txt.c:437:25
	ldr	r0, [sp, #16]
	.loc	2 437 33 is_stmt 0              @ lvgl/src/lv_font/lv_font_fmt_txt.c:437:33
	lsrs	r0, r0, #3
	.loc	2 437 14                        @ lvgl/src/lv_font/lv_font_fmt_txt.c:437:14
	str	r0, [sp, #8]
	.loc	2 438 15 is_stmt 1              @ lvgl/src/lv_font/lv_font_fmt_txt.c:438:15
	ldr	r0, [sp, #16]
	.loc	2 438 23 is_stmt 0              @ lvgl/src/lv_font/lv_font_fmt_txt.c:438:23
	and	r0, r0, #7
	.loc	2 438 13                        @ lvgl/src/lv_font/lv_font_fmt_txt.c:438:13
	str	r0, [sp, #16]
.Ltmp231:
	.loc	2 440 8 is_stmt 1               @ lvgl/src/lv_font/lv_font_fmt_txt.c:440:8
	ldr	r0, [sp, #16]
	.loc	2 440 18 is_stmt 0              @ lvgl/src/lv_font/lv_font_fmt_txt.c:440:18
	ldrb.w	r1, [sp, #15]
	.loc	2 440 16                        @ lvgl/src/lv_font/lv_font_fmt_txt.c:440:16
	add	r0, r1
.Ltmp232:
	.loc	2 440 8                         @ lvgl/src/lv_font/lv_font_fmt_txt.c:440:8
	cmp	r0, #8
	blo	.LBB13_11
	b	.LBB13_10
.LBB13_10:
.Ltmp233:
	.loc	2 441 26 is_stmt 1              @ lvgl/src/lv_font/lv_font_fmt_txt.c:441:26
	ldr	r1, [sp, #20]
	.loc	2 441 29 is_stmt 0              @ lvgl/src/lv_font/lv_font_fmt_txt.c:441:29
	ldr	r2, [sp, #8]
	.loc	2 441 26                        @ lvgl/src/lv_font/lv_font_fmt_txt.c:441:26
	adds	r0, r1, r2
	ldrb	r1, [r1, r2]
	.loc	2 441 47                        @ lvgl/src/lv_font/lv_font_fmt_txt.c:441:47
	ldrb	r0, [r0, #1]
	.loc	2 441 45                        @ lvgl/src/lv_font/lv_font_fmt_txt.c:441:45
	orr.w	r0, r0, r1, lsl #8
	.loc	2 441 18                        @ lvgl/src/lv_font/lv_font_fmt_txt.c:441:18
	strh.w	r0, [sp, #6]
	.loc	2 442 17 is_stmt 1              @ lvgl/src/lv_font/lv_font_fmt_txt.c:442:17
	ldrh.w	r0, [sp, #6]
	.loc	2 442 31 is_stmt 0              @ lvgl/src/lv_font/lv_font_fmt_txt.c:442:31
	ldr	r1, [sp, #16]
	.loc	2 442 41                        @ lvgl/src/lv_font/lv_font_fmt_txt.c:442:41
	ldrb.w	r2, [sp, #15]
	.loc	2 442 39                        @ lvgl/src/lv_font/lv_font_fmt_txt.c:442:39
	add	r1, r2
	rsb.w	r1, r1, #16
	.loc	2 442 22                        @ lvgl/src/lv_font/lv_font_fmt_txt.c:442:22
	lsrs	r0, r1
	.loc	2 442 49                        @ lvgl/src/lv_font/lv_font_fmt_txt.c:442:49
	ldrb.w	r1, [sp, #14]
	.loc	2 442 47                        @ lvgl/src/lv_font/lv_font_fmt_txt.c:442:47
	ands	r0, r1
	.loc	2 442 9                         @ lvgl/src/lv_font/lv_font_fmt_txt.c:442:9
	strb.w	r0, [sp, #27]
	b	.LBB13_12
.Ltmp234:
.LBB13_11:
	.loc	2 445 17 is_stmt 1              @ lvgl/src/lv_font/lv_font_fmt_txt.c:445:17
	ldr	r0, [sp, #20]
	.loc	2 445 20 is_stmt 0              @ lvgl/src/lv_font/lv_font_fmt_txt.c:445:20
	ldr	r1, [sp, #8]
	.loc	2 445 17                        @ lvgl/src/lv_font/lv_font_fmt_txt.c:445:17
	ldrb	r0, [r0, r1]
	.loc	2 445 38                        @ lvgl/src/lv_font/lv_font_fmt_txt.c:445:38
	ldr	r1, [sp, #16]
	.loc	2 445 48                        @ lvgl/src/lv_font/lv_font_fmt_txt.c:445:48
	ldrb.w	r2, [sp, #15]
	.loc	2 445 46                        @ lvgl/src/lv_font/lv_font_fmt_txt.c:445:46
	add	r1, r2
	rsb.w	r1, r1, #8
	.loc	2 445 30                        @ lvgl/src/lv_font/lv_font_fmt_txt.c:445:30
	lsrs	r0, r1
	.loc	2 445 56                        @ lvgl/src/lv_font/lv_font_fmt_txt.c:445:56
	ldrb.w	r1, [sp, #14]
	.loc	2 445 54                        @ lvgl/src/lv_font/lv_font_fmt_txt.c:445:54
	ands	r0, r1
	.loc	2 445 9                         @ lvgl/src/lv_font/lv_font_fmt_txt.c:445:9
	strb.w	r0, [sp, #27]
	b	.LBB13_12
.Ltmp235:
.LBB13_12:
	.loc	2 447 1 is_stmt 1               @ lvgl/src/lv_font/lv_font_fmt_txt.c:447:1
	ldrb.w	r0, [sp, #27]
	add	sp, #28
	bx	lr
.Ltmp236:
.Lfunc_end13:
	.size	get_bits, .Lfunc_end13-get_bits
	.cfi_endproc
	.cantunwind
	.fnend
                                        @ -- End function
	.type	.L.str,%object                  @ @.str
	.section	.rodata.str1.1,"aMS",%progbits,1
.L.str:
	.asciz	"Out of memory"
	.size	.L.str, 14

	.type	rle_in,%object                  @ @rle_in
	.section	.bss.rle_in,"aw",%nobits
	.p2align	2
rle_in:
	.long	0
	.size	rle_in, 4

	.type	rle_bpp,%object                 @ @rle_bpp
	.section	.bss.rle_bpp,"aw",%nobits
rle_bpp:
	.byte	0                               @ 0x0
	.size	rle_bpp, 1

	.type	rle_state,%object               @ @rle_state
	.section	.bss.rle_state,"aw",%nobits
rle_state:
	.byte	0                               @ 0x0
	.size	rle_state, 1

	.type	rle_rdp,%object                 @ @rle_rdp
	.section	.bss.rle_rdp,"aw",%nobits
	.p2align	2
rle_rdp:
	.long	0                               @ 0x0
	.size	rle_rdp, 4

	.type	rle_prev_v,%object              @ @rle_prev_v
	.section	.bss.rle_prev_v,"aw",%nobits
rle_prev_v:
	.byte	0                               @ 0x0
	.size	rle_prev_v, 1

	.type	rle_cnt,%object                 @ @rle_cnt
	.section	.bss.rle_cnt,"aw",%nobits
rle_cnt:
	.byte	0                               @ 0x0
	.size	rle_cnt, 1

	.file	4 "E:\\Smart-access-control\\Hardware\\CODE" "lvgl/src/lv_font/lv_font.h"
	.file	5 "E:\\Smart-access-control\\Hardware\\CODE" "./lvgl/src/lv_conf.h"
	.file	6 "E:\\Smart-access-control\\Hardware\\CODE" "lvgl/src/lv_font/../lv_misc/../lv_draw/../lv_misc/lv_types.h"
	.section	".note.GNU-stack","",%progbits
	.eabi_attribute	30, 6	@ Tag_ABI_optimization_goals
	.ARM_attribute	16, 1	@ Tag_AV_eba