	.text
	.syntax unified
	.eabi_attribute	67, "2.09"	@ Tag_conformance
	.cpu	cortex-m7
	.eabi_attribute	6, 13	@ Tag_CPU_arch
	.eabi_attribute	7, 77	@ Tag_CPU_arch_profile
	.eabi_attribute	8, 0	@ Tag_ARM_ISA_use
	.eabi_attribute	9, 2	@ Tag_THUMB_ISA_use
	.fpu	fpv5-d16
	.eabi_attribute	36, 1	@ Tag_FP_HP_extension
	.eabi_attribute	34, 1	@ Tag_CPU_unaligned_access
	.eabi_attribute	17, 1	@ Tag_ABI_PCS_GOT_use
	.eabi_attribute	20, 2	@ Tag_ABI_FP_denormal
	.eabi_attribute	21, 0	@ Tag_ABI_FP_exceptions
	.eabi_attribute	23, 1	@ Tag_ABI_FP_number_model
	.eabi_attribute	24, 1	@ Tag_ABI_align_needed
	.eabi_attribute	25, 1	@ Tag_ABI_align_preserved
	.eabi_attribute	28, 1	@ Tag_ABI_VFP_args
	.eabi_attribute	38, 1	@ Tag_ABI_FP_16bit_format
	.eabi_attribute	18, 2	@ Tag_ABI_PCS_wchar_t
	.eabi_attribute	26, 1	@ Tag_ABI_enum_size
	.eabi_attribute	14, 0	@ Tag_ABI_PCS_R9_use
	.file	"lv_font.c"
	.section	.text.lv_font_get_glyph_bitmap,"ax",%progbits
	.hidden	lv_font_get_glyph_bitmap        @ -- Begin function lv_font_get_glyph_bitmap
	.globl	lv_font_get_glyph_bitmap
	.p2align	3
	.type	lv_font_get_glyph_bitmap,%function
	.code	16                              @ @lv_font_get_glyph_bitmap
	.thumb_func
lv_font_get_glyph_bitmap:
.Lfunc_begin0:
	.file	1 "E:\\STM32\\Learning\\STM32H750_ART_PI_RGBLCD" "lvgl/src/lv_font/lv_font.c"
	.loc	1 49 0                          @ lvgl/src/lv_font/lv_font.c:49:0
	.fnstart
	.cfi_sections .debug_frame
	.cfi_startproc
@ %bb.0:
	.save	{r7, lr}
	push	{r7, lr}
	.cfi_def_cfa_offset 8
	.cfi_offset lr, -4
	.cfi_offset r7, -8
	.pad	#8
	sub	sp, #8
	.cfi_def_cfa_offset 16
	str	r0, [sp, #4]
	str	r1, [sp]
.Ltmp0:
	.loc	1 50 12 prologue_end            @ lvgl/src/lv_font/lv_font.c:50:12
	ldr	r0, [sp, #4]
	.loc	1 50 20 is_stmt 0               @ lvgl/src/lv_font/lv_font.c:50:20
	ldr	r2, [r0, #4]
	.loc	1 50 45                         @ lvgl/src/lv_font/lv_font.c:50:45
	ldr	r1, [sp]
	.loc	1 50 12                         @ lvgl/src/lv_font/lv_font.c:50:12
	blx	r2
	.loc	1 50 5                          @ lvgl/src/lv_font/lv_font.c:50:5
	add	sp, #8
	pop	{r7, pc}
.Ltmp1:
.Lfunc_end0:
	.size	lv_font_get_glyph_bitmap, .Lfunc_end0-lv_font_get_glyph_bitmap
	.cfi_endproc
	.cantunwind
	.fnend
                                        @ -- End function
	.section	.text.lv_font_get_glyph_dsc,"ax",%progbits
	.hidden	lv_font_get_glyph_dsc           @ -- Begin function lv_font_get_glyph_dsc
	.globl	lv_font_get_glyph_dsc
	.p2align	3
	.type	lv_font_get_glyph_dsc,%function
	.code	16                              @ @lv_font_get_glyph_dsc
	.thumb_func
lv_font_get_glyph_dsc:
.Lfunc_begin1:
	.loc	1 63 0 is_stmt 1                @ lvgl/src/lv_font/lv_font.c:63:0
	.fnstart
	.cfi_startproc
@ %bb.0:
	.save	{r7, lr}
	push	{r7, lr}
	.cfi_def_cfa_offset 8
	.cfi_offset lr, -4
	.cfi_offset r7, -8
	.pad	#16
	sub	sp, #16
	.cfi_def_cfa_offset 24
	str	r0, [sp, #12]
	str	r1, [sp, #8]
	str	r2, [sp, #4]
	str	r3, [sp]
.Ltmp2:
	.loc	1 64 12 prologue_end            @ lvgl/src/lv_font/lv_font.c:64:12
	ldr	r0, [sp, #12]
	.loc	1 64 20 is_stmt 0               @ lvgl/src/lv_font/lv_font.c:64:20
	ldr.w	r12, [r0]
	.loc	1 64 42                         @ lvgl/src/lv_font/lv_font.c:64:42
	ldr	r1, [sp, #8]
	.loc	1 64 51                         @ lvgl/src/lv_font/lv_font.c:64:51
	ldr	r2, [sp, #4]
	.loc	1 64 59                         @ lvgl/src/lv_font/lv_font.c:64:59
	ldr	r3, [sp]
	.loc	1 64 12                         @ lvgl/src/lv_font/lv_font.c:64:12
	blx	r12
	.loc	1 64 5                          @ lvgl/src/lv_font/lv_font.c:64:5
	add	sp, #16
	pop	{r7, pc}
.Ltmp3:
.Lfunc_end1:
	.size	lv_font_get_glyph_dsc, .Lfunc_end1-lv_font_get_glyph_dsc
	.cfi_endproc
	.cantunwind
	.fnend
                                        @ -- End function
	.section	.text.lv_font_get_glyph_width,"ax",%progbits
	.hidden	lv_font_get_glyph_width         @ -- Begin function lv_font_get_glyph_width
	.globl	lv_font_get_glyph_width
	.p2align	3
	.type	lv_font_get_glyph_width,%function
	.code	16                              @ @lv_font_get_glyph_width
	.thumb_func
lv_font_get_glyph_width:
.Lfunc_begin2:
	.loc	1 75 0 is_stmt 1                @ lvgl/src/lv_font/lv_font.c:75:0
	.fnstart
	.cfi_startproc
@ %bb.0:
	.save	{r7, lr}
	push	{r7, lr}
	.cfi_def_cfa_offset 8
	.cfi_offset lr, -4
	.cfi_offset r7, -8
	.pad	#32
	sub	sp, #32
	.cfi_def_cfa_offset 40
	str	r0, [sp, #24]
	str	r1, [sp, #20]
	str	r2, [sp, #16]
.Ltmp4:
	.loc	1 78 33 prologue_end            @ lvgl/src/lv_font/lv_font.c:78:33
	ldr	r0, [sp, #24]
	.loc	1 78 43 is_stmt 0               @ lvgl/src/lv_font/lv_font.c:78:43
	ldr	r2, [sp, #20]
	.loc	1 78 51                         @ lvgl/src/lv_font/lv_font.c:78:51
	ldr	r3, [sp, #16]
	add	r1, sp, #4
	.loc	1 78 11                         @ lvgl/src/lv_font/lv_font.c:78:11
	bl	lv_font_get_glyph_dsc
	.loc	1 78 9                          @ lvgl/src/lv_font/lv_font.c:78:9
	strb.w	r0, [sp, #3]
.Ltmp5:
	.loc	1 79 8 is_stmt 1                @ lvgl/src/lv_font/lv_font.c:79:8
	ldrb.w	r0, [sp, #3]
.Ltmp6:
	.loc	1 79 8 is_stmt 0                @ lvgl/src/lv_font/lv_font.c:79:8
	lsls	r0, r0, #31
	cbz	r0, .LBB2_2
	b	.LBB2_1
.LBB2_1:
.Ltmp7:
	.loc	1 79 22                         @ lvgl/src/lv_font/lv_font.c:79:22
	ldrh.w	r0, [sp, #4]
	.loc	1 79 13                         @ lvgl/src/lv_font/lv_font.c:79:13
	strh.w	r0, [sp, #30]
	b	.LBB2_3
.LBB2_2:
	.loc	1 0 13                          @ lvgl/src/lv_font/lv_font.c:0:13
	movs	r0, #0
	.loc	1 80 10 is_stmt 1               @ lvgl/src/lv_font/lv_font.c:80:10
	strh.w	r0, [sp, #30]
	b	.LBB2_3
.Ltmp8:
.LBB2_3:
	.loc	1 81 1                          @ lvgl/src/lv_font/lv_font.c:81:1
	ldrh.w	r0, [sp, #30]
	add	sp, #32
	pop	{r7, pc}
.Ltmp9:
.Lfunc_end2:
	.size	lv_font_get_glyph_width, .Lfunc_end2-lv_font_get_glyph_width
	.cfi_endproc
	.cantunwind
	.fnend
                                        @ -- End function
	.file	2 "D:\\Keil_v5\\ARM\\ARMCLANG\\Bin\\..\\include" "stdint.h"
	.file	3 "E:\\STM32\\Learning\\STM32H750_ART_PI_RGBLCD" "lvgl/src/lv_font/lv_font.h"
	.file	4 "E:\\STM32\\Learning\\STM32H750_ART_PI_RGBLCD" "./lvgl/src/lv_conf.h"
	.section	".note.GNU-stack","",%progbits
	.eabi_attribute	30, 6	@ Tag_ABI_optimization_goals
	.ARM_attribute	16, 1	@ Tag_AV_eba