	.text
	.syntax unified
	.eabi_attribute	67, "2.09"	@ Tag_conformance
	.cpu	cortex-m7
	.eabi_attribute	6, 13	@ Tag_CPU_arch
	.eabi_attribute	7, 77	@ Tag_CPU_arch_profile
	.eabi_attribute	8, 0	@ Tag_ARM_ISA_use
	.eabi_attribute	9, 2	@ Tag_THUMB_ISA_use
	.fpu	fpv5-d16
	.eabi_attribute	36, 1	@ Tag_FP_HP_extension
	.eabi_attribute	34, 1	@ Tag_CPU_unaligned_access
	.eabi_attribute	17, 1	@ Tag_ABI_PCS_GOT_use
	.eabi_attribute	20, 2	@ Tag_ABI_FP_denormal
	.eabi_attribute	21, 0	@ Tag_ABI_FP_exceptions
	.eabi_attribute	23, 1	@ Tag_ABI_FP_number_model
	.eabi_attribute	24, 1	@ Tag_ABI_align_needed
	.eabi_attribute	25, 1	@ Tag_ABI_align_preserved
	.eabi_attribute	28, 1	@ Tag_ABI_VFP_args
	.eabi_attribute	38, 1	@ Tag_ABI_FP_16bit_format
	.eabi_attribute	18, 2	@ Tag_ABI_PCS_wchar_t
	.eabi_attribute	26, 1	@ Tag_ABI_enum_size
	.eabi_attribute	14, 0	@ Tag_ABI_PCS_R9_use
	.file	"lv_gc.c"
	.file	1 "D:\\Keil_v5\\ARM\\ARMCLANG\\Bin\\..\\include" "stdint.h"
	.file	2 "E:\\Smart-access-control\\Hardware\\CODE" "lvgl/src/lv_misc/lv_ll.h"
	.file	3 "E:\\Smart-access-control\\Hardware\\CODE" "lvgl/src/lv_misc/lv_gc.c"
	.file	4 "E:\\Smart-access-control\\Hardware\\CODE" "lvgl/src/lv_misc/../lv_draw/../lv_misc/lv_types.h"
	.file	5 "E:\\Smart-access-control\\Hardware\\CODE" "lvgl/src/lv_misc/../lv_draw/lv_img_buf.h"
	.file	6 "E:\\Smart-access-control\\Hardware\\CODE" "lvgl/src/lv_misc/../lv_draw/lv_img_decoder.h"
	.file	7 "E:\\Smart-access-control\\Hardware\\CODE" "./lvgl/src/lv_conf.h"
	.file	8 "E:\\Smart-access-control\\Hardware\\CODE" "lvgl/src/lv_misc/../lv_draw/../lv_misc/lv_color.h"
	.file	9 "E:\\Smart-access-control\\Hardware\\CODE" "lvgl/src/lv_misc/../lv_draw/lv_img_cache.h"
	.file	10 "E:\\Smart-access-control\\Hardware\\CODE" "lvgl/src/lv_misc/lv_task.h"
	.file	11 "E:\\Smart-access-control\\Hardware\\CODE" "lvgl/src/lv_misc/lv_mem.h"
	.file	12 "E:\\Smart-access-control\\Hardware\\CODE" "lvgl/src/lv_misc/../lv_draw/lv_draw_mask.h"
	.section	.text._lv_gc_clear_roots,"ax",%progbits
	.hidden	_lv_gc_clear_roots              @ -- Begin function _lv_gc_clear_roots
	.globl	_lv_gc_clear_roots
	.p2align	3
	.type	_lv_gc_clear_roots,%function
	.code	16                              @ @_lv_gc_clear_roots
	.thumb_func
_lv_gc_clear_roots:
.Lfunc_begin0:
	.loc	3 42 0                          @ lvgl/src/lv_misc/lv_gc.c:42:0
	.fnstart
	.cfi_sections .debug_frame
	.cfi_startproc
@ %bb.0:
	.save	{r7, lr}
	push	{r7, lr}
	.cfi_def_cfa_offset 8
	.cfi_offset lr, -4
	.cfi_offset r7, -8
	.pad	#16
	sub	sp, #16
	.cfi_def_cfa_offset 24
.Ltmp0:
	.loc	3 44 5 prologue_end             @ lvgl/src/lv_misc/lv_gc.c:44:5
	movw	r0, :lower16:_lv_task_ll
	movt	r0, :upper16:_lv_task_ll
	movs	r1, #12
	str	r1, [sp, #4]                    @ 4-byte Spill
	bl	_lv_memset_00
	ldr	r1, [sp, #4]                    @ 4-byte Reload
	movw	r0, :lower16:_lv_disp_ll
	movt	r0, :upper16:_lv_disp_ll
	bl	_lv_memset_00
	ldr	r1, [sp, #4]                    @ 4-byte Reload
	movw	r0, :lower16:_lv_indev_ll
	movt	r0, :upper16:_lv_indev_ll
	bl	_lv_memset_00
	ldr	r1, [sp, #4]                    @ 4-byte Reload
	movw	r0, :lower16:_lv_drv_ll
	movt	r0, :upper16:_lv_drv_ll
	bl	_lv_memset_00
	ldr	r1, [sp, #4]                    @ 4-byte Reload
	movw	r0, :lower16:_lv_file_ll
	movt	r0, :upper16:_lv_file_ll
	bl	_lv_memset_00
	ldr	r1, [sp, #4]                    @ 4-byte Reload
	movw	r0, :lower16:_lv_anim_ll
	movt	r0, :upper16:_lv_anim_ll
	bl	_lv_memset_00
	ldr	r1, [sp, #4]                    @ 4-byte Reload
	movw	r0, :lower16:_lv_group_ll
	movt	r0, :upper16:_lv_group_ll
	bl	_lv_memset_00
	ldr	r1, [sp, #4]                    @ 4-byte Reload
	movw	r0, :lower16:_lv_img_defoder_ll
	movt	r0, :upper16:_lv_img_defoder_ll
	bl	_lv_memset_00
	ldr	r1, [sp, #4]                    @ 4-byte Reload
	movw	r0, :lower16:_lv_obj_style_trans_ll
	movt	r0, :upper16:_lv_obj_style_trans_ll
	bl	_lv_memset_00
	movw	r0, :lower16:_lv_img_cache_array
	movt	r0, :upper16:_lv_img_cache_array
	movs	r1, #4
	str	r1, [sp, #12]                   @ 4-byte Spill
	bl	_lv_memset_00
	ldr	r1, [sp, #12]                   @ 4-byte Reload
	movw	r0, :lower16:_lv_task_act
	movt	r0, :upper16:_lv_task_act
	bl	_lv_memset_00
	movw	r0, :lower16:_lv_mem_buf
	movt	r0, :upper16:_lv_mem_buf
	movs	r1, #128
	str	r1, [sp, #8]                    @ 4-byte Spill
	bl	_lv_memset_00
	ldr	r1, [sp, #8]                    @ 4-byte Reload
	movw	r0, :lower16:_lv_draw_mask_list
	movt	r0, :upper16:_lv_draw_mask_list
	bl	_lv_memset_00
	ldr	r1, [sp, #12]                   @ 4-byte Reload
	movw	r0, :lower16:_lv_theme_material_styles
	movt	r0, :upper16:_lv_theme_material_styles
	bl	_lv_memset_00
	ldr	r1, [sp, #12]                   @ 4-byte Reload
	movw	r0, :lower16:_lv_theme_template_styles
	movt	r0, :upper16:_lv_theme_template_styles
	bl	_lv_memset_00
	ldr	r1, [sp, #12]                   @ 4-byte Reload
	movw	r0, :lower16:_lv_theme_mono_styles
	movt	r0, :upper16:_lv_theme_mono_styles
	bl	_lv_memset_00
	ldr	r1, [sp, #12]                   @ 4-byte Reload
	movw	r0, :lower16:_lv_theme_empty_styles
	movt	r0, :upper16:_lv_theme_empty_styles
	bl	_lv_memset_00
	ldr	r1, [sp, #12]                   @ 4-byte Reload
	movw	r0, :lower16:_lv_font_decompr_buf
	movt	r0, :upper16:_lv_font_decompr_buf
	bl	_lv_memset_00
	.loc	3 45 1                          @ lvgl/src/lv_misc/lv_gc.c:45:1
	add	sp, #16
	pop	{r7, pc}
.Ltmp1:
.Lfunc_end0:
	.size	_lv_gc_clear_roots, .Lfunc_end0-_lv_gc_clear_roots
	.cfi_endproc
	.cantunwind
	.fnend
                                        @ -- End function
	.hidden	_lv_task_ll                     @ @_lv_task_ll
	.type	_lv_task_ll,%object
	.section	.bss._lv_task_ll,"aw",%nobits
	.globl	_lv_task_ll
	.p2align	2
_lv_task_ll:
	.zero	12
	.size	_lv_task_ll, 12

	.hidden	_lv_disp_ll                     @ @_lv_disp_ll
	.type	_lv_disp_ll,%object
	.section	.bss._lv_disp_ll,"aw",%nobits
	.globl	_lv_disp_ll
	.p2align	2
_lv_disp_ll:
	.zero	12
	.size	_lv_disp_ll, 12

	.hidden	_lv_indev_ll                    @ @_lv_indev_ll
	.type	_lv_indev_ll,%object
	.section	.bss._lv_indev_ll,"aw",%nobits
	.globl	_lv_indev_ll
	.p2align	2
_lv_indev_ll:
	.zero	12
	.size	_lv_indev_ll, 12

	.hidden	_lv_drv_ll                      @ @_lv_drv_ll
	.type	_lv_drv_ll,%object
	.section	.bss._lv_drv_ll,"aw",%nobits
	.globl	_lv_drv_ll
	.p2align	2
_lv_drv_ll:
	.zero	12
	.size	_lv_drv_ll, 12

	.hidden	_lv_file_ll                     @ @_lv_file_ll
	.type	_lv_file_ll,%object
	.section	.bss._lv_file_ll,"aw",%nobits
	.globl	_lv_file_ll
	.p2align	2
_lv_file_ll:
	.zero	12
	.size	_lv_file_ll, 12

	.hidden	_lv_anim_ll                     @ @_lv_anim_ll
	.type	_lv_anim_ll,%object
	.section	.bss._lv_anim_ll,"aw",%nobits
	.globl	_lv_anim_ll
	.p2align	2
_lv_anim_ll:
	.zero	12
	.size	_lv_anim_ll, 12

	.hidden	_lv_group_ll                    @ @_lv_group_ll
	.type	_lv_group_ll,%object
	.section	.bss._lv_group_ll,"aw",%nobits
	.globl	_lv_group_ll
	.p2align	2
_lv_group_ll:
	.zero	12
	.size	_lv_group_ll, 12

	.hidden	_lv_img_defoder_ll              @ @_lv_img_defoder_ll
	.type	_lv_img_defoder_ll,%object
	.section	.bss._lv_img_defoder_ll,"aw",%nobits
	.globl	_lv_img_defoder_ll
	.p2align	2
_lv_img_defoder_ll:
	.zero	12
	.size	_lv_img_defoder_ll, 12

	.hidden	_lv_obj_style_trans_ll          @ @_lv_obj_style_trans_ll
	.type	_lv_obj_style_trans_ll,%object
	.section	.bss._lv_obj_style_trans_ll,"aw",%nobits
	.globl	_lv_obj_style_trans_ll
	.p2align	2
_lv_obj_style_trans_ll:
	.zero	12
	.size	_lv_obj_style_trans_ll, 12

	.hidden	_lv_img_cache_array             @ @_lv_img_cache_array
	.type	_lv_img_cache_array,%object
	.section	.bss._lv_img_cache_array,"aw",%nobits
	.globl	_lv_img_cache_array
	.p2align	2
_lv_img_cache_array:
	.long	0
	.size	_lv_img_cache_array, 4

	.hidden	_lv_task_act                    @ @_lv_task_act
	.type	_lv_task_act,%object
	.section	.bss._lv_task_act,"aw",%nobits
	.globl	_lv_task_act
	.p2align	2
_lv_task_act:
	.long	0
	.size	_lv_task_act, 4

	.hidden	_lv_mem_buf                     @ @_lv_mem_buf
	.type	_lv_mem_buf,%object
	.section	.bss._lv_mem_buf,"aw",%nobits
	.globl	_lv_mem_buf
	.p2align	2
_lv_mem_buf:
	.zero	128
	.size	_lv_mem_buf, 128

	.hidden	_lv_draw_mask_list              @ @_lv_draw_mask_list
	.type	_lv_draw_mask_list,%object
	.section	.bss._lv_draw_mask_list,"aw",%nobits
	.globl	_lv_draw_mask_list
	.p2align	2
_lv_draw_mask_list:
	.zero	128
	.size	_lv_draw_mask_list, 128

	.hidden	_lv_theme_material_styles       @ @_lv_theme_material_styles
	.type	_lv_theme_material_styles,%object
	.section	.bss._lv_theme_material_styles,"aw",%nobits
	.globl	_lv_theme_material_styles
	.p2align	2
_lv_theme_material_styles:
	.long	0
	.size	_lv_theme_material_styles, 4

	.hidden	_lv_theme_template_styles       @ @_lv_theme_template_styles
	.type	_lv_theme_template_styles,%object
	.section	.bss._lv_theme_template_styles,"aw",%nobits
	.globl	_lv_theme_template_styles
	.p2align	2
_lv_theme_template_styles:
	.long	0
	.size	_lv_theme_template_styles, 4

	.hidden	_lv_theme_mono_styles           @ @_lv_theme_mono_styles
	.type	_lv_theme_mono_styles,%object
	.section	.bss._lv_theme_mono_styles,"aw",%nobits
	.globl	_lv_theme_mono_styles
	.p2align	2
_lv_theme_mono_styles:
	.long	0
	.size	_lv_theme_mono_styles, 4

	.hidden	_lv_theme_empty_styles          @ @_lv_theme_empty_styles
	.type	_lv_theme_empty_styles,%object
	.section	.bss._lv_theme_empty_styles,"aw",%nobits
	.globl	_lv_theme_empty_styles
	.p2align	2
_lv_theme_empty_styles:
	.long	0
	.size	_lv_theme_empty_styles, 4

	.hidden	_lv_font_decompr_buf            @ @_lv_font_decompr_buf
	.type	_lv_font_decompr_buf,%object
	.section	.bss._lv_font_decompr_buf,"aw",%nobits
	.globl	_lv_font_decompr_buf
	.p2align	2
_lv_font_decompr_buf:
	.long	0
	.size	_lv_font_decompr_buf, 4

	.section	".note.GNU-stack","",%progbits
	.eabi_attribute	30, 6	@ Tag_ABI_optimization_goals
	.ARM_attribute	16, 1	@ Tag_AV_eba