	.text
	.syntax unified
	.eabi_attribute	67, "2.09"	@ Tag_conformance
	.cpu	cortex-m7
	.eabi_attribute	6, 13	@ Tag_CPU_arch
	.eabi_attribute	7, 77	@ Tag_CPU_arch_profile
	.eabi_attribute	8, 0	@ Tag_ARM_ISA_use
	.eabi_attribute	9, 2	@ Tag_THUMB_ISA_use
	.fpu	fpv5-d16
	.eabi_attribute	36, 1	@ Tag_FP_HP_extension
	.eabi_attribute	34, 1	@ Tag_CPU_unaligned_access
	.eabi_attribute	17, 1	@ Tag_ABI_PCS_GOT_use
	.eabi_attribute	20, 2	@ Tag_ABI_FP_denormal
	.eabi_attribute	21, 0	@ Tag_ABI_FP_exceptions
	.eabi_attribute	23, 1	@ Tag_ABI_FP_number_model
	.eabi_attribute	24, 1	@ Tag_ABI_align_needed
	.eabi_attribute	25, 1	@ Tag_ABI_align_preserved
	.eabi_attribute	28, 1	@ Tag_ABI_VFP_args
	.eabi_attribute	38, 1	@ Tag_ABI_FP_16bit_format
	.eabi_attribute	18, 2	@ Tag_ABI_PCS_wchar_t
	.eabi_attribute	26, 1	@ Tag_ABI_enum_size
	.eabi_attribute	14, 0	@ Tag_ABI_PCS_R9_use
	.file	"lv_group.c"
	.file	1 "E:\\STM32\\Learning\\STM32H750_ART_PI_RGBLCD" "lvgl/src/lv_core/lv_group.h"
	.file	2 "E:\\STM32\\Learning\\STM32H750_ART_PI_RGBLCD" "lvgl/src/lv_core/../lv_themes/../lv_core/lv_obj.h"
	.file	3 "E:\\STM32\\Learning\\STM32H750_ART_PI_RGBLCD" "lvgl/src/lv_core/../lv_draw/../lv_misc/lv_types.h"
	.file	4 "D:\\Keil_v5\\ARM\\ARMCLANG\\Bin\\..\\include" "stdint.h"
	.section	.text._lv_group_init,"ax",%progbits
	.hidden	_lv_group_init                  @ -- Begin function _lv_group_init
	.globl	_lv_group_init
	.p2align	3
	.type	_lv_group_init,%function
	.code	16                              @ @_lv_group_init
	.thumb_func
_lv_group_init:
.Lfunc_begin0:
	.file	5 "E:\\STM32\\Learning\\STM32H750_ART_PI_RGBLCD" "lvgl/src/lv_core/lv_group.c"
	.loc	5 48 0                          @ lvgl/src/lv_core/lv_group.c:48:0
	.fnstart
	.cfi_sections .debug_frame
	.cfi_startproc
@ %bb.0:
	.save	{r7, lr}
	push	{r7, lr}
	.cfi_def_cfa_offset 8
	.cfi_offset lr, -4
	.cfi_offset r7, -8
.Ltmp0:
	.loc	5 49 5 prologue_end             @ lvgl/src/lv_core/lv_group.c:49:5
	movw	r0, :lower16:_lv_group_ll
	movt	r0, :upper16:_lv_group_ll
	movs	r1, #24
	bl	_lv_ll_init
	.loc	5 50 1                          @ lvgl/src/lv_core/lv_group.c:50:1
	pop	{r7, pc}
.Ltmp1:
.Lfunc_end0:
	.size	_lv_group_init, .Lfunc_end0-_lv_group_init
	.cfi_endproc
	.cantunwind
	.fnend
                                        @ -- End function
	.section	.text.lv_group_create,"ax",%progbits
	.hidden	lv_group_create                 @ -- Begin function lv_group_create
	.globl	lv_group_create
	.p2align	3
	.type	lv_group_create,%function
	.code	16                              @ @lv_group_create
	.thumb_func
lv_group_create:
.Lfunc_begin1:
	.loc	5 57 0                          @ lvgl/src/lv_core/lv_group.c:57:0
	.fnstart
	.cfi_startproc
@ %bb.0:
	.save	{r7, lr}
	push	{r7, lr}
	.cfi_def_cfa_offset 8
	.cfi_offset lr, -4
	.cfi_offset r7, -8
	.pad	#8
	sub	sp, #8
	.cfi_def_cfa_offset 16
.Ltmp2:
	.loc	5 58 26 prologue_end            @ lvgl/src/lv_core/lv_group.c:58:26
	movw	r0, :lower16:_lv_group_ll
	movt	r0, :upper16:_lv_group_ll
	bl	_lv_ll_ins_head
	.loc	5 58 18 is_stmt 0               @ lvgl/src/lv_core/lv_group.c:58:18
	str	r0, [sp]
	.loc	5 59 5 is_stmt 1                @ lvgl/src/lv_core/lv_group.c:59:5
	b	.LBB1_1
.LBB1_1:
.Ltmp3:
	.loc	5 59 5 is_stmt 0                @ lvgl/src/lv_core/lv_group.c:59:5
	ldr	r0, [sp]
	bl	lv_debug_check_null
.Ltmp4:
	.loc	5 59 5                          @ lvgl/src/lv_core/lv_group.c:59:5
	cbnz	r0, .LBB1_4
	b	.LBB1_2
.LBB1_2:
.Ltmp5:
	.loc	5 59 5                          @ lvgl/src/lv_core/lv_group.c:59:5
	ldr	r2, [sp]
	movw	r0, :lower16:.L.str
	movt	r0, :upper16:.L.str
	movs	r3, #0
	bl	lv_debug_log_error
	b	.LBB1_3
.LBB1_3:                                @ =>This Inner Loop Header: Depth=1
	b	.LBB1_3
.Ltmp6:
.LBB1_4:
	.loc	5 59 5                          @ lvgl/src/lv_core/lv_group.c:59:5
	b	.LBB1_5
.Ltmp7:
.LBB1_5:
	.loc	5 60 8 is_stmt 1                @ lvgl/src/lv_core/lv_group.c:60:8
	ldr	r0, [sp]
.Ltmp8:
	.loc	5 60 8 is_stmt 0                @ lvgl/src/lv_core/lv_group.c:60:8
	cbnz	r0, .LBB1_7
	b	.LBB1_6
.LBB1_6:
	.loc	5 0 8                           @ lvgl/src/lv_core/lv_group.c:0:8
	movs	r0, #0
.Ltmp9:
	.loc	5 60 23                         @ lvgl/src/lv_core/lv_group.c:60:23
	str	r0, [sp, #4]
	b	.LBB1_8
.Ltmp10:
.LBB1_7:
	.loc	5 61 18 is_stmt 1               @ lvgl/src/lv_core/lv_group.c:61:18
	ldr	r0, [sp]
	movs	r1, #4
	.loc	5 61 5 is_stmt 0                @ lvgl/src/lv_core/lv_group.c:61:5
	bl	_lv_ll_init
	.loc	5 63 5 is_stmt 1                @ lvgl/src/lv_core/lv_group.c:63:5
	ldr	r1, [sp]
	movs	r0, #0
	.loc	5 63 27 is_stmt 0               @ lvgl/src/lv_core/lv_group.c:63:27
	str	r0, [r1, #12]
	.loc	5 64 5 is_stmt 1                @ lvgl/src/lv_core/lv_group.c:64:5
	ldr	r2, [sp]
	.loc	5 64 27 is_stmt 0               @ lvgl/src/lv_core/lv_group.c:64:27
	ldrb	r1, [r2, #20]
	and	r1, r1, #254
	strb	r1, [r2, #20]
	.loc	5 65 5 is_stmt 1                @ lvgl/src/lv_core/lv_group.c:65:5
	ldr	r1, [sp]
	.loc	5 65 27 is_stmt 0               @ lvgl/src/lv_core/lv_group.c:65:27
	str	r0, [r1, #16]
	.loc	5 66 5 is_stmt 1                @ lvgl/src/lv_core/lv_group.c:66:5
	ldr	r1, [sp]
	.loc	5 66 27 is_stmt 0               @ lvgl/src/lv_core/lv_group.c:66:27
	ldrb	r0, [r1, #20]
	orr	r0, r0, #4
	strb	r0, [r1, #20]
	.loc	5 67 5 is_stmt 1                @ lvgl/src/lv_core/lv_group.c:67:5
	ldr	r1, [sp]
	.loc	5 67 27 is_stmt 0               @ lvgl/src/lv_core/lv_group.c:67:27
	ldrb	r0, [r1, #20]
	and	r0, r0, #253
	strb	r0, [r1, #20]
	.loc	5 68 5 is_stmt 1                @ lvgl/src/lv_core/lv_group.c:68:5
	ldr	r1, [sp]
	.loc	5 68 27 is_stmt 0               @ lvgl/src/lv_core/lv_group.c:68:27
	ldrb	r0, [r1, #20]
	orr	r0, r0, #8
	strb	r0, [r1, #20]
	.loc	5 69 5 is_stmt 1                @ lvgl/src/lv_core/lv_group.c:69:5
	ldr	r1, [sp]
	.loc	5 69 27 is_stmt 0               @ lvgl/src/lv_core/lv_group.c:69:27
	ldrb	r0, [r1, #20]
	orr	r0, r0, #16
	strb	r0, [r1, #20]
	.loc	5 75 12 is_stmt 1               @ lvgl/src/lv_core/lv_group.c:75:12
	ldr	r0, [sp]
	.loc	5 75 5 is_stmt 0                @ lvgl/src/lv_core/lv_group.c:75:5
	str	r0, [sp, #4]
	b	.LBB1_8
.LBB1_8:
	.loc	5 76 1 is_stmt 1                @ lvgl/src/lv_core/lv_group.c:76:1
	ldr	r0, [sp, #4]
	add	sp, #8
	pop	{r7, pc}
.Ltmp11:
.Lfunc_end1:
	.size	lv_group_create, .Lfunc_end1-lv_group_create
	.cfi_endproc
	.cantunwind
	.fnend
                                        @ -- End function
	.section	.text.lv_group_del,"ax",%progbits
	.hidden	lv_group_del                    @ -- Begin function lv_group_del
	.globl	lv_group_del
	.p2align	3
	.type	lv_group_del,%function
	.code	16                              @ @lv_group_del
	.thumb_func
lv_group_del:
.Lfunc_begin2:
	.loc	5 83 0                          @ lvgl/src/lv_core/lv_group.c:83:0
	.fnstart
	.cfi_startproc
@ %bb.0:
	.save	{r7, lr}
	push	{r7, lr}
	.cfi_def_cfa_offset 8
	.cfi_offset lr, -4
	.cfi_offset r7, -8
	.pad	#8
	sub	sp, #8
	.cfi_def_cfa_offset 16
	str	r0, [sp, #4]
.Ltmp12:
	.loc	5 85 8 prologue_end             @ lvgl/src/lv_core/lv_group.c:85:8
	ldr	r0, [sp, #4]
	.loc	5 85 15 is_stmt 0               @ lvgl/src/lv_core/lv_group.c:85:15
	ldr	r0, [r0, #12]
.Ltmp13:
	.loc	5 85 8                          @ lvgl/src/lv_core/lv_group.c:85:8
	cbz	r0, .LBB2_2
	b	.LBB2_1
.LBB2_1:
.Ltmp14:
	.loc	5 86 11 is_stmt 1               @ lvgl/src/lv_core/lv_group.c:86:11
	ldr	r0, [sp, #4]
	.loc	5 86 18 is_stmt 0               @ lvgl/src/lv_core/lv_group.c:86:18
	ldr	r0, [r0, #12]
	.loc	5 86 10                         @ lvgl/src/lv_core/lv_group.c:86:10
	ldr	r0, [r0]
	.loc	5 86 30                         @ lvgl/src/lv_core/lv_group.c:86:30
	ldr	r3, [r0, #28]
	movs	r1, #23
	movs	r2, #0
	.loc	5 86 9                          @ lvgl/src/lv_core/lv_group.c:86:9
	blx	r3
	.loc	5 87 28 is_stmt 1               @ lvgl/src/lv_core/lv_group.c:87:28
	ldr	r0, [sp, #4]
	.loc	5 87 35 is_stmt 0               @ lvgl/src/lv_core/lv_group.c:87:35
	ldr	r0, [r0, #12]
	.loc	5 87 27                         @ lvgl/src/lv_core/lv_group.c:87:27
	ldr	r0, [r0]
	.loc	5 87 9                          @ lvgl/src/lv_core/lv_group.c:87:9
	bl	lv_obj_invalidate
	.loc	5 88 5 is_stmt 1                @ lvgl/src/lv_core/lv_group.c:88:5
	b	.LBB2_2
.Ltmp15:
.LBB2_2:
	.loc	5 92 5                          @ lvgl/src/lv_core/lv_group.c:92:5
	ldr	r0, [sp, #4]
	bl	_lv_ll_get_head
	str	r0, [sp]
	b	.LBB2_3
.LBB2_3:                                @ =>This Inner Loop Header: Depth=1
.Ltmp16:
	.loc	5 92 5 is_stmt 0                @ lvgl/src/lv_core/lv_group.c:92:5
	ldr	r0, [sp]
.Ltmp17:
	.loc	5 92 5                          @ lvgl/src/lv_core/lv_group.c:92:5
	cbz	r0, .LBB2_6
	b	.LBB2_4
.LBB2_4:                                @   in Loop: Header=BB2_3 Depth=1
.Ltmp18:
	.loc	5 93 11 is_stmt 1               @ lvgl/src/lv_core/lv_group.c:93:11
	ldr	r0, [sp]
	.loc	5 93 10 is_stmt 0               @ lvgl/src/lv_core/lv_group.c:93:10
	ldr	r1, [r0]
	movs	r0, #0
	.loc	5 93 25                         @ lvgl/src/lv_core/lv_group.c:93:25
	str	r0, [r1, #56]
	.loc	5 94 5 is_stmt 1                @ lvgl/src/lv_core/lv_group.c:94:5
	b	.LBB2_5
.Ltmp19:
.LBB2_5:                                @   in Loop: Header=BB2_3 Depth=1
	.loc	5 92 5                          @ lvgl/src/lv_core/lv_group.c:92:5
	ldr	r0, [sp, #4]
	ldr	r1, [sp]
	bl	_lv_ll_get_next
	str	r0, [sp]
	b	.LBB2_3
.Ltmp20:
.LBB2_6:
	.loc	5 96 20                         @ lvgl/src/lv_core/lv_group.c:96:20
	ldr	r0, [sp, #4]
	.loc	5 96 5 is_stmt 0                @ lvgl/src/lv_core/lv_group.c:96:5
	bl	_lv_ll_clear
	.loc	5 97 46 is_stmt 1               @ lvgl/src/lv_core/lv_group.c:97:46
	ldr	r1, [sp, #4]
	.loc	5 97 5 is_stmt 0                @ lvgl/src/lv_core/lv_group.c:97:5
	movw	r0, :lower16:_lv_group_ll
	movt	r0, :upper16:_lv_group_ll
	bl	_lv_ll_remove
	.loc	5 98 17 is_stmt 1               @ lvgl/src/lv_core/lv_group.c:98:17
	ldr	r0, [sp, #4]
	.loc	5 98 5 is_stmt 0                @ lvgl/src/lv_core/lv_group.c:98:5
	bl	lv_mem_free
	.loc	5 99 1 is_stmt 1                @ lvgl/src/lv_core/lv_group.c:99:1
	add	sp, #8
	pop	{r7, pc}
.Ltmp21:
.Lfunc_end2:
	.size	lv_group_del, .Lfunc_end2-lv_group_del
	.cfi_endproc
	.cantunwind
	.fnend
                                        @ -- End function
	.section	.text.lv_group_add_obj,"ax",%progbits
	.hidden	lv_group_add_obj                @ -- Begin function lv_group_add_obj
	.globl	lv_group_add_obj
	.p2align	3
	.type	lv_group_add_obj,%function
	.code	16                              @ @lv_group_add_obj
	.thumb_func
lv_group_add_obj:
.Lfunc_begin3:
	.loc	5 107 0                         @ lvgl/src/lv_core/lv_group.c:107:0
	.fnstart
	.cfi_startproc
@ %bb.0:
	.save	{r7, lr}
	push	{r7, lr}
	.cfi_def_cfa_offset 8
	.cfi_offset lr, -4
	.cfi_offset r7, -8
	.pad	#16
	sub	sp, #16
	.cfi_def_cfa_offset 24
	str	r0, [sp, #12]
	str	r1, [sp, #8]
.Ltmp22:
	.loc	5 108 8 prologue_end            @ lvgl/src/lv_core/lv_group.c:108:8
	ldr	r0, [sp, #12]
.Ltmp23:
	.loc	5 108 8 is_stmt 0               @ lvgl/src/lv_core/lv_group.c:108:8
	cbnz	r0, .LBB3_2
	b	.LBB3_1
.LBB3_1:
.Ltmp24:
	.loc	5 108 23                        @ lvgl/src/lv_core/lv_group.c:108:23
	b	.LBB3_21
.Ltmp25:
.LBB3_2:
	.loc	5 111 5 is_stmt 1               @ lvgl/src/lv_core/lv_group.c:111:5
	ldr	r0, [sp, #12]
	bl	_lv_ll_get_head
	str	r0, [sp, #4]
	b	.LBB3_3
.LBB3_3:                                @ =>This Inner Loop Header: Depth=1
.Ltmp26:
	.loc	5 111 5 is_stmt 0               @ lvgl/src/lv_core/lv_group.c:111:5
	ldr	r0, [sp, #4]
.Ltmp27:
	.loc	5 111 5                         @ lvgl/src/lv_core/lv_group.c:111:5
	cbz	r0, .LBB3_8
	b	.LBB3_4
.LBB3_4:                                @   in Loop: Header=BB3_3 Depth=1
.Ltmp28:
	.loc	5 112 14 is_stmt 1              @ lvgl/src/lv_core/lv_group.c:112:14
	ldr	r0, [sp, #4]
	.loc	5 112 13 is_stmt 0              @ lvgl/src/lv_core/lv_group.c:112:13
	ldr	r0, [r0]
	.loc	5 112 24                        @ lvgl/src/lv_core/lv_group.c:112:24
	ldr	r1, [sp, #8]
.Ltmp29:
	.loc	5 112 12                        @ lvgl/src/lv_core/lv_group.c:112:12
	cmp	r0, r1
	bne	.LBB3_6
	b	.LBB3_5
.LBB3_5:
.Ltmp30:
	.loc	5 114 13 is_stmt 1              @ lvgl/src/lv_core/lv_group.c:114:13
	b	.LBB3_21
.Ltmp31:
.LBB3_6:                                @   in Loop: Header=BB3_3 Depth=1
	.loc	5 116 5                         @ lvgl/src/lv_core/lv_group.c:116:5
	b	.LBB3_7
.Ltmp32:
.LBB3_7:                                @   in Loop: Header=BB3_3 Depth=1
	.loc	5 111 5                         @ lvgl/src/lv_core/lv_group.c:111:5
	ldr	r0, [sp, #12]
	ldr	r1, [sp, #4]
	bl	_lv_ll_get_next
	str	r0, [sp, #4]
	b	.LBB3_3
.Ltmp33:
.LBB3_8:
	.loc	5 119 8                         @ lvgl/src/lv_core/lv_group.c:119:8
	ldr	r0, [sp, #8]
	.loc	5 119 13 is_stmt 0              @ lvgl/src/lv_core/lv_group.c:119:13
	ldr	r0, [r0, #56]
.Ltmp34:
	.loc	5 119 8                         @ lvgl/src/lv_core/lv_group.c:119:8
	cbz	r0, .LBB3_12
	b	.LBB3_9
.LBB3_9:
.Ltmp35:
	.loc	5 120 30 is_stmt 1              @ lvgl/src/lv_core/lv_group.c:120:30
	ldr	r0, [sp, #8]
	.loc	5 120 12 is_stmt 0              @ lvgl/src/lv_core/lv_group.c:120:12
	bl	lv_obj_is_focused
.Ltmp36:
	.loc	5 120 12                        @ lvgl/src/lv_core/lv_group.c:120:12
	cbz	r0, .LBB3_11
	b	.LBB3_10
.LBB3_10:
.Ltmp37:
	.loc	5 121 30 is_stmt 1              @ lvgl/src/lv_core/lv_group.c:121:30
	ldr	r0, [sp, #8]
	.loc	5 121 35 is_stmt 0              @ lvgl/src/lv_core/lv_group.c:121:35
	ldr	r0, [r0, #56]
	.loc	5 121 13                        @ lvgl/src/lv_core/lv_group.c:121:13
	bl	lv_group_refocus
	.loc	5 124 9 is_stmt 1               @ lvgl/src/lv_core/lv_group.c:124:9
	b	.LBB3_11
.Ltmp38:
.LBB3_11:
	.loc	5 125 5                         @ lvgl/src/lv_core/lv_group.c:125:5
	b	.LBB3_12
.Ltmp39:
.LBB3_12:
	.loc	5 127 24                        @ lvgl/src/lv_core/lv_group.c:127:24
	ldr	r0, [sp, #12]
	.loc	5 127 5 is_stmt 0               @ lvgl/src/lv_core/lv_group.c:127:5
	ldr	r1, [sp, #8]
	.loc	5 127 22                        @ lvgl/src/lv_core/lv_group.c:127:22
	str	r0, [r1, #56]
	.loc	5 128 41 is_stmt 1              @ lvgl/src/lv_core/lv_group.c:128:41
	ldr	r0, [sp, #12]
	.loc	5 128 24 is_stmt 0              @ lvgl/src/lv_core/lv_group.c:128:24
	bl	_lv_ll_ins_tail
	.loc	5 128 17                        @ lvgl/src/lv_core/lv_group.c:128:17
	str	r0, [sp]
	.loc	5 129 5 is_stmt 1               @ lvgl/src/lv_core/lv_group.c:129:5
	b	.LBB3_13
.LBB3_13:
.Ltmp40:
	.loc	5 129 5 is_stmt 0               @ lvgl/src/lv_core/lv_group.c:129:5
	ldr	r0, [sp]
	bl	lv_debug_check_null
.Ltmp41:
	.loc	5 129 5                         @ lvgl/src/lv_core/lv_group.c:129:5
	cbnz	r0, .LBB3_16
	b	.LBB3_14
.LBB3_14:
.Ltmp42:
	.loc	5 129 5                         @ lvgl/src/lv_core/lv_group.c:129:5
	ldr	r2, [sp]
	movw	r0, :lower16:.L.str
	movt	r0, :upper16:.L.str
	movs	r3, #0
	bl	lv_debug_log_error
	b	.LBB3_15
.LBB3_15:                               @ =>This Inner Loop Header: Depth=1
	b	.LBB3_15
.Ltmp43:
.LBB3_16:
	.loc	5 129 5                         @ lvgl/src/lv_core/lv_group.c:129:5
	b	.LBB3_17
.Ltmp44:
.LBB3_17:
	.loc	5 130 8 is_stmt 1               @ lvgl/src/lv_core/lv_group.c:130:8
	ldr	r0, [sp]
.Ltmp45:
	.loc	5 130 8 is_stmt 0               @ lvgl/src/lv_core/lv_group.c:130:8
	cbnz	r0, .LBB3_19
	b	.LBB3_18
.LBB3_18:
.Ltmp46:
	.loc	5 130 22                        @ lvgl/src/lv_core/lv_group.c:130:22
	b	.LBB3_21
.Ltmp47:
.LBB3_19:
	.loc	5 131 13 is_stmt 1              @ lvgl/src/lv_core/lv_group.c:131:13
	ldr	r0, [sp, #8]
	.loc	5 131 6 is_stmt 0               @ lvgl/src/lv_core/lv_group.c:131:6
	ldr	r1, [sp]
	.loc	5 131 11                        @ lvgl/src/lv_core/lv_group.c:131:11
	str	r0, [r1]
.Ltmp48:
	.loc	5 135 25 is_stmt 1              @ lvgl/src/lv_core/lv_group.c:135:25
	ldr	r0, [sp, #12]
	.loc	5 135 8 is_stmt 0               @ lvgl/src/lv_core/lv_group.c:135:8
	bl	_lv_ll_get_head
	.loc	5 135 43                        @ lvgl/src/lv_core/lv_group.c:135:43
	ldr	r1, [sp]
.Ltmp49:
	.loc	5 135 8                         @ lvgl/src/lv_core/lv_group.c:135:8
	cmp	r0, r1
	bne	.LBB3_21
	b	.LBB3_20
.LBB3_20:
.Ltmp50:
	.loc	5 136 26 is_stmt 1              @ lvgl/src/lv_core/lv_group.c:136:26
	ldr	r0, [sp, #12]
	.loc	5 136 9 is_stmt 0               @ lvgl/src/lv_core/lv_group.c:136:9
	bl	lv_group_refocus
	.loc	5 137 5 is_stmt 1               @ lvgl/src/lv_core/lv_group.c:137:5
	b	.LBB3_21
.Ltmp51:
.LBB3_21:
	.loc	5 138 1                         @ lvgl/src/lv_core/lv_group.c:138:1
	add	sp, #16
	pop	{r7, pc}
.Ltmp52:
.Lfunc_end3:
	.size	lv_group_add_obj, .Lfunc_end3-lv_group_add_obj
	.cfi_endproc
	.cantunwind
	.fnend
                                        @ -- End function
	.section	.text.lv_group_refocus,"ax",%progbits
	.p2align	3                               @ -- Begin function lv_group_refocus
	.type	lv_group_refocus,%function
	.code	16                              @ @lv_group_refocus
	.thumb_func
lv_group_refocus:
.Lfunc_begin4:
	.loc	5 434 0                         @ lvgl/src/lv_core/lv_group.c:434:0
	.fnstart
	.cfi_startproc
@ %bb.0:
	.save	{r7, lr}
	push	{r7, lr}
	.cfi_def_cfa_offset 8
	.cfi_offset lr, -4
	.cfi_offset r7, -8
	.pad	#8
	sub	sp, #8
	.cfi_def_cfa_offset 16
	str	r0, [sp, #4]
.Ltmp53:
	.loc	5 436 25 prologue_end           @ lvgl/src/lv_core/lv_group.c:436:25
	ldr	r0, [sp, #4]
	.loc	5 436 28 is_stmt 0              @ lvgl/src/lv_core/lv_group.c:436:28
	ldrb	r0, [r0, #20]
	ubfx	r0, r0, #4, #1
	.loc	5 436 13                        @ lvgl/src/lv_core/lv_group.c:436:13
	strb.w	r0, [sp, #3]
	.loc	5 437 5 is_stmt 1               @ lvgl/src/lv_core/lv_group.c:437:5
	ldr	r1, [sp, #4]
	.loc	5 437 23 is_stmt 0              @ lvgl/src/lv_core/lv_group.c:437:23
	ldrb	r0, [r1, #20]
	orr	r0, r0, #16
	strb	r0, [r1, #20]
.Ltmp54:
	.loc	5 439 8 is_stmt 1               @ lvgl/src/lv_core/lv_group.c:439:8
	ldr	r0, [sp, #4]
	.loc	5 439 11 is_stmt 0              @ lvgl/src/lv_core/lv_group.c:439:11
	ldrb	r0, [r0, #20]
	lsrs	r0, r0, #3
.Ltmp55:
	.loc	5 439 8                         @ lvgl/src/lv_core/lv_group.c:439:8
	lsls	r0, r0, #31
	cbnz	r0, .LBB4_2
	b	.LBB4_1
.LBB4_1:
.Ltmp56:
	.loc	5 440 29 is_stmt 1              @ lvgl/src/lv_core/lv_group.c:440:29
	ldr	r0, [sp, #4]
	.loc	5 440 9 is_stmt 0               @ lvgl/src/lv_core/lv_group.c:440:9
	bl	lv_group_focus_next
	b	.LBB4_5
.LBB4_2:
.Ltmp57:
	.loc	5 441 13 is_stmt 1              @ lvgl/src/lv_core/lv_group.c:441:13
	ldr	r0, [sp, #4]
	.loc	5 441 16 is_stmt 0              @ lvgl/src/lv_core/lv_group.c:441:16
	ldrb	r0, [r0, #20]
	lsrs	r0, r0, #3
.Ltmp58:
	.loc	5 441 13                        @ lvgl/src/lv_core/lv_group.c:441:13
	lsls	r0, r0, #31
	cbz	r0, .LBB4_4
	b	.LBB4_3
.LBB4_3:
.Ltmp59:
	.loc	5 442 29 is_stmt 1              @ lvgl/src/lv_core/lv_group.c:442:29
	ldr	r0, [sp, #4]
	.loc	5 442 9 is_stmt 0               @ lvgl/src/lv_core/lv_group.c:442:9
	bl	lv_group_focus_prev
	b	.LBB4_4
.Ltmp60:
.LBB4_4:
	.loc	5 0 9                           @ lvgl/src/lv_core/lv_group.c:0:9
	b	.LBB4_5
.LBB4_5:
	.loc	5 444 15 is_stmt 1              @ lvgl/src/lv_core/lv_group.c:444:15
	ldrb.w	r2, [sp, #3]
	.loc	5 444 5 is_stmt 0               @ lvgl/src/lv_core/lv_group.c:444:5
	ldr	r1, [sp, #4]
	.loc	5 444 13                        @ lvgl/src/lv_core/lv_group.c:444:13
	ldrb	r0, [r1, #20]
	and	r2, r2, #1
	and	r0, r0, #239
	orr.w	r0, r0, r2, lsl #4
	strb	r0, [r1, #20]
	.loc	5 445 1 is_stmt 1               @ lvgl/src/lv_core/lv_group.c:445:1
	add	sp, #8
	pop	{r7, pc}
.Ltmp61:
.Lfunc_end4:
	.size	lv_group_refocus, .Lfunc_end4-lv_group_refocus
	.cfi_endproc
	.cantunwind
	.fnend
                                        @ -- End function
	.section	.text.lv_group_remove_obj,"ax",%progbits
	.hidden	lv_group_remove_obj             @ -- Begin function lv_group_remove_obj
	.globl	lv_group_remove_obj
	.p2align	3
	.type	lv_group_remove_obj,%function
	.code	16                              @ @lv_group_remove_obj
	.thumb_func
lv_group_remove_obj:
.Lfunc_begin5:
	.loc	5 145 0                         @ lvgl/src/lv_core/lv_group.c:145:0
	.fnstart
	.cfi_startproc
@ %bb.0:
	.save	{r7, lr}
	push	{r7, lr}
	.cfi_def_cfa_offset 8
	.cfi_offset lr, -4
	.cfi_offset r7, -8
	.pad	#16
	sub	sp, #16
	.cfi_def_cfa_offset 24
	str	r0, [sp, #12]
.Ltmp62:
	.loc	5 146 22 prologue_end           @ lvgl/src/lv_core/lv_group.c:146:22
	ldr	r0, [sp, #12]
	.loc	5 146 27 is_stmt 0              @ lvgl/src/lv_core/lv_group.c:146:27
	ldr	r0, [r0, #56]
	.loc	5 146 18                        @ lvgl/src/lv_core/lv_group.c:146:18
	str	r0, [sp, #8]
.Ltmp63:
	.loc	5 147 8 is_stmt 1               @ lvgl/src/lv_core/lv_group.c:147:8
	ldr	r0, [sp, #8]
.Ltmp64:
	.loc	5 147 8 is_stmt 0               @ lvgl/src/lv_core/lv_group.c:147:8
	cbnz	r0, .LBB5_2
	b	.LBB5_1
.LBB5_1:
.Ltmp65:
	.loc	5 147 19                        @ lvgl/src/lv_core/lv_group.c:147:19
	b	.LBB5_18
.Ltmp66:
.LBB5_2:
	.loc	5 150 9 is_stmt 1               @ lvgl/src/lv_core/lv_group.c:150:9
	ldr	r0, [sp, #8]
	.loc	5 150 12 is_stmt 0              @ lvgl/src/lv_core/lv_group.c:150:12
	ldr	r0, [r0, #12]
	.loc	5 150 8                         @ lvgl/src/lv_core/lv_group.c:150:8
	ldr	r0, [r0]
	.loc	5 150 25                        @ lvgl/src/lv_core/lv_group.c:150:25
	ldr	r1, [sp, #12]
.Ltmp67:
	.loc	5 150 8                         @ lvgl/src/lv_core/lv_group.c:150:8
	cmp	r0, r1
	bne	.LBB5_10
	b	.LBB5_3
.LBB5_3:
.Ltmp68:
	.loc	5 151 12 is_stmt 1              @ lvgl/src/lv_core/lv_group.c:151:12
	ldr	r0, [sp, #8]
	.loc	5 151 15 is_stmt 0              @ lvgl/src/lv_core/lv_group.c:151:15
	ldrb	r0, [r0, #20]
.Ltmp69:
	.loc	5 151 12                        @ lvgl/src/lv_core/lv_group.c:151:12
	lsls	r0, r0, #31
	cbz	r0, .LBB5_5
	b	.LBB5_4
.LBB5_4:
.Ltmp70:
	.loc	5 151 23                        @ lvgl/src/lv_core/lv_group.c:151:23
	ldr	r1, [sp, #8]
	.loc	5 151 33                        @ lvgl/src/lv_core/lv_group.c:151:33
	ldrb	r0, [r1, #20]
	and	r0, r0, #254
	strb	r0, [r1, #20]
	.loc	5 151 23                        @ lvgl/src/lv_core/lv_group.c:151:23
	b	.LBB5_5
.Ltmp71:
.LBB5_5:
	.loc	5 154 29 is_stmt 1              @ lvgl/src/lv_core/lv_group.c:154:29
	ldr	r0, [sp, #8]
	.loc	5 154 12 is_stmt 0              @ lvgl/src/lv_core/lv_group.c:154:12
	bl	_lv_ll_get_head
	.loc	5 154 43                        @ lvgl/src/lv_core/lv_group.c:154:43
	ldr	r1, [sp, #8]
	.loc	5 154 46                        @ lvgl/src/lv_core/lv_group.c:154:46
	ldr	r1, [r1, #12]
	.loc	5 154 56                        @ lvgl/src/lv_core/lv_group.c:154:56
	cmp	r0, r1
	bne	.LBB5_8
	b	.LBB5_6
.LBB5_6:
	.loc	5 154 76                        @ lvgl/src/lv_core/lv_group.c:154:76
	ldr	r0, [sp, #8]
	.loc	5 154 59                        @ lvgl/src/lv_core/lv_group.c:154:59
	bl	_lv_ll_get_tail
	.loc	5 154 90                        @ lvgl/src/lv_core/lv_group.c:154:90
	ldr	r1, [sp, #8]
	.loc	5 154 93                        @ lvgl/src/lv_core/lv_group.c:154:93
	ldr	r1, [r1, #12]
.Ltmp72:
	.loc	5 154 12                        @ lvgl/src/lv_core/lv_group.c:154:12
	cmp	r0, r1
	bne	.LBB5_8
	b	.LBB5_7
.LBB5_7:
.Ltmp73:
	.loc	5 155 15 is_stmt 1              @ lvgl/src/lv_core/lv_group.c:155:15
	ldr	r0, [sp, #8]
	.loc	5 155 18 is_stmt 0              @ lvgl/src/lv_core/lv_group.c:155:18
	ldr	r0, [r0, #12]
	.loc	5 155 14                        @ lvgl/src/lv_core/lv_group.c:155:14
	ldr	r0, [r0]
	.loc	5 155 30                        @ lvgl/src/lv_core/lv_group.c:155:30
	ldr	r3, [r0, #28]
	movs	r1, #23
	movs	r2, #0
	.loc	5 155 13                        @ lvgl/src/lv_core/lv_group.c:155:13
	blx	r3
	.loc	5 156 9 is_stmt 1               @ lvgl/src/lv_core/lv_group.c:156:9
	b	.LBB5_9
.Ltmp74:
.LBB5_8:
	.loc	5 159 30                        @ lvgl/src/lv_core/lv_group.c:159:30
	ldr	r0, [sp, #8]
	.loc	5 159 13 is_stmt 0              @ lvgl/src/lv_core/lv_group.c:159:13
	bl	lv_group_refocus
	b	.LBB5_9
.Ltmp75:
.LBB5_9:
	.loc	5 161 5 is_stmt 1               @ lvgl/src/lv_core/lv_group.c:161:5
	b	.LBB5_10
.Ltmp76:
.LBB5_10:
	.loc	5 166 9                         @ lvgl/src/lv_core/lv_group.c:166:9
	ldr	r0, [sp, #8]
	.loc	5 166 12 is_stmt 0              @ lvgl/src/lv_core/lv_group.c:166:12
	ldr	r0, [r0, #12]
	.loc	5 166 8                         @ lvgl/src/lv_core/lv_group.c:166:8
	ldr	r0, [r0]
	.loc	5 166 25                        @ lvgl/src/lv_core/lv_group.c:166:25
	ldr	r1, [sp, #12]
.Ltmp77:
	.loc	5 166 8                         @ lvgl/src/lv_core/lv_group.c:166:8
	cmp	r0, r1
	bne	.LBB5_12
	b	.LBB5_11
.LBB5_11:
.Ltmp78:
	.loc	5 167 9 is_stmt 1               @ lvgl/src/lv_core/lv_group.c:167:9
	ldr	r1, [sp, #8]
	movs	r0, #0
	.loc	5 167 22 is_stmt 0              @ lvgl/src/lv_core/lv_group.c:167:22
	str	r0, [r1, #12]
	.loc	5 168 5 is_stmt 1               @ lvgl/src/lv_core/lv_group.c:168:5
	b	.LBB5_12
.Ltmp79:
.LBB5_12:
	.loc	5 172 5                         @ lvgl/src/lv_core/lv_group.c:172:5
	ldr	r0, [sp, #8]
	bl	_lv_ll_get_head
	str	r0, [sp, #4]
	b	.LBB5_13
.LBB5_13:                               @ =>This Inner Loop Header: Depth=1
.Ltmp80:
	.loc	5 172 5 is_stmt 0               @ lvgl/src/lv_core/lv_group.c:172:5
	ldr	r0, [sp, #4]
.Ltmp81:
	.loc	5 172 5                         @ lvgl/src/lv_core/lv_group.c:172:5
	cbz	r0, .LBB5_18
	b	.LBB5_14
.LBB5_14:                               @   in Loop: Header=BB5_13 Depth=1
.Ltmp82:
	.loc	5 173 13 is_stmt 1              @ lvgl/src/lv_core/lv_group.c:173:13
	ldr	r0, [sp, #4]
	.loc	5 173 12 is_stmt 0              @ lvgl/src/lv_core/lv_group.c:173:12
	ldr	r0, [r0]
	.loc	5 173 18                        @ lvgl/src/lv_core/lv_group.c:173:18
	ldr	r1, [sp, #12]
.Ltmp83:
	.loc	5 173 12                        @ lvgl/src/lv_core/lv_group.c:173:12
	cmp	r0, r1
	bne	.LBB5_16
	b	.LBB5_15
.LBB5_15:
.Ltmp84:
	.loc	5 174 28 is_stmt 1              @ lvgl/src/lv_core/lv_group.c:174:28
	ldr	r0, [sp, #8]
	.loc	5 174 39 is_stmt 0              @ lvgl/src/lv_core/lv_group.c:174:39
	ldr	r1, [sp, #4]
	.loc	5 174 13                        @ lvgl/src/lv_core/lv_group.c:174:13
	bl	_lv_ll_remove
	.loc	5 175 25 is_stmt 1              @ lvgl/src/lv_core/lv_group.c:175:25
	ldr	r0, [sp, #4]
	.loc	5 175 13 is_stmt 0              @ lvgl/src/lv_core/lv_group.c:175:13
	bl	lv_mem_free
	.loc	5 176 13 is_stmt 1              @ lvgl/src/lv_core/lv_group.c:176:13
	ldr	r1, [sp, #12]
	movs	r0, #0
	.loc	5 176 26 is_stmt 0              @ lvgl/src/lv_core/lv_group.c:176:26
	str	r0, [r1, #56]
	.loc	5 177 13 is_stmt 1              @ lvgl/src/lv_core/lv_group.c:177:13
	b	.LBB5_18
.Ltmp85:
.LBB5_16:                               @   in Loop: Header=BB5_13 Depth=1
	.loc	5 179 5                         @ lvgl/src/lv_core/lv_group.c:179:5
	b	.LBB5_17
.Ltmp86:
.LBB5_17:                               @   in Loop: Header=BB5_13 Depth=1
	.loc	5 172 5                         @ lvgl/src/lv_core/lv_group.c:172:5
	ldr	r0, [sp, #8]
	ldr	r1, [sp, #4]
	bl	_lv_ll_get_next
	str	r0, [sp, #4]
	b	.LBB5_13
.Ltmp87:
.LBB5_18:
	.loc	5 180 1                         @ lvgl/src/lv_core/lv_group.c:180:1
	add	sp, #16
	pop	{r7, pc}
.Ltmp88:
.Lfunc_end5:
	.size	lv_group_remove_obj, .Lfunc_end5-lv_group_remove_obj
	.cfi_endproc
	.cantunwind
	.fnend
                                        @ -- End function
	.section	.text.lv_group_remove_all_objs,"ax",%progbits
	.hidden	lv_group_remove_all_objs        @ -- Begin function lv_group_remove_all_objs
	.globl	lv_group_remove_all_objs
	.p2align	3
	.type	lv_group_remove_all_objs,%function
	.code	16                              @ @lv_group_remove_all_objs
	.thumb_func
lv_group_remove_all_objs:
.Lfunc_begin6:
	.loc	5 187 0                         @ lvgl/src/lv_core/lv_group.c:187:0
	.fnstart
	.cfi_startproc
@ %bb.0:
	.save	{r7, lr}
	push	{r7, lr}
	.cfi_def_cfa_offset 8
	.cfi_offset lr, -4
	.cfi_offset r7, -8
	.pad	#16
	sub	sp, #16
	.cfi_def_cfa_offset 24
	str	r0, [sp, #12]
.Ltmp89:
	.loc	5 189 8 prologue_end            @ lvgl/src/lv_core/lv_group.c:189:8
	ldr	r0, [sp, #12]
	.loc	5 189 15 is_stmt 0              @ lvgl/src/lv_core/lv_group.c:189:15
	ldr	r0, [r0, #12]
.Ltmp90:
	.loc	5 189 8                         @ lvgl/src/lv_core/lv_group.c:189:8
	cbz	r0, .LBB6_2
	b	.LBB6_1
.LBB6_1:
.Ltmp91:
	.loc	5 190 11 is_stmt 1              @ lvgl/src/lv_core/lv_group.c:190:11
	ldr	r0, [sp, #12]
	.loc	5 190 18 is_stmt 0              @ lvgl/src/lv_core/lv_group.c:190:18
	ldr	r0, [r0, #12]
	.loc	5 190 10                        @ lvgl/src/lv_core/lv_group.c:190:10
	ldr	r0, [r0]
	.loc	5 190 30                        @ lvgl/src/lv_core/lv_group.c:190:30
	ldr	r3, [r0, #28]
	movs	r1, #23
	movs	r2, #0
	.loc	5 190 9                         @ lvgl/src/lv_core/lv_group.c:190:9
	str	r2, [sp, #4]                    @ 4-byte Spill
	blx	r3
	.loc	5 191 28 is_stmt 1              @ lvgl/src/lv_core/lv_group.c:191:28
	ldr	r0, [sp, #12]
	.loc	5 191 35 is_stmt 0              @ lvgl/src/lv_core/lv_group.c:191:35
	ldr	r0, [r0, #12]
	.loc	5 191 27                        @ lvgl/src/lv_core/lv_group.c:191:27
	ldr	r0, [r0]
	.loc	5 191 9                         @ lvgl/src/lv_core/lv_group.c:191:9
	bl	lv_obj_invalidate
	ldr	r0, [sp, #4]                    @ 4-byte Reload
	.loc	5 192 9 is_stmt 1               @ lvgl/src/lv_core/lv_group.c:192:9
	ldr	r1, [sp, #12]
	.loc	5 192 26 is_stmt 0              @ lvgl/src/lv_core/lv_group.c:192:26
	str	r0, [r1, #12]
	.loc	5 193 5 is_stmt 1               @ lvgl/src/lv_core/lv_group.c:193:5
	b	.LBB6_2
.Ltmp92:
.LBB6_2:
	.loc	5 197 5                         @ lvgl/src/lv_core/lv_group.c:197:5
	ldr	r0, [sp, #12]
	bl	_lv_ll_get_head
	str	r0, [sp, #8]
	b	.LBB6_3
.LBB6_3:                                @ =>This Inner Loop Header: Depth=1
.Ltmp93:
	.loc	5 197 5 is_stmt 0               @ lvgl/src/lv_core/lv_group.c:197:5
	ldr	r0, [sp, #8]
.Ltmp94:
	.loc	5 197 5                         @ lvgl/src/lv_core/lv_group.c:197:5
	cbz	r0, .LBB6_6
	b	.LBB6_4
.LBB6_4:                                @   in Loop: Header=BB6_3 Depth=1
.Ltmp95:
	.loc	5 198 11 is_stmt 1              @ lvgl/src/lv_core/lv_group.c:198:11
	ldr	r0, [sp, #8]
	.loc	5 198 10 is_stmt 0              @ lvgl/src/lv_core/lv_group.c:198:10
	ldr	r1, [r0]
	movs	r0, #0
	.loc	5 198 25                        @ lvgl/src/lv_core/lv_group.c:198:25
	str	r0, [r1, #56]
	.loc	5 199 5 is_stmt 1               @ lvgl/src/lv_core/lv_group.c:199:5
	b	.LBB6_5
.Ltmp96:
.LBB6_5:                                @   in Loop: Header=BB6_3 Depth=1
	.loc	5 197 5                         @ lvgl/src/lv_core/lv_group.c:197:5
	ldr	r0, [sp, #12]
	ldr	r1, [sp, #8]
	bl	_lv_ll_get_next
	str	r0, [sp, #8]
	b	.LBB6_3
.Ltmp97:
.LBB6_6:
	.loc	5 201 20                        @ lvgl/src/lv_core/lv_group.c:201:20
	ldr	r0, [sp, #12]
	.loc	5 201 5 is_stmt 0               @ lvgl/src/lv_core/lv_group.c:201:5
	bl	_lv_ll_clear
	.loc	5 202 1 is_stmt 1               @ lvgl/src/lv_core/lv_group.c:202:1
	add	sp, #16
	pop	{r7, pc}
.Ltmp98:
.Lfunc_end6:
	.size	lv_group_remove_all_objs, .Lfunc_end6-lv_group_remove_all_objs
	.cfi_endproc
	.cantunwind
	.fnend
                                        @ -- End function
	.section	.text.lv_group_focus_obj,"ax",%progbits
	.hidden	lv_group_focus_obj              @ -- Begin function lv_group_focus_obj
	.globl	lv_group_focus_obj
	.p2align	3
	.type	lv_group_focus_obj,%function
	.code	16                              @ @lv_group_focus_obj
	.thumb_func
lv_group_focus_obj:
.Lfunc_begin7:
	.loc	5 209 0                         @ lvgl/src/lv_core/lv_group.c:209:0
	.fnstart
	.cfi_startproc
@ %bb.0:
	.save	{r7, lr}
	push	{r7, lr}
	.cfi_def_cfa_offset 8
	.cfi_offset lr, -4
	.cfi_offset r7, -8
	.pad	#24
	sub	sp, #24
	.cfi_def_cfa_offset 32
	str	r0, [sp, #20]
.Ltmp99:
	.loc	5 210 8 prologue_end            @ lvgl/src/lv_core/lv_group.c:210:8
	ldr	r0, [sp, #20]
.Ltmp100:
	.loc	5 210 8 is_stmt 0               @ lvgl/src/lv_core/lv_group.c:210:8
	cbnz	r0, .LBB7_2
	b	.LBB7_1
.LBB7_1:
.Ltmp101:
	.loc	5 210 21                        @ lvgl/src/lv_core/lv_group.c:210:21
	b	.LBB7_25
.Ltmp102:
.LBB7_2:
	.loc	5 211 22 is_stmt 1              @ lvgl/src/lv_core/lv_group.c:211:22
	ldr	r0, [sp, #20]
	.loc	5 211 27 is_stmt 0              @ lvgl/src/lv_core/lv_group.c:211:27
	ldr	r0, [r0, #56]
	.loc	5 211 18                        @ lvgl/src/lv_core/lv_group.c:211:18
	str	r0, [sp, #16]
.Ltmp103:
	.loc	5 212 8 is_stmt 1               @ lvgl/src/lv_core/lv_group.c:212:8
	ldr	r0, [sp, #16]
.Ltmp104:
	.loc	5 212 8 is_stmt 0               @ lvgl/src/lv_core/lv_group.c:212:8
	cbnz	r0, .LBB7_4
	b	.LBB7_3
.LBB7_3:
.Ltmp105:
	.loc	5 212 19                        @ lvgl/src/lv_core/lv_group.c:212:19
	b	.LBB7_25
.Ltmp106:
.LBB7_4:
	.loc	5 214 8 is_stmt 1               @ lvgl/src/lv_core/lv_group.c:214:8
	ldr	r0, [sp, #16]
	.loc	5 214 11 is_stmt 0              @ lvgl/src/lv_core/lv_group.c:214:11
	ldrb	r0, [r0, #20]
.Ltmp107:
	.loc	5 214 8                         @ lvgl/src/lv_core/lv_group.c:214:8
	lsls	r0, r0, #31
	cbz	r0, .LBB7_6
	b	.LBB7_5
.LBB7_5:
.Ltmp108:
	.loc	5 214 24                        @ lvgl/src/lv_core/lv_group.c:214:24
	b	.LBB7_25
.Ltmp109:
.LBB7_6:
	.loc	5 216 8 is_stmt 1               @ lvgl/src/lv_core/lv_group.c:216:8
	ldr	r0, [sp, #16]
	.loc	5 216 11 is_stmt 0              @ lvgl/src/lv_core/lv_group.c:216:11
	ldr	r0, [r0, #12]
	.loc	5 216 29                        @ lvgl/src/lv_core/lv_group.c:216:29
	cbz	r0, .LBB7_9
	b	.LBB7_7
.LBB7_7:
	.loc	5 216 32                        @ lvgl/src/lv_core/lv_group.c:216:32
	ldr	r0, [sp, #20]
	.loc	5 216 40                        @ lvgl/src/lv_core/lv_group.c:216:40
	ldr	r1, [sp, #16]
	.loc	5 216 43                        @ lvgl/src/lv_core/lv_group.c:216:43
	ldr	r1, [r1, #12]
	.loc	5 216 39                        @ lvgl/src/lv_core/lv_group.c:216:39
	ldr	r1, [r1]
.Ltmp110:
	.loc	5 216 8                         @ lvgl/src/lv_core/lv_group.c:216:8
	cmp	r0, r1
	bne	.LBB7_9
	b	.LBB7_8
.LBB7_8:
.Ltmp111:
	.loc	5 216 54                        @ lvgl/src/lv_core/lv_group.c:216:54
	b	.LBB7_25
.Ltmp112:
.LBB7_9:
	.loc	5 219 26 is_stmt 1              @ lvgl/src/lv_core/lv_group.c:219:26
	ldr	r0, [sp, #16]
	movs	r1, #0
	.loc	5 219 5 is_stmt 0               @ lvgl/src/lv_core/lv_group.c:219:5
	bl	lv_group_set_editing
.Ltmp113:
	.loc	5 222 5 is_stmt 1               @ lvgl/src/lv_core/lv_group.c:222:5
	ldr	r0, [sp, #16]
	bl	_lv_ll_get_head
	str	r0, [sp, #12]
	b	.LBB7_10
.LBB7_10:                               @ =>This Inner Loop Header: Depth=1
.Ltmp114:
	.loc	5 222 5 is_stmt 0               @ lvgl/src/lv_core/lv_group.c:222:5
	ldr	r0, [sp, #12]
.Ltmp115:
	.loc	5 222 5                         @ lvgl/src/lv_core/lv_group.c:222:5
	cmp	r0, #0
	beq	.LBB7_25
	b	.LBB7_11
.LBB7_11:                               @   in Loop: Header=BB7_10 Depth=1
.Ltmp116:
	.loc	5 223 13 is_stmt 1              @ lvgl/src/lv_core/lv_group.c:223:13
	ldr	r0, [sp, #12]
	.loc	5 223 12 is_stmt 0              @ lvgl/src/lv_core/lv_group.c:223:12
	ldr	r0, [r0]
	.loc	5 223 18                        @ lvgl/src/lv_core/lv_group.c:223:18
	ldr	r1, [sp, #20]
.Ltmp117:
	.loc	5 223 12                        @ lvgl/src/lv_core/lv_group.c:223:12
	cmp	r0, r1
	bne	.LBB7_23
	b	.LBB7_12
.LBB7_12:
.Ltmp118:
	.loc	5 224 16 is_stmt 1              @ lvgl/src/lv_core/lv_group.c:224:16
	ldr	r0, [sp, #16]
	.loc	5 224 19 is_stmt 0              @ lvgl/src/lv_core/lv_group.c:224:19
	ldr	r0, [r0, #12]
.Ltmp119:
	.loc	5 224 16                        @ lvgl/src/lv_core/lv_group.c:224:16
	cbz	r0, .LBB7_16
	b	.LBB7_13
.LBB7_13:
.Ltmp120:
	.loc	5 225 19 is_stmt 1              @ lvgl/src/lv_core/lv_group.c:225:19
	ldr	r0, [sp, #16]
	.loc	5 225 22 is_stmt 0              @ lvgl/src/lv_core/lv_group.c:225:22
	ldr	r0, [r0, #12]
	.loc	5 225 18                        @ lvgl/src/lv_core/lv_group.c:225:18
	ldr	r0, [r0]
	.loc	5 225 34                        @ lvgl/src/lv_core/lv_group.c:225:34
	ldr	r3, [r0, #28]
	movs	r1, #23
	movs	r2, #0
	.loc	5 225 17                        @ lvgl/src/lv_core/lv_group.c:225:17
	str	r2, [sp, #4]                    @ 4-byte Spill
	blx	r3
	ldr	r2, [sp, #4]                    @ 4-byte Reload
	.loc	5 226 47 is_stmt 1              @ lvgl/src/lv_core/lv_group.c:226:47
	ldr	r0, [sp, #16]
	.loc	5 226 50 is_stmt 0              @ lvgl/src/lv_core/lv_group.c:226:50
	ldr	r0, [r0, #12]
	.loc	5 226 46                        @ lvgl/src/lv_core/lv_group.c:226:46
	ldr	r0, [r0]
	movs	r1, #14
	.loc	5 226 32                        @ lvgl/src/lv_core/lv_group.c:226:32
	bl	lv_event_send
	.loc	5 226 26                        @ lvgl/src/lv_core/lv_group.c:226:26
	strb.w	r0, [sp, #11]
.Ltmp121:
	.loc	5 227 20 is_stmt 1              @ lvgl/src/lv_core/lv_group.c:227:20
	ldrb.w	r0, [sp, #11]
.Ltmp122:
	.loc	5 227 20 is_stmt 0              @ lvgl/src/lv_core/lv_group.c:227:20
	cmp	r0, #1
	beq	.LBB7_15
	b	.LBB7_14
.LBB7_14:
.Ltmp123:
	.loc	5 227 38                        @ lvgl/src/lv_core/lv_group.c:227:38
	b	.LBB7_25
.Ltmp124:
.LBB7_15:
	.loc	5 228 36 is_stmt 1              @ lvgl/src/lv_core/lv_group.c:228:36
	ldr	r0, [sp, #16]
	.loc	5 228 39 is_stmt 0              @ lvgl/src/lv_core/lv_group.c:228:39
	ldr	r0, [r0, #12]
	.loc	5 228 35                        @ lvgl/src/lv_core/lv_group.c:228:35
	ldr	r0, [r0]
	.loc	5 228 17                        @ lvgl/src/lv_core/lv_group.c:228:17
	bl	lv_obj_invalidate
	.loc	5 229 13 is_stmt 1              @ lvgl/src/lv_core/lv_group.c:229:13
	b	.LBB7_16
.Ltmp125:
.LBB7_16:
	.loc	5 231 28                        @ lvgl/src/lv_core/lv_group.c:231:28
	ldr	r0, [sp, #12]
	.loc	5 231 13 is_stmt 0              @ lvgl/src/lv_core/lv_group.c:231:13
	ldr	r1, [sp, #16]
	.loc	5 231 26                        @ lvgl/src/lv_core/lv_group.c:231:26
	str	r0, [r1, #12]
.Ltmp126:
	.loc	5 233 16 is_stmt 1              @ lvgl/src/lv_core/lv_group.c:233:16
	ldr	r0, [sp, #16]
	.loc	5 233 19 is_stmt 0              @ lvgl/src/lv_core/lv_group.c:233:19
	ldr	r0, [r0, #12]
.Ltmp127:
	.loc	5 233 16                        @ lvgl/src/lv_core/lv_group.c:233:16
	cbz	r0, .LBB7_22
	b	.LBB7_17
.LBB7_17:
.Ltmp128:
	.loc	5 234 19 is_stmt 1              @ lvgl/src/lv_core/lv_group.c:234:19
	ldr	r0, [sp, #16]
	.loc	5 234 22 is_stmt 0              @ lvgl/src/lv_core/lv_group.c:234:22
	ldr	r0, [r0, #12]
	.loc	5 234 18                        @ lvgl/src/lv_core/lv_group.c:234:18
	ldr	r0, [r0]
	.loc	5 234 34                        @ lvgl/src/lv_core/lv_group.c:234:34
	ldr	r3, [r0, #28]
	movs	r1, #22
	movs	r2, #0
	.loc	5 234 17                        @ lvgl/src/lv_core/lv_group.c:234:17
	blx	r3
.Ltmp129:
	.loc	5 235 20 is_stmt 1              @ lvgl/src/lv_core/lv_group.c:235:20
	ldr	r0, [sp, #16]
	.loc	5 235 23 is_stmt 0              @ lvgl/src/lv_core/lv_group.c:235:23
	ldr	r0, [r0, #16]
.Ltmp130:
	.loc	5 235 20                        @ lvgl/src/lv_core/lv_group.c:235:20
	cbz	r0, .LBB7_19
	b	.LBB7_18
.LBB7_18:
.Ltmp131:
	.loc	5 235 33                        @ lvgl/src/lv_core/lv_group.c:235:33
	ldr	r0, [sp, #16]
	.loc	5 235 36                        @ lvgl/src/lv_core/lv_group.c:235:36
	ldr	r1, [r0, #16]
	.loc	5 235 33                        @ lvgl/src/lv_core/lv_group.c:235:33
	blx	r1
	b	.LBB7_19
.Ltmp132:
.LBB7_19:
	.loc	5 236 47 is_stmt 1              @ lvgl/src/lv_core/lv_group.c:236:47
	ldr	r0, [sp, #16]
	.loc	5 236 50 is_stmt 0              @ lvgl/src/lv_core/lv_group.c:236:50
	ldr	r0, [r0, #12]
	.loc	5 236 46                        @ lvgl/src/lv_core/lv_group.c:236:46
	ldr	r0, [r0]
	movs	r1, #13
	movs	r2, #0
	.loc	5 236 32                        @ lvgl/src/lv_core/lv_group.c:236:32
	bl	lv_event_send
	.loc	5 236 26                        @ lvgl/src/lv_core/lv_group.c:236:26
	strb.w	r0, [sp, #10]
.Ltmp133:
	.loc	5 237 20 is_stmt 1              @ lvgl/src/lv_core/lv_group.c:237:20
	ldrb.w	r0, [sp, #10]
.Ltmp134:
	.loc	5 237 20 is_stmt 0              @ lvgl/src/lv_core/lv_group.c:237:20
	cmp	r0, #1
	beq	.LBB7_21
	b	.LBB7_20
.LBB7_20:
.Ltmp135:
	.loc	5 237 38                        @ lvgl/src/lv_core/lv_group.c:237:38
	b	.LBB7_25
.Ltmp136:
.LBB7_21:
	.loc	5 238 36 is_stmt 1              @ lvgl/src/lv_core/lv_group.c:238:36
	ldr	r0, [sp, #16]
	.loc	5 238 39 is_stmt 0              @ lvgl/src/lv_core/lv_group.c:238:39
	ldr	r0, [r0, #12]
	.loc	5 238 35                        @ lvgl/src/lv_core/lv_group.c:238:35
	ldr	r0, [r0]
	.loc	5 238 17                        @ lvgl/src/lv_core/lv_group.c:238:17
	bl	lv_obj_invalidate
	.loc	5 241 36 is_stmt 1              @ lvgl/src/lv_core/lv_group.c:241:36
	ldr	r0, [sp, #16]
	.loc	5 241 39 is_stmt 0              @ lvgl/src/lv_core/lv_group.c:241:39
	ldr	r0, [r0, #12]
	.loc	5 241 35                        @ lvgl/src/lv_core/lv_group.c:241:35
	ldr	r0, [r0]
	.loc	5 241 17                        @ lvgl/src/lv_core/lv_group.c:241:17
	bl	obj_to_foreground
	.loc	5 242 13 is_stmt 1              @ lvgl/src/lv_core/lv_group.c:242:13
	b	.LBB7_22
.Ltmp137:
.LBB7_22:
	.loc	5 243 13                        @ lvgl/src/lv_core/lv_group.c:243:13
	b	.LBB7_25
.Ltmp138:
.LBB7_23:                               @   in Loop: Header=BB7_10 Depth=1
	.loc	5 245 5                         @ lvgl/src/lv_core/lv_group.c:245:5
	b	.LBB7_24
.Ltmp139:
.LBB7_24:                               @   in Loop: Header=BB7_10 Depth=1
	.loc	5 222 5                         @ lvgl/src/lv_core/lv_group.c:222:5
	ldr	r0, [sp, #16]
	ldr	r1, [sp, #12]
	bl	_lv_ll_get_next
	str	r0, [sp, #12]
	b	.LBB7_10
.Ltmp140:
.LBB7_25:
	.loc	5 246 1                         @ lvgl/src/lv_core/lv_group.c:246:1
	add	sp, #24
	pop	{r7, pc}
.Ltmp141:
.Lfunc_end7:
	.size	lv_group_focus_obj, .Lfunc_end7-lv_group_focus_obj
	.cfi_endproc
	.cantunwind
	.fnend
                                        @ -- End function
	.section	.text.lv_group_set_editing,"ax",%progbits
	.hidden	lv_group_set_editing            @ -- Begin function lv_group_set_editing
	.globl	lv_group_set_editing
	.p2align	3
	.type	lv_group_set_editing,%function
	.code	16                              @ @lv_group_set_editing
	.thumb_func
lv_group_set_editing:
.Lfunc_begin8:
	.loc	5 317 0                         @ lvgl/src/lv_core/lv_group.c:317:0
	.fnstart
	.cfi_startproc
@ %bb.0:
	.save	{r7, lr}
	push	{r7, lr}
	.cfi_def_cfa_offset 8
	.cfi_offset lr, -4
	.cfi_offset r7, -8
	.pad	#24
	sub	sp, #24
	.cfi_def_cfa_offset 32
                                        @ kill: def $r2 killed $r1
	str	r0, [sp, #20]
	strb.w	r1, [sp, #19]
.Ltmp142:
	.loc	5 318 8 prologue_end            @ lvgl/src/lv_core/lv_group.c:318:8
	ldr	r0, [sp, #20]
.Ltmp143:
	.loc	5 318 8 is_stmt 0               @ lvgl/src/lv_core/lv_group.c:318:8
	cbnz	r0, .LBB8_2
	b	.LBB8_1
.LBB8_1:
.Ltmp144:
	.loc	5 318 23                        @ lvgl/src/lv_core/lv_group.c:318:23
	b	.LBB8_8
.Ltmp145:
.LBB8_2:
	.loc	5 319 22 is_stmt 1              @ lvgl/src/lv_core/lv_group.c:319:22
	ldrb.w	r0, [sp, #19]
	and	r0, r0, #1
	.loc	5 319 13 is_stmt 0              @ lvgl/src/lv_core/lv_group.c:319:13
	strb.w	r0, [sp, #18]
.Ltmp146:
	.loc	5 321 8 is_stmt 1               @ lvgl/src/lv_core/lv_group.c:321:8
	ldrb.w	r0, [sp, #18]
	.loc	5 321 18 is_stmt 0              @ lvgl/src/lv_core/lv_group.c:321:18
	ldr	r1, [sp, #20]
	.loc	5 321 25                        @ lvgl/src/lv_core/lv_group.c:321:25
	ldrb	r1, [r1, #20]
	ubfx	r1, r1, #1, #1
.Ltmp147:
	.loc	5 321 8                         @ lvgl/src/lv_core/lv_group.c:321:8
	cmp	r0, r1
	bne	.LBB8_4
	b	.LBB8_3
.LBB8_3:
.Ltmp148:
	.loc	5 321 34                        @ lvgl/src/lv_core/lv_group.c:321:34
	b	.LBB8_8
.Ltmp149:
.LBB8_4:
	.loc	5 323 26 is_stmt 1              @ lvgl/src/lv_core/lv_group.c:323:26
	ldrb.w	r2, [sp, #18]
	.loc	5 323 5 is_stmt 0               @ lvgl/src/lv_core/lv_group.c:323:5
	ldr	r1, [sp, #20]
	.loc	5 323 24                        @ lvgl/src/lv_core/lv_group.c:323:24
	ldrb	r0, [r1, #20]
	and	r2, r2, #1
	and	r0, r0, #253
	orr.w	r0, r0, r2, lsl #1
	strb	r0, [r1, #20]
	.loc	5 324 47 is_stmt 1              @ lvgl/src/lv_core/lv_group.c:324:47
	ldr	r0, [sp, #20]
	.loc	5 324 26 is_stmt 0              @ lvgl/src/lv_core/lv_group.c:324:26
	bl	lv_group_get_focused
	.loc	5 324 16                        @ lvgl/src/lv_core/lv_group.c:324:16
	str	r0, [sp, #12]
.Ltmp150:
	.loc	5 326 8 is_stmt 1               @ lvgl/src/lv_core/lv_group.c:326:8
	ldr	r0, [sp, #12]
.Ltmp151:
	.loc	5 326 8 is_stmt 0               @ lvgl/src/lv_core/lv_group.c:326:8
	cbz	r0, .LBB8_8
	b	.LBB8_5
.LBB8_5:
.Ltmp152:
	.loc	5 327 9 is_stmt 1               @ lvgl/src/lv_core/lv_group.c:327:9
	ldr	r0, [sp, #12]
	.loc	5 327 18 is_stmt 0              @ lvgl/src/lv_core/lv_group.c:327:18
	ldr	r3, [r0, #28]
	movs	r1, #22
	movs	r2, #0
	.loc	5 327 9                         @ lvgl/src/lv_core/lv_group.c:327:9
	str	r2, [sp, #4]                    @ 4-byte Spill
	blx	r3
	ldr	r2, [sp, #4]                    @ 4-byte Reload
	.loc	5 328 39 is_stmt 1              @ lvgl/src/lv_core/lv_group.c:328:39
	ldr	r0, [sp, #20]
	.loc	5 328 46 is_stmt 0              @ lvgl/src/lv_core/lv_group.c:328:46
	ldr	r0, [r0, #12]
	.loc	5 328 38                        @ lvgl/src/lv_core/lv_group.c:328:38
	ldr	r0, [r0]
	movs	r1, #13
	.loc	5 328 24                        @ lvgl/src/lv_core/lv_group.c:328:24
	bl	lv_event_send
	.loc	5 328 18                        @ lvgl/src/lv_core/lv_group.c:328:18
	strb.w	r0, [sp, #11]
.Ltmp153:
	.loc	5 329 12 is_stmt 1              @ lvgl/src/lv_core/lv_group.c:329:12
	ldrb.w	r0, [sp, #11]
.Ltmp154:
	.loc	5 329 12 is_stmt 0              @ lvgl/src/lv_core/lv_group.c:329:12
	cmp	r0, #1
	beq	.LBB8_7
	b	.LBB8_6
.LBB8_6:
.Ltmp155:
	.loc	5 329 30                        @ lvgl/src/lv_core/lv_group.c:329:30
	b	.LBB8_8
.Ltmp156:
.LBB8_7:
	.loc	5 331 27 is_stmt 1              @ lvgl/src/lv_core/lv_group.c:331:27
	ldr	r0, [sp, #12]
	.loc	5 331 9 is_stmt 0               @ lvgl/src/lv_core/lv_group.c:331:9
	bl	lv_obj_invalidate
	.loc	5 332 5 is_stmt 1               @ lvgl/src/lv_core/lv_group.c:332:5
	b	.LBB8_8
.Ltmp157:
.LBB8_8:
	.loc	5 333 1                         @ lvgl/src/lv_core/lv_group.c:333:1
	add	sp, #24
	pop	{r7, pc}
.Ltmp158:
.Lfunc_end8:
	.size	lv_group_set_editing, .Lfunc_end8-lv_group_set_editing
	.cfi_endproc
	.cantunwind
	.fnend
                                        @ -- End function
	.section	.text.obj_to_foreground,"ax",%progbits
	.p2align	3                               @ -- Begin function obj_to_foreground
	.type	obj_to_foreground,%function
	.code	16                              @ @obj_to_foreground
	.thumb_func
obj_to_foreground:
.Lfunc_begin9:
	.loc	5 516 0                         @ lvgl/src/lv_core/lv_group.c:516:0
	.fnstart
	.cfi_startproc
@ %bb.0:
	.save	{r7, lr}
	push	{r7, lr}
	.cfi_def_cfa_offset 8
	.cfi_offset lr, -4
	.cfi_offset r7, -8
	.pad	#16
	sub	sp, #16
	.cfi_def_cfa_offset 24
	str	r0, [sp, #12]
.Ltmp159:
	.loc	5 518 27 prologue_end           @ lvgl/src/lv_core/lv_group.c:518:27
	ldr	r0, [sp, #12]
	.loc	5 518 16 is_stmt 0              @ lvgl/src/lv_core/lv_group.c:518:16
	str	r0, [sp, #8]
	movs	r0, #0
	.loc	5 519 16 is_stmt 1              @ lvgl/src/lv_core/lv_group.c:519:16
	str	r0, [sp, #4]
	.loc	5 520 5                         @ lvgl/src/lv_core/lv_group.c:520:5
	b	.LBB9_1
.LBB9_1:                                @ =>This Inner Loop Header: Depth=1
	.loc	5 520 11 is_stmt 0              @ lvgl/src/lv_core/lv_group.c:520:11
	ldr	r0, [sp, #8]
	.loc	5 520 5                         @ lvgl/src/lv_core/lv_group.c:520:5
	cbz	r0, .LBB9_5
	b	.LBB9_2
.LBB9_2:                                @   in Loop: Header=BB9_1 Depth=1
.Ltmp160:
	.loc	5 521 12 is_stmt 1              @ lvgl/src/lv_core/lv_group.c:521:12
	ldr	r0, [sp, #8]
	.loc	5 521 15 is_stmt 0              @ lvgl/src/lv_core/lv_group.c:521:15
	ldrb.w	r0, [r0, #52]
	lsrs	r0, r0, #5
.Ltmp161:
	.loc	5 521 12                        @ lvgl/src/lv_core/lv_group.c:521:12
	lsls	r0, r0, #31
	cbz	r0, .LBB9_4
	b	.LBB9_3
.LBB9_3:                                @   in Loop: Header=BB9_1 Depth=1
.Ltmp162:
	.loc	5 521 36                        @ lvgl/src/lv_core/lv_group.c:521:36
	ldr	r0, [sp, #8]
	.loc	5 521 34                        @ lvgl/src/lv_core/lv_group.c:521:34
	str	r0, [sp, #4]
	.loc	5 521 25                        @ lvgl/src/lv_core/lv_group.c:521:25
	b	.LBB9_4
.Ltmp163:
.LBB9_4:                                @   in Loop: Header=BB9_1 Depth=1
	.loc	5 522 31 is_stmt 1              @ lvgl/src/lv_core/lv_group.c:522:31
	ldr	r0, [sp, #8]
	.loc	5 522 13 is_stmt 0              @ lvgl/src/lv_core/lv_group.c:522:13
	bl	lv_obj_get_parent
	.loc	5 522 11                        @ lvgl/src/lv_core/lv_group.c:522:11
	str	r0, [sp, #8]
.Ltmp164:
	.loc	5 520 5 is_stmt 1               @ lvgl/src/lv_core/lv_group.c:520:5
	b	.LBB9_1
.LBB9_5:
.Ltmp165:
	.loc	5 525 8                         @ lvgl/src/lv_core/lv_group.c:525:8
	ldr	r0, [sp, #4]
.Ltmp166:
	.loc	5 525 8 is_stmt 0               @ lvgl/src/lv_core/lv_group.c:525:8
	cbz	r0, .LBB9_7
	b	.LBB9_6
.LBB9_6:
.Ltmp167:
	.loc	5 527 32 is_stmt 1              @ lvgl/src/lv_core/lv_group.c:527:32
	ldr	r0, [sp, #4]
	.loc	5 527 9 is_stmt 0               @ lvgl/src/lv_core/lv_group.c:527:9
	bl	lv_obj_move_foreground
	.loc	5 528 5 is_stmt 1               @ lvgl/src/lv_core/lv_group.c:528:5
	b	.LBB9_7
.Ltmp168:
.LBB9_7:
	.loc	5 529 1                         @ lvgl/src/lv_core/lv_group.c:529:1
	add	sp, #16
	pop	{r7, pc}
.Ltmp169:
.Lfunc_end9:
	.size	obj_to_foreground, .Lfunc_end9-obj_to_foreground
	.cfi_endproc
	.cantunwind
	.fnend
                                        @ -- End function
	.section	.text.lv_group_focus_next,"ax",%progbits
	.hidden	lv_group_focus_next             @ -- Begin function lv_group_focus_next
	.globl	lv_group_focus_next
	.p2align	3
	.type	lv_group_focus_next,%function
	.code	16                              @ @lv_group_focus_next
	.thumb_func
lv_group_focus_next:
.Lfunc_begin10:
	.loc	5 253 0                         @ lvgl/src/lv_core/lv_group.c:253:0
	.fnstart
	.cfi_startproc
@ %bb.0:
	.save	{r7, lr}
	push	{r7, lr}
	.cfi_def_cfa_offset 8
	.cfi_offset lr, -4
	.cfi_offset r7, -8
	.pad	#8
	sub	sp, #8
	.cfi_def_cfa_offset 16
	str	r0, [sp, #4]
.Ltmp170:
	.loc	5 254 21 prologue_end           @ lvgl/src/lv_core/lv_group.c:254:21
	ldr	r0, [sp, #4]
	.loc	5 254 5 is_stmt 0               @ lvgl/src/lv_core/lv_group.c:254:5
	movw	r1, :lower16:_lv_ll_get_head
	movt	r1, :upper16:_lv_ll_get_head
	movw	r2, :lower16:_lv_ll_get_next
	movt	r2, :upper16:_lv_ll_get_next
	bl	focus_next_core
	.loc	5 255 1 is_stmt 1               @ lvgl/src/lv_core/lv_group.c:255:1
	add	sp, #8
	pop	{r7, pc}
.Ltmp171:
.Lfunc_end10:
	.size	lv_group_focus_next, .Lfunc_end10-lv_group_focus_next
	.cfi_endproc
	.cantunwind
	.fnend
                                        @ -- End function
	.section	.text.focus_next_core,"ax",%progbits
	.p2align	3                               @ -- Begin function focus_next_core
	.type	focus_next_core,%function
	.code	16                              @ @focus_next_core
	.thumb_func
focus_next_core:
.Lfunc_begin11:
	.loc	5 449 0                         @ lvgl/src/lv_core/lv_group.c:449:0
	.fnstart
	.cfi_startproc
@ %bb.0:
	.save	{r7, lr}
	push	{r7, lr}
	.cfi_def_cfa_offset 8
	.cfi_offset lr, -4
	.cfi_offset r7, -8
	.pad	#32
	sub	sp, #32
	.cfi_def_cfa_offset 40
	str	r0, [sp, #28]
	str	r1, [sp, #24]
	str	r2, [sp, #20]
.Ltmp172:
	.loc	5 450 8 prologue_end            @ lvgl/src/lv_core/lv_group.c:450:8
	ldr	r0, [sp, #28]
	.loc	5 450 15 is_stmt 0              @ lvgl/src/lv_core/lv_group.c:450:15
	ldrb	r0, [r0, #20]
.Ltmp173:
	.loc	5 450 8                         @ lvgl/src/lv_core/lv_group.c:450:8
	lsls	r0, r0, #31
	cbz	r0, .LBB11_2
	b	.LBB11_1
.LBB11_1:
.Ltmp174:
	.loc	5 450 23                        @ lvgl/src/lv_core/lv_group.c:450:23
	b	.LBB11_36
.Ltmp175:
.LBB11_2:
	.loc	5 452 32 is_stmt 1              @ lvgl/src/lv_core/lv_group.c:452:32
	ldr	r0, [sp, #28]
	.loc	5 452 39 is_stmt 0              @ lvgl/src/lv_core/lv_group.c:452:39
	ldr	r0, [r0, #12]
	.loc	5 452 17                        @ lvgl/src/lv_core/lv_group.c:452:17
	str	r0, [sp, #16]
	movs	r0, #0
	.loc	5 453 17 is_stmt 1              @ lvgl/src/lv_core/lv_group.c:453:17
	str	r0, [sp, #12]
	movs	r0, #1
	.loc	5 454 10                        @ lvgl/src/lv_core/lv_group.c:454:10
	strb.w	r0, [sp, #11]
	.loc	5 455 10                        @ lvgl/src/lv_core/lv_group.c:455:10
	strb.w	r0, [sp, #10]
	.loc	5 457 5                         @ lvgl/src/lv_core/lv_group.c:457:5
	b	.LBB11_3
.LBB11_3:                               @ =>This Inner Loop Header: Depth=1
.Ltmp176:
	.loc	5 458 12                        @ lvgl/src/lv_core/lv_group.c:458:12
	ldr	r0, [sp, #16]
.Ltmp177:
	.loc	5 458 12 is_stmt 0              @ lvgl/src/lv_core/lv_group.c:458:12
	cbnz	r0, .LBB11_11
	b	.LBB11_4
.LBB11_4:                               @   in Loop: Header=BB11_3 Depth=1
.Ltmp178:
	.loc	5 459 16 is_stmt 1              @ lvgl/src/lv_core/lv_group.c:459:16
	ldr	r0, [sp, #28]
	.loc	5 459 23 is_stmt 0              @ lvgl/src/lv_core/lv_group.c:459:23
	ldrb	r0, [r0, #20]
	lsrs	r0, r0, #4
	.loc	5 459 28                        @ lvgl/src/lv_core/lv_group.c:459:28
	lsls	r0, r0, #31
	cbnz	r0, .LBB11_6
	b	.LBB11_5
.LBB11_5:                               @   in Loop: Header=BB11_3 Depth=1
	.loc	5 459 31                        @ lvgl/src/lv_core/lv_group.c:459:31
	ldr	r0, [sp, #12]
.Ltmp179:
	.loc	5 459 16                        @ lvgl/src/lv_core/lv_group.c:459:16
	cbnz	r0, .LBB11_9
	b	.LBB11_6
.LBB11_6:                               @   in Loop: Header=BB11_3 Depth=1
.Ltmp180:
	.loc	5 460 21 is_stmt 1              @ lvgl/src/lv_core/lv_group.c:460:21
	ldrb.w	r0, [sp, #10]
.Ltmp181:
	.loc	5 460 20 is_stmt 0              @ lvgl/src/lv_core/lv_group.c:460:20
	lsls	r0, r0, #31
	cbnz	r0, .LBB11_8
	b	.LBB11_7
.LBB11_7:
.Ltmp182:
	.loc	5 460 32                        @ lvgl/src/lv_core/lv_group.c:460:32
	b	.LBB11_36
.Ltmp183:
.LBB11_8:                               @   in Loop: Header=BB11_3 Depth=1
	.loc	5 461 29 is_stmt 1              @ lvgl/src/lv_core/lv_group.c:461:29
	ldr	r1, [sp, #24]
	.loc	5 461 36 is_stmt 0              @ lvgl/src/lv_core/lv_group.c:461:36
	ldr	r0, [sp, #28]
	.loc	5 461 29                        @ lvgl/src/lv_core/lv_group.c:461:29
	blx	r1
	.loc	5 461 27                        @ lvgl/src/lv_core/lv_group.c:461:27
	str	r0, [sp, #16]
	movs	r0, #0
	.loc	5 462 27 is_stmt 1              @ lvgl/src/lv_core/lv_group.c:462:27
	strb.w	r0, [sp, #11]
	.loc	5 463 27                        @ lvgl/src/lv_core/lv_group.c:463:27
	strb.w	r0, [sp, #10]
	.loc	5 464 13                        @ lvgl/src/lv_core/lv_group.c:464:13
	b	.LBB11_10
.Ltmp184:
.LBB11_9:
	.loc	5 467 17                        @ lvgl/src/lv_core/lv_group.c:467:17
	b	.LBB11_36
.Ltmp185:
.LBB11_10:                              @   in Loop: Header=BB11_3 Depth=1
	.loc	5 469 9                         @ lvgl/src/lv_core/lv_group.c:469:9
	b	.LBB11_11
.Ltmp186:
.LBB11_11:                              @   in Loop: Header=BB11_3 Depth=1
	.loc	5 471 12                        @ lvgl/src/lv_core/lv_group.c:471:12
	ldr	r0, [sp, #12]
.Ltmp187:
	.loc	5 471 12 is_stmt 0              @ lvgl/src/lv_core/lv_group.c:471:12
	cbnz	r0, .LBB11_15
	b	.LBB11_12
.LBB11_12:                              @   in Loop: Header=BB11_3 Depth=1
.Ltmp188:
	.loc	5 472 28 is_stmt 1              @ lvgl/src/lv_core/lv_group.c:472:28
	ldr	r0, [sp, #16]
	.loc	5 472 26 is_stmt 0              @ lvgl/src/lv_core/lv_group.c:472:26
	str	r0, [sp, #12]
.Ltmp189:
	.loc	5 473 16 is_stmt 1              @ lvgl/src/lv_core/lv_group.c:473:16
	ldr	r0, [sp, #12]
.Ltmp190:
	.loc	5 473 16 is_stmt 0              @ lvgl/src/lv_core/lv_group.c:473:16
	cbnz	r0, .LBB11_14
	b	.LBB11_13
.LBB11_13:
.Ltmp191:
	.loc	5 473 38                        @ lvgl/src/lv_core/lv_group.c:473:38
	b	.LBB11_36
.Ltmp192:
.LBB11_14:                              @   in Loop: Header=BB11_3 Depth=1
	.loc	5 474 9 is_stmt 1               @ lvgl/src/lv_core/lv_group.c:474:9
	b	.LBB11_15
.Ltmp193:
.LBB11_15:                              @   in Loop: Header=BB11_3 Depth=1
	.loc	5 476 12                        @ lvgl/src/lv_core/lv_group.c:476:12
	ldrb.w	r0, [sp, #11]
.Ltmp194:
	.loc	5 476 12 is_stmt 0              @ lvgl/src/lv_core/lv_group.c:476:12
	lsls	r0, r0, #31
	cbz	r0, .LBB11_19
	b	.LBB11_16
.LBB11_16:                              @   in Loop: Header=BB11_3 Depth=1
.Ltmp195:
	.loc	5 477 24 is_stmt 1              @ lvgl/src/lv_core/lv_group.c:477:24
	ldr	r2, [sp, #20]
	.loc	5 477 30 is_stmt 0              @ lvgl/src/lv_core/lv_group.c:477:30
	ldr	r0, [sp, #28]
	.loc	5 477 45                        @ lvgl/src/lv_core/lv_group.c:477:45
	ldr	r1, [sp, #16]
	.loc	5 477 24                        @ lvgl/src/lv_core/lv_group.c:477:24
	blx	r2
	.loc	5 477 22                        @ lvgl/src/lv_core/lv_group.c:477:22
	str	r0, [sp, #16]
.Ltmp196:
	.loc	5 480 16 is_stmt 1              @ lvgl/src/lv_core/lv_group.c:480:16
	ldr	r0, [sp, #16]
	.loc	5 480 28 is_stmt 0              @ lvgl/src/lv_core/lv_group.c:480:28
	ldr	r1, [sp, #12]
.Ltmp197:
	.loc	5 480 16                        @ lvgl/src/lv_core/lv_group.c:480:16
	cmp	r0, r1
	bne	.LBB11_18
	b	.LBB11_17
.LBB11_17:
.Ltmp198:
	.loc	5 480 42                        @ lvgl/src/lv_core/lv_group.c:480:42
	b	.LBB11_36
.Ltmp199:
.LBB11_18:                              @   in Loop: Header=BB11_3 Depth=1
	.loc	5 481 9 is_stmt 1               @ lvgl/src/lv_core/lv_group.c:481:9
	b	.LBB11_19
.Ltmp200:
.LBB11_19:                              @   in Loop: Header=BB11_3 Depth=1
	.loc	5 0 9 is_stmt 0                 @ lvgl/src/lv_core/lv_group.c:0:9
	movs	r0, #1
	.loc	5 483 18 is_stmt 1              @ lvgl/src/lv_core/lv_group.c:483:18
	strb.w	r0, [sp, #11]
.Ltmp201:
	.loc	5 485 12                        @ lvgl/src/lv_core/lv_group.c:485:12
	ldr	r0, [sp, #16]
.Ltmp202:
	.loc	5 485 12 is_stmt 0              @ lvgl/src/lv_core/lv_group.c:485:12
	cbnz	r0, .LBB11_21
	b	.LBB11_20
.LBB11_20:                              @   in Loop: Header=BB11_3 Depth=1
.Ltmp203:
	.loc	5 485 30                        @ lvgl/src/lv_core/lv_group.c:485:30
	b	.LBB11_3
.Ltmp204:
.LBB11_21:                              @   in Loop: Header=BB11_3 Depth=1
	.loc	5 486 30 is_stmt 1              @ lvgl/src/lv_core/lv_group.c:486:30
	ldr	r0, [sp, #16]
	.loc	5 486 29 is_stmt 0              @ lvgl/src/lv_core/lv_group.c:486:29
	ldr	r0, [r0]
	movs	r1, #0
	.loc	5 486 12                        @ lvgl/src/lv_core/lv_group.c:486:12
	bl	lv_obj_get_state
.Ltmp205:
	.loc	5 486 12                        @ lvgl/src/lv_core/lv_group.c:486:12
	lsls	r0, r0, #26
	cmp	r0, #0
	bpl	.LBB11_23
	b	.LBB11_22
.LBB11_22:                              @   in Loop: Header=BB11_3 Depth=1
.Ltmp206:
	.loc	5 486 79                        @ lvgl/src/lv_core/lv_group.c:486:79
	b	.LBB11_3
.Ltmp207:
.LBB11_23:                              @   in Loop: Header=BB11_3 Depth=1
	.loc	5 489 32 is_stmt 1              @ lvgl/src/lv_core/lv_group.c:489:32
	ldr	r0, [sp, #16]
	.loc	5 489 31 is_stmt 0              @ lvgl/src/lv_core/lv_group.c:489:31
	ldr	r0, [r0]
	.loc	5 489 13                        @ lvgl/src/lv_core/lv_group.c:489:13
	bl	lv_obj_get_hidden
.Ltmp208:
	.loc	5 489 12                        @ lvgl/src/lv_core/lv_group.c:489:12
	cbnz	r0, .LBB11_25
	b	.LBB11_24
.LBB11_24:
.Ltmp209:
	.loc	5 489 43                        @ lvgl/src/lv_core/lv_group.c:489:43
	b	.LBB11_26
.Ltmp210:
.LBB11_25:                              @   in Loop: Header=BB11_3 Depth=1
	.loc	5 457 5 is_stmt 1               @ lvgl/src/lv_core/lv_group.c:457:5
	b	.LBB11_3
.Ltmp211:
.LBB11_26:
	.loc	5 492 8                         @ lvgl/src/lv_core/lv_group.c:492:8
	ldr	r0, [sp, #16]
	.loc	5 492 20 is_stmt 0              @ lvgl/src/lv_core/lv_group.c:492:20
	ldr	r1, [sp, #28]
	.loc	5 492 27                        @ lvgl/src/lv_core/lv_group.c:492:27
	ldr	r1, [r1, #12]
.Ltmp212:
	.loc	5 492 8                         @ lvgl/src/lv_core/lv_group.c:492:8
	cmp	r0, r1
	bne	.LBB11_28
	b	.LBB11_27
.LBB11_27:
.Ltmp213:
	.loc	5 492 38                        @ lvgl/src/lv_core/lv_group.c:492:38
	b	.LBB11_36
.Ltmp214:
.LBB11_28:
	.loc	5 494 8 is_stmt 1               @ lvgl/src/lv_core/lv_group.c:494:8
	ldr	r0, [sp, #28]
	.loc	5 494 15 is_stmt 0              @ lvgl/src/lv_core/lv_group.c:494:15
	ldr	r0, [r0, #12]
.Ltmp215:
	.loc	5 494 8                         @ lvgl/src/lv_core/lv_group.c:494:8
	cbz	r0, .LBB11_32
	b	.LBB11_29
.LBB11_29:
.Ltmp216:
	.loc	5 495 11 is_stmt 1              @ lvgl/src/lv_core/lv_group.c:495:11
	ldr	r0, [sp, #28]
	.loc	5 495 18 is_stmt 0              @ lvgl/src/lv_core/lv_group.c:495:18
	ldr	r0, [r0, #12]
	.loc	5 495 10                        @ lvgl/src/lv_core/lv_group.c:495:10
	ldr	r0, [r0]
	.loc	5 495 30                        @ lvgl/src/lv_core/lv_group.c:495:30
	ldr	r3, [r0, #28]
	movs	r1, #23
	movs	r2, #0
	.loc	5 495 9                         @ lvgl/src/lv_core/lv_group.c:495:9
	str	r2, [sp, #4]                    @ 4-byte Spill
	blx	r3
	ldr	r2, [sp, #4]                    @ 4-byte Reload
	.loc	5 496 39 is_stmt 1              @ lvgl/src/lv_core/lv_group.c:496:39
	ldr	r0, [sp, #28]
	.loc	5 496 46 is_stmt 0              @ lvgl/src/lv_core/lv_group.c:496:46
	ldr	r0, [r0, #12]
	.loc	5 496 38                        @ lvgl/src/lv_core/lv_group.c:496:38
	ldr	r0, [r0]
	movs	r1, #14
	.loc	5 496 24                        @ lvgl/src/lv_core/lv_group.c:496:24
	bl	lv_event_send
	.loc	5 496 18                        @ lvgl/src/lv_core/lv_group.c:496:18
	strb.w	r0, [sp, #9]
.Ltmp217:
	.loc	5 497 12 is_stmt 1              @ lvgl/src/lv_core/lv_group.c:497:12
	ldrb.w	r0, [sp, #9]
.Ltmp218:
	.loc	5 497 12 is_stmt 0              @ lvgl/src/lv_core/lv_group.c:497:12
	cmp	r0, #1
	beq	.LBB11_31
	b	.LBB11_30
.LBB11_30:
.Ltmp219:
	.loc	5 497 30                        @ lvgl/src/lv_core/lv_group.c:497:30
	b	.LBB11_36
.Ltmp220:
.LBB11_31:
	.loc	5 498 28 is_stmt 1              @ lvgl/src/lv_core/lv_group.c:498:28
	ldr	r0, [sp, #28]
	.loc	5 498 35 is_stmt 0              @ lvgl/src/lv_core/lv_group.c:498:35
	ldr	r0, [r0, #12]
	.loc	5 498 27                        @ lvgl/src/lv_core/lv_group.c:498:27
	ldr	r0, [r0]
	.loc	5 498 9                         @ lvgl/src/lv_core/lv_group.c:498:9
	bl	lv_obj_invalidate
	.loc	5 499 5 is_stmt 1               @ lvgl/src/lv_core/lv_group.c:499:5
	b	.LBB11_32
.Ltmp221:
.LBB11_32:
	.loc	5 501 24                        @ lvgl/src/lv_core/lv_group.c:501:24
	ldr	r0, [sp, #16]
	.loc	5 501 5 is_stmt 0               @ lvgl/src/lv_core/lv_group.c:501:5
	ldr	r1, [sp, #28]
	.loc	5 501 22                        @ lvgl/src/lv_core/lv_group.c:501:22
	str	r0, [r1, #12]
	.loc	5 503 7 is_stmt 1               @ lvgl/src/lv_core/lv_group.c:503:7
	ldr	r0, [sp, #28]
	.loc	5 503 14 is_stmt 0              @ lvgl/src/lv_core/lv_group.c:503:14
	ldr	r0, [r0, #12]
	.loc	5 503 6                         @ lvgl/src/lv_core/lv_group.c:503:6
	ldr	r0, [r0]
	.loc	5 503 26                        @ lvgl/src/lv_core/lv_group.c:503:26
	ldr	r3, [r0, #28]
	movs	r1, #22
	movs	r2, #0
	.loc	5 503 5                         @ lvgl/src/lv_core/lv_group.c:503:5
	str	r2, [sp]                        @ 4-byte Spill
	blx	r3
	ldr	r2, [sp]                        @ 4-byte Reload
	.loc	5 504 35 is_stmt 1              @ lvgl/src/lv_core/lv_group.c:504:35
	ldr	r0, [sp, #28]
	.loc	5 504 42 is_stmt 0              @ lvgl/src/lv_core/lv_group.c:504:42
	ldr	r0, [r0, #12]
	.loc	5 504 34                        @ lvgl/src/lv_core/lv_group.c:504:34
	ldr	r0, [r0]
	movs	r1, #13
	.loc	5 504 20                        @ lvgl/src/lv_core/lv_group.c:504:20
	bl	lv_event_send
	.loc	5 504 14                        @ lvgl/src/lv_core/lv_group.c:504:14
	strb.w	r0, [sp, #8]
.Ltmp222:
	.loc	5 505 8 is_stmt 1               @ lvgl/src/lv_core/lv_group.c:505:8
	ldrb.w	r0, [sp, #8]
.Ltmp223:
	.loc	5 505 8 is_stmt 0               @ lvgl/src/lv_core/lv_group.c:505:8
	cmp	r0, #1
	beq	.LBB11_34
	b	.LBB11_33
.LBB11_33:
.Ltmp224:
	.loc	5 505 26                        @ lvgl/src/lv_core/lv_group.c:505:26
	b	.LBB11_36
.Ltmp225:
.LBB11_34:
	.loc	5 508 24 is_stmt 1              @ lvgl/src/lv_core/lv_group.c:508:24
	ldr	r0, [sp, #28]
	.loc	5 508 31 is_stmt 0              @ lvgl/src/lv_core/lv_group.c:508:31
	ldr	r0, [r0, #12]
	.loc	5 508 23                        @ lvgl/src/lv_core/lv_group.c:508:23
	ldr	r0, [r0]
	.loc	5 508 5                         @ lvgl/src/lv_core/lv_group.c:508:5
	bl	obj_to_foreground
	.loc	5 510 24 is_stmt 1              @ lvgl/src/lv_core/lv_group.c:510:24
	ldr	r0, [sp, #28]
	.loc	5 510 31 is_stmt 0              @ lvgl/src/lv_core/lv_group.c:510:31
	ldr	r0, [r0, #12]
	.loc	5 510 23                        @ lvgl/src/lv_core/lv_group.c:510:23
	ldr	r0, [r0]
	.loc	5 510 5                         @ lvgl/src/lv_core/lv_group.c:510:5
	bl	lv_obj_invalidate
.Ltmp226:
	.loc	5 512 8 is_stmt 1               @ lvgl/src/lv_core/lv_group.c:512:8
	ldr	r0, [sp, #28]
	.loc	5 512 15 is_stmt 0              @ lvgl/src/lv_core/lv_group.c:512:15
	ldr	r0, [r0, #16]
.Ltmp227:
	.loc	5 512 8                         @ lvgl/src/lv_core/lv_group.c:512:8
	cbz	r0, .LBB11_36
	b	.LBB11_35
.LBB11_35:
.Ltmp228:
	.loc	5 512 25                        @ lvgl/src/lv_core/lv_group.c:512:25
	ldr	r0, [sp, #28]
	.loc	5 512 32                        @ lvgl/src/lv_core/lv_group.c:512:32
	ldr	r1, [r0, #16]
	.loc	5 512 25                        @ lvgl/src/lv_core/lv_group.c:512:25
	blx	r1
	b	.LBB11_36
.Ltmp229:
.LBB11_36:
	.loc	5 513 1 is_stmt 1               @ lvgl/src/lv_core/lv_group.c:513:1
	add	sp, #32
	pop	{r7, pc}
.Ltmp230:
.Lfunc_end11:
	.size	focus_next_core, .Lfunc_end11-focus_next_core
	.cfi_endproc
	.cantunwind
	.fnend
                                        @ -- End function
	.section	.text.lv_group_focus_prev,"ax",%progbits
	.hidden	lv_group_focus_prev             @ -- Begin function lv_group_focus_prev
	.globl	lv_group_focus_prev
	.p2align	3
	.type	lv_group_focus_prev,%function
	.code	16                              @ @lv_group_focus_prev
	.thumb_func
lv_group_focus_prev:
.Lfunc_begin12:
	.loc	5 262 0                         @ lvgl/src/lv_core/lv_group.c:262:0
	.fnstart
	.cfi_startproc
@ %bb.0:
	.save	{r7, lr}
	push	{r7, lr}
	.cfi_def_cfa_offset 8
	.cfi_offset lr, -4
	.cfi_offset r7, -8
	.pad	#8
	sub	sp, #8
	.cfi_def_cfa_offset 16
	str	r0, [sp, #4]
.Ltmp231:
	.loc	5 263 21 prologue_end           @ lvgl/src/lv_core/lv_group.c:263:21
	ldr	r0, [sp, #4]
	.loc	5 263 5 is_stmt 0               @ lvgl/src/lv_core/lv_group.c:263:5
	movw	r1, :lower16:_lv_ll_get_tail
	movt	r1, :upper16:_lv_ll_get_tail
	movw	r2, :lower16:_lv_ll_get_prev
	movt	r2, :upper16:_lv_ll_get_prev
	bl	focus_next_core
	.loc	5 264 1 is_stmt 1               @ lvgl/src/lv_core/lv_group.c:264:1
	add	sp, #8
	pop	{r7, pc}
.Ltmp232:
.Lfunc_end12:
	.size	lv_group_focus_prev, .Lfunc_end12-lv_group_focus_prev
	.cfi_endproc
	.cantunwind
	.fnend
                                        @ -- End function
	.section	.text.lv_group_focus_freeze,"ax",%progbits
	.hidden	lv_group_focus_freeze           @ -- Begin function lv_group_focus_freeze
	.globl	lv_group_focus_freeze
	.p2align	3
	.type	lv_group_focus_freeze,%function
	.code	16                              @ @lv_group_focus_freeze
	.thumb_func
lv_group_focus_freeze:
.Lfunc_begin13:
	.loc	5 272 0                         @ lvgl/src/lv_core/lv_group.c:272:0
	.fnstart
	.cfi_startproc
@ %bb.0:
	.pad	#8
	sub	sp, #8
	.cfi_def_cfa_offset 8
                                        @ kill: def $r2 killed $r1
	str	r0, [sp, #4]
	strb.w	r1, [sp, #3]
.Ltmp233:
	.loc	5 273 8 prologue_end            @ lvgl/src/lv_core/lv_group.c:273:8
	ldrb.w	r0, [sp, #3]
.Ltmp234:
	.loc	5 273 8 is_stmt 0               @ lvgl/src/lv_core/lv_group.c:273:8
	lsls	r0, r0, #31
	cbnz	r0, .LBB13_2
	b	.LBB13_1
.LBB13_1:
.Ltmp235:
	.loc	5 274 9 is_stmt 1               @ lvgl/src/lv_core/lv_group.c:274:9
	ldr	r1, [sp, #4]
	.loc	5 274 23 is_stmt 0              @ lvgl/src/lv_core/lv_group.c:274:23
	ldrb	r0, [r1, #20]
	and	r0, r0, #254
	strb	r0, [r1, #20]
	.loc	5 274 9                         @ lvgl/src/lv_core/lv_group.c:274:9
	b	.LBB13_3
.LBB13_2:
	.loc	5 276 9 is_stmt 1               @ lvgl/src/lv_core/lv_group.c:276:9
	ldr	r1, [sp, #4]
	.loc	5 276 23 is_stmt 0              @ lvgl/src/lv_core/lv_group.c:276:23
	ldrb	r0, [r1, #20]
	orr	r0, r0, #1
	strb	r0, [r1, #20]
	b	.LBB13_3
.Ltmp236:
.LBB13_3:
	.loc	5 277 1 is_stmt 1               @ lvgl/src/lv_core/lv_group.c:277:1
	add	sp, #8
	bx	lr
.Ltmp237:
.Lfunc_end13:
	.size	lv_group_focus_freeze, .Lfunc_end13-lv_group_focus_freeze
	.cfi_endproc
	.cantunwind
	.fnend
                                        @ -- End function
	.section	.text.lv_group_send_data,"ax",%progbits
	.hidden	lv_group_send_data              @ -- Begin function lv_group_send_data
	.globl	lv_group_send_data
	.p2align	3
	.type	lv_group_send_data,%function
	.code	16                              @ @lv_group_send_data
	.thumb_func
lv_group_send_data:
.Lfunc_begin14:
	.loc	5 286 0                         @ lvgl/src/lv_core/lv_group.c:286:0
	.fnstart
	.cfi_startproc
@ %bb.0:
	.save	{r7, lr}
	push	{r7, lr}
	.cfi_def_cfa_offset 8
	.cfi_offset lr, -4
	.cfi_offset r7, -8
	.pad	#24
	sub	sp, #24
	.cfi_def_cfa_offset 32
	str	r0, [sp, #16]
	str	r1, [sp, #12]
.Ltmp238:
	.loc	5 287 43 prologue_end           @ lvgl/src/lv_core/lv_group.c:287:43
	ldr	r0, [sp, #16]
	.loc	5 287 22 is_stmt 0              @ lvgl/src/lv_core/lv_group.c:287:22
	bl	lv_group_get_focused
	.loc	5 287 16                        @ lvgl/src/lv_core/lv_group.c:287:16
	str	r0, [sp, #8]
.Ltmp239:
	.loc	5 288 8 is_stmt 1               @ lvgl/src/lv_core/lv_group.c:288:8
	ldr	r0, [sp, #8]
.Ltmp240:
	.loc	5 288 8 is_stmt 0               @ lvgl/src/lv_core/lv_group.c:288:8
	cbnz	r0, .LBB14_2
	b	.LBB14_1
.LBB14_1:
	.loc	5 0 8                           @ lvgl/src/lv_core/lv_group.c:0:8
	movs	r0, #1
.Ltmp241:
	.loc	5 288 21                        @ lvgl/src/lv_core/lv_group.c:288:21
	strb.w	r0, [sp, #23]
	b	.LBB14_7
.Ltmp242:
.LBB14_2:
	.loc	5 292 11 is_stmt 1              @ lvgl/src/lv_core/lv_group.c:292:11
	ldr	r0, [sp, #8]
	.loc	5 292 16 is_stmt 0              @ lvgl/src/lv_core/lv_group.c:292:16
	ldr	r3, [r0, #28]
	movs	r1, #24
	add	r2, sp, #12
	.loc	5 292 11                        @ lvgl/src/lv_core/lv_group.c:292:11
	blx	r3
	.loc	5 292 9                         @ lvgl/src/lv_core/lv_group.c:292:9
	strb.w	r0, [sp, #7]
.Ltmp243:
	.loc	5 293 8 is_stmt 1               @ lvgl/src/lv_core/lv_group.c:293:8
	ldrb.w	r0, [sp, #7]
.Ltmp244:
	.loc	5 293 8 is_stmt 0               @ lvgl/src/lv_core/lv_group.c:293:8
	cmp	r0, #1
	beq	.LBB14_4
	b	.LBB14_3
.LBB14_3:
.Ltmp245:
	.loc	5 293 33                        @ lvgl/src/lv_core/lv_group.c:293:33
	ldrb.w	r0, [sp, #7]
	.loc	5 293 26                        @ lvgl/src/lv_core/lv_group.c:293:26
	strb.w	r0, [sp, #23]
	b	.LBB14_7
.Ltmp246:
.LBB14_4:
	.loc	5 295 25 is_stmt 1              @ lvgl/src/lv_core/lv_group.c:295:25
	ldr	r0, [sp, #8]
	movs	r1, #12
	add	r2, sp, #12
	.loc	5 295 11 is_stmt 0              @ lvgl/src/lv_core/lv_group.c:295:11
	bl	lv_event_send
	.loc	5 295 9                         @ lvgl/src/lv_core/lv_group.c:295:9
	strb.w	r0, [sp, #7]
.Ltmp247:
	.loc	5 296 8 is_stmt 1               @ lvgl/src/lv_core/lv_group.c:296:8
	ldrb.w	r0, [sp, #7]
.Ltmp248:
	.loc	5 296 8 is_stmt 0               @ lvgl/src/lv_core/lv_group.c:296:8
	cmp	r0, #1
	beq	.LBB14_6
	b	.LBB14_5
.LBB14_5:
.Ltmp249:
	.loc	5 296 33                        @ lvgl/src/lv_core/lv_group.c:296:33
	ldrb.w	r0, [sp, #7]
	.loc	5 296 26                        @ lvgl/src/lv_core/lv_group.c:296:26
	strb.w	r0, [sp, #23]
	b	.LBB14_7
.Ltmp250:
.LBB14_6:
	.loc	5 298 12 is_stmt 1              @ lvgl/src/lv_core/lv_group.c:298:12
	ldrb.w	r0, [sp, #7]
	.loc	5 298 5 is_stmt 0               @ lvgl/src/lv_core/lv_group.c:298:5
	strb.w	r0, [sp, #23]
	b	.LBB14_7
.LBB14_7:
	.loc	5 299 1 is_stmt 1               @ lvgl/src/lv_core/lv_group.c:299:1
	ldrb.w	r0, [sp, #23]
	add	sp, #24
	pop	{r7, pc}
.Ltmp251:
.Lfunc_end14:
	.size	lv_group_send_data, .Lfunc_end14-lv_group_send_data
	.cfi_endproc
	.cantunwind
	.fnend
                                        @ -- End function
	.section	.text.lv_group_get_focused,"ax",%progbits
	.hidden	lv_group_get_focused            @ -- Begin function lv_group_get_focused
	.globl	lv_group_get_focused
	.p2align	3
	.type	lv_group_get_focused,%function
	.code	16                              @ @lv_group_get_focused
	.thumb_func
lv_group_get_focused:
.Lfunc_begin15:
	.loc	5 366 0                         @ lvgl/src/lv_core/lv_group.c:366:0
	.fnstart
	.cfi_startproc
@ %bb.0:
	.pad	#8
	sub	sp, #8
	.cfi_def_cfa_offset 8
	str	r0, [sp]
.Ltmp252:
	.loc	5 367 9 prologue_end            @ lvgl/src/lv_core/lv_group.c:367:9
	ldr	r0, [sp]
.Ltmp253:
	.loc	5 367 8 is_stmt 0               @ lvgl/src/lv_core/lv_group.c:367:8
	cbnz	r0, .LBB15_2
	b	.LBB15_1
.LBB15_1:
	.loc	5 0 8                           @ lvgl/src/lv_core/lv_group.c:0:8
	movs	r0, #0
.Ltmp254:
	.loc	5 367 16                        @ lvgl/src/lv_core/lv_group.c:367:16
	str	r0, [sp, #4]
	b	.LBB15_5
.Ltmp255:
.LBB15_2:
	.loc	5 368 8 is_stmt 1               @ lvgl/src/lv_core/lv_group.c:368:8
	ldr	r0, [sp]
	.loc	5 368 15 is_stmt 0              @ lvgl/src/lv_core/lv_group.c:368:15
	ldr	r0, [r0, #12]
.Ltmp256:
	.loc	5 368 8                         @ lvgl/src/lv_core/lv_group.c:368:8
	cbnz	r0, .LBB15_4
	b	.LBB15_3
.LBB15_3:
	.loc	5 0 8                           @ lvgl/src/lv_core/lv_group.c:0:8
	movs	r0, #0
.Ltmp257:
	.loc	5 368 34                        @ lvgl/src/lv_core/lv_group.c:368:34
	str	r0, [sp, #4]
	b	.LBB15_5
.Ltmp258:
.LBB15_4:
	.loc	5 370 13 is_stmt 1              @ lvgl/src/lv_core/lv_group.c:370:13
	ldr	r0, [sp]
	.loc	5 370 20 is_stmt 0              @ lvgl/src/lv_core/lv_group.c:370:20
	ldr	r0, [r0, #12]
	.loc	5 370 12                        @ lvgl/src/lv_core/lv_group.c:370:12
	ldr	r0, [r0]
	.loc	5 370 5                         @ lvgl/src/lv_core/lv_group.c:370:5
	str	r0, [sp, #4]
	b	.LBB15_5
.LBB15_5:
	.loc	5 371 1 is_stmt 1               @ lvgl/src/lv_core/lv_group.c:371:1
	ldr	r0, [sp, #4]
	add	sp, #8
	bx	lr
.Ltmp259:
.Lfunc_end15:
	.size	lv_group_get_focused, .Lfunc_end15-lv_group_get_focused
	.cfi_endproc
	.cantunwind
	.fnend
                                        @ -- End function
	.section	.text.lv_group_set_focus_cb,"ax",%progbits
	.hidden	lv_group_set_focus_cb           @ -- Begin function lv_group_set_focus_cb
	.globl	lv_group_set_focus_cb
	.p2align	3
	.type	lv_group_set_focus_cb,%function
	.code	16                              @ @lv_group_set_focus_cb
	.thumb_func
lv_group_set_focus_cb:
.Lfunc_begin16:
	.loc	5 307 0                         @ lvgl/src/lv_core/lv_group.c:307:0
	.fnstart
	.cfi_startproc
@ %bb.0:
	.pad	#8
	sub	sp, #8
	.cfi_def_cfa_offset 8
	str	r0, [sp, #4]
	str	r1, [sp]
.Ltmp260:
	.loc	5 308 23 prologue_end           @ lvgl/src/lv_core/lv_group.c:308:23
	ldr	r0, [sp]
	.loc	5 308 5 is_stmt 0               @ lvgl/src/lv_core/lv_group.c:308:5
	ldr	r1, [sp, #4]
	.loc	5 308 21                        @ lvgl/src/lv_core/lv_group.c:308:21
	str	r0, [r1, #16]
	.loc	5 309 1 is_stmt 1               @ lvgl/src/lv_core/lv_group.c:309:1
	add	sp, #8
	bx	lr
.Ltmp261:
.Lfunc_end16:
	.size	lv_group_set_focus_cb, .Lfunc_end16-lv_group_set_focus_cb
	.cfi_endproc
	.cantunwind
	.fnend
                                        @ -- End function
	.section	.text.lv_group_set_click_focus,"ax",%progbits
	.hidden	lv_group_set_click_focus        @ -- Begin function lv_group_set_click_focus
	.globl	lv_group_set_click_focus
	.p2align	3
	.type	lv_group_set_click_focus,%function
	.code	16                              @ @lv_group_set_click_focus
	.thumb_func
lv_group_set_click_focus:
.Lfunc_begin17:
	.loc	5 341 0                         @ lvgl/src/lv_core/lv_group.c:341:0
	.fnstart
	.cfi_startproc
@ %bb.0:
	.pad	#8
	sub	sp, #8
	.cfi_def_cfa_offset 8
                                        @ kill: def $r2 killed $r1
	str	r0, [sp, #4]
	strb.w	r1, [sp, #3]
.Ltmp262:
	.loc	5 342 26 prologue_end           @ lvgl/src/lv_core/lv_group.c:342:26
	ldrb.w	r0, [sp, #3]
	and	r2, r0, #1
	.loc	5 342 5 is_stmt 0               @ lvgl/src/lv_core/lv_group.c:342:5
	ldr	r1, [sp, #4]
	.loc	5 342 24                        @ lvgl/src/lv_core/lv_group.c:342:24
	ldrb	r0, [r1, #20]
	and	r0, r0, #251
	orr.w	r0, r0, r2, lsl #2
	strb	r0, [r1, #20]
	.loc	5 343 1 is_stmt 1               @ lvgl/src/lv_core/lv_group.c:343:1
	add	sp, #8
	bx	lr
.Ltmp263:
.Lfunc_end17:
	.size	lv_group_set_click_focus, .Lfunc_end17-lv_group_set_click_focus
	.cfi_endproc
	.cantunwind
	.fnend
                                        @ -- End function
	.section	.text.lv_group_set_refocus_policy,"ax",%progbits
	.hidden	lv_group_set_refocus_policy     @ -- Begin function lv_group_set_refocus_policy
	.globl	lv_group_set_refocus_policy
	.p2align	3
	.type	lv_group_set_refocus_policy,%function
	.code	16                              @ @lv_group_set_refocus_policy
	.thumb_func
lv_group_set_refocus_policy:
.Lfunc_begin18:
	.loc	5 346 0                         @ lvgl/src/lv_core/lv_group.c:346:0
	.fnstart
	.cfi_startproc
@ %bb.0:
	.pad	#8
	sub	sp, #8
	.cfi_def_cfa_offset 8
                                        @ kill: def $r2 killed $r1
	str	r0, [sp, #4]
	strb.w	r1, [sp, #3]
.Ltmp264:
	.loc	5 347 29 prologue_end           @ lvgl/src/lv_core/lv_group.c:347:29
	ldrb.w	r0, [sp, #3]
	and	r2, r0, #1
	.loc	5 347 5 is_stmt 0               @ lvgl/src/lv_core/lv_group.c:347:5
	ldr	r1, [sp, #4]
	.loc	5 347 27                        @ lvgl/src/lv_core/lv_group.c:347:27
	ldrb	r0, [r1, #20]
	and	r0, r0, #247
	orr.w	r0, r0, r2, lsl #3
	strb	r0, [r1, #20]
	.loc	5 348 1 is_stmt 1               @ lvgl/src/lv_core/lv_group.c:348:1
	add	sp, #8
	bx	lr
.Ltmp265:
.Lfunc_end18:
	.size	lv_group_set_refocus_policy, .Lfunc_end18-lv_group_set_refocus_policy
	.cfi_endproc
	.cantunwind
	.fnend
                                        @ -- End function
	.section	.text.lv_group_set_wrap,"ax",%progbits
	.hidden	lv_group_set_wrap               @ -- Begin function lv_group_set_wrap
	.globl	lv_group_set_wrap
	.p2align	3
	.type	lv_group_set_wrap,%function
	.code	16                              @ @lv_group_set_wrap
	.thumb_func
lv_group_set_wrap:
.Lfunc_begin19:
	.loc	5 356 0                         @ lvgl/src/lv_core/lv_group.c:356:0
	.fnstart
	.cfi_startproc
@ %bb.0:
	.pad	#8
	sub	sp, #8
	.cfi_def_cfa_offset 8
                                        @ kill: def $r2 killed $r1
	str	r0, [sp, #4]
	strb.w	r1, [sp, #3]
.Ltmp266:
	.loc	5 357 19 prologue_end           @ lvgl/src/lv_core/lv_group.c:357:19
	ldrb.w	r0, [sp, #3]
	and	r2, r0, #1
	.loc	5 357 5 is_stmt 0               @ lvgl/src/lv_core/lv_group.c:357:5
	ldr	r1, [sp, #4]
	.loc	5 357 17                        @ lvgl/src/lv_core/lv_group.c:357:17
	ldrb	r0, [r1, #20]
	and	r0, r0, #239
	orr.w	r0, r0, r2, lsl #4
	strb	r0, [r1, #20]
	.loc	5 358 1 is_stmt 1               @ lvgl/src/lv_core/lv_group.c:358:1
	add	sp, #8
	bx	lr
.Ltmp267:
.Lfunc_end19:
	.size	lv_group_set_wrap, .Lfunc_end19-lv_group_set_wrap
	.cfi_endproc
	.cantunwind
	.fnend
                                        @ -- End function
	.section	.text.lv_group_get_focus_cb,"ax",%progbits
	.hidden	lv_group_get_focus_cb           @ -- Begin function lv_group_get_focus_cb
	.globl	lv_group_get_focus_cb
	.p2align	3
	.type	lv_group_get_focus_cb,%function
	.code	16                              @ @lv_group_get_focus_cb
	.thumb_func
lv_group_get_focus_cb:
.Lfunc_begin20:
	.loc	5 391 0                         @ lvgl/src/lv_core/lv_group.c:391:0
	.fnstart
	.cfi_startproc
@ %bb.0:
	.pad	#8
	sub	sp, #8
	.cfi_def_cfa_offset 8
	str	r0, [sp]
.Ltmp268:
	.loc	5 392 9 prologue_end            @ lvgl/src/lv_core/lv_group.c:392:9
	ldr	r0, [sp]
.Ltmp269:
	.loc	5 392 8 is_stmt 0               @ lvgl/src/lv_core/lv_group.c:392:8
	cbnz	r0, .LBB20_2
	b	.LBB20_1
.LBB20_1:
	.loc	5 0 8                           @ lvgl/src/lv_core/lv_group.c:0:8
	movs	r0, #0
.Ltmp270:
	.loc	5 392 16                        @ lvgl/src/lv_core/lv_group.c:392:16
	str	r0, [sp, #4]
	b	.LBB20_3
.Ltmp271:
.LBB20_2:
	.loc	5 393 12 is_stmt 1              @ lvgl/src/lv_core/lv_group.c:393:12
	ldr	r0, [sp]
	.loc	5 393 19 is_stmt 0              @ lvgl/src/lv_core/lv_group.c:393:19
	ldr	r0, [r0, #16]
	.loc	5 393 5                         @ lvgl/src/lv_core/lv_group.c:393:5
	str	r0, [sp, #4]
	b	.LBB20_3
.LBB20_3:
	.loc	5 394 1 is_stmt 1               @ lvgl/src/lv_core/lv_group.c:394:1
	ldr	r0, [sp, #4]
	add	sp, #8
	bx	lr
.Ltmp272:
.Lfunc_end20:
	.size	lv_group_get_focus_cb, .Lfunc_end20-lv_group_get_focus_cb
	.cfi_endproc
	.cantunwind
	.fnend
                                        @ -- End function
	.section	.text.lv_group_get_editing,"ax",%progbits
	.hidden	lv_group_get_editing            @ -- Begin function lv_group_get_editing
	.globl	lv_group_get_editing
	.p2align	3
	.type	lv_group_get_editing,%function
	.code	16                              @ @lv_group_get_editing
	.thumb_func
lv_group_get_editing:
.Lfunc_begin21:
	.loc	5 402 0                         @ lvgl/src/lv_core/lv_group.c:402:0
	.fnstart
	.cfi_startproc
@ %bb.0:
	.pad	#8
	sub	sp, #8
	.cfi_def_cfa_offset 8
	str	r0, [sp]
.Ltmp273:
	.loc	5 403 9 prologue_end            @ lvgl/src/lv_core/lv_group.c:403:9
	ldr	r0, [sp]
.Ltmp274:
	.loc	5 403 8 is_stmt 0               @ lvgl/src/lv_core/lv_group.c:403:8
	cbnz	r0, .LBB21_2
	b	.LBB21_1
.LBB21_1:
	.loc	5 0 8                           @ lvgl/src/lv_core/lv_group.c:0:8
	movs	r0, #0
.Ltmp275:
	.loc	5 403 16                        @ lvgl/src/lv_core/lv_group.c:403:16
	strb.w	r0, [sp, #7]
	b	.LBB21_3
.Ltmp276:
.LBB21_2:
	.loc	5 404 12 is_stmt 1              @ lvgl/src/lv_core/lv_group.c:404:12
	ldr	r0, [sp]
	.loc	5 404 19 is_stmt 0              @ lvgl/src/lv_core/lv_group.c:404:19
	ldrb	r0, [r0, #20]
	.loc	5 404 5                         @ lvgl/src/lv_core/lv_group.c:404:5
	ubfx	r0, r0, #1, #1
	strb.w	r0, [sp, #7]
	b	.LBB21_3
.LBB21_3:
	.loc	5 405 1 is_stmt 1               @ lvgl/src/lv_core/lv_group.c:405:1
	ldrb.w	r0, [sp, #7]
	add	sp, #8
	bx	lr
.Ltmp277:
.Lfunc_end21:
	.size	lv_group_get_editing, .Lfunc_end21-lv_group_get_editing
	.cfi_endproc
	.cantunwind
	.fnend
                                        @ -- End function
	.section	.text.lv_group_get_click_focus,"ax",%progbits
	.hidden	lv_group_get_click_focus        @ -- Begin function lv_group_get_click_focus
	.globl	lv_group_get_click_focus
	.p2align	3
	.type	lv_group_get_click_focus,%function
	.code	16                              @ @lv_group_get_click_focus
	.thumb_func
lv_group_get_click_focus:
.Lfunc_begin22:
	.loc	5 413 0                         @ lvgl/src/lv_core/lv_group.c:413:0
	.fnstart
	.cfi_startproc
@ %bb.0:
	.pad	#8
	sub	sp, #8
	.cfi_def_cfa_offset 8
	str	r0, [sp]
.Ltmp278:
	.loc	5 414 9 prologue_end            @ lvgl/src/lv_core/lv_group.c:414:9
	ldr	r0, [sp]
.Ltmp279:
	.loc	5 414 8 is_stmt 0               @ lvgl/src/lv_core/lv_group.c:414:8
	cbnz	r0, .LBB22_2
	b	.LBB22_1
.LBB22_1:
	.loc	5 0 8                           @ lvgl/src/lv_core/lv_group.c:0:8
	movs	r0, #0
.Ltmp280:
	.loc	5 414 16                        @ lvgl/src/lv_core/lv_group.c:414:16
	strb.w	r0, [sp, #7]
	b	.LBB22_3
.Ltmp281:
.LBB22_2:
	.loc	5 415 12 is_stmt 1              @ lvgl/src/lv_core/lv_group.c:415:12
	ldr	r0, [sp]
	.loc	5 415 19 is_stmt 0              @ lvgl/src/lv_core/lv_group.c:415:19
	ldrb	r0, [r0, #20]
	.loc	5 415 5                         @ lvgl/src/lv_core/lv_group.c:415:5
	ubfx	r0, r0, #2, #1
	strb.w	r0, [sp, #7]
	b	.LBB22_3
.LBB22_3:
	.loc	5 416 1 is_stmt 1               @ lvgl/src/lv_core/lv_group.c:416:1
	ldrb.w	r0, [sp, #7]
	add	sp, #8
	bx	lr
.Ltmp282:
.Lfunc_end22:
	.size	lv_group_get_click_focus, .Lfunc_end22-lv_group_get_click_focus
	.cfi_endproc
	.cantunwind
	.fnend
                                        @ -- End function
	.section	.text.lv_group_get_wrap,"ax",%progbits
	.hidden	lv_group_get_wrap               @ -- Begin function lv_group_get_wrap
	.globl	lv_group_get_wrap
	.p2align	3
	.type	lv_group_get_wrap,%function
	.code	16                              @ @lv_group_get_wrap
	.thumb_func
lv_group_get_wrap:
.Lfunc_begin23:
	.loc	5 424 0                         @ lvgl/src/lv_core/lv_group.c:424:0
	.fnstart
	.cfi_startproc
@ %bb.0:
	.pad	#8
	sub	sp, #8
	.cfi_def_cfa_offset 8
	str	r0, [sp]
.Ltmp283:
	.loc	5 425 9 prologue_end            @ lvgl/src/lv_core/lv_group.c:425:9
	ldr	r0, [sp]
.Ltmp284:
	.loc	5 425 8 is_stmt 0               @ lvgl/src/lv_core/lv_group.c:425:8
	cbnz	r0, .LBB23_2
	b	.LBB23_1
.LBB23_1:
	.loc	5 0 8                           @ lvgl/src/lv_core/lv_group.c:0:8
	movs	r0, #0
.Ltmp285:
	.loc	5 425 16                        @ lvgl/src/lv_core/lv_group.c:425:16
	strb.w	r0, [sp, #7]
	b	.LBB23_3
.Ltmp286:
.LBB23_2:
	.loc	5 426 12 is_stmt 1              @ lvgl/src/lv_core/lv_group.c:426:12
	ldr	r0, [sp]
	.loc	5 426 19 is_stmt 0              @ lvgl/src/lv_core/lv_group.c:426:19
	ldrb	r0, [r0, #20]
	.loc	5 426 5                         @ lvgl/src/lv_core/lv_group.c:426:5
	ubfx	r0, r0, #4, #1
	strb.w	r0, [sp, #7]
	b	.LBB23_3
.LBB23_3:
	.loc	5 427 1 is_stmt 1               @ lvgl/src/lv_core/lv_group.c:427:1
	ldrb.w	r0, [sp, #7]
	add	sp, #8
	bx	lr
.Ltmp287:
.Lfunc_end23:
	.size	lv_group_get_wrap, .Lfunc_end23-lv_group_get_wrap
	.cfi_endproc
	.cantunwind
	.fnend
                                        @ -- End function
	.type	.L.str,%object                  @ @.str
	.section	.rodata.str1.1,"aMS",%progbits,1
.L.str:
	.asciz	"Out of memory"
	.size	.L.str, 14

	.file	6 "E:\\STM32\\Learning\\STM32H750_ART_PI_RGBLCD" "lvgl/src/lv_core/../lv_font/../lv_misc/lv_ll.h"
	.file	7 "E:\\STM32\\Learning\\STM32H750_ART_PI_RGBLCD" "./lvgl/src/lv_conf.h"
	.file	8 "E:\\STM32\\Learning\\STM32H750_ART_PI_RGBLCD" "lvgl/src/lv_core/../lv_hal/../lv_misc/lv_area.h"
	.file	9 "E:\\STM32\\Learning\\STM32H750_ART_PI_RGBLCD" "lvgl/src/lv_core/../lv_themes/../lv_core/lv_style.h"
	.file	10 "E:\\STM32\\Learning\\STM32H750_ART_PI_RGBLCD" "lvgl/src/lv_core/../lv_hal/lv_hal_indev.h"
	.file	11 "E:\\STM32\\Learning\\STM32H750_ART_PI_RGBLCD" "lvgl/src/lv_core/../lv_draw/../lv_misc/lv_bidi.h"
	.section	".note.GNU-stack","",%progbits
	.eabi_attribute	30, 6	@ Tag_ABI_optimization_goals
	.ARM_attribute	16, 1	@ Tag_AV_eba