	.text
	.syntax unified
	.eabi_attribute	67, "2.09"	@ Tag_conformance
	.cpu	cortex-m7
	.eabi_attribute	6, 13	@ Tag_CPU_arch
	.eabi_attribute	7, 77	@ Tag_CPU_arch_profile
	.eabi_attribute	8, 0	@ Tag_ARM_ISA_use
	.eabi_attribute	9, 2	@ Tag_THUMB_ISA_use
	.fpu	fpv5-d16
	.eabi_attribute	36, 1	@ Tag_FP_HP_extension
	.eabi_attribute	34, 1	@ Tag_CPU_unaligned_access
	.eabi_attribute	17, 1	@ Tag_ABI_PCS_GOT_use
	.eabi_attribute	20, 2	@ Tag_ABI_FP_denormal
	.eabi_attribute	21, 0	@ Tag_ABI_FP_exceptions
	.eabi_attribute	23, 1	@ Tag_ABI_FP_number_model
	.eabi_attribute	24, 1	@ Tag_ABI_align_needed
	.eabi_attribute	25, 1	@ Tag_ABI_align_preserved
	.eabi_attribute	28, 1	@ Tag_ABI_VFP_args
	.eabi_attribute	38, 1	@ Tag_ABI_FP_16bit_format
	.eabi_attribute	18, 2	@ Tag_ABI_PCS_wchar_t
	.eabi_attribute	26, 1	@ Tag_ABI_enum_size
	.eabi_attribute	14, 0	@ Tag_ABI_PCS_R9_use
	.file	"lv_hal_disp.c"
	.file	1 "D:\\Keil_v5\\ARM\\ARMCLANG\\Bin\\..\\include" "stdint.h"
	.file	2 "E:\\STM32\\Learning\\STM32H750_ART_PI_RGBLCD" "./lvgl/src/lv_conf.h"
	.file	3 "E:\\STM32\\Learning\\STM32H750_ART_PI_RGBLCD" "lvgl/src/lv_hal/lv_hal_disp.h"
	.file	4 "E:\\STM32\\Learning\\STM32H750_ART_PI_RGBLCD" "lvgl/src/lv_hal/../lv_core/../lv_misc/lv_area.h"
	.file	5 "E:\\STM32\\Learning\\STM32H750_ART_PI_RGBLCD" "lvgl/src/lv_hal/../lv_core/../lv_misc/lv_color.h"
	.file	6 "E:\\STM32\\Learning\\STM32H750_ART_PI_RGBLCD" "lvgl/src/lv_hal/../lv_misc/lv_task.h"
	.file	7 "E:\\STM32\\Learning\\STM32H750_ART_PI_RGBLCD" "lvgl/src/lv_hal/../lv_misc/lv_ll.h"
	.file	8 "E:\\STM32\\Learning\\STM32H750_ART_PI_RGBLCD" "lvgl/src/lv_hal/../lv_themes/../lv_core/lv_obj.h"
	.file	9 "E:\\STM32\\Learning\\STM32H750_ART_PI_RGBLCD" "lvgl/src/lv_hal/../lv_core/../lv_misc/lv_types.h"
	.file	10 "E:\\STM32\\Learning\\STM32H750_ART_PI_RGBLCD" "lvgl/src/lv_hal/../lv_themes/../lv_core/lv_style.h"
	.file	11 "E:\\STM32\\Learning\\STM32H750_ART_PI_RGBLCD" "lvgl/src/lv_hal/lv_hal_indev.h"
	.file	12 "E:\\STM32\\Learning\\STM32H750_ART_PI_RGBLCD" "lvgl/src/lv_hal/../lv_misc/../lv_draw/../lv_misc/lv_bidi.h"
	.file	13 "E:\\STM32\\Learning\\STM32H750_ART_PI_RGBLCD" "lvgl/src/lv_hal/lv_hal_disp.c"
	.section	.text.lv_disp_drv_init,"ax",%progbits
	.hidden	lv_disp_drv_init                @ -- Begin function lv_disp_drv_init
	.globl	lv_disp_drv_init
	.p2align	3
	.type	lv_disp_drv_init,%function
	.code	16                              @ @lv_disp_drv_init
	.thumb_func
lv_disp_drv_init:
.Lfunc_begin0:
	.loc	13 54 0                         @ lvgl/src/lv_hal/lv_hal_disp.c:54:0
	.fnstart
	.cfi_sections .debug_frame
	.cfi_startproc
@ %bb.0:
	.save	{r7, lr}
	push	{r7, lr}
	.cfi_def_cfa_offset 8
	.cfi_offset lr, -4
	.cfi_offset r7, -8
	.pad	#8
	sub	sp, #8
	.cfi_def_cfa_offset 16
	str	r0, [sp, #4]
.Ltmp0:
	.loc	13 55 19 prologue_end           @ lvgl/src/lv_hal/lv_hal_disp.c:55:19
	ldr	r0, [sp, #4]
	movs	r1, #44
	.loc	13 55 5 is_stmt 0               @ lvgl/src/lv_hal/lv_hal_disp.c:55:5
	bl	_lv_memset_00
	.loc	13 57 5 is_stmt 1               @ lvgl/src/lv_hal/lv_hal_disp.c:57:5
	ldr	r1, [sp, #4]
	movs	r0, #0
	.loc	13 57 30 is_stmt 0              @ lvgl/src/lv_hal/lv_hal_disp.c:57:30
	str	r0, [r1, #12]
	.loc	13 58 5 is_stmt 1               @ lvgl/src/lv_hal/lv_hal_disp.c:58:5
	ldr	r2, [sp, #4]
	mov.w	r1, #480
	.loc	13 58 30 is_stmt 0              @ lvgl/src/lv_hal/lv_hal_disp.c:58:30
	strh	r1, [r2]
	.loc	13 59 5 is_stmt 1               @ lvgl/src/lv_hal/lv_hal_disp.c:59:5
	ldr	r2, [sp, #4]
	mov.w	r1, #272
	.loc	13 59 30 is_stmt 0              @ lvgl/src/lv_hal/lv_hal_disp.c:59:30
	strh	r1, [r2, #2]
	.loc	13 60 5 is_stmt 1               @ lvgl/src/lv_hal/lv_hal_disp.c:60:5
	ldr	r1, [sp, #4]
	.loc	13 60 30 is_stmt 0              @ lvgl/src/lv_hal/lv_hal_disp.c:60:30
	str	r0, [r1, #4]
	.loc	13 61 5 is_stmt 1               @ lvgl/src/lv_hal/lv_hal_disp.c:61:5
	ldr	r2, [sp, #4]
	.loc	13 61 30 is_stmt 0              @ lvgl/src/lv_hal/lv_hal_disp.c:61:30
	ldrh	r1, [r2, #8]
	bic	r1, r1, #6
	strh	r1, [r2, #8]
	.loc	13 62 5 is_stmt 1               @ lvgl/src/lv_hal/lv_hal_disp.c:62:5
	ldr	r2, [sp, #4]
	.loc	13 62 30 is_stmt 0              @ lvgl/src/lv_hal/lv_hal_disp.c:62:30
	ldrh	r1, [r2, #8]
	bic	r1, r1, #8
	strh	r1, [r2, #8]
	.loc	13 63 5 is_stmt 1               @ lvgl/src/lv_hal/lv_hal_disp.c:63:5
	ldr	r2, [sp, #4]
	.loc	13 63 32 is_stmt 0              @ lvgl/src/lv_hal/lv_hal_disp.c:63:32
	strb.w	r0, [sp]
	movs	r1, #255
	strb.w	r1, [sp, #1]
	strb.w	r0, [sp, #2]
	strb.w	r1, [sp, #3]
	ldr	r1, [sp]
	str	r1, [r2, #40]
	.loc	13 64 5 is_stmt 1               @ lvgl/src/lv_hal/lv_hal_disp.c:64:5
	ldr	r2, [sp, #4]
	.loc	13 64 17 is_stmt 0              @ lvgl/src/lv_hal/lv_hal_disp.c:64:17
	ldrh	r1, [r2, #8]
	movw	r3, #49167
	ands	r1, r3
	add.w	r1, r1, #2080
	strh	r1, [r2, #8]
	.loc	13 67 5 is_stmt 1               @ lvgl/src/lv_hal/lv_hal_disp.c:67:5
	ldr	r2, [sp, #4]
	.loc	13 67 26 is_stmt 0              @ lvgl/src/lv_hal/lv_hal_disp.c:67:26
	ldrh	r1, [r2, #8]
	orr	r1, r1, #1
	strh	r1, [r2, #8]
	.loc	13 83 5 is_stmt 1               @ lvgl/src/lv_hal/lv_hal_disp.c:83:5
	ldr	r1, [sp, #4]
	.loc	13 83 23 is_stmt 0              @ lvgl/src/lv_hal/lv_hal_disp.c:83:23
	str	r0, [r1, #20]
	.loc	13 84 1 is_stmt 1               @ lvgl/src/lv_hal/lv_hal_disp.c:84:1
	add	sp, #8
	pop	{r7, pc}
.Ltmp1:
.Lfunc_end0:
	.size	lv_disp_drv_init, .Lfunc_end0-lv_disp_drv_init
	.cfi_endproc
	.cantunwind
	.fnend
                                        @ -- End function
	.section	.text.lv_disp_buf_init,"ax",%progbits
	.hidden	lv_disp_buf_init                @ -- Begin function lv_disp_buf_init
	.globl	lv_disp_buf_init
	.p2align	3
	.type	lv_disp_buf_init,%function
	.code	16                              @ @lv_disp_buf_init
	.thumb_func
lv_disp_buf_init:
.Lfunc_begin1:
	.loc	13 102 0                        @ lvgl/src/lv_hal/lv_hal_disp.c:102:0
	.fnstart
	.cfi_startproc
@ %bb.0:
	.save	{r7, lr}
	push	{r7, lr}
	.cfi_def_cfa_offset 8
	.cfi_offset lr, -4
	.cfi_offset r7, -8
	.pad	#16
	sub	sp, #16
	.cfi_def_cfa_offset 24
	str	r0, [sp, #12]
	str	r1, [sp, #8]
	str	r2, [sp, #4]
	str	r3, [sp]
.Ltmp2:
	.loc	13 103 19 prologue_end          @ lvgl/src/lv_hal/lv_hal_disp.c:103:19
	ldr	r0, [sp, #12]
	movs	r1, #36
	.loc	13 103 5 is_stmt 0              @ lvgl/src/lv_hal/lv_hal_disp.c:103:5
	bl	_lv_memset_00
	.loc	13 105 25 is_stmt 1             @ lvgl/src/lv_hal/lv_hal_disp.c:105:25
	ldr	r0, [sp, #8]
	.loc	13 105 5 is_stmt 0              @ lvgl/src/lv_hal/lv_hal_disp.c:105:5
	ldr	r1, [sp, #12]
	.loc	13 105 23                       @ lvgl/src/lv_hal/lv_hal_disp.c:105:23
	str	r0, [r1]
	.loc	13 106 25 is_stmt 1             @ lvgl/src/lv_hal/lv_hal_disp.c:106:25
	ldr	r0, [sp, #4]
	.loc	13 106 5 is_stmt 0              @ lvgl/src/lv_hal/lv_hal_disp.c:106:5
	ldr	r1, [sp, #12]
	.loc	13 106 23                       @ lvgl/src/lv_hal/lv_hal_disp.c:106:23
	str	r0, [r1, #4]
	.loc	13 107 25 is_stmt 1             @ lvgl/src/lv_hal/lv_hal_disp.c:107:25
	ldr	r1, [sp, #12]
	.loc	13 107 35 is_stmt 0             @ lvgl/src/lv_hal/lv_hal_disp.c:107:35
	ldr	r0, [r1]
	.loc	13 107 23                       @ lvgl/src/lv_hal/lv_hal_disp.c:107:23
	str	r0, [r1, #8]
	.loc	13 108 25 is_stmt 1             @ lvgl/src/lv_hal/lv_hal_disp.c:108:25
	ldr	r0, [sp]
	.loc	13 108 5 is_stmt 0              @ lvgl/src/lv_hal/lv_hal_disp.c:108:5
	ldr	r1, [sp, #12]
	.loc	13 108 23                       @ lvgl/src/lv_hal/lv_hal_disp.c:108:23
	str	r0, [r1, #12]
	.loc	13 109 1 is_stmt 1              @ lvgl/src/lv_hal/lv_hal_disp.c:109:1
	add	sp, #16
	pop	{r7, pc}
.Ltmp3:
.Lfunc_end1:
	.size	lv_disp_buf_init, .Lfunc_end1-lv_disp_buf_init
	.cfi_endproc
	.cantunwind
	.fnend
                                        @ -- End function
	.section	.text.lv_disp_drv_register,"ax",%progbits
	.hidden	lv_disp_drv_register            @ -- Begin function lv_disp_drv_register
	.globl	lv_disp_drv_register
	.p2align	3
	.type	lv_disp_drv_register,%function
	.code	16                              @ @lv_disp_drv_register
	.thumb_func
lv_disp_drv_register:
.Lfunc_begin2:
	.loc	13 118 0                        @ lvgl/src/lv_hal/lv_hal_disp.c:118:0
	.fnstart
	.cfi_startproc
@ %bb.0:
	.save	{r7, lr}
	push	{r7, lr}
	.cfi_def_cfa_offset 8
	.cfi_offset lr, -4
	.cfi_offset r7, -8
	.pad	#24
	sub	sp, #24
	.cfi_def_cfa_offset 32
	str	r0, [sp, #16]
.Ltmp4:
	.loc	13 119 24 prologue_end          @ lvgl/src/lv_hal/lv_hal_disp.c:119:24
	movw	r0, :lower16:_lv_disp_ll
	movt	r0, :upper16:_lv_disp_ll
	bl	_lv_ll_ins_head
	.loc	13 119 17 is_stmt 0             @ lvgl/src/lv_hal/lv_hal_disp.c:119:17
	str	r0, [sp, #12]
.Ltmp5:
	.loc	13 120 9 is_stmt 1              @ lvgl/src/lv_hal/lv_hal_disp.c:120:9
	ldr	r0, [sp, #12]
.Ltmp6:
	.loc	13 120 8 is_stmt 0              @ lvgl/src/lv_hal/lv_hal_disp.c:120:8
	cbnz	r0, .LBB2_7
	b	.LBB2_1
.LBB2_1:
.Ltmp7:
	.loc	13 121 9 is_stmt 1              @ lvgl/src/lv_hal/lv_hal_disp.c:121:9
	b	.LBB2_2
.LBB2_2:
.Ltmp8:
	.loc	13 121 9 is_stmt 0              @ lvgl/src/lv_hal/lv_hal_disp.c:121:9
	ldr	r0, [sp, #12]
	bl	lv_debug_check_null
.Ltmp9:
	.loc	13 121 9                        @ lvgl/src/lv_hal/lv_hal_disp.c:121:9
	cbnz	r0, .LBB2_5
	b	.LBB2_3
.LBB2_3:
.Ltmp10:
	.loc	13 121 9                        @ lvgl/src/lv_hal/lv_hal_disp.c:121:9
	ldr	r2, [sp, #12]
	movw	r0, :lower16:.L.str
	movt	r0, :upper16:.L.str
	movs	r3, #0
	bl	lv_debug_log_error
	b	.LBB2_4
.LBB2_4:                                @ =>This Inner Loop Header: Depth=1
	b	.LBB2_4
.Ltmp11:
.LBB2_5:
	.loc	13 121 9                        @ lvgl/src/lv_hal/lv_hal_disp.c:121:9
	b	.LBB2_6
.Ltmp12:
.LBB2_6:
	.loc	13 0 9                          @ lvgl/src/lv_hal/lv_hal_disp.c:0:9
	movs	r0, #0
	.loc	13 122 9 is_stmt 1              @ lvgl/src/lv_hal/lv_hal_disp.c:122:9
	str	r0, [sp, #20]
	b	.LBB2_20
.Ltmp13:
.LBB2_7:
	.loc	13 125 19                       @ lvgl/src/lv_hal/lv_hal_disp.c:125:19
	ldr	r0, [sp, #12]
	mov.w	r1, #388
	.loc	13 125 5 is_stmt 0              @ lvgl/src/lv_hal/lv_hal_disp.c:125:5
	bl	_lv_memset_00
	.loc	13 126 17 is_stmt 1             @ lvgl/src/lv_hal/lv_hal_disp.c:126:17
	ldr	r0, [sp, #12]
	.loc	13 126 31 is_stmt 0             @ lvgl/src/lv_hal/lv_hal_disp.c:126:31
	ldr	r1, [sp, #16]
	movs	r2, #44
	.loc	13 126 5                        @ lvgl/src/lv_hal/lv_hal_disp.c:126:5
	bl	_lv_memcpy
	.loc	13 128 18 is_stmt 1             @ lvgl/src/lv_hal/lv_hal_disp.c:128:18
	ldr	r0, [sp, #12]
	.loc	13 128 24 is_stmt 0             @ lvgl/src/lv_hal/lv_hal_disp.c:128:24
	adds	r0, #48
	movs	r1, #76
	.loc	13 128 5                        @ lvgl/src/lv_hal/lv_hal_disp.c:128:5
	bl	_lv_ll_init
	.loc	13 129 5 is_stmt 1              @ lvgl/src/lv_hal/lv_hal_disp.c:129:5
	ldr	r1, [sp, #12]
	movs	r0, #0
	.loc	13 129 30 is_stmt 0             @ lvgl/src/lv_hal/lv_hal_disp.c:129:30
	str.w	r0, [r1, #384]
.Ltmp14:
	.loc	13 131 8 is_stmt 1              @ lvgl/src/lv_hal/lv_hal_disp.c:131:8
	movw	r0, :lower16:disp_def
	movt	r0, :upper16:disp_def
	ldr	r0, [r0]
.Ltmp15:
	.loc	13 131 8 is_stmt 0              @ lvgl/src/lv_hal/lv_hal_disp.c:131:8
	cbnz	r0, .LBB2_9
	b	.LBB2_8
.LBB2_8:
.Ltmp16:
	.loc	13 131 37                       @ lvgl/src/lv_hal/lv_hal_disp.c:131:37
	ldr	r0, [sp, #12]
	.loc	13 131 35                       @ lvgl/src/lv_hal/lv_hal_disp.c:131:35
	movw	r1, :lower16:disp_def
	movt	r1, :upper16:disp_def
	str	r0, [r1]
	.loc	13 131 26                       @ lvgl/src/lv_hal/lv_hal_disp.c:131:26
	b	.LBB2_9
.Ltmp17:
.LBB2_9:
	.loc	13 133 32 is_stmt 1             @ lvgl/src/lv_hal/lv_hal_disp.c:133:32
	movw	r1, :lower16:disp_def
	movt	r1, :upper16:disp_def
	ldr	r0, [r1]
	.loc	13 133 17 is_stmt 0             @ lvgl/src/lv_hal/lv_hal_disp.c:133:17
	str	r0, [sp, #8]
	.loc	13 134 32 is_stmt 1             @ lvgl/src/lv_hal/lv_hal_disp.c:134:32
	ldr	r0, [sp, #12]
	.loc	13 134 30 is_stmt 0             @ lvgl/src/lv_hal/lv_hal_disp.c:134:30
	str	r0, [r1]
	.loc	13 137 102 is_stmt 1            @ lvgl/src/lv_hal/lv_hal_disp.c:137:102
	ldr	r3, [sp, #12]
	.loc	13 137 23 is_stmt 0             @ lvgl/src/lv_hal/lv_hal_disp.c:137:23
	movw	r0, :lower16:_lv_disp_refr_task
	movt	r0, :upper16:_lv_disp_refr_task
	movs	r1, #10
	movs	r2, #3
	bl	lv_task_create
	.loc	13 137 5                        @ lvgl/src/lv_hal/lv_hal_disp.c:137:5
	ldr	r1, [sp, #12]
	.loc	13 137 21                       @ lvgl/src/lv_hal/lv_hal_disp.c:137:21
	str	r0, [r1, #44]
	.loc	13 138 5 is_stmt 1              @ lvgl/src/lv_hal/lv_hal_disp.c:138:5
	b	.LBB2_10
.LBB2_10:
.Ltmp18:
	.loc	13 138 5 is_stmt 0              @ lvgl/src/lv_hal/lv_hal_disp.c:138:5
	ldr	r0, [sp, #12]
	ldr	r0, [r0, #44]
	bl	lv_debug_check_null
.Ltmp19:
	.loc	13 138 5                        @ lvgl/src/lv_hal/lv_hal_disp.c:138:5
	cbnz	r0, .LBB2_13
	b	.LBB2_11
.LBB2_11:
.Ltmp20:
	.loc	13 138 5                        @ lvgl/src/lv_hal/lv_hal_disp.c:138:5
	ldr	r0, [sp, #12]
	ldr	r2, [r0, #44]
	movw	r0, :lower16:.L.str
	movt	r0, :upper16:.L.str
	movs	r3, #0
	bl	lv_debug_log_error
	b	.LBB2_12
.LBB2_12:                               @ =>This Inner Loop Header: Depth=1
	b	.LBB2_12
.Ltmp21:
.LBB2_13:
	.loc	13 138 5                        @ lvgl/src/lv_hal/lv_hal_disp.c:138:5
	b	.LBB2_14
.Ltmp22:
.LBB2_14:
	.loc	13 139 8 is_stmt 1              @ lvgl/src/lv_hal/lv_hal_disp.c:139:8
	ldr	r0, [sp, #12]
	.loc	13 139 14 is_stmt 0             @ lvgl/src/lv_hal/lv_hal_disp.c:139:14
	ldr	r0, [r0, #44]
.Ltmp23:
	.loc	13 139 8                        @ lvgl/src/lv_hal/lv_hal_disp.c:139:8
	cbnz	r0, .LBB2_16
	b	.LBB2_15
.LBB2_15:
	.loc	13 0 8                          @ lvgl/src/lv_hal/lv_hal_disp.c:0:8
	movs	r0, #0
.Ltmp24:
	.loc	13 139 33                       @ lvgl/src/lv_hal/lv_hal_disp.c:139:33
	str	r0, [sp, #20]
	b	.LBB2_20
.Ltmp25:
.LBB2_16:
	.loc	13 141 5 is_stmt 1              @ lvgl/src/lv_hal/lv_hal_disp.c:141:5
	ldr	r1, [sp, #12]
	.loc	13 141 17 is_stmt 0             @ lvgl/src/lv_hal/lv_hal_disp.c:141:17
	ldrh.w	r0, [r1, #382]
	and	r0, r0, #64512
	strh.w	r0, [r1, #382]
	.loc	13 142 5 is_stmt 1              @ lvgl/src/lv_hal/lv_hal_disp.c:142:5
	ldr	r0, [sp, #12]
	movs	r1, #0
	.loc	13 142 30 is_stmt 0             @ lvgl/src/lv_hal/lv_hal_disp.c:142:30
	str	r1, [sp]                        @ 4-byte Spill
	str.w	r1, [r0, #384]
	.loc	13 144 5 is_stmt 1              @ lvgl/src/lv_hal/lv_hal_disp.c:144:5
	ldr	r3, [sp, #12]
	movs	r0, #255
	.loc	13 144 22 is_stmt 0             @ lvgl/src/lv_hal/lv_hal_disp.c:144:22
	strb.w	r0, [sp, #4]
	strb.w	r0, [sp, #5]
	strb.w	r0, [sp, #6]
	strb.w	r0, [sp, #7]
	ldr	r2, [sp, #4]
	str	r2, [r3, #84]
	.loc	13 145 5 is_stmt 1              @ lvgl/src/lv_hal/lv_hal_disp.c:145:5
	ldr	r2, [sp, #12]
	.loc	13 145 18 is_stmt 0             @ lvgl/src/lv_hal/lv_hal_disp.c:145:18
	str	r1, [r2, #88]
	.loc	13 149 5 is_stmt 1              @ lvgl/src/lv_hal/lv_hal_disp.c:149:5
	ldr	r2, [sp, #12]
	.loc	13 149 18 is_stmt 0             @ lvgl/src/lv_hal/lv_hal_disp.c:149:18
	strb.w	r0, [r2, #92]
	.loc	13 152 5 is_stmt 1              @ lvgl/src/lv_hal/lv_hal_disp.c:152:5
	ldr	r0, [sp, #12]
	.loc	13 152 21 is_stmt 0             @ lvgl/src/lv_hal/lv_hal_disp.c:152:21
	str	r1, [r0, #64]
	.loc	13 153 23 is_stmt 1             @ lvgl/src/lv_hal/lv_hal_disp.c:153:23
	mov	r0, r1
	bl	lv_obj_create
	ldr	r1, [sp]                        @ 4-byte Reload
	.loc	13 153 5 is_stmt 0              @ lvgl/src/lv_hal/lv_hal_disp.c:153:5
	ldr	r2, [sp, #12]
	.loc	13 153 21                       @ lvgl/src/lv_hal/lv_hal_disp.c:153:21
	str	r0, [r2, #60]
	.loc	13 154 23 is_stmt 1             @ lvgl/src/lv_hal/lv_hal_disp.c:154:23
	mov	r0, r1
	bl	lv_obj_create
	ldr	r1, [sp]                        @ 4-byte Reload
	.loc	13 154 5 is_stmt 0              @ lvgl/src/lv_hal/lv_hal_disp.c:154:5
	ldr	r2, [sp, #12]
	.loc	13 154 21                       @ lvgl/src/lv_hal/lv_hal_disp.c:154:21
	str	r0, [r2, #72]
	.loc	13 155 23 is_stmt 1             @ lvgl/src/lv_hal/lv_hal_disp.c:155:23
	mov	r0, r1
	bl	lv_obj_create
	ldr	r1, [sp]                        @ 4-byte Reload
	.loc	13 155 5 is_stmt 0              @ lvgl/src/lv_hal/lv_hal_disp.c:155:5
	ldr	r2, [sp, #12]
	.loc	13 155 21                       @ lvgl/src/lv_hal/lv_hal_disp.c:155:21
	str	r0, [r2, #76]
	.loc	13 156 29 is_stmt 1             @ lvgl/src/lv_hal/lv_hal_disp.c:156:29
	ldr	r0, [sp, #12]
	.loc	13 156 35 is_stmt 0             @ lvgl/src/lv_hal/lv_hal_disp.c:156:35
	ldr	r0, [r0, #72]
	.loc	13 156 5                        @ lvgl/src/lv_hal/lv_hal_disp.c:156:5
	bl	lv_obj_reset_style_list
	ldr	r1, [sp]                        @ 4-byte Reload
	.loc	13 157 29 is_stmt 1             @ lvgl/src/lv_hal/lv_hal_disp.c:157:29
	ldr	r0, [sp, #12]
	.loc	13 157 35 is_stmt 0             @ lvgl/src/lv_hal/lv_hal_disp.c:157:35
	ldr	r0, [r0, #76]
	.loc	13 157 5                        @ lvgl/src/lv_hal/lv_hal_disp.c:157:5
	bl	lv_obj_reset_style_list
	ldr	r1, [sp]                        @ 4-byte Reload
	.loc	13 158 22 is_stmt 1             @ lvgl/src/lv_hal/lv_hal_disp.c:158:22
	ldr	r0, [sp, #12]
	.loc	13 158 28 is_stmt 0             @ lvgl/src/lv_hal/lv_hal_disp.c:158:28
	ldr	r0, [r0, #72]
	.loc	13 158 5                        @ lvgl/src/lv_hal/lv_hal_disp.c:158:5
	bl	lv_obj_set_click
	ldr	r1, [sp]                        @ 4-byte Reload
	.loc	13 159 22 is_stmt 1             @ lvgl/src/lv_hal/lv_hal_disp.c:159:22
	ldr	r0, [sp, #12]
	.loc	13 159 28 is_stmt 0             @ lvgl/src/lv_hal/lv_hal_disp.c:159:28
	ldr	r0, [r0, #76]
	.loc	13 159 5                        @ lvgl/src/lv_hal/lv_hal_disp.c:159:5
	bl	lv_obj_set_click
	.loc	13 161 23 is_stmt 1             @ lvgl/src/lv_hal/lv_hal_disp.c:161:23
	ldr	r0, [sp, #12]
	.loc	13 161 29 is_stmt 0             @ lvgl/src/lv_hal/lv_hal_disp.c:161:29
	ldr	r0, [r0, #60]
	.loc	13 161 5                        @ lvgl/src/lv_hal/lv_hal_disp.c:161:5
	bl	lv_obj_invalidate
	.loc	13 163 16 is_stmt 1             @ lvgl/src/lv_hal/lv_hal_disp.c:163:16
	ldr	r0, [sp, #8]
	.loc	13 163 14 is_stmt 0             @ lvgl/src/lv_hal/lv_hal_disp.c:163:14
	movw	r1, :lower16:disp_def
	movt	r1, :upper16:disp_def
	str	r0, [r1]
	.loc	13 165 19 is_stmt 1             @ lvgl/src/lv_hal/lv_hal_disp.c:165:19
	ldr	r0, [sp, #12]
	.loc	13 165 25 is_stmt 0             @ lvgl/src/lv_hal/lv_hal_disp.c:165:25
	ldr	r0, [r0, #44]
	.loc	13 165 5                        @ lvgl/src/lv_hal/lv_hal_disp.c:165:5
	bl	lv_task_ready
.Ltmp26:
	.loc	13 168 35 is_stmt 1             @ lvgl/src/lv_hal/lv_hal_disp.c:168:35
	ldr	r0, [sp, #12]
	.loc	13 168 8 is_stmt 0              @ lvgl/src/lv_hal/lv_hal_disp.c:168:8
	bl	lv_disp_is_true_double_buf
	.loc	13 168 41                       @ lvgl/src/lv_hal/lv_hal_disp.c:168:41
	cbz	r0, .LBB2_19
	b	.LBB2_17
.LBB2_17:
	.loc	13 168 44                       @ lvgl/src/lv_hal/lv_hal_disp.c:168:44
	ldr	r0, [sp, #12]
	.loc	13 168 57                       @ lvgl/src/lv_hal/lv_hal_disp.c:168:57
	ldr	r0, [r0, #20]
.Ltmp27:
	.loc	13 168 8                        @ lvgl/src/lv_hal/lv_hal_disp.c:168:8
	cbz	r0, .LBB2_19
	b	.LBB2_18
.LBB2_18:
.Ltmp28:
	.loc	13 170 5 is_stmt 1              @ lvgl/src/lv_hal/lv_hal_disp.c:170:5
	b	.LBB2_19
.Ltmp29:
.LBB2_19:
	.loc	13 172 12                       @ lvgl/src/lv_hal/lv_hal_disp.c:172:12
	ldr	r0, [sp, #12]
	.loc	13 172 5 is_stmt 0              @ lvgl/src/lv_hal/lv_hal_disp.c:172:5
	str	r0, [sp, #20]
	b	.LBB2_20
.LBB2_20:
	.loc	13 173 1 is_stmt 1              @ lvgl/src/lv_hal/lv_hal_disp.c:173:1
	ldr	r0, [sp, #20]
	add	sp, #24
	pop	{r7, pc}
.Ltmp30:
.Lfunc_end2:
	.size	lv_disp_drv_register, .Lfunc_end2-lv_disp_drv_register
	.cfi_endproc
	.cantunwind
	.fnend
                                        @ -- End function
	.section	.text.lv_disp_is_true_double_buf,"ax",%progbits
	.hidden	lv_disp_is_true_double_buf      @ -- Begin function lv_disp_is_true_double_buf
	.globl	lv_disp_is_true_double_buf
	.p2align	3
	.type	lv_disp_is_true_double_buf,%function
	.code	16                              @ @lv_disp_is_true_double_buf
	.thumb_func
lv_disp_is_true_double_buf:
.Lfunc_begin3:
	.loc	13 436 0                        @ lvgl/src/lv_hal/lv_hal_disp.c:436:0
	.fnstart
	.cfi_startproc
@ %bb.0:
	.save	{r7, lr}
	push	{r7, lr}
	.cfi_def_cfa_offset 8
	.cfi_offset lr, -4
	.cfi_offset r7, -8
	.pad	#16
	sub	sp, #16
	.cfi_def_cfa_offset 24
	str	r0, [sp, #8]
.Ltmp31:
	.loc	13 437 25 prologue_end          @ lvgl/src/lv_hal/lv_hal_disp.c:437:25
	ldr	r1, [sp, #8]
	.loc	13 437 38 is_stmt 0             @ lvgl/src/lv_hal/lv_hal_disp.c:437:38
	ldrsh.w	r0, [r1]
	.loc	13 437 61                       @ lvgl/src/lv_hal/lv_hal_disp.c:437:61
	ldrsh.w	r1, [r1, #2]
	.loc	13 437 46                       @ lvgl/src/lv_hal/lv_hal_disp.c:437:46
	muls	r0, r1, r0
	.loc	13 437 14                       @ lvgl/src/lv_hal/lv_hal_disp.c:437:14
	str	r0, [sp, #4]
.Ltmp32:
	.loc	13 439 30 is_stmt 1             @ lvgl/src/lv_hal/lv_hal_disp.c:439:30
	ldr	r0, [sp, #8]
	.loc	13 439 8 is_stmt 0              @ lvgl/src/lv_hal/lv_hal_disp.c:439:8
	bl	lv_disp_is_double_buf
	.loc	13 439 36                       @ lvgl/src/lv_hal/lv_hal_disp.c:439:36
	cbz	r0, .LBB3_3
	b	.LBB3_1
.LBB3_1:
	.loc	13 439 39                       @ lvgl/src/lv_hal/lv_hal_disp.c:439:39
	ldr	r0, [sp, #8]
	.loc	13 439 52                       @ lvgl/src/lv_hal/lv_hal_disp.c:439:52
	ldr	r0, [r0, #4]
	.loc	13 439 60                       @ lvgl/src/lv_hal/lv_hal_disp.c:439:60
	ldr	r0, [r0, #12]
	.loc	13 439 68                       @ lvgl/src/lv_hal/lv_hal_disp.c:439:68
	ldr	r1, [sp, #4]
.Ltmp33:
	.loc	13 439 8                        @ lvgl/src/lv_hal/lv_hal_disp.c:439:8
	cmp	r0, r1
	bne	.LBB3_3
	b	.LBB3_2
.LBB3_2:
	.loc	13 0 8                          @ lvgl/src/lv_hal/lv_hal_disp.c:0:8
	movs	r0, #1
.Ltmp34:
	.loc	13 440 9 is_stmt 1              @ lvgl/src/lv_hal/lv_hal_disp.c:440:9
	strb.w	r0, [sp, #15]
	b	.LBB3_4
.Ltmp35:
.LBB3_3:
	.loc	13 0 9 is_stmt 0                @ lvgl/src/lv_hal/lv_hal_disp.c:0:9
	movs	r0, #0
.Ltmp36:
	.loc	13 443 9 is_stmt 1              @ lvgl/src/lv_hal/lv_hal_disp.c:443:9
	strb.w	r0, [sp, #15]
	b	.LBB3_4
.Ltmp37:
.LBB3_4:
	.loc	13 445 1                        @ lvgl/src/lv_hal/lv_hal_disp.c:445:1
	ldrb.w	r0, [sp, #15]
	add	sp, #16
	pop	{r7, pc}
.Ltmp38:
.Lfunc_end3:
	.size	lv_disp_is_true_double_buf, .Lfunc_end3-lv_disp_is_true_double_buf
	.cfi_endproc
	.cantunwind
	.fnend
                                        @ -- End function
	.section	.text.lv_disp_drv_update,"ax",%progbits
	.hidden	lv_disp_drv_update              @ -- Begin function lv_disp_drv_update
	.globl	lv_disp_drv_update
	.p2align	3
	.type	lv_disp_drv_update,%function
	.code	16                              @ @lv_disp_drv_update
	.thumb_func
lv_disp_drv_update:
.Lfunc_begin4:
	.loc	13 181 0                        @ lvgl/src/lv_hal/lv_hal_disp.c:181:0
	.fnstart
	.cfi_startproc
@ %bb.0:
	.save	{r4, r5, r7, lr}
	push	{r4, r5, r7, lr}
	.cfi_def_cfa_offset 16
	.cfi_offset lr, -4
	.cfi_offset r7, -8
	.cfi_offset r5, -12
	.cfi_offset r4, -16
	.pad	#32
	sub	sp, #32
	.cfi_def_cfa_offset 48
	str	r0, [sp, #28]
	str	r1, [sp, #24]
.Ltmp39:
	.loc	13 182 8 prologue_end           @ lvgl/src/lv_hal/lv_hal_disp.c:182:8
	ldr	r0, [sp, #24]
	.loc	13 182 20 is_stmt 0             @ lvgl/src/lv_hal/lv_hal_disp.c:182:20
	ldr	r1, [sp, #28]
.Ltmp40:
	.loc	13 182 8                        @ lvgl/src/lv_hal/lv_hal_disp.c:182:8
	cmp	r0, r1
	beq	.LBB4_2
	b	.LBB4_1
.LBB4_1:
.Ltmp41:
	.loc	13 183 17 is_stmt 1             @ lvgl/src/lv_hal/lv_hal_disp.c:183:17
	ldr	r1, [sp, #28]
	.loc	13 183 31 is_stmt 0             @ lvgl/src/lv_hal/lv_hal_disp.c:183:31
	str	r1, [sp, #12]                   @ 4-byte Spill
	ldr.w	lr, [sp, #24]
	.loc	13 183 9                        @ lvgl/src/lv_hal/lv_hal_disp.c:183:9
	str.w	lr, [sp, #16]                   @ 4-byte Spill
	ldr.w	r0, [lr]
	ldr.w	r2, [lr, #4]
	ldr.w	r3, [lr, #8]
	ldr.w	r12, [lr, #12]
	ldr.w	r4, [lr, #16]
	ldr.w	r5, [lr, #20]
	str	r5, [r1, #20]
	str	r4, [r1, #16]
	str.w	r12, [r1, #12]
	str	r3, [r1, #8]
	str	r2, [r1, #4]
	str	r0, [r1]
	ldr.w	r0, [lr, #24]
	ldr.w	r2, [lr, #28]
	ldr.w	r3, [lr, #32]
	ldr.w	r12, [lr, #36]
	ldr.w	lr, [lr, #40]
	str.w	lr, [r1, #40]
	str.w	r12, [r1, #36]
	str	r3, [r1, #32]
	str	r2, [r1, #28]
	str	r0, [r1, #24]
	b	.LBB4_2
.Ltmp42:
.LBB4_2:
	.loc	13 186 5 is_stmt 1              @ lvgl/src/lv_hal/lv_hal_disp.c:186:5
	ldr	r0, [sp, #28]
	adds	r0, #48
	bl	_lv_ll_get_head
	str	r0, [sp, #20]
	b	.LBB4_3
.LBB4_3:                                @ =>This Inner Loop Header: Depth=1
.Ltmp43:
	.loc	13 186 5 is_stmt 0              @ lvgl/src/lv_hal/lv_hal_disp.c:186:5
	ldr	r0, [sp, #20]
.Ltmp44:
	.loc	13 186 5                        @ lvgl/src/lv_hal/lv_hal_disp.c:186:5
	cbz	r0, .LBB4_6
	b	.LBB4_4
.LBB4_4:                                @   in Loop: Header=BB4_3 Depth=1
.Ltmp45:
	.loc	13 187 25 is_stmt 1             @ lvgl/src/lv_hal/lv_hal_disp.c:187:25
	ldr	r0, [sp, #20]
	.loc	13 187 50 is_stmt 0             @ lvgl/src/lv_hal/lv_hal_disp.c:187:50
	str	r0, [sp, #8]                    @ 4-byte Spill
	ldr	r0, [sp, #28]
	.loc	13 187 30                       @ lvgl/src/lv_hal/lv_hal_disp.c:187:30
	bl	lv_disp_get_hor_res
	.loc	13 187 77                       @ lvgl/src/lv_hal/lv_hal_disp.c:187:77
	str	r0, [sp, #4]                    @ 4-byte Spill
	ldr	r0, [sp, #28]
	.loc	13 187 57                       @ lvgl/src/lv_hal/lv_hal_disp.c:187:57
	bl	lv_disp_get_ver_res
	ldr	r1, [sp, #4]                    @ 4-byte Reload
	mov	r2, r0
	.loc	13 187 9                        @ lvgl/src/lv_hal/lv_hal_disp.c:187:9
	ldr	r0, [sp, #8]                    @ 4-byte Reload
	bl	lv_obj_set_size
	.loc	13 188 5 is_stmt 1              @ lvgl/src/lv_hal/lv_hal_disp.c:188:5
	b	.LBB4_5
.Ltmp46:
.LBB4_5:                                @   in Loop: Header=BB4_3 Depth=1
	.loc	13 186 5                        @ lvgl/src/lv_hal/lv_hal_disp.c:186:5
	ldr	r0, [sp, #28]
	adds	r0, #48
	ldr	r1, [sp, #20]
	bl	_lv_ll_get_next
	str	r0, [sp, #20]
	b	.LBB4_3
.Ltmp47:
.LBB4_6:
	.loc	13 196 19                       @ lvgl/src/lv_hal/lv_hal_disp.c:196:19
	ldr	r0, [sp, #28]
	.loc	13 196 25 is_stmt 0             @ lvgl/src/lv_hal/lv_hal_disp.c:196:25
	adds	r0, #94
	mov.w	r1, #256
	.loc	13 196 5                        @ lvgl/src/lv_hal/lv_hal_disp.c:196:5
	bl	_lv_memset_00
	.loc	13 197 19 is_stmt 1             @ lvgl/src/lv_hal/lv_hal_disp.c:197:19
	ldr	r0, [sp, #28]
	.loc	13 197 25 is_stmt 0             @ lvgl/src/lv_hal/lv_hal_disp.c:197:25
	add.w	r0, r0, #350
	movs	r1, #32
	.loc	13 197 5                        @ lvgl/src/lv_hal/lv_hal_disp.c:197:5
	bl	_lv_memset_00
	.loc	13 198 5 is_stmt 1              @ lvgl/src/lv_hal/lv_hal_disp.c:198:5
	ldr	r1, [sp, #28]
	.loc	13 198 17 is_stmt 0             @ lvgl/src/lv_hal/lv_hal_disp.c:198:17
	ldrh.w	r0, [r1, #382]
	and	r0, r0, #64512
	strh.w	r0, [r1, #382]
.Ltmp48:
	.loc	13 199 8 is_stmt 1              @ lvgl/src/lv_hal/lv_hal_disp.c:199:8
	ldr	r0, [sp, #28]
	.loc	13 199 14 is_stmt 0             @ lvgl/src/lv_hal/lv_hal_disp.c:199:14
	ldr	r0, [r0, #60]
.Ltmp49:
	.loc	13 199 8                        @ lvgl/src/lv_hal/lv_hal_disp.c:199:8
	cbz	r0, .LBB4_8
	b	.LBB4_7
.LBB4_7:
.Ltmp50:
	.loc	13 200 27 is_stmt 1             @ lvgl/src/lv_hal/lv_hal_disp.c:200:27
	ldr	r0, [sp, #28]
	.loc	13 200 33 is_stmt 0             @ lvgl/src/lv_hal/lv_hal_disp.c:200:33
	ldr	r0, [r0, #60]
	.loc	13 200 9                        @ lvgl/src/lv_hal/lv_hal_disp.c:200:9
	bl	lv_obj_invalidate
	b	.LBB4_8
.Ltmp51:
.LBB4_8:
	.loc	13 201 1 is_stmt 1              @ lvgl/src/lv_hal/lv_hal_disp.c:201:1
	add	sp, #32
	pop	{r4, r5, r7, pc}
.Ltmp52:
.Lfunc_end4:
	.size	lv_disp_drv_update, .Lfunc_end4-lv_disp_drv_update
	.cfi_endproc
	.cantunwind
	.fnend
                                        @ -- End function
	.section	.text.lv_disp_get_hor_res,"ax",%progbits
	.hidden	lv_disp_get_hor_res             @ -- Begin function lv_disp_get_hor_res
	.globl	lv_disp_get_hor_res
	.p2align	3
	.type	lv_disp_get_hor_res,%function
	.code	16                              @ @lv_disp_get_hor_res
	.thumb_func
lv_disp_get_hor_res:
.Lfunc_begin5:
	.loc	13 252 0                        @ lvgl/src/lv_hal/lv_hal_disp.c:252:0
	.fnstart
	.cfi_startproc
@ %bb.0:
	.save	{r7, lr}
	push	{r7, lr}
	.cfi_def_cfa_offset 8
	.cfi_offset lr, -4
	.cfi_offset r7, -8
	.pad	#8
	sub	sp, #8
	.cfi_def_cfa_offset 16
	str	r0, [sp]
.Ltmp53:
	.loc	13 253 8 prologue_end           @ lvgl/src/lv_hal/lv_hal_disp.c:253:8
	ldr	r0, [sp]
.Ltmp54:
	.loc	13 253 8 is_stmt 0              @ lvgl/src/lv_hal/lv_hal_disp.c:253:8
	cbnz	r0, .LBB5_2
	b	.LBB5_1
.LBB5_1:
.Ltmp55:
	.loc	13 253 29                       @ lvgl/src/lv_hal/lv_hal_disp.c:253:29
	bl	lv_disp_get_default
	.loc	13 253 27                       @ lvgl/src/lv_hal/lv_hal_disp.c:253:27
	str	r0, [sp]
	.loc	13 253 22                       @ lvgl/src/lv_hal/lv_hal_disp.c:253:22
	b	.LBB5_2
.Ltmp56:
.LBB5_2:
	.loc	13 255 8 is_stmt 1              @ lvgl/src/lv_hal/lv_hal_disp.c:255:8
	ldr	r0, [sp]
.Ltmp57:
	.loc	13 255 8 is_stmt 0              @ lvgl/src/lv_hal/lv_hal_disp.c:255:8
	cbnz	r0, .LBB5_4
	b	.LBB5_3
.LBB5_3:
	.loc	13 0 8                          @ lvgl/src/lv_hal/lv_hal_disp.c:0:8
	mov.w	r0, #480
.Ltmp58:
	.loc	13 256 9 is_stmt 1              @ lvgl/src/lv_hal/lv_hal_disp.c:256:9
	strh.w	r0, [sp, #6]
	b	.LBB5_7
.LBB5_4:
.Ltmp59:
	.loc	13 258 16                       @ lvgl/src/lv_hal/lv_hal_disp.c:258:16
	ldr	r0, [sp]
	.loc	13 258 29 is_stmt 0             @ lvgl/src/lv_hal/lv_hal_disp.c:258:29
	ldrh	r0, [r0, #8]
	lsrs	r0, r0, #1
	movs	r1, #1
	.loc	13 258 9                        @ lvgl/src/lv_hal/lv_hal_disp.c:258:9
	bfi	r0, r1, #1, #31
	cmp	r0, #3
	beq	.LBB5_5
	b	.LBB5_6
.LBB5_5:
.Ltmp60:
	.loc	13 261 24 is_stmt 1             @ lvgl/src/lv_hal/lv_hal_disp.c:261:24
	ldr	r0, [sp]
	.loc	13 261 37 is_stmt 0             @ lvgl/src/lv_hal/lv_hal_disp.c:261:37
	ldrh	r0, [r0, #2]
	.loc	13 261 17                       @ lvgl/src/lv_hal/lv_hal_disp.c:261:17
	strh.w	r0, [sp, #6]
	b	.LBB5_7
.LBB5_6:
	.loc	13 263 24 is_stmt 1             @ lvgl/src/lv_hal/lv_hal_disp.c:263:24
	ldr	r0, [sp]
	.loc	13 263 37 is_stmt 0             @ lvgl/src/lv_hal/lv_hal_disp.c:263:37
	ldrh	r0, [r0]
	.loc	13 263 17                       @ lvgl/src/lv_hal/lv_hal_disp.c:263:17
	strh.w	r0, [sp, #6]
	b	.LBB5_7
.Ltmp61:
.LBB5_7:
	.loc	13 266 1 is_stmt 1              @ lvgl/src/lv_hal/lv_hal_disp.c:266:1
	ldrsh.w	r0, [sp, #6]
	add	sp, #8
	pop	{r7, pc}
.Ltmp62:
.Lfunc_end5:
	.size	lv_disp_get_hor_res, .Lfunc_end5-lv_disp_get_hor_res
	.cfi_endproc
	.cantunwind
	.fnend
                                        @ -- End function
	.section	.text.lv_disp_get_ver_res,"ax",%progbits
	.hidden	lv_disp_get_ver_res             @ -- Begin function lv_disp_get_ver_res
	.globl	lv_disp_get_ver_res
	.p2align	3
	.type	lv_disp_get_ver_res,%function
	.code	16                              @ @lv_disp_get_ver_res
	.thumb_func
lv_disp_get_ver_res:
.Lfunc_begin6:
	.loc	13 274 0                        @ lvgl/src/lv_hal/lv_hal_disp.c:274:0
	.fnstart
	.cfi_startproc
@ %bb.0:
	.save	{r7, lr}
	push	{r7, lr}
	.cfi_def_cfa_offset 8
	.cfi_offset lr, -4
	.cfi_offset r7, -8
	.pad	#8
	sub	sp, #8
	.cfi_def_cfa_offset 16
	str	r0, [sp]
.Ltmp63:
	.loc	13 275 8 prologue_end           @ lvgl/src/lv_hal/lv_hal_disp.c:275:8
	ldr	r0, [sp]
.Ltmp64:
	.loc	13 275 8 is_stmt 0              @ lvgl/src/lv_hal/lv_hal_disp.c:275:8
	cbnz	r0, .LBB6_2
	b	.LBB6_1
.LBB6_1:
.Ltmp65:
	.loc	13 275 29                       @ lvgl/src/lv_hal/lv_hal_disp.c:275:29
	bl	lv_disp_get_default
	.loc	13 275 27                       @ lvgl/src/lv_hal/lv_hal_disp.c:275:27
	str	r0, [sp]
	.loc	13 275 22                       @ lvgl/src/lv_hal/lv_hal_disp.c:275:22
	b	.LBB6_2
.Ltmp66:
.LBB6_2:
	.loc	13 277 8 is_stmt 1              @ lvgl/src/lv_hal/lv_hal_disp.c:277:8
	ldr	r0, [sp]
.Ltmp67:
	.loc	13 277 8 is_stmt 0              @ lvgl/src/lv_hal/lv_hal_disp.c:277:8
	cbnz	r0, .LBB6_4
	b	.LBB6_3
.LBB6_3:
	.loc	13 0 8                          @ lvgl/src/lv_hal/lv_hal_disp.c:0:8
	mov.w	r0, #272
.Ltmp68:
	.loc	13 278 9 is_stmt 1              @ lvgl/src/lv_hal/lv_hal_disp.c:278:9
	strh.w	r0, [sp, #6]
	b	.LBB6_7
.LBB6_4:
.Ltmp69:
	.loc	13 280 16                       @ lvgl/src/lv_hal/lv_hal_disp.c:280:16
	ldr	r0, [sp]
	.loc	13 280 29 is_stmt 0             @ lvgl/src/lv_hal/lv_hal_disp.c:280:29
	ldrh	r0, [r0, #8]
	lsrs	r0, r0, #1
	movs	r1, #1
	.loc	13 280 9                        @ lvgl/src/lv_hal/lv_hal_disp.c:280:9
	bfi	r0, r1, #1, #31
	cmp	r0, #3
	beq	.LBB6_5
	b	.LBB6_6
.LBB6_5:
.Ltmp70:
	.loc	13 283 24 is_stmt 1             @ lvgl/src/lv_hal/lv_hal_disp.c:283:24
	ldr	r0, [sp]
	.loc	13 283 37 is_stmt 0             @ lvgl/src/lv_hal/lv_hal_disp.c:283:37
	ldrh	r0, [r0]
	.loc	13 283 17                       @ lvgl/src/lv_hal/lv_hal_disp.c:283:17
	strh.w	r0, [sp, #6]
	b	.LBB6_7
.LBB6_6:
	.loc	13 285 24 is_stmt 1             @ lvgl/src/lv_hal/lv_hal_disp.c:285:24
	ldr	r0, [sp]
	.loc	13 285 37 is_stmt 0             @ lvgl/src/lv_hal/lv_hal_disp.c:285:37
	ldrh	r0, [r0, #2]
	.loc	13 285 17                       @ lvgl/src/lv_hal/lv_hal_disp.c:285:17
	strh.w	r0, [sp, #6]
	b	.LBB6_7
.Ltmp71:
.LBB6_7:
	.loc	13 288 1 is_stmt 1              @ lvgl/src/lv_hal/lv_hal_disp.c:288:1
	ldrsh.w	r0, [sp, #6]
	add	sp, #8
	pop	{r7, pc}
.Ltmp72:
.Lfunc_end6:
	.size	lv_disp_get_ver_res, .Lfunc_end6-lv_disp_get_ver_res
	.cfi_endproc
	.cantunwind
	.fnend
                                        @ -- End function
	.section	.text.lv_disp_remove,"ax",%progbits
	.hidden	lv_disp_remove                  @ -- Begin function lv_disp_remove
	.globl	lv_disp_remove
	.p2align	3
	.type	lv_disp_remove,%function
	.code	16                              @ @lv_disp_remove
	.thumb_func
lv_disp_remove:
.Lfunc_begin7:
	.loc	13 208 0                        @ lvgl/src/lv_hal/lv_hal_disp.c:208:0
	.fnstart
	.cfi_startproc
@ %bb.0:
	.save	{r7, lr}
	push	{r7, lr}
	.cfi_def_cfa_offset 8
	.cfi_offset lr, -4
	.cfi_offset r7, -8
	.pad	#16
	sub	sp, #16
	.cfi_def_cfa_offset 24
	str	r0, [sp, #12]
	movs	r0, #0
.Ltmp73:
	.loc	13 209 10 prologue_end          @ lvgl/src/lv_hal/lv_hal_disp.c:209:10
	strb.w	r0, [sp, #11]
.Ltmp74:
	.loc	13 210 8                        @ lvgl/src/lv_hal/lv_hal_disp.c:210:8
	ldr	r0, [sp, #12]
	.loc	13 210 16 is_stmt 0             @ lvgl/src/lv_hal/lv_hal_disp.c:210:16
	str	r0, [sp]                        @ 4-byte Spill
	bl	lv_disp_get_default
	mov	r1, r0
.Ltmp75:
	.loc	13 210 8                        @ lvgl/src/lv_hal/lv_hal_disp.c:210:8
	ldr	r0, [sp]                        @ 4-byte Reload
	cmp	r0, r1
	bne	.LBB7_2
	b	.LBB7_1
.LBB7_1:
	.loc	13 0 8                          @ lvgl/src/lv_hal/lv_hal_disp.c:0:8
	movs	r0, #1
.Ltmp76:
	.loc	13 210 51                       @ lvgl/src/lv_hal/lv_hal_disp.c:210:51
	strb.w	r0, [sp, #11]
	.loc	13 210 39                       @ lvgl/src/lv_hal/lv_hal_disp.c:210:39
	b	.LBB7_2
.Ltmp77:
.LBB7_2:
	.loc	13 0 39                         @ lvgl/src/lv_hal/lv_hal_disp.c:0:39
	movs	r0, #0
	.loc	13 214 13 is_stmt 1             @ lvgl/src/lv_hal/lv_hal_disp.c:214:13
	bl	lv_indev_get_next
	.loc	13 214 11 is_stmt 0             @ lvgl/src/lv_hal/lv_hal_disp.c:214:11
	str	r0, [sp, #4]
	.loc	13 215 5 is_stmt 1              @ lvgl/src/lv_hal/lv_hal_disp.c:215:5
	b	.LBB7_3
.LBB7_3:                                @ =>This Inner Loop Header: Depth=1
	.loc	13 215 11 is_stmt 0             @ lvgl/src/lv_hal/lv_hal_disp.c:215:11
	ldr	r0, [sp, #4]
	.loc	13 215 5                        @ lvgl/src/lv_hal/lv_hal_disp.c:215:5
	cbz	r0, .LBB7_7
	b	.LBB7_4
.LBB7_4:                                @   in Loop: Header=BB7_3 Depth=1
.Ltmp78:
	.loc	13 216 12 is_stmt 1             @ lvgl/src/lv_hal/lv_hal_disp.c:216:12
	ldr	r0, [sp, #4]
	.loc	13 216 26 is_stmt 0             @ lvgl/src/lv_hal/lv_hal_disp.c:216:26
	ldr	r0, [r0, #12]
	.loc	13 216 34                       @ lvgl/src/lv_hal/lv_hal_disp.c:216:34
	ldr	r1, [sp, #12]
.Ltmp79:
	.loc	13 216 12                       @ lvgl/src/lv_hal/lv_hal_disp.c:216:12
	cmp	r0, r1
	bne	.LBB7_6
	b	.LBB7_5
.LBB7_5:                                @   in Loop: Header=BB7_3 Depth=1
.Ltmp80:
	.loc	13 217 13 is_stmt 1             @ lvgl/src/lv_hal/lv_hal_disp.c:217:13
	ldr	r1, [sp, #4]
	movs	r0, #0
	.loc	13 217 32 is_stmt 0             @ lvgl/src/lv_hal/lv_hal_disp.c:217:32
	str	r0, [r1, #12]
	.loc	13 218 9 is_stmt 1              @ lvgl/src/lv_hal/lv_hal_disp.c:218:9
	b	.LBB7_6
.Ltmp81:
.LBB7_6:                                @   in Loop: Header=BB7_3 Depth=1
	.loc	13 219 35                       @ lvgl/src/lv_hal/lv_hal_disp.c:219:35
	ldr	r0, [sp, #4]
	.loc	13 219 17 is_stmt 0             @ lvgl/src/lv_hal/lv_hal_disp.c:219:17
	bl	lv_indev_get_next
	.loc	13 219 15                       @ lvgl/src/lv_hal/lv_hal_disp.c:219:15
	str	r0, [sp, #4]
.Ltmp82:
	.loc	13 215 5 is_stmt 1              @ lvgl/src/lv_hal/lv_hal_disp.c:215:5
	b	.LBB7_3
.LBB7_7:
	.loc	13 222 45                       @ lvgl/src/lv_hal/lv_hal_disp.c:222:45
	ldr	r1, [sp, #12]
	.loc	13 222 5 is_stmt 0              @ lvgl/src/lv_hal/lv_hal_disp.c:222:5
	movw	r0, :lower16:_lv_disp_ll
	movt	r0, :upper16:_lv_disp_ll
	bl	_lv_ll_remove
	.loc	13 223 17 is_stmt 1             @ lvgl/src/lv_hal/lv_hal_disp.c:223:17
	ldr	r0, [sp, #12]
	.loc	13 223 5 is_stmt 0              @ lvgl/src/lv_hal/lv_hal_disp.c:223:5
	bl	lv_mem_free
.Ltmp83:
	.loc	13 225 8 is_stmt 1              @ lvgl/src/lv_hal/lv_hal_disp.c:225:8
	ldrb.w	r0, [sp, #11]
.Ltmp84:
	.loc	13 225 8 is_stmt 0              @ lvgl/src/lv_hal/lv_hal_disp.c:225:8
	lsls	r0, r0, #31
	cbz	r0, .LBB7_9
	b	.LBB7_8
.LBB7_8:
.Ltmp85:
	.loc	13 225 41                       @ lvgl/src/lv_hal/lv_hal_disp.c:225:41
	movw	r0, :lower16:_lv_disp_ll
	movt	r0, :upper16:_lv_disp_ll
	bl	_lv_ll_get_head
	.loc	13 225 21                       @ lvgl/src/lv_hal/lv_hal_disp.c:225:21
	bl	lv_disp_set_default
	b	.LBB7_9
.Ltmp86:
.LBB7_9:
	.loc	13 226 1 is_stmt 1              @ lvgl/src/lv_hal/lv_hal_disp.c:226:1
	add	sp, #16
	pop	{r7, pc}
.Ltmp87:
.Lfunc_end7:
	.size	lv_disp_remove, .Lfunc_end7-lv_disp_remove
	.cfi_endproc
	.cantunwind
	.fnend
                                        @ -- End function
	.section	.text.lv_disp_get_default,"ax",%progbits
	.hidden	lv_disp_get_default             @ -- Begin function lv_disp_get_default
	.globl	lv_disp_get_default
	.p2align	3
	.type	lv_disp_get_default,%function
	.code	16                              @ @lv_disp_get_default
	.thumb_func
lv_disp_get_default:
.Lfunc_begin8:
	.loc	13 242 0                        @ lvgl/src/lv_hal/lv_hal_disp.c:242:0
	.fnstart
	.cfi_startproc
@ %bb.0:
	.loc	13 243 12 prologue_end          @ lvgl/src/lv_hal/lv_hal_disp.c:243:12
	movw	r0, :lower16:disp_def
	movt	r0, :upper16:disp_def
	ldr	r0, [r0]
	.loc	13 243 5 is_stmt 0              @ lvgl/src/lv_hal/lv_hal_disp.c:243:5
	bx	lr
.Ltmp88:
.Lfunc_end8:
	.size	lv_disp_get_default, .Lfunc_end8-lv_disp_get_default
	.cfi_endproc
	.cantunwind
	.fnend
                                        @ -- End function
	.section	.text.lv_disp_set_default,"ax",%progbits
	.hidden	lv_disp_set_default             @ -- Begin function lv_disp_set_default
	.globl	lv_disp_set_default
	.p2align	3
	.type	lv_disp_set_default,%function
	.code	16                              @ @lv_disp_set_default
	.thumb_func
lv_disp_set_default:
.Lfunc_begin9:
	.loc	13 233 0 is_stmt 1              @ lvgl/src/lv_hal/lv_hal_disp.c:233:0
	.fnstart
	.cfi_startproc
@ %bb.0:
	.pad	#4
	sub	sp, #4
	.cfi_def_cfa_offset 4
	str	r0, [sp]
.Ltmp89:
	.loc	13 234 16 prologue_end          @ lvgl/src/lv_hal/lv_hal_disp.c:234:16
	ldr	r0, [sp]
	.loc	13 234 14 is_stmt 0             @ lvgl/src/lv_hal/lv_hal_disp.c:234:14
	movw	r1, :lower16:disp_def
	movt	r1, :upper16:disp_def
	str	r0, [r1]
	.loc	13 235 1 is_stmt 1              @ lvgl/src/lv_hal/lv_hal_disp.c:235:1
	add	sp, #4
	bx	lr
.Ltmp90:
.Lfunc_end9:
	.size	lv_disp_set_default, .Lfunc_end9-lv_disp_set_default
	.cfi_endproc
	.cantunwind
	.fnend
                                        @ -- End function
	.section	.text.lv_disp_get_antialiasing,"ax",%progbits
	.hidden	lv_disp_get_antialiasing        @ -- Begin function lv_disp_get_antialiasing
	.globl	lv_disp_get_antialiasing
	.p2align	3
	.type	lv_disp_get_antialiasing,%function
	.code	16                              @ @lv_disp_get_antialiasing
	.thumb_func
lv_disp_get_antialiasing:
.Lfunc_begin10:
	.loc	13 296 0                        @ lvgl/src/lv_hal/lv_hal_disp.c:296:0
	.fnstart
	.cfi_startproc
@ %bb.0:
	.save	{r7, lr}
	push	{r7, lr}
	.cfi_def_cfa_offset 8
	.cfi_offset lr, -4
	.cfi_offset r7, -8
	.pad	#8
	sub	sp, #8
	.cfi_def_cfa_offset 16
	str	r0, [sp]
.Ltmp91:
	.loc	13 301 8 prologue_end           @ lvgl/src/lv_hal/lv_hal_disp.c:301:8
	ldr	r0, [sp]
.Ltmp92:
	.loc	13 301 8 is_stmt 0              @ lvgl/src/lv_hal/lv_hal_disp.c:301:8
	cbnz	r0, .LBB10_2
	b	.LBB10_1
.LBB10_1:
.Ltmp93:
	.loc	13 301 29                       @ lvgl/src/lv_hal/lv_hal_disp.c:301:29
	bl	lv_disp_get_default
	.loc	13 301 27                       @ lvgl/src/lv_hal/lv_hal_disp.c:301:27
	str	r0, [sp]
	.loc	13 301 22                       @ lvgl/src/lv_hal/lv_hal_disp.c:301:22
	b	.LBB10_2
.Ltmp94:
.LBB10_2:
	.loc	13 302 8 is_stmt 1              @ lvgl/src/lv_hal/lv_hal_disp.c:302:8
	ldr	r0, [sp]
.Ltmp95:
	.loc	13 302 8 is_stmt 0              @ lvgl/src/lv_hal/lv_hal_disp.c:302:8
	cbnz	r0, .LBB10_4
	b	.LBB10_3
.LBB10_3:
	.loc	13 0 8                          @ lvgl/src/lv_hal/lv_hal_disp.c:0:8
	movs	r0, #0
.Ltmp96:
	.loc	13 302 22                       @ lvgl/src/lv_hal/lv_hal_disp.c:302:22
	strb.w	r0, [sp, #7]
	b	.LBB10_5
.Ltmp97:
.LBB10_4:
	.loc	13 304 12 is_stmt 1             @ lvgl/src/lv_hal/lv_hal_disp.c:304:12
	ldr	r0, [sp]
	.loc	13 304 25 is_stmt 0             @ lvgl/src/lv_hal/lv_hal_disp.c:304:25
	ldrh	r0, [r0, #8]
	.loc	13 304 5                        @ lvgl/src/lv_hal/lv_hal_disp.c:304:5
	and	r0, r0, #1
	strb.w	r0, [sp, #7]
	b	.LBB10_5
.LBB10_5:
	.loc	13 306 1 is_stmt 1              @ lvgl/src/lv_hal/lv_hal_disp.c:306:1
	ldrb.w	r0, [sp, #7]
	add	sp, #8
	pop	{r7, pc}
.Ltmp98:
.Lfunc_end10:
	.size	lv_disp_get_antialiasing, .Lfunc_end10-lv_disp_get_antialiasing
	.cfi_endproc
	.cantunwind
	.fnend
                                        @ -- End function
	.section	.text.lv_disp_get_dpi,"ax",%progbits
	.hidden	lv_disp_get_dpi                 @ -- Begin function lv_disp_get_dpi
	.globl	lv_disp_get_dpi
	.p2align	3
	.type	lv_disp_get_dpi,%function
	.code	16                              @ @lv_disp_get_dpi
	.thumb_func
lv_disp_get_dpi:
.Lfunc_begin11:
	.loc	13 314 0                        @ lvgl/src/lv_hal/lv_hal_disp.c:314:0
	.fnstart
	.cfi_startproc
@ %bb.0:
	.save	{r7, lr}
	push	{r7, lr}
	.cfi_def_cfa_offset 8
	.cfi_offset lr, -4
	.cfi_offset r7, -8
	.pad	#8
	sub	sp, #8
	.cfi_def_cfa_offset 16
	str	r0, [sp]
.Ltmp99:
	.loc	13 315 8 prologue_end           @ lvgl/src/lv_hal/lv_hal_disp.c:315:8
	ldr	r0, [sp]
.Ltmp100:
	.loc	13 315 8 is_stmt 0              @ lvgl/src/lv_hal/lv_hal_disp.c:315:8
	cbnz	r0, .LBB11_2
	b	.LBB11_1
.LBB11_1:
.Ltmp101:
	.loc	13 315 29                       @ lvgl/src/lv_hal/lv_hal_disp.c:315:29
	bl	lv_disp_get_default
	.loc	13 315 27                       @ lvgl/src/lv_hal/lv_hal_disp.c:315:27
	str	r0, [sp]
	.loc	13 315 22                       @ lvgl/src/lv_hal/lv_hal_disp.c:315:22
	b	.LBB11_2
.Ltmp102:
.LBB11_2:
	.loc	13 316 8 is_stmt 1              @ lvgl/src/lv_hal/lv_hal_disp.c:316:8
	ldr	r0, [sp]
.Ltmp103:
	.loc	13 316 8 is_stmt 0              @ lvgl/src/lv_hal/lv_hal_disp.c:316:8
	cbnz	r0, .LBB11_4
	b	.LBB11_3
.LBB11_3:
	.loc	13 0 8                          @ lvgl/src/lv_hal/lv_hal_disp.c:0:8
	movs	r0, #130
.Ltmp104:
	.loc	13 316 22                       @ lvgl/src/lv_hal/lv_hal_disp.c:316:22
	strh.w	r0, [sp, #6]
	b	.LBB11_5
.Ltmp105:
.LBB11_4:
	.loc	13 317 12 is_stmt 1             @ lvgl/src/lv_hal/lv_hal_disp.c:317:12
	ldr	r0, [sp]
	.loc	13 317 25 is_stmt 0             @ lvgl/src/lv_hal/lv_hal_disp.c:317:25
	ldrh	r0, [r0, #8]
	ubfx	r0, r0, #4, #10
	.loc	13 317 5                        @ lvgl/src/lv_hal/lv_hal_disp.c:317:5
	strh.w	r0, [sp, #6]
	b	.LBB11_5
.LBB11_5:
	.loc	13 318 1 is_stmt 1              @ lvgl/src/lv_hal/lv_hal_disp.c:318:1
	ldrsh.w	r0, [sp, #6]
	add	sp, #8
	pop	{r7, pc}
.Ltmp106:
.Lfunc_end11:
	.size	lv_disp_get_dpi, .Lfunc_end11-lv_disp_get_dpi
	.cfi_endproc
	.cantunwind
	.fnend
                                        @ -- End function
	.section	.text.lv_disp_get_size_category,"ax",%progbits
	.hidden	lv_disp_get_size_category       @ -- Begin function lv_disp_get_size_category
	.globl	lv_disp_get_size_category
	.p2align	3
	.type	lv_disp_get_size_category,%function
	.code	16                              @ @lv_disp_get_size_category
	.thumb_func
lv_disp_get_size_category:
.Lfunc_begin12:
	.loc	13 326 0                        @ lvgl/src/lv_hal/lv_hal_disp.c:326:0
	.fnstart
	.cfi_startproc
@ %bb.0:
	.save	{r7, lr}
	push	{r7, lr}
	.cfi_def_cfa_offset 8
	.cfi_offset lr, -4
	.cfi_offset r7, -8
	.pad	#16
	sub	sp, #16
	.cfi_def_cfa_offset 24
	str	r0, [sp, #8]
.Ltmp107:
	.loc	13 327 8 prologue_end           @ lvgl/src/lv_hal/lv_hal_disp.c:327:8
	ldr	r0, [sp, #8]
.Ltmp108:
	.loc	13 327 8 is_stmt 0              @ lvgl/src/lv_hal/lv_hal_disp.c:327:8
	cbnz	r0, .LBB12_2
	b	.LBB12_1
.LBB12_1:
.Ltmp109:
	.loc	13 327 29                       @ lvgl/src/lv_hal/lv_hal_disp.c:327:29
	bl	lv_disp_get_default
	.loc	13 327 27                       @ lvgl/src/lv_hal/lv_hal_disp.c:327:27
	str	r0, [sp, #8]
	.loc	13 327 22                       @ lvgl/src/lv_hal/lv_hal_disp.c:327:22
	b	.LBB12_2
.Ltmp110:
.LBB12_2:
	.loc	13 330 8 is_stmt 1              @ lvgl/src/lv_hal/lv_hal_disp.c:330:8
	ldr	r0, [sp, #8]
.Ltmp111:
	.loc	13 330 8 is_stmt 0              @ lvgl/src/lv_hal/lv_hal_disp.c:330:8
	cbnz	r0, .LBB12_4
	b	.LBB12_3
.LBB12_3:
	.loc	13 0 8                          @ lvgl/src/lv_hal/lv_hal_disp.c:0:8
	mov.w	r0, #480
.Ltmp112:
	.loc	13 330 24                       @ lvgl/src/lv_hal/lv_hal_disp.c:330:24
	str	r0, [sp, #4]
	.loc	13 330 22                       @ lvgl/src/lv_hal/lv_hal_disp.c:330:22
	b	.LBB12_5
.LBB12_4:
	.loc	13 331 34 is_stmt 1             @ lvgl/src/lv_hal/lv_hal_disp.c:331:34
	ldr	r0, [sp, #8]
	.loc	13 331 14 is_stmt 0             @ lvgl/src/lv_hal/lv_hal_disp.c:331:14
	bl	lv_disp_get_hor_res
	.loc	13 331 12                       @ lvgl/src/lv_hal/lv_hal_disp.c:331:12
	str	r0, [sp, #4]
	b	.LBB12_5
.Ltmp113:
.LBB12_5:
	.loc	13 333 36 is_stmt 1             @ lvgl/src/lv_hal/lv_hal_disp.c:333:36
	ldr	r0, [sp, #8]
	.loc	13 333 20 is_stmt 0             @ lvgl/src/lv_hal/lv_hal_disp.c:333:20
	bl	lv_disp_get_dpi
	.loc	13 333 14                       @ lvgl/src/lv_hal/lv_hal_disp.c:333:14
	str	r0, [sp]
	.loc	13 335 9 is_stmt 1              @ lvgl/src/lv_hal/lv_hal_disp.c:335:9
	ldr	r0, [sp, #4]
	.loc	13 335 11 is_stmt 0             @ lvgl/src/lv_hal/lv_hal_disp.c:335:11
	add.w	r0, r0, r0, lsl #2
	lsls	r0, r0, #1
	.loc	13 335 18                       @ lvgl/src/lv_hal/lv_hal_disp.c:335:18
	ldr	r1, [sp]
	.loc	13 335 16                       @ lvgl/src/lv_hal/lv_hal_disp.c:335:16
	udiv	r0, r0, r1
	.loc	13 335 7                        @ lvgl/src/lv_hal/lv_hal_disp.c:335:7
	str	r0, [sp, #4]
.Ltmp114:
	.loc	13 337 8 is_stmt 1              @ lvgl/src/lv_hal/lv_hal_disp.c:337:8
	ldr	r0, [sp, #4]
.Ltmp115:
	.loc	13 337 8 is_stmt 0              @ lvgl/src/lv_hal/lv_hal_disp.c:337:8
	cmp	r0, #29
	bhi	.LBB12_7
	b	.LBB12_6
.LBB12_6:
	.loc	13 0 8                          @ lvgl/src/lv_hal/lv_hal_disp.c:0:8
	movs	r0, #0
.Ltmp116:
	.loc	13 337 33                       @ lvgl/src/lv_hal/lv_hal_disp.c:337:33
	strb.w	r0, [sp, #15]
	b	.LBB12_12
.Ltmp117:
.LBB12_7:
	.loc	13 338 8 is_stmt 1              @ lvgl/src/lv_hal/lv_hal_disp.c:338:8
	ldr	r0, [sp, #4]
.Ltmp118:
	.loc	13 338 8 is_stmt 0              @ lvgl/src/lv_hal/lv_hal_disp.c:338:8
	cmp	r0, #49
	bhi	.LBB12_9
	b	.LBB12_8
.LBB12_8:
	.loc	13 0 8                          @ lvgl/src/lv_hal/lv_hal_disp.c:0:8
	movs	r0, #1
.Ltmp119:
	.loc	13 338 34                       @ lvgl/src/lv_hal/lv_hal_disp.c:338:34
	strb.w	r0, [sp, #15]
	b	.LBB12_12
.Ltmp120:
.LBB12_9:
	.loc	13 339 8 is_stmt 1              @ lvgl/src/lv_hal/lv_hal_disp.c:339:8
	ldr	r0, [sp, #4]
.Ltmp121:
	.loc	13 339 8 is_stmt 0              @ lvgl/src/lv_hal/lv_hal_disp.c:339:8
	cmp	r0, #69
	bhi	.LBB12_11
	b	.LBB12_10
.LBB12_10:
	.loc	13 0 8                          @ lvgl/src/lv_hal/lv_hal_disp.c:0:8
	movs	r0, #2
.Ltmp122:
	.loc	13 339 33                       @ lvgl/src/lv_hal/lv_hal_disp.c:339:33
	strb.w	r0, [sp, #15]
	b	.LBB12_12
.LBB12_11:
	.loc	13 0 33                         @ lvgl/src/lv_hal/lv_hal_disp.c:0:33
	movs	r0, #3
	.loc	13 340 10 is_stmt 1             @ lvgl/src/lv_hal/lv_hal_disp.c:340:10
	strb.w	r0, [sp, #15]
	b	.LBB12_12
.Ltmp123:
.LBB12_12:
	.loc	13 341 1                        @ lvgl/src/lv_hal/lv_hal_disp.c:341:1
	ldrb.w	r0, [sp, #15]
	add	sp, #16
	pop	{r7, pc}
.Ltmp124:
.Lfunc_end12:
	.size	lv_disp_get_size_category, .Lfunc_end12-lv_disp_get_size_category
	.cfi_endproc
	.cantunwind
	.fnend
                                        @ -- End function
	.section	.text.lv_disp_flush_ready,"ax",%progbits
	.hidden	lv_disp_flush_ready             @ -- Begin function lv_disp_flush_ready
	.globl	lv_disp_flush_ready
	.p2align	3
	.type	lv_disp_flush_ready,%function
	.code	16                              @ @lv_disp_flush_ready
	.thumb_func
lv_disp_flush_ready:
.Lfunc_begin13:
	.loc	13 348 0                        @ lvgl/src/lv_hal/lv_hal_disp.c:348:0
	.fnstart
	.cfi_startproc
@ %bb.0:
	.pad	#4
	sub	sp, #4
	.cfi_def_cfa_offset 4
	str	r0, [sp]
.Ltmp125:
	.loc	13 356 5 prologue_end           @ lvgl/src/lv_hal/lv_hal_disp.c:356:5
	ldr	r0, [sp]
	.loc	13 356 15 is_stmt 0             @ lvgl/src/lv_hal/lv_hal_disp.c:356:15
	ldr	r1, [r0, #4]
	movs	r0, #0
	.loc	13 356 32                       @ lvgl/src/lv_hal/lv_hal_disp.c:356:32
	str	r0, [r1, #24]
	.loc	13 357 5 is_stmt 1              @ lvgl/src/lv_hal/lv_hal_disp.c:357:5
	ldr	r1, [sp]
	.loc	13 357 15 is_stmt 0             @ lvgl/src/lv_hal/lv_hal_disp.c:357:15
	ldr	r1, [r1, #4]
	.loc	13 357 37                       @ lvgl/src/lv_hal/lv_hal_disp.c:357:37
	str	r0, [r1, #28]
	.loc	13 358 1 is_stmt 1              @ lvgl/src/lv_hal/lv_hal_disp.c:358:1
	add	sp, #4
	bx	lr
.Ltmp126:
.Lfunc_end13:
	.size	lv_disp_flush_ready, .Lfunc_end13-lv_disp_flush_ready
	.cfi_endproc
	.cantunwind
	.fnend
                                        @ -- End function
	.section	.text.lv_disp_flush_is_last,"ax",%progbits
	.hidden	lv_disp_flush_is_last           @ -- Begin function lv_disp_flush_is_last
	.globl	lv_disp_flush_is_last
	.p2align	3
	.type	lv_disp_flush_is_last,%function
	.code	16                              @ @lv_disp_flush_is_last
	.thumb_func
lv_disp_flush_is_last:
.Lfunc_begin14:
	.loc	13 367 0                        @ lvgl/src/lv_hal/lv_hal_disp.c:367:0
	.fnstart
	.cfi_startproc
@ %bb.0:
	.pad	#4
	sub	sp, #4
	.cfi_def_cfa_offset 4
	str	r0, [sp]
.Ltmp127:
	.loc	13 368 12 prologue_end          @ lvgl/src/lv_hal/lv_hal_disp.c:368:12
	ldr	r0, [sp]
	.loc	13 368 22 is_stmt 0             @ lvgl/src/lv_hal/lv_hal_disp.c:368:22
	ldr	r0, [r0, #4]
	.loc	13 368 30                       @ lvgl/src/lv_hal/lv_hal_disp.c:368:30
	ldr	r0, [r0, #28]
	.loc	13 368 12                       @ lvgl/src/lv_hal/lv_hal_disp.c:368:12
	cmp	r0, #0
	it	ne
	movne	r0, #1
	.loc	13 368 5                        @ lvgl/src/lv_hal/lv_hal_disp.c:368:5
	add	sp, #4
	bx	lr
.Ltmp128:
.Lfunc_end14:
	.size	lv_disp_flush_is_last, .Lfunc_end14-lv_disp_flush_is_last
	.cfi_endproc
	.cantunwind
	.fnend
                                        @ -- End function
	.section	.text.lv_disp_get_next,"ax",%progbits
	.hidden	lv_disp_get_next                @ -- Begin function lv_disp_get_next
	.globl	lv_disp_get_next
	.p2align	3
	.type	lv_disp_get_next,%function
	.code	16                              @ @lv_disp_get_next
	.thumb_func
lv_disp_get_next:
.Lfunc_begin15:
	.loc	13 377 0 is_stmt 1              @ lvgl/src/lv_hal/lv_hal_disp.c:377:0
	.fnstart
	.cfi_startproc
@ %bb.0:
	.save	{r7, lr}
	push	{r7, lr}
	.cfi_def_cfa_offset 8
	.cfi_offset lr, -4
	.cfi_offset r7, -8
	.pad	#8
	sub	sp, #8
	.cfi_def_cfa_offset 16
	str	r0, [sp]
.Ltmp129:
	.loc	13 378 8 prologue_end           @ lvgl/src/lv_hal/lv_hal_disp.c:378:8
	ldr	r0, [sp]
.Ltmp130:
	.loc	13 378 8 is_stmt 0              @ lvgl/src/lv_hal/lv_hal_disp.c:378:8
	cbnz	r0, .LBB15_2
	b	.LBB15_1
.LBB15_1:
.Ltmp131:
	.loc	13 379 16 is_stmt 1             @ lvgl/src/lv_hal/lv_hal_disp.c:379:16
	movw	r0, :lower16:_lv_disp_ll
	movt	r0, :upper16:_lv_disp_ll
	bl	_lv_ll_get_head
	.loc	13 379 9 is_stmt 0              @ lvgl/src/lv_hal/lv_hal_disp.c:379:9
	str	r0, [sp, #4]
	b	.LBB15_3
.LBB15_2:
	.loc	13 381 58 is_stmt 1             @ lvgl/src/lv_hal/lv_hal_disp.c:381:58
	ldr	r1, [sp]
	.loc	13 381 16 is_stmt 0             @ lvgl/src/lv_hal/lv_hal_disp.c:381:16
	movw	r0, :lower16:_lv_disp_ll
	movt	r0, :upper16:_lv_disp_ll
	bl	_lv_ll_get_next
	.loc	13 381 9                        @ lvgl/src/lv_hal/lv_hal_disp.c:381:9
	str	r0, [sp, #4]
	b	.LBB15_3
.Ltmp132:
.LBB15_3:
	.loc	13 382 1 is_stmt 1              @ lvgl/src/lv_hal/lv_hal_disp.c:382:1
	ldr	r0, [sp, #4]
	add	sp, #8
	pop	{r7, pc}
.Ltmp133:
.Lfunc_end15:
	.size	lv_disp_get_next, .Lfunc_end15-lv_disp_get_next
	.cfi_endproc
	.cantunwind
	.fnend
                                        @ -- End function
	.section	.text.lv_disp_get_buf,"ax",%progbits
	.hidden	lv_disp_get_buf                 @ -- Begin function lv_disp_get_buf
	.globl	lv_disp_get_buf
	.p2align	3
	.type	lv_disp_get_buf,%function
	.code	16                              @ @lv_disp_get_buf
	.thumb_func
lv_disp_get_buf:
.Lfunc_begin16:
	.loc	13 390 0                        @ lvgl/src/lv_hal/lv_hal_disp.c:390:0
	.fnstart
	.cfi_startproc
@ %bb.0:
	.pad	#4
	sub	sp, #4
	.cfi_def_cfa_offset 4
	str	r0, [sp]
.Ltmp134:
	.loc	13 391 12 prologue_end          @ lvgl/src/lv_hal/lv_hal_disp.c:391:12
	ldr	r0, [sp]
	.loc	13 391 25 is_stmt 0             @ lvgl/src/lv_hal/lv_hal_disp.c:391:25
	ldr	r0, [r0, #4]
	.loc	13 391 5                        @ lvgl/src/lv_hal/lv_hal_disp.c:391:5
	add	sp, #4
	bx	lr
.Ltmp135:
.Lfunc_end16:
	.size	lv_disp_get_buf, .Lfunc_end16-lv_disp_get_buf
	.cfi_endproc
	.cantunwind
	.fnend
                                        @ -- End function
	.section	.text.lv_disp_get_inv_buf_size,"ax",%progbits
	.hidden	lv_disp_get_inv_buf_size        @ -- Begin function lv_disp_get_inv_buf_size
	.globl	lv_disp_get_inv_buf_size
	.p2align	3
	.type	lv_disp_get_inv_buf_size,%function
	.code	16                              @ @lv_disp_get_inv_buf_size
	.thumb_func
lv_disp_get_inv_buf_size:
.Lfunc_begin17:
	.loc	13 399 0 is_stmt 1              @ lvgl/src/lv_hal/lv_hal_disp.c:399:0
	.fnstart
	.cfi_startproc
@ %bb.0:
	.pad	#4
	sub	sp, #4
	.cfi_def_cfa_offset 4
	str	r0, [sp]
.Ltmp136:
	.loc	13 400 12 prologue_end          @ lvgl/src/lv_hal/lv_hal_disp.c:400:12
	ldr	r0, [sp]
	.loc	13 400 18 is_stmt 0             @ lvgl/src/lv_hal/lv_hal_disp.c:400:18
	ldrh.w	r0, [r0, #382]
	bfc	r0, #10, #22
	.loc	13 400 5                        @ lvgl/src/lv_hal/lv_hal_disp.c:400:5
	add	sp, #4
	bx	lr
.Ltmp137:
.Lfunc_end17:
	.size	lv_disp_get_inv_buf_size, .Lfunc_end17-lv_disp_get_inv_buf_size
	.cfi_endproc
	.cantunwind
	.fnend
                                        @ -- End function
	.section	.text._lv_disp_pop_from_inv_buf,"ax",%progbits
	.hidden	_lv_disp_pop_from_inv_buf       @ -- Begin function _lv_disp_pop_from_inv_buf
	.globl	_lv_disp_pop_from_inv_buf
	.p2align	3
	.type	_lv_disp_pop_from_inv_buf,%function
	.code	16                              @ @_lv_disp_pop_from_inv_buf
	.thumb_func
_lv_disp_pop_from_inv_buf:
.Lfunc_begin18:
	.loc	13 408 0 is_stmt 1              @ lvgl/src/lv_hal/lv_hal_disp.c:408:0
	.fnstart
	.cfi_startproc
@ %bb.0:
	.pad	#8
	sub	sp, #8
	.cfi_def_cfa_offset 8
                                        @ kill: def $r2 killed $r1
	str	r0, [sp, #4]
	strh.w	r1, [sp, #2]
.Ltmp138:
	.loc	13 410 8 prologue_end           @ lvgl/src/lv_hal/lv_hal_disp.c:410:8
	ldr	r0, [sp, #4]
	.loc	13 410 14 is_stmt 0             @ lvgl/src/lv_hal/lv_hal_disp.c:410:14
	ldrh.w	r0, [r0, #382]
	bfc	r0, #10, #22
	.loc	13 410 22                       @ lvgl/src/lv_hal/lv_hal_disp.c:410:22
	ldrh.w	r1, [sp, #2]
.Ltmp139:
	.loc	13 410 8                        @ lvgl/src/lv_hal/lv_hal_disp.c:410:8
	cmp	r0, r1
	bge	.LBB18_2
	b	.LBB18_1
.LBB18_1:
.Ltmp140:
	.loc	13 411 9 is_stmt 1              @ lvgl/src/lv_hal/lv_hal_disp.c:411:9
	ldr	r1, [sp, #4]
	.loc	13 411 21 is_stmt 0             @ lvgl/src/lv_hal/lv_hal_disp.c:411:21
	ldrh.w	r0, [r1, #382]
	and	r0, r0, #64512
	strh.w	r0, [r1, #382]
	.loc	13 411 9                        @ lvgl/src/lv_hal/lv_hal_disp.c:411:9
	b	.LBB18_3
.LBB18_2:
	.loc	13 413 24 is_stmt 1             @ lvgl/src/lv_hal/lv_hal_disp.c:413:24
	ldrh.w	r2, [sp, #2]
	.loc	13 413 9 is_stmt 0              @ lvgl/src/lv_hal/lv_hal_disp.c:413:9
	ldr	r1, [sp, #4]
	.loc	13 413 21                       @ lvgl/src/lv_hal/lv_hal_disp.c:413:21
	ldrh.w	r0, [r1, #382]
	subs	r2, r0, r2
	bfc	r2, #10, #22
	and	r0, r0, #64512
	add	r0, r2
	strh.w	r0, [r1, #382]
	b	.LBB18_3
.Ltmp141:
.LBB18_3:
	.loc	13 414 1 is_stmt 1              @ lvgl/src/lv_hal/lv_hal_disp.c:414:1
	add	sp, #8
	bx	lr
.Ltmp142:
.Lfunc_end18:
	.size	_lv_disp_pop_from_inv_buf, .Lfunc_end18-_lv_disp_pop_from_inv_buf
	.cfi_endproc
	.cantunwind
	.fnend
                                        @ -- End function
	.section	.text.lv_disp_is_double_buf,"ax",%progbits
	.hidden	lv_disp_is_double_buf           @ -- Begin function lv_disp_is_double_buf
	.globl	lv_disp_is_double_buf
	.p2align	3
	.type	lv_disp_is_double_buf,%function
	.code	16                              @ @lv_disp_is_double_buf
	.thumb_func
lv_disp_is_double_buf:
.Lfunc_begin19:
	.loc	13 422 0                        @ lvgl/src/lv_hal/lv_hal_disp.c:422:0
	.fnstart
	.cfi_startproc
@ %bb.0:
	.pad	#8
	sub	sp, #8
	.cfi_def_cfa_offset 8
	str	r0, [sp]
.Ltmp143:
	.loc	13 423 8 prologue_end           @ lvgl/src/lv_hal/lv_hal_disp.c:423:8
	ldr	r0, [sp]
	.loc	13 423 21 is_stmt 0             @ lvgl/src/lv_hal/lv_hal_disp.c:423:21
	ldr	r0, [r0, #4]
	.loc	13 423 29                       @ lvgl/src/lv_hal/lv_hal_disp.c:423:29
	ldr	r0, [r0]
	.loc	13 423 34                       @ lvgl/src/lv_hal/lv_hal_disp.c:423:34
	cbz	r0, .LBB19_3
	b	.LBB19_1
.LBB19_1:
	.loc	13 423 37                       @ lvgl/src/lv_hal/lv_hal_disp.c:423:37
	ldr	r0, [sp]
	.loc	13 423 50                       @ lvgl/src/lv_hal/lv_hal_disp.c:423:50
	ldr	r0, [r0, #4]
	.loc	13 423 58                       @ lvgl/src/lv_hal/lv_hal_disp.c:423:58
	ldr	r0, [r0, #4]
.Ltmp144:
	.loc	13 423 8                        @ lvgl/src/lv_hal/lv_hal_disp.c:423:8
	cbz	r0, .LBB19_3
	b	.LBB19_2
.LBB19_2:
	.loc	13 0 8                          @ lvgl/src/lv_hal/lv_hal_disp.c:0:8
	movs	r0, #1
.Ltmp145:
	.loc	13 424 9 is_stmt 1              @ lvgl/src/lv_hal/lv_hal_disp.c:424:9
	strb.w	r0, [sp, #7]
	b	.LBB19_4
.LBB19_3:
	.loc	13 0 9 is_stmt 0                @ lvgl/src/lv_hal/lv_hal_disp.c:0:9
	movs	r0, #0
	.loc	13 426 9 is_stmt 1              @ lvgl/src/lv_hal/lv_hal_disp.c:426:9
	strb.w	r0, [sp, #7]
	b	.LBB19_4
.Ltmp146:
.LBB19_4:
	.loc	13 427 1                        @ lvgl/src/lv_hal/lv_hal_disp.c:427:1
	ldrb.w	r0, [sp, #7]
	add	sp, #8
	bx	lr
.Ltmp147:
.Lfunc_end19:
	.size	lv_disp_is_double_buf, .Lfunc_end19-lv_disp_is_double_buf
	.cfi_endproc
	.cantunwind
	.fnend
                                        @ -- End function
	.section	.text.lv_disp_set_rotation,"ax",%progbits
	.hidden	lv_disp_set_rotation            @ -- Begin function lv_disp_set_rotation
	.globl	lv_disp_set_rotation
	.p2align	3
	.type	lv_disp_set_rotation,%function
	.code	16                              @ @lv_disp_set_rotation
	.thumb_func
lv_disp_set_rotation:
.Lfunc_begin20:
	.loc	13 453 0                        @ lvgl/src/lv_hal/lv_hal_disp.c:453:0
	.fnstart
	.cfi_startproc
@ %bb.0:
	.save	{r7, lr}
	push	{r7, lr}
	.cfi_def_cfa_offset 8
	.cfi_offset lr, -4
	.cfi_offset r7, -8
	.pad	#8
	sub	sp, #8
	.cfi_def_cfa_offset 16
                                        @ kill: def $r2 killed $r1
	str	r0, [sp, #4]
	strb.w	r1, [sp, #3]
.Ltmp148:
	.loc	13 454 8 prologue_end           @ lvgl/src/lv_hal/lv_hal_disp.c:454:8
	ldr	r0, [sp, #4]
.Ltmp149:
	.loc	13 454 8 is_stmt 0              @ lvgl/src/lv_hal/lv_hal_disp.c:454:8
	cbnz	r0, .LBB20_2
	b	.LBB20_1
.LBB20_1:
.Ltmp150:
	.loc	13 454 29                       @ lvgl/src/lv_hal/lv_hal_disp.c:454:29
	bl	lv_disp_get_default
	.loc	13 454 27                       @ lvgl/src/lv_hal/lv_hal_disp.c:454:27
	str	r0, [sp, #4]
	.loc	13 454 22                       @ lvgl/src/lv_hal/lv_hal_disp.c:454:22
	b	.LBB20_2
.Ltmp151:
.LBB20_2:
	.loc	13 456 5 is_stmt 1              @ lvgl/src/lv_hal/lv_hal_disp.c:456:5
	ldr	r1, [sp, #4]
	.loc	13 456 26 is_stmt 0             @ lvgl/src/lv_hal/lv_hal_disp.c:456:26
	ldrb.w	r2, [sp, #3]
	ldrh	r0, [r1, #8]
	and	r2, r2, #3
	bic	r0, r0, #6
	orr.w	r0, r0, r2, lsl #1
	strh	r0, [r1, #8]
	.loc	13 457 24 is_stmt 1             @ lvgl/src/lv_hal/lv_hal_disp.c:457:24
	ldr	r1, [sp, #4]
	.loc	13 457 5 is_stmt 0              @ lvgl/src/lv_hal/lv_hal_disp.c:457:5
	mov	r0, r1
	bl	lv_disp_drv_update
	.loc	13 458 1 is_stmt 1              @ lvgl/src/lv_hal/lv_hal_disp.c:458:1
	add	sp, #8
	pop	{r7, pc}
.Ltmp152:
.Lfunc_end20:
	.size	lv_disp_set_rotation, .Lfunc_end20-lv_disp_set_rotation
	.cfi_endproc
	.cantunwind
	.fnend
                                        @ -- End function
	.section	.text.lv_disp_get_rotation,"ax",%progbits
	.hidden	lv_disp_get_rotation            @ -- Begin function lv_disp_get_rotation
	.globl	lv_disp_get_rotation
	.p2align	3
	.type	lv_disp_get_rotation,%function
	.code	16                              @ @lv_disp_get_rotation
	.thumb_func
lv_disp_get_rotation:
.Lfunc_begin21:
	.loc	13 466 0                        @ lvgl/src/lv_hal/lv_hal_disp.c:466:0
	.fnstart
	.cfi_startproc
@ %bb.0:
	.save	{r7, lr}
	push	{r7, lr}
	.cfi_def_cfa_offset 8
	.cfi_offset lr, -4
	.cfi_offset r7, -8
	.pad	#8
	sub	sp, #8
	.cfi_def_cfa_offset 16
	str	r0, [sp, #4]
.Ltmp153:
	.loc	13 467 8 prologue_end           @ lvgl/src/lv_hal/lv_hal_disp.c:467:8
	ldr	r0, [sp, #4]
.Ltmp154:
	.loc	13 467 8 is_stmt 0              @ lvgl/src/lv_hal/lv_hal_disp.c:467:8
	cbnz	r0, .LBB21_2
	b	.LBB21_1
.LBB21_1:
.Ltmp155:
	.loc	13 467 29                       @ lvgl/src/lv_hal/lv_hal_disp.c:467:29
	bl	lv_disp_get_default
	.loc	13 467 27                       @ lvgl/src/lv_hal/lv_hal_disp.c:467:27
	str	r0, [sp, #4]
	.loc	13 467 22                       @ lvgl/src/lv_hal/lv_hal_disp.c:467:22
	b	.LBB21_2
.Ltmp156:
.LBB21_2:
	.loc	13 469 12 is_stmt 1             @ lvgl/src/lv_hal/lv_hal_disp.c:469:12
	ldr	r0, [sp, #4]
	.loc	13 469 25 is_stmt 0             @ lvgl/src/lv_hal/lv_hal_disp.c:469:25
	ldrh	r0, [r0, #8]
	ubfx	r0, r0, #1, #2
	.loc	13 469 5                        @ lvgl/src/lv_hal/lv_hal_disp.c:469:5
	add	sp, #8
	pop	{r7, pc}
.Ltmp157:
.Lfunc_end21:
	.size	lv_disp_get_rotation, .Lfunc_end21-lv_disp_get_rotation
	.cfi_endproc
	.cantunwind
	.fnend
                                        @ -- End function
	.type	.L.str,%object                  @ @.str
	.section	.rodata.str1.1,"aMS",%progbits,1
.L.str:
	.asciz	"Out of memory"
	.size	.L.str, 14

	.type	disp_def,%object                @ @disp_def
	.section	.bss.disp_def,"aw",%nobits
	.p2align	2
disp_def:
	.long	0
	.size	disp_def, 4

	.section	".note.GNU-stack","",%progbits
	.eabi_attribute	30, 6	@ Tag_ABI_optimization_goals
	.ARM_attribute	16, 1	@ Tag_AV_eba