	.text
	.syntax unified
	.eabi_attribute	67, "2.09"	@ Tag_conformance
	.cpu	cortex-m7
	.eabi_attribute	6, 13	@ Tag_CPU_arch
	.eabi_attribute	7, 77	@ Tag_CPU_arch_profile
	.eabi_attribute	8, 0	@ Tag_ARM_ISA_use
	.eabi_attribute	9, 2	@ Tag_THUMB_ISA_use
	.fpu	fpv5-d16
	.eabi_attribute	36, 1	@ Tag_FP_HP_extension
	.eabi_attribute	34, 1	@ Tag_CPU_unaligned_access
	.eabi_attribute	17, 1	@ Tag_ABI_PCS_GOT_use
	.eabi_attribute	20, 2	@ Tag_ABI_FP_denormal
	.eabi_attribute	21, 0	@ Tag_ABI_FP_exceptions
	.eabi_attribute	23, 1	@ Tag_ABI_FP_number_model
	.eabi_attribute	24, 1	@ Tag_ABI_align_needed
	.eabi_attribute	25, 1	@ Tag_ABI_align_preserved
	.eabi_attribute	28, 1	@ Tag_ABI_VFP_args
	.eabi_attribute	38, 1	@ Tag_ABI_FP_16bit_format
	.eabi_attribute	18, 2	@ Tag_ABI_PCS_wchar_t
	.eabi_attribute	26, 1	@ Tag_ABI_enum_size
	.eabi_attribute	14, 0	@ Tag_ABI_PCS_R9_use
	.file	"lv_indev.c"
	.file	1 "D:\\Keil_v5\\ARM\\ARMCLANG\\Bin\\..\\include" "stdint.h"
	.file	2 "E:\\Smart-access-control\\Hardware\\CODE" "lvgl/src/lv_core/../lv_hal/lv_hal_indev.h"
	.file	3 "E:\\Smart-access-control\\Hardware\\CODE" "./lvgl/src/lv_conf.h"
	.file	4 "E:\\Smart-access-control\\Hardware\\CODE" "lvgl/src/lv_core/../lv_hal/../lv_misc/lv_area.h"
	.file	5 "E:\\Smart-access-control\\Hardware\\CODE" "lvgl/src/lv_core/../lv_hal/lv_hal_disp.h"
	.file	6 "E:\\Smart-access-control\\Hardware\\CODE" "lvgl/src/lv_core/../lv_hal/../lv_misc/lv_color.h"
	.file	7 "E:\\Smart-access-control\\Hardware\\CODE" "lvgl/src/lv_core/../lv_misc/lv_task.h"
	.file	8 "E:\\Smart-access-control\\Hardware\\CODE" "lvgl/src/lv_core/../lv_font/../lv_misc/lv_ll.h"
	.file	9 "E:\\Smart-access-control\\Hardware\\CODE" "lvgl/src/lv_core/lv_obj.h"
	.file	10 "E:\\Smart-access-control\\Hardware\\CODE" "lvgl/src/lv_core/../lv_draw/../lv_misc/lv_types.h"
	.file	11 "E:\\Smart-access-control\\Hardware\\CODE" "lvgl/src/lv_core/../lv_draw/../lv_core/lv_style.h"
	.file	12 "E:\\Smart-access-control\\Hardware\\CODE" "lvgl/src/lv_core/../lv_draw/../lv_misc/lv_bidi.h"
	.file	13 "E:\\Smart-access-control\\Hardware\\CODE" "lvgl/src/lv_core/../lv_core/lv_group.h"
	.file	14 "E:\\Smart-access-control\\Hardware\\CODE" "lvgl/src/lv_core/lv_indev.c"
	.section	.text._lv_indev_init,"ax",%progbits
	.hidden	_lv_indev_init                  @ -- Begin function _lv_indev_init
	.globl	_lv_indev_init
	.p2align	3
	.type	_lv_indev_init,%function
	.code	16                              @ @_lv_indev_init
	.thumb_func
_lv_indev_init:
.Lfunc_begin0:
	.loc	14 67 0                         @ lvgl/src/lv_core/lv_indev.c:67:0
	.fnstart
	.cfi_sections .debug_frame
	.cfi_startproc
@ %bb.0:
	.save	{r7, lr}
	push	{r7, lr}
	.cfi_def_cfa_offset 8
	.cfi_offset lr, -4
	.cfi_offset r7, -8
.Ltmp0:
	.loc	14 68 5 prologue_end            @ lvgl/src/lv_core/lv_indev.c:68:5
	movs	r0, #0
	movs	r1, #0
	bl	lv_indev_reset
	.loc	14 69 1                         @ lvgl/src/lv_core/lv_indev.c:69:1
	pop	{r7, pc}
.Ltmp1:
.Lfunc_end0:
	.size	_lv_indev_init, .Lfunc_end0-_lv_indev_init
	.cfi_endproc
	.cantunwind
	.fnend
                                        @ -- End function
	.section	.text.lv_indev_reset,"ax",%progbits
	.hidden	lv_indev_reset                  @ -- Begin function lv_indev_reset
	.globl	lv_indev_reset
	.p2align	3
	.type	lv_indev_reset,%function
	.code	16                              @ @lv_indev_reset
	.thumb_func
lv_indev_reset:
.Lfunc_begin1:
	.loc	14 160 0                        @ lvgl/src/lv_core/lv_indev.c:160:0
	.fnstart
	.cfi_startproc
@ %bb.0:
	@DEBUG_VALUE: lv_indev_reset:indev <- $r0
	@DEBUG_VALUE: lv_indev_reset:indev <- $r0
	@DEBUG_VALUE: lv_indev_reset:obj <- $r1
	.save	{r4, r5, r6, r7, lr}
	push	{r4, r5, r6, r7, lr}
	.cfi_def_cfa_offset 20
	.cfi_offset lr, -4
	.cfi_offset r7, -8
	.cfi_offset r6, -12
	.cfi_offset r5, -16
	.cfi_offset r4, -20
	.pad	#4
	sub	sp, #4
	.cfi_def_cfa_offset 24
	mov	r4, r1
.Ltmp2:
	@DEBUG_VALUE: lv_indev_reset:obj <- $r4
	@DEBUG_VALUE: lv_indev_reset:obj <- $r4
	.loc	14 161 8 prologue_end           @ lvgl/src/lv_core/lv_indev.c:161:8
	cbz	r0, .LBB1_3
.Ltmp3:
@ %bb.1:
	@DEBUG_VALUE: lv_indev_reset:obj <- $r4
	@DEBUG_VALUE: lv_indev_reset:indev <- $r0
	.loc	14 163 12                       @ lvgl/src/lv_core/lv_indev.c:163:12
	movw	r1, :lower16:indev_act
.Ltmp4:
	.loc	14 162 33                       @ lvgl/src/lv_core/lv_indev.c:162:33
	ldrb.w	r2, [r0, #80]
.Ltmp5:
	.loc	14 163 12                       @ lvgl/src/lv_core/lv_indev.c:163:12
	movt	r1, :upper16:indev_act
	ldr	r1, [r1]
.Ltmp6:
	.loc	14 163 12 is_stmt 0             @ lvgl/src/lv_core/lv_indev.c:163:12
	cmp	r1, r0
	.loc	14 162 33 is_stmt 1             @ lvgl/src/lv_core/lv_indev.c:162:33
	orr	r1, r2, #2
	strb.w	r1, [r0, #80]
	.loc	14 163 12                       @ lvgl/src/lv_core/lv_indev.c:163:12
	beq	.LBB1_13
.Ltmp7:
@ %bb.2:
	@DEBUG_VALUE: lv_indev_reset:obj <- $r4
	@DEBUG_VALUE: lv_indev_reset:indev <- $r0
	.loc	14 164 24                       @ lvgl/src/lv_core/lv_indev.c:164:24
	cbnz	r4, .LBB1_14
	b	.LBB1_16
.Ltmp8:
.LBB1_3:
	@DEBUG_VALUE: lv_indev_reset:obj <- $r4
	@DEBUG_VALUE: lv_indev_reset:indev <- $r0
	.loc	14 175 26                       @ lvgl/src/lv_core/lv_indev.c:175:26
	movs	r0, #0
.Ltmp9:
	@DEBUG_VALUE: lv_indev_reset:indev <- [DW_OP_LLVM_entry_value 1] $r0
	.loc	14 0 26 is_stmt 0               @ lvgl/src/lv_core/lv_indev.c:0:26
	movs	r5, #0
	.loc	14 175 26                       @ lvgl/src/lv_core/lv_indev.c:175:26
	bl	lv_indev_get_next
.Ltmp10:
	@DEBUG_VALUE: i <- $r0
	.loc	14 176 9 is_stmt 1              @ lvgl/src/lv_core/lv_indev.c:176:9
	cmp	r0, #0
	beq	.LBB1_21
.Ltmp11:
@ %bb.4:
	@DEBUG_VALUE: lv_indev_reset:obj <- $r4
	@DEBUG_VALUE: i <- $r0
	@DEBUG_VALUE: lv_indev_reset:indev <- [DW_OP_LLVM_entry_value 1] $r0
	.loc	14 0 9 is_stmt 0                @ lvgl/src/lv_core/lv_indev.c:0:9
	movw	r6, :lower16:indev_act
	movw	r7, :lower16:indev_obj_act
	movt	r6, :upper16:indev_act
	movt	r7, :upper16:indev_obj_act
	b	.LBB1_7
.Ltmp12:
	.p2align	2
.LBB1_5:                                @   in Loop: Header=BB1_7 Depth=1
	@DEBUG_VALUE: lv_indev_reset:obj <- $r4
	@DEBUG_VALUE: i <- $r0
	@DEBUG_VALUE: lv_indev_reset:indev <- [DW_OP_LLVM_entry_value 1] $r0
	.loc	14 186 48 is_stmt 1             @ lvgl/src/lv_core/lv_indev.c:186:48
	str	r5, [r0, #56]
.Ltmp13:
.LBB1_6:                                @   in Loop: Header=BB1_7 Depth=1
	@DEBUG_VALUE: lv_indev_reset:obj <- $r4
	@DEBUG_VALUE: i <- $r0
	@DEBUG_VALUE: lv_indev_reset:indev <- [DW_OP_LLVM_entry_value 1] $r0
	.loc	14 188 17                       @ lvgl/src/lv_core/lv_indev.c:188:17
	bl	lv_indev_get_next
.Ltmp14:
	@DEBUG_VALUE: i <- $r0
	.loc	14 176 9                        @ lvgl/src/lv_core/lv_indev.c:176:9
	cbz	r0, .LBB1_21
.Ltmp15:
.LBB1_7:                                @ =>This Inner Loop Header: Depth=1
	@DEBUG_VALUE: lv_indev_reset:obj <- $r4
	@DEBUG_VALUE: i <- $r0
	@DEBUG_VALUE: lv_indev_reset:indev <- [DW_OP_LLVM_entry_value 1] $r0
	@DEBUG_VALUE: i <- $r0
	.loc	14 177 33                       @ lvgl/src/lv_core/lv_indev.c:177:33
	ldrb.w	r1, [r0, #80]
.Ltmp16:
	.loc	14 178 16                       @ lvgl/src/lv_core/lv_indev.c:178:16
	ldr	r2, [r6]
.Ltmp17:
	.loc	14 178 16 is_stmt 0             @ lvgl/src/lv_core/lv_indev.c:178:16
	cmp	r2, r0
	.loc	14 177 33 is_stmt 1             @ lvgl/src/lv_core/lv_indev.c:177:33
	orr	r1, r1, #2
	strb.w	r1, [r0, #80]
.Ltmp18:
	.loc	14 178 46                       @ lvgl/src/lv_core/lv_indev.c:178:46
	it	eq
	streq	r5, [r7]
.Ltmp19:
	.loc	14 179 28                       @ lvgl/src/lv_core/lv_indev.c:179:28
	cbz	r4, .LBB1_10
.Ltmp20:
@ %bb.8:                                @   in Loop: Header=BB1_7 Depth=1
	@DEBUG_VALUE: lv_indev_reset:obj <- $r4
	@DEBUG_VALUE: i <- $r0
	@DEBUG_VALUE: lv_indev_reset:indev <- [DW_OP_LLVM_entry_value 1] $r0
	.loc	14 179 53 is_stmt 0             @ lvgl/src/lv_core/lv_indev.c:179:53
	ldr	r1, [r0, #60]
.Ltmp21:
	.loc	14 179 16                       @ lvgl/src/lv_core/lv_indev.c:179:16
	cmp	r1, r4
.Ltmp22:
	.loc	14 180 52 is_stmt 1             @ lvgl/src/lv_core/lv_indev.c:180:52
	it	eq
	streq	r5, [r0, #60]
.Ltmp23:
	.loc	14 182 28                       @ lvgl/src/lv_core/lv_indev.c:182:28
	cbz	r4, .LBB1_11
.Ltmp24:
.LBB1_9:                                @   in Loop: Header=BB1_7 Depth=1
	@DEBUG_VALUE: lv_indev_reset:obj <- $r4
	@DEBUG_VALUE: i <- $r0
	@DEBUG_VALUE: lv_indev_reset:indev <- [DW_OP_LLVM_entry_value 1] $r0
	.loc	14 182 53 is_stmt 0             @ lvgl/src/lv_core/lv_indev.c:182:53
	ldr	r1, [r0, #52]
.Ltmp25:
	.loc	14 182 16                       @ lvgl/src/lv_core/lv_indev.c:182:16
	cmp	r1, r4
.Ltmp26:
	.loc	14 183 47 is_stmt 1             @ lvgl/src/lv_core/lv_indev.c:183:47
	it	eq
	streq	r5, [r0, #52]
	cbnz	r4, .LBB1_12
	b	.LBB1_5
.Ltmp27:
	.p2align	2
.LBB1_10:                               @   in Loop: Header=BB1_7 Depth=1
	@DEBUG_VALUE: lv_indev_reset:obj <- $r4
	@DEBUG_VALUE: i <- $r0
	@DEBUG_VALUE: lv_indev_reset:indev <- [DW_OP_LLVM_entry_value 1] $r0
	.loc	14 180 52                       @ lvgl/src/lv_core/lv_indev.c:180:52
	str	r5, [r0, #60]
.Ltmp28:
	.loc	14 182 28                       @ lvgl/src/lv_core/lv_indev.c:182:28
	cmp	r4, #0
	bne	.LBB1_9
.Ltmp29:
.LBB1_11:                               @   in Loop: Header=BB1_7 Depth=1
	@DEBUG_VALUE: lv_indev_reset:obj <- $r4
	@DEBUG_VALUE: i <- $r0
	@DEBUG_VALUE: lv_indev_reset:indev <- [DW_OP_LLVM_entry_value 1] $r0
	.loc	14 183 47                       @ lvgl/src/lv_core/lv_indev.c:183:47
	str	r5, [r0, #52]
.Ltmp30:
	.loc	14 185 28                       @ lvgl/src/lv_core/lv_indev.c:185:28
	cmp	r4, #0
	beq	.LBB1_5
.Ltmp31:
.LBB1_12:                               @   in Loop: Header=BB1_7 Depth=1
	@DEBUG_VALUE: lv_indev_reset:obj <- $r4
	@DEBUG_VALUE: i <- $r0
	@DEBUG_VALUE: lv_indev_reset:indev <- [DW_OP_LLVM_entry_value 1] $r0
	.loc	14 185 53 is_stmt 0             @ lvgl/src/lv_core/lv_indev.c:185:53
	ldr	r1, [r0, #56]
.Ltmp32:
	.loc	14 185 16                       @ lvgl/src/lv_core/lv_indev.c:185:16
	cmp	r1, r4
.Ltmp33:
	.loc	14 186 48 is_stmt 1             @ lvgl/src/lv_core/lv_indev.c:186:48
	it	eq
	streq	r5, [r0, #56]
	b	.LBB1_6
.Ltmp34:
.LBB1_13:
	@DEBUG_VALUE: lv_indev_reset:obj <- $r4
	@DEBUG_VALUE: lv_indev_reset:indev <- $r0
	.loc	14 163 46                       @ lvgl/src/lv_core/lv_indev.c:163:46
	movw	r1, :lower16:indev_obj_act
	movs	r2, #0
	movt	r1, :upper16:indev_obj_act
	str	r2, [r1]
.Ltmp35:
	.loc	14 164 24                       @ lvgl/src/lv_core/lv_indev.c:164:24
	cbz	r4, .LBB1_16
.Ltmp36:
.LBB1_14:
	@DEBUG_VALUE: lv_indev_reset:obj <- $r4
	@DEBUG_VALUE: lv_indev_reset:indev <- $r0
	.loc	14 164 53 is_stmt 0             @ lvgl/src/lv_core/lv_indev.c:164:53
	ldr	r1, [r0, #60]
.Ltmp37:
	.loc	14 164 12                       @ lvgl/src/lv_core/lv_indev.c:164:12
	cmp	r1, r4
	beq	.LBB1_16
.Ltmp38:
@ %bb.15:
	@DEBUG_VALUE: lv_indev_reset:obj <- $r4
	@DEBUG_VALUE: lv_indev_reset:indev <- $r0
	.loc	14 167 24 is_stmt 1             @ lvgl/src/lv_core/lv_indev.c:167:24
	cbnz	r4, .LBB1_17
	b	.LBB1_19
.Ltmp39:
.LBB1_16:
	@DEBUG_VALUE: lv_indev_reset:obj <- $r4
	@DEBUG_VALUE: lv_indev_reset:indev <- $r0
	.loc	14 0 24 is_stmt 0               @ lvgl/src/lv_core/lv_indev.c:0:24
	movs	r1, #0
.Ltmp40:
	.loc	14 165 52 is_stmt 1             @ lvgl/src/lv_core/lv_indev.c:165:52
	str	r1, [r0, #60]
.Ltmp41:
	.loc	14 167 24                       @ lvgl/src/lv_core/lv_indev.c:167:24
	cbz	r4, .LBB1_19
.Ltmp42:
.LBB1_17:
	@DEBUG_VALUE: lv_indev_reset:obj <- $r4
	@DEBUG_VALUE: lv_indev_reset:indev <- $r0
	.loc	14 167 53 is_stmt 0             @ lvgl/src/lv_core/lv_indev.c:167:53
	ldr	r1, [r0, #52]
.Ltmp43:
	.loc	14 167 12                       @ lvgl/src/lv_core/lv_indev.c:167:12
	cmp	r1, r4
	beq	.LBB1_19
.Ltmp44:
@ %bb.18:
	@DEBUG_VALUE: lv_indev_reset:obj <- $r4
	@DEBUG_VALUE: lv_indev_reset:indev <- $r0
	.loc	14 0 12                         @ lvgl/src/lv_core/lv_indev.c:0:12
	cbnz	r4, .LBB1_20
	b	.LBB1_22
.Ltmp45:
.LBB1_19:
	@DEBUG_VALUE: lv_indev_reset:obj <- $r4
	@DEBUG_VALUE: lv_indev_reset:indev <- $r0
	movs	r1, #0
.Ltmp46:
	.loc	14 168 47 is_stmt 1             @ lvgl/src/lv_core/lv_indev.c:168:47
	str	r1, [r0, #52]
.Ltmp47:
	.loc	14 170 24                       @ lvgl/src/lv_core/lv_indev.c:170:24
	cbz	r4, .LBB1_22
.Ltmp48:
.LBB1_20:
	@DEBUG_VALUE: lv_indev_reset:obj <- $r4
	@DEBUG_VALUE: lv_indev_reset:indev <- $r0
	.loc	14 170 53 is_stmt 0             @ lvgl/src/lv_core/lv_indev.c:170:53
	ldr	r1, [r0, #56]
.Ltmp49:
	.loc	14 170 12                       @ lvgl/src/lv_core/lv_indev.c:170:12
	cmp	r1, r4
	beq	.LBB1_22
.Ltmp50:
.LBB1_21:
	@DEBUG_VALUE: lv_indev_reset:obj <- $r4
	.loc	14 191 1 is_stmt 1              @ lvgl/src/lv_core/lv_indev.c:191:1
	add	sp, #4
	pop	{r4, r5, r6, r7, pc}
.Ltmp51:
.LBB1_22:
	@DEBUG_VALUE: lv_indev_reset:obj <- $r4
	@DEBUG_VALUE: lv_indev_reset:indev <- $r0
	.loc	14 0 1 is_stmt 0                @ lvgl/src/lv_core/lv_indev.c:0:1
	movs	r1, #0
.Ltmp52:
	.loc	14 171 48 is_stmt 1             @ lvgl/src/lv_core/lv_indev.c:171:48
	str	r1, [r0, #56]
.Ltmp53:
	.loc	14 191 1                        @ lvgl/src/lv_core/lv_indev.c:191:1
	add	sp, #4
	pop	{r4, r5, r6, r7, pc}
.Ltmp54:
.Lfunc_end1:
	.size	lv_indev_reset, .Lfunc_end1-lv_indev_reset
	.cfi_endproc
	.cantunwind
	.fnend
                                        @ -- End function
	.section	.text._lv_indev_read_task,"ax",%progbits
	.hidden	_lv_indev_read_task             @ -- Begin function _lv_indev_read_task
	.globl	_lv_indev_read_task
	.p2align	3
	.type	_lv_indev_read_task,%function
	.code	16                              @ @_lv_indev_read_task
	.thumb_func
_lv_indev_read_task:
.Lfunc_begin2:
	.loc	14 76 0                         @ lvgl/src/lv_core/lv_indev.c:76:0
	.fnstart
	.cfi_startproc
@ %bb.0:
	@DEBUG_VALUE: _lv_indev_read_task:task <- $r0
	@DEBUG_VALUE: _lv_indev_read_task:task <- $r0
	.save	{r4, r5, r6, r7, r8, r9, lr}
	push.w	{r4, r5, r6, r7, r8, r9, lr}
	.cfi_def_cfa_offset 28
	.cfi_offset lr, -4
	.cfi_offset r9, -8
	.cfi_offset r8, -12
	.cfi_offset r7, -16
	.cfi_offset r6, -20
	.cfi_offset r5, -24
	.cfi_offset r4, -28
	.pad	#20
	sub	sp, #20
	.cfi_def_cfa_offset 48
.Ltmp55:
	.loc	14 81 23 prologue_end           @ lvgl/src/lv_core/lv_indev.c:81:23
	ldr	r4, [r0, #12]
	.loc	14 81 15 is_stmt 0              @ lvgl/src/lv_core/lv_indev.c:81:15
	movw	r7, :lower16:indev_act
	movt	r7, :upper16:indev_act
.Ltmp56:
	.loc	14 84 26 is_stmt 1              @ lvgl/src/lv_core/lv_indev.c:84:26
	ldr	r0, [r4, #12]
.Ltmp57:
	@DEBUG_VALUE: _lv_indev_read_task:task <- [DW_OP_LLVM_entry_value 1] $r0
	.loc	14 84 8 is_stmt 0               @ lvgl/src/lv_core/lv_indev.c:84:8
	cmp	r0, #0
	.loc	14 81 15 is_stmt 1              @ lvgl/src/lv_core/lv_indev.c:81:15
	str	r4, [r7]
	.loc	14 84 8                         @ lvgl/src/lv_core/lv_indev.c:84:8
	beq	.LBB2_16
.Ltmp58:
@ %bb.1:
	@DEBUG_VALUE: _lv_indev_read_task:task <- [DW_OP_LLVM_entry_value 1] $r0
	.loc	14 87 5                         @ lvgl/src/lv_core/lv_indev.c:87:5
	mov	r0, r4
	bl	indev_proc_reset_query_handler
.Ltmp59:
	.loc	14 89 24                        @ lvgl/src/lv_core/lv_indev.c:89:24
	ldrb.w	r0, [r4, #80]
.Ltmp60:
	.loc	14 89 8 is_stmt 0               @ lvgl/src/lv_core/lv_indev.c:89:8
	lsls	r0, r0, #29
	bmi	.LBB2_16
.Ltmp61:
@ %bb.2:
	@DEBUG_VALUE: _lv_indev_read_task:task <- [DW_OP_LLVM_entry_value 1] $r0
	.loc	14 0 8                          @ lvgl/src/lv_core/lv_indev.c:0:8
	movw	r8, :lower16:indev_obj_act
	add	r4, sp, #4
	movt	r8, :upper16:indev_obj_act
	mov.w	r9, #0
	b	.LBB2_4
.Ltmp62:
	.p2align	2
.LBB2_3:                                @   in Loop: Header=BB2_4 Depth=1
	@DEBUG_VALUE: _lv_indev_read_task:task <- [DW_OP_LLVM_entry_value 1] $r0
	.loc	14 122 40 is_stmt 1             @ lvgl/src/lv_core/lv_indev.c:122:40
	ldr	r0, [r7]
	.loc	14 122 9 is_stmt 0              @ lvgl/src/lv_core/lv_indev.c:122:9
	bl	indev_proc_reset_query_handler
	.loc	14 123 5 is_stmt 1              @ lvgl/src/lv_core/lv_indev.c:123:5
	cmp	r5, #0
	beq	.LBB2_15
.Ltmp63:
.LBB2_4:                                @ =>This Inner Loop Header: Depth=1
	@DEBUG_VALUE: _lv_indev_read_task:task <- [DW_OP_LLVM_entry_value 1] $r0
	.loc	14 93 39                        @ lvgl/src/lv_core/lv_indev.c:93:39
	ldr	r0, [r7]
	.loc	14 93 24 is_stmt 0              @ lvgl/src/lv_core/lv_indev.c:93:24
	mov	r1, r4
	bl	_lv_indev_read
	.loc	14 96 40 is_stmt 1              @ lvgl/src/lv_core/lv_indev.c:96:40
	ldr	r6, [r7]
	.loc	14 93 24                        @ lvgl/src/lv_core/lv_indev.c:93:24
	mov	r5, r0
.Ltmp64:
	@DEBUG_VALUE: _lv_indev_read_task:more_to_read <- [DW_OP_LLVM_convert 1 7, DW_OP_LLVM_convert 8 7, DW_OP_stack_value] undef
	.loc	14 96 9                         @ lvgl/src/lv_core/lv_indev.c:96:9
	mov	r0, r6
	bl	indev_proc_reset_query_handler
	.loc	14 99 38                        @ lvgl/src/lv_core/lv_indev.c:99:38
	ldrb.w	r0, [sp, #18]
	.loc	14 97 23                        @ lvgl/src/lv_core/lv_indev.c:97:23
	str.w	r9, [r8]
	.loc	14 99 31                        @ lvgl/src/lv_core/lv_indev.c:99:31
	strb	r0, [r6, #28]
	.loc	14 102 12                       @ lvgl/src/lv_core/lv_indev.c:102:12
	cmp	r0, #1
	beq	.LBB2_7
.Ltmp65:
@ %bb.5:                                @   in Loop: Header=BB2_4 Depth=1
	@DEBUG_VALUE: _lv_indev_read_task:task <- [DW_OP_LLVM_entry_value 1] $r0
	.loc	14 105 35                       @ lvgl/src/lv_core/lv_indev.c:105:35
	ldrb	r0, [r6]
	.loc	14 105 65 is_stmt 0             @ lvgl/src/lv_core/lv_indev.c:105:65
	cmp	r0, #4
	bne	.LBB2_8
.Ltmp66:
@ %bb.6:                                @   in Loop: Header=BB2_4 Depth=1
	@DEBUG_VALUE: _lv_indev_read_task:task <- [DW_OP_LLVM_entry_value 1] $r0
	.loc	14 0 65                         @ lvgl/src/lv_core/lv_indev.c:0:65
	ldrh.w	r0, [sp, #16]
	.loc	14 105 65                       @ lvgl/src/lv_core/lv_indev.c:105:65
	cbz	r0, .LBB2_8
.Ltmp67:
.LBB2_7:                                @   in Loop: Header=BB2_4 Depth=1
	@DEBUG_VALUE: _lv_indev_read_task:task <- [DW_OP_LLVM_entry_value 1] $r0
	.loc	14 0 0                          @ lvgl/src/lv_core/lv_indev.c:0:0
	bl	lv_tick_get
	ldr	r1, [r7]
	ldr	r1, [r1, #12]
	str.w	r0, [r1, #384]
.Ltmp68:
.LBB2_8:                                @   in Loop: Header=BB2_4 Depth=1
	@DEBUG_VALUE: _lv_indev_read_task:task <- [DW_OP_LLVM_entry_value 1] $r0
	.loc	14 109 12 is_stmt 1             @ lvgl/src/lv_core/lv_indev.c:109:12
	ldr	r0, [r7]
	.loc	14 109 30 is_stmt 0             @ lvgl/src/lv_core/lv_indev.c:109:30
	ldrb	r1, [r0]
.Ltmp69:
	.loc	14 109 12                       @ lvgl/src/lv_core/lv_indev.c:109:12
	subs	r1, #1
	cmp	r1, #3
	bhi	.LBB2_3
.Ltmp70:
@ %bb.9:                                @   in Loop: Header=BB2_4 Depth=1
	@DEBUG_VALUE: _lv_indev_read_task:task <- [DW_OP_LLVM_entry_value 1] $r0
	.loc	14 0 12                         @ lvgl/src/lv_core/lv_indev.c:0:12
.LCPI2_0:
	tbb	[pc, r1]
.Ltmp71:
@ %bb.10:
.LJTI2_0:
	.byte	(.LBB2_12-(.LCPI2_0+4))/2
	.byte	(.LBB2_13-(.LCPI2_0+4))/2
	.byte	(.LBB2_11-(.LCPI2_0+4))/2
	.byte	(.LBB2_14-(.LCPI2_0+4))/2
	.p2align	1
	.p2align	2
.LBB2_11:                               @   in Loop: Header=BB2_4 Depth=1
.Ltmp72:
	@DEBUG_VALUE: _lv_indev_read_task:task <- [DW_OP_LLVM_entry_value 1] $r0
	.loc	14 119 13 is_stmt 1             @ lvgl/src/lv_core/lv_indev.c:119:13
	mov	r1, r4
	bl	indev_button_proc
	b	.LBB2_3
.Ltmp73:
.LBB2_12:                               @   in Loop: Header=BB2_4 Depth=1
	@DEBUG_VALUE: _lv_indev_read_task:task <- [DW_OP_LLVM_entry_value 1] $r0
	.loc	14 110 13                       @ lvgl/src/lv_core/lv_indev.c:110:13
	mov	r1, r4
	bl	indev_pointer_proc
	b	.LBB2_3
.Ltmp74:
	.p2align	2
.LBB2_13:                               @   in Loop: Header=BB2_4 Depth=1
	@DEBUG_VALUE: _lv_indev_read_task:task <- [DW_OP_LLVM_entry_value 1] $r0
	.loc	14 113 13                       @ lvgl/src/lv_core/lv_indev.c:113:13
	mov	r1, r4
	bl	indev_keypad_proc
	b	.LBB2_3
.Ltmp75:
	.p2align	2
.LBB2_14:                               @   in Loop: Header=BB2_4 Depth=1
	@DEBUG_VALUE: _lv_indev_read_task:task <- [DW_OP_LLVM_entry_value 1] $r0
	.loc	14 116 13                       @ lvgl/src/lv_core/lv_indev.c:116:13
	mov	r1, r4
	bl	indev_encoder_proc
	b	.LBB2_3
.Ltmp76:
.LBB2_15:
	@DEBUG_VALUE: _lv_indev_read_task:task <- [DW_OP_LLVM_entry_value 1] $r0
	.loc	14 0 13 is_stmt 0               @ lvgl/src/lv_core/lv_indev.c:0:13
	movs	r0, #0
	.loc	14 126 19 is_stmt 1             @ lvgl/src/lv_core/lv_indev.c:126:19
	str	r0, [r7]
	.loc	14 127 19                       @ lvgl/src/lv_core/lv_indev.c:127:19
	str.w	r0, [r8]
.Ltmp77:
.LBB2_16:
	@DEBUG_VALUE: _lv_indev_read_task:task <- [DW_OP_LLVM_entry_value 1] $r0
	.loc	14 130 1                        @ lvgl/src/lv_core/lv_indev.c:130:1
	add	sp, #20
	pop.w	{r4, r5, r6, r7, r8, r9, pc}
.Ltmp78:
.Lfunc_end2:
	.size	_lv_indev_read_task, .Lfunc_end2-_lv_indev_read_task
	.cfi_endproc
	.cantunwind
	.fnend
                                        @ -- End function
	.section	.text.indev_proc_reset_query_handler,"ax",%progbits
	.p2align	3                               @ -- Begin function indev_proc_reset_query_handler
	.type	indev_proc_reset_query_handler,%function
	.code	16                              @ @indev_proc_reset_query_handler
	.thumb_func
indev_proc_reset_query_handler:
.Lfunc_begin3:
	.loc	14 1121 0                       @ lvgl/src/lv_core/lv_indev.c:1121:0
	.fnstart
	.cfi_startproc
@ %bb.0:
	@DEBUG_VALUE: indev_proc_reset_query_handler:indev <- $r0
	@DEBUG_VALUE: indev_proc_reset_query_handler:indev <- $r0
	.loc	14 1122 20 prologue_end         @ lvgl/src/lv_core/lv_indev.c:1122:20
	ldrb.w	r1, [r0, #80]
.Ltmp79:
	.loc	14 1122 8 is_stmt 0             @ lvgl/src/lv_core/lv_indev.c:1122:8
	lsls	r2, r1, #30
	.loc	14 1140 1 is_stmt 1             @ lvgl/src/lv_core/lv_indev.c:1140:1
	it	pl
	bxpl	lr
.Ltmp80:
.LBB3_1:
	@DEBUG_VALUE: indev_proc_reset_query_handler:indev <- $r0
	.loc	14 1125 53                      @ lvgl/src/lv_core/lv_indev.c:1125:53
	ldrb.w	r2, [r0, #70]
	movs	r3, #0
	.loc	14 1128 53                      @ lvgl/src/lv_core/lv_indev.c:1128:53
	strd	r3, r3, [r0, #72]
	.loc	14 1132 44                      @ lvgl/src/lv_core/lv_indev.c:1132:44
	and	r2, r2, #224
	.loc	14 1135 53                      @ lvgl/src/lv_core/lv_indev.c:1135:53
	str.w	r3, [r0, #66]
	.loc	14 1132 44                      @ lvgl/src/lv_core/lv_indev.c:1132:44
	adds	r2, #12
	strb.w	r2, [r0, #70]
	.loc	14 1130 53                      @ lvgl/src/lv_core/lv_indev.c:1130:53
	strd	r3, r3, [r0, #44]
	.loc	14 1123 53                      @ lvgl/src/lv_core/lv_indev.c:1123:53
	strd	r3, r3, [r0, #52]
	.loc	14 1137 53                      @ lvgl/src/lv_core/lv_indev.c:1137:53
	and	r1, r1, #252
	strb.w	r1, [r0, #80]
	.loc	14 1138 53                      @ lvgl/src/lv_core/lv_indev.c:1138:53
	movw	r0, :lower16:indev_obj_act
.Ltmp81:
	@DEBUG_VALUE: indev_proc_reset_query_handler:indev <- [DW_OP_LLVM_entry_value 1] $r0
	movt	r0, :upper16:indev_obj_act
	str	r3, [r0]
.Ltmp82:
	.loc	14 1140 1                       @ lvgl/src/lv_core/lv_indev.c:1140:1
	bx	lr
.Ltmp83:
.Lfunc_end3:
	.size	indev_proc_reset_query_handler, .Lfunc_end3-indev_proc_reset_query_handler
	.cfi_endproc
	.cantunwind
	.fnend
                                        @ -- End function
	.section	.text.indev_pointer_proc,"ax",%progbits
	.p2align	3                               @ -- Begin function indev_pointer_proc
	.type	indev_pointer_proc,%function
	.code	16                              @ @indev_pointer_proc
	.thumb_func
indev_pointer_proc:
.Lfunc_begin4:
	.loc	14 415 0                        @ lvgl/src/lv_core/lv_indev.c:415:0
	.fnstart
	.cfi_startproc
@ %bb.0:
	@DEBUG_VALUE: indev_pointer_proc:i <- $r0
	@DEBUG_VALUE: indev_pointer_proc:data <- $r1
	.save	{r4, r5, r7, lr}
	push	{r4, r5, r7, lr}
	.cfi_def_cfa_offset 16
	.cfi_offset lr, -4
	.cfi_offset r7, -8
	.cfi_offset r5, -12
	.cfi_offset r4, -16
	mov	r4, r0
.Ltmp84:
	@DEBUG_VALUE: indev_pointer_proc:i <- $r4
	.loc	14 416 33 prologue_end          @ lvgl/src/lv_core/lv_indev.c:416:33
	ldr	r0, [r0, #12]
.Ltmp85:
	@DEBUG_VALUE: indev_pointer_proc:disp <- $r0
	.loc	14 0 33 is_stmt 0               @ lvgl/src/lv_core/lv_indev.c:0:33
	mov	r5, r1
.Ltmp86:
	@DEBUG_VALUE: indev_pointer_proc:data <- $r5
	@DEBUG_VALUE: indev_pointer_proc:data <- $r5
	.loc	14 417 21 is_stmt 1             @ lvgl/src/lv_core/lv_indev.c:417:21
	ldrh	r2, [r0, #8]
	.loc	14 417 48 is_stmt 0             @ lvgl/src/lv_core/lv_indev.c:417:48
	lsls	r2, r2, #29
	bpl	.LBB4_2
.Ltmp87:
@ %bb.1:
	@DEBUG_VALUE: indev_pointer_proc:data <- $r5
	@DEBUG_VALUE: indev_pointer_proc:i <- $r4
	@DEBUG_VALUE: indev_pointer_proc:disp <- $r0
	.loc	14 418 60 is_stmt 1             @ lvgl/src/lv_core/lv_indev.c:418:60
	ldrh	r1, [r5]
	.loc	14 418 38 is_stmt 0             @ lvgl/src/lv_core/lv_indev.c:418:38
	ldrh	r2, [r0]
	.loc	14 419 60 is_stmt 1             @ lvgl/src/lv_core/lv_indev.c:419:60
	ldrh	r3, [r5, #2]
	.loc	14 418 62                       @ lvgl/src/lv_core/lv_indev.c:418:62
	mvns	r1, r1
	add	r1, r2
	.loc	14 419 38                       @ lvgl/src/lv_core/lv_indev.c:419:38
	ldrh	r2, [r0, #2]
	.loc	14 418 23                       @ lvgl/src/lv_core/lv_indev.c:418:23
	strh	r1, [r5]
	.loc	14 419 62                       @ lvgl/src/lv_core/lv_indev.c:419:62
	mvns	r1, r3
	add	r1, r2
	.loc	14 419 23 is_stmt 0             @ lvgl/src/lv_core/lv_indev.c:419:23
	strh	r1, [r5, #2]
.Ltmp88:
.LBB4_2:
	@DEBUG_VALUE: indev_pointer_proc:data <- $r5
	@DEBUG_VALUE: indev_pointer_proc:i <- $r4
	@DEBUG_VALUE: indev_pointer_proc:disp <- $r0
	.loc	14 421 21 is_stmt 1             @ lvgl/src/lv_core/lv_indev.c:421:21
	ldrh	r1, [r0, #8]
	.loc	14 421 47 is_stmt 0             @ lvgl/src/lv_core/lv_indev.c:421:47
	ubfx	r1, r1, #1, #1
	adds	r1, #2
	cmp	r1, #3
	bne	.LBB4_4
.Ltmp89:
@ %bb.3:
	@DEBUG_VALUE: indev_pointer_proc:data <- $r5
	@DEBUG_VALUE: indev_pointer_proc:i <- $r4
	@DEBUG_VALUE: indev_pointer_proc:disp <- $r0
	.loc	14 422 38 is_stmt 1             @ lvgl/src/lv_core/lv_indev.c:422:38
	ldrh	r1, [r5, #2]
.Ltmp90:
	@DEBUG_VALUE: tmp <- $r1
	.loc	14 424 38                       @ lvgl/src/lv_core/lv_indev.c:424:38
	ldrh	r0, [r0, #2]
.Ltmp91:
	.loc	14 423 37                       @ lvgl/src/lv_core/lv_indev.c:423:37
	ldrh	r2, [r5]
	.loc	14 424 52                       @ lvgl/src/lv_core/lv_indev.c:424:52
	mvns	r1, r1
.Ltmp92:
	.loc	14 423 23                       @ lvgl/src/lv_core/lv_indev.c:423:23
	strh	r2, [r5, #2]
	.loc	14 424 52                       @ lvgl/src/lv_core/lv_indev.c:424:52
	add	r0, r1
	.loc	14 424 23 is_stmt 0             @ lvgl/src/lv_core/lv_indev.c:424:23
	strh	r0, [r5]
.Ltmp93:
.LBB4_4:
	@DEBUG_VALUE: indev_pointer_proc:data <- $r5
	@DEBUG_VALUE: indev_pointer_proc:i <- $r4
	.loc	14 427 11 is_stmt 1             @ lvgl/src/lv_core/lv_indev.c:427:11
	ldr	r0, [r4, #84]
	.loc	14 427 26 is_stmt 0             @ lvgl/src/lv_core/lv_indev.c:427:26
	cbz	r0, .LBB4_8
.Ltmp94:
@ %bb.5:
	@DEBUG_VALUE: indev_pointer_proc:data <- $r5
	@DEBUG_VALUE: indev_pointer_proc:i <- $r4
	.loc	14 428 42 is_stmt 1             @ lvgl/src/lv_core/lv_indev.c:428:42
	ldrh	r2, [r4, #36]
	.loc	14 428 59 is_stmt 0             @ lvgl/src/lv_core/lv_indev.c:428:59
	ldrh	r1, [r5]
	.loc	14 428 61                       @ lvgl/src/lv_core/lv_indev.c:428:61
	cmp	r2, r1
	bne	.LBB4_7
.Ltmp95:
@ %bb.6:
	@DEBUG_VALUE: indev_pointer_proc:data <- $r5
	@DEBUG_VALUE: indev_pointer_proc:i <- $r4
	.loc	14 428 97                       @ lvgl/src/lv_core/lv_indev.c:428:97
	ldrh	r2, [r4, #38]
	.loc	14 428 114                      @ lvgl/src/lv_core/lv_indev.c:428:114
	ldrh	r3, [r5, #2]
.Ltmp96:
	.loc	14 427 8 is_stmt 1              @ lvgl/src/lv_core/lv_indev.c:427:8
	cmp	r2, r3
	beq	.LBB4_8
.Ltmp97:
.LBB4_7:
	@DEBUG_VALUE: indev_pointer_proc:data <- $r5
	@DEBUG_VALUE: indev_pointer_proc:i <- $r4
	.loc	14 429 9                        @ lvgl/src/lv_core/lv_indev.c:429:9
	sxth	r1, r1
	.loc	14 429 62 is_stmt 0             @ lvgl/src/lv_core/lv_indev.c:429:62
	ldrsh.w	r2, [r5, #2]
	.loc	14 429 9                        @ lvgl/src/lv_core/lv_indev.c:429:9
	bl	lv_obj_set_pos
.Ltmp98:
.LBB4_8:
	@DEBUG_VALUE: indev_pointer_proc:data <- $r5
	@DEBUG_VALUE: indev_pointer_proc:i <- $r4
	.loc	14 435 16 is_stmt 1             @ lvgl/src/lv_core/lv_indev.c:435:16
	mov	r0, r4
.Ltmp99:
	.loc	14 432 53                       @ lvgl/src/lv_core/lv_indev.c:432:53
	ldrh	r1, [r5]
.Ltmp100:
	.loc	14 435 16                       @ lvgl/src/lv_core/lv_indev.c:435:16
	ldrb	r2, [r0, #28]!
.Ltmp101:
	.loc	14 432 39                       @ lvgl/src/lv_core/lv_indev.c:432:39
	strh	r1, [r0, #4]
	.loc	14 433 53                       @ lvgl/src/lv_core/lv_indev.c:433:53
	ldrh	r1, [r5, #2]
	.loc	14 435 8                        @ lvgl/src/lv_core/lv_indev.c:435:8
	cmp	r2, #1
	.loc	14 433 39                       @ lvgl/src/lv_core/lv_indev.c:433:39
	strh	r1, [r0, #6]
	.loc	14 435 8                        @ lvgl/src/lv_core/lv_indev.c:435:8
	bne	.LBB4_10
.Ltmp102:
@ %bb.9:
	@DEBUG_VALUE: indev_pointer_proc:data <- $r5
	@DEBUG_VALUE: indev_pointer_proc:i <- $r4
	.loc	14 436 9                        @ lvgl/src/lv_core/lv_indev.c:436:9
	bl	indev_proc_press
	.loc	14 437 5                        @ lvgl/src/lv_core/lv_indev.c:437:5
	b	.LBB4_11
.Ltmp103:
.LBB4_10:
	@DEBUG_VALUE: indev_pointer_proc:data <- $r5
	@DEBUG_VALUE: indev_pointer_proc:i <- $r4
	.loc	14 439 9                        @ lvgl/src/lv_core/lv_indev.c:439:9
	bl	indev_proc_release
.Ltmp104:
.LBB4_11:
	@DEBUG_VALUE: indev_pointer_proc:data <- $r5
	@DEBUG_VALUE: indev_pointer_proc:i <- $r4
	.loc	14 442 74                       @ lvgl/src/lv_core/lv_indev.c:442:74
	ldr	r0, [r4, #32]
	.loc	14 442 40 is_stmt 0             @ lvgl/src/lv_core/lv_indev.c:442:40
	str	r0, [r4, #36]
	.loc	14 444 1 is_stmt 1              @ lvgl/src/lv_core/lv_indev.c:444:1
	pop	{r4, r5, r7, pc}
.Ltmp105:
.Lfunc_end4:
	.size	indev_pointer_proc, .Lfunc_end4-indev_pointer_proc
	.cfi_endproc
	.cantunwind
	.fnend
                                        @ -- End function
	.section	.text.indev_keypad_proc,"ax",%progbits
	.p2align	3                               @ -- Begin function indev_keypad_proc
	.type	indev_keypad_proc,%function
	.code	16                              @ @indev_keypad_proc
	.thumb_func
indev_keypad_proc:
.Lfunc_begin5:
	.loc	14 452 0                        @ lvgl/src/lv_core/lv_indev.c:452:0
	.fnstart
	.cfi_startproc
@ %bb.0:
	@DEBUG_VALUE: indev_keypad_proc:i <- $r0
	@DEBUG_VALUE: indev_keypad_proc:data <- $r1
	.save	{r4, r5, r6, r7, r8, lr}
	push.w	{r4, r5, r6, r7, r8, lr}
	.cfi_def_cfa_offset 24
	.cfi_offset lr, -4
	.cfi_offset r8, -8
	.cfi_offset r7, -12
	.cfi_offset r6, -16
	.cfi_offset r5, -20
	.cfi_offset r4, -24
	mov	r7, r1
.Ltmp106:
	@DEBUG_VALUE: indev_keypad_proc:data <- $r7
	.loc	14 454 14 prologue_end          @ lvgl/src/lv_core/lv_indev.c:454:14
	ldrb	r1, [r1, #14]
	mov	r5, r0
.Ltmp107:
	@DEBUG_VALUE: indev_keypad_proc:i <- $r5
	@DEBUG_VALUE: indev_keypad_proc:i <- $r5
	.loc	14 454 41 is_stmt 0             @ lvgl/src/lv_core/lv_indev.c:454:41
	cmp	r1, #1
	bne	.LBB5_2
.Ltmp108:
@ %bb.1:
	@DEBUG_VALUE: indev_keypad_proc:data <- $r7
	@DEBUG_VALUE: indev_keypad_proc:i <- $r5
	.loc	14 454 52                       @ lvgl/src/lv_core/lv_indev.c:454:52
	ldrb.w	r0, [r5, #80]
.Ltmp109:
	.loc	14 454 8                        @ lvgl/src/lv_core/lv_indev.c:454:8
	lsls	r0, r0, #28
	bmi.w	.LBB5_43
.Ltmp110:
.LBB5_2:
	@DEBUG_VALUE: indev_keypad_proc:data <- $r7
	@DEBUG_VALUE: indev_keypad_proc:i <- $r5
	.loc	14 456 16 is_stmt 1             @ lvgl/src/lv_core/lv_indev.c:456:16
	ldrb.w	r0, [r5, #80]
.Ltmp111:
	.loc	14 456 8 is_stmt 0              @ lvgl/src/lv_core/lv_indev.c:456:8
	lsls	r1, r0, #28
	bpl	.LBB5_4
.Ltmp112:
@ %bb.3:
	@DEBUG_VALUE: indev_keypad_proc:data <- $r7
	@DEBUG_VALUE: indev_keypad_proc:i <- $r5
	.loc	14 0 8                          @ lvgl/src/lv_core/lv_indev.c:0:8
	movs	r1, #0
.Ltmp113:
	.loc	14 458 41 is_stmt 1             @ lvgl/src/lv_core/lv_indev.c:458:41
	str	r1, [r5, #72]
	.loc	14 459 41                       @ lvgl/src/lv_core/lv_indev.c:459:41
	and	r0, r0, #246
	strb.w	r0, [r5, #80]
	.loc	14 460 41                       @ lvgl/src/lv_core/lv_indev.c:460:41
	strb.w	r1, [r5, #32]
.Ltmp114:
.LBB5_4:
	@DEBUG_VALUE: indev_keypad_proc:data <- $r7
	@DEBUG_VALUE: indev_keypad_proc:i <- $r5
	.loc	14 463 25                       @ lvgl/src/lv_core/lv_indev.c:463:25
	ldr	r6, [r5, #88]
.Ltmp115:
	@DEBUG_VALUE: indev_keypad_proc:g <- $r6
	.loc	14 464 8                        @ lvgl/src/lv_core/lv_indev.c:464:8
	cmp	r6, #0
	beq.w	.LBB5_43
.Ltmp116:
@ %bb.5:
	@DEBUG_VALUE: indev_keypad_proc:data <- $r7
	@DEBUG_VALUE: indev_keypad_proc:g <- $r6
	@DEBUG_VALUE: indev_keypad_proc:i <- $r5
	.loc	14 466 21                       @ lvgl/src/lv_core/lv_indev.c:466:21
	mov	r0, r6
	bl	lv_group_get_focused
	.loc	14 466 19 is_stmt 0             @ lvgl/src/lv_core/lv_indev.c:466:19
	movw	r8, :lower16:indev_obj_act
	.loc	14 467 8 is_stmt 1              @ lvgl/src/lv_core/lv_indev.c:467:8
	cmp	r0, #0
	.loc	14 466 19                       @ lvgl/src/lv_core/lv_indev.c:466:19
	movt	r8, :upper16:indev_obj_act
	str.w	r0, [r8]
	.loc	14 467 8                        @ lvgl/src/lv_core/lv_indev.c:467:8
	beq.w	.LBB5_43
.Ltmp117:
@ %bb.6:
	@DEBUG_VALUE: indev_keypad_proc:data <- $r7
	@DEBUG_VALUE: indev_keypad_proc:g <- $r6
	@DEBUG_VALUE: indev_keypad_proc:i <- $r5
	.loc	14 470 46                       @ lvgl/src/lv_core/lv_indev.c:470:46
	ldr	r1, [r5, #36]
.Ltmp118:
	@DEBUG_VALUE: indev_keypad_proc:prev_key <- $r1
	.loc	14 474 43                       @ lvgl/src/lv_core/lv_indev.c:474:43
	ldr	r2, [r7, #4]
	.loc	14 474 35 is_stmt 0             @ lvgl/src/lv_core/lv_indev.c:474:35
	str	r2, [r5, #36]
	.loc	14 479 60 is_stmt 1             @ lvgl/src/lv_core/lv_indev.c:479:60
	ldrb.w	r3, [r5, #32]
.Ltmp119:
	@DEBUG_VALUE: indev_keypad_proc:prev_state <- [DW_OP_LLVM_convert 8 7, DW_OP_LLVM_convert 32 7, DW_OP_stack_value] $r3
	.loc	14 480 45                       @ lvgl/src/lv_core/lv_indev.c:480:45
	ldrb	r2, [r7, #14]
	.loc	14 0 0 is_stmt 0                @ lvgl/src/lv_core/lv_indev.c:0:0
	add.w	r4, r5, #28
	.loc	14 480 37                       @ lvgl/src/lv_core/lv_indev.c:480:37
	strb.w	r2, [r5, #32]
.Ltmp120:
	.loc	14 483 41 is_stmt 1             @ lvgl/src/lv_core/lv_indev.c:483:41
	cmp	r3, #0
	.loc	14 483 14 is_stmt 0             @ lvgl/src/lv_core/lv_indev.c:483:14
	ldrb	r2, [r7, #14]
	.loc	14 483 41                       @ lvgl/src/lv_core/lv_indev.c:483:41
	it	eq
	cmpeq	r2, #1
	beq	.LBB5_16
.Ltmp121:
@ %bb.7:
	@DEBUG_VALUE: indev_keypad_proc:data <- $r7
	@DEBUG_VALUE: indev_keypad_proc:g <- $r6
	@DEBUG_VALUE: indev_keypad_proc:i <- $r5
	@DEBUG_VALUE: indev_keypad_proc:prev_state <- [DW_OP_LLVM_convert 8 7, DW_OP_LLVM_convert 32 7, DW_OP_stack_value] $r3
	@DEBUG_VALUE: indev_keypad_proc:prev_key <- $r1
	.loc	14 521 46 is_stmt 1             @ lvgl/src/lv_core/lv_indev.c:521:46
	cmp	r3, #1
.Ltmp122:
	@DEBUG_VALUE: indev_keypad_proc:prev_state <- [DW_OP_LLVM_convert 8 7, DW_OP_LLVM_convert 32 7, DW_OP_stack_value] undef
	it	eq
	cmpeq	r2, #1
	beq.w	.LBB5_20
.Ltmp123:
@ %bb.8:
	@DEBUG_VALUE: indev_keypad_proc:data <- $r7
	@DEBUG_VALUE: indev_keypad_proc:g <- $r6
	@DEBUG_VALUE: indev_keypad_proc:i <- $r5
	@DEBUG_VALUE: indev_keypad_proc:prev_key <- $r1
	.loc	14 574 47                       @ lvgl/src/lv_core/lv_indev.c:574:47
	cmp	r3, #1
	it	eq
	cmpeq	r2, #0
	bne.w	.LBB5_42
.Ltmp124:
@ %bb.9:
	@DEBUG_VALUE: indev_keypad_proc:data <- $r7
	@DEBUG_VALUE: indev_keypad_proc:g <- $r6
	@DEBUG_VALUE: indev_keypad_proc:i <- $r5
	@DEBUG_VALUE: indev_keypad_proc:prev_key <- $r1
	.loc	14 577 12                       @ lvgl/src/lv_core/lv_indev.c:577:12
	cmp	r1, #10
	.loc	14 576 19                       @ lvgl/src/lv_core/lv_indev.c:576:19
	str	r1, [r7, #4]
	.loc	14 577 12                       @ lvgl/src/lv_core/lv_indev.c:577:12
	bne	.LBB5_15
.Ltmp125:
@ %bb.10:
	@DEBUG_VALUE: indev_keypad_proc:data <- $r7
	@DEBUG_VALUE: indev_keypad_proc:g <- $r6
	@DEBUG_VALUE: indev_keypad_proc:i <- $r5
	@DEBUG_VALUE: indev_keypad_proc:prev_key <- $r1
	.loc	14 579 28                       @ lvgl/src/lv_core/lv_indev.c:579:28
	ldr	r3, [r0, #28]
	.loc	14 579 13 is_stmt 0             @ lvgl/src/lv_core/lv_indev.c:579:13
	movs	r1, #14
.Ltmp126:
	movs	r2, #0
	blx	r3
.Ltmp127:
	.loc	14 580 16 is_stmt 1             @ lvgl/src/lv_core/lv_indev.c:580:16
	mov	r0, r4
	bl	indev_reset_check
.Ltmp128:
	.loc	14 580 16 is_stmt 0             @ lvgl/src/lv_core/lv_indev.c:580:16
	cmp	r0, #0
	bne.w	.LBB5_43
.Ltmp129:
@ %bb.11:
	@DEBUG_VALUE: indev_keypad_proc:data <- $r7
	@DEBUG_VALUE: indev_keypad_proc:g <- $r6
	@DEBUG_VALUE: indev_keypad_proc:i <- $r5
	.loc	14 582 24 is_stmt 1             @ lvgl/src/lv_core/lv_indev.c:582:24
	ldrb.w	r0, [r5, #80]
.Ltmp130:
	.loc	14 582 16 is_stmt 0             @ lvgl/src/lv_core/lv_indev.c:582:16
	lsls	r0, r0, #31
	bne	.LBB5_13
.Ltmp131:
@ %bb.12:
	@DEBUG_VALUE: indev_keypad_proc:data <- $r7
	@DEBUG_VALUE: indev_keypad_proc:g <- $r6
	@DEBUG_VALUE: indev_keypad_proc:i <- $r5
	.loc	14 583 31 is_stmt 1             @ lvgl/src/lv_core/lv_indev.c:583:31
	ldr.w	r0, [r8]
	.loc	14 583 17 is_stmt 0             @ lvgl/src/lv_core/lv_indev.c:583:17
	movs	r1, #3
	movs	r2, #0
	bl	lv_event_send
.Ltmp132:
	.loc	14 584 20 is_stmt 1             @ lvgl/src/lv_core/lv_indev.c:584:20
	mov	r0, r4
	bl	indev_reset_check
.Ltmp133:
	.loc	14 584 20 is_stmt 0             @ lvgl/src/lv_core/lv_indev.c:584:20
	cmp	r0, #0
	bne.w	.LBB5_43
.Ltmp134:
.LBB5_13:
	@DEBUG_VALUE: indev_keypad_proc:data <- $r7
	@DEBUG_VALUE: indev_keypad_proc:g <- $r6
	@DEBUG_VALUE: indev_keypad_proc:i <- $r5
	.loc	14 587 27 is_stmt 1             @ lvgl/src/lv_core/lv_indev.c:587:27
	ldr.w	r0, [r8]
	.loc	14 587 13 is_stmt 0             @ lvgl/src/lv_core/lv_indev.c:587:13
	movs	r1, #6
	movs	r2, #0
	bl	lv_event_send
.Ltmp135:
	.loc	14 588 16 is_stmt 1             @ lvgl/src/lv_core/lv_indev.c:588:16
	mov	r0, r4
	bl	indev_reset_check
.Ltmp136:
	.loc	14 588 16 is_stmt 0             @ lvgl/src/lv_core/lv_indev.c:588:16
	cmp	r0, #0
	bne.w	.LBB5_43
.Ltmp137:
@ %bb.14:
	@DEBUG_VALUE: indev_keypad_proc:data <- $r7
	@DEBUG_VALUE: indev_keypad_proc:g <- $r6
	@DEBUG_VALUE: indev_keypad_proc:i <- $r5
	.loc	14 590 27 is_stmt 1             @ lvgl/src/lv_core/lv_indev.c:590:27
	ldr.w	r0, [r8]
	.loc	14 590 13 is_stmt 0             @ lvgl/src/lv_core/lv_indev.c:590:13
	movs	r1, #7
	movs	r2, #0
	bl	lv_event_send
.Ltmp138:
	.loc	14 591 16 is_stmt 1             @ lvgl/src/lv_core/lv_indev.c:591:16
	mov	r0, r4
	bl	indev_reset_check
.Ltmp139:
	.loc	14 591 16 is_stmt 0             @ lvgl/src/lv_core/lv_indev.c:591:16
	cmp	r0, #0
.Ltmp140:
	.loc	14 601 1 is_stmt 1              @ lvgl/src/lv_core/lv_indev.c:601:1
	it	ne
	popne.w	{r4, r5, r6, r7, r8, pc}
.Ltmp141:
.LBB5_15:
	.loc	14 594 30                       @ lvgl/src/lv_core/lv_indev.c:594:30
	ldrb.w	r0, [r5, #80]
	movs	r1, #0
	.loc	14 593 30                       @ lvgl/src/lv_core/lv_indev.c:593:30
	str	r1, [r5, #72]
	.loc	14 594 30                       @ lvgl/src/lv_core/lv_indev.c:594:30
	and	r0, r0, #254
	strb.w	r0, [r5, #80]
	b	.LBB5_42
.Ltmp142:
.LBB5_16:
	@DEBUG_VALUE: indev_keypad_proc:data <- $r7
	@DEBUG_VALUE: indev_keypad_proc:g <- $r6
	@DEBUG_VALUE: indev_keypad_proc:i <- $r5
	@DEBUG_VALUE: indev_keypad_proc:prev_state <- [DW_OP_LLVM_convert 8 7, DW_OP_LLVM_convert 32 7, DW_OP_stack_value] $r3
	@DEBUG_VALUE: indev_keypad_proc:prev_key <- $r1
	.loc	14 484 32                       @ lvgl/src/lv_core/lv_indev.c:484:32
	bl	lv_tick_get
.Ltmp143:
	.loc	14 487 18                       @ lvgl/src/lv_core/lv_indev.c:487:18
	ldr	r1, [r7, #4]
.Ltmp144:
	.loc	14 484 30                       @ lvgl/src/lv_core/lv_indev.c:484:30
	str	r0, [r5, #72]
	.loc	14 487 12                       @ lvgl/src/lv_core/lv_indev.c:487:12
	sub.w	r2, r1, #9
	cmp	r2, #18
	bhi.w	.LBB5_38
.Ltmp145:
@ %bb.17:
	@DEBUG_VALUE: indev_keypad_proc:data <- $r7
	@DEBUG_VALUE: indev_keypad_proc:g <- $r6
	@DEBUG_VALUE: indev_keypad_proc:i <- $r5
	.loc	14 0 12 is_stmt 0               @ lvgl/src/lv_core/lv_indev.c:0:12
.LCPI5_0:
	tbb	[pc, r2]
.Ltmp146:
@ %bb.18:
.LJTI5_0:
	.byte	(.LBB5_19-(.LCPI5_0+4))/2
	.byte	(.LBB5_36-(.LCPI5_0+4))/2
	.byte	(.LBB5_35-(.LCPI5_0+4))/2
	.byte	(.LBB5_38-(.LCPI5_0+4))/2
	.byte	(.LBB5_38-(.LCPI5_0+4))/2
	.byte	(.LBB5_38-(.LCPI5_0+4))/2
	.byte	(.LBB5_38-(.LCPI5_0+4))/2
	.byte	(.LBB5_38-(.LCPI5_0+4))/2
	.byte	(.LBB5_38-(.LCPI5_0+4))/2
	.byte	(.LBB5_38-(.LCPI5_0+4))/2
	.byte	(.LBB5_38-(.LCPI5_0+4))/2
	.byte	(.LBB5_38-(.LCPI5_0+4))/2
	.byte	(.LBB5_38-(.LCPI5_0+4))/2
	.byte	(.LBB5_38-(.LCPI5_0+4))/2
	.byte	(.LBB5_38-(.LCPI5_0+4))/2
	.byte	(.LBB5_38-(.LCPI5_0+4))/2
	.byte	(.LBB5_38-(.LCPI5_0+4))/2
	.byte	(.LBB5_38-(.LCPI5_0+4))/2
	.byte	(.LBB5_39-(.LCPI5_0+4))/2
	.p2align	1
.LBB5_19:
.Ltmp147:
	@DEBUG_VALUE: indev_keypad_proc:data <- $r7
	@DEBUG_VALUE: indev_keypad_proc:g <- $r6
	@DEBUG_VALUE: indev_keypad_proc:i <- $r5
	movs	r1, #0
	mov	r0, r6
	bl	lv_group_set_editing
	mov	r0, r6
	bl	lv_group_focus_next
	b	.LBB5_41
.Ltmp148:
.LBB5_20:
	@DEBUG_VALUE: indev_keypad_proc:data <- $r7
	@DEBUG_VALUE: indev_keypad_proc:g <- $r6
	@DEBUG_VALUE: indev_keypad_proc:i <- $r5
	@DEBUG_VALUE: indev_keypad_proc:prev_key <- $r1
	.loc	14 523 18 is_stmt 1             @ lvgl/src/lv_core/lv_indev.c:523:18
	ldr	r1, [r7, #4]
.Ltmp149:
	.loc	14 523 12 is_stmt 0             @ lvgl/src/lv_core/lv_indev.c:523:12
	cmp	r1, #10
	bne	.LBB5_23
.Ltmp150:
@ %bb.21:
	@DEBUG_VALUE: indev_keypad_proc:data <- $r7
	@DEBUG_VALUE: indev_keypad_proc:g <- $r6
	@DEBUG_VALUE: indev_keypad_proc:i <- $r5
	.loc	14 524 28 is_stmt 1             @ lvgl/src/lv_core/lv_indev.c:524:28
	ldr	r3, [r0, #28]
	.loc	14 524 13 is_stmt 0             @ lvgl/src/lv_core/lv_indev.c:524:13
	movs	r1, #12
	movs	r2, #0
	blx	r3
.Ltmp151:
	.loc	14 525 16 is_stmt 1             @ lvgl/src/lv_core/lv_indev.c:525:16
	mov	r0, r4
	bl	indev_reset_check
.Ltmp152:
	.loc	14 525 16 is_stmt 0             @ lvgl/src/lv_core/lv_indev.c:525:16
	cmp	r0, #0
	bne.w	.LBB5_43
.Ltmp153:
@ %bb.22:
	@DEBUG_VALUE: indev_keypad_proc:data <- $r7
	@DEBUG_VALUE: indev_keypad_proc:g <- $r6
	@DEBUG_VALUE: indev_keypad_proc:i <- $r5
	.loc	14 526 27 is_stmt 1             @ lvgl/src/lv_core/lv_indev.c:526:27
	ldr.w	r0, [r8]
	.loc	14 526 13 is_stmt 0             @ lvgl/src/lv_core/lv_indev.c:526:13
	movs	r1, #1
	movs	r2, #0
	bl	lv_event_send
.Ltmp154:
	.loc	14 527 16 is_stmt 1             @ lvgl/src/lv_core/lv_indev.c:527:16
	mov	r0, r4
	bl	indev_reset_check
.Ltmp155:
	.loc	14 527 16 is_stmt 0             @ lvgl/src/lv_core/lv_indev.c:527:16
	cmp	r0, #0
	bne	.LBB5_43
.Ltmp156:
.LBB5_23:
	@DEBUG_VALUE: indev_keypad_proc:data <- $r7
	@DEBUG_VALUE: indev_keypad_proc:g <- $r6
	@DEBUG_VALUE: indev_keypad_proc:i <- $r5
	.loc	14 531 20 is_stmt 1             @ lvgl/src/lv_core/lv_indev.c:531:20
	ldrb.w	r0, [r5, #80]
	.loc	14 531 38 is_stmt 0             @ lvgl/src/lv_core/lv_indev.c:531:38
	lsls	r0, r0, #31
	bne	.LBB5_28
.Ltmp157:
@ %bb.24:
	@DEBUG_VALUE: indev_keypad_proc:data <- $r7
	@DEBUG_VALUE: indev_keypad_proc:g <- $r6
	@DEBUG_VALUE: indev_keypad_proc:i <- $r5
	.loc	14 531 63                       @ lvgl/src/lv_core/lv_indev.c:531:63
	ldr	r0, [r5, #72]
	.loc	14 531 41                       @ lvgl/src/lv_core/lv_indev.c:531:41
	bl	lv_tick_elaps
	.loc	14 531 89                       @ lvgl/src/lv_core/lv_indev.c:531:89
	ldrh	r1, [r5, #24]
.Ltmp158:
	.loc	14 531 12                       @ lvgl/src/lv_core/lv_indev.c:531:12
	cmp	r0, r1
	bls	.LBB5_28
.Ltmp159:
@ %bb.25:
	@DEBUG_VALUE: indev_keypad_proc:data <- $r7
	@DEBUG_VALUE: indev_keypad_proc:g <- $r6
	@DEBUG_VALUE: indev_keypad_proc:i <- $r5
	.loc	14 532 34 is_stmt 1             @ lvgl/src/lv_core/lv_indev.c:532:34
	ldrb.w	r0, [r5, #80]
	orr	r0, r0, #1
	strb.w	r0, [r5, #80]
.Ltmp160:
	.loc	14 533 22                       @ lvgl/src/lv_core/lv_indev.c:533:22
	ldr	r0, [r7, #4]
.Ltmp161:
	.loc	14 533 16 is_stmt 0             @ lvgl/src/lv_core/lv_indev.c:533:16
	cmp	r0, #10
	bne	.LBB5_42
.Ltmp162:
@ %bb.26:
	@DEBUG_VALUE: indev_keypad_proc:data <- $r7
	@DEBUG_VALUE: indev_keypad_proc:g <- $r6
	@DEBUG_VALUE: indev_keypad_proc:i <- $r5
	.loc	14 534 48 is_stmt 1             @ lvgl/src/lv_core/lv_indev.c:534:48
	bl	lv_tick_get
	.loc	14 535 17                       @ lvgl/src/lv_core/lv_indev.c:535:17
	ldr.w	r3, [r8]
	.loc	14 534 46                       @ lvgl/src/lv_core/lv_indev.c:534:46
	str	r0, [r5, #76]
	.loc	14 535 17                       @ lvgl/src/lv_core/lv_indev.c:535:17
	movs	r1, #15
	movs	r2, #0
	.loc	14 535 32 is_stmt 0             @ lvgl/src/lv_core/lv_indev.c:535:32
	ldr	r7, [r3, #28]
.Ltmp163:
	@DEBUG_VALUE: indev_keypad_proc:data <- [DW_OP_LLVM_entry_value 1] $r1
	.loc	14 535 17                       @ lvgl/src/lv_core/lv_indev.c:535:17
	mov	r0, r3
	blx	r7
.Ltmp164:
	.loc	14 536 20 is_stmt 1             @ lvgl/src/lv_core/lv_indev.c:536:20
	mov	r0, r4
	bl	indev_reset_check
.Ltmp165:
	.loc	14 536 20 is_stmt 0             @ lvgl/src/lv_core/lv_indev.c:536:20
	cmp	r0, #0
	bne	.LBB5_43
.Ltmp166:
@ %bb.27:
	@DEBUG_VALUE: indev_keypad_proc:g <- $r6
	@DEBUG_VALUE: indev_keypad_proc:i <- $r5
	@DEBUG_VALUE: indev_keypad_proc:data <- [DW_OP_LLVM_entry_value 1] $r1
	.loc	14 537 31 is_stmt 1             @ lvgl/src/lv_core/lv_indev.c:537:31
	ldr.w	r0, [r8]
	.loc	14 537 17 is_stmt 0             @ lvgl/src/lv_core/lv_indev.c:537:17
	movs	r1, #4
	b	.LBB5_40
.Ltmp167:
.LBB5_28:
	@DEBUG_VALUE: indev_keypad_proc:data <- $r7
	@DEBUG_VALUE: indev_keypad_proc:g <- $r6
	@DEBUG_VALUE: indev_keypad_proc:i <- $r5
	.loc	14 542 25 is_stmt 1             @ lvgl/src/lv_core/lv_indev.c:542:25
	ldrb.w	r0, [r5, #80]
	.loc	14 542 43 is_stmt 0             @ lvgl/src/lv_core/lv_indev.c:542:43
	lsls	r0, r0, #31
	beq	.LBB5_42
.Ltmp168:
@ %bb.29:
	@DEBUG_VALUE: indev_keypad_proc:data <- $r7
	@DEBUG_VALUE: indev_keypad_proc:g <- $r6
	@DEBUG_VALUE: indev_keypad_proc:i <- $r5
	.loc	14 543 39 is_stmt 1             @ lvgl/src/lv_core/lv_indev.c:543:39
	ldr	r0, [r5, #76]
	.loc	14 543 17 is_stmt 0             @ lvgl/src/lv_core/lv_indev.c:543:17
	bl	lv_tick_elaps
	.loc	14 543 73                       @ lvgl/src/lv_core/lv_indev.c:543:73
	ldrh	r1, [r5, #26]
.Ltmp169:
	.loc	14 542 17 is_stmt 1             @ lvgl/src/lv_core/lv_indev.c:542:17
	cmp	r0, r1
	bls	.LBB5_42
.Ltmp170:
@ %bb.30:
	@DEBUG_VALUE: indev_keypad_proc:data <- $r7
	@DEBUG_VALUE: indev_keypad_proc:g <- $r6
	@DEBUG_VALUE: indev_keypad_proc:i <- $r5
	.loc	14 545 44                       @ lvgl/src/lv_core/lv_indev.c:545:44
	bl	lv_tick_get
.Ltmp171:
	.loc	14 548 22                       @ lvgl/src/lv_core/lv_indev.c:548:22
	ldr	r1, [r7, #4]
.Ltmp172:
	.loc	14 545 42                       @ lvgl/src/lv_core/lv_indev.c:545:42
	str	r0, [r5, #76]
	.loc	14 548 16                       @ lvgl/src/lv_core/lv_indev.c:548:16
	cmp	r1, #9
	beq	.LBB5_19
.Ltmp173:
@ %bb.31:
	@DEBUG_VALUE: indev_keypad_proc:data <- $r7
	@DEBUG_VALUE: indev_keypad_proc:g <- $r6
	@DEBUG_VALUE: indev_keypad_proc:i <- $r5
	cmp	r1, #11
	beq	.LBB5_35
.Ltmp174:
@ %bb.32:
	@DEBUG_VALUE: indev_keypad_proc:data <- $r7
	@DEBUG_VALUE: indev_keypad_proc:g <- $r6
	@DEBUG_VALUE: indev_keypad_proc:i <- $r5
	cmp	r1, #10
	bne	.LBB5_44
.Ltmp175:
@ %bb.33:
	@DEBUG_VALUE: indev_keypad_proc:data <- $r7
	@DEBUG_VALUE: indev_keypad_proc:g <- $r6
	@DEBUG_VALUE: indev_keypad_proc:i <- $r5
	.loc	14 549 17                       @ lvgl/src/lv_core/lv_indev.c:549:17
	ldr.w	r0, [r8]
	movs	r1, #16
	movs	r2, #0
	.loc	14 549 32 is_stmt 0             @ lvgl/src/lv_core/lv_indev.c:549:32
	ldr	r3, [r0, #28]
	.loc	14 549 17                       @ lvgl/src/lv_core/lv_indev.c:549:17
	blx	r3
.Ltmp176:
	.loc	14 550 20 is_stmt 1             @ lvgl/src/lv_core/lv_indev.c:550:20
	mov	r0, r4
	bl	indev_reset_check
.Ltmp177:
	.loc	14 550 20 is_stmt 0             @ lvgl/src/lv_core/lv_indev.c:550:20
	cbnz	r0, .LBB5_43
.Ltmp178:
@ %bb.34:
	@DEBUG_VALUE: indev_keypad_proc:data <- $r7
	@DEBUG_VALUE: indev_keypad_proc:g <- $r6
	@DEBUG_VALUE: indev_keypad_proc:i <- $r5
	.loc	14 551 31 is_stmt 1             @ lvgl/src/lv_core/lv_indev.c:551:31
	ldr.w	r0, [r8]
	.loc	14 551 17 is_stmt 0             @ lvgl/src/lv_core/lv_indev.c:551:17
	movs	r1, #5
	b	.LBB5_40
.Ltmp179:
.LBB5_35:
	@DEBUG_VALUE: indev_keypad_proc:data <- $r7
	@DEBUG_VALUE: indev_keypad_proc:g <- $r6
	@DEBUG_VALUE: indev_keypad_proc:i <- $r5
	.loc	14 0 0                          @ lvgl/src/lv_core/lv_indev.c:0:0
	movs	r1, #0
	mov	r0, r6
	bl	lv_group_set_editing
	mov	r0, r6
	bl	lv_group_focus_prev
	b	.LBB5_41
.Ltmp180:
.LBB5_36:
	@DEBUG_VALUE: indev_keypad_proc:data <- $r7
	@DEBUG_VALUE: indev_keypad_proc:g <- $r6
	@DEBUG_VALUE: indev_keypad_proc:i <- $r5
	.loc	14 489 13 is_stmt 1             @ lvgl/src/lv_core/lv_indev.c:489:13
	movs	r1, #10
	mov	r0, r6
	bl	lv_group_send_data
	.loc	14 491 13                       @ lvgl/src/lv_core/lv_indev.c:491:13
	ldr.w	r0, [r8]
	movs	r1, #11
	movs	r2, #0
	.loc	14 491 28 is_stmt 0             @ lvgl/src/lv_core/lv_indev.c:491:28
	ldr	r3, [r0, #28]
	.loc	14 491 13                       @ lvgl/src/lv_core/lv_indev.c:491:13
	blx	r3
.Ltmp181:
	.loc	14 492 16 is_stmt 1             @ lvgl/src/lv_core/lv_indev.c:492:16
	mov	r0, r4
	bl	indev_reset_check
.Ltmp182:
	.loc	14 492 16 is_stmt 0             @ lvgl/src/lv_core/lv_indev.c:492:16
	cbnz	r0, .LBB5_43
.Ltmp183:
@ %bb.37:
	@DEBUG_VALUE: indev_keypad_proc:data <- $r7
	@DEBUG_VALUE: indev_keypad_proc:g <- $r6
	@DEBUG_VALUE: indev_keypad_proc:i <- $r5
	.loc	14 493 27 is_stmt 1             @ lvgl/src/lv_core/lv_indev.c:493:27
	ldr.w	r0, [r8]
	.loc	14 493 13 is_stmt 0             @ lvgl/src/lv_core/lv_indev.c:493:13
	movs	r1, #0
	b	.LBB5_40
.Ltmp184:
.LBB5_38:
	@DEBUG_VALUE: indev_keypad_proc:data <- $r7
	@DEBUG_VALUE: indev_keypad_proc:g <- $r6
	@DEBUG_VALUE: indev_keypad_proc:i <- $r5
	.loc	14 517 13 is_stmt 1             @ lvgl/src/lv_core/lv_indev.c:517:13
	mov	r0, r6
	bl	lv_group_send_data
	b	.LBB5_42
.Ltmp185:
.LBB5_39:
	@DEBUG_VALUE: indev_keypad_proc:data <- $r7
	@DEBUG_VALUE: indev_keypad_proc:g <- $r6
	@DEBUG_VALUE: indev_keypad_proc:i <- $r5
	.loc	14 498 13                       @ lvgl/src/lv_core/lv_indev.c:498:13
	movs	r1, #27
	mov	r0, r6
	bl	lv_group_send_data
	.loc	14 500 27                       @ lvgl/src/lv_core/lv_indev.c:500:27
	ldr.w	r0, [r8]
	.loc	14 500 13 is_stmt 0             @ lvgl/src/lv_core/lv_indev.c:500:13
	movs	r1, #20
.Ltmp186:
.LBB5_40:
	@DEBUG_VALUE: indev_keypad_proc:g <- $r6
	@DEBUG_VALUE: indev_keypad_proc:i <- $r5
	.loc	14 0 0                          @ lvgl/src/lv_core/lv_indev.c:0:0
	movs	r2, #0
	bl	lv_event_send
.Ltmp187:
.LBB5_41:
	@DEBUG_VALUE: indev_keypad_proc:g <- $r6
	@DEBUG_VALUE: indev_keypad_proc:i <- $r5
	mov	r0, r4
	bl	indev_reset_check
	cbnz	r0, .LBB5_43
.Ltmp188:
.LBB5_42:
	movs	r0, #0
	.loc	14 596 19 is_stmt 1             @ lvgl/src/lv_core/lv_indev.c:596:19
	str.w	r0, [r8]
.LBB5_43:
	.loc	14 601 1                        @ lvgl/src/lv_core/lv_indev.c:601:1
	pop.w	{r4, r5, r6, r7, r8, pc}
.LBB5_44:
.Ltmp189:
	@DEBUG_VALUE: indev_keypad_proc:data <- $r7
	@DEBUG_VALUE: indev_keypad_proc:g <- $r6
	@DEBUG_VALUE: indev_keypad_proc:i <- $r5
	.loc	14 568 17                       @ lvgl/src/lv_core/lv_indev.c:568:17
	mov	r0, r6
	bl	lv_group_send_data
	b	.LBB5_41
.Ltmp190:
.Lfunc_end5:
	.size	indev_keypad_proc, .Lfunc_end5-indev_keypad_proc
	.cfi_endproc
	.cantunwind
	.fnend
                                        @ -- End function
	.section	.text.indev_encoder_proc,"ax",%progbits
	.p2align	3                               @ -- Begin function indev_encoder_proc
	.type	indev_encoder_proc,%function
	.code	16                              @ @indev_encoder_proc
	.thumb_func
indev_encoder_proc:
.Lfunc_begin6:
	.loc	14 609 0                        @ lvgl/src/lv_core/lv_indev.c:609:0
	.fnstart
	.cfi_startproc
@ %bb.0:
	@DEBUG_VALUE: indev_encoder_proc:i <- $r0
	@DEBUG_VALUE: indev_encoder_proc:data <- $r1
	.save	{r4, r5, r6, r7, r8, r9, lr}
	push.w	{r4, r5, r6, r7, r8, r9, lr}
	.cfi_def_cfa_offset 28
	.cfi_offset lr, -4
	.cfi_offset r9, -8
	.cfi_offset r8, -12
	.cfi_offset r7, -16
	.cfi_offset r6, -20
	.cfi_offset r5, -24
	.cfi_offset r4, -28
	.pad	#4
	sub	sp, #4
	.cfi_def_cfa_offset 32
	mov	r4, r1
.Ltmp191:
	@DEBUG_VALUE: indev_encoder_proc:data <- $r4
	.loc	14 612 14 prologue_end          @ lvgl/src/lv_core/lv_indev.c:612:14
	ldrb	r1, [r1, #14]
	mov	r6, r0
.Ltmp192:
	@DEBUG_VALUE: indev_encoder_proc:i <- $r6
	@DEBUG_VALUE: indev_encoder_proc:i <- $r6
	.loc	14 612 41 is_stmt 0             @ lvgl/src/lv_core/lv_indev.c:612:41
	cmp	r1, #1
	bne	.LBB6_2
.Ltmp193:
@ %bb.1:
	@DEBUG_VALUE: indev_encoder_proc:i <- $r6
	@DEBUG_VALUE: indev_encoder_proc:data <- $r4
	.loc	14 612 52                       @ lvgl/src/lv_core/lv_indev.c:612:52
	ldrb.w	r0, [r6, #80]
.Ltmp194:
	.loc	14 612 8                        @ lvgl/src/lv_core/lv_indev.c:612:8
	lsls	r0, r0, #28
	bmi.w	.LBB6_77
.Ltmp195:
.LBB6_2:
	@DEBUG_VALUE: indev_encoder_proc:i <- $r6
	@DEBUG_VALUE: indev_encoder_proc:data <- $r4
	.loc	14 614 16 is_stmt 1             @ lvgl/src/lv_core/lv_indev.c:614:16
	ldrb.w	r0, [r6, #80]
.Ltmp196:
	.loc	14 614 8 is_stmt 0              @ lvgl/src/lv_core/lv_indev.c:614:8
	lsls	r1, r0, #28
	bpl	.LBB6_4
.Ltmp197:
@ %bb.3:
	@DEBUG_VALUE: indev_encoder_proc:i <- $r6
	@DEBUG_VALUE: indev_encoder_proc:data <- $r4
	.loc	14 0 8                          @ lvgl/src/lv_core/lv_indev.c:0:8
	movs	r1, #0
.Ltmp198:
	.loc	14 616 41 is_stmt 1             @ lvgl/src/lv_core/lv_indev.c:616:41
	str	r1, [r6, #72]
	.loc	14 617 41                       @ lvgl/src/lv_core/lv_indev.c:617:41
	and	r0, r0, #246
	strb.w	r0, [r6, #80]
	.loc	14 618 41                       @ lvgl/src/lv_core/lv_indev.c:618:41
	strb.w	r1, [r6, #32]
.Ltmp199:
.LBB6_4:
	@DEBUG_VALUE: indev_encoder_proc:i <- $r6
	@DEBUG_VALUE: indev_encoder_proc:data <- $r4
	.loc	14 623 60                       @ lvgl/src/lv_core/lv_indev.c:623:60
	ldrb.w	r7, [r6, #32]
.Ltmp200:
	@DEBUG_VALUE: indev_encoder_proc:last_state <- undef
	.loc	14 624 45                       @ lvgl/src/lv_core/lv_indev.c:624:45
	ldrb	r0, [r4, #14]
	.loc	14 627 25                       @ lvgl/src/lv_core/lv_indev.c:627:25
	ldr	r5, [r6, #88]
.Ltmp201:
	@DEBUG_VALUE: indev_encoder_proc:g <- $r5
	.loc	14 624 37                       @ lvgl/src/lv_core/lv_indev.c:624:37
	strb.w	r0, [r6, #32]
	.loc	14 628 8                        @ lvgl/src/lv_core/lv_indev.c:628:8
	cmp	r5, #0
	.loc	14 625 45                       @ lvgl/src/lv_core/lv_indev.c:625:45
	ldr	r0, [r4, #4]
	.loc	14 625 37 is_stmt 0             @ lvgl/src/lv_core/lv_indev.c:625:37
	str	r0, [r6, #36]
	.loc	14 628 8 is_stmt 1              @ lvgl/src/lv_core/lv_indev.c:628:8
	beq.w	.LBB6_77
.Ltmp202:
@ %bb.5:
	@DEBUG_VALUE: indev_encoder_proc:i <- $r6
	@DEBUG_VALUE: indev_encoder_proc:g <- $r5
	@DEBUG_VALUE: indev_encoder_proc:data <- $r4
	.loc	14 630 21                       @ lvgl/src/lv_core/lv_indev.c:630:21
	mov	r0, r5
	bl	lv_group_get_focused
	.loc	14 630 19 is_stmt 0             @ lvgl/src/lv_core/lv_indev.c:630:19
	movw	r9, :lower16:indev_obj_act
	.loc	14 631 8 is_stmt 1              @ lvgl/src/lv_core/lv_indev.c:631:8
	cmp	r0, #0
	.loc	14 630 19                       @ lvgl/src/lv_core/lv_indev.c:630:19
	movt	r9, :upper16:indev_obj_act
	str.w	r0, [r9]
	.loc	14 631 8                        @ lvgl/src/lv_core/lv_indev.c:631:8
	beq.w	.LBB6_77
.Ltmp203:
@ %bb.6:
	@DEBUG_VALUE: indev_encoder_proc:i <- $r6
	@DEBUG_VALUE: indev_encoder_proc:g <- $r5
	@DEBUG_VALUE: indev_encoder_proc:data <- $r4
	.loc	14 634 14                       @ lvgl/src/lv_core/lv_indev.c:634:14
	ldrb	r0, [r4, #14]
.Ltmp204:
	.loc	14 634 8 is_stmt 0              @ lvgl/src/lv_core/lv_indev.c:634:8
	cmp	r0, #0
	itt	ne
	movne	r0, #0
.Ltmp205:
	.loc	14 635 24 is_stmt 1             @ lvgl/src/lv_core/lv_indev.c:635:24
	strhne	r0, [r4, #12]
.Ltmp206:
	.loc	14 639 21                       @ lvgl/src/lv_core/lv_indev.c:639:21
	mov	r0, r5
	bl	lv_group_get_focused
	.loc	14 640 8                        @ lvgl/src/lv_core/lv_indev.c:640:8
	cmp	r0, #0
	.loc	14 639 19                       @ lvgl/src/lv_core/lv_indev.c:639:19
	str.w	r0, [r9]
	.loc	14 640 8                        @ lvgl/src/lv_core/lv_indev.c:640:8
	beq.w	.LBB6_77
.Ltmp207:
@ %bb.7:
	@DEBUG_VALUE: indev_encoder_proc:i <- $r6
	@DEBUG_VALUE: indev_encoder_proc:g <- $r5
	@DEBUG_VALUE: indev_encoder_proc:data <- $r4
	.loc	14 643 14                       @ lvgl/src/lv_core/lv_indev.c:643:14
	ldrb	r1, [r4, #14]
.Ltmp208:
	.loc	14 0 0 is_stmt 0                @ lvgl/src/lv_core/lv_indev.c:0:0
	add.w	r8, r6, #28
.Ltmp209:
	.loc	14 643 41                       @ lvgl/src/lv_core/lv_indev.c:643:41
	cmp	r7, #0
	it	eq
	cmpeq	r1, #1
	beq	.LBB6_15
.Ltmp210:
@ %bb.8:
	@DEBUG_VALUE: indev_encoder_proc:i <- $r6
	@DEBUG_VALUE: indev_encoder_proc:g <- $r5
	@DEBUG_VALUE: indev_encoder_proc:data <- $r4
	.loc	14 680 46 is_stmt 1             @ lvgl/src/lv_core/lv_indev.c:680:46
	cmp	r7, #1
	it	eq
	cmpeq	r1, #1
	beq	.LBB6_22
.Ltmp211:
@ %bb.9:
	@DEBUG_VALUE: indev_encoder_proc:i <- $r6
	@DEBUG_VALUE: indev_encoder_proc:g <- $r5
	@DEBUG_VALUE: indev_encoder_proc:data <- $r4
	.loc	14 737 47                       @ lvgl/src/lv_core/lv_indev.c:737:47
	cmp	r7, #1
	it	eq
	cmpeq	r1, #0
	bne.w	.LBB6_59
.Ltmp212:
@ %bb.10:
	@DEBUG_VALUE: indev_encoder_proc:i <- $r6
	@DEBUG_VALUE: indev_encoder_proc:g <- $r5
	@DEBUG_VALUE: indev_encoder_proc:data <- $r4
	.loc	14 739 18                       @ lvgl/src/lv_core/lv_indev.c:739:18
	ldr	r1, [r4, #4]
.Ltmp213:
	.loc	14 739 12 is_stmt 0             @ lvgl/src/lv_core/lv_indev.c:739:12
	cmp	r1, #10
	bne.w	.LBB6_54
.Ltmp214:
@ %bb.11:
	@DEBUG_VALUE: indev_encoder_proc:i <- $r6
	@DEBUG_VALUE: indev_encoder_proc:g <- $r5
	@DEBUG_VALUE: indev_encoder_proc:data <- $r4
	.loc	14 0 12                         @ lvgl/src/lv_core/lv_indev.c:0:12
	movs	r1, #0
.Ltmp215:
	@DEBUG_VALUE: editable <- 0
	.loc	14 740 18 is_stmt 1             @ lvgl/src/lv_core/lv_indev.c:740:18
	strb.w	r1, [sp, #1]
	.loc	14 741 28                       @ lvgl/src/lv_core/lv_indev.c:741:28
	ldr	r3, [r0, #28]
.Ltmp216:
	@DEBUG_VALUE: editable <- [DW_OP_plus_uconst 1, DW_OP_deref] $sp
	.loc	14 0 28 is_stmt 0               @ lvgl/src/lv_core/lv_indev.c:0:28
	add.w	r2, sp, #1
	.loc	14 741 13                       @ lvgl/src/lv_core/lv_indev.c:741:13
	movs	r1, #25
	blx	r3
.Ltmp217:
	.loc	14 744 16 is_stmt 1             @ lvgl/src/lv_core/lv_indev.c:744:16
	ldrb.w	r0, [sp, #1]
.Ltmp218:
	@DEBUG_VALUE: editable <- $r0
	.loc	14 744 16 is_stmt 0             @ lvgl/src/lv_core/lv_indev.c:744:16
	cmp	r0, #0
	beq.w	.LBB6_41
.Ltmp219:
@ %bb.12:
	@DEBUG_VALUE: indev_encoder_proc:i <- $r6
	@DEBUG_VALUE: indev_encoder_proc:g <- $r5
	@DEBUG_VALUE: indev_encoder_proc:data <- $r4
	@DEBUG_VALUE: editable <- $r0
	.loc	14 758 24 is_stmt 1             @ lvgl/src/lv_core/lv_indev.c:758:24
	ldrb	r0, [r5, #20]
.Ltmp220:
	.loc	14 0 0 is_stmt 0                @ lvgl/src/lv_core/lv_indev.c:0:0
	ldrb.w	r1, [r6, #80]
.Ltmp221:
	.loc	14 758 21                       @ lvgl/src/lv_core/lv_indev.c:758:21
	lsls	r0, r0, #30
.Ltmp222:
	.loc	14 0 0                          @ lvgl/src/lv_core/lv_indev.c:0:0
	and	r0, r1, #1
.Ltmp223:
	.loc	14 758 21                       @ lvgl/src/lv_core/lv_indev.c:758:21
	bmi.w	.LBB6_47
.Ltmp224:
@ %bb.13:
	@DEBUG_VALUE: indev_encoder_proc:i <- $r6
	@DEBUG_VALUE: indev_encoder_proc:g <- $r5
	@DEBUG_VALUE: indev_encoder_proc:data <- $r4
	.loc	14 778 21 is_stmt 1             @ lvgl/src/lv_core/lv_indev.c:778:21
	cmp	r0, #0
	bne.w	.LBB6_54
.Ltmp225:
@ %bb.14:
	@DEBUG_VALUE: indev_encoder_proc:i <- $r6
	@DEBUG_VALUE: indev_encoder_proc:g <- $r5
	@DEBUG_VALUE: indev_encoder_proc:data <- $r4
	.loc	14 779 17                       @ lvgl/src/lv_core/lv_indev.c:779:17
	movs	r1, #1
	mov	r0, r5
	bl	lv_group_set_editing
	b	.LBB6_54
.Ltmp226:
.LBB6_15:
	@DEBUG_VALUE: indev_encoder_proc:i <- $r6
	@DEBUG_VALUE: indev_encoder_proc:g <- $r5
	@DEBUG_VALUE: indev_encoder_proc:data <- $r4
	.loc	14 645 32                       @ lvgl/src/lv_core/lv_indev.c:645:32
	bl	lv_tick_get
.Ltmp227:
	.loc	14 647 18                       @ lvgl/src/lv_core/lv_indev.c:647:18
	ldr	r1, [r4, #4]
.Ltmp228:
	.loc	14 645 30                       @ lvgl/src/lv_core/lv_indev.c:645:30
	str	r0, [r6, #72]
	.loc	14 647 12                       @ lvgl/src/lv_core/lv_indev.c:647:12
	sub.w	r2, r1, #10
	cmp	r2, #17
	bhi.w	.LBB6_37
.Ltmp229:
@ %bb.16:
	@DEBUG_VALUE: indev_encoder_proc:i <- $r6
	@DEBUG_VALUE: indev_encoder_proc:g <- $r5
	@DEBUG_VALUE: indev_encoder_proc:data <- $r4
	.loc	14 0 12 is_stmt 0               @ lvgl/src/lv_core/lv_indev.c:0:12
.LCPI6_0:
	tbb	[pc, r2]
.Ltmp230:
@ %bb.17:
.LJTI6_0:
	.byte	(.LBB6_18-(.LCPI6_0+4))/2
	.byte	(.LBB6_37-(.LCPI6_0+4))/2
	.byte	(.LBB6_37-(.LCPI6_0+4))/2
	.byte	(.LBB6_37-(.LCPI6_0+4))/2
	.byte	(.LBB6_37-(.LCPI6_0+4))/2
	.byte	(.LBB6_37-(.LCPI6_0+4))/2
	.byte	(.LBB6_37-(.LCPI6_0+4))/2
	.byte	(.LBB6_37-(.LCPI6_0+4))/2
	.byte	(.LBB6_37-(.LCPI6_0+4))/2
	.byte	(.LBB6_36-(.LCPI6_0+4))/2
	.byte	(.LBB6_35-(.LCPI6_0+4))/2
	.byte	(.LBB6_37-(.LCPI6_0+4))/2
	.byte	(.LBB6_37-(.LCPI6_0+4))/2
	.byte	(.LBB6_37-(.LCPI6_0+4))/2
	.byte	(.LBB6_37-(.LCPI6_0+4))/2
	.byte	(.LBB6_37-(.LCPI6_0+4))/2
	.byte	(.LBB6_37-(.LCPI6_0+4))/2
	.byte	(.LBB6_38-(.LCPI6_0+4))/2
	.p2align	1
.LBB6_18:
.Ltmp231:
	@DEBUG_VALUE: indev_encoder_proc:i <- $r6
	@DEBUG_VALUE: indev_encoder_proc:g <- $r5
	@DEBUG_VALUE: indev_encoder_proc:data <- $r4
	.loc	14 649 13 is_stmt 1             @ lvgl/src/lv_core/lv_indev.c:649:13
	ldr.w	r0, [r9]
	movs	r1, #0
.Ltmp232:
	@DEBUG_VALUE: editable <- 0
	.loc	14 648 18                       @ lvgl/src/lv_core/lv_indev.c:648:18
	strb.w	r1, [sp, #3]
	add.w	r2, sp, #3
	.loc	14 649 28                       @ lvgl/src/lv_core/lv_indev.c:649:28
	ldr	r3, [r0, #28]
.Ltmp233:
	@DEBUG_VALUE: editable <- [DW_OP_plus_uconst 3, DW_OP_deref] $sp
	.loc	14 649 13 is_stmt 0             @ lvgl/src/lv_core/lv_indev.c:649:13
	movs	r1, #25
	blx	r3
.Ltmp234:
	.loc	14 651 16 is_stmt 1             @ lvgl/src/lv_core/lv_indev.c:651:16
	mov	r0, r5
	bl	lv_group_get_editing
.Ltmp235:
	@DEBUG_VALUE: editable <- undef
	.loc	14 651 48 is_stmt 0             @ lvgl/src/lv_core/lv_indev.c:651:48
	cbnz	r0, .LBB6_20
.Ltmp236:
@ %bb.19:
	@DEBUG_VALUE: indev_encoder_proc:i <- $r6
	@DEBUG_VALUE: indev_encoder_proc:g <- $r5
	@DEBUG_VALUE: indev_encoder_proc:data <- $r4
	.loc	14 0 48                         @ lvgl/src/lv_core/lv_indev.c:0:48
	ldrb.w	r0, [sp, #3]
	.loc	14 651 48                       @ lvgl/src/lv_core/lv_indev.c:651:48
	cmp	r0, #0
	bne.w	.LBB6_59
.Ltmp237:
.LBB6_20:
	@DEBUG_VALUE: indev_encoder_proc:i <- $r6
	@DEBUG_VALUE: indev_encoder_proc:g <- $r5
	@DEBUG_VALUE: indev_encoder_proc:data <- $r4
	.loc	14 652 17 is_stmt 1             @ lvgl/src/lv_core/lv_indev.c:652:17
	ldr.w	r0, [r9]
	movs	r1, #11
	movs	r2, #0
	.loc	14 652 32 is_stmt 0             @ lvgl/src/lv_core/lv_indev.c:652:32
	ldr	r3, [r0, #28]
	.loc	14 652 17                       @ lvgl/src/lv_core/lv_indev.c:652:17
	blx	r3
.Ltmp238:
	.loc	14 653 20 is_stmt 1             @ lvgl/src/lv_core/lv_indev.c:653:20
	mov	r0, r8
	bl	indev_reset_check
.Ltmp239:
	.loc	14 653 20 is_stmt 0             @ lvgl/src/lv_core/lv_indev.c:653:20
	cmp	r0, #0
	bne.w	.LBB6_77
.Ltmp240:
@ %bb.21:
	@DEBUG_VALUE: indev_encoder_proc:i <- $r6
	@DEBUG_VALUE: indev_encoder_proc:g <- $r5
	@DEBUG_VALUE: indev_encoder_proc:data <- $r4
	.loc	14 655 31 is_stmt 1             @ lvgl/src/lv_core/lv_indev.c:655:31
	ldr.w	r0, [r9]
	.loc	14 655 17 is_stmt 0             @ lvgl/src/lv_core/lv_indev.c:655:17
	movs	r1, #0
	b	.LBB6_39
.Ltmp241:
.LBB6_22:
	@DEBUG_VALUE: indev_encoder_proc:i <- $r6
	@DEBUG_VALUE: indev_encoder_proc:g <- $r5
	@DEBUG_VALUE: indev_encoder_proc:data <- $r4
	.loc	14 682 20 is_stmt 1             @ lvgl/src/lv_core/lv_indev.c:682:20
	ldrb.w	r0, [r6, #80]
	.loc	14 682 38 is_stmt 0             @ lvgl/src/lv_core/lv_indev.c:682:38
	lsls	r0, r0, #31
	bne	.LBB6_28
.Ltmp242:
@ %bb.23:
	@DEBUG_VALUE: indev_encoder_proc:i <- $r6
	@DEBUG_VALUE: indev_encoder_proc:g <- $r5
	@DEBUG_VALUE: indev_encoder_proc:data <- $r4
	.loc	14 682 63                       @ lvgl/src/lv_core/lv_indev.c:682:63
	ldr	r0, [r6, #72]
	.loc	14 682 41                       @ lvgl/src/lv_core/lv_indev.c:682:41
	bl	lv_tick_elaps
	.loc	14 682 89                       @ lvgl/src/lv_core/lv_indev.c:682:89
	ldrh	r1, [r6, #24]
.Ltmp243:
	.loc	14 682 12                       @ lvgl/src/lv_core/lv_indev.c:682:12
	cmp	r0, r1
	bls	.LBB6_28
.Ltmp244:
@ %bb.24:
	@DEBUG_VALUE: indev_encoder_proc:i <- $r6
	@DEBUG_VALUE: indev_encoder_proc:g <- $r5
	@DEBUG_VALUE: indev_encoder_proc:data <- $r4
	.loc	14 684 34 is_stmt 1             @ lvgl/src/lv_core/lv_indev.c:684:34
	ldrb.w	r0, [r6, #80]
	orr	r0, r0, #1
	strb.w	r0, [r6, #80]
	.loc	14 685 44                       @ lvgl/src/lv_core/lv_indev.c:685:44
	bl	lv_tick_get
.Ltmp245:
	.loc	14 687 22                       @ lvgl/src/lv_core/lv_indev.c:687:22
	ldr	r1, [r4, #4]
.Ltmp246:
	.loc	14 685 42                       @ lvgl/src/lv_core/lv_indev.c:685:42
	str	r0, [r6, #76]
	.loc	14 687 16                       @ lvgl/src/lv_core/lv_indev.c:687:16
	cmp	r1, #10
	bne.w	.LBB6_57
.Ltmp247:
@ %bb.25:
	@DEBUG_VALUE: indev_encoder_proc:i <- $r6
	@DEBUG_VALUE: indev_encoder_proc:g <- $r5
	@DEBUG_VALUE: indev_encoder_proc:data <- $r4
	.loc	14 689 17                       @ lvgl/src/lv_core/lv_indev.c:689:17
	ldr.w	r0, [r9]
	movs	r1, #0
.Ltmp248:
	@DEBUG_VALUE: editable <- 0
	.loc	14 688 22                       @ lvgl/src/lv_core/lv_indev.c:688:22
	strb.w	r1, [sp, #2]
	add.w	r2, sp, #2
	.loc	14 689 32                       @ lvgl/src/lv_core/lv_indev.c:689:32
	ldr	r3, [r0, #28]
.Ltmp249:
	@DEBUG_VALUE: editable <- [DW_OP_plus_uconst 2, DW_OP_deref] $sp
	.loc	14 689 17 is_stmt 0             @ lvgl/src/lv_core/lv_indev.c:689:17
	movs	r1, #25
	blx	r3
.Ltmp250:
	.loc	14 692 20 is_stmt 1             @ lvgl/src/lv_core/lv_indev.c:692:20
	ldrb.w	r0, [sp, #2]
.Ltmp251:
	@DEBUG_VALUE: editable <- $r0
	.loc	14 692 20 is_stmt 0             @ lvgl/src/lv_core/lv_indev.c:692:20
	cmp	r0, #0
	beq.w	.LBB6_55
.Ltmp252:
@ %bb.26:
	@DEBUG_VALUE: indev_encoder_proc:i <- $r6
	@DEBUG_VALUE: indev_encoder_proc:g <- $r5
	@DEBUG_VALUE: indev_encoder_proc:data <- $r4
	@DEBUG_VALUE: editable <- $r0
	.loc	14 694 24 is_stmt 1             @ lvgl/src/lv_core/lv_indev.c:694:24
	mov	r0, r5
.Ltmp253:
	bl	_lv_ll_get_len
.Ltmp254:
	.loc	14 694 24 is_stmt 0             @ lvgl/src/lv_core/lv_indev.c:694:24
	cmp	r0, #2
	blo.w	.LBB6_57
.Ltmp255:
@ %bb.27:
	@DEBUG_VALUE: indev_encoder_proc:i <- $r6
	@DEBUG_VALUE: indev_encoder_proc:g <- $r5
	@DEBUG_VALUE: indev_encoder_proc:data <- $r4
	.loc	14 695 49 is_stmt 1             @ lvgl/src/lv_core/lv_indev.c:695:49
	mov	r0, r5
	bl	lv_group_get_editing
	eor	r1, r0, #1
	.loc	14 695 25 is_stmt 0             @ lvgl/src/lv_core/lv_indev.c:695:25
	mov	r0, r5
	bl	lv_group_set_editing
	b	.LBB6_57
.Ltmp256:
.LBB6_28:
	@DEBUG_VALUE: indev_encoder_proc:i <- $r6
	@DEBUG_VALUE: indev_encoder_proc:g <- $r5
	@DEBUG_VALUE: indev_encoder_proc:data <- $r4
	.loc	14 710 25 is_stmt 1             @ lvgl/src/lv_core/lv_indev.c:710:25
	ldrb.w	r0, [r6, #80]
	.loc	14 710 43 is_stmt 0             @ lvgl/src/lv_core/lv_indev.c:710:43
	lsls	r0, r0, #31
	beq.w	.LBB6_59
.Ltmp257:
@ %bb.29:
	@DEBUG_VALUE: indev_encoder_proc:i <- $r6
	@DEBUG_VALUE: indev_encoder_proc:g <- $r5
	@DEBUG_VALUE: indev_encoder_proc:data <- $r4
	.loc	14 710 68                       @ lvgl/src/lv_core/lv_indev.c:710:68
	ldr	r0, [r6, #76]
	.loc	14 710 46                       @ lvgl/src/lv_core/lv_indev.c:710:46
	bl	lv_tick_elaps
	.loc	14 710 102                      @ lvgl/src/lv_core/lv_indev.c:710:102
	ldrh	r1, [r6, #26]
.Ltmp258:
	.loc	14 710 17                       @ lvgl/src/lv_core/lv_indev.c:710:17
	cmp	r0, r1
	bls.w	.LBB6_59
.Ltmp259:
@ %bb.30:
	@DEBUG_VALUE: indev_encoder_proc:i <- $r6
	@DEBUG_VALUE: indev_encoder_proc:g <- $r5
	@DEBUG_VALUE: indev_encoder_proc:data <- $r4
	.loc	14 712 44 is_stmt 1             @ lvgl/src/lv_core/lv_indev.c:712:44
	bl	lv_tick_get
.Ltmp260:
	.loc	14 714 22                       @ lvgl/src/lv_core/lv_indev.c:714:22
	ldr	r1, [r4, #4]
.Ltmp261:
	.loc	14 712 42                       @ lvgl/src/lv_core/lv_indev.c:712:42
	str	r0, [r6, #76]
	.loc	14 714 16                       @ lvgl/src/lv_core/lv_indev.c:714:16
	cmp	r1, #20
	beq	.LBB6_35
.Ltmp262:
@ %bb.31:
	@DEBUG_VALUE: indev_encoder_proc:i <- $r6
	@DEBUG_VALUE: indev_encoder_proc:g <- $r5
	@DEBUG_VALUE: indev_encoder_proc:data <- $r4
	cmp	r1, #19
	beq	.LBB6_36
.Ltmp263:
@ %bb.32:
	@DEBUG_VALUE: indev_encoder_proc:i <- $r6
	@DEBUG_VALUE: indev_encoder_proc:g <- $r5
	@DEBUG_VALUE: indev_encoder_proc:data <- $r4
	cmp	r1, #10
	bne.w	.LBB6_78
.Ltmp264:
@ %bb.33:
	@DEBUG_VALUE: indev_encoder_proc:i <- $r6
	@DEBUG_VALUE: indev_encoder_proc:g <- $r5
	@DEBUG_VALUE: indev_encoder_proc:data <- $r4
	.loc	14 715 17                       @ lvgl/src/lv_core/lv_indev.c:715:17
	ldr.w	r0, [r9]
	movs	r1, #16
	movs	r2, #0
	.loc	14 715 32 is_stmt 0             @ lvgl/src/lv_core/lv_indev.c:715:32
	ldr	r3, [r0, #28]
	.loc	14 715 17                       @ lvgl/src/lv_core/lv_indev.c:715:17
	blx	r3
.Ltmp265:
	.loc	14 716 20 is_stmt 1             @ lvgl/src/lv_core/lv_indev.c:716:20
	mov	r0, r8
	bl	indev_reset_check
.Ltmp266:
	.loc	14 716 20 is_stmt 0             @ lvgl/src/lv_core/lv_indev.c:716:20
	cmp	r0, #0
	bne.w	.LBB6_77
.Ltmp267:
@ %bb.34:
	@DEBUG_VALUE: indev_encoder_proc:i <- $r6
	@DEBUG_VALUE: indev_encoder_proc:g <- $r5
	@DEBUG_VALUE: indev_encoder_proc:data <- $r4
	.loc	14 717 31 is_stmt 1             @ lvgl/src/lv_core/lv_indev.c:717:31
	ldr.w	r0, [r9]
	.loc	14 717 17 is_stmt 0             @ lvgl/src/lv_core/lv_indev.c:717:17
	movs	r1, #5
	b	.LBB6_39
.Ltmp268:
.LBB6_35:
	@DEBUG_VALUE: indev_encoder_proc:i <- $r6
	@DEBUG_VALUE: indev_encoder_proc:g <- $r5
	@DEBUG_VALUE: indev_encoder_proc:data <- $r4
	.loc	14 0 0                          @ lvgl/src/lv_core/lv_indev.c:0:0
	ldrh	r0, [r4, #12]
	subs	r0, #1
	strh	r0, [r4, #12]
	b	.LBB6_59
.Ltmp269:
.LBB6_36:
	@DEBUG_VALUE: indev_encoder_proc:i <- $r6
	@DEBUG_VALUE: indev_encoder_proc:g <- $r5
	@DEBUG_VALUE: indev_encoder_proc:data <- $r4
	ldrh	r0, [r4, #12]
	adds	r0, #1
	strh	r0, [r4, #12]
	b	.LBB6_59
.Ltmp270:
.LBB6_37:
	@DEBUG_VALUE: indev_encoder_proc:i <- $r6
	@DEBUG_VALUE: indev_encoder_proc:g <- $r5
	@DEBUG_VALUE: indev_encoder_proc:data <- $r4
	.loc	14 676 13 is_stmt 1             @ lvgl/src/lv_core/lv_indev.c:676:13
	mov	r0, r5
	bl	lv_group_send_data
	b	.LBB6_59
.Ltmp271:
.LBB6_38:
	@DEBUG_VALUE: indev_encoder_proc:i <- $r6
	@DEBUG_VALUE: indev_encoder_proc:g <- $r5
	@DEBUG_VALUE: indev_encoder_proc:data <- $r4
	.loc	14 669 13                       @ lvgl/src/lv_core/lv_indev.c:669:13
	movs	r1, #27
	mov	r0, r5
	bl	lv_group_send_data
	.loc	14 671 27                       @ lvgl/src/lv_core/lv_indev.c:671:27
	ldr.w	r0, [r9]
	.loc	14 671 13 is_stmt 0             @ lvgl/src/lv_core/lv_indev.c:671:13
	movs	r1, #20
.Ltmp272:
.LBB6_39:
	@DEBUG_VALUE: indev_encoder_proc:i <- $r6
	@DEBUG_VALUE: indev_encoder_proc:g <- $r5
	@DEBUG_VALUE: indev_encoder_proc:data <- $r4
	.loc	14 0 0                          @ lvgl/src/lv_core/lv_indev.c:0:0
	movs	r2, #0
	bl	lv_event_send
.Ltmp273:
.LBB6_40:
	@DEBUG_VALUE: indev_encoder_proc:i <- $r6
	@DEBUG_VALUE: indev_encoder_proc:g <- $r5
	@DEBUG_VALUE: indev_encoder_proc:data <- $r4
	mov	r0, r8
	bl	indev_reset_check
	cmp	r0, #0
	bne.w	.LBB6_77
	b	.LBB6_59
.Ltmp274:
.LBB6_41:
	@DEBUG_VALUE: indev_encoder_proc:i <- $r6
	@DEBUG_VALUE: indev_encoder_proc:g <- $r5
	@DEBUG_VALUE: indev_encoder_proc:data <- $r4
	@DEBUG_VALUE: editable <- $r0
	.loc	14 745 17 is_stmt 1             @ lvgl/src/lv_core/lv_indev.c:745:17
	ldr.w	r0, [r9]
.Ltmp275:
	movs	r1, #14
	movs	r2, #0
	.loc	14 745 32 is_stmt 0             @ lvgl/src/lv_core/lv_indev.c:745:32
	ldr	r3, [r0, #28]
	.loc	14 745 17                       @ lvgl/src/lv_core/lv_indev.c:745:17
	blx	r3
.Ltmp276:
	.loc	14 746 20 is_stmt 1             @ lvgl/src/lv_core/lv_indev.c:746:20
	mov	r0, r8
	bl	indev_reset_check
.Ltmp277:
	.loc	14 746 20 is_stmt 0             @ lvgl/src/lv_core/lv_indev.c:746:20
	cmp	r0, #0
	bne.w	.LBB6_77
.Ltmp278:
@ %bb.42:
	@DEBUG_VALUE: indev_encoder_proc:i <- $r6
	@DEBUG_VALUE: indev_encoder_proc:g <- $r5
	@DEBUG_VALUE: indev_encoder_proc:data <- $r4
	.loc	14 748 28 is_stmt 1             @ lvgl/src/lv_core/lv_indev.c:748:28
	ldrb.w	r0, [r6, #80]
.Ltmp279:
	.loc	14 748 20 is_stmt 0             @ lvgl/src/lv_core/lv_indev.c:748:20
	lsls	r0, r0, #31
	bne	.LBB6_44
.Ltmp280:
@ %bb.43:
	@DEBUG_VALUE: indev_encoder_proc:i <- $r6
	@DEBUG_VALUE: indev_encoder_proc:g <- $r5
	@DEBUG_VALUE: indev_encoder_proc:data <- $r4
	.loc	14 748 61                       @ lvgl/src/lv_core/lv_indev.c:748:61
	ldr.w	r0, [r9]
	.loc	14 748 47                       @ lvgl/src/lv_core/lv_indev.c:748:47
	movs	r1, #3
	movs	r2, #0
	bl	lv_event_send
.Ltmp281:
.LBB6_44:
	@DEBUG_VALUE: indev_encoder_proc:i <- $r6
	@DEBUG_VALUE: indev_encoder_proc:g <- $r5
	@DEBUG_VALUE: indev_encoder_proc:data <- $r4
	.loc	14 749 20 is_stmt 1             @ lvgl/src/lv_core/lv_indev.c:749:20
	mov	r0, r8
	bl	indev_reset_check
.Ltmp282:
	.loc	14 749 20 is_stmt 0             @ lvgl/src/lv_core/lv_indev.c:749:20
	cmp	r0, #0
	bne.w	.LBB6_77
.Ltmp283:
@ %bb.45:
	@DEBUG_VALUE: indev_encoder_proc:i <- $r6
	@DEBUG_VALUE: indev_encoder_proc:g <- $r5
	@DEBUG_VALUE: indev_encoder_proc:data <- $r4
	.loc	14 751 31 is_stmt 1             @ lvgl/src/lv_core/lv_indev.c:751:31
	ldr.w	r0, [r9]
	.loc	14 751 17 is_stmt 0             @ lvgl/src/lv_core/lv_indev.c:751:17
	movs	r1, #6
	movs	r2, #0
	bl	lv_event_send
.Ltmp284:
	.loc	14 752 20 is_stmt 1             @ lvgl/src/lv_core/lv_indev.c:752:20
	mov	r0, r8
	bl	indev_reset_check
.Ltmp285:
	.loc	14 752 20 is_stmt 0             @ lvgl/src/lv_core/lv_indev.c:752:20
	cmp	r0, #0
	bne.w	.LBB6_77
.Ltmp286:
@ %bb.46:
	@DEBUG_VALUE: indev_encoder_proc:i <- $r6
	@DEBUG_VALUE: indev_encoder_proc:g <- $r5
	@DEBUG_VALUE: indev_encoder_proc:data <- $r4
	.loc	14 754 31 is_stmt 1             @ lvgl/src/lv_core/lv_indev.c:754:31
	ldr.w	r0, [r9]
	.loc	14 754 17 is_stmt 0             @ lvgl/src/lv_core/lv_indev.c:754:17
	movs	r1, #7
	movs	r2, #0
	bl	lv_event_send
.Ltmp287:
	.loc	14 755 20 is_stmt 1             @ lvgl/src/lv_core/lv_indev.c:755:20
	mov	r0, r8
	bl	indev_reset_check
.Ltmp288:
	.loc	14 755 20 is_stmt 0             @ lvgl/src/lv_core/lv_indev.c:755:20
	cmp	r0, #0
	bne.w	.LBB6_77
	b	.LBB6_54
.Ltmp289:
.LBB6_47:
	@DEBUG_VALUE: indev_encoder_proc:i <- $r6
	@DEBUG_VALUE: indev_encoder_proc:g <- $r5
	@DEBUG_VALUE: indev_encoder_proc:data <- $r4
	.loc	14 760 42 is_stmt 1             @ lvgl/src/lv_core/lv_indev.c:760:42
	cbz	r0, .LBB6_49
.Ltmp290:
@ %bb.48:
	@DEBUG_VALUE: indev_encoder_proc:i <- $r6
	@DEBUG_VALUE: indev_encoder_proc:g <- $r5
	@DEBUG_VALUE: indev_encoder_proc:data <- $r4
	.loc	14 760 45 is_stmt 0             @ lvgl/src/lv_core/lv_indev.c:760:45
	mov	r0, r5
	bl	_lv_ll_get_len
.Ltmp291:
	.loc	14 760 20                       @ lvgl/src/lv_core/lv_indev.c:760:20
	cmp	r0, #1
	bhi	.LBB6_54
.Ltmp292:
.LBB6_49:
	@DEBUG_VALUE: indev_encoder_proc:i <- $r6
	@DEBUG_VALUE: indev_encoder_proc:g <- $r5
	@DEBUG_VALUE: indev_encoder_proc:data <- $r4
	.loc	14 761 21 is_stmt 1             @ lvgl/src/lv_core/lv_indev.c:761:21
	ldr.w	r0, [r9]
	movs	r1, #14
	movs	r2, #0
	.loc	14 761 36 is_stmt 0             @ lvgl/src/lv_core/lv_indev.c:761:36
	ldr	r3, [r0, #28]
	.loc	14 761 21                       @ lvgl/src/lv_core/lv_indev.c:761:21
	blx	r3
.Ltmp293:
	.loc	14 762 24 is_stmt 1             @ lvgl/src/lv_core/lv_indev.c:762:24
	mov	r0, r8
	bl	indev_reset_check
.Ltmp294:
	.loc	14 762 24 is_stmt 0             @ lvgl/src/lv_core/lv_indev.c:762:24
	cmp	r0, #0
	bne.w	.LBB6_77
.Ltmp295:
@ %bb.50:
	@DEBUG_VALUE: indev_encoder_proc:i <- $r6
	@DEBUG_VALUE: indev_encoder_proc:g <- $r5
	@DEBUG_VALUE: indev_encoder_proc:data <- $r4
	.loc	14 764 35 is_stmt 1             @ lvgl/src/lv_core/lv_indev.c:764:35
	ldr.w	r0, [r9]
	.loc	14 764 21 is_stmt 0             @ lvgl/src/lv_core/lv_indev.c:764:21
	movs	r1, #3
	movs	r2, #0
	bl	lv_event_send
.Ltmp296:
	.loc	14 765 24 is_stmt 1             @ lvgl/src/lv_core/lv_indev.c:765:24
	mov	r0, r8
	bl	indev_reset_check
.Ltmp297:
	.loc	14 765 24 is_stmt 0             @ lvgl/src/lv_core/lv_indev.c:765:24
	cmp	r0, #0
	bne.w	.LBB6_77
.Ltmp298:
@ %bb.51:
	@DEBUG_VALUE: indev_encoder_proc:i <- $r6
	@DEBUG_VALUE: indev_encoder_proc:g <- $r5
	@DEBUG_VALUE: indev_encoder_proc:data <- $r4
	.loc	14 767 35 is_stmt 1             @ lvgl/src/lv_core/lv_indev.c:767:35
	ldr.w	r0, [r9]
	.loc	14 767 21 is_stmt 0             @ lvgl/src/lv_core/lv_indev.c:767:21
	movs	r1, #6
	movs	r2, #0
	bl	lv_event_send
.Ltmp299:
	.loc	14 768 24 is_stmt 1             @ lvgl/src/lv_core/lv_indev.c:768:24
	mov	r0, r8
	bl	indev_reset_check
.Ltmp300:
	.loc	14 768 24 is_stmt 0             @ lvgl/src/lv_core/lv_indev.c:768:24
	cmp	r0, #0
	bne.w	.LBB6_77
.Ltmp301:
@ %bb.52:
	@DEBUG_VALUE: indev_encoder_proc:i <- $r6
	@DEBUG_VALUE: indev_encoder_proc:g <- $r5
	@DEBUG_VALUE: indev_encoder_proc:data <- $r4
	.loc	14 770 35 is_stmt 1             @ lvgl/src/lv_core/lv_indev.c:770:35
	ldr.w	r0, [r9]
	.loc	14 770 21 is_stmt 0             @ lvgl/src/lv_core/lv_indev.c:770:21
	movs	r1, #7
	movs	r2, #0
	bl	lv_event_send
.Ltmp302:
	.loc	14 771 24 is_stmt 1             @ lvgl/src/lv_core/lv_indev.c:771:24
	mov	r0, r8
	bl	indev_reset_check
.Ltmp303:
	.loc	14 771 24 is_stmt 0             @ lvgl/src/lv_core/lv_indev.c:771:24
	cmp	r0, #0
	bne	.LBB6_77
.Ltmp304:
@ %bb.53:
	@DEBUG_VALUE: indev_encoder_proc:i <- $r6
	@DEBUG_VALUE: indev_encoder_proc:g <- $r5
	@DEBUG_VALUE: indev_encoder_proc:data <- $r4
	.loc	14 773 21 is_stmt 1             @ lvgl/src/lv_core/lv_indev.c:773:21
	movs	r1, #10
	mov	r0, r5
	bl	lv_group_send_data
.Ltmp305:
.LBB6_54:
	@DEBUG_VALUE: indev_encoder_proc:i <- $r6
	@DEBUG_VALUE: indev_encoder_proc:g <- $r5
	@DEBUG_VALUE: indev_encoder_proc:data <- $r4
	.loc	14 784 30                       @ lvgl/src/lv_core/lv_indev.c:784:30
	ldrb.w	r0, [r6, #80]
	movs	r1, #0
	.loc	14 783 30                       @ lvgl/src/lv_core/lv_indev.c:783:30
	str	r1, [r6, #72]
	.loc	14 784 30                       @ lvgl/src/lv_core/lv_indev.c:784:30
	and	r0, r0, #254
	b	.LBB6_58
.Ltmp306:
.LBB6_55:
	@DEBUG_VALUE: indev_encoder_proc:i <- $r6
	@DEBUG_VALUE: indev_encoder_proc:g <- $r5
	@DEBUG_VALUE: indev_encoder_proc:data <- $r4
	@DEBUG_VALUE: editable <- $r0
	.loc	14 700 21                       @ lvgl/src/lv_core/lv_indev.c:700:21
	ldr.w	r0, [r9]
.Ltmp307:
	movs	r1, #15
	movs	r2, #0
	.loc	14 700 36 is_stmt 0             @ lvgl/src/lv_core/lv_indev.c:700:36
	ldr	r3, [r0, #28]
	.loc	14 700 21                       @ lvgl/src/lv_core/lv_indev.c:700:21
	blx	r3
.Ltmp308:
	.loc	14 701 24 is_stmt 1             @ lvgl/src/lv_core/lv_indev.c:701:24
	mov	r0, r8
	bl	indev_reset_check
.Ltmp309:
	.loc	14 701 24 is_stmt 0             @ lvgl/src/lv_core/lv_indev.c:701:24
	cmp	r0, #0
	bne	.LBB6_77
.Ltmp310:
@ %bb.56:
	@DEBUG_VALUE: indev_encoder_proc:i <- $r6
	@DEBUG_VALUE: indev_encoder_proc:g <- $r5
	@DEBUG_VALUE: indev_encoder_proc:data <- $r4
	.loc	14 702 35 is_stmt 1             @ lvgl/src/lv_core/lv_indev.c:702:35
	ldr.w	r0, [r9]
	.loc	14 702 21 is_stmt 0             @ lvgl/src/lv_core/lv_indev.c:702:21
	movs	r1, #4
	movs	r2, #0
	bl	lv_event_send
.Ltmp311:
	.loc	14 703 24 is_stmt 1             @ lvgl/src/lv_core/lv_indev.c:703:24
	mov	r0, r8
	bl	indev_reset_check
.Ltmp312:
	.loc	14 703 24 is_stmt 0             @ lvgl/src/lv_core/lv_indev.c:703:24
	cmp	r0, #0
	bne	.LBB6_77
.Ltmp313:
.LBB6_57:
	@DEBUG_VALUE: indev_encoder_proc:i <- $r6
	@DEBUG_VALUE: indev_encoder_proc:g <- $r5
	@DEBUG_VALUE: indev_encoder_proc:data <- $r4
	.loc	14 707 34 is_stmt 1             @ lvgl/src/lv_core/lv_indev.c:707:34
	ldrb.w	r0, [r6, #80]
	orr	r0, r0, #1
.Ltmp314:
.LBB6_58:
	@DEBUG_VALUE: indev_encoder_proc:i <- $r6
	@DEBUG_VALUE: indev_encoder_proc:g <- $r5
	@DEBUG_VALUE: indev_encoder_proc:data <- $r4
	.loc	14 0 0 is_stmt 0                @ lvgl/src/lv_core/lv_indev.c:0:0
	strb.w	r0, [r6, #80]
.Ltmp315:
.LBB6_59:
	@DEBUG_VALUE: indev_encoder_proc:i <- $r6
	@DEBUG_VALUE: indev_encoder_proc:g <- $r5
	@DEBUG_VALUE: indev_encoder_proc:data <- $r4
	.loc	14 789 14 is_stmt 1             @ lvgl/src/lv_core/lv_indev.c:789:14
	ldrh	r0, [r4, #12]
.Ltmp316:
	.loc	14 789 8 is_stmt 0              @ lvgl/src/lv_core/lv_indev.c:789:8
	cmp	r0, #0
	mov.w	r0, #0
	.loc	14 786 19 is_stmt 1             @ lvgl/src/lv_core/lv_indev.c:786:19
	str.w	r0, [r9]
	.loc	14 789 8                        @ lvgl/src/lv_core/lv_indev.c:789:8
	beq	.LBB6_77
.Ltmp317:
@ %bb.60:
	@DEBUG_VALUE: indev_encoder_proc:i <- $r6
	@DEBUG_VALUE: indev_encoder_proc:g <- $r5
	@DEBUG_VALUE: indev_encoder_proc:data <- $r4
	.loc	14 791 12                       @ lvgl/src/lv_core/lv_indev.c:791:12
	mov	r0, r5
	bl	lv_group_get_editing
	.loc	14 0 0 is_stmt 0                @ lvgl/src/lv_core/lv_indev.c:0:0
	ldrh	r1, [r4, #12]
.Ltmp318:
	.loc	14 791 12                       @ lvgl/src/lv_core/lv_indev.c:791:12
	cbz	r0, .LBB6_66
.Ltmp319:
@ %bb.61:
	@DEBUG_VALUE: indev_encoder_proc:i <- $r6
	@DEBUG_VALUE: indev_encoder_proc:g <- $r5
	@DEBUG_VALUE: indev_encoder_proc:data <- $r4
	.loc	14 0 0                          @ lvgl/src/lv_core/lv_indev.c:0:0
	sxth	r0, r1
.Ltmp320:
	.loc	14 793 16 is_stmt 1             @ lvgl/src/lv_core/lv_indev.c:793:16
	cmp.w	r0, #-1
	ble	.LBB6_71
.Ltmp321:
@ %bb.62:
	@DEBUG_VALUE: indev_encoder_proc:i <- $r6
	@DEBUG_VALUE: indev_encoder_proc:g <- $r5
	@DEBUG_VALUE: indev_encoder_proc:data <- $r4
	.loc	14 796 21                       @ lvgl/src/lv_core/lv_indev.c:796:21
	cmp	r1, #0
	beq	.LBB6_77
.Ltmp322:
@ %bb.63:
	@DEBUG_VALUE: indev_encoder_proc:i <- $r6
	@DEBUG_VALUE: indev_encoder_proc:g <- $r5
	@DEBUG_VALUE: indev_encoder_proc:data <- $r4
	@DEBUG_VALUE: s <- 0
	.loc	14 797 38                       @ lvgl/src/lv_core/lv_indev.c:797:38
	ldrsh.w	r0, [r4, #12]
.Ltmp323:
	.loc	14 797 17 is_stmt 0             @ lvgl/src/lv_core/lv_indev.c:797:17
	cmp	r0, #1
	blt	.LBB6_77
.Ltmp324:
@ %bb.64:
	@DEBUG_VALUE: indev_encoder_proc:i <- $r6
	@DEBUG_VALUE: indev_encoder_proc:g <- $r5
	@DEBUG_VALUE: indev_encoder_proc:data <- $r4
	@DEBUG_VALUE: s <- 0
	.loc	14 0 17                         @ lvgl/src/lv_core/lv_indev.c:0:17
	movs	r6, #0
.Ltmp325:
	@DEBUG_VALUE: indev_encoder_proc:i <- [DW_OP_LLVM_entry_value 1] $r0
	.p2align	2
.LBB6_65:                               @ =>This Inner Loop Header: Depth=1
	@DEBUG_VALUE: indev_encoder_proc:g <- $r5
	@DEBUG_VALUE: indev_encoder_proc:data <- $r4
	@DEBUG_VALUE: indev_encoder_proc:i <- [DW_OP_LLVM_entry_value 1] $r0
	@DEBUG_VALUE: s <- $r6
	.loc	14 797 53                       @ lvgl/src/lv_core/lv_indev.c:797:53
	movs	r1, #19
	mov	r0, r5
	bl	lv_group_send_data
	.loc	14 797 38                       @ lvgl/src/lv_core/lv_indev.c:797:38
	ldrsh.w	r0, [r4, #12]
	.loc	14 797 49                       @ lvgl/src/lv_core/lv_indev.c:797:49
	adds	r6, #1
.Ltmp326:
	@DEBUG_VALUE: s <- $r6
	.loc	14 797 17                       @ lvgl/src/lv_core/lv_indev.c:797:17
	cmp	r6, r0
	blt	.LBB6_65
	b	.LBB6_77
.Ltmp327:
.LBB6_66:
	@DEBUG_VALUE: indev_encoder_proc:i <- $r6
	@DEBUG_VALUE: indev_encoder_proc:g <- $r5
	@DEBUG_VALUE: indev_encoder_proc:data <- $r4
	.loc	14 0 0                          @ lvgl/src/lv_core/lv_indev.c:0:0
	sxth	r0, r1
.Ltmp328:
	.loc	14 803 16 is_stmt 1             @ lvgl/src/lv_core/lv_indev.c:803:16
	cmp.w	r0, #-1
	ble	.LBB6_74
.Ltmp329:
@ %bb.67:
	@DEBUG_VALUE: indev_encoder_proc:i <- $r6
	@DEBUG_VALUE: indev_encoder_proc:g <- $r5
	@DEBUG_VALUE: indev_encoder_proc:data <- $r4
	.loc	14 806 21                       @ lvgl/src/lv_core/lv_indev.c:806:21
	cbz	r1, .LBB6_77
.Ltmp330:
@ %bb.68:
	@DEBUG_VALUE: indev_encoder_proc:i <- $r6
	@DEBUG_VALUE: indev_encoder_proc:g <- $r5
	@DEBUG_VALUE: indev_encoder_proc:data <- $r4
	@DEBUG_VALUE: s <- 0
	.loc	14 807 38                       @ lvgl/src/lv_core/lv_indev.c:807:38
	ldrsh.w	r0, [r4, #12]
.Ltmp331:
	.loc	14 807 17 is_stmt 0             @ lvgl/src/lv_core/lv_indev.c:807:17
	cmp	r0, #1
	blt	.LBB6_77
.Ltmp332:
@ %bb.69:
	@DEBUG_VALUE: indev_encoder_proc:i <- $r6
	@DEBUG_VALUE: indev_encoder_proc:g <- $r5
	@DEBUG_VALUE: indev_encoder_proc:data <- $r4
	@DEBUG_VALUE: s <- 0
	.loc	14 0 17                         @ lvgl/src/lv_core/lv_indev.c:0:17
	movs	r6, #0
.Ltmp333:
	@DEBUG_VALUE: indev_encoder_proc:i <- [DW_OP_LLVM_entry_value 1] $r0
	.p2align	2
.LBB6_70:                               @ =>This Inner Loop Header: Depth=1
	@DEBUG_VALUE: indev_encoder_proc:g <- $r5
	@DEBUG_VALUE: indev_encoder_proc:data <- $r4
	@DEBUG_VALUE: indev_encoder_proc:i <- [DW_OP_LLVM_entry_value 1] $r0
	@DEBUG_VALUE: s <- $r6
	.loc	14 807 53                       @ lvgl/src/lv_core/lv_indev.c:807:53
	mov	r0, r5
	bl	lv_group_focus_next
	.loc	14 807 38                       @ lvgl/src/lv_core/lv_indev.c:807:38
	ldrsh.w	r0, [r4, #12]
	.loc	14 807 49                       @ lvgl/src/lv_core/lv_indev.c:807:49
	adds	r6, #1
.Ltmp334:
	@DEBUG_VALUE: s <- $r6
	.loc	14 807 17                       @ lvgl/src/lv_core/lv_indev.c:807:17
	cmp	r6, r0
	blt	.LBB6_70
	b	.LBB6_77
.Ltmp335:
.LBB6_71:
	@DEBUG_VALUE: indev_encoder_proc:i <- $r6
	@DEBUG_VALUE: indev_encoder_proc:g <- $r5
	@DEBUG_VALUE: indev_encoder_proc:data <- $r4
	@DEBUG_VALUE: s <- 0
	.loc	14 794 39 is_stmt 1             @ lvgl/src/lv_core/lv_indev.c:794:39
	ldrsh.w	r0, [r4, #12]
.Ltmp336:
	.loc	14 794 17 is_stmt 0             @ lvgl/src/lv_core/lv_indev.c:794:17
	cmp.w	r0, #-1
	bgt	.LBB6_77
.Ltmp337:
@ %bb.72:
	@DEBUG_VALUE: indev_encoder_proc:i <- $r6
	@DEBUG_VALUE: indev_encoder_proc:g <- $r5
	@DEBUG_VALUE: indev_encoder_proc:data <- $r4
	@DEBUG_VALUE: s <- 0
	.loc	14 0 17                         @ lvgl/src/lv_core/lv_indev.c:0:17
	movs	r6, #0
.Ltmp338:
	@DEBUG_VALUE: indev_encoder_proc:i <- [DW_OP_LLVM_entry_value 1] $r0
	.p2align	2
.LBB6_73:                               @ =>This Inner Loop Header: Depth=1
	@DEBUG_VALUE: indev_encoder_proc:g <- $r5
	@DEBUG_VALUE: indev_encoder_proc:data <- $r4
	@DEBUG_VALUE: indev_encoder_proc:i <- [DW_OP_LLVM_entry_value 1] $r0
	@DEBUG_VALUE: s <- $r6
	.loc	14 794 54                       @ lvgl/src/lv_core/lv_indev.c:794:54
	movs	r1, #20
	mov	r0, r5
	bl	lv_group_send_data
	.loc	14 794 39                       @ lvgl/src/lv_core/lv_indev.c:794:39
	ldrsh.w	r0, [r4, #12]
	.loc	14 794 50                       @ lvgl/src/lv_core/lv_indev.c:794:50
	adds	r6, #1
.Ltmp339:
	@DEBUG_VALUE: s <- $r6
	.loc	14 794 32                       @ lvgl/src/lv_core/lv_indev.c:794:32
	rsbs	r0, r0, #0
.Ltmp340:
	.loc	14 794 17                       @ lvgl/src/lv_core/lv_indev.c:794:17
	cmp	r6, r0
	blt	.LBB6_73
	b	.LBB6_77
.Ltmp341:
.LBB6_74:
	@DEBUG_VALUE: indev_encoder_proc:i <- $r6
	@DEBUG_VALUE: indev_encoder_proc:g <- $r5
	@DEBUG_VALUE: indev_encoder_proc:data <- $r4
	@DEBUG_VALUE: s <- 0
	.loc	14 804 39 is_stmt 1             @ lvgl/src/lv_core/lv_indev.c:804:39
	ldrsh.w	r0, [r4, #12]
.Ltmp342:
	.loc	14 804 17 is_stmt 0             @ lvgl/src/lv_core/lv_indev.c:804:17
	cmp.w	r0, #-1
	bgt	.LBB6_77
.Ltmp343:
@ %bb.75:
	@DEBUG_VALUE: indev_encoder_proc:i <- $r6
	@DEBUG_VALUE: indev_encoder_proc:g <- $r5
	@DEBUG_VALUE: indev_encoder_proc:data <- $r4
	@DEBUG_VALUE: s <- 0
	.loc	14 0 17                         @ lvgl/src/lv_core/lv_indev.c:0:17
	movs	r6, #0
.Ltmp344:
	@DEBUG_VALUE: indev_encoder_proc:i <- [DW_OP_LLVM_entry_value 1] $r0
	.p2align	2
.LBB6_76:                               @ =>This Inner Loop Header: Depth=1
	@DEBUG_VALUE: indev_encoder_proc:g <- $r5
	@DEBUG_VALUE: indev_encoder_proc:data <- $r4
	@DEBUG_VALUE: indev_encoder_proc:i <- [DW_OP_LLVM_entry_value 1] $r0
	@DEBUG_VALUE: s <- $r6
	.loc	14 804 54                       @ lvgl/src/lv_core/lv_indev.c:804:54
	mov	r0, r5
	bl	lv_group_focus_prev
	.loc	14 804 39                       @ lvgl/src/lv_core/lv_indev.c:804:39
	ldrsh.w	r0, [r4, #12]
	.loc	14 804 50                       @ lvgl/src/lv_core/lv_indev.c:804:50
	adds	r6, #1
.Ltmp345:
	@DEBUG_VALUE: s <- $r6
	.loc	14 804 32                       @ lvgl/src/lv_core/lv_indev.c:804:32
	rsbs	r0, r0, #0
.Ltmp346:
	.loc	14 804 17                       @ lvgl/src/lv_core/lv_indev.c:804:17
	cmp	r6, r0
	blt	.LBB6_76
.Ltmp347:
.LBB6_77:
	@DEBUG_VALUE: indev_encoder_proc:data <- $r4
	.loc	14 816 1 is_stmt 1              @ lvgl/src/lv_core/lv_indev.c:816:1
	add	sp, #4
	pop.w	{r4, r5, r6, r7, r8, r9, pc}
.Ltmp348:
.LBB6_78:
	@DEBUG_VALUE: indev_encoder_proc:i <- $r6
	@DEBUG_VALUE: indev_encoder_proc:g <- $r5
	@DEBUG_VALUE: indev_encoder_proc:data <- $r4
	.loc	14 729 17                       @ lvgl/src/lv_core/lv_indev.c:729:17
	mov	r0, r5
	bl	lv_group_send_data
	b	.LBB6_40
.Ltmp349:
.Lfunc_end6:
	.size	indev_encoder_proc, .Lfunc_end6-indev_encoder_proc
	.cfi_endproc
	.cantunwind
	.fnend
                                        @ -- End function
	.section	.text.indev_button_proc,"ax",%progbits
	.p2align	3                               @ -- Begin function indev_button_proc
	.type	indev_button_proc,%function
	.code	16                              @ @indev_button_proc
	.thumb_func
indev_button_proc:
.Lfunc_begin7:
	.loc	14 825 0                        @ lvgl/src/lv_core/lv_indev.c:825:0
	.fnstart
	.cfi_startproc
@ %bb.0:
	@DEBUG_VALUE: indev_button_proc:i <- $r0
	@DEBUG_VALUE: indev_button_proc:data <- $r1
	.save	{r4, r5, r6, r7, r8, lr}
	push.w	{r4, r5, r6, r7, r8, lr}
	.cfi_def_cfa_offset 24
	.cfi_offset lr, -4
	.cfi_offset r8, -8
	.cfi_offset r7, -12
	.cfi_offset r6, -16
	.cfi_offset r5, -20
	.cfi_offset r4, -24
	mov	r4, r0
.Ltmp350:
	@DEBUG_VALUE: indev_button_proc:i <- $r4
	.loc	14 827 11 prologue_end          @ lvgl/src/lv_core/lv_indev.c:827:11
	ldr	r0, [r0, #92]
.Ltmp351:
	@DEBUG_VALUE: indev_button_proc:data <- $r1
	.loc	14 827 8 is_stmt 0              @ lvgl/src/lv_core/lv_indev.c:827:8
	cbz	r0, .LBB7_11
.Ltmp352:
@ %bb.1:
	@DEBUG_VALUE: indev_button_proc:i <- $r4
	@DEBUG_VALUE: indev_button_proc:data <- $r1
	.loc	14 0 8                          @ lvgl/src/lv_core/lv_indev.c:0:8
	mov	r5, r1
.Ltmp353:
	@DEBUG_VALUE: indev_button_proc:data <- $r5
	.loc	14 832 40 is_stmt 1             @ lvgl/src/lv_core/lv_indev.c:832:40
	ldr	r1, [r1, #8]
	.loc	14 832 48 is_stmt 0             @ lvgl/src/lv_core/lv_indev.c:832:48
	add.w	r2, r0, r1, lsl #2
.Ltmp354:
	.loc	14 836 14 is_stmt 1             @ lvgl/src/lv_core/lv_indev.c:836:14
	ldrb	r3, [r5, #14]
.Ltmp355:
	.loc	14 832 48                       @ lvgl/src/lv_core/lv_indev.c:832:48
	ldrh.w	r7, [r0, r1, lsl #2]
.Ltmp356:
	@DEBUG_VALUE: indev_button_proc:x <- undef
	.loc	14 833 48                       @ lvgl/src/lv_core/lv_indev.c:833:48
	ldrh.w	r8, [r2, #2]
.Ltmp357:
	@DEBUG_VALUE: indev_button_proc:y <- undef
	.loc	14 836 8                        @ lvgl/src/lv_core/lv_indev.c:836:8
	cmp	r3, #1
	bne	.LBB7_5
.Ltmp358:
@ %bb.2:
	@DEBUG_VALUE: indev_button_proc:data <- $r5
	@DEBUG_VALUE: indev_button_proc:i <- $r4
	.loc	14 837 45                       @ lvgl/src/lv_core/lv_indev.c:837:45
	ldrh	r0, [r4, #36]
	.loc	14 837 52 is_stmt 0             @ lvgl/src/lv_core/lv_indev.c:837:52
	cmp	r0, r7
	bne	.LBB7_4
.Ltmp359:
@ %bb.3:
	@DEBUG_VALUE: indev_button_proc:data <- $r5
	@DEBUG_VALUE: indev_button_proc:i <- $r4
	.loc	14 838 45 is_stmt 1             @ lvgl/src/lv_core/lv_indev.c:838:45
	ldrh	r0, [r4, #38]
.Ltmp360:
	.loc	14 837 12                       @ lvgl/src/lv_core/lv_indev.c:837:12
	cmp	r0, r8
	beq	.LBB7_5
.Ltmp361:
.LBB7_4:
	@DEBUG_VALUE: indev_button_proc:data <- $r5
	@DEBUG_VALUE: indev_button_proc:i <- $r4
	.loc	14 0 0 is_stmt 0                @ lvgl/src/lv_core/lv_indev.c:0:0
	add.w	r0, r4, #28
.Ltmp362:
	.loc	14 839 13 is_stmt 1             @ lvgl/src/lv_core/lv_indev.c:839:13
	bl	indev_proc_release
.Ltmp363:
.LBB7_5:
	@DEBUG_VALUE: indev_button_proc:data <- $r5
	@DEBUG_VALUE: indev_button_proc:i <- $r4
	.loc	14 843 30                       @ lvgl/src/lv_core/lv_indev.c:843:30
	add.w	r6, r4, #28
	.loc	14 843 8 is_stmt 0              @ lvgl/src/lv_core/lv_indev.c:843:8
	mov	r0, r6
	bl	indev_reset_check
.Ltmp364:
	.loc	14 843 8                        @ lvgl/src/lv_core/lv_indev.c:843:8
	cbnz	r0, .LBB7_11
.Ltmp365:
@ %bb.6:
	@DEBUG_VALUE: indev_button_proc:data <- $r5
	@DEBUG_VALUE: indev_button_proc:i <- $r4
	.loc	14 846 39 is_stmt 1             @ lvgl/src/lv_core/lv_indev.c:846:39
	strh	r7, [r4, #32]
	.loc	14 847 39                       @ lvgl/src/lv_core/lv_indev.c:847:39
	strh.w	r8, [r4, #34]
.Ltmp366:
	.loc	14 849 14                       @ lvgl/src/lv_core/lv_indev.c:849:14
	ldrb	r0, [r5, #14]
.Ltmp367:
	.loc	14 849 8 is_stmt 0              @ lvgl/src/lv_core/lv_indev.c:849:8
	cmp	r0, #1
	bne	.LBB7_8
.Ltmp368:
@ %bb.7:
	@DEBUG_VALUE: indev_button_proc:data <- $r5
	@DEBUG_VALUE: indev_button_proc:i <- $r4
	.loc	14 849 42                       @ lvgl/src/lv_core/lv_indev.c:849:42
	mov	r0, r6
	bl	indev_proc_press
	b	.LBB7_9
.Ltmp369:
.LBB7_8:
	@DEBUG_VALUE: indev_button_proc:data <- $r5
	@DEBUG_VALUE: indev_button_proc:i <- $r4
	.loc	14 850 10 is_stmt 1             @ lvgl/src/lv_core/lv_indev.c:850:10
	mov	r0, r6
	bl	indev_proc_release
.Ltmp370:
.LBB7_9:
	@DEBUG_VALUE: indev_button_proc:data <- $r5
	@DEBUG_VALUE: indev_button_proc:i <- $r4
	.loc	14 852 8                        @ lvgl/src/lv_core/lv_indev.c:852:8
	mov	r0, r6
	bl	indev_reset_check
.Ltmp371:
	.loc	14 852 8 is_stmt 0              @ lvgl/src/lv_core/lv_indev.c:852:8
	cmp	r0, #0
	.loc	14 856 1 is_stmt 1              @ lvgl/src/lv_core/lv_indev.c:856:1
	it	ne
	popne.w	{r4, r5, r6, r7, r8, pc}
.Ltmp372:
.LBB7_10:
	.loc	14 854 74                       @ lvgl/src/lv_core/lv_indev.c:854:74
	ldr	r0, [r4, #32]
	.loc	14 854 40 is_stmt 0             @ lvgl/src/lv_core/lv_indev.c:854:40
	str	r0, [r4, #36]
.LBB7_11:
	.loc	14 856 1 is_stmt 1              @ lvgl/src/lv_core/lv_indev.c:856:1
	pop.w	{r4, r5, r6, r7, r8, pc}
.Ltmp373:
.Lfunc_end7:
	.size	indev_button_proc, .Lfunc_end7-indev_button_proc
	.cfi_endproc
	.cantunwind
	.fnend
                                        @ -- End function
	.section	.text.lv_indev_get_act,"ax",%progbits
	.hidden	lv_indev_get_act                @ -- Begin function lv_indev_get_act
	.globl	lv_indev_get_act
	.p2align	3
	.type	lv_indev_get_act,%function
	.code	16                              @ @lv_indev_get_act
	.thumb_func
lv_indev_get_act:
.Lfunc_begin8:
	.loc	14 138 0                        @ lvgl/src/lv_core/lv_indev.c:138:0
	.fnstart
	.cfi_startproc
@ %bb.0:
	.loc	14 139 12 prologue_end          @ lvgl/src/lv_core/lv_indev.c:139:12
	movw	r0, :lower16:indev_act
	movt	r0, :upper16:indev_act
	ldr	r0, [r0]
	.loc	14 139 5 is_stmt 0              @ lvgl/src/lv_core/lv_indev.c:139:5
	bx	lr
.Ltmp374:
.Lfunc_end8:
	.size	lv_indev_get_act, .Lfunc_end8-lv_indev_get_act
	.cfi_endproc
	.cantunwind
	.fnend
                                        @ -- End function
	.section	.text.lv_indev_get_type,"ax",%progbits
	.hidden	lv_indev_get_type               @ -- Begin function lv_indev_get_type
	.globl	lv_indev_get_type
	.p2align	3
	.type	lv_indev_get_type,%function
	.code	16                              @ @lv_indev_get_type
	.thumb_func
lv_indev_get_type:
.Lfunc_begin9:
	.loc	14 148 0 is_stmt 1              @ lvgl/src/lv_core/lv_indev.c:148:0
	.fnstart
	.cfi_startproc
@ %bb.0:
	@DEBUG_VALUE: lv_indev_get_type:indev <- $r0
	@DEBUG_VALUE: lv_indev_get_type:indev <- $r0
	.loc	14 149 8 prologue_end           @ lvgl/src/lv_core/lv_indev.c:149:8
	cmp	r0, #0
	.loc	14 151 26                       @ lvgl/src/lv_core/lv_indev.c:151:26
	ite	ne
	ldrbne	r0, [r0]
.Ltmp375:
	@DEBUG_VALUE: lv_indev_get_type:indev <- [DW_OP_LLVM_entry_value 1] $r0
	.loc	14 0 26 is_stmt 0               @ lvgl/src/lv_core/lv_indev.c:0:26
	moveq	r0, #0
	.loc	14 152 1 is_stmt 1              @ lvgl/src/lv_core/lv_indev.c:152:1
	bx	lr
.Ltmp376:
.Lfunc_end9:
	.size	lv_indev_get_type, .Lfunc_end9-lv_indev_get_type
	.cfi_endproc
	.cantunwind
	.fnend
                                        @ -- End function
	.section	.text.lv_indev_reset_long_press,"ax",%progbits
	.hidden	lv_indev_reset_long_press       @ -- Begin function lv_indev_reset_long_press
	.globl	lv_indev_reset_long_press
	.p2align	3
	.type	lv_indev_reset_long_press,%function
	.code	16                              @ @lv_indev_reset_long_press
	.thumb_func
lv_indev_reset_long_press:
.Lfunc_begin10:
	.loc	14 198 0                        @ lvgl/src/lv_core/lv_indev.c:198:0
	.fnstart
	.cfi_startproc
@ %bb.0:
	@DEBUG_VALUE: lv_indev_reset_long_press:indev <- $r0
	.save	{r4, lr}
	push	{r4, lr}
	.cfi_def_cfa_offset 8
	.cfi_offset lr, -4
	.cfi_offset r4, -8
	mov	r4, r0
.Ltmp377:
	@DEBUG_VALUE: lv_indev_reset_long_press:indev <- $r4
	.loc	14 199 38 prologue_end          @ lvgl/src/lv_core/lv_indev.c:199:38
	ldrb.w	r0, [r0, #80]
	and	r0, r0, #254
	strb.w	r0, [r4, #80]
	.loc	14 200 40                       @ lvgl/src/lv_core/lv_indev.c:200:40
	bl	lv_tick_get
	.loc	14 200 38 is_stmt 0             @ lvgl/src/lv_core/lv_indev.c:200:38
	str	r0, [r4, #76]
	.loc	14 201 40 is_stmt 1             @ lvgl/src/lv_core/lv_indev.c:201:40
	bl	lv_tick_get
	.loc	14 201 38 is_stmt 0             @ lvgl/src/lv_core/lv_indev.c:201:38
	str	r0, [r4, #72]
	.loc	14 202 1 is_stmt 1              @ lvgl/src/lv_core/lv_indev.c:202:1
	pop	{r4, pc}
.Ltmp378:
.Lfunc_end10:
	.size	lv_indev_reset_long_press, .Lfunc_end10-lv_indev_reset_long_press
	.cfi_endproc
	.cantunwind
	.fnend
                                        @ -- End function
	.section	.text.lv_indev_enable,"ax",%progbits
	.hidden	lv_indev_enable                 @ -- Begin function lv_indev_enable
	.globl	lv_indev_enable
	.p2align	3
	.type	lv_indev_enable,%function
	.code	16                              @ @lv_indev_enable
	.thumb_func
lv_indev_enable:
.Lfunc_begin11:
	.loc	14 210 0                        @ lvgl/src/lv_core/lv_indev.c:210:0
	.fnstart
	.cfi_startproc
@ %bb.0:
	@DEBUG_VALUE: lv_indev_enable:indev <- $r0
	@DEBUG_VALUE: lv_indev_enable:indev <- $r0
	@DEBUG_VALUE: lv_indev_enable:en <- [DW_OP_LLVM_convert 1 7, DW_OP_LLVM_convert 8 7, DW_OP_stack_value] $r1
	@DEBUG_VALUE: lv_indev_enable:en <- [DW_OP_LLVM_convert 1 7, DW_OP_LLVM_convert 8 7, DW_OP_stack_value] undef
	.loc	14 211 8 prologue_end           @ lvgl/src/lv_core/lv_indev.c:211:8
	cmp	r0, #0
.Ltmp379:
	@DEBUG_VALUE: lv_indev_enable:en <- [DW_OP_LLVM_convert 1 7, DW_OP_LLVM_convert 8 7, DW_OP_stack_value] $r1
	.loc	14 214 1                        @ lvgl/src/lv_core/lv_indev.c:214:1
	it	eq
	bxeq	lr
.Ltmp380:
.LBB11_1:
	@DEBUG_VALUE: lv_indev_enable:en <- [DW_OP_LLVM_convert 1 7, DW_OP_LLVM_convert 8 7, DW_OP_stack_value] $r1
	@DEBUG_VALUE: lv_indev_enable:indev <- $r0
	.loc	14 213 26                       @ lvgl/src/lv_core/lv_indev.c:213:26
	ldrb.w	r2, [r0, #80]
	cmp	r1, #0
	and	r2, r2, #251
	it	eq
	addeq	r2, #4
	strb.w	r2, [r0, #80]
	.loc	14 214 1                        @ lvgl/src/lv_core/lv_indev.c:214:1
	bx	lr
.Ltmp381:
.Lfunc_end11:
	.size	lv_indev_enable, .Lfunc_end11-lv_indev_enable
	.cfi_endproc
	.cantunwind
	.fnend
                                        @ -- End function
	.section	.text.lv_indev_set_cursor,"ax",%progbits
	.hidden	lv_indev_set_cursor             @ -- Begin function lv_indev_set_cursor
	.globl	lv_indev_set_cursor
	.p2align	3
	.type	lv_indev_set_cursor,%function
	.code	16                              @ @lv_indev_set_cursor
	.thumb_func
lv_indev_set_cursor:
.Lfunc_begin12:
	.loc	14 222 0                        @ lvgl/src/lv_core/lv_indev.c:222:0
	.fnstart
	.cfi_startproc
@ %bb.0:
	@DEBUG_VALUE: lv_indev_set_cursor:indev <- $r0
	@DEBUG_VALUE: lv_indev_set_cursor:cur_obj <- $r1
	.save	{r4, r5, r7, lr}
	push	{r4, r5, r7, lr}
	.cfi_def_cfa_offset 16
	.cfi_offset lr, -4
	.cfi_offset r7, -8
	.cfi_offset r5, -12
	.cfi_offset r4, -16
	mov	r4, r0
.Ltmp382:
	@DEBUG_VALUE: lv_indev_set_cursor:indev <- $r4
	.loc	14 223 22 prologue_end          @ lvgl/src/lv_core/lv_indev.c:223:22
	ldrb	r0, [r0]
.Ltmp383:
	.loc	14 223 8 is_stmt 0              @ lvgl/src/lv_core/lv_indev.c:223:8
	cmp	r0, #1
	@DEBUG_VALUE: lv_indev_set_cursor:cur_obj <- $r1
	.loc	14 229 1 is_stmt 1              @ lvgl/src/lv_core/lv_indev.c:229:1
	it	ne
	popne	{r4, r5, r7, pc}
.Ltmp384:
.LBB12_1:
	@DEBUG_VALUE: lv_indev_set_cursor:cur_obj <- $r1
	.loc	14 226 74                       @ lvgl/src/lv_core/lv_indev.c:226:74
	ldr	r0, [r4, #12]
	mov	r5, r1
.Ltmp385:
	@DEBUG_VALUE: lv_indev_set_cursor:cur_obj <- $r5
	.loc	14 225 19                       @ lvgl/src/lv_core/lv_indev.c:225:19
	str	r1, [r4, #84]
	.loc	14 226 38                       @ lvgl/src/lv_core/lv_indev.c:226:38
	bl	lv_disp_get_layer_sys
	mov	r1, r0
	.loc	14 226 5 is_stmt 0              @ lvgl/src/lv_core/lv_indev.c:226:5
	mov	r0, r5
	bl	lv_obj_set_parent
	.loc	14 227 71 is_stmt 1             @ lvgl/src/lv_core/lv_indev.c:227:71
	ldrsh.w	r1, [r4, #32]
	.loc	14 227 27 is_stmt 0             @ lvgl/src/lv_core/lv_indev.c:227:27
	ldr	r0, [r4, #84]
	.loc	14 227 110                      @ lvgl/src/lv_core/lv_indev.c:227:110
	ldrsh.w	r2, [r4, #34]
	.loc	14 227 5                        @ lvgl/src/lv_core/lv_indev.c:227:5
	bl	lv_obj_set_pos
	.loc	14 228 29 is_stmt 1             @ lvgl/src/lv_core/lv_indev.c:228:29
	ldr	r0, [r4, #84]
	.loc	14 228 5 is_stmt 0              @ lvgl/src/lv_core/lv_indev.c:228:5
	movs	r1, #0
	bl	lv_obj_set_click
	.loc	14 229 1 is_stmt 1              @ lvgl/src/lv_core/lv_indev.c:229:1
	pop	{r4, r5, r7, pc}
.Ltmp386:
.Lfunc_end12:
	.size	lv_indev_set_cursor, .Lfunc_end12-lv_indev_set_cursor
	.cfi_endproc
	.cantunwind
	.fnend
                                        @ -- End function
	.section	.text.lv_indev_set_group,"ax",%progbits
	.hidden	lv_indev_set_group              @ -- Begin function lv_indev_set_group
	.globl	lv_indev_set_group
	.p2align	3
	.type	lv_indev_set_group,%function
	.code	16                              @ @lv_indev_set_group
	.thumb_func
lv_indev_set_group:
.Lfunc_begin13:
	.loc	14 238 0                        @ lvgl/src/lv_core/lv_indev.c:238:0
	.fnstart
	.cfi_startproc
@ %bb.0:
	@DEBUG_VALUE: lv_indev_set_group:indev <- $r0
	@DEBUG_VALUE: lv_indev_set_group:indev <- $r0
	@DEBUG_VALUE: lv_indev_set_group:group <- $r1
	.loc	14 239 22 prologue_end          @ lvgl/src/lv_core/lv_indev.c:239:22
	ldrb	r2, [r0]
	.loc	14 239 51 is_stmt 0             @ lvgl/src/lv_core/lv_indev.c:239:51
	cmp	r2, #4
	@DEBUG_VALUE: lv_indev_set_group:group <- $r1
	ite	ne
	cmpne	r2, #2
.Ltmp387:
	.loc	14 240 22 is_stmt 1             @ lvgl/src/lv_core/lv_indev.c:240:22
	streq	r1, [r0, #88]
.Ltmp388:
	.loc	14 242 1                        @ lvgl/src/lv_core/lv_indev.c:242:1
	bx	lr
.Ltmp389:
.Lfunc_end13:
	.size	lv_indev_set_group, .Lfunc_end13-lv_indev_set_group
	.cfi_endproc
	.cantunwind
	.fnend
                                        @ -- End function
	.section	.text.lv_indev_set_button_points,"ax",%progbits
	.hidden	lv_indev_set_button_points      @ -- Begin function lv_indev_set_button_points
	.globl	lv_indev_set_button_points
	.p2align	3
	.type	lv_indev_set_button_points,%function
	.code	16                              @ @lv_indev_set_button_points
	.thumb_func
lv_indev_set_button_points:
.Lfunc_begin14:
	.loc	14 252 0                        @ lvgl/src/lv_core/lv_indev.c:252:0
	.fnstart
	.cfi_startproc
@ %bb.0:
	@DEBUG_VALUE: lv_indev_set_button_points:indev <- $r0
	@DEBUG_VALUE: lv_indev_set_button_points:indev <- $r0
	@DEBUG_VALUE: lv_indev_set_button_points:points <- $r1
	.loc	14 253 22 prologue_end          @ lvgl/src/lv_core/lv_indev.c:253:22
	ldrb	r2, [r0]
.Ltmp390:
	.loc	14 253 8 is_stmt 0              @ lvgl/src/lv_core/lv_indev.c:253:8
	cmp	r2, #3
	@DEBUG_VALUE: lv_indev_set_button_points:points <- $r1
.Ltmp391:
	.loc	14 254 27 is_stmt 1             @ lvgl/src/lv_core/lv_indev.c:254:27
	it	eq
	streq	r1, [r0, #92]
.Ltmp392:
	.loc	14 256 1                        @ lvgl/src/lv_core/lv_indev.c:256:1
	bx	lr
.Ltmp393:
.Lfunc_end14:
	.size	lv_indev_set_button_points, .Lfunc_end14-lv_indev_set_button_points
	.cfi_endproc
	.cantunwind
	.fnend
                                        @ -- End function
	.section	.text.lv_indev_get_point,"ax",%progbits
	.hidden	lv_indev_get_point              @ -- Begin function lv_indev_get_point
	.globl	lv_indev_get_point
	.p2align	3
	.type	lv_indev_get_point,%function
	.code	16                              @ @lv_indev_get_point
	.thumb_func
lv_indev_get_point:
.Lfunc_begin15:
	.loc	14 264 0                        @ lvgl/src/lv_core/lv_indev.c:264:0
	.fnstart
	.cfi_startproc
@ %bb.0:
	@DEBUG_VALUE: lv_indev_get_point:indev <- $r0
	@DEBUG_VALUE: lv_indev_get_point:indev <- $r0
	@DEBUG_VALUE: lv_indev_get_point:point <- $r1
	@DEBUG_VALUE: lv_indev_get_point:point <- $r1
	.loc	14 265 8 prologue_end           @ lvgl/src/lv_core/lv_indev.c:265:8
	cbz	r0, .LBB15_3
.Ltmp394:
@ %bb.1:
	@DEBUG_VALUE: lv_indev_get_point:point <- $r1
	@DEBUG_VALUE: lv_indev_get_point:indev <- $r0
	.loc	14 270 22                       @ lvgl/src/lv_core/lv_indev.c:270:22
	ldrb	r2, [r0]
	.loc	14 270 52 is_stmt 0             @ lvgl/src/lv_core/lv_indev.c:270:52
	orr	r2, r2, #2
	cmp	r2, #3
	bne	.LBB15_4
.Ltmp395:
@ %bb.2:
	@DEBUG_VALUE: lv_indev_get_point:point <- $r1
	@DEBUG_VALUE: lv_indev_get_point:indev <- $r0
	.loc	14 275 56 is_stmt 1             @ lvgl/src/lv_core/lv_indev.c:275:56
	ldrh	r2, [r0, #32]
	.loc	14 275 18 is_stmt 0             @ lvgl/src/lv_core/lv_indev.c:275:18
	strh	r2, [r1]
	.loc	14 276 56 is_stmt 1             @ lvgl/src/lv_core/lv_indev.c:276:56
	ldrh	r0, [r0, #34]
.Ltmp396:
	@DEBUG_VALUE: lv_indev_get_point:indev <- [DW_OP_LLVM_entry_value 1] $r0
	.loc	14 0 0 is_stmt 0                @ lvgl/src/lv_core/lv_indev.c:0:0
	strh	r0, [r1, #2]
	.loc	14 278 1 is_stmt 1              @ lvgl/src/lv_core/lv_indev.c:278:1
	bx	lr
.Ltmp397:
.LBB15_3:
	@DEBUG_VALUE: lv_indev_get_point:point <- $r1
	@DEBUG_VALUE: lv_indev_get_point:indev <- $r0
	.loc	14 0 1 is_stmt 0                @ lvgl/src/lv_core/lv_indev.c:0:1
	movs	r0, #0
.Ltmp398:
	@DEBUG_VALUE: lv_indev_get_point:indev <- [DW_OP_LLVM_entry_value 1] $r0
	.loc	14 266 18 is_stmt 1             @ lvgl/src/lv_core/lv_indev.c:266:18
	strh	r0, [r1]
.Ltmp399:
	.loc	14 0 0 is_stmt 0                @ lvgl/src/lv_core/lv_indev.c:0:0
	strh	r0, [r1, #2]
	.loc	14 278 1 is_stmt 1              @ lvgl/src/lv_core/lv_indev.c:278:1
	bx	lr
.Ltmp400:
.LBB15_4:
	@DEBUG_VALUE: lv_indev_get_point:point <- $r1
	@DEBUG_VALUE: lv_indev_get_point:indev <- $r0
	.loc	14 0 1 is_stmt 0                @ lvgl/src/lv_core/lv_indev.c:0:1
	movw	r0, #65535
.Ltmp401:
	@DEBUG_VALUE: lv_indev_get_point:indev <- [DW_OP_LLVM_entry_value 1] $r0
	mov.w	r2, #-1
.Ltmp402:
	.loc	14 271 18 is_stmt 1             @ lvgl/src/lv_core/lv_indev.c:271:18
	strh	r2, [r1]
.Ltmp403:
	.loc	14 0 0 is_stmt 0                @ lvgl/src/lv_core/lv_indev.c:0:0
	strh	r0, [r1, #2]
	.loc	14 278 1 is_stmt 1              @ lvgl/src/lv_core/lv_indev.c:278:1
	bx	lr
.Ltmp404:
.Lfunc_end15:
	.size	lv_indev_get_point, .Lfunc_end15-lv_indev_get_point
	.cfi_endproc
	.cantunwind
	.fnend
                                        @ -- End function
	.section	.text.lv_indev_get_gesture_dir,"ax",%progbits
	.hidden	lv_indev_get_gesture_dir        @ -- Begin function lv_indev_get_gesture_dir
	.globl	lv_indev_get_gesture_dir
	.p2align	3
	.type	lv_indev_get_gesture_dir,%function
	.code	16                              @ @lv_indev_get_gesture_dir
	.thumb_func
lv_indev_get_gesture_dir:
.Lfunc_begin16:
	.loc	14 286 0                        @ lvgl/src/lv_core/lv_indev.c:286:0
	.fnstart
	.cfi_startproc
@ %bb.0:
	@DEBUG_VALUE: lv_indev_get_gesture_dir:indev <- $r0
	@DEBUG_VALUE: lv_indev_get_gesture_dir:indev <- $r0
	.loc	14 287 38 prologue_end          @ lvgl/src/lv_core/lv_indev.c:287:38
	ldrb.w	r0, [r0, #64]
.Ltmp405:
	@DEBUG_VALUE: lv_indev_get_gesture_dir:indev <- [DW_OP_LLVM_entry_value 1] $r0
	.loc	14 287 5 is_stmt 0              @ lvgl/src/lv_core/lv_indev.c:287:5
	bx	lr
.Ltmp406:
.Lfunc_end16:
	.size	lv_indev_get_gesture_dir, .Lfunc_end16-lv_indev_get_gesture_dir
	.cfi_endproc
	.cantunwind
	.fnend
                                        @ -- End function
	.section	.text.lv_indev_get_key,"ax",%progbits
	.hidden	lv_indev_get_key                @ -- Begin function lv_indev_get_key
	.globl	lv_indev_get_key
	.p2align	3
	.type	lv_indev_get_key,%function
	.code	16                              @ @lv_indev_get_key
	.thumb_func
lv_indev_get_key:
.Lfunc_begin17:
	.loc	14 296 0 is_stmt 1              @ lvgl/src/lv_core/lv_indev.c:296:0
	.fnstart
	.cfi_startproc
@ %bb.0:
	@DEBUG_VALUE: lv_indev_get_key:indev <- $r0
	@DEBUG_VALUE: lv_indev_get_key:indev <- $r0
	.loc	14 297 22 prologue_end          @ lvgl/src/lv_core/lv_indev.c:297:22
	ldrb	r1, [r0]
.Ltmp407:
	.loc	14 297 8 is_stmt 0              @ lvgl/src/lv_core/lv_indev.c:297:8
	cmp	r1, #2
.Ltmp408:
	.loc	14 300 41 is_stmt 1             @ lvgl/src/lv_core/lv_indev.c:300:41
	ite	eq
	ldreq	r0, [r0, #36]
.Ltmp409:
	@DEBUG_VALUE: lv_indev_get_key:indev <- [DW_OP_LLVM_entry_value 1] $r0
	.loc	14 0 41 is_stmt 0               @ lvgl/src/lv_core/lv_indev.c:0:41
	movne	r0, #0
.Ltmp410:
	.loc	14 301 1 is_stmt 1              @ lvgl/src/lv_core/lv_indev.c:301:1
	bx	lr
.Ltmp411:
.Lfunc_end17:
	.size	lv_indev_get_key, .Lfunc_end17-lv_indev_get_key
	.cfi_endproc
	.cantunwind
	.fnend
                                        @ -- End function
	.section	.text.lv_indev_is_dragging,"ax",%progbits
	.hidden	lv_indev_is_dragging            @ -- Begin function lv_indev_is_dragging
	.globl	lv_indev_is_dragging
	.p2align	3
	.type	lv_indev_is_dragging,%function
	.code	16                              @ @lv_indev_is_dragging
	.thumb_func
lv_indev_is_dragging:
.Lfunc_begin18:
	.loc	14 310 0                        @ lvgl/src/lv_core/lv_indev.c:310:0
	.fnstart
	.cfi_startproc
@ %bb.0:
	@DEBUG_VALUE: lv_indev_is_dragging:indev <- $r0
	@DEBUG_VALUE: lv_indev_is_dragging:indev <- $r0
	.loc	14 311 8 prologue_end           @ lvgl/src/lv_core/lv_indev.c:311:8
	cbz	r0, .LBB18_3
.Ltmp412:
@ %bb.1:
	@DEBUG_VALUE: lv_indev_is_dragging:indev <- $r0
	.loc	14 312 22                       @ lvgl/src/lv_core/lv_indev.c:312:22
	ldrb	r1, [r0]
	.loc	14 312 52 is_stmt 0             @ lvgl/src/lv_core/lv_indev.c:312:52
	orr	r1, r1, #2
	cmp	r1, #3
	bne	.LBB18_3
.Ltmp413:
@ %bb.2:
	@DEBUG_VALUE: lv_indev_is_dragging:indev <- $r0
	.loc	14 313 38 is_stmt 1             @ lvgl/src/lv_core/lv_indev.c:313:38
	ldrb.w	r0, [r0, #70]
.Ltmp414:
	@DEBUG_VALUE: lv_indev_is_dragging:indev <- [DW_OP_LLVM_entry_value 1] $r0
	.loc	14 313 12 is_stmt 0             @ lvgl/src/lv_core/lv_indev.c:313:12
	ubfx	r0, r0, #1, #1
	.loc	14 314 1 is_stmt 1              @ lvgl/src/lv_core/lv_indev.c:314:1
	bx	lr
.Ltmp415:
.LBB18_3:
	@DEBUG_VALUE: lv_indev_is_dragging:indev <- $r0
	.loc	14 0 1 is_stmt 0                @ lvgl/src/lv_core/lv_indev.c:0:1
	movs	r0, #0
.Ltmp416:
	@DEBUG_VALUE: lv_indev_is_dragging:indev <- [DW_OP_LLVM_entry_value 1] $r0
	.loc	14 314 1                        @ lvgl/src/lv_core/lv_indev.c:314:1
	bx	lr
.Ltmp417:
.Lfunc_end18:
	.size	lv_indev_is_dragging, .Lfunc_end18-lv_indev_is_dragging
	.cfi_endproc
	.cantunwind
	.fnend
                                        @ -- End function
	.section	.text.lv_indev_get_vect,"ax",%progbits
	.hidden	lv_indev_get_vect               @ -- Begin function lv_indev_get_vect
	.globl	lv_indev_get_vect
	.p2align	3
	.type	lv_indev_get_vect,%function
	.code	16                              @ @lv_indev_get_vect
	.thumb_func
lv_indev_get_vect:
.Lfunc_begin19:
	.loc	14 323 0 is_stmt 1              @ lvgl/src/lv_core/lv_indev.c:323:0
	.fnstart
	.cfi_startproc
@ %bb.0:
	@DEBUG_VALUE: lv_indev_get_vect:indev <- $r0
	@DEBUG_VALUE: lv_indev_get_vect:indev <- $r0
	@DEBUG_VALUE: lv_indev_get_vect:point <- $r1
	@DEBUG_VALUE: lv_indev_get_vect:point <- $r1
	.loc	14 324 8 prologue_end           @ lvgl/src/lv_core/lv_indev.c:324:8
	cbz	r0, .LBB19_3
.Ltmp418:
@ %bb.1:
	@DEBUG_VALUE: lv_indev_get_vect:point <- $r1
	@DEBUG_VALUE: lv_indev_get_vect:indev <- $r0
	.loc	14 330 22                       @ lvgl/src/lv_core/lv_indev.c:330:22
	ldrb	r2, [r0]
	.loc	14 330 52 is_stmt 0             @ lvgl/src/lv_core/lv_indev.c:330:52
	orr	r2, r2, #2
	cmp	r2, #3
	bne	.LBB19_3
.Ltmp419:
@ %bb.2:
	@DEBUG_VALUE: lv_indev_get_vect:point <- $r1
	@DEBUG_VALUE: lv_indev_get_vect:indev <- $r0
	.loc	14 335 51 is_stmt 1             @ lvgl/src/lv_core/lv_indev.c:335:51
	ldrh	r2, [r0, #40]
	.loc	14 335 18 is_stmt 0             @ lvgl/src/lv_core/lv_indev.c:335:18
	strh	r2, [r1]
	.loc	14 336 51 is_stmt 1             @ lvgl/src/lv_core/lv_indev.c:336:51
	ldrh	r0, [r0, #42]
.Ltmp420:
	@DEBUG_VALUE: lv_indev_get_vect:indev <- [DW_OP_LLVM_entry_value 1] $r0
	.loc	14 0 0 is_stmt 0                @ lvgl/src/lv_core/lv_indev.c:0:0
	strh	r0, [r1, #2]
	.loc	14 338 1 is_stmt 1              @ lvgl/src/lv_core/lv_indev.c:338:1
	bx	lr
.Ltmp421:
.LBB19_3:
	@DEBUG_VALUE: lv_indev_get_vect:point <- $r1
	@DEBUG_VALUE: lv_indev_get_vect:indev <- $r0
	.loc	14 0 1 is_stmt 0                @ lvgl/src/lv_core/lv_indev.c:0:1
	movs	r0, #0
.Ltmp422:
	@DEBUG_VALUE: lv_indev_get_vect:indev <- [DW_OP_LLVM_entry_value 1] $r0
	strh	r0, [r1]
	strh	r0, [r1, #2]
	.loc	14 338 1                        @ lvgl/src/lv_core/lv_indev.c:338:1
	bx	lr
.Ltmp423:
.Lfunc_end19:
	.size	lv_indev_get_vect, .Lfunc_end19-lv_indev_get_vect
	.cfi_endproc
	.cantunwind
	.fnend
                                        @ -- End function
	.section	.text.lv_indev_finish_drag,"ax",%progbits
	.hidden	lv_indev_finish_drag            @ -- Begin function lv_indev_finish_drag
	.globl	lv_indev_finish_drag
	.p2align	3
	.type	lv_indev_finish_drag,%function
	.code	16                              @ @lv_indev_finish_drag
	.thumb_func
lv_indev_finish_drag:
.Lfunc_begin20:
	.loc	14 347 0 is_stmt 1              @ lvgl/src/lv_core/lv_indev.c:347:0
	.fnstart
	.cfi_startproc
@ %bb.0:
	@DEBUG_VALUE: lv_indev_finish_drag:indev <- $r0
	@DEBUG_VALUE: lv_indev_finish_drag:indev <- $r0
	.save	{r4, lr}
	push	{r4, lr}
	.cfi_def_cfa_offset 8
	.cfi_offset lr, -4
	.cfi_offset r4, -8
.Ltmp424:
	.loc	14 348 8 prologue_end           @ lvgl/src/lv_core/lv_indev.c:348:8
	cbz	r0, .LBB20_6
.Ltmp425:
@ %bb.1:
	@DEBUG_VALUE: lv_indev_finish_drag:indev <- $r0
	.loc	14 349 22                       @ lvgl/src/lv_core/lv_indev.c:349:22
	ldrb	r1, [r0]
.Ltmp426:
	.loc	14 349 8 is_stmt 0              @ lvgl/src/lv_core/lv_indev.c:349:8
	cmp	r1, #1
	bne	.LBB20_6
.Ltmp427:
@ %bb.2:
	@DEBUG_VALUE: lv_indev_finish_drag:indev <- $r0
	.loc	14 350 34 is_stmt 1             @ lvgl/src/lv_core/lv_indev.c:350:34
	ldrb.w	r1, [r0, #70]
.Ltmp428:
	.loc	14 350 8 is_stmt 0              @ lvgl/src/lv_core/lv_indev.c:350:8
	lsls	r2, r1, #30
	bpl	.LBB20_6
.Ltmp429:
@ %bb.3:
	@DEBUG_VALUE: lv_indev_finish_drag:indev <- $r0
	.loc	14 352 44 is_stmt 1             @ lvgl/src/lv_core/lv_indev.c:352:44
	and	r1, r1, #253
	strb.w	r1, [r0, #70]
	movs	r1, #0
	.loc	14 353 49                       @ lvgl/src/lv_core/lv_indev.c:353:49
	str	r1, [r0, #48]
	.loc	14 357 58                       @ lvgl/src/lv_core/lv_indev.c:357:58
	ldr	r0, [r0, #52]
.Ltmp430:
	@DEBUG_VALUE: lv_indev_finish_drag:indev <- [DW_OP_LLVM_entry_value 1] $r0
	.loc	14 357 16 is_stmt 0             @ lvgl/src/lv_core/lv_indev.c:357:16
	bl	get_dragged_obj
.Ltmp431:
	@DEBUG_VALUE: lv_indev_finish_drag:drag_obj <- $r0
	.loc	14 358 8 is_stmt 1              @ lvgl/src/lv_core/lv_indev.c:358:8
	cbz	r0, .LBB20_6
.Ltmp432:
@ %bb.4:
	@DEBUG_VALUE: lv_indev_finish_drag:drag_obj <- $r0
	@DEBUG_VALUE: lv_indev_finish_drag:indev <- [DW_OP_LLVM_entry_value 1] $r0
	.loc	14 361 21                       @ lvgl/src/lv_core/lv_indev.c:361:21
	ldr	r3, [r0, #28]
	.loc	14 361 11 is_stmt 0             @ lvgl/src/lv_core/lv_indev.c:361:11
	movs	r1, #19
	movs	r2, #0
	.loc	14 0 0                          @ lvgl/src/lv_core/lv_indev.c:0:0
	mov	r4, r0
.Ltmp433:
	@DEBUG_VALUE: lv_indev_finish_drag:drag_obj <- $r4
	.loc	14 361 11                       @ lvgl/src/lv_core/lv_indev.c:361:11
	blx	r3
.Ltmp434:
	@DEBUG_VALUE: lv_indev_finish_drag:res <- $r0
	.loc	14 362 8 is_stmt 1              @ lvgl/src/lv_core/lv_indev.c:362:8
	cmp	r0, #1
	.loc	14 0 0 is_stmt 0                @ lvgl/src/lv_core/lv_indev.c:0:0
	it	ne
	popne	{r4, pc}
.Ltmp435:
.LBB20_5:
	@DEBUG_VALUE: lv_indev_finish_drag:res <- $r0
	@DEBUG_VALUE: lv_indev_finish_drag:indev <- [DW_OP_LLVM_entry_value 1] $r0
	.loc	14 364 11 is_stmt 1             @ lvgl/src/lv_core/lv_indev.c:364:11
	movs	r1, #9
	movs	r2, #0
	mov	r0, r4
.Ltmp436:
	bl	lv_event_send
.Ltmp437:
	@DEBUG_VALUE: lv_indev_finish_drag:res <- undef
	.loc	14 0 0 is_stmt 0                @ lvgl/src/lv_core/lv_indev.c:0:0
	pop	{r4, pc}
.Ltmp438:
.LBB20_6:
	movs	r0, #1
	pop	{r4, pc}
.Ltmp439:
.Lfunc_end20:
	.size	lv_indev_finish_drag, .Lfunc_end20-lv_indev_finish_drag
	.cfi_endproc
	.cantunwind
	.fnend
                                        @ -- End function
	.section	.text.get_dragged_obj,"ax",%progbits
	.p2align	3                               @ -- Begin function get_dragged_obj
	.type	get_dragged_obj,%function
	.code	16                              @ @get_dragged_obj
	.thumb_func
get_dragged_obj:
.Lfunc_begin21:
	.loc	14 1504 0 is_stmt 1             @ lvgl/src/lv_core/lv_indev.c:1504:0
	.fnstart
	.cfi_startproc
@ %bb.0:
	@DEBUG_VALUE: get_dragged_obj:obj <- $r0
	@DEBUG_VALUE: get_dragged_obj:obj <- $r0
	.save	{r4, lr}
	push	{r4, lr}
	.cfi_def_cfa_offset 8
	.cfi_offset lr, -4
	.cfi_offset r4, -8
.Ltmp440:
	.loc	14 1505 8 prologue_end          @ lvgl/src/lv_core/lv_indev.c:1505:8
	cbz	r0, .LBB21_4
.Ltmp441:
@ %bb.1:
	@DEBUG_VALUE: get_dragged_obj:obj <- $r0
	.loc	14 0 8 is_stmt 0                @ lvgl/src/lv_core/lv_indev.c:0:8
	mov	r4, r0
.Ltmp442:
	@DEBUG_VALUE: get_dragged_obj:obj <- $r4
	@DEBUG_VALUE: get_dragged_obj:drag_obj <- $r4
	.loc	14 1507 11 is_stmt 1            @ lvgl/src/lv_core/lv_indev.c:1507:11
	bl	lv_obj_get_drag_parent
	.loc	14 1507 5 is_stmt 0             @ lvgl/src/lv_core/lv_indev.c:1507:5
	cbz	r0, .LBB21_3
.Ltmp443:
	.p2align	2
.LBB21_2:                               @ =>This Inner Loop Header: Depth=1
	@DEBUG_VALUE: get_dragged_obj:drag_obj <- $r4
	@DEBUG_VALUE: get_dragged_obj:drag_obj <- $r4
	.loc	14 1508 20 is_stmt 1            @ lvgl/src/lv_core/lv_indev.c:1508:20
	mov	r0, r4
	bl	lv_obj_get_parent
	mov	r4, r0
.Ltmp444:
	@DEBUG_VALUE: get_dragged_obj:obj <- [DW_OP_LLVM_entry_value 1] $r0
	@DEBUG_VALUE: get_dragged_obj:drag_obj <- $r4
	.loc	14 1507 11                      @ lvgl/src/lv_core/lv_indev.c:1507:11
	bl	lv_obj_get_drag_parent
	.loc	14 1507 5 is_stmt 0             @ lvgl/src/lv_core/lv_indev.c:1507:5
	cmp	r0, #0
	it	ne
	cmpne	r4, #0
	bne	.LBB21_2
.Ltmp445:
.LBB21_3:
	@DEBUG_VALUE: get_dragged_obj:drag_obj <- $r4
	.loc	14 1512 1 is_stmt 1             @ lvgl/src/lv_core/lv_indev.c:1512:1
	mov	r0, r4
	pop	{r4, pc}
.Ltmp446:
.LBB21_4:
	@DEBUG_VALUE: get_dragged_obj:obj <- $r0
	.loc	14 0 1 is_stmt 0                @ lvgl/src/lv_core/lv_indev.c:0:1
	movs	r0, #0
.Ltmp447:
	@DEBUG_VALUE: get_dragged_obj:obj <- [DW_OP_LLVM_entry_value 1] $r0
	.loc	14 1512 1                       @ lvgl/src/lv_core/lv_indev.c:1512:1
	pop	{r4, pc}
.Ltmp448:
.Lfunc_end21:
	.size	get_dragged_obj, .Lfunc_end21-get_dragged_obj
	.cfi_endproc
	.cantunwind
	.fnend
                                        @ -- End function
	.section	.text.lv_indev_wait_release,"ax",%progbits
	.hidden	lv_indev_wait_release           @ -- Begin function lv_indev_wait_release
	.globl	lv_indev_wait_release
	.p2align	3
	.type	lv_indev_wait_release,%function
	.code	16                              @ @lv_indev_wait_release
	.thumb_func
lv_indev_wait_release:
.Lfunc_begin22:
	.loc	14 375 0 is_stmt 1              @ lvgl/src/lv_core/lv_indev.c:375:0
	.fnstart
	.cfi_startproc
@ %bb.0:
	@DEBUG_VALUE: lv_indev_wait_release:indev <- $r0
	@DEBUG_VALUE: lv_indev_wait_release:indev <- $r0
	.loc	14 376 8 prologue_end           @ lvgl/src/lv_core/lv_indev.c:376:8
	cmp	r0, #0
	.loc	14 378 1                        @ lvgl/src/lv_core/lv_indev.c:378:1
	it	eq
	bxeq	lr
.Ltmp449:
.LBB22_1:
	@DEBUG_VALUE: lv_indev_wait_release:indev <- $r0
	.loc	14 377 36                       @ lvgl/src/lv_core/lv_indev.c:377:36
	ldrb.w	r1, [r0, #80]
	orr	r1, r1, #8
	strb.w	r1, [r0, #80]
	.loc	14 378 1                        @ lvgl/src/lv_core/lv_indev.c:378:1
	bx	lr
.Ltmp450:
.Lfunc_end22:
	.size	lv_indev_wait_release, .Lfunc_end22-lv_indev_wait_release
	.cfi_endproc
	.cantunwind
	.fnend
                                        @ -- End function
	.section	.text.lv_indev_get_obj_act,"ax",%progbits
	.hidden	lv_indev_get_obj_act            @ -- Begin function lv_indev_get_obj_act
	.globl	lv_indev_get_obj_act
	.p2align	3
	.type	lv_indev_get_obj_act,%function
	.code	16                              @ @lv_indev_get_obj_act
	.thumb_func
lv_indev_get_obj_act:
.Lfunc_begin23:
	.loc	14 385 0                        @ lvgl/src/lv_core/lv_indev.c:385:0
	.fnstart
	.cfi_startproc
@ %bb.0:
	.loc	14 386 12 prologue_end          @ lvgl/src/lv_core/lv_indev.c:386:12
	movw	r0, :lower16:indev_obj_act
	movt	r0, :upper16:indev_obj_act
	ldr	r0, [r0]
	.loc	14 386 5 is_stmt 0              @ lvgl/src/lv_core/lv_indev.c:386:5
	bx	lr
.Ltmp451:
.Lfunc_end23:
	.size	lv_indev_get_obj_act, .Lfunc_end23-lv_indev_get_obj_act
	.cfi_endproc
	.cantunwind
	.fnend
                                        @ -- End function
	.section	.text.lv_indev_get_read_task,"ax",%progbits
	.hidden	lv_indev_get_read_task          @ -- Begin function lv_indev_get_read_task
	.globl	lv_indev_get_read_task
	.p2align	3
	.type	lv_indev_get_read_task,%function
	.code	16                              @ @lv_indev_get_read_task
	.thumb_func
lv_indev_get_read_task:
.Lfunc_begin24:
	.loc	14 396 0 is_stmt 1              @ lvgl/src/lv_core/lv_indev.c:396:0
	.fnstart
	.cfi_startproc
@ %bb.0:
	@DEBUG_VALUE: lv_indev_get_read_task:indev <- $r0
	@DEBUG_VALUE: lv_indev_get_read_task:indev <- $r0
	.loc	14 397 8 prologue_end           @ lvgl/src/lv_core/lv_indev.c:397:8
	cmp	r0, #0
	.loc	14 402 19                       @ lvgl/src/lv_core/lv_indev.c:402:19
	ite	ne
	ldrne	r0, [r0, #44]
.Ltmp452:
	@DEBUG_VALUE: lv_indev_get_read_task:indev <- [DW_OP_LLVM_entry_value 1] $r0
	.loc	14 0 19 is_stmt 0               @ lvgl/src/lv_core/lv_indev.c:0:19
	moveq	r0, #0
	.loc	14 403 1 is_stmt 1              @ lvgl/src/lv_core/lv_indev.c:403:1
	bx	lr
.Ltmp453:
.Lfunc_end24:
	.size	lv_indev_get_read_task, .Lfunc_end24-lv_indev_get_read_task
	.cfi_endproc
	.cantunwind
	.fnend
                                        @ -- End function
	.section	.text.lv_indev_search_obj,"ax",%progbits
	.hidden	lv_indev_search_obj             @ -- Begin function lv_indev_search_obj
	.globl	lv_indev_search_obj
	.p2align	3
	.type	lv_indev_search_obj,%function
	.code	16                              @ @lv_indev_search_obj
	.thumb_func
lv_indev_search_obj:
.Lfunc_begin25:
	.loc	14 1148 0                       @ lvgl/src/lv_core/lv_indev.c:1148:0
	.fnstart
	.cfi_startproc
@ %bb.0:
	@DEBUG_VALUE: lv_indev_search_obj:obj <- $r0
	@DEBUG_VALUE: lv_indev_search_obj:point <- $r1
	.save	{r4, r5, r6, r7, r8, lr}
	push.w	{r4, r5, r6, r7, r8, lr}
	.cfi_def_cfa_offset 24
	.cfi_offset lr, -4
	.cfi_offset r8, -8
	.cfi_offset r7, -12
	.cfi_offset r6, -16
	.cfi_offset r5, -20
	.cfi_offset r4, -24
	mov	r5, r1
	mov	r8, r0
.Ltmp454:
	@DEBUG_VALUE: lv_indev_search_obj:found_p <- 0
	@DEBUG_VALUE: lv_indev_search_obj:point <- $r5
	@DEBUG_VALUE: lv_indev_search_obj:obj <- $r8
	.loc	14 1152 8 prologue_end          @ lvgl/src/lv_core/lv_indev.c:1152:8
	bl	lv_obj_hittest
.Ltmp455:
	.loc	14 1152 8 is_stmt 0             @ lvgl/src/lv_core/lv_indev.c:1152:8
	cmp	r0, #0
	beq	.LBB25_16
.Ltmp456:
@ %bb.1:
	@DEBUG_VALUE: lv_indev_search_obj:obj <- $r8
	@DEBUG_VALUE: lv_indev_search_obj:point <- $r5
	@DEBUG_VALUE: lv_indev_search_obj:found_p <- 0
	.loc	14 1155 9 is_stmt 1             @ lvgl/src/lv_core/lv_indev.c:1155:9
	add.w	r7, r8, #4
	mov	r0, r7
	bl	_lv_ll_get_head
.Ltmp457:
	@DEBUG_VALUE: i <- $r0
	@DEBUG_VALUE: lv_indev_search_obj:found_p <- 0
	cbz	r0, .LBB25_5
.Ltmp458:
@ %bb.2:
	@DEBUG_VALUE: lv_indev_search_obj:obj <- $r8
	@DEBUG_VALUE: lv_indev_search_obj:point <- $r5
	@DEBUG_VALUE: i <- $r0
	@DEBUG_VALUE: lv_indev_search_obj:found_p <- 0
	.loc	14 0 9 is_stmt 0                @ lvgl/src/lv_core/lv_indev.c:0:9
	mov	r4, r0
.Ltmp459:
	@DEBUG_VALUE: i <- $r4
	@DEBUG_VALUE: i <- $r4
	.p2align	2
.LBB25_3:                               @ =>This Inner Loop Header: Depth=1
	@DEBUG_VALUE: lv_indev_search_obj:obj <- $r8
	@DEBUG_VALUE: lv_indev_search_obj:point <- $r5
	@DEBUG_VALUE: i <- $r4
	@DEBUG_VALUE: lv_indev_search_obj:found_p <- 0
	@DEBUG_VALUE: i <- $r4
	.loc	14 1156 23 is_stmt 1            @ lvgl/src/lv_core/lv_indev.c:1156:23
	mov	r0, r4
	mov	r1, r5
	bl	lv_indev_search_obj
.Ltmp460:
	@DEBUG_VALUE: lv_indev_search_obj:found_p <- $r0
	.loc	14 1159 16                      @ lvgl/src/lv_core/lv_indev.c:1159:16
	cbnz	r0, .LBB25_7
.Ltmp461:
@ %bb.4:                                @   in Loop: Header=BB25_3 Depth=1
	@DEBUG_VALUE: lv_indev_search_obj:obj <- $r8
	@DEBUG_VALUE: lv_indev_search_obj:point <- $r5
	@DEBUG_VALUE: i <- $r4
	@DEBUG_VALUE: lv_indev_search_obj:found_p <- $r0
	.loc	14 1155 9                       @ lvgl/src/lv_core/lv_indev.c:1155:9
	mov	r0, r7
.Ltmp462:
	mov	r1, r4
	bl	_lv_ll_get_next
	mov	r4, r0
.Ltmp463:
	@DEBUG_VALUE: i <- $r4
	@DEBUG_VALUE: lv_indev_search_obj:found_p <- 0
	.loc	14 1155 9 is_stmt 0             @ lvgl/src/lv_core/lv_indev.c:1155:9
	cmp	r0, #0
	bne	.LBB25_3
.Ltmp464:
.LBB25_5:
	@DEBUG_VALUE: lv_indev_search_obj:obj <- $r8
	@DEBUG_VALUE: lv_indev_search_obj:point <- $r5
	@DEBUG_VALUE: lv_indev_search_obj:found_p <- 0
	.loc	14 0 9                          @ lvgl/src/lv_core/lv_indev.c:0:9
	movs	r6, #0
.Ltmp465:
	@DEBUG_VALUE: lv_indev_search_obj:found_p <- $r6
	.loc	14 1166 28 is_stmt 1            @ lvgl/src/lv_core/lv_indev.c:1166:28
	cbz	r6, .LBB25_8
.Ltmp466:
.LBB25_6:
	@DEBUG_VALUE: lv_indev_search_obj:obj <- $r8
	@DEBUG_VALUE: lv_indev_search_obj:found_p <- $r6
	.loc	14 1182 5                       @ lvgl/src/lv_core/lv_indev.c:1182:5
	mov	r0, r6
	pop.w	{r4, r5, r6, r7, r8, pc}
.Ltmp467:
.LBB25_7:
	@DEBUG_VALUE: lv_indev_search_obj:obj <- $r8
	@DEBUG_VALUE: lv_indev_search_obj:point <- $r5
	@DEBUG_VALUE: i <- $r4
	@DEBUG_VALUE: lv_indev_search_obj:found_p <- $r0
	.loc	14 0 5 is_stmt 0                @ lvgl/src/lv_core/lv_indev.c:0:5
	mov	r6, r0
.Ltmp468:
	@DEBUG_VALUE: lv_indev_search_obj:found_p <- $r6
	@DEBUG_VALUE: lv_indev_search_obj:found_p <- $r6
	@DEBUG_VALUE: lv_indev_search_obj:found_p <- $r6
	.loc	14 1166 28 is_stmt 1            @ lvgl/src/lv_core/lv_indev.c:1166:28
	cmp	r6, #0
	bne	.LBB25_6
.Ltmp469:
.LBB25_8:
	@DEBUG_VALUE: lv_indev_search_obj:obj <- $r8
	@DEBUG_VALUE: lv_indev_search_obj:found_p <- $r6
	@DEBUG_VALUE: lv_indev_search_obj:point <- $r5
	.loc	14 1166 31 is_stmt 0            @ lvgl/src/lv_core/lv_indev.c:1166:31
	mov	r0, r8
	bl	lv_obj_get_click
.Ltmp470:
	.loc	14 1166 12                      @ lvgl/src/lv_core/lv_indev.c:1166:12
	cbz	r0, .LBB25_16
.Ltmp471:
@ %bb.9:
	@DEBUG_VALUE: lv_indev_search_obj:obj <- $r8
	@DEBUG_VALUE: lv_indev_search_obj:found_p <- $r6
	@DEBUG_VALUE: lv_indev_search_obj:point <- $r5
	@DEBUG_VALUE: hidden_i <- $r8
	.loc	14 1168 28 is_stmt 1            @ lvgl/src/lv_core/lv_indev.c:1168:28
	clz	r0, r8
	.loc	14 1168 13 is_stmt 0            @ lvgl/src/lv_core/lv_indev.c:1168:13
	cmp.w	r8, #0
	.loc	14 1168 28                      @ lvgl/src/lv_core/lv_indev.c:1168:28
	lsr.w	r5, r0, #5
.Ltmp472:
	.loc	14 1168 13                      @ lvgl/src/lv_core/lv_indev.c:1168:13
	beq	.LBB25_14
.Ltmp473:
@ %bb.10:
	@DEBUG_VALUE: hidden_i <- $r8
	@DEBUG_VALUE: lv_indev_search_obj:obj <- $r8
	@DEBUG_VALUE: lv_indev_search_obj:found_p <- $r6
	@DEBUG_VALUE: hidden_i <- $r8
	.loc	14 1169 20 is_stmt 1            @ lvgl/src/lv_core/lv_indev.c:1169:20
	mov	r0, r8
	bl	lv_obj_get_hidden
.Ltmp474:
	.loc	14 1169 20 is_stmt 0            @ lvgl/src/lv_core/lv_indev.c:1169:20
	cbnz	r0, .LBB25_14
.Ltmp475:
@ %bb.11:
	@DEBUG_VALUE: hidden_i <- $r8
	@DEBUG_VALUE: lv_indev_search_obj:obj <- $r8
	@DEBUG_VALUE: lv_indev_search_obj:found_p <- $r6
	.loc	14 0 20                         @ lvgl/src/lv_core/lv_indev.c:0:20
	mov	r4, r8
.Ltmp476:
	.p2align	2
.LBB25_12:                              @ =>This Inner Loop Header: Depth=1
	@DEBUG_VALUE: lv_indev_search_obj:obj <- $r8
	@DEBUG_VALUE: lv_indev_search_obj:found_p <- $r6
	@DEBUG_VALUE: hidden_i <- $r4
	.loc	14 1170 28 is_stmt 1            @ lvgl/src/lv_core/lv_indev.c:1170:28
	mov	r0, r4
	bl	lv_obj_get_parent
	mov	r4, r0
.Ltmp477:
	@DEBUG_VALUE: hidden_i <- $r4
	.loc	14 1168 28                      @ lvgl/src/lv_core/lv_indev.c:1168:28
	clz	r0, r0
	lsr.w	r5, r0, #5
	.loc	14 1168 13 is_stmt 0            @ lvgl/src/lv_core/lv_indev.c:1168:13
	cbz	r4, .LBB25_14
.Ltmp478:
@ %bb.13:                               @   in Loop: Header=BB25_12 Depth=1
	@DEBUG_VALUE: lv_indev_search_obj:obj <- $r8
	@DEBUG_VALUE: lv_indev_search_obj:found_p <- $r6
	@DEBUG_VALUE: hidden_i <- $r4
	@DEBUG_VALUE: hidden_i <- $r4
	.loc	14 1169 20 is_stmt 1            @ lvgl/src/lv_core/lv_indev.c:1169:20
	mov	r0, r4
	bl	lv_obj_get_hidden
.Ltmp479:
	.loc	14 1169 20 is_stmt 0            @ lvgl/src/lv_core/lv_indev.c:1169:20
	cmp	r0, #0
	beq	.LBB25_12
.Ltmp480:
.LBB25_14:
	@DEBUG_VALUE: lv_indev_search_obj:obj <- $r8
	@DEBUG_VALUE: lv_indev_search_obj:found_p <- $r6
	.loc	14 1173 16 is_stmt 1            @ lvgl/src/lv_core/lv_indev.c:1173:16
	movs	r1, #64
	mov	r0, r8
	bl	lv_obj_is_protected
.Ltmp481:
	.loc	14 1173 16 is_stmt 0            @ lvgl/src/lv_core/lv_indev.c:1173:16
	cbz	r0, .LBB25_17
.Ltmp482:
@ %bb.15:
	@DEBUG_VALUE: lv_indev_search_obj:obj <- $r8
	@DEBUG_VALUE: lv_indev_search_obj:found_p <- $r6
	.loc	14 1177 20 is_stmt 1            @ lvgl/src/lv_core/lv_indev.c:1177:20
	cmp	r5, #0
	it	eq
	moveq	r8, r5
.Ltmp483:
	.loc	14 0 0 is_stmt 0                @ lvgl/src/lv_core/lv_indev.c:0:0
	mov	r6, r8
.Ltmp484:
	@DEBUG_VALUE: lv_indev_search_obj:found_p <- $r6
	.loc	14 1182 5 is_stmt 1             @ lvgl/src/lv_core/lv_indev.c:1182:5
	mov	r0, r6
	pop.w	{r4, r5, r6, r7, r8, pc}
.Ltmp485:
.LBB25_16:
	@DEBUG_VALUE: lv_indev_search_obj:obj <- $r8
	@DEBUG_VALUE: lv_indev_search_obj:point <- $r5
	.loc	14 0 5 is_stmt 0                @ lvgl/src/lv_core/lv_indev.c:0:5
	movs	r6, #0
.Ltmp486:
	@DEBUG_VALUE: lv_indev_search_obj:found_p <- $r6
	.loc	14 1182 5                       @ lvgl/src/lv_core/lv_indev.c:1182:5
	mov	r0, r6
	pop.w	{r4, r5, r6, r7, r8, pc}
.Ltmp487:
.LBB25_17:
	@DEBUG_VALUE: lv_indev_search_obj:obj <- $r8
	@DEBUG_VALUE: lv_indev_search_obj:found_p <- $r6
	.loc	14 1174 37 is_stmt 1            @ lvgl/src/lv_core/lv_indev.c:1174:37
	cmp	r5, #0
	mov.w	r6, #0
.Ltmp488:
	beq	.LBB25_6
.Ltmp489:
@ %bb.18:
	@DEBUG_VALUE: lv_indev_search_obj:obj <- $r8
	.loc	14 1174 41 is_stmt 0            @ lvgl/src/lv_core/lv_indev.c:1174:41
	movs	r1, #0
	mov	r0, r8
	bl	lv_obj_get_state
.Ltmp490:
	.loc	14 1174 20                      @ lvgl/src/lv_core/lv_indev.c:1174:20
	lsls	r0, r0, #26
	it	pl
	movpl	r6, r8
.Ltmp491:
	@DEBUG_VALUE: lv_indev_search_obj:obj <- $r6
	mov	r0, r6
	pop.w	{r4, r5, r6, r7, r8, pc}
.Ltmp492:
.Lfunc_end25:
	.size	lv_indev_search_obj, .Lfunc_end25-lv_indev_search_obj
	.cfi_endproc
	.cantunwind
	.fnend
                                        @ -- End function
	.section	.text.indev_proc_press,"ax",%progbits
	.p2align	3                               @ -- Begin function indev_proc_press
	.type	indev_proc_press,%function
	.code	16                              @ @indev_proc_press
	.thumb_func
indev_proc_press:
.Lfunc_begin26:
	.loc	14 864 0 is_stmt 1              @ lvgl/src/lv_core/lv_indev.c:864:0
	.fnstart
	.cfi_startproc
@ %bb.0:
	@DEBUG_VALUE: indev_proc_press:proc <- $r0
	.save	{r4, r5, r6, r7, r8, lr}
	push.w	{r4, r5, r6, r7, r8, lr}
	.cfi_def_cfa_offset 24
	.cfi_offset lr, -4
	.cfi_offset r8, -8
	.cfi_offset r7, -12
	.cfi_offset r6, -16
	.cfi_offset r5, -20
	.cfi_offset r4, -24
	mov	r4, r0
.Ltmp493:
	@DEBUG_VALUE: indev_proc_press:proc <- $r4
	.loc	14 867 14 prologue_end          @ lvgl/src/lv_core/lv_indev.c:867:14
	ldrb.w	r0, [r0, #52]
.Ltmp494:
	.loc	14 865 19                       @ lvgl/src/lv_core/lv_indev.c:865:19
	movw	r7, :lower16:indev_obj_act
	movt	r7, :upper16:indev_obj_act
	.loc	14 867 8                        @ lvgl/src/lv_core/lv_indev.c:867:8
	lsls	r0, r0, #28
	.loc	14 865 41                       @ lvgl/src/lv_core/lv_indev.c:865:41
	ldr	r0, [r4, #24]
	.loc	14 865 19 is_stmt 0             @ lvgl/src/lv_core/lv_indev.c:865:19
	str	r0, [r7]
	.loc	14 867 8 is_stmt 1              @ lvgl/src/lv_core/lv_indev.c:867:8
	bmi.w	.LBB26_49
.Ltmp495:
@ %bb.1:
	@DEBUG_VALUE: indev_proc_press:proc <- $r4
	.loc	14 869 24                       @ lvgl/src/lv_core/lv_indev.c:869:24
	movw	r8, :lower16:indev_act
	movt	r8, :upper16:indev_act
	.loc	14 0 0 is_stmt 0                @ lvgl/src/lv_core/lv_indev.c:0:0
	add.w	r5, r4, #4
	.loc	14 869 24                       @ lvgl/src/lv_core/lv_indev.c:869:24
	ldr.w	r1, [r8]
	.loc	14 869 42                       @ lvgl/src/lv_core/lv_indev.c:869:42
	ldr	r6, [r1, #12]
.Ltmp496:
	@DEBUG_VALUE: indev_proc_press:new_obj_searched <- 0
	@DEBUG_VALUE: indev_proc_press:disp <- $r6
	.loc	14 873 8 is_stmt 1              @ lvgl/src/lv_core/lv_indev.c:873:8
	cbz	r0, .LBB26_4
.Ltmp497:
@ %bb.2:
	@DEBUG_VALUE: indev_proc_press:disp <- $r6
	@DEBUG_VALUE: indev_proc_press:proc <- $r4
	@DEBUG_VALUE: indev_proc_press:new_obj_searched <- 0
	.loc	14 882 33                       @ lvgl/src/lv_core/lv_indev.c:882:33
	ldrb.w	r1, [r4, #42]
	.loc	14 882 51 is_stmt 0             @ lvgl/src/lv_core/lv_indev.c:882:51
	lsls	r1, r1, #30
	bmi	.LBB26_10
.Ltmp498:
@ %bb.3:
	@DEBUG_VALUE: indev_proc_press:disp <- $r6
	@DEBUG_VALUE: indev_proc_press:proc <- $r4
	@DEBUG_VALUE: indev_proc_press:new_obj_searched <- 0
	.loc	14 883 13 is_stmt 1             @ lvgl/src/lv_core/lv_indev.c:883:13
	movs	r1, #16
	bl	lv_obj_is_protected
.Ltmp499:
	.loc	14 882 13                       @ lvgl/src/lv_core/lv_indev.c:882:13
	cbnz	r0, .LBB26_10
.Ltmp500:
.LBB26_4:
	@DEBUG_VALUE: indev_proc_press:disp <- $r6
	@DEBUG_VALUE: indev_proc_press:proc <- $r4
	@DEBUG_VALUE: indev_proc_press:new_obj_searched <- 0
	.loc	14 0 0 is_stmt 0                @ lvgl/src/lv_core/lv_indev.c:0:0
	mov	r0, r6
	bl	lv_disp_get_layer_sys
	mov	r1, r5
	bl	lv_indev_search_obj
	str	r0, [r7]
	cbnz	r0, .LBB26_6
.Ltmp501:
@ %bb.5:
	@DEBUG_VALUE: indev_proc_press:disp <- $r6
	@DEBUG_VALUE: indev_proc_press:proc <- $r4
	@DEBUG_VALUE: indev_proc_press:new_obj_searched <- 0
	mov	r0, r6
	bl	lv_disp_get_layer_top
	mov	r1, r5
	bl	lv_indev_search_obj
	str	r0, [r7]
.Ltmp502:
.LBB26_6:
	@DEBUG_VALUE: indev_proc_press:disp <- $r6
	@DEBUG_VALUE: indev_proc_press:proc <- $r4
	@DEBUG_VALUE: indev_proc_press:new_obj_searched <- 0
	ldr	r0, [r7]
	cbnz	r0, .LBB26_8
.Ltmp503:
@ %bb.7:
	@DEBUG_VALUE: indev_proc_press:disp <- $r6
	@DEBUG_VALUE: indev_proc_press:proc <- $r4
	@DEBUG_VALUE: indev_proc_press:new_obj_searched <- 0
	mov	r0, r6
	bl	lv_disp_get_scr_act
	mov	r1, r5
	bl	lv_indev_search_obj
	str	r0, [r7]
.Ltmp504:
.LBB26_8:
	@DEBUG_VALUE: indev_proc_press:disp <- $r6
	@DEBUG_VALUE: indev_proc_press:proc <- $r4
	@DEBUG_VALUE: indev_proc_press:new_obj_searched <- 0
	@DEBUG_VALUE: indev_proc_press:new_obj_searched <- undef
	.loc	14 896 48 is_stmt 1             @ lvgl/src/lv_core/lv_indev.c:896:48
	ldr	r0, [r4, #28]
.Ltmp505:
	.loc	14 896 8 is_stmt 0              @ lvgl/src/lv_core/lv_indev.c:896:8
	cbz	r0, .LBB26_10
.Ltmp506:
@ %bb.9:
	@DEBUG_VALUE: indev_proc_press:disp <- $r6
	@DEBUG_VALUE: indev_proc_press:proc <- $r4
	.loc	14 0 8                          @ lvgl/src/lv_core/lv_indev.c:0:8
	movs	r0, #0
.Ltmp507:
	.loc	14 897 47 is_stmt 1             @ lvgl/src/lv_core/lv_indev.c:897:47
	str	r0, [r4, #20]
	.loc	14 899 9                        @ lvgl/src/lv_core/lv_indev.c:899:9
	mov	r0, r4
	bl	indev_drag_throw
.Ltmp508:
.LBB26_10:
	@DEBUG_VALUE: indev_proc_press:disp <- $r6
	@DEBUG_VALUE: indev_proc_press:proc <- $r4
	.loc	14 903 8                        @ lvgl/src/lv_core/lv_indev.c:903:8
	ldr	r0, [r7]
	.loc	14 903 45 is_stmt 0             @ lvgl/src/lv_core/lv_indev.c:903:45
	ldr	r5, [r4, #24]
.Ltmp509:
	.loc	14 903 8                        @ lvgl/src/lv_core/lv_indev.c:903:8
	cmp	r0, r5
	beq	.LBB26_24
.Ltmp510:
@ %bb.11:
	@DEBUG_VALUE: indev_proc_press:disp <- $r6
	@DEBUG_VALUE: indev_proc_press:proc <- $r4
	.loc	14 904 74 is_stmt 1             @ lvgl/src/lv_core/lv_indev.c:904:74
	ldr	r0, [r4, #4]
	.loc	14 904 42 is_stmt 0             @ lvgl/src/lv_core/lv_indev.c:904:42
	str	r0, [r4, #8]
	.loc	14 908 12 is_stmt 1             @ lvgl/src/lv_core/lv_indev.c:908:12
	cbz	r5, .LBB26_14
.Ltmp511:
@ %bb.12:
	@DEBUG_VALUE: indev_proc_press:disp <- $r6
	@DEBUG_VALUE: indev_proc_press:proc <- $r4
	@DEBUG_VALUE: last_obj <- $r5
	.loc	14 912 23                       @ lvgl/src/lv_core/lv_indev.c:912:23
	ldr	r3, [r5, #28]
	.loc	14 912 65 is_stmt 0             @ lvgl/src/lv_core/lv_indev.c:912:65
	ldr.w	r2, [r8]
	.loc	14 912 13                       @ lvgl/src/lv_core/lv_indev.c:912:13
	movs	r1, #13
	mov	r0, r5
	blx	r3
.Ltmp512:
	.loc	14 913 16 is_stmt 1             @ lvgl/src/lv_core/lv_indev.c:913:16
	mov	r0, r4
	bl	indev_reset_check
.Ltmp513:
	.loc	14 913 16 is_stmt 0             @ lvgl/src/lv_core/lv_indev.c:913:16
	cmp	r0, #0
	bne.w	.LBB26_49
.Ltmp514:
@ %bb.13:
	@DEBUG_VALUE: indev_proc_press:disp <- $r6
	@DEBUG_VALUE: last_obj <- $r5
	@DEBUG_VALUE: indev_proc_press:proc <- $r4
	.loc	14 914 13 is_stmt 1             @ lvgl/src/lv_core/lv_indev.c:914:13
	movs	r1, #2
	movs	r2, #0
	mov	r0, r5
	bl	lv_event_send
.Ltmp515:
	.loc	14 915 16                       @ lvgl/src/lv_core/lv_indev.c:915:16
	mov	r0, r4
	bl	indev_reset_check
.Ltmp516:
	.loc	14 915 16 is_stmt 0             @ lvgl/src/lv_core/lv_indev.c:915:16
	cmp	r0, #0
	bne.w	.LBB26_49
.Ltmp517:
.LBB26_14:
	@DEBUG_VALUE: indev_proc_press:disp <- $r6
	@DEBUG_VALUE: indev_proc_press:proc <- $r4
	.loc	14 919 40 is_stmt 1             @ lvgl/src/lv_core/lv_indev.c:919:40
	ldr	r0, [r7]
	.loc	14 919 38 is_stmt 0             @ lvgl/src/lv_core/lv_indev.c:919:38
	str	r0, [r4, #24]
	.loc	14 922 12 is_stmt 1             @ lvgl/src/lv_core/lv_indev.c:922:12
	cmp	r0, #0
	.loc	14 920 38                       @ lvgl/src/lv_core/lv_indev.c:920:38
	str	r0, [r4, #28]
	.loc	14 922 12                       @ lvgl/src/lv_core/lv_indev.c:922:12
	beq	.LBB26_24
.Ltmp518:
@ %bb.15:
	@DEBUG_VALUE: indev_proc_press:disp <- $r6
	@DEBUG_VALUE: indev_proc_press:proc <- $r4
	.loc	14 924 50                       @ lvgl/src/lv_core/lv_indev.c:924:50
	bl	lv_tick_get
	.loc	14 924 48 is_stmt 0             @ lvgl/src/lv_core/lv_indev.c:924:48
	str	r0, [r4, #44]
	.loc	14 926 48 is_stmt 1             @ lvgl/src/lv_core/lv_indev.c:926:48
	ldrb.w	r0, [r4, #42]
	.loc	14 925 48                       @ lvgl/src/lv_core/lv_indev.c:925:48
	ldrb.w	r1, [r4, #52]
	movs	r5, #0
	.loc	14 930 42                       @ lvgl/src/lv_core/lv_indev.c:930:42
	and	r0, r0, #192
	.loc	14 932 48                       @ lvgl/src/lv_core/lv_indev.c:932:48
	str.w	r5, [r4, #38]
	.loc	14 930 42                       @ lvgl/src/lv_core/lv_indev.c:930:42
	adds	r0, #12
	.loc	14 931 48                       @ lvgl/src/lv_core/lv_indev.c:931:48
	strb.w	r0, [r4, #42]
	.loc	14 938 35                       @ lvgl/src/lv_core/lv_indev.c:938:35
	ldr	r0, [r7]
.Ltmp519:
	@DEBUG_VALUE: last_top <- 0
	@DEBUG_VALUE: i <- $r0
	.loc	14 925 48                       @ lvgl/src/lv_core/lv_indev.c:925:48
	and	r1, r1, #254
	strb.w	r1, [r4, #52]
	.loc	14 934 48                       @ lvgl/src/lv_core/lv_indev.c:934:48
	str	r5, [r4, #12]
	.loc	14 928 48                       @ lvgl/src/lv_core/lv_indev.c:928:48
	str	r5, [r4, #16]
	.loc	14 940 13                       @ lvgl/src/lv_core/lv_indev.c:940:13
	cbz	r0, .LBB26_18
.Ltmp520:
@ %bb.16:
	@DEBUG_VALUE: indev_proc_press:disp <- $r6
	@DEBUG_VALUE: indev_proc_press:proc <- $r4
	@DEBUG_VALUE: i <- $r0
	@DEBUG_VALUE: last_top <- 0
	.loc	14 0 13 is_stmt 0               @ lvgl/src/lv_core/lv_indev.c:0:13
	movs	r5, #0
.Ltmp521:
	.p2align	2
.LBB26_17:                              @ =>This Inner Loop Header: Depth=1
	@DEBUG_VALUE: indev_proc_press:disp <- $r6
	@DEBUG_VALUE: indev_proc_press:proc <- $r4
	@DEBUG_VALUE: i <- $r0
	@DEBUG_VALUE: i <- $r0
	@DEBUG_VALUE: last_top <- $r5
	.loc	14 941 23 is_stmt 1             @ lvgl/src/lv_core/lv_indev.c:941:23
	ldrb.w	r1, [r0, #52]
.Ltmp522:
	.loc	14 941 20 is_stmt 0             @ lvgl/src/lv_core/lv_indev.c:941:20
	lsls	r1, r1, #26
	it	mi
	movmi	r5, r0
.Ltmp523:
	@DEBUG_VALUE: last_top <- $r5
	.loc	14 942 21 is_stmt 1             @ lvgl/src/lv_core/lv_indev.c:942:21
	bl	lv_obj_get_parent
.Ltmp524:
	@DEBUG_VALUE: i <- $r0
	.loc	14 940 13                       @ lvgl/src/lv_core/lv_indev.c:940:13
	cmp	r0, #0
	bne	.LBB26_17
.Ltmp525:
.LBB26_18:
	@DEBUG_VALUE: indev_proc_press:disp <- $r6
	@DEBUG_VALUE: indev_proc_press:proc <- $r4
	@DEBUG_VALUE: i <- $r0
	.loc	14 945 16                       @ lvgl/src/lv_core/lv_indev.c:945:16
	cbz	r5, .LBB26_20
.Ltmp526:
@ %bb.19:
	@DEBUG_VALUE: indev_proc_press:disp <- $r6
	@DEBUG_VALUE: indev_proc_press:proc <- $r4
	@DEBUG_VALUE: i <- $r0
	.loc	14 947 17                       @ lvgl/src/lv_core/lv_indev.c:947:17
	mov	r0, r5
.Ltmp527:
	bl	lv_obj_move_foreground
.Ltmp528:
.LBB26_20:
	@DEBUG_VALUE: indev_proc_press:disp <- $r6
	@DEBUG_VALUE: indev_proc_press:proc <- $r4
	.loc	14 951 13                       @ lvgl/src/lv_core/lv_indev.c:951:13
	ldr	r0, [r7]
	.loc	14 951 72 is_stmt 0             @ lvgl/src/lv_core/lv_indev.c:951:72
	ldr.w	r2, [r8]
	.loc	14 951 13                       @ lvgl/src/lv_core/lv_indev.c:951:13
	movs	r1, #11
	.loc	14 951 28                       @ lvgl/src/lv_core/lv_indev.c:951:28
	ldr	r3, [r0, #28]
	.loc	14 951 13                       @ lvgl/src/lv_core/lv_indev.c:951:13
	blx	r3
.Ltmp529:
	.loc	14 952 16 is_stmt 1             @ lvgl/src/lv_core/lv_indev.c:952:16
	mov	r0, r4
	bl	indev_reset_check
.Ltmp530:
	.loc	14 952 16 is_stmt 0             @ lvgl/src/lv_core/lv_indev.c:952:16
	cmp	r0, #0
	bne.w	.LBB26_49
.Ltmp531:
@ %bb.21:
	@DEBUG_VALUE: indev_proc_press:disp <- $r6
	@DEBUG_VALUE: indev_proc_press:proc <- $r4
	.loc	14 954 27 is_stmt 1             @ lvgl/src/lv_core/lv_indev.c:954:27
	ldr	r0, [r7]
	.loc	14 954 13 is_stmt 0             @ lvgl/src/lv_core/lv_indev.c:954:13
	movs	r1, #0
	movs	r2, #0
	bl	lv_event_send
.Ltmp532:
	.loc	14 955 16 is_stmt 1             @ lvgl/src/lv_core/lv_indev.c:955:16
	mov	r0, r4
	bl	indev_reset_check
.Ltmp533:
	.loc	14 955 16 is_stmt 0             @ lvgl/src/lv_core/lv_indev.c:955:16
	cmp	r0, #0
	bne.w	.LBB26_49
.Ltmp534:
@ %bb.22:
	@DEBUG_VALUE: indev_proc_press:disp <- $r6
	@DEBUG_VALUE: indev_proc_press:proc <- $r4
	.loc	14 957 16 is_stmt 1             @ lvgl/src/lv_core/lv_indev.c:957:16
	ldr.w	r0, [r8]
	.loc	14 957 32 is_stmt 0             @ lvgl/src/lv_core/lv_indev.c:957:32
	ldrb.w	r1, [r0, #80]
.Ltmp535:
	.loc	14 957 16                       @ lvgl/src/lv_core/lv_indev.c:957:16
	lsls	r1, r1, #28
	bmi.w	.LBB26_49
.Ltmp536:
@ %bb.23:
	@DEBUG_VALUE: indev_proc_press:disp <- $r6
	@DEBUG_VALUE: indev_proc_press:proc <- $r4
	.loc	14 957 27                       @ lvgl/src/lv_core/lv_indev.c:957:27
	adds	r0, #28
.Ltmp537:
	.loc	14 960 13 is_stmt 1             @ lvgl/src/lv_core/lv_indev.c:960:13
	bl	indev_click_focus
.Ltmp538:
	.loc	14 961 16                       @ lvgl/src/lv_core/lv_indev.c:961:16
	mov	r0, r4
	bl	indev_reset_check
.Ltmp539:
	.loc	14 961 16 is_stmt 0             @ lvgl/src/lv_core/lv_indev.c:961:16
	cmp	r0, #0
	bne.w	.LBB26_49
.Ltmp540:
.LBB26_24:
	@DEBUG_VALUE: indev_proc_press:disp <- $r6
	@DEBUG_VALUE: indev_proc_press:proc <- $r4
	.loc	14 967 64 is_stmt 1             @ lvgl/src/lv_core/lv_indev.c:967:64
	ldrh	r0, [r4, #4]
	.loc	14 967 99 is_stmt 0             @ lvgl/src/lv_core/lv_indev.c:967:99
	ldrh	r1, [r4, #8]
	.loc	14 968 64 is_stmt 1             @ lvgl/src/lv_core/lv_indev.c:968:64
	ldrh	r3, [r4, #6]
	.loc	14 968 99 is_stmt 0             @ lvgl/src/lv_core/lv_indev.c:968:99
	ldrh	r6, [r4, #10]
.Ltmp541:
	.loc	14 970 82 is_stmt 1             @ lvgl/src/lv_core/lv_indev.c:970:82
	ldrsh.w	r5, [r4, #20]
	.loc	14 967 66                       @ lvgl/src/lv_core/lv_indev.c:967:66
	subs	r1, r0, r1
	.loc	14 968 66                       @ lvgl/src/lv_core/lv_indev.c:968:66
	subs	r0, r3, r6
	.loc	14 971 82                       @ lvgl/src/lv_core/lv_indev.c:971:82
	ldrsh.w	r3, [r4, #22]
	movw	r2, #65535
	.loc	14 967 32                       @ lvgl/src/lv_core/lv_indev.c:967:32
	strh	r1, [r4, #12]
	.loc	14 970 84                       @ lvgl/src/lv_core/lv_indev.c:970:84
	add.w	r5, r5, r5, lsl #2
	.loc	14 968 32                       @ lvgl/src/lv_core/lv_indev.c:968:32
	strh	r0, [r4, #14]
	.loc	14 970 89                       @ lvgl/src/lv_core/lv_indev.c:970:89
	lsrs	r6, r5, #3
	.loc	14 970 43 is_stmt 0             @ lvgl/src/lv_core/lv_indev.c:970:43
	strh	r6, [r4, #20]
	.loc	14 970 45                       @ lvgl/src/lv_core/lv_indev.c:970:45
	asrs	r5, r5, #3
	.loc	14 971 84 is_stmt 1             @ lvgl/src/lv_core/lv_indev.c:971:84
	add.w	r3, r3, r3, lsl #2
	.loc	14 973 8                        @ lvgl/src/lv_core/lv_indev.c:973:8
	cmp	r5, #0
	.loc	14 971 89                       @ lvgl/src/lv_core/lv_indev.c:971:89
	lsr.w	r3, r3, #3
	.loc	14 971 43 is_stmt 0             @ lvgl/src/lv_core/lv_indev.c:971:43
	strh	r3, [r4, #22]
	.loc	14 973 8 is_stmt 1              @ lvgl/src/lv_core/lv_indev.c:973:8
	bmi	.LBB26_26
.Ltmp542:
@ %bb.25:
	@DEBUG_VALUE: indev_proc_press:proc <- $r4
	.loc	14 975 13                       @ lvgl/src/lv_core/lv_indev.c:975:13
	lsls	r5, r6, #16
	movw	r5, #65535
	bne	.LBB26_27
	b	.LBB26_28
.Ltmp543:
.LBB26_26:
	@DEBUG_VALUE: indev_proc_press:proc <- $r4
	.loc	14 0 13 is_stmt 0               @ lvgl/src/lv_core/lv_indev.c:0:13
	movs	r5, #1
.Ltmp544:
.LBB26_27:
	@DEBUG_VALUE: indev_proc_press:proc <- $r4
	add	r6, r5
	strh	r6, [r4, #20]
.Ltmp545:
.LBB26_28:
	@DEBUG_VALUE: indev_proc_press:proc <- $r4
	.loc	14 971 45 is_stmt 1             @ lvgl/src/lv_core/lv_indev.c:971:45
	sxth	r6, r3
	.loc	14 978 8                        @ lvgl/src/lv_core/lv_indev.c:978:8
	cmp	r6, #0
	bmi	.LBB26_30
.Ltmp546:
@ %bb.29:
	@DEBUG_VALUE: indev_proc_press:proc <- $r4
	.loc	14 980 13                       @ lvgl/src/lv_core/lv_indev.c:980:13
	lsls	r6, r3, #16
	bne	.LBB26_31
	b	.LBB26_32
.Ltmp547:
.LBB26_30:
	@DEBUG_VALUE: indev_proc_press:proc <- $r4
	.loc	14 0 13 is_stmt 0               @ lvgl/src/lv_core/lv_indev.c:0:13
	movs	r2, #1
.Ltmp548:
.LBB26_31:
	@DEBUG_VALUE: indev_proc_press:proc <- $r4
	add	r2, r3
	strh	r2, [r4, #22]
.Ltmp549:
.LBB26_32:
	@DEBUG_VALUE: indev_proc_press:proc <- $r4
	.loc	14 983 79 is_stmt 1             @ lvgl/src/lv_core/lv_indev.c:983:79
	sxth	r1, r1
	.loc	14 983 43 is_stmt 0             @ lvgl/src/lv_core/lv_indev.c:983:43
	ldrh	r2, [r4, #20]
	.loc	14 984 43 is_stmt 1             @ lvgl/src/lv_core/lv_indev.c:984:43
	ldrh	r3, [r4, #22]
	.loc	14 983 43                       @ lvgl/src/lv_core/lv_indev.c:983:43
	add.w	r1, r2, r1, lsr #1
	strh	r1, [r4, #20]
	.loc	14 984 79                       @ lvgl/src/lv_core/lv_indev.c:984:79
	sxth	r2, r0
.Ltmp550:
	.loc	14 987 8                        @ lvgl/src/lv_core/lv_indev.c:987:8
	ldr	r0, [r7]
.Ltmp551:
	.loc	14 987 8 is_stmt 0              @ lvgl/src/lv_core/lv_indev.c:987:8
	cmp	r0, #0
	.loc	14 984 43 is_stmt 1             @ lvgl/src/lv_core/lv_indev.c:984:43
	add.w	r1, r3, r2, lsr #1
	strh	r1, [r4, #22]
	.loc	14 987 8                        @ lvgl/src/lv_core/lv_indev.c:987:8
	beq	.LBB26_49
.Ltmp552:
@ %bb.33:
	@DEBUG_VALUE: indev_proc_press:proc <- $r4
	.loc	14 988 24                       @ lvgl/src/lv_core/lv_indev.c:988:24
	ldr	r3, [r0, #28]
	.loc	14 988 69 is_stmt 0             @ lvgl/src/lv_core/lv_indev.c:988:69
	ldr.w	r2, [r8]
	.loc	14 988 9                        @ lvgl/src/lv_core/lv_indev.c:988:9
	movs	r1, #12
	blx	r3
.Ltmp553:
	.loc	14 989 12 is_stmt 1             @ lvgl/src/lv_core/lv_indev.c:989:12
	mov	r0, r4
	bl	indev_reset_check
.Ltmp554:
	.loc	14 989 12 is_stmt 0             @ lvgl/src/lv_core/lv_indev.c:989:12
	cmp	r0, #0
	bne	.LBB26_49
.Ltmp555:
@ %bb.34:
	@DEBUG_VALUE: indev_proc_press:proc <- $r4
	.loc	14 990 23 is_stmt 1             @ lvgl/src/lv_core/lv_indev.c:990:23
	ldr	r0, [r7]
	.loc	14 990 9 is_stmt 0              @ lvgl/src/lv_core/lv_indev.c:990:9
	movs	r1, #1
	movs	r2, #0
	bl	lv_event_send
.Ltmp556:
	.loc	14 991 12 is_stmt 1             @ lvgl/src/lv_core/lv_indev.c:991:12
	mov	r0, r4
	bl	indev_reset_check
.Ltmp557:
	.loc	14 991 12 is_stmt 0             @ lvgl/src/lv_core/lv_indev.c:991:12
	cmp	r0, #0
	bne	.LBB26_49
.Ltmp558:
@ %bb.35:
	@DEBUG_VALUE: indev_proc_press:proc <- $r4
	.loc	14 992 12 is_stmt 1             @ lvgl/src/lv_core/lv_indev.c:992:12
	ldr.w	r0, [r8]
	.loc	14 992 28 is_stmt 0             @ lvgl/src/lv_core/lv_indev.c:992:28
	ldrb.w	r0, [r0, #80]
.Ltmp559:
	.loc	14 992 12                       @ lvgl/src/lv_core/lv_indev.c:992:12
	lsls	r0, r0, #28
	bmi	.LBB26_49
.Ltmp560:
@ %bb.36:
	@DEBUG_VALUE: indev_proc_press:proc <- $r4
	.loc	14 994 9 is_stmt 1              @ lvgl/src/lv_core/lv_indev.c:994:9
	mov	r0, r4
	bl	indev_drag
	.loc	14 995 9                        @ lvgl/src/lv_core/lv_indev.c:995:9
	mov	r0, r4
	bl	indev_gesture
.Ltmp561:
	.loc	14 996 12                       @ lvgl/src/lv_core/lv_indev.c:996:12
	mov	r0, r4
	bl	indev_reset_check
.Ltmp562:
	.loc	14 996 12 is_stmt 0             @ lvgl/src/lv_core/lv_indev.c:996:12
	cmp	r0, #0
	bne	.LBB26_49
.Ltmp563:
@ %bb.37:
	@DEBUG_VALUE: indev_proc_press:proc <- $r4
	.loc	14 999 32 is_stmt 1             @ lvgl/src/lv_core/lv_indev.c:999:32
	ldrb.w	r0, [r4, #42]
	.loc	14 999 50 is_stmt 0             @ lvgl/src/lv_core/lv_indev.c:999:50
	lsls	r0, r0, #30
	bmi	.LBB26_43
.Ltmp564:
@ %bb.38:
	@DEBUG_VALUE: indev_proc_press:proc <- $r4
	.loc	14 999 59                       @ lvgl/src/lv_core/lv_indev.c:999:59
	ldrb.w	r0, [r4, #52]
.Ltmp565:
	.loc	14 999 12                       @ lvgl/src/lv_core/lv_indev.c:999:12
	lsls	r0, r0, #31
	bne	.LBB26_43
.Ltmp566:
@ %bb.39:
	@DEBUG_VALUE: indev_proc_press:proc <- $r4
	.loc	14 1001 36 is_stmt 1            @ lvgl/src/lv_core/lv_indev.c:1001:36
	ldr	r0, [r4, #44]
	.loc	14 1001 16 is_stmt 0            @ lvgl/src/lv_core/lv_indev.c:1001:16
	bl	lv_tick_elaps
	.loc	14 1001 52                      @ lvgl/src/lv_core/lv_indev.c:1001:52
	ldr.w	r2, [r8]
	.loc	14 1001 70                      @ lvgl/src/lv_core/lv_indev.c:1001:70
	ldrh	r1, [r2, #24]
.Ltmp567:
	.loc	14 1001 16                      @ lvgl/src/lv_core/lv_indev.c:1001:16
	cmp	r0, r1
	bls	.LBB26_43
.Ltmp568:
@ %bb.40:
	@DEBUG_VALUE: indev_proc_press:proc <- $r4
	.loc	14 1002 17 is_stmt 1            @ lvgl/src/lv_core/lv_indev.c:1002:17
	ldr	r0, [r7]
	movs	r1, #15
	.loc	14 1002 32 is_stmt 0            @ lvgl/src/lv_core/lv_indev.c:1002:32
	ldr	r3, [r0, #28]
	.loc	14 1002 17                      @ lvgl/src/lv_core/lv_indev.c:1002:17
	blx	r3
.Ltmp569:
	.loc	14 1003 20 is_stmt 1            @ lvgl/src/lv_core/lv_indev.c:1003:20
	mov	r0, r4
	bl	indev_reset_check
.Ltmp570:
	.loc	14 1003 20 is_stmt 0            @ lvgl/src/lv_core/lv_indev.c:1003:20
	cbnz	r0, .LBB26_49
.Ltmp571:
@ %bb.41:
	@DEBUG_VALUE: indev_proc_press:proc <- $r4
	.loc	14 1004 31 is_stmt 1            @ lvgl/src/lv_core/lv_indev.c:1004:31
	ldr	r0, [r7]
	.loc	14 1004 17 is_stmt 0            @ lvgl/src/lv_core/lv_indev.c:1004:17
	movs	r1, #4
	movs	r2, #0
	bl	lv_event_send
.Ltmp572:
	.loc	14 1005 20 is_stmt 1            @ lvgl/src/lv_core/lv_indev.c:1005:20
	mov	r0, r4
	bl	indev_reset_check
.Ltmp573:
	.loc	14 1005 20 is_stmt 0            @ lvgl/src/lv_core/lv_indev.c:1005:20
	cbnz	r0, .LBB26_49
.Ltmp574:
@ %bb.42:
	@DEBUG_VALUE: indev_proc_press:proc <- $r4
	.loc	14 1008 36 is_stmt 1            @ lvgl/src/lv_core/lv_indev.c:1008:36
	ldrb.w	r0, [r4, #52]
	orr	r0, r0, #1
	strb.w	r0, [r4, #52]
	.loc	14 1011 46                      @ lvgl/src/lv_core/lv_indev.c:1011:46
	bl	lv_tick_get
	.loc	14 1011 44 is_stmt 0            @ lvgl/src/lv_core/lv_indev.c:1011:44
	str	r0, [r4, #48]
.Ltmp575:
.LBB26_43:
	@DEBUG_VALUE: indev_proc_press:proc <- $r4
	.loc	14 1015 32 is_stmt 1            @ lvgl/src/lv_core/lv_indev.c:1015:32
	ldrb.w	r0, [r4, #42]
	.loc	14 1015 50 is_stmt 0            @ lvgl/src/lv_core/lv_indev.c:1015:50
	lsls	r0, r0, #30
	bmi	.LBB26_49
.Ltmp576:
@ %bb.44:
	@DEBUG_VALUE: indev_proc_press:proc <- $r4
	.loc	14 1015 59                      @ lvgl/src/lv_core/lv_indev.c:1015:59
	ldrb.w	r0, [r4, #52]
.Ltmp577:
	.loc	14 1015 12                      @ lvgl/src/lv_core/lv_indev.c:1015:12
	lsls	r0, r0, #31
	beq	.LBB26_49
.Ltmp578:
@ %bb.45:
	@DEBUG_VALUE: indev_proc_press:proc <- $r4
	.loc	14 1017 36 is_stmt 1            @ lvgl/src/lv_core/lv_indev.c:1017:36
	ldr	r0, [r4, #48]
	.loc	14 1017 16 is_stmt 0            @ lvgl/src/lv_core/lv_indev.c:1017:16
	bl	lv_tick_elaps
	.loc	14 1017 60                      @ lvgl/src/lv_core/lv_indev.c:1017:60
	ldr.w	r2, [r8]
	.loc	14 1017 78                      @ lvgl/src/lv_core/lv_indev.c:1017:78
	ldrh	r1, [r2, #26]
.Ltmp579:
	.loc	14 1017 16                      @ lvgl/src/lv_core/lv_indev.c:1017:16
	cmp	r0, r1
	bls	.LBB26_49
.Ltmp580:
@ %bb.46:
	@DEBUG_VALUE: indev_proc_press:proc <- $r4
	.loc	14 1018 17 is_stmt 1            @ lvgl/src/lv_core/lv_indev.c:1018:17
	ldr	r0, [r7]
	movs	r1, #16
	.loc	14 1018 32 is_stmt 0            @ lvgl/src/lv_core/lv_indev.c:1018:32
	ldr	r3, [r0, #28]
	.loc	14 1018 17                      @ lvgl/src/lv_core/lv_indev.c:1018:17
	blx	r3
.Ltmp581:
	.loc	14 1019 20 is_stmt 1            @ lvgl/src/lv_core/lv_indev.c:1019:20
	mov	r0, r4
	bl	indev_reset_check
.Ltmp582:
	.loc	14 1019 20 is_stmt 0            @ lvgl/src/lv_core/lv_indev.c:1019:20
	cbnz	r0, .LBB26_49
.Ltmp583:
@ %bb.47:
	@DEBUG_VALUE: indev_proc_press:proc <- $r4
	.loc	14 1020 31 is_stmt 1            @ lvgl/src/lv_core/lv_indev.c:1020:31
	ldr	r0, [r7]
	.loc	14 1020 17 is_stmt 0            @ lvgl/src/lv_core/lv_indev.c:1020:17
	movs	r1, #5
	movs	r2, #0
	bl	lv_event_send
.Ltmp584:
	.loc	14 1021 20 is_stmt 1            @ lvgl/src/lv_core/lv_indev.c:1021:20
	mov	r0, r4
	bl	indev_reset_check
.Ltmp585:
	.loc	14 1021 20 is_stmt 0            @ lvgl/src/lv_core/lv_indev.c:1021:20
	cmp	r0, #0
.Ltmp586:
	.loc	14 1026 1 is_stmt 1             @ lvgl/src/lv_core/lv_indev.c:1026:1
	it	ne
	popne.w	{r4, r5, r6, r7, r8, pc}
.Ltmp587:
.LBB26_48:
	.loc	14 1022 46                      @ lvgl/src/lv_core/lv_indev.c:1022:46
	bl	lv_tick_get
	.loc	14 1022 44 is_stmt 0            @ lvgl/src/lv_core/lv_indev.c:1022:44
	str	r0, [r4, #48]
.Ltmp588:
.LBB26_49:
	.loc	14 1026 1 is_stmt 1             @ lvgl/src/lv_core/lv_indev.c:1026:1
	pop.w	{r4, r5, r6, r7, r8, pc}
.Ltmp589:
.Lfunc_end26:
	.size	indev_proc_press, .Lfunc_end26-indev_proc_press
	.cfi_endproc
	.cantunwind
	.fnend
                                        @ -- End function
	.section	.text.indev_proc_release,"ax",%progbits
	.p2align	3                               @ -- Begin function indev_proc_release
	.type	indev_proc_release,%function
	.code	16                              @ @indev_proc_release
	.thumb_func
indev_proc_release:
.Lfunc_begin27:
	.loc	14 1033 0                       @ lvgl/src/lv_core/lv_indev.c:1033:0
	.fnstart
	.cfi_startproc
@ %bb.0:
	@DEBUG_VALUE: indev_proc_release:proc <- $r0
	.save	{r4, r5, r6, r7, lr}
	push	{r4, r5, r6, r7, lr}
	.cfi_def_cfa_offset 20
	.cfi_offset lr, -4
	.cfi_offset r7, -8
	.cfi_offset r6, -12
	.cfi_offset r5, -16
	.cfi_offset r4, -20
	.pad	#4
	sub	sp, #4
	.cfi_def_cfa_offset 24
	mov	r4, r0
.Ltmp590:
	@DEBUG_VALUE: indev_proc_release:proc <- $r4
	.loc	14 1034 14 prologue_end         @ lvgl/src/lv_core/lv_indev.c:1034:14
	ldrb.w	r0, [r0, #52]
.Ltmp591:
	.loc	14 1034 8 is_stmt 0             @ lvgl/src/lv_core/lv_indev.c:1034:8
	lsls	r1, r0, #28
	bpl	.LBB27_2
.Ltmp592:
@ %bb.1:
	@DEBUG_VALUE: indev_proc_release:proc <- $r4
	.loc	14 0 8                          @ lvgl/src/lv_core/lv_indev.c:0:8
	movs	r1, #0
.Ltmp593:
	.loc	14 1039 38 is_stmt 1            @ lvgl/src/lv_core/lv_indev.c:1039:38
	and	r0, r0, #247
	.loc	14 1035 38                      @ lvgl/src/lv_core/lv_indev.c:1035:38
	strd	r1, r1, [r4, #24]
	.loc	14 1037 38                      @ lvgl/src/lv_core/lv_indev.c:1037:38
	strd	r1, r1, [r4, #44]
	.loc	14 1039 38                      @ lvgl/src/lv_core/lv_indev.c:1039:38
	strb.w	r0, [r4, #52]
.Ltmp594:
.LBB27_2:
	@DEBUG_VALUE: indev_proc_release:proc <- $r4
	.loc	14 1041 19                      @ lvgl/src/lv_core/lv_indev.c:1041:19
	movw	r7, :lower16:indev_obj_act
	.loc	14 1041 41 is_stmt 0            @ lvgl/src/lv_core/lv_indev.c:1041:41
	ldr	r0, [r4, #24]
	.loc	14 1041 19                      @ lvgl/src/lv_core/lv_indev.c:1041:19
	movt	r7, :upper16:indev_obj_act
	.loc	14 1044 8 is_stmt 1             @ lvgl/src/lv_core/lv_indev.c:1044:8
	cmp	r0, #0
	.loc	14 1041 19                      @ lvgl/src/lv_core/lv_indev.c:1041:19
	str	r0, [r7]
	.loc	14 1044 8                       @ lvgl/src/lv_core/lv_indev.c:1044:8
	beq	.LBB27_23
.Ltmp595:
@ %bb.3:
	@DEBUG_VALUE: indev_proc_release:proc <- $r4
	.loc	14 1050 12                      @ lvgl/src/lv_core/lv_indev.c:1050:12
	movs	r1, #16
	bl	lv_obj_is_protected
	mov	r5, r0
	.loc	14 0 0 is_stmt 0                @ lvgl/src/lv_core/lv_indev.c:0:0
	movw	r0, :lower16:indev_act
	ldr	r3, [r7]
	movt	r0, :upper16:indev_act
	movs	r1, #14
	ldr	r6, [r3, #28]
	ldr	r2, [r0]
	mov	r0, r3
	blx	r6
	mov	r0, r4
	bl	indev_reset_check
.Ltmp596:
	.loc	14 1050 12                      @ lvgl/src/lv_core/lv_indev.c:1050:12
	cbz	r5, .LBB27_8
.Ltmp597:
@ %bb.4:
	@DEBUG_VALUE: indev_proc_release:proc <- $r4
	.loc	14 1052 16 is_stmt 1            @ lvgl/src/lv_core/lv_indev.c:1052:16
	cmp	r0, #0
	bne	.LBB27_26
.Ltmp598:
@ %bb.5:
	@DEBUG_VALUE: indev_proc_release:proc <- $r4
	.loc	14 1054 36                      @ lvgl/src/lv_core/lv_indev.c:1054:36
	ldrb.w	r0, [r4, #42]
.Ltmp599:
	.loc	14 1054 16 is_stmt 0            @ lvgl/src/lv_core/lv_indev.c:1054:16
	lsls	r0, r0, #30
	bmi	.LBB27_14
.Ltmp600:
@ %bb.6:
	@DEBUG_VALUE: indev_proc_release:proc <- $r4
	.loc	14 1055 26 is_stmt 1            @ lvgl/src/lv_core/lv_indev.c:1055:26
	ldrb.w	r0, [r4, #52]
.Ltmp601:
	.loc	14 1055 20 is_stmt 0            @ lvgl/src/lv_core/lv_indev.c:1055:20
	lsls	r0, r0, #31
	bne	.LBB27_13
.Ltmp602:
@ %bb.7:
	@DEBUG_VALUE: indev_proc_release:proc <- $r4
	.loc	14 1056 35 is_stmt 1            @ lvgl/src/lv_core/lv_indev.c:1056:35
	ldr	r0, [r7]
	.loc	14 1056 21 is_stmt 0            @ lvgl/src/lv_core/lv_indev.c:1056:21
	movs	r1, #3
	movs	r2, #0
	bl	lv_event_send
.Ltmp603:
	.loc	14 1057 24 is_stmt 1            @ lvgl/src/lv_core/lv_indev.c:1057:24
	mov	r0, r4
	bl	indev_reset_check
.Ltmp604:
	.loc	14 1057 24 is_stmt 0            @ lvgl/src/lv_core/lv_indev.c:1057:24
	cmp	r0, #0
	bne	.LBB27_26
	b	.LBB27_13
.Ltmp605:
.LBB27_8:
	@DEBUG_VALUE: indev_proc_release:proc <- $r4
	.loc	14 1071 16 is_stmt 1            @ lvgl/src/lv_core/lv_indev.c:1071:16
	cmp	r0, #0
	bne	.LBB27_26
.Ltmp606:
@ %bb.9:
	@DEBUG_VALUE: indev_proc_release:proc <- $r4
	.loc	14 1073 22                      @ lvgl/src/lv_core/lv_indev.c:1073:22
	ldrb.w	r0, [r4, #52]
	.loc	14 1073 40 is_stmt 0            @ lvgl/src/lv_core/lv_indev.c:1073:40
	lsls	r0, r0, #31
	bne	.LBB27_12
.Ltmp607:
@ %bb.10:
	@DEBUG_VALUE: indev_proc_release:proc <- $r4
	.loc	14 1073 63                      @ lvgl/src/lv_core/lv_indev.c:1073:63
	ldrb.w	r0, [r4, #42]
.Ltmp608:
	.loc	14 1073 16                      @ lvgl/src/lv_core/lv_indev.c:1073:16
	lsls	r0, r0, #30
	bmi	.LBB27_12
.Ltmp609:
@ %bb.11:
	@DEBUG_VALUE: indev_proc_release:proc <- $r4
	.loc	14 1074 31 is_stmt 1            @ lvgl/src/lv_core/lv_indev.c:1074:31
	ldr	r0, [r7]
	.loc	14 1074 17 is_stmt 0            @ lvgl/src/lv_core/lv_indev.c:1074:17
	movs	r1, #3
	movs	r2, #0
	bl	lv_event_send
.Ltmp610:
	.loc	14 1075 20 is_stmt 1            @ lvgl/src/lv_core/lv_indev.c:1075:20
	mov	r0, r4
	bl	indev_reset_check
.Ltmp611:
	.loc	14 1075 20 is_stmt 0            @ lvgl/src/lv_core/lv_indev.c:1075:20
	cmp	r0, #0
	bne	.LBB27_26
.Ltmp612:
.LBB27_12:
	@DEBUG_VALUE: indev_proc_release:proc <- $r4
	.loc	14 1078 36 is_stmt 1            @ lvgl/src/lv_core/lv_indev.c:1078:36
	ldrb.w	r0, [r4, #42]
.Ltmp613:
	.loc	14 1078 16 is_stmt 0            @ lvgl/src/lv_core/lv_indev.c:1078:16
	lsls	r0, r0, #30
	bmi	.LBB27_14
.Ltmp614:
.LBB27_13:
	@DEBUG_VALUE: indev_proc_release:proc <- $r4
	.loc	14 0 0                          @ lvgl/src/lv_core/lv_indev.c:0:0
	ldr	r0, [r7]
	movs	r1, #6
	movs	r2, #0
	bl	lv_event_send
	mov	r0, r4
	bl	indev_reset_check
	cbnz	r0, .LBB27_26
.Ltmp615:
.LBB27_14:
	@DEBUG_VALUE: indev_proc_release:proc <- $r4
	ldr	r0, [r7]
	movs	r1, #7
	movs	r2, #0
	bl	lv_event_send
	mov	r0, r4
	bl	indev_reset_check
	cbnz	r0, .LBB27_26
.Ltmp616:
@ %bb.15:
	@DEBUG_VALUE: indev_proc_release:proc <- $r4
	.loc	14 1089 47 is_stmt 1            @ lvgl/src/lv_core/lv_indev.c:1089:47
	ldr	r0, [r7]
	.loc	14 1089 31 is_stmt 0            @ lvgl/src/lv_core/lv_indev.c:1089:31
	bl	get_dragged_obj
.Ltmp617:
	@DEBUG_VALUE: drag_obj <- $r0
	.loc	14 1090 12 is_stmt 1            @ lvgl/src/lv_core/lv_indev.c:1090:12
	cbz	r0, .LBB27_22
.Ltmp618:
@ %bb.16:
	@DEBUG_VALUE: indev_proc_release:proc <- $r4
	@DEBUG_VALUE: drag_obj <- $r0
	.loc	14 0 0 is_stmt 0                @ lvgl/src/lv_core/lv_indev.c:0:0
	mov	r5, r0
.Ltmp619:
	@DEBUG_VALUE: drag_obj <- $r5
	.loc	14 1091 16 is_stmt 1            @ lvgl/src/lv_core/lv_indev.c:1091:16
	bl	lv_obj_get_drag_throw
	.loc	14 1091 48 is_stmt 0            @ lvgl/src/lv_core/lv_indev.c:1091:48
	cbz	r0, .LBB27_22
.Ltmp620:
@ %bb.17:
	@DEBUG_VALUE: drag_obj <- $r5
	@DEBUG_VALUE: indev_proc_release:proc <- $r4
	.loc	14 1091 71                      @ lvgl/src/lv_core/lv_indev.c:1091:71
	ldrb.w	r0, [r4, #42]
.Ltmp621:
	.loc	14 1091 16                      @ lvgl/src/lv_core/lv_indev.c:1091:16
	lsls	r0, r0, #30
	bpl	.LBB27_22
.Ltmp622:
@ %bb.18:
	@DEBUG_VALUE: drag_obj <- $r5
	@DEBUG_VALUE: indev_proc_release:proc <- $r4
	.loc	14 1092 30 is_stmt 1            @ lvgl/src/lv_core/lv_indev.c:1092:30
	ldr	r3, [r5, #28]
.Ltmp623:
	.loc	14 1092 20 is_stmt 0            @ lvgl/src/lv_core/lv_indev.c:1092:20
	cbz	r3, .LBB27_20
.Ltmp624:
@ %bb.19:
	@DEBUG_VALUE: drag_obj <- $r5
	@DEBUG_VALUE: indev_proc_release:proc <- $r4
	.loc	14 1092 41                      @ lvgl/src/lv_core/lv_indev.c:1092:41
	movs	r1, #18
	movs	r2, #0
	mov	r0, r5
	blx	r3
.Ltmp625:
.LBB27_20:
	@DEBUG_VALUE: drag_obj <- $r5
	@DEBUG_VALUE: indev_proc_release:proc <- $r4
	.loc	14 1093 20 is_stmt 1            @ lvgl/src/lv_core/lv_indev.c:1093:20
	mov	r0, r4
	bl	indev_reset_check
.Ltmp626:
	.loc	14 1093 20 is_stmt 0            @ lvgl/src/lv_core/lv_indev.c:1093:20
	cbnz	r0, .LBB27_26
.Ltmp627:
@ %bb.21:
	@DEBUG_VALUE: drag_obj <- $r5
	@DEBUG_VALUE: indev_proc_release:proc <- $r4
	.loc	14 1095 17 is_stmt 1            @ lvgl/src/lv_core/lv_indev.c:1095:17
	movs	r1, #10
	movs	r2, #0
	mov	r0, r5
	bl	lv_event_send
.Ltmp628:
	.loc	14 1096 20                      @ lvgl/src/lv_core/lv_indev.c:1096:20
	mov	r0, r4
	bl	indev_reset_check
.Ltmp629:
	.loc	14 1096 20 is_stmt 0            @ lvgl/src/lv_core/lv_indev.c:1096:20
	cbnz	r0, .LBB27_26
.Ltmp630:
.LBB27_22:
	@DEBUG_VALUE: indev_proc_release:proc <- $r4
	.loc	14 0 20                         @ lvgl/src/lv_core/lv_indev.c:0:20
	movs	r0, #0
	.loc	14 1100 37 is_stmt 1            @ lvgl/src/lv_core/lv_indev.c:1100:37
	str	r0, [r4, #24]
	.loc	14 1101 37                      @ lvgl/src/lv_core/lv_indev.c:1101:37
	strd	r0, r0, [r4, #44]
.Ltmp631:
.LBB27_23:
	@DEBUG_VALUE: indev_proc_release:proc <- $r4
	.loc	14 1107 28                      @ lvgl/src/lv_core/lv_indev.c:1107:28
	ldr	r0, [r4, #28]
	.loc	14 1107 45 is_stmt 0            @ lvgl/src/lv_core/lv_indev.c:1107:45
	cbz	r0, .LBB27_26
.Ltmp632:
@ %bb.24:
	@DEBUG_VALUE: indev_proc_release:proc <- $r4
	.loc	14 1107 54                      @ lvgl/src/lv_core/lv_indev.c:1107:54
	ldrb.w	r0, [r4, #52]
.Ltmp633:
	.loc	14 1107 8                       @ lvgl/src/lv_core/lv_indev.c:1107:8
	lsls	r0, r0, #30
	bmi	.LBB27_26
.Ltmp634:
@ %bb.25:
	@DEBUG_VALUE: indev_proc_release:proc <- $r4
	.loc	14 1108 9 is_stmt 1             @ lvgl/src/lv_core/lv_indev.c:1108:9
	mov	r0, r4
	bl	indev_drag_throw
.Ltmp635:
	.loc	14 1109 12                      @ lvgl/src/lv_core/lv_indev.c:1109:12
	mov	r0, r4
	bl	indev_reset_check
.Ltmp636:
.LBB27_26:
	@DEBUG_VALUE: indev_proc_release:proc <- $r4
	.loc	14 0 0 is_stmt 0                @ lvgl/src/lv_core/lv_indev.c:0:0
	add	sp, #4
	pop	{r4, r5, r6, r7, pc}
.Ltmp637:
.Lfunc_end27:
	.size	indev_proc_release, .Lfunc_end27-indev_proc_release
	.cfi_endproc
	.cantunwind
	.fnend
                                        @ -- End function
	.section	.text.indev_drag_throw,"ax",%progbits
	.p2align	3                               @ -- Begin function indev_drag_throw
	.type	indev_drag_throw,%function
	.code	16                              @ @indev_drag_throw
	.thumb_func
indev_drag_throw:
.Lfunc_begin28:
	.loc	14 1430 0 is_stmt 1             @ lvgl/src/lv_core/lv_indev.c:1430:0
	.fnstart
	.cfi_startproc
@ %bb.0:
	@DEBUG_VALUE: indev_drag_throw:proc <- $r0
	.save	{r4, r5, r6, r7, r8, r9, lr}
	push.w	{r4, r5, r6, r7, r8, r9, lr}
	.cfi_def_cfa_offset 28
	.cfi_offset lr, -4
	.cfi_offset r9, -8
	.cfi_offset r8, -12
	.cfi_offset r7, -16
	.cfi_offset r6, -20
	.cfi_offset r5, -24
	.cfi_offset r4, -28
	.pad	#20
	sub	sp, #20
	.cfi_def_cfa_offset 48
	mov	r4, r0
.Ltmp638:
	@DEBUG_VALUE: indev_drag_throw:proc <- $r4
	.loc	14 1431 28 prologue_end         @ lvgl/src/lv_core/lv_indev.c:1431:28
	ldrb.w	r0, [r0, #42]
.Ltmp639:
	.loc	14 1431 8 is_stmt 0             @ lvgl/src/lv_core/lv_indev.c:1431:8
	lsls	r0, r0, #30
	bpl.w	.LBB28_21
.Ltmp640:
@ %bb.1:
	@DEBUG_VALUE: indev_drag_throw:proc <- $r4
	.loc	14 1433 63 is_stmt 1            @ lvgl/src/lv_core/lv_indev.c:1433:63
	ldr	r0, [r4, #28]
	.loc	14 1433 27 is_stmt 0            @ lvgl/src/lv_core/lv_indev.c:1433:27
	bl	get_dragged_obj
.Ltmp641:
	@DEBUG_VALUE: indev_drag_throw:drag_obj <- $r0
	.loc	14 1435 8 is_stmt 1             @ lvgl/src/lv_core/lv_indev.c:1435:8
	cmp	r0, #0
	beq.w	.LBB28_21
.Ltmp642:
@ %bb.2:
	@DEBUG_VALUE: indev_drag_throw:proc <- $r4
	@DEBUG_VALUE: indev_drag_throw:drag_obj <- $r0
	.loc	14 0 0 is_stmt 0                @ lvgl/src/lv_core/lv_indev.c:0:0
	mov	r5, r0
.Ltmp643:
	@DEBUG_VALUE: indev_drag_throw:drag_obj <- $r5
	.loc	14 1438 8 is_stmt 1             @ lvgl/src/lv_core/lv_indev.c:1438:8
	bl	lv_obj_get_drag_throw
.Ltmp644:
	.loc	14 1438 8 is_stmt 0             @ lvgl/src/lv_core/lv_indev.c:1438:8
	cmp	r0, #0
	beq	.LBB28_7
.Ltmp645:
@ %bb.3:
	@DEBUG_VALUE: indev_drag_throw:drag_obj <- $r5
	@DEBUG_VALUE: indev_drag_throw:proc <- $r4
	.loc	14 1447 34 is_stmt 1            @ lvgl/src/lv_core/lv_indev.c:1447:34
	mov	r0, r5
	bl	lv_obj_get_drag_dir
	.loc	14 1451 56                      @ lvgl/src/lv_core/lv_indev.c:1451:56
	movw	r8, :lower16:indev_act
	.loc	14 1451 45 is_stmt 0            @ lvgl/src/lv_core/lv_indev.c:1451:45
	ldrsh.w	r3, [r4, #20]
	.loc	14 1451 56                      @ lvgl/src/lv_core/lv_indev.c:1451:56
	movt	r8, :upper16:indev_act
	.loc	14 1447 34 is_stmt 1            @ lvgl/src/lv_core/lv_indev.c:1447:34
	mov	r6, r0
	.loc	14 1451 56                      @ lvgl/src/lv_core/lv_indev.c:1451:56
	ldr.w	r1, [r8]
	.loc	14 1451 74 is_stmt 0            @ lvgl/src/lv_core/lv_indev.c:1451:74
	ldrb	r2, [r1, #21]
	.loc	14 1451 54                      @ lvgl/src/lv_core/lv_indev.c:1451:54
	rsb.w	r2, r2, #100
.Ltmp646:
	@DEBUG_VALUE: indev_drag_throw:allowed_dirs <- undef
	.loc	14 1451 47                      @ lvgl/src/lv_core/lv_indev.c:1451:47
	muls	r2, r3, r2
	movw	r3, #34079
	movt	r3, #20971
	.loc	14 1451 86                      @ lvgl/src/lv_core/lv_indev.c:1451:86
	smmul	r2, r2, r3
	asrs	r7, r2, #5
	add.w	r2, r7, r2, lsr #31
	.loc	14 1450 43 is_stmt 1            @ lvgl/src/lv_core/lv_indev.c:1450:43
	strh	r2, [r4, #20]
	.loc	14 1453 74                      @ lvgl/src/lv_core/lv_indev.c:1453:74
	ldrb	r1, [r1, #21]
	.loc	14 1453 45 is_stmt 0            @ lvgl/src/lv_core/lv_indev.c:1453:45
	ldrsh.w	r7, [r4, #22]
.Ltmp647:
	.loc	14 1455 51 is_stmt 1            @ lvgl/src/lv_core/lv_indev.c:1455:51
	lsls	r0, r2, #16
.Ltmp648:
	.loc	14 1453 54                      @ lvgl/src/lv_core/lv_indev.c:1453:54
	rsb.w	r1, r1, #100
	.loc	14 1453 47 is_stmt 0            @ lvgl/src/lv_core/lv_indev.c:1453:47
	mul	r1, r7, r1
	.loc	14 1453 86                      @ lvgl/src/lv_core/lv_indev.c:1453:86
	smmul	r1, r1, r3
	asr.w	r3, r1, #5
	add.w	r0, r3, r1, lsr #31
	.loc	14 1452 43 is_stmt 1            @ lvgl/src/lv_core/lv_indev.c:1452:43
	strh	r0, [r4, #22]
.Ltmp649:
	.loc	14 1455 51                      @ lvgl/src/lv_core/lv_indev.c:1455:51
	bne	.LBB28_9
.Ltmp650:
@ %bb.4:
	@DEBUG_VALUE: indev_drag_throw:drag_obj <- $r5
	@DEBUG_VALUE: indev_drag_throw:proc <- $r4
	.loc	14 0 51 is_stmt 0               @ lvgl/src/lv_core/lv_indev.c:0:51
	uxth	r0, r0
	.loc	14 1455 51                      @ lvgl/src/lv_core/lv_indev.c:1455:51
	cbnz	r0, .LBB28_9
.Ltmp651:
@ %bb.5:
	@DEBUG_VALUE: indev_drag_throw:drag_obj <- $r5
	@DEBUG_VALUE: indev_drag_throw:proc <- $r4
	.loc	14 1490 42 is_stmt 1            @ lvgl/src/lv_core/lv_indev.c:1490:42
	ldrb.w	r0, [r4, #42]
	.loc	14 1491 59                      @ lvgl/src/lv_core/lv_indev.c:1491:59
	ldr.w	r2, [r8]
	.loc	14 1491 9 is_stmt 0             @ lvgl/src/lv_core/lv_indev.c:1491:9
	movs	r1, #19
	.loc	14 1490 42 is_stmt 1            @ lvgl/src/lv_core/lv_indev.c:1490:42
	and	r0, r0, #253
	strb.w	r0, [r4, #42]
	.loc	14 1491 19                      @ lvgl/src/lv_core/lv_indev.c:1491:19
	ldr	r3, [r5, #28]
	.loc	14 1491 9 is_stmt 0             @ lvgl/src/lv_core/lv_indev.c:1491:9
	mov	r0, r5
	blx	r3
.Ltmp652:
	.loc	14 1492 12 is_stmt 1            @ lvgl/src/lv_core/lv_indev.c:1492:12
	mov	r0, r4
	bl	indev_reset_check
.Ltmp653:
	.loc	14 1492 12 is_stmt 0            @ lvgl/src/lv_core/lv_indev.c:1492:12
	cmp	r0, #0
	bne	.LBB28_21
.Ltmp654:
@ %bb.6:
	@DEBUG_VALUE: indev_drag_throw:drag_obj <- $r5
	@DEBUG_VALUE: indev_drag_throw:proc <- $r4
	.loc	14 1493 9 is_stmt 1             @ lvgl/src/lv_core/lv_indev.c:1493:9
	movs	r1, #9
	movs	r2, #0
	mov	r0, r5
	bl	lv_event_send
.Ltmp655:
	.loc	14 1494 12                      @ lvgl/src/lv_core/lv_indev.c:1494:12
	mov	r0, r4
	bl	indev_reset_check
	b	.LBB28_21
.Ltmp656:
.LBB28_7:
	@DEBUG_VALUE: indev_drag_throw:drag_obj <- $r5
	@DEBUG_VALUE: indev_drag_throw:proc <- $r4
	.loc	14 1439 42                      @ lvgl/src/lv_core/lv_indev.c:1439:42
	ldrb.w	r0, [r4, #42]
	.loc	14 1440 9                       @ lvgl/src/lv_core/lv_indev.c:1440:9
	movs	r1, #19
	.loc	14 1439 42                      @ lvgl/src/lv_core/lv_indev.c:1439:42
	and	r0, r0, #253
	strb.w	r0, [r4, #42]
	.loc	14 1440 59                      @ lvgl/src/lv_core/lv_indev.c:1440:59
	movw	r0, :lower16:indev_act
	.loc	14 1440 19 is_stmt 0            @ lvgl/src/lv_core/lv_indev.c:1440:19
	ldr	r3, [r5, #28]
	.loc	14 1440 59                      @ lvgl/src/lv_core/lv_indev.c:1440:59
	movt	r0, :upper16:indev_act
	ldr	r2, [r0]
	.loc	14 1440 9                       @ lvgl/src/lv_core/lv_indev.c:1440:9
	mov	r0, r5
	blx	r3
.Ltmp657:
	.loc	14 1441 12 is_stmt 1            @ lvgl/src/lv_core/lv_indev.c:1441:12
	mov	r0, r4
	bl	indev_reset_check
.Ltmp658:
	.loc	14 1441 12 is_stmt 0            @ lvgl/src/lv_core/lv_indev.c:1441:12
	cmp	r0, #0
	bne	.LBB28_21
.Ltmp659:
@ %bb.8:
	@DEBUG_VALUE: indev_drag_throw:drag_obj <- $r5
	@DEBUG_VALUE: indev_drag_throw:proc <- $r4
	.loc	14 1443 9 is_stmt 1             @ lvgl/src/lv_core/lv_indev.c:1443:9
	movs	r1, #9
	movs	r2, #0
	mov	r0, r5
	bl	lv_event_send
.Ltmp660:
	.loc	14 0 0 is_stmt 0                @ lvgl/src/lv_core/lv_indev.c:0:0
	add	sp, #20
	pop.w	{r4, r5, r6, r7, r8, r9, pc}
.Ltmp661:
.LBB28_9:
	@DEBUG_VALUE: indev_drag_throw:drag_obj <- $r5
	@DEBUG_VALUE: indev_drag_throw:proc <- $r4
	add	r1, sp, #12
.Ltmp662:
	.loc	14 1458 9 is_stmt 1             @ lvgl/src/lv_core/lv_indev.c:1458:9
	mov	r0, r5
	bl	lv_obj_get_coords
	.loc	14 1459 28                      @ lvgl/src/lv_core/lv_indev.c:1459:28
	mov	r0, r5
	bl	lv_obj_get_x
	.loc	14 1459 89 is_stmt 0            @ lvgl/src/lv_core/lv_indev.c:1459:89
	ldrh.w	r9, [r4, #20]
.Ltmp663:
	@DEBUG_VALUE: act_x <- undef
	.loc	14 1459 28                      @ lvgl/src/lv_core/lv_indev.c:1459:28
	mov	r7, r0
	.loc	14 1460 28 is_stmt 1            @ lvgl/src/lv_core/lv_indev.c:1460:28
	mov	r0, r5
	bl	lv_obj_get_y
	.loc	14 1462 12                      @ lvgl/src/lv_core/lv_indev.c:1462:12
	subs	r2, r6, #1
	cmp	r2, #3
.Ltmp664:
	@DEBUG_VALUE: act_y <- undef
	bhi	.LBB28_16
.Ltmp665:
@ %bb.10:
	@DEBUG_VALUE: indev_drag_throw:drag_obj <- $r5
	@DEBUG_VALUE: indev_drag_throw:proc <- $r4
	.loc	14 0 12 is_stmt 0               @ lvgl/src/lv_core/lv_indev.c:0:12
	ldrh	r3, [r4, #22]
	add.w	r1, r9, r7
.Ltmp666:
	@DEBUG_VALUE: act_x <- $r1
	add	r0, r3
.Ltmp667:
	@DEBUG_VALUE: act_y <- $r0
.LCPI28_0:
	tbb	[pc, r2]
.Ltmp668:
@ %bb.11:
.LJTI28_0:
	.byte	(.LBB28_14-(.LCPI28_0+4))/2
	.byte	(.LBB28_15-(.LCPI28_0+4))/2
	.byte	(.LBB28_12-(.LCPI28_0+4))/2
	.byte	(.LBB28_13-(.LCPI28_0+4))/2
	.p2align	1
.LBB28_12:
.Ltmp669:
	@DEBUG_VALUE: indev_drag_throw:drag_obj <- $r5
	@DEBUG_VALUE: indev_drag_throw:proc <- $r4
	@DEBUG_VALUE: act_x <- $r1
	@DEBUG_VALUE: act_y <- $r0
	.loc	14 1462 46                      @ lvgl/src/lv_core/lv_indev.c:1462:46
	sxth	r1, r1
.Ltmp670:
	sxth	r2, r0
	mov	r0, r5
.Ltmp671:
	bl	lv_obj_set_pos
	b	.LBB28_16
.Ltmp672:
.LBB28_13:
	@DEBUG_VALUE: indev_drag_throw:drag_obj <- $r5
	@DEBUG_VALUE: indev_drag_throw:proc <- $r4
	@DEBUG_VALUE: act_x <- $r1
	@DEBUG_VALUE: act_y <- $r0
	.loc	14 1466 45 is_stmt 1            @ lvgl/src/lv_core/lv_indev.c:1466:45
	ldrh	r2, [r4, #16]
.Ltmp673:
	.loc	14 1466 16 is_stmt 0            @ lvgl/src/lv_core/lv_indev.c:1466:16
	cbz	r2, .LBB28_15
.Ltmp674:
.LBB28_14:
	@DEBUG_VALUE: indev_drag_throw:drag_obj <- $r5
	@DEBUG_VALUE: indev_drag_throw:proc <- $r4
	@DEBUG_VALUE: act_x <- $r1
	@DEBUG_VALUE: act_y <- $r0
	.loc	14 0 0                          @ lvgl/src/lv_core/lv_indev.c:0:0
	sxth	r1, r1
.Ltmp675:
	mov	r0, r5
.Ltmp676:
	bl	lv_obj_set_x
	b	.LBB28_16
.Ltmp677:
.LBB28_15:
	@DEBUG_VALUE: indev_drag_throw:drag_obj <- $r5
	@DEBUG_VALUE: indev_drag_throw:proc <- $r4
	@DEBUG_VALUE: act_x <- $r1
	@DEBUG_VALUE: act_y <- $r0
	sxth	r1, r0
.Ltmp678:
	mov	r0, r5
.Ltmp679:
	bl	lv_obj_set_y
.Ltmp680:
.LBB28_16:
	@DEBUG_VALUE: indev_drag_throw:drag_obj <- $r5
	@DEBUG_VALUE: indev_drag_throw:proc <- $r4
	add	r1, sp, #4
	.loc	14 1470 9 is_stmt 1             @ lvgl/src/lv_core/lv_indev.c:1470:9
	mov	r0, r5
	bl	lv_obj_get_coords
.Ltmp681:
	.loc	14 1473 24                      @ lvgl/src/lv_core/lv_indev.c:1473:24
	ldrh.w	r0, [sp, #12]
	.loc	14 1473 40 is_stmt 0            @ lvgl/src/lv_core/lv_indev.c:1473:40
	ldrh.w	r1, [sp, #4]
	.loc	14 1473 43                      @ lvgl/src/lv_core/lv_indev.c:1473:43
	cmp	r0, r1
	beq	.LBB28_18
.Ltmp682:
@ %bb.17:
	@DEBUG_VALUE: indev_drag_throw:drag_obj <- $r5
	@DEBUG_VALUE: indev_drag_throw:proc <- $r4
	.loc	14 1473 82                      @ lvgl/src/lv_core/lv_indev.c:1473:82
	ldrh	r0, [r4, #20]
	.loc	14 1473 90                      @ lvgl/src/lv_core/lv_indev.c:1473:90
	cbnz	r0, .LBB28_21
.Ltmp683:
.LBB28_18:
	@DEBUG_VALUE: indev_drag_throw:drag_obj <- $r5
	@DEBUG_VALUE: indev_drag_throw:proc <- $r4
	.loc	14 1474 24 is_stmt 1            @ lvgl/src/lv_core/lv_indev.c:1474:24
	ldrh.w	r0, [sp, #14]
	.loc	14 1474 40 is_stmt 0            @ lvgl/src/lv_core/lv_indev.c:1474:40
	ldrh.w	r1, [sp, #6]
	.loc	14 1474 43                      @ lvgl/src/lv_core/lv_indev.c:1474:43
	cmp	r0, r1
	beq	.LBB28_20
.Ltmp684:
@ %bb.19:
	@DEBUG_VALUE: indev_drag_throw:drag_obj <- $r5
	@DEBUG_VALUE: indev_drag_throw:proc <- $r4
	.loc	14 1474 82                      @ lvgl/src/lv_core/lv_indev.c:1474:82
	ldrh	r0, [r4, #22]
.Ltmp685:
	.loc	14 1473 12 is_stmt 1            @ lvgl/src/lv_core/lv_indev.c:1473:12
	cbnz	r0, .LBB28_21
.Ltmp686:
.LBB28_20:
	@DEBUG_VALUE: indev_drag_throw:drag_obj <- $r5
	@DEBUG_VALUE: indev_drag_throw:proc <- $r4
	.loc	14 1475 51                      @ lvgl/src/lv_core/lv_indev.c:1475:51
	ldrb.w	r0, [r4, #42]
	.loc	14 1480 63                      @ lvgl/src/lv_core/lv_indev.c:1480:63
	ldr.w	r2, [r8]
	.loc	14 1480 13 is_stmt 0            @ lvgl/src/lv_core/lv_indev.c:1480:13
	movs	r1, #19
	.loc	14 1475 51 is_stmt 1            @ lvgl/src/lv_core/lv_indev.c:1475:51
	and	r0, r0, #253
	strb.w	r0, [r4, #42]
	movs	r0, #0
	.loc	14 1476 51                      @ lvgl/src/lv_core/lv_indev.c:1476:51
	str	r0, [r4, #12]
	.loc	14 1478 51                      @ lvgl/src/lv_core/lv_indev.c:1478:51
	str	r0, [r4, #20]
	.loc	14 1480 13                      @ lvgl/src/lv_core/lv_indev.c:1480:13
	mov	r0, r5
	.loc	14 1480 23 is_stmt 0            @ lvgl/src/lv_core/lv_indev.c:1480:23
	ldr	r3, [r5, #28]
	.loc	14 1480 13                      @ lvgl/src/lv_core/lv_indev.c:1480:13
	blx	r3
.Ltmp687:
	.loc	14 1481 16 is_stmt 1            @ lvgl/src/lv_core/lv_indev.c:1481:16
	mov	r0, r4
	bl	indev_reset_check
.Ltmp688:
	.loc	14 1481 16 is_stmt 0            @ lvgl/src/lv_core/lv_indev.c:1481:16
	cbz	r0, .LBB28_22
.Ltmp689:
.LBB28_21:
	@DEBUG_VALUE: indev_drag_throw:proc <- $r4
	.loc	14 0 0                          @ lvgl/src/lv_core/lv_indev.c:0:0
	add	sp, #20
	pop.w	{r4, r5, r6, r7, r8, r9, pc}
.Ltmp690:
.LBB28_22:
	@DEBUG_VALUE: indev_drag_throw:drag_obj <- $r5
	@DEBUG_VALUE: indev_drag_throw:proc <- $r4
	.loc	14 1483 13 is_stmt 1            @ lvgl/src/lv_core/lv_indev.c:1483:13
	movs	r1, #9
	movs	r2, #0
	mov	r0, r5
	bl	lv_event_send
.Ltmp691:
	.loc	14 1484 16                      @ lvgl/src/lv_core/lv_indev.c:1484:16
	mov	r0, r4
	bl	indev_reset_check
.Ltmp692:
	.loc	14 1484 16 is_stmt 0            @ lvgl/src/lv_core/lv_indev.c:1484:16
	cmp	r0, #0
.Ltmp693:
	.loc	14 0 0                          @ lvgl/src/lv_core/lv_indev.c:0:0
	add	sp, #20
	pop.w	{r4, r5, r6, r7, r8, r9, pc}
.Ltmp694:
.Lfunc_end28:
	.size	indev_drag_throw, .Lfunc_end28-indev_drag_throw
	.cfi_endproc
	.cantunwind
	.fnend
                                        @ -- End function
	.section	.text.indev_reset_check,"ax",%progbits
	.p2align	3                               @ -- Begin function indev_reset_check
	.type	indev_reset_check,%function
	.code	16                              @ @indev_reset_check
	.thumb_func
indev_reset_check:
.Lfunc_begin29:
	.loc	14 1573 0 is_stmt 1             @ lvgl/src/lv_core/lv_indev.c:1573:0
	.fnstart
	.cfi_startproc
@ %bb.0:
	@DEBUG_VALUE: indev_reset_check:proc <- $r0
	@DEBUG_VALUE: indev_reset_check:proc <- $r0
	.loc	14 1574 14 prologue_end         @ lvgl/src/lv_core/lv_indev.c:1574:14
	ldrb.w	r0, [r0, #52]
.Ltmp695:
	@DEBUG_VALUE: indev_reset_check:proc <- [DW_OP_LLVM_entry_value 1] $r0
	.loc	14 1574 8 is_stmt 0             @ lvgl/src/lv_core/lv_indev.c:1574:8
	ands	r0, r0, #2
.Ltmp696:
	.loc	14 1574 8                       @ lvgl/src/lv_core/lv_indev.c:1574:8
	beq	.LBB29_2
.Ltmp697:
@ %bb.1:
	@DEBUG_VALUE: indev_reset_check:proc <- [DW_OP_LLVM_entry_value 1] $r0
	.loc	14 1575 23 is_stmt 1            @ lvgl/src/lv_core/lv_indev.c:1575:23
	movw	r1, :lower16:indev_obj_act
	movs	r2, #0
	movt	r1, :upper16:indev_obj_act
	str	r2, [r1]
.Ltmp698:
.LBB29_2:
	@DEBUG_VALUE: indev_reset_check:proc <- [DW_OP_LLVM_entry_value 1] $r0
	.loc	14 1578 12                      @ lvgl/src/lv_core/lv_indev.c:1578:12
	cmp	r0, #0
	it	ne
	movne	r0, #1
	.loc	14 1578 5 is_stmt 0             @ lvgl/src/lv_core/lv_indev.c:1578:5
	bx	lr
.Ltmp699:
.Lfunc_end29:
	.size	indev_reset_check, .Lfunc_end29-indev_reset_check
	.cfi_endproc
	.cantunwind
	.fnend
                                        @ -- End function
	.section	.text.indev_click_focus,"ax",%progbits
	.p2align	3                               @ -- Begin function indev_click_focus
	.type	indev_click_focus,%function
	.code	16                              @ @indev_click_focus
	.thumb_func
indev_click_focus:
.Lfunc_begin30:
	.loc	14 1190 0 is_stmt 1             @ lvgl/src/lv_core/lv_indev.c:1190:0
	.fnstart
	.cfi_startproc
@ %bb.0:
	@DEBUG_VALUE: indev_click_focus:proc <- $r0
	.save	{r4, r5, r6, lr}
	push	{r4, r5, r6, lr}
	.cfi_def_cfa_offset 16
	.cfi_offset lr, -4
	.cfi_offset r6, -8
	.cfi_offset r5, -12
	.cfi_offset r4, -16
.Ltmp700:
	.loc	14 1192 54 prologue_end         @ lvgl/src/lv_core/lv_indev.c:1192:54
	movw	r6, :lower16:indev_obj_act
	mov	r4, r0
.Ltmp701:
	@DEBUG_VALUE: indev_click_focus:proc <- $r4
	@DEBUG_VALUE: indev_click_focus:proc <- $r4
	movt	r6, :upper16:indev_obj_act
	ldr	r0, [r6]
	.loc	14 1192 31 is_stmt 0            @ lvgl/src/lv_core/lv_indev.c:1192:31
	bl	lv_obj_get_focused_obj
	mov	r5, r0
.Ltmp702:
	@DEBUG_VALUE: indev_click_focus:obj_to_focus <- $r5
	.loc	14 1193 28 is_stmt 1            @ lvgl/src/lv_core/lv_indev.c:1193:28
	ldr	r0, [r6]
	.loc	14 1193 8 is_stmt 0             @ lvgl/src/lv_core/lv_indev.c:1193:8
	movs	r1, #32
	bl	lv_obj_is_protected
	.loc	14 1193 76                      @ lvgl/src/lv_core/lv_indev.c:1193:76
	cmp	r0, #0
	bne	.LBB30_23
.Ltmp703:
@ %bb.1:
	@DEBUG_VALUE: indev_click_focus:obj_to_focus <- $r5
	@DEBUG_VALUE: indev_click_focus:proc <- $r4
	.loc	14 1194 28 is_stmt 1            @ lvgl/src/lv_core/lv_indev.c:1194:28
	ldr	r0, [r4, #32]
.Ltmp704:
	.loc	14 1193 8                       @ lvgl/src/lv_core/lv_indev.c:1193:8
	cmp	r0, r5
	beq	.LBB30_23
.Ltmp705:
@ %bb.2:
	@DEBUG_VALUE: indev_click_focus:obj_to_focus <- $r5
	@DEBUG_VALUE: indev_click_focus:proc <- $r4
	.loc	14 1196 30                      @ lvgl/src/lv_core/lv_indev.c:1196:30
	mov	r0, r5
	bl	lv_obj_get_group
	.loc	14 1197 51                      @ lvgl/src/lv_core/lv_indev.c:1197:51
	ldr	r1, [r4, #32]
	.loc	14 1196 30                      @ lvgl/src/lv_core/lv_indev.c:1196:30
	mov	r6, r0
.Ltmp706:
	@DEBUG_VALUE: g_act <- $r6
	.loc	14 1197 31                      @ lvgl/src/lv_core/lv_indev.c:1197:31
	cbz	r1, .LBB30_9
.Ltmp707:
@ %bb.3:
	@DEBUG_VALUE: g_act <- $r6
	@DEBUG_VALUE: indev_click_focus:obj_to_focus <- $r5
	@DEBUG_VALUE: indev_click_focus:proc <- $r4
	.loc	14 1197 66 is_stmt 0            @ lvgl/src/lv_core/lv_indev.c:1197:66
	mov	r0, r1
	bl	lv_obj_get_group
.Ltmp708:
	@DEBUG_VALUE: g_prev <- $r0
	.loc	14 1200 12 is_stmt 1            @ lvgl/src/lv_core/lv_indev.c:1200:12
	cmp	r6, r0
	beq	.LBB30_10
.Ltmp709:
.LBB30_4:
	@DEBUG_VALUE: g_act <- $r6
	@DEBUG_VALUE: indev_click_focus:obj_to_focus <- $r5
	@DEBUG_VALUE: indev_click_focus:proc <- $r4
	@DEBUG_VALUE: g_prev <- $r0
	@DEBUG_VALUE: g_prev <- $r0
	.loc	14 1224 31                      @ lvgl/src/lv_core/lv_indev.c:1224:31
	cbz	r0, .LBB30_14
.Ltmp710:
.LBB30_5:
	@DEBUG_VALUE: g_act <- $r6
	@DEBUG_VALUE: indev_click_focus:obj_to_focus <- $r5
	@DEBUG_VALUE: indev_click_focus:proc <- $r4
	@DEBUG_VALUE: g_prev <- $r0
	.loc	14 1232 40                      @ lvgl/src/lv_core/lv_indev.c:1232:40
	ldr	r3, [r4, #32]
.Ltmp711:
	.loc	14 1232 20 is_stmt 0            @ lvgl/src/lv_core/lv_indev.c:1232:20
	cbz	r3, .LBB30_18
.Ltmp712:
@ %bb.6:
	@DEBUG_VALUE: g_act <- $r6
	@DEBUG_VALUE: indev_click_focus:obj_to_focus <- $r5
	@DEBUG_VALUE: indev_click_focus:proc <- $r4
	@DEBUG_VALUE: g_prev <- $r0
	.loc	14 1234 24 is_stmt 1            @ lvgl/src/lv_core/lv_indev.c:1234:24
	cbz	r0, .LBB30_15
.Ltmp713:
@ %bb.7:
	@DEBUG_VALUE: g_act <- $r6
	@DEBUG_VALUE: indev_click_focus:obj_to_focus <- $r5
	@DEBUG_VALUE: indev_click_focus:proc <- $r4
	@DEBUG_VALUE: g_prev <- $r0
	.loc	14 1242 25                      @ lvgl/src/lv_core/lv_indev.c:1242:25
	movs	r1, #21
	movs	r2, #0
	mov	r0, r3
.Ltmp714:
	bl	lv_signal_send
.Ltmp715:
	.loc	14 1243 28                      @ lvgl/src/lv_core/lv_indev.c:1243:28
	mov	r0, r4
	bl	indev_reset_check
.Ltmp716:
	.loc	14 1243 28 is_stmt 0            @ lvgl/src/lv_core/lv_indev.c:1243:28
	cmp	r0, #0
	bne	.LBB30_23
.Ltmp717:
@ %bb.8:
	@DEBUG_VALUE: g_act <- $r6
	@DEBUG_VALUE: indev_click_focus:obj_to_focus <- $r5
	@DEBUG_VALUE: indev_click_focus:proc <- $r4
	.loc	14 1244 59 is_stmt 1            @ lvgl/src/lv_core/lv_indev.c:1244:59
	ldr	r0, [r4, #32]
	.loc	14 1244 25 is_stmt 0            @ lvgl/src/lv_core/lv_indev.c:1244:25
	movs	r1, #15
	b	.LBB30_17
.Ltmp718:
.LBB30_9:
	@DEBUG_VALUE: g_act <- $r6
	@DEBUG_VALUE: indev_click_focus:obj_to_focus <- $r5
	@DEBUG_VALUE: indev_click_focus:proc <- $r4
	.loc	14 0 25                         @ lvgl/src/lv_core/lv_indev.c:0:25
	movs	r0, #0
.Ltmp719:
	@DEBUG_VALUE: g_prev <- $r0
	.loc	14 1200 12 is_stmt 1            @ lvgl/src/lv_core/lv_indev.c:1200:12
	cmp	r6, r0
	bne	.LBB30_4
.Ltmp720:
.LBB30_10:
	@DEBUG_VALUE: g_act <- $r6
	@DEBUG_VALUE: indev_click_focus:obj_to_focus <- $r5
	@DEBUG_VALUE: indev_click_focus:proc <- $r4
	@DEBUG_VALUE: g_prev <- $r0
	.loc	14 1202 16                      @ lvgl/src/lv_core/lv_indev.c:1202:16
	cbnz	r6, .LBB30_19
.Ltmp721:
@ %bb.11:
	@DEBUG_VALUE: g_act <- $r6
	@DEBUG_VALUE: indev_click_focus:obj_to_focus <- $r5
	@DEBUG_VALUE: indev_click_focus:proc <- $r4
	@DEBUG_VALUE: g_prev <- $r0
	.loc	14 1208 40                      @ lvgl/src/lv_core/lv_indev.c:1208:40
	ldr	r0, [r4, #32]
.Ltmp722:
	.loc	14 1208 20 is_stmt 0            @ lvgl/src/lv_core/lv_indev.c:1208:20
	cbz	r0, .LBB30_20
.Ltmp723:
@ %bb.12:
	@DEBUG_VALUE: g_act <- $r6
	@DEBUG_VALUE: indev_click_focus:obj_to_focus <- $r5
	@DEBUG_VALUE: indev_click_focus:proc <- $r4
	.loc	14 1209 21 is_stmt 1            @ lvgl/src/lv_core/lv_indev.c:1209:21
	movs	r1, #23
	movs	r2, #0
	bl	lv_signal_send
.Ltmp724:
	.loc	14 1210 24                      @ lvgl/src/lv_core/lv_indev.c:1210:24
	mov	r0, r4
	bl	indev_reset_check
.Ltmp725:
	.loc	14 1210 24 is_stmt 0            @ lvgl/src/lv_core/lv_indev.c:1210:24
	cbnz	r0, .LBB30_23
.Ltmp726:
@ %bb.13:
	@DEBUG_VALUE: g_act <- $r6
	@DEBUG_VALUE: indev_click_focus:obj_to_focus <- $r5
	@DEBUG_VALUE: indev_click_focus:proc <- $r4
	.loc	14 1211 55 is_stmt 1            @ lvgl/src/lv_core/lv_indev.c:1211:55
	ldr	r0, [r4, #32]
	.loc	14 1211 21 is_stmt 0            @ lvgl/src/lv_core/lv_indev.c:1211:21
	movs	r1, #14
	movs	r2, #0
	bl	lv_event_send
.Ltmp727:
	.loc	14 1212 24 is_stmt 1            @ lvgl/src/lv_core/lv_indev.c:1212:24
	mov	r0, r4
	bl	indev_reset_check
.Ltmp728:
	.loc	14 1212 24 is_stmt 0            @ lvgl/src/lv_core/lv_indev.c:1212:24
	cbnz	r0, .LBB30_23
	b	.LBB30_20
.Ltmp729:
.LBB30_14:
	@DEBUG_VALUE: g_act <- $r6
	@DEBUG_VALUE: indev_click_focus:obj_to_focus <- $r5
	@DEBUG_VALUE: indev_click_focus:proc <- $r4
	@DEBUG_VALUE: g_prev <- $r0
	.loc	14 1224 54 is_stmt 1            @ lvgl/src/lv_core/lv_indev.c:1224:54
	ldr	r3, [r4, #32]
.Ltmp730:
	.loc	14 1224 16 is_stmt 0            @ lvgl/src/lv_core/lv_indev.c:1224:16
	cmp	r3, #0
	beq	.LBB30_5
.Ltmp731:
.LBB30_15:
	@DEBUG_VALUE: g_act <- $r6
	@DEBUG_VALUE: indev_click_focus:obj_to_focus <- $r5
	@DEBUG_VALUE: indev_click_focus:proc <- $r4
	@DEBUG_VALUE: g_prev <- $r0
	.loc	14 0 0                          @ lvgl/src/lv_core/lv_indev.c:0:0
	movs	r1, #23
	movs	r2, #0
	mov	r0, r3
.Ltmp732:
	bl	lv_signal_send
	mov	r0, r4
	bl	indev_reset_check
	cbnz	r0, .LBB30_23
.Ltmp733:
@ %bb.16:
	@DEBUG_VALUE: g_act <- $r6
	@DEBUG_VALUE: indev_click_focus:obj_to_focus <- $r5
	@DEBUG_VALUE: indev_click_focus:proc <- $r4
	ldr	r0, [r4, #32]
	movs	r1, #14
.Ltmp734:
.LBB30_17:
	@DEBUG_VALUE: g_act <- $r6
	@DEBUG_VALUE: indev_click_focus:obj_to_focus <- $r5
	@DEBUG_VALUE: indev_click_focus:proc <- $r4
	movs	r2, #0
	bl	lv_event_send
	mov	r0, r4
	bl	indev_reset_check
	cbnz	r0, .LBB30_23
.Ltmp735:
.LBB30_18:
	@DEBUG_VALUE: g_act <- $r6
	@DEBUG_VALUE: indev_click_focus:obj_to_focus <- $r5
	@DEBUG_VALUE: indev_click_focus:proc <- $r4
	.loc	14 1251 16 is_stmt 1            @ lvgl/src/lv_core/lv_indev.c:1251:16
	cbz	r6, .LBB30_20
.Ltmp736:
.LBB30_19:
	@DEBUG_VALUE: g_act <- $r6
	@DEBUG_VALUE: indev_click_focus:obj_to_focus <- $r5
	@DEBUG_VALUE: indev_click_focus:proc <- $r4
	.loc	14 0 0 is_stmt 0                @ lvgl/src/lv_core/lv_indev.c:0:0
	mov	r0, r5
	bl	lv_group_focus_obj
	b	.LBB30_22
.Ltmp737:
.LBB30_20:
	@DEBUG_VALUE: g_act <- $r6
	@DEBUG_VALUE: indev_click_focus:obj_to_focus <- $r5
	@DEBUG_VALUE: indev_click_focus:proc <- $r4
	movs	r1, #22
	movs	r2, #0
	mov	r0, r5
	bl	lv_signal_send
	mov	r0, r4
	bl	indev_reset_check
	cmp	r0, #0
.Ltmp738:
	.loc	14 1278 1 is_stmt 1             @ lvgl/src/lv_core/lv_indev.c:1278:1
	it	ne
	popne	{r4, r5, r6, pc}
.Ltmp739:
.LBB30_21:
	.loc	14 0 0 is_stmt 0                @ lvgl/src/lv_core/lv_indev.c:0:0
	movs	r1, #13
	movs	r2, #0
	mov	r0, r5
	bl	lv_event_send
.LBB30_22:
	mov	r0, r4
	bl	indev_reset_check
	cmp	r0, #0
.Ltmp740:
	.loc	14 1275 42 is_stmt 1            @ lvgl/src/lv_core/lv_indev.c:1275:42
	it	eq
	streq	r5, [r4, #32]
.Ltmp741:
.LBB30_23:
	.loc	14 1278 1                       @ lvgl/src/lv_core/lv_indev.c:1278:1
	pop	{r4, r5, r6, pc}
.Ltmp742:
.Lfunc_end30:
	.size	indev_click_focus, .Lfunc_end30-indev_click_focus
	.cfi_endproc
	.cantunwind
	.fnend
                                        @ -- End function
	.section	.text.indev_drag,"ax",%progbits
	.p2align	3                               @ -- Begin function indev_drag
	.type	indev_drag,%function
	.code	16                              @ @indev_drag
	.thumb_func
indev_drag:
.Lfunc_begin31:
	.loc	14 1285 0                       @ lvgl/src/lv_core/lv_indev.c:1285:0
	.fnstart
	.cfi_startproc
@ %bb.0:
	@DEBUG_VALUE: indev_drag:proc <- $r0
	.save	{r4, r5, r6, r7, r8, r9, r10, r11, lr}
	push.w	{r4, r5, r6, r7, r8, r9, r10, r11, lr}
	.cfi_def_cfa_offset 36
	.cfi_offset lr, -4
	.cfi_offset r11, -8
	.cfi_offset r10, -12
	.cfi_offset r9, -16
	.cfi_offset r8, -20
	.cfi_offset r7, -24
	.cfi_offset r6, -28
	.cfi_offset r5, -32
	.cfi_offset r4, -36
	.pad	#12
	sub	sp, #12
	.cfi_def_cfa_offset 48
	mov	r4, r0
.Ltmp743:
	@DEBUG_VALUE: indev_drag:proc <- $r4
	.loc	14 1286 66 prologue_end         @ lvgl/src/lv_core/lv_indev.c:1286:66
	ldr	r0, [r0, #24]
	.loc	14 1286 30 is_stmt 0            @ lvgl/src/lv_core/lv_indev.c:1286:30
	bl	get_dragged_obj
.Ltmp744:
	@DEBUG_VALUE: indev_drag:drag_just_started <- 0
	@DEBUG_VALUE: indev_drag:drag_obj <- $r0
	.loc	14 1289 8 is_stmt 1             @ lvgl/src/lv_core/lv_indev.c:1289:8
	cmp	r0, #0
	beq.w	.LBB31_44
.Ltmp745:
@ %bb.1:
	@DEBUG_VALUE: indev_drag:proc <- $r4
	@DEBUG_VALUE: indev_drag:drag_obj <- $r0
	@DEBUG_VALUE: indev_drag:drag_just_started <- 0
	.loc	14 0 0 is_stmt 0                @ lvgl/src/lv_core/lv_indev.c:0:0
	mov	r5, r0
.Ltmp746:
	@DEBUG_VALUE: indev_drag:drag_obj <- $r5
	.loc	14 1291 8 is_stmt 1             @ lvgl/src/lv_core/lv_indev.c:1291:8
	bl	lv_obj_get_drag
.Ltmp747:
	.loc	14 1291 8 is_stmt 0             @ lvgl/src/lv_core/lv_indev.c:1291:8
	cmp	r0, #0
	beq.w	.LBB31_44
.Ltmp748:
@ %bb.2:
	@DEBUG_VALUE: indev_drag:drag_obj <- $r5
	@DEBUG_VALUE: indev_drag:proc <- $r4
	@DEBUG_VALUE: indev_drag:drag_just_started <- 0
	.loc	14 1293 34 is_stmt 1            @ lvgl/src/lv_core/lv_indev.c:1293:34
	mov	r0, r5
	bl	lv_obj_get_drag_dir
.Ltmp749:
	.loc	14 1296 28                      @ lvgl/src/lv_core/lv_indev.c:1296:28
	ldrb.w	lr, [r4, #42]
.Ltmp750:
	.loc	14 1293 34                      @ lvgl/src/lv_core/lv_indev.c:1293:34
	mov	r8, r0
.Ltmp751:
	@DEBUG_VALUE: indev_drag:allowed_dirs <- undef
	.loc	14 1296 8                       @ lvgl/src/lv_core/lv_indev.c:1296:8
	lsls.w	r2, lr, #31
	bne	.LBB31_12
.Ltmp752:
@ %bb.3:
	@DEBUG_VALUE: indev_drag:drag_obj <- $r5
	@DEBUG_VALUE: indev_drag:proc <- $r4
	@DEBUG_VALUE: indev_drag:drag_just_started <- 0
	.loc	14 1297 68                      @ lvgl/src/lv_core/lv_indev.c:1297:68
	ldrh	r0, [r4, #12]
	.loc	14 1297 40 is_stmt 0            @ lvgl/src/lv_core/lv_indev.c:1297:40
	ldrh	r2, [r4, #16]
	.loc	14 1298 40 is_stmt 1            @ lvgl/src/lv_core/lv_indev.c:1298:40
	ldrh	r3, [r4, #18]
.Ltmp753:
	.loc	14 1303 44                      @ lvgl/src/lv_core/lv_indev.c:1303:44
	orr	r7, r8, #2
.Ltmp754:
	.loc	14 1297 40                      @ lvgl/src/lv_core/lv_indev.c:1297:40
	add	r2, r0
	.loc	14 1298 68                      @ lvgl/src/lv_core/lv_indev.c:1298:68
	ldrh	r0, [r4, #14]
.Ltmp755:
	.loc	14 1303 44                      @ lvgl/src/lv_core/lv_indev.c:1303:44
	cmp	r7, #3
.Ltmp756:
	.loc	14 1297 40                      @ lvgl/src/lv_core/lv_indev.c:1297:40
	strh	r2, [r4, #16]
	.loc	14 1298 40                      @ lvgl/src/lv_core/lv_indev.c:1298:40
	add	r0, r3
	strh	r0, [r4, #18]
.Ltmp757:
	@DEBUG_VALUE: ver_en <- 0
	@DEBUG_VALUE: hor_en <- 0
	.loc	14 1303 44                      @ lvgl/src/lv_core/lv_indev.c:1303:44
	bne	.LBB31_5
.Ltmp758:
@ %bb.4:
	@DEBUG_VALUE: indev_drag:drag_obj <- $r5
	@DEBUG_VALUE: indev_drag:proc <- $r4
	@DEBUG_VALUE: hor_en <- 0
	@DEBUG_VALUE: ver_en <- 0
	@DEBUG_VALUE: indev_drag:drag_just_started <- 0
	.loc	14 0 44 is_stmt 0               @ lvgl/src/lv_core/lv_indev.c:0:44
	movs	r7, #1
.Ltmp759:
	@DEBUG_VALUE: hor_en <- 1
	b	.LBB31_6
.Ltmp760:
.LBB31_5:
	@DEBUG_VALUE: indev_drag:drag_obj <- $r5
	@DEBUG_VALUE: indev_drag:proc <- $r4
	@DEBUG_VALUE: hor_en <- 0
	@DEBUG_VALUE: ver_en <- 0
	@DEBUG_VALUE: indev_drag:drag_just_started <- 0
	movs	r7, #0
.Ltmp761:
.LBB31_6:
	@DEBUG_VALUE: indev_drag:drag_obj <- $r5
	@DEBUG_VALUE: indev_drag:proc <- $r4
	@DEBUG_VALUE: ver_en <- 0
	@DEBUG_VALUE: indev_drag:drag_just_started <- 0
	@DEBUG_VALUE: hor_en <- undef
	.loc	14 1307 44 is_stmt 1            @ lvgl/src/lv_core/lv_indev.c:1307:44
	and	r3, r8, #254
.Ltmp762:
	.loc	14 1311 12                      @ lvgl/src/lv_core/lv_indev.c:1311:12
	cmp.w	r8, #4
.Ltmp763:
	.loc	14 1307 44                      @ lvgl/src/lv_core/lv_indev.c:1307:44
	sub.w	r3, r3, #2
	clz	r3, r3
	lsr.w	r3, r3, #5
.Ltmp764:
	@DEBUG_VALUE: ver_en <- undef
	.loc	14 1311 12                      @ lvgl/src/lv_core/lv_indev.c:1311:12
	bne	.LBB31_8
.Ltmp765:
@ %bb.7:
	@DEBUG_VALUE: indev_drag:drag_obj <- $r5
	@DEBUG_VALUE: indev_drag:proc <- $r4
	@DEBUG_VALUE: indev_drag:drag_just_started <- 0
	.loc	14 1312 16                      @ lvgl/src/lv_core/lv_indev.c:1312:16
	sxth	r6, r2
	.loc	14 1312 62 is_stmt 0            @ lvgl/src/lv_core/lv_indev.c:1312:62
	sxth	r1, r0
	.loc	14 1312 16                      @ lvgl/src/lv_core/lv_indev.c:1312:16
	add.w	r12, r2, r6, asr #15
	eor.w	r6, r12, r6, asr #15
	uxth.w	r9, r6
	.loc	14 1312 62                      @ lvgl/src/lv_core/lv_indev.c:1312:62
	add.w	r12, r0, r1, asr #15
	eor.w	r1, r12, r1, asr #15
	movs	r6, #0
	uxth	r1, r1
	.loc	14 1312 60                      @ lvgl/src/lv_core/lv_indev.c:1312:60
	cmp	r9, r1
	mov.w	r1, #0
	ite	hi
	movhi	r1, #1
	movls	r6, #1
.Ltmp766:
	.loc	14 1312 16                      @ lvgl/src/lv_core/lv_indev.c:1312:16
	orrs	r3, r6
	orrs	r7, r1
.Ltmp767:
.LBB31_8:
	@DEBUG_VALUE: indev_drag:drag_obj <- $r5
	@DEBUG_VALUE: indev_drag:proc <- $r4
	@DEBUG_VALUE: indev_drag:drag_just_started <- 0
	@DEBUG_VALUE: hor_en <- undef
	@DEBUG_VALUE: ver_en <- undef
	.loc	14 1321 20 is_stmt 1            @ lvgl/src/lv_core/lv_indev.c:1321:20
	cbz	r7, .LBB31_10
.Ltmp768:
@ %bb.9:
	@DEBUG_VALUE: indev_drag:drag_obj <- $r5
	@DEBUG_VALUE: indev_drag:proc <- $r4
	@DEBUG_VALUE: indev_drag:drag_just_started <- 0
	.loc	14 1321 23 is_stmt 0            @ lvgl/src/lv_core/lv_indev.c:1321:23
	sxth	r1, r2
	.loc	14 1321 70                      @ lvgl/src/lv_core/lv_indev.c:1321:70
	movw	r7, :lower16:indev_act
	movt	r7, :upper16:indev_act
	.loc	14 1321 23                      @ lvgl/src/lv_core/lv_indev.c:1321:23
	add.w	r2, r2, r1, asr #15
	.loc	14 1321 70                      @ lvgl/src/lv_core/lv_indev.c:1321:70
	ldr	r7, [r7]
	.loc	14 1321 23                      @ lvgl/src/lv_core/lv_indev.c:1321:23
	eor.w	r1, r2, r1, asr #15
	uxth	r1, r1
	.loc	14 1321 88                      @ lvgl/src/lv_core/lv_indev.c:1321:88
	ldrb	r2, [r7, #20]
	.loc	14 1321 100                     @ lvgl/src/lv_core/lv_indev.c:1321:100
	cmp	r1, r2
	bhs	.LBB31_13
.Ltmp769:
.LBB31_10:
	@DEBUG_VALUE: indev_drag:drag_obj <- $r5
	@DEBUG_VALUE: indev_drag:proc <- $r4
	@DEBUG_VALUE: indev_drag:drag_just_started <- 0
	.loc	14 1322 20 is_stmt 1            @ lvgl/src/lv_core/lv_indev.c:1322:20
	cbz	r3, .LBB31_12
.Ltmp770:
@ %bb.11:
	@DEBUG_VALUE: indev_drag:drag_obj <- $r5
	@DEBUG_VALUE: indev_drag:proc <- $r4
	@DEBUG_VALUE: indev_drag:drag_just_started <- 0
	.loc	14 1322 23 is_stmt 0            @ lvgl/src/lv_core/lv_indev.c:1322:23
	sxth	r1, r0
	.loc	14 1322 70                      @ lvgl/src/lv_core/lv_indev.c:1322:70
	movw	r2, :lower16:indev_act
	movt	r2, :upper16:indev_act
	.loc	14 1322 23                      @ lvgl/src/lv_core/lv_indev.c:1322:23
	add.w	r0, r0, r1, asr #15
	.loc	14 1322 70                      @ lvgl/src/lv_core/lv_indev.c:1322:70
	ldr	r2, [r2]
	.loc	14 1322 23                      @ lvgl/src/lv_core/lv_indev.c:1322:23
	eor.w	r0, r0, r1, asr #15
	uxth	r0, r0
	.loc	14 1322 88                      @ lvgl/src/lv_core/lv_indev.c:1322:88
	ldrb	r1, [r2, #20]
.Ltmp771:
	.loc	14 1321 12 is_stmt 1            @ lvgl/src/lv_core/lv_indev.c:1321:12
	cmp	r0, r1
	bhs	.LBB31_13
.Ltmp772:
.LBB31_12:
	@DEBUG_VALUE: indev_drag:drag_obj <- $r5
	@DEBUG_VALUE: indev_drag:proc <- $r4
	@DEBUG_VALUE: indev_drag:drag_just_started <- 0
	.loc	14 0 12 is_stmt 0               @ lvgl/src/lv_core/lv_indev.c:0:12
	mov.w	r11, #0
	b	.LBB31_14
.Ltmp773:
.LBB31_13:
	@DEBUG_VALUE: indev_drag:drag_obj <- $r5
	@DEBUG_VALUE: indev_drag:proc <- $r4
	@DEBUG_VALUE: indev_drag:drag_just_started <- 0
	mov.w	r11, #1
.Ltmp774:
	@DEBUG_VALUE: indev_drag:drag_just_started <- 1
	.loc	14 1323 48 is_stmt 1            @ lvgl/src/lv_core/lv_indev.c:1323:48
	orr	r0, lr, #1
	strb.w	r0, [r4, #42]
.Ltmp775:
.LBB31_14:
	@DEBUG_VALUE: indev_drag:drag_obj <- $r5
	@DEBUG_VALUE: indev_drag:proc <- $r4
	@DEBUG_VALUE: indev_drag:drag_just_started <- undef
	.loc	14 1329 28                      @ lvgl/src/lv_core/lv_indev.c:1329:28
	ldrb.w	r0, [r4, #42]
.Ltmp776:
	.loc	14 1329 8 is_stmt 0             @ lvgl/src/lv_core/lv_indev.c:1329:8
	lsls	r0, r0, #31
	beq.w	.LBB31_44
.Ltmp777:
@ %bb.15:
	@DEBUG_VALUE: indev_drag:drag_obj <- $r5
	@DEBUG_VALUE: indev_drag:proc <- $r4
	.loc	14 1331 37 is_stmt 1            @ lvgl/src/lv_core/lv_indev.c:1331:37
	ldrh	r0, [r4, #12]
	.loc	14 1331 44 is_stmt 0            @ lvgl/src/lv_core/lv_indev.c:1331:44
	cbnz	r0, .LBB31_17
.Ltmp778:
@ %bb.16:
	@DEBUG_VALUE: indev_drag:drag_obj <- $r5
	@DEBUG_VALUE: indev_drag:proc <- $r4
	.loc	14 1331 72                      @ lvgl/src/lv_core/lv_indev.c:1331:72
	ldrh	r0, [r4, #14]
.Ltmp779:
	.loc	14 1331 12                      @ lvgl/src/lv_core/lv_indev.c:1331:12
	cmp	r0, #0
	beq.w	.LBB31_44
.Ltmp780:
.LBB31_17:
	@DEBUG_VALUE: indev_drag:drag_obj <- $r5
	@DEBUG_VALUE: indev_drag:proc <- $r4
	.loc	14 1334 54 is_stmt 1            @ lvgl/src/lv_core/lv_indev.c:1334:54
	ldrh	r0, [r5, #18]
.Ltmp781:
	@DEBUG_VALUE: prev_y <- undef
	.loc	14 1333 54                      @ lvgl/src/lv_core/lv_indev.c:1333:54
	ldrh.w	r9, [r5, #16]
.Ltmp782:
	@DEBUG_VALUE: prev_x <- undef
	.loc	14 1335 54                      @ lvgl/src/lv_core/lv_indev.c:1335:54
	str	r0, [sp, #8]                    @ 4-byte Spill
	mov	r0, r5
	bl	lv_obj_get_parent
	.loc	14 1335 37 is_stmt 0            @ lvgl/src/lv_core/lv_indev.c:1335:37
	bl	lv_obj_get_width
	str	r0, [sp, #4]                    @ 4-byte Spill
.Ltmp783:
	@DEBUG_VALUE: prev_par_w <- undef
	.loc	14 1336 55 is_stmt 1            @ lvgl/src/lv_core/lv_indev.c:1336:55
	mov	r0, r5
	bl	lv_obj_get_parent
	.loc	14 1336 37 is_stmt 0            @ lvgl/src/lv_core/lv_indev.c:1336:37
	bl	lv_obj_get_height
	str	r0, [sp]                        @ 4-byte Spill
.Ltmp784:
	@DEBUG_VALUE: prev_par_h <- undef
	.loc	14 1339 32 is_stmt 1            @ lvgl/src/lv_core/lv_indev.c:1339:32
	mov	r0, r5
	bl	lv_obj_get_x
	mov	r10, r0
.Ltmp785:
	@DEBUG_VALUE: act_x <- undef
	.loc	14 1340 32                      @ lvgl/src/lv_core/lv_indev.c:1340:32
	mov	r0, r5
	bl	lv_obj_get_y
	.loc	14 1342 16                      @ lvgl/src/lv_core/lv_indev.c:1342:16
	sub.w	r1, r8, #1
	.loc	14 1340 32                      @ lvgl/src/lv_core/lv_indev.c:1340:32
	mov	r7, r0
.Ltmp786:
	@DEBUG_VALUE: act_y <- undef
	.loc	14 1342 16                      @ lvgl/src/lv_core/lv_indev.c:1342:16
	cmp	r1, #3
	bhi	.LBB31_30
.Ltmp787:
@ %bb.18:
	@DEBUG_VALUE: indev_drag:drag_obj <- $r5
	@DEBUG_VALUE: indev_drag:proc <- $r4
	.loc	14 0 16 is_stmt 0               @ lvgl/src/lv_core/lv_indev.c:0:16
.LCPI31_0:
	tbb	[pc, r1]
.Ltmp788:
@ %bb.19:
.LJTI31_0:
	.byte	(.LBB31_20-(.LCPI31_0+4))/2
	.byte	(.LBB31_27-(.LCPI31_0+4))/2
	.byte	(.LBB31_22-(.LCPI31_0+4))/2
	.byte	(.LBB31_24-(.LCPI31_0+4))/2
	.p2align	1
.LBB31_20:
.Ltmp789:
	@DEBUG_VALUE: indev_drag:drag_obj <- $r5
	@DEBUG_VALUE: indev_drag:proc <- $r4
	.loc	14 1350 20 is_stmt 1            @ lvgl/src/lv_core/lv_indev.c:1350:20
	cmp.w	r11, #0
	beq	.LBB31_30
.Ltmp790:
@ %bb.21:
	@DEBUG_VALUE: indev_drag:drag_obj <- $r5
	@DEBUG_VALUE: indev_drag:proc <- $r4
	.loc	14 1351 50                      @ lvgl/src/lv_core/lv_indev.c:1351:50
	ldrb.w	r0, [r4, #42]
	.loc	14 1353 59                      @ lvgl/src/lv_core/lv_indev.c:1353:59
	ldrh	r1, [r4, #16]
	.loc	14 1351 50                      @ lvgl/src/lv_core/lv_indev.c:1351:50
	and	r0, r0, #227
	adds	r0, #4
	strb.w	r0, [r4, #42]
	movs	r0, #0
	.loc	14 1352 52                      @ lvgl/src/lv_core/lv_indev.c:1352:52
	strh	r0, [r4, #18]
	.loc	14 1353 27                      @ lvgl/src/lv_core/lv_indev.c:1353:27
	add	r10, r1
.Ltmp791:
	@DEBUG_VALUE: act_x <- $r10
	.loc	14 0 27 is_stmt 0               @ lvgl/src/lv_core/lv_indev.c:0:27
	b	.LBB31_30
.Ltmp792:
.LBB31_22:
	@DEBUG_VALUE: indev_drag:drag_obj <- $r5
	@DEBUG_VALUE: indev_drag:proc <- $r4
	.loc	14 1343 20 is_stmt 1            @ lvgl/src/lv_core/lv_indev.c:1343:20
	cmp.w	r11, #0
	beq	.LBB31_30
.Ltmp793:
@ %bb.23:
	@DEBUG_VALUE: indev_drag:drag_obj <- $r5
	@DEBUG_VALUE: indev_drag:proc <- $r4
	.loc	14 1344 50                      @ lvgl/src/lv_core/lv_indev.c:1344:50
	ldrb.w	r0, [r4, #42]
	.loc	14 1345 59                      @ lvgl/src/lv_core/lv_indev.c:1345:59
	ldrh	r1, [r4, #16]
	.loc	14 1346 59                      @ lvgl/src/lv_core/lv_indev.c:1346:59
	ldrh	r2, [r4, #18]
	.loc	14 1344 50                      @ lvgl/src/lv_core/lv_indev.c:1344:50
	and	r0, r0, #227
	adds	r0, #12
	strb.w	r0, [r4, #42]
	.loc	14 1345 27                      @ lvgl/src/lv_core/lv_indev.c:1345:27
	add	r10, r1
.Ltmp794:
	@DEBUG_VALUE: act_x <- $r10
	.loc	14 1346 27                      @ lvgl/src/lv_core/lv_indev.c:1346:27
	add	r7, r2
.Ltmp795:
	@DEBUG_VALUE: act_y <- $r7
	.loc	14 0 27 is_stmt 0               @ lvgl/src/lv_core/lv_indev.c:0:27
	b	.LBB31_30
.Ltmp796:
.LBB31_24:
	@DEBUG_VALUE: indev_drag:drag_obj <- $r5
	@DEBUG_VALUE: indev_drag:proc <- $r4
	.loc	14 1364 20 is_stmt 1            @ lvgl/src/lv_core/lv_indev.c:1364:20
	cmp.w	r11, #0
	beq	.LBB31_30
.Ltmp797:
@ %bb.25:
	@DEBUG_VALUE: indev_drag:drag_obj <- $r5
	@DEBUG_VALUE: indev_drag:proc <- $r4
	.loc	14 1365 24                      @ lvgl/src/lv_core/lv_indev.c:1365:24
	ldrsh.w	r0, [r4, #16]
	.loc	14 1365 70 is_stmt 0            @ lvgl/src/lv_core/lv_indev.c:1365:70
	ldrsh.w	r1, [r4, #18]
	.loc	14 0 0                          @ lvgl/src/lv_core/lv_indev.c:0:0
	ldrb.w	r6, [r4, #42]
	.loc	14 1365 24                      @ lvgl/src/lv_core/lv_indev.c:1365:24
	add.w	r2, r0, r0, asr #15
	.loc	14 1365 70                      @ lvgl/src/lv_core/lv_indev.c:1365:70
	add.w	r3, r1, r1, asr #15
	.loc	14 1365 24                      @ lvgl/src/lv_core/lv_indev.c:1365:24
	eor.w	r2, r2, r0, asr #15
	uxth	r2, r2
	.loc	14 1365 70                      @ lvgl/src/lv_core/lv_indev.c:1365:70
	eor.w	r3, r3, r1, asr #15
	uxth	r3, r3
.Ltmp798:
	.loc	14 1365 24                      @ lvgl/src/lv_core/lv_indev.c:1365:24
	cmp	r2, r3
.Ltmp799:
	.loc	14 0 0                          @ lvgl/src/lv_core/lv_indev.c:0:0
	bic	r2, r6, #28
.Ltmp800:
	.loc	14 1365 24                      @ lvgl/src/lv_core/lv_indev.c:1365:24
	bls	.LBB31_29
.Ltmp801:
@ %bb.26:
	@DEBUG_VALUE: indev_drag:drag_obj <- $r5
	@DEBUG_VALUE: indev_drag:proc <- $r4
	.loc	14 0 0                          @ lvgl/src/lv_core/lv_indev.c:0:0
	uxth	r0, r0
.Ltmp802:
	.loc	14 1366 54 is_stmt 1            @ lvgl/src/lv_core/lv_indev.c:1366:54
	orr	r1, r2, #4
	strb.w	r1, [r4, #42]
	movs	r1, #0
	.loc	14 1367 56                      @ lvgl/src/lv_core/lv_indev.c:1367:56
	strh	r1, [r4, #18]
	.loc	14 1368 31                      @ lvgl/src/lv_core/lv_indev.c:1368:31
	add	r10, r0
.Ltmp803:
	@DEBUG_VALUE: act_x <- $r10
	.loc	14 0 31 is_stmt 0               @ lvgl/src/lv_core/lv_indev.c:0:31
	b	.LBB31_30
.Ltmp804:
.LBB31_27:
	@DEBUG_VALUE: indev_drag:drag_obj <- $r5
	@DEBUG_VALUE: indev_drag:proc <- $r4
	.loc	14 1357 20 is_stmt 1            @ lvgl/src/lv_core/lv_indev.c:1357:20
	cmp.w	r11, #0
	beq	.LBB31_30
.Ltmp805:
@ %bb.28:
	@DEBUG_VALUE: indev_drag:drag_obj <- $r5
	@DEBUG_VALUE: indev_drag:proc <- $r4
	.loc	14 1358 50                      @ lvgl/src/lv_core/lv_indev.c:1358:50
	ldrb.w	r0, [r4, #42]
	.loc	14 1360 59                      @ lvgl/src/lv_core/lv_indev.c:1360:59
	ldrh	r1, [r4, #18]
	.loc	14 1358 50                      @ lvgl/src/lv_core/lv_indev.c:1358:50
	and	r0, r0, #227
	adds	r0, #8
	strb.w	r0, [r4, #42]
	movs	r0, #0
	.loc	14 1359 52                      @ lvgl/src/lv_core/lv_indev.c:1359:52
	strh	r0, [r4, #16]
	.loc	14 1360 27                      @ lvgl/src/lv_core/lv_indev.c:1360:27
	add	r7, r1
.Ltmp806:
	@DEBUG_VALUE: act_y <- $r7
	.loc	14 0 27 is_stmt 0               @ lvgl/src/lv_core/lv_indev.c:0:27
	b	.LBB31_30
.Ltmp807:
.LBB31_29:
	@DEBUG_VALUE: indev_drag:drag_obj <- $r5
	@DEBUG_VALUE: indev_drag:proc <- $r4
	uxth	r0, r1
.Ltmp808:
	.loc	14 1371 54 is_stmt 1            @ lvgl/src/lv_core/lv_indev.c:1371:54
	orr	r1, r2, #8
	.loc	14 1373 31                      @ lvgl/src/lv_core/lv_indev.c:1373:31
	add	r7, r0
.Ltmp809:
	@DEBUG_VALUE: act_y <- $r7
	.loc	14 1371 54                      @ lvgl/src/lv_core/lv_indev.c:1371:54
	strb.w	r1, [r4, #42]
	movs	r1, #0
	.loc	14 1372 56                      @ lvgl/src/lv_core/lv_indev.c:1372:56
	strh	r1, [r4, #16]
.Ltmp810:
.LBB31_30:
	@DEBUG_VALUE: indev_drag:drag_obj <- $r5
	@DEBUG_VALUE: indev_drag:proc <- $r4
	@DEBUG_VALUE: act_x <- $r10
	@DEBUG_VALUE: act_y <- $r7
	.loc	14 1379 48                      @ lvgl/src/lv_core/lv_indev.c:1379:48
	cmp.w	r8, #1
	it	ne
	cmpne.w	r8, #3
	bne	.LBB31_45
.Ltmp811:
.LBB31_31:
	@DEBUG_VALUE: act_x <- $r10
	@DEBUG_VALUE: act_y <- $r7
	@DEBUG_VALUE: indev_drag:drag_obj <- $r5
	@DEBUG_VALUE: indev_drag:proc <- $r4
	.loc	14 1383 51                      @ lvgl/src/lv_core/lv_indev.c:1383:51
	ldrh	r0, [r4, #12]
	.loc	14 1383 23 is_stmt 0            @ lvgl/src/lv_core/lv_indev.c:1383:23
	add	r10, r0
.Ltmp812:
	@DEBUG_VALUE: act_x <- $r10
.LBB31_32:
	@DEBUG_VALUE: act_x <- $r10
	@DEBUG_VALUE: act_y <- $r7
	@DEBUG_VALUE: indev_drag:drag_obj <- $r5
	@DEBUG_VALUE: indev_drag:proc <- $r4
	@DEBUG_VALUE: act_x <- $r10
	.loc	14 1385 48 is_stmt 1            @ lvgl/src/lv_core/lv_indev.c:1385:48
	sub.w	r0, r8, #2
	cmp	r0, #2
	blo	.LBB31_35
.Ltmp813:
@ %bb.33:
	@DEBUG_VALUE: act_x <- $r10
	@DEBUG_VALUE: act_y <- $r7
	@DEBUG_VALUE: indev_drag:drag_obj <- $r5
	@DEBUG_VALUE: indev_drag:proc <- $r4
	cmp.w	r8, #4
	bne	.LBB31_36
.Ltmp814:
@ %bb.34:
	@DEBUG_VALUE: act_x <- $r10
	@DEBUG_VALUE: act_y <- $r7
	@DEBUG_VALUE: indev_drag:drag_obj <- $r5
	@DEBUG_VALUE: indev_drag:proc <- $r4
	.loc	14 1388 17                      @ lvgl/src/lv_core/lv_indev.c:1388:17
	ldrsh.w	r0, [r4, #16]
	.loc	14 1388 63 is_stmt 0            @ lvgl/src/lv_core/lv_indev.c:1388:63
	ldrsh.w	r1, [r4, #18]
	.loc	14 1388 17                      @ lvgl/src/lv_core/lv_indev.c:1388:17
	add.w	r2, r0, r0, asr #15
	eor.w	r0, r2, r0, asr #15
	uxth	r0, r0
	.loc	14 1388 63                      @ lvgl/src/lv_core/lv_indev.c:1388:63
	add.w	r2, r1, r1, asr #15
	eor.w	r1, r2, r1, asr #15
	uxth	r1, r1
.Ltmp815:
	.loc	14 1385 16 is_stmt 1            @ lvgl/src/lv_core/lv_indev.c:1385:16
	cmp	r0, r1
	bhs	.LBB31_36
.Ltmp816:
.LBB31_35:
	@DEBUG_VALUE: act_x <- $r10
	@DEBUG_VALUE: act_y <- $r7
	@DEBUG_VALUE: indev_drag:drag_obj <- $r5
	@DEBUG_VALUE: indev_drag:proc <- $r4
	.loc	14 1389 51                      @ lvgl/src/lv_core/lv_indev.c:1389:51
	ldrh	r0, [r4, #14]
	.loc	14 1389 23 is_stmt 0            @ lvgl/src/lv_core/lv_indev.c:1389:23
	add	r7, r0
.Ltmp817:
	@DEBUG_VALUE: act_y <- $r7
.LBB31_36:
	@DEBUG_VALUE: act_x <- $r10
	@DEBUG_VALUE: act_y <- $r7
	@DEBUG_VALUE: indev_drag:drag_obj <- $r5
	@DEBUG_VALUE: indev_drag:proc <- $r4
	@DEBUG_VALUE: act_y <- $r7
	.loc	14 1393 42 is_stmt 1            @ lvgl/src/lv_core/lv_indev.c:1393:42
	movw	r8, :lower16:indev_act
	movt	r8, :upper16:indev_act
	ldr.w	r0, [r8]
	.loc	14 1393 60 is_stmt 0            @ lvgl/src/lv_core/lv_indev.c:1393:60
	ldr	r0, [r0, #12]
	.loc	14 1393 17                      @ lvgl/src/lv_core/lv_indev.c:1393:17
	bl	lv_disp_get_inv_buf_size
	.loc	14 1395 13 is_stmt 1            @ lvgl/src/lv_core/lv_indev.c:1395:13
	sxth.w	r1, r10
	.loc	14 1393 17                      @ lvgl/src/lv_core/lv_indev.c:1393:17
	mov	r6, r0
.Ltmp818:
	@DEBUG_VALUE: inv_buf_size <- undef
	.loc	14 1395 13                      @ lvgl/src/lv_core/lv_indev.c:1395:13
	sxth	r2, r7
	mov	r0, r5
	bl	lv_obj_set_pos
	.loc	14 1396 46                      @ lvgl/src/lv_core/lv_indev.c:1396:46
	ldrb.w	r0, [r4, #42]
	orr	r0, r0, #2
	strb.w	r0, [r4, #42]
.Ltmp819:
	.loc	14 1399 33                      @ lvgl/src/lv_core/lv_indev.c:1399:33
	ldrh	r0, [r5, #16]
	.loc	14 1399 46 is_stmt 0            @ lvgl/src/lv_core/lv_indev.c:1399:46
	cmp	r0, r9
	bne	.LBB31_41
.Ltmp820:
@ %bb.37:
	@DEBUG_VALUE: act_x <- $r10
	@DEBUG_VALUE: act_y <- $r7
	@DEBUG_VALUE: indev_drag:drag_obj <- $r5
	@DEBUG_VALUE: indev_drag:proc <- $r4
	.loc	14 1399 66                      @ lvgl/src/lv_core/lv_indev.c:1399:66
	ldrh	r0, [r5, #18]
.Ltmp821:
	.loc	14 1399 16                      @ lvgl/src/lv_core/lv_indev.c:1399:16
	ldr	r1, [sp, #8]                    @ 4-byte Reload
	cmp	r0, r1
	bne	.LBB31_41
.Ltmp822:
@ %bb.38:
	@DEBUG_VALUE: act_x <- $r10
	@DEBUG_VALUE: act_y <- $r7
	@DEBUG_VALUE: indev_drag:drag_obj <- $r5
	@DEBUG_VALUE: indev_drag:proc <- $r4
	.loc	14 1403 57 is_stmt 1            @ lvgl/src/lv_core/lv_indev.c:1403:57
	mov	r0, r5
	bl	lv_obj_get_parent
	.loc	14 1403 40 is_stmt 0            @ lvgl/src/lv_core/lv_indev.c:1403:40
	bl	lv_obj_get_width
	mov	r7, r0
.Ltmp823:
	@DEBUG_VALUE: act_par_w <- $r7
	.loc	14 1404 58 is_stmt 1            @ lvgl/src/lv_core/lv_indev.c:1404:58
	mov	r0, r5
	bl	lv_obj_get_parent
	.loc	14 1404 40 is_stmt 0            @ lvgl/src/lv_core/lv_indev.c:1404:40
	bl	lv_obj_get_height
.Ltmp824:
	.loc	14 1405 44 is_stmt 1            @ lvgl/src/lv_core/lv_indev.c:1405:44
	ldr	r1, [sp, #4]                    @ 4-byte Reload
	cmp	r7, r1
.Ltmp825:
	@DEBUG_VALUE: act_par_h <- $r0
	bne	.LBB31_41
.Ltmp826:
@ %bb.39:
	@DEBUG_VALUE: act_x <- $r10
	@DEBUG_VALUE: act_par_w <- $r7
	@DEBUG_VALUE: indev_drag:drag_obj <- $r5
	@DEBUG_VALUE: indev_drag:proc <- $r4
	@DEBUG_VALUE: act_par_h <- $r0
	ldr	r1, [sp]                        @ 4-byte Reload
	cmp	r0, r1
	bne	.LBB31_41
.Ltmp827:
@ %bb.40:
	@DEBUG_VALUE: act_x <- $r10
	@DEBUG_VALUE: act_par_w <- $r7
	@DEBUG_VALUE: indev_drag:drag_obj <- $r5
	@DEBUG_VALUE: indev_drag:proc <- $r4
	@DEBUG_VALUE: act_par_h <- $r0
	.loc	14 1406 74                      @ lvgl/src/lv_core/lv_indev.c:1406:74
	ldr.w	r0, [r8]
.Ltmp828:
	.loc	14 1406 92 is_stmt 0            @ lvgl/src/lv_core/lv_indev.c:1406:92
	ldr	r0, [r0, #12]
	.loc	14 1406 49                      @ lvgl/src/lv_core/lv_indev.c:1406:49
	bl	lv_disp_get_inv_buf_size
	.loc	14 1407 47 is_stmt 1            @ lvgl/src/lv_core/lv_indev.c:1407:47
	ldr.w	r1, [r8]
.Ltmp829:
	@DEBUG_VALUE: new_inv_buf_size <- $r0
	.loc	14 1407 88 is_stmt 0            @ lvgl/src/lv_core/lv_indev.c:1407:88
	subs	r0, r0, r6
.Ltmp830:
	.loc	14 1407 65                      @ lvgl/src/lv_core/lv_indev.c:1407:65
	ldr	r2, [r1, #12]
	.loc	14 1407 21                      @ lvgl/src/lv_core/lv_indev.c:1407:21
	uxth	r1, r0
	mov	r0, r2
	bl	_lv_disp_pop_from_inv_buf
.Ltmp831:
.LBB31_41:
	@DEBUG_VALUE: act_x <- $r10
	@DEBUG_VALUE: indev_drag:drag_obj <- $r5
	@DEBUG_VALUE: indev_drag:proc <- $r4
	.loc	14 1413 16 is_stmt 1            @ lvgl/src/lv_core/lv_indev.c:1413:16
	cmp.w	r11, #0
	beq	.LBB31_44
.Ltmp832:
@ %bb.42:
	@DEBUG_VALUE: act_x <- $r10
	@DEBUG_VALUE: indev_drag:drag_obj <- $r5
	@DEBUG_VALUE: indev_drag:proc <- $r4
	.loc	14 1414 27                      @ lvgl/src/lv_core/lv_indev.c:1414:27
	ldr	r3, [r5, #28]
	.loc	14 1414 69 is_stmt 0            @ lvgl/src/lv_core/lv_indev.c:1414:69
	ldr.w	r2, [r8]
	.loc	14 1414 17                      @ lvgl/src/lv_core/lv_indev.c:1414:17
	movs	r1, #17
	mov	r0, r5
	blx	r3
.Ltmp833:
	.loc	14 1415 20 is_stmt 1            @ lvgl/src/lv_core/lv_indev.c:1415:20
	mov	r0, r4
	bl	indev_reset_check
.Ltmp834:
	.loc	14 1415 20 is_stmt 0            @ lvgl/src/lv_core/lv_indev.c:1415:20
	cbnz	r0, .LBB31_44
.Ltmp835:
@ %bb.43:
	@DEBUG_VALUE: act_x <- $r10
	@DEBUG_VALUE: indev_drag:drag_obj <- $r5
	@DEBUG_VALUE: indev_drag:proc <- $r4
	.loc	14 1417 17 is_stmt 1            @ lvgl/src/lv_core/lv_indev.c:1417:17
	movs	r1, #8
	movs	r2, #0
	mov	r0, r5
	bl	lv_event_send
.Ltmp836:
	.loc	14 1418 20                      @ lvgl/src/lv_core/lv_indev.c:1418:20
	mov	r0, r4
	bl	indev_reset_check
.Ltmp837:
.LBB31_44:
	@DEBUG_VALUE: indev_drag:proc <- $r4
	.loc	14 0 0 is_stmt 0                @ lvgl/src/lv_core/lv_indev.c:0:0
	add	sp, #12
	pop.w	{r4, r5, r6, r7, r8, r9, r10, r11, pc}
.Ltmp838:
.LBB31_45:
	@DEBUG_VALUE: act_x <- $r10
	@DEBUG_VALUE: act_y <- $r7
	@DEBUG_VALUE: indev_drag:drag_obj <- $r5
	@DEBUG_VALUE: indev_drag:proc <- $r4
	.loc	14 1379 48 is_stmt 1            @ lvgl/src/lv_core/lv_indev.c:1379:48
	cmp.w	r8, #4
	bne	.LBB31_32
.Ltmp839:
@ %bb.46:
	@DEBUG_VALUE: act_x <- $r10
	@DEBUG_VALUE: act_y <- $r7
	@DEBUG_VALUE: indev_drag:drag_obj <- $r5
	@DEBUG_VALUE: indev_drag:proc <- $r4
	.loc	14 1382 17                      @ lvgl/src/lv_core/lv_indev.c:1382:17
	ldrsh.w	r0, [r4, #16]
	.loc	14 1382 63 is_stmt 0            @ lvgl/src/lv_core/lv_indev.c:1382:63
	ldrsh.w	r1, [r4, #18]
	.loc	14 1382 17                      @ lvgl/src/lv_core/lv_indev.c:1382:17
	add.w	r2, r0, r0, asr #15
	eor.w	r0, r2, r0, asr #15
	uxth	r0, r0
	.loc	14 1382 63                      @ lvgl/src/lv_core/lv_indev.c:1382:63
	add.w	r2, r1, r1, asr #15
	eor.w	r1, r2, r1, asr #15
	uxth	r1, r1
.Ltmp840:
	.loc	14 1379 16 is_stmt 1            @ lvgl/src/lv_core/lv_indev.c:1379:16
	cmp	r0, r1
	bhi.w	.LBB31_31
	b	.LBB31_32
.Ltmp841:
.Lfunc_end31:
	.size	indev_drag, .Lfunc_end31-indev_drag
	.cfi_endproc
	.cantunwind
	.fnend
                                        @ -- End function
	.section	.text.indev_gesture,"ax",%progbits
	.p2align	3                               @ -- Begin function indev_gesture
	.type	indev_gesture,%function
	.code	16                              @ @indev_gesture
	.thumb_func
indev_gesture:
.Lfunc_begin32:
	.loc	14 1519 0                       @ lvgl/src/lv_core/lv_indev.c:1519:0
	.fnstart
	.cfi_startproc
@ %bb.0:
	@DEBUG_VALUE: indev_gesture:proc <- $r0
	.save	{r4, r5, r6, lr}
	push	{r4, r5, r6, lr}
	.cfi_def_cfa_offset 16
	.cfi_offset lr, -4
	.cfi_offset r6, -8
	.cfi_offset r5, -12
	.cfi_offset r4, -16
	mov	r4, r0
.Ltmp842:
	@DEBUG_VALUE: indev_gesture:proc <- $r4
	.loc	14 1521 28 prologue_end         @ lvgl/src/lv_core/lv_indev.c:1521:28
	ldrb.w	r0, [r0, #42]
.Ltmp843:
	.loc	14 1521 8 is_stmt 0             @ lvgl/src/lv_core/lv_indev.c:1521:8
	lsls	r0, r0, #26
	bmi	.LBB32_4
.Ltmp844:
@ %bb.1:
	@DEBUG_VALUE: indev_gesture:proc <- $r4
	.loc	14 1523 50 is_stmt 1            @ lvgl/src/lv_core/lv_indev.c:1523:50
	ldr	r5, [r4, #24]
.Ltmp845:
	@DEBUG_VALUE: indev_gesture:gesture_obj <- $r5
	.loc	14 1526 23                      @ lvgl/src/lv_core/lv_indev.c:1526:23
	cbz	r5, .LBB32_4
.Ltmp846:
	.p2align	2
.LBB32_2:                               @ =>This Inner Loop Header: Depth=1
	@DEBUG_VALUE: indev_gesture:gesture_obj <- $r5
	@DEBUG_VALUE: indev_gesture:proc <- $r4
	@DEBUG_VALUE: indev_gesture:gesture_obj <- $r5
	.loc	14 1526 26 is_stmt 0            @ lvgl/src/lv_core/lv_indev.c:1526:26
	mov	r0, r5
	bl	lv_obj_get_gesture_parent
	.loc	14 1526 5                       @ lvgl/src/lv_core/lv_indev.c:1526:5
	cbz	r0, .LBB32_5
.Ltmp847:
@ %bb.3:                                @   in Loop: Header=BB32_2 Depth=1
	@DEBUG_VALUE: indev_gesture:gesture_obj <- $r5
	@DEBUG_VALUE: indev_gesture:proc <- $r4
	.loc	14 1527 23 is_stmt 1            @ lvgl/src/lv_core/lv_indev.c:1527:23
	mov	r0, r5
	bl	lv_obj_get_parent
	mov	r5, r0
.Ltmp848:
	@DEBUG_VALUE: indev_gesture:gesture_obj <- $r5
	.loc	14 1526 23                      @ lvgl/src/lv_core/lv_indev.c:1526:23
	cmp	r0, #0
	bne	.LBB32_2
.Ltmp849:
.LBB32_4:
	@DEBUG_VALUE: indev_gesture:proc <- $r4
	.loc	14 0 0 is_stmt 0                @ lvgl/src/lv_core/lv_indev.c:0:0
	pop	{r4, r5, r6, pc}
.Ltmp850:
.LBB32_5:
	@DEBUG_VALUE: indev_gesture:gesture_obj <- $r5
	@DEBUG_VALUE: indev_gesture:proc <- $r4
	.loc	14 1532 51 is_stmt 1            @ lvgl/src/lv_core/lv_indev.c:1532:51
	movw	r12, :lower16:indev_act
	.loc	14 1532 9 is_stmt 0             @ lvgl/src/lv_core/lv_indev.c:1532:9
	ldrsh.w	r0, [r4, #12]
	.loc	14 1532 51                      @ lvgl/src/lv_core/lv_indev.c:1532:51
	movt	r12, :upper16:indev_act
	.loc	14 1532 9                       @ lvgl/src/lv_core/lv_indev.c:1532:9
	uxth.w	lr, r0
	.loc	14 1532 51                      @ lvgl/src/lv_core/lv_indev.c:1532:51
	ldr.w	r6, [r12]
	.loc	14 1532 9                       @ lvgl/src/lv_core/lv_indev.c:1532:9
	add.w	r1, r0, r0, asr #15
	eor.w	r2, r1, r0, asr #15
	uxth	r2, r2
	.loc	14 1532 69                      @ lvgl/src/lv_core/lv_indev.c:1532:69
	ldrb	r1, [r6, #22]
	.loc	14 1532 91                      @ lvgl/src/lv_core/lv_indev.c:1532:91
	cmp	r2, r1
	bhs	.LBB32_8
.Ltmp851:
@ %bb.6:
	@DEBUG_VALUE: indev_gesture:gesture_obj <- $r5
	@DEBUG_VALUE: indev_gesture:proc <- $r4
	.loc	14 1533 9 is_stmt 1             @ lvgl/src/lv_core/lv_indev.c:1533:9
	ldrsh.w	r2, [r4, #14]
	add.w	r0, r2, r2, asr #15
	eor.w	r0, r0, r2, asr #15
	uxth	r0, r0
.Ltmp852:
	.loc	14 1532 8                       @ lvgl/src/lv_core/lv_indev.c:1532:8
	cmp	r0, r1
	bhs	.LBB32_8
.Ltmp853:
@ %bb.7:
	@DEBUG_VALUE: indev_gesture:gesture_obj <- $r5
	@DEBUG_VALUE: indev_gesture:proc <- $r4
	.loc	14 0 8 is_stmt 0                @ lvgl/src/lv_core/lv_indev.c:0:8
	movs	r0, #0
.Ltmp854:
	.loc	14 1534 43 is_stmt 1            @ lvgl/src/lv_core/lv_indev.c:1534:43
	str.w	r0, [r4, #38]
.Ltmp855:
.LBB32_8:
	@DEBUG_VALUE: indev_gesture:gesture_obj <- $r5
	@DEBUG_VALUE: indev_gesture:proc <- $r4
	.loc	14 1539 39                      @ lvgl/src/lv_core/lv_indev.c:1539:39
	ldrh	r0, [r4, #38]
	.loc	14 1540 39                      @ lvgl/src/lv_core/lv_indev.c:1540:39
	ldrh	r3, [r4, #40]
	.loc	14 1540 67 is_stmt 0            @ lvgl/src/lv_core/lv_indev.c:1540:67
	ldrh	r2, [r4, #14]
	.loc	14 1539 39 is_stmt 1            @ lvgl/src/lv_core/lv_indev.c:1539:39
	add	r0, lr
	strh	r0, [r4, #38]
	sxth	r1, r0
	.loc	14 1540 39                      @ lvgl/src/lv_core/lv_indev.c:1540:39
	adds	r0, r3, r2
.Ltmp856:
	.loc	14 1542 9                       @ lvgl/src/lv_core/lv_indev.c:1542:9
	mov	lr, r1
	cmp	r1, #0
.Ltmp857:
	.loc	14 0 0 is_stmt 0                @ lvgl/src/lv_core/lv_indev.c:0:0
	sxth	r3, r0
	.loc	14 1540 39 is_stmt 1            @ lvgl/src/lv_core/lv_indev.c:1540:39
	strh	r0, [r4, #40]
.Ltmp858:
	.loc	14 1542 9                       @ lvgl/src/lv_core/lv_indev.c:1542:9
	it	mi
	rsbmi.w	lr, r1, #0
	.loc	14 1542 76 is_stmt 0            @ lvgl/src/lv_core/lv_indev.c:1542:76
	ldrb	r2, [r6, #23]
	.loc	14 1542 91                      @ lvgl/src/lv_core/lv_indev.c:1542:91
	cmp	lr, r2
	bgt	.LBB32_10
.Ltmp859:
@ %bb.9:
	@DEBUG_VALUE: indev_gesture:gesture_obj <- $r5
	@DEBUG_VALUE: indev_gesture:proc <- $r4
	.loc	14 1543 9 is_stmt 1             @ lvgl/src/lv_core/lv_indev.c:1543:9
	add.w	r0, r3, r3, asr #15
	eor.w	r0, r0, r3, asr #15
	uxth	r0, r0
.Ltmp860:
	.loc	14 1542 8                       @ lvgl/src/lv_core/lv_indev.c:1542:8
	cmp	r0, r2
	bls	.LBB32_4
.Ltmp861:
.LBB32_10:
	@DEBUG_VALUE: indev_gesture:gesture_obj <- $r5
	@DEBUG_VALUE: indev_gesture:proc <- $r4
	.loc	14 1545 42                      @ lvgl/src/lv_core/lv_indev.c:1545:42
	ldrb.w	r0, [r4, #42]
.Ltmp862:
	.loc	14 1547 61                      @ lvgl/src/lv_core/lv_indev.c:1547:61
	cmp	r3, #0
.Ltmp863:
	.loc	14 1545 42                      @ lvgl/src/lv_core/lv_indev.c:1545:42
	orr	r2, r0, #32
	mov.w	r0, #0
	strb.w	r2, [r4, #42]
	mov.w	r2, #2
.Ltmp864:
	.loc	14 1547 61                      @ lvgl/src/lv_core/lv_indev.c:1547:61
	it	gt
	movgt	r0, #1
	it	mi
	rsbmi	r3, r3, #0
.Ltmp865:
	.loc	14 1547 12 is_stmt 0            @ lvgl/src/lv_core/lv_indev.c:1547:12
	cmp	r1, #0
	.loc	14 1560 9 is_stmt 1             @ lvgl/src/lv_core/lv_indev.c:1560:9
	mov.w	r1, #20
	.loc	14 1547 12                      @ lvgl/src/lv_core/lv_indev.c:1547:12
	it	gt
	movgt	r2, #3
	cmp	lr, r3
	it	gt
	movgt	r0, r2
	.loc	14 1560 64                      @ lvgl/src/lv_core/lv_indev.c:1560:64
	ldr.w	r2, [r12]
.Ltmp866:
	.loc	14 0 0 is_stmt 0                @ lvgl/src/lv_core/lv_indev.c:0:0
	strb.w	r0, [r4, #36]
.Ltmp867:
	.loc	14 1560 9                       @ lvgl/src/lv_core/lv_indev.c:1560:9
	mov	r0, r5
	.loc	14 1560 22                      @ lvgl/src/lv_core/lv_indev.c:1560:22
	ldr	r3, [r5, #28]
	.loc	14 1560 9                       @ lvgl/src/lv_core/lv_indev.c:1560:9
	blx	r3
.Ltmp868:
	.loc	14 1561 12 is_stmt 1            @ lvgl/src/lv_core/lv_indev.c:1561:12
	mov	r0, r4
	bl	indev_reset_check
.Ltmp869:
	.loc	14 1561 12 is_stmt 0            @ lvgl/src/lv_core/lv_indev.c:1561:12
	cmp	r0, #0
.Ltmp870:
	.loc	14 0 0                          @ lvgl/src/lv_core/lv_indev.c:0:0
	it	ne
	popne	{r4, r5, r6, pc}
.Ltmp871:
.LBB32_11:
	.loc	14 1562 9 is_stmt 1             @ lvgl/src/lv_core/lv_indev.c:1562:9
	movs	r1, #11
	movs	r2, #0
	mov	r0, r5
	bl	lv_event_send
.Ltmp872:
	.loc	14 1563 12                      @ lvgl/src/lv_core/lv_indev.c:1563:12
	mov	r0, r4
	bl	indev_reset_check
.Ltmp873:
	.loc	14 0 0 is_stmt 0                @ lvgl/src/lv_core/lv_indev.c:0:0
	pop	{r4, r5, r6, pc}
.Ltmp874:
.Lfunc_end32:
	.size	indev_gesture, .Lfunc_end32-indev_gesture
	.cfi_endproc
	.cantunwind
	.fnend
                                        @ -- End function
	.type	indev_act,%object               @ @indev_act
	.section	.bss.indev_act,"aw",%nobits
	.p2align	2
indev_act:
	.long	0
	.size	indev_act, 4

	.type	indev_obj_act,%object           @ @indev_obj_act
	.section	.bss.indev_obj_act,"aw",%nobits
	.p2align	2
indev_obj_act:
	.long	0
	.size	indev_obj_act, 4

	.section	".note.GNU-stack","",%progbits
	.eabi_attribute	30, 1	@ Tag_ABI_optimization_goals
	.ARM_attribute	16, 1	@ Tag_AV_eba