	.text
	.syntax unified
	.eabi_attribute	67, "2.09"	@ Tag_conformance
	.cpu	cortex-m7
	.eabi_attribute	6, 13	@ Tag_CPU_arch
	.eabi_attribute	7, 77	@ Tag_CPU_arch_profile
	.eabi_attribute	8, 0	@ Tag_ARM_ISA_use
	.eabi_attribute	9, 2	@ Tag_THUMB_ISA_use
	.fpu	fpv5-d16
	.eabi_attribute	36, 1	@ Tag_FP_HP_extension
	.eabi_attribute	34, 1	@ Tag_CPU_unaligned_access
	.eabi_attribute	17, 1	@ Tag_ABI_PCS_GOT_use
	.eabi_attribute	20, 2	@ Tag_ABI_FP_denormal
	.eabi_attribute	21, 0	@ Tag_ABI_FP_exceptions
	.eabi_attribute	23, 1	@ Tag_ABI_FP_number_model
	.eabi_attribute	24, 1	@ Tag_ABI_align_needed
	.eabi_attribute	25, 1	@ Tag_ABI_align_preserved
	.eabi_attribute	28, 1	@ Tag_ABI_VFP_args
	.eabi_attribute	38, 1	@ Tag_ABI_FP_16bit_format
	.eabi_attribute	18, 2	@ Tag_ABI_PCS_wchar_t
	.eabi_attribute	26, 1	@ Tag_ABI_enum_size
	.eabi_attribute	14, 0	@ Tag_ABI_PCS_R9_use
	.file	"lv_img_decoder.c"
	.file	1 "E:\\Smart-access-control\\Hardware\\CODE" "lvgl/src/lv_draw/../lv_core/../lv_misc/lv_types.h"
	.file	2 "E:\\Smart-access-control\\Hardware\\CODE" "lvgl/src/lv_draw/lv_img_decoder.h"
	.file	3 "E:\\Smart-access-control\\Hardware\\CODE" "lvgl/src/lv_draw/lv_img_buf.h"
	.file	4 "D:\\Keil_v5\\ARM\\ARMCLANG\\Bin\\..\\include" "stdint.h"
	.file	5 "E:\\Smart-access-control\\Hardware\\CODE" "lvgl/src/lv_draw/../lv_core/../lv_misc/lv_color.h"
	.section	.text._lv_img_decoder_init,"ax",%progbits
	.hidden	_lv_img_decoder_init            @ -- Begin function _lv_img_decoder_init
	.globl	_lv_img_decoder_init
	.p2align	3
	.type	_lv_img_decoder_init,%function
	.code	16                              @ @_lv_img_decoder_init
	.thumb_func
_lv_img_decoder_init:
.Lfunc_begin0:
	.file	6 "E:\\Smart-access-control\\Hardware\\CODE" "lvgl/src/lv_draw/lv_img_decoder.c"
	.loc	6 58 0                          @ lvgl/src/lv_draw/lv_img_decoder.c:58:0
	.fnstart
	.cfi_sections .debug_frame
	.cfi_startproc
@ %bb.0:
	.save	{r7, lr}
	push	{r7, lr}
	.cfi_def_cfa_offset 8
	.cfi_offset lr, -4
	.cfi_offset r7, -8
	.pad	#8
	sub	sp, #8
	.cfi_def_cfa_offset 16
.Ltmp0:
	.loc	6 59 5 prologue_end             @ lvgl/src/lv_draw/lv_img_decoder.c:59:5
	movw	r0, :lower16:_lv_img_defoder_ll
	movt	r0, :upper16:_lv_img_defoder_ll
	movs	r1, #16
	bl	_lv_ll_init
	.loc	6 64 15                         @ lvgl/src/lv_draw/lv_img_decoder.c:64:15
	bl	lv_img_decoder_create
	.loc	6 64 13 is_stmt 0               @ lvgl/src/lv_draw/lv_img_decoder.c:64:13
	str	r0, [sp, #4]
	.loc	6 65 5 is_stmt 1                @ lvgl/src/lv_draw/lv_img_decoder.c:65:5
	b	.LBB0_1
.LBB0_1:
.Ltmp1:
	.loc	6 65 5 is_stmt 0                @ lvgl/src/lv_draw/lv_img_decoder.c:65:5
	ldr	r0, [sp, #4]
	bl	lv_debug_check_null
.Ltmp2:
	.loc	6 65 5                          @ lvgl/src/lv_draw/lv_img_decoder.c:65:5
	cbnz	r0, .LBB0_4
	b	.LBB0_2
.LBB0_2:
.Ltmp3:
	.loc	6 65 5                          @ lvgl/src/lv_draw/lv_img_decoder.c:65:5
	ldr	r2, [sp, #4]
	movw	r0, :lower16:.L.str
	movt	r0, :upper16:.L.str
	movs	r3, #0
	bl	lv_debug_log_error
	b	.LBB0_3
.LBB0_3:                                @ =>This Inner Loop Header: Depth=1
	b	.LBB0_3
.Ltmp4:
.LBB0_4:
	.loc	6 65 5                          @ lvgl/src/lv_draw/lv_img_decoder.c:65:5
	b	.LBB0_5
.Ltmp5:
.LBB0_5:
	.loc	6 66 8 is_stmt 1                @ lvgl/src/lv_draw/lv_img_decoder.c:66:8
	ldr	r0, [sp, #4]
.Ltmp6:
	.loc	6 66 8 is_stmt 0                @ lvgl/src/lv_draw/lv_img_decoder.c:66:8
	cbnz	r0, .LBB0_7
	b	.LBB0_6
.LBB0_6:
.Ltmp7:
	.loc	6 68 9 is_stmt 1                @ lvgl/src/lv_draw/lv_img_decoder.c:68:9
	b	.LBB0_8
.Ltmp8:
.LBB0_7:
	.loc	6 71 32                         @ lvgl/src/lv_draw/lv_img_decoder.c:71:32
	ldr	r0, [sp, #4]
	.loc	6 71 5 is_stmt 0                @ lvgl/src/lv_draw/lv_img_decoder.c:71:5
	movw	r1, :lower16:lv_img_decoder_built_in_info
	movt	r1, :upper16:lv_img_decoder_built_in_info
	bl	lv_img_decoder_set_info_cb
	.loc	6 72 32 is_stmt 1               @ lvgl/src/lv_draw/lv_img_decoder.c:72:32
	ldr	r0, [sp, #4]
	.loc	6 72 5 is_stmt 0                @ lvgl/src/lv_draw/lv_img_decoder.c:72:5
	movw	r1, :lower16:lv_img_decoder_built_in_open
	movt	r1, :upper16:lv_img_decoder_built_in_open
	bl	lv_img_decoder_set_open_cb
	.loc	6 73 37 is_stmt 1               @ lvgl/src/lv_draw/lv_img_decoder.c:73:37
	ldr	r0, [sp, #4]
	.loc	6 73 5 is_stmt 0                @ lvgl/src/lv_draw/lv_img_decoder.c:73:5
	movw	r1, :lower16:lv_img_decoder_built_in_read_line
	movt	r1, :upper16:lv_img_decoder_built_in_read_line
	bl	lv_img_decoder_set_read_line_cb
	.loc	6 74 33 is_stmt 1               @ lvgl/src/lv_draw/lv_img_decoder.c:74:33
	ldr	r0, [sp, #4]
	.loc	6 74 5 is_stmt 0                @ lvgl/src/lv_draw/lv_img_decoder.c:74:5
	movw	r1, :lower16:lv_img_decoder_built_in_close
	movt	r1, :upper16:lv_img_decoder_built_in_close
	bl	lv_img_decoder_set_close_cb
	.loc	6 75 1 is_stmt 1                @ lvgl/src/lv_draw/lv_img_decoder.c:75:1
	b	.LBB0_8
.LBB0_8:
	add	sp, #8
	pop	{r7, pc}
.Ltmp9:
.Lfunc_end0:
	.size	_lv_img_decoder_init, .Lfunc_end0-_lv_img_decoder_init
	.cfi_endproc
	.cantunwind
	.fnend
                                        @ -- End function
	.section	.text.lv_img_decoder_create,"ax",%progbits
	.hidden	lv_img_decoder_create           @ -- Begin function lv_img_decoder_create
	.globl	lv_img_decoder_create
	.p2align	3
	.type	lv_img_decoder_create,%function
	.code	16                              @ @lv_img_decoder_create
	.thumb_func
lv_img_decoder_create:
.Lfunc_begin1:
	.loc	6 202 0                         @ lvgl/src/lv_draw/lv_img_decoder.c:202:0
	.fnstart
	.cfi_startproc
@ %bb.0:
	.save	{r7, lr}
	push	{r7, lr}
	.cfi_def_cfa_offset 8
	.cfi_offset lr, -4
	.cfi_offset r7, -8
	.pad	#8
	sub	sp, #8
	.cfi_def_cfa_offset 16
.Ltmp10:
	.loc	6 204 15 prologue_end           @ lvgl/src/lv_draw/lv_img_decoder.c:204:15
	movw	r0, :lower16:_lv_img_defoder_ll
	movt	r0, :upper16:_lv_img_defoder_ll
	bl	_lv_ll_ins_head
	.loc	6 204 13 is_stmt 0              @ lvgl/src/lv_draw/lv_img_decoder.c:204:13
	str	r0, [sp]
	.loc	6 205 5 is_stmt 1               @ lvgl/src/lv_draw/lv_img_decoder.c:205:5
	b	.LBB1_1
.LBB1_1:
.Ltmp11:
	.loc	6 205 5 is_stmt 0               @ lvgl/src/lv_draw/lv_img_decoder.c:205:5
	ldr	r0, [sp]
	bl	lv_debug_check_null
.Ltmp12:
	.loc	6 205 5                         @ lvgl/src/lv_draw/lv_img_decoder.c:205:5
	cbnz	r0, .LBB1_4
	b	.LBB1_2
.LBB1_2:
.Ltmp13:
	.loc	6 205 5                         @ lvgl/src/lv_draw/lv_img_decoder.c:205:5
	ldr	r2, [sp]
	movw	r0, :lower16:.L.str
	movt	r0, :upper16:.L.str
	movs	r3, #0
	bl	lv_debug_log_error
	b	.LBB1_3
.LBB1_3:                                @ =>This Inner Loop Header: Depth=1
	b	.LBB1_3
.Ltmp14:
.LBB1_4:
	.loc	6 205 5                         @ lvgl/src/lv_draw/lv_img_decoder.c:205:5
	b	.LBB1_5
.Ltmp15:
.LBB1_5:
	.loc	6 206 8 is_stmt 1               @ lvgl/src/lv_draw/lv_img_decoder.c:206:8
	ldr	r0, [sp]
.Ltmp16:
	.loc	6 206 8 is_stmt 0               @ lvgl/src/lv_draw/lv_img_decoder.c:206:8
	cbnz	r0, .LBB1_7
	b	.LBB1_6
.LBB1_6:
	.loc	6 0 8                           @ lvgl/src/lv_draw/lv_img_decoder.c:0:8
	movs	r0, #0
.Ltmp17:
	.loc	6 206 25                        @ lvgl/src/lv_draw/lv_img_decoder.c:206:25
	str	r0, [sp, #4]
	b	.LBB1_8
.Ltmp18:
.LBB1_7:
	.loc	6 208 19 is_stmt 1              @ lvgl/src/lv_draw/lv_img_decoder.c:208:19
	ldr	r0, [sp]
	movs	r1, #16
	.loc	6 208 5 is_stmt 0               @ lvgl/src/lv_draw/lv_img_decoder.c:208:5
	bl	_lv_memset_00
	.loc	6 210 12 is_stmt 1              @ lvgl/src/lv_draw/lv_img_decoder.c:210:12
	ldr	r0, [sp]
	.loc	6 210 5 is_stmt 0               @ lvgl/src/lv_draw/lv_img_decoder.c:210:5
	str	r0, [sp, #4]
	b	.LBB1_8
.LBB1_8:
	.loc	6 211 1 is_stmt 1               @ lvgl/src/lv_draw/lv_img_decoder.c:211:1
	ldr	r0, [sp, #4]
	add	sp, #8
	pop	{r7, pc}
.Ltmp19:
.Lfunc_end1:
	.size	lv_img_decoder_create, .Lfunc_end1-lv_img_decoder_create
	.cfi_endproc
	.cantunwind
	.fnend
                                        @ -- End function
	.section	.text.lv_img_decoder_set_info_cb,"ax",%progbits
	.hidden	lv_img_decoder_set_info_cb      @ -- Begin function lv_img_decoder_set_info_cb
	.globl	lv_img_decoder_set_info_cb
	.p2align	3
	.type	lv_img_decoder_set_info_cb,%function
	.code	16                              @ @lv_img_decoder_set_info_cb
	.thumb_func
lv_img_decoder_set_info_cb:
.Lfunc_begin2:
	.loc	6 229 0                         @ lvgl/src/lv_draw/lv_img_decoder.c:229:0
	.fnstart
	.cfi_startproc
@ %bb.0:
	.pad	#8
	sub	sp, #8
	.cfi_def_cfa_offset 8
	str	r0, [sp, #4]
	str	r1, [sp]
.Ltmp20:
	.loc	6 230 24 prologue_end           @ lvgl/src/lv_draw/lv_img_decoder.c:230:24
	ldr	r0, [sp]
	.loc	6 230 5 is_stmt 0               @ lvgl/src/lv_draw/lv_img_decoder.c:230:5
	ldr	r1, [sp, #4]
	.loc	6 230 22                        @ lvgl/src/lv_draw/lv_img_decoder.c:230:22
	str	r0, [r1]
	.loc	6 231 1 is_stmt 1               @ lvgl/src/lv_draw/lv_img_decoder.c:231:1
	add	sp, #8
	bx	lr
.Ltmp21:
.Lfunc_end2:
	.size	lv_img_decoder_set_info_cb, .Lfunc_end2-lv_img_decoder_set_info_cb
	.cfi_endproc
	.cantunwind
	.fnend
                                        @ -- End function
	.section	.text.lv_img_decoder_built_in_info,"ax",%progbits
	.hidden	lv_img_decoder_built_in_info    @ -- Begin function lv_img_decoder_built_in_info
	.globl	lv_img_decoder_built_in_info
	.p2align	3
	.type	lv_img_decoder_built_in_info,%function
	.code	16                              @ @lv_img_decoder_built_in_info
	.thumb_func
lv_img_decoder_built_in_info:
.Lfunc_begin3:
	.loc	6 271 0                         @ lvgl/src/lv_draw/lv_img_decoder.c:271:0
	.fnstart
	.cfi_startproc
@ %bb.0:
	.save	{r7, lr}
	push	{r7, lr}
	.cfi_def_cfa_offset 8
	.cfi_offset lr, -4
	.cfi_offset r7, -8
	.pad	#24
	sub	sp, #24
	.cfi_def_cfa_offset 32
	str	r0, [sp, #16]
	str	r1, [sp, #12]
	str	r2, [sp, #8]
.Ltmp22:
	.loc	6 274 49 prologue_end           @ lvgl/src/lv_draw/lv_img_decoder.c:274:49
	ldr	r0, [sp, #12]
	.loc	6 274 29 is_stmt 0              @ lvgl/src/lv_draw/lv_img_decoder.c:274:29
	bl	lv_img_src_get_type
	.loc	6 274 18                        @ lvgl/src/lv_draw/lv_img_decoder.c:274:18
	strb.w	r0, [sp, #7]
.Ltmp23:
	.loc	6 275 8 is_stmt 1               @ lvgl/src/lv_draw/lv_img_decoder.c:275:8
	ldrb.w	r0, [sp, #7]
.Ltmp24:
	.loc	6 275 8 is_stmt 0               @ lvgl/src/lv_draw/lv_img_decoder.c:275:8
	cmp	r0, #0
	bne	.LBB3_5
	b	.LBB3_1
.LBB3_1:
.Ltmp25:
	.loc	6 276 43 is_stmt 1              @ lvgl/src/lv_draw/lv_img_decoder.c:276:43
	ldr	r0, [sp, #12]
	.loc	6 276 56 is_stmt 0              @ lvgl/src/lv_draw/lv_img_decoder.c:276:56
	ldrb	r0, [r0]
	and	r0, r0, #31
	.loc	6 276 21                        @ lvgl/src/lv_draw/lv_img_decoder.c:276:21
	strb.w	r0, [sp, #6]
.Ltmp26:
	.loc	6 277 12 is_stmt 1              @ lvgl/src/lv_draw/lv_img_decoder.c:277:12
	ldrb.w	r0, [sp, #6]
	.loc	6 277 35 is_stmt 0              @ lvgl/src/lv_draw/lv_img_decoder.c:277:35
	cmp	r0, #4
	blt	.LBB3_3
	b	.LBB3_2
.LBB3_2:
	.loc	6 277 38                        @ lvgl/src/lv_draw/lv_img_decoder.c:277:38
	ldrb.w	r0, [sp, #6]
.Ltmp27:
	.loc	6 277 12                        @ lvgl/src/lv_draw/lv_img_decoder.c:277:12
	cmp	r0, #15
	blt	.LBB3_4
	b	.LBB3_3
.LBB3_3:
	.loc	6 0 12                          @ lvgl/src/lv_draw/lv_img_decoder.c:0:12
	movs	r0, #0
.Ltmp28:
	.loc	6 277 61                        @ lvgl/src/lv_draw/lv_img_decoder.c:277:61
	strb.w	r0, [sp, #23]
	b	.LBB3_10
.Ltmp29:
.LBB3_4:
	.loc	6 279 39 is_stmt 1              @ lvgl/src/lv_draw/lv_img_decoder.c:279:39
	ldr	r0, [sp, #12]
	.loc	6 279 52 is_stmt 0              @ lvgl/src/lv_draw/lv_img_decoder.c:279:52
	ldrh.w	r3, [r0, #1]
	.loc	6 279 9                         @ lvgl/src/lv_draw/lv_img_decoder.c:279:9
	ldr	r1, [sp, #8]
	.loc	6 279 20                        @ lvgl/src/lv_draw/lv_img_decoder.c:279:20
	ldrh	r0, [r1, #1]!
	ldrb	r2, [r1, #2]
	movw	r12, #8188
	and.w	r3, r3, r12
	movw	r12, #57347
	and.w	r0, r0, r12
	add	r0, r3
	strb	r2, [r1, #2]
	strh	r0, [r1]
	.loc	6 280 39 is_stmt 1              @ lvgl/src/lv_draw/lv_img_decoder.c:280:39
	ldr	r0, [sp, #12]
	.loc	6 280 52 is_stmt 0              @ lvgl/src/lv_draw/lv_img_decoder.c:280:52
	ldrb	r2, [r0, #3]
	ldrh.w	r0, [r0, #1]
	and	r3, r0, #57344
	.loc	6 280 9                         @ lvgl/src/lv_draw/lv_img_decoder.c:280:9
	ldr	r1, [sp, #8]
	.loc	6 280 20                        @ lvgl/src/lv_draw/lv_img_decoder.c:280:20
	ldrh	r0, [r1, #1]!
	bfc	r0, #13, #19
	add	r0, r3
	strb	r2, [r1, #2]
	strh	r0, [r1]
	.loc	6 281 39 is_stmt 1              @ lvgl/src/lv_draw/lv_img_decoder.c:281:39
	ldr	r0, [sp, #12]
	.loc	6 281 52 is_stmt 0              @ lvgl/src/lv_draw/lv_img_decoder.c:281:52
	ldrb	r0, [r0]
	and	r2, r0, #31
	.loc	6 281 9                         @ lvgl/src/lv_draw/lv_img_decoder.c:281:9
	ldr	r1, [sp, #8]
	.loc	6 281 20                        @ lvgl/src/lv_draw/lv_img_decoder.c:281:20
	ldrb	r0, [r1]
	and	r0, r0, #224
	add	r0, r2
	strb	r0, [r1]
	.loc	6 282 5 is_stmt 1               @ lvgl/src/lv_draw/lv_img_decoder.c:282:5
	b	.LBB3_9
.Ltmp30:
.LBB3_5:
	.loc	6 304 13                        @ lvgl/src/lv_draw/lv_img_decoder.c:304:13
	ldrb.w	r0, [sp, #7]
.Ltmp31:
	.loc	6 304 13 is_stmt 0              @ lvgl/src/lv_draw/lv_img_decoder.c:304:13
	cmp	r0, #2
	bne	.LBB3_7
	b	.LBB3_6
.LBB3_6:
.Ltmp32:
	.loc	6 307 9 is_stmt 1               @ lvgl/src/lv_draw/lv_img_decoder.c:307:9
	ldr	r1, [sp, #8]
	.loc	6 307 19 is_stmt 0              @ lvgl/src/lv_draw/lv_img_decoder.c:307:19
	ldrh	r0, [r1, #1]!
	ldrb	r2, [r1, #2]
	movw	r3, #57347
	ands	r0, r3
	adds	r0, #4
	strb	r2, [r1, #2]
	strh	r0, [r1]
	.loc	6 308 9 is_stmt 1               @ lvgl/src/lv_draw/lv_img_decoder.c:308:9
	ldr	r1, [sp, #8]
	.loc	6 308 19 is_stmt 0              @ lvgl/src/lv_draw/lv_img_decoder.c:308:19
	ldrh	r0, [r1, #1]!
	ldrb	r2, [r1, #2]
	orr.w	r0, r0, r2, lsl #16
	movs	r2, #1
	bfi	r0, r2, #13, #19
	strh	r0, [r1]
	lsrs	r0, r0, #16
	strb	r0, [r1, #2]
	.loc	6 311 9 is_stmt 1               @ lvgl/src/lv_draw/lv_img_decoder.c:311:9
	ldr	r1, [sp, #8]
	.loc	6 311 20 is_stmt 0              @ lvgl/src/lv_draw/lv_img_decoder.c:311:20
	ldrb	r0, [r1]
	and	r0, r0, #224
	adds	r0, #11
	strb	r0, [r1]
	.loc	6 312 5 is_stmt 1               @ lvgl/src/lv_draw/lv_img_decoder.c:312:5
	b	.LBB3_8
.Ltmp33:
.LBB3_7:
	.loc	6 0 5 is_stmt 0                 @ lvgl/src/lv_draw/lv_img_decoder.c:0:5
	movs	r0, #0
.Ltmp34:
	.loc	6 315 9 is_stmt 1               @ lvgl/src/lv_draw/lv_img_decoder.c:315:9
	strb.w	r0, [sp, #23]
	b	.LBB3_10
.Ltmp35:
.LBB3_8:
	.loc	6 0 9 is_stmt 0                 @ lvgl/src/lv_draw/lv_img_decoder.c:0:9
	b	.LBB3_9
.LBB3_9:
	movs	r0, #1
	.loc	6 317 5 is_stmt 1               @ lvgl/src/lv_draw/lv_img_decoder.c:317:5
	strb.w	r0, [sp, #23]
	b	.LBB3_10
.LBB3_10:
	.loc	6 318 1                         @ lvgl/src/lv_draw/lv_img_decoder.c:318:1
	ldrb.w	r0, [sp, #23]
	add	sp, #24
	pop	{r7, pc}
.Ltmp36:
.Lfunc_end3:
	.size	lv_img_decoder_built_in_info, .Lfunc_end3-lv_img_decoder_built_in_info
	.cfi_endproc
	.cantunwind
	.fnend
                                        @ -- End function
	.section	.text.lv_img_decoder_set_open_cb,"ax",%progbits
	.hidden	lv_img_decoder_set_open_cb      @ -- Begin function lv_img_decoder_set_open_cb
	.globl	lv_img_decoder_set_open_cb
	.p2align	3
	.type	lv_img_decoder_set_open_cb,%function
	.code	16                              @ @lv_img_decoder_set_open_cb
	.thumb_func
lv_img_decoder_set_open_cb:
.Lfunc_begin4:
	.loc	6 239 0                         @ lvgl/src/lv_draw/lv_img_decoder.c:239:0
	.fnstart
	.cfi_startproc
@ %bb.0:
	.pad	#8
	sub	sp, #8
	.cfi_def_cfa_offset 8
	str	r0, [sp, #4]
	str	r1, [sp]
.Ltmp37:
	.loc	6 240 24 prologue_end           @ lvgl/src/lv_draw/lv_img_decoder.c:240:24
	ldr	r0, [sp]
	.loc	6 240 5 is_stmt 0               @ lvgl/src/lv_draw/lv_img_decoder.c:240:5
	ldr	r1, [sp, #4]
	.loc	6 240 22                        @ lvgl/src/lv_draw/lv_img_decoder.c:240:22
	str	r0, [r1, #4]
	.loc	6 241 1 is_stmt 1               @ lvgl/src/lv_draw/lv_img_decoder.c:241:1
	add	sp, #8
	bx	lr
.Ltmp38:
.Lfunc_end4:
	.size	lv_img_decoder_set_open_cb, .Lfunc_end4-lv_img_decoder_set_open_cb
	.cfi_endproc
	.cantunwind
	.fnend
                                        @ -- End function
	.section	.text.lv_img_decoder_built_in_open,"ax",%progbits
	.hidden	lv_img_decoder_built_in_open    @ -- Begin function lv_img_decoder_built_in_open
	.globl	lv_img_decoder_built_in_open
	.p2align	3
	.type	lv_img_decoder_built_in_open,%function
	.code	16                              @ @lv_img_decoder_built_in_open
	.thumb_func
lv_img_decoder_built_in_open:
.Lfunc_begin5:
	.loc	6 327 0                         @ lvgl/src/lv_draw/lv_img_decoder.c:327:0
	.fnstart
	.cfi_startproc
@ %bb.0:
	.save	{r7, lr}
	push	{r7, lr}
	.cfi_def_cfa_offset 8
	.cfi_offset lr, -4
	.cfi_offset r7, -8
	.pad	#48
	sub	sp, #48
	.cfi_def_cfa_offset 56
	str	r0, [sp, #40]
	str	r1, [sp, #36]
.Ltmp39:
	.loc	6 329 8 prologue_end            @ lvgl/src/lv_draw/lv_img_decoder.c:329:8
	ldr	r0, [sp, #36]
	.loc	6 329 13 is_stmt 0              @ lvgl/src/lv_draw/lv_img_decoder.c:329:13
	ldrb	r0, [r0, #12]
.Ltmp40:
	.loc	6 329 8                         @ lvgl/src/lv_draw/lv_img_decoder.c:329:8
	cmp	r0, #1
	bne	.LBB5_2
	b	.LBB5_1
.LBB5_1:
	.loc	6 0 8                           @ lvgl/src/lv_draw/lv_img_decoder.c:0:8
	movs	r0, #0
.Ltmp41:
	.loc	6 357 9 is_stmt 1               @ lvgl/src/lv_draw/lv_img_decoder.c:357:9
	strb.w	r0, [sp, #47]
	b	.LBB5_53
.Ltmp42:
.LBB5_2:
	.loc	6 360 13                        @ lvgl/src/lv_draw/lv_img_decoder.c:360:13
	ldr	r0, [sp, #36]
	.loc	6 360 18 is_stmt 0              @ lvgl/src/lv_draw/lv_img_decoder.c:360:18
	ldrb	r0, [r0, #12]
.Ltmp43:
	.loc	6 360 13                        @ lvgl/src/lv_draw/lv_img_decoder.c:360:13
	cbnz	r0, .LBB5_6
	b	.LBB5_3
.LBB5_3:
.Ltmp44:
	.loc	6 362 29 is_stmt 1              @ lvgl/src/lv_draw/lv_img_decoder.c:362:29
	ldr	r0, [sp, #36]
	.loc	6 362 34 is_stmt 0              @ lvgl/src/lv_draw/lv_img_decoder.c:362:34
	ldr	r0, [r0, #4]
	.loc	6 362 40                        @ lvgl/src/lv_draw/lv_img_decoder.c:362:40
	ldr	r0, [r0, #8]
.Ltmp45:
	.loc	6 362 12                        @ lvgl/src/lv_draw/lv_img_decoder.c:362:12
	cbnz	r0, .LBB5_5
	b	.LBB5_4
.LBB5_4:
	.loc	6 0 12                          @ lvgl/src/lv_draw/lv_img_decoder.c:0:12
	movs	r0, #0
.Ltmp46:
	.loc	6 363 13 is_stmt 1              @ lvgl/src/lv_draw/lv_img_decoder.c:363:13
	strb.w	r0, [sp, #47]
	b	.LBB5_53
.Ltmp47:
.LBB5_5:
	.loc	6 365 5                         @ lvgl/src/lv_draw/lv_img_decoder.c:365:5
	b	.LBB5_6
.Ltmp48:
.LBB5_6:
	.loc	6 0 5 is_stmt 0                 @ lvgl/src/lv_draw/lv_img_decoder.c:0:5
	b	.LBB5_7
.LBB5_7:
	.loc	6 367 22 is_stmt 1              @ lvgl/src/lv_draw/lv_img_decoder.c:367:22
	ldr	r0, [sp, #36]
	.loc	6 367 34 is_stmt 0              @ lvgl/src/lv_draw/lv_img_decoder.c:367:34
	ldrb	r0, [r0, #16]
	and	r0, r0, #31
	.loc	6 367 17                        @ lvgl/src/lv_draw/lv_img_decoder.c:367:17
	strb.w	r0, [sp, #35]
.Ltmp49:
	.loc	6 369 8 is_stmt 1               @ lvgl/src/lv_draw/lv_img_decoder.c:369:8
	ldrb.w	r0, [sp, #35]
	.loc	6 369 35 is_stmt 0              @ lvgl/src/lv_draw/lv_img_decoder.c:369:35
	cmp	r0, #4
	beq	.LBB5_10
	b	.LBB5_8
.LBB5_8:
	.loc	6 369 38                        @ lvgl/src/lv_draw/lv_img_decoder.c:369:38
	ldrb.w	r0, [sp, #35]
	.loc	6 369 71                        @ lvgl/src/lv_draw/lv_img_decoder.c:369:71
	cmp	r0, #5
	beq	.LBB5_10
	b	.LBB5_9
.LBB5_9:
	.loc	6 369 74                        @ lvgl/src/lv_draw/lv_img_decoder.c:369:74
	ldrb.w	r0, [sp, #35]
.Ltmp50:
	.loc	6 369 8                         @ lvgl/src/lv_draw/lv_img_decoder.c:369:8
	cmp	r0, #6
	bne	.LBB5_13
	b	.LBB5_10
.LBB5_10:
.Ltmp51:
	.loc	6 370 12 is_stmt 1              @ lvgl/src/lv_draw/lv_img_decoder.c:370:12
	ldr	r0, [sp, #36]
	.loc	6 370 17 is_stmt 0              @ lvgl/src/lv_draw/lv_img_decoder.c:370:17
	ldrb	r0, [r0, #12]
.Ltmp52:
	.loc	6 370 12                        @ lvgl/src/lv_draw/lv_img_decoder.c:370:12
	cbnz	r0, .LBB5_12
	b	.LBB5_11
.LBB5_11:
.Ltmp53:
	.loc	6 373 46 is_stmt 1              @ lvgl/src/lv_draw/lv_img_decoder.c:373:46
	ldr	r1, [sp, #36]
	.loc	6 373 51 is_stmt 0              @ lvgl/src/lv_draw/lv_img_decoder.c:373:51
	ldr	r0, [r1, #4]
	.loc	6 373 57                        @ lvgl/src/lv_draw/lv_img_decoder.c:373:57
	ldr	r0, [r0, #8]
	.loc	6 373 27                        @ lvgl/src/lv_draw/lv_img_decoder.c:373:27
	str	r0, [r1, #20]
	movs	r0, #1
	.loc	6 374 13 is_stmt 1              @ lvgl/src/lv_draw/lv_img_decoder.c:374:13
	strb.w	r0, [sp, #47]
	b	.LBB5_53
.Ltmp54:
.LBB5_12:
	.loc	6 0 13 is_stmt 0                @ lvgl/src/lv_draw/lv_img_decoder.c:0:13
	movs	r0, #1
.Ltmp55:
	.loc	6 378 13 is_stmt 1              @ lvgl/src/lv_draw/lv_img_decoder.c:378:13
	strb.w	r0, [sp, #47]
	b	.LBB5_53
.Ltmp56:
.LBB5_13:
	.loc	6 382 13                        @ lvgl/src/lv_draw/lv_img_decoder.c:382:13
	ldrb.w	r0, [sp, #35]
	.loc	6 382 42 is_stmt 0              @ lvgl/src/lv_draw/lv_img_decoder.c:382:42
	cmp	r0, #7
	beq	.LBB5_17
	b	.LBB5_14
.LBB5_14:
	.loc	6 382 45                        @ lvgl/src/lv_draw/lv_img_decoder.c:382:45
	ldrb.w	r0, [sp, #35]
	.loc	6 382 74                        @ lvgl/src/lv_draw/lv_img_decoder.c:382:74
	cmp	r0, #8
	beq	.LBB5_17
	b	.LBB5_15
.LBB5_15:
	.loc	6 382 77                        @ lvgl/src/lv_draw/lv_img_decoder.c:382:77
	ldrb.w	r0, [sp, #35]
	.loc	6 382 106                       @ lvgl/src/lv_draw/lv_img_decoder.c:382:106
	cmp	r0, #9
	beq	.LBB5_17
	b	.LBB5_16
.LBB5_16:
	.loc	6 383 13 is_stmt 1              @ lvgl/src/lv_draw/lv_img_decoder.c:383:13
	ldrb.w	r0, [sp, #35]
.Ltmp57:
	.loc	6 382 13                        @ lvgl/src/lv_draw/lv_img_decoder.c:382:13
	cmp	r0, #10
	bne.w	.LBB5_47
	b	.LBB5_17
.LBB5_17:
.Ltmp58:
	.loc	6 385 55                        @ lvgl/src/lv_draw/lv_img_decoder.c:385:55
	ldrb.w	r0, [sp, #35]
	.loc	6 385 33 is_stmt 0              @ lvgl/src/lv_draw/lv_img_decoder.c:385:33
	bl	lv_img_cf_get_px_size
	.loc	6 385 17                        @ lvgl/src/lv_draw/lv_img_decoder.c:385:17
	strb.w	r0, [sp, #34]
	.loc	6 386 38 is_stmt 1              @ lvgl/src/lv_draw/lv_img_decoder.c:386:38
	ldrb.w	r1, [sp, #34]
	movs	r0, #1
	.loc	6 386 35 is_stmt 0              @ lvgl/src/lv_draw/lv_img_decoder.c:386:35
	lsls	r0, r1
	.loc	6 386 18                        @ lvgl/src/lv_draw/lv_img_decoder.c:386:18
	str	r0, [sp, #28]
.Ltmp59:
	.loc	6 389 12 is_stmt 1              @ lvgl/src/lv_draw/lv_img_decoder.c:389:12
	ldr	r0, [sp, #36]
	.loc	6 389 17 is_stmt 0              @ lvgl/src/lv_draw/lv_img_decoder.c:389:17
	ldr	r0, [r0, #32]
.Ltmp60:
	.loc	6 389 12                        @ lvgl/src/lv_draw/lv_img_decoder.c:389:12
	cbnz	r0, .LBB5_26
	b	.LBB5_18
.LBB5_18:
	.loc	6 0 12                          @ lvgl/src/lv_draw/lv_img_decoder.c:0:12
	movs	r0, #8
.Ltmp61:
	.loc	6 390 30 is_stmt 1              @ lvgl/src/lv_draw/lv_img_decoder.c:390:30
	bl	lv_mem_alloc
	.loc	6 390 13 is_stmt 0              @ lvgl/src/lv_draw/lv_img_decoder.c:390:13
	ldr	r1, [sp, #36]
	.loc	6 390 28                        @ lvgl/src/lv_draw/lv_img_decoder.c:390:28
	str	r0, [r1, #32]
	.loc	6 391 13 is_stmt 1              @ lvgl/src/lv_draw/lv_img_decoder.c:391:13
	b	.LBB5_19
.LBB5_19:
.Ltmp62:
	.loc	6 391 13 is_stmt 0              @ lvgl/src/lv_draw/lv_img_decoder.c:391:13
	ldr	r0, [sp, #36]
	ldr	r0, [r0, #32]
	bl	lv_debug_check_null
.Ltmp63:
	.loc	6 391 13                        @ lvgl/src/lv_draw/lv_img_decoder.c:391:13
	cbnz	r0, .LBB5_22
	b	.LBB5_20
.LBB5_20:
.Ltmp64:
	.loc	6 391 13                        @ lvgl/src/lv_draw/lv_img_decoder.c:391:13
	ldr	r0, [sp, #36]
	ldr	r2, [r0, #32]
	movw	r0, :lower16:.L.str
	movt	r0, :upper16:.L.str
	movs	r3, #0
	bl	lv_debug_log_error
	b	.LBB5_21
.LBB5_21:                               @ =>This Inner Loop Header: Depth=1
	b	.LBB5_21
.Ltmp65:
.LBB5_22:
	.loc	6 391 13                        @ lvgl/src/lv_draw/lv_img_decoder.c:391:13
	b	.LBB5_23
.Ltmp66:
.LBB5_23:
	.loc	6 392 16 is_stmt 1              @ lvgl/src/lv_draw/lv_img_decoder.c:392:16
	ldr	r0, [sp, #36]
	.loc	6 392 21 is_stmt 0              @ lvgl/src/lv_draw/lv_img_decoder.c:392:21
	ldr	r0, [r0, #32]
.Ltmp67:
	.loc	6 392 16                        @ lvgl/src/lv_draw/lv_img_decoder.c:392:16
	cbnz	r0, .LBB5_25
	b	.LBB5_24
.LBB5_24:
	.loc	6 0 16                          @ lvgl/src/lv_draw/lv_img_decoder.c:0:16
	movs	r0, #0
.Ltmp68:
	.loc	6 394 17 is_stmt 1              @ lvgl/src/lv_draw/lv_img_decoder.c:394:17
	strb.w	r0, [sp, #47]
	b	.LBB5_53
.Ltmp69:
.LBB5_25:
	.loc	6 396 27                        @ lvgl/src/lv_draw/lv_img_decoder.c:396:27
	ldr	r0, [sp, #36]
	.loc	6 396 32 is_stmt 0              @ lvgl/src/lv_draw/lv_img_decoder.c:396:32
	ldr	r0, [r0, #32]
	movs	r1, #8
	.loc	6 396 13                        @ lvgl/src/lv_draw/lv_img_decoder.c:396:13
	bl	_lv_memset_00
	.loc	6 397 9 is_stmt 1               @ lvgl/src/lv_draw/lv_img_decoder.c:397:9
	b	.LBB5_26
.Ltmp70:
.LBB5_26:
	.loc	6 399 54                        @ lvgl/src/lv_draw/lv_img_decoder.c:399:54
	ldr	r0, [sp, #36]
	.loc	6 399 59 is_stmt 0              @ lvgl/src/lv_draw/lv_img_decoder.c:399:59
	ldr	r0, [r0, #32]
	.loc	6 399 42                        @ lvgl/src/lv_draw/lv_img_decoder.c:399:42
	str	r0, [sp, #24]
	.loc	6 400 67 is_stmt 1              @ lvgl/src/lv_draw/lv_img_decoder.c:400:67
	ldr	r0, [sp, #28]
	.loc	6 400 80 is_stmt 0              @ lvgl/src/lv_draw/lv_img_decoder.c:400:80
	lsls	r0, r0, #2
	.loc	6 400 54                        @ lvgl/src/lv_draw/lv_img_decoder.c:400:54
	bl	lv_mem_alloc
	.loc	6 400 9                         @ lvgl/src/lv_draw/lv_img_decoder.c:400:9
	ldr	r1, [sp, #24]
	.loc	6 400 52                        @ lvgl/src/lv_draw/lv_img_decoder.c:400:52
	str	r0, [r1]
	.loc	6 401 9 is_stmt 1               @ lvgl/src/lv_draw/lv_img_decoder.c:401:9
	b	.LBB5_27
.LBB5_27:
.Ltmp71:
	.loc	6 401 9 is_stmt 0               @ lvgl/src/lv_draw/lv_img_decoder.c:401:9
	ldr	r0, [sp, #24]
	ldr	r0, [r0]
	bl	lv_debug_check_null
.Ltmp72:
	.loc	6 401 9                         @ lvgl/src/lv_draw/lv_img_decoder.c:401:9
	cbnz	r0, .LBB5_30
	b	.LBB5_28
.LBB5_28:
.Ltmp73:
	.loc	6 401 9                         @ lvgl/src/lv_draw/lv_img_decoder.c:401:9
	ldr	r0, [sp, #24]
	ldr	r2, [r0]
	movw	r0, :lower16:.L.str
	movt	r0, :upper16:.L.str
	movs	r3, #0
	bl	lv_debug_log_error
	b	.LBB5_29
.LBB5_29:                               @ =>This Inner Loop Header: Depth=1
	b	.LBB5_29
.Ltmp74:
.LBB5_30:
	.loc	6 401 9                         @ lvgl/src/lv_draw/lv_img_decoder.c:401:9
	b	.LBB5_31
.Ltmp75:
.LBB5_31:
	.loc	6 402 67 is_stmt 1              @ lvgl/src/lv_draw/lv_img_decoder.c:402:67
	ldr	r0, [sp, #28]
	.loc	6 402 54 is_stmt 0              @ lvgl/src/lv_draw/lv_img_decoder.c:402:54
	bl	lv_mem_alloc
	.loc	6 402 9                         @ lvgl/src/lv_draw/lv_img_decoder.c:402:9
	ldr	r1, [sp, #24]
	.loc	6 402 52                        @ lvgl/src/lv_draw/lv_img_decoder.c:402:52
	str	r0, [r1, #4]
	.loc	6 403 9 is_stmt 1               @ lvgl/src/lv_draw/lv_img_decoder.c:403:9
	b	.LBB5_32
.LBB5_32:
.Ltmp76:
	.loc	6 403 9 is_stmt 0               @ lvgl/src/lv_draw/lv_img_decoder.c:403:9
	ldr	r0, [sp, #24]
	ldr	r0, [r0, #4]
	bl	lv_debug_check_null
.Ltmp77:
	.loc	6 403 9                         @ lvgl/src/lv_draw/lv_img_decoder.c:403:9
	cbnz	r0, .LBB5_35
	b	.LBB5_33
.LBB5_33:
.Ltmp78:
	.loc	6 403 9                         @ lvgl/src/lv_draw/lv_img_decoder.c:403:9
	ldr	r0, [sp, #24]
	ldr	r2, [r0, #4]
	movw	r0, :lower16:.L.str
	movt	r0, :upper16:.L.str
	movs	r3, #0
	bl	lv_debug_log_error
	b	.LBB5_34
.LBB5_34:                               @ =>This Inner Loop Header: Depth=1
	b	.LBB5_34
.Ltmp79:
.LBB5_35:
	.loc	6 403 9                         @ lvgl/src/lv_draw/lv_img_decoder.c:403:9
	b	.LBB5_36
.Ltmp80:
.LBB5_36:
	.loc	6 404 12 is_stmt 1              @ lvgl/src/lv_draw/lv_img_decoder.c:404:12
	ldr	r0, [sp, #24]
	.loc	6 404 23 is_stmt 0              @ lvgl/src/lv_draw/lv_img_decoder.c:404:23
	ldr	r0, [r0]
	.loc	6 404 39                        @ lvgl/src/lv_draw/lv_img_decoder.c:404:39
	cbz	r0, .LBB5_38
	b	.LBB5_37
.LBB5_37:
	.loc	6 404 42                        @ lvgl/src/lv_draw/lv_img_decoder.c:404:42
	ldr	r0, [sp, #24]
	.loc	6 404 53                        @ lvgl/src/lv_draw/lv_img_decoder.c:404:53
	ldr	r0, [r0, #4]
.Ltmp81:
	.loc	6 404 12                        @ lvgl/src/lv_draw/lv_img_decoder.c:404:12
	cbnz	r0, .LBB5_39
	b	.LBB5_38
.LBB5_38:
.Ltmp82:
	.loc	6 406 43 is_stmt 1              @ lvgl/src/lv_draw/lv_img_decoder.c:406:43
	ldr	r0, [sp, #40]
	.loc	6 406 52 is_stmt 0              @ lvgl/src/lv_draw/lv_img_decoder.c:406:52
	ldr	r1, [sp, #36]
	.loc	6 406 13                        @ lvgl/src/lv_draw/lv_img_decoder.c:406:13
	bl	lv_img_decoder_built_in_close
	movs	r0, #0
	.loc	6 407 13 is_stmt 1              @ lvgl/src/lv_draw/lv_img_decoder.c:407:13
	strb.w	r0, [sp, #47]
	b	.LBB5_53
.Ltmp83:
.LBB5_39:
	.loc	6 410 12                        @ lvgl/src/lv_draw/lv_img_decoder.c:410:12
	ldr	r0, [sp, #36]
	.loc	6 410 17 is_stmt 0              @ lvgl/src/lv_draw/lv_img_decoder.c:410:17
	ldrb	r0, [r0, #12]
.Ltmp84:
	.loc	6 410 12                        @ lvgl/src/lv_draw/lv_img_decoder.c:410:12
	cmp	r0, #1
	bne	.LBB5_41
	b	.LBB5_40
.LBB5_40:
	.loc	6 0 12                          @ lvgl/src/lv_draw/lv_img_decoder.c:0:12
	movs	r0, #0
.Ltmp85:
	.loc	6 423 13 is_stmt 1              @ lvgl/src/lv_draw/lv_img_decoder.c:423:13
	strb.w	r0, [sp, #47]
	b	.LBB5_53
.Ltmp86:
.LBB5_41:
	.loc	6 428 73                        @ lvgl/src/lv_draw/lv_img_decoder.c:428:73
	ldr	r0, [sp, #36]
	.loc	6 428 78 is_stmt 0              @ lvgl/src/lv_draw/lv_img_decoder.c:428:78
	ldr	r0, [r0, #4]
	.loc	6 428 84                        @ lvgl/src/lv_draw/lv_img_decoder.c:428:84
	ldr	r0, [r0, #8]
	.loc	6 428 28                        @ lvgl/src/lv_draw/lv_img_decoder.c:428:28
	str	r0, [sp, #20]
	movs	r0, #0
.Ltmp87:
	.loc	6 431 19 is_stmt 1              @ lvgl/src/lv_draw/lv_img_decoder.c:431:19
	str	r0, [sp, #16]
	.loc	6 431 17 is_stmt 0              @ lvgl/src/lv_draw/lv_img_decoder.c:431:17
	b	.LBB5_42
.LBB5_42:                               @ =>This Inner Loop Header: Depth=1
.Ltmp88:
	.loc	6 431 24                        @ lvgl/src/lv_draw/lv_img_decoder.c:431:24
	ldr	r0, [sp, #16]
	.loc	6 431 28                        @ lvgl/src/lv_draw/lv_img_decoder.c:431:28
	ldr	r1, [sp, #28]
.Ltmp89:
	.loc	6 431 13                        @ lvgl/src/lv_draw/lv_img_decoder.c:431:13
	cmp	r0, r1
	bhs	.LBB5_45
	b	.LBB5_43
.LBB5_43:                               @   in Loop: Header=BB5_42 Depth=1
.Ltmp90:
	.loc	6 432 17 is_stmt 1              @ lvgl/src/lv_draw/lv_img_decoder.c:432:17
	ldr	r0, [sp, #24]
	.loc	6 432 28 is_stmt 0              @ lvgl/src/lv_draw/lv_img_decoder.c:432:28
	ldr	r0, [r0]
	.loc	6 432 36                        @ lvgl/src/lv_draw/lv_img_decoder.c:432:36
	str	r0, [sp, #8]                    @ 4-byte Spill
	ldr	r3, [sp, #16]
	.loc	6 432 55                        @ lvgl/src/lv_draw/lv_img_decoder.c:432:55
	str	r3, [sp, #4]                    @ 4-byte Spill
	ldr	r2, [sp, #20]
	add.w	r0, r2, r3, lsl #2
	.loc	6 432 92                        @ lvgl/src/lv_draw/lv_img_decoder.c:432:92
	ldrb	r1, [r0, #1]
	.loc	6 432 71                        @ lvgl/src/lv_draw/lv_img_decoder.c:432:71
	ldrb	r0, [r0, #2]
	.loc	6 432 115                       @ lvgl/src/lv_draw/lv_img_decoder.c:432:115
	ldrb.w	r2, [r2, r3, lsl #2]
	.loc	6 432 41                        @ lvgl/src/lv_draw/lv_img_decoder.c:432:41
	bl	lv_color_make
	ldr	r2, [sp, #4]                    @ 4-byte Reload
	ldr	r1, [sp, #8]                    @ 4-byte Reload
	str	r0, [sp, #12]
	ldr	r0, [sp, #12]
	str.w	r0, [r1, r2, lsl #2]
	.loc	6 433 41 is_stmt 1              @ lvgl/src/lv_draw/lv_img_decoder.c:433:41
	ldr	r0, [sp, #20]
	.loc	6 433 51 is_stmt 0              @ lvgl/src/lv_draw/lv_img_decoder.c:433:51
	ldr	r2, [sp, #16]
	.loc	6 433 41                        @ lvgl/src/lv_draw/lv_img_decoder.c:433:41
	add.w	r0, r0, r2, lsl #2
	.loc	6 433 57                        @ lvgl/src/lv_draw/lv_img_decoder.c:433:57
	ldrb	r0, [r0, #3]
	.loc	6 433 17                        @ lvgl/src/lv_draw/lv_img_decoder.c:433:17
	ldr	r1, [sp, #24]
	.loc	6 433 28                        @ lvgl/src/lv_draw/lv_img_decoder.c:433:28
	ldr	r1, [r1, #4]
	.loc	6 433 39                        @ lvgl/src/lv_draw/lv_img_decoder.c:433:39
	strb	r0, [r1, r2]
	.loc	6 434 13 is_stmt 1              @ lvgl/src/lv_draw/lv_img_decoder.c:434:13
	b	.LBB5_44
.Ltmp91:
.LBB5_44:                               @   in Loop: Header=BB5_42 Depth=1
	.loc	6 431 43                        @ lvgl/src/lv_draw/lv_img_decoder.c:431:43
	ldr	r0, [sp, #16]
	adds	r0, #1
	str	r0, [sp, #16]
	.loc	6 431 13 is_stmt 0              @ lvgl/src/lv_draw/lv_img_decoder.c:431:13
	b	.LBB5_42
.Ltmp92:
.LBB5_45:
	.loc	6 0 13                          @ lvgl/src/lv_draw/lv_img_decoder.c:0:13
	b	.LBB5_46
.LBB5_46:
	movs	r0, #1
	.loc	6 437 9 is_stmt 1               @ lvgl/src/lv_draw/lv_img_decoder.c:437:9
	strb.w	r0, [sp, #47]
	b	.LBB5_53
.Ltmp93:
.LBB5_47:
	.loc	6 445 13                        @ lvgl/src/lv_draw/lv_img_decoder.c:445:13
	ldrb.w	r0, [sp, #35]
	.loc	6 445 40 is_stmt 0              @ lvgl/src/lv_draw/lv_img_decoder.c:445:40
	cmp	r0, #11
	beq	.LBB5_51
	b	.LBB5_48
.LBB5_48:
	.loc	6 445 43                        @ lvgl/src/lv_draw/lv_img_decoder.c:445:43
	ldrb.w	r0, [sp, #35]
	.loc	6 445 70                        @ lvgl/src/lv_draw/lv_img_decoder.c:445:70
	cmp	r0, #12
	beq	.LBB5_51
	b	.LBB5_49
.LBB5_49:
	.loc	6 445 73                        @ lvgl/src/lv_draw/lv_img_decoder.c:445:73
	ldrb.w	r0, [sp, #35]
	.loc	6 445 100                       @ lvgl/src/lv_draw/lv_img_decoder.c:445:100
	cmp	r0, #13
	beq	.LBB5_51
	b	.LBB5_50
.LBB5_50:
	.loc	6 446 13 is_stmt 1              @ lvgl/src/lv_draw/lv_img_decoder.c:446:13
	ldrb.w	r0, [sp, #35]
.Ltmp94:
	.loc	6 445 13                        @ lvgl/src/lv_draw/lv_img_decoder.c:445:13
	cmp	r0, #14
	bne	.LBB5_52
	b	.LBB5_51
.LBB5_51:
	.loc	6 0 13 is_stmt 0                @ lvgl/src/lv_draw/lv_img_decoder.c:0:13
	movs	r0, #1
.Ltmp95:
	.loc	6 448 9 is_stmt 1               @ lvgl/src/lv_draw/lv_img_decoder.c:448:9
	strb.w	r0, [sp, #47]
	b	.LBB5_53
.Ltmp96:
.LBB5_52:
	.loc	6 458 39                        @ lvgl/src/lv_draw/lv_img_decoder.c:458:39
	ldr	r0, [sp, #40]
	.loc	6 458 48 is_stmt 0              @ lvgl/src/lv_draw/lv_img_decoder.c:458:48
	ldr	r1, [sp, #36]
	.loc	6 458 9                         @ lvgl/src/lv_draw/lv_img_decoder.c:458:9
	bl	lv_img_decoder_built_in_close
	movs	r0, #0
	.loc	6 461 9 is_stmt 1               @ lvgl/src/lv_draw/lv_img_decoder.c:461:9
	strb.w	r0, [sp, #47]
	b	.LBB5_53
.Ltmp97:
.LBB5_53:
	.loc	6 463 1                         @ lvgl/src/lv_draw/lv_img_decoder.c:463:1
	ldrb.w	r0, [sp, #47]
	add	sp, #48
	pop	{r7, pc}
.Ltmp98:
.Lfunc_end5:
	.size	lv_img_decoder_built_in_open, .Lfunc_end5-lv_img_decoder_built_in_open
	.cfi_endproc
	.cantunwind
	.fnend
                                        @ -- End function
	.section	.text.lv_img_decoder_set_read_line_cb,"ax",%progbits
	.hidden	lv_img_decoder_set_read_line_cb @ -- Begin function lv_img_decoder_set_read_line_cb
	.globl	lv_img_decoder_set_read_line_cb
	.p2align	3
	.type	lv_img_decoder_set_read_line_cb,%function
	.code	16                              @ @lv_img_decoder_set_read_line_cb
	.thumb_func
lv_img_decoder_set_read_line_cb:
.Lfunc_begin6:
	.loc	6 249 0                         @ lvgl/src/lv_draw/lv_img_decoder.c:249:0
	.fnstart
	.cfi_startproc
@ %bb.0:
	.pad	#8
	sub	sp, #8
	.cfi_def_cfa_offset 8
	str	r0, [sp, #4]
	str	r1, [sp]
.Ltmp99:
	.loc	6 250 29 prologue_end           @ lvgl/src/lv_draw/lv_img_decoder.c:250:29
	ldr	r0, [sp]
	.loc	6 250 5 is_stmt 0               @ lvgl/src/lv_draw/lv_img_decoder.c:250:5
	ldr	r1, [sp, #4]
	.loc	6 250 27                        @ lvgl/src/lv_draw/lv_img_decoder.c:250:27
	str	r0, [r1, #8]
	.loc	6 251 1 is_stmt 1               @ lvgl/src/lv_draw/lv_img_decoder.c:251:1
	add	sp, #8
	bx	lr
.Ltmp100:
.Lfunc_end6:
	.size	lv_img_decoder_set_read_line_cb, .Lfunc_end6-lv_img_decoder_set_read_line_cb
	.cfi_endproc
	.cantunwind
	.fnend
                                        @ -- End function
	.section	.text.lv_img_decoder_built_in_read_line,"ax",%progbits
	.hidden	lv_img_decoder_built_in_read_line @ -- Begin function lv_img_decoder_built_in_read_line
	.globl	lv_img_decoder_built_in_read_line
	.p2align	3
	.type	lv_img_decoder_built_in_read_line,%function
	.code	16                              @ @lv_img_decoder_built_in_read_line
	.thumb_func
lv_img_decoder_built_in_read_line:
.Lfunc_begin7:
	.loc	6 478 0                         @ lvgl/src/lv_draw/lv_img_decoder.c:478:0
	.fnstart
	.cfi_startproc
@ %bb.0:
	.save	{r7, lr}
	push	{r7, lr}
	.cfi_def_cfa_offset 8
	.cfi_offset lr, -4
	.cfi_offset r7, -8
	.pad	#24
	sub	sp, #24
	.cfi_def_cfa_offset 32
	mov	r12, r0
	ldr	r0, [sp, #36]
	ldr	r0, [sp, #32]
                                        @ kill: def $lr killed $r3
                                        @ kill: def $lr killed $r2
	str.w	r12, [sp, #16]
	str	r1, [sp, #12]
	strh.w	r2, [sp, #10]
	strh.w	r3, [sp, #8]
	strh.w	r0, [sp, #6]
	movs	r0, #0
.Ltmp101:
	.loc	6 481 14 prologue_end           @ lvgl/src/lv_draw/lv_img_decoder.c:481:14
	strb.w	r0, [sp, #5]
.Ltmp102:
	.loc	6 483 8                         @ lvgl/src/lv_draw/lv_img_decoder.c:483:8
	ldr	r0, [sp, #12]
	.loc	6 483 20 is_stmt 0              @ lvgl/src/lv_draw/lv_img_decoder.c:483:20
	ldrb	r0, [r0, #16]
	and	r0, r0, #31
	.loc	6 483 47                        @ lvgl/src/lv_draw/lv_img_decoder.c:483:47
	cmp	r0, #4
	beq	.LBB7_3
	b	.LBB7_1
.LBB7_1:
	.loc	6 483 50                        @ lvgl/src/lv_draw/lv_img_decoder.c:483:50
	ldr	r0, [sp, #12]
	.loc	6 483 62                        @ lvgl/src/lv_draw/lv_img_decoder.c:483:62
	ldrb	r0, [r0, #16]
	and	r0, r0, #31
	.loc	6 483 95                        @ lvgl/src/lv_draw/lv_img_decoder.c:483:95
	cmp	r0, #5
	beq	.LBB7_3
	b	.LBB7_2
.LBB7_2:
	.loc	6 484 8 is_stmt 1               @ lvgl/src/lv_draw/lv_img_decoder.c:484:8
	ldr	r0, [sp, #12]
	.loc	6 484 20 is_stmt 0              @ lvgl/src/lv_draw/lv_img_decoder.c:484:20
	ldrb	r0, [r0, #16]
	and	r0, r0, #31
.Ltmp103:
	.loc	6 483 8 is_stmt 1               @ lvgl/src/lv_draw/lv_img_decoder.c:483:8
	cmp	r0, #6
	bne	.LBB7_6
	b	.LBB7_3
.LBB7_3:
.Ltmp104:
	.loc	6 487 12                        @ lvgl/src/lv_draw/lv_img_decoder.c:487:12
	ldr	r0, [sp, #12]
	.loc	6 487 17 is_stmt 0              @ lvgl/src/lv_draw/lv_img_decoder.c:487:17
	ldrb	r0, [r0, #12]
.Ltmp105:
	.loc	6 487 12                        @ lvgl/src/lv_draw/lv_img_decoder.c:487:12
	cmp	r0, #1
	bne	.LBB7_5
	b	.LBB7_4
.LBB7_4:
.Ltmp106:
	.loc	6 488 59 is_stmt 1              @ lvgl/src/lv_draw/lv_img_decoder.c:488:59
	ldr	r0, [sp, #12]
	.loc	6 488 64 is_stmt 0              @ lvgl/src/lv_draw/lv_img_decoder.c:488:64
	ldrsh.w	r1, [sp, #10]
	.loc	6 488 67                        @ lvgl/src/lv_draw/lv_img_decoder.c:488:67
	ldrsh.w	r2, [sp, #8]
	.loc	6 488 70                        @ lvgl/src/lv_draw/lv_img_decoder.c:488:70
	ldrsh.w	r3, [sp, #6]
	.loc	6 488 75                        @ lvgl/src/lv_draw/lv_img_decoder.c:488:75
	ldr.w	r12, [sp, #36]
	.loc	6 488 19                        @ lvgl/src/lv_draw/lv_img_decoder.c:488:19
	mov	lr, sp
	str.w	r12, [lr]
	bl	lv_img_decoder_built_in_line_true_color
	.loc	6 488 17                        @ lvgl/src/lv_draw/lv_img_decoder.c:488:17
	strb.w	r0, [sp, #5]
	.loc	6 489 9 is_stmt 1               @ lvgl/src/lv_draw/lv_img_decoder.c:489:9
	b	.LBB7_5
.Ltmp107:
.LBB7_5:
	.loc	6 490 5                         @ lvgl/src/lv_draw/lv_img_decoder.c:490:5
	b	.LBB7_19
.Ltmp108:
.LBB7_6:
	.loc	6 491 13                        @ lvgl/src/lv_draw/lv_img_decoder.c:491:13
	ldr	r0, [sp, #12]
	.loc	6 491 25 is_stmt 0              @ lvgl/src/lv_draw/lv_img_decoder.c:491:25
	ldrb	r0, [r0, #16]
	and	r0, r0, #31
	.loc	6 491 52                        @ lvgl/src/lv_draw/lv_img_decoder.c:491:52
	cmp	r0, #11
	beq	.LBB7_10
	b	.LBB7_7
.LBB7_7:
	.loc	6 491 55                        @ lvgl/src/lv_draw/lv_img_decoder.c:491:55
	ldr	r0, [sp, #12]
	.loc	6 491 67                        @ lvgl/src/lv_draw/lv_img_decoder.c:491:67
	ldrb	r0, [r0, #16]
	and	r0, r0, #31
	.loc	6 491 94                        @ lvgl/src/lv_draw/lv_img_decoder.c:491:94
	cmp	r0, #12
	beq	.LBB7_10
	b	.LBB7_8
.LBB7_8:
	.loc	6 492 13 is_stmt 1              @ lvgl/src/lv_draw/lv_img_decoder.c:492:13
	ldr	r0, [sp, #12]
	.loc	6 492 25 is_stmt 0              @ lvgl/src/lv_draw/lv_img_decoder.c:492:25
	ldrb	r0, [r0, #16]
	and	r0, r0, #31
	.loc	6 492 52                        @ lvgl/src/lv_draw/lv_img_decoder.c:492:52
	cmp	r0, #13
	beq	.LBB7_10
	b	.LBB7_9
.LBB7_9:
	.loc	6 492 55                        @ lvgl/src/lv_draw/lv_img_decoder.c:492:55
	ldr	r0, [sp, #12]
	.loc	6 492 67                        @ lvgl/src/lv_draw/lv_img_decoder.c:492:67
	ldrb	r0, [r0, #16]
	and	r0, r0, #31
.Ltmp109:
	.loc	6 491 13 is_stmt 1              @ lvgl/src/lv_draw/lv_img_decoder.c:491:13
	cmp	r0, #14
	bne	.LBB7_11
	b	.LBB7_10
.LBB7_10:
.Ltmp110:
	.loc	6 493 50                        @ lvgl/src/lv_draw/lv_img_decoder.c:493:50
	ldr	r0, [sp, #12]
	.loc	6 493 55 is_stmt 0              @ lvgl/src/lv_draw/lv_img_decoder.c:493:55
	ldrsh.w	r1, [sp, #10]
	.loc	6 493 58                        @ lvgl/src/lv_draw/lv_img_decoder.c:493:58
	ldrsh.w	r2, [sp, #8]
	.loc	6 493 61                        @ lvgl/src/lv_draw/lv_img_decoder.c:493:61
	ldrsh.w	r3, [sp, #6]
	.loc	6 493 66                        @ lvgl/src/lv_draw/lv_img_decoder.c:493:66
	ldr.w	r12, [sp, #36]
	.loc	6 493 15                        @ lvgl/src/lv_draw/lv_img_decoder.c:493:15
	mov	lr, sp
	str.w	r12, [lr]
	bl	lv_img_decoder_built_in_line_alpha
	.loc	6 493 13                        @ lvgl/src/lv_draw/lv_img_decoder.c:493:13
	strb.w	r0, [sp, #5]
	.loc	6 494 5 is_stmt 1               @ lvgl/src/lv_draw/lv_img_decoder.c:494:5
	b	.LBB7_18
.Ltmp111:
.LBB7_11:
	.loc	6 495 13                        @ lvgl/src/lv_draw/lv_img_decoder.c:495:13
	ldr	r0, [sp, #12]
	.loc	6 495 25 is_stmt 0              @ lvgl/src/lv_draw/lv_img_decoder.c:495:25
	ldrb	r0, [r0, #16]
	and	r0, r0, #31
	.loc	6 495 54                        @ lvgl/src/lv_draw/lv_img_decoder.c:495:54
	cmp	r0, #7
	beq	.LBB7_15
	b	.LBB7_12
.LBB7_12:
	.loc	6 495 57                        @ lvgl/src/lv_draw/lv_img_decoder.c:495:57
	ldr	r0, [sp, #12]
	.loc	6 495 69                        @ lvgl/src/lv_draw/lv_img_decoder.c:495:69
	ldrb	r0, [r0, #16]
	and	r0, r0, #31
	.loc	6 495 98                        @ lvgl/src/lv_draw/lv_img_decoder.c:495:98
	cmp	r0, #8
	beq	.LBB7_15
	b	.LBB7_13
.LBB7_13:
	.loc	6 496 13 is_stmt 1              @ lvgl/src/lv_draw/lv_img_decoder.c:496:13
	ldr	r0, [sp, #12]
	.loc	6 496 25 is_stmt 0              @ lvgl/src/lv_draw/lv_img_decoder.c:496:25
	ldrb	r0, [r0, #16]
	and	r0, r0, #31
	.loc	6 496 54                        @ lvgl/src/lv_draw/lv_img_decoder.c:496:54
	cmp	r0, #9
	beq	.LBB7_15
	b	.LBB7_14
.LBB7_14:
	.loc	6 496 57                        @ lvgl/src/lv_draw/lv_img_decoder.c:496:57
	ldr	r0, [sp, #12]
	.loc	6 496 69                        @ lvgl/src/lv_draw/lv_img_decoder.c:496:69
	ldrb	r0, [r0, #16]
	and	r0, r0, #31
.Ltmp112:
	.loc	6 495 13 is_stmt 1              @ lvgl/src/lv_draw/lv_img_decoder.c:495:13
	cmp	r0, #10
	bne	.LBB7_16
	b	.LBB7_15
.LBB7_15:
.Ltmp113:
	.loc	6 497 52                        @ lvgl/src/lv_draw/lv_img_decoder.c:497:52
	ldr	r0, [sp, #12]
	.loc	6 497 57 is_stmt 0              @ lvgl/src/lv_draw/lv_img_decoder.c:497:57
	ldrsh.w	r1, [sp, #10]
	.loc	6 497 60                        @ lvgl/src/lv_draw/lv_img_decoder.c:497:60
	ldrsh.w	r2, [sp, #8]
	.loc	6 497 63                        @ lvgl/src/lv_draw/lv_img_decoder.c:497:63
	ldrsh.w	r3, [sp, #6]
	.loc	6 497 68                        @ lvgl/src/lv_draw/lv_img_decoder.c:497:68
	ldr.w	r12, [sp, #36]
	.loc	6 497 15                        @ lvgl/src/lv_draw/lv_img_decoder.c:497:15
	mov	lr, sp
	str.w	r12, [lr]
	bl	lv_img_decoder_built_in_line_indexed
	.loc	6 497 13                        @ lvgl/src/lv_draw/lv_img_decoder.c:497:13
	strb.w	r0, [sp, #5]
	.loc	6 498 5 is_stmt 1               @ lvgl/src/lv_draw/lv_img_decoder.c:498:5
	b	.LBB7_17
.Ltmp114:
.LBB7_16:
	.loc	6 0 5 is_stmt 0                 @ lvgl/src/lv_draw/lv_img_decoder.c:0:5
	movs	r0, #0
.Ltmp115:
	.loc	6 501 9 is_stmt 1               @ lvgl/src/lv_draw/lv_img_decoder.c:501:9
	strb.w	r0, [sp, #23]
	b	.LBB7_20
.Ltmp116:
.LBB7_17:
	.loc	6 0 9 is_stmt 0                 @ lvgl/src/lv_draw/lv_img_decoder.c:0:9
	b	.LBB7_18
.LBB7_18:
	b	.LBB7_19
.LBB7_19:
	.loc	6 504 12 is_stmt 1              @ lvgl/src/lv_draw/lv_img_decoder.c:504:12
	ldrb.w	r0, [sp, #5]
	.loc	6 504 5 is_stmt 0               @ lvgl/src/lv_draw/lv_img_decoder.c:504:5
	strb.w	r0, [sp, #23]
	b	.LBB7_20
.LBB7_20:
	.loc	6 505 1 is_stmt 1               @ lvgl/src/lv_draw/lv_img_decoder.c:505:1
	ldrb.w	r0, [sp, #23]
	add	sp, #24
	pop	{r7, pc}
.Ltmp117:
.Lfunc_end7:
	.size	lv_img_decoder_built_in_read_line, .Lfunc_end7-lv_img_decoder_built_in_read_line
	.cfi_endproc
	.cantunwind
	.fnend
                                        @ -- End function
	.section	.text.lv_img_decoder_set_close_cb,"ax",%progbits
	.hidden	lv_img_decoder_set_close_cb     @ -- Begin function lv_img_decoder_set_close_cb
	.globl	lv_img_decoder_set_close_cb
	.p2align	3
	.type	lv_img_decoder_set_close_cb,%function
	.code	16                              @ @lv_img_decoder_set_close_cb
	.thumb_func
lv_img_decoder_set_close_cb:
.Lfunc_begin8:
	.loc	6 259 0                         @ lvgl/src/lv_draw/lv_img_decoder.c:259:0
	.fnstart
	.cfi_startproc
@ %bb.0:
	.pad	#8
	sub	sp, #8
	.cfi_def_cfa_offset 8
	str	r0, [sp, #4]
	str	r1, [sp]
.Ltmp118:
	.loc	6 260 25 prologue_end           @ lvgl/src/lv_draw/lv_img_decoder.c:260:25
	ldr	r0, [sp]
	.loc	6 260 5 is_stmt 0               @ lvgl/src/lv_draw/lv_img_decoder.c:260:5
	ldr	r1, [sp, #4]
	.loc	6 260 23                        @ lvgl/src/lv_draw/lv_img_decoder.c:260:23
	str	r0, [r1, #12]
	.loc	6 261 1 is_stmt 1               @ lvgl/src/lv_draw/lv_img_decoder.c:261:1
	add	sp, #8
	bx	lr
.Ltmp119:
.Lfunc_end8:
	.size	lv_img_decoder_set_close_cb, .Lfunc_end8-lv_img_decoder_set_close_cb
	.cfi_endproc
	.cantunwind
	.fnend
                                        @ -- End function
	.section	.text.lv_img_decoder_built_in_close,"ax",%progbits
	.hidden	lv_img_decoder_built_in_close   @ -- Begin function lv_img_decoder_built_in_close
	.globl	lv_img_decoder_built_in_close
	.p2align	3
	.type	lv_img_decoder_built_in_close,%function
	.code	16                              @ @lv_img_decoder_built_in_close
	.thumb_func
lv_img_decoder_built_in_close:
.Lfunc_begin9:
	.loc	6 513 0                         @ lvgl/src/lv_draw/lv_img_decoder.c:513:0
	.fnstart
	.cfi_startproc
@ %bb.0:
	.save	{r7, lr}
	push	{r7, lr}
	.cfi_def_cfa_offset 8
	.cfi_offset lr, -4
	.cfi_offset r7, -8
	.pad	#16
	sub	sp, #16
	.cfi_def_cfa_offset 24
	str	r0, [sp, #12]
	str	r1, [sp, #8]
.Ltmp120:
	.loc	6 516 50 prologue_end           @ lvgl/src/lv_draw/lv_img_decoder.c:516:50
	ldr	r0, [sp, #8]
	.loc	6 516 55 is_stmt 0              @ lvgl/src/lv_draw/lv_img_decoder.c:516:55
	ldr	r0, [r0, #32]
	.loc	6 516 38                        @ lvgl/src/lv_draw/lv_img_decoder.c:516:38
	str	r0, [sp, #4]
.Ltmp121:
	.loc	6 517 8 is_stmt 1               @ lvgl/src/lv_draw/lv_img_decoder.c:517:8
	ldr	r0, [sp, #4]
.Ltmp122:
	.loc	6 517 8 is_stmt 0               @ lvgl/src/lv_draw/lv_img_decoder.c:517:8
	cbz	r0, .LBB9_6
	b	.LBB9_1
.LBB9_1:
.Ltmp123:
	.loc	6 522 12 is_stmt 1              @ lvgl/src/lv_draw/lv_img_decoder.c:522:12
	ldr	r0, [sp, #4]
	.loc	6 522 23 is_stmt 0              @ lvgl/src/lv_draw/lv_img_decoder.c:522:23
	ldr	r0, [r0]
.Ltmp124:
	.loc	6 522 12                        @ lvgl/src/lv_draw/lv_img_decoder.c:522:12
	cbz	r0, .LBB9_3
	b	.LBB9_2
.LBB9_2:
.Ltmp125:
	.loc	6 522 44                        @ lvgl/src/lv_draw/lv_img_decoder.c:522:44
	ldr	r0, [sp, #4]
	.loc	6 522 55                        @ lvgl/src/lv_draw/lv_img_decoder.c:522:55
	ldr	r0, [r0]
	.loc	6 522 32                        @ lvgl/src/lv_draw/lv_img_decoder.c:522:32
	bl	lv_mem_free
	b	.LBB9_3
.Ltmp126:
.LBB9_3:
	.loc	6 523 12 is_stmt 1              @ lvgl/src/lv_draw/lv_img_decoder.c:523:12
	ldr	r0, [sp, #4]
	.loc	6 523 23 is_stmt 0              @ lvgl/src/lv_draw/lv_img_decoder.c:523:23
	ldr	r0, [r0, #4]
.Ltmp127:
	.loc	6 523 12                        @ lvgl/src/lv_draw/lv_img_decoder.c:523:12
	cbz	r0, .LBB9_5
	b	.LBB9_4
.LBB9_4:
.Ltmp128:
	.loc	6 523 40                        @ lvgl/src/lv_draw/lv_img_decoder.c:523:40
	ldr	r0, [sp, #4]
	.loc	6 523 51                        @ lvgl/src/lv_draw/lv_img_decoder.c:523:51
	ldr	r0, [r0, #4]
	.loc	6 523 28                        @ lvgl/src/lv_draw/lv_img_decoder.c:523:28
	bl	lv_mem_free
	b	.LBB9_5
.Ltmp129:
.LBB9_5:
	.loc	6 525 21 is_stmt 1              @ lvgl/src/lv_draw/lv_img_decoder.c:525:21
	ldr	r0, [sp, #4]
	.loc	6 525 9 is_stmt 0               @ lvgl/src/lv_draw/lv_img_decoder.c:525:9
	bl	lv_mem_free
	.loc	6 526 9 is_stmt 1               @ lvgl/src/lv_draw/lv_img_decoder.c:526:9
	ldr	r1, [sp, #8]
	movs	r0, #0
	.loc	6 526 24 is_stmt 0              @ lvgl/src/lv_draw/lv_img_decoder.c:526:24
	str	r0, [r1, #32]
	.loc	6 527 5 is_stmt 1               @ lvgl/src/lv_draw/lv_img_decoder.c:527:5
	b	.LBB9_6
.Ltmp130:
.LBB9_6:
	.loc	6 528 1                         @ lvgl/src/lv_draw/lv_img_decoder.c:528:1
	add	sp, #16
	pop	{r7, pc}
.Ltmp131:
.Lfunc_end9:
	.size	lv_img_decoder_built_in_close, .Lfunc_end9-lv_img_decoder_built_in_close
	.cfi_endproc
	.cantunwind
	.fnend
                                        @ -- End function
	.section	.text.lv_img_decoder_get_info,"ax",%progbits
	.hidden	lv_img_decoder_get_info         @ -- Begin function lv_img_decoder_get_info
	.globl	lv_img_decoder_get_info
	.p2align	3
	.type	lv_img_decoder_get_info,%function
	.code	16                              @ @lv_img_decoder_get_info
	.thumb_func
lv_img_decoder_get_info:
.Lfunc_begin10:
	.loc	6 85 0                          @ lvgl/src/lv_draw/lv_img_decoder.c:85:0
	.fnstart
	.cfi_startproc
@ %bb.0:
	.save	{r7, lr}
	push	{r7, lr}
	.cfi_def_cfa_offset 8
	.cfi_offset lr, -4
	.cfi_offset r7, -8
	.pad	#16
	sub	sp, #16
	.cfi_def_cfa_offset 24
	str	r0, [sp, #12]
	str	r1, [sp, #8]
.Ltmp132:
	.loc	6 86 18 prologue_end            @ lvgl/src/lv_draw/lv_img_decoder.c:86:18
	ldr	r0, [sp, #8]
	movs	r1, #4
	.loc	6 86 4 is_stmt 0                @ lvgl/src/lv_draw/lv_img_decoder.c:86:4
	bl	_lv_memset_00
	movs	r0, #0
	.loc	6 88 14 is_stmt 1               @ lvgl/src/lv_draw/lv_img_decoder.c:88:14
	strb.w	r0, [sp, #7]
.Ltmp133:
	.loc	6 90 5                          @ lvgl/src/lv_draw/lv_img_decoder.c:90:5
	movw	r0, :lower16:_lv_img_defoder_ll
	movt	r0, :upper16:_lv_img_defoder_ll
	bl	_lv_ll_get_head
	str	r0, [sp]
	b	.LBB10_1
.LBB10_1:                               @ =>This Inner Loop Header: Depth=1
.Ltmp134:
	.loc	6 90 5 is_stmt 0                @ lvgl/src/lv_draw/lv_img_decoder.c:90:5
	ldr	r0, [sp]
.Ltmp135:
	.loc	6 90 5                          @ lvgl/src/lv_draw/lv_img_decoder.c:90:5
	cbz	r0, .LBB10_8
	b	.LBB10_2
.LBB10_2:                               @   in Loop: Header=BB10_1 Depth=1
.Ltmp136:
	.loc	6 91 12 is_stmt 1               @ lvgl/src/lv_draw/lv_img_decoder.c:91:12
	ldr	r0, [sp]
	.loc	6 91 15 is_stmt 0               @ lvgl/src/lv_draw/lv_img_decoder.c:91:15
	ldr	r0, [r0]
.Ltmp137:
	.loc	6 91 12                         @ lvgl/src/lv_draw/lv_img_decoder.c:91:12
	cbz	r0, .LBB10_6
	b	.LBB10_3
.LBB10_3:                               @   in Loop: Header=BB10_1 Depth=1
.Ltmp138:
	.loc	6 92 19 is_stmt 1               @ lvgl/src/lv_draw/lv_img_decoder.c:92:19
	ldr	r0, [sp]
	.loc	6 92 22 is_stmt 0               @ lvgl/src/lv_draw/lv_img_decoder.c:92:22
	ldr	r3, [r0]
	.loc	6 92 33                         @ lvgl/src/lv_draw/lv_img_decoder.c:92:33
	ldr	r1, [sp, #12]
	.loc	6 92 38                         @ lvgl/src/lv_draw/lv_img_decoder.c:92:38
	ldr	r2, [sp, #8]
	.loc	6 92 19                         @ lvgl/src/lv_draw/lv_img_decoder.c:92:19
	blx	r3
	.loc	6 92 17                         @ lvgl/src/lv_draw/lv_img_decoder.c:92:17
	strb.w	r0, [sp, #7]
.Ltmp139:
	.loc	6 93 16 is_stmt 1               @ lvgl/src/lv_draw/lv_img_decoder.c:93:16
	ldrb.w	r0, [sp, #7]
.Ltmp140:
	.loc	6 93 16 is_stmt 0               @ lvgl/src/lv_draw/lv_img_decoder.c:93:16
	cmp	r0, #1
	bne	.LBB10_5
	b	.LBB10_4
.LBB10_4:
.Ltmp141:
	.loc	6 93 34                         @ lvgl/src/lv_draw/lv_img_decoder.c:93:34
	b	.LBB10_8
.Ltmp142:
.LBB10_5:                               @   in Loop: Header=BB10_1 Depth=1
	.loc	6 94 9 is_stmt 1                @ lvgl/src/lv_draw/lv_img_decoder.c:94:9
	b	.LBB10_6
.Ltmp143:
.LBB10_6:                               @   in Loop: Header=BB10_1 Depth=1
	.loc	6 95 5                          @ lvgl/src/lv_draw/lv_img_decoder.c:95:5
	b	.LBB10_7
.Ltmp144:
.LBB10_7:                               @   in Loop: Header=BB10_1 Depth=1
	.loc	6 90 5                          @ lvgl/src/lv_draw/lv_img_decoder.c:90:5
	ldr	r1, [sp]
	movw	r0, :lower16:_lv_img_defoder_ll
	movt	r0, :upper16:_lv_img_defoder_ll
	bl	_lv_ll_get_next
	str	r0, [sp]
	b	.LBB10_1
.Ltmp145:
.LBB10_8:
	.loc	6 97 12                         @ lvgl/src/lv_draw/lv_img_decoder.c:97:12
	ldrb.w	r0, [sp, #7]
	.loc	6 97 5 is_stmt 0                @ lvgl/src/lv_draw/lv_img_decoder.c:97:5
	add	sp, #16
	pop	{r7, pc}
.Ltmp146:
.Lfunc_end10:
	.size	lv_img_decoder_get_info, .Lfunc_end10-lv_img_decoder_get_info
	.cfi_endproc
	.cantunwind
	.fnend
                                        @ -- End function
	.section	.text.lv_img_decoder_open,"ax",%progbits
	.hidden	lv_img_decoder_open             @ -- Begin function lv_img_decoder_open
	.globl	lv_img_decoder_open
	.p2align	3
	.type	lv_img_decoder_open,%function
	.code	16                              @ @lv_img_decoder_open
	.thumb_func
lv_img_decoder_open:
.Lfunc_begin11:
	.loc	6 113 0 is_stmt 1               @ lvgl/src/lv_draw/lv_img_decoder.c:113:0
	.fnstart
	.cfi_startproc
@ %bb.0:
	.save	{r7, lr}
	push	{r7, lr}
	.cfi_def_cfa_offset 8
	.cfi_offset lr, -4
	.cfi_offset r7, -8
	.pad	#32
	sub	sp, #32
	.cfi_def_cfa_offset 40
	str	r2, [sp, #24]
	str	r0, [sp, #20]
	str	r1, [sp, #16]
.Ltmp147:
	.loc	6 114 19 prologue_end           @ lvgl/src/lv_draw/lv_img_decoder.c:114:19
	ldr	r0, [sp, #20]
	movs	r1, #36
	.loc	6 114 5 is_stmt 0               @ lvgl/src/lv_draw/lv_img_decoder.c:114:5
	bl	_lv_memset_00
	.loc	6 116 5 is_stmt 1               @ lvgl/src/lv_draw/lv_img_decoder.c:116:5
	ldr	r1, [sp, #20]
	.loc	6 116 21 is_stmt 0              @ lvgl/src/lv_draw/lv_img_decoder.c:116:21
	ldr	r0, [sp, #24]
	str	r0, [r1, #8]
	.loc	6 117 41 is_stmt 1              @ lvgl/src/lv_draw/lv_img_decoder.c:117:41
	ldr	r0, [sp, #16]
	.loc	6 117 21 is_stmt 0              @ lvgl/src/lv_draw/lv_img_decoder.c:117:21
	bl	lv_img_src_get_type
	.loc	6 117 5                         @ lvgl/src/lv_draw/lv_img_decoder.c:117:5
	ldr	r1, [sp, #20]
	.loc	6 117 19                        @ lvgl/src/lv_draw/lv_img_decoder.c:117:19
	strb	r0, [r1, #12]
.Ltmp148:
	.loc	6 119 8 is_stmt 1               @ lvgl/src/lv_draw/lv_img_decoder.c:119:8
	ldr	r0, [sp, #20]
	.loc	6 119 13 is_stmt 0              @ lvgl/src/lv_draw/lv_img_decoder.c:119:13
	ldrb	r0, [r0, #12]
.Ltmp149:
	.loc	6 119 8                         @ lvgl/src/lv_draw/lv_img_decoder.c:119:8
	cmp	r0, #1
	bne	.LBB11_9
	b	.LBB11_1
.LBB11_1:
.Ltmp150:
	.loc	6 120 31 is_stmt 1              @ lvgl/src/lv_draw/lv_img_decoder.c:120:31
	ldr	r0, [sp, #16]
	.loc	6 120 24 is_stmt 0              @ lvgl/src/lv_draw/lv_img_decoder.c:120:24
	bl	strlen
	.loc	6 120 16                        @ lvgl/src/lv_draw/lv_img_decoder.c:120:16
	str	r0, [sp, #12]
	.loc	6 121 33 is_stmt 1              @ lvgl/src/lv_draw/lv_img_decoder.c:121:33
	ldr	r0, [sp, #12]
	.loc	6 121 39 is_stmt 0              @ lvgl/src/lv_draw/lv_img_decoder.c:121:39
	adds	r0, #1
	.loc	6 121 20                        @ lvgl/src/lv_draw/lv_img_decoder.c:121:20
	bl	lv_mem_alloc
	.loc	6 121 9                         @ lvgl/src/lv_draw/lv_img_decoder.c:121:9
	ldr	r1, [sp, #20]
	.loc	6 121 18                        @ lvgl/src/lv_draw/lv_img_decoder.c:121:18
	str	r0, [r1, #4]
	.loc	6 122 9 is_stmt 1               @ lvgl/src/lv_draw/lv_img_decoder.c:122:9
	b	.LBB11_2
.LBB11_2:
.Ltmp151:
	.loc	6 122 9 is_stmt 0               @ lvgl/src/lv_draw/lv_img_decoder.c:122:9
	ldr	r0, [sp, #20]
	ldr	r0, [r0, #4]
	bl	lv_debug_check_null
.Ltmp152:
	.loc	6 122 9                         @ lvgl/src/lv_draw/lv_img_decoder.c:122:9
	cbnz	r0, .LBB11_5
	b	.LBB11_3
.LBB11_3:
.Ltmp153:
	.loc	6 122 9                         @ lvgl/src/lv_draw/lv_img_decoder.c:122:9
	ldr	r0, [sp, #20]
	ldr	r2, [r0, #4]
	movw	r0, :lower16:.L.str
	movt	r0, :upper16:.L.str
	movs	r3, #0
	bl	lv_debug_log_error
	b	.LBB11_4
.LBB11_4:                               @ =>This Inner Loop Header: Depth=1
	b	.LBB11_4
.Ltmp154:
.LBB11_5:
	.loc	6 122 9                         @ lvgl/src/lv_draw/lv_img_decoder.c:122:9
	b	.LBB11_6
.Ltmp155:
.LBB11_6:
	.loc	6 123 12 is_stmt 1              @ lvgl/src/lv_draw/lv_img_decoder.c:123:12
	ldr	r0, [sp, #20]
	.loc	6 123 17 is_stmt 0              @ lvgl/src/lv_draw/lv_img_decoder.c:123:17
	ldr	r0, [r0, #4]
.Ltmp156:
	.loc	6 123 12                        @ lvgl/src/lv_draw/lv_img_decoder.c:123:12
	cbnz	r0, .LBB11_8
	b	.LBB11_7
.LBB11_7:
	.loc	6 0 12                          @ lvgl/src/lv_draw/lv_img_decoder.c:0:12
	movs	r0, #0
.Ltmp157:
	.loc	6 125 13 is_stmt 1              @ lvgl/src/lv_draw/lv_img_decoder.c:125:13
	strb.w	r0, [sp, #31]
	b	.LBB11_24
.Ltmp158:
.LBB11_8:
	.loc	6 127 24                        @ lvgl/src/lv_draw/lv_img_decoder.c:127:24
	ldr	r0, [sp, #20]
	.loc	6 127 29 is_stmt 0              @ lvgl/src/lv_draw/lv_img_decoder.c:127:29
	ldr	r0, [r0, #4]
	.loc	6 127 34                        @ lvgl/src/lv_draw/lv_img_decoder.c:127:34
	ldr	r1, [sp, #16]
	.loc	6 127 9                         @ lvgl/src/lv_draw/lv_img_decoder.c:127:9
	bl	strcpy
	.loc	6 128 5 is_stmt 1               @ lvgl/src/lv_draw/lv_img_decoder.c:128:5
	b	.LBB11_10
.Ltmp159:
.LBB11_9:
	.loc	6 130 20                        @ lvgl/src/lv_draw/lv_img_decoder.c:130:20
	ldr	r0, [sp, #16]
	.loc	6 130 9 is_stmt 0               @ lvgl/src/lv_draw/lv_img_decoder.c:130:9
	ldr	r1, [sp, #20]
	.loc	6 130 18                        @ lvgl/src/lv_draw/lv_img_decoder.c:130:18
	str	r0, [r1, #4]
	b	.LBB11_10
.Ltmp160:
.LBB11_10:
	.loc	6 0 18                          @ lvgl/src/lv_draw/lv_img_decoder.c:0:18
	movs	r0, #0
	.loc	6 133 14 is_stmt 1              @ lvgl/src/lv_draw/lv_img_decoder.c:133:14
	strb.w	r0, [sp, #11]
.Ltmp161:
	.loc	6 136 5                         @ lvgl/src/lv_draw/lv_img_decoder.c:136:5
	movw	r0, :lower16:_lv_img_defoder_ll
	movt	r0, :upper16:_lv_img_defoder_ll
	bl	_lv_ll_get_head
	str	r0, [sp, #4]
	b	.LBB11_11
.LBB11_11:                              @ =>This Inner Loop Header: Depth=1
.Ltmp162:
	.loc	6 136 5 is_stmt 0               @ lvgl/src/lv_draw/lv_img_decoder.c:136:5
	ldr	r0, [sp, #4]
.Ltmp163:
	.loc	6 136 5                         @ lvgl/src/lv_draw/lv_img_decoder.c:136:5
	cmp	r0, #0
	beq	.LBB11_21
	b	.LBB11_12
.LBB11_12:                              @   in Loop: Header=BB11_11 Depth=1
.Ltmp164:
	.loc	6 138 12 is_stmt 1              @ lvgl/src/lv_draw/lv_img_decoder.c:138:12
	ldr	r0, [sp, #4]
	.loc	6 138 15 is_stmt 0              @ lvgl/src/lv_draw/lv_img_decoder.c:138:15
	ldr	r0, [r0]
	.loc	6 138 31                        @ lvgl/src/lv_draw/lv_img_decoder.c:138:31
	cbz	r0, .LBB11_14
	b	.LBB11_13
.LBB11_13:                              @   in Loop: Header=BB11_11 Depth=1
	.loc	6 138 34                        @ lvgl/src/lv_draw/lv_img_decoder.c:138:34
	ldr	r0, [sp, #4]
	.loc	6 138 37                        @ lvgl/src/lv_draw/lv_img_decoder.c:138:37
	ldr	r0, [r0, #4]
.Ltmp165:
	.loc	6 138 12                        @ lvgl/src/lv_draw/lv_img_decoder.c:138:12
	cbnz	r0, .LBB11_15
	b	.LBB11_14
.LBB11_14:                              @   in Loop: Header=BB11_11 Depth=1
.Ltmp166:
	.loc	6 138 54                        @ lvgl/src/lv_draw/lv_img_decoder.c:138:54
	b	.LBB11_20
.Ltmp167:
.LBB11_15:                              @   in Loop: Header=BB11_11 Depth=1
	.loc	6 140 15 is_stmt 1              @ lvgl/src/lv_draw/lv_img_decoder.c:140:15
	ldr	r0, [sp, #4]
	.loc	6 140 18 is_stmt 0              @ lvgl/src/lv_draw/lv_img_decoder.c:140:18
	ldr	r3, [r0]
	.loc	6 140 29                        @ lvgl/src/lv_draw/lv_img_decoder.c:140:29
	ldr	r1, [sp, #16]
	.loc	6 140 35                        @ lvgl/src/lv_draw/lv_img_decoder.c:140:35
	ldr	r2, [sp, #20]
	.loc	6 140 40                        @ lvgl/src/lv_draw/lv_img_decoder.c:140:40
	adds	r2, #16
	.loc	6 140 15                        @ lvgl/src/lv_draw/lv_img_decoder.c:140:15
	blx	r3
	.loc	6 140 13                        @ lvgl/src/lv_draw/lv_img_decoder.c:140:13
	strb.w	r0, [sp, #11]
.Ltmp168:
	.loc	6 141 12 is_stmt 1              @ lvgl/src/lv_draw/lv_img_decoder.c:141:12
	ldrb.w	r0, [sp, #11]
.Ltmp169:
	.loc	6 141 12 is_stmt 0              @ lvgl/src/lv_draw/lv_img_decoder.c:141:12
	cmp	r0, #1
	beq	.LBB11_17
	b	.LBB11_16
.LBB11_16:                              @   in Loop: Header=BB11_11 Depth=1
.Ltmp170:
	.loc	6 141 30                        @ lvgl/src/lv_draw/lv_img_decoder.c:141:30
	b	.LBB11_20
.Ltmp171:
.LBB11_17:                              @   in Loop: Header=BB11_11 Depth=1
	.loc	6 143 24 is_stmt 1              @ lvgl/src/lv_draw/lv_img_decoder.c:143:24
	ldr	r0, [sp, #4]
	.loc	6 143 9 is_stmt 0               @ lvgl/src/lv_draw/lv_img_decoder.c:143:9
	ldr	r1, [sp, #20]
	.loc	6 143 22                        @ lvgl/src/lv_draw/lv_img_decoder.c:143:22
	str	r0, [r1]
	.loc	6 144 15 is_stmt 1              @ lvgl/src/lv_draw/lv_img_decoder.c:144:15
	ldr	r0, [sp, #4]
	.loc	6 144 18 is_stmt 0              @ lvgl/src/lv_draw/lv_img_decoder.c:144:18
	ldr	r2, [r0, #4]
	.loc	6 144 29                        @ lvgl/src/lv_draw/lv_img_decoder.c:144:29
	ldr	r1, [sp, #20]
	.loc	6 144 15                        @ lvgl/src/lv_draw/lv_img_decoder.c:144:15
	blx	r2
	.loc	6 144 13                        @ lvgl/src/lv_draw/lv_img_decoder.c:144:13
	strb.w	r0, [sp, #11]
.Ltmp172:
	.loc	6 147 12 is_stmt 1              @ lvgl/src/lv_draw/lv_img_decoder.c:147:12
	ldrb.w	r0, [sp, #11]
.Ltmp173:
	.loc	6 147 12 is_stmt 0              @ lvgl/src/lv_draw/lv_img_decoder.c:147:12
	cmp	r0, #1
	bne	.LBB11_19
	b	.LBB11_18
.LBB11_18:
.Ltmp174:
	.loc	6 147 37                        @ lvgl/src/lv_draw/lv_img_decoder.c:147:37
	ldrb.w	r0, [sp, #11]
	.loc	6 147 30                        @ lvgl/src/lv_draw/lv_img_decoder.c:147:30
	strb.w	r0, [sp, #31]
	b	.LBB11_24
.Ltmp175:
.LBB11_19:                              @   in Loop: Header=BB11_11 Depth=1
	.loc	6 150 24 is_stmt 1              @ lvgl/src/lv_draw/lv_img_decoder.c:150:24
	ldr	r0, [sp, #20]
	.loc	6 150 29 is_stmt 0              @ lvgl/src/lv_draw/lv_img_decoder.c:150:29
	adds	r0, #16
	movs	r1, #4
	.loc	6 150 9                         @ lvgl/src/lv_draw/lv_img_decoder.c:150:9
	bl	_lv_memset_00
	.loc	6 152 9 is_stmt 1               @ lvgl/src/lv_draw/lv_img_decoder.c:152:9
	ldr	r1, [sp, #20]
	movs	r0, #0
	.loc	6 152 24 is_stmt 0              @ lvgl/src/lv_draw/lv_img_decoder.c:152:24
	str	r0, [r1, #28]
	.loc	6 153 9 is_stmt 1               @ lvgl/src/lv_draw/lv_img_decoder.c:153:9
	ldr	r1, [sp, #20]
	.loc	6 153 24 is_stmt 0              @ lvgl/src/lv_draw/lv_img_decoder.c:153:24
	str	r0, [r1, #20]
	.loc	6 154 9 is_stmt 1               @ lvgl/src/lv_draw/lv_img_decoder.c:154:9
	ldr	r1, [sp, #20]
	.loc	6 154 24 is_stmt 0              @ lvgl/src/lv_draw/lv_img_decoder.c:154:24
	str	r0, [r1, #32]
	.loc	6 155 9 is_stmt 1               @ lvgl/src/lv_draw/lv_img_decoder.c:155:9
	ldr	r1, [sp, #20]
	.loc	6 155 27 is_stmt 0              @ lvgl/src/lv_draw/lv_img_decoder.c:155:27
	str	r0, [r1, #24]
	.loc	6 156 5 is_stmt 1               @ lvgl/src/lv_draw/lv_img_decoder.c:156:5
	b	.LBB11_20
.Ltmp176:
.LBB11_20:                              @   in Loop: Header=BB11_11 Depth=1
	.loc	6 136 5                         @ lvgl/src/lv_draw/lv_img_decoder.c:136:5
	ldr	r1, [sp, #4]
	movw	r0, :lower16:_lv_img_defoder_ll
	movt	r0, :upper16:_lv_img_defoder_ll
	bl	_lv_ll_get_next
	str	r0, [sp, #4]
	b	.LBB11_11
.Ltmp177:
.LBB11_21:
	.loc	6 158 8                         @ lvgl/src/lv_draw/lv_img_decoder.c:158:8
	ldr	r0, [sp, #20]
	.loc	6 158 13 is_stmt 0              @ lvgl/src/lv_draw/lv_img_decoder.c:158:13
	ldrb	r0, [r0, #12]
.Ltmp178:
	.loc	6 158 8                         @ lvgl/src/lv_draw/lv_img_decoder.c:158:8
	cmp	r0, #1
	bne	.LBB11_23
	b	.LBB11_22
.LBB11_22:
.Ltmp179:
	.loc	6 159 21 is_stmt 1              @ lvgl/src/lv_draw/lv_img_decoder.c:159:21
	ldr	r0, [sp, #20]
	.loc	6 159 26 is_stmt 0              @ lvgl/src/lv_draw/lv_img_decoder.c:159:26
	ldr	r0, [r0, #4]
	.loc	6 159 9                         @ lvgl/src/lv_draw/lv_img_decoder.c:159:9
	bl	lv_mem_free
	b	.LBB11_23
.Ltmp180:
.LBB11_23:
	.loc	6 161 12 is_stmt 1              @ lvgl/src/lv_draw/lv_img_decoder.c:161:12
	ldrb.w	r0, [sp, #11]
	.loc	6 161 5 is_stmt 0               @ lvgl/src/lv_draw/lv_img_decoder.c:161:5
	strb.w	r0, [sp, #31]
	b	.LBB11_24
.LBB11_24:
	.loc	6 162 1 is_stmt 1               @ lvgl/src/lv_draw/lv_img_decoder.c:162:1
	ldrb.w	r0, [sp, #31]
	add	sp, #32
	pop	{r7, pc}
.Ltmp181:
.Lfunc_end11:
	.size	lv_img_decoder_open, .Lfunc_end11-lv_img_decoder_open
	.cfi_endproc
	.cantunwind
	.fnend
                                        @ -- End function
	.section	.text.lv_img_decoder_read_line,"ax",%progbits
	.hidden	lv_img_decoder_read_line        @ -- Begin function lv_img_decoder_read_line
	.globl	lv_img_decoder_read_line
	.p2align	3
	.type	lv_img_decoder_read_line,%function
	.code	16                              @ @lv_img_decoder_read_line
	.thumb_func
lv_img_decoder_read_line:
.Lfunc_begin12:
	.loc	6 174 0                         @ lvgl/src/lv_draw/lv_img_decoder.c:174:0
	.fnstart
	.cfi_startproc
@ %bb.0:
	.save	{r4, r5, r7, lr}
	push	{r4, r5, r7, lr}
	.cfi_def_cfa_offset 16
	.cfi_offset lr, -4
	.cfi_offset r7, -8
	.cfi_offset r5, -12
	.cfi_offset r4, -16
	.pad	#24
	sub	sp, #24
	.cfi_def_cfa_offset 40
	ldr.w	r12, [sp, #40]
                                        @ kill: def $r12 killed $r3
                                        @ kill: def $r12 killed $r2
                                        @ kill: def $r12 killed $r1
	str	r0, [sp, #20]
	strh.w	r1, [sp, #18]
	strh.w	r2, [sp, #16]
	strh.w	r3, [sp, #14]
	movs	r0, #0
.Ltmp182:
	.loc	6 175 14 prologue_end           @ lvgl/src/lv_draw/lv_img_decoder.c:175:14
	strb.w	r0, [sp, #13]
.Ltmp183:
	.loc	6 176 8                         @ lvgl/src/lv_draw/lv_img_decoder.c:176:8
	ldr	r0, [sp, #20]
	.loc	6 176 13 is_stmt 0              @ lvgl/src/lv_draw/lv_img_decoder.c:176:13
	ldr	r0, [r0]
	.loc	6 176 22                        @ lvgl/src/lv_draw/lv_img_decoder.c:176:22
	ldr	r0, [r0, #8]
.Ltmp184:
	.loc	6 176 8                         @ lvgl/src/lv_draw/lv_img_decoder.c:176:8
	cbz	r0, .LBB12_2
	b	.LBB12_1
.LBB12_1:
.Ltmp185:
	.loc	6 176 42                        @ lvgl/src/lv_draw/lv_img_decoder.c:176:42
	ldr	r1, [sp, #20]
	.loc	6 176 47                        @ lvgl/src/lv_draw/lv_img_decoder.c:176:47
	ldr	r0, [r1]
	.loc	6 176 56                        @ lvgl/src/lv_draw/lv_img_decoder.c:176:56
	ldr.w	r12, [r0, #8]
	.loc	6 176 88                        @ lvgl/src/lv_draw/lv_img_decoder.c:176:88
	ldrsh.w	r2, [sp, #18]
	.loc	6 176 91                        @ lvgl/src/lv_draw/lv_img_decoder.c:176:91
	ldrsh.w	r3, [sp, #16]
	.loc	6 176 94                        @ lvgl/src/lv_draw/lv_img_decoder.c:176:94
	ldrsh.w	lr, [sp, #14]
	.loc	6 176 99                        @ lvgl/src/lv_draw/lv_img_decoder.c:176:99
	ldr	r5, [sp, #40]
	.loc	6 176 42                        @ lvgl/src/lv_draw/lv_img_decoder.c:176:42
	mov	r4, sp
	str	r5, [r4, #4]
	str.w	lr, [r4]
	blx	r12
	.loc	6 176 40                        @ lvgl/src/lv_draw/lv_img_decoder.c:176:40
	strb.w	r0, [sp, #13]
	.loc	6 176 36                        @ lvgl/src/lv_draw/lv_img_decoder.c:176:36
	b	.LBB12_2
.Ltmp186:
.LBB12_2:
	.loc	6 178 12 is_stmt 1              @ lvgl/src/lv_draw/lv_img_decoder.c:178:12
	ldrb.w	r0, [sp, #13]
	.loc	6 178 5 is_stmt 0               @ lvgl/src/lv_draw/lv_img_decoder.c:178:5
	add	sp, #24
	pop	{r4, r5, r7, pc}
.Ltmp187:
.Lfunc_end12:
	.size	lv_img_decoder_read_line, .Lfunc_end12-lv_img_decoder_read_line
	.cfi_endproc
	.cantunwind
	.fnend
                                        @ -- End function
	.section	.text.lv_img_decoder_close,"ax",%progbits
	.hidden	lv_img_decoder_close            @ -- Begin function lv_img_decoder_close
	.globl	lv_img_decoder_close
	.p2align	3
	.type	lv_img_decoder_close,%function
	.code	16                              @ @lv_img_decoder_close
	.thumb_func
lv_img_decoder_close:
.Lfunc_begin13:
	.loc	6 186 0 is_stmt 1               @ lvgl/src/lv_draw/lv_img_decoder.c:186:0
	.fnstart
	.cfi_startproc
@ %bb.0:
	.save	{r7, lr}
	push	{r7, lr}
	.cfi_def_cfa_offset 8
	.cfi_offset lr, -4
	.cfi_offset r7, -8
	.pad	#8
	sub	sp, #8
	.cfi_def_cfa_offset 16
	str	r0, [sp, #4]
.Ltmp188:
	.loc	6 187 8 prologue_end            @ lvgl/src/lv_draw/lv_img_decoder.c:187:8
	ldr	r0, [sp, #4]
	.loc	6 187 13 is_stmt 0              @ lvgl/src/lv_draw/lv_img_decoder.c:187:13
	ldr	r0, [r0]
.Ltmp189:
	.loc	6 187 8                         @ lvgl/src/lv_draw/lv_img_decoder.c:187:8
	cbz	r0, .LBB13_6
	b	.LBB13_1
.LBB13_1:
.Ltmp190:
	.loc	6 188 12 is_stmt 1              @ lvgl/src/lv_draw/lv_img_decoder.c:188:12
	ldr	r0, [sp, #4]
	.loc	6 188 17 is_stmt 0              @ lvgl/src/lv_draw/lv_img_decoder.c:188:17
	ldr	r0, [r0]
	.loc	6 188 26                        @ lvgl/src/lv_draw/lv_img_decoder.c:188:26
	ldr	r0, [r0, #12]
.Ltmp191:
	.loc	6 188 12                        @ lvgl/src/lv_draw/lv_img_decoder.c:188:12
	cbz	r0, .LBB13_3
	b	.LBB13_2
.LBB13_2:
.Ltmp192:
	.loc	6 188 36                        @ lvgl/src/lv_draw/lv_img_decoder.c:188:36
	ldr	r1, [sp, #4]
	.loc	6 188 41                        @ lvgl/src/lv_draw/lv_img_decoder.c:188:41
	ldr	r0, [r1]
	.loc	6 188 50                        @ lvgl/src/lv_draw/lv_img_decoder.c:188:50
	ldr	r2, [r0, #12]
	.loc	6 188 36                        @ lvgl/src/lv_draw/lv_img_decoder.c:188:36
	blx	r2
	b	.LBB13_3
.Ltmp193:
.LBB13_3:
	.loc	6 190 12 is_stmt 1              @ lvgl/src/lv_draw/lv_img_decoder.c:190:12
	ldr	r0, [sp, #4]
	.loc	6 190 17 is_stmt 0              @ lvgl/src/lv_draw/lv_img_decoder.c:190:17
	ldrb	r0, [r0, #12]
.Ltmp194:
	.loc	6 190 12                        @ lvgl/src/lv_draw/lv_img_decoder.c:190:12
	cmp	r0, #1
	bne	.LBB13_5
	b	.LBB13_4
.LBB13_4:
.Ltmp195:
	.loc	6 191 25 is_stmt 1              @ lvgl/src/lv_draw/lv_img_decoder.c:191:25
	ldr	r0, [sp, #4]
	.loc	6 191 30 is_stmt 0              @ lvgl/src/lv_draw/lv_img_decoder.c:191:30
	ldr	r0, [r0, #4]
	.loc	6 191 13                        @ lvgl/src/lv_draw/lv_img_decoder.c:191:13
	bl	lv_mem_free
	.loc	6 192 13 is_stmt 1              @ lvgl/src/lv_draw/lv_img_decoder.c:192:13
	ldr	r1, [sp, #4]
	movs	r0, #0
	.loc	6 192 22 is_stmt 0              @ lvgl/src/lv_draw/lv_img_decoder.c:192:22
	str	r0, [r1, #4]
	.loc	6 193 9 is_stmt 1               @ lvgl/src/lv_draw/lv_img_decoder.c:193:9
	b	.LBB13_5
.Ltmp196:
.LBB13_5:
	.loc	6 194 5                         @ lvgl/src/lv_draw/lv_img_decoder.c:194:5
	b	.LBB13_6
.Ltmp197:
.LBB13_6:
	.loc	6 195 1                         @ lvgl/src/lv_draw/lv_img_decoder.c:195:1
	add	sp, #8
	pop	{r7, pc}
.Ltmp198:
.Lfunc_end13:
	.size	lv_img_decoder_close, .Lfunc_end13-lv_img_decoder_close
	.cfi_endproc
	.cantunwind
	.fnend
                                        @ -- End function
	.section	.text.lv_img_decoder_delete,"ax",%progbits
	.hidden	lv_img_decoder_delete           @ -- Begin function lv_img_decoder_delete
	.globl	lv_img_decoder_delete
	.p2align	3
	.type	lv_img_decoder_delete,%function
	.code	16                              @ @lv_img_decoder_delete
	.thumb_func
lv_img_decoder_delete:
.Lfunc_begin14:
	.loc	6 218 0                         @ lvgl/src/lv_draw/lv_img_decoder.c:218:0
	.fnstart
	.cfi_startproc
@ %bb.0:
	.save	{r7, lr}
	push	{r7, lr}
	.cfi_def_cfa_offset 8
	.cfi_offset lr, -4
	.cfi_offset r7, -8
	.pad	#8
	sub	sp, #8
	.cfi_def_cfa_offset 16
	str	r0, [sp, #4]
.Ltmp199:
	.loc	6 219 52 prologue_end           @ lvgl/src/lv_draw/lv_img_decoder.c:219:52
	ldr	r1, [sp, #4]
	.loc	6 219 5 is_stmt 0               @ lvgl/src/lv_draw/lv_img_decoder.c:219:5
	movw	r0, :lower16:_lv_img_defoder_ll
	movt	r0, :upper16:_lv_img_defoder_ll
	bl	_lv_ll_remove
	.loc	6 220 17 is_stmt 1              @ lvgl/src/lv_draw/lv_img_decoder.c:220:17
	ldr	r0, [sp, #4]
	.loc	6 220 5 is_stmt 0               @ lvgl/src/lv_draw/lv_img_decoder.c:220:5
	bl	lv_mem_free
	.loc	6 221 1 is_stmt 1               @ lvgl/src/lv_draw/lv_img_decoder.c:221:1
	add	sp, #8
	pop	{r7, pc}
.Ltmp200:
.Lfunc_end14:
	.size	lv_img_decoder_delete, .Lfunc_end14-lv_img_decoder_delete
	.cfi_endproc
	.cantunwind
	.fnend
                                        @ -- End function
	.section	.text.lv_color_make,"ax",%progbits
	.p2align	3                               @ -- Begin function lv_color_make
	.type	lv_color_make,%function
	.code	16                              @ @lv_color_make
	.thumb_func
lv_color_make:
.Lfunc_begin15:
	.loc	5 584 0                         @ lvgl/src/lv_draw/../lv_core/../lv_misc/lv_color.h:584:0
	.fnstart
	.cfi_startproc
@ %bb.0:
	.pad	#8
	sub	sp, #8
	.cfi_def_cfa_offset 8
                                        @ kill: def $r3 killed $r2
                                        @ kill: def $r3 killed $r1
                                        @ kill: def $r3 killed $r0
	strb.w	r0, [sp, #3]
	strb.w	r1, [sp, #2]
	strb.w	r2, [sp, #1]
.Ltmp201:
	.loc	5 585 12 prologue_end           @ lvgl/src/lv_draw/../lv_core/../lv_misc/lv_color.h:585:12
	ldrb.w	r0, [sp, #1]
	strb.w	r0, [sp, #4]
	ldrb.w	r0, [sp, #2]
	strb.w	r0, [sp, #5]
	ldrb.w	r0, [sp, #3]
	strb.w	r0, [sp, #6]
	movs	r0, #255
	strb.w	r0, [sp, #7]
	.loc	5 585 5 is_stmt 0               @ lvgl/src/lv_draw/../lv_core/../lv_misc/lv_color.h:585:5
	ldr	r0, [sp, #4]
	add	sp, #8
	bx	lr
.Ltmp202:
.Lfunc_end15:
	.size	lv_color_make, .Lfunc_end15-lv_color_make
	.cfi_endproc
	.cantunwind
	.fnend
                                        @ -- End function
	.section	.text.lv_img_decoder_built_in_line_true_color,"ax",%progbits
	.p2align	3                               @ -- Begin function lv_img_decoder_built_in_line_true_color
	.type	lv_img_decoder_built_in_line_true_color,%function
	.code	16                              @ @lv_img_decoder_built_in_line_true_color
	.thumb_func
lv_img_decoder_built_in_line_true_color:
.Lfunc_begin16:
	.loc	6 536 0 is_stmt 1               @ lvgl/src/lv_draw/lv_img_decoder.c:536:0
	.fnstart
	.cfi_startproc
@ %bb.0:
	.pad	#12
	sub	sp, #12
	.cfi_def_cfa_offset 12
	ldr.w	r12, [sp, #12]
                                        @ kill: def $r12 killed $r3
                                        @ kill: def $r12 killed $r2
                                        @ kill: def $r12 killed $r1
	str	r0, [sp, #8]
	strh.w	r1, [sp, #6]
	strh.w	r2, [sp, #4]
	strh.w	r3, [sp, #2]
	movs	r0, #0
.Ltmp203:
	.loc	6 565 5 prologue_end            @ lvgl/src/lv_draw/lv_img_decoder.c:565:5
	add	sp, #12
	bx	lr
.Ltmp204:
.Lfunc_end16:
	.size	lv_img_decoder_built_in_line_true_color, .Lfunc_end16-lv_img_decoder_built_in_line_true_color
	.cfi_endproc
	.cantunwind
	.fnend
                                        @ -- End function
	.section	.text.lv_img_decoder_built_in_line_alpha,"ax",%progbits
	.p2align	3                               @ -- Begin function lv_img_decoder_built_in_line_alpha
	.type	lv_img_decoder_built_in_line_alpha,%function
	.code	16                              @ @lv_img_decoder_built_in_line_alpha
	.thumb_func
lv_img_decoder_built_in_line_alpha:
.Lfunc_begin17:
	.loc	6 571 0                         @ lvgl/src/lv_draw/lv_img_decoder.c:571:0
	.fnstart
	.cfi_startproc
@ %bb.0:
	.save	{r7, lr}
	push	{r7, lr}
	.cfi_def_cfa_offset 8
	.cfi_offset lr, -4
	.cfi_offset r7, -8
	.pad	#88
	sub	sp, #88
	.cfi_def_cfa_offset 96
	ldr.w	r12, [sp, #96]
                                        @ kill: def $r12 killed $r3
                                        @ kill: def $r12 killed $r2
                                        @ kill: def $r12 killed $r1
	str	r0, [sp, #80]
	strh.w	r1, [sp, #78]
	strh.w	r2, [sp, #76]
	strh.w	r3, [sp, #74]
	mov.w	r0, #65280
.Ltmp205:
	.loc	6 573 20 prologue_end           @ lvgl/src/lv_draw/lv_img_decoder.c:573:20
	strh.w	r0, [sp, #72]
	movw	r0, #21760
	movt	r0, #65450
	.loc	6 574 20                        @ lvgl/src/lv_draw/lv_img_decoder.c:574:20
	str	r0, [sp, #68]
	movw	r0, #56780
	movt	r0, #65518
	.loc	6 575 20                        @ lvgl/src/lv_draw/lv_img_decoder.c:575:20
	str	r0, [sp, #64]
	movw	r0, #39304
	movt	r0, #48042
	str	r0, [sp, #60]
	movw	r0, #21828
	movt	r0, #30566
	str	r0, [sp, #56]
	movw	r0, #4352
	movt	r0, #13090
	str	r0, [sp, #52]
	.loc	6 580 27                        @ lvgl/src/lv_draw/lv_img_decoder.c:580:27
	ldr	r0, [sp, #80]
	.loc	6 580 32 is_stmt 0              @ lvgl/src/lv_draw/lv_img_decoder.c:580:32
	ldr	r0, [r0, #8]
	str	r0, [sp, #48]
	movs	r0, #0
.Ltmp206:
	.loc	6 582 11 is_stmt 1              @ lvgl/src/lv_draw/lv_img_decoder.c:582:11
	strh.w	r0, [sp, #46]
	.loc	6 582 9 is_stmt 0               @ lvgl/src/lv_draw/lv_img_decoder.c:582:9
	b	.LBB17_1
.LBB17_1:                               @ =>This Inner Loop Header: Depth=1
.Ltmp207:
	.loc	6 582 16                        @ lvgl/src/lv_draw/lv_img_decoder.c:582:16
	ldrsh.w	r0, [sp, #46]
	.loc	6 582 20                        @ lvgl/src/lv_draw/lv_img_decoder.c:582:20
	ldrsh.w	r1, [sp, #74]
.Ltmp208:
	.loc	6 582 5                         @ lvgl/src/lv_draw/lv_img_decoder.c:582:5
	cmp	r0, r1
	bge	.LBB17_4
	b	.LBB17_2
.LBB17_2:                               @   in Loop: Header=BB17_1 Depth=1
.Ltmp209:
	.loc	6 590 71 is_stmt 1              @ lvgl/src/lv_draw/lv_img_decoder.c:590:71
	ldr	r0, [sp, #48]
	.loc	6 590 24 is_stmt 0              @ lvgl/src/lv_draw/lv_img_decoder.c:590:24
	ldr	r1, [sp, #96]
	.loc	6 590 28                        @ lvgl/src/lv_draw/lv_img_decoder.c:590:28
	ldrsh.w	r2, [sp, #46]
	.loc	6 590 60                        @ lvgl/src/lv_draw/lv_img_decoder.c:590:60
	str.w	r0, [r1, r2, lsl #2]
	.loc	6 594 5 is_stmt 1               @ lvgl/src/lv_draw/lv_img_decoder.c:594:5
	b	.LBB17_3
.Ltmp210:
.LBB17_3:                               @   in Loop: Header=BB17_1 Depth=1
	.loc	6 582 26                        @ lvgl/src/lv_draw/lv_img_decoder.c:582:26
	ldrh.w	r0, [sp, #46]
	adds	r0, #1
	strh.w	r0, [sp, #46]
	.loc	6 582 5 is_stmt 0               @ lvgl/src/lv_draw/lv_img_decoder.c:582:5
	b	.LBB17_1
.Ltmp211:
.LBB17_4:
	.loc	6 0 5                           @ lvgl/src/lv_draw/lv_img_decoder.c:0:5
	movs	r0, #0
	.loc	6 596 22 is_stmt 1              @ lvgl/src/lv_draw/lv_img_decoder.c:596:22
	str	r0, [sp, #4]                    @ 4-byte Spill
	str	r0, [sp, #40]
	.loc	6 597 56                        @ lvgl/src/lv_draw/lv_img_decoder.c:597:56
	ldr	r0, [sp, #80]
	.loc	6 597 68 is_stmt 0              @ lvgl/src/lv_draw/lv_img_decoder.c:597:68
	ldrb	r0, [r0, #16]
	and	r0, r0, #31
	.loc	6 597 34                        @ lvgl/src/lv_draw/lv_img_decoder.c:597:34
	bl	lv_img_cf_get_px_size
	mov	r1, r0
	.loc	6 597 13                        @ lvgl/src/lv_draw/lv_img_decoder.c:597:13
	ldr	r0, [sp, #4]                    @ 4-byte Reload
	strb.w	r1, [sp, #39]
	.loc	6 598 40 is_stmt 1              @ lvgl/src/lv_draw/lv_img_decoder.c:598:40
	ldrb.w	r2, [sp, #39]
	movs	r1, #1
	.loc	6 598 37 is_stmt 0              @ lvgl/src/lv_draw/lv_img_decoder.c:598:37
	lsls	r1, r2
	.loc	6 598 49                        @ lvgl/src/lv_draw/lv_img_decoder.c:598:49
	subs	r1, #1
	.loc	6 598 14                        @ lvgl/src/lv_draw/lv_img_decoder.c:598:14
	strh.w	r1, [sp, #36]
	.loc	6 600 16 is_stmt 1              @ lvgl/src/lv_draw/lv_img_decoder.c:600:16
	strh.w	r0, [sp, #34]
	.loc	6 601 14                        @ lvgl/src/lv_draw/lv_img_decoder.c:601:14
	str	r0, [sp, #28]
	.loc	6 602 12                        @ lvgl/src/lv_draw/lv_img_decoder.c:602:12
	strb.w	r0, [sp, #27]
	.loc	6 603 12                        @ lvgl/src/lv_draw/lv_img_decoder.c:603:12
	ldr	r0, [sp, #80]
	.loc	6 603 24 is_stmt 0              @ lvgl/src/lv_draw/lv_img_decoder.c:603:24
	ldrb	r0, [r0, #16]
	and	r0, r0, #31
	.loc	6 603 5                         @ lvgl/src/lv_draw/lv_img_decoder.c:603:5
	subs	r0, #11
	mov	r1, r0
	str	r1, [sp, #8]                    @ 4-byte Spill
	cmp	r0, #3
	bhi.w	.LBB17_11
@ %bb.5:
	.loc	6 0 5                           @ lvgl/src/lv_draw/lv_img_decoder.c:0:5
	ldr	r1, [sp, #8]                    @ 4-byte Reload
.LCPI17_0:
	tbb	[pc, r1]
@ %bb.6:
.LJTI17_0:
	.byte	(.LBB17_7-(.LCPI17_0+4))/2
	.byte	(.LBB17_8-(.LCPI17_0+4))/2
	.byte	(.LBB17_9-(.LCPI17_0+4))/2
	.byte	(.LBB17_10-(.LCPI17_0+4))/2
	.p2align	1
.LBB17_7:
.Ltmp212:
	.loc	6 605 18 is_stmt 1              @ lvgl/src/lv_draw/lv_img_decoder.c:605:18
	ldr	r0, [sp, #80]
	.loc	6 605 30 is_stmt 0              @ lvgl/src/lv_draw/lv_img_decoder.c:605:30
	ldrh.w	r0, [r0, #17]
	ubfx	r0, r0, #2, #11
	.loc	6 605 32                        @ lvgl/src/lv_draw/lv_img_decoder.c:605:32
	adds	r0, #7
	.loc	6 605 37                        @ lvgl/src/lv_draw/lv_img_decoder.c:605:37
	lsrs	r0, r0, #3
	.loc	6 605 15                        @ lvgl/src/lv_draw/lv_img_decoder.c:605:15
	strh.w	r0, [sp, #34]
	.loc	6 606 20 is_stmt 1              @ lvgl/src/lv_draw/lv_img_decoder.c:606:20
	ldrsh.w	r0, [sp, #34]
	.loc	6 606 24 is_stmt 0              @ lvgl/src/lv_draw/lv_img_decoder.c:606:24
	ldrsh.w	r1, [sp, #76]
	.loc	6 606 22                        @ lvgl/src/lv_draw/lv_img_decoder.c:606:22
	muls	r0, r1, r0
	.loc	6 606 29                        @ lvgl/src/lv_draw/lv_img_decoder.c:606:29
	ldrsh.w	r1, [sp, #78]
	.loc	6 606 26                        @ lvgl/src/lv_draw/lv_img_decoder.c:606:26
	add.w	r1, r0, r1, asr #3
	.loc	6 606 17                        @ lvgl/src/lv_draw/lv_img_decoder.c:606:17
	ldr	r0, [sp, #28]
	add	r0, r1
	str	r0, [sp, #28]
	.loc	6 607 24 is_stmt 1              @ lvgl/src/lv_draw/lv_img_decoder.c:607:24
	ldrh.w	r1, [sp, #78]
	movs	r0, #7
	.loc	6 607 21 is_stmt 0              @ lvgl/src/lv_draw/lv_img_decoder.c:607:21
	bics	r0, r1
	.loc	6 607 17                        @ lvgl/src/lv_draw/lv_img_decoder.c:607:17
	strb.w	r0, [sp, #27]
	add	r0, sp, #72
	.loc	6 608 23 is_stmt 1              @ lvgl/src/lv_draw/lv_img_decoder.c:608:23
	str	r0, [sp, #40]
	.loc	6 609 13                        @ lvgl/src/lv_draw/lv_img_decoder.c:609:13
	b	.LBB17_11
.LBB17_8:
	.loc	6 611 18                        @ lvgl/src/lv_draw/lv_img_decoder.c:611:18
	ldr	r0, [sp, #80]
	.loc	6 611 30 is_stmt 0              @ lvgl/src/lv_draw/lv_img_decoder.c:611:30
	ldrh.w	r0, [r0, #17]
	ubfx	r0, r0, #2, #11
	.loc	6 611 32                        @ lvgl/src/lv_draw/lv_img_decoder.c:611:32
	adds	r0, #3
	.loc	6 611 37                        @ lvgl/src/lv_draw/lv_img_decoder.c:611:37
	lsrs	r0, r0, #2
	.loc	6 611 15                        @ lvgl/src/lv_draw/lv_img_decoder.c:611:15
	strh.w	r0, [sp, #34]
	.loc	6 612 20 is_stmt 1              @ lvgl/src/lv_draw/lv_img_decoder.c:612:20
	ldrsh.w	r0, [sp, #34]
	.loc	6 612 24 is_stmt 0              @ lvgl/src/lv_draw/lv_img_decoder.c:612:24
	ldrsh.w	r1, [sp, #76]
	.loc	6 612 22                        @ lvgl/src/lv_draw/lv_img_decoder.c:612:22
	muls	r0, r1, r0
	.loc	6 612 29                        @ lvgl/src/lv_draw/lv_img_decoder.c:612:29
	ldrsh.w	r1, [sp, #78]
	.loc	6 612 26                        @ lvgl/src/lv_draw/lv_img_decoder.c:612:26
	add.w	r1, r0, r1, asr #2
	.loc	6 612 17                        @ lvgl/src/lv_draw/lv_img_decoder.c:612:17
	ldr	r0, [sp, #28]
	add	r0, r1
	str	r0, [sp, #28]
	.loc	6 613 24 is_stmt 1              @ lvgl/src/lv_draw/lv_img_decoder.c:613:24
	ldrh.w	r0, [sp, #78]
	.loc	6 613 26 is_stmt 0              @ lvgl/src/lv_draw/lv_img_decoder.c:613:26
	and	r1, r0, #3
	movs	r0, #6
	.loc	6 613 21                        @ lvgl/src/lv_draw/lv_img_decoder.c:613:21
	sub.w	r0, r0, r1, lsl #1
	.loc	6 613 17                        @ lvgl/src/lv_draw/lv_img_decoder.c:613:17
	strb.w	r0, [sp, #27]
	add	r0, sp, #68
	.loc	6 614 23 is_stmt 1              @ lvgl/src/lv_draw/lv_img_decoder.c:614:23
	str	r0, [sp, #40]
	.loc	6 615 13                        @ lvgl/src/lv_draw/lv_img_decoder.c:615:13
	b	.LBB17_11
.LBB17_9:
	.loc	6 617 18                        @ lvgl/src/lv_draw/lv_img_decoder.c:617:18
	ldr	r0, [sp, #80]
	.loc	6 617 30 is_stmt 0              @ lvgl/src/lv_draw/lv_img_decoder.c:617:30
	ldrh.w	r0, [r0, #17]
	ubfx	r0, r0, #2, #11
	.loc	6 617 32                        @ lvgl/src/lv_draw/lv_img_decoder.c:617:32
	adds	r0, #1
	.loc	6 617 37                        @ lvgl/src/lv_draw/lv_img_decoder.c:617:37
	lsrs	r0, r0, #1
	.loc	6 617 15                        @ lvgl/src/lv_draw/lv_img_decoder.c:617:15
	strh.w	r0, [sp, #34]
	.loc	6 618 20 is_stmt 1              @ lvgl/src/lv_draw/lv_img_decoder.c:618:20
	ldrsh.w	r0, [sp, #34]
	.loc	6 618 24 is_stmt 0              @ lvgl/src/lv_draw/lv_img_decoder.c:618:24
	ldrsh.w	r1, [sp, #76]
	.loc	6 618 22                        @ lvgl/src/lv_draw/lv_img_decoder.c:618:22
	muls	r0, r1, r0
	.loc	6 618 29                        @ lvgl/src/lv_draw/lv_img_decoder.c:618:29
	ldrsh.w	r1, [sp, #78]
	.loc	6 618 26                        @ lvgl/src/lv_draw/lv_img_decoder.c:618:26
	add.w	r1, r0, r1, asr #1
	.loc	6 618 17                        @ lvgl/src/lv_draw/lv_img_decoder.c:618:17
	ldr	r0, [sp, #28]
	add	r0, r1
	str	r0, [sp, #28]
	.loc	6 619 24 is_stmt 1              @ lvgl/src/lv_draw/lv_img_decoder.c:619:24
	ldrh.w	r0, [sp, #78]
	.loc	6 619 26 is_stmt 0              @ lvgl/src/lv_draw/lv_img_decoder.c:619:26
	and	r1, r0, #1
	movs	r0, #4
	.loc	6 619 21                        @ lvgl/src/lv_draw/lv_img_decoder.c:619:21
	sub.w	r0, r0, r1, lsl #2
	.loc	6 619 17                        @ lvgl/src/lv_draw/lv_img_decoder.c:619:17
	strb.w	r0, [sp, #27]
	add	r0, sp, #52
	.loc	6 620 23 is_stmt 1              @ lvgl/src/lv_draw/lv_img_decoder.c:620:23
	str	r0, [sp, #40]
	.loc	6 621 13                        @ lvgl/src/lv_draw/lv_img_decoder.c:621:13
	b	.LBB17_11
.LBB17_10:
	.loc	6 623 17                        @ lvgl/src/lv_draw/lv_img_decoder.c:623:17
	ldr	r0, [sp, #80]
	.loc	6 623 29 is_stmt 0              @ lvgl/src/lv_draw/lv_img_decoder.c:623:29
	ldrh.w	r0, [r0, #17]
	.loc	6 623 17                        @ lvgl/src/lv_draw/lv_img_decoder.c:623:17
	ubfx	r0, r0, #2, #11
	.loc	6 623 15                        @ lvgl/src/lv_draw/lv_img_decoder.c:623:15
	strh.w	r0, [sp, #34]
	.loc	6 624 20 is_stmt 1              @ lvgl/src/lv_draw/lv_img_decoder.c:624:20
	ldrsh.w	r0, [sp, #34]
	.loc	6 624 24 is_stmt 0              @ lvgl/src/lv_draw/lv_img_decoder.c:624:24
	ldrsh.w	r1, [sp, #76]
	.loc	6 624 28                        @ lvgl/src/lv_draw/lv_img_decoder.c:624:28
	ldrsh.w	r2, [sp, #78]
	.loc	6 624 26                        @ lvgl/src/lv_draw/lv_img_decoder.c:624:26
	smlabb	r1, r0, r1, r2
	.loc	6 624 17                        @ lvgl/src/lv_draw/lv_img_decoder.c:624:17
	ldr	r0, [sp, #28]
	add	r0, r1
	str	r0, [sp, #28]
	movs	r0, #0
	.loc	6 625 17 is_stmt 1              @ lvgl/src/lv_draw/lv_img_decoder.c:625:17
	strb.w	r0, [sp, #27]
	.loc	6 626 13                        @ lvgl/src/lv_draw/lv_img_decoder.c:626:13
	b	.LBB17_11
.Ltmp213:
.LBB17_11:
	.loc	6 0 13 is_stmt 0                @ lvgl/src/lv_draw/lv_img_decoder.c:0:13
	movs	r0, #0
	.loc	6 635 21 is_stmt 1              @ lvgl/src/lv_draw/lv_img_decoder.c:635:21
	str	r0, [sp, #20]
.Ltmp214:
	.loc	6 636 8                         @ lvgl/src/lv_draw/lv_img_decoder.c:636:8
	ldr	r0, [sp, #80]
	.loc	6 636 13 is_stmt 0              @ lvgl/src/lv_draw/lv_img_decoder.c:636:13
	ldrb	r0, [r0, #12]
.Ltmp215:
	.loc	6 636 8                         @ lvgl/src/lv_draw/lv_img_decoder.c:636:8
	cbnz	r0, .LBB17_13
	b	.LBB17_12
.LBB17_12:
.Ltmp216:
	.loc	6 637 40 is_stmt 1              @ lvgl/src/lv_draw/lv_img_decoder.c:637:40
	ldr	r0, [sp, #80]
	.loc	6 637 45 is_stmt 0              @ lvgl/src/lv_draw/lv_img_decoder.c:637:45
	ldr	r0, [r0, #4]
	.loc	6 637 30                        @ lvgl/src/lv_draw/lv_img_decoder.c:637:30
	str	r0, [sp, #16]
	.loc	6 639 20 is_stmt 1              @ lvgl/src/lv_draw/lv_img_decoder.c:639:20
	ldr	r0, [sp, #16]
	.loc	6 639 29 is_stmt 0              @ lvgl/src/lv_draw/lv_img_decoder.c:639:29
	ldr	r0, [r0, #8]
	.loc	6 639 36                        @ lvgl/src/lv_draw/lv_img_decoder.c:639:36
	ldr	r1, [sp, #28]
	.loc	6 639 34                        @ lvgl/src/lv_draw/lv_img_decoder.c:639:34
	add	r0, r1
	.loc	6 639 18                        @ lvgl/src/lv_draw/lv_img_decoder.c:639:18
	str	r0, [sp, #20]
	.loc	6 640 5 is_stmt 1               @ lvgl/src/lv_draw/lv_img_decoder.c:640:5
	b	.LBB17_14
.Ltmp217:
.LBB17_13:
	.loc	6 0 5 is_stmt 0                 @ lvgl/src/lv_draw/lv_img_decoder.c:0:5
	movs	r0, #0
.Ltmp218:
	.loc	6 648 18 is_stmt 1              @ lvgl/src/lv_draw/lv_img_decoder.c:648:18
	str	r0, [sp, #20]
	.loc	6 649 9                         @ lvgl/src/lv_draw/lv_img_decoder.c:649:9
	strb.w	r0, [sp, #87]
	b	.LBB17_24
.Ltmp219:
.LBB17_14:
	.loc	6 0 9 is_stmt 0                 @ lvgl/src/lv_draw/lv_img_decoder.c:0:9
	movs	r0, #0
.Ltmp220:
	.loc	6 653 11 is_stmt 1              @ lvgl/src/lv_draw/lv_img_decoder.c:653:11
	strh.w	r0, [sp, #46]
	.loc	6 653 9 is_stmt 0               @ lvgl/src/lv_draw/lv_img_decoder.c:653:9
	b	.LBB17_15
.LBB17_15:                              @ =>This Inner Loop Header: Depth=1
.Ltmp221:
	.loc	6 653 16                        @ lvgl/src/lv_draw/lv_img_decoder.c:653:16
	ldrsh.w	r0, [sp, #46]
	.loc	6 653 20                        @ lvgl/src/lv_draw/lv_img_decoder.c:653:20
	ldrsh.w	r1, [sp, #74]
.Ltmp222:
	.loc	6 653 5                         @ lvgl/src/lv_draw/lv_img_decoder.c:653:5
	cmp	r0, r1
	bge	.LBB17_23
	b	.LBB17_16
.LBB17_16:                              @   in Loop: Header=BB17_15 Depth=1
.Ltmp223:
	.loc	6 654 29 is_stmt 1              @ lvgl/src/lv_draw/lv_img_decoder.c:654:29
	ldr	r0, [sp, #20]
	.loc	6 654 28 is_stmt 0              @ lvgl/src/lv_draw/lv_img_decoder.c:654:28
	ldrb	r0, [r0]
	.loc	6 654 41                        @ lvgl/src/lv_draw/lv_img_decoder.c:654:41
	ldrsb.w	r1, [sp, #27]
	.loc	6 654 38                        @ lvgl/src/lv_draw/lv_img_decoder.c:654:38
	lsrs	r0, r1
	.loc	6 654 48                        @ lvgl/src/lv_draw/lv_img_decoder.c:654:48
	ldrh.w	r1, [sp, #36]
	.loc	6 654 46                        @ lvgl/src/lv_draw/lv_img_decoder.c:654:46
	ands	r0, r1
	.loc	6 654 17                        @ lvgl/src/lv_draw/lv_img_decoder.c:654:17
	strb.w	r0, [sp, #15]
	.loc	6 657 13 is_stmt 1              @ lvgl/src/lv_draw/lv_img_decoder.c:657:13
	ldr	r0, [sp, #80]
	.loc	6 657 25 is_stmt 0              @ lvgl/src/lv_draw/lv_img_decoder.c:657:25
	ldrb	r0, [r0, #16]
	and	r0, r0, #31
	.loc	6 657 13                        @ lvgl/src/lv_draw/lv_img_decoder.c:657:13
	cmp	r0, #14
	bne	.LBB17_18
	b	.LBB17_17
.LBB17_17:                              @   in Loop: Header=BB17_15 Depth=1
	.loc	6 657 54                        @ lvgl/src/lv_draw/lv_img_decoder.c:657:54
	ldrb.w	r0, [sp, #15]
	.loc	6 657 13                        @ lvgl/src/lv_draw/lv_img_decoder.c:657:13
	str	r0, [sp]                        @ 4-byte Spill
	b	.LBB17_19
.LBB17_18:                              @   in Loop: Header=BB17_15 Depth=1
	.loc	6 657 64                        @ lvgl/src/lv_draw/lv_img_decoder.c:657:64
	ldr	r0, [sp, #40]
	.loc	6 657 74                        @ lvgl/src/lv_draw/lv_img_decoder.c:657:74
	ldrb.w	r1, [sp, #15]
	.loc	6 657 64                        @ lvgl/src/lv_draw/lv_img_decoder.c:657:64
	ldrb	r0, [r0, r1]
	.loc	6 657 13                        @ lvgl/src/lv_draw/lv_img_decoder.c:657:13
	str	r0, [sp]                        @ 4-byte Spill
	b	.LBB17_19
.LBB17_19:                              @   in Loop: Header=BB17_15 Depth=1
	ldr	r0, [sp]                        @ 4-byte Reload
	.loc	6 656 9 is_stmt 1               @ lvgl/src/lv_draw/lv_img_decoder.c:656:9
	ldr	r1, [sp, #96]
	.loc	6 656 13 is_stmt 0              @ lvgl/src/lv_draw/lv_img_decoder.c:656:13
	ldrsh.w	r2, [sp, #46]
	.loc	6 656 43                        @ lvgl/src/lv_draw/lv_img_decoder.c:656:43
	add.w	r1, r1, r2, lsl #2
	.loc	6 656 76                        @ lvgl/src/lv_draw/lv_img_decoder.c:656:76
	strb	r0, [r1, #3]
	.loc	6 659 16 is_stmt 1              @ lvgl/src/lv_draw/lv_img_decoder.c:659:16
	ldrb.w	r1, [sp, #39]
	.loc	6 659 13 is_stmt 0              @ lvgl/src/lv_draw/lv_img_decoder.c:659:13
	ldrb.w	r0, [sp, #27]
	subs	r0, r0, r1
	strb.w	r0, [sp, #27]
.Ltmp224:
	.loc	6 660 12 is_stmt 1              @ lvgl/src/lv_draw/lv_img_decoder.c:660:12
	ldrsb.w	r0, [sp, #27]
.Ltmp225:
	.loc	6 660 12 is_stmt 0              @ lvgl/src/lv_draw/lv_img_decoder.c:660:12
	cmp.w	r0, #-1
	bgt	.LBB17_21
	b	.LBB17_20
.LBB17_20:                              @   in Loop: Header=BB17_15 Depth=1
.Ltmp226:
	.loc	6 661 23 is_stmt 1              @ lvgl/src/lv_draw/lv_img_decoder.c:661:23
	ldrb.w	r0, [sp, #39]
	.loc	6 661 21 is_stmt 0              @ lvgl/src/lv_draw/lv_img_decoder.c:661:21
	rsb.w	r0, r0, #8
	.loc	6 661 17                        @ lvgl/src/lv_draw/lv_img_decoder.c:661:17
	strb.w	r0, [sp, #27]
	.loc	6 662 21 is_stmt 1              @ lvgl/src/lv_draw/lv_img_decoder.c:662:21
	ldr	r0, [sp, #20]
	adds	r0, #1
	str	r0, [sp, #20]
	.loc	6 663 9                         @ lvgl/src/lv_draw/lv_img_decoder.c:663:9
	b	.LBB17_21
.Ltmp227:
.LBB17_21:                              @   in Loop: Header=BB17_15 Depth=1
	.loc	6 664 5                         @ lvgl/src/lv_draw/lv_img_decoder.c:664:5
	b	.LBB17_22
.Ltmp228:
.LBB17_22:                              @   in Loop: Header=BB17_15 Depth=1
	.loc	6 653 26                        @ lvgl/src/lv_draw/lv_img_decoder.c:653:26
	ldrh.w	r0, [sp, #46]
	adds	r0, #1
	strh.w	r0, [sp, #46]
	.loc	6 653 5 is_stmt 0               @ lvgl/src/lv_draw/lv_img_decoder.c:653:5
	b	.LBB17_15
.Ltmp229:
.LBB17_23:
	.loc	6 0 5                           @ lvgl/src/lv_draw/lv_img_decoder.c:0:5
	movs	r0, #1
	.loc	6 668 5 is_stmt 1               @ lvgl/src/lv_draw/lv_img_decoder.c:668:5
	strb.w	r0, [sp, #87]
	b	.LBB17_24
.LBB17_24:
	.loc	6 673 1                         @ lvgl/src/lv_draw/lv_img_decoder.c:673:1
	ldrb.w	r0, [sp, #87]
	add	sp, #88
	pop	{r7, pc}
.Ltmp230:
.Lfunc_end17:
	.size	lv_img_decoder_built_in_line_alpha, .Lfunc_end17-lv_img_decoder_built_in_line_alpha
	.cfi_endproc
	.cantunwind
	.fnend
                                        @ -- End function
	.section	.text.lv_img_decoder_built_in_line_indexed,"ax",%progbits
	.p2align	3                               @ -- Begin function lv_img_decoder_built_in_line_indexed
	.type	lv_img_decoder_built_in_line_indexed,%function
	.code	16                              @ @lv_img_decoder_built_in_line_indexed
	.thumb_func
lv_img_decoder_built_in_line_indexed:
.Lfunc_begin18:
	.loc	6 677 0                         @ lvgl/src/lv_draw/lv_img_decoder.c:677:0
	.fnstart
	.cfi_startproc
@ %bb.0:
	.save	{r7, lr}
	push	{r7, lr}
	.cfi_def_cfa_offset 8
	.cfi_offset lr, -4
	.cfi_offset r7, -8
	.pad	#56
	sub	sp, #56
	.cfi_def_cfa_offset 64
	ldr.w	r12, [sp, #64]
                                        @ kill: def $r12 killed $r3
                                        @ kill: def $r12 killed $r2
                                        @ kill: def $r12 killed $r1
	str	r0, [sp, #48]
	strh.w	r1, [sp, #46]
	strh.w	r2, [sp, #44]
	strh.w	r3, [sp, #42]
.Ltmp231:
	.loc	6 679 45 prologue_end           @ lvgl/src/lv_draw/lv_img_decoder.c:679:45
	ldr	r0, [sp, #48]
	.loc	6 679 57 is_stmt 0              @ lvgl/src/lv_draw/lv_img_decoder.c:679:57
	ldrb	r0, [r0, #16]
	and	r0, r0, #31
	.loc	6 679 23                        @ lvgl/src/lv_draw/lv_img_decoder.c:679:23
	bl	lv_img_cf_get_px_size
	.loc	6 679 13                        @ lvgl/src/lv_draw/lv_img_decoder.c:679:13
	strb.w	r0, [sp, #41]
	.loc	6 680 29 is_stmt 1              @ lvgl/src/lv_draw/lv_img_decoder.c:680:29
	ldrb.w	r1, [sp, #41]
	movs	r0, #1
	.loc	6 680 26 is_stmt 0              @ lvgl/src/lv_draw/lv_img_decoder.c:680:26
	lsls	r0, r1
	.loc	6 680 38                        @ lvgl/src/lv_draw/lv_img_decoder.c:680:38
	subs	r0, #1
	.loc	6 680 14                        @ lvgl/src/lv_draw/lv_img_decoder.c:680:14
	strh.w	r0, [sp, #38]
	movs	r0, #0
	.loc	6 682 16 is_stmt 1              @ lvgl/src/lv_draw/lv_img_decoder.c:682:16
	strh.w	r0, [sp, #36]
	.loc	6 683 12                        @ lvgl/src/lv_draw/lv_img_decoder.c:683:12
	strb.w	r0, [sp, #35]
	.loc	6 684 14                        @ lvgl/src/lv_draw/lv_img_decoder.c:684:14
	str	r0, [sp, #28]
	.loc	6 685 12                        @ lvgl/src/lv_draw/lv_img_decoder.c:685:12
	ldr	r0, [sp, #48]
	.loc	6 685 24 is_stmt 0              @ lvgl/src/lv_draw/lv_img_decoder.c:685:24
	ldrb	r0, [r0, #16]
	and	r0, r0, #31
	.loc	6 685 5                         @ lvgl/src/lv_draw/lv_img_decoder.c:685:5
	subs	r0, #7
	mov	r1, r0
	str	r1, [sp, #4]                    @ 4-byte Spill
	cmp	r0, #3
	bhi.w	.LBB18_7
@ %bb.1:
	.loc	6 0 5                           @ lvgl/src/lv_draw/lv_img_decoder.c:0:5
	ldr	r1, [sp, #4]                    @ 4-byte Reload
.LCPI18_0:
	tbb	[pc, r1]
@ %bb.2:
.LJTI18_0:
	.byte	(.LBB18_3-(.LCPI18_0+4))/2
	.byte	(.LBB18_4-(.LCPI18_0+4))/2
	.byte	(.LBB18_5-(.LCPI18_0+4))/2
	.byte	(.LBB18_6-(.LCPI18_0+4))/2
	.p2align	1
.LBB18_3:
.Ltmp232:
	.loc	6 687 18 is_stmt 1              @ lvgl/src/lv_draw/lv_img_decoder.c:687:18
	ldr	r0, [sp, #48]
	.loc	6 687 30 is_stmt 0              @ lvgl/src/lv_draw/lv_img_decoder.c:687:30
	ldrh.w	r0, [r0, #17]
	ubfx	r0, r0, #2, #11
	.loc	6 687 32                        @ lvgl/src/lv_draw/lv_img_decoder.c:687:32
	adds	r0, #7
	.loc	6 687 37                        @ lvgl/src/lv_draw/lv_img_decoder.c:687:37
	lsrs	r0, r0, #3
	.loc	6 687 15                        @ lvgl/src/lv_draw/lv_img_decoder.c:687:15
	strh.w	r0, [sp, #36]
	.loc	6 688 20 is_stmt 1              @ lvgl/src/lv_draw/lv_img_decoder.c:688:20
	ldrsh.w	r0, [sp, #36]
	.loc	6 688 24 is_stmt 0              @ lvgl/src/lv_draw/lv_img_decoder.c:688:24
	ldrsh.w	r1, [sp, #44]
	.loc	6 688 22                        @ lvgl/src/lv_draw/lv_img_decoder.c:688:22
	muls	r0, r1, r0
	.loc	6 688 29                        @ lvgl/src/lv_draw/lv_img_decoder.c:688:29
	ldrsh.w	r1, [sp, #46]
	.loc	6 688 26                        @ lvgl/src/lv_draw/lv_img_decoder.c:688:26
	add.w	r1, r0, r1, asr #3
	.loc	6 688 17                        @ lvgl/src/lv_draw/lv_img_decoder.c:688:17
	ldr	r0, [sp, #28]
	add	r0, r1
	str	r0, [sp, #28]
	.loc	6 689 17 is_stmt 1              @ lvgl/src/lv_draw/lv_img_decoder.c:689:17
	ldr	r0, [sp, #28]
	adds	r0, #8
	str	r0, [sp, #28]
	.loc	6 690 24                        @ lvgl/src/lv_draw/lv_img_decoder.c:690:24
	ldrh.w	r1, [sp, #46]
	movs	r0, #7
	.loc	6 690 21 is_stmt 0              @ lvgl/src/lv_draw/lv_img_decoder.c:690:21
	bics	r0, r1
	.loc	6 690 17                        @ lvgl/src/lv_draw/lv_img_decoder.c:690:17
	strb.w	r0, [sp, #35]
	.loc	6 691 13 is_stmt 1              @ lvgl/src/lv_draw/lv_img_decoder.c:691:13
	b	.LBB18_7
.LBB18_4:
	.loc	6 693 18                        @ lvgl/src/lv_draw/lv_img_decoder.c:693:18
	ldr	r0, [sp, #48]
	.loc	6 693 30 is_stmt 0              @ lvgl/src/lv_draw/lv_img_decoder.c:693:30
	ldrh.w	r0, [r0, #17]
	ubfx	r0, r0, #2, #11
	.loc	6 693 32                        @ lvgl/src/lv_draw/lv_img_decoder.c:693:32
	adds	r0, #3
	.loc	6 693 37                        @ lvgl/src/lv_draw/lv_img_decoder.c:693:37
	lsrs	r0, r0, #2
	.loc	6 693 15                        @ lvgl/src/lv_draw/lv_img_decoder.c:693:15
	strh.w	r0, [sp, #36]
	.loc	6 694 20 is_stmt 1              @ lvgl/src/lv_draw/lv_img_decoder.c:694:20
	ldrsh.w	r0, [sp, #36]
	.loc	6 694 24 is_stmt 0              @ lvgl/src/lv_draw/lv_img_decoder.c:694:24
	ldrsh.w	r1, [sp, #44]
	.loc	6 694 22                        @ lvgl/src/lv_draw/lv_img_decoder.c:694:22
	muls	r0, r1, r0
	.loc	6 694 29                        @ lvgl/src/lv_draw/lv_img_decoder.c:694:29
	ldrsh.w	r1, [sp, #46]
	.loc	6 694 26                        @ lvgl/src/lv_draw/lv_img_decoder.c:694:26
	add.w	r1, r0, r1, asr #2
	.loc	6 694 17                        @ lvgl/src/lv_draw/lv_img_decoder.c:694:17
	ldr	r0, [sp, #28]
	add	r0, r1
	str	r0, [sp, #28]
	.loc	6 695 17 is_stmt 1              @ lvgl/src/lv_draw/lv_img_decoder.c:695:17
	ldr	r0, [sp, #28]
	adds	r0, #16
	str	r0, [sp, #28]
	.loc	6 696 24                        @ lvgl/src/lv_draw/lv_img_decoder.c:696:24
	ldrh.w	r0, [sp, #46]
	.loc	6 696 26 is_stmt 0              @ lvgl/src/lv_draw/lv_img_decoder.c:696:26
	and	r1, r0, #3
	movs	r0, #6
	.loc	6 696 21                        @ lvgl/src/lv_draw/lv_img_decoder.c:696:21
	sub.w	r0, r0, r1, lsl #1
	.loc	6 696 17                        @ lvgl/src/lv_draw/lv_img_decoder.c:696:17
	strb.w	r0, [sp, #35]
	.loc	6 697 13 is_stmt 1              @ lvgl/src/lv_draw/lv_img_decoder.c:697:13
	b	.LBB18_7
.LBB18_5:
	.loc	6 699 18                        @ lvgl/src/lv_draw/lv_img_decoder.c:699:18
	ldr	r0, [sp, #48]
	.loc	6 699 30 is_stmt 0              @ lvgl/src/lv_draw/lv_img_decoder.c:699:30
	ldrh.w	r0, [r0, #17]
	ubfx	r0, r0, #2, #11
	.loc	6 699 32                        @ lvgl/src/lv_draw/lv_img_decoder.c:699:32
	adds	r0, #1
	.loc	6 699 37                        @ lvgl/src/lv_draw/lv_img_decoder.c:699:37
	lsrs	r0, r0, #1
	.loc	6 699 15                        @ lvgl/src/lv_draw/lv_img_decoder.c:699:15
	strh.w	r0, [sp, #36]
	.loc	6 700 20 is_stmt 1              @ lvgl/src/lv_draw/lv_img_decoder.c:700:20
	ldrsh.w	r0, [sp, #36]
	.loc	6 700 24 is_stmt 0              @ lvgl/src/lv_draw/lv_img_decoder.c:700:24
	ldrsh.w	r1, [sp, #44]
	.loc	6 700 22                        @ lvgl/src/lv_draw/lv_img_decoder.c:700:22
	muls	r0, r1, r0
	.loc	6 700 29                        @ lvgl/src/lv_draw/lv_img_decoder.c:700:29
	ldrsh.w	r1, [sp, #46]
	.loc	6 700 26                        @ lvgl/src/lv_draw/lv_img_decoder.c:700:26
	add.w	r1, r0, r1, asr #1
	.loc	6 700 17                        @ lvgl/src/lv_draw/lv_img_decoder.c:700:17
	ldr	r0, [sp, #28]
	add	r0, r1
	str	r0, [sp, #28]
	.loc	6 701 17 is_stmt 1              @ lvgl/src/lv_draw/lv_img_decoder.c:701:17
	ldr	r0, [sp, #28]
	adds	r0, #64
	str	r0, [sp, #28]
	.loc	6 702 24                        @ lvgl/src/lv_draw/lv_img_decoder.c:702:24
	ldrh.w	r0, [sp, #46]
	.loc	6 702 26 is_stmt 0              @ lvgl/src/lv_draw/lv_img_decoder.c:702:26
	and	r1, r0, #1
	movs	r0, #4
	.loc	6 702 21                        @ lvgl/src/lv_draw/lv_img_decoder.c:702:21
	sub.w	r0, r0, r1, lsl #2
	.loc	6 702 17                        @ lvgl/src/lv_draw/lv_img_decoder.c:702:17
	strb.w	r0, [sp, #35]
	.loc	6 703 13 is_stmt 1              @ lvgl/src/lv_draw/lv_img_decoder.c:703:13
	b	.LBB18_7
.LBB18_6:
	.loc	6 705 17                        @ lvgl/src/lv_draw/lv_img_decoder.c:705:17
	ldr	r0, [sp, #48]
	.loc	6 705 29 is_stmt 0              @ lvgl/src/lv_draw/lv_img_decoder.c:705:29
	ldrh.w	r0, [r0, #17]
	.loc	6 705 17                        @ lvgl/src/lv_draw/lv_img_decoder.c:705:17
	ubfx	r0, r0, #2, #11
	.loc	6 705 15                        @ lvgl/src/lv_draw/lv_img_decoder.c:705:15
	strh.w	r0, [sp, #36]
	.loc	6 706 20 is_stmt 1              @ lvgl/src/lv_draw/lv_img_decoder.c:706:20
	ldrsh.w	r0, [sp, #36]
	.loc	6 706 24 is_stmt 0              @ lvgl/src/lv_draw/lv_img_decoder.c:706:24
	ldrsh.w	r1, [sp, #44]
	.loc	6 706 28                        @ lvgl/src/lv_draw/lv_img_decoder.c:706:28
	ldrsh.w	r2, [sp, #46]
	.loc	6 706 26                        @ lvgl/src/lv_draw/lv_img_decoder.c:706:26
	smlabb	r1, r0, r1, r2
	.loc	6 706 17                        @ lvgl/src/lv_draw/lv_img_decoder.c:706:17
	ldr	r0, [sp, #28]
	add	r0, r1
	str	r0, [sp, #28]
	.loc	6 707 17 is_stmt 1              @ lvgl/src/lv_draw/lv_img_decoder.c:707:17
	ldr	r0, [sp, #28]
	add.w	r0, r0, #1024
	str	r0, [sp, #28]
	movs	r0, #0
	.loc	6 708 17                        @ lvgl/src/lv_draw/lv_img_decoder.c:708:17
	strb.w	r0, [sp, #35]
	.loc	6 709 13                        @ lvgl/src/lv_draw/lv_img_decoder.c:709:13
	b	.LBB18_7
.Ltmp233:
.LBB18_7:
	.loc	6 712 50                        @ lvgl/src/lv_draw/lv_img_decoder.c:712:50
	ldr	r0, [sp, #48]
	.loc	6 712 55 is_stmt 0              @ lvgl/src/lv_draw/lv_img_decoder.c:712:55
	ldr	r0, [r0, #32]
	.loc	6 712 38                        @ lvgl/src/lv_draw/lv_img_decoder.c:712:38
	str	r0, [sp, #24]
	movs	r0, #0
	.loc	6 718 21 is_stmt 1              @ lvgl/src/lv_draw/lv_img_decoder.c:718:21
	str	r0, [sp, #20]
.Ltmp234:
	.loc	6 719 8                         @ lvgl/src/lv_draw/lv_img_decoder.c:719:8
	ldr	r0, [sp, #48]
	.loc	6 719 13 is_stmt 0              @ lvgl/src/lv_draw/lv_img_decoder.c:719:13
	ldrb	r0, [r0, #12]
.Ltmp235:
	.loc	6 719 8                         @ lvgl/src/lv_draw/lv_img_decoder.c:719:8
	cbnz	r0, .LBB18_9
	b	.LBB18_8
.LBB18_8:
.Ltmp236:
	.loc	6 720 40 is_stmt 1              @ lvgl/src/lv_draw/lv_img_decoder.c:720:40
	ldr	r0, [sp, #48]
	.loc	6 720 45 is_stmt 0              @ lvgl/src/lv_draw/lv_img_decoder.c:720:45
	ldr	r0, [r0, #4]
	.loc	6 720 30                        @ lvgl/src/lv_draw/lv_img_decoder.c:720:30
	str	r0, [sp, #16]
	.loc	6 721 40 is_stmt 1              @ lvgl/src/lv_draw/lv_img_decoder.c:721:40
	ldr	r0, [sp, #16]
	.loc	6 721 49 is_stmt 0              @ lvgl/src/lv_draw/lv_img_decoder.c:721:49
	ldr	r0, [r0, #8]
	.loc	6 721 56                        @ lvgl/src/lv_draw/lv_img_decoder.c:721:56
	ldr	r1, [sp, #28]
	.loc	6 721 54                        @ lvgl/src/lv_draw/lv_img_decoder.c:721:54
	add	r0, r1
	.loc	6 721 38                        @ lvgl/src/lv_draw/lv_img_decoder.c:721:38
	str	r0, [sp, #20]
	.loc	6 722 5 is_stmt 1               @ lvgl/src/lv_draw/lv_img_decoder.c:722:5
	b	.LBB18_10
.Ltmp237:
.LBB18_9:
	.loc	6 0 5 is_stmt 0                 @ lvgl/src/lv_draw/lv_img_decoder.c:0:5
	movs	r0, #0
.Ltmp238:
	.loc	6 730 18 is_stmt 1              @ lvgl/src/lv_draw/lv_img_decoder.c:730:18
	str	r0, [sp, #20]
	.loc	6 731 9                         @ lvgl/src/lv_draw/lv_img_decoder.c:731:9
	strb.w	r0, [sp, #55]
	b	.LBB18_17
.Ltmp239:
.LBB18_10:
	.loc	6 0 9 is_stmt 0                 @ lvgl/src/lv_draw/lv_img_decoder.c:0:9
	movs	r0, #0
.Ltmp240:
	.loc	6 736 11 is_stmt 1              @ lvgl/src/lv_draw/lv_img_decoder.c:736:11
	strh.w	r0, [sp, #14]
	.loc	6 736 9 is_stmt 0               @ lvgl/src/lv_draw/lv_img_decoder.c:736:9
	b	.LBB18_11
.LBB18_11:                              @ =>This Inner Loop Header: Depth=1
.Ltmp241:
	.loc	6 736 16                        @ lvgl/src/lv_draw/lv_img_decoder.c:736:16
	ldrsh.w	r0, [sp, #14]
	.loc	6 736 20                        @ lvgl/src/lv_draw/lv_img_decoder.c:736:20
	ldrsh.w	r1, [sp, #42]
.Ltmp242:
	.loc	6 736 5                         @ lvgl/src/lv_draw/lv_img_decoder.c:736:5
	cmp	r0, r1
	bge	.LBB18_16
	b	.LBB18_12
.LBB18_12:                              @   in Loop: Header=BB18_11 Depth=1
.Ltmp243:
	.loc	6 737 29 is_stmt 1              @ lvgl/src/lv_draw/lv_img_decoder.c:737:29
	ldr	r0, [sp, #20]
	.loc	6 737 28 is_stmt 0              @ lvgl/src/lv_draw/lv_img_decoder.c:737:28
	ldrb	r0, [r0]
	.loc	6 737 41                        @ lvgl/src/lv_draw/lv_img_decoder.c:737:41
	ldrsb.w	r1, [sp, #35]
	.loc	6 737 38                        @ lvgl/src/lv_draw/lv_img_decoder.c:737:38
	lsrs	r0, r1
	.loc	6 737 48                        @ lvgl/src/lv_draw/lv_img_decoder.c:737:48
	ldrh.w	r1, [sp, #38]
	.loc	6 737 46                        @ lvgl/src/lv_draw/lv_img_decoder.c:737:46
	ands	r0, r1
	.loc	6 737 17                        @ lvgl/src/lv_draw/lv_img_decoder.c:737:17
	strb.w	r0, [sp, #13]
	.loc	6 739 28 is_stmt 1              @ lvgl/src/lv_draw/lv_img_decoder.c:739:28
	ldr	r0, [sp, #24]
	.loc	6 739 39 is_stmt 0              @ lvgl/src/lv_draw/lv_img_decoder.c:739:39
	ldr	r0, [r0]
	.loc	6 739 47                        @ lvgl/src/lv_draw/lv_img_decoder.c:739:47
	ldrb.w	r1, [sp, #13]
	.loc	6 739 28                        @ lvgl/src/lv_draw/lv_img_decoder.c:739:28
	ldr.w	r0, [r0, r1, lsl #2]
	str	r0, [sp, #8]
	.loc	6 747 68 is_stmt 1              @ lvgl/src/lv_draw/lv_img_decoder.c:747:68
	ldr	r0, [sp, #8]
	.loc	6 747 24 is_stmt 0              @ lvgl/src/lv_draw/lv_img_decoder.c:747:24
	ldr	r1, [sp, #64]
	.loc	6 747 28                        @ lvgl/src/lv_draw/lv_img_decoder.c:747:28
	ldrsh.w	r2, [sp, #14]
	.loc	6 747 60                        @ lvgl/src/lv_draw/lv_img_decoder.c:747:60
	str.w	r0, [r1, r2, lsl #2]
	.loc	6 751 78 is_stmt 1              @ lvgl/src/lv_draw/lv_img_decoder.c:751:78
	ldr	r0, [sp, #24]
	.loc	6 751 89 is_stmt 0              @ lvgl/src/lv_draw/lv_img_decoder.c:751:89
	ldr	r0, [r0, #4]
	.loc	6 751 93                        @ lvgl/src/lv_draw/lv_img_decoder.c:751:93
	ldrb.w	r1, [sp, #13]
	.loc	6 751 78                        @ lvgl/src/lv_draw/lv_img_decoder.c:751:78
	ldrb	r0, [r0, r1]
	.loc	6 751 9                         @ lvgl/src/lv_draw/lv_img_decoder.c:751:9
	ldr	r1, [sp, #64]
	.loc	6 751 13                        @ lvgl/src/lv_draw/lv_img_decoder.c:751:13
	ldrsh.w	r2, [sp, #14]
	.loc	6 751 43                        @ lvgl/src/lv_draw/lv_img_decoder.c:751:43
	add.w	r1, r1, r2, lsl #2
	.loc	6 751 76                        @ lvgl/src/lv_draw/lv_img_decoder.c:751:76
	strb	r0, [r1, #3]
	.loc	6 753 16 is_stmt 1              @ lvgl/src/lv_draw/lv_img_decoder.c:753:16
	ldrb.w	r1, [sp, #41]
	.loc	6 753 13 is_stmt 0              @ lvgl/src/lv_draw/lv_img_decoder.c:753:13
	ldrb.w	r0, [sp, #35]
	subs	r0, r0, r1
	strb.w	r0, [sp, #35]
.Ltmp244:
	.loc	6 754 12 is_stmt 1              @ lvgl/src/lv_draw/lv_img_decoder.c:754:12
	ldrsb.w	r0, [sp, #35]
.Ltmp245:
	.loc	6 754 12 is_stmt 0              @ lvgl/src/lv_draw/lv_img_decoder.c:754:12
	cmp.w	r0, #-1
	bgt	.LBB18_14
	b	.LBB18_13
.LBB18_13:                              @   in Loop: Header=BB18_11 Depth=1
.Ltmp246:
	.loc	6 755 23 is_stmt 1              @ lvgl/src/lv_draw/lv_img_decoder.c:755:23
	ldrb.w	r0, [sp, #41]
	.loc	6 755 21 is_stmt 0              @ lvgl/src/lv_draw/lv_img_decoder.c:755:21
	rsb.w	r0, r0, #8
	.loc	6 755 17                        @ lvgl/src/lv_draw/lv_img_decoder.c:755:17
	strb.w	r0, [sp, #35]
	.loc	6 756 21 is_stmt 1              @ lvgl/src/lv_draw/lv_img_decoder.c:756:21
	ldr	r0, [sp, #20]
	adds	r0, #1
	str	r0, [sp, #20]
	.loc	6 757 9                         @ lvgl/src/lv_draw/lv_img_decoder.c:757:9
	b	.LBB18_14
.Ltmp247:
.LBB18_14:                              @   in Loop: Header=BB18_11 Depth=1
	.loc	6 758 5                         @ lvgl/src/lv_draw/lv_img_decoder.c:758:5
	b	.LBB18_15
.Ltmp248:
.LBB18_15:                              @   in Loop: Header=BB18_11 Depth=1
	.loc	6 736 26                        @ lvgl/src/lv_draw/lv_img_decoder.c:736:26
	ldrh.w	r0, [sp, #14]
	adds	r0, #1
	strh.w	r0, [sp, #14]
	.loc	6 736 5 is_stmt 0               @ lvgl/src/lv_draw/lv_img_decoder.c:736:5
	b	.LBB18_11
.Ltmp249:
.LBB18_16:
	.loc	6 0 5                           @ lvgl/src/lv_draw/lv_img_decoder.c:0:5
	movs	r0, #1
	.loc	6 762 5 is_stmt 1               @ lvgl/src/lv_draw/lv_img_decoder.c:762:5
	strb.w	r0, [sp, #55]
	b	.LBB18_17
.LBB18_17:
	.loc	6 767 1                         @ lvgl/src/lv_draw/lv_img_decoder.c:767:1
	ldrb.w	r0, [sp, #55]
	add	sp, #56
	pop	{r7, pc}
.Ltmp250:
.Lfunc_end18:
	.size	lv_img_decoder_built_in_line_indexed, .Lfunc_end18-lv_img_decoder_built_in_line_indexed
	.cfi_endproc
	.cantunwind
	.fnend
                                        @ -- End function
	.type	.L.str,%object                  @ @.str
	.section	.rodata.str1.1,"aMS",%progbits,1
.L.str:
	.asciz	"Out of memory"
	.size	.L.str, 14

	.type	.L__const.lv_img_decoder_built_in_line_alpha.alpha1_opa_table,%object @ @__const.lv_img_decoder_built_in_line_alpha.alpha1_opa_table
	.section	.rodata..L__const.lv_img_decoder_built_in_line_alpha.alpha1_opa_table,"a",%progbits
.L__const.lv_img_decoder_built_in_line_alpha.alpha1_opa_table:
	.ascii	"\000\377"
	.size	.L__const.lv_img_decoder_built_in_line_alpha.alpha1_opa_table, 2

	.type	.L__const.lv_img_decoder_built_in_line_alpha.alpha2_opa_table,%object @ @__const.lv_img_decoder_built_in_line_alpha.alpha2_opa_table
	.section	.rodata.cst4,"aM",%progbits,4
.L__const.lv_img_decoder_built_in_line_alpha.alpha2_opa_table:
	.ascii	"\000U\252\377"
	.size	.L__const.lv_img_decoder_built_in_line_alpha.alpha2_opa_table, 4

	.type	.L__const.lv_img_decoder_built_in_line_alpha.alpha4_opa_table,%object @ @__const.lv_img_decoder_built_in_line_alpha.alpha4_opa_table
	.section	.rodata.cst16,"aM",%progbits,16
.L__const.lv_img_decoder_built_in_line_alpha.alpha4_opa_table:
	.ascii	"\000\021\"3DUfw\210\231\252\273\314\335\356\377"
	.size	.L__const.lv_img_decoder_built_in_line_alpha.alpha4_opa_table, 16

	.file	7 "E:\\Smart-access-control\\Hardware\\CODE" "./lvgl/src/lv_conf.h"
	.file	8 "D:\\Keil_v5\\ARM\\ARMCLANG\\Bin\\..\\include" "string.h"
	.section	".note.GNU-stack","",%progbits
	.eabi_attribute	30, 6	@ Tag_ABI_optimization_goals
	.ARM_attribute	16, 1	@ Tag_AV_eba