	.text
	.syntax unified
	.eabi_attribute	67, "2.09"	@ Tag_conformance
	.cpu	cortex-m7
	.eabi_attribute	6, 13	@ Tag_CPU_arch
	.eabi_attribute	7, 77	@ Tag_CPU_arch_profile
	.eabi_attribute	8, 0	@ Tag_ARM_ISA_use
	.eabi_attribute	9, 2	@ Tag_THUMB_ISA_use
	.fpu	fpv5-d16
	.eabi_attribute	36, 1	@ Tag_FP_HP_extension
	.eabi_attribute	34, 1	@ Tag_CPU_unaligned_access
	.eabi_attribute	17, 1	@ Tag_ABI_PCS_GOT_use
	.eabi_attribute	20, 2	@ Tag_ABI_FP_denormal
	.eabi_attribute	21, 0	@ Tag_ABI_FP_exceptions
	.eabi_attribute	23, 1	@ Tag_ABI_FP_number_model
	.eabi_attribute	24, 1	@ Tag_ABI_align_needed
	.eabi_attribute	25, 1	@ Tag_ABI_align_preserved
	.eabi_attribute	28, 1	@ Tag_ABI_VFP_args
	.eabi_attribute	38, 1	@ Tag_ABI_FP_16bit_format
	.eabi_attribute	18, 2	@ Tag_ABI_PCS_wchar_t
	.eabi_attribute	26, 1	@ Tag_ABI_enum_size
	.eabi_attribute	14, 0	@ Tag_ABI_PCS_R9_use
	.file	"lv_img.c"
	.file	1 "D:\\Keil_v5\\ARM\\ARMCLANG\\Bin\\..\\include" "stdint.h"
	.file	2 "E:\\STM32\\Learning\\STM32H750_ART_PI_RGBLCD" "lvgl/src/lv_widgets/../lv_core/../lv_draw/../lv_misc/lv_types.h"
	.file	3 "E:\\STM32\\Learning\\STM32H750_ART_PI_RGBLCD" "lvgl/src/lv_widgets/../lv_themes/../lv_core/lv_obj.h"
	.file	4 "E:\\STM32\\Learning\\STM32H750_ART_PI_RGBLCD" "lvgl/src/lv_widgets/../lv_core/../lv_font/../lv_misc/lv_ll.h"
	.file	5 "E:\\STM32\\Learning\\STM32H750_ART_PI_RGBLCD" "./lvgl/src/lv_conf.h"
	.file	6 "E:\\STM32\\Learning\\STM32H750_ART_PI_RGBLCD" "lvgl/src/lv_widgets/../lv_core/../lv_hal/../lv_misc/lv_area.h"
	.file	7 "E:\\STM32\\Learning\\STM32H750_ART_PI_RGBLCD" "lvgl/src/lv_widgets/../lv_themes/../lv_core/lv_style.h"
	.file	8 "E:\\STM32\\Learning\\STM32H750_ART_PI_RGBLCD" "lvgl/src/lv_widgets/../lv_core/../lv_hal/lv_hal_indev.h"
	.file	9 "E:\\STM32\\Learning\\STM32H750_ART_PI_RGBLCD" "lvgl/src/lv_widgets/../lv_core/../lv_draw/../lv_misc/lv_bidi.h"
	.file	10 "E:\\STM32\\Learning\\STM32H750_ART_PI_RGBLCD" "lvgl/src/lv_widgets/lv_img.c"
	.file	11 "E:\\STM32\\Learning\\STM32H750_ART_PI_RGBLCD" "lvgl/src/lv_widgets/../lv_draw/lv_img_decoder.h"
	.file	12 "E:\\STM32\\Learning\\STM32H750_ART_PI_RGBLCD" "lvgl/src/lv_widgets/../lv_core/../lv_draw/lv_img_buf.h"
	.file	13 "E:\\STM32\\Learning\\STM32H750_ART_PI_RGBLCD" "lvgl/src/lv_widgets/../lv_themes/lv_theme.h"
	.file	14 "E:\\STM32\\Learning\\STM32H750_ART_PI_RGBLCD" "lvgl/src/lv_widgets/lv_img.h"
	.file	15 "E:\\STM32\\Learning\\STM32H750_ART_PI_RGBLCD" "lvgl/src/lv_widgets/../lv_misc/lv_txt.h"
	.file	16 "E:\\STM32\\Learning\\STM32H750_ART_PI_RGBLCD" "lvgl/src/lv_widgets/../lv_core/../lv_hal/../lv_misc/lv_color.h"
	.file	17 "E:\\STM32\\Learning\\STM32H750_ART_PI_RGBLCD" "lvgl/src/lv_widgets/../lv_core/../lv_draw/lv_draw_blend.h"
	.section	.text.lv_img_create,"ax",%progbits
	.hidden	lv_img_create                   @ -- Begin function lv_img_create
	.globl	lv_img_create
	.p2align	3
	.type	lv_img_create,%function
	.code	16                              @ @lv_img_create
	.thumb_func
lv_img_create:
.Lfunc_begin0:
	.loc	10 61 0                         @ lvgl/src/lv_widgets/lv_img.c:61:0
	.fnstart
	.cfi_sections .debug_frame
	.cfi_startproc
@ %bb.0:
	.save	{r7, lr}
	push	{r7, lr}
	.cfi_def_cfa_offset 8
	.cfi_offset lr, -4
	.cfi_offset r7, -8
	.pad	#32
	sub	sp, #32
	.cfi_def_cfa_offset 40
	str	r0, [sp, #24]
	str	r1, [sp, #20]
.Ltmp0:
	.loc	10 65 36 prologue_end           @ lvgl/src/lv_widgets/lv_img.c:65:36
	ldr	r0, [sp, #24]
	.loc	10 65 41 is_stmt 0              @ lvgl/src/lv_widgets/lv_img.c:65:41
	ldr	r1, [sp, #20]
	.loc	10 65 22                        @ lvgl/src/lv_widgets/lv_img.c:65:22
	bl	lv_obj_create
	.loc	10 65 16                        @ lvgl/src/lv_widgets/lv_img.c:65:16
	str	r0, [sp, #16]
	.loc	10 66 5 is_stmt 1               @ lvgl/src/lv_widgets/lv_img.c:66:5
	b	.LBB0_1
.LBB0_1:
.Ltmp1:
	.loc	10 66 5 is_stmt 0               @ lvgl/src/lv_widgets/lv_img.c:66:5
	ldr	r0, [sp, #16]
	bl	lv_debug_check_null
.Ltmp2:
	.loc	10 66 5                         @ lvgl/src/lv_widgets/lv_img.c:66:5
	cbnz	r0, .LBB0_4
	b	.LBB0_2
.LBB0_2:
.Ltmp3:
	.loc	10 66 5                         @ lvgl/src/lv_widgets/lv_img.c:66:5
	ldr	r2, [sp, #16]
	movw	r0, :lower16:.L.str
	movt	r0, :upper16:.L.str
	movs	r3, #0
	bl	lv_debug_log_error
	b	.LBB0_3
.LBB0_3:                                @ =>This Inner Loop Header: Depth=1
	b	.LBB0_3
.Ltmp4:
.LBB0_4:
	.loc	10 66 5                         @ lvgl/src/lv_widgets/lv_img.c:66:5
	b	.LBB0_5
.Ltmp5:
.LBB0_5:
	.loc	10 67 8 is_stmt 1               @ lvgl/src/lv_widgets/lv_img.c:67:8
	ldr	r0, [sp, #16]
.Ltmp6:
	.loc	10 67 8 is_stmt 0               @ lvgl/src/lv_widgets/lv_img.c:67:8
	cbnz	r0, .LBB0_7
	b	.LBB0_6
.LBB0_6:
	.loc	10 0 8                          @ lvgl/src/lv_widgets/lv_img.c:0:8
	movs	r0, #0
.Ltmp7:
	.loc	10 67 21                        @ lvgl/src/lv_widgets/lv_img.c:67:21
	str	r0, [sp, #28]
	b	.LBB0_23
.Ltmp8:
.LBB0_7:
	.loc	10 69 8 is_stmt 1               @ lvgl/src/lv_widgets/lv_img.c:69:8
	movw	r0, :lower16:ancestor_signal
	movt	r0, :upper16:ancestor_signal
	ldr	r0, [r0]
.Ltmp9:
	.loc	10 69 8 is_stmt 0               @ lvgl/src/lv_widgets/lv_img.c:69:8
	cbnz	r0, .LBB0_9
	b	.LBB0_8
.LBB0_8:
.Ltmp10:
	.loc	10 69 72                        @ lvgl/src/lv_widgets/lv_img.c:69:72
	ldr	r0, [sp, #16]
	.loc	10 69 51                        @ lvgl/src/lv_widgets/lv_img.c:69:51
	bl	lv_obj_get_signal_cb
	.loc	10 69 49                        @ lvgl/src/lv_widgets/lv_img.c:69:49
	movw	r1, :lower16:ancestor_signal
	movt	r1, :upper16:ancestor_signal
	str	r0, [r1]
	.loc	10 69 33                        @ lvgl/src/lv_widgets/lv_img.c:69:33
	b	.LBB0_9
.Ltmp11:
.LBB0_9:
	.loc	10 72 51 is_stmt 1              @ lvgl/src/lv_widgets/lv_img.c:72:51
	ldr	r0, [sp, #16]
	movs	r1, #24
	.loc	10 72 26 is_stmt 0              @ lvgl/src/lv_widgets/lv_img.c:72:26
	bl	lv_obj_allocate_ext_attr
	.loc	10 72 20                        @ lvgl/src/lv_widgets/lv_img.c:72:20
	str	r0, [sp, #12]
	.loc	10 73 5 is_stmt 1               @ lvgl/src/lv_widgets/lv_img.c:73:5
	b	.LBB0_10
.LBB0_10:
.Ltmp12:
	.loc	10 73 5 is_stmt 0               @ lvgl/src/lv_widgets/lv_img.c:73:5
	ldr	r0, [sp, #12]
	bl	lv_debug_check_null
.Ltmp13:
	.loc	10 73 5                         @ lvgl/src/lv_widgets/lv_img.c:73:5
	cbnz	r0, .LBB0_13
	b	.LBB0_11
.LBB0_11:
.Ltmp14:
	.loc	10 73 5                         @ lvgl/src/lv_widgets/lv_img.c:73:5
	ldr	r2, [sp, #12]
	movw	r0, :lower16:.L.str
	movt	r0, :upper16:.L.str
	movs	r3, #0
	bl	lv_debug_log_error
	b	.LBB0_12
.LBB0_12:                               @ =>This Inner Loop Header: Depth=1
	b	.LBB0_12
.Ltmp15:
.LBB0_13:
	.loc	10 73 5                         @ lvgl/src/lv_widgets/lv_img.c:73:5
	b	.LBB0_14
.Ltmp16:
.LBB0_14:
	.loc	10 74 8 is_stmt 1               @ lvgl/src/lv_widgets/lv_img.c:74:8
	ldr	r0, [sp, #12]
.Ltmp17:
	.loc	10 74 8 is_stmt 0               @ lvgl/src/lv_widgets/lv_img.c:74:8
	cbnz	r0, .LBB0_16
	b	.LBB0_15
.LBB0_15:
.Ltmp18:
	.loc	10 75 20 is_stmt 1              @ lvgl/src/lv_widgets/lv_img.c:75:20
	ldr	r0, [sp, #16]
	.loc	10 75 9 is_stmt 0               @ lvgl/src/lv_widgets/lv_img.c:75:9
	bl	lv_obj_del
	movs	r0, #0
	.loc	10 76 9 is_stmt 1               @ lvgl/src/lv_widgets/lv_img.c:76:9
	str	r0, [sp, #28]
	b	.LBB0_23
.Ltmp19:
.LBB0_16:
	.loc	10 79 5                         @ lvgl/src/lv_widgets/lv_img.c:79:5
	ldr	r1, [sp, #12]
	movs	r0, #0
	.loc	10 79 20 is_stmt 0              @ lvgl/src/lv_widgets/lv_img.c:79:20
	str	r0, [sp, #4]                    @ 4-byte Spill
	str	r0, [r1]
	.loc	10 80 5 is_stmt 1               @ lvgl/src/lv_widgets/lv_img.c:80:5
	ldr	r1, [sp, #12]
	.loc	10 80 20 is_stmt 0              @ lvgl/src/lv_widgets/lv_img.c:80:20
	ldrb	r0, [r1, #20]
	orr	r0, r0, #3
	strb	r0, [r1, #20]
	.loc	10 81 5 is_stmt 1               @ lvgl/src/lv_widgets/lv_img.c:81:5
	ldr	r1, [sp, #12]
	.loc	10 81 20 is_stmt 0              @ lvgl/src/lv_widgets/lv_img.c:81:20
	ldrb	r0, [r1, #20]
	and	r0, r0, #7
	strb	r0, [r1, #20]
	.loc	10 82 39 is_stmt 1              @ lvgl/src/lv_widgets/lv_img.c:82:39
	ldr	r0, [sp, #16]
	.loc	10 82 22 is_stmt 0              @ lvgl/src/lv_widgets/lv_img.c:82:22
	bl	lv_obj_get_width
	.loc	10 82 5                         @ lvgl/src/lv_widgets/lv_img.c:82:5
	ldr	r1, [sp, #12]
	.loc	10 82 20                        @ lvgl/src/lv_widgets/lv_img.c:82:20
	strh	r0, [r1, #8]
	.loc	10 83 40 is_stmt 1              @ lvgl/src/lv_widgets/lv_img.c:83:40
	ldr	r0, [sp, #16]
	.loc	10 83 22 is_stmt 0              @ lvgl/src/lv_widgets/lv_img.c:83:22
	bl	lv_obj_get_height
	mov	r1, r0
	.loc	10 83 5                         @ lvgl/src/lv_widgets/lv_img.c:83:5
	ldr	r0, [sp, #4]                    @ 4-byte Reload
	ldr	r2, [sp, #12]
	.loc	10 83 20                        @ lvgl/src/lv_widgets/lv_img.c:83:20
	strh	r1, [r2, #10]
	.loc	10 84 5 is_stmt 1               @ lvgl/src/lv_widgets/lv_img.c:84:5
	ldr	r1, [sp, #12]
	.loc	10 84 16 is_stmt 0              @ lvgl/src/lv_widgets/lv_img.c:84:16
	strh	r0, [r1, #12]
	.loc	10 85 5 is_stmt 1               @ lvgl/src/lv_widgets/lv_img.c:85:5
	ldr	r2, [sp, #12]
	mov.w	r1, #256
	.loc	10 85 15 is_stmt 0              @ lvgl/src/lv_widgets/lv_img.c:85:15
	strh	r1, [r2, #18]
	.loc	10 86 5 is_stmt 1               @ lvgl/src/lv_widgets/lv_img.c:86:5
	ldr	r2, [sp, #12]
	.loc	10 86 20 is_stmt 0              @ lvgl/src/lv_widgets/lv_img.c:86:20
	ldrb	r1, [r2, #21]
	orr	r1, r1, #1
	strb	r1, [r2, #21]
	.loc	10 87 5 is_stmt 1               @ lvgl/src/lv_widgets/lv_img.c:87:5
	ldr	r2, [sp, #12]
	.loc	10 87 20 is_stmt 0              @ lvgl/src/lv_widgets/lv_img.c:87:20
	ldrb	r1, [r2, #20]
	orr	r1, r1, #4
	strb	r1, [r2, #20]
	.loc	10 88 5 is_stmt 1               @ lvgl/src/lv_widgets/lv_img.c:88:5
	ldr	r1, [sp, #12]
	.loc	10 88 20 is_stmt 0              @ lvgl/src/lv_widgets/lv_img.c:88:20
	strh	r0, [r1, #4]
	.loc	10 89 5 is_stmt 1               @ lvgl/src/lv_widgets/lv_img.c:89:5
	ldr	r1, [sp, #12]
	.loc	10 89 20 is_stmt 0              @ lvgl/src/lv_widgets/lv_img.c:89:20
	strh	r0, [r1, #6]
	.loc	10 90 5 is_stmt 1               @ lvgl/src/lv_widgets/lv_img.c:90:5
	ldr	r1, [sp, #12]
	.loc	10 90 18 is_stmt 0              @ lvgl/src/lv_widgets/lv_img.c:90:18
	strh	r0, [r1, #14]
	.loc	10 91 5 is_stmt 1               @ lvgl/src/lv_widgets/lv_img.c:91:5
	ldr	r1, [sp, #12]
	.loc	10 91 18 is_stmt 0              @ lvgl/src/lv_widgets/lv_img.c:91:18
	strh	r0, [r1, #16]
	.loc	10 94 26 is_stmt 1              @ lvgl/src/lv_widgets/lv_img.c:94:26
	ldr	r0, [sp, #16]
	.loc	10 94 5 is_stmt 0               @ lvgl/src/lv_widgets/lv_img.c:94:5
	movw	r1, :lower16:lv_img_signal
	movt	r1, :upper16:lv_img_signal
	bl	lv_obj_set_signal_cb
	.loc	10 95 26 is_stmt 1              @ lvgl/src/lv_widgets/lv_img.c:95:26
	ldr	r0, [sp, #16]
	.loc	10 95 5 is_stmt 0               @ lvgl/src/lv_widgets/lv_img.c:95:5
	movw	r1, :lower16:lv_img_design
	movt	r1, :upper16:lv_img_design
	bl	lv_obj_set_design_cb
.Ltmp20:
	.loc	10 97 8 is_stmt 1               @ lvgl/src/lv_widgets/lv_img.c:97:8
	ldr	r0, [sp, #20]
.Ltmp21:
	.loc	10 97 8 is_stmt 0               @ lvgl/src/lv_widgets/lv_img.c:97:8
	cbnz	r0, .LBB0_21
	b	.LBB0_17
.LBB0_17:
.Ltmp22:
	.loc	10 98 24 is_stmt 1              @ lvgl/src/lv_widgets/lv_img.c:98:24
	ldr	r0, [sp, #16]
	movs	r1, #15
	.loc	10 98 9 is_stmt 0               @ lvgl/src/lv_widgets/lv_img.c:98:9
	bl	lv_theme_apply
	.loc	10 99 26 is_stmt 1              @ lvgl/src/lv_widgets/lv_img.c:99:26
	ldr	r0, [sp, #16]
	movs	r1, #0
	.loc	10 99 9 is_stmt 0               @ lvgl/src/lv_widgets/lv_img.c:99:9
	bl	lv_obj_set_click
	.loc	10 100 32 is_stmt 1             @ lvgl/src/lv_widgets/lv_img.c:100:32
	ldr	r0, [sp, #16]
	movs	r1, #1
	.loc	10 100 9 is_stmt 0              @ lvgl/src/lv_widgets/lv_img.c:100:9
	bl	lv_obj_set_adv_hittest
.Ltmp23:
	.loc	10 104 12 is_stmt 1             @ lvgl/src/lv_widgets/lv_img.c:104:12
	ldr	r0, [sp, #24]
.Ltmp24:
	.loc	10 104 12 is_stmt 0             @ lvgl/src/lv_widgets/lv_img.c:104:12
	cbz	r0, .LBB0_19
	b	.LBB0_18
.LBB0_18:
.Ltmp25:
	.loc	10 105 13 is_stmt 1             @ lvgl/src/lv_widgets/lv_img.c:105:13
	ldr	r1, [sp, #12]
	.loc	10 105 28 is_stmt 0             @ lvgl/src/lv_widgets/lv_img.c:105:28
	ldrb	r0, [r1, #20]
	orr	r0, r0, #4
	strb	r0, [r1, #20]
	.loc	10 106 9 is_stmt 1              @ lvgl/src/lv_widgets/lv_img.c:106:9
	b	.LBB0_20
.Ltmp26:
.LBB0_19:
	.loc	10 108 13                       @ lvgl/src/lv_widgets/lv_img.c:108:13
	ldr	r1, [sp, #12]
	.loc	10 108 28 is_stmt 0             @ lvgl/src/lv_widgets/lv_img.c:108:28
	ldrb	r0, [r1, #20]
	and	r0, r0, #251
	strb	r0, [r1, #20]
	b	.LBB0_20
.Ltmp27:
.LBB0_20:
	.loc	10 110 5 is_stmt 1              @ lvgl/src/lv_widgets/lv_img.c:110:5
	b	.LBB0_22
.Ltmp28:
.LBB0_21:
	.loc	10 112 55                       @ lvgl/src/lv_widgets/lv_img.c:112:55
	ldr	r0, [sp, #20]
	.loc	10 112 35 is_stmt 0             @ lvgl/src/lv_widgets/lv_img.c:112:35
	bl	lv_obj_get_ext_attr
	.loc	10 112 24                       @ lvgl/src/lv_widgets/lv_img.c:112:24
	str	r0, [sp, #8]
	.loc	10 113 30 is_stmt 1             @ lvgl/src/lv_widgets/lv_img.c:113:30
	ldr	r0, [sp, #8]
	.loc	10 113 40 is_stmt 0             @ lvgl/src/lv_widgets/lv_img.c:113:40
	ldrb	r2, [r0, #20]
	.loc	10 113 9                        @ lvgl/src/lv_widgets/lv_img.c:113:9
	ldr	r1, [sp, #12]
	.loc	10 113 28                       @ lvgl/src/lv_widgets/lv_img.c:113:28
	ldrb	r0, [r1, #20]
	and	r2, r2, #4
	and	r0, r0, #251
	add	r0, r2
	strb	r0, [r1, #20]
	.loc	10 114 30 is_stmt 1             @ lvgl/src/lv_widgets/lv_img.c:114:30
	ldr	r0, [sp, #8]
	.loc	10 114 40 is_stmt 0             @ lvgl/src/lv_widgets/lv_img.c:114:40
	ldrh	r0, [r0, #18]
	.loc	10 114 9                        @ lvgl/src/lv_widgets/lv_img.c:114:9
	ldr	r1, [sp, #12]
	.loc	10 114 28                       @ lvgl/src/lv_widgets/lv_img.c:114:28
	strh	r0, [r1, #18]
	.loc	10 115 30 is_stmt 1             @ lvgl/src/lv_widgets/lv_img.c:115:30
	ldr	r0, [sp, #8]
	.loc	10 115 40 is_stmt 0             @ lvgl/src/lv_widgets/lv_img.c:115:40
	ldrh	r0, [r0, #12]
	.loc	10 115 9                        @ lvgl/src/lv_widgets/lv_img.c:115:9
	ldr	r1, [sp, #12]
	.loc	10 115 28                       @ lvgl/src/lv_widgets/lv_img.c:115:28
	strh	r0, [r1, #12]
	.loc	10 116 30 is_stmt 1             @ lvgl/src/lv_widgets/lv_img.c:116:30
	ldr	r0, [sp, #8]
	.loc	10 116 40 is_stmt 0             @ lvgl/src/lv_widgets/lv_img.c:116:40
	ldrb	r0, [r0, #21]
	and	r2, r0, #1
	.loc	10 116 9                        @ lvgl/src/lv_widgets/lv_img.c:116:9
	ldr	r1, [sp, #12]
	.loc	10 116 28                       @ lvgl/src/lv_widgets/lv_img.c:116:28
	ldrb	r0, [r1, #21]
	and	r0, r0, #254
	add	r0, r2
	strb	r0, [r1, #21]
	.loc	10 117 29 is_stmt 1             @ lvgl/src/lv_widgets/lv_img.c:117:29
	ldr	r0, [sp, #8]
	.loc	10 117 46 is_stmt 0             @ lvgl/src/lv_widgets/lv_img.c:117:46
	ldrh	r0, [r0, #4]
	.loc	10 117 9                        @ lvgl/src/lv_widgets/lv_img.c:117:9
	ldr	r1, [sp, #12]
	.loc	10 117 27                       @ lvgl/src/lv_widgets/lv_img.c:117:27
	strh	r0, [r1, #4]
	.loc	10 118 29 is_stmt 1             @ lvgl/src/lv_widgets/lv_img.c:118:29
	ldr	r0, [sp, #8]
	.loc	10 118 46 is_stmt 0             @ lvgl/src/lv_widgets/lv_img.c:118:46
	ldrh	r0, [r0, #6]
	.loc	10 118 9                        @ lvgl/src/lv_widgets/lv_img.c:118:9
	ldr	r1, [sp, #12]
	.loc	10 118 27                       @ lvgl/src/lv_widgets/lv_img.c:118:27
	strh	r0, [r1, #6]
	.loc	10 119 28 is_stmt 1             @ lvgl/src/lv_widgets/lv_img.c:119:28
	ldr	r0, [sp, #8]
	.loc	10 119 44 is_stmt 0             @ lvgl/src/lv_widgets/lv_img.c:119:44
	ldrh	r0, [r0, #14]
	.loc	10 119 9                        @ lvgl/src/lv_widgets/lv_img.c:119:9
	ldr	r1, [sp, #12]
	.loc	10 119 26                       @ lvgl/src/lv_widgets/lv_img.c:119:26
	strh	r0, [r1, #14]
	.loc	10 120 28 is_stmt 1             @ lvgl/src/lv_widgets/lv_img.c:120:28
	ldr	r0, [sp, #8]
	.loc	10 120 44 is_stmt 0             @ lvgl/src/lv_widgets/lv_img.c:120:44
	ldrh	r0, [r0, #16]
	.loc	10 120 9                        @ lvgl/src/lv_widgets/lv_img.c:120:9
	ldr	r1, [sp, #12]
	.loc	10 120 26                       @ lvgl/src/lv_widgets/lv_img.c:120:26
	strh	r0, [r1, #16]
	.loc	10 121 24 is_stmt 1             @ lvgl/src/lv_widgets/lv_img.c:121:24
	ldr	r0, [sp, #16]
	.loc	10 121 29 is_stmt 0             @ lvgl/src/lv_widgets/lv_img.c:121:29
	ldr	r1, [sp, #8]
	.loc	10 121 39                       @ lvgl/src/lv_widgets/lv_img.c:121:39
	ldr	r1, [r1]
	.loc	10 121 9                        @ lvgl/src/lv_widgets/lv_img.c:121:9
	bl	lv_img_set_src
	.loc	10 124 30 is_stmt 1             @ lvgl/src/lv_widgets/lv_img.c:124:30
	ldr	r0, [sp, #16]
	movs	r2, #255
	.loc	10 124 9 is_stmt 0              @ lvgl/src/lv_widgets/lv_img.c:124:9
	mov	r1, r2
	bl	lv_obj_refresh_style
	b	.LBB0_22
.Ltmp29:
.LBB0_22:
	.loc	10 129 12 is_stmt 1             @ lvgl/src/lv_widgets/lv_img.c:129:12
	ldr	r0, [sp, #16]
	.loc	10 129 5 is_stmt 0              @ lvgl/src/lv_widgets/lv_img.c:129:5
	str	r0, [sp, #28]
	b	.LBB0_23
.LBB0_23:
	.loc	10 130 1 is_stmt 1              @ lvgl/src/lv_widgets/lv_img.c:130:1
	ldr	r0, [sp, #28]
	add	sp, #32
	pop	{r7, pc}
.Ltmp30:
.Lfunc_end0:
	.size	lv_img_create, .Lfunc_end0-lv_img_create
	.cfi_endproc
	.cantunwind
	.fnend
                                        @ -- End function
	.section	.text.lv_img_signal,"ax",%progbits
	.p2align	3                               @ -- Begin function lv_img_signal
	.type	lv_img_signal,%function
	.code	16                              @ @lv_img_signal
	.thumb_func
lv_img_signal:
.Lfunc_begin1:
	.loc	10 779 0                        @ lvgl/src/lv_widgets/lv_img.c:779:0
	.fnstart
	.cfi_startproc
@ %bb.0:
	.save	{r7, lr}
	push	{r7, lr}
	.cfi_def_cfa_offset 8
	.cfi_offset lr, -4
	.cfi_offset r7, -8
	.pad	#144
	sub	sp, #144
	.cfi_def_cfa_offset 152
                                        @ kill: def $r3 killed $r1
	str	r0, [sp, #136]
	strb.w	r1, [sp, #135]
	str	r2, [sp, #128]
.Ltmp31:
	.loc	10 781 8 prologue_end           @ lvgl/src/lv_widgets/lv_img.c:781:8
	ldrb.w	r0, [sp, #135]
.Ltmp32:
	.loc	10 781 8 is_stmt 0              @ lvgl/src/lv_widgets/lv_img.c:781:8
	cmp	r0, #8
	bne	.LBB1_4
	b	.LBB1_1
.LBB1_1:
.Ltmp33:
	.loc	10 783 38 is_stmt 1             @ lvgl/src/lv_widgets/lv_img.c:783:38
	ldr	r0, [sp, #128]
	.loc	10 783 31 is_stmt 0             @ lvgl/src/lv_widgets/lv_img.c:783:31
	str	r0, [sp, #120]
	.loc	10 784 41 is_stmt 1             @ lvgl/src/lv_widgets/lv_img.c:784:41
	ldr	r0, [sp, #136]
	.loc	10 784 46 is_stmt 0             @ lvgl/src/lv_widgets/lv_img.c:784:46
	ldr	r1, [sp, #120]
	.loc	10 784 52                       @ lvgl/src/lv_widgets/lv_img.c:784:52
	ldrb	r1, [r1]
	.loc	10 784 24                       @ lvgl/src/lv_widgets/lv_img.c:784:24
	bl	lv_img_get_style
	.loc	10 784 9                        @ lvgl/src/lv_widgets/lv_img.c:784:9
	ldr	r1, [sp, #120]
	.loc	10 784 22                       @ lvgl/src/lv_widgets/lv_img.c:784:22
	str	r0, [r1, #4]
.Ltmp34:
	.loc	10 785 12 is_stmt 1             @ lvgl/src/lv_widgets/lv_img.c:785:12
	ldr	r0, [sp, #120]
	.loc	10 785 18 is_stmt 0             @ lvgl/src/lv_widgets/lv_img.c:785:18
	ldr	r0, [r0, #4]
.Ltmp35:
	.loc	10 785 12                       @ lvgl/src/lv_widgets/lv_img.c:785:12
	cbz	r0, .LBB1_3
	b	.LBB1_2
.LBB1_2:
	.loc	10 0 12                         @ lvgl/src/lv_widgets/lv_img.c:0:12
	movs	r0, #1
.Ltmp36:
	.loc	10 785 34                       @ lvgl/src/lv_widgets/lv_img.c:785:34
	strb.w	r0, [sp, #143]
	b	.LBB1_60
.LBB1_3:
	.loc	10 786 21 is_stmt 1             @ lvgl/src/lv_widgets/lv_img.c:786:21
	movw	r0, :lower16:ancestor_signal
	movt	r0, :upper16:ancestor_signal
	ldr	r3, [r0]
	.loc	10 786 37 is_stmt 0             @ lvgl/src/lv_widgets/lv_img.c:786:37
	ldr	r0, [sp, #136]
	.loc	10 786 42                       @ lvgl/src/lv_widgets/lv_img.c:786:42
	ldrb.w	r1, [sp, #135]
	.loc	10 786 48                       @ lvgl/src/lv_widgets/lv_img.c:786:48
	ldr	r2, [sp, #128]
	.loc	10 786 21                       @ lvgl/src/lv_widgets/lv_img.c:786:21
	blx	r3
	.loc	10 786 14                       @ lvgl/src/lv_widgets/lv_img.c:786:14
	strb.w	r0, [sp, #143]
	b	.LBB1_60
.Ltmp37:
.LBB1_4:
	.loc	10 790 11 is_stmt 1             @ lvgl/src/lv_widgets/lv_img.c:790:11
	movw	r0, :lower16:ancestor_signal
	movt	r0, :upper16:ancestor_signal
	ldr	r3, [r0]
	.loc	10 790 27 is_stmt 0             @ lvgl/src/lv_widgets/lv_img.c:790:27
	ldr	r0, [sp, #136]
	.loc	10 790 32                       @ lvgl/src/lv_widgets/lv_img.c:790:32
	ldrb.w	r1, [sp, #135]
	.loc	10 790 38                       @ lvgl/src/lv_widgets/lv_img.c:790:38
	ldr	r2, [sp, #128]
	.loc	10 790 11                       @ lvgl/src/lv_widgets/lv_img.c:790:11
	blx	r3
	.loc	10 790 9                        @ lvgl/src/lv_widgets/lv_img.c:790:9
	strb.w	r0, [sp, #127]
.Ltmp38:
	.loc	10 791 8 is_stmt 1              @ lvgl/src/lv_widgets/lv_img.c:791:8
	ldrb.w	r0, [sp, #127]
.Ltmp39:
	.loc	10 791 8 is_stmt 0              @ lvgl/src/lv_widgets/lv_img.c:791:8
	cmp	r0, #1
	beq	.LBB1_6
	b	.LBB1_5
.LBB1_5:
.Ltmp40:
	.loc	10 791 33                       @ lvgl/src/lv_widgets/lv_img.c:791:33
	ldrb.w	r0, [sp, #127]
	.loc	10 791 26                       @ lvgl/src/lv_widgets/lv_img.c:791:26
	strb.w	r0, [sp, #143]
	b	.LBB1_60
.Ltmp41:
.LBB1_6:
	.loc	10 793 8 is_stmt 1              @ lvgl/src/lv_widgets/lv_img.c:793:8
	ldrb.w	r0, [sp, #135]
.Ltmp42:
	.loc	10 793 8 is_stmt 0              @ lvgl/src/lv_widgets/lv_img.c:793:8
	cmp	r0, #7
	bne	.LBB1_8
	b	.LBB1_7
.LBB1_7:
.Ltmp43:
	.loc	10 793 73                       @ lvgl/src/lv_widgets/lv_img.c:793:73
	ldr	r0, [sp, #128]
	.loc	10 793 43                       @ lvgl/src/lv_widgets/lv_img.c:793:43
	movw	r1, :lower16:.L.str.3
	movt	r1, :upper16:.L.str.3
	bl	lv_obj_handle_get_type_signal
	.loc	10 793 36                       @ lvgl/src/lv_widgets/lv_img.c:793:36
	strb.w	r0, [sp, #143]
	b	.LBB1_60
.Ltmp44:
.LBB1_8:
	.loc	10 795 46 is_stmt 1             @ lvgl/src/lv_widgets/lv_img.c:795:46
	ldr	r0, [sp, #136]
	.loc	10 795 26 is_stmt 0             @ lvgl/src/lv_widgets/lv_img.c:795:26
	bl	lv_obj_get_ext_attr
	.loc	10 795 20                       @ lvgl/src/lv_widgets/lv_img.c:795:20
	str	r0, [sp, #116]
.Ltmp45:
	.loc	10 796 8 is_stmt 1              @ lvgl/src/lv_widgets/lv_img.c:796:8
	ldrb.w	r0, [sp, #135]
.Ltmp46:
	.loc	10 796 8 is_stmt 0              @ lvgl/src/lv_widgets/lv_img.c:796:8
	cbnz	r0, .LBB1_13
	b	.LBB1_9
.LBB1_9:
.Ltmp47:
	.loc	10 797 12 is_stmt 1             @ lvgl/src/lv_widgets/lv_img.c:797:12
	ldr	r0, [sp, #116]
	.loc	10 797 17 is_stmt 0             @ lvgl/src/lv_widgets/lv_img.c:797:17
	ldrb	r0, [r0, #20]
	and	r0, r0, #3
	.loc	10 797 45                       @ lvgl/src/lv_widgets/lv_img.c:797:45
	cmp	r0, #1
	beq	.LBB1_11
	b	.LBB1_10
.LBB1_10:
	.loc	10 797 48                       @ lvgl/src/lv_widgets/lv_img.c:797:48
	ldr	r0, [sp, #116]
	.loc	10 797 53                       @ lvgl/src/lv_widgets/lv_img.c:797:53
	ldrb	r0, [r0, #20]
	and	r0, r0, #3
.Ltmp48:
	.loc	10 797 12                       @ lvgl/src/lv_widgets/lv_img.c:797:12
	cmp	r0, #2
	bne	.LBB1_12
	b	.LBB1_11
.LBB1_11:
.Ltmp49:
	.loc	10 798 25 is_stmt 1             @ lvgl/src/lv_widgets/lv_img.c:798:25
	ldr	r0, [sp, #116]
	.loc	10 798 30 is_stmt 0             @ lvgl/src/lv_widgets/lv_img.c:798:30
	ldr	r0, [r0]
	.loc	10 798 13                       @ lvgl/src/lv_widgets/lv_img.c:798:13
	bl	lv_mem_free
	.loc	10 799 13 is_stmt 1             @ lvgl/src/lv_widgets/lv_img.c:799:13
	ldr	r1, [sp, #116]
	movs	r0, #0
	.loc	10 799 27 is_stmt 0             @ lvgl/src/lv_widgets/lv_img.c:799:27
	str	r0, [r1]
	.loc	10 800 13 is_stmt 1             @ lvgl/src/lv_widgets/lv_img.c:800:13
	ldr	r1, [sp, #116]
	.loc	10 800 27 is_stmt 0             @ lvgl/src/lv_widgets/lv_img.c:800:27
	ldrb	r0, [r1, #20]
	orr	r0, r0, #3
	strb	r0, [r1, #20]
	.loc	10 801 9 is_stmt 1              @ lvgl/src/lv_widgets/lv_img.c:801:9
	b	.LBB1_12
.Ltmp50:
.LBB1_12:
	.loc	10 802 5                        @ lvgl/src/lv_widgets/lv_img.c:802:5
	b	.LBB1_59
.Ltmp51:
.LBB1_13:
	.loc	10 803 13                       @ lvgl/src/lv_widgets/lv_img.c:803:13
	ldrb.w	r0, [sp, #135]
.Ltmp52:
	.loc	10 803 13 is_stmt 0             @ lvgl/src/lv_widgets/lv_img.c:803:13
	cmp	r0, #4
	bne	.LBB1_17
	b	.LBB1_14
.LBB1_14:
.Ltmp53:
	.loc	10 805 12 is_stmt 1             @ lvgl/src/lv_widgets/lv_img.c:805:12
	ldr	r0, [sp, #116]
	.loc	10 805 17 is_stmt 0             @ lvgl/src/lv_widgets/lv_img.c:805:17
	ldrb	r0, [r0, #20]
	and	r0, r0, #3
.Ltmp54:
	.loc	10 805 12                       @ lvgl/src/lv_widgets/lv_img.c:805:12
	cmp	r0, #2
	bne	.LBB1_16
	b	.LBB1_15
.LBB1_15:
.Ltmp55:
	.loc	10 806 28 is_stmt 1             @ lvgl/src/lv_widgets/lv_img.c:806:28
	ldr	r0, [sp, #136]
	.loc	10 806 33 is_stmt 0             @ lvgl/src/lv_widgets/lv_img.c:806:33
	ldr	r1, [sp, #116]
	.loc	10 806 38                       @ lvgl/src/lv_widgets/lv_img.c:806:38
	ldr	r1, [r1]
	.loc	10 806 13                       @ lvgl/src/lv_widgets/lv_img.c:806:13
	bl	lv_img_set_src
	.loc	10 807 9 is_stmt 1              @ lvgl/src/lv_widgets/lv_img.c:807:9
	b	.LBB1_16
.Ltmp56:
.LBB1_16:
	.loc	10 808 5                        @ lvgl/src/lv_widgets/lv_img.c:808:5
	b	.LBB1_58
.Ltmp57:
.LBB1_17:
	.loc	10 809 13                       @ lvgl/src/lv_widgets/lv_img.c:809:13
	ldrb.w	r0, [sp, #135]
.Ltmp58:
	.loc	10 809 13 is_stmt 0             @ lvgl/src/lv_widgets/lv_img.c:809:13
	cmp	r0, #6
	bne.w	.LBB1_46
	b	.LBB1_18
.LBB1_18:
.Ltmp59:
	.loc	10 811 70 is_stmt 1             @ lvgl/src/lv_widgets/lv_img.c:811:70
	ldr	r0, [sp, #136]
	movs	r1, #0
	.loc	10 811 38 is_stmt 0             @ lvgl/src/lv_widgets/lv_img.c:811:38
	str	r1, [sp, #64]                   @ 4-byte Spill
	bl	lv_obj_get_style_transform_zoom
	ldr	r1, [sp, #64]                   @ 4-byte Reload
	.loc	10 811 24                       @ lvgl/src/lv_widgets/lv_img.c:811:24
	strh.w	r0, [sp, #114]
	.loc	10 812 24 is_stmt 1             @ lvgl/src/lv_widgets/lv_img.c:812:24
	ldrsh.w	r0, [sp, #114]
	.loc	10 812 38 is_stmt 0             @ lvgl/src/lv_widgets/lv_img.c:812:38
	ldr	r2, [sp, #116]
	.loc	10 812 43                       @ lvgl/src/lv_widgets/lv_img.c:812:43
	ldrh	r2, [r2, #18]
	.loc	10 812 36                       @ lvgl/src/lv_widgets/lv_img.c:812:36
	muls	r0, r2, r0
	.loc	10 812 49                       @ lvgl/src/lv_widgets/lv_img.c:812:49
	lsrs	r0, r0, #8
	.loc	10 812 21                       @ lvgl/src/lv_widgets/lv_img.c:812:21
	strh.w	r0, [sp, #114]
	.loc	10 814 72 is_stmt 1             @ lvgl/src/lv_widgets/lv_img.c:814:72
	ldr	r0, [sp, #136]
	.loc	10 814 39 is_stmt 0             @ lvgl/src/lv_widgets/lv_img.c:814:39
	bl	lv_obj_get_style_transform_angle
	.loc	10 814 24                       @ lvgl/src/lv_widgets/lv_img.c:814:24
	strh.w	r0, [sp, #112]
	.loc	10 815 25 is_stmt 1             @ lvgl/src/lv_widgets/lv_img.c:815:25
	ldr	r0, [sp, #116]
	ldrh	r1, [r0, #12]
	.loc	10 815 22 is_stmt 0             @ lvgl/src/lv_widgets/lv_img.c:815:22
	ldrh.w	r0, [sp, #112]
	add	r0, r1
	strh.w	r0, [sp, #112]
.Ltmp60:
	.loc	10 818 12 is_stmt 1             @ lvgl/src/lv_widgets/lv_img.c:818:12
	ldrsh.w	r0, [sp, #112]
	.loc	10 818 25 is_stmt 0             @ lvgl/src/lv_widgets/lv_img.c:818:25
	cbnz	r0, .LBB1_20
	b	.LBB1_19
.LBB1_19:
	.loc	10 818 28                       @ lvgl/src/lv_widgets/lv_img.c:818:28
	ldrsh.w	r0, [sp, #114]
.Ltmp61:
	.loc	10 818 12                       @ lvgl/src/lv_widgets/lv_img.c:818:12
	cmp.w	r0, #256
	beq.w	.LBB1_33
	b	.LBB1_20
.LBB1_20:
.Ltmp62:
	.loc	10 820 45 is_stmt 1             @ lvgl/src/lv_widgets/lv_img.c:820:45
	ldr	r0, [sp, #136]
	.loc	10 820 28 is_stmt 0             @ lvgl/src/lv_widgets/lv_img.c:820:28
	bl	lv_obj_get_width
	.loc	10 820 24                       @ lvgl/src/lv_widgets/lv_img.c:820:24
	strh.w	r0, [sp, #102]
	.loc	10 821 46 is_stmt 1             @ lvgl/src/lv_widgets/lv_img.c:821:46
	ldr	r0, [sp, #136]
	.loc	10 821 28 is_stmt 0             @ lvgl/src/lv_widgets/lv_img.c:821:28
	bl	lv_obj_get_height
	.loc	10 821 24                       @ lvgl/src/lv_widgets/lv_img.c:821:24
	strh.w	r0, [sp, #100]
	.loc	10 822 50 is_stmt 1             @ lvgl/src/lv_widgets/lv_img.c:822:50
	ldrsh.w	r1, [sp, #102]
	.loc	10 822 53 is_stmt 0             @ lvgl/src/lv_widgets/lv_img.c:822:53
	ldrsh.w	r2, [sp, #100]
	.loc	10 822 56                       @ lvgl/src/lv_widgets/lv_img.c:822:56
	ldrsh.w	r3, [sp, #112]
	.loc	10 822 70                       @ lvgl/src/lv_widgets/lv_img.c:822:70
	ldrh.w	r0, [sp, #114]
	.loc	10 822 84                       @ lvgl/src/lv_widgets/lv_img.c:822:84
	ldr.w	r12, [sp, #116]
	.loc	10 822 89                       @ lvgl/src/lv_widgets/lv_img.c:822:89
	add.w	lr, r12, #14
	.loc	10 822 13                       @ lvgl/src/lv_widgets/lv_img.c:822:13
	mov	r12, sp
	str.w	lr, [r12, #4]
	str.w	r0, [r12]
	add	r0, sp, #104
	bl	_lv_img_buf_get_transformed_area
	.loc	10 823 34 is_stmt 1             @ lvgl/src/lv_widgets/lv_img.c:823:34
	ldr	r0, [sp, #136]
	.loc	10 823 39 is_stmt 0             @ lvgl/src/lv_widgets/lv_img.c:823:39
	ldrh	r0, [r0, #50]
	.loc	10 823 24                       @ lvgl/src/lv_widgets/lv_img.c:823:24
	strh.w	r0, [sp, #98]
	.loc	10 824 33 is_stmt 1             @ lvgl/src/lv_widgets/lv_img.c:824:33
	ldr	r0, [sp, #136]
	ldrsh.w	r0, [r0, #50]
	ldrsh.w	r1, [sp, #98]
	ldrsh.w	r2, [sp, #104]
	subs	r1, r1, r2
	cmp	r0, r1
	ble	.LBB1_22
	b	.LBB1_21
.LBB1_21:
	ldr	r0, [sp, #136]
	ldrsh.w	r0, [r0, #50]
	str	r0, [sp, #60]                   @ 4-byte Spill
	b	.LBB1_23
.LBB1_22:
	ldrsh.w	r0, [sp, #98]
	ldrsh.w	r1, [sp, #104]
	subs	r0, r0, r1
	str	r0, [sp, #60]                   @ 4-byte Spill
	b	.LBB1_23
.LBB1_23:
	ldr	r0, [sp, #60]                   @ 4-byte Reload
	.loc	10 824 13 is_stmt 0             @ lvgl/src/lv_widgets/lv_img.c:824:13
	ldr	r1, [sp, #136]
	.loc	10 824 31                       @ lvgl/src/lv_widgets/lv_img.c:824:31
	strh	r0, [r1, #50]
	.loc	10 825 33 is_stmt 1             @ lvgl/src/lv_widgets/lv_img.c:825:33
	ldr	r0, [sp, #136]
	ldrsh.w	r0, [r0, #50]
	ldrsh.w	r1, [sp, #98]
	ldrsh.w	r2, [sp, #106]
	subs	r1, r1, r2
	cmp	r0, r1
	ble	.LBB1_25
	b	.LBB1_24
.LBB1_24:
	ldr	r0, [sp, #136]
	ldrsh.w	r0, [r0, #50]
	str	r0, [sp, #56]                   @ 4-byte Spill
	b	.LBB1_26
.LBB1_25:
	ldrsh.w	r0, [sp, #98]
	ldrsh.w	r1, [sp, #106]
	subs	r0, r0, r1
	str	r0, [sp, #56]                   @ 4-byte Spill
	b	.LBB1_26
.LBB1_26:
	ldr	r0, [sp, #56]                   @ 4-byte Reload
	.loc	10 825 13 is_stmt 0             @ lvgl/src/lv_widgets/lv_img.c:825:13
	ldr	r1, [sp, #136]
	.loc	10 825 31                       @ lvgl/src/lv_widgets/lv_img.c:825:31
	strh	r0, [r1, #50]
	.loc	10 826 33 is_stmt 1             @ lvgl/src/lv_widgets/lv_img.c:826:33
	ldr	r0, [sp, #136]
	ldrsh.w	r0, [r0, #50]
	ldrsh.w	r1, [sp, #98]
	ldrsh.w	r2, [sp, #108]
	add	r1, r2
	ldrsh.w	r2, [sp, #102]
	subs	r1, r1, r2
	cmp	r0, r1
	ble	.LBB1_28
	b	.LBB1_27
.LBB1_27:
	ldr	r0, [sp, #136]
	ldrsh.w	r0, [r0, #50]
	str	r0, [sp, #52]                   @ 4-byte Spill
	b	.LBB1_29
.LBB1_28:
	ldrsh.w	r0, [sp, #98]
	ldrsh.w	r1, [sp, #108]
	add	r0, r1
	ldrsh.w	r1, [sp, #102]
	subs	r0, r0, r1
	str	r0, [sp, #52]                   @ 4-byte Spill
	b	.LBB1_29
.LBB1_29:
	ldr	r0, [sp, #52]                   @ 4-byte Reload
	.loc	10 826 13 is_stmt 0             @ lvgl/src/lv_widgets/lv_img.c:826:13
	ldr	r1, [sp, #136]
	.loc	10 826 31                       @ lvgl/src/lv_widgets/lv_img.c:826:31
	strh	r0, [r1, #50]
	.loc	10 827 33 is_stmt 1             @ lvgl/src/lv_widgets/lv_img.c:827:33
	ldr	r0, [sp, #136]
	ldrsh.w	r0, [r0, #50]
	ldrsh.w	r1, [sp, #98]
	ldrsh.w	r2, [sp, #110]
	add	r1, r2
	ldrsh.w	r2, [sp, #100]
	subs	r1, r1, r2
	cmp	r0, r1
	ble	.LBB1_31
	b	.LBB1_30
.LBB1_30:
	ldr	r0, [sp, #136]
	ldrsh.w	r0, [r0, #50]
	str	r0, [sp, #48]                   @ 4-byte Spill
	b	.LBB1_32
.LBB1_31:
	ldrsh.w	r0, [sp, #98]
	ldrsh.w	r1, [sp, #110]
	add	r0, r1
	ldrsh.w	r1, [sp, #100]
	subs	r0, r0, r1
	str	r0, [sp, #48]                   @ 4-byte Spill
	b	.LBB1_32
.LBB1_32:
	ldr	r0, [sp, #48]                   @ 4-byte Reload
	.loc	10 827 13 is_stmt 0             @ lvgl/src/lv_widgets/lv_img.c:827:13
	ldr	r1, [sp, #136]
	.loc	10 827 31                       @ lvgl/src/lv_widgets/lv_img.c:827:31
	strh	r0, [r1, #50]
	.loc	10 828 9 is_stmt 1              @ lvgl/src/lv_widgets/lv_img.c:828:9
	b	.LBB1_33
.Ltmp63:
.LBB1_33:
	.loc	10 831 57                       @ lvgl/src/lv_widgets/lv_img.c:831:57
	ldr	r0, [sp, #136]
	movs	r1, #0
	.loc	10 831 31 is_stmt 0             @ lvgl/src/lv_widgets/lv_img.c:831:31
	str	r1, [sp, #44]                   @ 4-byte Spill
	bl	lv_obj_get_style_pad_left
	ldr	r1, [sp, #44]                   @ 4-byte Reload
	.loc	10 831 24                       @ lvgl/src/lv_widgets/lv_img.c:831:24
	strh.w	r0, [sp, #96]
	.loc	10 832 59 is_stmt 1             @ lvgl/src/lv_widgets/lv_img.c:832:59
	ldr	r0, [sp, #136]
	.loc	10 832 32 is_stmt 0             @ lvgl/src/lv_widgets/lv_img.c:832:32
	bl	lv_obj_get_style_pad_right
	ldr	r1, [sp, #44]                   @ 4-byte Reload
	.loc	10 832 24                       @ lvgl/src/lv_widgets/lv_img.c:832:24
	strh.w	r0, [sp, #94]
	.loc	10 833 55 is_stmt 1             @ lvgl/src/lv_widgets/lv_img.c:833:55
	ldr	r0, [sp, #136]
	.loc	10 833 30 is_stmt 0             @ lvgl/src/lv_widgets/lv_img.c:833:30
	bl	lv_obj_get_style_pad_top
	ldr	r1, [sp, #44]                   @ 4-byte Reload
	.loc	10 833 24                       @ lvgl/src/lv_widgets/lv_img.c:833:24
	strh.w	r0, [sp, #92]
	.loc	10 834 61 is_stmt 1             @ lvgl/src/lv_widgets/lv_img.c:834:61
	ldr	r0, [sp, #136]
	.loc	10 834 33 is_stmt 0             @ lvgl/src/lv_widgets/lv_img.c:834:33
	bl	lv_obj_get_style_pad_bottom
	.loc	10 834 24                       @ lvgl/src/lv_widgets/lv_img.c:834:24
	strh.w	r0, [sp, #90]
	.loc	10 836 29 is_stmt 1             @ lvgl/src/lv_widgets/lv_img.c:836:29
	ldr	r0, [sp, #136]
	ldrsh.w	r0, [r0, #50]
	ldrsh.w	r1, [sp, #96]
	cmp	r0, r1
	ble	.LBB1_35
	b	.LBB1_34
.LBB1_34:
	ldr	r0, [sp, #136]
	ldrsh.w	r0, [r0, #50]
	str	r0, [sp, #40]                   @ 4-byte Spill
	b	.LBB1_36
.LBB1_35:
	ldrsh.w	r0, [sp, #96]
	str	r0, [sp, #40]                   @ 4-byte Spill
	b	.LBB1_36
.LBB1_36:
	ldr	r0, [sp, #40]                   @ 4-byte Reload
	.loc	10 836 9 is_stmt 0              @ lvgl/src/lv_widgets/lv_img.c:836:9
	ldr	r1, [sp, #136]
	.loc	10 836 27                       @ lvgl/src/lv_widgets/lv_img.c:836:27
	strh	r0, [r1, #50]
	.loc	10 837 29 is_stmt 1             @ lvgl/src/lv_widgets/lv_img.c:837:29
	ldr	r0, [sp, #136]
	ldrsh.w	r0, [r0, #50]
	ldrsh.w	r1, [sp, #94]
	cmp	r0, r1
	ble	.LBB1_38
	b	.LBB1_37
.LBB1_37:
	ldr	r0, [sp, #136]
	ldrsh.w	r0, [r0, #50]
	str	r0, [sp, #36]                   @ 4-byte Spill
	b	.LBB1_39
.LBB1_38:
	ldrsh.w	r0, [sp, #94]
	str	r0, [sp, #36]                   @ 4-byte Spill
	b	.LBB1_39
.LBB1_39:
	ldr	r0, [sp, #36]                   @ 4-byte Reload
	.loc	10 837 9 is_stmt 0              @ lvgl/src/lv_widgets/lv_img.c:837:9
	ldr	r1, [sp, #136]
	.loc	10 837 27                       @ lvgl/src/lv_widgets/lv_img.c:837:27
	strh	r0, [r1, #50]
	.loc	10 838 29 is_stmt 1             @ lvgl/src/lv_widgets/lv_img.c:838:29
	ldr	r0, [sp, #136]
	ldrsh.w	r0, [r0, #50]
	ldrsh.w	r1, [sp, #92]
	cmp	r0, r1
	ble	.LBB1_41
	b	.LBB1_40
.LBB1_40:
	ldr	r0, [sp, #136]
	ldrsh.w	r0, [r0, #50]
	str	r0, [sp, #32]                   @ 4-byte Spill
	b	.LBB1_42
.LBB1_41:
	ldrsh.w	r0, [sp, #92]
	str	r0, [sp, #32]                   @ 4-byte Spill
	b	.LBB1_42
.LBB1_42:
	ldr	r0, [sp, #32]                   @ 4-byte Reload
	.loc	10 838 9 is_stmt 0              @ lvgl/src/lv_widgets/lv_img.c:838:9
	ldr	r1, [sp, #136]
	.loc	10 838 27                       @ lvgl/src/lv_widgets/lv_img.c:838:27
	strh	r0, [r1, #50]
	.loc	10 839 29 is_stmt 1             @ lvgl/src/lv_widgets/lv_img.c:839:29
	ldr	r0, [sp, #136]
	ldrsh.w	r0, [r0, #50]
	ldrsh.w	r1, [sp, #90]
	cmp	r0, r1
	ble	.LBB1_44
	b	.LBB1_43
.LBB1_43:
	ldr	r0, [sp, #136]
	ldrsh.w	r0, [r0, #50]
	str	r0, [sp, #28]                   @ 4-byte Spill
	b	.LBB1_45
.LBB1_44:
	ldrsh.w	r0, [sp, #90]
	str	r0, [sp, #28]                   @ 4-byte Spill
	b	.LBB1_45
.LBB1_45:
	ldr	r0, [sp, #28]                   @ 4-byte Reload
	.loc	10 839 9 is_stmt 0              @ lvgl/src/lv_widgets/lv_img.c:839:9
	ldr	r1, [sp, #136]
	.loc	10 839 27                       @ lvgl/src/lv_widgets/lv_img.c:839:27
	strh	r0, [r1, #50]
	.loc	10 841 5 is_stmt 1              @ lvgl/src/lv_widgets/lv_img.c:841:5
	b	.LBB1_57
.Ltmp64:
.LBB1_46:
	.loc	10 842 13                       @ lvgl/src/lv_widgets/lv_img.c:842:13
	ldrb.w	r0, [sp, #135]
.Ltmp65:
	.loc	10 842 13 is_stmt 0             @ lvgl/src/lv_widgets/lv_img.c:842:13
	cmp	r0, #10
	bne.w	.LBB1_56
	b	.LBB1_47
.LBB1_47:
.Ltmp66:
	.loc	10 843 37 is_stmt 1             @ lvgl/src/lv_widgets/lv_img.c:843:37
	ldr	r0, [sp, #128]
	.loc	10 843 30 is_stmt 0             @ lvgl/src/lv_widgets/lv_img.c:843:30
	str	r0, [sp, #84]
	.loc	10 844 63 is_stmt 1             @ lvgl/src/lv_widgets/lv_img.c:844:63
	ldr	r0, [sp, #136]
	movs	r1, #0
	.loc	10 844 31 is_stmt 0             @ lvgl/src/lv_widgets/lv_img.c:844:31
	str	r1, [sp, #20]                   @ 4-byte Spill
	bl	lv_obj_get_style_transform_zoom
	ldr	r1, [sp, #20]                   @ 4-byte Reload
	.loc	10 844 24                       @ lvgl/src/lv_widgets/lv_img.c:844:24
	strh.w	r0, [sp, #82]
	.loc	10 845 17 is_stmt 1             @ lvgl/src/lv_widgets/lv_img.c:845:17
	ldrsh.w	r0, [sp, #82]
	.loc	10 845 24 is_stmt 0             @ lvgl/src/lv_widgets/lv_img.c:845:24
	ldr	r2, [sp, #116]
	.loc	10 845 29                       @ lvgl/src/lv_widgets/lv_img.c:845:29
	ldrh	r2, [r2, #18]
	.loc	10 845 22                       @ lvgl/src/lv_widgets/lv_img.c:845:22
	muls	r0, r2, r0
	.loc	10 845 35                       @ lvgl/src/lv_widgets/lv_img.c:845:35
	lsrs	r0, r0, #8
	.loc	10 845 14                       @ lvgl/src/lv_widgets/lv_img.c:845:14
	strh.w	r0, [sp, #82]
	.loc	10 847 65 is_stmt 1             @ lvgl/src/lv_widgets/lv_img.c:847:65
	ldr	r0, [sp, #136]
	.loc	10 847 32 is_stmt 0             @ lvgl/src/lv_widgets/lv_img.c:847:32
	bl	lv_obj_get_style_transform_angle
	.loc	10 847 24                       @ lvgl/src/lv_widgets/lv_img.c:847:24
	strh.w	r0, [sp, #80]
	.loc	10 848 18 is_stmt 1             @ lvgl/src/lv_widgets/lv_img.c:848:18
	ldr	r0, [sp, #116]
	ldrh	r1, [r0, #12]
	.loc	10 848 15 is_stmt 0             @ lvgl/src/lv_widgets/lv_img.c:848:15
	ldrh.w	r0, [sp, #80]
	add	r0, r1
	strh.w	r0, [sp, #80]
.Ltmp67:
	.loc	10 852 12 is_stmt 1             @ lvgl/src/lv_widgets/lv_img.c:852:12
	ldr	r0, [sp, #116]
	.loc	10 852 17 is_stmt 0             @ lvgl/src/lv_widgets/lv_img.c:852:17
	ldrsh.w	r0, [r0, #8]
	.loc	10 852 39                       @ lvgl/src/lv_widgets/lv_img.c:852:39
	str	r0, [sp, #24]                   @ 4-byte Spill
	ldr	r0, [sp, #136]
	.loc	10 852 22                       @ lvgl/src/lv_widgets/lv_img.c:852:22
	bl	lv_obj_get_width
	mov	r1, r0
	.loc	10 852 44                       @ lvgl/src/lv_widgets/lv_img.c:852:44
	ldr	r0, [sp, #24]                   @ 4-byte Reload
	cmp	r0, r1
	bne	.LBB1_54
	b	.LBB1_48
.LBB1_48:
	.loc	10 852 47                       @ lvgl/src/lv_widgets/lv_img.c:852:47
	ldr	r0, [sp, #116]
	.loc	10 852 52                       @ lvgl/src/lv_widgets/lv_img.c:852:52
	ldrsh.w	r0, [r0, #10]
	.loc	10 852 75                       @ lvgl/src/lv_widgets/lv_img.c:852:75
	str	r0, [sp, #16]                   @ 4-byte Spill
	ldr	r0, [sp, #136]
	.loc	10 852 57                       @ lvgl/src/lv_widgets/lv_img.c:852:57
	bl	lv_obj_get_height
	mov	r1, r0
	.loc	10 852 80                       @ lvgl/src/lv_widgets/lv_img.c:852:80
	ldr	r0, [sp, #16]                   @ 4-byte Reload
	cmp	r0, r1
	bne	.LBB1_54
	b	.LBB1_49
.LBB1_49:
	.loc	10 853 13 is_stmt 1             @ lvgl/src/lv_widgets/lv_img.c:853:13
	ldrsh.w	r0, [sp, #82]
	.loc	10 853 38 is_stmt 0             @ lvgl/src/lv_widgets/lv_img.c:853:38
	cmp.w	r0, #256
	bne	.LBB1_53
	b	.LBB1_50
.LBB1_50:
	.loc	10 853 41                       @ lvgl/src/lv_widgets/lv_img.c:853:41
	ldrsh.w	r0, [sp, #80]
	.loc	10 853 52                       @ lvgl/src/lv_widgets/lv_img.c:853:52
	cbnz	r0, .LBB1_53
	b	.LBB1_51
.LBB1_51:
	.loc	10 853 55                       @ lvgl/src/lv_widgets/lv_img.c:853:55
	ldr	r0, [sp, #116]
	.loc	10 853 76                       @ lvgl/src/lv_widgets/lv_img.c:853:76
	ldrsh.w	r1, [r0, #8]
	.loc	10 853 66                       @ lvgl/src/lv_widgets/lv_img.c:853:66
	ldrsh.w	r0, [r0, #14]
	.loc	10 853 78                       @ lvgl/src/lv_widgets/lv_img.c:853:78
	add.w	r1, r1, r1, lsr #31
	.loc	10 853 82                       @ lvgl/src/lv_widgets/lv_img.c:853:82
	cmp.w	r0, r1, asr #1
	bne	.LBB1_53
	b	.LBB1_52
.LBB1_52:
	.loc	10 853 85                       @ lvgl/src/lv_widgets/lv_img.c:853:85
	ldr	r0, [sp, #116]
	.loc	10 853 106                      @ lvgl/src/lv_widgets/lv_img.c:853:106
	ldrsh.w	r1, [r0, #10]
	.loc	10 853 96                       @ lvgl/src/lv_widgets/lv_img.c:853:96
	ldrsh.w	r0, [r0, #16]
	.loc	10 853 108                      @ lvgl/src/lv_widgets/lv_img.c:853:108
	add.w	r1, r1, r1, lsr #31
.Ltmp68:
	.loc	10 852 12 is_stmt 1             @ lvgl/src/lv_widgets/lv_img.c:852:12
	cmp.w	r0, r1, asr #1
	beq	.LBB1_54
	b	.LBB1_53
.LBB1_53:
.Ltmp69:
	.loc	10 855 45                       @ lvgl/src/lv_widgets/lv_img.c:855:45
	ldr	r0, [sp, #136]
	.loc	10 855 28 is_stmt 0             @ lvgl/src/lv_widgets/lv_img.c:855:28
	bl	lv_obj_get_width
	.loc	10 855 24                       @ lvgl/src/lv_widgets/lv_img.c:855:24
	strh.w	r0, [sp, #78]
	.loc	10 856 46 is_stmt 1             @ lvgl/src/lv_widgets/lv_img.c:856:46
	ldr	r0, [sp, #136]
	.loc	10 856 28 is_stmt 0             @ lvgl/src/lv_widgets/lv_img.c:856:28
	bl	lv_obj_get_height
	.loc	10 856 24                       @ lvgl/src/lv_widgets/lv_img.c:856:24
	strh.w	r0, [sp, #76]
	.loc	10 858 55 is_stmt 1             @ lvgl/src/lv_widgets/lv_img.c:858:55
	ldrsh.w	r1, [sp, #78]
	.loc	10 858 58 is_stmt 0             @ lvgl/src/lv_widgets/lv_img.c:858:58
	ldrsh.w	r2, [sp, #76]
	.loc	10 858 61                       @ lvgl/src/lv_widgets/lv_img.c:858:61
	ldrsh.w	r3, [sp, #80]
	.loc	10 858 68                       @ lvgl/src/lv_widgets/lv_img.c:858:68
	ldrh.w	r0, [sp, #82]
	.loc	10 858 75                       @ lvgl/src/lv_widgets/lv_img.c:858:75
	ldr.w	r12, [sp, #116]
	.loc	10 858 80                       @ lvgl/src/lv_widgets/lv_img.c:858:80
	add.w	lr, r12, #14
	.loc	10 858 13                       @ lvgl/src/lv_widgets/lv_img.c:858:13
	mov	r12, sp
	str.w	lr, [r12, #4]
	str.w	r0, [r12]
	add	r0, sp, #68
	str	r0, [sp, #12]                   @ 4-byte Spill
	bl	_lv_img_buf_get_transformed_area
	ldr	r0, [sp, #12]                   @ 4-byte Reload
	.loc	10 859 26 is_stmt 1             @ lvgl/src/lv_widgets/lv_img.c:859:26
	ldr	r1, [sp, #136]
	ldrh	r2, [r1, #16]
	.loc	10 859 23 is_stmt 0             @ lvgl/src/lv_widgets/lv_img.c:859:23
	ldrh.w	r1, [sp, #68]
	add	r1, r2
	strh.w	r1, [sp, #68]
	.loc	10 860 26 is_stmt 1             @ lvgl/src/lv_widgets/lv_img.c:860:26
	ldr	r1, [sp, #136]
	ldrh	r2, [r1, #18]
	.loc	10 860 23 is_stmt 0             @ lvgl/src/lv_widgets/lv_img.c:860:23
	ldrh.w	r1, [sp, #70]
	add	r1, r2
	strh.w	r1, [sp, #70]
	.loc	10 861 26 is_stmt 1             @ lvgl/src/lv_widgets/lv_img.c:861:26
	ldr	r1, [sp, #136]
	ldrh	r2, [r1, #16]
	.loc	10 861 23 is_stmt 0             @ lvgl/src/lv_widgets/lv_img.c:861:23
	ldrh.w	r1, [sp, #72]
	add	r1, r2
	strh.w	r1, [sp, #72]
	.loc	10 862 26 is_stmt 1             @ lvgl/src/lv_widgets/lv_img.c:862:26
	ldr	r1, [sp, #136]
	ldrh	r2, [r1, #18]
	.loc	10 862 23 is_stmt 0             @ lvgl/src/lv_widgets/lv_img.c:862:23
	ldrh.w	r1, [sp, #74]
	add	r1, r2
	strh.w	r1, [sp, #74]
	.loc	10 864 58 is_stmt 1             @ lvgl/src/lv_widgets/lv_img.c:864:58
	ldr	r1, [sp, #84]
	.loc	10 864 64 is_stmt 0             @ lvgl/src/lv_widgets/lv_img.c:864:64
	ldr	r1, [r1]
	movs	r2, #0
	.loc	10 864 28                       @ lvgl/src/lv_widgets/lv_img.c:864:28
	bl	_lv_area_is_point_on
	.loc	10 864 13                       @ lvgl/src/lv_widgets/lv_img.c:864:13
	ldr	r1, [sp, #84]
	.loc	10 864 26                       @ lvgl/src/lv_widgets/lv_img.c:864:26
	strb	r0, [r1, #4]
	.loc	10 865 9 is_stmt 1              @ lvgl/src/lv_widgets/lv_img.c:865:9
	b	.LBB1_55
.Ltmp70:
.LBB1_54:
	.loc	10 867 54                       @ lvgl/src/lv_widgets/lv_img.c:867:54
	ldr	r0, [sp, #136]
	.loc	10 867 59 is_stmt 0             @ lvgl/src/lv_widgets/lv_img.c:867:59
	ldr	r1, [sp, #84]
	.loc	10 867 65                       @ lvgl/src/lv_widgets/lv_img.c:867:65
	ldr	r1, [r1]
	.loc	10 867 28                       @ lvgl/src/lv_widgets/lv_img.c:867:28
	bl	lv_obj_is_point_on_coords
	.loc	10 867 13                       @ lvgl/src/lv_widgets/lv_img.c:867:13
	ldr	r1, [sp, #84]
	.loc	10 867 26                       @ lvgl/src/lv_widgets/lv_img.c:867:26
	strb	r0, [r1, #4]
	b	.LBB1_55
.Ltmp71:
.LBB1_55:
	.loc	10 868 5 is_stmt 1              @ lvgl/src/lv_widgets/lv_img.c:868:5
	b	.LBB1_56
.Ltmp72:
.LBB1_56:
	.loc	10 0 5 is_stmt 0                @ lvgl/src/lv_widgets/lv_img.c:0:5
	b	.LBB1_57
.LBB1_57:
	b	.LBB1_58
.LBB1_58:
	b	.LBB1_59
.LBB1_59:
	.loc	10 870 12 is_stmt 1             @ lvgl/src/lv_widgets/lv_img.c:870:12
	ldrb.w	r0, [sp, #127]
	.loc	10 870 5 is_stmt 0              @ lvgl/src/lv_widgets/lv_img.c:870:5
	strb.w	r0, [sp, #143]
	b	.LBB1_60
.LBB1_60:
	.loc	10 871 1 is_stmt 1              @ lvgl/src/lv_widgets/lv_img.c:871:1
	ldrb.w	r0, [sp, #143]
	add	sp, #144
	pop	{r7, pc}
.Ltmp73:
.Lfunc_end1:
	.size	lv_img_signal, .Lfunc_end1-lv_img_signal
	.cfi_endproc
	.cantunwind
	.fnend
                                        @ -- End function
	.section	.text.lv_img_design,"ax",%progbits
	.p2align	3                               @ -- Begin function lv_img_design
	.type	lv_img_design,%function
	.code	16                              @ @lv_img_design
	.thumb_func
lv_img_design:
.Lfunc_begin2:
	.loc	10 572 0                        @ lvgl/src/lv_widgets/lv_img.c:572:0
	.fnstart
	.cfi_startproc
@ %bb.0:
	.save	{r7, lr}
	push	{r7, lr}
	.cfi_def_cfa_offset 8
	.cfi_offset lr, -4
	.cfi_offset r7, -8
	.pad	#456
	sub	sp, #456
	.cfi_def_cfa_offset 464
                                        @ kill: def $r3 killed $r2
	str	r0, [sp, #448]
	str	r1, [sp, #444]
	strb.w	r2, [sp, #443]
.Ltmp74:
	.loc	10 573 52 prologue_end          @ lvgl/src/lv_widgets/lv_img.c:573:52
	ldr	r0, [sp, #448]
	.loc	10 573 32 is_stmt 0             @ lvgl/src/lv_widgets/lv_img.c:573:32
	bl	lv_obj_get_ext_attr
	.loc	10 573 20                       @ lvgl/src/lv_widgets/lv_img.c:573:20
	str	r0, [sp, #436]
.Ltmp75:
	.loc	10 575 8 is_stmt 1              @ lvgl/src/lv_widgets/lv_img.c:575:8
	ldrb.w	r0, [sp, #443]
.Ltmp76:
	.loc	10 575 8 is_stmt 0              @ lvgl/src/lv_widgets/lv_img.c:575:8
	cmp	r0, #2
	bne.w	.LBB2_25
	b	.LBB2_1
.LBB2_1:
.Ltmp77:
	.loc	10 576 41 is_stmt 1             @ lvgl/src/lv_widgets/lv_img.c:576:41
	ldr	r0, [sp, #448]
	movs	r1, #0
	.loc	10 576 12 is_stmt 0             @ lvgl/src/lv_widgets/lv_img.c:576:12
	bl	lv_obj_get_style_clip_corner
.Ltmp78:
	.loc	10 576 12                       @ lvgl/src/lv_widgets/lv_img.c:576:12
	cbz	r0, .LBB2_3
	b	.LBB2_2
.LBB2_2:
	.loc	10 0 12                         @ lvgl/src/lv_widgets/lv_img.c:0:12
	movs	r0, #3
.Ltmp79:
	.loc	10 576 65                       @ lvgl/src/lv_widgets/lv_img.c:576:65
	strb.w	r0, [sp, #455]
	b	.LBB2_72
.Ltmp80:
.LBB2_3:
	.loc	10 578 12 is_stmt 1             @ lvgl/src/lv_widgets/lv_img.c:578:12
	ldr	r0, [sp, #436]
	.loc	10 578 17 is_stmt 0             @ lvgl/src/lv_widgets/lv_img.c:578:17
	ldrb	r0, [r0, #20]
	and	r0, r0, #3
	.loc	10 578 48                       @ lvgl/src/lv_widgets/lv_img.c:578:48
	cmp	r0, #3
	beq	.LBB2_5
	b	.LBB2_4
.LBB2_4:
	.loc	10 578 51                       @ lvgl/src/lv_widgets/lv_img.c:578:51
	ldr	r0, [sp, #436]
	.loc	10 578 56                       @ lvgl/src/lv_widgets/lv_img.c:578:56
	ldrb	r0, [r0, #20]
	and	r0, r0, #3
.Ltmp81:
	.loc	10 578 12                       @ lvgl/src/lv_widgets/lv_img.c:578:12
	cmp	r0, #2
	bne	.LBB2_6
	b	.LBB2_5
.LBB2_5:
	.loc	10 0 12                         @ lvgl/src/lv_widgets/lv_img.c:0:12
	movs	r0, #2
.Ltmp82:
	.loc	10 578 87                       @ lvgl/src/lv_widgets/lv_img.c:578:87
	strb.w	r0, [sp, #455]
	b	.LBB2_72
.Ltmp83:
.LBB2_6:
	.loc	10 581 12 is_stmt 1             @ lvgl/src/lv_widgets/lv_img.c:581:12
	ldr	r0, [sp, #436]
	.loc	10 581 17 is_stmt 0             @ lvgl/src/lv_widgets/lv_img.c:581:17
	ldrb	r1, [r0, #20]
	movs	r0, #4
	.loc	10 581 44                       @ lvgl/src/lv_widgets/lv_img.c:581:44
	cmp.w	r0, r1, lsr #3
	beq	.LBB2_9
	b	.LBB2_7
.LBB2_7:
	.loc	10 581 47                       @ lvgl/src/lv_widgets/lv_img.c:581:47
	ldr	r0, [sp, #436]
	.loc	10 581 52                       @ lvgl/src/lv_widgets/lv_img.c:581:52
	ldrb	r1, [r0, #20]
	movs	r0, #1
.Ltmp84:
	.loc	10 581 12                       @ lvgl/src/lv_widgets/lv_img.c:581:12
	cmp.w	r0, r1, lsr #3
	beq	.LBB2_9
	b	.LBB2_8
.LBB2_8:
	.loc	10 0 12                         @ lvgl/src/lv_widgets/lv_img.c:0:12
	movs	r0, #2
.Ltmp85:
	.loc	10 581 73                       @ lvgl/src/lv_widgets/lv_img.c:581:73
	strb.w	r0, [sp, #455]
	b	.LBB2_72
.Ltmp86:
.LBB2_9:
	.loc	10 584 39 is_stmt 1             @ lvgl/src/lv_widgets/lv_img.c:584:39
	ldr	r0, [sp, #448]
	movs	r1, #0
	.loc	10 584 12 is_stmt 0             @ lvgl/src/lv_widgets/lv_img.c:584:12
	bl	lv_obj_get_style_image_opa
.Ltmp87:
	.loc	10 584 12                       @ lvgl/src/lv_widgets/lv_img.c:584:12
	cmp	r0, #255
	beq	.LBB2_11
	b	.LBB2_10
.LBB2_10:
	.loc	10 0 12                         @ lvgl/src/lv_widgets/lv_img.c:0:12
	movs	r0, #2
.Ltmp88:
	.loc	10 584 79                       @ lvgl/src/lv_widgets/lv_img.c:584:79
	strb.w	r0, [sp, #455]
	b	.LBB2_72
.Ltmp89:
.LBB2_11:
	.loc	10 586 64 is_stmt 1             @ lvgl/src/lv_widgets/lv_img.c:586:64
	ldr	r0, [sp, #448]
	movs	r1, #0
	.loc	10 586 31 is_stmt 0             @ lvgl/src/lv_widgets/lv_img.c:586:31
	bl	lv_obj_get_style_transform_angle
	.loc	10 586 17                       @ lvgl/src/lv_widgets/lv_img.c:586:17
	str	r0, [sp, #432]
	.loc	10 587 24 is_stmt 1             @ lvgl/src/lv_widgets/lv_img.c:587:24
	ldr	r0, [sp, #436]
	.loc	10 587 29 is_stmt 0             @ lvgl/src/lv_widgets/lv_img.c:587:29
	ldrh	r1, [r0, #12]
	.loc	10 587 21                       @ lvgl/src/lv_widgets/lv_img.c:587:21
	ldr	r0, [sp, #432]
	add	r0, r1
	str	r0, [sp, #432]
.Ltmp90:
	.loc	10 589 12 is_stmt 1             @ lvgl/src/lv_widgets/lv_img.c:589:12
	ldr	r0, [sp, #432]
.Ltmp91:
	.loc	10 589 12 is_stmt 0             @ lvgl/src/lv_widgets/lv_img.c:589:12
	cbz	r0, .LBB2_13
	b	.LBB2_12
.LBB2_12:
	.loc	10 0 12                         @ lvgl/src/lv_widgets/lv_img.c:0:12
	movs	r0, #2
.Ltmp92:
	.loc	10 589 30                       @ lvgl/src/lv_widgets/lv_img.c:589:30
	strb.w	r0, [sp, #455]
	b	.LBB2_72
.Ltmp93:
.LBB2_13:
	.loc	10 591 62 is_stmt 1             @ lvgl/src/lv_widgets/lv_img.c:591:62
	ldr	r0, [sp, #448]
	movs	r1, #0
	.loc	10 591 30 is_stmt 0             @ lvgl/src/lv_widgets/lv_img.c:591:30
	bl	lv_obj_get_style_transform_zoom
	.loc	10 591 17                       @ lvgl/src/lv_widgets/lv_img.c:591:17
	str	r0, [sp, #428]
	.loc	10 592 23 is_stmt 1             @ lvgl/src/lv_widgets/lv_img.c:592:23
	ldr	r0, [sp, #428]
	.loc	10 592 36 is_stmt 0             @ lvgl/src/lv_widgets/lv_img.c:592:36
	ldr	r1, [sp, #436]
	.loc	10 592 41                       @ lvgl/src/lv_widgets/lv_img.c:592:41
	ldrh	r1, [r1, #18]
	.loc	10 592 34                       @ lvgl/src/lv_widgets/lv_img.c:592:34
	muls	r0, r1, r0
	.loc	10 592 47                       @ lvgl/src/lv_widgets/lv_img.c:592:47
	asrs	r0, r0, #8
	.loc	10 592 20                       @ lvgl/src/lv_widgets/lv_img.c:592:20
	str	r0, [sp, #428]
.Ltmp94:
	.loc	10 594 12 is_stmt 1             @ lvgl/src/lv_widgets/lv_img.c:594:12
	ldr	r0, [sp, #428]
.Ltmp95:
	.loc	10 594 12 is_stmt 0             @ lvgl/src/lv_widgets/lv_img.c:594:12
	cmp.w	r0, #256
	bne	.LBB2_17
	b	.LBB2_14
.LBB2_14:
.Ltmp96:
	.loc	10 595 31 is_stmt 1             @ lvgl/src/lv_widgets/lv_img.c:595:31
	ldr	r0, [sp, #444]
	.loc	10 595 43 is_stmt 0             @ lvgl/src/lv_widgets/lv_img.c:595:43
	ldr	r1, [sp, #448]
	.loc	10 595 48                       @ lvgl/src/lv_widgets/lv_img.c:595:48
	adds	r1, #16
	movs	r2, #0
	.loc	10 595 16                       @ lvgl/src/lv_widgets/lv_img.c:595:16
	bl	_lv_area_is_in
.Ltmp97:
	.loc	10 595 16                       @ lvgl/src/lv_widgets/lv_img.c:595:16
	cbnz	r0, .LBB2_16
	b	.LBB2_15
.LBB2_15:
	.loc	10 0 16                         @ lvgl/src/lv_widgets/lv_img.c:0:16
	movs	r0, #2
.Ltmp98:
	.loc	10 595 69                       @ lvgl/src/lv_widgets/lv_img.c:595:69
	strb.w	r0, [sp, #455]
	b	.LBB2_72
.Ltmp99:
.LBB2_16:
	.loc	10 596 9 is_stmt 1              @ lvgl/src/lv_widgets/lv_img.c:596:9
	b	.LBB2_20
.Ltmp100:
.LBB2_17:
	.loc	10 599 67                       @ lvgl/src/lv_widgets/lv_img.c:599:67
	ldr	r0, [sp, #448]
	.loc	10 599 50 is_stmt 0             @ lvgl/src/lv_widgets/lv_img.c:599:50
	bl	lv_obj_get_width
	.loc	10 599 91                       @ lvgl/src/lv_widgets/lv_img.c:599:91
	str	r0, [sp, #60]                   @ 4-byte Spill
	ldr	r0, [sp, #448]
	.loc	10 599 73                       @ lvgl/src/lv_widgets/lv_img.c:599:73
	bl	lv_obj_get_height
	ldr	r1, [sp, #60]                   @ 4-byte Reload
	mov	r2, r0
	.loc	10 599 100                      @ lvgl/src/lv_widgets/lv_img.c:599:100
	ldrh.w	r0, [sp, #428]
	.loc	10 599 113                      @ lvgl/src/lv_widgets/lv_img.c:599:113
	ldr	r3, [sp, #436]
	.loc	10 599 118                      @ lvgl/src/lv_widgets/lv_img.c:599:118
	add.w	r12, r3, #14
	.loc	10 599 13                       @ lvgl/src/lv_widgets/lv_img.c:599:13
	mov	r3, sp
	str.w	r12, [r3, #4]
	str	r0, [r3]
	add	r0, sp, #420
	str	r0, [sp, #64]                   @ 4-byte Spill
	movs	r3, #0
	str	r3, [sp, #68]                   @ 4-byte Spill
	bl	_lv_img_buf_get_transformed_area
	ldr	r1, [sp, #64]                   @ 4-byte Reload
	ldr	r2, [sp, #68]                   @ 4-byte Reload
	.loc	10 600 21 is_stmt 1             @ lvgl/src/lv_widgets/lv_img.c:600:21
	ldr	r0, [sp, #448]
	ldrh	r3, [r0, #16]
	.loc	10 600 18 is_stmt 0             @ lvgl/src/lv_widgets/lv_img.c:600:18
	ldrh.w	r0, [sp, #420]
	add	r0, r3
	strh.w	r0, [sp, #420]
	.loc	10 601 21 is_stmt 1             @ lvgl/src/lv_widgets/lv_img.c:601:21
	ldr	r0, [sp, #448]
	ldrh	r3, [r0, #18]
	.loc	10 601 18 is_stmt 0             @ lvgl/src/lv_widgets/lv_img.c:601:18
	ldrh.w	r0, [sp, #422]
	add	r0, r3
	strh.w	r0, [sp, #422]
	.loc	10 602 21 is_stmt 1             @ lvgl/src/lv_widgets/lv_img.c:602:21
	ldr	r0, [sp, #448]
	ldrh	r3, [r0, #16]
	.loc	10 602 18 is_stmt 0             @ lvgl/src/lv_widgets/lv_img.c:602:18
	ldrh.w	r0, [sp, #424]
	add	r0, r3
	strh.w	r0, [sp, #424]
	.loc	10 603 21 is_stmt 1             @ lvgl/src/lv_widgets/lv_img.c:603:21
	ldr	r0, [sp, #448]
	ldrh	r3, [r0, #18]
	.loc	10 603 18 is_stmt 0             @ lvgl/src/lv_widgets/lv_img.c:603:18
	ldrh.w	r0, [sp, #426]
	add	r0, r3
	strh.w	r0, [sp, #426]
.Ltmp101:
	.loc	10 605 31 is_stmt 1             @ lvgl/src/lv_widgets/lv_img.c:605:31
	ldr	r0, [sp, #444]
	.loc	10 605 16 is_stmt 0             @ lvgl/src/lv_widgets/lv_img.c:605:16
	bl	_lv_area_is_in
.Ltmp102:
	.loc	10 605 16                       @ lvgl/src/lv_widgets/lv_img.c:605:16
	cbnz	r0, .LBB2_19
	b	.LBB2_18
.LBB2_18:
	.loc	10 0 16                         @ lvgl/src/lv_widgets/lv_img.c:0:16
	movs	r0, #2
.Ltmp103:
	.loc	10 605 59                       @ lvgl/src/lv_widgets/lv_img.c:605:59
	strb.w	r0, [sp, #455]
	b	.LBB2_72
.Ltmp104:
.LBB2_19:
	.loc	10 0 59                         @ lvgl/src/lv_widgets/lv_img.c:0:59
	b	.LBB2_20
.LBB2_20:
.Ltmp105:
	.loc	10 609 43 is_stmt 1             @ lvgl/src/lv_widgets/lv_img.c:609:43
	ldr	r0, [sp, #448]
	movs	r1, #0
	.loc	10 609 12 is_stmt 0             @ lvgl/src/lv_widgets/lv_img.c:609:12
	bl	lv_obj_get_style_bg_blend_mode
.Ltmp106:
	.loc	10 609 12                       @ lvgl/src/lv_widgets/lv_img.c:609:12
	cbz	r0, .LBB2_22
	b	.LBB2_21
.LBB2_21:
	.loc	10 0 12                         @ lvgl/src/lv_widgets/lv_img.c:0:12
	movs	r0, #2
.Ltmp107:
	.loc	10 609 91                       @ lvgl/src/lv_widgets/lv_img.c:609:91
	strb.w	r0, [sp, #455]
	b	.LBB2_72
.Ltmp108:
.LBB2_22:
	.loc	10 610 46 is_stmt 1             @ lvgl/src/lv_widgets/lv_img.c:610:46
	ldr	r0, [sp, #448]
	movs	r1, #0
	.loc	10 610 12 is_stmt 0             @ lvgl/src/lv_widgets/lv_img.c:610:12
	bl	lv_obj_get_style_image_blend_mode
.Ltmp109:
	.loc	10 610 12                       @ lvgl/src/lv_widgets/lv_img.c:610:12
	cbz	r0, .LBB2_24
	b	.LBB2_23
.LBB2_23:
	.loc	10 0 12                         @ lvgl/src/lv_widgets/lv_img.c:0:12
	movs	r0, #2
.Ltmp110:
	.loc	10 610 94                       @ lvgl/src/lv_widgets/lv_img.c:610:94
	strb.w	r0, [sp, #455]
	b	.LBB2_72
.Ltmp111:
.LBB2_24:
	.loc	10 0 94                         @ lvgl/src/lv_widgets/lv_img.c:0:94
	movs	r0, #1
	.loc	10 613 9 is_stmt 1              @ lvgl/src/lv_widgets/lv_img.c:613:9
	strb.w	r0, [sp, #455]
	b	.LBB2_72
.Ltmp112:
.LBB2_25:
	.loc	10 615 13                       @ lvgl/src/lv_widgets/lv_img.c:615:13
	ldrb.w	r0, [sp, #443]
.Ltmp113:
	.loc	10 615 13 is_stmt 0             @ lvgl/src/lv_widgets/lv_img.c:615:13
	cmp	r0, #0
	bne.w	.LBB2_63
	b	.LBB2_26
.LBB2_26:
.Ltmp114:
	.loc	10 616 12 is_stmt 1             @ lvgl/src/lv_widgets/lv_img.c:616:12
	ldr	r0, [sp, #436]
	.loc	10 616 17 is_stmt 0             @ lvgl/src/lv_widgets/lv_img.c:616:17
	ldrsh.w	r0, [r0, #10]
	.loc	10 616 24                       @ lvgl/src/lv_widgets/lv_img.c:616:24
	cbz	r0, .LBB2_28
	b	.LBB2_27
.LBB2_27:
	.loc	10 616 27                       @ lvgl/src/lv_widgets/lv_img.c:616:27
	ldr	r0, [sp, #436]
	.loc	10 616 32                       @ lvgl/src/lv_widgets/lv_img.c:616:32
	ldrsh.w	r0, [r0, #8]
.Ltmp115:
	.loc	10 616 12                       @ lvgl/src/lv_widgets/lv_img.c:616:12
	cbnz	r0, .LBB2_29
	b	.LBB2_28
.LBB2_28:
	.loc	10 0 12                         @ lvgl/src/lv_widgets/lv_img.c:0:12
	movs	r0, #1
.Ltmp116:
	.loc	10 616 40                       @ lvgl/src/lv_widgets/lv_img.c:616:40
	strb.w	r0, [sp, #455]
	b	.LBB2_72
.Ltmp117:
.LBB2_29:
	.loc	10 0 40                         @ lvgl/src/lv_widgets/lv_img.c:0:40
	add	r0, sp, #316
	.loc	10 619 9 is_stmt 1              @ lvgl/src/lv_widgets/lv_img.c:619:9
	str	r0, [sp, #52]                   @ 4-byte Spill
	bl	lv_draw_rect_dsc_init
	ldr	r2, [sp, #52]                   @ 4-byte Reload
	.loc	10 620 35                       @ lvgl/src/lv_widgets/lv_img.c:620:35
	ldr	r0, [sp, #448]
	movs	r1, #0
	.loc	10 620 9 is_stmt 0              @ lvgl/src/lv_widgets/lv_img.c:620:9
	str	r1, [sp, #56]                   @ 4-byte Spill
	bl	lv_obj_init_draw_rect_dsc
	ldr	r1, [sp, #56]                   @ 4-byte Reload
.Ltmp118:
	.loc	10 623 41 is_stmt 1             @ lvgl/src/lv_widgets/lv_img.c:623:41
	ldr	r0, [sp, #448]
	.loc	10 623 12 is_stmt 0             @ lvgl/src/lv_widgets/lv_img.c:623:12
	bl	lv_obj_get_style_border_post
.Ltmp119:
	.loc	10 623 12                       @ lvgl/src/lv_widgets/lv_img.c:623:12
	cbz	r0, .LBB2_31
	b	.LBB2_30
.LBB2_30:
	.loc	10 0 12                         @ lvgl/src/lv_widgets/lv_img.c:0:12
	movs	r0, #0
.Ltmp120:
	.loc	10 624 31 is_stmt 1             @ lvgl/src/lv_widgets/lv_img.c:624:31
	strb.w	r0, [sp, #344]
	.loc	10 625 9                        @ lvgl/src/lv_widgets/lv_img.c:625:9
	b	.LBB2_31
.Ltmp121:
.LBB2_31:
	.loc	10 627 62                       @ lvgl/src/lv_widgets/lv_img.c:627:62
	ldr	r0, [sp, #448]
	movs	r1, #0
	.loc	10 627 30 is_stmt 0             @ lvgl/src/lv_widgets/lv_img.c:627:30
	str	r1, [sp, #44]                   @ 4-byte Spill
	bl	lv_obj_get_style_transform_zoom
	ldr	r1, [sp, #44]                   @ 4-byte Reload
	.loc	10 627 17                       @ lvgl/src/lv_widgets/lv_img.c:627:17
	str	r0, [sp, #312]
	.loc	10 628 23 is_stmt 1             @ lvgl/src/lv_widgets/lv_img.c:628:23
	ldr	r0, [sp, #312]
	.loc	10 628 36 is_stmt 0             @ lvgl/src/lv_widgets/lv_img.c:628:36
	ldr	r2, [sp, #436]
	.loc	10 628 41                       @ lvgl/src/lv_widgets/lv_img.c:628:41
	ldrh	r2, [r2, #18]
	.loc	10 628 34                       @ lvgl/src/lv_widgets/lv_img.c:628:34
	muls	r0, r2, r0
	.loc	10 628 47                       @ lvgl/src/lv_widgets/lv_img.c:628:47
	asrs	r0, r0, #8
	.loc	10 628 20                       @ lvgl/src/lv_widgets/lv_img.c:628:20
	str	r0, [sp, #312]
	.loc	10 630 64 is_stmt 1             @ lvgl/src/lv_widgets/lv_img.c:630:64
	ldr	r0, [sp, #448]
	.loc	10 630 31 is_stmt 0             @ lvgl/src/lv_widgets/lv_img.c:630:31
	bl	lv_obj_get_style_transform_angle
	.loc	10 630 17                       @ lvgl/src/lv_widgets/lv_img.c:630:17
	str	r0, [sp, #308]
	.loc	10 631 24 is_stmt 1             @ lvgl/src/lv_widgets/lv_img.c:631:24
	ldr	r0, [sp, #436]
	.loc	10 631 29 is_stmt 0             @ lvgl/src/lv_widgets/lv_img.c:631:29
	ldrh	r1, [r0, #12]
	.loc	10 631 21                       @ lvgl/src/lv_widgets/lv_img.c:631:21
	ldr	r0, [sp, #308]
	add	r0, r1
	str	r0, [sp, #308]
	.loc	10 633 45 is_stmt 1             @ lvgl/src/lv_widgets/lv_img.c:633:45
	ldr	r0, [sp, #448]
	.loc	10 633 28 is_stmt 0             @ lvgl/src/lv_widgets/lv_img.c:633:28
	bl	lv_obj_get_width
	.loc	10 633 20                       @ lvgl/src/lv_widgets/lv_img.c:633:20
	strh.w	r0, [sp, #306]
	.loc	10 634 46 is_stmt 1             @ lvgl/src/lv_widgets/lv_img.c:634:46
	ldr	r0, [sp, #448]
	.loc	10 634 28 is_stmt 0             @ lvgl/src/lv_widgets/lv_img.c:634:28
	bl	lv_obj_get_height
	.loc	10 634 20                       @ lvgl/src/lv_widgets/lv_img.c:634:20
	strh.w	r0, [sp, #304]
	.loc	10 637 54 is_stmt 1             @ lvgl/src/lv_widgets/lv_img.c:637:54
	ldrsh.w	r1, [sp, #306]
	.loc	10 637 61 is_stmt 0             @ lvgl/src/lv_widgets/lv_img.c:637:61
	ldrsh.w	r2, [sp, #304]
	.loc	10 638 42 is_stmt 1             @ lvgl/src/lv_widgets/lv_img.c:638:42
	ldrsh.w	r3, [sp, #308]
	.loc	10 638 55 is_stmt 0             @ lvgl/src/lv_widgets/lv_img.c:638:55
	ldrh.w	r0, [sp, #312]
	.loc	10 638 68                       @ lvgl/src/lv_widgets/lv_img.c:638:68
	ldr.w	r12, [sp, #436]
	.loc	10 638 73                       @ lvgl/src/lv_widgets/lv_img.c:638:73
	add.w	lr, r12, #14
	.loc	10 637 9 is_stmt 1              @ lvgl/src/lv_widgets/lv_img.c:637:9
	mov	r12, sp
	str.w	lr, [r12, #4]
	str.w	r0, [r12]
	add	r0, sp, #296
	str	r0, [sp, #48]                   @ 4-byte Spill
	bl	_lv_img_buf_get_transformed_area
	ldr	r1, [sp, #44]                   @ 4-byte Reload
	.loc	10 639 25                       @ lvgl/src/lv_widgets/lv_img.c:639:25
	ldr	r0, [sp, #448]
	ldrh	r2, [r0, #16]
	.loc	10 639 22 is_stmt 0             @ lvgl/src/lv_widgets/lv_img.c:639:22
	ldrh.w	r0, [sp, #296]
	add	r0, r2
	strh.w	r0, [sp, #296]
	.loc	10 640 25 is_stmt 1             @ lvgl/src/lv_widgets/lv_img.c:640:25
	ldr	r0, [sp, #448]
	ldrh	r2, [r0, #18]
	.loc	10 640 22 is_stmt 0             @ lvgl/src/lv_widgets/lv_img.c:640:22
	ldrh.w	r0, [sp, #298]
	add	r0, r2
	strh.w	r0, [sp, #298]
	.loc	10 641 25 is_stmt 1             @ lvgl/src/lv_widgets/lv_img.c:641:25
	ldr	r0, [sp, #448]
	ldrh	r2, [r0, #16]
	.loc	10 641 22 is_stmt 0             @ lvgl/src/lv_widgets/lv_img.c:641:22
	ldrh.w	r0, [sp, #300]
	add	r0, r2
	strh.w	r0, [sp, #300]
	.loc	10 642 25 is_stmt 1             @ lvgl/src/lv_widgets/lv_img.c:642:25
	ldr	r0, [sp, #448]
	ldrh	r2, [r0, #18]
	.loc	10 642 22 is_stmt 0             @ lvgl/src/lv_widgets/lv_img.c:642:22
	ldrh.w	r0, [sp, #302]
	add	r0, r2
	strh.w	r0, [sp, #302]
	.loc	10 643 51 is_stmt 1             @ lvgl/src/lv_widgets/lv_img.c:643:51
	ldr	r0, [sp, #448]
	.loc	10 643 25 is_stmt 0             @ lvgl/src/lv_widgets/lv_img.c:643:25
	bl	lv_obj_get_style_pad_left
	ldr	r1, [sp, #44]                   @ 4-byte Reload
	mov	r2, r0
	.loc	10 643 22                       @ lvgl/src/lv_widgets/lv_img.c:643:22
	ldrh.w	r0, [sp, #296]
	subs	r0, r0, r2
	strh.w	r0, [sp, #296]
	.loc	10 644 52 is_stmt 1             @ lvgl/src/lv_widgets/lv_img.c:644:52
	ldr	r0, [sp, #448]
	.loc	10 644 25 is_stmt 0             @ lvgl/src/lv_widgets/lv_img.c:644:25
	bl	lv_obj_get_style_pad_right
	ldr	r1, [sp, #44]                   @ 4-byte Reload
	mov	r2, r0
	.loc	10 644 22                       @ lvgl/src/lv_widgets/lv_img.c:644:22
	ldrh.w	r0, [sp, #300]
	add	r0, r2
	strh.w	r0, [sp, #300]
	.loc	10 645 50 is_stmt 1             @ lvgl/src/lv_widgets/lv_img.c:645:50
	ldr	r0, [sp, #448]
	.loc	10 645 25 is_stmt 0             @ lvgl/src/lv_widgets/lv_img.c:645:25
	bl	lv_obj_get_style_pad_top
	ldr	r1, [sp, #44]                   @ 4-byte Reload
	mov	r2, r0
	.loc	10 645 22                       @ lvgl/src/lv_widgets/lv_img.c:645:22
	ldrh.w	r0, [sp, #298]
	subs	r0, r0, r2
	strh.w	r0, [sp, #298]
	.loc	10 646 53 is_stmt 1             @ lvgl/src/lv_widgets/lv_img.c:646:53
	ldr	r0, [sp, #448]
	.loc	10 646 25 is_stmt 0             @ lvgl/src/lv_widgets/lv_img.c:646:25
	bl	lv_obj_get_style_pad_bottom
	mov	r2, r0
	.loc	10 646 22                       @ lvgl/src/lv_widgets/lv_img.c:646:22
	ldr	r0, [sp, #48]                   @ 4-byte Reload
	ldrh.w	r1, [sp, #302]
	add	r1, r2
	strh.w	r1, [sp, #302]
	.loc	10 648 34 is_stmt 1             @ lvgl/src/lv_widgets/lv_img.c:648:34
	ldr	r1, [sp, #444]
	add	r2, sp, #316
	.loc	10 648 9 is_stmt 0              @ lvgl/src/lv_widgets/lv_img.c:648:9
	bl	lv_draw_rect
.Ltmp122:
	.loc	10 650 12 is_stmt 1             @ lvgl/src/lv_widgets/lv_img.c:650:12
	ldr	r0, [sp, #312]
.Ltmp123:
	.loc	10 650 12 is_stmt 0             @ lvgl/src/lv_widgets/lv_img.c:650:12
	cbnz	r0, .LBB2_33
	b	.LBB2_32
.LBB2_32:
	.loc	10 0 12                         @ lvgl/src/lv_widgets/lv_img.c:0:12
	movs	r0, #0
.Ltmp124:
	.loc	10 650 29                       @ lvgl/src/lv_widgets/lv_img.c:650:29
	strb.w	r0, [sp, #455]
	b	.LBB2_72
.Ltmp125:
.LBB2_33:
	.loc	10 652 41 is_stmt 1             @ lvgl/src/lv_widgets/lv_img.c:652:41
	ldr	r0, [sp, #448]
	movs	r1, #0
	.loc	10 652 12 is_stmt 0             @ lvgl/src/lv_widgets/lv_img.c:652:12
	bl	lv_obj_get_style_clip_corner
.Ltmp126:
	.loc	10 652 12                       @ lvgl/src/lv_widgets/lv_img.c:652:12
	cbz	r0, .LBB2_35
	b	.LBB2_34
.LBB2_34:
	.loc	10 0 12                         @ lvgl/src/lv_widgets/lv_img.c:0:12
	movs	r0, #28
.Ltmp127:
	.loc	10 653 48 is_stmt 1             @ lvgl/src/lv_widgets/lv_img.c:653:48
	bl	_lv_mem_buf_get
	.loc	10 653 43 is_stmt 0             @ lvgl/src/lv_widgets/lv_img.c:653:43
	str	r0, [sp, #292]
	.loc	10 655 52 is_stmt 1             @ lvgl/src/lv_widgets/lv_img.c:655:52
	ldr	r0, [sp, #448]
	movs	r1, #0
	.loc	10 655 28 is_stmt 0             @ lvgl/src/lv_widgets/lv_img.c:655:28
	str	r1, [sp, #40]                   @ 4-byte Spill
	bl	lv_obj_get_style_radius
	ldr	r3, [sp, #40]                   @ 4-byte Reload
	.loc	10 655 24                       @ lvgl/src/lv_widgets/lv_img.c:655:24
	strh.w	r0, [sp, #290]
	.loc	10 657 38 is_stmt 1             @ lvgl/src/lv_widgets/lv_img.c:657:38
	ldr	r0, [sp, #292]
	.loc	10 657 54 is_stmt 0             @ lvgl/src/lv_widgets/lv_img.c:657:54
	ldrsh.w	r2, [sp, #290]
	add	r1, sp, #296
	.loc	10 657 13                       @ lvgl/src/lv_widgets/lv_img.c:657:13
	bl	lv_draw_mask_radius_init
	.loc	10 659 30 is_stmt 1             @ lvgl/src/lv_widgets/lv_img.c:659:30
	ldr	r0, [sp, #292]
	.loc	10 659 34 is_stmt 0             @ lvgl/src/lv_widgets/lv_img.c:659:34
	ldr	r1, [sp, #448]
	.loc	10 659 38                       @ lvgl/src/lv_widgets/lv_img.c:659:38
	add.w	r1, r1, #608
	.loc	10 659 13                       @ lvgl/src/lv_widgets/lv_img.c:659:13
	bl	lv_draw_mask_add
	.loc	10 660 9 is_stmt 1              @ lvgl/src/lv_widgets/lv_img.c:660:9
	b	.LBB2_35
.Ltmp128:
.LBB2_35:
	.loc	10 662 12                       @ lvgl/src/lv_widgets/lv_img.c:662:12
	ldr	r0, [sp, #436]
	.loc	10 662 17 is_stmt 0             @ lvgl/src/lv_widgets/lv_img.c:662:17
	ldrb	r0, [r0, #20]
	and	r0, r0, #3
	.loc	10 662 45                       @ lvgl/src/lv_widgets/lv_img.c:662:45
	cmp	r0, #1
	beq	.LBB2_37
	b	.LBB2_36
.LBB2_36:
	.loc	10 662 48                       @ lvgl/src/lv_widgets/lv_img.c:662:48
	ldr	r0, [sp, #436]
	.loc	10 662 53                       @ lvgl/src/lv_widgets/lv_img.c:662:53
	ldrb	r0, [r0, #20]
.Ltmp129:
	.loc	10 662 12                       @ lvgl/src/lv_widgets/lv_img.c:662:12
	lsls	r0, r0, #30
	cmp	r0, #0
	bne.w	.LBB2_58
	b	.LBB2_37
.LBB2_37:
	.loc	10 0 12                         @ lvgl/src/lv_widgets/lv_img.c:0:12
	add	r0, sp, #268
.Ltmp130:
	.loc	10 666 13 is_stmt 1             @ lvgl/src/lv_widgets/lv_img.c:666:13
	str	r0, [sp, #36]                   @ 4-byte Spill
	bl	lv_draw_img_dsc_init
	ldr	r2, [sp, #36]                   @ 4-byte Reload
	.loc	10 667 38                       @ lvgl/src/lv_widgets/lv_img.c:667:38
	ldr	r0, [sp, #448]
	movs	r1, #0
	.loc	10 667 13 is_stmt 0             @ lvgl/src/lv_widgets/lv_img.c:667:13
	bl	lv_obj_init_draw_img_dsc
	.loc	10 669 28 is_stmt 1             @ lvgl/src/lv_widgets/lv_img.c:669:28
	ldr	r0, [sp, #312]
	.loc	10 669 26 is_stmt 0             @ lvgl/src/lv_widgets/lv_img.c:669:26
	strh.w	r0, [sp, #276]
.Ltmp131:
	.loc	10 671 24 is_stmt 1             @ lvgl/src/lv_widgets/lv_img.c:671:24
	ldrh.w	r0, [sp, #276]
.Ltmp132:
	.loc	10 671 16 is_stmt 0             @ lvgl/src/lv_widgets/lv_img.c:671:16
	cbnz	r0, .LBB2_39
	b	.LBB2_38
.LBB2_38:
	.loc	10 0 16                         @ lvgl/src/lv_widgets/lv_img.c:0:16
	movs	r0, #0
.Ltmp133:
	.loc	10 671 35                       @ lvgl/src/lv_widgets/lv_img.c:671:35
	strb.w	r0, [sp, #455]
	b	.LBB2_72
.Ltmp134:
.LBB2_39:
	.loc	10 673 29 is_stmt 1             @ lvgl/src/lv_widgets/lv_img.c:673:29
	ldr	r0, [sp, #308]
	.loc	10 673 27 is_stmt 0             @ lvgl/src/lv_widgets/lv_img.c:673:27
	strh.w	r0, [sp, #270]
	.loc	10 675 31 is_stmt 1             @ lvgl/src/lv_widgets/lv_img.c:675:31
	ldr	r0, [sp, #436]
	.loc	10 675 42 is_stmt 0             @ lvgl/src/lv_widgets/lv_img.c:675:42
	ldrh	r0, [r0, #14]
	.loc	10 675 29                       @ lvgl/src/lv_widgets/lv_img.c:675:29
	strh.w	r0, [sp, #272]
	.loc	10 676 31 is_stmt 1             @ lvgl/src/lv_widgets/lv_img.c:676:31
	ldr	r0, [sp, #436]
	.loc	10 676 42 is_stmt 0             @ lvgl/src/lv_widgets/lv_img.c:676:42
	ldrh	r0, [r0, #16]
	.loc	10 676 29                       @ lvgl/src/lv_widgets/lv_img.c:676:29
	strh.w	r0, [sp, #274]
	.loc	10 677 33 is_stmt 1             @ lvgl/src/lv_widgets/lv_img.c:677:33
	ldr	r0, [sp, #436]
	.loc	10 677 38 is_stmt 0             @ lvgl/src/lv_widgets/lv_img.c:677:38
	ldrb	r0, [r0, #21]
	and	r1, r0, #1
	.loc	10 677 31                       @ lvgl/src/lv_widgets/lv_img.c:677:31
	ldrb.w	r0, [sp, #285]
	and	r0, r0, #254
	add	r0, r1
	strb.w	r0, [sp, #285]
	.loc	10 679 58 is_stmt 1             @ lvgl/src/lv_widgets/lv_img.c:679:58
	ldr	r0, [sp, #436]
	.loc	10 679 63 is_stmt 0             @ lvgl/src/lv_widgets/lv_img.c:679:63
	ldrsh.w	r0, [r0, #8]
	.loc	10 679 67                       @ lvgl/src/lv_widgets/lv_img.c:679:67
	ldr	r1, [sp, #312]
	.loc	10 679 65                       @ lvgl/src/lv_widgets/lv_img.c:679:65
	muls	r0, r1, r0
	.loc	10 679 79                       @ lvgl/src/lv_widgets/lv_img.c:679:79
	lsrs	r0, r0, #8
	.loc	10 679 24                       @ lvgl/src/lv_widgets/lv_img.c:679:24
	strh.w	r0, [sp, #266]
.Ltmp135:
	.loc	10 680 16 is_stmt 1             @ lvgl/src/lv_widgets/lv_img.c:680:16
	ldrsh.w	r0, [sp, #266]
.Ltmp136:
	.loc	10 680 16 is_stmt 0             @ lvgl/src/lv_widgets/lv_img.c:680:16
	cmp	r0, #0
	bgt	.LBB2_41
	b	.LBB2_40
.LBB2_40:
	.loc	10 0 16                         @ lvgl/src/lv_widgets/lv_img.c:0:16
	movs	r0, #0
.Ltmp137:
	.loc	10 680 35                       @ lvgl/src/lv_widgets/lv_img.c:680:35
	strb.w	r0, [sp, #455]
	b	.LBB2_72
.Ltmp138:
.LBB2_41:
	.loc	10 681 58 is_stmt 1             @ lvgl/src/lv_widgets/lv_img.c:681:58
	ldr	r0, [sp, #436]
	.loc	10 681 63 is_stmt 0             @ lvgl/src/lv_widgets/lv_img.c:681:63
	ldrsh.w	r0, [r0, #10]
	.loc	10 681 67                       @ lvgl/src/lv_widgets/lv_img.c:681:67
	ldr	r1, [sp, #312]
	.loc	10 681 65                       @ lvgl/src/lv_widgets/lv_img.c:681:65
	muls	r0, r1, r0
	.loc	10 681 79                       @ lvgl/src/lv_widgets/lv_img.c:681:79
	lsrs	r0, r0, #8
	.loc	10 681 24                       @ lvgl/src/lv_widgets/lv_img.c:681:24
	strh.w	r0, [sp, #264]
.Ltmp139:
	.loc	10 682 16 is_stmt 1             @ lvgl/src/lv_widgets/lv_img.c:682:16
	ldrsh.w	r0, [sp, #264]
.Ltmp140:
	.loc	10 682 16 is_stmt 0             @ lvgl/src/lv_widgets/lv_img.c:682:16
	cmp	r0, #0
	bgt	.LBB2_43
	b	.LBB2_42
.LBB2_42:
	.loc	10 0 16                         @ lvgl/src/lv_widgets/lv_img.c:0:16
	movs	r0, #0
.Ltmp141:
	.loc	10 682 35                       @ lvgl/src/lv_widgets/lv_img.c:682:35
	strb.w	r0, [sp, #455]
	b	.LBB2_72
.Ltmp142:
.LBB2_43:
	.loc	10 684 31 is_stmt 1             @ lvgl/src/lv_widgets/lv_img.c:684:31
	ldr	r0, [sp, #448]
	add	r1, sp, #256
	.loc	10 684 13 is_stmt 0             @ lvgl/src/lv_widgets/lv_img.c:684:13
	bl	lv_obj_get_coords
	.loc	10 686 52 is_stmt 1             @ lvgl/src/lv_widgets/lv_img.c:686:52
	ldr	r0, [sp, #436]
	.loc	10 686 64 is_stmt 0             @ lvgl/src/lv_widgets/lv_img.c:686:64
	ldrsh.w	r0, [r0, #4]
	.loc	10 686 68                       @ lvgl/src/lv_widgets/lv_img.c:686:68
	ldr	r1, [sp, #312]
	.loc	10 686 66                       @ lvgl/src/lv_widgets/lv_img.c:686:66
	muls	r1, r0, r1
	.loc	10 686 30                       @ lvgl/src/lv_widgets/lv_img.c:686:30
	ldrh.w	r0, [sp, #256]
	add.w	r0, r0, r1, lsr #8
	strh.w	r0, [sp, #256]
	.loc	10 687 52 is_stmt 1             @ lvgl/src/lv_widgets/lv_img.c:687:52
	ldr	r0, [sp, #436]
	.loc	10 687 64 is_stmt 0             @ lvgl/src/lv_widgets/lv_img.c:687:64
	ldrsh.w	r0, [r0, #6]
	.loc	10 687 68                       @ lvgl/src/lv_widgets/lv_img.c:687:68
	ldr	r1, [sp, #312]
	.loc	10 687 66                       @ lvgl/src/lv_widgets/lv_img.c:687:66
	muls	r1, r0, r1
	.loc	10 687 30                       @ lvgl/src/lv_widgets/lv_img.c:687:30
	ldrh.w	r0, [sp, #258]
	add.w	r0, r0, r1, lsr #8
	strh.w	r0, [sp, #258]
	.loc	10 688 32 is_stmt 1             @ lvgl/src/lv_widgets/lv_img.c:688:32
	ldrh.w	r0, [sp, #256]
	.loc	10 688 72 is_stmt 0             @ lvgl/src/lv_widgets/lv_img.c:688:72
	ldrsh.w	r1, [sp, #306]
	.loc	10 688 78                       @ lvgl/src/lv_widgets/lv_img.c:688:78
	subs	r1, #1
	.loc	10 688 85                       @ lvgl/src/lv_widgets/lv_img.c:688:85
	ldr	r2, [sp, #312]
	.loc	10 688 83                       @ lvgl/src/lv_widgets/lv_img.c:688:83
	muls	r1, r2, r1
	.loc	10 688 49                       @ lvgl/src/lv_widgets/lv_img.c:688:49
	add.w	r0, r0, r1, lsr #8
	.loc	10 688 30                       @ lvgl/src/lv_widgets/lv_img.c:688:30
	strh.w	r0, [sp, #260]
	.loc	10 689 32 is_stmt 1             @ lvgl/src/lv_widgets/lv_img.c:689:32
	ldrh.w	r0, [sp, #258]
	.loc	10 689 72 is_stmt 0             @ lvgl/src/lv_widgets/lv_img.c:689:72
	ldrsh.w	r1, [sp, #304]
	.loc	10 689 78                       @ lvgl/src/lv_widgets/lv_img.c:689:78
	subs	r1, #1
	.loc	10 689 85                       @ lvgl/src/lv_widgets/lv_img.c:689:85
	ldr	r2, [sp, #312]
	.loc	10 689 83                       @ lvgl/src/lv_widgets/lv_img.c:689:83
	muls	r1, r2, r1
	.loc	10 689 49                       @ lvgl/src/lv_widgets/lv_img.c:689:49
	add.w	r0, r0, r1, lsr #8
	.loc	10 689 30                       @ lvgl/src/lv_widgets/lv_img.c:689:30
	strh.w	r0, [sp, #262]
.Ltmp143:
	.loc	10 691 30 is_stmt 1             @ lvgl/src/lv_widgets/lv_img.c:691:30
	ldrsh.w	r0, [sp, #256]
	.loc	10 691 35 is_stmt 0             @ lvgl/src/lv_widgets/lv_img.c:691:35
	ldr	r1, [sp, #448]
	.loc	10 691 47                       @ lvgl/src/lv_widgets/lv_img.c:691:47
	ldrsh.w	r1, [r1, #16]
.Ltmp144:
	.loc	10 691 16                       @ lvgl/src/lv_widgets/lv_img.c:691:16
	cmp	r0, r1
	ble	.LBB2_45
	b	.LBB2_44
.LBB2_44:
.Ltmp145:
	.loc	10 691 71                       @ lvgl/src/lv_widgets/lv_img.c:691:71
	ldr	r0, [sp, #436]
	ldrh	r1, [r0, #8]
	.loc	10 691 68                       @ lvgl/src/lv_widgets/lv_img.c:691:68
	ldrh.w	r0, [sp, #256]
	subs	r0, r0, r1
	strh.w	r0, [sp, #256]
	.loc	10 691 51                       @ lvgl/src/lv_widgets/lv_img.c:691:51
	b	.LBB2_45
.Ltmp146:
.LBB2_45:
	.loc	10 692 30 is_stmt 1             @ lvgl/src/lv_widgets/lv_img.c:692:30
	ldrsh.w	r0, [sp, #258]
	.loc	10 692 35 is_stmt 0             @ lvgl/src/lv_widgets/lv_img.c:692:35
	ldr	r1, [sp, #448]
	.loc	10 692 47                       @ lvgl/src/lv_widgets/lv_img.c:692:47
	ldrsh.w	r1, [r1, #18]
.Ltmp147:
	.loc	10 692 16                       @ lvgl/src/lv_widgets/lv_img.c:692:16
	cmp	r0, r1
	ble	.LBB2_47
	b	.LBB2_46
.LBB2_46:
.Ltmp148:
	.loc	10 692 71                       @ lvgl/src/lv_widgets/lv_img.c:692:71
	ldr	r0, [sp, #436]
	ldrh	r1, [r0, #10]
	.loc	10 692 68                       @ lvgl/src/lv_widgets/lv_img.c:692:68
	ldrh.w	r0, [sp, #258]
	subs	r0, r0, r1
	strh.w	r0, [sp, #258]
	.loc	10 692 51                       @ lvgl/src/lv_widgets/lv_img.c:692:51
	b	.LBB2_47
.Ltmp149:
.LBB2_47:
	.loc	10 695 75 is_stmt 1             @ lvgl/src/lv_widgets/lv_img.c:695:75
	ldr	r0, [sp, #448]
	.loc	10 695 58 is_stmt 0             @ lvgl/src/lv_widgets/lv_img.c:695:58
	bl	lv_obj_get_width
	.loc	10 695 99                       @ lvgl/src/lv_widgets/lv_img.c:695:99
	str	r0, [sp, #28]                   @ 4-byte Spill
	ldr	r0, [sp, #448]
	.loc	10 695 81                       @ lvgl/src/lv_widgets/lv_img.c:695:81
	bl	lv_obj_get_height
	ldr	r1, [sp, #28]                   @ 4-byte Reload
	mov	r2, r0
	.loc	10 695 105                      @ lvgl/src/lv_widgets/lv_img.c:695:105
	ldrsh.w	r3, [sp, #308]
	.loc	10 695 118                      @ lvgl/src/lv_widgets/lv_img.c:695:118
	ldrh.w	r0, [sp, #312]
	.loc	10 696 47 is_stmt 1             @ lvgl/src/lv_widgets/lv_img.c:696:47
	ldr.w	r12, [sp, #436]
	.loc	10 696 52 is_stmt 0             @ lvgl/src/lv_widgets/lv_img.c:696:52
	add.w	lr, r12, #14
	.loc	10 695 13 is_stmt 1             @ lvgl/src/lv_widgets/lv_img.c:695:13
	mov	r12, sp
	str.w	lr, [r12, #4]
	str.w	r0, [r12]
	add	r0, sp, #248
	str	r0, [sp, #32]                   @ 4-byte Spill
	bl	_lv_img_buf_get_transformed_area
	ldr	r1, [sp, #32]                   @ 4-byte Reload
	.loc	10 697 29                       @ lvgl/src/lv_widgets/lv_img.c:697:29
	ldr	r0, [sp, #448]
	ldrh	r2, [r0, #16]
	.loc	10 697 26 is_stmt 0             @ lvgl/src/lv_widgets/lv_img.c:697:26
	ldrh.w	r0, [sp, #248]
	add	r0, r2
	strh.w	r0, [sp, #248]
	.loc	10 698 29 is_stmt 1             @ lvgl/src/lv_widgets/lv_img.c:698:29
	ldr	r0, [sp, #448]
	ldrh	r2, [r0, #16]
	.loc	10 698 26 is_stmt 0             @ lvgl/src/lv_widgets/lv_img.c:698:26
	ldrh.w	r0, [sp, #252]
	add	r0, r2
	strh.w	r0, [sp, #252]
	.loc	10 699 29 is_stmt 1             @ lvgl/src/lv_widgets/lv_img.c:699:29
	ldr	r0, [sp, #448]
	ldrh	r2, [r0, #18]
	.loc	10 699 26 is_stmt 0             @ lvgl/src/lv_widgets/lv_img.c:699:26
	ldrh.w	r0, [sp, #250]
	add	r0, r2
	strh.w	r0, [sp, #250]
	.loc	10 700 29 is_stmt 1             @ lvgl/src/lv_widgets/lv_img.c:700:29
	ldr	r0, [sp, #448]
	ldrh	r2, [r0, #18]
	.loc	10 700 26 is_stmt 0             @ lvgl/src/lv_widgets/lv_img.c:700:26
	ldrh.w	r0, [sp, #254]
	add	r0, r2
	strh.w	r0, [sp, #254]
.Ltmp150:
	.loc	10 702 59 is_stmt 1             @ lvgl/src/lv_widgets/lv_img.c:702:59
	ldr	r2, [sp, #444]
	.loc	10 702 16 is_stmt 0             @ lvgl/src/lv_widgets/lv_img.c:702:16
	mov	r0, r1
	bl	_lv_area_intersect
.Ltmp151:
	.loc	10 702 16                       @ lvgl/src/lv_widgets/lv_img.c:702:16
	cbnz	r0, .LBB2_49
	b	.LBB2_48
.LBB2_48:
	.loc	10 0 16                         @ lvgl/src/lv_widgets/lv_img.c:0:16
	movs	r0, #0
.Ltmp152:
	.loc	10 702 80                       @ lvgl/src/lv_widgets/lv_img.c:702:80
	strb.w	r0, [sp, #455]
	b	.LBB2_72
.Ltmp153:
.LBB2_49:
	.loc	10 705 43 is_stmt 1             @ lvgl/src/lv_widgets/lv_img.c:705:43
	ldrh.w	r0, [sp, #258]
	.loc	10 705 27 is_stmt 0             @ lvgl/src/lv_widgets/lv_img.c:705:27
	strh.w	r0, [sp, #242]
	.loc	10 706 29 is_stmt 1             @ lvgl/src/lv_widgets/lv_img.c:706:29
	ldrh.w	r0, [sp, #258]
	.loc	10 706 48 is_stmt 0             @ lvgl/src/lv_widgets/lv_img.c:706:48
	ldr	r1, [sp, #436]
	ldrh	r1, [r1, #10]
	.loc	10 706 46                       @ lvgl/src/lv_widgets/lv_img.c:706:46
	add	r0, r1
	.loc	10 706 55                       @ lvgl/src/lv_widgets/lv_img.c:706:55
	subs	r0, #1
	.loc	10 706 27                       @ lvgl/src/lv_widgets/lv_img.c:706:27
	strh.w	r0, [sp, #246]
	.loc	10 708 13 is_stmt 1             @ lvgl/src/lv_widgets/lv_img.c:708:13
	b	.LBB2_50
.LBB2_50:                               @ =>This Loop Header: Depth=1
                                        @     Child Loop BB2_52 Depth 2
.Ltmp154:
	.loc	10 708 30 is_stmt 0             @ lvgl/src/lv_widgets/lv_img.c:708:30
	ldrsh.w	r0, [sp, #242]
	.loc	10 708 49                       @ lvgl/src/lv_widgets/lv_img.c:708:49
	ldrsh.w	r1, [sp, #262]
.Ltmp155:
	.loc	10 708 13                       @ lvgl/src/lv_widgets/lv_img.c:708:13
	cmp	r0, r1
	bge	.LBB2_57
	b	.LBB2_51
.LBB2_51:                               @   in Loop: Header=BB2_50 Depth=1
.Ltmp156:
	.loc	10 709 47 is_stmt 1             @ lvgl/src/lv_widgets/lv_img.c:709:47
	ldrh.w	r0, [sp, #256]
	.loc	10 709 31 is_stmt 0             @ lvgl/src/lv_widgets/lv_img.c:709:31
	strh.w	r0, [sp, #240]
	.loc	10 710 33 is_stmt 1             @ lvgl/src/lv_widgets/lv_img.c:710:33
	ldrh.w	r0, [sp, #256]
	.loc	10 710 52 is_stmt 0             @ lvgl/src/lv_widgets/lv_img.c:710:52
	ldr	r1, [sp, #436]
	ldrh	r1, [r1, #8]
	.loc	10 710 50                       @ lvgl/src/lv_widgets/lv_img.c:710:50
	add	r0, r1
	.loc	10 710 59                       @ lvgl/src/lv_widgets/lv_img.c:710:59
	subs	r0, #1
	.loc	10 710 31                       @ lvgl/src/lv_widgets/lv_img.c:710:31
	strh.w	r0, [sp, #244]
	.loc	10 711 17 is_stmt 1             @ lvgl/src/lv_widgets/lv_img.c:711:17
	b	.LBB2_52
.LBB2_52:                               @   Parent Loop BB2_50 Depth=1
                                        @ =>  This Inner Loop Header: Depth=2
.Ltmp157:
	.loc	10 711 34 is_stmt 0             @ lvgl/src/lv_widgets/lv_img.c:711:34
	ldrsh.w	r0, [sp, #240]
	.loc	10 711 53                       @ lvgl/src/lv_widgets/lv_img.c:711:53
	ldrsh.w	r1, [sp, #260]
.Ltmp158:
	.loc	10 711 17                       @ lvgl/src/lv_widgets/lv_img.c:711:17
	cmp	r0, r1
	bge	.LBB2_55
	b	.LBB2_53
.LBB2_53:                               @   in Loop: Header=BB2_52 Depth=2
.Ltmp159:
	.loc	10 712 58 is_stmt 1             @ lvgl/src/lv_widgets/lv_img.c:712:58
	ldr	r0, [sp, #436]
	.loc	10 712 63 is_stmt 0             @ lvgl/src/lv_widgets/lv_img.c:712:63
	ldr	r2, [r0]
	add	r0, sp, #240
	add	r1, sp, #248
	add	r3, sp, #268
	.loc	10 712 21                       @ lvgl/src/lv_widgets/lv_img.c:712:21
	bl	lv_draw_img
	.loc	10 713 17 is_stmt 1             @ lvgl/src/lv_widgets/lv_img.c:713:17
	b	.LBB2_54
.Ltmp160:
.LBB2_54:                               @   in Loop: Header=BB2_52 Depth=2
	.loc	10 711 74                       @ lvgl/src/lv_widgets/lv_img.c:711:74
	ldrh.w	r1, [sp, #266]
	.loc	10 711 71 is_stmt 0             @ lvgl/src/lv_widgets/lv_img.c:711:71
	ldrh.w	r0, [sp, #240]
	add	r0, r1
	strh.w	r0, [sp, #240]
	.loc	10 711 105                      @ lvgl/src/lv_widgets/lv_img.c:711:105
	ldrh.w	r1, [sp, #266]
	.loc	10 711 102                      @ lvgl/src/lv_widgets/lv_img.c:711:102
	ldrh.w	r0, [sp, #244]
	add	r0, r1
	strh.w	r0, [sp, #244]
	.loc	10 711 17                       @ lvgl/src/lv_widgets/lv_img.c:711:17
	b	.LBB2_52
.Ltmp161:
.LBB2_55:                               @   in Loop: Header=BB2_50 Depth=1
	.loc	10 714 13 is_stmt 1             @ lvgl/src/lv_widgets/lv_img.c:714:13
	b	.LBB2_56
.Ltmp162:
.LBB2_56:                               @   in Loop: Header=BB2_50 Depth=1
	.loc	10 708 70                       @ lvgl/src/lv_widgets/lv_img.c:708:70
	ldrh.w	r1, [sp, #264]
	.loc	10 708 67 is_stmt 0             @ lvgl/src/lv_widgets/lv_img.c:708:67
	ldrh.w	r0, [sp, #242]
	add	r0, r1
	strh.w	r0, [sp, #242]
	.loc	10 708 101                      @ lvgl/src/lv_widgets/lv_img.c:708:101
	ldrh.w	r1, [sp, #264]
	.loc	10 708 98                       @ lvgl/src/lv_widgets/lv_img.c:708:98
	ldrh.w	r0, [sp, #246]
	add	r0, r1
	strh.w	r0, [sp, #246]
	.loc	10 708 13                       @ lvgl/src/lv_widgets/lv_img.c:708:13
	b	.LBB2_50
.Ltmp163:
.LBB2_57:
	.loc	10 715 9 is_stmt 1              @ lvgl/src/lv_widgets/lv_img.c:715:9
	b	.LBB2_62
.Ltmp164:
.LBB2_58:
	.loc	10 716 17                       @ lvgl/src/lv_widgets/lv_img.c:716:17
	ldr	r0, [sp, #436]
	.loc	10 716 22 is_stmt 0             @ lvgl/src/lv_widgets/lv_img.c:716:22
	ldrb	r0, [r0, #20]
	and	r0, r0, #3
.Ltmp165:
	.loc	10 716 17                       @ lvgl/src/lv_widgets/lv_img.c:716:17
	cmp	r0, #2
	bne	.LBB2_60
	b	.LBB2_59
.LBB2_59:
	.loc	10 0 17                         @ lvgl/src/lv_widgets/lv_img.c:0:17
	add	r0, sp, #200
.Ltmp166:
	.loc	10 719 13 is_stmt 1             @ lvgl/src/lv_widgets/lv_img.c:719:13
	str	r0, [sp, #24]                   @ 4-byte Spill
	bl	lv_draw_label_dsc_init
	ldr	r2, [sp, #24]                   @ 4-byte Reload
	.loc	10 720 40                       @ lvgl/src/lv_widgets/lv_img.c:720:40
	ldr	r0, [sp, #448]
	movs	r1, #0
	.loc	10 720 13 is_stmt 0             @ lvgl/src/lv_widgets/lv_img.c:720:13
	str	r1, [sp, #20]                   @ 4-byte Spill
	bl	lv_obj_init_draw_label_dsc
	ldr	r1, [sp, #20]                   @ 4-byte Reload
	.loc	10 722 62 is_stmt 1             @ lvgl/src/lv_widgets/lv_img.c:722:62
	ldr	r0, [sp, #448]
	.loc	10 722 31 is_stmt 0             @ lvgl/src/lv_widgets/lv_img.c:722:31
	bl	lv_obj_get_style_image_recolor
	ldr.w	r12, [sp, #20]                  @ 4-byte Reload
	ldr	r2, [sp, #24]                   @ 4-byte Reload
	str	r0, [sp, #196]
	ldr	r0, [sp, #196]
	str	r0, [sp, #200]
	.loc	10 723 28 is_stmt 1             @ lvgl/src/lv_widgets/lv_img.c:723:28
	ldr	r0, [sp, #448]
	.loc	10 723 33 is_stmt 0             @ lvgl/src/lv_widgets/lv_img.c:723:33
	adds	r0, #16
	.loc	10 723 41                       @ lvgl/src/lv_widgets/lv_img.c:723:41
	ldr	r1, [sp, #444]
	.loc	10 723 64                       @ lvgl/src/lv_widgets/lv_img.c:723:64
	ldr	r3, [sp, #436]
	.loc	10 723 69                       @ lvgl/src/lv_widgets/lv_img.c:723:69
	ldr	r3, [r3]
	.loc	10 723 13                       @ lvgl/src/lv_widgets/lv_img.c:723:13
	mov	lr, sp
	str.w	r12, [lr]
	bl	lv_draw_label
	.loc	10 724 9 is_stmt 1              @ lvgl/src/lv_widgets/lv_img.c:724:9
	b	.LBB2_61
.Ltmp167:
.LBB2_60:
	.loc	10 728 26                       @ lvgl/src/lv_widgets/lv_img.c:728:26
	ldr	r0, [sp, #448]
	.loc	10 728 31 is_stmt 0             @ lvgl/src/lv_widgets/lv_img.c:728:31
	adds	r0, #16
	.loc	10 728 39                       @ lvgl/src/lv_widgets/lv_img.c:728:39
	ldr	r1, [sp, #444]
	movs	r3, #0
	.loc	10 728 13                       @ lvgl/src/lv_widgets/lv_img.c:728:13
	mov	r2, r3
	bl	lv_draw_img
	b	.LBB2_61
.Ltmp168:
.LBB2_61:
	.loc	10 0 13                         @ lvgl/src/lv_widgets/lv_img.c:0:13
	b	.LBB2_62
.LBB2_62:
	.loc	10 730 5 is_stmt 1              @ lvgl/src/lv_widgets/lv_img.c:730:5
	b	.LBB2_70
.Ltmp169:
.LBB2_63:
	.loc	10 731 13                       @ lvgl/src/lv_widgets/lv_img.c:731:13
	ldrb.w	r0, [sp, #443]
.Ltmp170:
	.loc	10 731 13 is_stmt 0             @ lvgl/src/lv_widgets/lv_img.c:731:13
	cmp	r0, #1
	bne.w	.LBB2_69
	b	.LBB2_64
.LBB2_64:
.Ltmp171:
	.loc	10 732 41 is_stmt 1             @ lvgl/src/lv_widgets/lv_img.c:732:41
	ldr	r0, [sp, #448]
	movs	r1, #0
	.loc	10 732 12 is_stmt 0             @ lvgl/src/lv_widgets/lv_img.c:732:12
	bl	lv_obj_get_style_clip_corner
.Ltmp172:
	.loc	10 732 12                       @ lvgl/src/lv_widgets/lv_img.c:732:12
	cbz	r0, .LBB2_66
	b	.LBB2_65
.LBB2_65:
.Ltmp173:
	.loc	10 733 78 is_stmt 1             @ lvgl/src/lv_widgets/lv_img.c:733:78
	ldr	r0, [sp, #448]
	.loc	10 733 82 is_stmt 0             @ lvgl/src/lv_widgets/lv_img.c:733:82
	add.w	r0, r0, #608
	.loc	10 733 51                       @ lvgl/src/lv_widgets/lv_img.c:733:51
	bl	lv_draw_mask_remove_custom
	.loc	10 733 43                       @ lvgl/src/lv_widgets/lv_img.c:733:43
	str	r0, [sp, #192]
	.loc	10 734 33 is_stmt 1             @ lvgl/src/lv_widgets/lv_img.c:734:33
	ldr	r0, [sp, #192]
	.loc	10 734 13 is_stmt 0             @ lvgl/src/lv_widgets/lv_img.c:734:13
	bl	_lv_mem_buf_release
	.loc	10 735 9 is_stmt 1              @ lvgl/src/lv_widgets/lv_img.c:735:9
	b	.LBB2_66
.Ltmp174:
.LBB2_66:
	.loc	10 738 41                       @ lvgl/src/lv_widgets/lv_img.c:738:41
	ldr	r0, [sp, #448]
	movs	r1, #0
	.loc	10 738 12 is_stmt 0             @ lvgl/src/lv_widgets/lv_img.c:738:12
	bl	lv_obj_get_style_border_post
.Ltmp175:
	.loc	10 738 12                       @ lvgl/src/lv_widgets/lv_img.c:738:12
	cmp	r0, #0
	beq.w	.LBB2_68
	b	.LBB2_67
.LBB2_67:
	.loc	10 0 12                         @ lvgl/src/lv_widgets/lv_img.c:0:12
	add	r0, sp, #88
.Ltmp176:
	.loc	10 740 13 is_stmt 1             @ lvgl/src/lv_widgets/lv_img.c:740:13
	str	r0, [sp, #16]                   @ 4-byte Spill
	bl	lv_draw_rect_dsc_init
	ldr	r2, [sp, #16]                   @ 4-byte Reload
	movs	r1, #0
	.loc	10 741 29                       @ lvgl/src/lv_widgets/lv_img.c:741:29
	str	r1, [sp, #12]                   @ 4-byte Spill
	strb.w	r1, [sp, #106]
	.loc	10 742 34                       @ lvgl/src/lv_widgets/lv_img.c:742:34
	strb.w	r1, [sp, #160]
	.loc	10 743 33                       @ lvgl/src/lv_widgets/lv_img.c:743:33
	strb.w	r1, [sp, #144]
	.loc	10 744 39                       @ lvgl/src/lv_widgets/lv_img.c:744:39
	ldr	r0, [sp, #448]
	.loc	10 744 13 is_stmt 0             @ lvgl/src/lv_widgets/lv_img.c:744:13
	bl	lv_obj_init_draw_rect_dsc
	ldr	r1, [sp, #12]                   @ 4-byte Reload
	.loc	10 746 66 is_stmt 1             @ lvgl/src/lv_widgets/lv_img.c:746:66
	ldr	r0, [sp, #448]
	.loc	10 746 34 is_stmt 0             @ lvgl/src/lv_widgets/lv_img.c:746:34
	bl	lv_obj_get_style_transform_zoom
	ldr	r1, [sp, #12]                   @ 4-byte Reload
	.loc	10 746 21                       @ lvgl/src/lv_widgets/lv_img.c:746:21
	str	r0, [sp, #84]
	.loc	10 747 27 is_stmt 1             @ lvgl/src/lv_widgets/lv_img.c:747:27
	ldr	r0, [sp, #84]
	.loc	10 747 40 is_stmt 0             @ lvgl/src/lv_widgets/lv_img.c:747:40
	ldr	r2, [sp, #436]
	.loc	10 747 45                       @ lvgl/src/lv_widgets/lv_img.c:747:45
	ldrh	r2, [r2, #18]
	.loc	10 747 38                       @ lvgl/src/lv_widgets/lv_img.c:747:38
	muls	r0, r2, r0
	.loc	10 747 51                       @ lvgl/src/lv_widgets/lv_img.c:747:51
	asrs	r0, r0, #8
	.loc	10 747 24                       @ lvgl/src/lv_widgets/lv_img.c:747:24
	str	r0, [sp, #84]
	.loc	10 749 68 is_stmt 1             @ lvgl/src/lv_widgets/lv_img.c:749:68
	ldr	r0, [sp, #448]
	.loc	10 749 35 is_stmt 0             @ lvgl/src/lv_widgets/lv_img.c:749:35
	bl	lv_obj_get_style_transform_angle
	.loc	10 749 21                       @ lvgl/src/lv_widgets/lv_img.c:749:21
	str	r0, [sp, #80]
	.loc	10 750 28 is_stmt 1             @ lvgl/src/lv_widgets/lv_img.c:750:28
	ldr	r0, [sp, #436]
	.loc	10 750 33 is_stmt 0             @ lvgl/src/lv_widgets/lv_img.c:750:33
	ldrh	r1, [r0, #12]
	.loc	10 750 25                       @ lvgl/src/lv_widgets/lv_img.c:750:25
	ldr	r0, [sp, #80]
	add	r0, r1
	str	r0, [sp, #80]
	.loc	10 753 77 is_stmt 1             @ lvgl/src/lv_widgets/lv_img.c:753:77
	ldr	r0, [sp, #448]
	.loc	10 753 82 is_stmt 0             @ lvgl/src/lv_widgets/lv_img.c:753:82
	adds	r0, #16
	.loc	10 753 58                       @ lvgl/src/lv_widgets/lv_img.c:753:58
	bl	lv_area_get_width
	.loc	10 753 111                      @ lvgl/src/lv_widgets/lv_img.c:753:111
	str	r0, [sp, #8]                    @ 4-byte Spill
	ldr	r0, [sp, #448]
	.loc	10 753 116                      @ lvgl/src/lv_widgets/lv_img.c:753:116
	adds	r0, #16
	.loc	10 753 91                       @ lvgl/src/lv_widgets/lv_img.c:753:91
	bl	lv_area_get_height
	ldr	r1, [sp, #8]                    @ 4-byte Reload
	mov	r2, r0
	.loc	10 754 46 is_stmt 1             @ lvgl/src/lv_widgets/lv_img.c:754:46
	ldrsh.w	r3, [sp, #80]
	.loc	10 754 59 is_stmt 0             @ lvgl/src/lv_widgets/lv_img.c:754:59
	ldrh.w	r0, [sp, #84]
	.loc	10 754 72                       @ lvgl/src/lv_widgets/lv_img.c:754:72
	ldr.w	r12, [sp, #436]
	.loc	10 754 77                       @ lvgl/src/lv_widgets/lv_img.c:754:77
	add.w	lr, r12, #14
	.loc	10 753 13 is_stmt 1             @ lvgl/src/lv_widgets/lv_img.c:753:13
	mov	r12, sp
	str.w	lr, [r12, #4]
	str.w	r0, [r12]
	add	r0, sp, #72
	bl	_lv_img_buf_get_transformed_area
	ldr	r1, [sp, #12]                   @ 4-byte Reload
	.loc	10 755 29                       @ lvgl/src/lv_widgets/lv_img.c:755:29
	ldr	r0, [sp, #448]
	ldrh	r2, [r0, #16]
	.loc	10 755 26 is_stmt 0             @ lvgl/src/lv_widgets/lv_img.c:755:26
	ldrh.w	r0, [sp, #72]
	add	r0, r2
	strh.w	r0, [sp, #72]
	.loc	10 756 29 is_stmt 1             @ lvgl/src/lv_widgets/lv_img.c:756:29
	ldr	r0, [sp, #448]
	ldrh	r2, [r0, #18]
	.loc	10 756 26 is_stmt 0             @ lvgl/src/lv_widgets/lv_img.c:756:26
	ldrh.w	r0, [sp, #74]
	add	r0, r2
	strh.w	r0, [sp, #74]
	.loc	10 757 29 is_stmt 1             @ lvgl/src/lv_widgets/lv_img.c:757:29
	ldr	r0, [sp, #448]
	ldrh	r2, [r0, #16]
	.loc	10 757 26 is_stmt 0             @ lvgl/src/lv_widgets/lv_img.c:757:26
	ldrh.w	r0, [sp, #76]
	add	r0, r2
	strh.w	r0, [sp, #76]
	.loc	10 758 29 is_stmt 1             @ lvgl/src/lv_widgets/lv_img.c:758:29
	ldr	r0, [sp, #448]
	ldrh	r2, [r0, #18]
	.loc	10 758 26 is_stmt 0             @ lvgl/src/lv_widgets/lv_img.c:758:26
	ldrh.w	r0, [sp, #78]
	add	r0, r2
	strh.w	r0, [sp, #78]
	.loc	10 759 55 is_stmt 1             @ lvgl/src/lv_widgets/lv_img.c:759:55
	ldr	r0, [sp, #448]
	.loc	10 759 29 is_stmt 0             @ lvgl/src/lv_widgets/lv_img.c:759:29
	bl	lv_obj_get_style_pad_left
	ldr	r1, [sp, #12]                   @ 4-byte Reload
	mov	r2, r0
	.loc	10 759 26                       @ lvgl/src/lv_widgets/lv_img.c:759:26
	ldrh.w	r0, [sp, #72]
	subs	r0, r0, r2
	strh.w	r0, [sp, #72]
	.loc	10 760 56 is_stmt 1             @ lvgl/src/lv_widgets/lv_img.c:760:56
	ldr	r0, [sp, #448]
	.loc	10 760 29 is_stmt 0             @ lvgl/src/lv_widgets/lv_img.c:760:29
	bl	lv_obj_get_style_pad_right
	ldr	r1, [sp, #12]                   @ 4-byte Reload
	mov	r2, r0
	.loc	10 760 26                       @ lvgl/src/lv_widgets/lv_img.c:760:26
	ldrh.w	r0, [sp, #76]
	add	r0, r2
	strh.w	r0, [sp, #76]
	.loc	10 761 54 is_stmt 1             @ lvgl/src/lv_widgets/lv_img.c:761:54
	ldr	r0, [sp, #448]
	.loc	10 761 29 is_stmt 0             @ lvgl/src/lv_widgets/lv_img.c:761:29
	bl	lv_obj_get_style_pad_top
	ldr	r1, [sp, #12]                   @ 4-byte Reload
	mov	r2, r0
	.loc	10 761 26                       @ lvgl/src/lv_widgets/lv_img.c:761:26
	ldrh.w	r0, [sp, #74]
	subs	r0, r0, r2
	strh.w	r0, [sp, #74]
	.loc	10 762 57 is_stmt 1             @ lvgl/src/lv_widgets/lv_img.c:762:57
	ldr	r0, [sp, #448]
	.loc	10 762 29 is_stmt 0             @ lvgl/src/lv_widgets/lv_img.c:762:29
	bl	lv_obj_get_style_pad_bottom
	ldr	r2, [sp, #16]                   @ 4-byte Reload
	mov	r1, r0
	.loc	10 762 26                       @ lvgl/src/lv_widgets/lv_img.c:762:26
	ldrh.w	r0, [sp, #78]
	add	r0, r1
	strh.w	r0, [sp, #78]
	.loc	10 764 27 is_stmt 1             @ lvgl/src/lv_widgets/lv_img.c:764:27
	ldr	r0, [sp, #448]
	.loc	10 764 32 is_stmt 0             @ lvgl/src/lv_widgets/lv_img.c:764:32
	adds	r0, #16
	.loc	10 764 40                       @ lvgl/src/lv_widgets/lv_img.c:764:40
	ldr	r1, [sp, #444]
	.loc	10 764 13                       @ lvgl/src/lv_widgets/lv_img.c:764:13
	bl	lv_draw_rect
	.loc	10 765 9 is_stmt 1              @ lvgl/src/lv_widgets/lv_img.c:765:9
	b	.LBB2_68
.Ltmp177:
.LBB2_68:
	.loc	10 766 5                        @ lvgl/src/lv_widgets/lv_img.c:766:5
	b	.LBB2_69
.Ltmp178:
.LBB2_69:
	.loc	10 0 5 is_stmt 0                @ lvgl/src/lv_widgets/lv_img.c:0:5
	b	.LBB2_70
.LBB2_70:
	b	.LBB2_71
.LBB2_71:
	movs	r0, #0
	.loc	10 768 5 is_stmt 1              @ lvgl/src/lv_widgets/lv_img.c:768:5
	strb.w	r0, [sp, #455]
	b	.LBB2_72
.LBB2_72:
	.loc	10 769 1                        @ lvgl/src/lv_widgets/lv_img.c:769:1
	ldrb.w	r0, [sp, #455]
	add	sp, #456
	pop	{r7, pc}
.Ltmp179:
.Lfunc_end2:
	.size	lv_img_design, .Lfunc_end2-lv_img_design
	.cfi_endproc
	.cantunwind
	.fnend
                                        @ -- End function
	.section	.text.lv_img_set_src,"ax",%progbits
	.hidden	lv_img_set_src                  @ -- Begin function lv_img_set_src
	.globl	lv_img_set_src
	.p2align	3
	.type	lv_img_set_src,%function
	.code	16                              @ @lv_img_set_src
	.thumb_func
lv_img_set_src:
.Lfunc_begin3:
	.loc	10 142 0                        @ lvgl/src/lv_widgets/lv_img.c:142:0
	.fnstart
	.cfi_startproc
@ %bb.0:
	.save	{r7, lr}
	push	{r7, lr}
	.cfi_def_cfa_offset 8
	.cfi_offset lr, -4
	.cfi_offset r7, -8
	.pad	#56
	sub	sp, #56
	.cfi_def_cfa_offset 64
	str	r0, [sp, #52]
	str	r1, [sp, #48]
.Ltmp180:
	.loc	10 143 5 prologue_end           @ lvgl/src/lv_widgets/lv_img.c:143:5
	b	.LBB3_1
.LBB3_1:
.Ltmp181:
	.loc	10 143 5 is_stmt 0              @ lvgl/src/lv_widgets/lv_img.c:143:5
	ldr	r0, [sp, #52]
	bl	lv_debug_check_null
.Ltmp182:
	.loc	10 143 5                        @ lvgl/src/lv_widgets/lv_img.c:143:5
	cbnz	r0, .LBB3_4
	b	.LBB3_2
.LBB3_2:
.Ltmp183:
	.loc	10 143 5                        @ lvgl/src/lv_widgets/lv_img.c:143:5
	ldr	r2, [sp, #52]
	movw	r0, :lower16:.L.str.1
	movt	r0, :upper16:.L.str.1
	movs	r3, #0
	bl	lv_debug_log_error
	b	.LBB3_3
.LBB3_3:                                @ =>This Inner Loop Header: Depth=1
	b	.LBB3_3
.Ltmp184:
.LBB3_4:
	.loc	10 143 5                        @ lvgl/src/lv_widgets/lv_img.c:143:5
	b	.LBB3_5
.Ltmp185:
.LBB3_5:
	.loc	10 145 49 is_stmt 1             @ lvgl/src/lv_widgets/lv_img.c:145:49
	ldr	r0, [sp, #48]
	.loc	10 145 29 is_stmt 0             @ lvgl/src/lv_widgets/lv_img.c:145:29
	bl	lv_img_src_get_type
	.loc	10 145 18                       @ lvgl/src/lv_widgets/lv_img.c:145:18
	strb.w	r0, [sp, #47]
	.loc	10 146 49 is_stmt 1             @ lvgl/src/lv_widgets/lv_img.c:146:49
	ldr	r0, [sp, #52]
	.loc	10 146 29 is_stmt 0             @ lvgl/src/lv_widgets/lv_img.c:146:29
	bl	lv_obj_get_ext_attr
	.loc	10 146 20                       @ lvgl/src/lv_widgets/lv_img.c:146:20
	str	r0, [sp, #40]
.Ltmp186:
	.loc	10 165 8 is_stmt 1              @ lvgl/src/lv_widgets/lv_img.c:165:8
	ldrb.w	r0, [sp, #47]
.Ltmp187:
	.loc	10 165 8 is_stmt 0              @ lvgl/src/lv_widgets/lv_img.c:165:8
	cmp	r0, #3
	bne	.LBB3_10
	b	.LBB3_6
.LBB3_6:
.Ltmp188:
	.loc	10 167 12 is_stmt 1             @ lvgl/src/lv_widgets/lv_img.c:167:12
	ldr	r0, [sp, #40]
	.loc	10 167 17 is_stmt 0             @ lvgl/src/lv_widgets/lv_img.c:167:17
	ldrb	r0, [r0, #20]
	and	r0, r0, #3
	.loc	10 167 47                       @ lvgl/src/lv_widgets/lv_img.c:167:47
	cmp	r0, #2
	beq	.LBB3_8
	b	.LBB3_7
.LBB3_7:
	.loc	10 167 50                       @ lvgl/src/lv_widgets/lv_img.c:167:50
	ldr	r0, [sp, #40]
	.loc	10 167 55                       @ lvgl/src/lv_widgets/lv_img.c:167:55
	ldrb	r0, [r0, #20]
	and	r0, r0, #3
.Ltmp189:
	.loc	10 167 12                       @ lvgl/src/lv_widgets/lv_img.c:167:12
	cmp	r0, #1
	bne	.LBB3_9
	b	.LBB3_8
.LBB3_8:
.Ltmp190:
	.loc	10 168 25 is_stmt 1             @ lvgl/src/lv_widgets/lv_img.c:168:25
	ldr	r0, [sp, #40]
	.loc	10 168 30 is_stmt 0             @ lvgl/src/lv_widgets/lv_img.c:168:30
	ldr	r0, [r0]
	.loc	10 168 13                       @ lvgl/src/lv_widgets/lv_img.c:168:13
	bl	lv_mem_free
	.loc	10 169 9 is_stmt 1              @ lvgl/src/lv_widgets/lv_img.c:169:9
	b	.LBB3_9
.Ltmp191:
.LBB3_9:
	.loc	10 170 9                        @ lvgl/src/lv_widgets/lv_img.c:170:9
	ldr	r1, [sp, #40]
	movs	r0, #0
	.loc	10 170 23 is_stmt 0             @ lvgl/src/lv_widgets/lv_img.c:170:23
	str	r0, [r1]
	.loc	10 171 9 is_stmt 1              @ lvgl/src/lv_widgets/lv_img.c:171:9
	ldr	r1, [sp, #40]
	.loc	10 171 23 is_stmt 0             @ lvgl/src/lv_widgets/lv_img.c:171:23
	ldrb	r0, [r1, #20]
	orr	r0, r0, #3
	strb	r0, [r1, #20]
	.loc	10 172 9 is_stmt 1              @ lvgl/src/lv_widgets/lv_img.c:172:9
	b	.LBB3_41
.Ltmp192:
.LBB3_10:
	.loc	10 176 29                       @ lvgl/src/lv_widgets/lv_img.c:176:29
	ldr	r0, [sp, #48]
	add	r1, sp, #36
	.loc	10 176 5 is_stmt 0              @ lvgl/src/lv_widgets/lv_img.c:176:5
	bl	lv_img_decoder_get_info
.Ltmp193:
	.loc	10 179 8 is_stmt 1              @ lvgl/src/lv_widgets/lv_img.c:179:8
	ldrb.w	r0, [sp, #47]
.Ltmp194:
	.loc	10 179 8 is_stmt 0              @ lvgl/src/lv_widgets/lv_img.c:179:8
	cbnz	r0, .LBB3_15
	b	.LBB3_11
.LBB3_11:
.Ltmp195:
	.loc	10 183 12 is_stmt 1             @ lvgl/src/lv_widgets/lv_img.c:183:12
	ldr	r0, [sp, #40]
	.loc	10 183 17 is_stmt 0             @ lvgl/src/lv_widgets/lv_img.c:183:17
	ldrb	r0, [r0, #20]
	and	r0, r0, #3
	.loc	10 183 45                       @ lvgl/src/lv_widgets/lv_img.c:183:45
	cmp	r0, #1
	beq	.LBB3_13
	b	.LBB3_12
.LBB3_12:
	.loc	10 183 48                       @ lvgl/src/lv_widgets/lv_img.c:183:48
	ldr	r0, [sp, #40]
	.loc	10 183 53                       @ lvgl/src/lv_widgets/lv_img.c:183:53
	ldrb	r0, [r0, #20]
	and	r0, r0, #3
.Ltmp196:
	.loc	10 183 12                       @ lvgl/src/lv_widgets/lv_img.c:183:12
	cmp	r0, #2
	bne	.LBB3_14
	b	.LBB3_13
.LBB3_13:
.Ltmp197:
	.loc	10 184 25 is_stmt 1             @ lvgl/src/lv_widgets/lv_img.c:184:25
	ldr	r0, [sp, #40]
	.loc	10 184 30 is_stmt 0             @ lvgl/src/lv_widgets/lv_img.c:184:30
	ldr	r0, [r0]
	.loc	10 184 13                       @ lvgl/src/lv_widgets/lv_img.c:184:13
	bl	lv_mem_free
	.loc	10 185 9 is_stmt 1              @ lvgl/src/lv_widgets/lv_img.c:185:9
	b	.LBB3_14
.Ltmp198:
.LBB3_14:
	.loc	10 186 20                       @ lvgl/src/lv_widgets/lv_img.c:186:20
	ldr	r0, [sp, #48]
	.loc	10 186 9 is_stmt 0              @ lvgl/src/lv_widgets/lv_img.c:186:9
	ldr	r1, [sp, #40]
	.loc	10 186 18                       @ lvgl/src/lv_widgets/lv_img.c:186:18
	str	r0, [r1]
	.loc	10 187 5 is_stmt 1              @ lvgl/src/lv_widgets/lv_img.c:187:5
	b	.LBB3_33
.Ltmp199:
.LBB3_15:
	.loc	10 188 13                       @ lvgl/src/lv_widgets/lv_img.c:188:13
	ldrb.w	r0, [sp, #47]
	.loc	10 188 41 is_stmt 0             @ lvgl/src/lv_widgets/lv_img.c:188:41
	cmp	r0, #1
	beq	.LBB3_17
	b	.LBB3_16
.LBB3_16:
	.loc	10 188 44                       @ lvgl/src/lv_widgets/lv_img.c:188:44
	ldrb.w	r0, [sp, #47]
.Ltmp200:
	.loc	10 188 13                       @ lvgl/src/lv_widgets/lv_img.c:188:13
	cmp	r0, #2
	bne	.LBB3_32
	b	.LBB3_17
.LBB3_17:
.Ltmp201:
	.loc	10 190 12 is_stmt 1             @ lvgl/src/lv_widgets/lv_img.c:190:12
	ldr	r0, [sp, #40]
	.loc	10 190 17 is_stmt 0             @ lvgl/src/lv_widgets/lv_img.c:190:17
	ldr	r0, [r0]
	.loc	10 190 24                       @ lvgl/src/lv_widgets/lv_img.c:190:24
	ldr	r1, [sp, #48]
.Ltmp202:
	.loc	10 190 12                       @ lvgl/src/lv_widgets/lv_img.c:190:12
	cmp	r0, r1
	beq	.LBB3_31
	b	.LBB3_18
.LBB3_18:
	.loc	10 0 12                         @ lvgl/src/lv_widgets/lv_img.c:0:12
	movs	r0, #0
.Ltmp203:
	.loc	10 191 26 is_stmt 1             @ lvgl/src/lv_widgets/lv_img.c:191:26
	str	r0, [sp, #32]
.Ltmp204:
	.loc	10 195 16                       @ lvgl/src/lv_widgets/lv_img.c:195:16
	ldr	r0, [sp, #40]
	.loc	10 195 21 is_stmt 0             @ lvgl/src/lv_widgets/lv_img.c:195:21
	ldrb	r0, [r0, #20]
	and	r0, r0, #3
	.loc	10 195 49                       @ lvgl/src/lv_widgets/lv_img.c:195:49
	cmp	r0, #1
	beq	.LBB3_20
	b	.LBB3_19
.LBB3_19:
	.loc	10 195 52                       @ lvgl/src/lv_widgets/lv_img.c:195:52
	ldr	r0, [sp, #40]
	.loc	10 195 57                       @ lvgl/src/lv_widgets/lv_img.c:195:57
	ldrb	r0, [r0, #20]
	and	r0, r0, #3
.Ltmp205:
	.loc	10 195 16                       @ lvgl/src/lv_widgets/lv_img.c:195:16
	cmp	r0, #2
	bne	.LBB3_21
	b	.LBB3_20
.LBB3_20:
.Ltmp206:
	.loc	10 196 27 is_stmt 1             @ lvgl/src/lv_widgets/lv_img.c:196:27
	ldr	r0, [sp, #40]
	.loc	10 196 32 is_stmt 0             @ lvgl/src/lv_widgets/lv_img.c:196:32
	ldr	r0, [r0]
	.loc	10 196 25                       @ lvgl/src/lv_widgets/lv_img.c:196:25
	str	r0, [sp, #32]
	.loc	10 197 13 is_stmt 1             @ lvgl/src/lv_widgets/lv_img.c:197:13
	b	.LBB3_21
.Ltmp207:
.LBB3_21:
	.loc	10 198 50                       @ lvgl/src/lv_widgets/lv_img.c:198:50
	ldr	r0, [sp, #48]
	.loc	10 198 43 is_stmt 0             @ lvgl/src/lv_widgets/lv_img.c:198:43
	bl	strlen
	.loc	10 198 59                       @ lvgl/src/lv_widgets/lv_img.c:198:59
	adds	r0, #1
	.loc	10 198 30                       @ lvgl/src/lv_widgets/lv_img.c:198:30
	bl	lv_mem_alloc
	.loc	10 198 20                       @ lvgl/src/lv_widgets/lv_img.c:198:20
	str	r0, [sp, #28]
	.loc	10 199 13 is_stmt 1             @ lvgl/src/lv_widgets/lv_img.c:199:13
	b	.LBB3_22
.LBB3_22:
.Ltmp208:
	.loc	10 199 13 is_stmt 0             @ lvgl/src/lv_widgets/lv_img.c:199:13
	ldr	r0, [sp, #28]
	bl	lv_debug_check_null
.Ltmp209:
	.loc	10 199 13                       @ lvgl/src/lv_widgets/lv_img.c:199:13
	cbnz	r0, .LBB3_25
	b	.LBB3_23
.LBB3_23:
.Ltmp210:
	.loc	10 199 13                       @ lvgl/src/lv_widgets/lv_img.c:199:13
	ldr	r2, [sp, #28]
	movw	r0, :lower16:.L.str
	movt	r0, :upper16:.L.str
	movs	r3, #0
	bl	lv_debug_log_error
	b	.LBB3_24
.LBB3_24:                               @ =>This Inner Loop Header: Depth=1
	b	.LBB3_24
.Ltmp211:
.LBB3_25:
	.loc	10 199 13                       @ lvgl/src/lv_widgets/lv_img.c:199:13
	b	.LBB3_26
.Ltmp212:
.LBB3_26:
	.loc	10 200 16 is_stmt 1             @ lvgl/src/lv_widgets/lv_img.c:200:16
	ldr	r0, [sp, #28]
.Ltmp213:
	.loc	10 200 16 is_stmt 0             @ lvgl/src/lv_widgets/lv_img.c:200:16
	cbnz	r0, .LBB3_28
	b	.LBB3_27
.LBB3_27:
.Ltmp214:
	.loc	10 200 33                       @ lvgl/src/lv_widgets/lv_img.c:200:33
	b	.LBB3_41
.Ltmp215:
.LBB3_28:
	.loc	10 201 20 is_stmt 1             @ lvgl/src/lv_widgets/lv_img.c:201:20
	ldr	r0, [sp, #28]
	.loc	10 201 29 is_stmt 0             @ lvgl/src/lv_widgets/lv_img.c:201:29
	ldr	r1, [sp, #48]
	.loc	10 201 13                       @ lvgl/src/lv_widgets/lv_img.c:201:13
	bl	strcpy
	.loc	10 202 24 is_stmt 1             @ lvgl/src/lv_widgets/lv_img.c:202:24
	ldr	r0, [sp, #28]
	.loc	10 202 13 is_stmt 0             @ lvgl/src/lv_widgets/lv_img.c:202:13
	ldr	r1, [sp, #40]
	.loc	10 202 22                       @ lvgl/src/lv_widgets/lv_img.c:202:22
	str	r0, [r1]
.Ltmp216:
	.loc	10 204 16 is_stmt 1             @ lvgl/src/lv_widgets/lv_img.c:204:16
	ldr	r0, [sp, #32]
.Ltmp217:
	.loc	10 204 16 is_stmt 0             @ lvgl/src/lv_widgets/lv_img.c:204:16
	cbz	r0, .LBB3_30
	b	.LBB3_29
.LBB3_29:
.Ltmp218:
	.loc	10 204 37                       @ lvgl/src/lv_widgets/lv_img.c:204:37
	ldr	r0, [sp, #32]
	.loc	10 204 25                       @ lvgl/src/lv_widgets/lv_img.c:204:25
	bl	lv_mem_free
	b	.LBB3_30
.Ltmp219:
.LBB3_30:
	.loc	10 205 9 is_stmt 1              @ lvgl/src/lv_widgets/lv_img.c:205:9
	b	.LBB3_31
.Ltmp220:
.LBB3_31:
	.loc	10 206 5                        @ lvgl/src/lv_widgets/lv_img.c:206:5
	b	.LBB3_32
.Ltmp221:
.LBB3_32:
	.loc	10 0 5 is_stmt 0                @ lvgl/src/lv_widgets/lv_img.c:0:5
	b	.LBB3_33
.LBB3_33:
.Ltmp222:
	.loc	10 208 8 is_stmt 1              @ lvgl/src/lv_widgets/lv_img.c:208:8
	ldrb.w	r0, [sp, #47]
.Ltmp223:
	.loc	10 208 8 is_stmt 0              @ lvgl/src/lv_widgets/lv_img.c:208:8
	cmp	r0, #2
	bne	.LBB3_35
	b	.LBB3_34
.LBB3_34:
.Ltmp224:
	.loc	10 210 61 is_stmt 1             @ lvgl/src/lv_widgets/lv_img.c:210:61
	ldr	r0, [sp, #52]
	movs	r1, #0
	.loc	10 210 34 is_stmt 0             @ lvgl/src/lv_widgets/lv_img.c:210:34
	str	r1, [sp, #12]                   @ 4-byte Spill
	bl	lv_obj_get_style_text_font
	ldr	r1, [sp, #12]                   @ 4-byte Reload
	.loc	10 210 27                       @ lvgl/src/lv_widgets/lv_img.c:210:27
	str	r0, [sp, #24]
	.loc	10 211 74 is_stmt 1             @ lvgl/src/lv_widgets/lv_img.c:211:74
	ldr	r0, [sp, #52]
	.loc	10 211 39 is_stmt 0             @ lvgl/src/lv_widgets/lv_img.c:211:39
	bl	lv_obj_get_style_text_letter_space
	ldr	r1, [sp, #12]                   @ 4-byte Reload
	.loc	10 211 24                       @ lvgl/src/lv_widgets/lv_img.c:211:24
	strh.w	r0, [sp, #22]
	.loc	10 212 70 is_stmt 1             @ lvgl/src/lv_widgets/lv_img.c:212:70
	ldr	r0, [sp, #52]
	.loc	10 212 37 is_stmt 0             @ lvgl/src/lv_widgets/lv_img.c:212:37
	bl	lv_obj_get_style_text_line_space
	ldr.w	lr, [sp, #12]                   @ 4-byte Reload
	.loc	10 212 24                       @ lvgl/src/lv_widgets/lv_img.c:212:24
	strh.w	r0, [sp, #20]
	.loc	10 214 33 is_stmt 1             @ lvgl/src/lv_widgets/lv_img.c:214:33
	ldr	r1, [sp, #48]
	.loc	10 214 42 is_stmt 0             @ lvgl/src/lv_widgets/lv_img.c:214:42
	ldr	r2, [sp, #24]
	.loc	10 214 48                       @ lvgl/src/lv_widgets/lv_img.c:214:48
	ldrsh.w	r3, [sp, #22]
	.loc	10 214 62                       @ lvgl/src/lv_widgets/lv_img.c:214:62
	ldrsh.w	r0, [sp, #20]
	.loc	10 214 9                        @ lvgl/src/lv_widgets/lv_img.c:214:9
	mov	r12, sp
	str.w	lr, [r12, #8]
	movw	lr, #31768
	str.w	lr, [r12, #4]
	str.w	r0, [r12]
	add	r0, sp, #16
	bl	_lv_txt_get_size
	.loc	10 216 25 is_stmt 1             @ lvgl/src/lv_widgets/lv_img.c:216:25
	ldrh.w	r2, [sp, #16]
	.loc	10 216 18 is_stmt 0             @ lvgl/src/lv_widgets/lv_img.c:216:18
	ldrb.w	r1, [sp, #39]
	ldrh.w	r0, [sp, #37]
	bfc	r2, #11, #21
	movw	r3, #57347
	ands	r0, r3
	orr.w	r0, r0, r2, lsl #2
	strb.w	r1, [sp, #39]
	strh.w	r0, [sp, #37]
	.loc	10 217 25 is_stmt 1             @ lvgl/src/lv_widgets/lv_img.c:217:25
	ldrh.w	r1, [sp, #18]
	.loc	10 217 18 is_stmt 0             @ lvgl/src/lv_widgets/lv_img.c:217:18
	ldrh.w	r0, [sp, #37]
	bfc	r0, #13, #19
	orr.w	r0, r0, r1, lsl #13
	lsrs	r1, r1, #3
	strb.w	r1, [sp, #39]
	strh.w	r0, [sp, #37]
	.loc	10 218 5 is_stmt 1              @ lvgl/src/lv_widgets/lv_img.c:218:5
	b	.LBB3_35
.Ltmp225:
.LBB3_35:
	.loc	10 220 21                       @ lvgl/src/lv_widgets/lv_img.c:220:21
	ldrb.w	r2, [sp, #47]
	.loc	10 220 5 is_stmt 0              @ lvgl/src/lv_widgets/lv_img.c:220:5
	ldr	r1, [sp, #40]
	.loc	10 220 19                       @ lvgl/src/lv_widgets/lv_img.c:220:19
	ldrb	r0, [r1, #20]
	and	r2, r2, #3
	and	r0, r0, #252
	add	r0, r2
	strb	r0, [r1, #20]
	.loc	10 221 28 is_stmt 1             @ lvgl/src/lv_widgets/lv_img.c:221:28
	ldrh.w	r0, [sp, #37]
	.loc	10 221 21 is_stmt 0             @ lvgl/src/lv_widgets/lv_img.c:221:21
	ubfx	r0, r0, #2, #11
	.loc	10 221 5                        @ lvgl/src/lv_widgets/lv_img.c:221:5
	ldr	r1, [sp, #40]
	.loc	10 221 19                       @ lvgl/src/lv_widgets/lv_img.c:221:19
	strh	r0, [r1, #8]
	.loc	10 222 28 is_stmt 1             @ lvgl/src/lv_widgets/lv_img.c:222:28
	ldrb.w	r1, [sp, #39]
	ldrh.w	r0, [sp, #37]
	orr.w	r0, r0, r1, lsl #16
	lsrs	r0, r0, #13
	.loc	10 222 5 is_stmt 0              @ lvgl/src/lv_widgets/lv_img.c:222:5
	ldr	r1, [sp, #40]
	.loc	10 222 19                       @ lvgl/src/lv_widgets/lv_img.c:222:19
	strh	r0, [r1, #10]
	.loc	10 223 28 is_stmt 1             @ lvgl/src/lv_widgets/lv_img.c:223:28
	ldrb.w	r2, [sp, #36]
	.loc	10 223 5 is_stmt 0              @ lvgl/src/lv_widgets/lv_img.c:223:5
	ldr	r1, [sp, #40]
	.loc	10 223 19                       @ lvgl/src/lv_widgets/lv_img.c:223:19
	ldrb	r0, [r1, #20]
	and	r0, r0, #7
	orr.w	r0, r0, r2, lsl #3
	strb	r0, [r1, #20]
	.loc	10 224 27 is_stmt 1             @ lvgl/src/lv_widgets/lv_img.c:224:27
	ldrh.w	r0, [sp, #37]
	ubfx	r0, r0, #3, #10
	.loc	10 224 5 is_stmt 0              @ lvgl/src/lv_widgets/lv_img.c:224:5
	ldr	r1, [sp, #40]
	.loc	10 224 18                       @ lvgl/src/lv_widgets/lv_img.c:224:18
	strh	r0, [r1, #14]
	.loc	10 225 27 is_stmt 1             @ lvgl/src/lv_widgets/lv_img.c:225:27
	ldrb.w	r1, [sp, #39]
	ldrh.w	r0, [sp, #37]
	orr.w	r0, r0, r1, lsl #16
	lsrs	r0, r0, #14
	.loc	10 225 5 is_stmt 0              @ lvgl/src/lv_widgets/lv_img.c:225:5
	ldr	r1, [sp, #40]
	.loc	10 225 18                       @ lvgl/src/lv_widgets/lv_img.c:225:18
	strh	r0, [r1, #16]
.Ltmp226:
	.loc	10 227 29 is_stmt 1             @ lvgl/src/lv_widgets/lv_img.c:227:29
	ldr	r0, [sp, #52]
	.loc	10 227 8 is_stmt 0              @ lvgl/src/lv_widgets/lv_img.c:227:8
	bl	lv_img_get_auto_size
.Ltmp227:
	.loc	10 227 8                        @ lvgl/src/lv_widgets/lv_img.c:227:8
	cbz	r0, .LBB3_37
	b	.LBB3_36
.LBB3_36:
.Ltmp228:
	.loc	10 228 25 is_stmt 1             @ lvgl/src/lv_widgets/lv_img.c:228:25
	ldr	r0, [sp, #52]
	.loc	10 228 30 is_stmt 0             @ lvgl/src/lv_widgets/lv_img.c:228:30
	ldr	r2, [sp, #40]
	.loc	10 228 35                       @ lvgl/src/lv_widgets/lv_img.c:228:35
	ldrsh.w	r1, [r2, #8]
	.loc	10 228 43                       @ lvgl/src/lv_widgets/lv_img.c:228:43
	ldrsh.w	r2, [r2, #10]
	.loc	10 228 9                        @ lvgl/src/lv_widgets/lv_img.c:228:9
	bl	lv_obj_set_size
	.loc	10 229 5 is_stmt 1              @ lvgl/src/lv_widgets/lv_img.c:229:5
	b	.LBB3_37
.Ltmp229:
.LBB3_37:
	.loc	10 232 8                        @ lvgl/src/lv_widgets/lv_img.c:232:8
	ldr	r0, [sp, #40]
	.loc	10 232 13 is_stmt 0             @ lvgl/src/lv_widgets/lv_img.c:232:13
	ldrh	r0, [r0, #12]
	.loc	10 232 19                       @ lvgl/src/lv_widgets/lv_img.c:232:19
	cbnz	r0, .LBB3_39
	b	.LBB3_38
.LBB3_38:
	.loc	10 232 22                       @ lvgl/src/lv_widgets/lv_img.c:232:22
	ldr	r0, [sp, #40]
	.loc	10 232 27                       @ lvgl/src/lv_widgets/lv_img.c:232:27
	ldrh	r0, [r0, #18]
.Ltmp230:
	.loc	10 232 8                        @ lvgl/src/lv_widgets/lv_img.c:232:8
	cmp.w	r0, #256
	beq	.LBB3_40
	b	.LBB3_39
.LBB3_39:
.Ltmp231:
	.loc	10 232 81                       @ lvgl/src/lv_widgets/lv_img.c:232:81
	ldr	r0, [sp, #52]
	.loc	10 232 53                       @ lvgl/src/lv_widgets/lv_img.c:232:53
	bl	lv_obj_refresh_ext_draw_pad
	b	.LBB3_40
.Ltmp232:
.LBB3_40:
	.loc	10 234 23 is_stmt 1             @ lvgl/src/lv_widgets/lv_img.c:234:23
	ldr	r0, [sp, #52]
	.loc	10 234 5 is_stmt 0              @ lvgl/src/lv_widgets/lv_img.c:234:5
	bl	lv_obj_invalidate
	.loc	10 235 1 is_stmt 1              @ lvgl/src/lv_widgets/lv_img.c:235:1
	b	.LBB3_41
.LBB3_41:
	add	sp, #56
	pop	{r7, pc}
.Ltmp233:
.Lfunc_end3:
	.size	lv_img_set_src, .Lfunc_end3-lv_img_set_src
	.cfi_endproc
	.cantunwind
	.fnend
                                        @ -- End function
	.section	.text.lv_obj_get_style_text_font,"ax",%progbits
	.p2align	3                               @ -- Begin function lv_obj_get_style_text_font
	.type	lv_obj_get_style_text_font,%function
	.code	16                              @ @lv_obj_get_style_text_font
	.thumb_func
lv_obj_get_style_text_font:
.Lfunc_begin4:
	.file	18 "E:\\STM32\\Learning\\STM32H750_ART_PI_RGBLCD" "lvgl/src/lv_widgets/../lv_core/lv_obj_style_dec.h"
	.loc	18 158 0                        @ lvgl/src/lv_widgets/../lv_core/lv_obj_style_dec.h:158:0
	.fnstart
	.cfi_startproc
@ %bb.0:
	.save	{r7, lr}
	push	{r7, lr}
	.cfi_def_cfa_offset 8
	.cfi_offset lr, -4
	.cfi_offset r7, -8
	.pad	#8
	sub	sp, #8
	.cfi_def_cfa_offset 16
                                        @ kill: def $r2 killed $r1
	str	r0, [sp, #4]
	strb.w	r1, [sp, #3]
.Ltmp234:
	.loc	18 158 1 prologue_end           @ lvgl/src/lv_widgets/../lv_core/lv_obj_style_dec.h:158:1
	ldr	r0, [sp, #4]
	ldrb.w	r1, [sp, #3]
	movw	r2, #32910
	bl	_lv_obj_get_style_ptr
	add	sp, #8
	pop	{r7, pc}
.Ltmp235:
.Lfunc_end4:
	.size	lv_obj_get_style_text_font, .Lfunc_end4-lv_obj_get_style_text_font
	.cfi_endproc
	.cantunwind
	.fnend
                                        @ -- End function
	.section	.text.lv_obj_get_style_text_letter_space,"ax",%progbits
	.p2align	3                               @ -- Begin function lv_obj_get_style_text_letter_space
	.type	lv_obj_get_style_text_letter_space,%function
	.code	16                              @ @lv_obj_get_style_text_letter_space
	.thumb_func
lv_obj_get_style_text_letter_space:
.Lfunc_begin5:
	.loc	18 150 0                        @ lvgl/src/lv_widgets/../lv_core/lv_obj_style_dec.h:150:0
	.fnstart
	.cfi_startproc
@ %bb.0:
	.save	{r7, lr}
	push	{r7, lr}
	.cfi_def_cfa_offset 8
	.cfi_offset lr, -4
	.cfi_offset r7, -8
	.pad	#8
	sub	sp, #8
	.cfi_def_cfa_offset 16
                                        @ kill: def $r2 killed $r1
	str	r0, [sp, #4]
	strb.w	r1, [sp, #3]
.Ltmp236:
	.loc	18 150 1 prologue_end           @ lvgl/src/lv_widgets/../lv_core/lv_obj_style_dec.h:150:1
	ldr	r0, [sp, #4]
	ldrb.w	r1, [sp, #3]
	movw	r2, #32896
	bl	_lv_obj_get_style_int
	add	sp, #8
	pop	{r7, pc}
.Ltmp237:
.Lfunc_end5:
	.size	lv_obj_get_style_text_letter_space, .Lfunc_end5-lv_obj_get_style_text_letter_space
	.cfi_endproc
	.cantunwind
	.fnend
                                        @ -- End function
	.section	.text.lv_obj_get_style_text_line_space,"ax",%progbits
	.p2align	3                               @ -- Begin function lv_obj_get_style_text_line_space
	.type	lv_obj_get_style_text_line_space,%function
	.code	16                              @ @lv_obj_get_style_text_line_space
	.thumb_func
lv_obj_get_style_text_line_space:
.Lfunc_begin6:
	.loc	18 151 0                        @ lvgl/src/lv_widgets/../lv_core/lv_obj_style_dec.h:151:0
	.fnstart
	.cfi_startproc
@ %bb.0:
	.save	{r7, lr}
	push	{r7, lr}
	.cfi_def_cfa_offset 8
	.cfi_offset lr, -4
	.cfi_offset r7, -8
	.pad	#8
	sub	sp, #8
	.cfi_def_cfa_offset 16
                                        @ kill: def $r2 killed $r1
	str	r0, [sp, #4]
	strb.w	r1, [sp, #3]
.Ltmp238:
	.loc	18 151 1 prologue_end           @ lvgl/src/lv_widgets/../lv_core/lv_obj_style_dec.h:151:1
	ldr	r0, [sp, #4]
	ldrb.w	r1, [sp, #3]
	movw	r2, #32897
	bl	_lv_obj_get_style_int
	add	sp, #8
	pop	{r7, pc}
.Ltmp239:
.Lfunc_end6:
	.size	lv_obj_get_style_text_line_space, .Lfunc_end6-lv_obj_get_style_text_line_space
	.cfi_endproc
	.cantunwind
	.fnend
                                        @ -- End function
	.section	.text.lv_img_get_auto_size,"ax",%progbits
	.hidden	lv_img_get_auto_size            @ -- Begin function lv_img_get_auto_size
	.globl	lv_img_get_auto_size
	.p2align	3
	.type	lv_img_get_auto_size,%function
	.code	16                              @ @lv_img_get_auto_size
	.thumb_func
lv_img_get_auto_size:
.Lfunc_begin7:
	.loc	10 465 0                        @ lvgl/src/lv_widgets/lv_img.c:465:0
	.fnstart
	.cfi_startproc
@ %bb.0:
	.save	{r7, lr}
	push	{r7, lr}
	.cfi_def_cfa_offset 8
	.cfi_offset lr, -4
	.cfi_offset r7, -8
	.pad	#8
	sub	sp, #8
	.cfi_def_cfa_offset 16
	str	r0, [sp, #4]
.Ltmp240:
	.loc	10 466 5 prologue_end           @ lvgl/src/lv_widgets/lv_img.c:466:5
	b	.LBB7_1
.LBB7_1:
.Ltmp241:
	.loc	10 466 5 is_stmt 0              @ lvgl/src/lv_widgets/lv_img.c:466:5
	ldr	r0, [sp, #4]
	bl	lv_debug_check_null
.Ltmp242:
	.loc	10 466 5                        @ lvgl/src/lv_widgets/lv_img.c:466:5
	cbnz	r0, .LBB7_4
	b	.LBB7_2
.LBB7_2:
.Ltmp243:
	.loc	10 466 5                        @ lvgl/src/lv_widgets/lv_img.c:466:5
	ldr	r2, [sp, #4]
	movw	r0, :lower16:.L.str.1
	movt	r0, :upper16:.L.str.1
	movs	r3, #0
	bl	lv_debug_log_error
	b	.LBB7_3
.LBB7_3:                                @ =>This Inner Loop Header: Depth=1
	b	.LBB7_3
.Ltmp244:
.LBB7_4:
	.loc	10 466 5                        @ lvgl/src/lv_widgets/lv_img.c:466:5
	b	.LBB7_5
.Ltmp245:
.LBB7_5:
	.loc	10 468 46 is_stmt 1             @ lvgl/src/lv_widgets/lv_img.c:468:46
	ldr	r0, [sp, #4]
	.loc	10 468 26 is_stmt 0             @ lvgl/src/lv_widgets/lv_img.c:468:26
	bl	lv_obj_get_ext_attr
	.loc	10 468 20                       @ lvgl/src/lv_widgets/lv_img.c:468:20
	str	r0, [sp]
	.loc	10 470 12 is_stmt 1             @ lvgl/src/lv_widgets/lv_img.c:470:12
	ldr	r0, [sp]
	.loc	10 470 17 is_stmt 0             @ lvgl/src/lv_widgets/lv_img.c:470:17
	ldrb	r0, [r0, #20]
	ubfx	r0, r0, #2, #1
	.loc	10 470 5                        @ lvgl/src/lv_widgets/lv_img.c:470:5
	add	sp, #8
	pop	{r7, pc}
.Ltmp246:
.Lfunc_end7:
	.size	lv_img_get_auto_size, .Lfunc_end7-lv_img_get_auto_size
	.cfi_endproc
	.cantunwind
	.fnend
                                        @ -- End function
	.section	.text.lv_img_set_auto_size,"ax",%progbits
	.hidden	lv_img_set_auto_size            @ -- Begin function lv_img_set_auto_size
	.globl	lv_img_set_auto_size
	.p2align	3
	.type	lv_img_set_auto_size,%function
	.code	16                              @ @lv_img_set_auto_size
	.thumb_func
lv_img_set_auto_size:
.Lfunc_begin8:
	.loc	10 244 0 is_stmt 1              @ lvgl/src/lv_widgets/lv_img.c:244:0
	.fnstart
	.cfi_startproc
@ %bb.0:
	.save	{r7, lr}
	push	{r7, lr}
	.cfi_def_cfa_offset 8
	.cfi_offset lr, -4
	.cfi_offset r7, -8
	.pad	#16
	sub	sp, #16
	.cfi_def_cfa_offset 24
                                        @ kill: def $r2 killed $r1
	str	r0, [sp, #12]
	strb.w	r1, [sp, #11]
.Ltmp247:
	.loc	10 245 5 prologue_end           @ lvgl/src/lv_widgets/lv_img.c:245:5
	b	.LBB8_1
.LBB8_1:
.Ltmp248:
	.loc	10 245 5 is_stmt 0              @ lvgl/src/lv_widgets/lv_img.c:245:5
	ldr	r0, [sp, #12]
	bl	lv_debug_check_null
.Ltmp249:
	.loc	10 245 5                        @ lvgl/src/lv_widgets/lv_img.c:245:5
	cbnz	r0, .LBB8_4
	b	.LBB8_2
.LBB8_2:
.Ltmp250:
	.loc	10 245 5                        @ lvgl/src/lv_widgets/lv_img.c:245:5
	ldr	r2, [sp, #12]
	movw	r0, :lower16:.L.str.1
	movt	r0, :upper16:.L.str.1
	movs	r3, #0
	bl	lv_debug_log_error
	b	.LBB8_3
.LBB8_3:                                @ =>This Inner Loop Header: Depth=1
	b	.LBB8_3
.Ltmp251:
.LBB8_4:
	.loc	10 245 5                        @ lvgl/src/lv_widgets/lv_img.c:245:5
	b	.LBB8_5
.Ltmp252:
.LBB8_5:
	.loc	10 247 46 is_stmt 1             @ lvgl/src/lv_widgets/lv_img.c:247:46
	ldr	r0, [sp, #12]
	.loc	10 247 26 is_stmt 0             @ lvgl/src/lv_widgets/lv_img.c:247:26
	bl	lv_obj_get_ext_attr
	.loc	10 247 20                       @ lvgl/src/lv_widgets/lv_img.c:247:20
	str	r0, [sp, #4]
	.loc	10 249 23 is_stmt 1             @ lvgl/src/lv_widgets/lv_img.c:249:23
	ldrb.w	r0, [sp, #11]
	.loc	10 249 22 is_stmt 0             @ lvgl/src/lv_widgets/lv_img.c:249:22
	and	r2, r0, #1
	.loc	10 249 5                        @ lvgl/src/lv_widgets/lv_img.c:249:5
	ldr	r1, [sp, #4]
	.loc	10 249 20                       @ lvgl/src/lv_widgets/lv_img.c:249:20
	ldrb	r0, [r1, #20]
	and	r0, r0, #251
	orr.w	r0, r0, r2, lsl #2
	strb	r0, [r1, #20]
	.loc	10 250 1 is_stmt 1              @ lvgl/src/lv_widgets/lv_img.c:250:1
	add	sp, #16
	pop	{r7, pc}
.Ltmp253:
.Lfunc_end8:
	.size	lv_img_set_auto_size, .Lfunc_end8-lv_img_set_auto_size
	.cfi_endproc
	.cantunwind
	.fnend
                                        @ -- End function
	.section	.text.lv_img_set_offset_x,"ax",%progbits
	.hidden	lv_img_set_offset_x             @ -- Begin function lv_img_set_offset_x
	.globl	lv_img_set_offset_x
	.p2align	3
	.type	lv_img_set_offset_x,%function
	.code	16                              @ @lv_img_set_offset_x
	.thumb_func
lv_img_set_offset_x:
.Lfunc_begin9:
	.loc	10 259 0                        @ lvgl/src/lv_widgets/lv_img.c:259:0
	.fnstart
	.cfi_startproc
@ %bb.0:
	.save	{r7, lr}
	push	{r7, lr}
	.cfi_def_cfa_offset 8
	.cfi_offset lr, -4
	.cfi_offset r7, -8
	.pad	#16
	sub	sp, #16
	.cfi_def_cfa_offset 24
                                        @ kill: def $r2 killed $r1
	str	r0, [sp, #12]
	strh.w	r1, [sp, #10]
.Ltmp254:
	.loc	10 260 5 prologue_end           @ lvgl/src/lv_widgets/lv_img.c:260:5
	b	.LBB9_1
.LBB9_1:
.Ltmp255:
	.loc	10 260 5 is_stmt 0              @ lvgl/src/lv_widgets/lv_img.c:260:5
	ldr	r0, [sp, #12]
	bl	lv_debug_check_null
.Ltmp256:
	.loc	10 260 5                        @ lvgl/src/lv_widgets/lv_img.c:260:5
	cbnz	r0, .LBB9_4
	b	.LBB9_2
.LBB9_2:
.Ltmp257:
	.loc	10 260 5                        @ lvgl/src/lv_widgets/lv_img.c:260:5
	ldr	r2, [sp, #12]
	movw	r0, :lower16:.L.str.1
	movt	r0, :upper16:.L.str.1
	movs	r3, #0
	bl	lv_debug_log_error
	b	.LBB9_3
.LBB9_3:                                @ =>This Inner Loop Header: Depth=1
	b	.LBB9_3
.Ltmp258:
.LBB9_4:
	.loc	10 260 5                        @ lvgl/src/lv_widgets/lv_img.c:260:5
	b	.LBB9_5
.Ltmp259:
.LBB9_5:
	.loc	10 262 46 is_stmt 1             @ lvgl/src/lv_widgets/lv_img.c:262:46
	ldr	r0, [sp, #12]
	.loc	10 262 26 is_stmt 0             @ lvgl/src/lv_widgets/lv_img.c:262:26
	bl	lv_obj_get_ext_attr
	.loc	10 262 20                       @ lvgl/src/lv_widgets/lv_img.c:262:20
	str	r0, [sp, #4]
	.loc	10 264 9 is_stmt 1              @ lvgl/src/lv_widgets/lv_img.c:264:9
	ldrsh.w	r2, [sp, #10]
	.loc	10 264 13 is_stmt 0             @ lvgl/src/lv_widgets/lv_img.c:264:13
	ldr	r0, [sp, #4]
	.loc	10 264 18                       @ lvgl/src/lv_widgets/lv_img.c:264:18
	ldrsh.w	r1, [r0, #8]
	.loc	10 264 11                       @ lvgl/src/lv_widgets/lv_img.c:264:11
	sdiv	r0, r2, r1
	mls	r0, r0, r1, r2
	.loc	10 264 7                        @ lvgl/src/lv_widgets/lv_img.c:264:7
	strh.w	r0, [sp, #10]
	.loc	10 266 21 is_stmt 1             @ lvgl/src/lv_widgets/lv_img.c:266:21
	ldrh.w	r0, [sp, #10]
	.loc	10 266 5 is_stmt 0              @ lvgl/src/lv_widgets/lv_img.c:266:5
	ldr	r1, [sp, #4]
	.loc	10 266 19                       @ lvgl/src/lv_widgets/lv_img.c:266:19
	strh	r0, [r1, #4]
	.loc	10 267 23 is_stmt 1             @ lvgl/src/lv_widgets/lv_img.c:267:23
	ldr	r0, [sp, #12]
	.loc	10 267 5 is_stmt 0              @ lvgl/src/lv_widgets/lv_img.c:267:5
	bl	lv_obj_invalidate
	.loc	10 268 1 is_stmt 1              @ lvgl/src/lv_widgets/lv_img.c:268:1
	add	sp, #16
	pop	{r7, pc}
.Ltmp260:
.Lfunc_end9:
	.size	lv_img_set_offset_x, .Lfunc_end9-lv_img_set_offset_x
	.cfi_endproc
	.cantunwind
	.fnend
                                        @ -- End function
	.section	.text.lv_img_set_offset_y,"ax",%progbits
	.hidden	lv_img_set_offset_y             @ -- Begin function lv_img_set_offset_y
	.globl	lv_img_set_offset_y
	.p2align	3
	.type	lv_img_set_offset_y,%function
	.code	16                              @ @lv_img_set_offset_y
	.thumb_func
lv_img_set_offset_y:
.Lfunc_begin10:
	.loc	10 277 0                        @ lvgl/src/lv_widgets/lv_img.c:277:0
	.fnstart
	.cfi_startproc
@ %bb.0:
	.save	{r7, lr}
	push	{r7, lr}
	.cfi_def_cfa_offset 8
	.cfi_offset lr, -4
	.cfi_offset r7, -8
	.pad	#16
	sub	sp, #16
	.cfi_def_cfa_offset 24
                                        @ kill: def $r2 killed $r1
	str	r0, [sp, #12]
	strh.w	r1, [sp, #10]
.Ltmp261:
	.loc	10 278 5 prologue_end           @ lvgl/src/lv_widgets/lv_img.c:278:5
	b	.LBB10_1
.LBB10_1:
.Ltmp262:
	.loc	10 278 5 is_stmt 0              @ lvgl/src/lv_widgets/lv_img.c:278:5
	ldr	r0, [sp, #12]
	bl	lv_debug_check_null
.Ltmp263:
	.loc	10 278 5                        @ lvgl/src/lv_widgets/lv_img.c:278:5
	cbnz	r0, .LBB10_4
	b	.LBB10_2
.LBB10_2:
.Ltmp264:
	.loc	10 278 5                        @ lvgl/src/lv_widgets/lv_img.c:278:5
	ldr	r2, [sp, #12]
	movw	r0, :lower16:.L.str.1
	movt	r0, :upper16:.L.str.1
	movs	r3, #0
	bl	lv_debug_log_error
	b	.LBB10_3
.LBB10_3:                               @ =>This Inner Loop Header: Depth=1
	b	.LBB10_3
.Ltmp265:
.LBB10_4:
	.loc	10 278 5                        @ lvgl/src/lv_widgets/lv_img.c:278:5
	b	.LBB10_5
.Ltmp266:
.LBB10_5:
	.loc	10 280 46 is_stmt 1             @ lvgl/src/lv_widgets/lv_img.c:280:46
	ldr	r0, [sp, #12]
	.loc	10 280 26 is_stmt 0             @ lvgl/src/lv_widgets/lv_img.c:280:26
	bl	lv_obj_get_ext_attr
	.loc	10 280 20                       @ lvgl/src/lv_widgets/lv_img.c:280:20
	str	r0, [sp, #4]
	.loc	10 282 9 is_stmt 1              @ lvgl/src/lv_widgets/lv_img.c:282:9
	ldrsh.w	r2, [sp, #10]
	.loc	10 282 13 is_stmt 0             @ lvgl/src/lv_widgets/lv_img.c:282:13
	ldr	r0, [sp, #4]
	.loc	10 282 18                       @ lvgl/src/lv_widgets/lv_img.c:282:18
	ldrsh.w	r1, [r0, #10]
	.loc	10 282 11                       @ lvgl/src/lv_widgets/lv_img.c:282:11
	sdiv	r0, r2, r1
	mls	r0, r0, r1, r2
	.loc	10 282 7                        @ lvgl/src/lv_widgets/lv_img.c:282:7
	strh.w	r0, [sp, #10]
	.loc	10 284 21 is_stmt 1             @ lvgl/src/lv_widgets/lv_img.c:284:21
	ldrh.w	r0, [sp, #10]
	.loc	10 284 5 is_stmt 0              @ lvgl/src/lv_widgets/lv_img.c:284:5
	ldr	r1, [sp, #4]
	.loc	10 284 19                       @ lvgl/src/lv_widgets/lv_img.c:284:19
	strh	r0, [r1, #6]
	.loc	10 285 23 is_stmt 1             @ lvgl/src/lv_widgets/lv_img.c:285:23
	ldr	r0, [sp, #12]
	.loc	10 285 5 is_stmt 0              @ lvgl/src/lv_widgets/lv_img.c:285:5
	bl	lv_obj_invalidate
	.loc	10 286 1 is_stmt 1              @ lvgl/src/lv_widgets/lv_img.c:286:1
	add	sp, #16
	pop	{r7, pc}
.Ltmp267:
.Lfunc_end10:
	.size	lv_img_set_offset_y, .Lfunc_end10-lv_img_set_offset_y
	.cfi_endproc
	.cantunwind
	.fnend
                                        @ -- End function
	.section	.text.lv_img_set_pivot,"ax",%progbits
	.hidden	lv_img_set_pivot                @ -- Begin function lv_img_set_pivot
	.globl	lv_img_set_pivot
	.p2align	3
	.type	lv_img_set_pivot,%function
	.code	16                              @ @lv_img_set_pivot
	.thumb_func
lv_img_set_pivot:
.Lfunc_begin11:
	.loc	10 296 0                        @ lvgl/src/lv_widgets/lv_img.c:296:0
	.fnstart
	.cfi_startproc
@ %bb.0:
	.save	{r4, lr}
	push	{r4, lr}
	.cfi_def_cfa_offset 8
	.cfi_offset lr, -4
	.cfi_offset r4, -8
	.pad	#48
	sub	sp, #48
	.cfi_def_cfa_offset 56
                                        @ kill: def $r3 killed $r2
                                        @ kill: def $r3 killed $r1
	str	r0, [sp, #44]
	strh.w	r1, [sp, #42]
	strh.w	r2, [sp, #40]
.Ltmp268:
	.loc	10 297 46 prologue_end          @ lvgl/src/lv_widgets/lv_img.c:297:46
	ldr	r0, [sp, #44]
	.loc	10 297 26 is_stmt 0             @ lvgl/src/lv_widgets/lv_img.c:297:26
	bl	lv_obj_get_ext_attr
	.loc	10 297 20                       @ lvgl/src/lv_widgets/lv_img.c:297:20
	str	r0, [sp, #36]
.Ltmp269:
	.loc	10 298 8 is_stmt 1              @ lvgl/src/lv_widgets/lv_img.c:298:8
	ldr	r0, [sp, #36]
	.loc	10 298 19 is_stmt 0             @ lvgl/src/lv_widgets/lv_img.c:298:19
	ldrsh.w	r0, [r0, #14]
	.loc	10 298 24                       @ lvgl/src/lv_widgets/lv_img.c:298:24
	ldrsh.w	r1, [sp, #42]
	.loc	10 298 32                       @ lvgl/src/lv_widgets/lv_img.c:298:32
	cmp	r0, r1
	bne	.LBB11_3
	b	.LBB11_1
.LBB11_1:
	.loc	10 298 35                       @ lvgl/src/lv_widgets/lv_img.c:298:35
	ldr	r0, [sp, #36]
	.loc	10 298 46                       @ lvgl/src/lv_widgets/lv_img.c:298:46
	ldrsh.w	r0, [r0, #16]
	.loc	10 298 51                       @ lvgl/src/lv_widgets/lv_img.c:298:51
	ldrsh.w	r1, [sp, #40]
.Ltmp270:
	.loc	10 298 8                        @ lvgl/src/lv_widgets/lv_img.c:298:8
	cmp	r0, r1
	bne	.LBB11_3
	b	.LBB11_2
.LBB11_2:
.Ltmp271:
	.loc	10 298 60                       @ lvgl/src/lv_widgets/lv_img.c:298:60
	b	.LBB11_4
.Ltmp272:
.LBB11_3:
	.loc	10 300 66 is_stmt 1             @ lvgl/src/lv_widgets/lv_img.c:300:66
	ldr	r0, [sp, #44]
	movs	r1, #0
	.loc	10 300 34 is_stmt 0             @ lvgl/src/lv_widgets/lv_img.c:300:34
	str	r1, [sp, #12]                   @ 4-byte Spill
	bl	lv_obj_get_style_transform_zoom
	ldr	r1, [sp, #12]                   @ 4-byte Reload
	.loc	10 300 20                       @ lvgl/src/lv_widgets/lv_img.c:300:20
	strh.w	r0, [sp, #34]
	.loc	10 301 20 is_stmt 1             @ lvgl/src/lv_widgets/lv_img.c:301:20
	ldrsh.w	r0, [sp, #34]
	.loc	10 301 34 is_stmt 0             @ lvgl/src/lv_widgets/lv_img.c:301:34
	ldr	r2, [sp, #36]
	.loc	10 301 39                       @ lvgl/src/lv_widgets/lv_img.c:301:39
	ldrh	r2, [r2, #18]
	.loc	10 301 32                       @ lvgl/src/lv_widgets/lv_img.c:301:32
	muls	r0, r2, r0
	.loc	10 301 45                       @ lvgl/src/lv_widgets/lv_img.c:301:45
	lsrs	r0, r0, #8
	.loc	10 301 17                       @ lvgl/src/lv_widgets/lv_img.c:301:17
	strh.w	r0, [sp, #34]
	.loc	10 303 68 is_stmt 1             @ lvgl/src/lv_widgets/lv_img.c:303:68
	ldr	r0, [sp, #44]
	.loc	10 303 35 is_stmt 0             @ lvgl/src/lv_widgets/lv_img.c:303:35
	bl	lv_obj_get_style_transform_angle
	.loc	10 303 20                       @ lvgl/src/lv_widgets/lv_img.c:303:20
	strh.w	r0, [sp, #32]
	.loc	10 304 21 is_stmt 1             @ lvgl/src/lv_widgets/lv_img.c:304:21
	ldr	r0, [sp, #36]
	ldrh	r1, [r0, #12]
	.loc	10 304 18 is_stmt 0             @ lvgl/src/lv_widgets/lv_img.c:304:18
	ldrh.w	r0, [sp, #32]
	add	r0, r1
	strh.w	r0, [sp, #32]
	.loc	10 306 37 is_stmt 1             @ lvgl/src/lv_widgets/lv_img.c:306:37
	ldr	r0, [sp, #44]
	.loc	10 306 20 is_stmt 0             @ lvgl/src/lv_widgets/lv_img.c:306:20
	bl	lv_obj_get_width
	.loc	10 306 16                       @ lvgl/src/lv_widgets/lv_img.c:306:16
	strh.w	r0, [sp, #30]
	.loc	10 307 38 is_stmt 1             @ lvgl/src/lv_widgets/lv_img.c:307:38
	ldr	r0, [sp, #44]
	.loc	10 307 20 is_stmt 0             @ lvgl/src/lv_widgets/lv_img.c:307:20
	bl	lv_obj_get_height
	.loc	10 307 16                       @ lvgl/src/lv_widgets/lv_img.c:307:16
	strh.w	r0, [sp, #28]
	.loc	10 309 42 is_stmt 1             @ lvgl/src/lv_widgets/lv_img.c:309:42
	ldrsh.w	r1, [sp, #30]
	.loc	10 309 45 is_stmt 0             @ lvgl/src/lv_widgets/lv_img.c:309:45
	ldrsh.w	r2, [sp, #28]
	.loc	10 309 48                       @ lvgl/src/lv_widgets/lv_img.c:309:48
	ldrsh.w	r3, [sp, #32]
	.loc	10 309 62                       @ lvgl/src/lv_widgets/lv_img.c:309:62
	ldrh.w	r0, [sp, #34]
	.loc	10 309 76                       @ lvgl/src/lv_widgets/lv_img.c:309:76
	ldr.w	r12, [sp, #36]
	.loc	10 309 81                       @ lvgl/src/lv_widgets/lv_img.c:309:81
	add.w	lr, r12, #14
	.loc	10 309 5                        @ lvgl/src/lv_widgets/lv_img.c:309:5
	mov	r12, sp
	str.w	lr, [r12, #4]
	str.w	r0, [r12]
	add	r0, sp, #20
	str	r0, [sp, #16]                   @ 4-byte Spill
	bl	_lv_img_buf_get_transformed_area
	ldr	r1, [sp, #16]                   @ 4-byte Reload
	.loc	10 310 13 is_stmt 1             @ lvgl/src/lv_widgets/lv_img.c:310:13
	ldr	r0, [sp, #44]
	ldrh	r2, [r0, #16]
	.loc	10 310 10 is_stmt 0             @ lvgl/src/lv_widgets/lv_img.c:310:10
	ldrh.w	r0, [sp, #20]
	add	r0, r2
	strh.w	r0, [sp, #20]
	.loc	10 311 13 is_stmt 1             @ lvgl/src/lv_widgets/lv_img.c:311:13
	ldr	r0, [sp, #44]
	ldrh	r2, [r0, #18]
	.loc	10 311 10 is_stmt 0             @ lvgl/src/lv_widgets/lv_img.c:311:10
	ldrh.w	r0, [sp, #22]
	add	r0, r2
	strh.w	r0, [sp, #22]
	.loc	10 312 13 is_stmt 1             @ lvgl/src/lv_widgets/lv_img.c:312:13
	ldr	r0, [sp, #44]
	ldrh	r2, [r0, #16]
	.loc	10 312 10 is_stmt 0             @ lvgl/src/lv_widgets/lv_img.c:312:10
	ldrh.w	r0, [sp, #24]
	add	r0, r2
	strh.w	r0, [sp, #24]
	.loc	10 313 13 is_stmt 1             @ lvgl/src/lv_widgets/lv_img.c:313:13
	ldr	r0, [sp, #44]
	ldrh	r2, [r0, #18]
	.loc	10 313 10 is_stmt 0             @ lvgl/src/lv_widgets/lv_img.c:313:10
	ldrh.w	r0, [sp, #26]
	add	r0, r2
	strh.w	r0, [sp, #26]
	.loc	10 314 28 is_stmt 1             @ lvgl/src/lv_widgets/lv_img.c:314:28
	ldr	r0, [sp, #44]
	.loc	10 314 5 is_stmt 0              @ lvgl/src/lv_widgets/lv_img.c:314:5
	bl	lv_obj_invalidate_area
	.loc	10 316 20 is_stmt 1             @ lvgl/src/lv_widgets/lv_img.c:316:20
	ldrh.w	r0, [sp, #42]
	.loc	10 316 5 is_stmt 0              @ lvgl/src/lv_widgets/lv_img.c:316:5
	ldr	r1, [sp, #36]
	.loc	10 316 18                       @ lvgl/src/lv_widgets/lv_img.c:316:18
	strh	r0, [r1, #14]
	.loc	10 317 20 is_stmt 1             @ lvgl/src/lv_widgets/lv_img.c:317:20
	ldrh.w	r0, [sp, #40]
	.loc	10 317 5 is_stmt 0              @ lvgl/src/lv_widgets/lv_img.c:317:5
	ldr	r1, [sp, #36]
	.loc	10 317 18                       @ lvgl/src/lv_widgets/lv_img.c:317:18
	strh	r0, [r1, #16]
	.loc	10 318 33 is_stmt 1             @ lvgl/src/lv_widgets/lv_img.c:318:33
	ldr	r0, [sp, #44]
	.loc	10 318 5 is_stmt 0              @ lvgl/src/lv_widgets/lv_img.c:318:5
	bl	lv_obj_refresh_ext_draw_pad
	ldr	r0, [sp, #16]                   @ 4-byte Reload
	.loc	10 320 42 is_stmt 1             @ lvgl/src/lv_widgets/lv_img.c:320:42
	ldrsh.w	r1, [sp, #30]
	.loc	10 320 45 is_stmt 0             @ lvgl/src/lv_widgets/lv_img.c:320:45
	ldrsh.w	r2, [sp, #28]
	.loc	10 320 48                       @ lvgl/src/lv_widgets/lv_img.c:320:48
	ldrsh.w	r3, [sp, #32]
	.loc	10 320 62                       @ lvgl/src/lv_widgets/lv_img.c:320:62
	ldrh.w	r12, [sp, #34]
	.loc	10 320 76                       @ lvgl/src/lv_widgets/lv_img.c:320:76
	ldr.w	lr, [sp, #36]
	.loc	10 320 81                       @ lvgl/src/lv_widgets/lv_img.c:320:81
	add.w	r4, lr, #14
	.loc	10 320 5                        @ lvgl/src/lv_widgets/lv_img.c:320:5
	mov	lr, sp
	str.w	r4, [lr, #4]
	str.w	r12, [lr]
	bl	_lv_img_buf_get_transformed_area
	ldr	r1, [sp, #16]                   @ 4-byte Reload
	.loc	10 321 13 is_stmt 1             @ lvgl/src/lv_widgets/lv_img.c:321:13
	ldr	r0, [sp, #44]
	ldrh	r2, [r0, #16]
	.loc	10 321 10 is_stmt 0             @ lvgl/src/lv_widgets/lv_img.c:321:10
	ldrh.w	r0, [sp, #20]
	add	r0, r2
	strh.w	r0, [sp, #20]
	.loc	10 322 13 is_stmt 1             @ lvgl/src/lv_widgets/lv_img.c:322:13
	ldr	r0, [sp, #44]
	ldrh	r2, [r0, #18]
	.loc	10 322 10 is_stmt 0             @ lvgl/src/lv_widgets/lv_img.c:322:10
	ldrh.w	r0, [sp, #22]
	add	r0, r2
	strh.w	r0, [sp, #22]
	.loc	10 323 13 is_stmt 1             @ lvgl/src/lv_widgets/lv_img.c:323:13
	ldr	r0, [sp, #44]
	ldrh	r2, [r0, #16]
	.loc	10 323 10 is_stmt 0             @ lvgl/src/lv_widgets/lv_img.c:323:10
	ldrh.w	r0, [sp, #24]
	add	r0, r2
	strh.w	r0, [sp, #24]
	.loc	10 324 13 is_stmt 1             @ lvgl/src/lv_widgets/lv_img.c:324:13
	ldr	r0, [sp, #44]
	ldrh	r2, [r0, #18]
	.loc	10 324 10 is_stmt 0             @ lvgl/src/lv_widgets/lv_img.c:324:10
	ldrh.w	r0, [sp, #26]
	add	r0, r2
	strh.w	r0, [sp, #26]
	.loc	10 325 28 is_stmt 1             @ lvgl/src/lv_widgets/lv_img.c:325:28
	ldr	r0, [sp, #44]
	.loc	10 325 5 is_stmt 0              @ lvgl/src/lv_widgets/lv_img.c:325:5
	bl	lv_obj_invalidate_area
	.loc	10 326 1 is_stmt 1              @ lvgl/src/lv_widgets/lv_img.c:326:1
	b	.LBB11_4
.LBB11_4:
	add	sp, #48
	pop	{r4, pc}
.Ltmp273:
.Lfunc_end11:
	.size	lv_img_set_pivot, .Lfunc_end11-lv_img_set_pivot
	.cfi_endproc
	.cantunwind
	.fnend
                                        @ -- End function
	.section	.text.lv_obj_get_style_transform_zoom,"ax",%progbits
	.p2align	3                               @ -- Begin function lv_obj_get_style_transform_zoom
	.type	lv_obj_get_style_transform_zoom,%function
	.code	16                              @ @lv_obj_get_style_transform_zoom
	.thumb_func
lv_obj_get_style_transform_zoom:
.Lfunc_begin12:
	.loc	18 98 0                         @ lvgl/src/lv_widgets/../lv_core/lv_obj_style_dec.h:98:0
	.fnstart
	.cfi_startproc
@ %bb.0:
	.save	{r7, lr}
	push	{r7, lr}
	.cfi_def_cfa_offset 8
	.cfi_offset lr, -4
	.cfi_offset r7, -8
	.pad	#8
	sub	sp, #8
	.cfi_def_cfa_offset 16
                                        @ kill: def $r2 killed $r1
	str	r0, [sp, #4]
	strb.w	r1, [sp, #3]
.Ltmp274:
	.loc	18 98 1 prologue_end            @ lvgl/src/lv_widgets/../lv_core/lv_obj_style_dec.h:98:1
	ldr	r0, [sp, #4]
	ldrb.w	r1, [sp, #3]
	movs	r2, #7
	bl	_lv_obj_get_style_int
	add	sp, #8
	pop	{r7, pc}
.Ltmp275:
.Lfunc_end12:
	.size	lv_obj_get_style_transform_zoom, .Lfunc_end12-lv_obj_get_style_transform_zoom
	.cfi_endproc
	.cantunwind
	.fnend
                                        @ -- End function
	.section	.text.lv_obj_get_style_transform_angle,"ax",%progbits
	.p2align	3                               @ -- Begin function lv_obj_get_style_transform_angle
	.type	lv_obj_get_style_transform_angle,%function
	.code	16                              @ @lv_obj_get_style_transform_angle
	.thumb_func
lv_obj_get_style_transform_angle:
.Lfunc_begin13:
	.loc	18 97 0                         @ lvgl/src/lv_widgets/../lv_core/lv_obj_style_dec.h:97:0
	.fnstart
	.cfi_startproc
@ %bb.0:
	.save	{r7, lr}
	push	{r7, lr}
	.cfi_def_cfa_offset 8
	.cfi_offset lr, -4
	.cfi_offset r7, -8
	.pad	#8
	sub	sp, #8
	.cfi_def_cfa_offset 16
                                        @ kill: def $r2 killed $r1
	str	r0, [sp, #4]
	strb.w	r1, [sp, #3]
.Ltmp276:
	.loc	18 97 1 prologue_end            @ lvgl/src/lv_widgets/../lv_core/lv_obj_style_dec.h:97:1
	ldr	r0, [sp, #4]
	ldrb.w	r1, [sp, #3]
	movs	r2, #6
	bl	_lv_obj_get_style_int
	add	sp, #8
	pop	{r7, pc}
.Ltmp277:
.Lfunc_end13:
	.size	lv_obj_get_style_transform_angle, .Lfunc_end13-lv_obj_get_style_transform_angle
	.cfi_endproc
	.cantunwind
	.fnend
                                        @ -- End function
	.section	.text.lv_img_set_angle,"ax",%progbits
	.hidden	lv_img_set_angle                @ -- Begin function lv_img_set_angle
	.globl	lv_img_set_angle
	.p2align	3
	.type	lv_img_set_angle,%function
	.code	16                              @ @lv_img_set_angle
	.thumb_func
lv_img_set_angle:
.Lfunc_begin14:
	.loc	10 335 0                        @ lvgl/src/lv_widgets/lv_img.c:335:0
	.fnstart
	.cfi_startproc
@ %bb.0:
	.save	{r4, lr}
	push	{r4, lr}
	.cfi_def_cfa_offset 8
	.cfi_offset lr, -4
	.cfi_offset r4, -8
	.pad	#48
	sub	sp, #48
	.cfi_def_cfa_offset 56
                                        @ kill: def $r2 killed $r1
	str	r0, [sp, #44]
	strh.w	r1, [sp, #42]
.Ltmp278:
	.loc	10 336 8 prologue_end           @ lvgl/src/lv_widgets/lv_img.c:336:8
	ldrsh.w	r0, [sp, #42]
	.loc	10 336 18 is_stmt 0             @ lvgl/src/lv_widgets/lv_img.c:336:18
	cmp	r0, #0
	bmi	.LBB14_2
	b	.LBB14_1
.LBB14_1:
	.loc	10 336 21                       @ lvgl/src/lv_widgets/lv_img.c:336:21
	ldrsh.w	r0, [sp, #42]
.Ltmp279:
	.loc	10 336 8                        @ lvgl/src/lv_widgets/lv_img.c:336:8
	cmp.w	r0, #3600
	blt	.LBB14_3
	b	.LBB14_2
.LBB14_2:
.Ltmp280:
	.loc	10 336 44                       @ lvgl/src/lv_widgets/lv_img.c:336:44
	ldrsh.w	r2, [sp, #42]
	movw	r0, #46021
	movt	r0, #37282
	.loc	10 336 50                       @ lvgl/src/lv_widgets/lv_img.c:336:50
	smmla	r1, r0, r2, r2
	lsrs	r0, r1, #11
	add.w	r0, r0, r1, lsr #31
	mov.w	r1, #3600
	mls	r0, r0, r1, r2
	.loc	10 336 42                       @ lvgl/src/lv_widgets/lv_img.c:336:42
	strh.w	r0, [sp, #42]
	.loc	10 336 36                       @ lvgl/src/lv_widgets/lv_img.c:336:36
	b	.LBB14_3
.Ltmp281:
.LBB14_3:
	.loc	10 338 46 is_stmt 1             @ lvgl/src/lv_widgets/lv_img.c:338:46
	ldr	r0, [sp, #44]
	.loc	10 338 26 is_stmt 0             @ lvgl/src/lv_widgets/lv_img.c:338:26
	bl	lv_obj_get_ext_attr
	.loc	10 338 20                       @ lvgl/src/lv_widgets/lv_img.c:338:20
	str	r0, [sp, #36]
.Ltmp282:
	.loc	10 339 8 is_stmt 1              @ lvgl/src/lv_widgets/lv_img.c:339:8
	ldrsh.w	r0, [sp, #42]
	.loc	10 339 17 is_stmt 0             @ lvgl/src/lv_widgets/lv_img.c:339:17
	ldr	r1, [sp, #36]
	.loc	10 339 22                       @ lvgl/src/lv_widgets/lv_img.c:339:22
	ldrh	r1, [r1, #12]
.Ltmp283:
	.loc	10 339 8                        @ lvgl/src/lv_widgets/lv_img.c:339:8
	cmp	r0, r1
	bne	.LBB14_5
	b	.LBB14_4
.LBB14_4:
.Ltmp284:
	.loc	10 339 29                       @ lvgl/src/lv_widgets/lv_img.c:339:29
	b	.LBB14_6
.Ltmp285:
.LBB14_5:
	.loc	10 341 66 is_stmt 1             @ lvgl/src/lv_widgets/lv_img.c:341:66
	ldr	r0, [sp, #44]
	movs	r1, #0
	.loc	10 341 34 is_stmt 0             @ lvgl/src/lv_widgets/lv_img.c:341:34
	str	r1, [sp, #12]                   @ 4-byte Spill
	bl	lv_obj_get_style_transform_zoom
	ldr	r1, [sp, #12]                   @ 4-byte Reload
	.loc	10 341 20                       @ lvgl/src/lv_widgets/lv_img.c:341:20
	strh.w	r0, [sp, #34]
	.loc	10 342 20 is_stmt 1             @ lvgl/src/lv_widgets/lv_img.c:342:20
	ldrsh.w	r0, [sp, #34]
	.loc	10 342 34 is_stmt 0             @ lvgl/src/lv_widgets/lv_img.c:342:34
	ldr	r2, [sp, #36]
	.loc	10 342 39                       @ lvgl/src/lv_widgets/lv_img.c:342:39
	ldrh	r2, [r2, #18]
	.loc	10 342 32                       @ lvgl/src/lv_widgets/lv_img.c:342:32
	muls	r0, r2, r0
	.loc	10 342 45                       @ lvgl/src/lv_widgets/lv_img.c:342:45
	lsrs	r0, r0, #8
	.loc	10 342 17                       @ lvgl/src/lv_widgets/lv_img.c:342:17
	strh.w	r0, [sp, #34]
	.loc	10 344 68 is_stmt 1             @ lvgl/src/lv_widgets/lv_img.c:344:68
	ldr	r0, [sp, #44]
	.loc	10 344 35 is_stmt 0             @ lvgl/src/lv_widgets/lv_img.c:344:35
	bl	lv_obj_get_style_transform_angle
	.loc	10 344 20                       @ lvgl/src/lv_widgets/lv_img.c:344:20
	strh.w	r0, [sp, #32]
	.loc	10 346 37 is_stmt 1             @ lvgl/src/lv_widgets/lv_img.c:346:37
	ldr	r0, [sp, #44]
	.loc	10 346 20 is_stmt 0             @ lvgl/src/lv_widgets/lv_img.c:346:20
	bl	lv_obj_get_width
	.loc	10 346 16                       @ lvgl/src/lv_widgets/lv_img.c:346:16
	strh.w	r0, [sp, #30]
	.loc	10 347 38 is_stmt 1             @ lvgl/src/lv_widgets/lv_img.c:347:38
	ldr	r0, [sp, #44]
	.loc	10 347 20 is_stmt 0             @ lvgl/src/lv_widgets/lv_img.c:347:20
	bl	lv_obj_get_height
	.loc	10 347 16                       @ lvgl/src/lv_widgets/lv_img.c:347:16
	strh.w	r0, [sp, #28]
	.loc	10 349 42 is_stmt 1             @ lvgl/src/lv_widgets/lv_img.c:349:42
	ldrsh.w	r1, [sp, #30]
	.loc	10 349 45 is_stmt 0             @ lvgl/src/lv_widgets/lv_img.c:349:45
	ldrsh.w	r2, [sp, #28]
	.loc	10 349 48                       @ lvgl/src/lv_widgets/lv_img.c:349:48
	ldrh.w	r0, [sp, #32]
	.loc	10 349 63                       @ lvgl/src/lv_widgets/lv_img.c:349:63
	ldr.w	r12, [sp, #36]
	ldrh.w	r3, [r12, #12]
	.loc	10 349 61                       @ lvgl/src/lv_widgets/lv_img.c:349:61
	add	r0, r3
	.loc	10 349 75                       @ lvgl/src/lv_widgets/lv_img.c:349:75
	ldrh.w	r3, [sp, #34]
	.loc	10 349 94                       @ lvgl/src/lv_widgets/lv_img.c:349:94
	add.w	lr, r12, #14
	.loc	10 349 5                        @ lvgl/src/lv_widgets/lv_img.c:349:5
	mov	r12, sp
	str.w	lr, [r12, #4]
	str.w	r3, [r12]
	sxth	r3, r0
	add	r0, sp, #20
	str	r0, [sp, #16]                   @ 4-byte Spill
	bl	_lv_img_buf_get_transformed_area
	ldr	r1, [sp, #16]                   @ 4-byte Reload
	.loc	10 350 13 is_stmt 1             @ lvgl/src/lv_widgets/lv_img.c:350:13
	ldr	r0, [sp, #44]
	ldrh	r2, [r0, #16]
	.loc	10 350 10 is_stmt 0             @ lvgl/src/lv_widgets/lv_img.c:350:10
	ldrh.w	r0, [sp, #20]
	add	r0, r2
	strh.w	r0, [sp, #20]
	.loc	10 351 13 is_stmt 1             @ lvgl/src/lv_widgets/lv_img.c:351:13
	ldr	r0, [sp, #44]
	ldrh	r2, [r0, #18]
	.loc	10 351 10 is_stmt 0             @ lvgl/src/lv_widgets/lv_img.c:351:10
	ldrh.w	r0, [sp, #22]
	add	r0, r2
	strh.w	r0, [sp, #22]
	.loc	10 352 13 is_stmt 1             @ lvgl/src/lv_widgets/lv_img.c:352:13
	ldr	r0, [sp, #44]
	ldrh	r2, [r0, #16]
	.loc	10 352 10 is_stmt 0             @ lvgl/src/lv_widgets/lv_img.c:352:10
	ldrh.w	r0, [sp, #24]
	add	r0, r2
	strh.w	r0, [sp, #24]
	.loc	10 353 13 is_stmt 1             @ lvgl/src/lv_widgets/lv_img.c:353:13
	ldr	r0, [sp, #44]
	ldrh	r2, [r0, #18]
	.loc	10 353 10 is_stmt 0             @ lvgl/src/lv_widgets/lv_img.c:353:10
	ldrh.w	r0, [sp, #26]
	add	r0, r2
	strh.w	r0, [sp, #26]
	.loc	10 354 28 is_stmt 1             @ lvgl/src/lv_widgets/lv_img.c:354:28
	ldr	r0, [sp, #44]
	.loc	10 354 5 is_stmt 0              @ lvgl/src/lv_widgets/lv_img.c:354:5
	bl	lv_obj_invalidate_area
	.loc	10 356 18 is_stmt 1             @ lvgl/src/lv_widgets/lv_img.c:356:18
	ldrh.w	r0, [sp, #42]
	.loc	10 356 5 is_stmt 0              @ lvgl/src/lv_widgets/lv_img.c:356:5
	ldr	r1, [sp, #36]
	.loc	10 356 16                       @ lvgl/src/lv_widgets/lv_img.c:356:16
	strh	r0, [r1, #12]
	.loc	10 357 33 is_stmt 1             @ lvgl/src/lv_widgets/lv_img.c:357:33
	ldr	r0, [sp, #44]
	.loc	10 357 5 is_stmt 0              @ lvgl/src/lv_widgets/lv_img.c:357:5
	bl	lv_obj_refresh_ext_draw_pad
	ldr	r0, [sp, #16]                   @ 4-byte Reload
	.loc	10 359 42 is_stmt 1             @ lvgl/src/lv_widgets/lv_img.c:359:42
	ldrsh.w	r1, [sp, #30]
	.loc	10 359 45 is_stmt 0             @ lvgl/src/lv_widgets/lv_img.c:359:45
	ldrsh.w	r2, [sp, #28]
	.loc	10 359 48                       @ lvgl/src/lv_widgets/lv_img.c:359:48
	ldrh.w	r3, [sp, #32]
	.loc	10 359 63                       @ lvgl/src/lv_widgets/lv_img.c:359:63
	ldr.w	lr, [sp, #36]
	ldrh.w	r12, [lr, #12]
	.loc	10 359 61                       @ lvgl/src/lv_widgets/lv_img.c:359:61
	add	r3, r12
	.loc	10 359 75                       @ lvgl/src/lv_widgets/lv_img.c:359:75
	ldrh.w	r12, [sp, #34]
	.loc	10 359 94                       @ lvgl/src/lv_widgets/lv_img.c:359:94
	add.w	r4, lr, #14
	.loc	10 359 5                        @ lvgl/src/lv_widgets/lv_img.c:359:5
	mov	lr, sp
	str.w	r4, [lr, #4]
	str.w	r12, [lr]
	sxth	r3, r3
	bl	_lv_img_buf_get_transformed_area
	ldr	r1, [sp, #16]                   @ 4-byte Reload
	.loc	10 360 13 is_stmt 1             @ lvgl/src/lv_widgets/lv_img.c:360:13
	ldr	r0, [sp, #44]
	ldrh	r2, [r0, #16]
	.loc	10 360 10 is_stmt 0             @ lvgl/src/lv_widgets/lv_img.c:360:10
	ldrh.w	r0, [sp, #20]
	add	r0, r2
	strh.w	r0, [sp, #20]
	.loc	10 361 13 is_stmt 1             @ lvgl/src/lv_widgets/lv_img.c:361:13
	ldr	r0, [sp, #44]
	ldrh	r2, [r0, #18]
	.loc	10 361 10 is_stmt 0             @ lvgl/src/lv_widgets/lv_img.c:361:10
	ldrh.w	r0, [sp, #22]
	add	r0, r2
	strh.w	r0, [sp, #22]
	.loc	10 362 13 is_stmt 1             @ lvgl/src/lv_widgets/lv_img.c:362:13
	ldr	r0, [sp, #44]
	ldrh	r2, [r0, #16]
	.loc	10 362 10 is_stmt 0             @ lvgl/src/lv_widgets/lv_img.c:362:10
	ldrh.w	r0, [sp, #24]
	add	r0, r2
	strh.w	r0, [sp, #24]
	.loc	10 363 13 is_stmt 1             @ lvgl/src/lv_widgets/lv_img.c:363:13
	ldr	r0, [sp, #44]
	ldrh	r2, [r0, #18]
	.loc	10 363 10 is_stmt 0             @ lvgl/src/lv_widgets/lv_img.c:363:10
	ldrh.w	r0, [sp, #26]
	add	r0, r2
	strh.w	r0, [sp, #26]
	.loc	10 364 28 is_stmt 1             @ lvgl/src/lv_widgets/lv_img.c:364:28
	ldr	r0, [sp, #44]
	.loc	10 364 5 is_stmt 0              @ lvgl/src/lv_widgets/lv_img.c:364:5
	bl	lv_obj_invalidate_area
	.loc	10 365 1 is_stmt 1              @ lvgl/src/lv_widgets/lv_img.c:365:1
	b	.LBB14_6
.LBB14_6:
	add	sp, #48
	pop	{r4, pc}
.Ltmp286:
.Lfunc_end14:
	.size	lv_img_set_angle, .Lfunc_end14-lv_img_set_angle
	.cfi_endproc
	.cantunwind
	.fnend
                                        @ -- End function
	.section	.text.lv_img_set_zoom,"ax",%progbits
	.hidden	lv_img_set_zoom                 @ -- Begin function lv_img_set_zoom
	.globl	lv_img_set_zoom
	.p2align	3
	.type	lv_img_set_zoom,%function
	.code	16                              @ @lv_img_set_zoom
	.thumb_func
lv_img_set_zoom:
.Lfunc_begin15:
	.loc	10 378 0                        @ lvgl/src/lv_widgets/lv_img.c:378:0
	.fnstart
	.cfi_startproc
@ %bb.0:
	.save	{r4, lr}
	push	{r4, lr}
	.cfi_def_cfa_offset 8
	.cfi_offset lr, -4
	.cfi_offset r4, -8
	.pad	#48
	sub	sp, #48
	.cfi_def_cfa_offset 56
                                        @ kill: def $r2 killed $r1
	str	r0, [sp, #44]
	strh.w	r1, [sp, #42]
.Ltmp287:
	.loc	10 379 46 prologue_end          @ lvgl/src/lv_widgets/lv_img.c:379:46
	ldr	r0, [sp, #44]
	.loc	10 379 26 is_stmt 0             @ lvgl/src/lv_widgets/lv_img.c:379:26
	bl	lv_obj_get_ext_attr
	.loc	10 379 20                       @ lvgl/src/lv_widgets/lv_img.c:379:20
	str	r0, [sp, #36]
.Ltmp288:
	.loc	10 380 8 is_stmt 1              @ lvgl/src/lv_widgets/lv_img.c:380:8
	ldrh.w	r0, [sp, #42]
	.loc	10 380 16 is_stmt 0             @ lvgl/src/lv_widgets/lv_img.c:380:16
	ldr	r1, [sp, #36]
	.loc	10 380 21                       @ lvgl/src/lv_widgets/lv_img.c:380:21
	ldrh	r1, [r1, #18]
.Ltmp289:
	.loc	10 380 8                        @ lvgl/src/lv_widgets/lv_img.c:380:8
	cmp	r0, r1
	bne	.LBB15_2
	b	.LBB15_1
.LBB15_1:
.Ltmp290:
	.loc	10 380 27                       @ lvgl/src/lv_widgets/lv_img.c:380:27
	b	.LBB15_5
.Ltmp291:
.LBB15_2:
	.loc	10 382 8 is_stmt 1              @ lvgl/src/lv_widgets/lv_img.c:382:8
	ldrh.w	r0, [sp, #42]
.Ltmp292:
	.loc	10 382 8 is_stmt 0              @ lvgl/src/lv_widgets/lv_img.c:382:8
	cbnz	r0, .LBB15_4
	b	.LBB15_3
.LBB15_3:
	.loc	10 0 8                          @ lvgl/src/lv_widgets/lv_img.c:0:8
	movs	r0, #1
.Ltmp293:
	.loc	10 382 24                       @ lvgl/src/lv_widgets/lv_img.c:382:24
	strh.w	r0, [sp, #42]
	.loc	10 382 19                       @ lvgl/src/lv_widgets/lv_img.c:382:19
	b	.LBB15_4
.Ltmp294:
.LBB15_4:
	.loc	10 384 66 is_stmt 1             @ lvgl/src/lv_widgets/lv_img.c:384:66
	ldr	r0, [sp, #44]
	movs	r1, #0
	.loc	10 384 34 is_stmt 0             @ lvgl/src/lv_widgets/lv_img.c:384:34
	str	r1, [sp, #12]                   @ 4-byte Spill
	bl	lv_obj_get_style_transform_zoom
	ldr	r1, [sp, #12]                   @ 4-byte Reload
	.loc	10 384 20                       @ lvgl/src/lv_widgets/lv_img.c:384:20
	strh.w	r0, [sp, #34]
	.loc	10 386 68 is_stmt 1             @ lvgl/src/lv_widgets/lv_img.c:386:68
	ldr	r0, [sp, #44]
	.loc	10 386 35 is_stmt 0             @ lvgl/src/lv_widgets/lv_img.c:386:35
	bl	lv_obj_get_style_transform_angle
	.loc	10 386 20                       @ lvgl/src/lv_widgets/lv_img.c:386:20
	strh.w	r0, [sp, #32]
	.loc	10 387 21 is_stmt 1             @ lvgl/src/lv_widgets/lv_img.c:387:21
	ldr	r0, [sp, #36]
	ldrh	r1, [r0, #12]
	.loc	10 387 18 is_stmt 0             @ lvgl/src/lv_widgets/lv_img.c:387:18
	ldrh.w	r0, [sp, #32]
	add	r0, r1
	strh.w	r0, [sp, #32]
	.loc	10 389 37 is_stmt 1             @ lvgl/src/lv_widgets/lv_img.c:389:37
	ldr	r0, [sp, #44]
	.loc	10 389 20 is_stmt 0             @ lvgl/src/lv_widgets/lv_img.c:389:20
	bl	lv_obj_get_width
	.loc	10 389 16                       @ lvgl/src/lv_widgets/lv_img.c:389:16
	strh.w	r0, [sp, #30]
	.loc	10 390 38 is_stmt 1             @ lvgl/src/lv_widgets/lv_img.c:390:38
	ldr	r0, [sp, #44]
	.loc	10 390 20 is_stmt 0             @ lvgl/src/lv_widgets/lv_img.c:390:20
	bl	lv_obj_get_height
	.loc	10 390 16                       @ lvgl/src/lv_widgets/lv_img.c:390:16
	strh.w	r0, [sp, #28]
	.loc	10 392 42 is_stmt 1             @ lvgl/src/lv_widgets/lv_img.c:392:42
	ldrsh.w	r1, [sp, #30]
	.loc	10 392 45 is_stmt 0             @ lvgl/src/lv_widgets/lv_img.c:392:45
	ldrsh.w	r2, [sp, #28]
	.loc	10 392 48                       @ lvgl/src/lv_widgets/lv_img.c:392:48
	ldrsh.w	r3, [sp, #32]
	.loc	10 392 63                       @ lvgl/src/lv_widgets/lv_img.c:392:63
	ldrsh.w	r0, [sp, #34]
	.loc	10 392 77                       @ lvgl/src/lv_widgets/lv_img.c:392:77
	ldr.w	r12, [sp, #36]
	.loc	10 392 82                       @ lvgl/src/lv_widgets/lv_img.c:392:82
	ldrh.w	lr, [r12, #18]
	.loc	10 392 75                       @ lvgl/src/lv_widgets/lv_img.c:392:75
	mul	r0, r0, lr
	.loc	10 392 100                      @ lvgl/src/lv_widgets/lv_img.c:392:100
	add.w	lr, r12, #14
	.loc	10 392 5                        @ lvgl/src/lv_widgets/lv_img.c:392:5
	mov	r12, sp
	str.w	lr, [r12, #4]
	ubfx	r0, r0, #8, #16
	str.w	r0, [r12]
	add	r0, sp, #20
	str	r0, [sp, #16]                   @ 4-byte Spill
	bl	_lv_img_buf_get_transformed_area
	ldr	r1, [sp, #16]                   @ 4-byte Reload
	.loc	10 393 13 is_stmt 1             @ lvgl/src/lv_widgets/lv_img.c:393:13
	ldr	r0, [sp, #44]
	ldrh	r0, [r0, #16]
	.loc	10 393 10 is_stmt 0             @ lvgl/src/lv_widgets/lv_img.c:393:10
	ldrh.w	r2, [sp, #20]
	add	r0, r2
	subs	r0, #1
	strh.w	r0, [sp, #20]
	.loc	10 394 13 is_stmt 1             @ lvgl/src/lv_widgets/lv_img.c:394:13
	ldr	r0, [sp, #44]
	ldrh	r0, [r0, #18]
	.loc	10 394 10 is_stmt 0             @ lvgl/src/lv_widgets/lv_img.c:394:10
	ldrh.w	r2, [sp, #22]
	add	r0, r2
	subs	r0, #1
	strh.w	r0, [sp, #22]
	.loc	10 395 13 is_stmt 1             @ lvgl/src/lv_widgets/lv_img.c:395:13
	ldr	r0, [sp, #44]
	ldrh	r0, [r0, #16]
	.loc	10 395 10 is_stmt 0             @ lvgl/src/lv_widgets/lv_img.c:395:10
	ldrh.w	r2, [sp, #24]
	.loc	10 395 28                       @ lvgl/src/lv_widgets/lv_img.c:395:28
	add	r0, r2
	.loc	10 395 10                       @ lvgl/src/lv_widgets/lv_img.c:395:10
	adds	r0, #1
	strh.w	r0, [sp, #24]
	.loc	10 396 13 is_stmt 1             @ lvgl/src/lv_widgets/lv_img.c:396:13
	ldr	r0, [sp, #44]
	ldrh	r0, [r0, #18]
	.loc	10 396 10 is_stmt 0             @ lvgl/src/lv_widgets/lv_img.c:396:10
	ldrh.w	r2, [sp, #26]
	.loc	10 396 28                       @ lvgl/src/lv_widgets/lv_img.c:396:28
	add	r0, r2
	.loc	10 396 10                       @ lvgl/src/lv_widgets/lv_img.c:396:10
	adds	r0, #1
	strh.w	r0, [sp, #26]
	.loc	10 397 28 is_stmt 1             @ lvgl/src/lv_widgets/lv_img.c:397:28
	ldr	r0, [sp, #44]
	.loc	10 397 5 is_stmt 0              @ lvgl/src/lv_widgets/lv_img.c:397:5
	bl	lv_obj_invalidate_area
	.loc	10 399 17 is_stmt 1             @ lvgl/src/lv_widgets/lv_img.c:399:17
	ldrh.w	r0, [sp, #42]
	.loc	10 399 5 is_stmt 0              @ lvgl/src/lv_widgets/lv_img.c:399:5
	ldr	r1, [sp, #36]
	.loc	10 399 15                       @ lvgl/src/lv_widgets/lv_img.c:399:15
	strh	r0, [r1, #18]
	.loc	10 400 33 is_stmt 1             @ lvgl/src/lv_widgets/lv_img.c:400:33
	ldr	r0, [sp, #44]
	.loc	10 400 5 is_stmt 0              @ lvgl/src/lv_widgets/lv_img.c:400:5
	bl	lv_obj_refresh_ext_draw_pad
	ldr	r0, [sp, #16]                   @ 4-byte Reload
	.loc	10 402 42 is_stmt 1             @ lvgl/src/lv_widgets/lv_img.c:402:42
	ldrsh.w	r1, [sp, #30]
	.loc	10 402 45 is_stmt 0             @ lvgl/src/lv_widgets/lv_img.c:402:45
	ldrsh.w	r2, [sp, #28]
	.loc	10 402 48                       @ lvgl/src/lv_widgets/lv_img.c:402:48
	ldrsh.w	r3, [sp, #32]
	.loc	10 402 63                       @ lvgl/src/lv_widgets/lv_img.c:402:63
	ldrsh.w	r12, [sp, #34]
	.loc	10 402 77                       @ lvgl/src/lv_widgets/lv_img.c:402:77
	ldr.w	lr, [sp, #36]
	.loc	10 402 82                       @ lvgl/src/lv_widgets/lv_img.c:402:82
	ldrh.w	r4, [lr, #18]
	.loc	10 402 75                       @ lvgl/src/lv_widgets/lv_img.c:402:75
	mul	r12, r12, r4
	.loc	10 402 100                      @ lvgl/src/lv_widgets/lv_img.c:402:100
	add.w	r4, lr, #14
	.loc	10 402 5                        @ lvgl/src/lv_widgets/lv_img.c:402:5
	mov	lr, sp
	str.w	r4, [lr, #4]
	ubfx	r12, r12, #8, #16
	str.w	r12, [lr]
	bl	_lv_img_buf_get_transformed_area
	ldr	r1, [sp, #16]                   @ 4-byte Reload
	.loc	10 403 13 is_stmt 1             @ lvgl/src/lv_widgets/lv_img.c:403:13
	ldr	r0, [sp, #44]
	ldrh	r0, [r0, #16]
	.loc	10 403 10 is_stmt 0             @ lvgl/src/lv_widgets/lv_img.c:403:10
	ldrh.w	r2, [sp, #20]
	add	r0, r2
	subs	r0, #1
	strh.w	r0, [sp, #20]
	.loc	10 404 13 is_stmt 1             @ lvgl/src/lv_widgets/lv_img.c:404:13
	ldr	r0, [sp, #44]
	ldrh	r0, [r0, #18]
	.loc	10 404 10 is_stmt 0             @ lvgl/src/lv_widgets/lv_img.c:404:10
	ldrh.w	r2, [sp, #22]
	add	r0, r2
	subs	r0, #1
	strh.w	r0, [sp, #22]
	.loc	10 405 13 is_stmt 1             @ lvgl/src/lv_widgets/lv_img.c:405:13
	ldr	r0, [sp, #44]
	ldrh	r0, [r0, #16]
	.loc	10 405 10 is_stmt 0             @ lvgl/src/lv_widgets/lv_img.c:405:10
	ldrh.w	r2, [sp, #24]
	.loc	10 405 28                       @ lvgl/src/lv_widgets/lv_img.c:405:28
	add	r0, r2
	.loc	10 405 10                       @ lvgl/src/lv_widgets/lv_img.c:405:10
	adds	r0, #1
	strh.w	r0, [sp, #24]
	.loc	10 406 13 is_stmt 1             @ lvgl/src/lv_widgets/lv_img.c:406:13
	ldr	r0, [sp, #44]
	ldrh	r0, [r0, #18]
	.loc	10 406 10 is_stmt 0             @ lvgl/src/lv_widgets/lv_img.c:406:10
	ldrh.w	r2, [sp, #26]
	.loc	10 406 28                       @ lvgl/src/lv_widgets/lv_img.c:406:28
	add	r0, r2
	.loc	10 406 10                       @ lvgl/src/lv_widgets/lv_img.c:406:10
	adds	r0, #1
	strh.w	r0, [sp, #26]
	.loc	10 407 28 is_stmt 1             @ lvgl/src/lv_widgets/lv_img.c:407:28
	ldr	r0, [sp, #44]
	.loc	10 407 5 is_stmt 0              @ lvgl/src/lv_widgets/lv_img.c:407:5
	bl	lv_obj_invalidate_area
	.loc	10 408 1 is_stmt 1              @ lvgl/src/lv_widgets/lv_img.c:408:1
	b	.LBB15_5
.LBB15_5:
	add	sp, #48
	pop	{r4, pc}
.Ltmp295:
.Lfunc_end15:
	.size	lv_img_set_zoom, .Lfunc_end15-lv_img_set_zoom
	.cfi_endproc
	.cantunwind
	.fnend
                                        @ -- End function
	.section	.text.lv_img_set_antialias,"ax",%progbits
	.hidden	lv_img_set_antialias            @ -- Begin function lv_img_set_antialias
	.globl	lv_img_set_antialias
	.p2align	3
	.type	lv_img_set_antialias,%function
	.code	16                              @ @lv_img_set_antialias
	.thumb_func
lv_img_set_antialias:
.Lfunc_begin16:
	.loc	10 416 0                        @ lvgl/src/lv_widgets/lv_img.c:416:0
	.fnstart
	.cfi_startproc
@ %bb.0:
	.save	{r7, lr}
	push	{r7, lr}
	.cfi_def_cfa_offset 8
	.cfi_offset lr, -4
	.cfi_offset r7, -8
	.pad	#16
	sub	sp, #16
	.cfi_def_cfa_offset 24
                                        @ kill: def $r2 killed $r1
	str	r0, [sp, #12]
	strb.w	r1, [sp, #11]
.Ltmp296:
	.loc	10 417 46 prologue_end          @ lvgl/src/lv_widgets/lv_img.c:417:46
	ldr	r0, [sp, #12]
	.loc	10 417 26 is_stmt 0             @ lvgl/src/lv_widgets/lv_img.c:417:26
	bl	lv_obj_get_ext_attr
	.loc	10 417 20                       @ lvgl/src/lv_widgets/lv_img.c:417:20
	str	r0, [sp, #4]
.Ltmp297:
	.loc	10 418 8 is_stmt 1              @ lvgl/src/lv_widgets/lv_img.c:418:8
	ldrb.w	r0, [sp, #11]
	and	r0, r0, #1
	.loc	10 418 21 is_stmt 0             @ lvgl/src/lv_widgets/lv_img.c:418:21
	ldr	r1, [sp, #4]
	.loc	10 418 26                       @ lvgl/src/lv_widgets/lv_img.c:418:26
	ldrb	r1, [r1, #21]
	.loc	10 418 21                       @ lvgl/src/lv_widgets/lv_img.c:418:21
	and	r1, r1, #1
.Ltmp298:
	.loc	10 418 8                        @ lvgl/src/lv_widgets/lv_img.c:418:8
	cmp	r0, r1
	bne	.LBB16_2
	b	.LBB16_1
.LBB16_1:
.Ltmp299:
	.loc	10 418 37                       @ lvgl/src/lv_widgets/lv_img.c:418:37
	b	.LBB16_3
.Ltmp300:
.LBB16_2:
	.loc	10 420 22 is_stmt 1             @ lvgl/src/lv_widgets/lv_img.c:420:22
	ldrb.w	r0, [sp, #11]
	and	r2, r0, #1
	.loc	10 420 5 is_stmt 0              @ lvgl/src/lv_widgets/lv_img.c:420:5
	ldr	r1, [sp, #4]
	.loc	10 420 20                       @ lvgl/src/lv_widgets/lv_img.c:420:20
	ldrb	r0, [r1, #21]
	and	r0, r0, #254
	add	r0, r2
	strb	r0, [r1, #21]
	.loc	10 421 23 is_stmt 1             @ lvgl/src/lv_widgets/lv_img.c:421:23
	ldr	r0, [sp, #12]
	.loc	10 421 5 is_stmt 0              @ lvgl/src/lv_widgets/lv_img.c:421:5
	bl	lv_obj_invalidate
	.loc	10 422 1 is_stmt 1              @ lvgl/src/lv_widgets/lv_img.c:422:1
	b	.LBB16_3
.LBB16_3:
	add	sp, #16
	pop	{r7, pc}
.Ltmp301:
.Lfunc_end16:
	.size	lv_img_set_antialias, .Lfunc_end16-lv_img_set_antialias
	.cfi_endproc
	.cantunwind
	.fnend
                                        @ -- End function
	.section	.text.lv_img_get_src,"ax",%progbits
	.hidden	lv_img_get_src                  @ -- Begin function lv_img_get_src
	.globl	lv_img_get_src
	.p2align	3
	.type	lv_img_get_src,%function
	.code	16                              @ @lv_img_get_src
	.thumb_func
lv_img_get_src:
.Lfunc_begin17:
	.loc	10 434 0                        @ lvgl/src/lv_widgets/lv_img.c:434:0
	.fnstart
	.cfi_startproc
@ %bb.0:
	.save	{r7, lr}
	push	{r7, lr}
	.cfi_def_cfa_offset 8
	.cfi_offset lr, -4
	.cfi_offset r7, -8
	.pad	#8
	sub	sp, #8
	.cfi_def_cfa_offset 16
	str	r0, [sp, #4]
.Ltmp302:
	.loc	10 435 5 prologue_end           @ lvgl/src/lv_widgets/lv_img.c:435:5
	b	.LBB17_1
.LBB17_1:
.Ltmp303:
	.loc	10 435 5 is_stmt 0              @ lvgl/src/lv_widgets/lv_img.c:435:5
	ldr	r0, [sp, #4]
	bl	lv_debug_check_null
.Ltmp304:
	.loc	10 435 5                        @ lvgl/src/lv_widgets/lv_img.c:435:5
	cbnz	r0, .LBB17_4
	b	.LBB17_2
.LBB17_2:
.Ltmp305:
	.loc	10 435 5                        @ lvgl/src/lv_widgets/lv_img.c:435:5
	ldr	r2, [sp, #4]
	movw	r0, :lower16:.L.str.1
	movt	r0, :upper16:.L.str.1
	movs	r3, #0
	bl	lv_debug_log_error
	b	.LBB17_3
.LBB17_3:                               @ =>This Inner Loop Header: Depth=1
	b	.LBB17_3
.Ltmp306:
.LBB17_4:
	.loc	10 435 5                        @ lvgl/src/lv_widgets/lv_img.c:435:5
	b	.LBB17_5
.Ltmp307:
.LBB17_5:
	.loc	10 437 46 is_stmt 1             @ lvgl/src/lv_widgets/lv_img.c:437:46
	ldr	r0, [sp, #4]
	.loc	10 437 26 is_stmt 0             @ lvgl/src/lv_widgets/lv_img.c:437:26
	bl	lv_obj_get_ext_attr
	.loc	10 437 20                       @ lvgl/src/lv_widgets/lv_img.c:437:20
	str	r0, [sp]
	.loc	10 439 12 is_stmt 1             @ lvgl/src/lv_widgets/lv_img.c:439:12
	ldr	r0, [sp]
	.loc	10 439 17 is_stmt 0             @ lvgl/src/lv_widgets/lv_img.c:439:17
	ldr	r0, [r0]
	.loc	10 439 5                        @ lvgl/src/lv_widgets/lv_img.c:439:5
	add	sp, #8
	pop	{r7, pc}
.Ltmp308:
.Lfunc_end17:
	.size	lv_img_get_src, .Lfunc_end17-lv_img_get_src
	.cfi_endproc
	.cantunwind
	.fnend
                                        @ -- End function
	.section	.text.lv_img_get_file_name,"ax",%progbits
	.hidden	lv_img_get_file_name            @ -- Begin function lv_img_get_file_name
	.globl	lv_img_get_file_name
	.p2align	3
	.type	lv_img_get_file_name,%function
	.code	16                              @ @lv_img_get_file_name
	.thumb_func
lv_img_get_file_name:
.Lfunc_begin18:
	.loc	10 448 0 is_stmt 1              @ lvgl/src/lv_widgets/lv_img.c:448:0
	.fnstart
	.cfi_startproc
@ %bb.0:
	.save	{r7, lr}
	push	{r7, lr}
	.cfi_def_cfa_offset 8
	.cfi_offset lr, -4
	.cfi_offset r7, -8
	.pad	#16
	sub	sp, #16
	.cfi_def_cfa_offset 24
	str	r0, [sp, #8]
.Ltmp309:
	.loc	10 449 5 prologue_end           @ lvgl/src/lv_widgets/lv_img.c:449:5
	b	.LBB18_1
.LBB18_1:
.Ltmp310:
	.loc	10 449 5 is_stmt 0              @ lvgl/src/lv_widgets/lv_img.c:449:5
	ldr	r0, [sp, #8]
	bl	lv_debug_check_null
.Ltmp311:
	.loc	10 449 5                        @ lvgl/src/lv_widgets/lv_img.c:449:5
	cbnz	r0, .LBB18_4
	b	.LBB18_2
.LBB18_2:
.Ltmp312:
	.loc	10 449 5                        @ lvgl/src/lv_widgets/lv_img.c:449:5
	ldr	r2, [sp, #8]
	movw	r0, :lower16:.L.str.1
	movt	r0, :upper16:.L.str.1
	movs	r3, #0
	bl	lv_debug_log_error
	b	.LBB18_3
.LBB18_3:                               @ =>This Inner Loop Header: Depth=1
	b	.LBB18_3
.Ltmp313:
.LBB18_4:
	.loc	10 449 5                        @ lvgl/src/lv_widgets/lv_img.c:449:5
	b	.LBB18_5
.Ltmp314:
.LBB18_5:
	.loc	10 451 46 is_stmt 1             @ lvgl/src/lv_widgets/lv_img.c:451:46
	ldr	r0, [sp, #8]
	.loc	10 451 26 is_stmt 0             @ lvgl/src/lv_widgets/lv_img.c:451:26
	bl	lv_obj_get_ext_attr
	.loc	10 451 20                       @ lvgl/src/lv_widgets/lv_img.c:451:20
	str	r0, [sp, #4]
.Ltmp315:
	.loc	10 453 8 is_stmt 1              @ lvgl/src/lv_widgets/lv_img.c:453:8
	ldr	r0, [sp, #4]
	.loc	10 453 13 is_stmt 0             @ lvgl/src/lv_widgets/lv_img.c:453:13
	ldrb	r0, [r0, #20]
	and	r0, r0, #3
.Ltmp316:
	.loc	10 453 8                        @ lvgl/src/lv_widgets/lv_img.c:453:8
	cmp	r0, #1
	bne	.LBB18_7
	b	.LBB18_6
.LBB18_6:
.Ltmp317:
	.loc	10 454 16 is_stmt 1             @ lvgl/src/lv_widgets/lv_img.c:454:16
	ldr	r0, [sp, #4]
	.loc	10 454 21 is_stmt 0             @ lvgl/src/lv_widgets/lv_img.c:454:21
	ldr	r0, [r0]
	.loc	10 454 9                        @ lvgl/src/lv_widgets/lv_img.c:454:9
	str	r0, [sp, #12]
	b	.LBB18_8
.LBB18_7:
	.loc	10 456 9 is_stmt 1              @ lvgl/src/lv_widgets/lv_img.c:456:9
	movw	r0, :lower16:.L.str.2
	movt	r0, :upper16:.L.str.2
	str	r0, [sp, #12]
	b	.LBB18_8
.Ltmp318:
.LBB18_8:
	.loc	10 457 1                        @ lvgl/src/lv_widgets/lv_img.c:457:1
	ldr	r0, [sp, #12]
	add	sp, #16
	pop	{r7, pc}
.Ltmp319:
.Lfunc_end18:
	.size	lv_img_get_file_name, .Lfunc_end18-lv_img_get_file_name
	.cfi_endproc
	.cantunwind
	.fnend
                                        @ -- End function
	.section	.text.lv_img_get_offset_x,"ax",%progbits
	.hidden	lv_img_get_offset_x             @ -- Begin function lv_img_get_offset_x
	.globl	lv_img_get_offset_x
	.p2align	3
	.type	lv_img_get_offset_x,%function
	.code	16                              @ @lv_img_get_offset_x
	.thumb_func
lv_img_get_offset_x:
.Lfunc_begin19:
	.loc	10 479 0                        @ lvgl/src/lv_widgets/lv_img.c:479:0
	.fnstart
	.cfi_startproc
@ %bb.0:
	.save	{r7, lr}
	push	{r7, lr}
	.cfi_def_cfa_offset 8
	.cfi_offset lr, -4
	.cfi_offset r7, -8
	.pad	#8
	sub	sp, #8
	.cfi_def_cfa_offset 16
	str	r0, [sp, #4]
.Ltmp320:
	.loc	10 480 5 prologue_end           @ lvgl/src/lv_widgets/lv_img.c:480:5
	b	.LBB19_1
.LBB19_1:
.Ltmp321:
	.loc	10 480 5 is_stmt 0              @ lvgl/src/lv_widgets/lv_img.c:480:5
	ldr	r0, [sp, #4]
	bl	lv_debug_check_null
.Ltmp322:
	.loc	10 480 5                        @ lvgl/src/lv_widgets/lv_img.c:480:5
	cbnz	r0, .LBB19_4
	b	.LBB19_2
.LBB19_2:
.Ltmp323:
	.loc	10 480 5                        @ lvgl/src/lv_widgets/lv_img.c:480:5
	ldr	r2, [sp, #4]
	movw	r0, :lower16:.L.str.1
	movt	r0, :upper16:.L.str.1
	movs	r3, #0
	bl	lv_debug_log_error
	b	.LBB19_3
.LBB19_3:                               @ =>This Inner Loop Header: Depth=1
	b	.LBB19_3
.Ltmp324:
.LBB19_4:
	.loc	10 480 5                        @ lvgl/src/lv_widgets/lv_img.c:480:5
	b	.LBB19_5
.Ltmp325:
.LBB19_5:
	.loc	10 482 46 is_stmt 1             @ lvgl/src/lv_widgets/lv_img.c:482:46
	ldr	r0, [sp, #4]
	.loc	10 482 26 is_stmt 0             @ lvgl/src/lv_widgets/lv_img.c:482:26
	bl	lv_obj_get_ext_attr
	.loc	10 482 20                       @ lvgl/src/lv_widgets/lv_img.c:482:20
	str	r0, [sp]
	.loc	10 484 12 is_stmt 1             @ lvgl/src/lv_widgets/lv_img.c:484:12
	ldr	r0, [sp]
	.loc	10 484 24 is_stmt 0             @ lvgl/src/lv_widgets/lv_img.c:484:24
	ldrsh.w	r0, [r0, #4]
	.loc	10 484 5                        @ lvgl/src/lv_widgets/lv_img.c:484:5
	add	sp, #8
	pop	{r7, pc}
.Ltmp326:
.Lfunc_end19:
	.size	lv_img_get_offset_x, .Lfunc_end19-lv_img_get_offset_x
	.cfi_endproc
	.cantunwind
	.fnend
                                        @ -- End function
	.section	.text.lv_img_get_offset_y,"ax",%progbits
	.hidden	lv_img_get_offset_y             @ -- Begin function lv_img_get_offset_y
	.globl	lv_img_get_offset_y
	.p2align	3
	.type	lv_img_get_offset_y,%function
	.code	16                              @ @lv_img_get_offset_y
	.thumb_func
lv_img_get_offset_y:
.Lfunc_begin20:
	.loc	10 493 0 is_stmt 1              @ lvgl/src/lv_widgets/lv_img.c:493:0
	.fnstart
	.cfi_startproc
@ %bb.0:
	.save	{r7, lr}
	push	{r7, lr}
	.cfi_def_cfa_offset 8
	.cfi_offset lr, -4
	.cfi_offset r7, -8
	.pad	#8
	sub	sp, #8
	.cfi_def_cfa_offset 16
	str	r0, [sp, #4]
.Ltmp327:
	.loc	10 494 5 prologue_end           @ lvgl/src/lv_widgets/lv_img.c:494:5
	b	.LBB20_1
.LBB20_1:
.Ltmp328:
	.loc	10 494 5 is_stmt 0              @ lvgl/src/lv_widgets/lv_img.c:494:5
	ldr	r0, [sp, #4]
	bl	lv_debug_check_null
.Ltmp329:
	.loc	10 494 5                        @ lvgl/src/lv_widgets/lv_img.c:494:5
	cbnz	r0, .LBB20_4
	b	.LBB20_2
.LBB20_2:
.Ltmp330:
	.loc	10 494 5                        @ lvgl/src/lv_widgets/lv_img.c:494:5
	ldr	r2, [sp, #4]
	movw	r0, :lower16:.L.str.1
	movt	r0, :upper16:.L.str.1
	movs	r3, #0
	bl	lv_debug_log_error
	b	.LBB20_3
.LBB20_3:                               @ =>This Inner Loop Header: Depth=1
	b	.LBB20_3
.Ltmp331:
.LBB20_4:
	.loc	10 494 5                        @ lvgl/src/lv_widgets/lv_img.c:494:5
	b	.LBB20_5
.Ltmp332:
.LBB20_5:
	.loc	10 496 46 is_stmt 1             @ lvgl/src/lv_widgets/lv_img.c:496:46
	ldr	r0, [sp, #4]
	.loc	10 496 26 is_stmt 0             @ lvgl/src/lv_widgets/lv_img.c:496:26
	bl	lv_obj_get_ext_attr
	.loc	10 496 20                       @ lvgl/src/lv_widgets/lv_img.c:496:20
	str	r0, [sp]
	.loc	10 498 12 is_stmt 1             @ lvgl/src/lv_widgets/lv_img.c:498:12
	ldr	r0, [sp]
	.loc	10 498 24 is_stmt 0             @ lvgl/src/lv_widgets/lv_img.c:498:24
	ldrsh.w	r0, [r0, #6]
	.loc	10 498 5                        @ lvgl/src/lv_widgets/lv_img.c:498:5
	add	sp, #8
	pop	{r7, pc}
.Ltmp333:
.Lfunc_end20:
	.size	lv_img_get_offset_y, .Lfunc_end20-lv_img_get_offset_y
	.cfi_endproc
	.cantunwind
	.fnend
                                        @ -- End function
	.section	.text.lv_img_get_pivot,"ax",%progbits
	.hidden	lv_img_get_pivot                @ -- Begin function lv_img_get_pivot
	.globl	lv_img_get_pivot
	.p2align	3
	.type	lv_img_get_pivot,%function
	.code	16                              @ @lv_img_get_pivot
	.thumb_func
lv_img_get_pivot:
.Lfunc_begin21:
	.loc	10 507 0 is_stmt 1              @ lvgl/src/lv_widgets/lv_img.c:507:0
	.fnstart
	.cfi_startproc
@ %bb.0:
	.save	{r7, lr}
	push	{r7, lr}
	.cfi_def_cfa_offset 8
	.cfi_offset lr, -4
	.cfi_offset r7, -8
	.pad	#16
	sub	sp, #16
	.cfi_def_cfa_offset 24
	str	r0, [sp, #12]
	str	r1, [sp, #8]
.Ltmp334:
	.loc	10 508 5 prologue_end           @ lvgl/src/lv_widgets/lv_img.c:508:5
	b	.LBB21_1
.LBB21_1:
.Ltmp335:
	.loc	10 508 5 is_stmt 0              @ lvgl/src/lv_widgets/lv_img.c:508:5
	ldr	r0, [sp, #12]
	bl	lv_debug_check_null
.Ltmp336:
	.loc	10 508 5                        @ lvgl/src/lv_widgets/lv_img.c:508:5
	cbnz	r0, .LBB21_4
	b	.LBB21_2
.LBB21_2:
.Ltmp337:
	.loc	10 508 5                        @ lvgl/src/lv_widgets/lv_img.c:508:5
	ldr	r2, [sp, #12]
	movw	r0, :lower16:.L.str.1
	movt	r0, :upper16:.L.str.1
	movs	r3, #0
	bl	lv_debug_log_error
	b	.LBB21_3
.LBB21_3:                               @ =>This Inner Loop Header: Depth=1
	b	.LBB21_3
.Ltmp338:
.LBB21_4:
	.loc	10 508 5                        @ lvgl/src/lv_widgets/lv_img.c:508:5
	b	.LBB21_5
.Ltmp339:
.LBB21_5:
	.loc	10 510 46 is_stmt 1             @ lvgl/src/lv_widgets/lv_img.c:510:46
	ldr	r0, [sp, #12]
	.loc	10 510 26 is_stmt 0             @ lvgl/src/lv_widgets/lv_img.c:510:26
	bl	lv_obj_get_ext_attr
	.loc	10 510 20                       @ lvgl/src/lv_widgets/lv_img.c:510:20
	str	r0, [sp, #4]
	.loc	10 512 6 is_stmt 1              @ lvgl/src/lv_widgets/lv_img.c:512:6
	ldr	r1, [sp, #8]
	.loc	10 512 14 is_stmt 0             @ lvgl/src/lv_widgets/lv_img.c:512:14
	ldr	r0, [sp, #4]
	.loc	10 512 19                       @ lvgl/src/lv_widgets/lv_img.c:512:19
	ldr.w	r0, [r0, #14]
	str	r0, [r1]
	.loc	10 513 1 is_stmt 1              @ lvgl/src/lv_widgets/lv_img.c:513:1
	add	sp, #16
	pop	{r7, pc}
.Ltmp340:
.Lfunc_end21:
	.size	lv_img_get_pivot, .Lfunc_end21-lv_img_get_pivot
	.cfi_endproc
	.cantunwind
	.fnend
                                        @ -- End function
	.section	.text.lv_img_get_angle,"ax",%progbits
	.hidden	lv_img_get_angle                @ -- Begin function lv_img_get_angle
	.globl	lv_img_get_angle
	.p2align	3
	.type	lv_img_get_angle,%function
	.code	16                              @ @lv_img_get_angle
	.thumb_func
lv_img_get_angle:
.Lfunc_begin22:
	.loc	10 521 0                        @ lvgl/src/lv_widgets/lv_img.c:521:0
	.fnstart
	.cfi_startproc
@ %bb.0:
	.save	{r7, lr}
	push	{r7, lr}
	.cfi_def_cfa_offset 8
	.cfi_offset lr, -4
	.cfi_offset r7, -8
	.pad	#8
	sub	sp, #8
	.cfi_def_cfa_offset 16
	str	r0, [sp, #4]
.Ltmp341:
	.loc	10 522 5 prologue_end           @ lvgl/src/lv_widgets/lv_img.c:522:5
	b	.LBB22_1
.LBB22_1:
.Ltmp342:
	.loc	10 522 5 is_stmt 0              @ lvgl/src/lv_widgets/lv_img.c:522:5
	ldr	r0, [sp, #4]
	bl	lv_debug_check_null
.Ltmp343:
	.loc	10 522 5                        @ lvgl/src/lv_widgets/lv_img.c:522:5
	cbnz	r0, .LBB22_4
	b	.LBB22_2
.LBB22_2:
.Ltmp344:
	.loc	10 522 5                        @ lvgl/src/lv_widgets/lv_img.c:522:5
	ldr	r2, [sp, #4]
	movw	r0, :lower16:.L.str.1
	movt	r0, :upper16:.L.str.1
	movs	r3, #0
	bl	lv_debug_log_error
	b	.LBB22_3
.LBB22_3:                               @ =>This Inner Loop Header: Depth=1
	b	.LBB22_3
.Ltmp345:
.LBB22_4:
	.loc	10 522 5                        @ lvgl/src/lv_widgets/lv_img.c:522:5
	b	.LBB22_5
.Ltmp346:
.LBB22_5:
	.loc	10 524 46 is_stmt 1             @ lvgl/src/lv_widgets/lv_img.c:524:46
	ldr	r0, [sp, #4]
	.loc	10 524 26 is_stmt 0             @ lvgl/src/lv_widgets/lv_img.c:524:26
	bl	lv_obj_get_ext_attr
	.loc	10 524 20                       @ lvgl/src/lv_widgets/lv_img.c:524:20
	str	r0, [sp]
	.loc	10 526 12 is_stmt 1             @ lvgl/src/lv_widgets/lv_img.c:526:12
	ldr	r0, [sp]
	.loc	10 526 17 is_stmt 0             @ lvgl/src/lv_widgets/lv_img.c:526:17
	ldrh	r0, [r0, #12]
	.loc	10 526 5                        @ lvgl/src/lv_widgets/lv_img.c:526:5
	add	sp, #8
	pop	{r7, pc}
.Ltmp347:
.Lfunc_end22:
	.size	lv_img_get_angle, .Lfunc_end22-lv_img_get_angle
	.cfi_endproc
	.cantunwind
	.fnend
                                        @ -- End function
	.section	.text.lv_img_get_zoom,"ax",%progbits
	.hidden	lv_img_get_zoom                 @ -- Begin function lv_img_get_zoom
	.globl	lv_img_get_zoom
	.p2align	3
	.type	lv_img_get_zoom,%function
	.code	16                              @ @lv_img_get_zoom
	.thumb_func
lv_img_get_zoom:
.Lfunc_begin23:
	.loc	10 535 0 is_stmt 1              @ lvgl/src/lv_widgets/lv_img.c:535:0
	.fnstart
	.cfi_startproc
@ %bb.0:
	.save	{r7, lr}
	push	{r7, lr}
	.cfi_def_cfa_offset 8
	.cfi_offset lr, -4
	.cfi_offset r7, -8
	.pad	#8
	sub	sp, #8
	.cfi_def_cfa_offset 16
	str	r0, [sp, #4]
.Ltmp348:
	.loc	10 536 5 prologue_end           @ lvgl/src/lv_widgets/lv_img.c:536:5
	b	.LBB23_1
.LBB23_1:
.Ltmp349:
	.loc	10 536 5 is_stmt 0              @ lvgl/src/lv_widgets/lv_img.c:536:5
	ldr	r0, [sp, #4]
	bl	lv_debug_check_null
.Ltmp350:
	.loc	10 536 5                        @ lvgl/src/lv_widgets/lv_img.c:536:5
	cbnz	r0, .LBB23_4
	b	.LBB23_2
.LBB23_2:
.Ltmp351:
	.loc	10 536 5                        @ lvgl/src/lv_widgets/lv_img.c:536:5
	ldr	r2, [sp, #4]
	movw	r0, :lower16:.L.str.1
	movt	r0, :upper16:.L.str.1
	movs	r3, #0
	bl	lv_debug_log_error
	b	.LBB23_3
.LBB23_3:                               @ =>This Inner Loop Header: Depth=1
	b	.LBB23_3
.Ltmp352:
.LBB23_4:
	.loc	10 536 5                        @ lvgl/src/lv_widgets/lv_img.c:536:5
	b	.LBB23_5
.Ltmp353:
.LBB23_5:
	.loc	10 538 46 is_stmt 1             @ lvgl/src/lv_widgets/lv_img.c:538:46
	ldr	r0, [sp, #4]
	.loc	10 538 26 is_stmt 0             @ lvgl/src/lv_widgets/lv_img.c:538:26
	bl	lv_obj_get_ext_attr
	.loc	10 538 20                       @ lvgl/src/lv_widgets/lv_img.c:538:20
	str	r0, [sp]
	.loc	10 540 12 is_stmt 1             @ lvgl/src/lv_widgets/lv_img.c:540:12
	ldr	r0, [sp]
	.loc	10 540 17 is_stmt 0             @ lvgl/src/lv_widgets/lv_img.c:540:17
	ldrh	r0, [r0, #18]
	.loc	10 540 5                        @ lvgl/src/lv_widgets/lv_img.c:540:5
	add	sp, #8
	pop	{r7, pc}
.Ltmp354:
.Lfunc_end23:
	.size	lv_img_get_zoom, .Lfunc_end23-lv_img_get_zoom
	.cfi_endproc
	.cantunwind
	.fnend
                                        @ -- End function
	.section	.text.lv_img_get_antialias,"ax",%progbits
	.hidden	lv_img_get_antialias            @ -- Begin function lv_img_get_antialias
	.globl	lv_img_get_antialias
	.p2align	3
	.type	lv_img_get_antialias,%function
	.code	16                              @ @lv_img_get_antialias
	.thumb_func
lv_img_get_antialias:
.Lfunc_begin24:
	.loc	10 549 0 is_stmt 1              @ lvgl/src/lv_widgets/lv_img.c:549:0
	.fnstart
	.cfi_startproc
@ %bb.0:
	.save	{r7, lr}
	push	{r7, lr}
	.cfi_def_cfa_offset 8
	.cfi_offset lr, -4
	.cfi_offset r7, -8
	.pad	#8
	sub	sp, #8
	.cfi_def_cfa_offset 16
	str	r0, [sp, #4]
.Ltmp355:
	.loc	10 550 5 prologue_end           @ lvgl/src/lv_widgets/lv_img.c:550:5
	b	.LBB24_1
.LBB24_1:
.Ltmp356:
	.loc	10 550 5 is_stmt 0              @ lvgl/src/lv_widgets/lv_img.c:550:5
	ldr	r0, [sp, #4]
	bl	lv_debug_check_null
.Ltmp357:
	.loc	10 550 5                        @ lvgl/src/lv_widgets/lv_img.c:550:5
	cbnz	r0, .LBB24_4
	b	.LBB24_2
.LBB24_2:
.Ltmp358:
	.loc	10 550 5                        @ lvgl/src/lv_widgets/lv_img.c:550:5
	ldr	r2, [sp, #4]
	movw	r0, :lower16:.L.str.1
	movt	r0, :upper16:.L.str.1
	movs	r3, #0
	bl	lv_debug_log_error
	b	.LBB24_3
.LBB24_3:                               @ =>This Inner Loop Header: Depth=1
	b	.LBB24_3
.Ltmp359:
.LBB24_4:
	.loc	10 550 5                        @ lvgl/src/lv_widgets/lv_img.c:550:5
	b	.LBB24_5
.Ltmp360:
.LBB24_5:
	.loc	10 552 46 is_stmt 1             @ lvgl/src/lv_widgets/lv_img.c:552:46
	ldr	r0, [sp, #4]
	.loc	10 552 26 is_stmt 0             @ lvgl/src/lv_widgets/lv_img.c:552:26
	bl	lv_obj_get_ext_attr
	.loc	10 552 20                       @ lvgl/src/lv_widgets/lv_img.c:552:20
	str	r0, [sp]
	.loc	10 554 12 is_stmt 1             @ lvgl/src/lv_widgets/lv_img.c:554:12
	ldr	r0, [sp]
	.loc	10 554 17 is_stmt 0             @ lvgl/src/lv_widgets/lv_img.c:554:17
	ldrb	r0, [r0, #21]
	.loc	10 554 12                       @ lvgl/src/lv_widgets/lv_img.c:554:12
	and	r0, r0, #1
	.loc	10 554 5                        @ lvgl/src/lv_widgets/lv_img.c:554:5
	add	sp, #8
	pop	{r7, pc}
.Ltmp361:
.Lfunc_end24:
	.size	lv_img_get_antialias, .Lfunc_end24-lv_img_get_antialias
	.cfi_endproc
	.cantunwind
	.fnend
                                        @ -- End function
	.section	.text.lv_obj_get_style_clip_corner,"ax",%progbits
	.p2align	3                               @ -- Begin function lv_obj_get_style_clip_corner
	.type	lv_obj_get_style_clip_corner,%function
	.code	16                              @ @lv_obj_get_style_clip_corner
	.thumb_func
lv_obj_get_style_clip_corner:
.Lfunc_begin25:
	.loc	18 93 0 is_stmt 1               @ lvgl/src/lv_widgets/../lv_core/lv_obj_style_dec.h:93:0
	.fnstart
	.cfi_startproc
@ %bb.0:
	.save	{r7, lr}
	push	{r7, lr}
	.cfi_def_cfa_offset 8
	.cfi_offset lr, -4
	.cfi_offset r7, -8
	.pad	#8
	sub	sp, #8
	.cfi_def_cfa_offset 16
                                        @ kill: def $r2 killed $r1
	str	r0, [sp, #4]
	strb.w	r1, [sp, #3]
.Ltmp362:
	.loc	18 93 1 prologue_end            @ lvgl/src/lv_widgets/../lv_core/lv_obj_style_dec.h:93:1
	ldr	r0, [sp, #4]
	ldrb.w	r1, [sp, #3]
	movs	r2, #2
	bl	_lv_obj_get_style_int
	cmp	r0, #0
	it	ne
	movne	r0, #1
	add	sp, #8
	pop	{r7, pc}
.Ltmp363:
.Lfunc_end25:
	.size	lv_obj_get_style_clip_corner, .Lfunc_end25-lv_obj_get_style_clip_corner
	.cfi_endproc
	.cantunwind
	.fnend
                                        @ -- End function
	.section	.text.lv_obj_get_style_image_opa,"ax",%progbits
	.p2align	3                               @ -- Begin function lv_obj_get_style_image_opa
	.type	lv_obj_get_style_image_opa,%function
	.code	16                              @ @lv_obj_get_style_image_opa
	.thumb_func
lv_obj_get_style_image_opa:
.Lfunc_begin26:
	.loc	18 168 0                        @ lvgl/src/lv_widgets/../lv_core/lv_obj_style_dec.h:168:0
	.fnstart
	.cfi_startproc
@ %bb.0:
	.save	{r7, lr}
	push	{r7, lr}
	.cfi_def_cfa_offset 8
	.cfi_offset lr, -4
	.cfi_offset r7, -8
	.pad	#8
	sub	sp, #8
	.cfi_def_cfa_offset 16
                                        @ kill: def $r2 killed $r1
	str	r0, [sp, #4]
	strb.w	r1, [sp, #3]
.Ltmp364:
	.loc	18 168 1 prologue_end           @ lvgl/src/lv_widgets/../lv_core/lv_obj_style_dec.h:168:1
	ldr	r0, [sp, #4]
	ldrb.w	r1, [sp, #3]
	movw	r2, #32940
	bl	_lv_obj_get_style_opa
	add	sp, #8
	pop	{r7, pc}
.Ltmp365:
.Lfunc_end26:
	.size	lv_obj_get_style_image_opa, .Lfunc_end26-lv_obj_get_style_image_opa
	.cfi_endproc
	.cantunwind
	.fnend
                                        @ -- End function
	.section	.text.lv_obj_get_style_bg_blend_mode,"ax",%progbits
	.p2align	3                               @ -- Begin function lv_obj_get_style_bg_blend_mode
	.type	lv_obj_get_style_bg_blend_mode,%function
	.code	16                              @ @lv_obj_get_style_bg_blend_mode
	.thumb_func
lv_obj_get_style_bg_blend_mode:
.Lfunc_begin27:
	.loc	18 109 0                        @ lvgl/src/lv_widgets/../lv_core/lv_obj_style_dec.h:109:0
	.fnstart
	.cfi_startproc
@ %bb.0:
	.save	{r7, lr}
	push	{r7, lr}
	.cfi_def_cfa_offset 8
	.cfi_offset lr, -4
	.cfi_offset r7, -8
	.pad	#8
	sub	sp, #8
	.cfi_def_cfa_offset 16
                                        @ kill: def $r2 killed $r1
	str	r0, [sp, #4]
	strb.w	r1, [sp, #3]
.Ltmp366:
	.loc	18 109 1 prologue_end           @ lvgl/src/lv_widgets/../lv_core/lv_obj_style_dec.h:109:1
	ldr	r0, [sp, #4]
	ldrb.w	r1, [sp, #3]
	movs	r2, #32
	bl	_lv_obj_get_style_int
	uxtb	r0, r0
	add	sp, #8
	pop	{r7, pc}
.Ltmp367:
.Lfunc_end27:
	.size	lv_obj_get_style_bg_blend_mode, .Lfunc_end27-lv_obj_get_style_bg_blend_mode
	.cfi_endproc
	.cantunwind
	.fnend
                                        @ -- End function
	.section	.text.lv_obj_get_style_image_blend_mode,"ax",%progbits
	.p2align	3                               @ -- Begin function lv_obj_get_style_image_blend_mode
	.type	lv_obj_get_style_image_blend_mode,%function
	.code	16                              @ @lv_obj_get_style_image_blend_mode
	.thumb_func
lv_obj_get_style_image_blend_mode:
.Lfunc_begin28:
	.loc	18 166 0                        @ lvgl/src/lv_widgets/../lv_core/lv_obj_style_dec.h:166:0
	.fnstart
	.cfi_startproc
@ %bb.0:
	.save	{r7, lr}
	push	{r7, lr}
	.cfi_def_cfa_offset 8
	.cfi_offset lr, -4
	.cfi_offset r7, -8
	.pad	#8
	sub	sp, #8
	.cfi_def_cfa_offset 16
                                        @ kill: def $r2 killed $r1
	str	r0, [sp, #4]
	strb.w	r1, [sp, #3]
.Ltmp368:
	.loc	18 166 1 prologue_end           @ lvgl/src/lv_widgets/../lv_core/lv_obj_style_dec.h:166:1
	ldr	r0, [sp, #4]
	ldrb.w	r1, [sp, #3]
	movw	r2, #32928
	bl	_lv_obj_get_style_int
	uxtb	r0, r0
	add	sp, #8
	pop	{r7, pc}
.Ltmp369:
.Lfunc_end28:
	.size	lv_obj_get_style_image_blend_mode, .Lfunc_end28-lv_obj_get_style_image_blend_mode
	.cfi_endproc
	.cantunwind
	.fnend
                                        @ -- End function
	.section	.text.lv_obj_get_style_border_post,"ax",%progbits
	.p2align	3                               @ -- Begin function lv_obj_get_style_border_post
	.type	lv_obj_get_style_border_post,%function
	.code	16                              @ @lv_obj_get_style_border_post
	.thumb_func
lv_obj_get_style_border_post:
.Lfunc_begin29:
	.loc	18 119 0                        @ lvgl/src/lv_widgets/../lv_core/lv_obj_style_dec.h:119:0
	.fnstart
	.cfi_startproc
@ %bb.0:
	.save	{r7, lr}
	push	{r7, lr}
	.cfi_def_cfa_offset 8
	.cfi_offset lr, -4
	.cfi_offset r7, -8
	.pad	#8
	sub	sp, #8
	.cfi_def_cfa_offset 16
                                        @ kill: def $r2 killed $r1
	str	r0, [sp, #4]
	strb.w	r1, [sp, #3]
.Ltmp370:
	.loc	18 119 1 prologue_end           @ lvgl/src/lv_widgets/../lv_core/lv_obj_style_dec.h:119:1
	ldr	r0, [sp, #4]
	ldrb.w	r1, [sp, #3]
	movs	r2, #51
	bl	_lv_obj_get_style_int
	cmp	r0, #0
	it	ne
	movne	r0, #1
	add	sp, #8
	pop	{r7, pc}
.Ltmp371:
.Lfunc_end29:
	.size	lv_obj_get_style_border_post, .Lfunc_end29-lv_obj_get_style_border_post
	.cfi_endproc
	.cantunwind
	.fnend
                                        @ -- End function
	.section	.text.lv_obj_get_style_pad_left,"ax",%progbits
	.p2align	3                               @ -- Begin function lv_obj_get_style_pad_left
	.type	lv_obj_get_style_pad_left,%function
	.code	16                              @ @lv_obj_get_style_pad_left
	.thumb_func
lv_obj_get_style_pad_left:
.Lfunc_begin30:
	.loc	18 102 0                        @ lvgl/src/lv_widgets/../lv_core/lv_obj_style_dec.h:102:0
	.fnstart
	.cfi_startproc
@ %bb.0:
	.save	{r7, lr}
	push	{r7, lr}
	.cfi_def_cfa_offset 8
	.cfi_offset lr, -4
	.cfi_offset r7, -8
	.pad	#8
	sub	sp, #8
	.cfi_def_cfa_offset 16
                                        @ kill: def $r2 killed $r1
	str	r0, [sp, #4]
	strb.w	r1, [sp, #3]
.Ltmp372:
	.loc	18 102 1 prologue_end           @ lvgl/src/lv_widgets/../lv_core/lv_obj_style_dec.h:102:1
	ldr	r0, [sp, #4]
	ldrb.w	r1, [sp, #3]
	movs	r2, #18
	bl	_lv_obj_get_style_int
	add	sp, #8
	pop	{r7, pc}
.Ltmp373:
.Lfunc_end30:
	.size	lv_obj_get_style_pad_left, .Lfunc_end30-lv_obj_get_style_pad_left
	.cfi_endproc
	.cantunwind
	.fnend
                                        @ -- End function
	.section	.text.lv_obj_get_style_pad_right,"ax",%progbits
	.p2align	3                               @ -- Begin function lv_obj_get_style_pad_right
	.type	lv_obj_get_style_pad_right,%function
	.code	16                              @ @lv_obj_get_style_pad_right
	.thumb_func
lv_obj_get_style_pad_right:
.Lfunc_begin31:
	.loc	18 103 0                        @ lvgl/src/lv_widgets/../lv_core/lv_obj_style_dec.h:103:0
	.fnstart
	.cfi_startproc
@ %bb.0:
	.save	{r7, lr}
	push	{r7, lr}
	.cfi_def_cfa_offset 8
	.cfi_offset lr, -4
	.cfi_offset r7, -8
	.pad	#8
	sub	sp, #8
	.cfi_def_cfa_offset 16
                                        @ kill: def $r2 killed $r1
	str	r0, [sp, #4]
	strb.w	r1, [sp, #3]
.Ltmp374:
	.loc	18 103 1 prologue_end           @ lvgl/src/lv_widgets/../lv_core/lv_obj_style_dec.h:103:1
	ldr	r0, [sp, #4]
	ldrb.w	r1, [sp, #3]
	movs	r2, #19
	bl	_lv_obj_get_style_int
	add	sp, #8
	pop	{r7, pc}
.Ltmp375:
.Lfunc_end31:
	.size	lv_obj_get_style_pad_right, .Lfunc_end31-lv_obj_get_style_pad_right
	.cfi_endproc
	.cantunwind
	.fnend
                                        @ -- End function
	.section	.text.lv_obj_get_style_pad_top,"ax",%progbits
	.p2align	3                               @ -- Begin function lv_obj_get_style_pad_top
	.type	lv_obj_get_style_pad_top,%function
	.code	16                              @ @lv_obj_get_style_pad_top
	.thumb_func
lv_obj_get_style_pad_top:
.Lfunc_begin32:
	.loc	18 100 0                        @ lvgl/src/lv_widgets/../lv_core/lv_obj_style_dec.h:100:0
	.fnstart
	.cfi_startproc
@ %bb.0:
	.save	{r7, lr}
	push	{r7, lr}
	.cfi_def_cfa_offset 8
	.cfi_offset lr, -4
	.cfi_offset r7, -8
	.pad	#8
	sub	sp, #8
	.cfi_def_cfa_offset 16
                                        @ kill: def $r2 killed $r1
	str	r0, [sp, #4]
	strb.w	r1, [sp, #3]
.Ltmp376:
	.loc	18 100 1 prologue_end           @ lvgl/src/lv_widgets/../lv_core/lv_obj_style_dec.h:100:1
	ldr	r0, [sp, #4]
	ldrb.w	r1, [sp, #3]
	movs	r2, #16
	bl	_lv_obj_get_style_int
	add	sp, #8
	pop	{r7, pc}
.Ltmp377:
.Lfunc_end32:
	.size	lv_obj_get_style_pad_top, .Lfunc_end32-lv_obj_get_style_pad_top
	.cfi_endproc
	.cantunwind
	.fnend
                                        @ -- End function
	.section	.text.lv_obj_get_style_pad_bottom,"ax",%progbits
	.p2align	3                               @ -- Begin function lv_obj_get_style_pad_bottom
	.type	lv_obj_get_style_pad_bottom,%function
	.code	16                              @ @lv_obj_get_style_pad_bottom
	.thumb_func
lv_obj_get_style_pad_bottom:
.Lfunc_begin33:
	.loc	18 101 0                        @ lvgl/src/lv_widgets/../lv_core/lv_obj_style_dec.h:101:0
	.fnstart
	.cfi_startproc
@ %bb.0:
	.save	{r7, lr}
	push	{r7, lr}
	.cfi_def_cfa_offset 8
	.cfi_offset lr, -4
	.cfi_offset r7, -8
	.pad	#8
	sub	sp, #8
	.cfi_def_cfa_offset 16
                                        @ kill: def $r2 killed $r1
	str	r0, [sp, #4]
	strb.w	r1, [sp, #3]
.Ltmp378:
	.loc	18 101 1 prologue_end           @ lvgl/src/lv_widgets/../lv_core/lv_obj_style_dec.h:101:1
	ldr	r0, [sp, #4]
	ldrb.w	r1, [sp, #3]
	movs	r2, #17
	bl	_lv_obj_get_style_int
	add	sp, #8
	pop	{r7, pc}
.Ltmp379:
.Lfunc_end33:
	.size	lv_obj_get_style_pad_bottom, .Lfunc_end33-lv_obj_get_style_pad_bottom
	.cfi_endproc
	.cantunwind
	.fnend
                                        @ -- End function
	.section	.text.lv_obj_get_style_radius,"ax",%progbits
	.p2align	3                               @ -- Begin function lv_obj_get_style_radius
	.type	lv_obj_get_style_radius,%function
	.code	16                              @ @lv_obj_get_style_radius
	.thumb_func
lv_obj_get_style_radius:
.Lfunc_begin34:
	.loc	18 92 0                         @ lvgl/src/lv_widgets/../lv_core/lv_obj_style_dec.h:92:0
	.fnstart
	.cfi_startproc
@ %bb.0:
	.save	{r7, lr}
	push	{r7, lr}
	.cfi_def_cfa_offset 8
	.cfi_offset lr, -4
	.cfi_offset r7, -8
	.pad	#8
	sub	sp, #8
	.cfi_def_cfa_offset 16
                                        @ kill: def $r2 killed $r1
	str	r0, [sp, #4]
	strb.w	r1, [sp, #3]
.Ltmp380:
	.loc	18 92 1 prologue_end            @ lvgl/src/lv_widgets/../lv_core/lv_obj_style_dec.h:92:1
	ldr	r0, [sp, #4]
	ldrb.w	r1, [sp, #3]
	movs	r2, #1
	bl	_lv_obj_get_style_int
	add	sp, #8
	pop	{r7, pc}
.Ltmp381:
.Lfunc_end34:
	.size	lv_obj_get_style_radius, .Lfunc_end34-lv_obj_get_style_radius
	.cfi_endproc
	.cantunwind
	.fnend
                                        @ -- End function
	.section	.text.lv_obj_get_style_image_recolor,"ax",%progbits
	.p2align	3                               @ -- Begin function lv_obj_get_style_image_recolor
	.type	lv_obj_get_style_image_recolor,%function
	.code	16                              @ @lv_obj_get_style_image_recolor
	.thumb_func
lv_obj_get_style_image_recolor:
.Lfunc_begin35:
	.loc	18 167 0                        @ lvgl/src/lv_widgets/../lv_core/lv_obj_style_dec.h:167:0
	.fnstart
	.cfi_startproc
@ %bb.0:
	.save	{r7, lr}
	push	{r7, lr}
	.cfi_def_cfa_offset 8
	.cfi_offset lr, -4
	.cfi_offset r7, -8
	.pad	#16
	sub	sp, #16
	.cfi_def_cfa_offset 24
                                        @ kill: def $r2 killed $r1
	str	r0, [sp, #8]
	strb.w	r1, [sp, #7]
.Ltmp382:
	.loc	18 167 1 prologue_end           @ lvgl/src/lv_widgets/../lv_core/lv_obj_style_dec.h:167:1
	ldr	r0, [sp, #8]
	ldrb.w	r1, [sp, #7]
	movw	r2, #32937
	bl	_lv_obj_get_style_color
	str	r0, [sp, #12]
	ldr	r0, [sp, #12]
	add	sp, #16
	pop	{r7, pc}
.Ltmp383:
.Lfunc_end35:
	.size	lv_obj_get_style_image_recolor, .Lfunc_end35-lv_obj_get_style_image_recolor
	.cfi_endproc
	.cantunwind
	.fnend
                                        @ -- End function
	.section	.text.lv_area_get_width,"ax",%progbits
	.p2align	3                               @ -- Begin function lv_area_get_width
	.type	lv_area_get_width,%function
	.code	16                              @ @lv_area_get_width
	.thumb_func
lv_area_get_width:
.Lfunc_begin36:
	.loc	6 108 0                         @ lvgl/src/lv_widgets/../lv_core/../lv_hal/../lv_misc/lv_area.h:108:0
	.fnstart
	.cfi_startproc
@ %bb.0:
	.pad	#4
	sub	sp, #4
	.cfi_def_cfa_offset 4
	str	r0, [sp]
.Ltmp384:
	.loc	6 109 25 prologue_end           @ lvgl/src/lv_widgets/../lv_core/../lv_hal/../lv_misc/lv_area.h:109:25
	ldr	r1, [sp]
	ldrh	r0, [r1, #4]
	.loc	6 109 38 is_stmt 0              @ lvgl/src/lv_widgets/../lv_core/../lv_hal/../lv_misc/lv_area.h:109:38
	ldrh	r1, [r1]
	.loc	6 109 36                        @ lvgl/src/lv_widgets/../lv_core/../lv_hal/../lv_misc/lv_area.h:109:36
	subs	r0, r0, r1
	.loc	6 109 49                        @ lvgl/src/lv_widgets/../lv_core/../lv_hal/../lv_misc/lv_area.h:109:49
	adds	r0, #1
	.loc	6 109 5                         @ lvgl/src/lv_widgets/../lv_core/../lv_hal/../lv_misc/lv_area.h:109:5
	sxth	r0, r0
	add	sp, #4
	bx	lr
.Ltmp385:
.Lfunc_end36:
	.size	lv_area_get_width, .Lfunc_end36-lv_area_get_width
	.cfi_endproc
	.cantunwind
	.fnend
                                        @ -- End function
	.section	.text.lv_area_get_height,"ax",%progbits
	.p2align	3                               @ -- Begin function lv_area_get_height
	.type	lv_area_get_height,%function
	.code	16                              @ @lv_area_get_height
	.thumb_func
lv_area_get_height:
.Lfunc_begin37:
	.loc	6 118 0 is_stmt 1               @ lvgl/src/lv_widgets/../lv_core/../lv_hal/../lv_misc/lv_area.h:118:0
	.fnstart
	.cfi_startproc
@ %bb.0:
	.pad	#4
	sub	sp, #4
	.cfi_def_cfa_offset 4
	str	r0, [sp]
.Ltmp386:
	.loc	6 119 25 prologue_end           @ lvgl/src/lv_widgets/../lv_core/../lv_hal/../lv_misc/lv_area.h:119:25
	ldr	r1, [sp]
	ldrh	r0, [r1, #6]
	.loc	6 119 38 is_stmt 0              @ lvgl/src/lv_widgets/../lv_core/../lv_hal/../lv_misc/lv_area.h:119:38
	ldrh	r1, [r1, #2]
	.loc	6 119 36                        @ lvgl/src/lv_widgets/../lv_core/../lv_hal/../lv_misc/lv_area.h:119:36
	subs	r0, r0, r1
	.loc	6 119 49                        @ lvgl/src/lv_widgets/../lv_core/../lv_hal/../lv_misc/lv_area.h:119:49
	adds	r0, #1
	.loc	6 119 5                         @ lvgl/src/lv_widgets/../lv_core/../lv_hal/../lv_misc/lv_area.h:119:5
	sxth	r0, r0
	add	sp, #4
	bx	lr
.Ltmp387:
.Lfunc_end37:
	.size	lv_area_get_height, .Lfunc_end37-lv_area_get_height
	.cfi_endproc
	.cantunwind
	.fnend
                                        @ -- End function
	.section	.text.lv_img_get_style,"ax",%progbits
	.p2align	3                               @ -- Begin function lv_img_get_style
	.type	lv_img_get_style,%function
	.code	16                              @ @lv_img_get_style
	.thumb_func
lv_img_get_style:
.Lfunc_begin38:
	.loc	10 874 0 is_stmt 1              @ lvgl/src/lv_widgets/lv_img.c:874:0
	.fnstart
	.cfi_startproc
@ %bb.0:
	.pad	#12
	sub	sp, #12
	.cfi_def_cfa_offset 12
                                        @ kill: def $r2 killed $r1
	str	r0, [sp, #8]
	strb.w	r1, [sp, #7]
.Ltmp388:
	.loc	10 876 12 prologue_end          @ lvgl/src/lv_widgets/lv_img.c:876:12
	ldrb.w	r0, [sp, #7]
	.loc	10 876 5 is_stmt 0              @ lvgl/src/lv_widgets/lv_img.c:876:5
	cbnz	r0, .LBB38_2
	b	.LBB38_1
.LBB38_1:
.Ltmp389:
	.loc	10 878 28 is_stmt 1             @ lvgl/src/lv_widgets/lv_img.c:878:28
	ldr	r0, [sp, #8]
	.loc	10 878 33 is_stmt 0             @ lvgl/src/lv_widgets/lv_img.c:878:33
	adds	r0, #40
	.loc	10 878 25                       @ lvgl/src/lv_widgets/lv_img.c:878:25
	str	r0, [sp]
	.loc	10 879 13 is_stmt 1             @ lvgl/src/lv_widgets/lv_img.c:879:13
	b	.LBB38_3
.LBB38_2:
	.loc	10 0 13 is_stmt 0               @ lvgl/src/lv_widgets/lv_img.c:0:13
	movs	r0, #0
	.loc	10 881 25 is_stmt 1             @ lvgl/src/lv_widgets/lv_img.c:881:25
	str	r0, [sp]
	.loc	10 882 5                        @ lvgl/src/lv_widgets/lv_img.c:882:5
	b	.LBB38_3
.Ltmp390:
.LBB38_3:
	.loc	10 884 12                       @ lvgl/src/lv_widgets/lv_img.c:884:12
	ldr	r0, [sp]
	.loc	10 884 5 is_stmt 0              @ lvgl/src/lv_widgets/lv_img.c:884:5
	add	sp, #12
	bx	lr
.Ltmp391:
.Lfunc_end38:
	.size	lv_img_get_style, .Lfunc_end38-lv_img_get_style
	.cfi_endproc
	.cantunwind
	.fnend
                                        @ -- End function
	.type	.L.str,%object                  @ @.str
	.section	.rodata.str1.1,"aMS",%progbits,1
.L.str:
	.asciz	"Out of memory"
	.size	.L.str, 14

	.type	ancestor_signal,%object         @ @ancestor_signal
	.section	.bss.ancestor_signal,"aw",%nobits
	.p2align	2
ancestor_signal:
	.long	0
	.size	ancestor_signal, 4

	.type	.L.str.1,%object                @ @.str.1
	.section	.rodata.str1.1,"aMS",%progbits,1
.L.str.1:
	.asciz	"NULL pointer"
	.size	.L.str.1, 13

	.type	.L.str.2,%object                @ @.str.2
.L.str.2:
	.zero	1
	.size	.L.str.2, 1

	.type	.L.str.3,%object                @ @.str.3
.L.str.3:
	.asciz	"lv_img"
	.size	.L.str.3, 7

	.file	19 "E:\\STM32\\Learning\\STM32H750_ART_PI_RGBLCD" "lvgl/src/lv_widgets/../lv_font/lv_font.h"
	.file	20 "E:\\STM32\\Learning\\STM32H750_ART_PI_RGBLCD" "lvgl/src/lv_widgets/../lv_core/../lv_draw/lv_draw_rect.h"
	.file	21 "E:\\STM32\\Learning\\STM32H750_ART_PI_RGBLCD" "lvgl/src/lv_widgets/../lv_core/../lv_draw/lv_draw_mask.h"
	.file	22 "E:\\STM32\\Learning\\STM32H750_ART_PI_RGBLCD" "lvgl/src/lv_widgets/../lv_misc/lv_math.h"
	.file	23 "E:\\STM32\\Learning\\STM32H750_ART_PI_RGBLCD" "lvgl/src/lv_widgets/../lv_core/../lv_draw/lv_draw_img.h"
	.file	24 "E:\\STM32\\Learning\\STM32H750_ART_PI_RGBLCD" "lvgl/src/lv_widgets/../lv_core/../lv_draw/lv_draw_label.h"
	.section	".note.GNU-stack","",%progbits
	.eabi_attribute	30, 6	@ Tag_ABI_optimization_goals
	.ARM_attribute	16, 1	@ Tag_AV_eba