	.text
	.syntax unified
	.eabi_attribute	67, "2.09"	@ Tag_conformance
	.cpu	cortex-m7
	.eabi_attribute	6, 13	@ Tag_CPU_arch
	.eabi_attribute	7, 77	@ Tag_CPU_arch_profile
	.eabi_attribute	8, 0	@ Tag_ARM_ISA_use
	.eabi_attribute	9, 2	@ Tag_THUMB_ISA_use
	.fpu	fpv5-d16
	.eabi_attribute	36, 1	@ Tag_FP_HP_extension
	.eabi_attribute	34, 1	@ Tag_CPU_unaligned_access
	.eabi_attribute	17, 1	@ Tag_ABI_PCS_GOT_use
	.eabi_attribute	20, 2	@ Tag_ABI_FP_denormal
	.eabi_attribute	21, 0	@ Tag_ABI_FP_exceptions
	.eabi_attribute	23, 1	@ Tag_ABI_FP_number_model
	.eabi_attribute	24, 1	@ Tag_ABI_align_needed
	.eabi_attribute	25, 1	@ Tag_ABI_align_preserved
	.eabi_attribute	28, 1	@ Tag_ABI_VFP_args
	.eabi_attribute	38, 1	@ Tag_ABI_FP_16bit_format
	.eabi_attribute	18, 2	@ Tag_ABI_PCS_wchar_t
	.eabi_attribute	26, 1	@ Tag_ABI_enum_size
	.eabi_attribute	14, 0	@ Tag_ABI_PCS_R9_use
	.file	"lv_keyboard.c"
	.file	1 "D:\\Keil_v5\\ARM\\ARMCLANG\\Bin\\..\\include" "stdint.h"
	.file	2 "E:\\STM32\\Learning\\STM32H750_ART_PI_RGBLCD" "lvgl/src/lv_widgets/../lv_core/../lv_draw/../lv_misc/lv_types.h"
	.file	3 "E:\\STM32\\Learning\\STM32H750_ART_PI_RGBLCD" "lvgl/src/lv_widgets/../lv_themes/../lv_core/lv_obj.h"
	.file	4 "E:\\STM32\\Learning\\STM32H750_ART_PI_RGBLCD" "lvgl/src/lv_widgets/../lv_core/../lv_font/../lv_misc/lv_ll.h"
	.file	5 "E:\\STM32\\Learning\\STM32H750_ART_PI_RGBLCD" "./lvgl/src/lv_conf.h"
	.file	6 "E:\\STM32\\Learning\\STM32H750_ART_PI_RGBLCD" "lvgl/src/lv_widgets/../lv_core/../lv_hal/../lv_misc/lv_area.h"
	.file	7 "E:\\STM32\\Learning\\STM32H750_ART_PI_RGBLCD" "lvgl/src/lv_widgets/../lv_themes/../lv_core/lv_style.h"
	.file	8 "E:\\STM32\\Learning\\STM32H750_ART_PI_RGBLCD" "lvgl/src/lv_widgets/../lv_core/../lv_hal/lv_hal_indev.h"
	.file	9 "E:\\STM32\\Learning\\STM32H750_ART_PI_RGBLCD" "lvgl/src/lv_widgets/../lv_core/../lv_draw/../lv_misc/lv_bidi.h"
	.file	10 "E:\\STM32\\Learning\\STM32H750_ART_PI_RGBLCD" "lvgl/src/lv_widgets/lv_keyboard.c"
	.file	11 "E:\\STM32\\Learning\\STM32H750_ART_PI_RGBLCD" "lvgl/src/lv_widgets/lv_btnmatrix.h"
	.file	12 "E:\\STM32\\Learning\\STM32H750_ART_PI_RGBLCD" "lvgl/src/lv_widgets/lv_keyboard.h"
	.file	13 "E:\\STM32\\Learning\\STM32H750_ART_PI_RGBLCD" "lvgl/src/lv_widgets/../lv_themes/lv_theme.h"
	.section	.text.lv_keyboard_create,"ax",%progbits
	.hidden	lv_keyboard_create              @ -- Begin function lv_keyboard_create
	.globl	lv_keyboard_create
	.p2align	3
	.type	lv_keyboard_create,%function
	.code	16                              @ @lv_keyboard_create
	.thumb_func
lv_keyboard_create:
.Lfunc_begin0:
	.loc	10 163 0                        @ lvgl/src/lv_widgets/lv_keyboard.c:163:0
	.fnstart
	.cfi_sections .debug_frame
	.cfi_startproc
@ %bb.0:
	.save	{r7, lr}
	push	{r7, lr}
	.cfi_def_cfa_offset 8
	.cfi_offset lr, -4
	.cfi_offset r7, -8
	.pad	#40
	sub	sp, #40
	.cfi_def_cfa_offset 48
	str	r0, [sp, #32]
	str	r1, [sp, #28]
.Ltmp0:
	.loc	10 167 41 prologue_end          @ lvgl/src/lv_widgets/lv_keyboard.c:167:41
	ldr	r0, [sp, #32]
	.loc	10 167 46 is_stmt 0             @ lvgl/src/lv_widgets/lv_keyboard.c:167:46
	ldr	r1, [sp, #28]
	.loc	10 167 21                       @ lvgl/src/lv_widgets/lv_keyboard.c:167:21
	bl	lv_btnmatrix_create
	.loc	10 167 16                       @ lvgl/src/lv_widgets/lv_keyboard.c:167:16
	str	r0, [sp, #24]
	.loc	10 168 5 is_stmt 1              @ lvgl/src/lv_widgets/lv_keyboard.c:168:5
	b	.LBB0_1
.LBB0_1:
.Ltmp1:
	.loc	10 168 5 is_stmt 0              @ lvgl/src/lv_widgets/lv_keyboard.c:168:5
	ldr	r0, [sp, #24]
	bl	lv_debug_check_null
.Ltmp2:
	.loc	10 168 5                        @ lvgl/src/lv_widgets/lv_keyboard.c:168:5
	cbnz	r0, .LBB0_4
	b	.LBB0_2
.LBB0_2:
.Ltmp3:
	.loc	10 168 5                        @ lvgl/src/lv_widgets/lv_keyboard.c:168:5
	ldr	r2, [sp, #24]
	movw	r0, :lower16:.L.str
	movt	r0, :upper16:.L.str
	movs	r3, #0
	bl	lv_debug_log_error
	b	.LBB0_3
.LBB0_3:                                @ =>This Inner Loop Header: Depth=1
	b	.LBB0_3
.Ltmp4:
.LBB0_4:
	.loc	10 168 5                        @ lvgl/src/lv_widgets/lv_keyboard.c:168:5
	b	.LBB0_5
.Ltmp5:
.LBB0_5:
	.loc	10 169 8 is_stmt 1              @ lvgl/src/lv_widgets/lv_keyboard.c:169:8
	ldr	r0, [sp, #24]
.Ltmp6:
	.loc	10 169 8 is_stmt 0              @ lvgl/src/lv_widgets/lv_keyboard.c:169:8
	cbnz	r0, .LBB0_7
	b	.LBB0_6
.LBB0_6:
	.loc	10 0 8                          @ lvgl/src/lv_widgets/lv_keyboard.c:0:8
	movs	r0, #0
.Ltmp7:
	.loc	10 169 20                       @ lvgl/src/lv_widgets/lv_keyboard.c:169:20
	str	r0, [sp, #36]
	b	.LBB0_20
.Ltmp8:
.LBB0_7:
	.loc	10 171 8 is_stmt 1              @ lvgl/src/lv_widgets/lv_keyboard.c:171:8
	movw	r0, :lower16:ancestor_signal
	movt	r0, :upper16:ancestor_signal
	ldr	r0, [r0]
.Ltmp9:
	.loc	10 171 8 is_stmt 0              @ lvgl/src/lv_widgets/lv_keyboard.c:171:8
	cbnz	r0, .LBB0_9
	b	.LBB0_8
.LBB0_8:
.Ltmp10:
	.loc	10 171 72                       @ lvgl/src/lv_widgets/lv_keyboard.c:171:72
	ldr	r0, [sp, #24]
	.loc	10 171 51                       @ lvgl/src/lv_widgets/lv_keyboard.c:171:51
	bl	lv_obj_get_signal_cb
	.loc	10 171 49                       @ lvgl/src/lv_widgets/lv_keyboard.c:171:49
	movw	r1, :lower16:ancestor_signal
	movt	r1, :upper16:ancestor_signal
	str	r0, [r1]
	.loc	10 171 33                       @ lvgl/src/lv_widgets/lv_keyboard.c:171:33
	b	.LBB0_9
.Ltmp11:
.LBB0_9:
	.loc	10 174 56 is_stmt 1             @ lvgl/src/lv_widgets/lv_keyboard.c:174:56
	ldr	r0, [sp, #24]
	movs	r1, #40
	.loc	10 174 31 is_stmt 0             @ lvgl/src/lv_widgets/lv_keyboard.c:174:31
	bl	lv_obj_allocate_ext_attr
	.loc	10 174 25                       @ lvgl/src/lv_widgets/lv_keyboard.c:174:25
	str	r0, [sp, #20]
	.loc	10 175 5 is_stmt 1              @ lvgl/src/lv_widgets/lv_keyboard.c:175:5
	b	.LBB0_10
.LBB0_10:
.Ltmp12:
	.loc	10 175 5 is_stmt 0              @ lvgl/src/lv_widgets/lv_keyboard.c:175:5
	ldr	r0, [sp, #20]
	bl	lv_debug_check_null
.Ltmp13:
	.loc	10 175 5                        @ lvgl/src/lv_widgets/lv_keyboard.c:175:5
	cbnz	r0, .LBB0_13
	b	.LBB0_11
.LBB0_11:
.Ltmp14:
	.loc	10 175 5                        @ lvgl/src/lv_widgets/lv_keyboard.c:175:5
	ldr	r2, [sp, #20]
	movw	r0, :lower16:.L.str
	movt	r0, :upper16:.L.str
	movs	r3, #0
	bl	lv_debug_log_error
	b	.LBB0_12
.LBB0_12:                               @ =>This Inner Loop Header: Depth=1
	b	.LBB0_12
.Ltmp15:
.LBB0_13:
	.loc	10 175 5                        @ lvgl/src/lv_widgets/lv_keyboard.c:175:5
	b	.LBB0_14
.Ltmp16:
.LBB0_14:
	.loc	10 176 8 is_stmt 1              @ lvgl/src/lv_widgets/lv_keyboard.c:176:8
	ldr	r0, [sp, #20]
.Ltmp17:
	.loc	10 176 8 is_stmt 0              @ lvgl/src/lv_widgets/lv_keyboard.c:176:8
	cbnz	r0, .LBB0_16
	b	.LBB0_15
.LBB0_15:
.Ltmp18:
	.loc	10 177 20 is_stmt 1             @ lvgl/src/lv_widgets/lv_keyboard.c:177:20
	ldr	r0, [sp, #24]
	.loc	10 177 9 is_stmt 0              @ lvgl/src/lv_widgets/lv_keyboard.c:177:9
	bl	lv_obj_del
	movs	r0, #0
	.loc	10 178 9 is_stmt 1              @ lvgl/src/lv_widgets/lv_keyboard.c:178:9
	str	r0, [sp, #36]
	b	.LBB0_20
.Ltmp19:
.LBB0_16:
	.loc	10 182 5                        @ lvgl/src/lv_widgets/lv_keyboard.c:182:5
	ldr	r1, [sp, #20]
	movs	r0, #0
	.loc	10 182 21 is_stmt 0             @ lvgl/src/lv_widgets/lv_keyboard.c:182:21
	str	r0, [r1, #32]
	.loc	10 183 5 is_stmt 1              @ lvgl/src/lv_widgets/lv_keyboard.c:183:5
	ldr	r1, [sp, #20]
	.loc	10 183 21 is_stmt 0             @ lvgl/src/lv_widgets/lv_keyboard.c:183:21
	strb.w	r0, [r1, #36]
	.loc	10 184 5 is_stmt 1              @ lvgl/src/lv_widgets/lv_keyboard.c:184:5
	ldr	r1, [sp, #20]
	.loc	10 184 21 is_stmt 0             @ lvgl/src/lv_widgets/lv_keyboard.c:184:21
	ldrb.w	r0, [r1, #37]
	and	r0, r0, #254
	strb.w	r0, [r1, #37]
	.loc	10 187 26 is_stmt 1             @ lvgl/src/lv_widgets/lv_keyboard.c:187:26
	ldr	r0, [sp, #24]
	.loc	10 187 5 is_stmt 0              @ lvgl/src/lv_widgets/lv_keyboard.c:187:5
	movw	r1, :lower16:lv_keyboard_signal
	movt	r1, :upper16:lv_keyboard_signal
	bl	lv_obj_set_signal_cb
.Ltmp20:
	.loc	10 190 8 is_stmt 1              @ lvgl/src/lv_widgets/lv_keyboard.c:190:8
	ldr	r0, [sp, #28]
.Ltmp21:
	.loc	10 190 8 is_stmt 0              @ lvgl/src/lv_widgets/lv_keyboard.c:190:8
	cmp	r0, #0
	bne	.LBB0_18
	b	.LBB0_17
.LBB0_17:
.Ltmp22:
	.loc	10 194 25 is_stmt 1             @ lvgl/src/lv_widgets/lv_keyboard.c:194:25
	ldr	r0, [sp, #24]
	.loc	10 194 50 is_stmt 0             @ lvgl/src/lv_widgets/lv_keyboard.c:194:50
	str	r0, [sp, #8]                    @ 4-byte Spill
	bl	lv_obj_get_parent
	.loc	10 194 29                       @ lvgl/src/lv_widgets/lv_keyboard.c:194:29
	bl	lv_obj_get_width_fit
	.loc	10 195 65 is_stmt 1             @ lvgl/src/lv_widgets/lv_keyboard.c:195:65
	str	r0, [sp, #4]                    @ 4-byte Spill
	ldr	r0, [sp, #24]
	.loc	10 195 47 is_stmt 0             @ lvgl/src/lv_widgets/lv_keyboard.c:195:47
	bl	lv_obj_get_parent
	.loc	10 195 25                       @ lvgl/src/lv_widgets/lv_keyboard.c:195:25
	bl	lv_obj_get_height_fit
	ldr	r1, [sp, #4]                    @ 4-byte Reload
	mov	r2, r0
	.loc	10 195 70                       @ lvgl/src/lv_widgets/lv_keyboard.c:195:70
	ldr	r0, [sp, #8]                    @ 4-byte Reload
	add.w	r2, r2, r2, lsr #31
	asrs	r2, r2, #1
	.loc	10 194 9 is_stmt 1              @ lvgl/src/lv_widgets/lv_keyboard.c:194:9
	bl	lv_obj_set_size
	.loc	10 196 22                       @ lvgl/src/lv_widgets/lv_keyboard.c:196:22
	ldr	r0, [sp, #24]
	.loc	10 196 9 is_stmt 0              @ lvgl/src/lv_widgets/lv_keyboard.c:196:9
	mov	r1, sp
	movs	r3, #0
	str	r3, [sp, #12]                   @ 4-byte Spill
	str	r3, [r1]
	movs	r2, #5
	mov	r1, r3
	bl	lv_obj_align
	.loc	10 197 29 is_stmt 1             @ lvgl/src/lv_widgets/lv_keyboard.c:197:29
	ldr	r0, [sp, #24]
	.loc	10 197 9 is_stmt 0              @ lvgl/src/lv_widgets/lv_keyboard.c:197:9
	movw	r1, :lower16:lv_keyboard_def_event_cb
	movt	r1, :upper16:lv_keyboard_def_event_cb
	bl	lv_obj_set_event_cb
	ldr	r1, [sp, #12]                   @ 4-byte Reload
	.loc	10 198 29 is_stmt 1             @ lvgl/src/lv_widgets/lv_keyboard.c:198:29
	ldr	r0, [sp, #24]
	.loc	10 198 9 is_stmt 0              @ lvgl/src/lv_widgets/lv_keyboard.c:198:9
	bl	lv_obj_set_base_dir
	.loc	10 199 28 is_stmt 1             @ lvgl/src/lv_widgets/lv_keyboard.c:199:28
	ldr	r0, [sp, #24]
	movs	r1, #32
	.loc	10 199 9 is_stmt 0              @ lvgl/src/lv_widgets/lv_keyboard.c:199:9
	bl	lv_obj_add_protect
	.loc	10 201 30 is_stmt 1             @ lvgl/src/lv_widgets/lv_keyboard.c:201:30
	ldr	r0, [sp, #24]
	.loc	10 201 41 is_stmt 0             @ lvgl/src/lv_widgets/lv_keyboard.c:201:41
	ldr	r1, [sp, #20]
	.loc	10 201 46                       @ lvgl/src/lv_widgets/lv_keyboard.c:201:46
	ldrb.w	r2, [r1, #36]
	.loc	10 201 34                       @ lvgl/src/lv_widgets/lv_keyboard.c:201:34
	movw	r1, :lower16:kb_map
	movt	r1, :upper16:kb_map
	ldr.w	r1, [r1, r2, lsl #2]
	.loc	10 201 9                        @ lvgl/src/lv_widgets/lv_keyboard.c:201:9
	bl	lv_btnmatrix_set_map
	.loc	10 202 35 is_stmt 1             @ lvgl/src/lv_widgets/lv_keyboard.c:202:35
	ldr	r0, [sp, #24]
	.loc	10 202 47 is_stmt 0             @ lvgl/src/lv_widgets/lv_keyboard.c:202:47
	ldr	r1, [sp, #20]
	.loc	10 202 52                       @ lvgl/src/lv_widgets/lv_keyboard.c:202:52
	ldrb.w	r2, [r1, #36]
	.loc	10 202 39                       @ lvgl/src/lv_widgets/lv_keyboard.c:202:39
	movw	r1, :lower16:kb_ctrl
	movt	r1, :upper16:kb_ctrl
	ldr.w	r1, [r1, r2, lsl #2]
	.loc	10 202 9                        @ lvgl/src/lv_widgets/lv_keyboard.c:202:9
	bl	lv_btnmatrix_set_ctrl_map
	.loc	10 204 24 is_stmt 1             @ lvgl/src/lv_widgets/lv_keyboard.c:204:24
	ldr	r0, [sp, #24]
	movs	r1, #17
	.loc	10 204 9 is_stmt 0              @ lvgl/src/lv_widgets/lv_keyboard.c:204:9
	bl	lv_theme_apply
	.loc	10 205 5 is_stmt 1              @ lvgl/src/lv_widgets/lv_keyboard.c:205:5
	b	.LBB0_19
.Ltmp23:
.LBB0_18:
	.loc	10 208 60                       @ lvgl/src/lv_widgets/lv_keyboard.c:208:60
	ldr	r0, [sp, #28]
	.loc	10 208 40 is_stmt 0             @ lvgl/src/lv_widgets/lv_keyboard.c:208:40
	bl	lv_obj_get_ext_attr
	.loc	10 208 29                       @ lvgl/src/lv_widgets/lv_keyboard.c:208:29
	str	r0, [sp, #16]
	.loc	10 209 34 is_stmt 1             @ lvgl/src/lv_widgets/lv_keyboard.c:209:34
	ldr	r0, [sp, #16]
	.loc	10 209 44 is_stmt 0             @ lvgl/src/lv_widgets/lv_keyboard.c:209:44
	ldr	r0, [r0, #32]
	.loc	10 209 9                        @ lvgl/src/lv_widgets/lv_keyboard.c:209:9
	ldr	r1, [sp, #20]
	.loc	10 209 32                       @ lvgl/src/lv_widgets/lv_keyboard.c:209:32
	str	r0, [r1, #32]
	.loc	10 210 34 is_stmt 1             @ lvgl/src/lv_widgets/lv_keyboard.c:210:34
	ldr	r0, [sp, #16]
	.loc	10 210 44 is_stmt 0             @ lvgl/src/lv_widgets/lv_keyboard.c:210:44
	ldrb.w	r0, [r0, #36]
	.loc	10 210 9                        @ lvgl/src/lv_widgets/lv_keyboard.c:210:9
	ldr	r1, [sp, #20]
	.loc	10 210 32                       @ lvgl/src/lv_widgets/lv_keyboard.c:210:32
	strb.w	r0, [r1, #36]
	.loc	10 211 34 is_stmt 1             @ lvgl/src/lv_widgets/lv_keyboard.c:211:34
	ldr	r0, [sp, #16]
	.loc	10 211 44 is_stmt 0             @ lvgl/src/lv_widgets/lv_keyboard.c:211:44
	ldrb.w	r0, [r0, #37]
	and	r2, r0, #1
	.loc	10 211 9                        @ lvgl/src/lv_widgets/lv_keyboard.c:211:9
	ldr	r1, [sp, #20]
	.loc	10 211 32                       @ lvgl/src/lv_widgets/lv_keyboard.c:211:32
	ldrb.w	r0, [r1, #37]
	and	r0, r0, #254
	add	r0, r2
	strb.w	r0, [r1, #37]
	.loc	10 213 30 is_stmt 1             @ lvgl/src/lv_widgets/lv_keyboard.c:213:30
	ldr	r0, [sp, #24]
	.loc	10 213 41 is_stmt 0             @ lvgl/src/lv_widgets/lv_keyboard.c:213:41
	ldr	r1, [sp, #20]
	.loc	10 213 46                       @ lvgl/src/lv_widgets/lv_keyboard.c:213:46
	ldrb.w	r2, [r1, #36]
	.loc	10 213 34                       @ lvgl/src/lv_widgets/lv_keyboard.c:213:34
	movw	r1, :lower16:kb_map
	movt	r1, :upper16:kb_map
	ldr.w	r1, [r1, r2, lsl #2]
	.loc	10 213 9                        @ lvgl/src/lv_widgets/lv_keyboard.c:213:9
	bl	lv_btnmatrix_set_map
	.loc	10 214 35 is_stmt 1             @ lvgl/src/lv_widgets/lv_keyboard.c:214:35
	ldr	r0, [sp, #24]
	.loc	10 214 47 is_stmt 0             @ lvgl/src/lv_widgets/lv_keyboard.c:214:47
	ldr	r1, [sp, #20]
	.loc	10 214 52                       @ lvgl/src/lv_widgets/lv_keyboard.c:214:52
	ldrb.w	r2, [r1, #36]
	.loc	10 214 39                       @ lvgl/src/lv_widgets/lv_keyboard.c:214:39
	movw	r1, :lower16:kb_ctrl
	movt	r1, :upper16:kb_ctrl
	ldr.w	r1, [r1, r2, lsl #2]
	.loc	10 214 9                        @ lvgl/src/lv_widgets/lv_keyboard.c:214:9
	bl	lv_btnmatrix_set_ctrl_map
	b	.LBB0_19
.Ltmp24:
.LBB0_19:
	.loc	10 222 12 is_stmt 1             @ lvgl/src/lv_widgets/lv_keyboard.c:222:12
	ldr	r0, [sp, #24]
	.loc	10 222 5 is_stmt 0              @ lvgl/src/lv_widgets/lv_keyboard.c:222:5
	str	r0, [sp, #36]
	b	.LBB0_20
.LBB0_20:
	.loc	10 223 1 is_stmt 1              @ lvgl/src/lv_widgets/lv_keyboard.c:223:1
	ldr	r0, [sp, #36]
	add	sp, #40
	pop	{r7, pc}
.Ltmp25:
.Lfunc_end0:
	.size	lv_keyboard_create, .Lfunc_end0-lv_keyboard_create
	.cfi_endproc
	.cantunwind
	.fnend
                                        @ -- End function
	.section	.text.lv_keyboard_signal,"ax",%progbits
	.p2align	3                               @ -- Begin function lv_keyboard_signal
	.type	lv_keyboard_signal,%function
	.code	16                              @ @lv_keyboard_signal
	.thumb_func
lv_keyboard_signal:
.Lfunc_begin1:
	.loc	10 494 0                        @ lvgl/src/lv_widgets/lv_keyboard.c:494:0
	.fnstart
	.cfi_startproc
@ %bb.0:
	.save	{r7, lr}
	push	{r7, lr}
	.cfi_def_cfa_offset 8
	.cfi_offset lr, -4
	.cfi_offset r7, -8
	.pad	#32
	sub	sp, #32
	.cfi_def_cfa_offset 40
                                        @ kill: def $r3 killed $r1
	str	r0, [sp, #24]
	strb.w	r1, [sp, #23]
	str	r2, [sp, #16]
.Ltmp26:
	.loc	10 498 11 prologue_end          @ lvgl/src/lv_widgets/lv_keyboard.c:498:11
	movw	r0, :lower16:ancestor_signal
	movt	r0, :upper16:ancestor_signal
	ldr	r3, [r0]
	.loc	10 498 27 is_stmt 0             @ lvgl/src/lv_widgets/lv_keyboard.c:498:27
	ldr	r0, [sp, #24]
	.loc	10 498 31                       @ lvgl/src/lv_widgets/lv_keyboard.c:498:31
	ldrb.w	r1, [sp, #23]
	.loc	10 498 37                       @ lvgl/src/lv_widgets/lv_keyboard.c:498:37
	ldr	r2, [sp, #16]
	.loc	10 498 11                       @ lvgl/src/lv_widgets/lv_keyboard.c:498:11
	blx	r3
	.loc	10 498 9                        @ lvgl/src/lv_widgets/lv_keyboard.c:498:9
	strb.w	r0, [sp, #15]
.Ltmp27:
	.loc	10 499 8 is_stmt 1              @ lvgl/src/lv_widgets/lv_keyboard.c:499:8
	ldrb.w	r0, [sp, #15]
.Ltmp28:
	.loc	10 499 8 is_stmt 0              @ lvgl/src/lv_widgets/lv_keyboard.c:499:8
	cmp	r0, #1
	beq	.LBB1_2
	b	.LBB1_1
.LBB1_1:
.Ltmp29:
	.loc	10 499 33                       @ lvgl/src/lv_widgets/lv_keyboard.c:499:33
	ldrb.w	r0, [sp, #15]
	.loc	10 499 26                       @ lvgl/src/lv_widgets/lv_keyboard.c:499:26
	strb.w	r0, [sp, #31]
	b	.LBB1_19
.Ltmp30:
.LBB1_2:
	.loc	10 500 8 is_stmt 1              @ lvgl/src/lv_widgets/lv_keyboard.c:500:8
	ldrb.w	r0, [sp, #23]
.Ltmp31:
	.loc	10 500 8 is_stmt 0              @ lvgl/src/lv_widgets/lv_keyboard.c:500:8
	cmp	r0, #7
	bne	.LBB1_4
	b	.LBB1_3
.LBB1_3:
.Ltmp32:
	.loc	10 500 73                       @ lvgl/src/lv_widgets/lv_keyboard.c:500:73
	ldr	r0, [sp, #16]
	.loc	10 500 43                       @ lvgl/src/lv_widgets/lv_keyboard.c:500:43
	movw	r1, :lower16:.L.str.105
	movt	r1, :upper16:.L.str.105
	bl	lv_obj_handle_get_type_signal
	.loc	10 500 36                       @ lvgl/src/lv_widgets/lv_keyboard.c:500:36
	strb.w	r0, [sp, #31]
	b	.LBB1_19
.Ltmp33:
.LBB1_4:
	.loc	10 502 8 is_stmt 1              @ lvgl/src/lv_widgets/lv_keyboard.c:502:8
	ldrb.w	r0, [sp, #23]
.Ltmp34:
	.loc	10 502 8 is_stmt 0              @ lvgl/src/lv_widgets/lv_keyboard.c:502:8
	cbnz	r0, .LBB1_6
	b	.LBB1_5
.LBB1_5:
.Ltmp35:
	.loc	10 504 5 is_stmt 1              @ lvgl/src/lv_widgets/lv_keyboard.c:504:5
	b	.LBB1_18
.Ltmp36:
.LBB1_6:
	.loc	10 505 13                       @ lvgl/src/lv_widgets/lv_keyboard.c:505:13
	ldrb.w	r0, [sp, #23]
.Ltmp37:
	.loc	10 505 13 is_stmt 0             @ lvgl/src/lv_widgets/lv_keyboard.c:505:13
	cmp	r0, #22
	bne	.LBB1_11
	b	.LBB1_7
.LBB1_7:
.Ltmp38:
	.loc	10 506 55 is_stmt 1             @ lvgl/src/lv_widgets/lv_keyboard.c:506:55
	ldr	r0, [sp, #24]
	.loc	10 506 35 is_stmt 0             @ lvgl/src/lv_widgets/lv_keyboard.c:506:35
	bl	lv_obj_get_ext_attr
	.loc	10 506 29                       @ lvgl/src/lv_widgets/lv_keyboard.c:506:29
	str	r0, [sp, #8]
.Ltmp39:
	.loc	10 508 12 is_stmt 1             @ lvgl/src/lv_widgets/lv_keyboard.c:508:12
	ldr	r0, [sp, #8]
	.loc	10 508 17 is_stmt 0             @ lvgl/src/lv_widgets/lv_keyboard.c:508:17
	ldr	r0, [r0, #32]
	.loc	10 508 20                       @ lvgl/src/lv_widgets/lv_keyboard.c:508:20
	cbz	r0, .LBB1_10
	b	.LBB1_8
.LBB1_8:
	.loc	10 508 23                       @ lvgl/src/lv_widgets/lv_keyboard.c:508:23
	ldr	r0, [sp, #8]
	.loc	10 508 28                       @ lvgl/src/lv_widgets/lv_keyboard.c:508:28
	ldrb.w	r0, [r0, #37]
.Ltmp40:
	.loc	10 508 12                       @ lvgl/src/lv_widgets/lv_keyboard.c:508:12
	lsls	r0, r0, #31
	cbz	r0, .LBB1_10
	b	.LBB1_9
.LBB1_9:
.Ltmp41:
	.loc	10 509 43 is_stmt 1             @ lvgl/src/lv_widgets/lv_keyboard.c:509:43
	ldr	r0, [sp, #8]
	.loc	10 509 48 is_stmt 0             @ lvgl/src/lv_widgets/lv_keyboard.c:509:48
	ldr	r0, [r0, #32]
	movs	r1, #0
	.loc	10 509 13                       @ lvgl/src/lv_widgets/lv_keyboard.c:509:13
	bl	lv_textarea_set_cursor_hidden
	.loc	10 510 9 is_stmt 1              @ lvgl/src/lv_widgets/lv_keyboard.c:510:9
	b	.LBB1_10
.Ltmp42:
.LBB1_10:
	.loc	10 511 5                        @ lvgl/src/lv_widgets/lv_keyboard.c:511:5
	b	.LBB1_17
.Ltmp43:
.LBB1_11:
	.loc	10 512 13                       @ lvgl/src/lv_widgets/lv_keyboard.c:512:13
	ldrb.w	r0, [sp, #23]
.Ltmp44:
	.loc	10 512 13 is_stmt 0             @ lvgl/src/lv_widgets/lv_keyboard.c:512:13
	cmp	r0, #23
	bne	.LBB1_16
	b	.LBB1_12
.LBB1_12:
.Ltmp45:
	.loc	10 513 55 is_stmt 1             @ lvgl/src/lv_widgets/lv_keyboard.c:513:55
	ldr	r0, [sp, #24]
	.loc	10 513 35 is_stmt 0             @ lvgl/src/lv_widgets/lv_keyboard.c:513:35
	bl	lv_obj_get_ext_attr
	.loc	10 513 29                       @ lvgl/src/lv_widgets/lv_keyboard.c:513:29
	str	r0, [sp, #4]
.Ltmp46:
	.loc	10 515 12 is_stmt 1             @ lvgl/src/lv_widgets/lv_keyboard.c:515:12
	ldr	r0, [sp, #4]
	.loc	10 515 17 is_stmt 0             @ lvgl/src/lv_widgets/lv_keyboard.c:515:17
	ldr	r0, [r0, #32]
	.loc	10 515 20                       @ lvgl/src/lv_widgets/lv_keyboard.c:515:20
	cbz	r0, .LBB1_15
	b	.LBB1_13
.LBB1_13:
	.loc	10 515 23                       @ lvgl/src/lv_widgets/lv_keyboard.c:515:23
	ldr	r0, [sp, #4]
	.loc	10 515 28                       @ lvgl/src/lv_widgets/lv_keyboard.c:515:28
	ldrb.w	r0, [r0, #37]
.Ltmp47:
	.loc	10 515 12                       @ lvgl/src/lv_widgets/lv_keyboard.c:515:12
	lsls	r0, r0, #31
	cbz	r0, .LBB1_15
	b	.LBB1_14
.LBB1_14:
.Ltmp48:
	.loc	10 516 43 is_stmt 1             @ lvgl/src/lv_widgets/lv_keyboard.c:516:43
	ldr	r0, [sp, #4]
	.loc	10 516 48 is_stmt 0             @ lvgl/src/lv_widgets/lv_keyboard.c:516:48
	ldr	r0, [r0, #32]
	movs	r1, #1
	.loc	10 516 13                       @ lvgl/src/lv_widgets/lv_keyboard.c:516:13
	bl	lv_textarea_set_cursor_hidden
	.loc	10 517 9 is_stmt 1              @ lvgl/src/lv_widgets/lv_keyboard.c:517:9
	b	.LBB1_15
.Ltmp49:
.LBB1_15:
	.loc	10 518 5                        @ lvgl/src/lv_widgets/lv_keyboard.c:518:5
	b	.LBB1_16
.Ltmp50:
.LBB1_16:
	.loc	10 0 5 is_stmt 0                @ lvgl/src/lv_widgets/lv_keyboard.c:0:5
	b	.LBB1_17
.LBB1_17:
	b	.LBB1_18
.LBB1_18:
	.loc	10 520 12 is_stmt 1             @ lvgl/src/lv_widgets/lv_keyboard.c:520:12
	ldrb.w	r0, [sp, #15]
	.loc	10 520 5 is_stmt 0              @ lvgl/src/lv_widgets/lv_keyboard.c:520:5
	strb.w	r0, [sp, #31]
	b	.LBB1_19
.LBB1_19:
	.loc	10 521 1 is_stmt 1              @ lvgl/src/lv_widgets/lv_keyboard.c:521:1
	ldrb.w	r0, [sp, #31]
	add	sp, #32
	pop	{r7, pc}
.Ltmp51:
.Lfunc_end1:
	.size	lv_keyboard_signal, .Lfunc_end1-lv_keyboard_signal
	.cfi_endproc
	.cantunwind
	.fnend
                                        @ -- End function
	.section	.text.lv_keyboard_def_event_cb,"ax",%progbits
	.hidden	lv_keyboard_def_event_cb        @ -- Begin function lv_keyboard_def_event_cb
	.globl	lv_keyboard_def_event_cb
	.p2align	3
	.type	lv_keyboard_def_event_cb,%function
	.code	16                              @ @lv_keyboard_def_event_cb
	.thumb_func
lv_keyboard_def_event_cb:
.Lfunc_begin2:
	.loc	10 381 0                        @ lvgl/src/lv_widgets/lv_keyboard.c:381:0
	.fnstart
	.cfi_startproc
@ %bb.0:
	.save	{r7, lr}
	push	{r7, lr}
	.cfi_def_cfa_offset 8
	.cfi_offset lr, -4
	.cfi_offset r7, -8
	.pad	#32
	sub	sp, #32
	.cfi_def_cfa_offset 40
                                        @ kill: def $r2 killed $r1
	str	r0, [sp, #28]
	strb.w	r1, [sp, #27]
.Ltmp52:
	.loc	10 382 5 prologue_end           @ lvgl/src/lv_widgets/lv_keyboard.c:382:5
	b	.LBB2_1
.LBB2_1:
.Ltmp53:
	.loc	10 382 5 is_stmt 0              @ lvgl/src/lv_widgets/lv_keyboard.c:382:5
	ldr	r0, [sp, #28]
	bl	lv_debug_check_null
.Ltmp54:
	.loc	10 382 5                        @ lvgl/src/lv_widgets/lv_keyboard.c:382:5
	cbnz	r0, .LBB2_4
	b	.LBB2_2
.LBB2_2:
.Ltmp55:
	.loc	10 382 5                        @ lvgl/src/lv_widgets/lv_keyboard.c:382:5
	ldr	r2, [sp, #28]
	movw	r0, :lower16:.L.str.1
	movt	r0, :upper16:.L.str.1
	movs	r3, #0
	bl	lv_debug_log_error
	b	.LBB2_3
.LBB2_3:                                @ =>This Inner Loop Header: Depth=1
	b	.LBB2_3
.Ltmp56:
.LBB2_4:
	.loc	10 382 5                        @ lvgl/src/lv_widgets/lv_keyboard.c:382:5
	b	.LBB2_5
.Ltmp57:
.LBB2_5:
	.loc	10 384 8 is_stmt 1              @ lvgl/src/lv_widgets/lv_keyboard.c:384:8
	ldrb.w	r0, [sp, #27]
.Ltmp58:
	.loc	10 384 8 is_stmt 0              @ lvgl/src/lv_widgets/lv_keyboard.c:384:8
	cmp	r0, #16
	beq	.LBB2_7
	b	.LBB2_6
.LBB2_6:
.Ltmp59:
	.loc	10 384 41                       @ lvgl/src/lv_widgets/lv_keyboard.c:384:41
	b	.LBB2_64
.Ltmp60:
.LBB2_7:
	.loc	10 386 51 is_stmt 1             @ lvgl/src/lv_widgets/lv_keyboard.c:386:51
	ldr	r0, [sp, #28]
	.loc	10 386 31 is_stmt 0             @ lvgl/src/lv_widgets/lv_keyboard.c:386:31
	bl	lv_obj_get_ext_attr
	.loc	10 386 25                       @ lvgl/src/lv_widgets/lv_keyboard.c:386:25
	str	r0, [sp, #20]
	.loc	10 387 53 is_stmt 1             @ lvgl/src/lv_widgets/lv_keyboard.c:387:53
	ldr	r0, [sp, #28]
	.loc	10 387 25 is_stmt 0             @ lvgl/src/lv_widgets/lv_keyboard.c:387:25
	bl	lv_btnmatrix_get_active_btn
	.loc	10 387 14                       @ lvgl/src/lv_widgets/lv_keyboard.c:387:14
	strh.w	r0, [sp, #18]
.Ltmp61:
	.loc	10 388 8 is_stmt 1              @ lvgl/src/lv_widgets/lv_keyboard.c:388:8
	ldrh.w	r0, [sp, #18]
	movw	r1, #65535
.Ltmp62:
	.loc	10 388 8 is_stmt 0              @ lvgl/src/lv_widgets/lv_keyboard.c:388:8
	cmp	r0, r1
	bne	.LBB2_9
	b	.LBB2_8
.LBB2_8:
.Ltmp63:
	.loc	10 388 41                       @ lvgl/src/lv_widgets/lv_keyboard.c:388:41
	b	.LBB2_64
.Ltmp64:
.LBB2_9:
	.loc	10 389 34 is_stmt 1             @ lvgl/src/lv_widgets/lv_keyboard.c:389:34
	ldr	r0, [sp, #28]
	.loc	10 389 38 is_stmt 0             @ lvgl/src/lv_widgets/lv_keyboard.c:389:38
	ldrh.w	r1, [sp, #18]
	movs	r2, #40
	.loc	10 389 8                        @ lvgl/src/lv_widgets/lv_keyboard.c:389:8
	bl	lv_btnmatrix_get_btn_ctrl
.Ltmp65:
	.loc	10 389 8                        @ lvgl/src/lv_widgets/lv_keyboard.c:389:8
	cbz	r0, .LBB2_11
	b	.LBB2_10
.LBB2_10:
.Ltmp66:
	.loc	10 389 102                      @ lvgl/src/lv_widgets/lv_keyboard.c:389:102
	b	.LBB2_64
.Ltmp67:
.LBB2_11:
	.loc	10 390 34 is_stmt 1             @ lvgl/src/lv_widgets/lv_keyboard.c:390:34
	ldr	r0, [sp, #28]
	.loc	10 390 38 is_stmt 0             @ lvgl/src/lv_widgets/lv_keyboard.c:390:38
	ldrh.w	r1, [sp, #18]
	movs	r2, #16
	.loc	10 390 8                        @ lvgl/src/lv_widgets/lv_keyboard.c:390:8
	bl	lv_btnmatrix_get_btn_ctrl
	.loc	10 390 75                       @ lvgl/src/lv_widgets/lv_keyboard.c:390:75
	cbz	r0, .LBB2_14
	b	.LBB2_12
.LBB2_12:
	.loc	10 390 78                       @ lvgl/src/lv_widgets/lv_keyboard.c:390:78
	ldrb.w	r0, [sp, #27]
.Ltmp68:
	.loc	10 390 8                        @ lvgl/src/lv_widgets/lv_keyboard.c:390:8
	cmp	r0, #5
	bne	.LBB2_14
	b	.LBB2_13
.LBB2_13:
.Ltmp69:
	.loc	10 390 117                      @ lvgl/src/lv_widgets/lv_keyboard.c:390:117
	b	.LBB2_64
.Ltmp70:
.LBB2_14:
	.loc	10 392 57 is_stmt 1             @ lvgl/src/lv_widgets/lv_keyboard.c:392:57
	ldr	r0, [sp, #28]
	.loc	10 392 24 is_stmt 0             @ lvgl/src/lv_widgets/lv_keyboard.c:392:24
	bl	lv_btnmatrix_get_active_btn_text
	.loc	10 392 18                       @ lvgl/src/lv_widgets/lv_keyboard.c:392:18
	str	r0, [sp, #12]
.Ltmp71:
	.loc	10 393 8 is_stmt 1              @ lvgl/src/lv_widgets/lv_keyboard.c:393:8
	ldr	r0, [sp, #12]
.Ltmp72:
	.loc	10 393 8 is_stmt 0              @ lvgl/src/lv_widgets/lv_keyboard.c:393:8
	cbnz	r0, .LBB2_16
	b	.LBB2_15
.LBB2_15:
.Ltmp73:
	.loc	10 393 21                       @ lvgl/src/lv_widgets/lv_keyboard.c:393:21
	b	.LBB2_64
.Ltmp74:
.LBB2_16:
	.loc	10 396 15 is_stmt 1             @ lvgl/src/lv_widgets/lv_keyboard.c:396:15
	ldr	r0, [sp, #12]
	.loc	10 396 8 is_stmt 0              @ lvgl/src/lv_widgets/lv_keyboard.c:396:8
	movw	r1, :lower16:.L.str.2
	movt	r1, :upper16:.L.str.2
	bl	strcmp
.Ltmp75:
	.loc	10 396 8                        @ lvgl/src/lv_widgets/lv_keyboard.c:396:8
	cbnz	r0, .LBB2_18
	b	.LBB2_17
.LBB2_17:
.Ltmp76:
	.loc	10 397 9 is_stmt 1              @ lvgl/src/lv_widgets/lv_keyboard.c:397:9
	ldr	r1, [sp, #20]
	movs	r0, #0
	.loc	10 397 19 is_stmt 0             @ lvgl/src/lv_widgets/lv_keyboard.c:397:19
	strb.w	r0, [r1, #36]
	.loc	10 398 30 is_stmt 1             @ lvgl/src/lv_widgets/lv_keyboard.c:398:30
	ldr	r0, [sp, #28]
	.loc	10 398 34 is_stmt 0             @ lvgl/src/lv_widgets/lv_keyboard.c:398:34
	movw	r1, :lower16:kb_map
	movt	r1, :upper16:kb_map
	ldr	r1, [r1]
	.loc	10 398 9                        @ lvgl/src/lv_widgets/lv_keyboard.c:398:9
	bl	lv_btnmatrix_set_map
	.loc	10 399 35 is_stmt 1             @ lvgl/src/lv_widgets/lv_keyboard.c:399:35
	ldr	r0, [sp, #28]
	.loc	10 399 39 is_stmt 0             @ lvgl/src/lv_widgets/lv_keyboard.c:399:39
	movw	r1, :lower16:kb_ctrl
	movt	r1, :upper16:kb_ctrl
	ldr	r1, [r1]
	.loc	10 399 9                        @ lvgl/src/lv_widgets/lv_keyboard.c:399:9
	bl	lv_btnmatrix_set_ctrl_map
	.loc	10 400 9 is_stmt 1              @ lvgl/src/lv_widgets/lv_keyboard.c:400:9
	b	.LBB2_64
.Ltmp77:
.LBB2_18:
	.loc	10 410 20                       @ lvgl/src/lv_widgets/lv_keyboard.c:410:20
	ldr	r0, [sp, #12]
	.loc	10 410 13 is_stmt 0             @ lvgl/src/lv_widgets/lv_keyboard.c:410:13
	movw	r1, :lower16:.L.str.3
	movt	r1, :upper16:.L.str.3
	bl	strcmp
.Ltmp78:
	.loc	10 410 13                       @ lvgl/src/lv_widgets/lv_keyboard.c:410:13
	cbnz	r0, .LBB2_20
	b	.LBB2_19
.LBB2_19:
.Ltmp79:
	.loc	10 411 9 is_stmt 1              @ lvgl/src/lv_widgets/lv_keyboard.c:411:9
	ldr	r1, [sp, #20]
	movs	r0, #1
	.loc	10 411 19 is_stmt 0             @ lvgl/src/lv_widgets/lv_keyboard.c:411:19
	strb.w	r0, [r1, #36]
	.loc	10 412 30 is_stmt 1             @ lvgl/src/lv_widgets/lv_keyboard.c:412:30
	ldr	r0, [sp, #28]
	.loc	10 412 34 is_stmt 0             @ lvgl/src/lv_widgets/lv_keyboard.c:412:34
	movw	r1, :lower16:kb_map
	movt	r1, :upper16:kb_map
	ldr	r1, [r1, #4]
	.loc	10 412 9                        @ lvgl/src/lv_widgets/lv_keyboard.c:412:9
	bl	lv_btnmatrix_set_map
	.loc	10 413 35 is_stmt 1             @ lvgl/src/lv_widgets/lv_keyboard.c:413:35
	ldr	r0, [sp, #28]
	.loc	10 413 39 is_stmt 0             @ lvgl/src/lv_widgets/lv_keyboard.c:413:39
	movw	r1, :lower16:kb_ctrl
	movt	r1, :upper16:kb_ctrl
	ldr	r1, [r1, #4]
	.loc	10 413 9                        @ lvgl/src/lv_widgets/lv_keyboard.c:413:9
	bl	lv_btnmatrix_set_ctrl_map
	.loc	10 414 9 is_stmt 1              @ lvgl/src/lv_widgets/lv_keyboard.c:414:9
	b	.LBB2_64
.Ltmp80:
.LBB2_20:
	.loc	10 416 20                       @ lvgl/src/lv_widgets/lv_keyboard.c:416:20
	ldr	r0, [sp, #12]
	.loc	10 416 13 is_stmt 0             @ lvgl/src/lv_widgets/lv_keyboard.c:416:13
	movw	r1, :lower16:.L.str.4
	movt	r1, :upper16:.L.str.4
	bl	strcmp
.Ltmp81:
	.loc	10 416 13                       @ lvgl/src/lv_widgets/lv_keyboard.c:416:13
	cbnz	r0, .LBB2_22
	b	.LBB2_21
.LBB2_21:
.Ltmp82:
	.loc	10 417 9 is_stmt 1              @ lvgl/src/lv_widgets/lv_keyboard.c:417:9
	ldr	r1, [sp, #20]
	movs	r0, #2
	.loc	10 417 19 is_stmt 0             @ lvgl/src/lv_widgets/lv_keyboard.c:417:19
	strb.w	r0, [r1, #36]
	.loc	10 418 30 is_stmt 1             @ lvgl/src/lv_widgets/lv_keyboard.c:418:30
	ldr	r0, [sp, #28]
	.loc	10 418 34 is_stmt 0             @ lvgl/src/lv_widgets/lv_keyboard.c:418:34
	movw	r1, :lower16:kb_map
	movt	r1, :upper16:kb_map
	ldr	r1, [r1, #8]
	.loc	10 418 9                        @ lvgl/src/lv_widgets/lv_keyboard.c:418:9
	bl	lv_btnmatrix_set_map
	.loc	10 419 35 is_stmt 1             @ lvgl/src/lv_widgets/lv_keyboard.c:419:35
	ldr	r0, [sp, #28]
	.loc	10 419 39 is_stmt 0             @ lvgl/src/lv_widgets/lv_keyboard.c:419:39
	movw	r1, :lower16:kb_ctrl
	movt	r1, :upper16:kb_ctrl
	ldr	r1, [r1, #8]
	.loc	10 419 9                        @ lvgl/src/lv_widgets/lv_keyboard.c:419:9
	bl	lv_btnmatrix_set_ctrl_map
	.loc	10 420 9 is_stmt 1              @ lvgl/src/lv_widgets/lv_keyboard.c:420:9
	b	.LBB2_64
.Ltmp83:
.LBB2_22:
	.loc	10 422 20                       @ lvgl/src/lv_widgets/lv_keyboard.c:422:20
	ldr	r0, [sp, #12]
	.loc	10 422 13 is_stmt 0             @ lvgl/src/lv_widgets/lv_keyboard.c:422:13
	movw	r1, :lower16:.L.str.5
	movt	r1, :upper16:.L.str.5
	bl	strcmp
.Ltmp84:
	.loc	10 422 13                       @ lvgl/src/lv_widgets/lv_keyboard.c:422:13
	cbnz	r0, .LBB2_29
	b	.LBB2_23
.LBB2_23:
.Ltmp85:
	.loc	10 423 12 is_stmt 1             @ lvgl/src/lv_widgets/lv_keyboard.c:423:12
	ldr	r0, [sp, #28]
	.loc	10 423 16 is_stmt 0             @ lvgl/src/lv_widgets/lv_keyboard.c:423:16
	ldr	r0, [r0, #24]
	.loc	10 423 25                       @ lvgl/src/lv_widgets/lv_keyboard.c:423:25
	movw	r1, :lower16:lv_keyboard_def_event_cb
	movt	r1, :upper16:lv_keyboard_def_event_cb
.Ltmp86:
	.loc	10 423 12                       @ lvgl/src/lv_widgets/lv_keyboard.c:423:12
	cmp	r0, r1
	beq	.LBB2_27
	b	.LBB2_24
.LBB2_24:
.Ltmp87:
	.loc	10 424 42 is_stmt 1             @ lvgl/src/lv_widgets/lv_keyboard.c:424:42
	ldr	r0, [sp, #28]
	movs	r1, #20
	movs	r2, #0
	.loc	10 424 28 is_stmt 0             @ lvgl/src/lv_widgets/lv_keyboard.c:424:28
	bl	lv_event_send
	.loc	10 424 22                       @ lvgl/src/lv_widgets/lv_keyboard.c:424:22
	strb.w	r0, [sp, #11]
.Ltmp88:
	.loc	10 425 16 is_stmt 1             @ lvgl/src/lv_widgets/lv_keyboard.c:425:16
	ldrb.w	r0, [sp, #11]
.Ltmp89:
	.loc	10 425 16 is_stmt 0             @ lvgl/src/lv_widgets/lv_keyboard.c:425:16
	cmp	r0, #1
	beq	.LBB2_26
	b	.LBB2_25
.LBB2_25:
.Ltmp90:
	.loc	10 425 34                       @ lvgl/src/lv_widgets/lv_keyboard.c:425:34
	b	.LBB2_64
.Ltmp91:
.LBB2_26:
	.loc	10 426 9 is_stmt 1              @ lvgl/src/lv_widgets/lv_keyboard.c:426:9
	b	.LBB2_28
.Ltmp92:
.LBB2_27:
	.loc	10 428 38                       @ lvgl/src/lv_widgets/lv_keyboard.c:428:38
	ldr	r0, [sp, #28]
	movs	r1, #0
	.loc	10 428 13 is_stmt 0             @ lvgl/src/lv_widgets/lv_keyboard.c:428:13
	bl	lv_keyboard_set_textarea
	.loc	10 429 24 is_stmt 1             @ lvgl/src/lv_widgets/lv_keyboard.c:429:24
	ldr	r0, [sp, #28]
	.loc	10 429 13 is_stmt 0             @ lvgl/src/lv_widgets/lv_keyboard.c:429:13
	bl	lv_obj_del
	.loc	10 430 13 is_stmt 1             @ lvgl/src/lv_widgets/lv_keyboard.c:430:13
	b	.LBB2_64
.Ltmp93:
.LBB2_28:
	.loc	10 432 9                        @ lvgl/src/lv_widgets/lv_keyboard.c:432:9
	b	.LBB2_64
.Ltmp94:
.LBB2_29:
	.loc	10 434 20                       @ lvgl/src/lv_widgets/lv_keyboard.c:434:20
	ldr	r0, [sp, #12]
	.loc	10 434 13 is_stmt 0             @ lvgl/src/lv_widgets/lv_keyboard.c:434:13
	movw	r1, :lower16:.L.str.6
	movt	r1, :upper16:.L.str.6
	bl	strcmp
.Ltmp95:
	.loc	10 434 13                       @ lvgl/src/lv_widgets/lv_keyboard.c:434:13
	cbnz	r0, .LBB2_36
	b	.LBB2_30
.LBB2_30:
.Ltmp96:
	.loc	10 435 12 is_stmt 1             @ lvgl/src/lv_widgets/lv_keyboard.c:435:12
	ldr	r0, [sp, #28]
	.loc	10 435 16 is_stmt 0             @ lvgl/src/lv_widgets/lv_keyboard.c:435:16
	ldr	r0, [r0, #24]
	.loc	10 435 25                       @ lvgl/src/lv_widgets/lv_keyboard.c:435:25
	movw	r1, :lower16:lv_keyboard_def_event_cb
	movt	r1, :upper16:lv_keyboard_def_event_cb
.Ltmp97:
	.loc	10 435 12                       @ lvgl/src/lv_widgets/lv_keyboard.c:435:12
	cmp	r0, r1
	beq	.LBB2_34
	b	.LBB2_31
.LBB2_31:
.Ltmp98:
	.loc	10 436 42 is_stmt 1             @ lvgl/src/lv_widgets/lv_keyboard.c:436:42
	ldr	r0, [sp, #28]
	movs	r1, #19
	movs	r2, #0
	.loc	10 436 28 is_stmt 0             @ lvgl/src/lv_widgets/lv_keyboard.c:436:28
	bl	lv_event_send
	.loc	10 436 22                       @ lvgl/src/lv_widgets/lv_keyboard.c:436:22
	strb.w	r0, [sp, #10]
.Ltmp99:
	.loc	10 437 16 is_stmt 1             @ lvgl/src/lv_widgets/lv_keyboard.c:437:16
	ldrb.w	r0, [sp, #10]
.Ltmp100:
	.loc	10 437 16 is_stmt 0             @ lvgl/src/lv_widgets/lv_keyboard.c:437:16
	cmp	r0, #1
	beq	.LBB2_33
	b	.LBB2_32
.LBB2_32:
.Ltmp101:
	.loc	10 437 34                       @ lvgl/src/lv_widgets/lv_keyboard.c:437:34
	b	.LBB2_64
.Ltmp102:
.LBB2_33:
	.loc	10 438 9 is_stmt 1              @ lvgl/src/lv_widgets/lv_keyboard.c:438:9
	b	.LBB2_35
.Ltmp103:
.LBB2_34:
	.loc	10 440 38                       @ lvgl/src/lv_widgets/lv_keyboard.c:440:38
	ldr	r0, [sp, #28]
	movs	r1, #0
	.loc	10 440 13 is_stmt 0             @ lvgl/src/lv_widgets/lv_keyboard.c:440:13
	bl	lv_keyboard_set_textarea
	b	.LBB2_35
.Ltmp104:
.LBB2_35:
	.loc	10 442 9 is_stmt 1              @ lvgl/src/lv_widgets/lv_keyboard.c:442:9
	b	.LBB2_64
.Ltmp105:
.LBB2_36:
	.loc	10 0 9 is_stmt 0                @ lvgl/src/lv_widgets/lv_keyboard.c:0:9
	b	.LBB2_37
.LBB2_37:
	b	.LBB2_38
.LBB2_38:
	b	.LBB2_39
.LBB2_39:
	b	.LBB2_40
.LBB2_40:
.Ltmp106:
	.loc	10 446 8 is_stmt 1              @ lvgl/src/lv_widgets/lv_keyboard.c:446:8
	ldr	r0, [sp, #20]
	.loc	10 446 13 is_stmt 0             @ lvgl/src/lv_widgets/lv_keyboard.c:446:13
	ldr	r0, [r0, #32]
.Ltmp107:
	.loc	10 446 8                        @ lvgl/src/lv_widgets/lv_keyboard.c:446:8
	cbnz	r0, .LBB2_42
	b	.LBB2_41
.LBB2_41:
.Ltmp108:
	.loc	10 446 25                       @ lvgl/src/lv_widgets/lv_keyboard.c:446:25
	b	.LBB2_64
.Ltmp109:
.LBB2_42:
	.loc	10 448 15 is_stmt 1             @ lvgl/src/lv_widgets/lv_keyboard.c:448:15
	ldr	r0, [sp, #12]
	.loc	10 448 8 is_stmt 0              @ lvgl/src/lv_widgets/lv_keyboard.c:448:8
	movw	r1, :lower16:.L.str.7
	movt	r1, :upper16:.L.str.7
	bl	strcmp
	.loc	10 448 34                       @ lvgl/src/lv_widgets/lv_keyboard.c:448:34
	cbz	r0, .LBB2_44
	b	.LBB2_43
.LBB2_43:
	.loc	10 448 44                       @ lvgl/src/lv_widgets/lv_keyboard.c:448:44
	ldr	r0, [sp, #12]
	.loc	10 448 37                       @ lvgl/src/lv_widgets/lv_keyboard.c:448:37
	movw	r1, :lower16:.L.str.8
	movt	r1, :upper16:.L.str.8
	bl	strcmp
.Ltmp110:
	.loc	10 448 8                        @ lvgl/src/lv_widgets/lv_keyboard.c:448:8
	cbnz	r0, .LBB2_45
	b	.LBB2_44
.LBB2_44:
.Ltmp111:
	.loc	10 449 30 is_stmt 1             @ lvgl/src/lv_widgets/lv_keyboard.c:449:30
	ldr	r0, [sp, #20]
	.loc	10 449 35 is_stmt 0             @ lvgl/src/lv_widgets/lv_keyboard.c:449:35
	ldr	r0, [r0, #32]
	movs	r1, #10
	.loc	10 449 9                        @ lvgl/src/lv_widgets/lv_keyboard.c:449:9
	bl	lv_textarea_add_char
	b	.LBB2_64
.LBB2_45:
.Ltmp112:
	.loc	10 450 20 is_stmt 1             @ lvgl/src/lv_widgets/lv_keyboard.c:450:20
	ldr	r0, [sp, #12]
	.loc	10 450 13 is_stmt 0             @ lvgl/src/lv_widgets/lv_keyboard.c:450:13
	movw	r1, :lower16:.L.str.9
	movt	r1, :upper16:.L.str.9
	bl	strcmp
.Ltmp113:
	.loc	10 450 13                       @ lvgl/src/lv_widgets/lv_keyboard.c:450:13
	cbnz	r0, .LBB2_47
	b	.LBB2_46
.LBB2_46:
.Ltmp114:
	.loc	10 451 33 is_stmt 1             @ lvgl/src/lv_widgets/lv_keyboard.c:451:33
	ldr	r0, [sp, #20]
	.loc	10 451 38 is_stmt 0             @ lvgl/src/lv_widgets/lv_keyboard.c:451:38
	ldr	r0, [r0, #32]
	.loc	10 451 9                        @ lvgl/src/lv_widgets/lv_keyboard.c:451:9
	bl	lv_textarea_cursor_left
	b	.LBB2_63
.LBB2_47:
.Ltmp115:
	.loc	10 452 20 is_stmt 1             @ lvgl/src/lv_widgets/lv_keyboard.c:452:20
	ldr	r0, [sp, #12]
	.loc	10 452 13 is_stmt 0             @ lvgl/src/lv_widgets/lv_keyboard.c:452:13
	movw	r1, :lower16:.L.str.10
	movt	r1, :upper16:.L.str.10
	bl	strcmp
.Ltmp116:
	.loc	10 452 13                       @ lvgl/src/lv_widgets/lv_keyboard.c:452:13
	cbnz	r0, .LBB2_49
	b	.LBB2_48
.LBB2_48:
.Ltmp117:
	.loc	10 453 34 is_stmt 1             @ lvgl/src/lv_widgets/lv_keyboard.c:453:34
	ldr	r0, [sp, #20]
	.loc	10 453 39 is_stmt 0             @ lvgl/src/lv_widgets/lv_keyboard.c:453:39
	ldr	r0, [r0, #32]
	.loc	10 453 9                        @ lvgl/src/lv_widgets/lv_keyboard.c:453:9
	bl	lv_textarea_cursor_right
	b	.LBB2_62
.LBB2_49:
.Ltmp118:
	.loc	10 454 20 is_stmt 1             @ lvgl/src/lv_widgets/lv_keyboard.c:454:20
	ldr	r0, [sp, #12]
	.loc	10 454 13 is_stmt 0             @ lvgl/src/lv_widgets/lv_keyboard.c:454:13
	movw	r1, :lower16:.L.str.11
	movt	r1, :upper16:.L.str.11
	bl	strcmp
.Ltmp119:
	.loc	10 454 13                       @ lvgl/src/lv_widgets/lv_keyboard.c:454:13
	cbnz	r0, .LBB2_51
	b	.LBB2_50
.LBB2_50:
.Ltmp120:
	.loc	10 455 30 is_stmt 1             @ lvgl/src/lv_widgets/lv_keyboard.c:455:30
	ldr	r0, [sp, #20]
	.loc	10 455 35 is_stmt 0             @ lvgl/src/lv_widgets/lv_keyboard.c:455:35
	ldr	r0, [r0, #32]
	.loc	10 455 9                        @ lvgl/src/lv_widgets/lv_keyboard.c:455:9
	bl	lv_textarea_del_char
	b	.LBB2_61
.LBB2_51:
.Ltmp121:
	.loc	10 456 20 is_stmt 1             @ lvgl/src/lv_widgets/lv_keyboard.c:456:20
	ldr	r0, [sp, #12]
	.loc	10 456 13 is_stmt 0             @ lvgl/src/lv_widgets/lv_keyboard.c:456:13
	movw	r1, :lower16:.L.str.12
	movt	r1, :upper16:.L.str.12
	bl	strcmp
.Ltmp122:
	.loc	10 456 13                       @ lvgl/src/lv_widgets/lv_keyboard.c:456:13
	cmp	r0, #0
	bne	.LBB2_59
	b	.LBB2_52
.LBB2_52:
.Ltmp123:
	.loc	10 457 58 is_stmt 1             @ lvgl/src/lv_widgets/lv_keyboard.c:457:58
	ldr	r0, [sp, #20]
	.loc	10 457 63 is_stmt 0             @ lvgl/src/lv_widgets/lv_keyboard.c:457:63
	ldr	r0, [r0, #32]
	.loc	10 457 31                       @ lvgl/src/lv_widgets/lv_keyboard.c:457:31
	bl	lv_textarea_get_cursor_pos
	.loc	10 457 18                       @ lvgl/src/lv_widgets/lv_keyboard.c:457:18
	strh.w	r0, [sp, #8]
	.loc	10 458 52 is_stmt 1             @ lvgl/src/lv_widgets/lv_keyboard.c:458:52
	ldr	r0, [sp, #20]
	.loc	10 458 57 is_stmt 0             @ lvgl/src/lv_widgets/lv_keyboard.c:458:57
	ldr	r0, [r0, #32]
	.loc	10 458 31                       @ lvgl/src/lv_widgets/lv_keyboard.c:458:31
	bl	lv_textarea_get_text
	.loc	10 458 22                       @ lvgl/src/lv_widgets/lv_keyboard.c:458:22
	str	r0, [sp, #4]
.Ltmp124:
	.loc	10 459 12 is_stmt 1             @ lvgl/src/lv_widgets/lv_keyboard.c:459:12
	ldr	r0, [sp, #4]
	ldrsb.w	r0, [r0]
.Ltmp125:
	.loc	10 459 12 is_stmt 0             @ lvgl/src/lv_widgets/lv_keyboard.c:459:12
	cmp	r0, #45
	bne	.LBB2_54
	b	.LBB2_53
.LBB2_53:
.Ltmp126:
	.loc	10 460 40 is_stmt 1             @ lvgl/src/lv_widgets/lv_keyboard.c:460:40
	ldr	r0, [sp, #20]
	.loc	10 460 45 is_stmt 0             @ lvgl/src/lv_widgets/lv_keyboard.c:460:45
	ldr	r0, [r0, #32]
	movs	r1, #1
	.loc	10 460 13                       @ lvgl/src/lv_widgets/lv_keyboard.c:460:13
	bl	lv_textarea_set_cursor_pos
	.loc	10 461 34 is_stmt 1             @ lvgl/src/lv_widgets/lv_keyboard.c:461:34
	ldr	r0, [sp, #20]
	.loc	10 461 39 is_stmt 0             @ lvgl/src/lv_widgets/lv_keyboard.c:461:39
	ldr	r0, [r0, #32]
	.loc	10 461 13                       @ lvgl/src/lv_widgets/lv_keyboard.c:461:13
	bl	lv_textarea_del_char
	.loc	10 462 34 is_stmt 1             @ lvgl/src/lv_widgets/lv_keyboard.c:462:34
	ldr	r0, [sp, #20]
	.loc	10 462 39 is_stmt 0             @ lvgl/src/lv_widgets/lv_keyboard.c:462:39
	ldr	r0, [r0, #32]
	movs	r1, #43
	.loc	10 462 13                       @ lvgl/src/lv_widgets/lv_keyboard.c:462:13
	bl	lv_textarea_add_char
	.loc	10 463 40 is_stmt 1             @ lvgl/src/lv_widgets/lv_keyboard.c:463:40
	ldr	r0, [sp, #20]
	.loc	10 463 45 is_stmt 0             @ lvgl/src/lv_widgets/lv_keyboard.c:463:45
	ldr	r0, [r0, #32]
	.loc	10 463 49                       @ lvgl/src/lv_widgets/lv_keyboard.c:463:49
	ldrh.w	r1, [sp, #8]
	.loc	10 463 13                       @ lvgl/src/lv_widgets/lv_keyboard.c:463:13
	bl	lv_textarea_set_cursor_pos
	.loc	10 464 9 is_stmt 1              @ lvgl/src/lv_widgets/lv_keyboard.c:464:9
	b	.LBB2_58
.Ltmp127:
.LBB2_54:
	.loc	10 465 17                       @ lvgl/src/lv_widgets/lv_keyboard.c:465:17
	ldr	r0, [sp, #4]
	ldrsb.w	r0, [r0]
.Ltmp128:
	.loc	10 465 17 is_stmt 0             @ lvgl/src/lv_widgets/lv_keyboard.c:465:17
	cmp	r0, #43
	bne	.LBB2_56
	b	.LBB2_55
.LBB2_55:
.Ltmp129:
	.loc	10 466 40 is_stmt 1             @ lvgl/src/lv_widgets/lv_keyboard.c:466:40
	ldr	r0, [sp, #20]
	.loc	10 466 45 is_stmt 0             @ lvgl/src/lv_widgets/lv_keyboard.c:466:45
	ldr	r0, [r0, #32]
	movs	r1, #1
	.loc	10 466 13                       @ lvgl/src/lv_widgets/lv_keyboard.c:466:13
	bl	lv_textarea_set_cursor_pos
	.loc	10 467 34 is_stmt 1             @ lvgl/src/lv_widgets/lv_keyboard.c:467:34
	ldr	r0, [sp, #20]
	.loc	10 467 39 is_stmt 0             @ lvgl/src/lv_widgets/lv_keyboard.c:467:39
	ldr	r0, [r0, #32]
	.loc	10 467 13                       @ lvgl/src/lv_widgets/lv_keyboard.c:467:13
	bl	lv_textarea_del_char
	.loc	10 468 34 is_stmt 1             @ lvgl/src/lv_widgets/lv_keyboard.c:468:34
	ldr	r0, [sp, #20]
	.loc	10 468 39 is_stmt 0             @ lvgl/src/lv_widgets/lv_keyboard.c:468:39
	ldr	r0, [r0, #32]
	movs	r1, #45
	.loc	10 468 13                       @ lvgl/src/lv_widgets/lv_keyboard.c:468:13
	bl	lv_textarea_add_char
	.loc	10 469 40 is_stmt 1             @ lvgl/src/lv_widgets/lv_keyboard.c:469:40
	ldr	r0, [sp, #20]
	.loc	10 469 45 is_stmt 0             @ lvgl/src/lv_widgets/lv_keyboard.c:469:45
	ldr	r0, [r0, #32]
	.loc	10 469 49                       @ lvgl/src/lv_widgets/lv_keyboard.c:469:49
	ldrh.w	r1, [sp, #8]
	.loc	10 469 13                       @ lvgl/src/lv_widgets/lv_keyboard.c:469:13
	bl	lv_textarea_set_cursor_pos
	.loc	10 470 9 is_stmt 1              @ lvgl/src/lv_widgets/lv_keyboard.c:470:9
	b	.LBB2_57
.Ltmp130:
.LBB2_56:
	.loc	10 472 40                       @ lvgl/src/lv_widgets/lv_keyboard.c:472:40
	ldr	r0, [sp, #20]
	.loc	10 472 45 is_stmt 0             @ lvgl/src/lv_widgets/lv_keyboard.c:472:45
	ldr	r0, [r0, #32]
	movs	r1, #0
	.loc	10 472 13                       @ lvgl/src/lv_widgets/lv_keyboard.c:472:13
	bl	lv_textarea_set_cursor_pos
	.loc	10 473 34 is_stmt 1             @ lvgl/src/lv_widgets/lv_keyboard.c:473:34
	ldr	r0, [sp, #20]
	.loc	10 473 39 is_stmt 0             @ lvgl/src/lv_widgets/lv_keyboard.c:473:39
	ldr	r0, [r0, #32]
	movs	r1, #45
	.loc	10 473 13                       @ lvgl/src/lv_widgets/lv_keyboard.c:473:13
	bl	lv_textarea_add_char
	.loc	10 474 40 is_stmt 1             @ lvgl/src/lv_widgets/lv_keyboard.c:474:40
	ldr	r0, [sp, #20]
	.loc	10 474 45 is_stmt 0             @ lvgl/src/lv_widgets/lv_keyboard.c:474:45
	ldr	r0, [r0, #32]
	.loc	10 474 49                       @ lvgl/src/lv_widgets/lv_keyboard.c:474:49
	ldrh.w	r1, [sp, #8]
	.loc	10 474 53                       @ lvgl/src/lv_widgets/lv_keyboard.c:474:53
	adds	r1, #1
	.loc	10 474 13                       @ lvgl/src/lv_widgets/lv_keyboard.c:474:13
	bl	lv_textarea_set_cursor_pos
	b	.LBB2_57
.Ltmp131:
.LBB2_57:
	.loc	10 0 13                         @ lvgl/src/lv_widgets/lv_keyboard.c:0:13
	b	.LBB2_58
.LBB2_58:
	.loc	10 476 5 is_stmt 1              @ lvgl/src/lv_widgets/lv_keyboard.c:476:5
	b	.LBB2_60
.Ltmp132:
.LBB2_59:
	.loc	10 478 30                       @ lvgl/src/lv_widgets/lv_keyboard.c:478:30
	ldr	r0, [sp, #20]
	.loc	10 478 35 is_stmt 0             @ lvgl/src/lv_widgets/lv_keyboard.c:478:35
	ldr	r0, [r0, #32]
	.loc	10 478 39                       @ lvgl/src/lv_widgets/lv_keyboard.c:478:39
	ldr	r1, [sp, #12]
	.loc	10 478 9                        @ lvgl/src/lv_widgets/lv_keyboard.c:478:9
	bl	lv_textarea_add_text
	b	.LBB2_60
.Ltmp133:
.LBB2_60:
	.loc	10 0 9                          @ lvgl/src/lv_widgets/lv_keyboard.c:0:9
	b	.LBB2_61
.LBB2_61:
	b	.LBB2_62
.LBB2_62:
	b	.LBB2_63
.LBB2_63:
	b	.LBB2_64
.LBB2_64:
	.loc	10 480 1 is_stmt 1              @ lvgl/src/lv_widgets/lv_keyboard.c:480:1
	add	sp, #32
	pop	{r7, pc}
.Ltmp134:
.Lfunc_end2:
	.size	lv_keyboard_def_event_cb, .Lfunc_end2-lv_keyboard_def_event_cb
	.cfi_endproc
	.cantunwind
	.fnend
                                        @ -- End function
	.section	.text.lv_keyboard_set_textarea,"ax",%progbits
	.hidden	lv_keyboard_set_textarea        @ -- Begin function lv_keyboard_set_textarea
	.globl	lv_keyboard_set_textarea
	.p2align	3
	.type	lv_keyboard_set_textarea,%function
	.code	16                              @ @lv_keyboard_set_textarea
	.thumb_func
lv_keyboard_set_textarea:
.Lfunc_begin3:
	.loc	10 235 0                        @ lvgl/src/lv_widgets/lv_keyboard.c:235:0
	.fnstart
	.cfi_startproc
@ %bb.0:
	.save	{r7, lr}
	push	{r7, lr}
	.cfi_def_cfa_offset 8
	.cfi_offset lr, -4
	.cfi_offset r7, -8
	.pad	#16
	sub	sp, #16
	.cfi_def_cfa_offset 24
	str	r0, [sp, #12]
	str	r1, [sp, #8]
.Ltmp135:
	.loc	10 236 5 prologue_end           @ lvgl/src/lv_widgets/lv_keyboard.c:236:5
	b	.LBB3_1
.LBB3_1:
.Ltmp136:
	.loc	10 236 5 is_stmt 0              @ lvgl/src/lv_widgets/lv_keyboard.c:236:5
	ldr	r0, [sp, #12]
	bl	lv_debug_check_null
.Ltmp137:
	.loc	10 236 5                        @ lvgl/src/lv_widgets/lv_keyboard.c:236:5
	cbnz	r0, .LBB3_4
	b	.LBB3_2
.LBB3_2:
.Ltmp138:
	.loc	10 236 5                        @ lvgl/src/lv_widgets/lv_keyboard.c:236:5
	ldr	r2, [sp, #12]
	movw	r0, :lower16:.L.str.1
	movt	r0, :upper16:.L.str.1
	movs	r3, #0
	bl	lv_debug_log_error
	b	.LBB3_3
.LBB3_3:                                @ =>This Inner Loop Header: Depth=1
	b	.LBB3_3
.Ltmp139:
.LBB3_4:
	.loc	10 236 5                        @ lvgl/src/lv_widgets/lv_keyboard.c:236:5
	b	.LBB3_5
.Ltmp140:
.LBB3_5:
	.loc	10 237 8 is_stmt 1              @ lvgl/src/lv_widgets/lv_keyboard.c:237:8
	ldr	r0, [sp, #8]
.Ltmp141:
	.loc	10 237 8 is_stmt 0              @ lvgl/src/lv_widgets/lv_keyboard.c:237:8
	cbz	r0, .LBB3_12
	b	.LBB3_6
.LBB3_6:
.Ltmp142:
	.loc	10 238 9 is_stmt 1              @ lvgl/src/lv_widgets/lv_keyboard.c:238:9
	b	.LBB3_7
.LBB3_7:
.Ltmp143:
	.loc	10 238 9 is_stmt 0              @ lvgl/src/lv_widgets/lv_keyboard.c:238:9
	ldr	r0, [sp, #8]
	bl	lv_debug_check_null
.Ltmp144:
	.loc	10 238 9                        @ lvgl/src/lv_widgets/lv_keyboard.c:238:9
	cbnz	r0, .LBB3_10
	b	.LBB3_8
.LBB3_8:
.Ltmp145:
	.loc	10 238 9                        @ lvgl/src/lv_widgets/lv_keyboard.c:238:9
	ldr	r2, [sp, #8]
	movw	r0, :lower16:.L.str.1
	movt	r0, :upper16:.L.str.1
	movs	r3, #0
	bl	lv_debug_log_error
	b	.LBB3_9
.LBB3_9:                                @ =>This Inner Loop Header: Depth=1
	b	.LBB3_9
.Ltmp146:
.LBB3_10:
	.loc	10 238 9                        @ lvgl/src/lv_widgets/lv_keyboard.c:238:9
	b	.LBB3_11
.Ltmp147:
.LBB3_11:
	.loc	10 239 5 is_stmt 1              @ lvgl/src/lv_widgets/lv_keyboard.c:239:5
	b	.LBB3_12
.Ltmp148:
.LBB3_12:
	.loc	10 241 51                       @ lvgl/src/lv_widgets/lv_keyboard.c:241:51
	ldr	r0, [sp, #12]
	.loc	10 241 31 is_stmt 0             @ lvgl/src/lv_widgets/lv_keyboard.c:241:31
	bl	lv_obj_get_ext_attr
	.loc	10 241 25                       @ lvgl/src/lv_widgets/lv_keyboard.c:241:25
	str	r0, [sp, #4]
.Ltmp149:
	.loc	10 244 8 is_stmt 1              @ lvgl/src/lv_widgets/lv_keyboard.c:244:8
	ldr	r0, [sp, #4]
	.loc	10 244 13 is_stmt 0             @ lvgl/src/lv_widgets/lv_keyboard.c:244:13
	ldr	r0, [r0, #32]
	.loc	10 244 16                       @ lvgl/src/lv_widgets/lv_keyboard.c:244:16
	cbz	r0, .LBB3_15
	b	.LBB3_13
.LBB3_13:
	.loc	10 244 19                       @ lvgl/src/lv_widgets/lv_keyboard.c:244:19
	ldr	r0, [sp, #4]
	.loc	10 244 24                       @ lvgl/src/lv_widgets/lv_keyboard.c:244:24
	ldrb.w	r0, [r0, #37]
.Ltmp150:
	.loc	10 244 8                        @ lvgl/src/lv_widgets/lv_keyboard.c:244:8
	lsls	r0, r0, #31
	cbz	r0, .LBB3_15
	b	.LBB3_14
.LBB3_14:
.Ltmp151:
	.loc	10 245 39 is_stmt 1             @ lvgl/src/lv_widgets/lv_keyboard.c:245:39
	ldr	r0, [sp, #4]
	.loc	10 245 44 is_stmt 0             @ lvgl/src/lv_widgets/lv_keyboard.c:245:44
	ldr	r0, [r0, #32]
	movs	r1, #1
	.loc	10 245 9                        @ lvgl/src/lv_widgets/lv_keyboard.c:245:9
	bl	lv_textarea_set_cursor_hidden
	.loc	10 246 5 is_stmt 1              @ lvgl/src/lv_widgets/lv_keyboard.c:246:5
	b	.LBB3_15
.Ltmp152:
.LBB3_15:
	.loc	10 248 15                       @ lvgl/src/lv_widgets/lv_keyboard.c:248:15
	ldr	r0, [sp, #8]
	.loc	10 248 5 is_stmt 0              @ lvgl/src/lv_widgets/lv_keyboard.c:248:5
	ldr	r1, [sp, #4]
	.loc	10 248 13                       @ lvgl/src/lv_widgets/lv_keyboard.c:248:13
	str	r0, [r1, #32]
.Ltmp153:
	.loc	10 251 8 is_stmt 1              @ lvgl/src/lv_widgets/lv_keyboard.c:251:8
	ldr	r0, [sp, #4]
	.loc	10 251 13 is_stmt 0             @ lvgl/src/lv_widgets/lv_keyboard.c:251:13
	ldr	r0, [r0, #32]
	.loc	10 251 16                       @ lvgl/src/lv_widgets/lv_keyboard.c:251:16
	cbz	r0, .LBB3_18
	b	.LBB3_16
.LBB3_16:
	.loc	10 251 19                       @ lvgl/src/lv_widgets/lv_keyboard.c:251:19
	ldr	r0, [sp, #4]
	.loc	10 251 24                       @ lvgl/src/lv_widgets/lv_keyboard.c:251:24
	ldrb.w	r0, [r0, #37]
.Ltmp154:
	.loc	10 251 8                        @ lvgl/src/lv_widgets/lv_keyboard.c:251:8
	lsls	r0, r0, #31
	cbz	r0, .LBB3_18
	b	.LBB3_17
.LBB3_17:
.Ltmp155:
	.loc	10 252 39 is_stmt 1             @ lvgl/src/lv_widgets/lv_keyboard.c:252:39
	ldr	r0, [sp, #4]
	.loc	10 252 44 is_stmt 0             @ lvgl/src/lv_widgets/lv_keyboard.c:252:44
	ldr	r0, [r0, #32]
	movs	r1, #0
	.loc	10 252 9                        @ lvgl/src/lv_widgets/lv_keyboard.c:252:9
	bl	lv_textarea_set_cursor_hidden
	.loc	10 253 5 is_stmt 1              @ lvgl/src/lv_widgets/lv_keyboard.c:253:5
	b	.LBB3_18
.Ltmp156:
.LBB3_18:
	.loc	10 254 1                        @ lvgl/src/lv_widgets/lv_keyboard.c:254:1
	add	sp, #16
	pop	{r7, pc}
.Ltmp157:
.Lfunc_end3:
	.size	lv_keyboard_set_textarea, .Lfunc_end3-lv_keyboard_set_textarea
	.cfi_endproc
	.cantunwind
	.fnend
                                        @ -- End function
	.section	.text.lv_keyboard_set_mode,"ax",%progbits
	.hidden	lv_keyboard_set_mode            @ -- Begin function lv_keyboard_set_mode
	.globl	lv_keyboard_set_mode
	.p2align	3
	.type	lv_keyboard_set_mode,%function
	.code	16                              @ @lv_keyboard_set_mode
	.thumb_func
lv_keyboard_set_mode:
.Lfunc_begin4:
	.loc	10 262 0                        @ lvgl/src/lv_widgets/lv_keyboard.c:262:0
	.fnstart
	.cfi_startproc
@ %bb.0:
	.save	{r7, lr}
	push	{r7, lr}
	.cfi_def_cfa_offset 8
	.cfi_offset lr, -4
	.cfi_offset r7, -8
	.pad	#16
	sub	sp, #16
	.cfi_def_cfa_offset 24
                                        @ kill: def $r2 killed $r1
	str	r0, [sp, #12]
	strb.w	r1, [sp, #11]
.Ltmp158:
	.loc	10 263 5 prologue_end           @ lvgl/src/lv_widgets/lv_keyboard.c:263:5
	b	.LBB4_1
.LBB4_1:
.Ltmp159:
	.loc	10 263 5 is_stmt 0              @ lvgl/src/lv_widgets/lv_keyboard.c:263:5
	ldr	r0, [sp, #12]
	bl	lv_debug_check_null
.Ltmp160:
	.loc	10 263 5                        @ lvgl/src/lv_widgets/lv_keyboard.c:263:5
	cbnz	r0, .LBB4_4
	b	.LBB4_2
.LBB4_2:
.Ltmp161:
	.loc	10 263 5                        @ lvgl/src/lv_widgets/lv_keyboard.c:263:5
	ldr	r2, [sp, #12]
	movw	r0, :lower16:.L.str.1
	movt	r0, :upper16:.L.str.1
	movs	r3, #0
	bl	lv_debug_log_error
	b	.LBB4_3
.LBB4_3:                                @ =>This Inner Loop Header: Depth=1
	b	.LBB4_3
.Ltmp162:
.LBB4_4:
	.loc	10 263 5                        @ lvgl/src/lv_widgets/lv_keyboard.c:263:5
	b	.LBB4_5
.Ltmp163:
.LBB4_5:
	.loc	10 265 51 is_stmt 1             @ lvgl/src/lv_widgets/lv_keyboard.c:265:51
	ldr	r0, [sp, #12]
	.loc	10 265 31 is_stmt 0             @ lvgl/src/lv_widgets/lv_keyboard.c:265:31
	bl	lv_obj_get_ext_attr
	.loc	10 265 25                       @ lvgl/src/lv_widgets/lv_keyboard.c:265:25
	str	r0, [sp, #4]
.Ltmp164:
	.loc	10 266 8 is_stmt 1              @ lvgl/src/lv_widgets/lv_keyboard.c:266:8
	ldr	r0, [sp, #4]
	.loc	10 266 13 is_stmt 0             @ lvgl/src/lv_widgets/lv_keyboard.c:266:13
	ldrb.w	r0, [r0, #36]
	.loc	10 266 21                       @ lvgl/src/lv_widgets/lv_keyboard.c:266:21
	ldrb.w	r1, [sp, #11]
.Ltmp165:
	.loc	10 266 8                        @ lvgl/src/lv_widgets/lv_keyboard.c:266:8
	cmp	r0, r1
	bne	.LBB4_7
	b	.LBB4_6
.LBB4_6:
.Ltmp166:
	.loc	10 266 27                       @ lvgl/src/lv_widgets/lv_keyboard.c:266:27
	b	.LBB4_8
.Ltmp167:
.LBB4_7:
	.loc	10 268 17 is_stmt 1             @ lvgl/src/lv_widgets/lv_keyboard.c:268:17
	ldrb.w	r0, [sp, #11]
	.loc	10 268 5 is_stmt 0              @ lvgl/src/lv_widgets/lv_keyboard.c:268:5
	ldr	r1, [sp, #4]
	.loc	10 268 15                       @ lvgl/src/lv_widgets/lv_keyboard.c:268:15
	strb.w	r0, [r1, #36]
	.loc	10 269 26 is_stmt 1             @ lvgl/src/lv_widgets/lv_keyboard.c:269:26
	ldr	r0, [sp, #12]
	.loc	10 269 37 is_stmt 0             @ lvgl/src/lv_widgets/lv_keyboard.c:269:37
	ldrb.w	r2, [sp, #11]
	.loc	10 269 30                       @ lvgl/src/lv_widgets/lv_keyboard.c:269:30
	movw	r1, :lower16:kb_map
	movt	r1, :upper16:kb_map
	ldr.w	r1, [r1, r2, lsl #2]
	.loc	10 269 5                        @ lvgl/src/lv_widgets/lv_keyboard.c:269:5
	bl	lv_btnmatrix_set_map
	.loc	10 270 31 is_stmt 1             @ lvgl/src/lv_widgets/lv_keyboard.c:270:31
	ldr	r0, [sp, #12]
	.loc	10 270 43 is_stmt 0             @ lvgl/src/lv_widgets/lv_keyboard.c:270:43
	ldrb.w	r2, [sp, #11]
	.loc	10 270 35                       @ lvgl/src/lv_widgets/lv_keyboard.c:270:35
	movw	r1, :lower16:kb_ctrl
	movt	r1, :upper16:kb_ctrl
	ldr.w	r1, [r1, r2, lsl #2]
	.loc	10 270 5                        @ lvgl/src/lv_widgets/lv_keyboard.c:270:5
	bl	lv_btnmatrix_set_ctrl_map
	.loc	10 271 1 is_stmt 1              @ lvgl/src/lv_widgets/lv_keyboard.c:271:1
	b	.LBB4_8
.LBB4_8:
	add	sp, #16
	pop	{r7, pc}
.Ltmp168:
.Lfunc_end4:
	.size	lv_keyboard_set_mode, .Lfunc_end4-lv_keyboard_set_mode
	.cfi_endproc
	.cantunwind
	.fnend
                                        @ -- End function
	.section	.text.lv_keyboard_set_cursor_manage,"ax",%progbits
	.hidden	lv_keyboard_set_cursor_manage   @ -- Begin function lv_keyboard_set_cursor_manage
	.globl	lv_keyboard_set_cursor_manage
	.p2align	3
	.type	lv_keyboard_set_cursor_manage,%function
	.code	16                              @ @lv_keyboard_set_cursor_manage
	.thumb_func
lv_keyboard_set_cursor_manage:
.Lfunc_begin5:
	.loc	10 279 0                        @ lvgl/src/lv_widgets/lv_keyboard.c:279:0
	.fnstart
	.cfi_startproc
@ %bb.0:
	.save	{r7, lr}
	push	{r7, lr}
	.cfi_def_cfa_offset 8
	.cfi_offset lr, -4
	.cfi_offset r7, -8
	.pad	#16
	sub	sp, #16
	.cfi_def_cfa_offset 24
                                        @ kill: def $r2 killed $r1
	str	r0, [sp, #12]
	strb.w	r1, [sp, #11]
.Ltmp169:
	.loc	10 280 5 prologue_end           @ lvgl/src/lv_widgets/lv_keyboard.c:280:5
	b	.LBB5_1
.LBB5_1:
.Ltmp170:
	.loc	10 280 5 is_stmt 0              @ lvgl/src/lv_widgets/lv_keyboard.c:280:5
	ldr	r0, [sp, #12]
	bl	lv_debug_check_null
.Ltmp171:
	.loc	10 280 5                        @ lvgl/src/lv_widgets/lv_keyboard.c:280:5
	cbnz	r0, .LBB5_4
	b	.LBB5_2
.LBB5_2:
.Ltmp172:
	.loc	10 280 5                        @ lvgl/src/lv_widgets/lv_keyboard.c:280:5
	ldr	r2, [sp, #12]
	movw	r0, :lower16:.L.str.1
	movt	r0, :upper16:.L.str.1
	movs	r3, #0
	bl	lv_debug_log_error
	b	.LBB5_3
.LBB5_3:                                @ =>This Inner Loop Header: Depth=1
	b	.LBB5_3
.Ltmp173:
.LBB5_4:
	.loc	10 280 5                        @ lvgl/src/lv_widgets/lv_keyboard.c:280:5
	b	.LBB5_5
.Ltmp174:
.LBB5_5:
	.loc	10 282 51 is_stmt 1             @ lvgl/src/lv_widgets/lv_keyboard.c:282:51
	ldr	r0, [sp, #12]
	.loc	10 282 31 is_stmt 0             @ lvgl/src/lv_widgets/lv_keyboard.c:282:31
	bl	lv_obj_get_ext_attr
	.loc	10 282 25                       @ lvgl/src/lv_widgets/lv_keyboard.c:282:25
	str	r0, [sp, #4]
.Ltmp175:
	.loc	10 283 8 is_stmt 1              @ lvgl/src/lv_widgets/lv_keyboard.c:283:8
	ldr	r0, [sp, #4]
	.loc	10 283 13 is_stmt 0             @ lvgl/src/lv_widgets/lv_keyboard.c:283:13
	ldrb.w	r0, [r0, #37]
	.loc	10 283 8                        @ lvgl/src/lv_widgets/lv_keyboard.c:283:8
	and	r0, r0, #1
	.loc	10 283 27                       @ lvgl/src/lv_widgets/lv_keyboard.c:283:27
	ldrb.w	r1, [sp, #11]
	and	r1, r1, #1
.Ltmp176:
	.loc	10 283 8                        @ lvgl/src/lv_widgets/lv_keyboard.c:283:8
	cmp	r0, r1
	bne	.LBB5_7
	b	.LBB5_6
.LBB5_6:
.Ltmp177:
	.loc	10 283 31                       @ lvgl/src/lv_widgets/lv_keyboard.c:283:31
	b	.LBB5_12
.Ltmp178:
.LBB5_7:
	.loc	10 285 23 is_stmt 1             @ lvgl/src/lv_widgets/lv_keyboard.c:285:23
	ldrb.w	r0, [sp, #11]
	and	r2, r0, #1
	.loc	10 285 5 is_stmt 0              @ lvgl/src/lv_widgets/lv_keyboard.c:285:5
	ldr	r1, [sp, #4]
	.loc	10 285 21                       @ lvgl/src/lv_widgets/lv_keyboard.c:285:21
	ldrb.w	r0, [r1, #37]
	and	r0, r0, #254
	add	r0, r2
	strb.w	r0, [r1, #37]
.Ltmp179:
	.loc	10 287 8 is_stmt 1              @ lvgl/src/lv_widgets/lv_keyboard.c:287:8
	ldr	r0, [sp, #4]
	.loc	10 287 13 is_stmt 0             @ lvgl/src/lv_widgets/lv_keyboard.c:287:13
	ldr	r0, [r0, #32]
.Ltmp180:
	.loc	10 287 8                        @ lvgl/src/lv_widgets/lv_keyboard.c:287:8
	cbz	r0, .LBB5_12
	b	.LBB5_8
.LBB5_8:
.Ltmp181:
	.loc	10 289 12 is_stmt 1             @ lvgl/src/lv_widgets/lv_keyboard.c:289:12
	ldr	r0, [sp, #4]
	.loc	10 289 17 is_stmt 0             @ lvgl/src/lv_widgets/lv_keyboard.c:289:17
	ldrb.w	r0, [r0, #37]
.Ltmp182:
	.loc	10 289 12                       @ lvgl/src/lv_widgets/lv_keyboard.c:289:12
	lsls	r0, r0, #31
	cbz	r0, .LBB5_10
	b	.LBB5_9
.LBB5_9:
.Ltmp183:
	.loc	10 290 43 is_stmt 1             @ lvgl/src/lv_widgets/lv_keyboard.c:290:43
	ldr	r0, [sp, #4]
	.loc	10 290 48 is_stmt 0             @ lvgl/src/lv_widgets/lv_keyboard.c:290:48
	ldr	r0, [r0, #32]
	movs	r1, #0
	.loc	10 290 13                       @ lvgl/src/lv_widgets/lv_keyboard.c:290:13
	bl	lv_textarea_set_cursor_hidden
	.loc	10 291 9 is_stmt 1              @ lvgl/src/lv_widgets/lv_keyboard.c:291:9
	b	.LBB5_11
.Ltmp184:
.LBB5_10:
	.loc	10 293 43                       @ lvgl/src/lv_widgets/lv_keyboard.c:293:43
	ldr	r0, [sp, #4]
	.loc	10 293 48 is_stmt 0             @ lvgl/src/lv_widgets/lv_keyboard.c:293:48
	ldr	r0, [r0, #32]
	movs	r1, #1
	.loc	10 293 13                       @ lvgl/src/lv_widgets/lv_keyboard.c:293:13
	bl	lv_textarea_set_cursor_hidden
	b	.LBB5_11
.Ltmp185:
.LBB5_11:
	.loc	10 295 5 is_stmt 1              @ lvgl/src/lv_widgets/lv_keyboard.c:295:5
	b	.LBB5_12
.Ltmp186:
.LBB5_12:
	.loc	10 296 1                        @ lvgl/src/lv_widgets/lv_keyboard.c:296:1
	add	sp, #16
	pop	{r7, pc}
.Ltmp187:
.Lfunc_end5:
	.size	lv_keyboard_set_cursor_manage, .Lfunc_end5-lv_keyboard_set_cursor_manage
	.cfi_endproc
	.cantunwind
	.fnend
                                        @ -- End function
	.section	.text.lv_keyboard_set_map,"ax",%progbits
	.hidden	lv_keyboard_set_map             @ -- Begin function lv_keyboard_set_map
	.globl	lv_keyboard_set_map
	.p2align	3
	.type	lv_keyboard_set_map,%function
	.code	16                              @ @lv_keyboard_set_map
	.thumb_func
lv_keyboard_set_map:
.Lfunc_begin6:
	.loc	10 306 0                        @ lvgl/src/lv_widgets/lv_keyboard.c:306:0
	.fnstart
	.cfi_startproc
@ %bb.0:
	.save	{r7, lr}
	push	{r7, lr}
	.cfi_def_cfa_offset 8
	.cfi_offset lr, -4
	.cfi_offset r7, -8
	.pad	#16
	sub	sp, #16
	.cfi_def_cfa_offset 24
                                        @ kill: def $r3 killed $r1
	str	r0, [sp, #12]
	strb.w	r1, [sp, #11]
	str	r2, [sp, #4]
.Ltmp188:
	.loc	10 307 20 prologue_end          @ lvgl/src/lv_widgets/lv_keyboard.c:307:20
	ldr	r0, [sp, #4]
	.loc	10 307 12 is_stmt 0             @ lvgl/src/lv_widgets/lv_keyboard.c:307:12
	ldrb.w	r2, [sp, #11]
	.loc	10 307 5                        @ lvgl/src/lv_widgets/lv_keyboard.c:307:5
	movw	r1, :lower16:kb_map
	movt	r1, :upper16:kb_map
	.loc	10 307 18                       @ lvgl/src/lv_widgets/lv_keyboard.c:307:18
	str.w	r0, [r1, r2, lsl #2]
	.loc	10 308 28 is_stmt 1             @ lvgl/src/lv_widgets/lv_keyboard.c:308:28
	ldr	r0, [sp, #12]
	.loc	10 308 5 is_stmt 0              @ lvgl/src/lv_widgets/lv_keyboard.c:308:5
	bl	lv_keyboard_update_map
	.loc	10 309 1 is_stmt 1              @ lvgl/src/lv_widgets/lv_keyboard.c:309:1
	add	sp, #16
	pop	{r7, pc}
.Ltmp189:
.Lfunc_end6:
	.size	lv_keyboard_set_map, .Lfunc_end6-lv_keyboard_set_map
	.cfi_endproc
	.cantunwind
	.fnend
                                        @ -- End function
	.section	.text.lv_keyboard_update_map,"ax",%progbits
	.p2align	3                               @ -- Begin function lv_keyboard_update_map
	.type	lv_keyboard_update_map,%function
	.code	16                              @ @lv_keyboard_update_map
	.thumb_func
lv_keyboard_update_map:
.Lfunc_begin7:
	.loc	10 528 0                        @ lvgl/src/lv_widgets/lv_keyboard.c:528:0
	.fnstart
	.cfi_startproc
@ %bb.0:
	.save	{r7, lr}
	push	{r7, lr}
	.cfi_def_cfa_offset 8
	.cfi_offset lr, -4
	.cfi_offset r7, -8
	.pad	#8
	sub	sp, #8
	.cfi_def_cfa_offset 16
	str	r0, [sp, #4]
.Ltmp190:
	.loc	10 529 51 prologue_end          @ lvgl/src/lv_widgets/lv_keyboard.c:529:51
	ldr	r0, [sp, #4]
	.loc	10 529 31 is_stmt 0             @ lvgl/src/lv_widgets/lv_keyboard.c:529:31
	bl	lv_obj_get_ext_attr
	.loc	10 529 25                       @ lvgl/src/lv_widgets/lv_keyboard.c:529:25
	str	r0, [sp]
	.loc	10 530 26 is_stmt 1             @ lvgl/src/lv_widgets/lv_keyboard.c:530:26
	ldr	r0, [sp, #4]
	.loc	10 530 37 is_stmt 0             @ lvgl/src/lv_widgets/lv_keyboard.c:530:37
	ldr	r1, [sp]
	.loc	10 530 42                       @ lvgl/src/lv_widgets/lv_keyboard.c:530:42
	ldrb.w	r2, [r1, #36]
	.loc	10 530 30                       @ lvgl/src/lv_widgets/lv_keyboard.c:530:30
	movw	r1, :lower16:kb_map
	movt	r1, :upper16:kb_map
	ldr.w	r1, [r1, r2, lsl #2]
	.loc	10 530 5                        @ lvgl/src/lv_widgets/lv_keyboard.c:530:5
	bl	lv_btnmatrix_set_map
	.loc	10 531 31 is_stmt 1             @ lvgl/src/lv_widgets/lv_keyboard.c:531:31
	ldr	r0, [sp, #4]
	.loc	10 531 43 is_stmt 0             @ lvgl/src/lv_widgets/lv_keyboard.c:531:43
	ldr	r1, [sp]
	.loc	10 531 48                       @ lvgl/src/lv_widgets/lv_keyboard.c:531:48
	ldrb.w	r2, [r1, #36]
	.loc	10 531 35                       @ lvgl/src/lv_widgets/lv_keyboard.c:531:35
	movw	r1, :lower16:kb_ctrl
	movt	r1, :upper16:kb_ctrl
	ldr.w	r1, [r1, r2, lsl #2]
	.loc	10 531 5                        @ lvgl/src/lv_widgets/lv_keyboard.c:531:5
	bl	lv_btnmatrix_set_ctrl_map
	.loc	10 532 1 is_stmt 1              @ lvgl/src/lv_widgets/lv_keyboard.c:532:1
	add	sp, #8
	pop	{r7, pc}
.Ltmp191:
.Lfunc_end7:
	.size	lv_keyboard_update_map, .Lfunc_end7-lv_keyboard_update_map
	.cfi_endproc
	.cantunwind
	.fnend
                                        @ -- End function
	.section	.text.lv_keyboard_set_ctrl_map,"ax",%progbits
	.hidden	lv_keyboard_set_ctrl_map        @ -- Begin function lv_keyboard_set_ctrl_map
	.globl	lv_keyboard_set_ctrl_map
	.p2align	3
	.type	lv_keyboard_set_ctrl_map,%function
	.code	16                              @ @lv_keyboard_set_ctrl_map
	.thumb_func
lv_keyboard_set_ctrl_map:
.Lfunc_begin8:
	.loc	10 321 0                        @ lvgl/src/lv_widgets/lv_keyboard.c:321:0
	.fnstart
	.cfi_startproc
@ %bb.0:
	.save	{r7, lr}
	push	{r7, lr}
	.cfi_def_cfa_offset 8
	.cfi_offset lr, -4
	.cfi_offset r7, -8
	.pad	#16
	sub	sp, #16
	.cfi_def_cfa_offset 24
                                        @ kill: def $r3 killed $r1
	str	r0, [sp, #12]
	strb.w	r1, [sp, #11]
	str	r2, [sp, #4]
.Ltmp192:
	.loc	10 322 21 prologue_end          @ lvgl/src/lv_widgets/lv_keyboard.c:322:21
	ldr	r0, [sp, #4]
	.loc	10 322 13 is_stmt 0             @ lvgl/src/lv_widgets/lv_keyboard.c:322:13
	ldrb.w	r2, [sp, #11]
	.loc	10 322 5                        @ lvgl/src/lv_widgets/lv_keyboard.c:322:5
	movw	r1, :lower16:kb_ctrl
	movt	r1, :upper16:kb_ctrl
	.loc	10 322 19                       @ lvgl/src/lv_widgets/lv_keyboard.c:322:19
	str.w	r0, [r1, r2, lsl #2]
	.loc	10 323 28 is_stmt 1             @ lvgl/src/lv_widgets/lv_keyboard.c:323:28
	ldr	r0, [sp, #12]
	.loc	10 323 5 is_stmt 0              @ lvgl/src/lv_widgets/lv_keyboard.c:323:5
	bl	lv_keyboard_update_map
	.loc	10 324 1 is_stmt 1              @ lvgl/src/lv_widgets/lv_keyboard.c:324:1
	add	sp, #16
	pop	{r7, pc}
.Ltmp193:
.Lfunc_end8:
	.size	lv_keyboard_set_ctrl_map, .Lfunc_end8-lv_keyboard_set_ctrl_map
	.cfi_endproc
	.cantunwind
	.fnend
                                        @ -- End function
	.section	.text.lv_keyboard_get_textarea,"ax",%progbits
	.hidden	lv_keyboard_get_textarea        @ -- Begin function lv_keyboard_get_textarea
	.globl	lv_keyboard_get_textarea
	.p2align	3
	.type	lv_keyboard_get_textarea,%function
	.code	16                              @ @lv_keyboard_get_textarea
	.thumb_func
lv_keyboard_get_textarea:
.Lfunc_begin9:
	.loc	10 336 0                        @ lvgl/src/lv_widgets/lv_keyboard.c:336:0
	.fnstart
	.cfi_startproc
@ %bb.0:
	.save	{r7, lr}
	push	{r7, lr}
	.cfi_def_cfa_offset 8
	.cfi_offset lr, -4
	.cfi_offset r7, -8
	.pad	#8
	sub	sp, #8
	.cfi_def_cfa_offset 16
	str	r0, [sp, #4]
.Ltmp194:
	.loc	10 337 5 prologue_end           @ lvgl/src/lv_widgets/lv_keyboard.c:337:5
	b	.LBB9_1
.LBB9_1:
.Ltmp195:
	.loc	10 337 5 is_stmt 0              @ lvgl/src/lv_widgets/lv_keyboard.c:337:5
	ldr	r0, [sp, #4]
	bl	lv_debug_check_null
.Ltmp196:
	.loc	10 337 5                        @ lvgl/src/lv_widgets/lv_keyboard.c:337:5
	cbnz	r0, .LBB9_4
	b	.LBB9_2
.LBB9_2:
.Ltmp197:
	.loc	10 337 5                        @ lvgl/src/lv_widgets/lv_keyboard.c:337:5
	ldr	r2, [sp, #4]
	movw	r0, :lower16:.L.str.1
	movt	r0, :upper16:.L.str.1
	movs	r3, #0
	bl	lv_debug_log_error
	b	.LBB9_3
.LBB9_3:                                @ =>This Inner Loop Header: Depth=1
	b	.LBB9_3
.Ltmp198:
.LBB9_4:
	.loc	10 337 5                        @ lvgl/src/lv_widgets/lv_keyboard.c:337:5
	b	.LBB9_5
.Ltmp199:
.LBB9_5:
	.loc	10 339 51 is_stmt 1             @ lvgl/src/lv_widgets/lv_keyboard.c:339:51
	ldr	r0, [sp, #4]
	.loc	10 339 31 is_stmt 0             @ lvgl/src/lv_widgets/lv_keyboard.c:339:31
	bl	lv_obj_get_ext_attr
	.loc	10 339 25                       @ lvgl/src/lv_widgets/lv_keyboard.c:339:25
	str	r0, [sp]
	.loc	10 340 12 is_stmt 1             @ lvgl/src/lv_widgets/lv_keyboard.c:340:12
	ldr	r0, [sp]
	.loc	10 340 17 is_stmt 0             @ lvgl/src/lv_widgets/lv_keyboard.c:340:17
	ldr	r0, [r0, #32]
	.loc	10 340 5                        @ lvgl/src/lv_widgets/lv_keyboard.c:340:5
	add	sp, #8
	pop	{r7, pc}
.Ltmp200:
.Lfunc_end9:
	.size	lv_keyboard_get_textarea, .Lfunc_end9-lv_keyboard_get_textarea
	.cfi_endproc
	.cantunwind
	.fnend
                                        @ -- End function
	.section	.text.lv_keyboard_get_mode,"ax",%progbits
	.hidden	lv_keyboard_get_mode            @ -- Begin function lv_keyboard_get_mode
	.globl	lv_keyboard_get_mode
	.p2align	3
	.type	lv_keyboard_get_mode,%function
	.code	16                              @ @lv_keyboard_get_mode
	.thumb_func
lv_keyboard_get_mode:
.Lfunc_begin10:
	.loc	10 349 0 is_stmt 1              @ lvgl/src/lv_widgets/lv_keyboard.c:349:0
	.fnstart
	.cfi_startproc
@ %bb.0:
	.save	{r7, lr}
	push	{r7, lr}
	.cfi_def_cfa_offset 8
	.cfi_offset lr, -4
	.cfi_offset r7, -8
	.pad	#8
	sub	sp, #8
	.cfi_def_cfa_offset 16
	str	r0, [sp, #4]
.Ltmp201:
	.loc	10 350 5 prologue_end           @ lvgl/src/lv_widgets/lv_keyboard.c:350:5
	b	.LBB10_1
.LBB10_1:
.Ltmp202:
	.loc	10 350 5 is_stmt 0              @ lvgl/src/lv_widgets/lv_keyboard.c:350:5
	ldr	r0, [sp, #4]
	bl	lv_debug_check_null
.Ltmp203:
	.loc	10 350 5                        @ lvgl/src/lv_widgets/lv_keyboard.c:350:5
	cbnz	r0, .LBB10_4
	b	.LBB10_2
.LBB10_2:
.Ltmp204:
	.loc	10 350 5                        @ lvgl/src/lv_widgets/lv_keyboard.c:350:5
	ldr	r2, [sp, #4]
	movw	r0, :lower16:.L.str.1
	movt	r0, :upper16:.L.str.1
	movs	r3, #0
	bl	lv_debug_log_error
	b	.LBB10_3
.LBB10_3:                               @ =>This Inner Loop Header: Depth=1
	b	.LBB10_3
.Ltmp205:
.LBB10_4:
	.loc	10 350 5                        @ lvgl/src/lv_widgets/lv_keyboard.c:350:5
	b	.LBB10_5
.Ltmp206:
.LBB10_5:
	.loc	10 352 51 is_stmt 1             @ lvgl/src/lv_widgets/lv_keyboard.c:352:51
	ldr	r0, [sp, #4]
	.loc	10 352 31 is_stmt 0             @ lvgl/src/lv_widgets/lv_keyboard.c:352:31
	bl	lv_obj_get_ext_attr
	.loc	10 352 25                       @ lvgl/src/lv_widgets/lv_keyboard.c:352:25
	str	r0, [sp]
	.loc	10 353 12 is_stmt 1             @ lvgl/src/lv_widgets/lv_keyboard.c:353:12
	ldr	r0, [sp]
	.loc	10 353 17 is_stmt 0             @ lvgl/src/lv_widgets/lv_keyboard.c:353:17
	ldrb.w	r0, [r0, #36]
	.loc	10 353 5                        @ lvgl/src/lv_widgets/lv_keyboard.c:353:5
	add	sp, #8
	pop	{r7, pc}
.Ltmp207:
.Lfunc_end10:
	.size	lv_keyboard_get_mode, .Lfunc_end10-lv_keyboard_get_mode
	.cfi_endproc
	.cantunwind
	.fnend
                                        @ -- End function
	.section	.text.lv_keyboard_get_cursor_manage,"ax",%progbits
	.hidden	lv_keyboard_get_cursor_manage   @ -- Begin function lv_keyboard_get_cursor_manage
	.globl	lv_keyboard_get_cursor_manage
	.p2align	3
	.type	lv_keyboard_get_cursor_manage,%function
	.code	16                              @ @lv_keyboard_get_cursor_manage
	.thumb_func
lv_keyboard_get_cursor_manage:
.Lfunc_begin11:
	.loc	10 362 0 is_stmt 1              @ lvgl/src/lv_widgets/lv_keyboard.c:362:0
	.fnstart
	.cfi_startproc
@ %bb.0:
	.save	{r7, lr}
	push	{r7, lr}
	.cfi_def_cfa_offset 8
	.cfi_offset lr, -4
	.cfi_offset r7, -8
	.pad	#8
	sub	sp, #8
	.cfi_def_cfa_offset 16
	str	r0, [sp, #4]
.Ltmp208:
	.loc	10 363 5 prologue_end           @ lvgl/src/lv_widgets/lv_keyboard.c:363:5
	b	.LBB11_1
.LBB11_1:
.Ltmp209:
	.loc	10 363 5 is_stmt 0              @ lvgl/src/lv_widgets/lv_keyboard.c:363:5
	ldr	r0, [sp, #4]
	bl	lv_debug_check_null
.Ltmp210:
	.loc	10 363 5                        @ lvgl/src/lv_widgets/lv_keyboard.c:363:5
	cbnz	r0, .LBB11_4
	b	.LBB11_2
.LBB11_2:
.Ltmp211:
	.loc	10 363 5                        @ lvgl/src/lv_widgets/lv_keyboard.c:363:5
	ldr	r2, [sp, #4]
	movw	r0, :lower16:.L.str.1
	movt	r0, :upper16:.L.str.1
	movs	r3, #0
	bl	lv_debug_log_error
	b	.LBB11_3
.LBB11_3:                               @ =>This Inner Loop Header: Depth=1
	b	.LBB11_3
.Ltmp212:
.LBB11_4:
	.loc	10 363 5                        @ lvgl/src/lv_widgets/lv_keyboard.c:363:5
	b	.LBB11_5
.Ltmp213:
.LBB11_5:
	.loc	10 365 51 is_stmt 1             @ lvgl/src/lv_widgets/lv_keyboard.c:365:51
	ldr	r0, [sp, #4]
	.loc	10 365 31 is_stmt 0             @ lvgl/src/lv_widgets/lv_keyboard.c:365:31
	bl	lv_obj_get_ext_attr
	.loc	10 365 25                       @ lvgl/src/lv_widgets/lv_keyboard.c:365:25
	str	r0, [sp]
	.loc	10 366 12 is_stmt 1             @ lvgl/src/lv_widgets/lv_keyboard.c:366:12
	ldr	r0, [sp]
	.loc	10 366 17 is_stmt 0             @ lvgl/src/lv_widgets/lv_keyboard.c:366:17
	ldrb.w	r0, [r0, #37]
	.loc	10 366 12                       @ lvgl/src/lv_widgets/lv_keyboard.c:366:12
	and	r0, r0, #1
	.loc	10 366 5                        @ lvgl/src/lv_widgets/lv_keyboard.c:366:5
	add	sp, #8
	pop	{r7, pc}
.Ltmp214:
.Lfunc_end11:
	.size	lv_keyboard_get_cursor_manage, .Lfunc_end11-lv_keyboard_get_cursor_manage
	.cfi_endproc
	.cantunwind
	.fnend
                                        @ -- End function
	.type	.L.str,%object                  @ @.str
	.section	.rodata.str1.1,"aMS",%progbits,1
.L.str:
	.asciz	"Out of memory"
	.size	.L.str, 14

	.type	ancestor_signal,%object         @ @ancestor_signal
	.section	.bss.ancestor_signal,"aw",%nobits
	.p2align	2
ancestor_signal:
	.long	0
	.size	ancestor_signal, 4

	.type	kb_map,%object                  @ @kb_map
	.section	.data.kb_map,"aw",%progbits
	.p2align	2
kb_map:
	.long	default_kb_map_lc
	.long	default_kb_map_uc
	.long	default_kb_map_spec
	.long	default_kb_map_num
	.size	kb_map, 16

	.type	kb_ctrl,%object                 @ @kb_ctrl
	.section	.data.kb_ctrl,"aw",%progbits
	.p2align	2
kb_ctrl:
	.long	default_kb_ctrl_lc_map
	.long	default_kb_ctrl_uc_map
	.long	default_kb_ctrl_spec_map
	.long	default_kb_ctrl_num_map
	.size	kb_ctrl, 16

	.type	.L.str.1,%object                @ @.str.1
	.section	.rodata.str1.1,"aMS",%progbits,1
.L.str.1:
	.asciz	"NULL pointer"
	.size	.L.str.1, 13

	.type	.L.str.2,%object                @ @.str.2
.L.str.2:
	.asciz	"abc"
	.size	.L.str.2, 4

	.type	.L.str.3,%object                @ @.str.3
.L.str.3:
	.asciz	"ABC"
	.size	.L.str.3, 4

	.type	.L.str.4,%object                @ @.str.4
.L.str.4:
	.asciz	"1#"
	.size	.L.str.4, 3

	.type	.L.str.5,%object                @ @.str.5
.L.str.5:
	.asciz	"\357\200\215"
	.size	.L.str.5, 4

	.type	.L.str.6,%object                @ @.str.6
.L.str.6:
	.asciz	"\357\200\214"
	.size	.L.str.6, 4

	.type	.L.str.7,%object                @ @.str.7
.L.str.7:
	.asciz	"Enter"
	.size	.L.str.7, 6

	.type	.L.str.8,%object                @ @.str.8
.L.str.8:
	.asciz	"\357\242\242"
	.size	.L.str.8, 4

	.type	.L.str.9,%object                @ @.str.9
.L.str.9:
	.asciz	"\357\201\223"
	.size	.L.str.9, 4

	.type	.L.str.10,%object               @ @.str.10
.L.str.10:
	.asciz	"\357\201\224"
	.size	.L.str.10, 4

	.type	.L.str.11,%object               @ @.str.11
.L.str.11:
	.asciz	"\357\225\232"
	.size	.L.str.11, 4

	.type	.L.str.12,%object               @ @.str.12
.L.str.12:
	.asciz	"+/-"
	.size	.L.str.12, 4

	.type	default_kb_map_lc,%object       @ @default_kb_map_lc
	.section	.rodata.default_kb_map_lc,"a",%progbits
	.p2align	2
default_kb_map_lc:
	.long	.L.str.4
	.long	.L.str.13
	.long	.L.str.14
	.long	.L.str.15
	.long	.L.str.16
	.long	.L.str.17
	.long	.L.str.18
	.long	.L.str.19
	.long	.L.str.20
	.long	.L.str.21
	.long	.L.str.22
	.long	.L.str.11
	.long	.L.str.23
	.long	.L.str.3
	.long	.L.str.24
	.long	.L.str.25
	.long	.L.str.26
	.long	.L.str.27
	.long	.L.str.28
	.long	.L.str.29
	.long	.L.str.30
	.long	.L.str.31
	.long	.L.str.32
	.long	.L.str.8
	.long	.L.str.23
	.long	.L.str.33
	.long	.L.str.34
	.long	.L.str.35
	.long	.L.str.36
	.long	.L.str.37
	.long	.L.str.38
	.long	.L.str.39
	.long	.L.str.40
	.long	.L.str.41
	.long	.L.str.42
	.long	.L.str.43
	.long	.L.str.44
	.long	.L.str.23
	.long	.L.str.5
	.long	.L.str.9
	.long	.L.str.45
	.long	.L.str.10
	.long	.L.str.6
	.long	.L.str.46
	.size	default_kb_map_lc, 176

	.type	default_kb_map_uc,%object       @ @default_kb_map_uc
	.section	.rodata.default_kb_map_uc,"a",%progbits
	.p2align	2
default_kb_map_uc:
	.long	.L.str.4
	.long	.L.str.47
	.long	.L.str.48
	.long	.L.str.49
	.long	.L.str.50
	.long	.L.str.51
	.long	.L.str.52
	.long	.L.str.53
	.long	.L.str.54
	.long	.L.str.55
	.long	.L.str.56
	.long	.L.str.11
	.long	.L.str.23
	.long	.L.str.2
	.long	.L.str.57
	.long	.L.str.58
	.long	.L.str.59
	.long	.L.str.60
	.long	.L.str.61
	.long	.L.str.62
	.long	.L.str.63
	.long	.L.str.64
	.long	.L.str.65
	.long	.L.str.8
	.long	.L.str.23
	.long	.L.str.33
	.long	.L.str.34
	.long	.L.str.66
	.long	.L.str.67
	.long	.L.str.68
	.long	.L.str.69
	.long	.L.str.70
	.long	.L.str.71
	.long	.L.str.72
	.long	.L.str.42
	.long	.L.str.43
	.long	.L.str.44
	.long	.L.str.23
	.long	.L.str.5
	.long	.L.str.9
	.long	.L.str.45
	.long	.L.str.10
	.long	.L.str.6
	.long	.L.str.46
	.size	default_kb_map_uc, 176

	.type	default_kb_map_spec,%object     @ @default_kb_map_spec
	.section	.rodata.default_kb_map_spec,"a",%progbits
	.p2align	2
default_kb_map_spec:
	.long	.L.str.73
	.long	.L.str.74
	.long	.L.str.75
	.long	.L.str.76
	.long	.L.str.77
	.long	.L.str.78
	.long	.L.str.79
	.long	.L.str.80
	.long	.L.str.81
	.long	.L.str.82
	.long	.L.str.11
	.long	.L.str.23
	.long	.L.str.2
	.long	.L.str.83
	.long	.L.str.34
	.long	.L.str.84
	.long	.L.str.85
	.long	.L.str.86
	.long	.L.str.87
	.long	.L.str.88
	.long	.L.str.89
	.long	.L.str.90
	.long	.L.str.91
	.long	.L.str.92
	.long	.L.str.23
	.long	.L.str.93
	.long	.L.str.94
	.long	.L.str.95
	.long	.L.str.96
	.long	.L.str.97
	.long	.L.str.98
	.long	.L.str.99
	.long	.L.str.100
	.long	.L.str.101
	.long	.L.str.102
	.long	.L.str.103
	.long	.L.str.104
	.long	.L.str.23
	.long	.L.str.5
	.long	.L.str.9
	.long	.L.str.45
	.long	.L.str.10
	.long	.L.str.6
	.long	.L.str.46
	.size	default_kb_map_spec, 176

	.type	default_kb_map_num,%object      @ @default_kb_map_num
	.section	.rodata.default_kb_map_num,"a",%progbits
	.p2align	2
default_kb_map_num:
	.long	.L.str.73
	.long	.L.str.74
	.long	.L.str.75
	.long	.L.str.5
	.long	.L.str.23
	.long	.L.str.76
	.long	.L.str.77
	.long	.L.str.78
	.long	.L.str.6
	.long	.L.str.23
	.long	.L.str.79
	.long	.L.str.80
	.long	.L.str.81
	.long	.L.str.11
	.long	.L.str.23
	.long	.L.str.12
	.long	.L.str.82
	.long	.L.str.42
	.long	.L.str.9
	.long	.L.str.10
	.long	.L.str.46
	.size	default_kb_map_num, 84

	.type	.L.str.13,%object               @ @.str.13
	.section	.rodata.str1.1,"aMS",%progbits,1
.L.str.13:
	.asciz	"q"
	.size	.L.str.13, 2

	.type	.L.str.14,%object               @ @.str.14
.L.str.14:
	.asciz	"w"
	.size	.L.str.14, 2

	.type	.L.str.15,%object               @ @.str.15
.L.str.15:
	.asciz	"e"
	.size	.L.str.15, 2

	.type	.L.str.16,%object               @ @.str.16
.L.str.16:
	.asciz	"r"
	.size	.L.str.16, 2

	.type	.L.str.17,%object               @ @.str.17
.L.str.17:
	.asciz	"t"
	.size	.L.str.17, 2

	.type	.L.str.18,%object               @ @.str.18
.L.str.18:
	.asciz	"y"
	.size	.L.str.18, 2

	.type	.L.str.19,%object               @ @.str.19
.L.str.19:
	.asciz	"u"
	.size	.L.str.19, 2

	.type	.L.str.20,%object               @ @.str.20
.L.str.20:
	.asciz	"i"
	.size	.L.str.20, 2

	.type	.L.str.21,%object               @ @.str.21
.L.str.21:
	.asciz	"o"
	.size	.L.str.21, 2

	.type	.L.str.22,%object               @ @.str.22
.L.str.22:
	.asciz	"p"
	.size	.L.str.22, 2

	.type	.L.str.23,%object               @ @.str.23
.L.str.23:
	.asciz	"\n"
	.size	.L.str.23, 2

	.type	.L.str.24,%object               @ @.str.24
.L.str.24:
	.asciz	"a"
	.size	.L.str.24, 2

	.type	.L.str.25,%object               @ @.str.25
.L.str.25:
	.asciz	"s"
	.size	.L.str.25, 2

	.type	.L.str.26,%object               @ @.str.26
.L.str.26:
	.asciz	"d"
	.size	.L.str.26, 2

	.type	.L.str.27,%object               @ @.str.27
.L.str.27:
	.asciz	"f"
	.size	.L.str.27, 2

	.type	.L.str.28,%object               @ @.str.28
.L.str.28:
	.asciz	"g"
	.size	.L.str.28, 2

	.type	.L.str.29,%object               @ @.str.29
.L.str.29:
	.asciz	"h"
	.size	.L.str.29, 2

	.type	.L.str.30,%object               @ @.str.30
.L.str.30:
	.asciz	"j"
	.size	.L.str.30, 2

	.type	.L.str.31,%object               @ @.str.31
.L.str.31:
	.asciz	"k"
	.size	.L.str.31, 2

	.type	.L.str.32,%object               @ @.str.32
.L.str.32:
	.asciz	"l"
	.size	.L.str.32, 2

	.type	.L.str.33,%object               @ @.str.33
.L.str.33:
	.asciz	"_"
	.size	.L.str.33, 2

	.type	.L.str.34,%object               @ @.str.34
.L.str.34:
	.asciz	"-"
	.size	.L.str.34, 2

	.type	.L.str.35,%object               @ @.str.35
.L.str.35:
	.asciz	"z"
	.size	.L.str.35, 2

	.type	.L.str.36,%object               @ @.str.36
.L.str.36:
	.asciz	"x"
	.size	.L.str.36, 2

	.type	.L.str.37,%object               @ @.str.37
.L.str.37:
	.asciz	"c"
	.size	.L.str.37, 2

	.type	.L.str.38,%object               @ @.str.38
.L.str.38:
	.asciz	"v"
	.size	.L.str.38, 2

	.type	.L.str.39,%object               @ @.str.39
.L.str.39:
	.asciz	"b"
	.size	.L.str.39, 2

	.type	.L.str.40,%object               @ @.str.40
.L.str.40:
	.asciz	"n"
	.size	.L.str.40, 2

	.type	.L.str.41,%object               @ @.str.41
.L.str.41:
	.asciz	"m"
	.size	.L.str.41, 2

	.type	.L.str.42,%object               @ @.str.42
.L.str.42:
	.asciz	"."
	.size	.L.str.42, 2

	.type	.L.str.43,%object               @ @.str.43
.L.str.43:
	.asciz	","
	.size	.L.str.43, 2

	.type	.L.str.44,%object               @ @.str.44
.L.str.44:
	.asciz	":"
	.size	.L.str.44, 2

	.type	.L.str.45,%object               @ @.str.45
.L.str.45:
	.asciz	" "
	.size	.L.str.45, 2

	.type	.L.str.46,%object               @ @.str.46
.L.str.46:
	.zero	1
	.size	.L.str.46, 1

	.type	.L.str.47,%object               @ @.str.47
.L.str.47:
	.asciz	"Q"
	.size	.L.str.47, 2

	.type	.L.str.48,%object               @ @.str.48
.L.str.48:
	.asciz	"W"
	.size	.L.str.48, 2

	.type	.L.str.49,%object               @ @.str.49
.L.str.49:
	.asciz	"E"
	.size	.L.str.49, 2

	.type	.L.str.50,%object               @ @.str.50
.L.str.50:
	.asciz	"R"
	.size	.L.str.50, 2

	.type	.L.str.51,%object               @ @.str.51
.L.str.51:
	.asciz	"T"
	.size	.L.str.51, 2

	.type	.L.str.52,%object               @ @.str.52
.L.str.52:
	.asciz	"Y"
	.size	.L.str.52, 2

	.type	.L.str.53,%object               @ @.str.53
.L.str.53:
	.asciz	"U"
	.size	.L.str.53, 2

	.type	.L.str.54,%object               @ @.str.54
.L.str.54:
	.asciz	"I"
	.size	.L.str.54, 2

	.type	.L.str.55,%object               @ @.str.55
.L.str.55:
	.asciz	"O"
	.size	.L.str.55, 2

	.type	.L.str.56,%object               @ @.str.56
.L.str.56:
	.asciz	"P"
	.size	.L.str.56, 2

	.type	.L.str.57,%object               @ @.str.57
.L.str.57:
	.asciz	"A"
	.size	.L.str.57, 2

	.type	.L.str.58,%object               @ @.str.58
.L.str.58:
	.asciz	"S"
	.size	.L.str.58, 2

	.type	.L.str.59,%object               @ @.str.59
.L.str.59:
	.asciz	"D"
	.size	.L.str.59, 2

	.type	.L.str.60,%object               @ @.str.60
.L.str.60:
	.asciz	"F"
	.size	.L.str.60, 2

	.type	.L.str.61,%object               @ @.str.61
.L.str.61:
	.asciz	"G"
	.size	.L.str.61, 2

	.type	.L.str.62,%object               @ @.str.62
.L.str.62:
	.asciz	"H"
	.size	.L.str.62, 2

	.type	.L.str.63,%object               @ @.str.63
.L.str.63:
	.asciz	"J"
	.size	.L.str.63, 2

	.type	.L.str.64,%object               @ @.str.64
.L.str.64:
	.asciz	"K"
	.size	.L.str.64, 2

	.type	.L.str.65,%object               @ @.str.65
.L.str.65:
	.asciz	"L"
	.size	.L.str.65, 2

	.type	.L.str.66,%object               @ @.str.66
.L.str.66:
	.asciz	"Z"
	.size	.L.str.66, 2

	.type	.L.str.67,%object               @ @.str.67
.L.str.67:
	.asciz	"X"
	.size	.L.str.67, 2

	.type	.L.str.68,%object               @ @.str.68
.L.str.68:
	.asciz	"C"
	.size	.L.str.68, 2

	.type	.L.str.69,%object               @ @.str.69
.L.str.69:
	.asciz	"V"
	.size	.L.str.69, 2

	.type	.L.str.70,%object               @ @.str.70
.L.str.70:
	.asciz	"B"
	.size	.L.str.70, 2

	.type	.L.str.71,%object               @ @.str.71
.L.str.71:
	.asciz	"N"
	.size	.L.str.71, 2

	.type	.L.str.72,%object               @ @.str.72
.L.str.72:
	.asciz	"M"
	.size	.L.str.72, 2

	.type	.L.str.73,%object               @ @.str.73
.L.str.73:
	.asciz	"1"
	.size	.L.str.73, 2

	.type	.L.str.74,%object               @ @.str.74
.L.str.74:
	.asciz	"2"
	.size	.L.str.74, 2

	.type	.L.str.75,%object               @ @.str.75
.L.str.75:
	.asciz	"3"
	.size	.L.str.75, 2

	.type	.L.str.76,%object               @ @.str.76
.L.str.76:
	.asciz	"4"
	.size	.L.str.76, 2

	.type	.L.str.77,%object               @ @.str.77
.L.str.77:
	.asciz	"5"
	.size	.L.str.77, 2

	.type	.L.str.78,%object               @ @.str.78
.L.str.78:
	.asciz	"6"
	.size	.L.str.78, 2

	.type	.L.str.79,%object               @ @.str.79
.L.str.79:
	.asciz	"7"
	.size	.L.str.79, 2

	.type	.L.str.80,%object               @ @.str.80
.L.str.80:
	.asciz	"8"
	.size	.L.str.80, 2

	.type	.L.str.81,%object               @ @.str.81
.L.str.81:
	.asciz	"9"
	.size	.L.str.81, 2

	.type	.L.str.82,%object               @ @.str.82
.L.str.82:
	.asciz	"0"
	.size	.L.str.82, 2

	.type	.L.str.83,%object               @ @.str.83
.L.str.83:
	.asciz	"+"
	.size	.L.str.83, 2

	.type	.L.str.84,%object               @ @.str.84
.L.str.84:
	.asciz	"/"
	.size	.L.str.84, 2

	.type	.L.str.85,%object               @ @.str.85
.L.str.85:
	.asciz	"*"
	.size	.L.str.85, 2

	.type	.L.str.86,%object               @ @.str.86
.L.str.86:
	.asciz	"="
	.size	.L.str.86, 2

	.type	.L.str.87,%object               @ @.str.87
.L.str.87:
	.asciz	"%"
	.size	.L.str.87, 2

	.type	.L.str.88,%object               @ @.str.88
.L.str.88:
	.asciz	"!"
	.size	.L.str.88, 2

	.type	.L.str.89,%object               @ @.str.89
.L.str.89:
	.asciz	"?"
	.size	.L.str.89, 2

	.type	.L.str.90,%object               @ @.str.90
.L.str.90:
	.asciz	"#"
	.size	.L.str.90, 2

	.type	.L.str.91,%object               @ @.str.91
.L.str.91:
	.asciz	"<"
	.size	.L.str.91, 2

	.type	.L.str.92,%object               @ @.str.92
.L.str.92:
	.asciz	">"
	.size	.L.str.92, 2

	.type	.L.str.93,%object               @ @.str.93
.L.str.93:
	.asciz	"\\"
	.size	.L.str.93, 2

	.type	.L.str.94,%object               @ @.str.94
.L.str.94:
	.asciz	"@"
	.size	.L.str.94, 2

	.type	.L.str.95,%object               @ @.str.95
.L.str.95:
	.asciz	"$"
	.size	.L.str.95, 2

	.type	.L.str.96,%object               @ @.str.96
.L.str.96:
	.asciz	"("
	.size	.L.str.96, 2

	.type	.L.str.97,%object               @ @.str.97
.L.str.97:
	.asciz	")"
	.size	.L.str.97, 2

	.type	.L.str.98,%object               @ @.str.98
.L.str.98:
	.asciz	"{"
	.size	.L.str.98, 2

	.type	.L.str.99,%object               @ @.str.99
.L.str.99:
	.asciz	"}"
	.size	.L.str.99, 2

	.type	.L.str.100,%object              @ @.str.100
.L.str.100:
	.asciz	"["
	.size	.L.str.100, 2

	.type	.L.str.101,%object              @ @.str.101
.L.str.101:
	.asciz	"]"
	.size	.L.str.101, 2

	.type	.L.str.102,%object              @ @.str.102
.L.str.102:
	.asciz	";"
	.size	.L.str.102, 2

	.type	.L.str.103,%object              @ @.str.103
.L.str.103:
	.asciz	"\""
	.size	.L.str.103, 2

	.type	.L.str.104,%object              @ @.str.104
.L.str.104:
	.asciz	"'"
	.size	.L.str.104, 2

	.type	default_kb_ctrl_lc_map,%object  @ @default_kb_ctrl_lc_map
	.section	.rodata.default_kb_ctrl_lc_map,"a",%progbits
	.p2align	1
default_kb_ctrl_lc_map:
	.short	277                             @ 0x115
	.short	4                               @ 0x4
	.short	4                               @ 0x4
	.short	4                               @ 0x4
	.short	4                               @ 0x4
	.short	4                               @ 0x4
	.short	4                               @ 0x4
	.short	4                               @ 0x4
	.short	4                               @ 0x4
	.short	4                               @ 0x4
	.short	4                               @ 0x4
	.short	7                               @ 0x7
	.short	278                             @ 0x116
	.short	3                               @ 0x3
	.short	3                               @ 0x3
	.short	3                               @ 0x3
	.short	3                               @ 0x3
	.short	3                               @ 0x3
	.short	3                               @ 0x3
	.short	3                               @ 0x3
	.short	3                               @ 0x3
	.short	3                               @ 0x3
	.short	7                               @ 0x7
	.short	1                               @ 0x1
	.short	1                               @ 0x1
	.short	1                               @ 0x1
	.short	1                               @ 0x1
	.short	1                               @ 0x1
	.short	1                               @ 0x1
	.short	1                               @ 0x1
	.short	1                               @ 0x1
	.short	1                               @ 0x1
	.short	1                               @ 0x1
	.short	1                               @ 0x1
	.short	1                               @ 0x1
	.short	274                             @ 0x112
	.short	2                               @ 0x2
	.short	6                               @ 0x6
	.short	2                               @ 0x2
	.short	274                             @ 0x112
	.size	default_kb_ctrl_lc_map, 80

	.type	default_kb_ctrl_uc_map,%object  @ @default_kb_ctrl_uc_map
	.section	.rodata.default_kb_ctrl_uc_map,"a",%progbits
	.p2align	1
default_kb_ctrl_uc_map:
	.short	277                             @ 0x115
	.short	4                               @ 0x4
	.short	4                               @ 0x4
	.short	4                               @ 0x4
	.short	4                               @ 0x4
	.short	4                               @ 0x4
	.short	4                               @ 0x4
	.short	4                               @ 0x4
	.short	4                               @ 0x4
	.short	4                               @ 0x4
	.short	4                               @ 0x4
	.short	7                               @ 0x7
	.short	278                             @ 0x116
	.short	3                               @ 0x3
	.short	3                               @ 0x3
	.short	3                               @ 0x3
	.short	3                               @ 0x3
	.short	3                               @ 0x3
	.short	3                               @ 0x3
	.short	3                               @ 0x3
	.short	3                               @ 0x3
	.short	3                               @ 0x3
	.short	7                               @ 0x7
	.short	1                               @ 0x1
	.short	1                               @ 0x1
	.short	1                               @ 0x1
	.short	1                               @ 0x1
	.short	1                               @ 0x1
	.short	1                               @ 0x1
	.short	1                               @ 0x1
	.short	1                               @ 0x1
	.short	1                               @ 0x1
	.short	1                               @ 0x1
	.short	1                               @ 0x1
	.short	1                               @ 0x1
	.short	274                             @ 0x112
	.short	2                               @ 0x2
	.short	6                               @ 0x6
	.short	2                               @ 0x2
	.short	274                             @ 0x112
	.size	default_kb_ctrl_uc_map, 80

	.type	default_kb_ctrl_spec_map,%object @ @default_kb_ctrl_spec_map
	.section	.rodata.default_kb_ctrl_spec_map,"a",%progbits
	.p2align	1
default_kb_ctrl_spec_map:
	.short	1                               @ 0x1
	.short	1                               @ 0x1
	.short	1                               @ 0x1
	.short	1                               @ 0x1
	.short	1                               @ 0x1
	.short	1                               @ 0x1
	.short	1                               @ 0x1
	.short	1                               @ 0x1
	.short	1                               @ 0x1
	.short	1                               @ 0x1
	.short	2                               @ 0x2
	.short	274                             @ 0x112
	.short	1                               @ 0x1
	.short	1                               @ 0x1
	.short	1                               @ 0x1
	.short	1                               @ 0x1
	.short	1                               @ 0x1
	.short	1                               @ 0x1
	.short	1                               @ 0x1
	.short	1                               @ 0x1
	.short	1                               @ 0x1
	.short	1                               @ 0x1
	.short	1                               @ 0x1
	.short	1                               @ 0x1
	.short	1                               @ 0x1
	.short	1                               @ 0x1
	.short	1                               @ 0x1
	.short	1                               @ 0x1
	.short	1                               @ 0x1
	.short	1                               @ 0x1
	.short	1                               @ 0x1
	.short	1                               @ 0x1
	.short	1                               @ 0x1
	.short	1                               @ 0x1
	.short	1                               @ 0x1
	.short	274                             @ 0x112
	.short	2                               @ 0x2
	.short	6                               @ 0x6
	.short	2                               @ 0x2
	.short	274                             @ 0x112
	.size	default_kb_ctrl_spec_map, 80

	.type	default_kb_ctrl_num_map,%object @ @default_kb_ctrl_num_map
	.section	.rodata.default_kb_ctrl_num_map,"a",%progbits
	.p2align	1
default_kb_ctrl_num_map:
	.short	1                               @ 0x1
	.short	1                               @ 0x1
	.short	1                               @ 0x1
	.short	274                             @ 0x112
	.short	1                               @ 0x1
	.short	1                               @ 0x1
	.short	1                               @ 0x1
	.short	274                             @ 0x112
	.short	1                               @ 0x1
	.short	1                               @ 0x1
	.short	1                               @ 0x1
	.short	2                               @ 0x2
	.short	1                               @ 0x1
	.short	1                               @ 0x1
	.short	1                               @ 0x1
	.short	1                               @ 0x1
	.short	1                               @ 0x1
	.size	default_kb_ctrl_num_map, 34

	.type	.L.str.105,%object              @ @.str.105
	.section	.rodata.str1.1,"aMS",%progbits,1
.L.str.105:
	.asciz	"lv_keyboard"
	.size	.L.str.105, 12

	.section	".note.GNU-stack","",%progbits
	.eabi_attribute	30, 6	@ Tag_ABI_optimization_goals
	.ARM_attribute	16, 1	@ Tag_AV_eba