	.text
	.syntax unified
	.eabi_attribute	67, "2.09"	@ Tag_conformance
	.cpu	cortex-m7
	.eabi_attribute	6, 13	@ Tag_CPU_arch
	.eabi_attribute	7, 77	@ Tag_CPU_arch_profile
	.eabi_attribute	8, 0	@ Tag_ARM_ISA_use
	.eabi_attribute	9, 2	@ Tag_THUMB_ISA_use
	.fpu	fpv5-d16
	.eabi_attribute	36, 1	@ Tag_FP_HP_extension
	.eabi_attribute	34, 1	@ Tag_CPU_unaligned_access
	.eabi_attribute	17, 1	@ Tag_ABI_PCS_GOT_use
	.eabi_attribute	20, 2	@ Tag_ABI_FP_denormal
	.eabi_attribute	21, 0	@ Tag_ABI_FP_exceptions
	.eabi_attribute	23, 1	@ Tag_ABI_FP_number_model
	.eabi_attribute	24, 1	@ Tag_ABI_align_needed
	.eabi_attribute	25, 1	@ Tag_ABI_align_preserved
	.eabi_attribute	28, 1	@ Tag_ABI_VFP_args
	.eabi_attribute	38, 1	@ Tag_ABI_FP_16bit_format
	.eabi_attribute	18, 2	@ Tag_ABI_PCS_wchar_t
	.eabi_attribute	26, 1	@ Tag_ABI_enum_size
	.eabi_attribute	14, 0	@ Tag_ABI_PCS_R9_use
	.file	"lv_ll.c"
	.file	1 "D:\\Keil_v5\\ARM\\ARMCLANG\\Bin\\..\\include" "stdint.h"
	.file	2 "E:\\Smart-access-control\\Hardware\\CODE" "lvgl/src/lv_misc/lv_ll.h"
	.section	.text._lv_ll_init,"ax",%progbits
	.hidden	_lv_ll_init                     @ -- Begin function _lv_ll_init
	.globl	_lv_ll_init
	.p2align	3
	.type	_lv_ll_init,%function
	.code	16                              @ @_lv_ll_init
	.thumb_func
_lv_ll_init:
.Lfunc_begin0:
	.file	3 "E:\\Smart-access-control\\Hardware\\CODE" "lvgl/src/lv_misc/lv_ll.c"
	.loc	3 51 0                          @ lvgl/src/lv_misc/lv_ll.c:51:0
	.fnstart
	.cfi_sections .debug_frame
	.cfi_startproc
@ %bb.0:
	.pad	#8
	sub	sp, #8
	.cfi_def_cfa_offset 8
	str	r0, [sp, #4]
	str	r1, [sp]
.Ltmp0:
	.loc	3 52 5 prologue_end             @ lvgl/src/lv_misc/lv_ll.c:52:5
	ldr	r1, [sp, #4]
	movs	r0, #0
	.loc	3 52 16 is_stmt 0               @ lvgl/src/lv_misc/lv_ll.c:52:16
	str	r0, [r1, #4]
	.loc	3 53 5 is_stmt 1                @ lvgl/src/lv_misc/lv_ll.c:53:5
	ldr	r1, [sp, #4]
	.loc	3 53 16 is_stmt 0               @ lvgl/src/lv_misc/lv_ll.c:53:16
	str	r0, [r1, #8]
	.loc	3 59 18 is_stmt 1               @ lvgl/src/lv_misc/lv_ll.c:59:18
	ldr	r0, [sp]
	.loc	3 59 28 is_stmt 0               @ lvgl/src/lv_misc/lv_ll.c:59:28
	adds	r0, #3
	.loc	3 59 33                         @ lvgl/src/lv_misc/lv_ll.c:59:33
	bic	r0, r0, #3
	.loc	3 59 15                         @ lvgl/src/lv_misc/lv_ll.c:59:15
	str	r0, [sp]
	.loc	3 62 20 is_stmt 1               @ lvgl/src/lv_misc/lv_ll.c:62:20
	ldr	r0, [sp]
	.loc	3 62 5 is_stmt 0                @ lvgl/src/lv_misc/lv_ll.c:62:5
	ldr	r1, [sp, #4]
	.loc	3 62 18                         @ lvgl/src/lv_misc/lv_ll.c:62:18
	str	r0, [r1]
	.loc	3 63 1 is_stmt 1                @ lvgl/src/lv_misc/lv_ll.c:63:1
	add	sp, #8
	bx	lr
.Ltmp1:
.Lfunc_end0:
	.size	_lv_ll_init, .Lfunc_end0-_lv_ll_init
	.cfi_endproc
	.cantunwind
	.fnend
                                        @ -- End function
	.section	.text._lv_ll_ins_head,"ax",%progbits
	.hidden	_lv_ll_ins_head                 @ -- Begin function _lv_ll_ins_head
	.globl	_lv_ll_ins_head
	.p2align	3
	.type	_lv_ll_ins_head,%function
	.code	16                              @ @_lv_ll_ins_head
	.thumb_func
_lv_ll_ins_head:
.Lfunc_begin1:
	.loc	3 71 0                          @ lvgl/src/lv_misc/lv_ll.c:71:0
	.fnstart
	.cfi_startproc
@ %bb.0:
	.save	{r7, lr}
	push	{r7, lr}
	.cfi_def_cfa_offset 8
	.cfi_offset lr, -4
	.cfi_offset r7, -8
	.pad	#8
	sub	sp, #8
	.cfi_def_cfa_offset 16
	str	r0, [sp, #4]
.Ltmp2:
	.loc	3 74 26 prologue_end            @ lvgl/src/lv_misc/lv_ll.c:74:26
	ldr	r0, [sp, #4]
	.loc	3 74 32 is_stmt 0               @ lvgl/src/lv_misc/lv_ll.c:74:32
	ldr	r0, [r0]
	.loc	3 74 39                         @ lvgl/src/lv_misc/lv_ll.c:74:39
	adds	r0, #8
	.loc	3 74 13                         @ lvgl/src/lv_misc/lv_ll.c:74:13
	bl	lv_mem_alloc
	.loc	3 74 11                         @ lvgl/src/lv_misc/lv_ll.c:74:11
	str	r0, [sp]
.Ltmp3:
	.loc	3 76 8 is_stmt 1                @ lvgl/src/lv_misc/lv_ll.c:76:8
	ldr	r0, [sp]
.Ltmp4:
	.loc	3 76 8 is_stmt 0                @ lvgl/src/lv_misc/lv_ll.c:76:8
	cbz	r0, .LBB1_6
	b	.LBB1_1
.LBB1_1:
.Ltmp5:
	.loc	3 77 23 is_stmt 1               @ lvgl/src/lv_misc/lv_ll.c:77:23
	ldr	r0, [sp, #4]
	.loc	3 77 29 is_stmt 0               @ lvgl/src/lv_misc/lv_ll.c:77:29
	ldr	r1, [sp]
	movs	r2, #0
	.loc	3 77 9                          @ lvgl/src/lv_misc/lv_ll.c:77:9
	bl	node_set_prev
	.loc	3 78 23 is_stmt 1               @ lvgl/src/lv_misc/lv_ll.c:78:23
	ldr	r0, [sp, #4]
	.loc	3 78 29 is_stmt 0               @ lvgl/src/lv_misc/lv_ll.c:78:29
	ldr	r1, [sp]
	.loc	3 78 42                         @ lvgl/src/lv_misc/lv_ll.c:78:42
	ldr	r2, [r0, #4]
	.loc	3 78 9                          @ lvgl/src/lv_misc/lv_ll.c:78:9
	bl	node_set_next
.Ltmp6:
	.loc	3 80 12 is_stmt 1               @ lvgl/src/lv_misc/lv_ll.c:80:12
	ldr	r0, [sp, #4]
	.loc	3 80 18 is_stmt 0               @ lvgl/src/lv_misc/lv_ll.c:80:18
	ldr	r0, [r0, #4]
.Ltmp7:
	.loc	3 80 12                         @ lvgl/src/lv_misc/lv_ll.c:80:12
	cbz	r0, .LBB1_3
	b	.LBB1_2
.LBB1_2:
.Ltmp8:
	.loc	3 81 27 is_stmt 1               @ lvgl/src/lv_misc/lv_ll.c:81:27
	ldr	r0, [sp, #4]
	.loc	3 81 39 is_stmt 0               @ lvgl/src/lv_misc/lv_ll.c:81:39
	ldr	r1, [r0, #4]
	.loc	3 81 45                         @ lvgl/src/lv_misc/lv_ll.c:81:45
	ldr	r2, [sp]
	.loc	3 81 13                         @ lvgl/src/lv_misc/lv_ll.c:81:13
	bl	node_set_prev
	.loc	3 82 9 is_stmt 1                @ lvgl/src/lv_misc/lv_ll.c:82:9
	b	.LBB1_3
.Ltmp9:
.LBB1_3:
	.loc	3 84 22                         @ lvgl/src/lv_misc/lv_ll.c:84:22
	ldr	r0, [sp]
	.loc	3 84 9 is_stmt 0                @ lvgl/src/lv_misc/lv_ll.c:84:9
	ldr	r1, [sp, #4]
	.loc	3 84 20                         @ lvgl/src/lv_misc/lv_ll.c:84:20
	str	r0, [r1, #4]
.Ltmp10:
	.loc	3 85 12 is_stmt 1               @ lvgl/src/lv_misc/lv_ll.c:85:12
	ldr	r0, [sp, #4]
	.loc	3 85 18 is_stmt 0               @ lvgl/src/lv_misc/lv_ll.c:85:18
	ldr	r0, [r0, #8]
.Ltmp11:
	.loc	3 85 12                         @ lvgl/src/lv_misc/lv_ll.c:85:12
	cbnz	r0, .LBB1_5
	b	.LBB1_4
.LBB1_4:
.Ltmp12:
	.loc	3 86 26 is_stmt 1               @ lvgl/src/lv_misc/lv_ll.c:86:26
	ldr	r0, [sp]
	.loc	3 86 13 is_stmt 0               @ lvgl/src/lv_misc/lv_ll.c:86:13
	ldr	r1, [sp, #4]
	.loc	3 86 24                         @ lvgl/src/lv_misc/lv_ll.c:86:24
	str	r0, [r1, #8]
	.loc	3 87 9 is_stmt 1                @ lvgl/src/lv_misc/lv_ll.c:87:9
	b	.LBB1_5
.Ltmp13:
.LBB1_5:
	.loc	3 88 5                          @ lvgl/src/lv_misc/lv_ll.c:88:5
	b	.LBB1_6
.Ltmp14:
.LBB1_6:
	.loc	3 90 12                         @ lvgl/src/lv_misc/lv_ll.c:90:12
	ldr	r0, [sp]
	.loc	3 90 5 is_stmt 0                @ lvgl/src/lv_misc/lv_ll.c:90:5
	add	sp, #8
	pop	{r7, pc}
.Ltmp15:
.Lfunc_end1:
	.size	_lv_ll_ins_head, .Lfunc_end1-_lv_ll_ins_head
	.cfi_endproc
	.cantunwind
	.fnend
                                        @ -- End function
	.section	.text.node_set_prev,"ax",%progbits
	.p2align	3                               @ -- Begin function node_set_prev
	.type	node_set_prev,%function
	.code	16                              @ @node_set_prev
	.thumb_func
node_set_prev:
.Lfunc_begin2:
	.loc	3 394 0 is_stmt 1               @ lvgl/src/lv_misc/lv_ll.c:394:0
	.fnstart
	.cfi_startproc
@ %bb.0:
	.pad	#24
	sub	sp, #24
	.cfi_def_cfa_offset 24
	str	r0, [sp, #20]
	str	r1, [sp, #16]
	str	r2, [sp, #12]
.Ltmp16:
	.loc	3 395 8 prologue_end            @ lvgl/src/lv_misc/lv_ll.c:395:8
	ldr	r0, [sp, #16]
.Ltmp17:
	.loc	3 395 8 is_stmt 0               @ lvgl/src/lv_misc/lv_ll.c:395:8
	cbnz	r0, .LBB2_2
	b	.LBB2_1
.LBB2_1:
.Ltmp18:
	.loc	3 395 21                        @ lvgl/src/lv_misc/lv_ll.c:395:21
	b	.LBB2_3
.Ltmp19:
.LBB2_2:
	.loc	3 397 34 is_stmt 1              @ lvgl/src/lv_misc/lv_ll.c:397:34
	ldr	r0, [sp, #16]
	.loc	3 397 15 is_stmt 0              @ lvgl/src/lv_misc/lv_ll.c:397:15
	str	r0, [sp, #8]
	.loc	3 399 13 is_stmt 1              @ lvgl/src/lv_misc/lv_ll.c:399:13
	ldr	r0, [sp, #20]
	ldr	r1, [r0]
	.loc	3 399 10 is_stmt 0              @ lvgl/src/lv_misc/lv_ll.c:399:10
	ldr	r0, [sp, #8]
	add	r0, r1
	str	r0, [sp, #8]
	.loc	3 401 52 is_stmt 1              @ lvgl/src/lv_misc/lv_ll.c:401:52
	ldr	r0, [sp, #8]
	.loc	3 401 21 is_stmt 0              @ lvgl/src/lv_misc/lv_ll.c:401:21
	str	r0, [sp, #4]
	add	r0, sp, #12
	.loc	3 402 21 is_stmt 1              @ lvgl/src/lv_misc/lv_ll.c:402:21
	str	r0, [sp]
	.loc	3 404 20                        @ lvgl/src/lv_misc/lv_ll.c:404:20
	ldr	r0, [sp]
	.loc	3 404 19 is_stmt 0              @ lvgl/src/lv_misc/lv_ll.c:404:19
	ldr	r0, [r0]
	.loc	3 404 6                         @ lvgl/src/lv_misc/lv_ll.c:404:6
	ldr	r1, [sp, #4]
	.loc	3 404 17                        @ lvgl/src/lv_misc/lv_ll.c:404:17
	str	r0, [r1]
	.loc	3 405 1 is_stmt 1               @ lvgl/src/lv_misc/lv_ll.c:405:1
	b	.LBB2_3
.LBB2_3:
	add	sp, #24
	bx	lr
.Ltmp20:
.Lfunc_end2:
	.size	node_set_prev, .Lfunc_end2-node_set_prev
	.cfi_endproc
	.cantunwind
	.fnend
                                        @ -- End function
	.section	.text.node_set_next,"ax",%progbits
	.p2align	3                               @ -- Begin function node_set_next
	.type	node_set_next,%function
	.code	16                              @ @node_set_next
	.thumb_func
node_set_next:
.Lfunc_begin3:
	.loc	3 414 0                         @ lvgl/src/lv_misc/lv_ll.c:414:0
	.fnstart
	.cfi_startproc
@ %bb.0:
	.pad	#24
	sub	sp, #24
	.cfi_def_cfa_offset 24
	str	r0, [sp, #20]
	str	r1, [sp, #16]
	str	r2, [sp, #12]
.Ltmp21:
	.loc	3 415 8 prologue_end            @ lvgl/src/lv_misc/lv_ll.c:415:8
	ldr	r0, [sp, #16]
.Ltmp22:
	.loc	3 415 8 is_stmt 0               @ lvgl/src/lv_misc/lv_ll.c:415:8
	cbnz	r0, .LBB3_2
	b	.LBB3_1
.LBB3_1:
.Ltmp23:
	.loc	3 415 21                        @ lvgl/src/lv_misc/lv_ll.c:415:21
	b	.LBB3_3
.Ltmp24:
.LBB3_2:
	.loc	3 416 34 is_stmt 1              @ lvgl/src/lv_misc/lv_ll.c:416:34
	ldr	r0, [sp, #16]
	.loc	3 416 15 is_stmt 0              @ lvgl/src/lv_misc/lv_ll.c:416:15
	str	r0, [sp, #8]
	.loc	3 418 13 is_stmt 1              @ lvgl/src/lv_misc/lv_ll.c:418:13
	ldr	r0, [sp, #20]
	ldr	r0, [r0]
	.loc	3 418 10 is_stmt 0              @ lvgl/src/lv_misc/lv_ll.c:418:10
	ldr	r1, [sp, #8]
	.loc	3 418 13                        @ lvgl/src/lv_misc/lv_ll.c:418:13
	add	r0, r1
	.loc	3 418 10                        @ lvgl/src/lv_misc/lv_ll.c:418:10
	adds	r0, #4
	str	r0, [sp, #8]
	.loc	3 419 52 is_stmt 1              @ lvgl/src/lv_misc/lv_ll.c:419:52
	ldr	r0, [sp, #8]
	.loc	3 419 21 is_stmt 0              @ lvgl/src/lv_misc/lv_ll.c:419:21
	str	r0, [sp, #4]
	add	r0, sp, #12
	.loc	3 420 21 is_stmt 1              @ lvgl/src/lv_misc/lv_ll.c:420:21
	str	r0, [sp]
	.loc	3 422 20                        @ lvgl/src/lv_misc/lv_ll.c:422:20
	ldr	r0, [sp]
	.loc	3 422 19 is_stmt 0              @ lvgl/src/lv_misc/lv_ll.c:422:19
	ldr	r0, [r0]
	.loc	3 422 6                         @ lvgl/src/lv_misc/lv_ll.c:422:6
	ldr	r1, [sp, #4]
	.loc	3 422 17                        @ lvgl/src/lv_misc/lv_ll.c:422:17
	str	r0, [r1]
	.loc	3 423 1 is_stmt 1               @ lvgl/src/lv_misc/lv_ll.c:423:1
	b	.LBB3_3
.LBB3_3:
	add	sp, #24
	bx	lr
.Ltmp25:
.Lfunc_end3:
	.size	node_set_next, .Lfunc_end3-node_set_next
	.cfi_endproc
	.cantunwind
	.fnend
                                        @ -- End function
	.section	.text._lv_ll_ins_prev,"ax",%progbits
	.hidden	_lv_ll_ins_prev                 @ -- Begin function _lv_ll_ins_prev
	.globl	_lv_ll_ins_prev
	.p2align	3
	.type	_lv_ll_ins_prev,%function
	.code	16                              @ @_lv_ll_ins_prev
	.thumb_func
_lv_ll_ins_prev:
.Lfunc_begin4:
	.loc	3 100 0                         @ lvgl/src/lv_misc/lv_ll.c:100:0
	.fnstart
	.cfi_startproc
@ %bb.0:
	.save	{r7, lr}
	push	{r7, lr}
	.cfi_def_cfa_offset 8
	.cfi_offset lr, -4
	.cfi_offset r7, -8
	.pad	#24
	sub	sp, #24
	.cfi_def_cfa_offset 32
	str	r0, [sp, #16]
	str	r1, [sp, #12]
.Ltmp26:
	.loc	3 103 16 prologue_end           @ lvgl/src/lv_misc/lv_ll.c:103:16
	ldr	r0, [sp, #16]
	.loc	3 103 21 is_stmt 0              @ lvgl/src/lv_misc/lv_ll.c:103:21
	cbz	r0, .LBB4_2
	b	.LBB4_1
.LBB4_1:
	.loc	3 103 32                        @ lvgl/src/lv_misc/lv_ll.c:103:32
	ldr	r0, [sp, #12]
.Ltmp27:
	.loc	3 103 8                         @ lvgl/src/lv_misc/lv_ll.c:103:8
	cbnz	r0, .LBB4_3
	b	.LBB4_2
.LBB4_2:
	.loc	3 0 8                           @ lvgl/src/lv_misc/lv_ll.c:0:8
	movs	r0, #0
.Ltmp28:
	.loc	3 103 39                        @ lvgl/src/lv_misc/lv_ll.c:103:39
	str	r0, [sp, #20]
	b	.LBB4_11
.Ltmp29:
.LBB4_3:
	.loc	3 105 24 is_stmt 1              @ lvgl/src/lv_misc/lv_ll.c:105:24
	ldr	r0, [sp, #16]
	.loc	3 105 8 is_stmt 0               @ lvgl/src/lv_misc/lv_ll.c:105:8
	bl	_lv_ll_get_head
	.loc	3 105 33                        @ lvgl/src/lv_misc/lv_ll.c:105:33
	ldr	r1, [sp, #12]
.Ltmp30:
	.loc	3 105 8                         @ lvgl/src/lv_misc/lv_ll.c:105:8
	cmp	r0, r1
	bne	.LBB4_7
	b	.LBB4_4
.LBB4_4:
.Ltmp31:
	.loc	3 106 33 is_stmt 1              @ lvgl/src/lv_misc/lv_ll.c:106:33
	ldr	r0, [sp, #16]
	.loc	3 106 17 is_stmt 0              @ lvgl/src/lv_misc/lv_ll.c:106:17
	bl	_lv_ll_ins_head
	.loc	3 106 15                        @ lvgl/src/lv_misc/lv_ll.c:106:15
	str	r0, [sp, #8]
.Ltmp32:
	.loc	3 107 12 is_stmt 1              @ lvgl/src/lv_misc/lv_ll.c:107:12
	ldr	r0, [sp, #8]
.Ltmp33:
	.loc	3 107 12 is_stmt 0              @ lvgl/src/lv_misc/lv_ll.c:107:12
	cbnz	r0, .LBB4_6
	b	.LBB4_5
.LBB4_5:
	.loc	3 0 12                          @ lvgl/src/lv_misc/lv_ll.c:0:12
	movs	r0, #0
.Ltmp34:
	.loc	3 107 27                        @ lvgl/src/lv_misc/lv_ll.c:107:27
	str	r0, [sp, #20]
	b	.LBB4_11
.Ltmp35:
.LBB4_6:
	.loc	3 108 5 is_stmt 1               @ lvgl/src/lv_misc/lv_ll.c:108:5
	b	.LBB4_10
.Ltmp36:
.LBB4_7:
	.loc	3 110 30                        @ lvgl/src/lv_misc/lv_ll.c:110:30
	ldr	r0, [sp, #16]
	.loc	3 110 36 is_stmt 0              @ lvgl/src/lv_misc/lv_ll.c:110:36
	ldr	r0, [r0]
	.loc	3 110 43                        @ lvgl/src/lv_misc/lv_ll.c:110:43
	adds	r0, #8
	.loc	3 110 17                        @ lvgl/src/lv_misc/lv_ll.c:110:17
	bl	lv_mem_alloc
	.loc	3 110 15                        @ lvgl/src/lv_misc/lv_ll.c:110:15
	str	r0, [sp, #8]
.Ltmp37:
	.loc	3 111 12 is_stmt 1              @ lvgl/src/lv_misc/lv_ll.c:111:12
	ldr	r0, [sp, #8]
.Ltmp38:
	.loc	3 111 12 is_stmt 0              @ lvgl/src/lv_misc/lv_ll.c:111:12
	cbnz	r0, .LBB4_9
	b	.LBB4_8
.LBB4_8:
	.loc	3 0 12                          @ lvgl/src/lv_misc/lv_ll.c:0:12
	movs	r0, #0
.Ltmp39:
	.loc	3 111 27                        @ lvgl/src/lv_misc/lv_ll.c:111:27
	str	r0, [sp, #20]
	b	.LBB4_11
.Ltmp40:
.LBB4_9:
	.loc	3 114 34 is_stmt 1              @ lvgl/src/lv_misc/lv_ll.c:114:34
	ldr	r0, [sp, #16]
	.loc	3 114 40 is_stmt 0              @ lvgl/src/lv_misc/lv_ll.c:114:40
	ldr	r1, [sp, #12]
	.loc	3 114 18                        @ lvgl/src/lv_misc/lv_ll.c:114:18
	bl	_lv_ll_get_prev
	.loc	3 114 16                        @ lvgl/src/lv_misc/lv_ll.c:114:16
	str	r0, [sp, #4]
	.loc	3 115 23 is_stmt 1              @ lvgl/src/lv_misc/lv_ll.c:115:23
	ldr	r0, [sp, #16]
	.loc	3 115 29 is_stmt 0              @ lvgl/src/lv_misc/lv_ll.c:115:29
	ldr	r1, [sp, #4]
	.loc	3 115 37                        @ lvgl/src/lv_misc/lv_ll.c:115:37
	ldr	r2, [sp, #8]
	.loc	3 115 9                         @ lvgl/src/lv_misc/lv_ll.c:115:9
	bl	node_set_next
	.loc	3 116 23 is_stmt 1              @ lvgl/src/lv_misc/lv_ll.c:116:23
	ldr	r0, [sp, #16]
	.loc	3 116 29 is_stmt 0              @ lvgl/src/lv_misc/lv_ll.c:116:29
	ldr	r1, [sp, #8]
	.loc	3 116 36                        @ lvgl/src/lv_misc/lv_ll.c:116:36
	ldr	r2, [sp, #4]
	.loc	3 116 9                         @ lvgl/src/lv_misc/lv_ll.c:116:9
	bl	node_set_prev
	.loc	3 117 23 is_stmt 1              @ lvgl/src/lv_misc/lv_ll.c:117:23
	ldr	r0, [sp, #16]
	.loc	3 117 29 is_stmt 0              @ lvgl/src/lv_misc/lv_ll.c:117:29
	ldr	r1, [sp, #12]
	.loc	3 117 36                        @ lvgl/src/lv_misc/lv_ll.c:117:36
	ldr	r2, [sp, #8]
	.loc	3 117 9                         @ lvgl/src/lv_misc/lv_ll.c:117:9
	bl	node_set_prev
	.loc	3 118 23 is_stmt 1              @ lvgl/src/lv_misc/lv_ll.c:118:23
	ldr	r0, [sp, #16]
	.loc	3 118 29 is_stmt 0              @ lvgl/src/lv_misc/lv_ll.c:118:29
	ldr	r1, [sp, #8]
	.loc	3 118 36                        @ lvgl/src/lv_misc/lv_ll.c:118:36
	ldr	r2, [sp, #12]
	.loc	3 118 9                         @ lvgl/src/lv_misc/lv_ll.c:118:9
	bl	node_set_next
	b	.LBB4_10
.Ltmp41:
.LBB4_10:
	.loc	3 121 12 is_stmt 1              @ lvgl/src/lv_misc/lv_ll.c:121:12
	ldr	r0, [sp, #8]
	.loc	3 121 5 is_stmt 0               @ lvgl/src/lv_misc/lv_ll.c:121:5
	str	r0, [sp, #20]
	b	.LBB4_11
.LBB4_11:
	.loc	3 122 1 is_stmt 1               @ lvgl/src/lv_misc/lv_ll.c:122:1
	ldr	r0, [sp, #20]
	add	sp, #24
	pop	{r7, pc}
.Ltmp42:
.Lfunc_end4:
	.size	_lv_ll_ins_prev, .Lfunc_end4-_lv_ll_ins_prev
	.cfi_endproc
	.cantunwind
	.fnend
                                        @ -- End function
	.section	.text._lv_ll_get_head,"ax",%progbits
	.hidden	_lv_ll_get_head                 @ -- Begin function _lv_ll_get_head
	.globl	_lv_ll_get_head
	.p2align	3
	.type	_lv_ll_get_head,%function
	.code	16                              @ @_lv_ll_get_head
	.thumb_func
_lv_ll_get_head:
.Lfunc_begin5:
	.loc	3 258 0                         @ lvgl/src/lv_misc/lv_ll.c:258:0
	.fnstart
	.cfi_startproc
@ %bb.0:
	.pad	#8
	sub	sp, #8
	.cfi_def_cfa_offset 8
	str	r0, [sp, #4]
	movs	r0, #0
.Ltmp43:
	.loc	3 259 12 prologue_end           @ lvgl/src/lv_misc/lv_ll.c:259:12
	str	r0, [sp]
.Ltmp44:
	.loc	3 261 8                         @ lvgl/src/lv_misc/lv_ll.c:261:8
	ldr	r0, [sp, #4]
.Ltmp45:
	.loc	3 261 8 is_stmt 0               @ lvgl/src/lv_misc/lv_ll.c:261:8
	cbz	r0, .LBB5_2
	b	.LBB5_1
.LBB5_1:
.Ltmp46:
	.loc	3 262 16 is_stmt 1              @ lvgl/src/lv_misc/lv_ll.c:262:16
	ldr	r0, [sp, #4]
	.loc	3 262 22 is_stmt 0              @ lvgl/src/lv_misc/lv_ll.c:262:22
	ldr	r0, [r0, #4]
	.loc	3 262 14                        @ lvgl/src/lv_misc/lv_ll.c:262:14
	str	r0, [sp]
	.loc	3 263 5 is_stmt 1               @ lvgl/src/lv_misc/lv_ll.c:263:5
	b	.LBB5_2
.Ltmp47:
.LBB5_2:
	.loc	3 265 12                        @ lvgl/src/lv_misc/lv_ll.c:265:12
	ldr	r0, [sp]
	.loc	3 265 5 is_stmt 0               @ lvgl/src/lv_misc/lv_ll.c:265:5
	add	sp, #8
	bx	lr
.Ltmp48:
.Lfunc_end5:
	.size	_lv_ll_get_head, .Lfunc_end5-_lv_ll_get_head
	.cfi_endproc
	.cantunwind
	.fnend
                                        @ -- End function
	.section	.text._lv_ll_get_prev,"ax",%progbits
	.hidden	_lv_ll_get_prev                 @ -- Begin function _lv_ll_get_prev
	.globl	_lv_ll_get_prev
	.p2align	3
	.type	_lv_ll_get_prev,%function
	.code	16                              @ @_lv_ll_get_prev
	.thumb_func
_lv_ll_get_prev:
.Lfunc_begin6:
	.loc	3 308 0 is_stmt 1               @ lvgl/src/lv_misc/lv_ll.c:308:0
	.fnstart
	.cfi_startproc
@ %bb.0:
	.pad	#16
	sub	sp, #16
	.cfi_def_cfa_offset 16
	str	r0, [sp, #8]
	str	r1, [sp, #4]
.Ltmp49:
	.loc	3 309 8 prologue_end            @ lvgl/src/lv_misc/lv_ll.c:309:8
	ldr	r0, [sp, #8]
.Ltmp50:
	.loc	3 309 8 is_stmt 0               @ lvgl/src/lv_misc/lv_ll.c:309:8
	cbnz	r0, .LBB6_2
	b	.LBB6_1
.LBB6_1:
	.loc	3 0 8                           @ lvgl/src/lv_misc/lv_ll.c:0:8
	movs	r0, #0
.Ltmp51:
	.loc	3 309 22                        @ lvgl/src/lv_misc/lv_ll.c:309:22
	str	r0, [sp, #12]
	b	.LBB6_3
.Ltmp52:
.LBB6_2:
	.loc	3 313 36 is_stmt 1              @ lvgl/src/lv_misc/lv_ll.c:313:36
	ldr	r0, [sp, #4]
	.loc	3 313 26 is_stmt 0              @ lvgl/src/lv_misc/lv_ll.c:313:26
	str	r0, [sp]
	.loc	3 314 16 is_stmt 1              @ lvgl/src/lv_misc/lv_ll.c:314:16
	ldr	r0, [sp, #8]
	ldr	r1, [r0]
	.loc	3 314 13 is_stmt 0              @ lvgl/src/lv_misc/lv_ll.c:314:13
	ldr	r0, [sp]
	add	r0, r1
	str	r0, [sp]
	.loc	3 315 31 is_stmt 1              @ lvgl/src/lv_misc/lv_ll.c:315:31
	ldr	r0, [sp]
	.loc	3 315 12 is_stmt 0              @ lvgl/src/lv_misc/lv_ll.c:315:12
	ldr	r0, [r0]
	.loc	3 315 5                         @ lvgl/src/lv_misc/lv_ll.c:315:5
	str	r0, [sp, #12]
	b	.LBB6_3
.LBB6_3:
	.loc	3 316 1 is_stmt 1               @ lvgl/src/lv_misc/lv_ll.c:316:1
	ldr	r0, [sp, #12]
	add	sp, #16
	bx	lr
.Ltmp53:
.Lfunc_end6:
	.size	_lv_ll_get_prev, .Lfunc_end6-_lv_ll_get_prev
	.cfi_endproc
	.cantunwind
	.fnend
                                        @ -- End function
	.section	.text._lv_ll_ins_tail,"ax",%progbits
	.hidden	_lv_ll_ins_tail                 @ -- Begin function _lv_ll_ins_tail
	.globl	_lv_ll_ins_tail
	.p2align	3
	.type	_lv_ll_ins_tail,%function
	.code	16                              @ @_lv_ll_ins_tail
	.thumb_func
_lv_ll_ins_tail:
.Lfunc_begin7:
	.loc	3 130 0                         @ lvgl/src/lv_misc/lv_ll.c:130:0
	.fnstart
	.cfi_startproc
@ %bb.0:
	.save	{r7, lr}
	push	{r7, lr}
	.cfi_def_cfa_offset 8
	.cfi_offset lr, -4
	.cfi_offset r7, -8
	.pad	#8
	sub	sp, #8
	.cfi_def_cfa_offset 16
	str	r0, [sp, #4]
.Ltmp54:
	.loc	3 133 26 prologue_end           @ lvgl/src/lv_misc/lv_ll.c:133:26
	ldr	r0, [sp, #4]
	.loc	3 133 32 is_stmt 0              @ lvgl/src/lv_misc/lv_ll.c:133:32
	ldr	r0, [r0]
	.loc	3 133 39                        @ lvgl/src/lv_misc/lv_ll.c:133:39
	adds	r0, #8
	.loc	3 133 13                        @ lvgl/src/lv_misc/lv_ll.c:133:13
	bl	lv_mem_alloc
	.loc	3 133 11                        @ lvgl/src/lv_misc/lv_ll.c:133:11
	str	r0, [sp]
.Ltmp55:
	.loc	3 135 8 is_stmt 1               @ lvgl/src/lv_misc/lv_ll.c:135:8
	ldr	r0, [sp]
.Ltmp56:
	.loc	3 135 8 is_stmt 0               @ lvgl/src/lv_misc/lv_ll.c:135:8
	cbz	r0, .LBB7_6
	b	.LBB7_1
.LBB7_1:
.Ltmp57:
	.loc	3 136 23 is_stmt 1              @ lvgl/src/lv_misc/lv_ll.c:136:23
	ldr	r0, [sp, #4]
	.loc	3 136 29 is_stmt 0              @ lvgl/src/lv_misc/lv_ll.c:136:29
	ldr	r1, [sp]
	movs	r2, #0
	.loc	3 136 9                         @ lvgl/src/lv_misc/lv_ll.c:136:9
	bl	node_set_next
	.loc	3 137 23 is_stmt 1              @ lvgl/src/lv_misc/lv_ll.c:137:23
	ldr	r0, [sp, #4]
	.loc	3 137 29 is_stmt 0              @ lvgl/src/lv_misc/lv_ll.c:137:29
	ldr	r1, [sp]
	.loc	3 137 42                        @ lvgl/src/lv_misc/lv_ll.c:137:42
	ldr	r2, [r0, #8]
	.loc	3 137 9                         @ lvgl/src/lv_misc/lv_ll.c:137:9
	bl	node_set_prev
.Ltmp58:
	.loc	3 138 12 is_stmt 1              @ lvgl/src/lv_misc/lv_ll.c:138:12
	ldr	r0, [sp, #4]
	.loc	3 138 18 is_stmt 0              @ lvgl/src/lv_misc/lv_ll.c:138:18
	ldr	r0, [r0, #8]
.Ltmp59:
	.loc	3 138 12                        @ lvgl/src/lv_misc/lv_ll.c:138:12
	cbz	r0, .LBB7_3
	b	.LBB7_2
.LBB7_2:
.Ltmp60:
	.loc	3 139 27 is_stmt 1              @ lvgl/src/lv_misc/lv_ll.c:139:27
	ldr	r0, [sp, #4]
	.loc	3 139 39 is_stmt 0              @ lvgl/src/lv_misc/lv_ll.c:139:39
	ldr	r1, [r0, #8]
	.loc	3 139 45                        @ lvgl/src/lv_misc/lv_ll.c:139:45
	ldr	r2, [sp]
	.loc	3 139 13                        @ lvgl/src/lv_misc/lv_ll.c:139:13
	bl	node_set_next
	.loc	3 140 9 is_stmt 1               @ lvgl/src/lv_misc/lv_ll.c:140:9
	b	.LBB7_3
.Ltmp61:
.LBB7_3:
	.loc	3 142 22                        @ lvgl/src/lv_misc/lv_ll.c:142:22
	ldr	r0, [sp]
	.loc	3 142 9 is_stmt 0               @ lvgl/src/lv_misc/lv_ll.c:142:9
	ldr	r1, [sp, #4]
	.loc	3 142 20                        @ lvgl/src/lv_misc/lv_ll.c:142:20
	str	r0, [r1, #8]
.Ltmp62:
	.loc	3 143 12 is_stmt 1              @ lvgl/src/lv_misc/lv_ll.c:143:12
	ldr	r0, [sp, #4]
	.loc	3 143 18 is_stmt 0              @ lvgl/src/lv_misc/lv_ll.c:143:18
	ldr	r0, [r0, #4]
.Ltmp63:
	.loc	3 143 12                        @ lvgl/src/lv_misc/lv_ll.c:143:12
	cbnz	r0, .LBB7_5
	b	.LBB7_4
.LBB7_4:
.Ltmp64:
	.loc	3 144 26 is_stmt 1              @ lvgl/src/lv_misc/lv_ll.c:144:26
	ldr	r0, [sp]
	.loc	3 144 13 is_stmt 0              @ lvgl/src/lv_misc/lv_ll.c:144:13
	ldr	r1, [sp, #4]
	.loc	3 144 24                        @ lvgl/src/lv_misc/lv_ll.c:144:24
	str	r0, [r1, #4]
	.loc	3 145 9 is_stmt 1               @ lvgl/src/lv_misc/lv_ll.c:145:9
	b	.LBB7_5
.Ltmp65:
.LBB7_5:
	.loc	3 146 5                         @ lvgl/src/lv_misc/lv_ll.c:146:5
	b	.LBB7_6
.Ltmp66:
.LBB7_6:
	.loc	3 148 12                        @ lvgl/src/lv_misc/lv_ll.c:148:12
	ldr	r0, [sp]
	.loc	3 148 5 is_stmt 0               @ lvgl/src/lv_misc/lv_ll.c:148:5
	add	sp, #8
	pop	{r7, pc}
.Ltmp67:
.Lfunc_end7:
	.size	_lv_ll_ins_tail, .Lfunc_end7-_lv_ll_ins_tail
	.cfi_endproc
	.cantunwind
	.fnend
                                        @ -- End function
	.section	.text._lv_ll_remove,"ax",%progbits
	.hidden	_lv_ll_remove                   @ -- Begin function _lv_ll_remove
	.globl	_lv_ll_remove
	.p2align	3
	.type	_lv_ll_remove,%function
	.code	16                              @ @_lv_ll_remove
	.thumb_func
_lv_ll_remove:
.Lfunc_begin8:
	.loc	3 158 0 is_stmt 1               @ lvgl/src/lv_misc/lv_ll.c:158:0
	.fnstart
	.cfi_startproc
@ %bb.0:
	.save	{r7, lr}
	push	{r7, lr}
	.cfi_def_cfa_offset 8
	.cfi_offset lr, -4
	.cfi_offset r7, -8
	.pad	#16
	sub	sp, #16
	.cfi_def_cfa_offset 24
	str	r0, [sp, #12]
	str	r1, [sp, #8]
.Ltmp68:
	.loc	3 159 24 prologue_end           @ lvgl/src/lv_misc/lv_ll.c:159:24
	ldr	r0, [sp, #12]
	.loc	3 159 8 is_stmt 0               @ lvgl/src/lv_misc/lv_ll.c:159:8
	bl	_lv_ll_get_head
	.loc	3 159 33                        @ lvgl/src/lv_misc/lv_ll.c:159:33
	ldr	r1, [sp, #8]
.Ltmp69:
	.loc	3 159 8                         @ lvgl/src/lv_misc/lv_ll.c:159:8
	cmp	r0, r1
	bne	.LBB8_5
	b	.LBB8_1
.LBB8_1:
.Ltmp70:
	.loc	3 161 38 is_stmt 1              @ lvgl/src/lv_misc/lv_ll.c:161:38
	ldr	r0, [sp, #12]
	.loc	3 161 44 is_stmt 0              @ lvgl/src/lv_misc/lv_ll.c:161:44
	ldr	r1, [sp, #8]
	.loc	3 161 22                        @ lvgl/src/lv_misc/lv_ll.c:161:22
	bl	_lv_ll_get_next
	.loc	3 161 9                         @ lvgl/src/lv_misc/lv_ll.c:161:9
	ldr	r1, [sp, #12]
	.loc	3 161 20                        @ lvgl/src/lv_misc/lv_ll.c:161:20
	str	r0, [r1, #4]
.Ltmp71:
	.loc	3 162 12 is_stmt 1              @ lvgl/src/lv_misc/lv_ll.c:162:12
	ldr	r0, [sp, #12]
	.loc	3 162 18 is_stmt 0              @ lvgl/src/lv_misc/lv_ll.c:162:18
	ldr	r0, [r0, #4]
.Ltmp72:
	.loc	3 162 12                        @ lvgl/src/lv_misc/lv_ll.c:162:12
	cbnz	r0, .LBB8_3
	b	.LBB8_2
.LBB8_2:
.Ltmp73:
	.loc	3 163 13 is_stmt 1              @ lvgl/src/lv_misc/lv_ll.c:163:13
	ldr	r1, [sp, #12]
	movs	r0, #0
	.loc	3 163 24 is_stmt 0              @ lvgl/src/lv_misc/lv_ll.c:163:24
	str	r0, [r1, #8]
	.loc	3 164 9 is_stmt 1               @ lvgl/src/lv_misc/lv_ll.c:164:9
	b	.LBB8_4
.Ltmp74:
.LBB8_3:
	.loc	3 166 27                        @ lvgl/src/lv_misc/lv_ll.c:166:27
	ldr	r0, [sp, #12]
	.loc	3 166 39 is_stmt 0              @ lvgl/src/lv_misc/lv_ll.c:166:39
	ldr	r1, [r0, #4]
	movs	r2, #0
	.loc	3 166 13                        @ lvgl/src/lv_misc/lv_ll.c:166:13
	bl	node_set_prev
	b	.LBB8_4
.Ltmp75:
.LBB8_4:
	.loc	3 168 5 is_stmt 1               @ lvgl/src/lv_misc/lv_ll.c:168:5
	b	.LBB8_12
.Ltmp76:
.LBB8_5:
	.loc	3 169 29                        @ lvgl/src/lv_misc/lv_ll.c:169:29
	ldr	r0, [sp, #12]
	.loc	3 169 13 is_stmt 0              @ lvgl/src/lv_misc/lv_ll.c:169:13
	bl	_lv_ll_get_tail
	.loc	3 169 38                        @ lvgl/src/lv_misc/lv_ll.c:169:38
	ldr	r1, [sp, #8]
.Ltmp77:
	.loc	3 169 13                        @ lvgl/src/lv_misc/lv_ll.c:169:13
	cmp	r0, r1
	bne	.LBB8_10
	b	.LBB8_6
.LBB8_6:
.Ltmp78:
	.loc	3 171 38 is_stmt 1              @ lvgl/src/lv_misc/lv_ll.c:171:38
	ldr	r0, [sp, #12]
	.loc	3 171 44 is_stmt 0              @ lvgl/src/lv_misc/lv_ll.c:171:44
	ldr	r1, [sp, #8]
	.loc	3 171 22                        @ lvgl/src/lv_misc/lv_ll.c:171:22
	bl	_lv_ll_get_prev
	.loc	3 171 9                         @ lvgl/src/lv_misc/lv_ll.c:171:9
	ldr	r1, [sp, #12]
	.loc	3 171 20                        @ lvgl/src/lv_misc/lv_ll.c:171:20
	str	r0, [r1, #8]
.Ltmp79:
	.loc	3 172 12 is_stmt 1              @ lvgl/src/lv_misc/lv_ll.c:172:12
	ldr	r0, [sp, #12]
	.loc	3 172 18 is_stmt 0              @ lvgl/src/lv_misc/lv_ll.c:172:18
	ldr	r0, [r0, #8]
.Ltmp80:
	.loc	3 172 12                        @ lvgl/src/lv_misc/lv_ll.c:172:12
	cbnz	r0, .LBB8_8
	b	.LBB8_7
.LBB8_7:
.Ltmp81:
	.loc	3 173 13 is_stmt 1              @ lvgl/src/lv_misc/lv_ll.c:173:13
	ldr	r1, [sp, #12]
	movs	r0, #0
	.loc	3 173 24 is_stmt 0              @ lvgl/src/lv_misc/lv_ll.c:173:24
	str	r0, [r1, #4]
	.loc	3 174 9 is_stmt 1               @ lvgl/src/lv_misc/lv_ll.c:174:9
	b	.LBB8_9
.Ltmp82:
.LBB8_8:
	.loc	3 176 27                        @ lvgl/src/lv_misc/lv_ll.c:176:27
	ldr	r0, [sp, #12]
	.loc	3 176 39 is_stmt 0              @ lvgl/src/lv_misc/lv_ll.c:176:39
	ldr	r1, [r0, #8]
	movs	r2, #0
	.loc	3 176 13                        @ lvgl/src/lv_misc/lv_ll.c:176:13
	bl	node_set_next
	b	.LBB8_9
.Ltmp83:
.LBB8_9:
	.loc	3 178 5 is_stmt 1               @ lvgl/src/lv_misc/lv_ll.c:178:5
	b	.LBB8_11
.Ltmp84:
.LBB8_10:
	.loc	3 180 49                        @ lvgl/src/lv_misc/lv_ll.c:180:49
	ldr	r0, [sp, #12]
	.loc	3 180 55 is_stmt 0              @ lvgl/src/lv_misc/lv_ll.c:180:55
	ldr	r1, [sp, #8]
	.loc	3 180 33                        @ lvgl/src/lv_misc/lv_ll.c:180:33
	bl	_lv_ll_get_prev
	.loc	3 180 24                        @ lvgl/src/lv_misc/lv_ll.c:180:24
	str	r0, [sp, #4]
	.loc	3 181 49 is_stmt 1              @ lvgl/src/lv_misc/lv_ll.c:181:49
	ldr	r0, [sp, #12]
	.loc	3 181 55 is_stmt 0              @ lvgl/src/lv_misc/lv_ll.c:181:55
	ldr	r1, [sp, #8]
	.loc	3 181 33                        @ lvgl/src/lv_misc/lv_ll.c:181:33
	bl	_lv_ll_get_next
	.loc	3 181 24                        @ lvgl/src/lv_misc/lv_ll.c:181:24
	str	r0, [sp]
	.loc	3 183 23 is_stmt 1              @ lvgl/src/lv_misc/lv_ll.c:183:23
	ldr	r0, [sp, #12]
	.loc	3 183 29 is_stmt 0              @ lvgl/src/lv_misc/lv_ll.c:183:29
	ldr	r1, [sp, #4]
	.loc	3 183 37                        @ lvgl/src/lv_misc/lv_ll.c:183:37
	ldr	r2, [sp]
	.loc	3 183 9                         @ lvgl/src/lv_misc/lv_ll.c:183:9
	bl	node_set_next
	.loc	3 184 23 is_stmt 1              @ lvgl/src/lv_misc/lv_ll.c:184:23
	ldr	r0, [sp, #12]
	.loc	3 184 29 is_stmt 0              @ lvgl/src/lv_misc/lv_ll.c:184:29
	ldr	r1, [sp]
	.loc	3 184 37                        @ lvgl/src/lv_misc/lv_ll.c:184:37
	ldr	r2, [sp, #4]
	.loc	3 184 9                         @ lvgl/src/lv_misc/lv_ll.c:184:9
	bl	node_set_prev
	b	.LBB8_11
.Ltmp85:
.LBB8_11:
	.loc	3 0 9                           @ lvgl/src/lv_misc/lv_ll.c:0:9
	b	.LBB8_12
.LBB8_12:
	.loc	3 186 1 is_stmt 1               @ lvgl/src/lv_misc/lv_ll.c:186:1
	add	sp, #16
	pop	{r7, pc}
.Ltmp86:
.Lfunc_end8:
	.size	_lv_ll_remove, .Lfunc_end8-_lv_ll_remove
	.cfi_endproc
	.cantunwind
	.fnend
                                        @ -- End function
	.section	.text._lv_ll_get_next,"ax",%progbits
	.hidden	_lv_ll_get_next                 @ -- Begin function _lv_ll_get_next
	.globl	_lv_ll_get_next
	.p2align	3
	.type	_lv_ll_get_next,%function
	.code	16                              @ @_lv_ll_get_next
	.thumb_func
_lv_ll_get_next:
.Lfunc_begin9:
	.loc	3 291 0                         @ lvgl/src/lv_misc/lv_ll.c:291:0
	.fnstart
	.cfi_startproc
@ %bb.0:
	.pad	#16
	sub	sp, #16
	.cfi_def_cfa_offset 16
	str	r0, [sp, #8]
	str	r1, [sp, #4]
.Ltmp87:
	.loc	3 292 8 prologue_end            @ lvgl/src/lv_misc/lv_ll.c:292:8
	ldr	r0, [sp, #8]
.Ltmp88:
	.loc	3 292 8 is_stmt 0               @ lvgl/src/lv_misc/lv_ll.c:292:8
	cbnz	r0, .LBB9_2
	b	.LBB9_1
.LBB9_1:
	.loc	3 0 8                           @ lvgl/src/lv_misc/lv_ll.c:0:8
	movs	r0, #0
.Ltmp89:
	.loc	3 292 22                        @ lvgl/src/lv_misc/lv_ll.c:292:22
	str	r0, [sp, #12]
	b	.LBB9_3
.Ltmp90:
.LBB9_2:
	.loc	3 296 36 is_stmt 1              @ lvgl/src/lv_misc/lv_ll.c:296:36
	ldr	r0, [sp, #4]
	.loc	3 296 26 is_stmt 0              @ lvgl/src/lv_misc/lv_ll.c:296:26
	str	r0, [sp]
	.loc	3 297 16 is_stmt 1              @ lvgl/src/lv_misc/lv_ll.c:297:16
	ldr	r0, [sp, #8]
	ldr	r0, [r0]
	.loc	3 297 13 is_stmt 0              @ lvgl/src/lv_misc/lv_ll.c:297:13
	ldr	r1, [sp]
	.loc	3 297 16                        @ lvgl/src/lv_misc/lv_ll.c:297:16
	add	r0, r1
	.loc	3 297 13                        @ lvgl/src/lv_misc/lv_ll.c:297:13
	adds	r0, #4
	str	r0, [sp]
	.loc	3 298 31 is_stmt 1              @ lvgl/src/lv_misc/lv_ll.c:298:31
	ldr	r0, [sp]
	.loc	3 298 12 is_stmt 0              @ lvgl/src/lv_misc/lv_ll.c:298:12
	ldr	r0, [r0]
	.loc	3 298 5                         @ lvgl/src/lv_misc/lv_ll.c:298:5
	str	r0, [sp, #12]
	b	.LBB9_3
.LBB9_3:
	.loc	3 299 1 is_stmt 1               @ lvgl/src/lv_misc/lv_ll.c:299:1
	ldr	r0, [sp, #12]
	add	sp, #16
	bx	lr
.Ltmp91:
.Lfunc_end9:
	.size	_lv_ll_get_next, .Lfunc_end9-_lv_ll_get_next
	.cfi_endproc
	.cantunwind
	.fnend
                                        @ -- End function
	.section	.text._lv_ll_get_tail,"ax",%progbits
	.hidden	_lv_ll_get_tail                 @ -- Begin function _lv_ll_get_tail
	.globl	_lv_ll_get_tail
	.p2align	3
	.type	_lv_ll_get_tail,%function
	.code	16                              @ @_lv_ll_get_tail
	.thumb_func
_lv_ll_get_tail:
.Lfunc_begin10:
	.loc	3 274 0                         @ lvgl/src/lv_misc/lv_ll.c:274:0
	.fnstart
	.cfi_startproc
@ %bb.0:
	.pad	#8
	sub	sp, #8
	.cfi_def_cfa_offset 8
	str	r0, [sp, #4]
	movs	r0, #0
.Ltmp92:
	.loc	3 275 12 prologue_end           @ lvgl/src/lv_misc/lv_ll.c:275:12
	str	r0, [sp]
.Ltmp93:
	.loc	3 277 8                         @ lvgl/src/lv_misc/lv_ll.c:277:8
	ldr	r0, [sp, #4]
.Ltmp94:
	.loc	3 277 8 is_stmt 0               @ lvgl/src/lv_misc/lv_ll.c:277:8
	cbz	r0, .LBB10_2
	b	.LBB10_1
.LBB10_1:
.Ltmp95:
	.loc	3 278 16 is_stmt 1              @ lvgl/src/lv_misc/lv_ll.c:278:16
	ldr	r0, [sp, #4]
	.loc	3 278 22 is_stmt 0              @ lvgl/src/lv_misc/lv_ll.c:278:22
	ldr	r0, [r0, #8]
	.loc	3 278 14                        @ lvgl/src/lv_misc/lv_ll.c:278:14
	str	r0, [sp]
	.loc	3 279 5 is_stmt 1               @ lvgl/src/lv_misc/lv_ll.c:279:5
	b	.LBB10_2
.Ltmp96:
.LBB10_2:
	.loc	3 281 12                        @ lvgl/src/lv_misc/lv_ll.c:281:12
	ldr	r0, [sp]
	.loc	3 281 5 is_stmt 0               @ lvgl/src/lv_misc/lv_ll.c:281:5
	add	sp, #8
	bx	lr
.Ltmp97:
.Lfunc_end10:
	.size	_lv_ll_get_tail, .Lfunc_end10-_lv_ll_get_tail
	.cfi_endproc
	.cantunwind
	.fnend
                                        @ -- End function
	.section	.text._lv_ll_clear,"ax",%progbits
	.hidden	_lv_ll_clear                    @ -- Begin function _lv_ll_clear
	.globl	_lv_ll_clear
	.p2align	3
	.type	_lv_ll_clear,%function
	.code	16                              @ @_lv_ll_clear
	.thumb_func
_lv_ll_clear:
.Lfunc_begin11:
	.loc	3 193 0 is_stmt 1               @ lvgl/src/lv_misc/lv_ll.c:193:0
	.fnstart
	.cfi_startproc
@ %bb.0:
	.save	{r7, lr}
	push	{r7, lr}
	.cfi_def_cfa_offset 8
	.cfi_offset lr, -4
	.cfi_offset r7, -8
	.pad	#16
	sub	sp, #16
	.cfi_def_cfa_offset 24
	str	r0, [sp, #12]
.Ltmp98:
	.loc	3 197 30 prologue_end           @ lvgl/src/lv_misc/lv_ll.c:197:30
	ldr	r0, [sp, #12]
	.loc	3 197 14 is_stmt 0              @ lvgl/src/lv_misc/lv_ll.c:197:14
	bl	_lv_ll_get_head
	.loc	3 197 12                        @ lvgl/src/lv_misc/lv_ll.c:197:12
	str	r0, [sp, #8]
	movs	r0, #0
	.loc	3 198 12 is_stmt 1              @ lvgl/src/lv_misc/lv_ll.c:198:12
	str	r0, [sp, #4]
	.loc	3 200 5                         @ lvgl/src/lv_misc/lv_ll.c:200:5
	b	.LBB11_1
.LBB11_1:                               @ =>This Inner Loop Header: Depth=1
	.loc	3 200 11 is_stmt 0              @ lvgl/src/lv_misc/lv_ll.c:200:11
	ldr	r0, [sp, #8]
	.loc	3 200 5                         @ lvgl/src/lv_misc/lv_ll.c:200:5
	cbz	r0, .LBB11_3
	b	.LBB11_2
.LBB11_2:                               @   in Loop: Header=BB11_1 Depth=1
.Ltmp99:
	.loc	3 201 34 is_stmt 1              @ lvgl/src/lv_misc/lv_ll.c:201:34
	ldr	r0, [sp, #12]
	.loc	3 201 40 is_stmt 0              @ lvgl/src/lv_misc/lv_ll.c:201:40
	ldr	r1, [sp, #8]
	.loc	3 201 18                        @ lvgl/src/lv_misc/lv_ll.c:201:18
	bl	_lv_ll_get_next
	.loc	3 201 16                        @ lvgl/src/lv_misc/lv_ll.c:201:16
	str	r0, [sp, #4]
	.loc	3 203 23 is_stmt 1              @ lvgl/src/lv_misc/lv_ll.c:203:23
	ldr	r0, [sp, #12]
	.loc	3 203 29 is_stmt 0              @ lvgl/src/lv_misc/lv_ll.c:203:29
	ldr	r1, [sp, #8]
	.loc	3 203 9                         @ lvgl/src/lv_misc/lv_ll.c:203:9
	bl	_lv_ll_remove
	.loc	3 204 21 is_stmt 1              @ lvgl/src/lv_misc/lv_ll.c:204:21
	ldr	r0, [sp, #8]
	.loc	3 204 9 is_stmt 0               @ lvgl/src/lv_misc/lv_ll.c:204:9
	bl	lv_mem_free
	.loc	3 206 13 is_stmt 1              @ lvgl/src/lv_misc/lv_ll.c:206:13
	ldr	r0, [sp, #4]
	.loc	3 206 11 is_stmt 0              @ lvgl/src/lv_misc/lv_ll.c:206:11
	str	r0, [sp, #8]
.Ltmp100:
	.loc	3 200 5 is_stmt 1               @ lvgl/src/lv_misc/lv_ll.c:200:5
	b	.LBB11_1
.LBB11_3:
	.loc	3 208 1                         @ lvgl/src/lv_misc/lv_ll.c:208:1
	add	sp, #16
	pop	{r7, pc}
.Ltmp101:
.Lfunc_end11:
	.size	_lv_ll_clear, .Lfunc_end11-_lv_ll_clear
	.cfi_endproc
	.cantunwind
	.fnend
                                        @ -- End function
	.section	.text._lv_ll_chg_list,"ax",%progbits
	.hidden	_lv_ll_chg_list                 @ -- Begin function _lv_ll_chg_list
	.globl	_lv_ll_chg_list
	.p2align	3
	.type	_lv_ll_chg_list,%function
	.code	16                              @ @_lv_ll_chg_list
	.thumb_func
_lv_ll_chg_list:
.Lfunc_begin12:
	.loc	3 219 0                         @ lvgl/src/lv_misc/lv_ll.c:219:0
	.fnstart
	.cfi_startproc
@ %bb.0:
	.save	{r7, lr}
	push	{r7, lr}
	.cfi_def_cfa_offset 8
	.cfi_offset lr, -4
	.cfi_offset r7, -8
	.pad	#16
	sub	sp, #16
	.cfi_def_cfa_offset 24
                                        @ kill: def $r12 killed $r3
	str	r0, [sp, #12]
	str	r1, [sp, #8]
	str	r2, [sp, #4]
	strb.w	r3, [sp, #3]
.Ltmp102:
	.loc	3 220 19 prologue_end           @ lvgl/src/lv_misc/lv_ll.c:220:19
	ldr	r0, [sp, #12]
	.loc	3 220 29 is_stmt 0              @ lvgl/src/lv_misc/lv_ll.c:220:29
	ldr	r1, [sp, #4]
	.loc	3 220 5                         @ lvgl/src/lv_misc/lv_ll.c:220:5
	bl	_lv_ll_remove
.Ltmp103:
	.loc	3 222 8 is_stmt 1               @ lvgl/src/lv_misc/lv_ll.c:222:8
	ldrb.w	r0, [sp, #3]
.Ltmp104:
	.loc	3 222 8 is_stmt 0               @ lvgl/src/lv_misc/lv_ll.c:222:8
	lsls	r0, r0, #31
	cbz	r0, .LBB12_6
	b	.LBB12_1
.LBB12_1:
.Ltmp105:
	.loc	3 224 23 is_stmt 1              @ lvgl/src/lv_misc/lv_ll.c:224:23
	ldr	r0, [sp, #8]
	.loc	3 224 33 is_stmt 0              @ lvgl/src/lv_misc/lv_ll.c:224:33
	ldr	r1, [sp, #4]
	movs	r2, #0
	.loc	3 224 9                         @ lvgl/src/lv_misc/lv_ll.c:224:9
	bl	node_set_prev
	.loc	3 225 23 is_stmt 1              @ lvgl/src/lv_misc/lv_ll.c:225:23
	ldr	r0, [sp, #8]
	.loc	3 225 33 is_stmt 0              @ lvgl/src/lv_misc/lv_ll.c:225:33
	ldr	r1, [sp, #4]
	.loc	3 225 49                        @ lvgl/src/lv_misc/lv_ll.c:225:49
	ldr	r2, [r0, #4]
	.loc	3 225 9                         @ lvgl/src/lv_misc/lv_ll.c:225:9
	bl	node_set_next
.Ltmp106:
	.loc	3 227 12 is_stmt 1              @ lvgl/src/lv_misc/lv_ll.c:227:12
	ldr	r0, [sp, #8]
	.loc	3 227 22 is_stmt 0              @ lvgl/src/lv_misc/lv_ll.c:227:22
	ldr	r0, [r0, #4]
.Ltmp107:
	.loc	3 227 12                        @ lvgl/src/lv_misc/lv_ll.c:227:12
	cbz	r0, .LBB12_3
	b	.LBB12_2
.LBB12_2:
.Ltmp108:
	.loc	3 228 27 is_stmt 1              @ lvgl/src/lv_misc/lv_ll.c:228:27
	ldr	r0, [sp, #8]
	.loc	3 228 47 is_stmt 0              @ lvgl/src/lv_misc/lv_ll.c:228:47
	ldr	r1, [r0, #4]
	.loc	3 228 53                        @ lvgl/src/lv_misc/lv_ll.c:228:53
	ldr	r2, [sp, #4]
	.loc	3 228 13                        @ lvgl/src/lv_misc/lv_ll.c:228:13
	bl	node_set_prev
	.loc	3 229 9 is_stmt 1               @ lvgl/src/lv_misc/lv_ll.c:229:9
	b	.LBB12_3
.Ltmp109:
.LBB12_3:
	.loc	3 231 26                        @ lvgl/src/lv_misc/lv_ll.c:231:26
	ldr	r0, [sp, #4]
	.loc	3 231 9 is_stmt 0               @ lvgl/src/lv_misc/lv_ll.c:231:9
	ldr	r1, [sp, #8]
	.loc	3 231 24                        @ lvgl/src/lv_misc/lv_ll.c:231:24
	str	r0, [r1, #4]
.Ltmp110:
	.loc	3 232 12 is_stmt 1              @ lvgl/src/lv_misc/lv_ll.c:232:12
	ldr	r0, [sp, #8]
	.loc	3 232 22 is_stmt 0              @ lvgl/src/lv_misc/lv_ll.c:232:22
	ldr	r0, [r0, #8]
.Ltmp111:
	.loc	3 232 12                        @ lvgl/src/lv_misc/lv_ll.c:232:12
	cbnz	r0, .LBB12_5
	b	.LBB12_4
.LBB12_4:
.Ltmp112:
	.loc	3 233 30 is_stmt 1              @ lvgl/src/lv_misc/lv_ll.c:233:30
	ldr	r0, [sp, #4]
	.loc	3 233 13 is_stmt 0              @ lvgl/src/lv_misc/lv_ll.c:233:13
	ldr	r1, [sp, #8]
	.loc	3 233 28                        @ lvgl/src/lv_misc/lv_ll.c:233:28
	str	r0, [r1, #8]
	.loc	3 234 9 is_stmt 1               @ lvgl/src/lv_misc/lv_ll.c:234:9
	b	.LBB12_5
.Ltmp113:
.LBB12_5:
	.loc	3 235 5                         @ lvgl/src/lv_misc/lv_ll.c:235:5
	b	.LBB12_11
.Ltmp114:
.LBB12_6:
	.loc	3 238 23                        @ lvgl/src/lv_misc/lv_ll.c:238:23
	ldr	r0, [sp, #8]
	.loc	3 238 33 is_stmt 0              @ lvgl/src/lv_misc/lv_ll.c:238:33
	ldr	r1, [sp, #4]
	.loc	3 238 49                        @ lvgl/src/lv_misc/lv_ll.c:238:49
	ldr	r2, [r0, #8]
	.loc	3 238 9                         @ lvgl/src/lv_misc/lv_ll.c:238:9
	bl	node_set_prev
	.loc	3 239 23 is_stmt 1              @ lvgl/src/lv_misc/lv_ll.c:239:23
	ldr	r0, [sp, #8]
	.loc	3 239 33 is_stmt 0              @ lvgl/src/lv_misc/lv_ll.c:239:33
	ldr	r1, [sp, #4]
	movs	r2, #0
	.loc	3 239 9                         @ lvgl/src/lv_misc/lv_ll.c:239:9
	bl	node_set_next
.Ltmp115:
	.loc	3 241 12 is_stmt 1              @ lvgl/src/lv_misc/lv_ll.c:241:12
	ldr	r0, [sp, #8]
	.loc	3 241 22 is_stmt 0              @ lvgl/src/lv_misc/lv_ll.c:241:22
	ldr	r0, [r0, #8]
.Ltmp116:
	.loc	3 241 12                        @ lvgl/src/lv_misc/lv_ll.c:241:12
	cbz	r0, .LBB12_8
	b	.LBB12_7
.LBB12_7:
.Ltmp117:
	.loc	3 242 27 is_stmt 1              @ lvgl/src/lv_misc/lv_ll.c:242:27
	ldr	r0, [sp, #8]
	.loc	3 242 47 is_stmt 0              @ lvgl/src/lv_misc/lv_ll.c:242:47
	ldr	r1, [r0, #8]
	.loc	3 242 53                        @ lvgl/src/lv_misc/lv_ll.c:242:53
	ldr	r2, [sp, #4]
	.loc	3 242 13                        @ lvgl/src/lv_misc/lv_ll.c:242:13
	bl	node_set_next
	.loc	3 243 9 is_stmt 1               @ lvgl/src/lv_misc/lv_ll.c:243:9
	b	.LBB12_8
.Ltmp118:
.LBB12_8:
	.loc	3 245 26                        @ lvgl/src/lv_misc/lv_ll.c:245:26
	ldr	r0, [sp, #4]
	.loc	3 245 9 is_stmt 0               @ lvgl/src/lv_misc/lv_ll.c:245:9
	ldr	r1, [sp, #8]
	.loc	3 245 24                        @ lvgl/src/lv_misc/lv_ll.c:245:24
	str	r0, [r1, #8]
.Ltmp119:
	.loc	3 246 12 is_stmt 1              @ lvgl/src/lv_misc/lv_ll.c:246:12
	ldr	r0, [sp, #8]
	.loc	3 246 22 is_stmt 0              @ lvgl/src/lv_misc/lv_ll.c:246:22
	ldr	r0, [r0, #4]
.Ltmp120:
	.loc	3 246 12                        @ lvgl/src/lv_misc/lv_ll.c:246:12
	cbnz	r0, .LBB12_10
	b	.LBB12_9
.LBB12_9:
.Ltmp121:
	.loc	3 247 30 is_stmt 1              @ lvgl/src/lv_misc/lv_ll.c:247:30
	ldr	r0, [sp, #4]
	.loc	3 247 13 is_stmt 0              @ lvgl/src/lv_misc/lv_ll.c:247:13
	ldr	r1, [sp, #8]
	.loc	3 247 28                        @ lvgl/src/lv_misc/lv_ll.c:247:28
	str	r0, [r1, #4]
	.loc	3 248 9 is_stmt 1               @ lvgl/src/lv_misc/lv_ll.c:248:9
	b	.LBB12_10
.Ltmp122:
.LBB12_10:
	.loc	3 0 9 is_stmt 0                 @ lvgl/src/lv_misc/lv_ll.c:0:9
	b	.LBB12_11
.LBB12_11:
	.loc	3 250 1 is_stmt 1               @ lvgl/src/lv_misc/lv_ll.c:250:1
	add	sp, #16
	pop	{r7, pc}
.Ltmp123:
.Lfunc_end12:
	.size	_lv_ll_chg_list, .Lfunc_end12-_lv_ll_chg_list
	.cfi_endproc
	.cantunwind
	.fnend
                                        @ -- End function
	.section	.text._lv_ll_get_len,"ax",%progbits
	.hidden	_lv_ll_get_len                  @ -- Begin function _lv_ll_get_len
	.globl	_lv_ll_get_len
	.p2align	3
	.type	_lv_ll_get_len,%function
	.code	16                              @ @_lv_ll_get_len
	.thumb_func
_lv_ll_get_len:
.Lfunc_begin13:
	.loc	3 324 0                         @ lvgl/src/lv_misc/lv_ll.c:324:0
	.fnstart
	.cfi_startproc
@ %bb.0:
	.save	{r7, lr}
	push	{r7, lr}
	.cfi_def_cfa_offset 8
	.cfi_offset lr, -4
	.cfi_offset r7, -8
	.pad	#16
	sub	sp, #16
	.cfi_def_cfa_offset 24
	str	r0, [sp, #12]
	movs	r0, #0
.Ltmp124:
	.loc	3 325 14 prologue_end           @ lvgl/src/lv_misc/lv_ll.c:325:14
	str	r0, [sp, #8]
.Ltmp125:
	.loc	3 328 32                        @ lvgl/src/lv_misc/lv_ll.c:328:32
	ldr	r0, [sp, #12]
	.loc	3 328 16 is_stmt 0              @ lvgl/src/lv_misc/lv_ll.c:328:16
	bl	_lv_ll_get_head
	.loc	3 328 14                        @ lvgl/src/lv_misc/lv_ll.c:328:14
	str	r0, [sp, #4]
	.loc	3 328 9                         @ lvgl/src/lv_misc/lv_ll.c:328:9
	b	.LBB13_1
.LBB13_1:                               @ =>This Inner Loop Header: Depth=1
.Ltmp126:
	.loc	3 328 39                        @ lvgl/src/lv_misc/lv_ll.c:328:39
	ldr	r0, [sp, #4]
.Ltmp127:
	.loc	3 328 5                         @ lvgl/src/lv_misc/lv_ll.c:328:5
	cbz	r0, .LBB13_4
	b	.LBB13_2
.LBB13_2:                               @   in Loop: Header=BB13_1 Depth=1
.Ltmp128:
	.loc	3 329 12 is_stmt 1              @ lvgl/src/lv_misc/lv_ll.c:329:12
	ldr	r0, [sp, #8]
	adds	r0, #1
	str	r0, [sp, #8]
	.loc	3 330 5                         @ lvgl/src/lv_misc/lv_ll.c:330:5
	b	.LBB13_3
.Ltmp129:
.LBB13_3:                               @   in Loop: Header=BB13_1 Depth=1
	.loc	3 328 76                        @ lvgl/src/lv_misc/lv_ll.c:328:76
	ldr	r0, [sp, #12]
	.loc	3 328 82 is_stmt 0              @ lvgl/src/lv_misc/lv_ll.c:328:82
	ldr	r1, [sp, #4]
	.loc	3 328 60                        @ lvgl/src/lv_misc/lv_ll.c:328:60
	bl	_lv_ll_get_next
	.loc	3 328 58                        @ lvgl/src/lv_misc/lv_ll.c:328:58
	str	r0, [sp, #4]
	.loc	3 328 5                         @ lvgl/src/lv_misc/lv_ll.c:328:5
	b	.LBB13_1
.Ltmp130:
.LBB13_4:
	.loc	3 332 12 is_stmt 1              @ lvgl/src/lv_misc/lv_ll.c:332:12
	ldr	r0, [sp, #8]
	.loc	3 332 5 is_stmt 0               @ lvgl/src/lv_misc/lv_ll.c:332:5
	add	sp, #16
	pop	{r7, pc}
.Ltmp131:
.Lfunc_end13:
	.size	_lv_ll_get_len, .Lfunc_end13-_lv_ll_get_len
	.cfi_endproc
	.cantunwind
	.fnend
                                        @ -- End function
	.section	.text._lv_ll_move_before,"ax",%progbits
	.hidden	_lv_ll_move_before              @ -- Begin function _lv_ll_move_before
	.globl	_lv_ll_move_before
	.p2align	3
	.type	_lv_ll_move_before,%function
	.code	16                              @ @_lv_ll_move_before
	.thumb_func
_lv_ll_move_before:
.Lfunc_begin14:
	.loc	3 342 0 is_stmt 1               @ lvgl/src/lv_misc/lv_ll.c:342:0
	.fnstart
	.cfi_startproc
@ %bb.0:
	.save	{r7, lr}
	push	{r7, lr}
	.cfi_def_cfa_offset 8
	.cfi_offset lr, -4
	.cfi_offset r7, -8
	.pad	#16
	sub	sp, #16
	.cfi_def_cfa_offset 24
	str	r0, [sp, #12]
	str	r1, [sp, #8]
	str	r2, [sp, #4]
.Ltmp132:
	.loc	3 343 8 prologue_end            @ lvgl/src/lv_misc/lv_ll.c:343:8
	ldr	r0, [sp, #8]
	.loc	3 343 17 is_stmt 0              @ lvgl/src/lv_misc/lv_ll.c:343:17
	ldr	r1, [sp, #4]
.Ltmp133:
	.loc	3 343 8                         @ lvgl/src/lv_misc/lv_ll.c:343:8
	cmp	r0, r1
	bne	.LBB14_2
	b	.LBB14_1
.LBB14_1:
.Ltmp134:
	.loc	3 343 26                        @ lvgl/src/lv_misc/lv_ll.c:343:26
	b	.LBB14_11
.Ltmp135:
.LBB14_2:
	.loc	3 346 8 is_stmt 1               @ lvgl/src/lv_misc/lv_ll.c:346:8
	ldr	r0, [sp, #4]
.Ltmp136:
	.loc	3 346 8 is_stmt 0               @ lvgl/src/lv_misc/lv_ll.c:346:8
	cbz	r0, .LBB14_4
	b	.LBB14_3
.LBB14_3:
.Ltmp137:
	.loc	3 347 36 is_stmt 1              @ lvgl/src/lv_misc/lv_ll.c:347:36
	ldr	r0, [sp, #12]
	.loc	3 347 42 is_stmt 0              @ lvgl/src/lv_misc/lv_ll.c:347:42
	ldr	r1, [sp, #4]
	.loc	3 347 20                        @ lvgl/src/lv_misc/lv_ll.c:347:20
	bl	_lv_ll_get_prev
	.loc	3 347 18                        @ lvgl/src/lv_misc/lv_ll.c:347:18
	str	r0, [sp]
	.loc	3 347 9                         @ lvgl/src/lv_misc/lv_ll.c:347:9
	b	.LBB14_5
.LBB14_4:
	.loc	3 349 36 is_stmt 1              @ lvgl/src/lv_misc/lv_ll.c:349:36
	ldr	r0, [sp, #12]
	.loc	3 349 20 is_stmt 0              @ lvgl/src/lv_misc/lv_ll.c:349:20
	bl	_lv_ll_get_tail
	.loc	3 349 18                        @ lvgl/src/lv_misc/lv_ll.c:349:18
	str	r0, [sp]
	b	.LBB14_5
.Ltmp138:
.LBB14_5:
	.loc	3 351 8 is_stmt 1               @ lvgl/src/lv_misc/lv_ll.c:351:8
	ldr	r0, [sp, #8]
	.loc	3 351 17 is_stmt 0              @ lvgl/src/lv_misc/lv_ll.c:351:17
	ldr	r1, [sp]
.Ltmp139:
	.loc	3 351 8                         @ lvgl/src/lv_misc/lv_ll.c:351:8
	cmp	r0, r1
	bne	.LBB14_7
	b	.LBB14_6
.LBB14_6:
.Ltmp140:
	.loc	3 351 27                        @ lvgl/src/lv_misc/lv_ll.c:351:27
	b	.LBB14_11
.Ltmp141:
.LBB14_7:
	.loc	3 354 19 is_stmt 1              @ lvgl/src/lv_misc/lv_ll.c:354:19
	ldr	r0, [sp, #12]
	.loc	3 354 25 is_stmt 0              @ lvgl/src/lv_misc/lv_ll.c:354:25
	ldr	r1, [sp, #8]
	.loc	3 354 5                         @ lvgl/src/lv_misc/lv_ll.c:354:5
	bl	_lv_ll_remove
	.loc	3 357 19 is_stmt 1              @ lvgl/src/lv_misc/lv_ll.c:357:19
	ldr	r0, [sp, #12]
	.loc	3 357 25 is_stmt 0              @ lvgl/src/lv_misc/lv_ll.c:357:25
	ldr	r1, [sp]
	.loc	3 357 35                        @ lvgl/src/lv_misc/lv_ll.c:357:35
	ldr	r2, [sp, #8]
	.loc	3 357 5                         @ lvgl/src/lv_misc/lv_ll.c:357:5
	bl	node_set_next
	.loc	3 358 19 is_stmt 1              @ lvgl/src/lv_misc/lv_ll.c:358:19
	ldr	r0, [sp, #12]
	.loc	3 358 25 is_stmt 0              @ lvgl/src/lv_misc/lv_ll.c:358:25
	ldr	r1, [sp, #8]
	.loc	3 358 32                        @ lvgl/src/lv_misc/lv_ll.c:358:32
	ldr	r2, [sp]
	.loc	3 358 5                         @ lvgl/src/lv_misc/lv_ll.c:358:5
	bl	node_set_prev
	.loc	3 359 19 is_stmt 1              @ lvgl/src/lv_misc/lv_ll.c:359:19
	ldr	r0, [sp, #12]
	.loc	3 359 25 is_stmt 0              @ lvgl/src/lv_misc/lv_ll.c:359:25
	ldr	r1, [sp, #4]
	.loc	3 359 34                        @ lvgl/src/lv_misc/lv_ll.c:359:34
	ldr	r2, [sp, #8]
	.loc	3 359 5                         @ lvgl/src/lv_misc/lv_ll.c:359:5
	bl	node_set_prev
	.loc	3 360 19 is_stmt 1              @ lvgl/src/lv_misc/lv_ll.c:360:19
	ldr	r0, [sp, #12]
	.loc	3 360 25 is_stmt 0              @ lvgl/src/lv_misc/lv_ll.c:360:25
	ldr	r1, [sp, #8]
	.loc	3 360 32                        @ lvgl/src/lv_misc/lv_ll.c:360:32
	ldr	r2, [sp, #4]
	.loc	3 360 5                         @ lvgl/src/lv_misc/lv_ll.c:360:5
	bl	node_set_next
.Ltmp142:
	.loc	3 363 8 is_stmt 1               @ lvgl/src/lv_misc/lv_ll.c:363:8
	ldr	r0, [sp, #4]
.Ltmp143:
	.loc	3 363 8 is_stmt 0               @ lvgl/src/lv_misc/lv_ll.c:363:8
	cbnz	r0, .LBB14_9
	b	.LBB14_8
.LBB14_8:
.Ltmp144:
	.loc	3 363 38                        @ lvgl/src/lv_misc/lv_ll.c:363:38
	ldr	r0, [sp, #8]
	.loc	3 363 25                        @ lvgl/src/lv_misc/lv_ll.c:363:25
	ldr	r1, [sp, #12]
	.loc	3 363 36                        @ lvgl/src/lv_misc/lv_ll.c:363:36
	str	r0, [r1, #8]
	.loc	3 363 25                        @ lvgl/src/lv_misc/lv_ll.c:363:25
	b	.LBB14_9
.Ltmp145:
.LBB14_9:
	.loc	3 366 8 is_stmt 1               @ lvgl/src/lv_misc/lv_ll.c:366:8
	ldr	r0, [sp]
.Ltmp146:
	.loc	3 366 8 is_stmt 0               @ lvgl/src/lv_misc/lv_ll.c:366:8
	cbnz	r0, .LBB14_11
	b	.LBB14_10
.LBB14_10:
.Ltmp147:
	.loc	3 366 39                        @ lvgl/src/lv_misc/lv_ll.c:366:39
	ldr	r0, [sp, #8]
	.loc	3 366 26                        @ lvgl/src/lv_misc/lv_ll.c:366:26
	ldr	r1, [sp, #12]
	.loc	3 366 37                        @ lvgl/src/lv_misc/lv_ll.c:366:37
	str	r0, [r1, #4]
	.loc	3 366 26                        @ lvgl/src/lv_misc/lv_ll.c:366:26
	b	.LBB14_11
.Ltmp148:
.LBB14_11:
	.loc	3 367 1 is_stmt 1               @ lvgl/src/lv_misc/lv_ll.c:367:1
	add	sp, #16
	pop	{r7, pc}
.Ltmp149:
.Lfunc_end14:
	.size	_lv_ll_move_before, .Lfunc_end14-_lv_ll_move_before
	.cfi_endproc
	.cantunwind
	.fnend
                                        @ -- End function
	.section	.text._lv_ll_is_empty,"ax",%progbits
	.hidden	_lv_ll_is_empty                 @ -- Begin function _lv_ll_is_empty
	.globl	_lv_ll_is_empty
	.p2align	3
	.type	_lv_ll_is_empty,%function
	.code	16                              @ @_lv_ll_is_empty
	.thumb_func
_lv_ll_is_empty:
.Lfunc_begin15:
	.loc	3 375 0                         @ lvgl/src/lv_misc/lv_ll.c:375:0
	.fnstart
	.cfi_startproc
@ %bb.0:
	.pad	#8
	sub	sp, #8
	.cfi_def_cfa_offset 8
	str	r0, [sp]
.Ltmp150:
	.loc	3 376 8 prologue_end            @ lvgl/src/lv_misc/lv_ll.c:376:8
	ldr	r0, [sp]
.Ltmp151:
	.loc	3 376 8 is_stmt 0               @ lvgl/src/lv_misc/lv_ll.c:376:8
	cbnz	r0, .LBB15_2
	b	.LBB15_1
.LBB15_1:
	.loc	3 0 8                           @ lvgl/src/lv_misc/lv_ll.c:0:8
	movs	r0, #1
.Ltmp152:
	.loc	3 376 22                        @ lvgl/src/lv_misc/lv_ll.c:376:22
	strb.w	r0, [sp, #7]
	b	.LBB15_6
.Ltmp153:
.LBB15_2:
	.loc	3 378 8 is_stmt 1               @ lvgl/src/lv_misc/lv_ll.c:378:8
	ldr	r0, [sp]
	.loc	3 378 14 is_stmt 0              @ lvgl/src/lv_misc/lv_ll.c:378:14
	ldr	r0, [r0, #4]
	.loc	3 378 27                        @ lvgl/src/lv_misc/lv_ll.c:378:27
	cbnz	r0, .LBB15_5
	b	.LBB15_3
.LBB15_3:
	.loc	3 378 30                        @ lvgl/src/lv_misc/lv_ll.c:378:30
	ldr	r0, [sp]
	.loc	3 378 36                        @ lvgl/src/lv_misc/lv_ll.c:378:36
	ldr	r0, [r0, #8]
.Ltmp154:
	.loc	3 378 8                         @ lvgl/src/lv_misc/lv_ll.c:378:8
	cbnz	r0, .LBB15_5
	b	.LBB15_4
.LBB15_4:
	.loc	3 0 8                           @ lvgl/src/lv_misc/lv_ll.c:0:8
	movs	r0, #1
.Ltmp155:
	.loc	3 378 50                        @ lvgl/src/lv_misc/lv_ll.c:378:50
	strb.w	r0, [sp, #7]
	b	.LBB15_6
.Ltmp156:
.LBB15_5:
	.loc	3 0 50                          @ lvgl/src/lv_misc/lv_ll.c:0:50
	movs	r0, #0
	.loc	3 380 5 is_stmt 1               @ lvgl/src/lv_misc/lv_ll.c:380:5
	strb.w	r0, [sp, #7]
	b	.LBB15_6
.LBB15_6:
	.loc	3 381 1                         @ lvgl/src/lv_misc/lv_ll.c:381:1
	ldrb.w	r0, [sp, #7]
	add	sp, #8
	bx	lr
.Ltmp157:
.Lfunc_end15:
	.size	_lv_ll_is_empty, .Lfunc_end15-_lv_ll_is_empty
	.cfi_endproc
	.cantunwind
	.fnend
                                        @ -- End function
	.section	".note.GNU-stack","",%progbits
	.eabi_attribute	30, 6	@ Tag_ABI_optimization_goals
	.ARM_attribute	16, 1	@ Tag_AV_eba