	.text
	.syntax unified
	.eabi_attribute	67, "2.09"	@ Tag_conformance
	.cpu	cortex-m7
	.eabi_attribute	6, 13	@ Tag_CPU_arch
	.eabi_attribute	7, 77	@ Tag_CPU_arch_profile
	.eabi_attribute	8, 0	@ Tag_ARM_ISA_use
	.eabi_attribute	9, 2	@ Tag_THUMB_ISA_use
	.fpu	fpv5-d16
	.eabi_attribute	36, 1	@ Tag_FP_HP_extension
	.eabi_attribute	34, 1	@ Tag_CPU_unaligned_access
	.eabi_attribute	17, 1	@ Tag_ABI_PCS_GOT_use
	.eabi_attribute	20, 2	@ Tag_ABI_FP_denormal
	.eabi_attribute	21, 0	@ Tag_ABI_FP_exceptions
	.eabi_attribute	23, 1	@ Tag_ABI_FP_number_model
	.eabi_attribute	24, 1	@ Tag_ABI_align_needed
	.eabi_attribute	25, 1	@ Tag_ABI_align_preserved
	.eabi_attribute	28, 1	@ Tag_ABI_VFP_args
	.eabi_attribute	38, 1	@ Tag_ABI_FP_16bit_format
	.eabi_attribute	18, 2	@ Tag_ABI_PCS_wchar_t
	.eabi_attribute	26, 1	@ Tag_ABI_enum_size
	.eabi_attribute	14, 0	@ Tag_ABI_PCS_R9_use
	.file	"lv_line.c"
	.file	1 "D:\\Keil_v5\\ARM\\ARMCLANG\\Bin\\..\\include" "stdint.h"
	.file	2 "E:\\Smart-access-control\\Hardware\\CODE" "lvgl/src/lv_widgets/../lv_core/../lv_draw/../lv_misc/lv_types.h"
	.file	3 "E:\\Smart-access-control\\Hardware\\CODE" "lvgl/src/lv_widgets/../lv_themes/../lv_core/lv_obj.h"
	.file	4 "E:\\Smart-access-control\\Hardware\\CODE" "lvgl/src/lv_widgets/../lv_core/../lv_font/../lv_misc/lv_ll.h"
	.file	5 "E:\\Smart-access-control\\Hardware\\CODE" "./lvgl/src/lv_conf.h"
	.file	6 "E:\\Smart-access-control\\Hardware\\CODE" "lvgl/src/lv_widgets/../lv_core/../lv_hal/../lv_misc/lv_area.h"
	.file	7 "E:\\Smart-access-control\\Hardware\\CODE" "lvgl/src/lv_widgets/../lv_themes/../lv_core/lv_style.h"
	.file	8 "E:\\Smart-access-control\\Hardware\\CODE" "lvgl/src/lv_widgets/../lv_core/../lv_hal/lv_hal_indev.h"
	.file	9 "E:\\Smart-access-control\\Hardware\\CODE" "lvgl/src/lv_widgets/../lv_core/../lv_draw/../lv_misc/lv_bidi.h"
	.file	10 "E:\\Smart-access-control\\Hardware\\CODE" "lvgl/src/lv_widgets/lv_line.c"
	.file	11 "E:\\Smart-access-control\\Hardware\\CODE" "lvgl/src/lv_widgets/../lv_themes/lv_theme.h"
	.file	12 "E:\\Smart-access-control\\Hardware\\CODE" "lvgl/src/lv_widgets/lv_line.h"
	.section	.text.lv_line_create,"ax",%progbits
	.hidden	lv_line_create                  @ -- Begin function lv_line_create
	.globl	lv_line_create
	.p2align	3
	.type	lv_line_create,%function
	.code	16                              @ @lv_line_create
	.thumb_func
lv_line_create:
.Lfunc_begin0:
	.loc	10 54 0                         @ lvgl/src/lv_widgets/lv_line.c:54:0
	.fnstart
	.cfi_sections .debug_frame
	.cfi_startproc
@ %bb.0:
	.save	{r7, lr}
	push	{r7, lr}
	.cfi_def_cfa_offset 8
	.cfi_offset lr, -4
	.cfi_offset r7, -8
	.pad	#40
	sub	sp, #40
	.cfi_def_cfa_offset 48
	str	r0, [sp, #32]
	str	r1, [sp, #28]
.Ltmp0:
	.loc	10 58 37 prologue_end           @ lvgl/src/lv_widgets/lv_line.c:58:37
	ldr	r0, [sp, #32]
	.loc	10 58 42 is_stmt 0              @ lvgl/src/lv_widgets/lv_line.c:58:42
	ldr	r1, [sp, #28]
	.loc	10 58 23                        @ lvgl/src/lv_widgets/lv_line.c:58:23
	bl	lv_obj_create
	.loc	10 58 16                        @ lvgl/src/lv_widgets/lv_line.c:58:16
	str	r0, [sp, #24]
	.loc	10 59 5 is_stmt 1               @ lvgl/src/lv_widgets/lv_line.c:59:5
	b	.LBB0_1
.LBB0_1:
.Ltmp1:
	.loc	10 59 5 is_stmt 0               @ lvgl/src/lv_widgets/lv_line.c:59:5
	ldr	r0, [sp, #24]
	bl	lv_debug_check_null
.Ltmp2:
	.loc	10 59 5                         @ lvgl/src/lv_widgets/lv_line.c:59:5
	cbnz	r0, .LBB0_4
	b	.LBB0_2
.LBB0_2:
.Ltmp3:
	.loc	10 59 5                         @ lvgl/src/lv_widgets/lv_line.c:59:5
	ldr	r2, [sp, #24]
	movw	r0, :lower16:.L.str
	movt	r0, :upper16:.L.str
	movs	r3, #0
	bl	lv_debug_log_error
	b	.LBB0_3
.LBB0_3:                                @ =>This Inner Loop Header: Depth=1
	b	.LBB0_3
.Ltmp4:
.LBB0_4:
	.loc	10 59 5                         @ lvgl/src/lv_widgets/lv_line.c:59:5
	b	.LBB0_5
.Ltmp5:
.LBB0_5:
	.loc	10 60 8 is_stmt 1               @ lvgl/src/lv_widgets/lv_line.c:60:8
	ldr	r0, [sp, #24]
.Ltmp6:
	.loc	10 60 8 is_stmt 0               @ lvgl/src/lv_widgets/lv_line.c:60:8
	cbnz	r0, .LBB0_7
	b	.LBB0_6
.LBB0_6:
	.loc	10 0 8                          @ lvgl/src/lv_widgets/lv_line.c:0:8
	movs	r0, #0
.Ltmp7:
	.loc	10 60 22                        @ lvgl/src/lv_widgets/lv_line.c:60:22
	str	r0, [sp, #36]
	b	.LBB0_20
.Ltmp8:
.LBB0_7:
	.loc	10 62 8 is_stmt 1               @ lvgl/src/lv_widgets/lv_line.c:62:8
	movw	r0, :lower16:ancestor_signal
	movt	r0, :upper16:ancestor_signal
	ldr	r0, [r0]
.Ltmp9:
	.loc	10 62 8 is_stmt 0               @ lvgl/src/lv_widgets/lv_line.c:62:8
	cbnz	r0, .LBB0_9
	b	.LBB0_8
.LBB0_8:
.Ltmp10:
	.loc	10 62 72                        @ lvgl/src/lv_widgets/lv_line.c:62:72
	ldr	r0, [sp, #24]
	.loc	10 62 51                        @ lvgl/src/lv_widgets/lv_line.c:62:51
	bl	lv_obj_get_signal_cb
	.loc	10 62 49                        @ lvgl/src/lv_widgets/lv_line.c:62:49
	movw	r1, :lower16:ancestor_signal
	movt	r1, :upper16:ancestor_signal
	str	r0, [r1]
	.loc	10 62 33                        @ lvgl/src/lv_widgets/lv_line.c:62:33
	b	.LBB0_9
.Ltmp11:
.LBB0_9:
	.loc	10 65 52 is_stmt 1              @ lvgl/src/lv_widgets/lv_line.c:65:52
	ldr	r0, [sp, #24]
	movs	r1, #8
	.loc	10 65 27 is_stmt 0              @ lvgl/src/lv_widgets/lv_line.c:65:27
	bl	lv_obj_allocate_ext_attr
	.loc	10 65 21                        @ lvgl/src/lv_widgets/lv_line.c:65:21
	str	r0, [sp, #20]
	.loc	10 66 5 is_stmt 1               @ lvgl/src/lv_widgets/lv_line.c:66:5
	b	.LBB0_10
.LBB0_10:
.Ltmp12:
	.loc	10 66 5 is_stmt 0               @ lvgl/src/lv_widgets/lv_line.c:66:5
	ldr	r0, [sp, #20]
	bl	lv_debug_check_null
.Ltmp13:
	.loc	10 66 5                         @ lvgl/src/lv_widgets/lv_line.c:66:5
	cbnz	r0, .LBB0_13
	b	.LBB0_11
.LBB0_11:
.Ltmp14:
	.loc	10 66 5                         @ lvgl/src/lv_widgets/lv_line.c:66:5
	ldr	r2, [sp, #20]
	movw	r0, :lower16:.L.str
	movt	r0, :upper16:.L.str
	movs	r3, #0
	bl	lv_debug_log_error
	b	.LBB0_12
.LBB0_12:                               @ =>This Inner Loop Header: Depth=1
	b	.LBB0_12
.Ltmp15:
.LBB0_13:
	.loc	10 66 5                         @ lvgl/src/lv_widgets/lv_line.c:66:5
	b	.LBB0_14
.Ltmp16:
.LBB0_14:
	.loc	10 67 8 is_stmt 1               @ lvgl/src/lv_widgets/lv_line.c:67:8
	ldr	r0, [sp, #20]
.Ltmp17:
	.loc	10 67 8 is_stmt 0               @ lvgl/src/lv_widgets/lv_line.c:67:8
	cbnz	r0, .LBB0_16
	b	.LBB0_15
.LBB0_15:
.Ltmp18:
	.loc	10 68 20 is_stmt 1              @ lvgl/src/lv_widgets/lv_line.c:68:20
	ldr	r0, [sp, #24]
	.loc	10 68 9 is_stmt 0               @ lvgl/src/lv_widgets/lv_line.c:68:9
	bl	lv_obj_del
	movs	r0, #0
	.loc	10 69 9 is_stmt 1               @ lvgl/src/lv_widgets/lv_line.c:69:9
	str	r0, [sp, #36]
	b	.LBB0_20
.Ltmp19:
.LBB0_16:
	.loc	10 72 5                         @ lvgl/src/lv_widgets/lv_line.c:72:5
	ldr	r1, [sp, #20]
	movs	r0, #0
	.loc	10 72 22 is_stmt 0              @ lvgl/src/lv_widgets/lv_line.c:72:22
	strh	r0, [r1, #4]
	.loc	10 73 5 is_stmt 1               @ lvgl/src/lv_widgets/lv_line.c:73:5
	ldr	r1, [sp, #20]
	.loc	10 73 22 is_stmt 0              @ lvgl/src/lv_widgets/lv_line.c:73:22
	str	r0, [r1]
	.loc	10 74 5 is_stmt 1               @ lvgl/src/lv_widgets/lv_line.c:74:5
	ldr	r1, [sp, #20]
	.loc	10 74 22 is_stmt 0              @ lvgl/src/lv_widgets/lv_line.c:74:22
	ldrb	r0, [r1, #6]
	orr	r0, r0, #1
	strb	r0, [r1, #6]
	.loc	10 75 5 is_stmt 1               @ lvgl/src/lv_widgets/lv_line.c:75:5
	ldr	r1, [sp, #20]
	.loc	10 75 22 is_stmt 0              @ lvgl/src/lv_widgets/lv_line.c:75:22
	ldrb	r0, [r1, #6]
	and	r0, r0, #253
	strb	r0, [r1, #6]
	.loc	10 77 26 is_stmt 1              @ lvgl/src/lv_widgets/lv_line.c:77:26
	ldr	r0, [sp, #24]
	.loc	10 77 5 is_stmt 0               @ lvgl/src/lv_widgets/lv_line.c:77:5
	movw	r1, :lower16:lv_line_design
	movt	r1, :upper16:lv_line_design
	bl	lv_obj_set_design_cb
	.loc	10 78 26 is_stmt 1              @ lvgl/src/lv_widgets/lv_line.c:78:26
	ldr	r0, [sp, #24]
	.loc	10 78 5 is_stmt 0               @ lvgl/src/lv_widgets/lv_line.c:78:5
	movw	r1, :lower16:lv_line_signal
	movt	r1, :upper16:lv_line_signal
	bl	lv_obj_set_signal_cb
.Ltmp20:
	.loc	10 81 8 is_stmt 1               @ lvgl/src/lv_widgets/lv_line.c:81:8
	ldr	r0, [sp, #28]
.Ltmp21:
	.loc	10 81 8 is_stmt 0               @ lvgl/src/lv_widgets/lv_line.c:81:8
	cbnz	r0, .LBB0_18
	b	.LBB0_17
.LBB0_17:
.Ltmp22:
	.loc	10 82 25 is_stmt 1              @ lvgl/src/lv_widgets/lv_line.c:82:25
	ldr	r0, [sp, #24]
	movs	r2, #130
	.loc	10 82 9 is_stmt 0               @ lvgl/src/lv_widgets/lv_line.c:82:9
	mov	r1, r2
	bl	lv_obj_set_size
	.loc	10 85 26 is_stmt 1              @ lvgl/src/lv_widgets/lv_line.c:85:26
	ldr	r0, [sp, #24]
	movs	r1, #0
	.loc	10 85 9 is_stmt 0               @ lvgl/src/lv_widgets/lv_line.c:85:9
	bl	lv_obj_set_click
	.loc	10 87 24 is_stmt 1              @ lvgl/src/lv_widgets/lv_line.c:87:24
	ldr	r0, [sp, #24]
	movs	r1, #20
	.loc	10 87 9 is_stmt 0               @ lvgl/src/lv_widgets/lv_line.c:87:9
	bl	lv_theme_apply
	.loc	10 88 5 is_stmt 1               @ lvgl/src/lv_widgets/lv_line.c:88:5
	b	.LBB0_19
.Ltmp23:
.LBB0_18:
	.loc	10 91 56                        @ lvgl/src/lv_widgets/lv_line.c:91:56
	ldr	r0, [sp, #28]
	.loc	10 91 36 is_stmt 0              @ lvgl/src/lv_widgets/lv_line.c:91:36
	bl	lv_obj_get_ext_attr
	.loc	10 91 25                        @ lvgl/src/lv_widgets/lv_line.c:91:25
	str	r0, [sp, #16]
	.loc	10 92 31 is_stmt 1              @ lvgl/src/lv_widgets/lv_line.c:92:31
	ldr	r0, [sp, #24]
	.loc	10 92 59 is_stmt 0              @ lvgl/src/lv_widgets/lv_line.c:92:59
	str	r0, [sp, #4]                    @ 4-byte Spill
	ldr	r0, [sp, #28]
	.loc	10 92 37                        @ lvgl/src/lv_widgets/lv_line.c:92:37
	bl	lv_line_get_auto_size
	mov	r1, r0
	.loc	10 92 9                         @ lvgl/src/lv_widgets/lv_line.c:92:9
	ldr	r0, [sp, #4]                    @ 4-byte Reload
	bl	lv_line_set_auto_size
	.loc	10 93 30 is_stmt 1              @ lvgl/src/lv_widgets/lv_line.c:93:30
	ldr	r0, [sp, #24]
	.loc	10 93 57 is_stmt 0              @ lvgl/src/lv_widgets/lv_line.c:93:57
	str	r0, [sp, #8]                    @ 4-byte Spill
	ldr	r0, [sp, #28]
	.loc	10 93 36                        @ lvgl/src/lv_widgets/lv_line.c:93:36
	bl	lv_line_get_y_invert
	mov	r1, r0
	.loc	10 93 9                         @ lvgl/src/lv_widgets/lv_line.c:93:9
	ldr	r0, [sp, #8]                    @ 4-byte Reload
	bl	lv_line_set_y_invert
	.loc	10 94 31 is_stmt 1              @ lvgl/src/lv_widgets/lv_line.c:94:31
	ldr	r0, [sp, #24]
	.loc	10 94 59 is_stmt 0              @ lvgl/src/lv_widgets/lv_line.c:94:59
	str	r0, [sp, #12]                   @ 4-byte Spill
	ldr	r0, [sp, #28]
	.loc	10 94 37                        @ lvgl/src/lv_widgets/lv_line.c:94:37
	bl	lv_line_get_auto_size
	mov	r1, r0
	.loc	10 94 9                         @ lvgl/src/lv_widgets/lv_line.c:94:9
	ldr	r0, [sp, #12]                   @ 4-byte Reload
	bl	lv_line_set_auto_size
	.loc	10 95 28 is_stmt 1              @ lvgl/src/lv_widgets/lv_line.c:95:28
	ldr	r0, [sp, #24]
	.loc	10 95 34 is_stmt 0              @ lvgl/src/lv_widgets/lv_line.c:95:34
	ldr	r2, [sp, #16]
	.loc	10 95 44                        @ lvgl/src/lv_widgets/lv_line.c:95:44
	ldr	r1, [r2]
	.loc	10 95 67                        @ lvgl/src/lv_widgets/lv_line.c:95:67
	ldrh	r2, [r2, #4]
	.loc	10 95 9                         @ lvgl/src/lv_widgets/lv_line.c:95:9
	bl	lv_line_set_points
	.loc	10 98 30 is_stmt 1              @ lvgl/src/lv_widgets/lv_line.c:98:30
	ldr	r0, [sp, #24]
	movs	r2, #255
	.loc	10 98 9 is_stmt 0               @ lvgl/src/lv_widgets/lv_line.c:98:9
	mov	r1, r2
	bl	lv_obj_refresh_style
	b	.LBB0_19
.Ltmp24:
.LBB0_19:
	.loc	10 103 12 is_stmt 1             @ lvgl/src/lv_widgets/lv_line.c:103:12
	ldr	r0, [sp, #24]
	.loc	10 103 5 is_stmt 0              @ lvgl/src/lv_widgets/lv_line.c:103:5
	str	r0, [sp, #36]
	b	.LBB0_20
.LBB0_20:
	.loc	10 104 1 is_stmt 1              @ lvgl/src/lv_widgets/lv_line.c:104:1
	ldr	r0, [sp, #36]
	add	sp, #40
	pop	{r7, pc}
.Ltmp25:
.Lfunc_end0:
	.size	lv_line_create, .Lfunc_end0-lv_line_create
	.cfi_endproc
	.cantunwind
	.fnend
                                        @ -- End function
	.section	.text.lv_line_design,"ax",%progbits
	.p2align	3                               @ -- Begin function lv_line_design
	.type	lv_line_design,%function
	.code	16                              @ @lv_line_design
	.thumb_func
lv_line_design:
.Lfunc_begin1:
	.loc	10 226 0                        @ lvgl/src/lv_widgets/lv_line.c:226:0
	.fnstart
	.cfi_startproc
@ %bb.0:
	.save	{r7, lr}
	push	{r7, lr}
	.cfi_def_cfa_offset 8
	.cfi_offset lr, -4
	.cfi_offset r7, -8
	.pad	#64
	sub	sp, #64
	.cfi_def_cfa_offset 72
                                        @ kill: def $r3 killed $r2
	str	r0, [sp, #56]
	str	r1, [sp, #52]
	strb.w	r2, [sp, #51]
.Ltmp26:
	.loc	10 228 8 prologue_end           @ lvgl/src/lv_widgets/lv_line.c:228:8
	ldrb.w	r0, [sp, #51]
.Ltmp27:
	.loc	10 228 8 is_stmt 0              @ lvgl/src/lv_widgets/lv_line.c:228:8
	cmp	r0, #2
	bne	.LBB1_2
	b	.LBB1_1
.LBB1_1:
	.loc	10 0 8                          @ lvgl/src/lv_widgets/lv_line.c:0:8
	movs	r0, #2
.Ltmp28:
	.loc	10 229 9 is_stmt 1              @ lvgl/src/lv_widgets/lv_line.c:229:9
	strb.w	r0, [sp, #63]
	b	.LBB1_16
.LBB1_2:
.Ltmp29:
	.loc	10 230 13                       @ lvgl/src/lv_widgets/lv_line.c:230:13
	ldrb.w	r0, [sp, #51]
.Ltmp30:
	.loc	10 230 13 is_stmt 0             @ lvgl/src/lv_widgets/lv_line.c:230:13
	cmp	r0, #0
	bne.w	.LBB1_14
	b	.LBB1_3
.LBB1_3:
.Ltmp31:
	.loc	10 231 51 is_stmt 1             @ lvgl/src/lv_widgets/lv_line.c:231:51
	ldr	r0, [sp, #56]
	.loc	10 231 31 is_stmt 0             @ lvgl/src/lv_widgets/lv_line.c:231:31
	bl	lv_obj_get_ext_attr
	.loc	10 231 25                       @ lvgl/src/lv_widgets/lv_line.c:231:25
	str	r0, [sp, #44]
.Ltmp32:
	.loc	10 233 12 is_stmt 1             @ lvgl/src/lv_widgets/lv_line.c:233:12
	ldr	r0, [sp, #44]
	.loc	10 233 17 is_stmt 0             @ lvgl/src/lv_widgets/lv_line.c:233:17
	ldrh	r0, [r0, #4]
	.loc	10 233 32                       @ lvgl/src/lv_widgets/lv_line.c:233:32
	cbz	r0, .LBB1_5
	b	.LBB1_4
.LBB1_4:
	.loc	10 233 35                       @ lvgl/src/lv_widgets/lv_line.c:233:35
	ldr	r0, [sp, #44]
	.loc	10 233 40                       @ lvgl/src/lv_widgets/lv_line.c:233:40
	ldr	r0, [r0]
.Ltmp33:
	.loc	10 233 12                       @ lvgl/src/lv_widgets/lv_line.c:233:12
	cbnz	r0, .LBB1_6
	b	.LBB1_5
.LBB1_5:
	.loc	10 0 12                         @ lvgl/src/lv_widgets/lv_line.c:0:12
	movs	r0, #0
.Ltmp34:
	.loc	10 233 61                       @ lvgl/src/lv_widgets/lv_line.c:233:61
	strb.w	r0, [sp, #63]
	b	.LBB1_16
.Ltmp35:
.LBB1_6:
	.loc	10 236 27 is_stmt 1             @ lvgl/src/lv_widgets/lv_line.c:236:27
	ldr	r0, [sp, #56]
	add	r1, sp, #36
	.loc	10 236 9 is_stmt 0              @ lvgl/src/lv_widgets/lv_line.c:236:9
	bl	lv_obj_get_coords
	.loc	10 237 33 is_stmt 1             @ lvgl/src/lv_widgets/lv_line.c:237:33
	ldrh.w	r0, [sp, #36]
	.loc	10 237 20 is_stmt 0             @ lvgl/src/lv_widgets/lv_line.c:237:20
	strh.w	r0, [sp, #34]
	.loc	10 238 33 is_stmt 1             @ lvgl/src/lv_widgets/lv_line.c:238:33
	ldrh.w	r0, [sp, #38]
	.loc	10 238 20 is_stmt 0             @ lvgl/src/lv_widgets/lv_line.c:238:20
	strh.w	r0, [sp, #32]
	.loc	10 241 42 is_stmt 1             @ lvgl/src/lv_widgets/lv_line.c:241:42
	ldr	r0, [sp, #56]
	.loc	10 241 24 is_stmt 0             @ lvgl/src/lv_widgets/lv_line.c:241:24
	bl	lv_obj_get_height
	.loc	10 241 20                       @ lvgl/src/lv_widgets/lv_line.c:241:20
	strh.w	r0, [sp, #22]
	add	r0, sp, #8
	.loc	10 245 9 is_stmt 1              @ lvgl/src/lv_widgets/lv_line.c:245:9
	str	r0, [sp]                        @ 4-byte Spill
	bl	lv_draw_line_dsc_init
	ldr	r2, [sp]                        @ 4-byte Reload
	.loc	10 246 35                       @ lvgl/src/lv_widgets/lv_line.c:246:35
	ldr	r0, [sp, #56]
	movs	r1, #0
	.loc	10 246 9 is_stmt 0              @ lvgl/src/lv_widgets/lv_line.c:246:9
	str	r1, [sp, #4]                    @ 4-byte Spill
	bl	lv_obj_init_draw_line_dsc
	ldr	r0, [sp, #4]                    @ 4-byte Reload
.Ltmp36:
	.loc	10 249 15 is_stmt 1             @ lvgl/src/lv_widgets/lv_line.c:249:15
	strh.w	r0, [sp, #20]
	.loc	10 249 13 is_stmt 0             @ lvgl/src/lv_widgets/lv_line.c:249:13
	b	.LBB1_7
.LBB1_7:                                @ =>This Inner Loop Header: Depth=1
.Ltmp37:
	.loc	10 249 20                       @ lvgl/src/lv_widgets/lv_line.c:249:20
	ldrh.w	r0, [sp, #20]
	.loc	10 249 24                       @ lvgl/src/lv_widgets/lv_line.c:249:24
	ldr	r1, [sp, #44]
	.loc	10 249 29                       @ lvgl/src/lv_widgets/lv_line.c:249:29
	ldrh	r1, [r1, #4]
	.loc	10 249 39                       @ lvgl/src/lv_widgets/lv_line.c:249:39
	subs	r1, #1
.Ltmp38:
	.loc	10 249 9                        @ lvgl/src/lv_widgets/lv_line.c:249:9
	cmp	r0, r1
	bge	.LBB1_13
	b	.LBB1_8
.LBB1_8:                                @   in Loop: Header=BB1_7 Depth=1
.Ltmp39:
	.loc	10 251 20 is_stmt 1             @ lvgl/src/lv_widgets/lv_line.c:251:20
	ldr	r0, [sp, #44]
	.loc	10 251 25 is_stmt 0             @ lvgl/src/lv_widgets/lv_line.c:251:25
	ldr	r0, [r0]
	.loc	10 251 37                       @ lvgl/src/lv_widgets/lv_line.c:251:37
	ldrh.w	r1, [sp, #20]
	.loc	10 251 20                       @ lvgl/src/lv_widgets/lv_line.c:251:20
	ldrh.w	r0, [r0, r1, lsl #2]
	.loc	10 251 44                       @ lvgl/src/lv_widgets/lv_line.c:251:44
	ldrh.w	r1, [sp, #34]
	.loc	10 251 42                       @ lvgl/src/lv_widgets/lv_line.c:251:42
	add	r0, r1
	.loc	10 251 18                       @ lvgl/src/lv_widgets/lv_line.c:251:18
	strh.w	r0, [sp, #28]
	.loc	10 252 20 is_stmt 1             @ lvgl/src/lv_widgets/lv_line.c:252:20
	ldr	r0, [sp, #44]
	.loc	10 252 25 is_stmt 0             @ lvgl/src/lv_widgets/lv_line.c:252:25
	ldr	r0, [r0]
	.loc	10 252 37                       @ lvgl/src/lv_widgets/lv_line.c:252:37
	ldrh.w	r1, [sp, #20]
	.loc	10 252 20                       @ lvgl/src/lv_widgets/lv_line.c:252:20
	add.w	r0, r0, r1, lsl #2
	ldrh	r0, [r0, #4]
	.loc	10 252 48                       @ lvgl/src/lv_widgets/lv_line.c:252:48
	ldrh.w	r1, [sp, #34]
	.loc	10 252 46                       @ lvgl/src/lv_widgets/lv_line.c:252:46
	add	r0, r1
	.loc	10 252 18                       @ lvgl/src/lv_widgets/lv_line.c:252:18
	strh.w	r0, [sp, #24]
.Ltmp40:
	.loc	10 254 16 is_stmt 1             @ lvgl/src/lv_widgets/lv_line.c:254:16
	ldr	r0, [sp, #44]
	.loc	10 254 21 is_stmt 0             @ lvgl/src/lv_widgets/lv_line.c:254:21
	ldrb	r0, [r0, #6]
	lsrs	r0, r0, #1
.Ltmp41:
	.loc	10 254 16                       @ lvgl/src/lv_widgets/lv_line.c:254:16
	lsls	r0, r0, #31
	cbnz	r0, .LBB1_10
	b	.LBB1_9
.LBB1_9:                                @   in Loop: Header=BB1_7 Depth=1
.Ltmp42:
	.loc	10 255 24 is_stmt 1             @ lvgl/src/lv_widgets/lv_line.c:255:24
	ldr	r0, [sp, #44]
	.loc	10 255 29 is_stmt 0             @ lvgl/src/lv_widgets/lv_line.c:255:29
	ldr	r0, [r0]
	.loc	10 255 41                       @ lvgl/src/lv_widgets/lv_line.c:255:41
	ldrh.w	r1, [sp, #20]
	.loc	10 255 24                       @ lvgl/src/lv_widgets/lv_line.c:255:24
	add.w	r0, r0, r1, lsl #2
	ldrh	r0, [r0, #2]
	.loc	10 255 48                       @ lvgl/src/lv_widgets/lv_line.c:255:48
	ldrh.w	r1, [sp, #32]
	.loc	10 255 46                       @ lvgl/src/lv_widgets/lv_line.c:255:46
	add	r0, r1
	.loc	10 255 22                       @ lvgl/src/lv_widgets/lv_line.c:255:22
	strh.w	r0, [sp, #30]
	.loc	10 256 24 is_stmt 1             @ lvgl/src/lv_widgets/lv_line.c:256:24
	ldr	r0, [sp, #44]
	.loc	10 256 29 is_stmt 0             @ lvgl/src/lv_widgets/lv_line.c:256:29
	ldr	r0, [r0]
	.loc	10 256 41                       @ lvgl/src/lv_widgets/lv_line.c:256:41
	ldrh.w	r1, [sp, #20]
	.loc	10 256 24                       @ lvgl/src/lv_widgets/lv_line.c:256:24
	add.w	r0, r0, r1, lsl #2
	ldrh	r0, [r0, #6]
	.loc	10 256 52                       @ lvgl/src/lv_widgets/lv_line.c:256:52
	ldrh.w	r1, [sp, #32]
	.loc	10 256 50                       @ lvgl/src/lv_widgets/lv_line.c:256:50
	add	r0, r1
	.loc	10 256 22                       @ lvgl/src/lv_widgets/lv_line.c:256:22
	strh.w	r0, [sp, #26]
	.loc	10 257 13 is_stmt 1             @ lvgl/src/lv_widgets/lv_line.c:257:13
	b	.LBB1_11
.Ltmp43:
.LBB1_10:                               @   in Loop: Header=BB1_7 Depth=1
	.loc	10 259 24                       @ lvgl/src/lv_widgets/lv_line.c:259:24
	ldrh.w	r0, [sp, #22]
	.loc	10 259 28 is_stmt 0             @ lvgl/src/lv_widgets/lv_line.c:259:28
	ldr	r1, [sp, #44]
	.loc	10 259 33                       @ lvgl/src/lv_widgets/lv_line.c:259:33
	ldr	r1, [r1]
	.loc	10 259 45                       @ lvgl/src/lv_widgets/lv_line.c:259:45
	ldrh.w	r2, [sp, #20]
	.loc	10 259 28                       @ lvgl/src/lv_widgets/lv_line.c:259:28
	add.w	r1, r1, r2, lsl #2
	ldrh	r1, [r1, #2]
	.loc	10 259 26                       @ lvgl/src/lv_widgets/lv_line.c:259:26
	subs	r0, r0, r1
	.loc	10 259 52                       @ lvgl/src/lv_widgets/lv_line.c:259:52
	ldrh.w	r1, [sp, #32]
	.loc	10 259 50                       @ lvgl/src/lv_widgets/lv_line.c:259:50
	add	r0, r1
	.loc	10 259 22                       @ lvgl/src/lv_widgets/lv_line.c:259:22
	strh.w	r0, [sp, #30]
	.loc	10 260 24 is_stmt 1             @ lvgl/src/lv_widgets/lv_line.c:260:24
	ldrh.w	r0, [sp, #22]
	.loc	10 260 28 is_stmt 0             @ lvgl/src/lv_widgets/lv_line.c:260:28
	ldr	r1, [sp, #44]
	.loc	10 260 33                       @ lvgl/src/lv_widgets/lv_line.c:260:33
	ldr	r1, [r1]
	.loc	10 260 45                       @ lvgl/src/lv_widgets/lv_line.c:260:45
	ldrh.w	r2, [sp, #20]
	.loc	10 260 28                       @ lvgl/src/lv_widgets/lv_line.c:260:28
	add.w	r1, r1, r2, lsl #2
	ldrh	r1, [r1, #6]
	.loc	10 260 26                       @ lvgl/src/lv_widgets/lv_line.c:260:26
	subs	r0, r0, r1
	.loc	10 260 56                       @ lvgl/src/lv_widgets/lv_line.c:260:56
	ldrh.w	r1, [sp, #32]
	.loc	10 260 54                       @ lvgl/src/lv_widgets/lv_line.c:260:54
	add	r0, r1
	.loc	10 260 22                       @ lvgl/src/lv_widgets/lv_line.c:260:22
	strh.w	r0, [sp, #26]
	b	.LBB1_11
.Ltmp44:
.LBB1_11:                               @   in Loop: Header=BB1_7 Depth=1
	.loc	10 262 36 is_stmt 1             @ lvgl/src/lv_widgets/lv_line.c:262:36
	ldr	r2, [sp, #52]
	add	r0, sp, #28
	add	r1, sp, #24
	add	r3, sp, #8
	.loc	10 262 13 is_stmt 0             @ lvgl/src/lv_widgets/lv_line.c:262:13
	bl	lv_draw_line
	.loc	10 263 34 is_stmt 1             @ lvgl/src/lv_widgets/lv_line.c:263:34
	ldrb.w	r0, [sp, #19]
	and	r0, r0, #251
	strb.w	r0, [sp, #19]
	.loc	10 264 9                        @ lvgl/src/lv_widgets/lv_line.c:264:9
	b	.LBB1_12
.Ltmp45:
.LBB1_12:                               @   in Loop: Header=BB1_7 Depth=1
	.loc	10 249 45                       @ lvgl/src/lv_widgets/lv_line.c:249:45
	ldrh.w	r0, [sp, #20]
	adds	r0, #1
	strh.w	r0, [sp, #20]
	.loc	10 249 9 is_stmt 0              @ lvgl/src/lv_widgets/lv_line.c:249:9
	b	.LBB1_7
.Ltmp46:
.LBB1_13:
	.loc	10 266 5 is_stmt 1              @ lvgl/src/lv_widgets/lv_line.c:266:5
	b	.LBB1_14
.Ltmp47:
.LBB1_14:
	.loc	10 0 5 is_stmt 0                @ lvgl/src/lv_widgets/lv_line.c:0:5
	b	.LBB1_15
.LBB1_15:
	movs	r0, #0
	.loc	10 267 5 is_stmt 1              @ lvgl/src/lv_widgets/lv_line.c:267:5
	strb.w	r0, [sp, #63]
	b	.LBB1_16
.LBB1_16:
	.loc	10 268 1                        @ lvgl/src/lv_widgets/lv_line.c:268:1
	ldrb.w	r0, [sp, #63]
	add	sp, #64
	pop	{r7, pc}
.Ltmp48:
.Lfunc_end1:
	.size	lv_line_design, .Lfunc_end1-lv_line_design
	.cfi_endproc
	.cantunwind
	.fnend
                                        @ -- End function
	.section	.text.lv_line_signal,"ax",%progbits
	.p2align	3                               @ -- Begin function lv_line_signal
	.type	lv_line_signal,%function
	.code	16                              @ @lv_line_signal
	.thumb_func
lv_line_signal:
.Lfunc_begin2:
	.loc	10 277 0                        @ lvgl/src/lv_widgets/lv_line.c:277:0
	.fnstart
	.cfi_startproc
@ %bb.0:
	.save	{r7, lr}
	push	{r7, lr}
	.cfi_def_cfa_offset 8
	.cfi_offset lr, -4
	.cfi_offset r7, -8
	.pad	#24
	sub	sp, #24
	.cfi_def_cfa_offset 32
                                        @ kill: def $r3 killed $r1
	str	r0, [sp, #16]
	strb.w	r1, [sp, #15]
	str	r2, [sp, #8]
.Ltmp49:
	.loc	10 281 11 prologue_end          @ lvgl/src/lv_widgets/lv_line.c:281:11
	movw	r0, :lower16:ancestor_signal
	movt	r0, :upper16:ancestor_signal
	ldr	r3, [r0]
	.loc	10 281 27 is_stmt 0             @ lvgl/src/lv_widgets/lv_line.c:281:27
	ldr	r0, [sp, #16]
	.loc	10 281 33                       @ lvgl/src/lv_widgets/lv_line.c:281:33
	ldrb.w	r1, [sp, #15]
	.loc	10 281 39                       @ lvgl/src/lv_widgets/lv_line.c:281:39
	ldr	r2, [sp, #8]
	.loc	10 281 11                       @ lvgl/src/lv_widgets/lv_line.c:281:11
	blx	r3
	.loc	10 281 9                        @ lvgl/src/lv_widgets/lv_line.c:281:9
	strb.w	r0, [sp, #7]
.Ltmp50:
	.loc	10 282 8 is_stmt 1              @ lvgl/src/lv_widgets/lv_line.c:282:8
	ldrb.w	r0, [sp, #7]
.Ltmp51:
	.loc	10 282 8 is_stmt 0              @ lvgl/src/lv_widgets/lv_line.c:282:8
	cmp	r0, #1
	beq	.LBB2_2
	b	.LBB2_1
.LBB2_1:
.Ltmp52:
	.loc	10 282 33                       @ lvgl/src/lv_widgets/lv_line.c:282:33
	ldrb.w	r0, [sp, #7]
	.loc	10 282 26                       @ lvgl/src/lv_widgets/lv_line.c:282:26
	strb.w	r0, [sp, #23]
	b	.LBB2_9
.Ltmp53:
.LBB2_2:
	.loc	10 283 8 is_stmt 1              @ lvgl/src/lv_widgets/lv_line.c:283:8
	ldrb.w	r0, [sp, #15]
.Ltmp54:
	.loc	10 283 8 is_stmt 0              @ lvgl/src/lv_widgets/lv_line.c:283:8
	cmp	r0, #7
	bne	.LBB2_4
	b	.LBB2_3
.LBB2_3:
.Ltmp55:
	.loc	10 283 73                       @ lvgl/src/lv_widgets/lv_line.c:283:73
	ldr	r0, [sp, #8]
	.loc	10 283 43                       @ lvgl/src/lv_widgets/lv_line.c:283:43
	movw	r1, :lower16:.L.str.2
	movt	r1, :upper16:.L.str.2
	bl	lv_obj_handle_get_type_signal
	.loc	10 283 36                       @ lvgl/src/lv_widgets/lv_line.c:283:36
	strb.w	r0, [sp, #23]
	b	.LBB2_9
.Ltmp56:
.LBB2_4:
	.loc	10 285 8 is_stmt 1              @ lvgl/src/lv_widgets/lv_line.c:285:8
	ldrb.w	r0, [sp, #15]
.Ltmp57:
	.loc	10 285 8 is_stmt 0              @ lvgl/src/lv_widgets/lv_line.c:285:8
	cmp	r0, #6
	bne	.LBB2_8
	b	.LBB2_5
.LBB2_5:
.Ltmp58:
	.loc	10 287 65 is_stmt 1             @ lvgl/src/lv_widgets/lv_line.c:287:65
	ldr	r0, [sp, #16]
	movs	r1, #0
	.loc	10 287 37 is_stmt 0             @ lvgl/src/lv_widgets/lv_line.c:287:37
	bl	lv_obj_get_style_line_width
	.loc	10 287 24                       @ lvgl/src/lv_widgets/lv_line.c:287:24
	strh.w	r0, [sp, #4]
.Ltmp59:
	.loc	10 288 12 is_stmt 1             @ lvgl/src/lv_widgets/lv_line.c:288:12
	ldr	r0, [sp, #16]
	.loc	10 288 18 is_stmt 0             @ lvgl/src/lv_widgets/lv_line.c:288:18
	ldrsh.w	r0, [r0, #50]
	.loc	10 288 33                       @ lvgl/src/lv_widgets/lv_line.c:288:33
	ldrsh.w	r1, [sp, #4]
.Ltmp60:
	.loc	10 288 12                       @ lvgl/src/lv_widgets/lv_line.c:288:12
	cmp	r0, r1
	bge	.LBB2_7
	b	.LBB2_6
.LBB2_6:
.Ltmp61:
	.loc	10 288 66                       @ lvgl/src/lv_widgets/lv_line.c:288:66
	ldrh.w	r0, [sp, #4]
	.loc	10 288 45                       @ lvgl/src/lv_widgets/lv_line.c:288:45
	ldr	r1, [sp, #16]
	.loc	10 288 64                       @ lvgl/src/lv_widgets/lv_line.c:288:64
	strh	r0, [r1, #50]
	.loc	10 288 45                       @ lvgl/src/lv_widgets/lv_line.c:288:45
	b	.LBB2_7
.Ltmp62:
.LBB2_7:
	.loc	10 289 5 is_stmt 1              @ lvgl/src/lv_widgets/lv_line.c:289:5
	b	.LBB2_8
.Ltmp63:
.LBB2_8:
	.loc	10 291 12                       @ lvgl/src/lv_widgets/lv_line.c:291:12
	ldrb.w	r0, [sp, #7]
	.loc	10 291 5 is_stmt 0              @ lvgl/src/lv_widgets/lv_line.c:291:5
	strb.w	r0, [sp, #23]
	b	.LBB2_9
.LBB2_9:
	.loc	10 292 1 is_stmt 1              @ lvgl/src/lv_widgets/lv_line.c:292:1
	ldrb.w	r0, [sp, #23]
	add	sp, #24
	pop	{r7, pc}
.Ltmp64:
.Lfunc_end2:
	.size	lv_line_signal, .Lfunc_end2-lv_line_signal
	.cfi_endproc
	.cantunwind
	.fnend
                                        @ -- End function
	.section	.text.lv_line_set_auto_size,"ax",%progbits
	.hidden	lv_line_set_auto_size           @ -- Begin function lv_line_set_auto_size
	.globl	lv_line_set_auto_size
	.p2align	3
	.type	lv_line_set_auto_size,%function
	.code	16                              @ @lv_line_set_auto_size
	.thumb_func
lv_line_set_auto_size:
.Lfunc_begin3:
	.loc	10 148 0                        @ lvgl/src/lv_widgets/lv_line.c:148:0
	.fnstart
	.cfi_startproc
@ %bb.0:
	.save	{r7, lr}
	push	{r7, lr}
	.cfi_def_cfa_offset 8
	.cfi_offset lr, -4
	.cfi_offset r7, -8
	.pad	#16
	sub	sp, #16
	.cfi_def_cfa_offset 24
                                        @ kill: def $r2 killed $r1
	str	r0, [sp, #12]
	strb.w	r1, [sp, #11]
.Ltmp65:
	.loc	10 149 5 prologue_end           @ lvgl/src/lv_widgets/lv_line.c:149:5
	b	.LBB3_1
.LBB3_1:
.Ltmp66:
	.loc	10 149 5 is_stmt 0              @ lvgl/src/lv_widgets/lv_line.c:149:5
	ldr	r0, [sp, #12]
	bl	lv_debug_check_null
.Ltmp67:
	.loc	10 149 5                        @ lvgl/src/lv_widgets/lv_line.c:149:5
	cbnz	r0, .LBB3_4
	b	.LBB3_2
.LBB3_2:
.Ltmp68:
	.loc	10 149 5                        @ lvgl/src/lv_widgets/lv_line.c:149:5
	ldr	r2, [sp, #12]
	movw	r0, :lower16:.L.str.1
	movt	r0, :upper16:.L.str.1
	movs	r3, #0
	bl	lv_debug_log_error
	b	.LBB3_3
.LBB3_3:                                @ =>This Inner Loop Header: Depth=1
	b	.LBB3_3
.Ltmp69:
.LBB3_4:
	.loc	10 149 5                        @ lvgl/src/lv_widgets/lv_line.c:149:5
	b	.LBB3_5
.Ltmp70:
.LBB3_5:
	.loc	10 151 47 is_stmt 1             @ lvgl/src/lv_widgets/lv_line.c:151:47
	ldr	r0, [sp, #12]
	.loc	10 151 27 is_stmt 0             @ lvgl/src/lv_widgets/lv_line.c:151:27
	bl	lv_obj_get_ext_attr
	.loc	10 151 21                       @ lvgl/src/lv_widgets/lv_line.c:151:21
	str	r0, [sp, #4]
.Ltmp71:
	.loc	10 152 8 is_stmt 1              @ lvgl/src/lv_widgets/lv_line.c:152:8
	ldr	r0, [sp, #4]
	.loc	10 152 13 is_stmt 0             @ lvgl/src/lv_widgets/lv_line.c:152:13
	ldrb	r0, [r0, #6]
	.loc	10 152 8                        @ lvgl/src/lv_widgets/lv_line.c:152:8
	and	r0, r0, #1
	.loc	10 152 26                       @ lvgl/src/lv_widgets/lv_line.c:152:26
	ldrb.w	r1, [sp, #11]
	and	r1, r1, #1
.Ltmp72:
	.loc	10 152 8                        @ lvgl/src/lv_widgets/lv_line.c:152:8
	cmp	r0, r1
	bne	.LBB3_7
	b	.LBB3_6
.LBB3_6:
.Ltmp73:
	.loc	10 152 30                       @ lvgl/src/lv_widgets/lv_line.c:152:30
	b	.LBB3_9
.Ltmp74:
.LBB3_7:
	.loc	10 154 22 is_stmt 1             @ lvgl/src/lv_widgets/lv_line.c:154:22
	ldrb.w	r0, [sp, #11]
	and	r2, r0, #1
	.loc	10 154 5 is_stmt 0              @ lvgl/src/lv_widgets/lv_line.c:154:5
	ldr	r1, [sp, #4]
	.loc	10 154 20                       @ lvgl/src/lv_widgets/lv_line.c:154:20
	ldrb	r0, [r1, #6]
	and	r0, r0, #254
	add	r0, r2
	strb	r0, [r1, #6]
.Ltmp75:
	.loc	10 157 8 is_stmt 1              @ lvgl/src/lv_widgets/lv_line.c:157:8
	ldrb.w	r0, [sp, #11]
.Ltmp76:
	.loc	10 157 8 is_stmt 0              @ lvgl/src/lv_widgets/lv_line.c:157:8
	lsls	r0, r0, #31
	cbz	r0, .LBB3_9
	b	.LBB3_8
.LBB3_8:
.Ltmp77:
	.loc	10 157 31                       @ lvgl/src/lv_widgets/lv_line.c:157:31
	ldr	r0, [sp, #12]
	.loc	10 157 37                       @ lvgl/src/lv_widgets/lv_line.c:157:37
	ldr	r2, [sp, #4]
	.loc	10 157 42                       @ lvgl/src/lv_widgets/lv_line.c:157:42
	ldr	r1, [r2]
	.loc	10 157 60                       @ lvgl/src/lv_widgets/lv_line.c:157:60
	ldrh	r2, [r2, #4]
	.loc	10 157 12                       @ lvgl/src/lv_widgets/lv_line.c:157:12
	bl	lv_line_set_points
	b	.LBB3_9
.Ltmp78:
.LBB3_9:
	.loc	10 158 1 is_stmt 1              @ lvgl/src/lv_widgets/lv_line.c:158:1
	add	sp, #16
	pop	{r7, pc}
.Ltmp79:
.Lfunc_end3:
	.size	lv_line_set_auto_size, .Lfunc_end3-lv_line_set_auto_size
	.cfi_endproc
	.cantunwind
	.fnend
                                        @ -- End function
	.section	.text.lv_line_get_auto_size,"ax",%progbits
	.hidden	lv_line_get_auto_size           @ -- Begin function lv_line_get_auto_size
	.globl	lv_line_get_auto_size
	.p2align	3
	.type	lv_line_get_auto_size,%function
	.code	16                              @ @lv_line_get_auto_size
	.thumb_func
lv_line_get_auto_size:
.Lfunc_begin4:
	.loc	10 189 0                        @ lvgl/src/lv_widgets/lv_line.c:189:0
	.fnstart
	.cfi_startproc
@ %bb.0:
	.save	{r7, lr}
	push	{r7, lr}
	.cfi_def_cfa_offset 8
	.cfi_offset lr, -4
	.cfi_offset r7, -8
	.pad	#8
	sub	sp, #8
	.cfi_def_cfa_offset 16
	str	r0, [sp, #4]
.Ltmp80:
	.loc	10 190 5 prologue_end           @ lvgl/src/lv_widgets/lv_line.c:190:5
	b	.LBB4_1
.LBB4_1:
.Ltmp81:
	.loc	10 190 5 is_stmt 0              @ lvgl/src/lv_widgets/lv_line.c:190:5
	ldr	r0, [sp, #4]
	bl	lv_debug_check_null
.Ltmp82:
	.loc	10 190 5                        @ lvgl/src/lv_widgets/lv_line.c:190:5
	cbnz	r0, .LBB4_4
	b	.LBB4_2
.LBB4_2:
.Ltmp83:
	.loc	10 190 5                        @ lvgl/src/lv_widgets/lv_line.c:190:5
	ldr	r2, [sp, #4]
	movw	r0, :lower16:.L.str.1
	movt	r0, :upper16:.L.str.1
	movs	r3, #0
	bl	lv_debug_log_error
	b	.LBB4_3
.LBB4_3:                                @ =>This Inner Loop Header: Depth=1
	b	.LBB4_3
.Ltmp84:
.LBB4_4:
	.loc	10 190 5                        @ lvgl/src/lv_widgets/lv_line.c:190:5
	b	.LBB4_5
.Ltmp85:
.LBB4_5:
	.loc	10 192 47 is_stmt 1             @ lvgl/src/lv_widgets/lv_line.c:192:47
	ldr	r0, [sp, #4]
	.loc	10 192 27 is_stmt 0             @ lvgl/src/lv_widgets/lv_line.c:192:27
	bl	lv_obj_get_ext_attr
	.loc	10 192 21                       @ lvgl/src/lv_widgets/lv_line.c:192:21
	str	r0, [sp]
	.loc	10 194 12 is_stmt 1             @ lvgl/src/lv_widgets/lv_line.c:194:12
	ldr	r0, [sp]
	.loc	10 194 17 is_stmt 0             @ lvgl/src/lv_widgets/lv_line.c:194:17
	ldrb	r0, [r0, #6]
	.loc	10 194 12                       @ lvgl/src/lv_widgets/lv_line.c:194:12
	and	r0, r0, #1
	.loc	10 194 5                        @ lvgl/src/lv_widgets/lv_line.c:194:5
	add	sp, #8
	pop	{r7, pc}
.Ltmp86:
.Lfunc_end4:
	.size	lv_line_get_auto_size, .Lfunc_end4-lv_line_get_auto_size
	.cfi_endproc
	.cantunwind
	.fnend
                                        @ -- End function
	.section	.text.lv_line_set_y_invert,"ax",%progbits
	.hidden	lv_line_set_y_invert            @ -- Begin function lv_line_set_y_invert
	.globl	lv_line_set_y_invert
	.p2align	3
	.type	lv_line_set_y_invert,%function
	.code	16                              @ @lv_line_set_y_invert
	.thumb_func
lv_line_set_y_invert:
.Lfunc_begin5:
	.loc	10 168 0 is_stmt 1              @ lvgl/src/lv_widgets/lv_line.c:168:0
	.fnstart
	.cfi_startproc
@ %bb.0:
	.save	{r7, lr}
	push	{r7, lr}
	.cfi_def_cfa_offset 8
	.cfi_offset lr, -4
	.cfi_offset r7, -8
	.pad	#16
	sub	sp, #16
	.cfi_def_cfa_offset 24
                                        @ kill: def $r2 killed $r1
	str	r0, [sp, #12]
	strb.w	r1, [sp, #11]
.Ltmp87:
	.loc	10 169 5 prologue_end           @ lvgl/src/lv_widgets/lv_line.c:169:5
	b	.LBB5_1
.LBB5_1:
.Ltmp88:
	.loc	10 169 5 is_stmt 0              @ lvgl/src/lv_widgets/lv_line.c:169:5
	ldr	r0, [sp, #12]
	bl	lv_debug_check_null
.Ltmp89:
	.loc	10 169 5                        @ lvgl/src/lv_widgets/lv_line.c:169:5
	cbnz	r0, .LBB5_4
	b	.LBB5_2
.LBB5_2:
.Ltmp90:
	.loc	10 169 5                        @ lvgl/src/lv_widgets/lv_line.c:169:5
	ldr	r2, [sp, #12]
	movw	r0, :lower16:.L.str.1
	movt	r0, :upper16:.L.str.1
	movs	r3, #0
	bl	lv_debug_log_error
	b	.LBB5_3
.LBB5_3:                                @ =>This Inner Loop Header: Depth=1
	b	.LBB5_3
.Ltmp91:
.LBB5_4:
	.loc	10 169 5                        @ lvgl/src/lv_widgets/lv_line.c:169:5
	b	.LBB5_5
.Ltmp92:
.LBB5_5:
	.loc	10 171 47 is_stmt 1             @ lvgl/src/lv_widgets/lv_line.c:171:47
	ldr	r0, [sp, #12]
	.loc	10 171 27 is_stmt 0             @ lvgl/src/lv_widgets/lv_line.c:171:27
	bl	lv_obj_get_ext_attr
	.loc	10 171 21                       @ lvgl/src/lv_widgets/lv_line.c:171:21
	str	r0, [sp, #4]
.Ltmp93:
	.loc	10 172 8 is_stmt 1              @ lvgl/src/lv_widgets/lv_line.c:172:8
	ldr	r0, [sp, #4]
	.loc	10 172 13 is_stmt 0             @ lvgl/src/lv_widgets/lv_line.c:172:13
	ldrb	r0, [r0, #6]
	ubfx	r0, r0, #1, #1
	.loc	10 172 22                       @ lvgl/src/lv_widgets/lv_line.c:172:22
	ldrb.w	r1, [sp, #11]
	and	r1, r1, #1
.Ltmp94:
	.loc	10 172 8                        @ lvgl/src/lv_widgets/lv_line.c:172:8
	cmp	r0, r1
	bne	.LBB5_7
	b	.LBB5_6
.LBB5_6:
.Ltmp95:
	.loc	10 172 26                       @ lvgl/src/lv_widgets/lv_line.c:172:26
	b	.LBB5_8
.Ltmp96:
.LBB5_7:
	.loc	10 174 18 is_stmt 1             @ lvgl/src/lv_widgets/lv_line.c:174:18
	ldrb.w	r0, [sp, #11]
	and	r2, r0, #1
	.loc	10 174 5 is_stmt 0              @ lvgl/src/lv_widgets/lv_line.c:174:5
	ldr	r1, [sp, #4]
	.loc	10 174 16                       @ lvgl/src/lv_widgets/lv_line.c:174:16
	ldrb	r0, [r1, #6]
	and	r0, r0, #253
	orr.w	r0, r0, r2, lsl #1
	strb	r0, [r1, #6]
	.loc	10 176 23 is_stmt 1             @ lvgl/src/lv_widgets/lv_line.c:176:23
	ldr	r0, [sp, #12]
	.loc	10 176 5 is_stmt 0              @ lvgl/src/lv_widgets/lv_line.c:176:5
	bl	lv_obj_invalidate
	.loc	10 177 1 is_stmt 1              @ lvgl/src/lv_widgets/lv_line.c:177:1
	b	.LBB5_8
.LBB5_8:
	add	sp, #16
	pop	{r7, pc}
.Ltmp97:
.Lfunc_end5:
	.size	lv_line_set_y_invert, .Lfunc_end5-lv_line_set_y_invert
	.cfi_endproc
	.cantunwind
	.fnend
                                        @ -- End function
	.section	.text.lv_line_get_y_invert,"ax",%progbits
	.hidden	lv_line_get_y_invert            @ -- Begin function lv_line_get_y_invert
	.globl	lv_line_get_y_invert
	.p2align	3
	.type	lv_line_get_y_invert,%function
	.code	16                              @ @lv_line_get_y_invert
	.thumb_func
lv_line_get_y_invert:
.Lfunc_begin6:
	.loc	10 203 0                        @ lvgl/src/lv_widgets/lv_line.c:203:0
	.fnstart
	.cfi_startproc
@ %bb.0:
	.save	{r7, lr}
	push	{r7, lr}
	.cfi_def_cfa_offset 8
	.cfi_offset lr, -4
	.cfi_offset r7, -8
	.pad	#8
	sub	sp, #8
	.cfi_def_cfa_offset 16
	str	r0, [sp, #4]
.Ltmp98:
	.loc	10 204 5 prologue_end           @ lvgl/src/lv_widgets/lv_line.c:204:5
	b	.LBB6_1
.LBB6_1:
.Ltmp99:
	.loc	10 204 5 is_stmt 0              @ lvgl/src/lv_widgets/lv_line.c:204:5
	ldr	r0, [sp, #4]
	bl	lv_debug_check_null
.Ltmp100:
	.loc	10 204 5                        @ lvgl/src/lv_widgets/lv_line.c:204:5
	cbnz	r0, .LBB6_4
	b	.LBB6_2
.LBB6_2:
.Ltmp101:
	.loc	10 204 5                        @ lvgl/src/lv_widgets/lv_line.c:204:5
	ldr	r2, [sp, #4]
	movw	r0, :lower16:.L.str.1
	movt	r0, :upper16:.L.str.1
	movs	r3, #0
	bl	lv_debug_log_error
	b	.LBB6_3
.LBB6_3:                                @ =>This Inner Loop Header: Depth=1
	b	.LBB6_3
.Ltmp102:
.LBB6_4:
	.loc	10 204 5                        @ lvgl/src/lv_widgets/lv_line.c:204:5
	b	.LBB6_5
.Ltmp103:
.LBB6_5:
	.loc	10 206 47 is_stmt 1             @ lvgl/src/lv_widgets/lv_line.c:206:47
	ldr	r0, [sp, #4]
	.loc	10 206 27 is_stmt 0             @ lvgl/src/lv_widgets/lv_line.c:206:27
	bl	lv_obj_get_ext_attr
	.loc	10 206 21                       @ lvgl/src/lv_widgets/lv_line.c:206:21
	str	r0, [sp]
	.loc	10 208 12 is_stmt 1             @ lvgl/src/lv_widgets/lv_line.c:208:12
	ldr	r0, [sp]
	.loc	10 208 17 is_stmt 0             @ lvgl/src/lv_widgets/lv_line.c:208:17
	ldrb	r0, [r0, #6]
	ubfx	r0, r0, #1, #1
	.loc	10 208 5                        @ lvgl/src/lv_widgets/lv_line.c:208:5
	add	sp, #8
	pop	{r7, pc}
.Ltmp104:
.Lfunc_end6:
	.size	lv_line_get_y_invert, .Lfunc_end6-lv_line_get_y_invert
	.cfi_endproc
	.cantunwind
	.fnend
                                        @ -- End function
	.section	.text.lv_line_set_points,"ax",%progbits
	.hidden	lv_line_set_points              @ -- Begin function lv_line_set_points
	.globl	lv_line_set_points
	.p2align	3
	.type	lv_line_set_points,%function
	.code	16                              @ @lv_line_set_points
	.thumb_func
lv_line_set_points:
.Lfunc_begin7:
	.loc	10 118 0 is_stmt 1              @ lvgl/src/lv_widgets/lv_line.c:118:0
	.fnstart
	.cfi_startproc
@ %bb.0:
	.save	{r7, lr}
	push	{r7, lr}
	.cfi_def_cfa_offset 8
	.cfi_offset lr, -4
	.cfi_offset r7, -8
	.pad	#32
	sub	sp, #32
	.cfi_def_cfa_offset 40
                                        @ kill: def $r3 killed $r2
	str	r0, [sp, #28]
	str	r1, [sp, #24]
	strh.w	r2, [sp, #22]
.Ltmp105:
	.loc	10 119 5 prologue_end           @ lvgl/src/lv_widgets/lv_line.c:119:5
	b	.LBB7_1
.LBB7_1:
.Ltmp106:
	.loc	10 119 5 is_stmt 0              @ lvgl/src/lv_widgets/lv_line.c:119:5
	ldr	r0, [sp, #28]
	bl	lv_debug_check_null
.Ltmp107:
	.loc	10 119 5                        @ lvgl/src/lv_widgets/lv_line.c:119:5
	cbnz	r0, .LBB7_4
	b	.LBB7_2
.LBB7_2:
.Ltmp108:
	.loc	10 119 5                        @ lvgl/src/lv_widgets/lv_line.c:119:5
	ldr	r2, [sp, #28]
	movw	r0, :lower16:.L.str.1
	movt	r0, :upper16:.L.str.1
	movs	r3, #0
	bl	lv_debug_log_error
	b	.LBB7_3
.LBB7_3:                                @ =>This Inner Loop Header: Depth=1
	b	.LBB7_3
.Ltmp109:
.LBB7_4:
	.loc	10 119 5                        @ lvgl/src/lv_widgets/lv_line.c:119:5
	b	.LBB7_5
.Ltmp110:
.LBB7_5:
	.loc	10 121 47 is_stmt 1             @ lvgl/src/lv_widgets/lv_line.c:121:47
	ldr	r0, [sp, #28]
	.loc	10 121 27 is_stmt 0             @ lvgl/src/lv_widgets/lv_line.c:121:27
	bl	lv_obj_get_ext_attr
	.loc	10 121 21                       @ lvgl/src/lv_widgets/lv_line.c:121:21
	str	r0, [sp, #16]
	.loc	10 122 27 is_stmt 1             @ lvgl/src/lv_widgets/lv_line.c:122:27
	ldr	r0, [sp, #24]
	.loc	10 122 5 is_stmt 0              @ lvgl/src/lv_widgets/lv_line.c:122:5
	ldr	r1, [sp, #16]
	.loc	10 122 25                       @ lvgl/src/lv_widgets/lv_line.c:122:25
	str	r0, [r1]
	.loc	10 123 27 is_stmt 1             @ lvgl/src/lv_widgets/lv_line.c:123:27
	ldrh.w	r0, [sp, #22]
	.loc	10 123 5 is_stmt 0              @ lvgl/src/lv_widgets/lv_line.c:123:5
	ldr	r1, [sp, #16]
	.loc	10 123 25                       @ lvgl/src/lv_widgets/lv_line.c:123:25
	strh	r0, [r1, #4]
.Ltmp111:
	.loc	10 125 8 is_stmt 1              @ lvgl/src/lv_widgets/lv_line.c:125:8
	ldrh.w	r0, [sp, #22]
	.loc	10 125 22 is_stmt 0             @ lvgl/src/lv_widgets/lv_line.c:125:22
	cmp	r0, #1
	blt	.LBB7_18
	b	.LBB7_6
.LBB7_6:
	.loc	10 125 25                       @ lvgl/src/lv_widgets/lv_line.c:125:25
	ldr	r0, [sp, #16]
	.loc	10 125 30                       @ lvgl/src/lv_widgets/lv_line.c:125:30
	ldrb	r0, [r0, #6]
.Ltmp112:
	.loc	10 125 8                        @ lvgl/src/lv_widgets/lv_line.c:125:8
	lsls	r0, r0, #31
	cmp	r0, #0
	beq	.LBB7_18
	b	.LBB7_7
.LBB7_7:
	.loc	10 0 8                          @ lvgl/src/lv_widgets/lv_line.c:0:8
	movw	r0, #33768
.Ltmp113:
	.loc	10 127 20 is_stmt 1             @ lvgl/src/lv_widgets/lv_line.c:127:20
	strh.w	r0, [sp, #12]
	.loc	10 128 20                       @ lvgl/src/lv_widgets/lv_line.c:128:20
	strh.w	r0, [sp, #10]
	movs	r0, #0
.Ltmp114:
	.loc	10 129 15                       @ lvgl/src/lv_widgets/lv_line.c:129:15
	strh.w	r0, [sp, #14]
	.loc	10 129 13 is_stmt 0             @ lvgl/src/lv_widgets/lv_line.c:129:13
	b	.LBB7_8
.LBB7_8:                                @ =>This Inner Loop Header: Depth=1
.Ltmp115:
	.loc	10 129 20                       @ lvgl/src/lv_widgets/lv_line.c:129:20
	ldrh.w	r0, [sp, #14]
	.loc	10 129 24                       @ lvgl/src/lv_widgets/lv_line.c:129:24
	ldrh.w	r1, [sp, #22]
.Ltmp116:
	.loc	10 129 9                        @ lvgl/src/lv_widgets/lv_line.c:129:9
	cmp	r0, r1
	bge	.LBB7_17
	b	.LBB7_9
.LBB7_9:                                @   in Loop: Header=BB7_8 Depth=1
.Ltmp117:
	.loc	10 130 20 is_stmt 1             @ lvgl/src/lv_widgets/lv_line.c:130:20
	ldr	r0, [sp, #24]
	ldrh.w	r1, [sp, #14]
	ldrsh.w	r0, [r0, r1, lsl #2]
	ldrsh.w	r1, [sp, #12]
	cmp	r0, r1
	ble	.LBB7_11
	b	.LBB7_10
.LBB7_10:                               @   in Loop: Header=BB7_8 Depth=1
	ldr	r0, [sp, #24]
	ldrh.w	r1, [sp, #14]
	ldrsh.w	r0, [r0, r1, lsl #2]
	str	r0, [sp, #4]                    @ 4-byte Spill
	b	.LBB7_12
.LBB7_11:                               @   in Loop: Header=BB7_8 Depth=1
	ldrsh.w	r0, [sp, #12]
	str	r0, [sp, #4]                    @ 4-byte Spill
	b	.LBB7_12
.LBB7_12:                               @   in Loop: Header=BB7_8 Depth=1
	ldr	r0, [sp, #4]                    @ 4-byte Reload
	.loc	10 130 18 is_stmt 0             @ lvgl/src/lv_widgets/lv_line.c:130:18
	strh.w	r0, [sp, #12]
	.loc	10 131 20 is_stmt 1             @ lvgl/src/lv_widgets/lv_line.c:131:20
	ldr	r0, [sp, #24]
	ldrh.w	r1, [sp, #14]
	add.w	r0, r0, r1, lsl #2
	ldrsh.w	r0, [r0, #2]
	ldrsh.w	r1, [sp, #10]
	cmp	r0, r1
	ble	.LBB7_14
	b	.LBB7_13
.LBB7_13:                               @   in Loop: Header=BB7_8 Depth=1
	ldr	r0, [sp, #24]
	ldrh.w	r1, [sp, #14]
	add.w	r0, r0, r1, lsl #2
	ldrsh.w	r0, [r0, #2]
	str	r0, [sp]                        @ 4-byte Spill
	b	.LBB7_15
.LBB7_14:                               @   in Loop: Header=BB7_8 Depth=1
	ldrsh.w	r0, [sp, #10]
	str	r0, [sp]                        @ 4-byte Spill
	b	.LBB7_15
.LBB7_15:                               @   in Loop: Header=BB7_8 Depth=1
	ldr	r0, [sp]                        @ 4-byte Reload
	.loc	10 131 18 is_stmt 0             @ lvgl/src/lv_widgets/lv_line.c:131:18
	strh.w	r0, [sp, #10]
	.loc	10 132 9 is_stmt 1              @ lvgl/src/lv_widgets/lv_line.c:132:9
	b	.LBB7_16
.Ltmp118:
.LBB7_16:                               @   in Loop: Header=BB7_8 Depth=1
	.loc	10 129 36                       @ lvgl/src/lv_widgets/lv_line.c:129:36
	ldrh.w	r0, [sp, #14]
	adds	r0, #1
	strh.w	r0, [sp, #14]
	.loc	10 129 9 is_stmt 0              @ lvgl/src/lv_widgets/lv_line.c:129:9
	b	.LBB7_8
.Ltmp119:
.LBB7_17:
	.loc	10 134 65 is_stmt 1             @ lvgl/src/lv_widgets/lv_line.c:134:65
	ldr	r0, [sp, #28]
	movs	r1, #0
	.loc	10 134 37 is_stmt 0             @ lvgl/src/lv_widgets/lv_line.c:134:37
	bl	lv_obj_get_style_line_width
	.loc	10 134 24                       @ lvgl/src/lv_widgets/lv_line.c:134:24
	strh.w	r0, [sp, #8]
	.loc	10 135 25 is_stmt 1             @ lvgl/src/lv_widgets/lv_line.c:135:25
	ldr	r0, [sp, #28]
	.loc	10 135 31 is_stmt 0             @ lvgl/src/lv_widgets/lv_line.c:135:31
	ldrh.w	r1, [sp, #12]
	.loc	10 135 38                       @ lvgl/src/lv_widgets/lv_line.c:135:38
	ldrsh.w	r3, [sp, #8]
	.loc	10 135 36                       @ lvgl/src/lv_widgets/lv_line.c:135:36
	add	r1, r3
	.loc	10 135 50                       @ lvgl/src/lv_widgets/lv_line.c:135:50
	ldrh.w	r2, [sp, #10]
	.loc	10 135 55                       @ lvgl/src/lv_widgets/lv_line.c:135:55
	add	r2, r3
	.loc	10 135 9                        @ lvgl/src/lv_widgets/lv_line.c:135:9
	sxth	r1, r1
	sxth	r2, r2
	bl	lv_obj_set_size
	.loc	10 136 5 is_stmt 1              @ lvgl/src/lv_widgets/lv_line.c:136:5
	b	.LBB7_18
.Ltmp120:
.LBB7_18:
	.loc	10 138 23                       @ lvgl/src/lv_widgets/lv_line.c:138:23
	ldr	r0, [sp, #28]
	.loc	10 138 5 is_stmt 0              @ lvgl/src/lv_widgets/lv_line.c:138:5
	bl	lv_obj_invalidate
	.loc	10 139 1 is_stmt 1              @ lvgl/src/lv_widgets/lv_line.c:139:1
	add	sp, #32
	pop	{r7, pc}
.Ltmp121:
.Lfunc_end7:
	.size	lv_line_set_points, .Lfunc_end7-lv_line_set_points
	.cfi_endproc
	.cantunwind
	.fnend
                                        @ -- End function
	.section	.text.lv_obj_get_style_line_width,"ax",%progbits
	.p2align	3                               @ -- Begin function lv_obj_get_style_line_width
	.type	lv_obj_get_style_line_width,%function
	.code	16                              @ @lv_obj_get_style_line_width
	.thumb_func
lv_obj_get_style_line_width:
.Lfunc_begin8:
	.file	13 "E:\\Smart-access-control\\Hardware\\CODE" "lvgl/src/lv_widgets/../lv_core/lv_obj_style_dec.h"
	.loc	13 159 0                        @ lvgl/src/lv_widgets/../lv_core/lv_obj_style_dec.h:159:0
	.fnstart
	.cfi_startproc
@ %bb.0:
	.save	{r7, lr}
	push	{r7, lr}
	.cfi_def_cfa_offset 8
	.cfi_offset lr, -4
	.cfi_offset r7, -8
	.pad	#8
	sub	sp, #8
	.cfi_def_cfa_offset 16
                                        @ kill: def $r2 killed $r1
	str	r0, [sp, #4]
	strb.w	r1, [sp, #3]
.Ltmp122:
	.loc	13 159 1 prologue_end           @ lvgl/src/lv_widgets/../lv_core/lv_obj_style_dec.h:159:1
	ldr	r0, [sp, #4]
	ldrb.w	r1, [sp, #3]
	movs	r2, #144
	bl	_lv_obj_get_style_int
	add	sp, #8
	pop	{r7, pc}
.Ltmp123:
.Lfunc_end8:
	.size	lv_obj_get_style_line_width, .Lfunc_end8-lv_obj_get_style_line_width
	.cfi_endproc
	.cantunwind
	.fnend
                                        @ -- End function
	.type	.L.str,%object                  @ @.str
	.section	.rodata.str1.1,"aMS",%progbits,1
.L.str:
	.asciz	"Out of memory"
	.size	.L.str, 14

	.type	ancestor_signal,%object         @ @ancestor_signal
	.section	.bss.ancestor_signal,"aw",%nobits
	.p2align	2
ancestor_signal:
	.long	0
	.size	ancestor_signal, 4

	.type	.L.str.1,%object                @ @.str.1
	.section	.rodata.str1.1,"aMS",%progbits,1
.L.str.1:
	.asciz	"NULL pointer"
	.size	.L.str.1, 13

	.type	.L.str.2,%object                @ @.str.2
.L.str.2:
	.asciz	"lv_line"
	.size	.L.str.2, 8

	.file	14 "E:\\Smart-access-control\\Hardware\\CODE" "lvgl/src/lv_widgets/../lv_core/../lv_hal/../lv_misc/lv_color.h"
	.file	15 "E:\\Smart-access-control\\Hardware\\CODE" "lvgl/src/lv_widgets/../lv_core/../lv_draw/lv_draw_line.h"
	.file	16 "E:\\Smart-access-control\\Hardware\\CODE" "lvgl/src/lv_widgets/../lv_core/../lv_draw/lv_draw_blend.h"
	.section	".note.GNU-stack","",%progbits
	.eabi_attribute	30, 6	@ Tag_ABI_optimization_goals
	.ARM_attribute	16, 1	@ Tag_AV_eba