	.text
	.syntax unified
	.eabi_attribute	67, "2.09"	@ Tag_conformance
	.cpu	cortex-m7
	.eabi_attribute	6, 13	@ Tag_CPU_arch
	.eabi_attribute	7, 77	@ Tag_CPU_arch_profile
	.eabi_attribute	8, 0	@ Tag_ARM_ISA_use
	.eabi_attribute	9, 2	@ Tag_THUMB_ISA_use
	.fpu	fpv5-d16
	.eabi_attribute	36, 1	@ Tag_FP_HP_extension
	.eabi_attribute	34, 1	@ Tag_CPU_unaligned_access
	.eabi_attribute	17, 1	@ Tag_ABI_PCS_GOT_use
	.eabi_attribute	20, 2	@ Tag_ABI_FP_denormal
	.eabi_attribute	21, 0	@ Tag_ABI_FP_exceptions
	.eabi_attribute	23, 1	@ Tag_ABI_FP_number_model
	.eabi_attribute	24, 1	@ Tag_ABI_align_needed
	.eabi_attribute	25, 1	@ Tag_ABI_align_preserved
	.eabi_attribute	28, 1	@ Tag_ABI_VFP_args
	.eabi_attribute	38, 1	@ Tag_ABI_FP_16bit_format
	.eabi_attribute	18, 2	@ Tag_ABI_PCS_wchar_t
	.eabi_attribute	26, 1	@ Tag_ABI_enum_size
	.eabi_attribute	14, 0	@ Tag_ABI_PCS_R9_use
	.file	"lv_led.c"
	.file	1 "D:\\Keil_v5\\ARM\\ARMCLANG\\Bin\\..\\include" "stdint.h"
	.file	2 "E:\\STM32\\Learning\\STM32H750_ART_PI_RGBLCD" "lvgl/src/lv_widgets/../lv_themes/../lv_core/lv_obj.h"
	.file	3 "E:\\STM32\\Learning\\STM32H750_ART_PI_RGBLCD" "lvgl/src/lv_widgets/../lv_core/../lv_font/../lv_misc/lv_ll.h"
	.file	4 "E:\\STM32\\Learning\\STM32H750_ART_PI_RGBLCD" "./lvgl/src/lv_conf.h"
	.file	5 "E:\\STM32\\Learning\\STM32H750_ART_PI_RGBLCD" "lvgl/src/lv_widgets/../lv_core/../lv_hal/../lv_misc/lv_area.h"
	.file	6 "E:\\STM32\\Learning\\STM32H750_ART_PI_RGBLCD" "lvgl/src/lv_widgets/../lv_core/../lv_draw/../lv_misc/lv_types.h"
	.file	7 "E:\\STM32\\Learning\\STM32H750_ART_PI_RGBLCD" "lvgl/src/lv_widgets/../lv_themes/../lv_core/lv_style.h"
	.file	8 "E:\\STM32\\Learning\\STM32H750_ART_PI_RGBLCD" "lvgl/src/lv_widgets/../lv_core/../lv_hal/lv_hal_indev.h"
	.file	9 "E:\\STM32\\Learning\\STM32H750_ART_PI_RGBLCD" "lvgl/src/lv_widgets/../lv_core/../lv_draw/../lv_misc/lv_bidi.h"
	.file	10 "E:\\STM32\\Learning\\STM32H750_ART_PI_RGBLCD" "lvgl/src/lv_widgets/lv_led.c"
	.file	11 "E:\\STM32\\Learning\\STM32H750_ART_PI_RGBLCD" "lvgl/src/lv_widgets/../lv_themes/lv_theme.h"
	.file	12 "E:\\STM32\\Learning\\STM32H750_ART_PI_RGBLCD" "lvgl/src/lv_widgets/lv_led.h"
	.section	.text.lv_led_create,"ax",%progbits
	.hidden	lv_led_create                   @ -- Begin function lv_led_create
	.globl	lv_led_create
	.p2align	3
	.type	lv_led_create,%function
	.code	16                              @ @lv_led_create
	.thumb_func
lv_led_create:
.Lfunc_begin0:
	.loc	10 55 0                         @ lvgl/src/lv_widgets/lv_led.c:55:0
	.fnstart
	.cfi_sections .debug_frame
	.cfi_startproc
@ %bb.0:
	.save	{r7, lr}
	push	{r7, lr}
	.cfi_def_cfa_offset 8
	.cfi_offset lr, -4
	.cfi_offset r7, -8
	.pad	#24
	sub	sp, #24
	.cfi_def_cfa_offset 32
	str	r0, [sp, #16]
	str	r1, [sp, #12]
.Ltmp0:
	.loc	10 59 36 prologue_end           @ lvgl/src/lv_widgets/lv_led.c:59:36
	ldr	r0, [sp, #16]
	.loc	10 59 41 is_stmt 0              @ lvgl/src/lv_widgets/lv_led.c:59:41
	ldr	r1, [sp, #12]
	.loc	10 59 22                        @ lvgl/src/lv_widgets/lv_led.c:59:22
	bl	lv_obj_create
	.loc	10 59 16                        @ lvgl/src/lv_widgets/lv_led.c:59:16
	str	r0, [sp, #8]
	.loc	10 60 5 is_stmt 1               @ lvgl/src/lv_widgets/lv_led.c:60:5
	b	.LBB0_1
.LBB0_1:
.Ltmp1:
	.loc	10 60 5 is_stmt 0               @ lvgl/src/lv_widgets/lv_led.c:60:5
	ldr	r0, [sp, #8]
	bl	lv_debug_check_null
.Ltmp2:
	.loc	10 60 5                         @ lvgl/src/lv_widgets/lv_led.c:60:5
	cbnz	r0, .LBB0_4
	b	.LBB0_2
.LBB0_2:
.Ltmp3:
	.loc	10 60 5                         @ lvgl/src/lv_widgets/lv_led.c:60:5
	ldr	r2, [sp, #8]
	movw	r0, :lower16:.L.str
	movt	r0, :upper16:.L.str
	movs	r3, #0
	bl	lv_debug_log_error
	b	.LBB0_3
.LBB0_3:                                @ =>This Inner Loop Header: Depth=1
	b	.LBB0_3
.Ltmp4:
.LBB0_4:
	.loc	10 60 5                         @ lvgl/src/lv_widgets/lv_led.c:60:5
	b	.LBB0_5
.Ltmp5:
.LBB0_5:
	.loc	10 61 8 is_stmt 1               @ lvgl/src/lv_widgets/lv_led.c:61:8
	ldr	r0, [sp, #8]
.Ltmp6:
	.loc	10 61 8 is_stmt 0               @ lvgl/src/lv_widgets/lv_led.c:61:8
	cbnz	r0, .LBB0_7
	b	.LBB0_6
.LBB0_6:
	.loc	10 0 8                          @ lvgl/src/lv_widgets/lv_led.c:0:8
	movs	r0, #0
.Ltmp7:
	.loc	10 61 21                        @ lvgl/src/lv_widgets/lv_led.c:61:21
	str	r0, [sp, #20]
	b	.LBB0_22
.Ltmp8:
.LBB0_7:
	.loc	10 63 8 is_stmt 1               @ lvgl/src/lv_widgets/lv_led.c:63:8
	movw	r0, :lower16:ancestor_signal
	movt	r0, :upper16:ancestor_signal
	ldr	r0, [r0]
.Ltmp9:
	.loc	10 63 8 is_stmt 0               @ lvgl/src/lv_widgets/lv_led.c:63:8
	cbnz	r0, .LBB0_9
	b	.LBB0_8
.LBB0_8:
.Ltmp10:
	.loc	10 63 72                        @ lvgl/src/lv_widgets/lv_led.c:63:72
	ldr	r0, [sp, #8]
	.loc	10 63 51                        @ lvgl/src/lv_widgets/lv_led.c:63:51
	bl	lv_obj_get_signal_cb
	.loc	10 63 49                        @ lvgl/src/lv_widgets/lv_led.c:63:49
	movw	r1, :lower16:ancestor_signal
	movt	r1, :upper16:ancestor_signal
	str	r0, [r1]
	.loc	10 63 33                        @ lvgl/src/lv_widgets/lv_led.c:63:33
	b	.LBB0_9
.Ltmp11:
.LBB0_9:
	.loc	10 64 8 is_stmt 1               @ lvgl/src/lv_widgets/lv_led.c:64:8
	movw	r0, :lower16:ancestor_design
	movt	r0, :upper16:ancestor_design
	ldr	r0, [r0]
.Ltmp12:
	.loc	10 64 8 is_stmt 0               @ lvgl/src/lv_widgets/lv_led.c:64:8
	cbnz	r0, .LBB0_11
	b	.LBB0_10
.LBB0_10:
.Ltmp13:
	.loc	10 64 72                        @ lvgl/src/lv_widgets/lv_led.c:64:72
	ldr	r0, [sp, #8]
	.loc	10 64 51                        @ lvgl/src/lv_widgets/lv_led.c:64:51
	bl	lv_obj_get_design_cb
	.loc	10 64 49                        @ lvgl/src/lv_widgets/lv_led.c:64:49
	movw	r1, :lower16:ancestor_design
	movt	r1, :upper16:ancestor_design
	str	r0, [r1]
	.loc	10 64 33                        @ lvgl/src/lv_widgets/lv_led.c:64:33
	b	.LBB0_11
.Ltmp14:
.LBB0_11:
	.loc	10 67 51 is_stmt 1              @ lvgl/src/lv_widgets/lv_led.c:67:51
	ldr	r0, [sp, #8]
	movs	r1, #1
	.loc	10 67 26 is_stmt 0              @ lvgl/src/lv_widgets/lv_led.c:67:26
	bl	lv_obj_allocate_ext_attr
	.loc	10 67 20                        @ lvgl/src/lv_widgets/lv_led.c:67:20
	str	r0, [sp, #4]
	.loc	10 68 5 is_stmt 1               @ lvgl/src/lv_widgets/lv_led.c:68:5
	b	.LBB0_12
.LBB0_12:
.Ltmp15:
	.loc	10 68 5 is_stmt 0               @ lvgl/src/lv_widgets/lv_led.c:68:5
	ldr	r0, [sp, #4]
	bl	lv_debug_check_null
.Ltmp16:
	.loc	10 68 5                         @ lvgl/src/lv_widgets/lv_led.c:68:5
	cbnz	r0, .LBB0_15
	b	.LBB0_13
.LBB0_13:
.Ltmp17:
	.loc	10 68 5                         @ lvgl/src/lv_widgets/lv_led.c:68:5
	ldr	r2, [sp, #4]
	movw	r0, :lower16:.L.str
	movt	r0, :upper16:.L.str
	movs	r3, #0
	bl	lv_debug_log_error
	b	.LBB0_14
.LBB0_14:                               @ =>This Inner Loop Header: Depth=1
	b	.LBB0_14
.Ltmp18:
.LBB0_15:
	.loc	10 68 5                         @ lvgl/src/lv_widgets/lv_led.c:68:5
	b	.LBB0_16
.Ltmp19:
.LBB0_16:
	.loc	10 69 8 is_stmt 1               @ lvgl/src/lv_widgets/lv_led.c:69:8
	ldr	r0, [sp, #4]
.Ltmp20:
	.loc	10 69 8 is_stmt 0               @ lvgl/src/lv_widgets/lv_led.c:69:8
	cbnz	r0, .LBB0_18
	b	.LBB0_17
.LBB0_17:
.Ltmp21:
	.loc	10 70 20 is_stmt 1              @ lvgl/src/lv_widgets/lv_led.c:70:20
	ldr	r0, [sp, #8]
	.loc	10 70 9 is_stmt 0               @ lvgl/src/lv_widgets/lv_led.c:70:9
	bl	lv_obj_del
	movs	r0, #0
	.loc	10 71 9 is_stmt 1               @ lvgl/src/lv_widgets/lv_led.c:71:9
	str	r0, [sp, #20]
	b	.LBB0_22
.Ltmp22:
.LBB0_18:
	.loc	10 74 5                         @ lvgl/src/lv_widgets/lv_led.c:74:5
	ldr	r1, [sp, #4]
	movs	r0, #255
	.loc	10 74 17 is_stmt 0              @ lvgl/src/lv_widgets/lv_led.c:74:17
	strb	r0, [r1]
	.loc	10 76 26 is_stmt 1              @ lvgl/src/lv_widgets/lv_led.c:76:26
	ldr	r0, [sp, #8]
	.loc	10 76 5 is_stmt 0               @ lvgl/src/lv_widgets/lv_led.c:76:5
	movw	r1, :lower16:lv_led_signal
	movt	r1, :upper16:lv_led_signal
	bl	lv_obj_set_signal_cb
	.loc	10 77 26 is_stmt 1              @ lvgl/src/lv_widgets/lv_led.c:77:26
	ldr	r0, [sp, #8]
	.loc	10 77 5 is_stmt 0               @ lvgl/src/lv_widgets/lv_led.c:77:5
	movw	r1, :lower16:lv_led_design
	movt	r1, :upper16:lv_led_design
	bl	lv_obj_set_design_cb
.Ltmp23:
	.loc	10 80 8 is_stmt 1               @ lvgl/src/lv_widgets/lv_led.c:80:8
	ldr	r0, [sp, #12]
.Ltmp24:
	.loc	10 80 8 is_stmt 0               @ lvgl/src/lv_widgets/lv_led.c:80:8
	cbnz	r0, .LBB0_20
	b	.LBB0_19
.LBB0_19:
.Ltmp25:
	.loc	10 81 25 is_stmt 1              @ lvgl/src/lv_widgets/lv_led.c:81:25
	ldr	r0, [sp, #8]
	movs	r2, #43
	.loc	10 81 9 is_stmt 0               @ lvgl/src/lv_widgets/lv_led.c:81:9
	mov	r1, r2
	bl	lv_obj_set_size
	.loc	10 83 24 is_stmt 1              @ lvgl/src/lv_widgets/lv_led.c:83:24
	ldr	r0, [sp, #8]
	movs	r1, #19
	.loc	10 83 9 is_stmt 0               @ lvgl/src/lv_widgets/lv_led.c:83:9
	bl	lv_theme_apply
	.loc	10 84 5 is_stmt 1               @ lvgl/src/lv_widgets/lv_led.c:84:5
	b	.LBB0_21
.Ltmp26:
.LBB0_20:
	.loc	10 87 55                        @ lvgl/src/lv_widgets/lv_led.c:87:55
	ldr	r0, [sp, #12]
	.loc	10 87 35 is_stmt 0              @ lvgl/src/lv_widgets/lv_led.c:87:35
	bl	lv_obj_get_ext_attr
	.loc	10 87 24                        @ lvgl/src/lv_widgets/lv_led.c:87:24
	str	r0, [sp]
	.loc	10 88 35 is_stmt 1              @ lvgl/src/lv_widgets/lv_led.c:88:35
	ldr	r0, [sp]
	.loc	10 88 45 is_stmt 0              @ lvgl/src/lv_widgets/lv_led.c:88:45
	ldrb	r0, [r0]
	.loc	10 88 9                         @ lvgl/src/lv_widgets/lv_led.c:88:9
	ldr	r1, [sp, #4]
	.loc	10 88 33                        @ lvgl/src/lv_widgets/lv_led.c:88:33
	strb	r0, [r1]
	.loc	10 91 30 is_stmt 1              @ lvgl/src/lv_widgets/lv_led.c:91:30
	ldr	r0, [sp, #8]
	movs	r2, #255
	.loc	10 91 9 is_stmt 0               @ lvgl/src/lv_widgets/lv_led.c:91:9
	mov	r1, r2
	bl	lv_obj_refresh_style
	b	.LBB0_21
.Ltmp27:
.LBB0_21:
	.loc	10 96 12 is_stmt 1              @ lvgl/src/lv_widgets/lv_led.c:96:12
	ldr	r0, [sp, #8]
	.loc	10 96 5 is_stmt 0               @ lvgl/src/lv_widgets/lv_led.c:96:5
	str	r0, [sp, #20]
	b	.LBB0_22
.LBB0_22:
	.loc	10 97 1 is_stmt 1               @ lvgl/src/lv_widgets/lv_led.c:97:1
	ldr	r0, [sp, #20]
	add	sp, #24
	pop	{r7, pc}
.Ltmp28:
.Lfunc_end0:
	.size	lv_led_create, .Lfunc_end0-lv_led_create
	.cfi_endproc
	.cantunwind
	.fnend
                                        @ -- End function
	.section	.text.lv_led_signal,"ax",%progbits
	.p2align	3                               @ -- Begin function lv_led_signal
	.type	lv_led_signal,%function
	.code	16                              @ @lv_led_signal
	.thumb_func
lv_led_signal:
.Lfunc_begin1:
	.loc	10 233 0                        @ lvgl/src/lv_widgets/lv_led.c:233:0
	.fnstart
	.cfi_startproc
@ %bb.0:
	.save	{r7, lr}
	push	{r7, lr}
	.cfi_def_cfa_offset 8
	.cfi_offset lr, -4
	.cfi_offset r7, -8
	.pad	#32
	sub	sp, #32
	.cfi_def_cfa_offset 40
                                        @ kill: def $r3 killed $r1
	str	r0, [sp, #24]
	strb.w	r1, [sp, #23]
	str	r2, [sp, #16]
.Ltmp29:
	.loc	10 237 11 prologue_end          @ lvgl/src/lv_widgets/lv_led.c:237:11
	movw	r0, :lower16:ancestor_signal
	movt	r0, :upper16:ancestor_signal
	ldr	r3, [r0]
	.loc	10 237 27 is_stmt 0             @ lvgl/src/lv_widgets/lv_led.c:237:27
	ldr	r0, [sp, #24]
	.loc	10 237 32                       @ lvgl/src/lv_widgets/lv_led.c:237:32
	ldrb.w	r1, [sp, #23]
	.loc	10 237 38                       @ lvgl/src/lv_widgets/lv_led.c:237:38
	ldr	r2, [sp, #16]
	.loc	10 237 11                       @ lvgl/src/lv_widgets/lv_led.c:237:11
	blx	r3
	.loc	10 237 9                        @ lvgl/src/lv_widgets/lv_led.c:237:9
	strb.w	r0, [sp, #15]
.Ltmp30:
	.loc	10 238 8 is_stmt 1              @ lvgl/src/lv_widgets/lv_led.c:238:8
	ldrb.w	r0, [sp, #15]
.Ltmp31:
	.loc	10 238 8 is_stmt 0              @ lvgl/src/lv_widgets/lv_led.c:238:8
	cmp	r0, #1
	beq	.LBB1_2
	b	.LBB1_1
.LBB1_1:
.Ltmp32:
	.loc	10 238 33                       @ lvgl/src/lv_widgets/lv_led.c:238:33
	ldrb.w	r0, [sp, #15]
	.loc	10 238 26                       @ lvgl/src/lv_widgets/lv_led.c:238:26
	strb.w	r0, [sp, #31]
	b	.LBB1_11
.Ltmp33:
.LBB1_2:
	.loc	10 240 8 is_stmt 1              @ lvgl/src/lv_widgets/lv_led.c:240:8
	ldrb.w	r0, [sp, #23]
.Ltmp34:
	.loc	10 240 8 is_stmt 0              @ lvgl/src/lv_widgets/lv_led.c:240:8
	cmp	r0, #7
	bne	.LBB1_10
	b	.LBB1_3
.LBB1_3:
.Ltmp35:
	.loc	10 241 31 is_stmt 1             @ lvgl/src/lv_widgets/lv_led.c:241:31
	ldr	r0, [sp, #16]
	.loc	10 241 25 is_stmt 0             @ lvgl/src/lv_widgets/lv_led.c:241:25
	str	r0, [sp, #8]
	movs	r0, #0
.Ltmp36:
	.loc	10 243 15 is_stmt 1             @ lvgl/src/lv_widgets/lv_led.c:243:15
	strb.w	r0, [sp, #7]
	.loc	10 243 13 is_stmt 0             @ lvgl/src/lv_widgets/lv_led.c:243:13
	b	.LBB1_4
.LBB1_4:                                @ =>This Inner Loop Header: Depth=1
.Ltmp37:
	.loc	10 243 20                       @ lvgl/src/lv_widgets/lv_led.c:243:20
	ldrb.w	r0, [sp, #7]
.Ltmp38:
	.loc	10 243 9                        @ lvgl/src/lv_widgets/lv_led.c:243:9
	cmp	r0, #6
	bgt	.LBB1_9
	b	.LBB1_5
.LBB1_5:                                @   in Loop: Header=BB1_4 Depth=1
.Ltmp39:
	.loc	10 244 16 is_stmt 1             @ lvgl/src/lv_widgets/lv_led.c:244:16
	ldr	r0, [sp, #8]
	.loc	10 244 26 is_stmt 0             @ lvgl/src/lv_widgets/lv_led.c:244:26
	ldrb.w	r1, [sp, #7]
	.loc	10 244 16                       @ lvgl/src/lv_widgets/lv_led.c:244:16
	ldr.w	r0, [r0, r1, lsl #2]
.Ltmp40:
	.loc	10 244 16                       @ lvgl/src/lv_widgets/lv_led.c:244:16
	cbnz	r0, .LBB1_7
	b	.LBB1_6
.LBB1_6:
.Ltmp41:
	.loc	10 244 38                       @ lvgl/src/lv_widgets/lv_led.c:244:38
	b	.LBB1_9
.Ltmp42:
.LBB1_7:                                @   in Loop: Header=BB1_4 Depth=1
	.loc	10 245 9 is_stmt 1              @ lvgl/src/lv_widgets/lv_led.c:245:9
	b	.LBB1_8
.Ltmp43:
.LBB1_8:                                @   in Loop: Header=BB1_4 Depth=1
	.loc	10 243 50                       @ lvgl/src/lv_widgets/lv_led.c:243:50
	ldrb.w	r0, [sp, #7]
	adds	r0, #1
	strb.w	r0, [sp, #7]
	.loc	10 243 9 is_stmt 0              @ lvgl/src/lv_widgets/lv_led.c:243:9
	b	.LBB1_4
.Ltmp44:
.LBB1_9:
	.loc	10 246 9 is_stmt 1              @ lvgl/src/lv_widgets/lv_led.c:246:9
	ldr	r1, [sp, #8]
	.loc	10 246 19 is_stmt 0             @ lvgl/src/lv_widgets/lv_led.c:246:19
	ldrb.w	r2, [sp, #7]
	.loc	10 246 22                       @ lvgl/src/lv_widgets/lv_led.c:246:22
	movw	r0, :lower16:.L.str.2
	movt	r0, :upper16:.L.str.2
	str.w	r0, [r1, r2, lsl #2]
	.loc	10 247 5 is_stmt 1              @ lvgl/src/lv_widgets/lv_led.c:247:5
	b	.LBB1_10
.Ltmp45:
.LBB1_10:
	.loc	10 249 12                       @ lvgl/src/lv_widgets/lv_led.c:249:12
	ldrb.w	r0, [sp, #15]
	.loc	10 249 5 is_stmt 0              @ lvgl/src/lv_widgets/lv_led.c:249:5
	strb.w	r0, [sp, #31]
	b	.LBB1_11
.LBB1_11:
	.loc	10 250 1 is_stmt 1              @ lvgl/src/lv_widgets/lv_led.c:250:1
	ldrb.w	r0, [sp, #31]
	add	sp, #32
	pop	{r7, pc}
.Ltmp46:
.Lfunc_end1:
	.size	lv_led_signal, .Lfunc_end1-lv_led_signal
	.cfi_endproc
	.cantunwind
	.fnend
                                        @ -- End function
	.section	.text.lv_led_design,"ax",%progbits
	.p2align	3                               @ -- Begin function lv_led_design
	.type	lv_led_design,%function
	.code	16                              @ @lv_led_design
	.thumb_func
lv_led_design:
.Lfunc_begin2:
	.loc	10 194 0                        @ lvgl/src/lv_widgets/lv_led.c:194:0
	.fnstart
	.cfi_startproc
@ %bb.0:
	.save	{r7, lr}
	push	{r7, lr}
	.cfi_def_cfa_offset 8
	.cfi_offset lr, -4
	.cfi_offset r7, -8
	.pad	#168
	sub	sp, #168
	.cfi_def_cfa_offset 176
                                        @ kill: def $r3 killed $r2
	str	r0, [sp, #160]
	str	r1, [sp, #156]
	strb.w	r2, [sp, #155]
.Ltmp47:
	.loc	10 195 8 prologue_end           @ lvgl/src/lv_widgets/lv_led.c:195:8
	ldrb.w	r0, [sp, #155]
.Ltmp48:
	.loc	10 195 8 is_stmt 0              @ lvgl/src/lv_widgets/lv_led.c:195:8
	cmp	r0, #2
	bne	.LBB2_2
	b	.LBB2_1
.LBB2_1:
.Ltmp49:
	.loc	10 197 16 is_stmt 1             @ lvgl/src/lv_widgets/lv_led.c:197:16
	movw	r0, :lower16:ancestor_design
	movt	r0, :upper16:ancestor_design
	ldr	r3, [r0]
	.loc	10 197 32 is_stmt 0             @ lvgl/src/lv_widgets/lv_led.c:197:32
	ldr	r0, [sp, #160]
	.loc	10 197 37                       @ lvgl/src/lv_widgets/lv_led.c:197:37
	ldr	r1, [sp, #156]
	.loc	10 197 48                       @ lvgl/src/lv_widgets/lv_led.c:197:48
	ldrb.w	r2, [sp, #155]
	.loc	10 197 16                       @ lvgl/src/lv_widgets/lv_led.c:197:16
	blx	r3
	.loc	10 197 9                        @ lvgl/src/lv_widgets/lv_led.c:197:9
	strb.w	r0, [sp, #167]
	b	.LBB2_6
.Ltmp50:
.LBB2_2:
	.loc	10 199 13 is_stmt 1             @ lvgl/src/lv_widgets/lv_led.c:199:13
	ldrb.w	r0, [sp, #155]
.Ltmp51:
	.loc	10 199 13 is_stmt 0             @ lvgl/src/lv_widgets/lv_led.c:199:13
	cmp	r0, #0
	bne.w	.LBB2_4
	b	.LBB2_3
.LBB2_3:
.Ltmp52:
	.loc	10 201 56 is_stmt 1             @ lvgl/src/lv_widgets/lv_led.c:201:56
	ldr	r0, [sp, #160]
	.loc	10 201 36 is_stmt 0             @ lvgl/src/lv_widgets/lv_led.c:201:36
	bl	lv_obj_get_ext_attr
	.loc	10 201 24                       @ lvgl/src/lv_widgets/lv_led.c:201:24
	str	r0, [sp, #148]
	add	r0, sp, #44
	.loc	10 204 9 is_stmt 1              @ lvgl/src/lv_widgets/lv_led.c:204:9
	str	r0, [sp, #8]                    @ 4-byte Spill
	bl	lv_draw_rect_dsc_init
	ldr	r2, [sp, #8]                    @ 4-byte Reload
	.loc	10 205 35                       @ lvgl/src/lv_widgets/lv_led.c:205:35
	ldr	r0, [sp, #160]
	movs	r1, #0
	.loc	10 205 9 is_stmt 0              @ lvgl/src/lv_widgets/lv_led.c:205:9
	str	r1, [sp]                        @ 4-byte Spill
	bl	lv_obj_init_draw_rect_dsc
	ldr	r0, [sp]                        @ 4-byte Reload
	.loc	10 208 63 is_stmt 1             @ lvgl/src/lv_widgets/lv_led.c:208:63
	strb.w	r0, [sp, #36]
	strb.w	r0, [sp, #37]
	strb.w	r0, [sp, #38]
	movs	r0, #255
	str	r0, [sp, #4]                    @ 4-byte Spill
	strb.w	r0, [sp, #39]
	.loc	10 208 79 is_stmt 0             @ lvgl/src/lv_widgets/lv_led.c:208:79
	ldr	r0, [sp, #148]
	.loc	10 208 84                       @ lvgl/src/lv_widgets/lv_led.c:208:84
	ldrb	r2, [r0]
	.loc	10 208 31                       @ lvgl/src/lv_widgets/lv_led.c:208:31
	ldr	r0, [sp, #48]
	ldr	r1, [sp, #36]
	bl	lv_color_mix
	ldr	r1, [sp]                        @ 4-byte Reload
	mov	r2, r0
	ldr	r0, [sp, #4]                    @ 4-byte Reload
	str	r2, [sp, #40]
	ldr	r2, [sp, #40]
	str	r2, [sp, #48]
	.loc	10 209 73 is_stmt 1             @ lvgl/src/lv_widgets/lv_led.c:209:73
	strb.w	r1, [sp, #28]
	strb.w	r1, [sp, #29]
	strb.w	r1, [sp, #30]
	strb.w	r0, [sp, #31]
	.loc	10 209 89 is_stmt 0             @ lvgl/src/lv_widgets/lv_led.c:209:89
	ldr	r0, [sp, #148]
	.loc	10 209 94                       @ lvgl/src/lv_widgets/lv_led.c:209:94
	ldrb	r2, [r0]
	.loc	10 209 36                       @ lvgl/src/lv_widgets/lv_led.c:209:36
	ldr	r0, [sp, #52]
	ldr	r1, [sp, #28]
	bl	lv_color_mix
	ldr	r1, [sp]                        @ 4-byte Reload
	mov	r2, r0
	ldr	r0, [sp, #4]                    @ 4-byte Reload
	str	r2, [sp, #32]
	ldr	r2, [sp, #32]
	str	r2, [sp, #52]
	.loc	10 210 69 is_stmt 1             @ lvgl/src/lv_widgets/lv_led.c:210:69
	strb.w	r1, [sp, #20]
	strb.w	r1, [sp, #21]
	strb.w	r1, [sp, #22]
	strb.w	r0, [sp, #23]
	.loc	10 210 85 is_stmt 0             @ lvgl/src/lv_widgets/lv_led.c:210:85
	ldr	r0, [sp, #148]
	.loc	10 210 90                       @ lvgl/src/lv_widgets/lv_led.c:210:90
	ldrb	r2, [r0]
	.loc	10 210 33                       @ lvgl/src/lv_widgets/lv_led.c:210:33
	ldr	r0, [sp, #64]
	ldr	r1, [sp, #20]
	bl	lv_color_mix
	ldr	r1, [sp]                        @ 4-byte Reload
	mov	r2, r0
	ldr	r0, [sp, #4]                    @ 4-byte Reload
	str	r2, [sp, #24]
	ldr	r2, [sp, #24]
	str	r2, [sp, #64]
	.loc	10 211 69 is_stmt 1             @ lvgl/src/lv_widgets/lv_led.c:211:69
	strb.w	r1, [sp, #12]
	strb.w	r1, [sp, #13]
	strb.w	r1, [sp, #14]
	strb.w	r0, [sp, #15]
	.loc	10 211 85 is_stmt 0             @ lvgl/src/lv_widgets/lv_led.c:211:85
	ldr	r0, [sp, #148]
	.loc	10 211 90                       @ lvgl/src/lv_widgets/lv_led.c:211:90
	ldrb	r2, [r0]
	.loc	10 211 33                       @ lvgl/src/lv_widgets/lv_led.c:211:33
	ldr	r0, [sp, #88]
	ldr	r1, [sp, #12]
	bl	lv_color_mix
	ldr	r2, [sp, #8]                    @ 4-byte Reload
	str	r0, [sp, #16]
	ldr	r0, [sp, #16]
	str	r0, [sp, #88]
	.loc	10 215 35 is_stmt 1             @ lvgl/src/lv_widgets/lv_led.c:215:35
	ldr	r0, [sp, #148]
	.loc	10 215 40 is_stmt 0             @ lvgl/src/lv_widgets/lv_led.c:215:40
	ldrb	r0, [r0]
	.loc	10 215 47                       @ lvgl/src/lv_widgets/lv_led.c:215:47
	subs	r0, #120
	.loc	10 215 79                       @ lvgl/src/lv_widgets/lv_led.c:215:79
	ldrsh.w	r1, [sp, #92]
	.loc	10 215 68                       @ lvgl/src/lv_widgets/lv_led.c:215:68
	mul	r3, r0, r1
	movw	r12, #54857
	movt	r12, #62137
	.loc	10 215 93                       @ lvgl/src/lv_widgets/lv_led.c:215:93
	smmul	r3, r3, r12
	smlabb	r1, r0, r1, r3
	lsrs	r0, r1, #7
	add.w	r0, r0, r1, lsr #31
	.loc	10 215 31                       @ lvgl/src/lv_widgets/lv_led.c:215:31
	strh.w	r0, [sp, #92]
	.loc	10 217 36 is_stmt 1             @ lvgl/src/lv_widgets/lv_led.c:217:36
	ldr	r0, [sp, #148]
	.loc	10 217 41 is_stmt 0             @ lvgl/src/lv_widgets/lv_led.c:217:41
	ldrb	r0, [r0]
	.loc	10 217 48                       @ lvgl/src/lv_widgets/lv_led.c:217:48
	subs	r0, #120
	.loc	10 217 80                       @ lvgl/src/lv_widgets/lv_led.c:217:80
	ldrsh.w	r1, [sp, #98]
	.loc	10 217 69                       @ lvgl/src/lv_widgets/lv_led.c:217:69
	mul	r3, r0, r1
	.loc	10 217 95                       @ lvgl/src/lv_widgets/lv_led.c:217:95
	smmul	r3, r3, r12
	smlabb	r1, r0, r1, r3
	lsrs	r0, r1, #7
	add.w	r0, r0, r1, lsr #31
	.loc	10 217 32                       @ lvgl/src/lv_widgets/lv_led.c:217:32
	strh.w	r0, [sp, #98]
	.loc	10 220 23 is_stmt 1             @ lvgl/src/lv_widgets/lv_led.c:220:23
	ldr	r0, [sp, #160]
	.loc	10 220 28 is_stmt 0             @ lvgl/src/lv_widgets/lv_led.c:220:28
	adds	r0, #16
	.loc	10 220 36                       @ lvgl/src/lv_widgets/lv_led.c:220:36
	ldr	r1, [sp, #156]
	.loc	10 220 9                        @ lvgl/src/lv_widgets/lv_led.c:220:9
	bl	lv_draw_rect
	.loc	10 221 5 is_stmt 1              @ lvgl/src/lv_widgets/lv_led.c:221:5
	b	.LBB2_4
.Ltmp53:
.LBB2_4:
	.loc	10 0 5 is_stmt 0                @ lvgl/src/lv_widgets/lv_led.c:0:5
	b	.LBB2_5
.LBB2_5:
	movs	r0, #0
	.loc	10 222 5 is_stmt 1              @ lvgl/src/lv_widgets/lv_led.c:222:5
	strb.w	r0, [sp, #167]
	b	.LBB2_6
.LBB2_6:
	.loc	10 223 1                        @ lvgl/src/lv_widgets/lv_led.c:223:1
	ldrb.w	r0, [sp, #167]
	add	sp, #168
	pop	{r7, pc}
.Ltmp54:
.Lfunc_end2:
	.size	lv_led_design, .Lfunc_end2-lv_led_design
	.cfi_endproc
	.cantunwind
	.fnend
                                        @ -- End function
	.section	.text.lv_led_set_bright,"ax",%progbits
	.hidden	lv_led_set_bright               @ -- Begin function lv_led_set_bright
	.globl	lv_led_set_bright
	.p2align	3
	.type	lv_led_set_bright,%function
	.code	16                              @ @lv_led_set_bright
	.thumb_func
lv_led_set_bright:
.Lfunc_begin3:
	.loc	10 109 0                        @ lvgl/src/lv_widgets/lv_led.c:109:0
	.fnstart
	.cfi_startproc
@ %bb.0:
	.save	{r7, lr}
	push	{r7, lr}
	.cfi_def_cfa_offset 8
	.cfi_offset lr, -4
	.cfi_offset r7, -8
	.pad	#16
	sub	sp, #16
	.cfi_def_cfa_offset 24
                                        @ kill: def $r2 killed $r1
	str	r0, [sp, #12]
	strb.w	r1, [sp, #11]
.Ltmp55:
	.loc	10 110 5 prologue_end           @ lvgl/src/lv_widgets/lv_led.c:110:5
	b	.LBB3_1
.LBB3_1:
.Ltmp56:
	.loc	10 110 5 is_stmt 0              @ lvgl/src/lv_widgets/lv_led.c:110:5
	ldr	r0, [sp, #12]
	bl	lv_debug_check_null
.Ltmp57:
	.loc	10 110 5                        @ lvgl/src/lv_widgets/lv_led.c:110:5
	cbnz	r0, .LBB3_4
	b	.LBB3_2
.LBB3_2:
.Ltmp58:
	.loc	10 110 5                        @ lvgl/src/lv_widgets/lv_led.c:110:5
	ldr	r2, [sp, #12]
	movw	r0, :lower16:.L.str.1
	movt	r0, :upper16:.L.str.1
	movs	r3, #0
	bl	lv_debug_log_error
	b	.LBB3_3
.LBB3_3:                                @ =>This Inner Loop Header: Depth=1
	b	.LBB3_3
.Ltmp59:
.LBB3_4:
	.loc	10 110 5                        @ lvgl/src/lv_widgets/lv_led.c:110:5
	b	.LBB3_5
.Ltmp60:
.LBB3_5:
	.loc	10 113 46 is_stmt 1             @ lvgl/src/lv_widgets/lv_led.c:113:46
	ldr	r0, [sp, #12]
	.loc	10 113 26 is_stmt 0             @ lvgl/src/lv_widgets/lv_led.c:113:26
	bl	lv_obj_get_ext_attr
	.loc	10 113 20                       @ lvgl/src/lv_widgets/lv_led.c:113:20
	str	r0, [sp, #4]
.Ltmp61:
	.loc	10 114 8 is_stmt 1              @ lvgl/src/lv_widgets/lv_led.c:114:8
	ldr	r0, [sp, #4]
	.loc	10 114 13 is_stmt 0             @ lvgl/src/lv_widgets/lv_led.c:114:13
	ldrb	r0, [r0]
	.loc	10 114 23                       @ lvgl/src/lv_widgets/lv_led.c:114:23
	ldrb.w	r1, [sp, #11]
.Ltmp62:
	.loc	10 114 8                        @ lvgl/src/lv_widgets/lv_led.c:114:8
	cmp	r0, r1
	bne	.LBB3_7
	b	.LBB3_6
.LBB3_6:
.Ltmp63:
	.loc	10 114 31                       @ lvgl/src/lv_widgets/lv_led.c:114:31
	b	.LBB3_12
.Ltmp64:
.LBB3_7:
	.loc	10 116 8 is_stmt 1              @ lvgl/src/lv_widgets/lv_led.c:116:8
	ldrb.w	r0, [sp, #11]
.Ltmp65:
	.loc	10 116 8 is_stmt 0              @ lvgl/src/lv_widgets/lv_led.c:116:8
	cmp	r0, #120
	bgt	.LBB3_9
	b	.LBB3_8
.LBB3_8:
	.loc	10 0 8                          @ lvgl/src/lv_widgets/lv_led.c:0:8
	movs	r0, #120
.Ltmp66:
	.loc	10 116 44                       @ lvgl/src/lv_widgets/lv_led.c:116:44
	strb.w	r0, [sp, #11]
	.loc	10 116 37                       @ lvgl/src/lv_widgets/lv_led.c:116:37
	b	.LBB3_9
.Ltmp67:
.LBB3_9:
	.loc	10 117 8 is_stmt 1              @ lvgl/src/lv_widgets/lv_led.c:117:8
	ldrb.w	r0, [sp, #11]
.Ltmp68:
	.loc	10 117 8 is_stmt 0              @ lvgl/src/lv_widgets/lv_led.c:117:8
	cmp	r0, #255
	blt	.LBB3_11
	b	.LBB3_10
.LBB3_10:
	.loc	10 0 8                          @ lvgl/src/lv_widgets/lv_led.c:0:8
	movs	r0, #255
.Ltmp69:
	.loc	10 117 44                       @ lvgl/src/lv_widgets/lv_led.c:117:44
	strb.w	r0, [sp, #11]
	.loc	10 117 37                       @ lvgl/src/lv_widgets/lv_led.c:117:37
	b	.LBB3_11
.Ltmp70:
.LBB3_11:
	.loc	10 119 19 is_stmt 1             @ lvgl/src/lv_widgets/lv_led.c:119:19
	ldrb.w	r0, [sp, #11]
	.loc	10 119 5 is_stmt 0              @ lvgl/src/lv_widgets/lv_led.c:119:5
	ldr	r1, [sp, #4]
	.loc	10 119 17                       @ lvgl/src/lv_widgets/lv_led.c:119:17
	strb	r0, [r1]
	.loc	10 122 23 is_stmt 1             @ lvgl/src/lv_widgets/lv_led.c:122:23
	ldr	r0, [sp, #12]
	.loc	10 122 5 is_stmt 0              @ lvgl/src/lv_widgets/lv_led.c:122:5
	bl	lv_obj_invalidate
	.loc	10 123 1 is_stmt 1              @ lvgl/src/lv_widgets/lv_led.c:123:1
	b	.LBB3_12
.LBB3_12:
	add	sp, #16
	pop	{r7, pc}
.Ltmp71:
.Lfunc_end3:
	.size	lv_led_set_bright, .Lfunc_end3-lv_led_set_bright
	.cfi_endproc
	.cantunwind
	.fnend
                                        @ -- End function
	.section	.text.lv_led_on,"ax",%progbits
	.hidden	lv_led_on                       @ -- Begin function lv_led_on
	.globl	lv_led_on
	.p2align	3
	.type	lv_led_on,%function
	.code	16                              @ @lv_led_on
	.thumb_func
lv_led_on:
.Lfunc_begin4:
	.loc	10 130 0                        @ lvgl/src/lv_widgets/lv_led.c:130:0
	.fnstart
	.cfi_startproc
@ %bb.0:
	.save	{r7, lr}
	push	{r7, lr}
	.cfi_def_cfa_offset 8
	.cfi_offset lr, -4
	.cfi_offset r7, -8
	.pad	#8
	sub	sp, #8
	.cfi_def_cfa_offset 16
	str	r0, [sp, #4]
.Ltmp72:
	.loc	10 131 5 prologue_end           @ lvgl/src/lv_widgets/lv_led.c:131:5
	b	.LBB4_1
.LBB4_1:
.Ltmp73:
	.loc	10 131 5 is_stmt 0              @ lvgl/src/lv_widgets/lv_led.c:131:5
	ldr	r0, [sp, #4]
	bl	lv_debug_check_null
.Ltmp74:
	.loc	10 131 5                        @ lvgl/src/lv_widgets/lv_led.c:131:5
	cbnz	r0, .LBB4_4
	b	.LBB4_2
.LBB4_2:
.Ltmp75:
	.loc	10 131 5                        @ lvgl/src/lv_widgets/lv_led.c:131:5
	ldr	r2, [sp, #4]
	movw	r0, :lower16:.L.str.1
	movt	r0, :upper16:.L.str.1
	movs	r3, #0
	bl	lv_debug_log_error
	b	.LBB4_3
.LBB4_3:                                @ =>This Inner Loop Header: Depth=1
	b	.LBB4_3
.Ltmp76:
.LBB4_4:
	.loc	10 131 5                        @ lvgl/src/lv_widgets/lv_led.c:131:5
	b	.LBB4_5
.Ltmp77:
.LBB4_5:
	.loc	10 133 23 is_stmt 1             @ lvgl/src/lv_widgets/lv_led.c:133:23
	ldr	r0, [sp, #4]
	movs	r1, #255
	.loc	10 133 5 is_stmt 0              @ lvgl/src/lv_widgets/lv_led.c:133:5
	bl	lv_led_set_bright
	.loc	10 134 1 is_stmt 1              @ lvgl/src/lv_widgets/lv_led.c:134:1
	add	sp, #8
	pop	{r7, pc}
.Ltmp78:
.Lfunc_end4:
	.size	lv_led_on, .Lfunc_end4-lv_led_on
	.cfi_endproc
	.cantunwind
	.fnend
                                        @ -- End function
	.section	.text.lv_led_off,"ax",%progbits
	.hidden	lv_led_off                      @ -- Begin function lv_led_off
	.globl	lv_led_off
	.p2align	3
	.type	lv_led_off,%function
	.code	16                              @ @lv_led_off
	.thumb_func
lv_led_off:
.Lfunc_begin5:
	.loc	10 141 0                        @ lvgl/src/lv_widgets/lv_led.c:141:0
	.fnstart
	.cfi_startproc
@ %bb.0:
	.save	{r7, lr}
	push	{r7, lr}
	.cfi_def_cfa_offset 8
	.cfi_offset lr, -4
	.cfi_offset r7, -8
	.pad	#8
	sub	sp, #8
	.cfi_def_cfa_offset 16
	str	r0, [sp, #4]
.Ltmp79:
	.loc	10 142 5 prologue_end           @ lvgl/src/lv_widgets/lv_led.c:142:5
	b	.LBB5_1
.LBB5_1:
.Ltmp80:
	.loc	10 142 5 is_stmt 0              @ lvgl/src/lv_widgets/lv_led.c:142:5
	ldr	r0, [sp, #4]
	bl	lv_debug_check_null
.Ltmp81:
	.loc	10 142 5                        @ lvgl/src/lv_widgets/lv_led.c:142:5
	cbnz	r0, .LBB5_4
	b	.LBB5_2
.LBB5_2:
.Ltmp82:
	.loc	10 142 5                        @ lvgl/src/lv_widgets/lv_led.c:142:5
	ldr	r2, [sp, #4]
	movw	r0, :lower16:.L.str.1
	movt	r0, :upper16:.L.str.1
	movs	r3, #0
	bl	lv_debug_log_error
	b	.LBB5_3
.LBB5_3:                                @ =>This Inner Loop Header: Depth=1
	b	.LBB5_3
.Ltmp83:
.LBB5_4:
	.loc	10 142 5                        @ lvgl/src/lv_widgets/lv_led.c:142:5
	b	.LBB5_5
.Ltmp84:
.LBB5_5:
	.loc	10 144 23 is_stmt 1             @ lvgl/src/lv_widgets/lv_led.c:144:23
	ldr	r0, [sp, #4]
	movs	r1, #120
	.loc	10 144 5 is_stmt 0              @ lvgl/src/lv_widgets/lv_led.c:144:5
	bl	lv_led_set_bright
	.loc	10 145 1 is_stmt 1              @ lvgl/src/lv_widgets/lv_led.c:145:1
	add	sp, #8
	pop	{r7, pc}
.Ltmp85:
.Lfunc_end5:
	.size	lv_led_off, .Lfunc_end5-lv_led_off
	.cfi_endproc
	.cantunwind
	.fnend
                                        @ -- End function
	.section	.text.lv_led_toggle,"ax",%progbits
	.hidden	lv_led_toggle                   @ -- Begin function lv_led_toggle
	.globl	lv_led_toggle
	.p2align	3
	.type	lv_led_toggle,%function
	.code	16                              @ @lv_led_toggle
	.thumb_func
lv_led_toggle:
.Lfunc_begin6:
	.loc	10 152 0                        @ lvgl/src/lv_widgets/lv_led.c:152:0
	.fnstart
	.cfi_startproc
@ %bb.0:
	.save	{r7, lr}
	push	{r7, lr}
	.cfi_def_cfa_offset 8
	.cfi_offset lr, -4
	.cfi_offset r7, -8
	.pad	#8
	sub	sp, #8
	.cfi_def_cfa_offset 16
	str	r0, [sp, #4]
.Ltmp86:
	.loc	10 153 5 prologue_end           @ lvgl/src/lv_widgets/lv_led.c:153:5
	b	.LBB6_1
.LBB6_1:
.Ltmp87:
	.loc	10 153 5 is_stmt 0              @ lvgl/src/lv_widgets/lv_led.c:153:5
	ldr	r0, [sp, #4]
	bl	lv_debug_check_null
.Ltmp88:
	.loc	10 153 5                        @ lvgl/src/lv_widgets/lv_led.c:153:5
	cbnz	r0, .LBB6_4
	b	.LBB6_2
.LBB6_2:
.Ltmp89:
	.loc	10 153 5                        @ lvgl/src/lv_widgets/lv_led.c:153:5
	ldr	r2, [sp, #4]
	movw	r0, :lower16:.L.str.1
	movt	r0, :upper16:.L.str.1
	movs	r3, #0
	bl	lv_debug_log_error
	b	.LBB6_3
.LBB6_3:                                @ =>This Inner Loop Header: Depth=1
	b	.LBB6_3
.Ltmp90:
.LBB6_4:
	.loc	10 153 5                        @ lvgl/src/lv_widgets/lv_led.c:153:5
	b	.LBB6_5
.Ltmp91:
.LBB6_5:
	.loc	10 155 40 is_stmt 1             @ lvgl/src/lv_widgets/lv_led.c:155:40
	ldr	r0, [sp, #4]
	.loc	10 155 22 is_stmt 0             @ lvgl/src/lv_widgets/lv_led.c:155:22
	bl	lv_led_get_bright
	.loc	10 155 13                       @ lvgl/src/lv_widgets/lv_led.c:155:13
	strb.w	r0, [sp, #3]
.Ltmp92:
	.loc	10 156 8 is_stmt 1              @ lvgl/src/lv_widgets/lv_led.c:156:8
	ldrb.w	r0, [sp, #3]
.Ltmp93:
	.loc	10 156 8 is_stmt 0              @ lvgl/src/lv_widgets/lv_led.c:156:8
	cmp	r0, #188
	blt	.LBB6_7
	b	.LBB6_6
.LBB6_6:
.Ltmp94:
	.loc	10 157 20 is_stmt 1             @ lvgl/src/lv_widgets/lv_led.c:157:20
	ldr	r0, [sp, #4]
	.loc	10 157 9 is_stmt 0              @ lvgl/src/lv_widgets/lv_led.c:157:9
	bl	lv_led_off
	b	.LBB6_8
.LBB6_7:
	.loc	10 159 19 is_stmt 1             @ lvgl/src/lv_widgets/lv_led.c:159:19
	ldr	r0, [sp, #4]
	.loc	10 159 9 is_stmt 0              @ lvgl/src/lv_widgets/lv_led.c:159:9
	bl	lv_led_on
	b	.LBB6_8
.Ltmp95:
.LBB6_8:
	.loc	10 160 1 is_stmt 1              @ lvgl/src/lv_widgets/lv_led.c:160:1
	add	sp, #8
	pop	{r7, pc}
.Ltmp96:
.Lfunc_end6:
	.size	lv_led_toggle, .Lfunc_end6-lv_led_toggle
	.cfi_endproc
	.cantunwind
	.fnend
                                        @ -- End function
	.section	.text.lv_led_get_bright,"ax",%progbits
	.hidden	lv_led_get_bright               @ -- Begin function lv_led_get_bright
	.globl	lv_led_get_bright
	.p2align	3
	.type	lv_led_get_bright,%function
	.code	16                              @ @lv_led_get_bright
	.thumb_func
lv_led_get_bright:
.Lfunc_begin7:
	.loc	10 172 0                        @ lvgl/src/lv_widgets/lv_led.c:172:0
	.fnstart
	.cfi_startproc
@ %bb.0:
	.save	{r7, lr}
	push	{r7, lr}
	.cfi_def_cfa_offset 8
	.cfi_offset lr, -4
	.cfi_offset r7, -8
	.pad	#8
	sub	sp, #8
	.cfi_def_cfa_offset 16
	str	r0, [sp, #4]
.Ltmp97:
	.loc	10 173 5 prologue_end           @ lvgl/src/lv_widgets/lv_led.c:173:5
	b	.LBB7_1
.LBB7_1:
.Ltmp98:
	.loc	10 173 5 is_stmt 0              @ lvgl/src/lv_widgets/lv_led.c:173:5
	ldr	r0, [sp, #4]
	bl	lv_debug_check_null
.Ltmp99:
	.loc	10 173 5                        @ lvgl/src/lv_widgets/lv_led.c:173:5
	cbnz	r0, .LBB7_4
	b	.LBB7_2
.LBB7_2:
.Ltmp100:
	.loc	10 173 5                        @ lvgl/src/lv_widgets/lv_led.c:173:5
	ldr	r2, [sp, #4]
	movw	r0, :lower16:.L.str.1
	movt	r0, :upper16:.L.str.1
	movs	r3, #0
	bl	lv_debug_log_error
	b	.LBB7_3
.LBB7_3:                                @ =>This Inner Loop Header: Depth=1
	b	.LBB7_3
.Ltmp101:
.LBB7_4:
	.loc	10 173 5                        @ lvgl/src/lv_widgets/lv_led.c:173:5
	b	.LBB7_5
.Ltmp102:
.LBB7_5:
	.loc	10 175 46 is_stmt 1             @ lvgl/src/lv_widgets/lv_led.c:175:46
	ldr	r0, [sp, #4]
	.loc	10 175 26 is_stmt 0             @ lvgl/src/lv_widgets/lv_led.c:175:26
	bl	lv_obj_get_ext_attr
	.loc	10 175 20                       @ lvgl/src/lv_widgets/lv_led.c:175:20
	str	r0, [sp]
	.loc	10 176 12 is_stmt 1             @ lvgl/src/lv_widgets/lv_led.c:176:12
	ldr	r0, [sp]
	.loc	10 176 17 is_stmt 0             @ lvgl/src/lv_widgets/lv_led.c:176:17
	ldrb	r0, [r0]
	.loc	10 176 5                        @ lvgl/src/lv_widgets/lv_led.c:176:5
	add	sp, #8
	pop	{r7, pc}
.Ltmp103:
.Lfunc_end7:
	.size	lv_led_get_bright, .Lfunc_end7-lv_led_get_bright
	.cfi_endproc
	.cantunwind
	.fnend
                                        @ -- End function
	.section	.text.lv_color_mix,"ax",%progbits
	.p2align	3                               @ -- Begin function lv_color_mix
	.type	lv_color_mix,%function
	.code	16                              @ @lv_color_mix
	.thumb_func
lv_color_mix:
.Lfunc_begin8:
	.file	13 "E:\\STM32\\Learning\\STM32H750_ART_PI_RGBLCD" "lvgl/src/lv_widgets/../lv_core/../lv_hal/../lv_misc/lv_color.h"
	.loc	13 441 0 is_stmt 1              @ lvgl/src/lv_widgets/../lv_core/../lv_hal/../lv_misc/lv_color.h:441:0
	.fnstart
	.cfi_startproc
@ %bb.0:
	.pad	#16
	sub	sp, #16
	.cfi_def_cfa_offset 16
                                        @ kill: def $r3 killed $r2
	str	r0, [sp, #8]
	str	r1, [sp, #4]
	strb.w	r2, [sp, #3]
.Ltmp104:
	.loc	13 445 5 prologue_end           @ lvgl/src/lv_widgets/../lv_core/../lv_hal/../lv_misc/lv_color.h:445:5
	ldrb.w	r0, [sp, #10]
	ldrb.w	r1, [sp, #3]
	mul	r2, r0, r1
	ldrb.w	r0, [sp, #6]
	rsb.w	r1, r1, #255
	smlabb	r0, r0, r1, r2
	movw	r1, #32897
	muls	r0, r1, r0
	lsrs	r0, r0, #23
	strb.w	r0, [sp, #14]
	.loc	13 447 5                        @ lvgl/src/lv_widgets/../lv_core/../lv_hal/../lv_misc/lv_color.h:447:5
	ldrb.w	r0, [sp, #9]
	ldrb.w	r2, [sp, #3]
	mul	r3, r0, r2
	ldrb.w	r0, [sp, #5]
	rsb.w	r2, r2, #255
	smlabb	r0, r0, r2, r3
	muls	r0, r1, r0
	lsrs	r0, r0, #23
	strb.w	r0, [sp, #13]
	.loc	13 449 5                        @ lvgl/src/lv_widgets/../lv_core/../lv_hal/../lv_misc/lv_color.h:449:5
	ldrb.w	r0, [sp, #8]
	ldrb.w	r2, [sp, #3]
	mul	r3, r0, r2
	ldrb.w	r0, [sp, #4]
	rsb.w	r2, r2, #255
	smlabb	r0, r0, r2, r3
	muls	r0, r1, r0
	lsrs	r0, r0, #23
	strb.w	r0, [sp, #12]
	movs	r0, #255
	.loc	13 451 5                        @ lvgl/src/lv_widgets/../lv_core/../lv_hal/../lv_misc/lv_color.h:451:5
	strb.w	r0, [sp, #15]
	.loc	13 457 5                        @ lvgl/src/lv_widgets/../lv_core/../lv_hal/../lv_misc/lv_color.h:457:5
	ldr	r0, [sp, #12]
	add	sp, #16
	bx	lr
.Ltmp105:
.Lfunc_end8:
	.size	lv_color_mix, .Lfunc_end8-lv_color_mix
	.cfi_endproc
	.cantunwind
	.fnend
                                        @ -- End function
	.type	.L.str,%object                  @ @.str
	.section	.rodata.str1.1,"aMS",%progbits,1
.L.str:
	.asciz	"Out of memory"
	.size	.L.str, 14

	.type	ancestor_signal,%object         @ @ancestor_signal
	.section	.bss.ancestor_signal,"aw",%nobits
	.p2align	2
ancestor_signal:
	.long	0
	.size	ancestor_signal, 4

	.type	ancestor_design,%object         @ @ancestor_design
	.section	.bss.ancestor_design,"aw",%nobits
	.p2align	2
ancestor_design:
	.long	0
	.size	ancestor_design, 4

	.type	.L.str.1,%object                @ @.str.1
	.section	.rodata.str1.1,"aMS",%progbits,1
.L.str.1:
	.asciz	"NULL pointer"
	.size	.L.str.1, 13

	.type	.L.str.2,%object                @ @.str.2
.L.str.2:
	.asciz	"lv_led"
	.size	.L.str.2, 7

	.file	14 "E:\\STM32\\Learning\\STM32H750_ART_PI_RGBLCD" "lvgl/src/lv_widgets/../lv_core/../lv_draw/lv_draw_rect.h"
	.file	15 "E:\\STM32\\Learning\\STM32H750_ART_PI_RGBLCD" "lvgl/src/lv_widgets/../lv_core/../lv_draw/lv_draw_blend.h"
	.file	16 "E:\\STM32\\Learning\\STM32H750_ART_PI_RGBLCD" "lvgl/src/lv_widgets/../lv_core/../lv_font/../lv_misc/../lv_font/lv_font.h"
	.section	".note.GNU-stack","",%progbits
	.eabi_attribute	30, 6	@ Tag_ABI_optimization_goals
	.ARM_attribute	16, 1	@ Tag_AV_eba