	.text
	.syntax unified
	.eabi_attribute	67, "2.09"	@ Tag_conformance
	.cpu	cortex-m7
	.eabi_attribute	6, 13	@ Tag_CPU_arch
	.eabi_attribute	7, 77	@ Tag_CPU_arch_profile
	.eabi_attribute	8, 0	@ Tag_ARM_ISA_use
	.eabi_attribute	9, 2	@ Tag_THUMB_ISA_use
	.fpu	fpv5-d16
	.eabi_attribute	36, 1	@ Tag_FP_HP_extension
	.eabi_attribute	34, 1	@ Tag_CPU_unaligned_access
	.eabi_attribute	17, 1	@ Tag_ABI_PCS_GOT_use
	.eabi_attribute	20, 2	@ Tag_ABI_FP_denormal
	.eabi_attribute	21, 0	@ Tag_ABI_FP_exceptions
	.eabi_attribute	23, 1	@ Tag_ABI_FP_number_model
	.eabi_attribute	24, 1	@ Tag_ABI_align_needed
	.eabi_attribute	25, 1	@ Tag_ABI_align_preserved
	.eabi_attribute	28, 1	@ Tag_ABI_VFP_args
	.eabi_attribute	38, 1	@ Tag_ABI_FP_16bit_format
	.eabi_attribute	18, 2	@ Tag_ABI_PCS_wchar_t
	.eabi_attribute	26, 1	@ Tag_ABI_enum_size
	.eabi_attribute	14, 0	@ Tag_ABI_PCS_R9_use
	.file	"lv_linemeter.c"
	.file	1 "D:\\Keil_v5\\ARM\\ARMCLANG\\Bin\\..\\include" "stdint.h"
	.file	2 "E:\\Smart-access-control\\Hardware\\CODE" "lvgl/src/lv_widgets/../lv_core/../lv_draw/../lv_misc/lv_types.h"
	.file	3 "E:\\Smart-access-control\\Hardware\\CODE" "lvgl/src/lv_widgets/../lv_themes/../lv_core/lv_obj.h"
	.file	4 "E:\\Smart-access-control\\Hardware\\CODE" "lvgl/src/lv_widgets/../lv_core/../lv_font/../lv_misc/lv_ll.h"
	.file	5 "E:\\Smart-access-control\\Hardware\\CODE" "./lvgl/src/lv_conf.h"
	.file	6 "E:\\Smart-access-control\\Hardware\\CODE" "lvgl/src/lv_widgets/../lv_core/../lv_hal/../lv_misc/lv_area.h"
	.file	7 "E:\\Smart-access-control\\Hardware\\CODE" "lvgl/src/lv_widgets/../lv_themes/../lv_core/lv_style.h"
	.file	8 "E:\\Smart-access-control\\Hardware\\CODE" "lvgl/src/lv_widgets/../lv_core/../lv_hal/lv_hal_indev.h"
	.file	9 "E:\\Smart-access-control\\Hardware\\CODE" "lvgl/src/lv_widgets/../lv_core/../lv_draw/../lv_misc/lv_bidi.h"
	.file	10 "E:\\Smart-access-control\\Hardware\\CODE" "lvgl/src/lv_widgets/lv_linemeter.c"
	.file	11 "E:\\Smart-access-control\\Hardware\\CODE" "lvgl/src/lv_widgets/../lv_themes/lv_theme.h"
	.file	12 "E:\\Smart-access-control\\Hardware\\CODE" "lvgl/src/lv_widgets/lv_linemeter.h"
	.section	.text.lv_linemeter_create,"ax",%progbits
	.hidden	lv_linemeter_create             @ -- Begin function lv_linemeter_create
	.globl	lv_linemeter_create
	.p2align	3
	.type	lv_linemeter_create,%function
	.code	16                              @ @lv_linemeter_create
	.thumb_func
lv_linemeter_create:
.Lfunc_begin0:
	.loc	10 54 0                         @ lvgl/src/lv_widgets/lv_linemeter.c:54:0
	.fnstart
	.cfi_sections .debug_frame
	.cfi_startproc
@ %bb.0:
	@DEBUG_VALUE: lv_linemeter_create:par <- $r0
	@DEBUG_VALUE: lv_linemeter_create:copy <- $r1
	.save	{r4, r5, r6, lr}
	push	{r4, r5, r6, lr}
	.cfi_def_cfa_offset 16
	.cfi_offset lr, -4
	.cfi_offset r6, -8
	.cfi_offset r5, -12
	.cfi_offset r4, -16
	mov	r5, r1
.Ltmp0:
	@DEBUG_VALUE: lv_linemeter_create:copy <- $r5
	@DEBUG_VALUE: lv_linemeter_create:par <- $r0
	@DEBUG_VALUE: lv_linemeter_create:par <- $r0
	.loc	10 58 28 prologue_end           @ lvgl/src/lv_widgets/lv_linemeter.c:58:28
	bl	lv_obj_create
.Ltmp1:
	@DEBUG_VALUE: lv_linemeter_create:par <- [DW_OP_LLVM_entry_value 1] $r0
	mov	r4, r0
.Ltmp2:
	@DEBUG_VALUE: lv_linemeter_create:linemeter <- $r4
	.loc	10 59 5                         @ lvgl/src/lv_widgets/lv_linemeter.c:59:5
	bl	lv_debug_check_null
.Ltmp3:
	.loc	10 59 5 is_stmt 0               @ lvgl/src/lv_widgets/lv_linemeter.c:59:5
	cmp	r0, #0
	beq	.LBB0_8
.Ltmp4:
@ %bb.1:
	@DEBUG_VALUE: lv_linemeter_create:copy <- $r5
	@DEBUG_VALUE: lv_linemeter_create:linemeter <- $r4
	@DEBUG_VALUE: lv_linemeter_create:par <- [DW_OP_LLVM_entry_value 1] $r0
	.loc	10 60 8 is_stmt 1               @ lvgl/src/lv_widgets/lv_linemeter.c:60:8
	cmp	r4, #0
	beq	.LBB0_10
.Ltmp5:
@ %bb.2:
	@DEBUG_VALUE: lv_linemeter_create:copy <- $r5
	@DEBUG_VALUE: lv_linemeter_create:linemeter <- $r4
	@DEBUG_VALUE: lv_linemeter_create:par <- [DW_OP_LLVM_entry_value 1] $r0
	.loc	10 62 8                         @ lvgl/src/lv_widgets/lv_linemeter.c:62:8
	movw	r6, :lower16:ancestor_signal
	movt	r6, :upper16:ancestor_signal
	ldr	r0, [r6]
.Ltmp6:
	.loc	10 62 8 is_stmt 0               @ lvgl/src/lv_widgets/lv_linemeter.c:62:8
	cbnz	r0, .LBB0_4
.Ltmp7:
@ %bb.3:
	@DEBUG_VALUE: lv_linemeter_create:copy <- $r5
	@DEBUG_VALUE: lv_linemeter_create:linemeter <- $r4
	@DEBUG_VALUE: lv_linemeter_create:par <- [DW_OP_LLVM_entry_value 1] $r0
	.loc	10 62 51                        @ lvgl/src/lv_widgets/lv_linemeter.c:62:51
	mov	r0, r4
	bl	lv_obj_get_signal_cb
	.loc	10 62 49                        @ lvgl/src/lv_widgets/lv_linemeter.c:62:49
	str	r0, [r6]
.Ltmp8:
.LBB0_4:
	@DEBUG_VALUE: lv_linemeter_create:copy <- $r5
	@DEBUG_VALUE: lv_linemeter_create:linemeter <- $r4
	@DEBUG_VALUE: lv_linemeter_create:par <- [DW_OP_LLVM_entry_value 1] $r0
	.loc	10 65 32 is_stmt 1              @ lvgl/src/lv_widgets/lv_linemeter.c:65:32
	movs	r1, #24
	mov	r0, r4
	bl	lv_obj_allocate_ext_attr
	mov	r6, r0
.Ltmp9:
	@DEBUG_VALUE: lv_linemeter_create:ext <- $r6
	.loc	10 66 5                         @ lvgl/src/lv_widgets/lv_linemeter.c:66:5
	bl	lv_debug_check_null
.Ltmp10:
	.loc	10 66 5 is_stmt 0               @ lvgl/src/lv_widgets/lv_linemeter.c:66:5
	cbz	r0, .LBB0_11
.Ltmp11:
@ %bb.5:
	@DEBUG_VALUE: lv_linemeter_create:ext <- $r6
	@DEBUG_VALUE: lv_linemeter_create:copy <- $r5
	@DEBUG_VALUE: lv_linemeter_create:linemeter <- $r4
	@DEBUG_VALUE: lv_linemeter_create:par <- [DW_OP_LLVM_entry_value 1] $r0
	.loc	10 67 8 is_stmt 1               @ lvgl/src/lv_widgets/lv_linemeter.c:67:8
	cmp	r6, #0
	beq	.LBB0_13
.Ltmp12:
@ %bb.6:
	@DEBUG_VALUE: lv_linemeter_create:ext <- $r6
	@DEBUG_VALUE: lv_linemeter_create:copy <- $r5
	@DEBUG_VALUE: lv_linemeter_create:linemeter <- $r4
	@DEBUG_VALUE: lv_linemeter_create:par <- [DW_OP_LLVM_entry_value 1] $r0
	.loc	10 0 8 is_stmt 0                @ lvgl/src/lv_widgets/lv_linemeter.c:0:8
	movs	r0, #0
	.loc	10 75 22 is_stmt 1              @ lvgl/src/lv_widgets/lv_linemeter.c:75:22
	str	r0, [r6, #8]
	movs	r1, #100
	.loc	10 73 22                        @ lvgl/src/lv_widgets/lv_linemeter.c:73:22
	strd	r0, r1, [r6, #12]
	movs	r0, #18
	.loc	10 76 22                        @ lvgl/src/lv_widgets/lv_linemeter.c:76:22
	strh	r0, [r6, #4]
	.loc	10 79 19                        @ lvgl/src/lv_widgets/lv_linemeter.c:79:19
	ldrb	r0, [r6, #20]
	movs	r1, #240
	.loc	10 77 22                        @ lvgl/src/lv_widgets/lv_linemeter.c:77:22
	str	r1, [r6]
	.loc	10 82 5                         @ lvgl/src/lv_widgets/lv_linemeter.c:82:5
	movw	r1, :lower16:lv_linemeter_signal
	.loc	10 79 19                        @ lvgl/src/lv_widgets/lv_linemeter.c:79:19
	and	r0, r0, #254
	strb	r0, [r6, #20]
	.loc	10 82 5                         @ lvgl/src/lv_widgets/lv_linemeter.c:82:5
	movt	r1, :upper16:lv_linemeter_signal
	mov	r0, r4
	bl	lv_obj_set_signal_cb
	.loc	10 83 5                         @ lvgl/src/lv_widgets/lv_linemeter.c:83:5
	movw	r1, :lower16:lv_linemeter_design
	mov	r0, r4
	movt	r1, :upper16:lv_linemeter_design
	bl	lv_obj_set_design_cb
	.loc	10 86 8                         @ lvgl/src/lv_widgets/lv_linemeter.c:86:8
	cbz	r5, .LBB0_14
.Ltmp13:
@ %bb.7:
	@DEBUG_VALUE: lv_linemeter_create:ext <- $r6
	@DEBUG_VALUE: lv_linemeter_create:copy <- $r5
	@DEBUG_VALUE: lv_linemeter_create:linemeter <- $r4
	@DEBUG_VALUE: lv_linemeter_create:par <- [DW_OP_LLVM_entry_value 1] $r0
	.loc	10 92 41                        @ lvgl/src/lv_widgets/lv_linemeter.c:92:41
	mov	r0, r5
	bl	lv_obj_get_ext_attr
.Ltmp14:
	@DEBUG_VALUE: copy_ext <- $r0
	.loc	10 93 48                        @ lvgl/src/lv_widgets/lv_linemeter.c:93:48
	ldrh	r1, [r0]
	.loc	10 100 9                        @ lvgl/src/lv_widgets/lv_linemeter.c:100:9
	movs	r2, #255
	.loc	10 93 36                        @ lvgl/src/lv_widgets/lv_linemeter.c:93:36
	strh	r1, [r6]
	.loc	10 94 48                        @ lvgl/src/lv_widgets/lv_linemeter.c:94:48
	ldrh	r1, [r0, #4]
	.loc	10 94 36 is_stmt 0              @ lvgl/src/lv_widgets/lv_linemeter.c:94:36
	strh	r1, [r6, #4]
	.loc	10 97 48 is_stmt 1              @ lvgl/src/lv_widgets/lv_linemeter.c:97:48
	ldr	r1, [r0, #8]
	.loc	10 97 36 is_stmt 0              @ lvgl/src/lv_widgets/lv_linemeter.c:97:36
	str	r1, [r6, #8]
	.loc	10 95 48 is_stmt 1              @ lvgl/src/lv_widgets/lv_linemeter.c:95:48
	ldr	r1, [r0, #12]
	.loc	10 95 36 is_stmt 0              @ lvgl/src/lv_widgets/lv_linemeter.c:95:36
	str	r1, [r6, #12]
	.loc	10 96 48 is_stmt 1              @ lvgl/src/lv_widgets/lv_linemeter.c:96:48
	ldr	r0, [r0, #16]
.Ltmp15:
	.loc	10 96 36 is_stmt 0              @ lvgl/src/lv_widgets/lv_linemeter.c:96:36
	str	r0, [r6, #16]
	.loc	10 100 9 is_stmt 1              @ lvgl/src/lv_widgets/lv_linemeter.c:100:9
	movs	r1, #255
	mov	r0, r4
	bl	lv_obj_refresh_style
.Ltmp16:
	.loc	10 106 1                        @ lvgl/src/lv_widgets/lv_linemeter.c:106:1
	mov	r0, r4
	pop	{r4, r5, r6, pc}
.Ltmp17:
.LBB0_8:
	@DEBUG_VALUE: lv_linemeter_create:copy <- $r5
	@DEBUG_VALUE: lv_linemeter_create:linemeter <- $r4
	@DEBUG_VALUE: lv_linemeter_create:par <- [DW_OP_LLVM_entry_value 1] $r0
	.loc	10 59 5                         @ lvgl/src/lv_widgets/lv_linemeter.c:59:5
	movw	r0, :lower16:.L.str
	movs	r3, #0
	movt	r0, :upper16:.L.str
	mov	r2, r4
	bl	lv_debug_log_error
.Ltmp18:
	.p2align	2
.LBB0_9:                                @ =>This Inner Loop Header: Depth=1
	@DEBUG_VALUE: lv_linemeter_create:copy <- $r5
	@DEBUG_VALUE: lv_linemeter_create:linemeter <- $r4
	@DEBUG_VALUE: lv_linemeter_create:par <- [DW_OP_LLVM_entry_value 1] $r0
	b	.LBB0_9
.Ltmp19:
.LBB0_10:
	@DEBUG_VALUE: lv_linemeter_create:copy <- $r5
	@DEBUG_VALUE: lv_linemeter_create:linemeter <- $r4
	@DEBUG_VALUE: lv_linemeter_create:par <- [DW_OP_LLVM_entry_value 1] $r0
	.loc	10 0 5 is_stmt 0                @ lvgl/src/lv_widgets/lv_linemeter.c:0:5
	movs	r0, #0
	.loc	10 106 1 is_stmt 1              @ lvgl/src/lv_widgets/lv_linemeter.c:106:1
	pop	{r4, r5, r6, pc}
.Ltmp20:
.LBB0_11:
	@DEBUG_VALUE: lv_linemeter_create:ext <- $r6
	@DEBUG_VALUE: lv_linemeter_create:copy <- $r5
	@DEBUG_VALUE: lv_linemeter_create:linemeter <- $r4
	@DEBUG_VALUE: lv_linemeter_create:par <- [DW_OP_LLVM_entry_value 1] $r0
	.loc	10 66 5                         @ lvgl/src/lv_widgets/lv_linemeter.c:66:5
	movw	r0, :lower16:.L.str
	movs	r3, #0
	movt	r0, :upper16:.L.str
	mov	r2, r6
	bl	lv_debug_log_error
.Ltmp21:
	.p2align	2
.LBB0_12:                               @ =>This Inner Loop Header: Depth=1
	@DEBUG_VALUE: lv_linemeter_create:ext <- $r6
	@DEBUG_VALUE: lv_linemeter_create:copy <- $r5
	@DEBUG_VALUE: lv_linemeter_create:linemeter <- $r4
	@DEBUG_VALUE: lv_linemeter_create:par <- [DW_OP_LLVM_entry_value 1] $r0
	b	.LBB0_12
.Ltmp22:
.LBB0_13:
	@DEBUG_VALUE: lv_linemeter_create:ext <- $r6
	@DEBUG_VALUE: lv_linemeter_create:copy <- $r5
	@DEBUG_VALUE: lv_linemeter_create:linemeter <- $r4
	@DEBUG_VALUE: lv_linemeter_create:par <- [DW_OP_LLVM_entry_value 1] $r0
	.loc	10 68 9                         @ lvgl/src/lv_widgets/lv_linemeter.c:68:9
	mov	r0, r4
	bl	lv_obj_del
	movs	r0, #0
.Ltmp23:
	.loc	10 106 1                        @ lvgl/src/lv_widgets/lv_linemeter.c:106:1
	pop	{r4, r5, r6, pc}
.Ltmp24:
.LBB0_14:
	@DEBUG_VALUE: lv_linemeter_create:ext <- $r6
	@DEBUG_VALUE: lv_linemeter_create:copy <- $r5
	@DEBUG_VALUE: lv_linemeter_create:linemeter <- $r4
	@DEBUG_VALUE: lv_linemeter_create:par <- [DW_OP_LLVM_entry_value 1] $r0
	.loc	10 87 9                         @ lvgl/src/lv_widgets/lv_linemeter.c:87:9
	movs	r1, #195
	movs	r2, #195
	mov	r0, r4
	bl	lv_obj_set_size
	.loc	10 88 9                         @ lvgl/src/lv_widgets/lv_linemeter.c:88:9
	movs	r1, #23
	mov	r0, r4
	bl	lv_theme_apply
.Ltmp25:
	.loc	10 106 1                        @ lvgl/src/lv_widgets/lv_linemeter.c:106:1
	mov	r0, r4
	pop	{r4, r5, r6, pc}
.Ltmp26:
.Lfunc_end0:
	.size	lv_linemeter_create, .Lfunc_end0-lv_linemeter_create
	.cfi_endproc
	.cantunwind
	.fnend
                                        @ -- End function
	.section	.text.lv_linemeter_signal,"ax",%progbits
	.p2align	3                               @ -- Begin function lv_linemeter_signal
	.type	lv_linemeter_signal,%function
	.code	16                              @ @lv_linemeter_signal
	.thumb_func
lv_linemeter_signal:
.Lfunc_begin1:
	.loc	10 537 0                        @ lvgl/src/lv_widgets/lv_linemeter.c:537:0
	.fnstart
	.cfi_startproc
@ %bb.0:
	@DEBUG_VALUE: lv_linemeter_signal:lmeter <- $r0
	@DEBUG_VALUE: lv_linemeter_signal:sign <- $r1
	@DEBUG_VALUE: lv_linemeter_signal:param <- $r2
	.save	{r4, r5, r6, r7, lr}
	push	{r4, r5, r6, r7, lr}
	.cfi_def_cfa_offset 20
	.cfi_offset lr, -4
	.cfi_offset r7, -8
	.cfi_offset r6, -12
	.cfi_offset r5, -16
	.cfi_offset r4, -20
	.pad	#4
	sub	sp, #4
	.cfi_def_cfa_offset 24
.Ltmp27:
	.loc	10 541 11 prologue_end          @ lvgl/src/lv_widgets/lv_linemeter.c:541:11
	movw	r3, :lower16:ancestor_signal
	mov	r5, r2
.Ltmp28:
	@DEBUG_VALUE: lv_linemeter_signal:param <- $r5
	movt	r3, :upper16:ancestor_signal
	mov	r7, r1
.Ltmp29:
	@DEBUG_VALUE: lv_linemeter_signal:sign <- $r7
	.loc	10 0 11 is_stmt 0               @ lvgl/src/lv_widgets/lv_linemeter.c:0:11
	mov	r6, r0
.Ltmp30:
	@DEBUG_VALUE: lv_linemeter_signal:lmeter <- $r6
	.loc	10 541 11                       @ lvgl/src/lv_widgets/lv_linemeter.c:541:11
	ldr	r3, [r3]
	blx	r3
	mov	r4, r0
.Ltmp31:
	@DEBUG_VALUE: lv_linemeter_signal:res <- $r4
	.loc	10 542 8 is_stmt 1              @ lvgl/src/lv_widgets/lv_linemeter.c:542:8
	cmp	r0, #1
	bne	.LBB1_5
.Ltmp32:
@ %bb.1:
	@DEBUG_VALUE: lv_linemeter_signal:sign <- $r7
	@DEBUG_VALUE: lv_linemeter_signal:lmeter <- $r6
	@DEBUG_VALUE: lv_linemeter_signal:param <- $r5
	@DEBUG_VALUE: lv_linemeter_signal:res <- $r4
	.loc	10 543 8                        @ lvgl/src/lv_widgets/lv_linemeter.c:543:8
	cmp	r7, #4
	beq	.LBB1_4
.Ltmp33:
@ %bb.2:
	@DEBUG_VALUE: lv_linemeter_signal:sign <- $r7
	@DEBUG_VALUE: lv_linemeter_signal:lmeter <- $r6
	@DEBUG_VALUE: lv_linemeter_signal:param <- $r5
	@DEBUG_VALUE: lv_linemeter_signal:res <- $r4
	cmp	r7, #7
	bne	.LBB1_5
.Ltmp34:
@ %bb.3:
	@DEBUG_VALUE: lv_linemeter_signal:sign <- $r7
	@DEBUG_VALUE: lv_linemeter_signal:lmeter <- $r6
	@DEBUG_VALUE: lv_linemeter_signal:param <- $r5
	@DEBUG_VALUE: lv_linemeter_signal:res <- $r4
	.loc	10 543 43 is_stmt 0             @ lvgl/src/lv_widgets/lv_linemeter.c:543:43
	adr	r1, .LCPI1_0
	mov	r0, r5
	bl	lv_obj_handle_get_type_signal
	mov	r4, r0
.Ltmp35:
	.loc	10 543 36                       @ lvgl/src/lv_widgets/lv_linemeter.c:543:36
	b	.LBB1_5
.Ltmp36:
.LBB1_4:
	@DEBUG_VALUE: lv_linemeter_signal:sign <- $r7
	@DEBUG_VALUE: lv_linemeter_signal:lmeter <- $r6
	@DEBUG_VALUE: lv_linemeter_signal:param <- $r5
	@DEBUG_VALUE: lv_linemeter_signal:res <- $r4
	.loc	10 549 9 is_stmt 1              @ lvgl/src/lv_widgets/lv_linemeter.c:549:9
	mov	r0, r6
	bl	lv_obj_refresh_ext_draw_pad
	.loc	10 550 9                        @ lvgl/src/lv_widgets/lv_linemeter.c:550:9
	mov	r0, r6
	bl	lv_obj_invalidate
.Ltmp37:
.LBB1_5:
	@DEBUG_VALUE: lv_linemeter_signal:sign <- $r7
	@DEBUG_VALUE: lv_linemeter_signal:lmeter <- $r6
	@DEBUG_VALUE: lv_linemeter_signal:param <- $r5
	.loc	10 554 1                        @ lvgl/src/lv_widgets/lv_linemeter.c:554:1
	mov	r0, r4
	add	sp, #4
	pop	{r4, r5, r6, r7, pc}
.Ltmp38:
	.p2align	2
@ %bb.6:
	.loc	10 0 1 is_stmt 0                @ lvgl/src/lv_widgets/lv_linemeter.c:0:1
.LCPI1_0:
.L.str.2:
	.asciz	"lv_linemeter\000\000\000"
.Lfunc_end1:
	.size	lv_linemeter_signal, .Lfunc_end1-lv_linemeter_signal
	.cfi_endproc
	.cantunwind
	.fnend
                                        @ -- End function
	.section	.text.lv_linemeter_design,"ax",%progbits
	.p2align	3                               @ -- Begin function lv_linemeter_design
	.type	lv_linemeter_design,%function
	.code	16                              @ @lv_linemeter_design
	.thumb_func
lv_linemeter_design:
.Lfunc_begin2:
	.loc	10 509 0 is_stmt 1              @ lvgl/src/lv_widgets/lv_linemeter.c:509:0
	.fnstart
	.cfi_startproc
@ %bb.0:
	@DEBUG_VALUE: lv_linemeter_design:lmeter <- $r0
	@DEBUG_VALUE: lv_linemeter_design:clip_area <- $r1
	@DEBUG_VALUE: lv_linemeter_design:mode <- $r2
	@DEBUG_VALUE: lv_linemeter_design:mode <- $r2
	.loc	10 511 8 prologue_end           @ lvgl/src/lv_widgets/lv_linemeter.c:511:8
	cmp	r2, #2
	@DEBUG_VALUE: lv_linemeter_design:clip_area <- $r1
	@DEBUG_VALUE: lv_linemeter_design:lmeter <- $r0
	beq	.LBB2_4
.Ltmp39:
@ %bb.1:
	@DEBUG_VALUE: lv_linemeter_design:mode <- $r2
	@DEBUG_VALUE: lv_linemeter_design:clip_area <- $r1
	@DEBUG_VALUE: lv_linemeter_design:lmeter <- $r0
	@DEBUG_VALUE: lv_linemeter_design:clip_area <- $r1
	@DEBUG_VALUE: lv_linemeter_design:lmeter <- $r0
	cbnz	r2, .LBB2_3
.Ltmp40:
@ %bb.2:
	@DEBUG_VALUE: lv_linemeter_design:mode <- $r2
	@DEBUG_VALUE: lv_linemeter_design:clip_area <- $r1
	@DEBUG_VALUE: lv_linemeter_design:lmeter <- $r0
	.save	{r4, r5, r6, lr}
	push	{r4, r5, r6, lr}
	.cfi_def_cfa_offset 16
	.cfi_offset lr, -4
	.cfi_offset r6, -8
	.cfi_offset r5, -12
	.cfi_offset r4, -16
	.pad	#104
	sub	sp, #104
	.cfi_def_cfa_offset 120
	mov	r6, sp
	mov	r5, r0
.Ltmp41:
	@DEBUG_VALUE: lv_linemeter_design:lmeter <- $r5
	@DEBUG_VALUE: lv_linemeter_design:lmeter <- $r5
	.loc	10 517 9                        @ lvgl/src/lv_widgets/lv_linemeter.c:517:9
	mov	r0, r6
	mov	r4, r1
.Ltmp42:
	@DEBUG_VALUE: lv_linemeter_design:clip_area <- $r4
	@DEBUG_VALUE: lv_linemeter_design:clip_area <- $r4
	bl	lv_draw_rect_dsc_init
.Ltmp43:
	@DEBUG_VALUE: lv_linemeter_design:mode <- [DW_OP_LLVM_entry_value 1] $r2
	.loc	10 518 9                        @ lvgl/src/lv_widgets/lv_linemeter.c:518:9
	movs	r1, #0
	mov	r0, r5
	mov	r2, r6
	bl	lv_obj_init_draw_rect_dsc
	.loc	10 519 31                       @ lvgl/src/lv_widgets/lv_linemeter.c:519:31
	add.w	r0, r5, #16
	.loc	10 519 9 is_stmt 0              @ lvgl/src/lv_widgets/lv_linemeter.c:519:9
	mov	r1, r4
	mov	r2, r6
	bl	lv_draw_rect
	.loc	10 520 9 is_stmt 1              @ lvgl/src/lv_widgets/lv_linemeter.c:520:9
	movs	r2, #0
	mov	r0, r5
	mov	r1, r4
	bl	lv_linemeter_draw_scale
	add	sp, #104
	pop.w	{r4, r5, r6, lr}
.Ltmp44:
	@DEBUG_VALUE: lv_linemeter_design:lmeter <- [DW_OP_LLVM_entry_value 1] $r0
	@DEBUG_VALUE: lv_linemeter_design:clip_area <- [DW_OP_LLVM_entry_value 1] $r1
.LBB2_3:
	.loc	10 0 9 is_stmt 0                @ lvgl/src/lv_widgets/lv_linemeter.c:0:9
	movs	r2, #0
.LBB2_4:
	.loc	10 527 1 is_stmt 1              @ lvgl/src/lv_widgets/lv_linemeter.c:527:1
	mov	r0, r2
	bx	lr
.Ltmp45:
.Lfunc_end2:
	.size	lv_linemeter_design, .Lfunc_end2-lv_linemeter_design
	.cfi_endproc
	.cantunwind
	.fnend
                                        @ -- End function
	.section	.text.lv_linemeter_set_value,"ax",%progbits
	.hidden	lv_linemeter_set_value          @ -- Begin function lv_linemeter_set_value
	.globl	lv_linemeter_set_value
	.p2align	3
	.type	lv_linemeter_set_value,%function
	.code	16                              @ @lv_linemeter_set_value
	.thumb_func
lv_linemeter_set_value:
.Lfunc_begin3:
	.loc	10 118 0                        @ lvgl/src/lv_widgets/lv_linemeter.c:118:0
	.fnstart
	.cfi_startproc
@ %bb.0:
	@DEBUG_VALUE: lv_linemeter_set_value:lmeter <- $r0
	@DEBUG_VALUE: lv_linemeter_set_value:value <- $r1
	.save	{r4, r5, r7, lr}
	push	{r4, r5, r7, lr}
	.cfi_def_cfa_offset 16
	.cfi_offset lr, -4
	.cfi_offset r7, -8
	.cfi_offset r5, -12
	.cfi_offset r4, -16
	mov	r5, r1
.Ltmp46:
	@DEBUG_VALUE: lv_linemeter_set_value:value <- $r5
	mov	r4, r0
	@DEBUG_VALUE: lv_linemeter_set_value:value <- $r5
.Ltmp47:
	@DEBUG_VALUE: lv_linemeter_set_value:lmeter <- $r4
	.loc	10 119 5 prologue_end           @ lvgl/src/lv_widgets/lv_linemeter.c:119:5
	bl	lv_debug_check_null
.Ltmp48:
	.loc	10 119 5 is_stmt 0              @ lvgl/src/lv_widgets/lv_linemeter.c:119:5
	cbz	r0, .LBB3_5
.Ltmp49:
@ %bb.1:
	@DEBUG_VALUE: lv_linemeter_set_value:value <- $r5
	@DEBUG_VALUE: lv_linemeter_set_value:lmeter <- $r4
	.loc	10 121 32 is_stmt 1             @ lvgl/src/lv_widgets/lv_linemeter.c:121:32
	mov	r0, r4
	bl	lv_obj_get_ext_attr
.Ltmp50:
	@DEBUG_VALUE: lv_linemeter_set_value:ext <- $r0
	.loc	10 122 13                       @ lvgl/src/lv_widgets/lv_linemeter.c:122:13
	ldr	r1, [r0, #8]
.Ltmp51:
	.loc	10 122 8 is_stmt 0              @ lvgl/src/lv_widgets/lv_linemeter.c:122:8
	cmp	r1, r5
	beq	.LBB3_4
.Ltmp52:
@ %bb.2:
	@DEBUG_VALUE: lv_linemeter_set_value:value <- $r5
	@DEBUG_VALUE: lv_linemeter_set_value:lmeter <- $r4
	@DEBUG_VALUE: lv_linemeter_set_value:ext <- $r0
	@DEBUG_VALUE: lv_linemeter_set_value:old_value <- $r1
	.loc	10 126 35 is_stmt 1             @ lvgl/src/lv_widgets/lv_linemeter.c:126:35
	ldr	r2, [r0, #16]
	.loc	10 126 22 is_stmt 0             @ lvgl/src/lv_widgets/lv_linemeter.c:126:22
	cmp	r2, r5
	it	lt
	movlt	r5, r2
.Ltmp53:
	.loc	10 127 44 is_stmt 1             @ lvgl/src/lv_widgets/lv_linemeter.c:127:44
	ldr	r3, [r0, #12]
	.loc	10 130 65                       @ lvgl/src/lv_widgets/lv_linemeter.c:130:65
	ldrh.w	r12, [r0, #4]
	.loc	10 127 22                       @ lvgl/src/lv_widgets/lv_linemeter.c:127:22
	cmp	r5, r3
	it	lt
	movlt	r5, r3
	.loc	10 130 39                       @ lvgl/src/lv_widgets/lv_linemeter.c:130:39
	sub.w	lr, r1, r3
	.loc	10 130 74 is_stmt 0             @ lvgl/src/lv_widgets/lv_linemeter.c:130:74
	sub.w	r1, r12, #1
.Ltmp54:
	.loc	10 130 57                       @ lvgl/src/lv_widgets/lv_linemeter.c:130:57
	mul	r12, r1, lr
	.loc	10 132 44 is_stmt 1             @ lvgl/src/lv_widgets/lv_linemeter.c:132:44
	sub.w	lr, r5, r3
	.loc	10 132 62 is_stmt 0             @ lvgl/src/lv_widgets/lv_linemeter.c:132:62
	mul	r1, r1, lr
	.loc	10 130 98 is_stmt 1             @ lvgl/src/lv_widgets/lv_linemeter.c:130:98
	subs	r2, r2, r3
	.loc	10 130 80 is_stmt 0             @ lvgl/src/lv_widgets/lv_linemeter.c:130:80
	sdiv	r3, r12, r2
.Ltmp55:
	@DEBUG_VALUE: lv_linemeter_set_value:level_old <- [DW_OP_LLVM_convert 32 7, DW_OP_LLVM_convert 16 7, DW_OP_stack_value] $r3
	.loc	10 132 85 is_stmt 1             @ lvgl/src/lv_widgets/lv_linemeter.c:132:85
	sdiv	r1, r1, r2
.Ltmp56:
	@DEBUG_VALUE: lv_linemeter_set_value:level_new <- [DW_OP_LLVM_convert 32 7, DW_OP_LLVM_convert 16 7, DW_OP_stack_value] $r1
	.loc	10 134 18                       @ lvgl/src/lv_widgets/lv_linemeter.c:134:18
	eors	r1, r3
.Ltmp57:
	.loc	10 127 20                       @ lvgl/src/lv_widgets/lv_linemeter.c:127:20
	str	r5, [r0, #8]
	.loc	10 134 8                        @ lvgl/src/lv_widgets/lv_linemeter.c:134:8
	lsls	r1, r1, #16
	.loc	10 137 1                        @ lvgl/src/lv_widgets/lv_linemeter.c:137:1
	it	eq
	popeq	{r4, r5, r7, pc}
.Ltmp58:
.LBB3_3:
	@DEBUG_VALUE: lv_linemeter_set_value:level_old <- [DW_OP_LLVM_convert 32 7, DW_OP_LLVM_convert 16 7, DW_OP_stack_value] $r3
	@DEBUG_VALUE: lv_linemeter_set_value:ext <- $r0
	.loc	10 136 5                        @ lvgl/src/lv_widgets/lv_linemeter.c:136:5
	mov	r0, r4
.Ltmp59:
	bl	lv_obj_invalidate
.Ltmp60:
.LBB3_4:
	.loc	10 137 1                        @ lvgl/src/lv_widgets/lv_linemeter.c:137:1
	pop	{r4, r5, r7, pc}
.LBB3_5:
.Ltmp61:
	@DEBUG_VALUE: lv_linemeter_set_value:value <- $r5
	@DEBUG_VALUE: lv_linemeter_set_value:lmeter <- $r4
	.loc	10 119 5                        @ lvgl/src/lv_widgets/lv_linemeter.c:119:5
	movw	r0, :lower16:.L.str.1
	movs	r3, #0
	movt	r0, :upper16:.L.str.1
	mov	r2, r4
	bl	lv_debug_log_error
.Ltmp62:
	.p2align	2
.LBB3_6:                                @ =>This Inner Loop Header: Depth=1
	@DEBUG_VALUE: lv_linemeter_set_value:value <- $r5
	@DEBUG_VALUE: lv_linemeter_set_value:lmeter <- $r4
	b	.LBB3_6
.Ltmp63:
.Lfunc_end3:
	.size	lv_linemeter_set_value, .Lfunc_end3-lv_linemeter_set_value
	.cfi_endproc
	.cantunwind
	.fnend
                                        @ -- End function
	.section	.text.lv_linemeter_set_range,"ax",%progbits
	.hidden	lv_linemeter_set_range          @ -- Begin function lv_linemeter_set_range
	.globl	lv_linemeter_set_range
	.p2align	3
	.type	lv_linemeter_set_range,%function
	.code	16                              @ @lv_linemeter_set_range
	.thumb_func
lv_linemeter_set_range:
.Lfunc_begin4:
	.loc	10 146 0                        @ lvgl/src/lv_widgets/lv_linemeter.c:146:0
	.fnstart
	.cfi_startproc
@ %bb.0:
	@DEBUG_VALUE: lv_linemeter_set_range:lmeter <- $r0
	@DEBUG_VALUE: lv_linemeter_set_range:min <- $r1
	@DEBUG_VALUE: lv_linemeter_set_range:max <- $r2
	.save	{r4, r5, r6, r7, lr}
	push	{r4, r5, r6, r7, lr}
	.cfi_def_cfa_offset 20
	.cfi_offset lr, -4
	.cfi_offset r7, -8
	.cfi_offset r6, -12
	.cfi_offset r5, -16
	.cfi_offset r4, -20
	.pad	#4
	sub	sp, #4
	.cfi_def_cfa_offset 24
	mov	r6, r2
.Ltmp64:
	@DEBUG_VALUE: lv_linemeter_set_range:max <- $r6
	mov	r5, r1
.Ltmp65:
	@DEBUG_VALUE: lv_linemeter_set_range:min <- $r5
	mov	r4, r0
	@DEBUG_VALUE: lv_linemeter_set_range:max <- $r6
	@DEBUG_VALUE: lv_linemeter_set_range:min <- $r5
.Ltmp66:
	@DEBUG_VALUE: lv_linemeter_set_range:lmeter <- $r4
	.loc	10 147 5 prologue_end           @ lvgl/src/lv_widgets/lv_linemeter.c:147:5
	bl	lv_debug_check_null
.Ltmp67:
	.loc	10 147 5 is_stmt 0              @ lvgl/src/lv_widgets/lv_linemeter.c:147:5
	cbz	r0, .LBB4_9
.Ltmp68:
@ %bb.1:
	@DEBUG_VALUE: lv_linemeter_set_range:max <- $r6
	@DEBUG_VALUE: lv_linemeter_set_range:min <- $r5
	@DEBUG_VALUE: lv_linemeter_set_range:lmeter <- $r4
	.loc	10 149 32 is_stmt 1             @ lvgl/src/lv_widgets/lv_linemeter.c:149:32
	mov	r0, r4
	bl	lv_obj_get_ext_attr
	mov	r7, r0
.Ltmp69:
	@DEBUG_VALUE: lv_linemeter_set_range:ext <- $r7
	.loc	10 150 13                       @ lvgl/src/lv_widgets/lv_linemeter.c:150:13
	ldr	r0, [r0, #12]
	.loc	10 150 30 is_stmt 0             @ lvgl/src/lv_widgets/lv_linemeter.c:150:30
	cmp	r0, r5
	bne	.LBB4_3
.Ltmp70:
@ %bb.2:
	@DEBUG_VALUE: lv_linemeter_set_range:ext <- $r7
	@DEBUG_VALUE: lv_linemeter_set_range:max <- $r6
	@DEBUG_VALUE: lv_linemeter_set_range:min <- $r5
	@DEBUG_VALUE: lv_linemeter_set_range:lmeter <- $r4
	@DEBUG_VALUE: lv_linemeter_set_range:ext <- $r7
	.loc	10 150 38                       @ lvgl/src/lv_widgets/lv_linemeter.c:150:38
	ldr	r0, [r7, #16]
.Ltmp71:
	.loc	10 150 8                        @ lvgl/src/lv_widgets/lv_linemeter.c:150:8
	cmp	r0, r6
	beq	.LBB4_8
.Ltmp72:
.LBB4_3:
	@DEBUG_VALUE: lv_linemeter_set_range:ext <- $r7
	@DEBUG_VALUE: lv_linemeter_set_range:max <- $r6
	@DEBUG_VALUE: lv_linemeter_set_range:min <- $r5
	@DEBUG_VALUE: lv_linemeter_set_range:lmeter <- $r4
	.loc	10 154 13 is_stmt 1             @ lvgl/src/lv_widgets/lv_linemeter.c:154:13
	ldr	r0, [r7, #8]
.Ltmp73:
	.loc	10 153 20                       @ lvgl/src/lv_widgets/lv_linemeter.c:153:20
	str	r5, [r7, #12]
	.loc	10 154 8                        @ lvgl/src/lv_widgets/lv_linemeter.c:154:8
	cmp	r0, r6
	.loc	10 152 20                       @ lvgl/src/lv_widgets/lv_linemeter.c:152:20
	str	r6, [r7, #16]
	.loc	10 154 8                        @ lvgl/src/lv_widgets/lv_linemeter.c:154:8
	ble	.LBB4_5
.Ltmp74:
@ %bb.4:
	@DEBUG_VALUE: lv_linemeter_set_range:ext <- $r7
	@DEBUG_VALUE: lv_linemeter_set_range:max <- $r6
	@DEBUG_VALUE: lv_linemeter_set_range:min <- $r5
	@DEBUG_VALUE: lv_linemeter_set_range:lmeter <- $r4
	.loc	10 156 9                        @ lvgl/src/lv_widgets/lv_linemeter.c:156:9
	mov	r0, r4
	mov	r1, r6
	.loc	10 155 24                       @ lvgl/src/lv_widgets/lv_linemeter.c:155:24
	str	r6, [r7, #8]
	.loc	10 156 9                        @ lvgl/src/lv_widgets/lv_linemeter.c:156:9
	bl	lv_linemeter_set_value
.Ltmp75:
.LBB4_5:
	@DEBUG_VALUE: lv_linemeter_set_range:ext <- $r7
	@DEBUG_VALUE: lv_linemeter_set_range:max <- $r6
	@DEBUG_VALUE: lv_linemeter_set_range:min <- $r5
	@DEBUG_VALUE: lv_linemeter_set_range:lmeter <- $r4
	.loc	10 158 13                       @ lvgl/src/lv_widgets/lv_linemeter.c:158:13
	ldr	r0, [r7, #8]
.Ltmp76:
	.loc	10 158 8 is_stmt 0              @ lvgl/src/lv_widgets/lv_linemeter.c:158:8
	cmp	r0, r5
	bge	.LBB4_7
.Ltmp77:
@ %bb.6:
	@DEBUG_VALUE: lv_linemeter_set_range:ext <- $r7
	@DEBUG_VALUE: lv_linemeter_set_range:max <- $r6
	@DEBUG_VALUE: lv_linemeter_set_range:min <- $r5
	@DEBUG_VALUE: lv_linemeter_set_range:lmeter <- $r4
	.loc	10 160 9 is_stmt 1              @ lvgl/src/lv_widgets/lv_linemeter.c:160:9
	mov	r0, r4
	mov	r1, r5
	.loc	10 159 24                       @ lvgl/src/lv_widgets/lv_linemeter.c:159:24
	str	r5, [r7, #8]
	.loc	10 160 9                        @ lvgl/src/lv_widgets/lv_linemeter.c:160:9
	bl	lv_linemeter_set_value
.Ltmp78:
.LBB4_7:
	@DEBUG_VALUE: lv_linemeter_set_range:ext <- $r7
	@DEBUG_VALUE: lv_linemeter_set_range:max <- $r6
	@DEBUG_VALUE: lv_linemeter_set_range:min <- $r5
	@DEBUG_VALUE: lv_linemeter_set_range:lmeter <- $r4
	.loc	10 162 5                        @ lvgl/src/lv_widgets/lv_linemeter.c:162:5
	mov	r0, r4
	bl	lv_obj_invalidate
.Ltmp79:
.LBB4_8:
	@DEBUG_VALUE: lv_linemeter_set_range:ext <- $r7
	@DEBUG_VALUE: lv_linemeter_set_range:max <- $r6
	@DEBUG_VALUE: lv_linemeter_set_range:min <- $r5
	@DEBUG_VALUE: lv_linemeter_set_range:lmeter <- $r4
	.loc	10 163 1                        @ lvgl/src/lv_widgets/lv_linemeter.c:163:1
	add	sp, #4
	pop	{r4, r5, r6, r7, pc}
.Ltmp80:
.LBB4_9:
	@DEBUG_VALUE: lv_linemeter_set_range:max <- $r6
	@DEBUG_VALUE: lv_linemeter_set_range:min <- $r5
	@DEBUG_VALUE: lv_linemeter_set_range:lmeter <- $r4
	.loc	10 147 5                        @ lvgl/src/lv_widgets/lv_linemeter.c:147:5
	movw	r0, :lower16:.L.str.1
	movs	r3, #0
	movt	r0, :upper16:.L.str.1
	mov	r2, r4
	bl	lv_debug_log_error
.Ltmp81:
	.p2align	2
.LBB4_10:                               @ =>This Inner Loop Header: Depth=1
	@DEBUG_VALUE: lv_linemeter_set_range:max <- $r6
	@DEBUG_VALUE: lv_linemeter_set_range:min <- $r5
	@DEBUG_VALUE: lv_linemeter_set_range:lmeter <- $r4
	b	.LBB4_10
.Ltmp82:
.Lfunc_end4:
	.size	lv_linemeter_set_range, .Lfunc_end4-lv_linemeter_set_range
	.cfi_endproc
	.cantunwind
	.fnend
                                        @ -- End function
	.section	.text.lv_linemeter_set_scale,"ax",%progbits
	.hidden	lv_linemeter_set_scale          @ -- Begin function lv_linemeter_set_scale
	.globl	lv_linemeter_set_scale
	.p2align	3
	.type	lv_linemeter_set_scale,%function
	.code	16                              @ @lv_linemeter_set_scale
	.thumb_func
lv_linemeter_set_scale:
.Lfunc_begin5:
	.loc	10 172 0                        @ lvgl/src/lv_widgets/lv_linemeter.c:172:0
	.fnstart
	.cfi_startproc
@ %bb.0:
	@DEBUG_VALUE: lv_linemeter_set_scale:lmeter <- $r0
	@DEBUG_VALUE: lv_linemeter_set_scale:angle <- $r1
	@DEBUG_VALUE: lv_linemeter_set_scale:line_cnt <- $r2
	.save	{r4, r5, r6, lr}
	push	{r4, r5, r6, lr}
	.cfi_def_cfa_offset 16
	.cfi_offset lr, -4
	.cfi_offset r6, -8
	.cfi_offset r5, -12
	.cfi_offset r4, -16
	mov	r5, r2
.Ltmp83:
	@DEBUG_VALUE: lv_linemeter_set_scale:line_cnt <- $r5
	mov	r6, r1
.Ltmp84:
	@DEBUG_VALUE: lv_linemeter_set_scale:angle <- $r6
	mov	r4, r0
	@DEBUG_VALUE: lv_linemeter_set_scale:line_cnt <- $r5
	@DEBUG_VALUE: lv_linemeter_set_scale:angle <- $r6
.Ltmp85:
	@DEBUG_VALUE: lv_linemeter_set_scale:lmeter <- $r4
	.loc	10 173 5 prologue_end           @ lvgl/src/lv_widgets/lv_linemeter.c:173:5
	bl	lv_debug_check_null
.Ltmp86:
	.loc	10 173 5 is_stmt 0              @ lvgl/src/lv_widgets/lv_linemeter.c:173:5
	cbz	r0, .LBB5_4
.Ltmp87:
@ %bb.1:
	@DEBUG_VALUE: lv_linemeter_set_scale:angle <- $r6
	@DEBUG_VALUE: lv_linemeter_set_scale:line_cnt <- $r5
	@DEBUG_VALUE: lv_linemeter_set_scale:lmeter <- $r4
	@DEBUG_VALUE: lv_linemeter_set_scale:angle <- $r6
	@DEBUG_VALUE: lv_linemeter_set_scale:line_cnt <- $r5
	.loc	10 175 32 is_stmt 1             @ lvgl/src/lv_widgets/lv_linemeter.c:175:32
	mov	r0, r4
	bl	lv_obj_get_ext_attr
.Ltmp88:
	@DEBUG_VALUE: lv_linemeter_set_scale:ext <- $r0
	.loc	10 176 13                       @ lvgl/src/lv_widgets/lv_linemeter.c:176:13
	ldrh	r1, [r0]
	.loc	10 176 34 is_stmt 0             @ lvgl/src/lv_widgets/lv_linemeter.c:176:34
	cmp	r1, r6
	bne	.LBB5_3
.Ltmp89:
@ %bb.2:
	@DEBUG_VALUE: lv_linemeter_set_scale:angle <- $r6
	@DEBUG_VALUE: lv_linemeter_set_scale:line_cnt <- $r5
	@DEBUG_VALUE: lv_linemeter_set_scale:lmeter <- $r4
	@DEBUG_VALUE: lv_linemeter_set_scale:ext <- $r0
	@DEBUG_VALUE: lv_linemeter_set_scale:ext <- $r0
	.loc	10 176 42                       @ lvgl/src/lv_widgets/lv_linemeter.c:176:42
	ldrh	r1, [r0, #4]
.Ltmp90:
	.loc	10 176 8                        @ lvgl/src/lv_widgets/lv_linemeter.c:176:8
	cmp	r1, r5
	.loc	10 182 1 is_stmt 1              @ lvgl/src/lv_widgets/lv_linemeter.c:182:1
	it	eq
	popeq	{r4, r5, r6, pc}
.Ltmp91:
.LBB5_3:
	@DEBUG_VALUE: lv_linemeter_set_scale:ext <- $r0
	@DEBUG_VALUE: lv_linemeter_set_scale:angle <- $r6
	@DEBUG_VALUE: lv_linemeter_set_scale:line_cnt <- $r5
	.loc	10 178 22                       @ lvgl/src/lv_widgets/lv_linemeter.c:178:22
	strh	r6, [r0]
	.loc	10 179 22                       @ lvgl/src/lv_widgets/lv_linemeter.c:179:22
	strh	r5, [r0, #4]
	.loc	10 181 5                        @ lvgl/src/lv_widgets/lv_linemeter.c:181:5
	mov	r0, r4
.Ltmp92:
	bl	lv_obj_invalidate
	.loc	10 182 1                        @ lvgl/src/lv_widgets/lv_linemeter.c:182:1
	pop	{r4, r5, r6, pc}
.Ltmp93:
.LBB5_4:
	@DEBUG_VALUE: lv_linemeter_set_scale:angle <- $r6
	@DEBUG_VALUE: lv_linemeter_set_scale:line_cnt <- $r5
	@DEBUG_VALUE: lv_linemeter_set_scale:lmeter <- $r4
	.loc	10 173 5                        @ lvgl/src/lv_widgets/lv_linemeter.c:173:5
	movw	r0, :lower16:.L.str.1
	movs	r3, #0
	movt	r0, :upper16:.L.str.1
	mov	r2, r4
	bl	lv_debug_log_error
.Ltmp94:
	.p2align	2
.LBB5_5:                                @ =>This Inner Loop Header: Depth=1
	@DEBUG_VALUE: lv_linemeter_set_scale:angle <- $r6
	@DEBUG_VALUE: lv_linemeter_set_scale:line_cnt <- $r5
	@DEBUG_VALUE: lv_linemeter_set_scale:lmeter <- $r4
	b	.LBB5_5
.Ltmp95:
.Lfunc_end5:
	.size	lv_linemeter_set_scale, .Lfunc_end5-lv_linemeter_set_scale
	.cfi_endproc
	.cantunwind
	.fnend
                                        @ -- End function
	.section	.text.lv_linemeter_set_angle_offset,"ax",%progbits
	.hidden	lv_linemeter_set_angle_offset   @ -- Begin function lv_linemeter_set_angle_offset
	.globl	lv_linemeter_set_angle_offset
	.p2align	3
	.type	lv_linemeter_set_angle_offset,%function
	.code	16                              @ @lv_linemeter_set_angle_offset
	.thumb_func
lv_linemeter_set_angle_offset:
.Lfunc_begin6:
	.loc	10 190 0                        @ lvgl/src/lv_widgets/lv_linemeter.c:190:0
	.fnstart
	.cfi_startproc
@ %bb.0:
	@DEBUG_VALUE: lv_linemeter_set_angle_offset:lmeter <- $r0
	@DEBUG_VALUE: lv_linemeter_set_angle_offset:angle <- $r1
	.save	{r4, r5, r7, lr}
	push	{r4, r5, r7, lr}
	.cfi_def_cfa_offset 16
	.cfi_offset lr, -4
	.cfi_offset r7, -8
	.cfi_offset r5, -12
	.cfi_offset r4, -16
	mov	r5, r1
.Ltmp96:
	@DEBUG_VALUE: lv_linemeter_set_angle_offset:angle <- $r5
	mov	r4, r0
	@DEBUG_VALUE: lv_linemeter_set_angle_offset:angle <- $r5
.Ltmp97:
	@DEBUG_VALUE: lv_linemeter_set_angle_offset:lmeter <- $r4
	.loc	10 191 32 prologue_end          @ lvgl/src/lv_widgets/lv_linemeter.c:191:32
	bl	lv_obj_get_ext_attr
.Ltmp98:
	@DEBUG_VALUE: lv_linemeter_set_angle_offset:ext <- $r0
	.loc	10 192 13                       @ lvgl/src/lv_widgets/lv_linemeter.c:192:13
	ldrh	r1, [r0, #2]
.Ltmp99:
	.loc	10 192 8 is_stmt 0              @ lvgl/src/lv_widgets/lv_linemeter.c:192:8
	cmp	r1, r5
	.loc	10 197 1 is_stmt 1              @ lvgl/src/lv_widgets/lv_linemeter.c:197:1
	it	eq
	popeq	{r4, r5, r7, pc}
.Ltmp100:
.LBB6_1:
	@DEBUG_VALUE: lv_linemeter_set_angle_offset:ext <- $r0
	.loc	10 194 20                       @ lvgl/src/lv_widgets/lv_linemeter.c:194:20
	strh	r5, [r0, #2]
	.loc	10 196 5                        @ lvgl/src/lv_widgets/lv_linemeter.c:196:5
	mov	r0, r4
.Ltmp101:
	bl	lv_obj_invalidate
	.loc	10 197 1                        @ lvgl/src/lv_widgets/lv_linemeter.c:197:1
	pop	{r4, r5, r7, pc}
.Ltmp102:
.Lfunc_end6:
	.size	lv_linemeter_set_angle_offset, .Lfunc_end6-lv_linemeter_set_angle_offset
	.cfi_endproc
	.cantunwind
	.fnend
                                        @ -- End function
	.section	.text.lv_linemeter_set_mirror,"ax",%progbits
	.hidden	lv_linemeter_set_mirror         @ -- Begin function lv_linemeter_set_mirror
	.globl	lv_linemeter_set_mirror
	.p2align	3
	.type	lv_linemeter_set_mirror,%function
	.code	16                              @ @lv_linemeter_set_mirror
	.thumb_func
lv_linemeter_set_mirror:
.Lfunc_begin7:
	.loc	10 205 0                        @ lvgl/src/lv_widgets/lv_linemeter.c:205:0
	.fnstart
	.cfi_startproc
@ %bb.0:
	@DEBUG_VALUE: lv_linemeter_set_mirror:lmeter <- $r0
	@DEBUG_VALUE: lv_linemeter_set_mirror:mirror <- [DW_OP_LLVM_convert 1 7, DW_OP_LLVM_convert 8 7, DW_OP_stack_value] $r1
	.save	{r4, r5, r7, lr}
	push	{r4, r5, r7, lr}
	.cfi_def_cfa_offset 16
	.cfi_offset lr, -4
	.cfi_offset r7, -8
	.cfi_offset r5, -12
	.cfi_offset r4, -16
	mov	r5, r1
.Ltmp103:
	@DEBUG_VALUE: lv_linemeter_set_mirror:mirror <- [DW_OP_LLVM_convert 1 7, DW_OP_LLVM_convert 8 7, DW_OP_stack_value] $r5
	mov	r4, r0
	@DEBUG_VALUE: lv_linemeter_set_mirror:mirror <- [DW_OP_LLVM_convert 1 7, DW_OP_LLVM_convert 8 7, DW_OP_stack_value] $r5
.Ltmp104:
	@DEBUG_VALUE: lv_linemeter_set_mirror:lmeter <- $r4
	.loc	10 206 32 prologue_end          @ lvgl/src/lv_widgets/lv_linemeter.c:206:32
	bl	lv_obj_get_ext_attr
.Ltmp105:
	@DEBUG_VALUE: lv_linemeter_set_mirror:ext <- $r0
	.loc	10 207 13                       @ lvgl/src/lv_widgets/lv_linemeter.c:207:13
	ldrb	r1, [r0, #20]
	movs	r2, #1
	.loc	10 207 22 is_stmt 0             @ lvgl/src/lv_widgets/lv_linemeter.c:207:22
	bics	r2, r1
.Ltmp106:
	.loc	10 207 8                        @ lvgl/src/lv_widgets/lv_linemeter.c:207:8
	eors	r2, r5
	.loc	10 212 1 is_stmt 1              @ lvgl/src/lv_widgets/lv_linemeter.c:212:1
	it	ne
	popne	{r4, r5, r7, pc}
.Ltmp107:
.LBB7_1:
	@DEBUG_VALUE: lv_linemeter_set_mirror:ext <- $r0
	@DEBUG_VALUE: lv_linemeter_set_mirror:mirror <- $r5
	.loc	10 209 19                       @ lvgl/src/lv_widgets/lv_linemeter.c:209:19
	and	r1, r1, #254
	add	r1, r5
	strb	r1, [r0, #20]
	.loc	10 211 5                        @ lvgl/src/lv_widgets/lv_linemeter.c:211:5
	mov	r0, r4
.Ltmp108:
	bl	lv_obj_invalidate
	.loc	10 212 1                        @ lvgl/src/lv_widgets/lv_linemeter.c:212:1
	pop	{r4, r5, r7, pc}
.Ltmp109:
.Lfunc_end7:
	.size	lv_linemeter_set_mirror, .Lfunc_end7-lv_linemeter_set_mirror
	.cfi_endproc
	.cantunwind
	.fnend
                                        @ -- End function
	.section	.text.lv_linemeter_get_value,"ax",%progbits
	.hidden	lv_linemeter_get_value          @ -- Begin function lv_linemeter_get_value
	.globl	lv_linemeter_get_value
	.p2align	3
	.type	lv_linemeter_get_value,%function
	.code	16                              @ @lv_linemeter_get_value
	.thumb_func
lv_linemeter_get_value:
.Lfunc_begin8:
	.loc	10 224 0                        @ lvgl/src/lv_widgets/lv_linemeter.c:224:0
	.fnstart
	.cfi_startproc
@ %bb.0:
	@DEBUG_VALUE: lv_linemeter_get_value:lmeter <- $r0
	.save	{r4, lr}
	push	{r4, lr}
	.cfi_def_cfa_offset 8
	.cfi_offset lr, -4
	.cfi_offset r4, -8
	mov	r4, r0
.Ltmp110:
	@DEBUG_VALUE: lv_linemeter_get_value:lmeter <- $r4
	.loc	10 225 5 prologue_end           @ lvgl/src/lv_widgets/lv_linemeter.c:225:5
	bl	lv_debug_check_null
.Ltmp111:
	.loc	10 225 5 is_stmt 0              @ lvgl/src/lv_widgets/lv_linemeter.c:225:5
	cbz	r0, .LBB8_2
.Ltmp112:
@ %bb.1:
	@DEBUG_VALUE: lv_linemeter_get_value:lmeter <- $r4
	.loc	10 227 32 is_stmt 1             @ lvgl/src/lv_widgets/lv_linemeter.c:227:32
	mov	r0, r4
	bl	lv_obj_get_ext_attr
.Ltmp113:
	@DEBUG_VALUE: lv_linemeter_get_value:ext <- $r0
	.loc	10 228 17                       @ lvgl/src/lv_widgets/lv_linemeter.c:228:17
	ldr	r0, [r0, #8]
.Ltmp114:
	.loc	10 228 5 is_stmt 0              @ lvgl/src/lv_widgets/lv_linemeter.c:228:5
	pop	{r4, pc}
.Ltmp115:
.LBB8_2:
	@DEBUG_VALUE: lv_linemeter_get_value:lmeter <- $r4
	.loc	10 225 5 is_stmt 1              @ lvgl/src/lv_widgets/lv_linemeter.c:225:5
	movw	r0, :lower16:.L.str.1
	movs	r3, #0
	movt	r0, :upper16:.L.str.1
	mov	r2, r4
	bl	lv_debug_log_error
.Ltmp116:
	.p2align	2
.LBB8_3:                                @ =>This Inner Loop Header: Depth=1
	@DEBUG_VALUE: lv_linemeter_get_value:lmeter <- $r4
	b	.LBB8_3
.Ltmp117:
.Lfunc_end8:
	.size	lv_linemeter_get_value, .Lfunc_end8-lv_linemeter_get_value
	.cfi_endproc
	.cantunwind
	.fnend
                                        @ -- End function
	.section	.text.lv_linemeter_get_min_value,"ax",%progbits
	.hidden	lv_linemeter_get_min_value      @ -- Begin function lv_linemeter_get_min_value
	.globl	lv_linemeter_get_min_value
	.p2align	3
	.type	lv_linemeter_get_min_value,%function
	.code	16                              @ @lv_linemeter_get_min_value
	.thumb_func
lv_linemeter_get_min_value:
.Lfunc_begin9:
	.loc	10 237 0                        @ lvgl/src/lv_widgets/lv_linemeter.c:237:0
	.fnstart
	.cfi_startproc
@ %bb.0:
	@DEBUG_VALUE: lv_linemeter_get_min_value:lmeter <- $r0
	.save	{r4, lr}
	push	{r4, lr}
	.cfi_def_cfa_offset 8
	.cfi_offset lr, -4
	.cfi_offset r4, -8
	mov	r4, r0
.Ltmp118:
	@DEBUG_VALUE: lv_linemeter_get_min_value:lmeter <- $r4
	.loc	10 238 5 prologue_end           @ lvgl/src/lv_widgets/lv_linemeter.c:238:5
	bl	lv_debug_check_null
.Ltmp119:
	.loc	10 238 5 is_stmt 0              @ lvgl/src/lv_widgets/lv_linemeter.c:238:5
	cbz	r0, .LBB9_2
.Ltmp120:
@ %bb.1:
	@DEBUG_VALUE: lv_linemeter_get_min_value:lmeter <- $r4
	.loc	10 240 32 is_stmt 1             @ lvgl/src/lv_widgets/lv_linemeter.c:240:32
	mov	r0, r4
	bl	lv_obj_get_ext_attr
.Ltmp121:
	@DEBUG_VALUE: lv_linemeter_get_min_value:ext <- $r0
	.loc	10 241 17                       @ lvgl/src/lv_widgets/lv_linemeter.c:241:17
	ldr	r0, [r0, #12]
.Ltmp122:
	.loc	10 241 5 is_stmt 0              @ lvgl/src/lv_widgets/lv_linemeter.c:241:5
	pop	{r4, pc}
.Ltmp123:
.LBB9_2:
	@DEBUG_VALUE: lv_linemeter_get_min_value:lmeter <- $r4
	.loc	10 238 5 is_stmt 1              @ lvgl/src/lv_widgets/lv_linemeter.c:238:5
	movw	r0, :lower16:.L.str.1
	movs	r3, #0
	movt	r0, :upper16:.L.str.1
	mov	r2, r4
	bl	lv_debug_log_error
.Ltmp124:
	.p2align	2
.LBB9_3:                                @ =>This Inner Loop Header: Depth=1
	@DEBUG_VALUE: lv_linemeter_get_min_value:lmeter <- $r4
	b	.LBB9_3
.Ltmp125:
.Lfunc_end9:
	.size	lv_linemeter_get_min_value, .Lfunc_end9-lv_linemeter_get_min_value
	.cfi_endproc
	.cantunwind
	.fnend
                                        @ -- End function
	.section	.text.lv_linemeter_get_max_value,"ax",%progbits
	.hidden	lv_linemeter_get_max_value      @ -- Begin function lv_linemeter_get_max_value
	.globl	lv_linemeter_get_max_value
	.p2align	3
	.type	lv_linemeter_get_max_value,%function
	.code	16                              @ @lv_linemeter_get_max_value
	.thumb_func
lv_linemeter_get_max_value:
.Lfunc_begin10:
	.loc	10 250 0                        @ lvgl/src/lv_widgets/lv_linemeter.c:250:0
	.fnstart
	.cfi_startproc
@ %bb.0:
	@DEBUG_VALUE: lv_linemeter_get_max_value:lmeter <- $r0
	.save	{r4, lr}
	push	{r4, lr}
	.cfi_def_cfa_offset 8
	.cfi_offset lr, -4
	.cfi_offset r4, -8
	mov	r4, r0
.Ltmp126:
	@DEBUG_VALUE: lv_linemeter_get_max_value:lmeter <- $r4
	.loc	10 251 5 prologue_end           @ lvgl/src/lv_widgets/lv_linemeter.c:251:5
	bl	lv_debug_check_null
.Ltmp127:
	.loc	10 251 5 is_stmt 0              @ lvgl/src/lv_widgets/lv_linemeter.c:251:5
	cbz	r0, .LBB10_2
.Ltmp128:
@ %bb.1:
	@DEBUG_VALUE: lv_linemeter_get_max_value:lmeter <- $r4
	.loc	10 253 32 is_stmt 1             @ lvgl/src/lv_widgets/lv_linemeter.c:253:32
	mov	r0, r4
	bl	lv_obj_get_ext_attr
.Ltmp129:
	@DEBUG_VALUE: lv_linemeter_get_max_value:ext <- $r0
	.loc	10 254 17                       @ lvgl/src/lv_widgets/lv_linemeter.c:254:17
	ldr	r0, [r0, #16]
.Ltmp130:
	.loc	10 254 5 is_stmt 0              @ lvgl/src/lv_widgets/lv_linemeter.c:254:5
	pop	{r4, pc}
.Ltmp131:
.LBB10_2:
	@DEBUG_VALUE: lv_linemeter_get_max_value:lmeter <- $r4
	.loc	10 251 5 is_stmt 1              @ lvgl/src/lv_widgets/lv_linemeter.c:251:5
	movw	r0, :lower16:.L.str.1
	movs	r3, #0
	movt	r0, :upper16:.L.str.1
	mov	r2, r4
	bl	lv_debug_log_error
.Ltmp132:
	.p2align	2
.LBB10_3:                               @ =>This Inner Loop Header: Depth=1
	@DEBUG_VALUE: lv_linemeter_get_max_value:lmeter <- $r4
	b	.LBB10_3
.Ltmp133:
.Lfunc_end10:
	.size	lv_linemeter_get_max_value, .Lfunc_end10-lv_linemeter_get_max_value
	.cfi_endproc
	.cantunwind
	.fnend
                                        @ -- End function
	.section	.text.lv_linemeter_get_line_count,"ax",%progbits
	.hidden	lv_linemeter_get_line_count     @ -- Begin function lv_linemeter_get_line_count
	.globl	lv_linemeter_get_line_count
	.p2align	3
	.type	lv_linemeter_get_line_count,%function
	.code	16                              @ @lv_linemeter_get_line_count
	.thumb_func
lv_linemeter_get_line_count:
.Lfunc_begin11:
	.loc	10 263 0                        @ lvgl/src/lv_widgets/lv_linemeter.c:263:0
	.fnstart
	.cfi_startproc
@ %bb.0:
	@DEBUG_VALUE: lv_linemeter_get_line_count:lmeter <- $r0
	.save	{r4, lr}
	push	{r4, lr}
	.cfi_def_cfa_offset 8
	.cfi_offset lr, -4
	.cfi_offset r4, -8
	mov	r4, r0
.Ltmp134:
	@DEBUG_VALUE: lv_linemeter_get_line_count:lmeter <- $r4
	.loc	10 264 5 prologue_end           @ lvgl/src/lv_widgets/lv_linemeter.c:264:5
	bl	lv_debug_check_null
.Ltmp135:
	.loc	10 264 5 is_stmt 0              @ lvgl/src/lv_widgets/lv_linemeter.c:264:5
	cbz	r0, .LBB11_2
.Ltmp136:
@ %bb.1:
	@DEBUG_VALUE: lv_linemeter_get_line_count:lmeter <- $r4
	.loc	10 266 32 is_stmt 1             @ lvgl/src/lv_widgets/lv_linemeter.c:266:32
	mov	r0, r4
	bl	lv_obj_get_ext_attr
.Ltmp137:
	@DEBUG_VALUE: lv_linemeter_get_line_count:ext <- $r0
	.loc	10 267 17                       @ lvgl/src/lv_widgets/lv_linemeter.c:267:17
	ldrh	r0, [r0, #4]
.Ltmp138:
	.loc	10 267 5 is_stmt 0              @ lvgl/src/lv_widgets/lv_linemeter.c:267:5
	pop	{r4, pc}
.Ltmp139:
.LBB11_2:
	@DEBUG_VALUE: lv_linemeter_get_line_count:lmeter <- $r4
	.loc	10 264 5 is_stmt 1              @ lvgl/src/lv_widgets/lv_linemeter.c:264:5
	movw	r0, :lower16:.L.str.1
	movs	r3, #0
	movt	r0, :upper16:.L.str.1
	mov	r2, r4
	bl	lv_debug_log_error
.Ltmp140:
	.p2align	2
.LBB11_3:                               @ =>This Inner Loop Header: Depth=1
	@DEBUG_VALUE: lv_linemeter_get_line_count:lmeter <- $r4
	b	.LBB11_3
.Ltmp141:
.Lfunc_end11:
	.size	lv_linemeter_get_line_count, .Lfunc_end11-lv_linemeter_get_line_count
	.cfi_endproc
	.cantunwind
	.fnend
                                        @ -- End function
	.section	.text.lv_linemeter_get_scale_angle,"ax",%progbits
	.hidden	lv_linemeter_get_scale_angle    @ -- Begin function lv_linemeter_get_scale_angle
	.globl	lv_linemeter_get_scale_angle
	.p2align	3
	.type	lv_linemeter_get_scale_angle,%function
	.code	16                              @ @lv_linemeter_get_scale_angle
	.thumb_func
lv_linemeter_get_scale_angle:
.Lfunc_begin12:
	.loc	10 276 0                        @ lvgl/src/lv_widgets/lv_linemeter.c:276:0
	.fnstart
	.cfi_startproc
@ %bb.0:
	@DEBUG_VALUE: lv_linemeter_get_scale_angle:lmeter <- $r0
	.save	{r4, lr}
	push	{r4, lr}
	.cfi_def_cfa_offset 8
	.cfi_offset lr, -4
	.cfi_offset r4, -8
	mov	r4, r0
.Ltmp142:
	@DEBUG_VALUE: lv_linemeter_get_scale_angle:lmeter <- $r4
	.loc	10 277 5 prologue_end           @ lvgl/src/lv_widgets/lv_linemeter.c:277:5
	bl	lv_debug_check_null
.Ltmp143:
	.loc	10 277 5 is_stmt 0              @ lvgl/src/lv_widgets/lv_linemeter.c:277:5
	cbz	r0, .LBB12_2
.Ltmp144:
@ %bb.1:
	@DEBUG_VALUE: lv_linemeter_get_scale_angle:lmeter <- $r4
	.loc	10 279 32 is_stmt 1             @ lvgl/src/lv_widgets/lv_linemeter.c:279:32
	mov	r0, r4
	bl	lv_obj_get_ext_attr
.Ltmp145:
	@DEBUG_VALUE: lv_linemeter_get_scale_angle:ext <- $r0
	.loc	10 280 17                       @ lvgl/src/lv_widgets/lv_linemeter.c:280:17
	ldrh	r0, [r0]
.Ltmp146:
	.loc	10 280 5 is_stmt 0              @ lvgl/src/lv_widgets/lv_linemeter.c:280:5
	pop	{r4, pc}
.Ltmp147:
.LBB12_2:
	@DEBUG_VALUE: lv_linemeter_get_scale_angle:lmeter <- $r4
	.loc	10 277 5 is_stmt 1              @ lvgl/src/lv_widgets/lv_linemeter.c:277:5
	movw	r0, :lower16:.L.str.1
	movs	r3, #0
	movt	r0, :upper16:.L.str.1
	mov	r2, r4
	bl	lv_debug_log_error
.Ltmp148:
	.p2align	2
.LBB12_3:                               @ =>This Inner Loop Header: Depth=1
	@DEBUG_VALUE: lv_linemeter_get_scale_angle:lmeter <- $r4
	b	.LBB12_3
.Ltmp149:
.Lfunc_end12:
	.size	lv_linemeter_get_scale_angle, .Lfunc_end12-lv_linemeter_get_scale_angle
	.cfi_endproc
	.cantunwind
	.fnend
                                        @ -- End function
	.section	.text.lv_linemeter_get_angle_offset,"ax",%progbits
	.hidden	lv_linemeter_get_angle_offset   @ -- Begin function lv_linemeter_get_angle_offset
	.globl	lv_linemeter_get_angle_offset
	.p2align	3
	.type	lv_linemeter_get_angle_offset,%function
	.code	16                              @ @lv_linemeter_get_angle_offset
	.thumb_func
lv_linemeter_get_angle_offset:
.Lfunc_begin13:
	.loc	10 289 0                        @ lvgl/src/lv_widgets/lv_linemeter.c:289:0
	.fnstart
	.cfi_startproc
@ %bb.0:
	@DEBUG_VALUE: lv_linemeter_get_angle_offset:lmeter <- $r0
	@DEBUG_VALUE: lv_linemeter_get_angle_offset:lmeter <- $r0
	@DEBUG_VALUE: lv_linemeter_get_angle_offset:lmeter <- $r0
	.save	{r7, lr}
	push	{r7, lr}
	.cfi_def_cfa_offset 8
	.cfi_offset lr, -4
	.cfi_offset r7, -8
.Ltmp150:
	.loc	10 290 32 prologue_end          @ lvgl/src/lv_widgets/lv_linemeter.c:290:32
	bl	lv_obj_get_ext_attr
.Ltmp151:
	@DEBUG_VALUE: lv_linemeter_get_angle_offset:lmeter <- [DW_OP_LLVM_entry_value 1] $r0
	@DEBUG_VALUE: lv_linemeter_get_angle_offset:ext <- $r0
	.loc	10 292 17                       @ lvgl/src/lv_widgets/lv_linemeter.c:292:17
	ldrh	r0, [r0, #2]
.Ltmp152:
	.loc	10 292 5 is_stmt 0              @ lvgl/src/lv_widgets/lv_linemeter.c:292:5
	pop	{r7, pc}
.Ltmp153:
.Lfunc_end13:
	.size	lv_linemeter_get_angle_offset, .Lfunc_end13-lv_linemeter_get_angle_offset
	.cfi_endproc
	.cantunwind
	.fnend
                                        @ -- End function
	.section	.text.lv_linemeter_get_mirror,"ax",%progbits
	.hidden	lv_linemeter_get_mirror         @ -- Begin function lv_linemeter_get_mirror
	.globl	lv_linemeter_get_mirror
	.p2align	3
	.type	lv_linemeter_get_mirror,%function
	.code	16                              @ @lv_linemeter_get_mirror
	.thumb_func
lv_linemeter_get_mirror:
.Lfunc_begin14:
	.loc	10 301 0 is_stmt 1              @ lvgl/src/lv_widgets/lv_linemeter.c:301:0
	.fnstart
	.cfi_startproc
@ %bb.0:
	@DEBUG_VALUE: lv_linemeter_get_mirror:lmeter <- $r0
	@DEBUG_VALUE: lv_linemeter_get_mirror:lmeter <- $r0
	@DEBUG_VALUE: lv_linemeter_get_mirror:lmeter <- $r0
	.save	{r7, lr}
	push	{r7, lr}
	.cfi_def_cfa_offset 8
	.cfi_offset lr, -4
	.cfi_offset r7, -8
.Ltmp154:
	.loc	10 302 32 prologue_end          @ lvgl/src/lv_widgets/lv_linemeter.c:302:32
	bl	lv_obj_get_ext_attr
.Ltmp155:
	@DEBUG_VALUE: lv_linemeter_get_mirror:lmeter <- [DW_OP_LLVM_entry_value 1] $r0
	@DEBUG_VALUE: lv_linemeter_get_mirror:ext <- $r0
	.loc	10 304 17                       @ lvgl/src/lv_widgets/lv_linemeter.c:304:17
	ldrb	r0, [r0, #20]
.Ltmp156:
	and	r0, r0, #1
	.loc	10 304 5 is_stmt 0              @ lvgl/src/lv_widgets/lv_linemeter.c:304:5
	pop	{r7, pc}
.Ltmp157:
.Lfunc_end14:
	.size	lv_linemeter_get_mirror, .Lfunc_end14-lv_linemeter_get_mirror
	.cfi_endproc
	.cantunwind
	.fnend
                                        @ -- End function
	.section	.text.lv_linemeter_draw_scale,"ax",%progbits
	.hidden	lv_linemeter_draw_scale         @ -- Begin function lv_linemeter_draw_scale
	.globl	lv_linemeter_draw_scale
	.p2align	3
	.type	lv_linemeter_draw_scale,%function
	.code	16                              @ @lv_linemeter_draw_scale
	.thumb_func
lv_linemeter_draw_scale:
.Lfunc_begin15:
	.loc	10 308 0 is_stmt 1              @ lvgl/src/lv_widgets/lv_linemeter.c:308:0
	.fnstart
	.cfi_startproc
@ %bb.0:
	@DEBUG_VALUE: lv_linemeter_draw_scale:lmeter <- $r0
	@DEBUG_VALUE: lv_linemeter_draw_scale:clip_area <- $r1
	@DEBUG_VALUE: lv_linemeter_draw_scale:part <- $r2
	.save	{r4, r5, r6, r7, r8, r9, r10, r11, lr}
	push.w	{r4, r5, r6, r7, r8, r9, r10, r11, lr}
	.cfi_def_cfa_offset 36
	.cfi_offset lr, -4
	.cfi_offset r11, -8
	.cfi_offset r10, -12
	.cfi_offset r9, -16
	.cfi_offset r8, -20
	.cfi_offset r7, -24
	.cfi_offset r6, -28
	.cfi_offset r5, -32
	.cfi_offset r4, -36
	.pad	#148
	sub	sp, #148
	.cfi_def_cfa_offset 184
	mov	r5, r2
.Ltmp158:
	@DEBUG_VALUE: lv_linemeter_draw_scale:part <- $r5
	str	r1, [sp, #68]                   @ 4-byte Spill
.Ltmp159:
	@DEBUG_VALUE: lv_linemeter_draw_scale:clip_area <- [DW_OP_plus_uconst 68] [$sp+0]
	mov	r6, r0
	@DEBUG_VALUE: lv_linemeter_draw_scale:part <- $r5
	@DEBUG_VALUE: lv_linemeter_draw_scale:clip_area <- [DW_OP_plus_uconst 68] [$sp+0]
.Ltmp160:
	@DEBUG_VALUE: lv_linemeter_draw_scale:lmeter <- $r6
	.loc	10 309 35 prologue_end          @ lvgl/src/lv_widgets/lv_linemeter.c:309:35
	bl	lv_obj_get_ext_attr
	mov	r9, r0
.Ltmp161:
	@DEBUG_VALUE: lv_linemeter_draw_scale:ext <- $r9
	.loc	10 311 27                       @ lvgl/src/lv_widgets/lv_linemeter.c:311:27
	mov	r0, r6
	bl	lv_obj_get_style_pad_left
	mov	r4, r0
.Ltmp162:
	@DEBUG_VALUE: lv_linemeter_draw_scale:left <- $r4
	.loc	10 312 28                       @ lvgl/src/lv_widgets/lv_linemeter.c:312:28
	mov	r0, r6
	bl	lv_obj_get_style_pad_right
	mov	r7, r0
.Ltmp163:
	@DEBUG_VALUE: lv_linemeter_draw_scale:right <- undef
	.loc	10 313 26                       @ lvgl/src/lv_widgets/lv_linemeter.c:313:26
	mov	r0, r6
	bl	lv_obj_get_style_pad_top
	mov	r10, r0
.Ltmp164:
	@DEBUG_VALUE: lv_linemeter_draw_scale:top <- $r10
	.loc	10 315 25                       @ lvgl/src/lv_widgets/lv_linemeter.c:315:25
	mov	r0, r6
	bl	lv_obj_get_width
	.loc	10 315 50 is_stmt 0             @ lvgl/src/lv_widgets/lv_linemeter.c:315:50
	adds	r1, r7, r4
	.loc	10 315 57                       @ lvgl/src/lv_widgets/lv_linemeter.c:315:57
	subs	r0, r0, r1
	.loc	10 316 32 is_stmt 1             @ lvgl/src/lv_widgets/lv_linemeter.c:316:32
	mov	r1, r5
	.loc	10 315 66                       @ lvgl/src/lv_widgets/lv_linemeter.c:315:66
	add.w	r11, r0, r0, lsr #31
.Ltmp165:
	@DEBUG_VALUE: lv_linemeter_draw_scale:r_out <- undef
	.loc	10 316 32                       @ lvgl/src/lv_widgets/lv_linemeter.c:316:32
	mov	r0, r6
	bl	lv_obj_get_style_scale_width
	.loc	10 316 24 is_stmt 0             @ lvgl/src/lv_widgets/lv_linemeter.c:316:24
	rsb	r8, r0, r11, asr #1
.Ltmp166:
	@DEBUG_VALUE: lv_linemeter_draw_scale:r_in <- $r8
	.loc	10 319 40 is_stmt 1             @ lvgl/src/lv_widgets/lv_linemeter.c:319:40
	ldrh	r1, [r6, #16]
	.loc	10 316 24                       @ lvgl/src/lv_widgets/lv_linemeter.c:316:24
	sxth.w	r0, r8
	.loc	10 321 59                       @ lvgl/src/lv_widgets/lv_linemeter.c:321:59
	ldrh.w	r2, [r9]
	.loc	10 317 8                        @ lvgl/src/lv_widgets/lv_linemeter.c:317:8
	cmp	r0, #1
	.loc	10 319 25                       @ lvgl/src/lv_widgets/lv_linemeter.c:319:25
	add.w	r0, r1, r4
.Ltmp167:
	@DEBUG_VALUE: lv_linemeter_draw_scale:x_ofs <- undef
	.loc	10 321 52                       @ lvgl/src/lv_widgets/lv_linemeter.c:321:52
	rsb.w	r1, r2, #360
	.loc	10 320 40                       @ lvgl/src/lv_widgets/lv_linemeter.c:320:40
	ldrh	r2, [r6, #18]
	.loc	10 322 26                       @ lvgl/src/lv_widgets/lv_linemeter.c:322:26
	ldrb.w	r3, [r9, #20]
	.loc	10 321 30                       @ lvgl/src/lv_widgets/lv_linemeter.c:321:30
	ldrh.w	r7, [r9, #2]
	.loc	10 321 72 is_stmt 0             @ lvgl/src/lv_widgets/lv_linemeter.c:321:72
	add.w	r4, r1, r1, lsr #31
.Ltmp168:
	.loc	10 317 8 is_stmt 1              @ lvgl/src/lv_widgets/lv_linemeter.c:317:8
	it	le
	movle.w	r8, #1
.Ltmp169:
	@DEBUG_VALUE: lv_linemeter_draw_scale:r_in <- $r8
	.loc	10 322 21                       @ lvgl/src/lv_widgets/lv_linemeter.c:322:21
	lsls	r1, r3, #31
	.loc	10 320 25                       @ lvgl/src/lv_widgets/lv_linemeter.c:320:25
	add.w	r1, r2, r10
.Ltmp170:
	@DEBUG_VALUE: lv_linemeter_draw_scale:y_ofs <- undef
	.loc	10 321 40                       @ lvgl/src/lv_widgets/lv_linemeter.c:321:40
	add.w	r2, r7, r4, asr #1
.Ltmp171:
	@DEBUG_VALUE: lv_linemeter_draw_scale:angle_ofs <- [DW_OP_LLVM_convert 32 7, DW_OP_LLVM_convert 16 7, DW_OP_stack_value] undef
	.loc	10 322 21                       @ lvgl/src/lv_widgets/lv_linemeter.c:322:21
	bne	.LBB15_2
.Ltmp172:
@ %bb.1:
	@DEBUG_VALUE: lv_linemeter_draw_scale:top <- $r10
	@DEBUG_VALUE: lv_linemeter_draw_scale:ext <- $r9
	@DEBUG_VALUE: lv_linemeter_draw_scale:r_in <- $r8
	@DEBUG_VALUE: lv_linemeter_draw_scale:lmeter <- $r6
	@DEBUG_VALUE: lv_linemeter_draw_scale:part <- $r5
	@DEBUG_VALUE: lv_linemeter_draw_scale:clip_area <- [DW_OP_plus_uconst 68] [$sp+0]
	.loc	10 324 82                       @ lvgl/src/lv_widgets/lv_linemeter.c:324:82
	ldrh.w	r7, [r9, #4]
	.loc	10 324 46 is_stmt 0             @ lvgl/src/lv_widgets/lv_linemeter.c:324:46
	ldrd	r4, r3, [r9, #8]
	.loc	10 324 56                       @ lvgl/src/lv_widgets/lv_linemeter.c:324:56
	subs	r4, r4, r3
	.loc	10 324 91                       @ lvgl/src/lv_widgets/lv_linemeter.c:324:91
	subs	r7, #1
	.loc	10 324 74                       @ lvgl/src/lv_widgets/lv_linemeter.c:324:74
	muls	r4, r7, r4
	.loc	10 324 105                      @ lvgl/src/lv_widgets/lv_linemeter.c:324:105
	ldr.w	r7, [r9, #16]
	b	.LBB15_3
.Ltmp173:
.LBB15_2:
	@DEBUG_VALUE: lv_linemeter_draw_scale:top <- $r10
	@DEBUG_VALUE: lv_linemeter_draw_scale:ext <- $r9
	@DEBUG_VALUE: lv_linemeter_draw_scale:r_in <- $r8
	@DEBUG_VALUE: lv_linemeter_draw_scale:lmeter <- $r6
	@DEBUG_VALUE: lv_linemeter_draw_scale:part <- $r5
	@DEBUG_VALUE: lv_linemeter_draw_scale:clip_area <- [DW_OP_plus_uconst 68] [$sp+0]
	@DEBUG_VALUE: lv_linemeter_draw_scale:ext <- $r9
	.loc	10 323 82 is_stmt 1             @ lvgl/src/lv_widgets/lv_linemeter.c:323:82
	ldrh.w	r3, [r9, #4]
	.loc	10 323 63 is_stmt 0             @ lvgl/src/lv_widgets/lv_linemeter.c:323:63
	ldr.w	r4, [r9, #8]
	.loc	10 323 46                       @ lvgl/src/lv_widgets/lv_linemeter.c:323:46
	ldr.w	r7, [r9, #16]
	.loc	10 323 56                       @ lvgl/src/lv_widgets/lv_linemeter.c:323:56
	subs	r4, r7, r4
	.loc	10 323 91                       @ lvgl/src/lv_widgets/lv_linemeter.c:323:91
	subs	r3, #1
	.loc	10 323 74                       @ lvgl/src/lv_widgets/lv_linemeter.c:323:74
	muls	r4, r3, r4
	.loc	10 323 122                      @ lvgl/src/lv_widgets/lv_linemeter.c:323:122
	ldr.w	r3, [r9, #12]
.Ltmp174:
.LBB15_3:
	@DEBUG_VALUE: lv_linemeter_draw_scale:top <- $r10
	@DEBUG_VALUE: lv_linemeter_draw_scale:ext <- $r9
	@DEBUG_VALUE: lv_linemeter_draw_scale:r_in <- $r8
	@DEBUG_VALUE: lv_linemeter_draw_scale:lmeter <- $r6
	@DEBUG_VALUE: lv_linemeter_draw_scale:part <- $r5
	@DEBUG_VALUE: lv_linemeter_draw_scale:clip_area <- [DW_OP_plus_uconst 68] [$sp+0]
	@DEBUG_VALUE: lv_linemeter_draw_scale:r_out <- undef
	.loc	10 0 0                          @ lvgl/src/lv_widgets/lv_linemeter.c:0:0
	subs	r3, r7, r3
	add.w	r7, r0, r11, asr #1
.Ltmp175:
	@DEBUG_VALUE: lv_linemeter_draw_scale:x_ofs <- $r7
	add.w	r10, r1, r11, asr #1
.Ltmp176:
	@DEBUG_VALUE: lv_linemeter_draw_scale:y_ofs <- $r10
	add.w	r0, r2, #90
.Ltmp177:
	@DEBUG_VALUE: lv_linemeter_draw_scale:angle_ofs <- [DW_OP_LLVM_convert 32 7, DW_OP_LLVM_convert 16 7, DW_OP_stack_value] $r0
	.loc	10 327 29 is_stmt 1             @ lvgl/src/lv_widgets/lv_linemeter.c:327:29
	str	r0, [sp, #72]                   @ 4-byte Spill
.Ltmp178:
	@DEBUG_VALUE: lv_linemeter_draw_scale:angle_ofs <- [DW_OP_plus_uconst 72, DW_OP_LLVM_convert 32 7, DW_OP_LLVM_convert 16 7, DW_OP_stack_value] [$sp+0]
	@DEBUG_VALUE: lv_linemeter_draw_scale:angle_ofs <- [DW_OP_plus_uconst 72, DW_OP_deref_size 4, DW_OP_LLVM_convert 32 7, DW_OP_LLVM_convert 16 7, DW_OP_stack_value] $sp
	mov	r0, r6
	mov	r1, r5
	.loc	10 0 0 is_stmt 0                @ lvgl/src/lv_widgets/lv_linemeter.c:0:0
	sdiv	r3, r4, r3
.Ltmp179:
	@DEBUG_VALUE: lv_linemeter_draw_scale:level <- [DW_OP_LLVM_convert 32 7, DW_OP_LLVM_convert 16 7, DW_OP_stack_value] $r3
	str	r3, [sp, #24]                   @ 4-byte Spill
.Ltmp180:
	@DEBUG_VALUE: lv_linemeter_draw_scale:level <- [DW_OP_plus_uconst 24, DW_OP_LLVM_convert 32 7, DW_OP_LLVM_convert 16 7, DW_OP_stack_value] [$sp+0]
	@DEBUG_VALUE: lv_linemeter_draw_scale:level <- [DW_OP_plus_uconst 24, DW_OP_deref_size 4, DW_OP_LLVM_convert 32 7, DW_OP_LLVM_convert 16 7, DW_OP_stack_value] $sp
	.loc	10 327 29                       @ lvgl/src/lv_widgets/lv_linemeter.c:327:29
	bl	lv_obj_get_style_line_color
	str	r0, [sp, #36]                   @ 4-byte Spill
.Ltmp181:
	@DEBUG_VALUE: lv_linemeter_draw_scale:main_color <- [DW_OP_plus_uconst 36] [$sp+0]
	.loc	10 328 29 is_stmt 1             @ lvgl/src/lv_widgets/lv_linemeter.c:328:29
	mov	r0, r6
	mov	r1, r5
	bl	lv_obj_get_style_scale_grad_color
	str	r0, [sp, #32]                   @ 4-byte Spill
.Ltmp182:
	@DEBUG_VALUE: lv_linemeter_draw_scale:grad_color <- [DW_OP_plus_uconst 32] [$sp+0]
	.loc	10 329 28                       @ lvgl/src/lv_widgets/lv_linemeter.c:329:28
	mov	r0, r6
	mov	r1, r5
	bl	lv_obj_get_style_scale_end_color
	add	r4, sp, #136
	str	r0, [sp, #40]                   @ 4-byte Spill
.Ltmp183:
	@DEBUG_VALUE: lv_linemeter_draw_scale:end_color <- [DW_OP_plus_uconst 40] [$sp+0]
	.loc	10 332 5                        @ lvgl/src/lv_widgets/lv_linemeter.c:332:5
	mov	r0, r4
	bl	lv_draw_line_dsc_init
	.loc	10 333 5                        @ lvgl/src/lv_widgets/lv_linemeter.c:333:5
	mov	r0, r6
	mov	r1, r5
	mov	r2, r4
	bl	lv_obj_init_draw_line_dsc
	.loc	10 338 37                       @ lvgl/src/lv_widgets/lv_linemeter.c:338:37
	mov	r0, r6
	mov	r1, r5
	bl	lv_obj_get_style_scale_end_line_width
.Ltmp184:
	.loc	10 366 25                       @ lvgl/src/lv_widgets/lv_linemeter.c:366:25
	ldrh.w	r1, [r9, #4]
.Ltmp185:
	.loc	10 338 37                       @ lvgl/src/lv_widgets/lv_linemeter.c:338:37
	str	r0, [sp, #28]                   @ 4-byte Spill
.Ltmp186:
	@DEBUG_VALUE: lv_linemeter_draw_scale:i <- 0
	@DEBUG_VALUE: lv_linemeter_draw_scale:end_line_width <- undef
	@DEBUG_VALUE: lv_linemeter_draw_scale:y_ofs <- [DW_OP_plus_uconst 52] [$sp+0]
	.loc	10 0 37 is_stmt 0               @ lvgl/src/lv_widgets/lv_linemeter.c:0:37
	strd	r7, r10, [sp, #48]              @ 8-byte Folded Spill
.Ltmp187:
	@DEBUG_VALUE: lv_linemeter_draw_scale:x_ofs <- [DW_OP_plus_uconst 48] [$sp+0]
	.loc	10 366 5 is_stmt 1              @ lvgl/src/lv_widgets/lv_linemeter.c:366:5
	cmp	r1, #0
.Ltmp188:
	@DEBUG_VALUE: lv_linemeter_draw_scale:r_out_extra <- [DW_OP_LLVM_convert 32 7, DW_OP_LLVM_convert 16 7, DW_OP_stack_value] undef
	str.w	r11, [sp, #12]                  @ 4-byte Spill
	beq.w	.LBB15_15
.Ltmp189:
@ %bb.4:
	@DEBUG_VALUE: lv_linemeter_draw_scale:ext <- $r9
	@DEBUG_VALUE: lv_linemeter_draw_scale:r_in <- $r8
	@DEBUG_VALUE: lv_linemeter_draw_scale:lmeter <- $r6
	@DEBUG_VALUE: lv_linemeter_draw_scale:part <- $r5
	@DEBUG_VALUE: lv_linemeter_draw_scale:x_ofs <- [DW_OP_plus_uconst 48] [$sp+0]
	@DEBUG_VALUE: lv_linemeter_draw_scale:y_ofs <- [DW_OP_plus_uconst 52] [$sp+0]
	@DEBUG_VALUE: lv_linemeter_draw_scale:end_color <- [DW_OP_plus_uconst 40] [$sp+0]
	@DEBUG_VALUE: lv_linemeter_draw_scale:grad_color <- [DW_OP_plus_uconst 32] [$sp+0]
	@DEBUG_VALUE: lv_linemeter_draw_scale:main_color <- [DW_OP_plus_uconst 36] [$sp+0]
	@DEBUG_VALUE: lv_linemeter_draw_scale:level <- [DW_OP_plus_uconst 24, DW_OP_deref_size 4, DW_OP_LLVM_convert 32 7, DW_OP_LLVM_convert 16 7, DW_OP_stack_value] $sp
	@DEBUG_VALUE: lv_linemeter_draw_scale:angle_ofs <- [DW_OP_plus_uconst 72, DW_OP_deref_size 4, DW_OP_LLVM_convert 32 7, DW_OP_LLVM_convert 16 7, DW_OP_stack_value] $sp
	@DEBUG_VALUE: lv_linemeter_draw_scale:clip_area <- [DW_OP_plus_uconst 68] [$sp+0]
	@DEBUG_VALUE: lv_linemeter_draw_scale:i <- 0
	.loc	10 0 5 is_stmt 0                @ lvgl/src/lv_widgets/lv_linemeter.c:0:5
	sbfx	r0, r11, #1, #16
	str	r0, [sp, #104]                  @ 4-byte Spill
	uxth	r0, r7
	str	r0, [sp, #64]                   @ 4-byte Spill
	uxth.w	r0, r10
	str	r0, [sp, #60]                   @ 4-byte Spill
	uxth.w	r0, r8
	str	r0, [sp, #100]                  @ 4-byte Spill
	ldr	r0, [sp, #24]                   @ 4-byte Reload
	movs	r2, #0
	sxth	r0, r0
	str	r0, [sp, #44]                   @ 4-byte Spill
	movs	r0, #0
	ldr	r4, [sp, #72]                   @ 4-byte Reload
	ldrd	r8, r10, [sp, #60]              @ 8-byte Folded Reload
.Ltmp190:
	strd	r6, r5, [sp, #16]               @ 8-byte Folded Spill
	str.w	r9, [sp, #56]                   @ 4-byte Spill
	b	.LBB15_8
.Ltmp191:
	.p2align	2
.LBB15_5:                               @   in Loop: Header=BB15_8 Depth=1
	@DEBUG_VALUE: y_in <- $r11
	@DEBUG_VALUE: cos_high <- [DW_OP_plus_uconst 76] [$sp+0]
	@DEBUG_VALUE: cos_low <- [DW_OP_plus_uconst 80] [$sp+0]
	@DEBUG_VALUE: sin_high <- [DW_OP_plus_uconst 84] [$sp+0]
	@DEBUG_VALUE: sin_low <- [DW_OP_plus_uconst 88] [$sp+0]
	@DEBUG_VALUE: angle_upscale <- [DW_OP_plus_uconst 92] [$sp+0]
	@DEBUG_VALUE: lv_linemeter_draw_scale:i <- [DW_OP_plus_uconst 112] [$sp+0]
	@DEBUG_VALUE: lv_linemeter_draw_scale:x_ofs <- [DW_OP_plus_uconst 48] [$sp+0]
	@DEBUG_VALUE: lv_linemeter_draw_scale:y_ofs <- [DW_OP_plus_uconst 52] [$sp+0]
	@DEBUG_VALUE: lv_linemeter_draw_scale:end_color <- [DW_OP_plus_uconst 40] [$sp+0]
	@DEBUG_VALUE: lv_linemeter_draw_scale:grad_color <- [DW_OP_plus_uconst 32] [$sp+0]
	@DEBUG_VALUE: lv_linemeter_draw_scale:main_color <- [DW_OP_plus_uconst 36] [$sp+0]
	@DEBUG_VALUE: lv_linemeter_draw_scale:level <- [DW_OP_plus_uconst 24, DW_OP_deref_size 4, DW_OP_LLVM_convert 32 7, DW_OP_LLVM_convert 16 7, DW_OP_stack_value] $sp
	@DEBUG_VALUE: lv_linemeter_draw_scale:angle_ofs <- [DW_OP_plus_uconst 72, DW_OP_deref_size 4, DW_OP_LLVM_convert 32 7, DW_OP_LLVM_convert 16 7, DW_OP_stack_value] $sp
	@DEBUG_VALUE: lv_linemeter_draw_scale:clip_area <- [DW_OP_plus_uconst 68] [$sp+0]
	.loc	10 450 30 is_stmt 1             @ lvgl/src/lv_widgets/lv_linemeter.c:450:30
	ldr	r0, [sp, #40]                   @ 4-byte Reload
	str	r0, [sp, #136]
	.loc	10 451 28                       @ lvgl/src/lv_widgets/lv_linemeter.c:451:28
	ldr	r0, [sp, #28]                   @ 4-byte Reload
	strh.w	r0, [sp, #140]
.Ltmp192:
.LBB15_6:                               @   in Loop: Header=BB15_8 Depth=1
	@DEBUG_VALUE: y_in <- $r11
	@DEBUG_VALUE: cos_high <- [DW_OP_plus_uconst 76] [$sp+0]
	@DEBUG_VALUE: cos_low <- [DW_OP_plus_uconst 80] [$sp+0]
	@DEBUG_VALUE: sin_high <- [DW_OP_plus_uconst 84] [$sp+0]
	@DEBUG_VALUE: sin_low <- [DW_OP_plus_uconst 88] [$sp+0]
	@DEBUG_VALUE: angle_upscale <- [DW_OP_plus_uconst 92] [$sp+0]
	@DEBUG_VALUE: lv_linemeter_draw_scale:i <- [DW_OP_plus_uconst 112] [$sp+0]
	@DEBUG_VALUE: lv_linemeter_draw_scale:x_ofs <- [DW_OP_plus_uconst 48] [$sp+0]
	@DEBUG_VALUE: lv_linemeter_draw_scale:y_ofs <- [DW_OP_plus_uconst 52] [$sp+0]
	@DEBUG_VALUE: lv_linemeter_draw_scale:end_color <- [DW_OP_plus_uconst 40] [$sp+0]
	@DEBUG_VALUE: lv_linemeter_draw_scale:grad_color <- [DW_OP_plus_uconst 32] [$sp+0]
	@DEBUG_VALUE: lv_linemeter_draw_scale:main_color <- [DW_OP_plus_uconst 36] [$sp+0]
	@DEBUG_VALUE: lv_linemeter_draw_scale:level <- [DW_OP_plus_uconst 24, DW_OP_deref_size 4, DW_OP_LLVM_convert 32 7, DW_OP_LLVM_convert 16 7, DW_OP_stack_value] $sp
	@DEBUG_VALUE: lv_linemeter_draw_scale:angle_ofs <- [DW_OP_plus_uconst 72, DW_OP_deref_size 4, DW_OP_LLVM_convert 32 7, DW_OP_LLVM_convert 16 7, DW_OP_stack_value] $sp
	@DEBUG_VALUE: lv_linemeter_draw_scale:clip_area <- [DW_OP_plus_uconst 68] [$sp+0]
	.loc	10 457 9                        @ lvgl/src/lv_widgets/lv_linemeter.c:457:9
	add	r0, sp, #132
	add	r1, sp, #128
	add	r2, sp, #116
	add	r3, sp, #136
	bl	lv_draw_line
.Ltmp193:
.LBB15_7:                               @   in Loop: Header=BB15_8 Depth=1
	@DEBUG_VALUE: lv_linemeter_draw_scale:i <- [DW_OP_plus_uconst 112] [$sp+0]
	@DEBUG_VALUE: lv_linemeter_draw_scale:x_ofs <- [DW_OP_plus_uconst 48] [$sp+0]
	@DEBUG_VALUE: lv_linemeter_draw_scale:y_ofs <- [DW_OP_plus_uconst 52] [$sp+0]
	@DEBUG_VALUE: lv_linemeter_draw_scale:end_color <- [DW_OP_plus_uconst 40] [$sp+0]
	@DEBUG_VALUE: lv_linemeter_draw_scale:grad_color <- [DW_OP_plus_uconst 32] [$sp+0]
	@DEBUG_VALUE: lv_linemeter_draw_scale:main_color <- [DW_OP_plus_uconst 36] [$sp+0]
	@DEBUG_VALUE: lv_linemeter_draw_scale:level <- [DW_OP_plus_uconst 24, DW_OP_deref_size 4, DW_OP_LLVM_convert 32 7, DW_OP_LLVM_convert 16 7, DW_OP_stack_value] $sp
	@DEBUG_VALUE: lv_linemeter_draw_scale:angle_ofs <- [DW_OP_plus_uconst 72, DW_OP_deref_size 4, DW_OP_LLVM_convert 32 7, DW_OP_LLVM_convert 16 7, DW_OP_stack_value] $sp
	@DEBUG_VALUE: lv_linemeter_draw_scale:clip_area <- [DW_OP_plus_uconst 68] [$sp+0]
	.loc	10 0 9 is_stmt 0                @ lvgl/src/lv_widgets/lv_linemeter.c:0:9
	ldr	r0, [sp, #112]                  @ 4-byte Reload
	.loc	10 366 25 is_stmt 1             @ lvgl/src/lv_widgets/lv_linemeter.c:366:25
	ldrh.w	r1, [r9, #4]
	.loc	10 366 36 is_stmt 0             @ lvgl/src/lv_widgets/lv_linemeter.c:366:36
	adds	r0, #1
.Ltmp194:
	@DEBUG_VALUE: lv_linemeter_draw_scale:i <- $r0
	.loc	10 0 36                         @ lvgl/src/lv_widgets/lv_linemeter.c:0:36
	ldr	r4, [sp, #72]                   @ 4-byte Reload
	.loc	10 366 16                       @ lvgl/src/lv_widgets/lv_linemeter.c:366:16
	uxtb	r2, r0
.Ltmp195:
	.loc	10 366 5                        @ lvgl/src/lv_widgets/lv_linemeter.c:366:5
	cmp	r2, r1
	bhs.w	.LBB15_14
.Ltmp196:
.LBB15_8:                               @ =>This Inner Loop Header: Depth=1
	@DEBUG_VALUE: lv_linemeter_draw_scale:x_ofs <- [DW_OP_plus_uconst 48] [$sp+0]
	@DEBUG_VALUE: lv_linemeter_draw_scale:y_ofs <- [DW_OP_plus_uconst 52] [$sp+0]
	@DEBUG_VALUE: lv_linemeter_draw_scale:end_color <- [DW_OP_plus_uconst 40] [$sp+0]
	@DEBUG_VALUE: lv_linemeter_draw_scale:grad_color <- [DW_OP_plus_uconst 32] [$sp+0]
	@DEBUG_VALUE: lv_linemeter_draw_scale:main_color <- [DW_OP_plus_uconst 36] [$sp+0]
	@DEBUG_VALUE: lv_linemeter_draw_scale:level <- [DW_OP_plus_uconst 24, DW_OP_deref_size 4, DW_OP_LLVM_convert 32 7, DW_OP_LLVM_convert 16 7, DW_OP_stack_value] $sp
	@DEBUG_VALUE: lv_linemeter_draw_scale:angle_ofs <- [DW_OP_plus_uconst 72, DW_OP_deref_size 4, DW_OP_LLVM_convert 32 7, DW_OP_LLVM_convert 16 7, DW_OP_stack_value] $sp
	@DEBUG_VALUE: lv_linemeter_draw_scale:clip_area <- [DW_OP_plus_uconst 68] [$sp+0]
	@DEBUG_VALUE: lv_linemeter_draw_scale:i <- $r0
	.loc	10 0 5                          @ lvgl/src/lv_widgets/lv_linemeter.c:0:5
	str	r0, [sp, #112]                  @ 4-byte Spill
.Ltmp197:
	@DEBUG_VALUE: lv_linemeter_draw_scale:i <- [DW_OP_plus_uconst 112] [$sp+0]
	@DEBUG_VALUE: lv_linemeter_draw_scale:i <- [DW_OP_plus_uconst 112] [$sp+0]
	@DEBUG_VALUE: lv_linemeter_draw_scale:i <- [DW_OP_plus_uconst 112] [$sp+0]
	.loc	10 368 43 is_stmt 1             @ lvgl/src/lv_widgets/lv_linemeter.c:368:43
	ldrh.w	r0, [r9]
	.loc	10 368 79 is_stmt 0             @ lvgl/src/lv_widgets/lv_linemeter.c:368:79
	subs	r1, #1
	str	r2, [sp, #96]                   @ 4-byte Spill
	.loc	10 368 55                       @ lvgl/src/lv_widgets/lv_linemeter.c:368:55
	muls	r0, r2, r0
	lsls	r0, r0, #8
	.loc	10 368 62                       @ lvgl/src/lv_widgets/lv_linemeter.c:368:62
	sdiv	r0, r0, r1
.Ltmp198:
	@DEBUG_VALUE: angle_rem <- undef
	@DEBUG_VALUE: angle_high <- undef
	@DEBUG_VALUE: angle_low <- undef
	@DEBUG_VALUE: angle_normal <- undef
	@DEBUG_VALUE: angle_upscale <- $r0
	.loc	10 0 62                         @ lvgl/src/lv_widgets/lv_linemeter.c:0:62
	str	r0, [sp, #92]                   @ 4-byte Spill
.Ltmp199:
	@DEBUG_VALUE: angle_upscale <- [DW_OP_plus_uconst 92] [$sp+0]
	.loc	10 376 51 is_stmt 1             @ lvgl/src/lv_widgets/lv_linemeter.c:376:51
	add.w	r6, r4, r0, asr #8
	.loc	10 376 27 is_stmt 0             @ lvgl/src/lv_widgets/lv_linemeter.c:376:27
	sxth	r7, r6
	mov	r0, r7
	bl	_lv_trigo_sin
	str	r0, [sp, #88]                   @ 4-byte Spill
.Ltmp200:
	@DEBUG_VALUE: sin_low <- [DW_OP_plus_uconst 88] [$sp+0]
	.loc	10 377 42 is_stmt 1             @ lvgl/src/lv_widgets/lv_linemeter.c:377:42
	adds	r0, r6, #1
	.loc	10 377 28 is_stmt 0             @ lvgl/src/lv_widgets/lv_linemeter.c:377:28
	sxth	r0, r0
	bl	_lv_trigo_sin
	str	r0, [sp, #84]                   @ 4-byte Spill
.Ltmp201:
	@DEBUG_VALUE: sin_mid <- undef
	@DEBUG_VALUE: sin_high <- [DW_OP_plus_uconst 84] [$sp+0]
	.loc	10 380 41 is_stmt 1             @ lvgl/src/lv_widgets/lv_linemeter.c:380:41
	add.w	r0, r6, #90
	.loc	10 380 27 is_stmt 0             @ lvgl/src/lv_widgets/lv_linemeter.c:380:27
	sxth	r4, r0
	mov	r0, r4
	bl	_lv_trigo_sin
	str	r0, [sp, #80]                   @ 4-byte Spill
.Ltmp202:
	@DEBUG_VALUE: cos_low <- [DW_OP_plus_uconst 80] [$sp+0]
	.loc	10 381 42 is_stmt 1             @ lvgl/src/lv_widgets/lv_linemeter.c:381:42
	add.w	r0, r6, #91
	.loc	10 381 28 is_stmt 0             @ lvgl/src/lv_widgets/lv_linemeter.c:381:28
	sxth	r0, r0
	bl	_lv_trigo_sin
	str	r0, [sp, #76]                   @ 4-byte Spill
.Ltmp203:
	@DEBUG_VALUE: x_in_extra <- undef
	@DEBUG_VALUE: y_in_extra <- undef
	@DEBUG_VALUE: x_out_extra <- undef
	@DEBUG_VALUE: y_out_extra <- undef
	@DEBUG_VALUE: cos_mid <- undef
	@DEBUG_VALUE: cos_high <- [DW_OP_plus_uconst 76] [$sp+0]
	.loc	10 419 44 is_stmt 1             @ lvgl/src/lv_widgets/lv_linemeter.c:419:44
	mov	r0, r7
	bl	_lv_trigo_sin
	ldr	r5, [sp, #100]                  @ 4-byte Reload
	.loc	10 419 84 is_stmt 0             @ lvgl/src/lv_widgets/lv_linemeter.c:419:84
	mul	r6, r0, r5
	.loc	10 419 92                       @ lvgl/src/lv_widgets/lv_linemeter.c:419:92
	asrs	r0, r6, #15
.Ltmp204:
	@DEBUG_VALUE: y_in <- $r0
	.loc	10 420 44 is_stmt 1             @ lvgl/src/lv_widgets/lv_linemeter.c:420:44
	str	r0, [sp, #108]                  @ 4-byte Spill
.Ltmp205:
	@DEBUG_VALUE: y_in <- [DW_OP_plus_uconst 108] [$sp+0]
	@DEBUG_VALUE: y_in <- [DW_OP_plus_uconst 108] [$sp+0]
	@DEBUG_VALUE: y_in <- [DW_OP_plus_uconst 108] [$sp+0]
	mov	r0, r4
	bl	_lv_trigo_sin
	.loc	10 420 89 is_stmt 0             @ lvgl/src/lv_widgets/lv_linemeter.c:420:89
	muls	r0, r5, r0
	.loc	10 423 14 is_stmt 1             @ lvgl/src/lv_widgets/lv_linemeter.c:423:14
	add.w	r11, r8, r6, asr #15
.Ltmp206:
	@DEBUG_VALUE: y_in <- $r11
	.loc	10 420 97                       @ lvgl/src/lv_widgets/lv_linemeter.c:420:97
	asr.w	r9, r0, #15
.Ltmp207:
	@DEBUG_VALUE: x_in <- $r9
	.loc	10 422 14                       @ lvgl/src/lv_widgets/lv_linemeter.c:422:14
	add.w	r5, r10, r0, asr #15
.Ltmp208:
	@DEBUG_VALUE: x_in <- $r5
	.loc	10 425 45                       @ lvgl/src/lv_widgets/lv_linemeter.c:425:45
	mov	r0, r7
	bl	_lv_trigo_sin
	ldr	r7, [sp, #104]                  @ 4-byte Reload
	.loc	10 425 85 is_stmt 0             @ lvgl/src/lv_widgets/lv_linemeter.c:425:85
	mul	r6, r7, r0
.Ltmp209:
	@DEBUG_VALUE: y_out <- undef
	.loc	10 426 45 is_stmt 1             @ lvgl/src/lv_widgets/lv_linemeter.c:426:45
	mov	r0, r4
	bl	_lv_trigo_sin
	.loc	10 426 90 is_stmt 0             @ lvgl/src/lv_widgets/lv_linemeter.c:426:90
	muls	r0, r7, r0
.Ltmp210:
	@DEBUG_VALUE: x_out <- undef
	.loc	10 429 15 is_stmt 1             @ lvgl/src/lv_widgets/lv_linemeter.c:429:15
	add.w	r3, r8, r6, asr #15
.Ltmp211:
	@DEBUG_VALUE: y_out <- $r3
	.loc	10 428 15                       @ lvgl/src/lv_widgets/lv_linemeter.c:428:15
	add.w	r1, r10, r0, asr #15
.Ltmp212:
	@DEBUG_VALUE: x_out <- $r1
	.loc	10 432 23                       @ lvgl/src/lv_widgets/lv_linemeter.c:432:23
	cmp.w	r9, r0, asr #15
	mov	r0, r1
	ldr.w	r9, [sp, #56]                   @ 4-byte Reload
	it	lt
	movlt	r0, r5
	.loc	10 432 59 is_stmt 0             @ lvgl/src/lv_widgets/lv_linemeter.c:432:59
	ldrh.w	r2, [sp, #140]
	.loc	10 433 23 is_stmt 1             @ lvgl/src/lv_widgets/lv_linemeter.c:433:23
	it	gt
	movgt	r1, r5
.Ltmp213:
	.loc	10 432 23                       @ lvgl/src/lv_widgets/lv_linemeter.c:432:23
	subs	r0, r0, r2
	.loc	10 432 21 is_stmt 0             @ lvgl/src/lv_widgets/lv_linemeter.c:432:21
	strh.w	r0, [sp, #116]
	.loc	10 434 23 is_stmt 1             @ lvgl/src/lv_widgets/lv_linemeter.c:434:23
	ldr	r0, [sp, #108]                  @ 4-byte Reload
	cmp.w	r0, r6, asr #15
	.loc	10 433 23                       @ lvgl/src/lv_widgets/lv_linemeter.c:433:23
	add.w	r0, r2, r1
	.loc	10 434 23                       @ lvgl/src/lv_widgets/lv_linemeter.c:434:23
	mov	r1, r3
	it	lt
	movlt	r1, r11
	.loc	10 433 21                       @ lvgl/src/lv_widgets/lv_linemeter.c:433:21
	strh.w	r0, [sp, #120]
	.loc	10 435 23                       @ lvgl/src/lv_widgets/lv_linemeter.c:435:23
	it	gt
	movgt	r3, r11
.Ltmp214:
	.loc	10 434 23                       @ lvgl/src/lv_widgets/lv_linemeter.c:434:23
	subs	r0, r1, r2
	.loc	10 434 21 is_stmt 0             @ lvgl/src/lv_widgets/lv_linemeter.c:434:21
	strh.w	r0, [sp, #118]
	.loc	10 435 23 is_stmt 1             @ lvgl/src/lv_widgets/lv_linemeter.c:435:23
	adds	r0, r2, r3
	.loc	10 435 21 is_stmt 0             @ lvgl/src/lv_widgets/lv_linemeter.c:435:21
	strh.w	r0, [sp, #122]
	add	r0, sp, #116
.Ltmp215:
	.loc	10 437 12 is_stmt 1             @ lvgl/src/lv_widgets/lv_linemeter.c:437:12
	ldr	r2, [sp, #68]                   @ 4-byte Reload
	mov	r1, r0
	bl	_lv_area_intersect
.Ltmp216:
	.loc	10 437 12 is_stmt 0             @ lvgl/src/lv_widgets/lv_linemeter.c:437:12
	cmp	r0, #0
	beq	.LBB15_7
.Ltmp217:
@ %bb.9:                                @   in Loop: Header=BB15_8 Depth=1
	@DEBUG_VALUE: y_in <- $r11
	@DEBUG_VALUE: x_in <- $r5
	@DEBUG_VALUE: cos_high <- [DW_OP_plus_uconst 76] [$sp+0]
	@DEBUG_VALUE: cos_low <- [DW_OP_plus_uconst 80] [$sp+0]
	@DEBUG_VALUE: sin_high <- [DW_OP_plus_uconst 84] [$sp+0]
	@DEBUG_VALUE: sin_low <- [DW_OP_plus_uconst 88] [$sp+0]
	@DEBUG_VALUE: angle_upscale <- [DW_OP_plus_uconst 92] [$sp+0]
	@DEBUG_VALUE: lv_linemeter_draw_scale:i <- [DW_OP_plus_uconst 112] [$sp+0]
	@DEBUG_VALUE: lv_linemeter_draw_scale:x_ofs <- [DW_OP_plus_uconst 48] [$sp+0]
	@DEBUG_VALUE: lv_linemeter_draw_scale:y_ofs <- [DW_OP_plus_uconst 52] [$sp+0]
	@DEBUG_VALUE: lv_linemeter_draw_scale:end_color <- [DW_OP_plus_uconst 40] [$sp+0]
	@DEBUG_VALUE: lv_linemeter_draw_scale:grad_color <- [DW_OP_plus_uconst 32] [$sp+0]
	@DEBUG_VALUE: lv_linemeter_draw_scale:main_color <- [DW_OP_plus_uconst 36] [$sp+0]
	@DEBUG_VALUE: lv_linemeter_draw_scale:level <- [DW_OP_plus_uconst 24, DW_OP_deref_size 4, DW_OP_LLVM_convert 32 7, DW_OP_LLVM_convert 16 7, DW_OP_stack_value] $sp
	@DEBUG_VALUE: lv_linemeter_draw_scale:angle_ofs <- [DW_OP_plus_uconst 72, DW_OP_deref_size 4, DW_OP_LLVM_convert 32 7, DW_OP_LLVM_convert 16 7, DW_OP_stack_value] $sp
	@DEBUG_VALUE: lv_linemeter_draw_scale:clip_area <- [DW_OP_plus_uconst 68] [$sp+0]
	.loc	10 0 0                          @ lvgl/src/lv_widgets/lv_linemeter.c:0:0
	ldr	r0, [sp, #92]                   @ 4-byte Reload
	ldr	r3, [sp, #88]                   @ 4-byte Reload
	uxtb	r0, r0
.Ltmp218:
	@DEBUG_VALUE: angle_rem <- $r0
	ldr	r2, [sp, #84]                   @ 4-byte Reload
	rsb.w	r1, r0, #256
	ldr	r7, [sp, #104]                  @ 4-byte Reload
	muls	r2, r0, r2
	movw	r4, #65409
	smlabb	r2, r1, r3, r2
	ldr	r3, [sp, #76]                   @ 4-byte Reload
	movt	r4, #255
	muls	r0, r3, r0
.Ltmp219:
	ldr	r3, [sp, #80]                   @ 4-byte Reload
	asrs	r2, r2, #8
.Ltmp220:
	@DEBUG_VALUE: sin_mid <- $r2
	.loc	10 405 12 is_stmt 1             @ lvgl/src/lv_widgets/lv_linemeter.c:405:12
	mov	r6, r4
	.loc	10 0 0 is_stmt 0                @ lvgl/src/lv_widgets/lv_linemeter.c:0:0
	smlabb	r0, r1, r3, r0
	ldr	r3, [sp, #100]                  @ 4-byte Reload
	mul	r1, r2, r7
	.loc	10 392 12 is_stmt 1             @ lvgl/src/lv_widgets/lv_linemeter.c:392:12
	mov	r5, r4
.Ltmp221:
	.loc	10 0 0 is_stmt 0                @ lvgl/src/lv_widgets/lv_linemeter.c:0:0
	asrs	r0, r0, #8
.Ltmp222:
	@DEBUG_VALUE: cos_mid <- $r0
	muls	r2, r3, r2
.Ltmp223:
	muls	r3, r0, r3
.Ltmp224:
	@DEBUG_VALUE: y_in_extra <- [DW_OP_constu 7, DW_OP_shra, DW_OP_stack_value] $r2
	muls	r0, r7, r0
.Ltmp225:
	.loc	10 408 12 is_stmt 1             @ lvgl/src/lv_widgets/lv_linemeter.c:408:12
	mov	r7, r4
	cmp	r2, #127
	it	gt
	movgt	r7, #127
	.loc	10 405 12                       @ lvgl/src/lv_widgets/lv_linemeter.c:405:12
	cmp	r3, #127
	it	gt
	movgt	r6, #127
	.loc	10 408 12                       @ lvgl/src/lv_widgets/lv_linemeter.c:408:12
	add.w	r2, r7, r2, lsr #7
.Ltmp226:
	@DEBUG_VALUE: x_in_extra <- [DW_OP_constu 7, DW_OP_shra, DW_OP_stack_value] $r3
	@DEBUG_VALUE: y_in_extra <- [DW_OP_constu 8, DW_OP_shra, DW_OP_stack_value] undef
	.loc	10 389 12                       @ lvgl/src/lv_widgets/lv_linemeter.c:389:12
	mov	r7, r4
	.loc	10 392 12                       @ lvgl/src/lv_widgets/lv_linemeter.c:392:12
	cmp	r1, #127
	it	gt
	movgt	r5, #127
	.loc	10 389 12                       @ lvgl/src/lv_widgets/lv_linemeter.c:389:12
	cmp	r0, #127
	.loc	10 405 12                       @ lvgl/src/lv_widgets/lv_linemeter.c:405:12
	add.w	r3, r6, r3, lsr #7
.Ltmp227:
	@DEBUG_VALUE: x_in_extra <- [DW_OP_constu 8, DW_OP_shra, DW_OP_stack_value] undef
	@DEBUG_VALUE: y_out_extra <- [DW_OP_constu 7, DW_OP_shra, DW_OP_stack_value] $r1
	.loc	10 389 12                       @ lvgl/src/lv_widgets/lv_linemeter.c:389:12
	it	gt
	movgt	r7, #127
	ldr	r6, [sp, #48]                   @ 4-byte Reload
	.loc	10 392 12                       @ lvgl/src/lv_widgets/lv_linemeter.c:392:12
	add.w	r1, r5, r1, lsr #7
.Ltmp228:
	@DEBUG_VALUE: x_out_extra <- [DW_OP_constu 7, DW_OP_shra, DW_OP_stack_value] $r0
	@DEBUG_VALUE: y_out_extra <- [DW_OP_constu 8, DW_OP_shra, DW_OP_stack_value] undef
	.loc	10 389 12                       @ lvgl/src/lv_widgets/lv_linemeter.c:389:12
	add.w	r0, r7, r0, lsr #7
.Ltmp229:
	@DEBUG_VALUE: x_in_extra <- undef
	@DEBUG_VALUE: y_in_extra <- undef
	@DEBUG_VALUE: x_out_extra <- [DW_OP_constu 8, DW_OP_shra, DW_OP_stack_value] undef
	.loc	10 0 12 is_stmt 0               @ lvgl/src/lv_widgets/lv_linemeter.c:0:12
	ldr	r7, [sp, #52]                   @ 4-byte Reload
	.loc	10 442 16 is_stmt 1             @ lvgl/src/lv_widgets/lv_linemeter.c:442:16
	add.w	r3, r6, r3, lsr #8
	.loc	10 442 14 is_stmt 0             @ lvgl/src/lv_widgets/lv_linemeter.c:442:14
	strh.w	r3, [sp, #128]
.Ltmp230:
	.loc	10 449 19 is_stmt 1             @ lvgl/src/lv_widgets/lv_linemeter.c:449:19
	ldrb.w	r3, [r9, #20]
.Ltmp231:
	.loc	10 445 16                       @ lvgl/src/lv_widgets/lv_linemeter.c:445:16
	add.w	r0, r6, r0, lsr #8
	.loc	10 445 14 is_stmt 0             @ lvgl/src/lv_widgets/lv_linemeter.c:445:14
	strh.w	r0, [sp, #132]
	.loc	10 443 16 is_stmt 1             @ lvgl/src/lv_widgets/lv_linemeter.c:443:16
	add.w	r2, r7, r2, lsr #8
.Ltmp232:
	.loc	10 449 19                       @ lvgl/src/lv_widgets/lv_linemeter.c:449:19
	ands	r0, r3, #1
.Ltmp233:
	.loc	10 443 14                       @ lvgl/src/lv_widgets/lv_linemeter.c:443:14
	strh.w	r2, [sp, #130]
	.loc	10 446 16                       @ lvgl/src/lv_widgets/lv_linemeter.c:446:16
	add.w	r1, r7, r1, lsr #8
	.loc	10 446 14 is_stmt 0             @ lvgl/src/lv_widgets/lv_linemeter.c:446:14
	strh.w	r1, [sp, #134]
.Ltmp234:
	.loc	10 449 28 is_stmt 1             @ lvgl/src/lv_widgets/lv_linemeter.c:449:28
	bne	.LBB15_12
.Ltmp235:
@ %bb.10:                               @   in Loop: Header=BB15_8 Depth=1
	@DEBUG_VALUE: y_in <- $r11
	@DEBUG_VALUE: cos_high <- [DW_OP_plus_uconst 76] [$sp+0]
	@DEBUG_VALUE: cos_low <- [DW_OP_plus_uconst 80] [$sp+0]
	@DEBUG_VALUE: sin_high <- [DW_OP_plus_uconst 84] [$sp+0]
	@DEBUG_VALUE: sin_low <- [DW_OP_plus_uconst 88] [$sp+0]
	@DEBUG_VALUE: angle_upscale <- [DW_OP_plus_uconst 92] [$sp+0]
	@DEBUG_VALUE: lv_linemeter_draw_scale:i <- [DW_OP_plus_uconst 112] [$sp+0]
	@DEBUG_VALUE: lv_linemeter_draw_scale:x_ofs <- [DW_OP_plus_uconst 48] [$sp+0]
	@DEBUG_VALUE: lv_linemeter_draw_scale:y_ofs <- [DW_OP_plus_uconst 52] [$sp+0]
	@DEBUG_VALUE: lv_linemeter_draw_scale:end_color <- [DW_OP_plus_uconst 40] [$sp+0]
	@DEBUG_VALUE: lv_linemeter_draw_scale:grad_color <- [DW_OP_plus_uconst 32] [$sp+0]
	@DEBUG_VALUE: lv_linemeter_draw_scale:main_color <- [DW_OP_plus_uconst 36] [$sp+0]
	@DEBUG_VALUE: lv_linemeter_draw_scale:level <- [DW_OP_plus_uconst 24, DW_OP_deref_size 4, DW_OP_LLVM_convert 32 7, DW_OP_LLVM_convert 16 7, DW_OP_stack_value] $sp
	@DEBUG_VALUE: lv_linemeter_draw_scale:angle_ofs <- [DW_OP_plus_uconst 72, DW_OP_deref_size 4, DW_OP_LLVM_convert 32 7, DW_OP_LLVM_convert 16 7, DW_OP_stack_value] $sp
	@DEBUG_VALUE: lv_linemeter_draw_scale:clip_area <- [DW_OP_plus_uconst 68] [$sp+0]
	.loc	10 0 28 is_stmt 0               @ lvgl/src/lv_widgets/lv_linemeter.c:0:28
	ldr	r1, [sp, #44]                   @ 4-byte Reload
	ldr	r2, [sp, #96]                   @ 4-byte Reload
	cmp	r1, r2
	mov.w	r1, #0
	it	le
	movle	r1, #1
	.loc	10 449 42                       @ lvgl/src/lv_widgets/lv_linemeter.c:449:42
	blt.w	.LBB15_5
.Ltmp236:
@ %bb.11:                               @   in Loop: Header=BB15_8 Depth=1
	@DEBUG_VALUE: y_in <- $r11
	@DEBUG_VALUE: cos_high <- [DW_OP_plus_uconst 76] [$sp+0]
	@DEBUG_VALUE: cos_low <- [DW_OP_plus_uconst 80] [$sp+0]
	@DEBUG_VALUE: sin_high <- [DW_OP_plus_uconst 84] [$sp+0]
	@DEBUG_VALUE: sin_low <- [DW_OP_plus_uconst 88] [$sp+0]
	@DEBUG_VALUE: angle_upscale <- [DW_OP_plus_uconst 92] [$sp+0]
	@DEBUG_VALUE: lv_linemeter_draw_scale:i <- [DW_OP_plus_uconst 112] [$sp+0]
	@DEBUG_VALUE: lv_linemeter_draw_scale:x_ofs <- [DW_OP_plus_uconst 48] [$sp+0]
	@DEBUG_VALUE: lv_linemeter_draw_scale:y_ofs <- [DW_OP_plus_uconst 52] [$sp+0]
	@DEBUG_VALUE: lv_linemeter_draw_scale:end_color <- [DW_OP_plus_uconst 40] [$sp+0]
	@DEBUG_VALUE: lv_linemeter_draw_scale:grad_color <- [DW_OP_plus_uconst 32] [$sp+0]
	@DEBUG_VALUE: lv_linemeter_draw_scale:main_color <- [DW_OP_plus_uconst 36] [$sp+0]
	@DEBUG_VALUE: lv_linemeter_draw_scale:level <- [DW_OP_plus_uconst 24, DW_OP_deref_size 4, DW_OP_LLVM_convert 32 7, DW_OP_LLVM_convert 16 7, DW_OP_stack_value] $sp
	@DEBUG_VALUE: lv_linemeter_draw_scale:angle_ofs <- [DW_OP_plus_uconst 72, DW_OP_deref_size 4, DW_OP_LLVM_convert 32 7, DW_OP_LLVM_convert 16 7, DW_OP_stack_value] $sp
	@DEBUG_VALUE: lv_linemeter_draw_scale:clip_area <- [DW_OP_plus_uconst 68] [$sp+0]
	.loc	10 0 42                         @ lvgl/src/lv_widgets/lv_linemeter.c:0:42
	eor	r0, r0, #1
	orrs	r0, r1
	bne	.LBB15_13
	b	.LBB15_5
.Ltmp237:
	.p2align	2
.LBB15_12:                              @   in Loop: Header=BB15_8 Depth=1
	@DEBUG_VALUE: y_in <- $r11
	@DEBUG_VALUE: cos_high <- [DW_OP_plus_uconst 76] [$sp+0]
	@DEBUG_VALUE: cos_low <- [DW_OP_plus_uconst 80] [$sp+0]
	@DEBUG_VALUE: sin_high <- [DW_OP_plus_uconst 84] [$sp+0]
	@DEBUG_VALUE: sin_low <- [DW_OP_plus_uconst 88] [$sp+0]
	@DEBUG_VALUE: angle_upscale <- [DW_OP_plus_uconst 92] [$sp+0]
	@DEBUG_VALUE: lv_linemeter_draw_scale:i <- [DW_OP_plus_uconst 112] [$sp+0]
	@DEBUG_VALUE: lv_linemeter_draw_scale:x_ofs <- [DW_OP_plus_uconst 48] [$sp+0]
	@DEBUG_VALUE: lv_linemeter_draw_scale:y_ofs <- [DW_OP_plus_uconst 52] [$sp+0]
	@DEBUG_VALUE: lv_linemeter_draw_scale:end_color <- [DW_OP_plus_uconst 40] [$sp+0]
	@DEBUG_VALUE: lv_linemeter_draw_scale:grad_color <- [DW_OP_plus_uconst 32] [$sp+0]
	@DEBUG_VALUE: lv_linemeter_draw_scale:main_color <- [DW_OP_plus_uconst 36] [$sp+0]
	@DEBUG_VALUE: lv_linemeter_draw_scale:level <- [DW_OP_plus_uconst 24, DW_OP_deref_size 4, DW_OP_LLVM_convert 32 7, DW_OP_LLVM_convert 16 7, DW_OP_stack_value] $sp
	@DEBUG_VALUE: lv_linemeter_draw_scale:angle_ofs <- [DW_OP_plus_uconst 72, DW_OP_deref_size 4, DW_OP_LLVM_convert 32 7, DW_OP_LLVM_convert 16 7, DW_OP_stack_value] $sp
	@DEBUG_VALUE: lv_linemeter_draw_scale:clip_area <- [DW_OP_plus_uconst 68] [$sp+0]
	.loc	10 449 12                       @ lvgl/src/lv_widgets/lv_linemeter.c:449:12
	ldr	r0, [sp, #44]                   @ 4-byte Reload
	ldr	r2, [sp, #96]                   @ 4-byte Reload
	cmp	r0, r2
	bgt.w	.LBB15_5
.Ltmp238:
.LBB15_13:                              @   in Loop: Header=BB15_8 Depth=1
	@DEBUG_VALUE: y_in <- $r11
	@DEBUG_VALUE: cos_high <- [DW_OP_plus_uconst 76] [$sp+0]
	@DEBUG_VALUE: cos_low <- [DW_OP_plus_uconst 80] [$sp+0]
	@DEBUG_VALUE: sin_high <- [DW_OP_plus_uconst 84] [$sp+0]
	@DEBUG_VALUE: sin_low <- [DW_OP_plus_uconst 88] [$sp+0]
	@DEBUG_VALUE: angle_upscale <- [DW_OP_plus_uconst 92] [$sp+0]
	@DEBUG_VALUE: lv_linemeter_draw_scale:i <- [DW_OP_plus_uconst 112] [$sp+0]
	@DEBUG_VALUE: lv_linemeter_draw_scale:x_ofs <- [DW_OP_plus_uconst 48] [$sp+0]
	@DEBUG_VALUE: lv_linemeter_draw_scale:y_ofs <- [DW_OP_plus_uconst 52] [$sp+0]
	@DEBUG_VALUE: lv_linemeter_draw_scale:end_color <- [DW_OP_plus_uconst 40] [$sp+0]
	@DEBUG_VALUE: lv_linemeter_draw_scale:grad_color <- [DW_OP_plus_uconst 32] [$sp+0]
	@DEBUG_VALUE: lv_linemeter_draw_scale:main_color <- [DW_OP_plus_uconst 36] [$sp+0]
	@DEBUG_VALUE: lv_linemeter_draw_scale:level <- [DW_OP_plus_uconst 24, DW_OP_deref_size 4, DW_OP_LLVM_convert 32 7, DW_OP_LLVM_convert 16 7, DW_OP_stack_value] $sp
	@DEBUG_VALUE: lv_linemeter_draw_scale:angle_ofs <- [DW_OP_plus_uconst 72, DW_OP_deref_size 4, DW_OP_LLVM_convert 32 7, DW_OP_LLVM_convert 16 7, DW_OP_stack_value] $sp
	@DEBUG_VALUE: lv_linemeter_draw_scale:clip_area <- [DW_OP_plus_uconst 68] [$sp+0]
	.loc	10 454 84 is_stmt 1             @ lvgl/src/lv_widgets/lv_linemeter.c:454:84
	ldrh.w	r0, [r9, #4]
	.loc	10 454 72 is_stmt 0             @ lvgl/src/lv_widgets/lv_linemeter.c:454:72
	rsb	r1, r2, r2, lsl #8
	.loc	10 454 77                       @ lvgl/src/lv_widgets/lv_linemeter.c:454:77
	udiv	r0, r1, r0
	.loc	10 454 30                       @ lvgl/src/lv_widgets/lv_linemeter.c:454:30
	uxtb	r2, r0
	ldrd	r0, r1, [sp, #32]               @ 8-byte Folded Reload
	bl	lv_color_mix
	str	r0, [sp, #136]
	b	.LBB15_6
.Ltmp239:
.LBB15_14:
	@DEBUG_VALUE: lv_linemeter_draw_scale:i <- $r0
	@DEBUG_VALUE: lv_linemeter_draw_scale:x_ofs <- [DW_OP_plus_uconst 48] [$sp+0]
	@DEBUG_VALUE: lv_linemeter_draw_scale:y_ofs <- [DW_OP_plus_uconst 52] [$sp+0]
	@DEBUG_VALUE: lv_linemeter_draw_scale:end_color <- [DW_OP_plus_uconst 40] [$sp+0]
	@DEBUG_VALUE: lv_linemeter_draw_scale:grad_color <- [DW_OP_plus_uconst 32] [$sp+0]
	@DEBUG_VALUE: lv_linemeter_draw_scale:main_color <- [DW_OP_plus_uconst 36] [$sp+0]
	@DEBUG_VALUE: lv_linemeter_draw_scale:level <- [DW_OP_plus_uconst 24, DW_OP_deref_size 4, DW_OP_LLVM_convert 32 7, DW_OP_LLVM_convert 16 7, DW_OP_stack_value] $sp
	@DEBUG_VALUE: lv_linemeter_draw_scale:angle_ofs <- [DW_OP_plus_uconst 72, DW_OP_deref_size 4, DW_OP_LLVM_convert 32 7, DW_OP_LLVM_convert 16 7, DW_OP_stack_value] $sp
	@DEBUG_VALUE: lv_linemeter_draw_scale:clip_area <- [DW_OP_plus_uconst 68] [$sp+0]
	.loc	10 0 30                         @ lvgl/src/lv_widgets/lv_linemeter.c:0:30
	ldrd	r6, r5, [sp, #16]               @ 8-byte Folded Reload
	b	.LBB15_16
.Ltmp240:
.LBB15_15:
	@DEBUG_VALUE: lv_linemeter_draw_scale:ext <- $r9
	@DEBUG_VALUE: lv_linemeter_draw_scale:r_in <- $r8
	@DEBUG_VALUE: lv_linemeter_draw_scale:lmeter <- $r6
	@DEBUG_VALUE: lv_linemeter_draw_scale:part <- $r5
	@DEBUG_VALUE: lv_linemeter_draw_scale:x_ofs <- [DW_OP_plus_uconst 48] [$sp+0]
	@DEBUG_VALUE: lv_linemeter_draw_scale:y_ofs <- [DW_OP_plus_uconst 52] [$sp+0]
	@DEBUG_VALUE: lv_linemeter_draw_scale:end_color <- [DW_OP_plus_uconst 40] [$sp+0]
	@DEBUG_VALUE: lv_linemeter_draw_scale:grad_color <- [DW_OP_plus_uconst 32] [$sp+0]
	@DEBUG_VALUE: lv_linemeter_draw_scale:main_color <- [DW_OP_plus_uconst 36] [$sp+0]
	@DEBUG_VALUE: lv_linemeter_draw_scale:level <- [DW_OP_plus_uconst 24, DW_OP_deref_size 4, DW_OP_LLVM_convert 32 7, DW_OP_LLVM_convert 16 7, DW_OP_stack_value] $sp
	@DEBUG_VALUE: lv_linemeter_draw_scale:angle_ofs <- [DW_OP_plus_uconst 72, DW_OP_deref_size 4, DW_OP_LLVM_convert 32 7, DW_OP_LLVM_convert 16 7, DW_OP_stack_value] $sp
	@DEBUG_VALUE: lv_linemeter_draw_scale:clip_area <- [DW_OP_plus_uconst 68] [$sp+0]
	@DEBUG_VALUE: lv_linemeter_draw_scale:i <- 0
	ldr	r4, [sp, #72]                   @ 4-byte Reload
.Ltmp241:
.LBB15_16:
	@DEBUG_VALUE: lv_linemeter_draw_scale:x_ofs <- [DW_OP_plus_uconst 48] [$sp+0]
	@DEBUG_VALUE: lv_linemeter_draw_scale:y_ofs <- [DW_OP_plus_uconst 52] [$sp+0]
	@DEBUG_VALUE: lv_linemeter_draw_scale:end_color <- [DW_OP_plus_uconst 40] [$sp+0]
	@DEBUG_VALUE: lv_linemeter_draw_scale:grad_color <- [DW_OP_plus_uconst 32] [$sp+0]
	@DEBUG_VALUE: lv_linemeter_draw_scale:main_color <- [DW_OP_plus_uconst 36] [$sp+0]
	@DEBUG_VALUE: lv_linemeter_draw_scale:level <- [DW_OP_plus_uconst 24, DW_OP_deref_size 4, DW_OP_LLVM_convert 32 7, DW_OP_LLVM_convert 16 7, DW_OP_stack_value] $sp
	@DEBUG_VALUE: lv_linemeter_draw_scale:angle_ofs <- [DW_OP_plus_uconst 72, DW_OP_deref_size 4, DW_OP_LLVM_convert 32 7, DW_OP_LLVM_convert 16 7, DW_OP_stack_value] $sp
	@DEBUG_VALUE: lv_linemeter_draw_scale:clip_area <- [DW_OP_plus_uconst 68] [$sp+0]
	ldr	r0, [sp, #24]                   @ 4-byte Reload
.Ltmp242:
	@DEBUG_VALUE: lv_linemeter_draw_scale:r_out <- undef
	@DEBUG_VALUE: lv_linemeter_draw_scale:r_out_extra <- [DW_OP_LLVM_convert 32 7, DW_OP_LLVM_convert 16 7, DW_OP_stack_value] undef
	.loc	10 468 39 is_stmt 1             @ lvgl/src/lv_widgets/lv_linemeter.c:468:39
	cbz	r5, .LBB15_18
.Ltmp243:
.LBB15_17:
	@DEBUG_VALUE: lv_linemeter_draw_scale:x_ofs <- [DW_OP_plus_uconst 48] [$sp+0]
	@DEBUG_VALUE: lv_linemeter_draw_scale:y_ofs <- [DW_OP_plus_uconst 52] [$sp+0]
	@DEBUG_VALUE: lv_linemeter_draw_scale:end_color <- [DW_OP_plus_uconst 40] [$sp+0]
	@DEBUG_VALUE: lv_linemeter_draw_scale:grad_color <- [DW_OP_plus_uconst 32] [$sp+0]
	@DEBUG_VALUE: lv_linemeter_draw_scale:main_color <- [DW_OP_plus_uconst 36] [$sp+0]
	@DEBUG_VALUE: lv_linemeter_draw_scale:level <- [DW_OP_plus_uconst 24, DW_OP_deref_size 4, DW_OP_LLVM_convert 32 7, DW_OP_LLVM_convert 16 7, DW_OP_stack_value] $sp
	@DEBUG_VALUE: lv_linemeter_draw_scale:angle_ofs <- [DW_OP_plus_uconst 72, DW_OP_deref_size 4, DW_OP_LLVM_convert 32 7, DW_OP_LLVM_convert 16 7, DW_OP_stack_value] $sp
	@DEBUG_VALUE: lv_linemeter_draw_scale:clip_area <- [DW_OP_plus_uconst 68] [$sp+0]
	.loc	10 492 1                        @ lvgl/src/lv_widgets/lv_linemeter.c:492:1
	add	sp, #148
	pop.w	{r4, r5, r6, r7, r8, r9, r10, r11, pc}
.Ltmp244:
.LBB15_18:
	@DEBUG_VALUE: lv_linemeter_draw_scale:x_ofs <- [DW_OP_plus_uconst 48] [$sp+0]
	@DEBUG_VALUE: lv_linemeter_draw_scale:y_ofs <- [DW_OP_plus_uconst 52] [$sp+0]
	@DEBUG_VALUE: lv_linemeter_draw_scale:end_color <- [DW_OP_plus_uconst 40] [$sp+0]
	@DEBUG_VALUE: lv_linemeter_draw_scale:grad_color <- [DW_OP_plus_uconst 32] [$sp+0]
	@DEBUG_VALUE: lv_linemeter_draw_scale:main_color <- [DW_OP_plus_uconst 36] [$sp+0]
	@DEBUG_VALUE: lv_linemeter_draw_scale:level <- [DW_OP_plus_uconst 24, DW_OP_deref_size 4, DW_OP_LLVM_convert 32 7, DW_OP_LLVM_convert 16 7, DW_OP_stack_value] $sp
	@DEBUG_VALUE: lv_linemeter_draw_scale:angle_ofs <- [DW_OP_plus_uconst 72, DW_OP_deref_size 4, DW_OP_LLVM_convert 32 7, DW_OP_LLVM_convert 16 7, DW_OP_stack_value] $sp
	@DEBUG_VALUE: lv_linemeter_draw_scale:clip_area <- [DW_OP_plus_uconst 68] [$sp+0]
	@DEBUG_VALUE: lv_linemeter_draw_scale:r_out <- undef
	@DEBUG_VALUE: lv_linemeter_draw_scale:r_out_extra <- [DW_OP_LLVM_convert 32 7, DW_OP_LLVM_convert 16 7, DW_OP_stack_value] undef
	.loc	10 468 42                       @ lvgl/src/lv_widgets/lv_linemeter.c:468:42
	sxth	r0, r0
	.loc	10 468 48 is_stmt 0             @ lvgl/src/lv_widgets/lv_linemeter.c:468:48
	adds	r7, r0, #1
	.loc	10 468 68                       @ lvgl/src/lv_widgets/lv_linemeter.c:468:68
	subs	r0, r1, #1
.Ltmp245:
	.loc	10 468 8                        @ lvgl/src/lv_widgets/lv_linemeter.c:468:8
	cmp	r7, r0
	bge	.LBB15_17
.Ltmp246:
@ %bb.19:
	@DEBUG_VALUE: lv_linemeter_draw_scale:x_ofs <- [DW_OP_plus_uconst 48] [$sp+0]
	@DEBUG_VALUE: lv_linemeter_draw_scale:y_ofs <- [DW_OP_plus_uconst 52] [$sp+0]
	@DEBUG_VALUE: lv_linemeter_draw_scale:end_color <- [DW_OP_plus_uconst 40] [$sp+0]
	@DEBUG_VALUE: lv_linemeter_draw_scale:grad_color <- [DW_OP_plus_uconst 32] [$sp+0]
	@DEBUG_VALUE: lv_linemeter_draw_scale:main_color <- [DW_OP_plus_uconst 36] [$sp+0]
	@DEBUG_VALUE: lv_linemeter_draw_scale:level <- [DW_OP_plus_uconst 24, DW_OP_deref_size 4, DW_OP_LLVM_convert 32 7, DW_OP_LLVM_convert 16 7, DW_OP_stack_value] $sp
	@DEBUG_VALUE: lv_linemeter_draw_scale:angle_ofs <- [DW_OP_plus_uconst 72, DW_OP_deref_size 4, DW_OP_LLVM_convert 32 7, DW_OP_LLVM_convert 16 7, DW_OP_stack_value] $sp
	@DEBUG_VALUE: lv_linemeter_draw_scale:clip_area <- [DW_OP_plus_uconst 68] [$sp+0]
	@DEBUG_VALUE: lv_linemeter_draw_scale:r_out <- undef
	@DEBUG_VALUE: lv_linemeter_draw_scale:r_out_extra <- [DW_OP_LLVM_convert 32 7, DW_OP_LLVM_convert 16 7, DW_OP_stack_value] undef
	.loc	10 469 39 is_stmt 1             @ lvgl/src/lv_widgets/lv_linemeter.c:469:39
	mov	r0, r6
	mov	r1, r5
	bl	lv_obj_get_style_scale_border_width
	mov	r8, r0
.Ltmp247:
	@DEBUG_VALUE: border_width <- undef
	.loc	10 470 43                       @ lvgl/src/lv_widgets/lv_linemeter.c:470:43
	mov	r0, r6
	mov	r1, r5
	bl	lv_obj_get_style_scale_end_border_width
	mov	r11, r0
.Ltmp248:
	@DEBUG_VALUE: end_border_width <- undef
	.loc	10 472 25                       @ lvgl/src/lv_widgets/lv_linemeter.c:472:25
	orrs.w	r0, r0, r8
	beq	.LBB15_17
.Ltmp249:
@ %bb.20:
	@DEBUG_VALUE: lv_linemeter_draw_scale:x_ofs <- [DW_OP_plus_uconst 48] [$sp+0]
	@DEBUG_VALUE: lv_linemeter_draw_scale:y_ofs <- [DW_OP_plus_uconst 52] [$sp+0]
	@DEBUG_VALUE: lv_linemeter_draw_scale:end_color <- [DW_OP_plus_uconst 40] [$sp+0]
	@DEBUG_VALUE: lv_linemeter_draw_scale:grad_color <- [DW_OP_plus_uconst 32] [$sp+0]
	@DEBUG_VALUE: lv_linemeter_draw_scale:main_color <- [DW_OP_plus_uconst 36] [$sp+0]
	@DEBUG_VALUE: lv_linemeter_draw_scale:level <- [DW_OP_plus_uconst 24, DW_OP_deref_size 4, DW_OP_LLVM_convert 32 7, DW_OP_LLVM_convert 16 7, DW_OP_stack_value] $sp
	@DEBUG_VALUE: lv_linemeter_draw_scale:angle_ofs <- [DW_OP_plus_uconst 72, DW_OP_deref_size 4, DW_OP_LLVM_convert 32 7, DW_OP_LLVM_convert 16 7, DW_OP_stack_value] $sp
	@DEBUG_VALUE: lv_linemeter_draw_scale:clip_area <- [DW_OP_plus_uconst 68] [$sp+0]
	.loc	10 473 53                       @ lvgl/src/lv_widgets/lv_linemeter.c:473:53
	ldrh.w	r0, [r9]
	.loc	10 473 74 is_stmt 0             @ lvgl/src/lv_widgets/lv_linemeter.c:473:74
	ldrh.w	r1, [r9, #4]
	.loc	10 473 46                       @ lvgl/src/lv_widgets/lv_linemeter.c:473:46
	muls	r0, r7, r0
	.loc	10 473 83                       @ lvgl/src/lv_widgets/lv_linemeter.c:473:83
	subs	r1, #1
	.loc	10 473 66                       @ lvgl/src/lv_widgets/lv_linemeter.c:473:66
	sdiv	r0, r0, r1
	.loc	10 473 88                       @ lvgl/src/lv_widgets/lv_linemeter.c:473:88
	adds	r7, r0, r4
.Ltmp250:
	@DEBUG_VALUE: end_angle <- [DW_OP_LLVM_convert 32 7, DW_OP_LLVM_convert 16 7, DW_OP_stack_value] $r7
	.loc	10 0 88                         @ lvgl/src/lv_widgets/lv_linemeter.c:0:88
	add	r4, sp, #116
.Ltmp251:
	ldr	r1, [sp, #12]                   @ 4-byte Reload
.Ltmp252:
	.loc	10 475 13 is_stmt 1             @ lvgl/src/lv_widgets/lv_linemeter.c:475:13
	mov	r0, r4
.Ltmp253:
	.loc	10 0 0 is_stmt 0                @ lvgl/src/lv_widgets/lv_linemeter.c:0:0
	asr.w	r10, r1, #1
.Ltmp254:
	@DEBUG_VALUE: lv_linemeter_draw_scale:r_out_extra <- [DW_OP_LLVM_convert 32 7, DW_OP_LLVM_convert 16 7, DW_OP_stack_value] $r10
	@DEBUG_VALUE: lv_linemeter_draw_scale:r_out <- $r10
	.loc	10 475 13                       @ lvgl/src/lv_widgets/lv_linemeter.c:475:13
	bl	lv_draw_line_dsc_init
	.loc	10 476 13 is_stmt 1             @ lvgl/src/lv_widgets/lv_linemeter.c:476:13
	mov	r0, r6
	mov	r2, r4
	mov	r1, r5
	mov	r6, r7
.Ltmp255:
	@DEBUG_VALUE: end_angle <- [DW_OP_LLVM_convert 32 7, DW_OP_LLVM_convert 16 7, DW_OP_stack_value] $r6
	@DEBUG_VALUE: end_angle <- [DW_OP_LLVM_convert 32 7, DW_OP_LLVM_convert 16 7, DW_OP_stack_value] $r6
	@DEBUG_VALUE: lv_linemeter_draw_scale:r_out_extra <- [DW_OP_LLVM_convert 32 7, DW_OP_LLVM_convert 16 7, DW_OP_stack_value] $r10
	@DEBUG_VALUE: lv_linemeter_draw_scale:r_out <- $r10
	bl	lv_obj_init_draw_line_dsc
	.loc	10 478 16                       @ lvgl/src/lv_widgets/lv_linemeter.c:478:16
	cmp.w	r8, #0
	ldr	r5, [sp, #48]                   @ 4-byte Reload
	beq	.LBB15_22
.Ltmp256:
@ %bb.21:
	@DEBUG_VALUE: lv_linemeter_draw_scale:r_out <- $r10
	@DEBUG_VALUE: lv_linemeter_draw_scale:r_out_extra <- [DW_OP_LLVM_convert 32 7, DW_OP_LLVM_convert 16 7, DW_OP_stack_value] $r10
	@DEBUG_VALUE: end_angle <- [DW_OP_LLVM_convert 32 7, DW_OP_LLVM_convert 16 7, DW_OP_stack_value] $r6
	@DEBUG_VALUE: lv_linemeter_draw_scale:x_ofs <- [DW_OP_plus_uconst 48] [$sp+0]
	@DEBUG_VALUE: lv_linemeter_draw_scale:y_ofs <- [DW_OP_plus_uconst 52] [$sp+0]
	@DEBUG_VALUE: lv_linemeter_draw_scale:end_color <- [DW_OP_plus_uconst 40] [$sp+0]
	@DEBUG_VALUE: lv_linemeter_draw_scale:grad_color <- [DW_OP_plus_uconst 32] [$sp+0]
	@DEBUG_VALUE: lv_linemeter_draw_scale:main_color <- [DW_OP_plus_uconst 36] [$sp+0]
	@DEBUG_VALUE: lv_linemeter_draw_scale:level <- [DW_OP_plus_uconst 24, DW_OP_deref_size 4, DW_OP_LLVM_convert 32 7, DW_OP_LLVM_convert 16 7, DW_OP_stack_value] $sp
	@DEBUG_VALUE: lv_linemeter_draw_scale:angle_ofs <- [DW_OP_plus_uconst 72, DW_OP_deref_size 4, DW_OP_LLVM_convert 32 7, DW_OP_LLVM_convert 16 7, DW_OP_stack_value] $sp
	@DEBUG_VALUE: lv_linemeter_draw_scale:clip_area <- [DW_OP_plus_uconst 68] [$sp+0]
	.loc	10 481 17                       @ lvgl/src/lv_widgets/lv_linemeter.c:481:17
	ldr	r1, [sp, #52]                   @ 4-byte Reload
	ldr	r3, [sp, #72]                   @ 4-byte Reload
	sxth	r1, r1
	.loc	10 480 33                       @ lvgl/src/lv_widgets/lv_linemeter.c:480:33
	ldr	r0, [sp, #36]                   @ 4-byte Reload
	.loc	10 481 17                       @ lvgl/src/lv_widgets/lv_linemeter.c:481:17
	uxth.w	r2, r10
	.loc	10 480 33                       @ lvgl/src/lv_widgets/lv_linemeter.c:480:33
	str	r0, [sp, #116]
	.loc	10 481 17                       @ lvgl/src/lv_widgets/lv_linemeter.c:481:17
	uxth	r0, r6
	str	r0, [sp]
	uxth	r3, r3
	ldr	r0, [sp, #68]                   @ 4-byte Reload
	str	r0, [sp, #4]
	sxth	r0, r5
	.loc	10 479 31                       @ lvgl/src/lv_widgets/lv_linemeter.c:479:31
	strh.w	r8, [sp, #120]
	.loc	10 481 17                       @ lvgl/src/lv_widgets/lv_linemeter.c:481:17
	str	r4, [sp, #8]
	bl	lv_draw_arc
.Ltmp257:
.LBB15_22:
	@DEBUG_VALUE: lv_linemeter_draw_scale:r_out <- $r10
	@DEBUG_VALUE: lv_linemeter_draw_scale:r_out_extra <- [DW_OP_LLVM_convert 32 7, DW_OP_LLVM_convert 16 7, DW_OP_stack_value] $r10
	@DEBUG_VALUE: end_angle <- [DW_OP_LLVM_convert 32 7, DW_OP_LLVM_convert 16 7, DW_OP_stack_value] $r6
	@DEBUG_VALUE: lv_linemeter_draw_scale:x_ofs <- [DW_OP_plus_uconst 48] [$sp+0]
	@DEBUG_VALUE: lv_linemeter_draw_scale:y_ofs <- [DW_OP_plus_uconst 52] [$sp+0]
	@DEBUG_VALUE: lv_linemeter_draw_scale:end_color <- [DW_OP_plus_uconst 40] [$sp+0]
	@DEBUG_VALUE: lv_linemeter_draw_scale:grad_color <- [DW_OP_plus_uconst 32] [$sp+0]
	@DEBUG_VALUE: lv_linemeter_draw_scale:main_color <- [DW_OP_plus_uconst 36] [$sp+0]
	@DEBUG_VALUE: lv_linemeter_draw_scale:level <- [DW_OP_plus_uconst 24, DW_OP_deref_size 4, DW_OP_LLVM_convert 32 7, DW_OP_LLVM_convert 16 7, DW_OP_stack_value] $sp
	@DEBUG_VALUE: lv_linemeter_draw_scale:angle_ofs <- [DW_OP_plus_uconst 72, DW_OP_deref_size 4, DW_OP_LLVM_convert 32 7, DW_OP_LLVM_convert 16 7, DW_OP_stack_value] $sp
	@DEBUG_VALUE: lv_linemeter_draw_scale:clip_area <- [DW_OP_plus_uconst 68] [$sp+0]
	.loc	10 484 16                       @ lvgl/src/lv_widgets/lv_linemeter.c:484:16
	cmp.w	r11, #0
	beq	.LBB15_17
.Ltmp258:
@ %bb.23:
	@DEBUG_VALUE: lv_linemeter_draw_scale:r_out <- $r10
	@DEBUG_VALUE: lv_linemeter_draw_scale:r_out_extra <- [DW_OP_LLVM_convert 32 7, DW_OP_LLVM_convert 16 7, DW_OP_stack_value] $r10
	@DEBUG_VALUE: end_angle <- [DW_OP_LLVM_convert 32 7, DW_OP_LLVM_convert 16 7, DW_OP_stack_value] $r6
	@DEBUG_VALUE: lv_linemeter_draw_scale:x_ofs <- [DW_OP_plus_uconst 48] [$sp+0]
	@DEBUG_VALUE: lv_linemeter_draw_scale:y_ofs <- [DW_OP_plus_uconst 52] [$sp+0]
	@DEBUG_VALUE: lv_linemeter_draw_scale:end_color <- [DW_OP_plus_uconst 40] [$sp+0]
	@DEBUG_VALUE: lv_linemeter_draw_scale:grad_color <- [DW_OP_plus_uconst 32] [$sp+0]
	@DEBUG_VALUE: lv_linemeter_draw_scale:main_color <- [DW_OP_plus_uconst 36] [$sp+0]
	@DEBUG_VALUE: lv_linemeter_draw_scale:level <- [DW_OP_plus_uconst 24, DW_OP_deref_size 4, DW_OP_LLVM_convert 32 7, DW_OP_LLVM_convert 16 7, DW_OP_stack_value] $sp
	@DEBUG_VALUE: lv_linemeter_draw_scale:angle_ofs <- [DW_OP_plus_uconst 72, DW_OP_deref_size 4, DW_OP_LLVM_convert 32 7, DW_OP_LLVM_convert 16 7, DW_OP_stack_value] $sp
	@DEBUG_VALUE: lv_linemeter_draw_scale:clip_area <- [DW_OP_plus_uconst 68] [$sp+0]
	.loc	10 485 31                       @ lvgl/src/lv_widgets/lv_linemeter.c:485:31
	strh.w	r11, [sp, #120]
	.loc	10 486 33                       @ lvgl/src/lv_widgets/lv_linemeter.c:486:33
	ldr	r0, [sp, #40]                   @ 4-byte Reload
	str	r0, [sp, #116]
.Ltmp259:
	.loc	10 0 0 is_stmt 0                @ lvgl/src/lv_widgets/lv_linemeter.c:0:0
	ldr	r1, [sp, #72]                   @ 4-byte Reload
	sxth	r1, r1
.Ltmp260:
	.loc	10 487 79 is_stmt 1             @ lvgl/src/lv_widgets/lv_linemeter.c:487:79
	ldrh.w	r0, [r9]
	.loc	10 487 17 is_stmt 0             @ lvgl/src/lv_widgets/lv_linemeter.c:487:17
	uxth	r3, r6
	str	r4, [sp, #8]
	.loc	10 487 72                       @ lvgl/src/lv_widgets/lv_linemeter.c:487:72
	add	r0, r1
	movw	r1, #24759
	movt	r1, #46603
	.loc	10 487 92                       @ lvgl/src/lv_widgets/lv_linemeter.c:487:92
	smmla	r1, r1, r0, r0
	lsrs	r2, r1, #8
	add.w	r1, r2, r1, lsr #31
	mov.w	r2, #360
	mls	r0, r1, r2, r0
	.loc	10 487 17                       @ lvgl/src/lv_widgets/lv_linemeter.c:487:17
	ldr	r1, [sp, #52]                   @ 4-byte Reload
	sxth	r1, r1
	uxth	r0, r0
	str	r0, [sp]
	uxth.w	r2, r10
	ldr	r0, [sp, #68]                   @ 4-byte Reload
	str	r0, [sp, #4]
	sxth	r0, r5
	bl	lv_draw_arc
.Ltmp261:
	.loc	10 492 1 is_stmt 1              @ lvgl/src/lv_widgets/lv_linemeter.c:492:1
	add	sp, #148
	pop.w	{r4, r5, r6, r7, r8, r9, r10, r11, pc}
.Ltmp262:
.Lfunc_end15:
	.size	lv_linemeter_draw_scale, .Lfunc_end15-lv_linemeter_draw_scale
	.cfi_endproc
	.cantunwind
	.fnend
                                        @ -- End function
	.section	.text.lv_obj_get_style_pad_left,"ax",%progbits
	.p2align	3                               @ -- Begin function lv_obj_get_style_pad_left
	.type	lv_obj_get_style_pad_left,%function
	.code	16                              @ @lv_obj_get_style_pad_left
	.thumb_func
lv_obj_get_style_pad_left:
.Lfunc_begin16:
	.file	13 "E:\\Smart-access-control\\Hardware\\CODE" "lvgl/src/lv_widgets/../lv_core/lv_obj_style_dec.h"
	.loc	13 102 0                        @ lvgl/src/lv_widgets/../lv_core/lv_obj_style_dec.h:102:0
	.fnstart
	.cfi_startproc
@ %bb.0:
	@DEBUG_VALUE: lv_obj_get_style_pad_left:obj <- $r0
	@DEBUG_VALUE: lv_obj_get_style_pad_left:obj <- $r0
	@DEBUG_VALUE: lv_obj_get_style_pad_left:part <- 0
	.save	{r7, lr}
	push	{r7, lr}
	.cfi_def_cfa_offset 8
	.cfi_offset lr, -4
	.cfi_offset r7, -8
.Ltmp263:
	.loc	13 102 1 prologue_end           @ lvgl/src/lv_widgets/../lv_core/lv_obj_style_dec.h:102:1
	movs	r1, #0
	movs	r2, #18
	@DEBUG_VALUE: lv_obj_get_style_pad_left:obj <- $r0
	bl	_lv_obj_get_style_int
.Ltmp264:
	@DEBUG_VALUE: lv_obj_get_style_pad_left:obj <- [DW_OP_LLVM_entry_value 1] $r0
	pop	{r7, pc}
.Ltmp265:
.Lfunc_end16:
	.size	lv_obj_get_style_pad_left, .Lfunc_end16-lv_obj_get_style_pad_left
	.cfi_endproc
	.cantunwind
	.fnend
                                        @ -- End function
	.section	.text.lv_obj_get_style_pad_right,"ax",%progbits
	.p2align	3                               @ -- Begin function lv_obj_get_style_pad_right
	.type	lv_obj_get_style_pad_right,%function
	.code	16                              @ @lv_obj_get_style_pad_right
	.thumb_func
lv_obj_get_style_pad_right:
.Lfunc_begin17:
	.loc	13 103 0                        @ lvgl/src/lv_widgets/../lv_core/lv_obj_style_dec.h:103:0
	.fnstart
	.cfi_startproc
@ %bb.0:
	@DEBUG_VALUE: lv_obj_get_style_pad_right:obj <- $r0
	@DEBUG_VALUE: lv_obj_get_style_pad_right:obj <- $r0
	@DEBUG_VALUE: lv_obj_get_style_pad_right:part <- 0
	.save	{r7, lr}
	push	{r7, lr}
	.cfi_def_cfa_offset 8
	.cfi_offset lr, -4
	.cfi_offset r7, -8
.Ltmp266:
	.loc	13 103 1 prologue_end           @ lvgl/src/lv_widgets/../lv_core/lv_obj_style_dec.h:103:1
	movs	r1, #0
	movs	r2, #19
	@DEBUG_VALUE: lv_obj_get_style_pad_right:obj <- $r0
	bl	_lv_obj_get_style_int
.Ltmp267:
	@DEBUG_VALUE: lv_obj_get_style_pad_right:obj <- [DW_OP_LLVM_entry_value 1] $r0
	pop	{r7, pc}
.Ltmp268:
.Lfunc_end17:
	.size	lv_obj_get_style_pad_right, .Lfunc_end17-lv_obj_get_style_pad_right
	.cfi_endproc
	.cantunwind
	.fnend
                                        @ -- End function
	.section	.text.lv_obj_get_style_pad_top,"ax",%progbits
	.p2align	3                               @ -- Begin function lv_obj_get_style_pad_top
	.type	lv_obj_get_style_pad_top,%function
	.code	16                              @ @lv_obj_get_style_pad_top
	.thumb_func
lv_obj_get_style_pad_top:
.Lfunc_begin18:
	.loc	13 100 0                        @ lvgl/src/lv_widgets/../lv_core/lv_obj_style_dec.h:100:0
	.fnstart
	.cfi_startproc
@ %bb.0:
	@DEBUG_VALUE: lv_obj_get_style_pad_top:obj <- $r0
	@DEBUG_VALUE: lv_obj_get_style_pad_top:obj <- $r0
	@DEBUG_VALUE: lv_obj_get_style_pad_top:part <- 0
	.save	{r7, lr}
	push	{r7, lr}
	.cfi_def_cfa_offset 8
	.cfi_offset lr, -4
	.cfi_offset r7, -8
.Ltmp269:
	.loc	13 100 1 prologue_end           @ lvgl/src/lv_widgets/../lv_core/lv_obj_style_dec.h:100:1
	movs	r1, #0
	movs	r2, #16
	@DEBUG_VALUE: lv_obj_get_style_pad_top:obj <- $r0
	bl	_lv_obj_get_style_int
.Ltmp270:
	@DEBUG_VALUE: lv_obj_get_style_pad_top:obj <- [DW_OP_LLVM_entry_value 1] $r0
	pop	{r7, pc}
.Ltmp271:
.Lfunc_end18:
	.size	lv_obj_get_style_pad_top, .Lfunc_end18-lv_obj_get_style_pad_top
	.cfi_endproc
	.cantunwind
	.fnend
                                        @ -- End function
	.section	.text.lv_obj_get_style_scale_width,"ax",%progbits
	.p2align	3                               @ -- Begin function lv_obj_get_style_scale_width
	.type	lv_obj_get_style_scale_width,%function
	.code	16                              @ @lv_obj_get_style_scale_width
	.thumb_func
lv_obj_get_style_scale_width:
.Lfunc_begin19:
	.loc	13 184 0                        @ lvgl/src/lv_widgets/../lv_core/lv_obj_style_dec.h:184:0
	.fnstart
	.cfi_startproc
@ %bb.0:
	@DEBUG_VALUE: lv_obj_get_style_scale_width:obj <- $r0
	@DEBUG_VALUE: lv_obj_get_style_scale_width:obj <- $r0
	@DEBUG_VALUE: lv_obj_get_style_scale_width:part <- $r1
	@DEBUG_VALUE: lv_obj_get_style_scale_width:part <- $r1
	.save	{r7, lr}
	push	{r7, lr}
	.cfi_def_cfa_offset 8
	.cfi_offset lr, -4
	.cfi_offset r7, -8
.Ltmp272:
	.loc	13 184 1 prologue_end           @ lvgl/src/lv_widgets/../lv_core/lv_obj_style_dec.h:184:1
	movs	r2, #192
	@DEBUG_VALUE: lv_obj_get_style_scale_width:part <- $r1
	@DEBUG_VALUE: lv_obj_get_style_scale_width:obj <- $r0
	bl	_lv_obj_get_style_int
.Ltmp273:
	@DEBUG_VALUE: lv_obj_get_style_scale_width:part <- [DW_OP_LLVM_entry_value 1] $r1
	@DEBUG_VALUE: lv_obj_get_style_scale_width:obj <- [DW_OP_LLVM_entry_value 1] $r0
	pop	{r7, pc}
.Ltmp274:
.Lfunc_end19:
	.size	lv_obj_get_style_scale_width, .Lfunc_end19-lv_obj_get_style_scale_width
	.cfi_endproc
	.cantunwind
	.fnend
                                        @ -- End function
	.section	.text.lv_obj_get_style_line_color,"ax",%progbits
	.p2align	3                               @ -- Begin function lv_obj_get_style_line_color
	.type	lv_obj_get_style_line_color,%function
	.code	16                              @ @lv_obj_get_style_line_color
	.thumb_func
lv_obj_get_style_line_color:
.Lfunc_begin20:
	.loc	13 164 0                        @ lvgl/src/lv_widgets/../lv_core/lv_obj_style_dec.h:164:0
	.fnstart
	.cfi_startproc
@ %bb.0:
	@DEBUG_VALUE: lv_obj_get_style_line_color:obj <- $r0
	@DEBUG_VALUE: lv_obj_get_style_line_color:obj <- $r0
	@DEBUG_VALUE: lv_obj_get_style_line_color:part <- $r1
	@DEBUG_VALUE: lv_obj_get_style_line_color:part <- $r1
	.save	{r7, lr}
	push	{r7, lr}
	.cfi_def_cfa_offset 8
	.cfi_offset lr, -4
	.cfi_offset r7, -8
.Ltmp275:
	.loc	13 164 1 prologue_end           @ lvgl/src/lv_widgets/../lv_core/lv_obj_style_dec.h:164:1
	movs	r2, #153
	@DEBUG_VALUE: lv_obj_get_style_line_color:part <- $r1
	@DEBUG_VALUE: lv_obj_get_style_line_color:obj <- $r0
	bl	_lv_obj_get_style_color
.Ltmp276:
	@DEBUG_VALUE: lv_obj_get_style_line_color:part <- [DW_OP_LLVM_entry_value 1] $r1
	@DEBUG_VALUE: lv_obj_get_style_line_color:obj <- [DW_OP_LLVM_entry_value 1] $r0
	pop	{r7, pc}
.Ltmp277:
.Lfunc_end20:
	.size	lv_obj_get_style_line_color, .Lfunc_end20-lv_obj_get_style_line_color
	.cfi_endproc
	.cantunwind
	.fnend
                                        @ -- End function
	.section	.text.lv_obj_get_style_scale_grad_color,"ax",%progbits
	.p2align	3                               @ -- Begin function lv_obj_get_style_scale_grad_color
	.type	lv_obj_get_style_scale_grad_color,%function
	.code	16                              @ @lv_obj_get_style_scale_grad_color
	.thumb_func
lv_obj_get_style_scale_grad_color:
.Lfunc_begin21:
	.loc	13 188 0                        @ lvgl/src/lv_widgets/../lv_core/lv_obj_style_dec.h:188:0
	.fnstart
	.cfi_startproc
@ %bb.0:
	@DEBUG_VALUE: lv_obj_get_style_scale_grad_color:obj <- $r0
	@DEBUG_VALUE: lv_obj_get_style_scale_grad_color:obj <- $r0
	@DEBUG_VALUE: lv_obj_get_style_scale_grad_color:part <- $r1
	@DEBUG_VALUE: lv_obj_get_style_scale_grad_color:part <- $r1
	.save	{r7, lr}
	push	{r7, lr}
	.cfi_def_cfa_offset 8
	.cfi_offset lr, -4
	.cfi_offset r7, -8
.Ltmp278:
	.loc	13 188 1 prologue_end           @ lvgl/src/lv_widgets/../lv_core/lv_obj_style_dec.h:188:1
	movs	r2, #201
	@DEBUG_VALUE: lv_obj_get_style_scale_grad_color:part <- $r1
	@DEBUG_VALUE: lv_obj_get_style_scale_grad_color:obj <- $r0
	bl	_lv_obj_get_style_color
.Ltmp279:
	@DEBUG_VALUE: lv_obj_get_style_scale_grad_color:part <- [DW_OP_LLVM_entry_value 1] $r1
	@DEBUG_VALUE: lv_obj_get_style_scale_grad_color:obj <- [DW_OP_LLVM_entry_value 1] $r0
	pop	{r7, pc}
.Ltmp280:
.Lfunc_end21:
	.size	lv_obj_get_style_scale_grad_color, .Lfunc_end21-lv_obj_get_style_scale_grad_color
	.cfi_endproc
	.cantunwind
	.fnend
                                        @ -- End function
	.section	.text.lv_obj_get_style_scale_end_color,"ax",%progbits
	.p2align	3                               @ -- Begin function lv_obj_get_style_scale_end_color
	.type	lv_obj_get_style_scale_end_color,%function
	.code	16                              @ @lv_obj_get_style_scale_end_color
	.thumb_func
lv_obj_get_style_scale_end_color:
.Lfunc_begin22:
	.loc	13 189 0                        @ lvgl/src/lv_widgets/../lv_core/lv_obj_style_dec.h:189:0
	.fnstart
	.cfi_startproc
@ %bb.0:
	@DEBUG_VALUE: lv_obj_get_style_scale_end_color:obj <- $r0
	@DEBUG_VALUE: lv_obj_get_style_scale_end_color:obj <- $r0
	@DEBUG_VALUE: lv_obj_get_style_scale_end_color:part <- $r1
	@DEBUG_VALUE: lv_obj_get_style_scale_end_color:part <- $r1
	.save	{r7, lr}
	push	{r7, lr}
	.cfi_def_cfa_offset 8
	.cfi_offset lr, -4
	.cfi_offset r7, -8
.Ltmp281:
	.loc	13 189 1 prologue_end           @ lvgl/src/lv_widgets/../lv_core/lv_obj_style_dec.h:189:1
	movs	r2, #202
	@DEBUG_VALUE: lv_obj_get_style_scale_end_color:part <- $r1
	@DEBUG_VALUE: lv_obj_get_style_scale_end_color:obj <- $r0
	bl	_lv_obj_get_style_color
.Ltmp282:
	@DEBUG_VALUE: lv_obj_get_style_scale_end_color:part <- [DW_OP_LLVM_entry_value 1] $r1
	@DEBUG_VALUE: lv_obj_get_style_scale_end_color:obj <- [DW_OP_LLVM_entry_value 1] $r0
	pop	{r7, pc}
.Ltmp283:
.Lfunc_end22:
	.size	lv_obj_get_style_scale_end_color, .Lfunc_end22-lv_obj_get_style_scale_end_color
	.cfi_endproc
	.cantunwind
	.fnend
                                        @ -- End function
	.section	.text.lv_obj_get_style_scale_end_line_width,"ax",%progbits
	.p2align	3                               @ -- Begin function lv_obj_get_style_scale_end_line_width
	.type	lv_obj_get_style_scale_end_line_width,%function
	.code	16                              @ @lv_obj_get_style_scale_end_line_width
	.thumb_func
lv_obj_get_style_scale_end_line_width:
.Lfunc_begin23:
	.loc	13 187 0                        @ lvgl/src/lv_widgets/../lv_core/lv_obj_style_dec.h:187:0
	.fnstart
	.cfi_startproc
@ %bb.0:
	@DEBUG_VALUE: lv_obj_get_style_scale_end_line_width:obj <- $r0
	@DEBUG_VALUE: lv_obj_get_style_scale_end_line_width:obj <- $r0
	@DEBUG_VALUE: lv_obj_get_style_scale_end_line_width:part <- $r1
	@DEBUG_VALUE: lv_obj_get_style_scale_end_line_width:part <- $r1
	.save	{r7, lr}
	push	{r7, lr}
	.cfi_def_cfa_offset 8
	.cfi_offset lr, -4
	.cfi_offset r7, -8
.Ltmp284:
	.loc	13 187 1 prologue_end           @ lvgl/src/lv_widgets/../lv_core/lv_obj_style_dec.h:187:1
	movs	r2, #195
	@DEBUG_VALUE: lv_obj_get_style_scale_end_line_width:part <- $r1
	@DEBUG_VALUE: lv_obj_get_style_scale_end_line_width:obj <- $r0
	bl	_lv_obj_get_style_int
.Ltmp285:
	@DEBUG_VALUE: lv_obj_get_style_scale_end_line_width:part <- [DW_OP_LLVM_entry_value 1] $r1
	@DEBUG_VALUE: lv_obj_get_style_scale_end_line_width:obj <- [DW_OP_LLVM_entry_value 1] $r0
	pop	{r7, pc}
.Ltmp286:
.Lfunc_end23:
	.size	lv_obj_get_style_scale_end_line_width, .Lfunc_end23-lv_obj_get_style_scale_end_line_width
	.cfi_endproc
	.cantunwind
	.fnend
                                        @ -- End function
	.section	.text.lv_color_mix,"ax",%progbits
	.p2align	3                               @ -- Begin function lv_color_mix
	.type	lv_color_mix,%function
	.code	16                              @ @lv_color_mix
	.thumb_func
lv_color_mix:
.Lfunc_begin24:
	.file	14 "E:\\Smart-access-control\\Hardware\\CODE" "lvgl/src/lv_widgets/../lv_core/../lv_hal/../lv_misc/lv_color.h"
	.loc	14 441 0                        @ lvgl/src/lv_widgets/../lv_core/../lv_hal/../lv_misc/lv_color.h:441:0
	.fnstart
	.cfi_startproc
@ %bb.0:
	@DEBUG_VALUE: lv_color_mix:mix <- $r2
	@DEBUG_VALUE: lv_color_mix:mix <- $r2
	@DEBUG_VALUE: lv_color_mix:c1 <- [DW_OP_LLVM_convert 32 7, DW_OP_LLVM_convert 8 7, DW_OP_stack_value, DW_OP_LLVM_fragment 0 8] $r0
	@DEBUG_VALUE: lv_color_mix:c1 <- [DW_OP_LLVM_convert 32 7, DW_OP_LLVM_convert 8 7, DW_OP_stack_value, DW_OP_LLVM_fragment 8 8] undef
	@DEBUG_VALUE: lv_color_mix:c1 <- [DW_OP_LLVM_convert 32 7, DW_OP_LLVM_convert 8 7, DW_OP_stack_value, DW_OP_LLVM_fragment 16 8] undef
	@DEBUG_VALUE: lv_color_mix:c1 <- [DW_OP_constu 24, DW_OP_shr, DW_OP_LLVM_convert 32 7, DW_OP_LLVM_convert 8 7, DW_OP_stack_value, DW_OP_LLVM_fragment 24 8] $r0
	@DEBUG_VALUE: lv_color_mix:c2 <- [DW_OP_LLVM_convert 32 7, DW_OP_LLVM_convert 8 7, DW_OP_stack_value, DW_OP_LLVM_fragment 0 8] $r1
	@DEBUG_VALUE: lv_color_mix:c2 <- [DW_OP_LLVM_convert 32 7, DW_OP_LLVM_convert 8 7, DW_OP_stack_value, DW_OP_LLVM_fragment 8 8] undef
	@DEBUG_VALUE: lv_color_mix:c2 <- [DW_OP_LLVM_convert 32 7, DW_OP_LLVM_convert 8 7, DW_OP_stack_value, DW_OP_LLVM_fragment 16 8] undef
	@DEBUG_VALUE: lv_color_mix:c2 <- [DW_OP_constu 24, DW_OP_shr, DW_OP_LLVM_convert 32 7, DW_OP_LLVM_convert 8 7, DW_OP_stack_value, DW_OP_LLVM_fragment 24 8] $r1
	.save	{r4, r5, r7, lr}
	push	{r4, r5, r7, lr}
	.cfi_def_cfa_offset 16
	.cfi_offset lr, -4
	.cfi_offset r7, -8
	.cfi_offset r5, -12
	.cfi_offset r4, -16
.Ltmp287:
	.loc	14 445 5 prologue_end           @ lvgl/src/lv_widgets/../lv_core/../lv_hal/../lv_misc/lv_color.h:445:5
	ubfx	r12, r1, #16, #8
	eor	r4, r2, #255
	ubfx	lr, r0, #16, #8
	mul	r3, r12, r4
	smlabb	r3, lr, r2, r3
	movw	r12, #32897
	.loc	14 447 5                        @ lvgl/src/lv_widgets/../lv_core/../lv_hal/../lv_misc/lv_color.h:447:5
	ubfx	r5, r0, #8, #8
	.loc	14 449 5                        @ lvgl/src/lv_widgets/../lv_core/../lv_hal/../lv_misc/lv_color.h:449:5
	uxtb	r0, r0
.Ltmp288:
	.loc	14 445 5                        @ lvgl/src/lv_widgets/../lv_core/../lv_hal/../lv_misc/lv_color.h:445:5
	mul	lr, r3, r12
.Ltmp289:
	@DEBUG_VALUE: lv_color_mix:ret <- [DW_OP_constu 23, DW_OP_shr, DW_OP_LLVM_convert 32 7, DW_OP_LLVM_convert 8 7, DW_OP_stack_value, DW_OP_LLVM_fragment 16 8] $lr
	.loc	14 447 5                        @ lvgl/src/lv_widgets/../lv_core/../lv_hal/../lv_misc/lv_color.h:447:5
	ubfx	r3, r1, #8, #8
	.loc	14 449 5                        @ lvgl/src/lv_widgets/../lv_core/../lv_hal/../lv_misc/lv_color.h:449:5
	uxtb	r1, r1
.Ltmp290:
	.loc	14 447 5                        @ lvgl/src/lv_widgets/../lv_core/../lv_hal/../lv_misc/lv_color.h:447:5
	muls	r3, r4, r3
	.loc	14 449 5                        @ lvgl/src/lv_widgets/../lv_core/../lv_hal/../lv_misc/lv_color.h:449:5
	muls	r1, r4, r1
	.loc	14 447 5                        @ lvgl/src/lv_widgets/../lv_core/../lv_hal/../lv_misc/lv_color.h:447:5
	smlabb	r3, r5, r2, r3
	.loc	14 449 5                        @ lvgl/src/lv_widgets/../lv_core/../lv_hal/../lv_misc/lv_color.h:449:5
	smlabb	r0, r0, r2, r1
	mov.w	r2, #16711680
.Ltmp291:
	@DEBUG_VALUE: lv_color_mix:mix <- [DW_OP_LLVM_entry_value 1] $r2
	@DEBUG_VALUE: lv_color_mix:ret <- [DW_OP_LLVM_fragment 24 8] -1
	@DEBUG_VALUE: lv_color_mix:ret <- [DW_OP_LLVM_convert 32 7, DW_OP_LLVM_convert 8 7, DW_OP_stack_value, DW_OP_LLVM_fragment 0 8] undef
	.loc	14 447 5                        @ lvgl/src/lv_widgets/../lv_core/../lv_hal/../lv_misc/lv_color.h:447:5
	mul	r1, r3, r12
.Ltmp292:
	@DEBUG_VALUE: lv_color_mix:ret <- [DW_OP_constu 23, DW_OP_shr, DW_OP_LLVM_convert 32 7, DW_OP_LLVM_convert 8 7, DW_OP_stack_value, DW_OP_LLVM_fragment 8 8] $r1
	.loc	14 0 5 is_stmt 0                @ lvgl/src/lv_widgets/../lv_core/../lv_hal/../lv_misc/lv_color.h:0:5
	mov.w	r3, #65280
	.loc	14 449 5 is_stmt 1              @ lvgl/src/lv_widgets/../lv_core/../lv_hal/../lv_misc/lv_color.h:449:5
	mul	r0, r0, r12
	.loc	14 457 5                        @ lvgl/src/lv_widgets/../lv_core/../lv_hal/../lv_misc/lv_color.h:457:5
	and.w	r2, r2, lr, lsr #7
	and.w	r1, r3, r1, lsr #15
.Ltmp293:
	add	r1, r2
	ubfx	r0, r0, #23, #8
	add	r0, r1
	add.w	r0, r0, #-16777216
	pop	{r4, r5, r7, pc}
.Ltmp294:
.Lfunc_end24:
	.size	lv_color_mix, .Lfunc_end24-lv_color_mix
	.cfi_endproc
	.cantunwind
	.fnend
                                        @ -- End function
	.section	.text.lv_obj_get_style_scale_border_width,"ax",%progbits
	.p2align	3                               @ -- Begin function lv_obj_get_style_scale_border_width
	.type	lv_obj_get_style_scale_border_width,%function
	.code	16                              @ @lv_obj_get_style_scale_border_width
	.thumb_func
lv_obj_get_style_scale_border_width:
.Lfunc_begin25:
	.loc	13 185 0                        @ lvgl/src/lv_widgets/../lv_core/lv_obj_style_dec.h:185:0
	.fnstart
	.cfi_startproc
@ %bb.0:
	@DEBUG_VALUE: lv_obj_get_style_scale_border_width:obj <- $r0
	@DEBUG_VALUE: lv_obj_get_style_scale_border_width:obj <- $r0
	@DEBUG_VALUE: lv_obj_get_style_scale_border_width:part <- $r1
	@DEBUG_VALUE: lv_obj_get_style_scale_border_width:part <- $r1
	.save	{r7, lr}
	push	{r7, lr}
	.cfi_def_cfa_offset 8
	.cfi_offset lr, -4
	.cfi_offset r7, -8
.Ltmp295:
	.loc	13 185 1 prologue_end           @ lvgl/src/lv_widgets/../lv_core/lv_obj_style_dec.h:185:1
	movs	r2, #193
	@DEBUG_VALUE: lv_obj_get_style_scale_border_width:part <- $r1
	@DEBUG_VALUE: lv_obj_get_style_scale_border_width:obj <- $r0
	bl	_lv_obj_get_style_int
.Ltmp296:
	@DEBUG_VALUE: lv_obj_get_style_scale_border_width:part <- [DW_OP_LLVM_entry_value 1] $r1
	@DEBUG_VALUE: lv_obj_get_style_scale_border_width:obj <- [DW_OP_LLVM_entry_value 1] $r0
	pop	{r7, pc}
.Ltmp297:
.Lfunc_end25:
	.size	lv_obj_get_style_scale_border_width, .Lfunc_end25-lv_obj_get_style_scale_border_width
	.cfi_endproc
	.cantunwind
	.fnend
                                        @ -- End function
	.section	.text.lv_obj_get_style_scale_end_border_width,"ax",%progbits
	.p2align	3                               @ -- Begin function lv_obj_get_style_scale_end_border_width
	.type	lv_obj_get_style_scale_end_border_width,%function
	.code	16                              @ @lv_obj_get_style_scale_end_border_width
	.thumb_func
lv_obj_get_style_scale_end_border_width:
.Lfunc_begin26:
	.loc	13 186 0                        @ lvgl/src/lv_widgets/../lv_core/lv_obj_style_dec.h:186:0
	.fnstart
	.cfi_startproc
@ %bb.0:
	@DEBUG_VALUE: lv_obj_get_style_scale_end_border_width:obj <- $r0
	@DEBUG_VALUE: lv_obj_get_style_scale_end_border_width:obj <- $r0
	@DEBUG_VALUE: lv_obj_get_style_scale_end_border_width:part <- $r1
	@DEBUG_VALUE: lv_obj_get_style_scale_end_border_width:part <- $r1
	.save	{r7, lr}
	push	{r7, lr}
	.cfi_def_cfa_offset 8
	.cfi_offset lr, -4
	.cfi_offset r7, -8
.Ltmp298:
	.loc	13 186 1 prologue_end           @ lvgl/src/lv_widgets/../lv_core/lv_obj_style_dec.h:186:1
	movs	r2, #194
	@DEBUG_VALUE: lv_obj_get_style_scale_end_border_width:part <- $r1
	@DEBUG_VALUE: lv_obj_get_style_scale_end_border_width:obj <- $r0
	bl	_lv_obj_get_style_int
.Ltmp299:
	@DEBUG_VALUE: lv_obj_get_style_scale_end_border_width:part <- [DW_OP_LLVM_entry_value 1] $r1
	@DEBUG_VALUE: lv_obj_get_style_scale_end_border_width:obj <- [DW_OP_LLVM_entry_value 1] $r0
	pop	{r7, pc}
.Ltmp300:
.Lfunc_end26:
	.size	lv_obj_get_style_scale_end_border_width, .Lfunc_end26-lv_obj_get_style_scale_end_border_width
	.cfi_endproc
	.cantunwind
	.fnend
                                        @ -- End function
	.type	.L.str,%object                  @ @.str
	.section	.rodata.str1.1,"aMS",%progbits,1
.L.str:
	.asciz	"Out of memory"
	.size	.L.str, 14

	.type	ancestor_signal,%object         @ @ancestor_signal
	.section	.bss.ancestor_signal,"aw",%nobits
	.p2align	2
ancestor_signal:
	.long	0
	.size	ancestor_signal, 4

	.type	.L.str.1,%object                @ @.str.1
	.section	.rodata.str1.1,"aMS",%progbits,1
.L.str.1:
	.asciz	"NULL pointer"
	.size	.L.str.1, 13

	.file	15 "E:\\Smart-access-control\\Hardware\\CODE" "lvgl/src/lv_widgets/../lv_core/../lv_draw/lv_draw_rect.h"
	.file	16 "E:\\Smart-access-control\\Hardware\\CODE" "lvgl/src/lv_widgets/../lv_core/../lv_draw/lv_draw_blend.h"
	.file	17 "E:\\Smart-access-control\\Hardware\\CODE" "lvgl/src/lv_widgets/../lv_core/../lv_font/../lv_misc/../lv_font/lv_font.h"
	.file	18 "E:\\Smart-access-control\\Hardware\\CODE" "lvgl/src/lv_widgets/../lv_core/../lv_draw/lv_draw_line.h"
	.section	".note.GNU-stack","",%progbits
	.eabi_attribute	30, 1	@ Tag_ABI_optimization_goals
	.ARM_attribute	16, 1	@ Tag_AV_eba