	.text
	.syntax unified
	.eabi_attribute	67, "2.09"	@ Tag_conformance
	.cpu	cortex-m7
	.eabi_attribute	6, 13	@ Tag_CPU_arch
	.eabi_attribute	7, 77	@ Tag_CPU_arch_profile
	.eabi_attribute	8, 0	@ Tag_ARM_ISA_use
	.eabi_attribute	9, 2	@ Tag_THUMB_ISA_use
	.fpu	fpv5-d16
	.eabi_attribute	36, 1	@ Tag_FP_HP_extension
	.eabi_attribute	34, 1	@ Tag_CPU_unaligned_access
	.eabi_attribute	17, 1	@ Tag_ABI_PCS_GOT_use
	.eabi_attribute	20, 2	@ Tag_ABI_FP_denormal
	.eabi_attribute	21, 0	@ Tag_ABI_FP_exceptions
	.eabi_attribute	23, 1	@ Tag_ABI_FP_number_model
	.eabi_attribute	24, 1	@ Tag_ABI_align_needed
	.eabi_attribute	25, 1	@ Tag_ABI_align_preserved
	.eabi_attribute	28, 1	@ Tag_ABI_VFP_args
	.eabi_attribute	38, 1	@ Tag_ABI_FP_16bit_format
	.eabi_attribute	18, 2	@ Tag_ABI_PCS_wchar_t
	.eabi_attribute	26, 1	@ Tag_ABI_enum_size
	.eabi_attribute	14, 0	@ Tag_ABI_PCS_R9_use
	.file	"lv_mem.c"
	.file	1 "D:\\Keil_v5\\ARM\\ARMCLANG\\Bin\\..\\include" "stdint.h"
	.file	2 "E:\\Smart-access-control\\Hardware\\CODE" "lvgl/src/lv_misc/lv_mem.c"
	.file	3 "E:\\Smart-access-control\\Hardware\\CODE" "lvgl/src/lv_misc/lv_mem.h"
	.file	4 "E:\\Smart-access-control\\Hardware\\CODE" "lvgl/src/lv_misc/../lv_draw/../lv_misc/lv_types.h"
	.section	.text._lv_mem_init,"ax",%progbits
	.hidden	_lv_mem_init                    @ -- Begin function _lv_mem_init
	.globl	_lv_mem_init
	.p2align	3
	.type	_lv_mem_init,%function
	.code	16                              @ @_lv_mem_init
	.thumb_func
_lv_mem_init:
.Lfunc_begin0:
	.loc	2 115 0                         @ lvgl/src/lv_misc/lv_mem.c:115:0
	.fnstart
	.cfi_sections .debug_frame
	.cfi_startproc
@ %bb.0:
	.loc	2 131 1 prologue_end            @ lvgl/src/lv_misc/lv_mem.c:131:1
	bx	lr
.Ltmp0:
.Lfunc_end0:
	.size	_lv_mem_init, .Lfunc_end0-_lv_mem_init
	.cfi_endproc
	.cantunwind
	.fnend
                                        @ -- End function
	.section	.text._lv_mem_deinit,"ax",%progbits
	.hidden	_lv_mem_deinit                  @ -- Begin function _lv_mem_deinit
	.globl	_lv_mem_deinit
	.p2align	3
	.type	_lv_mem_deinit,%function
	.code	16                              @ @_lv_mem_deinit
	.thumb_func
_lv_mem_deinit:
.Lfunc_begin1:
	.loc	2 138 0                         @ lvgl/src/lv_misc/lv_mem.c:138:0
	.fnstart
	.cfi_startproc
@ %bb.0:
	.loc	2 145 1 prologue_end            @ lvgl/src/lv_misc/lv_mem.c:145:1
	bx	lr
.Ltmp1:
.Lfunc_end1:
	.size	_lv_mem_deinit, .Lfunc_end1-_lv_mem_deinit
	.cfi_endproc
	.cantunwind
	.fnend
                                        @ -- End function
	.section	.text.lv_mem_alloc,"ax",%progbits
	.hidden	lv_mem_alloc                    @ -- Begin function lv_mem_alloc
	.globl	lv_mem_alloc
	.p2align	3
	.type	lv_mem_alloc,%function
	.code	16                              @ @lv_mem_alloc
	.thumb_func
lv_mem_alloc:
.Lfunc_begin2:
	.loc	2 153 0                         @ lvgl/src/lv_misc/lv_mem.c:153:0
	.fnstart
	.cfi_startproc
@ %bb.0:
	.save	{r7, lr}
	push	{r7, lr}
	.cfi_def_cfa_offset 8
	.cfi_offset lr, -4
	.cfi_offset r7, -8
	.pad	#16
	sub	sp, #16
	.cfi_def_cfa_offset 24
	str	r0, [sp, #8]
.Ltmp2:
	.loc	2 154 8 prologue_end            @ lvgl/src/lv_misc/lv_mem.c:154:8
	ldr	r0, [sp, #8]
.Ltmp3:
	.loc	2 154 8 is_stmt 0               @ lvgl/src/lv_misc/lv_mem.c:154:8
	cbnz	r0, .LBB2_2
	b	.LBB2_1
.LBB2_1:
.Ltmp4:
	.loc	2 155 9 is_stmt 1               @ lvgl/src/lv_misc/lv_mem.c:155:9
	movw	r0, :lower16:zero_mem
	movt	r0, :upper16:zero_mem
	str	r0, [sp, #12]
	b	.LBB2_8
.Ltmp5:
.LBB2_2:
	.loc	2 159 13                        @ lvgl/src/lv_misc/lv_mem.c:159:13
	ldr	r0, [sp, #8]
	.loc	2 159 18 is_stmt 0              @ lvgl/src/lv_misc/lv_mem.c:159:18
	adds	r0, #3
	.loc	2 159 32                        @ lvgl/src/lv_misc/lv_mem.c:159:32
	bic	r0, r0, #3
	.loc	2 159 10                        @ lvgl/src/lv_misc/lv_mem.c:159:10
	str	r0, [sp, #8]
	movs	r0, #0
	.loc	2 160 12 is_stmt 1              @ lvgl/src/lv_misc/lv_mem.c:160:12
	str	r0, [sp, #4]
	.loc	2 184 2                         @ lvgl/src/lv_misc/lv_mem.c:184:2
	bl	rt_enter_critical
	.loc	2 185 33                        @ lvgl/src/lv_misc/lv_mem.c:185:33
	ldr	r0, [sp, #8]
	.loc	2 185 38 is_stmt 0              @ lvgl/src/lv_misc/lv_mem.c:185:38
	adds	r0, #4
	.loc	2 185 13                        @ lvgl/src/lv_misc/lv_mem.c:185:13
	bl	rt_malloc
	.loc	2 185 11                        @ lvgl/src/lv_misc/lv_mem.c:185:11
	str	r0, [sp, #4]
.Ltmp6:
	.loc	2 186 8 is_stmt 1               @ lvgl/src/lv_misc/lv_mem.c:186:8
	ldr	r0, [sp, #4]
.Ltmp7:
	.loc	2 186 8 is_stmt 0               @ lvgl/src/lv_misc/lv_mem.c:186:8
	cbz	r0, .LBB2_4
	b	.LBB2_3
.LBB2_3:
.Ltmp8:
	.loc	2 187 52 is_stmt 1              @ lvgl/src/lv_misc/lv_mem.c:187:52
	ldr	r2, [sp, #8]
	.loc	2 187 26 is_stmt 0              @ lvgl/src/lv_misc/lv_mem.c:187:26
	ldr	r1, [sp, #4]
	.loc	2 187 50                        @ lvgl/src/lv_misc/lv_mem.c:187:50
	ldr	r0, [r1]
	and	r0, r0, #1
	orr.w	r0, r0, r2, lsl #1
	str	r0, [r1]
	.loc	2 188 26 is_stmt 1              @ lvgl/src/lv_misc/lv_mem.c:188:26
	ldr	r1, [sp, #4]
	.loc	2 188 50 is_stmt 0              @ lvgl/src/lv_misc/lv_mem.c:188:50
	ldr	r0, [r1]
	orr	r0, r0, #1
	str	r0, [r1]
	.loc	2 190 35 is_stmt 1              @ lvgl/src/lv_misc/lv_mem.c:190:35
	ldr	r0, [sp, #4]
	.loc	2 190 43 is_stmt 0              @ lvgl/src/lv_misc/lv_mem.c:190:43
	adds	r0, #4
	.loc	2 190 15                        @ lvgl/src/lv_misc/lv_mem.c:190:15
	str	r0, [sp, #4]
	.loc	2 191 5 is_stmt 1               @ lvgl/src/lv_misc/lv_mem.c:191:5
	b	.LBB2_4
.Ltmp9:
.LBB2_4:
	.loc	2 192 2                         @ lvgl/src/lv_misc/lv_mem.c:192:2
	bl	rt_exit_critical
.Ltmp10:
	.loc	2 200 8                         @ lvgl/src/lv_misc/lv_mem.c:200:8
	ldr	r0, [sp, #4]
.Ltmp11:
	.loc	2 200 8 is_stmt 0               @ lvgl/src/lv_misc/lv_mem.c:200:8
	cbnz	r0, .LBB2_6
	b	.LBB2_5
.LBB2_5:
.Ltmp12:
	.loc	2 202 5 is_stmt 1               @ lvgl/src/lv_misc/lv_mem.c:202:5
	b	.LBB2_7
.Ltmp13:
.LBB2_6:
	.loc	2 0 5 is_stmt 0                 @ lvgl/src/lv_misc/lv_mem.c:0:5
	b	.LBB2_7
.LBB2_7:
	.loc	2 214 12 is_stmt 1              @ lvgl/src/lv_misc/lv_mem.c:214:12
	ldr	r0, [sp, #4]
	.loc	2 214 5 is_stmt 0               @ lvgl/src/lv_misc/lv_mem.c:214:5
	str	r0, [sp, #12]
	b	.LBB2_8
.LBB2_8:
	.loc	2 215 1 is_stmt 1               @ lvgl/src/lv_misc/lv_mem.c:215:1
	ldr	r0, [sp, #12]
	add	sp, #16
	pop	{r7, pc}
.Ltmp14:
.Lfunc_end2:
	.size	lv_mem_alloc, .Lfunc_end2-lv_mem_alloc
	.cfi_endproc
	.cantunwind
	.fnend
                                        @ -- End function
	.section	.text.lv_mem_free,"ax",%progbits
	.hidden	lv_mem_free                     @ -- Begin function lv_mem_free
	.globl	lv_mem_free
	.p2align	3
	.type	lv_mem_free,%function
	.code	16                              @ @lv_mem_free
	.thumb_func
lv_mem_free:
.Lfunc_begin3:
	.loc	2 222 0                         @ lvgl/src/lv_misc/lv_mem.c:222:0
	.fnstart
	.cfi_startproc
@ %bb.0:
	.save	{r7, lr}
	push	{r7, lr}
	.cfi_def_cfa_offset 8
	.cfi_offset lr, -4
	.cfi_offset r7, -8
	.pad	#8
	sub	sp, #8
	.cfi_def_cfa_offset 16
	str	r0, [sp, #4]
.Ltmp15:
	.loc	2 223 8 prologue_end            @ lvgl/src/lv_misc/lv_mem.c:223:8
	ldr	r0, [sp, #4]
	.loc	2 223 13 is_stmt 0              @ lvgl/src/lv_misc/lv_mem.c:223:13
	movw	r1, :lower16:zero_mem
	movt	r1, :upper16:zero_mem
.Ltmp16:
	.loc	2 223 8                         @ lvgl/src/lv_misc/lv_mem.c:223:8
	cmp	r0, r1
	bne	.LBB3_2
	b	.LBB3_1
.LBB3_1:
.Ltmp17:
	.loc	2 223 27                        @ lvgl/src/lv_misc/lv_mem.c:223:27
	b	.LBB3_5
.Ltmp18:
.LBB3_2:
	.loc	2 224 8 is_stmt 1               @ lvgl/src/lv_misc/lv_mem.c:224:8
	ldr	r0, [sp, #4]
.Ltmp19:
	.loc	2 224 8 is_stmt 0               @ lvgl/src/lv_misc/lv_mem.c:224:8
	cbnz	r0, .LBB3_4
	b	.LBB3_3
.LBB3_3:
.Ltmp20:
	.loc	2 224 22                        @ lvgl/src/lv_misc/lv_mem.c:224:22
	b	.LBB3_5
.Ltmp21:
.LBB3_4:
	.loc	2 232 52 is_stmt 1              @ lvgl/src/lv_misc/lv_mem.c:232:52
	ldr	r0, [sp, #4]
	.loc	2 232 57 is_stmt 0              @ lvgl/src/lv_misc/lv_mem.c:232:57
	subs	r0, #4
	.loc	2 232 20                        @ lvgl/src/lv_misc/lv_mem.c:232:20
	str	r0, [sp]
	.loc	2 233 5 is_stmt 1               @ lvgl/src/lv_misc/lv_mem.c:233:5
	ldr	r1, [sp]
	.loc	2 233 22 is_stmt 0              @ lvgl/src/lv_misc/lv_mem.c:233:22
	ldr	r0, [r1]
	bic	r0, r0, #1
	str	r0, [r1]
	.loc	2 263 2 is_stmt 1               @ lvgl/src/lv_misc/lv_mem.c:263:2
	bl	rt_enter_critical
	.loc	2 264 24                        @ lvgl/src/lv_misc/lv_mem.c:264:24
	ldr	r0, [sp]
	.loc	2 264 5 is_stmt 0               @ lvgl/src/lv_misc/lv_mem.c:264:5
	bl	rt_free
	.loc	2 265 2 is_stmt 1               @ lvgl/src/lv_misc/lv_mem.c:265:2
	bl	rt_exit_critical
	.loc	2 270 1                         @ lvgl/src/lv_misc/lv_mem.c:270:1
	b	.LBB3_5
.LBB3_5:
	add	sp, #8
	pop	{r7, pc}
.Ltmp22:
.Lfunc_end3:
	.size	lv_mem_free, .Lfunc_end3-lv_mem_free
	.cfi_endproc
	.cantunwind
	.fnend
                                        @ -- End function
	.section	.text.lv_mem_realloc,"ax",%progbits
	.hidden	lv_mem_realloc                  @ -- Begin function lv_mem_realloc
	.globl	lv_mem_realloc
	.p2align	3
	.type	lv_mem_realloc,%function
	.code	16                              @ @lv_mem_realloc
	.thumb_func
lv_mem_realloc:
.Lfunc_begin4:
	.loc	2 283 0                         @ lvgl/src/lv_misc/lv_mem.c:283:0
	.fnstart
	.cfi_startproc
@ %bb.0:
	.save	{r7, lr}
	push	{r7, lr}
	.cfi_def_cfa_offset 8
	.cfi_offset lr, -4
	.cfi_offset r7, -8
	.pad	#40
	sub	sp, #40
	.cfi_def_cfa_offset 48
	str	r0, [sp, #32]
	str	r1, [sp, #28]
.Ltmp23:
	.loc	2 285 17 prologue_end           @ lvgl/src/lv_misc/lv_mem.c:285:17
	ldr	r0, [sp, #28]
	.loc	2 285 26 is_stmt 0              @ lvgl/src/lv_misc/lv_mem.c:285:26
	adds	r0, #3
	.loc	2 285 40                        @ lvgl/src/lv_misc/lv_mem.c:285:40
	bic	r0, r0, #3
	.loc	2 285 14                        @ lvgl/src/lv_misc/lv_mem.c:285:14
	str	r0, [sp, #28]
.Ltmp24:
	.loc	2 288 8 is_stmt 1               @ lvgl/src/lv_misc/lv_mem.c:288:8
	ldr	r0, [sp, #32]
.Ltmp25:
	.loc	2 288 8 is_stmt 0               @ lvgl/src/lv_misc/lv_mem.c:288:8
	cbz	r0, .LBB4_4
	b	.LBB4_1
.LBB4_1:
.Ltmp26:
	.loc	2 289 56 is_stmt 1              @ lvgl/src/lv_misc/lv_mem.c:289:56
	ldr	r0, [sp, #32]
	.loc	2 289 63 is_stmt 0              @ lvgl/src/lv_misc/lv_mem.c:289:63
	subs	r0, #4
	.loc	2 289 24                        @ lvgl/src/lv_misc/lv_mem.c:289:24
	str	r0, [sp, #24]
.Ltmp27:
	.loc	2 290 12 is_stmt 1              @ lvgl/src/lv_misc/lv_mem.c:290:12
	ldr	r0, [sp, #24]
.Ltmp28:
	.loc	2 290 12 is_stmt 0              @ lvgl/src/lv_misc/lv_mem.c:290:12
	ldrb	r0, [r0]
	lsls	r0, r0, #31
	cbnz	r0, .LBB4_3
	b	.LBB4_2
.LBB4_2:
	.loc	2 0 12                          @ lvgl/src/lv_misc/lv_mem.c:0:12
	movs	r0, #0
.Ltmp29:
	.loc	2 291 20 is_stmt 1              @ lvgl/src/lv_misc/lv_mem.c:291:20
	str	r0, [sp, #32]
	.loc	2 292 9                         @ lvgl/src/lv_misc/lv_mem.c:292:9
	b	.LBB4_3
.Ltmp30:
.LBB4_3:
	.loc	2 293 5                         @ lvgl/src/lv_misc/lv_mem.c:293:5
	b	.LBB4_4
.Ltmp31:
.LBB4_4:
	.loc	2 295 42                        @ lvgl/src/lv_misc/lv_mem.c:295:42
	ldr	r0, [sp, #32]
	.loc	2 295 25 is_stmt 0              @ lvgl/src/lv_misc/lv_mem.c:295:25
	bl	_lv_mem_get_size
	.loc	2 295 14                        @ lvgl/src/lv_misc/lv_mem.c:295:14
	str	r0, [sp, #20]
.Ltmp32:
	.loc	2 296 8 is_stmt 1               @ lvgl/src/lv_misc/lv_mem.c:296:8
	ldr	r0, [sp, #20]
	.loc	2 296 20 is_stmt 0              @ lvgl/src/lv_misc/lv_mem.c:296:20
	ldr	r1, [sp, #28]
.Ltmp33:
	.loc	2 296 8                         @ lvgl/src/lv_misc/lv_mem.c:296:8
	cmp	r0, r1
	bne	.LBB4_6
	b	.LBB4_5
.LBB4_5:
.Ltmp34:
	.loc	2 296 37                        @ lvgl/src/lv_misc/lv_mem.c:296:37
	ldr	r0, [sp, #32]
	.loc	2 296 30                        @ lvgl/src/lv_misc/lv_mem.c:296:30
	str	r0, [sp, #36]
	b	.LBB4_17
.Ltmp35:
.LBB4_6:
	.loc	2 308 26 is_stmt 1              @ lvgl/src/lv_misc/lv_mem.c:308:26
	ldr	r0, [sp, #28]
	.loc	2 308 13 is_stmt 0              @ lvgl/src/lv_misc/lv_mem.c:308:13
	bl	lv_mem_alloc
	.loc	2 308 11                        @ lvgl/src/lv_misc/lv_mem.c:308:11
	str	r0, [sp, #16]
.Ltmp36:
	.loc	2 309 8 is_stmt 1               @ lvgl/src/lv_misc/lv_mem.c:309:8
	ldr	r0, [sp, #16]
.Ltmp37:
	.loc	2 309 8 is_stmt 0               @ lvgl/src/lv_misc/lv_mem.c:309:8
	cbnz	r0, .LBB4_8
	b	.LBB4_7
.LBB4_7:
	.loc	2 0 8                           @ lvgl/src/lv_misc/lv_mem.c:0:8
	movs	r0, #0
.Ltmp38:
	.loc	2 311 9 is_stmt 1               @ lvgl/src/lv_misc/lv_mem.c:311:9
	str	r0, [sp, #36]
	b	.LBB4_17
.Ltmp39:
.LBB4_8:
	.loc	2 314 8                         @ lvgl/src/lv_misc/lv_mem.c:314:8
	ldr	r0, [sp, #32]
.Ltmp40:
	.loc	2 314 8 is_stmt 0               @ lvgl/src/lv_misc/lv_mem.c:314:8
	cbz	r0, .LBB4_16
	b	.LBB4_9
.LBB4_9:
.Ltmp41:
	.loc	2 316 12 is_stmt 1              @ lvgl/src/lv_misc/lv_mem.c:316:12
	ldr	r0, [sp, #20]
	.loc	2 316 26 is_stmt 0              @ lvgl/src/lv_misc/lv_mem.c:316:26
	cbz	r0, .LBB4_15
	b	.LBB4_10
.LBB4_10:
	.loc	2 316 29                        @ lvgl/src/lv_misc/lv_mem.c:316:29
	ldr	r0, [sp, #28]
.Ltmp42:
	.loc	2 316 12                        @ lvgl/src/lv_misc/lv_mem.c:316:12
	cbz	r0, .LBB4_15
	b	.LBB4_11
.LBB4_11:
.Ltmp43:
	.loc	2 317 24 is_stmt 1              @ lvgl/src/lv_misc/lv_mem.c:317:24
	ldr	r0, [sp, #16]
	.loc	2 317 31 is_stmt 0              @ lvgl/src/lv_misc/lv_mem.c:317:31
	str	r0, [sp, #8]                    @ 4-byte Spill
	ldr	r0, [sp, #32]
	.loc	2 317 39                        @ lvgl/src/lv_misc/lv_mem.c:317:39
	str	r0, [sp, #12]                   @ 4-byte Spill
	ldr	r0, [sp, #28]
	ldr	r1, [sp, #20]
	cmp	r0, r1
	bhs	.LBB4_13
	b	.LBB4_12
.LBB4_12:
	ldr	r0, [sp, #28]
	str	r0, [sp, #4]                    @ 4-byte Spill
	b	.LBB4_14
.LBB4_13:
	ldr	r0, [sp, #20]
	str	r0, [sp, #4]                    @ 4-byte Spill
	b	.LBB4_14
.LBB4_14:
	ldr	r1, [sp, #12]                   @ 4-byte Reload
	ldr	r0, [sp, #8]                    @ 4-byte Reload
	ldr	r2, [sp, #4]                    @ 4-byte Reload
	.loc	2 317 13                        @ lvgl/src/lv_misc/lv_mem.c:317:13
	bl	_lv_memcpy
	.loc	2 318 9 is_stmt 1               @ lvgl/src/lv_misc/lv_mem.c:318:9
	b	.LBB4_15
.Ltmp44:
.LBB4_15:
	.loc	2 319 21                        @ lvgl/src/lv_misc/lv_mem.c:319:21
	ldr	r0, [sp, #32]
	.loc	2 319 9 is_stmt 0               @ lvgl/src/lv_misc/lv_mem.c:319:9
	bl	lv_mem_free
	.loc	2 320 5 is_stmt 1               @ lvgl/src/lv_misc/lv_mem.c:320:5
	b	.LBB4_16
.Ltmp45:
.LBB4_16:
	.loc	2 322 12                        @ lvgl/src/lv_misc/lv_mem.c:322:12
	ldr	r0, [sp, #16]
	.loc	2 322 5 is_stmt 0               @ lvgl/src/lv_misc/lv_mem.c:322:5
	str	r0, [sp, #36]
	b	.LBB4_17
.LBB4_17:
	.loc	2 323 1 is_stmt 1               @ lvgl/src/lv_misc/lv_mem.c:323:1
	ldr	r0, [sp, #36]
	add	sp, #40
	pop	{r7, pc}
.Ltmp46:
.Lfunc_end4:
	.size	lv_mem_realloc, .Lfunc_end4-lv_mem_realloc
	.cfi_endproc
	.cantunwind
	.fnend
                                        @ -- End function
	.section	.text._lv_mem_get_size,"ax",%progbits
	.hidden	_lv_mem_get_size                @ -- Begin function _lv_mem_get_size
	.globl	_lv_mem_get_size
	.p2align	3
	.type	_lv_mem_get_size,%function
	.code	16                              @ @_lv_mem_get_size
	.thumb_func
_lv_mem_get_size:
.Lfunc_begin5:
	.loc	2 449 0                         @ lvgl/src/lv_misc/lv_mem.c:449:0
	.fnstart
	.cfi_startproc
@ %bb.0:
	.pad	#12
	sub	sp, #12
	.cfi_def_cfa_offset 12
	str	r0, [sp, #4]
.Ltmp47:
	.loc	2 450 8 prologue_end            @ lvgl/src/lv_misc/lv_mem.c:450:8
	ldr	r0, [sp, #4]
.Ltmp48:
	.loc	2 450 8 is_stmt 0               @ lvgl/src/lv_misc/lv_mem.c:450:8
	cbnz	r0, .LBB5_2
	b	.LBB5_1
.LBB5_1:
	.loc	2 0 8                           @ lvgl/src/lv_misc/lv_mem.c:0:8
	movs	r0, #0
.Ltmp49:
	.loc	2 450 22                        @ lvgl/src/lv_misc/lv_mem.c:450:22
	str	r0, [sp, #8]
	b	.LBB5_5
.Ltmp50:
.LBB5_2:
	.loc	2 451 8 is_stmt 1               @ lvgl/src/lv_misc/lv_mem.c:451:8
	ldr	r0, [sp, #4]
	.loc	2 451 13 is_stmt 0              @ lvgl/src/lv_misc/lv_mem.c:451:13
	movw	r1, :lower16:zero_mem
	movt	r1, :upper16:zero_mem
.Ltmp51:
	.loc	2 451 8                         @ lvgl/src/lv_misc/lv_mem.c:451:8
	cmp	r0, r1
	bne	.LBB5_4
	b	.LBB5_3
.LBB5_3:
	.loc	2 0 8                           @ lvgl/src/lv_misc/lv_mem.c:0:8
	movs	r0, #0
.Ltmp52:
	.loc	2 451 27                        @ lvgl/src/lv_misc/lv_mem.c:451:27
	str	r0, [sp, #8]
	b	.LBB5_5
.Ltmp53:
.LBB5_4:
	.loc	2 453 52 is_stmt 1              @ lvgl/src/lv_misc/lv_mem.c:453:52
	ldr	r0, [sp, #4]
	.loc	2 453 57 is_stmt 0              @ lvgl/src/lv_misc/lv_mem.c:453:57
	subs	r0, #4
	.loc	2 453 20                        @ lvgl/src/lv_misc/lv_mem.c:453:20
	str	r0, [sp]
	.loc	2 455 12 is_stmt 1              @ lvgl/src/lv_misc/lv_mem.c:455:12
	ldr	r0, [sp]
	.loc	2 455 24 is_stmt 0              @ lvgl/src/lv_misc/lv_mem.c:455:24
	ldr	r0, [r0]
	lsrs	r0, r0, #1
	.loc	2 455 5                         @ lvgl/src/lv_misc/lv_mem.c:455:5
	str	r0, [sp, #8]
	b	.LBB5_5
.LBB5_5:
	.loc	2 456 1 is_stmt 1               @ lvgl/src/lv_misc/lv_mem.c:456:1
	ldr	r0, [sp, #8]
	add	sp, #12
	bx	lr
.Ltmp54:
.Lfunc_end5:
	.size	_lv_mem_get_size, .Lfunc_end5-_lv_mem_get_size
	.cfi_endproc
	.cantunwind
	.fnend
                                        @ -- End function
	.section	.text._lv_memcpy,"ax",%progbits
	.hidden	_lv_memcpy                      @ -- Begin function _lv_memcpy
	.globl	_lv_memcpy
	.p2align	3
	.type	_lv_memcpy,%function
	.code	16                              @ @_lv_memcpy
	.thumb_func
_lv_memcpy:
.Lfunc_begin6:
	.loc	2 583 0                         @ lvgl/src/lv_misc/lv_mem.c:583:0
	.fnstart
	.cfi_startproc
@ %bb.0:
	.pad	#44
	sub	sp, #44
	.cfi_def_cfa_offset 44
	str	r0, [sp, #36]
	str	r1, [sp, #32]
	str	r2, [sp, #28]
.Ltmp55:
	.loc	2 584 20 prologue_end           @ lvgl/src/lv_misc/lv_mem.c:584:20
	ldr	r0, [sp, #36]
	.loc	2 584 15 is_stmt 0              @ lvgl/src/lv_misc/lv_mem.c:584:15
	str	r0, [sp, #24]
	.loc	2 585 26 is_stmt 1              @ lvgl/src/lv_misc/lv_mem.c:585:26
	ldr	r0, [sp, #32]
	.loc	2 585 21 is_stmt 0              @ lvgl/src/lv_misc/lv_mem.c:585:21
	str	r0, [sp, #20]
	.loc	2 587 42 is_stmt 1              @ lvgl/src/lv_misc/lv_mem.c:587:42
	ldr	r0, [sp, #24]
	.loc	2 587 45 is_stmt 0              @ lvgl/src/lv_misc/lv_mem.c:587:45
	and	r0, r0, #3
	.loc	2 587 18                        @ lvgl/src/lv_misc/lv_mem.c:587:18
	str	r0, [sp, #16]
	.loc	2 588 42 is_stmt 1              @ lvgl/src/lv_misc/lv_mem.c:588:42
	ldr	r0, [sp, #20]
	.loc	2 588 45 is_stmt 0              @ lvgl/src/lv_misc/lv_mem.c:588:45
	and	r0, r0, #3
	.loc	2 588 18                        @ lvgl/src/lv_misc/lv_mem.c:588:18
	str	r0, [sp, #12]
.Ltmp56:
	.loc	2 591 8 is_stmt 1               @ lvgl/src/lv_misc/lv_mem.c:591:8
	ldr	r0, [sp, #12]
	.loc	2 591 19 is_stmt 0              @ lvgl/src/lv_misc/lv_mem.c:591:19
	ldr	r1, [sp, #16]
.Ltmp57:
	.loc	2 591 8                         @ lvgl/src/lv_misc/lv_mem.c:591:8
	cmp	r0, r1
	beq.w	.LBB6_8
	b	.LBB6_1
.LBB6_1:
.Ltmp58:
	.loc	2 592 9 is_stmt 1               @ lvgl/src/lv_misc/lv_mem.c:592:9
	b	.LBB6_2
.LBB6_2:                                @ =>This Inner Loop Header: Depth=1
	.loc	2 592 15 is_stmt 0              @ lvgl/src/lv_misc/lv_mem.c:592:15
	ldr	r0, [sp, #28]
	.loc	2 592 9                         @ lvgl/src/lv_misc/lv_mem.c:592:9
	cmp	r0, #33
	blo.w	.LBB6_4
	b	.LBB6_3
.LBB6_3:                                @   in Loop: Header=BB6_2 Depth=1
.Ltmp59:
	.loc	2 593 13 is_stmt 1              @ lvgl/src/lv_misc/lv_mem.c:593:13
	ldr	r0, [sp, #20]
	ldrb	r0, [r0]
	ldr	r1, [sp, #24]
	strb	r0, [r1]
	ldr	r0, [sp, #24]
	adds	r0, #1
	str	r0, [sp, #24]
	ldr	r0, [sp, #20]
	adds	r0, #1
	str	r0, [sp, #20]
	ldr	r0, [sp, #20]
	ldrb	r0, [r0]
	ldr	r1, [sp, #24]
	strb	r0, [r1]
	ldr	r0, [sp, #24]
	adds	r0, #1
	str	r0, [sp, #24]
	ldr	r0, [sp, #20]
	adds	r0, #1
	str	r0, [sp, #20]
	ldr	r0, [sp, #20]
	ldrb	r0, [r0]
	ldr	r1, [sp, #24]
	strb	r0, [r1]
	ldr	r0, [sp, #24]
	adds	r0, #1
	str	r0, [sp, #24]
	ldr	r0, [sp, #20]
	adds	r0, #1
	str	r0, [sp, #20]
	ldr	r0, [sp, #20]
	ldrb	r0, [r0]
	ldr	r1, [sp, #24]
	strb	r0, [r1]
	ldr	r0, [sp, #24]
	adds	r0, #1
	str	r0, [sp, #24]
	ldr	r0, [sp, #20]
	adds	r0, #1
	str	r0, [sp, #20]
	ldr	r0, [sp, #20]
	ldrb	r0, [r0]
	ldr	r1, [sp, #24]
	strb	r0, [r1]
	ldr	r0, [sp, #24]
	adds	r0, #1
	str	r0, [sp, #24]
	ldr	r0, [sp, #20]
	adds	r0, #1
	str	r0, [sp, #20]
	ldr	r0, [sp, #20]
	ldrb	r0, [r0]
	ldr	r1, [sp, #24]
	strb	r0, [r1]
	ldr	r0, [sp, #24]
	adds	r0, #1
	str	r0, [sp, #24]
	ldr	r0, [sp, #20]
	adds	r0, #1
	str	r0, [sp, #20]
	ldr	r0, [sp, #20]
	ldrb	r0, [r0]
	ldr	r1, [sp, #24]
	strb	r0, [r1]
	ldr	r0, [sp, #24]
	adds	r0, #1
	str	r0, [sp, #24]
	ldr	r0, [sp, #20]
	adds	r0, #1
	str	r0, [sp, #20]
	ldr	r0, [sp, #20]
	ldrb	r0, [r0]
	ldr	r1, [sp, #24]
	strb	r0, [r1]
	ldr	r0, [sp, #24]
	adds	r0, #1
	str	r0, [sp, #24]
	ldr	r0, [sp, #20]
	adds	r0, #1
	str	r0, [sp, #20]
	.loc	2 594 13                        @ lvgl/src/lv_misc/lv_mem.c:594:13
	ldr	r0, [sp, #20]
	ldrb	r0, [r0]
	ldr	r1, [sp, #24]
	strb	r0, [r1]
	ldr	r0, [sp, #24]
	adds	r0, #1
	str	r0, [sp, #24]
	ldr	r0, [sp, #20]
	adds	r0, #1
	str	r0, [sp, #20]
	ldr	r0, [sp, #20]
	ldrb	r0, [r0]
	ldr	r1, [sp, #24]
	strb	r0, [r1]
	ldr	r0, [sp, #24]
	adds	r0, #1
	str	r0, [sp, #24]
	ldr	r0, [sp, #20]
	adds	r0, #1
	str	r0, [sp, #20]
	ldr	r0, [sp, #20]
	ldrb	r0, [r0]
	ldr	r1, [sp, #24]
	strb	r0, [r1]
	ldr	r0, [sp, #24]
	adds	r0, #1
	str	r0, [sp, #24]
	ldr	r0, [sp, #20]
	adds	r0, #1
	str	r0, [sp, #20]
	ldr	r0, [sp, #20]
	ldrb	r0, [r0]
	ldr	r1, [sp, #24]
	strb	r0, [r1]
	ldr	r0, [sp, #24]
	adds	r0, #1
	str	r0, [sp, #24]
	ldr	r0, [sp, #20]
	adds	r0, #1
	str	r0, [sp, #20]
	ldr	r0, [sp, #20]
	ldrb	r0, [r0]
	ldr	r1, [sp, #24]
	strb	r0, [r1]
	ldr	r0, [sp, #24]
	adds	r0, #1
	str	r0, [sp, #24]
	ldr	r0, [sp, #20]
	adds	r0, #1
	str	r0, [sp, #20]
	ldr	r0, [sp, #20]
	ldrb	r0, [r0]
	ldr	r1, [sp, #24]
	strb	r0, [r1]
	ldr	r0, [sp, #24]
	adds	r0, #1
	str	r0, [sp, #24]
	ldr	r0, [sp, #20]
	adds	r0, #1
	str	r0, [sp, #20]
	ldr	r0, [sp, #20]
	ldrb	r0, [r0]
	ldr	r1, [sp, #24]
	strb	r0, [r1]
	ldr	r0, [sp, #24]
	adds	r0, #1
	str	r0, [sp, #24]
	ldr	r0, [sp, #20]
	adds	r0, #1
	str	r0, [sp, #20]
	ldr	r0, [sp, #20]
	ldrb	r0, [r0]
	ldr	r1, [sp, #24]
	strb	r0, [r1]
	ldr	r0, [sp, #24]
	adds	r0, #1
	str	r0, [sp, #24]
	ldr	r0, [sp, #20]
	adds	r0, #1
	str	r0, [sp, #20]
	.loc	2 595 13                        @ lvgl/src/lv_misc/lv_mem.c:595:13
	ldr	r0, [sp, #20]
	ldrb	r0, [r0]
	ldr	r1, [sp, #24]
	strb	r0, [r1]
	ldr	r0, [sp, #24]
	adds	r0, #1
	str	r0, [sp, #24]
	ldr	r0, [sp, #20]
	adds	r0, #1
	str	r0, [sp, #20]
	ldr	r0, [sp, #20]
	ldrb	r0, [r0]
	ldr	r1, [sp, #24]
	strb	r0, [r1]
	ldr	r0, [sp, #24]
	adds	r0, #1
	str	r0, [sp, #24]
	ldr	r0, [sp, #20]
	adds	r0, #1
	str	r0, [sp, #20]
	ldr	r0, [sp, #20]
	ldrb	r0, [r0]
	ldr	r1, [sp, #24]
	strb	r0, [r1]
	ldr	r0, [sp, #24]
	adds	r0, #1
	str	r0, [sp, #24]
	ldr	r0, [sp, #20]
	adds	r0, #1
	str	r0, [sp, #20]
	ldr	r0, [sp, #20]
	ldrb	r0, [r0]
	ldr	r1, [sp, #24]
	strb	r0, [r1]
	ldr	r0, [sp, #24]
	adds	r0, #1
	str	r0, [sp, #24]
	ldr	r0, [sp, #20]
	adds	r0, #1
	str	r0, [sp, #20]
	ldr	r0, [sp, #20]
	ldrb	r0, [r0]
	ldr	r1, [sp, #24]
	strb	r0, [r1]
	ldr	r0, [sp, #24]
	adds	r0, #1
	str	r0, [sp, #24]
	ldr	r0, [sp, #20]
	adds	r0, #1
	str	r0, [sp, #20]
	ldr	r0, [sp, #20]
	ldrb	r0, [r0]
	ldr	r1, [sp, #24]
	strb	r0, [r1]
	ldr	r0, [sp, #24]
	adds	r0, #1
	str	r0, [sp, #24]
	ldr	r0, [sp, #20]
	adds	r0, #1
	str	r0, [sp, #20]
	ldr	r0, [sp, #20]
	ldrb	r0, [r0]
	ldr	r1, [sp, #24]
	strb	r0, [r1]
	ldr	r0, [sp, #24]
	adds	r0, #1
	str	r0, [sp, #24]
	ldr	r0, [sp, #20]
	adds	r0, #1
	str	r0, [sp, #20]
	ldr	r0, [sp, #20]
	ldrb	r0, [r0]
	ldr	r1, [sp, #24]
	strb	r0, [r1]
	ldr	r0, [sp, #24]
	adds	r0, #1
	str	r0, [sp, #24]
	ldr	r0, [sp, #20]
	adds	r0, #1
	str	r0, [sp, #20]
	.loc	2 596 13                        @ lvgl/src/lv_misc/lv_mem.c:596:13
	ldr	r0, [sp, #20]
	ldrb	r0, [r0]
	ldr	r1, [sp, #24]
	strb	r0, [r1]
	ldr	r0, [sp, #24]
	adds	r0, #1
	str	r0, [sp, #24]
	ldr	r0, [sp, #20]
	adds	r0, #1
	str	r0, [sp, #20]
	ldr	r0, [sp, #20]
	ldrb	r0, [r0]
	ldr	r1, [sp, #24]
	strb	r0, [r1]
	ldr	r0, [sp, #24]
	adds	r0, #1
	str	r0, [sp, #24]
	ldr	r0, [sp, #20]
	adds	r0, #1
	str	r0, [sp, #20]
	ldr	r0, [sp, #20]
	ldrb	r0, [r0]
	ldr	r1, [sp, #24]
	strb	r0, [r1]
	ldr	r0, [sp, #24]
	adds	r0, #1
	str	r0, [sp, #24]
	ldr	r0, [sp, #20]
	adds	r0, #1
	str	r0, [sp, #20]
	ldr	r0, [sp, #20]
	ldrb	r0, [r0]
	ldr	r1, [sp, #24]
	strb	r0, [r1]
	ldr	r0, [sp, #24]
	adds	r0, #1
	str	r0, [sp, #24]
	ldr	r0, [sp, #20]
	adds	r0, #1
	str	r0, [sp, #20]
	ldr	r0, [sp, #20]
	ldrb	r0, [r0]
	ldr	r1, [sp, #24]
	strb	r0, [r1]
	ldr	r0, [sp, #24]
	adds	r0, #1
	str	r0, [sp, #24]
	ldr	r0, [sp, #20]
	adds	r0, #1
	str	r0, [sp, #20]
	ldr	r0, [sp, #20]
	ldrb	r0, [r0]
	ldr	r1, [sp, #24]
	strb	r0, [r1]
	ldr	r0, [sp, #24]
	adds	r0, #1
	str	r0, [sp, #24]
	ldr	r0, [sp, #20]
	adds	r0, #1
	str	r0, [sp, #20]
	ldr	r0, [sp, #20]
	ldrb	r0, [r0]
	ldr	r1, [sp, #24]
	strb	r0, [r1]
	ldr	r0, [sp, #24]
	adds	r0, #1
	str	r0, [sp, #24]
	ldr	r0, [sp, #20]
	adds	r0, #1
	str	r0, [sp, #20]
	ldr	r0, [sp, #20]
	ldrb	r0, [r0]
	ldr	r1, [sp, #24]
	strb	r0, [r1]
	ldr	r0, [sp, #24]
	adds	r0, #1
	str	r0, [sp, #24]
	ldr	r0, [sp, #20]
	adds	r0, #1
	str	r0, [sp, #20]
	.loc	2 597 17                        @ lvgl/src/lv_misc/lv_mem.c:597:17
	ldr	r0, [sp, #28]
	subs	r0, #32
	str	r0, [sp, #28]
.Ltmp60:
	.loc	2 592 9                         @ lvgl/src/lv_misc/lv_mem.c:592:9
	b	.LBB6_2
.LBB6_4:
	.loc	2 599 9                         @ lvgl/src/lv_misc/lv_mem.c:599:9
	b	.LBB6_5
.LBB6_5:                                @ =>This Inner Loop Header: Depth=1
	.loc	2 599 15 is_stmt 0              @ lvgl/src/lv_misc/lv_mem.c:599:15
	ldr	r0, [sp, #28]
	.loc	2 599 9                         @ lvgl/src/lv_misc/lv_mem.c:599:9
	cbz	r0, .LBB6_7
	b	.LBB6_6
.LBB6_6:                                @   in Loop: Header=BB6_5 Depth=1
.Ltmp61:
	.loc	2 600 13 is_stmt 1              @ lvgl/src/lv_misc/lv_mem.c:600:13
	ldr	r0, [sp, #20]
	ldrb	r0, [r0]
	ldr	r1, [sp, #24]
	strb	r0, [r1]
	ldr	r0, [sp, #24]
	adds	r0, #1
	str	r0, [sp, #24]
	ldr	r0, [sp, #20]
	adds	r0, #1
	str	r0, [sp, #20]
	.loc	2 601 16                        @ lvgl/src/lv_misc/lv_mem.c:601:16
	ldr	r0, [sp, #28]
	subs	r0, #1
	str	r0, [sp, #28]
.Ltmp62:
	.loc	2 599 9                         @ lvgl/src/lv_misc/lv_mem.c:599:9
	b	.LBB6_5
.LBB6_7:
	.loc	2 603 16                        @ lvgl/src/lv_misc/lv_mem.c:603:16
	ldr	r0, [sp, #36]
	.loc	2 603 9 is_stmt 0               @ lvgl/src/lv_misc/lv_mem.c:603:9
	str	r0, [sp, #40]
	b	.LBB6_25
.Ltmp63:
.LBB6_8:
	.loc	2 607 8 is_stmt 1               @ lvgl/src/lv_misc/lv_mem.c:607:8
	ldr	r0, [sp, #16]
.Ltmp64:
	.loc	2 607 8 is_stmt 0               @ lvgl/src/lv_misc/lv_mem.c:607:8
	cbz	r0, .LBB6_15
	b	.LBB6_9
.LBB6_9:
.Ltmp65:
	.loc	2 608 36 is_stmt 1              @ lvgl/src/lv_misc/lv_mem.c:608:36
	ldr	r0, [sp, #16]
	.loc	2 608 34 is_stmt 0              @ lvgl/src/lv_misc/lv_mem.c:608:34
	rsb.w	r0, r0, #4
	.loc	2 608 17                        @ lvgl/src/lv_misc/lv_mem.c:608:17
	str	r0, [sp, #16]
	.loc	2 609 9 is_stmt 1               @ lvgl/src/lv_misc/lv_mem.c:609:9
	b	.LBB6_10
.LBB6_10:                               @ =>This Inner Loop Header: Depth=1
	.loc	2 609 15 is_stmt 0              @ lvgl/src/lv_misc/lv_mem.c:609:15
	ldr	r1, [sp, #16]
	movs	r0, #0
	.loc	2 609 23                        @ lvgl/src/lv_misc/lv_mem.c:609:23
	str	r0, [sp]                        @ 4-byte Spill
	cbz	r1, .LBB6_12
	b	.LBB6_11
.LBB6_11:                               @   in Loop: Header=BB6_10 Depth=1
	.loc	2 609 26                        @ lvgl/src/lv_misc/lv_mem.c:609:26
	ldr	r0, [sp, #28]
	.loc	2 609 23                        @ lvgl/src/lv_misc/lv_mem.c:609:23
	cmp	r0, #0
	it	ne
	movne	r0, #1
	str	r0, [sp]                        @ 4-byte Spill
	b	.LBB6_12
.LBB6_12:                               @   in Loop: Header=BB6_10 Depth=1
	.loc	2 0 0                           @ lvgl/src/lv_misc/lv_mem.c:0:0
	ldr	r0, [sp]                        @ 4-byte Reload
	.loc	2 609 9                         @ lvgl/src/lv_misc/lv_mem.c:609:9
	lsls	r0, r0, #31
	cbz	r0, .LBB6_14
	b	.LBB6_13
.LBB6_13:                               @   in Loop: Header=BB6_10 Depth=1
.Ltmp66:
	.loc	2 610 13 is_stmt 1              @ lvgl/src/lv_misc/lv_mem.c:610:13
	ldr	r0, [sp, #20]
	ldrb	r0, [r0]
	ldr	r1, [sp, #24]
	strb	r0, [r1]
	ldr	r0, [sp, #24]
	adds	r0, #1
	str	r0, [sp, #24]
	ldr	r0, [sp, #20]
	adds	r0, #1
	str	r0, [sp, #20]
	.loc	2 611 20                        @ lvgl/src/lv_misc/lv_mem.c:611:20
	ldr	r0, [sp, #16]
	subs	r0, #1
	str	r0, [sp, #16]
	.loc	2 612 16                        @ lvgl/src/lv_misc/lv_mem.c:612:16
	ldr	r0, [sp, #28]
	subs	r0, #1
	str	r0, [sp, #28]
.Ltmp67:
	.loc	2 609 9                         @ lvgl/src/lv_misc/lv_mem.c:609:9
	b	.LBB6_10
.LBB6_14:
	.loc	2 614 5                         @ lvgl/src/lv_misc/lv_mem.c:614:5
	b	.LBB6_15
.Ltmp68:
.LBB6_15:
	.loc	2 616 34                        @ lvgl/src/lv_misc/lv_mem.c:616:34
	ldr	r0, [sp, #24]
	.loc	2 616 16 is_stmt 0              @ lvgl/src/lv_misc/lv_mem.c:616:16
	str	r0, [sp, #8]
	.loc	2 617 40 is_stmt 1              @ lvgl/src/lv_misc/lv_mem.c:617:40
	ldr	r0, [sp, #20]
	.loc	2 617 22 is_stmt 0              @ lvgl/src/lv_misc/lv_mem.c:617:22
	str	r0, [sp, #4]
	.loc	2 618 5 is_stmt 1               @ lvgl/src/lv_misc/lv_mem.c:618:5
	b	.LBB6_16
.LBB6_16:                               @ =>This Inner Loop Header: Depth=1
	.loc	2 618 11 is_stmt 0              @ lvgl/src/lv_misc/lv_mem.c:618:11
	ldr	r0, [sp, #28]
	.loc	2 618 5                         @ lvgl/src/lv_misc/lv_mem.c:618:5
	cmp	r0, #33
	blo	.LBB6_18
	b	.LBB6_17
.LBB6_17:                               @   in Loop: Header=BB6_16 Depth=1
.Ltmp69:
	.loc	2 619 9 is_stmt 1               @ lvgl/src/lv_misc/lv_mem.c:619:9
	ldr	r0, [sp, #4]
	ldr	r0, [r0]
	ldr	r1, [sp, #8]
	str	r0, [r1]
	ldr	r0, [sp, #8]
	adds	r0, #4
	str	r0, [sp, #8]
	ldr	r0, [sp, #4]
	adds	r0, #4
	str	r0, [sp, #4]
	ldr	r0, [sp, #4]
	ldr	r0, [r0]
	ldr	r1, [sp, #8]
	str	r0, [r1]
	ldr	r0, [sp, #8]
	adds	r0, #4
	str	r0, [sp, #8]
	ldr	r0, [sp, #4]
	adds	r0, #4
	str	r0, [sp, #4]
	ldr	r0, [sp, #4]
	ldr	r0, [r0]
	ldr	r1, [sp, #8]
	str	r0, [r1]
	ldr	r0, [sp, #8]
	adds	r0, #4
	str	r0, [sp, #8]
	ldr	r0, [sp, #4]
	adds	r0, #4
	str	r0, [sp, #4]
	ldr	r0, [sp, #4]
	ldr	r0, [r0]
	ldr	r1, [sp, #8]
	str	r0, [r1]
	ldr	r0, [sp, #8]
	adds	r0, #4
	str	r0, [sp, #8]
	ldr	r0, [sp, #4]
	adds	r0, #4
	str	r0, [sp, #4]
	ldr	r0, [sp, #4]
	ldr	r0, [r0]
	ldr	r1, [sp, #8]
	str	r0, [r1]
	ldr	r0, [sp, #8]
	adds	r0, #4
	str	r0, [sp, #8]
	ldr	r0, [sp, #4]
	adds	r0, #4
	str	r0, [sp, #4]
	ldr	r0, [sp, #4]
	ldr	r0, [r0]
	ldr	r1, [sp, #8]
	str	r0, [r1]
	ldr	r0, [sp, #8]
	adds	r0, #4
	str	r0, [sp, #8]
	ldr	r0, [sp, #4]
	adds	r0, #4
	str	r0, [sp, #4]
	ldr	r0, [sp, #4]
	ldr	r0, [r0]
	ldr	r1, [sp, #8]
	str	r0, [r1]
	ldr	r0, [sp, #8]
	adds	r0, #4
	str	r0, [sp, #8]
	ldr	r0, [sp, #4]
	adds	r0, #4
	str	r0, [sp, #4]
	ldr	r0, [sp, #4]
	ldr	r0, [r0]
	ldr	r1, [sp, #8]
	str	r0, [r1]
	ldr	r0, [sp, #8]
	adds	r0, #4
	str	r0, [sp, #8]
	ldr	r0, [sp, #4]
	adds	r0, #4
	str	r0, [sp, #4]
	.loc	2 620 13                        @ lvgl/src/lv_misc/lv_mem.c:620:13
	ldr	r0, [sp, #28]
	subs	r0, #32
	str	r0, [sp, #28]
.Ltmp70:
	.loc	2 618 5                         @ lvgl/src/lv_misc/lv_mem.c:618:5
	b	.LBB6_16
.LBB6_18:
	.loc	2 623 5                         @ lvgl/src/lv_misc/lv_mem.c:623:5
	b	.LBB6_19
.LBB6_19:                               @ =>This Inner Loop Header: Depth=1
	.loc	2 623 11 is_stmt 0              @ lvgl/src/lv_misc/lv_mem.c:623:11
	ldr	r0, [sp, #28]
	.loc	2 623 5                         @ lvgl/src/lv_misc/lv_mem.c:623:5
	cmp	r0, #5
	blo	.LBB6_21
	b	.LBB6_20
.LBB6_20:                               @   in Loop: Header=BB6_19 Depth=1
.Ltmp71:
	.loc	2 624 9 is_stmt 1               @ lvgl/src/lv_misc/lv_mem.c:624:9
	ldr	r0, [sp, #4]
	ldr	r0, [r0]
	ldr	r1, [sp, #8]
	str	r0, [r1]
	ldr	r0, [sp, #8]
	adds	r0, #4
	str	r0, [sp, #8]
	ldr	r0, [sp, #4]
	adds	r0, #4
	str	r0, [sp, #4]
	.loc	2 625 13                        @ lvgl/src/lv_misc/lv_mem.c:625:13
	ldr	r0, [sp, #28]
	subs	r0, #4
	str	r0, [sp, #28]
.Ltmp72:
	.loc	2 623 5                         @ lvgl/src/lv_misc/lv_mem.c:623:5
	b	.LBB6_19
.LBB6_21:
	.loc	2 628 21                        @ lvgl/src/lv_misc/lv_mem.c:628:21
	ldr	r0, [sp, #8]
	.loc	2 628 8 is_stmt 0               @ lvgl/src/lv_misc/lv_mem.c:628:8
	str	r0, [sp, #24]
	.loc	2 629 27 is_stmt 1              @ lvgl/src/lv_misc/lv_mem.c:629:27
	ldr	r0, [sp, #4]
	.loc	2 629 8 is_stmt 0               @ lvgl/src/lv_misc/lv_mem.c:629:8
	str	r0, [sp, #20]
	.loc	2 630 5 is_stmt 1               @ lvgl/src/lv_misc/lv_mem.c:630:5
	b	.LBB6_22
.LBB6_22:                               @ =>This Inner Loop Header: Depth=1
	.loc	2 630 11 is_stmt 0              @ lvgl/src/lv_misc/lv_mem.c:630:11
	ldr	r0, [sp, #28]
	.loc	2 630 5                         @ lvgl/src/lv_misc/lv_mem.c:630:5
	cbz	r0, .LBB6_24
	b	.LBB6_23
.LBB6_23:                               @   in Loop: Header=BB6_22 Depth=1
.Ltmp73:
	.loc	2 631 9 is_stmt 1               @ lvgl/src/lv_misc/lv_mem.c:631:9
	ldr	r0, [sp, #20]
	ldrb	r0, [r0]
	ldr	r1, [sp, #24]
	strb	r0, [r1]
	ldr	r0, [sp, #24]
	adds	r0, #1
	str	r0, [sp, #24]
	ldr	r0, [sp, #20]
	adds	r0, #1
	str	r0, [sp, #20]
	.loc	2 632 12                        @ lvgl/src/lv_misc/lv_mem.c:632:12
	ldr	r0, [sp, #28]
	subs	r0, #1
	str	r0, [sp, #28]
.Ltmp74:
	.loc	2 630 5                         @ lvgl/src/lv_misc/lv_mem.c:630:5
	b	.LBB6_22
.LBB6_24:
	.loc	2 635 12                        @ lvgl/src/lv_misc/lv_mem.c:635:12
	ldr	r0, [sp, #36]
	.loc	2 635 5 is_stmt 0               @ lvgl/src/lv_misc/lv_mem.c:635:5
	str	r0, [sp, #40]
	b	.LBB6_25
.LBB6_25:
	.loc	2 636 1 is_stmt 1               @ lvgl/src/lv_misc/lv_mem.c:636:1
	ldr	r0, [sp, #40]
	add	sp, #44
	bx	lr
.Ltmp75:
.Lfunc_end6:
	.size	_lv_memcpy, .Lfunc_end6-_lv_memcpy
	.cfi_endproc
	.cantunwind
	.fnend
                                        @ -- End function
	.section	.text.lv_mem_defrag,"ax",%progbits
	.hidden	lv_mem_defrag                   @ -- Begin function lv_mem_defrag
	.globl	lv_mem_defrag
	.p2align	3
	.type	lv_mem_defrag,%function
	.code	16                              @ @lv_mem_defrag
	.thumb_func
lv_mem_defrag:
.Lfunc_begin7:
	.loc	2 340 0                         @ lvgl/src/lv_misc/lv_mem.c:340:0
	.fnstart
	.cfi_startproc
@ %bb.0:
	.loc	2 378 1 prologue_end            @ lvgl/src/lv_misc/lv_mem.c:378:1
	bx	lr
.Ltmp76:
.Lfunc_end7:
	.size	lv_mem_defrag, .Lfunc_end7-lv_mem_defrag
	.cfi_endproc
	.cantunwind
	.fnend
                                        @ -- End function
	.section	.text.lv_mem_test,"ax",%progbits
	.hidden	lv_mem_test                     @ -- Begin function lv_mem_test
	.globl	lv_mem_test
	.p2align	3
	.type	lv_mem_test,%function
	.code	16                              @ @lv_mem_test
	.thumb_func
lv_mem_test:
.Lfunc_begin8:
	.loc	2 381 0                         @ lvgl/src/lv_misc/lv_mem.c:381:0
	.fnstart
	.cfi_startproc
@ %bb.0:
	movs	r0, #1
.Ltmp77:
	.loc	2 396 5 prologue_end            @ lvgl/src/lv_misc/lv_mem.c:396:5
	bx	lr
.Ltmp78:
.Lfunc_end8:
	.size	lv_mem_test, .Lfunc_end8-lv_mem_test
	.cfi_endproc
	.cantunwind
	.fnend
                                        @ -- End function
	.section	.text.lv_mem_monitor,"ax",%progbits
	.hidden	lv_mem_monitor                  @ -- Begin function lv_mem_monitor
	.globl	lv_mem_monitor
	.p2align	3
	.type	lv_mem_monitor,%function
	.code	16                              @ @lv_mem_monitor
	.thumb_func
lv_mem_monitor:
.Lfunc_begin9:
	.loc	2 405 0                         @ lvgl/src/lv_misc/lv_mem.c:405:0
	.fnstart
	.cfi_startproc
@ %bb.0:
	.save	{r7, lr}
	push	{r7, lr}
	.cfi_def_cfa_offset 8
	.cfi_offset lr, -4
	.cfi_offset r7, -8
	.pad	#8
	sub	sp, #8
	.cfi_def_cfa_offset 16
	str	r0, [sp, #4]
.Ltmp79:
	.loc	2 407 16 prologue_end           @ lvgl/src/lv_misc/lv_mem.c:407:16
	ldr	r0, [sp, #4]
	movs	r1, #0
	movs	r2, #28
	.loc	2 407 5 is_stmt 0               @ lvgl/src/lv_misc/lv_mem.c:407:5
	bl	_lv_memset
	.loc	2 438 1 is_stmt 1               @ lvgl/src/lv_misc/lv_mem.c:438:1
	add	sp, #8
	pop	{r7, pc}
.Ltmp80:
.Lfunc_end9:
	.size	lv_mem_monitor, .Lfunc_end9-lv_mem_monitor
	.cfi_endproc
	.cantunwind
	.fnend
                                        @ -- End function
	.section	.text._lv_memset,"ax",%progbits
	.hidden	_lv_memset                      @ -- Begin function _lv_memset
	.globl	_lv_memset
	.p2align	3
	.type	_lv_memset,%function
	.code	16                              @ @_lv_memset
	.thumb_func
_lv_memset:
.Lfunc_begin10:
	.loc	2 645 0                         @ lvgl/src/lv_misc/lv_mem.c:645:0
	.fnstart
	.cfi_startproc
@ %bb.0:
	.pad	#32
	sub	sp, #32
	.cfi_def_cfa_offset 32
                                        @ kill: def $r3 killed $r1
	str	r0, [sp, #28]
	strb.w	r1, [sp, #27]
	str	r2, [sp, #20]
.Ltmp81:
	.loc	2 647 32 prologue_end           @ lvgl/src/lv_misc/lv_mem.c:647:32
	ldr	r0, [sp, #28]
	.loc	2 647 15 is_stmt 0              @ lvgl/src/lv_misc/lv_mem.c:647:15
	str	r0, [sp, #16]
	.loc	2 649 40 is_stmt 1              @ lvgl/src/lv_misc/lv_mem.c:649:40
	ldr	r0, [sp, #16]
	.loc	2 649 43 is_stmt 0              @ lvgl/src/lv_misc/lv_mem.c:649:43
	and	r0, r0, #3
	.loc	2 649 15                        @ lvgl/src/lv_misc/lv_mem.c:649:15
	str	r0, [sp, #12]
.Ltmp82:
	.loc	2 652 8 is_stmt 1               @ lvgl/src/lv_misc/lv_mem.c:652:8
	ldr	r0, [sp, #12]
.Ltmp83:
	.loc	2 652 8 is_stmt 0               @ lvgl/src/lv_misc/lv_mem.c:652:8
	cbz	r0, .LBB10_7
	b	.LBB10_1
.LBB10_1:
.Ltmp84:
	.loc	2 653 36 is_stmt 1              @ lvgl/src/lv_misc/lv_mem.c:653:36
	ldr	r0, [sp, #12]
	.loc	2 653 34 is_stmt 0              @ lvgl/src/lv_misc/lv_mem.c:653:34
	rsb.w	r0, r0, #4
	.loc	2 653 17                        @ lvgl/src/lv_misc/lv_mem.c:653:17
	str	r0, [sp, #12]
	.loc	2 654 9 is_stmt 1               @ lvgl/src/lv_misc/lv_mem.c:654:9
	b	.LBB10_2
.LBB10_2:                               @ =>This Inner Loop Header: Depth=1
	.loc	2 654 15 is_stmt 0              @ lvgl/src/lv_misc/lv_mem.c:654:15
	ldr	r1, [sp, #12]
	movs	r0, #0
	.loc	2 654 23                        @ lvgl/src/lv_misc/lv_mem.c:654:23
	str	r0, [sp]                        @ 4-byte Spill
	cbz	r1, .LBB10_4
	b	.LBB10_3
.LBB10_3:                               @   in Loop: Header=BB10_2 Depth=1
	.loc	2 654 26                        @ lvgl/src/lv_misc/lv_mem.c:654:26
	ldr	r0, [sp, #20]
	.loc	2 654 23                        @ lvgl/src/lv_misc/lv_mem.c:654:23
	cmp	r0, #0
	it	ne
	movne	r0, #1
	str	r0, [sp]                        @ 4-byte Spill
	b	.LBB10_4
.LBB10_4:                               @   in Loop: Header=BB10_2 Depth=1
	.loc	2 0 0                           @ lvgl/src/lv_misc/lv_mem.c:0:0
	ldr	r0, [sp]                        @ 4-byte Reload
	.loc	2 654 9                         @ lvgl/src/lv_misc/lv_mem.c:654:9
	lsls	r0, r0, #31
	cbz	r0, .LBB10_6
	b	.LBB10_5
.LBB10_5:                               @   in Loop: Header=BB10_2 Depth=1
.Ltmp85:
	.loc	2 655 13 is_stmt 1              @ lvgl/src/lv_misc/lv_mem.c:655:13
	ldrb.w	r0, [sp, #27]
	ldr	r1, [sp, #16]
	strb	r0, [r1]
	ldr	r0, [sp, #16]
	adds	r0, #1
	str	r0, [sp, #16]
	.loc	2 656 16                        @ lvgl/src/lv_misc/lv_mem.c:656:16
	ldr	r0, [sp, #20]
	subs	r0, #1
	str	r0, [sp, #20]
	.loc	2 657 20                        @ lvgl/src/lv_misc/lv_mem.c:657:20
	ldr	r0, [sp, #12]
	subs	r0, #1
	str	r0, [sp, #12]
.Ltmp86:
	.loc	2 654 9                         @ lvgl/src/lv_misc/lv_mem.c:654:9
	b	.LBB10_2
.LBB10_6:
	.loc	2 659 5                         @ lvgl/src/lv_misc/lv_mem.c:659:5
	b	.LBB10_7
.Ltmp87:
.LBB10_7:
	.loc	2 661 20                        @ lvgl/src/lv_misc/lv_mem.c:661:20
	ldrb.w	r1, [sp, #27]
	.loc	2 661 22 is_stmt 0              @ lvgl/src/lv_misc/lv_mem.c:661:22
	orr.w	r0, r1, r1, lsl #8
	.loc	2 661 33                        @ lvgl/src/lv_misc/lv_mem.c:661:33
	orr.w	r0, r0, r1, lsl #16
	.loc	2 661 45                        @ lvgl/src/lv_misc/lv_mem.c:661:45
	orr.w	r0, r0, r1, lsl #24
	.loc	2 661 14                        @ lvgl/src/lv_misc/lv_mem.c:661:14
	str	r0, [sp, #8]
	.loc	2 663 34 is_stmt 1              @ lvgl/src/lv_misc/lv_mem.c:663:34
	ldr	r0, [sp, #16]
	.loc	2 663 16 is_stmt 0              @ lvgl/src/lv_misc/lv_mem.c:663:16
	str	r0, [sp, #4]
	.loc	2 665 5 is_stmt 1               @ lvgl/src/lv_misc/lv_mem.c:665:5
	b	.LBB10_8
.LBB10_8:                               @ =>This Inner Loop Header: Depth=1
	.loc	2 665 11 is_stmt 0              @ lvgl/src/lv_misc/lv_mem.c:665:11
	ldr	r0, [sp, #20]
	.loc	2 665 5                         @ lvgl/src/lv_misc/lv_mem.c:665:5
	cmp	r0, #33
	blo	.LBB10_10
	b	.LBB10_9
.LBB10_9:                               @   in Loop: Header=BB10_8 Depth=1
.Ltmp88:
	.loc	2 666 9 is_stmt 1               @ lvgl/src/lv_misc/lv_mem.c:666:9
	ldr	r0, [sp, #8]
	ldr	r1, [sp, #4]
	str	r0, [r1]
	ldr	r0, [sp, #4]
	adds	r0, #4
	str	r0, [sp, #4]
	ldr	r0, [sp, #8]
	ldr	r1, [sp, #4]
	str	r0, [r1]
	ldr	r0, [sp, #4]
	adds	r0, #4
	str	r0, [sp, #4]
	ldr	r0, [sp, #8]
	ldr	r1, [sp, #4]
	str	r0, [r1]
	ldr	r0, [sp, #4]
	adds	r0, #4
	str	r0, [sp, #4]
	ldr	r0, [sp, #8]
	ldr	r1, [sp, #4]
	str	r0, [r1]
	ldr	r0, [sp, #4]
	adds	r0, #4
	str	r0, [sp, #4]
	ldr	r0, [sp, #8]
	ldr	r1, [sp, #4]
	str	r0, [r1]
	ldr	r0, [sp, #4]
	adds	r0, #4
	str	r0, [sp, #4]
	ldr	r0, [sp, #8]
	ldr	r1, [sp, #4]
	str	r0, [r1]
	ldr	r0, [sp, #4]
	adds	r0, #4
	str	r0, [sp, #4]
	ldr	r0, [sp, #8]
	ldr	r1, [sp, #4]
	str	r0, [r1]
	ldr	r0, [sp, #4]
	adds	r0, #4
	str	r0, [sp, #4]
	ldr	r0, [sp, #8]
	ldr	r1, [sp, #4]
	str	r0, [r1]
	ldr	r0, [sp, #4]
	adds	r0, #4
	str	r0, [sp, #4]
	.loc	2 667 13                        @ lvgl/src/lv_misc/lv_mem.c:667:13
	ldr	r0, [sp, #20]
	subs	r0, #32
	str	r0, [sp, #20]
.Ltmp89:
	.loc	2 665 5                         @ lvgl/src/lv_misc/lv_mem.c:665:5
	b	.LBB10_8
.LBB10_10:
	.loc	2 670 5                         @ lvgl/src/lv_misc/lv_mem.c:670:5
	b	.LBB10_11
.LBB10_11:                              @ =>This Inner Loop Header: Depth=1
	.loc	2 670 11 is_stmt 0              @ lvgl/src/lv_misc/lv_mem.c:670:11
	ldr	r0, [sp, #20]
	.loc	2 670 5                         @ lvgl/src/lv_misc/lv_mem.c:670:5
	cmp	r0, #5
	blo	.LBB10_13
	b	.LBB10_12
.LBB10_12:                              @   in Loop: Header=BB10_11 Depth=1
.Ltmp90:
	.loc	2 671 9 is_stmt 1               @ lvgl/src/lv_misc/lv_mem.c:671:9
	ldr	r0, [sp, #8]
	ldr	r1, [sp, #4]
	str	r0, [r1]
	ldr	r0, [sp, #4]
	adds	r0, #4
	str	r0, [sp, #4]
	.loc	2 672 13                        @ lvgl/src/lv_misc/lv_mem.c:672:13
	ldr	r0, [sp, #20]
	subs	r0, #4
	str	r0, [sp, #20]
.Ltmp91:
	.loc	2 670 5                         @ lvgl/src/lv_misc/lv_mem.c:670:5
	b	.LBB10_11
.LBB10_13:
	.loc	2 675 21                        @ lvgl/src/lv_misc/lv_mem.c:675:21
	ldr	r0, [sp, #4]
	.loc	2 675 8 is_stmt 0               @ lvgl/src/lv_misc/lv_mem.c:675:8
	str	r0, [sp, #16]
	.loc	2 676 5 is_stmt 1               @ lvgl/src/lv_misc/lv_mem.c:676:5
	b	.LBB10_14
.LBB10_14:                              @ =>This Inner Loop Header: Depth=1
	.loc	2 676 11 is_stmt 0              @ lvgl/src/lv_misc/lv_mem.c:676:11
	ldr	r0, [sp, #20]
	.loc	2 676 5                         @ lvgl/src/lv_misc/lv_mem.c:676:5
	cbz	r0, .LBB10_16
	b	.LBB10_15
.LBB10_15:                              @   in Loop: Header=BB10_14 Depth=1
.Ltmp92:
	.loc	2 677 9 is_stmt 1               @ lvgl/src/lv_misc/lv_mem.c:677:9
	ldrb.w	r0, [sp, #27]
	ldr	r1, [sp, #16]
	strb	r0, [r1]
	ldr	r0, [sp, #16]
	adds	r0, #1
	str	r0, [sp, #16]
	.loc	2 678 12                        @ lvgl/src/lv_misc/lv_mem.c:678:12
	ldr	r0, [sp, #20]
	subs	r0, #1
	str	r0, [sp, #20]
.Ltmp93:
	.loc	2 676 5                         @ lvgl/src/lv_misc/lv_mem.c:676:5
	b	.LBB10_14
.LBB10_16:
	.loc	2 680 1                         @ lvgl/src/lv_misc/lv_mem.c:680:1
	add	sp, #32
	bx	lr
.Ltmp94:
.Lfunc_end10:
	.size	_lv_memset, .Lfunc_end10-_lv_memset
	.cfi_endproc
	.cantunwind
	.fnend
                                        @ -- End function
	.section	.text._lv_mem_buf_get,"ax",%progbits
	.hidden	_lv_mem_buf_get                 @ -- Begin function _lv_mem_buf_get
	.globl	_lv_mem_buf_get
	.p2align	3
	.type	_lv_mem_buf_get,%function
	.code	16                              @ @_lv_mem_buf_get
	.thumb_func
_lv_mem_buf_get:
.Lfunc_begin11:
	.loc	2 472 0                         @ lvgl/src/lv_misc/lv_mem.c:472:0
	.fnstart
	.cfi_startproc
@ %bb.0:
	.save	{r7, lr}
	push	{r7, lr}
	.cfi_def_cfa_offset 8
	.cfi_offset lr, -4
	.cfi_offset r7, -8
	.pad	#16
	sub	sp, #16
	.cfi_def_cfa_offset 24
	str	r0, [sp, #8]
.Ltmp95:
	.loc	2 473 8 prologue_end            @ lvgl/src/lv_misc/lv_mem.c:473:8
	ldr	r0, [sp, #8]
.Ltmp96:
	.loc	2 473 8 is_stmt 0               @ lvgl/src/lv_misc/lv_mem.c:473:8
	cbnz	r0, .LBB11_2
	b	.LBB11_1
.LBB11_1:
	.loc	2 0 8                           @ lvgl/src/lv_misc/lv_mem.c:0:8
	movs	r0, #0
.Ltmp97:
	.loc	2 473 19                        @ lvgl/src/lv_misc/lv_mem.c:473:19
	str	r0, [sp, #12]
	b	.LBB11_40
.Ltmp98:
.LBB11_2:
	.loc	2 477 8 is_stmt 1               @ lvgl/src/lv_misc/lv_mem.c:477:8
	ldr	r0, [sp, #8]
.Ltmp99:
	.loc	2 477 8 is_stmt 0               @ lvgl/src/lv_misc/lv_mem.c:477:8
	cmp	r0, #16
	bhi	.LBB11_10
	b	.LBB11_3
.LBB11_3:
	.loc	2 0 8                           @ lvgl/src/lv_misc/lv_mem.c:0:8
	movs	r0, #0
.Ltmp100:
	.loc	2 478 15 is_stmt 1              @ lvgl/src/lv_misc/lv_mem.c:478:15
	strb.w	r0, [sp, #7]
	.loc	2 478 13 is_stmt 0              @ lvgl/src/lv_misc/lv_mem.c:478:13
	b	.LBB11_4
.LBB11_4:                               @ =>This Inner Loop Header: Depth=1
.Ltmp101:
	.loc	2 478 20                        @ lvgl/src/lv_misc/lv_mem.c:478:20
	ldrb.w	r0, [sp, #7]
.Ltmp102:
	.loc	2 478 9                         @ lvgl/src/lv_misc/lv_mem.c:478:9
	cmp	r0, #1
	bhi	.LBB11_9
	b	.LBB11_5
.LBB11_5:                               @   in Loop: Header=BB11_4 Depth=1
.Ltmp103:
	.loc	2 479 30 is_stmt 1              @ lvgl/src/lv_misc/lv_mem.c:479:30
	ldrb.w	r1, [sp, #7]
	.loc	2 479 16 is_stmt 0              @ lvgl/src/lv_misc/lv_mem.c:479:16
	movw	r0, :lower16:mem_buf_small
	movt	r0, :upper16:mem_buf_small
	add.w	r0, r0, r1, lsl #3
	.loc	2 479 33                        @ lvgl/src/lv_misc/lv_mem.c:479:33
	ldrb	r0, [r0, #6]
.Ltmp104:
	.loc	2 479 16                        @ lvgl/src/lv_misc/lv_mem.c:479:16
	lsls	r0, r0, #31
	cbnz	r0, .LBB11_7
	b	.LBB11_6
.LBB11_6:
.Ltmp105:
	.loc	2 480 31 is_stmt 1              @ lvgl/src/lv_misc/lv_mem.c:480:31
	ldrb.w	r1, [sp, #7]
	.loc	2 480 17 is_stmt 0              @ lvgl/src/lv_misc/lv_mem.c:480:17
	movw	r0, :lower16:mem_buf_small
	movt	r0, :upper16:mem_buf_small
	add.w	r2, r0, r1, lsl #3
	.loc	2 480 39                        @ lvgl/src/lv_misc/lv_mem.c:480:39
	ldrb	r1, [r2, #6]
	orr	r1, r1, #1
	strb	r1, [r2, #6]
	.loc	2 481 38 is_stmt 1              @ lvgl/src/lv_misc/lv_mem.c:481:38
	ldrb.w	r1, [sp, #7]
	.loc	2 481 41 is_stmt 0              @ lvgl/src/lv_misc/lv_mem.c:481:41
	ldr.w	r0, [r0, r1, lsl #3]
	.loc	2 481 17                        @ lvgl/src/lv_misc/lv_mem.c:481:17
	str	r0, [sp, #12]
	b	.LBB11_40
.Ltmp106:
.LBB11_7:                               @   in Loop: Header=BB11_4 Depth=1
	.loc	2 483 9 is_stmt 1               @ lvgl/src/lv_misc/lv_mem.c:483:9
	b	.LBB11_8
.Ltmp107:
.LBB11_8:                               @   in Loop: Header=BB11_4 Depth=1
	.loc	2 478 75                        @ lvgl/src/lv_misc/lv_mem.c:478:75
	ldrb.w	r0, [sp, #7]
	adds	r0, #1
	strb.w	r0, [sp, #7]
	.loc	2 478 9 is_stmt 0               @ lvgl/src/lv_misc/lv_mem.c:478:9
	b	.LBB11_4
.Ltmp108:
.LBB11_9:
	.loc	2 484 5 is_stmt 1               @ lvgl/src/lv_misc/lv_mem.c:484:5
	b	.LBB11_10
.Ltmp109:
.LBB11_10:
	.loc	2 0 5 is_stmt 0                 @ lvgl/src/lv_misc/lv_mem.c:0:5
	movs	r0, #255
	.loc	2 487 12 is_stmt 1              @ lvgl/src/lv_misc/lv_mem.c:487:12
	strb.w	r0, [sp, #6]
	movs	r0, #0
.Ltmp110:
	.loc	2 488 11                        @ lvgl/src/lv_misc/lv_mem.c:488:11
	strb.w	r0, [sp, #7]
	.loc	2 488 9 is_stmt 0               @ lvgl/src/lv_misc/lv_mem.c:488:9
	b	.LBB11_11
.LBB11_11:                              @ =>This Inner Loop Header: Depth=1
.Ltmp111:
	.loc	2 488 16                        @ lvgl/src/lv_misc/lv_mem.c:488:16
	ldrb.w	r0, [sp, #7]
.Ltmp112:
	.loc	2 488 5                         @ lvgl/src/lv_misc/lv_mem.c:488:5
	cmp	r0, #15
	bgt	.LBB11_25
	b	.LBB11_12
.LBB11_12:                              @   in Loop: Header=BB11_11 Depth=1
.Ltmp113:
	.loc	2 489 12 is_stmt 1              @ lvgl/src/lv_misc/lv_mem.c:489:12
	ldrb.w	r1, [sp, #7]
	movw	r0, :lower16:_lv_mem_buf
	movt	r0, :upper16:_lv_mem_buf
	add.w	r0, r0, r1, lsl #3
	.loc	2 489 39 is_stmt 0              @ lvgl/src/lv_misc/lv_mem.c:489:39
	ldrb	r0, [r0, #6]
	.loc	2 489 49                        @ lvgl/src/lv_misc/lv_mem.c:489:49
	lsls	r0, r0, #31
	cmp	r0, #0
	bne	.LBB11_23
	b	.LBB11_13
.LBB11_13:                              @   in Loop: Header=BB11_11 Depth=1
	.loc	2 489 52                        @ lvgl/src/lv_misc/lv_mem.c:489:52
	ldrb.w	r1, [sp, #7]
	movw	r0, :lower16:_lv_mem_buf
	movt	r0, :upper16:_lv_mem_buf
	add.w	r0, r0, r1, lsl #3
	.loc	2 489 79                        @ lvgl/src/lv_misc/lv_mem.c:489:79
	ldrh	r0, [r0, #4]
	.loc	2 489 87                        @ lvgl/src/lv_misc/lv_mem.c:489:87
	ldr	r1, [sp, #8]
.Ltmp114:
	.loc	2 489 12                        @ lvgl/src/lv_misc/lv_mem.c:489:12
	cmp	r0, r1
	blo	.LBB11_23
	b	.LBB11_14
.LBB11_14:                              @   in Loop: Header=BB11_11 Depth=1
.Ltmp115:
	.loc	2 490 16 is_stmt 1              @ lvgl/src/lv_misc/lv_mem.c:490:16
	ldrb.w	r1, [sp, #7]
	movw	r0, :lower16:_lv_mem_buf
	movt	r0, :upper16:_lv_mem_buf
	add.w	r0, r0, r1, lsl #3
	.loc	2 490 43 is_stmt 0              @ lvgl/src/lv_misc/lv_mem.c:490:43
	ldrh	r0, [r0, #4]
	.loc	2 490 51                        @ lvgl/src/lv_misc/lv_mem.c:490:51
	ldr	r1, [sp, #8]
.Ltmp116:
	.loc	2 490 16                        @ lvgl/src/lv_misc/lv_mem.c:490:16
	cmp	r0, r1
	bne	.LBB11_16
	b	.LBB11_15
.LBB11_15:
.Ltmp117:
	.loc	2 491 17 is_stmt 1              @ lvgl/src/lv_misc/lv_mem.c:491:17
	ldrb.w	r1, [sp, #7]
	movw	r0, :lower16:_lv_mem_buf
	movt	r0, :upper16:_lv_mem_buf
	add.w	r2, r0, r1, lsl #3
	.loc	2 491 49 is_stmt 0              @ lvgl/src/lv_misc/lv_mem.c:491:49
	ldrb	r1, [r2, #6]
	orr	r1, r1, #1
	strb	r1, [r2, #6]
	.loc	2 492 24 is_stmt 1              @ lvgl/src/lv_misc/lv_mem.c:492:24
	ldrb.w	r1, [sp, #7]
	.loc	2 492 51 is_stmt 0              @ lvgl/src/lv_misc/lv_mem.c:492:51
	ldr.w	r0, [r0, r1, lsl #3]
	.loc	2 492 17                        @ lvgl/src/lv_misc/lv_mem.c:492:17
	str	r0, [sp, #12]
	b	.LBB11_40
.Ltmp118:
.LBB11_16:                              @   in Loop: Header=BB11_11 Depth=1
	.loc	2 494 21 is_stmt 1              @ lvgl/src/lv_misc/lv_mem.c:494:21
	ldrsb.w	r0, [sp, #6]
.Ltmp119:
	.loc	2 494 21 is_stmt 0              @ lvgl/src/lv_misc/lv_mem.c:494:21
	cmp.w	r0, #-1
	bgt	.LBB11_18
	b	.LBB11_17
.LBB11_17:                              @   in Loop: Header=BB11_11 Depth=1
.Ltmp120:
	.loc	2 495 27 is_stmt 1              @ lvgl/src/lv_misc/lv_mem.c:495:27
	ldrb.w	r0, [sp, #7]
	.loc	2 495 25 is_stmt 0              @ lvgl/src/lv_misc/lv_mem.c:495:25
	strb.w	r0, [sp, #6]
	.loc	2 496 13 is_stmt 1              @ lvgl/src/lv_misc/lv_mem.c:496:13
	b	.LBB11_21
.Ltmp121:
.LBB11_18:                              @   in Loop: Header=BB11_11 Depth=1
	.loc	2 498 21                        @ lvgl/src/lv_misc/lv_mem.c:498:21
	ldrb.w	r0, [sp, #7]
	movw	r1, :lower16:_lv_mem_buf
	movt	r1, :upper16:_lv_mem_buf
	add.w	r0, r1, r0, lsl #3
	.loc	2 498 48 is_stmt 0              @ lvgl/src/lv_misc/lv_mem.c:498:48
	ldrh	r0, [r0, #4]
	.loc	2 498 55                        @ lvgl/src/lv_misc/lv_mem.c:498:55
	ldrsb.w	r2, [sp, #6]
	add.w	r1, r1, r2, lsl #3
	.loc	2 498 88                        @ lvgl/src/lv_misc/lv_mem.c:498:88
	ldrh	r1, [r1, #4]
.Ltmp122:
	.loc	2 498 21                        @ lvgl/src/lv_misc/lv_mem.c:498:21
	cmp	r0, r1
	bge	.LBB11_20
	b	.LBB11_19
.LBB11_19:                              @   in Loop: Header=BB11_11 Depth=1
.Ltmp123:
	.loc	2 499 27 is_stmt 1              @ lvgl/src/lv_misc/lv_mem.c:499:27
	ldrb.w	r0, [sp, #7]
	.loc	2 499 25 is_stmt 0              @ lvgl/src/lv_misc/lv_mem.c:499:25
	strb.w	r0, [sp, #6]
	.loc	2 500 13 is_stmt 1              @ lvgl/src/lv_misc/lv_mem.c:500:13
	b	.LBB11_20
.Ltmp124:
.LBB11_20:                              @   in Loop: Header=BB11_11 Depth=1
	.loc	2 0 13 is_stmt 0                @ lvgl/src/lv_misc/lv_mem.c:0:13
	b	.LBB11_21
.LBB11_21:                              @   in Loop: Header=BB11_11 Depth=1
	b	.LBB11_22
.LBB11_22:                              @   in Loop: Header=BB11_11 Depth=1
	.loc	2 501 9 is_stmt 1               @ lvgl/src/lv_misc/lv_mem.c:501:9
	b	.LBB11_23
.Ltmp125:
.LBB11_23:                              @   in Loop: Header=BB11_11 Depth=1
	.loc	2 502 5                         @ lvgl/src/lv_misc/lv_mem.c:502:5
	b	.LBB11_24
.Ltmp126:
.LBB11_24:                              @   in Loop: Header=BB11_11 Depth=1
	.loc	2 488 41                        @ lvgl/src/lv_misc/lv_mem.c:488:41
	ldrb.w	r0, [sp, #7]
	adds	r0, #1
	strb.w	r0, [sp, #7]
	.loc	2 488 5 is_stmt 0               @ lvgl/src/lv_misc/lv_mem.c:488:5
	b	.LBB11_11
.Ltmp127:
.LBB11_25:
	.loc	2 504 8 is_stmt 1               @ lvgl/src/lv_misc/lv_mem.c:504:8
	ldrsb.w	r0, [sp, #6]
.Ltmp128:
	.loc	2 504 8 is_stmt 0               @ lvgl/src/lv_misc/lv_mem.c:504:8
	cmp	r0, #0
	bmi	.LBB11_27
	b	.LBB11_26
.LBB11_26:
.Ltmp129:
	.loc	2 505 9 is_stmt 1               @ lvgl/src/lv_misc/lv_mem.c:505:9
	ldrsb.w	r1, [sp, #6]
	movw	r0, :lower16:_lv_mem_buf
	movt	r0, :upper16:_lv_mem_buf
	add.w	r2, r0, r1, lsl #3
	.loc	2 505 47 is_stmt 0              @ lvgl/src/lv_misc/lv_mem.c:505:47
	ldrb	r1, [r2, #6]
	orr	r1, r1, #1
	strb	r1, [r2, #6]
	.loc	2 506 16 is_stmt 1              @ lvgl/src/lv_misc/lv_mem.c:506:16
	ldrsb.w	r1, [sp, #6]
	.loc	2 506 49 is_stmt 0              @ lvgl/src/lv_misc/lv_mem.c:506:49
	ldr.w	r0, [r0, r1, lsl #3]
	.loc	2 506 9                         @ lvgl/src/lv_misc/lv_mem.c:506:9
	str	r0, [sp, #12]
	b	.LBB11_40
.Ltmp130:
.LBB11_27:
	.loc	2 0 9                           @ lvgl/src/lv_misc/lv_mem.c:0:9
	movs	r0, #0
.Ltmp131:
	.loc	2 510 11 is_stmt 1              @ lvgl/src/lv_misc/lv_mem.c:510:11
	strb.w	r0, [sp, #7]
	.loc	2 510 9 is_stmt 0               @ lvgl/src/lv_misc/lv_mem.c:510:9
	b	.LBB11_28
.LBB11_28:                              @ =>This Inner Loop Header: Depth=1
.Ltmp132:
	.loc	2 510 16                        @ lvgl/src/lv_misc/lv_mem.c:510:16
	ldrb.w	r0, [sp, #7]
.Ltmp133:
	.loc	2 510 5                         @ lvgl/src/lv_misc/lv_mem.c:510:5
	cmp	r0, #15
	bgt	.LBB11_37
	b	.LBB11_29
.LBB11_29:                              @   in Loop: Header=BB11_28 Depth=1
.Ltmp134:
	.loc	2 511 12 is_stmt 1              @ lvgl/src/lv_misc/lv_mem.c:511:12
	ldrb.w	r1, [sp, #7]
	movw	r0, :lower16:_lv_mem_buf
	movt	r0, :upper16:_lv_mem_buf
	add.w	r0, r0, r1, lsl #3
	.loc	2 511 39 is_stmt 0              @ lvgl/src/lv_misc/lv_mem.c:511:39
	ldrb	r0, [r0, #6]
.Ltmp135:
	.loc	2 511 12                        @ lvgl/src/lv_misc/lv_mem.c:511:12
	lsls	r0, r0, #31
	cbnz	r0, .LBB11_35
	b	.LBB11_30
.LBB11_30:
.Ltmp136:
	.loc	2 513 41 is_stmt 1              @ lvgl/src/lv_misc/lv_mem.c:513:41
	ldrb.w	r1, [sp, #7]
	movw	r0, :lower16:_lv_mem_buf
	movt	r0, :upper16:_lv_mem_buf
	.loc	2 513 68 is_stmt 0              @ lvgl/src/lv_misc/lv_mem.c:513:68
	ldr.w	r0, [r0, r1, lsl #3]
	.loc	2 513 71                        @ lvgl/src/lv_misc/lv_mem.c:513:71
	ldr	r1, [sp, #8]
	.loc	2 513 26                        @ lvgl/src/lv_misc/lv_mem.c:513:26
	bl	lv_mem_realloc
	.loc	2 513 20                        @ lvgl/src/lv_misc/lv_mem.c:513:20
	str	r0, [sp]
.Ltmp137:
	.loc	2 514 16 is_stmt 1              @ lvgl/src/lv_misc/lv_mem.c:514:16
	ldr	r0, [sp]
.Ltmp138:
	.loc	2 514 16 is_stmt 0              @ lvgl/src/lv_misc/lv_mem.c:514:16
	cbnz	r0, .LBB11_34
	b	.LBB11_31
.LBB11_31:
.Ltmp139:
	.loc	2 515 17 is_stmt 1              @ lvgl/src/lv_misc/lv_mem.c:515:17
	b	.LBB11_32
.LBB11_32:
.Ltmp140:
	.loc	2 515 17 is_stmt 0              @ lvgl/src/lv_misc/lv_mem.c:515:17
	movw	r0, :lower16:.L.str
	movt	r0, :upper16:.L.str
	movs	r3, #0
	mov	r2, r3
	bl	lv_debug_log_error
	b	.LBB11_33
.LBB11_33:                              @ =>This Inner Loop Header: Depth=1
	b	.LBB11_33
.Ltmp141:
.LBB11_34:
	.loc	2 518 13 is_stmt 1              @ lvgl/src/lv_misc/lv_mem.c:518:13
	ldrb.w	r1, [sp, #7]
	movw	r0, :lower16:_lv_mem_buf
	movt	r0, :upper16:_lv_mem_buf
	add.w	r2, r0, r1, lsl #3
	.loc	2 518 45 is_stmt 0              @ lvgl/src/lv_misc/lv_mem.c:518:45
	ldrb	r1, [r2, #6]
	orr	r1, r1, #1
	strb	r1, [r2, #6]
	.loc	2 519 47 is_stmt 1              @ lvgl/src/lv_misc/lv_mem.c:519:47
	ldr	r1, [sp, #8]
	.loc	2 519 13 is_stmt 0              @ lvgl/src/lv_misc/lv_mem.c:519:13
	ldrb.w	r2, [sp, #7]
	add.w	r2, r0, r2, lsl #3
	.loc	2 519 45                        @ lvgl/src/lv_misc/lv_mem.c:519:45
	strh	r1, [r2, #4]
	.loc	2 520 47 is_stmt 1              @ lvgl/src/lv_misc/lv_mem.c:520:47
	ldr	r1, [sp]
	.loc	2 520 13 is_stmt 0              @ lvgl/src/lv_misc/lv_mem.c:520:13
	ldrb.w	r2, [sp, #7]
	.loc	2 520 45                        @ lvgl/src/lv_misc/lv_mem.c:520:45
	str.w	r1, [r0, r2, lsl #3]
	.loc	2 521 20 is_stmt 1              @ lvgl/src/lv_misc/lv_mem.c:521:20
	ldrb.w	r1, [sp, #7]
	.loc	2 521 47 is_stmt 0              @ lvgl/src/lv_misc/lv_mem.c:521:47
	ldr.w	r0, [r0, r1, lsl #3]
	.loc	2 521 13                        @ lvgl/src/lv_misc/lv_mem.c:521:13
	str	r0, [sp, #12]
	b	.LBB11_40
.Ltmp142:
.LBB11_35:                              @   in Loop: Header=BB11_28 Depth=1
	.loc	2 523 5 is_stmt 1               @ lvgl/src/lv_misc/lv_mem.c:523:5
	b	.LBB11_36
.Ltmp143:
.LBB11_36:                              @   in Loop: Header=BB11_28 Depth=1
	.loc	2 510 41                        @ lvgl/src/lv_misc/lv_mem.c:510:41
	ldrb.w	r0, [sp, #7]
	adds	r0, #1
	strb.w	r0, [sp, #7]
	.loc	2 510 5 is_stmt 0               @ lvgl/src/lv_misc/lv_mem.c:510:5
	b	.LBB11_28
.Ltmp144:
.LBB11_37:
	.loc	2 525 5 is_stmt 1               @ lvgl/src/lv_misc/lv_mem.c:525:5
	b	.LBB11_38
.LBB11_38:
.Ltmp145:
	.loc	2 525 5 is_stmt 0               @ lvgl/src/lv_misc/lv_mem.c:525:5
	movw	r0, :lower16:.L.str.1
	movt	r0, :upper16:.L.str.1
	movs	r3, #0
	mov	r2, r3
	bl	lv_debug_log_error
	b	.LBB11_39
.LBB11_39:                              @ =>This Inner Loop Header: Depth=1
	b	.LBB11_39
.Ltmp146:
.LBB11_40:
	.loc	2 527 1 is_stmt 1               @ lvgl/src/lv_misc/lv_mem.c:527:1
	ldr	r0, [sp, #12]
	add	sp, #16
	pop	{r7, pc}
.Ltmp147:
.Lfunc_end11:
	.size	_lv_mem_buf_get, .Lfunc_end11-_lv_mem_buf_get
	.cfi_endproc
	.cantunwind
	.fnend
                                        @ -- End function
	.section	.text._lv_mem_buf_release,"ax",%progbits
	.hidden	_lv_mem_buf_release             @ -- Begin function _lv_mem_buf_release
	.globl	_lv_mem_buf_release
	.p2align	3
	.type	_lv_mem_buf_release,%function
	.code	16                              @ @_lv_mem_buf_release
	.thumb_func
_lv_mem_buf_release:
.Lfunc_begin12:
	.loc	2 534 0                         @ lvgl/src/lv_misc/lv_mem.c:534:0
	.fnstart
	.cfi_startproc
@ %bb.0:
	.pad	#8
	sub	sp, #8
	.cfi_def_cfa_offset 8
	str	r0, [sp, #4]
	movs	r0, #0
.Ltmp148:
	.loc	2 538 11 prologue_end           @ lvgl/src/lv_misc/lv_mem.c:538:11
	strb.w	r0, [sp, #3]
	.loc	2 538 9 is_stmt 0               @ lvgl/src/lv_misc/lv_mem.c:538:9
	b	.LBB12_1
.LBB12_1:                               @ =>This Inner Loop Header: Depth=1
.Ltmp149:
	.loc	2 538 16                        @ lvgl/src/lv_misc/lv_mem.c:538:16
	ldrb.w	r0, [sp, #3]
.Ltmp150:
	.loc	2 538 5                         @ lvgl/src/lv_misc/lv_mem.c:538:5
	cmp	r0, #1
	bhi	.LBB12_6
	b	.LBB12_2
.LBB12_2:                               @   in Loop: Header=BB12_1 Depth=1
.Ltmp151:
	.loc	2 539 26 is_stmt 1              @ lvgl/src/lv_misc/lv_mem.c:539:26
	ldrb.w	r1, [sp, #3]
	.loc	2 539 12 is_stmt 0              @ lvgl/src/lv_misc/lv_mem.c:539:12
	movw	r0, :lower16:mem_buf_small
	movt	r0, :upper16:mem_buf_small
	.loc	2 539 29                        @ lvgl/src/lv_misc/lv_mem.c:539:29
	ldr.w	r0, [r0, r1, lsl #3]
	.loc	2 539 34                        @ lvgl/src/lv_misc/lv_mem.c:539:34
	ldr	r1, [sp, #4]
.Ltmp152:
	.loc	2 539 12                        @ lvgl/src/lv_misc/lv_mem.c:539:12
	cmp	r0, r1
	bne	.LBB12_4
	b	.LBB12_3
.LBB12_3:
.Ltmp153:
	.loc	2 540 27 is_stmt 1              @ lvgl/src/lv_misc/lv_mem.c:540:27
	ldrb.w	r1, [sp, #3]
	.loc	2 540 13 is_stmt 0              @ lvgl/src/lv_misc/lv_mem.c:540:13
	movw	r0, :lower16:mem_buf_small
	movt	r0, :upper16:mem_buf_small
	add.w	r1, r0, r1, lsl #3
	.loc	2 540 35                        @ lvgl/src/lv_misc/lv_mem.c:540:35
	ldrb	r0, [r1, #6]
	and	r0, r0, #254
	strb	r0, [r1, #6]
	.loc	2 541 13 is_stmt 1              @ lvgl/src/lv_misc/lv_mem.c:541:13
	b	.LBB12_12
.Ltmp154:
.LBB12_4:                               @   in Loop: Header=BB12_1 Depth=1
	.loc	2 543 5                         @ lvgl/src/lv_misc/lv_mem.c:543:5
	b	.LBB12_5
.Ltmp155:
.LBB12_5:                               @   in Loop: Header=BB12_1 Depth=1
	.loc	2 538 71                        @ lvgl/src/lv_misc/lv_mem.c:538:71
	ldrb.w	r0, [sp, #3]
	adds	r0, #1
	strb.w	r0, [sp, #3]
	.loc	2 538 5 is_stmt 0               @ lvgl/src/lv_misc/lv_mem.c:538:5
	b	.LBB12_1
.Ltmp156:
.LBB12_6:
	.loc	2 0 5                           @ lvgl/src/lv_misc/lv_mem.c:0:5
	movs	r0, #0
.Ltmp157:
	.loc	2 545 11 is_stmt 1              @ lvgl/src/lv_misc/lv_mem.c:545:11
	strb.w	r0, [sp, #3]
	.loc	2 545 9 is_stmt 0               @ lvgl/src/lv_misc/lv_mem.c:545:9
	b	.LBB12_7
.LBB12_7:                               @ =>This Inner Loop Header: Depth=1
.Ltmp158:
	.loc	2 545 16                        @ lvgl/src/lv_misc/lv_mem.c:545:16
	ldrb.w	r0, [sp, #3]
.Ltmp159:
	.loc	2 545 5                         @ lvgl/src/lv_misc/lv_mem.c:545:5
	cmp	r0, #15
	bgt	.LBB12_12
	b	.LBB12_8
.LBB12_8:                               @   in Loop: Header=BB12_7 Depth=1
.Ltmp160:
	.loc	2 546 12 is_stmt 1              @ lvgl/src/lv_misc/lv_mem.c:546:12
	ldrb.w	r1, [sp, #3]
	movw	r0, :lower16:_lv_mem_buf
	movt	r0, :upper16:_lv_mem_buf
	.loc	2 546 39 is_stmt 0              @ lvgl/src/lv_misc/lv_mem.c:546:39
	ldr.w	r0, [r0, r1, lsl #3]
	.loc	2 546 44                        @ lvgl/src/lv_misc/lv_mem.c:546:44
	ldr	r1, [sp, #4]
.Ltmp161:
	.loc	2 546 12                        @ lvgl/src/lv_misc/lv_mem.c:546:12
	cmp	r0, r1
	bne	.LBB12_10
	b	.LBB12_9
.LBB12_9:
.Ltmp162:
	.loc	2 547 13 is_stmt 1              @ lvgl/src/lv_misc/lv_mem.c:547:13
	ldrb.w	r1, [sp, #3]
	movw	r0, :lower16:_lv_mem_buf
	movt	r0, :upper16:_lv_mem_buf
	add.w	r1, r0, r1, lsl #3
	.loc	2 547 45 is_stmt 0              @ lvgl/src/lv_misc/lv_mem.c:547:45
	ldrb	r0, [r1, #6]
	and	r0, r0, #254
	strb	r0, [r1, #6]
	.loc	2 548 13 is_stmt 1              @ lvgl/src/lv_misc/lv_mem.c:548:13
	b	.LBB12_12
.Ltmp163:
.LBB12_10:                              @   in Loop: Header=BB12_7 Depth=1
	.loc	2 550 5                         @ lvgl/src/lv_misc/lv_mem.c:550:5
	b	.LBB12_11
.Ltmp164:
.LBB12_11:                              @   in Loop: Header=BB12_7 Depth=1
	.loc	2 545 41                        @ lvgl/src/lv_misc/lv_mem.c:545:41
	ldrb.w	r0, [sp, #3]
	adds	r0, #1
	strb.w	r0, [sp, #3]
	.loc	2 545 5 is_stmt 0               @ lvgl/src/lv_misc/lv_mem.c:545:5
	b	.LBB12_7
.Ltmp165:
.LBB12_12:
	.loc	2 553 1 is_stmt 1               @ lvgl/src/lv_misc/lv_mem.c:553:1
	add	sp, #8
	bx	lr
.Ltmp166:
.Lfunc_end12:
	.size	_lv_mem_buf_release, .Lfunc_end12-_lv_mem_buf_release
	.cfi_endproc
	.cantunwind
	.fnend
                                        @ -- End function
	.section	.text._lv_mem_buf_free_all,"ax",%progbits
	.hidden	_lv_mem_buf_free_all            @ -- Begin function _lv_mem_buf_free_all
	.globl	_lv_mem_buf_free_all
	.p2align	3
	.type	_lv_mem_buf_free_all,%function
	.code	16                              @ @_lv_mem_buf_free_all
	.thumb_func
_lv_mem_buf_free_all:
.Lfunc_begin13:
	.loc	2 559 0                         @ lvgl/src/lv_misc/lv_mem.c:559:0
	.fnstart
	.cfi_startproc
@ %bb.0:
	.save	{r7, lr}
	push	{r7, lr}
	.cfi_def_cfa_offset 8
	.cfi_offset lr, -4
	.cfi_offset r7, -8
	.pad	#8
	sub	sp, #8
	.cfi_def_cfa_offset 16
	movs	r0, #0
.Ltmp167:
	.loc	2 561 11 prologue_end           @ lvgl/src/lv_misc/lv_mem.c:561:11
	strb.w	r0, [sp, #7]
	.loc	2 561 9 is_stmt 0               @ lvgl/src/lv_misc/lv_mem.c:561:9
	b	.LBB13_1
.LBB13_1:                               @ =>This Inner Loop Header: Depth=1
.Ltmp168:
	.loc	2 561 16                        @ lvgl/src/lv_misc/lv_mem.c:561:16
	ldrb.w	r0, [sp, #7]
.Ltmp169:
	.loc	2 561 5                         @ lvgl/src/lv_misc/lv_mem.c:561:5
	cmp	r0, #1
	bhi	.LBB13_4
	b	.LBB13_2
.LBB13_2:                               @   in Loop: Header=BB13_1 Depth=1
.Ltmp170:
	.loc	2 562 23 is_stmt 1              @ lvgl/src/lv_misc/lv_mem.c:562:23
	ldrb.w	r1, [sp, #7]
	.loc	2 562 9 is_stmt 0               @ lvgl/src/lv_misc/lv_mem.c:562:9
	movw	r0, :lower16:mem_buf_small
	movt	r0, :upper16:mem_buf_small
	add.w	r1, r0, r1, lsl #3
	.loc	2 562 31                        @ lvgl/src/lv_misc/lv_mem.c:562:31
	ldrb	r0, [r1, #6]
	and	r0, r0, #254
	strb	r0, [r1, #6]
	.loc	2 563 5 is_stmt 1               @ lvgl/src/lv_misc/lv_mem.c:563:5
	b	.LBB13_3
.Ltmp171:
.LBB13_3:                               @   in Loop: Header=BB13_1 Depth=1
	.loc	2 561 71                        @ lvgl/src/lv_misc/lv_mem.c:561:71
	ldrb.w	r0, [sp, #7]
	adds	r0, #1
	strb.w	r0, [sp, #7]
	.loc	2 561 5 is_stmt 0               @ lvgl/src/lv_misc/lv_mem.c:561:5
	b	.LBB13_1
.Ltmp172:
.LBB13_4:
	.loc	2 0 5                           @ lvgl/src/lv_misc/lv_mem.c:0:5
	movs	r0, #0
.Ltmp173:
	.loc	2 565 11 is_stmt 1              @ lvgl/src/lv_misc/lv_mem.c:565:11
	strb.w	r0, [sp, #7]
	.loc	2 565 9 is_stmt 0               @ lvgl/src/lv_misc/lv_mem.c:565:9
	b	.LBB13_5
.LBB13_5:                               @ =>This Inner Loop Header: Depth=1
.Ltmp174:
	.loc	2 565 16                        @ lvgl/src/lv_misc/lv_mem.c:565:16
	ldrb.w	r0, [sp, #7]
.Ltmp175:
	.loc	2 565 5                         @ lvgl/src/lv_misc/lv_mem.c:565:5
	cmp	r0, #15
	bgt	.LBB13_10
	b	.LBB13_6
.LBB13_6:                               @   in Loop: Header=BB13_5 Depth=1
.Ltmp176:
	.loc	2 566 12 is_stmt 1              @ lvgl/src/lv_misc/lv_mem.c:566:12
	ldrb.w	r1, [sp, #7]
	movw	r0, :lower16:_lv_mem_buf
	movt	r0, :upper16:_lv_mem_buf
	.loc	2 566 39 is_stmt 0              @ lvgl/src/lv_misc/lv_mem.c:566:39
	ldr.w	r0, [r0, r1, lsl #3]
.Ltmp177:
	.loc	2 566 12                        @ lvgl/src/lv_misc/lv_mem.c:566:12
	cbz	r0, .LBB13_8
	b	.LBB13_7
.LBB13_7:                               @   in Loop: Header=BB13_5 Depth=1
.Ltmp178:
	.loc	2 567 25 is_stmt 1              @ lvgl/src/lv_misc/lv_mem.c:567:25
	ldrb.w	r1, [sp, #7]
	movw	r0, :lower16:_lv_mem_buf
	movt	r0, :upper16:_lv_mem_buf
	.loc	2 567 52 is_stmt 0              @ lvgl/src/lv_misc/lv_mem.c:567:52
	str	r0, [sp]                        @ 4-byte Spill
	ldr.w	r0, [r0, r1, lsl #3]
	.loc	2 567 13                        @ lvgl/src/lv_misc/lv_mem.c:567:13
	bl	lv_mem_free
	ldr	r1, [sp]                        @ 4-byte Reload
	.loc	2 568 13 is_stmt 1              @ lvgl/src/lv_misc/lv_mem.c:568:13
	ldrb.w	r2, [sp, #7]
	movs	r0, #0
	.loc	2 568 42 is_stmt 0              @ lvgl/src/lv_misc/lv_mem.c:568:42
	str.w	r0, [r1, r2, lsl #3]
	.loc	2 569 13 is_stmt 1              @ lvgl/src/lv_misc/lv_mem.c:569:13
	ldrb.w	r2, [sp, #7]
	add.w	r3, r1, r2, lsl #3
	.loc	2 569 45 is_stmt 0              @ lvgl/src/lv_misc/lv_mem.c:569:45
	ldrb	r2, [r3, #6]
	and	r2, r2, #254
	strb	r2, [r3, #6]
	.loc	2 570 13 is_stmt 1              @ lvgl/src/lv_misc/lv_mem.c:570:13
	ldrb.w	r2, [sp, #7]
	add.w	r1, r1, r2, lsl #3
	.loc	2 570 45 is_stmt 0              @ lvgl/src/lv_misc/lv_mem.c:570:45
	strh	r0, [r1, #4]
	.loc	2 571 9 is_stmt 1               @ lvgl/src/lv_misc/lv_mem.c:571:9
	b	.LBB13_8
.Ltmp179:
.LBB13_8:                               @   in Loop: Header=BB13_5 Depth=1
	.loc	2 572 5                         @ lvgl/src/lv_misc/lv_mem.c:572:5
	b	.LBB13_9
.Ltmp180:
.LBB13_9:                               @   in Loop: Header=BB13_5 Depth=1
	.loc	2 565 41                        @ lvgl/src/lv_misc/lv_mem.c:565:41
	ldrb.w	r0, [sp, #7]
	adds	r0, #1
	strb.w	r0, [sp, #7]
	.loc	2 565 5 is_stmt 0               @ lvgl/src/lv_misc/lv_mem.c:565:5
	b	.LBB13_5
.Ltmp181:
.LBB13_10:
	.loc	2 573 1 is_stmt 1               @ lvgl/src/lv_misc/lv_mem.c:573:1
	add	sp, #8
	pop	{r7, pc}
.Ltmp182:
.Lfunc_end13:
	.size	_lv_mem_buf_free_all, .Lfunc_end13-_lv_mem_buf_free_all
	.cfi_endproc
	.cantunwind
	.fnend
                                        @ -- End function
	.section	.text._lv_memset_00,"ax",%progbits
	.hidden	_lv_memset_00                   @ -- Begin function _lv_memset_00
	.globl	_lv_memset_00
	.p2align	3
	.type	_lv_memset_00,%function
	.code	16                              @ @_lv_memset_00
	.thumb_func
_lv_memset_00:
.Lfunc_begin14:
	.loc	2 688 0                         @ lvgl/src/lv_misc/lv_mem.c:688:0
	.fnstart
	.cfi_startproc
@ %bb.0:
	.pad	#28
	sub	sp, #28
	.cfi_def_cfa_offset 28
	str	r0, [sp, #24]
	str	r1, [sp, #20]
.Ltmp183:
	.loc	2 689 32 prologue_end           @ lvgl/src/lv_misc/lv_mem.c:689:32
	ldr	r0, [sp, #24]
	.loc	2 689 15 is_stmt 0              @ lvgl/src/lv_misc/lv_mem.c:689:15
	str	r0, [sp, #16]
	.loc	2 690 40 is_stmt 1              @ lvgl/src/lv_misc/lv_mem.c:690:40
	ldr	r0, [sp, #16]
	.loc	2 690 43 is_stmt 0              @ lvgl/src/lv_misc/lv_mem.c:690:43
	and	r0, r0, #3
	.loc	2 690 15                        @ lvgl/src/lv_misc/lv_mem.c:690:15
	str	r0, [sp, #12]
.Ltmp184:
	.loc	2 693 8 is_stmt 1               @ lvgl/src/lv_misc/lv_mem.c:693:8
	ldr	r0, [sp, #12]
.Ltmp185:
	.loc	2 693 8 is_stmt 0               @ lvgl/src/lv_misc/lv_mem.c:693:8
	cbz	r0, .LBB14_7
	b	.LBB14_1
.LBB14_1:
.Ltmp186:
	.loc	2 694 36 is_stmt 1              @ lvgl/src/lv_misc/lv_mem.c:694:36
	ldr	r0, [sp, #12]
	.loc	2 694 34 is_stmt 0              @ lvgl/src/lv_misc/lv_mem.c:694:34
	rsb.w	r0, r0, #4
	.loc	2 694 17                        @ lvgl/src/lv_misc/lv_mem.c:694:17
	str	r0, [sp, #12]
	.loc	2 695 9 is_stmt 1               @ lvgl/src/lv_misc/lv_mem.c:695:9
	b	.LBB14_2
.LBB14_2:                               @ =>This Inner Loop Header: Depth=1
	.loc	2 695 15 is_stmt 0              @ lvgl/src/lv_misc/lv_mem.c:695:15
	ldr	r1, [sp, #12]
	movs	r0, #0
	.loc	2 695 23                        @ lvgl/src/lv_misc/lv_mem.c:695:23
	str	r0, [sp, #4]                    @ 4-byte Spill
	cbz	r1, .LBB14_4
	b	.LBB14_3
.LBB14_3:                               @   in Loop: Header=BB14_2 Depth=1
	.loc	2 695 26                        @ lvgl/src/lv_misc/lv_mem.c:695:26
	ldr	r0, [sp, #20]
	.loc	2 695 23                        @ lvgl/src/lv_misc/lv_mem.c:695:23
	cmp	r0, #0
	it	ne
	movne	r0, #1
	str	r0, [sp, #4]                    @ 4-byte Spill
	b	.LBB14_4
.LBB14_4:                               @   in Loop: Header=BB14_2 Depth=1
	.loc	2 0 0                           @ lvgl/src/lv_misc/lv_mem.c:0:0
	ldr	r0, [sp, #4]                    @ 4-byte Reload
	.loc	2 695 9                         @ lvgl/src/lv_misc/lv_mem.c:695:9
	lsls	r0, r0, #31
	cbz	r0, .LBB14_6
	b	.LBB14_5
.LBB14_5:                               @   in Loop: Header=BB14_2 Depth=1
.Ltmp187:
	.loc	2 696 13 is_stmt 1              @ lvgl/src/lv_misc/lv_mem.c:696:13
	ldr	r1, [sp, #16]
	movs	r0, #0
	strb	r0, [r1]
	ldr	r0, [sp, #16]
	adds	r0, #1
	str	r0, [sp, #16]
	.loc	2 697 16                        @ lvgl/src/lv_misc/lv_mem.c:697:16
	ldr	r0, [sp, #20]
	subs	r0, #1
	str	r0, [sp, #20]
	.loc	2 698 20                        @ lvgl/src/lv_misc/lv_mem.c:698:20
	ldr	r0, [sp, #12]
	subs	r0, #1
	str	r0, [sp, #12]
.Ltmp188:
	.loc	2 695 9                         @ lvgl/src/lv_misc/lv_mem.c:695:9
	b	.LBB14_2
.LBB14_6:
	.loc	2 700 5                         @ lvgl/src/lv_misc/lv_mem.c:700:5
	b	.LBB14_7
.Ltmp189:
.LBB14_7:
	.loc	2 702 34                        @ lvgl/src/lv_misc/lv_mem.c:702:34
	ldr	r0, [sp, #16]
	.loc	2 702 16 is_stmt 0              @ lvgl/src/lv_misc/lv_mem.c:702:16
	str	r0, [sp, #8]
	.loc	2 703 5 is_stmt 1               @ lvgl/src/lv_misc/lv_mem.c:703:5
	b	.LBB14_8
.LBB14_8:                               @ =>This Inner Loop Header: Depth=1
	.loc	2 703 11 is_stmt 0              @ lvgl/src/lv_misc/lv_mem.c:703:11
	ldr	r0, [sp, #20]
	.loc	2 703 5                         @ lvgl/src/lv_misc/lv_mem.c:703:5
	cmp	r0, #33
	blo	.LBB14_10
	b	.LBB14_9
.LBB14_9:                               @   in Loop: Header=BB14_8 Depth=1
.Ltmp190:
	.loc	2 704 9 is_stmt 1               @ lvgl/src/lv_misc/lv_mem.c:704:9
	ldr	r1, [sp, #8]
	movs	r0, #0
	str	r0, [sp]                        @ 4-byte Spill
	str	r0, [r1]
	ldr	r1, [sp, #8]
	adds	r1, #4
	str	r1, [sp, #8]
	ldr	r1, [sp, #8]
	str	r0, [r1]
	ldr	r1, [sp, #8]
	adds	r1, #4
	str	r1, [sp, #8]
	ldr	r1, [sp, #8]
	str	r0, [r1]
	ldr	r1, [sp, #8]
	adds	r1, #4
	str	r1, [sp, #8]
	ldr	r1, [sp, #8]
	str	r0, [r1]
	ldr	r1, [sp, #8]
	adds	r1, #4
	str	r1, [sp, #8]
	ldr	r1, [sp, #8]
	str	r0, [r1]
	ldr	r1, [sp, #8]
	adds	r1, #4
	str	r1, [sp, #8]
	ldr	r1, [sp, #8]
	str	r0, [r1]
	ldr	r1, [sp, #8]
	adds	r1, #4
	str	r1, [sp, #8]
	ldr	r1, [sp, #8]
	str	r0, [r1]
	ldr	r1, [sp, #8]
	adds	r1, #4
	str	r1, [sp, #8]
	ldr	r1, [sp, #8]
	str	r0, [r1]
	ldr	r0, [sp, #8]
	adds	r0, #4
	str	r0, [sp, #8]
	.loc	2 705 13                        @ lvgl/src/lv_misc/lv_mem.c:705:13
	ldr	r0, [sp, #20]
	subs	r0, #32
	str	r0, [sp, #20]
.Ltmp191:
	.loc	2 703 5                         @ lvgl/src/lv_misc/lv_mem.c:703:5
	b	.LBB14_8
.LBB14_10:
	.loc	2 708 5                         @ lvgl/src/lv_misc/lv_mem.c:708:5
	b	.LBB14_11
.LBB14_11:                              @ =>This Inner Loop Header: Depth=1
	.loc	2 708 11 is_stmt 0              @ lvgl/src/lv_misc/lv_mem.c:708:11
	ldr	r0, [sp, #20]
	.loc	2 708 5                         @ lvgl/src/lv_misc/lv_mem.c:708:5
	cmp	r0, #5
	blo	.LBB14_13
	b	.LBB14_12
.LBB14_12:                              @   in Loop: Header=BB14_11 Depth=1
.Ltmp192:
	.loc	2 709 9 is_stmt 1               @ lvgl/src/lv_misc/lv_mem.c:709:9
	ldr	r1, [sp, #8]
	movs	r0, #0
	str	r0, [r1]
	ldr	r0, [sp, #8]
	adds	r0, #4
	str	r0, [sp, #8]
	.loc	2 710 13                        @ lvgl/src/lv_misc/lv_mem.c:710:13
	ldr	r0, [sp, #20]
	subs	r0, #4
	str	r0, [sp, #20]
.Ltmp193:
	.loc	2 708 5                         @ lvgl/src/lv_misc/lv_mem.c:708:5
	b	.LBB14_11
.LBB14_13:
	.loc	2 713 21                        @ lvgl/src/lv_misc/lv_mem.c:713:21
	ldr	r0, [sp, #8]
	.loc	2 713 8 is_stmt 0               @ lvgl/src/lv_misc/lv_mem.c:713:8
	str	r0, [sp, #16]
	.loc	2 714 5 is_stmt 1               @ lvgl/src/lv_misc/lv_mem.c:714:5
	b	.LBB14_14
.LBB14_14:                              @ =>This Inner Loop Header: Depth=1
	.loc	2 714 11 is_stmt 0              @ lvgl/src/lv_misc/lv_mem.c:714:11
	ldr	r0, [sp, #20]
	.loc	2 714 5                         @ lvgl/src/lv_misc/lv_mem.c:714:5
	cbz	r0, .LBB14_16
	b	.LBB14_15
.LBB14_15:                              @   in Loop: Header=BB14_14 Depth=1
.Ltmp194:
	.loc	2 715 9 is_stmt 1               @ lvgl/src/lv_misc/lv_mem.c:715:9
	ldr	r1, [sp, #16]
	movs	r0, #0
	strb	r0, [r1]
	ldr	r0, [sp, #16]
	adds	r0, #1
	str	r0, [sp, #16]
	.loc	2 716 12                        @ lvgl/src/lv_misc/lv_mem.c:716:12
	ldr	r0, [sp, #20]
	subs	r0, #1
	str	r0, [sp, #20]
.Ltmp195:
	.loc	2 714 5                         @ lvgl/src/lv_misc/lv_mem.c:714:5
	b	.LBB14_14
.LBB14_16:
	.loc	2 718 1                         @ lvgl/src/lv_misc/lv_mem.c:718:1
	add	sp, #28
	bx	lr
.Ltmp196:
.Lfunc_end14:
	.size	_lv_memset_00, .Lfunc_end14-_lv_memset_00
	.cfi_endproc
	.cantunwind
	.fnend
                                        @ -- End function
	.section	.text._lv_memset_ff,"ax",%progbits
	.hidden	_lv_memset_ff                   @ -- Begin function _lv_memset_ff
	.globl	_lv_memset_ff
	.p2align	3
	.type	_lv_memset_ff,%function
	.code	16                              @ @_lv_memset_ff
	.thumb_func
_lv_memset_ff:
.Lfunc_begin15:
	.loc	2 726 0                         @ lvgl/src/lv_misc/lv_mem.c:726:0
	.fnstart
	.cfi_startproc
@ %bb.0:
	.pad	#28
	sub	sp, #28
	.cfi_def_cfa_offset 28
	str	r0, [sp, #24]
	str	r1, [sp, #20]
.Ltmp197:
	.loc	2 727 32 prologue_end           @ lvgl/src/lv_misc/lv_mem.c:727:32
	ldr	r0, [sp, #24]
	.loc	2 727 15 is_stmt 0              @ lvgl/src/lv_misc/lv_mem.c:727:15
	str	r0, [sp, #16]
	.loc	2 728 40 is_stmt 1              @ lvgl/src/lv_misc/lv_mem.c:728:40
	ldr	r0, [sp, #16]
	.loc	2 728 43 is_stmt 0              @ lvgl/src/lv_misc/lv_mem.c:728:43
	and	r0, r0, #3
	.loc	2 728 15                        @ lvgl/src/lv_misc/lv_mem.c:728:15
	str	r0, [sp, #12]
.Ltmp198:
	.loc	2 731 8 is_stmt 1               @ lvgl/src/lv_misc/lv_mem.c:731:8
	ldr	r0, [sp, #12]
.Ltmp199:
	.loc	2 731 8 is_stmt 0               @ lvgl/src/lv_misc/lv_mem.c:731:8
	cbz	r0, .LBB15_7
	b	.LBB15_1
.LBB15_1:
.Ltmp200:
	.loc	2 732 36 is_stmt 1              @ lvgl/src/lv_misc/lv_mem.c:732:36
	ldr	r0, [sp, #12]
	.loc	2 732 34 is_stmt 0              @ lvgl/src/lv_misc/lv_mem.c:732:34
	rsb.w	r0, r0, #4
	.loc	2 732 17                        @ lvgl/src/lv_misc/lv_mem.c:732:17
	str	r0, [sp, #12]
	.loc	2 733 9 is_stmt 1               @ lvgl/src/lv_misc/lv_mem.c:733:9
	b	.LBB15_2
.LBB15_2:                               @ =>This Inner Loop Header: Depth=1
	.loc	2 733 15 is_stmt 0              @ lvgl/src/lv_misc/lv_mem.c:733:15
	ldr	r1, [sp, #12]
	movs	r0, #0
	.loc	2 733 23                        @ lvgl/src/lv_misc/lv_mem.c:733:23
	str	r0, [sp, #4]                    @ 4-byte Spill
	cbz	r1, .LBB15_4
	b	.LBB15_3
.LBB15_3:                               @   in Loop: Header=BB15_2 Depth=1
	.loc	2 733 26                        @ lvgl/src/lv_misc/lv_mem.c:733:26
	ldr	r0, [sp, #20]
	.loc	2 733 23                        @ lvgl/src/lv_misc/lv_mem.c:733:23
	cmp	r0, #0
	it	ne
	movne	r0, #1
	str	r0, [sp, #4]                    @ 4-byte Spill
	b	.LBB15_4
.LBB15_4:                               @   in Loop: Header=BB15_2 Depth=1
	.loc	2 0 0                           @ lvgl/src/lv_misc/lv_mem.c:0:0
	ldr	r0, [sp, #4]                    @ 4-byte Reload
	.loc	2 733 9                         @ lvgl/src/lv_misc/lv_mem.c:733:9
	lsls	r0, r0, #31
	cbz	r0, .LBB15_6
	b	.LBB15_5
.LBB15_5:                               @   in Loop: Header=BB15_2 Depth=1
.Ltmp201:
	.loc	2 734 13 is_stmt 1              @ lvgl/src/lv_misc/lv_mem.c:734:13
	ldr	r1, [sp, #16]
	movs	r0, #255
	strb	r0, [r1]
	ldr	r0, [sp, #16]
	adds	r0, #1
	str	r0, [sp, #16]
	.loc	2 735 16                        @ lvgl/src/lv_misc/lv_mem.c:735:16
	ldr	r0, [sp, #20]
	subs	r0, #1
	str	r0, [sp, #20]
	.loc	2 736 20                        @ lvgl/src/lv_misc/lv_mem.c:736:20
	ldr	r0, [sp, #12]
	subs	r0, #1
	str	r0, [sp, #12]
.Ltmp202:
	.loc	2 733 9                         @ lvgl/src/lv_misc/lv_mem.c:733:9
	b	.LBB15_2
.LBB15_6:
	.loc	2 738 5                         @ lvgl/src/lv_misc/lv_mem.c:738:5
	b	.LBB15_7
.Ltmp203:
.LBB15_7:
	.loc	2 740 34                        @ lvgl/src/lv_misc/lv_mem.c:740:34
	ldr	r0, [sp, #16]
	.loc	2 740 16 is_stmt 0              @ lvgl/src/lv_misc/lv_mem.c:740:16
	str	r0, [sp, #8]
	.loc	2 741 5 is_stmt 1               @ lvgl/src/lv_misc/lv_mem.c:741:5
	b	.LBB15_8
.LBB15_8:                               @ =>This Inner Loop Header: Depth=1
	.loc	2 741 11 is_stmt 0              @ lvgl/src/lv_misc/lv_mem.c:741:11
	ldr	r0, [sp, #20]
	.loc	2 741 5                         @ lvgl/src/lv_misc/lv_mem.c:741:5
	cmp	r0, #33
	blo	.LBB15_10
	b	.LBB15_9
.LBB15_9:                               @   in Loop: Header=BB15_8 Depth=1
.Ltmp204:
	.loc	2 742 9 is_stmt 1               @ lvgl/src/lv_misc/lv_mem.c:742:9
	ldr	r1, [sp, #8]
	mov.w	r0, #-1
	str	r0, [sp]                        @ 4-byte Spill
	str	r0, [r1]
	ldr	r1, [sp, #8]
	adds	r1, #4
	str	r1, [sp, #8]
	ldr	r1, [sp, #8]
	str	r0, [r1]
	ldr	r1, [sp, #8]
	adds	r1, #4
	str	r1, [sp, #8]
	ldr	r1, [sp, #8]
	str	r0, [r1]
	ldr	r1, [sp, #8]
	adds	r1, #4
	str	r1, [sp, #8]
	ldr	r1, [sp, #8]
	str	r0, [r1]
	ldr	r1, [sp, #8]
	adds	r1, #4
	str	r1, [sp, #8]
	ldr	r1, [sp, #8]
	str	r0, [r1]
	ldr	r1, [sp, #8]
	adds	r1, #4
	str	r1, [sp, #8]
	ldr	r1, [sp, #8]
	str	r0, [r1]
	ldr	r1, [sp, #8]
	adds	r1, #4
	str	r1, [sp, #8]
	ldr	r1, [sp, #8]
	str	r0, [r1]
	ldr	r1, [sp, #8]
	adds	r1, #4
	str	r1, [sp, #8]
	ldr	r1, [sp, #8]
	str	r0, [r1]
	ldr	r0, [sp, #8]
	adds	r0, #4
	str	r0, [sp, #8]
	.loc	2 743 13                        @ lvgl/src/lv_misc/lv_mem.c:743:13
	ldr	r0, [sp, #20]
	subs	r0, #32
	str	r0, [sp, #20]
.Ltmp205:
	.loc	2 741 5                         @ lvgl/src/lv_misc/lv_mem.c:741:5
	b	.LBB15_8
.LBB15_10:
	.loc	2 746 5                         @ lvgl/src/lv_misc/lv_mem.c:746:5
	b	.LBB15_11
.LBB15_11:                              @ =>This Inner Loop Header: Depth=1
	.loc	2 746 11 is_stmt 0              @ lvgl/src/lv_misc/lv_mem.c:746:11
	ldr	r0, [sp, #20]
	.loc	2 746 5                         @ lvgl/src/lv_misc/lv_mem.c:746:5
	cmp	r0, #5
	blo	.LBB15_13
	b	.LBB15_12
.LBB15_12:                              @   in Loop: Header=BB15_11 Depth=1
.Ltmp206:
	.loc	2 747 9 is_stmt 1               @ lvgl/src/lv_misc/lv_mem.c:747:9
	ldr	r1, [sp, #8]
	mov.w	r0, #-1
	str	r0, [r1]
	ldr	r0, [sp, #8]
	adds	r0, #4
	str	r0, [sp, #8]
	.loc	2 748 13                        @ lvgl/src/lv_misc/lv_mem.c:748:13
	ldr	r0, [sp, #20]
	subs	r0, #4
	str	r0, [sp, #20]
.Ltmp207:
	.loc	2 746 5                         @ lvgl/src/lv_misc/lv_mem.c:746:5
	b	.LBB15_11
.LBB15_13:
	.loc	2 751 21                        @ lvgl/src/lv_misc/lv_mem.c:751:21
	ldr	r0, [sp, #8]
	.loc	2 751 8 is_stmt 0               @ lvgl/src/lv_misc/lv_mem.c:751:8
	str	r0, [sp, #16]
	.loc	2 752 5 is_stmt 1               @ lvgl/src/lv_misc/lv_mem.c:752:5
	b	.LBB15_14
.LBB15_14:                              @ =>This Inner Loop Header: Depth=1
	.loc	2 752 11 is_stmt 0              @ lvgl/src/lv_misc/lv_mem.c:752:11
	ldr	r0, [sp, #20]
	.loc	2 752 5                         @ lvgl/src/lv_misc/lv_mem.c:752:5
	cbz	r0, .LBB15_16
	b	.LBB15_15
.LBB15_15:                              @   in Loop: Header=BB15_14 Depth=1
.Ltmp208:
	.loc	2 753 9 is_stmt 1               @ lvgl/src/lv_misc/lv_mem.c:753:9
	ldr	r1, [sp, #16]
	movs	r0, #255
	strb	r0, [r1]
	ldr	r0, [sp, #16]
	adds	r0, #1
	str	r0, [sp, #16]
	.loc	2 754 12                        @ lvgl/src/lv_misc/lv_mem.c:754:12
	ldr	r0, [sp, #20]
	subs	r0, #1
	str	r0, [sp, #20]
.Ltmp209:
	.loc	2 752 5                         @ lvgl/src/lv_misc/lv_mem.c:752:5
	b	.LBB15_14
.LBB15_16:
	.loc	2 756 1                         @ lvgl/src/lv_misc/lv_mem.c:756:1
	add	sp, #28
	bx	lr
.Ltmp210:
.Lfunc_end15:
	.size	_lv_memset_ff, .Lfunc_end15-_lv_memset_ff
	.cfi_endproc
	.cantunwind
	.fnend
                                        @ -- End function
	.type	zero_mem,%object                @ @zero_mem
	.section	.bss.zero_mem,"aw",%nobits
	.p2align	2
zero_mem:
	.long	0                               @ 0x0
	.size	zero_mem, 4

	.type	mem_buf_small,%object           @ @mem_buf_small
	.section	.data.mem_buf_small,"aw",%progbits
	.p2align	2
mem_buf_small:
	.long	mem_buf1_32
	.short	16                              @ 0x10
	.byte	0                               @ 0x0
	.zero	1
	.long	mem_buf2_32
	.short	16                              @ 0x10
	.byte	0                               @ 0x0
	.zero	1
	.size	mem_buf_small, 16

	.type	.L.str,%object                  @ @.str
	.section	.rodata.str1.1,"aMS",%progbits,1
.L.str:
	.asciz	"Out of memory, can't allocate a new buffer (increase your LV_MEM_SIZE/heap size)"
	.size	.L.str, 81

	.type	.L.str.1,%object                @ @.str.1
.L.str.1:
	.asciz	"No free buffer. Increase LV_MEM_BUF_MAX_NUM."
	.size	.L.str.1, 45

	.type	mem_buf1_32,%object             @ @mem_buf1_32
	.section	.bss.mem_buf1_32,"aw",%nobits
mem_buf1_32:
	.zero	16
	.size	mem_buf1_32, 16

	.type	mem_buf2_32,%object             @ @mem_buf2_32
	.section	.bss.mem_buf2_32,"aw",%nobits
mem_buf2_32:
	.zero	16
	.size	mem_buf2_32, 16

	.file	5 "D:\\Keil_v5\\ARM\\ARMCLANG\\Bin\\..\\include" "stddef.h"
	.section	".note.GNU-stack","",%progbits
	.eabi_attribute	30, 6	@ Tag_ABI_optimization_goals
	.ARM_attribute	16, 1	@ Tag_AV_eba