	.text
	.syntax unified
	.eabi_attribute	67, "2.09"	@ Tag_conformance
	.cpu	cortex-m7
	.eabi_attribute	6, 13	@ Tag_CPU_arch
	.eabi_attribute	7, 77	@ Tag_CPU_arch_profile
	.eabi_attribute	8, 0	@ Tag_ARM_ISA_use
	.eabi_attribute	9, 2	@ Tag_THUMB_ISA_use
	.fpu	fpv5-d16
	.eabi_attribute	36, 1	@ Tag_FP_HP_extension
	.eabi_attribute	34, 1	@ Tag_CPU_unaligned_access
	.eabi_attribute	17, 1	@ Tag_ABI_PCS_GOT_use
	.eabi_attribute	20, 2	@ Tag_ABI_FP_denormal
	.eabi_attribute	21, 0	@ Tag_ABI_FP_exceptions
	.eabi_attribute	23, 1	@ Tag_ABI_FP_number_model
	.eabi_attribute	24, 1	@ Tag_ABI_align_needed
	.eabi_attribute	25, 1	@ Tag_ABI_align_preserved
	.eabi_attribute	28, 1	@ Tag_ABI_VFP_args
	.eabi_attribute	38, 1	@ Tag_ABI_FP_16bit_format
	.eabi_attribute	18, 2	@ Tag_ABI_PCS_wchar_t
	.eabi_attribute	26, 1	@ Tag_ABI_enum_size
	.eabi_attribute	14, 0	@ Tag_ABI_PCS_R9_use
	.file	"lv_msgbox.c"
	.file	1 "D:\\Keil_v5\\ARM\\ARMCLANG\\Bin\\..\\include" "stdint.h"
	.file	2 "E:\\STM32\\Learning\\STM32H750_ART_PI_RGBLCD" "lvgl/src/lv_widgets/../lv_core/../lv_draw/../lv_misc/lv_types.h"
	.file	3 "E:\\STM32\\Learning\\STM32H750_ART_PI_RGBLCD" "lvgl/src/lv_widgets/../lv_themes/../lv_core/lv_obj.h"
	.file	4 "E:\\STM32\\Learning\\STM32H750_ART_PI_RGBLCD" "lvgl/src/lv_widgets/../lv_core/../lv_font/../lv_misc/lv_ll.h"
	.file	5 "E:\\STM32\\Learning\\STM32H750_ART_PI_RGBLCD" "./lvgl/src/lv_conf.h"
	.file	6 "E:\\STM32\\Learning\\STM32H750_ART_PI_RGBLCD" "lvgl/src/lv_widgets/../lv_core/../lv_hal/../lv_misc/lv_area.h"
	.file	7 "E:\\STM32\\Learning\\STM32H750_ART_PI_RGBLCD" "lvgl/src/lv_widgets/../lv_themes/../lv_core/lv_style.h"
	.file	8 "E:\\STM32\\Learning\\STM32H750_ART_PI_RGBLCD" "lvgl/src/lv_widgets/../lv_core/../lv_hal/lv_hal_indev.h"
	.file	9 "E:\\STM32\\Learning\\STM32H750_ART_PI_RGBLCD" "lvgl/src/lv_widgets/../lv_core/../lv_draw/../lv_misc/lv_bidi.h"
	.file	10 "E:\\STM32\\Learning\\STM32H750_ART_PI_RGBLCD" "lvgl/src/lv_widgets/lv_msgbox.c"
	.file	11 "E:\\STM32\\Learning\\STM32H750_ART_PI_RGBLCD" "lvgl/src/lv_widgets/lv_label.h"
	.file	12 "E:\\STM32\\Learning\\STM32H750_ART_PI_RGBLCD" "lvgl/src/lv_widgets/lv_cont.h"
	.file	13 "E:\\STM32\\Learning\\STM32H750_ART_PI_RGBLCD" "lvgl/src/lv_widgets/../lv_core/../lv_hal/lv_hal_disp.h"
	.file	14 "E:\\STM32\\Learning\\STM32H750_ART_PI_RGBLCD" "lvgl/src/lv_widgets/../lv_themes/lv_theme.h"
	.file	15 "E:\\STM32\\Learning\\STM32H750_ART_PI_RGBLCD" "lvgl/src/lv_widgets/lv_btnmatrix.h"
	.file	16 "E:\\STM32\\Learning\\STM32H750_ART_PI_RGBLCD" "lvgl/src/lv_widgets/lv_msgbox.h"
	.file	17 "E:\\STM32\\Learning\\STM32H750_ART_PI_RGBLCD" "lvgl/src/lv_widgets/../lv_core/lv_group.h"
	.file	18 "E:\\STM32\\Learning\\STM32H750_ART_PI_RGBLCD" "lvgl/src/lv_widgets/../lv_misc/lv_anim.h"
	.section	.text.lv_msgbox_create,"ax",%progbits
	.hidden	lv_msgbox_create                @ -- Begin function lv_msgbox_create
	.globl	lv_msgbox_create
	.p2align	3
	.type	lv_msgbox_create,%function
	.code	16                              @ @lv_msgbox_create
	.thumb_func
lv_msgbox_create:
.Lfunc_begin0:
	.loc	10 70 0                         @ lvgl/src/lv_widgets/lv_msgbox.c:70:0
	.fnstart
	.cfi_sections .debug_frame
	.cfi_startproc
@ %bb.0:
	.save	{r7, lr}
	push	{r7, lr}
	.cfi_def_cfa_offset 8
	.cfi_offset lr, -4
	.cfi_offset r7, -8
	.pad	#64
	sub	sp, #64
	.cfi_def_cfa_offset 72
	str	r0, [sp, #56]
	str	r1, [sp, #52]
.Ltmp0:
	.loc	10 74 38 prologue_end           @ lvgl/src/lv_widgets/lv_msgbox.c:74:38
	ldr	r0, [sp, #56]
	.loc	10 74 43 is_stmt 0              @ lvgl/src/lv_widgets/lv_msgbox.c:74:43
	ldr	r1, [sp, #52]
	.loc	10 74 23                        @ lvgl/src/lv_widgets/lv_msgbox.c:74:23
	bl	lv_cont_create
	.loc	10 74 16                        @ lvgl/src/lv_widgets/lv_msgbox.c:74:16
	str	r0, [sp, #48]
	.loc	10 75 5 is_stmt 1               @ lvgl/src/lv_widgets/lv_msgbox.c:75:5
	b	.LBB0_1
.LBB0_1:
.Ltmp1:
	.loc	10 75 5 is_stmt 0               @ lvgl/src/lv_widgets/lv_msgbox.c:75:5
	ldr	r0, [sp, #48]
	bl	lv_debug_check_null
.Ltmp2:
	.loc	10 75 5                         @ lvgl/src/lv_widgets/lv_msgbox.c:75:5
	cbnz	r0, .LBB0_4
	b	.LBB0_2
.LBB0_2:
.Ltmp3:
	.loc	10 75 5                         @ lvgl/src/lv_widgets/lv_msgbox.c:75:5
	ldr	r2, [sp, #48]
	movw	r0, :lower16:.L.str
	movt	r0, :upper16:.L.str
	movs	r3, #0
	bl	lv_debug_log_error
	b	.LBB0_3
.LBB0_3:                                @ =>This Inner Loop Header: Depth=1
	b	.LBB0_3
.Ltmp4:
.LBB0_4:
	.loc	10 75 5                         @ lvgl/src/lv_widgets/lv_msgbox.c:75:5
	b	.LBB0_5
.Ltmp5:
.LBB0_5:
	.loc	10 76 8 is_stmt 1               @ lvgl/src/lv_widgets/lv_msgbox.c:76:8
	ldr	r0, [sp, #48]
.Ltmp6:
	.loc	10 76 8 is_stmt 0               @ lvgl/src/lv_widgets/lv_msgbox.c:76:8
	cbnz	r0, .LBB0_7
	b	.LBB0_6
.LBB0_6:
	.loc	10 0 8                          @ lvgl/src/lv_widgets/lv_msgbox.c:0:8
	movs	r0, #0
.Ltmp7:
	.loc	10 76 22                        @ lvgl/src/lv_widgets/lv_msgbox.c:76:22
	str	r0, [sp, #60]
	b	.LBB0_34
.Ltmp8:
.LBB0_7:
	.loc	10 78 8 is_stmt 1               @ lvgl/src/lv_widgets/lv_msgbox.c:78:8
	movw	r0, :lower16:ancestor_signal
	movt	r0, :upper16:ancestor_signal
	ldr	r0, [r0]
.Ltmp9:
	.loc	10 78 8 is_stmt 0               @ lvgl/src/lv_widgets/lv_msgbox.c:78:8
	cbnz	r0, .LBB0_9
	b	.LBB0_8
.LBB0_8:
.Ltmp10:
	.loc	10 78 72                        @ lvgl/src/lv_widgets/lv_msgbox.c:78:72
	ldr	r0, [sp, #48]
	.loc	10 78 51                        @ lvgl/src/lv_widgets/lv_msgbox.c:78:51
	bl	lv_obj_get_signal_cb
	.loc	10 78 49                        @ lvgl/src/lv_widgets/lv_msgbox.c:78:49
	movw	r1, :lower16:ancestor_signal
	movt	r1, :upper16:ancestor_signal
	str	r0, [r1]
	.loc	10 78 33                        @ lvgl/src/lv_widgets/lv_msgbox.c:78:33
	b	.LBB0_9
.Ltmp11:
.LBB0_9:
	.loc	10 81 54 is_stmt 1              @ lvgl/src/lv_widgets/lv_msgbox.c:81:54
	ldr	r0, [sp, #48]
	movs	r1, #16
	.loc	10 81 29 is_stmt 0              @ lvgl/src/lv_widgets/lv_msgbox.c:81:29
	bl	lv_obj_allocate_ext_attr
	.loc	10 81 23                        @ lvgl/src/lv_widgets/lv_msgbox.c:81:23
	str	r0, [sp, #44]
	.loc	10 82 5 is_stmt 1               @ lvgl/src/lv_widgets/lv_msgbox.c:82:5
	b	.LBB0_10
.LBB0_10:
.Ltmp12:
	.loc	10 82 5 is_stmt 0               @ lvgl/src/lv_widgets/lv_msgbox.c:82:5
	ldr	r0, [sp, #44]
	bl	lv_debug_check_null
.Ltmp13:
	.loc	10 82 5                         @ lvgl/src/lv_widgets/lv_msgbox.c:82:5
	cbnz	r0, .LBB0_13
	b	.LBB0_11
.LBB0_11:
.Ltmp14:
	.loc	10 82 5                         @ lvgl/src/lv_widgets/lv_msgbox.c:82:5
	ldr	r2, [sp, #44]
	movw	r0, :lower16:.L.str
	movt	r0, :upper16:.L.str
	movs	r3, #0
	bl	lv_debug_log_error
	b	.LBB0_12
.LBB0_12:                               @ =>This Inner Loop Header: Depth=1
	b	.LBB0_12
.Ltmp15:
.LBB0_13:
	.loc	10 82 5                         @ lvgl/src/lv_widgets/lv_msgbox.c:82:5
	b	.LBB0_14
.Ltmp16:
.LBB0_14:
	.loc	10 83 8 is_stmt 1               @ lvgl/src/lv_widgets/lv_msgbox.c:83:8
	ldr	r0, [sp, #44]
.Ltmp17:
	.loc	10 83 8 is_stmt 0               @ lvgl/src/lv_widgets/lv_msgbox.c:83:8
	cbnz	r0, .LBB0_16
	b	.LBB0_15
.LBB0_15:
.Ltmp18:
	.loc	10 84 20 is_stmt 1              @ lvgl/src/lv_widgets/lv_msgbox.c:84:20
	ldr	r0, [sp, #48]
	.loc	10 84 9 is_stmt 0               @ lvgl/src/lv_widgets/lv_msgbox.c:84:9
	bl	lv_obj_del
	movs	r0, #0
	.loc	10 85 9 is_stmt 1               @ lvgl/src/lv_widgets/lv_msgbox.c:85:9
	str	r0, [sp, #60]
	b	.LBB0_34
.Ltmp19:
.LBB0_16:
	.loc	10 88 5                         @ lvgl/src/lv_widgets/lv_msgbox.c:88:5
	ldr	r1, [sp, #44]
	movs	r0, #0
	.loc	10 88 15 is_stmt 0              @ lvgl/src/lv_widgets/lv_msgbox.c:88:15
	str	r0, [r1, #4]
	.loc	10 89 5 is_stmt 1               @ lvgl/src/lv_widgets/lv_msgbox.c:89:5
	ldr	r1, [sp, #44]
	.loc	10 89 15 is_stmt 0              @ lvgl/src/lv_widgets/lv_msgbox.c:89:15
	str	r0, [r1, #8]
	.loc	10 91 5 is_stmt 1               @ lvgl/src/lv_widgets/lv_msgbox.c:91:5
	ldr	r1, [sp, #44]
	movs	r0, #200
	.loc	10 91 20 is_stmt 0              @ lvgl/src/lv_widgets/lv_msgbox.c:91:20
	strh	r0, [r1, #12]
	.loc	10 95 26 is_stmt 1              @ lvgl/src/lv_widgets/lv_msgbox.c:95:26
	ldr	r0, [sp, #48]
	.loc	10 95 5 is_stmt 0               @ lvgl/src/lv_widgets/lv_msgbox.c:95:5
	movw	r1, :lower16:lv_msgbox_signal
	movt	r1, :upper16:lv_msgbox_signal
	bl	lv_obj_set_signal_cb
.Ltmp20:
	.loc	10 98 8 is_stmt 1               @ lvgl/src/lv_widgets/lv_msgbox.c:98:8
	ldr	r0, [sp, #52]
.Ltmp21:
	.loc	10 98 8 is_stmt 0               @ lvgl/src/lv_widgets/lv_msgbox.c:98:8
	cmp	r0, #0
	bne.w	.LBB0_30
	b	.LBB0_17
.LBB0_17:
.Ltmp22:
	.loc	10 99 37 is_stmt 1              @ lvgl/src/lv_widgets/lv_msgbox.c:99:37
	ldr	r0, [sp, #48]
	movs	r1, #0
	.loc	10 99 21 is_stmt 0              @ lvgl/src/lv_widgets/lv_msgbox.c:99:21
	str	r1, [sp, #32]                   @ 4-byte Spill
	bl	lv_label_create
	.loc	10 99 9                         @ lvgl/src/lv_widgets/lv_msgbox.c:99:9
	ldr	r1, [sp, #44]
	.loc	10 99 19                        @ lvgl/src/lv_widgets/lv_msgbox.c:99:19
	str	r0, [r1, #4]
	.loc	10 100 28 is_stmt 1             @ lvgl/src/lv_widgets/lv_msgbox.c:100:28
	ldr	r0, [sp, #44]
	.loc	10 100 33 is_stmt 0             @ lvgl/src/lv_widgets/lv_msgbox.c:100:33
	ldr	r0, [r0, #4]
	movs	r1, #1
	.loc	10 100 9                        @ lvgl/src/lv_widgets/lv_msgbox.c:100:9
	str	r1, [sp, #28]                   @ 4-byte Spill
	bl	lv_label_set_align
	ldr	r1, [sp, #28]                   @ 4-byte Reload
	.loc	10 101 32 is_stmt 1             @ lvgl/src/lv_widgets/lv_msgbox.c:101:32
	ldr	r0, [sp, #44]
	.loc	10 101 37 is_stmt 0             @ lvgl/src/lv_widgets/lv_msgbox.c:101:37
	ldr	r0, [r0, #4]
	.loc	10 101 9                        @ lvgl/src/lv_widgets/lv_msgbox.c:101:9
	bl	lv_label_set_long_mode
	.loc	10 102 27 is_stmt 1             @ lvgl/src/lv_widgets/lv_msgbox.c:102:27
	ldr	r0, [sp, #44]
	.loc	10 102 32 is_stmt 0             @ lvgl/src/lv_widgets/lv_msgbox.c:102:32
	ldr	r0, [r0, #4]
	.loc	10 102 9                        @ lvgl/src/lv_widgets/lv_msgbox.c:102:9
	movw	r1, :lower16:.L.str.1
	movt	r1, :upper16:.L.str.1
	bl	lv_label_set_text
	.loc	10 104 28 is_stmt 1             @ lvgl/src/lv_widgets/lv_msgbox.c:104:28
	ldr	r0, [sp, #48]
	movs	r1, #3
	.loc	10 104 9 is_stmt 0              @ lvgl/src/lv_widgets/lv_msgbox.c:104:9
	bl	lv_cont_set_layout
	ldr	r2, [sp, #28]                   @ 4-byte Reload
	ldr	r1, [sp, #32]                   @ 4-byte Reload
	.loc	10 105 26 is_stmt 1             @ lvgl/src/lv_widgets/lv_msgbox.c:105:26
	ldr	r0, [sp, #48]
	.loc	10 105 9 is_stmt 0              @ lvgl/src/lv_widgets/lv_msgbox.c:105:9
	bl	lv_cont_set_fit2
	.loc	10 106 49 is_stmt 1             @ lvgl/src/lv_widgets/lv_msgbox.c:106:49
	ldr	r0, [sp, #56]
	.loc	10 106 28 is_stmt 0             @ lvgl/src/lv_widgets/lv_msgbox.c:106:28
	bl	lv_obj_get_width_fit
	mov	r1, r0
	.loc	10 106 20                       @ lvgl/src/lv_widgets/lv_msgbox.c:106:20
	ldr	r0, [sp, #32]                   @ 4-byte Reload
	strh.w	r1, [sp, #42]
.Ltmp23:
	.loc	10 107 12 is_stmt 1             @ lvgl/src/lv_widgets/lv_msgbox.c:107:12
	bl	lv_disp_get_size_category
.Ltmp24:
	.loc	10 107 12 is_stmt 0             @ lvgl/src/lv_widgets/lv_msgbox.c:107:12
	cmp	r0, #0
	bgt	.LBB0_19
	b	.LBB0_18
.LBB0_18:
.Ltmp25:
	.loc	10 108 30 is_stmt 1             @ lvgl/src/lv_widgets/lv_msgbox.c:108:30
	ldr	r0, [sp, #48]
	.loc	10 108 36 is_stmt 0             @ lvgl/src/lv_widgets/lv_msgbox.c:108:36
	ldrsh.w	r1, [sp, #42]
	.loc	10 108 13                       @ lvgl/src/lv_widgets/lv_msgbox.c:108:13
	bl	lv_obj_set_width
	.loc	10 109 9 is_stmt 1              @ lvgl/src/lv_widgets/lv_msgbox.c:109:9
	b	.LBB0_29
.Ltmp26:
.LBB0_19:
	.loc	10 111 30                       @ lvgl/src/lv_widgets/lv_msgbox.c:111:30
	ldr	r0, [sp, #48]
	.loc	10 111 36 is_stmt 0             @ lvgl/src/lv_widgets/lv_msgbox.c:111:36
	str	r0, [sp, #20]                   @ 4-byte Spill
	ldrsh.w	r0, [sp, #42]
	str	r0, [sp, #24]                   @ 4-byte Spill
	movs	r0, #0
	bl	lv_disp_get_dpi
	movs	r2, #80
	mov.w	r1, #400
	smlabb	r0, r0, r1, r2
	movw	r1, #26215
	movt	r1, #26214
	smmul	r1, r0, r1
	asrs	r0, r1, #6
	add.w	r0, r0, r1, lsr #31
	cmp	r0, #2
	blt	.LBB0_21
	b	.LBB0_20
.LBB0_20:
	.loc	10 0 36                         @ lvgl/src/lv_widgets/lv_msgbox.c:0:36
	movs	r0, #0
	.loc	10 111 36                       @ lvgl/src/lv_widgets/lv_msgbox.c:111:36
	bl	lv_disp_get_dpi
	movs	r2, #80
	mov.w	r1, #400
	smlabb	r0, r0, r1, r2
	movw	r1, #26215
	movt	r1, #26214
	smmul	r1, r0, r1
	asrs	r0, r1, #6
	add.w	r0, r0, r1, lsr #31
	str	r0, [sp, #16]                   @ 4-byte Spill
	b	.LBB0_22
.LBB0_21:
	.loc	10 0 36                         @ lvgl/src/lv_widgets/lv_msgbox.c:0:36
	movs	r0, #1
	.loc	10 111 36                       @ lvgl/src/lv_widgets/lv_msgbox.c:111:36
	str	r0, [sp, #16]                   @ 4-byte Spill
	b	.LBB0_22
.LBB0_22:
	ldr	r0, [sp, #24]                   @ 4-byte Reload
	ldr	r1, [sp, #16]                   @ 4-byte Reload
	cmp	r0, r1
	bge	.LBB0_24
	b	.LBB0_23
.LBB0_23:
	ldrsh.w	r0, [sp, #42]
	str	r0, [sp, #12]                   @ 4-byte Spill
	b	.LBB0_28
.LBB0_24:
	.loc	10 0 36                         @ lvgl/src/lv_widgets/lv_msgbox.c:0:36
	movs	r0, #0
	.loc	10 111 36                       @ lvgl/src/lv_widgets/lv_msgbox.c:111:36
	bl	lv_disp_get_dpi
	movs	r2, #80
	mov.w	r1, #400
	smlabb	r0, r0, r1, r2
	movw	r1, #26215
	movt	r1, #26214
	smmul	r1, r0, r1
	asrs	r0, r1, #6
	add.w	r0, r0, r1, lsr #31
	cmp	r0, #2
	blt	.LBB0_26
	b	.LBB0_25
.LBB0_25:
	.loc	10 0 36                         @ lvgl/src/lv_widgets/lv_msgbox.c:0:36
	movs	r0, #0
	.loc	10 111 36                       @ lvgl/src/lv_widgets/lv_msgbox.c:111:36
	bl	lv_disp_get_dpi
	movs	r2, #80
	mov.w	r1, #400
	smlabb	r0, r0, r1, r2
	movw	r1, #26215
	movt	r1, #26214
	smmul	r1, r0, r1
	asrs	r0, r1, #6
	add.w	r0, r0, r1, lsr #31
	str	r0, [sp, #8]                    @ 4-byte Spill
	b	.LBB0_27
.LBB0_26:
	.loc	10 0 36                         @ lvgl/src/lv_widgets/lv_msgbox.c:0:36
	movs	r0, #1
	.loc	10 111 36                       @ lvgl/src/lv_widgets/lv_msgbox.c:111:36
	str	r0, [sp, #8]                    @ 4-byte Spill
	b	.LBB0_27
.LBB0_27:
	ldr	r0, [sp, #8]                    @ 4-byte Reload
	str	r0, [sp, #12]                   @ 4-byte Spill
	b	.LBB0_28
.LBB0_28:
	ldr	r0, [sp, #20]                   @ 4-byte Reload
	ldr	r1, [sp, #12]                   @ 4-byte Reload
	.loc	10 111 13                       @ lvgl/src/lv_widgets/lv_msgbox.c:111:13
	sxth	r1, r1
	bl	lv_obj_set_width
	b	.LBB0_29
.Ltmp27:
.LBB0_29:
	.loc	10 113 22 is_stmt 1             @ lvgl/src/lv_widgets/lv_msgbox.c:113:22
	ldr	r0, [sp, #48]
	.loc	10 113 9 is_stmt 0              @ lvgl/src/lv_widgets/lv_msgbox.c:113:9
	mov	r1, sp
	movs	r3, #0
	str	r3, [r1]
	mov	r1, r3
	mov	r2, r3
	bl	lv_obj_align
	.loc	10 114 29 is_stmt 1             @ lvgl/src/lv_widgets/lv_msgbox.c:114:29
	ldr	r0, [sp, #48]
	.loc	10 114 9 is_stmt 0              @ lvgl/src/lv_widgets/lv_msgbox.c:114:9
	movw	r1, :lower16:lv_msgbox_default_event_cb
	movt	r1, :upper16:lv_msgbox_default_event_cb
	bl	lv_obj_set_event_cb
	.loc	10 117 24 is_stmt 1             @ lvgl/src/lv_widgets/lv_msgbox.c:117:24
	ldr	r0, [sp, #48]
	movs	r1, #24
	.loc	10 117 9 is_stmt 0              @ lvgl/src/lv_widgets/lv_msgbox.c:117:9
	bl	lv_theme_apply
	.loc	10 119 5 is_stmt 1              @ lvgl/src/lv_widgets/lv_msgbox.c:119:5
	b	.LBB0_33
.Ltmp28:
.LBB0_30:
	.loc	10 122 58                       @ lvgl/src/lv_widgets/lv_msgbox.c:122:58
	ldr	r0, [sp, #52]
	.loc	10 122 38 is_stmt 0             @ lvgl/src/lv_widgets/lv_msgbox.c:122:38
	bl	lv_obj_get_ext_attr
	.loc	10 122 27                       @ lvgl/src/lv_widgets/lv_msgbox.c:122:27
	str	r0, [sp, #36]
	.loc	10 124 37 is_stmt 1             @ lvgl/src/lv_widgets/lv_msgbox.c:124:37
	ldr	r0, [sp, #48]
	.loc	10 124 43 is_stmt 0             @ lvgl/src/lv_widgets/lv_msgbox.c:124:43
	ldr	r1, [sp, #36]
	.loc	10 124 53                       @ lvgl/src/lv_widgets/lv_msgbox.c:124:53
	ldr	r1, [r1, #4]
	.loc	10 124 21                       @ lvgl/src/lv_widgets/lv_msgbox.c:124:21
	bl	lv_label_create
	.loc	10 124 9                        @ lvgl/src/lv_widgets/lv_msgbox.c:124:9
	ldr	r1, [sp, #44]
	.loc	10 124 19                       @ lvgl/src/lv_widgets/lv_msgbox.c:124:19
	str	r0, [r1, #4]
.Ltmp29:
	.loc	10 127 12 is_stmt 1             @ lvgl/src/lv_widgets/lv_msgbox.c:127:12
	ldr	r0, [sp, #36]
	.loc	10 127 22 is_stmt 0             @ lvgl/src/lv_widgets/lv_msgbox.c:127:22
	ldr	r0, [r0, #8]
.Ltmp30:
	.loc	10 127 12                       @ lvgl/src/lv_widgets/lv_msgbox.c:127:12
	cbz	r0, .LBB0_32
	b	.LBB0_31
.LBB0_31:
.Ltmp31:
	.loc	10 127 60                       @ lvgl/src/lv_widgets/lv_msgbox.c:127:60
	ldr	r0, [sp, #48]
	.loc	10 127 66                       @ lvgl/src/lv_widgets/lv_msgbox.c:127:66
	ldr	r1, [sp, #36]
	.loc	10 127 76                       @ lvgl/src/lv_widgets/lv_msgbox.c:127:76
	ldr	r1, [r1, #8]
	.loc	10 127 40                       @ lvgl/src/lv_widgets/lv_msgbox.c:127:40
	bl	lv_btnmatrix_create
	.loc	10 127 28                       @ lvgl/src/lv_widgets/lv_msgbox.c:127:28
	ldr	r1, [sp, #44]
	.loc	10 127 38                       @ lvgl/src/lv_widgets/lv_msgbox.c:127:38
	str	r0, [r1, #8]
	.loc	10 127 28                       @ lvgl/src/lv_widgets/lv_msgbox.c:127:28
	b	.LBB0_32
.Ltmp32:
.LBB0_32:
	.loc	10 130 30 is_stmt 1             @ lvgl/src/lv_widgets/lv_msgbox.c:130:30
	ldr	r0, [sp, #48]
	movs	r2, #255
	.loc	10 130 9 is_stmt 0              @ lvgl/src/lv_widgets/lv_msgbox.c:130:9
	mov	r1, r2
	bl	lv_obj_refresh_style
	b	.LBB0_33
.Ltmp33:
.LBB0_33:
	.loc	10 135 12 is_stmt 1             @ lvgl/src/lv_widgets/lv_msgbox.c:135:12
	ldr	r0, [sp, #48]
	.loc	10 135 5 is_stmt 0              @ lvgl/src/lv_widgets/lv_msgbox.c:135:5
	str	r0, [sp, #60]
	b	.LBB0_34
.LBB0_34:
	.loc	10 136 1 is_stmt 1              @ lvgl/src/lv_widgets/lv_msgbox.c:136:1
	ldr	r0, [sp, #60]
	add	sp, #64
	pop	{r7, pc}
.Ltmp34:
.Lfunc_end0:
	.size	lv_msgbox_create, .Lfunc_end0-lv_msgbox_create
	.cfi_endproc
	.cantunwind
	.fnend
                                        @ -- End function
	.section	.text.lv_msgbox_signal,"ax",%progbits
	.p2align	3                               @ -- Begin function lv_msgbox_signal
	.type	lv_msgbox_signal,%function
	.code	16                              @ @lv_msgbox_signal
	.thumb_func
lv_msgbox_signal:
.Lfunc_begin1:
	.loc	10 443 0                        @ lvgl/src/lv_widgets/lv_msgbox.c:443:0
	.fnstart
	.cfi_startproc
@ %bb.0:
	.save	{r7, lr}
	push	{r7, lr}
	.cfi_def_cfa_offset 8
	.cfi_offset lr, -4
	.cfi_offset r7, -8
	.pad	#56
	sub	sp, #56
	.cfi_def_cfa_offset 64
                                        @ kill: def $r3 killed $r1
	str	r0, [sp, #48]
	strb.w	r1, [sp, #47]
	str	r2, [sp, #40]
	movs	r0, #0
.Ltmp35:
	.loc	10 448 10 prologue_end          @ lvgl/src/lv_widgets/lv_msgbox.c:448:10
	strb.w	r0, [sp, #38]
.Ltmp36:
	.loc	10 449 8                        @ lvgl/src/lv_widgets/lv_msgbox.c:449:8
	ldrb.w	r0, [sp, #47]
.Ltmp37:
	.loc	10 449 8 is_stmt 0              @ lvgl/src/lv_widgets/lv_msgbox.c:449:8
	cmp	r0, #24
	bne	.LBB1_6
	b	.LBB1_1
.LBB1_1:
.Ltmp38:
	.loc	10 450 29 is_stmt 1             @ lvgl/src/lv_widgets/lv_msgbox.c:450:29
	ldr	r0, [sp, #40]
	.loc	10 450 19 is_stmt 0             @ lvgl/src/lv_widgets/lv_msgbox.c:450:19
	ldrb	r0, [r0]
	.loc	10 450 17                       @ lvgl/src/lv_widgets/lv_msgbox.c:450:17
	strb.w	r0, [sp, #38]
.Ltmp39:
	.loc	10 451 12 is_stmt 1             @ lvgl/src/lv_widgets/lv_msgbox.c:451:12
	ldrsb.w	r0, [sp, #38]
.Ltmp40:
	.loc	10 451 12 is_stmt 0             @ lvgl/src/lv_widgets/lv_msgbox.c:451:12
	cmp	r0, #18
	bne	.LBB1_3
	b	.LBB1_2
.LBB1_2:
	.loc	10 0 12                         @ lvgl/src/lv_widgets/lv_msgbox.c:0:12
	movs	r0, #20
.Ltmp41:
	.loc	10 451 44                       @ lvgl/src/lv_widgets/lv_msgbox.c:451:44
	strb.w	r0, [sp, #38]
	.loc	10 451 36                       @ lvgl/src/lv_widgets/lv_msgbox.c:451:36
	b	.LBB1_3
.Ltmp42:
.LBB1_3:
	.loc	10 452 12 is_stmt 1             @ lvgl/src/lv_widgets/lv_msgbox.c:452:12
	ldrsb.w	r0, [sp, #38]
.Ltmp43:
	.loc	10 452 12 is_stmt 0             @ lvgl/src/lv_widgets/lv_msgbox.c:452:12
	cmp	r0, #17
	bne	.LBB1_5
	b	.LBB1_4
.LBB1_4:
	.loc	10 0 12                         @ lvgl/src/lv_widgets/lv_msgbox.c:0:12
	movs	r0, #19
.Ltmp44:
	.loc	10 452 42                       @ lvgl/src/lv_widgets/lv_msgbox.c:452:42
	strb.w	r0, [sp, #38]
	.loc	10 452 34                       @ lvgl/src/lv_widgets/lv_msgbox.c:452:34
	b	.LBB1_5
.Ltmp45:
.LBB1_5:
	.loc	10 0 34                         @ lvgl/src/lv_widgets/lv_msgbox.c:0:34
	add.w	r0, sp, #38
	.loc	10 454 15 is_stmt 1             @ lvgl/src/lv_widgets/lv_msgbox.c:454:15
	str	r0, [sp, #40]
	.loc	10 455 5                        @ lvgl/src/lv_widgets/lv_msgbox.c:455:5
	b	.LBB1_6
.Ltmp46:
.LBB1_6:
	.loc	10 458 8                        @ lvgl/src/lv_widgets/lv_msgbox.c:458:8
	ldrb.w	r0, [sp, #47]
.Ltmp47:
	.loc	10 458 8 is_stmt 0              @ lvgl/src/lv_widgets/lv_msgbox.c:458:8
	cmp	r0, #8
	bne	.LBB1_10
	b	.LBB1_7
.LBB1_7:
.Ltmp48:
	.loc	10 459 38 is_stmt 1             @ lvgl/src/lv_widgets/lv_msgbox.c:459:38
	ldr	r0, [sp, #40]
	.loc	10 459 31 is_stmt 0             @ lvgl/src/lv_widgets/lv_msgbox.c:459:31
	str	r0, [sp, #32]
	.loc	10 460 44 is_stmt 1             @ lvgl/src/lv_widgets/lv_msgbox.c:460:44
	ldr	r0, [sp, #48]
	.loc	10 460 50 is_stmt 0             @ lvgl/src/lv_widgets/lv_msgbox.c:460:50
	ldr	r1, [sp, #32]
	.loc	10 460 56                       @ lvgl/src/lv_widgets/lv_msgbox.c:460:56
	ldrb	r1, [r1]
	.loc	10 460 24                       @ lvgl/src/lv_widgets/lv_msgbox.c:460:24
	bl	lv_msgbox_get_style
	.loc	10 460 9                        @ lvgl/src/lv_widgets/lv_msgbox.c:460:9
	ldr	r1, [sp, #32]
	.loc	10 460 22                       @ lvgl/src/lv_widgets/lv_msgbox.c:460:22
	str	r0, [r1, #4]
.Ltmp49:
	.loc	10 461 12 is_stmt 1             @ lvgl/src/lv_widgets/lv_msgbox.c:461:12
	ldr	r0, [sp, #32]
	.loc	10 461 18 is_stmt 0             @ lvgl/src/lv_widgets/lv_msgbox.c:461:18
	ldr	r0, [r0, #4]
.Ltmp50:
	.loc	10 461 12                       @ lvgl/src/lv_widgets/lv_msgbox.c:461:12
	cbz	r0, .LBB1_9
	b	.LBB1_8
.LBB1_8:
	.loc	10 0 12                         @ lvgl/src/lv_widgets/lv_msgbox.c:0:12
	movs	r0, #1
.Ltmp51:
	.loc	10 461 34                       @ lvgl/src/lv_widgets/lv_msgbox.c:461:34
	strb.w	r0, [sp, #55]
	b	.LBB1_64
.LBB1_9:
	.loc	10 462 21 is_stmt 1             @ lvgl/src/lv_widgets/lv_msgbox.c:462:21
	movw	r0, :lower16:ancestor_signal
	movt	r0, :upper16:ancestor_signal
	ldr	r3, [r0]
	.loc	10 462 37 is_stmt 0             @ lvgl/src/lv_widgets/lv_msgbox.c:462:37
	ldr	r0, [sp, #48]
	.loc	10 462 43                       @ lvgl/src/lv_widgets/lv_msgbox.c:462:43
	ldrb.w	r1, [sp, #47]
	.loc	10 462 49                       @ lvgl/src/lv_widgets/lv_msgbox.c:462:49
	ldr	r2, [sp, #40]
	.loc	10 462 21                       @ lvgl/src/lv_widgets/lv_msgbox.c:462:21
	blx	r3
	.loc	10 462 14                       @ lvgl/src/lv_widgets/lv_msgbox.c:462:14
	strb.w	r0, [sp, #55]
	b	.LBB1_64
.Ltmp52:
.LBB1_10:
	.loc	10 464 13 is_stmt 1             @ lvgl/src/lv_widgets/lv_msgbox.c:464:13
	ldrb.w	r0, [sp, #47]
.Ltmp53:
	.loc	10 464 13 is_stmt 0             @ lvgl/src/lv_widgets/lv_msgbox.c:464:13
	cmp	r0, #9
	bne	.LBB1_19
	b	.LBB1_11
.LBB1_11:
.Ltmp54:
	.loc	10 465 38 is_stmt 1             @ lvgl/src/lv_widgets/lv_msgbox.c:465:38
	ldr	r0, [sp, #40]
	.loc	10 465 31 is_stmt 0             @ lvgl/src/lv_widgets/lv_msgbox.c:465:31
	str	r0, [sp, #28]
	.loc	10 466 53 is_stmt 1             @ lvgl/src/lv_widgets/lv_msgbox.c:466:53
	ldr	r0, [sp, #48]
	.loc	10 466 33 is_stmt 0             @ lvgl/src/lv_widgets/lv_msgbox.c:466:33
	bl	lv_obj_get_ext_attr
	.loc	10 466 27                       @ lvgl/src/lv_widgets/lv_msgbox.c:466:27
	str	r0, [sp, #24]
.Ltmp55:
	.loc	10 467 12 is_stmt 1             @ lvgl/src/lv_widgets/lv_msgbox.c:467:12
	ldr	r0, [sp, #24]
	.loc	10 467 17 is_stmt 0             @ lvgl/src/lv_widgets/lv_msgbox.c:467:17
	ldr	r0, [r0, #8]
	.loc	10 467 22                       @ lvgl/src/lv_widgets/lv_msgbox.c:467:22
	cbz	r0, .LBB1_14
	b	.LBB1_12
.LBB1_12:
	.loc	10 467 25                       @ lvgl/src/lv_widgets/lv_msgbox.c:467:25
	ldr	r0, [sp, #28]
	.loc	10 467 31                       @ lvgl/src/lv_widgets/lv_msgbox.c:467:31
	ldrb	r0, [r0]
.Ltmp56:
	.loc	10 467 12                       @ lvgl/src/lv_widgets/lv_msgbox.c:467:12
	cmp	r0, #64
	bne	.LBB1_14
	b	.LBB1_13
.LBB1_13:
.Ltmp57:
	.loc	10 468 45 is_stmt 1             @ lvgl/src/lv_widgets/lv_msgbox.c:468:45
	ldr	r0, [sp, #24]
	.loc	10 468 50 is_stmt 0             @ lvgl/src/lv_widgets/lv_msgbox.c:468:50
	ldr	r0, [r0, #8]
	movs	r1, #0
	.loc	10 468 28                       @ lvgl/src/lv_widgets/lv_msgbox.c:468:28
	bl	lv_obj_get_state
	.loc	10 468 13                       @ lvgl/src/lv_widgets/lv_msgbox.c:468:13
	ldr	r1, [sp, #28]
	.loc	10 468 26                       @ lvgl/src/lv_widgets/lv_msgbox.c:468:26
	strb	r0, [r1, #1]
	.loc	10 469 9 is_stmt 1              @ lvgl/src/lv_widgets/lv_msgbox.c:469:9
	b	.LBB1_18
.Ltmp58:
.LBB1_14:
	.loc	10 470 17                       @ lvgl/src/lv_widgets/lv_msgbox.c:470:17
	ldr	r0, [sp, #24]
	.loc	10 470 22 is_stmt 0             @ lvgl/src/lv_widgets/lv_msgbox.c:470:22
	ldr	r0, [r0, #8]
	.loc	10 470 27                       @ lvgl/src/lv_widgets/lv_msgbox.c:470:27
	cbz	r0, .LBB1_17
	b	.LBB1_15
.LBB1_15:
	.loc	10 470 30                       @ lvgl/src/lv_widgets/lv_msgbox.c:470:30
	ldr	r0, [sp, #28]
	.loc	10 470 36                       @ lvgl/src/lv_widgets/lv_msgbox.c:470:36
	ldrb	r0, [r0]
.Ltmp59:
	.loc	10 470 17                       @ lvgl/src/lv_widgets/lv_msgbox.c:470:17
	cmp	r0, #65
	bne	.LBB1_17
	b	.LBB1_16
.LBB1_16:
.Ltmp60:
	.loc	10 471 45 is_stmt 1             @ lvgl/src/lv_widgets/lv_msgbox.c:471:45
	ldr	r0, [sp, #24]
	.loc	10 471 50 is_stmt 0             @ lvgl/src/lv_widgets/lv_msgbox.c:471:50
	ldr	r0, [r0, #8]
	movs	r1, #1
	.loc	10 471 28                       @ lvgl/src/lv_widgets/lv_msgbox.c:471:28
	bl	lv_obj_get_state
	.loc	10 471 13                       @ lvgl/src/lv_widgets/lv_msgbox.c:471:13
	ldr	r1, [sp, #28]
	.loc	10 471 26                       @ lvgl/src/lv_widgets/lv_msgbox.c:471:26
	strb	r0, [r1, #1]
	.loc	10 472 9 is_stmt 1              @ lvgl/src/lv_widgets/lv_msgbox.c:472:9
	b	.LBB1_17
.Ltmp61:
.LBB1_17:
	.loc	10 0 9 is_stmt 0                @ lvgl/src/lv_widgets/lv_msgbox.c:0:9
	b	.LBB1_18
.LBB1_18:
	movs	r0, #1
	.loc	10 473 9 is_stmt 1              @ lvgl/src/lv_widgets/lv_msgbox.c:473:9
	strb.w	r0, [sp, #55]
	b	.LBB1_64
.Ltmp62:
.LBB1_19:
	.loc	10 0 9 is_stmt 0                @ lvgl/src/lv_widgets/lv_msgbox.c:0:9
	b	.LBB1_20
.LBB1_20:
	.loc	10 477 11 is_stmt 1             @ lvgl/src/lv_widgets/lv_msgbox.c:477:11
	movw	r0, :lower16:ancestor_signal
	movt	r0, :upper16:ancestor_signal
	ldr	r3, [r0]
	.loc	10 477 27 is_stmt 0             @ lvgl/src/lv_widgets/lv_msgbox.c:477:27
	ldr	r0, [sp, #48]
	.loc	10 477 33                       @ lvgl/src/lv_widgets/lv_msgbox.c:477:33
	ldrb.w	r1, [sp, #47]
	.loc	10 477 39                       @ lvgl/src/lv_widgets/lv_msgbox.c:477:39
	ldr	r2, [sp, #40]
	.loc	10 477 11                       @ lvgl/src/lv_widgets/lv_msgbox.c:477:11
	blx	r3
	.loc	10 477 9                        @ lvgl/src/lv_widgets/lv_msgbox.c:477:9
	strb.w	r0, [sp, #39]
.Ltmp63:
	.loc	10 478 8 is_stmt 1              @ lvgl/src/lv_widgets/lv_msgbox.c:478:8
	ldrb.w	r0, [sp, #39]
.Ltmp64:
	.loc	10 478 8 is_stmt 0              @ lvgl/src/lv_widgets/lv_msgbox.c:478:8
	cmp	r0, #1
	beq	.LBB1_22
	b	.LBB1_21
.LBB1_21:
.Ltmp65:
	.loc	10 478 33                       @ lvgl/src/lv_widgets/lv_msgbox.c:478:33
	ldrb.w	r0, [sp, #39]
	.loc	10 478 26                       @ lvgl/src/lv_widgets/lv_msgbox.c:478:26
	strb.w	r0, [sp, #55]
	b	.LBB1_64
.Ltmp66:
.LBB1_22:
	.loc	10 479 8 is_stmt 1              @ lvgl/src/lv_widgets/lv_msgbox.c:479:8
	ldrb.w	r0, [sp, #47]
.Ltmp67:
	.loc	10 479 8 is_stmt 0              @ lvgl/src/lv_widgets/lv_msgbox.c:479:8
	cmp	r0, #7
	bne	.LBB1_24
	b	.LBB1_23
.LBB1_23:
.Ltmp68:
	.loc	10 479 73                       @ lvgl/src/lv_widgets/lv_msgbox.c:479:73
	ldr	r0, [sp, #40]
	.loc	10 479 43                       @ lvgl/src/lv_widgets/lv_msgbox.c:479:43
	movw	r1, :lower16:.L.str.3
	movt	r1, :upper16:.L.str.3
	bl	lv_obj_handle_get_type_signal
	.loc	10 479 36                       @ lvgl/src/lv_widgets/lv_msgbox.c:479:36
	strb.w	r0, [sp, #55]
	b	.LBB1_64
.Ltmp69:
.LBB1_24:
	.loc	10 481 49 is_stmt 1             @ lvgl/src/lv_widgets/lv_msgbox.c:481:49
	ldr	r0, [sp, #48]
	.loc	10 481 29 is_stmt 0             @ lvgl/src/lv_widgets/lv_msgbox.c:481:29
	bl	lv_obj_get_ext_attr
	.loc	10 481 23                       @ lvgl/src/lv_widgets/lv_msgbox.c:481:23
	str	r0, [sp, #20]
.Ltmp70:
	.loc	10 482 8 is_stmt 1              @ lvgl/src/lv_widgets/lv_msgbox.c:482:8
	ldrb.w	r0, [sp, #47]
.Ltmp71:
	.loc	10 482 8 is_stmt 0              @ lvgl/src/lv_widgets/lv_msgbox.c:482:8
	cmp	r0, #2
	bne	.LBB1_28
	b	.LBB1_25
.LBB1_25:
.Ltmp72:
	.loc	10 483 29 is_stmt 1             @ lvgl/src/lv_widgets/lv_msgbox.c:483:29
	ldr	r0, [sp, #48]
	.loc	10 483 12 is_stmt 0             @ lvgl/src/lv_widgets/lv_msgbox.c:483:12
	bl	lv_obj_get_width
	.loc	10 483 56                       @ lvgl/src/lv_widgets/lv_msgbox.c:483:56
	str	r0, [sp, #4]                    @ 4-byte Spill
	ldr	r0, [sp, #40]
	.loc	10 483 38                       @ lvgl/src/lv_widgets/lv_msgbox.c:483:38
	bl	lv_area_get_width
	mov	r1, r0
.Ltmp73:
	.loc	10 483 12                       @ lvgl/src/lv_widgets/lv_msgbox.c:483:12
	ldr	r0, [sp, #4]                    @ 4-byte Reload
	cmp	r0, r1
	beq	.LBB1_27
	b	.LBB1_26
.LBB1_26:
.Ltmp74:
	.loc	10 484 26 is_stmt 1             @ lvgl/src/lv_widgets/lv_msgbox.c:484:26
	ldr	r0, [sp, #48]
	.loc	10 484 13 is_stmt 0             @ lvgl/src/lv_widgets/lv_msgbox.c:484:13
	bl	mbox_realign
	.loc	10 485 9 is_stmt 1              @ lvgl/src/lv_widgets/lv_msgbox.c:485:9
	b	.LBB1_27
.Ltmp75:
.LBB1_27:
	.loc	10 486 5                        @ lvgl/src/lv_widgets/lv_msgbox.c:486:5
	b	.LBB1_63
.Ltmp76:
.LBB1_28:
	.loc	10 487 13                       @ lvgl/src/lv_widgets/lv_msgbox.c:487:13
	ldrb.w	r0, [sp, #47]
.Ltmp77:
	.loc	10 487 13 is_stmt 0             @ lvgl/src/lv_widgets/lv_msgbox.c:487:13
	cmp	r0, #4
	bne	.LBB1_30
	b	.LBB1_29
.LBB1_29:
.Ltmp78:
	.loc	10 488 22 is_stmt 1             @ lvgl/src/lv_widgets/lv_msgbox.c:488:22
	ldr	r0, [sp, #48]
	.loc	10 488 9 is_stmt 0              @ lvgl/src/lv_widgets/lv_msgbox.c:488:9
	bl	mbox_realign
	.loc	10 489 5 is_stmt 1              @ lvgl/src/lv_widgets/lv_msgbox.c:489:5
	b	.LBB1_62
.Ltmp79:
.LBB1_30:
	.loc	10 490 13                       @ lvgl/src/lv_widgets/lv_msgbox.c:490:13
	ldrb.w	r0, [sp, #47]
.Ltmp80:
	.loc	10 490 13 is_stmt 0             @ lvgl/src/lv_widgets/lv_msgbox.c:490:13
	cmp	r0, #14
	bne	.LBB1_36
	b	.LBB1_31
.LBB1_31:
.Ltmp81:
	.loc	10 491 12 is_stmt 1             @ lvgl/src/lv_widgets/lv_msgbox.c:491:12
	ldr	r0, [sp, #20]
	.loc	10 491 17 is_stmt 0             @ lvgl/src/lv_widgets/lv_msgbox.c:491:17
	ldr	r0, [r0, #8]
.Ltmp82:
	.loc	10 491 12                       @ lvgl/src/lv_widgets/lv_msgbox.c:491:12
	cbz	r0, .LBB1_35
	b	.LBB1_32
.LBB1_32:
.Ltmp83:
	.loc	10 492 60 is_stmt 1             @ lvgl/src/lv_widgets/lv_msgbox.c:492:60
	ldr	r0, [sp, #20]
	.loc	10 492 65 is_stmt 0             @ lvgl/src/lv_widgets/lv_msgbox.c:492:65
	ldr	r0, [r0, #8]
	.loc	10 492 31                       @ lvgl/src/lv_widgets/lv_msgbox.c:492:31
	bl	lv_btnmatrix_get_focused_btn
	.loc	10 492 22                       @ lvgl/src/lv_widgets/lv_msgbox.c:492:22
	str	r0, [sp, #16]
.Ltmp84:
	.loc	10 493 16 is_stmt 1             @ lvgl/src/lv_widgets/lv_msgbox.c:493:16
	ldr	r0, [sp, #16]
	movw	r1, #65535
.Ltmp85:
	.loc	10 493 16 is_stmt 0             @ lvgl/src/lv_widgets/lv_msgbox.c:493:16
	cmp	r0, r1
	beq	.LBB1_34
	b	.LBB1_33
.LBB1_33:
.Ltmp86:
	.loc	10 493 63                       @ lvgl/src/lv_widgets/lv_msgbox.c:493:63
	ldr	r0, [sp, #48]
	movs	r1, #16
	add	r2, sp, #16
	.loc	10 493 49                       @ lvgl/src/lv_widgets/lv_msgbox.c:493:49
	bl	lv_event_send
	b	.LBB1_34
.Ltmp87:
.LBB1_34:
	.loc	10 494 9 is_stmt 1              @ lvgl/src/lv_widgets/lv_msgbox.c:494:9
	b	.LBB1_35
.Ltmp88:
.LBB1_35:
	.loc	10 495 5                        @ lvgl/src/lv_widgets/lv_msgbox.c:495:5
	b	.LBB1_61
.Ltmp89:
.LBB1_36:
	.loc	10 498 9                        @ lvgl/src/lv_widgets/lv_msgbox.c:498:9
	ldrb.w	r0, [sp, #47]
	.loc	10 498 35 is_stmt 0             @ lvgl/src/lv_widgets/lv_msgbox.c:498:35
	cmp	r0, #24
	beq	.LBB1_40
	b	.LBB1_37
.LBB1_37:
	.loc	10 498 38                       @ lvgl/src/lv_widgets/lv_msgbox.c:498:38
	ldrb.w	r0, [sp, #47]
	.loc	10 498 69                       @ lvgl/src/lv_widgets/lv_msgbox.c:498:69
	cmp	r0, #25
	beq	.LBB1_40
	b	.LBB1_38
.LBB1_38:
	.loc	10 500 9 is_stmt 1              @ lvgl/src/lv_widgets/lv_msgbox.c:500:9
	ldrb.w	r0, [sp, #47]
	.loc	10 500 33 is_stmt 0             @ lvgl/src/lv_widgets/lv_msgbox.c:500:33
	cmp	r0, #22
	beq	.LBB1_40
	b	.LBB1_39
.LBB1_39:
	.loc	10 500 36                       @ lvgl/src/lv_widgets/lv_msgbox.c:500:36
	ldrb.w	r0, [sp, #47]
.Ltmp90:
	.loc	10 498 9 is_stmt 1              @ lvgl/src/lv_widgets/lv_msgbox.c:498:9
	cmp	r0, #23
	bne	.LBB1_60
	b	.LBB1_40
.LBB1_40:
.Ltmp91:
	.loc	10 501 12                       @ lvgl/src/lv_widgets/lv_msgbox.c:501:12
	ldr	r0, [sp, #20]
	.loc	10 501 17 is_stmt 0             @ lvgl/src/lv_widgets/lv_msgbox.c:501:17
	ldr	r0, [r0, #8]
.Ltmp92:
	.loc	10 501 12                       @ lvgl/src/lv_widgets/lv_msgbox.c:501:12
	cbz	r0, .LBB1_42
	b	.LBB1_41
.LBB1_41:
.Ltmp93:
	.loc	10 502 13 is_stmt 1             @ lvgl/src/lv_widgets/lv_msgbox.c:502:13
	ldr	r0, [sp, #20]
	.loc	10 502 18 is_stmt 0             @ lvgl/src/lv_widgets/lv_msgbox.c:502:18
	ldr	r0, [r0, #8]
	.loc	10 502 24                       @ lvgl/src/lv_widgets/lv_msgbox.c:502:24
	ldr	r3, [r0, #28]
	.loc	10 502 45                       @ lvgl/src/lv_widgets/lv_msgbox.c:502:45
	ldrb.w	r1, [sp, #47]
	.loc	10 502 51                       @ lvgl/src/lv_widgets/lv_msgbox.c:502:51
	ldr	r2, [sp, #40]
	.loc	10 502 13                       @ lvgl/src/lv_widgets/lv_msgbox.c:502:13
	blx	r3
	.loc	10 503 9 is_stmt 1              @ lvgl/src/lv_widgets/lv_msgbox.c:503:9
	b	.LBB1_42
.Ltmp94:
.LBB1_42:
	.loc	10 508 12                       @ lvgl/src/lv_widgets/lv_msgbox.c:508:12
	ldrb.w	r0, [sp, #47]
.Ltmp95:
	.loc	10 508 12 is_stmt 0             @ lvgl/src/lv_widgets/lv_msgbox.c:508:12
	cmp	r0, #22
	bne	.LBB1_49
	b	.LBB1_43
.LBB1_43:
.Ltmp96:
	.loc	10 509 42 is_stmt 1             @ lvgl/src/lv_widgets/lv_msgbox.c:509:42
	bl	lv_indev_get_act
	.loc	10 509 26 is_stmt 0             @ lvgl/src/lv_widgets/lv_msgbox.c:509:26
	str	r0, [sp, #12]
	.loc	10 510 60 is_stmt 1             @ lvgl/src/lv_widgets/lv_msgbox.c:510:60
	ldr	r0, [sp, #12]
	.loc	10 510 42 is_stmt 0             @ lvgl/src/lv_widgets/lv_msgbox.c:510:42
	bl	lv_indev_get_type
	.loc	10 510 29                       @ lvgl/src/lv_widgets/lv_msgbox.c:510:29
	strb.w	r0, [sp, #11]
.Ltmp97:
	.loc	10 511 16 is_stmt 1             @ lvgl/src/lv_widgets/lv_msgbox.c:511:16
	ldrb.w	r0, [sp, #11]
.Ltmp98:
	.loc	10 511 16 is_stmt 0             @ lvgl/src/lv_widgets/lv_msgbox.c:511:16
	cmp	r0, #4
	bne	.LBB1_48
	b	.LBB1_44
.LBB1_44:
.Ltmp99:
	.loc	10 513 58 is_stmt 1             @ lvgl/src/lv_widgets/lv_msgbox.c:513:58
	ldr	r0, [sp, #48]
	.loc	10 513 41 is_stmt 0             @ lvgl/src/lv_widgets/lv_msgbox.c:513:41
	bl	lv_obj_get_group
	.loc	10 513 20                       @ lvgl/src/lv_widgets/lv_msgbox.c:513:20
	bl	lv_group_get_editing
.Ltmp100:
	.loc	10 513 20                       @ lvgl/src/lv_widgets/lv_msgbox.c:513:20
	cbz	r0, .LBB1_46
	b	.LBB1_45
.LBB1_45:
.Ltmp101:
	.loc	10 513 95                       @ lvgl/src/lv_widgets/lv_msgbox.c:513:95
	ldr	r0, [sp, #20]
	.loc	10 513 100                      @ lvgl/src/lv_widgets/lv_msgbox.c:513:100
	ldr	r0, [r0, #8]
	movs	r1, #0
	.loc	10 513 66                       @ lvgl/src/lv_widgets/lv_msgbox.c:513:66
	bl	lv_btnmatrix_set_focused_btn
	b	.LBB1_47
.LBB1_46:
	.loc	10 514 51 is_stmt 1             @ lvgl/src/lv_widgets/lv_msgbox.c:514:51
	ldr	r0, [sp, #20]
	.loc	10 514 56 is_stmt 0             @ lvgl/src/lv_widgets/lv_msgbox.c:514:56
	ldr	r0, [r0, #8]
	movw	r1, #65535
	.loc	10 514 22                       @ lvgl/src/lv_widgets/lv_msgbox.c:514:22
	bl	lv_btnmatrix_set_focused_btn
	b	.LBB1_47
.Ltmp102:
.LBB1_47:
	.loc	10 515 13 is_stmt 1             @ lvgl/src/lv_widgets/lv_msgbox.c:515:13
	b	.LBB1_48
.Ltmp103:
.LBB1_48:
	.loc	10 516 9                        @ lvgl/src/lv_widgets/lv_msgbox.c:516:9
	b	.LBB1_49
.Ltmp104:
.LBB1_49:
	.loc	10 518 12                       @ lvgl/src/lv_widgets/lv_msgbox.c:518:12
	ldr	r0, [sp, #20]
	.loc	10 518 17 is_stmt 0             @ lvgl/src/lv_widgets/lv_msgbox.c:518:17
	ldr	r0, [r0, #8]
	.loc	10 518 22                       @ lvgl/src/lv_widgets/lv_msgbox.c:518:22
	cbz	r0, .LBB1_59
	b	.LBB1_50
.LBB1_50:
	.loc	10 518 26                       @ lvgl/src/lv_widgets/lv_msgbox.c:518:26
	ldrb.w	r0, [sp, #47]
	.loc	10 518 50                       @ lvgl/src/lv_widgets/lv_msgbox.c:518:50
	cmp	r0, #22
	beq	.LBB1_52
	b	.LBB1_51
.LBB1_51:
	.loc	10 518 53                       @ lvgl/src/lv_widgets/lv_msgbox.c:518:53
	ldrb.w	r0, [sp, #47]
.Ltmp105:
	.loc	10 518 12                       @ lvgl/src/lv_widgets/lv_msgbox.c:518:12
	cmp	r0, #23
	bne	.LBB1_59
	b	.LBB1_52
.LBB1_52:
.Ltmp106:
	.loc	10 519 49 is_stmt 1             @ lvgl/src/lv_widgets/lv_msgbox.c:519:49
	ldr	r0, [sp, #48]
	movs	r1, #0
	.loc	10 519 32 is_stmt 0             @ lvgl/src/lv_widgets/lv_msgbox.c:519:32
	bl	lv_obj_get_state
	.loc	10 519 24                       @ lvgl/src/lv_widgets/lv_msgbox.c:519:24
	strb.w	r0, [sp, #10]
.Ltmp107:
	.loc	10 520 16 is_stmt 1             @ lvgl/src/lv_widgets/lv_msgbox.c:520:16
	ldrb.w	r0, [sp, #10]
.Ltmp108:
	.loc	10 520 16 is_stmt 0             @ lvgl/src/lv_widgets/lv_msgbox.c:520:16
	lsls	r0, r0, #30
	cmp	r0, #0
	bpl	.LBB1_54
	b	.LBB1_53
.LBB1_53:
.Ltmp109:
	.loc	10 521 34 is_stmt 1             @ lvgl/src/lv_widgets/lv_msgbox.c:521:34
	ldr	r0, [sp, #20]
	.loc	10 521 39 is_stmt 0             @ lvgl/src/lv_widgets/lv_msgbox.c:521:39
	ldr	r0, [r0, #8]
	movs	r1, #2
	.loc	10 521 17                       @ lvgl/src/lv_widgets/lv_msgbox.c:521:17
	bl	lv_obj_set_state
	.loc	10 522 13 is_stmt 1             @ lvgl/src/lv_widgets/lv_msgbox.c:522:13
	b	.LBB1_55
.Ltmp110:
.LBB1_54:
	.loc	10 524 36                       @ lvgl/src/lv_widgets/lv_msgbox.c:524:36
	ldr	r0, [sp, #20]
	.loc	10 524 41 is_stmt 0             @ lvgl/src/lv_widgets/lv_msgbox.c:524:41
	ldr	r0, [r0, #8]
	movs	r1, #2
	.loc	10 524 17                       @ lvgl/src/lv_widgets/lv_msgbox.c:524:17
	bl	lv_obj_clear_state
	b	.LBB1_55
.Ltmp111:
.LBB1_55:
	.loc	10 527 16 is_stmt 1             @ lvgl/src/lv_widgets/lv_msgbox.c:527:16
	ldrb.w	r0, [sp, #10]
.Ltmp112:
	.loc	10 527 16 is_stmt 0             @ lvgl/src/lv_widgets/lv_msgbox.c:527:16
	lsls	r0, r0, #29
	cmp	r0, #0
	bpl	.LBB1_57
	b	.LBB1_56
.LBB1_56:
.Ltmp113:
	.loc	10 528 34 is_stmt 1             @ lvgl/src/lv_widgets/lv_msgbox.c:528:34
	ldr	r0, [sp, #20]
	.loc	10 528 39 is_stmt 0             @ lvgl/src/lv_widgets/lv_msgbox.c:528:39
	ldr	r0, [r0, #8]
	movs	r1, #4
	.loc	10 528 17                       @ lvgl/src/lv_widgets/lv_msgbox.c:528:17
	bl	lv_obj_set_state
	.loc	10 529 13 is_stmt 1             @ lvgl/src/lv_widgets/lv_msgbox.c:529:13
	b	.LBB1_58
.Ltmp114:
.LBB1_57:
	.loc	10 531 36                       @ lvgl/src/lv_widgets/lv_msgbox.c:531:36
	ldr	r0, [sp, #20]
	.loc	10 531 41 is_stmt 0             @ lvgl/src/lv_widgets/lv_msgbox.c:531:41
	ldr	r0, [r0, #8]
	movs	r1, #4
	.loc	10 531 17                       @ lvgl/src/lv_widgets/lv_msgbox.c:531:17
	bl	lv_obj_clear_state
	b	.LBB1_58
.Ltmp115:
.LBB1_58:
	.loc	10 534 9 is_stmt 1              @ lvgl/src/lv_widgets/lv_msgbox.c:534:9
	b	.LBB1_59
.Ltmp116:
.LBB1_59:
	.loc	10 536 5                        @ lvgl/src/lv_widgets/lv_msgbox.c:536:5
	b	.LBB1_60
.Ltmp117:
.LBB1_60:
	.loc	10 0 5 is_stmt 0                @ lvgl/src/lv_widgets/lv_msgbox.c:0:5
	b	.LBB1_61
.LBB1_61:
	b	.LBB1_62
.LBB1_62:
	b	.LBB1_63
.LBB1_63:
	.loc	10 538 12 is_stmt 1             @ lvgl/src/lv_widgets/lv_msgbox.c:538:12
	ldrb.w	r0, [sp, #39]
	.loc	10 538 5 is_stmt 0              @ lvgl/src/lv_widgets/lv_msgbox.c:538:5
	strb.w	r0, [sp, #55]
	b	.LBB1_64
.LBB1_64:
	.loc	10 539 1 is_stmt 1              @ lvgl/src/lv_widgets/lv_msgbox.c:539:1
	ldrb.w	r0, [sp, #55]
	add	sp, #56
	pop	{r7, pc}
.Ltmp118:
.Lfunc_end1:
	.size	lv_msgbox_signal, .Lfunc_end1-lv_msgbox_signal
	.cfi_endproc
	.cantunwind
	.fnend
                                        @ -- End function
	.section	.text.lv_cont_set_fit2,"ax",%progbits
	.p2align	3                               @ -- Begin function lv_cont_set_fit2
	.type	lv_cont_set_fit2,%function
	.code	16                              @ @lv_cont_set_fit2
	.thumb_func
lv_cont_set_fit2:
.Lfunc_begin2:
	.loc	12 158 0                        @ lvgl/src/lv_widgets/lv_cont.h:158:0
	.fnstart
	.cfi_startproc
@ %bb.0:
	.save	{r7, lr}
	push	{r7, lr}
	.cfi_def_cfa_offset 8
	.cfi_offset lr, -4
	.cfi_offset r7, -8
	.pad	#16
	sub	sp, #16
	.cfi_def_cfa_offset 24
                                        @ kill: def $r3 killed $r2
                                        @ kill: def $r3 killed $r1
	str	r0, [sp, #12]
	strb.w	r1, [sp, #11]
	strb.w	r2, [sp, #10]
.Ltmp119:
	.loc	12 159 22 prologue_end          @ lvgl/src/lv_widgets/lv_cont.h:159:22
	ldr	r0, [sp, #12]
	.loc	12 159 28 is_stmt 0             @ lvgl/src/lv_widgets/lv_cont.h:159:28
	ldrb.w	r2, [sp, #11]
	.loc	12 159 38                       @ lvgl/src/lv_widgets/lv_cont.h:159:38
	ldrb.w	r3, [sp, #10]
	.loc	12 159 5                        @ lvgl/src/lv_widgets/lv_cont.h:159:5
	mov	r1, sp
	str	r3, [r1]
	mov	r1, r2
	bl	lv_cont_set_fit4
	.loc	12 160 1 is_stmt 1              @ lvgl/src/lv_widgets/lv_cont.h:160:1
	add	sp, #16
	pop	{r7, pc}
.Ltmp120:
.Lfunc_end2:
	.size	lv_cont_set_fit2, .Lfunc_end2-lv_cont_set_fit2
	.cfi_endproc
	.cantunwind
	.fnend
                                        @ -- End function
	.section	.text.lv_msgbox_default_event_cb,"ax",%progbits
	.p2align	3                               @ -- Begin function lv_msgbox_default_event_cb
	.type	lv_msgbox_default_event_cb,%function
	.code	16                              @ @lv_msgbox_default_event_cb
	.thumb_func
lv_msgbox_default_event_cb:
.Lfunc_begin3:
	.loc	10 614 0                        @ lvgl/src/lv_widgets/lv_msgbox.c:614:0
	.fnstart
	.cfi_startproc
@ %bb.0:
	.save	{r7, lr}
	push	{r7, lr}
	.cfi_def_cfa_offset 8
	.cfi_offset lr, -4
	.cfi_offset r7, -8
	.pad	#16
	sub	sp, #16
	.cfi_def_cfa_offset 24
                                        @ kill: def $r2 killed $r1
	str	r0, [sp, #12]
	strb.w	r1, [sp, #11]
.Ltmp121:
	.loc	10 615 8 prologue_end           @ lvgl/src/lv_widgets/lv_msgbox.c:615:8
	ldrb.w	r0, [sp, #11]
.Ltmp122:
	.loc	10 615 8 is_stmt 0              @ lvgl/src/lv_widgets/lv_msgbox.c:615:8
	cmp	r0, #16
	beq	.LBB3_2
	b	.LBB3_1
.LBB3_1:
.Ltmp123:
	.loc	10 615 41                       @ lvgl/src/lv_widgets/lv_msgbox.c:615:41
	b	.LBB3_5
.Ltmp124:
.LBB3_2:
	.loc	10 617 48 is_stmt 1             @ lvgl/src/lv_widgets/lv_msgbox.c:617:48
	ldr	r0, [sp, #12]
	.loc	10 617 23 is_stmt 0             @ lvgl/src/lv_widgets/lv_msgbox.c:617:23
	bl	lv_msgbox_get_active_btn
	.loc	10 617 14                       @ lvgl/src/lv_widgets/lv_msgbox.c:617:14
	str	r0, [sp, #4]
.Ltmp125:
	.loc	10 618 8 is_stmt 1              @ lvgl/src/lv_widgets/lv_msgbox.c:618:8
	ldr	r0, [sp, #4]
	movw	r1, #65535
.Ltmp126:
	.loc	10 618 8 is_stmt 0              @ lvgl/src/lv_widgets/lv_msgbox.c:618:8
	cmp	r0, r1
	bne	.LBB3_4
	b	.LBB3_3
.LBB3_3:
.Ltmp127:
	.loc	10 618 41                       @ lvgl/src/lv_widgets/lv_msgbox.c:618:41
	b	.LBB3_5
.Ltmp128:
.LBB3_4:
	.loc	10 620 32 is_stmt 1             @ lvgl/src/lv_widgets/lv_msgbox.c:620:32
	ldr	r0, [sp, #12]
	movs	r1, #0
	.loc	10 620 5 is_stmt 0              @ lvgl/src/lv_widgets/lv_msgbox.c:620:5
	bl	lv_msgbox_start_auto_close
	.loc	10 621 1 is_stmt 1              @ lvgl/src/lv_widgets/lv_msgbox.c:621:1
	b	.LBB3_5
.LBB3_5:
	add	sp, #16
	pop	{r7, pc}
.Ltmp129:
.Lfunc_end3:
	.size	lv_msgbox_default_event_cb, .Lfunc_end3-lv_msgbox_default_event_cb
	.cfi_endproc
	.cantunwind
	.fnend
                                        @ -- End function
	.section	.text.lv_msgbox_add_btns,"ax",%progbits
	.hidden	lv_msgbox_add_btns              @ -- Begin function lv_msgbox_add_btns
	.globl	lv_msgbox_add_btns
	.p2align	3
	.type	lv_msgbox_add_btns,%function
	.code	16                              @ @lv_msgbox_add_btns
	.thumb_func
lv_msgbox_add_btns:
.Lfunc_begin4:
	.loc	10 149 0                        @ lvgl/src/lv_widgets/lv_msgbox.c:149:0
	.fnstart
	.cfi_startproc
@ %bb.0:
	.save	{r7, lr}
	push	{r7, lr}
	.cfi_def_cfa_offset 8
	.cfi_offset lr, -4
	.cfi_offset r7, -8
	.pad	#16
	sub	sp, #16
	.cfi_def_cfa_offset 24
	str	r0, [sp, #12]
	str	r1, [sp, #8]
.Ltmp130:
	.loc	10 150 5 prologue_end           @ lvgl/src/lv_widgets/lv_msgbox.c:150:5
	b	.LBB4_1
.LBB4_1:
.Ltmp131:
	.loc	10 150 5 is_stmt 0              @ lvgl/src/lv_widgets/lv_msgbox.c:150:5
	ldr	r0, [sp, #12]
	bl	lv_debug_check_null
.Ltmp132:
	.loc	10 150 5                        @ lvgl/src/lv_widgets/lv_msgbox.c:150:5
	cbnz	r0, .LBB4_4
	b	.LBB4_2
.LBB4_2:
.Ltmp133:
	.loc	10 150 5                        @ lvgl/src/lv_widgets/lv_msgbox.c:150:5
	ldr	r2, [sp, #12]
	movw	r0, :lower16:.L.str.2
	movt	r0, :upper16:.L.str.2
	movs	r3, #0
	bl	lv_debug_log_error
	b	.LBB4_3
.LBB4_3:                                @ =>This Inner Loop Header: Depth=1
	b	.LBB4_3
.Ltmp134:
.LBB4_4:
	.loc	10 150 5                        @ lvgl/src/lv_widgets/lv_msgbox.c:150:5
	b	.LBB4_5
.Ltmp135:
.LBB4_5:
	.loc	10 151 5 is_stmt 1              @ lvgl/src/lv_widgets/lv_msgbox.c:151:5
	b	.LBB4_6
.LBB4_6:
.Ltmp136:
	.loc	10 151 5 is_stmt 0              @ lvgl/src/lv_widgets/lv_msgbox.c:151:5
	ldr	r0, [sp, #8]
	bl	lv_debug_check_null
.Ltmp137:
	.loc	10 151 5                        @ lvgl/src/lv_widgets/lv_msgbox.c:151:5
	cbnz	r0, .LBB4_9
	b	.LBB4_7
.LBB4_7:
.Ltmp138:
	.loc	10 151 5                        @ lvgl/src/lv_widgets/lv_msgbox.c:151:5
	ldr	r2, [sp, #8]
	movw	r0, :lower16:.L.str.2
	movt	r0, :upper16:.L.str.2
	movs	r3, #0
	bl	lv_debug_log_error
	b	.LBB4_8
.LBB4_8:                                @ =>This Inner Loop Header: Depth=1
	b	.LBB4_8
.Ltmp139:
.LBB4_9:
	.loc	10 151 5                        @ lvgl/src/lv_widgets/lv_msgbox.c:151:5
	b	.LBB4_10
.Ltmp140:
.LBB4_10:
	.loc	10 153 49 is_stmt 1             @ lvgl/src/lv_widgets/lv_msgbox.c:153:49
	ldr	r0, [sp, #12]
	.loc	10 153 29 is_stmt 0             @ lvgl/src/lv_widgets/lv_msgbox.c:153:29
	bl	lv_obj_get_ext_attr
	.loc	10 153 23                       @ lvgl/src/lv_widgets/lv_msgbox.c:153:23
	str	r0, [sp, #4]
.Ltmp141:
	.loc	10 156 8 is_stmt 1              @ lvgl/src/lv_widgets/lv_msgbox.c:156:8
	ldr	r0, [sp, #4]
	.loc	10 156 13 is_stmt 0             @ lvgl/src/lv_widgets/lv_msgbox.c:156:13
	ldr	r0, [r0, #8]
.Ltmp142:
	.loc	10 156 8                        @ lvgl/src/lv_widgets/lv_msgbox.c:156:8
	cbnz	r0, .LBB4_12
	b	.LBB4_11
.LBB4_11:
.Ltmp143:
	.loc	10 157 41 is_stmt 1             @ lvgl/src/lv_widgets/lv_msgbox.c:157:41
	ldr	r0, [sp, #12]
	movs	r1, #0
	.loc	10 157 21 is_stmt 0             @ lvgl/src/lv_widgets/lv_msgbox.c:157:21
	bl	lv_btnmatrix_create
	.loc	10 157 9                        @ lvgl/src/lv_widgets/lv_msgbox.c:157:9
	ldr	r1, [sp, #4]
	.loc	10 157 19                       @ lvgl/src/lv_widgets/lv_msgbox.c:157:19
	str	r0, [r1, #8]
	.loc	10 159 24 is_stmt 1             @ lvgl/src/lv_widgets/lv_msgbox.c:159:24
	ldr	r0, [sp, #12]
	movs	r1, #25
	.loc	10 159 9 is_stmt 0              @ lvgl/src/lv_widgets/lv_msgbox.c:159:9
	bl	lv_theme_apply
	.loc	10 160 5 is_stmt 1              @ lvgl/src/lv_widgets/lv_msgbox.c:160:5
	b	.LBB4_12
.Ltmp144:
.LBB4_12:
	.loc	10 162 26                       @ lvgl/src/lv_widgets/lv_msgbox.c:162:26
	ldr	r0, [sp, #4]
	.loc	10 162 31 is_stmt 0             @ lvgl/src/lv_widgets/lv_msgbox.c:162:31
	ldr	r0, [r0, #8]
	.loc	10 162 37                       @ lvgl/src/lv_widgets/lv_msgbox.c:162:37
	ldr	r1, [sp, #8]
	.loc	10 162 5                        @ lvgl/src/lv_widgets/lv_msgbox.c:162:5
	bl	lv_btnmatrix_set_map
	.loc	10 163 35 is_stmt 1             @ lvgl/src/lv_widgets/lv_msgbox.c:163:35
	ldr	r0, [sp, #4]
	.loc	10 163 40 is_stmt 0             @ lvgl/src/lv_widgets/lv_msgbox.c:163:40
	ldr	r0, [r0, #8]
	mov.w	r1, #272
	.loc	10 163 5                        @ lvgl/src/lv_widgets/lv_msgbox.c:163:5
	bl	lv_btnmatrix_set_btn_ctrl_all
	.loc	10 164 25 is_stmt 1             @ lvgl/src/lv_widgets/lv_msgbox.c:164:25
	ldr	r0, [sp, #4]
	.loc	10 164 30 is_stmt 0             @ lvgl/src/lv_widgets/lv_msgbox.c:164:30
	ldr	r0, [r0, #8]
	.loc	10 164 5                        @ lvgl/src/lv_widgets/lv_msgbox.c:164:5
	movw	r1, :lower16:lv_msgbox_btnm_event_cb
	movt	r1, :upper16:lv_msgbox_btnm_event_cb
	bl	lv_obj_set_event_cb
.Ltmp145:
	.loc	10 166 26 is_stmt 1             @ lvgl/src/lv_widgets/lv_msgbox.c:166:26
	ldr	r0, [sp, #12]
	.loc	10 166 8 is_stmt 0              @ lvgl/src/lv_widgets/lv_msgbox.c:166:8
	bl	lv_obj_is_focused
.Ltmp146:
	.loc	10 166 8                        @ lvgl/src/lv_widgets/lv_msgbox.c:166:8
	cbz	r0, .LBB4_17
	b	.LBB4_13
.LBB4_13:
.Ltmp147:
	.loc	10 167 45 is_stmt 1             @ lvgl/src/lv_widgets/lv_msgbox.c:167:45
	ldr	r0, [sp, #12]
	movs	r1, #0
	.loc	10 167 28 is_stmt 0             @ lvgl/src/lv_widgets/lv_msgbox.c:167:28
	bl	lv_obj_get_state
	.loc	10 167 20                       @ lvgl/src/lv_widgets/lv_msgbox.c:167:20
	strb.w	r0, [sp, #3]
.Ltmp148:
	.loc	10 168 12 is_stmt 1             @ lvgl/src/lv_widgets/lv_msgbox.c:168:12
	ldrb.w	r0, [sp, #3]
.Ltmp149:
	.loc	10 168 12 is_stmt 0             @ lvgl/src/lv_widgets/lv_msgbox.c:168:12
	lsls	r0, r0, #29
	cmp	r0, #0
	bpl	.LBB4_15
	b	.LBB4_14
.LBB4_14:
.Ltmp150:
	.loc	10 169 30 is_stmt 1             @ lvgl/src/lv_widgets/lv_msgbox.c:169:30
	ldr	r0, [sp, #4]
	.loc	10 169 35 is_stmt 0             @ lvgl/src/lv_widgets/lv_msgbox.c:169:35
	ldr	r0, [r0, #8]
	movs	r1, #6
	.loc	10 169 13                       @ lvgl/src/lv_widgets/lv_msgbox.c:169:13
	bl	lv_obj_set_state
	.loc	10 170 9 is_stmt 1              @ lvgl/src/lv_widgets/lv_msgbox.c:170:9
	b	.LBB4_16
.Ltmp151:
.LBB4_15:
	.loc	10 172 30                       @ lvgl/src/lv_widgets/lv_msgbox.c:172:30
	ldr	r0, [sp, #4]
	.loc	10 172 35 is_stmt 0             @ lvgl/src/lv_widgets/lv_msgbox.c:172:35
	ldr	r0, [r0, #8]
	movs	r1, #2
	.loc	10 172 13                       @ lvgl/src/lv_widgets/lv_msgbox.c:172:13
	bl	lv_obj_set_state
	b	.LBB4_16
.Ltmp152:
.LBB4_16:
	.loc	10 175 38 is_stmt 1             @ lvgl/src/lv_widgets/lv_msgbox.c:175:38
	ldr	r0, [sp, #4]
	.loc	10 175 43 is_stmt 0             @ lvgl/src/lv_widgets/lv_msgbox.c:175:43
	ldr	r0, [r0, #8]
	movs	r1, #0
	.loc	10 175 9                        @ lvgl/src/lv_widgets/lv_msgbox.c:175:9
	bl	lv_btnmatrix_set_focused_btn
	.loc	10 176 5 is_stmt 1              @ lvgl/src/lv_widgets/lv_msgbox.c:176:5
	b	.LBB4_17
.Ltmp153:
.LBB4_17:
	.loc	10 178 18                       @ lvgl/src/lv_widgets/lv_msgbox.c:178:18
	ldr	r0, [sp, #12]
	.loc	10 178 5 is_stmt 0              @ lvgl/src/lv_widgets/lv_msgbox.c:178:5
	bl	mbox_realign
	.loc	10 179 1 is_stmt 1              @ lvgl/src/lv_widgets/lv_msgbox.c:179:1
	add	sp, #16
	pop	{r7, pc}
.Ltmp154:
.Lfunc_end4:
	.size	lv_msgbox_add_btns, .Lfunc_end4-lv_msgbox_add_btns
	.cfi_endproc
	.cantunwind
	.fnend
                                        @ -- End function
	.section	.text.lv_msgbox_btnm_event_cb,"ax",%progbits
	.p2align	3                               @ -- Begin function lv_msgbox_btnm_event_cb
	.type	lv_msgbox_btnm_event_cb,%function
	.code	16                              @ @lv_msgbox_btnm_event_cb
	.thumb_func
lv_msgbox_btnm_event_cb:
.Lfunc_begin5:
	.loc	10 624 0                        @ lvgl/src/lv_widgets/lv_msgbox.c:624:0
	.fnstart
	.cfi_startproc
@ %bb.0:
	.save	{r7, lr}
	push	{r7, lr}
	.cfi_def_cfa_offset 8
	.cfi_offset lr, -4
	.cfi_offset r7, -8
	.pad	#24
	sub	sp, #24
	.cfi_def_cfa_offset 32
                                        @ kill: def $r2 killed $r1
	str	r0, [sp, #20]
	strb.w	r1, [sp, #19]
.Ltmp155:
	.loc	10 625 41 prologue_end          @ lvgl/src/lv_widgets/lv_msgbox.c:625:41
	ldr	r0, [sp, #20]
	.loc	10 625 23 is_stmt 0             @ lvgl/src/lv_widgets/lv_msgbox.c:625:23
	bl	lv_obj_get_parent
	.loc	10 625 16                       @ lvgl/src/lv_widgets/lv_msgbox.c:625:16
	str	r0, [sp, #12]
.Ltmp156:
	.loc	10 628 8 is_stmt 1              @ lvgl/src/lv_widgets/lv_msgbox.c:628:8
	ldrb.w	r0, [sp, #19]
	.loc	10 628 34 is_stmt 0             @ lvgl/src/lv_widgets/lv_msgbox.c:628:34
	cbz	r0, .LBB5_9
	b	.LBB5_1
.LBB5_1:
	.loc	10 628 37                       @ lvgl/src/lv_widgets/lv_msgbox.c:628:37
	ldrb.w	r0, [sp, #19]
	.loc	10 628 64                       @ lvgl/src/lv_widgets/lv_msgbox.c:628:64
	cmp	r0, #1
	beq	.LBB5_9
	b	.LBB5_2
.LBB5_2:
	.loc	10 628 67                       @ lvgl/src/lv_widgets/lv_msgbox.c:628:67
	ldrb.w	r0, [sp, #19]
	.loc	10 628 96                       @ lvgl/src/lv_widgets/lv_msgbox.c:628:96
	cmp	r0, #2
	beq	.LBB5_9
	b	.LBB5_3
.LBB5_3:
	.loc	10 629 8 is_stmt 1              @ lvgl/src/lv_widgets/lv_msgbox.c:629:8
	ldrb.w	r0, [sp, #19]
	.loc	10 629 35 is_stmt 0             @ lvgl/src/lv_widgets/lv_msgbox.c:629:35
	cmp	r0, #7
	beq	.LBB5_9
	b	.LBB5_4
.LBB5_4:
	.loc	10 629 38                       @ lvgl/src/lv_widgets/lv_msgbox.c:629:38
	ldrb.w	r0, [sp, #19]
	.loc	10 629 70                       @ lvgl/src/lv_widgets/lv_msgbox.c:629:70
	cmp	r0, #3
	beq	.LBB5_9
	b	.LBB5_5
.LBB5_5:
	.loc	10 629 73                       @ lvgl/src/lv_widgets/lv_msgbox.c:629:73
	ldrb.w	r0, [sp, #19]
	.loc	10 629 99                       @ lvgl/src/lv_widgets/lv_msgbox.c:629:99
	cmp	r0, #6
	beq	.LBB5_9
	b	.LBB5_6
.LBB5_6:
	.loc	10 630 8 is_stmt 1              @ lvgl/src/lv_widgets/lv_msgbox.c:630:8
	ldrb.w	r0, [sp, #19]
	.loc	10 630 39 is_stmt 0             @ lvgl/src/lv_widgets/lv_msgbox.c:630:39
	cmp	r0, #4
	beq	.LBB5_9
	b	.LBB5_7
.LBB5_7:
	.loc	10 630 42                       @ lvgl/src/lv_widgets/lv_msgbox.c:630:42
	ldrb.w	r0, [sp, #19]
	.loc	10 630 80                       @ lvgl/src/lv_widgets/lv_msgbox.c:630:80
	cmp	r0, #5
	beq	.LBB5_9
	b	.LBB5_8
.LBB5_8:
	.loc	10 631 8 is_stmt 1              @ lvgl/src/lv_widgets/lv_msgbox.c:631:8
	ldrb.w	r0, [sp, #19]
.Ltmp157:
	.loc	10 628 8                        @ lvgl/src/lv_widgets/lv_msgbox.c:628:8
	cmp	r0, #16
	bne	.LBB5_10
	b	.LBB5_9
.LBB5_9:
.Ltmp158:
	.loc	10 632 23                       @ lvgl/src/lv_widgets/lv_msgbox.c:632:23
	ldr	r0, [sp, #12]
	.loc	10 632 29 is_stmt 0             @ lvgl/src/lv_widgets/lv_msgbox.c:632:29
	str	r0, [sp, #8]                    @ 4-byte Spill
	ldrb.w	r0, [sp, #19]
	.loc	10 632 36                       @ lvgl/src/lv_widgets/lv_msgbox.c:632:36
	str	r0, [sp, #4]                    @ 4-byte Spill
	bl	lv_event_get_data
	ldr	r1, [sp, #4]                    @ 4-byte Reload
	mov	r2, r0
	.loc	10 632 9                        @ lvgl/src/lv_widgets/lv_msgbox.c:632:9
	ldr	r0, [sp, #8]                    @ 4-byte Reload
	bl	lv_event_send
	.loc	10 633 5 is_stmt 1              @ lvgl/src/lv_widgets/lv_msgbox.c:633:5
	b	.LBB5_10
.Ltmp159:
.LBB5_10:
	.loc	10 635 1                        @ lvgl/src/lv_widgets/lv_msgbox.c:635:1
	add	sp, #24
	pop	{r7, pc}
.Ltmp160:
.Lfunc_end5:
	.size	lv_msgbox_btnm_event_cb, .Lfunc_end5-lv_msgbox_btnm_event_cb
	.cfi_endproc
	.cantunwind
	.fnend
                                        @ -- End function
	.section	.text.mbox_realign,"ax",%progbits
	.p2align	3                               @ -- Begin function mbox_realign
	.type	mbox_realign,%function
	.code	16                              @ @mbox_realign
	.thumb_func
mbox_realign:
.Lfunc_begin6:
	.loc	10 576 0                        @ lvgl/src/lv_widgets/lv_msgbox.c:576:0
	.fnstart
	.cfi_startproc
@ %bb.0:
	.save	{r7, lr}
	push	{r7, lr}
	.cfi_def_cfa_offset 8
	.cfi_offset lr, -4
	.cfi_offset r7, -8
	.pad	#48
	sub	sp, #48
	.cfi_def_cfa_offset 56
	str	r0, [sp, #44]
.Ltmp161:
	.loc	10 577 49 prologue_end          @ lvgl/src/lv_widgets/lv_msgbox.c:577:49
	ldr	r0, [sp, #44]
	.loc	10 577 29 is_stmt 0             @ lvgl/src/lv_widgets/lv_msgbox.c:577:29
	bl	lv_obj_get_ext_attr
	.loc	10 577 23                       @ lvgl/src/lv_widgets/lv_msgbox.c:577:23
	str	r0, [sp, #40]
	.loc	10 579 41 is_stmt 1             @ lvgl/src/lv_widgets/lv_msgbox.c:579:41
	ldr	r0, [sp, #44]
	.loc	10 579 20 is_stmt 0             @ lvgl/src/lv_widgets/lv_msgbox.c:579:20
	bl	lv_obj_get_width_fit
	.loc	10 579 16                       @ lvgl/src/lv_widgets/lv_msgbox.c:579:16
	strh.w	r0, [sp, #38]
.Ltmp162:
	.loc	10 581 8 is_stmt 1              @ lvgl/src/lv_widgets/lv_msgbox.c:581:8
	ldr	r0, [sp, #40]
	.loc	10 581 13 is_stmt 0             @ lvgl/src/lv_widgets/lv_msgbox.c:581:13
	ldr	r0, [r0, #4]
.Ltmp163:
	.loc	10 581 8                        @ lvgl/src/lv_widgets/lv_msgbox.c:581:8
	cbz	r0, .LBB6_2
	b	.LBB6_1
.LBB6_1:
.Ltmp164:
	.loc	10 582 26 is_stmt 1             @ lvgl/src/lv_widgets/lv_msgbox.c:582:26
	ldr	r0, [sp, #40]
	.loc	10 582 31 is_stmt 0             @ lvgl/src/lv_widgets/lv_msgbox.c:582:31
	ldr	r0, [r0, #4]
	.loc	10 582 37                       @ lvgl/src/lv_widgets/lv_msgbox.c:582:37
	ldrsh.w	r1, [sp, #38]
	.loc	10 582 9                        @ lvgl/src/lv_widgets/lv_msgbox.c:582:9
	bl	lv_obj_set_width
	.loc	10 583 5 is_stmt 1              @ lvgl/src/lv_widgets/lv_msgbox.c:583:5
	b	.LBB6_2
.Ltmp165:
.LBB6_2:
	.loc	10 585 8                        @ lvgl/src/lv_widgets/lv_msgbox.c:585:8
	ldr	r0, [sp, #40]
	.loc	10 585 13 is_stmt 0             @ lvgl/src/lv_widgets/lv_msgbox.c:585:13
	ldr	r0, [r0, #8]
.Ltmp166:
	.loc	10 585 8                        @ lvgl/src/lv_widgets/lv_msgbox.c:585:8
	cmp	r0, #0
	beq	.LBB6_10
	b	.LBB6_3
.LBB6_3:
.Ltmp167:
	.loc	10 586 58 is_stmt 1             @ lvgl/src/lv_widgets/lv_msgbox.c:586:58
	ldr	r0, [sp, #44]
	movs	r1, #64
	.loc	10 586 33 is_stmt 0             @ lvgl/src/lv_widgets/lv_msgbox.c:586:33
	str	r1, [sp]                        @ 4-byte Spill
	bl	lv_obj_get_style_pad_top
	ldr	r1, [sp]                        @ 4-byte Reload
	.loc	10 586 24                       @ lvgl/src/lv_widgets/lv_msgbox.c:586:24
	strh.w	r0, [sp, #36]
	.loc	10 587 64 is_stmt 1             @ lvgl/src/lv_widgets/lv_msgbox.c:587:64
	ldr	r0, [sp, #44]
	.loc	10 587 36 is_stmt 0             @ lvgl/src/lv_widgets/lv_msgbox.c:587:36
	bl	lv_obj_get_style_pad_bottom
	ldr	r1, [sp]                        @ 4-byte Reload
	.loc	10 587 24                       @ lvgl/src/lv_widgets/lv_msgbox.c:587:24
	strh.w	r0, [sp, #34]
	.loc	10 588 62 is_stmt 1             @ lvgl/src/lv_widgets/lv_msgbox.c:588:62
	ldr	r0, [sp, #44]
	.loc	10 588 35 is_stmt 0             @ lvgl/src/lv_widgets/lv_msgbox.c:588:35
	bl	lv_obj_get_style_pad_inner
	.loc	10 588 24                       @ lvgl/src/lv_widgets/lv_msgbox.c:588:24
	strh.w	r0, [sp, #32]
	.loc	10 589 59 is_stmt 1             @ lvgl/src/lv_widgets/lv_msgbox.c:589:59
	ldr	r0, [sp, #44]
	movs	r1, #65
	.loc	10 589 34 is_stmt 0             @ lvgl/src/lv_widgets/lv_msgbox.c:589:34
	str	r1, [sp, #4]                    @ 4-byte Spill
	bl	lv_obj_get_style_pad_top
	ldr	r1, [sp, #4]                    @ 4-byte Reload
	.loc	10 589 24                       @ lvgl/src/lv_widgets/lv_msgbox.c:589:24
	strh.w	r0, [sp, #30]
	.loc	10 590 65 is_stmt 1             @ lvgl/src/lv_widgets/lv_msgbox.c:590:65
	ldr	r0, [sp, #44]
	.loc	10 590 37 is_stmt 0             @ lvgl/src/lv_widgets/lv_msgbox.c:590:37
	bl	lv_obj_get_style_pad_bottom
	ldr	r1, [sp, #4]                    @ 4-byte Reload
	.loc	10 590 24                       @ lvgl/src/lv_widgets/lv_msgbox.c:590:24
	strh.w	r0, [sp, #28]
	.loc	10 591 61 is_stmt 1             @ lvgl/src/lv_widgets/lv_msgbox.c:591:61
	ldr	r0, [sp, #44]
	.loc	10 591 34 is_stmt 0             @ lvgl/src/lv_widgets/lv_msgbox.c:591:34
	bl	lv_obj_get_style_text_font
	.loc	10 591 27                       @ lvgl/src/lv_widgets/lv_msgbox.c:591:27
	str	r0, [sp, #24]
	movs	r0, #1
	.loc	10 593 18 is_stmt 1             @ lvgl/src/lv_widgets/lv_msgbox.c:593:18
	strh.w	r0, [sp, #22]
	.loc	10 594 61                       @ lvgl/src/lv_widgets/lv_msgbox.c:594:61
	ldr	r0, [sp, #40]
	.loc	10 594 66 is_stmt 0             @ lvgl/src/lv_widgets/lv_msgbox.c:594:66
	ldr	r0, [r0, #8]
	.loc	10 594 34                       @ lvgl/src/lv_widgets/lv_msgbox.c:594:34
	bl	lv_btnmatrix_get_map_array
	.loc	10 594 23                       @ lvgl/src/lv_widgets/lv_msgbox.c:594:23
	str	r0, [sp, #16]
	movs	r0, #0
.Ltmp168:
	.loc	10 596 15 is_stmt 1             @ lvgl/src/lv_widgets/lv_msgbox.c:596:15
	strh.w	r0, [sp, #14]
	.loc	10 596 13 is_stmt 0             @ lvgl/src/lv_widgets/lv_msgbox.c:596:13
	b	.LBB6_4
.LBB6_4:                                @ =>This Inner Loop Header: Depth=1
.Ltmp169:
	.loc	10 596 20                       @ lvgl/src/lv_widgets/lv_msgbox.c:596:20
	ldr	r0, [sp, #16]
	.loc	10 596 29                       @ lvgl/src/lv_widgets/lv_msgbox.c:596:29
	ldrh.w	r1, [sp, #14]
	.loc	10 596 20                       @ lvgl/src/lv_widgets/lv_msgbox.c:596:20
	ldr.w	r0, [r0, r1, lsl #2]
	ldrsb.w	r0, [r0]
.Ltmp170:
	.loc	10 596 9                        @ lvgl/src/lv_widgets/lv_msgbox.c:596:9
	cbz	r0, .LBB6_9
	b	.LBB6_5
.LBB6_5:                                @   in Loop: Header=BB6_4 Depth=1
.Ltmp171:
	.loc	10 597 16 is_stmt 1             @ lvgl/src/lv_widgets/lv_msgbox.c:597:16
	ldr	r0, [sp, #16]
	.loc	10 597 25 is_stmt 0             @ lvgl/src/lv_widgets/lv_msgbox.c:597:25
	ldrh.w	r1, [sp, #14]
	.loc	10 597 16                       @ lvgl/src/lv_widgets/lv_msgbox.c:597:16
	ldr.w	r0, [r0, r1, lsl #2]
	ldrsb.w	r0, [r0]
.Ltmp172:
	.loc	10 597 16                       @ lvgl/src/lv_widgets/lv_msgbox.c:597:16
	cmp	r0, #10
	bne	.LBB6_7
	b	.LBB6_6
.LBB6_6:                                @   in Loop: Header=BB6_4 Depth=1
.Ltmp173:
	.loc	10 597 50                       @ lvgl/src/lv_widgets/lv_msgbox.c:597:50
	ldrh.w	r0, [sp, #22]
	adds	r0, #1
	strh.w	r0, [sp, #22]
	.loc	10 597 40                       @ lvgl/src/lv_widgets/lv_msgbox.c:597:40
	b	.LBB6_7
.Ltmp174:
.LBB6_7:                                @   in Loop: Header=BB6_4 Depth=1
	.loc	10 598 9 is_stmt 1              @ lvgl/src/lv_widgets/lv_msgbox.c:598:9
	b	.LBB6_8
.Ltmp175:
.LBB6_8:                                @   in Loop: Header=BB6_4 Depth=1
	.loc	10 596 45                       @ lvgl/src/lv_widgets/lv_msgbox.c:596:45
	ldrh.w	r0, [sp, #14]
	adds	r0, #1
	strh.w	r0, [sp, #14]
	.loc	10 596 9 is_stmt 0              @ lvgl/src/lv_widgets/lv_msgbox.c:596:9
	b	.LBB6_4
.Ltmp176:
.LBB6_9:
	.loc	10 600 53 is_stmt 1             @ lvgl/src/lv_widgets/lv_msgbox.c:600:53
	ldr	r0, [sp, #24]
	.loc	10 600 29 is_stmt 0             @ lvgl/src/lv_widgets/lv_msgbox.c:600:29
	bl	lv_font_get_line_height
	.loc	10 600 20                       @ lvgl/src/lv_widgets/lv_msgbox.c:600:20
	strh.w	r0, [sp, #12]
	.loc	10 601 28 is_stmt 1             @ lvgl/src/lv_widgets/lv_msgbox.c:601:28
	ldrh.w	r0, [sp, #12]
	.loc	10 601 37 is_stmt 0             @ lvgl/src/lv_widgets/lv_msgbox.c:601:37
	ldrh.w	r1, [sp, #30]
	.loc	10 601 35                       @ lvgl/src/lv_widgets/lv_msgbox.c:601:35
	add	r0, r1
	.loc	10 601 47                       @ lvgl/src/lv_widgets/lv_msgbox.c:601:47
	ldrh.w	r1, [sp, #28]
	.loc	10 601 45                       @ lvgl/src/lv_widgets/lv_msgbox.c:601:45
	add	r0, r1
	.loc	10 601 20                       @ lvgl/src/lv_widgets/lv_msgbox.c:601:20
	strh.w	r0, [sp, #10]
	.loc	10 602 25 is_stmt 1             @ lvgl/src/lv_widgets/lv_msgbox.c:602:25
	ldr	r0, [sp, #40]
	.loc	10 602 30 is_stmt 0             @ lvgl/src/lv_widgets/lv_msgbox.c:602:30
	ldr	r0, [r0, #8]
	.loc	10 602 36                       @ lvgl/src/lv_widgets/lv_msgbox.c:602:36
	ldrsh.w	r1, [sp, #38]
	.loc	10 602 39                       @ lvgl/src/lv_widgets/lv_msgbox.c:602:39
	ldrh.w	r2, [sp, #10]
	.loc	10 602 47                       @ lvgl/src/lv_widgets/lv_msgbox.c:602:47
	ldrh.w	r3, [sp, #22]
	.loc	10 602 60                       @ lvgl/src/lv_widgets/lv_msgbox.c:602:60
	ldrh.w	r12, [sp, #32]
	.loc	10 602 83                       @ lvgl/src/lv_widgets/lv_msgbox.c:602:83
	sub.w	lr, r3, #1
	.loc	10 602 69                       @ lvgl/src/lv_widgets/lv_msgbox.c:602:69
	mul	r12, r12, lr
	.loc	10 602 58                       @ lvgl/src/lv_widgets/lv_msgbox.c:602:58
	mla	r2, r2, r3, r12
	.loc	10 602 90                       @ lvgl/src/lv_widgets/lv_msgbox.c:602:90
	ldrh.w	r3, [sp, #36]
	.loc	10 602 88                       @ lvgl/src/lv_widgets/lv_msgbox.c:602:88
	add	r2, r3
	.loc	10 602 99                       @ lvgl/src/lv_widgets/lv_msgbox.c:602:99
	ldrh.w	r3, [sp, #34]
	.loc	10 602 97                       @ lvgl/src/lv_widgets/lv_msgbox.c:602:97
	add	r2, r3
	.loc	10 602 9                        @ lvgl/src/lv_widgets/lv_msgbox.c:602:9
	sxth	r2, r2
	bl	lv_obj_set_size
	.loc	10 603 5 is_stmt 1              @ lvgl/src/lv_widgets/lv_msgbox.c:603:5
	b	.LBB6_10
.Ltmp177:
.LBB6_10:
	.loc	10 604 1                        @ lvgl/src/lv_widgets/lv_msgbox.c:604:1
	add	sp, #48
	pop	{r7, pc}
.Ltmp178:
.Lfunc_end6:
	.size	mbox_realign, .Lfunc_end6-mbox_realign
	.cfi_endproc
	.cantunwind
	.fnend
                                        @ -- End function
	.section	.text.lv_msgbox_set_text,"ax",%progbits
	.hidden	lv_msgbox_set_text              @ -- Begin function lv_msgbox_set_text
	.globl	lv_msgbox_set_text
	.p2align	3
	.type	lv_msgbox_set_text,%function
	.code	16                              @ @lv_msgbox_set_text
	.thumb_func
lv_msgbox_set_text:
.Lfunc_begin7:
	.loc	10 191 0                        @ lvgl/src/lv_widgets/lv_msgbox.c:191:0
	.fnstart
	.cfi_startproc
@ %bb.0:
	.save	{r7, lr}
	push	{r7, lr}
	.cfi_def_cfa_offset 8
	.cfi_offset lr, -4
	.cfi_offset r7, -8
	.pad	#16
	sub	sp, #16
	.cfi_def_cfa_offset 24
	str	r0, [sp, #12]
	str	r1, [sp, #8]
.Ltmp179:
	.loc	10 192 5 prologue_end           @ lvgl/src/lv_widgets/lv_msgbox.c:192:5
	b	.LBB7_1
.LBB7_1:
.Ltmp180:
	.loc	10 192 5 is_stmt 0              @ lvgl/src/lv_widgets/lv_msgbox.c:192:5
	ldr	r0, [sp, #12]
	bl	lv_debug_check_null
.Ltmp181:
	.loc	10 192 5                        @ lvgl/src/lv_widgets/lv_msgbox.c:192:5
	cbnz	r0, .LBB7_4
	b	.LBB7_2
.LBB7_2:
.Ltmp182:
	.loc	10 192 5                        @ lvgl/src/lv_widgets/lv_msgbox.c:192:5
	ldr	r2, [sp, #12]
	movw	r0, :lower16:.L.str.2
	movt	r0, :upper16:.L.str.2
	movs	r3, #0
	bl	lv_debug_log_error
	b	.LBB7_3
.LBB7_3:                                @ =>This Inner Loop Header: Depth=1
	b	.LBB7_3
.Ltmp183:
.LBB7_4:
	.loc	10 192 5                        @ lvgl/src/lv_widgets/lv_msgbox.c:192:5
	b	.LBB7_5
.Ltmp184:
.LBB7_5:
	.loc	10 193 5 is_stmt 1              @ lvgl/src/lv_widgets/lv_msgbox.c:193:5
	b	.LBB7_6
.LBB7_6:
.Ltmp185:
	.loc	10 193 5 is_stmt 0              @ lvgl/src/lv_widgets/lv_msgbox.c:193:5
	ldr	r0, [sp, #8]
	bl	lv_debug_check_null
.Ltmp186:
	.loc	10 193 5                        @ lvgl/src/lv_widgets/lv_msgbox.c:193:5
	cbnz	r0, .LBB7_9
	b	.LBB7_7
.LBB7_7:
.Ltmp187:
	.loc	10 193 5                        @ lvgl/src/lv_widgets/lv_msgbox.c:193:5
	ldr	r2, [sp, #8]
	movw	r0, :lower16:.L.str.2
	movt	r0, :upper16:.L.str.2
	movs	r3, #0
	bl	lv_debug_log_error
	b	.LBB7_8
.LBB7_8:                                @ =>This Inner Loop Header: Depth=1
	b	.LBB7_8
.Ltmp188:
.LBB7_9:
	.loc	10 193 5                        @ lvgl/src/lv_widgets/lv_msgbox.c:193:5
	b	.LBB7_10
.Ltmp189:
.LBB7_10:
	.loc	10 195 49 is_stmt 1             @ lvgl/src/lv_widgets/lv_msgbox.c:195:49
	ldr	r0, [sp, #12]
	.loc	10 195 29 is_stmt 0             @ lvgl/src/lv_widgets/lv_msgbox.c:195:29
	bl	lv_obj_get_ext_attr
	.loc	10 195 23                       @ lvgl/src/lv_widgets/lv_msgbox.c:195:23
	str	r0, [sp, #4]
	.loc	10 196 23 is_stmt 1             @ lvgl/src/lv_widgets/lv_msgbox.c:196:23
	ldr	r0, [sp, #4]
	.loc	10 196 28 is_stmt 0             @ lvgl/src/lv_widgets/lv_msgbox.c:196:28
	ldr	r0, [r0, #4]
	.loc	10 196 34                       @ lvgl/src/lv_widgets/lv_msgbox.c:196:34
	ldr	r1, [sp, #8]
	.loc	10 196 5                        @ lvgl/src/lv_widgets/lv_msgbox.c:196:5
	bl	lv_label_set_text
	.loc	10 198 18 is_stmt 1             @ lvgl/src/lv_widgets/lv_msgbox.c:198:18
	ldr	r0, [sp, #12]
	.loc	10 198 5 is_stmt 0              @ lvgl/src/lv_widgets/lv_msgbox.c:198:5
	bl	mbox_realign
	.loc	10 199 1 is_stmt 1              @ lvgl/src/lv_widgets/lv_msgbox.c:199:1
	add	sp, #16
	pop	{r7, pc}
.Ltmp190:
.Lfunc_end7:
	.size	lv_msgbox_set_text, .Lfunc_end7-lv_msgbox_set_text
	.cfi_endproc
	.cantunwind
	.fnend
                                        @ -- End function
	.section	.text.lv_msgbox_set_text_fmt,"ax",%progbits
	.hidden	lv_msgbox_set_text_fmt          @ -- Begin function lv_msgbox_set_text_fmt
	.globl	lv_msgbox_set_text_fmt
	.p2align	3
	.type	lv_msgbox_set_text_fmt,%function
	.code	16                              @ @lv_msgbox_set_text_fmt
	.thumb_func
lv_msgbox_set_text_fmt:
.Lfunc_begin8:
	.loc	10 207 0                        @ lvgl/src/lv_widgets/lv_msgbox.c:207:0
	.fnstart
	.cfi_startproc
@ %bb.0:
	.pad	#8
	sub	sp, #8
	.cfi_def_cfa_offset 8
	.save	{r7, lr}
	push	{r7, lr}
	.cfi_def_cfa_offset 16
	.cfi_offset lr, -12
	.cfi_offset r7, -16
	.pad	#24
	sub	sp, #24
	.cfi_def_cfa_offset 40
	str	r3, [sp, #36]
	str	r2, [sp, #32]
	str	r0, [sp, #20]
	str	r1, [sp, #16]
.Ltmp191:
	.loc	10 208 5 prologue_end           @ lvgl/src/lv_widgets/lv_msgbox.c:208:5
	b	.LBB8_1
.LBB8_1:
.Ltmp192:
	.loc	10 208 5 is_stmt 0              @ lvgl/src/lv_widgets/lv_msgbox.c:208:5
	ldr	r0, [sp, #20]
	bl	lv_debug_check_null
.Ltmp193:
	.loc	10 208 5                        @ lvgl/src/lv_widgets/lv_msgbox.c:208:5
	cbnz	r0, .LBB8_4
	b	.LBB8_2
.LBB8_2:
.Ltmp194:
	.loc	10 208 5                        @ lvgl/src/lv_widgets/lv_msgbox.c:208:5
	ldr	r2, [sp, #20]
	movw	r0, :lower16:.L.str.2
	movt	r0, :upper16:.L.str.2
	movs	r3, #0
	bl	lv_debug_log_error
	b	.LBB8_3
.LBB8_3:                                @ =>This Inner Loop Header: Depth=1
	b	.LBB8_3
.Ltmp195:
.LBB8_4:
	.loc	10 208 5                        @ lvgl/src/lv_widgets/lv_msgbox.c:208:5
	b	.LBB8_5
.Ltmp196:
.LBB8_5:
	.loc	10 209 5 is_stmt 1              @ lvgl/src/lv_widgets/lv_msgbox.c:209:5
	b	.LBB8_6
.LBB8_6:
.Ltmp197:
	.loc	10 209 5 is_stmt 0              @ lvgl/src/lv_widgets/lv_msgbox.c:209:5
	ldr	r0, [sp, #16]
	bl	lv_debug_check_null
.Ltmp198:
	.loc	10 209 5                        @ lvgl/src/lv_widgets/lv_msgbox.c:209:5
	cbnz	r0, .LBB8_9
	b	.LBB8_7
.LBB8_7:
.Ltmp199:
	.loc	10 209 5                        @ lvgl/src/lv_widgets/lv_msgbox.c:209:5
	ldr	r2, [sp, #16]
	movw	r0, :lower16:.L.str.2
	movt	r0, :upper16:.L.str.2
	movs	r3, #0
	bl	lv_debug_log_error
	b	.LBB8_8
.LBB8_8:                                @ =>This Inner Loop Header: Depth=1
	b	.LBB8_8
.Ltmp200:
.LBB8_9:
	.loc	10 209 5                        @ lvgl/src/lv_widgets/lv_msgbox.c:209:5
	b	.LBB8_10
.Ltmp201:
.LBB8_10:
	.loc	10 211 56 is_stmt 1             @ lvgl/src/lv_widgets/lv_msgbox.c:211:56
	ldr	r0, [sp, #20]
	.loc	10 211 36 is_stmt 0             @ lvgl/src/lv_widgets/lv_msgbox.c:211:36
	bl	lv_obj_get_ext_attr
	.loc	10 211 23                       @ lvgl/src/lv_widgets/lv_msgbox.c:211:23
	str	r0, [sp, #12]
	.loc	10 212 54 is_stmt 1             @ lvgl/src/lv_widgets/lv_msgbox.c:212:54
	ldr	r0, [sp, #12]
	.loc	10 212 66 is_stmt 0             @ lvgl/src/lv_widgets/lv_msgbox.c:212:66
	ldr	r0, [r0, #4]
	.loc	10 212 34                       @ lvgl/src/lv_widgets/lv_msgbox.c:212:34
	bl	lv_obj_get_ext_attr
	.loc	10 212 22                       @ lvgl/src/lv_widgets/lv_msgbox.c:212:22
	str	r0, [sp, #8]
.Ltmp202:
	.loc	10 215 8 is_stmt 1              @ lvgl/src/lv_widgets/lv_msgbox.c:215:8
	ldr	r0, [sp, #16]
.Ltmp203:
	.loc	10 215 8 is_stmt 0              @ lvgl/src/lv_widgets/lv_msgbox.c:215:8
	cbnz	r0, .LBB8_12
	b	.LBB8_11
.LBB8_11:
.Ltmp204:
	.loc	10 216 28 is_stmt 1             @ lvgl/src/lv_widgets/lv_msgbox.c:216:28
	ldr	r0, [sp, #12]
	.loc	10 216 40 is_stmt 0             @ lvgl/src/lv_widgets/lv_msgbox.c:216:40
	ldr	r0, [r0, #4]
	.loc	10 216 9                        @ lvgl/src/lv_widgets/lv_msgbox.c:216:9
	bl	lv_label_refr_text
	.loc	10 217 9 is_stmt 1              @ lvgl/src/lv_widgets/lv_msgbox.c:217:9
	b	.LBB8_15
.Ltmp205:
.LBB8_12:
	.loc	10 220 8                        @ lvgl/src/lv_widgets/lv_msgbox.c:220:8
	ldr	r0, [sp, #8]
	.loc	10 220 19 is_stmt 0             @ lvgl/src/lv_widgets/lv_msgbox.c:220:19
	ldr	r0, [r0]
.Ltmp206:
	.loc	10 220 8                        @ lvgl/src/lv_widgets/lv_msgbox.c:220:8
	cbz	r0, .LBB8_14
	b	.LBB8_13
.LBB8_13:
.Ltmp207:
	.loc	10 221 21 is_stmt 1             @ lvgl/src/lv_widgets/lv_msgbox.c:221:21
	ldr	r0, [sp, #8]
	.loc	10 221 32 is_stmt 0             @ lvgl/src/lv_widgets/lv_msgbox.c:221:32
	ldr	r0, [r0]
	.loc	10 221 9                        @ lvgl/src/lv_widgets/lv_msgbox.c:221:9
	bl	lv_mem_free
	.loc	10 222 9 is_stmt 1              @ lvgl/src/lv_widgets/lv_msgbox.c:222:9
	ldr	r1, [sp, #8]
	movs	r0, #0
	.loc	10 222 25 is_stmt 0             @ lvgl/src/lv_widgets/lv_msgbox.c:222:25
	str	r0, [r1]
	.loc	10 223 5 is_stmt 1              @ lvgl/src/lv_widgets/lv_msgbox.c:223:5
	b	.LBB8_14
.Ltmp208:
.LBB8_14:
	.loc	10 0 5 is_stmt 0                @ lvgl/src/lv_widgets/lv_msgbox.c:0:5
	add	r0, sp, #32
	.loc	10 226 5 is_stmt 1              @ lvgl/src/lv_widgets/lv_msgbox.c:226:5
	str	r0, [sp, #4]
	.loc	10 227 45                       @ lvgl/src/lv_widgets/lv_msgbox.c:227:45
	ldr	r0, [sp, #16]
	.loc	10 227 23 is_stmt 0             @ lvgl/src/lv_widgets/lv_msgbox.c:227:23
	ldr	r1, [sp, #4]
	bl	_lv_txt_set_text_vfmt
	.loc	10 227 5                        @ lvgl/src/lv_widgets/lv_msgbox.c:227:5
	ldr	r1, [sp, #8]
	.loc	10 227 21                       @ lvgl/src/lv_widgets/lv_msgbox.c:227:21
	str	r0, [r1]
	.loc	10 229 24 is_stmt 1             @ lvgl/src/lv_widgets/lv_msgbox.c:229:24
	ldr	r0, [sp, #12]
	.loc	10 229 36 is_stmt 0             @ lvgl/src/lv_widgets/lv_msgbox.c:229:36
	ldr	r0, [r0, #4]
	.loc	10 229 5                        @ lvgl/src/lv_widgets/lv_msgbox.c:229:5
	bl	lv_label_refr_text
	.loc	10 230 18 is_stmt 1             @ lvgl/src/lv_widgets/lv_msgbox.c:230:18
	ldr	r0, [sp, #20]
	.loc	10 230 5 is_stmt 0              @ lvgl/src/lv_widgets/lv_msgbox.c:230:5
	bl	mbox_realign
	.loc	10 231 1 is_stmt 1              @ lvgl/src/lv_widgets/lv_msgbox.c:231:1
	b	.LBB8_15
.LBB8_15:
	add	sp, #24
	pop.w	{r7, lr}
	add	sp, #8
	bx	lr
.Ltmp209:
.Lfunc_end8:
	.size	lv_msgbox_set_text_fmt, .Lfunc_end8-lv_msgbox_set_text_fmt
	.cfi_endproc
	.cantunwind
	.fnend
                                        @ -- End function
	.section	.text.lv_msgbox_set_anim_time,"ax",%progbits
	.hidden	lv_msgbox_set_anim_time         @ -- Begin function lv_msgbox_set_anim_time
	.globl	lv_msgbox_set_anim_time
	.p2align	3
	.type	lv_msgbox_set_anim_time,%function
	.code	16                              @ @lv_msgbox_set_anim_time
	.thumb_func
lv_msgbox_set_anim_time:
.Lfunc_begin9:
	.loc	10 239 0                        @ lvgl/src/lv_widgets/lv_msgbox.c:239:0
	.fnstart
	.cfi_startproc
@ %bb.0:
	.save	{r7, lr}
	push	{r7, lr}
	.cfi_def_cfa_offset 8
	.cfi_offset lr, -4
	.cfi_offset r7, -8
	.pad	#16
	sub	sp, #16
	.cfi_def_cfa_offset 24
                                        @ kill: def $r2 killed $r1
	str	r0, [sp, #12]
	strh.w	r1, [sp, #10]
.Ltmp210:
	.loc	10 240 5 prologue_end           @ lvgl/src/lv_widgets/lv_msgbox.c:240:5
	b	.LBB9_1
.LBB9_1:
.Ltmp211:
	.loc	10 240 5 is_stmt 0              @ lvgl/src/lv_widgets/lv_msgbox.c:240:5
	ldr	r0, [sp, #12]
	bl	lv_debug_check_null
.Ltmp212:
	.loc	10 240 5                        @ lvgl/src/lv_widgets/lv_msgbox.c:240:5
	cbnz	r0, .LBB9_4
	b	.LBB9_2
.LBB9_2:
.Ltmp213:
	.loc	10 240 5                        @ lvgl/src/lv_widgets/lv_msgbox.c:240:5
	ldr	r2, [sp, #12]
	movw	r0, :lower16:.L.str.2
	movt	r0, :upper16:.L.str.2
	movs	r3, #0
	bl	lv_debug_log_error
	b	.LBB9_3
.LBB9_3:                                @ =>This Inner Loop Header: Depth=1
	b	.LBB9_3
.Ltmp214:
.LBB9_4:
	.loc	10 240 5                        @ lvgl/src/lv_widgets/lv_msgbox.c:240:5
	b	.LBB9_5
.Ltmp215:
.LBB9_5:
	.loc	10 243 49 is_stmt 1             @ lvgl/src/lv_widgets/lv_msgbox.c:243:49
	ldr	r0, [sp, #12]
	.loc	10 243 29 is_stmt 0             @ lvgl/src/lv_widgets/lv_msgbox.c:243:29
	bl	lv_obj_get_ext_attr
	.loc	10 243 23                       @ lvgl/src/lv_widgets/lv_msgbox.c:243:23
	str	r0, [sp, #4]
	.loc	10 244 27 is_stmt 1             @ lvgl/src/lv_widgets/lv_msgbox.c:244:27
	ldrh.w	r0, [sp, #10]
	.loc	10 244 5 is_stmt 0              @ lvgl/src/lv_widgets/lv_msgbox.c:244:5
	ldr	r1, [sp, #4]
	.loc	10 244 25                       @ lvgl/src/lv_widgets/lv_msgbox.c:244:25
	strh	r0, [r1, #12]
	.loc	10 249 1 is_stmt 1              @ lvgl/src/lv_widgets/lv_msgbox.c:249:1
	add	sp, #16
	pop	{r7, pc}
.Ltmp216:
.Lfunc_end9:
	.size	lv_msgbox_set_anim_time, .Lfunc_end9-lv_msgbox_set_anim_time
	.cfi_endproc
	.cantunwind
	.fnend
                                        @ -- End function
	.section	.text.lv_msgbox_start_auto_close,"ax",%progbits
	.hidden	lv_msgbox_start_auto_close      @ -- Begin function lv_msgbox_start_auto_close
	.globl	lv_msgbox_start_auto_close
	.p2align	3
	.type	lv_msgbox_start_auto_close,%function
	.code	16                              @ @lv_msgbox_start_auto_close
	.thumb_func
lv_msgbox_start_auto_close:
.Lfunc_begin10:
	.loc	10 257 0                        @ lvgl/src/lv_widgets/lv_msgbox.c:257:0
	.fnstart
	.cfi_startproc
@ %bb.0:
	.save	{r7, lr}
	push	{r7, lr}
	.cfi_def_cfa_offset 8
	.cfi_offset lr, -4
	.cfi_offset r7, -8
	.pad	#152
	sub	sp, #152
	.cfi_def_cfa_offset 160
                                        @ kill: def $r2 killed $r1
	str	r0, [sp, #148]
	strh.w	r1, [sp, #146]
.Ltmp217:
	.loc	10 258 5 prologue_end           @ lvgl/src/lv_widgets/lv_msgbox.c:258:5
	b	.LBB10_1
.LBB10_1:
.Ltmp218:
	.loc	10 258 5 is_stmt 0              @ lvgl/src/lv_widgets/lv_msgbox.c:258:5
	ldr	r0, [sp, #148]
	bl	lv_debug_check_null
.Ltmp219:
	.loc	10 258 5                        @ lvgl/src/lv_widgets/lv_msgbox.c:258:5
	cbnz	r0, .LBB10_4
	b	.LBB10_2
.LBB10_2:
.Ltmp220:
	.loc	10 258 5                        @ lvgl/src/lv_widgets/lv_msgbox.c:258:5
	ldr	r2, [sp, #148]
	movw	r0, :lower16:.L.str.2
	movt	r0, :upper16:.L.str.2
	movs	r3, #0
	bl	lv_debug_log_error
	b	.LBB10_3
.LBB10_3:                               @ =>This Inner Loop Header: Depth=1
	b	.LBB10_3
.Ltmp221:
.LBB10_4:
	.loc	10 258 5                        @ lvgl/src/lv_widgets/lv_msgbox.c:258:5
	b	.LBB10_5
.Ltmp222:
.LBB10_5:
	.loc	10 261 32 is_stmt 1             @ lvgl/src/lv_widgets/lv_msgbox.c:261:32
	ldr	r0, [sp, #148]
	.loc	10 261 8 is_stmt 0              @ lvgl/src/lv_widgets/lv_msgbox.c:261:8
	bl	lv_msgbox_get_anim_time
.Ltmp223:
	.loc	10 261 8                        @ lvgl/src/lv_widgets/lv_msgbox.c:261:8
	cmp	r0, #0
	beq	.LBB10_7
	b	.LBB10_6
.LBB10_6:
	.loc	10 0 8                          @ lvgl/src/lv_widgets/lv_msgbox.c:0:8
	add	r0, sp, #80
.Ltmp224:
	.loc	10 264 9 is_stmt 1              @ lvgl/src/lv_widgets/lv_msgbox.c:264:9
	str	r0, [sp, #8]                    @ 4-byte Spill
	bl	lv_anim_init
	ldr	r0, [sp, #8]                    @ 4-byte Reload
	.loc	10 265 29                       @ lvgl/src/lv_widgets/lv_msgbox.c:265:29
	ldr	r1, [sp, #148]
	.loc	10 265 9 is_stmt 0              @ lvgl/src/lv_widgets/lv_msgbox.c:265:9
	bl	lv_anim_set_var
	ldr	r0, [sp, #8]                    @ 4-byte Reload
	.loc	10 266 9 is_stmt 1              @ lvgl/src/lv_widgets/lv_msgbox.c:266:9
	movw	r1, :lower16:lv_obj_set_height
	movt	r1, :upper16:lv_obj_set_height
	bl	lv_anim_set_exec_cb
	.loc	10 267 50                       @ lvgl/src/lv_widgets/lv_msgbox.c:267:50
	ldr	r0, [sp, #148]
	.loc	10 267 32 is_stmt 0             @ lvgl/src/lv_widgets/lv_msgbox.c:267:32
	bl	lv_obj_get_height
	mov	r1, r0
	.loc	10 267 9                        @ lvgl/src/lv_widgets/lv_msgbox.c:267:9
	ldr	r0, [sp, #8]                    @ 4-byte Reload
	movs	r2, #0
	str	r2, [sp, #12]                   @ 4-byte Spill
	bl	lv_anim_set_values
	.loc	10 268 54 is_stmt 1             @ lvgl/src/lv_widgets/lv_msgbox.c:268:54
	ldr	r0, [sp, #148]
	.loc	10 268 30 is_stmt 0             @ lvgl/src/lv_widgets/lv_msgbox.c:268:30
	bl	lv_msgbox_get_anim_time
	mov	r1, r0
	.loc	10 268 9                        @ lvgl/src/lv_widgets/lv_msgbox.c:268:9
	ldr	r0, [sp, #8]                    @ 4-byte Reload
	bl	lv_anim_set_time
	ldr	r0, [sp, #8]                    @ 4-byte Reload
	.loc	10 269 31 is_stmt 1             @ lvgl/src/lv_widgets/lv_msgbox.c:269:31
	ldrh.w	r1, [sp, #146]
	.loc	10 269 9 is_stmt 0              @ lvgl/src/lv_widgets/lv_msgbox.c:269:9
	bl	lv_anim_set_delay
	ldr	r0, [sp, #8]                    @ 4-byte Reload
	.loc	10 270 9 is_stmt 1              @ lvgl/src/lv_widgets/lv_msgbox.c:270:9
	bl	lv_anim_start
	ldr	r0, [sp, #8]                    @ 4-byte Reload
	.loc	10 272 9                        @ lvgl/src/lv_widgets/lv_msgbox.c:272:9
	movw	r1, :lower16:lv_obj_set_width
	movt	r1, :upper16:lv_obj_set_width
	bl	lv_anim_set_exec_cb
	.loc	10 273 49                       @ lvgl/src/lv_widgets/lv_msgbox.c:273:49
	ldr	r0, [sp, #148]
	.loc	10 273 32 is_stmt 0             @ lvgl/src/lv_widgets/lv_msgbox.c:273:32
	bl	lv_obj_get_width
	ldr	r2, [sp, #12]                   @ 4-byte Reload
	mov	r1, r0
	.loc	10 273 9                        @ lvgl/src/lv_widgets/lv_msgbox.c:273:9
	ldr	r0, [sp, #8]                    @ 4-byte Reload
	bl	lv_anim_set_values
	ldr	r0, [sp, #8]                    @ 4-byte Reload
	.loc	10 274 9 is_stmt 1              @ lvgl/src/lv_widgets/lv_msgbox.c:274:9
	movw	r1, :lower16:lv_msgbox_close_ready_cb
	movt	r1, :upper16:lv_msgbox_close_ready_cb
	bl	lv_anim_set_ready_cb
	ldr	r0, [sp, #8]                    @ 4-byte Reload
	.loc	10 275 9                        @ lvgl/src/lv_widgets/lv_msgbox.c:275:9
	bl	lv_anim_start
	ldr	r1, [sp, #12]                   @ 4-byte Reload
	.loc	10 278 25                       @ lvgl/src/lv_widgets/lv_msgbox.c:278:25
	ldr	r0, [sp, #148]
	.loc	10 278 9 is_stmt 0              @ lvgl/src/lv_widgets/lv_msgbox.c:278:9
	bl	lv_cont_set_fit
	.loc	10 279 5 is_stmt 1              @ lvgl/src/lv_widgets/lv_msgbox.c:279:5
	b	.LBB10_8
.Ltmp225:
.LBB10_7:
	.loc	10 0 5 is_stmt 0                @ lvgl/src/lv_widgets/lv_msgbox.c:0:5
	add	r0, sp, #16
.Ltmp226:
	.loc	10 283 9 is_stmt 1              @ lvgl/src/lv_widgets/lv_msgbox.c:283:9
	str	r0, [sp, #4]                    @ 4-byte Spill
	bl	lv_anim_init
	ldr	r0, [sp, #4]                    @ 4-byte Reload
	.loc	10 284 29                       @ lvgl/src/lv_widgets/lv_msgbox.c:284:29
	ldr	r1, [sp, #148]
	.loc	10 284 9 is_stmt 0              @ lvgl/src/lv_widgets/lv_msgbox.c:284:9
	bl	lv_anim_set_var
	ldr	r0, [sp, #4]                    @ 4-byte Reload
	movs	r1, #0
	.loc	10 285 9 is_stmt 1              @ lvgl/src/lv_widgets/lv_msgbox.c:285:9
	str	r1, [sp]                        @ 4-byte Spill
	bl	lv_anim_set_exec_cb
	ldr	r1, [sp]                        @ 4-byte Reload
	ldr	r0, [sp, #4]                    @ 4-byte Reload
	movs	r2, #1
	.loc	10 286 9                        @ lvgl/src/lv_widgets/lv_msgbox.c:286:9
	bl	lv_anim_set_values
	ldr	r0, [sp, #4]                    @ 4-byte Reload
	.loc	10 287 9                        @ lvgl/src/lv_widgets/lv_msgbox.c:287:9
	movw	r1, :lower16:lv_msgbox_close_ready_cb
	movt	r1, :upper16:lv_msgbox_close_ready_cb
	bl	lv_anim_set_ready_cb
	.loc	10 288 54                       @ lvgl/src/lv_widgets/lv_msgbox.c:288:54
	ldr	r0, [sp, #148]
	.loc	10 288 30 is_stmt 0             @ lvgl/src/lv_widgets/lv_msgbox.c:288:30
	bl	lv_msgbox_get_anim_time
	mov	r1, r0
	.loc	10 288 9                        @ lvgl/src/lv_widgets/lv_msgbox.c:288:9
	ldr	r0, [sp, #4]                    @ 4-byte Reload
	bl	lv_anim_set_time
	ldr	r0, [sp, #4]                    @ 4-byte Reload
	.loc	10 289 31 is_stmt 1             @ lvgl/src/lv_widgets/lv_msgbox.c:289:31
	ldrh.w	r1, [sp, #146]
	.loc	10 289 9 is_stmt 0              @ lvgl/src/lv_widgets/lv_msgbox.c:289:9
	bl	lv_anim_set_delay
	ldr	r0, [sp, #4]                    @ 4-byte Reload
	.loc	10 290 9 is_stmt 1              @ lvgl/src/lv_widgets/lv_msgbox.c:290:9
	bl	lv_anim_start
	b	.LBB10_8
.Ltmp227:
.LBB10_8:
	.loc	10 296 1                        @ lvgl/src/lv_widgets/lv_msgbox.c:296:1
	add	sp, #152
	pop	{r7, pc}
.Ltmp228:
.Lfunc_end10:
	.size	lv_msgbox_start_auto_close, .Lfunc_end10-lv_msgbox_start_auto_close
	.cfi_endproc
	.cantunwind
	.fnend
                                        @ -- End function
	.section	.text.lv_msgbox_get_anim_time,"ax",%progbits
	.hidden	lv_msgbox_get_anim_time         @ -- Begin function lv_msgbox_get_anim_time
	.globl	lv_msgbox_get_anim_time
	.p2align	3
	.type	lv_msgbox_get_anim_time,%function
	.code	16                              @ @lv_msgbox_get_anim_time
	.thumb_func
lv_msgbox_get_anim_time:
.Lfunc_begin11:
	.loc	10 389 0                        @ lvgl/src/lv_widgets/lv_msgbox.c:389:0
	.fnstart
	.cfi_startproc
@ %bb.0:
	.save	{r7, lr}
	push	{r7, lr}
	.cfi_def_cfa_offset 8
	.cfi_offset lr, -4
	.cfi_offset r7, -8
	.pad	#8
	sub	sp, #8
	.cfi_def_cfa_offset 16
	str	r0, [sp, #4]
.Ltmp229:
	.loc	10 390 5 prologue_end           @ lvgl/src/lv_widgets/lv_msgbox.c:390:5
	b	.LBB11_1
.LBB11_1:
.Ltmp230:
	.loc	10 390 5 is_stmt 0              @ lvgl/src/lv_widgets/lv_msgbox.c:390:5
	ldr	r0, [sp, #4]
	bl	lv_debug_check_null
.Ltmp231:
	.loc	10 390 5                        @ lvgl/src/lv_widgets/lv_msgbox.c:390:5
	cbnz	r0, .LBB11_4
	b	.LBB11_2
.LBB11_2:
.Ltmp232:
	.loc	10 390 5                        @ lvgl/src/lv_widgets/lv_msgbox.c:390:5
	ldr	r2, [sp, #4]
	movw	r0, :lower16:.L.str.2
	movt	r0, :upper16:.L.str.2
	movs	r3, #0
	bl	lv_debug_log_error
	b	.LBB11_3
.LBB11_3:                               @ =>This Inner Loop Header: Depth=1
	b	.LBB11_3
.Ltmp233:
.LBB11_4:
	.loc	10 390 5                        @ lvgl/src/lv_widgets/lv_msgbox.c:390:5
	b	.LBB11_5
.Ltmp234:
.LBB11_5:
	.loc	10 393 49 is_stmt 1             @ lvgl/src/lv_widgets/lv_msgbox.c:393:49
	ldr	r0, [sp, #4]
	.loc	10 393 29 is_stmt 0             @ lvgl/src/lv_widgets/lv_msgbox.c:393:29
	bl	lv_obj_get_ext_attr
	.loc	10 393 23                       @ lvgl/src/lv_widgets/lv_msgbox.c:393:23
	str	r0, [sp]
	.loc	10 394 12 is_stmt 1             @ lvgl/src/lv_widgets/lv_msgbox.c:394:12
	ldr	r0, [sp]
	.loc	10 394 17 is_stmt 0             @ lvgl/src/lv_widgets/lv_msgbox.c:394:17
	ldrh	r0, [r0, #12]
	.loc	10 394 5                        @ lvgl/src/lv_widgets/lv_msgbox.c:394:5
	add	sp, #8
	pop	{r7, pc}
.Ltmp235:
.Lfunc_end11:
	.size	lv_msgbox_get_anim_time, .Lfunc_end11-lv_msgbox_get_anim_time
	.cfi_endproc
	.cantunwind
	.fnend
                                        @ -- End function
	.section	.text.lv_anim_set_var,"ax",%progbits
	.p2align	3                               @ -- Begin function lv_anim_set_var
	.type	lv_anim_set_var,%function
	.code	16                              @ @lv_anim_set_var
	.thumb_func
lv_anim_set_var:
.Lfunc_begin12:
	.loc	18 126 0 is_stmt 1              @ lvgl/src/lv_widgets/../lv_misc/lv_anim.h:126:0
	.fnstart
	.cfi_startproc
@ %bb.0:
	.pad	#8
	sub	sp, #8
	.cfi_def_cfa_offset 8
	str	r0, [sp, #4]
	str	r1, [sp]
.Ltmp236:
	.loc	18 127 14 prologue_end          @ lvgl/src/lv_widgets/../lv_misc/lv_anim.h:127:14
	ldr	r0, [sp]
	.loc	18 127 5 is_stmt 0              @ lvgl/src/lv_widgets/../lv_misc/lv_anim.h:127:5
	ldr	r1, [sp, #4]
	.loc	18 127 12                       @ lvgl/src/lv_widgets/../lv_misc/lv_anim.h:127:12
	str	r0, [r1]
	.loc	18 128 1 is_stmt 1              @ lvgl/src/lv_widgets/../lv_misc/lv_anim.h:128:1
	add	sp, #8
	bx	lr
.Ltmp237:
.Lfunc_end12:
	.size	lv_anim_set_var, .Lfunc_end12-lv_anim_set_var
	.cfi_endproc
	.cantunwind
	.fnend
                                        @ -- End function
	.section	.text.lv_anim_set_exec_cb,"ax",%progbits
	.p2align	3                               @ -- Begin function lv_anim_set_exec_cb
	.type	lv_anim_set_exec_cb,%function
	.code	16                              @ @lv_anim_set_exec_cb
	.thumb_func
lv_anim_set_exec_cb:
.Lfunc_begin13:
	.loc	18 138 0                        @ lvgl/src/lv_widgets/../lv_misc/lv_anim.h:138:0
	.fnstart
	.cfi_startproc
@ %bb.0:
	.pad	#8
	sub	sp, #8
	.cfi_def_cfa_offset 8
	str	r0, [sp, #4]
	str	r1, [sp]
.Ltmp238:
	.loc	18 139 18 prologue_end          @ lvgl/src/lv_widgets/../lv_misc/lv_anim.h:139:18
	ldr	r0, [sp]
	.loc	18 139 5 is_stmt 0              @ lvgl/src/lv_widgets/../lv_misc/lv_anim.h:139:5
	ldr	r1, [sp, #4]
	.loc	18 139 16                       @ lvgl/src/lv_widgets/../lv_misc/lv_anim.h:139:16
	str	r0, [r1, #4]
	.loc	18 140 1 is_stmt 1              @ lvgl/src/lv_widgets/../lv_misc/lv_anim.h:140:1
	add	sp, #8
	bx	lr
.Ltmp239:
.Lfunc_end13:
	.size	lv_anim_set_exec_cb, .Lfunc_end13-lv_anim_set_exec_cb
	.cfi_endproc
	.cantunwind
	.fnend
                                        @ -- End function
	.section	.text.lv_anim_set_values,"ax",%progbits
	.p2align	3                               @ -- Begin function lv_anim_set_values
	.type	lv_anim_set_values,%function
	.code	16                              @ @lv_anim_set_values
	.thumb_func
lv_anim_set_values:
.Lfunc_begin14:
	.loc	18 169 0                        @ lvgl/src/lv_widgets/../lv_misc/lv_anim.h:169:0
	.fnstart
	.cfi_startproc
@ %bb.0:
	.pad	#8
	sub	sp, #8
	.cfi_def_cfa_offset 8
                                        @ kill: def $r3 killed $r2
                                        @ kill: def $r3 killed $r1
	str	r0, [sp, #4]
	strh.w	r1, [sp, #2]
	strh.w	r2, [sp]
.Ltmp240:
	.loc	18 170 16 prologue_end          @ lvgl/src/lv_widgets/../lv_misc/lv_anim.h:170:16
	ldrsh.w	r0, [sp, #2]
	.loc	18 170 5 is_stmt 0              @ lvgl/src/lv_widgets/../lv_misc/lv_anim.h:170:5
	ldr	r1, [sp, #4]
	.loc	18 170 14                       @ lvgl/src/lv_widgets/../lv_misc/lv_anim.h:170:14
	str	r0, [r1, #24]
	.loc	18 171 18 is_stmt 1             @ lvgl/src/lv_widgets/../lv_misc/lv_anim.h:171:18
	ldrsh.w	r0, [sp, #2]
	.loc	18 171 5 is_stmt 0              @ lvgl/src/lv_widgets/../lv_misc/lv_anim.h:171:5
	ldr	r1, [sp, #4]
	.loc	18 171 16                       @ lvgl/src/lv_widgets/../lv_misc/lv_anim.h:171:16
	str	r0, [r1, #28]
	.loc	18 172 14 is_stmt 1             @ lvgl/src/lv_widgets/../lv_misc/lv_anim.h:172:14
	ldrsh.w	r0, [sp]
	.loc	18 172 5 is_stmt 0              @ lvgl/src/lv_widgets/../lv_misc/lv_anim.h:172:5
	ldr	r1, [sp, #4]
	.loc	18 172 12                       @ lvgl/src/lv_widgets/../lv_misc/lv_anim.h:172:12
	str	r0, [r1, #32]
	.loc	18 173 1 is_stmt 1              @ lvgl/src/lv_widgets/../lv_misc/lv_anim.h:173:1
	add	sp, #8
	bx	lr
.Ltmp241:
.Lfunc_end14:
	.size	lv_anim_set_values, .Lfunc_end14-lv_anim_set_values
	.cfi_endproc
	.cantunwind
	.fnend
                                        @ -- End function
	.section	.text.lv_anim_set_time,"ax",%progbits
	.p2align	3                               @ -- Begin function lv_anim_set_time
	.type	lv_anim_set_time,%function
	.code	16                              @ @lv_anim_set_time
	.thumb_func
lv_anim_set_time:
.Lfunc_begin15:
	.loc	18 148 0                        @ lvgl/src/lv_widgets/../lv_misc/lv_anim.h:148:0
	.fnstart
	.cfi_startproc
@ %bb.0:
	.pad	#8
	sub	sp, #8
	.cfi_def_cfa_offset 8
	str	r0, [sp, #4]
	str	r1, [sp]
.Ltmp242:
	.loc	18 149 15 prologue_end          @ lvgl/src/lv_widgets/../lv_misc/lv_anim.h:149:15
	ldr	r0, [sp]
	.loc	18 149 5 is_stmt 0              @ lvgl/src/lv_widgets/../lv_misc/lv_anim.h:149:5
	ldr	r1, [sp, #4]
	.loc	18 149 13                       @ lvgl/src/lv_widgets/../lv_misc/lv_anim.h:149:13
	str	r0, [r1, #36]
	.loc	18 150 1 is_stmt 1              @ lvgl/src/lv_widgets/../lv_misc/lv_anim.h:150:1
	add	sp, #8
	bx	lr
.Ltmp243:
.Lfunc_end15:
	.size	lv_anim_set_time, .Lfunc_end15-lv_anim_set_time
	.cfi_endproc
	.cantunwind
	.fnend
                                        @ -- End function
	.section	.text.lv_anim_set_delay,"ax",%progbits
	.p2align	3                               @ -- Begin function lv_anim_set_delay
	.type	lv_anim_set_delay,%function
	.code	16                              @ @lv_anim_set_delay
	.thumb_func
lv_anim_set_delay:
.Lfunc_begin16:
	.loc	18 158 0                        @ lvgl/src/lv_widgets/../lv_misc/lv_anim.h:158:0
	.fnstart
	.cfi_startproc
@ %bb.0:
	.pad	#8
	sub	sp, #8
	.cfi_def_cfa_offset 8
	str	r0, [sp, #4]
	str	r1, [sp]
.Ltmp244:
	.loc	18 159 30 prologue_end          @ lvgl/src/lv_widgets/../lv_misc/lv_anim.h:159:30
	ldr	r0, [sp]
	.loc	18 159 19 is_stmt 0             @ lvgl/src/lv_widgets/../lv_misc/lv_anim.h:159:19
	rsbs	r0, r0, #0
	.loc	18 159 5                        @ lvgl/src/lv_widgets/../lv_misc/lv_anim.h:159:5
	ldr	r1, [sp, #4]
	.loc	18 159 17                       @ lvgl/src/lv_widgets/../lv_misc/lv_anim.h:159:17
	str	r0, [r1, #40]
	.loc	18 160 1 is_stmt 1              @ lvgl/src/lv_widgets/../lv_misc/lv_anim.h:160:1
	add	sp, #8
	bx	lr
.Ltmp245:
.Lfunc_end16:
	.size	lv_anim_set_delay, .Lfunc_end16-lv_anim_set_delay
	.cfi_endproc
	.cantunwind
	.fnend
                                        @ -- End function
	.section	.text.lv_anim_set_ready_cb,"ax",%progbits
	.p2align	3                               @ -- Begin function lv_anim_set_ready_cb
	.type	lv_anim_set_ready_cb,%function
	.code	16                              @ @lv_anim_set_ready_cb
	.thumb_func
lv_anim_set_ready_cb:
.Lfunc_begin17:
	.loc	18 217 0                        @ lvgl/src/lv_widgets/../lv_misc/lv_anim.h:217:0
	.fnstart
	.cfi_startproc
@ %bb.0:
	.pad	#8
	sub	sp, #8
	.cfi_def_cfa_offset 8
	str	r0, [sp, #4]
	str	r1, [sp]
.Ltmp246:
	.loc	18 218 19 prologue_end          @ lvgl/src/lv_widgets/../lv_misc/lv_anim.h:218:19
	ldr	r0, [sp]
	.loc	18 218 5 is_stmt 0              @ lvgl/src/lv_widgets/../lv_misc/lv_anim.h:218:5
	ldr	r1, [sp, #4]
	.loc	18 218 17                       @ lvgl/src/lv_widgets/../lv_misc/lv_anim.h:218:17
	str	r0, [r1, #12]
	.loc	18 219 1 is_stmt 1              @ lvgl/src/lv_widgets/../lv_misc/lv_anim.h:219:1
	add	sp, #8
	bx	lr
.Ltmp247:
.Lfunc_end17:
	.size	lv_anim_set_ready_cb, .Lfunc_end17-lv_anim_set_ready_cb
	.cfi_endproc
	.cantunwind
	.fnend
                                        @ -- End function
	.section	.text.lv_msgbox_close_ready_cb,"ax",%progbits
	.p2align	3                               @ -- Begin function lv_msgbox_close_ready_cb
	.type	lv_msgbox_close_ready_cb,%function
	.code	16                              @ @lv_msgbox_close_ready_cb
	.thumb_func
lv_msgbox_close_ready_cb:
.Lfunc_begin18:
	.loc	10 608 0                        @ lvgl/src/lv_widgets/lv_msgbox.c:608:0
	.fnstart
	.cfi_startproc
@ %bb.0:
	.save	{r7, lr}
	push	{r7, lr}
	.cfi_def_cfa_offset 8
	.cfi_offset lr, -4
	.cfi_offset r7, -8
	.pad	#8
	sub	sp, #8
	.cfi_def_cfa_offset 16
	str	r0, [sp, #4]
.Ltmp248:
	.loc	10 609 16 prologue_end          @ lvgl/src/lv_widgets/lv_msgbox.c:609:16
	ldr	r0, [sp, #4]
	.loc	10 609 19 is_stmt 0             @ lvgl/src/lv_widgets/lv_msgbox.c:609:19
	ldr	r0, [r0]
	.loc	10 609 5                        @ lvgl/src/lv_widgets/lv_msgbox.c:609:5
	bl	lv_obj_del
	.loc	10 610 1 is_stmt 1              @ lvgl/src/lv_widgets/lv_msgbox.c:610:1
	add	sp, #8
	pop	{r7, pc}
.Ltmp249:
.Lfunc_end18:
	.size	lv_msgbox_close_ready_cb, .Lfunc_end18-lv_msgbox_close_ready_cb
	.cfi_endproc
	.cantunwind
	.fnend
                                        @ -- End function
	.section	.text.lv_cont_set_fit,"ax",%progbits
	.p2align	3                               @ -- Begin function lv_cont_set_fit
	.type	lv_cont_set_fit,%function
	.code	16                              @ @lv_cont_set_fit
	.thumb_func
lv_cont_set_fit:
.Lfunc_begin19:
	.loc	12 169 0                        @ lvgl/src/lv_widgets/lv_cont.h:169:0
	.fnstart
	.cfi_startproc
@ %bb.0:
	.save	{r7, lr}
	push	{r7, lr}
	.cfi_def_cfa_offset 8
	.cfi_offset lr, -4
	.cfi_offset r7, -8
	.pad	#16
	sub	sp, #16
	.cfi_def_cfa_offset 24
                                        @ kill: def $r2 killed $r1
	str	r0, [sp, #12]
	strb.w	r1, [sp, #11]
.Ltmp250:
	.loc	12 170 22 prologue_end          @ lvgl/src/lv_widgets/lv_cont.h:170:22
	ldr	r0, [sp, #12]
	.loc	12 170 28 is_stmt 0             @ lvgl/src/lv_widgets/lv_cont.h:170:28
	ldrb.w	r3, [sp, #11]
	.loc	12 170 5                        @ lvgl/src/lv_widgets/lv_cont.h:170:5
	mov	r1, sp
	str	r3, [r1]
	mov	r1, r3
	mov	r2, r3
	bl	lv_cont_set_fit4
	.loc	12 171 1 is_stmt 1              @ lvgl/src/lv_widgets/lv_cont.h:171:1
	add	sp, #16
	pop	{r7, pc}
.Ltmp251:
.Lfunc_end19:
	.size	lv_cont_set_fit, .Lfunc_end19-lv_cont_set_fit
	.cfi_endproc
	.cantunwind
	.fnend
                                        @ -- End function
	.section	.text.lv_msgbox_stop_auto_close,"ax",%progbits
	.hidden	lv_msgbox_stop_auto_close       @ -- Begin function lv_msgbox_stop_auto_close
	.globl	lv_msgbox_stop_auto_close
	.p2align	3
	.type	lv_msgbox_stop_auto_close,%function
	.code	16                              @ @lv_msgbox_stop_auto_close
	.thumb_func
lv_msgbox_stop_auto_close:
.Lfunc_begin20:
	.loc	10 303 0                        @ lvgl/src/lv_widgets/lv_msgbox.c:303:0
	.fnstart
	.cfi_startproc
@ %bb.0:
	.save	{r7, lr}
	push	{r7, lr}
	.cfi_def_cfa_offset 8
	.cfi_offset lr, -4
	.cfi_offset r7, -8
	.pad	#8
	sub	sp, #8
	.cfi_def_cfa_offset 16
	str	r0, [sp, #4]
.Ltmp252:
	.loc	10 304 5 prologue_end           @ lvgl/src/lv_widgets/lv_msgbox.c:304:5
	b	.LBB20_1
.LBB20_1:
.Ltmp253:
	.loc	10 304 5 is_stmt 0              @ lvgl/src/lv_widgets/lv_msgbox.c:304:5
	ldr	r0, [sp, #4]
	bl	lv_debug_check_null
.Ltmp254:
	.loc	10 304 5                        @ lvgl/src/lv_widgets/lv_msgbox.c:304:5
	cbnz	r0, .LBB20_4
	b	.LBB20_2
.LBB20_2:
.Ltmp255:
	.loc	10 304 5                        @ lvgl/src/lv_widgets/lv_msgbox.c:304:5
	ldr	r2, [sp, #4]
	movw	r0, :lower16:.L.str.2
	movt	r0, :upper16:.L.str.2
	movs	r3, #0
	bl	lv_debug_log_error
	b	.LBB20_3
.LBB20_3:                               @ =>This Inner Loop Header: Depth=1
	b	.LBB20_3
.Ltmp256:
.LBB20_4:
	.loc	10 304 5                        @ lvgl/src/lv_widgets/lv_msgbox.c:304:5
	b	.LBB20_5
.Ltmp257:
.LBB20_5:
	.loc	10 307 17 is_stmt 1             @ lvgl/src/lv_widgets/lv_msgbox.c:307:17
	ldr	r0, [sp, #4]
	movs	r1, #0
	.loc	10 307 5 is_stmt 0              @ lvgl/src/lv_widgets/lv_msgbox.c:307:5
	bl	lv_anim_del
	.loc	10 311 1 is_stmt 1              @ lvgl/src/lv_widgets/lv_msgbox.c:311:1
	add	sp, #8
	pop	{r7, pc}
.Ltmp258:
.Lfunc_end20:
	.size	lv_msgbox_stop_auto_close, .Lfunc_end20-lv_msgbox_stop_auto_close
	.cfi_endproc
	.cantunwind
	.fnend
                                        @ -- End function
	.section	.text.lv_msgbox_set_recolor,"ax",%progbits
	.hidden	lv_msgbox_set_recolor           @ -- Begin function lv_msgbox_set_recolor
	.globl	lv_msgbox_set_recolor
	.p2align	3
	.type	lv_msgbox_set_recolor,%function
	.code	16                              @ @lv_msgbox_set_recolor
	.thumb_func
lv_msgbox_set_recolor:
.Lfunc_begin21:
	.loc	10 319 0                        @ lvgl/src/lv_widgets/lv_msgbox.c:319:0
	.fnstart
	.cfi_startproc
@ %bb.0:
	.save	{r7, lr}
	push	{r7, lr}
	.cfi_def_cfa_offset 8
	.cfi_offset lr, -4
	.cfi_offset r7, -8
	.pad	#16
	sub	sp, #16
	.cfi_def_cfa_offset 24
                                        @ kill: def $r2 killed $r1
	str	r0, [sp, #12]
	strb.w	r1, [sp, #11]
.Ltmp259:
	.loc	10 320 5 prologue_end           @ lvgl/src/lv_widgets/lv_msgbox.c:320:5
	b	.LBB21_1
.LBB21_1:
.Ltmp260:
	.loc	10 320 5 is_stmt 0              @ lvgl/src/lv_widgets/lv_msgbox.c:320:5
	ldr	r0, [sp, #12]
	bl	lv_debug_check_null
.Ltmp261:
	.loc	10 320 5                        @ lvgl/src/lv_widgets/lv_msgbox.c:320:5
	cbnz	r0, .LBB21_4
	b	.LBB21_2
.LBB21_2:
.Ltmp262:
	.loc	10 320 5                        @ lvgl/src/lv_widgets/lv_msgbox.c:320:5
	ldr	r2, [sp, #12]
	movw	r0, :lower16:.L.str.2
	movt	r0, :upper16:.L.str.2
	movs	r3, #0
	bl	lv_debug_log_error
	b	.LBB21_3
.LBB21_3:                               @ =>This Inner Loop Header: Depth=1
	b	.LBB21_3
.Ltmp263:
.LBB21_4:
	.loc	10 320 5                        @ lvgl/src/lv_widgets/lv_msgbox.c:320:5
	b	.LBB21_5
.Ltmp264:
.LBB21_5:
	.loc	10 322 49 is_stmt 1             @ lvgl/src/lv_widgets/lv_msgbox.c:322:49
	ldr	r0, [sp, #12]
	.loc	10 322 29 is_stmt 0             @ lvgl/src/lv_widgets/lv_msgbox.c:322:29
	bl	lv_obj_get_ext_attr
	.loc	10 322 23                       @ lvgl/src/lv_widgets/lv_msgbox.c:322:23
	str	r0, [sp, #4]
.Ltmp265:
	.loc	10 324 8 is_stmt 1              @ lvgl/src/lv_widgets/lv_msgbox.c:324:8
	ldr	r0, [sp, #4]
	.loc	10 324 13 is_stmt 0             @ lvgl/src/lv_widgets/lv_msgbox.c:324:13
	ldr	r0, [r0, #8]
.Ltmp266:
	.loc	10 324 8                        @ lvgl/src/lv_widgets/lv_msgbox.c:324:8
	cbz	r0, .LBB21_7
	b	.LBB21_6
.LBB21_6:
.Ltmp267:
	.loc	10 324 44                       @ lvgl/src/lv_widgets/lv_msgbox.c:324:44
	ldr	r0, [sp, #4]
	.loc	10 324 49                       @ lvgl/src/lv_widgets/lv_msgbox.c:324:49
	ldr	r0, [r0, #8]
	.loc	10 324 19                       @ lvgl/src/lv_widgets/lv_msgbox.c:324:19
	ldrb.w	r1, [sp, #11]
	and	r1, r1, #1
	bl	lv_btnmatrix_set_recolor
	b	.LBB21_7
.Ltmp268:
.LBB21_7:
	.loc	10 325 1 is_stmt 1              @ lvgl/src/lv_widgets/lv_msgbox.c:325:1
	add	sp, #16
	pop	{r7, pc}
.Ltmp269:
.Lfunc_end21:
	.size	lv_msgbox_set_recolor, .Lfunc_end21-lv_msgbox_set_recolor
	.cfi_endproc
	.cantunwind
	.fnend
                                        @ -- End function
	.section	.text.lv_msgbox_get_text,"ax",%progbits
	.hidden	lv_msgbox_get_text              @ -- Begin function lv_msgbox_get_text
	.globl	lv_msgbox_get_text
	.p2align	3
	.type	lv_msgbox_get_text,%function
	.code	16                              @ @lv_msgbox_get_text
	.thumb_func
lv_msgbox_get_text:
.Lfunc_begin22:
	.loc	10 337 0                        @ lvgl/src/lv_widgets/lv_msgbox.c:337:0
	.fnstart
	.cfi_startproc
@ %bb.0:
	.save	{r7, lr}
	push	{r7, lr}
	.cfi_def_cfa_offset 8
	.cfi_offset lr, -4
	.cfi_offset r7, -8
	.pad	#8
	sub	sp, #8
	.cfi_def_cfa_offset 16
	str	r0, [sp, #4]
.Ltmp270:
	.loc	10 338 5 prologue_end           @ lvgl/src/lv_widgets/lv_msgbox.c:338:5
	b	.LBB22_1
.LBB22_1:
.Ltmp271:
	.loc	10 338 5 is_stmt 0              @ lvgl/src/lv_widgets/lv_msgbox.c:338:5
	ldr	r0, [sp, #4]
	bl	lv_debug_check_null
.Ltmp272:
	.loc	10 338 5                        @ lvgl/src/lv_widgets/lv_msgbox.c:338:5
	cbnz	r0, .LBB22_4
	b	.LBB22_2
.LBB22_2:
.Ltmp273:
	.loc	10 338 5                        @ lvgl/src/lv_widgets/lv_msgbox.c:338:5
	ldr	r2, [sp, #4]
	movw	r0, :lower16:.L.str.2
	movt	r0, :upper16:.L.str.2
	movs	r3, #0
	bl	lv_debug_log_error
	b	.LBB22_3
.LBB22_3:                               @ =>This Inner Loop Header: Depth=1
	b	.LBB22_3
.Ltmp274:
.LBB22_4:
	.loc	10 338 5                        @ lvgl/src/lv_widgets/lv_msgbox.c:338:5
	b	.LBB22_5
.Ltmp275:
.LBB22_5:
	.loc	10 340 49 is_stmt 1             @ lvgl/src/lv_widgets/lv_msgbox.c:340:49
	ldr	r0, [sp, #4]
	.loc	10 340 29 is_stmt 0             @ lvgl/src/lv_widgets/lv_msgbox.c:340:29
	bl	lv_obj_get_ext_attr
	.loc	10 340 23                       @ lvgl/src/lv_widgets/lv_msgbox.c:340:23
	str	r0, [sp]
	.loc	10 342 30 is_stmt 1             @ lvgl/src/lv_widgets/lv_msgbox.c:342:30
	ldr	r0, [sp]
	.loc	10 342 35 is_stmt 0             @ lvgl/src/lv_widgets/lv_msgbox.c:342:35
	ldr	r0, [r0, #4]
	.loc	10 342 12                       @ lvgl/src/lv_widgets/lv_msgbox.c:342:12
	bl	lv_label_get_text
	.loc	10 342 5                        @ lvgl/src/lv_widgets/lv_msgbox.c:342:5
	add	sp, #8
	pop	{r7, pc}
.Ltmp276:
.Lfunc_end22:
	.size	lv_msgbox_get_text, .Lfunc_end22-lv_msgbox_get_text
	.cfi_endproc
	.cantunwind
	.fnend
                                        @ -- End function
	.section	.text.lv_msgbox_get_active_btn,"ax",%progbits
	.hidden	lv_msgbox_get_active_btn        @ -- Begin function lv_msgbox_get_active_btn
	.globl	lv_msgbox_get_active_btn
	.p2align	3
	.type	lv_msgbox_get_active_btn,%function
	.code	16                              @ @lv_msgbox_get_active_btn
	.thumb_func
lv_msgbox_get_active_btn:
.Lfunc_begin23:
	.loc	10 352 0 is_stmt 1              @ lvgl/src/lv_widgets/lv_msgbox.c:352:0
	.fnstart
	.cfi_startproc
@ %bb.0:
	.save	{r7, lr}
	push	{r7, lr}
	.cfi_def_cfa_offset 8
	.cfi_offset lr, -4
	.cfi_offset r7, -8
	.pad	#16
	sub	sp, #16
	.cfi_def_cfa_offset 24
	str	r0, [sp, #8]
.Ltmp277:
	.loc	10 353 5 prologue_end           @ lvgl/src/lv_widgets/lv_msgbox.c:353:5
	b	.LBB23_1
.LBB23_1:
.Ltmp278:
	.loc	10 353 5 is_stmt 0              @ lvgl/src/lv_widgets/lv_msgbox.c:353:5
	ldr	r0, [sp, #8]
	bl	lv_debug_check_null
.Ltmp279:
	.loc	10 353 5                        @ lvgl/src/lv_widgets/lv_msgbox.c:353:5
	cbnz	r0, .LBB23_4
	b	.LBB23_2
.LBB23_2:
.Ltmp280:
	.loc	10 353 5                        @ lvgl/src/lv_widgets/lv_msgbox.c:353:5
	ldr	r2, [sp, #8]
	movw	r0, :lower16:.L.str.2
	movt	r0, :upper16:.L.str.2
	movs	r3, #0
	bl	lv_debug_log_error
	b	.LBB23_3
.LBB23_3:                               @ =>This Inner Loop Header: Depth=1
	b	.LBB23_3
.Ltmp281:
.LBB23_4:
	.loc	10 353 5                        @ lvgl/src/lv_widgets/lv_msgbox.c:353:5
	b	.LBB23_5
.Ltmp282:
.LBB23_5:
	.loc	10 355 49 is_stmt 1             @ lvgl/src/lv_widgets/lv_msgbox.c:355:49
	ldr	r0, [sp, #8]
	.loc	10 355 29 is_stmt 0             @ lvgl/src/lv_widgets/lv_msgbox.c:355:29
	bl	lv_obj_get_ext_attr
	.loc	10 355 23                       @ lvgl/src/lv_widgets/lv_msgbox.c:355:23
	str	r0, [sp, #4]
.Ltmp283:
	.loc	10 356 8 is_stmt 1              @ lvgl/src/lv_widgets/lv_msgbox.c:356:8
	ldr	r0, [sp, #4]
	.loc	10 356 13 is_stmt 0             @ lvgl/src/lv_widgets/lv_msgbox.c:356:13
	ldr	r0, [r0, #8]
.Ltmp284:
	.loc	10 356 8                        @ lvgl/src/lv_widgets/lv_msgbox.c:356:8
	cbnz	r0, .LBB23_7
	b	.LBB23_6
.LBB23_6:
	.loc	10 0 8                          @ lvgl/src/lv_widgets/lv_msgbox.c:0:8
	movw	r0, #65535
.Ltmp285:
	.loc	10 356 27                       @ lvgl/src/lv_widgets/lv_msgbox.c:356:27
	strh.w	r0, [sp, #14]
	b	.LBB23_10
.Ltmp286:
.LBB23_7:
	.loc	10 358 47 is_stmt 1             @ lvgl/src/lv_widgets/lv_msgbox.c:358:47
	ldr	r0, [sp, #4]
	.loc	10 358 52 is_stmt 0             @ lvgl/src/lv_widgets/lv_msgbox.c:358:52
	ldr	r0, [r0, #8]
	.loc	10 358 19                       @ lvgl/src/lv_widgets/lv_msgbox.c:358:19
	bl	lv_btnmatrix_get_active_btn
	.loc	10 358 14                       @ lvgl/src/lv_widgets/lv_msgbox.c:358:14
	strh.w	r0, [sp, #2]
.Ltmp287:
	.loc	10 359 8 is_stmt 1              @ lvgl/src/lv_widgets/lv_msgbox.c:359:8
	ldrh.w	r0, [sp, #2]
	movw	r1, #65535
.Ltmp288:
	.loc	10 359 8 is_stmt 0              @ lvgl/src/lv_widgets/lv_msgbox.c:359:8
	cmp	r0, r1
	bne	.LBB23_9
	b	.LBB23_8
.LBB23_8:
.Ltmp289:
	.loc	10 360 43 is_stmt 1             @ lvgl/src/lv_widgets/lv_msgbox.c:360:43
	ldr	r0, [sp, #4]
	.loc	10 360 48 is_stmt 0             @ lvgl/src/lv_widgets/lv_msgbox.c:360:48
	ldr	r0, [r0, #8]
	.loc	10 360 14                       @ lvgl/src/lv_widgets/lv_msgbox.c:360:14
	bl	lv_btnmatrix_get_focused_btn
	.loc	10 360 12                       @ lvgl/src/lv_widgets/lv_msgbox.c:360:12
	strh.w	r0, [sp, #2]
	.loc	10 361 5 is_stmt 1              @ lvgl/src/lv_widgets/lv_msgbox.c:361:5
	b	.LBB23_9
.Ltmp290:
.LBB23_9:
	.loc	10 363 12                       @ lvgl/src/lv_widgets/lv_msgbox.c:363:12
	ldrh.w	r0, [sp, #2]
	.loc	10 363 5 is_stmt 0              @ lvgl/src/lv_widgets/lv_msgbox.c:363:5
	strh.w	r0, [sp, #14]
	b	.LBB23_10
.LBB23_10:
	.loc	10 364 1 is_stmt 1              @ lvgl/src/lv_widgets/lv_msgbox.c:364:1
	ldrh.w	r0, [sp, #14]
	add	sp, #16
	pop	{r7, pc}
.Ltmp291:
.Lfunc_end23:
	.size	lv_msgbox_get_active_btn, .Lfunc_end23-lv_msgbox_get_active_btn
	.cfi_endproc
	.cantunwind
	.fnend
                                        @ -- End function
	.section	.text.lv_msgbox_get_active_btn_text,"ax",%progbits
	.hidden	lv_msgbox_get_active_btn_text   @ -- Begin function lv_msgbox_get_active_btn_text
	.globl	lv_msgbox_get_active_btn_text
	.p2align	3
	.type	lv_msgbox_get_active_btn_text,%function
	.code	16                              @ @lv_msgbox_get_active_btn_text
	.thumb_func
lv_msgbox_get_active_btn_text:
.Lfunc_begin24:
	.loc	10 373 0                        @ lvgl/src/lv_widgets/lv_msgbox.c:373:0
	.fnstart
	.cfi_startproc
@ %bb.0:
	.save	{r7, lr}
	push	{r7, lr}
	.cfi_def_cfa_offset 8
	.cfi_offset lr, -4
	.cfi_offset r7, -8
	.pad	#16
	sub	sp, #16
	.cfi_def_cfa_offset 24
	str	r0, [sp, #8]
.Ltmp292:
	.loc	10 374 5 prologue_end           @ lvgl/src/lv_widgets/lv_msgbox.c:374:5
	b	.LBB24_1
.LBB24_1:
.Ltmp293:
	.loc	10 374 5 is_stmt 0              @ lvgl/src/lv_widgets/lv_msgbox.c:374:5
	ldr	r0, [sp, #8]
	bl	lv_debug_check_null
.Ltmp294:
	.loc	10 374 5                        @ lvgl/src/lv_widgets/lv_msgbox.c:374:5
	cbnz	r0, .LBB24_4
	b	.LBB24_2
.LBB24_2:
.Ltmp295:
	.loc	10 374 5                        @ lvgl/src/lv_widgets/lv_msgbox.c:374:5
	ldr	r2, [sp, #8]
	movw	r0, :lower16:.L.str.2
	movt	r0, :upper16:.L.str.2
	movs	r3, #0
	bl	lv_debug_log_error
	b	.LBB24_3
.LBB24_3:                               @ =>This Inner Loop Header: Depth=1
	b	.LBB24_3
.Ltmp296:
.LBB24_4:
	.loc	10 374 5                        @ lvgl/src/lv_widgets/lv_msgbox.c:374:5
	b	.LBB24_5
.Ltmp297:
.LBB24_5:
	.loc	10 376 49 is_stmt 1             @ lvgl/src/lv_widgets/lv_msgbox.c:376:49
	ldr	r0, [sp, #8]
	.loc	10 376 29 is_stmt 0             @ lvgl/src/lv_widgets/lv_msgbox.c:376:29
	bl	lv_obj_get_ext_attr
	.loc	10 376 23                       @ lvgl/src/lv_widgets/lv_msgbox.c:376:23
	str	r0, [sp, #4]
.Ltmp298:
	.loc	10 377 8 is_stmt 1              @ lvgl/src/lv_widgets/lv_msgbox.c:377:8
	ldr	r0, [sp, #4]
	.loc	10 377 13 is_stmt 0             @ lvgl/src/lv_widgets/lv_msgbox.c:377:13
	ldr	r0, [r0, #8]
.Ltmp299:
	.loc	10 377 8                        @ lvgl/src/lv_widgets/lv_msgbox.c:377:8
	cbz	r0, .LBB24_7
	b	.LBB24_6
.LBB24_6:
.Ltmp300:
	.loc	10 378 49 is_stmt 1             @ lvgl/src/lv_widgets/lv_msgbox.c:378:49
	ldr	r0, [sp, #4]
	.loc	10 378 54 is_stmt 0             @ lvgl/src/lv_widgets/lv_msgbox.c:378:54
	ldr	r0, [r0, #8]
	.loc	10 378 16                       @ lvgl/src/lv_widgets/lv_msgbox.c:378:16
	bl	lv_btnmatrix_get_active_btn_text
	.loc	10 378 9                        @ lvgl/src/lv_widgets/lv_msgbox.c:378:9
	str	r0, [sp, #12]
	b	.LBB24_8
.LBB24_7:
	.loc	10 0 9                          @ lvgl/src/lv_widgets/lv_msgbox.c:0:9
	movs	r0, #0
	.loc	10 380 9 is_stmt 1              @ lvgl/src/lv_widgets/lv_msgbox.c:380:9
	str	r0, [sp, #12]
	b	.LBB24_8
.Ltmp301:
.LBB24_8:
	.loc	10 381 1                        @ lvgl/src/lv_widgets/lv_msgbox.c:381:1
	ldr	r0, [sp, #12]
	add	sp, #16
	pop	{r7, pc}
.Ltmp302:
.Lfunc_end24:
	.size	lv_msgbox_get_active_btn_text, .Lfunc_end24-lv_msgbox_get_active_btn_text
	.cfi_endproc
	.cantunwind
	.fnend
                                        @ -- End function
	.section	.text.lv_msgbox_get_recolor,"ax",%progbits
	.hidden	lv_msgbox_get_recolor           @ -- Begin function lv_msgbox_get_recolor
	.globl	lv_msgbox_get_recolor
	.p2align	3
	.type	lv_msgbox_get_recolor,%function
	.code	16                              @ @lv_msgbox_get_recolor
	.thumb_func
lv_msgbox_get_recolor:
.Lfunc_begin25:
	.loc	10 407 0                        @ lvgl/src/lv_widgets/lv_msgbox.c:407:0
	.fnstart
	.cfi_startproc
@ %bb.0:
	.save	{r7, lr}
	push	{r7, lr}
	.cfi_def_cfa_offset 8
	.cfi_offset lr, -4
	.cfi_offset r7, -8
	.pad	#16
	sub	sp, #16
	.cfi_def_cfa_offset 24
	str	r0, [sp, #8]
.Ltmp303:
	.loc	10 408 5 prologue_end           @ lvgl/src/lv_widgets/lv_msgbox.c:408:5
	b	.LBB25_1
.LBB25_1:
.Ltmp304:
	.loc	10 408 5 is_stmt 0              @ lvgl/src/lv_widgets/lv_msgbox.c:408:5
	ldr	r0, [sp, #8]
	bl	lv_debug_check_null
.Ltmp305:
	.loc	10 408 5                        @ lvgl/src/lv_widgets/lv_msgbox.c:408:5
	cbnz	r0, .LBB25_4
	b	.LBB25_2
.LBB25_2:
.Ltmp306:
	.loc	10 408 5                        @ lvgl/src/lv_widgets/lv_msgbox.c:408:5
	ldr	r2, [sp, #8]
	movw	r0, :lower16:.L.str.2
	movt	r0, :upper16:.L.str.2
	movs	r3, #0
	bl	lv_debug_log_error
	b	.LBB25_3
.LBB25_3:                               @ =>This Inner Loop Header: Depth=1
	b	.LBB25_3
.Ltmp307:
.LBB25_4:
	.loc	10 408 5                        @ lvgl/src/lv_widgets/lv_msgbox.c:408:5
	b	.LBB25_5
.Ltmp308:
.LBB25_5:
	.loc	10 410 49 is_stmt 1             @ lvgl/src/lv_widgets/lv_msgbox.c:410:49
	ldr	r0, [sp, #8]
	.loc	10 410 29 is_stmt 0             @ lvgl/src/lv_widgets/lv_msgbox.c:410:29
	bl	lv_obj_get_ext_attr
	.loc	10 410 23                       @ lvgl/src/lv_widgets/lv_msgbox.c:410:23
	str	r0, [sp, #4]
.Ltmp309:
	.loc	10 412 9 is_stmt 1              @ lvgl/src/lv_widgets/lv_msgbox.c:412:9
	ldr	r0, [sp, #4]
	.loc	10 412 14 is_stmt 0             @ lvgl/src/lv_widgets/lv_msgbox.c:412:14
	ldr	r0, [r0, #8]
.Ltmp310:
	.loc	10 412 8                        @ lvgl/src/lv_widgets/lv_msgbox.c:412:8
	cbnz	r0, .LBB25_7
	b	.LBB25_6
.LBB25_6:
	.loc	10 0 8                          @ lvgl/src/lv_widgets/lv_msgbox.c:0:8
	movs	r0, #0
.Ltmp311:
	.loc	10 412 20                       @ lvgl/src/lv_widgets/lv_msgbox.c:412:20
	strb.w	r0, [sp, #15]
	b	.LBB25_8
.Ltmp312:
.LBB25_7:
	.loc	10 414 37 is_stmt 1             @ lvgl/src/lv_widgets/lv_msgbox.c:414:37
	ldr	r0, [sp, #4]
	.loc	10 414 42 is_stmt 0             @ lvgl/src/lv_widgets/lv_msgbox.c:414:42
	ldr	r0, [r0, #8]
	.loc	10 414 12                       @ lvgl/src/lv_widgets/lv_msgbox.c:414:12
	bl	lv_btnmatrix_get_recolor
	.loc	10 414 5                        @ lvgl/src/lv_widgets/lv_msgbox.c:414:5
	strb.w	r0, [sp, #15]
	b	.LBB25_8
.LBB25_8:
	.loc	10 415 1 is_stmt 1              @ lvgl/src/lv_widgets/lv_msgbox.c:415:1
	ldrb.w	r0, [sp, #15]
	add	sp, #16
	pop	{r7, pc}
.Ltmp313:
.Lfunc_end25:
	.size	lv_msgbox_get_recolor, .Lfunc_end25-lv_msgbox_get_recolor
	.cfi_endproc
	.cantunwind
	.fnend
                                        @ -- End function
	.section	.text.lv_msgbox_get_btnmatrix,"ax",%progbits
	.hidden	lv_msgbox_get_btnmatrix         @ -- Begin function lv_msgbox_get_btnmatrix
	.globl	lv_msgbox_get_btnmatrix
	.p2align	3
	.type	lv_msgbox_get_btnmatrix,%function
	.code	16                              @ @lv_msgbox_get_btnmatrix
	.thumb_func
lv_msgbox_get_btnmatrix:
.Lfunc_begin26:
	.loc	10 424 0                        @ lvgl/src/lv_widgets/lv_msgbox.c:424:0
	.fnstart
	.cfi_startproc
@ %bb.0:
	.save	{r7, lr}
	push	{r7, lr}
	.cfi_def_cfa_offset 8
	.cfi_offset lr, -4
	.cfi_offset r7, -8
	.pad	#8
	sub	sp, #8
	.cfi_def_cfa_offset 16
	str	r0, [sp, #4]
.Ltmp314:
	.loc	10 425 5 prologue_end           @ lvgl/src/lv_widgets/lv_msgbox.c:425:5
	b	.LBB26_1
.LBB26_1:
.Ltmp315:
	.loc	10 425 5 is_stmt 0              @ lvgl/src/lv_widgets/lv_msgbox.c:425:5
	ldr	r0, [sp, #4]
	bl	lv_debug_check_null
.Ltmp316:
	.loc	10 425 5                        @ lvgl/src/lv_widgets/lv_msgbox.c:425:5
	cbnz	r0, .LBB26_4
	b	.LBB26_2
.LBB26_2:
.Ltmp317:
	.loc	10 425 5                        @ lvgl/src/lv_widgets/lv_msgbox.c:425:5
	ldr	r2, [sp, #4]
	movw	r0, :lower16:.L.str.2
	movt	r0, :upper16:.L.str.2
	movs	r3, #0
	bl	lv_debug_log_error
	b	.LBB26_3
.LBB26_3:                               @ =>This Inner Loop Header: Depth=1
	b	.LBB26_3
.Ltmp318:
.LBB26_4:
	.loc	10 425 5                        @ lvgl/src/lv_widgets/lv_msgbox.c:425:5
	b	.LBB26_5
.Ltmp319:
.LBB26_5:
	.loc	10 427 49 is_stmt 1             @ lvgl/src/lv_widgets/lv_msgbox.c:427:49
	ldr	r0, [sp, #4]
	.loc	10 427 29 is_stmt 0             @ lvgl/src/lv_widgets/lv_msgbox.c:427:29
	bl	lv_obj_get_ext_attr
	.loc	10 427 23                       @ lvgl/src/lv_widgets/lv_msgbox.c:427:23
	str	r0, [sp]
	.loc	10 428 12 is_stmt 1             @ lvgl/src/lv_widgets/lv_msgbox.c:428:12
	ldr	r0, [sp]
	.loc	10 428 17 is_stmt 0             @ lvgl/src/lv_widgets/lv_msgbox.c:428:17
	ldr	r0, [r0, #8]
	.loc	10 428 5                        @ lvgl/src/lv_widgets/lv_msgbox.c:428:5
	add	sp, #8
	pop	{r7, pc}
.Ltmp320:
.Lfunc_end26:
	.size	lv_msgbox_get_btnmatrix, .Lfunc_end26-lv_msgbox_get_btnmatrix
	.cfi_endproc
	.cantunwind
	.fnend
                                        @ -- End function
	.section	.text.lv_msgbox_get_style,"ax",%progbits
	.p2align	3                               @ -- Begin function lv_msgbox_get_style
	.type	lv_msgbox_get_style,%function
	.code	16                              @ @lv_msgbox_get_style
	.thumb_func
lv_msgbox_get_style:
.Lfunc_begin27:
	.loc	10 548 0 is_stmt 1              @ lvgl/src/lv_widgets/lv_msgbox.c:548:0
	.fnstart
	.cfi_startproc
@ %bb.0:
	.save	{r7, lr}
	push	{r7, lr}
	.cfi_def_cfa_offset 8
	.cfi_offset lr, -4
	.cfi_offset r7, -8
	.pad	#32
	sub	sp, #32
	.cfi_def_cfa_offset 40
                                        @ kill: def $r2 killed $r1
	str	r0, [sp, #28]
	strb.w	r1, [sp, #27]
.Ltmp321:
	.loc	10 549 5 prologue_end           @ lvgl/src/lv_widgets/lv_msgbox.c:549:5
	b	.LBB27_1
.LBB27_1:
.Ltmp322:
	.loc	10 549 5 is_stmt 0              @ lvgl/src/lv_widgets/lv_msgbox.c:549:5
	ldr	r0, [sp, #28]
	bl	lv_debug_check_null
.Ltmp323:
	.loc	10 549 5                        @ lvgl/src/lv_widgets/lv_msgbox.c:549:5
	cbnz	r0, .LBB27_4
	b	.LBB27_2
.LBB27_2:
.Ltmp324:
	.loc	10 549 5                        @ lvgl/src/lv_widgets/lv_msgbox.c:549:5
	ldr	r2, [sp, #28]
	movw	r0, :lower16:.L.str.2
	movt	r0, :upper16:.L.str.2
	movs	r3, #0
	bl	lv_debug_log_error
	b	.LBB27_3
.LBB27_3:                               @ =>This Inner Loop Header: Depth=1
	b	.LBB27_3
.Ltmp325:
.LBB27_4:
	.loc	10 549 5                        @ lvgl/src/lv_widgets/lv_msgbox.c:549:5
	b	.LBB27_5
.Ltmp326:
.LBB27_5:
	.loc	10 551 49 is_stmt 1             @ lvgl/src/lv_widgets/lv_msgbox.c:551:49
	ldr	r0, [sp, #28]
	.loc	10 551 29 is_stmt 0             @ lvgl/src/lv_widgets/lv_msgbox.c:551:29
	bl	lv_obj_get_ext_attr
	.loc	10 551 23                       @ lvgl/src/lv_widgets/lv_msgbox.c:551:23
	str	r0, [sp, #20]
	.loc	10 554 12 is_stmt 1             @ lvgl/src/lv_widgets/lv_msgbox.c:554:12
	ldrb.w	r0, [sp, #27]
	.loc	10 554 5 is_stmt 0              @ lvgl/src/lv_widgets/lv_msgbox.c:554:5
	mov	r1, r0
	str	r1, [sp, #12]                   @ 4-byte Spill
	cbz	r0, .LBB27_8
	b	.LBB27_6
.LBB27_6:
	ldr	r0, [sp, #12]                   @ 4-byte Reload
	cmp	r0, #64
	beq	.LBB27_9
	b	.LBB27_7
.LBB27_7:
	ldr	r0, [sp, #12]                   @ 4-byte Reload
	cmp	r0, #65
	beq	.LBB27_13
	b	.LBB27_17
.LBB27_8:
.Ltmp327:
	.loc	10 556 28 is_stmt 1             @ lvgl/src/lv_widgets/lv_msgbox.c:556:28
	ldr	r0, [sp, #28]
	.loc	10 556 34 is_stmt 0             @ lvgl/src/lv_widgets/lv_msgbox.c:556:34
	adds	r0, #40
	.loc	10 556 25                       @ lvgl/src/lv_widgets/lv_msgbox.c:556:25
	str	r0, [sp, #16]
	.loc	10 557 13 is_stmt 1             @ lvgl/src/lv_widgets/lv_msgbox.c:557:13
	b	.LBB27_18
.LBB27_9:
	.loc	10 559 27                       @ lvgl/src/lv_widgets/lv_msgbox.c:559:27
	ldr	r0, [sp, #20]
	.loc	10 559 32 is_stmt 0             @ lvgl/src/lv_widgets/lv_msgbox.c:559:32
	ldr	r0, [r0, #8]
	.loc	10 559 27                       @ lvgl/src/lv_widgets/lv_msgbox.c:559:27
	cbz	r0, .LBB27_11
	b	.LBB27_10
.LBB27_10:
	.loc	10 559 61                       @ lvgl/src/lv_widgets/lv_msgbox.c:559:61
	ldr	r0, [sp, #20]
	.loc	10 559 66                       @ lvgl/src/lv_widgets/lv_msgbox.c:559:66
	ldr	r0, [r0, #8]
	movs	r1, #0
	.loc	10 559 39                       @ lvgl/src/lv_widgets/lv_msgbox.c:559:39
	bl	lv_obj_get_style_list
	.loc	10 559 27                       @ lvgl/src/lv_widgets/lv_msgbox.c:559:27
	str	r0, [sp, #8]                    @ 4-byte Spill
	b	.LBB27_12
.LBB27_11:
	.loc	10 0 27                         @ lvgl/src/lv_widgets/lv_msgbox.c:0:27
	movs	r0, #0
	.loc	10 559 27                       @ lvgl/src/lv_widgets/lv_msgbox.c:559:27
	str	r0, [sp, #8]                    @ 4-byte Spill
	b	.LBB27_12
.LBB27_12:
	ldr	r0, [sp, #8]                    @ 4-byte Reload
	.loc	10 559 25                       @ lvgl/src/lv_widgets/lv_msgbox.c:559:25
	str	r0, [sp, #16]
	.loc	10 560 13 is_stmt 1             @ lvgl/src/lv_widgets/lv_msgbox.c:560:13
	b	.LBB27_18
.LBB27_13:
	.loc	10 562 27                       @ lvgl/src/lv_widgets/lv_msgbox.c:562:27
	ldr	r0, [sp, #20]
	.loc	10 562 32 is_stmt 0             @ lvgl/src/lv_widgets/lv_msgbox.c:562:32
	ldr	r0, [r0, #8]
	.loc	10 562 27                       @ lvgl/src/lv_widgets/lv_msgbox.c:562:27
	cbz	r0, .LBB27_15
	b	.LBB27_14
.LBB27_14:
	.loc	10 562 61                       @ lvgl/src/lv_widgets/lv_msgbox.c:562:61
	ldr	r0, [sp, #20]
	.loc	10 562 66                       @ lvgl/src/lv_widgets/lv_msgbox.c:562:66
	ldr	r0, [r0, #8]
	movs	r1, #1
	.loc	10 562 39                       @ lvgl/src/lv_widgets/lv_msgbox.c:562:39
	bl	lv_obj_get_style_list
	.loc	10 562 27                       @ lvgl/src/lv_widgets/lv_msgbox.c:562:27
	str	r0, [sp, #4]                    @ 4-byte Spill
	b	.LBB27_16
.LBB27_15:
	.loc	10 0 27                         @ lvgl/src/lv_widgets/lv_msgbox.c:0:27
	movs	r0, #0
	.loc	10 562 27                       @ lvgl/src/lv_widgets/lv_msgbox.c:562:27
	str	r0, [sp, #4]                    @ 4-byte Spill
	b	.LBB27_16
.LBB27_16:
	ldr	r0, [sp, #4]                    @ 4-byte Reload
	.loc	10 562 25                       @ lvgl/src/lv_widgets/lv_msgbox.c:562:25
	str	r0, [sp, #16]
	.loc	10 563 13 is_stmt 1             @ lvgl/src/lv_widgets/lv_msgbox.c:563:13
	b	.LBB27_18
.LBB27_17:
	.loc	10 0 13 is_stmt 0               @ lvgl/src/lv_widgets/lv_msgbox.c:0:13
	movs	r0, #0
	.loc	10 565 25 is_stmt 1             @ lvgl/src/lv_widgets/lv_msgbox.c:565:25
	str	r0, [sp, #16]
	.loc	10 566 5                        @ lvgl/src/lv_widgets/lv_msgbox.c:566:5
	b	.LBB27_18
.Ltmp328:
.LBB27_18:
	.loc	10 568 12                       @ lvgl/src/lv_widgets/lv_msgbox.c:568:12
	ldr	r0, [sp, #16]
	.loc	10 568 5 is_stmt 0              @ lvgl/src/lv_widgets/lv_msgbox.c:568:5
	add	sp, #32
	pop	{r7, pc}
.Ltmp329:
.Lfunc_end27:
	.size	lv_msgbox_get_style, .Lfunc_end27-lv_msgbox_get_style
	.cfi_endproc
	.cantunwind
	.fnend
                                        @ -- End function
	.section	.text.lv_area_get_width,"ax",%progbits
	.p2align	3                               @ -- Begin function lv_area_get_width
	.type	lv_area_get_width,%function
	.code	16                              @ @lv_area_get_width
	.thumb_func
lv_area_get_width:
.Lfunc_begin28:
	.loc	6 108 0 is_stmt 1               @ lvgl/src/lv_widgets/../lv_core/../lv_hal/../lv_misc/lv_area.h:108:0
	.fnstart
	.cfi_startproc
@ %bb.0:
	.pad	#4
	sub	sp, #4
	.cfi_def_cfa_offset 4
	str	r0, [sp]
.Ltmp330:
	.loc	6 109 25 prologue_end           @ lvgl/src/lv_widgets/../lv_core/../lv_hal/../lv_misc/lv_area.h:109:25
	ldr	r1, [sp]
	ldrh	r0, [r1, #4]
	.loc	6 109 38 is_stmt 0              @ lvgl/src/lv_widgets/../lv_core/../lv_hal/../lv_misc/lv_area.h:109:38
	ldrh	r1, [r1]
	.loc	6 109 36                        @ lvgl/src/lv_widgets/../lv_core/../lv_hal/../lv_misc/lv_area.h:109:36
	subs	r0, r0, r1
	.loc	6 109 49                        @ lvgl/src/lv_widgets/../lv_core/../lv_hal/../lv_misc/lv_area.h:109:49
	adds	r0, #1
	.loc	6 109 5                         @ lvgl/src/lv_widgets/../lv_core/../lv_hal/../lv_misc/lv_area.h:109:5
	sxth	r0, r0
	add	sp, #4
	bx	lr
.Ltmp331:
.Lfunc_end28:
	.size	lv_area_get_width, .Lfunc_end28-lv_area_get_width
	.cfi_endproc
	.cantunwind
	.fnend
                                        @ -- End function
	.section	.text.lv_obj_get_style_pad_top,"ax",%progbits
	.p2align	3                               @ -- Begin function lv_obj_get_style_pad_top
	.type	lv_obj_get_style_pad_top,%function
	.code	16                              @ @lv_obj_get_style_pad_top
	.thumb_func
lv_obj_get_style_pad_top:
.Lfunc_begin29:
	.file	19 "E:\\STM32\\Learning\\STM32H750_ART_PI_RGBLCD" "lvgl/src/lv_widgets/../lv_core/lv_obj_style_dec.h"
	.loc	19 100 0 is_stmt 1              @ lvgl/src/lv_widgets/../lv_core/lv_obj_style_dec.h:100:0
	.fnstart
	.cfi_startproc
@ %bb.0:
	.save	{r7, lr}
	push	{r7, lr}
	.cfi_def_cfa_offset 8
	.cfi_offset lr, -4
	.cfi_offset r7, -8
	.pad	#8
	sub	sp, #8
	.cfi_def_cfa_offset 16
                                        @ kill: def $r2 killed $r1
	str	r0, [sp, #4]
	strb.w	r1, [sp, #3]
.Ltmp332:
	.loc	19 100 1 prologue_end           @ lvgl/src/lv_widgets/../lv_core/lv_obj_style_dec.h:100:1
	ldr	r0, [sp, #4]
	ldrb.w	r1, [sp, #3]
	movs	r2, #16
	bl	_lv_obj_get_style_int
	add	sp, #8
	pop	{r7, pc}
.Ltmp333:
.Lfunc_end29:
	.size	lv_obj_get_style_pad_top, .Lfunc_end29-lv_obj_get_style_pad_top
	.cfi_endproc
	.cantunwind
	.fnend
                                        @ -- End function
	.section	.text.lv_obj_get_style_pad_bottom,"ax",%progbits
	.p2align	3                               @ -- Begin function lv_obj_get_style_pad_bottom
	.type	lv_obj_get_style_pad_bottom,%function
	.code	16                              @ @lv_obj_get_style_pad_bottom
	.thumb_func
lv_obj_get_style_pad_bottom:
.Lfunc_begin30:
	.loc	19 101 0                        @ lvgl/src/lv_widgets/../lv_core/lv_obj_style_dec.h:101:0
	.fnstart
	.cfi_startproc
@ %bb.0:
	.save	{r7, lr}
	push	{r7, lr}
	.cfi_def_cfa_offset 8
	.cfi_offset lr, -4
	.cfi_offset r7, -8
	.pad	#8
	sub	sp, #8
	.cfi_def_cfa_offset 16
                                        @ kill: def $r2 killed $r1
	str	r0, [sp, #4]
	strb.w	r1, [sp, #3]
.Ltmp334:
	.loc	19 101 1 prologue_end           @ lvgl/src/lv_widgets/../lv_core/lv_obj_style_dec.h:101:1
	ldr	r0, [sp, #4]
	ldrb.w	r1, [sp, #3]
	movs	r2, #17
	bl	_lv_obj_get_style_int
	add	sp, #8
	pop	{r7, pc}
.Ltmp335:
.Lfunc_end30:
	.size	lv_obj_get_style_pad_bottom, .Lfunc_end30-lv_obj_get_style_pad_bottom
	.cfi_endproc
	.cantunwind
	.fnend
                                        @ -- End function
	.section	.text.lv_obj_get_style_pad_inner,"ax",%progbits
	.p2align	3                               @ -- Begin function lv_obj_get_style_pad_inner
	.type	lv_obj_get_style_pad_inner,%function
	.code	16                              @ @lv_obj_get_style_pad_inner
	.thumb_func
lv_obj_get_style_pad_inner:
.Lfunc_begin31:
	.loc	19 104 0                        @ lvgl/src/lv_widgets/../lv_core/lv_obj_style_dec.h:104:0
	.fnstart
	.cfi_startproc
@ %bb.0:
	.save	{r7, lr}
	push	{r7, lr}
	.cfi_def_cfa_offset 8
	.cfi_offset lr, -4
	.cfi_offset r7, -8
	.pad	#8
	sub	sp, #8
	.cfi_def_cfa_offset 16
                                        @ kill: def $r2 killed $r1
	str	r0, [sp, #4]
	strb.w	r1, [sp, #3]
.Ltmp336:
	.loc	19 104 1 prologue_end           @ lvgl/src/lv_widgets/../lv_core/lv_obj_style_dec.h:104:1
	ldr	r0, [sp, #4]
	ldrb.w	r1, [sp, #3]
	movs	r2, #20
	bl	_lv_obj_get_style_int
	add	sp, #8
	pop	{r7, pc}
.Ltmp337:
.Lfunc_end31:
	.size	lv_obj_get_style_pad_inner, .Lfunc_end31-lv_obj_get_style_pad_inner
	.cfi_endproc
	.cantunwind
	.fnend
                                        @ -- End function
	.section	.text.lv_obj_get_style_text_font,"ax",%progbits
	.p2align	3                               @ -- Begin function lv_obj_get_style_text_font
	.type	lv_obj_get_style_text_font,%function
	.code	16                              @ @lv_obj_get_style_text_font
	.thumb_func
lv_obj_get_style_text_font:
.Lfunc_begin32:
	.loc	19 158 0                        @ lvgl/src/lv_widgets/../lv_core/lv_obj_style_dec.h:158:0
	.fnstart
	.cfi_startproc
@ %bb.0:
	.save	{r7, lr}
	push	{r7, lr}
	.cfi_def_cfa_offset 8
	.cfi_offset lr, -4
	.cfi_offset r7, -8
	.pad	#8
	sub	sp, #8
	.cfi_def_cfa_offset 16
                                        @ kill: def $r2 killed $r1
	str	r0, [sp, #4]
	strb.w	r1, [sp, #3]
.Ltmp338:
	.loc	19 158 1 prologue_end           @ lvgl/src/lv_widgets/../lv_core/lv_obj_style_dec.h:158:1
	ldr	r0, [sp, #4]
	ldrb.w	r1, [sp, #3]
	movw	r2, #32910
	bl	_lv_obj_get_style_ptr
	add	sp, #8
	pop	{r7, pc}
.Ltmp339:
.Lfunc_end32:
	.size	lv_obj_get_style_text_font, .Lfunc_end32-lv_obj_get_style_text_font
	.cfi_endproc
	.cantunwind
	.fnend
                                        @ -- End function
	.section	.text.lv_font_get_line_height,"ax",%progbits
	.p2align	3                               @ -- Begin function lv_font_get_line_height
	.type	lv_font_get_line_height,%function
	.code	16                              @ @lv_font_get_line_height
	.thumb_func
lv_font_get_line_height:
.Lfunc_begin33:
	.file	20 "E:\\STM32\\Learning\\STM32H750_ART_PI_RGBLCD" "lvgl/src/lv_widgets/../lv_font/lv_font.h"
	.loc	20 117 0                        @ lvgl/src/lv_widgets/../lv_font/lv_font.h:117:0
	.fnstart
	.cfi_startproc
@ %bb.0:
	.pad	#4
	sub	sp, #4
	.cfi_def_cfa_offset 4
	str	r0, [sp]
.Ltmp340:
	.loc	20 118 12 prologue_end          @ lvgl/src/lv_widgets/../lv_font/lv_font.h:118:12
	ldr	r0, [sp]
	.loc	20 118 20 is_stmt 0             @ lvgl/src/lv_widgets/../lv_font/lv_font.h:118:20
	ldrsh.w	r0, [r0, #8]
	.loc	20 118 5                        @ lvgl/src/lv_widgets/../lv_font/lv_font.h:118:5
	add	sp, #4
	bx	lr
.Ltmp341:
.Lfunc_end33:
	.size	lv_font_get_line_height, .Lfunc_end33-lv_font_get_line_height
	.cfi_endproc
	.cantunwind
	.fnend
                                        @ -- End function
	.type	.L.str,%object                  @ @.str
	.section	.rodata.str1.1,"aMS",%progbits,1
.L.str:
	.asciz	"Out of memory"
	.size	.L.str, 14

	.type	ancestor_signal,%object         @ @ancestor_signal
	.section	.bss.ancestor_signal,"aw",%nobits
	.p2align	2
ancestor_signal:
	.long	0
	.size	ancestor_signal, 4

	.type	.L.str.1,%object                @ @.str.1
	.section	.rodata.str1.1,"aMS",%progbits,1
.L.str.1:
	.asciz	"Message"
	.size	.L.str.1, 8

	.type	.L.str.2,%object                @ @.str.2
.L.str.2:
	.asciz	"NULL pointer"
	.size	.L.str.2, 13

	.type	.L.str.3,%object                @ @.str.3
.L.str.3:
	.asciz	"lv_msgbox"
	.size	.L.str.3, 10

	.file	21 "E:\\STM32\\Learning\\STM32H750_ART_PI_RGBLCD" "lvgl/src/lv_widgets/../lv_core/../lv_hal/../lv_misc/lv_color.h"
	.file	22 "E:\\STM32\\Learning\\STM32H750_ART_PI_RGBLCD" "lvgl/src/lv_widgets/../lv_core/../lv_hal/../lv_misc/lv_task.h"
	.file	23 "E:\\STM32\\Learning\\STM32H750_ART_PI_RGBLCD" "lvgl/src/lv_widgets\\lv_msgbox.c"
	.file	24 "D:\\Keil_v5\\ARM\\ARMCLANG\\Bin\\..\\include" "stdarg.h"
	.section	".note.GNU-stack","",%progbits
	.eabi_attribute	30, 6	@ Tag_ABI_optimization_goals
	.ARM_attribute	16, 1	@ Tag_AV_eba