	.text
	.syntax unified
	.eabi_attribute	67, "2.09"	@ Tag_conformance
	.cpu	cortex-m7
	.eabi_attribute	6, 13	@ Tag_CPU_arch
	.eabi_attribute	7, 77	@ Tag_CPU_arch_profile
	.eabi_attribute	8, 0	@ Tag_ARM_ISA_use
	.eabi_attribute	9, 2	@ Tag_THUMB_ISA_use
	.fpu	fpv5-d16
	.eabi_attribute	36, 1	@ Tag_FP_HP_extension
	.eabi_attribute	34, 1	@ Tag_CPU_unaligned_access
	.eabi_attribute	17, 1	@ Tag_ABI_PCS_GOT_use
	.eabi_attribute	20, 2	@ Tag_ABI_FP_denormal
	.eabi_attribute	21, 0	@ Tag_ABI_FP_exceptions
	.eabi_attribute	23, 1	@ Tag_ABI_FP_number_model
	.eabi_attribute	24, 1	@ Tag_ABI_align_needed
	.eabi_attribute	25, 1	@ Tag_ABI_align_preserved
	.eabi_attribute	28, 1	@ Tag_ABI_VFP_args
	.eabi_attribute	38, 1	@ Tag_ABI_FP_16bit_format
	.eabi_attribute	18, 2	@ Tag_ABI_PCS_wchar_t
	.eabi_attribute	26, 1	@ Tag_ABI_enum_size
	.eabi_attribute	14, 0	@ Tag_ABI_PCS_R9_use
	.file	"lv_objmask.c"
	.file	1 "D:\\Keil_v5\\ARM\\ARMCLANG\\Bin\\..\\include" "stdint.h"
	.file	2 "E:\\STM32\\Learning\\STM32H750_ART_PI_RGBLCD" "lvgl/src/lv_widgets/../lv_core/../lv_draw/../lv_misc/lv_types.h"
	.file	3 "E:\\STM32\\Learning\\STM32H750_ART_PI_RGBLCD" "lvgl/src/lv_widgets/../lv_themes/../lv_core/lv_obj.h"
	.file	4 "E:\\STM32\\Learning\\STM32H750_ART_PI_RGBLCD" "lvgl/src/lv_widgets/../lv_core/../lv_font/../lv_misc/lv_ll.h"
	.file	5 "E:\\STM32\\Learning\\STM32H750_ART_PI_RGBLCD" "./lvgl/src/lv_conf.h"
	.file	6 "E:\\STM32\\Learning\\STM32H750_ART_PI_RGBLCD" "lvgl/src/lv_widgets/../lv_core/../lv_hal/../lv_misc/lv_area.h"
	.file	7 "E:\\STM32\\Learning\\STM32H750_ART_PI_RGBLCD" "lvgl/src/lv_widgets/../lv_themes/../lv_core/lv_style.h"
	.file	8 "E:\\STM32\\Learning\\STM32H750_ART_PI_RGBLCD" "lvgl/src/lv_widgets/../lv_core/../lv_hal/lv_hal_indev.h"
	.file	9 "E:\\STM32\\Learning\\STM32H750_ART_PI_RGBLCD" "lvgl/src/lv_widgets/../lv_core/../lv_draw/../lv_misc/lv_bidi.h"
	.file	10 "E:\\STM32\\Learning\\STM32H750_ART_PI_RGBLCD" "lvgl/src/lv_widgets/lv_objmask.c"
	.file	11 "E:\\STM32\\Learning\\STM32H750_ART_PI_RGBLCD" "lvgl/src/lv_widgets/../lv_themes/lv_theme.h"
	.file	12 "E:\\STM32\\Learning\\STM32H750_ART_PI_RGBLCD" "lvgl/src/lv_widgets/../lv_core/../lv_draw/lv_draw_mask.h"
	.section	.text.lv_objmask_create,"ax",%progbits
	.hidden	lv_objmask_create               @ -- Begin function lv_objmask_create
	.globl	lv_objmask_create
	.p2align	3
	.type	lv_objmask_create,%function
	.code	16                              @ @lv_objmask_create
	.thumb_func
lv_objmask_create:
.Lfunc_begin0:
	.loc	10 53 0                         @ lvgl/src/lv_widgets/lv_objmask.c:53:0
	.fnstart
	.cfi_sections .debug_frame
	.cfi_startproc
@ %bb.0:
	.save	{r7, lr}
	push	{r7, lr}
	.cfi_def_cfa_offset 8
	.cfi_offset lr, -4
	.cfi_offset r7, -8
	.pad	#24
	sub	sp, #24
	.cfi_def_cfa_offset 32
	str	r0, [sp, #16]
	str	r1, [sp, #12]
.Ltmp0:
	.loc	10 57 41 prologue_end           @ lvgl/src/lv_widgets/lv_objmask.c:57:41
	ldr	r0, [sp, #16]
	.loc	10 57 46 is_stmt 0              @ lvgl/src/lv_widgets/lv_objmask.c:57:46
	ldr	r1, [sp, #12]
	.loc	10 57 26                        @ lvgl/src/lv_widgets/lv_objmask.c:57:26
	bl	lv_cont_create
	.loc	10 57 16                        @ lvgl/src/lv_widgets/lv_objmask.c:57:16
	str	r0, [sp, #8]
	.loc	10 58 5 is_stmt 1               @ lvgl/src/lv_widgets/lv_objmask.c:58:5
	b	.LBB0_1
.LBB0_1:
.Ltmp1:
	.loc	10 58 5 is_stmt 0               @ lvgl/src/lv_widgets/lv_objmask.c:58:5
	ldr	r0, [sp, #8]
	bl	lv_debug_check_null
.Ltmp2:
	.loc	10 58 5                         @ lvgl/src/lv_widgets/lv_objmask.c:58:5
	cbnz	r0, .LBB0_4
	b	.LBB0_2
.LBB0_2:
.Ltmp3:
	.loc	10 58 5                         @ lvgl/src/lv_widgets/lv_objmask.c:58:5
	ldr	r2, [sp, #8]
	movw	r0, :lower16:.L.str
	movt	r0, :upper16:.L.str
	movs	r3, #0
	bl	lv_debug_log_error
	b	.LBB0_3
.LBB0_3:                                @ =>This Inner Loop Header: Depth=1
	b	.LBB0_3
.Ltmp4:
.LBB0_4:
	.loc	10 58 5                         @ lvgl/src/lv_widgets/lv_objmask.c:58:5
	b	.LBB0_5
.Ltmp5:
.LBB0_5:
	.loc	10 59 8 is_stmt 1               @ lvgl/src/lv_widgets/lv_objmask.c:59:8
	ldr	r0, [sp, #8]
.Ltmp6:
	.loc	10 59 8 is_stmt 0               @ lvgl/src/lv_widgets/lv_objmask.c:59:8
	cbnz	r0, .LBB0_7
	b	.LBB0_6
.LBB0_6:
	.loc	10 0 8                          @ lvgl/src/lv_widgets/lv_objmask.c:0:8
	movs	r0, #0
.Ltmp7:
	.loc	10 59 25                        @ lvgl/src/lv_widgets/lv_objmask.c:59:25
	str	r0, [sp, #20]
	b	.LBB0_22
.Ltmp8:
.LBB0_7:
	.loc	10 62 55 is_stmt 1              @ lvgl/src/lv_widgets/lv_objmask.c:62:55
	ldr	r0, [sp, #8]
	movs	r1, #16
	.loc	10 62 30 is_stmt 0              @ lvgl/src/lv_widgets/lv_objmask.c:62:30
	bl	lv_obj_allocate_ext_attr
	.loc	10 62 24                        @ lvgl/src/lv_widgets/lv_objmask.c:62:24
	str	r0, [sp, #4]
	.loc	10 63 5 is_stmt 1               @ lvgl/src/lv_widgets/lv_objmask.c:63:5
	b	.LBB0_8
.LBB0_8:
.Ltmp9:
	.loc	10 63 5 is_stmt 0               @ lvgl/src/lv_widgets/lv_objmask.c:63:5
	ldr	r0, [sp, #4]
	bl	lv_debug_check_null
.Ltmp10:
	.loc	10 63 5                         @ lvgl/src/lv_widgets/lv_objmask.c:63:5
	cbnz	r0, .LBB0_11
	b	.LBB0_9
.LBB0_9:
.Ltmp11:
	.loc	10 63 5                         @ lvgl/src/lv_widgets/lv_objmask.c:63:5
	ldr	r2, [sp, #4]
	movw	r0, :lower16:.L.str
	movt	r0, :upper16:.L.str
	movs	r3, #0
	bl	lv_debug_log_error
	b	.LBB0_10
.LBB0_10:                               @ =>This Inner Loop Header: Depth=1
	b	.LBB0_10
.Ltmp12:
.LBB0_11:
	.loc	10 63 5                         @ lvgl/src/lv_widgets/lv_objmask.c:63:5
	b	.LBB0_12
.Ltmp13:
.LBB0_12:
	.loc	10 64 8 is_stmt 1               @ lvgl/src/lv_widgets/lv_objmask.c:64:8
	ldr	r0, [sp, #4]
.Ltmp14:
	.loc	10 64 8 is_stmt 0               @ lvgl/src/lv_widgets/lv_objmask.c:64:8
	cbnz	r0, .LBB0_14
	b	.LBB0_13
.LBB0_13:
.Ltmp15:
	.loc	10 65 20 is_stmt 1              @ lvgl/src/lv_widgets/lv_objmask.c:65:20
	ldr	r0, [sp, #8]
	.loc	10 65 9 is_stmt 0               @ lvgl/src/lv_widgets/lv_objmask.c:65:9
	bl	lv_obj_del
	movs	r0, #0
	.loc	10 66 9 is_stmt 1               @ lvgl/src/lv_widgets/lv_objmask.c:66:9
	str	r0, [sp, #20]
	b	.LBB0_22
.Ltmp16:
.LBB0_14:
	.loc	10 69 8                         @ lvgl/src/lv_widgets/lv_objmask.c:69:8
	movw	r0, :lower16:ancestor_signal
	movt	r0, :upper16:ancestor_signal
	ldr	r0, [r0]
.Ltmp17:
	.loc	10 69 8 is_stmt 0               @ lvgl/src/lv_widgets/lv_objmask.c:69:8
	cbnz	r0, .LBB0_16
	b	.LBB0_15
.LBB0_15:
.Ltmp18:
	.loc	10 69 72                        @ lvgl/src/lv_widgets/lv_objmask.c:69:72
	ldr	r0, [sp, #8]
	.loc	10 69 51                        @ lvgl/src/lv_widgets/lv_objmask.c:69:51
	bl	lv_obj_get_signal_cb
	.loc	10 69 49                        @ lvgl/src/lv_widgets/lv_objmask.c:69:49
	movw	r1, :lower16:ancestor_signal
	movt	r1, :upper16:ancestor_signal
	str	r0, [r1]
	.loc	10 69 33                        @ lvgl/src/lv_widgets/lv_objmask.c:69:33
	b	.LBB0_16
.Ltmp19:
.LBB0_16:
	.loc	10 70 8 is_stmt 1               @ lvgl/src/lv_widgets/lv_objmask.c:70:8
	movw	r0, :lower16:ancestor_design
	movt	r0, :upper16:ancestor_design
	ldr	r0, [r0]
.Ltmp20:
	.loc	10 70 8 is_stmt 0               @ lvgl/src/lv_widgets/lv_objmask.c:70:8
	cbnz	r0, .LBB0_18
	b	.LBB0_17
.LBB0_17:
.Ltmp21:
	.loc	10 70 72                        @ lvgl/src/lv_widgets/lv_objmask.c:70:72
	ldr	r0, [sp, #8]
	.loc	10 70 51                        @ lvgl/src/lv_widgets/lv_objmask.c:70:51
	bl	lv_obj_get_design_cb
	.loc	10 70 49                        @ lvgl/src/lv_widgets/lv_objmask.c:70:49
	movw	r1, :lower16:ancestor_design
	movt	r1, :upper16:ancestor_design
	str	r0, [r1]
	.loc	10 70 33                        @ lvgl/src/lv_widgets/lv_objmask.c:70:33
	b	.LBB0_18
.Ltmp22:
.LBB0_18:
	.loc	10 73 18 is_stmt 1              @ lvgl/src/lv_widgets/lv_objmask.c:73:18
	ldr	r0, [sp, #4]
	.loc	10 73 23 is_stmt 0              @ lvgl/src/lv_widgets/lv_objmask.c:73:23
	adds	r0, #4
	movs	r1, #4
	.loc	10 73 5                         @ lvgl/src/lv_widgets/lv_objmask.c:73:5
	bl	_lv_ll_init
	.loc	10 76 26 is_stmt 1              @ lvgl/src/lv_widgets/lv_objmask.c:76:26
	ldr	r0, [sp, #8]
	.loc	10 76 5 is_stmt 0               @ lvgl/src/lv_widgets/lv_objmask.c:76:5
	movw	r1, :lower16:lv_objmask_signal
	movt	r1, :upper16:lv_objmask_signal
	bl	lv_obj_set_signal_cb
	.loc	10 77 26 is_stmt 1              @ lvgl/src/lv_widgets/lv_objmask.c:77:26
	ldr	r0, [sp, #8]
	.loc	10 77 5 is_stmt 0               @ lvgl/src/lv_widgets/lv_objmask.c:77:5
	movw	r1, :lower16:lv_objmask_design
	movt	r1, :upper16:lv_objmask_design
	bl	lv_obj_set_design_cb
.Ltmp23:
	.loc	10 80 8 is_stmt 1               @ lvgl/src/lv_widgets/lv_objmask.c:80:8
	ldr	r0, [sp, #12]
.Ltmp24:
	.loc	10 80 8 is_stmt 0               @ lvgl/src/lv_widgets/lv_objmask.c:80:8
	cbnz	r0, .LBB0_20
	b	.LBB0_19
.LBB0_19:
.Ltmp25:
	.loc	10 81 24 is_stmt 1              @ lvgl/src/lv_widgets/lv_objmask.c:81:24
	ldr	r0, [sp, #8]
	movs	r1, #26
	.loc	10 81 9 is_stmt 0               @ lvgl/src/lv_widgets/lv_objmask.c:81:9
	bl	lv_theme_apply
	.loc	10 83 5 is_stmt 1               @ lvgl/src/lv_widgets/lv_objmask.c:83:5
	b	.LBB0_21
.Ltmp26:
.LBB0_20:
	.loc	10 89 30                        @ lvgl/src/lv_widgets/lv_objmask.c:89:30
	ldr	r0, [sp, #8]
	movs	r2, #255
	.loc	10 89 9 is_stmt 0               @ lvgl/src/lv_widgets/lv_objmask.c:89:9
	mov	r1, r2
	bl	lv_obj_refresh_style
	b	.LBB0_21
.Ltmp27:
.LBB0_21:
	.loc	10 94 12 is_stmt 1              @ lvgl/src/lv_widgets/lv_objmask.c:94:12
	ldr	r0, [sp, #8]
	.loc	10 94 5 is_stmt 0               @ lvgl/src/lv_widgets/lv_objmask.c:94:5
	str	r0, [sp, #20]
	b	.LBB0_22
.LBB0_22:
	.loc	10 95 1 is_stmt 1               @ lvgl/src/lv_widgets/lv_objmask.c:95:1
	ldr	r0, [sp, #20]
	add	sp, #24
	pop	{r7, pc}
.Ltmp28:
.Lfunc_end0:
	.size	lv_objmask_create, .Lfunc_end0-lv_objmask_create
	.cfi_endproc
	.cantunwind
	.fnend
                                        @ -- End function
	.section	.text.lv_objmask_signal,"ax",%progbits
	.p2align	3                               @ -- Begin function lv_objmask_signal
	.type	lv_objmask_signal,%function
	.code	16                              @ @lv_objmask_signal
	.thumb_func
lv_objmask_signal:
.Lfunc_begin1:
	.loc	10 313 0                        @ lvgl/src/lv_widgets/lv_objmask.c:313:0
	.fnstart
	.cfi_startproc
@ %bb.0:
	.save	{r7, lr}
	push	{r7, lr}
	.cfi_def_cfa_offset 8
	.cfi_offset lr, -4
	.cfi_offset r7, -8
	.pad	#32
	sub	sp, #32
	.cfi_def_cfa_offset 40
                                        @ kill: def $r3 killed $r1
	str	r0, [sp, #24]
	strb.w	r1, [sp, #23]
	str	r2, [sp, #16]
.Ltmp29:
	.loc	10 317 11 prologue_end          @ lvgl/src/lv_widgets/lv_objmask.c:317:11
	movw	r0, :lower16:ancestor_signal
	movt	r0, :upper16:ancestor_signal
	ldr	r3, [r0]
	.loc	10 317 27 is_stmt 0             @ lvgl/src/lv_widgets/lv_objmask.c:317:27
	ldr	r0, [sp, #24]
	.loc	10 317 36                       @ lvgl/src/lv_widgets/lv_objmask.c:317:36
	ldrb.w	r1, [sp, #23]
	.loc	10 317 42                       @ lvgl/src/lv_widgets/lv_objmask.c:317:42
	ldr	r2, [sp, #16]
	.loc	10 317 11                       @ lvgl/src/lv_widgets/lv_objmask.c:317:11
	blx	r3
	.loc	10 317 9                        @ lvgl/src/lv_widgets/lv_objmask.c:317:9
	strb.w	r0, [sp, #15]
.Ltmp30:
	.loc	10 318 8 is_stmt 1              @ lvgl/src/lv_widgets/lv_objmask.c:318:8
	ldrb.w	r0, [sp, #15]
.Ltmp31:
	.loc	10 318 8 is_stmt 0              @ lvgl/src/lv_widgets/lv_objmask.c:318:8
	cmp	r0, #1
	beq	.LBB1_2
	b	.LBB1_1
.LBB1_1:
.Ltmp32:
	.loc	10 318 33                       @ lvgl/src/lv_widgets/lv_objmask.c:318:33
	ldrb.w	r0, [sp, #15]
	.loc	10 318 26                       @ lvgl/src/lv_widgets/lv_objmask.c:318:26
	strb.w	r0, [sp, #31]
	b	.LBB1_13
.Ltmp33:
.LBB1_2:
	.loc	10 319 8 is_stmt 1              @ lvgl/src/lv_widgets/lv_objmask.c:319:8
	ldrb.w	r0, [sp, #23]
.Ltmp34:
	.loc	10 319 8 is_stmt 0              @ lvgl/src/lv_widgets/lv_objmask.c:319:8
	cmp	r0, #7
	bne	.LBB1_4
	b	.LBB1_3
.LBB1_3:
.Ltmp35:
	.loc	10 319 73                       @ lvgl/src/lv_widgets/lv_objmask.c:319:73
	ldr	r0, [sp, #16]
	.loc	10 319 43                       @ lvgl/src/lv_widgets/lv_objmask.c:319:43
	movw	r1, :lower16:.L.str.2
	movt	r1, :upper16:.L.str.2
	bl	lv_obj_handle_get_type_signal
	.loc	10 319 36                       @ lvgl/src/lv_widgets/lv_objmask.c:319:36
	strb.w	r0, [sp, #31]
	b	.LBB1_13
.Ltmp36:
.LBB1_4:
	.loc	10 321 8 is_stmt 1              @ lvgl/src/lv_widgets/lv_objmask.c:321:8
	ldrb.w	r0, [sp, #23]
.Ltmp37:
	.loc	10 321 8 is_stmt 0              @ lvgl/src/lv_widgets/lv_objmask.c:321:8
	cbnz	r0, .LBB1_12
	b	.LBB1_5
.LBB1_5:
.Ltmp38:
	.loc	10 322 54 is_stmt 1             @ lvgl/src/lv_widgets/lv_objmask.c:322:54
	ldr	r0, [sp, #24]
	.loc	10 322 34 is_stmt 0             @ lvgl/src/lv_widgets/lv_objmask.c:322:34
	bl	lv_obj_get_ext_attr
	.loc	10 322 28                       @ lvgl/src/lv_widgets/lv_objmask.c:322:28
	str	r0, [sp, #8]
.Ltmp39:
	.loc	10 324 9 is_stmt 1              @ lvgl/src/lv_widgets/lv_objmask.c:324:9
	ldr	r0, [sp, #8]
	adds	r0, #4
	bl	_lv_ll_get_head
	str	r0, [sp, #4]
	b	.LBB1_6
.LBB1_6:                                @ =>This Inner Loop Header: Depth=1
.Ltmp40:
	.loc	10 324 9 is_stmt 0              @ lvgl/src/lv_widgets/lv_objmask.c:324:9
	ldr	r0, [sp, #4]
.Ltmp41:
	.loc	10 324 9                        @ lvgl/src/lv_widgets/lv_objmask.c:324:9
	cbz	r0, .LBB1_11
	b	.LBB1_7
.LBB1_7:                                @   in Loop: Header=BB1_6 Depth=1
.Ltmp42:
	.loc	10 325 16 is_stmt 1             @ lvgl/src/lv_widgets/lv_objmask.c:325:16
	ldr	r0, [sp, #4]
	.loc	10 325 19 is_stmt 0             @ lvgl/src/lv_widgets/lv_objmask.c:325:19
	ldr	r0, [r0]
.Ltmp43:
	.loc	10 325 16                       @ lvgl/src/lv_widgets/lv_objmask.c:325:16
	cbz	r0, .LBB1_9
	b	.LBB1_8
.LBB1_8:                                @   in Loop: Header=BB1_6 Depth=1
.Ltmp44:
	.loc	10 326 29 is_stmt 1             @ lvgl/src/lv_widgets/lv_objmask.c:326:29
	ldr	r0, [sp, #4]
	.loc	10 326 32 is_stmt 0             @ lvgl/src/lv_widgets/lv_objmask.c:326:32
	ldr	r0, [r0]
	.loc	10 326 17                       @ lvgl/src/lv_widgets/lv_objmask.c:326:17
	bl	lv_mem_free
	.loc	10 327 17 is_stmt 1             @ lvgl/src/lv_widgets/lv_objmask.c:327:17
	ldr	r1, [sp, #4]
	movs	r0, #0
	.loc	10 327 26 is_stmt 0             @ lvgl/src/lv_widgets/lv_objmask.c:327:26
	str	r0, [r1]
	.loc	10 328 13 is_stmt 1             @ lvgl/src/lv_widgets/lv_objmask.c:328:13
	b	.LBB1_9
.Ltmp45:
.LBB1_9:                                @   in Loop: Header=BB1_6 Depth=1
	.loc	10 329 9                        @ lvgl/src/lv_widgets/lv_objmask.c:329:9
	b	.LBB1_10
.Ltmp46:
.LBB1_10:                               @   in Loop: Header=BB1_6 Depth=1
	.loc	10 324 9                        @ lvgl/src/lv_widgets/lv_objmask.c:324:9
	ldr	r0, [sp, #8]
	adds	r0, #4
	ldr	r1, [sp, #4]
	bl	_lv_ll_get_next
	str	r0, [sp, #4]
	b	.LBB1_6
.Ltmp47:
.LBB1_11:
	.loc	10 331 23                       @ lvgl/src/lv_widgets/lv_objmask.c:331:23
	ldr	r0, [sp, #8]
	.loc	10 331 28 is_stmt 0             @ lvgl/src/lv_widgets/lv_objmask.c:331:28
	adds	r0, #4
	.loc	10 331 9                        @ lvgl/src/lv_widgets/lv_objmask.c:331:9
	bl	_lv_ll_clear
	.loc	10 332 5 is_stmt 1              @ lvgl/src/lv_widgets/lv_objmask.c:332:5
	b	.LBB1_12
.Ltmp48:
.LBB1_12:
	.loc	10 334 12                       @ lvgl/src/lv_widgets/lv_objmask.c:334:12
	ldrb.w	r0, [sp, #15]
	.loc	10 334 5 is_stmt 0              @ lvgl/src/lv_widgets/lv_objmask.c:334:5
	strb.w	r0, [sp, #31]
	b	.LBB1_13
.LBB1_13:
	.loc	10 335 1 is_stmt 1              @ lvgl/src/lv_widgets/lv_objmask.c:335:1
	ldrb.w	r0, [sp, #31]
	add	sp, #32
	pop	{r7, pc}
.Ltmp49:
.Lfunc_end1:
	.size	lv_objmask_signal, .Lfunc_end1-lv_objmask_signal
	.cfi_endproc
	.cantunwind
	.fnend
                                        @ -- End function
	.section	.text.lv_objmask_design,"ax",%progbits
	.p2align	3                               @ -- Begin function lv_objmask_design
	.type	lv_objmask_design,%function
	.code	16                              @ @lv_objmask_design
	.thumb_func
lv_objmask_design:
.Lfunc_begin2:
	.loc	10 207 0                        @ lvgl/src/lv_widgets/lv_objmask.c:207:0
	.fnstart
	.cfi_startproc
@ %bb.0:
	.save	{r4, lr}
	push	{r4, lr}
	.cfi_def_cfa_offset 8
	.cfi_offset lr, -4
	.cfi_offset r4, -8
	.pad	#120
	sub	sp, #120
	.cfi_def_cfa_offset 128
                                        @ kill: def $r3 killed $r2
	str	r0, [sp, #112]
	str	r1, [sp, #108]
	strb.w	r2, [sp, #107]
.Ltmp50:
	.loc	10 209 8 prologue_end           @ lvgl/src/lv_widgets/lv_objmask.c:209:8
	ldrb.w	r0, [sp, #107]
.Ltmp51:
	.loc	10 209 8 is_stmt 0              @ lvgl/src/lv_widgets/lv_objmask.c:209:8
	cmp	r0, #2
	bne	.LBB2_4
	b	.LBB2_1
.LBB2_1:
.Ltmp52:
	.loc	10 210 54 is_stmt 1             @ lvgl/src/lv_widgets/lv_objmask.c:210:54
	ldr	r0, [sp, #112]
	.loc	10 210 34 is_stmt 0             @ lvgl/src/lv_widgets/lv_objmask.c:210:34
	bl	lv_obj_get_ext_attr
	.loc	10 210 28                       @ lvgl/src/lv_widgets/lv_objmask.c:210:28
	str	r0, [sp, #100]
.Ltmp53:
	.loc	10 211 28 is_stmt 1             @ lvgl/src/lv_widgets/lv_objmask.c:211:28
	ldr	r0, [sp, #100]
	.loc	10 211 33 is_stmt 0             @ lvgl/src/lv_widgets/lv_objmask.c:211:33
	adds	r0, #4
	.loc	10 211 12                       @ lvgl/src/lv_widgets/lv_objmask.c:211:12
	bl	_lv_ll_get_len
.Ltmp54:
	.loc	10 211 12                       @ lvgl/src/lv_widgets/lv_objmask.c:211:12
	cbz	r0, .LBB2_3
	b	.LBB2_2
.LBB2_2:
	.loc	10 0 12                         @ lvgl/src/lv_widgets/lv_objmask.c:0:12
	movs	r0, #3
.Ltmp55:
	.loc	10 211 47                       @ lvgl/src/lv_widgets/lv_objmask.c:211:47
	strb.w	r0, [sp, #119]
	b	.LBB2_33
.LBB2_3:
	.loc	10 212 21 is_stmt 1             @ lvgl/src/lv_widgets/lv_objmask.c:212:21
	movw	r0, :lower16:ancestor_design
	movt	r0, :upper16:ancestor_design
	ldr	r3, [r0]
	.loc	10 212 37 is_stmt 0             @ lvgl/src/lv_widgets/lv_objmask.c:212:37
	ldr	r0, [sp, #112]
	.loc	10 212 46                       @ lvgl/src/lv_widgets/lv_objmask.c:212:46
	ldr	r1, [sp, #108]
	.loc	10 212 57                       @ lvgl/src/lv_widgets/lv_objmask.c:212:57
	ldrb.w	r2, [sp, #107]
	.loc	10 212 21                       @ lvgl/src/lv_widgets/lv_objmask.c:212:21
	blx	r3
	.loc	10 212 14                       @ lvgl/src/lv_widgets/lv_objmask.c:212:14
	strb.w	r0, [sp, #119]
	b	.LBB2_33
.Ltmp56:
.LBB2_4:
	.loc	10 215 13 is_stmt 1             @ lvgl/src/lv_widgets/lv_objmask.c:215:13
	ldrb.w	r0, [sp, #107]
.Ltmp57:
	.loc	10 215 13 is_stmt 0             @ lvgl/src/lv_widgets/lv_objmask.c:215:13
	cmp	r0, #0
	bne.w	.LBB2_24
	b	.LBB2_5
.LBB2_5:
.Ltmp58:
	.loc	10 216 9 is_stmt 1              @ lvgl/src/lv_widgets/lv_objmask.c:216:9
	movw	r0, :lower16:ancestor_design
	movt	r0, :upper16:ancestor_design
	ldr	r3, [r0]
	.loc	10 216 25 is_stmt 0             @ lvgl/src/lv_widgets/lv_objmask.c:216:25
	ldr	r0, [sp, #112]
	.loc	10 216 34                       @ lvgl/src/lv_widgets/lv_objmask.c:216:34
	ldr	r1, [sp, #108]
	.loc	10 216 45                       @ lvgl/src/lv_widgets/lv_objmask.c:216:45
	ldrb.w	r2, [sp, #107]
	.loc	10 216 9                        @ lvgl/src/lv_widgets/lv_objmask.c:216:9
	blx	r3
	.loc	10 218 54 is_stmt 1             @ lvgl/src/lv_widgets/lv_objmask.c:218:54
	ldr	r0, [sp, #112]
	.loc	10 218 34 is_stmt 0             @ lvgl/src/lv_widgets/lv_objmask.c:218:34
	bl	lv_obj_get_ext_attr
	.loc	10 218 28                       @ lvgl/src/lv_widgets/lv_objmask.c:218:28
	str	r0, [sp, #96]
	.loc	10 220 27 is_stmt 1             @ lvgl/src/lv_widgets/lv_objmask.c:220:27
	ldr	r0, [sp, #112]
	.loc	10 220 43 is_stmt 0             @ lvgl/src/lv_widgets/lv_objmask.c:220:43
	ldrh	r0, [r0, #16]
	.loc	10 220 20                       @ lvgl/src/lv_widgets/lv_objmask.c:220:20
	strh.w	r0, [sp, #94]
	.loc	10 221 27 is_stmt 1             @ lvgl/src/lv_widgets/lv_objmask.c:221:27
	ldr	r0, [sp, #112]
	.loc	10 221 43 is_stmt 0             @ lvgl/src/lv_widgets/lv_objmask.c:221:43
	ldrh	r0, [r0, #18]
	.loc	10 221 20                       @ lvgl/src/lv_widgets/lv_objmask.c:221:20
	strh.w	r0, [sp, #92]
.Ltmp59:
	.loc	10 225 9 is_stmt 1              @ lvgl/src/lv_widgets/lv_objmask.c:225:9
	ldr	r0, [sp, #96]
	adds	r0, #4
	bl	_lv_ll_get_head
	str	r0, [sp, #88]
	b	.LBB2_6
.LBB2_6:                                @ =>This Inner Loop Header: Depth=1
.Ltmp60:
	.loc	10 225 9 is_stmt 0              @ lvgl/src/lv_widgets/lv_objmask.c:225:9
	ldr	r0, [sp, #88]
.Ltmp61:
	.loc	10 225 9                        @ lvgl/src/lv_widgets/lv_objmask.c:225:9
	cmp	r0, #0
	beq.w	.LBB2_23
	b	.LBB2_7
.LBB2_7:                                @   in Loop: Header=BB2_6 Depth=1
.Ltmp62:
	.loc	10 226 47 is_stmt 1             @ lvgl/src/lv_widgets/lv_objmask.c:226:47
	ldr	r0, [sp, #88]
	.loc	10 226 50 is_stmt 0             @ lvgl/src/lv_widgets/lv_objmask.c:226:50
	ldr	r0, [r0]
	.loc	10 226 41                       @ lvgl/src/lv_widgets/lv_objmask.c:226:41
	str	r0, [sp, #84]
.Ltmp63:
	.loc	10 228 16 is_stmt 1             @ lvgl/src/lv_widgets/lv_objmask.c:228:16
	ldr	r0, [sp, #84]
	.loc	10 228 21 is_stmt 0             @ lvgl/src/lv_widgets/lv_objmask.c:228:21
	ldrb	r0, [r0, #4]
.Ltmp64:
	.loc	10 228 16                       @ lvgl/src/lv_widgets/lv_objmask.c:228:16
	cbnz	r0, .LBB2_9
	b	.LBB2_8
.LBB2_8:                                @   in Loop: Header=BB2_6 Depth=1
.Ltmp65:
	.loc	10 229 53 is_stmt 1             @ lvgl/src/lv_widgets/lv_objmask.c:229:53
	ldr	r0, [sp, #88]
	.loc	10 229 56 is_stmt 0             @ lvgl/src/lv_widgets/lv_objmask.c:229:56
	ldr	r0, [r0]
	.loc	10 229 45                       @ lvgl/src/lv_widgets/lv_objmask.c:229:45
	str	r0, [sp, #80]
	movs	r0, #44
	.loc	10 230 53 is_stmt 1             @ lvgl/src/lv_widgets/lv_objmask.c:230:53
	bl	_lv_mem_buf_get
	.loc	10 230 45 is_stmt 0             @ lvgl/src/lv_widgets/lv_objmask.c:230:45
	str	r0, [sp, #76]
	.loc	10 232 47 is_stmt 1             @ lvgl/src/lv_widgets/lv_objmask.c:232:47
	ldr	r0, [sp, #76]
	.loc	10 232 54 is_stmt 0             @ lvgl/src/lv_widgets/lv_objmask.c:232:54
	ldr.w	lr, [sp, #80]
	ldrh.w	r1, [lr, #8]
	.loc	10 232 72                       @ lvgl/src/lv_widgets/lv_objmask.c:232:72
	ldrsh.w	r12, [sp, #94]
	.loc	10 232 70                       @ lvgl/src/lv_widgets/lv_objmask.c:232:70
	add	r1, r12
	.loc	10 232 78                       @ lvgl/src/lv_widgets/lv_objmask.c:232:78
	ldrh.w	r2, [lr, #10]
	.loc	10 232 96                       @ lvgl/src/lv_widgets/lv_objmask.c:232:96
	ldrsh.w	r4, [sp, #92]
	.loc	10 232 94                       @ lvgl/src/lv_widgets/lv_objmask.c:232:94
	add	r2, r4
	.loc	10 233 47 is_stmt 1             @ lvgl/src/lv_widgets/lv_objmask.c:233:47
	ldrh.w	r3, [lr, #12]
	.loc	10 233 63 is_stmt 0             @ lvgl/src/lv_widgets/lv_objmask.c:233:63
	add	r3, r12
	.loc	10 233 71                       @ lvgl/src/lv_widgets/lv_objmask.c:233:71
	ldrh.w	r12, [lr, #14]
	.loc	10 233 87                       @ lvgl/src/lv_widgets/lv_objmask.c:233:87
	add	r12, r4
	.loc	10 234 58 is_stmt 1             @ lvgl/src/lv_widgets/lv_objmask.c:234:58
	ldrb.w	lr, [lr, #16]
	.loc	10 232 17                       @ lvgl/src/lv_widgets/lv_objmask.c:232:17
	and	r4, lr, #3
	mov	lr, sp
	str.w	r4, [lr, #4]
	sxth.w	r12, r12
	str.w	r12, [lr]
	sxth	r1, r1
	sxth	r2, r2
	sxth	r3, r3
	bl	lv_draw_mask_line_points_init
	.loc	10 235 34                       @ lvgl/src/lv_widgets/lv_objmask.c:235:34
	ldr	r0, [sp, #76]
	.loc	10 235 41 is_stmt 0             @ lvgl/src/lv_widgets/lv_objmask.c:235:41
	ldr	r1, [sp, #88]
	.loc	10 235 44                       @ lvgl/src/lv_widgets/lv_objmask.c:235:44
	ldr	r1, [r1]
	.loc	10 235 17                       @ lvgl/src/lv_widgets/lv_objmask.c:235:17
	bl	lv_draw_mask_add
	.loc	10 236 13 is_stmt 1             @ lvgl/src/lv_widgets/lv_objmask.c:236:13
	b	.LBB2_21
.Ltmp66:
.LBB2_9:                                @   in Loop: Header=BB2_6 Depth=1
	.loc	10 237 21                       @ lvgl/src/lv_widgets/lv_objmask.c:237:21
	ldr	r0, [sp, #84]
	.loc	10 237 26 is_stmt 0             @ lvgl/src/lv_widgets/lv_objmask.c:237:26
	ldrb	r0, [r0, #4]
.Ltmp67:
	.loc	10 237 21                       @ lvgl/src/lv_widgets/lv_objmask.c:237:21
	cmp	r0, #1
	bne	.LBB2_11
	b	.LBB2_10
.LBB2_10:                               @   in Loop: Header=BB2_6 Depth=1
.Ltmp68:
	.loc	10 238 54 is_stmt 1             @ lvgl/src/lv_widgets/lv_objmask.c:238:54
	ldr	r0, [sp, #88]
	.loc	10 238 57 is_stmt 0             @ lvgl/src/lv_widgets/lv_objmask.c:238:57
	ldr	r0, [r0]
	.loc	10 238 46                       @ lvgl/src/lv_widgets/lv_objmask.c:238:46
	str	r0, [sp, #72]
	movs	r0, #108
	.loc	10 239 54 is_stmt 1             @ lvgl/src/lv_widgets/lv_objmask.c:239:54
	bl	_lv_mem_buf_get
	.loc	10 239 46 is_stmt 0             @ lvgl/src/lv_widgets/lv_objmask.c:239:46
	str	r0, [sp, #68]
	.loc	10 241 41 is_stmt 1             @ lvgl/src/lv_widgets/lv_objmask.c:241:41
	ldr	r0, [sp, #68]
	.loc	10 241 48 is_stmt 0             @ lvgl/src/lv_widgets/lv_objmask.c:241:48
	ldr.w	r12, [sp, #72]
	ldrh.w	r1, [r12, #8]
	.loc	10 241 72                       @ lvgl/src/lv_widgets/lv_objmask.c:241:72
	ldrh.w	r2, [sp, #94]
	.loc	10 241 70                       @ lvgl/src/lv_widgets/lv_objmask.c:241:70
	add	r1, r2
	.loc	10 241 78                       @ lvgl/src/lv_widgets/lv_objmask.c:241:78
	ldrh.w	r2, [r12, #10]
	.loc	10 241 102                      @ lvgl/src/lv_widgets/lv_objmask.c:241:102
	ldrh.w	r3, [sp, #92]
	.loc	10 241 100                      @ lvgl/src/lv_widgets/lv_objmask.c:241:100
	add	r2, r3
	.loc	10 242 52 is_stmt 1             @ lvgl/src/lv_widgets/lv_objmask.c:242:52
	ldrsh.w	r3, [r12, #12]
	.loc	10 242 76 is_stmt 0             @ lvgl/src/lv_widgets/lv_objmask.c:242:76
	ldrsh.w	r12, [r12, #14]
	.loc	10 241 17 is_stmt 1             @ lvgl/src/lv_widgets/lv_objmask.c:241:17
	mov	lr, sp
	str.w	r12, [lr]
	sxth	r1, r1
	sxth	r2, r2
	bl	lv_draw_mask_angle_init
	.loc	10 243 34                       @ lvgl/src/lv_widgets/lv_objmask.c:243:34
	ldr	r0, [sp, #68]
	.loc	10 243 41 is_stmt 0             @ lvgl/src/lv_widgets/lv_objmask.c:243:41
	ldr	r1, [sp, #88]
	.loc	10 243 44                       @ lvgl/src/lv_widgets/lv_objmask.c:243:44
	ldr	r1, [r1]
	.loc	10 243 17                       @ lvgl/src/lv_widgets/lv_objmask.c:243:17
	bl	lv_draw_mask_add
	.loc	10 244 13 is_stmt 1             @ lvgl/src/lv_widgets/lv_objmask.c:244:13
	b	.LBB2_20
.Ltmp69:
.LBB2_11:                               @   in Loop: Header=BB2_6 Depth=1
	.loc	10 245 21                       @ lvgl/src/lv_widgets/lv_objmask.c:245:21
	ldr	r0, [sp, #84]
	.loc	10 245 26 is_stmt 0             @ lvgl/src/lv_widgets/lv_objmask.c:245:26
	ldrb	r0, [r0, #4]
.Ltmp70:
	.loc	10 245 21                       @ lvgl/src/lv_widgets/lv_objmask.c:245:21
	cmp	r0, #2
	bne	.LBB2_13
	b	.LBB2_12
.LBB2_12:                               @   in Loop: Header=BB2_6 Depth=1
.Ltmp71:
	.loc	10 246 55 is_stmt 1             @ lvgl/src/lv_widgets/lv_objmask.c:246:55
	ldr	r0, [sp, #88]
	.loc	10 246 58 is_stmt 0             @ lvgl/src/lv_widgets/lv_objmask.c:246:58
	ldr	r0, [r0]
	.loc	10 246 47                       @ lvgl/src/lv_widgets/lv_objmask.c:246:47
	str	r0, [sp, #64]
	movs	r0, #28
	.loc	10 247 55 is_stmt 1             @ lvgl/src/lv_widgets/lv_objmask.c:247:55
	bl	_lv_mem_buf_get
	.loc	10 247 47 is_stmt 0             @ lvgl/src/lv_widgets/lv_objmask.c:247:47
	str	r0, [sp, #60]
	.loc	10 250 27 is_stmt 1             @ lvgl/src/lv_widgets/lv_objmask.c:250:27
	ldr	r0, [sp, #64]
	ldrh	r0, [r0, #8]
	.loc	10 250 48 is_stmt 0             @ lvgl/src/lv_widgets/lv_objmask.c:250:48
	ldrh.w	r1, [sp, #94]
	.loc	10 250 46                       @ lvgl/src/lv_widgets/lv_objmask.c:250:46
	add	r0, r1
	.loc	10 250 25                       @ lvgl/src/lv_widgets/lv_objmask.c:250:25
	strh.w	r0, [sp, #52]
	.loc	10 251 27 is_stmt 1             @ lvgl/src/lv_widgets/lv_objmask.c:251:27
	ldr	r0, [sp, #64]
	ldrh	r0, [r0, #10]
	.loc	10 251 48 is_stmt 0             @ lvgl/src/lv_widgets/lv_objmask.c:251:48
	ldrh.w	r1, [sp, #92]
	.loc	10 251 46                       @ lvgl/src/lv_widgets/lv_objmask.c:251:46
	add	r0, r1
	.loc	10 251 25                       @ lvgl/src/lv_widgets/lv_objmask.c:251:25
	strh.w	r0, [sp, #54]
	.loc	10 252 27 is_stmt 1             @ lvgl/src/lv_widgets/lv_objmask.c:252:27
	ldr	r0, [sp, #64]
	ldrh	r0, [r0, #12]
	.loc	10 252 48 is_stmt 0             @ lvgl/src/lv_widgets/lv_objmask.c:252:48
	ldrh.w	r1, [sp, #94]
	.loc	10 252 46                       @ lvgl/src/lv_widgets/lv_objmask.c:252:46
	add	r0, r1
	.loc	10 252 25                       @ lvgl/src/lv_widgets/lv_objmask.c:252:25
	strh.w	r0, [sp, #56]
	.loc	10 253 27 is_stmt 1             @ lvgl/src/lv_widgets/lv_objmask.c:253:27
	ldr	r0, [sp, #64]
	ldrh	r0, [r0, #14]
	.loc	10 253 48 is_stmt 0             @ lvgl/src/lv_widgets/lv_objmask.c:253:48
	ldrh.w	r1, [sp, #92]
	.loc	10 253 46                       @ lvgl/src/lv_widgets/lv_objmask.c:253:46
	add	r0, r1
	.loc	10 253 25                       @ lvgl/src/lv_widgets/lv_objmask.c:253:25
	strh.w	r0, [sp, #58]
	.loc	10 255 42 is_stmt 1             @ lvgl/src/lv_widgets/lv_objmask.c:255:42
	ldr	r0, [sp, #60]
	.loc	10 255 56 is_stmt 0             @ lvgl/src/lv_widgets/lv_objmask.c:255:56
	ldr	r1, [sp, #64]
	.loc	10 255 67                       @ lvgl/src/lv_widgets/lv_objmask.c:255:67
	ldrsh.w	r2, [r1, #16]
	.loc	10 255 86                       @ lvgl/src/lv_widgets/lv_objmask.c:255:86
	ldrb	r1, [r1, #18]
	.loc	10 255 17                       @ lvgl/src/lv_widgets/lv_objmask.c:255:17
	and	r3, r1, #1
	add	r1, sp, #52
	bl	lv_draw_mask_radius_init
	.loc	10 256 34 is_stmt 1             @ lvgl/src/lv_widgets/lv_objmask.c:256:34
	ldr	r0, [sp, #60]
	.loc	10 256 41 is_stmt 0             @ lvgl/src/lv_widgets/lv_objmask.c:256:41
	ldr	r1, [sp, #88]
	.loc	10 256 44                       @ lvgl/src/lv_widgets/lv_objmask.c:256:44
	ldr	r1, [r1]
	.loc	10 256 17                       @ lvgl/src/lv_widgets/lv_objmask.c:256:17
	bl	lv_draw_mask_add
	.loc	10 257 13 is_stmt 1             @ lvgl/src/lv_widgets/lv_objmask.c:257:13
	b	.LBB2_19
.Ltmp72:
.LBB2_13:                               @   in Loop: Header=BB2_6 Depth=1
	.loc	10 258 21                       @ lvgl/src/lv_widgets/lv_objmask.c:258:21
	ldr	r0, [sp, #84]
	.loc	10 258 26 is_stmt 0             @ lvgl/src/lv_widgets/lv_objmask.c:258:26
	ldrb	r0, [r0, #4]
.Ltmp73:
	.loc	10 258 21                       @ lvgl/src/lv_widgets/lv_objmask.c:258:21
	cmp	r0, #3
	bne	.LBB2_15
	b	.LBB2_14
.LBB2_14:                               @   in Loop: Header=BB2_6 Depth=1
.Ltmp74:
	.loc	10 259 53 is_stmt 1             @ lvgl/src/lv_widgets/lv_objmask.c:259:53
	ldr	r0, [sp, #88]
	.loc	10 259 56 is_stmt 0             @ lvgl/src/lv_widgets/lv_objmask.c:259:56
	ldr	r0, [r0]
	.loc	10 259 45                       @ lvgl/src/lv_widgets/lv_objmask.c:259:45
	str	r0, [sp, #48]
	movs	r0, #24
	.loc	10 260 53 is_stmt 1             @ lvgl/src/lv_widgets/lv_objmask.c:260:53
	bl	_lv_mem_buf_get
	.loc	10 260 45 is_stmt 0             @ lvgl/src/lv_widgets/lv_objmask.c:260:45
	str	r0, [sp, #44]
	.loc	10 263 27 is_stmt 1             @ lvgl/src/lv_widgets/lv_objmask.c:263:27
	ldr	r0, [sp, #48]
	ldrh	r0, [r0, #8]
	.loc	10 263 50 is_stmt 0             @ lvgl/src/lv_widgets/lv_objmask.c:263:50
	ldrh.w	r1, [sp, #94]
	.loc	10 263 48                       @ lvgl/src/lv_widgets/lv_objmask.c:263:48
	add	r0, r1
	.loc	10 263 25                       @ lvgl/src/lv_widgets/lv_objmask.c:263:25
	strh.w	r0, [sp, #36]
	.loc	10 264 27 is_stmt 1             @ lvgl/src/lv_widgets/lv_objmask.c:264:27
	ldr	r0, [sp, #48]
	ldrh	r0, [r0, #10]
	.loc	10 264 50 is_stmt 0             @ lvgl/src/lv_widgets/lv_objmask.c:264:50
	ldrh.w	r1, [sp, #92]
	.loc	10 264 48                       @ lvgl/src/lv_widgets/lv_objmask.c:264:48
	add	r0, r1
	.loc	10 264 25                       @ lvgl/src/lv_widgets/lv_objmask.c:264:25
	strh.w	r0, [sp, #38]
	.loc	10 265 27 is_stmt 1             @ lvgl/src/lv_widgets/lv_objmask.c:265:27
	ldr	r0, [sp, #48]
	ldrh	r0, [r0, #12]
	.loc	10 265 50 is_stmt 0             @ lvgl/src/lv_widgets/lv_objmask.c:265:50
	ldrh.w	r1, [sp, #94]
	.loc	10 265 48                       @ lvgl/src/lv_widgets/lv_objmask.c:265:48
	add	r0, r1
	.loc	10 265 25                       @ lvgl/src/lv_widgets/lv_objmask.c:265:25
	strh.w	r0, [sp, #40]
	.loc	10 266 27 is_stmt 1             @ lvgl/src/lv_widgets/lv_objmask.c:266:27
	ldr	r0, [sp, #48]
	ldrh	r0, [r0, #14]
	.loc	10 266 50 is_stmt 0             @ lvgl/src/lv_widgets/lv_objmask.c:266:50
	ldrh.w	r1, [sp, #92]
	.loc	10 266 48                       @ lvgl/src/lv_widgets/lv_objmask.c:266:48
	add	r0, r1
	.loc	10 266 25                       @ lvgl/src/lv_widgets/lv_objmask.c:266:25
	strh.w	r0, [sp, #42]
	.loc	10 268 40 is_stmt 1             @ lvgl/src/lv_widgets/lv_objmask.c:268:40
	ldr	r0, [sp, #44]
	.loc	10 268 54 is_stmt 0             @ lvgl/src/lv_widgets/lv_objmask.c:268:54
	ldr.w	r12, [sp, #48]
	.loc	10 268 74                       @ lvgl/src/lv_widgets/lv_objmask.c:268:74
	ldrh.w	r1, [r12, #16]
	.loc	10 268 93                       @ lvgl/src/lv_widgets/lv_objmask.c:268:93
	ldrsh.w	lr, [sp, #92]
	.loc	10 268 91                       @ lvgl/src/lv_widgets/lv_objmask.c:268:91
	add	r1, lr
	.loc	10 268 65                       @ lvgl/src/lv_widgets/lv_objmask.c:268:65
	ldrb.w	r2, [r12, #20]
	.loc	10 269 51 is_stmt 1             @ lvgl/src/lv_widgets/lv_objmask.c:269:51
	ldrb.w	r3, [r12, #21]
	.loc	10 269 63 is_stmt 0             @ lvgl/src/lv_widgets/lv_objmask.c:269:63
	ldrh.w	r12, [r12, #18]
	.loc	10 269 83                       @ lvgl/src/lv_widgets/lv_objmask.c:269:83
	add	r12, lr
	.loc	10 268 17 is_stmt 1             @ lvgl/src/lv_widgets/lv_objmask.c:268:17
	sxth.w	lr, r12
	mov	r12, sp
	str.w	lr, [r12, #4]
	str.w	r3, [r12]
	sxth	r3, r1
	add	r1, sp, #36
	bl	lv_draw_mask_fade_init
	.loc	10 270 34                       @ lvgl/src/lv_widgets/lv_objmask.c:270:34
	ldr	r0, [sp, #44]
	.loc	10 270 41 is_stmt 0             @ lvgl/src/lv_widgets/lv_objmask.c:270:41
	ldr	r1, [sp, #88]
	.loc	10 270 44                       @ lvgl/src/lv_widgets/lv_objmask.c:270:44
	ldr	r1, [r1]
	.loc	10 270 17                       @ lvgl/src/lv_widgets/lv_objmask.c:270:17
	bl	lv_draw_mask_add
	.loc	10 271 13 is_stmt 1             @ lvgl/src/lv_widgets/lv_objmask.c:271:13
	b	.LBB2_18
.Ltmp75:
.LBB2_15:                               @   in Loop: Header=BB2_6 Depth=1
	.loc	10 272 21                       @ lvgl/src/lv_widgets/lv_objmask.c:272:21
	ldr	r0, [sp, #84]
	.loc	10 272 26 is_stmt 0             @ lvgl/src/lv_widgets/lv_objmask.c:272:26
	ldrb	r0, [r0, #4]
.Ltmp76:
	.loc	10 272 21                       @ lvgl/src/lv_widgets/lv_objmask.c:272:21
	cmp	r0, #4
	bne	.LBB2_17
	b	.LBB2_16
.LBB2_16:                               @   in Loop: Header=BB2_6 Depth=1
.Ltmp77:
	.loc	10 273 52 is_stmt 1             @ lvgl/src/lv_widgets/lv_objmask.c:273:52
	ldr	r0, [sp, #88]
	.loc	10 273 55 is_stmt 0             @ lvgl/src/lv_widgets/lv_objmask.c:273:55
	ldr	r0, [r0]
	.loc	10 273 44                       @ lvgl/src/lv_widgets/lv_objmask.c:273:44
	str	r0, [sp, #32]
	movs	r0, #20
	.loc	10 274 52 is_stmt 1             @ lvgl/src/lv_widgets/lv_objmask.c:274:52
	bl	_lv_mem_buf_get
	.loc	10 274 44 is_stmt 0             @ lvgl/src/lv_widgets/lv_objmask.c:274:44
	str	r0, [sp, #28]
	.loc	10 277 27 is_stmt 1             @ lvgl/src/lv_widgets/lv_objmask.c:277:27
	ldr	r0, [sp, #32]
	ldrh	r0, [r0, #8]
	.loc	10 277 50 is_stmt 0             @ lvgl/src/lv_widgets/lv_objmask.c:277:50
	ldrh.w	r1, [sp, #94]
	.loc	10 277 48                       @ lvgl/src/lv_widgets/lv_objmask.c:277:48
	add	r0, r1
	.loc	10 277 25                       @ lvgl/src/lv_widgets/lv_objmask.c:277:25
	strh.w	r0, [sp, #20]
	.loc	10 278 27 is_stmt 1             @ lvgl/src/lv_widgets/lv_objmask.c:278:27
	ldr	r0, [sp, #32]
	ldrh	r0, [r0, #10]
	.loc	10 278 50 is_stmt 0             @ lvgl/src/lv_widgets/lv_objmask.c:278:50
	ldrh.w	r1, [sp, #92]
	.loc	10 278 48                       @ lvgl/src/lv_widgets/lv_objmask.c:278:48
	add	r0, r1
	.loc	10 278 25                       @ lvgl/src/lv_widgets/lv_objmask.c:278:25
	strh.w	r0, [sp, #22]
	.loc	10 279 27 is_stmt 1             @ lvgl/src/lv_widgets/lv_objmask.c:279:27
	ldr	r0, [sp, #32]
	ldrh	r0, [r0, #12]
	.loc	10 279 50 is_stmt 0             @ lvgl/src/lv_widgets/lv_objmask.c:279:50
	ldrh.w	r1, [sp, #94]
	.loc	10 279 48                       @ lvgl/src/lv_widgets/lv_objmask.c:279:48
	add	r0, r1
	.loc	10 279 25                       @ lvgl/src/lv_widgets/lv_objmask.c:279:25
	strh.w	r0, [sp, #24]
	.loc	10 280 27 is_stmt 1             @ lvgl/src/lv_widgets/lv_objmask.c:280:27
	ldr	r0, [sp, #32]
	ldrh	r0, [r0, #14]
	.loc	10 280 50 is_stmt 0             @ lvgl/src/lv_widgets/lv_objmask.c:280:50
	ldrh.w	r1, [sp, #92]
	.loc	10 280 48                       @ lvgl/src/lv_widgets/lv_objmask.c:280:48
	add	r0, r1
	.loc	10 280 25                       @ lvgl/src/lv_widgets/lv_objmask.c:280:25
	strh.w	r0, [sp, #26]
	.loc	10 282 39 is_stmt 1             @ lvgl/src/lv_widgets/lv_objmask.c:282:39
	ldr	r0, [sp, #28]
	.loc	10 282 53 is_stmt 0             @ lvgl/src/lv_widgets/lv_objmask.c:282:53
	ldr	r1, [sp, #32]
	.loc	10 282 64                       @ lvgl/src/lv_widgets/lv_objmask.c:282:64
	ldr	r2, [r1, #16]
	add	r1, sp, #20
	.loc	10 282 17                       @ lvgl/src/lv_widgets/lv_objmask.c:282:17
	bl	lv_draw_mask_map_init
	.loc	10 283 34 is_stmt 1             @ lvgl/src/lv_widgets/lv_objmask.c:283:34
	ldr	r0, [sp, #28]
	.loc	10 283 41 is_stmt 0             @ lvgl/src/lv_widgets/lv_objmask.c:283:41
	ldr	r1, [sp, #88]
	.loc	10 283 44                       @ lvgl/src/lv_widgets/lv_objmask.c:283:44
	ldr	r1, [r1]
	.loc	10 283 17                       @ lvgl/src/lv_widgets/lv_objmask.c:283:17
	bl	lv_draw_mask_add
	.loc	10 284 13 is_stmt 1             @ lvgl/src/lv_widgets/lv_objmask.c:284:13
	b	.LBB2_17
.Ltmp78:
.LBB2_17:                               @   in Loop: Header=BB2_6 Depth=1
	.loc	10 0 13 is_stmt 0               @ lvgl/src/lv_widgets/lv_objmask.c:0:13
	b	.LBB2_18
.LBB2_18:                               @   in Loop: Header=BB2_6 Depth=1
	b	.LBB2_19
.LBB2_19:                               @   in Loop: Header=BB2_6 Depth=1
	b	.LBB2_20
.LBB2_20:                               @   in Loop: Header=BB2_6 Depth=1
	b	.LBB2_21
.LBB2_21:                               @   in Loop: Header=BB2_6 Depth=1
	.loc	10 286 9 is_stmt 1              @ lvgl/src/lv_widgets/lv_objmask.c:286:9
	b	.LBB2_22
.Ltmp79:
.LBB2_22:                               @   in Loop: Header=BB2_6 Depth=1
	.loc	10 225 9                        @ lvgl/src/lv_widgets/lv_objmask.c:225:9
	ldr	r0, [sp, #96]
	adds	r0, #4
	ldr	r1, [sp, #88]
	bl	_lv_ll_get_next
	str	r0, [sp, #88]
	b	.LBB2_6
.Ltmp80:
.LBB2_23:
	.loc	10 287 5                        @ lvgl/src/lv_widgets/lv_objmask.c:287:5
	b	.LBB2_31
.Ltmp81:
.LBB2_24:
	.loc	10 289 13                       @ lvgl/src/lv_widgets/lv_objmask.c:289:13
	ldrb.w	r0, [sp, #107]
.Ltmp82:
	.loc	10 289 13 is_stmt 0             @ lvgl/src/lv_widgets/lv_objmask.c:289:13
	cmp	r0, #1
	bne	.LBB2_30
	b	.LBB2_25
.LBB2_25:
.Ltmp83:
	.loc	10 290 54 is_stmt 1             @ lvgl/src/lv_widgets/lv_objmask.c:290:54
	ldr	r0, [sp, #112]
	.loc	10 290 34 is_stmt 0             @ lvgl/src/lv_widgets/lv_objmask.c:290:34
	bl	lv_obj_get_ext_attr
	.loc	10 290 28                       @ lvgl/src/lv_widgets/lv_objmask.c:290:28
	str	r0, [sp, #16]
.Ltmp84:
	.loc	10 294 9 is_stmt 1              @ lvgl/src/lv_widgets/lv_objmask.c:294:9
	ldr	r0, [sp, #16]
	adds	r0, #4
	bl	_lv_ll_get_head
	str	r0, [sp, #12]
	b	.LBB2_26
.LBB2_26:                               @ =>This Inner Loop Header: Depth=1
.Ltmp85:
	.loc	10 294 9 is_stmt 0              @ lvgl/src/lv_widgets/lv_objmask.c:294:9
	ldr	r0, [sp, #12]
.Ltmp86:
	.loc	10 294 9                        @ lvgl/src/lv_widgets/lv_objmask.c:294:9
	cbz	r0, .LBB2_29
	b	.LBB2_27
.LBB2_27:                               @   in Loop: Header=BB2_26 Depth=1
.Ltmp87:
	.loc	10 296 48 is_stmt 1             @ lvgl/src/lv_widgets/lv_objmask.c:296:48
	ldr	r0, [sp, #12]
	.loc	10 296 51 is_stmt 0             @ lvgl/src/lv_widgets/lv_objmask.c:296:51
	ldr	r0, [r0]
	.loc	10 296 21                       @ lvgl/src/lv_widgets/lv_objmask.c:296:21
	bl	lv_draw_mask_remove_custom
	.loc	10 296 19                       @ lvgl/src/lv_widgets/lv_objmask.c:296:19
	str	r0, [sp, #8]
	.loc	10 297 33 is_stmt 1             @ lvgl/src/lv_widgets/lv_objmask.c:297:33
	ldr	r0, [sp, #8]
	.loc	10 297 13 is_stmt 0             @ lvgl/src/lv_widgets/lv_objmask.c:297:13
	bl	_lv_mem_buf_release
	.loc	10 298 9 is_stmt 1              @ lvgl/src/lv_widgets/lv_objmask.c:298:9
	b	.LBB2_28
.Ltmp88:
.LBB2_28:                               @   in Loop: Header=BB2_26 Depth=1
	.loc	10 294 9                        @ lvgl/src/lv_widgets/lv_objmask.c:294:9
	ldr	r0, [sp, #16]
	adds	r0, #4
	ldr	r1, [sp, #12]
	bl	_lv_ll_get_next
	str	r0, [sp, #12]
	b	.LBB2_26
.Ltmp89:
.LBB2_29:
	.loc	10 300 5                        @ lvgl/src/lv_widgets/lv_objmask.c:300:5
	b	.LBB2_30
.Ltmp90:
.LBB2_30:
	.loc	10 0 5 is_stmt 0                @ lvgl/src/lv_widgets/lv_objmask.c:0:5
	b	.LBB2_31
.LBB2_31:
	b	.LBB2_32
.LBB2_32:
	movs	r0, #0
	.loc	10 302 5 is_stmt 1              @ lvgl/src/lv_widgets/lv_objmask.c:302:5
	strb.w	r0, [sp, #119]
	b	.LBB2_33
.LBB2_33:
	.loc	10 303 1                        @ lvgl/src/lv_widgets/lv_objmask.c:303:1
	ldrb.w	r0, [sp, #119]
	add	sp, #120
	pop	{r4, pc}
.Ltmp91:
.Lfunc_end2:
	.size	lv_objmask_design, .Lfunc_end2-lv_objmask_design
	.cfi_endproc
	.cantunwind
	.fnend
                                        @ -- End function
	.section	.text.lv_objmask_add_mask,"ax",%progbits
	.hidden	lv_objmask_add_mask             @ -- Begin function lv_objmask_add_mask
	.globl	lv_objmask_add_mask
	.p2align	3
	.type	lv_objmask_add_mask,%function
	.code	16                              @ @lv_objmask_add_mask
	.thumb_func
lv_objmask_add_mask:
.Lfunc_begin3:
	.loc	10 108 0                        @ lvgl/src/lv_widgets/lv_objmask.c:108:0
	.fnstart
	.cfi_startproc
@ %bb.0:
	.save	{r7, lr}
	push	{r7, lr}
	.cfi_def_cfa_offset 8
	.cfi_offset lr, -4
	.cfi_offset r7, -8
	.pad	#32
	sub	sp, #32
	.cfi_def_cfa_offset 40
	str	r0, [sp, #24]
	str	r1, [sp, #20]
.Ltmp92:
	.loc	10 109 5 prologue_end           @ lvgl/src/lv_widgets/lv_objmask.c:109:5
	b	.LBB3_1
.LBB3_1:
.Ltmp93:
	.loc	10 109 5 is_stmt 0              @ lvgl/src/lv_widgets/lv_objmask.c:109:5
	ldr	r0, [sp, #24]
	bl	lv_debug_check_null
.Ltmp94:
	.loc	10 109 5                        @ lvgl/src/lv_widgets/lv_objmask.c:109:5
	cbnz	r0, .LBB3_4
	b	.LBB3_2
.LBB3_2:
.Ltmp95:
	.loc	10 109 5                        @ lvgl/src/lv_widgets/lv_objmask.c:109:5
	ldr	r2, [sp, #24]
	movw	r0, :lower16:.L.str.1
	movt	r0, :upper16:.L.str.1
	movs	r3, #0
	bl	lv_debug_log_error
	b	.LBB3_3
.LBB3_3:                                @ =>This Inner Loop Header: Depth=1
	b	.LBB3_3
.Ltmp96:
.LBB3_4:
	.loc	10 109 5                        @ lvgl/src/lv_widgets/lv_objmask.c:109:5
	b	.LBB3_5
.Ltmp97:
.LBB3_5:
	.loc	10 110 5 is_stmt 1              @ lvgl/src/lv_widgets/lv_objmask.c:110:5
	b	.LBB3_6
.LBB3_6:
.Ltmp98:
	.loc	10 110 5 is_stmt 0              @ lvgl/src/lv_widgets/lv_objmask.c:110:5
	ldr	r0, [sp, #20]
	bl	lv_debug_check_null
.Ltmp99:
	.loc	10 110 5                        @ lvgl/src/lv_widgets/lv_objmask.c:110:5
	cbnz	r0, .LBB3_9
	b	.LBB3_7
.LBB3_7:
.Ltmp100:
	.loc	10 110 5                        @ lvgl/src/lv_widgets/lv_objmask.c:110:5
	ldr	r2, [sp, #20]
	movw	r0, :lower16:.L.str.1
	movt	r0, :upper16:.L.str.1
	movs	r3, #0
	bl	lv_debug_log_error
	b	.LBB3_8
.LBB3_8:                                @ =>This Inner Loop Header: Depth=1
	b	.LBB3_8
.Ltmp101:
.LBB3_9:
	.loc	10 110 5                        @ lvgl/src/lv_widgets/lv_objmask.c:110:5
	b	.LBB3_10
.Ltmp102:
.LBB3_10:
	.loc	10 112 50 is_stmt 1             @ lvgl/src/lv_widgets/lv_objmask.c:112:50
	ldr	r0, [sp, #24]
	.loc	10 112 30 is_stmt 0             @ lvgl/src/lv_widgets/lv_objmask.c:112:30
	bl	lv_obj_get_ext_attr
	.loc	10 112 24                       @ lvgl/src/lv_widgets/lv_objmask.c:112:24
	str	r0, [sp, #16]
	.loc	10 114 39 is_stmt 1             @ lvgl/src/lv_widgets/lv_objmask.c:114:39
	ldr	r0, [sp, #20]
	.loc	10 114 33 is_stmt 0             @ lvgl/src/lv_widgets/lv_objmask.c:114:33
	str	r0, [sp, #12]
	.loc	10 115 42 is_stmt 1             @ lvgl/src/lv_widgets/lv_objmask.c:115:42
	ldr	r0, [sp, #12]
	.loc	10 115 47 is_stmt 0             @ lvgl/src/lv_widgets/lv_objmask.c:115:47
	ldrb	r0, [r0, #4]
	.loc	10 115 27                       @ lvgl/src/lv_widgets/lv_objmask.c:115:27
	bl	get_param_size
	.loc	10 115 14                       @ lvgl/src/lv_widgets/lv_objmask.c:115:14
	strh.w	r0, [sp, #10]
	.loc	10 117 46 is_stmt 1             @ lvgl/src/lv_widgets/lv_objmask.c:117:46
	ldr	r0, [sp, #16]
	.loc	10 117 51 is_stmt 0             @ lvgl/src/lv_widgets/lv_objmask.c:117:51
	adds	r0, #4
	.loc	10 117 29                       @ lvgl/src/lv_widgets/lv_objmask.c:117:29
	bl	_lv_ll_ins_head
	.loc	10 117 25                       @ lvgl/src/lv_widgets/lv_objmask.c:117:25
	str	r0, [sp, #4]
	.loc	10 118 5 is_stmt 1              @ lvgl/src/lv_widgets/lv_objmask.c:118:5
	b	.LBB3_11
.LBB3_11:
.Ltmp103:
	.loc	10 118 5 is_stmt 0              @ lvgl/src/lv_widgets/lv_objmask.c:118:5
	ldr	r0, [sp, #4]
	bl	lv_debug_check_null
.Ltmp104:
	.loc	10 118 5                        @ lvgl/src/lv_widgets/lv_objmask.c:118:5
	cbnz	r0, .LBB3_14
	b	.LBB3_12
.LBB3_12:
.Ltmp105:
	.loc	10 118 5                        @ lvgl/src/lv_widgets/lv_objmask.c:118:5
	ldr	r2, [sp, #4]
	movw	r0, :lower16:.L.str
	movt	r0, :upper16:.L.str
	movs	r3, #0
	bl	lv_debug_log_error
	b	.LBB3_13
.LBB3_13:                               @ =>This Inner Loop Header: Depth=1
	b	.LBB3_13
.Ltmp106:
.LBB3_14:
	.loc	10 118 5                        @ lvgl/src/lv_widgets/lv_objmask.c:118:5
	b	.LBB3_15
.Ltmp107:
.LBB3_15:
	.loc	10 119 8 is_stmt 1              @ lvgl/src/lv_widgets/lv_objmask.c:119:8
	ldr	r0, [sp, #4]
.Ltmp108:
	.loc	10 119 8 is_stmt 0              @ lvgl/src/lv_widgets/lv_objmask.c:119:8
	cbnz	r0, .LBB3_17
	b	.LBB3_16
.LBB3_16:
	.loc	10 0 8                          @ lvgl/src/lv_widgets/lv_objmask.c:0:8
	movs	r0, #0
.Ltmp109:
	.loc	10 119 19                       @ lvgl/src/lv_widgets/lv_objmask.c:119:19
	str	r0, [sp, #28]
	b	.LBB3_25
.Ltmp110:
.LBB3_17:
	.loc	10 120 29 is_stmt 1             @ lvgl/src/lv_widgets/lv_objmask.c:120:29
	ldrh.w	r0, [sp, #10]
	.loc	10 120 16 is_stmt 0             @ lvgl/src/lv_widgets/lv_objmask.c:120:16
	bl	lv_mem_alloc
	.loc	10 120 5                        @ lvgl/src/lv_widgets/lv_objmask.c:120:5
	ldr	r1, [sp, #4]
	.loc	10 120 14                       @ lvgl/src/lv_widgets/lv_objmask.c:120:14
	str	r0, [r1]
	.loc	10 121 5 is_stmt 1              @ lvgl/src/lv_widgets/lv_objmask.c:121:5
	b	.LBB3_18
.LBB3_18:
.Ltmp111:
	.loc	10 121 5 is_stmt 0              @ lvgl/src/lv_widgets/lv_objmask.c:121:5
	ldr	r0, [sp, #4]
	ldr	r0, [r0]
	bl	lv_debug_check_null
.Ltmp112:
	.loc	10 121 5                        @ lvgl/src/lv_widgets/lv_objmask.c:121:5
	cbnz	r0, .LBB3_21
	b	.LBB3_19
.LBB3_19:
.Ltmp113:
	.loc	10 121 5                        @ lvgl/src/lv_widgets/lv_objmask.c:121:5
	ldr	r0, [sp, #4]
	ldr	r2, [r0]
	movw	r0, :lower16:.L.str
	movt	r0, :upper16:.L.str
	movs	r3, #0
	bl	lv_debug_log_error
	b	.LBB3_20
.LBB3_20:                               @ =>This Inner Loop Header: Depth=1
	b	.LBB3_20
.Ltmp114:
.LBB3_21:
	.loc	10 121 5                        @ lvgl/src/lv_widgets/lv_objmask.c:121:5
	b	.LBB3_22
.Ltmp115:
.LBB3_22:
	.loc	10 122 8 is_stmt 1              @ lvgl/src/lv_widgets/lv_objmask.c:122:8
	ldr	r0, [sp, #4]
	.loc	10 122 11 is_stmt 0             @ lvgl/src/lv_widgets/lv_objmask.c:122:11
	ldr	r0, [r0]
.Ltmp116:
	.loc	10 122 8                        @ lvgl/src/lv_widgets/lv_objmask.c:122:8
	cbnz	r0, .LBB3_24
	b	.LBB3_23
.LBB3_23:
	.loc	10 0 8                          @ lvgl/src/lv_widgets/lv_objmask.c:0:8
	movs	r0, #0
.Ltmp117:
	.loc	10 122 26                       @ lvgl/src/lv_widgets/lv_objmask.c:122:26
	str	r0, [sp, #28]
	b	.LBB3_25
.Ltmp118:
.LBB3_24:
	.loc	10 124 16 is_stmt 1             @ lvgl/src/lv_widgets/lv_objmask.c:124:16
	ldr	r0, [sp, #4]
	.loc	10 124 19 is_stmt 0             @ lvgl/src/lv_widgets/lv_objmask.c:124:19
	ldr	r0, [r0]
	.loc	10 124 26                       @ lvgl/src/lv_widgets/lv_objmask.c:124:26
	ldr	r1, [sp, #20]
	.loc	10 124 33                       @ lvgl/src/lv_widgets/lv_objmask.c:124:33
	ldrh.w	r2, [sp, #10]
	.loc	10 124 5                        @ lvgl/src/lv_widgets/lv_objmask.c:124:5
	bl	_lv_memcpy
	.loc	10 126 23 is_stmt 1             @ lvgl/src/lv_widgets/lv_objmask.c:126:23
	ldr	r0, [sp, #24]
	.loc	10 126 5 is_stmt 0              @ lvgl/src/lv_widgets/lv_objmask.c:126:5
	bl	lv_obj_invalidate
	.loc	10 128 12 is_stmt 1             @ lvgl/src/lv_widgets/lv_objmask.c:128:12
	ldr	r0, [sp, #4]
	.loc	10 128 5 is_stmt 0              @ lvgl/src/lv_widgets/lv_objmask.c:128:5
	str	r0, [sp, #28]
	b	.LBB3_25
.LBB3_25:
	.loc	10 129 1 is_stmt 1              @ lvgl/src/lv_widgets/lv_objmask.c:129:1
	ldr	r0, [sp, #28]
	add	sp, #32
	pop	{r7, pc}
.Ltmp119:
.Lfunc_end3:
	.size	lv_objmask_add_mask, .Lfunc_end3-lv_objmask_add_mask
	.cfi_endproc
	.cantunwind
	.fnend
                                        @ -- End function
	.section	.text.get_param_size,"ax",%progbits
	.p2align	3                               @ -- Begin function get_param_size
	.type	get_param_size,%function
	.code	16                              @ @get_param_size
	.thumb_func
get_param_size:
.Lfunc_begin4:
	.loc	10 338 0                        @ lvgl/src/lv_widgets/lv_objmask.c:338:0
	.fnstart
	.cfi_startproc
@ %bb.0:
	.pad	#8
	sub	sp, #8
	.cfi_def_cfa_offset 8
                                        @ kill: def $r1 killed $r0
	strb.w	r0, [sp, #7]
.Ltmp120:
	.loc	10 340 12 prologue_end          @ lvgl/src/lv_widgets/lv_objmask.c:340:12
	ldrb.w	r0, [sp, #7]
	.loc	10 340 5 is_stmt 0              @ lvgl/src/lv_widgets/lv_objmask.c:340:5
	mov	r1, r0
	str	r1, [sp]                        @ 4-byte Spill
	cmp	r0, #4
	bhi	.LBB4_8
@ %bb.1:
	.loc	10 0 5                          @ lvgl/src/lv_widgets/lv_objmask.c:0:5
	ldr	r1, [sp]                        @ 4-byte Reload
.LCPI4_0:
	tbb	[pc, r1]
@ %bb.2:
.LJTI4_0:
	.byte	(.LBB4_3-(.LCPI4_0+4))/2
	.byte	(.LBB4_4-(.LCPI4_0+4))/2
	.byte	(.LBB4_5-(.LCPI4_0+4))/2
	.byte	(.LBB4_6-(.LCPI4_0+4))/2
	.byte	(.LBB4_7-(.LCPI4_0+4))/2
	.p2align	1
.LBB4_3:
	movs	r0, #44
.Ltmp121:
	.loc	10 342 24 is_stmt 1             @ lvgl/src/lv_widgets/lv_objmask.c:342:24
	strh.w	r0, [sp, #4]
	.loc	10 343 13                       @ lvgl/src/lv_widgets/lv_objmask.c:343:13
	b	.LBB4_9
.LBB4_4:
	.loc	10 0 13 is_stmt 0               @ lvgl/src/lv_widgets/lv_objmask.c:0:13
	movs	r0, #108
	.loc	10 345 24 is_stmt 1             @ lvgl/src/lv_widgets/lv_objmask.c:345:24
	strh.w	r0, [sp, #4]
	.loc	10 346 13                       @ lvgl/src/lv_widgets/lv_objmask.c:346:13
	b	.LBB4_9
.LBB4_5:
	.loc	10 0 13 is_stmt 0               @ lvgl/src/lv_widgets/lv_objmask.c:0:13
	movs	r0, #28
	.loc	10 348 24 is_stmt 1             @ lvgl/src/lv_widgets/lv_objmask.c:348:24
	strh.w	r0, [sp, #4]
	.loc	10 349 13                       @ lvgl/src/lv_widgets/lv_objmask.c:349:13
	b	.LBB4_9
.LBB4_6:
	.loc	10 0 13 is_stmt 0               @ lvgl/src/lv_widgets/lv_objmask.c:0:13
	movs	r0, #24
	.loc	10 351 24 is_stmt 1             @ lvgl/src/lv_widgets/lv_objmask.c:351:24
	strh.w	r0, [sp, #4]
	.loc	10 352 13                       @ lvgl/src/lv_widgets/lv_objmask.c:352:13
	b	.LBB4_9
.LBB4_7:
	.loc	10 0 13 is_stmt 0               @ lvgl/src/lv_widgets/lv_objmask.c:0:13
	movs	r0, #20
	.loc	10 354 24 is_stmt 1             @ lvgl/src/lv_widgets/lv_objmask.c:354:24
	strh.w	r0, [sp, #4]
	.loc	10 355 13                       @ lvgl/src/lv_widgets/lv_objmask.c:355:13
	b	.LBB4_9
.LBB4_8:
	.loc	10 0 13 is_stmt 0               @ lvgl/src/lv_widgets/lv_objmask.c:0:13
	movs	r0, #0
	.loc	10 357 24 is_stmt 1             @ lvgl/src/lv_widgets/lv_objmask.c:357:24
	strh.w	r0, [sp, #4]
	.loc	10 358 5                        @ lvgl/src/lv_widgets/lv_objmask.c:358:5
	b	.LBB4_9
.Ltmp122:
.LBB4_9:
	.loc	10 360 12                       @ lvgl/src/lv_widgets/lv_objmask.c:360:12
	ldrh.w	r0, [sp, #4]
	.loc	10 360 5 is_stmt 0              @ lvgl/src/lv_widgets/lv_objmask.c:360:5
	add	sp, #8
	bx	lr
.Ltmp123:
.Lfunc_end4:
	.size	get_param_size, .Lfunc_end4-get_param_size
	.cfi_endproc
	.cantunwind
	.fnend
                                        @ -- End function
	.section	.text.lv_objmask_update_mask,"ax",%progbits
	.hidden	lv_objmask_update_mask          @ -- Begin function lv_objmask_update_mask
	.globl	lv_objmask_update_mask
	.p2align	3
	.type	lv_objmask_update_mask,%function
	.code	16                              @ @lv_objmask_update_mask
	.thumb_func
lv_objmask_update_mask:
.Lfunc_begin5:
	.loc	10 138 0 is_stmt 1              @ lvgl/src/lv_widgets/lv_objmask.c:138:0
	.fnstart
	.cfi_startproc
@ %bb.0:
	.save	{r7, lr}
	push	{r7, lr}
	.cfi_def_cfa_offset 8
	.cfi_offset lr, -4
	.cfi_offset r7, -8
	.pad	#24
	sub	sp, #24
	.cfi_def_cfa_offset 32
	str	r0, [sp, #20]
	str	r1, [sp, #16]
	str	r2, [sp, #12]
.Ltmp124:
	.loc	10 139 5 prologue_end           @ lvgl/src/lv_widgets/lv_objmask.c:139:5
	b	.LBB5_1
.LBB5_1:
.Ltmp125:
	.loc	10 139 5 is_stmt 0              @ lvgl/src/lv_widgets/lv_objmask.c:139:5
	ldr	r0, [sp, #20]
	bl	lv_debug_check_null
.Ltmp126:
	.loc	10 139 5                        @ lvgl/src/lv_widgets/lv_objmask.c:139:5
	cbnz	r0, .LBB5_4
	b	.LBB5_2
.LBB5_2:
.Ltmp127:
	.loc	10 139 5                        @ lvgl/src/lv_widgets/lv_objmask.c:139:5
	ldr	r2, [sp, #20]
	movw	r0, :lower16:.L.str.1
	movt	r0, :upper16:.L.str.1
	movs	r3, #0
	bl	lv_debug_log_error
	b	.LBB5_3
.LBB5_3:                                @ =>This Inner Loop Header: Depth=1
	b	.LBB5_3
.Ltmp128:
.LBB5_4:
	.loc	10 139 5                        @ lvgl/src/lv_widgets/lv_objmask.c:139:5
	b	.LBB5_5
.Ltmp129:
.LBB5_5:
	.loc	10 140 5 is_stmt 1              @ lvgl/src/lv_widgets/lv_objmask.c:140:5
	b	.LBB5_6
.LBB5_6:
.Ltmp130:
	.loc	10 140 5 is_stmt 0              @ lvgl/src/lv_widgets/lv_objmask.c:140:5
	ldr	r0, [sp, #16]
	bl	lv_debug_check_null
.Ltmp131:
	.loc	10 140 5                        @ lvgl/src/lv_widgets/lv_objmask.c:140:5
	cbnz	r0, .LBB5_9
	b	.LBB5_7
.LBB5_7:
.Ltmp132:
	.loc	10 140 5                        @ lvgl/src/lv_widgets/lv_objmask.c:140:5
	ldr	r2, [sp, #16]
	movw	r0, :lower16:.L.str.1
	movt	r0, :upper16:.L.str.1
	movs	r3, #0
	bl	lv_debug_log_error
	b	.LBB5_8
.LBB5_8:                                @ =>This Inner Loop Header: Depth=1
	b	.LBB5_8
.Ltmp133:
.LBB5_9:
	.loc	10 140 5                        @ lvgl/src/lv_widgets/lv_objmask.c:140:5
	b	.LBB5_10
.Ltmp134:
.LBB5_10:
	.loc	10 141 5 is_stmt 1              @ lvgl/src/lv_widgets/lv_objmask.c:141:5
	b	.LBB5_11
.LBB5_11:
.Ltmp135:
	.loc	10 141 5 is_stmt 0              @ lvgl/src/lv_widgets/lv_objmask.c:141:5
	ldr	r0, [sp, #12]
	bl	lv_debug_check_null
.Ltmp136:
	.loc	10 141 5                        @ lvgl/src/lv_widgets/lv_objmask.c:141:5
	cbnz	r0, .LBB5_14
	b	.LBB5_12
.LBB5_12:
.Ltmp137:
	.loc	10 141 5                        @ lvgl/src/lv_widgets/lv_objmask.c:141:5
	ldr	r2, [sp, #12]
	movw	r0, :lower16:.L.str.1
	movt	r0, :upper16:.L.str.1
	movs	r3, #0
	bl	lv_debug_log_error
	b	.LBB5_13
.LBB5_13:                               @ =>This Inner Loop Header: Depth=1
	b	.LBB5_13
.Ltmp138:
.LBB5_14:
	.loc	10 141 5                        @ lvgl/src/lv_widgets/lv_objmask.c:141:5
	b	.LBB5_15
.Ltmp139:
.LBB5_15:
	.loc	10 142 39 is_stmt 1             @ lvgl/src/lv_widgets/lv_objmask.c:142:39
	ldr	r0, [sp, #12]
	.loc	10 142 33 is_stmt 0             @ lvgl/src/lv_widgets/lv_objmask.c:142:33
	str	r0, [sp, #8]
	.loc	10 144 12 is_stmt 1             @ lvgl/src/lv_widgets/lv_objmask.c:144:12
	ldr	r0, [sp, #16]
	.loc	10 144 18 is_stmt 0             @ lvgl/src/lv_widgets/lv_objmask.c:144:18
	ldr	r0, [r0]
	.loc	10 144 25                       @ lvgl/src/lv_widgets/lv_objmask.c:144:25
	str	r0, [sp, #4]                    @ 4-byte Spill
	ldr	r0, [sp, #12]
	.loc	10 144 47                       @ lvgl/src/lv_widgets/lv_objmask.c:144:47
	str	r0, [sp]                        @ 4-byte Spill
	ldr	r0, [sp, #8]
	.loc	10 144 52                       @ lvgl/src/lv_widgets/lv_objmask.c:144:52
	ldrb	r0, [r0, #4]
	.loc	10 144 32                       @ lvgl/src/lv_widgets/lv_objmask.c:144:32
	bl	get_param_size
	ldr	r1, [sp]                        @ 4-byte Reload
	mov	r2, r0
	.loc	10 144 5                        @ lvgl/src/lv_widgets/lv_objmask.c:144:5
	ldr	r0, [sp, #4]                    @ 4-byte Reload
	bl	__aeabi_memcpy
	.loc	10 146 23 is_stmt 1             @ lvgl/src/lv_widgets/lv_objmask.c:146:23
	ldr	r0, [sp, #20]
	.loc	10 146 5 is_stmt 0              @ lvgl/src/lv_widgets/lv_objmask.c:146:5
	bl	lv_obj_invalidate
	.loc	10 147 1 is_stmt 1              @ lvgl/src/lv_widgets/lv_objmask.c:147:1
	add	sp, #24
	pop	{r7, pc}
.Ltmp140:
.Lfunc_end5:
	.size	lv_objmask_update_mask, .Lfunc_end5-lv_objmask_update_mask
	.cfi_endproc
	.cantunwind
	.fnend
                                        @ -- End function
	.section	.text.lv_objmask_remove_mask,"ax",%progbits
	.hidden	lv_objmask_remove_mask          @ -- Begin function lv_objmask_remove_mask
	.globl	lv_objmask_remove_mask
	.p2align	3
	.type	lv_objmask_remove_mask,%function
	.code	16                              @ @lv_objmask_remove_mask
	.thumb_func
lv_objmask_remove_mask:
.Lfunc_begin6:
	.loc	10 156 0                        @ lvgl/src/lv_widgets/lv_objmask.c:156:0
	.fnstart
	.cfi_startproc
@ %bb.0:
	.save	{r7, lr}
	push	{r7, lr}
	.cfi_def_cfa_offset 8
	.cfi_offset lr, -4
	.cfi_offset r7, -8
	.pad	#16
	sub	sp, #16
	.cfi_def_cfa_offset 24
	str	r0, [sp, #12]
	str	r1, [sp, #8]
.Ltmp141:
	.loc	10 157 5 prologue_end           @ lvgl/src/lv_widgets/lv_objmask.c:157:5
	b	.LBB6_1
.LBB6_1:
.Ltmp142:
	.loc	10 157 5 is_stmt 0              @ lvgl/src/lv_widgets/lv_objmask.c:157:5
	ldr	r0, [sp, #12]
	bl	lv_debug_check_null
.Ltmp143:
	.loc	10 157 5                        @ lvgl/src/lv_widgets/lv_objmask.c:157:5
	cbnz	r0, .LBB6_4
	b	.LBB6_2
.LBB6_2:
.Ltmp144:
	.loc	10 157 5                        @ lvgl/src/lv_widgets/lv_objmask.c:157:5
	ldr	r2, [sp, #12]
	movw	r0, :lower16:.L.str.1
	movt	r0, :upper16:.L.str.1
	movs	r3, #0
	bl	lv_debug_log_error
	b	.LBB6_3
.LBB6_3:                                @ =>This Inner Loop Header: Depth=1
	b	.LBB6_3
.Ltmp145:
.LBB6_4:
	.loc	10 157 5                        @ lvgl/src/lv_widgets/lv_objmask.c:157:5
	b	.LBB6_5
.Ltmp146:
.LBB6_5:
	.loc	10 159 50 is_stmt 1             @ lvgl/src/lv_widgets/lv_objmask.c:159:50
	ldr	r0, [sp, #12]
	.loc	10 159 30 is_stmt 0             @ lvgl/src/lv_widgets/lv_objmask.c:159:30
	bl	lv_obj_get_ext_attr
	.loc	10 159 24                       @ lvgl/src/lv_widgets/lv_objmask.c:159:24
	str	r0, [sp, #4]
.Ltmp147:
	.loc	10 162 8 is_stmt 1              @ lvgl/src/lv_widgets/lv_objmask.c:162:8
	ldr	r0, [sp, #8]
.Ltmp148:
	.loc	10 162 8 is_stmt 0              @ lvgl/src/lv_widgets/lv_objmask.c:162:8
	cbnz	r0, .LBB6_11
	b	.LBB6_6
.LBB6_6:
.Ltmp149:
	.loc	10 164 9 is_stmt 1              @ lvgl/src/lv_widgets/lv_objmask.c:164:9
	ldr	r0, [sp, #4]
	adds	r0, #4
	bl	_lv_ll_get_head
	str	r0, [sp]
	b	.LBB6_7
.LBB6_7:                                @ =>This Inner Loop Header: Depth=1
.Ltmp150:
	.loc	10 164 9 is_stmt 0              @ lvgl/src/lv_widgets/lv_objmask.c:164:9
	ldr	r0, [sp]
.Ltmp151:
	.loc	10 164 9                        @ lvgl/src/lv_widgets/lv_objmask.c:164:9
	cbz	r0, .LBB6_10
	b	.LBB6_8
.LBB6_8:                                @   in Loop: Header=BB6_7 Depth=1
.Ltmp152:
	.loc	10 165 25 is_stmt 1             @ lvgl/src/lv_widgets/lv_objmask.c:165:25
	ldr	r0, [sp]
	.loc	10 165 28 is_stmt 0             @ lvgl/src/lv_widgets/lv_objmask.c:165:28
	ldr	r0, [r0]
	.loc	10 165 13                       @ lvgl/src/lv_widgets/lv_objmask.c:165:13
	bl	lv_mem_free
	.loc	10 166 9 is_stmt 1              @ lvgl/src/lv_widgets/lv_objmask.c:166:9
	b	.LBB6_9
.Ltmp153:
.LBB6_9:                                @   in Loop: Header=BB6_7 Depth=1
	.loc	10 164 9                        @ lvgl/src/lv_widgets/lv_objmask.c:164:9
	ldr	r0, [sp, #4]
	adds	r0, #4
	ldr	r1, [sp]
	bl	_lv_ll_get_next
	str	r0, [sp]
	b	.LBB6_7
.Ltmp154:
.LBB6_10:
	.loc	10 168 23                       @ lvgl/src/lv_widgets/lv_objmask.c:168:23
	ldr	r0, [sp, #4]
	.loc	10 168 28 is_stmt 0             @ lvgl/src/lv_widgets/lv_objmask.c:168:28
	adds	r0, #4
	.loc	10 168 9                        @ lvgl/src/lv_widgets/lv_objmask.c:168:9
	bl	_lv_ll_clear
	.loc	10 169 5 is_stmt 1              @ lvgl/src/lv_widgets/lv_objmask.c:169:5
	b	.LBB6_12
.Ltmp155:
.LBB6_11:
	.loc	10 172 21                       @ lvgl/src/lv_widgets/lv_objmask.c:172:21
	ldr	r0, [sp, #8]
	.loc	10 172 27 is_stmt 0             @ lvgl/src/lv_widgets/lv_objmask.c:172:27
	ldr	r0, [r0]
	.loc	10 172 9                        @ lvgl/src/lv_widgets/lv_objmask.c:172:9
	bl	lv_mem_free
	.loc	10 173 24 is_stmt 1             @ lvgl/src/lv_widgets/lv_objmask.c:173:24
	ldr	r0, [sp, #4]
	.loc	10 173 29 is_stmt 0             @ lvgl/src/lv_widgets/lv_objmask.c:173:29
	adds	r0, #4
	.loc	10 173 38                       @ lvgl/src/lv_widgets/lv_objmask.c:173:38
	ldr	r1, [sp, #8]
	.loc	10 173 9                        @ lvgl/src/lv_widgets/lv_objmask.c:173:9
	bl	_lv_ll_remove
	.loc	10 174 21 is_stmt 1             @ lvgl/src/lv_widgets/lv_objmask.c:174:21
	ldr	r0, [sp, #8]
	.loc	10 174 9 is_stmt 0              @ lvgl/src/lv_widgets/lv_objmask.c:174:9
	bl	lv_mem_free
	b	.LBB6_12
.Ltmp156:
.LBB6_12:
	.loc	10 177 23 is_stmt 1             @ lvgl/src/lv_widgets/lv_objmask.c:177:23
	ldr	r0, [sp, #12]
	.loc	10 177 5 is_stmt 0              @ lvgl/src/lv_widgets/lv_objmask.c:177:5
	bl	lv_obj_invalidate
	.loc	10 178 1 is_stmt 1              @ lvgl/src/lv_widgets/lv_objmask.c:178:1
	add	sp, #16
	pop	{r7, pc}
.Ltmp157:
.Lfunc_end6:
	.size	lv_objmask_remove_mask, .Lfunc_end6-lv_objmask_remove_mask
	.cfi_endproc
	.cantunwind
	.fnend
                                        @ -- End function
	.type	.L.str,%object                  @ @.str
	.section	.rodata.str1.1,"aMS",%progbits,1
.L.str:
	.asciz	"Out of memory"
	.size	.L.str, 14

	.type	ancestor_signal,%object         @ @ancestor_signal
	.section	.bss.ancestor_signal,"aw",%nobits
	.p2align	2
ancestor_signal:
	.long	0
	.size	ancestor_signal, 4

	.type	ancestor_design,%object         @ @ancestor_design
	.section	.bss.ancestor_design,"aw",%nobits
	.p2align	2
ancestor_design:
	.long	0
	.size	ancestor_design, 4

	.type	.L.str.1,%object                @ @.str.1
	.section	.rodata.str1.1,"aMS",%progbits,1
.L.str.1:
	.asciz	"NULL pointer"
	.size	.L.str.1, 13

	.type	.L.str.2,%object                @ @.str.2
.L.str.2:
	.asciz	"lv_objmask"
	.size	.L.str.2, 11

	.file	13 "E:\\STM32\\Learning\\STM32H750_ART_PI_RGBLCD" "lvgl/src/lv_widgets/lv_objmask.h"
	.file	14 "E:\\STM32\\Learning\\STM32H750_ART_PI_RGBLCD" "lvgl/src/lv_widgets/../lv_widgets/lv_cont.h"
	.file	15 "E:\\STM32\\Learning\\STM32H750_ART_PI_RGBLCD" "lvgl/src/lv_widgets/../lv_core/../lv_hal/../lv_misc/lv_color.h"
	.file	16 "E:\\STM32\\Learning\\STM32H750_ART_PI_RGBLCD" "lvgl/src/lv_widgets/../lv_core/../lv_font/../lv_misc/lv_math.h"
	.section	".note.GNU-stack","",%progbits
	.eabi_attribute	30, 6	@ Tag_ABI_optimization_goals
	.ARM_attribute	16, 1	@ Tag_AV_eba