	.text
	.syntax unified
	.eabi_attribute	67, "2.09"	@ Tag_conformance
	.cpu	cortex-m7
	.eabi_attribute	6, 13	@ Tag_CPU_arch
	.eabi_attribute	7, 77	@ Tag_CPU_arch_profile
	.eabi_attribute	8, 0	@ Tag_ARM_ISA_use
	.eabi_attribute	9, 2	@ Tag_THUMB_ISA_use
	.fpu	fpv5-d16
	.eabi_attribute	36, 1	@ Tag_FP_HP_extension
	.eabi_attribute	34, 1	@ Tag_CPU_unaligned_access
	.eabi_attribute	17, 1	@ Tag_ABI_PCS_GOT_use
	.eabi_attribute	20, 2	@ Tag_ABI_FP_denormal
	.eabi_attribute	21, 0	@ Tag_ABI_FP_exceptions
	.eabi_attribute	23, 1	@ Tag_ABI_FP_number_model
	.eabi_attribute	24, 1	@ Tag_ABI_align_needed
	.eabi_attribute	25, 1	@ Tag_ABI_align_preserved
	.eabi_attribute	28, 1	@ Tag_ABI_VFP_args
	.eabi_attribute	38, 1	@ Tag_ABI_FP_16bit_format
	.eabi_attribute	18, 2	@ Tag_ABI_PCS_wchar_t
	.eabi_attribute	26, 1	@ Tag_ABI_enum_size
	.eabi_attribute	14, 0	@ Tag_ABI_PCS_R9_use
	.file	"lv_page.c"
	.file	1 "D:\\Keil_v5\\ARM\\ARMCLANG\\Bin\\..\\include" "stdint.h"
	.file	2 "E:\\Smart-access-control\\Hardware\\CODE" "lvgl/src/lv_widgets/../lv_themes/../lv_core/lv_obj.h"
	.file	3 "E:\\Smart-access-control\\Hardware\\CODE" "lvgl/src/lv_widgets/../lv_core/../lv_font/../lv_misc/lv_ll.h"
	.file	4 "E:\\Smart-access-control\\Hardware\\CODE" "./lvgl/src/lv_conf.h"
	.file	5 "E:\\Smart-access-control\\Hardware\\CODE" "lvgl/src/lv_widgets/../lv_core/../lv_hal/../lv_misc/lv_area.h"
	.file	6 "E:\\Smart-access-control\\Hardware\\CODE" "lvgl/src/lv_widgets/../lv_core/../lv_draw/../lv_misc/lv_types.h"
	.file	7 "E:\\Smart-access-control\\Hardware\\CODE" "lvgl/src/lv_widgets/../lv_themes/../lv_core/lv_style.h"
	.file	8 "E:\\Smart-access-control\\Hardware\\CODE" "lvgl/src/lv_widgets/../lv_core/../lv_hal/lv_hal_indev.h"
	.file	9 "E:\\Smart-access-control\\Hardware\\CODE" "lvgl/src/lv_widgets/../lv_core/../lv_draw/../lv_misc/lv_bidi.h"
	.file	10 "E:\\Smart-access-control\\Hardware\\CODE" "lvgl/src/lv_widgets/lv_page.c"
	.file	11 "E:\\Smart-access-control\\Hardware\\CODE" "lvgl/src/lv_widgets/../lv_widgets/lv_page.h"
	.file	12 "E:\\Smart-access-control\\Hardware\\CODE" "lvgl/src/lv_widgets/lv_cont.h"
	.file	13 "E:\\Smart-access-control\\Hardware\\CODE" "lvgl/src/lv_widgets/../lv_themes/lv_theme.h"
	.file	14 "E:\\Smart-access-control\\Hardware\\CODE" "lvgl/src/lv_widgets/../lv_misc/lv_anim.h"
	.file	15 "E:\\Smart-access-control\\Hardware\\CODE" "lvgl/src/lv_widgets/../lv_core/lv_group.h"
	.section	.text.lv_page_create,"ax",%progbits
	.hidden	lv_page_create                  @ -- Begin function lv_page_create
	.globl	lv_page_create
	.p2align	3
	.type	lv_page_create,%function
	.code	16                              @ @lv_page_create
	.thumb_func
lv_page_create:
.Lfunc_begin0:
	.loc	10 81 0                         @ lvgl/src/lv_widgets/lv_page.c:81:0
	.fnstart
	.cfi_sections .debug_frame
	.cfi_startproc
@ %bb.0:
	.save	{r7, lr}
	push	{r7, lr}
	.cfi_def_cfa_offset 8
	.cfi_offset lr, -4
	.cfi_offset r7, -8
	.pad	#32
	sub	sp, #32
	.cfi_def_cfa_offset 40
	str	r0, [sp, #24]
	str	r1, [sp, #20]
.Ltmp0:
	.loc	10 85 38 prologue_end           @ lvgl/src/lv_widgets/lv_page.c:85:38
	ldr	r0, [sp, #24]
	.loc	10 85 43 is_stmt 0              @ lvgl/src/lv_widgets/lv_page.c:85:43
	ldr	r1, [sp, #20]
	.loc	10 85 23                        @ lvgl/src/lv_widgets/lv_page.c:85:23
	bl	lv_cont_create
	.loc	10 85 16                        @ lvgl/src/lv_widgets/lv_page.c:85:16
	str	r0, [sp, #16]
	.loc	10 86 5 is_stmt 1               @ lvgl/src/lv_widgets/lv_page.c:86:5
	b	.LBB0_1
.LBB0_1:
.Ltmp1:
	.loc	10 86 5 is_stmt 0               @ lvgl/src/lv_widgets/lv_page.c:86:5
	ldr	r0, [sp, #16]
	bl	lv_debug_check_null
.Ltmp2:
	.loc	10 86 5                         @ lvgl/src/lv_widgets/lv_page.c:86:5
	cbnz	r0, .LBB0_4
	b	.LBB0_2
.LBB0_2:
.Ltmp3:
	.loc	10 86 5                         @ lvgl/src/lv_widgets/lv_page.c:86:5
	ldr	r2, [sp, #16]
	movw	r0, :lower16:.L.str
	movt	r0, :upper16:.L.str
	movs	r3, #0
	bl	lv_debug_log_error
	b	.LBB0_3
.LBB0_3:                                @ =>This Inner Loop Header: Depth=1
	b	.LBB0_3
.Ltmp4:
.LBB0_4:
	.loc	10 86 5                         @ lvgl/src/lv_widgets/lv_page.c:86:5
	b	.LBB0_5
.Ltmp5:
.LBB0_5:
	.loc	10 87 8 is_stmt 1               @ lvgl/src/lv_widgets/lv_page.c:87:8
	ldr	r0, [sp, #16]
.Ltmp6:
	.loc	10 87 8 is_stmt 0               @ lvgl/src/lv_widgets/lv_page.c:87:8
	cbnz	r0, .LBB0_7
	b	.LBB0_6
.LBB0_6:
	.loc	10 0 8                          @ lvgl/src/lv_widgets/lv_page.c:0:8
	movs	r0, #0
.Ltmp7:
	.loc	10 87 22                        @ lvgl/src/lv_widgets/lv_page.c:87:22
	str	r0, [sp, #28]
	b	.LBB0_22
.Ltmp8:
.LBB0_7:
	.loc	10 89 8 is_stmt 1               @ lvgl/src/lv_widgets/lv_page.c:89:8
	movw	r0, :lower16:ancestor_signal
	movt	r0, :upper16:ancestor_signal
	ldr	r0, [r0]
.Ltmp9:
	.loc	10 89 8 is_stmt 0               @ lvgl/src/lv_widgets/lv_page.c:89:8
	cbnz	r0, .LBB0_9
	b	.LBB0_8
.LBB0_8:
.Ltmp10:
	.loc	10 89 72                        @ lvgl/src/lv_widgets/lv_page.c:89:72
	ldr	r0, [sp, #16]
	.loc	10 89 51                        @ lvgl/src/lv_widgets/lv_page.c:89:51
	bl	lv_obj_get_signal_cb
	.loc	10 89 49                        @ lvgl/src/lv_widgets/lv_page.c:89:49
	movw	r1, :lower16:ancestor_signal
	movt	r1, :upper16:ancestor_signal
	str	r0, [r1]
	.loc	10 89 33                        @ lvgl/src/lv_widgets/lv_page.c:89:33
	b	.LBB0_9
.Ltmp11:
.LBB0_9:
	.loc	10 90 8 is_stmt 1               @ lvgl/src/lv_widgets/lv_page.c:90:8
	movw	r0, :lower16:ancestor_design
	movt	r0, :upper16:ancestor_design
	ldr	r0, [r0]
.Ltmp12:
	.loc	10 90 8 is_stmt 0               @ lvgl/src/lv_widgets/lv_page.c:90:8
	cbnz	r0, .LBB0_11
	b	.LBB0_10
.LBB0_10:
.Ltmp13:
	.loc	10 90 72                        @ lvgl/src/lv_widgets/lv_page.c:90:72
	ldr	r0, [sp, #16]
	.loc	10 90 51                        @ lvgl/src/lv_widgets/lv_page.c:90:51
	bl	lv_obj_get_design_cb
	.loc	10 90 49                        @ lvgl/src/lv_widgets/lv_page.c:90:49
	movw	r1, :lower16:ancestor_design
	movt	r1, :upper16:ancestor_design
	str	r0, [r1]
	.loc	10 90 33                        @ lvgl/src/lv_widgets/lv_page.c:90:33
	b	.LBB0_11
.Ltmp14:
.LBB0_11:
	.loc	10 93 52 is_stmt 1              @ lvgl/src/lv_widgets/lv_page.c:93:52
	ldr	r0, [sp, #16]
	movs	r1, #64
	.loc	10 93 27 is_stmt 0              @ lvgl/src/lv_widgets/lv_page.c:93:27
	bl	lv_obj_allocate_ext_attr
	.loc	10 93 21                        @ lvgl/src/lv_widgets/lv_page.c:93:21
	str	r0, [sp, #12]
	.loc	10 94 5 is_stmt 1               @ lvgl/src/lv_widgets/lv_page.c:94:5
	b	.LBB0_12
.LBB0_12:
.Ltmp15:
	.loc	10 94 5 is_stmt 0               @ lvgl/src/lv_widgets/lv_page.c:94:5
	ldr	r0, [sp, #12]
	bl	lv_debug_check_null
.Ltmp16:
	.loc	10 94 5                         @ lvgl/src/lv_widgets/lv_page.c:94:5
	cbnz	r0, .LBB0_15
	b	.LBB0_13
.LBB0_13:
.Ltmp17:
	.loc	10 94 5                         @ lvgl/src/lv_widgets/lv_page.c:94:5
	ldr	r2, [sp, #12]
	movw	r0, :lower16:.L.str
	movt	r0, :upper16:.L.str
	movs	r3, #0
	bl	lv_debug_log_error
	b	.LBB0_14
.LBB0_14:                               @ =>This Inner Loop Header: Depth=1
	b	.LBB0_14
.Ltmp18:
.LBB0_15:
	.loc	10 94 5                         @ lvgl/src/lv_widgets/lv_page.c:94:5
	b	.LBB0_16
.Ltmp19:
.LBB0_16:
	.loc	10 95 8 is_stmt 1               @ lvgl/src/lv_widgets/lv_page.c:95:8
	ldr	r0, [sp, #12]
.Ltmp20:
	.loc	10 95 8 is_stmt 0               @ lvgl/src/lv_widgets/lv_page.c:95:8
	cbnz	r0, .LBB0_18
	b	.LBB0_17
.LBB0_17:
.Ltmp21:
	.loc	10 96 20 is_stmt 1              @ lvgl/src/lv_widgets/lv_page.c:96:20
	ldr	r0, [sp, #16]
	.loc	10 96 9 is_stmt 0               @ lvgl/src/lv_widgets/lv_page.c:96:9
	bl	lv_obj_del
	movs	r0, #0
	.loc	10 97 9 is_stmt 1               @ lvgl/src/lv_widgets/lv_page.c:97:9
	str	r0, [sp, #28]
	b	.LBB0_22
.Ltmp22:
.LBB0_18:
	.loc	10 100 5                        @ lvgl/src/lv_widgets/lv_page.c:100:5
	ldr	r1, [sp, #12]
	movs	r0, #0
	.loc	10 100 22 is_stmt 0             @ lvgl/src/lv_widgets/lv_page.c:100:22
	str	r0, [sp, #4]                    @ 4-byte Spill
	str	r0, [r1, #4]
	.loc	10 101 25 is_stmt 1             @ lvgl/src/lv_widgets/lv_page.c:101:25
	ldr	r0, [sp, #12]
	.loc	10 101 30 is_stmt 0             @ lvgl/src/lv_widgets/lv_page.c:101:30
	adds	r0, #8
	.loc	10 101 5                        @ lvgl/src/lv_widgets/lv_page.c:101:5
	bl	lv_style_list_init
	.loc	10 102 5 is_stmt 1              @ lvgl/src/lv_widgets/lv_page.c:102:5
	ldr	r1, [sp, #12]
	.loc	10 102 27 is_stmt 0             @ lvgl/src/lv_widgets/lv_page.c:102:27
	ldrb.w	r0, [r1, #32]
	and	r0, r0, #254
	strb.w	r0, [r1, #32]
	.loc	10 103 5 is_stmt 1              @ lvgl/src/lv_widgets/lv_page.c:103:5
	ldr	r1, [sp, #12]
	.loc	10 103 27 is_stmt 0             @ lvgl/src/lv_widgets/lv_page.c:103:27
	ldrb.w	r0, [r1, #32]
	and	r0, r0, #253
	strb.w	r0, [r1, #32]
	.loc	10 104 5 is_stmt 1              @ lvgl/src/lv_widgets/lv_page.c:104:5
	ldr	r1, [sp, #12]
	.loc	10 104 27 is_stmt 0             @ lvgl/src/lv_widgets/lv_page.c:104:27
	ldrb.w	r0, [r1, #32]
	and	r0, r0, #227
	adds	r0, #12
	strb.w	r0, [r1, #32]
	.loc	10 106 25 is_stmt 1             @ lvgl/src/lv_widgets/lv_page.c:106:25
	ldr	r0, [sp, #12]
	.loc	10 106 41 is_stmt 0             @ lvgl/src/lv_widgets/lv_page.c:106:41
	adds	r0, #40
	.loc	10 106 5                        @ lvgl/src/lv_widgets/lv_page.c:106:5
	bl	lv_style_list_init
	ldr	r0, [sp, #4]                    @ 4-byte Reload
	.loc	10 107 5 is_stmt 1              @ lvgl/src/lv_widgets/lv_page.c:107:5
	ldr	r2, [sp, #12]
	.loc	10 107 31 is_stmt 0             @ lvgl/src/lv_widgets/lv_page.c:107:31
	ldrb.w	r1, [r2, #48]
	and	r1, r1, #254
	strb.w	r1, [r2, #48]
	.loc	10 108 5 is_stmt 1              @ lvgl/src/lv_widgets/lv_page.c:108:5
	ldr	r2, [sp, #12]
	.loc	10 108 31 is_stmt 0             @ lvgl/src/lv_widgets/lv_page.c:108:31
	ldrb.w	r1, [r2, #48]
	and	r1, r1, #251
	strb.w	r1, [r2, #48]
	.loc	10 109 5 is_stmt 1              @ lvgl/src/lv_widgets/lv_page.c:109:5
	ldr	r2, [sp, #12]
	.loc	10 109 31 is_stmt 0             @ lvgl/src/lv_widgets/lv_page.c:109:31
	ldrb.w	r1, [r2, #48]
	and	r1, r1, #253
	strb.w	r1, [r2, #48]
	.loc	10 110 5 is_stmt 1              @ lvgl/src/lv_widgets/lv_page.c:110:5
	ldr	r2, [sp, #12]
	.loc	10 110 31 is_stmt 0             @ lvgl/src/lv_widgets/lv_page.c:110:31
	ldrb.w	r1, [r2, #48]
	and	r1, r1, #239
	strb.w	r1, [r2, #48]
	.loc	10 111 5 is_stmt 1              @ lvgl/src/lv_widgets/lv_page.c:111:5
	ldr	r2, [sp, #12]
	.loc	10 111 31 is_stmt 0             @ lvgl/src/lv_widgets/lv_page.c:111:31
	ldrb.w	r1, [r2, #48]
	and	r1, r1, #247
	strb.w	r1, [r2, #48]
	.loc	10 112 5 is_stmt 1              @ lvgl/src/lv_widgets/lv_page.c:112:5
	ldr	r1, [sp, #12]
	.loc	10 112 31 is_stmt 0             @ lvgl/src/lv_widgets/lv_page.c:112:31
	strh	r0, [r1, #36]
	.loc	10 113 5 is_stmt 1              @ lvgl/src/lv_widgets/lv_page.c:113:5
	ldr	r2, [sp, #12]
	mov.w	r1, #400
	.loc	10 113 31 is_stmt 0             @ lvgl/src/lv_widgets/lv_page.c:113:31
	strh	r1, [r2, #52]
	.loc	10 115 5 is_stmt 1              @ lvgl/src/lv_widgets/lv_page.c:115:5
	ldr	r2, [sp, #12]
	.loc	10 115 25 is_stmt 0             @ lvgl/src/lv_widgets/lv_page.c:115:25
	ldrb.w	r1, [r2, #60]
	and	r1, r1, #254
	strb.w	r1, [r2, #60]
	.loc	10 116 5 is_stmt 1              @ lvgl/src/lv_widgets/lv_page.c:116:5
	ldr	r1, [sp, #12]
	.loc	10 116 26 is_stmt 0             @ lvgl/src/lv_widgets/lv_page.c:116:26
	str	r0, [r1, #56]
.Ltmp23:
	.loc	10 119 8 is_stmt 1              @ lvgl/src/lv_widgets/lv_page.c:119:8
	ldr	r0, [sp, #20]
.Ltmp24:
	.loc	10 119 8 is_stmt 0              @ lvgl/src/lv_widgets/lv_page.c:119:8
	cmp	r0, #0
	bne	.LBB0_20
	b	.LBB0_19
.LBB0_19:
.Ltmp25:
	.loc	10 120 36 is_stmt 1             @ lvgl/src/lv_widgets/lv_page.c:120:36
	ldr	r0, [sp, #16]
	movs	r1, #0
	.loc	10 120 21 is_stmt 0             @ lvgl/src/lv_widgets/lv_page.c:120:21
	bl	lv_cont_create
	.loc	10 120 9                        @ lvgl/src/lv_widgets/lv_page.c:120:9
	ldr	r1, [sp, #12]
	.loc	10 120 19                       @ lvgl/src/lv_widgets/lv_page.c:120:19
	str	r0, [r1, #4]
	.loc	10 121 33 is_stmt 1             @ lvgl/src/lv_widgets/lv_page.c:121:33
	ldr	r0, [sp, #12]
	.loc	10 121 38 is_stmt 0             @ lvgl/src/lv_widgets/lv_page.c:121:38
	ldr	r0, [r0, #4]
	movs	r1, #1
	.loc	10 121 9                        @ lvgl/src/lv_widgets/lv_page.c:121:9
	str	r1, [sp]                        @ 4-byte Spill
	bl	lv_obj_set_focus_parent
	ldr	r1, [sp]                        @ 4-byte Reload
	.loc	10 122 25 is_stmt 1             @ lvgl/src/lv_widgets/lv_page.c:122:25
	ldr	r0, [sp, #12]
	.loc	10 122 30 is_stmt 0             @ lvgl/src/lv_widgets/lv_page.c:122:30
	ldr	r0, [r0, #4]
	.loc	10 122 9                        @ lvgl/src/lv_widgets/lv_page.c:122:9
	bl	lv_obj_set_drag
	ldr	r1, [sp]                        @ 4-byte Reload
	.loc	10 123 31 is_stmt 1             @ lvgl/src/lv_widgets/lv_page.c:123:31
	ldr	r0, [sp, #12]
	.loc	10 123 36 is_stmt 0             @ lvgl/src/lv_widgets/lv_page.c:123:36
	ldr	r0, [r0, #4]
	.loc	10 123 9                        @ lvgl/src/lv_widgets/lv_page.c:123:9
	bl	lv_obj_set_drag_throw
	.loc	10 124 28 is_stmt 1             @ lvgl/src/lv_widgets/lv_page.c:124:28
	ldr	r0, [sp, #12]
	.loc	10 124 33 is_stmt 0             @ lvgl/src/lv_widgets/lv_page.c:124:33
	ldr	r0, [r0, #4]
	movs	r1, #18
	.loc	10 124 9                        @ lvgl/src/lv_widgets/lv_page.c:124:9
	bl	lv_obj_add_protect
	.loc	10 125 25 is_stmt 1             @ lvgl/src/lv_widgets/lv_page.c:125:25
	ldr	r0, [sp, #12]
	.loc	10 125 30 is_stmt 0             @ lvgl/src/lv_widgets/lv_page.c:125:30
	ldr	r0, [r0, #4]
	movs	r1, #3
	.loc	10 125 9                        @ lvgl/src/lv_widgets/lv_page.c:125:9
	bl	lv_cont_set_fit
	.loc	10 126 29 is_stmt 1             @ lvgl/src/lv_widgets/lv_page.c:126:29
	ldr	r0, [sp, #12]
	.loc	10 126 34 is_stmt 0             @ lvgl/src/lv_widgets/lv_page.c:126:34
	ldr	r0, [r0, #4]
	.loc	10 126 9                        @ lvgl/src/lv_widgets/lv_page.c:126:9
	movw	r1, :lower16:scrl_def_event_cb
	movt	r1, :upper16:scrl_def_event_cb
	bl	lv_obj_set_event_cb
	.loc	10 128 30 is_stmt 1             @ lvgl/src/lv_widgets/lv_page.c:128:30
	ldr	r0, [sp, #12]
	.loc	10 128 35 is_stmt 0             @ lvgl/src/lv_widgets/lv_page.c:128:35
	ldr	r0, [r0, #4]
	.loc	10 128 9                        @ lvgl/src/lv_widgets/lv_page.c:128:9
	movw	r1, :lower16:lv_page_scrollable_signal
	movt	r1, :upper16:lv_page_scrollable_signal
	bl	lv_obj_set_signal_cb
	.loc	10 132 30 is_stmt 1             @ lvgl/src/lv_widgets/lv_page.c:132:30
	ldr	r0, [sp, #16]
	.loc	10 132 9 is_stmt 0              @ lvgl/src/lv_widgets/lv_page.c:132:9
	movw	r1, :lower16:lv_page_signal
	movt	r1, :upper16:lv_page_signal
	bl	lv_obj_set_signal_cb
	.loc	10 133 30 is_stmt 1             @ lvgl/src/lv_widgets/lv_page.c:133:30
	ldr	r0, [sp, #16]
	.loc	10 133 9 is_stmt 0              @ lvgl/src/lv_widgets/lv_page.c:133:9
	movw	r1, :lower16:lv_page_design
	movt	r1, :upper16:lv_page_design
	bl	lv_obj_set_design_cb
	.loc	10 135 36 is_stmt 1             @ lvgl/src/lv_widgets/lv_page.c:135:36
	ldr	r0, [sp, #16]
	.loc	10 135 42 is_stmt 0             @ lvgl/src/lv_widgets/lv_page.c:135:42
	ldr	r1, [sp, #12]
	.loc	10 135 55                       @ lvgl/src/lv_widgets/lv_page.c:135:55
	ldrb.w	r1, [r1, #32]
	ubfx	r1, r1, #2, #3
	.loc	10 135 9                        @ lvgl/src/lv_widgets/lv_page.c:135:9
	bl	lv_page_set_scrollbar_mode
	.loc	10 137 24 is_stmt 1             @ lvgl/src/lv_widgets/lv_page.c:137:24
	ldr	r0, [sp, #16]
	movs	r1, #27
	.loc	10 137 9 is_stmt 0              @ lvgl/src/lv_widgets/lv_page.c:137:9
	bl	lv_theme_apply
	.loc	10 139 5 is_stmt 1              @ lvgl/src/lv_widgets/lv_page.c:139:5
	b	.LBB0_21
.Ltmp26:
.LBB0_20:
	.loc	10 141 56                       @ lvgl/src/lv_widgets/lv_page.c:141:56
	ldr	r0, [sp, #20]
	.loc	10 141 36 is_stmt 0             @ lvgl/src/lv_widgets/lv_page.c:141:36
	bl	lv_obj_get_ext_attr
	.loc	10 141 25                       @ lvgl/src/lv_widgets/lv_page.c:141:25
	str	r0, [sp, #8]
	.loc	10 142 51 is_stmt 1             @ lvgl/src/lv_widgets/lv_page.c:142:51
	ldr	r0, [sp, #16]
	.loc	10 142 57 is_stmt 0             @ lvgl/src/lv_widgets/lv_page.c:142:57
	ldr	r1, [sp, #8]
	.loc	10 142 67                       @ lvgl/src/lv_widgets/lv_page.c:142:67
	ldr	r1, [r1, #4]
	.loc	10 142 36                       @ lvgl/src/lv_widgets/lv_page.c:142:36
	bl	lv_cont_create
	.loc	10 142 9                        @ lvgl/src/lv_widgets/lv_page.c:142:9
	ldr	r1, [sp, #12]
	.loc	10 142 34                       @ lvgl/src/lv_widgets/lv_page.c:142:34
	str	r0, [r1, #4]
	.loc	10 143 30 is_stmt 1             @ lvgl/src/lv_widgets/lv_page.c:143:30
	ldr	r0, [sp, #12]
	.loc	10 143 35 is_stmt 0             @ lvgl/src/lv_widgets/lv_page.c:143:35
	ldr	r0, [r0, #4]
	.loc	10 143 9                        @ lvgl/src/lv_widgets/lv_page.c:143:9
	movw	r1, :lower16:lv_page_scrollable_signal
	movt	r1, :upper16:lv_page_scrollable_signal
	bl	lv_obj_set_signal_cb
	.loc	10 145 29 is_stmt 1             @ lvgl/src/lv_widgets/lv_page.c:145:29
	ldr	r0, [sp, #12]
	.loc	10 145 34 is_stmt 0             @ lvgl/src/lv_widgets/lv_page.c:145:34
	adds	r0, #8
	.loc	10 145 50                       @ lvgl/src/lv_widgets/lv_page.c:145:50
	ldr	r1, [sp, #8]
	.loc	10 145 60                       @ lvgl/src/lv_widgets/lv_page.c:145:60
	adds	r1, #8
	.loc	10 145 9                        @ lvgl/src/lv_widgets/lv_page.c:145:9
	bl	lv_style_list_copy
	.loc	10 147 29 is_stmt 1             @ lvgl/src/lv_widgets/lv_page.c:147:29
	ldr	r0, [sp, #12]
	.loc	10 147 45 is_stmt 0             @ lvgl/src/lv_widgets/lv_page.c:147:45
	adds	r0, #40
	.loc	10 147 53                       @ lvgl/src/lv_widgets/lv_page.c:147:53
	ldr	r1, [sp, #8]
	.loc	10 147 74                       @ lvgl/src/lv_widgets/lv_page.c:147:74
	adds	r1, #40
	.loc	10 147 9                        @ lvgl/src/lv_widgets/lv_page.c:147:9
	bl	lv_style_list_copy
	.loc	10 152 30 is_stmt 1             @ lvgl/src/lv_widgets/lv_page.c:152:30
	ldr	r0, [sp, #16]
	.loc	10 152 9 is_stmt 0              @ lvgl/src/lv_widgets/lv_page.c:152:9
	movw	r1, :lower16:lv_page_signal
	movt	r1, :upper16:lv_page_signal
	bl	lv_obj_set_signal_cb
	.loc	10 153 30 is_stmt 1             @ lvgl/src/lv_widgets/lv_page.c:153:30
	ldr	r0, [sp, #16]
	.loc	10 153 9 is_stmt 0              @ lvgl/src/lv_widgets/lv_page.c:153:9
	movw	r1, :lower16:lv_page_design
	movt	r1, :upper16:lv_page_design
	bl	lv_obj_set_design_cb
	.loc	10 155 36 is_stmt 1             @ lvgl/src/lv_widgets/lv_page.c:155:36
	ldr	r0, [sp, #16]
	.loc	10 155 42 is_stmt 0             @ lvgl/src/lv_widgets/lv_page.c:155:42
	ldr	r1, [sp, #8]
	.loc	10 155 60                       @ lvgl/src/lv_widgets/lv_page.c:155:60
	ldrb.w	r1, [r1, #32]
	ubfx	r1, r1, #2, #3
	.loc	10 155 9                        @ lvgl/src/lv_widgets/lv_page.c:155:9
	bl	lv_page_set_scrollbar_mode
	b	.LBB0_21
.Ltmp27:
.LBB0_21:
	.loc	10 158 21 is_stmt 1             @ lvgl/src/lv_widgets/lv_page.c:158:21
	ldr	r0, [sp, #16]
	.loc	10 158 5 is_stmt 0              @ lvgl/src/lv_widgets/lv_page.c:158:5
	bl	scrlbar_refresh
	.loc	10 162 12 is_stmt 1             @ lvgl/src/lv_widgets/lv_page.c:162:12
	ldr	r0, [sp, #16]
	.loc	10 162 5 is_stmt 0              @ lvgl/src/lv_widgets/lv_page.c:162:5
	str	r0, [sp, #28]
	b	.LBB0_22
.LBB0_22:
	.loc	10 163 1 is_stmt 1              @ lvgl/src/lv_widgets/lv_page.c:163:1
	ldr	r0, [sp, #28]
	add	sp, #32
	pop	{r7, pc}
.Ltmp28:
.Lfunc_end0:
	.size	lv_page_create, .Lfunc_end0-lv_page_create
	.cfi_endproc
	.cantunwind
	.fnend
                                        @ -- End function
	.section	.text.lv_cont_set_fit,"ax",%progbits
	.p2align	3                               @ -- Begin function lv_cont_set_fit
	.type	lv_cont_set_fit,%function
	.code	16                              @ @lv_cont_set_fit
	.thumb_func
lv_cont_set_fit:
.Lfunc_begin1:
	.loc	12 169 0                        @ lvgl/src/lv_widgets/lv_cont.h:169:0
	.fnstart
	.cfi_startproc
@ %bb.0:
	.save	{r7, lr}
	push	{r7, lr}
	.cfi_def_cfa_offset 8
	.cfi_offset lr, -4
	.cfi_offset r7, -8
	.pad	#16
	sub	sp, #16
	.cfi_def_cfa_offset 24
                                        @ kill: def $r2 killed $r1
	str	r0, [sp, #12]
	strb.w	r1, [sp, #11]
.Ltmp29:
	.loc	12 170 22 prologue_end          @ lvgl/src/lv_widgets/lv_cont.h:170:22
	ldr	r0, [sp, #12]
	.loc	12 170 28 is_stmt 0             @ lvgl/src/lv_widgets/lv_cont.h:170:28
	ldrb.w	r3, [sp, #11]
	.loc	12 170 5                        @ lvgl/src/lv_widgets/lv_cont.h:170:5
	mov	r1, sp
	str	r3, [r1]
	mov	r1, r3
	mov	r2, r3
	bl	lv_cont_set_fit4
	.loc	12 171 1 is_stmt 1              @ lvgl/src/lv_widgets/lv_cont.h:171:1
	add	sp, #16
	pop	{r7, pc}
.Ltmp30:
.Lfunc_end1:
	.size	lv_cont_set_fit, .Lfunc_end1-lv_cont_set_fit
	.cfi_endproc
	.cantunwind
	.fnend
                                        @ -- End function
	.section	.text.scrl_def_event_cb,"ax",%progbits
	.p2align	3                               @ -- Begin function scrl_def_event_cb
	.type	scrl_def_event_cb,%function
	.code	16                              @ @scrl_def_event_cb
	.thumb_func
scrl_def_event_cb:
.Lfunc_begin2:
	.loc	10 1058 0                       @ lvgl/src/lv_widgets/lv_page.c:1058:0
	.fnstart
	.cfi_startproc
@ %bb.0:
	.save	{r7, lr}
	push	{r7, lr}
	.cfi_def_cfa_offset 8
	.cfi_offset lr, -4
	.cfi_offset r7, -8
	.pad	#24
	sub	sp, #24
	.cfi_def_cfa_offset 32
                                        @ kill: def $r2 killed $r1
	str	r0, [sp, #20]
	strb.w	r1, [sp, #19]
.Ltmp31:
	.loc	10 1059 41 prologue_end         @ lvgl/src/lv_widgets/lv_page.c:1059:41
	ldr	r0, [sp, #20]
	.loc	10 1059 23 is_stmt 0            @ lvgl/src/lv_widgets/lv_page.c:1059:23
	bl	lv_obj_get_parent
	.loc	10 1059 16                      @ lvgl/src/lv_widgets/lv_page.c:1059:16
	str	r0, [sp, #12]
.Ltmp32:
	.loc	10 1062 8 is_stmt 1             @ lvgl/src/lv_widgets/lv_page.c:1062:8
	ldrb.w	r0, [sp, #19]
	.loc	10 1062 34 is_stmt 0            @ lvgl/src/lv_widgets/lv_page.c:1062:34
	cbz	r0, .LBB2_11
	b	.LBB2_1
.LBB2_1:
	.loc	10 1062 37                      @ lvgl/src/lv_widgets/lv_page.c:1062:37
	ldrb.w	r0, [sp, #19]
	.loc	10 1062 64                      @ lvgl/src/lv_widgets/lv_page.c:1062:64
	cmp	r0, #1
	beq	.LBB2_11
	b	.LBB2_2
.LBB2_2:
	.loc	10 1062 67                      @ lvgl/src/lv_widgets/lv_page.c:1062:67
	ldrb.w	r0, [sp, #19]
	.loc	10 1062 96                      @ lvgl/src/lv_widgets/lv_page.c:1062:96
	cmp	r0, #2
	beq	.LBB2_11
	b	.LBB2_3
.LBB2_3:
	.loc	10 1063 8 is_stmt 1             @ lvgl/src/lv_widgets/lv_page.c:1063:8
	ldrb.w	r0, [sp, #19]
	.loc	10 1063 35 is_stmt 0            @ lvgl/src/lv_widgets/lv_page.c:1063:35
	cmp	r0, #7
	beq	.LBB2_11
	b	.LBB2_4
.LBB2_4:
	.loc	10 1063 38                      @ lvgl/src/lv_widgets/lv_page.c:1063:38
	ldrb.w	r0, [sp, #19]
	.loc	10 1063 70                      @ lvgl/src/lv_widgets/lv_page.c:1063:70
	cmp	r0, #3
	beq	.LBB2_11
	b	.LBB2_5
.LBB2_5:
	.loc	10 1063 73                      @ lvgl/src/lv_widgets/lv_page.c:1063:73
	ldrb.w	r0, [sp, #19]
	.loc	10 1063 99                      @ lvgl/src/lv_widgets/lv_page.c:1063:99
	cmp	r0, #6
	beq	.LBB2_11
	b	.LBB2_6
.LBB2_6:
	.loc	10 1064 8 is_stmt 1             @ lvgl/src/lv_widgets/lv_page.c:1064:8
	ldrb.w	r0, [sp, #19]
	.loc	10 1064 39 is_stmt 0            @ lvgl/src/lv_widgets/lv_page.c:1064:39
	cmp	r0, #4
	beq	.LBB2_11
	b	.LBB2_7
.LBB2_7:
	.loc	10 1064 42                      @ lvgl/src/lv_widgets/lv_page.c:1064:42
	ldrb.w	r0, [sp, #19]
	.loc	10 1064 80                      @ lvgl/src/lv_widgets/lv_page.c:1064:80
	cmp	r0, #5
	beq	.LBB2_11
	b	.LBB2_8
.LBB2_8:
	.loc	10 1065 8 is_stmt 1             @ lvgl/src/lv_widgets/lv_page.c:1065:8
	ldrb.w	r0, [sp, #19]
	.loc	10 1065 37 is_stmt 0            @ lvgl/src/lv_widgets/lv_page.c:1065:37
	cmp	r0, #8
	beq	.LBB2_11
	b	.LBB2_9
.LBB2_9:
	.loc	10 1065 40                      @ lvgl/src/lv_widgets/lv_page.c:1065:40
	ldrb.w	r0, [sp, #19]
	.loc	10 1065 67                      @ lvgl/src/lv_widgets/lv_page.c:1065:67
	cmp	r0, #9
	beq	.LBB2_11
	b	.LBB2_10
.LBB2_10:
	.loc	10 1065 70                      @ lvgl/src/lv_widgets/lv_page.c:1065:70
	ldrb.w	r0, [sp, #19]
.Ltmp33:
	.loc	10 1062 8 is_stmt 1             @ lvgl/src/lv_widgets/lv_page.c:1062:8
	cmp	r0, #10
	bne	.LBB2_12
	b	.LBB2_11
.LBB2_11:
.Ltmp34:
	.loc	10 1066 23                      @ lvgl/src/lv_widgets/lv_page.c:1066:23
	ldr	r0, [sp, #12]
	.loc	10 1066 29 is_stmt 0            @ lvgl/src/lv_widgets/lv_page.c:1066:29
	str	r0, [sp, #8]                    @ 4-byte Spill
	ldrb.w	r0, [sp, #19]
	.loc	10 1066 36                      @ lvgl/src/lv_widgets/lv_page.c:1066:36
	str	r0, [sp, #4]                    @ 4-byte Spill
	bl	lv_event_get_data
	ldr	r1, [sp, #4]                    @ 4-byte Reload
	mov	r2, r0
	.loc	10 1066 9                       @ lvgl/src/lv_widgets/lv_page.c:1066:9
	ldr	r0, [sp, #8]                    @ 4-byte Reload
	bl	lv_event_send
	.loc	10 1067 5 is_stmt 1             @ lvgl/src/lv_widgets/lv_page.c:1067:5
	b	.LBB2_12
.Ltmp35:
.LBB2_12:
	.loc	10 1069 1                       @ lvgl/src/lv_widgets/lv_page.c:1069:1
	add	sp, #24
	pop	{r7, pc}
.Ltmp36:
.Lfunc_end2:
	.size	scrl_def_event_cb, .Lfunc_end2-scrl_def_event_cb
	.cfi_endproc
	.cantunwind
	.fnend
                                        @ -- End function
	.section	.text.lv_page_scrollable_signal,"ax",%progbits
	.p2align	3                               @ -- Begin function lv_page_scrollable_signal
	.type	lv_page_scrollable_signal,%function
	.code	16                              @ @lv_page_scrollable_signal
	.thumb_func
lv_page_scrollable_signal:
.Lfunc_begin3:
	.loc	10 904 0                        @ lvgl/src/lv_widgets/lv_page.c:904:0
	.fnstart
	.cfi_startproc
@ %bb.0:
	.save	{r7, lr}
	push	{r7, lr}
	.cfi_def_cfa_offset 8
	.cfi_offset lr, -4
	.cfi_offset r7, -8
	.pad	#120
	sub	sp, #120
	.cfi_def_cfa_offset 128
                                        @ kill: def $r3 killed $r1
	str	r0, [sp, #112]
	strb.w	r1, [sp, #111]
	str	r2, [sp, #104]
.Ltmp37:
	.loc	10 906 8 prologue_end           @ lvgl/src/lv_widgets/lv_page.c:906:8
	ldrb.w	r0, [sp, #111]
.Ltmp38:
	.loc	10 906 8 is_stmt 0              @ lvgl/src/lv_widgets/lv_page.c:906:8
	cmp	r0, #8
	bne	.LBB3_2
	b	.LBB3_1
.LBB3_1:
.Ltmp39:
	.loc	10 907 16 is_stmt 1             @ lvgl/src/lv_widgets/lv_page.c:907:16
	movw	r0, :lower16:ancestor_signal
	movt	r0, :upper16:ancestor_signal
	ldr	r3, [r0]
	.loc	10 907 32 is_stmt 0             @ lvgl/src/lv_widgets/lv_page.c:907:32
	ldr	r0, [sp, #112]
	.loc	10 907 38                       @ lvgl/src/lv_widgets/lv_page.c:907:38
	ldrb.w	r1, [sp, #111]
	.loc	10 907 44                       @ lvgl/src/lv_widgets/lv_page.c:907:44
	ldr	r2, [sp, #104]
	.loc	10 907 16                       @ lvgl/src/lv_widgets/lv_page.c:907:16
	blx	r3
	.loc	10 907 9                        @ lvgl/src/lv_widgets/lv_page.c:907:9
	strb.w	r0, [sp, #119]
	b	.LBB3_67
.Ltmp40:
.LBB3_2:
	.loc	10 913 11 is_stmt 1             @ lvgl/src/lv_widgets/lv_page.c:913:11
	movw	r0, :lower16:ancestor_signal
	movt	r0, :upper16:ancestor_signal
	ldr	r3, [r0]
	.loc	10 913 27 is_stmt 0             @ lvgl/src/lv_widgets/lv_page.c:913:27
	ldr	r0, [sp, #112]
	.loc	10 913 33                       @ lvgl/src/lv_widgets/lv_page.c:913:33
	ldrb.w	r1, [sp, #111]
	.loc	10 913 39                       @ lvgl/src/lv_widgets/lv_page.c:913:39
	ldr	r2, [sp, #104]
	.loc	10 913 11                       @ lvgl/src/lv_widgets/lv_page.c:913:11
	blx	r3
	.loc	10 913 9                        @ lvgl/src/lv_widgets/lv_page.c:913:9
	strb.w	r0, [sp, #103]
.Ltmp41:
	.loc	10 915 8 is_stmt 1              @ lvgl/src/lv_widgets/lv_page.c:915:8
	ldrb.w	r0, [sp, #103]
.Ltmp42:
	.loc	10 915 8 is_stmt 0              @ lvgl/src/lv_widgets/lv_page.c:915:8
	cmp	r0, #1
	beq	.LBB3_4
	b	.LBB3_3
.LBB3_3:
.Ltmp43:
	.loc	10 915 33                       @ lvgl/src/lv_widgets/lv_page.c:915:33
	ldrb.w	r0, [sp, #103]
	.loc	10 915 26                       @ lvgl/src/lv_widgets/lv_page.c:915:26
	strb.w	r0, [sp, #119]
	b	.LBB3_67
.Ltmp44:
.LBB3_4:
	.loc	10 916 8 is_stmt 1              @ lvgl/src/lv_widgets/lv_page.c:916:8
	ldrb.w	r0, [sp, #111]
.Ltmp45:
	.loc	10 916 8 is_stmt 0              @ lvgl/src/lv_widgets/lv_page.c:916:8
	cmp	r0, #7
	bne	.LBB3_6
	b	.LBB3_5
.LBB3_5:
.Ltmp46:
	.loc	10 916 73                       @ lvgl/src/lv_widgets/lv_page.c:916:73
	ldr	r0, [sp, #104]
	.loc	10 916 43                       @ lvgl/src/lv_widgets/lv_page.c:916:43
	movw	r1, :lower16:.L.str.3
	movt	r1, :upper16:.L.str.3
	bl	lv_obj_handle_get_type_signal
	.loc	10 916 36                       @ lvgl/src/lv_widgets/lv_page.c:916:36
	strb.w	r0, [sp, #119]
	b	.LBB3_67
.Ltmp47:
.LBB3_6:
	.loc	10 918 55 is_stmt 1             @ lvgl/src/lv_widgets/lv_page.c:918:55
	ldr	r0, [sp, #112]
	.loc	10 918 37 is_stmt 0             @ lvgl/src/lv_widgets/lv_page.c:918:37
	bl	lv_obj_get_parent
	.loc	10 918 16                       @ lvgl/src/lv_widgets/lv_page.c:918:16
	str	r0, [sp, #96]
	.loc	10 919 57 is_stmt 1             @ lvgl/src/lv_widgets/lv_page.c:919:57
	ldr	r0, [sp, #96]
	.loc	10 919 37 is_stmt 0             @ lvgl/src/lv_widgets/lv_page.c:919:37
	bl	lv_obj_get_ext_attr
	.loc	10 919 21                       @ lvgl/src/lv_widgets/lv_page.c:919:21
	str	r0, [sp, #92]
.Ltmp48:
	.loc	10 921 8 is_stmt 1              @ lvgl/src/lv_widgets/lv_page.c:921:8
	ldrb.w	r0, [sp, #111]
.Ltmp49:
	.loc	10 921 8 is_stmt 0              @ lvgl/src/lv_widgets/lv_page.c:921:8
	cmp	r0, #2
	bne.w	.LBB3_33
	b	.LBB3_7
.LBB3_7:
.Ltmp50:
	.loc	10 922 52 is_stmt 1             @ lvgl/src/lv_widgets/lv_page.c:922:52
	ldr	r0, [sp, #96]
	.loc	10 922 34 is_stmt 0             @ lvgl/src/lv_widgets/lv_page.c:922:34
	bl	lv_obj_get_parent
	.loc	10 922 20                       @ lvgl/src/lv_widgets/lv_page.c:922:20
	str	r0, [sp, #88]
	.loc	10 925 30 is_stmt 1             @ lvgl/src/lv_widgets/lv_page.c:925:30
	bl	lv_indev_get_act
	.loc	10 925 22 is_stmt 0             @ lvgl/src/lv_widgets/lv_page.c:925:22
	str	r0, [sp, #84]
.Ltmp51:
	.loc	10 926 12 is_stmt 1             @ lvgl/src/lv_widgets/lv_page.c:926:12
	ldr	r0, [sp, #92]
	.loc	10 926 22 is_stmt 0             @ lvgl/src/lv_widgets/lv_page.c:926:22
	ldrb.w	r0, [r0, #60]
	.loc	10 926 35                       @ lvgl/src/lv_widgets/lv_page.c:926:35
	lsls	r0, r0, #31
	cmp	r0, #0
	beq	.LBB3_27
	b	.LBB3_8
.LBB3_8:
	.loc	10 926 38                       @ lvgl/src/lv_widgets/lv_page.c:926:38
	ldr	r0, [sp, #84]
.Ltmp52:
	.loc	10 926 12                       @ lvgl/src/lv_widgets/lv_page.c:926:12
	cmp	r0, #0
	beq	.LBB3_27
	b	.LBB3_9
.LBB3_9:
.Ltmp53:
	.loc	10 927 38 is_stmt 1             @ lvgl/src/lv_widgets/lv_page.c:927:38
	ldr	r0, [sp, #84]
	.loc	10 927 64 is_stmt 0             @ lvgl/src/lv_widgets/lv_page.c:927:64
	adds	r0, #44
	.loc	10 927 26                       @ lvgl/src/lv_widgets/lv_page.c:927:26
	str	r0, [sp, #80]
	.loc	10 928 80 is_stmt 1             @ lvgl/src/lv_widgets/lv_page.c:928:80
	ldr	r0, [sp, #88]
	.loc	10 928 62 is_stmt 0             @ lvgl/src/lv_widgets/lv_page.c:928:62
	bl	lv_obj_get_parent
	.loc	10 928 42                       @ lvgl/src/lv_widgets/lv_page.c:928:42
	bl	lv_obj_get_ext_attr
	.loc	10 928 29                       @ lvgl/src/lv_widgets/lv_page.c:928:29
	str	r0, [sp, #76]
.Ltmp54:
	.loc	10 929 16 is_stmt 1             @ lvgl/src/lv_widgets/lv_page.c:929:16
	ldr	r0, [sp, #76]
	.loc	10 929 28 is_stmt 0             @ lvgl/src/lv_widgets/lv_page.c:929:28
	ldr	r0, [r0, #56]
.Ltmp55:
	.loc	10 929 16                       @ lvgl/src/lv_widgets/lv_page.c:929:16
	cmp	r0, #0
	bne	.LBB3_26
	b	.LBB3_10
.LBB3_10:
.Ltmp56:
	.loc	10 932 42 is_stmt 1             @ lvgl/src/lv_widgets/lv_page.c:932:42
	ldr	r0, [sp, #84]
	.loc	10 932 21 is_stmt 0             @ lvgl/src/lv_widgets/lv_page.c:932:21
	bl	lv_indev_is_dragging
	.loc	10 932 58                       @ lvgl/src/lv_widgets/lv_page.c:932:58
	cbz	r0, .LBB3_12
	b	.LBB3_11
.LBB3_11:
	.loc	10 932 61                       @ lvgl/src/lv_widgets/lv_page.c:932:61
	ldr	r0, [sp, #92]
	.loc	10 932 71                       @ lvgl/src/lv_widgets/lv_page.c:932:71
	ldr	r0, [r0, #56]
	.loc	10 932 88                       @ lvgl/src/lv_widgets/lv_page.c:932:88
	cmp	r0, #0
	beq	.LBB3_25
	b	.LBB3_12
.LBB3_12:
	.loc	10 932 92                       @ lvgl/src/lv_widgets/lv_page.c:932:92
	ldr	r0, [sp, #80]
	.loc	10 932 102                      @ lvgl/src/lv_widgets/lv_page.c:932:102
	ldrsh.w	r0, [r0, #2]
	.loc	10 932 104                      @ lvgl/src/lv_widgets/lv_page.c:932:104
	cbnz	r0, .LBB3_14
	b	.LBB3_13
.LBB3_13:
	.loc	10 932 107                      @ lvgl/src/lv_widgets/lv_page.c:932:107
	ldr	r0, [sp, #80]
	.loc	10 932 117                      @ lvgl/src/lv_widgets/lv_page.c:932:117
	ldrsh.w	r0, [r0]
.Ltmp57:
	.loc	10 932 20                       @ lvgl/src/lv_widgets/lv_page.c:932:20
	cmp	r0, #0
	beq	.LBB3_25
	b	.LBB3_14
.LBB3_14:
.Ltmp58:
	.loc	10 934 25 is_stmt 1             @ lvgl/src/lv_widgets/lv_page.c:934:25
	ldr	r0, [sp, #80]
	.loc	10 934 35 is_stmt 0             @ lvgl/src/lv_widgets/lv_page.c:934:35
	ldrsh.w	r0, [r0, #2]
	.loc	10 934 41                       @ lvgl/src/lv_widgets/lv_page.c:934:41
	cmp	r0, #1
	blt	.LBB3_16
	b	.LBB3_15
.LBB3_15:
	.loc	10 934 60                       @ lvgl/src/lv_widgets/lv_page.c:934:60
	ldr	r0, [sp, #96]
	movs	r1, #2
	.loc	10 934 44                       @ lvgl/src/lv_widgets/lv_page.c:934:44
	bl	lv_page_on_edge
	.loc	10 934 85                       @ lvgl/src/lv_widgets/lv_page.c:934:85
	cbnz	r0, .LBB3_18
	b	.LBB3_16
.LBB3_16:
	.loc	10 935 25 is_stmt 1             @ lvgl/src/lv_widgets/lv_page.c:935:25
	ldr	r0, [sp, #80]
	.loc	10 935 35 is_stmt 0             @ lvgl/src/lv_widgets/lv_page.c:935:35
	ldrsh.w	r0, [r0, #2]
	.loc	10 935 41                       @ lvgl/src/lv_widgets/lv_page.c:935:41
	cmp.w	r0, #-1
	bgt	.LBB3_19
	b	.LBB3_17
.LBB3_17:
	.loc	10 935 60                       @ lvgl/src/lv_widgets/lv_page.c:935:60
	ldr	r0, [sp, #96]
	movs	r1, #8
	.loc	10 935 44                       @ lvgl/src/lv_widgets/lv_page.c:935:44
	bl	lv_page_on_edge
.Ltmp59:
	.loc	10 934 24 is_stmt 1             @ lvgl/src/lv_widgets/lv_page.c:934:24
	cbz	r0, .LBB3_19
	b	.LBB3_18
.LBB3_18:
.Ltmp60:
	.loc	10 936 48                       @ lvgl/src/lv_widgets/lv_page.c:936:48
	ldr	r0, [sp, #96]
	movs	r1, #1
	.loc	10 936 25 is_stmt 0             @ lvgl/src/lv_widgets/lv_page.c:936:25
	str	r1, [sp, #40]                   @ 4-byte Spill
	bl	lv_obj_set_drag_parent
	ldr	r1, [sp, #40]                   @ 4-byte Reload
	.loc	10 937 48 is_stmt 1             @ lvgl/src/lv_widgets/lv_page.c:937:48
	ldr	r0, [sp, #112]
	.loc	10 937 25 is_stmt 0             @ lvgl/src/lv_widgets/lv_page.c:937:25
	bl	lv_obj_set_drag_parent
	.loc	10 938 55 is_stmt 1             @ lvgl/src/lv_widgets/lv_page.c:938:55
	ldr	r0, [sp, #96]
	.loc	10 938 25 is_stmt 0             @ lvgl/src/lv_widgets/lv_page.c:938:25
	ldr	r1, [sp, #76]
	.loc	10 938 53                       @ lvgl/src/lv_widgets/lv_page.c:938:53
	str	r0, [r1, #56]
	.loc	10 939 21 is_stmt 1             @ lvgl/src/lv_widgets/lv_page.c:939:21
	b	.LBB3_19
.Ltmp61:
.LBB3_19:
	.loc	10 941 25                       @ lvgl/src/lv_widgets/lv_page.c:941:25
	ldr	r0, [sp, #80]
	.loc	10 941 35 is_stmt 0             @ lvgl/src/lv_widgets/lv_page.c:941:35
	ldrsh.w	r0, [r0]
	.loc	10 941 41                       @ lvgl/src/lv_widgets/lv_page.c:941:41
	cmp	r0, #1
	blt	.LBB3_21
	b	.LBB3_20
.LBB3_20:
	.loc	10 941 60                       @ lvgl/src/lv_widgets/lv_page.c:941:60
	ldr	r0, [sp, #96]
	movs	r1, #1
	.loc	10 941 44                       @ lvgl/src/lv_widgets/lv_page.c:941:44
	bl	lv_page_on_edge
	.loc	10 941 86                       @ lvgl/src/lv_widgets/lv_page.c:941:86
	cbnz	r0, .LBB3_23
	b	.LBB3_21
.LBB3_21:
	.loc	10 942 25 is_stmt 1             @ lvgl/src/lv_widgets/lv_page.c:942:25
	ldr	r0, [sp, #80]
	.loc	10 942 35 is_stmt 0             @ lvgl/src/lv_widgets/lv_page.c:942:35
	ldrsh.w	r0, [r0]
	.loc	10 942 41                       @ lvgl/src/lv_widgets/lv_page.c:942:41
	cmp.w	r0, #-1
	bgt	.LBB3_24
	b	.LBB3_22
.LBB3_22:
	.loc	10 942 60                       @ lvgl/src/lv_widgets/lv_page.c:942:60
	ldr	r0, [sp, #96]
	movs	r1, #4
	.loc	10 942 44                       @ lvgl/src/lv_widgets/lv_page.c:942:44
	bl	lv_page_on_edge
.Ltmp62:
	.loc	10 941 24 is_stmt 1             @ lvgl/src/lv_widgets/lv_page.c:941:24
	cbz	r0, .LBB3_24
	b	.LBB3_23
.LBB3_23:
.Ltmp63:
	.loc	10 943 48                       @ lvgl/src/lv_widgets/lv_page.c:943:48
	ldr	r0, [sp, #96]
	movs	r1, #1
	.loc	10 943 25 is_stmt 0             @ lvgl/src/lv_widgets/lv_page.c:943:25
	str	r1, [sp, #36]                   @ 4-byte Spill
	bl	lv_obj_set_drag_parent
	ldr	r1, [sp, #36]                   @ 4-byte Reload
	.loc	10 944 48 is_stmt 1             @ lvgl/src/lv_widgets/lv_page.c:944:48
	ldr	r0, [sp, #112]
	.loc	10 944 25 is_stmt 0             @ lvgl/src/lv_widgets/lv_page.c:944:25
	bl	lv_obj_set_drag_parent
	.loc	10 945 55 is_stmt 1             @ lvgl/src/lv_widgets/lv_page.c:945:55
	ldr	r0, [sp, #96]
	.loc	10 945 25 is_stmt 0             @ lvgl/src/lv_widgets/lv_page.c:945:25
	ldr	r1, [sp, #76]
	.loc	10 945 53                       @ lvgl/src/lv_widgets/lv_page.c:945:53
	str	r0, [r1, #56]
	.loc	10 946 21 is_stmt 1             @ lvgl/src/lv_widgets/lv_page.c:946:21
	b	.LBB3_24
.Ltmp64:
.LBB3_24:
	.loc	10 947 17                       @ lvgl/src/lv_widgets/lv_page.c:947:17
	b	.LBB3_25
.Ltmp65:
.LBB3_25:
	.loc	10 948 13                       @ lvgl/src/lv_widgets/lv_page.c:948:13
	b	.LBB3_26
.Ltmp66:
.LBB3_26:
	.loc	10 949 9                        @ lvgl/src/lv_widgets/lv_page.c:949:9
	b	.LBB3_27
.Ltmp67:
.LBB3_27:
	.loc	10 951 25                       @ lvgl/src/lv_widgets/lv_page.c:951:25
	ldr	r0, [sp, #96]
	.loc	10 951 9 is_stmt 0              @ lvgl/src/lv_widgets/lv_page.c:951:9
	bl	scrl_reposition
	.loc	10 953 56 is_stmt 1             @ lvgl/src/lv_widgets/lv_page.c:953:56
	ldr	r0, [sp, #96]
	.loc	10 953 36 is_stmt 0             @ lvgl/src/lv_widgets/lv_page.c:953:36
	bl	lv_obj_get_ext_attr
	.loc	10 953 25                       @ lvgl/src/lv_widgets/lv_page.c:953:25
	str	r0, [sp, #72]
.Ltmp68:
	.loc	10 956 13 is_stmt 1             @ lvgl/src/lv_widgets/lv_page.c:956:13
	ldr	r0, [sp, #72]
	.loc	10 956 26 is_stmt 0             @ lvgl/src/lv_widgets/lv_page.c:956:26
	ldrb.w	r0, [r0, #32]
	.loc	10 956 35                       @ lvgl/src/lv_widgets/lv_page.c:956:35
	lsls	r0, r0, #31
	cbnz	r0, .LBB3_31
	b	.LBB3_28
.LBB3_28:
	.loc	10 956 38                       @ lvgl/src/lv_widgets/lv_page.c:956:38
	ldr	r0, [sp, #72]
	.loc	10 956 51                       @ lvgl/src/lv_widgets/lv_page.c:956:51
	ldrb.w	r0, [r0, #32]
	lsrs	r0, r0, #1
	.loc	10 956 61                       @ lvgl/src/lv_widgets/lv_page.c:956:61
	lsls	r0, r0, #31
	cbnz	r0, .LBB3_31
	b	.LBB3_29
.LBB3_29:
	.loc	10 957 30 is_stmt 1             @ lvgl/src/lv_widgets/lv_page.c:957:30
	ldr	r0, [sp, #112]
	.loc	10 957 13 is_stmt 0             @ lvgl/src/lv_widgets/lv_page.c:957:13
	bl	lv_obj_get_width
	.loc	10 957 57                       @ lvgl/src/lv_widgets/lv_page.c:957:57
	str	r0, [sp, #32]                   @ 4-byte Spill
	ldr	r0, [sp, #104]
	.loc	10 957 39                       @ lvgl/src/lv_widgets/lv_page.c:957:39
	bl	lv_area_get_width
	mov	r1, r0
	.loc	10 957 64                       @ lvgl/src/lv_widgets/lv_page.c:957:64
	ldr	r0, [sp, #32]                   @ 4-byte Reload
	cmp	r0, r1
	bne	.LBB3_31
	b	.LBB3_30
.LBB3_30:
	.loc	10 957 85                       @ lvgl/src/lv_widgets/lv_page.c:957:85
	ldr	r0, [sp, #112]
	.loc	10 957 67                       @ lvgl/src/lv_widgets/lv_page.c:957:67
	bl	lv_obj_get_height
	.loc	10 957 113                      @ lvgl/src/lv_widgets/lv_page.c:957:113
	str	r0, [sp, #28]                   @ 4-byte Spill
	ldr	r0, [sp, #104]
	.loc	10 957 94                       @ lvgl/src/lv_widgets/lv_page.c:957:94
	bl	lv_area_get_height
	mov	r1, r0
.Ltmp69:
	.loc	10 956 12 is_stmt 1             @ lvgl/src/lv_widgets/lv_page.c:956:12
	ldr	r0, [sp, #28]                   @ 4-byte Reload
	cmp	r0, r1
	beq	.LBB3_32
	b	.LBB3_31
.LBB3_31:
.Ltmp70:
	.loc	10 958 29                       @ lvgl/src/lv_widgets/lv_page.c:958:29
	ldr	r0, [sp, #96]
	.loc	10 958 13 is_stmt 0             @ lvgl/src/lv_widgets/lv_page.c:958:13
	bl	scrlbar_refresh
	.loc	10 959 9 is_stmt 1              @ lvgl/src/lv_widgets/lv_page.c:959:9
	b	.LBB3_32
.Ltmp71:
.LBB3_32:
	.loc	10 960 5                        @ lvgl/src/lv_widgets/lv_page.c:960:5
	b	.LBB3_66
.Ltmp72:
.LBB3_33:
	.loc	10 961 13                       @ lvgl/src/lv_widgets/lv_page.c:961:13
	ldrb.w	r0, [sp, #111]
.Ltmp73:
	.loc	10 961 13 is_stmt 0             @ lvgl/src/lv_widgets/lv_page.c:961:13
	cmp	r0, #4
	bne	.LBB3_35
	b	.LBB3_34
.LBB3_34:
.Ltmp74:
	.loc	10 962 25 is_stmt 1             @ lvgl/src/lv_widgets/lv_page.c:962:25
	ldr	r0, [sp, #96]
	.loc	10 962 9 is_stmt 0              @ lvgl/src/lv_widgets/lv_page.c:962:9
	bl	scrl_reposition
	.loc	10 963 25 is_stmt 1             @ lvgl/src/lv_widgets/lv_page.c:963:25
	ldr	r0, [sp, #96]
	.loc	10 963 9 is_stmt 0              @ lvgl/src/lv_widgets/lv_page.c:963:9
	bl	scrlbar_refresh
	.loc	10 964 5 is_stmt 1              @ lvgl/src/lv_widgets/lv_page.c:964:5
	b	.LBB3_65
.Ltmp75:
.LBB3_35:
	.loc	10 965 13                       @ lvgl/src/lv_widgets/lv_page.c:965:13
	ldrb.w	r0, [sp, #111]
.Ltmp76:
	.loc	10 965 13 is_stmt 0             @ lvgl/src/lv_widgets/lv_page.c:965:13
	cmp	r0, #17
	bne	.LBB3_39
	b	.LBB3_36
.LBB3_36:
.Ltmp77:
	.loc	10 966 12 is_stmt 1             @ lvgl/src/lv_widgets/lv_page.c:966:12
	ldr	r0, [sp, #92]
	.loc	10 966 30 is_stmt 0             @ lvgl/src/lv_widgets/lv_page.c:966:30
	ldrb.w	r0, [r0, #32]
	ubfx	r0, r0, #2, #3
.Ltmp78:
	.loc	10 966 12                       @ lvgl/src/lv_widgets/lv_page.c:966:12
	cmp	r0, #2
	bne	.LBB3_38
	b	.LBB3_37
.LBB3_37:
.Ltmp79:
	.loc	10 967 29 is_stmt 1             @ lvgl/src/lv_widgets/lv_page.c:967:29
	ldr	r0, [sp, #96]
	.loc	10 967 13 is_stmt 0             @ lvgl/src/lv_widgets/lv_page.c:967:13
	bl	scrlbar_refresh
	.loc	10 968 9 is_stmt 1              @ lvgl/src/lv_widgets/lv_page.c:968:9
	b	.LBB3_38
.Ltmp80:
.LBB3_38:
	.loc	10 969 5                        @ lvgl/src/lv_widgets/lv_page.c:969:5
	b	.LBB3_64
.Ltmp81:
.LBB3_39:
	.loc	10 970 13                       @ lvgl/src/lv_widgets/lv_page.c:970:13
	ldrb.w	r0, [sp, #111]
.Ltmp82:
	.loc	10 970 13 is_stmt 0             @ lvgl/src/lv_widgets/lv_page.c:970:13
	cmp	r0, #19
	bne.w	.LBB3_60
	b	.LBB3_40
.LBB3_40:
.Ltmp83:
	.loc	10 972 12 is_stmt 1             @ lvgl/src/lv_widgets/lv_page.c:972:12
	ldr	r0, [sp, #92]
	.loc	10 972 22 is_stmt 0             @ lvgl/src/lv_widgets/lv_page.c:972:22
	ldr	r0, [r0, #56]
.Ltmp84:
	.loc	10 972 12                       @ lvgl/src/lv_widgets/lv_page.c:972:12
	cmp	r0, #0
	beq.w	.LBB3_53
	b	.LBB3_41
.LBB3_41:
.Ltmp85:
	.loc	10 973 40 is_stmt 1             @ lvgl/src/lv_widgets/lv_page.c:973:40
	ldr	r0, [sp, #92]
	.loc	10 973 50 is_stmt 0             @ lvgl/src/lv_widgets/lv_page.c:973:50
	ldr	r0, [r0, #56]
	.loc	10 973 24                       @ lvgl/src/lv_widgets/lv_page.c:973:24
	str	r0, [sp, #68]
	.loc	10 974 74 is_stmt 1             @ lvgl/src/lv_widgets/lv_page.c:974:74
	ldr	r0, [sp, #68]
	.loc	10 974 54 is_stmt 0             @ lvgl/src/lv_widgets/lv_page.c:974:54
	bl	lv_obj_get_ext_attr
	.loc	10 974 29                       @ lvgl/src/lv_widgets/lv_page.c:974:29
	str	r0, [sp, #64]
	.loc	10 975 13 is_stmt 1             @ lvgl/src/lv_widgets/lv_page.c:975:13
	ldr	r0, [sp, #92]
	movs	r1, #0
	.loc	10 975 39 is_stmt 0             @ lvgl/src/lv_widgets/lv_page.c:975:39
	str	r1, [sp, #24]                   @ 4-byte Spill
	str	r1, [r0, #56]
	.loc	10 976 36 is_stmt 1             @ lvgl/src/lv_widgets/lv_page.c:976:36
	ldr	r0, [sp, #68]
	.loc	10 976 13 is_stmt 0             @ lvgl/src/lv_widgets/lv_page.c:976:13
	bl	lv_obj_set_drag_parent
	.loc	10 977 59 is_stmt 1             @ lvgl/src/lv_widgets/lv_page.c:977:59
	ldr	r0, [sp, #68]
	.loc	10 977 36 is_stmt 0             @ lvgl/src/lv_widgets/lv_page.c:977:36
	bl	lv_page_get_scrollable
	ldr	r1, [sp, #24]                   @ 4-byte Reload
	.loc	10 977 13                       @ lvgl/src/lv_widgets/lv_page.c:977:13
	bl	lv_obj_set_drag_parent
.Ltmp86:
	.loc	10 980 16 is_stmt 1             @ lvgl/src/lv_widgets/lv_page.c:980:16
	ldr	r0, [sp, #64]
	.loc	10 980 43 is_stmt 0             @ lvgl/src/lv_widgets/lv_page.c:980:43
	ldrb.w	r0, [r0, #32]
	ubfx	r0, r0, #2, #3
.Ltmp87:
	.loc	10 980 16                       @ lvgl/src/lv_widgets/lv_page.c:980:16
	cmp	r0, #2
	bne	.LBB3_47
	b	.LBB3_42
.LBB3_42:
.Ltmp88:
	.loc	10 982 20 is_stmt 1             @ lvgl/src/lv_widgets/lv_page.c:982:20
	ldr	r0, [sp, #64]
	.loc	10 982 47 is_stmt 0             @ lvgl/src/lv_widgets/lv_page.c:982:47
	ldrb.w	r0, [r0, #32]
.Ltmp89:
	.loc	10 982 20                       @ lvgl/src/lv_widgets/lv_page.c:982:20
	lsls	r0, r0, #31
	cbz	r0, .LBB3_44
	b	.LBB3_43
.LBB3_43:
.Ltmp90:
	.loc	10 983 49 is_stmt 1             @ lvgl/src/lv_widgets/lv_page.c:983:49
	ldr	r0, [sp, #64]
	.loc	10 983 76 is_stmt 0             @ lvgl/src/lv_widgets/lv_page.c:983:76
	add.w	r1, r0, #16
	add	r0, sp, #56
	.loc	10 983 21                       @ lvgl/src/lv_widgets/lv_page.c:983:21
	str	r0, [sp, #20]                   @ 4-byte Spill
	bl	lv_area_copy
	ldr	r1, [sp, #20]                   @ 4-byte Reload
	.loc	10 984 39 is_stmt 1             @ lvgl/src/lv_widgets/lv_page.c:984:39
	ldr	r0, [sp, #68]
	ldrh	r2, [r0, #16]
	.loc	10 984 36 is_stmt 0             @ lvgl/src/lv_widgets/lv_page.c:984:36
	ldrh.w	r0, [sp, #56]
	add	r0, r2
	strh.w	r0, [sp, #56]
	.loc	10 985 39 is_stmt 1             @ lvgl/src/lv_widgets/lv_page.c:985:39
	ldr	r0, [sp, #68]
	ldrh	r2, [r0, #18]
	.loc	10 985 36 is_stmt 0             @ lvgl/src/lv_widgets/lv_page.c:985:36
	ldrh.w	r0, [sp, #58]
	add	r0, r2
	strh.w	r0, [sp, #58]
	.loc	10 986 39 is_stmt 1             @ lvgl/src/lv_widgets/lv_page.c:986:39
	ldr	r0, [sp, #68]
	ldrh	r2, [r0, #16]
	.loc	10 986 36 is_stmt 0             @ lvgl/src/lv_widgets/lv_page.c:986:36
	ldrh.w	r0, [sp, #60]
	add	r0, r2
	strh.w	r0, [sp, #60]
	.loc	10 987 39 is_stmt 1             @ lvgl/src/lv_widgets/lv_page.c:987:39
	ldr	r0, [sp, #68]
	ldrh	r2, [r0, #18]
	.loc	10 987 36 is_stmt 0             @ lvgl/src/lv_widgets/lv_page.c:987:36
	ldrh.w	r0, [sp, #62]
	add	r0, r2
	strh.w	r0, [sp, #62]
	.loc	10 988 44 is_stmt 1             @ lvgl/src/lv_widgets/lv_page.c:988:44
	ldr	r0, [sp, #68]
	.loc	10 988 21 is_stmt 0             @ lvgl/src/lv_widgets/lv_page.c:988:21
	bl	lv_obj_invalidate_area
	.loc	10 989 21 is_stmt 1             @ lvgl/src/lv_widgets/lv_page.c:989:21
	ldr	r1, [sp, #64]
	.loc	10 989 57 is_stmt 0             @ lvgl/src/lv_widgets/lv_page.c:989:57
	ldrb.w	r0, [r1, #32]
	and	r0, r0, #254
	strb.w	r0, [r1, #32]
	.loc	10 990 17 is_stmt 1             @ lvgl/src/lv_widgets/lv_page.c:990:17
	b	.LBB3_44
.Ltmp91:
.LBB3_44:
	.loc	10 991 20                       @ lvgl/src/lv_widgets/lv_page.c:991:20
	ldr	r0, [sp, #64]
	.loc	10 991 47 is_stmt 0             @ lvgl/src/lv_widgets/lv_page.c:991:47
	ldrb.w	r0, [r0, #32]
	lsrs	r0, r0, #1
.Ltmp92:
	.loc	10 991 20                       @ lvgl/src/lv_widgets/lv_page.c:991:20
	lsls	r0, r0, #31
	cbz	r0, .LBB3_46
	b	.LBB3_45
.LBB3_45:
.Ltmp93:
	.loc	10 992 49 is_stmt 1             @ lvgl/src/lv_widgets/lv_page.c:992:49
	ldr	r0, [sp, #64]
	.loc	10 992 76 is_stmt 0             @ lvgl/src/lv_widgets/lv_page.c:992:76
	add.w	r1, r0, #24
	add	r0, sp, #56
	.loc	10 992 21                       @ lvgl/src/lv_widgets/lv_page.c:992:21
	str	r0, [sp, #16]                   @ 4-byte Spill
	bl	lv_area_copy
	ldr	r1, [sp, #16]                   @ 4-byte Reload
	.loc	10 993 39 is_stmt 1             @ lvgl/src/lv_widgets/lv_page.c:993:39
	ldr	r0, [sp, #68]
	ldrh	r2, [r0, #16]
	.loc	10 993 36 is_stmt 0             @ lvgl/src/lv_widgets/lv_page.c:993:36
	ldrh.w	r0, [sp, #56]
	add	r0, r2
	strh.w	r0, [sp, #56]
	.loc	10 994 39 is_stmt 1             @ lvgl/src/lv_widgets/lv_page.c:994:39
	ldr	r0, [sp, #68]
	ldrh	r2, [r0, #18]
	.loc	10 994 36 is_stmt 0             @ lvgl/src/lv_widgets/lv_page.c:994:36
	ldrh.w	r0, [sp, #58]
	add	r0, r2
	strh.w	r0, [sp, #58]
	.loc	10 995 39 is_stmt 1             @ lvgl/src/lv_widgets/lv_page.c:995:39
	ldr	r0, [sp, #68]
	ldrh	r2, [r0, #16]
	.loc	10 995 36 is_stmt 0             @ lvgl/src/lv_widgets/lv_page.c:995:36
	ldrh.w	r0, [sp, #60]
	add	r0, r2
	strh.w	r0, [sp, #60]
	.loc	10 996 39 is_stmt 1             @ lvgl/src/lv_widgets/lv_page.c:996:39
	ldr	r0, [sp, #68]
	ldrh	r2, [r0, #18]
	.loc	10 996 36 is_stmt 0             @ lvgl/src/lv_widgets/lv_page.c:996:36
	ldrh.w	r0, [sp, #62]
	add	r0, r2
	strh.w	r0, [sp, #62]
	.loc	10 997 44 is_stmt 1             @ lvgl/src/lv_widgets/lv_page.c:997:44
	ldr	r0, [sp, #68]
	.loc	10 997 21 is_stmt 0             @ lvgl/src/lv_widgets/lv_page.c:997:21
	bl	lv_obj_invalidate_area
	.loc	10 998 21 is_stmt 1             @ lvgl/src/lv_widgets/lv_page.c:998:21
	ldr	r1, [sp, #64]
	.loc	10 998 57 is_stmt 0             @ lvgl/src/lv_widgets/lv_page.c:998:57
	ldrb.w	r0, [r1, #32]
	and	r0, r0, #253
	strb.w	r0, [r1, #32]
	.loc	10 999 17 is_stmt 1             @ lvgl/src/lv_widgets/lv_page.c:999:17
	b	.LBB3_46
.Ltmp94:
.LBB3_46:
	.loc	10 1000 13                      @ lvgl/src/lv_widgets/lv_page.c:1000:13
	b	.LBB3_47
.Ltmp95:
.LBB3_47:
	.loc	10 1003 64                      @ lvgl/src/lv_widgets/lv_page.c:1003:64
	ldr	r0, [sp, #68]
	.loc	10 1003 44 is_stmt 0            @ lvgl/src/lv_widgets/lv_page.c:1003:44
	bl	lv_obj_get_ext_attr
	.loc	10 1003 29                      @ lvgl/src/lv_widgets/lv_page.c:1003:29
	str	r0, [sp, #52]
	.loc	10 1004 13 is_stmt 1            @ lvgl/src/lv_widgets/lv_page.c:1004:13
	b	.LBB3_48
.LBB3_48:                               @ =>This Inner Loop Header: Depth=1
	.loc	10 1004 19 is_stmt 0            @ lvgl/src/lv_widgets/lv_page.c:1004:19
	ldr	r0, [sp, #52]
	.loc	10 1004 33                      @ lvgl/src/lv_widgets/lv_page.c:1004:33
	ldr	r0, [r0, #56]
	.loc	10 1004 13                      @ lvgl/src/lv_widgets/lv_page.c:1004:13
	cbz	r0, .LBB3_52
	b	.LBB3_49
.LBB3_49:                               @   in Loop: Header=BB3_48 Depth=1
.Ltmp96:
	.loc	10 1005 33 is_stmt 1            @ lvgl/src/lv_widgets/lv_page.c:1005:33
	ldr	r0, [sp, #52]
	.loc	10 1005 47 is_stmt 0            @ lvgl/src/lv_widgets/lv_page.c:1005:47
	ldr	r0, [r0, #56]
	.loc	10 1005 31                      @ lvgl/src/lv_widgets/lv_page.c:1005:31
	str	r0, [sp, #68]
	.loc	10 1006 17 is_stmt 1            @ lvgl/src/lv_widgets/lv_page.c:1006:17
	ldr	r0, [sp, #52]
	movs	r1, #0
	.loc	10 1006 47 is_stmt 0            @ lvgl/src/lv_widgets/lv_page.c:1006:47
	str	r1, [sp, #12]                   @ 4-byte Spill
	str	r1, [r0, #56]
	.loc	10 1007 40 is_stmt 1            @ lvgl/src/lv_widgets/lv_page.c:1007:40
	ldr	r0, [sp, #68]
	.loc	10 1007 17 is_stmt 0            @ lvgl/src/lv_widgets/lv_page.c:1007:17
	bl	lv_obj_set_drag_parent
	.loc	10 1008 63 is_stmt 1            @ lvgl/src/lv_widgets/lv_page.c:1008:63
	ldr	r0, [sp, #68]
	.loc	10 1008 40 is_stmt 0            @ lvgl/src/lv_widgets/lv_page.c:1008:40
	bl	lv_page_get_scrollable
	ldr	r1, [sp, #12]                   @ 4-byte Reload
	.loc	10 1008 17                      @ lvgl/src/lv_widgets/lv_page.c:1008:17
	bl	lv_obj_set_drag_parent
.Ltmp97:
	.loc	10 1011 20 is_stmt 1            @ lvgl/src/lv_widgets/lv_page.c:1011:20
	ldr	r0, [sp, #64]
	.loc	10 1011 47 is_stmt 0            @ lvgl/src/lv_widgets/lv_page.c:1011:47
	ldrb.w	r0, [r0, #32]
	ubfx	r0, r0, #2, #3
.Ltmp98:
	.loc	10 1011 20                      @ lvgl/src/lv_widgets/lv_page.c:1011:20
	cmp	r0, #2
	bne	.LBB3_51
	b	.LBB3_50
.LBB3_50:                               @   in Loop: Header=BB3_48 Depth=1
.Ltmp99:
	.loc	10 1012 21 is_stmt 1            @ lvgl/src/lv_widgets/lv_page.c:1012:21
	ldr	r1, [sp, #64]
	.loc	10 1012 57 is_stmt 0            @ lvgl/src/lv_widgets/lv_page.c:1012:57
	ldrb.w	r0, [r1, #32]
	and	r0, r0, #254
	strb.w	r0, [r1, #32]
	.loc	10 1013 21 is_stmt 1            @ lvgl/src/lv_widgets/lv_page.c:1013:21
	ldr	r1, [sp, #64]
	.loc	10 1013 57 is_stmt 0            @ lvgl/src/lv_widgets/lv_page.c:1013:57
	ldrb.w	r0, [r1, #32]
	and	r0, r0, #253
	strb.w	r0, [r1, #32]
	.loc	10 1014 39 is_stmt 1            @ lvgl/src/lv_widgets/lv_page.c:1014:39
	ldr	r0, [sp, #68]
	.loc	10 1014 21 is_stmt 0            @ lvgl/src/lv_widgets/lv_page.c:1014:21
	bl	lv_obj_invalidate
	.loc	10 1015 17 is_stmt 1            @ lvgl/src/lv_widgets/lv_page.c:1015:17
	b	.LBB3_51
.Ltmp100:
.LBB3_51:                               @   in Loop: Header=BB3_48 Depth=1
	.loc	10 1016 52                      @ lvgl/src/lv_widgets/lv_page.c:1016:52
	ldr	r0, [sp, #68]
	.loc	10 1016 32 is_stmt 0            @ lvgl/src/lv_widgets/lv_page.c:1016:32
	bl	lv_obj_get_ext_attr
	.loc	10 1016 30                      @ lvgl/src/lv_widgets/lv_page.c:1016:30
	str	r0, [sp, #52]
.Ltmp101:
	.loc	10 1004 13 is_stmt 1            @ lvgl/src/lv_widgets/lv_page.c:1004:13
	b	.LBB3_48
.LBB3_52:
	.loc	10 1018 9                       @ lvgl/src/lv_widgets/lv_page.c:1018:9
	b	.LBB3_53
.Ltmp102:
.LBB3_53:
	.loc	10 1021 12                      @ lvgl/src/lv_widgets/lv_page.c:1021:12
	ldr	r0, [sp, #92]
	.loc	10 1021 30 is_stmt 0            @ lvgl/src/lv_widgets/lv_page.c:1021:30
	ldrb.w	r0, [r0, #32]
	ubfx	r0, r0, #2, #3
.Ltmp103:
	.loc	10 1021 12                      @ lvgl/src/lv_widgets/lv_page.c:1021:12
	cmp	r0, #2
	bne	.LBB3_59
	b	.LBB3_54
.LBB3_54:
.Ltmp104:
	.loc	10 1023 16 is_stmt 1            @ lvgl/src/lv_widgets/lv_page.c:1023:16
	ldr	r0, [sp, #92]
	.loc	10 1023 34 is_stmt 0            @ lvgl/src/lv_widgets/lv_page.c:1023:34
	ldrb.w	r0, [r0, #32]
.Ltmp105:
	.loc	10 1023 16                      @ lvgl/src/lv_widgets/lv_page.c:1023:16
	lsls	r0, r0, #31
	cbz	r0, .LBB3_56
	b	.LBB3_55
.LBB3_55:
.Ltmp106:
	.loc	10 1024 45 is_stmt 1            @ lvgl/src/lv_widgets/lv_page.c:1024:45
	ldr	r0, [sp, #92]
	.loc	10 1024 63 is_stmt 0            @ lvgl/src/lv_widgets/lv_page.c:1024:63
	add.w	r1, r0, #16
	add	r0, sp, #44
	.loc	10 1024 17                      @ lvgl/src/lv_widgets/lv_page.c:1024:17
	str	r0, [sp, #8]                    @ 4-byte Spill
	bl	lv_area_copy
	ldr	r1, [sp, #8]                    @ 4-byte Reload
	.loc	10 1025 35 is_stmt 1            @ lvgl/src/lv_widgets/lv_page.c:1025:35
	ldr	r0, [sp, #96]
	ldrh	r2, [r0, #16]
	.loc	10 1025 32 is_stmt 0            @ lvgl/src/lv_widgets/lv_page.c:1025:32
	ldrh.w	r0, [sp, #44]
	add	r0, r2
	strh.w	r0, [sp, #44]
	.loc	10 1026 35 is_stmt 1            @ lvgl/src/lv_widgets/lv_page.c:1026:35
	ldr	r0, [sp, #96]
	ldrh	r2, [r0, #18]
	.loc	10 1026 32 is_stmt 0            @ lvgl/src/lv_widgets/lv_page.c:1026:32
	ldrh.w	r0, [sp, #46]
	add	r0, r2
	strh.w	r0, [sp, #46]
	.loc	10 1027 35 is_stmt 1            @ lvgl/src/lv_widgets/lv_page.c:1027:35
	ldr	r0, [sp, #96]
	ldrh	r2, [r0, #16]
	.loc	10 1027 32 is_stmt 0            @ lvgl/src/lv_widgets/lv_page.c:1027:32
	ldrh.w	r0, [sp, #48]
	add	r0, r2
	strh.w	r0, [sp, #48]
	.loc	10 1028 35 is_stmt 1            @ lvgl/src/lv_widgets/lv_page.c:1028:35
	ldr	r0, [sp, #96]
	ldrh	r2, [r0, #18]
	.loc	10 1028 32 is_stmt 0            @ lvgl/src/lv_widgets/lv_page.c:1028:32
	ldrh.w	r0, [sp, #50]
	add	r0, r2
	strh.w	r0, [sp, #50]
	.loc	10 1029 40 is_stmt 1            @ lvgl/src/lv_widgets/lv_page.c:1029:40
	ldr	r0, [sp, #96]
	.loc	10 1029 17 is_stmt 0            @ lvgl/src/lv_widgets/lv_page.c:1029:17
	bl	lv_obj_invalidate_area
	.loc	10 1030 17 is_stmt 1            @ lvgl/src/lv_widgets/lv_page.c:1030:17
	ldr	r1, [sp, #92]
	.loc	10 1030 44 is_stmt 0            @ lvgl/src/lv_widgets/lv_page.c:1030:44
	ldrb.w	r0, [r1, #32]
	and	r0, r0, #254
	strb.w	r0, [r1, #32]
	.loc	10 1031 13 is_stmt 1            @ lvgl/src/lv_widgets/lv_page.c:1031:13
	b	.LBB3_56
.Ltmp107:
.LBB3_56:
	.loc	10 1032 16                      @ lvgl/src/lv_widgets/lv_page.c:1032:16
	ldr	r0, [sp, #92]
	.loc	10 1032 34 is_stmt 0            @ lvgl/src/lv_widgets/lv_page.c:1032:34
	ldrb.w	r0, [r0, #32]
	lsrs	r0, r0, #1
.Ltmp108:
	.loc	10 1032 16                      @ lvgl/src/lv_widgets/lv_page.c:1032:16
	lsls	r0, r0, #31
	cbz	r0, .LBB3_58
	b	.LBB3_57
.LBB3_57:
.Ltmp109:
	.loc	10 1033 45 is_stmt 1            @ lvgl/src/lv_widgets/lv_page.c:1033:45
	ldr	r0, [sp, #92]
	.loc	10 1033 63 is_stmt 0            @ lvgl/src/lv_widgets/lv_page.c:1033:63
	add.w	r1, r0, #24
	add	r0, sp, #44
	.loc	10 1033 17                      @ lvgl/src/lv_widgets/lv_page.c:1033:17
	str	r0, [sp, #4]                    @ 4-byte Spill
	bl	lv_area_copy
	ldr	r1, [sp, #4]                    @ 4-byte Reload
	.loc	10 1034 35 is_stmt 1            @ lvgl/src/lv_widgets/lv_page.c:1034:35
	ldr	r0, [sp, #96]
	ldrh	r2, [r0, #16]
	.loc	10 1034 32 is_stmt 0            @ lvgl/src/lv_widgets/lv_page.c:1034:32
	ldrh.w	r0, [sp, #44]
	add	r0, r2
	strh.w	r0, [sp, #44]
	.loc	10 1035 35 is_stmt 1            @ lvgl/src/lv_widgets/lv_page.c:1035:35
	ldr	r0, [sp, #96]
	ldrh	r2, [r0, #18]
	.loc	10 1035 32 is_stmt 0            @ lvgl/src/lv_widgets/lv_page.c:1035:32
	ldrh.w	r0, [sp, #46]
	add	r0, r2
	strh.w	r0, [sp, #46]
	.loc	10 1036 35 is_stmt 1            @ lvgl/src/lv_widgets/lv_page.c:1036:35
	ldr	r0, [sp, #96]
	ldrh	r2, [r0, #16]
	.loc	10 1036 32 is_stmt 0            @ lvgl/src/lv_widgets/lv_page.c:1036:32
	ldrh.w	r0, [sp, #48]
	add	r0, r2
	strh.w	r0, [sp, #48]
	.loc	10 1037 35 is_stmt 1            @ lvgl/src/lv_widgets/lv_page.c:1037:35
	ldr	r0, [sp, #96]
	ldrh	r2, [r0, #18]
	.loc	10 1037 32 is_stmt 0            @ lvgl/src/lv_widgets/lv_page.c:1037:32
	ldrh.w	r0, [sp, #50]
	add	r0, r2
	strh.w	r0, [sp, #50]
	.loc	10 1038 40 is_stmt 1            @ lvgl/src/lv_widgets/lv_page.c:1038:40
	ldr	r0, [sp, #96]
	.loc	10 1038 17 is_stmt 0            @ lvgl/src/lv_widgets/lv_page.c:1038:17
	bl	lv_obj_invalidate_area
	.loc	10 1039 17 is_stmt 1            @ lvgl/src/lv_widgets/lv_page.c:1039:17
	ldr	r1, [sp, #92]
	.loc	10 1039 44 is_stmt 0            @ lvgl/src/lv_widgets/lv_page.c:1039:44
	ldrb.w	r0, [r1, #32]
	and	r0, r0, #253
	strb.w	r0, [r1, #32]
	.loc	10 1040 13 is_stmt 1            @ lvgl/src/lv_widgets/lv_page.c:1040:13
	b	.LBB3_58
.Ltmp110:
.LBB3_58:
	.loc	10 1041 9                       @ lvgl/src/lv_widgets/lv_page.c:1041:9
	b	.LBB3_59
.Ltmp111:
.LBB3_59:
	.loc	10 1042 5                       @ lvgl/src/lv_widgets/lv_page.c:1042:5
	b	.LBB3_63
.Ltmp112:
.LBB3_60:
	.loc	10 1043 13                      @ lvgl/src/lv_widgets/lv_page.c:1043:13
	ldrb.w	r0, [sp, #111]
.Ltmp113:
	.loc	10 1043 13 is_stmt 0            @ lvgl/src/lv_widgets/lv_page.c:1043:13
	cbnz	r0, .LBB3_62
	b	.LBB3_61
.LBB3_61:
.Ltmp114:
	.loc	10 1044 9 is_stmt 1             @ lvgl/src/lv_widgets/lv_page.c:1044:9
	ldr	r1, [sp, #92]
	movs	r0, #0
	.loc	10 1044 24 is_stmt 0            @ lvgl/src/lv_widgets/lv_page.c:1044:24
	str	r0, [r1, #4]
	.loc	10 1046 5 is_stmt 1             @ lvgl/src/lv_widgets/lv_page.c:1046:5
	b	.LBB3_62
.Ltmp115:
.LBB3_62:
	.loc	10 0 5 is_stmt 0                @ lvgl/src/lv_widgets/lv_page.c:0:5
	b	.LBB3_63
.LBB3_63:
	b	.LBB3_64
.LBB3_64:
	b	.LBB3_65
.LBB3_65:
	b	.LBB3_66
.LBB3_66:
	.loc	10 1047 12 is_stmt 1            @ lvgl/src/lv_widgets/lv_page.c:1047:12
	ldrb.w	r0, [sp, #103]
	.loc	10 1047 5 is_stmt 0             @ lvgl/src/lv_widgets/lv_page.c:1047:5
	strb.w	r0, [sp, #119]
	b	.LBB3_67
.LBB3_67:
	.loc	10 1048 1 is_stmt 1             @ lvgl/src/lv_widgets/lv_page.c:1048:1
	ldrb.w	r0, [sp, #119]
	add	sp, #120
	pop	{r7, pc}
.Ltmp116:
.Lfunc_end3:
	.size	lv_page_scrollable_signal, .Lfunc_end3-lv_page_scrollable_signal
	.cfi_endproc
	.cantunwind
	.fnend
                                        @ -- End function
	.section	.text.lv_page_signal,"ax",%progbits
	.p2align	3                               @ -- Begin function lv_page_signal
	.type	lv_page_signal,%function
	.code	16                              @ @lv_page_signal
	.thumb_func
lv_page_signal:
.Lfunc_begin4:
	.loc	10 752 0                        @ lvgl/src/lv_widgets/lv_page.c:752:0
	.fnstart
	.cfi_startproc
@ %bb.0:
	.save	{r7, lr}
	push	{r7, lr}
	.cfi_def_cfa_offset 8
	.cfi_offset lr, -4
	.cfi_offset r7, -8
	.pad	#120
	sub	sp, #120
	.cfi_def_cfa_offset 128
                                        @ kill: def $r3 killed $r1
	str	r0, [sp, #112]
	strb.w	r1, [sp, #111]
	str	r2, [sp, #104]
.Ltmp117:
	.loc	10 754 8 prologue_end           @ lvgl/src/lv_widgets/lv_page.c:754:8
	ldrb.w	r0, [sp, #111]
.Ltmp118:
	.loc	10 754 8 is_stmt 0              @ lvgl/src/lv_widgets/lv_page.c:754:8
	cmp	r0, #8
	bne	.LBB4_4
	b	.LBB4_1
.LBB4_1:
.Ltmp119:
	.loc	10 755 38 is_stmt 1             @ lvgl/src/lv_widgets/lv_page.c:755:38
	ldr	r0, [sp, #104]
	.loc	10 755 31 is_stmt 0             @ lvgl/src/lv_widgets/lv_page.c:755:31
	str	r0, [sp, #96]
	.loc	10 756 42 is_stmt 1             @ lvgl/src/lv_widgets/lv_page.c:756:42
	ldr	r0, [sp, #112]
	.loc	10 756 48 is_stmt 0             @ lvgl/src/lv_widgets/lv_page.c:756:48
	ldr	r1, [sp, #96]
	.loc	10 756 54                       @ lvgl/src/lv_widgets/lv_page.c:756:54
	ldrb	r1, [r1]
	.loc	10 756 24                       @ lvgl/src/lv_widgets/lv_page.c:756:24
	bl	lv_page_get_style
	.loc	10 756 9                        @ lvgl/src/lv_widgets/lv_page.c:756:9
	ldr	r1, [sp, #96]
	.loc	10 756 22                       @ lvgl/src/lv_widgets/lv_page.c:756:22
	str	r0, [r1, #4]
.Ltmp120:
	.loc	10 757 12 is_stmt 1             @ lvgl/src/lv_widgets/lv_page.c:757:12
	ldr	r0, [sp, #96]
	.loc	10 757 18 is_stmt 0             @ lvgl/src/lv_widgets/lv_page.c:757:18
	ldr	r0, [r0, #4]
.Ltmp121:
	.loc	10 757 12                       @ lvgl/src/lv_widgets/lv_page.c:757:12
	cbz	r0, .LBB4_3
	b	.LBB4_2
.LBB4_2:
	.loc	10 0 12                         @ lvgl/src/lv_widgets/lv_page.c:0:12
	movs	r0, #1
.Ltmp122:
	.loc	10 757 34                       @ lvgl/src/lv_widgets/lv_page.c:757:34
	strb.w	r0, [sp, #119]
	b	.LBB4_89
.LBB4_3:
	.loc	10 758 21 is_stmt 1             @ lvgl/src/lv_widgets/lv_page.c:758:21
	movw	r0, :lower16:ancestor_signal
	movt	r0, :upper16:ancestor_signal
	ldr	r3, [r0]
	.loc	10 758 37 is_stmt 0             @ lvgl/src/lv_widgets/lv_page.c:758:37
	ldr	r0, [sp, #112]
	.loc	10 758 43                       @ lvgl/src/lv_widgets/lv_page.c:758:43
	ldrb.w	r1, [sp, #111]
	.loc	10 758 49                       @ lvgl/src/lv_widgets/lv_page.c:758:49
	ldr	r2, [sp, #104]
	.loc	10 758 21                       @ lvgl/src/lv_widgets/lv_page.c:758:21
	blx	r3
	.loc	10 758 14                       @ lvgl/src/lv_widgets/lv_page.c:758:14
	strb.w	r0, [sp, #119]
	b	.LBB4_89
.Ltmp123:
.LBB4_4:
	.loc	10 760 13 is_stmt 1             @ lvgl/src/lv_widgets/lv_page.c:760:13
	ldrb.w	r0, [sp, #111]
.Ltmp124:
	.loc	10 760 13 is_stmt 0             @ lvgl/src/lv_widgets/lv_page.c:760:13
	cmp	r0, #9
	bne	.LBB4_9
	b	.LBB4_5
.LBB4_5:
.Ltmp125:
	.loc	10 761 38 is_stmt 1             @ lvgl/src/lv_widgets/lv_page.c:761:38
	ldr	r0, [sp, #104]
	.loc	10 761 31 is_stmt 0             @ lvgl/src/lv_widgets/lv_page.c:761:31
	str	r0, [sp, #92]
.Ltmp126:
	.loc	10 762 12 is_stmt 1             @ lvgl/src/lv_widgets/lv_page.c:762:12
	ldr	r0, [sp, #92]
	.loc	10 762 18 is_stmt 0             @ lvgl/src/lv_widgets/lv_page.c:762:18
	ldrb	r0, [r0]
.Ltmp127:
	.loc	10 762 12                       @ lvgl/src/lv_widgets/lv_page.c:762:12
	cmp	r0, #64
	bne	.LBB4_7
	b	.LBB4_6
.LBB4_6:
.Ltmp128:
	.loc	10 762 106                      @ lvgl/src/lv_widgets/lv_page.c:762:106
	ldr	r0, [sp, #112]
	.loc	10 762 83                       @ lvgl/src/lv_widgets/lv_page.c:762:83
	bl	lv_page_get_scrollable
	movs	r1, #0
	.loc	10 762 66                       @ lvgl/src/lv_widgets/lv_page.c:762:66
	bl	lv_obj_get_state
	.loc	10 762 51                       @ lvgl/src/lv_widgets/lv_page.c:762:51
	ldr	r1, [sp, #92]
	.loc	10 762 64                       @ lvgl/src/lv_widgets/lv_page.c:762:64
	strb	r0, [r1, #1]
	.loc	10 762 51                       @ lvgl/src/lv_widgets/lv_page.c:762:51
	b	.LBB4_8
.LBB4_7:
	.loc	10 764 46 is_stmt 1             @ lvgl/src/lv_widgets/lv_page.c:764:46
	ldr	r0, [sp, #112]
	.loc	10 764 52 is_stmt 0             @ lvgl/src/lv_widgets/lv_page.c:764:52
	ldr	r1, [sp, #92]
	.loc	10 764 58                       @ lvgl/src/lv_widgets/lv_page.c:764:58
	ldrb	r1, [r1]
	.loc	10 764 29                       @ lvgl/src/lv_widgets/lv_page.c:764:29
	bl	lv_obj_get_state
	.loc	10 764 14                       @ lvgl/src/lv_widgets/lv_page.c:764:14
	ldr	r1, [sp, #92]
	.loc	10 764 27                       @ lvgl/src/lv_widgets/lv_page.c:764:27
	strb	r0, [r1, #1]
	b	.LBB4_8
.Ltmp129:
.LBB4_8:
	.loc	10 0 27                         @ lvgl/src/lv_widgets/lv_page.c:0:27
	movs	r0, #1
	.loc	10 765 9 is_stmt 1              @ lvgl/src/lv_widgets/lv_page.c:765:9
	strb.w	r0, [sp, #119]
	b	.LBB4_89
.Ltmp130:
.LBB4_9:
	.loc	10 0 9 is_stmt 0                @ lvgl/src/lv_widgets/lv_page.c:0:9
	b	.LBB4_10
.LBB4_10:
	.loc	10 769 11 is_stmt 1             @ lvgl/src/lv_widgets/lv_page.c:769:11
	movw	r0, :lower16:ancestor_signal
	movt	r0, :upper16:ancestor_signal
	ldr	r3, [r0]
	.loc	10 769 27 is_stmt 0             @ lvgl/src/lv_widgets/lv_page.c:769:27
	ldr	r0, [sp, #112]
	.loc	10 769 33                       @ lvgl/src/lv_widgets/lv_page.c:769:33
	ldrb.w	r1, [sp, #111]
	.loc	10 769 39                       @ lvgl/src/lv_widgets/lv_page.c:769:39
	ldr	r2, [sp, #104]
	.loc	10 769 11                       @ lvgl/src/lv_widgets/lv_page.c:769:11
	blx	r3
	.loc	10 769 9                        @ lvgl/src/lv_widgets/lv_page.c:769:9
	strb.w	r0, [sp, #103]
.Ltmp131:
	.loc	10 770 8 is_stmt 1              @ lvgl/src/lv_widgets/lv_page.c:770:8
	ldrb.w	r0, [sp, #103]
.Ltmp132:
	.loc	10 770 8 is_stmt 0              @ lvgl/src/lv_widgets/lv_page.c:770:8
	cmp	r0, #1
	beq	.LBB4_12
	b	.LBB4_11
.LBB4_11:
.Ltmp133:
	.loc	10 770 33                       @ lvgl/src/lv_widgets/lv_page.c:770:33
	ldrb.w	r0, [sp, #103]
	.loc	10 770 26                       @ lvgl/src/lv_widgets/lv_page.c:770:26
	strb.w	r0, [sp, #119]
	b	.LBB4_89
.Ltmp134:
.LBB4_12:
	.loc	10 771 8 is_stmt 1              @ lvgl/src/lv_widgets/lv_page.c:771:8
	ldrb.w	r0, [sp, #111]
.Ltmp135:
	.loc	10 771 8 is_stmt 0              @ lvgl/src/lv_widgets/lv_page.c:771:8
	cmp	r0, #7
	bne	.LBB4_14
	b	.LBB4_13
.LBB4_13:
.Ltmp136:
	.loc	10 771 73                       @ lvgl/src/lv_widgets/lv_page.c:771:73
	ldr	r0, [sp, #104]
	.loc	10 771 43                       @ lvgl/src/lv_widgets/lv_page.c:771:43
	movw	r1, :lower16:.L.str.2
	movt	r1, :upper16:.L.str.2
	bl	lv_obj_handle_get_type_signal
	.loc	10 771 36                       @ lvgl/src/lv_widgets/lv_page.c:771:36
	strb.w	r0, [sp, #119]
	b	.LBB4_89
.Ltmp137:
.LBB4_14:
	.loc	10 773 47 is_stmt 1             @ lvgl/src/lv_widgets/lv_page.c:773:47
	ldr	r0, [sp, #112]
	.loc	10 773 27 is_stmt 0             @ lvgl/src/lv_widgets/lv_page.c:773:27
	bl	lv_obj_get_ext_attr
	.loc	10 773 21                       @ lvgl/src/lv_widgets/lv_page.c:773:21
	str	r0, [sp, #88]
.Ltmp138:
	.loc	10 774 8 is_stmt 1              @ lvgl/src/lv_widgets/lv_page.c:774:8
	ldrb.w	r0, [sp, #111]
.Ltmp139:
	.loc	10 774 8 is_stmt 0              @ lvgl/src/lv_widgets/lv_page.c:774:8
	cbnz	r0, .LBB4_20
	b	.LBB4_15
.LBB4_15:
.Ltmp140:
	.loc	10 776 12 is_stmt 1             @ lvgl/src/lv_widgets/lv_page.c:776:12
	ldr	r0, [sp, #88]
	.loc	10 776 17 is_stmt 0             @ lvgl/src/lv_widgets/lv_page.c:776:17
	ldrb.w	r0, [r0, #60]
.Ltmp141:
	.loc	10 776 12                       @ lvgl/src/lv_widgets/lv_page.c:776:12
	lsls	r0, r0, #31
	cbz	r0, .LBB4_19
	b	.LBB4_16
.LBB4_16:
.Ltmp142:
	.loc	10 777 74 is_stmt 1             @ lvgl/src/lv_widgets/lv_page.c:777:74
	ldr	r0, [sp, #112]
	.loc	10 777 56 is_stmt 0             @ lvgl/src/lv_widgets/lv_page.c:777:56
	bl	lv_obj_get_parent
	.loc	10 777 38                       @ lvgl/src/lv_widgets/lv_page.c:777:38
	bl	lv_obj_get_parent
	.loc	10 777 24                       @ lvgl/src/lv_widgets/lv_page.c:777:24
	str	r0, [sp, #84]
	.loc	10 778 62 is_stmt 1             @ lvgl/src/lv_widgets/lv_page.c:778:62
	ldr	r0, [sp, #84]
	.loc	10 778 42 is_stmt 0             @ lvgl/src/lv_widgets/lv_page.c:778:42
	bl	lv_obj_get_ext_attr
	.loc	10 778 29                       @ lvgl/src/lv_widgets/lv_page.c:778:29
	str	r0, [sp, #80]
.Ltmp143:
	.loc	10 779 16 is_stmt 1             @ lvgl/src/lv_widgets/lv_page.c:779:16
	ldr	r0, [sp, #80]
	.loc	10 779 28 is_stmt 0             @ lvgl/src/lv_widgets/lv_page.c:779:28
	ldr	r0, [r0, #56]
	.loc	10 779 47                       @ lvgl/src/lv_widgets/lv_page.c:779:47
	ldr	r1, [sp, #112]
.Ltmp144:
	.loc	10 779 16                       @ lvgl/src/lv_widgets/lv_page.c:779:16
	cmp	r0, r1
	bne	.LBB4_18
	b	.LBB4_17
.LBB4_17:
.Ltmp145:
	.loc	10 780 17 is_stmt 1             @ lvgl/src/lv_widgets/lv_page.c:780:17
	ldr	r1, [sp, #80]
	movs	r0, #0
	.loc	10 780 45 is_stmt 0             @ lvgl/src/lv_widgets/lv_page.c:780:45
	str	r0, [r1, #56]
	.loc	10 781 13 is_stmt 1             @ lvgl/src/lv_widgets/lv_page.c:781:13
	b	.LBB4_18
.Ltmp146:
.LBB4_18:
	.loc	10 782 9                        @ lvgl/src/lv_widgets/lv_page.c:782:9
	b	.LBB4_19
.Ltmp147:
.LBB4_19:
	.loc	10 784 33                       @ lvgl/src/lv_widgets/lv_page.c:784:33
	ldr	r0, [sp, #112]
	movs	r1, #1
	.loc	10 784 9 is_stmt 0              @ lvgl/src/lv_widgets/lv_page.c:784:9
	bl	lv_obj_clean_style_list
	.loc	10 786 33 is_stmt 1             @ lvgl/src/lv_widgets/lv_page.c:786:33
	ldr	r0, [sp, #112]
	movs	r1, #2
	.loc	10 786 9 is_stmt 0              @ lvgl/src/lv_widgets/lv_page.c:786:9
	bl	lv_obj_clean_style_list
	.loc	10 788 5 is_stmt 1              @ lvgl/src/lv_widgets/lv_page.c:788:5
	b	.LBB4_88
.Ltmp148:
.LBB4_20:
	.loc	10 790 13                       @ lvgl/src/lv_widgets/lv_page.c:790:13
	ldrb.w	r0, [sp, #111]
.Ltmp149:
	.loc	10 790 13 is_stmt 0             @ lvgl/src/lv_widgets/lv_page.c:790:13
	cmp	r0, #1
	bne.w	.LBB4_45
	b	.LBB4_21
.LBB4_21:
.Ltmp150:
	.loc	10 792 12 is_stmt 1             @ lvgl/src/lv_widgets/lv_page.c:792:12
	ldr	r0, [sp, #88]
	.loc	10 792 17 is_stmt 0             @ lvgl/src/lv_widgets/lv_page.c:792:17
	ldr	r0, [r0, #4]
.Ltmp151:
	.loc	10 792 12                       @ lvgl/src/lv_widgets/lv_page.c:792:12
	cbnz	r0, .LBB4_23
	b	.LBB4_22
.LBB4_22:
	.loc	10 0 12                         @ lvgl/src/lv_widgets/lv_page.c:0:12
	movs	r0, #1
.Ltmp152:
	.loc	10 792 31                       @ lvgl/src/lv_widgets/lv_page.c:792:31
	strb.w	r0, [sp, #119]
	b	.LBB4_89
.Ltmp153:
.LBB4_23:
	.loc	10 794 62 is_stmt 1             @ lvgl/src/lv_widgets/lv_page.c:794:62
	ldr	r0, [sp, #112]
	.loc	10 794 36 is_stmt 0             @ lvgl/src/lv_widgets/lv_page.c:794:36
	bl	lv_page_get_scrl_fit_left
	.loc	10 794 18                       @ lvgl/src/lv_widgets/lv_page.c:794:18
	strb.w	r0, [sp, #75]
	.loc	10 795 64 is_stmt 1             @ lvgl/src/lv_widgets/lv_page.c:795:64
	ldr	r0, [sp, #112]
	.loc	10 795 37 is_stmt 0             @ lvgl/src/lv_widgets/lv_page.c:795:37
	bl	lv_page_get_scrl_fit_right
	.loc	10 795 18                       @ lvgl/src/lv_widgets/lv_page.c:795:18
	strb.w	r0, [sp, #74]
	.loc	10 796 61 is_stmt 1             @ lvgl/src/lv_widgets/lv_page.c:796:61
	ldr	r0, [sp, #112]
	.loc	10 796 36 is_stmt 0             @ lvgl/src/lv_widgets/lv_page.c:796:36
	bl	lv_page_get_scrl_fit_top
	.loc	10 796 18                       @ lvgl/src/lv_widgets/lv_page.c:796:18
	strb.w	r0, [sp, #73]
	.loc	10 797 54 is_stmt 1             @ lvgl/src/lv_widgets/lv_page.c:797:54
	ldr	r0, [sp, #112]
	.loc	10 797 34 is_stmt 0             @ lvgl/src/lv_widgets/lv_page.c:797:34
	bl	lv_obj_get_base_dir
	.loc	10 797 23                       @ lvgl/src/lv_widgets/lv_page.c:797:23
	strb.w	r0, [sp, #72]
	.loc	10 799 62 is_stmt 1             @ lvgl/src/lv_widgets/lv_page.c:799:62
	ldr	r0, [sp, #88]
	.loc	10 799 67 is_stmt 0             @ lvgl/src/lv_widgets/lv_page.c:799:67
	ldr	r0, [r0, #4]
	movs	r1, #0
	.loc	10 799 36                       @ lvgl/src/lv_widgets/lv_page.c:799:36
	str	r1, [sp, #44]                   @ 4-byte Spill
	bl	lv_obj_get_style_pad_left
	ldr	r1, [sp, #44]                   @ 4-byte Reload
	.loc	10 799 24                       @ lvgl/src/lv_widgets/lv_page.c:799:24
	strh.w	r0, [sp, #70]
	.loc	10 800 64 is_stmt 1             @ lvgl/src/lv_widgets/lv_page.c:800:64
	ldr	r0, [sp, #88]
	.loc	10 800 69 is_stmt 0             @ lvgl/src/lv_widgets/lv_page.c:800:69
	ldr	r0, [r0, #4]
	.loc	10 800 37                       @ lvgl/src/lv_widgets/lv_page.c:800:37
	bl	lv_obj_get_style_pad_right
	ldr	r1, [sp, #44]                   @ 4-byte Reload
	.loc	10 800 24                       @ lvgl/src/lv_widgets/lv_page.c:800:24
	strh.w	r0, [sp, #68]
	.loc	10 801 60 is_stmt 1             @ lvgl/src/lv_widgets/lv_page.c:801:60
	ldr	r0, [sp, #88]
	.loc	10 801 65 is_stmt 0             @ lvgl/src/lv_widgets/lv_page.c:801:65
	ldr	r0, [r0, #4]
	.loc	10 801 35                       @ lvgl/src/lv_widgets/lv_page.c:801:35
	bl	lv_obj_get_style_pad_top
	ldr	r1, [sp, #44]                   @ 4-byte Reload
	.loc	10 801 24                       @ lvgl/src/lv_widgets/lv_page.c:801:24
	strh.w	r0, [sp, #66]
	.loc	10 803 34 is_stmt 1             @ lvgl/src/lv_widgets/lv_page.c:803:34
	ldr	r0, [sp, #112]
	.loc	10 803 17 is_stmt 0             @ lvgl/src/lv_widgets/lv_page.c:803:17
	bl	lv_obj_get_child
	.loc	10 803 15                       @ lvgl/src/lv_widgets/lv_page.c:803:15
	str	r0, [sp, #76]
	.loc	10 804 9 is_stmt 1              @ lvgl/src/lv_widgets/lv_page.c:804:9
	b	.LBB4_24
.LBB4_24:                               @ =>This Inner Loop Header: Depth=1
	.loc	10 804 15 is_stmt 0             @ lvgl/src/lv_widgets/lv_page.c:804:15
	ldr	r0, [sp, #76]
	.loc	10 804 9                        @ lvgl/src/lv_widgets/lv_page.c:804:9
	cmp	r0, #0
	beq.w	.LBB4_44
	b	.LBB4_25
.LBB4_25:                               @   in Loop: Header=BB4_24 Depth=1
.Ltmp154:
	.loc	10 805 36 is_stmt 1             @ lvgl/src/lv_widgets/lv_page.c:805:36
	ldr	r0, [sp, #76]
	movs	r1, #2
	.loc	10 805 16 is_stmt 0             @ lvgl/src/lv_widgets/lv_page.c:805:16
	bl	lv_obj_is_protected
.Ltmp155:
	.loc	10 805 16                       @ lvgl/src/lv_widgets/lv_page.c:805:16
	cmp	r0, #0
	bne	.LBB4_42
	b	.LBB4_26
.LBB4_26:                               @   in Loop: Header=BB4_24 Depth=1
.Ltmp156:
	.loc	10 806 34 is_stmt 1             @ lvgl/src/lv_widgets/lv_page.c:806:34
	ldr	r0, [sp, #76]
	.loc	10 806 28 is_stmt 0             @ lvgl/src/lv_widgets/lv_page.c:806:28
	str	r0, [sp, #60]
	.loc	10 807 51 is_stmt 1             @ lvgl/src/lv_widgets/lv_page.c:807:51
	ldr	r0, [sp, #112]
	.loc	10 807 57 is_stmt 0             @ lvgl/src/lv_widgets/lv_page.c:807:57
	ldr	r1, [sp, #76]
	.loc	10 807 34                       @ lvgl/src/lv_widgets/lv_page.c:807:34
	bl	lv_obj_get_child
	.loc	10 807 32                       @ lvgl/src/lv_widgets/lv_page.c:807:32
	str	r0, [sp, #76]
.Ltmp157:
	.loc	10 811 21 is_stmt 1             @ lvgl/src/lv_widgets/lv_page.c:811:21
	ldr	r0, [sp, #60]
	.loc	10 811 33 is_stmt 0             @ lvgl/src/lv_widgets/lv_page.c:811:33
	ldrsh.w	r0, [r0, #16]
	.loc	10 811 39                       @ lvgl/src/lv_widgets/lv_page.c:811:39
	ldr	r1, [sp, #112]
	.loc	10 811 52                       @ lvgl/src/lv_widgets/lv_page.c:811:52
	ldrsh.w	r1, [r1, #16]
	.loc	10 811 57                       @ lvgl/src/lv_widgets/lv_page.c:811:57
	cmp	r0, r1
	bne	.LBB4_31
	b	.LBB4_27
.LBB4_27:                               @   in Loop: Header=BB4_24 Depth=1
	.loc	10 812 21 is_stmt 1             @ lvgl/src/lv_widgets/lv_page.c:812:21
	ldrb.w	r0, [sp, #75]
	.loc	10 812 46 is_stmt 0             @ lvgl/src/lv_widgets/lv_page.c:812:46
	cmp	r0, #1
	beq	.LBB4_29
	b	.LBB4_28
.LBB4_28:                               @   in Loop: Header=BB4_24 Depth=1
	.loc	10 812 49                       @ lvgl/src/lv_widgets/lv_page.c:812:49
	ldrb.w	r0, [sp, #75]
	.loc	10 812 73                       @ lvgl/src/lv_widgets/lv_page.c:812:73
	cmp	r0, #3
	bne	.LBB4_31
	b	.LBB4_29
.LBB4_29:                               @   in Loop: Header=BB4_24 Depth=1
	.loc	10 813 20 is_stmt 1             @ lvgl/src/lv_widgets/lv_page.c:813:20
	ldrb.w	r0, [sp, #72]
.Ltmp158:
	.loc	10 811 20                       @ lvgl/src/lv_widgets/lv_page.c:811:20
	cmp	r0, #1
	beq	.LBB4_31
	b	.LBB4_30
.LBB4_30:                               @   in Loop: Header=BB4_24 Depth=1
.Ltmp159:
	.loc	10 814 39                       @ lvgl/src/lv_widgets/lv_page.c:814:39
	ldrh.w	r2, [sp, #70]
	.loc	10 814 21 is_stmt 0             @ lvgl/src/lv_widgets/lv_page.c:814:21
	ldr	r1, [sp, #60]
	.loc	10 814 36                       @ lvgl/src/lv_widgets/lv_page.c:814:36
	ldrh	r0, [r1, #16]
	add	r0, r2
	strh	r0, [r1, #16]
	.loc	10 815 39 is_stmt 1             @ lvgl/src/lv_widgets/lv_page.c:815:39
	ldrh.w	r2, [sp, #70]
	.loc	10 815 21 is_stmt 0             @ lvgl/src/lv_widgets/lv_page.c:815:21
	ldr	r1, [sp, #60]
	.loc	10 815 36                       @ lvgl/src/lv_widgets/lv_page.c:815:36
	ldrh	r0, [r1, #20]
	add	r0, r2
	strh	r0, [r1, #20]
	.loc	10 816 17 is_stmt 1             @ lvgl/src/lv_widgets/lv_page.c:816:17
	b	.LBB4_37
.Ltmp160:
.LBB4_31:                               @   in Loop: Header=BB4_24 Depth=1
	.loc	10 817 26                       @ lvgl/src/lv_widgets/lv_page.c:817:26
	ldr	r0, [sp, #60]
	.loc	10 817 38 is_stmt 0             @ lvgl/src/lv_widgets/lv_page.c:817:38
	ldrsh.w	r0, [r0, #20]
	.loc	10 817 44                       @ lvgl/src/lv_widgets/lv_page.c:817:44
	ldr	r1, [sp, #112]
	.loc	10 817 57                       @ lvgl/src/lv_widgets/lv_page.c:817:57
	ldrsh.w	r1, [r1, #20]
	.loc	10 817 61                       @ lvgl/src/lv_widgets/lv_page.c:817:61
	cmp	r0, r1
	bne	.LBB4_36
	b	.LBB4_32
.LBB4_32:                               @   in Loop: Header=BB4_24 Depth=1
	.loc	10 818 26 is_stmt 1             @ lvgl/src/lv_widgets/lv_page.c:818:26
	ldrb.w	r0, [sp, #74]
	.loc	10 818 52 is_stmt 0             @ lvgl/src/lv_widgets/lv_page.c:818:52
	cmp	r0, #1
	beq	.LBB4_34
	b	.LBB4_33
.LBB4_33:                               @   in Loop: Header=BB4_24 Depth=1
	.loc	10 818 55                       @ lvgl/src/lv_widgets/lv_page.c:818:55
	ldrb.w	r0, [sp, #74]
	.loc	10 819 25 is_stmt 1             @ lvgl/src/lv_widgets/lv_page.c:819:25
	cmp	r0, #3
	bne	.LBB4_36
	b	.LBB4_34
.LBB4_34:                               @   in Loop: Header=BB4_24 Depth=1
	.loc	10 819 28 is_stmt 0             @ lvgl/src/lv_widgets/lv_page.c:819:28
	ldrb.w	r0, [sp, #72]
.Ltmp161:
	.loc	10 817 25 is_stmt 1             @ lvgl/src/lv_widgets/lv_page.c:817:25
	cmp	r0, #1
	bne	.LBB4_36
	b	.LBB4_35
.LBB4_35:                               @   in Loop: Header=BB4_24 Depth=1
.Ltmp162:
	.loc	10 820 39                       @ lvgl/src/lv_widgets/lv_page.c:820:39
	ldrh.w	r2, [sp, #68]
	.loc	10 820 21 is_stmt 0             @ lvgl/src/lv_widgets/lv_page.c:820:21
	ldr	r1, [sp, #60]
	.loc	10 820 36                       @ lvgl/src/lv_widgets/lv_page.c:820:36
	ldrh	r0, [r1, #16]
	subs	r0, r0, r2
	strh	r0, [r1, #16]
	.loc	10 821 39 is_stmt 1             @ lvgl/src/lv_widgets/lv_page.c:821:39
	ldrh.w	r2, [sp, #68]
	.loc	10 821 21 is_stmt 0             @ lvgl/src/lv_widgets/lv_page.c:821:21
	ldr	r1, [sp, #60]
	.loc	10 821 36                       @ lvgl/src/lv_widgets/lv_page.c:821:36
	ldrh	r0, [r1, #20]
	subs	r0, r0, r2
	strh	r0, [r1, #20]
	.loc	10 822 17 is_stmt 1             @ lvgl/src/lv_widgets/lv_page.c:822:17
	b	.LBB4_36
.Ltmp163:
.LBB4_36:                               @   in Loop: Header=BB4_24 Depth=1
	.loc	10 0 17 is_stmt 0               @ lvgl/src/lv_widgets/lv_page.c:0:17
	b	.LBB4_37
.LBB4_37:                               @   in Loop: Header=BB4_24 Depth=1
.Ltmp164:
	.loc	10 823 21 is_stmt 1             @ lvgl/src/lv_widgets/lv_page.c:823:21
	ldr	r0, [sp, #60]
	.loc	10 823 33 is_stmt 0             @ lvgl/src/lv_widgets/lv_page.c:823:33
	ldrsh.w	r0, [r0, #18]
	.loc	10 823 39                       @ lvgl/src/lv_widgets/lv_page.c:823:39
	ldr	r1, [sp, #112]
	.loc	10 823 52                       @ lvgl/src/lv_widgets/lv_page.c:823:52
	ldrsh.w	r1, [r1, #18]
	.loc	10 823 56                       @ lvgl/src/lv_widgets/lv_page.c:823:56
	cmp	r0, r1
	bne	.LBB4_41
	b	.LBB4_38
.LBB4_38:                               @   in Loop: Header=BB4_24 Depth=1
	.loc	10 823 60                       @ lvgl/src/lv_widgets/lv_page.c:823:60
	ldrb.w	r0, [sp, #73]
	.loc	10 823 84                       @ lvgl/src/lv_widgets/lv_page.c:823:84
	cmp	r0, #1
	beq	.LBB4_40
	b	.LBB4_39
.LBB4_39:                               @   in Loop: Header=BB4_24 Depth=1
	.loc	10 823 87                       @ lvgl/src/lv_widgets/lv_page.c:823:87
	ldrb.w	r0, [sp, #73]
.Ltmp165:
	.loc	10 823 20                       @ lvgl/src/lv_widgets/lv_page.c:823:20
	cmp	r0, #3
	bne	.LBB4_41
	b	.LBB4_40
.LBB4_40:                               @   in Loop: Header=BB4_24 Depth=1
.Ltmp166:
	.loc	10 824 39 is_stmt 1             @ lvgl/src/lv_widgets/lv_page.c:824:39
	ldrh.w	r2, [sp, #66]
	.loc	10 824 21 is_stmt 0             @ lvgl/src/lv_widgets/lv_page.c:824:21
	ldr	r1, [sp, #60]
	.loc	10 824 36                       @ lvgl/src/lv_widgets/lv_page.c:824:36
	ldrh	r0, [r1, #18]
	add	r0, r2
	strh	r0, [r1, #18]
	.loc	10 825 39 is_stmt 1             @ lvgl/src/lv_widgets/lv_page.c:825:39
	ldrh.w	r2, [sp, #66]
	.loc	10 825 21 is_stmt 0             @ lvgl/src/lv_widgets/lv_page.c:825:21
	ldr	r1, [sp, #60]
	.loc	10 825 36                       @ lvgl/src/lv_widgets/lv_page.c:825:36
	ldrh	r0, [r1, #22]
	add	r0, r2
	strh	r0, [r1, #22]
	.loc	10 826 17 is_stmt 1             @ lvgl/src/lv_widgets/lv_page.c:826:17
	b	.LBB4_41
.Ltmp167:
.LBB4_41:                               @   in Loop: Header=BB4_24 Depth=1
	.loc	10 827 35                       @ lvgl/src/lv_widgets/lv_page.c:827:35
	ldr	r0, [sp, #60]
	.loc	10 827 40 is_stmt 0             @ lvgl/src/lv_widgets/lv_page.c:827:40
	ldr	r1, [sp, #88]
	.loc	10 827 45                       @ lvgl/src/lv_widgets/lv_page.c:827:45
	ldr	r1, [r1, #4]
	.loc	10 827 17                       @ lvgl/src/lv_widgets/lv_page.c:827:17
	bl	lv_obj_set_parent
	.loc	10 828 13 is_stmt 1             @ lvgl/src/lv_widgets/lv_page.c:828:13
	b	.LBB4_43
.Ltmp168:
.LBB4_42:                               @   in Loop: Header=BB4_24 Depth=1
	.loc	10 830 42                       @ lvgl/src/lv_widgets/lv_page.c:830:42
	ldr	r0, [sp, #112]
	.loc	10 830 48 is_stmt 0             @ lvgl/src/lv_widgets/lv_page.c:830:48
	ldr	r1, [sp, #76]
	.loc	10 830 25                       @ lvgl/src/lv_widgets/lv_page.c:830:25
	bl	lv_obj_get_child
	.loc	10 830 23                       @ lvgl/src/lv_widgets/lv_page.c:830:23
	str	r0, [sp, #76]
	b	.LBB4_43
.Ltmp169:
.LBB4_43:                               @   in Loop: Header=BB4_24 Depth=1
	.loc	10 804 9 is_stmt 1              @ lvgl/src/lv_widgets/lv_page.c:804:9
	b	.LBB4_24
.LBB4_44:
	.loc	10 833 5                        @ lvgl/src/lv_widgets/lv_page.c:833:5
	b	.LBB4_87
.Ltmp170:
.LBB4_45:
	.loc	10 834 13                       @ lvgl/src/lv_widgets/lv_page.c:834:13
	ldrb.w	r0, [sp, #111]
.Ltmp171:
	.loc	10 834 13 is_stmt 0             @ lvgl/src/lv_widgets/lv_page.c:834:13
	cmp	r0, #4
	bne	.LBB4_50
	b	.LBB4_46
.LBB4_46:
.Ltmp172:
	.loc	10 835 57 is_stmt 1             @ lvgl/src/lv_widgets/lv_page.c:835:57
	ldr	r0, [sp, #112]
	movs	r1, #1
	.loc	10 835 35 is_stmt 0             @ lvgl/src/lv_widgets/lv_page.c:835:35
	bl	lv_obj_get_style_size
	.loc	10 835 24                       @ lvgl/src/lv_widgets/lv_page.c:835:24
	strh.w	r0, [sp, #58]
	.loc	10 836 29 is_stmt 1             @ lvgl/src/lv_widgets/lv_page.c:836:29
	ldr	r0, [sp, #88]
	.loc	10 836 42 is_stmt 0             @ lvgl/src/lv_widgets/lv_page.c:836:42
	adds	r0, #16
	.loc	10 836 52                       @ lvgl/src/lv_widgets/lv_page.c:836:52
	ldrsh.w	r1, [sp, #58]
	.loc	10 836 9                        @ lvgl/src/lv_widgets/lv_page.c:836:9
	bl	lv_area_set_height
	.loc	10 837 28 is_stmt 1             @ lvgl/src/lv_widgets/lv_page.c:837:28
	ldr	r0, [sp, #88]
	.loc	10 837 41 is_stmt 0             @ lvgl/src/lv_widgets/lv_page.c:837:41
	adds	r0, #24
	.loc	10 837 51                       @ lvgl/src/lv_widgets/lv_page.c:837:51
	ldrsh.w	r1, [sp, #58]
	.loc	10 837 9                        @ lvgl/src/lv_widgets/lv_page.c:837:9
	bl	lv_area_set_width
.Ltmp173:
	.loc	10 840 12 is_stmt 1             @ lvgl/src/lv_widgets/lv_page.c:840:12
	ldr	r0, [sp, #88]
	.loc	10 840 25 is_stmt 0             @ lvgl/src/lv_widgets/lv_page.c:840:25
	ldrb.w	r0, [r0, #32]
	.loc	10 840 34                       @ lvgl/src/lv_widgets/lv_page.c:840:34
	lsls	r0, r0, #31
	cbnz	r0, .LBB4_48
	b	.LBB4_47
.LBB4_47:
	.loc	10 840 37                       @ lvgl/src/lv_widgets/lv_page.c:840:37
	ldr	r0, [sp, #88]
	.loc	10 840 50                       @ lvgl/src/lv_widgets/lv_page.c:840:50
	ldrb.w	r0, [r0, #32]
	lsrs	r0, r0, #1
.Ltmp174:
	.loc	10 840 12                       @ lvgl/src/lv_widgets/lv_page.c:840:12
	lsls	r0, r0, #31
	cbz	r0, .LBB4_49
	b	.LBB4_48
.LBB4_48:
.Ltmp175:
	.loc	10 840 76                       @ lvgl/src/lv_widgets/lv_page.c:840:76
	ldr	r0, [sp, #112]
	.loc	10 840 60                       @ lvgl/src/lv_widgets/lv_page.c:840:60
	bl	scrlbar_refresh
	b	.LBB4_49
.Ltmp176:
.LBB4_49:
	.loc	10 843 27 is_stmt 1             @ lvgl/src/lv_widgets/lv_page.c:843:27
	ldr	r0, [sp, #112]
	.loc	10 843 9 is_stmt 0              @ lvgl/src/lv_widgets/lv_page.c:843:9
	bl	refr_ext_draw_pad
	.loc	10 844 5 is_stmt 1              @ lvgl/src/lv_widgets/lv_page.c:844:5
	b	.LBB4_86
.Ltmp177:
.LBB4_50:
	.loc	10 845 13                       @ lvgl/src/lv_widgets/lv_page.c:845:13
	ldrb.w	r0, [sp, #111]
.Ltmp178:
	.loc	10 845 13 is_stmt 0             @ lvgl/src/lv_widgets/lv_page.c:845:13
	cmp	r0, #2
	bne	.LBB4_59
	b	.LBB4_51
.LBB4_51:
.Ltmp179:
	.loc	10 847 12 is_stmt 1             @ lvgl/src/lv_widgets/lv_page.c:847:12
	ldr	r0, [sp, #88]
	.loc	10 847 17 is_stmt 0             @ lvgl/src/lv_widgets/lv_page.c:847:17
	ldr	r0, [r0, #4]
	.loc	10 847 30                       @ lvgl/src/lv_widgets/lv_page.c:847:30
	cbz	r0, .LBB4_58
	b	.LBB4_52
.LBB4_52:
	.loc	10 847 51                       @ lvgl/src/lv_widgets/lv_page.c:847:51
	ldr	r0, [sp, #112]
	.loc	10 847 34                       @ lvgl/src/lv_widgets/lv_page.c:847:34
	bl	lv_obj_get_width
	.loc	10 847 78                       @ lvgl/src/lv_widgets/lv_page.c:847:78
	str	r0, [sp, #40]                   @ 4-byte Spill
	ldr	r0, [sp, #104]
	.loc	10 847 60                       @ lvgl/src/lv_widgets/lv_page.c:847:60
	bl	lv_area_get_width
	mov	r1, r0
	.loc	10 847 85                       @ lvgl/src/lv_widgets/lv_page.c:847:85
	ldr	r0, [sp, #40]                   @ 4-byte Reload
	cmp	r0, r1
	bne	.LBB4_54
	b	.LBB4_53
.LBB4_53:
	.loc	10 848 52 is_stmt 1             @ lvgl/src/lv_widgets/lv_page.c:848:52
	ldr	r0, [sp, #112]
	.loc	10 848 34 is_stmt 0             @ lvgl/src/lv_widgets/lv_page.c:848:34
	bl	lv_obj_get_height
	.loc	10 848 80                       @ lvgl/src/lv_widgets/lv_page.c:848:80
	str	r0, [sp, #36]                   @ 4-byte Spill
	ldr	r0, [sp, #104]
	.loc	10 848 61                       @ lvgl/src/lv_widgets/lv_page.c:848:61
	bl	lv_area_get_height
	mov	r1, r0
.Ltmp180:
	.loc	10 847 12 is_stmt 1             @ lvgl/src/lv_widgets/lv_page.c:847:12
	ldr	r0, [sp, #36]                   @ 4-byte Reload
	cmp	r0, r1
	beq	.LBB4_58
	b	.LBB4_54
.LBB4_54:
.Ltmp181:
	.loc	10 849 13                       @ lvgl/src/lv_widgets/lv_page.c:849:13
	ldr	r0, [sp, #88]
	.loc	10 849 18 is_stmt 0             @ lvgl/src/lv_widgets/lv_page.c:849:18
	ldr	r0, [r0, #4]
	.loc	10 849 24                       @ lvgl/src/lv_widgets/lv_page.c:849:24
	ldr	r3, [r0, #28]
	.loc	10 849 78                       @ lvgl/src/lv_widgets/lv_page.c:849:78
	add.w	r2, r0, #16
	movs	r1, #2
	.loc	10 849 13                       @ lvgl/src/lv_widgets/lv_page.c:849:13
	blx	r3
.Ltmp182:
	.loc	10 852 16 is_stmt 1             @ lvgl/src/lv_widgets/lv_page.c:852:16
	ldr	r0, [sp, #88]
	.loc	10 852 29 is_stmt 0             @ lvgl/src/lv_widgets/lv_page.c:852:29
	ldrb.w	r0, [r0, #32]
	.loc	10 852 38                       @ lvgl/src/lv_widgets/lv_page.c:852:38
	lsls	r0, r0, #31
	cbnz	r0, .LBB4_56
	b	.LBB4_55
.LBB4_55:
	.loc	10 852 41                       @ lvgl/src/lv_widgets/lv_page.c:852:41
	ldr	r0, [sp, #88]
	.loc	10 852 54                       @ lvgl/src/lv_widgets/lv_page.c:852:54
	ldrb.w	r0, [r0, #32]
	lsrs	r0, r0, #1
.Ltmp183:
	.loc	10 852 16                       @ lvgl/src/lv_widgets/lv_page.c:852:16
	lsls	r0, r0, #31
	cbz	r0, .LBB4_57
	b	.LBB4_56
.LBB4_56:
.Ltmp184:
	.loc	10 852 80                       @ lvgl/src/lv_widgets/lv_page.c:852:80
	ldr	r0, [sp, #112]
	.loc	10 852 64                       @ lvgl/src/lv_widgets/lv_page.c:852:64
	bl	scrlbar_refresh
	b	.LBB4_57
.Ltmp185:
.LBB4_57:
	.loc	10 853 9 is_stmt 1              @ lvgl/src/lv_widgets/lv_page.c:853:9
	b	.LBB4_58
.Ltmp186:
.LBB4_58:
	.loc	10 854 5                        @ lvgl/src/lv_widgets/lv_page.c:854:5
	b	.LBB4_85
.Ltmp187:
.LBB4_59:
	.loc	10 855 13                       @ lvgl/src/lv_widgets/lv_page.c:855:13
	ldrb.w	r0, [sp, #111]
.Ltmp188:
	.loc	10 855 13 is_stmt 0             @ lvgl/src/lv_widgets/lv_page.c:855:13
	cmp	r0, #6
	bne	.LBB4_61
	b	.LBB4_60
.LBB4_60:
.Ltmp189:
	.loc	10 856 27 is_stmt 1             @ lvgl/src/lv_widgets/lv_page.c:856:27
	ldr	r0, [sp, #112]
	.loc	10 856 9 is_stmt 0              @ lvgl/src/lv_widgets/lv_page.c:856:9
	bl	refr_ext_draw_pad
	.loc	10 857 5 is_stmt 1              @ lvgl/src/lv_widgets/lv_page.c:857:5
	b	.LBB4_84
.Ltmp190:
.LBB4_61:
	.loc	10 858 13                       @ lvgl/src/lv_widgets/lv_page.c:858:13
	ldrb.w	r0, [sp, #111]
.Ltmp191:
	.loc	10 858 13 is_stmt 0             @ lvgl/src/lv_widgets/lv_page.c:858:13
	cmp	r0, #24
	bne	.LBB4_80
	b	.LBB4_62
.LBB4_62:
.Ltmp192:
	.loc	10 860 36 is_stmt 1             @ lvgl/src/lv_widgets/lv_page.c:860:36
	ldr	r0, [sp, #104]
	.loc	10 860 22 is_stmt 0             @ lvgl/src/lv_widgets/lv_page.c:860:22
	ldr	r0, [r0]
	.loc	10 860 18                       @ lvgl/src/lv_widgets/lv_page.c:860:18
	str	r0, [sp, #52]
.Ltmp193:
	.loc	10 862 12 is_stmt 1             @ lvgl/src/lv_widgets/lv_page.c:862:12
	ldr	r0, [sp, #52]
.Ltmp194:
	.loc	10 862 12 is_stmt 0             @ lvgl/src/lv_widgets/lv_page.c:862:12
	cmp	r0, #18
	bne	.LBB4_64
	b	.LBB4_63
.LBB4_63:
.Ltmp195:
	.loc	10 863 32 is_stmt 1             @ lvgl/src/lv_widgets/lv_page.c:863:32
	ldr	r0, [sp, #112]
	.loc	10 863 39 is_stmt 0             @ lvgl/src/lv_widgets/lv_page.c:863:39
	str	r0, [sp, #32]                   @ 4-byte Spill
	bl	lv_obj_get_height
	mov	r1, r0
	.loc	10 863 38                       @ lvgl/src/lv_widgets/lv_page.c:863:38
	ldr	r0, [sp, #32]                   @ 4-byte Reload
	rsbs	r2, r1, #0
	.loc	10 863 63                       @ lvgl/src/lv_widgets/lv_page.c:863:63
	rsb	r1, r1, r2, lsr #30
	asrs	r1, r1, #2
	.loc	10 863 13                       @ lvgl/src/lv_widgets/lv_page.c:863:13
	bl	lv_page_scroll_ver
	.loc	10 864 9 is_stmt 1              @ lvgl/src/lv_widgets/lv_page.c:864:9
	b	.LBB4_79
.Ltmp196:
.LBB4_64:
	.loc	10 865 17                       @ lvgl/src/lv_widgets/lv_page.c:865:17
	ldr	r0, [sp, #52]
.Ltmp197:
	.loc	10 865 17 is_stmt 0             @ lvgl/src/lv_widgets/lv_page.c:865:17
	cmp	r0, #17
	bne	.LBB4_66
	b	.LBB4_65
.LBB4_65:
.Ltmp198:
	.loc	10 866 32 is_stmt 1             @ lvgl/src/lv_widgets/lv_page.c:866:32
	ldr	r0, [sp, #112]
	.loc	10 866 38 is_stmt 0             @ lvgl/src/lv_widgets/lv_page.c:866:38
	str	r0, [sp, #28]                   @ 4-byte Spill
	bl	lv_obj_get_height
	mov	r1, r0
	.loc	10 866 62                       @ lvgl/src/lv_widgets/lv_page.c:866:62
	ldr	r0, [sp, #28]                   @ 4-byte Reload
	add.w	r1, r1, r1, lsr #30
	asrs	r1, r1, #2
	.loc	10 866 13                       @ lvgl/src/lv_widgets/lv_page.c:866:13
	bl	lv_page_scroll_ver
	.loc	10 867 9 is_stmt 1              @ lvgl/src/lv_widgets/lv_page.c:867:9
	b	.LBB4_78
.Ltmp199:
.LBB4_66:
	.loc	10 868 17                       @ lvgl/src/lv_widgets/lv_page.c:868:17
	ldr	r0, [sp, #52]
.Ltmp200:
	.loc	10 868 17 is_stmt 0             @ lvgl/src/lv_widgets/lv_page.c:868:17
	cmp	r0, #19
	bne	.LBB4_71
	b	.LBB4_67
.LBB4_67:
.Ltmp201:
	.loc	10 871 39 is_stmt 1             @ lvgl/src/lv_widgets/lv_page.c:871:39
	ldr	r0, [sp, #112]
	.loc	10 871 16 is_stmt 0             @ lvgl/src/lv_widgets/lv_page.c:871:16
	bl	lv_page_get_scrl_width
	.loc	10 871 65                       @ lvgl/src/lv_widgets/lv_page.c:871:65
	str	r0, [sp, #24]                   @ 4-byte Spill
	ldr	r0, [sp, #112]
	.loc	10 871 48                       @ lvgl/src/lv_widgets/lv_page.c:871:48
	bl	lv_obj_get_width
	mov	r1, r0
.Ltmp202:
	.loc	10 871 16                       @ lvgl/src/lv_widgets/lv_page.c:871:16
	ldr	r0, [sp, #24]                   @ 4-byte Reload
	cmp	r0, r1
	bgt	.LBB4_69
	b	.LBB4_68
.LBB4_68:
.Ltmp203:
	.loc	10 872 36 is_stmt 1             @ lvgl/src/lv_widgets/lv_page.c:872:36
	ldr	r0, [sp, #112]
	.loc	10 872 43 is_stmt 0             @ lvgl/src/lv_widgets/lv_page.c:872:43
	str	r0, [sp, #20]                   @ 4-byte Spill
	bl	lv_obj_get_height
	mov	r1, r0
	.loc	10 872 42                       @ lvgl/src/lv_widgets/lv_page.c:872:42
	ldr	r0, [sp, #20]                   @ 4-byte Reload
	rsbs	r2, r1, #0
	.loc	10 872 67                       @ lvgl/src/lv_widgets/lv_page.c:872:67
	rsb	r1, r1, r2, lsr #30
	asrs	r1, r1, #2
	.loc	10 872 17                       @ lvgl/src/lv_widgets/lv_page.c:872:17
	bl	lv_page_scroll_ver
	b	.LBB4_70
.LBB4_69:
	.loc	10 874 36 is_stmt 1             @ lvgl/src/lv_widgets/lv_page.c:874:36
	ldr	r0, [sp, #112]
	.loc	10 874 43 is_stmt 0             @ lvgl/src/lv_widgets/lv_page.c:874:43
	str	r0, [sp, #16]                   @ 4-byte Spill
	bl	lv_obj_get_width
	mov	r1, r0
	.loc	10 874 42                       @ lvgl/src/lv_widgets/lv_page.c:874:42
	ldr	r0, [sp, #16]                   @ 4-byte Reload
	rsbs	r2, r1, #0
	.loc	10 874 66                       @ lvgl/src/lv_widgets/lv_page.c:874:66
	rsb	r1, r1, r2, lsr #30
	asrs	r1, r1, #2
	.loc	10 874 17                       @ lvgl/src/lv_widgets/lv_page.c:874:17
	bl	lv_page_scroll_hor
	b	.LBB4_70
.Ltmp204:
.LBB4_70:
	.loc	10 875 9 is_stmt 1              @ lvgl/src/lv_widgets/lv_page.c:875:9
	b	.LBB4_77
.Ltmp205:
.LBB4_71:
	.loc	10 876 17                       @ lvgl/src/lv_widgets/lv_page.c:876:17
	ldr	r0, [sp, #52]
.Ltmp206:
	.loc	10 876 17 is_stmt 0             @ lvgl/src/lv_widgets/lv_page.c:876:17
	cmp	r0, #20
	bne	.LBB4_76
	b	.LBB4_72
.LBB4_72:
.Ltmp207:
	.loc	10 879 39 is_stmt 1             @ lvgl/src/lv_widgets/lv_page.c:879:39
	ldr	r0, [sp, #112]
	.loc	10 879 16 is_stmt 0             @ lvgl/src/lv_widgets/lv_page.c:879:16
	bl	lv_page_get_scrl_width
	.loc	10 879 65                       @ lvgl/src/lv_widgets/lv_page.c:879:65
	str	r0, [sp, #12]                   @ 4-byte Spill
	ldr	r0, [sp, #112]
	.loc	10 879 48                       @ lvgl/src/lv_widgets/lv_page.c:879:48
	bl	lv_obj_get_width
	mov	r1, r0
.Ltmp208:
	.loc	10 879 16                       @ lvgl/src/lv_widgets/lv_page.c:879:16
	ldr	r0, [sp, #12]                   @ 4-byte Reload
	cmp	r0, r1
	bgt	.LBB4_74
	b	.LBB4_73
.LBB4_73:
.Ltmp209:
	.loc	10 880 36 is_stmt 1             @ lvgl/src/lv_widgets/lv_page.c:880:36
	ldr	r0, [sp, #112]
	.loc	10 880 42 is_stmt 0             @ lvgl/src/lv_widgets/lv_page.c:880:42
	str	r0, [sp, #8]                    @ 4-byte Spill
	bl	lv_obj_get_height
	mov	r1, r0
	.loc	10 880 66                       @ lvgl/src/lv_widgets/lv_page.c:880:66
	ldr	r0, [sp, #8]                    @ 4-byte Reload
	add.w	r1, r1, r1, lsr #30
	asrs	r1, r1, #2
	.loc	10 880 17                       @ lvgl/src/lv_widgets/lv_page.c:880:17
	bl	lv_page_scroll_ver
	b	.LBB4_75
.LBB4_74:
	.loc	10 882 36 is_stmt 1             @ lvgl/src/lv_widgets/lv_page.c:882:36
	ldr	r0, [sp, #112]
	.loc	10 882 42 is_stmt 0             @ lvgl/src/lv_widgets/lv_page.c:882:42
	str	r0, [sp, #4]                    @ 4-byte Spill
	bl	lv_obj_get_width
	mov	r1, r0
	.loc	10 882 65                       @ lvgl/src/lv_widgets/lv_page.c:882:65
	ldr	r0, [sp, #4]                    @ 4-byte Reload
	add.w	r1, r1, r1, lsr #30
	asrs	r1, r1, #2
	.loc	10 882 17                       @ lvgl/src/lv_widgets/lv_page.c:882:17
	bl	lv_page_scroll_hor
	b	.LBB4_75
.Ltmp210:
.LBB4_75:
	.loc	10 883 9 is_stmt 1              @ lvgl/src/lv_widgets/lv_page.c:883:9
	b	.LBB4_76
.Ltmp211:
.LBB4_76:
	.loc	10 0 9 is_stmt 0                @ lvgl/src/lv_widgets/lv_page.c:0:9
	b	.LBB4_77
.LBB4_77:
	b	.LBB4_78
.LBB4_78:
	b	.LBB4_79
.LBB4_79:
	.loc	10 885 5 is_stmt 1              @ lvgl/src/lv_widgets/lv_page.c:885:5
	b	.LBB4_83
.Ltmp212:
.LBB4_80:
	.loc	10 886 13                       @ lvgl/src/lv_widgets/lv_page.c:886:13
	ldrb.w	r0, [sp, #111]
.Ltmp213:
	.loc	10 886 13 is_stmt 0             @ lvgl/src/lv_widgets/lv_page.c:886:13
	cmp	r0, #25
	bne	.LBB4_82
	b	.LBB4_81
.LBB4_81:
.Ltmp214:
	.loc	10 888 35 is_stmt 1             @ lvgl/src/lv_widgets/lv_page.c:888:35
	ldr	r0, [sp, #104]
	.loc	10 888 16 is_stmt 0             @ lvgl/src/lv_widgets/lv_page.c:888:16
	str	r0, [sp, #48]
	.loc	10 889 10 is_stmt 1             @ lvgl/src/lv_widgets/lv_page.c:889:10
	ldr	r1, [sp, #48]
	movs	r0, #1
	.loc	10 889 25 is_stmt 0             @ lvgl/src/lv_widgets/lv_page.c:889:25
	strb	r0, [r1]
	.loc	10 891 5 is_stmt 1              @ lvgl/src/lv_widgets/lv_page.c:891:5
	b	.LBB4_82
.Ltmp215:
.LBB4_82:
	.loc	10 0 5 is_stmt 0                @ lvgl/src/lv_widgets/lv_page.c:0:5
	b	.LBB4_83
.LBB4_83:
	b	.LBB4_84
.LBB4_84:
	b	.LBB4_85
.LBB4_85:
	b	.LBB4_86
.LBB4_86:
	b	.LBB4_87
.LBB4_87:
	b	.LBB4_88
.LBB4_88:
	.loc	10 893 12 is_stmt 1             @ lvgl/src/lv_widgets/lv_page.c:893:12
	ldrb.w	r0, [sp, #103]
	.loc	10 893 5 is_stmt 0              @ lvgl/src/lv_widgets/lv_page.c:893:5
	strb.w	r0, [sp, #119]
	b	.LBB4_89
.LBB4_89:
	.loc	10 894 1 is_stmt 1              @ lvgl/src/lv_widgets/lv_page.c:894:1
	ldrb.w	r0, [sp, #119]
	add	sp, #120
	pop	{r7, pc}
.Ltmp216:
.Lfunc_end4:
	.size	lv_page_signal, .Lfunc_end4-lv_page_signal
	.cfi_endproc
	.cantunwind
	.fnend
                                        @ -- End function
	.section	.text.lv_page_design,"ax",%progbits
	.p2align	3                               @ -- Begin function lv_page_design
	.type	lv_page_design,%function
	.code	16                              @ @lv_page_design
	.thumb_func
lv_page_design:
.Lfunc_begin5:
	.loc	10 678 0                        @ lvgl/src/lv_widgets/lv_page.c:678:0
	.fnstart
	.cfi_startproc
@ %bb.0:
	.save	{r7, lr}
	push	{r7, lr}
	.cfi_def_cfa_offset 8
	.cfi_offset lr, -4
	.cfi_offset r7, -8
	.pad	#272
	sub	sp, #272
	.cfi_def_cfa_offset 280
                                        @ kill: def $r3 killed $r2
	str	r0, [sp, #264]
	str	r1, [sp, #260]
	strb.w	r2, [sp, #259]
.Ltmp217:
	.loc	10 679 8 prologue_end           @ lvgl/src/lv_widgets/lv_page.c:679:8
	ldrb.w	r0, [sp, #259]
.Ltmp218:
	.loc	10 679 8 is_stmt 0              @ lvgl/src/lv_widgets/lv_page.c:679:8
	cmp	r0, #2
	bne	.LBB5_2
	b	.LBB5_1
.LBB5_1:
.Ltmp219:
	.loc	10 680 16 is_stmt 1             @ lvgl/src/lv_widgets/lv_page.c:680:16
	movw	r0, :lower16:ancestor_design
	movt	r0, :upper16:ancestor_design
	ldr	r3, [r0]
	.loc	10 680 32 is_stmt 0             @ lvgl/src/lv_widgets/lv_page.c:680:32
	ldr	r0, [sp, #264]
	.loc	10 680 38                       @ lvgl/src/lv_widgets/lv_page.c:680:38
	ldr	r1, [sp, #260]
	.loc	10 680 49                       @ lvgl/src/lv_widgets/lv_page.c:680:49
	ldrb.w	r2, [sp, #259]
	.loc	10 680 16                       @ lvgl/src/lv_widgets/lv_page.c:680:16
	blx	r3
	.loc	10 680 9                        @ lvgl/src/lv_widgets/lv_page.c:680:9
	strb.w	r0, [sp, #271]
	b	.LBB5_24
.Ltmp220:
.LBB5_2:
	.loc	10 683 8 is_stmt 1              @ lvgl/src/lv_widgets/lv_page.c:683:8
	ldrb.w	r0, [sp, #259]
.Ltmp221:
	.loc	10 683 8 is_stmt 0              @ lvgl/src/lv_widgets/lv_page.c:683:8
	cbnz	r0, .LBB5_4
	b	.LBB5_3
.LBB5_3:
.Ltmp222:
	.loc	10 684 16 is_stmt 1             @ lvgl/src/lv_widgets/lv_page.c:684:16
	movw	r0, :lower16:ancestor_design
	movt	r0, :upper16:ancestor_design
	ldr	r3, [r0]
	.loc	10 684 32 is_stmt 0             @ lvgl/src/lv_widgets/lv_page.c:684:32
	ldr	r0, [sp, #264]
	.loc	10 684 38                       @ lvgl/src/lv_widgets/lv_page.c:684:38
	ldr	r1, [sp, #260]
	.loc	10 684 49                       @ lvgl/src/lv_widgets/lv_page.c:684:49
	ldrb.w	r2, [sp, #259]
	.loc	10 684 16                       @ lvgl/src/lv_widgets/lv_page.c:684:16
	blx	r3
	.loc	10 684 9                        @ lvgl/src/lv_widgets/lv_page.c:684:9
	strb.w	r0, [sp, #271]
	b	.LBB5_24
.Ltmp223:
.LBB5_4:
	.loc	10 686 13 is_stmt 1             @ lvgl/src/lv_widgets/lv_page.c:686:13
	ldrb.w	r0, [sp, #259]
.Ltmp224:
	.loc	10 686 13 is_stmt 0             @ lvgl/src/lv_widgets/lv_page.c:686:13
	cmp	r0, #1
	bne.w	.LBB5_22
	b	.LBB5_5
.LBB5_5:
.Ltmp225:
	.loc	10 687 9 is_stmt 1              @ lvgl/src/lv_widgets/lv_page.c:687:9
	movw	r0, :lower16:ancestor_design
	movt	r0, :upper16:ancestor_design
	ldr	r3, [r0]
	.loc	10 687 25 is_stmt 0             @ lvgl/src/lv_widgets/lv_page.c:687:25
	ldr	r0, [sp, #264]
	.loc	10 687 31                       @ lvgl/src/lv_widgets/lv_page.c:687:31
	ldr	r1, [sp, #260]
	.loc	10 687 42                       @ lvgl/src/lv_widgets/lv_page.c:687:42
	ldrb.w	r2, [sp, #259]
	.loc	10 687 9                        @ lvgl/src/lv_widgets/lv_page.c:687:9
	blx	r3
	.loc	10 688 51 is_stmt 1             @ lvgl/src/lv_widgets/lv_page.c:688:51
	ldr	r0, [sp, #264]
	.loc	10 688 31 is_stmt 0             @ lvgl/src/lv_widgets/lv_page.c:688:31
	bl	lv_obj_get_ext_attr
	.loc	10 688 25                       @ lvgl/src/lv_widgets/lv_page.c:688:25
	str	r0, [sp, #252]
	.loc	10 693 37 is_stmt 1             @ lvgl/src/lv_widgets/lv_page.c:693:37
	ldr	r0, [sp, #252]
	.loc	10 693 50 is_stmt 0             @ lvgl/src/lv_widgets/lv_page.c:693:50
	add.w	r1, r0, #16
	add	r0, sp, #244
	.loc	10 693 9                        @ lvgl/src/lv_widgets/lv_page.c:693:9
	bl	lv_area_copy
	.loc	10 694 27 is_stmt 1             @ lvgl/src/lv_widgets/lv_page.c:694:27
	ldr	r0, [sp, #264]
	ldrh	r1, [r0, #16]
	.loc	10 694 24 is_stmt 0             @ lvgl/src/lv_widgets/lv_page.c:694:24
	ldrh.w	r0, [sp, #244]
	add	r0, r1
	strh.w	r0, [sp, #244]
	.loc	10 695 27 is_stmt 1             @ lvgl/src/lv_widgets/lv_page.c:695:27
	ldr	r0, [sp, #264]
	ldrh	r1, [r0, #18]
	.loc	10 695 24 is_stmt 0             @ lvgl/src/lv_widgets/lv_page.c:695:24
	ldrh.w	r0, [sp, #246]
	add	r0, r1
	strh.w	r0, [sp, #246]
	.loc	10 696 27 is_stmt 1             @ lvgl/src/lv_widgets/lv_page.c:696:27
	ldr	r0, [sp, #264]
	ldrh	r1, [r0, #16]
	.loc	10 696 24 is_stmt 0             @ lvgl/src/lv_widgets/lv_page.c:696:24
	ldrh.w	r0, [sp, #248]
	add	r0, r1
	strh.w	r0, [sp, #248]
	.loc	10 697 27 is_stmt 1             @ lvgl/src/lv_widgets/lv_page.c:697:27
	ldr	r0, [sp, #264]
	ldrh	r1, [r0, #18]
	.loc	10 697 24 is_stmt 0             @ lvgl/src/lv_widgets/lv_page.c:697:24
	ldrh.w	r0, [sp, #250]
	add	r0, r1
	strh.w	r0, [sp, #250]
	.loc	10 700 37 is_stmt 1             @ lvgl/src/lv_widgets/lv_page.c:700:37
	ldr	r0, [sp, #252]
	.loc	10 700 50 is_stmt 0             @ lvgl/src/lv_widgets/lv_page.c:700:50
	add.w	r1, r0, #24
	add	r0, sp, #236
	.loc	10 700 9                        @ lvgl/src/lv_widgets/lv_page.c:700:9
	bl	lv_area_copy
	.loc	10 701 27 is_stmt 1             @ lvgl/src/lv_widgets/lv_page.c:701:27
	ldr	r0, [sp, #264]
	ldrh	r1, [r0, #16]
	.loc	10 701 24 is_stmt 0             @ lvgl/src/lv_widgets/lv_page.c:701:24
	ldrh.w	r0, [sp, #236]
	add	r0, r1
	strh.w	r0, [sp, #236]
	.loc	10 702 27 is_stmt 1             @ lvgl/src/lv_widgets/lv_page.c:702:27
	ldr	r0, [sp, #264]
	ldrh	r1, [r0, #18]
	.loc	10 702 24 is_stmt 0             @ lvgl/src/lv_widgets/lv_page.c:702:24
	ldrh.w	r0, [sp, #238]
	add	r0, r1
	strh.w	r0, [sp, #238]
	.loc	10 703 27 is_stmt 1             @ lvgl/src/lv_widgets/lv_page.c:703:27
	ldr	r0, [sp, #264]
	ldrh	r1, [r0, #16]
	.loc	10 703 24 is_stmt 0             @ lvgl/src/lv_widgets/lv_page.c:703:24
	ldrh.w	r0, [sp, #240]
	add	r0, r1
	strh.w	r0, [sp, #240]
	.loc	10 704 27 is_stmt 1             @ lvgl/src/lv_widgets/lv_page.c:704:27
	ldr	r0, [sp, #264]
	ldrh	r1, [r0, #18]
	.loc	10 704 24 is_stmt 0             @ lvgl/src/lv_widgets/lv_page.c:704:24
	ldrh.w	r0, [sp, #242]
	add	r0, r1
	strh.w	r0, [sp, #242]
.Ltmp226:
	.loc	10 706 13 is_stmt 1             @ lvgl/src/lv_widgets/lv_page.c:706:13
	ldr	r0, [sp, #252]
	.loc	10 706 26 is_stmt 0             @ lvgl/src/lv_widgets/lv_page.c:706:26
	ldrb.w	r0, [r0, #32]
	.loc	10 706 35                       @ lvgl/src/lv_widgets/lv_page.c:706:35
	lsls	r0, r0, #31
	cbz	r0, .LBB5_7
	b	.LBB5_6
.LBB5_6:
	.loc	10 706 67                       @ lvgl/src/lv_widgets/lv_page.c:706:67
	ldr	r1, [sp, #260]
	add	r0, sp, #244
	.loc	10 706 38                       @ lvgl/src/lv_widgets/lv_page.c:706:38
	bl	_lv_area_is_on
	.loc	10 706 79                       @ lvgl/src/lv_widgets/lv_page.c:706:79
	cbnz	r0, .LBB5_9
	b	.LBB5_7
.LBB5_7:
	.loc	10 707 13 is_stmt 1             @ lvgl/src/lv_widgets/lv_page.c:707:13
	ldr	r0, [sp, #252]
	.loc	10 707 26 is_stmt 0             @ lvgl/src/lv_widgets/lv_page.c:707:26
	ldrb.w	r0, [r0, #32]
	lsrs	r0, r0, #1
	.loc	10 707 35                       @ lvgl/src/lv_widgets/lv_page.c:707:35
	lsls	r0, r0, #31
	cbz	r0, .LBB5_16
	b	.LBB5_8
.LBB5_8:
	.loc	10 707 67                       @ lvgl/src/lv_widgets/lv_page.c:707:67
	ldr	r1, [sp, #260]
	add	r0, sp, #236
	.loc	10 707 38                       @ lvgl/src/lv_widgets/lv_page.c:707:38
	bl	_lv_area_is_on
.Ltmp227:
	.loc	10 706 12 is_stmt 1             @ lvgl/src/lv_widgets/lv_page.c:706:12
	cbz	r0, .LBB5_16
	b	.LBB5_9
.LBB5_9:
	.loc	10 0 12 is_stmt 0               @ lvgl/src/lv_widgets/lv_page.c:0:12
	add	r0, sp, #132
.Ltmp228:
	.loc	10 710 13 is_stmt 1             @ lvgl/src/lv_widgets/lv_page.c:710:13
	str	r0, [sp, #12]                   @ 4-byte Spill
	bl	lv_draw_rect_dsc_init
	ldr	r2, [sp, #12]                   @ 4-byte Reload
	.loc	10 711 39                       @ lvgl/src/lv_widgets/lv_page.c:711:39
	ldr	r0, [sp, #264]
	movs	r1, #1
	.loc	10 711 13 is_stmt 0             @ lvgl/src/lv_widgets/lv_page.c:711:13
	bl	lv_obj_init_draw_rect_dsc
.Ltmp229:
	.loc	10 712 16 is_stmt 1             @ lvgl/src/lv_widgets/lv_page.c:712:16
	ldr	r0, [sp, #252]
	.loc	10 712 29 is_stmt 0             @ lvgl/src/lv_widgets/lv_page.c:712:29
	ldrb.w	r0, [r0, #32]
	.loc	10 712 38                       @ lvgl/src/lv_widgets/lv_page.c:712:38
	lsls	r0, r0, #31
	cbz	r0, .LBB5_12
	b	.LBB5_10
.LBB5_10:
	.loc	10 712 42                       @ lvgl/src/lv_widgets/lv_page.c:712:42
	ldr	r0, [sp, #252]
	.loc	10 712 55                       @ lvgl/src/lv_widgets/lv_page.c:712:55
	ldrb.w	r0, [r0, #32]
	lsrs	r0, r0, #2
.Ltmp230:
	.loc	10 712 16                       @ lvgl/src/lv_widgets/lv_page.c:712:16
	lsls	r0, r0, #29
	cmp	r0, #0
	bmi	.LBB5_12
	b	.LBB5_11
.LBB5_11:
.Ltmp231:
	.loc	10 713 44 is_stmt 1             @ lvgl/src/lv_widgets/lv_page.c:713:44
	ldr	r1, [sp, #260]
	add	r0, sp, #244
	add	r2, sp, #132
	.loc	10 713 17 is_stmt 0             @ lvgl/src/lv_widgets/lv_page.c:713:17
	bl	lv_draw_rect
	.loc	10 714 13 is_stmt 1             @ lvgl/src/lv_widgets/lv_page.c:714:13
	b	.LBB5_12
.Ltmp232:
.LBB5_12:
	.loc	10 716 16                       @ lvgl/src/lv_widgets/lv_page.c:716:16
	ldr	r0, [sp, #252]
	.loc	10 716 29 is_stmt 0             @ lvgl/src/lv_widgets/lv_page.c:716:29
	ldrb.w	r0, [r0, #32]
	lsrs	r0, r0, #1
	.loc	10 716 38                       @ lvgl/src/lv_widgets/lv_page.c:716:38
	lsls	r0, r0, #31
	cbz	r0, .LBB5_15
	b	.LBB5_13
.LBB5_13:
	.loc	10 716 42                       @ lvgl/src/lv_widgets/lv_page.c:716:42
	ldr	r0, [sp, #252]
	.loc	10 716 55                       @ lvgl/src/lv_widgets/lv_page.c:716:55
	ldrb.w	r0, [r0, #32]
	lsrs	r0, r0, #2
.Ltmp233:
	.loc	10 716 16                       @ lvgl/src/lv_widgets/lv_page.c:716:16
	lsls	r0, r0, #29
	cmp	r0, #0
	bmi	.LBB5_15
	b	.LBB5_14
.LBB5_14:
.Ltmp234:
	.loc	10 717 44 is_stmt 1             @ lvgl/src/lv_widgets/lv_page.c:717:44
	ldr	r1, [sp, #260]
	add	r0, sp, #236
	add	r2, sp, #132
	.loc	10 717 17 is_stmt 0             @ lvgl/src/lv_widgets/lv_page.c:717:17
	bl	lv_draw_rect
	.loc	10 718 13 is_stmt 1             @ lvgl/src/lv_widgets/lv_page.c:718:13
	b	.LBB5_15
.Ltmp235:
.LBB5_15:
	.loc	10 719 9                        @ lvgl/src/lv_widgets/lv_page.c:719:9
	b	.LBB5_16
.Ltmp236:
.LBB5_16:
	.loc	10 724 16                       @ lvgl/src/lv_widgets/lv_page.c:724:16
	ldr	r0, [sp, #252]
	.loc	10 724 32 is_stmt 0             @ lvgl/src/lv_widgets/lv_page.c:724:32
	ldrb.w	r0, [r0, #48]
	lsrs	r0, r0, #4
	.loc	10 724 40                       @ lvgl/src/lv_widgets/lv_page.c:724:40
	lsls	r0, r0, #31
	cbnz	r0, .LBB5_20
	b	.LBB5_17
.LBB5_17:
	.loc	10 724 43                       @ lvgl/src/lv_widgets/lv_page.c:724:43
	ldr	r0, [sp, #252]
	.loc	10 724 59                       @ lvgl/src/lv_widgets/lv_page.c:724:59
	ldrb.w	r0, [r0, #48]
	lsrs	r0, r0, #3
	.loc	10 724 68                       @ lvgl/src/lv_widgets/lv_page.c:724:68
	lsls	r0, r0, #31
	cbnz	r0, .LBB5_20
	b	.LBB5_18
.LBB5_18:
	.loc	10 724 71                       @ lvgl/src/lv_widgets/lv_page.c:724:71
	ldr	r0, [sp, #252]
	.loc	10 724 87                       @ lvgl/src/lv_widgets/lv_page.c:724:87
	ldrb.w	r0, [r0, #48]
	lsrs	r0, r0, #1
	.loc	10 724 94                       @ lvgl/src/lv_widgets/lv_page.c:724:94
	lsls	r0, r0, #31
	cbnz	r0, .LBB5_20
	b	.LBB5_19
.LBB5_19:
	.loc	10 725 16 is_stmt 1             @ lvgl/src/lv_widgets/lv_page.c:725:16
	ldr	r0, [sp, #252]
	.loc	10 725 32 is_stmt 0             @ lvgl/src/lv_widgets/lv_page.c:725:32
	ldrb.w	r0, [r0, #48]
	lsrs	r0, r0, #2
.Ltmp237:
	.loc	10 724 16 is_stmt 1             @ lvgl/src/lv_widgets/lv_page.c:724:16
	lsls	r0, r0, #31
	cbz	r0, .LBB5_21
	b	.LBB5_20
.LBB5_20:
.Ltmp238:
	.loc	10 727 37                       @ lvgl/src/lv_widgets/lv_page.c:727:37
	ldr	r0, [sp, #264]
	.loc	10 727 56 is_stmt 0             @ lvgl/src/lv_widgets/lv_page.c:727:56
	ldr	r1, [sp, #252]
	.loc	10 727 72                       @ lvgl/src/lv_widgets/lv_page.c:727:72
	ldrsh.w	r2, [r1, #36]
	add	r1, sp, #124
	.loc	10 727 17                       @ lvgl/src/lv_widgets/lv_page.c:727:17
	str	r1, [sp, #4]                    @ 4-byte Spill
	bl	get_edge_flash_area
	add	r0, sp, #20
	.loc	10 730 17 is_stmt 1             @ lvgl/src/lv_widgets/lv_page.c:730:17
	str	r0, [sp, #8]                    @ 4-byte Spill
	bl	lv_draw_rect_dsc_init
	ldr	r2, [sp, #8]                    @ 4-byte Reload
	.loc	10 731 43                       @ lvgl/src/lv_widgets/lv_page.c:731:43
	ldr	r0, [sp, #264]
	movs	r1, #2
	.loc	10 731 17 is_stmt 0             @ lvgl/src/lv_widgets/lv_page.c:731:17
	bl	lv_obj_init_draw_rect_dsc
	ldr	r0, [sp, #4]                    @ 4-byte Reload
	ldr	r2, [sp, #8]                    @ 4-byte Reload
	movw	r1, #32767
	.loc	10 732 39 is_stmt 1             @ lvgl/src/lv_widgets/lv_page.c:732:39
	strh.w	r1, [sp, #20]
	.loc	10 733 58                       @ lvgl/src/lv_widgets/lv_page.c:733:58
	ldrb.w	r1, [sp, #38]
	.loc	10 733 67 is_stmt 0             @ lvgl/src/lv_widgets/lv_page.c:733:67
	ldr	r3, [sp, #252]
	.loc	10 733 83                       @ lvgl/src/lv_widgets/lv_page.c:733:83
	ldrsh.w	r3, [r3, #36]
	.loc	10 733 65                       @ lvgl/src/lv_widgets/lv_page.c:733:65
	muls	r1, r3, r1
	.loc	10 733 90                       @ lvgl/src/lv_widgets/lv_page.c:733:90
	add.w	r1, r1, r1, lsr #27
	asrs	r1, r1, #5
	.loc	10 733 26                       @ lvgl/src/lv_widgets/lv_page.c:733:26
	str	r1, [sp, #16]
	.loc	10 734 43 is_stmt 1             @ lvgl/src/lv_widgets/lv_page.c:734:43
	ldr	r1, [sp, #16]
	.loc	10 734 41 is_stmt 0             @ lvgl/src/lv_widgets/lv_page.c:734:41
	strb.w	r1, [sp, #38]
	.loc	10 735 43 is_stmt 1             @ lvgl/src/lv_widgets/lv_page.c:735:43
	ldr	r1, [sp, #260]
	.loc	10 735 17 is_stmt 0             @ lvgl/src/lv_widgets/lv_page.c:735:17
	bl	lv_draw_rect
	.loc	10 736 13 is_stmt 1             @ lvgl/src/lv_widgets/lv_page.c:736:13
	b	.LBB5_21
.Ltmp239:
.LBB5_21:
	.loc	10 739 5                        @ lvgl/src/lv_widgets/lv_page.c:739:5
	b	.LBB5_22
.Ltmp240:
.LBB5_22:
	.loc	10 0 5 is_stmt 0                @ lvgl/src/lv_widgets/lv_page.c:0:5
	b	.LBB5_23
.LBB5_23:
	movs	r0, #0
	.loc	10 741 5 is_stmt 1              @ lvgl/src/lv_widgets/lv_page.c:741:5
	strb.w	r0, [sp, #271]
	b	.LBB5_24
.LBB5_24:
	.loc	10 742 1                        @ lvgl/src/lv_widgets/lv_page.c:742:1
	ldrb.w	r0, [sp, #271]
	add	sp, #272
	pop	{r7, pc}
.Ltmp241:
.Lfunc_end5:
	.size	lv_page_design, .Lfunc_end5-lv_page_design
	.cfi_endproc
	.cantunwind
	.fnend
                                        @ -- End function
	.section	.text.lv_page_set_scrollbar_mode,"ax",%progbits
	.hidden	lv_page_set_scrollbar_mode      @ -- Begin function lv_page_set_scrollbar_mode
	.globl	lv_page_set_scrollbar_mode
	.p2align	3
	.type	lv_page_set_scrollbar_mode,%function
	.code	16                              @ @lv_page_set_scrollbar_mode
	.thumb_func
lv_page_set_scrollbar_mode:
.Lfunc_begin6:
	.loc	10 187 0                        @ lvgl/src/lv_widgets/lv_page.c:187:0
	.fnstart
	.cfi_startproc
@ %bb.0:
	.save	{r7, lr}
	push	{r7, lr}
	.cfi_def_cfa_offset 8
	.cfi_offset lr, -4
	.cfi_offset r7, -8
	.pad	#16
	sub	sp, #16
	.cfi_def_cfa_offset 24
                                        @ kill: def $r2 killed $r1
	str	r0, [sp, #12]
	strb.w	r1, [sp, #11]
.Ltmp242:
	.loc	10 188 5 prologue_end           @ lvgl/src/lv_widgets/lv_page.c:188:5
	b	.LBB6_1
.LBB6_1:
.Ltmp243:
	.loc	10 188 5 is_stmt 0              @ lvgl/src/lv_widgets/lv_page.c:188:5
	ldr	r0, [sp, #12]
	bl	lv_debug_check_null
.Ltmp244:
	.loc	10 188 5                        @ lvgl/src/lv_widgets/lv_page.c:188:5
	cbnz	r0, .LBB6_4
	b	.LBB6_2
.LBB6_2:
.Ltmp245:
	.loc	10 188 5                        @ lvgl/src/lv_widgets/lv_page.c:188:5
	ldr	r2, [sp, #12]
	movw	r0, :lower16:.L.str.1
	movt	r0, :upper16:.L.str.1
	movs	r3, #0
	bl	lv_debug_log_error
	b	.LBB6_3
.LBB6_3:                                @ =>This Inner Loop Header: Depth=1
	b	.LBB6_3
.Ltmp246:
.LBB6_4:
	.loc	10 188 5                        @ lvgl/src/lv_widgets/lv_page.c:188:5
	b	.LBB6_5
.Ltmp247:
.LBB6_5:
	.loc	10 190 47 is_stmt 1             @ lvgl/src/lv_widgets/lv_page.c:190:47
	ldr	r0, [sp, #12]
	.loc	10 190 27 is_stmt 0             @ lvgl/src/lv_widgets/lv_page.c:190:27
	bl	lv_obj_get_ext_attr
	.loc	10 190 21                       @ lvgl/src/lv_widgets/lv_page.c:190:21
	str	r0, [sp, #4]
.Ltmp248:
	.loc	10 191 8 is_stmt 1              @ lvgl/src/lv_widgets/lv_page.c:191:8
	ldr	r0, [sp, #4]
	.loc	10 191 21 is_stmt 0             @ lvgl/src/lv_widgets/lv_page.c:191:21
	ldrb.w	r0, [r0, #32]
	ubfx	r0, r0, #2, #3
	.loc	10 191 29                       @ lvgl/src/lv_widgets/lv_page.c:191:29
	ldrb.w	r1, [sp, #11]
.Ltmp249:
	.loc	10 191 8                        @ lvgl/src/lv_widgets/lv_page.c:191:8
	cmp	r0, r1
	bne	.LBB6_7
	b	.LBB6_6
.LBB6_6:
.Ltmp250:
	.loc	10 191 38                       @ lvgl/src/lv_widgets/lv_page.c:191:38
	b	.LBB6_16
.Ltmp251:
.LBB6_7:
	.loc	10 193 8 is_stmt 1              @ lvgl/src/lv_widgets/lv_page.c:193:8
	ldrb.w	r0, [sp, #11]
.Ltmp252:
	.loc	10 193 8 is_stmt 0              @ lvgl/src/lv_widgets/lv_page.c:193:8
	cmp	r0, #4
	bne	.LBB6_9
	b	.LBB6_8
.LBB6_8:
.Ltmp253:
	.loc	10 194 9 is_stmt 1              @ lvgl/src/lv_widgets/lv_page.c:194:9
	ldr	r1, [sp, #4]
	.loc	10 194 27 is_stmt 0             @ lvgl/src/lv_widgets/lv_page.c:194:27
	ldrb.w	r0, [r1, #32]
	orr	r0, r0, #16
	strb.w	r0, [r1, #32]
	.loc	10 194 9                        @ lvgl/src/lv_widgets/lv_page.c:194:9
	b	.LBB6_15
.LBB6_9:
.Ltmp254:
	.loc	10 195 13 is_stmt 1             @ lvgl/src/lv_widgets/lv_page.c:195:13
	ldrb.w	r0, [sp, #11]
.Ltmp255:
	.loc	10 195 13 is_stmt 0             @ lvgl/src/lv_widgets/lv_page.c:195:13
	cmp	r0, #8
	bne	.LBB6_11
	b	.LBB6_10
.LBB6_10:
.Ltmp256:
	.loc	10 196 9 is_stmt 1              @ lvgl/src/lv_widgets/lv_page.c:196:9
	ldr	r1, [sp, #4]
	.loc	10 196 27 is_stmt 0             @ lvgl/src/lv_widgets/lv_page.c:196:27
	ldrb.w	r0, [r1, #32]
	and	r0, r0, #239
	strb.w	r0, [r1, #32]
	.loc	10 196 9                        @ lvgl/src/lv_widgets/lv_page.c:196:9
	b	.LBB6_14
.LBB6_11:
.Ltmp257:
	.loc	10 198 12 is_stmt 1             @ lvgl/src/lv_widgets/lv_page.c:198:12
	ldr	r0, [sp, #4]
	.loc	10 198 25 is_stmt 0             @ lvgl/src/lv_widgets/lv_page.c:198:25
	ldrb.w	r0, [r0, #32]
	lsrs	r0, r0, #2
.Ltmp258:
	.loc	10 198 12                       @ lvgl/src/lv_widgets/lv_page.c:198:12
	lsls	r0, r0, #29
	cmp	r0, #0
	bpl	.LBB6_13
	b	.LBB6_12
.LBB6_12:
.Ltmp259:
	.loc	10 198 64                       @ lvgl/src/lv_widgets/lv_page.c:198:64
	ldrb.w	r0, [sp, #11]
	orr	r0, r0, #4
	strb.w	r0, [sp, #11]
	.loc	10 198 56                       @ lvgl/src/lv_widgets/lv_page.c:198:56
	b	.LBB6_13
.Ltmp260:
.LBB6_13:
	.loc	10 199 29 is_stmt 1             @ lvgl/src/lv_widgets/lv_page.c:199:29
	ldrb.w	r2, [sp, #11]
	.loc	10 199 9 is_stmt 0              @ lvgl/src/lv_widgets/lv_page.c:199:9
	ldr	r1, [sp, #4]
	.loc	10 199 27                       @ lvgl/src/lv_widgets/lv_page.c:199:27
	ldrb.w	r0, [r1, #32]
	and	r2, r2, #7
	and	r0, r0, #227
	orr.w	r0, r0, r2, lsl #2
	strb.w	r0, [r1, #32]
	b	.LBB6_14
.Ltmp261:
.LBB6_14:
	.loc	10 0 27                         @ lvgl/src/lv_widgets/lv_page.c:0:27
	b	.LBB6_15
.LBB6_15:
	.loc	10 202 5 is_stmt 1              @ lvgl/src/lv_widgets/lv_page.c:202:5
	ldr	r1, [sp, #4]
	.loc	10 202 27 is_stmt 0             @ lvgl/src/lv_widgets/lv_page.c:202:27
	ldrb.w	r0, [r1, #32]
	and	r0, r0, #254
	strb.w	r0, [r1, #32]
	.loc	10 203 5 is_stmt 1              @ lvgl/src/lv_widgets/lv_page.c:203:5
	ldr	r1, [sp, #4]
	.loc	10 203 27 is_stmt 0             @ lvgl/src/lv_widgets/lv_page.c:203:27
	ldrb.w	r0, [r1, #32]
	and	r0, r0, #253
	strb.w	r0, [r1, #32]
	.loc	10 205 21 is_stmt 1             @ lvgl/src/lv_widgets/lv_page.c:205:21
	ldr	r0, [sp, #12]
	.loc	10 205 5 is_stmt 0              @ lvgl/src/lv_widgets/lv_page.c:205:5
	bl	scrlbar_refresh
	.loc	10 206 23 is_stmt 1             @ lvgl/src/lv_widgets/lv_page.c:206:23
	ldr	r0, [sp, #12]
	.loc	10 206 5 is_stmt 0              @ lvgl/src/lv_widgets/lv_page.c:206:5
	bl	lv_obj_invalidate
	.loc	10 207 1 is_stmt 1              @ lvgl/src/lv_widgets/lv_page.c:207:1
	b	.LBB6_16
.LBB6_16:
	add	sp, #16
	pop	{r7, pc}
.Ltmp262:
.Lfunc_end6:
	.size	lv_page_set_scrollbar_mode, .Lfunc_end6-lv_page_set_scrollbar_mode
	.cfi_endproc
	.cantunwind
	.fnend
                                        @ -- End function
	.section	.text.scrlbar_refresh,"ax",%progbits
	.p2align	3                               @ -- Begin function scrlbar_refresh
	.type	scrlbar_refresh,%function
	.code	16                              @ @scrlbar_refresh
	.thumb_func
scrlbar_refresh:
.Lfunc_begin7:
	.loc	10 1177 0                       @ lvgl/src/lv_widgets/lv_page.c:1177:0
	.fnstart
	.cfi_startproc
@ %bb.0:
	.save	{r4, lr}
	push	{r4, lr}
	.cfi_def_cfa_offset 8
	.cfi_offset lr, -4
	.cfi_offset r4, -8
	.pad	#128
	sub	sp, #128
	.cfi_def_cfa_offset 136
	str	r0, [sp, #124]
.Ltmp263:
	.loc	10 1178 52 prologue_end         @ lvgl/src/lv_widgets/lv_page.c:1178:52
	ldr	r0, [sp, #124]
	.loc	10 1178 32 is_stmt 0            @ lvgl/src/lv_widgets/lv_page.c:1178:32
	bl	lv_obj_get_ext_attr
	.loc	10 1178 21                      @ lvgl/src/lv_widgets/lv_page.c:1178:21
	str	r0, [sp, #120]
	.loc	10 1179 32 is_stmt 1            @ lvgl/src/lv_widgets/lv_page.c:1179:32
	ldr	r0, [sp, #120]
	.loc	10 1179 37 is_stmt 0            @ lvgl/src/lv_widgets/lv_page.c:1179:37
	ldr	r0, [r0, #4]
	.loc	10 1179 16                      @ lvgl/src/lv_widgets/lv_page.c:1179:16
	str	r0, [sp, #116]
	.loc	10 1181 42 is_stmt 1            @ lvgl/src/lv_widgets/lv_page.c:1181:42
	ldr	r0, [sp, #116]
	.loc	10 1181 25 is_stmt 0            @ lvgl/src/lv_widgets/lv_page.c:1181:25
	bl	lv_obj_get_width
	.loc	10 1181 16                      @ lvgl/src/lv_widgets/lv_page.c:1181:16
	strh.w	r0, [sp, #112]
	.loc	10 1182 43 is_stmt 1            @ lvgl/src/lv_widgets/lv_page.c:1182:43
	ldr	r0, [sp, #116]
	.loc	10 1182 25 is_stmt 0            @ lvgl/src/lv_widgets/lv_page.c:1182:25
	bl	lv_obj_get_height
	.loc	10 1182 16                      @ lvgl/src/lv_widgets/lv_page.c:1182:16
	strh.w	r0, [sp, #110]
	.loc	10 1183 42 is_stmt 1            @ lvgl/src/lv_widgets/lv_page.c:1183:42
	ldr	r0, [sp, #124]
	.loc	10 1183 25 is_stmt 0            @ lvgl/src/lv_widgets/lv_page.c:1183:25
	bl	lv_obj_get_width
	.loc	10 1183 16                      @ lvgl/src/lv_widgets/lv_page.c:1183:16
	strh.w	r0, [sp, #108]
	.loc	10 1184 43 is_stmt 1            @ lvgl/src/lv_widgets/lv_page.c:1184:43
	ldr	r0, [sp, #124]
	.loc	10 1184 25 is_stmt 0            @ lvgl/src/lv_widgets/lv_page.c:1184:25
	bl	lv_obj_get_height
	.loc	10 1184 16                      @ lvgl/src/lv_widgets/lv_page.c:1184:16
	strh.w	r0, [sp, #106]
	.loc	10 1186 53 is_stmt 1            @ lvgl/src/lv_widgets/lv_page.c:1186:53
	ldr	r0, [sp, #124]
	movs	r1, #1
	.loc	10 1186 31 is_stmt 0            @ lvgl/src/lv_widgets/lv_page.c:1186:31
	str	r1, [sp, #56]                   @ 4-byte Spill
	bl	lv_obj_get_style_size
	ldr	r1, [sp, #56]                   @ 4-byte Reload
	.loc	10 1186 20                      @ lvgl/src/lv_widgets/lv_page.c:1186:20
	strh.w	r0, [sp, #104]
	.loc	10 1187 58 is_stmt 1            @ lvgl/src/lv_widgets/lv_page.c:1187:58
	ldr	r0, [sp, #124]
	.loc	10 1187 31 is_stmt 0            @ lvgl/src/lv_widgets/lv_page.c:1187:31
	bl	lv_obj_get_style_pad_right
	ldr	r1, [sp, #56]                   @ 4-byte Reload
	.loc	10 1187 20                      @ lvgl/src/lv_widgets/lv_page.c:1187:20
	strh.w	r0, [sp, #102]
	.loc	10 1188 60 is_stmt 1            @ lvgl/src/lv_widgets/lv_page.c:1188:60
	ldr	r0, [sp, #124]
	.loc	10 1188 32 is_stmt 0            @ lvgl/src/lv_widgets/lv_page.c:1188:32
	bl	lv_obj_get_style_pad_bottom
	.loc	10 1188 20                      @ lvgl/src/lv_widgets/lv_page.c:1188:20
	strh.w	r0, [sp, #100]
	.loc	10 1190 56 is_stmt 1            @ lvgl/src/lv_widgets/lv_page.c:1190:56
	ldr	r0, [sp, #124]
	movs	r1, #0
	.loc	10 1190 30 is_stmt 0            @ lvgl/src/lv_widgets/lv_page.c:1190:30
	str	r1, [sp, #60]                   @ 4-byte Spill
	bl	lv_obj_get_style_pad_left
	ldr	r1, [sp, #60]                   @ 4-byte Reload
	.loc	10 1190 20                      @ lvgl/src/lv_widgets/lv_page.c:1190:20
	strh.w	r0, [sp, #98]
	.loc	10 1191 58 is_stmt 1            @ lvgl/src/lv_widgets/lv_page.c:1191:58
	ldr	r0, [sp, #124]
	.loc	10 1191 31 is_stmt 0            @ lvgl/src/lv_widgets/lv_page.c:1191:31
	bl	lv_obj_get_style_pad_right
	ldr	r1, [sp, #60]                   @ 4-byte Reload
	.loc	10 1191 20                      @ lvgl/src/lv_widgets/lv_page.c:1191:20
	strh.w	r0, [sp, #96]
	.loc	10 1192 54 is_stmt 1            @ lvgl/src/lv_widgets/lv_page.c:1192:54
	ldr	r0, [sp, #124]
	.loc	10 1192 29 is_stmt 0            @ lvgl/src/lv_widgets/lv_page.c:1192:29
	bl	lv_obj_get_style_pad_top
	ldr	r1, [sp, #60]                   @ 4-byte Reload
	.loc	10 1192 20                      @ lvgl/src/lv_widgets/lv_page.c:1192:20
	strh.w	r0, [sp, #94]
	.loc	10 1193 60 is_stmt 1            @ lvgl/src/lv_widgets/lv_page.c:1193:60
	ldr	r0, [sp, #124]
	.loc	10 1193 32 is_stmt 0            @ lvgl/src/lv_widgets/lv_page.c:1193:32
	bl	lv_obj_get_style_pad_bottom
	.loc	10 1193 20                      @ lvgl/src/lv_widgets/lv_page.c:1193:20
	strh.w	r0, [sp, #92]
	.loc	10 1199 29 is_stmt 1            @ lvgl/src/lv_widgets/lv_page.c:1199:29
	ldrsh.w	r0, [sp, #104]
	ldrsh.w	r1, [sp, #102]
	cmp	r0, r1
	ble	.LBB7_2
	b	.LBB7_1
.LBB7_1:
	ldrsh.w	r0, [sp, #104]
	str	r0, [sp, #52]                   @ 4-byte Spill
	b	.LBB7_3
.LBB7_2:
	ldrsh.w	r0, [sp, #102]
	str	r0, [sp, #52]                   @ 4-byte Spill
	b	.LBB7_3
.LBB7_3:
	ldr	r0, [sp, #52]                   @ 4-byte Reload
	.loc	10 1199 16 is_stmt 0            @ lvgl/src/lv_widgets/lv_page.c:1199:16
	strh.w	r0, [sp, #90]
	.loc	10 1200 29 is_stmt 1            @ lvgl/src/lv_widgets/lv_page.c:1200:29
	ldrsh.w	r0, [sp, #104]
	ldrsh.w	r1, [sp, #100]
	cmp	r0, r1
	ble	.LBB7_5
	b	.LBB7_4
.LBB7_4:
	ldrsh.w	r0, [sp, #104]
	str	r0, [sp, #48]                   @ 4-byte Spill
	b	.LBB7_6
.LBB7_5:
	ldrsh.w	r0, [sp, #100]
	str	r0, [sp, #48]                   @ 4-byte Spill
	b	.LBB7_6
.LBB7_6:
	ldr	r0, [sp, #48]                   @ 4-byte Reload
	.loc	10 1200 16 is_stmt 0            @ lvgl/src/lv_widgets/lv_page.c:1200:16
	strh.w	r0, [sp, #88]
.Ltmp264:
	.loc	10 1202 8 is_stmt 1             @ lvgl/src/lv_widgets/lv_page.c:1202:8
	ldr	r0, [sp, #120]
	.loc	10 1202 21 is_stmt 0            @ lvgl/src/lv_widgets/lv_page.c:1202:21
	ldrb.w	r0, [r0, #32]
	lsrs	r0, r0, #2
.Ltmp265:
	.loc	10 1202 8                       @ lvgl/src/lv_widgets/lv_page.c:1202:8
	lsls	r0, r0, #29
	cbnz	r0, .LBB7_8
	b	.LBB7_7
.LBB7_7:
.Ltmp266:
	.loc	10 1202 52                      @ lvgl/src/lv_widgets/lv_page.c:1202:52
	b	.LBB7_72
.Ltmp267:
.LBB7_8:
	.loc	10 1204 8 is_stmt 1             @ lvgl/src/lv_widgets/lv_page.c:1204:8
	ldr	r0, [sp, #120]
	.loc	10 1204 21 is_stmt 0            @ lvgl/src/lv_widgets/lv_page.c:1204:21
	ldrb.w	r0, [r0, #32]
	ubfx	r0, r0, #2, #3
.Ltmp268:
	.loc	10 1204 8                       @ lvgl/src/lv_widgets/lv_page.c:1204:8
	cmp	r0, #1
	bne	.LBB7_10
	b	.LBB7_9
.LBB7_9:
.Ltmp269:
	.loc	10 1205 9 is_stmt 1             @ lvgl/src/lv_widgets/lv_page.c:1205:9
	ldr	r1, [sp, #120]
	.loc	10 1205 31 is_stmt 0            @ lvgl/src/lv_widgets/lv_page.c:1205:31
	ldrb.w	r0, [r1, #32]
	orr	r0, r0, #1
	strb.w	r0, [r1, #32]
	.loc	10 1206 9 is_stmt 1             @ lvgl/src/lv_widgets/lv_page.c:1206:9
	ldr	r1, [sp, #120]
	.loc	10 1206 31 is_stmt 0            @ lvgl/src/lv_widgets/lv_page.c:1206:31
	ldrb.w	r0, [r1, #32]
	orr	r0, r0, #2
	strb.w	r0, [r1, #32]
	.loc	10 1207 5 is_stmt 1             @ lvgl/src/lv_widgets/lv_page.c:1207:5
	b	.LBB7_10
.Ltmp270:
.LBB7_10:
	.loc	10 1211 8                       @ lvgl/src/lv_widgets/lv_page.c:1211:8
	ldr	r0, [sp, #120]
	.loc	10 1211 21 is_stmt 0            @ lvgl/src/lv_widgets/lv_page.c:1211:21
	ldrb.w	r0, [r0, #32]
.Ltmp271:
	.loc	10 1211 8                       @ lvgl/src/lv_widgets/lv_page.c:1211:8
	lsls	r0, r0, #31
	cbz	r0, .LBB7_12
	b	.LBB7_11
.LBB7_11:
.Ltmp272:
	.loc	10 1212 37 is_stmt 1            @ lvgl/src/lv_widgets/lv_page.c:1212:37
	ldr	r0, [sp, #120]
	.loc	10 1212 50 is_stmt 0            @ lvgl/src/lv_widgets/lv_page.c:1212:50
	add.w	r1, r0, #16
	add	r0, sp, #80
	.loc	10 1212 9                       @ lvgl/src/lv_widgets/lv_page.c:1212:9
	str	r0, [sp, #44]                   @ 4-byte Spill
	bl	lv_area_copy
	ldr	r1, [sp, #44]                   @ 4-byte Reload
	.loc	10 1213 27 is_stmt 1            @ lvgl/src/lv_widgets/lv_page.c:1213:27
	ldr	r0, [sp, #124]
	ldrh	r2, [r0, #16]
	.loc	10 1213 24 is_stmt 0            @ lvgl/src/lv_widgets/lv_page.c:1213:24
	ldrh.w	r0, [sp, #80]
	add	r0, r2
	strh.w	r0, [sp, #80]
	.loc	10 1214 27 is_stmt 1            @ lvgl/src/lv_widgets/lv_page.c:1214:27
	ldr	r0, [sp, #124]
	ldrh	r2, [r0, #18]
	.loc	10 1214 24 is_stmt 0            @ lvgl/src/lv_widgets/lv_page.c:1214:24
	ldrh.w	r0, [sp, #82]
	add	r0, r2
	strh.w	r0, [sp, #82]
	.loc	10 1215 27 is_stmt 1            @ lvgl/src/lv_widgets/lv_page.c:1215:27
	ldr	r0, [sp, #124]
	ldrh	r2, [r0, #16]
	.loc	10 1215 24 is_stmt 0            @ lvgl/src/lv_widgets/lv_page.c:1215:24
	ldrh.w	r0, [sp, #84]
	add	r0, r2
	strh.w	r0, [sp, #84]
	.loc	10 1216 27 is_stmt 1            @ lvgl/src/lv_widgets/lv_page.c:1216:27
	ldr	r0, [sp, #124]
	ldrh	r2, [r0, #18]
	.loc	10 1216 24 is_stmt 0            @ lvgl/src/lv_widgets/lv_page.c:1216:24
	ldrh.w	r0, [sp, #86]
	add	r0, r2
	strh.w	r0, [sp, #86]
	.loc	10 1217 32 is_stmt 1            @ lvgl/src/lv_widgets/lv_page.c:1217:32
	ldr	r0, [sp, #124]
	.loc	10 1217 9 is_stmt 0             @ lvgl/src/lv_widgets/lv_page.c:1217:9
	bl	lv_obj_invalidate_area
	.loc	10 1218 5 is_stmt 1             @ lvgl/src/lv_widgets/lv_page.c:1218:5
	b	.LBB7_12
.Ltmp273:
.LBB7_12:
	.loc	10 1219 8                       @ lvgl/src/lv_widgets/lv_page.c:1219:8
	ldr	r0, [sp, #120]
	.loc	10 1219 21 is_stmt 0            @ lvgl/src/lv_widgets/lv_page.c:1219:21
	ldrb.w	r0, [r0, #32]
	lsrs	r0, r0, #1
.Ltmp274:
	.loc	10 1219 8                       @ lvgl/src/lv_widgets/lv_page.c:1219:8
	lsls	r0, r0, #31
	cbz	r0, .LBB7_14
	b	.LBB7_13
.LBB7_13:
.Ltmp275:
	.loc	10 1220 37 is_stmt 1            @ lvgl/src/lv_widgets/lv_page.c:1220:37
	ldr	r0, [sp, #120]
	.loc	10 1220 50 is_stmt 0            @ lvgl/src/lv_widgets/lv_page.c:1220:50
	add.w	r1, r0, #24
	add	r0, sp, #80
	.loc	10 1220 9                       @ lvgl/src/lv_widgets/lv_page.c:1220:9
	str	r0, [sp, #40]                   @ 4-byte Spill
	bl	lv_area_copy
	ldr	r1, [sp, #40]                   @ 4-byte Reload
	.loc	10 1221 27 is_stmt 1            @ lvgl/src/lv_widgets/lv_page.c:1221:27
	ldr	r0, [sp, #124]
	ldrh	r2, [r0, #16]
	.loc	10 1221 24 is_stmt 0            @ lvgl/src/lv_widgets/lv_page.c:1221:24
	ldrh.w	r0, [sp, #80]
	add	r0, r2
	strh.w	r0, [sp, #80]
	.loc	10 1222 27 is_stmt 1            @ lvgl/src/lv_widgets/lv_page.c:1222:27
	ldr	r0, [sp, #124]
	ldrh	r2, [r0, #18]
	.loc	10 1222 24 is_stmt 0            @ lvgl/src/lv_widgets/lv_page.c:1222:24
	ldrh.w	r0, [sp, #82]
	add	r0, r2
	strh.w	r0, [sp, #82]
	.loc	10 1223 27 is_stmt 1            @ lvgl/src/lv_widgets/lv_page.c:1223:27
	ldr	r0, [sp, #124]
	ldrh	r2, [r0, #16]
	.loc	10 1223 24 is_stmt 0            @ lvgl/src/lv_widgets/lv_page.c:1223:24
	ldrh.w	r0, [sp, #84]
	add	r0, r2
	strh.w	r0, [sp, #84]
	.loc	10 1224 27 is_stmt 1            @ lvgl/src/lv_widgets/lv_page.c:1224:27
	ldr	r0, [sp, #124]
	ldrh	r2, [r0, #18]
	.loc	10 1224 24 is_stmt 0            @ lvgl/src/lv_widgets/lv_page.c:1224:24
	ldrh.w	r0, [sp, #86]
	add	r0, r2
	strh.w	r0, [sp, #86]
	.loc	10 1225 32 is_stmt 1            @ lvgl/src/lv_widgets/lv_page.c:1225:32
	ldr	r0, [sp, #124]
	.loc	10 1225 9 is_stmt 0             @ lvgl/src/lv_widgets/lv_page.c:1225:9
	bl	lv_obj_invalidate_area
	.loc	10 1226 5 is_stmt 1             @ lvgl/src/lv_widgets/lv_page.c:1226:5
	b	.LBB7_14
.Ltmp276:
.LBB7_14:
	.loc	10 1229 8                       @ lvgl/src/lv_widgets/lv_page.c:1229:8
	ldrsh.w	r0, [sp, #112]
	.loc	10 1229 18 is_stmt 0            @ lvgl/src/lv_widgets/lv_page.c:1229:18
	ldrsh.w	r1, [sp, #108]
	.loc	10 1229 26                      @ lvgl/src/lv_widgets/lv_page.c:1229:26
	ldrsh.w	r2, [sp, #98]
	.loc	10 1229 24                      @ lvgl/src/lv_widgets/lv_page.c:1229:24
	subs	r1, r1, r2
	.loc	10 1229 36                      @ lvgl/src/lv_widgets/lv_page.c:1229:36
	ldrsh.w	r2, [sp, #96]
	.loc	10 1229 34                      @ lvgl/src/lv_widgets/lv_page.c:1229:34
	subs	r1, r1, r2
.Ltmp277:
	.loc	10 1229 8                       @ lvgl/src/lv_widgets/lv_page.c:1229:8
	cmp	r0, r1
	bgt	.LBB7_19
	b	.LBB7_15
.LBB7_15:
.Ltmp278:
	.loc	10 1230 28 is_stmt 1            @ lvgl/src/lv_widgets/lv_page.c:1230:28
	ldr	r0, [sp, #120]
	.loc	10 1230 41 is_stmt 0            @ lvgl/src/lv_widgets/lv_page.c:1230:41
	adds	r0, #16
	.loc	10 1230 51                      @ lvgl/src/lv_widgets/lv_page.c:1230:51
	ldrh.w	r1, [sp, #108]
	.loc	10 1230 63                      @ lvgl/src/lv_widgets/lv_page.c:1230:63
	ldrh.w	r2, [sp, #90]
	.loc	10 1230 57                      @ lvgl/src/lv_widgets/lv_page.c:1230:57
	sub.w	r1, r1, r2, lsl #1
	.loc	10 1230 9                       @ lvgl/src/lv_widgets/lv_page.c:1230:9
	sxth	r1, r1
	bl	lv_area_set_width
	.loc	10 1231 27 is_stmt 1            @ lvgl/src/lv_widgets/lv_page.c:1231:27
	ldr	r0, [sp, #120]
	.loc	10 1231 40 is_stmt 0            @ lvgl/src/lv_widgets/lv_page.c:1231:40
	adds	r0, #16
	.loc	10 1231 50                      @ lvgl/src/lv_widgets/lv_page.c:1231:50
	ldrsh.w	r1, [sp, #90]
	.loc	10 1232 26 is_stmt 1            @ lvgl/src/lv_widgets/lv_page.c:1232:26
	ldrh.w	r2, [sp, #106]
	.loc	10 1232 34 is_stmt 0            @ lvgl/src/lv_widgets/lv_page.c:1232:34
	ldrh.w	r3, [sp, #104]
	.loc	10 1232 32                      @ lvgl/src/lv_widgets/lv_page.c:1232:32
	subs	r2, r2, r3
	.loc	10 1232 45                      @ lvgl/src/lv_widgets/lv_page.c:1232:45
	ldrh.w	r3, [sp, #100]
	.loc	10 1232 43                      @ lvgl/src/lv_widgets/lv_page.c:1232:43
	subs	r2, r2, r3
	.loc	10 1231 9 is_stmt 1             @ lvgl/src/lv_widgets/lv_page.c:1231:9
	sxth	r2, r2
	bl	_lv_area_set_pos
.Ltmp279:
	.loc	10 1233 12                      @ lvgl/src/lv_widgets/lv_page.c:1233:12
	ldr	r0, [sp, #120]
	.loc	10 1233 25 is_stmt 0            @ lvgl/src/lv_widgets/lv_page.c:1233:25
	ldrb.w	r0, [r0, #32]
	ubfx	r0, r0, #2, #3
	.loc	10 1233 56                      @ lvgl/src/lv_widgets/lv_page.c:1233:56
	cmp	r0, #3
	beq	.LBB7_17
	b	.LBB7_16
.LBB7_16:
	.loc	10 1234 12 is_stmt 1            @ lvgl/src/lv_widgets/lv_page.c:1234:12
	ldr	r0, [sp, #120]
	.loc	10 1234 25 is_stmt 0            @ lvgl/src/lv_widgets/lv_page.c:1234:25
	ldrb.w	r0, [r0, #32]
	ubfx	r0, r0, #2, #3
.Ltmp280:
	.loc	10 1233 12 is_stmt 1            @ lvgl/src/lv_widgets/lv_page.c:1233:12
	cmp	r0, #2
	bne	.LBB7_18
	b	.LBB7_17
.LBB7_17:
.Ltmp281:
	.loc	10 1234 57                      @ lvgl/src/lv_widgets/lv_page.c:1234:57
	ldr	r1, [sp, #120]
	.loc	10 1234 79 is_stmt 0            @ lvgl/src/lv_widgets/lv_page.c:1234:79
	ldrb.w	r0, [r1, #32]
	and	r0, r0, #254
	strb.w	r0, [r1, #32]
	.loc	10 1234 57                      @ lvgl/src/lv_widgets/lv_page.c:1234:57
	b	.LBB7_18
.Ltmp282:
.LBB7_18:
	.loc	10 1235 5 is_stmt 1             @ lvgl/src/lv_widgets/lv_page.c:1235:5
	b	.LBB7_41
.Ltmp283:
.LBB7_19:
	.loc	10 1239 14                      @ lvgl/src/lv_widgets/lv_page.c:1239:14
	ldrsh.w	r0, [sp, #108]
	.loc	10 1239 36 is_stmt 0            @ lvgl/src/lv_widgets/lv_page.c:1239:36
	ldrsh.w	r1, [sp, #90]
	.loc	10 1239 29                      @ lvgl/src/lv_widgets/lv_page.c:1239:29
	sub.w	r1, r0, r1, lsl #1
	.loc	10 1239 20                      @ lvgl/src/lv_widgets/lv_page.c:1239:20
	muls	r0, r1, r0
	.loc	10 1239 53                      @ lvgl/src/lv_widgets/lv_page.c:1239:53
	ldrsh.w	r1, [sp, #112]
	.loc	10 1239 62                      @ lvgl/src/lv_widgets/lv_page.c:1239:62
	ldrsh.w	r2, [sp, #98]
	.loc	10 1239 60                      @ lvgl/src/lv_widgets/lv_page.c:1239:60
	add	r1, r2
	.loc	10 1239 72                      @ lvgl/src/lv_widgets/lv_page.c:1239:72
	ldrsh.w	r2, [sp, #96]
	.loc	10 1239 70                      @ lvgl/src/lv_widgets/lv_page.c:1239:70
	add	r1, r2
	.loc	10 1239 50                      @ lvgl/src/lv_widgets/lv_page.c:1239:50
	sdiv	r0, r0, r1
	.loc	10 1238 18 is_stmt 1            @ lvgl/src/lv_widgets/lv_page.c:1238:18
	strh.w	r0, [sp, #114]
.Ltmp284:
	.loc	10 1240 12                      @ lvgl/src/lv_widgets/lv_page.c:1240:12
	ldrsh.w	r0, [sp, #114]
.Ltmp285:
	.loc	10 1240 12 is_stmt 0            @ lvgl/src/lv_widgets/lv_page.c:1240:12
	cmp	r0, #15
	bgt	.LBB7_21
	b	.LBB7_20
.LBB7_20:
	.loc	10 0 12                         @ lvgl/src/lv_widgets/lv_page.c:0:12
	movs	r0, #16
.Ltmp286:
	.loc	10 1240 53                      @ lvgl/src/lv_widgets/lv_page.c:1240:53
	strh.w	r0, [sp, #114]
	.loc	10 1240 44                      @ lvgl/src/lv_widgets/lv_page.c:1240:44
	b	.LBB7_21
.Ltmp287:
.LBB7_21:
	.loc	10 1241 28 is_stmt 1            @ lvgl/src/lv_widgets/lv_page.c:1241:28
	ldr	r0, [sp, #120]
	.loc	10 1241 41 is_stmt 0            @ lvgl/src/lv_widgets/lv_page.c:1241:41
	adds	r0, #16
	.loc	10 1241 51                      @ lvgl/src/lv_widgets/lv_page.c:1241:51
	ldrsh.w	r1, [sp, #114]
	.loc	10 1241 9                       @ lvgl/src/lv_widgets/lv_page.c:1241:9
	bl	lv_area_set_width
	.loc	10 1243 27 is_stmt 1            @ lvgl/src/lv_widgets/lv_page.c:1243:27
	ldr	r0, [sp, #120]
	.loc	10 1243 40 is_stmt 0            @ lvgl/src/lv_widgets/lv_page.c:1243:40
	adds	r0, #16
	.loc	10 1244 26 is_stmt 1            @ lvgl/src/lv_widgets/lv_page.c:1244:26
	str	r0, [sp, #36]                   @ 4-byte Spill
	ldrh.w	r0, [sp, #90]
	.loc	10 1245 42                      @ lvgl/src/lv_widgets/lv_page.c:1245:42
	str	r0, [sp, #32]                   @ 4-byte Spill
	ldr	r0, [sp, #116]
	.loc	10 1245 29 is_stmt 0            @ lvgl/src/lv_widgets/lv_page.c:1245:29
	bl	lv_obj_get_x
	ldr	r1, [sp, #32]                   @ 4-byte Reload
	mov	r2, r0
	.loc	10 1245 50                      @ lvgl/src/lv_widgets/lv_page.c:1245:50
	ldr	r0, [sp, #36]                   @ 4-byte Reload
	ldrsh.w	lr, [sp, #98]
	.loc	10 1245 27                      @ lvgl/src/lv_widgets/lv_page.c:1245:27
	sub.w	r2, lr, r2
	.loc	10 1245 62                      @ lvgl/src/lv_widgets/lv_page.c:1245:62
	ldrsh.w	r12, [sp, #108]
	.loc	10 1245 70                      @ lvgl/src/lv_widgets/lv_page.c:1245:70
	ldrsh.w	r3, [sp, #114]
	.loc	10 1245 68                      @ lvgl/src/lv_widgets/lv_page.c:1245:68
	sub.w	r3, r12, r3
	.loc	10 1245 85                      @ lvgl/src/lv_widgets/lv_page.c:1245:85
	ldrsh.w	r4, [sp, #90]
	.loc	10 1245 79                      @ lvgl/src/lv_widgets/lv_page.c:1245:79
	sub.w	r3, r3, r4, lsl #1
	.loc	10 1245 59                      @ lvgl/src/lv_widgets/lv_page.c:1245:59
	muls	r2, r3, r2
	.loc	10 1246 27 is_stmt 1            @ lvgl/src/lv_widgets/lv_page.c:1246:27
	ldrsh.w	r3, [sp, #112]
	.loc	10 1246 34 is_stmt 0            @ lvgl/src/lv_widgets/lv_page.c:1246:34
	add	r3, lr
	.loc	10 1246 46                      @ lvgl/src/lv_widgets/lv_page.c:1246:46
	ldrsh.w	lr, [sp, #96]
	.loc	10 1246 44                      @ lvgl/src/lv_widgets/lv_page.c:1246:44
	add	r3, lr
	.loc	10 1246 55                      @ lvgl/src/lv_widgets/lv_page.c:1246:55
	sub.w	r3, r3, r12
	.loc	10 1245 98 is_stmt 1            @ lvgl/src/lv_widgets/lv_page.c:1245:98
	sdiv	r2, r2, r3
	.loc	10 1244 37                      @ lvgl/src/lv_widgets/lv_page.c:1244:37
	add	r1, r2
	.loc	10 1247 26                      @ lvgl/src/lv_widgets/lv_page.c:1247:26
	ldrh.w	r2, [sp, #106]
	.loc	10 1247 34 is_stmt 0            @ lvgl/src/lv_widgets/lv_page.c:1247:34
	ldrh.w	r3, [sp, #104]
	.loc	10 1247 32                      @ lvgl/src/lv_widgets/lv_page.c:1247:32
	subs	r2, r2, r3
	.loc	10 1247 45                      @ lvgl/src/lv_widgets/lv_page.c:1247:45
	ldrh.w	r3, [sp, #100]
	.loc	10 1247 43                      @ lvgl/src/lv_widgets/lv_page.c:1247:43
	subs	r2, r2, r3
	.loc	10 1243 9 is_stmt 1             @ lvgl/src/lv_widgets/lv_page.c:1243:9
	sxth	r1, r1
	sxth	r2, r2
	bl	_lv_area_set_pos
.Ltmp288:
	.loc	10 1249 12                      @ lvgl/src/lv_widgets/lv_page.c:1249:12
	ldr	r0, [sp, #120]
	.loc	10 1249 25 is_stmt 0            @ lvgl/src/lv_widgets/lv_page.c:1249:25
	ldrb.w	r0, [r0, #32]
	ubfx	r0, r0, #2, #3
.Ltmp289:
	.loc	10 1249 12                      @ lvgl/src/lv_widgets/lv_page.c:1249:12
	cmp	r0, #3
	bne	.LBB7_23
	b	.LBB7_22
.LBB7_22:
.Ltmp290:
	.loc	10 1249 57                      @ lvgl/src/lv_widgets/lv_page.c:1249:57
	ldr	r1, [sp, #120]
	.loc	10 1249 79                      @ lvgl/src/lv_widgets/lv_page.c:1249:79
	ldrb.w	r0, [r1, #32]
	orr	r0, r0, #1
	strb.w	r0, [r1, #32]
	.loc	10 1249 57                      @ lvgl/src/lv_widgets/lv_page.c:1249:57
	b	.LBB7_40
.LBB7_23:
.Ltmp291:
	.loc	10 1250 17 is_stmt 1            @ lvgl/src/lv_widgets/lv_page.c:1250:17
	ldr	r0, [sp, #120]
	.loc	10 1250 30 is_stmt 0            @ lvgl/src/lv_widgets/lv_page.c:1250:30
	ldrb.w	r0, [r0, #32]
	ubfx	r0, r0, #2, #3
.Ltmp292:
	.loc	10 1250 17                      @ lvgl/src/lv_widgets/lv_page.c:1250:17
	cmp	r0, #2
	bne	.LBB7_39
	b	.LBB7_24
.LBB7_24:
	.loc	10 0 17                         @ lvgl/src/lv_widgets/lv_page.c:0:17
	movs	r0, #0
.Ltmp293:
	.loc	10 1251 34 is_stmt 1            @ lvgl/src/lv_widgets/lv_page.c:1251:34
	bl	lv_indev_get_next
	.loc	10 1251 26 is_stmt 0            @ lvgl/src/lv_widgets/lv_page.c:1251:26
	str	r0, [sp, #76]
	.loc	10 1252 13 is_stmt 1            @ lvgl/src/lv_widgets/lv_page.c:1252:13
	b	.LBB7_25
.LBB7_25:                               @ =>This Loop Header: Depth=1
                                        @     Child Loop BB7_29 Depth 2
	.loc	10 1252 19 is_stmt 0            @ lvgl/src/lv_widgets/lv_page.c:1252:19
	ldr	r0, [sp, #76]
	.loc	10 1252 13                      @ lvgl/src/lv_widgets/lv_page.c:1252:13
	cbz	r0, .LBB7_38
	b	.LBB7_26
.LBB7_26:                               @   in Loop: Header=BB7_25 Depth=1
.Ltmp294:
	.loc	10 1253 20 is_stmt 1            @ lvgl/src/lv_widgets/lv_page.c:1253:20
	ldr	r0, [sp, #76]
	.loc	10 1253 34 is_stmt 0            @ lvgl/src/lv_widgets/lv_page.c:1253:34
	ldrb	r0, [r0]
	.loc	10 1253 64                      @ lvgl/src/lv_widgets/lv_page.c:1253:64
	cmp	r0, #1
	bne	.LBB7_37
	b	.LBB7_27
.LBB7_27:                               @   in Loop: Header=BB7_25 Depth=1
	.loc	10 1253 68                      @ lvgl/src/lv_widgets/lv_page.c:1253:68
	ldr	r0, [sp, #76]
	.loc	10 1253 94                      @ lvgl/src/lv_widgets/lv_page.c:1253:94
	ldrb.w	r0, [r0, #70]
	lsrs	r0, r0, #2
.Ltmp295:
	.loc	10 1253 20                      @ lvgl/src/lv_widgets/lv_page.c:1253:20
	lsls	r0, r0, #31
	cbz	r0, .LBB7_37
	b	.LBB7_28
.LBB7_28:                               @   in Loop: Header=BB7_25 Depth=1
.Ltmp296:
	.loc	10 1254 43 is_stmt 1            @ lvgl/src/lv_widgets/lv_page.c:1254:43
	ldr	r0, [sp, #76]
	.loc	10 1254 69 is_stmt 0            @ lvgl/src/lv_widgets/lv_page.c:1254:69
	ldr	r0, [r0, #52]
	.loc	10 1254 32                      @ lvgl/src/lv_widgets/lv_page.c:1254:32
	str	r0, [sp, #72]
	.loc	10 1255 21 is_stmt 1            @ lvgl/src/lv_widgets/lv_page.c:1255:21
	b	.LBB7_29
.LBB7_29:                               @   Parent Loop BB7_25 Depth=1
                                        @ =>  This Inner Loop Header: Depth=2
	.loc	10 1255 27 is_stmt 0            @ lvgl/src/lv_widgets/lv_page.c:1255:27
	ldr	r1, [sp, #72]
	movs	r0, #0
	.loc	10 1255 36                      @ lvgl/src/lv_widgets/lv_page.c:1255:36
	str	r0, [sp, #28]                   @ 4-byte Spill
	cbz	r1, .LBB7_31
	b	.LBB7_30
.LBB7_30:                               @   in Loop: Header=BB7_29 Depth=2
	.loc	10 1255 39                      @ lvgl/src/lv_widgets/lv_page.c:1255:39
	ldr	r0, [sp, #72]
	.loc	10 1255 49                      @ lvgl/src/lv_widgets/lv_page.c:1255:49
	ldrb.w	r0, [r0, #52]
	ubfx	r0, r0, #3, #1
	str	r0, [sp, #28]                   @ 4-byte Spill
	b	.LBB7_31
.LBB7_31:                               @   in Loop: Header=BB7_29 Depth=2
	.loc	10 0 0                          @ lvgl/src/lv_widgets/lv_page.c:0:0
	ldr	r0, [sp, #28]                   @ 4-byte Reload
	.loc	10 1255 21                      @ lvgl/src/lv_widgets/lv_page.c:1255:21
	lsls	r0, r0, #31
	cbz	r0, .LBB7_33
	b	.LBB7_32
.LBB7_32:                               @   in Loop: Header=BB7_29 Depth=2
	.loc	10 1255 91                      @ lvgl/src/lv_widgets/lv_page.c:1255:91
	ldr	r0, [sp, #72]
	.loc	10 1255 73                      @ lvgl/src/lv_widgets/lv_page.c:1255:73
	bl	lv_obj_get_parent
	.loc	10 1255 71                      @ lvgl/src/lv_widgets/lv_page.c:1255:71
	str	r0, [sp, #72]
	.loc	10 1255 21                      @ lvgl/src/lv_widgets/lv_page.c:1255:21
	b	.LBB7_29
.LBB7_33:                               @   in Loop: Header=BB7_25 Depth=1
.Ltmp297:
	.loc	10 1257 24 is_stmt 1            @ lvgl/src/lv_widgets/lv_page.c:1257:24
	ldr	r0, [sp, #72]
	.loc	10 1257 33 is_stmt 0            @ lvgl/src/lv_widgets/lv_page.c:1257:33
	cbz	r0, .LBB7_36
	b	.LBB7_34
.LBB7_34:                               @   in Loop: Header=BB7_25 Depth=1
	.loc	10 1257 36                      @ lvgl/src/lv_widgets/lv_page.c:1257:36
	ldr	r0, [sp, #72]
	.loc	10 1257 48                      @ lvgl/src/lv_widgets/lv_page.c:1257:48
	ldr	r1, [sp, #116]
.Ltmp298:
	.loc	10 1257 24                      @ lvgl/src/lv_widgets/lv_page.c:1257:24
	cmp	r0, r1
	bne	.LBB7_36
	b	.LBB7_35
.LBB7_35:
.Ltmp299:
	.loc	10 1258 25 is_stmt 1            @ lvgl/src/lv_widgets/lv_page.c:1258:25
	ldr	r1, [sp, #120]
	.loc	10 1258 47 is_stmt 0            @ lvgl/src/lv_widgets/lv_page.c:1258:47
	ldrb.w	r0, [r1, #32]
	orr	r0, r0, #1
	strb.w	r0, [r1, #32]
	.loc	10 1259 25 is_stmt 1            @ lvgl/src/lv_widgets/lv_page.c:1259:25
	b	.LBB7_38
.Ltmp300:
.LBB7_36:                               @   in Loop: Header=BB7_25 Depth=1
	.loc	10 1261 17                      @ lvgl/src/lv_widgets/lv_page.c:1261:17
	b	.LBB7_37
.Ltmp301:
.LBB7_37:                               @   in Loop: Header=BB7_25 Depth=1
	.loc	10 1262 43                      @ lvgl/src/lv_widgets/lv_page.c:1262:43
	ldr	r0, [sp, #76]
	.loc	10 1262 25 is_stmt 0            @ lvgl/src/lv_widgets/lv_page.c:1262:25
	bl	lv_indev_get_next
	.loc	10 1262 23                      @ lvgl/src/lv_widgets/lv_page.c:1262:23
	str	r0, [sp, #76]
.Ltmp302:
	.loc	10 1252 13 is_stmt 1            @ lvgl/src/lv_widgets/lv_page.c:1252:13
	b	.LBB7_25
.LBB7_38:
	.loc	10 1264 9                       @ lvgl/src/lv_widgets/lv_page.c:1264:9
	b	.LBB7_39
.Ltmp303:
.LBB7_39:
	.loc	10 0 9 is_stmt 0                @ lvgl/src/lv_widgets/lv_page.c:0:9
	b	.LBB7_40
.LBB7_40:
	b	.LBB7_41
.LBB7_41:
.Ltmp304:
	.loc	10 1268 8 is_stmt 1             @ lvgl/src/lv_widgets/lv_page.c:1268:8
	ldrsh.w	r0, [sp, #110]
	.loc	10 1268 18 is_stmt 0            @ lvgl/src/lv_widgets/lv_page.c:1268:18
	ldrsh.w	r1, [sp, #106]
	.loc	10 1268 26                      @ lvgl/src/lv_widgets/lv_page.c:1268:26
	ldrsh.w	r2, [sp, #94]
	.loc	10 1268 24                      @ lvgl/src/lv_widgets/lv_page.c:1268:24
	subs	r1, r1, r2
	.loc	10 1268 35                      @ lvgl/src/lv_widgets/lv_page.c:1268:35
	ldrsh.w	r2, [sp, #92]
	.loc	10 1268 33                      @ lvgl/src/lv_widgets/lv_page.c:1268:33
	subs	r1, r1, r2
.Ltmp305:
	.loc	10 1268 8                       @ lvgl/src/lv_widgets/lv_page.c:1268:8
	cmp	r0, r1
	bgt	.LBB7_46
	b	.LBB7_42
.LBB7_42:
.Ltmp306:
	.loc	10 1269 29 is_stmt 1            @ lvgl/src/lv_widgets/lv_page.c:1269:29
	ldr	r0, [sp, #120]
	.loc	10 1269 42 is_stmt 0            @ lvgl/src/lv_widgets/lv_page.c:1269:42
	adds	r0, #24
	.loc	10 1269 52                      @ lvgl/src/lv_widgets/lv_page.c:1269:52
	ldrh.w	r1, [sp, #106]
	.loc	10 1269 64                      @ lvgl/src/lv_widgets/lv_page.c:1269:64
	ldrh.w	r2, [sp, #88]
	.loc	10 1269 58                      @ lvgl/src/lv_widgets/lv_page.c:1269:58
	sub.w	r1, r1, r2, lsl #1
	.loc	10 1269 9                       @ lvgl/src/lv_widgets/lv_page.c:1269:9
	sxth	r1, r1
	bl	lv_area_set_height
	.loc	10 1270 27 is_stmt 1            @ lvgl/src/lv_widgets/lv_page.c:1270:27
	ldr	r0, [sp, #120]
	.loc	10 1270 40 is_stmt 0            @ lvgl/src/lv_widgets/lv_page.c:1270:40
	adds	r0, #24
	.loc	10 1271 26 is_stmt 1            @ lvgl/src/lv_widgets/lv_page.c:1271:26
	ldrh.w	r1, [sp, #108]
	.loc	10 1271 34 is_stmt 0            @ lvgl/src/lv_widgets/lv_page.c:1271:34
	ldrh.w	r2, [sp, #104]
	.loc	10 1271 32                      @ lvgl/src/lv_widgets/lv_page.c:1271:32
	subs	r1, r1, r2
	.loc	10 1271 45                      @ lvgl/src/lv_widgets/lv_page.c:1271:45
	ldrh.w	r2, [sp, #102]
	.loc	10 1271 43                      @ lvgl/src/lv_widgets/lv_page.c:1271:43
	subs	r1, r1, r2
	.loc	10 1271 55                      @ lvgl/src/lv_widgets/lv_page.c:1271:55
	ldrsh.w	r2, [sp, #88]
	.loc	10 1270 9 is_stmt 1             @ lvgl/src/lv_widgets/lv_page.c:1270:9
	sxth	r1, r1
	bl	_lv_area_set_pos
.Ltmp307:
	.loc	10 1272 12                      @ lvgl/src/lv_widgets/lv_page.c:1272:12
	ldr	r0, [sp, #120]
	.loc	10 1272 25 is_stmt 0            @ lvgl/src/lv_widgets/lv_page.c:1272:25
	ldrb.w	r0, [r0, #32]
	ubfx	r0, r0, #2, #3
	.loc	10 1272 56                      @ lvgl/src/lv_widgets/lv_page.c:1272:56
	cmp	r0, #3
	beq	.LBB7_44
	b	.LBB7_43
.LBB7_43:
	.loc	10 1273 12 is_stmt 1            @ lvgl/src/lv_widgets/lv_page.c:1273:12
	ldr	r0, [sp, #120]
	.loc	10 1273 25 is_stmt 0            @ lvgl/src/lv_widgets/lv_page.c:1273:25
	ldrb.w	r0, [r0, #32]
	ubfx	r0, r0, #2, #3
.Ltmp308:
	.loc	10 1272 12 is_stmt 1            @ lvgl/src/lv_widgets/lv_page.c:1272:12
	cmp	r0, #2
	bne	.LBB7_45
	b	.LBB7_44
.LBB7_44:
.Ltmp309:
	.loc	10 1273 57                      @ lvgl/src/lv_widgets/lv_page.c:1273:57
	ldr	r1, [sp, #120]
	.loc	10 1273 79 is_stmt 0            @ lvgl/src/lv_widgets/lv_page.c:1273:79
	ldrb.w	r0, [r1, #32]
	and	r0, r0, #253
	strb.w	r0, [r1, #32]
	.loc	10 1273 57                      @ lvgl/src/lv_widgets/lv_page.c:1273:57
	b	.LBB7_45
.Ltmp310:
.LBB7_45:
	.loc	10 1274 5 is_stmt 1             @ lvgl/src/lv_widgets/lv_page.c:1274:5
	b	.LBB7_68
.Ltmp311:
.LBB7_46:
	.loc	10 1278 14                      @ lvgl/src/lv_widgets/lv_page.c:1278:14
	ldrsh.w	r0, [sp, #106]
	.loc	10 1278 36 is_stmt 0            @ lvgl/src/lv_widgets/lv_page.c:1278:36
	ldrsh.w	r1, [sp, #88]
	.loc	10 1278 29                      @ lvgl/src/lv_widgets/lv_page.c:1278:29
	sub.w	r1, r0, r1, lsl #1
	.loc	10 1278 20                      @ lvgl/src/lv_widgets/lv_page.c:1278:20
	muls	r0, r1, r0
	.loc	10 1278 53                      @ lvgl/src/lv_widgets/lv_page.c:1278:53
	ldrsh.w	r1, [sp, #110]
	.loc	10 1278 62                      @ lvgl/src/lv_widgets/lv_page.c:1278:62
	ldrsh.w	r2, [sp, #94]
	.loc	10 1278 60                      @ lvgl/src/lv_widgets/lv_page.c:1278:60
	add	r1, r2
	.loc	10 1278 71                      @ lvgl/src/lv_widgets/lv_page.c:1278:71
	ldrsh.w	r2, [sp, #92]
	.loc	10 1278 69                      @ lvgl/src/lv_widgets/lv_page.c:1278:69
	add	r1, r2
	.loc	10 1278 50                      @ lvgl/src/lv_widgets/lv_page.c:1278:50
	sdiv	r0, r0, r1
	.loc	10 1277 18 is_stmt 1            @ lvgl/src/lv_widgets/lv_page.c:1277:18
	strh.w	r0, [sp, #114]
.Ltmp312:
	.loc	10 1279 12                      @ lvgl/src/lv_widgets/lv_page.c:1279:12
	ldrsh.w	r0, [sp, #114]
.Ltmp313:
	.loc	10 1279 12 is_stmt 0            @ lvgl/src/lv_widgets/lv_page.c:1279:12
	cmp	r0, #15
	bgt	.LBB7_48
	b	.LBB7_47
.LBB7_47:
	.loc	10 0 12                         @ lvgl/src/lv_widgets/lv_page.c:0:12
	movs	r0, #16
.Ltmp314:
	.loc	10 1279 53                      @ lvgl/src/lv_widgets/lv_page.c:1279:53
	strh.w	r0, [sp, #114]
	.loc	10 1279 44                      @ lvgl/src/lv_widgets/lv_page.c:1279:44
	b	.LBB7_48
.Ltmp315:
.LBB7_48:
	.loc	10 1280 29 is_stmt 1            @ lvgl/src/lv_widgets/lv_page.c:1280:29
	ldr	r0, [sp, #120]
	.loc	10 1280 42 is_stmt 0            @ lvgl/src/lv_widgets/lv_page.c:1280:42
	adds	r0, #24
	.loc	10 1280 52                      @ lvgl/src/lv_widgets/lv_page.c:1280:52
	ldrsh.w	r1, [sp, #114]
	.loc	10 1280 9                       @ lvgl/src/lv_widgets/lv_page.c:1280:9
	bl	lv_area_set_height
	.loc	10 1282 27 is_stmt 1            @ lvgl/src/lv_widgets/lv_page.c:1282:27
	ldr	r0, [sp, #120]
	.loc	10 1282 40 is_stmt 0            @ lvgl/src/lv_widgets/lv_page.c:1282:40
	adds	r0, #24
	.loc	10 1283 26 is_stmt 1            @ lvgl/src/lv_widgets/lv_page.c:1283:26
	str	r0, [sp, #24]                   @ 4-byte Spill
	ldrh.w	r0, [sp, #108]
	.loc	10 1283 34 is_stmt 0            @ lvgl/src/lv_widgets/lv_page.c:1283:34
	ldrh.w	r1, [sp, #104]
	.loc	10 1283 32                      @ lvgl/src/lv_widgets/lv_page.c:1283:32
	subs	r0, r0, r1
	.loc	10 1283 45                      @ lvgl/src/lv_widgets/lv_page.c:1283:45
	ldrh.w	r1, [sp, #102]
	.loc	10 1283 43                      @ lvgl/src/lv_widgets/lv_page.c:1283:43
	subs	r0, r0, r1
	.loc	10 1284 26 is_stmt 1            @ lvgl/src/lv_widgets/lv_page.c:1284:26
	str	r0, [sp, #20]                   @ 4-byte Spill
	ldrh.w	r0, [sp, #88]
	.loc	10 1284 55 is_stmt 0            @ lvgl/src/lv_widgets/lv_page.c:1284:55
	str	r0, [sp, #16]                   @ 4-byte Spill
	ldr	r0, [sp, #116]
	.loc	10 1284 42                      @ lvgl/src/lv_widgets/lv_page.c:1284:42
	bl	lv_obj_get_y
	ldr	r2, [sp, #16]                   @ 4-byte Reload
	ldr	r1, [sp, #20]                   @ 4-byte Reload
	mov	r12, r0
	.loc	10 1284 63                      @ lvgl/src/lv_widgets/lv_page.c:1284:63
	ldr	r0, [sp, #24]                   @ 4-byte Reload
	ldrsh.w	r3, [sp, #98]
	.loc	10 1284 40                      @ lvgl/src/lv_widgets/lv_page.c:1284:40
	sub.w	r3, r3, r12
	.loc	10 1285 41 is_stmt 1            @ lvgl/src/lv_widgets/lv_page.c:1285:41
	ldrsh.w	lr, [sp, #106]
	.loc	10 1285 49 is_stmt 0            @ lvgl/src/lv_widgets/lv_page.c:1285:49
	ldrsh.w	r12, [sp, #114]
	.loc	10 1285 47                      @ lvgl/src/lv_widgets/lv_page.c:1285:47
	sub.w	r12, lr, r12
	.loc	10 1285 64                      @ lvgl/src/lv_widgets/lv_page.c:1285:64
	ldrsh.w	r4, [sp, #88]
	.loc	10 1285 58                      @ lvgl/src/lv_widgets/lv_page.c:1285:58
	sub.w	r12, r12, r4, lsl #1
	.loc	10 1284 72 is_stmt 1            @ lvgl/src/lv_widgets/lv_page.c:1284:72
	mul	r3, r3, r12
	.loc	10 1286 27                      @ lvgl/src/lv_widgets/lv_page.c:1286:27
	ldrsh.w	r12, [sp, #110]
	.loc	10 1286 36 is_stmt 0            @ lvgl/src/lv_widgets/lv_page.c:1286:36
	ldrsh.w	r4, [sp, #94]
	.loc	10 1286 34                      @ lvgl/src/lv_widgets/lv_page.c:1286:34
	add	r12, r4
	.loc	10 1286 45                      @ lvgl/src/lv_widgets/lv_page.c:1286:45
	ldrsh.w	r4, [sp, #92]
	.loc	10 1286 43                      @ lvgl/src/lv_widgets/lv_page.c:1286:43
	add	r12, r4
	.loc	10 1286 55                      @ lvgl/src/lv_widgets/lv_page.c:1286:55
	sub.w	r12, r12, lr
	.loc	10 1285 77 is_stmt 1            @ lvgl/src/lv_widgets/lv_page.c:1285:77
	sdiv	r3, r3, r12
	.loc	10 1284 37                      @ lvgl/src/lv_widgets/lv_page.c:1284:37
	add	r2, r3
	.loc	10 1282 9                       @ lvgl/src/lv_widgets/lv_page.c:1282:9
	sxth	r2, r2
	sxth	r1, r1
	bl	_lv_area_set_pos
.Ltmp316:
	.loc	10 1288 12                      @ lvgl/src/lv_widgets/lv_page.c:1288:12
	ldr	r0, [sp, #120]
	.loc	10 1288 25 is_stmt 0            @ lvgl/src/lv_widgets/lv_page.c:1288:25
	ldrb.w	r0, [r0, #32]
	ubfx	r0, r0, #2, #3
.Ltmp317:
	.loc	10 1288 12                      @ lvgl/src/lv_widgets/lv_page.c:1288:12
	cmp	r0, #3
	bne	.LBB7_50
	b	.LBB7_49
.LBB7_49:
.Ltmp318:
	.loc	10 1288 57                      @ lvgl/src/lv_widgets/lv_page.c:1288:57
	ldr	r1, [sp, #120]
	.loc	10 1288 79                      @ lvgl/src/lv_widgets/lv_page.c:1288:79
	ldrb.w	r0, [r1, #32]
	orr	r0, r0, #2
	strb.w	r0, [r1, #32]
	.loc	10 1288 57                      @ lvgl/src/lv_widgets/lv_page.c:1288:57
	b	.LBB7_67
.LBB7_50:
.Ltmp319:
	.loc	10 1289 17 is_stmt 1            @ lvgl/src/lv_widgets/lv_page.c:1289:17
	ldr	r0, [sp, #120]
	.loc	10 1289 30 is_stmt 0            @ lvgl/src/lv_widgets/lv_page.c:1289:30
	ldrb.w	r0, [r0, #32]
	ubfx	r0, r0, #2, #3
.Ltmp320:
	.loc	10 1289 17                      @ lvgl/src/lv_widgets/lv_page.c:1289:17
	cmp	r0, #2
	bne	.LBB7_66
	b	.LBB7_51
.LBB7_51:
	.loc	10 0 17                         @ lvgl/src/lv_widgets/lv_page.c:0:17
	movs	r0, #0
.Ltmp321:
	.loc	10 1290 34 is_stmt 1            @ lvgl/src/lv_widgets/lv_page.c:1290:34
	bl	lv_indev_get_next
	.loc	10 1290 26 is_stmt 0            @ lvgl/src/lv_widgets/lv_page.c:1290:26
	str	r0, [sp, #68]
	.loc	10 1291 13 is_stmt 1            @ lvgl/src/lv_widgets/lv_page.c:1291:13
	b	.LBB7_52
.LBB7_52:                               @ =>This Loop Header: Depth=1
                                        @     Child Loop BB7_56 Depth 2
	.loc	10 1291 19 is_stmt 0            @ lvgl/src/lv_widgets/lv_page.c:1291:19
	ldr	r0, [sp, #68]
	.loc	10 1291 13                      @ lvgl/src/lv_widgets/lv_page.c:1291:13
	cbz	r0, .LBB7_65
	b	.LBB7_53
.LBB7_53:                               @   in Loop: Header=BB7_52 Depth=1
.Ltmp322:
	.loc	10 1292 20 is_stmt 1            @ lvgl/src/lv_widgets/lv_page.c:1292:20
	ldr	r0, [sp, #68]
	.loc	10 1292 34 is_stmt 0            @ lvgl/src/lv_widgets/lv_page.c:1292:34
	ldrb	r0, [r0]
	.loc	10 1292 64                      @ lvgl/src/lv_widgets/lv_page.c:1292:64
	cmp	r0, #1
	bne	.LBB7_64
	b	.LBB7_54
.LBB7_54:                               @   in Loop: Header=BB7_52 Depth=1
	.loc	10 1292 68                      @ lvgl/src/lv_widgets/lv_page.c:1292:68
	ldr	r0, [sp, #68]
	.loc	10 1292 94                      @ lvgl/src/lv_widgets/lv_page.c:1292:94
	ldrb.w	r0, [r0, #70]
	lsrs	r0, r0, #2
.Ltmp323:
	.loc	10 1292 20                      @ lvgl/src/lv_widgets/lv_page.c:1292:20
	lsls	r0, r0, #30
	cmp	r0, #0
	bpl	.LBB7_64
	b	.LBB7_55
.LBB7_55:                               @   in Loop: Header=BB7_52 Depth=1
.Ltmp324:
	.loc	10 1293 43 is_stmt 1            @ lvgl/src/lv_widgets/lv_page.c:1293:43
	ldr	r0, [sp, #68]
	.loc	10 1293 69 is_stmt 0            @ lvgl/src/lv_widgets/lv_page.c:1293:69
	ldr	r0, [r0, #52]
	.loc	10 1293 32                      @ lvgl/src/lv_widgets/lv_page.c:1293:32
	str	r0, [sp, #64]
	.loc	10 1294 21 is_stmt 1            @ lvgl/src/lv_widgets/lv_page.c:1294:21
	b	.LBB7_56
.LBB7_56:                               @   Parent Loop BB7_52 Depth=1
                                        @ =>  This Inner Loop Header: Depth=2
	.loc	10 1294 27 is_stmt 0            @ lvgl/src/lv_widgets/lv_page.c:1294:27
	ldr	r1, [sp, #64]
	movs	r0, #0
	.loc	10 1294 36                      @ lvgl/src/lv_widgets/lv_page.c:1294:36
	str	r0, [sp, #12]                   @ 4-byte Spill
	cbz	r1, .LBB7_58
	b	.LBB7_57
.LBB7_57:                               @   in Loop: Header=BB7_56 Depth=2
	.loc	10 1294 39                      @ lvgl/src/lv_widgets/lv_page.c:1294:39
	ldr	r0, [sp, #64]
	.loc	10 1294 49                      @ lvgl/src/lv_widgets/lv_page.c:1294:49
	ldrb.w	r0, [r0, #52]
	ubfx	r0, r0, #3, #1
	str	r0, [sp, #12]                   @ 4-byte Spill
	b	.LBB7_58
.LBB7_58:                               @   in Loop: Header=BB7_56 Depth=2
	.loc	10 0 0                          @ lvgl/src/lv_widgets/lv_page.c:0:0
	ldr	r0, [sp, #12]                   @ 4-byte Reload
	.loc	10 1294 21                      @ lvgl/src/lv_widgets/lv_page.c:1294:21
	lsls	r0, r0, #31
	cbz	r0, .LBB7_60
	b	.LBB7_59
.LBB7_59:                               @   in Loop: Header=BB7_56 Depth=2
	.loc	10 1294 91                      @ lvgl/src/lv_widgets/lv_page.c:1294:91
	ldr	r0, [sp, #64]
	.loc	10 1294 73                      @ lvgl/src/lv_widgets/lv_page.c:1294:73
	bl	lv_obj_get_parent
	.loc	10 1294 71                      @ lvgl/src/lv_widgets/lv_page.c:1294:71
	str	r0, [sp, #64]
	.loc	10 1294 21                      @ lvgl/src/lv_widgets/lv_page.c:1294:21
	b	.LBB7_56
.LBB7_60:                               @   in Loop: Header=BB7_52 Depth=1
.Ltmp325:
	.loc	10 1296 24 is_stmt 1            @ lvgl/src/lv_widgets/lv_page.c:1296:24
	ldr	r0, [sp, #64]
	.loc	10 1296 33 is_stmt 0            @ lvgl/src/lv_widgets/lv_page.c:1296:33
	cbz	r0, .LBB7_63
	b	.LBB7_61
.LBB7_61:                               @   in Loop: Header=BB7_52 Depth=1
	.loc	10 1296 36                      @ lvgl/src/lv_widgets/lv_page.c:1296:36
	ldr	r0, [sp, #64]
	.loc	10 1296 48                      @ lvgl/src/lv_widgets/lv_page.c:1296:48
	ldr	r1, [sp, #116]
.Ltmp326:
	.loc	10 1296 24                      @ lvgl/src/lv_widgets/lv_page.c:1296:24
	cmp	r0, r1
	bne	.LBB7_63
	b	.LBB7_62
.LBB7_62:
.Ltmp327:
	.loc	10 1297 25 is_stmt 1            @ lvgl/src/lv_widgets/lv_page.c:1297:25
	ldr	r1, [sp, #120]
	.loc	10 1297 47 is_stmt 0            @ lvgl/src/lv_widgets/lv_page.c:1297:47
	ldrb.w	r0, [r1, #32]
	orr	r0, r0, #2
	strb.w	r0, [r1, #32]
	.loc	10 1298 25 is_stmt 1            @ lvgl/src/lv_widgets/lv_page.c:1298:25
	b	.LBB7_65
.Ltmp328:
.LBB7_63:                               @   in Loop: Header=BB7_52 Depth=1
	.loc	10 1300 17                      @ lvgl/src/lv_widgets/lv_page.c:1300:17
	b	.LBB7_64
.Ltmp329:
.LBB7_64:                               @   in Loop: Header=BB7_52 Depth=1
	.loc	10 1301 43                      @ lvgl/src/lv_widgets/lv_page.c:1301:43
	ldr	r0, [sp, #68]
	.loc	10 1301 25 is_stmt 0            @ lvgl/src/lv_widgets/lv_page.c:1301:25
	bl	lv_indev_get_next
	.loc	10 1301 23                      @ lvgl/src/lv_widgets/lv_page.c:1301:23
	str	r0, [sp, #68]
.Ltmp330:
	.loc	10 1291 13 is_stmt 1            @ lvgl/src/lv_widgets/lv_page.c:1291:13
	b	.LBB7_52
.LBB7_65:
	.loc	10 1303 9                       @ lvgl/src/lv_widgets/lv_page.c:1303:9
	b	.LBB7_66
.Ltmp331:
.LBB7_66:
	.loc	10 0 9 is_stmt 0                @ lvgl/src/lv_widgets/lv_page.c:0:9
	b	.LBB7_67
.LBB7_67:
	b	.LBB7_68
.LBB7_68:
.Ltmp332:
	.loc	10 1307 8 is_stmt 1             @ lvgl/src/lv_widgets/lv_page.c:1307:8
	ldr	r0, [sp, #120]
	.loc	10 1307 21 is_stmt 0            @ lvgl/src/lv_widgets/lv_page.c:1307:21
	ldrb.w	r0, [r0, #32]
.Ltmp333:
	.loc	10 1307 8                       @ lvgl/src/lv_widgets/lv_page.c:1307:8
	lsls	r0, r0, #31
	cbz	r0, .LBB7_70
	b	.LBB7_69
.LBB7_69:
.Ltmp334:
	.loc	10 1308 37 is_stmt 1            @ lvgl/src/lv_widgets/lv_page.c:1308:37
	ldr	r0, [sp, #120]
	.loc	10 1308 50 is_stmt 0            @ lvgl/src/lv_widgets/lv_page.c:1308:50
	add.w	r1, r0, #16
	add	r0, sp, #80
	.loc	10 1308 9                       @ lvgl/src/lv_widgets/lv_page.c:1308:9
	str	r0, [sp, #8]                    @ 4-byte Spill
	bl	lv_area_copy
	ldr	r1, [sp, #8]                    @ 4-byte Reload
	.loc	10 1309 27 is_stmt 1            @ lvgl/src/lv_widgets/lv_page.c:1309:27
	ldr	r0, [sp, #124]
	ldrh	r2, [r0, #16]
	.loc	10 1309 24 is_stmt 0            @ lvgl/src/lv_widgets/lv_page.c:1309:24
	ldrh.w	r0, [sp, #80]
	add	r0, r2
	strh.w	r0, [sp, #80]
	.loc	10 1310 27 is_stmt 1            @ lvgl/src/lv_widgets/lv_page.c:1310:27
	ldr	r0, [sp, #124]
	ldrh	r2, [r0, #18]
	.loc	10 1310 24 is_stmt 0            @ lvgl/src/lv_widgets/lv_page.c:1310:24
	ldrh.w	r0, [sp, #82]
	add	r0, r2
	strh.w	r0, [sp, #82]
	.loc	10 1311 27 is_stmt 1            @ lvgl/src/lv_widgets/lv_page.c:1311:27
	ldr	r0, [sp, #124]
	ldrh	r2, [r0, #16]
	.loc	10 1311 24 is_stmt 0            @ lvgl/src/lv_widgets/lv_page.c:1311:24
	ldrh.w	r0, [sp, #84]
	add	r0, r2
	strh.w	r0, [sp, #84]
	.loc	10 1312 27 is_stmt 1            @ lvgl/src/lv_widgets/lv_page.c:1312:27
	ldr	r0, [sp, #124]
	ldrh	r2, [r0, #18]
	.loc	10 1312 24 is_stmt 0            @ lvgl/src/lv_widgets/lv_page.c:1312:24
	ldrh.w	r0, [sp, #86]
	add	r0, r2
	strh.w	r0, [sp, #86]
	.loc	10 1313 32 is_stmt 1            @ lvgl/src/lv_widgets/lv_page.c:1313:32
	ldr	r0, [sp, #124]
	.loc	10 1313 9 is_stmt 0             @ lvgl/src/lv_widgets/lv_page.c:1313:9
	bl	lv_obj_invalidate_area
	.loc	10 1314 5 is_stmt 1             @ lvgl/src/lv_widgets/lv_page.c:1314:5
	b	.LBB7_70
.Ltmp335:
.LBB7_70:
	.loc	10 1315 8                       @ lvgl/src/lv_widgets/lv_page.c:1315:8
	ldr	r0, [sp, #120]
	.loc	10 1315 21 is_stmt 0            @ lvgl/src/lv_widgets/lv_page.c:1315:21
	ldrb.w	r0, [r0, #32]
	lsrs	r0, r0, #1
.Ltmp336:
	.loc	10 1315 8                       @ lvgl/src/lv_widgets/lv_page.c:1315:8
	lsls	r0, r0, #31
	cbz	r0, .LBB7_72
	b	.LBB7_71
.LBB7_71:
.Ltmp337:
	.loc	10 1316 37 is_stmt 1            @ lvgl/src/lv_widgets/lv_page.c:1316:37
	ldr	r0, [sp, #120]
	.loc	10 1316 50 is_stmt 0            @ lvgl/src/lv_widgets/lv_page.c:1316:50
	add.w	r1, r0, #24
	add	r0, sp, #80
	.loc	10 1316 9                       @ lvgl/src/lv_widgets/lv_page.c:1316:9
	str	r0, [sp, #4]                    @ 4-byte Spill
	bl	lv_area_copy
	ldr	r1, [sp, #4]                    @ 4-byte Reload
	.loc	10 1317 27 is_stmt 1            @ lvgl/src/lv_widgets/lv_page.c:1317:27
	ldr	r0, [sp, #124]
	ldrh	r2, [r0, #16]
	.loc	10 1317 24 is_stmt 0            @ lvgl/src/lv_widgets/lv_page.c:1317:24
	ldrh.w	r0, [sp, #80]
	add	r0, r2
	strh.w	r0, [sp, #80]
	.loc	10 1318 27 is_stmt 1            @ lvgl/src/lv_widgets/lv_page.c:1318:27
	ldr	r0, [sp, #124]
	ldrh	r2, [r0, #18]
	.loc	10 1318 24 is_stmt 0            @ lvgl/src/lv_widgets/lv_page.c:1318:24
	ldrh.w	r0, [sp, #82]
	add	r0, r2
	strh.w	r0, [sp, #82]
	.loc	10 1319 27 is_stmt 1            @ lvgl/src/lv_widgets/lv_page.c:1319:27
	ldr	r0, [sp, #124]
	ldrh	r2, [r0, #16]
	.loc	10 1319 24 is_stmt 0            @ lvgl/src/lv_widgets/lv_page.c:1319:24
	ldrh.w	r0, [sp, #84]
	add	r0, r2
	strh.w	r0, [sp, #84]
	.loc	10 1320 27 is_stmt 1            @ lvgl/src/lv_widgets/lv_page.c:1320:27
	ldr	r0, [sp, #124]
	ldrh	r2, [r0, #18]
	.loc	10 1320 24 is_stmt 0            @ lvgl/src/lv_widgets/lv_page.c:1320:24
	ldrh.w	r0, [sp, #86]
	add	r0, r2
	strh.w	r0, [sp, #86]
	.loc	10 1321 32 is_stmt 1            @ lvgl/src/lv_widgets/lv_page.c:1321:32
	ldr	r0, [sp, #124]
	.loc	10 1321 9 is_stmt 0             @ lvgl/src/lv_widgets/lv_page.c:1321:9
	bl	lv_obj_invalidate_area
	.loc	10 1322 5 is_stmt 1             @ lvgl/src/lv_widgets/lv_page.c:1322:5
	b	.LBB7_72
.Ltmp338:
.LBB7_72:
	.loc	10 1323 1                       @ lvgl/src/lv_widgets/lv_page.c:1323:1
	add	sp, #128
	pop	{r4, pc}
.Ltmp339:
.Lfunc_end7:
	.size	scrlbar_refresh, .Lfunc_end7-scrlbar_refresh
	.cfi_endproc
	.cantunwind
	.fnend
                                        @ -- End function
	.section	.text.lv_page_clean,"ax",%progbits
	.hidden	lv_page_clean                   @ -- Begin function lv_page_clean
	.globl	lv_page_clean
	.p2align	3
	.type	lv_page_clean,%function
	.code	16                              @ @lv_page_clean
	.thumb_func
lv_page_clean:
.Lfunc_begin8:
	.loc	10 170 0                        @ lvgl/src/lv_widgets/lv_page.c:170:0
	.fnstart
	.cfi_startproc
@ %bb.0:
	.save	{r7, lr}
	push	{r7, lr}
	.cfi_def_cfa_offset 8
	.cfi_offset lr, -4
	.cfi_offset r7, -8
	.pad	#8
	sub	sp, #8
	.cfi_def_cfa_offset 16
	str	r0, [sp, #4]
.Ltmp340:
	.loc	10 171 5 prologue_end           @ lvgl/src/lv_widgets/lv_page.c:171:5
	b	.LBB8_1
.LBB8_1:
.Ltmp341:
	.loc	10 171 5 is_stmt 0              @ lvgl/src/lv_widgets/lv_page.c:171:5
	ldr	r0, [sp, #4]
	bl	lv_debug_check_null
.Ltmp342:
	.loc	10 171 5                        @ lvgl/src/lv_widgets/lv_page.c:171:5
	cbnz	r0, .LBB8_4
	b	.LBB8_2
.LBB8_2:
.Ltmp343:
	.loc	10 171 5                        @ lvgl/src/lv_widgets/lv_page.c:171:5
	ldr	r2, [sp, #4]
	movw	r0, :lower16:.L.str.1
	movt	r0, :upper16:.L.str.1
	movs	r3, #0
	bl	lv_debug_log_error
	b	.LBB8_3
.LBB8_3:                                @ =>This Inner Loop Header: Depth=1
	b	.LBB8_3
.Ltmp344:
.LBB8_4:
	.loc	10 171 5                        @ lvgl/src/lv_widgets/lv_page.c:171:5
	b	.LBB8_5
.Ltmp345:
.LBB8_5:
	.loc	10 173 46 is_stmt 1             @ lvgl/src/lv_widgets/lv_page.c:173:46
	ldr	r0, [sp, #4]
	.loc	10 173 23 is_stmt 0             @ lvgl/src/lv_widgets/lv_page.c:173:23
	bl	lv_page_get_scrollable
	.loc	10 173 16                       @ lvgl/src/lv_widgets/lv_page.c:173:16
	str	r0, [sp]
	.loc	10 174 18 is_stmt 1             @ lvgl/src/lv_widgets/lv_page.c:174:18
	ldr	r0, [sp]
	.loc	10 174 5 is_stmt 0              @ lvgl/src/lv_widgets/lv_page.c:174:5
	bl	lv_obj_clean
	.loc	10 175 1 is_stmt 1              @ lvgl/src/lv_widgets/lv_page.c:175:1
	add	sp, #8
	pop	{r7, pc}
.Ltmp346:
.Lfunc_end8:
	.size	lv_page_clean, .Lfunc_end8-lv_page_clean
	.cfi_endproc
	.cantunwind
	.fnend
                                        @ -- End function
	.section	.text.lv_page_get_scrollable,"ax",%progbits
	.hidden	lv_page_get_scrollable          @ -- Begin function lv_page_get_scrollable
	.globl	lv_page_get_scrollable
	.p2align	3
	.type	lv_page_get_scrollable,%function
	.code	16                              @ @lv_page_get_scrollable
	.thumb_func
lv_page_get_scrollable:
.Lfunc_begin9:
	.loc	10 274 0                        @ lvgl/src/lv_widgets/lv_page.c:274:0
	.fnstart
	.cfi_startproc
@ %bb.0:
	.save	{r7, lr}
	push	{r7, lr}
	.cfi_def_cfa_offset 8
	.cfi_offset lr, -4
	.cfi_offset r7, -8
	.pad	#8
	sub	sp, #8
	.cfi_def_cfa_offset 16
	str	r0, [sp, #4]
.Ltmp347:
	.loc	10 275 5 prologue_end           @ lvgl/src/lv_widgets/lv_page.c:275:5
	b	.LBB9_1
.LBB9_1:
.Ltmp348:
	.loc	10 275 5 is_stmt 0              @ lvgl/src/lv_widgets/lv_page.c:275:5
	ldr	r0, [sp, #4]
	bl	lv_debug_check_null
.Ltmp349:
	.loc	10 275 5                        @ lvgl/src/lv_widgets/lv_page.c:275:5
	cbnz	r0, .LBB9_4
	b	.LBB9_2
.LBB9_2:
.Ltmp350:
	.loc	10 275 5                        @ lvgl/src/lv_widgets/lv_page.c:275:5
	ldr	r2, [sp, #4]
	movw	r0, :lower16:.L.str.1
	movt	r0, :upper16:.L.str.1
	movs	r3, #0
	bl	lv_debug_log_error
	b	.LBB9_3
.LBB9_3:                                @ =>This Inner Loop Header: Depth=1
	b	.LBB9_3
.Ltmp351:
.LBB9_4:
	.loc	10 275 5                        @ lvgl/src/lv_widgets/lv_page.c:275:5
	b	.LBB9_5
.Ltmp352:
.LBB9_5:
	.loc	10 277 47 is_stmt 1             @ lvgl/src/lv_widgets/lv_page.c:277:47
	ldr	r0, [sp, #4]
	.loc	10 277 27 is_stmt 0             @ lvgl/src/lv_widgets/lv_page.c:277:27
	bl	lv_obj_get_ext_attr
	.loc	10 277 21                       @ lvgl/src/lv_widgets/lv_page.c:277:21
	str	r0, [sp]
	.loc	10 279 12 is_stmt 1             @ lvgl/src/lv_widgets/lv_page.c:279:12
	ldr	r0, [sp]
	.loc	10 279 17 is_stmt 0             @ lvgl/src/lv_widgets/lv_page.c:279:17
	ldr	r0, [r0, #4]
	.loc	10 279 5                        @ lvgl/src/lv_widgets/lv_page.c:279:5
	add	sp, #8
	pop	{r7, pc}
.Ltmp353:
.Lfunc_end9:
	.size	lv_page_get_scrollable, .Lfunc_end9-lv_page_get_scrollable
	.cfi_endproc
	.cantunwind
	.fnend
                                        @ -- End function
	.section	.text.lv_page_set_anim_time,"ax",%progbits
	.hidden	lv_page_set_anim_time           @ -- Begin function lv_page_set_anim_time
	.globl	lv_page_set_anim_time
	.p2align	3
	.type	lv_page_set_anim_time,%function
	.code	16                              @ @lv_page_set_anim_time
	.thumb_func
lv_page_set_anim_time:
.Lfunc_begin10:
	.loc	10 215 0 is_stmt 1              @ lvgl/src/lv_widgets/lv_page.c:215:0
	.fnstart
	.cfi_startproc
@ %bb.0:
	.save	{r7, lr}
	push	{r7, lr}
	.cfi_def_cfa_offset 8
	.cfi_offset lr, -4
	.cfi_offset r7, -8
	.pad	#16
	sub	sp, #16
	.cfi_def_cfa_offset 24
                                        @ kill: def $r2 killed $r1
	str	r0, [sp, #12]
	strh.w	r1, [sp, #10]
.Ltmp354:
	.loc	10 216 5 prologue_end           @ lvgl/src/lv_widgets/lv_page.c:216:5
	b	.LBB10_1
.LBB10_1:
.Ltmp355:
	.loc	10 216 5 is_stmt 0              @ lvgl/src/lv_widgets/lv_page.c:216:5
	ldr	r0, [sp, #12]
	bl	lv_debug_check_null
.Ltmp356:
	.loc	10 216 5                        @ lvgl/src/lv_widgets/lv_page.c:216:5
	cbnz	r0, .LBB10_4
	b	.LBB10_2
.LBB10_2:
.Ltmp357:
	.loc	10 216 5                        @ lvgl/src/lv_widgets/lv_page.c:216:5
	ldr	r2, [sp, #12]
	movw	r0, :lower16:.L.str.1
	movt	r0, :upper16:.L.str.1
	movs	r3, #0
	bl	lv_debug_log_error
	b	.LBB10_3
.LBB10_3:                               @ =>This Inner Loop Header: Depth=1
	b	.LBB10_3
.Ltmp358:
.LBB10_4:
	.loc	10 216 5                        @ lvgl/src/lv_widgets/lv_page.c:216:5
	b	.LBB10_5
.Ltmp359:
.LBB10_5:
	.loc	10 219 47 is_stmt 1             @ lvgl/src/lv_widgets/lv_page.c:219:47
	ldr	r0, [sp, #12]
	.loc	10 219 27 is_stmt 0             @ lvgl/src/lv_widgets/lv_page.c:219:27
	bl	lv_obj_get_ext_attr
	.loc	10 219 21                       @ lvgl/src/lv_widgets/lv_page.c:219:21
	str	r0, [sp, #4]
	.loc	10 220 27 is_stmt 1             @ lvgl/src/lv_widgets/lv_page.c:220:27
	ldrh.w	r0, [sp, #10]
	.loc	10 220 5 is_stmt 0              @ lvgl/src/lv_widgets/lv_page.c:220:5
	ldr	r1, [sp, #4]
	.loc	10 220 25                       @ lvgl/src/lv_widgets/lv_page.c:220:25
	strh	r0, [r1, #52]
	.loc	10 225 1 is_stmt 1              @ lvgl/src/lv_widgets/lv_page.c:225:1
	add	sp, #16
	pop	{r7, pc}
.Ltmp360:
.Lfunc_end10:
	.size	lv_page_set_anim_time, .Lfunc_end10-lv_page_set_anim_time
	.cfi_endproc
	.cantunwind
	.fnend
                                        @ -- End function
	.section	.text.lv_page_set_scroll_propagation,"ax",%progbits
	.hidden	lv_page_set_scroll_propagation  @ -- Begin function lv_page_set_scroll_propagation
	.globl	lv_page_set_scroll_propagation
	.p2align	3
	.type	lv_page_set_scroll_propagation,%function
	.code	16                              @ @lv_page_set_scroll_propagation
	.thumb_func
lv_page_set_scroll_propagation:
.Lfunc_begin11:
	.loc	10 236 0                        @ lvgl/src/lv_widgets/lv_page.c:236:0
	.fnstart
	.cfi_startproc
@ %bb.0:
	.save	{r7, lr}
	push	{r7, lr}
	.cfi_def_cfa_offset 8
	.cfi_offset lr, -4
	.cfi_offset r7, -8
	.pad	#16
	sub	sp, #16
	.cfi_def_cfa_offset 24
                                        @ kill: def $r2 killed $r1
	str	r0, [sp, #12]
	strb.w	r1, [sp, #11]
.Ltmp361:
	.loc	10 237 5 prologue_end           @ lvgl/src/lv_widgets/lv_page.c:237:5
	b	.LBB11_1
.LBB11_1:
.Ltmp362:
	.loc	10 237 5 is_stmt 0              @ lvgl/src/lv_widgets/lv_page.c:237:5
	ldr	r0, [sp, #12]
	bl	lv_debug_check_null
.Ltmp363:
	.loc	10 237 5                        @ lvgl/src/lv_widgets/lv_page.c:237:5
	cbnz	r0, .LBB11_4
	b	.LBB11_2
.LBB11_2:
.Ltmp364:
	.loc	10 237 5                        @ lvgl/src/lv_widgets/lv_page.c:237:5
	ldr	r2, [sp, #12]
	movw	r0, :lower16:.L.str.1
	movt	r0, :upper16:.L.str.1
	movs	r3, #0
	bl	lv_debug_log_error
	b	.LBB11_3
.LBB11_3:                               @ =>This Inner Loop Header: Depth=1
	b	.LBB11_3
.Ltmp365:
.LBB11_4:
	.loc	10 237 5                        @ lvgl/src/lv_widgets/lv_page.c:237:5
	b	.LBB11_5
.Ltmp366:
.LBB11_5:
	.loc	10 239 47 is_stmt 1             @ lvgl/src/lv_widgets/lv_page.c:239:47
	ldr	r0, [sp, #12]
	.loc	10 239 27 is_stmt 0             @ lvgl/src/lv_widgets/lv_page.c:239:27
	bl	lv_obj_get_ext_attr
	.loc	10 239 21                       @ lvgl/src/lv_widgets/lv_page.c:239:21
	str	r0, [sp, #4]
.Ltmp367:
	.loc	10 240 8 is_stmt 1              @ lvgl/src/lv_widgets/lv_page.c:240:8
	ldrb.w	r0, [sp, #11]
.Ltmp368:
	.loc	10 240 8 is_stmt 0              @ lvgl/src/lv_widgets/lv_page.c:240:8
	lsls	r0, r0, #31
	cbz	r0, .LBB11_7
	b	.LBB11_6
.LBB11_6:
.Ltmp369:
	.loc	10 240 32                       @ lvgl/src/lv_widgets/lv_page.c:240:32
	ldr	r0, [sp, #4]
	.loc	10 240 37                       @ lvgl/src/lv_widgets/lv_page.c:240:37
	ldr	r0, [r0, #4]
	movs	r1, #4
	.loc	10 240 12                       @ lvgl/src/lv_widgets/lv_page.c:240:12
	bl	lv_obj_set_drag_dir
	b	.LBB11_8
.LBB11_7:
	.loc	10 241 30 is_stmt 1             @ lvgl/src/lv_widgets/lv_page.c:241:30
	ldr	r0, [sp, #4]
	.loc	10 241 35 is_stmt 0             @ lvgl/src/lv_widgets/lv_page.c:241:35
	ldr	r0, [r0, #4]
	movs	r1, #3
	.loc	10 241 10                       @ lvgl/src/lv_widgets/lv_page.c:241:10
	bl	lv_obj_set_drag_dir
	b	.LBB11_8
.Ltmp370:
.LBB11_8:
	.loc	10 243 27 is_stmt 1             @ lvgl/src/lv_widgets/lv_page.c:243:27
	ldrb.w	r0, [sp, #11]
	and	r2, r0, #1
	.loc	10 243 5 is_stmt 0              @ lvgl/src/lv_widgets/lv_page.c:243:5
	ldr	r1, [sp, #4]
	.loc	10 243 25                       @ lvgl/src/lv_widgets/lv_page.c:243:25
	ldrb.w	r0, [r1, #60]
	and	r0, r0, #254
	add	r0, r2
	strb.w	r0, [r1, #60]
	.loc	10 244 1 is_stmt 1              @ lvgl/src/lv_widgets/lv_page.c:244:1
	add	sp, #16
	pop	{r7, pc}
.Ltmp371:
.Lfunc_end11:
	.size	lv_page_set_scroll_propagation, .Lfunc_end11-lv_page_set_scroll_propagation
	.cfi_endproc
	.cantunwind
	.fnend
                                        @ -- End function
	.section	.text.lv_page_set_edge_flash,"ax",%progbits
	.hidden	lv_page_set_edge_flash          @ -- Begin function lv_page_set_edge_flash
	.globl	lv_page_set_edge_flash
	.p2align	3
	.type	lv_page_set_edge_flash,%function
	.code	16                              @ @lv_page_set_edge_flash
	.thumb_func
lv_page_set_edge_flash:
.Lfunc_begin12:
	.loc	10 252 0                        @ lvgl/src/lv_widgets/lv_page.c:252:0
	.fnstart
	.cfi_startproc
@ %bb.0:
	.save	{r7, lr}
	push	{r7, lr}
	.cfi_def_cfa_offset 8
	.cfi_offset lr, -4
	.cfi_offset r7, -8
	.pad	#16
	sub	sp, #16
	.cfi_def_cfa_offset 24
                                        @ kill: def $r2 killed $r1
	str	r0, [sp, #12]
	strb.w	r1, [sp, #11]
.Ltmp372:
	.loc	10 253 5 prologue_end           @ lvgl/src/lv_widgets/lv_page.c:253:5
	b	.LBB12_1
.LBB12_1:
.Ltmp373:
	.loc	10 253 5 is_stmt 0              @ lvgl/src/lv_widgets/lv_page.c:253:5
	ldr	r0, [sp, #12]
	bl	lv_debug_check_null
.Ltmp374:
	.loc	10 253 5                        @ lvgl/src/lv_widgets/lv_page.c:253:5
	cbnz	r0, .LBB12_4
	b	.LBB12_2
.LBB12_2:
.Ltmp375:
	.loc	10 253 5                        @ lvgl/src/lv_widgets/lv_page.c:253:5
	ldr	r2, [sp, #12]
	movw	r0, :lower16:.L.str.1
	movt	r0, :upper16:.L.str.1
	movs	r3, #0
	bl	lv_debug_log_error
	b	.LBB12_3
.LBB12_3:                               @ =>This Inner Loop Header: Depth=1
	b	.LBB12_3
.Ltmp376:
.LBB12_4:
	.loc	10 253 5                        @ lvgl/src/lv_widgets/lv_page.c:253:5
	b	.LBB12_5
.Ltmp377:
.LBB12_5:
	.loc	10 256 51 is_stmt 1             @ lvgl/src/lv_widgets/lv_page.c:256:51
	ldr	r0, [sp, #12]
	.loc	10 256 31 is_stmt 0             @ lvgl/src/lv_widgets/lv_page.c:256:31
	bl	lv_obj_get_ext_attr
	.loc	10 256 21                       @ lvgl/src/lv_widgets/lv_page.c:256:21
	str	r0, [sp, #4]
	.loc	10 257 31 is_stmt 1             @ lvgl/src/lv_widgets/lv_page.c:257:31
	ldrb.w	r0, [sp, #11]
	and	r2, r0, #1
	.loc	10 257 5 is_stmt 0              @ lvgl/src/lv_widgets/lv_page.c:257:5
	ldr	r1, [sp, #4]
	.loc	10 257 29                       @ lvgl/src/lv_widgets/lv_page.c:257:29
	ldrb.w	r0, [r1, #48]
	and	r0, r0, #254
	add	r0, r2
	strb.w	r0, [r1, #48]
	.loc	10 262 1 is_stmt 1              @ lvgl/src/lv_widgets/lv_page.c:262:1
	add	sp, #16
	pop	{r7, pc}
.Ltmp378:
.Lfunc_end12:
	.size	lv_page_set_edge_flash, .Lfunc_end12-lv_page_set_edge_flash
	.cfi_endproc
	.cantunwind
	.fnend
                                        @ -- End function
	.section	.text.lv_page_get_anim_time,"ax",%progbits
	.hidden	lv_page_get_anim_time           @ -- Begin function lv_page_get_anim_time
	.globl	lv_page_get_anim_time
	.p2align	3
	.type	lv_page_get_anim_time,%function
	.code	16                              @ @lv_page_get_anim_time
	.thumb_func
lv_page_get_anim_time:
.Lfunc_begin13:
	.loc	10 288 0                        @ lvgl/src/lv_widgets/lv_page.c:288:0
	.fnstart
	.cfi_startproc
@ %bb.0:
	.save	{r7, lr}
	push	{r7, lr}
	.cfi_def_cfa_offset 8
	.cfi_offset lr, -4
	.cfi_offset r7, -8
	.pad	#8
	sub	sp, #8
	.cfi_def_cfa_offset 16
	str	r0, [sp, #4]
.Ltmp379:
	.loc	10 289 5 prologue_end           @ lvgl/src/lv_widgets/lv_page.c:289:5
	b	.LBB13_1
.LBB13_1:
.Ltmp380:
	.loc	10 289 5 is_stmt 0              @ lvgl/src/lv_widgets/lv_page.c:289:5
	ldr	r0, [sp, #4]
	bl	lv_debug_check_null
.Ltmp381:
	.loc	10 289 5                        @ lvgl/src/lv_widgets/lv_page.c:289:5
	cbnz	r0, .LBB13_4
	b	.LBB13_2
.LBB13_2:
.Ltmp382:
	.loc	10 289 5                        @ lvgl/src/lv_widgets/lv_page.c:289:5
	ldr	r2, [sp, #4]
	movw	r0, :lower16:.L.str.1
	movt	r0, :upper16:.L.str.1
	movs	r3, #0
	bl	lv_debug_log_error
	b	.LBB13_3
.LBB13_3:                               @ =>This Inner Loop Header: Depth=1
	b	.LBB13_3
.Ltmp383:
.LBB13_4:
	.loc	10 289 5                        @ lvgl/src/lv_widgets/lv_page.c:289:5
	b	.LBB13_5
.Ltmp384:
.LBB13_5:
	.loc	10 292 47 is_stmt 1             @ lvgl/src/lv_widgets/lv_page.c:292:47
	ldr	r0, [sp, #4]
	.loc	10 292 27 is_stmt 0             @ lvgl/src/lv_widgets/lv_page.c:292:27
	bl	lv_obj_get_ext_attr
	.loc	10 292 21                       @ lvgl/src/lv_widgets/lv_page.c:292:21
	str	r0, [sp]
	.loc	10 293 12 is_stmt 1             @ lvgl/src/lv_widgets/lv_page.c:293:12
	ldr	r0, [sp]
	.loc	10 293 17 is_stmt 0             @ lvgl/src/lv_widgets/lv_page.c:293:17
	ldrh	r0, [r0, #52]
	.loc	10 293 5                        @ lvgl/src/lv_widgets/lv_page.c:293:5
	add	sp, #8
	pop	{r7, pc}
.Ltmp385:
.Lfunc_end13:
	.size	lv_page_get_anim_time, .Lfunc_end13-lv_page_get_anim_time
	.cfi_endproc
	.cantunwind
	.fnend
                                        @ -- End function
	.section	.text.lv_page_get_scrollbar_mode,"ax",%progbits
	.hidden	lv_page_get_scrollbar_mode      @ -- Begin function lv_page_get_scrollbar_mode
	.globl	lv_page_get_scrollbar_mode
	.p2align	3
	.type	lv_page_get_scrollbar_mode,%function
	.code	16                              @ @lv_page_get_scrollbar_mode
	.thumb_func
lv_page_get_scrollbar_mode:
.Lfunc_begin14:
	.loc	10 306 0 is_stmt 1              @ lvgl/src/lv_widgets/lv_page.c:306:0
	.fnstart
	.cfi_startproc
@ %bb.0:
	.save	{r7, lr}
	push	{r7, lr}
	.cfi_def_cfa_offset 8
	.cfi_offset lr, -4
	.cfi_offset r7, -8
	.pad	#8
	sub	sp, #8
	.cfi_def_cfa_offset 16
	str	r0, [sp, #4]
.Ltmp386:
	.loc	10 307 5 prologue_end           @ lvgl/src/lv_widgets/lv_page.c:307:5
	b	.LBB14_1
.LBB14_1:
.Ltmp387:
	.loc	10 307 5 is_stmt 0              @ lvgl/src/lv_widgets/lv_page.c:307:5
	ldr	r0, [sp, #4]
	bl	lv_debug_check_null
.Ltmp388:
	.loc	10 307 5                        @ lvgl/src/lv_widgets/lv_page.c:307:5
	cbnz	r0, .LBB14_4
	b	.LBB14_2
.LBB14_2:
.Ltmp389:
	.loc	10 307 5                        @ lvgl/src/lv_widgets/lv_page.c:307:5
	ldr	r2, [sp, #4]
	movw	r0, :lower16:.L.str.1
	movt	r0, :upper16:.L.str.1
	movs	r3, #0
	bl	lv_debug_log_error
	b	.LBB14_3
.LBB14_3:                               @ =>This Inner Loop Header: Depth=1
	b	.LBB14_3
.Ltmp390:
.LBB14_4:
	.loc	10 307 5                        @ lvgl/src/lv_widgets/lv_page.c:307:5
	b	.LBB14_5
.Ltmp391:
.LBB14_5:
	.loc	10 309 47 is_stmt 1             @ lvgl/src/lv_widgets/lv_page.c:309:47
	ldr	r0, [sp, #4]
	.loc	10 309 27 is_stmt 0             @ lvgl/src/lv_widgets/lv_page.c:309:27
	bl	lv_obj_get_ext_attr
	.loc	10 309 21                       @ lvgl/src/lv_widgets/lv_page.c:309:21
	str	r0, [sp]
	.loc	10 310 12 is_stmt 1             @ lvgl/src/lv_widgets/lv_page.c:310:12
	ldr	r0, [sp]
	.loc	10 310 25 is_stmt 0             @ lvgl/src/lv_widgets/lv_page.c:310:25
	ldrb.w	r0, [r0, #32]
	ubfx	r0, r0, #2, #3
	.loc	10 310 5                        @ lvgl/src/lv_widgets/lv_page.c:310:5
	add	sp, #8
	pop	{r7, pc}
.Ltmp392:
.Lfunc_end14:
	.size	lv_page_get_scrollbar_mode, .Lfunc_end14-lv_page_get_scrollbar_mode
	.cfi_endproc
	.cantunwind
	.fnend
                                        @ -- End function
	.section	.text.lv_page_get_scroll_propagation,"ax",%progbits
	.hidden	lv_page_get_scroll_propagation  @ -- Begin function lv_page_get_scroll_propagation
	.globl	lv_page_get_scroll_propagation
	.p2align	3
	.type	lv_page_get_scroll_propagation,%function
	.code	16                              @ @lv_page_get_scroll_propagation
	.thumb_func
lv_page_get_scroll_propagation:
.Lfunc_begin15:
	.loc	10 319 0 is_stmt 1              @ lvgl/src/lv_widgets/lv_page.c:319:0
	.fnstart
	.cfi_startproc
@ %bb.0:
	.save	{r7, lr}
	push	{r7, lr}
	.cfi_def_cfa_offset 8
	.cfi_offset lr, -4
	.cfi_offset r7, -8
	.pad	#8
	sub	sp, #8
	.cfi_def_cfa_offset 16
	str	r0, [sp, #4]
.Ltmp393:
	.loc	10 320 5 prologue_end           @ lvgl/src/lv_widgets/lv_page.c:320:5
	b	.LBB15_1
.LBB15_1:
.Ltmp394:
	.loc	10 320 5 is_stmt 0              @ lvgl/src/lv_widgets/lv_page.c:320:5
	ldr	r0, [sp, #4]
	bl	lv_debug_check_null
.Ltmp395:
	.loc	10 320 5                        @ lvgl/src/lv_widgets/lv_page.c:320:5
	cbnz	r0, .LBB15_4
	b	.LBB15_2
.LBB15_2:
.Ltmp396:
	.loc	10 320 5                        @ lvgl/src/lv_widgets/lv_page.c:320:5
	ldr	r2, [sp, #4]
	movw	r0, :lower16:.L.str.1
	movt	r0, :upper16:.L.str.1
	movs	r3, #0
	bl	lv_debug_log_error
	b	.LBB15_3
.LBB15_3:                               @ =>This Inner Loop Header: Depth=1
	b	.LBB15_3
.Ltmp397:
.LBB15_4:
	.loc	10 320 5                        @ lvgl/src/lv_widgets/lv_page.c:320:5
	b	.LBB15_5
.Ltmp398:
.LBB15_5:
	.loc	10 322 47 is_stmt 1             @ lvgl/src/lv_widgets/lv_page.c:322:47
	ldr	r0, [sp, #4]
	.loc	10 322 27 is_stmt 0             @ lvgl/src/lv_widgets/lv_page.c:322:27
	bl	lv_obj_get_ext_attr
	.loc	10 322 21                       @ lvgl/src/lv_widgets/lv_page.c:322:21
	str	r0, [sp]
	.loc	10 323 12 is_stmt 1             @ lvgl/src/lv_widgets/lv_page.c:323:12
	ldr	r0, [sp]
	.loc	10 323 17 is_stmt 0             @ lvgl/src/lv_widgets/lv_page.c:323:17
	ldrb.w	r0, [r0, #60]
	.loc	10 323 12                       @ lvgl/src/lv_widgets/lv_page.c:323:12
	and	r0, r0, #1
	.loc	10 323 5                        @ lvgl/src/lv_widgets/lv_page.c:323:5
	add	sp, #8
	pop	{r7, pc}
.Ltmp399:
.Lfunc_end15:
	.size	lv_page_get_scroll_propagation, .Lfunc_end15-lv_page_get_scroll_propagation
	.cfi_endproc
	.cantunwind
	.fnend
                                        @ -- End function
	.section	.text.lv_page_get_edge_flash,"ax",%progbits
	.hidden	lv_page_get_edge_flash          @ -- Begin function lv_page_get_edge_flash
	.globl	lv_page_get_edge_flash
	.p2align	3
	.type	lv_page_get_edge_flash,%function
	.code	16                              @ @lv_page_get_edge_flash
	.thumb_func
lv_page_get_edge_flash:
.Lfunc_begin16:
	.loc	10 332 0 is_stmt 1              @ lvgl/src/lv_widgets/lv_page.c:332:0
	.fnstart
	.cfi_startproc
@ %bb.0:
	.save	{r7, lr}
	push	{r7, lr}
	.cfi_def_cfa_offset 8
	.cfi_offset lr, -4
	.cfi_offset r7, -8
	.pad	#8
	sub	sp, #8
	.cfi_def_cfa_offset 16
	str	r0, [sp, #4]
.Ltmp400:
	.loc	10 333 5 prologue_end           @ lvgl/src/lv_widgets/lv_page.c:333:5
	b	.LBB16_1
.LBB16_1:
.Ltmp401:
	.loc	10 333 5 is_stmt 0              @ lvgl/src/lv_widgets/lv_page.c:333:5
	ldr	r0, [sp, #4]
	bl	lv_debug_check_null
.Ltmp402:
	.loc	10 333 5                        @ lvgl/src/lv_widgets/lv_page.c:333:5
	cbnz	r0, .LBB16_4
	b	.LBB16_2
.LBB16_2:
.Ltmp403:
	.loc	10 333 5                        @ lvgl/src/lv_widgets/lv_page.c:333:5
	ldr	r2, [sp, #4]
	movw	r0, :lower16:.L.str.1
	movt	r0, :upper16:.L.str.1
	movs	r3, #0
	bl	lv_debug_log_error
	b	.LBB16_3
.LBB16_3:                               @ =>This Inner Loop Header: Depth=1
	b	.LBB16_3
.Ltmp404:
.LBB16_4:
	.loc	10 333 5                        @ lvgl/src/lv_widgets/lv_page.c:333:5
	b	.LBB16_5
.Ltmp405:
.LBB16_5:
	.loc	10 336 47 is_stmt 1             @ lvgl/src/lv_widgets/lv_page.c:336:47
	ldr	r0, [sp, #4]
	.loc	10 336 27 is_stmt 0             @ lvgl/src/lv_widgets/lv_page.c:336:27
	bl	lv_obj_get_ext_attr
	.loc	10 336 21                       @ lvgl/src/lv_widgets/lv_page.c:336:21
	str	r0, [sp]
	.loc	10 337 12 is_stmt 1             @ lvgl/src/lv_widgets/lv_page.c:337:12
	ldr	r0, [sp]
	.loc	10 337 28 is_stmt 0             @ lvgl/src/lv_widgets/lv_page.c:337:28
	ldrb.w	r0, [r0, #48]
	.loc	10 337 12                       @ lvgl/src/lv_widgets/lv_page.c:337:12
	and	r0, r0, #1
	.loc	10 337 5                        @ lvgl/src/lv_widgets/lv_page.c:337:5
	add	sp, #8
	pop	{r7, pc}
.Ltmp406:
.Lfunc_end16:
	.size	lv_page_get_edge_flash, .Lfunc_end16-lv_page_get_edge_flash
	.cfi_endproc
	.cantunwind
	.fnend
                                        @ -- End function
	.section	.text.lv_page_get_width_fit,"ax",%progbits
	.hidden	lv_page_get_width_fit           @ -- Begin function lv_page_get_width_fit
	.globl	lv_page_get_width_fit
	.p2align	3
	.type	lv_page_get_width_fit,%function
	.code	16                              @ @lv_page_get_width_fit
	.thumb_func
lv_page_get_width_fit:
.Lfunc_begin17:
	.loc	10 350 0 is_stmt 1              @ lvgl/src/lv_widgets/lv_page.c:350:0
	.fnstart
	.cfi_startproc
@ %bb.0:
	.save	{r7, lr}
	push	{r7, lr}
	.cfi_def_cfa_offset 8
	.cfi_offset lr, -4
	.cfi_offset r7, -8
	.pad	#24
	sub	sp, #24
	.cfi_def_cfa_offset 32
	str	r0, [sp, #20]
.Ltmp407:
	.loc	10 351 5 prologue_end           @ lvgl/src/lv_widgets/lv_page.c:351:5
	b	.LBB17_1
.LBB17_1:
.Ltmp408:
	.loc	10 351 5 is_stmt 0              @ lvgl/src/lv_widgets/lv_page.c:351:5
	ldr	r0, [sp, #20]
	bl	lv_debug_check_null
.Ltmp409:
	.loc	10 351 5                        @ lvgl/src/lv_widgets/lv_page.c:351:5
	cbnz	r0, .LBB17_4
	b	.LBB17_2
.LBB17_2:
.Ltmp410:
	.loc	10 351 5                        @ lvgl/src/lv_widgets/lv_page.c:351:5
	ldr	r2, [sp, #20]
	movw	r0, :lower16:.L.str.1
	movt	r0, :upper16:.L.str.1
	movs	r3, #0
	bl	lv_debug_log_error
	b	.LBB17_3
.LBB17_3:                               @ =>This Inner Loop Header: Depth=1
	b	.LBB17_3
.Ltmp411:
.LBB17_4:
	.loc	10 351 5                        @ lvgl/src/lv_widgets/lv_page.c:351:5
	b	.LBB17_5
.Ltmp412:
.LBB17_5:
	.loc	10 353 47 is_stmt 1             @ lvgl/src/lv_widgets/lv_page.c:353:47
	ldr	r0, [sp, #20]
	.loc	10 353 27 is_stmt 0             @ lvgl/src/lv_widgets/lv_page.c:353:27
	bl	lv_obj_get_ext_attr
	.loc	10 353 21                       @ lvgl/src/lv_widgets/lv_page.c:353:21
	str	r0, [sp, #16]
	.loc	10 354 56 is_stmt 1             @ lvgl/src/lv_widgets/lv_page.c:354:56
	ldr	r0, [sp, #20]
	movs	r1, #0
	.loc	10 354 30 is_stmt 0             @ lvgl/src/lv_widgets/lv_page.c:354:30
	str	r1, [sp, #4]                    @ 4-byte Spill
	bl	lv_obj_get_style_pad_left
	ldr	r1, [sp, #4]                    @ 4-byte Reload
	.loc	10 354 20                       @ lvgl/src/lv_widgets/lv_page.c:354:20
	strh.w	r0, [sp, #14]
	.loc	10 355 58 is_stmt 1             @ lvgl/src/lv_widgets/lv_page.c:355:58
	ldr	r0, [sp, #20]
	.loc	10 355 31 is_stmt 0             @ lvgl/src/lv_widgets/lv_page.c:355:31
	bl	lv_obj_get_style_pad_right
	ldr	r1, [sp, #4]                    @ 4-byte Reload
	.loc	10 355 20                       @ lvgl/src/lv_widgets/lv_page.c:355:20
	strh.w	r0, [sp, #12]
	.loc	10 356 58 is_stmt 1             @ lvgl/src/lv_widgets/lv_page.c:356:58
	ldr	r0, [sp, #16]
	.loc	10 356 63 is_stmt 0             @ lvgl/src/lv_widgets/lv_page.c:356:63
	ldr	r0, [r0, #4]
	.loc	10 356 32                       @ lvgl/src/lv_widgets/lv_page.c:356:32
	bl	lv_obj_get_style_pad_left
	ldr	r1, [sp, #4]                    @ 4-byte Reload
	.loc	10 356 20                       @ lvgl/src/lv_widgets/lv_page.c:356:20
	strh.w	r0, [sp, #10]
	.loc	10 357 60 is_stmt 1             @ lvgl/src/lv_widgets/lv_page.c:357:60
	ldr	r0, [sp, #16]
	.loc	10 357 65 is_stmt 0             @ lvgl/src/lv_widgets/lv_page.c:357:65
	ldr	r0, [r0, #4]
	.loc	10 357 33                       @ lvgl/src/lv_widgets/lv_page.c:357:33
	bl	lv_obj_get_style_pad_right
	.loc	10 357 20                       @ lvgl/src/lv_widgets/lv_page.c:357:20
	strh.w	r0, [sp, #8]
	.loc	10 359 29 is_stmt 1             @ lvgl/src/lv_widgets/lv_page.c:359:29
	ldr	r0, [sp, #20]
	.loc	10 359 12 is_stmt 0             @ lvgl/src/lv_widgets/lv_page.c:359:12
	bl	lv_obj_get_width
	.loc	10 359 37                       @ lvgl/src/lv_widgets/lv_page.c:359:37
	ldrh.w	r1, [sp, #14]
	.loc	10 359 35                       @ lvgl/src/lv_widgets/lv_page.c:359:35
	subs	r0, r0, r1
	.loc	10 359 47                       @ lvgl/src/lv_widgets/lv_page.c:359:47
	ldrh.w	r1, [sp, #12]
	.loc	10 359 45                       @ lvgl/src/lv_widgets/lv_page.c:359:45
	subs	r0, r0, r1
	.loc	10 359 58                       @ lvgl/src/lv_widgets/lv_page.c:359:58
	ldrh.w	r1, [sp, #10]
	.loc	10 359 56                       @ lvgl/src/lv_widgets/lv_page.c:359:56
	subs	r0, r0, r1
	.loc	10 359 70                       @ lvgl/src/lv_widgets/lv_page.c:359:70
	ldrh.w	r1, [sp, #8]
	.loc	10 359 68                       @ lvgl/src/lv_widgets/lv_page.c:359:68
	subs	r0, r0, r1
	.loc	10 359 5                        @ lvgl/src/lv_widgets/lv_page.c:359:5
	sxth	r0, r0
	add	sp, #24
	pop	{r7, pc}
.Ltmp413:
.Lfunc_end17:
	.size	lv_page_get_width_fit, .Lfunc_end17-lv_page_get_width_fit
	.cfi_endproc
	.cantunwind
	.fnend
                                        @ -- End function
	.section	.text.lv_obj_get_style_pad_left,"ax",%progbits
	.p2align	3                               @ -- Begin function lv_obj_get_style_pad_left
	.type	lv_obj_get_style_pad_left,%function
	.code	16                              @ @lv_obj_get_style_pad_left
	.thumb_func
lv_obj_get_style_pad_left:
.Lfunc_begin18:
	.file	16 "E:\\Smart-access-control\\Hardware\\CODE" "lvgl/src/lv_widgets/../lv_core/lv_obj_style_dec.h"
	.loc	16 102 0 is_stmt 1              @ lvgl/src/lv_widgets/../lv_core/lv_obj_style_dec.h:102:0
	.fnstart
	.cfi_startproc
@ %bb.0:
	.save	{r7, lr}
	push	{r7, lr}
	.cfi_def_cfa_offset 8
	.cfi_offset lr, -4
	.cfi_offset r7, -8
	.pad	#8
	sub	sp, #8
	.cfi_def_cfa_offset 16
                                        @ kill: def $r2 killed $r1
	str	r0, [sp, #4]
	strb.w	r1, [sp, #3]
.Ltmp414:
	.loc	16 102 1 prologue_end           @ lvgl/src/lv_widgets/../lv_core/lv_obj_style_dec.h:102:1
	ldr	r0, [sp, #4]
	ldrb.w	r1, [sp, #3]
	movs	r2, #18
	bl	_lv_obj_get_style_int
	add	sp, #8
	pop	{r7, pc}
.Ltmp415:
.Lfunc_end18:
	.size	lv_obj_get_style_pad_left, .Lfunc_end18-lv_obj_get_style_pad_left
	.cfi_endproc
	.cantunwind
	.fnend
                                        @ -- End function
	.section	.text.lv_obj_get_style_pad_right,"ax",%progbits
	.p2align	3                               @ -- Begin function lv_obj_get_style_pad_right
	.type	lv_obj_get_style_pad_right,%function
	.code	16                              @ @lv_obj_get_style_pad_right
	.thumb_func
lv_obj_get_style_pad_right:
.Lfunc_begin19:
	.loc	16 103 0                        @ lvgl/src/lv_widgets/../lv_core/lv_obj_style_dec.h:103:0
	.fnstart
	.cfi_startproc
@ %bb.0:
	.save	{r7, lr}
	push	{r7, lr}
	.cfi_def_cfa_offset 8
	.cfi_offset lr, -4
	.cfi_offset r7, -8
	.pad	#8
	sub	sp, #8
	.cfi_def_cfa_offset 16
                                        @ kill: def $r2 killed $r1
	str	r0, [sp, #4]
	strb.w	r1, [sp, #3]
.Ltmp416:
	.loc	16 103 1 prologue_end           @ lvgl/src/lv_widgets/../lv_core/lv_obj_style_dec.h:103:1
	ldr	r0, [sp, #4]
	ldrb.w	r1, [sp, #3]
	movs	r2, #19
	bl	_lv_obj_get_style_int
	add	sp, #8
	pop	{r7, pc}
.Ltmp417:
.Lfunc_end19:
	.size	lv_obj_get_style_pad_right, .Lfunc_end19-lv_obj_get_style_pad_right
	.cfi_endproc
	.cantunwind
	.fnend
                                        @ -- End function
	.section	.text.lv_page_get_height_fit,"ax",%progbits
	.hidden	lv_page_get_height_fit          @ -- Begin function lv_page_get_height_fit
	.globl	lv_page_get_height_fit
	.p2align	3
	.type	lv_page_get_height_fit,%function
	.code	16                              @ @lv_page_get_height_fit
	.thumb_func
lv_page_get_height_fit:
.Lfunc_begin20:
	.loc	10 368 0                        @ lvgl/src/lv_widgets/lv_page.c:368:0
	.fnstart
	.cfi_startproc
@ %bb.0:
	.save	{r7, lr}
	push	{r7, lr}
	.cfi_def_cfa_offset 8
	.cfi_offset lr, -4
	.cfi_offset r7, -8
	.pad	#24
	sub	sp, #24
	.cfi_def_cfa_offset 32
	str	r0, [sp, #20]
.Ltmp418:
	.loc	10 369 5 prologue_end           @ lvgl/src/lv_widgets/lv_page.c:369:5
	b	.LBB20_1
.LBB20_1:
.Ltmp419:
	.loc	10 369 5 is_stmt 0              @ lvgl/src/lv_widgets/lv_page.c:369:5
	ldr	r0, [sp, #20]
	bl	lv_debug_check_null
.Ltmp420:
	.loc	10 369 5                        @ lvgl/src/lv_widgets/lv_page.c:369:5
	cbnz	r0, .LBB20_4
	b	.LBB20_2
.LBB20_2:
.Ltmp421:
	.loc	10 369 5                        @ lvgl/src/lv_widgets/lv_page.c:369:5
	ldr	r2, [sp, #20]
	movw	r0, :lower16:.L.str.1
	movt	r0, :upper16:.L.str.1
	movs	r3, #0
	bl	lv_debug_log_error
	b	.LBB20_3
.LBB20_3:                               @ =>This Inner Loop Header: Depth=1
	b	.LBB20_3
.Ltmp422:
.LBB20_4:
	.loc	10 369 5                        @ lvgl/src/lv_widgets/lv_page.c:369:5
	b	.LBB20_5
.Ltmp423:
.LBB20_5:
	.loc	10 371 47 is_stmt 1             @ lvgl/src/lv_widgets/lv_page.c:371:47
	ldr	r0, [sp, #20]
	.loc	10 371 27 is_stmt 0             @ lvgl/src/lv_widgets/lv_page.c:371:27
	bl	lv_obj_get_ext_attr
	.loc	10 371 21                       @ lvgl/src/lv_widgets/lv_page.c:371:21
	str	r0, [sp, #16]
	.loc	10 373 54 is_stmt 1             @ lvgl/src/lv_widgets/lv_page.c:373:54
	ldr	r0, [sp, #20]
	movs	r1, #0
	.loc	10 373 29 is_stmt 0             @ lvgl/src/lv_widgets/lv_page.c:373:29
	str	r1, [sp, #4]                    @ 4-byte Spill
	bl	lv_obj_get_style_pad_top
	ldr	r1, [sp, #4]                    @ 4-byte Reload
	.loc	10 373 20                       @ lvgl/src/lv_widgets/lv_page.c:373:20
	strh.w	r0, [sp, #14]
	.loc	10 374 60 is_stmt 1             @ lvgl/src/lv_widgets/lv_page.c:374:60
	ldr	r0, [sp, #20]
	.loc	10 374 32 is_stmt 0             @ lvgl/src/lv_widgets/lv_page.c:374:32
	bl	lv_obj_get_style_pad_bottom
	ldr	r1, [sp, #4]                    @ 4-byte Reload
	.loc	10 374 20                       @ lvgl/src/lv_widgets/lv_page.c:374:20
	strh.w	r0, [sp, #12]
	.loc	10 375 56 is_stmt 1             @ lvgl/src/lv_widgets/lv_page.c:375:56
	ldr	r0, [sp, #16]
	.loc	10 375 61 is_stmt 0             @ lvgl/src/lv_widgets/lv_page.c:375:61
	ldr	r0, [r0, #4]
	.loc	10 375 31                       @ lvgl/src/lv_widgets/lv_page.c:375:31
	bl	lv_obj_get_style_pad_top
	ldr	r1, [sp, #4]                    @ 4-byte Reload
	.loc	10 375 20                       @ lvgl/src/lv_widgets/lv_page.c:375:20
	strh.w	r0, [sp, #10]
	.loc	10 376 62 is_stmt 1             @ lvgl/src/lv_widgets/lv_page.c:376:62
	ldr	r0, [sp, #16]
	.loc	10 376 67 is_stmt 0             @ lvgl/src/lv_widgets/lv_page.c:376:67
	ldr	r0, [r0, #4]
	.loc	10 376 34                       @ lvgl/src/lv_widgets/lv_page.c:376:34
	bl	lv_obj_get_style_pad_bottom
	.loc	10 376 20                       @ lvgl/src/lv_widgets/lv_page.c:376:20
	strh.w	r0, [sp, #8]
	.loc	10 378 30 is_stmt 1             @ lvgl/src/lv_widgets/lv_page.c:378:30
	ldr	r0, [sp, #20]
	.loc	10 378 12 is_stmt 0             @ lvgl/src/lv_widgets/lv_page.c:378:12
	bl	lv_obj_get_height
	.loc	10 378 38                       @ lvgl/src/lv_widgets/lv_page.c:378:38
	ldrh.w	r1, [sp, #14]
	.loc	10 378 36                       @ lvgl/src/lv_widgets/lv_page.c:378:36
	subs	r0, r0, r1
	.loc	10 378 47                       @ lvgl/src/lv_widgets/lv_page.c:378:47
	ldrh.w	r1, [sp, #12]
	.loc	10 378 45                       @ lvgl/src/lv_widgets/lv_page.c:378:45
	subs	r0, r0, r1
	.loc	10 378 59                       @ lvgl/src/lv_widgets/lv_page.c:378:59
	ldrh.w	r1, [sp, #10]
	.loc	10 378 57                       @ lvgl/src/lv_widgets/lv_page.c:378:57
	subs	r0, r0, r1
	.loc	10 378 70                       @ lvgl/src/lv_widgets/lv_page.c:378:70
	ldrh.w	r1, [sp, #8]
	.loc	10 378 68                       @ lvgl/src/lv_widgets/lv_page.c:378:68
	subs	r0, r0, r1
	.loc	10 378 5                        @ lvgl/src/lv_widgets/lv_page.c:378:5
	sxth	r0, r0
	add	sp, #24
	pop	{r7, pc}
.Ltmp424:
.Lfunc_end20:
	.size	lv_page_get_height_fit, .Lfunc_end20-lv_page_get_height_fit
	.cfi_endproc
	.cantunwind
	.fnend
                                        @ -- End function
	.section	.text.lv_obj_get_style_pad_top,"ax",%progbits
	.p2align	3                               @ -- Begin function lv_obj_get_style_pad_top
	.type	lv_obj_get_style_pad_top,%function
	.code	16                              @ @lv_obj_get_style_pad_top
	.thumb_func
lv_obj_get_style_pad_top:
.Lfunc_begin21:
	.loc	16 100 0 is_stmt 1              @ lvgl/src/lv_widgets/../lv_core/lv_obj_style_dec.h:100:0
	.fnstart
	.cfi_startproc
@ %bb.0:
	.save	{r7, lr}
	push	{r7, lr}
	.cfi_def_cfa_offset 8
	.cfi_offset lr, -4
	.cfi_offset r7, -8
	.pad	#8
	sub	sp, #8
	.cfi_def_cfa_offset 16
                                        @ kill: def $r2 killed $r1
	str	r0, [sp, #4]
	strb.w	r1, [sp, #3]
.Ltmp425:
	.loc	16 100 1 prologue_end           @ lvgl/src/lv_widgets/../lv_core/lv_obj_style_dec.h:100:1
	ldr	r0, [sp, #4]
	ldrb.w	r1, [sp, #3]
	movs	r2, #16
	bl	_lv_obj_get_style_int
	add	sp, #8
	pop	{r7, pc}
.Ltmp426:
.Lfunc_end21:
	.size	lv_obj_get_style_pad_top, .Lfunc_end21-lv_obj_get_style_pad_top
	.cfi_endproc
	.cantunwind
	.fnend
                                        @ -- End function
	.section	.text.lv_obj_get_style_pad_bottom,"ax",%progbits
	.p2align	3                               @ -- Begin function lv_obj_get_style_pad_bottom
	.type	lv_obj_get_style_pad_bottom,%function
	.code	16                              @ @lv_obj_get_style_pad_bottom
	.thumb_func
lv_obj_get_style_pad_bottom:
.Lfunc_begin22:
	.loc	16 101 0                        @ lvgl/src/lv_widgets/../lv_core/lv_obj_style_dec.h:101:0
	.fnstart
	.cfi_startproc
@ %bb.0:
	.save	{r7, lr}
	push	{r7, lr}
	.cfi_def_cfa_offset 8
	.cfi_offset lr, -4
	.cfi_offset r7, -8
	.pad	#8
	sub	sp, #8
	.cfi_def_cfa_offset 16
                                        @ kill: def $r2 killed $r1
	str	r0, [sp, #4]
	strb.w	r1, [sp, #3]
.Ltmp427:
	.loc	16 101 1 prologue_end           @ lvgl/src/lv_widgets/../lv_core/lv_obj_style_dec.h:101:1
	ldr	r0, [sp, #4]
	ldrb.w	r1, [sp, #3]
	movs	r2, #17
	bl	_lv_obj_get_style_int
	add	sp, #8
	pop	{r7, pc}
.Ltmp428:
.Lfunc_end22:
	.size	lv_obj_get_style_pad_bottom, .Lfunc_end22-lv_obj_get_style_pad_bottom
	.cfi_endproc
	.cantunwind
	.fnend
                                        @ -- End function
	.section	.text.lv_page_get_width_grid,"ax",%progbits
	.hidden	lv_page_get_width_grid          @ -- Begin function lv_page_get_width_grid
	.globl	lv_page_get_width_grid
	.p2align	3
	.type	lv_page_get_width_grid,%function
	.code	16                              @ @lv_page_get_width_grid
	.thumb_func
lv_page_get_width_grid:
.Lfunc_begin23:
	.loc	10 393 0                        @ lvgl/src/lv_widgets/lv_page.c:393:0
	.fnstart
	.cfi_startproc
@ %bb.0:
	.save	{r7, lr}
	push	{r7, lr}
	.cfi_def_cfa_offset 8
	.cfi_offset lr, -4
	.cfi_offset r7, -8
	.pad	#16
	sub	sp, #16
	.cfi_def_cfa_offset 24
                                        @ kill: def $r3 killed $r2
                                        @ kill: def $r3 killed $r1
	str	r0, [sp, #12]
	strb.w	r1, [sp, #11]
	strb.w	r2, [sp, #10]
.Ltmp429:
	.loc	10 395 46 prologue_end          @ lvgl/src/lv_widgets/lv_page.c:395:46
	ldr	r0, [sp, #12]
	.loc	10 395 24 is_stmt 0             @ lvgl/src/lv_widgets/lv_page.c:395:24
	bl	lv_page_get_width_fit
	.loc	10 395 16                       @ lvgl/src/lv_widgets/lv_page.c:395:16
	strh.w	r0, [sp, #8]
	.loc	10 396 56 is_stmt 1             @ lvgl/src/lv_widgets/lv_page.c:396:56
	ldr	r0, [sp, #12]
	movs	r1, #64
	.loc	10 396 29 is_stmt 0             @ lvgl/src/lv_widgets/lv_page.c:396:29
	bl	lv_obj_get_style_pad_inner
	.loc	10 396 20                       @ lvgl/src/lv_widgets/lv_page.c:396:20
	strh.w	r0, [sp, #6]
	.loc	10 398 21 is_stmt 1             @ lvgl/src/lv_widgets/lv_page.c:398:21
	ldrsh.w	r3, [sp, #8]
	.loc	10 398 30 is_stmt 0             @ lvgl/src/lv_widgets/lv_page.c:398:30
	ldrb.w	r1, [sp, #11]
	.loc	10 398 34                       @ lvgl/src/lv_widgets/lv_page.c:398:34
	subs	r0, r1, #1
	.loc	10 398 41                       @ lvgl/src/lv_widgets/lv_page.c:398:41
	ldrsh.w	r2, [sp, #6]
	.loc	10 398 27                       @ lvgl/src/lv_widgets/lv_page.c:398:27
	mls	r0, r0, r2, r3
	.loc	10 398 49                       @ lvgl/src/lv_widgets/lv_page.c:398:49
	sdiv	r0, r0, r1
	.loc	10 398 16                       @ lvgl/src/lv_widgets/lv_page.c:398:16
	strh.w	r0, [sp, #4]
	.loc	10 400 9 is_stmt 1              @ lvgl/src/lv_widgets/lv_page.c:400:9
	ldrh.w	r0, [sp, #4]
	.loc	10 400 13 is_stmt 0             @ lvgl/src/lv_widgets/lv_page.c:400:13
	ldrb.w	r1, [sp, #10]
	.loc	10 400 26                       @ lvgl/src/lv_widgets/lv_page.c:400:26
	subs	r2, r1, #1
	.loc	10 400 33                       @ lvgl/src/lv_widgets/lv_page.c:400:33
	ldrh.w	r3, [sp, #6]
	.loc	10 400 31                       @ lvgl/src/lv_widgets/lv_page.c:400:31
	muls	r2, r3, r2
	.loc	10 400 18                       @ lvgl/src/lv_widgets/lv_page.c:400:18
	mla	r0, r0, r1, r2
	.loc	10 400 7                        @ lvgl/src/lv_widgets/lv_page.c:400:7
	strh.w	r0, [sp, #4]
	.loc	10 401 12 is_stmt 1             @ lvgl/src/lv_widgets/lv_page.c:401:12
	ldrsh.w	r0, [sp, #4]
	.loc	10 401 5 is_stmt 0              @ lvgl/src/lv_widgets/lv_page.c:401:5
	add	sp, #16
	pop	{r7, pc}
.Ltmp430:
.Lfunc_end23:
	.size	lv_page_get_width_grid, .Lfunc_end23-lv_page_get_width_grid
	.cfi_endproc
	.cantunwind
	.fnend
                                        @ -- End function
	.section	.text.lv_obj_get_style_pad_inner,"ax",%progbits
	.p2align	3                               @ -- Begin function lv_obj_get_style_pad_inner
	.type	lv_obj_get_style_pad_inner,%function
	.code	16                              @ @lv_obj_get_style_pad_inner
	.thumb_func
lv_obj_get_style_pad_inner:
.Lfunc_begin24:
	.loc	16 104 0 is_stmt 1              @ lvgl/src/lv_widgets/../lv_core/lv_obj_style_dec.h:104:0
	.fnstart
	.cfi_startproc
@ %bb.0:
	.save	{r7, lr}
	push	{r7, lr}
	.cfi_def_cfa_offset 8
	.cfi_offset lr, -4
	.cfi_offset r7, -8
	.pad	#8
	sub	sp, #8
	.cfi_def_cfa_offset 16
                                        @ kill: def $r2 killed $r1
	str	r0, [sp, #4]
	strb.w	r1, [sp, #3]
.Ltmp431:
	.loc	16 104 1 prologue_end           @ lvgl/src/lv_widgets/../lv_core/lv_obj_style_dec.h:104:1
	ldr	r0, [sp, #4]
	ldrb.w	r1, [sp, #3]
	movs	r2, #20
	bl	_lv_obj_get_style_int
	add	sp, #8
	pop	{r7, pc}
.Ltmp432:
.Lfunc_end24:
	.size	lv_obj_get_style_pad_inner, .Lfunc_end24-lv_obj_get_style_pad_inner
	.cfi_endproc
	.cantunwind
	.fnend
                                        @ -- End function
	.section	.text.lv_page_get_height_grid,"ax",%progbits
	.hidden	lv_page_get_height_grid         @ -- Begin function lv_page_get_height_grid
	.globl	lv_page_get_height_grid
	.p2align	3
	.type	lv_page_get_height_grid,%function
	.code	16                              @ @lv_page_get_height_grid
	.thumb_func
lv_page_get_height_grid:
.Lfunc_begin25:
	.loc	10 416 0                        @ lvgl/src/lv_widgets/lv_page.c:416:0
	.fnstart
	.cfi_startproc
@ %bb.0:
	.save	{r7, lr}
	push	{r7, lr}
	.cfi_def_cfa_offset 8
	.cfi_offset lr, -4
	.cfi_offset r7, -8
	.pad	#16
	sub	sp, #16
	.cfi_def_cfa_offset 24
                                        @ kill: def $r3 killed $r2
                                        @ kill: def $r3 killed $r1
	str	r0, [sp, #12]
	strb.w	r1, [sp, #11]
	strb.w	r2, [sp, #10]
.Ltmp433:
	.loc	10 417 47 prologue_end          @ lvgl/src/lv_widgets/lv_page.c:417:47
	ldr	r0, [sp, #12]
	.loc	10 417 24 is_stmt 0             @ lvgl/src/lv_widgets/lv_page.c:417:24
	bl	lv_page_get_height_fit
	.loc	10 417 16                       @ lvgl/src/lv_widgets/lv_page.c:417:16
	strh.w	r0, [sp, #8]
	.loc	10 418 56 is_stmt 1             @ lvgl/src/lv_widgets/lv_page.c:418:56
	ldr	r0, [sp, #12]
	movs	r1, #64
	.loc	10 418 29 is_stmt 0             @ lvgl/src/lv_widgets/lv_page.c:418:29
	bl	lv_obj_get_style_pad_inner
	.loc	10 418 20                       @ lvgl/src/lv_widgets/lv_page.c:418:20
	strh.w	r0, [sp, #6]
	.loc	10 420 21 is_stmt 1             @ lvgl/src/lv_widgets/lv_page.c:420:21
	ldrsh.w	r3, [sp, #8]
	.loc	10 420 30 is_stmt 0             @ lvgl/src/lv_widgets/lv_page.c:420:30
	ldrb.w	r1, [sp, #11]
	.loc	10 420 34                       @ lvgl/src/lv_widgets/lv_page.c:420:34
	subs	r0, r1, #1
	.loc	10 420 41                       @ lvgl/src/lv_widgets/lv_page.c:420:41
	ldrsh.w	r2, [sp, #6]
	.loc	10 420 27                       @ lvgl/src/lv_widgets/lv_page.c:420:27
	mls	r0, r0, r2, r3
	.loc	10 420 49                       @ lvgl/src/lv_widgets/lv_page.c:420:49
	sdiv	r0, r0, r1
	.loc	10 420 16                       @ lvgl/src/lv_widgets/lv_page.c:420:16
	strh.w	r0, [sp, #4]
	.loc	10 422 9 is_stmt 1              @ lvgl/src/lv_widgets/lv_page.c:422:9
	ldrh.w	r0, [sp, #4]
	.loc	10 422 13 is_stmt 0             @ lvgl/src/lv_widgets/lv_page.c:422:13
	ldrb.w	r1, [sp, #10]
	.loc	10 422 26                       @ lvgl/src/lv_widgets/lv_page.c:422:26
	subs	r2, r1, #1
	.loc	10 422 33                       @ lvgl/src/lv_widgets/lv_page.c:422:33
	ldrh.w	r3, [sp, #6]
	.loc	10 422 31                       @ lvgl/src/lv_widgets/lv_page.c:422:31
	muls	r2, r3, r2
	.loc	10 422 18                       @ lvgl/src/lv_widgets/lv_page.c:422:18
	mla	r0, r0, r1, r2
	.loc	10 422 7                        @ lvgl/src/lv_widgets/lv_page.c:422:7
	strh.w	r0, [sp, #4]
	.loc	10 423 12 is_stmt 1             @ lvgl/src/lv_widgets/lv_page.c:423:12
	ldrsh.w	r0, [sp, #4]
	.loc	10 423 5 is_stmt 0              @ lvgl/src/lv_widgets/lv_page.c:423:5
	add	sp, #16
	pop	{r7, pc}
.Ltmp434:
.Lfunc_end25:
	.size	lv_page_get_height_grid, .Lfunc_end25-lv_page_get_height_grid
	.cfi_endproc
	.cantunwind
	.fnend
                                        @ -- End function
	.section	.text.lv_page_on_edge,"ax",%progbits
	.hidden	lv_page_on_edge                 @ -- Begin function lv_page_on_edge
	.globl	lv_page_on_edge
	.p2align	3
	.type	lv_page_on_edge,%function
	.code	16                              @ @lv_page_on_edge
	.thumb_func
lv_page_on_edge:
.Lfunc_begin26:
	.loc	10 437 0 is_stmt 1              @ lvgl/src/lv_widgets/lv_page.c:437:0
	.fnstart
	.cfi_startproc
@ %bb.0:
	.save	{r7, lr}
	push	{r7, lr}
	.cfi_def_cfa_offset 8
	.cfi_offset lr, -4
	.cfi_offset r7, -8
	.pad	#48
	sub	sp, #48
	.cfi_def_cfa_offset 56
                                        @ kill: def $r2 killed $r1
	str	r0, [sp, #40]
	strb.w	r1, [sp, #39]
.Ltmp435:
	.loc	10 438 60 prologue_end          @ lvgl/src/lv_widgets/lv_page.c:438:60
	ldr	r0, [sp, #40]
	.loc	10 438 37 is_stmt 0             @ lvgl/src/lv_widgets/lv_page.c:438:37
	bl	lv_page_get_scrollable
	.loc	10 438 16                       @ lvgl/src/lv_widgets/lv_page.c:438:16
	str	r0, [sp, #32]
	.loc	10 442 23 is_stmt 1             @ lvgl/src/lv_widgets/lv_page.c:442:23
	ldr	r0, [sp, #32]
	add	r1, sp, #16
	.loc	10 442 5 is_stmt 0              @ lvgl/src/lv_widgets/lv_page.c:442:5
	bl	lv_obj_get_coords
	.loc	10 443 23 is_stmt 1             @ lvgl/src/lv_widgets/lv_page.c:443:23
	ldr	r0, [sp, #40]
	add	r1, sp, #24
	.loc	10 443 5 is_stmt 0              @ lvgl/src/lv_widgets/lv_page.c:443:5
	bl	lv_obj_get_coords
	.loc	10 445 53 is_stmt 1             @ lvgl/src/lv_widgets/lv_page.c:445:53
	ldr	r0, [sp, #40]
	movs	r1, #0
	.loc	10 445 27 is_stmt 0             @ lvgl/src/lv_widgets/lv_page.c:445:27
	str	r1, [sp, #4]                    @ 4-byte Spill
	bl	lv_obj_get_style_pad_left
	ldr	r1, [sp, #4]                    @ 4-byte Reload
	.loc	10 445 20                       @ lvgl/src/lv_widgets/lv_page.c:445:20
	strh.w	r0, [sp, #14]
	.loc	10 446 55 is_stmt 1             @ lvgl/src/lv_widgets/lv_page.c:446:55
	ldr	r0, [sp, #40]
	.loc	10 446 28 is_stmt 0             @ lvgl/src/lv_widgets/lv_page.c:446:28
	bl	lv_obj_get_style_pad_right
	ldr	r1, [sp, #4]                    @ 4-byte Reload
	.loc	10 446 20                       @ lvgl/src/lv_widgets/lv_page.c:446:20
	strh.w	r0, [sp, #12]
	.loc	10 447 51 is_stmt 1             @ lvgl/src/lv_widgets/lv_page.c:447:51
	ldr	r0, [sp, #40]
	.loc	10 447 26 is_stmt 0             @ lvgl/src/lv_widgets/lv_page.c:447:26
	bl	lv_obj_get_style_pad_top
	ldr	r1, [sp, #4]                    @ 4-byte Reload
	.loc	10 447 20                       @ lvgl/src/lv_widgets/lv_page.c:447:20
	strh.w	r0, [sp, #10]
	.loc	10 448 57 is_stmt 1             @ lvgl/src/lv_widgets/lv_page.c:448:57
	ldr	r0, [sp, #40]
	.loc	10 448 29 is_stmt 0             @ lvgl/src/lv_widgets/lv_page.c:448:29
	bl	lv_obj_get_style_pad_bottom
	.loc	10 448 20                       @ lvgl/src/lv_widgets/lv_page.c:448:20
	strh.w	r0, [sp, #8]
.Ltmp436:
	.loc	10 450 9 is_stmt 1              @ lvgl/src/lv_widgets/lv_page.c:450:9
	ldrb.w	r0, [sp, #39]
	.loc	10 450 34 is_stmt 0             @ lvgl/src/lv_widgets/lv_page.c:450:34
	lsls	r0, r0, #30
	cmp	r0, #0
	bpl	.LBB26_3
	b	.LBB26_1
.LBB26_1:
	.loc	10 450 49                       @ lvgl/src/lv_widgets/lv_page.c:450:49
	ldrsh.w	r0, [sp, #18]
	.loc	10 450 67                       @ lvgl/src/lv_widgets/lv_page.c:450:67
	ldrsh.w	r1, [sp, #26]
	.loc	10 450 72                       @ lvgl/src/lv_widgets/lv_page.c:450:72
	ldrsh.w	r2, [sp, #10]
	.loc	10 450 70                       @ lvgl/src/lv_widgets/lv_page.c:450:70
	add	r1, r2
.Ltmp437:
	.loc	10 450 8                        @ lvgl/src/lv_widgets/lv_page.c:450:8
	cmp	r0, r1
	bne	.LBB26_3
	b	.LBB26_2
.LBB26_2:
	.loc	10 0 8                          @ lvgl/src/lv_widgets/lv_page.c:0:8
	movs	r0, #1
.Ltmp438:
	.loc	10 450 77                       @ lvgl/src/lv_widgets/lv_page.c:450:77
	strb.w	r0, [sp, #47]
	b	.LBB26_13
.Ltmp439:
.LBB26_3:
	.loc	10 451 9 is_stmt 1              @ lvgl/src/lv_widgets/lv_page.c:451:9
	ldrb.w	r0, [sp, #39]
	.loc	10 451 37 is_stmt 0             @ lvgl/src/lv_widgets/lv_page.c:451:37
	lsls	r0, r0, #28
	cmp	r0, #0
	bpl	.LBB26_6
	b	.LBB26_4
.LBB26_4:
	.loc	10 451 52                       @ lvgl/src/lv_widgets/lv_page.c:451:52
	ldrsh.w	r0, [sp, #22]
	.loc	10 451 70                       @ lvgl/src/lv_widgets/lv_page.c:451:70
	ldrsh.w	r1, [sp, #30]
	.loc	10 451 75                       @ lvgl/src/lv_widgets/lv_page.c:451:75
	ldrsh.w	r2, [sp, #8]
	.loc	10 451 73                       @ lvgl/src/lv_widgets/lv_page.c:451:73
	subs	r1, r1, r2
.Ltmp440:
	.loc	10 451 8                        @ lvgl/src/lv_widgets/lv_page.c:451:8
	cmp	r0, r1
	bne	.LBB26_6
	b	.LBB26_5
.LBB26_5:
	.loc	10 0 8                          @ lvgl/src/lv_widgets/lv_page.c:0:8
	movs	r0, #1
.Ltmp441:
	.loc	10 451 83                       @ lvgl/src/lv_widgets/lv_page.c:451:83
	strb.w	r0, [sp, #47]
	b	.LBB26_13
.Ltmp442:
.LBB26_6:
	.loc	10 452 9 is_stmt 1              @ lvgl/src/lv_widgets/lv_page.c:452:9
	ldrb.w	r0, [sp, #39]
	.loc	10 452 35 is_stmt 0             @ lvgl/src/lv_widgets/lv_page.c:452:35
	lsls	r0, r0, #31
	cbz	r0, .LBB26_9
	b	.LBB26_7
.LBB26_7:
	.loc	10 452 50                       @ lvgl/src/lv_widgets/lv_page.c:452:50
	ldrsh.w	r0, [sp, #16]
	.loc	10 452 68                       @ lvgl/src/lv_widgets/lv_page.c:452:68
	ldrsh.w	r1, [sp, #24]
	.loc	10 452 73                       @ lvgl/src/lv_widgets/lv_page.c:452:73
	ldrsh.w	r2, [sp, #14]
	.loc	10 452 71                       @ lvgl/src/lv_widgets/lv_page.c:452:71
	add	r1, r2
.Ltmp443:
	.loc	10 452 8                        @ lvgl/src/lv_widgets/lv_page.c:452:8
	cmp	r0, r1
	bne	.LBB26_9
	b	.LBB26_8
.LBB26_8:
	.loc	10 0 8                          @ lvgl/src/lv_widgets/lv_page.c:0:8
	movs	r0, #1
.Ltmp444:
	.loc	10 452 79                       @ lvgl/src/lv_widgets/lv_page.c:452:79
	strb.w	r0, [sp, #47]
	b	.LBB26_13
.Ltmp445:
.LBB26_9:
	.loc	10 453 9 is_stmt 1              @ lvgl/src/lv_widgets/lv_page.c:453:9
	ldrb.w	r0, [sp, #39]
	.loc	10 453 36 is_stmt 0             @ lvgl/src/lv_widgets/lv_page.c:453:36
	lsls	r0, r0, #29
	cmp	r0, #0
	bpl	.LBB26_12
	b	.LBB26_10
.LBB26_10:
	.loc	10 453 51                       @ lvgl/src/lv_widgets/lv_page.c:453:51
	ldrsh.w	r0, [sp, #20]
	.loc	10 453 69                       @ lvgl/src/lv_widgets/lv_page.c:453:69
	ldrsh.w	r1, [sp, #28]
	.loc	10 453 74                       @ lvgl/src/lv_widgets/lv_page.c:453:74
	ldrsh.w	r2, [sp, #12]
	.loc	10 453 72                       @ lvgl/src/lv_widgets/lv_page.c:453:72
	subs	r1, r1, r2
.Ltmp446:
	.loc	10 453 8                        @ lvgl/src/lv_widgets/lv_page.c:453:8
	cmp	r0, r1
	bne	.LBB26_12
	b	.LBB26_11
.LBB26_11:
	.loc	10 0 8                          @ lvgl/src/lv_widgets/lv_page.c:0:8
	movs	r0, #1
.Ltmp447:
	.loc	10 453 81                       @ lvgl/src/lv_widgets/lv_page.c:453:81
	strb.w	r0, [sp, #47]
	b	.LBB26_13
.Ltmp448:
.LBB26_12:
	.loc	10 0 81                         @ lvgl/src/lv_widgets/lv_page.c:0:81
	movs	r0, #0
	.loc	10 455 5 is_stmt 1              @ lvgl/src/lv_widgets/lv_page.c:455:5
	strb.w	r0, [sp, #47]
	b	.LBB26_13
.LBB26_13:
	.loc	10 456 1                        @ lvgl/src/lv_widgets/lv_page.c:456:1
	ldrb.w	r0, [sp, #47]
	add	sp, #48
	pop	{r7, pc}
.Ltmp449:
.Lfunc_end26:
	.size	lv_page_on_edge, .Lfunc_end26-lv_page_on_edge
	.cfi_endproc
	.cantunwind
	.fnend
                                        @ -- End function
	.section	.text.lv_page_glue_obj,"ax",%progbits
	.hidden	lv_page_glue_obj                @ -- Begin function lv_page_glue_obj
	.globl	lv_page_glue_obj
	.p2align	3
	.type	lv_page_glue_obj,%function
	.code	16                              @ @lv_page_glue_obj
	.thumb_func
lv_page_glue_obj:
.Lfunc_begin27:
	.loc	10 464 0                        @ lvgl/src/lv_widgets/lv_page.c:464:0
	.fnstart
	.cfi_startproc
@ %bb.0:
	.save	{r7, lr}
	push	{r7, lr}
	.cfi_def_cfa_offset 8
	.cfi_offset lr, -4
	.cfi_offset r7, -8
	.pad	#8
	sub	sp, #8
	.cfi_def_cfa_offset 16
                                        @ kill: def $r2 killed $r1
	str	r0, [sp, #4]
	strb.w	r1, [sp, #3]
.Ltmp450:
	.loc	10 465 28 prologue_end          @ lvgl/src/lv_widgets/lv_page.c:465:28
	ldr	r0, [sp, #4]
	.loc	10 465 5 is_stmt 0              @ lvgl/src/lv_widgets/lv_page.c:465:5
	ldrb.w	r1, [sp, #3]
	and	r1, r1, #1
	bl	lv_obj_set_drag_parent
	.loc	10 466 21 is_stmt 1             @ lvgl/src/lv_widgets/lv_page.c:466:21
	ldr	r0, [sp, #4]
	.loc	10 466 5 is_stmt 0              @ lvgl/src/lv_widgets/lv_page.c:466:5
	ldrb.w	r1, [sp, #3]
	and	r1, r1, #1
	bl	lv_obj_set_drag
	.loc	10 467 1 is_stmt 1              @ lvgl/src/lv_widgets/lv_page.c:467:1
	add	sp, #8
	pop	{r7, pc}
.Ltmp451:
.Lfunc_end27:
	.size	lv_page_glue_obj, .Lfunc_end27-lv_page_glue_obj
	.cfi_endproc
	.cantunwind
	.fnend
                                        @ -- End function
	.section	.text.lv_page_focus,"ax",%progbits
	.hidden	lv_page_focus                   @ -- Begin function lv_page_focus
	.globl	lv_page_focus
	.p2align	3
	.type	lv_page_focus,%function
	.code	16                              @ @lv_page_focus
	.thumb_func
lv_page_focus:
.Lfunc_begin28:
	.loc	10 476 0                        @ lvgl/src/lv_widgets/lv_page.c:476:0
	.fnstart
	.cfi_startproc
@ %bb.0:
	.save	{r7, lr}
	push	{r7, lr}
	.cfi_def_cfa_offset 8
	.cfi_offset lr, -4
	.cfi_offset r7, -8
	.pad	#144
	sub	sp, #144
	.cfi_def_cfa_offset 152
                                        @ kill: def $r3 killed $r2
	str	r0, [sp, #140]
	str	r1, [sp, #136]
	strb.w	r2, [sp, #135]
.Ltmp452:
	.loc	10 477 47 prologue_end          @ lvgl/src/lv_widgets/lv_page.c:477:47
	ldr	r0, [sp, #140]
	.loc	10 477 27 is_stmt 0             @ lvgl/src/lv_widgets/lv_page.c:477:27
	bl	lv_obj_get_ext_attr
	.loc	10 477 21                       @ lvgl/src/lv_widgets/lv_page.c:477:21
	str	r0, [sp, #128]
	.loc	10 482 17 is_stmt 1             @ lvgl/src/lv_widgets/lv_page.c:482:17
	ldr	r0, [sp, #140]
	.loc	10 482 5 is_stmt 0              @ lvgl/src/lv_widgets/lv_page.c:482:5
	movw	r1, :lower16:lv_obj_set_x
	movt	r1, :upper16:lv_obj_set_x
	str	r1, [sp, #12]                   @ 4-byte Spill
	bl	lv_anim_del
	.loc	10 483 17 is_stmt 1             @ lvgl/src/lv_widgets/lv_page.c:483:17
	ldr	r0, [sp, #140]
	.loc	10 483 5 is_stmt 0              @ lvgl/src/lv_widgets/lv_page.c:483:5
	movw	r1, :lower16:lv_obj_set_y
	movt	r1, :upper16:lv_obj_set_y
	str	r1, [sp, #16]                   @ 4-byte Spill
	bl	lv_anim_del
	ldr	r1, [sp, #12]                   @ 4-byte Reload
	.loc	10 484 17 is_stmt 1             @ lvgl/src/lv_widgets/lv_page.c:484:17
	ldr	r0, [sp, #128]
	.loc	10 484 22 is_stmt 0             @ lvgl/src/lv_widgets/lv_page.c:484:22
	ldr	r0, [r0, #4]
	.loc	10 484 5                        @ lvgl/src/lv_widgets/lv_page.c:484:5
	bl	lv_anim_del
	ldr	r1, [sp, #16]                   @ 4-byte Reload
	.loc	10 485 17 is_stmt 1             @ lvgl/src/lv_widgets/lv_page.c:485:17
	ldr	r0, [sp, #128]
	.loc	10 485 22 is_stmt 0             @ lvgl/src/lv_widgets/lv_page.c:485:22
	ldr	r0, [r0, #4]
	.loc	10 485 5                        @ lvgl/src/lv_widgets/lv_page.c:485:5
	bl	lv_anim_del
	.loc	10 489 34 is_stmt 1             @ lvgl/src/lv_widgets/lv_page.c:489:34
	ldr	r0, [sp, #136]
	.loc	10 489 11 is_stmt 0             @ lvgl/src/lv_widgets/lv_page.c:489:11
	bl	lv_obj_get_focused_obj
	.loc	10 489 9                        @ lvgl/src/lv_widgets/lv_page.c:489:9
	str	r0, [sp, #136]
	.loc	10 492 29 is_stmt 1             @ lvgl/src/lv_widgets/lv_page.c:492:29
	ldr	r0, [sp, #136]
	ldrh	r0, [r0, #18]
	.loc	10 492 46 is_stmt 0             @ lvgl/src/lv_widgets/lv_page.c:492:46
	ldr	r1, [sp, #128]
	.loc	10 492 51                       @ lvgl/src/lv_widgets/lv_page.c:492:51
	ldr	r1, [r1, #4]
	.loc	10 492 46                       @ lvgl/src/lv_widgets/lv_page.c:492:46
	ldrh	r1, [r1, #18]
	.loc	10 492 44                       @ lvgl/src/lv_widgets/lv_page.c:492:44
	subs	r0, r0, r1
	.loc	10 492 16                       @ lvgl/src/lv_widgets/lv_page.c:492:16
	strh.w	r0, [sp, #126]
	.loc	10 493 47 is_stmt 1             @ lvgl/src/lv_widgets/lv_page.c:493:47
	ldr	r0, [sp, #136]
	.loc	10 493 29 is_stmt 0             @ lvgl/src/lv_widgets/lv_page.c:493:29
	bl	lv_obj_get_height
	.loc	10 493 16                       @ lvgl/src/lv_widgets/lv_page.c:493:16
	strh.w	r0, [sp, #124]
	.loc	10 494 42 is_stmt 1             @ lvgl/src/lv_widgets/lv_page.c:494:42
	ldr	r0, [sp, #128]
	.loc	10 494 47 is_stmt 0             @ lvgl/src/lv_widgets/lv_page.c:494:47
	ldr	r0, [r0, #4]
	.loc	10 494 29                       @ lvgl/src/lv_widgets/lv_page.c:494:29
	bl	lv_obj_get_y
	.loc	10 494 16                       @ lvgl/src/lv_widgets/lv_page.c:494:16
	strh.w	r0, [sp, #122]
	.loc	10 495 47 is_stmt 1             @ lvgl/src/lv_widgets/lv_page.c:495:47
	ldr	r0, [sp, #140]
	.loc	10 495 29 is_stmt 0             @ lvgl/src/lv_widgets/lv_page.c:495:29
	bl	lv_obj_get_height
	.loc	10 495 16                       @ lvgl/src/lv_widgets/lv_page.c:495:16
	strh.w	r0, [sp, #120]
	.loc	10 497 54 is_stmt 1             @ lvgl/src/lv_widgets/lv_page.c:497:54
	ldr	r0, [sp, #140]
	movs	r1, #0
	.loc	10 497 29 is_stmt 0             @ lvgl/src/lv_widgets/lv_page.c:497:29
	str	r1, [sp, #20]                   @ 4-byte Spill
	bl	lv_obj_get_style_pad_top
	ldr	r1, [sp, #20]                   @ 4-byte Reload
	.loc	10 497 20                       @ lvgl/src/lv_widgets/lv_page.c:497:20
	strh.w	r0, [sp, #118]
	.loc	10 498 60 is_stmt 1             @ lvgl/src/lv_widgets/lv_page.c:498:60
	ldr	r0, [sp, #140]
	.loc	10 498 32 is_stmt 0             @ lvgl/src/lv_widgets/lv_page.c:498:32
	bl	lv_obj_get_style_pad_bottom
	ldr	r1, [sp, #20]                   @ 4-byte Reload
	.loc	10 498 20                       @ lvgl/src/lv_widgets/lv_page.c:498:20
	strh.w	r0, [sp, #116]
	.loc	10 499 56 is_stmt 1             @ lvgl/src/lv_widgets/lv_page.c:499:56
	ldr	r0, [sp, #128]
	.loc	10 499 61 is_stmt 0             @ lvgl/src/lv_widgets/lv_page.c:499:61
	ldr	r0, [r0, #4]
	.loc	10 499 31                       @ lvgl/src/lv_widgets/lv_page.c:499:31
	bl	lv_obj_get_style_pad_top
	ldr	r1, [sp, #20]                   @ 4-byte Reload
	.loc	10 499 20                       @ lvgl/src/lv_widgets/lv_page.c:499:20
	strh.w	r0, [sp, #114]
	.loc	10 500 62 is_stmt 1             @ lvgl/src/lv_widgets/lv_page.c:500:62
	ldr	r0, [sp, #128]
	.loc	10 500 67 is_stmt 0             @ lvgl/src/lv_widgets/lv_page.c:500:67
	ldr	r0, [r0, #4]
	.loc	10 500 34                       @ lvgl/src/lv_widgets/lv_page.c:500:34
	bl	lv_obj_get_style_pad_bottom
	.loc	10 500 20                       @ lvgl/src/lv_widgets/lv_page.c:500:20
	strh.w	r0, [sp, #112]
	.loc	10 502 29 is_stmt 1             @ lvgl/src/lv_widgets/lv_page.c:502:29
	ldrh.w	r0, [sp, #122]
	.loc	10 502 42 is_stmt 0             @ lvgl/src/lv_widgets/lv_page.c:502:42
	ldrh.w	r1, [sp, #126]
	.loc	10 502 40                       @ lvgl/src/lv_widgets/lv_page.c:502:40
	add	r1, r0
	.loc	10 502 51                       @ lvgl/src/lv_widgets/lv_page.c:502:51
	ldrh.w	r0, [sp, #118]
	.loc	10 502 26                       @ lvgl/src/lv_widgets/lv_page.c:502:26
	subs	r0, r0, r1
	.loc	10 502 16                       @ lvgl/src/lv_widgets/lv_page.c:502:16
	strh.w	r0, [sp, #110]
	.loc	10 503 26 is_stmt 1             @ lvgl/src/lv_widgets/lv_page.c:503:26
	ldrh.w	r0, [sp, #122]
	.loc	10 503 39 is_stmt 0             @ lvgl/src/lv_widgets/lv_page.c:503:39
	ldrh.w	r1, [sp, #126]
	.loc	10 503 37                       @ lvgl/src/lv_widgets/lv_page.c:503:37
	add	r0, r1
	.loc	10 503 47                       @ lvgl/src/lv_widgets/lv_page.c:503:47
	ldrh.w	r1, [sp, #124]
	.loc	10 503 45                       @ lvgl/src/lv_widgets/lv_page.c:503:45
	add	r0, r1
	.loc	10 503 56                       @ lvgl/src/lv_widgets/lv_page.c:503:56
	ldrh.w	r2, [sp, #120]
	.loc	10 503 65                       @ lvgl/src/lv_widgets/lv_page.c:503:65
	ldrh.w	r1, [sp, #116]
	.loc	10 503 53                       @ lvgl/src/lv_widgets/lv_page.c:503:53
	subs	r1, r1, r2
	add	r0, r1
	.loc	10 503 16                       @ lvgl/src/lv_widgets/lv_page.c:503:16
	strh.w	r0, [sp, #108]
.Ltmp453:
	.loc	10 506 9 is_stmt 1              @ lvgl/src/lv_widgets/lv_page.c:506:9
	ldrsh.w	r0, [sp, #124]
	.loc	10 506 18 is_stmt 0             @ lvgl/src/lv_widgets/lv_page.c:506:18
	ldrsh.w	r1, [sp, #120]
	.loc	10 506 25                       @ lvgl/src/lv_widgets/lv_page.c:506:25
	cmp	r0, r1
	bgt	.LBB28_2
	b	.LBB28_1
.LBB28_1:
	.loc	10 506 28                       @ lvgl/src/lv_widgets/lv_page.c:506:28
	ldrsh.w	r0, [sp, #110]
	.loc	10 506 41                       @ lvgl/src/lv_widgets/lv_page.c:506:41
	cmp	r0, #0
	bgt	.LBB28_4
	b	.LBB28_2
.LBB28_2:
	.loc	10 506 45                       @ lvgl/src/lv_widgets/lv_page.c:506:45
	ldrsh.w	r0, [sp, #124]
	.loc	10 506 53                       @ lvgl/src/lv_widgets/lv_page.c:506:53
	ldrsh.w	r1, [sp, #120]
	.loc	10 506 60                       @ lvgl/src/lv_widgets/lv_page.c:506:60
	cmp	r0, r1
	ble	.LBB28_5
	b	.LBB28_3
.LBB28_3:
	.loc	10 506 63                       @ lvgl/src/lv_widgets/lv_page.c:506:63
	ldrsh.w	r0, [sp, #110]
	.loc	10 506 73                       @ lvgl/src/lv_widgets/lv_page.c:506:73
	ldrsh.w	r1, [sp, #108]
.Ltmp454:
	.loc	10 506 8                        @ lvgl/src/lv_widgets/lv_page.c:506:8
	cmp	r0, r1
	bge	.LBB28_5
	b	.LBB28_4
.LBB28_4:
.Ltmp455:
	.loc	10 508 24 is_stmt 1             @ lvgl/src/lv_widgets/lv_page.c:508:24
	ldrh.w	r2, [sp, #126]
	.loc	10 508 32 is_stmt 0             @ lvgl/src/lv_widgets/lv_page.c:508:32
	ldrh.w	r1, [sp, #114]
	.loc	10 508 43                       @ lvgl/src/lv_widgets/lv_page.c:508:43
	ldrh.w	r0, [sp, #118]
	.loc	10 508 22                       @ lvgl/src/lv_widgets/lv_page.c:508:22
	subs	r1, r1, r2
	add	r0, r1
	.loc	10 508 20                       @ lvgl/src/lv_widgets/lv_page.c:508:20
	strh.w	r0, [sp, #122]
	.loc	10 509 23 is_stmt 1             @ lvgl/src/lv_widgets/lv_page.c:509:23
	ldrh.w	r1, [sp, #114]
	.loc	10 509 20 is_stmt 0             @ lvgl/src/lv_widgets/lv_page.c:509:20
	ldrh.w	r0, [sp, #122]
	add	r0, r1
	strh.w	r0, [sp, #122]
	.loc	10 510 5 is_stmt 1              @ lvgl/src/lv_widgets/lv_page.c:510:5
	b	.LBB28_11
.Ltmp456:
.LBB28_5:
	.loc	10 512 14                       @ lvgl/src/lv_widgets/lv_page.c:512:14
	ldrsh.w	r0, [sp, #124]
	.loc	10 512 23 is_stmt 0             @ lvgl/src/lv_widgets/lv_page.c:512:23
	ldrsh.w	r1, [sp, #120]
	.loc	10 512 30                       @ lvgl/src/lv_widgets/lv_page.c:512:30
	cmp	r0, r1
	bgt	.LBB28_7
	b	.LBB28_6
.LBB28_6:
	.loc	10 512 33                       @ lvgl/src/lv_widgets/lv_page.c:512:33
	ldrsh.w	r0, [sp, #108]
	.loc	10 512 46                       @ lvgl/src/lv_widgets/lv_page.c:512:46
	cmp	r0, #0
	bgt	.LBB28_9
	b	.LBB28_7
.LBB28_7:
	.loc	10 512 50                       @ lvgl/src/lv_widgets/lv_page.c:512:50
	ldrsh.w	r0, [sp, #124]
	.loc	10 512 58                       @ lvgl/src/lv_widgets/lv_page.c:512:58
	ldrsh.w	r1, [sp, #120]
	.loc	10 512 65                       @ lvgl/src/lv_widgets/lv_page.c:512:65
	cmp	r0, r1
	ble	.LBB28_10
	b	.LBB28_8
.LBB28_8:
	.loc	10 512 68                       @ lvgl/src/lv_widgets/lv_page.c:512:68
	ldrsh.w	r0, [sp, #110]
	.loc	10 512 79                       @ lvgl/src/lv_widgets/lv_page.c:512:79
	ldrsh.w	r1, [sp, #108]
.Ltmp457:
	.loc	10 512 13                       @ lvgl/src/lv_widgets/lv_page.c:512:13
	cmp	r0, r1
	blt	.LBB28_10
	b	.LBB28_9
.LBB28_9:
.Ltmp458:
	.loc	10 514 24 is_stmt 1             @ lvgl/src/lv_widgets/lv_page.c:514:24
	ldrh.w	r0, [sp, #126]
	.loc	10 514 32 is_stmt 0             @ lvgl/src/lv_widgets/lv_page.c:514:32
	ldrh.w	r1, [sp, #112]
	.loc	10 514 30                       @ lvgl/src/lv_widgets/lv_page.c:514:30
	add	r0, r1
	.loc	10 514 46                       @ lvgl/src/lv_widgets/lv_page.c:514:46
	ldrh.w	r1, [sp, #116]
	.loc	10 514 44                       @ lvgl/src/lv_widgets/lv_page.c:514:44
	add	r0, r1
	.loc	10 514 22                       @ lvgl/src/lv_widgets/lv_page.c:514:22
	rsbs	r0, r0, #0
	.loc	10 514 20                       @ lvgl/src/lv_widgets/lv_page.c:514:20
	strh.w	r0, [sp, #122]
	.loc	10 515 23 is_stmt 1             @ lvgl/src/lv_widgets/lv_page.c:515:23
	ldrh.w	r1, [sp, #112]
	.loc	10 515 20 is_stmt 0             @ lvgl/src/lv_widgets/lv_page.c:515:20
	ldrh.w	r0, [sp, #122]
	subs	r0, r0, r1
	strh.w	r0, [sp, #122]
	.loc	10 516 23 is_stmt 1             @ lvgl/src/lv_widgets/lv_page.c:516:23
	ldrh.w	r0, [sp, #120]
	.loc	10 516 32 is_stmt 0             @ lvgl/src/lv_widgets/lv_page.c:516:32
	ldrh.w	r1, [sp, #124]
	.loc	10 516 30                       @ lvgl/src/lv_widgets/lv_page.c:516:30
	subs	r1, r0, r1
	.loc	10 516 20                       @ lvgl/src/lv_widgets/lv_page.c:516:20
	ldrh.w	r0, [sp, #122]
	add	r0, r1
	strh.w	r0, [sp, #122]
	.loc	10 517 5 is_stmt 1              @ lvgl/src/lv_widgets/lv_page.c:517:5
	b	.LBB28_10
.Ltmp459:
.LBB28_10:
	.loc	10 0 5 is_stmt 0                @ lvgl/src/lv_widgets/lv_page.c:0:5
	b	.LBB28_11
.LBB28_11:
	.loc	10 520 29 is_stmt 1             @ lvgl/src/lv_widgets/lv_page.c:520:29
	ldr	r0, [sp, #136]
	ldrh	r0, [r0, #16]
	.loc	10 520 46 is_stmt 0             @ lvgl/src/lv_widgets/lv_page.c:520:46
	ldr	r1, [sp, #128]
	.loc	10 520 51                       @ lvgl/src/lv_widgets/lv_page.c:520:51
	ldr	r1, [r1, #4]
	.loc	10 520 46                       @ lvgl/src/lv_widgets/lv_page.c:520:46
	ldrh	r1, [r1, #16]
	.loc	10 520 44                       @ lvgl/src/lv_widgets/lv_page.c:520:44
	subs	r0, r0, r1
	.loc	10 520 16                       @ lvgl/src/lv_widgets/lv_page.c:520:16
	strh.w	r0, [sp, #106]
	.loc	10 521 46 is_stmt 1             @ lvgl/src/lv_widgets/lv_page.c:521:46
	ldr	r0, [sp, #136]
	.loc	10 521 29 is_stmt 0             @ lvgl/src/lv_widgets/lv_page.c:521:29
	bl	lv_obj_get_width
	.loc	10 521 16                       @ lvgl/src/lv_widgets/lv_page.c:521:16
	strh.w	r0, [sp, #104]
	.loc	10 522 42 is_stmt 1             @ lvgl/src/lv_widgets/lv_page.c:522:42
	ldr	r0, [sp, #128]
	.loc	10 522 47 is_stmt 0             @ lvgl/src/lv_widgets/lv_page.c:522:47
	ldr	r0, [r0, #4]
	.loc	10 522 29                       @ lvgl/src/lv_widgets/lv_page.c:522:29
	bl	lv_obj_get_x
	.loc	10 522 16                       @ lvgl/src/lv_widgets/lv_page.c:522:16
	strh.w	r0, [sp, #102]
	.loc	10 523 46 is_stmt 1             @ lvgl/src/lv_widgets/lv_page.c:523:46
	ldr	r0, [sp, #140]
	.loc	10 523 29 is_stmt 0             @ lvgl/src/lv_widgets/lv_page.c:523:29
	bl	lv_obj_get_width
	.loc	10 523 16                       @ lvgl/src/lv_widgets/lv_page.c:523:16
	strh.w	r0, [sp, #100]
	.loc	10 525 56 is_stmt 1             @ lvgl/src/lv_widgets/lv_page.c:525:56
	ldr	r0, [sp, #140]
	movs	r1, #0
	.loc	10 525 30 is_stmt 0             @ lvgl/src/lv_widgets/lv_page.c:525:30
	str	r1, [sp, #8]                    @ 4-byte Spill
	bl	lv_obj_get_style_pad_left
	ldr	r1, [sp, #8]                    @ 4-byte Reload
	.loc	10 525 20                       @ lvgl/src/lv_widgets/lv_page.c:525:20
	strh.w	r0, [sp, #98]
	.loc	10 526 58 is_stmt 1             @ lvgl/src/lv_widgets/lv_page.c:526:58
	ldr	r0, [sp, #140]
	.loc	10 526 31 is_stmt 0             @ lvgl/src/lv_widgets/lv_page.c:526:31
	bl	lv_obj_get_style_pad_right
	ldr	r1, [sp, #8]                    @ 4-byte Reload
	.loc	10 526 20                       @ lvgl/src/lv_widgets/lv_page.c:526:20
	strh.w	r0, [sp, #96]
	.loc	10 527 57 is_stmt 1             @ lvgl/src/lv_widgets/lv_page.c:527:57
	ldr	r0, [sp, #128]
	.loc	10 527 62 is_stmt 0             @ lvgl/src/lv_widgets/lv_page.c:527:62
	ldr	r0, [r0, #4]
	.loc	10 527 32                       @ lvgl/src/lv_widgets/lv_page.c:527:32
	bl	lv_obj_get_style_pad_top
	ldr	r1, [sp, #8]                    @ 4-byte Reload
	.loc	10 527 20                       @ lvgl/src/lv_widgets/lv_page.c:527:20
	strh.w	r0, [sp, #94]
	.loc	10 528 61 is_stmt 1             @ lvgl/src/lv_widgets/lv_page.c:528:61
	ldr	r0, [sp, #128]
	.loc	10 528 66 is_stmt 0             @ lvgl/src/lv_widgets/lv_page.c:528:66
	ldr	r0, [r0, #4]
	.loc	10 528 33                       @ lvgl/src/lv_widgets/lv_page.c:528:33
	bl	lv_obj_get_style_pad_bottom
	.loc	10 528 20                       @ lvgl/src/lv_widgets/lv_page.c:528:20
	strh.w	r0, [sp, #92]
	.loc	10 530 31 is_stmt 1             @ lvgl/src/lv_widgets/lv_page.c:530:31
	ldrh.w	r0, [sp, #102]
	.loc	10 530 44 is_stmt 0             @ lvgl/src/lv_widgets/lv_page.c:530:44
	ldrh.w	r1, [sp, #106]
	.loc	10 530 42                       @ lvgl/src/lv_widgets/lv_page.c:530:42
	add	r1, r0
	.loc	10 530 53                       @ lvgl/src/lv_widgets/lv_page.c:530:53
	ldrh.w	r0, [sp, #98]
	.loc	10 530 28                       @ lvgl/src/lv_widgets/lv_page.c:530:28
	subs	r0, r0, r1
	.loc	10 530 16                       @ lvgl/src/lv_widgets/lv_page.c:530:16
	strh.w	r0, [sp, #90]
	.loc	10 531 28 is_stmt 1             @ lvgl/src/lv_widgets/lv_page.c:531:28
	ldrh.w	r0, [sp, #102]
	.loc	10 531 41 is_stmt 0             @ lvgl/src/lv_widgets/lv_page.c:531:41
	ldrh.w	r1, [sp, #106]
	.loc	10 531 39                       @ lvgl/src/lv_widgets/lv_page.c:531:39
	add	r0, r1
	.loc	10 531 49                       @ lvgl/src/lv_widgets/lv_page.c:531:49
	ldrh.w	r1, [sp, #104]
	.loc	10 531 47                       @ lvgl/src/lv_widgets/lv_page.c:531:47
	add	r0, r1
	.loc	10 531 58                       @ lvgl/src/lv_widgets/lv_page.c:531:58
	ldrh.w	r2, [sp, #100]
	.loc	10 531 67                       @ lvgl/src/lv_widgets/lv_page.c:531:67
	ldrh.w	r1, [sp, #96]
	.loc	10 531 55                       @ lvgl/src/lv_widgets/lv_page.c:531:55
	subs	r1, r1, r2
	add	r0, r1
	.loc	10 531 16                       @ lvgl/src/lv_widgets/lv_page.c:531:16
	strh.w	r0, [sp, #88]
.Ltmp460:
	.loc	10 534 9 is_stmt 1              @ lvgl/src/lv_widgets/lv_page.c:534:9
	ldrsh.w	r0, [sp, #104]
	.loc	10 534 18 is_stmt 0             @ lvgl/src/lv_widgets/lv_page.c:534:18
	ldrsh.w	r1, [sp, #100]
	.loc	10 534 25                       @ lvgl/src/lv_widgets/lv_page.c:534:25
	cmp	r0, r1
	bgt	.LBB28_13
	b	.LBB28_12
.LBB28_12:
	.loc	10 534 28                       @ lvgl/src/lv_widgets/lv_page.c:534:28
	ldrsh.w	r0, [sp, #90]
	.loc	10 534 42                       @ lvgl/src/lv_widgets/lv_page.c:534:42
	cmp	r0, #0
	bgt	.LBB28_15
	b	.LBB28_13
.LBB28_13:
	.loc	10 534 46                       @ lvgl/src/lv_widgets/lv_page.c:534:46
	ldrsh.w	r0, [sp, #104]
	.loc	10 534 54                       @ lvgl/src/lv_widgets/lv_page.c:534:54
	ldrsh.w	r1, [sp, #100]
	.loc	10 534 61                       @ lvgl/src/lv_widgets/lv_page.c:534:61
	cmp	r0, r1
	ble	.LBB28_16
	b	.LBB28_14
.LBB28_14:
	.loc	10 534 64                       @ lvgl/src/lv_widgets/lv_page.c:534:64
	ldrsh.w	r0, [sp, #90]
	.loc	10 534 75                       @ lvgl/src/lv_widgets/lv_page.c:534:75
	ldrsh.w	r1, [sp, #88]
.Ltmp461:
	.loc	10 534 8                        @ lvgl/src/lv_widgets/lv_page.c:534:8
	cmp	r0, r1
	bge	.LBB28_16
	b	.LBB28_15
.LBB28_15:
.Ltmp462:
	.loc	10 536 24 is_stmt 1             @ lvgl/src/lv_widgets/lv_page.c:536:24
	ldrh.w	r2, [sp, #106]
	.loc	10 536 32 is_stmt 0             @ lvgl/src/lv_widgets/lv_page.c:536:32
	ldrh.w	r1, [sp, #94]
	.loc	10 536 44                       @ lvgl/src/lv_widgets/lv_page.c:536:44
	ldrh.w	r0, [sp, #98]
	.loc	10 536 22                       @ lvgl/src/lv_widgets/lv_page.c:536:22
	subs	r1, r1, r2
	add	r0, r1
	.loc	10 536 20                       @ lvgl/src/lv_widgets/lv_page.c:536:20
	strh.w	r0, [sp, #102]
	.loc	10 537 23 is_stmt 1             @ lvgl/src/lv_widgets/lv_page.c:537:23
	ldrh.w	r1, [sp, #94]
	.loc	10 537 20 is_stmt 0             @ lvgl/src/lv_widgets/lv_page.c:537:20
	ldrh.w	r0, [sp, #102]
	add	r0, r1
	strh.w	r0, [sp, #102]
	.loc	10 538 5 is_stmt 1              @ lvgl/src/lv_widgets/lv_page.c:538:5
	b	.LBB28_22
.Ltmp463:
.LBB28_16:
	.loc	10 540 14                       @ lvgl/src/lv_widgets/lv_page.c:540:14
	ldrsh.w	r0, [sp, #104]
	.loc	10 540 23 is_stmt 0             @ lvgl/src/lv_widgets/lv_page.c:540:23
	ldrsh.w	r1, [sp, #100]
	.loc	10 540 30                       @ lvgl/src/lv_widgets/lv_page.c:540:30
	cmp	r0, r1
	bgt	.LBB28_18
	b	.LBB28_17
.LBB28_17:
	.loc	10 540 33                       @ lvgl/src/lv_widgets/lv_page.c:540:33
	ldrsh.w	r0, [sp, #88]
	.loc	10 540 48                       @ lvgl/src/lv_widgets/lv_page.c:540:48
	cmp	r0, #0
	bgt	.LBB28_20
	b	.LBB28_18
.LBB28_18:
	.loc	10 540 52                       @ lvgl/src/lv_widgets/lv_page.c:540:52
	ldrsh.w	r0, [sp, #104]
	.loc	10 540 60                       @ lvgl/src/lv_widgets/lv_page.c:540:60
	ldrsh.w	r1, [sp, #100]
	.loc	10 540 67                       @ lvgl/src/lv_widgets/lv_page.c:540:67
	cmp	r0, r1
	ble	.LBB28_21
	b	.LBB28_19
.LBB28_19:
	.loc	10 540 70                       @ lvgl/src/lv_widgets/lv_page.c:540:70
	ldrsh.w	r0, [sp, #90]
	.loc	10 540 82                       @ lvgl/src/lv_widgets/lv_page.c:540:82
	ldrsh.w	r1, [sp, #88]
.Ltmp464:
	.loc	10 540 13                       @ lvgl/src/lv_widgets/lv_page.c:540:13
	cmp	r0, r1
	blt	.LBB28_21
	b	.LBB28_20
.LBB28_20:
.Ltmp465:
	.loc	10 542 24 is_stmt 1             @ lvgl/src/lv_widgets/lv_page.c:542:24
	ldrh.w	r0, [sp, #106]
	.loc	10 542 32 is_stmt 0             @ lvgl/src/lv_widgets/lv_page.c:542:32
	ldrh.w	r1, [sp, #92]
	.loc	10 542 30                       @ lvgl/src/lv_widgets/lv_page.c:542:30
	add	r0, r1
	.loc	10 542 45                       @ lvgl/src/lv_widgets/lv_page.c:542:45
	ldrh.w	r1, [sp, #96]
	.loc	10 542 43                       @ lvgl/src/lv_widgets/lv_page.c:542:43
	add	r0, r1
	.loc	10 542 22                       @ lvgl/src/lv_widgets/lv_page.c:542:22
	rsbs	r0, r0, #0
	.loc	10 542 20                       @ lvgl/src/lv_widgets/lv_page.c:542:20
	strh.w	r0, [sp, #102]
	.loc	10 543 23 is_stmt 1             @ lvgl/src/lv_widgets/lv_page.c:543:23
	ldrh.w	r1, [sp, #92]
	.loc	10 543 20 is_stmt 0             @ lvgl/src/lv_widgets/lv_page.c:543:20
	ldrh.w	r0, [sp, #102]
	subs	r0, r0, r1
	strh.w	r0, [sp, #102]
	.loc	10 544 23 is_stmt 1             @ lvgl/src/lv_widgets/lv_page.c:544:23
	ldrh.w	r0, [sp, #100]
	.loc	10 544 32 is_stmt 0             @ lvgl/src/lv_widgets/lv_page.c:544:32
	ldrh.w	r1, [sp, #104]
	.loc	10 544 30                       @ lvgl/src/lv_widgets/lv_page.c:544:30
	subs	r1, r0, r1
	.loc	10 544 20                       @ lvgl/src/lv_widgets/lv_page.c:544:20
	ldrh.w	r0, [sp, #102]
	add	r0, r1
	strh.w	r0, [sp, #102]
	.loc	10 545 5 is_stmt 1              @ lvgl/src/lv_widgets/lv_page.c:545:5
	b	.LBB28_21
.Ltmp466:
.LBB28_21:
	.loc	10 0 5 is_stmt 0                @ lvgl/src/lv_widgets/lv_page.c:0:5
	b	.LBB28_22
.LBB28_22:
.Ltmp467:
	.loc	10 547 8 is_stmt 1              @ lvgl/src/lv_widgets/lv_page.c:547:8
	ldrb.w	r0, [sp, #135]
	.loc	10 547 31 is_stmt 0             @ lvgl/src/lv_widgets/lv_page.c:547:31
	cbz	r0, .LBB28_24
	b	.LBB28_23
.LBB28_23:
	.loc	10 547 56                       @ lvgl/src/lv_widgets/lv_page.c:547:56
	ldr	r0, [sp, #140]
	.loc	10 547 34                       @ lvgl/src/lv_widgets/lv_page.c:547:34
	bl	lv_page_get_anim_time
.Ltmp468:
	.loc	10 547 8                        @ lvgl/src/lv_widgets/lv_page.c:547:8
	cbnz	r0, .LBB28_25
	b	.LBB28_24
.LBB28_24:
.Ltmp469:
	.loc	10 548 22 is_stmt 1             @ lvgl/src/lv_widgets/lv_page.c:548:22
	ldr	r0, [sp, #128]
	.loc	10 548 27 is_stmt 0             @ lvgl/src/lv_widgets/lv_page.c:548:27
	ldr	r0, [r0, #4]
	.loc	10 548 33                       @ lvgl/src/lv_widgets/lv_page.c:548:33
	ldrsh.w	r1, [sp, #122]
	.loc	10 548 9                        @ lvgl/src/lv_widgets/lv_page.c:548:9
	bl	lv_obj_set_y
	.loc	10 549 22 is_stmt 1             @ lvgl/src/lv_widgets/lv_page.c:549:22
	ldr	r0, [sp, #128]
	.loc	10 549 27 is_stmt 0             @ lvgl/src/lv_widgets/lv_page.c:549:27
	ldr	r0, [r0, #4]
	.loc	10 549 33                       @ lvgl/src/lv_widgets/lv_page.c:549:33
	ldrsh.w	r1, [sp, #102]
	.loc	10 549 9                        @ lvgl/src/lv_widgets/lv_page.c:549:9
	bl	lv_obj_set_x
	.loc	10 550 5 is_stmt 1              @ lvgl/src/lv_widgets/lv_page.c:550:5
	b	.LBB28_26
.Ltmp470:
.LBB28_25:
	.loc	10 0 5 is_stmt 0                @ lvgl/src/lv_widgets/lv_page.c:0:5
	add	r0, sp, #24
.Ltmp471:
	.loc	10 554 9 is_stmt 1              @ lvgl/src/lv_widgets/lv_page.c:554:9
	str	r0, [sp, #4]                    @ 4-byte Spill
	bl	lv_anim_init
	ldr	r0, [sp, #4]                    @ 4-byte Reload
	.loc	10 555 29                       @ lvgl/src/lv_widgets/lv_page.c:555:29
	ldr	r1, [sp, #128]
	.loc	10 555 34 is_stmt 0             @ lvgl/src/lv_widgets/lv_page.c:555:34
	ldr	r1, [r1, #4]
	.loc	10 555 9                        @ lvgl/src/lv_widgets/lv_page.c:555:9
	bl	lv_anim_set_var
	ldr	r0, [sp, #4]                    @ 4-byte Reload
	.loc	10 556 9 is_stmt 1              @ lvgl/src/lv_widgets/lv_page.c:556:9
	movw	r1, :lower16:lv_obj_set_y
	movt	r1, :upper16:lv_obj_set_y
	bl	lv_anim_set_exec_cb
	.loc	10 557 45                       @ lvgl/src/lv_widgets/lv_page.c:557:45
	ldr	r0, [sp, #128]
	.loc	10 557 50 is_stmt 0             @ lvgl/src/lv_widgets/lv_page.c:557:50
	ldr	r0, [r0, #4]
	.loc	10 557 32                       @ lvgl/src/lv_widgets/lv_page.c:557:32
	bl	lv_obj_get_y
	mov	r1, r0
	.loc	10 557 57                       @ lvgl/src/lv_widgets/lv_page.c:557:57
	ldr	r0, [sp, #4]                    @ 4-byte Reload
	ldrsh.w	r2, [sp, #122]
	.loc	10 557 9                        @ lvgl/src/lv_widgets/lv_page.c:557:9
	bl	lv_anim_set_values
	.loc	10 558 52 is_stmt 1             @ lvgl/src/lv_widgets/lv_page.c:558:52
	ldr	r0, [sp, #140]
	.loc	10 558 30 is_stmt 0             @ lvgl/src/lv_widgets/lv_page.c:558:30
	bl	lv_page_get_anim_time
	mov	r1, r0
	.loc	10 558 9                        @ lvgl/src/lv_widgets/lv_page.c:558:9
	ldr	r0, [sp, #4]                    @ 4-byte Reload
	bl	lv_anim_set_time
	ldr	r0, [sp, #4]                    @ 4-byte Reload
	.loc	10 559 9 is_stmt 1              @ lvgl/src/lv_widgets/lv_page.c:559:9
	bl	lv_anim_start
	.loc	10 561 45                       @ lvgl/src/lv_widgets/lv_page.c:561:45
	ldr	r0, [sp, #128]
	.loc	10 561 50 is_stmt 0             @ lvgl/src/lv_widgets/lv_page.c:561:50
	ldr	r0, [r0, #4]
	.loc	10 561 32                       @ lvgl/src/lv_widgets/lv_page.c:561:32
	bl	lv_obj_get_x
	mov	r1, r0
	.loc	10 561 57                       @ lvgl/src/lv_widgets/lv_page.c:561:57
	ldr	r0, [sp, #4]                    @ 4-byte Reload
	ldrsh.w	r2, [sp, #102]
	.loc	10 561 9                        @ lvgl/src/lv_widgets/lv_page.c:561:9
	bl	lv_anim_set_values
	ldr	r0, [sp, #4]                    @ 4-byte Reload
	.loc	10 562 9 is_stmt 1              @ lvgl/src/lv_widgets/lv_page.c:562:9
	movw	r1, :lower16:lv_obj_set_x
	movt	r1, :upper16:lv_obj_set_x
	bl	lv_anim_set_exec_cb
	ldr	r0, [sp, #4]                    @ 4-byte Reload
	.loc	10 563 9                        @ lvgl/src/lv_widgets/lv_page.c:563:9
	bl	lv_anim_start
	b	.LBB28_26
.Ltmp472:
.LBB28_26:
	.loc	10 566 1                        @ lvgl/src/lv_widgets/lv_page.c:566:1
	add	sp, #144
	pop	{r7, pc}
.Ltmp473:
.Lfunc_end28:
	.size	lv_page_focus, .Lfunc_end28-lv_page_focus
	.cfi_endproc
	.cantunwind
	.fnend
                                        @ -- End function
	.section	.text.lv_anim_set_var,"ax",%progbits
	.p2align	3                               @ -- Begin function lv_anim_set_var
	.type	lv_anim_set_var,%function
	.code	16                              @ @lv_anim_set_var
	.thumb_func
lv_anim_set_var:
.Lfunc_begin29:
	.loc	14 126 0                        @ lvgl/src/lv_widgets/../lv_misc/lv_anim.h:126:0
	.fnstart
	.cfi_startproc
@ %bb.0:
	.pad	#8
	sub	sp, #8
	.cfi_def_cfa_offset 8
	str	r0, [sp, #4]
	str	r1, [sp]
.Ltmp474:
	.loc	14 127 14 prologue_end          @ lvgl/src/lv_widgets/../lv_misc/lv_anim.h:127:14
	ldr	r0, [sp]
	.loc	14 127 5 is_stmt 0              @ lvgl/src/lv_widgets/../lv_misc/lv_anim.h:127:5
	ldr	r1, [sp, #4]
	.loc	14 127 12                       @ lvgl/src/lv_widgets/../lv_misc/lv_anim.h:127:12
	str	r0, [r1]
	.loc	14 128 1 is_stmt 1              @ lvgl/src/lv_widgets/../lv_misc/lv_anim.h:128:1
	add	sp, #8
	bx	lr
.Ltmp475:
.Lfunc_end29:
	.size	lv_anim_set_var, .Lfunc_end29-lv_anim_set_var
	.cfi_endproc
	.cantunwind
	.fnend
                                        @ -- End function
	.section	.text.lv_anim_set_exec_cb,"ax",%progbits
	.p2align	3                               @ -- Begin function lv_anim_set_exec_cb
	.type	lv_anim_set_exec_cb,%function
	.code	16                              @ @lv_anim_set_exec_cb
	.thumb_func
lv_anim_set_exec_cb:
.Lfunc_begin30:
	.loc	14 138 0                        @ lvgl/src/lv_widgets/../lv_misc/lv_anim.h:138:0
	.fnstart
	.cfi_startproc
@ %bb.0:
	.pad	#8
	sub	sp, #8
	.cfi_def_cfa_offset 8
	str	r0, [sp, #4]
	str	r1, [sp]
.Ltmp476:
	.loc	14 139 18 prologue_end          @ lvgl/src/lv_widgets/../lv_misc/lv_anim.h:139:18
	ldr	r0, [sp]
	.loc	14 139 5 is_stmt 0              @ lvgl/src/lv_widgets/../lv_misc/lv_anim.h:139:5
	ldr	r1, [sp, #4]
	.loc	14 139 16                       @ lvgl/src/lv_widgets/../lv_misc/lv_anim.h:139:16
	str	r0, [r1, #4]
	.loc	14 140 1 is_stmt 1              @ lvgl/src/lv_widgets/../lv_misc/lv_anim.h:140:1
	add	sp, #8
	bx	lr
.Ltmp477:
.Lfunc_end30:
	.size	lv_anim_set_exec_cb, .Lfunc_end30-lv_anim_set_exec_cb
	.cfi_endproc
	.cantunwind
	.fnend
                                        @ -- End function
	.section	.text.lv_anim_set_values,"ax",%progbits
	.p2align	3                               @ -- Begin function lv_anim_set_values
	.type	lv_anim_set_values,%function
	.code	16                              @ @lv_anim_set_values
	.thumb_func
lv_anim_set_values:
.Lfunc_begin31:
	.loc	14 169 0                        @ lvgl/src/lv_widgets/../lv_misc/lv_anim.h:169:0
	.fnstart
	.cfi_startproc
@ %bb.0:
	.pad	#8
	sub	sp, #8
	.cfi_def_cfa_offset 8
                                        @ kill: def $r3 killed $r2
                                        @ kill: def $r3 killed $r1
	str	r0, [sp, #4]
	strh.w	r1, [sp, #2]
	strh.w	r2, [sp]
.Ltmp478:
	.loc	14 170 16 prologue_end          @ lvgl/src/lv_widgets/../lv_misc/lv_anim.h:170:16
	ldrsh.w	r0, [sp, #2]
	.loc	14 170 5 is_stmt 0              @ lvgl/src/lv_widgets/../lv_misc/lv_anim.h:170:5
	ldr	r1, [sp, #4]
	.loc	14 170 14                       @ lvgl/src/lv_widgets/../lv_misc/lv_anim.h:170:14
	str	r0, [r1, #24]
	.loc	14 171 18 is_stmt 1             @ lvgl/src/lv_widgets/../lv_misc/lv_anim.h:171:18
	ldrsh.w	r0, [sp, #2]
	.loc	14 171 5 is_stmt 0              @ lvgl/src/lv_widgets/../lv_misc/lv_anim.h:171:5
	ldr	r1, [sp, #4]
	.loc	14 171 16                       @ lvgl/src/lv_widgets/../lv_misc/lv_anim.h:171:16
	str	r0, [r1, #28]
	.loc	14 172 14 is_stmt 1             @ lvgl/src/lv_widgets/../lv_misc/lv_anim.h:172:14
	ldrsh.w	r0, [sp]
	.loc	14 172 5 is_stmt 0              @ lvgl/src/lv_widgets/../lv_misc/lv_anim.h:172:5
	ldr	r1, [sp, #4]
	.loc	14 172 12                       @ lvgl/src/lv_widgets/../lv_misc/lv_anim.h:172:12
	str	r0, [r1, #32]
	.loc	14 173 1 is_stmt 1              @ lvgl/src/lv_widgets/../lv_misc/lv_anim.h:173:1
	add	sp, #8
	bx	lr
.Ltmp479:
.Lfunc_end31:
	.size	lv_anim_set_values, .Lfunc_end31-lv_anim_set_values
	.cfi_endproc
	.cantunwind
	.fnend
                                        @ -- End function
	.section	.text.lv_anim_set_time,"ax",%progbits
	.p2align	3                               @ -- Begin function lv_anim_set_time
	.type	lv_anim_set_time,%function
	.code	16                              @ @lv_anim_set_time
	.thumb_func
lv_anim_set_time:
.Lfunc_begin32:
	.loc	14 148 0                        @ lvgl/src/lv_widgets/../lv_misc/lv_anim.h:148:0
	.fnstart
	.cfi_startproc
@ %bb.0:
	.pad	#8
	sub	sp, #8
	.cfi_def_cfa_offset 8
	str	r0, [sp, #4]
	str	r1, [sp]
.Ltmp480:
	.loc	14 149 15 prologue_end          @ lvgl/src/lv_widgets/../lv_misc/lv_anim.h:149:15
	ldr	r0, [sp]
	.loc	14 149 5 is_stmt 0              @ lvgl/src/lv_widgets/../lv_misc/lv_anim.h:149:5
	ldr	r1, [sp, #4]
	.loc	14 149 13                       @ lvgl/src/lv_widgets/../lv_misc/lv_anim.h:149:13
	str	r0, [r1, #36]
	.loc	14 150 1 is_stmt 1              @ lvgl/src/lv_widgets/../lv_misc/lv_anim.h:150:1
	add	sp, #8
	bx	lr
.Ltmp481:
.Lfunc_end32:
	.size	lv_anim_set_time, .Lfunc_end32-lv_anim_set_time
	.cfi_endproc
	.cantunwind
	.fnend
                                        @ -- End function
	.section	.text.lv_page_scroll_hor,"ax",%progbits
	.hidden	lv_page_scroll_hor              @ -- Begin function lv_page_scroll_hor
	.globl	lv_page_scroll_hor
	.p2align	3
	.type	lv_page_scroll_hor,%function
	.code	16                              @ @lv_page_scroll_hor
	.thumb_func
lv_page_scroll_hor:
.Lfunc_begin33:
	.loc	10 574 0                        @ lvgl/src/lv_widgets/lv_page.c:574:0
	.fnstart
	.cfi_startproc
@ %bb.0:
	.save	{r7, lr}
	push	{r7, lr}
	.cfi_def_cfa_offset 8
	.cfi_offset lr, -4
	.cfi_offset r7, -8
	.pad	#88
	sub	sp, #88
	.cfi_def_cfa_offset 96
                                        @ kill: def $r2 killed $r1
	str	r0, [sp, #84]
	strh.w	r1, [sp, #82]
.Ltmp482:
	.loc	10 575 46 prologue_end          @ lvgl/src/lv_widgets/lv_page.c:575:46
	ldr	r0, [sp, #84]
	.loc	10 575 23 is_stmt 0             @ lvgl/src/lv_widgets/lv_page.c:575:23
	bl	lv_page_get_scrollable
	.loc	10 575 16                       @ lvgl/src/lv_widgets/lv_page.c:575:16
	str	r0, [sp, #76]
	add	r0, sp, #12
	.loc	10 579 5 is_stmt 1              @ lvgl/src/lv_widgets/lv_page.c:579:5
	str	r0, [sp, #8]                    @ 4-byte Spill
	bl	lv_anim_init
	ldr	r0, [sp, #8]                    @ 4-byte Reload
	.loc	10 580 25                       @ lvgl/src/lv_widgets/lv_page.c:580:25
	ldr	r1, [sp, #76]
	.loc	10 580 5 is_stmt 0              @ lvgl/src/lv_widgets/lv_page.c:580:5
	bl	lv_anim_set_var
	ldr	r0, [sp, #8]                    @ 4-byte Reload
	.loc	10 581 5 is_stmt 1              @ lvgl/src/lv_widgets/lv_page.c:581:5
	movw	r1, :lower16:lv_obj_set_x
	movt	r1, :upper16:lv_obj_set_x
	bl	lv_anim_set_exec_cb
	.loc	10 582 41                       @ lvgl/src/lv_widgets/lv_page.c:582:41
	ldr	r0, [sp, #76]
	.loc	10 582 28 is_stmt 0             @ lvgl/src/lv_widgets/lv_page.c:582:28
	bl	lv_obj_get_x
	.loc	10 582 61                       @ lvgl/src/lv_widgets/lv_page.c:582:61
	str	r0, [sp, #4]                    @ 4-byte Spill
	ldr	r0, [sp, #76]
	.loc	10 582 48                       @ lvgl/src/lv_widgets/lv_page.c:582:48
	bl	lv_obj_get_x
	ldr	r1, [sp, #4]                    @ 4-byte Reload
	mov	r2, r0
	.loc	10 582 69                       @ lvgl/src/lv_widgets/lv_page.c:582:69
	ldr	r0, [sp, #8]                    @ 4-byte Reload
	ldrh.w	r3, [sp, #82]
	.loc	10 582 67                       @ lvgl/src/lv_widgets/lv_page.c:582:67
	add	r2, r3
	.loc	10 582 5                        @ lvgl/src/lv_widgets/lv_page.c:582:5
	sxth	r2, r2
	bl	lv_anim_set_values
	.loc	10 583 48 is_stmt 1             @ lvgl/src/lv_widgets/lv_page.c:583:48
	ldr	r0, [sp, #84]
	.loc	10 583 26 is_stmt 0             @ lvgl/src/lv_widgets/lv_page.c:583:26
	bl	lv_page_get_anim_time
	mov	r1, r0
	.loc	10 583 5                        @ lvgl/src/lv_widgets/lv_page.c:583:5
	ldr	r0, [sp, #8]                    @ 4-byte Reload
	bl	lv_anim_set_time
	ldr	r0, [sp, #8]                    @ 4-byte Reload
	.loc	10 584 5 is_stmt 1              @ lvgl/src/lv_widgets/lv_page.c:584:5
	bl	lv_anim_start
	.loc	10 588 1                        @ lvgl/src/lv_widgets/lv_page.c:588:1
	add	sp, #88
	pop	{r7, pc}
.Ltmp483:
.Lfunc_end33:
	.size	lv_page_scroll_hor, .Lfunc_end33-lv_page_scroll_hor
	.cfi_endproc
	.cantunwind
	.fnend
                                        @ -- End function
	.section	.text.lv_page_scroll_ver,"ax",%progbits
	.hidden	lv_page_scroll_ver              @ -- Begin function lv_page_scroll_ver
	.globl	lv_page_scroll_ver
	.p2align	3
	.type	lv_page_scroll_ver,%function
	.code	16                              @ @lv_page_scroll_ver
	.thumb_func
lv_page_scroll_ver:
.Lfunc_begin34:
	.loc	10 596 0                        @ lvgl/src/lv_widgets/lv_page.c:596:0
	.fnstart
	.cfi_startproc
@ %bb.0:
	.save	{r7, lr}
	push	{r7, lr}
	.cfi_def_cfa_offset 8
	.cfi_offset lr, -4
	.cfi_offset r7, -8
	.pad	#88
	sub	sp, #88
	.cfi_def_cfa_offset 96
