	.text
	.syntax unified
	.eabi_attribute	67, "2.09"	@ Tag_conformance
	.cpu	cortex-m7
	.eabi_attribute	6, 13	@ Tag_CPU_arch
	.eabi_attribute	7, 77	@ Tag_CPU_arch_profile
	.eabi_attribute	8, 0	@ Tag_ARM_ISA_use
	.eabi_attribute	9, 2	@ Tag_THUMB_ISA_use
	.fpu	fpv5-d16
	.eabi_attribute	36, 1	@ Tag_FP_HP_extension
	.eabi_attribute	34, 1	@ Tag_CPU_unaligned_access
	.eabi_attribute	17, 1	@ Tag_ABI_PCS_GOT_use
	.eabi_attribute	20, 2	@ Tag_ABI_FP_denormal
	.eabi_attribute	21, 0	@ Tag_ABI_FP_exceptions
	.eabi_attribute	23, 1	@ Tag_ABI_FP_number_model
	.eabi_attribute	24, 1	@ Tag_ABI_align_needed
	.eabi_attribute	25, 1	@ Tag_ABI_align_preserved
	.eabi_attribute	28, 1	@ Tag_ABI_VFP_args
	.eabi_attribute	38, 1	@ Tag_ABI_FP_16bit_format
	.eabi_attribute	18, 2	@ Tag_ABI_PCS_wchar_t
	.eabi_attribute	26, 1	@ Tag_ABI_enum_size
	.eabi_attribute	14, 0	@ Tag_ABI_PCS_R9_use
	.file	"lv_refr.c"
	.file	1 "E:\\Smart-access-control\\Hardware\\CODE" "lvgl/src/lv_core/../lv_widgets/../lv_core/lv_obj.h"
	.file	2 "D:\\Keil_v5\\ARM\\ARMCLANG\\Bin\\..\\include" "stdint.h"
	.file	3 "E:\\Smart-access-control\\Hardware\\CODE" "lvgl/src/lv_core/../lv_font/../lv_misc/lv_ll.h"
	.file	4 "E:\\Smart-access-control\\Hardware\\CODE" "./lvgl/src/lv_conf.h"
	.file	5 "E:\\Smart-access-control\\Hardware\\CODE" "lvgl/src/lv_core/../lv_gpu/../lv_misc/lv_area.h"
	.file	6 "E:\\Smart-access-control\\Hardware\\CODE" "lvgl/src/lv_core/../lv_draw/../lv_misc/lv_types.h"
	.file	7 "E:\\Smart-access-control\\Hardware\\CODE" "lvgl/src/lv_core/../lv_draw/../lv_core/lv_style.h"
	.file	8 "E:\\Smart-access-control\\Hardware\\CODE" "lvgl/src/lv_core/../lv_hal/lv_hal_indev.h"
	.file	9 "E:\\Smart-access-control\\Hardware\\CODE" "lvgl/src/lv_core/../lv_draw/../lv_misc/lv_bidi.h"
	.file	10 "E:\\Smart-access-control\\Hardware\\CODE" "lvgl/src/lv_core/lv_refr.c"
	.file	11 "E:\\Smart-access-control\\Hardware\\CODE" "lvgl/src/lv_core/../lv_gpu/../lv_hal/lv_hal_disp.h"
	.file	12 "E:\\Smart-access-control\\Hardware\\CODE" "lvgl/src/lv_core/../lv_gpu/../lv_misc/lv_color.h"
	.file	13 "E:\\Smart-access-control\\Hardware\\CODE" "lvgl/src/lv_core/../lv_font/../lv_misc/lv_task.h"
	.file	14 "E:\\Smart-access-control\\Hardware\\CODE" "lvgl/src/lv_core/../lv_widgets/lv_label.h"
	.section	.text._lv_refr_init,"ax",%progbits
	.hidden	_lv_refr_init                   @ -- Begin function _lv_refr_init
	.globl	_lv_refr_init
	.p2align	3
	.type	_lv_refr_init,%function
	.code	16                              @ @_lv_refr_init
	.thumb_func
_lv_refr_init:
.Lfunc_begin0:
	.loc	10 70 0                         @ lvgl/src/lv_core/lv_refr.c:70:0
	.fnstart
	.cfi_sections .debug_frame
	.cfi_startproc
@ %bb.0:
	.loc	10 72 1 prologue_end            @ lvgl/src/lv_core/lv_refr.c:72:1
	bx	lr
.Ltmp0:
.Lfunc_end0:
	.size	_lv_refr_init, .Lfunc_end0-_lv_refr_init
	.cfi_endproc
	.cantunwind
	.fnend
                                        @ -- End function
	.section	.text.lv_refr_now,"ax",%progbits
	.hidden	lv_refr_now                     @ -- Begin function lv_refr_now
	.globl	lv_refr_now
	.p2align	3
	.type	lv_refr_now,%function
	.code	16                              @ @lv_refr_now
	.thumb_func
lv_refr_now:
.Lfunc_begin1:
	.loc	10 82 0                         @ lvgl/src/lv_core/lv_refr.c:82:0
	.fnstart
	.cfi_startproc
@ %bb.0:
	.save	{r7, lr}
	push	{r7, lr}
	.cfi_def_cfa_offset 8
	.cfi_offset lr, -4
	.cfi_offset r7, -8
	.pad	#8
	sub	sp, #8
	.cfi_def_cfa_offset 16
	str	r0, [sp, #4]
.Ltmp1:
	.loc	10 84 5 prologue_end            @ lvgl/src/lv_core/lv_refr.c:84:5
	bl	lv_anim_refr_now
.Ltmp2:
	.loc	10 87 8                         @ lvgl/src/lv_core/lv_refr.c:87:8
	ldr	r0, [sp, #4]
.Ltmp3:
	.loc	10 87 8 is_stmt 0               @ lvgl/src/lv_core/lv_refr.c:87:8
	cbz	r0, .LBB1_2
	b	.LBB1_1
.LBB1_1:
.Ltmp4:
	.loc	10 88 28 is_stmt 1              @ lvgl/src/lv_core/lv_refr.c:88:28
	ldr	r0, [sp, #4]
	.loc	10 88 34 is_stmt 0              @ lvgl/src/lv_core/lv_refr.c:88:34
	ldr	r0, [r0, #44]
	.loc	10 88 9                         @ lvgl/src/lv_core/lv_refr.c:88:9
	bl	_lv_disp_refr_task
	.loc	10 89 5 is_stmt 1               @ lvgl/src/lv_core/lv_refr.c:89:5
	b	.LBB1_6
.Ltmp5:
.LBB1_2:
	.loc	10 0 5 is_stmt 0                @ lvgl/src/lv_core/lv_refr.c:0:5
	movs	r0, #0
.Ltmp6:
	.loc	10 92 13 is_stmt 1              @ lvgl/src/lv_core/lv_refr.c:92:13
	bl	lv_disp_get_next
	.loc	10 92 11 is_stmt 0              @ lvgl/src/lv_core/lv_refr.c:92:11
	str	r0, [sp]
	.loc	10 93 9 is_stmt 1               @ lvgl/src/lv_core/lv_refr.c:93:9
	b	.LBB1_3
.LBB1_3:                                @ =>This Inner Loop Header: Depth=1
	.loc	10 93 15 is_stmt 0              @ lvgl/src/lv_core/lv_refr.c:93:15
	ldr	r0, [sp]
	.loc	10 93 9                         @ lvgl/src/lv_core/lv_refr.c:93:9
	cbz	r0, .LBB1_5
	b	.LBB1_4
.LBB1_4:                                @   in Loop: Header=BB1_3 Depth=1
.Ltmp7:
	.loc	10 94 32 is_stmt 1              @ lvgl/src/lv_core/lv_refr.c:94:32
	ldr	r0, [sp]
	.loc	10 94 35 is_stmt 0              @ lvgl/src/lv_core/lv_refr.c:94:35
	ldr	r0, [r0, #44]
	.loc	10 94 13                        @ lvgl/src/lv_core/lv_refr.c:94:13
	bl	_lv_disp_refr_task
	.loc	10 95 34 is_stmt 1              @ lvgl/src/lv_core/lv_refr.c:95:34
	ldr	r0, [sp]
	.loc	10 95 17 is_stmt 0              @ lvgl/src/lv_core/lv_refr.c:95:17
	bl	lv_disp_get_next
	.loc	10 95 15                        @ lvgl/src/lv_core/lv_refr.c:95:15
	str	r0, [sp]
.Ltmp8:
	.loc	10 93 9 is_stmt 1               @ lvgl/src/lv_core/lv_refr.c:93:9
	b	.LBB1_3
.Ltmp9:
.LBB1_5:
	.loc	10 0 9 is_stmt 0                @ lvgl/src/lv_core/lv_refr.c:0:9
	b	.LBB1_6
.LBB1_6:
	.loc	10 98 1 is_stmt 1               @ lvgl/src/lv_core/lv_refr.c:98:1
	add	sp, #8
	pop	{r7, pc}
.Ltmp10:
.Lfunc_end1:
	.size	lv_refr_now, .Lfunc_end1-lv_refr_now
	.cfi_endproc
	.cantunwind
	.fnend
                                        @ -- End function
	.section	.text._lv_disp_refr_task,"ax",%progbits
	.hidden	_lv_disp_refr_task              @ -- Begin function _lv_disp_refr_task
	.globl	_lv_disp_refr_task
	.p2align	3
	.type	_lv_disp_refr_task,%function
	.code	16                              @ @_lv_disp_refr_task
	.thumb_func
_lv_disp_refr_task:
.Lfunc_begin2:
	.loc	10 177 0                        @ lvgl/src/lv_core/lv_refr.c:177:0
	.fnstart
	.cfi_startproc
@ %bb.0:
	.save	{r7, lr}
	push	{r7, lr}
	.cfi_def_cfa_offset 8
	.cfi_offset lr, -4
	.cfi_offset r7, -8
	.pad	#104
	sub	sp, #104
	.cfi_def_cfa_offset 112
	str	r0, [sp, #100]
.Ltmp11:
	.loc	10 180 22 prologue_end          @ lvgl/src/lv_core/lv_refr.c:180:22
	bl	lv_tick_get
	.loc	10 180 14 is_stmt 0             @ lvgl/src/lv_core/lv_refr.c:180:14
	str	r0, [sp, #96]
	movs	r0, #0
	.loc	10 181 14 is_stmt 1             @ lvgl/src/lv_core/lv_refr.c:181:14
	str	r0, [sp, #92]
	.loc	10 183 17                       @ lvgl/src/lv_core/lv_refr.c:183:17
	ldr	r0, [sp, #100]
	.loc	10 183 23 is_stmt 0             @ lvgl/src/lv_core/lv_refr.c:183:23
	ldr	r1, [r0, #12]
	.loc	10 183 15                       @ lvgl/src/lv_core/lv_refr.c:183:15
	movw	r0, :lower16:disp_refr
	movt	r0, :upper16:disp_refr
	str	r1, [r0]
.Ltmp12:
	.loc	10 193 8 is_stmt 1              @ lvgl/src/lv_core/lv_refr.c:193:8
	ldr	r0, [r0]
	.loc	10 193 19 is_stmt 0             @ lvgl/src/lv_core/lv_refr.c:193:19
	ldr	r0, [r0, #60]
.Ltmp13:
	.loc	10 193 8                        @ lvgl/src/lv_core/lv_refr.c:193:8
	cbnz	r0, .LBB2_2
	b	.LBB2_1
.LBB2_1:
.Ltmp14:
	.loc	10 194 9 is_stmt 1              @ lvgl/src/lv_core/lv_refr.c:194:9
	movw	r0, :lower16:disp_refr
	movt	r0, :upper16:disp_refr
	ldr	r1, [r0]
	.loc	10 194 26 is_stmt 0             @ lvgl/src/lv_core/lv_refr.c:194:26
	ldrh.w	r0, [r1, #382]
	and	r0, r0, #64512
	strh.w	r0, [r1, #382]
	.loc	10 195 9 is_stmt 1              @ lvgl/src/lv_core/lv_refr.c:195:9
	b	.LBB2_43
.Ltmp15:
.LBB2_2:
	.loc	10 198 5                        @ lvgl/src/lv_core/lv_refr.c:198:5
	bl	lv_refr_join_area
	.loc	10 200 5                        @ lvgl/src/lv_core/lv_refr.c:200:5
	bl	lv_refr_areas
.Ltmp16:
	.loc	10 203 8                        @ lvgl/src/lv_core/lv_refr.c:203:8
	movw	r0, :lower16:disp_refr
	movt	r0, :upper16:disp_refr
	ldr	r0, [r0]
	.loc	10 203 19 is_stmt 0             @ lvgl/src/lv_core/lv_refr.c:203:19
	ldrh.w	r0, [r0, #382]
.Ltmp17:
	.loc	10 203 8                        @ lvgl/src/lv_core/lv_refr.c:203:8
	lsls	r0, r0, #22
	cmp	r0, #0
	beq.w	.LBB2_29
	b	.LBB2_3
.LBB2_3:
.Ltmp18:
	.loc	10 206 39 is_stmt 1             @ lvgl/src/lv_core/lv_refr.c:206:39
	movw	r0, :lower16:disp_refr
	movt	r0, :upper16:disp_refr
	ldr	r0, [r0]
	.loc	10 206 12 is_stmt 0             @ lvgl/src/lv_core/lv_refr.c:206:12
	bl	lv_disp_is_true_double_buf
.Ltmp19:
	.loc	10 206 12                       @ lvgl/src/lv_core/lv_refr.c:206:12
	cmp	r0, #0
	beq.w	.LBB2_26
	b	.LBB2_4
.LBB2_4:
.Ltmp20:
	.loc	10 207 16 is_stmt 1             @ lvgl/src/lv_core/lv_refr.c:207:16
	movw	r0, :lower16:disp_refr
	movt	r0, :upper16:disp_refr
	ldr	r0, [r0]
	.loc	10 207 34 is_stmt 0             @ lvgl/src/lv_core/lv_refr.c:207:34
	ldr	r0, [r0, #20]
.Ltmp21:
	.loc	10 207 16                       @ lvgl/src/lv_core/lv_refr.c:207:16
	cbz	r0, .LBB2_6
	b	.LBB2_5
.LBB2_5:
.Ltmp22:
	.loc	10 209 13 is_stmt 1             @ lvgl/src/lv_core/lv_refr.c:209:13
	b	.LBB2_25
.Ltmp23:
.LBB2_6:
	.loc	10 211 55                       @ lvgl/src/lv_core/lv_refr.c:211:55
	movw	r0, :lower16:disp_refr
	movt	r0, :upper16:disp_refr
	ldr	r0, [r0]
	.loc	10 211 39 is_stmt 0             @ lvgl/src/lv_core/lv_refr.c:211:39
	bl	lv_disp_get_buf
	.loc	10 211 33                       @ lvgl/src/lv_core/lv_refr.c:211:33
	str	r0, [sp, #88]
	.loc	10 214 17 is_stmt 1             @ lvgl/src/lv_core/lv_refr.c:214:17
	bl	lv_refr_vdb_flush
	.loc	10 219 17                       @ lvgl/src/lv_core/lv_refr.c:219:17
	b	.LBB2_7
.LBB2_7:                                @ =>This Inner Loop Header: Depth=1
	.loc	10 219 23 is_stmt 0             @ lvgl/src/lv_core/lv_refr.c:219:23
	ldr	r0, [sp, #88]
	.loc	10 219 28                       @ lvgl/src/lv_core/lv_refr.c:219:28
	ldr	r0, [r0, #24]
	.loc	10 219 17                       @ lvgl/src/lv_core/lv_refr.c:219:17
	cbz	r0, .LBB2_9
	b	.LBB2_8
.LBB2_8:                                @   in Loop: Header=BB2_7 Depth=1
	b	.LBB2_7
.LBB2_9:
	.loc	10 0 17                         @ lvgl/src/lv_core/lv_refr.c:0:17
	movs	r0, #0
	.loc	10 221 30 is_stmt 1             @ lvgl/src/lv_core/lv_refr.c:221:30
	str	r0, [sp, #84]
	.loc	10 225 44                       @ lvgl/src/lv_core/lv_refr.c:225:44
	movw	r0, :lower16:disp_refr
	movt	r0, :upper16:disp_refr
	ldr	r0, [r0]
	.loc	10 225 62 is_stmt 0             @ lvgl/src/lv_core/lv_refr.c:225:62
	ldrsh.w	r0, [r0]
	.loc	10 225 70                       @ lvgl/src/lv_core/lv_refr.c:225:70
	lsls	r0, r0, #2
	.loc	10 225 28                       @ lvgl/src/lv_core/lv_refr.c:225:28
	bl	_lv_mem_buf_get
	.loc	10 225 26                       @ lvgl/src/lv_core/lv_refr.c:225:26
	str	r0, [sp, #84]
	.loc	10 228 48 is_stmt 1             @ lvgl/src/lv_core/lv_refr.c:228:48
	ldr	r0, [sp, #88]
	.loc	10 228 53 is_stmt 0             @ lvgl/src/lv_core/lv_refr.c:228:53
	ldr	r0, [r0, #8]
	.loc	10 228 27                       @ lvgl/src/lv_core/lv_refr.c:228:27
	str	r0, [sp, #80]
	.loc	10 229 48 is_stmt 1             @ lvgl/src/lv_core/lv_refr.c:229:48
	ldr	r0, [sp, #88]
	.loc	10 229 69 is_stmt 0             @ lvgl/src/lv_core/lv_refr.c:229:69
	ldr	r1, [r0]
	.loc	10 229 53                       @ lvgl/src/lv_core/lv_refr.c:229:53
	ldr	r0, [r0, #8]
	.loc	10 229 37                       @ lvgl/src/lv_core/lv_refr.c:229:37
	cmp	r0, r1
	bne	.LBB2_11
	b	.LBB2_10
.LBB2_10:
	.loc	10 229 76                       @ lvgl/src/lv_core/lv_refr.c:229:76
	ldr	r0, [sp, #88]
	.loc	10 229 81                       @ lvgl/src/lv_core/lv_refr.c:229:81
	ldr	r0, [r0, #4]
	.loc	10 229 37                       @ lvgl/src/lv_core/lv_refr.c:229:37
	str	r0, [sp, #36]                   @ 4-byte Spill
	b	.LBB2_12
.LBB2_11:
	.loc	10 229 88                       @ lvgl/src/lv_core/lv_refr.c:229:88
	ldr	r0, [sp, #88]
	.loc	10 229 93                       @ lvgl/src/lv_core/lv_refr.c:229:93
	ldr	r0, [r0]
	.loc	10 229 37                       @ lvgl/src/lv_core/lv_refr.c:229:37
	str	r0, [sp, #36]                   @ 4-byte Spill
	b	.LBB2_12
.LBB2_12:
	ldr	r0, [sp, #36]                   @ 4-byte Reload
	.loc	10 229 27                       @ lvgl/src/lv_core/lv_refr.c:229:27
	str	r0, [sp, #76]
	.loc	10 231 55 is_stmt 1             @ lvgl/src/lv_core/lv_refr.c:231:55
	movw	r0, :lower16:disp_refr
	movt	r0, :upper16:disp_refr
	ldr	r0, [r0]
	.loc	10 231 35 is_stmt 0             @ lvgl/src/lv_core/lv_refr.c:231:35
	bl	lv_disp_get_hor_res
	.loc	10 231 28                       @ lvgl/src/lv_core/lv_refr.c:231:28
	strh.w	r0, [sp, #74]
	movs	r0, #0
.Ltmp24:
	.loc	10 233 23 is_stmt 1             @ lvgl/src/lv_core/lv_refr.c:233:23
	strh.w	r0, [sp, #72]
	.loc	10 233 21 is_stmt 0             @ lvgl/src/lv_core/lv_refr.c:233:21
	b	.LBB2_13
.LBB2_13:                               @ =>This Loop Header: Depth=1
                                        @     Child Loop BB2_16 Depth 2
.Ltmp25:
	.loc	10 233 28                       @ lvgl/src/lv_core/lv_refr.c:233:28
	ldrh.w	r0, [sp, #72]
	.loc	10 233 32                       @ lvgl/src/lv_core/lv_refr.c:233:32
	movw	r1, :lower16:disp_refr
	movt	r1, :upper16:disp_refr
	ldr	r1, [r1]
	.loc	10 233 43                       @ lvgl/src/lv_core/lv_refr.c:233:43
	ldrh.w	r1, [r1, #382]
	bfc	r1, #10, #22
.Ltmp26:
	.loc	10 233 17                       @ lvgl/src/lv_core/lv_refr.c:233:17
	cmp	r0, r1
	bge	.LBB2_22
	b	.LBB2_14
.LBB2_14:                               @   in Loop: Header=BB2_13 Depth=1
.Ltmp27:
	.loc	10 234 24 is_stmt 1             @ lvgl/src/lv_core/lv_refr.c:234:24
	movw	r0, :lower16:disp_refr
	movt	r0, :upper16:disp_refr
	ldr	r0, [r0]
	.loc	10 234 51 is_stmt 0             @ lvgl/src/lv_core/lv_refr.c:234:51
	ldrh.w	r1, [sp, #72]
	.loc	10 234 35                       @ lvgl/src/lv_core/lv_refr.c:234:35
	add	r0, r1
	.loc	10 234 24                       @ lvgl/src/lv_core/lv_refr.c:234:24
	ldrb.w	r0, [r0, #350]
.Ltmp28:
	.loc	10 234 24                       @ lvgl/src/lv_core/lv_refr.c:234:24
	cmp	r0, #0
	bne	.LBB2_20
	b	.LBB2_15
.LBB2_15:                               @   in Loop: Header=BB2_13 Depth=1
.Ltmp29:
	.loc	10 236 30 is_stmt 1             @ lvgl/src/lv_core/lv_refr.c:236:30
	ldrsh.w	r1, [sp, #74]
	.loc	10 236 37 is_stmt 0             @ lvgl/src/lv_core/lv_refr.c:236:37
	movw	r0, :lower16:disp_refr
	movt	r0, :upper16:disp_refr
	str	r0, [sp, #32]                   @ 4-byte Spill
	ldr	r2, [r0]
	.loc	10 236 58                       @ lvgl/src/lv_core/lv_refr.c:236:58
	ldrh.w	r3, [sp, #72]
	.loc	10 236 48                       @ lvgl/src/lv_core/lv_refr.c:236:48
	add.w	r2, r2, r3, lsl #3
	.loc	10 236 90                       @ lvgl/src/lv_core/lv_refr.c:236:90
	ldrsh.w	r3, [r2, #94]
	.loc	10 236 61                       @ lvgl/src/lv_core/lv_refr.c:236:61
	ldrsh.w	r2, [r2, #96]
	.loc	10 236 64                       @ lvgl/src/lv_core/lv_refr.c:236:64
	smlabb	r1, r1, r2, r3
	.loc	10 236 94                       @ lvgl/src/lv_core/lv_refr.c:236:94
	lsls	r1, r1, #2
	.loc	10 235 34 is_stmt 1             @ lvgl/src/lv_core/lv_refr.c:235:34
	str	r1, [sp, #68]
	.loc	10 245 67                       @ lvgl/src/lv_core/lv_refr.c:245:67
	ldr	r0, [r0]
	.loc	10 245 88 is_stmt 0             @ lvgl/src/lv_core/lv_refr.c:245:88
	ldrh.w	r1, [sp, #72]
	.loc	10 245 78                       @ lvgl/src/lv_core/lv_refr.c:245:78
	add.w	r0, r0, r1, lsl #3
	.loc	10 245 67                       @ lvgl/src/lv_core/lv_refr.c:245:67
	adds	r0, #94
	.loc	10 245 48                       @ lvgl/src/lv_core/lv_refr.c:245:48
	bl	lv_area_get_width
	mov	r1, r0
	.loc	10 245 92                       @ lvgl/src/lv_core/lv_refr.c:245:92
	ldr	r0, [sp, #32]                   @ 4-byte Reload
	lsls	r1, r1, #2
	.loc	10 245 34                       @ lvgl/src/lv_core/lv_refr.c:245:34
	str	r1, [sp, #60]
.Ltmp30:
	.loc	10 247 33 is_stmt 1             @ lvgl/src/lv_core/lv_refr.c:247:33
	ldr	r0, [r0]
	.loc	10 247 54 is_stmt 0             @ lvgl/src/lv_core/lv_refr.c:247:54
	ldrh.w	r1, [sp, #72]
	.loc	10 247 44                       @ lvgl/src/lv_core/lv_refr.c:247:44
	add.w	r0, r0, r1, lsl #3
	.loc	10 247 57                       @ lvgl/src/lv_core/lv_refr.c:247:57
	ldrh.w	r0, [r0, #96]
	.loc	10 247 31                       @ lvgl/src/lv_core/lv_refr.c:247:31
	strh.w	r0, [sp, #66]
	.loc	10 247 29                       @ lvgl/src/lv_core/lv_refr.c:247:29
	b	.LBB2_16
.LBB2_16:                               @   Parent Loop BB2_13 Depth=1
                                        @ =>  This Inner Loop Header: Depth=2
.Ltmp31:
	.loc	10 247 61                       @ lvgl/src/lv_core/lv_refr.c:247:61
	ldrsh.w	r0, [sp, #66]
	.loc	10 247 66                       @ lvgl/src/lv_core/lv_refr.c:247:66
	movw	r1, :lower16:disp_refr
	movt	r1, :upper16:disp_refr
	ldr	r1, [r1]
	.loc	10 247 87                       @ lvgl/src/lv_core/lv_refr.c:247:87
	ldrh.w	r2, [sp, #72]
	.loc	10 247 77                       @ lvgl/src/lv_core/lv_refr.c:247:77
	add.w	r1, r1, r2, lsl #3
	.loc	10 247 90                       @ lvgl/src/lv_core/lv_refr.c:247:90
	ldrsh.w	r1, [r1, #100]
.Ltmp32:
	.loc	10 247 25                       @ lvgl/src/lv_core/lv_refr.c:247:25
	cmp	r0, r1
	bgt	.LBB2_19
	b	.LBB2_17
.LBB2_17:                               @   in Loop: Header=BB2_16 Depth=2
.Ltmp33:
	.loc	10 250 40 is_stmt 1             @ lvgl/src/lv_core/lv_refr.c:250:40
	ldr	r0, [sp, #84]
	.loc	10 250 50 is_stmt 0             @ lvgl/src/lv_core/lv_refr.c:250:50
	ldr	r1, [sp, #76]
	.loc	10 250 60                       @ lvgl/src/lv_core/lv_refr.c:250:60
	ldr	r2, [sp, #68]
	.loc	10 250 58                       @ lvgl/src/lv_core/lv_refr.c:250:58
	add	r1, r2
	.loc	10 250 72                       @ lvgl/src/lv_core/lv_refr.c:250:72
	ldr	r2, [sp, #60]
	.loc	10 250 29                       @ lvgl/src/lv_core/lv_refr.c:250:29
	bl	_lv_memcpy
	.loc	10 251 40 is_stmt 1             @ lvgl/src/lv_core/lv_refr.c:251:40
	ldr	r0, [sp, #80]
	.loc	10 251 50 is_stmt 0             @ lvgl/src/lv_core/lv_refr.c:251:50
	ldr	r1, [sp, #68]
	.loc	10 251 48                       @ lvgl/src/lv_core/lv_refr.c:251:48
	add	r0, r1
	.loc	10 251 62                       @ lvgl/src/lv_core/lv_refr.c:251:62
	ldr	r1, [sp, #84]
	.loc	10 251 72                       @ lvgl/src/lv_core/lv_refr.c:251:72
	ldr	r2, [sp, #60]
	.loc	10 251 29                       @ lvgl/src/lv_core/lv_refr.c:251:29
	bl	_lv_memcpy
	.loc	10 252 43 is_stmt 1             @ lvgl/src/lv_core/lv_refr.c:252:43
	ldrsh.w	r1, [sp, #74]
	.loc	10 252 40 is_stmt 0             @ lvgl/src/lv_core/lv_refr.c:252:40
	ldr	r0, [sp, #68]
	add.w	r0, r0, r1, lsl #2
	str	r0, [sp, #68]
	.loc	10 253 25 is_stmt 1             @ lvgl/src/lv_core/lv_refr.c:253:25
	b	.LBB2_18
.Ltmp34:
.LBB2_18:                               @   in Loop: Header=BB2_16 Depth=2
	.loc	10 247 95                       @ lvgl/src/lv_core/lv_refr.c:247:95
	ldrh.w	r0, [sp, #66]
	adds	r0, #1
	strh.w	r0, [sp, #66]
	.loc	10 247 25 is_stmt 0             @ lvgl/src/lv_core/lv_refr.c:247:25
	b	.LBB2_16
.Ltmp35:
.LBB2_19:                               @   in Loop: Header=BB2_13 Depth=1
	.loc	10 255 21 is_stmt 1             @ lvgl/src/lv_core/lv_refr.c:255:21
	b	.LBB2_20
.Ltmp36:
.LBB2_20:                               @   in Loop: Header=BB2_13 Depth=1
	.loc	10 256 17                       @ lvgl/src/lv_core/lv_refr.c:256:17
	b	.LBB2_21
.Ltmp37:
.LBB2_21:                               @   in Loop: Header=BB2_13 Depth=1
	.loc	10 233 51                       @ lvgl/src/lv_core/lv_refr.c:233:51
	ldrh.w	r0, [sp, #72]
	adds	r0, #1
	strh.w	r0, [sp, #72]
	.loc	10 233 17 is_stmt 0             @ lvgl/src/lv_core/lv_refr.c:233:17
	b	.LBB2_13
.Ltmp38:
.LBB2_22:
	.loc	10 258 20 is_stmt 1             @ lvgl/src/lv_core/lv_refr.c:258:20
	ldr	r0, [sp, #84]
.Ltmp39:
	.loc	10 258 20 is_stmt 0             @ lvgl/src/lv_core/lv_refr.c:258:20
	cbz	r0, .LBB2_24
	b	.LBB2_23
.LBB2_23:
.Ltmp40:
	.loc	10 258 50                       @ lvgl/src/lv_core/lv_refr.c:258:50
	ldr	r0, [sp, #84]
	.loc	10 258 30                       @ lvgl/src/lv_core/lv_refr.c:258:30
	bl	_lv_mem_buf_release
	b	.LBB2_24
.Ltmp41:
.LBB2_24:
	.loc	10 0 30                         @ lvgl/src/lv_core/lv_refr.c:0:30
	b	.LBB2_25
.LBB2_25:
	.loc	10 260 9 is_stmt 1              @ lvgl/src/lv_core/lv_refr.c:260:9
	b	.LBB2_26
.Ltmp42:
.LBB2_26:
	.loc	10 263 23                       @ lvgl/src/lv_core/lv_refr.c:263:23
	movw	r0, :lower16:disp_refr
	movt	r0, :upper16:disp_refr
	str	r0, [sp, #28]                   @ 4-byte Spill
	ldr	r0, [r0]
	.loc	10 263 34 is_stmt 0             @ lvgl/src/lv_core/lv_refr.c:263:34
	adds	r0, #94
	mov.w	r1, #256
	.loc	10 263 9                        @ lvgl/src/lv_core/lv_refr.c:263:9
	bl	_lv_memset_00
	ldr	r0, [sp, #28]                   @ 4-byte Reload
	.loc	10 264 23 is_stmt 1             @ lvgl/src/lv_core/lv_refr.c:264:23
	ldr	r0, [r0]
	.loc	10 264 34 is_stmt 0             @ lvgl/src/lv_core/lv_refr.c:264:34
	add.w	r0, r0, #350
	movs	r1, #32
	.loc	10 264 9                        @ lvgl/src/lv_core/lv_refr.c:264:9
	bl	_lv_memset_00
	ldr	r0, [sp, #28]                   @ 4-byte Reload
	.loc	10 265 9 is_stmt 1              @ lvgl/src/lv_core/lv_refr.c:265:9
	ldr	r1, [r0]
	.loc	10 265 26 is_stmt 0             @ lvgl/src/lv_core/lv_refr.c:265:26
	ldrh.w	r0, [r1, #382]
	and	r0, r0, #64512
	strh.w	r0, [r1, #382]
	.loc	10 267 31 is_stmt 1             @ lvgl/src/lv_core/lv_refr.c:267:31
	ldr	r0, [sp, #96]
	.loc	10 267 17 is_stmt 0             @ lvgl/src/lv_core/lv_refr.c:267:17
	bl	lv_tick_elaps
	mov	r1, r0
	.loc	10 267 15                       @ lvgl/src/lv_core/lv_refr.c:267:15
	ldr	r0, [sp, #28]                   @ 4-byte Reload
	str	r1, [sp, #92]
.Ltmp43:
	.loc	10 269 12 is_stmt 1             @ lvgl/src/lv_core/lv_refr.c:269:12
	ldr	r0, [r0]
	.loc	10 269 30 is_stmt 0             @ lvgl/src/lv_core/lv_refr.c:269:30
	ldr	r0, [r0, #24]
.Ltmp44:
	.loc	10 269 12                       @ lvgl/src/lv_core/lv_refr.c:269:12
	cbz	r0, .LBB2_28
	b	.LBB2_27
.LBB2_27:
.Ltmp45:
	.loc	10 270 13 is_stmt 1             @ lvgl/src/lv_core/lv_refr.c:270:13
	movw	r0, :lower16:disp_refr
	movt	r0, :upper16:disp_refr
	ldr	r0, [r0]
	.loc	10 270 31 is_stmt 0             @ lvgl/src/lv_core/lv_refr.c:270:31
	ldr	r3, [r0, #24]
	.loc	10 270 62                       @ lvgl/src/lv_core/lv_refr.c:270:62
	ldr	r1, [sp, #92]
	.loc	10 270 69                       @ lvgl/src/lv_core/lv_refr.c:270:69
	movw	r2, :lower16:px_num
	movt	r2, :upper16:px_num
	ldr	r2, [r2]
	.loc	10 270 13                       @ lvgl/src/lv_core/lv_refr.c:270:13
	blx	r3
	.loc	10 271 9 is_stmt 1              @ lvgl/src/lv_core/lv_refr.c:271:9
	b	.LBB2_28
.Ltmp46:
.LBB2_28:
	.loc	10 272 5                        @ lvgl/src/lv_core/lv_refr.c:272:5
	b	.LBB2_29
.Ltmp47:
.LBB2_29:
	.loc	10 274 5                        @ lvgl/src/lv_core/lv_refr.c:274:5
	bl	_lv_mem_buf_free_all
	.loc	10 275 5                        @ lvgl/src/lv_core/lv_refr.c:275:5
	bl	_lv_font_clean_up_fmt_txt
.Ltmp48:
	.loc	10 279 8                        @ lvgl/src/lv_core/lv_refr.c:279:8
	movw	r0, :lower16:_lv_disp_refr_task.perf_label
	movt	r0, :upper16:_lv_disp_refr_task.perf_label
	ldr	r0, [r0]
.Ltmp49:
	.loc	10 279 8 is_stmt 0              @ lvgl/src/lv_core/lv_refr.c:279:8
	cmp	r0, #0
	bne	.LBB2_31
	b	.LBB2_30
.LBB2_30:
.Ltmp50:
	.loc	10 280 38 is_stmt 1             @ lvgl/src/lv_core/lv_refr.c:280:38
	bl	lv_layer_sys
	movs	r1, #0
	.loc	10 280 22 is_stmt 0             @ lvgl/src/lv_core/lv_refr.c:280:22
	str	r1, [sp, #24]                   @ 4-byte Spill
	bl	lv_label_create
	mov	r1, r0
	.loc	10 280 20                       @ lvgl/src/lv_core/lv_refr.c:280:20
	movw	r0, :lower16:_lv_disp_refr_task.perf_label
	movt	r0, :upper16:_lv_disp_refr_task.perf_label
	str	r0, [sp, #20]                   @ 4-byte Spill
	str	r1, [r0]
	.loc	10 281 28 is_stmt 1             @ lvgl/src/lv_core/lv_refr.c:281:28
	ldr	r0, [r0]
	movs	r1, #2
	.loc	10 281 9 is_stmt 0              @ lvgl/src/lv_core/lv_refr.c:281:9
	bl	lv_label_set_align
	ldr	r0, [sp, #20]                   @ 4-byte Reload
	ldr	r2, [sp, #24]                   @ 4-byte Reload
	.loc	10 282 39 is_stmt 1             @ lvgl/src/lv_core/lv_refr.c:282:39
	ldr	r0, [r0]
	movs	r3, #255
	.loc	10 282 9 is_stmt 0              @ lvgl/src/lv_core/lv_refr.c:282:9
	str	r3, [sp, #12]                   @ 4-byte Spill
	mov	r1, r2
	bl	lv_obj_set_style_local_bg_opa
	ldr	r1, [sp, #12]                   @ 4-byte Reload
	ldr	r0, [sp, #20]                   @ 4-byte Reload
	ldr	r2, [sp, #24]                   @ 4-byte Reload
	.loc	10 283 41 is_stmt 1             @ lvgl/src/lv_core/lv_refr.c:283:41
	ldr	r0, [r0]
	.loc	10 283 91 is_stmt 0             @ lvgl/src/lv_core/lv_refr.c:283:91
	strb.w	r2, [sp, #56]
	strb.w	r2, [sp, #57]
	strb.w	r2, [sp, #58]
	strb.w	r1, [sp, #59]
	.loc	10 283 9                        @ lvgl/src/lv_core/lv_refr.c:283:9
	ldr	r3, [sp, #56]
	mov	r1, r2
	bl	lv_obj_set_style_local_bg_color
	ldr	r1, [sp, #12]                   @ 4-byte Reload
	ldr	r0, [sp, #20]                   @ 4-byte Reload
	ldr	r2, [sp, #24]                   @ 4-byte Reload
	.loc	10 284 43 is_stmt 1             @ lvgl/src/lv_core/lv_refr.c:284:43
	ldr	r0, [r0]
	.loc	10 284 93 is_stmt 0             @ lvgl/src/lv_core/lv_refr.c:284:93
	strb.w	r1, [sp, #52]
	strb.w	r1, [sp, #53]
	strb.w	r1, [sp, #54]
	strb.w	r1, [sp, #55]
	.loc	10 284 9                        @ lvgl/src/lv_core/lv_refr.c:284:9
	ldr	r3, [sp, #52]
	mov	r1, r2
	bl	lv_obj_set_style_local_text_color
	ldr	r0, [sp, #20]                   @ 4-byte Reload
	ldr	r2, [sp, #24]                   @ 4-byte Reload
	.loc	10 285 40 is_stmt 1             @ lvgl/src/lv_core/lv_refr.c:285:40
	ldr	r0, [r0]
	movs	r3, #3
	.loc	10 285 9 is_stmt 0              @ lvgl/src/lv_core/lv_refr.c:285:9
	str	r3, [sp, #16]                   @ 4-byte Spill
	mov	r1, r2
	bl	lv_obj_set_style_local_pad_top
	ldr	r3, [sp, #16]                   @ 4-byte Reload
	ldr	r0, [sp, #20]                   @ 4-byte Reload
	ldr	r2, [sp, #24]                   @ 4-byte Reload
	.loc	10 286 43 is_stmt 1             @ lvgl/src/lv_core/lv_refr.c:286:43
	ldr	r0, [r0]
	.loc	10 286 9 is_stmt 0              @ lvgl/src/lv_core/lv_refr.c:286:9
	mov	r1, r2
	bl	lv_obj_set_style_local_pad_bottom
	ldr	r3, [sp, #16]                   @ 4-byte Reload
	ldr	r0, [sp, #20]                   @ 4-byte Reload
	ldr	r2, [sp, #24]                   @ 4-byte Reload
	.loc	10 287 41 is_stmt 1             @ lvgl/src/lv_core/lv_refr.c:287:41
	ldr	r0, [r0]
	.loc	10 287 9 is_stmt 0              @ lvgl/src/lv_core/lv_refr.c:287:9
	mov	r1, r2
	bl	lv_obj_set_style_local_pad_left
	ldr	r3, [sp, #16]                   @ 4-byte Reload
	ldr	r0, [sp, #20]                   @ 4-byte Reload
	ldr	r2, [sp, #24]                   @ 4-byte Reload
	.loc	10 288 42 is_stmt 1             @ lvgl/src/lv_core/lv_refr.c:288:42
	ldr	r0, [r0]
	.loc	10 288 9 is_stmt 0              @ lvgl/src/lv_core/lv_refr.c:288:9
	mov	r1, r2
	bl	lv_obj_set_style_local_pad_right
	ldr	r0, [sp, #20]                   @ 4-byte Reload
	.loc	10 289 27 is_stmt 1             @ lvgl/src/lv_core/lv_refr.c:289:27
	ldr	r0, [r0]
	.loc	10 289 9 is_stmt 0              @ lvgl/src/lv_core/lv_refr.c:289:9
	movw	r1, :lower16:.L.str
	movt	r1, :upper16:.L.str
	bl	lv_label_set_text
	ldr	r0, [sp, #20]                   @ 4-byte Reload
	ldr	r3, [sp, #24]                   @ 4-byte Reload
	.loc	10 290 22 is_stmt 1             @ lvgl/src/lv_core/lv_refr.c:290:22
	ldr	r0, [r0]
	.loc	10 290 9 is_stmt 0              @ lvgl/src/lv_core/lv_refr.c:290:9
	mov	r1, sp
	str	r3, [r1]
	movs	r2, #6
	mov	r1, r3
	bl	lv_obj_align
	.loc	10 291 5 is_stmt 1              @ lvgl/src/lv_core/lv_refr.c:291:5
	b	.LBB2_31
.Ltmp51:
.LBB2_31:
	.loc	10 296 22                       @ lvgl/src/lv_core/lv_refr.c:296:22
	movw	r0, :lower16:_lv_disp_refr_task.perf_last_time
	movt	r0, :upper16:_lv_disp_refr_task.perf_last_time
	ldr	r0, [r0]
	.loc	10 296 8 is_stmt 0              @ lvgl/src/lv_core/lv_refr.c:296:8
	bl	lv_tick_elaps
.Ltmp52:
	.loc	10 296 8                        @ lvgl/src/lv_core/lv_refr.c:296:8
	lsrs	r0, r0, #2
	cmp	r0, #74
	bhi	.LBB2_35
	b	.LBB2_32
.LBB2_32:
.Ltmp53:
	.loc	10 297 12 is_stmt 1             @ lvgl/src/lv_core/lv_refr.c:297:12
	movw	r0, :lower16:px_num
	movt	r0, :upper16:px_num
	ldr	r0, [r0]
	movw	r1, #5001
.Ltmp54:
	.loc	10 297 12 is_stmt 0             @ lvgl/src/lv_core/lv_refr.c:297:12
	cmp	r0, r1
	blo	.LBB2_34
	b	.LBB2_33
.LBB2_33:
.Ltmp55:
	.loc	10 298 26 is_stmt 1             @ lvgl/src/lv_core/lv_refr.c:298:26
	ldr	r2, [sp, #92]
	.loc	10 298 23 is_stmt 0             @ lvgl/src/lv_core/lv_refr.c:298:23
	movw	r1, :lower16:_lv_disp_refr_task.elaps_sum
	movt	r1, :upper16:_lv_disp_refr_task.elaps_sum
	ldr	r0, [r1]
	add	r0, r2
	str	r0, [r1]
	.loc	10 299 23 is_stmt 1             @ lvgl/src/lv_core/lv_refr.c:299:23
	movw	r1, :lower16:_lv_disp_refr_task.frame_cnt
	movt	r1, :upper16:_lv_disp_refr_task.frame_cnt
	ldr	r0, [r1]
	adds	r0, #1
	str	r0, [r1]
	.loc	10 300 9                        @ lvgl/src/lv_core/lv_refr.c:300:9
	b	.LBB2_34
.Ltmp56:
.LBB2_34:
	.loc	10 301 5                        @ lvgl/src/lv_core/lv_refr.c:301:5
	b	.LBB2_43
.Ltmp57:
.LBB2_35:
	.loc	10 303 26                       @ lvgl/src/lv_core/lv_refr.c:303:26
	bl	lv_tick_get
	.loc	10 303 24 is_stmt 0             @ lvgl/src/lv_core/lv_refr.c:303:24
	movw	r1, :lower16:_lv_disp_refr_task.perf_last_time
	movt	r1, :upper16:_lv_disp_refr_task.perf_last_time
	str	r0, [r1]
	.loc	10 304 37 is_stmt 1             @ lvgl/src/lv_core/lv_refr.c:304:37
	movw	r0, :lower16:disp_refr
	movt	r0, :upper16:disp_refr
	ldr	r0, [r0]
	.loc	10 304 48 is_stmt 0             @ lvgl/src/lv_core/lv_refr.c:304:48
	ldr	r0, [r0, #44]
	.loc	10 304 59                       @ lvgl/src/lv_core/lv_refr.c:304:59
	ldr	r1, [r0]
	mov.w	r0, #1000
	.loc	10 304 35                       @ lvgl/src/lv_core/lv_refr.c:304:35
	udiv	r0, r0, r1
	.loc	10 304 18                       @ lvgl/src/lv_core/lv_refr.c:304:18
	str	r0, [sp, #48]
.Ltmp58:
	.loc	10 307 12 is_stmt 1             @ lvgl/src/lv_core/lv_refr.c:307:12
	movw	r0, :lower16:_lv_disp_refr_task.elaps_sum
	movt	r0, :upper16:_lv_disp_refr_task.elaps_sum
	ldr	r0, [r0]
.Ltmp59:
	.loc	10 307 12 is_stmt 0             @ lvgl/src/lv_core/lv_refr.c:307:12
	cbnz	r0, .LBB2_37
	b	.LBB2_36
.LBB2_36:
.Ltmp60:
	.loc	10 307 38                       @ lvgl/src/lv_core/lv_refr.c:307:38
	movw	r1, :lower16:_lv_disp_refr_task.elaps_sum
	movt	r1, :upper16:_lv_disp_refr_task.elaps_sum
	movs	r0, #1
	str	r0, [r1]
	.loc	10 307 28                       @ lvgl/src/lv_core/lv_refr.c:307:28
	b	.LBB2_37
.Ltmp61:
.LBB2_37:
	.loc	10 308 12 is_stmt 1             @ lvgl/src/lv_core/lv_refr.c:308:12
	movw	r0, :lower16:_lv_disp_refr_task.frame_cnt
	movt	r0, :upper16:_lv_disp_refr_task.frame_cnt
	ldr	r0, [r0]
.Ltmp62:
	.loc	10 308 12 is_stmt 0             @ lvgl/src/lv_core/lv_refr.c:308:12
	cbnz	r0, .LBB2_39
	b	.LBB2_38
.LBB2_38:
.Ltmp63:
	.loc	10 308 34                       @ lvgl/src/lv_core/lv_refr.c:308:34
	ldr	r0, [sp, #48]
	.loc	10 308 32                       @ lvgl/src/lv_core/lv_refr.c:308:32
	str	r0, [sp, #44]
	.loc	10 308 28                       @ lvgl/src/lv_core/lv_refr.c:308:28
	b	.LBB2_40
.LBB2_39:
	.loc	10 309 28 is_stmt 1             @ lvgl/src/lv_core/lv_refr.c:309:28
	movw	r0, :lower16:_lv_disp_refr_task.frame_cnt
	movt	r0, :upper16:_lv_disp_refr_task.frame_cnt
	ldr	r0, [r0]
	mov.w	r1, #1000
	.loc	10 309 26 is_stmt 0             @ lvgl/src/lv_core/lv_refr.c:309:26
	muls	r0, r1, r0
	.loc	10 309 41                       @ lvgl/src/lv_core/lv_refr.c:309:41
	movw	r1, :lower16:_lv_disp_refr_task.elaps_sum
	movt	r1, :upper16:_lv_disp_refr_task.elaps_sum
	ldr	r1, [r1]
	.loc	10 309 39                       @ lvgl/src/lv_core/lv_refr.c:309:39
	udiv	r0, r0, r1
	.loc	10 309 18                       @ lvgl/src/lv_core/lv_refr.c:309:18
	str	r0, [sp, #44]
	b	.LBB2_40
.Ltmp64:
.LBB2_40:
	.loc	10 310 19 is_stmt 1             @ lvgl/src/lv_core/lv_refr.c:310:19
	movw	r1, :lower16:_lv_disp_refr_task.elaps_sum
	movt	r1, :upper16:_lv_disp_refr_task.elaps_sum
	movs	r0, #0
	str	r0, [r1]
	.loc	10 311 19                       @ lvgl/src/lv_core/lv_refr.c:311:19
	movw	r1, :lower16:_lv_disp_refr_task.frame_cnt
	movt	r1, :upper16:_lv_disp_refr_task.frame_cnt
	str	r0, [r1]
.Ltmp65:
	.loc	10 312 12                       @ lvgl/src/lv_core/lv_refr.c:312:12
	ldr	r0, [sp, #44]
	.loc	10 312 18 is_stmt 0             @ lvgl/src/lv_core/lv_refr.c:312:18
	ldr	r1, [sp, #48]
.Ltmp66:
	.loc	10 312 12                       @ lvgl/src/lv_core/lv_refr.c:312:12
	cmp	r0, r1
	bls	.LBB2_42
	b	.LBB2_41
.LBB2_41:
.Ltmp67:
	.loc	10 312 35                       @ lvgl/src/lv_core/lv_refr.c:312:35
	ldr	r0, [sp, #48]
	.loc	10 312 33                       @ lvgl/src/lv_core/lv_refr.c:312:33
	str	r0, [sp, #44]
	.loc	10 312 29                       @ lvgl/src/lv_core/lv_refr.c:312:29
	b	.LBB2_42
.Ltmp68:
.LBB2_42:
	.loc	10 314 24 is_stmt 1             @ lvgl/src/lv_core/lv_refr.c:314:24
	ldr	r2, [sp, #44]
	.loc	10 314 21 is_stmt 0             @ lvgl/src/lv_core/lv_refr.c:314:21
	movw	r1, :lower16:fps_sum_all
	movt	r1, :upper16:fps_sum_all
	ldr	r0, [r1]
	add	r0, r2
	str	r0, [r1]
	.loc	10 315 21 is_stmt 1             @ lvgl/src/lv_core/lv_refr.c:315:21
	movw	r1, :lower16:fps_sum_cnt
	movt	r1, :upper16:fps_sum_cnt
	ldr	r0, [r1]
	adds	r0, #1
	str	r0, [r1]
	.loc	10 316 30                       @ lvgl/src/lv_core/lv_refr.c:316:30
	bl	lv_task_get_idle
	.loc	10 316 28 is_stmt 0             @ lvgl/src/lv_core/lv_refr.c:316:28
	rsb.w	r0, r0, #100
	.loc	10 316 18                       @ lvgl/src/lv_core/lv_refr.c:316:18
	str	r0, [sp, #40]
	.loc	10 317 31 is_stmt 1             @ lvgl/src/lv_core/lv_refr.c:317:31
	movw	r0, :lower16:_lv_disp_refr_task.perf_label
	movt	r0, :upper16:_lv_disp_refr_task.perf_label
	str	r0, [sp, #8]                    @ 4-byte Spill
	ldr	r0, [r0]
	.loc	10 317 63 is_stmt 0             @ lvgl/src/lv_core/lv_refr.c:317:63
	ldr	r2, [sp, #44]
	.loc	10 317 68                       @ lvgl/src/lv_core/lv_refr.c:317:68
	ldr	r3, [sp, #40]
	.loc	10 317 9                        @ lvgl/src/lv_core/lv_refr.c:317:9
	movw	r1, :lower16:.L.str.1
	movt	r1, :upper16:.L.str.1
	bl	lv_label_set_text_fmt
	ldr	r0, [sp, #8]                    @ 4-byte Reload
	.loc	10 318 22 is_stmt 1             @ lvgl/src/lv_core/lv_refr.c:318:22
	ldr	r0, [r0]
	.loc	10 318 9 is_stmt 0              @ lvgl/src/lv_core/lv_refr.c:318:9
	mov	r1, sp
	movs	r3, #0
	str	r3, [r1]
	movs	r2, #6
	mov	r1, r3
	bl	lv_obj_align
	b	.LBB2_43
.Ltmp69:
.LBB2_43:
	.loc	10 323 1 is_stmt 1              @ lvgl/src/lv_core/lv_refr.c:323:1
	add	sp, #104
	pop	{r7, pc}
.Ltmp70:
.Lfunc_end2:
	.size	_lv_disp_refr_task, .Lfunc_end2-_lv_disp_refr_task
	.cfi_endproc
	.cantunwind
	.fnend
                                        @ -- End function
	.section	.text._lv_inv_area,"ax",%progbits
	.hidden	_lv_inv_area                    @ -- Begin function _lv_inv_area
	.globl	_lv_inv_area
	.p2align	3
	.type	_lv_inv_area,%function
	.code	16                              @ @_lv_inv_area
	.thumb_func
_lv_inv_area:
.Lfunc_begin3:
	.loc	10 107 0                        @ lvgl/src/lv_core/lv_refr.c:107:0
	.fnstart
	.cfi_startproc
@ %bb.0:
	.save	{r7, lr}
	push	{r7, lr}
	.cfi_def_cfa_offset 8
	.cfi_offset lr, -4
	.cfi_offset r7, -8
	.pad	#32
	sub	sp, #32
	.cfi_def_cfa_offset 40
	str	r0, [sp, #28]
	str	r1, [sp, #24]
.Ltmp71:
	.loc	10 108 9 prologue_end           @ lvgl/src/lv_core/lv_refr.c:108:9
	ldr	r0, [sp, #28]
.Ltmp72:
	.loc	10 108 8 is_stmt 0              @ lvgl/src/lv_core/lv_refr.c:108:8
	cbnz	r0, .LBB3_2
	b	.LBB3_1
.LBB3_1:
.Ltmp73:
	.loc	10 108 22                       @ lvgl/src/lv_core/lv_refr.c:108:22
	bl	lv_disp_get_default
	.loc	10 108 20                       @ lvgl/src/lv_core/lv_refr.c:108:20
	str	r0, [sp, #28]
	.loc	10 108 15                       @ lvgl/src/lv_core/lv_refr.c:108:15
	b	.LBB3_2
.Ltmp74:
.LBB3_2:
	.loc	10 109 9 is_stmt 1              @ lvgl/src/lv_core/lv_refr.c:109:9
	ldr	r0, [sp, #28]
.Ltmp75:
	.loc	10 109 8 is_stmt 0              @ lvgl/src/lv_core/lv_refr.c:109:8
	cbnz	r0, .LBB3_4
	b	.LBB3_3
.LBB3_3:
.Ltmp76:
	.loc	10 109 15                       @ lvgl/src/lv_core/lv_refr.c:109:15
	b	.LBB3_19
.Ltmp77:
.LBB3_4:
	.loc	10 112 8 is_stmt 1              @ lvgl/src/lv_core/lv_refr.c:112:8
	ldr	r0, [sp, #24]
.Ltmp78:
	.loc	10 112 8 is_stmt 0              @ lvgl/src/lv_core/lv_refr.c:112:8
	cbnz	r0, .LBB3_6
	b	.LBB3_5
.LBB3_5:
.Ltmp79:
	.loc	10 113 9 is_stmt 1              @ lvgl/src/lv_core/lv_refr.c:113:9
	ldr	r1, [sp, #28]
	.loc	10 113 21 is_stmt 0             @ lvgl/src/lv_core/lv_refr.c:113:21
	ldrh.w	r0, [r1, #382]
	and	r0, r0, #64512
	strh.w	r0, [r1, #382]
	.loc	10 114 9 is_stmt 1              @ lvgl/src/lv_core/lv_refr.c:114:9
	b	.LBB3_19
.Ltmp80:
.LBB3_6:
	.loc	10 0 9 is_stmt 0                @ lvgl/src/lv_core/lv_refr.c:0:9
	movs	r0, #0
	.loc	10 118 17 is_stmt 1             @ lvgl/src/lv_core/lv_refr.c:118:17
	strh.w	r0, [sp, #16]
	.loc	10 119 17                       @ lvgl/src/lv_core/lv_refr.c:119:17
	strh.w	r0, [sp, #18]
	.loc	10 120 39                       @ lvgl/src/lv_core/lv_refr.c:120:39
	ldr	r0, [sp, #28]
	.loc	10 120 19 is_stmt 0             @ lvgl/src/lv_core/lv_refr.c:120:19
	bl	lv_disp_get_hor_res
	.loc	10 120 45                       @ lvgl/src/lv_core/lv_refr.c:120:45
	subs	r0, #1
	.loc	10 120 17                       @ lvgl/src/lv_core/lv_refr.c:120:17
	strh.w	r0, [sp, #20]
	.loc	10 121 39 is_stmt 1             @ lvgl/src/lv_core/lv_refr.c:121:39
	ldr	r0, [sp, #28]
	.loc	10 121 19 is_stmt 0             @ lvgl/src/lv_core/lv_refr.c:121:19
	bl	lv_disp_get_ver_res
	.loc	10 121 45                       @ lvgl/src/lv_core/lv_refr.c:121:45
	subs	r0, #1
	.loc	10 121 17                       @ lvgl/src/lv_core/lv_refr.c:121:17
	strh.w	r0, [sp, #22]
	.loc	10 126 41 is_stmt 1             @ lvgl/src/lv_core/lv_refr.c:126:41
	ldr	r1, [sp, #24]
	add	r0, sp, #8
	add	r2, sp, #16
	.loc	10 126 11 is_stmt 0             @ lvgl/src/lv_core/lv_refr.c:126:11
	bl	_lv_area_intersect
	.loc	10 126 9                        @ lvgl/src/lv_core/lv_refr.c:126:9
	strb.w	r0, [sp, #7]
.Ltmp81:
	.loc	10 129 8 is_stmt 1              @ lvgl/src/lv_core/lv_refr.c:129:8
	ldrb.w	r0, [sp, #7]
.Ltmp82:
	.loc	10 129 8 is_stmt 0              @ lvgl/src/lv_core/lv_refr.c:129:8
	lsls	r0, r0, #31
	cmp	r0, #0
	beq	.LBB3_19
	b	.LBB3_7
.LBB3_7:
.Ltmp83:
	.loc	10 130 12 is_stmt 1             @ lvgl/src/lv_core/lv_refr.c:130:12
	ldr	r0, [sp, #28]
	.loc	10 130 25 is_stmt 0             @ lvgl/src/lv_core/lv_refr.c:130:25
	ldr	r0, [r0, #16]
.Ltmp84:
	.loc	10 130 12                       @ lvgl/src/lv_core/lv_refr.c:130:12
	cbz	r0, .LBB3_9
	b	.LBB3_8
.LBB3_8:
.Ltmp85:
	.loc	10 131 4 is_stmt 1              @ lvgl/src/lv_core/lv_refr.c:131:4
	ldr	r0, [sp, #28]
	.loc	10 131 17 is_stmt 0             @ lvgl/src/lv_core/lv_refr.c:131:17
	ldr	r2, [r0, #16]
	add	r1, sp, #8
	.loc	10 131 4                        @ lvgl/src/lv_core/lv_refr.c:131:4
	blx	r2
	b	.LBB3_9
.Ltmp86:
.LBB3_9:
	.loc	10 0 4                          @ lvgl/src/lv_core/lv_refr.c:0:4
	movs	r0, #0
.Ltmp87:
	.loc	10 135 15 is_stmt 1             @ lvgl/src/lv_core/lv_refr.c:135:15
	strh.w	r0, [sp, #4]
	.loc	10 135 13 is_stmt 0             @ lvgl/src/lv_core/lv_refr.c:135:13
	b	.LBB3_10
.LBB3_10:                               @ =>This Inner Loop Header: Depth=1
.Ltmp88:
	.loc	10 135 20                       @ lvgl/src/lv_core/lv_refr.c:135:20
	ldrh.w	r0, [sp, #4]
	.loc	10 135 24                       @ lvgl/src/lv_core/lv_refr.c:135:24
	ldr	r1, [sp, #28]
	.loc	10 135 30                       @ lvgl/src/lv_core/lv_refr.c:135:30
	ldrh.w	r1, [r1, #382]
	bfc	r1, #10, #22
.Ltmp89:
	.loc	10 135 9                        @ lvgl/src/lv_core/lv_refr.c:135:9
	cmp	r0, r1
	bge	.LBB3_15
	b	.LBB3_11
.LBB3_11:                               @   in Loop: Header=BB3_10 Depth=1
.Ltmp90:
	.loc	10 136 43 is_stmt 1             @ lvgl/src/lv_core/lv_refr.c:136:43
	ldr	r0, [sp, #28]
	.loc	10 136 59 is_stmt 0             @ lvgl/src/lv_core/lv_refr.c:136:59
	ldrh.w	r1, [sp, #4]
	.loc	10 136 49                       @ lvgl/src/lv_core/lv_refr.c:136:49
	add.w	r0, r0, r1, lsl #3
	.loc	10 136 43                       @ lvgl/src/lv_core/lv_refr.c:136:43
	add.w	r1, r0, #94
	add	r0, sp, #8
	movs	r2, #0
	.loc	10 136 16                       @ lvgl/src/lv_core/lv_refr.c:136:16
	bl	_lv_area_is_in
.Ltmp91:
	.loc	10 136 16                       @ lvgl/src/lv_core/lv_refr.c:136:16
	cbz	r0, .LBB3_13
	b	.LBB3_12
.LBB3_12:
.Ltmp92:
	.loc	10 136 76                       @ lvgl/src/lv_core/lv_refr.c:136:76
	b	.LBB3_19
.Ltmp93:
.LBB3_13:                               @   in Loop: Header=BB3_10 Depth=1
	.loc	10 137 9 is_stmt 1              @ lvgl/src/lv_core/lv_refr.c:137:9
	b	.LBB3_14
.Ltmp94:
.LBB3_14:                               @   in Loop: Header=BB3_10 Depth=1
	.loc	10 135 38                       @ lvgl/src/lv_core/lv_refr.c:135:38
	ldrh.w	r0, [sp, #4]
	adds	r0, #1
	strh.w	r0, [sp, #4]
	.loc	10 135 9 is_stmt 0              @ lvgl/src/lv_core/lv_refr.c:135:9
	b	.LBB3_10
.Ltmp95:
.LBB3_15:
	.loc	10 140 12 is_stmt 1             @ lvgl/src/lv_core/lv_refr.c:140:12
	ldr	r0, [sp, #28]
	.loc	10 140 18 is_stmt 0             @ lvgl/src/lv_core/lv_refr.c:140:18
	ldrh.w	r0, [r0, #382]
	bfc	r0, #10, #22
.Ltmp96:
	.loc	10 140 12                       @ lvgl/src/lv_core/lv_refr.c:140:12
	cmp	r0, #31
	bgt	.LBB3_17
	b	.LBB3_16
.LBB3_16:
.Ltmp97:
	.loc	10 141 27 is_stmt 1             @ lvgl/src/lv_core/lv_refr.c:141:27
	ldr	r0, [sp, #28]
	.loc	10 141 49 is_stmt 0             @ lvgl/src/lv_core/lv_refr.c:141:49
	ldrh.w	r1, [r0, #382]
	bfc	r1, #10, #22
	.loc	10 141 33                       @ lvgl/src/lv_core/lv_refr.c:141:33
	add.w	r0, r0, r1, lsl #3
	.loc	10 141 27                       @ lvgl/src/lv_core/lv_refr.c:141:27
	adds	r0, #94
	add	r1, sp, #8
	.loc	10 141 13                       @ lvgl/src/lv_core/lv_refr.c:141:13
	bl	lv_area_copy
	.loc	10 142 9 is_stmt 1              @ lvgl/src/lv_core/lv_refr.c:142:9
	b	.LBB3_18
.Ltmp98:
.LBB3_17:
	.loc	10 144 13                       @ lvgl/src/lv_core/lv_refr.c:144:13
	ldr	r1, [sp, #28]
	.loc	10 144 25 is_stmt 0             @ lvgl/src/lv_core/lv_refr.c:144:25
	ldrh.w	r0, [r1, #382]
	and	r0, r0, #64512
	strh.w	r0, [r1, #382]
	.loc	10 145 27 is_stmt 1             @ lvgl/src/lv_core/lv_refr.c:145:27
	ldr	r0, [sp, #28]
	.loc	10 145 49 is_stmt 0             @ lvgl/src/lv_core/lv_refr.c:145:49
	ldrh.w	r1, [r0, #382]
	bfc	r1, #10, #22
	.loc	10 145 33                       @ lvgl/src/lv_core/lv_refr.c:145:33
	add.w	r0, r0, r1, lsl #3
	.loc	10 145 27                       @ lvgl/src/lv_core/lv_refr.c:145:27
	adds	r0, #94
	add	r1, sp, #16
	.loc	10 145 13                       @ lvgl/src/lv_core/lv_refr.c:145:13
	bl	lv_area_copy
	b	.LBB3_18
.Ltmp99:
.LBB3_18:
	.loc	10 147 9 is_stmt 1              @ lvgl/src/lv_core/lv_refr.c:147:9
	ldr	r1, [sp, #28]
	.loc	10 147 20 is_stmt 0             @ lvgl/src/lv_core/lv_refr.c:147:20
	ldrh.w	r0, [r1, #382]
	adds	r2, r0, #1
	bfc	r2, #10, #22
	and	r0, r0, #64512
	add	r0, r2
	strh.w	r0, [r1, #382]
	.loc	10 148 26 is_stmt 1             @ lvgl/src/lv_core/lv_refr.c:148:26
	ldr	r0, [sp, #28]
	.loc	10 148 32 is_stmt 0             @ lvgl/src/lv_core/lv_refr.c:148:32
	ldr	r0, [r0, #44]
	movs	r1, #3
	.loc	10 148 9                        @ lvgl/src/lv_core/lv_refr.c:148:9
	bl	lv_task_set_prio
	.loc	10 149 5 is_stmt 1              @ lvgl/src/lv_core/lv_refr.c:149:5
	b	.LBB3_19
.Ltmp100:
.LBB3_19:
	.loc	10 150 1                        @ lvgl/src/lv_core/lv_refr.c:150:1
	add	sp, #32
	pop	{r7, pc}
.Ltmp101:
.Lfunc_end3:
	.size	_lv_inv_area, .Lfunc_end3-_lv_inv_area
	.cfi_endproc
	.cantunwind
	.fnend
                                        @ -- End function
	.section	.text.lv_area_copy,"ax",%progbits
	.p2align	3                               @ -- Begin function lv_area_copy
	.type	lv_area_copy,%function
	.code	16                              @ @lv_area_copy
	.thumb_func
lv_area_copy:
.Lfunc_begin4:
	.loc	5 98 0                          @ lvgl/src/lv_core/../lv_gpu/../lv_misc/lv_area.h:98:0
	.fnstart
	.cfi_startproc
@ %bb.0:
	.save	{r7, lr}
	push	{r7, lr}
	.cfi_def_cfa_offset 8
	.cfi_offset lr, -4
	.cfi_offset r7, -8
	.pad	#8
	sub	sp, #8
	.cfi_def_cfa_offset 16
	str	r0, [sp, #4]
	str	r1, [sp]
.Ltmp102:
	.loc	5 99 22 prologue_end            @ lvgl/src/lv_core/../lv_gpu/../lv_misc/lv_area.h:99:22
	ldr	r0, [sp, #4]
	.loc	5 99 28 is_stmt 0               @ lvgl/src/lv_core/../lv_gpu/../lv_misc/lv_area.h:99:28
	ldr	r1, [sp]
	movs	r2, #8
	.loc	5 99 5                          @ lvgl/src/lv_core/../lv_gpu/../lv_misc/lv_area.h:99:5
	bl	_lv_memcpy_small
	.loc	5 100 1 is_stmt 1               @ lvgl/src/lv_core/../lv_gpu/../lv_misc/lv_area.h:100:1
	add	sp, #8
	pop	{r7, pc}
.Ltmp103:
.Lfunc_end4:
	.size	lv_area_copy, .Lfunc_end4-lv_area_copy
	.cfi_endproc
	.cantunwind
	.fnend
                                        @ -- End function
	.section	.text._lv_refr_get_disp_refreshing,"ax",%progbits
	.hidden	_lv_refr_get_disp_refreshing    @ -- Begin function _lv_refr_get_disp_refreshing
	.globl	_lv_refr_get_disp_refreshing
	.p2align	3
	.type	_lv_refr_get_disp_refreshing,%function
	.code	16                              @ @_lv_refr_get_disp_refreshing
	.thumb_func
_lv_refr_get_disp_refreshing:
.Lfunc_begin5:
	.loc	10 157 0                        @ lvgl/src/lv_core/lv_refr.c:157:0
	.fnstart
	.cfi_startproc
@ %bb.0:
	.loc	10 158 12 prologue_end          @ lvgl/src/lv_core/lv_refr.c:158:12
	movw	r0, :lower16:disp_refr
	movt	r0, :upper16:disp_refr
	ldr	r0, [r0]
	.loc	10 158 5 is_stmt 0              @ lvgl/src/lv_core/lv_refr.c:158:5
	bx	lr
.Ltmp104:
.Lfunc_end5:
	.size	_lv_refr_get_disp_refreshing, .Lfunc_end5-_lv_refr_get_disp_refreshing
	.cfi_endproc
	.cantunwind
	.fnend
                                        @ -- End function
	.section	.text._lv_refr_set_disp_refreshing,"ax",%progbits
	.hidden	_lv_refr_set_disp_refreshing    @ -- Begin function _lv_refr_set_disp_refreshing
	.globl	_lv_refr_set_disp_refreshing
	.p2align	3
	.type	_lv_refr_set_disp_refreshing,%function
	.code	16                              @ @_lv_refr_set_disp_refreshing
	.thumb_func
_lv_refr_set_disp_refreshing:
.Lfunc_begin6:
	.loc	10 168 0 is_stmt 1              @ lvgl/src/lv_core/lv_refr.c:168:0
	.fnstart
	.cfi_startproc
@ %bb.0:
	.pad	#4
	sub	sp, #4
	.cfi_def_cfa_offset 4
	str	r0, [sp]
.Ltmp105:
	.loc	10 169 17 prologue_end          @ lvgl/src/lv_core/lv_refr.c:169:17
	ldr	r0, [sp]
	.loc	10 169 15 is_stmt 0             @ lvgl/src/lv_core/lv_refr.c:169:15
	movw	r1, :lower16:disp_refr
	movt	r1, :upper16:disp_refr
	str	r0, [r1]
	.loc	10 170 1 is_stmt 1              @ lvgl/src/lv_core/lv_refr.c:170:1
	add	sp, #4
	bx	lr
.Ltmp106:
.Lfunc_end6:
	.size	_lv_refr_set_disp_refreshing, .Lfunc_end6-_lv_refr_set_disp_refreshing
	.cfi_endproc
	.cantunwind
	.fnend
                                        @ -- End function
	.section	.text.lv_refr_join_area,"ax",%progbits
	.p2align	3                               @ -- Begin function lv_refr_join_area
	.type	lv_refr_join_area,%function
	.code	16                              @ @lv_refr_join_area
	.thumb_func
lv_refr_join_area:
.Lfunc_begin7:
	.loc	10 340 0                        @ lvgl/src/lv_core/lv_refr.c:340:0
	.fnstart
	.cfi_startproc
@ %bb.0:
	.save	{r7, lr}
	push	{r7, lr}
	.cfi_def_cfa_offset 8
	.cfi_offset lr, -4
	.cfi_offset r7, -8
	.pad	#40
	sub	sp, #40
	.cfi_def_cfa_offset 48
	movs	r0, #0
.Ltmp107:
	.loc	10 344 17 prologue_end          @ lvgl/src/lv_core/lv_refr.c:344:17
	str	r0, [sp, #32]
	.loc	10 344 9 is_stmt 0              @ lvgl/src/lv_core/lv_refr.c:344:9
	b	.LBB7_1
.LBB7_1:                                @ =>This Loop Header: Depth=1
                                        @     Child Loop BB7_5 Depth 2
.Ltmp108:
	.loc	10 344 22                       @ lvgl/src/lv_core/lv_refr.c:344:22
	ldr	r0, [sp, #32]
	.loc	10 344 32                       @ lvgl/src/lv_core/lv_refr.c:344:32
	movw	r1, :lower16:disp_refr
	movt	r1, :upper16:disp_refr
	ldr	r1, [r1]
	.loc	10 344 43                       @ lvgl/src/lv_core/lv_refr.c:344:43
	ldrh.w	r1, [r1, #382]
	bfc	r1, #10, #22
.Ltmp109:
	.loc	10 344 5                        @ lvgl/src/lv_core/lv_refr.c:344:5
	cmp	r0, r1
	bhs.w	.LBB7_17
	b	.LBB7_2
.LBB7_2:                                @   in Loop: Header=BB7_1 Depth=1
.Ltmp110:
	.loc	10 345 12 is_stmt 1             @ lvgl/src/lv_core/lv_refr.c:345:12
	movw	r0, :lower16:disp_refr
	movt	r0, :upper16:disp_refr
	ldr	r0, [r0]
	.loc	10 345 39 is_stmt 0             @ lvgl/src/lv_core/lv_refr.c:345:39
	ldr	r1, [sp, #32]
	.loc	10 345 23                       @ lvgl/src/lv_core/lv_refr.c:345:23
	add	r0, r1
	.loc	10 345 12                       @ lvgl/src/lv_core/lv_refr.c:345:12
	ldrb.w	r0, [r0, #350]
.Ltmp111:
	.loc	10 345 12                       @ lvgl/src/lv_core/lv_refr.c:345:12
	cbz	r0, .LBB7_4
	b	.LBB7_3
.LBB7_3:                                @   in Loop: Header=BB7_1 Depth=1
.Ltmp112:
	.loc	10 345 54                       @ lvgl/src/lv_core/lv_refr.c:345:54
	b	.LBB7_16
.Ltmp113:
.LBB7_4:                                @   in Loop: Header=BB7_1 Depth=1
	.loc	10 0 54                         @ lvgl/src/lv_core/lv_refr.c:0:54
	movs	r0, #0
.Ltmp114:
	.loc	10 348 23 is_stmt 1             @ lvgl/src/lv_core/lv_refr.c:348:23
	str	r0, [sp, #36]
	.loc	10 348 13 is_stmt 0             @ lvgl/src/lv_core/lv_refr.c:348:13
	b	.LBB7_5
.LBB7_5:                                @   Parent Loop BB7_1 Depth=1
                                        @ =>  This Inner Loop Header: Depth=2
.Ltmp115:
	.loc	10 348 28                       @ lvgl/src/lv_core/lv_refr.c:348:28
	ldr	r0, [sp, #36]
	.loc	10 348 40                       @ lvgl/src/lv_core/lv_refr.c:348:40
	movw	r1, :lower16:disp_refr
	movt	r1, :upper16:disp_refr
	ldr	r1, [r1]
	.loc	10 348 51                       @ lvgl/src/lv_core/lv_refr.c:348:51
	ldrh.w	r1, [r1, #382]
	bfc	r1, #10, #22
.Ltmp116:
	.loc	10 348 9                        @ lvgl/src/lv_core/lv_refr.c:348:9
	cmp	r0, r1
	bhs	.LBB7_15
	b	.LBB7_6
.LBB7_6:                                @   in Loop: Header=BB7_5 Depth=2
.Ltmp117:
	.loc	10 350 16 is_stmt 1             @ lvgl/src/lv_core/lv_refr.c:350:16
	movw	r0, :lower16:disp_refr
	movt	r0, :upper16:disp_refr
	ldr	r0, [r0]
	.loc	10 350 43 is_stmt 0             @ lvgl/src/lv_core/lv_refr.c:350:43
	ldr	r1, [sp, #36]
	.loc	10 350 27                       @ lvgl/src/lv_core/lv_refr.c:350:27
	add	r0, r1
	.loc	10 350 16                       @ lvgl/src/lv_core/lv_refr.c:350:16
	ldrb.w	r0, [r0, #350]
	.loc	10 350 59                       @ lvgl/src/lv_core/lv_refr.c:350:59
	cbnz	r0, .LBB7_8
	b	.LBB7_7
.LBB7_7:                                @   in Loop: Header=BB7_5 Depth=2
	.loc	10 350 62                       @ lvgl/src/lv_core/lv_refr.c:350:62
	ldr	r0, [sp, #32]
	.loc	10 350 73                       @ lvgl/src/lv_core/lv_refr.c:350:73
	ldr	r1, [sp, #36]
.Ltmp118:
	.loc	10 350 16                       @ lvgl/src/lv_core/lv_refr.c:350:16
	cmp	r0, r1
	bne	.LBB7_9
	b	.LBB7_8
.LBB7_8:                                @   in Loop: Header=BB7_5 Depth=2
.Ltmp119:
	.loc	10 351 17 is_stmt 1             @ lvgl/src/lv_core/lv_refr.c:351:17
	b	.LBB7_14
.Ltmp120:
.LBB7_9:                                @   in Loop: Header=BB7_5 Depth=2
	.loc	10 355 32                       @ lvgl/src/lv_core/lv_refr.c:355:32
	movw	r0, :lower16:disp_refr
	movt	r0, :upper16:disp_refr
	ldr	r0, [r0]
	.loc	10 355 43 is_stmt 0             @ lvgl/src/lv_core/lv_refr.c:355:43
	add.w	r1, r0, #94
	.loc	10 355 53                       @ lvgl/src/lv_core/lv_refr.c:355:53
	ldr	r0, [sp, #32]
	.loc	10 355 32                       @ lvgl/src/lv_core/lv_refr.c:355:32
	add.w	r0, r1, r0, lsl #3
	.loc	10 355 85                       @ lvgl/src/lv_core/lv_refr.c:355:85
	ldr	r2, [sp, #36]
	.loc	10 355 64                       @ lvgl/src/lv_core/lv_refr.c:355:64
	add.w	r1, r1, r2, lsl #3
	.loc	10 355 16                       @ lvgl/src/lv_core/lv_refr.c:355:16
	bl	_lv_area_is_on
.Ltmp121:
	.loc	10 355 16                       @ lvgl/src/lv_core/lv_refr.c:355:16
	cbnz	r0, .LBB7_11
	b	.LBB7_10
.LBB7_10:                               @   in Loop: Header=BB7_5 Depth=2
.Ltmp122:
	.loc	10 356 17 is_stmt 1             @ lvgl/src/lv_core/lv_refr.c:356:17
	b	.LBB7_14
.Ltmp123:
.LBB7_11:                               @   in Loop: Header=BB7_5 Depth=2
	.loc	10 359 42                       @ lvgl/src/lv_core/lv_refr.c:359:42
	movw	r0, :lower16:disp_refr
	movt	r0, :upper16:disp_refr
	str	r0, [sp, #12]                   @ 4-byte Spill
	ldr	r0, [r0]
	.loc	10 359 53 is_stmt 0             @ lvgl/src/lv_core/lv_refr.c:359:53
	adds	r0, #94
	.loc	10 359 63                       @ lvgl/src/lv_core/lv_refr.c:359:63
	ldr	r1, [sp, #32]
	.loc	10 359 42                       @ lvgl/src/lv_core/lv_refr.c:359:42
	add.w	r1, r0, r1, lsl #3
	.loc	10 359 95                       @ lvgl/src/lv_core/lv_refr.c:359:95
	ldr	r2, [sp, #36]
	.loc	10 359 74                       @ lvgl/src/lv_core/lv_refr.c:359:74
	add.w	r2, r0, r2, lsl #3
	add	r0, sp, #24
	.loc	10 359 13                       @ lvgl/src/lv_core/lv_refr.c:359:13
	str	r0, [sp, #8]                    @ 4-byte Spill
	bl	_lv_area_join
	ldr	r0, [sp, #8]                    @ 4-byte Reload
.Ltmp124:
	.loc	10 362 16 is_stmt 1             @ lvgl/src/lv_core/lv_refr.c:362:16
	bl	lv_area_get_size
	mov	r1, r0
	.loc	10 362 68 is_stmt 0             @ lvgl/src/lv_core/lv_refr.c:362:68
	ldr	r0, [sp, #12]                   @ 4-byte Reload
	str	r1, [sp, #20]                   @ 4-byte Spill
	ldr	r0, [r0]
	.loc	10 362 89                       @ lvgl/src/lv_core/lv_refr.c:362:89
	ldr	r1, [sp, #32]
	.loc	10 362 79                       @ lvgl/src/lv_core/lv_refr.c:362:79
	add.w	r0, r0, r1, lsl #3
	.loc	10 362 68                       @ lvgl/src/lv_core/lv_refr.c:362:68
	adds	r0, #94
	.loc	10 362 50                       @ lvgl/src/lv_core/lv_refr.c:362:50
	bl	lv_area_get_size
	mov	r1, r0
	.loc	10 363 68 is_stmt 1             @ lvgl/src/lv_core/lv_refr.c:363:68
	ldr	r0, [sp, #12]                   @ 4-byte Reload
	str	r1, [sp, #16]                   @ 4-byte Spill
	ldr	r0, [r0]
	.loc	10 363 89 is_stmt 0             @ lvgl/src/lv_core/lv_refr.c:363:89
	ldr	r1, [sp, #36]
	.loc	10 363 79                       @ lvgl/src/lv_core/lv_refr.c:363:79
	add.w	r0, r0, r1, lsl #3
	.loc	10 363 68                       @ lvgl/src/lv_core/lv_refr.c:363:68
	adds	r0, #94
	.loc	10 363 50                       @ lvgl/src/lv_core/lv_refr.c:363:50
	bl	lv_area_get_size
	ldr	r1, [sp, #16]                   @ 4-byte Reload
	mov	r2, r0
	.loc	10 362 99 is_stmt 1             @ lvgl/src/lv_core/lv_refr.c:362:99
	ldr	r0, [sp, #20]                   @ 4-byte Reload
	add	r1, r2
.Ltmp125:
	.loc	10 362 16 is_stmt 0             @ lvgl/src/lv_core/lv_refr.c:362:16
	cmp	r0, r1
	bhs	.LBB7_13
	b	.LBB7_12
.LBB7_12:                               @   in Loop: Header=BB7_5 Depth=2
.Ltmp126:
	.loc	10 364 31 is_stmt 1             @ lvgl/src/lv_core/lv_refr.c:364:31
	movw	r0, :lower16:disp_refr
	movt	r0, :upper16:disp_refr
	str	r0, [sp, #4]                    @ 4-byte Spill
	ldr	r0, [r0]
	.loc	10 364 52 is_stmt 0             @ lvgl/src/lv_core/lv_refr.c:364:52
	ldr	r1, [sp, #32]
	.loc	10 364 42                       @ lvgl/src/lv_core/lv_refr.c:364:42
	add.w	r0, r0, r1, lsl #3
	.loc	10 364 31                       @ lvgl/src/lv_core/lv_refr.c:364:31
	adds	r0, #94
	add	r1, sp, #24
	.loc	10 364 17                       @ lvgl/src/lv_core/lv_refr.c:364:17
	bl	lv_area_copy
	ldr	r0, [sp, #4]                    @ 4-byte Reload
	.loc	10 367 17 is_stmt 1             @ lvgl/src/lv_core/lv_refr.c:367:17
	ldr	r0, [r0]
	.loc	10 367 44 is_stmt 0             @ lvgl/src/lv_core/lv_refr.c:367:44
	ldr	r1, [sp, #36]
	.loc	10 367 28                       @ lvgl/src/lv_core/lv_refr.c:367:28
	add	r1, r0
	movs	r0, #1
	.loc	10 367 55                       @ lvgl/src/lv_core/lv_refr.c:367:55
	strb.w	r0, [r1, #350]
	.loc	10 368 13 is_stmt 1             @ lvgl/src/lv_core/lv_refr.c:368:13
	b	.LBB7_13
.Ltmp127:
.LBB7_13:                               @   in Loop: Header=BB7_5 Depth=2
	.loc	10 369 9                        @ lvgl/src/lv_core/lv_refr.c:369:9
	b	.LBB7_14
.Ltmp128:
.LBB7_14:                               @   in Loop: Header=BB7_5 Depth=2
	.loc	10 348 67                       @ lvgl/src/lv_core/lv_refr.c:348:67
	ldr	r0, [sp, #36]
	adds	r0, #1
	str	r0, [sp, #36]
	.loc	10 348 9 is_stmt 0              @ lvgl/src/lv_core/lv_refr.c:348:9
	b	.LBB7_5
.Ltmp129:
.LBB7_15:                               @   in Loop: Header=BB7_1 Depth=1
	.loc	10 370 5 is_stmt 1              @ lvgl/src/lv_core/lv_refr.c:370:5
	b	.LBB7_16
.Ltmp130:
.LBB7_16:                               @   in Loop: Header=BB7_1 Depth=1
	.loc	10 344 57                       @ lvgl/src/lv_core/lv_refr.c:344:57
	ldr	r0, [sp, #32]
	adds	r0, #1
	str	r0, [sp, #32]
	.loc	10 344 5 is_stmt 0              @ lvgl/src/lv_core/lv_refr.c:344:5
	b	.LBB7_1
.Ltmp131:
.LBB7_17:
	.loc	10 371 1 is_stmt 1              @ lvgl/src/lv_core/lv_refr.c:371:1
	add	sp, #40
	pop	{r7, pc}
.Ltmp132:
.Lfunc_end7:
	.size	lv_refr_join_area, .Lfunc_end7-lv_refr_join_area
	.cfi_endproc
	.cantunwind
	.fnend
                                        @ -- End function
	.section	.text.lv_refr_areas,"ax",%progbits
	.p2align	3                               @ -- Begin function lv_refr_areas
	.type	lv_refr_areas,%function
	.code	16                              @ @lv_refr_areas
	.thumb_func
lv_refr_areas:
.Lfunc_begin8:
	.loc	10 377 0                        @ lvgl/src/lv_core/lv_refr.c:377:0
	.fnstart
	.cfi_startproc
@ %bb.0:
	.save	{r7, lr}
	push	{r7, lr}
	.cfi_def_cfa_offset 8
	.cfi_offset lr, -4
	.cfi_offset r7, -8
	.pad	#16
	sub	sp, #16
	.cfi_def_cfa_offset 24
.Ltmp133:
	.loc	10 378 12 prologue_end          @ lvgl/src/lv_core/lv_refr.c:378:12
	movw	r1, :lower16:px_num
	movt	r1, :upper16:px_num
	movs	r0, #0
	str	r0, [r1]
.Ltmp134:
	.loc	10 380 8                        @ lvgl/src/lv_core/lv_refr.c:380:8
	movw	r0, :lower16:disp_refr
	movt	r0, :upper16:disp_refr
	ldr	r0, [r0]
	.loc	10 380 19 is_stmt 0             @ lvgl/src/lv_core/lv_refr.c:380:19
	ldrh.w	r0, [r0, #382]
.Ltmp135:
	.loc	10 380 8                        @ lvgl/src/lv_core/lv_refr.c:380:8
	lsls	r0, r0, #22
	cbnz	r0, .LBB8_2
	b	.LBB8_1
.LBB8_1:
.Ltmp136:
	.loc	10 380 31                       @ lvgl/src/lv_core/lv_refr.c:380:31
	b	.LBB8_16
.Ltmp137:
.LBB8_2:
	.loc	10 0 31                         @ lvgl/src/lv_core/lv_refr.c:0:31
	movs	r0, #0
	.loc	10 384 13 is_stmt 1             @ lvgl/src/lv_core/lv_refr.c:384:13
	str	r0, [sp, #8]
.Ltmp138:
	.loc	10 385 13                       @ lvgl/src/lv_core/lv_refr.c:385:13
	movw	r0, :lower16:disp_refr
	movt	r0, :upper16:disp_refr
	ldr	r0, [r0]
	.loc	10 385 24 is_stmt 0             @ lvgl/src/lv_core/lv_refr.c:385:24
	ldrh.w	r0, [r0, #382]
	bfc	r0, #10, #22
	.loc	10 385 30                       @ lvgl/src/lv_core/lv_refr.c:385:30
	subs	r0, #1
	.loc	10 385 11                       @ lvgl/src/lv_core/lv_refr.c:385:11
	str	r0, [sp, #12]
	.loc	10 385 9                        @ lvgl/src/lv_core/lv_refr.c:385:9
	b	.LBB8_3
.LBB8_3:                                @ =>This Inner Loop Header: Depth=1
.Ltmp139:
	.loc	10 385 35                       @ lvgl/src/lv_core/lv_refr.c:385:35
	ldr	r0, [sp, #12]
.Ltmp140:
	.loc	10 385 5                        @ lvgl/src/lv_core/lv_refr.c:385:5
	cmp	r0, #0
	bmi	.LBB8_8
	b	.LBB8_4
.LBB8_4:                                @   in Loop: Header=BB8_3 Depth=1
.Ltmp141:
	.loc	10 386 12 is_stmt 1             @ lvgl/src/lv_core/lv_refr.c:386:12
	movw	r0, :lower16:disp_refr
	movt	r0, :upper16:disp_refr
	ldr	r0, [r0]
	.loc	10 386 39 is_stmt 0             @ lvgl/src/lv_core/lv_refr.c:386:39
	ldr	r1, [sp, #12]
	.loc	10 386 23                       @ lvgl/src/lv_core/lv_refr.c:386:23
	add	r0, r1
	.loc	10 386 12                       @ lvgl/src/lv_core/lv_refr.c:386:12
	ldrb.w	r0, [r0, #350]
.Ltmp142:
	.loc	10 386 12                       @ lvgl/src/lv_core/lv_refr.c:386:12
	cbnz	r0, .LBB8_6
	b	.LBB8_5
.LBB8_5:
.Ltmp143:
	.loc	10 387 22 is_stmt 1             @ lvgl/src/lv_core/lv_refr.c:387:22
	ldr	r0, [sp, #12]
	.loc	10 387 20 is_stmt 0             @ lvgl/src/lv_core/lv_refr.c:387:20
	str	r0, [sp, #8]
	.loc	10 388 13 is_stmt 1             @ lvgl/src/lv_core/lv_refr.c:388:13
	b	.LBB8_8
.Ltmp144:
.LBB8_6:                                @   in Loop: Header=BB8_3 Depth=1
	.loc	10 390 5                        @ lvgl/src/lv_core/lv_refr.c:390:5
	b	.LBB8_7
.Ltmp145:
.LBB8_7:                                @   in Loop: Header=BB8_3 Depth=1
	.loc	10 385 44                       @ lvgl/src/lv_core/lv_refr.c:385:44
	ldr	r0, [sp, #12]
	subs	r0, #1
	str	r0, [sp, #12]
	.loc	10 385 5 is_stmt 0              @ lvgl/src/lv_core/lv_refr.c:385:5
	b	.LBB8_3
.Ltmp146:
.LBB8_8:
	.loc	10 392 5 is_stmt 1              @ lvgl/src/lv_core/lv_refr.c:392:5
	movw	r0, :lower16:disp_refr
	movt	r0, :upper16:disp_refr
	ldr	r1, [r0]
	.loc	10 392 23 is_stmt 0             @ lvgl/src/lv_core/lv_refr.c:392:23
	ldr	r2, [r1, #4]
	.loc	10 392 41                       @ lvgl/src/lv_core/lv_refr.c:392:41
	ldr	r1, [r2, #32]
	bic	r1, r1, #1
	str	r1, [r2, #32]
	.loc	10 393 5 is_stmt 1              @ lvgl/src/lv_core/lv_refr.c:393:5
	ldr	r0, [r0]
	.loc	10 393 23 is_stmt 0             @ lvgl/src/lv_core/lv_refr.c:393:23
	ldr	r1, [r0, #4]
	.loc	10 393 41                       @ lvgl/src/lv_core/lv_refr.c:393:41
	ldr	r0, [r1, #32]
	bic	r0, r0, #2
	str	r0, [r1, #32]
	movs	r0, #0
.Ltmp147:
	.loc	10 395 11 is_stmt 1             @ lvgl/src/lv_core/lv_refr.c:395:11
	str	r0, [sp, #12]
	.loc	10 395 9 is_stmt 0              @ lvgl/src/lv_core/lv_refr.c:395:9
	b	.LBB8_9
.LBB8_9:                                @ =>This Inner Loop Header: Depth=1
.Ltmp148:
	.loc	10 395 16                       @ lvgl/src/lv_core/lv_refr.c:395:16
	ldr	r0, [sp, #12]
	.loc	10 395 20                       @ lvgl/src/lv_core/lv_refr.c:395:20
	movw	r1, :lower16:disp_refr
	movt	r1, :upper16:disp_refr
	ldr	r1, [r1]
	.loc	10 395 31                       @ lvgl/src/lv_core/lv_refr.c:395:31
	ldrh.w	r1, [r1, #382]
	bfc	r1, #10, #22
.Ltmp149:
	.loc	10 395 5                        @ lvgl/src/lv_core/lv_refr.c:395:5
	cmp	r0, r1
	bge	.LBB8_16
	b	.LBB8_10
.LBB8_10:                               @   in Loop: Header=BB8_9 Depth=1
.Ltmp150:
	.loc	10 397 12 is_stmt 1             @ lvgl/src/lv_core/lv_refr.c:397:12
	movw	r0, :lower16:disp_refr
	movt	r0, :upper16:disp_refr
	ldr	r0, [r0]
	.loc	10 397 39 is_stmt 0             @ lvgl/src/lv_core/lv_refr.c:397:39
	ldr	r1, [sp, #12]
	.loc	10 397 23                       @ lvgl/src/lv_core/lv_refr.c:397:23
	add	r0, r1
	.loc	10 397 12                       @ lvgl/src/lv_core/lv_refr.c:397:12
	ldrb.w	r0, [r0, #350]
.Ltmp151:
	.loc	10 397 12                       @ lvgl/src/lv_core/lv_refr.c:397:12
	cbnz	r0, .LBB8_14
	b	.LBB8_11
.LBB8_11:                               @   in Loop: Header=BB8_9 Depth=1
.Ltmp152:
	.loc	10 399 16 is_stmt 1             @ lvgl/src/lv_core/lv_refr.c:399:16
	ldr	r0, [sp, #12]
	.loc	10 399 21 is_stmt 0             @ lvgl/src/lv_core/lv_refr.c:399:21
	ldr	r1, [sp, #8]
.Ltmp153:
	.loc	10 399 16                       @ lvgl/src/lv_core/lv_refr.c:399:16
	cmp	r0, r1
	bne	.LBB8_13
	b	.LBB8_12
.LBB8_12:                               @   in Loop: Header=BB8_9 Depth=1
.Ltmp154:
	.loc	10 399 29                       @ lvgl/src/lv_core/lv_refr.c:399:29
	movw	r0, :lower16:disp_refr
	movt	r0, :upper16:disp_refr
	ldr	r0, [r0]
	.loc	10 399 47                       @ lvgl/src/lv_core/lv_refr.c:399:47
	ldr	r1, [r0, #4]
	.loc	10 399 65                       @ lvgl/src/lv_core/lv_refr.c:399:65
	ldr	r0, [r1, #32]
	orr	r0, r0, #1
	str	r0, [r1, #32]
	.loc	10 399 29                       @ lvgl/src/lv_core/lv_refr.c:399:29
	b	.LBB8_13
.Ltmp155:
.LBB8_13:                               @   in Loop: Header=BB8_9 Depth=1
	.loc	10 400 13 is_stmt 1             @ lvgl/src/lv_core/lv_refr.c:400:13
	movw	r0, :lower16:disp_refr
	movt	r0, :upper16:disp_refr
	str	r0, [sp, #4]                    @ 4-byte Spill
	ldr	r1, [r0]
	.loc	10 400 31 is_stmt 0             @ lvgl/src/lv_core/lv_refr.c:400:31
	ldr	r2, [r1, #4]
	.loc	10 400 49                       @ lvgl/src/lv_core/lv_refr.c:400:49
	ldr	r1, [r2, #32]
	bic	r1, r1, #2
	str	r1, [r2, #32]
	.loc	10 401 27 is_stmt 1             @ lvgl/src/lv_core/lv_refr.c:401:27
	ldr	r0, [r0]
	.loc	10 401 48 is_stmt 0             @ lvgl/src/lv_core/lv_refr.c:401:48
	ldr	r1, [sp, #12]
	.loc	10 401 38                       @ lvgl/src/lv_core/lv_refr.c:401:38
	add.w	r0, r0, r1, lsl #3
	.loc	10 401 27                       @ lvgl/src/lv_core/lv_refr.c:401:27
	adds	r0, #94
	.loc	10 401 13                       @ lvgl/src/lv_core/lv_refr.c:401:13
	bl	lv_refr_area
	ldr	r0, [sp, #4]                    @ 4-byte Reload
	.loc	10 403 41 is_stmt 1             @ lvgl/src/lv_core/lv_refr.c:403:41
	ldr	r0, [r0]
	.loc	10 403 62 is_stmt 0             @ lvgl/src/lv_core/lv_refr.c:403:62
	ldr	r1, [sp, #12]
	.loc	10 403 52                       @ lvgl/src/lv_core/lv_refr.c:403:52
	add.w	r0, r0, r1, lsl #3
	.loc	10 403 41                       @ lvgl/src/lv_core/lv_refr.c:403:41
	adds	r0, #94
	.loc	10 403 23                       @ lvgl/src/lv_core/lv_refr.c:403:23
	bl	lv_area_get_size
	mov	r2, r0
	.loc	10 403 20                       @ lvgl/src/lv_core/lv_refr.c:403:20
	movw	r1, :lower16:px_num
	movt	r1, :upper16:px_num
	ldr	r0, [r1]
	add	r0, r2
	str	r0, [r1]
	.loc	10 404 9 is_stmt 1              @ lvgl/src/lv_core/lv_refr.c:404:9
	b	.LBB8_14
.Ltmp156:
.LBB8_14:                               @   in Loop: Header=BB8_9 Depth=1
	.loc	10 405 5                        @ lvgl/src/lv_core/lv_refr.c:405:5
	b	.LBB8_15
.Ltmp157:
.LBB8_15:                               @   in Loop: Header=BB8_9 Depth=1
	.loc	10 395 39                       @ lvgl/src/lv_core/lv_refr.c:395:39
	ldr	r0, [sp, #12]
	adds	r0, #1
	str	r0, [sp, #12]
	.loc	10 395 5 is_stmt 0              @ lvgl/src/lv_core/lv_refr.c:395:5
	b	.LBB8_9
.Ltmp158:
.LBB8_16:
	.loc	10 406 1 is_stmt 1              @ lvgl/src/lv_core/lv_refr.c:406:1
	add	sp, #16
	pop	{r7, pc}
.Ltmp159:
.Lfunc_end8:
	.size	lv_refr_areas, .Lfunc_end8-lv_refr_areas
	.cfi_endproc
	.cantunwind
	.fnend
                                        @ -- End function
	.section	.text.lv_refr_vdb_flush,"ax",%progbits
	.p2align	3                               @ -- Begin function lv_refr_vdb_flush
	.type	lv_refr_vdb_flush,%function
	.code	16                              @ @lv_refr_vdb_flush
	.thumb_func
lv_refr_vdb_flush:
.Lfunc_begin9:
	.loc	10 907 0                        @ lvgl/src/lv_core/lv_refr.c:907:0
	.fnstart
	.cfi_startproc
@ %bb.0:
	.save	{r7, lr}
	push	{r7, lr}
	.cfi_def_cfa_offset 8
	.cfi_offset lr, -4
	.cfi_offset r7, -8
	.pad	#16
	sub	sp, #16
	.cfi_def_cfa_offset 24
.Ltmp160:
	.loc	10 908 43 prologue_end          @ lvgl/src/lv_core/lv_refr.c:908:43
	movw	r0, :lower16:disp_refr
	movt	r0, :upper16:disp_refr
	str	r0, [sp]                        @ 4-byte Spill
	ldr	r0, [r0]
	.loc	10 908 27 is_stmt 0             @ lvgl/src/lv_core/lv_refr.c:908:27
	bl	lv_disp_get_buf
	mov	r1, r0
	.loc	10 908 21                       @ lvgl/src/lv_core/lv_refr.c:908:21
	ldr	r0, [sp]                        @ 4-byte Reload
	str	r1, [sp, #12]
	.loc	10 909 28 is_stmt 1             @ lvgl/src/lv_core/lv_refr.c:909:28
	ldr	r1, [sp, #12]
	.loc	10 909 33 is_stmt 0             @ lvgl/src/lv_core/lv_refr.c:909:33
	ldr	r1, [r1, #8]
	.loc	10 909 18                       @ lvgl/src/lv_core/lv_refr.c:909:18
	str	r1, [sp, #8]
.Ltmp161:
	.loc	10 913 30 is_stmt 1             @ lvgl/src/lv_core/lv_refr.c:913:30
	ldr	r0, [r0]
	.loc	10 913 8 is_stmt 0              @ lvgl/src/lv_core/lv_refr.c:913:8
	bl	lv_disp_is_double_buf
.Ltmp162:
	.loc	10 913 8                        @ lvgl/src/lv_core/lv_refr.c:913:8
	cbz	r0, .LBB9_7
	b	.LBB9_1
.LBB9_1:
.Ltmp163:
	.loc	10 914 9 is_stmt 1              @ lvgl/src/lv_core/lv_refr.c:914:9
	b	.LBB9_2
.LBB9_2:                                @ =>This Inner Loop Header: Depth=1
	.loc	10 914 15 is_stmt 0             @ lvgl/src/lv_core/lv_refr.c:914:15
	ldr	r0, [sp, #12]
	.loc	10 914 20                       @ lvgl/src/lv_core/lv_refr.c:914:20
	ldr	r0, [r0, #24]
	.loc	10 914 9                        @ lvgl/src/lv_core/lv_refr.c:914:9
	cbz	r0, .LBB9_6
	b	.LBB9_3
.LBB9_3:                                @   in Loop: Header=BB9_2 Depth=1
.Ltmp164:
	.loc	10 915 16 is_stmt 1             @ lvgl/src/lv_core/lv_refr.c:915:16
	movw	r0, :lower16:disp_refr
	movt	r0, :upper16:disp_refr
	ldr	r0, [r0]
	.loc	10 915 34 is_stmt 0             @ lvgl/src/lv_core/lv_refr.c:915:34
	ldr	r0, [r0, #28]
.Ltmp165:
	.loc	10 915 16                       @ lvgl/src/lv_core/lv_refr.c:915:16
	cbz	r0, .LBB9_5
	b	.LBB9_4
.LBB9_4:                                @   in Loop: Header=BB9_2 Depth=1
.Ltmp166:
	.loc	10 915 43                       @ lvgl/src/lv_core/lv_refr.c:915:43
	movw	r0, :lower16:disp_refr
	movt	r0, :upper16:disp_refr
	ldr	r0, [r0]
	.loc	10 915 61                       @ lvgl/src/lv_core/lv_refr.c:915:61
	ldr	r1, [r0, #28]
	.loc	10 915 43                       @ lvgl/src/lv_core/lv_refr.c:915:43
	blx	r1
	b	.LBB9_5
.Ltmp167:
.LBB9_5:                                @   in Loop: Header=BB9_2 Depth=1
	.loc	10 914 9 is_stmt 1              @ lvgl/src/lv_core/lv_refr.c:914:9
	b	.LBB9_2
.LBB9_6:
	.loc	10 917 5                        @ lvgl/src/lv_core/lv_refr.c:917:5
	b	.LBB9_7
.Ltmp168:
.LBB9_7:
	.loc	10 919 5                        @ lvgl/src/lv_core/lv_refr.c:919:5
	ldr	r1, [sp, #12]
	movs	r0, #1
	.loc	10 919 19 is_stmt 0             @ lvgl/src/lv_core/lv_refr.c:919:19
	str	r0, [r1, #24]
.Ltmp169:
	.loc	10 921 8 is_stmt 1              @ lvgl/src/lv_core/lv_refr.c:921:8
	movw	r0, :lower16:disp_refr
	movt	r0, :upper16:disp_refr
	ldr	r0, [r0]
	.loc	10 921 26 is_stmt 0             @ lvgl/src/lv_core/lv_refr.c:921:26
	ldr	r0, [r0, #4]
	.loc	10 921 34                       @ lvgl/src/lv_core/lv_refr.c:921:34
	ldr	r0, [r0, #32]
	.loc	10 921 44                       @ lvgl/src/lv_core/lv_refr.c:921:44
	lsls	r0, r0, #31
	cbz	r0, .LBB9_10
	b	.LBB9_8
.LBB9_8:
	.loc	10 921 47                       @ lvgl/src/lv_core/lv_refr.c:921:47
	movw	r0, :lower16:disp_refr
	movt	r0, :upper16:disp_refr
	ldr	r0, [r0]
	.loc	10 921 65                       @ lvgl/src/lv_core/lv_refr.c:921:65
	ldr	r0, [r0, #4]
	.loc	10 921 73                       @ lvgl/src/lv_core/lv_refr.c:921:73
	ldr	r0, [r0, #32]
	lsrs	r0, r0, #1
.Ltmp170:
	.loc	10 921 8                        @ lvgl/src/lv_core/lv_refr.c:921:8
	lsls	r0, r0, #31
	cbz	r0, .LBB9_10
	b	.LBB9_9
.LBB9_9:
.Ltmp171:
	.loc	10 921 84                       @ lvgl/src/lv_core/lv_refr.c:921:84
	ldr	r1, [sp, #12]
	movs	r0, #1
	.loc	10 921 103                      @ lvgl/src/lv_core/lv_refr.c:921:103
	str	r0, [r1, #28]
	.loc	10 921 84                       @ lvgl/src/lv_core/lv_refr.c:921:84
	b	.LBB9_11
.LBB9_10:
	.loc	10 922 10 is_stmt 1             @ lvgl/src/lv_core/lv_refr.c:922:10
	ldr	r1, [sp, #12]
	movs	r0, #0
	.loc	10 922 29 is_stmt 0             @ lvgl/src/lv_core/lv_refr.c:922:29
	str	r0, [r1, #28]
	b	.LBB9_11
.Ltmp172:
.LBB9_11:
	.loc	10 925 24 is_stmt 1             @ lvgl/src/lv_core/lv_refr.c:925:24
	bl	_lv_refr_get_disp_refreshing
	.loc	10 925 17 is_stmt 0             @ lvgl/src/lv_core/lv_refr.c:925:17
	str	r0, [sp, #4]
.Ltmp173:
	.loc	10 926 8 is_stmt 1              @ lvgl/src/lv_core/lv_refr.c:926:8
	ldr	r0, [sp, #4]
	.loc	10 926 21 is_stmt 0             @ lvgl/src/lv_core/lv_refr.c:926:21
	ldr	r0, [r0, #36]
.Ltmp174:
	.loc	10 926 8                        @ lvgl/src/lv_core/lv_refr.c:926:8
	cbz	r0, .LBB9_13
	b	.LBB9_12
.LBB9_12:
.Ltmp175:
	.loc	10 926 34                       @ lvgl/src/lv_core/lv_refr.c:926:34
	ldr	r0, [sp, #4]
	.loc	10 926 47                       @ lvgl/src/lv_core/lv_refr.c:926:47
	ldr	r1, [r0, #36]
	.loc	10 926 34                       @ lvgl/src/lv_core/lv_refr.c:926:34
	blx	r1
	b	.LBB9_13
.Ltmp176:
.LBB9_13:
	.loc	10 928 8 is_stmt 1              @ lvgl/src/lv_core/lv_refr.c:928:8
	ldr	r0, [sp, #4]
	.loc	10 928 21 is_stmt 0             @ lvgl/src/lv_core/lv_refr.c:928:21
	ldr	r0, [r0, #12]
.Ltmp177:
	.loc	10 928 8                        @ lvgl/src/lv_core/lv_refr.c:928:8
	cbz	r0, .LBB9_19
	b	.LBB9_14
.LBB9_14:
.Ltmp178:
	.loc	10 930 12 is_stmt 1             @ lvgl/src/lv_core/lv_refr.c:930:12
	ldr	r0, [sp, #4]
	.loc	10 930 25 is_stmt 0             @ lvgl/src/lv_core/lv_refr.c:930:25
	ldrh	r0, [r0, #8]
	lsrs	r0, r0, #1
	.loc	10 930 53                       @ lvgl/src/lv_core/lv_refr.c:930:53
	lsls	r0, r0, #30
	cbz	r0, .LBB9_17
	b	.LBB9_15
.LBB9_15:
	.loc	10 930 56                       @ lvgl/src/lv_core/lv_refr.c:930:56
	ldr	r0, [sp, #4]
	.loc	10 930 69                       @ lvgl/src/lv_core/lv_refr.c:930:69
	ldrh	r0, [r0, #8]
	lsrs	r0, r0, #3
.Ltmp179:
	.loc	10 930 12                       @ lvgl/src/lv_core/lv_refr.c:930:12
	lsls	r0, r0, #31
	cbz	r0, .LBB9_17
	b	.LBB9_16
.LBB9_16:
.Ltmp180:
	.loc	10 931 33 is_stmt 1             @ lvgl/src/lv_core/lv_refr.c:931:33
	ldr	r1, [sp, #12]
	.loc	10 931 38 is_stmt 0             @ lvgl/src/lv_core/lv_refr.c:931:38
	add.w	r0, r1, #16
	.loc	10 931 49                       @ lvgl/src/lv_core/lv_refr.c:931:49
	ldr	r1, [r1, #8]
	.loc	10 931 13                       @ lvgl/src/lv_core/lv_refr.c:931:13
	bl	lv_refr_vdb_rotate
	.loc	10 932 9 is_stmt 1              @ lvgl/src/lv_core/lv_refr.c:932:9
	b	.LBB9_18
.Ltmp181:
.LBB9_17:
	.loc	10 933 13                       @ lvgl/src/lv_core/lv_refr.c:933:13
	ldr	r0, [sp, #4]
	.loc	10 933 26 is_stmt 0             @ lvgl/src/lv_core/lv_refr.c:933:26
	ldr	r3, [r0, #12]
	.loc	10 933 51                       @ lvgl/src/lv_core/lv_refr.c:933:51
	ldr	r1, [sp, #12]
	.loc	10 933 56                       @ lvgl/src/lv_core/lv_refr.c:933:56
	adds	r1, #16
	.loc	10 933 62                       @ lvgl/src/lv_core/lv_refr.c:933:62
	ldr	r2, [sp, #8]
	.loc	10 933 13                       @ lvgl/src/lv_core/lv_refr.c:933:13
	blx	r3
	b	.LBB9_18
.Ltmp182:
.LBB9_18:
	.loc	10 935 5 is_stmt 1              @ lvgl/src/lv_core/lv_refr.c:935:5
	b	.LBB9_19
.Ltmp183:
.LBB9_19:
	.loc	10 936 8                        @ lvgl/src/lv_core/lv_refr.c:936:8
	ldr	r0, [sp, #12]
	.loc	10 936 13 is_stmt 0             @ lvgl/src/lv_core/lv_refr.c:936:13
	ldr	r0, [r0]
	.loc	10 936 18                       @ lvgl/src/lv_core/lv_refr.c:936:18
	cbz	r0, .LBB9_25
	b	.LBB9_20
.LBB9_20:
	.loc	10 936 21                       @ lvgl/src/lv_core/lv_refr.c:936:21
	ldr	r0, [sp, #12]
	.loc	10 936 26                       @ lvgl/src/lv_core/lv_refr.c:936:26
	ldr	r0, [r0, #4]
.Ltmp184:
	.loc	10 936 8                        @ lvgl/src/lv_core/lv_refr.c:936:8
	cbz	r0, .LBB9_25
	b	.LBB9_21
.LBB9_21:
.Ltmp185:
	.loc	10 937 12 is_stmt 1             @ lvgl/src/lv_core/lv_refr.c:937:12
	ldr	r0, [sp, #12]
	.loc	10 937 33 is_stmt 0             @ lvgl/src/lv_core/lv_refr.c:937:33
	ldr	r1, [r0]
	.loc	10 937 17                       @ lvgl/src/lv_core/lv_refr.c:937:17
	ldr	r0, [r0, #8]
.Ltmp186:
	.loc	10 937 12                       @ lvgl/src/lv_core/lv_refr.c:937:12
	cmp	r0, r1
	bne	.LBB9_23
	b	.LBB9_22
.LBB9_22:
.Ltmp187:
	.loc	10 938 28 is_stmt 1             @ lvgl/src/lv_core/lv_refr.c:938:28
	ldr	r1, [sp, #12]
	.loc	10 938 33 is_stmt 0             @ lvgl/src/lv_core/lv_refr.c:938:33
	ldr	r0, [r1, #4]
	.loc	10 938 26                       @ lvgl/src/lv_core/lv_refr.c:938:26
	str	r0, [r1, #8]
	.loc	10 938 13                       @ lvgl/src/lv_core/lv_refr.c:938:13
	b	.LBB9_24
.LBB9_23:
	.loc	10 940 28 is_stmt 1             @ lvgl/src/lv_core/lv_refr.c:940:28
	ldr	r1, [sp, #12]
	.loc	10 940 33 is_stmt 0             @ lvgl/src/lv_core/lv_refr.c:940:33
	ldr	r0, [r1]
	.loc	10 940 26                       @ lvgl/src/lv_core/lv_refr.c:940:26
	str	r0, [r1, #8]
	b	.LBB9_24
.Ltmp188:
.LBB9_24:
	.loc	10 941 5 is_stmt 1              @ lvgl/src/lv_core/lv_refr.c:941:5
	b	.LBB9_25
.Ltmp189:
.LBB9_25:
	.loc	10 942 1                        @ lvgl/src/lv_core/lv_refr.c:942:1
	add	sp, #16
	pop	{r7, pc}
.Ltmp190:
.Lfunc_end9:
	.size	lv_refr_vdb_flush, .Lfunc_end9-lv_refr_vdb_flush
	.cfi_endproc
	.cantunwind
	.fnend
                                        @ -- End function
	.section	.text.lv_area_get_width,"ax",%progbits
	.p2align	3                               @ -- Begin function lv_area_get_width
	.type	lv_area_get_width,%function
	.code	16                              @ @lv_area_get_width
	.thumb_func
lv_area_get_width:
.Lfunc_begin10:
	.loc	5 108 0                         @ lvgl/src/lv_core/../lv_gpu/../lv_misc/lv_area.h:108:0
	.fnstart
	.cfi_startproc
@ %bb.0:
	.pad	#4
	sub	sp, #4
	.cfi_def_cfa_offset 4
	str	r0, [sp]
.Ltmp191:
	.loc	5 109 25 prologue_end           @ lvgl/src/lv_core/../lv_gpu/../lv_misc/lv_area.h:109:25
	ldr	r1, [sp]
	ldrh	r0, [r1, #4]
	.loc	5 109 38 is_stmt 0              @ lvgl/src/lv_core/../lv_gpu/../lv_misc/lv_area.h:109:38
	ldrh	r1, [r1]
	.loc	5 109 36                        @ lvgl/src/lv_core/../lv_gpu/../lv_misc/lv_area.h:109:36
	subs	r0, r0, r1
	.loc	5 109 49                        @ lvgl/src/lv_core/../lv_gpu/../lv_misc/lv_area.h:109:49
	adds	r0, #1
	.loc	5 109 5                         @ lvgl/src/lv_core/../lv_gpu/../lv_misc/lv_area.h:109:5
	sxth	r0, r0
	add	sp, #4
	bx	lr
.Ltmp192:
.Lfunc_end10:
	.size	lv_area_get_width, .Lfunc_end10-lv_area_get_width
	.cfi_endproc
	.cantunwind
	.fnend
                                        @ -- End function
	.section	.text.lv_layer_sys,"ax",%progbits
	.p2align	3                               @ -- Begin function lv_layer_sys
	.type	lv_layer_sys,%function
	.code	16                              @ @lv_layer_sys
	.thumb_func
lv_layer_sys:
.Lfunc_begin11:
	.file	15 "E:\\Smart-access-control\\Hardware\\CODE" "lvgl/src/lv_core/lv_disp.h"
	.loc	15 177 0 is_stmt 1              @ lvgl/src/lv_core/lv_disp.h:177:0
	.fnstart
	.cfi_startproc
@ %bb.0:
	.save	{r7, lr}
	push	{r7, lr}
	.cfi_def_cfa_offset 8
	.cfi_offset lr, -4
	.cfi_offset r7, -8
.Ltmp193:
	.loc	15 178 34 prologue_end          @ lvgl/src/lv_core/lv_disp.h:178:34
	bl	lv_disp_get_default
	.loc	15 178 12 is_stmt 0             @ lvgl/src/lv_core/lv_disp.h:178:12
	bl	lv_disp_get_layer_sys
	.loc	15 178 5                        @ lvgl/src/lv_core/lv_disp.h:178:5
	pop	{r7, pc}
.Ltmp194:
.Lfunc_end11:
	.size	lv_layer_sys, .Lfunc_end11-lv_layer_sys
	.cfi_endproc
	.cantunwind
	.fnend
                                        @ -- End function
	.section	.text.lv_obj_set_style_local_bg_opa,"ax",%progbits
	.p2align	3                               @ -- Begin function lv_obj_set_style_local_bg_opa
	.type	lv_obj_set_style_local_bg_opa,%function
	.code	16                              @ @lv_obj_set_style_local_bg_opa
	.thumb_func
lv_obj_set_style_local_bg_opa:
.Lfunc_begin12:
	.file	16 "E:\\Smart-access-control\\Hardware\\CODE" "lvgl/src/lv_core/lv_obj_style_dec.h"
	.loc	16 115 0 is_stmt 1              @ lvgl/src/lv_core/lv_obj_style_dec.h:115:0
	.fnstart
	.cfi_startproc
@ %bb.0:
	.save	{r7, lr}
	push	{r7, lr}
	.cfi_def_cfa_offset 8
	.cfi_offset lr, -4
	.cfi_offset r7, -8
	.pad	#8
	sub	sp, #8
	.cfi_def_cfa_offset 16
                                        @ kill: def $r12 killed $r3
                                        @ kill: def $r12 killed $r2
                                        @ kill: def $r12 killed $r1
	str	r0, [sp, #4]
	strb.w	r1, [sp, #3]
	strb.w	r2, [sp, #2]
	strb.w	r3, [sp, #1]
.Ltmp195:
	.loc	16 115 1 prologue_end           @ lvgl/src/lv_core/lv_obj_style_dec.h:115:1
	ldr	r0, [sp, #4]
	ldrb.w	r1, [sp, #3]
	ldrb.w	r2, [sp, #2]
	lsls	r2, r2, #8
	adds	r2, #44
	ldrb.w	r3, [sp, #1]
	bl	_lv_obj_set_style_local_opa
	add	sp, #8
	pop	{r7, pc}
.Ltmp196:
.Lfunc_end12:
	.size	lv_obj_set_style_local_bg_opa, .Lfunc_end12-lv_obj_set_style_local_bg_opa
	.cfi_endproc
	.cantunwind
	.fnend
                                        @ -- End function
	.section	.text.lv_obj_set_style_local_bg_color,"ax",%progbits
	.p2align	3                               @ -- Begin function lv_obj_set_style_local_bg_color
	.type	lv_obj_set_style_local_bg_color,%function
	.code	16                              @ @lv_obj_set_style_local_bg_color
	.thumb_func
lv_obj_set_style_local_bg_color:
.Lfunc_begin13:
	.loc	16 113 0                        @ lvgl/src/lv_core/lv_obj_style_dec.h:113:0
	.fnstart
	.cfi_startproc
@ %bb.0:
	.save	{r7, lr}
	push	{r7, lr}
	.cfi_def_cfa_offset 8
	.cfi_offset lr, -4
	.cfi_offset r7, -8
	.pad	#16
	sub	sp, #16
	.cfi_def_cfa_offset 24
                                        @ kill: def $r12 killed $r2
                                        @ kill: def $r12 killed $r1
	str	r3, [sp, #12]
	str	r0, [sp, #8]
	strb.w	r1, [sp, #7]
	strb.w	r2, [sp, #6]
.Ltmp197:
	.loc	16 113 1 prologue_end           @ lvgl/src/lv_core/lv_obj_style_dec.h:113:1
	ldr	r0, [sp, #8]
	ldrb.w	r1, [sp, #7]
	ldrb.w	r2, [sp, #6]
	lsls	r2, r2, #8
	adds	r2, #41
	ldr	r3, [sp, #12]
	bl	_lv_obj_set_style_local_color
	add	sp, #16
	pop	{r7, pc}
.Ltmp198:
.Lfunc_end13:
	.size	lv_obj_set_style_local_bg_color, .Lfunc_end13-lv_obj_set_style_local_bg_color
	.cfi_endproc
	.cantunwind
	.fnend
                                        @ -- End function
	.section	.text.lv_obj_set_style_local_text_color,"ax",%progbits
	.p2align	3                               @ -- Begin function lv_obj_set_style_local_text_color
	.type	lv_obj_set_style_local_text_color,%function
	.code	16                              @ @lv_obj_set_style_local_text_color
	.thumb_func
lv_obj_set_style_local_text_color:
.Lfunc_begin14:
	.loc	16 154 0                        @ lvgl/src/lv_core/lv_obj_style_dec.h:154:0
	.fnstart
	.cfi_startproc
@ %bb.0:
	.save	{r7, lr}
	push	{r7, lr}
	.cfi_def_cfa_offset 8
	.cfi_offset lr, -4
	.cfi_offset r7, -8
	.pad	#16
	sub	sp, #16
	.cfi_def_cfa_offset 24
                                        @ kill: def $r12 killed $r2
                                        @ kill: def $r12 killed $r1
	str	r3, [sp, #12]
	str	r0, [sp, #8]
	strb.w	r1, [sp, #7]
	strb.w	r2, [sp, #6]
.Ltmp199:
	.loc	16 154 1 prologue_end           @ lvgl/src/lv_core/lv_obj_style_dec.h:154:1
	ldr	r0, [sp, #8]
	ldrb.w	r1, [sp, #7]
	ldrb.w	r3, [sp, #6]
	movw	r2, #32905
	orr.w	r2, r2, r3, lsl #8
	ldr	r3, [sp, #12]
	bl	_lv_obj_set_style_local_color
	add	sp, #16
	pop	{r7, pc}
.Ltmp200:
.Lfunc_end14:
	.size	lv_obj_set_style_local_text_color, .Lfunc_end14-lv_obj_set_style_local_text_color
	.cfi_endproc
	.cantunwind
	.fnend
                                        @ -- End function
	.section	.text.lv_obj_set_style_local_pad_top,"ax",%progbits
	.p2align	3                               @ -- Begin function lv_obj_set_style_local_pad_top
	.type	lv_obj_set_style_local_pad_top,%function
	.code	16                              @ @lv_obj_set_style_local_pad_top
	.thumb_func
lv_obj_set_style_local_pad_top:
.Lfunc_begin15:
	.loc	16 100 0                        @ lvgl/src/lv_core/lv_obj_style_dec.h:100:0
	.fnstart
	.cfi_startproc
@ %bb.0:
	.save	{r7, lr}
	push	{r7, lr}
	.cfi_def_cfa_offset 8
	.cfi_offset lr, -4
	.cfi_offset r7, -8
	.pad	#8
	sub	sp, #8
	.cfi_def_cfa_offset 16
                                        @ kill: def $r12 killed $r3
                                        @ kill: def $r12 killed $r2
                                        @ kill: def $r12 killed $r1
	str	r0, [sp, #4]
	strb.w	r1, [sp, #3]
	strb.w	r2, [sp, #2]
	strh.w	r3, [sp]
.Ltmp201:
	.loc	16 100 1 prologue_end           @ lvgl/src/lv_core/lv_obj_style_dec.h:100:1
	ldr	r0, [sp, #4]
	ldrb.w	r1, [sp, #3]
	ldrb.w	r2, [sp, #2]
	lsls	r2, r2, #8
	adds	r2, #16
	ldrsh.w	r3, [sp]
	bl	_lv_obj_set_style_local_int
	add	sp, #8
	pop	{r7, pc}
.Ltmp202:
.Lfunc_end15:
	.size	lv_obj_set_style_local_pad_top, .Lfunc_end15-lv_obj_set_style_local_pad_top
	.cfi_endproc
	.cantunwind
	.fnend
                                        @ -- End function
	.section	.text.lv_obj_set_style_local_pad_bottom,"ax",%progbits
	.p2align	3                               @ -- Begin function lv_obj_set_style_local_pad_bottom
	.type	lv_obj_set_style_local_pad_bottom,%function
	.code	16                              @ @lv_obj_set_style_local_pad_bottom
	.thumb_func
lv_obj_set_style_local_pad_bottom:
.Lfunc_begin16:
	.loc	16 101 0                        @ lvgl/src/lv_core/lv_obj_style_dec.h:101:0
	.fnstart
	.cfi_startproc
@ %bb.0:
	.save	{r7, lr}
	push	{r7, lr}
	.cfi_def_cfa_offset 8
	.cfi_offset lr, -4
	.cfi_offset r7, -8
	.pad	#8
	sub	sp, #8
	.cfi_def_cfa_offset 16
                                        @ kill: def $r12 killed $r3
                                        @ kill: def $r12 killed $r2
                                        @ kill: def $r12 killed $r1
	str	r0, [sp, #4]
	strb.w	r1, [sp, #3]
	strb.w	r2, [sp, #2]
	strh.w	r3, [sp]
.Ltmp203:
	.loc	16 101 1 prologue_end           @ lvgl/src/lv_core/lv_obj_style_dec.h:101:1
	ldr	r0, [sp, #4]
	ldrb.w	r1, [sp, #3]
	ldrb.w	r2, [sp, #2]
	lsls	r2, r2, #8
	adds	r2, #17
	ldrsh.w	r3, [sp]
	bl	_lv_obj_set_style_local_int
	add	sp, #8
	pop	{r7, pc}
.Ltmp204:
.Lfunc_end16:
	.size	lv_obj_set_style_local_pad_bottom, .Lfunc_end16-lv_obj_set_style_local_pad_bottom
	.cfi_endproc
	.cantunwind
	.fnend
                                        @ -- End function
	.section	.text.lv_obj_set_style_local_pad_left,"ax",%progbits
	.p2align	3                               @ -- Begin function lv_obj_set_style_local_pad_left
	.type	lv_obj_set_style_local_pad_left,%function
	.code	16                              @ @lv_obj_set_style_local_pad_left
	.thumb_func
lv_obj_set_style_local_pad_left:
.Lfunc_begin17:
	.loc	16 102 0                        @ lvgl/src/lv_core/lv_obj_style_dec.h:102:0
	.fnstart
	.cfi_startproc
@ %bb.0:
	.save	{r7, lr}
	push	{r7, lr}
	.cfi_def_cfa_offset 8
	.cfi_offset lr, -4
	.cfi_offset r7, -8
	.pad	#8
	sub	sp, #8
	.cfi_def_cfa_offset 16
                                        @ kill: def $r12 killed $r3
                                        @ kill: def $r12 killed $r2
                                        @ kill: def $r12 killed $r1
	str	r0, [sp, #4]
	strb.w	r1, [sp, #3]
	strb.w	r2, [sp, #2]
	strh.w	r3, [sp]
.Ltmp205:
	.loc	16 102 1 prologue_end           @ lvgl/src/lv_core/lv_obj_style_dec.h:102:1
	ldr	r0, [sp, #4]
	ldrb.w	r1, [sp, #3]
	ldrb.w	r2, [sp, #2]
	lsls	r2, r2, #8
	adds	r2, #18
	ldrsh.w	r3, [sp]
	bl	_lv_obj_set_style_local_int
	add	sp, #8
	pop	{r7, pc}
.Ltmp206:
.Lfunc_end17:
	.size	lv_obj_set_style_local_pad_left, .Lfunc_end17-lv_obj_set_style_local_pad_left
	.cfi_endproc
	.cantunwind
	.fnend
                                        @ -- End function
	.section	.text.lv_obj_set_style_local_pad_right,"ax",%progbits
	.p2align	3                               @ -- Begin function lv_obj_set_style_local_pad_right
	.type	lv_obj_set_style_local_pad_right,%function
	.code	16                              @ @lv_obj_set_style_local_pad_right
	.thumb_func
lv_obj_set_style_local_pad_right:
.Lfunc_begin18:
	.loc	16 103 0                        @ lvgl/src/lv_core/lv_obj_style_dec.h:103:0
	.fnstart
	.cfi_startproc
@ %bb.0:
	.save	{r7, lr}
	push	{r7, lr}
	.cfi_def_cfa_offset 8
	.cfi_offset lr, -4
	.cfi_offset r7, -8
	.pad	#8
	sub	sp, #8
	.cfi_def_cfa_offset 16
                                        @ kill: def $r12 killed $r3
                                        @ kill: def $r12 killed $r2
                                        @ kill: def $r12 killed $r1
	str	r0, [sp, #4]
	strb.w	r1, [sp, #3]
	strb.w	r2, [sp, #2]
	strh.w	r3, [sp]
.Ltmp207:
	.loc	16 103 1 prologue_end           @ lvgl/src/lv_core/lv_obj_style_dec.h:103:1
	ldr	r0, [sp, #4]
	ldrb.w	r1, [sp, #3]
	ldrb.w	r2, [sp, #2]
	lsls	r2, r2, #8
	adds	r2, #19
	ldrsh.w	r3, [sp]
	bl	_lv_obj_set_style_local_int
	add	sp, #8
	pop	{r7, pc}
.Ltmp208:
.Lfunc_end18:
	.size	lv_obj_set_style_local_pad_right, .Lfunc_end18-lv_obj_set_style_local_pad_right
	.cfi_endproc
	.cantunwind
	.fnend
                                        @ -- End function
	.section	.text.lv_refr_get_fps_avg,"ax",%progbits
	.hidden	lv_refr_get_fps_avg             @ -- Begin function lv_refr_get_fps_avg
	.globl	lv_refr_get_fps_avg
	.p2align	3
	.type	lv_refr_get_fps_avg,%function
	.code	16                              @ @lv_refr_get_fps_avg
	.thumb_func
lv_refr_get_fps_avg:
.Lfunc_begin19:
	.loc	10 327 0                        @ lvgl/src/lv_core/lv_refr.c:327:0
	.fnstart
	.cfi_startproc
@ %bb.0:
	.loc	10 328 12 prologue_end          @ lvgl/src/lv_core/lv_refr.c:328:12
	movw	r0, :lower16:fps_sum_all
	movt	r0, :upper16:fps_sum_all
	ldr	r0, [r0]
	.loc	10 328 26 is_stmt 0             @ lvgl/src/lv_core/lv_refr.c:328:26
	movw	r1, :lower16:fps_sum_cnt
	movt	r1, :upper16:fps_sum_cnt
	ldr	r1, [r1]
	.loc	10 328 24                       @ lvgl/src/lv_core/lv_refr.c:328:24
	udiv	r0, r0, r1
	.loc	10 328 5                        @ lvgl/src/lv_core/lv_refr.c:328:5
	bx	lr
.Ltmp209:
.Lfunc_end19:
	.size	lv_refr_get_fps_avg, .Lfunc_end19-lv_refr_get_fps_avg
	.cfi_endproc
	.cantunwind
	.fnend
                                        @ -- End function
	.section	.text._lv_memcpy_small,"ax",%progbits
	.p2align	3                               @ -- Begin function _lv_memcpy_small
	.type	_lv_memcpy_small,%function
	.code	16                              @ @_lv_memcpy_small
	.thumb_func
_lv_memcpy_small:
.Lfunc_begin20:
	.file	17 "E:\\Smart-access-control\\Hardware\\CODE" "lvgl/src/lv_core/../lv_misc/lv_mem.h"
	.loc	17 214 0 is_stmt 1              @ lvgl/src/lv_core/../lv_misc/lv_mem.h:214:0
	.fnstart
	.cfi_startproc
@ %bb.0:
	.pad	#20
	sub	sp, #20
	.cfi_def_cfa_offset 20
	str	r0, [sp, #16]
	str	r1, [sp, #12]
	str	r2, [sp, #8]
.Ltmp210:
	.loc	17 215 31 prologue_end          @ lvgl/src/lv_core/../lv_misc/lv_mem.h:215:31
	ldr	r0, [sp, #16]
	.loc	17 215 15 is_stmt 0             @ lvgl/src/lv_core/../lv_misc/lv_mem.h:215:15
	str	r0, [sp, #4]
	.loc	17 216 43 is_stmt 1             @ lvgl/src/lv_core/../lv_misc/lv_mem.h:216:43
	ldr	r0, [sp, #12]
	.loc	17 216 21 is_stmt 0             @ lvgl/src/lv_core/../lv_misc/lv_mem.h:216:21
	str	r0, [sp]
	.loc	17 218 5 is_stmt 1              @ lvgl/src/lv_core/../lv_misc/lv_mem.h:218:5
	b	.LBB20_1
.LBB20_1:                               @ =>This Inner Loop Header: Depth=1
	.loc	17 218 11 is_stmt 0             @ lvgl/src/lv_core/../lv_misc/lv_mem.h:218:11
	ldr	r0, [sp, #8]
	.loc	17 218 5                        @ lvgl/src/lv_core/../lv_misc/lv_mem.h:218:5
	cbz	r0, .LBB20_3
	b	.LBB20_2
.LBB20_2:                               @   in Loop: Header=BB20_1 Depth=1
.Ltmp211:
	.loc	17 219 16 is_stmt 1             @ lvgl/src/lv_core/../lv_misc/lv_mem.h:219:16
	ldr	r0, [sp]
	.loc	17 219 15 is_stmt 0             @ lvgl/src/lv_core/../lv_misc/lv_mem.h:219:15
	ldrb	r0, [r0]
	.loc	17 219 10                       @ lvgl/src/lv_core/../lv_misc/lv_mem.h:219:10
	ldr	r1, [sp, #4]
	.loc	17 219 13                       @ lvgl/src/lv_core/../lv_misc/lv_mem.h:219:13
	strb	r0, [r1]
	.loc	17 220 11 is_stmt 1             @ lvgl/src/lv_core/../lv_misc/lv_mem.h:220:11
	ldr	r0, [sp, #4]
	adds	r0, #1
	str	r0, [sp, #4]
	.loc	17 221 11                       @ lvgl/src/lv_core/../lv_misc/lv_mem.h:221:11
	ldr	r0, [sp]
	adds	r0, #1
	str	r0, [sp]
	.loc	17 222 12                       @ lvgl/src/lv_core/../lv_misc/lv_mem.h:222:12
	ldr	r0, [sp, #8]
	subs	r0, #1
	str	r0, [sp, #8]
.Ltmp212:
	.loc	17 218 5                        @ lvgl/src/lv_core/../lv_misc/lv_mem.h:218:5
	b	.LBB20_1
.LBB20_3:
	.loc	17 225 12                       @ lvgl/src/lv_core/../lv_misc/lv_mem.h:225:12
	ldr	r0, [sp, #16]
	.loc	17 225 5 is_stmt 0              @ lvgl/src/lv_core/../lv_misc/lv_mem.h:225:5
	add	sp, #20
	bx	lr
.Ltmp213:
.Lfunc_end20:
	.size	_lv_memcpy_small, .Lfunc_end20-_lv_memcpy_small
	.cfi_endproc
	.cantunwind
	.fnend
                                        @ -- End function
	.section	.text.lv_refr_area,"ax",%progbits
	.p2align	3                               @ -- Begin function lv_refr_area
	.type	lv_refr_area,%function
	.code	16                              @ @lv_refr_area
	.thumb_func
lv_refr_area:
.Lfunc_begin21:
	.loc	10 413 0 is_stmt 1              @ lvgl/src/lv_core/lv_refr.c:413:0
	.fnstart
	.cfi_startproc
@ %bb.0:
	.save	{r7, lr}
	push	{r7, lr}
	.cfi_def_cfa_offset 8
	.cfi_offset lr, -4
	.cfi_offset r7, -8
	.pad	#64
	sub	sp, #64
	.cfi_def_cfa_offset 72
	str	r0, [sp, #60]
.Ltmp214:
	.loc	10 416 35 prologue_end          @ lvgl/src/lv_core/lv_refr.c:416:35
	movw	r0, :lower16:disp_refr
	movt	r0, :upper16:disp_refr
	ldr	r0, [r0]
	.loc	10 416 8 is_stmt 0              @ lvgl/src/lv_core/lv_refr.c:416:8
	bl	lv_disp_is_true_double_buf
.Ltmp215:
	.loc	10 416 8                        @ lvgl/src/lv_core/lv_refr.c:416:8
	cbz	r0, .LBB21_2
	b	.LBB21_1
.LBB21_1:
.Ltmp216:
	.loc	10 417 47 is_stmt 1             @ lvgl/src/lv_core/lv_refr.c:417:47
	movw	r0, :lower16:disp_refr
	movt	r0, :upper16:disp_refr
	str	r0, [sp, #20]                   @ 4-byte Spill
	ldr	r0, [r0]
	.loc	10 417 31 is_stmt 0             @ lvgl/src/lv_core/lv_refr.c:417:31
	bl	lv_disp_get_buf
	mov	r1, r0
	.loc	10 417 25                       @ lvgl/src/lv_core/lv_refr.c:417:25
	ldr	r0, [sp, #20]                   @ 4-byte Reload
	str	r1, [sp, #56]
	.loc	10 418 9 is_stmt 1              @ lvgl/src/lv_core/lv_refr.c:418:9
	ldr	r2, [sp, #56]
	movs	r1, #0
	.loc	10 418 29 is_stmt 0             @ lvgl/src/lv_core/lv_refr.c:418:29
	str	r1, [sp, #16]                   @ 4-byte Spill
	strh	r1, [r2, #16]
	.loc	10 419 51 is_stmt 1             @ lvgl/src/lv_core/lv_refr.c:419:51
	ldr	r0, [r0]
	.loc	10 419 31 is_stmt 0             @ lvgl/src/lv_core/lv_refr.c:419:31
	bl	lv_disp_get_hor_res
	ldr	r1, [sp, #16]                   @ 4-byte Reload
	mov	r2, r0
	.loc	10 419 62                       @ lvgl/src/lv_core/lv_refr.c:419:62
	ldr	r0, [sp, #20]                   @ 4-byte Reload
	subs	r2, #1
	.loc	10 419 9                        @ lvgl/src/lv_core/lv_refr.c:419:9
	ldr	r3, [sp, #56]
	.loc	10 419 29                       @ lvgl/src/lv_core/lv_refr.c:419:29
	strh	r2, [r3, #20]
	.loc	10 420 9 is_stmt 1              @ lvgl/src/lv_core/lv_refr.c:420:9
	ldr	r2, [sp, #56]
	.loc	10 420 29 is_stmt 0             @ lvgl/src/lv_core/lv_refr.c:420:29
	strh	r1, [r2, #18]
	.loc	10 421 51 is_stmt 1             @ lvgl/src/lv_core/lv_refr.c:421:51
	ldr	r0, [r0]
	.loc	10 421 31 is_stmt 0             @ lvgl/src/lv_core/lv_refr.c:421:31
	bl	lv_disp_get_ver_res
	mov	r1, r0
	.loc	10 421 62                       @ lvgl/src/lv_core/lv_refr.c:421:62
	ldr	r0, [sp, #20]                   @ 4-byte Reload
	subs	r1, #1
	.loc	10 421 9                        @ lvgl/src/lv_core/lv_refr.c:421:9
	ldr	r2, [sp, #56]
	.loc	10 421 29                       @ lvgl/src/lv_core/lv_refr.c:421:29
	strh	r1, [r2, #22]
	.loc	10 422 9 is_stmt 1              @ lvgl/src/lv_core/lv_refr.c:422:9
	ldr	r0, [r0]
	.loc	10 422 27 is_stmt 0             @ lvgl/src/lv_core/lv_refr.c:422:27
	ldr	r1, [r0, #4]
	.loc	10 422 45                       @ lvgl/src/lv_core/lv_refr.c:422:45
	ldr	r0, [r1, #32]
	orr	r0, r0, #2
	str	r0, [r1, #32]
	.loc	10 423 27 is_stmt 1             @ lvgl/src/lv_core/lv_refr.c:423:27
	ldr	r0, [sp, #60]
	.loc	10 423 9 is_stmt 0              @ lvgl/src/lv_core/lv_refr.c:423:9
	bl	lv_refr_area_part
	.loc	10 424 5 is_stmt 1              @ lvgl/src/lv_core/lv_refr.c:424:5
	b	.LBB21_28
.Ltmp217:
.LBB21_2:
	.loc	10 427 47                       @ lvgl/src/lv_core/lv_refr.c:427:47
	movw	r0, :lower16:disp_refr
	movt	r0, :upper16:disp_refr
	str	r0, [sp, #8]                    @ 4-byte Spill
	ldr	r0, [r0]
	.loc	10 427 31 is_stmt 0             @ lvgl/src/lv_core/lv_refr.c:427:31
	bl	lv_disp_get_buf
	.loc	10 427 25                       @ lvgl/src/lv_core/lv_refr.c:427:25
	str	r0, [sp, #52]
	.loc	10 429 42 is_stmt 1             @ lvgl/src/lv_core/lv_refr.c:429:42
	ldr	r0, [sp, #60]
	.loc	10 429 24 is_stmt 0             @ lvgl/src/lv_core/lv_refr.c:429:24
	bl	lv_area_get_width
	.loc	10 429 20                       @ lvgl/src/lv_core/lv_refr.c:429:20
	strh.w	r0, [sp, #50]
	.loc	10 430 43 is_stmt 1             @ lvgl/src/lv_core/lv_refr.c:430:43
	ldr	r0, [sp, #60]
	.loc	10 430 24 is_stmt 0             @ lvgl/src/lv_core/lv_refr.c:430:24
	bl	lv_area_get_height
	mov	r1, r0
	.loc	10 430 20                       @ lvgl/src/lv_core/lv_refr.c:430:20
	ldr	r0, [sp, #8]                    @ 4-byte Reload
	strh.w	r1, [sp, #48]
	.loc	10 432 13 is_stmt 1             @ lvgl/src/lv_core/lv_refr.c:432:13
	ldr	r1, [sp, #60]
	.loc	10 432 21 is_stmt 0             @ lvgl/src/lv_core/lv_refr.c:432:21
	ldrsh.w	r1, [r1, #6]
	.loc	10 432 47                       @ lvgl/src/lv_core/lv_refr.c:432:47
	str	r1, [sp, #12]                   @ 4-byte Spill
	ldr	r0, [r0]
	.loc	10 432 27                       @ lvgl/src/lv_core/lv_refr.c:432:27
	bl	lv_disp_get_ver_res
	mov	r1, r0
	.loc	10 432 13                       @ lvgl/src/lv_core/lv_refr.c:432:13
	ldr	r0, [sp, #12]                   @ 4-byte Reload
	cmp	r0, r1
	blt	.LBB21_4
	b	.LBB21_3
.LBB21_3:
	.loc	10 432 80                       @ lvgl/src/lv_core/lv_refr.c:432:80
	movw	r0, :lower16:disp_refr
	movt	r0, :upper16:disp_refr
	ldr	r0, [r0]
	.loc	10 432 60                       @ lvgl/src/lv_core/lv_refr.c:432:60
	bl	lv_disp_get_ver_res
	.loc	10 432 91                       @ lvgl/src/lv_core/lv_refr.c:432:91
	subs	r0, #1
	.loc	10 432 13                       @ lvgl/src/lv_core/lv_refr.c:432:13
	str	r0, [sp, #4]                    @ 4-byte Spill
	b	.LBB21_5
.LBB21_4:
	.loc	10 432 97                       @ lvgl/src/lv_core/lv_refr.c:432:97
	ldr	r0, [sp, #60]
	.loc	10 432 105                      @ lvgl/src/lv_core/lv_refr.c:432:105
	ldrsh.w	r0, [r0, #6]
	.loc	10 432 13                       @ lvgl/src/lv_core/lv_refr.c:432:13
	str	r0, [sp, #4]                    @ 4-byte Spill
	b	.LBB21_5
.LBB21_5:
	ldr	r0, [sp, #4]                    @ 4-byte Reload
	.loc	10 431 20 is_stmt 1             @ lvgl/src/lv_core/lv_refr.c:431:20
	strh.w	r0, [sp, #46]
	.loc	10 434 37                       @ lvgl/src/lv_core/lv_refr.c:434:37
	ldr	r0, [sp, #52]
	.loc	10 434 42 is_stmt 0             @ lvgl/src/lv_core/lv_refr.c:434:42
	ldr	r0, [r0, #12]
	.loc	10 434 49                       @ lvgl/src/lv_core/lv_refr.c:434:49
	ldrsh.w	r1, [sp, #50]
	.loc	10 434 47                       @ lvgl/src/lv_core/lv_refr.c:434:47
	udiv	r0, r0, r1
	.loc	10 434 17                       @ lvgl/src/lv_core/lv_refr.c:434:17
	str	r0, [sp, #40]
.Ltmp218:
	.loc	10 436 12 is_stmt 1             @ lvgl/src/lv_core/lv_refr.c:436:12
	ldr	r0, [sp, #40]
	.loc	10 436 22 is_stmt 0             @ lvgl/src/lv_core/lv_refr.c:436:22
	ldrsh.w	r1, [sp, #48]
.Ltmp219:
	.loc	10 436 12                       @ lvgl/src/lv_core/lv_refr.c:436:12
	cmp	r0, r1
	ble	.LBB21_7
	b	.LBB21_6
.LBB21_6:
.Ltmp220:
	.loc	10 436 35                       @ lvgl/src/lv_core/lv_refr.c:436:35
	ldrsh.w	r0, [sp, #48]
	.loc	10 436 33                       @ lvgl/src/lv_core/lv_refr.c:436:33
	str	r0, [sp, #40]
	.loc	10 436 25                       @ lvgl/src/lv_core/lv_refr.c:436:25
	b	.LBB21_7
.Ltmp221:
.LBB21_7:
	.loc	10 439 12 is_stmt 1             @ lvgl/src/lv_core/lv_refr.c:439:12
	movw	r0, :lower16:disp_refr
	movt	r0, :upper16:disp_refr
	ldr	r0, [r0]
	.loc	10 439 30 is_stmt 0             @ lvgl/src/lv_core/lv_refr.c:439:30
	ldr	r0, [r0, #16]
.Ltmp222:
	.loc	10 439 12                       @ lvgl/src/lv_core/lv_refr.c:439:12
	cbz	r0, .LBB21_17
	b	.LBB21_8
.LBB21_8:
	.loc	10 0 12                         @ lvgl/src/lv_core/lv_refr.c:0:12
	movs	r0, #0
.Ltmp223:
	.loc	10 441 20 is_stmt 1             @ lvgl/src/lv_core/lv_refr.c:441:20
	strh.w	r0, [sp, #32]
	.loc	10 442 20                       @ lvgl/src/lv_core/lv_refr.c:442:20
	strh.w	r0, [sp, #36]
	.loc	10 443 20                       @ lvgl/src/lv_core/lv_refr.c:443:20
	strh.w	r0, [sp, #34]
	.loc	10 445 32                       @ lvgl/src/lv_core/lv_refr.c:445:32
	ldr	r0, [sp, #40]
	.loc	10 445 24 is_stmt 0             @ lvgl/src/lv_core/lv_refr.c:445:24
	strh.w	r0, [sp, #30]
	.loc	10 446 13 is_stmt 1             @ lvgl/src/lv_core/lv_refr.c:446:13
	b	.LBB21_9
.LBB21_9:                               @ =>This Inner Loop Header: Depth=1
.Ltmp224:
	.loc	10 447 26                       @ lvgl/src/lv_core/lv_refr.c:447:26
	ldrh.w	r0, [sp, #30]
	.loc	10 447 32 is_stmt 0             @ lvgl/src/lv_core/lv_refr.c:447:32
	subs	r0, #1
	.loc	10 447 24                       @ lvgl/src/lv_core/lv_refr.c:447:24
	strh.w	r0, [sp, #38]
	.loc	10 448 17 is_stmt 1             @ lvgl/src/lv_core/lv_refr.c:448:17
	movw	r0, :lower16:disp_refr
	movt	r0, :upper16:disp_refr
	ldr	r0, [r0]
	.loc	10 448 35 is_stmt 0             @ lvgl/src/lv_core/lv_refr.c:448:35
	ldr	r2, [r0, #16]
	add	r1, sp, #32
	.loc	10 448 17                       @ lvgl/src/lv_core/lv_refr.c:448:17
	str	r1, [sp]                        @ 4-byte Spill
	blx	r2
	ldr	r0, [sp]                        @ 4-byte Reload
.Ltmp225:
	.loc	10 451 20 is_stmt 1             @ lvgl/src/lv_core/lv_refr.c:451:20
	bl	lv_area_get_height
	.loc	10 451 48 is_stmt 0             @ lvgl/src/lv_core/lv_refr.c:451:48
	ldr	r1, [sp, #40]
.Ltmp226:
	.loc	10 451 20                       @ lvgl/src/lv_core/lv_refr.c:451:20
	cmp	r0, r1
	bgt	.LBB21_11
	b	.LBB21_10
.LBB21_10:
.Ltmp227:
	.loc	10 451 57                       @ lvgl/src/lv_core/lv_refr.c:451:57
	b	.LBB21_13
.Ltmp228:
.LBB21_11:                              @   in Loop: Header=BB21_9 Depth=1
	.loc	10 454 22 is_stmt 1             @ lvgl/src/lv_core/lv_refr.c:454:22
	ldrh.w	r0, [sp, #30]
	subs	r0, #1
	strh.w	r0, [sp, #30]
	.loc	10 455 13                       @ lvgl/src/lv_core/lv_refr.c:455:13
	b	.LBB21_12
.Ltmp229:
.LBB21_12:                              @   in Loop: Header=BB21_9 Depth=1
	.loc	10 455 21 is_stmt 0             @ lvgl/src/lv_core/lv_refr.c:455:21
	ldrsh.w	r0, [sp, #30]
.Ltmp230:
	.loc	10 455 13                       @ lvgl/src/lv_core/lv_refr.c:455:13
	cmp	r0, #0
	bgt	.LBB21_9
	b	.LBB21_13
.Ltmp231:
.LBB21_13:
	.loc	10 457 16 is_stmt 1             @ lvgl/src/lv_core/lv_refr.c:457:16
	ldrsh.w	r0, [sp, #30]
.Ltmp232:
	.loc	10 457 16 is_stmt 0             @ lvgl/src/lv_core/lv_refr.c:457:16
	cmp	r0, #0
	bgt	.LBB21_15
	b	.LBB21_14
.LBB21_14:
.Ltmp233:
	.loc	10 460 17 is_stmt 1             @ lvgl/src/lv_core/lv_refr.c:460:17
	b	.LBB21_28
.Ltmp234:
.LBB21_15:
	.loc	10 463 31                       @ lvgl/src/lv_core/lv_refr.c:463:31
	ldrsh.w	r0, [sp, #38]
	.loc	10 463 34 is_stmt 0             @ lvgl/src/lv_core/lv_refr.c:463:34
	adds	r0, #1
	.loc	10 463 25                       @ lvgl/src/lv_core/lv_refr.c:463:25
	str	r0, [sp, #40]
	b	.LBB21_16
.Ltmp235:
.LBB21_16:
	.loc	10 465 9 is_stmt 1              @ lvgl/src/lv_core/lv_refr.c:465:9
	b	.LBB21_17
.Ltmp236:
.LBB21_17:
	.loc	10 0 9 is_stmt 0                @ lvgl/src/lv_core/lv_refr.c:0:9
	movs	r0, #0
	.loc	10 469 20 is_stmt 1             @ lvgl/src/lv_core/lv_refr.c:469:20
	strh.w	r0, [sp, #26]
.Ltmp237:
	.loc	10 470 19                       @ lvgl/src/lv_core/lv_refr.c:470:19
	ldr	r0, [sp, #60]
	.loc	10 470 27 is_stmt 0             @ lvgl/src/lv_core/lv_refr.c:470:27
	ldrh	r0, [r0, #2]
	.loc	10 470 17                       @ lvgl/src/lv_core/lv_refr.c:470:17
	strh.w	r0, [sp, #28]
	.loc	10 470 13                       @ lvgl/src/lv_core/lv_refr.c:470:13
	b	.LBB21_18
.LBB21_18:                              @ =>This Inner Loop Header: Depth=1
.Ltmp238:
	.loc	10 470 31                       @ lvgl/src/lv_core/lv_refr.c:470:31
	ldrsh.w	r0, [sp, #28]
	.loc	10 470 37                       @ lvgl/src/lv_core/lv_refr.c:470:37
	ldr	r1, [sp, #40]
	.loc	10 470 35                       @ lvgl/src/lv_core/lv_refr.c:470:35
	add	r0, r1
	.loc	10 470 45                       @ lvgl/src/lv_core/lv_refr.c:470:45
	subs	r0, #1
	.loc	10 470 52                       @ lvgl/src/lv_core/lv_refr.c:470:52
	ldrsh.w	r1, [sp, #46]
.Ltmp239:
	.loc	10 470 9                        @ lvgl/src/lv_core/lv_refr.c:470:9
	cmp	r0, r1
	bgt	.LBB21_25
	b	.LBB21_19
.LBB21_19:                              @   in Loop: Header=BB21_18 Depth=1
.Ltmp240:
	.loc	10 472 28 is_stmt 1             @ lvgl/src/lv_core/lv_refr.c:472:28
	ldr	r0, [sp, #60]
	.loc	10 472 36 is_stmt 0             @ lvgl/src/lv_core/lv_refr.c:472:36
	ldrh	r0, [r0]
	.loc	10 472 13                       @ lvgl/src/lv_core/lv_refr.c:472:13
	ldr	r1, [sp, #52]
	.loc	10 472 26                       @ lvgl/src/lv_core/lv_refr.c:472:26
	strh	r0, [r1, #16]
	.loc	10 473 28 is_stmt 1             @ lvgl/src/lv_core/lv_refr.c:473:28
	ldr	r0, [sp, #60]
	.loc	10 473 36 is_stmt 0             @ lvgl/src/lv_core/lv_refr.c:473:36
	ldrh	r0, [r0, #4]
	.loc	10 473 13                       @ lvgl/src/lv_core/lv_refr.c:473:13
	ldr	r1, [sp, #52]
	.loc	10 473 26                       @ lvgl/src/lv_core/lv_refr.c:473:26
	strh	r0, [r1, #20]
	.loc	10 474 28 is_stmt 1             @ lvgl/src/lv_core/lv_refr.c:474:28
	ldrh.w	r0, [sp, #28]
	.loc	10 474 13 is_stmt 0             @ lvgl/src/lv_core/lv_refr.c:474:13
	ldr	r1, [sp, #52]
	.loc	10 474 26                       @ lvgl/src/lv_core/lv_refr.c:474:26
	strh	r0, [r1, #18]
	.loc	10 475 28 is_stmt 1             @ lvgl/src/lv_core/lv_refr.c:475:28
	ldrh.w	r0, [sp, #28]
	.loc	10 475 34 is_stmt 0             @ lvgl/src/lv_core/lv_refr.c:475:34
	ldr	r1, [sp, #40]
	.loc	10 475 32                       @ lvgl/src/lv_core/lv_refr.c:475:32
	add	r0, r1
	.loc	10 475 42                       @ lvgl/src/lv_core/lv_refr.c:475:42
	subs	r0, #1
	.loc	10 475 13                       @ lvgl/src/lv_core/lv_refr.c:475:13
	ldr	r1, [sp, #52]
	.loc	10 475 26                       @ lvgl/src/lv_core/lv_refr.c:475:26
	strh	r0, [r1, #22]
.Ltmp241:
	.loc	10 476 16 is_stmt 1             @ lvgl/src/lv_core/lv_refr.c:476:16
	ldr	r0, [sp, #52]
	.loc	10 476 26 is_stmt 0             @ lvgl/src/lv_core/lv_refr.c:476:26
	ldrsh.w	r0, [r0, #22]
	.loc	10 476 31                       @ lvgl/src/lv_core/lv_refr.c:476:31
	ldrsh.w	r1, [sp, #46]
.Ltmp242:
	.loc	10 476 16                       @ lvgl/src/lv_core/lv_refr.c:476:16
	cmp	r0, r1
	ble	.LBB21_21
	b	.LBB21_20
.LBB21_20:                              @   in Loop: Header=BB21_18 Depth=1
.Ltmp243:
	.loc	10 476 50                       @ lvgl/src/lv_core/lv_refr.c:476:50
	ldrh.w	r0, [sp, #46]
	.loc	10 476 35                       @ lvgl/src/lv_core/lv_refr.c:476:35
	ldr	r1, [sp, #52]
	.loc	10 476 48                       @ lvgl/src/lv_core/lv_refr.c:476:48
	strh	r0, [r1, #22]
	.loc	10 476 35                       @ lvgl/src/lv_core/lv_refr.c:476:35
	b	.LBB21_21
.Ltmp244:
.LBB21_21:                              @   in Loop: Header=BB21_18 Depth=1
	.loc	10 477 24 is_stmt 1             @ lvgl/src/lv_core/lv_refr.c:477:24
	ldr	r0, [sp, #52]
	.loc	10 477 34 is_stmt 0             @ lvgl/src/lv_core/lv_refr.c:477:34
	ldrh	r0, [r0, #22]
	.loc	10 477 22                       @ lvgl/src/lv_core/lv_refr.c:477:22
	strh.w	r0, [sp, #26]
.Ltmp245:
	.loc	10 478 16 is_stmt 1             @ lvgl/src/lv_core/lv_refr.c:478:16
	ldrsh.w	r0, [sp, #46]
	.loc	10 478 22 is_stmt 0             @ lvgl/src/lv_core/lv_refr.c:478:22
	ldrsh.w	r1, [sp, #26]
.Ltmp246:
	.loc	10 478 16                       @ lvgl/src/lv_core/lv_refr.c:478:16
	cmp	r0, r1
	bne	.LBB21_23
	b	.LBB21_22
.LBB21_22:                              @   in Loop: Header=BB21_18 Depth=1
.Ltmp247:
	.loc	10 478 32                       @ lvgl/src/lv_core/lv_refr.c:478:32
	movw	r0, :lower16:disp_refr
	movt	r0, :upper16:disp_refr
	ldr	r0, [r0]
	.loc	10 478 50                       @ lvgl/src/lv_core/lv_refr.c:478:50
	ldr	r1, [r0, #4]
	.loc	10 478 68                       @ lvgl/src/lv_core/lv_refr.c:478:68
	ldr	r0, [r1, #32]
	orr	r0, r0, #2
	str	r0, [r1, #32]
	.loc	10 478 32                       @ lvgl/src/lv_core/lv_refr.c:478:32
	b	.LBB21_23
.Ltmp248:
.LBB21_23:                              @   in Loop: Header=BB21_18 Depth=1
	.loc	10 479 31 is_stmt 1             @ lvgl/src/lv_core/lv_refr.c:479:31
	ldr	r0, [sp, #60]
	.loc	10 479 13 is_stmt 0             @ lvgl/src/lv_core/lv_refr.c:479:13
	bl	lv_refr_area_part
	.loc	10 480 9 is_stmt 1              @ lvgl/src/lv_core/lv_refr.c:480:9
	b	.LBB21_24
.Ltmp249:
.LBB21_24:                              @   in Loop: Header=BB21_18 Depth=1
	.loc	10 470 63                       @ lvgl/src/lv_core/lv_refr.c:470:63
	ldr	r1, [sp, #40]
	.loc	10 470 60 is_stmt 0             @ lvgl/src/lv_core/lv_refr.c:470:60
	ldrh.w	r0, [sp, #28]
	add	r0, r1
	strh.w	r0, [sp, #28]
	.loc	10 470 9                        @ lvgl/src/lv_core/lv_refr.c:470:9
	b	.LBB21_18
.Ltmp250:
.LBB21_25:
	.loc	10 483 12 is_stmt 1             @ lvgl/src/lv_core/lv_refr.c:483:12
	ldrsh.w	r0, [sp, #46]
	.loc	10 483 18 is_stmt 0             @ lvgl/src/lv_core/lv_refr.c:483:18
	ldrsh.w	r1, [sp, #26]
.Ltmp251:
	.loc	10 483 12                       @ lvgl/src/lv_core/lv_refr.c:483:12
	cmp	r0, r1
	beq	.LBB21_27
	b	.LBB21_26
.LBB21_26:
.Ltmp252:
	.loc	10 485 28 is_stmt 1             @ lvgl/src/lv_core/lv_refr.c:485:28
	ldr	r0, [sp, #60]
	.loc	10 485 36 is_stmt 0             @ lvgl/src/lv_core/lv_refr.c:485:36
	ldrh	r0, [r0]
	.loc	10 485 13                       @ lvgl/src/lv_core/lv_refr.c:485:13
	ldr	r1, [sp, #52]
	.loc	10 485 26                       @ lvgl/src/lv_core/lv_refr.c:485:26
	strh	r0, [r1, #16]
	.loc	10 486 28 is_stmt 1             @ lvgl/src/lv_core/lv_refr.c:486:28
	ldr	r0, [sp, #60]
	.loc	10 486 36 is_stmt 0             @ lvgl/src/lv_core/lv_refr.c:486:36
	ldrh	r0, [r0, #4]
	.loc	10 486 13                       @ lvgl/src/lv_core/lv_refr.c:486:13
	ldr	r1, [sp, #52]
	.loc	10 486 26                       @ lvgl/src/lv_core/lv_refr.c:486:26
	strh	r0, [r1, #20]
	.loc	10 487 28 is_stmt 1             @ lvgl/src/lv_core/lv_refr.c:487:28
	ldrh.w	r0, [sp, #28]
	.loc	10 487 13 is_stmt 0             @ lvgl/src/lv_core/lv_refr.c:487:13
	ldr	r1, [sp, #52]
	.loc	10 487 26                       @ lvgl/src/lv_core/lv_refr.c:487:26
	strh	r0, [r1, #18]
	.loc	10 488 28 is_stmt 1             @ lvgl/src/lv_core/lv_refr.c:488:28
	ldrh.w	r0, [sp, #46]
	.loc	10 488 13 is_stmt 0             @ lvgl/src/lv_core/lv_refr.c:488:13
	ldr	r1, [sp, #52]
	.loc	10 488 26                       @ lvgl/src/lv_core/lv_refr.c:488:26
	strh	r0, [r1, #22]
	.loc	10 490 13 is_stmt 1             @ lvgl/src/lv_core/lv_refr.c:490:13
	movw	r0, :lower16:disp_refr
	movt	r0, :upper16:disp_refr
	ldr	r0, [r0]
	.loc	10 490 31 is_stmt 0             @ lvgl/src/lv_core/lv_refr.c:490:31
	ldr	r1, [r0, #4]
	.loc	10 490 49                       @ lvgl/src/lv_core/lv_refr.c:490:49
	ldr	r0, [r1, #32]
	orr	r0, r0, #2
	str	r0, [r1, #32]
	.loc	10 491 31 is_stmt 1             @ lvgl/src/lv_core/lv_refr.c:491:31
	ldr	r0, [sp, #60]
	.loc	10 491 13 is_stmt 0             @ lvgl/src/lv_core/lv_refr.c:491:13
	bl	lv_refr_area_part
	.loc	10 492 9 is_stmt 1              @ lvgl/src/lv_core/lv_refr.c:492:9
	b	.LBB21_27
.Ltmp253:
.LBB21_27:
	.loc	10 0 9 is_stmt 0                @ lvgl/src/lv_core/lv_refr.c:0:9
	b	.LBB21_28
.LBB21_28:
	.loc	10 494 1 is_stmt 1              @ lvgl/src/lv_core/lv_refr.c:494:1
	add	sp, #64
	pop	{r7, pc}
.Ltmp254:
.Lfunc_end21:
	.size	lv_refr_area, .Lfunc_end21-lv_refr_area
	.cfi_endproc
	.cantunwind
	.fnend
                                        @ -- End function
	.section	.text.lv_refr_area_part,"ax",%progbits
	.p2align	3                               @ -- Begin function lv_refr_area_part
	.type	lv_refr_area_part,%function
	.code	16                              @ @lv_refr_area_part
	.thumb_func
lv_refr_area_part:
.Lfunc_begin22:
	.loc	10 501 0                        @ lvgl/src/lv_core/lv_refr.c:501:0
	.fnstart
	.cfi_startproc
@ %bb.0:
	.save	{r7, lr}
	push	{r7, lr}
	.cfi_def_cfa_offset 8
	.cfi_offset lr, -4
	.cfi_offset r7, -8
	.pad	#200
	sub	sp, #200
	.cfi_def_cfa_offset 208
	str	r0, [sp, #196]
.Ltmp255:
	.loc	10 502 43 prologue_end          @ lvgl/src/lv_core/lv_refr.c:502:43
	movw	r0, :lower16:disp_refr
	movt	r0, :upper16:disp_refr
	str	r0, [sp, #32]                   @ 4-byte Spill
	ldr	r0, [r0]
	.loc	10 502 27 is_stmt 0             @ lvgl/src/lv_core/lv_refr.c:502:27
	bl	lv_disp_get_buf
	mov	r1, r0
	.loc	10 502 21                       @ lvgl/src/lv_core/lv_refr.c:502:21
	ldr	r0, [sp, #32]                   @ 4-byte Reload
	str	r1, [sp, #192]
.Ltmp256:
	.loc	10 506 30 is_stmt 1             @ lvgl/src/lv_core/lv_refr.c:506:30
	ldr	r0, [r0]
	.loc	10 506 8 is_stmt 0              @ lvgl/src/lv_core/lv_refr.c:506:8
	bl	lv_disp_is_double_buf
.Ltmp257:
	.loc	10 506 8                        @ lvgl/src/lv_core/lv_refr.c:506:8
	cbnz	r0, .LBB22_7
	b	.LBB22_1
.LBB22_1:
.Ltmp258:
	.loc	10 507 9 is_stmt 1              @ lvgl/src/lv_core/lv_refr.c:507:9
	b	.LBB22_2
.LBB22_2:                               @ =>This Inner Loop Header: Depth=1
	.loc	10 507 15 is_stmt 0             @ lvgl/src/lv_core/lv_refr.c:507:15
	ldr	r0, [sp, #192]
	.loc	10 507 20                       @ lvgl/src/lv_core/lv_refr.c:507:20
	ldr	r0, [r0, #24]
	.loc	10 507 9                        @ lvgl/src/lv_core/lv_refr.c:507:9
	cbz	r0, .LBB22_6
	b	.LBB22_3
.LBB22_3:                               @   in Loop: Header=BB22_2 Depth=1
.Ltmp259:
	.loc	10 508 16 is_stmt 1             @ lvgl/src/lv_core/lv_refr.c:508:16
	movw	r0, :lower16:disp_refr
	movt	r0, :upper16:disp_refr
	ldr	r0, [r0]
	.loc	10 508 34 is_stmt 0             @ lvgl/src/lv_core/lv_refr.c:508:34
	ldr	r0, [r0, #28]
.Ltmp260:
	.loc	10 508 16                       @ lvgl/src/lv_core/lv_refr.c:508:16
	cbz	r0, .LBB22_5
	b	.LBB22_4
.LBB22_4:                               @   in Loop: Header=BB22_2 Depth=1
.Ltmp261:
	.loc	10 508 43                       @ lvgl/src/lv_core/lv_refr.c:508:43
	movw	r0, :lower16:disp_refr
	movt	r0, :upper16:disp_refr
	ldr	r0, [r0]
	.loc	10 508 61                       @ lvgl/src/lv_core/lv_refr.c:508:61
	ldr	r1, [r0, #28]
	.loc	10 508 43                       @ lvgl/src/lv_core/lv_refr.c:508:43
	blx	r1
	b	.LBB22_5
.Ltmp262:
.LBB22_5:                               @   in Loop: Header=BB22_2 Depth=1
	.loc	10 507 9 is_stmt 1              @ lvgl/src/lv_core/lv_refr.c:507:9
	b	.LBB22_2
.LBB22_6:
	.loc	10 510 5                        @ lvgl/src/lv_core/lv_refr.c:510:5
	b	.LBB22_7
.Ltmp263:
.LBB22_7:
	.loc	10 0 5 is_stmt 0                @ lvgl/src/lv_core/lv_refr.c:0:5
	movs	r0, #0
	.loc	10 512 16 is_stmt 1             @ lvgl/src/lv_core/lv_refr.c:512:16
	str	r0, [sp, #188]
	.loc	10 513 16                       @ lvgl/src/lv_core/lv_refr.c:513:16
	str	r0, [sp, #184]
	.loc	10 518 37                       @ lvgl/src/lv_core/lv_refr.c:518:37
	ldr	r1, [sp, #196]
	.loc	10 518 46 is_stmt 0             @ lvgl/src/lv_core/lv_refr.c:518:46
	ldr	r0, [sp, #192]
	.loc	10 518 51                       @ lvgl/src/lv_core/lv_refr.c:518:51
	add.w	r2, r0, #16
	add	r0, sp, #176
	.loc	10 518 5                        @ lvgl/src/lv_core/lv_refr.c:518:5
	str	r0, [sp, #24]                   @ 4-byte Spill
	bl	_lv_area_intersect
	.loc	10 521 72 is_stmt 1             @ lvgl/src/lv_core/lv_refr.c:521:72
	movw	r0, :lower16:disp_refr
	movt	r0, :upper16:disp_refr
	str	r0, [sp, #28]                   @ 4-byte Spill
	ldr	r0, [r0]
	.loc	10 521 52 is_stmt 0             @ lvgl/src/lv_core/lv_refr.c:521:52
	bl	lv_disp_get_scr_act
	mov	r1, r0
	.loc	10 521 19                       @ lvgl/src/lv_core/lv_refr.c:521:19
	ldr	r0, [sp, #24]                   @ 4-byte Reload
	bl	lv_refr_get_top_obj
	mov	r1, r0
	.loc	10 521 17                       @ lvgl/src/lv_core/lv_refr.c:521:17
	ldr	r0, [sp, #28]                   @ 4-byte Reload
	str	r1, [sp, #188]
.Ltmp264:
	.loc	10 522 8 is_stmt 1              @ lvgl/src/lv_core/lv_refr.c:522:8
	ldr	r0, [r0]
	.loc	10 522 19 is_stmt 0             @ lvgl/src/lv_core/lv_refr.c:522:19
	ldr	r0, [r0, #64]
.Ltmp265:
	.loc	10 522 8                        @ lvgl/src/lv_core/lv_refr.c:522:8
	cbz	r0, .LBB22_9
	b	.LBB22_8
.LBB22_8:
.Ltmp266:
	.loc	10 523 57 is_stmt 1             @ lvgl/src/lv_core/lv_refr.c:523:57
	movw	r0, :lower16:disp_refr
	movt	r0, :upper16:disp_refr
	ldr	r0, [r0]
	.loc	10 523 68 is_stmt 0             @ lvgl/src/lv_core/lv_refr.c:523:68
	ldr	r1, [r0, #64]
	add	r0, sp, #176
	.loc	10 523 24                       @ lvgl/src/lv_core/lv_refr.c:523:24
	bl	lv_refr_get_top_obj
	.loc	10 523 22                       @ lvgl/src/lv_core/lv_refr.c:523:22
	str	r0, [sp, #184]
	.loc	10 524 5 is_stmt 1              @ lvgl/src/lv_core/lv_refr.c:524:5
	b	.LBB22_9
.Ltmp267:
.LBB22_9:
	.loc	10 527 8                        @ lvgl/src/lv_core/lv_refr.c:527:8
	ldr	r0, [sp, #188]
	.loc	10 527 28 is_stmt 0             @ lvgl/src/lv_core/lv_refr.c:527:28
	cmp	r0, #0
	bne	.LBB22_18
	b	.LBB22_10
.LBB22_10:
	.loc	10 527 31                       @ lvgl/src/lv_core/lv_refr.c:527:31
	ldr	r0, [sp, #184]
.Ltmp268:
	.loc	10 527 8                        @ lvgl/src/lv_core/lv_refr.c:527:8
	cmp	r0, #0
	bne	.LBB22_18
	b	.LBB22_11
.LBB22_11:
.Ltmp269:
	.loc	10 528 12 is_stmt 1             @ lvgl/src/lv_core/lv_refr.c:528:12
	movw	r0, :lower16:disp_refr
	movt	r0, :upper16:disp_refr
	ldr	r0, [r0]
	.loc	10 528 23 is_stmt 0             @ lvgl/src/lv_core/lv_refr.c:528:23
	ldr	r0, [r0, #88]
.Ltmp270:
	.loc	10 528 12                       @ lvgl/src/lv_core/lv_refr.c:528:12
	cbz	r0, .LBB22_16
	b	.LBB22_12
.LBB22_12:
	.loc	10 0 12                         @ lvgl/src/lv_core/lv_refr.c:0:12
	add	r0, sp, #156
.Ltmp271:
	.loc	10 530 13 is_stmt 1             @ lvgl/src/lv_core/lv_refr.c:530:13
	bl	lv_draw_img_dsc_init
	.loc	10 531 23                       @ lvgl/src/lv_core/lv_refr.c:531:23
	movw	r0, :lower16:disp_refr
	movt	r0, :upper16:disp_refr
	ldr	r1, [r0]
	.loc	10 531 34 is_stmt 0             @ lvgl/src/lv_core/lv_refr.c:531:34
	ldrb.w	r1, [r1, #92]
	.loc	10 531 21                       @ lvgl/src/lv_core/lv_refr.c:531:21
	strb.w	r1, [sp, #156]
	.loc	10 534 43 is_stmt 1             @ lvgl/src/lv_core/lv_refr.c:534:43
	ldr	r0, [r0]
	.loc	10 534 54 is_stmt 0             @ lvgl/src/lv_core/lv_refr.c:534:54
	ldr	r0, [r0, #88]
	add	r1, sp, #152
	.loc	10 534 19                       @ lvgl/src/lv_core/lv_refr.c:534:19
	bl	lv_img_decoder_get_info
	.loc	10 534 17                       @ lvgl/src/lv_core/lv_refr.c:534:17
	strb.w	r0, [sp, #151]
.Ltmp272:
	.loc	10 535 16 is_stmt 1             @ lvgl/src/lv_core/lv_refr.c:535:16
	ldrb.w	r0, [sp, #151]
.Ltmp273:
	.loc	10 535 16 is_stmt 0             @ lvgl/src/lv_core/lv_refr.c:535:16
	cmp	r0, #1
	bne	.LBB22_14
	b	.LBB22_13
.LBB22_13:
.Ltmp274:
	.loc	10 537 46 is_stmt 1             @ lvgl/src/lv_core/lv_refr.c:537:46
	ldrb.w	r1, [sp, #155]
	ldrh.w	r0, [sp, #153]
	orr.w	r1, r0, r1, lsl #16
	ubfx	r0, r1, #2, #11
	.loc	10 537 48 is_stmt 0             @ lvgl/src/lv_core/lv_refr.c:537:48
	subs	r3, r0, #1
	mov.w	r0, #-1
	.loc	10 537 62                       @ lvgl/src/lv_core/lv_refr.c:537:62
	add.w	r0, r0, r1, lsr #13
	.loc	10 537 17                       @ lvgl/src/lv_core/lv_refr.c:537:17
	mov	r1, sp
	str	r0, [r1]
	add	r0, sp, #140
	str	r0, [sp, #20]                   @ 4-byte Spill
	movs	r2, #0
	mov	r1, r2
	bl	lv_area_set
	ldr	r0, [sp, #20]                   @ 4-byte Reload
	.loc	10 538 46 is_stmt 1             @ lvgl/src/lv_core/lv_refr.c:538:46
	movw	r1, :lower16:disp_refr
	movt	r1, :upper16:disp_refr
	ldr	r1, [r1]
	.loc	10 538 57 is_stmt 0             @ lvgl/src/lv_core/lv_refr.c:538:57
	ldr	r2, [r1, #88]
	add	r1, sp, #176
	add	r3, sp, #156
	.loc	10 538 17                       @ lvgl/src/lv_core/lv_refr.c:538:17
	bl	lv_draw_img
	.loc	10 539 13 is_stmt 1             @ lvgl/src/lv_core/lv_refr.c:539:13
	b	.LBB22_15
.Ltmp275:
.LBB22_14:
	.loc	10 0 13 is_stmt 0               @ lvgl/src/lv_core/lv_refr.c:0:13
	b	.LBB22_15
.LBB22_15:
	.loc	10 543 9 is_stmt 1              @ lvgl/src/lv_core/lv_refr.c:543:9
	b	.LBB22_17
.Ltmp276:
.LBB22_16:
	.loc	10 0 9 is_stmt 0                @ lvgl/src/lv_core/lv_refr.c:0:9
	add	r0, sp, #36
.Ltmp277:
	.loc	10 546 13 is_stmt 1             @ lvgl/src/lv_core/lv_refr.c:546:13
	str	r0, [sp, #16]                   @ 4-byte Spill
	bl	lv_draw_rect_dsc_init
	ldr	r2, [sp, #16]                   @ 4-byte Reload
	.loc	10 547 28                       @ lvgl/src/lv_core/lv_refr.c:547:28
	movw	r0, :lower16:disp_refr
	movt	r0, :upper16:disp_refr
	ldr	r1, [r0]
	.loc	10 547 39 is_stmt 0             @ lvgl/src/lv_core/lv_refr.c:547:39
	ldr	r1, [r1, #84]
	str	r1, [sp, #40]
	.loc	10 548 26 is_stmt 1             @ lvgl/src/lv_core/lv_refr.c:548:26
	ldr	r0, [r0]
	.loc	10 548 37 is_stmt 0             @ lvgl/src/lv_core/lv_refr.c:548:37
	ldrb.w	r0, [r0, #92]
	.loc	10 548 24                       @ lvgl/src/lv_core/lv_refr.c:548:24
	strb.w	r0, [sp, #54]
	add	r1, sp, #176
	.loc	10 549 13 is_stmt 1             @ lvgl/src/lv_core/lv_refr.c:549:13
	mov	r0, r1
	bl	lv_draw_rect
	b	.LBB22_17
.Ltmp278:
.LBB22_17:
	.loc	10 552 5                        @ lvgl/src/lv_core/lv_refr.c:552:5
	b	.LBB22_18
.Ltmp279:
.LBB22_18:
	.loc	10 554 8                        @ lvgl/src/lv_core/lv_refr.c:554:8
	movw	r0, :lower16:disp_refr
	movt	r0, :upper16:disp_refr
	ldr	r0, [r0]
	.loc	10 554 19 is_stmt 0             @ lvgl/src/lv_core/lv_refr.c:554:19
	ldr	r0, [r0, #64]
.Ltmp280:
	.loc	10 554 8                        @ lvgl/src/lv_core/lv_refr.c:554:8
	cbz	r0, .LBB22_22
	b	.LBB22_19
.LBB22_19:
.Ltmp281:
	.loc	10 556 12 is_stmt 1             @ lvgl/src/lv_core/lv_refr.c:556:12
	ldr	r0, [sp, #184]
.Ltmp282:
	.loc	10 556 12 is_stmt 0             @ lvgl/src/lv_core/lv_refr.c:556:12
	cbnz	r0, .LBB22_21
	b	.LBB22_20
.LBB22_20:
.Ltmp283:
	.loc	10 557 28 is_stmt 1             @ lvgl/src/lv_core/lv_refr.c:557:28
	movw	r0, :lower16:disp_refr
	movt	r0, :upper16:disp_refr
	ldr	r0, [r0]
	.loc	10 557 39 is_stmt 0             @ lvgl/src/lv_core/lv_refr.c:557:39
	ldr	r0, [r0, #64]
	.loc	10 557 26                       @ lvgl/src/lv_core/lv_refr.c:557:26
	str	r0, [sp, #184]
	.loc	10 558 9 is_stmt 1              @ lvgl/src/lv_core/lv_refr.c:558:9
	b	.LBB22_21
.Ltmp284:
.LBB22_21:
	.loc	10 560 34                       @ lvgl/src/lv_core/lv_refr.c:560:34
	ldr	r0, [sp, #184]
	add	r1, sp, #176
	.loc	10 560 9 is_stmt 0              @ lvgl/src/lv_core/lv_refr.c:560:9
	bl	lv_refr_obj_and_children
	.loc	10 562 5 is_stmt 1              @ lvgl/src/lv_core/lv_refr.c:562:5
	b	.LBB22_22
.Ltmp285:
.LBB22_22:
	.loc	10 564 8                        @ lvgl/src/lv_core/lv_refr.c:564:8
	ldr	r0, [sp, #188]
.Ltmp286:
	.loc	10 564 8 is_stmt 0              @ lvgl/src/lv_core/lv_refr.c:564:8
	cbnz	r0, .LBB22_24
	b	.LBB22_23
.LBB22_23:
.Ltmp287:
	.loc	10 565 23 is_stmt 1             @ lvgl/src/lv_core/lv_refr.c:565:23
	movw	r0, :lower16:disp_refr
	movt	r0, :upper16:disp_refr
	ldr	r0, [r0]
	.loc	10 565 34 is_stmt 0             @ lvgl/src/lv_core/lv_refr.c:565:34
	ldr	r0, [r0, #60]
	.loc	10 565 21                       @ lvgl/src/lv_core/lv_refr.c:565:21
	str	r0, [sp, #188]
	.loc	10 566 5 is_stmt 1              @ lvgl/src/lv_core/lv_refr.c:566:5
	b	.LBB22_24
.Ltmp288:
.LBB22_24:
	.loc	10 568 30                       @ lvgl/src/lv_core/lv_refr.c:568:30
	ldr	r0, [sp, #188]
	add	r1, sp, #176
	.loc	10 568 5 is_stmt 0              @ lvgl/src/lv_core/lv_refr.c:568:5
	str	r1, [sp, #8]                    @ 4-byte Spill
	bl	lv_refr_obj_and_children
	.loc	10 571 52 is_stmt 1             @ lvgl/src/lv_core/lv_refr.c:571:52
	movw	r0, :lower16:disp_refr
	movt	r0, :upper16:disp_refr
	str	r0, [sp, #12]                   @ 4-byte Spill
	ldr	r0, [r0]
	.loc	10 571 30 is_stmt 0             @ lvgl/src/lv_core/lv_refr.c:571:30
	bl	lv_disp_get_layer_top
	ldr	r1, [sp, #8]                    @ 4-byte Reload
	.loc	10 571 5                        @ lvgl/src/lv_core/lv_refr.c:571:5
	bl	lv_refr_obj_and_children
	ldr	r0, [sp, #12]                   @ 4-byte Reload
	.loc	10 572 52 is_stmt 1             @ lvgl/src/lv_core/lv_refr.c:572:52
	ldr	r0, [r0]
	.loc	10 572 30 is_stmt 0             @ lvgl/src/lv_core/lv_refr.c:572:30
	bl	lv_disp_get_layer_sys
	ldr	r1, [sp, #8]                    @ 4-byte Reload
	.loc	10 572 5                        @ lvgl/src/lv_core/lv_refr.c:572:5
	bl	lv_refr_obj_and_children
	ldr	r0, [sp, #12]                   @ 4-byte Reload
.Ltmp289:
	.loc	10 576 35 is_stmt 1             @ lvgl/src/lv_core/lv_refr.c:576:35
	ldr	r0, [r0]
	.loc	10 576 8 is_stmt 0              @ lvgl/src/lv_core/lv_refr.c:576:8
	bl	lv_disp_is_true_double_buf
.Ltmp290:
	.loc	10 576 8                        @ lvgl/src/lv_core/lv_refr.c:576:8
	cbnz	r0, .LBB22_26
	b	.LBB22_25
.LBB22_25:
.Ltmp291:
	.loc	10 577 9 is_stmt 1              @ lvgl/src/lv_core/lv_refr.c:577:9
	bl	lv_refr_vdb_flush
	.loc	10 578 5                        @ lvgl/src/lv_core/lv_refr.c:578:5
	b	.LBB22_26
.Ltmp292:
.LBB22_26:
	.loc	10 579 1                        @ lvgl/src/lv_core/lv_refr.c:579:1
	add	sp, #200
	pop	{r7, pc}
.Ltmp293:
.Lfunc_end22:
	.size	lv_refr_area_part, .Lfunc_end22-lv_refr_area_part
	.cfi_endproc
	.cantunwind
	.fnend
                                        @ -- End function
	.section	.text.lv_area_get_height,"ax",%progbits
	.p2align	3                               @ -- Begin function lv_area_get_height
	.type	lv_area_get_height,%function
	.code	16                              @ @lv_area_get_height
	.thumb_func
lv_area_get_height:
.Lfunc_begin23:
	.loc	5 118 0                         @ lvgl/src/lv_core/../lv_gpu/../lv_misc/lv_area.h:118:0
	.fnstart
	.cfi_startproc
@ %bb.0:
	.pad	#4
	sub	sp, #4
	.cfi_def_cfa_offset 4
	str	r0, [sp]
.Ltmp294:
	.loc	5 119 25 prologue_end           @ lvgl/src/lv_core/../lv_gpu/../lv_misc/lv_area.h:119:25
	ldr	r1, [sp]
	ldrh	r0, [r1, #6]
	.loc	5 119 38 is_stmt 0              @ lvgl/src/lv_core/../lv_gpu/../lv_misc/lv_area.h:119:38
	ldrh	r1, [r1, #2]
	.loc	5 119 36                        @ lvgl/src/lv_core/../lv_gpu/../lv_misc/lv_area.h:119:36
	subs	r0, r0, r1
	.loc	5 119 49                        @ lvgl/src/lv_core/../lv_gpu/../lv_misc/lv_area.h:119:49
	adds	r0, #1
	.loc	5 119 5                         @ lvgl/src/lv_core/../lv_gpu/../lv_misc/lv_area.h:119:5
	sxth	r0, r0
	add	sp, #4
	bx	lr
.Ltmp295:
.Lfunc_end23:
	.size	lv_area_get_height, .Lfunc_end23-lv_area_get_height
	.cfi_endproc
	.cantunwind
	.fnend
                                        @ -- End function
	.section	.text.lv_refr_get_top_obj,"ax",%progbits
	.p2align	3                               @ -- Begin function lv_refr_get_top_obj
	.type	lv_refr_get_top_obj,%function
	.code	16                              @ @lv_refr_get_top_obj
	.thumb_func
lv_refr_get_top_obj:
.Lfunc_begin24:
	.loc	10 588 0 is_stmt 1              @ lvgl/src/lv_core/lv_refr.c:588:0
	.fnstart
	.cfi_startproc
@ %bb.0:
	.save	{r7, lr}
	push	{r7, lr}
	.cfi_def_cfa_offset 8
	.cfi_offset lr, -4
	.cfi_offset r7, -8
	.pad	#24
	sub	sp, #24
	.cfi_def_cfa_offset 32
	str	r0, [sp, #16]
	str	r1, [sp, #12]
	movs	r2, #0
.Ltmp296:
	.loc	10 589 16 prologue_end          @ lvgl/src/lv_core/lv_refr.c:589:16
	str	r2, [sp, #8]
.Ltmp297:
	.loc	10 592 23                       @ lvgl/src/lv_core/lv_refr.c:592:23
	ldr	r0, [sp, #16]
	.loc	10 592 32 is_stmt 0             @ lvgl/src/lv_core/lv_refr.c:592:32
	ldr	r1, [sp, #12]
	.loc	10 592 37                       @ lvgl/src/lv_core/lv_refr.c:592:37
	adds	r1, #16
	.loc	10 592 8                        @ lvgl/src/lv_core/lv_refr.c:592:8
	bl	_lv_area_is_in
	.loc	10 592 48                       @ lvgl/src/lv_core/lv_refr.c:592:48
	cmp	r0, #0
	beq	.LBB24_18
	b	.LBB24_1
.LBB24_1:
	.loc	10 592 51                       @ lvgl/src/lv_core/lv_refr.c:592:51
	ldr	r0, [sp, #12]
	.loc	10 592 56                       @ lvgl/src/lv_core/lv_refr.c:592:56
	ldrb.w	r0, [r0, #52]
	lsrs	r0, r0, #4
.Ltmp298:
	.loc	10 592 8                        @ lvgl/src/lv_core/lv_refr.c:592:8
	lsls	r0, r0, #31
	cmp	r0, #0
	bne	.LBB24_18
	b	.LBB24_2
.LBB24_2:
.Ltmp299:
	.loc	10 593 38 is_stmt 1             @ lvgl/src/lv_core/lv_refr.c:593:38
	ldr	r0, [sp, #12]
	.loc	10 593 43 is_stmt 0             @ lvgl/src/lv_core/lv_refr.c:593:43
	ldr	r3, [r0, #32]
	.loc	10 593 58                       @ lvgl/src/lv_core/lv_refr.c:593:58
	ldr	r1, [sp, #16]
	movs	r2, #2
	.loc	10 593 38                       @ lvgl/src/lv_core/lv_refr.c:593:38
	blx	r3
	.loc	10 593 25                       @ lvgl/src/lv_core/lv_refr.c:593:25
	strb.w	r0, [sp, #7]
.Ltmp300:
	.loc	10 594 12 is_stmt 1             @ lvgl/src/lv_core/lv_refr.c:594:12
	ldrb.w	r0, [sp, #7]
.Ltmp301:
	.loc	10 594 12 is_stmt 0             @ lvgl/src/lv_core/lv_refr.c:594:12
	cmp	r0, #3
	bne	.LBB24_4
	b	.LBB24_3
.LBB24_3:
	.loc	10 0 12                         @ lvgl/src/lv_core/lv_refr.c:0:12
	movs	r0, #0
.Ltmp302:
	.loc	10 594 48                       @ lvgl/src/lv_core/lv_refr.c:594:48
	str	r0, [sp, #20]
	b	.LBB24_19
.Ltmp303:
.LBB24_4:
	.loc	10 597 12 is_stmt 1             @ lvgl/src/lv_core/lv_refr.c:597:12
	ldrb.w	r0, [sp, #7]
	.loc	10 597 46 is_stmt 0             @ lvgl/src/lv_core/lv_refr.c:597:46
	cmp	r0, #1
	bne	.LBB24_7
	b	.LBB24_5
.LBB24_5:
	.loc	10 597 76                       @ lvgl/src/lv_core/lv_refr.c:597:76
	ldr	r0, [sp, #12]
	movs	r1, #0
	.loc	10 597 49                       @ lvgl/src/lv_core/lv_refr.c:597:49
	bl	lv_obj_get_style_opa_scale
.Ltmp304:
	.loc	10 597 12                       @ lvgl/src/lv_core/lv_refr.c:597:12
	cmp	r0, #255
	beq	.LBB24_7
	b	.LBB24_6
.LBB24_6:
	.loc	10 0 12                         @ lvgl/src/lv_core/lv_refr.c:0:12
	movs	r0, #2
.Ltmp305:
	.loc	10 598 24 is_stmt 1             @ lvgl/src/lv_core/lv_refr.c:598:24
	strb.w	r0, [sp, #7]
	.loc	10 599 9                        @ lvgl/src/lv_core/lv_refr.c:599:9
	b	.LBB24_7
.Ltmp306:
.LBB24_7:
	.loc	10 603 9                        @ lvgl/src/lv_core/lv_refr.c:603:9
	ldr	r0, [sp, #12]
	adds	r0, #4
	bl	_lv_ll_get_head
	str	r0, [sp]
	b	.LBB24_8
.LBB24_8:                               @ =>This Inner Loop Header: Depth=1
.Ltmp307:
	.loc	10 603 9 is_stmt 0              @ lvgl/src/lv_core/lv_refr.c:603:9
	ldr	r0, [sp]
.Ltmp308:
	.loc	10 603 9                        @ lvgl/src/lv_core/lv_refr.c:603:9
	cbz	r0, .LBB24_13
	b	.LBB24_9
.LBB24_9:                               @   in Loop: Header=BB24_8 Depth=1
.Ltmp309:
	.loc	10 604 43 is_stmt 1             @ lvgl/src/lv_core/lv_refr.c:604:43
	ldr	r0, [sp, #16]
	.loc	10 604 51 is_stmt 0             @ lvgl/src/lv_core/lv_refr.c:604:51
	ldr	r1, [sp]
	.loc	10 604 23                       @ lvgl/src/lv_core/lv_refr.c:604:23
	bl	lv_refr_get_top_obj
	.loc	10 604 21                       @ lvgl/src/lv_core/lv_refr.c:604:21
	str	r0, [sp, #8]
.Ltmp310:
	.loc	10 607 16 is_stmt 1             @ lvgl/src/lv_core/lv_refr.c:607:16
	ldr	r0, [sp, #8]
.Ltmp311:
	.loc	10 607 16 is_stmt 0             @ lvgl/src/lv_core/lv_refr.c:607:16
	cbz	r0, .LBB24_11
	b	.LBB24_10
.LBB24_10:
.Ltmp312:
	.loc	10 608 17 is_stmt 1             @ lvgl/src/lv_core/lv_refr.c:608:17
	b	.LBB24_13
.Ltmp313:
.LBB24_11:                              @   in Loop: Header=BB24_8 Depth=1
	.loc	10 610 9                        @ lvgl/src/lv_core/lv_refr.c:610:9
	b	.LBB24_12
.Ltmp314:
.LBB24_12:                              @   in Loop: Header=BB24_8 Depth=1
	.loc	10 603 9                        @ lvgl/src/lv_core/lv_refr.c:603:9
	ldr	r0, [sp, #12]
	adds	r0, #4
	ldr	r1, [sp]
	bl	_lv_ll_get_next
	str	r0, [sp]
	b	.LBB24_8
.Ltmp315:
.LBB24_13:
	.loc	10 613 12                       @ lvgl/src/lv_core/lv_refr.c:613:12
	ldr	r0, [sp, #8]
.Ltmp316:
	.loc	10 613 12 is_stmt 0             @ lvgl/src/lv_core/lv_refr.c:613:12
	cbnz	r0, .LBB24_17
	b	.LBB24_14
.LBB24_14:
.Ltmp317:
	.loc	10 614 16 is_stmt 1             @ lvgl/src/lv_core/lv_refr.c:614:16
	ldrb.w	r0, [sp, #7]
.Ltmp318:
	.loc	10 614 16 is_stmt 0             @ lvgl/src/lv_core/lv_refr.c:614:16
	cmp	r0, #1
	bne	.LBB24_16
	b	.LBB24_15
.LBB24_15:
.Ltmp319:
	.loc	10 615 27 is_stmt 1             @ lvgl/src/lv_core/lv_refr.c:615:27
	ldr	r0, [sp, #12]
	.loc	10 615 25 is_stmt 0             @ lvgl/src/lv_core/lv_refr.c:615:25
	str	r0, [sp, #8]
	.loc	10 616 13 is_stmt 1             @ lvgl/src/lv_core/lv_refr.c:616:13
	b	.LBB24_16
.Ltmp320:
.LBB24_16:
	.loc	10 617 9                        @ lvgl/src/lv_core/lv_refr.c:617:9
	b	.LBB24_17
.Ltmp321:
.LBB24_17:
	.loc	10 618 5                        @ lvgl/src/lv_core/lv_refr.c:618:5
	b	.LBB24_18
.Ltmp322:
.LBB24_18:
	.loc	10 620 12                       @ lvgl/src/lv_core/lv_refr.c:620:12
	ldr	r0, [sp, #8]
	.loc	10 620 5 is_stmt 0              @ lvgl/src/lv_core/lv_refr.c:620:5
	str	r0, [sp, #20]
	b	.LBB24_19
.LBB24_19:
	.loc	10 621 1 is_stmt 1              @ lvgl/src/lv_core/lv_refr.c:621:1
	ldr	r0, [sp, #20]
	add	sp, #24
	pop	{r7, pc}
.Ltmp323:
.Lfunc_end24:
	.size	lv_refr_get_top_obj, .Lfunc_end24-lv_refr_get_top_obj
	.cfi_endproc
	.cantunwind
	.fnend
                                        @ -- End function
	.section	.text.lv_refr_obj_and_children,"ax",%progbits
	.p2align	3                               @ -- Begin function lv_refr_obj_and_children
	.type	lv_refr_obj_and_children,%function
	.code	16                              @ @lv_refr_obj_and_children
	.thumb_func
lv_refr_obj_and_children:
.Lfunc_begin25:
	.loc	10 629 0                        @ lvgl/src/lv_core/lv_refr.c:629:0
	.fnstart
	.cfi_startproc
@ %bb.0:
	.save	{r7, lr}
	push	{r7, lr}
	.cfi_def_cfa_offset 8
	.cfi_offset lr, -4
	.cfi_offset r7, -8
	.pad	#24
	sub	sp, #24
	.cfi_def_cfa_offset 32
	str	r0, [sp, #20]
	str	r1, [sp, #16]
.Ltmp324:
	.loc	10 633 8 prologue_end           @ lvgl/src/lv_core/lv_refr.c:633:8
	ldr	r0, [sp, #20]
.Ltmp325:
	.loc	10 633 8 is_stmt 0              @ lvgl/src/lv_core/lv_refr.c:633:8
	cbnz	r0, .LBB25_2
	b	.LBB25_1
.LBB25_1:
.Ltmp326:
	.loc	10 633 51                       @ lvgl/src/lv_core/lv_refr.c:633:51
	movw	r0, :lower16:disp_refr
	movt	r0, :upper16:disp_refr
	ldr	r0, [r0]
	.loc	10 633 31                       @ lvgl/src/lv_core/lv_refr.c:633:31
	bl	lv_disp_get_scr_act
	.loc	10 633 29                       @ lvgl/src/lv_core/lv_refr.c:633:29
	str	r0, [sp, #20]
	.loc	10 633 23                       @ lvgl/src/lv_core/lv_refr.c:633:23
	b	.LBB25_2
.Ltmp327:
.LBB25_2:
	.loc	10 634 8 is_stmt 1              @ lvgl/src/lv_core/lv_refr.c:634:8
	ldr	r0, [sp, #20]
.Ltmp328:
	.loc	10 634 8 is_stmt 0              @ lvgl/src/lv_core/lv_refr.c:634:8
	cbnz	r0, .LBB25_4
	b	.LBB25_3
.LBB25_3:
.Ltmp329:
	.loc	10 634 23                       @ lvgl/src/lv_core/lv_refr.c:634:23
	b	.LBB25_12
.Ltmp330:
.LBB25_4:
	.loc	10 637 17 is_stmt 1             @ lvgl/src/lv_core/lv_refr.c:637:17
	ldr	r0, [sp, #20]
	.loc	10 637 24 is_stmt 0             @ lvgl/src/lv_core/lv_refr.c:637:24
	ldr	r1, [sp, #16]
	.loc	10 637 5                        @ lvgl/src/lv_core/lv_refr.c:637:5
	bl	lv_refr_obj
	.loc	10 641 27 is_stmt 1             @ lvgl/src/lv_core/lv_refr.c:641:27
	ldr	r0, [sp, #20]
	.loc	10 641 16 is_stmt 0             @ lvgl/src/lv_core/lv_refr.c:641:16
	str	r0, [sp, #8]
	.loc	10 643 29 is_stmt 1             @ lvgl/src/lv_core/lv_refr.c:643:29
	ldr	r0, [sp, #20]
	.loc	10 643 11 is_stmt 0             @ lvgl/src/lv_core/lv_refr.c:643:11
	bl	lv_obj_get_parent
	.loc	10 643 9                        @ lvgl/src/lv_core/lv_refr.c:643:9
	str	r0, [sp, #12]
	.loc	10 646 5 is_stmt 1              @ lvgl/src/lv_core/lv_refr.c:646:5
	b	.LBB25_5
.LBB25_5:                               @ =>This Loop Header: Depth=1
                                        @     Child Loop BB25_7 Depth 2
	.loc	10 646 11 is_stmt 0             @ lvgl/src/lv_core/lv_refr.c:646:11
	ldr	r0, [sp, #12]
	.loc	10 646 5                        @ lvgl/src/lv_core/lv_refr.c:646:5
	cbz	r0, .LBB25_12
	b	.LBB25_6
.LBB25_6:                               @   in Loop: Header=BB25_5 Depth=1
.Ltmp331:
	.loc	10 649 42 is_stmt 1             @ lvgl/src/lv_core/lv_refr.c:649:42
	ldr	r0, [sp, #12]
	.loc	10 649 47 is_stmt 0             @ lvgl/src/lv_core/lv_refr.c:649:47
	adds	r0, #4
	.loc	10 649 58                       @ lvgl/src/lv_core/lv_refr.c:649:58
	ldr	r1, [sp, #8]
	.loc	10 649 24                       @ lvgl/src/lv_core/lv_refr.c:649:24
	bl	_lv_ll_get_prev
	.loc	10 649 20                       @ lvgl/src/lv_core/lv_refr.c:649:20
	str	r0, [sp, #4]
	.loc	10 651 9 is_stmt 1              @ lvgl/src/lv_core/lv_refr.c:651:9
	b	.LBB25_7
.LBB25_7:                               @   Parent Loop BB25_5 Depth=1
                                        @ =>  This Inner Loop Header: Depth=2
	.loc	10 651 15 is_stmt 0             @ lvgl/src/lv_core/lv_refr.c:651:15
	ldr	r0, [sp, #4]
	.loc	10 651 9                        @ lvgl/src/lv_core/lv_refr.c:651:9
	cbz	r0, .LBB25_9
	b	.LBB25_8
.LBB25_8:                               @   in Loop: Header=BB25_7 Depth=2
.Ltmp332:
	.loc	10 653 25 is_stmt 1             @ lvgl/src/lv_core/lv_refr.c:653:25
	ldr	r0, [sp, #4]
	.loc	10 653 28 is_stmt 0             @ lvgl/src/lv_core/lv_refr.c:653:28
	ldr	r1, [sp, #16]
	.loc	10 653 13                       @ lvgl/src/lv_core/lv_refr.c:653:13
	bl	lv_refr_obj
	.loc	10 654 35 is_stmt 1             @ lvgl/src/lv_core/lv_refr.c:654:35
	ldr	r0, [sp, #12]
	.loc	10 654 40 is_stmt 0             @ lvgl/src/lv_core/lv_refr.c:654:40
	adds	r0, #4
	.loc	10 654 51                       @ lvgl/src/lv_core/lv_refr.c:654:51
	ldr	r1, [sp, #4]
	.loc	10 654 17                       @ lvgl/src/lv_core/lv_refr.c:654:17
	bl	_lv_ll_get_prev
	.loc	10 654 15                       @ lvgl/src/lv_core/lv_refr.c:654:15
	str	r0, [sp, #4]
.Ltmp333:
	.loc	10 651 9 is_stmt 1              @ lvgl/src/lv_core/lv_refr.c:651:9
	b	.LBB25_7
.LBB25_9:                               @   in Loop: Header=BB25_5 Depth=1
.Ltmp334:
	.loc	10 658 12                       @ lvgl/src/lv_core/lv_refr.c:658:12
	ldr	r0, [sp, #12]
	.loc	10 658 17 is_stmt 0             @ lvgl/src/lv_core/lv_refr.c:658:17
	ldr	r0, [r0, #32]
.Ltmp335:
	.loc	10 658 12                       @ lvgl/src/lv_core/lv_refr.c:658:12
	cbz	r0, .LBB25_11
	b	.LBB25_10
.LBB25_10:                              @   in Loop: Header=BB25_5 Depth=1
.Ltmp336:
	.loc	10 658 28                       @ lvgl/src/lv_core/lv_refr.c:658:28
	ldr	r0, [sp, #12]
	.loc	10 658 33                       @ lvgl/src/lv_core/lv_refr.c:658:33
	ldr	r3, [r0, #32]
	.loc	10 658 48                       @ lvgl/src/lv_core/lv_refr.c:658:48
	ldr	r1, [sp, #16]
	movs	r2, #1
	.loc	10 658 28                       @ lvgl/src/lv_core/lv_refr.c:658:28
	blx	r3
	b	.LBB25_11
.Ltmp337:
.LBB25_11:                              @   in Loop: Header=BB25_5 Depth=1
	.loc	10 662 20 is_stmt 1             @ lvgl/src/lv_core/lv_refr.c:662:20
	ldr	r0, [sp, #12]
	.loc	10 662 18 is_stmt 0             @ lvgl/src/lv_core/lv_refr.c:662:18
	str	r0, [sp, #8]
	.loc	10 664 33 is_stmt 1             @ lvgl/src/lv_core/lv_refr.c:664:33
	ldr	r0, [sp, #12]
	.loc	10 664 15 is_stmt 0             @ lvgl/src/lv_core/lv_refr.c:664:15
	bl	lv_obj_get_parent
	.loc	10 664 13                       @ lvgl/src/lv_core/lv_refr.c:664:13
	str	r0, [sp, #12]
.Ltmp338:
	.loc	10 646 5 is_stmt 1              @ lvgl/src/lv_core/lv_refr.c:646:5
	b	.LBB25_5
.LBB25_12:
	.loc	10 666 1                        @ lvgl/src/lv_core/lv_refr.c:666:1
	add	sp, #24
	pop	{r7, pc}
.Ltmp339:
.Lfunc_end25:
	.size	lv_refr_obj_and_children, .Lfunc_end25-lv_refr_obj_and_children
	.cfi_endproc
	.cantunwind
	.fnend
                                        @ -- End function
	.section	.text.lv_obj_get_style_opa_scale,"ax",%progbits
	.p2align	3                               @ -- Begin function lv_obj_get_style_opa_scale
	.type	lv_obj_get_style_opa_scale,%function
	.code	16                              @ @lv_obj_get_style_opa_scale
	.thumb_func
lv_obj_get_style_opa_scale:
.Lfunc_begin26:
	.loc	16 99 0                         @ lvgl/src/lv_core/lv_obj_style_dec.h:99:0
	.fnstart
	.cfi_startproc
@ %bb.0:
	.save	{r7, lr}
	push	{r7, lr}
	.cfi_def_cfa_offset 8
	.cfi_offset lr, -4
	.cfi_offset r7, -8
	.pad	#8
	sub	sp, #8
	.cfi_def_cfa_offset 16
                                        @ kill: def $r2 killed $r1
	str	r0, [sp, #4]
	strb.w	r1, [sp, #3]
.Ltmp340:
	.loc	16 99 1 prologue_end            @ lvgl/src/lv_core/lv_obj_style_dec.h:99:1
	ldr	r0, [sp, #4]
	ldrb.w	r1, [sp, #3]
	movw	r2, #32780
	bl	_lv_obj_get_style_opa
	add	sp, #8
	pop	{r7, pc}
.Ltmp341:
.Lfunc_end26:
	.size	lv_obj_get_style_opa_scale, .Lfunc_end26-lv_obj_get_style_opa_scale
	.cfi_endproc
	.cantunwind
	.fnend
                                        @ -- End function
	.section	.text.lv_refr_obj,"ax",%progbits
	.p2align	3                               @ -- Begin function lv_refr_obj
	.type	lv_refr_obj,%function
	.code	16                              @ @lv_refr_obj
	.thumb_func
lv_refr_obj:
.Lfunc_begin27:
	.loc	10 674 0                        @ lvgl/src/lv_core/lv_refr.c:674:0
	.fnstart
	.cfi_startproc
@ %bb.0:
	.save	{r7, lr}
	push	{r7, lr}
	.cfi_def_cfa_offset 8
	.cfi_offset lr, -4
	.cfi_offset r7, -8
	.pad	#72
	sub	sp, #72
	.cfi_def_cfa_offset 80
	str	r0, [sp, #68]
	str	r1, [sp, #64]
.Ltmp342:
	.loc	10 676 8 prologue_end           @ lvgl/src/lv_core/lv_refr.c:676:8
	ldr	r0, [sp, #68]
	.loc	10 676 13 is_stmt 0             @ lvgl/src/lv_core/lv_refr.c:676:13
	ldrb.w	r0, [r0, #52]
	lsrs	r0, r0, #4
.Ltmp343:
	.loc	10 676 8                        @ lvgl/src/lv_core/lv_refr.c:676:8
	lsls	r0, r0, #31
	cbz	r0, .LBB27_2
	b	.LBB27_1
.LBB27_1:
.Ltmp344:
	.loc	10 676 26                       @ lvgl/src/lv_core/lv_refr.c:676:26
	b	.LBB27_16
.Ltmp345:
.LBB27_2:
	.loc	10 684 27 is_stmt 1             @ lvgl/src/lv_core/lv_refr.c:684:27
	ldr	r0, [sp, #68]
	.loc	10 684 32 is_stmt 0             @ lvgl/src/lv_core/lv_refr.c:684:32
	ldrh	r0, [r0, #50]
	.loc	10 684 16                       @ lvgl/src/lv_core/lv_refr.c:684:16
	strh.w	r0, [sp, #34]
	.loc	10 685 23 is_stmt 1             @ lvgl/src/lv_core/lv_refr.c:685:23
	ldr	r0, [sp, #68]
	add	r1, sp, #36
	.loc	10 685 5 is_stmt 0              @ lvgl/src/lv_core/lv_refr.c:685:5
	str	r1, [sp, #8]                    @ 4-byte Spill
	bl	lv_obj_get_coords
	ldr	r2, [sp, #8]                    @ 4-byte Reload
	.loc	10 686 20 is_stmt 1             @ lvgl/src/lv_core/lv_refr.c:686:20
	ldrh.w	r1, [sp, #34]
	.loc	10 686 17 is_stmt 0             @ lvgl/src/lv_core/lv_refr.c:686:17
	ldrh.w	r0, [sp, #36]
	subs	r0, r0, r1
	strh.w	r0, [sp, #36]
	.loc	10 687 20 is_stmt 1             @ lvgl/src/lv_core/lv_refr.c:687:20
	ldrh.w	r1, [sp, #34]
	.loc	10 687 17 is_stmt 0             @ lvgl/src/lv_core/lv_refr.c:687:17
	ldrh.w	r0, [sp, #38]
	subs	r0, r0, r1
	strh.w	r0, [sp, #38]
	.loc	10 688 20 is_stmt 1             @ lvgl/src/lv_core/lv_refr.c:688:20
	ldrh.w	r1, [sp, #34]
	.loc	10 688 17 is_stmt 0             @ lvgl/src/lv_core/lv_refr.c:688:17
	ldrh.w	r0, [sp, #40]
	add	r0, r1
	strh.w	r0, [sp, #40]
	.loc	10 689 20 is_stmt 1             @ lvgl/src/lv_core/lv_refr.c:689:20
	ldrh.w	r1, [sp, #34]
	.loc	10 689 17 is_stmt 0             @ lvgl/src/lv_core/lv_refr.c:689:17
	ldrh.w	r0, [sp, #42]
	add	r0, r1
	strh.w	r0, [sp, #42]
	.loc	10 690 50 is_stmt 1             @ lvgl/src/lv_core/lv_refr.c:690:50
	ldr	r1, [sp, #64]
	add	r0, sp, #44
	.loc	10 690 16 is_stmt 0             @ lvgl/src/lv_core/lv_refr.c:690:16
	bl	_lv_area_intersect
	.loc	10 690 14                       @ lvgl/src/lv_core/lv_refr.c:690:14
	strb.w	r0, [sp, #63]
.Ltmp346:
	.loc	10 693 8 is_stmt 1              @ lvgl/src/lv_core/lv_refr.c:693:8
	ldrb.w	r0, [sp, #63]
.Ltmp347:
	.loc	10 693 8 is_stmt 0              @ lvgl/src/lv_core/lv_refr.c:693:8
	lsls	r0, r0, #31
	cmp	r0, #0
	beq	.LBB27_16
	b	.LBB27_3
.LBB27_3:
.Ltmp348:
	.loc	10 696 12 is_stmt 1             @ lvgl/src/lv_core/lv_refr.c:696:12
	ldr	r0, [sp, #68]
	.loc	10 696 17 is_stmt 0             @ lvgl/src/lv_core/lv_refr.c:696:17
	ldr	r0, [r0, #32]
.Ltmp349:
	.loc	10 696 12                       @ lvgl/src/lv_core/lv_refr.c:696:12
	cbz	r0, .LBB27_5
	b	.LBB27_4
.LBB27_4:
.Ltmp350:
	.loc	10 696 28                       @ lvgl/src/lv_core/lv_refr.c:696:28
	ldr	r0, [sp, #68]
	.loc	10 696 33                       @ lvgl/src/lv_core/lv_refr.c:696:33
	ldr	r3, [r0, #32]
	add	r1, sp, #44
	movs	r2, #0
	.loc	10 696 28                       @ lvgl/src/lv_core/lv_refr.c:696:28
	blx	r3
	b	.LBB27_5
.Ltmp351:
.LBB27_5:
	.loc	10 716 27 is_stmt 1             @ lvgl/src/lv_core/lv_refr.c:716:27
	ldr	r0, [sp, #68]
	add	r1, sp, #36
	.loc	10 716 9 is_stmt 0              @ lvgl/src/lv_core/lv_refr.c:716:9
	str	r1, [sp, #4]                    @ 4-byte Spill
	bl	lv_obj_get_coords
	ldr	r2, [sp, #4]                    @ 4-byte Reload
	.loc	10 717 50 is_stmt 1             @ lvgl/src/lv_core/lv_refr.c:717:50
	ldr	r1, [sp, #64]
	add	r0, sp, #52
	.loc	10 717 20 is_stmt 0             @ lvgl/src/lv_core/lv_refr.c:717:20
	bl	_lv_area_intersect
	.loc	10 717 18                       @ lvgl/src/lv_core/lv_refr.c:717:18
	strb.w	r0, [sp, #63]
.Ltmp352:
	.loc	10 718 12 is_stmt 1             @ lvgl/src/lv_core/lv_refr.c:718:12
	ldrb.w	r0, [sp, #63]
.Ltmp353:
	.loc	10 718 12 is_stmt 0             @ lvgl/src/lv_core/lv_refr.c:718:12
	lsls	r0, r0, #31
	cmp	r0, #0
	beq	.LBB27_13
	b	.LBB27_6
.LBB27_6:
.Ltmp354:
	.loc	10 722 13 is_stmt 1             @ lvgl/src/lv_core/lv_refr.c:722:13
	ldr	r0, [sp, #68]
	adds	r0, #4
	bl	_lv_ll_get_tail
	str	r0, [sp, #20]
	b	.LBB27_7
.LBB27_7:                               @ =>This Inner Loop Header: Depth=1
.Ltmp355:
	.loc	10 722 13 is_stmt 0             @ lvgl/src/lv_core/lv_refr.c:722:13
	ldr	r0, [sp, #20]
.Ltmp356:
	.loc	10 722 13                       @ lvgl/src/lv_core/lv_refr.c:722:13
	cmp	r0, #0
	beq	.LBB27_12
	b	.LBB27_8
.LBB27_8:                               @   in Loop: Header=BB27_7 Depth=1
.Ltmp357:
	.loc	10 723 35 is_stmt 1             @ lvgl/src/lv_core/lv_refr.c:723:35
	ldr	r0, [sp, #20]
	add	r1, sp, #12
	.loc	10 723 17 is_stmt 0             @ lvgl/src/lv_core/lv_refr.c:723:17
	str	r1, [sp]                        @ 4-byte Spill
	bl	lv_obj_get_coords
	ldr	r2, [sp]                        @ 4-byte Reload
	.loc	10 724 28 is_stmt 1             @ lvgl/src/lv_core/lv_refr.c:724:28
	ldr	r0, [sp, #20]
	.loc	10 724 37 is_stmt 0             @ lvgl/src/lv_core/lv_refr.c:724:37
	ldrh	r0, [r0, #50]
	.loc	10 724 26                       @ lvgl/src/lv_core/lv_refr.c:724:26
	strh.w	r0, [sp, #34]
	.loc	10 725 34 is_stmt 1             @ lvgl/src/lv_core/lv_refr.c:725:34
	ldrh.w	r1, [sp, #34]
	.loc	10 725 31 is_stmt 0             @ lvgl/src/lv_core/lv_refr.c:725:31
	ldrh.w	r0, [sp, #12]
	subs	r0, r0, r1
	strh.w	r0, [sp, #12]
	.loc	10 726 34 is_stmt 1             @ lvgl/src/lv_core/lv_refr.c:726:34
	ldrh.w	r1, [sp, #34]
	.loc	10 726 31 is_stmt 0             @ lvgl/src/lv_core/lv_refr.c:726:31
	ldrh.w	r0, [sp, #14]
	subs	r0, r0, r1
	strh.w	r0, [sp, #14]
	.loc	10 727 34 is_stmt 1             @ lvgl/src/lv_core/lv_refr.c:727:34
	ldrh.w	r1, [sp, #34]
	.loc	10 727 31 is_stmt 0             @ lvgl/src/lv_core/lv_refr.c:727:31
	ldrh.w	r0, [sp, #16]
	add	r0, r1
	strh.w	r0, [sp, #16]
	.loc	10 728 34 is_stmt 1             @ lvgl/src/lv_core/lv_refr.c:728:34
	ldrh.w	r1, [sp, #34]
	.loc	10 728 31 is_stmt 0             @ lvgl/src/lv_core/lv_refr.c:728:31
	ldrh.w	r0, [sp, #18]
	add	r0, r1
	strh.w	r0, [sp, #18]
	add	r0, sp, #24
	add	r1, sp, #52
	.loc	10 731 28 is_stmt 1             @ lvgl/src/lv_core/lv_refr.c:731:28
	bl	_lv_area_intersect
	.loc	10 731 26 is_stmt 0             @ lvgl/src/lv_core/lv_refr.c:731:26
	strb.w	r0, [sp, #63]
.Ltmp358:
	.loc	10 734 20 is_stmt 1             @ lvgl/src/lv_core/lv_refr.c:734:20
	ldrb.w	r0, [sp, #63]
.Ltmp359:
	.loc	10 734 20 is_stmt 0             @ lvgl/src/lv_core/lv_refr.c:734:20
	lsls	r0, r0, #31
	cbz	r0, .LBB27_10
	b	.LBB27_9
.LBB27_9:                               @   in Loop: Header=BB27_7 Depth=1
.Ltmp360:
	.loc	10 736 33 is_stmt 1             @ lvgl/src/lv_core/lv_refr.c:736:33
	ldr	r0, [sp, #20]
	add	r1, sp, #24
	.loc	10 736 21 is_stmt 0             @ lvgl/src/lv_core/lv_refr.c:736:21
	bl	lv_refr_obj
	.loc	10 737 17 is_stmt 1             @ lvgl/src/lv_core/lv_refr.c:737:17
	b	.LBB27_10
.Ltmp361:
.LBB27_10:                              @   in Loop: Header=BB27_7 Depth=1
	.loc	10 738 13                       @ lvgl/src/lv_core/lv_refr.c:738:13
	b	.LBB27_11
.Ltmp362:
.LBB27_11:                              @   in Loop: Header=BB27_7 Depth=1
	.loc	10 722 13                       @ lvgl/src/lv_core/lv_refr.c:722:13
	ldr	r0, [sp, #68]
	adds	r0, #4
	ldr	r1, [sp, #20]
	bl	_lv_ll_get_prev
	str	r0, [sp, #20]
	b	.LBB27_7
.Ltmp363:
.LBB27_12:
	.loc	10 739 9                        @ lvgl/src/lv_core/lv_refr.c:739:9
	b	.LBB27_13
.Ltmp364:
.LBB27_13:
	.loc	10 742 12                       @ lvgl/src/lv_core/lv_refr.c:742:12
	ldr	r0, [sp, #68]
	.loc	10 742 17 is_stmt 0             @ lvgl/src/lv_core/lv_refr.c:742:17
	ldr	r0, [r0, #32]
.Ltmp365:
	.loc	10 742 12                       @ lvgl/src/lv_core/lv_refr.c:742:12
	cbz	r0, .LBB27_15
	b	.LBB27_14
.LBB27_14:
.Ltmp366:
	.loc	10 742 28                       @ lvgl/src/lv_core/lv_refr.c:742:28
	ldr	r0, [sp, #68]
	.loc	10 742 33                       @ lvgl/src/lv_core/lv_refr.c:742:33
	ldr	r3, [r0, #32]
	add	r1, sp, #44
	movs	r2, #1
	.loc	10 742 28                       @ lvgl/src/lv_core/lv_refr.c:742:28
	blx	r3
	b	.LBB27_15
.Ltmp367:
.LBB27_15:
	.loc	10 743 5 is_stmt 1              @ lvgl/src/lv_core/lv_refr.c:743:5
	b	.LBB27_16
.Ltmp368:
.LBB27_16:
	.loc	10 744 1                        @ lvgl/src/lv_core/lv_refr.c:744:1
	add	sp, #72
	pop	{r7, pc}
.Ltmp369:
.Lfunc_end27:
	.size	lv_refr_obj, .Lfunc_end27-lv_refr_obj
	.cfi_endproc
	.cantunwind
	.fnend
                                        @ -- End function
	.section	.text.lv_refr_vdb_rotate,"ax",%progbits
	.p2align	3                               @ -- Begin function lv_refr_vdb_rotate
	.type	lv_refr_vdb_rotate,%function
	.code	16                              @ @lv_refr_vdb_rotate
	.thumb_func
lv_refr_vdb_rotate:
.Lfunc_begin28:
	.loc	10 831 0                        @ lvgl/src/lv_core/lv_refr.c:831:0
	.fnstart
	.cfi_startproc
@ %bb.0:
	.save	{r7, lr}
	push	{r7, lr}
	.cfi_def_cfa_offset 8
	.cfi_offset lr, -4
	.cfi_offset r7, -8
	.pad	#64
	sub	sp, #64
	.cfi_def_cfa_offset 72
	str	r0, [sp, #60]
	str	r1, [sp, #56]
.Ltmp370:
	.loc	10 832 28 prologue_end          @ lvgl/src/lv_core/lv_refr.c:832:28
	movw	r0, :lower16:disp_refr
	movt	r0, :upper16:disp_refr
	ldr	r1, [r0]
	.loc	10 832 21 is_stmt 0             @ lvgl/src/lv_core/lv_refr.c:832:21
	str	r1, [sp, #52]
.Ltmp371:
	.loc	10 833 35 is_stmt 1             @ lvgl/src/lv_core/lv_refr.c:833:35
	ldr	r0, [r0]
	.loc	10 833 8 is_stmt 0              @ lvgl/src/lv_core/lv_refr.c:833:8
	bl	lv_disp_is_true_double_buf
	.loc	10 833 46                       @ lvgl/src/lv_core/lv_refr.c:833:46
	cbz	r0, .LBB28_3
	b	.LBB28_1
.LBB28_1:
	.loc	10 833 49                       @ lvgl/src/lv_core/lv_refr.c:833:49
	ldr	r0, [sp, #52]
	.loc	10 833 54                       @ lvgl/src/lv_core/lv_refr.c:833:54
	ldrh	r0, [r0, #8]
	lsrs	r0, r0, #3
.Ltmp372:
	.loc	10 833 8                        @ lvgl/src/lv_core/lv_refr.c:833:8
	lsls	r0, r0, #31
	cbz	r0, .LBB28_3
	b	.LBB28_2
.LBB28_2:
.Ltmp373:
	.loc	10 835 9 is_stmt 1              @ lvgl/src/lv_core/lv_refr.c:835:9
	b	.LBB28_43
.Ltmp374:
.LBB28_3:
	.loc	10 837 8                        @ lvgl/src/lv_core/lv_refr.c:837:8
	ldr	r0, [sp, #52]
	.loc	10 837 13 is_stmt 0             @ lvgl/src/lv_core/lv_refr.c:837:13
	ldrh	r0, [r0, #8]
	ubfx	r0, r0, #1, #2
.Ltmp375:
	.loc	10 837 8                        @ lvgl/src/lv_core/lv_refr.c:837:8
	cmp	r0, #2
	bne	.LBB28_5
	b	.LBB28_4
.LBB28_4:
.Ltmp376:
	.loc	10 838 32 is_stmt 1             @ lvgl/src/lv_core/lv_refr.c:838:32
	ldr	r0, [sp, #52]
	.loc	10 838 37 is_stmt 0             @ lvgl/src/lv_core/lv_refr.c:838:37
	ldr	r1, [sp, #60]
	.loc	10 838 43                       @ lvgl/src/lv_core/lv_refr.c:838:43
	ldr	r2, [sp, #56]
	.loc	10 838 9                        @ lvgl/src/lv_core/lv_refr.c:838:9
	bl	lv_refr_vdb_rotate_180
	.loc	10 839 9 is_stmt 1              @ lvgl/src/lv_core/lv_refr.c:839:9
	ldr	r0, [sp, #52]
	.loc	10 839 14 is_stmt 0             @ lvgl/src/lv_core/lv_refr.c:839:14
	ldr	r3, [r0, #12]
	.loc	10 839 28                       @ lvgl/src/lv_core/lv_refr.c:839:28
	ldr	r1, [sp, #60]
	.loc	10 839 34                       @ lvgl/src/lv_core/lv_refr.c:839:34
	ldr	r2, [sp, #56]
	.loc	10 839 9                        @ lvgl/src/lv_core/lv_refr.c:839:9
	blx	r3
	.loc	10 840 5 is_stmt 1              @ lvgl/src/lv_core/lv_refr.c:840:5
	b	.LBB28_43
.Ltmp377:
.LBB28_5:
	.loc	10 840 15 is_stmt 0             @ lvgl/src/lv_core/lv_refr.c:840:15
	ldr	r0, [sp, #52]
	.loc	10 840 20                       @ lvgl/src/lv_core/lv_refr.c:840:20
	ldrh	r0, [r0, #8]
	ubfx	r0, r0, #1, #2
	.loc	10 840 46                       @ lvgl/src/lv_core/lv_refr.c:840:46
	cmp	r0, #1
	beq	.LBB28_7
	b	.LBB28_6
.LBB28_6:
	.loc	10 840 49                       @ lvgl/src/lv_core/lv_refr.c:840:49
	ldr	r0, [sp, #52]
	.loc	10 840 54                       @ lvgl/src/lv_core/lv_refr.c:840:54
	ldrh	r0, [r0, #8]
	ubfx	r0, r0, #1, #2
.Ltmp378:
	.loc	10 840 15                       @ lvgl/src/lv_core/lv_refr.c:840:15
	cmp	r0, #3
	bne.w	.LBB28_42
	b	.LBB28_7
.LBB28_7:
	.loc	10 0 15                         @ lvgl/src/lv_core/lv_refr.c:0:15
	movs	r0, #0
.Ltmp379:
	.loc	10 842 22 is_stmt 1             @ lvgl/src/lv_core/lv_refr.c:842:22
	str	r0, [sp, #48]
	.loc	10 843 47                       @ lvgl/src/lv_core/lv_refr.c:843:47
	movw	r0, :lower16:disp_refr
	movt	r0, :upper16:disp_refr
	ldr	r0, [r0]
	.loc	10 843 31 is_stmt 0             @ lvgl/src/lv_core/lv_refr.c:843:31
	bl	lv_disp_get_buf
	.loc	10 843 25                       @ lvgl/src/lv_core/lv_refr.c:843:25
	str	r0, [sp, #44]
	.loc	10 844 47 is_stmt 1             @ lvgl/src/lv_core/lv_refr.c:844:47
	ldr	r0, [sp, #60]
	.loc	10 844 29 is_stmt 0             @ lvgl/src/lv_core/lv_refr.c:844:29
	bl	lv_area_get_width
	.loc	10 844 20                       @ lvgl/src/lv_core/lv_refr.c:844:20
	strh.w	r0, [sp, #42]
	.loc	10 845 48 is_stmt 1             @ lvgl/src/lv_core/lv_refr.c:845:48
	ldr	r0, [sp, #60]
	.loc	10 845 29 is_stmt 0             @ lvgl/src/lv_core/lv_refr.c:845:29
	bl	lv_area_get_height
	.loc	10 845 20                       @ lvgl/src/lv_core/lv_refr.c:845:20
	strh.w	r0, [sp, #40]
	.loc	10 847 30 is_stmt 1             @ lvgl/src/lv_core/lv_refr.c:847:30
	ldrsh.w	r1, [sp, #42]
	mov.w	r0, #7680
	udiv	r0, r0, r1
	ldrsh.w	r1, [sp, #40]
	cmp	r0, r1
	bge	.LBB28_9
	b	.LBB28_8
.LBB28_8:
	ldrsh.w	r1, [sp, #42]
	mov.w	r0, #7680
	udiv	r0, r0, r1
	str	r0, [sp, #28]                   @ 4-byte Spill
	b	.LBB28_10
.LBB28_9:
	ldrsh.w	r0, [sp, #40]
	str	r0, [sp, #28]                   @ 4-byte Spill
	b	.LBB28_10
.LBB28_10:
	ldr	r0, [sp, #28]                   @ 4-byte Reload
	.loc	10 847 20 is_stmt 0             @ lvgl/src/lv_core/lv_refr.c:847:20
	strh.w	r0, [sp, #38]
	.loc	10 849 22 is_stmt 1             @ lvgl/src/lv_core/lv_refr.c:849:22
	ldr	r0, [sp, #60]
	.loc	10 849 28 is_stmt 0             @ lvgl/src/lv_core/lv_refr.c:849:28
	ldrh	r0, [r0, #2]
	.loc	10 849 20                       @ lvgl/src/lv_core/lv_refr.c:849:20
	strh.w	r0, [sp, #36]
.Ltmp380:
	.loc	10 850 12 is_stmt 1             @ lvgl/src/lv_core/lv_refr.c:850:12
	ldr	r0, [sp, #52]
	.loc	10 850 17 is_stmt 0             @ lvgl/src/lv_core/lv_refr.c:850:17
	ldrh	r0, [r0, #8]
	ubfx	r0, r0, #1, #2
.Ltmp381:
	.loc	10 850 12                       @ lvgl/src/lv_core/lv_refr.c:850:12
	cmp	r0, #1
	bne	.LBB28_12
	b	.LBB28_11
.LBB28_11:
.Ltmp382:
	.loc	10 851 24 is_stmt 1             @ lvgl/src/lv_core/lv_refr.c:851:24
	ldr	r0, [sp, #52]
	ldrh	r2, [r0, #2]
	.loc	10 851 39 is_stmt 0             @ lvgl/src/lv_core/lv_refr.c:851:39
	ldr	r1, [sp, #60]
	ldrh	r0, [r1]
	.loc	10 851 48                       @ lvgl/src/lv_core/lv_refr.c:851:48
	mvns	r0, r0
	add	r0, r2
	.loc	10 851 22                       @ lvgl/src/lv_core/lv_refr.c:851:22
	strh	r0, [r1, #6]
	.loc	10 852 24 is_stmt 1             @ lvgl/src/lv_core/lv_refr.c:852:24
	ldr	r1, [sp, #60]
	ldrh	r0, [r1, #6]
	.loc	10 852 35 is_stmt 0             @ lvgl/src/lv_core/lv_refr.c:852:35
	ldrh.w	r2, [sp, #42]
	.loc	10 852 33                       @ lvgl/src/lv_core/lv_refr.c:852:33
	subs	r0, r0, r2
	.loc	10 852 42                       @ lvgl/src/lv_core/lv_refr.c:852:42
	adds	r0, #1
	.loc	10 852 22                       @ lvgl/src/lv_core/lv_refr.c:852:22
	strh	r0, [r1, #2]
	.loc	10 853 9 is_stmt 1              @ lvgl/src/lv_core/lv_refr.c:853:9
	b	.LBB28_13
.Ltmp383:
.LBB28_12:
	.loc	10 854 24                       @ lvgl/src/lv_core/lv_refr.c:854:24
	ldr	r1, [sp, #60]
	.loc	10 854 30 is_stmt 0             @ lvgl/src/lv_core/lv_refr.c:854:30
	ldrh	r0, [r1]
	.loc	10 854 22                       @ lvgl/src/lv_core/lv_refr.c:854:22
	strh	r0, [r1, #2]
	.loc	10 855 24 is_stmt 1             @ lvgl/src/lv_core/lv_refr.c:855:24
	ldr	r1, [sp, #60]
	ldrh	r0, [r1, #2]
	.loc	10 855 35 is_stmt 0             @ lvgl/src/lv_core/lv_refr.c:855:35
	ldrh.w	r2, [sp, #42]
	.loc	10 855 33                       @ lvgl/src/lv_core/lv_refr.c:855:33
	add	r0, r2
	.loc	10 855 42                       @ lvgl/src/lv_core/lv_refr.c:855:42
	subs	r0, #1
	.loc	10 855 22                       @ lvgl/src/lv_core/lv_refr.c:855:22
	strh	r0, [r1, #6]
	b	.LBB28_13
.Ltmp384:
.LBB28_13:
	.loc	10 857 9 is_stmt 1              @ lvgl/src/lv_core/lv_refr.c:857:9
	ldr	r1, [sp, #44]
	movs	r0, #0
	.loc	10 857 23 is_stmt 0             @ lvgl/src/lv_core/lv_refr.c:857:23
	str	r0, [r1, #24]
	.loc	10 859 20 is_stmt 1             @ lvgl/src/lv_core/lv_refr.c:859:20
	strh.w	r0, [sp, #34]
	.loc	10 860 9                        @ lvgl/src/lv_core/lv_refr.c:860:9
	b	.LBB28_14
.LBB28_14:                              @ =>This Loop Header: Depth=1
                                        @     Child Loop BB28_34 Depth 2
	.loc	10 860 15 is_stmt 0             @ lvgl/src/lv_core/lv_refr.c:860:15
	ldrsh.w	r0, [sp, #34]
	.loc	10 860 21                       @ lvgl/src/lv_core/lv_refr.c:860:21
	ldrsh.w	r1, [sp, #40]
	.loc	10 860 9                        @ lvgl/src/lv_core/lv_refr.c:860:9
	cmp	r0, r1
	bge.w	.LBB28_39
	b	.LBB28_15
.LBB28_15:                              @   in Loop: Header=BB28_14 Depth=1
.Ltmp385:
	.loc	10 861 33 is_stmt 1             @ lvgl/src/lv_core/lv_refr.c:861:33
	ldrsh.w	r0, [sp, #38]
	ldrsh.w	r1, [sp, #40]
	ldrsh.w	r2, [sp, #34]
	subs	r1, r1, r2
	cmp	r0, r1
	bge	.LBB28_17
	b	.LBB28_16
.LBB28_16:                              @   in Loop: Header=BB28_14 Depth=1
	ldrsh.w	r0, [sp, #38]
	str	r0, [sp, #24]                   @ 4-byte Spill
	b	.LBB28_18
.LBB28_17:                              @   in Loop: Header=BB28_14 Depth=1
	ldrsh.w	r0, [sp, #40]
	ldrsh.w	r1, [sp, #34]
	subs	r0, r0, r1
	str	r0, [sp, #24]                   @ 4-byte Spill
	b	.LBB28_18
.LBB28_18:                              @   in Loop: Header=BB28_14 Depth=1
	ldr	r0, [sp, #24]                   @ 4-byte Reload
	.loc	10 861 24 is_stmt 0             @ lvgl/src/lv_core/lv_refr.c:861:24
	strh.w	r0, [sp, #32]
	.loc	10 862 13 is_stmt 1             @ lvgl/src/lv_core/lv_refr.c:862:13
	ldr	r1, [sp, #44]
	movs	r0, #1
	.loc	10 862 27 is_stmt 0             @ lvgl/src/lv_core/lv_refr.c:862:27
	str	r0, [r1, #24]
.Ltmp386:
	.loc	10 863 17 is_stmt 1             @ lvgl/src/lv_core/lv_refr.c:863:17
	ldrsh.w	r0, [sp, #34]
	.loc	10 863 27 is_stmt 0             @ lvgl/src/lv_core/lv_refr.c:863:27
	cbnz	r0, .LBB28_24
	b	.LBB28_19
.LBB28_19:                              @   in Loop: Header=BB28_14 Depth=1
	.loc	10 863 31                       @ lvgl/src/lv_core/lv_refr.c:863:31
	ldrsh.w	r0, [sp, #40]
	.loc	10 863 41                       @ lvgl/src/lv_core/lv_refr.c:863:41
	ldrsh.w	r1, [sp, #42]
.Ltmp387:
	.loc	10 863 16                       @ lvgl/src/lv_core/lv_refr.c:863:16
	cmp	r0, r1
	blt	.LBB28_24
	b	.LBB28_20
.LBB28_20:                              @   in Loop: Header=BB28_14 Depth=1
.Ltmp388:
	.loc	10 865 26 is_stmt 1             @ lvgl/src/lv_core/lv_refr.c:865:26
	ldrh.w	r0, [sp, #42]
	.loc	10 865 24 is_stmt 0             @ lvgl/src/lv_core/lv_refr.c:865:24
	strh.w	r0, [sp, #32]
	.loc	10 866 43 is_stmt 1             @ lvgl/src/lv_core/lv_refr.c:866:43
	ldr	r0, [sp, #52]
	.loc	10 866 48 is_stmt 0             @ lvgl/src/lv_core/lv_refr.c:866:48
	ldrh	r0, [r0, #8]
	ubfx	r0, r0, #1, #2
	.loc	10 866 56                       @ lvgl/src/lv_core/lv_refr.c:866:56
	subs	r0, #3
	clz	r0, r0
	lsrs	r0, r0, #5
	.loc	10 866 76                       @ lvgl/src/lv_core/lv_refr.c:866:76
	ldrsh.w	r1, [sp, #42]
	.loc	10 866 84                       @ lvgl/src/lv_core/lv_refr.c:866:84
	ldr	r2, [sp, #56]
	.loc	10 866 17                       @ lvgl/src/lv_core/lv_refr.c:866:17
	bl	lv_refr_vdb_rotate_90_sqr
.Ltmp389:
	.loc	10 867 20 is_stmt 1             @ lvgl/src/lv_core/lv_refr.c:867:20
	ldr	r0, [sp, #52]
	.loc	10 867 25 is_stmt 0             @ lvgl/src/lv_core/lv_refr.c:867:25
	ldrh	r0, [r0, #8]
	ubfx	r0, r0, #1, #2
.Ltmp390:
	.loc	10 867 20                       @ lvgl/src/lv_core/lv_refr.c:867:20
	cmp	r0, #1
	bne	.LBB28_22
	b	.LBB28_21
.LBB28_21:                              @   in Loop: Header=BB28_14 Depth=1
.Ltmp391:
	.loc	10 868 32 is_stmt 1             @ lvgl/src/lv_core/lv_refr.c:868:32
	ldrh.w	r0, [sp, #36]
	.loc	10 868 21 is_stmt 0             @ lvgl/src/lv_core/lv_refr.c:868:21
	ldr	r1, [sp, #60]
	.loc	10 868 30                       @ lvgl/src/lv_core/lv_refr.c:868:30
	strh	r0, [r1]
	.loc	10 869 32 is_stmt 1             @ lvgl/src/lv_core/lv_refr.c:869:32
	ldrh.w	r0, [sp, #36]
	.loc	10 869 43 is_stmt 0             @ lvgl/src/lv_core/lv_refr.c:869:43
	ldrh.w	r1, [sp, #42]
	.loc	10 869 42                       @ lvgl/src/lv_core/lv_refr.c:869:42
	add	r0, r1
	.loc	10 869 49                       @ lvgl/src/lv_core/lv_refr.c:869:49
	subs	r0, #1
	.loc	10 869 21                       @ lvgl/src/lv_core/lv_refr.c:869:21
	ldr	r1, [sp, #60]
	.loc	10 869 30                       @ lvgl/src/lv_core/lv_refr.c:869:30
	strh	r0, [r1, #4]
	.loc	10 870 17 is_stmt 1             @ lvgl/src/lv_core/lv_refr.c:870:17
	b	.LBB28_23
.Ltmp392:
.LBB28_22:                              @   in Loop: Header=BB28_14 Depth=1
	.loc	10 871 32                       @ lvgl/src/lv_core/lv_refr.c:871:32
	ldr	r0, [sp, #52]
	ldrh	r1, [r0]
	.loc	10 871 51 is_stmt 0             @ lvgl/src/lv_core/lv_refr.c:871:51
	ldrh.w	r0, [sp, #36]
	.loc	10 871 49                       @ lvgl/src/lv_core/lv_refr.c:871:49
	mvns	r0, r0
	add	r0, r1
	.loc	10 871 21                       @ lvgl/src/lv_core/lv_refr.c:871:21
	ldr	r1, [sp, #60]
	.loc	10 871 30                       @ lvgl/src/lv_core/lv_refr.c:871:30
	strh	r0, [r1, #4]
	.loc	10 872 32 is_stmt 1             @ lvgl/src/lv_core/lv_refr.c:872:32
	ldr	r1, [sp, #60]
	ldrh	r0, [r1, #4]
	.loc	10 872 43 is_stmt 0             @ lvgl/src/lv_core/lv_refr.c:872:43
	ldrh.w	r2, [sp, #42]
	.loc	10 872 41                       @ lvgl/src/lv_core/lv_refr.c:872:41
	subs	r0, r0, r2
	.loc	10 872 50                       @ lvgl/src/lv_core/lv_refr.c:872:50
	adds	r0, #1
	.loc	10 872 30                       @ lvgl/src/lv_core/lv_refr.c:872:30
	strh	r0, [r1]
	b	.LBB28_23
.Ltmp393:
.LBB28_23:                              @   in Loop: Header=BB28_14 Depth=1
	.loc	10 874 13 is_stmt 1             @ lvgl/src/lv_core/lv_refr.c:874:13
	b	.LBB28_30
.Ltmp394:
.LBB28_24:                              @   in Loop: Header=BB28_14 Depth=1
	.loc	10 876 20                       @ lvgl/src/lv_core/lv_refr.c:876:20
	ldr	r0, [sp, #48]
.Ltmp395:
	.loc	10 876 20 is_stmt 0             @ lvgl/src/lv_core/lv_refr.c:876:20
	cbnz	r0, .LBB28_26
	b	.LBB28_25
.LBB28_25:                              @   in Loop: Header=BB28_14 Depth=1
	.loc	10 0 20                         @ lvgl/src/lv_core/lv_refr.c:0:20
	mov.w	r0, #30720
.Ltmp396:
	.loc	10 877 31 is_stmt 1             @ lvgl/src/lv_core/lv_refr.c:877:31
	bl	_lv_mem_buf_get
	.loc	10 877 29 is_stmt 0             @ lvgl/src/lv_core/lv_refr.c:877:29
	str	r0, [sp, #48]
	.loc	10 877 21                       @ lvgl/src/lv_core/lv_refr.c:877:21
	b	.LBB28_26
.Ltmp397:
.LBB28_26:                              @   in Loop: Header=BB28_14 Depth=1
	.loc	10 878 39 is_stmt 1             @ lvgl/src/lv_core/lv_refr.c:878:39
	ldr	r0, [sp, #52]
	.loc	10 878 44 is_stmt 0             @ lvgl/src/lv_core/lv_refr.c:878:44
	ldrh	r0, [r0, #8]
	ubfx	r0, r0, #1, #2
	.loc	10 878 52                       @ lvgl/src/lv_core/lv_refr.c:878:52
	subs	r0, #3
	clz	r0, r0
	lsrs	r0, r0, #5
	.loc	10 878 72                       @ lvgl/src/lv_core/lv_refr.c:878:72
	ldrsh.w	r1, [sp, #42]
	.loc	10 878 80                       @ lvgl/src/lv_core/lv_refr.c:878:80
	ldrsh.w	r2, [sp, #32]
	.loc	10 878 88                       @ lvgl/src/lv_core/lv_refr.c:878:88
	ldr	r3, [sp, #56]
	.loc	10 878 97                       @ lvgl/src/lv_core/lv_refr.c:878:97
	ldr.w	r12, [sp, #48]
	.loc	10 878 17                       @ lvgl/src/lv_core/lv_refr.c:878:17
	mov	lr, sp
	str.w	r12, [lr]
	bl	lv_refr_vdb_rotate_90
.Ltmp398:
	.loc	10 880 20 is_stmt 1             @ lvgl/src/lv_core/lv_refr.c:880:20
	ldr	r0, [sp, #52]
	.loc	10 880 25 is_stmt 0             @ lvgl/src/lv_core/lv_refr.c:880:25
	ldrh	r0, [r0, #8]
	ubfx	r0, r0, #1, #2
.Ltmp399:
	.loc	10 880 20                       @ lvgl/src/lv_core/lv_refr.c:880:20
	cmp	r0, #1
	bne	.LBB28_28
	b	.LBB28_27
.LBB28_27:                              @   in Loop: Header=BB28_14 Depth=1
.Ltmp400:
	.loc	10 881 32 is_stmt 1             @ lvgl/src/lv_core/lv_refr.c:881:32
	ldrh.w	r0, [sp, #36]
	.loc	10 881 43 is_stmt 0             @ lvgl/src/lv_core/lv_refr.c:881:43
	ldrh.w	r1, [sp, #34]
	.loc	10 881 42                       @ lvgl/src/lv_core/lv_refr.c:881:42
	add	r0, r1
	.loc	10 881 21                       @ lvgl/src/lv_core/lv_refr.c:881:21
	ldr	r1, [sp, #60]
	.loc	10 881 30                       @ lvgl/src/lv_core/lv_refr.c:881:30
	strh	r0, [r1]
	.loc	10 882 32 is_stmt 1             @ lvgl/src/lv_core/lv_refr.c:882:32
	ldrh.w	r0, [sp, #36]
	.loc	10 882 43 is_stmt 0             @ lvgl/src/lv_core/lv_refr.c:882:43
	ldrh.w	r1, [sp, #34]
	.loc	10 882 42                       @ lvgl/src/lv_core/lv_refr.c:882:42
	add	r0, r1
	.loc	10 882 47                       @ lvgl/src/lv_core/lv_refr.c:882:47
	ldrh.w	r1, [sp, #32]
	.loc	10 882 46                       @ lvgl/src/lv_core/lv_refr.c:882:46
	add	r0, r1
	.loc	10 882 53                       @ lvgl/src/lv_core/lv_refr.c:882:53
	subs	r0, #1
	.loc	10 882 21                       @ lvgl/src/lv_core/lv_refr.c:882:21
	ldr	r1, [sp, #60]
	.loc	10 882 30                       @ lvgl/src/lv_core/lv_refr.c:882:30
	strh	r0, [r1, #4]
	.loc	10 883 17 is_stmt 1             @ lvgl/src/lv_core/lv_refr.c:883:17
	b	.LBB28_29
.Ltmp401:
.LBB28_28:                              @   in Loop: Header=BB28_14 Depth=1
	.loc	10 884 32                       @ lvgl/src/lv_core/lv_refr.c:884:32
	ldr	r0, [sp, #52]
	ldrh	r0, [r0]
	.loc	10 884 51 is_stmt 0             @ lvgl/src/lv_core/lv_refr.c:884:51
	ldrh.w	r1, [sp, #36]
	.loc	10 884 49                       @ lvgl/src/lv_core/lv_refr.c:884:49
	subs	r1, r0, r1
	.loc	10 884 64                       @ lvgl/src/lv_core/lv_refr.c:884:64
	ldrh.w	r0, [sp, #34]
	.loc	10 884 62                       @ lvgl/src/lv_core/lv_refr.c:884:62
	mvns	r0, r0
	add	r0, r1
	.loc	10 884 21                       @ lvgl/src/lv_core/lv_refr.c:884:21
	ldr	r1, [sp, #60]
	.loc	10 884 30                       @ lvgl/src/lv_core/lv_refr.c:884:30
	strh	r0, [r1, #4]
	.loc	10 885 32 is_stmt 1             @ lvgl/src/lv_core/lv_refr.c:885:32
	ldr	r1, [sp, #60]
	ldrh	r0, [r1, #4]
	.loc	10 885 43 is_stmt 0             @ lvgl/src/lv_core/lv_refr.c:885:43
	ldrh.w	r2, [sp, #32]
	.loc	10 885 41                       @ lvgl/src/lv_core/lv_refr.c:885:41
	subs	r0, r0, r2
	.loc	10 885 50                       @ lvgl/src/lv_core/lv_refr.c:885:50
	adds	r0, #1
	.loc	10 885 30                       @ lvgl/src/lv_core/lv_refr.c:885:30
	strh	r0, [r1]
	b	.LBB28_29
.Ltmp402:
.LBB28_29:                              @   in Loop: Header=BB28_14 Depth=1
	.loc	10 0 30                         @ lvgl/src/lv_core/lv_refr.c:0:30
	b	.LBB28_30
.LBB28_30:                              @   in Loop: Header=BB28_14 Depth=1
	.loc	10 889 13 is_stmt 1             @ lvgl/src/lv_core/lv_refr.c:889:13
	ldr	r0, [sp, #52]
	.loc	10 889 18 is_stmt 0             @ lvgl/src/lv_core/lv_refr.c:889:18
	str	r0, [sp, #12]                   @ 4-byte Spill
	ldr	r0, [r0, #12]
	.loc	10 889 32                       @ lvgl/src/lv_core/lv_refr.c:889:32
	str	r0, [sp, #16]                   @ 4-byte Spill
	ldr	r0, [sp, #60]
	.loc	10 889 38                       @ lvgl/src/lv_core/lv_refr.c:889:38
	str	r0, [sp, #20]                   @ 4-byte Spill
	ldr	r0, [sp, #48]
	cbnz	r0, .LBB28_32
	b	.LBB28_31
.LBB28_31:                              @   in Loop: Header=BB28_14 Depth=1
	.loc	10 889 56                       @ lvgl/src/lv_core/lv_refr.c:889:56
	ldr	r0, [sp, #56]
	.loc	10 889 38                       @ lvgl/src/lv_core/lv_refr.c:889:38
	str	r0, [sp, #8]                    @ 4-byte Spill
	b	.LBB28_33
.LBB28_32:                              @   in Loop: Header=BB28_14 Depth=1
	.loc	10 889 66                       @ lvgl/src/lv_core/lv_refr.c:889:66
	ldr	r0, [sp, #48]
	.loc	10 889 38                       @ lvgl/src/lv_core/lv_refr.c:889:38
	str	r0, [sp, #8]                    @ 4-byte Spill
	b	.LBB28_33
.LBB28_33:                              @   in Loop: Header=BB28_14 Depth=1
	ldr	r3, [sp, #16]                   @ 4-byte Reload
	ldr	r1, [sp, #20]                   @ 4-byte Reload
	ldr	r0, [sp, #12]                   @ 4-byte Reload
	ldr	r2, [sp, #8]                    @ 4-byte Reload
	.loc	10 889 13                       @ lvgl/src/lv_core/lv_refr.c:889:13
	blx	r3
	.loc	10 891 13 is_stmt 1             @ lvgl/src/lv_core/lv_refr.c:891:13
	b	.LBB28_34
.LBB28_34:                              @   Parent Loop BB28_14 Depth=1
                                        @ =>  This Inner Loop Header: Depth=2
	.loc	10 891 19 is_stmt 0             @ lvgl/src/lv_core/lv_refr.c:891:19
	ldr	r0, [sp, #44]
	.loc	10 891 24                       @ lvgl/src/lv_core/lv_refr.c:891:24
	ldr	r0, [r0, #24]
	.loc	10 891 13                       @ lvgl/src/lv_core/lv_refr.c:891:13
	cbz	r0, .LBB28_38
	b	.LBB28_35
.LBB28_35:                              @   in Loop: Header=BB28_34 Depth=2
.Ltmp403:
	.loc	10 892 20 is_stmt 1             @ lvgl/src/lv_core/lv_refr.c:892:20
	ldr	r0, [sp, #52]
	.loc	10 892 25 is_stmt 0             @ lvgl/src/lv_core/lv_refr.c:892:25
	ldr	r0, [r0, #28]
.Ltmp404:
	.loc	10 892 20                       @ lvgl/src/lv_core/lv_refr.c:892:20
	cbz	r0, .LBB28_37
	b	.LBB28_36
.LBB28_36:                              @   in Loop: Header=BB28_34 Depth=2
.Ltmp405:
	.loc	10 892 34                       @ lvgl/src/lv_core/lv_refr.c:892:34
	ldr	r0, [sp, #52]
	.loc	10 892 39                       @ lvgl/src/lv_core/lv_refr.c:892:39
	ldr	r1, [r0, #28]
	.loc	10 892 34                       @ lvgl/src/lv_core/lv_refr.c:892:34
	blx	r1
	b	.LBB28_37
.Ltmp406:
.LBB28_37:                              @   in Loop: Header=BB28_34 Depth=2
	.loc	10 891 13 is_stmt 1             @ lvgl/src/lv_core/lv_refr.c:891:13
	b	.LBB28_34
.LBB28_38:                              @   in Loop: Header=BB28_14 Depth=1
	.loc	10 894 24                       @ lvgl/src/lv_core/lv_refr.c:894:24
	ldrsh.w	r0, [sp, #42]
	.loc	10 894 33 is_stmt 0             @ lvgl/src/lv_core/lv_refr.c:894:33
	ldrsh.w	r1, [sp, #32]
	.loc	10 894 31                       @ lvgl/src/lv_core/lv_refr.c:894:31
	muls	r1, r0, r1
	.loc	10 894 21                       @ lvgl/src/lv_core/lv_refr.c:894:21
	ldr	r0, [sp, #56]
	add.w	r0, r0, r1, lsl #2
	str	r0, [sp, #56]
	.loc	10 895 20 is_stmt 1             @ lvgl/src/lv_core/lv_refr.c:895:20
	ldrh.w	r1, [sp, #32]
	.loc	10 895 17 is_stmt 0             @ lvgl/src/lv_core/lv_refr.c:895:17
	ldrh.w	r0, [sp, #34]
	add	r0, r1
	strh.w	r0, [sp, #34]
.Ltmp407:
	.loc	10 860 9 is_stmt 1              @ lvgl/src/lv_core/lv_refr.c:860:9
	b	.LBB28_14
.LBB28_39:
.Ltmp408:
	.loc	10 898 12                       @ lvgl/src/lv_core/lv_refr.c:898:12
	ldr	r0, [sp, #48]
.Ltmp409:
	.loc	10 898 12 is_stmt 0             @ lvgl/src/lv_core/lv_refr.c:898:12
	cbz	r0, .LBB28_41
	b	.LBB28_40
.LBB28_40:
.Ltmp410:
	.loc	10 899 33 is_stmt 1             @ lvgl/src/lv_core/lv_refr.c:899:33
	ldr	r0, [sp, #48]
	.loc	10 899 13 is_stmt 0             @ lvgl/src/lv_core/lv_refr.c:899:13
	bl	_lv_mem_buf_release
	b	.LBB28_41
.Ltmp411:
.LBB28_41:
	.loc	10 900 5 is_stmt 1              @ lvgl/src/lv_core/lv_refr.c:900:5
	b	.LBB28_42
.Ltmp412:
.LBB28_42:
	.loc	10 0 5 is_stmt 0                @ lvgl/src/lv_core/lv_refr.c:0:5
	b	.LBB28_43
.LBB28_43:
	.loc	10 901 1 is_stmt 1              @ lvgl/src/lv_core/lv_refr.c:901:1
	add	sp, #64
	pop	{r7, pc}
.Ltmp413:
.Lfunc_end28:
	.size	lv_refr_vdb_rotate, .Lfunc_end28-lv_refr_vdb_rotate
	.cfi_endproc
	.cantunwind
	.fnend
                                        @ -- End function
	.section	.text.lv_refr_vdb_rotate_180,"ax",%progbits
	.p2align	3                               @ -- Begin function lv_refr_vdb_rotate_180
	.type	lv_refr_vdb_rotate_180,%function
	.code	16                              @ @lv_refr_vdb_rotate_180
	.thumb_func
lv_refr_vdb_rotate_180:
.Lfunc_begin29:
	.loc	10 746 0                        @ lvgl/src/lv_core/lv_refr.c:746:0
	.fnstart
	.cfi_startproc
@ %bb.0:
	.save	{r7, lr}
	push	{r7, lr}
	.cfi_def_cfa_offset 8
	.cfi_offset lr, -4
	.cfi_offset r7, -8
	.pad	#40
	sub	sp, #40
	.cfi_def_cfa_offset 48
	str	r0, [sp, #36]
	str	r1, [sp, #32]
	str	r2, [sp, #28]
.Ltmp414:
	.loc	10 747 43 prologue_end          @ lvgl/src/lv_core/lv_refr.c:747:43
	ldr	r0, [sp, #32]
	.loc	10 747 25 is_stmt 0             @ lvgl/src/lv_core/lv_refr.c:747:25
	bl	lv_area_get_width
	.loc	10 747 16                       @ lvgl/src/lv_core/lv_refr.c:747:16
	strh.w	r0, [sp, #26]
	.loc	10 748 44 is_stmt 1             @ lvgl/src/lv_core/lv_refr.c:748:44
	ldr	r0, [sp, #32]
	.loc	10 748 25 is_stmt 0             @ lvgl/src/lv_core/lv_refr.c:748:25
	bl	lv_area_get_height
	.loc	10 748 16                       @ lvgl/src/lv_core/lv_refr.c:748:16
	strh.w	r0, [sp, #24]
	.loc	10 749 22 is_stmt 1             @ lvgl/src/lv_core/lv_refr.c:749:22
	ldrsh.w	r0, [sp, #26]
	.loc	10 749 31 is_stmt 0             @ lvgl/src/lv_core/lv_refr.c:749:31
	ldrsh.w	r1, [sp, #24]
	.loc	10 749 29                       @ lvgl/src/lv_core/lv_refr.c:749:29
	muls	r0, r1, r0
	.loc	10 749 14                       @ lvgl/src/lv_core/lv_refr.c:749:14
	str	r0, [sp, #20]
	.loc	10 752 18 is_stmt 1             @ lvgl/src/lv_core/lv_refr.c:752:18
	ldr	r0, [sp, #20]
	.loc	10 752 24 is_stmt 0             @ lvgl/src/lv_core/lv_refr.c:752:24
	subs	r0, #1
	.loc	10 752 14                       @ lvgl/src/lv_core/lv_refr.c:752:14
	str	r0, [sp, #12]
	movs	r0, #0
	.loc	10 752 29                       @ lvgl/src/lv_core/lv_refr.c:752:29
	str	r0, [sp, #8]
	.loc	10 753 5 is_stmt 1              @ lvgl/src/lv_core/lv_refr.c:753:5
	b	.LBB29_1
.LBB29_1:                               @ =>This Inner Loop Header: Depth=1
	.loc	10 753 11 is_stmt 0             @ lvgl/src/lv_core/lv_refr.c:753:11
	ldr	r0, [sp, #12]
	.loc	10 753 15                       @ lvgl/src/lv_core/lv_refr.c:753:15
	ldr	r1, [sp, #8]
	.loc	10 753 5                        @ lvgl/src/lv_core/lv_refr.c:753:5
	cmp	r0, r1
	bls	.LBB29_3
	b	.LBB29_2
.LBB29_2:                               @   in Loop: Header=BB29_1 Depth=1
.Ltmp415:
	.loc	10 754 15 is_stmt 1             @ lvgl/src/lv_core/lv_refr.c:754:15
	ldr	r0, [sp, #28]
	.loc	10 754 23 is_stmt 0             @ lvgl/src/lv_core/lv_refr.c:754:23
	ldr	r1, [sp, #12]
	.loc	10 754 15                       @ lvgl/src/lv_core/lv_refr.c:754:15
	ldr.w	r0, [r0, r1, lsl #2]
	str	r0, [sp, #16]
	.loc	10 755 9 is_stmt 1              @ lvgl/src/lv_core/lv_refr.c:755:9
	ldr	r1, [sp, #28]
	.loc	10 755 17 is_stmt 0             @ lvgl/src/lv_core/lv_refr.c:755:17
	ldr	r2, [sp, #12]
	.loc	10 755 30                       @ lvgl/src/lv_core/lv_refr.c:755:30
	ldr	r0, [sp, #8]
	.loc	10 755 22                       @ lvgl/src/lv_core/lv_refr.c:755:22
	ldr.w	r0, [r1, r0, lsl #2]
	str.w	r0, [r1, r2, lsl #2]
	.loc	10 756 9 is_stmt 1              @ lvgl/src/lv_core/lv_refr.c:756:9
	ldr	r1, [sp, #28]
	.loc	10 756 17 is_stmt 0             @ lvgl/src/lv_core/lv_refr.c:756:17
	ldr	r2, [sp, #8]
	.loc	10 756 22                       @ lvgl/src/lv_core/lv_refr.c:756:22
	ldr	r0, [sp, #16]
	str.w	r0, [r1, r2, lsl #2]
	.loc	10 757 10 is_stmt 1             @ lvgl/src/lv_core/lv_refr.c:757:10
	ldr	r0, [sp, #12]
	subs	r0, #1
	str	r0, [sp, #12]
	.loc	10 758 10                       @ lvgl/src/lv_core/lv_refr.c:758:10
	ldr	r0, [sp, #8]
	adds	r0, #1
	str	r0, [sp, #8]
.Ltmp416:
	.loc	10 753 5                        @ lvgl/src/lv_core/lv_refr.c:753:5
	b	.LBB29_1
.LBB29_3:
	.loc	10 761 17                       @ lvgl/src/lv_core/lv_refr.c:761:17
	ldr	r0, [sp, #32]
	.loc	10 761 23 is_stmt 0             @ lvgl/src/lv_core/lv_refr.c:761:23
	ldrh	r0, [r0, #6]
	.loc	10 761 15                       @ lvgl/src/lv_core/lv_refr.c:761:15
	strh.w	r0, [sp, #6]
	.loc	10 762 16 is_stmt 1             @ lvgl/src/lv_core/lv_refr.c:762:16
	ldr	r0, [sp, #36]
	ldrh	r2, [r0, #2]
	.loc	10 762 31 is_stmt 0             @ lvgl/src/lv_core/lv_refr.c:762:31
	ldr	r1, [sp, #32]
	ldrh	r0, [r1, #2]
	.loc	10 762 40                       @ lvgl/src/lv_core/lv_refr.c:762:40
	mvns	r0, r0
	add	r0, r2
	.loc	10 762 14                       @ lvgl/src/lv_core/lv_refr.c:762:14
	strh	r0, [r1, #6]
	.loc	10 763 16 is_stmt 1             @ lvgl/src/lv_core/lv_refr.c:763:16
	ldr	r0, [sp, #36]
	ldrh	r1, [r0, #2]
	.loc	10 763 31 is_stmt 0             @ lvgl/src/lv_core/lv_refr.c:763:31
	ldrh.w	r0, [sp, #6]
	.loc	10 763 41                       @ lvgl/src/lv_core/lv_refr.c:763:41
	mvns	r0, r0
	add	r0, r1
	.loc	10 763 5                        @ lvgl/src/lv_core/lv_refr.c:763:5
	ldr	r1, [sp, #32]
	.loc	10 763 14                       @ lvgl/src/lv_core/lv_refr.c:763:14
	strh	r0, [r1, #2]
	.loc	10 764 17 is_stmt 1             @ lvgl/src/lv_core/lv_refr.c:764:17
	ldr	r0, [sp, #32]
	.loc	10 764 23 is_stmt 0             @ lvgl/src/lv_core/lv_refr.c:764:23
	ldrh	r0, [r0, #4]
	.loc	10 764 15                       @ lvgl/src/lv_core/lv_refr.c:764:15
	strh.w	r0, [sp, #6]
	.loc	10 765 16 is_stmt 1             @ lvgl/src/lv_core/lv_refr.c:765:16
	ldr	r0, [sp, #36]
	ldrh	r2, [r0]
	.loc	10 765 31 is_stmt 0             @ lvgl/src/lv_core/lv_refr.c:765:31
	ldr	r1, [sp, #32]
	ldrh	r0, [r1]
	.loc	10 765 40                       @ lvgl/src/lv_core/lv_refr.c:765:40
	mvns	r0, r0
	add	r0, r2
	.loc	10 765 14                       @ lvgl/src/lv_core/lv_refr.c:765:14
	strh	r0, [r1, #4]
	.loc	10 766 16 is_stmt 1             @ lvgl/src/lv_core/lv_refr.c:766:16
	ldr	r0, [sp, #36]
	ldrh	r1, [r0]
	.loc	10 766 31 is_stmt 0             @ lvgl/src/lv_core/lv_refr.c:766:31
	ldrh.w	r0, [sp, #6]
	.loc	10 766 41                       @ lvgl/src/lv_core/lv_refr.c:766:41
	mvns	r0, r0
	add	r0, r1
	.loc	10 766 5                        @ lvgl/src/lv_core/lv_refr.c:766:5
	ldr	r1, [sp, #32]
	.loc	10 766 14                       @ lvgl/src/lv_core/lv_refr.c:766:14
	strh	r0, [r1]
	.loc	10 767 1 is_stmt 1              @ lvgl/src/lv_core/lv_refr.c:767:1
	add	sp, #40
	pop	{r7, pc}
.Ltmp417:
.Lfunc_end29:
	.size	lv_refr_vdb_rotate_180, .Lfunc_end29-lv_refr_vdb_rotate_180
	.cfi_endproc
	.cantunwind
	.fnend
                                        @ -- End function
	.section	.text.lv_refr_vdb_rotate_90_sqr,"ax",%progbits
	.p2align	3                               @ -- Begin function lv_refr_vdb_rotate_90_sqr
	.type	lv_refr_vdb_rotate_90_sqr,%function
	.code	16                              @ @lv_refr_vdb_rotate_90_sqr
	.thumb_func
lv_refr_vdb_rotate_90_sqr:
.Lfunc_begin30:
	.loc	10 803 0                        @ lvgl/src/lv_core/lv_refr.c:803:0
	.fnstart
	.cfi_startproc
@ %bb.0:
	.save	{r4, lr}
	push	{r4, lr}
	.cfi_def_cfa_offset 8
	.cfi_offset lr, -4
	.cfi_offset r4, -8
	.pad	#16
	sub	sp, #16
	.cfi_def_cfa_offset 24
                                        @ kill: def $r3 killed $r1
                                        @ kill: def $r3 killed $r0
	strb.w	r0, [sp, #15]
	strh.w	r1, [sp, #12]
	str	r2, [sp, #8]
	movs	r0, #0
.Ltmp418:
	.loc	10 804 20 prologue_end          @ lvgl/src/lv_core/lv_refr.c:804:20
	strh.w	r0, [sp, #6]
	.loc	10 804 9 is_stmt 0              @ lvgl/src/lv_core/lv_refr.c:804:9
	b	.LBB30_1
.LBB30_1:                               @ =>This Loop Header: Depth=1
                                        @     Child Loop BB30_3 Depth 2
.Ltmp419:
	.loc	10 804 27                       @ lvgl/src/lv_core/lv_refr.c:804:27
	ldrsh.w	r0, [sp, #6]
	.loc	10 804 31                       @ lvgl/src/lv_core/lv_refr.c:804:31
	ldrsh.w	r1, [sp, #12]
	.loc	10 804 32                       @ lvgl/src/lv_core/lv_refr.c:804:32
	add.w	r1, r1, r1, lsr #31
.Ltmp420:
	.loc	10 804 5                        @ lvgl/src/lv_core/lv_refr.c:804:5
	cmp.w	r0, r1, asr #1
	bge	.LBB30_11
	b	.LBB30_2
.LBB30_2:                               @   in Loop: Header=BB30_1 Depth=1
	.loc	10 0 5                          @ lvgl/src/lv_core/lv_refr.c:0:5
	movs	r0, #0
.Ltmp421:
	.loc	10 805 24 is_stmt 1             @ lvgl/src/lv_core/lv_refr.c:805:24
	strh.w	r0, [sp, #4]
	.loc	10 805 13 is_stmt 0             @ lvgl/src/lv_core/lv_refr.c:805:13
	b	.LBB30_3
.LBB30_3:                               @   Parent Loop BB30_1 Depth=1
                                        @ =>  This Inner Loop Header: Depth=2
.Ltmp422:
	.loc	10 805 31                       @ lvgl/src/lv_core/lv_refr.c:805:31
	ldrsh.w	r0, [sp, #4]
	.loc	10 805 36                       @ lvgl/src/lv_core/lv_refr.c:805:36
	ldrsh.w	r1, [sp, #12]
	.loc	10 805 38                       @ lvgl/src/lv_core/lv_refr.c:805:38
	adds	r1, #1
	.loc	10 805 42                       @ lvgl/src/lv_core/lv_refr.c:805:42
	add.w	r1, r1, r1, lsr #31
.Ltmp423:
	.loc	10 805 9                        @ lvgl/src/lv_core/lv_refr.c:805:9
	cmp.w	r0, r1, asr #1
	bge	.LBB30_9
	b	.LBB30_4
.LBB30_4:                               @   in Loop: Header=BB30_3 Depth=2
.Ltmp424:
	.loc	10 806 33 is_stmt 1             @ lvgl/src/lv_core/lv_refr.c:806:33
	ldrh.w	r1, [sp, #12]
	.loc	10 806 42 is_stmt 0             @ lvgl/src/lv_core/lv_refr.c:806:42
	ldrh.w	r0, [sp, #6]
	.loc	10 806 40                       @ lvgl/src/lv_core/lv_refr.c:806:40
	mvns	r0, r0
	add	r0, r1
	.loc	10 806 24                       @ lvgl/src/lv_core/lv_refr.c:806:24
	strh.w	r0, [sp, #2]
	.loc	10 807 33 is_stmt 1             @ lvgl/src/lv_core/lv_refr.c:807:33
	ldrh.w	r1, [sp, #12]
	.loc	10 807 42 is_stmt 0             @ lvgl/src/lv_core/lv_refr.c:807:42
	ldrh.w	r0, [sp, #4]
	.loc	10 807 40                       @ lvgl/src/lv_core/lv_refr.c:807:40
	mvns	r0, r0
	add	r0, r1
	.loc	10 807 24                       @ lvgl/src/lv_core/lv_refr.c:807:24
	strh.w	r0, [sp]
.Ltmp425:
	.loc	10 808 16 is_stmt 1             @ lvgl/src/lv_core/lv_refr.c:808:16
	ldrb.w	r0, [sp, #15]
.Ltmp426:
	.loc	10 808 16 is_stmt 0             @ lvgl/src/lv_core/lv_refr.c:808:16
	lsls	r0, r0, #31
	cbz	r0, .LBB30_6
	b	.LBB30_5
.LBB30_5:                               @   in Loop: Header=BB30_3 Depth=2
.Ltmp427:
	.loc	10 810 22 is_stmt 1             @ lvgl/src/lv_core/lv_refr.c:810:22
	ldr	r3, [sp, #8]
	.loc	10 810 30 is_stmt 0             @ lvgl/src/lv_core/lv_refr.c:810:30
	ldrsh.w	r1, [sp, #6]
	.loc	10 810 34                       @ lvgl/src/lv_core/lv_refr.c:810:34
	ldrsh.w	lr, [sp, #12]
	.loc	10 810 38                       @ lvgl/src/lv_core/lv_refr.c:810:38
	ldrsh.w	r12, [sp, #4]
	.loc	10 810 36                       @ lvgl/src/lv_core/lv_refr.c:810:36
	smlabb	r0, r1, lr, r12
	.loc	10 810 22                       @ lvgl/src/lv_core/lv_refr.c:810:22
	add.w	r0, r3, r0, lsl #2
	.loc	10 811 30 is_stmt 1             @ lvgl/src/lv_core/lv_refr.c:811:30
	ldrsh.w	r2, [sp]
	.loc	10 811 40 is_stmt 0             @ lvgl/src/lv_core/lv_refr.c:811:40
	smlabb	r1, r2, lr, r1
	.loc	10 811 22                       @ lvgl/src/lv_core/lv_refr.c:811:22
	add.w	r1, r3, r1, lsl #2
	.loc	10 812 30 is_stmt 1             @ lvgl/src/lv_core/lv_refr.c:812:30
	ldrsh.w	r4, [sp, #2]
	.loc	10 812 40 is_stmt 0             @ lvgl/src/lv_core/lv_refr.c:812:40
	smlabb	r2, r4, lr, r2
	.loc	10 812 22                       @ lvgl/src/lv_core/lv_refr.c:812:22
	add.w	r2, r3, r2, lsl #2
	.loc	10 813 36 is_stmt 1             @ lvgl/src/lv_core/lv_refr.c:813:36
	smlabb	r12, r12, lr, r4
	.loc	10 813 22 is_stmt 0             @ lvgl/src/lv_core/lv_refr.c:813:22
	add.w	r3, r3, r12, lsl #2
	.loc	10 809 17 is_stmt 1             @ lvgl/src/lv_core/lv_refr.c:809:17
	bl	lv_vdb_rotate4
	.loc	10 815 13                       @ lvgl/src/lv_core/lv_refr.c:815:13
	b	.LBB30_7
.Ltmp428:
.LBB30_6:                               @   in Loop: Header=BB30_3 Depth=2
	.loc	10 817 22                       @ lvgl/src/lv_core/lv_refr.c:817:22
	ldr	r3, [sp, #8]
	.loc	10 817 30 is_stmt 0             @ lvgl/src/lv_core/lv_refr.c:817:30
	ldrsh.w	r4, [sp, #6]
	.loc	10 817 34                       @ lvgl/src/lv_core/lv_refr.c:817:34
	ldrsh.w	lr, [sp, #12]
	.loc	10 817 38                       @ lvgl/src/lv_core/lv_refr.c:817:38
	ldrsh.w	r1, [sp, #4]
	.loc	10 817 36                       @ lvgl/src/lv_core/lv_refr.c:817:36
	smlabb	r0, r4, lr, r1
	.loc	10 817 22                       @ lvgl/src/lv_core/lv_refr.c:817:22
	add.w	r0, r3, r0, lsl #2
	.loc	10 818 38 is_stmt 1             @ lvgl/src/lv_core/lv_refr.c:818:38
	ldrsh.w	r2, [sp, #2]
	.loc	10 818 36 is_stmt 0             @ lvgl/src/lv_core/lv_refr.c:818:36
	smlabb	r1, r1, lr, r2
	.loc	10 818 22                       @ lvgl/src/lv_core/lv_refr.c:818:22
	add.w	r1, r3, r1, lsl #2
	.loc	10 819 42 is_stmt 1             @ lvgl/src/lv_core/lv_refr.c:819:42
	ldrsh.w	r12, [sp]
	.loc	10 819 40 is_stmt 0             @ lvgl/src/lv_core/lv_refr.c:819:40
	smlabb	r2, r2, lr, r12
	.loc	10 819 22                       @ lvgl/src/lv_core/lv_refr.c:819:22
	add.w	r2, r3, r2, lsl #2
	.loc	10 820 40 is_stmt 1             @ lvgl/src/lv_core/lv_refr.c:820:40
	smlabb	r12, r12, lr, r4
	.loc	10 820 22 is_stmt 0             @ lvgl/src/lv_core/lv_refr.c:820:22
	add.w	r3, r3, r12, lsl #2
	.loc	10 816 17 is_stmt 1             @ lvgl/src/lv_core/lv_refr.c:816:17
	bl	lv_vdb_rotate4
	b	.LBB30_7
.Ltmp429:
.LBB30_7:                               @   in Loop: Header=BB30_3 Depth=2
	.loc	10 824 9                        @ lvgl/src/lv_core/lv_refr.c:824:9
	b	.LBB30_8
.Ltmp430:
.LBB30_8:                               @   in Loop: Header=BB30_3 Depth=2
	.loc	10 805 47                       @ lvgl/src/lv_core/lv_refr.c:805:47
	ldrh.w	r0, [sp, #4]
	adds	r0, #1
	strh.w	r0, [sp, #4]
	.loc	10 805 9 is_stmt 0              @ lvgl/src/lv_core/lv_refr.c:805:9
	b	.LBB30_3
.Ltmp431:
.LBB30_9:                               @   in Loop: Header=BB30_1 Depth=1
	.loc	10 825 5 is_stmt 1              @ lvgl/src/lv_core/lv_refr.c:825:5
	b	.LBB30_10
.Ltmp432:
.LBB30_10:                              @   in Loop: Header=BB30_1 Depth=1
	.loc	10 804 37                       @ lvgl/src/lv_core/lv_refr.c:804:37
	ldrh.w	r0, [sp, #6]
	adds	r0, #1
	strh.w	r0, [sp, #6]
	.loc	10 804 5 is_stmt 0              @ lvgl/src/lv_core/lv_refr.c:804:5
	b	.LBB30_1
.Ltmp433:
.LBB30_11:
	.loc	10 826 1 is_stmt 1              @ lvgl/src/lv_core/lv_refr.c:826:1
	add	sp, #16
	pop	{r4, pc}
.Ltmp434:
.Lfunc_end30:
	.size	lv_refr_vdb_rotate_90_sqr, .Lfunc_end30-lv_refr_vdb_rotate_90_sqr
	.cfi_endproc
	.cantunwind
	.fnend
                                        @ -- End function
	.section	.text.lv_refr_vdb_rotate_90,"ax",%progbits
	.p2align	3                               @ -- Begin function lv_refr_vdb_rotate_90
	.type	lv_refr_vdb_rotate_90,%function
	.code	16                              @ @lv_refr_vdb_rotate_90
	.thumb_func
lv_refr_vdb_rotate_90:
.Lfunc_begin31:
	.loc	10 769 0                        @ lvgl/src/lv_core/lv_refr.c:769:0
	.fnstart
	.cfi_startproc
@ %bb.0:
	.pad	#32
	sub	sp, #32
	.cfi_def_cfa_offset 32
	ldr.w	r12, [sp, #32]
                                        @ kill: def $r12 killed $r2
                                        @ kill: def $r12 killed $r1
                                        @ kill: def $r12 killed $r0
	strb.w	r0, [sp, #31]
	strh.w	r1, [sp, #28]
	strh.w	r2, [sp, #26]
	str	r3, [sp, #20]
.Ltmp435:
	.loc	10 771 24 prologue_end          @ lvgl/src/lv_core/lv_refr.c:771:24
	ldrsh.w	r0, [sp, #28]
	.loc	10 771 33 is_stmt 0             @ lvgl/src/lv_core/lv_refr.c:771:33
	ldrsh.w	r1, [sp, #26]
	.loc	10 771 31                       @ lvgl/src/lv_core/lv_refr.c:771:31
	muls	r0, r1, r0
	.loc	10 771 41                       @ lvgl/src/lv_core/lv_refr.c:771:41
	subs	r0, #1
	.loc	10 771 14                       @ lvgl/src/lv_core/lv_refr.c:771:14
	str	r0, [sp, #16]
	.loc	10 772 28 is_stmt 1             @ lvgl/src/lv_core/lv_refr.c:772:28
	ldrsh.w	r0, [sp, #28]
	.loc	10 772 35 is_stmt 0             @ lvgl/src/lv_core/lv_refr.c:772:35
	subs	r0, #1
	.loc	10 772 42                       @ lvgl/src/lv_core/lv_refr.c:772:42
	ldrsh.w	r1, [sp, #26]
	.loc	10 772 40                       @ lvgl/src/lv_core/lv_refr.c:772:40
	muls	r0, r1, r0
	.loc	10 772 14                       @ lvgl/src/lv_core/lv_refr.c:772:14
	str	r0, [sp, #12]
	movs	r0, #0
.Ltmp436:
	.loc	10 773 20 is_stmt 1             @ lvgl/src/lv_core/lv_refr.c:773:20
	strh.w	r0, [sp, #10]
	.loc	10 773 9 is_stmt 0              @ lvgl/src/lv_core/lv_refr.c:773:9
	b	.LBB31_1
.LBB31_1:                               @ =>This Loop Header: Depth=1
                                        @     Child Loop BB31_5 Depth 2
.Ltmp437:
	.loc	10 773 27                       @ lvgl/src/lv_core/lv_refr.c:773:27
	ldrsh.w	r0, [sp, #10]
	.loc	10 773 31                       @ lvgl/src/lv_core/lv_refr.c:773:31
	ldrsh.w	r1, [sp, #26]
.Ltmp438:
	.loc	10 773 5                        @ lvgl/src/lv_core/lv_refr.c:773:5
	cmp	r0, r1
	bge	.LBB31_13
	b	.LBB31_2
.LBB31_2:                               @   in Loop: Header=BB31_1 Depth=1
.Ltmp439:
	.loc	10 774 22 is_stmt 1             @ lvgl/src/lv_core/lv_refr.c:774:22
	ldr	r0, [sp, #12]
	.loc	10 774 34 is_stmt 0             @ lvgl/src/lv_core/lv_refr.c:774:34
	ldrsh.w	r1, [sp, #10]
	.loc	10 774 32                       @ lvgl/src/lv_core/lv_refr.c:774:32
	add	r0, r1
	.loc	10 774 18                       @ lvgl/src/lv_core/lv_refr.c:774:18
	str	r0, [sp, #4]
.Ltmp440:
	.loc	10 775 12 is_stmt 1             @ lvgl/src/lv_core/lv_refr.c:775:12
	ldrb.w	r0, [sp, #31]
.Ltmp441:
	.loc	10 775 12 is_stmt 0             @ lvgl/src/lv_core/lv_refr.c:775:12
	lsls	r0, r0, #31
	cbz	r0, .LBB31_4
	b	.LBB31_3
.LBB31_3:                               @   in Loop: Header=BB31_1 Depth=1
.Ltmp442:
	.loc	10 776 17 is_stmt 1             @ lvgl/src/lv_core/lv_refr.c:776:17
	ldr	r0, [sp, #16]
	.loc	10 776 26 is_stmt 0             @ lvgl/src/lv_core/lv_refr.c:776:26
	ldr	r1, [sp, #4]
	.loc	10 776 24                       @ lvgl/src/lv_core/lv_refr.c:776:24
	subs	r0, r0, r1
	.loc	10 776 15                       @ lvgl/src/lv_core/lv_refr.c:776:15
	str	r0, [sp, #4]
	.loc	10 776 13                       @ lvgl/src/lv_core/lv_refr.c:776:13
	b	.LBB31_4
.Ltmp443:
.LBB31_4:                               @   in Loop: Header=BB31_1 Depth=1
	.loc	10 0 13                         @ lvgl/src/lv_core/lv_refr.c:0:13
	movs	r0, #0
.Ltmp444:
	.loc	10 777 24 is_stmt 1             @ lvgl/src/lv_core/lv_refr.c:777:24
	strh.w	r0, [sp, #2]
	.loc	10 777 13 is_stmt 0             @ lvgl/src/lv_core/lv_refr.c:777:13
	b	.LBB31_5
.LBB31_5:                               @   Parent Loop BB31_1 Depth=1
                                        @ =>  This Inner Loop Header: Depth=2
.Ltmp445:
	.loc	10 777 31                       @ lvgl/src/lv_core/lv_refr.c:777:31
	ldrsh.w	r0, [sp, #2]
	.loc	10 777 35                       @ lvgl/src/lv_core/lv_refr.c:777:35
	ldrsh.w	r1, [sp, #28]
.Ltmp446:
	.loc	10 777 9                        @ lvgl/src/lv_core/lv_refr.c:777:9
	cmp	r0, r1
	bge	.LBB31_11
	b	.LBB31_6
.LBB31_6:                               @   in Loop: Header=BB31_5 Depth=2
.Ltmp447:
	.loc	10 778 13 is_stmt 1             @ lvgl/src/lv_core/lv_refr.c:778:13
	ldr	r1, [sp, #32]
	.loc	10 778 21 is_stmt 0             @ lvgl/src/lv_core/lv_refr.c:778:21
	ldr	r2, [sp, #4]
	.loc	10 778 40                       @ lvgl/src/lv_core/lv_refr.c:778:40
	ldr	r0, [sp, #20]
	adds	r3, r0, #4
	str	r3, [sp, #20]
	.loc	10 778 26                       @ lvgl/src/lv_core/lv_refr.c:778:26
	ldr	r0, [r0]
	str.w	r0, [r1, r2, lsl #2]
.Ltmp448:
	.loc	10 779 16 is_stmt 1             @ lvgl/src/lv_core/lv_refr.c:779:16
	ldrb.w	r0, [sp, #31]
.Ltmp449:
	.loc	10 779 16 is_stmt 0             @ lvgl/src/lv_core/lv_refr.c:779:16
	lsls	r0, r0, #31
	cbz	r0, .LBB31_8
	b	.LBB31_7
.LBB31_7:                               @   in Loop: Header=BB31_5 Depth=2
.Ltmp450:
	.loc	10 780 22 is_stmt 1             @ lvgl/src/lv_core/lv_refr.c:780:22
	ldrsh.w	r1, [sp, #26]
	.loc	10 780 19 is_stmt 0             @ lvgl/src/lv_core/lv_refr.c:780:19
	ldr	r0, [sp, #4]
	add	r0, r1
	str	r0, [sp, #4]
	.loc	10 780 17                       @ lvgl/src/lv_core/lv_refr.c:780:17
	b	.LBB31_9
.LBB31_8:                               @   in Loop: Header=BB31_5 Depth=2
	.loc	10 782 22 is_stmt 1             @ lvgl/src/lv_core/lv_refr.c:782:22
	ldrsh.w	r1, [sp, #26]
	.loc	10 782 19 is_stmt 0             @ lvgl/src/lv_core/lv_refr.c:782:19
	ldr	r0, [sp, #4]
	subs	r0, r0, r1
	str	r0, [sp, #4]
	b	.LBB31_9
.Ltmp451:
.LBB31_9:                               @   in Loop: Header=BB31_5 Depth=2
	.loc	10 783 9 is_stmt 1              @ lvgl/src/lv_core/lv_refr.c:783:9
	b	.LBB31_10
.Ltmp452:
.LBB31_10:                              @   in Loop: Header=BB31_5 Depth=2
	.loc	10 777 44                       @ lvgl/src/lv_core/lv_refr.c:777:44
	ldrh.w	r0, [sp, #2]
	adds	r0, #1
	strh.w	r0, [sp, #2]
	.loc	10 777 9 is_stmt 0              @ lvgl/src/lv_core/lv_refr.c:777:9
	b	.LBB31_5
.Ltmp453:
.LBB31_11:                              @   in Loop: Header=BB31_1 Depth=1
	.loc	10 784 5 is_stmt 1              @ lvgl/src/lv_core/lv_refr.c:784:5
	b	.LBB31_12
.Ltmp454:
.LBB31_12:                              @   in Loop: Header=BB31_1 Depth=1
	.loc	10 773 40                       @ lvgl/src/lv_core/lv_refr.c:773:40
	ldrh.w	r0, [sp, #10]
	adds	r0, #1
	strh.w	r0, [sp, #10]
	.loc	10 773 5 is_stmt 0              @ lvgl/src/lv_core/lv_refr.c:773:5
	b	.LBB31_1
.Ltmp455:
.LBB31_13:
	.loc	10 785 1 is_stmt 1              @ lvgl/src/lv_core/lv_refr.c:785:1
	add	sp, #32
	bx	lr
.Ltmp456:
.Lfunc_end31:
	.size	lv_refr_vdb_rotate_90, .Lfunc_end31-lv_refr_vdb_rotate_90
	.cfi_endproc
	.cantunwind
	.fnend
                                        @ -- End function
	.section	.text.lv_vdb_rotate4,"ax",%progbits
	.p2align	3                               @ -- Begin function lv_vdb_rotate4
	.type	lv_vdb_rotate4,%function
	.code	16                              @ @lv_vdb_rotate4
	.thumb_func
lv_vdb_rotate4:
.Lfunc_begin32:
	.loc	10 790 0                        @ lvgl/src/lv_core/lv_refr.c:790:0
	.fnstart
	.cfi_startproc
@ %bb.0:
	.pad	#20
	sub	sp, #20
	.cfi_def_cfa_offset 20
	str	r0, [sp, #16]
	str	r1, [sp, #12]
	str	r2, [sp, #8]
	str	r3, [sp, #4]
.Ltmp457:
	.loc	10 792 12 prologue_end          @ lvgl/src/lv_core/lv_refr.c:792:12
	ldr	r0, [sp, #16]
	.loc	10 792 11 is_stmt 0             @ lvgl/src/lv_core/lv_refr.c:792:11
	ldr	r0, [r0]
	str	r0, [sp]
	.loc	10 793 6 is_stmt 1              @ lvgl/src/lv_core/lv_refr.c:793:6
	ldr	r1, [sp, #16]
	.loc	10 793 11 is_stmt 0             @ lvgl/src/lv_core/lv_refr.c:793:11
	ldr	r0, [sp, #12]
	.loc	10 793 10                       @ lvgl/src/lv_core/lv_refr.c:793:10
	ldr	r0, [r0]
	str	r0, [r1]
	.loc	10 794 6 is_stmt 1              @ lvgl/src/lv_core/lv_refr.c:794:6
	ldr	r1, [sp, #12]
	.loc	10 794 11 is_stmt 0             @ lvgl/src/lv_core/lv_refr.c:794:11
	ldr	r0, [sp, #8]
	.loc	10 794 10                       @ lvgl/src/lv_core/lv_refr.c:794:10
	ldr	r0, [r0]
	str	r0, [r1]
	.loc	10 795 6 is_stmt 1              @ lvgl/src/lv_core/lv_refr.c:795:6
	ldr	r1, [sp, #8]
	.loc	10 795 11 is_stmt 0             @ lvgl/src/lv_core/lv_refr.c:795:11
	ldr	r0, [sp, #4]
	.loc	10 795 10                       @ lvgl/src/lv_core/lv_refr.c:795:10
	ldr	r0, [r0]
	str	r0, [r1]
	.loc	10 796 6 is_stmt 1              @ lvgl/src/lv_core/lv_refr.c:796:6
	ldr	r1, [sp, #4]
	.loc	10 796 10 is_stmt 0             @ lvgl/src/lv_core/lv_refr.c:796:10
	ldr	r0, [sp]
	str	r0, [r1]
	.loc	10 797 1 is_stmt 1              @ lvgl/src/lv_core/lv_refr.c:797:1
	add	sp, #20
	bx	lr
.Ltmp458:
.Lfunc_end32:
	.size	lv_vdb_rotate4, .Lfunc_end32-lv_vdb_rotate4
	.cfi_endproc
	.cantunwind
	.fnend
                                        @ -- End function
	.type	disp_refr,%object               @ @disp_refr
	.section	.bss.disp_refr,"aw",%nobits
	.p2align	2
disp_refr:
	.long	0
	.size	disp_refr, 4

	.type	px_num,%object                  @ @px_num
	.section	.bss.px_num,"aw",%nobits
	.p2align	2
px_num:
	.long	0                               @ 0x0
	.size	px_num, 4

	.type	_lv_disp_refr_task.perf_label,%object @ @_lv_disp_refr_task.perf_label
	.section	.bss._lv_disp_refr_task.perf_label,"aw",%nobits
	.p2align	2
_lv_disp_refr_task.perf_label:
	.long	0
	.size	_lv_disp_refr_task.perf_label, 4

	.type	.L.str,%object                  @ @.str
	.section	.rodata.str1.1,"aMS",%progbits,1
.L.str:
	.asciz	"?"
	.size	.L.str, 2

	.type	_lv_disp_refr_task.perf_last_time,%object @ @_lv_disp_refr_task.perf_last_time
	.section	.bss._lv_disp_refr_task.perf_last_time,"aw",%nobits
	.p2align	2
_lv_disp_refr_task.perf_last_time:
	.long	0                               @ 0x0
	.size	_lv_disp_refr_task.perf_last_time, 4

	.type	_lv_disp_refr_task.elaps_sum,%object @ @_lv_disp_refr_task.elaps_sum
	.section	.bss._lv_disp_refr_task.elaps_sum,"aw",%nobits
	.p2align	2
_lv_disp_refr_task.elaps_sum:
	.long	0                               @ 0x0
	.size	_lv_disp_refr_task.elaps_sum, 4

	.type	_lv_disp_refr_task.frame_cnt,%object @ @_lv_disp_refr_task.frame_cnt
	.section	.bss._lv_disp_refr_task.frame_cnt,"aw",%nobits
	.p2align	2
_lv_disp_refr_task.frame_cnt:
	.long	0                               @ 0x0
	.size	_lv_disp_refr_task.frame_cnt, 4

	.type	fps_sum_all,%object             @ @fps_sum_all
	.section	.bss.fps_sum_all,"aw",%nobits
	.p2align	2
fps_sum_all:
	.long	0                               @ 0x0
	.size	fps_sum_all, 4

	.type	fps_sum_cnt,%object             @ @fps_sum_cnt
	.section	.bss.fps_sum_cnt,"aw",%nobits
	.p2align	2
fps_sum_cnt:
	.long	0                               @ 0x0
	.size	fps_sum_cnt, 4

	.type	.L.str.1,%object                @ @.str.1
	.section	.rodata.str1.1,"aMS",%progbits,1
.L.str.1:
	.asciz	"%d FPS\n%d%% CPU"
	.size	.L.str.1, 16

	.file	18 "D:\\Keil_v5\\ARM\\ARMCLANG\\Bin\\..\\include" "stddef.h"
	.file	19 "E:\\Smart-access-control\\Hardware\\CODE" "lvgl/src/lv_core/../lv_draw/lv_draw_img.h"
	.file	20 "E:\\Smart-access-control\\Hardware\\CODE" "lvgl/src/lv_core/../lv_draw/lv_draw_blend.h"
	.file	21 "E:\\Smart-access-control\\Hardware\\CODE" "lvgl/src/lv_core/../lv_draw/lv_img_buf.h"
	.file	22 "E:\\Smart-access-control\\Hardware\\CODE" "lvgl/src/lv_core/../lv_draw/lv_draw_rect.h"
	.file	23 "E:\\Smart-access-control\\Hardware\\CODE" "lvgl/src/lv_core/../lv_widgets/../lv_font/lv_font.h"
	.section	".note.GNU-stack","",%progbits
	.eabi_attribute	30, 6	@ Tag_ABI_optimization_goals
	.ARM_attribute	16, 1	@ Tag_AV_eba